
zig-out/bin/blink.bin:	file format elf32-littlearm

Disassembly of section .text:

00008000 <_start>:
    8000: e3a00013     	mov	r0, #19
    8004: e3800080     	orr	r0, r0, #128
    8008: e129f000     	msr	CPSR_fc, r0
    800c: e3a01000     	mov	r1, #0
    8010: ee071f95     	mcr	p15, #0, r1, c7, c5, #4
    8014: e3a0d302     	mov	sp, #134217728
    8018: e3a0b000     	mov	r11, #0
    801c: eb0000cc     	bl	0x8354 <zigMain>        @ imm = #816
    8020: e320f002     	<unknown>

00008024 <put32>:
    8024: e5801000     	str	r1, [r0]
    8028: e12fff1e     	<unknown>

0000802c <get32>:
    802c: e5900000     	ldr	r0, [r0]
    8030: e12fff1e     	<unknown>

00008034 <nop>:
    8034: e12fff1e     	<unknown>

00008038 <target.Target.Cpu.Feature.feature_set_fns(target.arm.Feature).featureSet>:
    8038: e92d4830     	push	{r4, r5, r11, lr}
    803c: e28db008     	add	r11, sp, #8
    8040: e24dd078     	sub	sp, sp, #120
    8044: e58d201c     	str	r2, [sp, #28]
    8048: e58d000c     	str	r0, [sp, #12]
    804c: e58d2010     	str	r2, [sp, #16]
    8050: e58d1014     	str	r1, [sp, #20]
    8054: e24b0038     	sub	r0, r11, #56
    8058: e58d0018     	str	r0, [sp, #24]
    805c: eb00003f     	bl	0x8160 <target.Target.Cpu.Feature.Set.empty_workaround> @ imm = #252
    8060: e59d1018     	ldr	r1, [sp, #24]
    8064: e59d201c     	ldr	r2, [sp, #28]
    8068: e28d0024     	add	r0, sp, #36
    806c: e8b15018     	ldm	r1!, {r3, r4, r12, lr}
    8070: e8a05018     	stm	r0!, {r3, r4, r12, lr}
    8074: e8915038     	ldm	r1, {r3, r4, r5, r12, lr}
    8078: e8805038     	stm	r0, {r3, r4, r5, r12, lr}
    807c: e58d2020     	str	r2, [sp, #32]
    8080: e3a00000     	mov	r0, #0
    8084: e50b0014     	str	r0, [r11, #-20]
    8088: eaffffff     	b	0x808c <target.Target.Cpu.Feature.feature_set_fns(target.arm.Feature).featureSet+0x54> @ imm = #-4
    808c: e59d1020     	ldr	r1, [sp, #32]
    8090: e51b0014     	ldr	r0, [r11, #-20]
    8094: e58d0008     	str	r0, [sp, #8]
    8098: e1500001     	cmp	r0, r1
    809c: 2a000007     	bhs	0x80c0 <target.Target.Cpu.Feature.feature_set_fns(target.arm.Feature).featureSet+0x88> @ imm = #28
    80a0: eaffffff     	b	0x80a4 <target.Target.Cpu.Feature.feature_set_fns(target.arm.Feature).featureSet+0x6c> @ imm = #-4
    80a4: e59d0008     	ldr	r0, [sp, #8]
    80a8: e59d1010     	ldr	r1, [sp, #16]
    80ac: e1a02001     	mov	r2, r1
    80b0: e58d2004     	str	r2, [sp, #4]
    80b4: e1500001     	cmp	r0, r1
    80b8: 3a000001     	blo	0x80c4 <target.Target.Cpu.Feature.feature_set_fns(target.arm.Feature).featureSet+0x8c> @ imm = #4
    80bc: ea000001     	b	0x80c8 <target.Target.Cpu.Feature.feature_set_fns(target.arm.Feature).featureSet+0x90> @ imm = #4
    80c0: ea00001c     	b	0x8138 <target.Target.Cpu.Feature.feature_set_fns(target.arm.Feature).featureSet+0x100> @ imm = #112
    80c4: ea000002     	b	0x80d4 <target.Target.Cpu.Feature.feature_set_fns(target.arm.Feature).featureSet+0x9c> @ imm = #8
    80c8: e59d1004     	ldr	r1, [sp, #4]
    80cc: e59d0008     	ldr	r0, [sp, #8]
    80d0: eb00002b     	bl	0x8184 <builtin.panicOutOfBounds> @ imm = #172
    80d4: e59d0014     	ldr	r0, [sp, #20]
    80d8: e59d1008     	ldr	r1, [sp, #8]
    80dc: e7d01001     	ldrb	r1, [r0, r1]
    80e0: e28d0024     	add	r0, sp, #36
    80e4: eb000032     	bl	0x81b4 <target.Target.Cpu.Feature.Set.addFeature> @ imm = #200
    80e8: eaffffff     	b	0x80ec <target.Target.Cpu.Feature.feature_set_fns(target.arm.Feature).featureSet+0xb4> @ imm = #-4
    80ec: e51b0014     	ldr	r0, [r11, #-20]
    80f0: e2901001     	adds	r1, r0, #1
    80f4: e3a00000     	mov	r0, #0
    80f8: e2a00000     	adc	r0, r0, #0
    80fc: e50b1010     	str	r1, [r11, #-16]
    8100: e54b000c     	strb	r0, [r11, #-12]
    8104: e55b000c     	ldrb	r0, [r11, #-12]
    8108: e3500000     	cmp	r0, #0
    810c: 1a000001     	bne	0x8118 <target.Target.Cpu.Feature.feature_set_fns(target.arm.Feature).featureSet+0xe0> @ imm = #4
    8110: eaffffff     	b	0x8114 <target.Target.Cpu.Feature.feature_set_fns(target.arm.Feature).featureSet+0xdc> @ imm = #-4
    8114: ea000004     	b	0x812c <target.Target.Cpu.Feature.feature_set_fns(target.arm.Feature).featureSet+0xf4> @ imm = #16
    8118: e59f0038     	ldr	r0, [pc, #56]           @ 0x8158 <$d.1>
    811c: e59f3038     	ldr	r3, [pc, #56]           @ 0x815c <$d.1+0x4>
    8120: e3a01010     	mov	r1, #16
    8124: e3a02000     	mov	r2, #0
    8128: eb000052     	bl	0x8278 <builtin.default_panic> @ imm = #328
    812c: e51b0010     	ldr	r0, [r11, #-16]
    8130: e50b0014     	str	r0, [r11, #-20]
    8134: eaffffd4     	b	0x808c <target.Target.Cpu.Feature.feature_set_fns(target.arm.Feature).featureSet+0x54> @ imm = #-176
    8138: e59d000c     	ldr	r0, [sp, #12]
    813c: e28d1024     	add	r1, sp, #36
    8140: e8b1500c     	ldm	r1!, {r2, r3, r12, lr}
    8144: e8a0500c     	stm	r0!, {r2, r3, r12, lr}
    8148: e891501c     	ldm	r1, {r2, r3, r4, r12, lr}
    814c: e880501c     	stm	r0, {r2, r3, r4, r12, lr}
    8150: e24bd008     	sub	sp, r11, #8
    8154: e8bd8830     	pop	{r4, r5, r11, pc}

00008158 <$d.1>:
    8158: 0000cdd8     	ldrdeq	r12, sp, [r0], -r8
    815c: 0000c718     	andeq	r12, r0, r8, lsl r7

00008160 <target.Target.Cpu.Feature.Set.empty_workaround>:
    8160: e92d4c10     	push	{r4, r10, r11, lr}
    8164: e28db008     	add	r11, sp, #8
    8168: e59f1010     	ldr	r1, [pc, #16]           @ 0x8180 <$d.3>
    816c: e8b1500c     	ldm	r1!, {r2, r3, r12, lr}
    8170: e8a0500c     	stm	r0!, {r2, r3, r12, lr}
    8174: e891501c     	ldm	r1, {r2, r3, r4, r12, lr}
    8178: e880501c     	stm	r0, {r2, r3, r4, r12, lr}
    817c: e8bd8c10     	pop	{r4, r10, r11, pc}

00008180 <$d.3>:
    8180: 0000c984     	andeq	r12, r0, r4, lsl #19

00008184 <builtin.panicOutOfBounds>:
    8184: e92d4800     	push	{r11, lr}
    8188: e1a0b00d     	mov	r11, sp
    818c: e24dd010     	sub	sp, sp, #16
    8190: e58d0000     	str	r0, [sp]
    8194: e58d1004     	str	r1, [sp, #4]
    8198: e58de008     	str	lr, [sp, #8]
    819c: e3a00001     	mov	r0, #1
    81a0: e5cd000c     	strb	r0, [sp, #12]
    81a4: e3a00000     	mov	r0, #0
    81a8: e28d1008     	add	r1, sp, #8
    81ac: e1a0200d     	mov	r2, sp
    81b0: eb0000f5     	bl	0x858c <debug.panicExtra__anon_1008> @ imm = #980

000081b4 <target.Target.Cpu.Feature.Set.addFeature>:
    81b4: e92d4800     	push	{r11, lr}
    81b8: e1a0b00d     	mov	r11, sp
    81bc: e24dd020     	sub	sp, sp, #32
    81c0: e58d0010     	str	r0, [sp, #16]
    81c4: e2010e1e     	and	r0, r1, #480
    81c8: e1a002a0     	lsr	r0, r0, #5
    81cc: e50b000c     	str	r0, [r11, #-12]
    81d0: e201001f     	and	r0, r1, #31
    81d4: e50b0008     	str	r0, [r11, #-8]
    81d8: e220001f     	eor	r0, r0, #31
    81dc: e350001f     	cmp	r0, #31
    81e0: 8a000001     	bhi	0x81ec <target.Target.Cpu.Feature.Set.addFeature+0x38> @ imm = #4
    81e4: eaffffff     	b	0x81e8 <target.Target.Cpu.Feature.Set.addFeature+0x34> @ imm = #-4
    81e8: ea000004     	b	0x8200 <target.Target.Cpu.Feature.Set.addFeature+0x4c> @ imm = #16
    81ec: e59f007c     	ldr	r0, [pc, #124]          @ 0x8270 <$d.5>
    81f0: e59f307c     	ldr	r3, [pc, #124]          @ 0x8274 <$d.5+0x4>
    81f4: e3a0101b     	mov	r1, #27
    81f8: e3a02000     	mov	r2, #0
    81fc: eb00001d     	bl	0x8278 <builtin.default_panic> @ imm = #116
    8200: e51b000c     	ldr	r0, [r11, #-12]
    8204: e59d1010     	ldr	r1, [sp, #16]
    8208: e51b2008     	ldr	r2, [r11, #-8]
    820c: e58d2004     	str	r2, [sp, #4]
    8210: e50b1004     	str	r1, [r11, #-4]
    8214: e51b1004     	ldr	r1, [r11, #-4]
    8218: e58d1008     	str	r1, [sp, #8]
    821c: e3a010ff     	mov	r1, #255
    8220: e3811c01     	orr	r1, r1, #256
    8224: e0000001     	and	r0, r0, r1
    8228: e58d000c     	str	r0, [sp, #12]
    822c: e3500008     	cmp	r0, #8
    8230: 8a000001     	bhi	0x823c <target.Target.Cpu.Feature.Set.addFeature+0x88> @ imm = #4
    8234: eaffffff     	b	0x8238 <target.Target.Cpu.Feature.Set.addFeature+0x84> @ imm = #-4
    8238: ea000002     	b	0x8248 <target.Target.Cpu.Feature.Set.addFeature+0x94> @ imm = #8
    823c: e59d000c     	ldr	r0, [sp, #12]
    8240: e3a01009     	mov	r1, #9
    8244: ebffffce     	bl	0x8184 <builtin.panicOutOfBounds> @ imm = #-200
    8248: e59d1008     	ldr	r1, [sp, #8]
    824c: e59d200c     	ldr	r2, [sp, #12]
    8250: e59d3004     	ldr	r3, [sp, #4]
    8254: e7910102     	ldr	r0, [r1, r2, lsl #2]
    8258: e203c01f     	and	r12, r3, #31
    825c: e3a03001     	mov	r3, #1
    8260: e1800c13     	orr	r0, r0, r3, lsl r12
    8264: e7810102     	str	r0, [r1, r2, lsl #2]
    8268: e1a0d00b     	mov	sp, r11
    826c: e8bd8800     	pop	{r11, pc}

00008270 <$d.5>:
    8270: 0000c9a8     	andeq	r12, r0, r8, lsr #19
    8274: 0000c720     	andeq	r12, r0, r0, lsr #14

00008278 <builtin.default_panic>:
    8278: eaffffff     	b	0x827c <builtin.default_panic+0x4> @ imm = #-4
    827c: e1200070     	bkpt	#0
    8280: eafffffd     	b	0x827c <builtin.default_panic+0x4> @ imm = #-12

00008284 <target.Target.Cpu.Arch.isWasm>:
    8284: e92d4800     	push	{r11, lr}
    8288: e1a0b00d     	mov	r11, sp
    828c: e24dd008     	sub	sp, sp, #8
    8290: e1a01000     	mov	r1, r0
    8294: e58d1000     	str	r1, [sp]
    8298: e280000a     	add	r0, r0, #10
    829c: e200003f     	and	r0, r0, #63
    82a0: e3500002     	cmp	r0, #2
    82a4: 3a000005     	blo	0x82c0 <target.Target.Cpu.Arch.isWasm+0x3c> @ imm = #20
    82a8: eaffffff     	b	0x82ac <target.Target.Cpu.Arch.isWasm+0x28> @ imm = #-4
    82ac: e59d0000     	ldr	r0, [sp]
    82b0: eb000013     	bl	0x8304 <__zig_is_named_enum_value_target.Target.Cpu.Arch> @ imm = #76
    82b4: e3100001     	tst	r0, #1
    82b8: 1a000003     	bne	0x82cc <target.Target.Cpu.Arch.isWasm+0x48> @ imm = #12
    82bc: ea000003     	b	0x82d0 <target.Target.Cpu.Arch.isWasm+0x4c> @ imm = #12
    82c0: e3a00001     	mov	r0, #1
    82c4: e54b0001     	strb	r0, [r11, #-1]
    82c8: ea000008     	b	0x82f0 <target.Target.Cpu.Arch.isWasm+0x6c> @ imm = #32
    82cc: ea000004     	b	0x82e4 <target.Target.Cpu.Arch.isWasm+0x60> @ imm = #16
    82d0: e59f0024     	ldr	r0, [pc, #36]           @ 0x82fc <$d.7>
    82d4: e59f3024     	ldr	r3, [pc, #36]           @ 0x8300 <$d.7+0x4>
    82d8: e3a01017     	mov	r1, #23
    82dc: e3a02000     	mov	r2, #0
    82e0: ebffffe4     	bl	0x8278 <builtin.default_panic> @ imm = #-112
    82e4: e3a00000     	mov	r0, #0
    82e8: e54b0001     	strb	r0, [r11, #-1]
    82ec: eaffffff     	b	0x82f0 <target.Target.Cpu.Arch.isWasm+0x6c> @ imm = #-4
    82f0: e55b0001     	ldrb	r0, [r11, #-1]
    82f4: e1a0d00b     	mov	sp, r11
    82f8: e8bd8800     	pop	{r11, pc}

000082fc <$d.7>:
    82fc: 0000ca25     	andeq	r12, r0, r5, lsr #20
    8300: 0000c728     	andeq	r12, r0, r8, lsr #14

00008304 <__zig_is_named_enum_value_target.Target.Cpu.Arch>:
    8304: e24dd004     	sub	sp, sp, #4
    8308: e1a01000     	mov	r1, r0
    830c: e1a00d01     	lsl	r0, r1, #26
    8310: e1a00d40     	asr	r0, r0, #26
    8314: e58d1000     	str	r1, [sp]
    8318: e3700004     	cmn	r0, #4
    831c: ba000006     	blt	0x833c <__zig_is_named_enum_value_target.Target.Cpu.Arch+0x38> @ imm = #24
    8320: eaffffff     	b	0x8324 <__zig_is_named_enum_value_target.Target.Cpu.Arch+0x20> @ imm = #-4
    8324: e59d0000     	ldr	r0, [sp]
    8328: e1a00d00     	lsl	r0, r0, #26
    832c: e1a00d40     	asr	r0, r0, #26
    8330: e3500000     	cmp	r0, #0
    8334: 4a000003     	bmi	0x8348 <__zig_is_named_enum_value_target.Target.Cpu.Arch+0x44> @ imm = #12
    8338: eaffffff     	b	0x833c <__zig_is_named_enum_value_target.Target.Cpu.Arch+0x38> @ imm = #-4
    833c: e3a00001     	mov	r0, #1
    8340: e28dd004     	add	sp, sp, #4
    8344: e12fff1e     	<unknown>
    8348: e3a00000     	mov	r0, #0
    834c: e28dd004     	add	sp, sp, #4
    8350: e12fff1e     	<unknown>

00008354 <zigMain>:
    8354: e92d4800     	push	{r11, lr}
    8358: e1a0b00d     	mov	r11, sp
    835c: e24dd098     	sub	sp, sp, #152
    8360: e3a00020     	mov	r0, #32
    8364: e50b0004     	str	r0, [r11, #-4]
    8368: e28d000c     	add	r0, sp, #12
    836c: e50b0008     	str	r0, [r11, #-8]
    8370: e3a00000     	mov	r0, #0
    8374: e50b000c     	str	r0, [r11, #-12]
    8378: e24b000c     	sub	r0, r11, #12
    837c: eb00002c     	bl	0x8434 <main.gpio_set_output__anon_912> @ imm = #176
    8380: e1a01000     	mov	r1, r0
    8384: e58d1008     	str	r1, [sp, #8]
    8388: e3a010ff     	mov	r1, #255
    838c: e3811cff     	orr	r1, r1, #65280
    8390: e1100001     	tst	r0, r1
    8394: 1a000001     	bne	0x83a0 <zigMain+0x4c>   @ imm = #4
    8398: eaffffff     	b	0x839c <zigMain+0x48>   @ imm = #-4
    839c: ea000002     	b	0x83ac <zigMain+0x58>   @ imm = #8
    83a0: e59d1008     	ldr	r1, [sp, #8]
    83a4: e24b000c     	sub	r0, r11, #12
    83a8: eb000036     	bl	0x8488 <builtin.panicUnwrapError> @ imm = #216
    83ac: eaffffff     	b	0x83b0 <zigMain+0x5c>   @ imm = #-4
    83b0: e24b000c     	sub	r0, r11, #12
    83b4: eb000044     	bl	0x84cc <main.gpio_set_on__anon_913> @ imm = #272
    83b8: e1a01000     	mov	r1, r0
    83bc: e58d1004     	str	r1, [sp, #4]
    83c0: e3a010ff     	mov	r1, #255
    83c4: e3811cff     	orr	r1, r1, #65280
    83c8: e1100001     	tst	r0, r1
    83cc: 1a000001     	bne	0x83d8 <zigMain+0x84>   @ imm = #4
    83d0: eaffffff     	b	0x83d4 <zigMain+0x80>   @ imm = #-4
    83d4: ea000002     	b	0x83e4 <zigMain+0x90>   @ imm = #8
    83d8: e59d1004     	ldr	r1, [sp, #4]
    83dc: e24b000c     	sub	r0, r11, #12
    83e0: eb000028     	bl	0x8488 <builtin.panicUnwrapError> @ imm = #160
    83e4: e3a00d09     	mov	r0, #576
    83e8: e380093d     	orr	r0, r0, #999424
    83ec: eb00003c     	bl	0x84e4 <main.delay>     @ imm = #240
    83f0: e24b000c     	sub	r0, r11, #12
    83f4: eb00005e     	bl	0x8574 <main.gpio_set_off__anon_914> @ imm = #376
    83f8: e1a01000     	mov	r1, r0
    83fc: e58d1000     	str	r1, [sp]
    8400: e3a010ff     	mov	r1, #255
    8404: e3811cff     	orr	r1, r1, #65280
    8408: e1100001     	tst	r0, r1
    840c: 1a000001     	bne	0x8418 <zigMain+0xc4>   @ imm = #4
    8410: eaffffff     	b	0x8414 <zigMain+0xc0>   @ imm = #-4
    8414: ea000002     	b	0x8424 <zigMain+0xd0>   @ imm = #8
    8418: e59d1000     	ldr	r1, [sp]
    841c: e24b000c     	sub	r0, r11, #12
    8420: eb000018     	bl	0x8488 <builtin.panicUnwrapError> @ imm = #96
    8424: e3a00d09     	mov	r0, #576
    8428: e380093d     	orr	r0, r0, #999424
    842c: eb00002c     	bl	0x84e4 <main.delay>     @ imm = #176
    8430: eaffffde     	b	0x83b0 <zigMain+0x5c>   @ imm = #-136

00008434 <main.gpio_set_output__anon_912>:
    8434: e92d4800     	push	{r11, lr}
    8438: e1a0b00d     	mov	r11, sp
    843c: e24dd008     	sub	sp, sp, #8
    8440: e58d0000     	str	r0, [sp]
    8444: e3a01001     	mov	r1, #1
    8448: eb00009c     	bl	0x86c0 <main.gpio_set_function__anon_1010> @ imm = #624
    844c: e1a01000     	mov	r1, r0
    8450: e58d1004     	str	r1, [sp, #4]
    8454: e3a010ff     	mov	r1, #255
    8458: e3811cff     	orr	r1, r1, #65280
    845c: e1100001     	tst	r0, r1
    8460: 0a000005     	beq	0x847c <main.gpio_set_output__anon_912+0x48> @ imm = #20
    8464: eaffffff     	b	0x8468 <main.gpio_set_output__anon_912+0x34> @ imm = #-4
    8468: e59d0000     	ldr	r0, [sp]
    846c: eb0000bb     	bl	0x8760 <builtin.returnError> @ imm = #748
    8470: e59d0004     	ldr	r0, [sp, #4]
    8474: e1a0d00b     	mov	sp, r11
    8478: e8bd8800     	pop	{r11, pc}
    847c: e3a00000     	mov	r0, #0
    8480: e1a0d00b     	mov	sp, r11
    8484: e8bd8800     	pop	{r11, pc}

00008488 <builtin.panicUnwrapError>:
    8488: e92d4800     	push	{r11, lr}
    848c: e1a0b00d     	mov	r11, sp
    8490: e24dd010     	sub	sp, sp, #16
    8494: e59f202c     	ldr	r2, [pc, #44]           @ 0x84c8 <$d.9>
    8498: e5922000     	ldr	r2, [r2]
    849c: e6bf1071     	<unknown>
    84a0: e7b21181     	ldr	r1, [r2, r1, lsl #3]!
    84a4: e5922004     	ldr	r2, [r2, #4]
    84a8: e58d2004     	str	r2, [sp, #4]
    84ac: e58d1000     	str	r1, [sp]
    84b0: e58de008     	str	lr, [sp, #8]
    84b4: e3a01001     	mov	r1, #1
    84b8: e5cd100c     	strb	r1, [sp, #12]
    84bc: e28d1008     	add	r1, sp, #8
    84c0: e1a0200d     	mov	r2, sp
    84c4: eb0000e2     	bl	0x8854 <debug.panicExtra__anon_1012> @ imm = #904

000084c8 <$d.9>:
    84c8: 0000ca3c     	andeq	r12, r0, r12, lsr r10

000084cc <main.gpio_set_on__anon_913>:
    84cc: e59f100c     	ldr	r1, [pc, #12]           @ 0x84e0 <$d.11>
    84d0: e3a00601     	mov	r0, #1048576
    84d4: e5810000     	str	r0, [r1]
    84d8: e3a00000     	mov	r0, #0
    84dc: e12fff1e     	<unknown>

000084e0 <$d.11>:
    84e0: 2020001c     	eorhs	r0, r0, r12, lsl r0

000084e4 <main.delay>:
    84e4: e92d4800     	push	{r11, lr}
    84e8: e1a0b00d     	mov	r11, sp
    84ec: e24dd010     	sub	sp, sp, #16
    84f0: e58d0004     	str	r0, [sp, #4]
    84f4: eaffffff     	b	0x84f8 <main.delay+0x14> @ imm = #-4
    84f8: e59d0004     	ldr	r0, [sp, #4]
    84fc: e3500000     	cmp	r0, #0
    8500: 0a00000c     	beq	0x8538 <main.delay+0x54> @ imm = #48
    8504: eaffffff     	b	0x8508 <main.delay+0x24> @ imm = #-4
    8508: ebfffec9     	bl	0x8034 <nop>            @ imm = #-1244
    850c: e59d0004     	ldr	r0, [sp, #4]
    8510: e2501001     	subs	r1, r0, #1
    8514: e3a00000     	mov	r0, #0
    8518: e2a00000     	adc	r0, r0, #0
    851c: e2200001     	eor	r0, r0, #1
    8520: e58d1008     	str	r1, [sp, #8]
    8524: e5cd000c     	strb	r0, [sp, #12]
    8528: e5dd000c     	ldrb	r0, [sp, #12]
    852c: e3500000     	cmp	r0, #0
    8530: 0a000001     	beq	0x853c <main.delay+0x58> @ imm = #4
    8534: ea000001     	b	0x8540 <main.delay+0x5c> @ imm = #4
    8538: ea000009     	b	0x8564 <main.delay+0x80> @ imm = #36
    853c: ea000004     	b	0x8554 <main.delay+0x70> @ imm = #16
    8540: e59f0024     	ldr	r0, [pc, #36]           @ 0x856c <$d.13>
    8544: e59f3024     	ldr	r3, [pc, #36]           @ 0x8570 <$d.13+0x4>
    8548: e3a01010     	mov	r1, #16
    854c: e3a02000     	mov	r2, #0
    8550: ebffff48     	bl	0x8278 <builtin.default_panic> @ imm = #-736
    8554: e59d0008     	ldr	r0, [sp, #8]
    8558: e58d0004     	str	r0, [sp, #4]
    855c: eaffffff     	b	0x8560 <main.delay+0x7c> @ imm = #-4
    8560: eaffffe4     	b	0x84f8 <main.delay+0x14> @ imm = #-112
    8564: e1a0d00b     	mov	sp, r11
    8568: e8bd8800     	pop	{r11, pc}

0000856c <$d.13>:
    856c: 0000cde8     	andeq	r12, r0, r8, ror #27
    8570: 0000c730     	andeq	r12, r0, r0, lsr r7

00008574 <main.gpio_set_off__anon_914>:
    8574: e59f100c     	ldr	r1, [pc, #12]           @ 0x8588 <$d.15>
    8578: e3a00601     	mov	r0, #1048576
    857c: e5810000     	str	r0, [r1]
    8580: e3a00000     	mov	r0, #0
    8584: e12fff1e     	<unknown>

00008588 <$d.15>:
    8588: 20200028     	eorhs	r0, r0, r8, lsr #32

0000858c <debug.panicExtra__anon_1008>:
    858c: e92d4830     	push	{r4, r5, r11, lr}
    8590: e28db008     	add	r11, sp, #8
    8594: e24dd0d8     	sub	sp, sp, #216
    8598: e24dda01     	sub	sp, sp, #4096
    859c: e58d2020     	str	r2, [sp, #32]
    85a0: e58d1014     	str	r1, [sp, #20]
    85a4: e58d0018     	str	r0, [sp, #24]
    85a8: e3a00020     	mov	r0, #32
    85ac: e58d00b0     	str	r0, [sp, #176]
    85b0: e28d0028     	add	r0, sp, #40
    85b4: e58d00ac     	str	r0, [sp, #172]
    85b8: e3a00000     	mov	r0, #0
    85bc: e58d00a8     	str	r0, [sp, #168]
    85c0: e59d00a8     	ldr	r0, [sp, #168]
    85c4: e58d001c     	str	r0, [sp, #28]
    85c8: e28d00b5     	add	r0, sp, #181
    85cc: e58d0024     	str	r0, [sp, #36]
    85d0: e3a0100f     	mov	r1, #15
    85d4: e3811a01     	orr	r1, r1, #4096
    85d8: e3a020aa     	mov	r2, #170
    85dc: eb001045     	bl	0xc6f8 <__aeabi_memset> @ imm = #16660
    85e0: e59d0020     	ldr	r0, [sp, #32]
    85e4: e59d2024     	ldr	r2, [sp, #36]
    85e8: e1a0100d     	mov	r1, sp
    85ec: e5810000     	str	r0, [r1]
    85f0: e24b001c     	sub	r0, r11, #28
    85f4: e28d10a8     	add	r1, sp, #168
    85f8: e3a03a01     	mov	r3, #4096
    85fc: eb0000e1     	bl	0x8988 <fmt.bufPrint__anon_1154> @ imm = #900
    8600: e15b01b4     	ldrh	r0, [r11, #-20]
    8604: e3500000     	cmp	r0, #0
    8608: 1a000005     	bne	0x8624 <debug.panicExtra__anon_1008+0x98> @ imm = #20
    860c: eaffffff     	b	0x8610 <debug.panicExtra__anon_1008+0x84> @ imm = #-4
    8610: e51b101c     	ldr	r1, [r11, #-28]
    8614: e51b0018     	ldr	r0, [r11, #-24]
    8618: e58d100c     	str	r1, [sp, #12]
    861c: e58d0010     	str	r0, [sp, #16]
    8620: ea00001a     	b	0x8690 <debug.panicExtra__anon_1008+0x104> @ imm = #104
    8624: e15b01b4     	ldrh	r0, [r11, #-20]
    8628: e3500003     	cmp	r0, #3
    862c: 0a000005     	beq	0x8648 <debug.panicExtra__anon_1008+0xbc> @ imm = #20
    8630: eaffffff     	b	0x8634 <debug.panicExtra__anon_1008+0xa8> @ imm = #-4
    8634: e59f007c     	ldr	r0, [pc, #124]          @ 0x86b8 <$d.17+0x4>
    8638: e59f307c     	ldr	r3, [pc, #124]          @ 0x86bc <$d.17+0x8>
    863c: e3a01017     	mov	r1, #23
    8640: e3a02000     	mov	r2, #0
    8644: ebffff0b     	bl	0x8278 <builtin.default_panic> @ imm = #-980
    8648: e28d00b5     	add	r0, sp, #181
    864c: e58d0004     	str	r0, [sp, #4]
    8650: e2800a01     	add	r0, r0, #4096
    8654: e59f2058     	ldr	r2, [pc, #88]           @ 0x86b4 <$d.17>
    8658: e3a0300f     	mov	r3, #15
    865c: e1a01003     	mov	r1, r3
    8660: eb000114     	bl	0x8ab8 <mem.copy__anon_1381> @ imm = #1104
    8664: e59d0004     	ldr	r0, [sp, #4]
    8668: e58d0008     	str	r0, [sp, #8]
    866c: eaffffff     	b	0x8670 <debug.panicExtra__anon_1008+0xe4> @ imm = #-4
    8670: e59d001c     	ldr	r0, [sp, #28]
    8674: e59d1008     	ldr	r1, [sp, #8]
    8678: e58d00a8     	str	r0, [sp, #168]
    867c: e3a0000f     	mov	r0, #15
    8680: e3800a01     	orr	r0, r0, #4096
    8684: e58d100c     	str	r1, [sp, #12]
    8688: e58d0010     	str	r0, [sp, #16]
    868c: eaffffff     	b	0x8690 <debug.panicExtra__anon_1008+0x104> @ imm = #-4
    8690: e59d3014     	ldr	r3, [sp, #20]
    8694: e59d2018     	ldr	r2, [sp, #24]
    8698: e59d100c     	ldr	r1, [sp, #12]
    869c: e59d0010     	ldr	r0, [sp, #16]
    86a0: e50b1010     	str	r1, [r11, #-16]
    86a4: e50b000c     	str	r0, [r11, #-12]
    86a8: e51b0010     	ldr	r0, [r11, #-16]
    86ac: e51b100c     	ldr	r1, [r11, #-12]
    86b0: ebfffef0     	bl	0x8278 <builtin.default_panic> @ imm = #-1088

000086b4 <$d.17>:
    86b4: 0000d092     	<unknown>
    86b8: 0000ca40     	andeq	r12, r0, r0, asr #20
    86bc: 0000c738     	andeq	r12, r0, r8, lsr r7

000086c0 <main.gpio_set_function__anon_1010>:
    86c0: e92d4800     	push	{r11, lr}
    86c4: e1a0b00d     	mov	r11, sp
    86c8: e24dd010     	sub	sp, sp, #16
    86cc: e58d1004     	str	r1, [sp, #4]
    86d0: e58d0008     	str	r0, [sp, #8]
    86d4: e3510008     	cmp	r1, #8
    86d8: 3a000003     	blo	0x86ec <main.gpio_set_function__anon_1010+0x2c> @ imm = #12
    86dc: eaffffff     	b	0x86e0 <main.gpio_set_function__anon_1010+0x20> @ imm = #-4
    86e0: e3a00001     	mov	r0, #1
    86e4: e58d0000     	str	r0, [sp]
    86e8: ea000002     	b	0x86f8 <main.gpio_set_function__anon_1010+0x38> @ imm = #8
    86ec: e3a00000     	mov	r0, #0
    86f0: e58d0000     	str	r0, [sp]
    86f4: eaffffff     	b	0x86f8 <main.gpio_set_function__anon_1010+0x38> @ imm = #-4
    86f8: e59d0000     	ldr	r0, [sp]
    86fc: e3100001     	tst	r0, #1
    8700: 0a000005     	beq	0x871c <main.gpio_set_function__anon_1010+0x5c> @ imm = #20
    8704: eaffffff     	b	0x8708 <main.gpio_set_function__anon_1010+0x48> @ imm = #-4
    8708: e59d0008     	ldr	r0, [sp, #8]
    870c: eb000013     	bl	0x8760 <builtin.returnError> @ imm = #76
    8710: e3a00002     	mov	r0, #2
    8714: e1a0d00b     	mov	sp, r11
    8718: e8bd8800     	pop	{r11, pc}
    871c: eaffffff     	b	0x8720 <main.gpio_set_function__anon_1010+0x60> @ imm = #-4
    8720: e59d2004     	ldr	r2, [sp, #4]
    8724: e59f1030     	ldr	r1, [pc, #48]           @ 0x875c <$d.19>
    8728: e5910000     	ldr	r0, [r1]
    872c: e50b0004     	str	r0, [r11, #-4]
    8730: e51b0004     	ldr	r0, [r11, #-4]
    8734: e3c00007     	bic	r0, r0, #7
    8738: e50b0004     	str	r0, [r11, #-4]
    873c: e51b0004     	ldr	r0, [r11, #-4]
    8740: e1800002     	orr	r0, r0, r2
    8744: e50b0004     	str	r0, [r11, #-4]
    8748: e51b0004     	ldr	r0, [r11, #-4]
    874c: e5810000     	str	r0, [r1]
    8750: e3a00000     	mov	r0, #0
    8754: e1a0d00b     	mov	sp, r11
    8758: e8bd8800     	pop	{r11, pc}

0000875c <$d.19>:
    875c: 20200008     	eorhs	r0, r0, r8

00008760 <builtin.returnError>:
    8760: e92d4800     	push	{r11, lr}
    8764: e1a0b00d     	mov	r11, sp
    8768: e24dd028     	sub	sp, sp, #40
    876c: e1a01000     	mov	r1, r0
    8770: e58d1010     	str	r1, [sp, #16]
    8774: e58de014     	str	lr, [sp, #20]
    8778: e5910000     	ldr	r0, [r1]
    877c: e5911008     	ldr	r1, [r1, #8]
    8780: e1500001     	cmp	r0, r1
    8784: 2a00000d     	bhs	0x87c0 <builtin.returnError+0x60> @ imm = #52
    8788: eaffffff     	b	0x878c <builtin.returnError+0x2c> @ imm = #-4
    878c: e59d0010     	ldr	r0, [sp, #16]
    8790: e50b0010     	str	r0, [r11, #-16]
    8794: e51b1010     	ldr	r1, [r11, #-16]
    8798: e5900000     	ldr	r0, [r0]
    879c: e58d0004     	str	r0, [sp, #4]
    87a0: e5912004     	ldr	r2, [r1, #4]
    87a4: e58d2008     	str	r2, [sp, #8]
    87a8: e5911008     	ldr	r1, [r1, #8]
    87ac: e1a02001     	mov	r2, r1
    87b0: e58d200c     	str	r2, [sp, #12]
    87b4: e1500001     	cmp	r0, r1
    87b8: 3a000001     	blo	0x87c4 <builtin.returnError+0x64> @ imm = #4
    87bc: ea000001     	b	0x87c8 <builtin.returnError+0x68> @ imm = #4
    87c0: ea000008     	b	0x87e8 <builtin.returnError+0x88> @ imm = #32
    87c4: ea000002     	b	0x87d4 <builtin.returnError+0x74> @ imm = #8
    87c8: e59d100c     	ldr	r1, [sp, #12]
    87cc: e59d0004     	ldr	r0, [sp, #4]
    87d0: ebfffe6b     	bl	0x8184 <builtin.panicOutOfBounds> @ imm = #-1620
    87d4: e59d0014     	ldr	r0, [sp, #20]
    87d8: e59d1008     	ldr	r1, [sp, #8]
    87dc: e59d2004     	ldr	r2, [sp, #4]
    87e0: e7810102     	str	r0, [r1, r2, lsl #2]
    87e4: eaffffff     	b	0x87e8 <builtin.returnError+0x88> @ imm = #-4
    87e8: e59d0010     	ldr	r0, [sp, #16]
    87ec: e50b000c     	str	r0, [r11, #-12]
    87f0: e51b000c     	ldr	r0, [r11, #-12]
    87f4: e58d0000     	str	r0, [sp]
    87f8: e5900000     	ldr	r0, [r0]
    87fc: e2901001     	adds	r1, r0, #1
    8800: e3a00000     	mov	r0, #0
    8804: e2a00000     	adc	r0, r0, #0
    8808: e50b1008     	str	r1, [r11, #-8]
    880c: e54b0004     	strb	r0, [r11, #-4]
    8810: e55b0004     	ldrb	r0, [r11, #-4]
    8814: e3500000     	cmp	r0, #0
    8818: 1a000001     	bne	0x8824 <builtin.returnError+0xc4> @ imm = #4
    881c: eaffffff     	b	0x8820 <builtin.returnError+0xc0> @ imm = #-4
    8820: ea000004     	b	0x8838 <builtin.returnError+0xd8> @ imm = #16
    8824: e59f0020     	ldr	r0, [pc, #32]           @ 0x884c <$d.21>
    8828: e59f3020     	ldr	r3, [pc, #32]           @ 0x8850 <$d.21+0x4>
    882c: e3a01010     	mov	r1, #16
    8830: e3a02000     	mov	r2, #0
    8834: ebfffe8f     	bl	0x8278 <builtin.default_panic> @ imm = #-1476
    8838: e59d1000     	ldr	r1, [sp]
    883c: e51b0008     	ldr	r0, [r11, #-8]
    8840: e5810000     	str	r0, [r1]
    8844: e1a0d00b     	mov	sp, r11
    8848: e8bd8800     	pop	{r11, pc}

0000884c <$d.21>:
    884c: 0000cdf8     	strdeq	r12, sp, [r0], -r8
    8850: 0000c740     	andeq	r12, r0, r0, asr #14

00008854 <debug.panicExtra__anon_1012>:
    8854: e92d4830     	push	{r4, r5, r11, lr}
    8858: e28db008     	add	r11, sp, #8
    885c: e24dd0d8     	sub	sp, sp, #216
    8860: e24dda01     	sub	sp, sp, #4096
    8864: e58d2020     	str	r2, [sp, #32]
    8868: e58d1014     	str	r1, [sp, #20]
    886c: e58d0018     	str	r0, [sp, #24]
    8870: e3a00020     	mov	r0, #32
    8874: e58d00b0     	str	r0, [sp, #176]
    8878: e28d0028     	add	r0, sp, #40
    887c: e58d00ac     	str	r0, [sp, #172]
    8880: e3a00000     	mov	r0, #0
    8884: e58d00a8     	str	r0, [sp, #168]
    8888: e59d00a8     	ldr	r0, [sp, #168]
    888c: e58d001c     	str	r0, [sp, #28]
    8890: e28d00b5     	add	r0, sp, #181
    8894: e58d0024     	str	r0, [sp, #36]
    8898: e3a0100f     	mov	r1, #15
    889c: e3811a01     	orr	r1, r1, #4096
    88a0: e3a020aa     	mov	r2, #170
    88a4: eb000f93     	bl	0xc6f8 <__aeabi_memset> @ imm = #15948
    88a8: e59d0020     	ldr	r0, [sp, #32]
    88ac: e59d2024     	ldr	r2, [sp, #36]
    88b0: e1a0100d     	mov	r1, sp
    88b4: e5810000     	str	r0, [r1]
    88b8: e24b001c     	sub	r0, r11, #28
    88bc: e28d10a8     	add	r1, sp, #168
    88c0: e3a03a01     	mov	r3, #4096
    88c4: eb0000a5     	bl	0x8b60 <fmt.bufPrint__anon_1384> @ imm = #660
    88c8: e15b01b4     	ldrh	r0, [r11, #-20]
    88cc: e3500000     	cmp	r0, #0
    88d0: 1a000005     	bne	0x88ec <debug.panicExtra__anon_1012+0x98> @ imm = #20
    88d4: eaffffff     	b	0x88d8 <debug.panicExtra__anon_1012+0x84> @ imm = #-4
    88d8: e51b101c     	ldr	r1, [r11, #-28]
    88dc: e51b0018     	ldr	r0, [r11, #-24]
    88e0: e58d100c     	str	r1, [sp, #12]
    88e4: e58d0010     	str	r0, [sp, #16]
    88e8: ea00001a     	b	0x8958 <debug.panicExtra__anon_1012+0x104> @ imm = #104
    88ec: e15b01b4     	ldrh	r0, [r11, #-20]
    88f0: e3500003     	cmp	r0, #3
    88f4: 0a000005     	beq	0x8910 <debug.panicExtra__anon_1012+0xbc> @ imm = #20
    88f8: eaffffff     	b	0x88fc <debug.panicExtra__anon_1012+0xa8> @ imm = #-4
    88fc: e59f007c     	ldr	r0, [pc, #124]          @ 0x8980 <$d.23+0x4>
    8900: e59f307c     	ldr	r3, [pc, #124]          @ 0x8984 <$d.23+0x8>
    8904: e3a01017     	mov	r1, #23
    8908: e3a02000     	mov	r2, #0
    890c: ebfffe59     	bl	0x8278 <builtin.default_panic> @ imm = #-1692
    8910: e28d00b5     	add	r0, sp, #181
    8914: e58d0004     	str	r0, [sp, #4]
    8918: e2800a01     	add	r0, r0, #4096
    891c: e59f2058     	ldr	r2, [pc, #88]           @ 0x897c <$d.23>
    8920: e3a0300f     	mov	r3, #15
    8924: e1a01003     	mov	r1, r3
    8928: eb000062     	bl	0x8ab8 <mem.copy__anon_1381> @ imm = #392
    892c: e59d0004     	ldr	r0, [sp, #4]
    8930: e58d0008     	str	r0, [sp, #8]
    8934: eaffffff     	b	0x8938 <debug.panicExtra__anon_1012+0xe4> @ imm = #-4
    8938: e59d001c     	ldr	r0, [sp, #28]
    893c: e59d1008     	ldr	r1, [sp, #8]
    8940: e58d00a8     	str	r0, [sp, #168]
    8944: e3a0000f     	mov	r0, #15
    8948: e3800a01     	orr	r0, r0, #4096
    894c: e58d100c     	str	r1, [sp, #12]
    8950: e58d0010     	str	r0, [sp, #16]
    8954: eaffffff     	b	0x8958 <debug.panicExtra__anon_1012+0x104> @ imm = #-4
    8958: e59d3014     	ldr	r3, [sp, #20]
    895c: e59d2018     	ldr	r2, [sp, #24]
    8960: e59d100c     	ldr	r1, [sp, #12]
    8964: e59d0010     	ldr	r0, [sp, #16]
    8968: e50b1010     	str	r1, [r11, #-16]
    896c: e50b000c     	str	r0, [r11, #-12]
    8970: e51b0010     	ldr	r0, [r11, #-16]
    8974: e51b100c     	ldr	r1, [r11, #-12]
    8978: ebfffe3e     	bl	0x8278 <builtin.default_panic> @ imm = #-1800

0000897c <$d.23>:
    897c: 0000d092     	<unknown>
    8980: 0000ca57     	andeq	r12, r0, r7, asr r10
    8984: 0000c748     	andeq	r12, r0, r8, asr #14

00008988 <fmt.bufPrint__anon_1154>:
    8988: e92d4800     	push	{r11, lr}
    898c: e1a0b00d     	mov	r11, sp
    8990: e24dd058     	sub	sp, sp, #88
    8994: e58d3008     	str	r3, [sp, #8]
    8998: e1a03002     	mov	r3, r2
    899c: e59d2008     	ldr	r2, [sp, #8]
    89a0: e58d300c     	str	r3, [sp, #12]
    89a4: e1a03001     	mov	r3, r1
    89a8: e59d100c     	ldr	r1, [sp, #12]
    89ac: e58d3014     	str	r3, [sp, #20]
    89b0: e58d0010     	str	r0, [sp, #16]
    89b4: e59b0008     	ldr	r0, [r11, #8]
    89b8: e58d001c     	str	r0, [sp, #28]
    89bc: e24b0028     	sub	r0, r11, #40
    89c0: eb00019a     	bl	0x9030 <io.fixed_buffer_stream.fixedBufferStream__anon_1459> @ imm = #1640
    89c4: e51b0028     	ldr	r0, [r11, #-40]
    89c8: e51b1024     	ldr	r1, [r11, #-36]
    89cc: e51b2020     	ldr	r2, [r11, #-32]
    89d0: e58d202c     	str	r2, [sp, #44]
    89d4: e58d1028     	str	r1, [sp, #40]
    89d8: e58d0024     	str	r0, [sp, #36]
    89dc: e24b001c     	sub	r0, r11, #28
    89e0: e58d0018     	str	r0, [sp, #24]
    89e4: e28d1024     	add	r1, sp, #36
    89e8: eb0001a3     	bl	0x907c <io.fixed_buffer_stream.FixedBufferStream([]u8).writer> @ imm = #1676
    89ec: e59d0014     	ldr	r0, [sp, #20]
    89f0: e59d1018     	ldr	r1, [sp, #24]
    89f4: e59d201c     	ldr	r2, [sp, #28]
    89f8: eb0000a4     	bl	0x8c90 <fmt.format__anon_1502> @ imm = #656
    89fc: e1a01000     	mov	r1, r0
    8a00: e58d1020     	str	r1, [sp, #32]
    8a04: e3a010ff     	mov	r1, #255
    8a08: e3811cff     	orr	r1, r1, #65280
    8a0c: e1100001     	tst	r0, r1
    8a10: 0a00000d     	beq	0x8a4c <fmt.bufPrint__anon_1154+0xc4> @ imm = #52
    8a14: eaffffff     	b	0x8a18 <fmt.bufPrint__anon_1154+0x90> @ imm = #-4
    8a18: e59d0014     	ldr	r0, [sp, #20]
    8a1c: e59d1020     	ldr	r1, [sp, #32]
    8a20: e14b11b0     	strh	r1, [r11, #-16]
    8a24: ebffff4d     	bl	0x8760 <builtin.returnError> @ imm = #-716
    8a28: e59d1010     	ldr	r1, [sp, #16]
    8a2c: e51b0018     	ldr	r0, [r11, #-24]
    8a30: e51b2014     	ldr	r2, [r11, #-20]
    8a34: e51b3010     	ldr	r3, [r11, #-16]
    8a38: e5813008     	str	r3, [r1, #8]
    8a3c: e5812004     	str	r2, [r1, #4]
    8a40: e5810000     	str	r0, [r1]
    8a44: e1a0d00b     	mov	sp, r11
    8a48: e8bd8800     	pop	{r11, pc}
    8a4c: e28d0024     	add	r0, sp, #36
    8a50: eb00018b     	bl	0x9084 <io.fixed_buffer_stream.FixedBufferStream([]u8).getWritten> @ imm = #1580
    8a54: e1a02000     	mov	r2, r0
    8a58: e59d0010     	ldr	r0, [sp, #16]
    8a5c: e58d2004     	str	r2, [sp, #4]
    8a60: e1a02001     	mov	r2, r1
    8a64: e59d1004     	ldr	r1, [sp, #4]
    8a68: e3a03000     	mov	r3, #0
    8a6c: e14b30b4     	strh	r3, [r11, #-4]
    8a70: e50b2008     	str	r2, [r11, #-8]
    8a74: e50b100c     	str	r1, [r11, #-12]
    8a78: e51b100c     	ldr	r1, [r11, #-12]
    8a7c: e51b2008     	ldr	r2, [r11, #-8]
    8a80: e51b3004     	ldr	r3, [r11, #-4]
    8a84: e5803008     	str	r3, [r0, #8]
    8a88: e5802004     	str	r2, [r0, #4]
    8a8c: e5801000     	str	r1, [r0]
    8a90: e1d000b8     	ldrh	r0, [r0, #8]
    8a94: e3500000     	cmp	r0, #0
    8a98: 1a000002     	bne	0x8aa8 <fmt.bufPrint__anon_1154+0x120> @ imm = #8
    8a9c: eaffffff     	b	0x8aa0 <fmt.bufPrint__anon_1154+0x118> @ imm = #-4
    8aa0: e1a0d00b     	mov	sp, r11
    8aa4: e8bd8800     	pop	{r11, pc}
    8aa8: e59d0014     	ldr	r0, [sp, #20]
    8aac: ebffff2b     	bl	0x8760 <builtin.returnError> @ imm = #-852
    8ab0: e1a0d00b     	mov	sp, r11
    8ab4: e8bd8800     	pop	{r11, pc}

00008ab8 <mem.copy__anon_1381>:
    8ab8: e92d4800     	push	{r11, lr}
    8abc: e1a0b00d     	mov	r11, sp
    8ac0: e24dd028     	sub	sp, sp, #40
    8ac4: e58d3010     	str	r3, [sp, #16]
    8ac8: e1a0c001     	mov	r12, r1
    8acc: e58dc004     	str	r12, [sp, #4]
    8ad0: e58d0008     	str	r0, [sp, #8]
    8ad4: e58d200c     	str	r2, [sp, #12]
    8ad8: e3a00000     	mov	r0, #0
    8adc: e58d0014     	str	r0, [sp, #20]
    8ae0: e1510003     	cmp	r1, r3
    8ae4: 23a00001     	movhs	r0, #1
    8ae8: eb000187     	bl	0x910c <debug.assert>   @ imm = #1564
    8aec: e59d3010     	ldr	r3, [sp, #16]
    8af0: e59d0014     	ldr	r0, [sp, #20]
    8af4: e50b3010     	str	r3, [r11, #-16]
    8af8: e50b000c     	str	r0, [r11, #-12]
    8afc: eaffffff     	b	0x8b00 <mem.copy__anon_1381+0x48> @ imm = #-4
    8b00: e51b1010     	ldr	r1, [r11, #-16]
    8b04: e51b000c     	ldr	r0, [r11, #-12]
    8b08: e58d0000     	str	r0, [sp]
    8b0c: e1500001     	cmp	r0, r1
    8b10: 2a00000b     	bhs	0x8b44 <mem.copy__anon_1381+0x8c> @ imm = #44
    8b14: eaffffff     	b	0x8b18 <mem.copy__anon_1381+0x60> @ imm = #-4
    8b18: e59d1008     	ldr	r1, [sp, #8]
    8b1c: e59d2004     	ldr	r2, [sp, #4]
    8b20: e59d000c     	ldr	r0, [sp, #12]
    8b24: e59d3000     	ldr	r3, [sp]
    8b28: e7d00003     	ldrb	r0, [r0, r3]
    8b2c: e50b2004     	str	r2, [r11, #-4]
    8b30: e50b1008     	str	r1, [r11, #-8]
    8b34: e51b200c     	ldr	r2, [r11, #-12]
    8b38: e51b1008     	ldr	r1, [r11, #-8]
    8b3c: e7c10002     	strb	r0, [r1, r2]
    8b40: ea000000     	b	0x8b48 <mem.copy__anon_1381+0x90> @ imm = #0
    8b44: ea000003     	b	0x8b58 <mem.copy__anon_1381+0xa0> @ imm = #12
    8b48: e51b000c     	ldr	r0, [r11, #-12]
    8b4c: e2800001     	add	r0, r0, #1
    8b50: e50b000c     	str	r0, [r11, #-12]
    8b54: eaffffe9     	b	0x8b00 <mem.copy__anon_1381+0x48> @ imm = #-92
    8b58: e1a0d00b     	mov	sp, r11
    8b5c: e8bd8800     	pop	{r11, pc}

00008b60 <fmt.bufPrint__anon_1384>:
    8b60: e92d4800     	push	{r11, lr}
    8b64: e1a0b00d     	mov	r11, sp
    8b68: e24dd058     	sub	sp, sp, #88
    8b6c: e58d3008     	str	r3, [sp, #8]
    8b70: e1a03002     	mov	r3, r2
    8b74: e59d2008     	ldr	r2, [sp, #8]
    8b78: e58d300c     	str	r3, [sp, #12]
    8b7c: e1a03001     	mov	r3, r1
    8b80: e59d100c     	ldr	r1, [sp, #12]
    8b84: e58d3014     	str	r3, [sp, #20]
    8b88: e58d0010     	str	r0, [sp, #16]
    8b8c: e59b0008     	ldr	r0, [r11, #8]
    8b90: e58d001c     	str	r0, [sp, #28]
    8b94: e24b0028     	sub	r0, r11, #40
    8b98: eb000124     	bl	0x9030 <io.fixed_buffer_stream.fixedBufferStream__anon_1459> @ imm = #1168
    8b9c: e51b0028     	ldr	r0, [r11, #-40]
    8ba0: e51b1024     	ldr	r1, [r11, #-36]
    8ba4: e51b2020     	ldr	r2, [r11, #-32]
    8ba8: e58d202c     	str	r2, [sp, #44]
    8bac: e58d1028     	str	r1, [sp, #40]
    8bb0: e58d0024     	str	r0, [sp, #36]
    8bb4: e24b001c     	sub	r0, r11, #28
    8bb8: e58d0018     	str	r0, [sp, #24]
    8bbc: e28d1024     	add	r1, sp, #36
    8bc0: eb00012d     	bl	0x907c <io.fixed_buffer_stream.FixedBufferStream([]u8).writer> @ imm = #1204
    8bc4: e59d0014     	ldr	r0, [sp, #20]
    8bc8: e59d1018     	ldr	r1, [sp, #24]
    8bcc: e59d201c     	ldr	r2, [sp, #28]
    8bd0: eb00015b     	bl	0x9144 <fmt.format__anon_1558> @ imm = #1388
    8bd4: e1a01000     	mov	r1, r0
    8bd8: e58d1020     	str	r1, [sp, #32]
    8bdc: e3a010ff     	mov	r1, #255
    8be0: e3811cff     	orr	r1, r1, #65280
    8be4: e1100001     	tst	r0, r1
    8be8: 0a00000d     	beq	0x8c24 <fmt.bufPrint__anon_1384+0xc4> @ imm = #52
    8bec: eaffffff     	b	0x8bf0 <fmt.bufPrint__anon_1384+0x90> @ imm = #-4
    8bf0: e59d0014     	ldr	r0, [sp, #20]
    8bf4: e59d1020     	ldr	r1, [sp, #32]
    8bf8: e14b11b0     	strh	r1, [r11, #-16]
    8bfc: ebfffed7     	bl	0x8760 <builtin.returnError> @ imm = #-1188
    8c00: e59d1010     	ldr	r1, [sp, #16]
    8c04: e51b0018     	ldr	r0, [r11, #-24]
    8c08: e51b2014     	ldr	r2, [r11, #-20]
    8c0c: e51b3010     	ldr	r3, [r11, #-16]
    8c10: e5813008     	str	r3, [r1, #8]
    8c14: e5812004     	str	r2, [r1, #4]
    8c18: e5810000     	str	r0, [r1]
    8c1c: e1a0d00b     	mov	sp, r11
    8c20: e8bd8800     	pop	{r11, pc}
    8c24: e28d0024     	add	r0, sp, #36
    8c28: eb000115     	bl	0x9084 <io.fixed_buffer_stream.FixedBufferStream([]u8).getWritten> @ imm = #1108
    8c2c: e1a02000     	mov	r2, r0
    8c30: e59d0010     	ldr	r0, [sp, #16]
    8c34: e58d2004     	str	r2, [sp, #4]
    8c38: e1a02001     	mov	r2, r1
    8c3c: e59d1004     	ldr	r1, [sp, #4]
    8c40: e3a03000     	mov	r3, #0
    8c44: e14b30b4     	strh	r3, [r11, #-4]
    8c48: e50b2008     	str	r2, [r11, #-8]
    8c4c: e50b100c     	str	r1, [r11, #-12]
    8c50: e51b100c     	ldr	r1, [r11, #-12]
    8c54: e51b2008     	ldr	r2, [r11, #-8]
    8c58: e51b3004     	ldr	r3, [r11, #-4]
    8c5c: e5803008     	str	r3, [r0, #8]
    8c60: e5802004     	str	r2, [r0, #4]
    8c64: e5801000     	str	r1, [r0]
    8c68: e1d000b8     	ldrh	r0, [r0, #8]
    8c6c: e3500000     	cmp	r0, #0
    8c70: 1a000002     	bne	0x8c80 <fmt.bufPrint__anon_1384+0x120> @ imm = #8
    8c74: eaffffff     	b	0x8c78 <fmt.bufPrint__anon_1384+0x118> @ imm = #-4
    8c78: e1a0d00b     	mov	sp, r11
    8c7c: e8bd8800     	pop	{r11, pc}
    8c80: e59d0014     	ldr	r0, [sp, #20]
    8c84: ebfffeb5     	bl	0x8760 <builtin.returnError> @ imm = #-1324
    8c88: e1a0d00b     	mov	sp, r11
    8c8c: e8bd8800     	pop	{r11, pc}

00008c90 <fmt.format__anon_1502>:
    8c90: e92d4800     	push	{r11, lr}
    8c94: e1a0b00d     	mov	r11, sp
    8c98: e24dd028     	sub	sp, sp, #40
    8c9c: e58d2010     	str	r2, [sp, #16]
    8ca0: e58d1014     	str	r1, [sp, #20]
    8ca4: e50b0010     	str	r0, [r11, #-16]
    8ca8: e5911000     	ldr	r1, [r1]
    8cac: e50b1008     	str	r1, [r11, #-8]
    8cb0: e59f2140     	ldr	r2, [pc, #320]          @ 0x8df8 <$d.25>
    8cb4: e24b1008     	sub	r1, r11, #8
    8cb8: e3a0301b     	mov	r3, #27
    8cbc: eb000050     	bl	0x8e04 <io.writer.Writer(*io.fixed_buffer_stream.FixedBufferStream([]u8),error{NoSpaceLeft},(function 'write')).writeAll> @ imm = #320
    8cc0: e1a01000     	mov	r1, r0
    8cc4: e50b100c     	str	r1, [r11, #-12]
    8cc8: e3a010ff     	mov	r1, #255
    8ccc: e3811cff     	orr	r1, r1, #65280
    8cd0: e1100001     	tst	r0, r1
    8cd4: 0a000005     	beq	0x8cf0 <fmt.format__anon_1502+0x60> @ imm = #20
    8cd8: eaffffff     	b	0x8cdc <fmt.format__anon_1502+0x4c> @ imm = #-4
    8cdc: e51b0010     	ldr	r0, [r11, #-16]
    8ce0: ebfffe9e     	bl	0x8760 <builtin.returnError> @ imm = #-1416
    8ce4: e51b000c     	ldr	r0, [r11, #-12]
    8ce8: e1a0d00b     	mov	sp, r11
    8cec: e8bd8800     	pop	{r11, pc}
    8cf0: e59d3014     	ldr	r3, [sp, #20]
    8cf4: e51b0010     	ldr	r0, [r11, #-16]
    8cf8: e59d1010     	ldr	r1, [sp, #16]
    8cfc: e5911000     	ldr	r1, [r1]
    8d00: e1a0c00d     	mov	r12, sp
    8d04: e3a02003     	mov	r2, #3
    8d08: e58c2000     	str	r2, [r12]
    8d0c: e59f20e8     	ldr	r2, [pc, #232]          @ 0x8dfc <$d.25+0x4>
    8d10: eb0000b4     	bl	0x8fe8 <fmt.formatType__anon_1551> @ imm = #720
    8d14: e1a01000     	mov	r1, r0
    8d18: e58d100c     	str	r1, [sp, #12]
    8d1c: e3a010ff     	mov	r1, #255
    8d20: e3811cff     	orr	r1, r1, #65280
    8d24: e1100001     	tst	r0, r1
    8d28: 0a000005     	beq	0x8d44 <fmt.format__anon_1502+0xb4> @ imm = #20
    8d2c: eaffffff     	b	0x8d30 <fmt.format__anon_1502+0xa0> @ imm = #-4
    8d30: e51b0010     	ldr	r0, [r11, #-16]
    8d34: ebfffe89     	bl	0x8760 <builtin.returnError> @ imm = #-1500
    8d38: e59d000c     	ldr	r0, [sp, #12]
    8d3c: e1a0d00b     	mov	sp, r11
    8d40: e8bd8800     	pop	{r11, pc}
    8d44: e51b0010     	ldr	r0, [r11, #-16]
    8d48: e59d1014     	ldr	r1, [sp, #20]
    8d4c: e5911000     	ldr	r1, [r1]
    8d50: e50b1004     	str	r1, [r11, #-4]
    8d54: e59f109c     	ldr	r1, [pc, #156]          @ 0x8df8 <$d.25>
    8d58: e281201e     	add	r2, r1, #30
    8d5c: e24b1004     	sub	r1, r11, #4
    8d60: e3a03006     	mov	r3, #6
    8d64: eb000026     	bl	0x8e04 <io.writer.Writer(*io.fixed_buffer_stream.FixedBufferStream([]u8),error{NoSpaceLeft},(function 'write')).writeAll> @ imm = #152
    8d68: e1a01000     	mov	r1, r0
    8d6c: e58d1008     	str	r1, [sp, #8]
    8d70: e3a010ff     	mov	r1, #255
    8d74: e3811cff     	orr	r1, r1, #65280
    8d78: e1100001     	tst	r0, r1
    8d7c: 0a000005     	beq	0x8d98 <fmt.format__anon_1502+0x108> @ imm = #20
    8d80: eaffffff     	b	0x8d84 <fmt.format__anon_1502+0xf4> @ imm = #-4
    8d84: e51b0010     	ldr	r0, [r11, #-16]
    8d88: ebfffe74     	bl	0x8760 <builtin.returnError> @ imm = #-1584
    8d8c: e59d0008     	ldr	r0, [sp, #8]
    8d90: e1a0d00b     	mov	sp, r11
    8d94: e8bd8800     	pop	{r11, pc}
    8d98: e59d3014     	ldr	r3, [sp, #20]
    8d9c: e51b0010     	ldr	r0, [r11, #-16]
    8da0: e59d1010     	ldr	r1, [sp, #16]
    8da4: e5911004     	ldr	r1, [r1, #4]
    8da8: e1a0c00d     	mov	r12, sp
    8dac: e3a02003     	mov	r2, #3
    8db0: e58c2000     	str	r2, [r12]
    8db4: e59f2044     	ldr	r2, [pc, #68]           @ 0x8e00 <$d.25+0x8>
    8db8: eb00008a     	bl	0x8fe8 <fmt.formatType__anon_1551> @ imm = #552
    8dbc: e1a01000     	mov	r1, r0
    8dc0: e58d1004     	str	r1, [sp, #4]
    8dc4: e3a010ff     	mov	r1, #255
    8dc8: e3811cff     	orr	r1, r1, #65280
    8dcc: e1100001     	tst	r0, r1
    8dd0: 0a000005     	beq	0x8dec <fmt.format__anon_1502+0x15c> @ imm = #20
    8dd4: eaffffff     	b	0x8dd8 <fmt.format__anon_1502+0x148> @ imm = #-4
    8dd8: e51b0010     	ldr	r0, [r11, #-16]
    8ddc: ebfffe5f     	bl	0x8760 <builtin.returnError> @ imm = #-1668
    8de0: e59d0004     	ldr	r0, [sp, #4]
    8de4: e1a0d00b     	mov	sp, r11
    8de8: e8bd8800     	pop	{r11, pc}
    8dec: e3a00000     	mov	r0, #0
    8df0: e1a0d00b     	mov	sp, r11
    8df4: e8bd8800     	pop	{r11, pc}

00008df8 <$d.25>:
    8df8: 0000d0a2     	andeq	sp, r0, r2, lsr #1
    8dfc: 0000cac4     	andeq	r12, r0, r4, asr #21
    8e00: 0000cb0c     	andeq	r12, r0, r12, lsl #22

00008e04 <io.writer.Writer(*io.fixed_buffer_stream.FixedBufferStream([]u8),error{NoSpaceLeft},(function 'write')).writeAll>:
    8e04: e92d4800     	push	{r11, lr}
    8e08: e1a0b00d     	mov	r11, sp
    8e0c: e24dd060     	sub	sp, sp, #96
    8e10: e58d1024     	str	r1, [sp, #36]
    8e14: e58d0028     	str	r0, [sp, #40]
    8e18: e58d302c     	str	r3, [sp, #44]
    8e1c: e58d2030     	str	r2, [sp, #48]
    8e20: e3a00000     	mov	r0, #0
    8e24: e50b002c     	str	r0, [r11, #-44]
    8e28: eaffffff     	b	0x8e2c <io.writer.Writer(*io.fixed_buffer_stream.FixedBufferStream([]u8),error{NoSpaceLeft},(function 'write')).writeAll+0x28> @ imm = #-4
    8e2c: e59d102c     	ldr	r1, [sp, #44]
    8e30: e51b002c     	ldr	r0, [r11, #-44]
    8e34: e1500001     	cmp	r0, r1
    8e38: 0a00001e     	beq	0x8eb8 <io.writer.Writer(*io.fixed_buffer_stream.FixedBufferStream([]u8),error{NoSpaceLeft},(function 'write')).writeAll+0xb4> @ imm = #120
    8e3c: eaffffff     	b	0x8e40 <io.writer.Writer(*io.fixed_buffer_stream.FixedBufferStream([]u8),error{NoSpaceLeft},(function 'write')).writeAll+0x3c> @ imm = #-4
    8e40: e59d0030     	ldr	r0, [sp, #48]
    8e44: e59d102c     	ldr	r1, [sp, #44]
    8e48: e59d2024     	ldr	r2, [sp, #36]
    8e4c: e51b302c     	ldr	r3, [r11, #-44]
    8e50: e58d3010     	str	r3, [sp, #16]
    8e54: e5922000     	ldr	r2, [r2]
    8e58: e50b2028     	str	r2, [r11, #-40]
    8e5c: e51b2028     	ldr	r2, [r11, #-40]
    8e60: e50b2024     	str	r2, [r11, #-36]
    8e64: e50b101c     	str	r1, [r11, #-28]
    8e68: e50b0020     	str	r0, [r11, #-32]
    8e6c: e51b102c     	ldr	r1, [r11, #-44]
    8e70: e58d1014     	str	r1, [sp, #20]
    8e74: e51b2020     	ldr	r2, [r11, #-32]
    8e78: e51b001c     	ldr	r0, [r11, #-28]
    8e7c: e58d0018     	str	r0, [sp, #24]
    8e80: e0822001     	add	r2, r2, r1
    8e84: e58d201c     	str	r2, [sp, #28]
    8e88: e1a02000     	mov	r2, r0
    8e8c: e58d2020     	str	r2, [sp, #32]
    8e90: e0501001     	subs	r1, r0, r1
    8e94: e3a00000     	mov	r0, #0
    8e98: e2a00000     	adc	r0, r0, #0
    8e9c: e2200001     	eor	r0, r0, #1
    8ea0: e50b1018     	str	r1, [r11, #-24]
    8ea4: e54b0014     	strb	r0, [r11, #-20]
    8ea8: e55b0014     	ldrb	r0, [r11, #-20]
    8eac: e3500000     	cmp	r0, #0
    8eb0: 0a000001     	beq	0x8ebc <io.writer.Writer(*io.fixed_buffer_stream.FixedBufferStream([]u8),error{NoSpaceLeft},(function 'write')).writeAll+0xb8> @ imm = #4
    8eb4: ea000001     	b	0x8ec0 <io.writer.Writer(*io.fixed_buffer_stream.FixedBufferStream([]u8),error{NoSpaceLeft},(function 'write')).writeAll+0xbc> @ imm = #4
    8eb8: ea000043     	b	0x8fcc <io.writer.Writer(*io.fixed_buffer_stream.FixedBufferStream([]u8),error{NoSpaceLeft},(function 'write')).writeAll+0x1c8> @ imm = #268
    8ebc: ea000004     	b	0x8ed4 <io.writer.Writer(*io.fixed_buffer_stream.FixedBufferStream([]u8),error{NoSpaceLeft},(function 'write')).writeAll+0xd0> @ imm = #16
    8ec0: e59f0110     	ldr	r0, [pc, #272]          @ 0x8fd8 <$d.27>
    8ec4: e59f3110     	ldr	r3, [pc, #272]          @ 0x8fdc <$d.27+0x4>
    8ec8: e3a01010     	mov	r1, #16
    8ecc: e3a02000     	mov	r2, #0
    8ed0: ebfffce8     	bl	0x8278 <builtin.default_panic> @ imm = #-3168
    8ed4: e59d0020     	ldr	r0, [sp, #32]
    8ed8: e59d1018     	ldr	r1, [sp, #24]
    8edc: e51b2018     	ldr	r2, [r11, #-24]
    8ee0: e58d2008     	str	r2, [sp, #8]
    8ee4: e1a02001     	mov	r2, r1
    8ee8: e58d200c     	str	r2, [sp, #12]
    8eec: e1500001     	cmp	r0, r1
    8ef0: 8a000001     	bhi	0x8efc <io.writer.Writer(*io.fixed_buffer_stream.FixedBufferStream([]u8),error{NoSpaceLeft},(function 'write')).writeAll+0xf8> @ imm = #4
    8ef4: eaffffff     	b	0x8ef8 <io.writer.Writer(*io.fixed_buffer_stream.FixedBufferStream([]u8),error{NoSpaceLeft},(function 'write')).writeAll+0xf4> @ imm = #-4
    8ef8: ea000002     	b	0x8f08 <io.writer.Writer(*io.fixed_buffer_stream.FixedBufferStream([]u8),error{NoSpaceLeft},(function 'write')).writeAll+0x104> @ imm = #8
    8efc: e59d100c     	ldr	r1, [sp, #12]
    8f00: e59d0020     	ldr	r0, [sp, #32]
    8f04: ebfffc9e     	bl	0x8184 <builtin.panicOutOfBounds> @ imm = #-3464
    8f08: e59d0014     	ldr	r0, [sp, #20]
    8f0c: e59d1020     	ldr	r1, [sp, #32]
    8f10: e1500001     	cmp	r0, r1
    8f14: 8a000001     	bhi	0x8f20 <io.writer.Writer(*io.fixed_buffer_stream.FixedBufferStream([]u8),error{NoSpaceLeft},(function 'write')).writeAll+0x11c> @ imm = #4
    8f18: eaffffff     	b	0x8f1c <io.writer.Writer(*io.fixed_buffer_stream.FixedBufferStream([]u8),error{NoSpaceLeft},(function 'write')).writeAll+0x118> @ imm = #-4
    8f1c: ea000002     	b	0x8f2c <io.writer.Writer(*io.fixed_buffer_stream.FixedBufferStream([]u8),error{NoSpaceLeft},(function 'write')).writeAll+0x128> @ imm = #8
    8f20: e59d1020     	ldr	r1, [sp, #32]
    8f24: e59d0014     	ldr	r0, [sp, #20]
    8f28: ebfffc95     	bl	0x8184 <builtin.panicOutOfBounds> @ imm = #-3500
    8f2c: e59d301c     	ldr	r3, [sp, #28]
    8f30: e59d1028     	ldr	r1, [sp, #40]
    8f34: e59d0008     	ldr	r0, [sp, #8]
    8f38: e1a0200d     	mov	r2, sp
    8f3c: e5820000     	str	r0, [r2]
    8f40: e24b0010     	sub	r0, r11, #16
    8f44: e24b2024     	sub	r2, r11, #36
    8f48: eb000207     	bl	0x976c <io.writer.Writer(*io.fixed_buffer_stream.FixedBufferStream([]u8),error{NoSpaceLeft},(function 'write')).write> @ imm = #2076
    8f4c: e15b00bc     	ldrh	r0, [r11, #-12]
    8f50: e3500000     	cmp	r0, #0
    8f54: 0a000007     	beq	0x8f78 <io.writer.Writer(*io.fixed_buffer_stream.FixedBufferStream([]u8),error{NoSpaceLeft},(function 'write')).writeAll+0x174> @ imm = #28
    8f58: eaffffff     	b	0x8f5c <io.writer.Writer(*io.fixed_buffer_stream.FixedBufferStream([]u8),error{NoSpaceLeft},(function 'write')).writeAll+0x158> @ imm = #-4
    8f5c: e59d0028     	ldr	r0, [sp, #40]
    8f60: e15b10bc     	ldrh	r1, [r11, #-12]
    8f64: e58d1004     	str	r1, [sp, #4]
    8f68: ebfffdfc     	bl	0x8760 <builtin.returnError> @ imm = #-2064
    8f6c: e59d0004     	ldr	r0, [sp, #4]
    8f70: e1a0d00b     	mov	sp, r11
    8f74: e8bd8800     	pop	{r11, pc}
    8f78: e59d0010     	ldr	r0, [sp, #16]
    8f7c: e51b1010     	ldr	r1, [r11, #-16]
    8f80: e0901001     	adds	r1, r0, r1
    8f84: e3a00000     	mov	r0, #0
    8f88: e2a00000     	adc	r0, r0, #0
    8f8c: e50b1008     	str	r1, [r11, #-8]
    8f90: e54b0004     	strb	r0, [r11, #-4]
    8f94: e55b0004     	ldrb	r0, [r11, #-4]
    8f98: e3500000     	cmp	r0, #0
    8f9c: 1a000001     	bne	0x8fa8 <io.writer.Writer(*io.fixed_buffer_stream.FixedBufferStream([]u8),error{NoSpaceLeft},(function 'write')).writeAll+0x1a4> @ imm = #4
    8fa0: eaffffff     	b	0x8fa4 <io.writer.Writer(*io.fixed_buffer_stream.FixedBufferStream([]u8),error{NoSpaceLeft},(function 'write')).writeAll+0x1a0> @ imm = #-4
    8fa4: ea000004     	b	0x8fbc <io.writer.Writer(*io.fixed_buffer_stream.FixedBufferStream([]u8),error{NoSpaceLeft},(function 'write')).writeAll+0x1b8> @ imm = #16
    8fa8: e59f0030     	ldr	r0, [pc, #48]           @ 0x8fe0 <$d.27+0x8>
    8fac: e59f3030     	ldr	r3, [pc, #48]           @ 0x8fe4 <$d.27+0xc>
    8fb0: e3a01010     	mov	r1, #16
    8fb4: e3a02000     	mov	r2, #0
    8fb8: ebfffcae     	bl	0x8278 <builtin.default_panic> @ imm = #-3400
    8fbc: e51b0008     	ldr	r0, [r11, #-8]
    8fc0: e50b002c     	str	r0, [r11, #-44]
    8fc4: eaffffff     	b	0x8fc8 <io.writer.Writer(*io.fixed_buffer_stream.FixedBufferStream([]u8),error{NoSpaceLeft},(function 'write')).writeAll+0x1c4> @ imm = #-4
    8fc8: eaffff97     	b	0x8e2c <io.writer.Writer(*io.fixed_buffer_stream.FixedBufferStream([]u8),error{NoSpaceLeft},(function 'write')).writeAll+0x28> @ imm = #-420
    8fcc: e3a00000     	mov	r0, #0
    8fd0: e1a0d00b     	mov	sp, r11
    8fd4: e8bd8800     	pop	{r11, pc}

00008fd8 <$d.27>:
    8fd8: 0000ce58     	andeq	r12, r0, r8, asr lr
    8fdc: 0000c790     	<unknown>
    8fe0: 0000ce68     	andeq	r12, r0, r8, ror #28
    8fe4: 0000c798     	<unknown>

00008fe8 <fmt.formatType__anon_1551>:
    8fe8: e92d4800     	push	{r11, lr}
    8fec: e1a0b00d     	mov	r11, sp
    8ff0: e24dd008     	sub	sp, sp, #8
    8ff4: e58d0000     	str	r0, [sp]
    8ff8: eb0004f0     	bl	0xa3c0 <fmt.formatValue__anon_1681> @ imm = #5056
    8ffc: e14b00b2     	strh	r0, [r11, #-2]
    9000: e15b00b2     	ldrh	r0, [r11, #-2]
    9004: e3500000     	cmp	r0, #0
    9008: 1a000003     	bne	0x901c <fmt.formatType__anon_1551+0x34> @ imm = #12
    900c: eaffffff     	b	0x9010 <fmt.formatType__anon_1551+0x28> @ imm = #-4
    9010: e15b00b2     	ldrh	r0, [r11, #-2]
    9014: e1a0d00b     	mov	sp, r11
    9018: e8bd8800     	pop	{r11, pc}
    901c: e59d0000     	ldr	r0, [sp]
    9020: ebfffdce     	bl	0x8760 <builtin.returnError> @ imm = #-2248
    9024: e15b00b2     	ldrh	r0, [r11, #-2]
    9028: e1a0d00b     	mov	sp, r11
    902c: e8bd8800     	pop	{r11, pc}

00009030 <io.fixed_buffer_stream.fixedBufferStream__anon_1459>:
    9030: e92d4800     	push	{r11, lr}
    9034: e1a0b00d     	mov	r11, sp
    9038: e24dd010     	sub	sp, sp, #16
    903c: e58d2004     	str	r2, [sp, #4]
    9040: e1a02001     	mov	r2, r1
    9044: e59d1004     	ldr	r1, [sp, #4]
    9048: e58d2008     	str	r2, [sp, #8]
    904c: e1a02000     	mov	r2, r0
    9050: e59d0008     	ldr	r0, [sp, #8]
    9054: e50b2004     	str	r2, [r11, #-4]
    9058: eb0000aa     	bl	0x9308 <mem.span__anon_1592> @ imm = #680
    905c: e1a02001     	mov	r2, r1
    9060: e51b1004     	ldr	r1, [r11, #-4]
    9064: e5812004     	str	r2, [r1, #4]
    9068: e5810000     	str	r0, [r1]
    906c: e3a00000     	mov	r0, #0
    9070: e5810008     	str	r0, [r1, #8]
    9074: e1a0d00b     	mov	sp, r11
    9078: e8bd8800     	pop	{r11, pc}

0000907c <io.fixed_buffer_stream.FixedBufferStream([]u8).writer>:
    907c: e5801000     	str	r1, [r0]
    9080: e12fff1e     	<unknown>

00009084 <io.fixed_buffer_stream.FixedBufferStream([]u8).getWritten>:
    9084: e92d4800     	push	{r11, lr}
    9088: e1a0b00d     	mov	r11, sp
    908c: e24dd018     	sub	sp, sp, #24
    9090: e5901000     	ldr	r1, [r0]
    9094: e5902004     	ldr	r2, [r0, #4]
    9098: e5903008     	ldr	r3, [r0, #8]
    909c: e58d3014     	str	r3, [sp, #20]
    90a0: e58d2010     	str	r2, [sp, #16]
    90a4: e58d100c     	str	r1, [sp, #12]
    90a8: e5900008     	ldr	r0, [r0, #8]
    90ac: e58d0000     	str	r0, [sp]
    90b0: e59d100c     	ldr	r1, [sp, #12]
    90b4: e58d1004     	str	r1, [sp, #4]
    90b8: e59d1010     	ldr	r1, [sp, #16]
    90bc: e58d1008     	str	r1, [sp, #8]
    90c0: e1500001     	cmp	r0, r1
    90c4: 8a000001     	bhi	0x90d0 <io.fixed_buffer_stream.FixedBufferStream([]u8).getWritten+0x4c> @ imm = #4
    90c8: eaffffff     	b	0x90cc <io.fixed_buffer_stream.FixedBufferStream([]u8).getWritten+0x48> @ imm = #-4
    90cc: ea000002     	b	0x90dc <io.fixed_buffer_stream.FixedBufferStream([]u8).getWritten+0x58> @ imm = #8
    90d0: e59d1008     	ldr	r1, [sp, #8]
    90d4: e59d0000     	ldr	r0, [sp]
    90d8: ebfffc29     	bl	0x8184 <builtin.panicOutOfBounds> @ imm = #-3932
    90dc: e59d0000     	ldr	r0, [sp]
    90e0: e3500000     	cmp	r0, #0
    90e4: 3a000001     	blo	0x90f0 <io.fixed_buffer_stream.FixedBufferStream([]u8).getWritten+0x6c> @ imm = #4
    90e8: eaffffff     	b	0x90ec <io.fixed_buffer_stream.FixedBufferStream([]u8).getWritten+0x68> @ imm = #-4
    90ec: ea000002     	b	0x90fc <io.fixed_buffer_stream.FixedBufferStream([]u8).getWritten+0x78> @ imm = #8
    90f0: e59d1000     	ldr	r1, [sp]
    90f4: e3a00000     	mov	r0, #0
    90f8: ebfffc21     	bl	0x8184 <builtin.panicOutOfBounds> @ imm = #-3964
    90fc: e59d1000     	ldr	r1, [sp]
    9100: e59d0004     	ldr	r0, [sp, #4]
    9104: e1a0d00b     	mov	sp, r11
    9108: e8bd8800     	pop	{r11, pc}

0000910c <debug.assert>:
    910c: e92d4800     	push	{r11, lr}
    9110: e1a0b00d     	mov	r11, sp
    9114: e3100001     	tst	r0, #1
    9118: 1a000005     	bne	0x9134 <debug.assert+0x28> @ imm = #20
    911c: eaffffff     	b	0x9120 <debug.assert+0x14> @ imm = #-4
    9120: e59f0014     	ldr	r0, [pc, #20]           @ 0x913c <$d.29>
    9124: e59f3014     	ldr	r3, [pc, #20]           @ 0x9140 <$d.29+0x4>
    9128: e3a01018     	mov	r1, #24
    912c: e3a02000     	mov	r2, #0
    9130: ebfffc50     	bl	0x8278 <builtin.default_panic> @ imm = #-3776
    9134: eaffffff     	b	0x9138 <debug.assert+0x2c> @ imm = #-4
    9138: e8bd8800     	pop	{r11, pc}

0000913c <$d.29>:
    913c: 0000cb88     	andeq	r12, r0, r8, lsl #23
    9140: 0000c7a0     	andeq	r12, r0, r0, lsr #15

00009144 <fmt.format__anon_1558>:
    9144: e92d4800     	push	{r11, lr}
    9148: e1a0b00d     	mov	r11, sp
    914c: e24dd020     	sub	sp, sp, #32
    9150: e58d200c     	str	r2, [sp, #12]
    9154: e58d1010     	str	r1, [sp, #16]
    9158: e50b000c     	str	r0, [r11, #-12]
    915c: e5911000     	ldr	r1, [r1]
    9160: e50b1004     	str	r1, [r11, #-4]
    9164: e59f20a0     	ldr	r2, [pc, #160]          @ 0x920c <$d.31>
    9168: e24b1004     	sub	r1, r11, #4
    916c: e3a03019     	mov	r3, #25
    9170: ebffff23     	bl	0x8e04 <io.writer.Writer(*io.fixed_buffer_stream.FixedBufferStream([]u8),error{NoSpaceLeft},(function 'write')).writeAll> @ imm = #-884
    9174: e1a01000     	mov	r1, r0
    9178: e50b1008     	str	r1, [r11, #-8]
    917c: e3a010ff     	mov	r1, #255
    9180: e3811cff     	orr	r1, r1, #65280
    9184: e1100001     	tst	r0, r1
    9188: 0a000005     	beq	0x91a4 <fmt.format__anon_1558+0x60> @ imm = #20
    918c: eaffffff     	b	0x9190 <fmt.format__anon_1558+0x4c> @ imm = #-4
    9190: e51b000c     	ldr	r0, [r11, #-12]
    9194: ebfffd71     	bl	0x8760 <builtin.returnError> @ imm = #-2620
    9198: e51b0008     	ldr	r0, [r11, #-8]
    919c: e1a0d00b     	mov	sp, r11
    91a0: e8bd8800     	pop	{r11, pc}
    91a4: e51b000c     	ldr	r0, [r11, #-12]
    91a8: e59d3010     	ldr	r3, [sp, #16]
    91ac: e59d200c     	ldr	r2, [sp, #12]
    91b0: e5921000     	ldr	r1, [r2]
    91b4: e5922004     	ldr	r2, [r2, #4]
    91b8: e1a0c00d     	mov	r12, sp
    91bc: e3a0e003     	mov	lr, #3
    91c0: e58ce004     	str	lr, [r12, #4]
    91c4: e58c3000     	str	r3, [r12]
    91c8: e59f3040     	ldr	r3, [pc, #64]           @ 0x9210 <$d.31+0x4>
    91cc: eb000010     	bl	0x9214 <fmt.formatType__anon_1591> @ imm = #64
    91d0: e1a01000     	mov	r1, r0
    91d4: e58d1008     	str	r1, [sp, #8]
    91d8: e3a010ff     	mov	r1, #255
    91dc: e3811cff     	orr	r1, r1, #65280
    91e0: e1100001     	tst	r0, r1
    91e4: 0a000005     	beq	0x9200 <fmt.format__anon_1558+0xbc> @ imm = #20
    91e8: eaffffff     	b	0x91ec <fmt.format__anon_1558+0xa8> @ imm = #-4
    91ec: e51b000c     	ldr	r0, [r11, #-12]
    91f0: ebfffd5a     	bl	0x8760 <builtin.returnError> @ imm = #-2712
    91f4: e59d0008     	ldr	r0, [sp, #8]
    91f8: e1a0d00b     	mov	sp, r11
    91fc: e8bd8800     	pop	{r11, pc}
    9200: e3a00000     	mov	r0, #0
    9204: e1a0d00b     	mov	sp, r11
    9208: e8bd8800     	pop	{r11, pc}

0000920c <$d.31>:
    920c: 0000d0ca     	andeq	sp, r0, r10, asr #1
    9210: 0000cb74     	andeq	r12, r0, r4, ror r11

00009214 <fmt.formatType__anon_1591>:
    9214: e92d4800     	push	{r11, lr}
    9218: e1a0b00d     	mov	r11, sp
    921c: e24dd030     	sub	sp, sp, #48
    9220: e58d3008     	str	r3, [sp, #8]
    9224: e58d000c     	str	r0, [sp, #12]
    9228: e59b000c     	ldr	r0, [r11, #12]
    922c: e59b3008     	ldr	r3, [r11, #8]
    9230: e58d3010     	str	r3, [sp, #16]
    9234: e58d2014     	str	r2, [sp, #20]
    9238: e58d1018     	str	r1, [sp, #24]
    923c: e3500000     	cmp	r0, #0
    9240: 1a00000d     	bne	0x927c <fmt.formatType__anon_1591+0x68> @ imm = #52
    9244: eaffffff     	b	0x9248 <fmt.formatType__anon_1591+0x34> @ imm = #-4
    9248: e59d000c     	ldr	r0, [sp, #12]
    924c: e59d1010     	ldr	r1, [sp, #16]
    9250: e5911000     	ldr	r1, [r1]
    9254: e50b1010     	str	r1, [r11, #-16]
    9258: e59f20a4     	ldr	r2, [pc, #164]          @ 0x9304 <$d.33>
    925c: e24b1010     	sub	r1, r11, #16
    9260: e3a03007     	mov	r3, #7
    9264: ebfffee6     	bl	0x8e04 <io.writer.Writer(*io.fixed_buffer_stream.FixedBufferStream([]u8),error{NoSpaceLeft},(function 'write')).writeAll> @ imm = #-1128
    9268: e14b01b2     	strh	r0, [r11, #-18]
    926c: e15b01b2     	ldrh	r0, [r11, #-18]
    9270: e3500000     	cmp	r0, #0
    9274: 0a000001     	beq	0x9280 <fmt.formatType__anon_1591+0x6c> @ imm = #4
    9278: ea000003     	b	0x928c <fmt.formatType__anon_1591+0x78> @ imm = #12
    927c: ea000007     	b	0x92a0 <fmt.formatType__anon_1591+0x8c> @ imm = #28
    9280: e15b01b2     	ldrh	r0, [r11, #-18]
    9284: e1a0d00b     	mov	sp, r11
    9288: e8bd8800     	pop	{r11, pc}
    928c: e59d000c     	ldr	r0, [sp, #12]
    9290: ebfffd32     	bl	0x8760 <builtin.returnError> @ imm = #-2872
    9294: e15b01b2     	ldrh	r0, [r11, #-18]
    9298: e1a0d00b     	mov	sp, r11
    929c: e8bd8800     	pop	{r11, pc}
    92a0: e59d3008     	ldr	r3, [sp, #8]
    92a4: e59d000c     	ldr	r0, [sp, #12]
    92a8: e59dc010     	ldr	r12, [sp, #16]
    92ac: e59d1014     	ldr	r1, [sp, #20]
    92b0: e59d2018     	ldr	r2, [sp, #24]
    92b4: e50b2008     	str	r2, [r11, #-8]
    92b8: e50b1004     	str	r1, [r11, #-4]
    92bc: e51b1008     	ldr	r1, [r11, #-8]
    92c0: e51b2004     	ldr	r2, [r11, #-4]
    92c4: e1a0e00d     	mov	lr, sp
    92c8: e58ec000     	str	r12, [lr]
    92cc: eb000599     	bl	0xa938 <fmt.formatBuf__anon_1700> @ imm = #5732
    92d0: e14b00ba     	strh	r0, [r11, #-10]
    92d4: e15b00ba     	ldrh	r0, [r11, #-10]
    92d8: e3500000     	cmp	r0, #0
    92dc: 1a000003     	bne	0x92f0 <fmt.formatType__anon_1591+0xdc> @ imm = #12
    92e0: eaffffff     	b	0x92e4 <fmt.formatType__anon_1591+0xd0> @ imm = #-4
    92e4: e15b00ba     	ldrh	r0, [r11, #-10]
    92e8: e1a0d00b     	mov	sp, r11
    92ec: e8bd8800     	pop	{r11, pc}
    92f0: e59d000c     	ldr	r0, [sp, #12]
    92f4: ebfffd19     	bl	0x8760 <builtin.returnError> @ imm = #-2972
    92f8: e15b00ba     	ldrh	r0, [r11, #-10]
    92fc: e1a0d00b     	mov	sp, r11
    9300: e8bd8800     	pop	{r11, pc}

00009304 <$d.33>:
    9304: 0000d0e7     	andeq	sp, r0, r7, ror #1

00009308 <mem.span__anon_1592>:
    9308: e92d4800     	push	{r11, lr}
    930c: e1a0b00d     	mov	r11, sp
    9310: e24dd020     	sub	sp, sp, #32
    9314: e58d1004     	str	r1, [sp, #4]
    9318: e58d0008     	str	r0, [sp, #8]
    931c: eb000984     	bl	0xb934 <mem.len__anon_1795> @ imm = #9744
    9320: e59d2004     	ldr	r2, [sp, #4]
    9324: e59d1008     	ldr	r1, [sp, #8]
    9328: e1a03000     	mov	r3, r0
    932c: e58d300c     	str	r3, [sp, #12]
    9330: e50b2004     	str	r2, [r11, #-4]
    9334: e50b1008     	str	r1, [r11, #-8]
    9338: e51b1008     	ldr	r1, [r11, #-8]
    933c: e58d1010     	str	r1, [sp, #16]
    9340: e51b1004     	ldr	r1, [r11, #-4]
    9344: e50b100c     	str	r1, [r11, #-12]
    9348: e1500001     	cmp	r0, r1
    934c: 8a000001     	bhi	0x9358 <mem.span__anon_1592+0x50> @ imm = #4
    9350: eaffffff     	b	0x9354 <mem.span__anon_1592+0x4c> @ imm = #-4
    9354: ea000002     	b	0x9364 <mem.span__anon_1592+0x5c> @ imm = #8
    9358: e51b100c     	ldr	r1, [r11, #-12]
    935c: e59d000c     	ldr	r0, [sp, #12]
    9360: ebfffb87     	bl	0x8184 <builtin.panicOutOfBounds> @ imm = #-4580
    9364: e59d000c     	ldr	r0, [sp, #12]
    9368: e3500000     	cmp	r0, #0
    936c: 3a000001     	blo	0x9378 <mem.span__anon_1592+0x70> @ imm = #4
    9370: eaffffff     	b	0x9374 <mem.span__anon_1592+0x6c> @ imm = #-4
    9374: ea000002     	b	0x9384 <mem.span__anon_1592+0x7c> @ imm = #8
    9378: e59d100c     	ldr	r1, [sp, #12]
    937c: e3a00000     	mov	r0, #0
    9380: ebfffb7f     	bl	0x8184 <builtin.panicOutOfBounds> @ imm = #-4612
    9384: e59d100c     	ldr	r1, [sp, #12]
    9388: e59d0010     	ldr	r0, [sp, #16]
    938c: e1a0d00b     	mov	sp, r11
    9390: e8bd8800     	pop	{r11, pc}

00009394 <io.fixed_buffer_stream.FixedBufferStream([]u8).write>:
    9394: e92d4800     	push	{r11, lr}
    9398: e1a0b00d     	mov	r11, sp
    939c: e24dd090     	sub	sp, sp, #144
    93a0: e58d203c     	str	r2, [sp, #60]
    93a4: e58d1040     	str	r1, [sp, #64]
    93a8: e58d0044     	str	r0, [sp, #68]
    93ac: e59b0008     	ldr	r0, [r11, #8]
    93b0: e58d0048     	str	r0, [sp, #72]
    93b4: e50b3044     	str	r3, [r11, #-68]
    93b8: e3500000     	cmp	r0, #0
    93bc: 1a000006     	bne	0x93dc <io.fixed_buffer_stream.FixedBufferStream([]u8).write+0x48> @ imm = #24
    93c0: eaffffff     	b	0x93c4 <io.fixed_buffer_stream.FixedBufferStream([]u8).write+0x30> @ imm = #-4
    93c4: e59d1044     	ldr	r1, [sp, #68]
    93c8: e3a00000     	mov	r0, #0
    93cc: e5810004     	str	r0, [r1, #4]
    93d0: e5810000     	str	r0, [r1]
    93d4: e1a0d00b     	mov	sp, r11
    93d8: e8bd8800     	pop	{r11, pc}
    93dc: eaffffff     	b	0x93e0 <io.fixed_buffer_stream.FixedBufferStream([]u8).write+0x4c> @ imm = #-4
    93e0: e59d003c     	ldr	r0, [sp, #60]
    93e4: e5901004     	ldr	r1, [r0, #4]
    93e8: e5900008     	ldr	r0, [r0, #8]
    93ec: e1500001     	cmp	r0, r1
    93f0: 3a000009     	blo	0x941c <io.fixed_buffer_stream.FixedBufferStream([]u8).write+0x88> @ imm = #36
    93f4: eaffffff     	b	0x93f8 <io.fixed_buffer_stream.FixedBufferStream([]u8).write+0x64> @ imm = #-4
    93f8: e59d0040     	ldr	r0, [sp, #64]
    93fc: ebfffcd7     	bl	0x8760 <builtin.returnError> @ imm = #-3236
    9400: e59d1044     	ldr	r1, [sp, #68]
    9404: e3a00003     	mov	r0, #3
    9408: e5810004     	str	r0, [r1, #4]
    940c: e3a00000     	mov	r0, #0
    9410: e5810000     	str	r0, [r1]
    9414: e1a0d00b     	mov	sp, r11
    9418: e8bd8800     	pop	{r11, pc}
    941c: eaffffff     	b	0x9420 <io.fixed_buffer_stream.FixedBufferStream([]u8).write+0x8c> @ imm = #-4
    9420: e59d1048     	ldr	r1, [sp, #72]
    9424: e59d003c     	ldr	r0, [sp, #60]
    9428: e5900008     	ldr	r0, [r0, #8]
    942c: e0901001     	adds	r1, r0, r1
    9430: e3a00000     	mov	r0, #0
    9434: e2a00000     	adc	r0, r0, #0
    9438: e50b1040     	str	r1, [r11, #-64]
    943c: e54b003c     	strb	r0, [r11, #-60]
    9440: e55b003c     	ldrb	r0, [r11, #-60]
    9444: e3500000     	cmp	r0, #0
    9448: 1a000001     	bne	0x9454 <io.fixed_buffer_stream.FixedBufferStream([]u8).write+0xc0> @ imm = #4
    944c: eaffffff     	b	0x9450 <io.fixed_buffer_stream.FixedBufferStream([]u8).write+0xbc> @ imm = #-4
    9450: ea000004     	b	0x9468 <io.fixed_buffer_stream.FixedBufferStream([]u8).write+0xd4> @ imm = #16
    9454: e59f02e8     	ldr	r0, [pc, #744]          @ 0x9744 <$d.35>
    9458: e59f32e8     	ldr	r3, [pc, #744]          @ 0x9748 <$d.35+0x4>
    945c: e3a01010     	mov	r1, #16
    9460: e3a02000     	mov	r2, #0
    9464: ebfffb83     	bl	0x8278 <builtin.default_panic> @ imm = #-4596
    9468: e59d103c     	ldr	r1, [sp, #60]
    946c: e51b0040     	ldr	r0, [r11, #-64]
    9470: e5911004     	ldr	r1, [r1, #4]
    9474: e1500001     	cmp	r0, r1
    9478: 8a000003     	bhi	0x948c <io.fixed_buffer_stream.FixedBufferStream([]u8).write+0xf8> @ imm = #12
    947c: eaffffff     	b	0x9480 <io.fixed_buffer_stream.FixedBufferStream([]u8).write+0xec> @ imm = #-4
    9480: e59d0048     	ldr	r0, [sp, #72]
    9484: e58d0038     	str	r0, [sp, #56]
    9488: ea000015     	b	0x94e4 <io.fixed_buffer_stream.FixedBufferStream([]u8).write+0x150> @ imm = #84
    948c: e59d103c     	ldr	r1, [sp, #60]
    9490: e5910004     	ldr	r0, [r1, #4]
    9494: e5911008     	ldr	r1, [r1, #8]
    9498: e0501001     	subs	r1, r0, r1
    949c: e3a00000     	mov	r0, #0
    94a0: e2a00000     	adc	r0, r0, #0
    94a4: e2200001     	eor	r0, r0, #1
    94a8: e50b1038     	str	r1, [r11, #-56]
    94ac: e54b0034     	strb	r0, [r11, #-52]
    94b0: e55b0034     	ldrb	r0, [r11, #-52]
    94b4: e3500000     	cmp	r0, #0
    94b8: 1a000001     	bne	0x94c4 <io.fixed_buffer_stream.FixedBufferStream([]u8).write+0x130> @ imm = #4
    94bc: eaffffff     	b	0x94c0 <io.fixed_buffer_stream.FixedBufferStream([]u8).write+0x12c> @ imm = #-4
    94c0: ea000004     	b	0x94d8 <io.fixed_buffer_stream.FixedBufferStream([]u8).write+0x144> @ imm = #16
    94c4: e59f0280     	ldr	r0, [pc, #640]          @ 0x974c <$d.35+0x8>
    94c8: e59f3280     	ldr	r3, [pc, #640]          @ 0x9750 <$d.35+0xc>
    94cc: e3a01010     	mov	r1, #16
    94d0: e3a02000     	mov	r2, #0
    94d4: ebfffb67     	bl	0x8278 <builtin.default_panic> @ imm = #-4708
    94d8: e51b0038     	ldr	r0, [r11, #-56]
    94dc: e58d0038     	str	r0, [sp, #56]
    94e0: eaffffff     	b	0x94e4 <io.fixed_buffer_stream.FixedBufferStream([]u8).write+0x150> @ imm = #-4
    94e4: e59d003c     	ldr	r0, [sp, #60]
    94e8: e59d1038     	ldr	r1, [sp, #56]
    94ec: e58d102c     	str	r1, [sp, #44]
    94f0: e50b0030     	str	r0, [r11, #-48]
    94f4: e51b2030     	ldr	r2, [r11, #-48]
    94f8: e58d2030     	str	r2, [sp, #48]
    94fc: e5900008     	ldr	r0, [r0, #8]
    9500: e58d0034     	str	r0, [sp, #52]
    9504: e0901001     	adds	r1, r0, r1
    9508: e3a00000     	mov	r0, #0
    950c: e2a00000     	adc	r0, r0, #0
    9510: e50b102c     	str	r1, [r11, #-44]
    9514: e54b0028     	strb	r0, [r11, #-40]
    9518: e55b0028     	ldrb	r0, [r11, #-40]
    951c: e3500000     	cmp	r0, #0
    9520: 1a000001     	bne	0x952c <io.fixed_buffer_stream.FixedBufferStream([]u8).write+0x198> @ imm = #4
    9524: eaffffff     	b	0x9528 <io.fixed_buffer_stream.FixedBufferStream([]u8).write+0x194> @ imm = #-4
    9528: ea000004     	b	0x9540 <io.fixed_buffer_stream.FixedBufferStream([]u8).write+0x1ac> @ imm = #16
    952c: e59f0220     	ldr	r0, [pc, #544]          @ 0x9754 <$d.35+0x10>
    9530: e59f3220     	ldr	r3, [pc, #544]          @ 0x9758 <$d.35+0x14>
    9534: e3a01010     	mov	r1, #16
    9538: e3a02000     	mov	r2, #0
    953c: ebfffb4d     	bl	0x8278 <builtin.default_panic> @ imm = #-4812
    9540: e59d1034     	ldr	r1, [sp, #52]
    9544: e59d3030     	ldr	r3, [sp, #48]
    9548: e51b002c     	ldr	r0, [r11, #-44]
    954c: e58d0020     	str	r0, [sp, #32]
    9550: e5932000     	ldr	r2, [r3]
    9554: e5933004     	ldr	r3, [r3, #4]
    9558: e58d3024     	str	r3, [sp, #36]
    955c: e0822001     	add	r2, r2, r1
    9560: e58d2028     	str	r2, [sp, #40]
    9564: e0501001     	subs	r1, r0, r1
    9568: e3a00000     	mov	r0, #0
    956c: e2a00000     	adc	r0, r0, #0
    9570: e2200001     	eor	r0, r0, #1
    9574: e50b1024     	str	r1, [r11, #-36]
    9578: e54b0020     	strb	r0, [r11, #-32]
    957c: e55b0020     	ldrb	r0, [r11, #-32]
    9580: e3500000     	cmp	r0, #0
    9584: 1a000001     	bne	0x9590 <io.fixed_buffer_stream.FixedBufferStream([]u8).write+0x1fc> @ imm = #4
    9588: eaffffff     	b	0x958c <io.fixed_buffer_stream.FixedBufferStream([]u8).write+0x1f8> @ imm = #-4
    958c: ea000004     	b	0x95a4 <io.fixed_buffer_stream.FixedBufferStream([]u8).write+0x210> @ imm = #16
    9590: e59f01c4     	ldr	r0, [pc, #452]          @ 0x975c <$d.35+0x18>
    9594: e59f31c4     	ldr	r3, [pc, #452]          @ 0x9760 <$d.35+0x1c>
    9598: e3a01010     	mov	r1, #16
    959c: e3a02000     	mov	r2, #0
    95a0: ebfffb34     	bl	0x8278 <builtin.default_panic> @ imm = #-4912
    95a4: e59d0020     	ldr	r0, [sp, #32]
    95a8: e59d1024     	ldr	r1, [sp, #36]
    95ac: e51b2024     	ldr	r2, [r11, #-36]
    95b0: e58d2018     	str	r2, [sp, #24]
    95b4: e1a02001     	mov	r2, r1
    95b8: e58d201c     	str	r2, [sp, #28]
    95bc: e1500001     	cmp	r0, r1
    95c0: 8a000001     	bhi	0x95cc <io.fixed_buffer_stream.FixedBufferStream([]u8).write+0x238> @ imm = #4
    95c4: eaffffff     	b	0x95c8 <io.fixed_buffer_stream.FixedBufferStream([]u8).write+0x234> @ imm = #-4
    95c8: ea000002     	b	0x95d8 <io.fixed_buffer_stream.FixedBufferStream([]u8).write+0x244> @ imm = #8
    95cc: e59d101c     	ldr	r1, [sp, #28]
    95d0: e59d0020     	ldr	r0, [sp, #32]
    95d4: ebfffaea     	bl	0x8184 <builtin.panicOutOfBounds> @ imm = #-5208
    95d8: e59d0034     	ldr	r0, [sp, #52]
    95dc: e59d1020     	ldr	r1, [sp, #32]
    95e0: e1500001     	cmp	r0, r1
    95e4: 8a000001     	bhi	0x95f0 <io.fixed_buffer_stream.FixedBufferStream([]u8).write+0x25c> @ imm = #4
    95e8: eaffffff     	b	0x95ec <io.fixed_buffer_stream.FixedBufferStream([]u8).write+0x258> @ imm = #-4
    95ec: ea000002     	b	0x95fc <io.fixed_buffer_stream.FixedBufferStream([]u8).write+0x268> @ imm = #8
    95f0: e59d1020     	ldr	r1, [sp, #32]
    95f4: e59d0034     	ldr	r0, [sp, #52]
    95f8: ebfffae1     	bl	0x8184 <builtin.panicOutOfBounds> @ imm = #-5244
    95fc: e59d002c     	ldr	r0, [sp, #44]
    9600: e59d1048     	ldr	r1, [sp, #72]
    9604: e51b2044     	ldr	r2, [r11, #-68]
    9608: e59d3028     	ldr	r3, [sp, #40]
    960c: e59dc018     	ldr	r12, [sp, #24]
    9610: e58dc008     	str	r12, [sp, #8]
    9614: e58d300c     	str	r3, [sp, #12]
    9618: e50b201c     	str	r2, [r11, #-28]
    961c: e50b1018     	str	r1, [r11, #-24]
    9620: e51b101c     	ldr	r1, [r11, #-28]
    9624: e58d1010     	str	r1, [sp, #16]
    9628: e51b1018     	ldr	r1, [r11, #-24]
    962c: e58d1014     	str	r1, [sp, #20]
    9630: e1500001     	cmp	r0, r1
    9634: 8a000001     	bhi	0x9640 <io.fixed_buffer_stream.FixedBufferStream([]u8).write+0x2ac> @ imm = #4
    9638: eaffffff     	b	0x963c <io.fixed_buffer_stream.FixedBufferStream([]u8).write+0x2a8> @ imm = #-4
    963c: ea000002     	b	0x964c <io.fixed_buffer_stream.FixedBufferStream([]u8).write+0x2b8> @ imm = #8
    9640: e59d1014     	ldr	r1, [sp, #20]
    9644: e59d002c     	ldr	r0, [sp, #44]
    9648: ebfffacd     	bl	0x8184 <builtin.panicOutOfBounds> @ imm = #-5324
    964c: e59d002c     	ldr	r0, [sp, #44]
    9650: e3500000     	cmp	r0, #0
    9654: 3a000001     	blo	0x9660 <io.fixed_buffer_stream.FixedBufferStream([]u8).write+0x2cc> @ imm = #4
    9658: eaffffff     	b	0x965c <io.fixed_buffer_stream.FixedBufferStream([]u8).write+0x2c8> @ imm = #-4
    965c: ea000002     	b	0x966c <io.fixed_buffer_stream.FixedBufferStream([]u8).write+0x2d8> @ imm = #8
    9660: e59d102c     	ldr	r1, [sp, #44]
    9664: e3a00000     	mov	r0, #0
    9668: ebfffac5     	bl	0x8184 <builtin.panicOutOfBounds> @ imm = #-5356
    966c: e59d302c     	ldr	r3, [sp, #44]
    9670: e59d2010     	ldr	r2, [sp, #16]
    9674: e59d1008     	ldr	r1, [sp, #8]
    9678: e59d000c     	ldr	r0, [sp, #12]
    967c: ebfffd0d     	bl	0x8ab8 <mem.copy__anon_1381> @ imm = #-3020
    9680: e59d003c     	ldr	r0, [sp, #60]
    9684: e59d102c     	ldr	r1, [sp, #44]
    9688: e50b0014     	str	r0, [r11, #-20]
    968c: e51b2014     	ldr	r2, [r11, #-20]
    9690: e5b20008     	ldr	r0, [r2, #8]!
    9694: e58d2004     	str	r2, [sp, #4]
    9698: e0901001     	adds	r1, r0, r1
    969c: e3a00000     	mov	r0, #0
    96a0: e2a00000     	adc	r0, r0, #0
    96a4: e50b1010     	str	r1, [r11, #-16]
    96a8: e54b000c     	strb	r0, [r11, #-12]
    96ac: e55b000c     	ldrb	r0, [r11, #-12]
    96b0: e3500000     	cmp	r0, #0
    96b4: 1a000001     	bne	0x96c0 <io.fixed_buffer_stream.FixedBufferStream([]u8).write+0x32c> @ imm = #4
    96b8: eaffffff     	b	0x96bc <io.fixed_buffer_stream.FixedBufferStream([]u8).write+0x328> @ imm = #-4
    96bc: ea000004     	b	0x96d4 <io.fixed_buffer_stream.FixedBufferStream([]u8).write+0x340> @ imm = #16
    96c0: e59f009c     	ldr	r0, [pc, #156]          @ 0x9764 <$d.35+0x20>
    96c4: e59f309c     	ldr	r3, [pc, #156]          @ 0x9768 <$d.35+0x24>
    96c8: e3a01010     	mov	r1, #16
    96cc: e3a02000     	mov	r2, #0
    96d0: ebfffae8     	bl	0x8278 <builtin.default_panic> @ imm = #-5216
    96d4: e59d002c     	ldr	r0, [sp, #44]
    96d8: e59d2004     	ldr	r2, [sp, #4]
    96dc: e51b1010     	ldr	r1, [r11, #-16]
    96e0: e5821000     	str	r1, [r2]
    96e4: e3500000     	cmp	r0, #0
    96e8: 1a000009     	bne	0x9714 <io.fixed_buffer_stream.FixedBufferStream([]u8).write+0x380> @ imm = #36
    96ec: eaffffff     	b	0x96f0 <io.fixed_buffer_stream.FixedBufferStream([]u8).write+0x35c> @ imm = #-4
    96f0: e59d0040     	ldr	r0, [sp, #64]
    96f4: ebfffc19     	bl	0x8760 <builtin.returnError> @ imm = #-3996
    96f8: e59d1044     	ldr	r1, [sp, #68]
    96fc: e3a00003     	mov	r0, #3
    9700: e5810004     	str	r0, [r1, #4]
    9704: e3a00000     	mov	r0, #0
    9708: e5810000     	str	r0, [r1]
    970c: e1a0d00b     	mov	sp, r11
    9710: e8bd8800     	pop	{r11, pc}
    9714: eaffffff     	b	0x9718 <io.fixed_buffer_stream.FixedBufferStream([]u8).write+0x384> @ imm = #-4
    9718: e59d1044     	ldr	r1, [sp, #68]
    971c: e59d002c     	ldr	r0, [sp, #44]
    9720: e3a02000     	mov	r2, #0
    9724: e14b20b4     	strh	r2, [r11, #-4]
    9728: e50b0008     	str	r0, [r11, #-8]
    972c: e51b0008     	ldr	r0, [r11, #-8]
    9730: e51b2004     	ldr	r2, [r11, #-4]
    9734: e5812004     	str	r2, [r1, #4]
    9738: e5810000     	str	r0, [r1]
    973c: e1a0d00b     	mov	sp, r11
    9740: e8bd8800     	pop	{r11, pc}

00009744 <$d.35>:
    9744: 0000ce08     	andeq	r12, r0, r8, lsl #28
    9748: 0000c760     	andeq	r12, r0, r0, ror #14
    974c: 0000ce18     	andeq	r12, r0, r8, lsl lr
    9750: 0000c768     	andeq	r12, r0, r8, ror #14
    9754: 0000ce28     	andeq	r12, r0, r8, lsr #28
    9758: 0000c770     	andeq	r12, r0, r0, ror r7
    975c: 0000ce38     	andeq	r12, r0, r8, lsr lr
    9760: 0000c778     	andeq	r12, r0, r8, ror r7
    9764: 0000ce48     	andeq	r12, r0, r8, asr #28
    9768: 0000c780     	andeq	r12, r0, r0, lsl #15

0000976c <io.writer.Writer(*io.fixed_buffer_stream.FixedBufferStream([]u8),error{NoSpaceLeft},(function 'write')).write>:
    976c: e92d4800     	push	{r11, lr}
    9770: e1a0b00d     	mov	r11, sp
    9774: e24dd018     	sub	sp, sp, #24
    9778: e58d1008     	str	r1, [sp, #8]
    977c: e58d000c     	str	r0, [sp, #12]
    9780: e59b0008     	ldr	r0, [r11, #8]
    9784: e5922000     	ldr	r2, [r2]
    9788: e1a0c00d     	mov	r12, sp
    978c: e58c0000     	str	r0, [r12]
    9790: e24b0008     	sub	r0, r11, #8
    9794: ebfffefe     	bl	0x9394 <io.fixed_buffer_stream.FixedBufferStream([]u8).write> @ imm = #-1032
    9798: e59d000c     	ldr	r0, [sp, #12]
    979c: e51b1008     	ldr	r1, [r11, #-8]
    97a0: e51b2004     	ldr	r2, [r11, #-4]
    97a4: e5802004     	str	r2, [r0, #4]
    97a8: e5801000     	str	r1, [r0]
    97ac: e1d000b4     	ldrh	r0, [r0, #4]
    97b0: e3500000     	cmp	r0, #0
    97b4: 1a000002     	bne	0x97c4 <io.writer.Writer(*io.fixed_buffer_stream.FixedBufferStream([]u8),error{NoSpaceLeft},(function 'write')).write+0x58> @ imm = #8
    97b8: eaffffff     	b	0x97bc <io.writer.Writer(*io.fixed_buffer_stream.FixedBufferStream([]u8),error{NoSpaceLeft},(function 'write')).write+0x50> @ imm = #-4
    97bc: e1a0d00b     	mov	sp, r11
    97c0: e8bd8800     	pop	{r11, pc}
    97c4: e59d0008     	ldr	r0, [sp, #8]
    97c8: ebfffbe4     	bl	0x8760 <builtin.returnError> @ imm = #-4208
    97cc: e1a0d00b     	mov	sp, r11
    97d0: e8bd8800     	pop	{r11, pc}

000097d4 <fmt.Parser.specifier>:
    97d4: e92d4800     	push	{r11, lr}
    97d8: e1a0b00d     	mov	r11, sp
    97dc: e24dd030     	sub	sp, sp, #48
    97e0: e58d200c     	str	r2, [sp, #12]
    97e4: e58d1010     	str	r1, [sp, #16]
    97e8: e58d0014     	str	r0, [sp, #20]
    97ec: e58d2018     	str	r2, [sp, #24]
    97f0: e59d0018     	ldr	r0, [sp, #24]
    97f4: e3a0105b     	mov	r1, #91
    97f8: eb000063     	bl	0x998c <fmt.Parser.maybe> @ imm = #396
    97fc: e3100001     	tst	r0, #1
    9800: 0a000012     	beq	0x9850 <fmt.Parser.specifier+0x7c> @ imm = #72
    9804: eaffffff     	b	0x9808 <fmt.Parser.specifier+0x34> @ imm = #-4
    9808: e59d000c     	ldr	r0, [sp, #12]
    980c: e50b0014     	str	r0, [r11, #-20]
    9810: e51b0014     	ldr	r0, [r11, #-20]
    9814: e3a0105d     	mov	r1, #93
    9818: e58d1000     	str	r1, [sp]
    981c: eb0000a4     	bl	0x9ab4 <fmt.Parser.until> @ imm = #656
    9820: e1a02000     	mov	r2, r0
    9824: e59d000c     	ldr	r0, [sp, #12]
    9828: e1a03001     	mov	r3, r1
    982c: e59d1000     	ldr	r1, [sp]
    9830: e58d3004     	str	r3, [sp, #4]
    9834: e58d2008     	str	r2, [sp, #8]
    9838: e50b0010     	str	r0, [r11, #-16]
    983c: e51b0010     	ldr	r0, [r11, #-16]
    9840: eb000051     	bl	0x998c <fmt.Parser.maybe> @ imm = #324
    9844: e3100001     	tst	r0, #1
    9848: 0a000001     	beq	0x9854 <fmt.Parser.specifier+0x80> @ imm = #4
    984c: ea00000b     	b	0x9880 <fmt.Parser.specifier+0xac> @ imm = #44
    9850: ea000024     	b	0x98e8 <fmt.Parser.specifier+0x114> @ imm = #144
    9854: e59d0014     	ldr	r0, [sp, #20]
    9858: e3a01004     	mov	r1, #4
    985c: e580100c     	str	r1, [r0, #12]
    9860: e3a01000     	mov	r1, #0
    9864: e5801008     	str	r1, [r0, #8]
    9868: e5801004     	str	r1, [r0, #4]
    986c: e5801000     	str	r1, [r0]
    9870: e1d000bc     	ldrh	r0, [r0, #12]
    9874: e3500000     	cmp	r0, #0
    9878: 0a000001     	beq	0x9884 <fmt.Parser.specifier+0xb0> @ imm = #4
    987c: ea000002     	b	0x988c <fmt.Parser.specifier+0xb8> @ imm = #8
    9880: ea000005     	b	0x989c <fmt.Parser.specifier+0xc8> @ imm = #20
    9884: e1a0d00b     	mov	sp, r11
    9888: e8bd8800     	pop	{r11, pc}
    988c: e59d0010     	ldr	r0, [sp, #16]
    9890: ebfffbb2     	bl	0x8760 <builtin.returnError> @ imm = #-4408
    9894: e1a0d00b     	mov	sp, r11
    9898: e8bd8800     	pop	{r11, pc}
    989c: e59d0014     	ldr	r0, [sp, #20]
    98a0: e59d1008     	ldr	r1, [sp, #8]
    98a4: e59d2004     	ldr	r2, [sp, #4]
    98a8: e3a03000     	mov	r3, #0
    98ac: e1c030bc     	strh	r3, [r0, #12]
    98b0: e5802004     	str	r2, [r0, #4]
    98b4: e5801000     	str	r1, [r0]
    98b8: e3a01002     	mov	r1, #2
    98bc: e5c01008     	strb	r1, [r0, #8]
    98c0: e1d000bc     	ldrh	r0, [r0, #12]
    98c4: e3500000     	cmp	r0, #0
    98c8: 1a000002     	bne	0x98d8 <fmt.Parser.specifier+0x104> @ imm = #8
    98cc: eaffffff     	b	0x98d0 <fmt.Parser.specifier+0xfc> @ imm = #-4
    98d0: e1a0d00b     	mov	sp, r11
    98d4: e8bd8800     	pop	{r11, pc}
    98d8: e59d0010     	ldr	r0, [sp, #16]
    98dc: ebfffb9f     	bl	0x8760 <builtin.returnError> @ imm = #-4484
    98e0: e1a0d00b     	mov	sp, r11
    98e4: e8bd8800     	pop	{r11, pc}
    98e8: e59d000c     	ldr	r0, [sp, #12]
    98ec: e50b000c     	str	r0, [r11, #-12]
    98f0: e51b100c     	ldr	r1, [r11, #-12]
    98f4: e24b0008     	sub	r0, r11, #8
    98f8: eb0000f1     	bl	0x9cc4 <fmt.Parser.number> @ imm = #964
    98fc: e55b0004     	ldrb	r0, [r11, #-4]
    9900: e3500000     	cmp	r0, #0
    9904: 0a00000b     	beq	0x9938 <fmt.Parser.specifier+0x164> @ imm = #44
    9908: eaffffff     	b	0x990c <fmt.Parser.specifier+0x138> @ imm = #-4
    990c: e59d0014     	ldr	r0, [sp, #20]
    9910: e51b1008     	ldr	r1, [r11, #-8]
    9914: e3a02000     	mov	r2, #0
    9918: e1c020bc     	strh	r2, [r0, #12]
    991c: e5801000     	str	r1, [r0]
    9920: e3a01001     	mov	r1, #1
    9924: e5c01008     	strb	r1, [r0, #8]
    9928: e1d000bc     	ldrh	r0, [r0, #12]
    992c: e3500000     	cmp	r0, #0
    9930: 0a000001     	beq	0x993c <fmt.Parser.specifier+0x168> @ imm = #4
    9934: ea000002     	b	0x9944 <fmt.Parser.specifier+0x170> @ imm = #8
    9938: ea000005     	b	0x9954 <fmt.Parser.specifier+0x180> @ imm = #20
    993c: e1a0d00b     	mov	sp, r11
    9940: e8bd8800     	pop	{r11, pc}
    9944: e59d0010     	ldr	r0, [sp, #16]
    9948: ebfffb84     	bl	0x8760 <builtin.returnError> @ imm = #-4592
    994c: e1a0d00b     	mov	sp, r11
    9950: e8bd8800     	pop	{r11, pc}
    9954: e59d0014     	ldr	r0, [sp, #20]
    9958: e3a01000     	mov	r1, #0
    995c: e1c010bc     	strh	r1, [r0, #12]
    9960: e5c01008     	strb	r1, [r0, #8]
    9964: e1d000bc     	ldrh	r0, [r0, #12]
    9968: e3500000     	cmp	r0, #0
    996c: 1a000002     	bne	0x997c <fmt.Parser.specifier+0x1a8> @ imm = #8
    9970: eaffffff     	b	0x9974 <fmt.Parser.specifier+0x1a0> @ imm = #-4
    9974: e1a0d00b     	mov	sp, r11
    9978: e8bd8800     	pop	{r11, pc}
    997c: e59d0010     	ldr	r0, [sp, #16]
    9980: ebfffb76     	bl	0x8760 <builtin.returnError> @ imm = #-4648
    9984: e1a0d00b     	mov	sp, r11
    9988: e8bd8800     	pop	{r11, pc}

0000998c <fmt.Parser.maybe>:
    998c: e92d4800     	push	{r11, lr}
    9990: e1a0b00d     	mov	r11, sp
    9994: e24dd028     	sub	sp, sp, #40
    9998: e58d0014     	str	r0, [sp, #20]
    999c: e50b1010     	str	r1, [r11, #-16]
    99a0: e5901004     	ldr	r1, [r0, #4]
    99a4: e5900008     	ldr	r0, [r0, #8]
    99a8: e1500001     	cmp	r0, r1
    99ac: 2a00000b     	bhs	0x99e0 <fmt.Parser.maybe+0x54> @ imm = #44
    99b0: eaffffff     	b	0x99b4 <fmt.Parser.maybe+0x28> @ imm = #-4
    99b4: e59d0014     	ldr	r0, [sp, #20]
    99b8: e5901000     	ldr	r1, [r0]
    99bc: e58d1008     	str	r1, [sp, #8]
    99c0: e5901004     	ldr	r1, [r0, #4]
    99c4: e5900008     	ldr	r0, [r0, #8]
    99c8: e58d000c     	str	r0, [sp, #12]
    99cc: e1a02001     	mov	r2, r1
    99d0: e58d2010     	str	r2, [sp, #16]
    99d4: e1500001     	cmp	r0, r1
    99d8: 3a000003     	blo	0x99ec <fmt.Parser.maybe+0x60> @ imm = #12
    99dc: ea000003     	b	0x99f0 <fmt.Parser.maybe+0x64> @ imm = #12
    99e0: e3a00000     	mov	r0, #0
    99e4: e58d0004     	str	r0, [sp, #4]
    99e8: ea00000d     	b	0x9a24 <fmt.Parser.maybe+0x98> @ imm = #52
    99ec: ea000002     	b	0x99fc <fmt.Parser.maybe+0x70> @ imm = #8
    99f0: e59d1010     	ldr	r1, [sp, #16]
    99f4: e59d000c     	ldr	r0, [sp, #12]
    99f8: ebfff9e1     	bl	0x8184 <builtin.panicOutOfBounds> @ imm = #-6268
    99fc: e51b1010     	ldr	r1, [r11, #-16]
    9a00: e59d0008     	ldr	r0, [sp, #8]
    9a04: e59d200c     	ldr	r2, [sp, #12]
    9a08: e7d00002     	ldrb	r0, [r0, r2]
    9a0c: e6ef1071     	<unknown>
    9a10: e0400001     	sub	r0, r0, r1
    9a14: e16f0f10     	<unknown>
    9a18: e1a002a0     	lsr	r0, r0, #5
    9a1c: e58d0004     	str	r0, [sp, #4]
    9a20: eaffffff     	b	0x9a24 <fmt.Parser.maybe+0x98> @ imm = #-4
    9a24: e59d0004     	ldr	r0, [sp, #4]
    9a28: e3100001     	tst	r0, #1
    9a2c: 0a00000e     	beq	0x9a6c <fmt.Parser.maybe+0xe0> @ imm = #56
    9a30: eaffffff     	b	0x9a34 <fmt.Parser.maybe+0xa8> @ imm = #-4
    9a34: e59d0014     	ldr	r0, [sp, #20]
    9a38: e50b000c     	str	r0, [r11, #-12]
    9a3c: e51b100c     	ldr	r1, [r11, #-12]
    9a40: e5b10008     	ldr	r0, [r1, #8]!
    9a44: e58d1000     	str	r1, [sp]
    9a48: e2901001     	adds	r1, r0, #1
    9a4c: e3a00000     	mov	r0, #0
    9a50: e2a00000     	adc	r0, r0, #0
    9a54: e50b1008     	str	r1, [r11, #-8]
    9a58: e54b0004     	strb	r0, [r11, #-4]
    9a5c: e55b0004     	ldrb	r0, [r11, #-4]
    9a60: e3500000     	cmp	r0, #0
    9a64: 0a000001     	beq	0x9a70 <fmt.Parser.maybe+0xe4> @ imm = #4
    9a68: ea000001     	b	0x9a74 <fmt.Parser.maybe+0xe8> @ imm = #4
    9a6c: ea00000b     	b	0x9aa0 <fmt.Parser.maybe+0x114> @ imm = #44
    9a70: ea000004     	b	0x9a88 <fmt.Parser.maybe+0xfc> @ imm = #16
    9a74: e59f0030     	ldr	r0, [pc, #48]           @ 0x9aac <$d.37>
    9a78: e59f3030     	ldr	r3, [pc, #48]           @ 0x9ab0 <$d.37+0x4>
    9a7c: e3a01010     	mov	r1, #16
    9a80: e3a02000     	mov	r2, #0
    9a84: ebfff9fb     	bl	0x8278 <builtin.default_panic> @ imm = #-6164
    9a88: e59d1000     	ldr	r1, [sp]
    9a8c: e51b0008     	ldr	r0, [r11, #-8]
    9a90: e5810000     	str	r0, [r1]
    9a94: e3a00001     	mov	r0, #1
    9a98: e1a0d00b     	mov	sp, r11
    9a9c: e8bd8800     	pop	{r11, pc}
    9aa0: e3a00000     	mov	r0, #0
    9aa4: e1a0d00b     	mov	sp, r11
    9aa8: e8bd8800     	pop	{r11, pc}

00009aac <$d.37>:
    9aac: 0000ce88     	andeq	r12, r0, r8, lsl #29
    9ab0: 0000c7a8     	andeq	r12, r0, r8, lsr #15

00009ab4 <fmt.Parser.until>:
    9ab4: e92d4800     	push	{r11, lr}
    9ab8: e1a0b00d     	mov	r11, sp
    9abc: e24dd048     	sub	sp, sp, #72
    9ac0: e58d0024     	str	r0, [sp, #36]
    9ac4: e50b1020     	str	r1, [r11, #-32]
    9ac8: e5901004     	ldr	r1, [r0, #4]
    9acc: e5900008     	ldr	r0, [r0, #8]
    9ad0: e50b001c     	str	r0, [r11, #-28]
    9ad4: e1500001     	cmp	r0, r1
    9ad8: 3a000004     	blo	0x9af0 <fmt.Parser.until+0x3c> @ imm = #16
    9adc: eaffffff     	b	0x9ae0 <fmt.Parser.until+0x2c> @ imm = #-4
    9ae0: e59f01d8     	ldr	r0, [pc, #472]          @ 0x9cc0 <$d.39+0x10>
    9ae4: e3a01000     	mov	r1, #0
    9ae8: e1a0d00b     	mov	sp, r11
    9aec: e8bd8800     	pop	{r11, pc}
    9af0: eaffffff     	b	0x9af4 <fmt.Parser.until+0x40> @ imm = #-4
    9af4: eaffffff     	b	0x9af8 <fmt.Parser.until+0x44> @ imm = #-4
    9af8: e59d0024     	ldr	r0, [sp, #36]
    9afc: e5901004     	ldr	r1, [r0, #4]
    9b00: e5900008     	ldr	r0, [r0, #8]
    9b04: e1500001     	cmp	r0, r1
    9b08: 2a00000b     	bhs	0x9b3c <fmt.Parser.until+0x88> @ imm = #44
    9b0c: eaffffff     	b	0x9b10 <fmt.Parser.until+0x5c> @ imm = #-4
    9b10: e59d0024     	ldr	r0, [sp, #36]
    9b14: e5901000     	ldr	r1, [r0]
    9b18: e58d1018     	str	r1, [sp, #24]
    9b1c: e5901004     	ldr	r1, [r0, #4]
    9b20: e5900008     	ldr	r0, [r0, #8]
    9b24: e58d001c     	str	r0, [sp, #28]
    9b28: e1a02001     	mov	r2, r1
    9b2c: e58d2020     	str	r2, [sp, #32]
    9b30: e1500001     	cmp	r0, r1
    9b34: 3a000001     	blo	0x9b40 <fmt.Parser.until+0x8c> @ imm = #4
    9b38: ea000001     	b	0x9b44 <fmt.Parser.until+0x90> @ imm = #4
    9b3c: ea000026     	b	0x9bdc <fmt.Parser.until+0x128> @ imm = #152
    9b40: ea000002     	b	0x9b50 <fmt.Parser.until+0x9c> @ imm = #8
    9b44: e59d1020     	ldr	r1, [sp, #32]
    9b48: e59d001c     	ldr	r0, [sp, #28]
    9b4c: ebfff98c     	bl	0x8184 <builtin.panicOutOfBounds> @ imm = #-6608
    9b50: e51b1020     	ldr	r1, [r11, #-32]
    9b54: e59d0018     	ldr	r0, [sp, #24]
    9b58: e59d201c     	ldr	r2, [sp, #28]
    9b5c: e7d00002     	ldrb	r0, [r0, r2]
    9b60: e6ef1071     	<unknown>
    9b64: e1500001     	cmp	r0, r1
    9b68: 1a000001     	bne	0x9b74 <fmt.Parser.until+0xc0> @ imm = #4
    9b6c: eaffffff     	b	0x9b70 <fmt.Parser.until+0xbc> @ imm = #-4
    9b70: ea000019     	b	0x9bdc <fmt.Parser.until+0x128> @ imm = #100
    9b74: eaffffff     	b	0x9b78 <fmt.Parser.until+0xc4> @ imm = #-4
    9b78: e59d0024     	ldr	r0, [sp, #36]
    9b7c: e50b0018     	str	r0, [r11, #-24]
    9b80: e51b1018     	ldr	r1, [r11, #-24]
    9b84: e5b10008     	ldr	r0, [r1, #8]!
    9b88: e58d1014     	str	r1, [sp, #20]
    9b8c: e2901001     	adds	r1, r0, #1
    9b90: e3a00000     	mov	r0, #0
    9b94: e2a00000     	adc	r0, r0, #0
    9b98: e50b1014     	str	r1, [r11, #-20]
    9b9c: e54b0010     	strb	r0, [r11, #-16]
    9ba0: e55b0010     	ldrb	r0, [r11, #-16]
    9ba4: e3500000     	cmp	r0, #0
    9ba8: 1a000001     	bne	0x9bb4 <fmt.Parser.until+0x100> @ imm = #4
    9bac: eaffffff     	b	0x9bb0 <fmt.Parser.until+0xfc> @ imm = #-4
    9bb0: ea000004     	b	0x9bc8 <fmt.Parser.until+0x114> @ imm = #16
    9bb4: e59f00f4     	ldr	r0, [pc, #244]          @ 0x9cb0 <$d.39>
    9bb8: e59f30f4     	ldr	r3, [pc, #244]          @ 0x9cb4 <$d.39+0x4>
    9bbc: e3a01010     	mov	r1, #16
    9bc0: e3a02000     	mov	r2, #0
    9bc4: ebfff9ab     	bl	0x8278 <builtin.default_panic> @ imm = #-6484
    9bc8: e59d1014     	ldr	r1, [sp, #20]
    9bcc: e51b0014     	ldr	r0, [r11, #-20]
    9bd0: e5810000     	str	r0, [r1]
    9bd4: eaffffff     	b	0x9bd8 <fmt.Parser.until+0x124> @ imm = #-4
    9bd8: eaffffc6     	b	0x9af8 <fmt.Parser.until+0x44> @ imm = #-232
    9bdc: e51b101c     	ldr	r1, [r11, #-28]
    9be0: e59d0024     	ldr	r0, [sp, #36]
    9be4: e50b000c     	str	r0, [r11, #-12]
    9be8: e51b300c     	ldr	r3, [r11, #-12]
    9bec: e5900008     	ldr	r0, [r0, #8]
    9bf0: e58d0008     	str	r0, [sp, #8]
    9bf4: e5932000     	ldr	r2, [r3]
    9bf8: e5933004     	ldr	r3, [r3, #4]
    9bfc: e58d300c     	str	r3, [sp, #12]
    9c00: e0822001     	add	r2, r2, r1
    9c04: e58d2010     	str	r2, [sp, #16]
    9c08: e0501001     	subs	r1, r0, r1
    9c0c: e3a00000     	mov	r0, #0
    9c10: e2a00000     	adc	r0, r0, #0
    9c14: e2200001     	eor	r0, r0, #1
    9c18: e50b1008     	str	r1, [r11, #-8]
    9c1c: e54b0004     	strb	r0, [r11, #-4]
    9c20: e55b0004     	ldrb	r0, [r11, #-4]
    9c24: e3500000     	cmp	r0, #0
    9c28: 1a000001     	bne	0x9c34 <fmt.Parser.until+0x180> @ imm = #4
    9c2c: eaffffff     	b	0x9c30 <fmt.Parser.until+0x17c> @ imm = #-4
    9c30: ea000004     	b	0x9c48 <fmt.Parser.until+0x194> @ imm = #16
    9c34: e59f007c     	ldr	r0, [pc, #124]          @ 0x9cb8 <$d.39+0x8>
    9c38: e59f307c     	ldr	r3, [pc, #124]          @ 0x9cbc <$d.39+0xc>
    9c3c: e3a01010     	mov	r1, #16
    9c40: e3a02000     	mov	r2, #0
    9c44: ebfff98b     	bl	0x8278 <builtin.default_panic> @ imm = #-6612
    9c48: e59d0008     	ldr	r0, [sp, #8]
    9c4c: e59d100c     	ldr	r1, [sp, #12]
    9c50: e51b2008     	ldr	r2, [r11, #-8]
    9c54: e58d2000     	str	r2, [sp]
    9c58: e1a02001     	mov	r2, r1
    9c5c: e58d2004     	str	r2, [sp, #4]
    9c60: e1500001     	cmp	r0, r1
    9c64: 8a000001     	bhi	0x9c70 <fmt.Parser.until+0x1bc> @ imm = #4
    9c68: eaffffff     	b	0x9c6c <fmt.Parser.until+0x1b8> @ imm = #-4
    9c6c: ea000002     	b	0x9c7c <fmt.Parser.until+0x1c8> @ imm = #8
    9c70: e59d1004     	ldr	r1, [sp, #4]
    9c74: e59d0008     	ldr	r0, [sp, #8]
    9c78: ebfff941     	bl	0x8184 <builtin.panicOutOfBounds> @ imm = #-6908
    9c7c: e51b001c     	ldr	r0, [r11, #-28]
    9c80: e59d1008     	ldr	r1, [sp, #8]
    9c84: e1500001     	cmp	r0, r1
    9c88: 8a000001     	bhi	0x9c94 <fmt.Parser.until+0x1e0> @ imm = #4
    9c8c: eaffffff     	b	0x9c90 <fmt.Parser.until+0x1dc> @ imm = #-4
    9c90: ea000002     	b	0x9ca0 <fmt.Parser.until+0x1ec> @ imm = #8
    9c94: e59d1008     	ldr	r1, [sp, #8]
    9c98: e51b001c     	ldr	r0, [r11, #-28]
    9c9c: ebfff938     	bl	0x8184 <builtin.panicOutOfBounds> @ imm = #-6944
    9ca0: e59d1000     	ldr	r1, [sp]
    9ca4: e59d0010     	ldr	r0, [sp, #16]
    9ca8: e1a0d00b     	mov	sp, r11
    9cac: e8bd8800     	pop	{r11, pc}

00009cb0 <$d.39>:
    9cb0: 0000ced8     	ldrdeq	r12, sp, [r0], -r8
    9cb4: 0000c7f0     	strdeq	r12, sp, [r0], -r0
    9cb8: 0000cee8     	andeq	r12, r0, r8, ror #29
    9cbc: 0000c7f8     	strdeq	r12, sp, [r0], -r8
    9cc0: aaaaaaaa     	bge	0xfeab4770 <__prog_end__+0xfffffffffeaa7598> @ imm = #-22369624

00009cc4 <fmt.Parser.number>:
    9cc4: e92d4800     	push	{r11, lr}
    9cc8: e1a0b00d     	mov	r11, sp
    9ccc: e24dd060     	sub	sp, sp, #96
    9cd0: e58d1030     	str	r1, [sp, #48]
    9cd4: e50b002c     	str	r0, [r11, #-44]
    9cd8: e3a00000     	mov	r0, #0
    9cdc: e50b0024     	str	r0, [r11, #-36]
    9ce0: e50b0028     	str	r0, [r11, #-40]
    9ce4: eaffffff     	b	0x9ce8 <fmt.Parser.number+0x24> @ imm = #-4
    9ce8: e59d0030     	ldr	r0, [sp, #48]
    9cec: e5901004     	ldr	r1, [r0, #4]
    9cf0: e5900008     	ldr	r0, [r0, #8]
    9cf4: e1500001     	cmp	r0, r1
    9cf8: 2a00000b     	bhs	0x9d2c <fmt.Parser.number+0x68> @ imm = #44
    9cfc: eaffffff     	b	0x9d00 <fmt.Parser.number+0x3c> @ imm = #-4
    9d00: e59d0030     	ldr	r0, [sp, #48]
    9d04: e5901000     	ldr	r1, [r0]
    9d08: e58d1024     	str	r1, [sp, #36]
    9d0c: e5901004     	ldr	r1, [r0, #4]
    9d10: e5900008     	ldr	r0, [r0, #8]
    9d14: e58d0028     	str	r0, [sp, #40]
    9d18: e1a02001     	mov	r2, r1
    9d1c: e58d202c     	str	r2, [sp, #44]
    9d20: e1500001     	cmp	r0, r1
    9d24: 3a000001     	blo	0x9d30 <fmt.Parser.number+0x6c> @ imm = #4
    9d28: ea000001     	b	0x9d34 <fmt.Parser.number+0x70> @ imm = #4
    9d2c: ea00009a     	b	0x9f9c <fmt.Parser.number+0x2d8> @ imm = #616
    9d30: ea000002     	b	0x9d40 <fmt.Parser.number+0x7c> @ imm = #8
    9d34: e59d102c     	ldr	r1, [sp, #44]
    9d38: e59d0028     	ldr	r0, [sp, #40]
    9d3c: ebfff910     	bl	0x8184 <builtin.panicOutOfBounds> @ imm = #-7104
    9d40: e59d0024     	ldr	r0, [sp, #36]
    9d44: e59d1028     	ldr	r1, [sp, #40]
    9d48: e7d00001     	ldrb	r0, [r0, r1]
    9d4c: e58d0020     	str	r0, [sp, #32]
    9d50: e59d0020     	ldr	r0, [sp, #32]
    9d54: e6ef0070     	<unknown>
    9d58: e3500030     	cmp	r0, #48
    9d5c: 3a000009     	blo	0x9d88 <fmt.Parser.number+0xc4> @ imm = #36
    9d60: eaffffff     	b	0x9d64 <fmt.Parser.number+0xa0> @ imm = #-4
    9d64: e59d0020     	ldr	r0, [sp, #32]
    9d68: e6ef0070     	<unknown>
    9d6c: e3500039     	cmp	r0, #57
    9d70: 8a000004     	bhi	0x9d88 <fmt.Parser.number+0xc4> @ imm = #16
    9d74: eaffffff     	b	0x9d78 <fmt.Parser.number+0xb4> @ imm = #-4
    9d78: e55b0024     	ldrb	r0, [r11, #-36]
    9d7c: e3500000     	cmp	r0, #0
    9d80: 0a000001     	beq	0x9d8c <fmt.Parser.number+0xc8> @ imm = #4
    9d84: ea000005     	b	0x9da0 <fmt.Parser.number+0xdc> @ imm = #20
    9d88: ea000083     	b	0x9f9c <fmt.Parser.number+0x2d8> @ imm = #524
    9d8c: e3a00001     	mov	r0, #1
    9d90: e50b0024     	str	r0, [r11, #-36]
    9d94: e3a00000     	mov	r0, #0
    9d98: e50b0028     	str	r0, [r11, #-40]
    9d9c: ea000000     	b	0x9da4 <fmt.Parser.number+0xe0> @ imm = #0
    9da0: eaffffff     	b	0x9da4 <fmt.Parser.number+0xe0> @ imm = #-4
    9da4: e55b0024     	ldrb	r0, [r11, #-36]
    9da8: e3500000     	cmp	r0, #0
    9dac: 0a000001     	beq	0x9db8 <fmt.Parser.number+0xf4> @ imm = #4
    9db0: eaffffff     	b	0x9db4 <fmt.Parser.number+0xf0> @ imm = #-4
    9db4: ea000004     	b	0x9dcc <fmt.Parser.number+0x108> @ imm = #16
    9db8: e59f01f8     	ldr	r0, [pc, #504]          @ 0x9fb8 <$d.41>
    9dbc: e59f31f8     	ldr	r3, [pc, #504]          @ 0x9fbc <$d.41+0x4>
    9dc0: e3a01019     	mov	r1, #25
    9dc4: e3a02000     	mov	r2, #0
    9dc8: ebfff92a     	bl	0x8278 <builtin.default_panic> @ imm = #-7000
    9dcc: e24b0028     	sub	r0, r11, #40
    9dd0: e58d001c     	str	r0, [sp, #28]
    9dd4: e51b0028     	ldr	r0, [r11, #-40]
    9dd8: e3a0100a     	mov	r1, #10
    9ddc: e0801190     	<unknown>
    9de0: e3500000     	cmp	r0, #0
    9de4: 13a00001     	movne	r0, #1
    9de8: e50b1020     	str	r1, [r11, #-32]
    9dec: e54b001c     	strb	r0, [r11, #-28]
    9df0: e55b001c     	ldrb	r0, [r11, #-28]
    9df4: e3500000     	cmp	r0, #0
    9df8: 1a000001     	bne	0x9e04 <fmt.Parser.number+0x140> @ imm = #4
    9dfc: eaffffff     	b	0x9e00 <fmt.Parser.number+0x13c> @ imm = #-4
    9e00: ea000004     	b	0x9e18 <fmt.Parser.number+0x154> @ imm = #16
    9e04: e59f01b4     	ldr	r0, [pc, #436]          @ 0x9fc0 <$d.41+0x8>
    9e08: e59f31b4     	ldr	r3, [pc, #436]          @ 0x9fc4 <$d.41+0xc>
    9e0c: e3a01010     	mov	r1, #16
    9e10: e3a02000     	mov	r2, #0
    9e14: ebfff917     	bl	0x8278 <builtin.default_panic> @ imm = #-7076
    9e18: e59d101c     	ldr	r1, [sp, #28]
    9e1c: e51b0020     	ldr	r0, [r11, #-32]
    9e20: e5810000     	str	r0, [r1]
    9e24: e55b0024     	ldrb	r0, [r11, #-36]
    9e28: e3500000     	cmp	r0, #0
    9e2c: 0a000001     	beq	0x9e38 <fmt.Parser.number+0x174> @ imm = #4
    9e30: eaffffff     	b	0x9e34 <fmt.Parser.number+0x170> @ imm = #-4
    9e34: ea000004     	b	0x9e4c <fmt.Parser.number+0x188> @ imm = #16
    9e38: e59f0188     	ldr	r0, [pc, #392]          @ 0x9fc8 <$d.41+0x10>
    9e3c: e59f3188     	ldr	r3, [pc, #392]          @ 0x9fcc <$d.41+0x14>
    9e40: e3a01019     	mov	r1, #25
    9e44: e3a02000     	mov	r2, #0
    9e48: ebfff90a     	bl	0x8278 <builtin.default_panic> @ imm = #-7128
    9e4c: e59d0030     	ldr	r0, [sp, #48]
    9e50: e24b1028     	sub	r1, r11, #40
    9e54: e58d1008     	str	r1, [sp, #8]
    9e58: e51b1028     	ldr	r1, [r11, #-40]
    9e5c: e58d100c     	str	r1, [sp, #12]
    9e60: e5901000     	ldr	r1, [r0]
    9e64: e58d1010     	str	r1, [sp, #16]
    9e68: e5901004     	ldr	r1, [r0, #4]
    9e6c: e5900008     	ldr	r0, [r0, #8]
    9e70: e58d0014     	str	r0, [sp, #20]
    9e74: e1a02001     	mov	r2, r1
    9e78: e58d2018     	str	r2, [sp, #24]
    9e7c: e1500001     	cmp	r0, r1
    9e80: 2a000001     	bhs	0x9e8c <fmt.Parser.number+0x1c8> @ imm = #4
    9e84: eaffffff     	b	0x9e88 <fmt.Parser.number+0x1c4> @ imm = #-4
    9e88: ea000002     	b	0x9e98 <fmt.Parser.number+0x1d4> @ imm = #8
    9e8c: e59d1018     	ldr	r1, [sp, #24]
    9e90: e59d0014     	ldr	r0, [sp, #20]
    9e94: ebfff8ba     	bl	0x8184 <builtin.panicOutOfBounds> @ imm = #-7448
    9e98: e59d0010     	ldr	r0, [sp, #16]
    9e9c: e59d1014     	ldr	r1, [sp, #20]
    9ea0: e7d00001     	ldrb	r0, [r0, r1]
    9ea4: e2401030     	sub	r1, r0, #48
    9ea8: e6ef0071     	<unknown>
    9eac: e0500001     	subs	r0, r0, r1
    9eb0: 13a00001     	movne	r0, #1
    9eb4: e54b1018     	strb	r1, [r11, #-24]
    9eb8: e54b0017     	strb	r0, [r11, #-23]
    9ebc: e55b0017     	ldrb	r0, [r11, #-23]
    9ec0: e3500000     	cmp	r0, #0
    9ec4: 1a000001     	bne	0x9ed0 <fmt.Parser.number+0x20c> @ imm = #4
    9ec8: eaffffff     	b	0x9ecc <fmt.Parser.number+0x208> @ imm = #-4
    9ecc: ea000004     	b	0x9ee4 <fmt.Parser.number+0x220> @ imm = #16
    9ed0: e59f00f8     	ldr	r0, [pc, #248]          @ 0x9fd0 <$d.41+0x18>
    9ed4: e59f30f8     	ldr	r3, [pc, #248]          @ 0x9fd4 <$d.41+0x1c>
    9ed8: e3a01010     	mov	r1, #16
    9edc: e3a02000     	mov	r2, #0
    9ee0: ebfff8e4     	bl	0x8278 <builtin.default_panic> @ imm = #-7280
    9ee4: e59d000c     	ldr	r0, [sp, #12]
    9ee8: e55b1018     	ldrb	r1, [r11, #-24]
    9eec: e0901001     	adds	r1, r0, r1
    9ef0: e3a00000     	mov	r0, #0
    9ef4: e2a00000     	adc	r0, r0, #0
    9ef8: e50b1014     	str	r1, [r11, #-20]
    9efc: e54b0010     	strb	r0, [r11, #-16]
    9f00: e55b0010     	ldrb	r0, [r11, #-16]
    9f04: e3500000     	cmp	r0, #0
    9f08: 1a000001     	bne	0x9f14 <fmt.Parser.number+0x250> @ imm = #4
    9f0c: eaffffff     	b	0x9f10 <fmt.Parser.number+0x24c> @ imm = #-4
    9f10: ea000004     	b	0x9f28 <fmt.Parser.number+0x264> @ imm = #16
    9f14: e59f00bc     	ldr	r0, [pc, #188]          @ 0x9fd8 <$d.41+0x20>
    9f18: e59f30bc     	ldr	r3, [pc, #188]          @ 0x9fdc <$d.41+0x24>
    9f1c: e3a01010     	mov	r1, #16
    9f20: e3a02000     	mov	r2, #0
    9f24: ebfff8d3     	bl	0x8278 <builtin.default_panic> @ imm = #-7348
    9f28: e59d1008     	ldr	r1, [sp, #8]
    9f2c: e51b0014     	ldr	r0, [r11, #-20]
    9f30: e5810000     	str	r0, [r1]
    9f34: eaffffff     	b	0x9f38 <fmt.Parser.number+0x274> @ imm = #-4
    9f38: e59d0030     	ldr	r0, [sp, #48]
    9f3c: e50b000c     	str	r0, [r11, #-12]
    9f40: e51b100c     	ldr	r1, [r11, #-12]
    9f44: e5b10008     	ldr	r0, [r1, #8]!
    9f48: e58d1004     	str	r1, [sp, #4]
    9f4c: e2901001     	adds	r1, r0, #1
    9f50: e3a00000     	mov	r0, #0
    9f54: e2a00000     	adc	r0, r0, #0
    9f58: e50b1008     	str	r1, [r11, #-8]
    9f5c: e54b0004     	strb	r0, [r11, #-4]
    9f60: e55b0004     	ldrb	r0, [r11, #-4]
    9f64: e3500000     	cmp	r0, #0
    9f68: 1a000001     	bne	0x9f74 <fmt.Parser.number+0x2b0> @ imm = #4
    9f6c: eaffffff     	b	0x9f70 <fmt.Parser.number+0x2ac> @ imm = #-4
    9f70: ea000004     	b	0x9f88 <fmt.Parser.number+0x2c4> @ imm = #16
    9f74: e59f0064     	ldr	r0, [pc, #100]          @ 0x9fe0 <$d.41+0x28>
    9f78: e59f3064     	ldr	r3, [pc, #100]          @ 0x9fe4 <$d.41+0x2c>
    9f7c: e3a01010     	mov	r1, #16
    9f80: e3a02000     	mov	r2, #0
    9f84: ebfff8bb     	bl	0x8278 <builtin.default_panic> @ imm = #-7444
    9f88: e59d1004     	ldr	r1, [sp, #4]
    9f8c: e51b0008     	ldr	r0, [r11, #-8]
    9f90: e5810000     	str	r0, [r1]
    9f94: eaffffff     	b	0x9f98 <fmt.Parser.number+0x2d4> @ imm = #-4
    9f98: eaffff52     	b	0x9ce8 <fmt.Parser.number+0x24> @ imm = #-696
    9f9c: e51b102c     	ldr	r1, [r11, #-44]
    9fa0: e51b0028     	ldr	r0, [r11, #-40]
    9fa4: e51b2024     	ldr	r2, [r11, #-36]
    9fa8: e5812004     	str	r2, [r1, #4]
    9fac: e5810000     	str	r0, [r1]
    9fb0: e1a0d00b     	mov	sp, r11
    9fb4: e8bd8800     	pop	{r11, pc}

00009fb8 <$d.41>:
    9fb8: 0000cba0     	andeq	r12, r0, r0, lsr #23
    9fbc: 0000c7c0     	andeq	r12, r0, r0, asr #15
    9fc0: 0000ce98     	<unknown>
    9fc4: 0000c7c8     	andeq	r12, r0, r8, asr #15
    9fc8: 0000cbb9     	strheq	r12, [r0], -r9
    9fcc: 0000c7d0     	ldrdeq	r12, sp, [r0], -r0
    9fd0: 0000cea8     	andeq	r12, r0, r8, lsr #29
    9fd4: 0000c7d8     	ldrdeq	r12, sp, [r0], -r8
    9fd8: 0000ceb8     	strheq	r12, [r0], -r8
    9fdc: 0000c7e0     	andeq	r12, r0, r0, ror #15
    9fe0: 0000cec8     	andeq	r12, r0, r8, asr #29
    9fe4: 0000c7e8     	andeq	r12, r0, r8, ror #15

00009fe8 <fmt.Parser.char>:
    9fe8: e92d4800     	push	{r11, lr}
    9fec: e1a0b00d     	mov	r11, sp
    9ff0: e24dd030     	sub	sp, sp, #48
    9ff4: e58d1018     	str	r1, [sp, #24]
    9ff8: e1a01000     	mov	r1, r0
    9ffc: e59d0018     	ldr	r0, [sp, #24]
    a000: e50b1014     	str	r1, [r11, #-20]
    a004: e5901004     	ldr	r1, [r0, #4]
    a008: e5900008     	ldr	r0, [r0, #8]
    a00c: e1500001     	cmp	r0, r1
    a010: 2a00000b     	bhs	0xa044 <fmt.Parser.char+0x5c> @ imm = #44
    a014: eaffffff     	b	0xa018 <fmt.Parser.char+0x30> @ imm = #-4
    a018: e59d0018     	ldr	r0, [sp, #24]
    a01c: e5901000     	ldr	r1, [r0]
    a020: e58d100c     	str	r1, [sp, #12]
    a024: e5901004     	ldr	r1, [r0, #4]
    a028: e5900008     	ldr	r0, [r0, #8]
    a02c: e58d0010     	str	r0, [sp, #16]
    a030: e1a02001     	mov	r2, r1
    a034: e58d2014     	str	r2, [sp, #20]
    a038: e1500001     	cmp	r0, r1
    a03c: 3a000001     	blo	0xa048 <fmt.Parser.char+0x60> @ imm = #4
    a040: ea000001     	b	0xa04c <fmt.Parser.char+0x64> @ imm = #4
    a044: ea000027     	b	0xa0e8 <fmt.Parser.char+0x100> @ imm = #156
    a048: ea000002     	b	0xa058 <fmt.Parser.char+0x70> @ imm = #8
    a04c: e59d1014     	ldr	r1, [sp, #20]
    a050: e59d0010     	ldr	r0, [sp, #16]
    a054: ebfff84a     	bl	0x8184 <builtin.panicOutOfBounds> @ imm = #-7896
    a058: e59d0018     	ldr	r0, [sp, #24]
    a05c: e59d100c     	ldr	r1, [sp, #12]
    a060: e59d2010     	ldr	r2, [sp, #16]
    a064: e7d11002     	ldrb	r1, [r1, r2]
    a068: e58d1004     	str	r1, [sp, #4]
    a06c: e50b0010     	str	r0, [r11, #-16]
    a070: e51b1010     	ldr	r1, [r11, #-16]
    a074: e5b10008     	ldr	r0, [r1, #8]!
    a078: e58d1008     	str	r1, [sp, #8]
    a07c: e2901001     	adds	r1, r0, #1
    a080: e3a00000     	mov	r0, #0
    a084: e2a00000     	adc	r0, r0, #0
    a088: e50b100c     	str	r1, [r11, #-12]
    a08c: e54b0008     	strb	r0, [r11, #-8]
    a090: e55b0008     	ldrb	r0, [r11, #-8]
    a094: e3500000     	cmp	r0, #0
    a098: 1a000001     	bne	0xa0a4 <fmt.Parser.char+0xbc> @ imm = #4
    a09c: eaffffff     	b	0xa0a0 <fmt.Parser.char+0xb8> @ imm = #-4
    a0a0: ea000004     	b	0xa0b8 <fmt.Parser.char+0xd0> @ imm = #16
    a0a4: e59f0050     	ldr	r0, [pc, #80]           @ 0xa0fc <$d.43>
    a0a8: e59f3050     	ldr	r3, [pc, #80]           @ 0xa100 <$d.43+0x4>
    a0ac: e3a01010     	mov	r1, #16
    a0b0: e3a02000     	mov	r2, #0
    a0b4: ebfff86f     	bl	0x8278 <builtin.default_panic> @ imm = #-7748
    a0b8: e51b1014     	ldr	r1, [r11, #-20]
    a0bc: e59d0004     	ldr	r0, [sp, #4]
    a0c0: e59d3008     	ldr	r3, [sp, #8]
    a0c4: e51b200c     	ldr	r2, [r11, #-12]
    a0c8: e5832000     	str	r2, [r3]
    a0cc: e54b0004     	strb	r0, [r11, #-4]
    a0d0: e3a00001     	mov	r0, #1
    a0d4: e54b0003     	strb	r0, [r11, #-3]
    a0d8: e15b00b4     	ldrh	r0, [r11, #-4]
    a0dc: e1c100b0     	strh	r0, [r1]
    a0e0: e1a0d00b     	mov	sp, r11
    a0e4: e8bd8800     	pop	{r11, pc}
    a0e8: e51b1014     	ldr	r1, [r11, #-20]
    a0ec: e3a00000     	mov	r0, #0
    a0f0: e1c100b0     	strh	r0, [r1]
    a0f4: e1a0d00b     	mov	sp, r11
    a0f8: e8bd8800     	pop	{r11, pc}

0000a0fc <$d.43>:
    a0fc: 0000cef8     	strdeq	r12, sp, [r0], -r8
    a100: 0000c800     	andeq	r12, r0, r0, lsl #16

0000a104 <fmt.Parser.peek>:
    a104: e92d4800     	push	{r11, lr}
    a108: e1a0b00d     	mov	r11, sp
    a10c: e24dd030     	sub	sp, sp, #48
    a110: e58d2010     	str	r2, [sp, #16]
    a114: e58d1014     	str	r1, [sp, #20]
    a118: e58d0018     	str	r0, [sp, #24]
    a11c: e5910008     	ldr	r0, [r1, #8]
    a120: e0901002     	adds	r1, r0, r2
    a124: e3a00000     	mov	r0, #0
    a128: e2a00000     	adc	r0, r0, #0
    a12c: e50b1014     	str	r1, [r11, #-20]
    a130: e54b0010     	strb	r0, [r11, #-16]
    a134: e55b0010     	ldrb	r0, [r11, #-16]
    a138: e3500000     	cmp	r0, #0
    a13c: 1a000001     	bne	0xa148 <fmt.Parser.peek+0x44> @ imm = #4
    a140: eaffffff     	b	0xa144 <fmt.Parser.peek+0x40> @ imm = #-4
    a144: ea000004     	b	0xa15c <fmt.Parser.peek+0x58> @ imm = #16
    a148: e59f00ec     	ldr	r0, [pc, #236]          @ 0xa23c <$d.45>
    a14c: e59f30ec     	ldr	r3, [pc, #236]          @ 0xa240 <$d.45+0x4>
    a150: e3a01010     	mov	r1, #16
    a154: e3a02000     	mov	r2, #0
    a158: ebfff846     	bl	0x8278 <builtin.default_panic> @ imm = #-7912
    a15c: e59d1014     	ldr	r1, [sp, #20]
    a160: e51b0014     	ldr	r0, [r11, #-20]
    a164: e5911004     	ldr	r1, [r1, #4]
    a168: e1500001     	cmp	r0, r1
    a16c: 2a000010     	bhs	0xa1b4 <fmt.Parser.peek+0xb0> @ imm = #64
    a170: eaffffff     	b	0xa174 <fmt.Parser.peek+0x70> @ imm = #-4
    a174: e59d1010     	ldr	r1, [sp, #16]
    a178: e59d0014     	ldr	r0, [sp, #20]
    a17c: e5902000     	ldr	r2, [r0]
    a180: e58d2008     	str	r2, [sp, #8]
    a184: e5902004     	ldr	r2, [r0, #4]
    a188: e58d200c     	str	r2, [sp, #12]
    a18c: e5900008     	ldr	r0, [r0, #8]
    a190: e0901001     	adds	r1, r0, r1
    a194: e3a00000     	mov	r0, #0
    a198: e2a00000     	adc	r0, r0, #0
    a19c: e50b100c     	str	r1, [r11, #-12]
    a1a0: e54b0008     	strb	r0, [r11, #-8]
    a1a4: e55b0008     	ldrb	r0, [r11, #-8]
    a1a8: e3500000     	cmp	r0, #0
    a1ac: 0a000004     	beq	0xa1c4 <fmt.Parser.peek+0xc0> @ imm = #16
    a1b0: ea000004     	b	0xa1c8 <fmt.Parser.peek+0xc4> @ imm = #16
    a1b4: e59d1018     	ldr	r1, [sp, #24]
    a1b8: e3a00000     	mov	r0, #0
    a1bc: e1c100b0     	strh	r0, [r1]
    a1c0: ea00001b     	b	0xa234 <fmt.Parser.peek+0x130> @ imm = #108
    a1c4: ea000004     	b	0xa1dc <fmt.Parser.peek+0xd8> @ imm = #16
    a1c8: e59f0074     	ldr	r0, [pc, #116]          @ 0xa244 <$d.45+0x8>
    a1cc: e59f3074     	ldr	r3, [pc, #116]          @ 0xa248 <$d.45+0xc>
    a1d0: e3a01010     	mov	r1, #16
    a1d4: e3a02000     	mov	r2, #0
    a1d8: ebfff826     	bl	0x8278 <builtin.default_panic> @ imm = #-8040
    a1dc: e59d100c     	ldr	r1, [sp, #12]
    a1e0: e51b000c     	ldr	r0, [r11, #-12]
    a1e4: e58d0000     	str	r0, [sp]
    a1e8: e1a02001     	mov	r2, r1
    a1ec: e58d2004     	str	r2, [sp, #4]
    a1f0: e1500001     	cmp	r0, r1
    a1f4: 2a000001     	bhs	0xa200 <fmt.Parser.peek+0xfc> @ imm = #4
    a1f8: eaffffff     	b	0xa1fc <fmt.Parser.peek+0xf8> @ imm = #-4
    a1fc: ea000002     	b	0xa20c <fmt.Parser.peek+0x108> @ imm = #8
    a200: e59d1004     	ldr	r1, [sp, #4]
    a204: e59d0000     	ldr	r0, [sp]
    a208: ebfff7dd     	bl	0x8184 <builtin.panicOutOfBounds> @ imm = #-8332
    a20c: e59d1018     	ldr	r1, [sp, #24]
    a210: e59d0008     	ldr	r0, [sp, #8]
    a214: e59d2000     	ldr	r2, [sp]
    a218: e7d00002     	ldrb	r0, [r0, r2]
    a21c: e54b0004     	strb	r0, [r11, #-4]
    a220: e3a00001     	mov	r0, #1
    a224: e54b0003     	strb	r0, [r11, #-3]
    a228: e15b00b4     	ldrh	r0, [r11, #-4]
    a22c: e1c100b0     	strh	r0, [r1]
    a230: eaffffff     	b	0xa234 <fmt.Parser.peek+0x130> @ imm = #-4
    a234: e1a0d00b     	mov	sp, r11
    a238: e8bd8800     	pop	{r11, pc}

0000a23c <$d.45>:
    a23c: 0000cf08     	andeq	r12, r0, r8, lsl #30
    a240: 0000c808     	andeq	r12, r0, r8, lsl #16
    a244: 0000cf18     	andeq	r12, r0, r8, lsl pc
    a248: 0000c810     	andeq	r12, r0, r0, lsl r8

0000a24c <fmt.ArgState.nextArg>:
    a24c: e92d4800     	push	{r11, lr}
    a250: e1a0b00d     	mov	r11, sp
    a254: e24dd040     	sub	sp, sp, #64
    a258: e58d201c     	str	r2, [sp, #28]
    a25c: e58d1020     	str	r1, [sp, #32]
    a260: e50b001c     	str	r0, [r11, #-28]
    a264: e5d20004     	ldrb	r0, [r2, #4]
    a268: e3500000     	cmp	r0, #0
    a26c: 0a000004     	beq	0xa284 <fmt.ArgState.nextArg+0x38> @ imm = #16
    a270: eaffffff     	b	0xa274 <fmt.ArgState.nextArg+0x28> @ imm = #-4
    a274: e59d001c     	ldr	r0, [sp, #28]
    a278: e5900000     	ldr	r0, [r0]
    a27c: e58d0018     	str	r0, [sp, #24]
    a280: ea00001b     	b	0xa2f4 <fmt.ArgState.nextArg+0xa8> @ imm = #108
    a284: e59d0020     	ldr	r0, [sp, #32]
    a288: e5901000     	ldr	r1, [r0]
    a28c: e58d1010     	str	r1, [sp, #16]
    a290: e50b0018     	str	r0, [r11, #-24]
    a294: e51b0018     	ldr	r0, [r11, #-24]
    a298: e58d0014     	str	r0, [sp, #20]
    a29c: e5900000     	ldr	r0, [r0]
    a2a0: e2901001     	adds	r1, r0, #1
    a2a4: e3a00000     	mov	r0, #0
    a2a8: e2a00000     	adc	r0, r0, #0
    a2ac: e50b1014     	str	r1, [r11, #-20]
    a2b0: e54b0010     	strb	r0, [r11, #-16]
    a2b4: e55b0010     	ldrb	r0, [r11, #-16]
    a2b8: e3500000     	cmp	r0, #0
    a2bc: 1a000001     	bne	0xa2c8 <fmt.ArgState.nextArg+0x7c> @ imm = #4
    a2c0: eaffffff     	b	0xa2c4 <fmt.ArgState.nextArg+0x78> @ imm = #-4
    a2c4: ea000004     	b	0xa2dc <fmt.ArgState.nextArg+0x90> @ imm = #16
    a2c8: e59f00e0     	ldr	r0, [pc, #224]          @ 0xa3b0 <$d.47>
    a2cc: e59f30e0     	ldr	r3, [pc, #224]          @ 0xa3b4 <$d.47+0x4>
    a2d0: e3a01010     	mov	r1, #16
    a2d4: e3a02000     	mov	r2, #0
    a2d8: ebfff7e6     	bl	0x8278 <builtin.default_panic> @ imm = #-8296
    a2dc: e59d0010     	ldr	r0, [sp, #16]
    a2e0: e59d2014     	ldr	r2, [sp, #20]
    a2e4: e51b1014     	ldr	r1, [r11, #-20]
    a2e8: e5821000     	str	r1, [r2]
    a2ec: e58d0018     	str	r0, [sp, #24]
    a2f0: eaffffff     	b	0xa2f4 <fmt.ArgState.nextArg+0xa8> @ imm = #-4
    a2f4: e59d1020     	ldr	r1, [sp, #32]
    a2f8: e59d0018     	ldr	r0, [sp, #24]
    a2fc: e58d000c     	str	r0, [sp, #12]
    a300: e5911008     	ldr	r1, [r1, #8]
    a304: e1500001     	cmp	r0, r1
    a308: 3a000006     	blo	0xa328 <fmt.ArgState.nextArg+0xdc> @ imm = #24
    a30c: eaffffff     	b	0xa310 <fmt.ArgState.nextArg+0xc4> @ imm = #-4
    a310: e51b101c     	ldr	r1, [r11, #-28]
    a314: e3a00000     	mov	r0, #0
    a318: e5810004     	str	r0, [r1, #4]
    a31c: e5810000     	str	r0, [r1]
    a320: e1a0d00b     	mov	sp, r11
    a324: e8bd8800     	pop	{r11, pc}
    a328: eaffffff     	b	0xa32c <fmt.ArgState.nextArg+0xe0> @ imm = #-4
    a32c: e59d000c     	ldr	r0, [sp, #12]
    a330: e59d1020     	ldr	r1, [sp, #32]
    a334: e50b100c     	str	r1, [r11, #-12]
    a338: e51b200c     	ldr	r2, [r11, #-12]
    a33c: e5b21004     	ldr	r1, [r2, #4]!
    a340: e58d2004     	str	r2, [sp, #4]
    a344: e58d1008     	str	r1, [sp, #8]
    a348: e260001f     	rsb	r0, r0, #31
    a34c: e350001f     	cmp	r0, #31
    a350: 8a000001     	bhi	0xa35c <fmt.ArgState.nextArg+0x110> @ imm = #4
    a354: eaffffff     	b	0xa358 <fmt.ArgState.nextArg+0x10c> @ imm = #-4
    a358: ea000004     	b	0xa370 <fmt.ArgState.nextArg+0x124> @ imm = #16
    a35c: e59f0054     	ldr	r0, [pc, #84]           @ 0xa3b8 <$d.47+0x8>
    a360: e59f3054     	ldr	r3, [pc, #84]           @ 0xa3bc <$d.47+0xc>
    a364: e3a0101b     	mov	r1, #27
    a368: e3a02000     	mov	r2, #0
    a36c: ebfff7c1     	bl	0x8278 <builtin.default_panic> @ imm = #-8444
    a370: e51b101c     	ldr	r1, [r11, #-28]
    a374: e59d200c     	ldr	r2, [sp, #12]
    a378: e59dc004     	ldr	r12, [sp, #4]
    a37c: e59d3008     	ldr	r3, [sp, #8]
    a380: e202e01f     	and	lr, r2, #31
    a384: e3a00001     	mov	r0, #1
    a388: e1833e10     	orr	r3, r3, r0, lsl lr
    a38c: e58c3000     	str	r3, [r12]
    a390: e50b2008     	str	r2, [r11, #-8]
    a394: e54b0004     	strb	r0, [r11, #-4]
    a398: e51b0008     	ldr	r0, [r11, #-8]
    a39c: e51b2004     	ldr	r2, [r11, #-4]
    a3a0: e5812004     	str	r2, [r1, #4]
    a3a4: e5810000     	str	r0, [r1]
    a3a8: e1a0d00b     	mov	sp, r11
    a3ac: e8bd8800     	pop	{r11, pc}

0000a3b0 <$d.47>:
    a3b0: 0000cf28     	andeq	r12, r0, r8, lsr #30
    a3b4: 0000c818     	andeq	r12, r0, r8, lsl r8
    a3b8: 0000cbd6     	ldrdeq	r12, sp, [r0], -r6
    a3bc: 0000c828     	andeq	r12, r0, r8, lsr #16

0000a3c0 <fmt.formatValue__anon_1681>:
    a3c0: e92d4800     	push	{r11, lr}
    a3c4: e1a0b00d     	mov	r11, sp
    a3c8: e24dd008     	sub	sp, sp, #8
    a3cc: e58d0000     	str	r0, [sp]
    a3d0: eb00000c     	bl	0xa408 <fmt.formatIntValue__anon_1685> @ imm = #48
    a3d4: e14b00b2     	strh	r0, [r11, #-2]
    a3d8: e15b00b2     	ldrh	r0, [r11, #-2]
    a3dc: e3500000     	cmp	r0, #0
    a3e0: 1a000003     	bne	0xa3f4 <fmt.formatValue__anon_1681+0x34> @ imm = #12
    a3e4: eaffffff     	b	0xa3e8 <fmt.formatValue__anon_1681+0x28> @ imm = #-4
    a3e8: e15b00b2     	ldrh	r0, [r11, #-2]
    a3ec: e1a0d00b     	mov	sp, r11
    a3f0: e8bd8800     	pop	{r11, pc}
    a3f4: e59d0000     	ldr	r0, [sp]
    a3f8: ebfff8d8     	bl	0x8760 <builtin.returnError> @ imm = #-7328
    a3fc: e15b00b2     	ldrh	r0, [r11, #-2]
    a400: e1a0d00b     	mov	sp, r11
    a404: e8bd8800     	pop	{r11, pc}

0000a408 <fmt.formatIntValue__anon_1685>:
    a408: e92d4800     	push	{r11, lr}
    a40c: e1a0b00d     	mov	r11, sp
    a410: e24dd010     	sub	sp, sp, #16
    a414: e1a0c003     	mov	r12, r3
    a418: e58d0008     	str	r0, [sp, #8]
    a41c: e1a0300d     	mov	r3, sp
    a420: e583c004     	str	r12, [r3, #4]
    a424: e5832000     	str	r2, [r3]
    a428: e3a0200a     	mov	r2, #10
    a42c: e3a03000     	mov	r3, #0
    a430: eb00000c     	bl	0xa468 <fmt.formatInt__anon_1691> @ imm = #48
    a434: e14b00b2     	strh	r0, [r11, #-2]
    a438: e15b00b2     	ldrh	r0, [r11, #-2]
    a43c: e3500000     	cmp	r0, #0
    a440: 1a000003     	bne	0xa454 <fmt.formatIntValue__anon_1685+0x4c> @ imm = #12
    a444: eaffffff     	b	0xa448 <fmt.formatIntValue__anon_1685+0x40> @ imm = #-4
    a448: e15b00b2     	ldrh	r0, [r11, #-2]
    a44c: e1a0d00b     	mov	sp, r11
    a450: e8bd8800     	pop	{r11, pc}
    a454: e59d0008     	ldr	r0, [sp, #8]
    a458: ebfff8c0     	bl	0x8760 <builtin.returnError> @ imm = #-7424
    a45c: e15b00b2     	ldrh	r0, [r11, #-2]
    a460: e1a0d00b     	mov	sp, r11
    a464: e8bd8800     	pop	{r11, pc}

0000a468 <fmt.formatInt__anon_1691>:
    a468: e92d4800     	push	{r11, lr}
    a46c: e1a0b00d     	mov	r11, sp
    a470: e24dd098     	sub	sp, sp, #152
    a474: e58d1044     	str	r1, [sp, #68]
    a478: e58d0030     	str	r0, [sp, #48]
    a47c: e6ef1072     	<unknown>
    a480: e59b000c     	ldr	r0, [r11, #12]
    a484: e58d0034     	str	r0, [sp, #52]
    a488: e59b0008     	ldr	r0, [r11, #8]
    a48c: e58d0038     	str	r0, [sp, #56]
    a490: e58d303c     	str	r3, [sp, #60]
    a494: e58d2040     	str	r2, [sp, #64]
    a498: e3a00000     	mov	r0, #0
    a49c: e3510001     	cmp	r1, #1
    a4a0: 83a00001     	movhi	r0, #1
    a4a4: ebfffb18     	bl	0x910c <debug.assert>   @ imm = #-5024
    a4a8: e59d0044     	ldr	r0, [sp, #68]
    a4ac: eb0000b2     	bl	0xa77c <math.absCast__anon_1693> @ imm = #712
    a4b0: e58d0048     	str	r0, [sp, #72]
    a4b4: e24b0045     	sub	r0, r11, #69
    a4b8: e3a01021     	mov	r1, #33
    a4bc: e58d104c     	str	r1, [sp, #76]
    a4c0: e3a020aa     	mov	r2, #170
    a4c4: eb00088b     	bl	0xc6f8 <__aeabi_memset> @ imm = #8748
    a4c8: e59d1048     	ldr	r1, [sp, #72]
    a4cc: e59d004c     	ldr	r0, [sp, #76]
    a4d0: e50b1024     	str	r1, [r11, #-36]
    a4d4: e50b0020     	str	r0, [r11, #-32]
    a4d8: eaffffff     	b	0xa4dc <fmt.formatInt__anon_1691+0x74> @ imm = #-4
    a4dc: e59d0040     	ldr	r0, [sp, #64]
    a4e0: e51b1024     	ldr	r1, [r11, #-36]
    a4e4: e58d1028     	str	r1, [sp, #40]
    a4e8: e6ef0070     	<unknown>
    a4ec: e1a01000     	mov	r1, r0
    a4f0: e58d102c     	str	r1, [sp, #44]
    a4f4: e3500000     	cmp	r0, #0
    a4f8: 0a000001     	beq	0xa504 <fmt.formatInt__anon_1691+0x9c> @ imm = #4
    a4fc: eaffffff     	b	0xa500 <fmt.formatInt__anon_1691+0x98> @ imm = #-4
    a500: ea000004     	b	0xa518 <fmt.formatInt__anon_1691+0xb0> @ imm = #16
    a504: e59f0248     	ldr	r0, [pc, #584]          @ 0xa754 <$d.49>
    a508: e59f3248     	ldr	r3, [pc, #584]          @ 0xa758 <$d.49+0x4>
    a50c: e3a01010     	mov	r1, #16
    a510: e3a02000     	mov	r2, #0
    a514: ebfff757     	bl	0x8278 <builtin.default_panic> @ imm = #-8868
    a518: e59d102c     	ldr	r1, [sp, #44]
    a51c: e59d0028     	ldr	r0, [sp, #40]
    a520: eb00086d     	bl	0xc6dc <__aeabi_uidivmod> @ imm = #8628
    a524: e58d1024     	str	r1, [sp, #36]
    a528: e51b0020     	ldr	r0, [r11, #-32]
    a52c: e2501001     	subs	r1, r0, #1
    a530: e3a00000     	mov	r0, #0
    a534: e2a00000     	adc	r0, r0, #0
    a538: e2200001     	eor	r0, r0, #1
    a53c: e50b101c     	str	r1, [r11, #-28]
    a540: e54b0018     	strb	r0, [r11, #-24]
    a544: e55b0018     	ldrb	r0, [r11, #-24]
    a548: e3500000     	cmp	r0, #0
    a54c: 1a000001     	bne	0xa558 <fmt.formatInt__anon_1691+0xf0> @ imm = #4
    a550: eaffffff     	b	0xa554 <fmt.formatInt__anon_1691+0xec> @ imm = #-4
    a554: ea000004     	b	0xa56c <fmt.formatInt__anon_1691+0x104> @ imm = #16
    a558: e59f01fc     	ldr	r0, [pc, #508]          @ 0xa75c <$d.49+0x8>
    a55c: e59f31fc     	ldr	r3, [pc, #508]          @ 0xa760 <$d.49+0xc>
    a560: e3a01010     	mov	r1, #16
    a564: e3a02000     	mov	r2, #0
    a568: ebfff742     	bl	0x8278 <builtin.default_panic> @ imm = #-8952
    a56c: e51b001c     	ldr	r0, [r11, #-28]
    a570: e50b0020     	str	r0, [r11, #-32]
    a574: e51b0020     	ldr	r0, [r11, #-32]
    a578: e58d0020     	str	r0, [sp, #32]
    a57c: e3500020     	cmp	r0, #32
    a580: 8a000001     	bhi	0xa58c <fmt.formatInt__anon_1691+0x124> @ imm = #4
    a584: eaffffff     	b	0xa588 <fmt.formatInt__anon_1691+0x120> @ imm = #-4
    a588: ea000002     	b	0xa598 <fmt.formatInt__anon_1691+0x130> @ imm = #8
    a58c: e59d0020     	ldr	r0, [sp, #32]
    a590: e3a01021     	mov	r1, #33
    a594: ebfff6fa     	bl	0x8184 <builtin.panicOutOfBounds> @ imm = #-9240
    a598: e59d0024     	ldr	r0, [sp, #36]
    a59c: e59d2020     	ldr	r2, [sp, #32]
    a5a0: e24b1045     	sub	r1, r11, #69
    a5a4: e0811002     	add	r1, r1, r2
    a5a8: e58d101c     	str	r1, [sp, #28]
    a5ac: e26000ff     	rsb	r0, r0, #255
    a5b0: e35000ff     	cmp	r0, #255
    a5b4: 8a000001     	bhi	0xa5c0 <fmt.formatInt__anon_1691+0x158> @ imm = #4
    a5b8: eaffffff     	b	0xa5bc <fmt.formatInt__anon_1691+0x154> @ imm = #-4
    a5bc: ea000004     	b	0xa5d4 <fmt.formatInt__anon_1691+0x16c> @ imm = #16
    a5c0: e59f019c     	ldr	r0, [pc, #412]          @ 0xa764 <$d.49+0x10>
    a5c4: e59f319c     	ldr	r3, [pc, #412]          @ 0xa768 <$d.49+0x14>
    a5c8: e3a0101b     	mov	r1, #27
    a5cc: e3a02000     	mov	r2, #0
    a5d0: ebfff728     	bl	0x8278 <builtin.default_panic> @ imm = #-9056
    a5d4: e59d103c     	ldr	r1, [sp, #60]
    a5d8: e59d0024     	ldr	r0, [sp, #36]
    a5dc: eb000067     	bl	0xa780 <fmt.digitToChar> @ imm = #412
    a5e0: e59d201c     	ldr	r2, [sp, #28]
    a5e4: e1a01000     	mov	r1, r0
    a5e8: e59d0040     	ldr	r0, [sp, #64]
    a5ec: e5c21000     	strb	r1, [r2]
    a5f0: e51b1024     	ldr	r1, [r11, #-36]
    a5f4: e58d1014     	str	r1, [sp, #20]
    a5f8: e6ef0070     	<unknown>
    a5fc: e1a01000     	mov	r1, r0
    a600: e58d1018     	str	r1, [sp, #24]
    a604: e3500000     	cmp	r0, #0
    a608: 0a000001     	beq	0xa614 <fmt.formatInt__anon_1691+0x1ac> @ imm = #4
    a60c: eaffffff     	b	0xa610 <fmt.formatInt__anon_1691+0x1a8> @ imm = #-4
    a610: ea000004     	b	0xa628 <fmt.formatInt__anon_1691+0x1c0> @ imm = #16
    a614: e59f0150     	ldr	r0, [pc, #336]          @ 0xa76c <$d.49+0x18>
    a618: e59f3150     	ldr	r3, [pc, #336]          @ 0xa770 <$d.49+0x1c>
    a61c: e3a01010     	mov	r1, #16
    a620: e3a02000     	mov	r2, #0
    a624: ebfff713     	bl	0x8278 <builtin.default_panic> @ imm = #-9140
    a628: e59d1018     	ldr	r1, [sp, #24]
    a62c: e59d0014     	ldr	r0, [sp, #20]
    a630: eb0007db     	bl	0xc5a4 <__aeabi_uidiv>  @ imm = #8044
    a634: e50b0024     	str	r0, [r11, #-36]
    a638: e51b0024     	ldr	r0, [r11, #-36]
    a63c: e3500000     	cmp	r0, #0
    a640: 1a000001     	bne	0xa64c <fmt.formatInt__anon_1691+0x1e4> @ imm = #4
    a644: eaffffff     	b	0xa648 <fmt.formatInt__anon_1691+0x1e0> @ imm = #-4
    a648: ea000001     	b	0xa654 <fmt.formatInt__anon_1691+0x1ec> @ imm = #4
    a64c: eaffffff     	b	0xa650 <fmt.formatInt__anon_1691+0x1e8> @ imm = #-4
    a650: eaffffa1     	b	0xa4dc <fmt.formatInt__anon_1691+0x74> @ imm = #-380
    a654: e51b0020     	ldr	r0, [r11, #-32]
    a658: e58d000c     	str	r0, [sp, #12]
    a65c: e24b1045     	sub	r1, r11, #69
    a660: e0811000     	add	r1, r1, r0
    a664: e58d1010     	str	r1, [sp, #16]
    a668: e2701021     	rsbs	r1, r0, #33
    a66c: e3a00000     	mov	r0, #0
    a670: e2a00000     	adc	r0, r0, #0
    a674: e2200001     	eor	r0, r0, #1
    a678: e50b1010     	str	r1, [r11, #-16]
    a67c: e54b000c     	strb	r0, [r11, #-12]
    a680: e55b000c     	ldrb	r0, [r11, #-12]
    a684: e3500000     	cmp	r0, #0
    a688: 1a000001     	bne	0xa694 <fmt.formatInt__anon_1691+0x22c> @ imm = #4
    a68c: eaffffff     	b	0xa690 <fmt.formatInt__anon_1691+0x228> @ imm = #-4
    a690: ea000004     	b	0xa6a8 <fmt.formatInt__anon_1691+0x240> @ imm = #16
    a694: e59f00d8     	ldr	r0, [pc, #216]          @ 0xa774 <$d.49+0x20>
    a698: e59f30d8     	ldr	r3, [pc, #216]          @ 0xa778 <$d.49+0x24>
    a69c: e3a01010     	mov	r1, #16
    a6a0: e3a02000     	mov	r2, #0
    a6a4: ebfff6f3     	bl	0x8278 <builtin.default_panic> @ imm = #-9268
    a6a8: e51b0010     	ldr	r0, [r11, #-16]
    a6ac: e58d0008     	str	r0, [sp, #8]
    a6b0: e3a00000     	mov	r0, #0
    a6b4: e3500000     	cmp	r0, #0
    a6b8: 1a000001     	bne	0xa6c4 <fmt.formatInt__anon_1691+0x25c> @ imm = #4
    a6bc: eaffffff     	b	0xa6c0 <fmt.formatInt__anon_1691+0x258> @ imm = #-4
    a6c0: ea000002     	b	0xa6d0 <fmt.formatInt__anon_1691+0x268> @ imm = #8
    a6c4: e3a01021     	mov	r1, #33
    a6c8: e1a00001     	mov	r0, r1
    a6cc: ebfff6ac     	bl	0x8184 <builtin.panicOutOfBounds> @ imm = #-9552
    a6d0: e59d000c     	ldr	r0, [sp, #12]
    a6d4: e3500021     	cmp	r0, #33
    a6d8: 8a000001     	bhi	0xa6e4 <fmt.formatInt__anon_1691+0x27c> @ imm = #4
    a6dc: eaffffff     	b	0xa6e0 <fmt.formatInt__anon_1691+0x278> @ imm = #-4
    a6e0: ea000002     	b	0xa6f0 <fmt.formatInt__anon_1691+0x288> @ imm = #8
    a6e4: e59d000c     	ldr	r0, [sp, #12]
    a6e8: e3a01021     	mov	r1, #33
    a6ec: ebfff6a4     	bl	0x8184 <builtin.panicOutOfBounds> @ imm = #-9584
    a6f0: e59d3038     	ldr	r3, [sp, #56]
    a6f4: e59d0030     	ldr	r0, [sp, #48]
    a6f8: e59dc034     	ldr	r12, [sp, #52]
    a6fc: e59d1010     	ldr	r1, [sp, #16]
    a700: e59d2008     	ldr	r2, [sp, #8]
    a704: e50b2004     	str	r2, [r11, #-4]
    a708: e50b1008     	str	r1, [r11, #-8]
    a70c: e51b1008     	ldr	r1, [r11, #-8]
    a710: e51b2004     	ldr	r2, [r11, #-4]
    a714: e1a0e00d     	mov	lr, sp
    a718: e58ec000     	str	r12, [lr]
    a71c: eb000085     	bl	0xa938 <fmt.formatBuf__anon_1700> @ imm = #532
    a720: e14b01b2     	strh	r0, [r11, #-18]
    a724: e15b01b2     	ldrh	r0, [r11, #-18]
    a728: e3500000     	cmp	r0, #0
    a72c: 1a000003     	bne	0xa740 <fmt.formatInt__anon_1691+0x2d8> @ imm = #12
    a730: eaffffff     	b	0xa734 <fmt.formatInt__anon_1691+0x2cc> @ imm = #-4
    a734: e15b01b2     	ldrh	r0, [r11, #-18]
    a738: e1a0d00b     	mov	sp, r11
    a73c: e8bd8800     	pop	{r11, pc}
    a740: e59d0030     	ldr	r0, [sp, #48]
    a744: ebfff805     	bl	0x8760 <builtin.returnError> @ imm = #-8172
    a748: e15b01b2     	ldrh	r0, [r11, #-18]
    a74c: e1a0d00b     	mov	sp, r11
    a750: e8bd8800     	pop	{r11, pc}

0000a754 <$d.49>:
    a754: 0000cf38     	andeq	r12, r0, r8, lsr pc
    a758: 0000c830     	andeq	r12, r0, r0, lsr r8
    a75c: 0000cf48     	andeq	r12, r0, r8, asr #30
    a760: 0000c838     	andeq	r12, r0, r8, lsr r8
    a764: 0000cbf3     	strdeq	r12, sp, [r0], -r3
    a768: 0000c840     	andeq	r12, r0, r0, asr #16
    a76c: 0000cf58     	andeq	r12, r0, r8, asr pc
    a770: 0000c848     	andeq	r12, r0, r8, asr #16
    a774: 0000cf68     	andeq	r12, r0, r8, ror #30
    a778: 0000c850     	andeq	r12, r0, r0, asr r8

0000a77c <math.absCast__anon_1693>:
    a77c: e12fff1e     	<unknown>

0000a780 <fmt.digitToChar>:
    a780: e92d4800     	push	{r11, lr}
    a784: e1a0b00d     	mov	r11, sp
    a788: e24dd020     	sub	sp, sp, #32
    a78c: e58d1008     	str	r1, [sp, #8]
    a790: e58d000c     	str	r0, [sp, #12]
    a794: e3a00000     	mov	r0, #0
    a798: e3500000     	cmp	r0, #0
    a79c: 1a000011     	bne	0xa7e8 <fmt.digitToChar+0x68> @ imm = #68
    a7a0: eaffffff     	b	0xa7a4 <fmt.digitToChar+0x24> @ imm = #-4
    a7a4: e59d000c     	ldr	r0, [sp, #12]
    a7a8: e6ef0070     	<unknown>
    a7ac: e3500009     	cmp	r0, #9
    a7b0: 8a00000c     	bhi	0xa7e8 <fmt.digitToChar+0x68> @ imm = #48
    a7b4: eaffffff     	b	0xa7b8 <fmt.digitToChar+0x38> @ imm = #-4
    a7b8: e59d100c     	ldr	r1, [sp, #12]
    a7bc: e3a00030     	mov	r0, #48
    a7c0: e6e01071     	<unknown>
    a7c4: e6ef0071     	<unknown>
    a7c8: e0500001     	subs	r0, r0, r1
    a7cc: 13a00001     	movne	r0, #1
    a7d0: e54b100c     	strb	r1, [r11, #-12]
    a7d4: e54b000b     	strb	r0, [r11, #-11]
    a7d8: e55b000b     	ldrb	r0, [r11, #-11]
    a7dc: e3500000     	cmp	r0, #0
    a7e0: 0a00000a     	beq	0xa810 <fmt.digitToChar+0x90> @ imm = #40
    a7e4: ea00000a     	b	0xa814 <fmt.digitToChar+0x94> @ imm = #40
    a7e8: e59d000c     	ldr	r0, [sp, #12]
    a7ec: e6ef0070     	<unknown>
    a7f0: e350000a     	cmp	r0, #10
    a7f4: 3a000012     	blo	0xa844 <fmt.digitToChar+0xc4> @ imm = #72
    a7f8: eaffffff     	b	0xa7fc <fmt.digitToChar+0x7c> @ imm = #-4
    a7fc: e59d000c     	ldr	r0, [sp, #12]
    a800: e6ef0070     	<unknown>
    a804: e3500024     	cmp	r0, #36
    a808: 3a000009     	blo	0xa834 <fmt.digitToChar+0xb4> @ imm = #36
    a80c: ea00000c     	b	0xa844 <fmt.digitToChar+0xc4> @ imm = #48
    a810: ea000004     	b	0xa828 <fmt.digitToChar+0xa8> @ imm = #16
    a814: e59f0114     	ldr	r0, [pc, #276]          @ 0xa930 <$d.51+0x18>
    a818: e59f3114     	ldr	r3, [pc, #276]          @ 0xa934 <$d.51+0x1c>
    a81c: e3a01010     	mov	r1, #16
    a820: e3a02000     	mov	r2, #0
    a824: ebfff693     	bl	0x8278 <builtin.default_panic> @ imm = #-9652
    a828: e55b000c     	ldrb	r0, [r11, #-12]
    a82c: e54b000d     	strb	r0, [r11, #-13]
    a830: ea000035     	b	0xa90c <fmt.digitToChar+0x18c> @ imm = #212
    a834: e59d0008     	ldr	r0, [sp, #8]
    a838: e3100001     	tst	r0, #1
    a83c: 1a000005     	bne	0xa858 <fmt.digitToChar+0xd8> @ imm = #20
    a840: ea000007     	b	0xa864 <fmt.digitToChar+0xe4> @ imm = #28
    a844: e59f00cc     	ldr	r0, [pc, #204]          @ 0xa918 <$d.51>
    a848: e59f30cc     	ldr	r3, [pc, #204]          @ 0xa91c <$d.51+0x4>
    a84c: e3a01018     	mov	r1, #24
    a850: e3a02000     	mov	r2, #0
    a854: ebfff687     	bl	0x8278 <builtin.default_panic> @ imm = #-9700
    a858: e3a00041     	mov	r0, #65
    a85c: e58d0004     	str	r0, [sp, #4]
    a860: ea000002     	b	0xa870 <fmt.digitToChar+0xf0> @ imm = #8
    a864: e3a00061     	mov	r0, #97
    a868: e58d0004     	str	r0, [sp, #4]
    a86c: eaffffff     	b	0xa870 <fmt.digitToChar+0xf0> @ imm = #-4
    a870: e59d1004     	ldr	r1, [sp, #4]
    a874: e3e00009     	mvn	r0, #9
    a878: e6e01071     	<unknown>
    a87c: e6ef0071     	<unknown>
    a880: e0500001     	subs	r0, r0, r1
    a884: 13a00001     	movne	r0, #1
    a888: e54b1008     	strb	r1, [r11, #-8]
    a88c: e54b0007     	strb	r0, [r11, #-7]
    a890: e55b0007     	ldrb	r0, [r11, #-7]
    a894: e3500000     	cmp	r0, #0
    a898: 1a000001     	bne	0xa8a4 <fmt.digitToChar+0x124> @ imm = #4
    a89c: eaffffff     	b	0xa8a0 <fmt.digitToChar+0x120> @ imm = #-4
    a8a0: ea000004     	b	0xa8b8 <fmt.digitToChar+0x138> @ imm = #16
    a8a4: e59f0074     	ldr	r0, [pc, #116]          @ 0xa920 <$d.51+0x8>
    a8a8: e59f3074     	ldr	r3, [pc, #116]          @ 0xa924 <$d.51+0xc>
    a8ac: e3a01010     	mov	r1, #16
    a8b0: e3a02000     	mov	r2, #0
    a8b4: ebfff66f     	bl	0x8278 <builtin.default_panic> @ imm = #-9796
    a8b8: e59d100c     	ldr	r1, [sp, #12]
    a8bc: e55b0008     	ldrb	r0, [r11, #-8]
    a8c0: e6e01071     	<unknown>
    a8c4: e6ef0071     	<unknown>
    a8c8: e0500001     	subs	r0, r0, r1
    a8cc: 13a00001     	movne	r0, #1
    a8d0: e54b1004     	strb	r1, [r11, #-4]
    a8d4: e54b0003     	strb	r0, [r11, #-3]
    a8d8: e55b0003     	ldrb	r0, [r11, #-3]
    a8dc: e3500000     	cmp	r0, #0
    a8e0: 1a000001     	bne	0xa8ec <fmt.digitToChar+0x16c> @ imm = #4
    a8e4: eaffffff     	b	0xa8e8 <fmt.digitToChar+0x168> @ imm = #-4
    a8e8: ea000004     	b	0xa900 <fmt.digitToChar+0x180> @ imm = #16
    a8ec: e59f0034     	ldr	r0, [pc, #52]           @ 0xa928 <$d.51+0x10>
    a8f0: e59f3034     	ldr	r3, [pc, #52]           @ 0xa92c <$d.51+0x14>
    a8f4: e3a01010     	mov	r1, #16
    a8f8: e3a02000     	mov	r2, #0
    a8fc: ebfff65d     	bl	0x8278 <builtin.default_panic> @ imm = #-9868
    a900: e55b0004     	ldrb	r0, [r11, #-4]
    a904: e54b000d     	strb	r0, [r11, #-13]
    a908: eaffffff     	b	0xa90c <fmt.digitToChar+0x18c> @ imm = #-4
    a90c: e55b000d     	ldrb	r0, [r11, #-13]
    a910: e1a0d00b     	mov	sp, r11
    a914: e8bd8800     	pop	{r11, pc}

0000a918 <$d.51>:
    a918: 0000cc45     	andeq	r12, r0, r5, asr #24
    a91c: 0000c8d8     	ldrdeq	r12, sp, [r0], -r8
    a920: 0000d038     	andeq	sp, r0, r8, lsr r0
    a924: 0000c8c8     	andeq	r12, r0, r8, asr #17
    a928: 0000d048     	andeq	sp, r0, r8, asr #32
    a92c: 0000c8d0     	ldrdeq	r12, sp, [r0], -r0
    a930: 0000d028     	andeq	sp, r0, r8, lsr #32
    a934: 0000c8c0     	andeq	r12, r0, r0, asr #17

0000a938 <fmt.formatBuf__anon_1700>:
    a938: e92d4800     	push	{r11, lr}
    a93c: e1a0b00d     	mov	r11, sp
    a940: e24dd0a0     	sub	sp, sp, #160
    a944: e58d3040     	str	r3, [sp, #64]
    a948: e58d0044     	str	r0, [sp, #68]
    a94c: e59bc008     	ldr	r12, [r11, #8]
    a950: e58dc048     	str	r12, [sp, #72]
    a954: e58d204c     	str	r2, [sp, #76]
    a958: e58d1050     	str	r1, [sp, #80]
    a95c: e5900000     	ldr	r0, [r0]
    a960: e50b004c     	str	r0, [r11, #-76]
    a964: e5930008     	ldr	r0, [r3, #8]
    a968: e593100c     	ldr	r1, [r3, #12]
    a96c: e50b1044     	str	r1, [r11, #-68]
    a970: e50b0048     	str	r0, [r11, #-72]
    a974: e55b0044     	ldrb	r0, [r11, #-68]
    a978: e3500000     	cmp	r0, #0
    a97c: 0a00000b     	beq	0xa9b0 <fmt.formatBuf__anon_1700+0x78> @ imm = #44
    a980: eaffffff     	b	0xa984 <fmt.formatBuf__anon_1700+0x4c> @ imm = #-4
    a984: e59d304c     	ldr	r3, [sp, #76]
    a988: e59d2050     	ldr	r2, [sp, #80]
    a98c: e59d1044     	ldr	r1, [sp, #68]
    a990: e51b0048     	ldr	r0, [r11, #-72]
    a994: e58d003c     	str	r0, [sp, #60]
    a998: e24b0040     	sub	r0, r11, #64
    a99c: eb000175     	bl	0xaf78 <unicode.utf8CountCodepoints> @ imm = #1492
    a9a0: e15b03bc     	ldrh	r0, [r11, #-60]
    a9a4: e3500000     	cmp	r0, #0
    a9a8: 0a00000f     	beq	0xa9ec <fmt.formatBuf__anon_1700+0xb4> @ imm = #60
    a9ac: ea000011     	b	0xa9f8 <fmt.formatBuf__anon_1700+0xc0> @ imm = #68
    a9b0: e59d304c     	ldr	r3, [sp, #76]
    a9b4: e59d2050     	ldr	r2, [sp, #80]
    a9b8: e59d0044     	ldr	r0, [sp, #68]
    a9bc: e59d1048     	ldr	r1, [sp, #72]
    a9c0: e5911000     	ldr	r1, [r1]
    a9c4: e50b1004     	str	r1, [r11, #-4]
    a9c8: e24b1004     	sub	r1, r11, #4
    a9cc: ebfff90c     	bl	0x8e04 <io.writer.Writer(*io.fixed_buffer_stream.FixedBufferStream([]u8),error{NoSpaceLeft},(function 'write')).writeAll> @ imm = #-7120
    a9d0: e1a01000     	mov	r1, r0
    a9d4: e58d1038     	str	r1, [sp, #56]
    a9d8: e3a010ff     	mov	r1, #255
    a9dc: e3811cff     	orr	r1, r1, #65280
    a9e0: e1100001     	tst	r0, r1
    a9e4: 1a000100     	bne	0xadec <fmt.formatBuf__anon_1700+0x4b4> @ imm = #1024
    a9e8: ea000104     	b	0xae00 <fmt.formatBuf__anon_1700+0x4c8> @ imm = #1040
    a9ec: e51b0040     	ldr	r0, [r11, #-64]
    a9f0: e58d0034     	str	r0, [sp, #52]
    a9f4: ea000005     	b	0xaa10 <fmt.formatBuf__anon_1700+0xd8> @ imm = #20
    a9f8: e51b104c     	ldr	r1, [r11, #-76]
    a9fc: e59d2044     	ldr	r2, [sp, #68]
    aa00: e59d004c     	ldr	r0, [sp, #76]
    aa04: e5821000     	str	r1, [r2]
    aa08: e58d0034     	str	r0, [sp, #52]
    aa0c: eaffffff     	b	0xaa10 <fmt.formatBuf__anon_1700+0xd8> @ imm = #-4
    aa10: e59d103c     	ldr	r1, [sp, #60]
    aa14: e59d0034     	ldr	r0, [sp, #52]
    aa18: e58d0030     	str	r0, [sp, #48]
    aa1c: e1500001     	cmp	r0, r1
    aa20: 2a00000c     	bhs	0xaa58 <fmt.formatBuf__anon_1700+0x120> @ imm = #48
    aa24: eaffffff     	b	0xaa28 <fmt.formatBuf__anon_1700+0xf0> @ imm = #-4
    aa28: e59d003c     	ldr	r0, [sp, #60]
    aa2c: e59d1030     	ldr	r1, [sp, #48]
    aa30: e0501001     	subs	r1, r0, r1
    aa34: e3a00000     	mov	r0, #0
    aa38: e2a00000     	adc	r0, r0, #0
    aa3c: e2200001     	eor	r0, r0, #1
    aa40: e50b1038     	str	r1, [r11, #-56]
    aa44: e54b0034     	strb	r0, [r11, #-52]
    aa48: e55b0034     	ldrb	r0, [r11, #-52]
    aa4c: e3500000     	cmp	r0, #0
    aa50: 0a000003     	beq	0xaa64 <fmt.formatBuf__anon_1700+0x12c> @ imm = #12
    aa54: ea000003     	b	0xaa68 <fmt.formatBuf__anon_1700+0x130> @ imm = #12
    aa58: e3a00000     	mov	r0, #0
    aa5c: e58d002c     	str	r0, [sp, #44]
    aa60: ea000008     	b	0xaa88 <fmt.formatBuf__anon_1700+0x150> @ imm = #32
    aa64: ea000004     	b	0xaa7c <fmt.formatBuf__anon_1700+0x144> @ imm = #16
    aa68: e59f03a0     	ldr	r0, [pc, #928]          @ 0xae10 <$d.53>
    aa6c: e59f33a0     	ldr	r3, [pc, #928]          @ 0xae14 <$d.53+0x4>
    aa70: e3a01010     	mov	r1, #16
    aa74: e3a02000     	mov	r2, #0
    aa78: ebfff5fe     	bl	0x8278 <builtin.default_panic> @ imm = #-10248
    aa7c: e51b0038     	ldr	r0, [r11, #-56]
    aa80: e58d002c     	str	r0, [sp, #44]
    aa84: eaffffff     	b	0xaa88 <fmt.formatBuf__anon_1700+0x150> @ imm = #-4
    aa88: e59d002c     	ldr	r0, [sp, #44]
    aa8c: e58d0028     	str	r0, [sp, #40]
    aa90: e3500000     	cmp	r0, #0
    aa94: 1a00000d     	bne	0xaad0 <fmt.formatBuf__anon_1700+0x198> @ imm = #52
    aa98: eaffffff     	b	0xaa9c <fmt.formatBuf__anon_1700+0x164> @ imm = #-4
    aa9c: e59d304c     	ldr	r3, [sp, #76]
    aaa0: e59d2050     	ldr	r2, [sp, #80]
    aaa4: e59d0044     	ldr	r0, [sp, #68]
    aaa8: e59d1048     	ldr	r1, [sp, #72]
    aaac: e5911000     	ldr	r1, [r1]
    aab0: e50b102c     	str	r1, [r11, #-44]
    aab4: e24b102c     	sub	r1, r11, #44
    aab8: ebfff8d1     	bl	0x8e04 <io.writer.Writer(*io.fixed_buffer_stream.FixedBufferStream([]u8),error{NoSpaceLeft},(function 'write')).writeAll> @ imm = #-7356
    aabc: e14b02be     	strh	r0, [r11, #-46]
    aac0: e15b02be     	ldrh	r0, [r11, #-46]
    aac4: e3500000     	cmp	r0, #0
    aac8: 0a000001     	beq	0xaad4 <fmt.formatBuf__anon_1700+0x19c> @ imm = #4
    aacc: ea000003     	b	0xaae0 <fmt.formatBuf__anon_1700+0x1a8> @ imm = #12
    aad0: ea000007     	b	0xaaf4 <fmt.formatBuf__anon_1700+0x1bc> @ imm = #28
    aad4: e15b02be     	ldrh	r0, [r11, #-46]
    aad8: e1a0d00b     	mov	sp, r11
    aadc: e8bd8800     	pop	{r11, pc}
    aae0: e59d0044     	ldr	r0, [sp, #68]
    aae4: ebfff71d     	bl	0x8760 <builtin.returnError> @ imm = #-9100
    aae8: e15b02be     	ldrh	r0, [r11, #-46]
    aaec: e1a0d00b     	mov	sp, r11
    aaf0: e8bd8800     	pop	{r11, pc}
    aaf4: e59d0040     	ldr	r0, [sp, #64]
    aaf8: e5d00010     	ldrb	r0, [r0, #16]
    aafc: e1a01000     	mov	r1, r0
    ab00: e58d1024     	str	r1, [sp, #36]
    ab04: e3500002     	cmp	r0, #2
    ab08: 0a00008c     	beq	0xad40 <fmt.formatBuf__anon_1700+0x408> @ imm = #560
    ab0c: eaffffff     	b	0xab10 <fmt.formatBuf__anon_1700+0x1d8> @ imm = #-4
    ab10: e59d0024     	ldr	r0, [sp, #36]
    ab14: e3100003     	tst	r0, #3
    ab18: 0a00000a     	beq	0xab48 <fmt.formatBuf__anon_1700+0x210> @ imm = #40
    ab1c: eaffffff     	b	0xab20 <fmt.formatBuf__anon_1700+0x1e8> @ imm = #-4
    ab20: e59d0024     	ldr	r0, [sp, #36]
    ab24: e2000003     	and	r0, r0, #3
    ab28: e3500001     	cmp	r0, #1
    ab2c: 0a00002f     	beq	0xabf0 <fmt.formatBuf__anon_1700+0x2b8> @ imm = #188
    ab30: eaffffff     	b	0xab34 <fmt.formatBuf__anon_1700+0x1fc> @ imm = #-4
    ab34: e59f02e4     	ldr	r0, [pc, #740]          @ 0xae20 <$d.53+0x10>
    ab38: e59f32e4     	ldr	r3, [pc, #740]          @ 0xae24 <$d.53+0x14>
    ab3c: e3a01017     	mov	r1, #23
    ab40: e3a02000     	mov	r2, #0
    ab44: ebfff5cb     	bl	0x8278 <builtin.default_panic> @ imm = #-10452
    ab48: e59d304c     	ldr	r3, [sp, #76]
    ab4c: e59d2050     	ldr	r2, [sp, #80]
    ab50: e59d0044     	ldr	r0, [sp, #68]
    ab54: e59d1048     	ldr	r1, [sp, #72]
    ab58: e5911000     	ldr	r1, [r1]
    ab5c: e50b1028     	str	r1, [r11, #-40]
    ab60: e24b1028     	sub	r1, r11, #40
    ab64: ebfff8a6     	bl	0x8e04 <io.writer.Writer(*io.fixed_buffer_stream.FixedBufferStream([]u8),error{NoSpaceLeft},(function 'write')).writeAll> @ imm = #-7528
    ab68: e1a01000     	mov	r1, r0
    ab6c: e58d1020     	str	r1, [sp, #32]
    ab70: e3a010ff     	mov	r1, #255
    ab74: e3811cff     	orr	r1, r1, #65280
    ab78: e1100001     	tst	r0, r1
    ab7c: 0a000005     	beq	0xab98 <fmt.formatBuf__anon_1700+0x260> @ imm = #20
    ab80: eaffffff     	b	0xab84 <fmt.formatBuf__anon_1700+0x24c> @ imm = #-4
    ab84: e59d0044     	ldr	r0, [sp, #68]
    ab88: ebfff6f4     	bl	0x8760 <builtin.returnError> @ imm = #-9264
    ab8c: e59d0020     	ldr	r0, [sp, #32]
    ab90: e1a0d00b     	mov	sp, r11
    ab94: e8bd8800     	pop	{r11, pc}
    ab98: e59d3028     	ldr	r3, [sp, #40]
    ab9c: e59d0044     	ldr	r0, [sp, #68]
    aba0: e59d1040     	ldr	r1, [sp, #64]
    aba4: e59d2048     	ldr	r2, [sp, #72]
    aba8: e5922000     	ldr	r2, [r2]
    abac: e50b2024     	str	r2, [r11, #-36]
    abb0: e5d12011     	ldrb	r2, [r1, #17]
    abb4: e24b1024     	sub	r1, r11, #36
    abb8: eb0002e4     	bl	0xb750 <io.writer.Writer(*io.fixed_buffer_stream.FixedBufferStream([]u8),error{NoSpaceLeft},(function 'write')).writeByteNTimes> @ imm = #2960
    abbc: e1a01000     	mov	r1, r0
    abc0: e58d101c     	str	r1, [sp, #28]
    abc4: e3a010ff     	mov	r1, #255
    abc8: e3811cff     	orr	r1, r1, #65280
    abcc: e1100001     	tst	r0, r1
    abd0: 0a000005     	beq	0xabec <fmt.formatBuf__anon_1700+0x2b4> @ imm = #20
    abd4: eaffffff     	b	0xabd8 <fmt.formatBuf__anon_1700+0x2a0> @ imm = #-4
    abd8: e59d0044     	ldr	r0, [sp, #68]
    abdc: ebfff6df     	bl	0x8760 <builtin.returnError> @ imm = #-9348
    abe0: e59d001c     	ldr	r0, [sp, #28]
    abe4: e1a0d00b     	mov	sp, r11
    abe8: e8bd8800     	pop	{r11, pc}
    abec: ea00007d     	b	0xade8 <fmt.formatBuf__anon_1700+0x4b0> @ imm = #500
    abf0: e59d0028     	ldr	r0, [sp, #40]
    abf4: e1a010a0     	lsr	r1, r0, #1
    abf8: e58d1018     	str	r1, [sp, #24]
    abfc: e2901001     	adds	r1, r0, #1
    ac00: e3a00000     	mov	r0, #0
    ac04: e2a00000     	adc	r0, r0, #0
    ac08: e50b1020     	str	r1, [r11, #-32]
    ac0c: e54b001c     	strb	r0, [r11, #-28]
    ac10: e55b001c     	ldrb	r0, [r11, #-28]
    ac14: e3500000     	cmp	r0, #0
    ac18: 1a000001     	bne	0xac24 <fmt.formatBuf__anon_1700+0x2ec> @ imm = #4
    ac1c: eaffffff     	b	0xac20 <fmt.formatBuf__anon_1700+0x2e8> @ imm = #-4
    ac20: ea000004     	b	0xac38 <fmt.formatBuf__anon_1700+0x300> @ imm = #16
    ac24: e59f01ec     	ldr	r0, [pc, #492]          @ 0xae18 <$d.53+0x8>
    ac28: e59f31ec     	ldr	r3, [pc, #492]          @ 0xae1c <$d.53+0xc>
    ac2c: e3a01010     	mov	r1, #16
    ac30: e3a02000     	mov	r2, #0
    ac34: ebfff58f     	bl	0x8278 <builtin.default_panic> @ imm = #-10692
    ac38: e59d3018     	ldr	r3, [sp, #24]
    ac3c: e59d0044     	ldr	r0, [sp, #68]
    ac40: e59d1040     	ldr	r1, [sp, #64]
    ac44: e59d2048     	ldr	r2, [sp, #72]
    ac48: e51bc020     	ldr	r12, [r11, #-32]
    ac4c: e1a0c0ac     	lsr	r12, r12, #1
    ac50: e58dc010     	str	r12, [sp, #16]
    ac54: e5922000     	ldr	r2, [r2]
    ac58: e50b2018     	str	r2, [r11, #-24]
    ac5c: e5d12011     	ldrb	r2, [r1, #17]
    ac60: e24b1018     	sub	r1, r11, #24
    ac64: eb0002b9     	bl	0xb750 <io.writer.Writer(*io.fixed_buffer_stream.FixedBufferStream([]u8),error{NoSpaceLeft},(function 'write')).writeByteNTimes> @ imm = #2788
    ac68: e1a01000     	mov	r1, r0
    ac6c: e58d1014     	str	r1, [sp, #20]
    ac70: e3a010ff     	mov	r1, #255
    ac74: e3811cff     	orr	r1, r1, #65280
    ac78: e1100001     	tst	r0, r1
    ac7c: 0a000005     	beq	0xac98 <fmt.formatBuf__anon_1700+0x360> @ imm = #20
    ac80: eaffffff     	b	0xac84 <fmt.formatBuf__anon_1700+0x34c> @ imm = #-4
    ac84: e59d0044     	ldr	r0, [sp, #68]
    ac88: ebfff6b4     	bl	0x8760 <builtin.returnError> @ imm = #-9520
    ac8c: e59d0014     	ldr	r0, [sp, #20]
    ac90: e1a0d00b     	mov	sp, r11
    ac94: e8bd8800     	pop	{r11, pc}
    ac98: e59d304c     	ldr	r3, [sp, #76]
    ac9c: e59d2050     	ldr	r2, [sp, #80]
    aca0: e59d0044     	ldr	r0, [sp, #68]
    aca4: e59d1048     	ldr	r1, [sp, #72]
    aca8: e5911000     	ldr	r1, [r1]
    acac: e50b1014     	str	r1, [r11, #-20]
    acb0: e24b1014     	sub	r1, r11, #20
    acb4: ebfff852     	bl	0x8e04 <io.writer.Writer(*io.fixed_buffer_stream.FixedBufferStream([]u8),error{NoSpaceLeft},(function 'write')).writeAll> @ imm = #-7864
    acb8: e1a01000     	mov	r1, r0
    acbc: e58d100c     	str	r1, [sp, #12]
    acc0: e3a010ff     	mov	r1, #255
    acc4: e3811cff     	orr	r1, r1, #65280
    acc8: e1100001     	tst	r0, r1
    accc: 0a000005     	beq	0xace8 <fmt.formatBuf__anon_1700+0x3b0> @ imm = #20
    acd0: eaffffff     	b	0xacd4 <fmt.formatBuf__anon_1700+0x39c> @ imm = #-4
    acd4: e59d0044     	ldr	r0, [sp, #68]
    acd8: ebfff6a0     	bl	0x8760 <builtin.returnError> @ imm = #-9600
    acdc: e59d000c     	ldr	r0, [sp, #12]
    ace0: e1a0d00b     	mov	sp, r11
    ace4: e8bd8800     	pop	{r11, pc}
    ace8: e59d3010     	ldr	r3, [sp, #16]
    acec: e59d0044     	ldr	r0, [sp, #68]
    acf0: e59d1040     	ldr	r1, [sp, #64]
    acf4: e59d2048     	ldr	r2, [sp, #72]
    acf8: e5922000     	ldr	r2, [r2]
    acfc: e50b2010     	str	r2, [r11, #-16]
    ad00: e5d12011     	ldrb	r2, [r1, #17]
    ad04: e24b1010     	sub	r1, r11, #16
    ad08: eb000290     	bl	0xb750 <io.writer.Writer(*io.fixed_buffer_stream.FixedBufferStream([]u8),error{NoSpaceLeft},(function 'write')).writeByteNTimes> @ imm = #2624
    ad0c: e1a01000     	mov	r1, r0
    ad10: e58d1008     	str	r1, [sp, #8]
    ad14: e3a010ff     	mov	r1, #255
    ad18: e3811cff     	orr	r1, r1, #65280
    ad1c: e1100001     	tst	r0, r1
    ad20: 0a000005     	beq	0xad3c <fmt.formatBuf__anon_1700+0x404> @ imm = #20
    ad24: eaffffff     	b	0xad28 <fmt.formatBuf__anon_1700+0x3f0> @ imm = #-4
    ad28: e59d0044     	ldr	r0, [sp, #68]
    ad2c: ebfff68b     	bl	0x8760 <builtin.returnError> @ imm = #-9684
    ad30: e59d0008     	ldr	r0, [sp, #8]
    ad34: e1a0d00b     	mov	sp, r11
    ad38: e8bd8800     	pop	{r11, pc}
    ad3c: ea000029     	b	0xade8 <fmt.formatBuf__anon_1700+0x4b0> @ imm = #164
    ad40: e59d3028     	ldr	r3, [sp, #40]
    ad44: e59d0044     	ldr	r0, [sp, #68]
    ad48: e59d1040     	ldr	r1, [sp, #64]
    ad4c: e59d2048     	ldr	r2, [sp, #72]
    ad50: e5922000     	ldr	r2, [r2]
    ad54: e50b200c     	str	r2, [r11, #-12]
    ad58: e5d12011     	ldrb	r2, [r1, #17]
    ad5c: e24b100c     	sub	r1, r11, #12
    ad60: eb00027a     	bl	0xb750 <io.writer.Writer(*io.fixed_buffer_stream.FixedBufferStream([]u8),error{NoSpaceLeft},(function 'write')).writeByteNTimes> @ imm = #2536
    ad64: e1a01000     	mov	r1, r0
    ad68: e58d1004     	str	r1, [sp, #4]
    ad6c: e3a010ff     	mov	r1, #255
    ad70: e3811cff     	orr	r1, r1, #65280
    ad74: e1100001     	tst	r0, r1
    ad78: 0a000005     	beq	0xad94 <fmt.formatBuf__anon_1700+0x45c> @ imm = #20
    ad7c: eaffffff     	b	0xad80 <fmt.formatBuf__anon_1700+0x448> @ imm = #-4
    ad80: e59d0044     	ldr	r0, [sp, #68]
    ad84: ebfff675     	bl	0x8760 <builtin.returnError> @ imm = #-9772
    ad88: e59d0004     	ldr	r0, [sp, #4]
    ad8c: e1a0d00b     	mov	sp, r11
    ad90: e8bd8800     	pop	{r11, pc}
    ad94: e59d304c     	ldr	r3, [sp, #76]
    ad98: e59d2050     	ldr	r2, [sp, #80]
    ad9c: e59d0044     	ldr	r0, [sp, #68]
    ada0: e59d1048     	ldr	r1, [sp, #72]
    ada4: e5911000     	ldr	r1, [r1]
    ada8: e50b1008     	str	r1, [r11, #-8]
    adac: e24b1008     	sub	r1, r11, #8
    adb0: ebfff813     	bl	0x8e04 <io.writer.Writer(*io.fixed_buffer_stream.FixedBufferStream([]u8),error{NoSpaceLeft},(function 'write')).writeAll> @ imm = #-8116
    adb4: e1a01000     	mov	r1, r0
    adb8: e58d1000     	str	r1, [sp]
    adbc: e3a010ff     	mov	r1, #255
    adc0: e3811cff     	orr	r1, r1, #65280
    adc4: e1100001     	tst	r0, r1
    adc8: 0a000005     	beq	0xade4 <fmt.formatBuf__anon_1700+0x4ac> @ imm = #20
    adcc: eaffffff     	b	0xadd0 <fmt.formatBuf__anon_1700+0x498> @ imm = #-4
    add0: e59d0044     	ldr	r0, [sp, #68]
    add4: ebfff661     	bl	0x8760 <builtin.returnError> @ imm = #-9852
    add8: e59d0000     	ldr	r0, [sp]
    addc: e1a0d00b     	mov	sp, r11
    ade0: e8bd8800     	pop	{r11, pc}
    ade4: eaffffff     	b	0xade8 <fmt.formatBuf__anon_1700+0x4b0> @ imm = #-4
    ade8: ea000005     	b	0xae04 <fmt.formatBuf__anon_1700+0x4cc> @ imm = #20
    adec: e59d0044     	ldr	r0, [sp, #68]
    adf0: ebfff65a     	bl	0x8760 <builtin.returnError> @ imm = #-9880
    adf4: e59d0038     	ldr	r0, [sp, #56]
    adf8: e1a0d00b     	mov	sp, r11
    adfc: e8bd8800     	pop	{r11, pc}
    ae00: eaffffff     	b	0xae04 <fmt.formatBuf__anon_1700+0x4cc> @ imm = #-4
    ae04: e3a00000     	mov	r0, #0
    ae08: e1a0d00b     	mov	sp, r11
    ae0c: e8bd8800     	pop	{r11, pc}

0000ae10 <$d.53>:
    ae10: 0000d008     	andeq	sp, r0, r8
    ae14: 0000c8a8     	andeq	r12, r0, r8, lsr #17
    ae18: 0000d018     	andeq	sp, r0, r8, lsl r0
    ae1c: 0000c8b0     	strheq	r12, [r0], -r0
    ae20: 0000cc0e     	andeq	r12, r0, lr, lsl #24
    ae24: 0000c8b8     	strheq	r12, [r0], -r8

0000ae28 <unicode.utf8ByteSequenceLength>:
    ae28: e92d4800     	push	{r11, lr}
    ae2c: e1a0b00d     	mov	r11, sp
    ae30: e24dd010     	sub	sp, sp, #16
    ae34: e58d1004     	str	r1, [sp, #4]
    ae38: e58d0008     	str	r0, [sp, #8]
    ae3c: e50b2004     	str	r2, [r11, #-4]
    ae40: e3a00000     	mov	r0, #0
    ae44: e3500000     	cmp	r0, #0
    ae48: 1a00000a     	bne	0xae78 <unicode.utf8ByteSequenceLength+0x50> @ imm = #40
    ae4c: eaffffff     	b	0xae50 <unicode.utf8ByteSequenceLength+0x28> @ imm = #-4
    ae50: e51b0004     	ldr	r0, [r11, #-4]
    ae54: e6af0070     	<unknown>
    ae58: e3500000     	cmp	r0, #0
    ae5c: 4a000005     	bmi	0xae78 <unicode.utf8ByteSequenceLength+0x50> @ imm = #20
    ae60: eaffffff     	b	0xae64 <unicode.utf8ByteSequenceLength+0x3c> @ imm = #-4
    ae64: e59d1008     	ldr	r1, [sp, #8]
    ae68: e59f0104     	ldr	r0, [pc, #260]          @ 0xaf74 <$d.55+0xc>
    ae6c: e5900000     	ldr	r0, [r0]
    ae70: e5810000     	str	r0, [r1]
    ae74: ea000030     	b	0xaf3c <unicode.utf8ByteSequenceLength+0x114> @ imm = #192
    ae78: e51b0004     	ldr	r0, [r11, #-4]
    ae7c: e6ef0070     	<unknown>
    ae80: e35000c0     	cmp	r0, #192
    ae84: 3a00000a     	blo	0xaeb4 <unicode.utf8ByteSequenceLength+0x8c> @ imm = #40
    ae88: eaffffff     	b	0xae8c <unicode.utf8ByteSequenceLength+0x64> @ imm = #-4
    ae8c: e51b0004     	ldr	r0, [r11, #-4]
    ae90: e6ef0070     	<unknown>
    ae94: e35000df     	cmp	r0, #223
    ae98: 8a000005     	bhi	0xaeb4 <unicode.utf8ByteSequenceLength+0x8c> @ imm = #20
    ae9c: eaffffff     	b	0xaea0 <unicode.utf8ByteSequenceLength+0x78> @ imm = #-4
    aea0: e59d1008     	ldr	r1, [sp, #8]
    aea4: e59f00c4     	ldr	r0, [pc, #196]          @ 0xaf70 <$d.55+0x8>
    aea8: e5900000     	ldr	r0, [r0]
    aeac: e5810000     	str	r0, [r1]
    aeb0: ea000021     	b	0xaf3c <unicode.utf8ByteSequenceLength+0x114> @ imm = #132
    aeb4: e51b0004     	ldr	r0, [r11, #-4]
    aeb8: e6ef0070     	<unknown>
    aebc: e35000e0     	cmp	r0, #224
    aec0: 3a00000a     	blo	0xaef0 <unicode.utf8ByteSequenceLength+0xc8> @ imm = #40
    aec4: eaffffff     	b	0xaec8 <unicode.utf8ByteSequenceLength+0xa0> @ imm = #-4
    aec8: e51b0004     	ldr	r0, [r11, #-4]
    aecc: e6ef0070     	<unknown>
    aed0: e35000ef     	cmp	r0, #239
    aed4: 8a000005     	bhi	0xaef0 <unicode.utf8ByteSequenceLength+0xc8> @ imm = #20
    aed8: eaffffff     	b	0xaedc <unicode.utf8ByteSequenceLength+0xb4> @ imm = #-4
    aedc: e59d1008     	ldr	r1, [sp, #8]
    aee0: e59f0084     	ldr	r0, [pc, #132]          @ 0xaf6c <$d.55+0x4>
    aee4: e5900000     	ldr	r0, [r0]
    aee8: e5810000     	str	r0, [r1]
    aeec: ea000012     	b	0xaf3c <unicode.utf8ByteSequenceLength+0x114> @ imm = #72
    aef0: e51b0004     	ldr	r0, [r11, #-4]
    aef4: e6ef0070     	<unknown>
    aef8: e35000f0     	cmp	r0, #240
    aefc: 3a00000a     	blo	0xaf2c <unicode.utf8ByteSequenceLength+0x104> @ imm = #40
    af00: eaffffff     	b	0xaf04 <unicode.utf8ByteSequenceLength+0xdc> @ imm = #-4
    af04: e51b0004     	ldr	r0, [r11, #-4]
    af08: e6ef0070     	<unknown>
    af0c: e35000f7     	cmp	r0, #247
    af10: 8a000005     	bhi	0xaf2c <unicode.utf8ByteSequenceLength+0x104> @ imm = #20
    af14: eaffffff     	b	0xaf18 <unicode.utf8ByteSequenceLength+0xf0> @ imm = #-4
    af18: e59d1008     	ldr	r1, [sp, #8]
    af1c: e59f0044     	ldr	r0, [pc, #68]           @ 0xaf68 <$d.55>
    af20: e5900000     	ldr	r0, [r0]
    af24: e5810000     	str	r0, [r1]
    af28: ea000003     	b	0xaf3c <unicode.utf8ByteSequenceLength+0x114> @ imm = #12
    af2c: e59d1008     	ldr	r1, [sp, #8]
    af30: e3a00005     	mov	r0, #5
    af34: e5810000     	str	r0, [r1]
    af38: eaffffff     	b	0xaf3c <unicode.utf8ByteSequenceLength+0x114> @ imm = #-4
    af3c: e59d0008     	ldr	r0, [sp, #8]
    af40: e1d000b0     	ldrh	r0, [r0]
    af44: e3500000     	cmp	r0, #0
    af48: 1a000002     	bne	0xaf58 <unicode.utf8ByteSequenceLength+0x130> @ imm = #8
    af4c: eaffffff     	b	0xaf50 <unicode.utf8ByteSequenceLength+0x128> @ imm = #-4
    af50: e1a0d00b     	mov	sp, r11
    af54: e8bd8800     	pop	{r11, pc}
    af58: e59d0004     	ldr	r0, [sp, #4]
    af5c: ebfff5ff     	bl	0x8760 <builtin.returnError> @ imm = #-10244
    af60: e1a0d00b     	mov	sp, r11
    af64: e8bd8800     	pop	{r11, pc}

0000af68 <$d.55>:
    af68: 0000d1cc     	andeq	sp, r0, r12, asr #3
    af6c: 0000d1c8     	andeq	sp, r0, r8, asr #3
    af70: 0000d1c4     	andeq	sp, r0, r4, asr #3
    af74: 0000d1c0     	andeq	sp, r0, r0, asr #3

0000af78 <unicode.utf8CountCodepoints>:
    af78: e92d4800     	push	{r11, lr}
    af7c: e1a0b00d     	mov	r11, sp
    af80: e24dd0e0     	sub	sp, sp, #224
    af84: e58d1044     	str	r1, [sp, #68]
    af88: e58d0048     	str	r0, [sp, #72]
    af8c: e58d304c     	str	r3, [sp, #76]
    af90: e58d2050     	str	r2, [sp, #80]
    af94: e3a00000     	mov	r0, #0
    af98: e58d0054     	str	r0, [sp, #84]
    af9c: e58d0058     	str	r0, [sp, #88]
    afa0: eaffffff     	b	0xafa4 <unicode.utf8CountCodepoints+0x2c> @ imm = #-4
    afa4: e59d104c     	ldr	r1, [sp, #76]
    afa8: e59d0058     	ldr	r0, [sp, #88]
    afac: e1500001     	cmp	r0, r1
    afb0: 2a000001     	bhs	0xafbc <unicode.utf8CountCodepoints+0x44> @ imm = #4
    afb4: eaffffff     	b	0xafb8 <unicode.utf8CountCodepoints+0x40> @ imm = #-4
    afb8: ea000000     	b	0xafc0 <unicode.utf8CountCodepoints+0x48> @ imm = #0
    afbc: ea000157     	b	0xb520 <unicode.utf8CountCodepoints+0x5a8> @ imm = #1372
    afc0: e59d0058     	ldr	r0, [sp, #88]
    afc4: e2901004     	adds	r1, r0, #4
    afc8: e3a00000     	mov	r0, #0
    afcc: e2a00000     	adc	r0, r0, #0
    afd0: e58d105c     	str	r1, [sp, #92]
    afd4: e5cd0060     	strb	r0, [sp, #96]
    afd8: e5dd0060     	ldrb	r0, [sp, #96]
    afdc: e3500000     	cmp	r0, #0
    afe0: 1a000001     	bne	0xafec <unicode.utf8CountCodepoints+0x74> @ imm = #4
    afe4: eaffffff     	b	0xafe8 <unicode.utf8CountCodepoints+0x70> @ imm = #-4
    afe8: ea000004     	b	0xb000 <unicode.utf8CountCodepoints+0x88> @ imm = #16
    afec: e59f0558     	ldr	r0, [pc, #1368]         @ 0xb54c <$d.57>
    aff0: e59f3558     	ldr	r3, [pc, #1368]         @ 0xb550 <$d.57+0x4>
    aff4: e3a01010     	mov	r1, #16
    aff8: e3a02000     	mov	r2, #0
    affc: ebfff49d     	bl	0x8278 <builtin.default_panic> @ imm = #-11660
    b000: e59d104c     	ldr	r1, [sp, #76]
    b004: e59d005c     	ldr	r0, [sp, #92]
    b008: e1500001     	cmp	r0, r1
    b00c: 8a000017     	bhi	0xb070 <unicode.utf8CountCodepoints+0xf8> @ imm = #92
    b010: eaffffff     	b	0xb014 <unicode.utf8CountCodepoints+0x9c> @ imm = #-4
    b014: e59d004c     	ldr	r0, [sp, #76]
    b018: e59d1050     	ldr	r1, [sp, #80]
    b01c: e58d1064     	str	r1, [sp, #100]
    b020: e58d0068     	str	r0, [sp, #104]
    b024: e59d1058     	ldr	r1, [sp, #88]
    b028: e58d1034     	str	r1, [sp, #52]
    b02c: e59d2064     	ldr	r2, [sp, #100]
    b030: e59d0068     	ldr	r0, [sp, #104]
    b034: e58d0038     	str	r0, [sp, #56]
    b038: e0822001     	add	r2, r2, r1
    b03c: e58d203c     	str	r2, [sp, #60]
    b040: e1a02000     	mov	r2, r0
    b044: e58d2040     	str	r2, [sp, #64]
    b048: e0501001     	subs	r1, r0, r1
    b04c: e3a00000     	mov	r0, #0
    b050: e2a00000     	adc	r0, r0, #0
    b054: e2200001     	eor	r0, r0, #1
    b058: e58d106c     	str	r1, [sp, #108]
    b05c: e5cd0070     	strb	r0, [sp, #112]
    b060: e5dd0070     	ldrb	r0, [sp, #112]
    b064: e3500000     	cmp	r0, #0
    b068: 0a000001     	beq	0xb074 <unicode.utf8CountCodepoints+0xfc> @ imm = #4
    b06c: ea000001     	b	0xb078 <unicode.utf8CountCodepoints+0x100> @ imm = #4
    b070: ea000058     	b	0xb1d8 <unicode.utf8CountCodepoints+0x260> @ imm = #352
    b074: ea000004     	b	0xb08c <unicode.utf8CountCodepoints+0x114> @ imm = #16
    b078: e59f04d4     	ldr	r0, [pc, #1236]         @ 0xb554 <$d.57+0x8>
    b07c: e59f34d4     	ldr	r3, [pc, #1236]         @ 0xb558 <$d.57+0xc>
    b080: e3a01010     	mov	r1, #16
    b084: e3a02000     	mov	r2, #0
    b088: ebfff47a     	bl	0x8278 <builtin.default_panic> @ imm = #-11800
    b08c: e59d0040     	ldr	r0, [sp, #64]
    b090: e59d1038     	ldr	r1, [sp, #56]
    b094: e59d206c     	ldr	r2, [sp, #108]
    b098: e58d202c     	str	r2, [sp, #44]
    b09c: e1a02001     	mov	r2, r1
    b0a0: e58d2030     	str	r2, [sp, #48]
    b0a4: e1500001     	cmp	r0, r1
    b0a8: 8a000001     	bhi	0xb0b4 <unicode.utf8CountCodepoints+0x13c> @ imm = #4
    b0ac: eaffffff     	b	0xb0b0 <unicode.utf8CountCodepoints+0x138> @ imm = #-4
    b0b0: ea000002     	b	0xb0c0 <unicode.utf8CountCodepoints+0x148> @ imm = #8
    b0b4: e59d1030     	ldr	r1, [sp, #48]
    b0b8: e59d0040     	ldr	r0, [sp, #64]
    b0bc: ebfff430     	bl	0x8184 <builtin.panicOutOfBounds> @ imm = #-12096
    b0c0: e59d0034     	ldr	r0, [sp, #52]
    b0c4: e59d1040     	ldr	r1, [sp, #64]
    b0c8: e1500001     	cmp	r0, r1
    b0cc: 8a000001     	bhi	0xb0d8 <unicode.utf8CountCodepoints+0x160> @ imm = #4
    b0d0: eaffffff     	b	0xb0d4 <unicode.utf8CountCodepoints+0x15c> @ imm = #-4
    b0d4: ea000002     	b	0xb0e4 <unicode.utf8CountCodepoints+0x16c> @ imm = #8
    b0d8: e59d1040     	ldr	r1, [sp, #64]
    b0dc: e59d0034     	ldr	r0, [sp, #52]
    b0e0: ebfff427     	bl	0x8184 <builtin.panicOutOfBounds> @ imm = #-12132
    b0e4: e59d003c     	ldr	r0, [sp, #60]
    b0e8: e59d102c     	ldr	r1, [sp, #44]
    b0ec: e50b1068     	str	r1, [r11, #-104]
    b0f0: e50b006c     	str	r0, [r11, #-108]
    b0f4: e51b006c     	ldr	r0, [r11, #-108]
    b0f8: e58d0024     	str	r0, [sp, #36]
    b0fc: e51b0068     	ldr	r0, [r11, #-104]
    b100: e58d0028     	str	r0, [sp, #40]
    b104: e3500004     	cmp	r0, #4
    b108: 3a000001     	blo	0xb114 <unicode.utf8CountCodepoints+0x19c> @ imm = #4
    b10c: eaffffff     	b	0xb110 <unicode.utf8CountCodepoints+0x198> @ imm = #-4
    b110: ea000002     	b	0xb120 <unicode.utf8CountCodepoints+0x1a8> @ imm = #8
    b114: e59d1028     	ldr	r1, [sp, #40]
    b118: e3a00004     	mov	r0, #4
    b11c: ebfff418     	bl	0x8184 <builtin.panicOutOfBounds> @ imm = #-12192
    b120: e59d0024     	ldr	r0, [sp, #36]
    b124: eb00011b     	bl	0xb598 <mem.readIntNative__anon_1776> @ imm = #1132
    b128: e59f142c     	ldr	r1, [pc, #1068]         @ 0xb55c <$d.57+0x10>
    b12c: e1100001     	tst	r0, r1
    b130: 0a000001     	beq	0xb13c <unicode.utf8CountCodepoints+0x1c4> @ imm = #4
    b134: eaffffff     	b	0xb138 <unicode.utf8CountCodepoints+0x1c0> @ imm = #-4
    b138: ea000026     	b	0xb1d8 <unicode.utf8CountCodepoints+0x260> @ imm = #152
    b13c: eaffffff     	b	0xb140 <unicode.utf8CountCodepoints+0x1c8> @ imm = #-4
    b140: e59d0054     	ldr	r0, [sp, #84]
    b144: e2901004     	adds	r1, r0, #4
    b148: e3a00000     	mov	r0, #0
    b14c: e2a00000     	adc	r0, r0, #0
    b150: e50b1064     	str	r1, [r11, #-100]
    b154: e54b0060     	strb	r0, [r11, #-96]
    b158: e55b0060     	ldrb	r0, [r11, #-96]
    b15c: e3500000     	cmp	r0, #0
    b160: 1a000001     	bne	0xb16c <unicode.utf8CountCodepoints+0x1f4> @ imm = #4
    b164: eaffffff     	b	0xb168 <unicode.utf8CountCodepoints+0x1f0> @ imm = #-4
    b168: ea000004     	b	0xb180 <unicode.utf8CountCodepoints+0x208> @ imm = #16
    b16c: e59f03ec     	ldr	r0, [pc, #1004]         @ 0xb560 <$d.57+0x14>
    b170: e59f33ec     	ldr	r3, [pc, #1004]         @ 0xb564 <$d.57+0x18>
    b174: e3a01010     	mov	r1, #16
    b178: e3a02000     	mov	r2, #0
    b17c: ebfff43d     	bl	0x8278 <builtin.default_panic> @ imm = #-12044
    b180: e51b0064     	ldr	r0, [r11, #-100]
    b184: e58d0054     	str	r0, [sp, #84]
    b188: e59d0058     	ldr	r0, [sp, #88]
    b18c: e2901004     	adds	r1, r0, #4
    b190: e3a00000     	mov	r0, #0
    b194: e2a00000     	adc	r0, r0, #0
    b198: e50b105c     	str	r1, [r11, #-92]
    b19c: e54b0058     	strb	r0, [r11, #-88]
    b1a0: e55b0058     	ldrb	r0, [r11, #-88]
    b1a4: e3500000     	cmp	r0, #0
    b1a8: 1a000001     	bne	0xb1b4 <unicode.utf8CountCodepoints+0x23c> @ imm = #4
    b1ac: eaffffff     	b	0xb1b0 <unicode.utf8CountCodepoints+0x238> @ imm = #-4
    b1b0: ea000004     	b	0xb1c8 <unicode.utf8CountCodepoints+0x250> @ imm = #16
    b1b4: e59f03ac     	ldr	r0, [pc, #940]          @ 0xb568 <$d.57+0x1c>
    b1b8: e59f33ac     	ldr	r3, [pc, #940]          @ 0xb56c <$d.57+0x20>
    b1bc: e3a01010     	mov	r1, #16
    b1c0: e3a02000     	mov	r2, #0
    b1c4: ebfff42b     	bl	0x8278 <builtin.default_panic> @ imm = #-12116
    b1c8: e51b005c     	ldr	r0, [r11, #-92]
    b1cc: e58d0058     	str	r0, [sp, #88]
    b1d0: eaffffff     	b	0xb1d4 <unicode.utf8CountCodepoints+0x25c> @ imm = #-4
    b1d4: eaffff79     	b	0xafc0 <unicode.utf8CountCodepoints+0x48> @ imm = #-540
    b1d8: e59d104c     	ldr	r1, [sp, #76]
    b1dc: e59d0058     	ldr	r0, [sp, #88]
    b1e0: e1500001     	cmp	r0, r1
    b1e4: 2a000008     	bhs	0xb20c <unicode.utf8CountCodepoints+0x294> @ imm = #32
    b1e8: eaffffff     	b	0xb1ec <unicode.utf8CountCodepoints+0x274> @ imm = #-4
    b1ec: e59d104c     	ldr	r1, [sp, #76]
    b1f0: e59d0058     	ldr	r0, [sp, #88]
    b1f4: e58d001c     	str	r0, [sp, #28]
    b1f8: e1a02001     	mov	r2, r1
    b1fc: e58d2020     	str	r2, [sp, #32]
    b200: e1500001     	cmp	r0, r1
    b204: 3a000001     	blo	0xb210 <unicode.utf8CountCodepoints+0x298> @ imm = #4
    b208: ea000001     	b	0xb214 <unicode.utf8CountCodepoints+0x29c> @ imm = #4
    b20c: ea0000c1     	b	0xb518 <unicode.utf8CountCodepoints+0x5a0> @ imm = #772
    b210: ea000002     	b	0xb220 <unicode.utf8CountCodepoints+0x2a8> @ imm = #8
    b214: e59d1020     	ldr	r1, [sp, #32]
    b218: e59d001c     	ldr	r0, [sp, #28]
    b21c: ebfff3d8     	bl	0x8184 <builtin.panicOutOfBounds> @ imm = #-12448
    b220: e59d1044     	ldr	r1, [sp, #68]
    b224: e59d0050     	ldr	r0, [sp, #80]
    b228: e59d201c     	ldr	r2, [sp, #28]
    b22c: e7d02002     	ldrb	r2, [r0, r2]
    b230: e24b0054     	sub	r0, r11, #84
    b234: ebfffefb     	bl	0xae28 <unicode.utf8ByteSequenceLength> @ imm = #-1044
    b238: e15b05b4     	ldrh	r0, [r11, #-84]
    b23c: e3500000     	cmp	r0, #0
    b240: 0a00000b     	beq	0xb274 <unicode.utf8CountCodepoints+0x2fc> @ imm = #44
    b244: eaffffff     	b	0xb248 <unicode.utf8CountCodepoints+0x2d0> @ imm = #-4
    b248: e59d0044     	ldr	r0, [sp, #68]
    b24c: e15b15b4     	ldrh	r1, [r11, #-84]
    b250: e14b14bc     	strh	r1, [r11, #-76]
    b254: ebfff541     	bl	0x8760 <builtin.returnError> @ imm = #-11004
    b258: e59d1048     	ldr	r1, [sp, #72]
    b25c: e51b0050     	ldr	r0, [r11, #-80]
    b260: e51b204c     	ldr	r2, [r11, #-76]
    b264: e5812004     	str	r2, [r1, #4]
    b268: e5810000     	str	r0, [r1]
    b26c: e1a0d00b     	mov	sp, r11
    b270: e8bd8800     	pop	{r11, pc}
    b274: e55b1052     	ldrb	r1, [r11, #-82]
    b278: e1a00001     	mov	r0, r1
    b27c: e58d0018     	str	r0, [sp, #24]
    b280: e59d0058     	ldr	r0, [sp, #88]
    b284: e0901001     	adds	r1, r0, r1
    b288: e3a00000     	mov	r0, #0
    b28c: e2a00000     	adc	r0, r0, #0
    b290: e50b1048     	str	r1, [r11, #-72]
    b294: e54b0044     	strb	r0, [r11, #-68]
    b298: e55b0044     	ldrb	r0, [r11, #-68]
    b29c: e3500000     	cmp	r0, #0
    b2a0: 1a000001     	bne	0xb2ac <unicode.utf8CountCodepoints+0x334> @ imm = #4
    b2a4: eaffffff     	b	0xb2a8 <unicode.utf8CountCodepoints+0x330> @ imm = #-4
    b2a8: ea000004     	b	0xb2c0 <unicode.utf8CountCodepoints+0x348> @ imm = #16
    b2ac: e59f02bc     	ldr	r0, [pc, #700]          @ 0xb570 <$d.57+0x24>
    b2b0: e59f32bc     	ldr	r3, [pc, #700]          @ 0xb574 <$d.57+0x28>
    b2b4: e3a01010     	mov	r1, #16
    b2b8: e3a02000     	mov	r2, #0
    b2bc: ebfff3ed     	bl	0x8278 <builtin.default_panic> @ imm = #-12364
    b2c0: e59d104c     	ldr	r1, [sp, #76]
    b2c4: e51b0048     	ldr	r0, [r11, #-72]
    b2c8: e1500001     	cmp	r0, r1
    b2cc: 9a000009     	bls	0xb2f8 <unicode.utf8CountCodepoints+0x380> @ imm = #36
    b2d0: eaffffff     	b	0xb2d4 <unicode.utf8CountCodepoints+0x35c> @ imm = #-4
    b2d4: e59d0044     	ldr	r0, [sp, #68]
    b2d8: ebfff520     	bl	0x8760 <builtin.returnError> @ imm = #-11136
    b2dc: e59d1048     	ldr	r1, [sp, #72]
    b2e0: e3a00006     	mov	r0, #6
    b2e4: e5810004     	str	r0, [r1, #4]
    b2e8: e3a00000     	mov	r0, #0
    b2ec: e5810000     	str	r0, [r1]
    b2f0: e1a0d00b     	mov	sp, r11
    b2f4: e8bd8800     	pop	{r11, pc}
    b2f8: eaffffff     	b	0xb2fc <unicode.utf8CountCodepoints+0x384> @ imm = #-4
    b2fc: e59d0018     	ldr	r0, [sp, #24]
    b300: e2000007     	and	r0, r0, #7
    b304: e3500001     	cmp	r0, #1
    b308: 0a000011     	beq	0xb354 <unicode.utf8CountCodepoints+0x3dc> @ imm = #68
    b30c: eaffffff     	b	0xb310 <unicode.utf8CountCodepoints+0x398> @ imm = #-4
    b310: e59d1018     	ldr	r1, [sp, #24]
    b314: e59d004c     	ldr	r0, [sp, #76]
    b318: e59d2050     	ldr	r2, [sp, #80]
    b31c: e50b2040     	str	r2, [r11, #-64]
    b320: e50b003c     	str	r0, [r11, #-60]
    b324: e59d0058     	ldr	r0, [sp, #88]
    b328: e58d0014     	str	r0, [sp, #20]
    b32c: e2011007     	and	r1, r1, #7
    b330: e0901001     	adds	r1, r0, r1
    b334: e3a00000     	mov	r0, #0
    b338: e2a00000     	adc	r0, r0, #0
    b33c: e50b1038     	str	r1, [r11, #-56]
    b340: e54b0034     	strb	r0, [r11, #-52]
    b344: e55b0034     	ldrb	r0, [r11, #-52]
    b348: e3500000     	cmp	r0, #0
    b34c: 0a000001     	beq	0xb358 <unicode.utf8CountCodepoints+0x3e0> @ imm = #4
    b350: ea000001     	b	0xb35c <unicode.utf8CountCodepoints+0x3e4> @ imm = #4
    b354: ea000048     	b	0xb47c <unicode.utf8CountCodepoints+0x504> @ imm = #288
    b358: ea000004     	b	0xb370 <unicode.utf8CountCodepoints+0x3f8> @ imm = #16
    b35c: e59f0214     	ldr	r0, [pc, #532]          @ 0xb578 <$d.57+0x2c>
    b360: e59f3214     	ldr	r3, [pc, #532]          @ 0xb57c <$d.57+0x30>
    b364: e3a01010     	mov	r1, #16
    b368: e3a02000     	mov	r2, #0
    b36c: ebfff3c1     	bl	0x8278 <builtin.default_panic> @ imm = #-12540
    b370: e59d1014     	ldr	r1, [sp, #20]
    b374: e51b0038     	ldr	r0, [r11, #-56]
    b378: e58d0008     	str	r0, [sp, #8]
    b37c: e51b2040     	ldr	r2, [r11, #-64]
    b380: e51b303c     	ldr	r3, [r11, #-60]
    b384: e58d300c     	str	r3, [sp, #12]
    b388: e0822001     	add	r2, r2, r1
    b38c: e58d2010     	str	r2, [sp, #16]
    b390: e0501001     	subs	r1, r0, r1
    b394: e3a00000     	mov	r0, #0
    b398: e2a00000     	adc	r0, r0, #0
    b39c: e2200001     	eor	r0, r0, #1
    b3a0: e50b1030     	str	r1, [r11, #-48]
    b3a4: e54b002c     	strb	r0, [r11, #-44]
    b3a8: e55b002c     	ldrb	r0, [r11, #-44]
    b3ac: e3500000     	cmp	r0, #0
    b3b0: 1a000001     	bne	0xb3bc <unicode.utf8CountCodepoints+0x444> @ imm = #4
    b3b4: eaffffff     	b	0xb3b8 <unicode.utf8CountCodepoints+0x440> @ imm = #-4
    b3b8: ea000004     	b	0xb3d0 <unicode.utf8CountCodepoints+0x458> @ imm = #16
    b3bc: e59f01bc     	ldr	r0, [pc, #444]          @ 0xb580 <$d.57+0x34>
    b3c0: e59f31bc     	ldr	r3, [pc, #444]          @ 0xb584 <$d.57+0x38>
    b3c4: e3a01010     	mov	r1, #16
    b3c8: e3a02000     	mov	r2, #0
    b3cc: ebfff3a9     	bl	0x8278 <builtin.default_panic> @ imm = #-12636
    b3d0: e59d0008     	ldr	r0, [sp, #8]
    b3d4: e59d100c     	ldr	r1, [sp, #12]
    b3d8: e51b2030     	ldr	r2, [r11, #-48]
    b3dc: e58d2000     	str	r2, [sp]
    b3e0: e1a02001     	mov	r2, r1
    b3e4: e58d2004     	str	r2, [sp, #4]
    b3e8: e1500001     	cmp	r0, r1
    b3ec: 8a000001     	bhi	0xb3f8 <unicode.utf8CountCodepoints+0x480> @ imm = #4
    b3f0: eaffffff     	b	0xb3f4 <unicode.utf8CountCodepoints+0x47c> @ imm = #-4
    b3f4: ea000002     	b	0xb404 <unicode.utf8CountCodepoints+0x48c> @ imm = #8
    b3f8: e59d1004     	ldr	r1, [sp, #4]
    b3fc: e59d0008     	ldr	r0, [sp, #8]
    b400: ebfff35f     	bl	0x8184 <builtin.panicOutOfBounds> @ imm = #-12932
    b404: e59d0014     	ldr	r0, [sp, #20]
    b408: e59d1008     	ldr	r1, [sp, #8]
    b40c: e1500001     	cmp	r0, r1
    b410: 8a000001     	bhi	0xb41c <unicode.utf8CountCodepoints+0x4a4> @ imm = #4
    b414: eaffffff     	b	0xb418 <unicode.utf8CountCodepoints+0x4a0> @ imm = #-4
    b418: ea000002     	b	0xb428 <unicode.utf8CountCodepoints+0x4b0> @ imm = #8
    b41c: e59d1008     	ldr	r1, [sp, #8]
    b420: e59d0014     	ldr	r0, [sp, #20]
    b424: ebfff356     	bl	0x8184 <builtin.panicOutOfBounds> @ imm = #-12968
    b428: e59d3000     	ldr	r3, [sp]
    b42c: e59d2010     	ldr	r2, [sp, #16]
    b430: e59d1044     	ldr	r1, [sp, #68]
    b434: e24b0028     	sub	r0, r11, #40
    b438: eb000058     	bl	0xb5a0 <unicode.utf8Decode> @ imm = #352
    b43c: e15b02b4     	ldrh	r0, [r11, #-36]
    b440: e3500000     	cmp	r0, #0
    b444: 0a00000b     	beq	0xb478 <unicode.utf8CountCodepoints+0x500> @ imm = #44
    b448: eaffffff     	b	0xb44c <unicode.utf8CountCodepoints+0x4d4> @ imm = #-4
    b44c: e59d0044     	ldr	r0, [sp, #68]
    b450: e15b12b4     	ldrh	r1, [r11, #-36]
    b454: e14b11bc     	strh	r1, [r11, #-28]
    b458: ebfff4c0     	bl	0x8760 <builtin.returnError> @ imm = #-11520
    b45c: e59d1048     	ldr	r1, [sp, #72]
    b460: e51b0020     	ldr	r0, [r11, #-32]
    b464: e51b201c     	ldr	r2, [r11, #-28]
    b468: e5812004     	str	r2, [r1, #4]
    b46c: e5810000     	str	r0, [r1]
    b470: e1a0d00b     	mov	sp, r11
    b474: e8bd8800     	pop	{r11, pc}
    b478: eaffffff     	b	0xb47c <unicode.utf8CountCodepoints+0x504> @ imm = #-4
    b47c: e59d1018     	ldr	r1, [sp, #24]
    b480: e59d0058     	ldr	r0, [sp, #88]
    b484: e2011007     	and	r1, r1, #7
    b488: e0901001     	adds	r1, r0, r1
    b48c: e3a00000     	mov	r0, #0
    b490: e2a00000     	adc	r0, r0, #0
    b494: e50b1018     	str	r1, [r11, #-24]
    b498: e54b0014     	strb	r0, [r11, #-20]
    b49c: e55b0014     	ldrb	r0, [r11, #-20]
    b4a0: e3500000     	cmp	r0, #0
    b4a4: 1a000001     	bne	0xb4b0 <unicode.utf8CountCodepoints+0x538> @ imm = #4
    b4a8: eaffffff     	b	0xb4ac <unicode.utf8CountCodepoints+0x534> @ imm = #-4
    b4ac: ea000004     	b	0xb4c4 <unicode.utf8CountCodepoints+0x54c> @ imm = #16
    b4b0: e59f00d0     	ldr	r0, [pc, #208]          @ 0xb588 <$d.57+0x3c>
    b4b4: e59f30d0     	ldr	r3, [pc, #208]          @ 0xb58c <$d.57+0x40>
    b4b8: e3a01010     	mov	r1, #16
    b4bc: e3a02000     	mov	r2, #0
    b4c0: ebfff36c     	bl	0x8278 <builtin.default_panic> @ imm = #-12880
    b4c4: e51b0018     	ldr	r0, [r11, #-24]
    b4c8: e58d0058     	str	r0, [sp, #88]
    b4cc: e59d0054     	ldr	r0, [sp, #84]
    b4d0: e2901001     	adds	r1, r0, #1
    b4d4: e3a00000     	mov	r0, #0
    b4d8: e2a00000     	adc	r0, r0, #0
    b4dc: e50b1010     	str	r1, [r11, #-16]
    b4e0: e54b000c     	strb	r0, [r11, #-12]
    b4e4: e55b000c     	ldrb	r0, [r11, #-12]
    b4e8: e3500000     	cmp	r0, #0
    b4ec: 1a000001     	bne	0xb4f8 <unicode.utf8CountCodepoints+0x580> @ imm = #4
    b4f0: eaffffff     	b	0xb4f4 <unicode.utf8CountCodepoints+0x57c> @ imm = #-4
    b4f4: ea000004     	b	0xb50c <unicode.utf8CountCodepoints+0x594> @ imm = #16
    b4f8: e59f0090     	ldr	r0, [pc, #144]          @ 0xb590 <$d.57+0x44>
    b4fc: e59f3090     	ldr	r3, [pc, #144]          @ 0xb594 <$d.57+0x48>
    b500: e3a01010     	mov	r1, #16
    b504: e3a02000     	mov	r2, #0
    b508: ebfff35a     	bl	0x8278 <builtin.default_panic> @ imm = #-12952
    b50c: e51b0010     	ldr	r0, [r11, #-16]
    b510: e58d0054     	str	r0, [sp, #84]
    b514: eaffffff     	b	0xb518 <unicode.utf8CountCodepoints+0x5a0> @ imm = #-4
    b518: eaffffff     	b	0xb51c <unicode.utf8CountCodepoints+0x5a4> @ imm = #-4
    b51c: eafffea0     	b	0xafa4 <unicode.utf8CountCodepoints+0x2c> @ imm = #-1408
    b520: e59d1048     	ldr	r1, [sp, #72]
    b524: e59d0054     	ldr	r0, [sp, #84]
    b528: e3a02000     	mov	r2, #0
    b52c: e14b20b4     	strh	r2, [r11, #-4]
    b530: e50b0008     	str	r0, [r11, #-8]
    b534: e51b0008     	ldr	r0, [r11, #-8]
    b538: e51b2004     	ldr	r2, [r11, #-4]
    b53c: e5812004     	str	r2, [r1, #4]
    b540: e5810000     	str	r0, [r1]
    b544: e1a0d00b     	mov	sp, r11
    b548: e8bd8800     	pop	{r11, pc}

0000b54c <$d.57>:
    b54c: 0000cf78     	andeq	r12, r0, r8, ror pc
    b550: 0000c858     	andeq	r12, r0, r8, asr r8
    b554: 0000cf88     	andeq	r12, r0, r8, lsl #31
    b558: 0000c860     	andeq	r12, r0, r0, ror #16
    b55c: 80808080     	addhi	r8, r0, r0, lsl #1
    b560: 0000cf98     	<unknown>
    b564: 0000c868     	andeq	r12, r0, r8, ror #16
    b568: 0000cfa8     	andeq	r12, r0, r8, lsr #31
    b56c: 0000c870     	andeq	r12, r0, r0, ror r8
    b570: 0000cfb8     	strheq	r12, [r0], -r8
    b574: 0000c878     	andeq	r12, r0, r8, ror r8
    b578: 0000cfc8     	andeq	r12, r0, r8, asr #31
    b57c: 0000c888     	andeq	r12, r0, r8, lsl #17
    b580: 0000cfd8     	ldrdeq	r12, sp, [r0], -r8
    b584: 0000c890     	<unknown>
    b588: 0000cfe8     	andeq	r12, r0, r8, ror #31
    b58c: 0000c898     	<unknown>
    b590: 0000cff8     	strdeq	r12, sp, [r0], -r8
    b594: 0000c8a0     	andeq	r12, r0, r0, lsr #17

0000b598 <mem.readIntNative__anon_1776>:
    b598: e5900000     	ldr	r0, [r0]
    b59c: e12fff1e     	<unknown>

0000b5a0 <unicode.utf8Decode>:
    b5a0: e92d4800     	push	{r11, lr}
    b5a4: e1a0b00d     	mov	r11, sp
    b5a8: e24dd048     	sub	sp, sp, #72
    b5ac: e58d1014     	str	r1, [sp, #20]
    b5b0: e58d0018     	str	r0, [sp, #24]
    b5b4: e1a00003     	mov	r0, r3
    b5b8: e58d001c     	str	r0, [sp, #28]
    b5bc: e58d2020     	str	r2, [sp, #32]
    b5c0: e2430001     	sub	r0, r3, #1
    b5c4: e58d0024     	str	r0, [sp, #36]
    b5c8: e3500003     	cmp	r0, #3
    b5cc: 8a000007     	bhi	0xb5f0 <$a.60>          @ imm = #28
    b5d0: e59d1024     	ldr	r1, [sp, #36]
    b5d4: e28f0004     	add	r0, pc, #4
    b5d8: e7900101     	ldr	r0, [r0, r1, lsl #2]
    b5dc: e1a0f000     	mov	pc, r0

0000b5e0 <$d.59>:
    b5e0: 0000b604     	andeq	r11, r0, r4, lsl #12
    b5e4: 0000b65c     	andeq	r11, r0, r12, asr r6
    b5e8: 0000b69c     	<unknown>
    b5ec: 0000b6dc     	ldrdeq	r11, r12, [r0], -r12

0000b5f0 <$a.60>:
    b5f0: e59f0150     	ldr	r0, [pc, #336]          @ 0xb748 <$d.61>
    b5f4: e59f3150     	ldr	r3, [pc, #336]          @ 0xb74c <$d.61+0x4>
    b5f8: e3a01018     	mov	r1, #24
    b5fc: e3a02000     	mov	r2, #0
    b600: ebfff31c     	bl	0x8278 <builtin.default_panic> @ imm = #-13200
    b604: e59d001c     	ldr	r0, [sp, #28]
    b608: e1a01000     	mov	r1, r0
    b60c: e58d1010     	str	r1, [sp, #16]
    b610: e3500000     	cmp	r0, #0
    b614: 0a000001     	beq	0xb620 <$a.60+0x30>     @ imm = #4
    b618: eaffffff     	b	0xb61c <$a.60+0x2c>     @ imm = #-4
    b61c: ea000002     	b	0xb62c <$a.60+0x3c>     @ imm = #8
    b620: e59d1010     	ldr	r1, [sp, #16]
    b624: e3a00000     	mov	r0, #0
    b628: ebfff2d5     	bl	0x8184 <builtin.panicOutOfBounds> @ imm = #-13484
    b62c: e59d1018     	ldr	r1, [sp, #24]
    b630: e59d0020     	ldr	r0, [sp, #32]
    b634: e5d00000     	ldrb	r0, [r0]
    b638: e3a02000     	mov	r2, #0
    b63c: e14b21bc     	strh	r2, [r11, #-28]
    b640: e54b201e     	strb	r2, [r11, #-30]
    b644: e14b02b0     	strh	r0, [r11, #-32]
    b648: e51b0020     	ldr	r0, [r11, #-32]
    b64c: e51b201c     	ldr	r2, [r11, #-28]
    b650: e5812004     	str	r2, [r1, #4]
    b654: e5810000     	str	r0, [r1]
    b658: ea00002f     	b	0xb71c <$a.60+0x12c>    @ imm = #188
    b65c: e59d1014     	ldr	r1, [sp, #20]
    b660: e59d301c     	ldr	r3, [sp, #28]
    b664: e59d2020     	ldr	r2, [sp, #32]
    b668: e5910000     	ldr	r0, [r1]
    b66c: e58d000c     	str	r0, [sp, #12]
    b670: e24b0018     	sub	r0, r11, #24
    b674: eb0000b3     	bl	0xb948 <unicode.utf8Decode2> @ imm = #716
    b678: e59d2014     	ldr	r2, [sp, #20]
    b67c: e59d000c     	ldr	r0, [sp, #12]
    b680: e59d1018     	ldr	r1, [sp, #24]
    b684: e5820000     	str	r0, [r2]
    b688: e51b0018     	ldr	r0, [r11, #-24]
    b68c: e51b2014     	ldr	r2, [r11, #-20]
    b690: e5812004     	str	r2, [r1, #4]
    b694: e5810000     	str	r0, [r1]
    b698: ea00001f     	b	0xb71c <$a.60+0x12c>    @ imm = #124
    b69c: e59d1014     	ldr	r1, [sp, #20]
    b6a0: e59d301c     	ldr	r3, [sp, #28]
    b6a4: e59d2020     	ldr	r2, [sp, #32]
    b6a8: e5910000     	ldr	r0, [r1]
    b6ac: e58d0008     	str	r0, [sp, #8]
    b6b0: e24b0010     	sub	r0, r11, #16
    b6b4: eb00013b     	bl	0xbba8 <unicode.utf8Decode3> @ imm = #1260
    b6b8: e59d2014     	ldr	r2, [sp, #20]
    b6bc: e59d0008     	ldr	r0, [sp, #8]
    b6c0: e59d1018     	ldr	r1, [sp, #24]
    b6c4: e5820000     	str	r0, [r2]
    b6c8: e51b0010     	ldr	r0, [r11, #-16]
    b6cc: e51b200c     	ldr	r2, [r11, #-12]
    b6d0: e5812004     	str	r2, [r1, #4]
    b6d4: e5810000     	str	r0, [r1]
    b6d8: ea00000f     	b	0xb71c <$a.60+0x12c>    @ imm = #60
    b6dc: e59d1014     	ldr	r1, [sp, #20]
    b6e0: e59d301c     	ldr	r3, [sp, #28]
    b6e4: e59d2020     	ldr	r2, [sp, #32]
    b6e8: e5910000     	ldr	r0, [r1]
    b6ec: e58d0004     	str	r0, [sp, #4]
    b6f0: e24b0008     	sub	r0, r11, #8
    b6f4: eb00022b     	bl	0xbfa8 <unicode.utf8Decode4> @ imm = #2220
    b6f8: e59d2014     	ldr	r2, [sp, #20]
    b6fc: e59d0004     	ldr	r0, [sp, #4]
    b700: e59d1018     	ldr	r1, [sp, #24]
    b704: e5820000     	str	r0, [r2]
    b708: e51b0008     	ldr	r0, [r11, #-8]
    b70c: e51b2004     	ldr	r2, [r11, #-4]
    b710: e5812004     	str	r2, [r1, #4]
    b714: e5810000     	str	r0, [r1]
    b718: eaffffff     	b	0xb71c <$a.60+0x12c>    @ imm = #-4
    b71c: e59d0018     	ldr	r0, [sp, #24]
    b720: e1d000b4     	ldrh	r0, [r0, #4]
    b724: e3500000     	cmp	r0, #0
    b728: 1a000002     	bne	0xb738 <$a.60+0x148>    @ imm = #8
    b72c: eaffffff     	b	0xb730 <$a.60+0x140>    @ imm = #-4
    b730: e1a0d00b     	mov	sp, r11
    b734: e8bd8800     	pop	{r11, pc}
    b738: e59d0014     	ldr	r0, [sp, #20]
    b73c: ebfff407     	bl	0x8760 <builtin.returnError> @ imm = #-12260
    b740: e1a0d00b     	mov	sp, r11
    b744: e8bd8800     	pop	{r11, pc}

0000b748 <$d.61>:
    b748: 0000cc5d     	andeq	r12, r0, sp, asr r12
    b74c: 0000c8e0     	andeq	r12, r0, r0, ror #17

0000b750 <io.writer.Writer(*io.fixed_buffer_stream.FixedBufferStream([]u8),error{NoSpaceLeft},(function 'write')).writeByteNTimes>:
    b750: e92d4830     	push	{r4, r5, r11, lr}
    b754: e28db008     	add	r11, sp, #8
    b758: e24ddd05     	sub	sp, sp, #320
    b75c: e58d3020     	str	r3, [sp, #32]
    b760: e58d201c     	str	r2, [sp, #28]
    b764: e58d100c     	str	r1, [sp, #12]
    b768: e58d0010     	str	r0, [sp, #16]
    b76c: e28d0024     	add	r0, sp, #36
    b770: e58d0014     	str	r0, [sp, #20]
    b774: e3a01c01     	mov	r1, #256
    b778: e58d1018     	str	r1, [sp, #24]
    b77c: e3a020aa     	mov	r2, #170
    b780: eb0003dc     	bl	0xc6f8 <__aeabi_memset> @ imm = #3952
    b784: e59d0014     	ldr	r0, [sp, #20]
    b788: e59d1018     	ldr	r1, [sp, #24]
    b78c: e59d201c     	ldr	r2, [sp, #28]
    b790: eb00033c     	bl	0xc488 <mem.set__anon_1801> @ imm = #3312
    b794: e59d3020     	ldr	r3, [sp, #32]
    b798: e50b3024     	str	r3, [r11, #-36]
    b79c: eaffffff     	b	0xb7a0 <io.writer.Writer(*io.fixed_buffer_stream.FixedBufferStream([]u8),error{NoSpaceLeft},(function 'write')).writeByteNTimes+0x50> @ imm = #-4
    b7a0: e51b0024     	ldr	r0, [r11, #-36]
    b7a4: e3500000     	cmp	r0, #0
    b7a8: 0a00000f     	beq	0xb7ec <io.writer.Writer(*io.fixed_buffer_stream.FixedBufferStream([]u8),error{NoSpaceLeft},(function 'write')).writeByteNTimes+0x9c> @ imm = #60
    b7ac: eaffffff     	b	0xb7b0 <io.writer.Writer(*io.fixed_buffer_stream.FixedBufferStream([]u8),error{NoSpaceLeft},(function 'write')).writeByteNTimes+0x60> @ imm = #-4
    b7b0: e51b0024     	ldr	r0, [r11, #-36]
    b7b4: e3a01c01     	mov	r1, #256
    b7b8: eb00036d     	bl	0xc574 <math.min__anon_1802> @ imm = #3508
    b7bc: e59d100c     	ldr	r1, [sp, #12]
    b7c0: e1a02000     	mov	r2, r0
    b7c4: e58d2004     	str	r2, [sp, #4]
    b7c8: e5911000     	ldr	r1, [r1]
    b7cc: e50b1020     	str	r1, [r11, #-32]
    b7d0: e51b1020     	ldr	r1, [r11, #-32]
    b7d4: e50b101c     	str	r1, [r11, #-28]
    b7d8: e28d1024     	add	r1, sp, #36
    b7dc: e58d1008     	str	r1, [sp, #8]
    b7e0: e3500c01     	cmp	r0, #256
    b7e4: 9a000001     	bls	0xb7f0 <io.writer.Writer(*io.fixed_buffer_stream.FixedBufferStream([]u8),error{NoSpaceLeft},(function 'write')).writeByteNTimes+0xa0> @ imm = #4
    b7e8: ea000001     	b	0xb7f4 <io.writer.Writer(*io.fixed_buffer_stream.FixedBufferStream([]u8),error{NoSpaceLeft},(function 'write')).writeByteNTimes+0xa4> @ imm = #4
    b7ec: ea000036     	b	0xb8cc <io.writer.Writer(*io.fixed_buffer_stream.FixedBufferStream([]u8),error{NoSpaceLeft},(function 'write')).writeByteNTimes+0x17c> @ imm = #216
    b7f0: ea000002     	b	0xb800 <io.writer.Writer(*io.fixed_buffer_stream.FixedBufferStream([]u8),error{NoSpaceLeft},(function 'write')).writeByteNTimes+0xb0> @ imm = #8
    b7f4: e59d0004     	ldr	r0, [sp, #4]
    b7f8: e3a01c01     	mov	r1, #256
    b7fc: ebfff260     	bl	0x8184 <builtin.panicOutOfBounds> @ imm = #-13952
    b800: e59d0004     	ldr	r0, [sp, #4]
    b804: e3500000     	cmp	r0, #0
    b808: 3a000001     	blo	0xb814 <io.writer.Writer(*io.fixed_buffer_stream.FixedBufferStream([]u8),error{NoSpaceLeft},(function 'write')).writeByteNTimes+0xc4> @ imm = #4
    b80c: eaffffff     	b	0xb810 <io.writer.Writer(*io.fixed_buffer_stream.FixedBufferStream([]u8),error{NoSpaceLeft},(function 'write')).writeByteNTimes+0xc0> @ imm = #-4
    b810: ea000002     	b	0xb820 <io.writer.Writer(*io.fixed_buffer_stream.FixedBufferStream([]u8),error{NoSpaceLeft},(function 'write')).writeByteNTimes+0xd0> @ imm = #8
    b814: e59d1004     	ldr	r1, [sp, #4]
    b818: e3a00000     	mov	r0, #0
    b81c: ebfff258     	bl	0x8184 <builtin.panicOutOfBounds> @ imm = #-13984
    b820: e59d0010     	ldr	r0, [sp, #16]
    b824: e59d1008     	ldr	r1, [sp, #8]
    b828: e59d2004     	ldr	r2, [sp, #4]
    b82c: e50b2014     	str	r2, [r11, #-20]
    b830: e50b1018     	str	r1, [r11, #-24]
    b834: e51b2018     	ldr	r2, [r11, #-24]
    b838: e51b3014     	ldr	r3, [r11, #-20]
    b83c: e24b101c     	sub	r1, r11, #28
    b840: ebfff56f     	bl	0x8e04 <io.writer.Writer(*io.fixed_buffer_stream.FixedBufferStream([]u8),error{NoSpaceLeft},(function 'write')).writeAll> @ imm = #-10820
    b844: e1a01000     	mov	r1, r0
    b848: e58d1000     	str	r1, [sp]
    b84c: e3a010ff     	mov	r1, #255
    b850: e3811cff     	orr	r1, r1, #65280
    b854: e1100001     	tst	r0, r1
    b858: 0a000005     	beq	0xb874 <io.writer.Writer(*io.fixed_buffer_stream.FixedBufferStream([]u8),error{NoSpaceLeft},(function 'write')).writeByteNTimes+0x124> @ imm = #20
    b85c: eaffffff     	b	0xb860 <io.writer.Writer(*io.fixed_buffer_stream.FixedBufferStream([]u8),error{NoSpaceLeft},(function 'write')).writeByteNTimes+0x110> @ imm = #-4
    b860: e59d0010     	ldr	r0, [sp, #16]
    b864: ebfff3bd     	bl	0x8760 <builtin.returnError> @ imm = #-12556
    b868: e59d0000     	ldr	r0, [sp]
    b86c: e24bd008     	sub	sp, r11, #8
    b870: e8bd8830     	pop	{r4, r5, r11, pc}
    b874: e59d1004     	ldr	r1, [sp, #4]
    b878: e51b0024     	ldr	r0, [r11, #-36]
    b87c: e0501001     	subs	r1, r0, r1
    b880: e3a00000     	mov	r0, #0
    b884: e2a00000     	adc	r0, r0, #0
    b888: e2200001     	eor	r0, r0, #1
    b88c: e50b1010     	str	r1, [r11, #-16]
    b890: e54b000c     	strb	r0, [r11, #-12]
    b894: e55b000c     	ldrb	r0, [r11, #-12]
    b898: e3500000     	cmp	r0, #0
    b89c: 1a000001     	bne	0xb8a8 <io.writer.Writer(*io.fixed_buffer_stream.FixedBufferStream([]u8),error{NoSpaceLeft},(function 'write')).writeByteNTimes+0x158> @ imm = #4
    b8a0: eaffffff     	b	0xb8a4 <io.writer.Writer(*io.fixed_buffer_stream.FixedBufferStream([]u8),error{NoSpaceLeft},(function 'write')).writeByteNTimes+0x154> @ imm = #-4
    b8a4: ea000004     	b	0xb8bc <io.writer.Writer(*io.fixed_buffer_stream.FixedBufferStream([]u8),error{NoSpaceLeft},(function 'write')).writeByteNTimes+0x16c> @ imm = #16
    b8a8: e59f0028     	ldr	r0, [pc, #40]           @ 0xb8d8 <$d.63>
    b8ac: e59f3028     	ldr	r3, [pc, #40]           @ 0xb8dc <$d.63+0x4>
    b8b0: e3a01010     	mov	r1, #16
    b8b4: e3a02000     	mov	r2, #0
    b8b8: ebfff26e     	bl	0x8278 <builtin.default_panic> @ imm = #-13896
    b8bc: e51b0010     	ldr	r0, [r11, #-16]
    b8c0: e50b0024     	str	r0, [r11, #-36]
    b8c4: eaffffff     	b	0xb8c8 <io.writer.Writer(*io.fixed_buffer_stream.FixedBufferStream([]u8),error{NoSpaceLeft},(function 'write')).writeByteNTimes+0x178> @ imm = #-4
    b8c8: eaffffb4     	b	0xb7a0 <io.writer.Writer(*io.fixed_buffer_stream.FixedBufferStream([]u8),error{NoSpaceLeft},(function 'write')).writeByteNTimes+0x50> @ imm = #-304
    b8cc: e3a00000     	mov	r0, #0
    b8d0: e24bd008     	sub	sp, r11, #8
    b8d4: e8bd8830     	pop	{r4, r5, r11, pc}

0000b8d8 <$d.63>:
    b8d8: 0000d058     	andeq	sp, r0, r8, asr r0
    b8dc: 0000c8e8     	andeq	r12, r0, r8, ror #17

0000b8e0 <fmt.ArgState.hasUnusedArgs>:
    b8e0: e5901004     	ldr	r1, [r0, #4]
    b8e4: e5900008     	ldr	r0, [r0, #8]
    b8e8: e59f2034     	ldr	r2, [pc, #52]           @ 0xb924 <$d.65>
    b8ec: e00220a1     	and	r2, r2, r1, lsr #1
    b8f0: e0411002     	sub	r1, r1, r2
    b8f4: e59f302c     	ldr	r3, [pc, #44]           @ 0xb928 <$d.65+0x4>
    b8f8: e0032121     	and	r2, r3, r1, lsr #2
    b8fc: e0011003     	and	r1, r1, r3
    b900: e0811002     	add	r1, r1, r2
    b904: e0811221     	add	r1, r1, r1, lsr #4
    b908: e59f201c     	ldr	r2, [pc, #28]           @ 0xb92c <$d.65+0x8>
    b90c: e0011002     	and	r1, r1, r2
    b910: e59f2018     	ldr	r2, [pc, #24]           @ 0xb930 <$d.65+0xc>
    b914: e0010291     	<unknown>
    b918: e0500c21     	subs	r0, r0, r1, lsr #24
    b91c: 13a00001     	movne	r0, #1
    b920: e12fff1e     	<unknown>

0000b924 <$d.65>:
    b924: 55555555     	ldrbpl	r5, [r5, #-1365]
    b928: 33333333     	teqlo	r3, #-872415232
    b92c: 0f0f0f0f     	svceq	#986895
    b930: 01010101     	mrseq	r0, apsr

0000b934 <mem.len__anon_1795>:
    b934: e24dd004     	sub	sp, sp, #4
    b938: e58d1000     	str	r1, [sp]
    b93c: e59d0000     	ldr	r0, [sp]
    b940: e28dd004     	add	sp, sp, #4
    b944: e12fff1e     	<unknown>

0000b948 <unicode.utf8Decode2>:
    b948: e92d4800     	push	{r11, lr}
    b94c: e1a0b00d     	mov	r11, sp
    b950: e24dd038     	sub	sp, sp, #56
    b954: e50b3014     	str	r3, [r11, #-20]
    b958: e58d1014     	str	r1, [sp, #20]
    b95c: e58d0018     	str	r0, [sp, #24]
    b960: e1a00003     	mov	r0, r3
    b964: e58d001c     	str	r0, [sp, #28]
    b968: e50b2018     	str	r2, [r11, #-24]
    b96c: e2430002     	sub	r0, r3, #2
    b970: e16f0f10     	<unknown>
    b974: e1a002a0     	lsr	r0, r0, #5
    b978: ebfff5e3     	bl	0x910c <debug.assert>   @ imm = #-10356
    b97c: e51b3014     	ldr	r3, [r11, #-20]
    b980: e1a00003     	mov	r0, r3
    b984: e50b0010     	str	r0, [r11, #-16]
    b988: e3530000     	cmp	r3, #0
    b98c: 0a000001     	beq	0xb998 <unicode.utf8Decode2+0x50> @ imm = #4
    b990: eaffffff     	b	0xb994 <unicode.utf8Decode2+0x4c> @ imm = #-4
    b994: ea000002     	b	0xb9a4 <unicode.utf8Decode2+0x5c> @ imm = #8
    b998: e51b1010     	ldr	r1, [r11, #-16]
    b99c: e3a00000     	mov	r0, #0
    b9a0: ebfff1f7     	bl	0x8184 <builtin.panicOutOfBounds> @ imm = #-14372
    b9a4: e51b0018     	ldr	r0, [r11, #-24]
    b9a8: e5d00000     	ldrb	r0, [r0]
    b9ac: e20000e0     	and	r0, r0, #224
    b9b0: e24000c0     	sub	r0, r0, #192
    b9b4: e16f0f10     	<unknown>
    b9b8: e1a002a0     	lsr	r0, r0, #5
    b9bc: ebfff5d2     	bl	0x910c <debug.assert>   @ imm = #-10424
    b9c0: e59d001c     	ldr	r0, [sp, #28]
    b9c4: e1a01000     	mov	r1, r0
    b9c8: e58d1010     	str	r1, [sp, #16]
    b9cc: e3500000     	cmp	r0, #0
    b9d0: 0a000001     	beq	0xb9dc <unicode.utf8Decode2+0x94> @ imm = #4
    b9d4: eaffffff     	b	0xb9d8 <unicode.utf8Decode2+0x90> @ imm = #-4
    b9d8: ea000002     	b	0xb9e8 <unicode.utf8Decode2+0xa0> @ imm = #8
    b9dc: e59d1010     	ldr	r1, [sp, #16]
    b9e0: e3a00000     	mov	r0, #0
    b9e4: ebfff1e6     	bl	0x8184 <builtin.panicOutOfBounds> @ imm = #-14440
    b9e8: e59d001c     	ldr	r0, [sp, #28]
    b9ec: e51b1018     	ldr	r1, [r11, #-24]
    b9f0: e5d11000     	ldrb	r1, [r1]
    b9f4: e201101f     	and	r1, r1, #31
    b9f8: e3a02000     	mov	r2, #0
    b9fc: e54b200a     	strb	r2, [r11, #-10]
    ba00: e14b10bc     	strh	r1, [r11, #-12]
    ba04: e1a01000     	mov	r1, r0
    ba08: e58d100c     	str	r1, [sp, #12]
    ba0c: e3500002     	cmp	r0, #2
    ba10: 3a000001     	blo	0xba1c <unicode.utf8Decode2+0xd4> @ imm = #4
    ba14: eaffffff     	b	0xba18 <unicode.utf8Decode2+0xd0> @ imm = #-4
    ba18: ea000002     	b	0xba28 <unicode.utf8Decode2+0xe0> @ imm = #8
    ba1c: e59d100c     	ldr	r1, [sp, #12]
    ba20: e3a00001     	mov	r0, #1
    ba24: ebfff1d6     	bl	0x8184 <builtin.panicOutOfBounds> @ imm = #-14504
    ba28: e51b0018     	ldr	r0, [r11, #-24]
    ba2c: e5d00001     	ldrb	r0, [r0, #1]
    ba30: e20000c0     	and	r0, r0, #192
    ba34: e3500080     	cmp	r0, #128
    ba38: 0a000009     	beq	0xba64 <unicode.utf8Decode2+0x11c> @ imm = #36
    ba3c: eaffffff     	b	0xba40 <unicode.utf8Decode2+0xf8> @ imm = #-4
    ba40: e59d0014     	ldr	r0, [sp, #20]
    ba44: ebfff345     	bl	0x8760 <builtin.returnError> @ imm = #-13036
    ba48: e59d1018     	ldr	r1, [sp, #24]
    ba4c: e3a00007     	mov	r0, #7
    ba50: e5810004     	str	r0, [r1, #4]
    ba54: e3a00000     	mov	r0, #0
    ba58: e5810000     	str	r0, [r1]
    ba5c: e1a0d00b     	mov	sp, r11
    ba60: e8bd8800     	pop	{r11, pc}
    ba64: eaffffff     	b	0xba68 <unicode.utf8Decode2+0x120> @ imm = #-4
    ba68: e55b100a     	ldrb	r1, [r11, #-10]
    ba6c: e15b00bc     	ldrh	r0, [r11, #-12]
    ba70: e1800801     	orr	r0, r0, r1, lsl #16
    ba74: e58d0008     	str	r0, [sp, #8]
    ba78: e3a00000     	mov	r0, #0
    ba7c: e3500000     	cmp	r0, #0
    ba80: 1a000001     	bne	0xba8c <unicode.utf8Decode2+0x144> @ imm = #4
    ba84: eaffffff     	b	0xba88 <unicode.utf8Decode2+0x140> @ imm = #-4
    ba88: ea000004     	b	0xbaa0 <unicode.utf8Decode2+0x158> @ imm = #16
    ba8c: e59f0108     	ldr	r0, [pc, #264]          @ 0xbb9c <$d.67>
    ba90: e59f3108     	ldr	r3, [pc, #264]          @ 0xbba0 <$d.67+0x4>
    ba94: e3a0102a     	mov	r1, #42
    ba98: e3a02000     	mov	r2, #0
    ba9c: ebfff1f5     	bl	0x8278 <builtin.default_panic> @ imm = #-14380
    baa0: e59d001c     	ldr	r0, [sp, #28]
    baa4: e59d3008     	ldr	r3, [sp, #8]
    baa8: e1a01303     	lsl	r1, r3, #6
    baac: e3a0201f     	mov	r2, #31
    bab0: e0022523     	and	r2, r2, r3, lsr #10
    bab4: e54b200a     	strb	r2, [r11, #-10]
    bab8: e14b10bc     	strh	r1, [r11, #-12]
    babc: e55b200a     	ldrb	r2, [r11, #-10]
    bac0: e15b10bc     	ldrh	r1, [r11, #-12]
    bac4: e1811802     	orr	r1, r1, r2, lsl #16
    bac8: e58d1000     	str	r1, [sp]
    bacc: e1a01000     	mov	r1, r0
    bad0: e58d1004     	str	r1, [sp, #4]
    bad4: e3500002     	cmp	r0, #2
    bad8: 3a000001     	blo	0xbae4 <unicode.utf8Decode2+0x19c> @ imm = #4
    badc: eaffffff     	b	0xbae0 <unicode.utf8Decode2+0x198> @ imm = #-4
    bae0: ea000002     	b	0xbaf0 <unicode.utf8Decode2+0x1a8> @ imm = #8
    bae4: e59d1004     	ldr	r1, [sp, #4]
    bae8: e3a00001     	mov	r0, #1
    baec: ebfff1a4     	bl	0x8184 <builtin.panicOutOfBounds> @ imm = #-14704
    baf0: e59d0000     	ldr	r0, [sp]
    baf4: e51b1018     	ldr	r1, [r11, #-24]
    baf8: e5d11001     	ldrb	r1, [r1, #1]
    bafc: e201103f     	and	r1, r1, #63
    bb00: e1800001     	orr	r0, r0, r1
    bb04: e14b00bc     	strh	r0, [r11, #-12]
    bb08: e59f1094     	ldr	r1, [pc, #148]          @ 0xbba4 <$d.67+0x8>
    bb0c: e0000001     	and	r0, r0, r1
    bb10: e1a00820     	lsr	r0, r0, #16
    bb14: e54b000a     	strb	r0, [r11, #-10]
    bb18: e55b100a     	ldrb	r1, [r11, #-10]
    bb1c: e15b00bc     	ldrh	r0, [r11, #-12]
    bb20: e1800801     	orr	r0, r0, r1, lsl #16
    bb24: e350007f     	cmp	r0, #127
    bb28: 8a000009     	bhi	0xbb54 <unicode.utf8Decode2+0x20c> @ imm = #36
    bb2c: eaffffff     	b	0xbb30 <unicode.utf8Decode2+0x1e8> @ imm = #-4
    bb30: e59d0014     	ldr	r0, [sp, #20]
    bb34: ebfff309     	bl	0x8760 <builtin.returnError> @ imm = #-13276
    bb38: e59d1018     	ldr	r1, [sp, #24]
    bb3c: e3a00008     	mov	r0, #8
    bb40: e5810004     	str	r0, [r1, #4]
    bb44: e3a00000     	mov	r0, #0
    bb48: e5810000     	str	r0, [r1]
    bb4c: e1a0d00b     	mov	sp, r11
    bb50: e8bd8800     	pop	{r11, pc}
    bb54: eaffffff     	b	0xbb58 <unicode.utf8Decode2+0x210> @ imm = #-4
    bb58: e59d1018     	ldr	r1, [sp, #24]
    bb5c: e55b000a     	ldrb	r0, [r11, #-10]
    bb60: e15b20bc     	ldrh	r2, [r11, #-12]
    bb64: e1820800     	orr	r0, r2, r0, lsl #16
    bb68: e3a03000     	mov	r3, #0
    bb6c: e14b30b4     	strh	r3, [r11, #-4]
    bb70: e14b20b8     	strh	r2, [r11, #-8]
    bb74: e59f2028     	ldr	r2, [pc, #40]           @ 0xbba4 <$d.67+0x8>
    bb78: e0000002     	and	r0, r0, r2
    bb7c: e1a00820     	lsr	r0, r0, #16
    bb80: e54b0006     	strb	r0, [r11, #-6]
    bb84: e51b0008     	ldr	r0, [r11, #-8]
    bb88: e51b2004     	ldr	r2, [r11, #-4]
    bb8c: e5812004     	str	r2, [r1, #4]
    bb90: e5810000     	str	r0, [r1]
    bb94: e1a0d00b     	mov	sp, r11
    bb98: e8bd8800     	pop	{r11, pc}

0000bb9c <$d.67>:
    bb9c: 0000cc84     	andeq	r12, r0, r4, lsl #25
    bba0: 0000c8f8     	strdeq	r12, sp, [r0], -r8
    bba4: 001fffff     	ldrsheq	pc, [pc], -pc

0000bba8 <unicode.utf8Decode3>:
    bba8: e92d4800     	push	{r11, lr}
    bbac: e1a0b00d     	mov	r11, sp
    bbb0: e24dd050     	sub	sp, sp, #80
    bbb4: e50b3014     	str	r3, [r11, #-20]
    bbb8: e50b1024     	str	r1, [r11, #-36]
    bbbc: e50b0020     	str	r0, [r11, #-32]
    bbc0: e1a00003     	mov	r0, r3
    bbc4: e50b001c     	str	r0, [r11, #-28]
    bbc8: e50b2018     	str	r2, [r11, #-24]
    bbcc: e2430003     	sub	r0, r3, #3
    bbd0: e16f0f10     	<unknown>
    bbd4: e1a002a0     	lsr	r0, r0, #5
    bbd8: ebfff54b     	bl	0x910c <debug.assert>   @ imm = #-10964
    bbdc: e51b3014     	ldr	r3, [r11, #-20]
    bbe0: e1a00003     	mov	r0, r3
    bbe4: e50b0010     	str	r0, [r11, #-16]
    bbe8: e3530000     	cmp	r3, #0
    bbec: 0a000001     	beq	0xbbf8 <unicode.utf8Decode3+0x50> @ imm = #4
    bbf0: eaffffff     	b	0xbbf4 <unicode.utf8Decode3+0x4c> @ imm = #-4
    bbf4: ea000002     	b	0xbc04 <unicode.utf8Decode3+0x5c> @ imm = #8
    bbf8: e51b1010     	ldr	r1, [r11, #-16]
    bbfc: e3a00000     	mov	r0, #0
    bc00: ebfff15f     	bl	0x8184 <builtin.panicOutOfBounds> @ imm = #-14980
    bc04: e51b0018     	ldr	r0, [r11, #-24]
    bc08: e5d00000     	ldrb	r0, [r0]
    bc0c: e20000f0     	and	r0, r0, #240
    bc10: e24000e0     	sub	r0, r0, #224
    bc14: e16f0f10     	<unknown>
    bc18: e1a002a0     	lsr	r0, r0, #5
    bc1c: ebfff53a     	bl	0x910c <debug.assert>   @ imm = #-11032
    bc20: e51b001c     	ldr	r0, [r11, #-28]
    bc24: e1a01000     	mov	r1, r0
    bc28: e58d1028     	str	r1, [sp, #40]
    bc2c: e3500000     	cmp	r0, #0
    bc30: 0a000001     	beq	0xbc3c <unicode.utf8Decode3+0x94> @ imm = #4
    bc34: eaffffff     	b	0xbc38 <unicode.utf8Decode3+0x90> @ imm = #-4
    bc38: ea000002     	b	0xbc48 <unicode.utf8Decode3+0xa0> @ imm = #8
    bc3c: e59d1028     	ldr	r1, [sp, #40]
    bc40: e3a00000     	mov	r0, #0
    bc44: ebfff14e     	bl	0x8184 <builtin.panicOutOfBounds> @ imm = #-15048
    bc48: e51b001c     	ldr	r0, [r11, #-28]
    bc4c: e51b1018     	ldr	r1, [r11, #-24]
    bc50: e5d11000     	ldrb	r1, [r1]
    bc54: e201100f     	and	r1, r1, #15
    bc58: e3a02000     	mov	r2, #0
    bc5c: e54b200a     	strb	r2, [r11, #-10]
    bc60: e14b10bc     	strh	r1, [r11, #-12]
    bc64: e1a01000     	mov	r1, r0
    bc68: e58d1024     	str	r1, [sp, #36]
    bc6c: e3500002     	cmp	r0, #2
    bc70: 3a000001     	blo	0xbc7c <unicode.utf8Decode3+0xd4> @ imm = #4
    bc74: eaffffff     	b	0xbc78 <unicode.utf8Decode3+0xd0> @ imm = #-4
    bc78: ea000002     	b	0xbc88 <unicode.utf8Decode3+0xe0> @ imm = #8
    bc7c: e59d1024     	ldr	r1, [sp, #36]
    bc80: e3a00001     	mov	r0, #1
    bc84: ebfff13e     	bl	0x8184 <builtin.panicOutOfBounds> @ imm = #-15112
    bc88: e51b0018     	ldr	r0, [r11, #-24]
    bc8c: e5d00001     	ldrb	r0, [r0, #1]
    bc90: e20000c0     	and	r0, r0, #192
    bc94: e3500080     	cmp	r0, #128
    bc98: 0a000009     	beq	0xbcc4 <unicode.utf8Decode3+0x11c> @ imm = #36
    bc9c: eaffffff     	b	0xbca0 <unicode.utf8Decode3+0xf8> @ imm = #-4
    bca0: e51b0024     	ldr	r0, [r11, #-36]
    bca4: ebfff2ad     	bl	0x8760 <builtin.returnError> @ imm = #-13644
    bca8: e51b1020     	ldr	r1, [r11, #-32]
    bcac: e3a00007     	mov	r0, #7
    bcb0: e5810004     	str	r0, [r1, #4]
    bcb4: e3a00000     	mov	r0, #0
    bcb8: e5810000     	str	r0, [r1]
    bcbc: e1a0d00b     	mov	sp, r11
    bcc0: e8bd8800     	pop	{r11, pc}
    bcc4: eaffffff     	b	0xbcc8 <unicode.utf8Decode3+0x120> @ imm = #-4
    bcc8: e55b100a     	ldrb	r1, [r11, #-10]
    bccc: e15b00bc     	ldrh	r0, [r11, #-12]
    bcd0: e1800801     	orr	r0, r0, r1, lsl #16
    bcd4: e58d0020     	str	r0, [sp, #32]
    bcd8: e3a00000     	mov	r0, #0
    bcdc: e3500000     	cmp	r0, #0
    bce0: 1a000001     	bne	0xbcec <unicode.utf8Decode3+0x144> @ imm = #4
    bce4: eaffffff     	b	0xbce8 <unicode.utf8Decode3+0x140> @ imm = #-4
    bce8: ea000004     	b	0xbd00 <unicode.utf8Decode3+0x158> @ imm = #16
    bcec: e59f02a0     	ldr	r0, [pc, #672]          @ 0xbf94 <$d.69>
    bcf0: e59f32a0     	ldr	r3, [pc, #672]          @ 0xbf98 <$d.69+0x4>
    bcf4: e3a0102a     	mov	r1, #42
    bcf8: e3a02000     	mov	r2, #0
    bcfc: ebfff15d     	bl	0x8278 <builtin.default_panic> @ imm = #-14988
    bd00: e51b001c     	ldr	r0, [r11, #-28]
    bd04: e59d3020     	ldr	r3, [sp, #32]
    bd08: e1a01303     	lsl	r1, r3, #6
    bd0c: e3a0201f     	mov	r2, #31
    bd10: e0022523     	and	r2, r2, r3, lsr #10
    bd14: e54b200a     	strb	r2, [r11, #-10]
    bd18: e14b10bc     	strh	r1, [r11, #-12]
    bd1c: e55b200a     	ldrb	r2, [r11, #-10]
    bd20: e15b10bc     	ldrh	r1, [r11, #-12]
    bd24: e1811802     	orr	r1, r1, r2, lsl #16
    bd28: e58d1018     	str	r1, [sp, #24]
    bd2c: e1a01000     	mov	r1, r0
    bd30: e58d101c     	str	r1, [sp, #28]
    bd34: e3500002     	cmp	r0, #2
    bd38: 3a000001     	blo	0xbd44 <unicode.utf8Decode3+0x19c> @ imm = #4
    bd3c: eaffffff     	b	0xbd40 <unicode.utf8Decode3+0x198> @ imm = #-4
    bd40: ea000002     	b	0xbd50 <unicode.utf8Decode3+0x1a8> @ imm = #8
    bd44: e59d101c     	ldr	r1, [sp, #28]
    bd48: e3a00001     	mov	r0, #1
    bd4c: ebfff10c     	bl	0x8184 <builtin.panicOutOfBounds> @ imm = #-15312
    bd50: e51b001c     	ldr	r0, [r11, #-28]
    bd54: e59d1018     	ldr	r1, [sp, #24]
    bd58: e51b2018     	ldr	r2, [r11, #-24]
    bd5c: e5d22001     	ldrb	r2, [r2, #1]
    bd60: e202203f     	and	r2, r2, #63
    bd64: e1811002     	orr	r1, r1, r2
    bd68: e14b10bc     	strh	r1, [r11, #-12]
    bd6c: e59f2228     	ldr	r2, [pc, #552]          @ 0xbf9c <$d.69+0x8>
    bd70: e0011002     	and	r1, r1, r2
    bd74: e1a01821     	lsr	r1, r1, #16
    bd78: e54b100a     	strb	r1, [r11, #-10]
    bd7c: e1a01000     	mov	r1, r0
    bd80: e58d1014     	str	r1, [sp, #20]
    bd84: e3500003     	cmp	r0, #3
    bd88: 3a000001     	blo	0xbd94 <unicode.utf8Decode3+0x1ec> @ imm = #4
    bd8c: eaffffff     	b	0xbd90 <unicode.utf8Decode3+0x1e8> @ imm = #-4
    bd90: ea000002     	b	0xbda0 <unicode.utf8Decode3+0x1f8> @ imm = #8
    bd94: e59d1014     	ldr	r1, [sp, #20]
    bd98: e3a00002     	mov	r0, #2
    bd9c: ebfff0f8     	bl	0x8184 <builtin.panicOutOfBounds> @ imm = #-15392
    bda0: e51b0018     	ldr	r0, [r11, #-24]
    bda4: e5d00002     	ldrb	r0, [r0, #2]
    bda8: e20000c0     	and	r0, r0, #192
    bdac: e3500080     	cmp	r0, #128
    bdb0: 0a000009     	beq	0xbddc <unicode.utf8Decode3+0x234> @ imm = #36
    bdb4: eaffffff     	b	0xbdb8 <unicode.utf8Decode3+0x210> @ imm = #-4
    bdb8: e51b0024     	ldr	r0, [r11, #-36]
    bdbc: ebfff267     	bl	0x8760 <builtin.returnError> @ imm = #-13924
    bdc0: e51b1020     	ldr	r1, [r11, #-32]
    bdc4: e3a00007     	mov	r0, #7
    bdc8: e5810004     	str	r0, [r1, #4]
    bdcc: e3a00000     	mov	r0, #0
    bdd0: e5810000     	str	r0, [r1]
    bdd4: e1a0d00b     	mov	sp, r11
    bdd8: e8bd8800     	pop	{r11, pc}
    bddc: eaffffff     	b	0xbde0 <unicode.utf8Decode3+0x238> @ imm = #-4
    bde0: e55b100a     	ldrb	r1, [r11, #-10]
    bde4: e15b00bc     	ldrh	r0, [r11, #-12]
    bde8: e1800801     	orr	r0, r0, r1, lsl #16
    bdec: e58d0010     	str	r0, [sp, #16]
    bdf0: e3a00000     	mov	r0, #0
    bdf4: e3500000     	cmp	r0, #0
    bdf8: 1a000001     	bne	0xbe04 <unicode.utf8Decode3+0x25c> @ imm = #4
    bdfc: eaffffff     	b	0xbe00 <unicode.utf8Decode3+0x258> @ imm = #-4
    be00: ea000004     	b	0xbe18 <unicode.utf8Decode3+0x270> @ imm = #16
    be04: e59f0194     	ldr	r0, [pc, #404]          @ 0xbfa0 <$d.69+0xc>
    be08: e59f3194     	ldr	r3, [pc, #404]          @ 0xbfa4 <$d.69+0x10>
    be0c: e3a0102a     	mov	r1, #42
    be10: e3a02000     	mov	r2, #0
    be14: ebfff117     	bl	0x8278 <builtin.default_panic> @ imm = #-15268
    be18: e51b001c     	ldr	r0, [r11, #-28]
    be1c: e59d3010     	ldr	r3, [sp, #16]
    be20: e1a01303     	lsl	r1, r3, #6
    be24: e3a0201f     	mov	r2, #31
    be28: e0022523     	and	r2, r2, r3, lsr #10
    be2c: e54b200a     	strb	r2, [r11, #-10]
    be30: e14b10bc     	strh	r1, [r11, #-12]
    be34: e55b200a     	ldrb	r2, [r11, #-10]
    be38: e15b10bc     	ldrh	r1, [r11, #-12]
    be3c: e1811802     	orr	r1, r1, r2, lsl #16
    be40: e58d1008     	str	r1, [sp, #8]
    be44: e1a01000     	mov	r1, r0
    be48: e58d100c     	str	r1, [sp, #12]
    be4c: e3500003     	cmp	r0, #3
    be50: 3a000001     	blo	0xbe5c <unicode.utf8Decode3+0x2b4> @ imm = #4
    be54: eaffffff     	b	0xbe58 <unicode.utf8Decode3+0x2b0> @ imm = #-4
    be58: ea000002     	b	0xbe68 <unicode.utf8Decode3+0x2c0> @ imm = #8
    be5c: e59d100c     	ldr	r1, [sp, #12]
    be60: e3a00002     	mov	r0, #2
    be64: ebfff0c6     	bl	0x8184 <builtin.panicOutOfBounds> @ imm = #-15592
    be68: e59d0008     	ldr	r0, [sp, #8]
    be6c: e51b1018     	ldr	r1, [r11, #-24]
    be70: e5d11002     	ldrb	r1, [r1, #2]
    be74: e201103f     	and	r1, r1, #63
    be78: e1800001     	orr	r0, r0, r1
    be7c: e14b00bc     	strh	r0, [r11, #-12]
    be80: e59f1114     	ldr	r1, [pc, #276]          @ 0xbf9c <$d.69+0x8>
    be84: e0000001     	and	r0, r0, r1
    be88: e1a00820     	lsr	r0, r0, #16
    be8c: e54b000a     	strb	r0, [r11, #-10]
    be90: e55b100a     	ldrb	r1, [r11, #-10]
    be94: e15b00bc     	ldrh	r0, [r11, #-12]
    be98: e1801801     	orr	r1, r0, r1, lsl #16
    be9c: e3a00000     	mov	r0, #0
    bea0: e15005a1     	cmp	r0, r1, lsr #11
    bea4: 1a000009     	bne	0xbed0 <unicode.utf8Decode3+0x328> @ imm = #36
    bea8: eaffffff     	b	0xbeac <unicode.utf8Decode3+0x304> @ imm = #-4
    beac: e51b0024     	ldr	r0, [r11, #-36]
    beb0: ebfff22a     	bl	0x8760 <builtin.returnError> @ imm = #-14168
    beb4: e51b1020     	ldr	r1, [r11, #-32]
    beb8: e3a00008     	mov	r0, #8
    bebc: e5810004     	str	r0, [r1, #4]
    bec0: e3a00000     	mov	r0, #0
    bec4: e5810000     	str	r0, [r1]
    bec8: e1a0d00b     	mov	sp, r11
    becc: e8bd8800     	pop	{r11, pc}
    bed0: eaffffff     	b	0xbed4 <unicode.utf8Decode3+0x32c> @ imm = #-4
    bed4: e55b100a     	ldrb	r1, [r11, #-10]
    bed8: e15b00bc     	ldrh	r0, [r11, #-12]
    bedc: e1800801     	orr	r0, r0, r1, lsl #16
    bee0: e3500b36     	cmp	r0, #55296
    bee4: 3a000008     	blo	0xbf0c <unicode.utf8Decode3+0x364> @ imm = #32
    bee8: eaffffff     	b	0xbeec <unicode.utf8Decode3+0x344> @ imm = #-4
    beec: e55b100a     	ldrb	r1, [r11, #-10]
    bef0: e15b00bc     	ldrh	r0, [r11, #-12]
    bef4: e1801801     	orr	r1, r0, r1, lsl #16
    bef8: e3a00000     	mov	r0, #0
    befc: e3510a0e     	cmp	r1, #57344
    bf00: 33a00001     	movlo	r0, #1
    bf04: e58d0004     	str	r0, [sp, #4]
    bf08: ea000002     	b	0xbf18 <unicode.utf8Decode3+0x370> @ imm = #8
    bf0c: e3a00000     	mov	r0, #0
    bf10: e58d0004     	str	r0, [sp, #4]
    bf14: eaffffff     	b	0xbf18 <unicode.utf8Decode3+0x370> @ imm = #-4
    bf18: e59d0004     	ldr	r0, [sp, #4]
    bf1c: e3100001     	tst	r0, #1
    bf20: 0a000009     	beq	0xbf4c <unicode.utf8Decode3+0x3a4> @ imm = #36
    bf24: eaffffff     	b	0xbf28 <unicode.utf8Decode3+0x380> @ imm = #-4
    bf28: e51b0024     	ldr	r0, [r11, #-36]
    bf2c: ebfff20b     	bl	0x8760 <builtin.returnError> @ imm = #-14292
    bf30: e51b1020     	ldr	r1, [r11, #-32]
    bf34: e3a00009     	mov	r0, #9
    bf38: e5810004     	str	r0, [r1, #4]
    bf3c: e3a00000     	mov	r0, #0
    bf40: e5810000     	str	r0, [r1]
    bf44: e1a0d00b     	mov	sp, r11
    bf48: e8bd8800     	pop	{r11, pc}
    bf4c: eaffffff     	b	0xbf50 <unicode.utf8Decode3+0x3a8> @ imm = #-4
    bf50: e51b1020     	ldr	r1, [r11, #-32]
    bf54: e55b000a     	ldrb	r0, [r11, #-10]
    bf58: e15b20bc     	ldrh	r2, [r11, #-12]
    bf5c: e1820800     	orr	r0, r2, r0, lsl #16
    bf60: e3a03000     	mov	r3, #0
    bf64: e14b30b4     	strh	r3, [r11, #-4]
    bf68: e14b20b8     	strh	r2, [r11, #-8]
    bf6c: e59f2028     	ldr	r2, [pc, #40]           @ 0xbf9c <$d.69+0x8>
    bf70: e0000002     	and	r0, r0, r2
    bf74: e1a00820     	lsr	r0, r0, #16
    bf78: e54b0006     	strb	r0, [r11, #-6]
    bf7c: e51b0008     	ldr	r0, [r11, #-8]
    bf80: e51b2004     	ldr	r2, [r11, #-4]
    bf84: e5812004     	str	r2, [r1, #4]
    bf88: e5810000     	str	r0, [r1]
    bf8c: e1a0d00b     	mov	sp, r11
    bf90: e8bd8800     	pop	{r11, pc}

0000bf94 <$d.69>:
    bf94: 0000ccae     	andeq	r12, r0, lr, lsr #25
    bf98: 0000c910     	andeq	r12, r0, r0, lsl r9
    bf9c: 001fffff     	ldrsheq	pc, [pc], -pc
    bfa0: 0000ccd8     	ldrdeq	r12, sp, [r0], -r8
    bfa4: 0000c920     	andeq	r12, r0, r0, lsr #18

0000bfa8 <unicode.utf8Decode4>:
    bfa8: e92d4800     	push	{r11, lr}
    bfac: e1a0b00d     	mov	r11, sp
    bfb0: e24dd058     	sub	sp, sp, #88
    bfb4: e50b3014     	str	r3, [r11, #-20]
    bfb8: e50b1024     	str	r1, [r11, #-36]
    bfbc: e50b0020     	str	r0, [r11, #-32]
    bfc0: e1a00003     	mov	r0, r3
    bfc4: e50b001c     	str	r0, [r11, #-28]
    bfc8: e50b2018     	str	r2, [r11, #-24]
    bfcc: e2430004     	sub	r0, r3, #4
    bfd0: e16f0f10     	<unknown>
    bfd4: e1a002a0     	lsr	r0, r0, #5
    bfd8: ebfff44b     	bl	0x910c <debug.assert>   @ imm = #-11988
    bfdc: e51b3014     	ldr	r3, [r11, #-20]
    bfe0: e1a00003     	mov	r0, r3
    bfe4: e50b0010     	str	r0, [r11, #-16]
    bfe8: e3530000     	cmp	r3, #0
    bfec: 0a000001     	beq	0xbff8 <unicode.utf8Decode4+0x50> @ imm = #4
    bff0: eaffffff     	b	0xbff4 <unicode.utf8Decode4+0x4c> @ imm = #-4
    bff4: ea000002     	b	0xc004 <unicode.utf8Decode4+0x5c> @ imm = #8
    bff8: e51b1010     	ldr	r1, [r11, #-16]
    bffc: e3a00000     	mov	r0, #0
    c000: ebfff05f     	bl	0x8184 <builtin.panicOutOfBounds> @ imm = #-16004
    c004: e51b0018     	ldr	r0, [r11, #-24]
    c008: e5d00000     	ldrb	r0, [r0]
    c00c: e20000f8     	and	r0, r0, #248
    c010: e24000f0     	sub	r0, r0, #240
    c014: e16f0f10     	<unknown>
    c018: e1a002a0     	lsr	r0, r0, #5
    c01c: ebfff43a     	bl	0x910c <debug.assert>   @ imm = #-12056
    c020: e51b001c     	ldr	r0, [r11, #-28]
    c024: e1a01000     	mov	r1, r0
    c028: e50b1028     	str	r1, [r11, #-40]
    c02c: e3500000     	cmp	r0, #0
    c030: 0a000001     	beq	0xc03c <unicode.utf8Decode4+0x94> @ imm = #4
    c034: eaffffff     	b	0xc038 <unicode.utf8Decode4+0x90> @ imm = #-4
    c038: ea000002     	b	0xc048 <unicode.utf8Decode4+0xa0> @ imm = #8
    c03c: e51b1028     	ldr	r1, [r11, #-40]
    c040: e3a00000     	mov	r0, #0
    c044: ebfff04e     	bl	0x8184 <builtin.panicOutOfBounds> @ imm = #-16072
    c048: e51b001c     	ldr	r0, [r11, #-28]
    c04c: e51b1018     	ldr	r1, [r11, #-24]
    c050: e5d11000     	ldrb	r1, [r1]
    c054: e2011007     	and	r1, r1, #7
    c058: e3a02000     	mov	r2, #0
    c05c: e54b200a     	strb	r2, [r11, #-10]
    c060: e14b10bc     	strh	r1, [r11, #-12]
    c064: e1a01000     	mov	r1, r0
    c068: e58d102c     	str	r1, [sp, #44]
    c06c: e3500002     	cmp	r0, #2
    c070: 3a000001     	blo	0xc07c <unicode.utf8Decode4+0xd4> @ imm = #4
    c074: eaffffff     	b	0xc078 <unicode.utf8Decode4+0xd0> @ imm = #-4
    c078: ea000002     	b	0xc088 <unicode.utf8Decode4+0xe0> @ imm = #8
    c07c: e59d102c     	ldr	r1, [sp, #44]
    c080: e3a00001     	mov	r0, #1
    c084: ebfff03e     	bl	0x8184 <builtin.panicOutOfBounds> @ imm = #-16136
    c088: e51b0018     	ldr	r0, [r11, #-24]
    c08c: e5d00001     	ldrb	r0, [r0, #1]
    c090: e20000c0     	and	r0, r0, #192
    c094: e3500080     	cmp	r0, #128
    c098: 0a000009     	beq	0xc0c4 <unicode.utf8Decode4+0x11c> @ imm = #36
    c09c: eaffffff     	b	0xc0a0 <unicode.utf8Decode4+0xf8> @ imm = #-4
    c0a0: e51b0024     	ldr	r0, [r11, #-36]
    c0a4: ebfff1ad     	bl	0x8760 <builtin.returnError> @ imm = #-14668
    c0a8: e51b1020     	ldr	r1, [r11, #-32]
    c0ac: e3a00007     	mov	r0, #7
    c0b0: e5810004     	str	r0, [r1, #4]
    c0b4: e3a00000     	mov	r0, #0
    c0b8: e5810000     	str	r0, [r1]
    c0bc: e1a0d00b     	mov	sp, r11
    c0c0: e8bd8800     	pop	{r11, pc}
    c0c4: eaffffff     	b	0xc0c8 <unicode.utf8Decode4+0x120> @ imm = #-4
    c0c8: e55b100a     	ldrb	r1, [r11, #-10]
    c0cc: e15b00bc     	ldrh	r0, [r11, #-12]
    c0d0: e1800801     	orr	r0, r0, r1, lsl #16
    c0d4: e58d0028     	str	r0, [sp, #40]
    c0d8: e3a00000     	mov	r0, #0
    c0dc: e3500000     	cmp	r0, #0
    c0e0: 1a000001     	bne	0xc0ec <unicode.utf8Decode4+0x144> @ imm = #4
    c0e4: eaffffff     	b	0xc0e8 <unicode.utf8Decode4+0x140> @ imm = #-4
    c0e8: ea000004     	b	0xc100 <unicode.utf8Decode4+0x158> @ imm = #16
    c0ec: e59f0378     	ldr	r0, [pc, #888]          @ 0xc46c <$d.71>
    c0f0: e59f3378     	ldr	r3, [pc, #888]          @ 0xc470 <$d.71+0x4>
    c0f4: e3a0102a     	mov	r1, #42
    c0f8: e3a02000     	mov	r2, #0
    c0fc: ebfff05d     	bl	0x8278 <builtin.default_panic> @ imm = #-16012
    c100: e51b001c     	ldr	r0, [r11, #-28]
    c104: e59d3028     	ldr	r3, [sp, #40]
    c108: e1a01303     	lsl	r1, r3, #6
    c10c: e3a0201f     	mov	r2, #31
    c110: e0022523     	and	r2, r2, r3, lsr #10
    c114: e54b200a     	strb	r2, [r11, #-10]
    c118: e14b10bc     	strh	r1, [r11, #-12]
    c11c: e55b200a     	ldrb	r2, [r11, #-10]
    c120: e15b10bc     	ldrh	r1, [r11, #-12]
    c124: e1811802     	orr	r1, r1, r2, lsl #16
    c128: e58d1020     	str	r1, [sp, #32]
    c12c: e1a01000     	mov	r1, r0
    c130: e58d1024     	str	r1, [sp, #36]
    c134: e3500002     	cmp	r0, #2
    c138: 3a000001     	blo	0xc144 <unicode.utf8Decode4+0x19c> @ imm = #4
    c13c: eaffffff     	b	0xc140 <unicode.utf8Decode4+0x198> @ imm = #-4
    c140: ea000002     	b	0xc150 <unicode.utf8Decode4+0x1a8> @ imm = #8
    c144: e59d1024     	ldr	r1, [sp, #36]
    c148: e3a00001     	mov	r0, #1
    c14c: ebfff00c     	bl	0x8184 <builtin.panicOutOfBounds> @ imm = #-16336
    c150: e51b001c     	ldr	r0, [r11, #-28]
    c154: e59d1020     	ldr	r1, [sp, #32]
    c158: e51b2018     	ldr	r2, [r11, #-24]
    c15c: e5d22001     	ldrb	r2, [r2, #1]
    c160: e202203f     	and	r2, r2, #63
    c164: e1811002     	orr	r1, r1, r2
    c168: e14b10bc     	strh	r1, [r11, #-12]
    c16c: e59f2300     	ldr	r2, [pc, #768]          @ 0xc474 <$d.71+0x8>
    c170: e0011002     	and	r1, r1, r2
    c174: e1a01821     	lsr	r1, r1, #16
    c178: e54b100a     	strb	r1, [r11, #-10]
    c17c: e1a01000     	mov	r1, r0
    c180: e58d101c     	str	r1, [sp, #28]
    c184: e3500003     	cmp	r0, #3
    c188: 3a000001     	blo	0xc194 <unicode.utf8Decode4+0x1ec> @ imm = #4
    c18c: eaffffff     	b	0xc190 <unicode.utf8Decode4+0x1e8> @ imm = #-4
    c190: ea000002     	b	0xc1a0 <unicode.utf8Decode4+0x1f8> @ imm = #8
    c194: e59d101c     	ldr	r1, [sp, #28]
    c198: e3a00002     	mov	r0, #2
    c19c: ebffeff8     	bl	0x8184 <builtin.panicOutOfBounds> @ imm = #-16416
    c1a0: e51b0018     	ldr	r0, [r11, #-24]
    c1a4: e5d00002     	ldrb	r0, [r0, #2]
    c1a8: e20000c0     	and	r0, r0, #192
    c1ac: e3500080     	cmp	r0, #128
    c1b0: 0a000009     	beq	0xc1dc <unicode.utf8Decode4+0x234> @ imm = #36
    c1b4: eaffffff     	b	0xc1b8 <unicode.utf8Decode4+0x210> @ imm = #-4
    c1b8: e51b0024     	ldr	r0, [r11, #-36]
    c1bc: ebfff167     	bl	0x8760 <builtin.returnError> @ imm = #-14948
    c1c0: e51b1020     	ldr	r1, [r11, #-32]
    c1c4: e3a00007     	mov	r0, #7
    c1c8: e5810004     	str	r0, [r1, #4]
    c1cc: e3a00000     	mov	r0, #0
    c1d0: e5810000     	str	r0, [r1]
    c1d4: e1a0d00b     	mov	sp, r11
    c1d8: e8bd8800     	pop	{r11, pc}
    c1dc: eaffffff     	b	0xc1e0 <unicode.utf8Decode4+0x238> @ imm = #-4
    c1e0: e55b100a     	ldrb	r1, [r11, #-10]
    c1e4: e15b00bc     	ldrh	r0, [r11, #-12]
    c1e8: e1800801     	orr	r0, r0, r1, lsl #16
    c1ec: e58d0018     	str	r0, [sp, #24]
    c1f0: e3a00000     	mov	r0, #0
    c1f4: e3500000     	cmp	r0, #0
    c1f8: 1a000001     	bne	0xc204 <unicode.utf8Decode4+0x25c> @ imm = #4
    c1fc: eaffffff     	b	0xc200 <unicode.utf8Decode4+0x258> @ imm = #-4
    c200: ea000004     	b	0xc218 <unicode.utf8Decode4+0x270> @ imm = #16
    c204: e59f026c     	ldr	r0, [pc, #620]          @ 0xc478 <$d.71+0xc>
    c208: e59f326c     	ldr	r3, [pc, #620]          @ 0xc47c <$d.71+0x10>
    c20c: e3a0102a     	mov	r1, #42
    c210: e3a02000     	mov	r2, #0
    c214: ebfff017     	bl	0x8278 <builtin.default_panic> @ imm = #-16292
    c218: e51b001c     	ldr	r0, [r11, #-28]
    c21c: e59d3018     	ldr	r3, [sp, #24]
    c220: e1a01303     	lsl	r1, r3, #6
    c224: e3a0201f     	mov	r2, #31
    c228: e0022523     	and	r2, r2, r3, lsr #10
    c22c: e54b200a     	strb	r2, [r11, #-10]
    c230: e14b10bc     	strh	r1, [r11, #-12]
    c234: e55b200a     	ldrb	r2, [r11, #-10]
    c238: e15b10bc     	ldrh	r1, [r11, #-12]
    c23c: e1811802     	orr	r1, r1, r2, lsl #16
    c240: e58d1010     	str	r1, [sp, #16]
    c244: e1a01000     	mov	r1, r0
    c248: e58d1014     	str	r1, [sp, #20]
    c24c: e3500003     	cmp	r0, #3
    c250: 3a000001     	blo	0xc25c <unicode.utf8Decode4+0x2b4> @ imm = #4
    c254: eaffffff     	b	0xc258 <unicode.utf8Decode4+0x2b0> @ imm = #-4
    c258: ea000002     	b	0xc268 <unicode.utf8Decode4+0x2c0> @ imm = #8
    c25c: e59d1014     	ldr	r1, [sp, #20]
    c260: e3a00002     	mov	r0, #2
    c264: ebffefc6     	bl	0x8184 <builtin.panicOutOfBounds> @ imm = #-16616
    c268: e51b001c     	ldr	r0, [r11, #-28]
    c26c: e59d1010     	ldr	r1, [sp, #16]
    c270: e51b2018     	ldr	r2, [r11, #-24]
    c274: e5d22002     	ldrb	r2, [r2, #2]
    c278: e202203f     	and	r2, r2, #63
    c27c: e1811002     	orr	r1, r1, r2
    c280: e14b10bc     	strh	r1, [r11, #-12]
    c284: e59f21e8     	ldr	r2, [pc, #488]          @ 0xc474 <$d.71+0x8>
    c288: e0011002     	and	r1, r1, r2
    c28c: e1a01821     	lsr	r1, r1, #16
    c290: e54b100a     	strb	r1, [r11, #-10]
    c294: e1a01000     	mov	r1, r0
    c298: e58d100c     	str	r1, [sp, #12]
    c29c: e3500004     	cmp	r0, #4
    c2a0: 3a000001     	blo	0xc2ac <unicode.utf8Decode4+0x304> @ imm = #4
    c2a4: eaffffff     	b	0xc2a8 <unicode.utf8Decode4+0x300> @ imm = #-4
    c2a8: ea000002     	b	0xc2b8 <unicode.utf8Decode4+0x310> @ imm = #8
    c2ac: e59d100c     	ldr	r1, [sp, #12]
    c2b0: e3a00003     	mov	r0, #3
    c2b4: ebffefb2     	bl	0x8184 <builtin.panicOutOfBounds> @ imm = #-16696
    c2b8: e51b0018     	ldr	r0, [r11, #-24]
    c2bc: e5d00003     	ldrb	r0, [r0, #3]
    c2c0: e20000c0     	and	r0, r0, #192
    c2c4: e3500080     	cmp	r0, #128
    c2c8: 0a000009     	beq	0xc2f4 <unicode.utf8Decode4+0x34c> @ imm = #36
    c2cc: eaffffff     	b	0xc2d0 <unicode.utf8Decode4+0x328> @ imm = #-4
    c2d0: e51b0024     	ldr	r0, [r11, #-36]
    c2d4: ebfff121     	bl	0x8760 <builtin.returnError> @ imm = #-15228
    c2d8: e51b1020     	ldr	r1, [r11, #-32]
    c2dc: e3a00007     	mov	r0, #7
    c2e0: e5810004     	str	r0, [r1, #4]
    c2e4: e3a00000     	mov	r0, #0
    c2e8: e5810000     	str	r0, [r1]
    c2ec: e1a0d00b     	mov	sp, r11
    c2f0: e8bd8800     	pop	{r11, pc}
    c2f4: eaffffff     	b	0xc2f8 <unicode.utf8Decode4+0x350> @ imm = #-4
    c2f8: e55b100a     	ldrb	r1, [r11, #-10]
    c2fc: e15b00bc     	ldrh	r0, [r11, #-12]
    c300: e1800801     	orr	r0, r0, r1, lsl #16
    c304: e58d0008     	str	r0, [sp, #8]
    c308: e3a00000     	mov	r0, #0
    c30c: e3500000     	cmp	r0, #0
    c310: 1a000001     	bne	0xc31c <unicode.utf8Decode4+0x374> @ imm = #4
    c314: eaffffff     	b	0xc318 <unicode.utf8Decode4+0x370> @ imm = #-4
    c318: ea000004     	b	0xc330 <unicode.utf8Decode4+0x388> @ imm = #16
    c31c: e59f015c     	ldr	r0, [pc, #348]          @ 0xc480 <$d.71+0x14>
    c320: e59f315c     	ldr	r3, [pc, #348]          @ 0xc484 <$d.71+0x18>
    c324: e3a0102a     	mov	r1, #42
    c328: e3a02000     	mov	r2, #0
    c32c: ebffefd1     	bl	0x8278 <builtin.default_panic> @ imm = #-16572
    c330: e51b001c     	ldr	r0, [r11, #-28]
    c334: e59d3008     	ldr	r3, [sp, #8]
    c338: e1a01303     	lsl	r1, r3, #6
    c33c: e3a0201f     	mov	r2, #31
    c340: e0022523     	and	r2, r2, r3, lsr #10
    c344: e54b200a     	strb	r2, [r11, #-10]
    c348: e14b10bc     	strh	r1, [r11, #-12]
    c34c: e55b200a     	ldrb	r2, [r11, #-10]
    c350: e15b10bc     	ldrh	r1, [r11, #-12]
    c354: e1811802     	orr	r1, r1, r2, lsl #16
    c358: e58d1000     	str	r1, [sp]
    c35c: e1a01000     	mov	r1, r0
    c360: e58d1004     	str	r1, [sp, #4]
    c364: e3500004     	cmp	r0, #4
    c368: 3a000001     	blo	0xc374 <unicode.utf8Decode4+0x3cc> @ imm = #4
    c36c: eaffffff     	b	0xc370 <unicode.utf8Decode4+0x3c8> @ imm = #-4
    c370: ea000002     	b	0xc380 <unicode.utf8Decode4+0x3d8> @ imm = #8
    c374: e59d1004     	ldr	r1, [sp, #4]
    c378: e3a00003     	mov	r0, #3
    c37c: ebffef80     	bl	0x8184 <builtin.panicOutOfBounds> @ imm = #-16896
    c380: e59d0000     	ldr	r0, [sp]
    c384: e51b1018     	ldr	r1, [r11, #-24]
    c388: e5d11003     	ldrb	r1, [r1, #3]
    c38c: e201103f     	and	r1, r1, #63
    c390: e1800001     	orr	r0, r0, r1
    c394: e14b00bc     	strh	r0, [r11, #-12]
    c398: e59f10d4     	ldr	r1, [pc, #212]          @ 0xc474 <$d.71+0x8>
    c39c: e0000001     	and	r0, r0, r1
    c3a0: e1a00820     	lsr	r0, r0, #16
    c3a4: e54b000a     	strb	r0, [r11, #-10]
    c3a8: e55b000a     	ldrb	r0, [r11, #-10]
    c3ac: e1a01800     	lsl	r1, r0, #16
    c3b0: e3a00000     	mov	r0, #0
    c3b4: e1500821     	cmp	r0, r1, lsr #16
    c3b8: 1a000009     	bne	0xc3e4 <unicode.utf8Decode4+0x43c> @ imm = #36
    c3bc: eaffffff     	b	0xc3c0 <unicode.utf8Decode4+0x418> @ imm = #-4
    c3c0: e51b0024     	ldr	r0, [r11, #-36]
    c3c4: ebfff0e5     	bl	0x8760 <builtin.returnError> @ imm = #-15468
    c3c8: e51b1020     	ldr	r1, [r11, #-32]
    c3cc: e3a00008     	mov	r0, #8
    c3d0: e5810004     	str	r0, [r1, #4]
    c3d4: e3a00000     	mov	r0, #0
    c3d8: e5810000     	str	r0, [r1]
    c3dc: e1a0d00b     	mov	sp, r11
    c3e0: e8bd8800     	pop	{r11, pc}
    c3e4: eaffffff     	b	0xc3e8 <unicode.utf8Decode4+0x440> @ imm = #-4
    c3e8: e55b100a     	ldrb	r1, [r11, #-10]
    c3ec: e15b00bc     	ldrh	r0, [r11, #-12]
    c3f0: e1800801     	orr	r0, r0, r1, lsl #16
    c3f4: e3500811     	cmp	r0, #1114112
    c3f8: 3a000009     	blo	0xc424 <unicode.utf8Decode4+0x47c> @ imm = #36
    c3fc: eaffffff     	b	0xc400 <unicode.utf8Decode4+0x458> @ imm = #-4
    c400: e51b0024     	ldr	r0, [r11, #-36]
    c404: ebfff0d5     	bl	0x8760 <builtin.returnError> @ imm = #-15532
    c408: e51b1020     	ldr	r1, [r11, #-32]
    c40c: e3a0000a     	mov	r0, #10
    c410: e5810004     	str	r0, [r1, #4]
    c414: e3a00000     	mov	r0, #0
    c418: e5810000     	str	r0, [r1]
    c41c: e1a0d00b     	mov	sp, r11
    c420: e8bd8800     	pop	{r11, pc}
    c424: eaffffff     	b	0xc428 <unicode.utf8Decode4+0x480> @ imm = #-4
    c428: e51b1020     	ldr	r1, [r11, #-32]
    c42c: e55b000a     	ldrb	r0, [r11, #-10]
    c430: e15b20bc     	ldrh	r2, [r11, #-12]
    c434: e1820800     	orr	r0, r2, r0, lsl #16
    c438: e3a03000     	mov	r3, #0
    c43c: e14b30b4     	strh	r3, [r11, #-4]
    c440: e14b20b8     	strh	r2, [r11, #-8]
    c444: e59f2028     	ldr	r2, [pc, #40]           @ 0xc474 <$d.71+0x8>
    c448: e0000002     	and	r0, r0, r2
    c44c: e1a00820     	lsr	r0, r0, #16
    c450: e54b0006     	strb	r0, [r11, #-6]
    c454: e51b0008     	ldr	r0, [r11, #-8]
    c458: e51b2004     	ldr	r2, [r11, #-4]
    c45c: e5812004     	str	r2, [r1, #4]
    c460: e5810000     	str	r0, [r1]
    c464: e1a0d00b     	mov	sp, r11
    c468: e8bd8800     	pop	{r11, pc}

0000c46c <$d.71>:
    c46c: 0000cd02     	andeq	r12, r0, r2, lsl #26
    c470: 0000c940     	andeq	r12, r0, r0, asr #18
    c474: 001fffff     	ldrsheq	pc, [pc], -pc
    c478: 0000cd2c     	andeq	r12, r0, r12, lsr #26
    c47c: 0000c950     	andeq	r12, r0, r0, asr r9
    c480: 0000cd56     	andeq	r12, r0, r6, asr sp
    c484: 0000c960     	andeq	r12, r0, r0, ror #18

0000c488 <mem.set__anon_1801>:
    c488: e92d4800     	push	{r11, lr}
    c48c: e1a0b00d     	mov	r11, sp
    c490: e24dd028     	sub	sp, sp, #40
    c494: e58d200c     	str	r2, [sp, #12]
    c498: e58d1018     	str	r1, [sp, #24]
    c49c: e58d0014     	str	r0, [sp, #20]
    c4a0: e59d0018     	ldr	r0, [sp, #24]
    c4a4: e58d0010     	str	r0, [sp, #16]
    c4a8: e3a00000     	mov	r0, #0
    c4ac: e50b000c     	str	r0, [r11, #-12]
    c4b0: eaffffff     	b	0xc4b4 <mem.set__anon_1801+0x2c> @ imm = #-4
    c4b4: e59d1010     	ldr	r1, [sp, #16]
    c4b8: e51b000c     	ldr	r0, [r11, #-12]
    c4bc: e58d0008     	str	r0, [sp, #8]
    c4c0: e1500001     	cmp	r0, r1
    c4c4: 2a000009     	bhs	0xc4f0 <mem.set__anon_1801+0x68> @ imm = #36
    c4c8: eaffffff     	b	0xc4cc <mem.set__anon_1801+0x44> @ imm = #-4
    c4cc: e59d0008     	ldr	r0, [sp, #8]
    c4d0: e59d1014     	ldr	r1, [sp, #20]
    c4d4: e58d1000     	str	r1, [sp]
    c4d8: e59d1018     	ldr	r1, [sp, #24]
    c4dc: e1a02001     	mov	r2, r1
    c4e0: e58d2004     	str	r2, [sp, #4]
    c4e4: e1500001     	cmp	r0, r1
    c4e8: 3a000001     	blo	0xc4f4 <mem.set__anon_1801+0x6c> @ imm = #4
    c4ec: ea000001     	b	0xc4f8 <mem.set__anon_1801+0x70> @ imm = #4
    c4f0: ea00001b     	b	0xc564 <mem.set__anon_1801+0xdc> @ imm = #108
    c4f4: ea000002     	b	0xc504 <mem.set__anon_1801+0x7c> @ imm = #8
    c4f8: e59d1004     	ldr	r1, [sp, #4]
    c4fc: e59d0008     	ldr	r0, [sp, #8]
    c500: ebffef1f     	bl	0x8184 <builtin.panicOutOfBounds> @ imm = #-17284
    c504: e59d000c     	ldr	r0, [sp, #12]
    c508: e59d1000     	ldr	r1, [sp]
    c50c: e59d2008     	ldr	r2, [sp, #8]
    c510: e7c10002     	strb	r0, [r1, r2]
    c514: eaffffff     	b	0xc518 <mem.set__anon_1801+0x90> @ imm = #-4
    c518: e51b000c     	ldr	r0, [r11, #-12]
    c51c: e2901001     	adds	r1, r0, #1
    c520: e3a00000     	mov	r0, #0
    c524: e2a00000     	adc	r0, r0, #0
    c528: e50b1008     	str	r1, [r11, #-8]
    c52c: e54b0004     	strb	r0, [r11, #-4]
    c530: e55b0004     	ldrb	r0, [r11, #-4]
    c534: e3500000     	cmp	r0, #0
    c538: 1a000001     	bne	0xc544 <mem.set__anon_1801+0xbc> @ imm = #4
    c53c: eaffffff     	b	0xc540 <mem.set__anon_1801+0xb8> @ imm = #-4
    c540: ea000004     	b	0xc558 <mem.set__anon_1801+0xd0> @ imm = #16
    c544: e59f0020     	ldr	r0, [pc, #32]           @ 0xc56c <$d.73>
    c548: e59f3020     	ldr	r3, [pc, #32]           @ 0xc570 <$d.73+0x4>
    c54c: e3a01010     	mov	r1, #16
    c550: e3a02000     	mov	r2, #0
    c554: ebffef47     	bl	0x8278 <builtin.default_panic> @ imm = #-17124
    c558: e51b0008     	ldr	r0, [r11, #-8]
    c55c: e50b000c     	str	r0, [r11, #-12]
    c560: eaffffd3     	b	0xc4b4 <mem.set__anon_1801+0x2c> @ imm = #-180
    c564: e1a0d00b     	mov	sp, r11
    c568: e8bd8800     	pop	{r11, pc}

0000c56c <$d.73>:
    c56c: 0000d068     	andeq	sp, r0, r8, rrx
    c570: 0000c978     	andeq	r12, r0, r8, ror r9

0000c574 <math.min__anon_1802>:
    c574: e24dd008     	sub	sp, sp, #8
    c578: e58d1000     	str	r1, [sp]
    c57c: e58d0004     	str	r0, [sp, #4]
    c580: e1500001     	cmp	r0, r1
    c584: 2a000003     	bhs	0xc598 <math.min__anon_1802+0x24> @ imm = #12
    c588: eaffffff     	b	0xc58c <math.min__anon_1802+0x18> @ imm = #-4
    c58c: e59d0004     	ldr	r0, [sp, #4]
    c590: e28dd008     	add	sp, sp, #8
    c594: e12fff1e     	<unknown>
    c598: e59d0000     	ldr	r0, [sp]
    c59c: e28dd008     	add	sp, sp, #8
    c5a0: e12fff1e     	<unknown>

0000c5a4 <__aeabi_uidiv>:
    c5a4: e92d4c10     	push	{r4, r10, r11, lr}
    c5a8: e28db008     	add	r11, sp, #8
    c5ac: e1a02000     	mov	r2, r0
    c5b0: e3510000     	cmp	r1, #0
    c5b4: e3a00000     	mov	r0, #0
    c5b8: 13520000     	cmpne	r2, #0
    c5bc: 1a000000     	bne	0xc5c4 <__aeabi_uidiv+0x20> @ imm = #0
    c5c0: e8bd8c10     	pop	{r4, r10, r11, pc}
    c5c4: e3510000     	cmp	r1, #0
    c5c8: e3a0e020     	mov	lr, #32
    c5cc: 116fef11     	<unknown>
    c5d0: e3a0c020     	mov	r12, #32
    c5d4: e3520000     	cmp	r2, #0
    c5d8: 116fcf12     	<unknown>
    c5dc: e04e400c     	sub	r4, lr, r12
    c5e0: e354001f     	cmp	r4, #31
    c5e4: 88bd8c10     	pophi	{r4, r10, r11, pc}
    c5e8: 1a000001     	bne	0xc5f4 <__aeabi_uidiv+0x50> @ imm = #4
    c5ec: e1a00002     	mov	r0, r2
    c5f0: e8bd8c10     	pop	{r4, r10, r11, pc}
    c5f4: e2840001     	add	r0, r4, #1
    c5f8: e1a03032     	lsr	r3, r2, r0
    c5fc: e264001f     	rsb	r0, r4, #31
    c600: e1a00012     	lsl	r0, r2, r0
    c604: e1e0200e     	mvn	r2, lr
    c608: e082200c     	add	r2, r2, r12
    c60c: e3a0c000     	mov	r12, #0
    c610: e1a03083     	lsl	r3, r3, #1
    c614: e1833fa0     	orr	r3, r3, r0, lsr #31
    c618: e1e04003     	mvn	r4, r3
    c61c: e0944001     	adds	r4, r4, r1
    c620: e18c0080     	orr	r0, r12, r0, lsl #1
    c624: e1a0cfa4     	lsr	r12, r4, #31
    c628: 40433001     	submi	r3, r3, r1
    c62c: e2922001     	adds	r2, r2, #1
    c630: 3afffff6     	blo	0xc610 <__aeabi_uidiv+0x6c> @ imm = #-40
    c634: e18c0080     	orr	r0, r12, r0, lsl #1
    c638: e8bd8c10     	pop	{r4, r10, r11, pc}

0000c63c <__udivmodsi4>:
    c63c: e92d4830     	push	{r4, r5, r11, lr}
    c640: e28db008     	add	r11, sp, #8
    c644: e3510000     	cmp	r1, #0
    c648: e3a03000     	mov	r3, #0
    c64c: 13500000     	cmpne	r0, #0
    c650: 1a000004     	bne	0xc668 <__udivmodsi4+0x2c> @ imm = #16
    c654: e0010193     	<unknown>
    c658: e0400001     	sub	r0, r0, r1
    c65c: e5820000     	str	r0, [r2]
    c660: e1a00003     	mov	r0, r3
    c664: e8bd8830     	pop	{r4, r5, r11, pc}
    c668: e3510000     	cmp	r1, #0
    c66c: e3a05020     	mov	r5, #32
    c670: 116f5f11     	<unknown>
    c674: e3a0c020     	mov	r12, #32
    c678: e3500000     	cmp	r0, #0
    c67c: 116fcf10     	<unknown>
    c680: e045400c     	sub	r4, r5, r12
    c684: e354001f     	cmp	r4, #31
    c688: 8afffff1     	bhi	0xc654 <__udivmodsi4+0x18> @ imm = #-60
    c68c: e1a03000     	mov	r3, r0
    c690: 0affffef     	beq	0xc654 <__udivmodsi4+0x18> @ imm = #-68
    c694: e2843001     	add	r3, r4, #1
    c698: e264401f     	rsb	r4, r4, #31
    c69c: e1a03330     	lsr	r3, r0, r3
    c6a0: e1a0e410     	lsl	lr, r0, r4
    c6a4: e1e04005     	mvn	r4, r5
    c6a8: e084400c     	add	r4, r4, r12
    c6ac: e3a0c000     	mov	r12, #0
    c6b0: e1a03083     	lsl	r3, r3, #1
    c6b4: e1833fae     	orr	r3, r3, lr, lsr #31
    c6b8: e1e05003     	mvn	r5, r3
    c6bc: e0955001     	adds	r5, r5, r1
    c6c0: e18ce08e     	orr	lr, r12, lr, lsl #1
    c6c4: e1a0cfa5     	lsr	r12, r5, #31
    c6c8: 40433001     	submi	r3, r3, r1
    c6cc: e2944001     	adds	r4, r4, #1
    c6d0: 3afffff6     	blo	0xc6b0 <__udivmodsi4+0x74> @ imm = #-40
    c6d4: e18c308e     	orr	r3, r12, lr, lsl #1
    c6d8: eaffffdd     	b	0xc654 <__udivmodsi4+0x18> @ imm = #-140

0000c6dc <__aeabi_uidivmod>:
    c6dc: e52de004     	str	lr, [sp, #-4]!
    c6e0: e24dd004     	sub	sp, sp, #4
    c6e4: e1a0200d     	mov	r2, sp
    c6e8: ebffffd3     	bl	0xc63c <__udivmodsi4>   @ imm = #-180
    c6ec: e59d1000     	ldr	r1, [sp]
    c6f0: e28dd004     	add	sp, sp, #4
    c6f4: e49df004     	ldr	pc, [sp], #4

0000c6f8 <__aeabi_memset>:
    c6f8: e3510000     	cmp	r1, #0
    c6fc: 012fff1e     	<unknown>
    c700: e92d4800     	push	{r11, lr}
    c704: e1a0b00d     	mov	r11, sp
    c708: ebfffffa     	bl	0xc6f8 <__aeabi_memset> @ imm = #-24
    c70c: e8bd8800     	pop	{r11, pc}

Disassembly of section .rodata:

0000c710 <builtin.zig_backend>:
    c710: 00000002     	andeq	r0, r0, r2
		...
    c75c: 00000003     	andeq	r0, r0, r3
		...
    c78c: 00000003     	andeq	r0, r0, r3
		...
    c7bc: 00000001     	andeq	r0, r0, r1
		...
    c884: 00000006     	andeq	r0, r0, r6
		...
    c8f4: 00000007     	andeq	r0, r0, r7
		...
    c904: 00000008     	andeq	r0, r0, r8
    c908: 00000000     	andeq	r0, r0, r0
    c90c: 00000007     	andeq	r0, r0, r7
		...
    c91c: 00000007     	andeq	r0, r0, r7
		...
    c92c: 00000008     	andeq	r0, r0, r8
    c930: 00000000     	andeq	r0, r0, r0
    c934: 00000009     	andeq	r0, r0, r9
    c938: 00000000     	andeq	r0, r0, r0
    c93c: 00000007     	andeq	r0, r0, r7
		...
    c94c: 00000007     	andeq	r0, r0, r7
		...
    c95c: 00000007     	andeq	r0, r0, r7
		...
    c96c: 00000008     	andeq	r0, r0, r8
    c970: 00000000     	andeq	r0, r0, r0
    c974: 0000000a     	andeq	r0, r0, r10
		...

0000c980 <builtin.output_mode>:
    c980: 00000000     	andeq	r0, r0, r0

0000c981 <builtin.link_libc>:
    c981: 00000000     	andeq	r0, r0, r0

0000c982 <start.native_os>:
		...
    c9a6: 6e690000     	cdpvs	p0, #6, c0, c9, c0, #0

0000c9a8 <target.Target.Cpu.Feature.Set.addFeature__anon_909>:
    c9a8: 65746e69     	ldrbvs	r6, [r4, #-3689]!
    c9ac: 20726567     	rsbshs	r6, r2, r7, ror #10
    c9b0: 74736163     	ldrbtvc	r6, [r3], #-355
    c9b4: 75727420     	ldrbvc	r7, [r2, #-1056]!
    c9b8: 7461636e     	strbtvc	r6, [r1], #-878
    c9bc: 62206465     	eorvs	r6, r0, #1694498816
    c9c0: 00737469     	rsbseq	r7, r3, r9, ror #8

0000c9c4 <target.arm.cpu.arm1176jzf_s>:
    c9c4: 0000d078     	andeq	sp, r0, r8, ror r0
    c9c8: 0000000c     	andeq	r0, r0, r12
    c9cc: 0000d085     	andeq	sp, r0, r5, lsl #1
    c9d0: 0000000c     	andeq	r0, r0, r12
		...
    c9e0: 10000000     	andne	r0, r0, r0
    c9e4: 00040000     	andeq	r0, r4, r0
    c9e8: 00004000     	andeq	r4, r0, r0
		...

0000c9f8 <builtin.cpu>:
    c9f8: 00000000     	andeq	r0, r0, r0
    c9fc: 0000c9c4     	andeq	r12, r0, r4, asr #19
    ca00: 00000000     	andeq	r0, r0, r0
    ca04: 03e05040     	mvneq	r5, #64
    ca08: 00000000     	andeq	r0, r0, r0
    ca0c: 10000000     	andne	r0, r0, r0
    ca10: 00040008     	andeq	r0, r4, r8
    ca14: 0000c000     	andeq	r12, r0, r0
		...

0000ca24 <start.native_arch>:
    ca24: 69777300     	ldmdbvs	r7!, {r8, r9, r12, sp, lr} ^

0000ca25 <target.Target.Cpu.Arch.isWasm__anon_910>:
    ca25: 74697773     	strbtvc	r7, [r9], #-1907
    ca29: 6f206863     	svcvs	#2123875
    ca2d: 6f63206e     	svcvs	#6496366
    ca31: 70757272     	rsbsvc	r7, r5, r2, ror r2
    ca35: 61762074     	cmnvs	r6, r4, ror r0
    ca39: 8065756c     	rsbhi	r7, r5, r12, ror #10
    ca3d: 730000cd     	<unknown>

0000ca40 <debug.panicExtra__anon_1008__anon_1382>:
    ca40: 74697773     	strbtvc	r7, [r9], #-1907
    ca44: 6f206863     	svcvs	#2123875
    ca48: 6f63206e     	svcvs	#6496366
    ca4c: 70757272     	rsbsvc	r7, r5, r2, ror r2
    ca50: 61762074     	cmnvs	r6, r4, ror r0
    ca54: 7365756c     	<unknown>

0000ca57 <debug.panicExtra__anon_1012__anon_1385>:
    ca57: 74697773     	strbtvc	r7, [r9], #-1907
    ca5b: 6f206863     	svcvs	#2123875
    ca5f: 6f63206e     	svcvs	#6496366
    ca63: 70757272     	rsbsvc	r7, r5, r2, ror r2
    ca67: 61762074     	cmnvs	r6, r4, ror r0
    ca6b: 0065756c     	rsbeq	r7, r5, r12, ror #10
    ca6f: 00000000     	andeq	r0, r0, r0
    ca73: aaaaaa00     	bge	0xfeab727b <__prog_end__+0xfffffffffeaaa0a3> @ imm = #-22370304
    ca77: 000000aa     	andeq	r0, r0, r10, lsr #1
    ca7b: 00000100     	andeq	r0, r0, r0, lsl #2
    ca7f: 00000800     	andeq	r0, r0, r0, lsl #16
    ca83: 00000200     	andeq	r0, r0, r0, lsl #4

0000ca84 <fmt.format__anon_1502__anon_1510>:
    ca84: 00000002     	andeq	r0, r0, r2
    ca88: 00000003     	andeq	r0, r0, r3
    ca8c: 00000002     	andeq	r0, r0, r2

0000ca90 <fmt.format__anon_1502__anon_1513>:
    ca90: 00006400     	andeq	r6, r0, r0, lsl #8

0000ca91 <fmt.cacheString__anon_1547>:
    ca91: 91000064     	<unknown>
    ca95: 010000ca     	<unknown>
    ca99: 20000000     	andhs	r0, r0, r0
    ca9d: 00000002     	andeq	r0, r0, r2
		...
    cad1: 02000000     	andeq	r0, r0, #0
    cad5: 00000020     	andeq	r0, r0, r0, lsr #32

0000cad8 <fmt.format__anon_1502__anon_1553>:
    cad8: 00000000     	andeq	r0, r0, r0
    cadc: 0000ca91     	<unknown>
    cae0: 00000001     	andeq	r0, r0, r1
    cae4: 00000220     	andeq	r0, r0, r0, lsr #4
		...
    cb1c: 00002002     	andeq	r2, r0, r2
    cb20: 00000000     	andeq	r0, r0, r0
    cb24: aaaaaaaa     	bge	0xfeab75d4 <__prog_end__+0xfffffffffeaaa3fc> @ imm = #-22369624
    cb28: 00000000     	andeq	r0, r0, r0
    cb2c: 00000001     	andeq	r0, r0, r1
    cb30: 00000008     	andeq	r0, r0, r8

0000cb34 <fmt.format__anon_1558__anon_1562>:
    cb34: 00000001     	andeq	r0, r0, r1
    cb38: 00000001     	andeq	r0, r0, r1
    cb3c: 00000001     	andeq	r0, r0, r1

0000cb40 <fmt.format__anon_1558__anon_1565>:
    cb40: 00007300     	andeq	r7, r0, r0, lsl #6

0000cb41 <fmt.cacheString__anon_1588>:
    cb41: 41000073     	<unknown>
    cb45: 010000cb     	<unknown>
    cb49: 20000000     	andhs	r0, r0, r0
    cb4d: 00000002     	andeq	r0, r0, r2
		...
    cb81: 02000000     	andeq	r0, r0, #0
    cb85: 72000020     	andvc	r0, r0, #32

0000cb88 <debug.assert__anon_1600>:
    cb88: 63616572     	<unknown>
    cb8c: 20646568     	rsbhs	r6, r4, r8, ror #10
    cb90: 65726e75     	ldrbvs	r6, [r2, #-3701]!
    cb94: 61686361     	<unknown>
    cb98: 20656c62     	rsbhs	r6, r5, r2, ror #24
    cb9c: 65646f63     	strbvs	r6, [r4, #-3939]!

0000cba0 <fmt.Parser.number__anon_1603>:
    cba0: 65747461     	ldrbvs	r7, [r4, #-1121]!
    cba4: 2074706d     	rsbshs	r7, r4, sp, rrx
    cba8: 75206f74     	strvc	r6, [r0, #-3956]!
    cbac: 6e206573     	mcrvs	p5, #1, r6, c0, c3, #3
    cbb0: 206c6c75     	rsbhs	r6, r12, r5, ror r12
    cbb4: 756c6176     	strbvc	r6, [r12, #-374]!
    cbb8: 74746165     	ldrbtvc	r6, [r4], #-357

0000cbb9 <fmt.Parser.number__anon_1605>:
    cbb9: 65747461     	ldrbvs	r7, [r4, #-1121]!
    cbbd: 2074706d     	rsbshs	r7, r4, sp, rrx
    cbc1: 75206f74     	strvc	r6, [r0, #-3956]!
    cbc5: 6e206573     	mcrvs	p5, #1, r6, c0, c3, #3
    cbc9: 206c6c75     	rsbhs	r6, r12, r5, ror r12
    cbcd: 756c6176     	strbvc	r6, [r12, #-374]!
    cbd1: 00000065     	andeq	r0, r0, r5, rrx
    cbd5: 746e6900     	strbtvc	r6, [lr], #-2304

0000cbd6 <fmt.ArgState.nextArg__anon_1616>:
    cbd6: 65746e69     	ldrbvs	r6, [r4, #-3689]!
    cbda: 20726567     	rsbshs	r6, r2, r7, ror #10
    cbde: 74736163     	ldrbtvc	r6, [r3], #-355
    cbe2: 75727420     	ldrbvc	r7, [r2, #-1056]!
    cbe6: 7461636e     	strbtvc	r6, [r1], #-878
    cbea: 62206465     	eorvs	r6, r0, #1694498816
    cbee: 00737469     	rsbseq	r7, r3, r9, ror #8

0000cbf1 <fmt.formatIntValue__anon_1685__anon_1688>:
    cbf1: 6e690100     	cdpvs	p1, #6, c0, c9, c0, #0

0000cbf3 <fmt.formatInt__anon_1691__anon_1697>:
    cbf3: 65746e69     	ldrbvs	r6, [r4, #-3689]!
    cbf7: 20726567     	rsbshs	r6, r2, r7, ror #10
    cbfb: 74736163     	ldrbtvc	r6, [r3], #-355
    cbff: 75727420     	ldrbvc	r7, [r2, #-1056]!
    cc03: 7461636e     	strbtvc	r6, [r1], #-878
    cc07: 62206465     	eorvs	r6, r0, #1694498816
    cc0b: 73737469     	cmnvc	r3, #1761607680

0000cc0e <fmt.formatBuf__anon_1700__anon_1789>:
    cc0e: 74697773     	strbtvc	r7, [r9], #-1907
    cc12: 6f206863     	svcvs	#2123875
    cc16: 6f63206e     	svcvs	#6496366
    cc1a: 70757272     	rsbsvc	r7, r5, r2, ror r2
    cc1e: 61762074     	cmnvs	r6, r4, ror r0
    cc22: 0065756c     	rsbeq	r7, r5, r12, ror #10

0000cc25 <fmt.formatType__anon_1591__anon_1793>:
    cc25: 02000000     	andeq	r0, r0, #0
    cc29: 00000001     	andeq	r0, r0, r1
    cc2d: 25000000     	strhs	r0, [r0, #-0]
    cc31: 020000cc     	andeq	r0, r0, #204
		...
    cc3d: ef000000     	svc	#0

0000cc40 <fmt.ANY>:
    cc40: 0000d0ef     	andeq	sp, r0, pc, ror #1
    cc44: 61657201     	<unknown>

0000cc45 <fmt.digitToChar__anon_1799>:
    cc45: 63616572     	<unknown>
    cc49: 20646568     	rsbhs	r6, r4, r8, ror #10
    cc4d: 65726e75     	ldrbvs	r6, [r2, #-3701]!
    cc51: 61686361     	<unknown>
    cc55: 20656c62     	rsbhs	r6, r5, r2, ror #24
    cc59: 65646f63     	strbvs	r6, [r4, #-3939]!

0000cc5d <unicode.utf8Decode__anon_1800>:
    cc5d: 63616572     	<unknown>
    cc61: 20646568     	rsbhs	r6, r4, r8, ror #10
    cc65: 65726e75     	ldrbvs	r6, [r2, #-3701]!
    cc69: 61686361     	<unknown>
    cc6d: 20656c62     	rsbhs	r6, r5, r2, ror #24
    cc71: 65646f63     	strbvs	r6, [r4, #-3939]!
    cc75: 02000000     	andeq	r0, r0, #0
		...
    cc81: 73000000     	<unknown>

0000cc84 <unicode.utf8Decode2__anon_1804>:
    cc84: 66696873     	uqsub16vs	r6, r9, r3
    cc88: 6d612074     	stclvs	p0, c2, [r1, #-464]!
    cc8c: 746e756f     	strbtvc	r7, [lr], #-1391
    cc90: 20736920     	rsbshs	r6, r3, r0, lsr #18
    cc94: 61657267     	<unknown>
    cc98: 20726574     	rsbshs	r6, r2, r4, ror r5
    cc9c: 6e616874     	mcrvs	p8, #3, r6, c1, c4, #3
    cca0: 65687420     	strbvs	r7, [r8, #-1056]!
    cca4: 70797420     	rsbsvc	r7, r9, r0, lsr #8
    cca8: 69732065     	ldmdbvs	r3!, {r0, r2, r5, r6, sp} ^
    ccac: 6873657a     	ldmdavs	r3!, {r1, r3, r4, r5, r6, r8, r10, sp, lr} ^

0000ccae <unicode.utf8Decode3__anon_1805>:
    ccae: 66696873     	uqsub16vs	r6, r9, r3
    ccb2: 6d612074     	stclvs	p0, c2, [r1, #-464]!
    ccb6: 746e756f     	strbtvc	r7, [lr], #-1391
    ccba: 20736920     	rsbshs	r6, r3, r0, lsr #18
    ccbe: 61657267     	<unknown>
    ccc2: 20726574     	rsbshs	r6, r2, r4, ror r5
    ccc6: 6e616874     	mcrvs	p8, #3, r6, c1, c4, #3
    ccca: 65687420     	strbvs	r7, [r8, #-1056]!
    ccce: 70797420     	rsbsvc	r7, r9, r0, lsr #8
    ccd2: 69732065     	ldmdbvs	r3!, {r0, r2, r5, r6, sp} ^
    ccd6: 6873657a     	ldmdavs	r3!, {r1, r3, r4, r5, r6, r8, r10, sp, lr} ^

0000ccd8 <unicode.utf8Decode3__anon_1806>:
    ccd8: 66696873     	uqsub16vs	r6, r9, r3
    ccdc: 6d612074     	stclvs	p0, c2, [r1, #-464]!
    cce0: 746e756f     	strbtvc	r7, [lr], #-1391
    cce4: 20736920     	rsbshs	r6, r3, r0, lsr #18
    cce8: 61657267     	<unknown>
    ccec: 20726574     	rsbshs	r6, r2, r4, ror r5
    ccf0: 6e616874     	mcrvs	p8, #3, r6, c1, c4, #3
    ccf4: 65687420     	strbvs	r7, [r8, #-1056]!
    ccf8: 70797420     	rsbsvc	r7, r9, r0, lsr #8
    ccfc: 69732065     	ldmdbvs	r3!, {r0, r2, r5, r6, sp} ^
    cd00: 6873657a     	ldmdavs	r3!, {r1, r3, r4, r5, r6, r8, r10, sp, lr} ^

0000cd02 <unicode.utf8Decode4__anon_1807>:
    cd02: 66696873     	uqsub16vs	r6, r9, r3
    cd06: 6d612074     	stclvs	p0, c2, [r1, #-464]!
    cd0a: 746e756f     	strbtvc	r7, [lr], #-1391
    cd0e: 20736920     	rsbshs	r6, r3, r0, lsr #18
    cd12: 61657267     	<unknown>
    cd16: 20726574     	rsbshs	r6, r2, r4, ror r5
    cd1a: 6e616874     	mcrvs	p8, #3, r6, c1, c4, #3
    cd1e: 65687420     	strbvs	r7, [r8, #-1056]!
    cd22: 70797420     	rsbsvc	r7, r9, r0, lsr #8
    cd26: 69732065     	ldmdbvs	r3!, {r0, r2, r5, r6, sp} ^
    cd2a: 6873657a     	ldmdavs	r3!, {r1, r3, r4, r5, r6, r8, r10, sp, lr} ^

0000cd2c <unicode.utf8Decode4__anon_1808>:
    cd2c: 66696873     	uqsub16vs	r6, r9, r3
    cd30: 6d612074     	stclvs	p0, c2, [r1, #-464]!
    cd34: 746e756f     	strbtvc	r7, [lr], #-1391
    cd38: 20736920     	rsbshs	r6, r3, r0, lsr #18
    cd3c: 61657267     	<unknown>
    cd40: 20726574     	rsbshs	r6, r2, r4, ror r5
    cd44: 6e616874     	mcrvs	p8, #3, r6, c1, c4, #3
    cd48: 65687420     	strbvs	r7, [r8, #-1056]!
    cd4c: 70797420     	rsbsvc	r7, r9, r0, lsr #8
    cd50: 69732065     	ldmdbvs	r3!, {r0, r2, r5, r6, sp} ^
    cd54: 6873657a     	ldmdavs	r3!, {r1, r3, r4, r5, r6, r8, r10, sp, lr} ^

0000cd56 <unicode.utf8Decode4__anon_1809>:
    cd56: 66696873     	uqsub16vs	r6, r9, r3
    cd5a: 6d612074     	stclvs	p0, c2, [r1, #-464]!
    cd5e: 746e756f     	strbtvc	r7, [lr], #-1391
    cd62: 20736920     	rsbshs	r6, r3, r0, lsr #18
    cd66: 61657267     	<unknown>
    cd6a: 20726574     	rsbshs	r6, r2, r4, ror r5
    cd6e: 6e616874     	mcrvs	p8, #3, r6, c1, c4, #3
    cd72: 65687420     	strbvs	r7, [r8, #-1056]!
    cd76: 70797420     	rsbsvc	r7, r9, r0, lsr #8
    cd7a: 69732065     	ldmdbvs	r3!, {r0, r2, r5, r6, sp} ^
    cd7e: 0000657a     	andeq	r6, r0, r10, ror r5
    cd82: 00000000     	andeq	r0, r0, r0
    cd86: d0f30000     	rscsle	r0, r3, r0
    cd8a: 000a0000     	andeq	r0, r10, r0
    cd8e: d0fe0000     	rscsle	r0, lr, r0
    cd92: 000f0000     	andeq	r0, pc, r0
    cd96: d10e0000     	<unknown>
    cd9a: 000b0000     	andeq	r0, r11, r0
    cd9e: d11a0000     	tstle	r10, r0
    cda2: 00120000     	andseq	r0, r2, r0
    cda6: d12d0000     	<unknown>
    cdaa: 00140000     	andseq	r0, r4, r0
    cdae: d1420000     	mrsle	r0, spsr
    cdb2: 000e0000     	andeq	r0, lr, r0
    cdb6: d1510000     	cmple	r1, r0
    cdba: 00180000     	andseq	r0, r8, r0
    cdbe: d16a0000     	<unknown>
    cdc2: 00140000     	andseq	r0, r4, r0
    cdc6: d17f0000     	cmnle	pc, r0
    cdca: 00180000     	andseq	r0, r8, r0
    cdce: d1980000     	orrsle	r0, r8, r0
    cdd2: 00150000     	andseq	r0, r5, r0
    cdd6: 6e690000     	cdpvs	p0, #6, c0, c9, c0, #0

0000cdd8 <target.Target.Cpu.Feature.feature_set_fns(target.arm.Feature).featureSet__anon_906>:
    cdd8: 65746e69     	ldrbvs	r6, [r4, #-3689]!
    cddc: 20726567     	rsbshs	r6, r2, r7, ror #10
    cde0: 7265766f     	rsbvc	r7, r5, #116391936
    cde4: 776f6c66     	strbvc	r6, [pc, -r6, ror #24]!

0000cde8 <main.delay__anon_1013>:
    cde8: 65746e69     	ldrbvs	r6, [r4, #-3689]!
    cdec: 20726567     	rsbshs	r6, r2, r7, ror #10
    cdf0: 7265766f     	rsbvc	r7, r5, #116391936
    cdf4: 776f6c66     	strbvc	r6, [pc, -r6, ror #24]!

0000cdf8 <builtin.addErrRetTraceAddr__anon_1383>:
    cdf8: 65746e69     	ldrbvs	r6, [r4, #-3689]!
    cdfc: 20726567     	rsbshs	r6, r2, r7, ror #10
    ce00: 7265766f     	rsbvc	r7, r5, #116391936
    ce04: 776f6c66     	strbvc	r6, [pc, -r6, ror #24]!

0000ce08 <io.fixed_buffer_stream.FixedBufferStream([]u8).write__anon_1593>:
    ce08: 65746e69     	ldrbvs	r6, [r4, #-3689]!
    ce0c: 20726567     	rsbshs	r6, r2, r7, ror #10
    ce10: 7265766f     	rsbvc	r7, r5, #116391936
    ce14: 776f6c66     	strbvc	r6, [pc, -r6, ror #24]!

0000ce18 <io.fixed_buffer_stream.FixedBufferStream([]u8).write__anon_1594>:
    ce18: 65746e69     	ldrbvs	r6, [r4, #-3689]!
    ce1c: 20726567     	rsbshs	r6, r2, r7, ror #10
    ce20: 7265766f     	rsbvc	r7, r5, #116391936
    ce24: 776f6c66     	strbvc	r6, [pc, -r6, ror #24]!

0000ce28 <io.fixed_buffer_stream.FixedBufferStream([]u8).write__anon_1595>:
    ce28: 65746e69     	ldrbvs	r6, [r4, #-3689]!
    ce2c: 20726567     	rsbshs	r6, r2, r7, ror #10
    ce30: 7265766f     	rsbvc	r7, r5, #116391936
    ce34: 776f6c66     	strbvc	r6, [pc, -r6, ror #24]!

0000ce38 <io.fixed_buffer_stream.FixedBufferStream([]u8).write__anon_1596>:
    ce38: 65746e69     	ldrbvs	r6, [r4, #-3689]!
    ce3c: 20726567     	rsbshs	r6, r2, r7, ror #10
    ce40: 7265766f     	rsbvc	r7, r5, #116391936
    ce44: 776f6c66     	strbvc	r6, [pc, -r6, ror #24]!

0000ce48 <io.fixed_buffer_stream.FixedBufferStream([]u8).write__anon_1597>:
    ce48: 65746e69     	ldrbvs	r6, [r4, #-3689]!
    ce4c: 20726567     	rsbshs	r6, r2, r7, ror #10
    ce50: 7265766f     	rsbvc	r7, r5, #116391936
    ce54: 776f6c66     	strbvc	r6, [pc, -r6, ror #24]!

0000ce58 <io.writer.Writer(*io.fixed_buffer_stream.FixedBufferStream([]u8),error{NoSpaceLeft},(function 'write')).writeAll__anon_1598>:
    ce58: 65746e69     	ldrbvs	r6, [r4, #-3689]!
    ce5c: 20726567     	rsbshs	r6, r2, r7, ror #10
    ce60: 7265766f     	rsbvc	r7, r5, #116391936
    ce64: 776f6c66     	strbvc	r6, [pc, -r6, ror #24]!

0000ce68 <io.writer.Writer(*io.fixed_buffer_stream.FixedBufferStream([]u8),error{NoSpaceLeft},(function 'write')).writeAll__anon_1599>:
    ce68: 65746e69     	ldrbvs	r6, [r4, #-3689]!
    ce6c: 20726567     	rsbshs	r6, r2, r7, ror #10
    ce70: 7265766f     	rsbvc	r7, r5, #116391936
    ce74: 776f6c66     	strbvc	r6, [pc, -r6, ror #24]!
		...
    ce84: 00000004     	andeq	r0, r0, r4

0000ce88 <fmt.Parser.maybe__anon_1602>:
    ce88: 65746e69     	ldrbvs	r6, [r4, #-3689]!
    ce8c: 20726567     	rsbshs	r6, r2, r7, ror #10
    ce90: 7265766f     	rsbvc	r7, r5, #116391936
    ce94: 776f6c66     	strbvc	r6, [pc, -r6, ror #24]!

0000ce98 <fmt.Parser.number__anon_1604>:
    ce98: 65746e69     	ldrbvs	r6, [r4, #-3689]!
    ce9c: 20726567     	rsbshs	r6, r2, r7, ror #10
    cea0: 7265766f     	rsbvc	r7, r5, #116391936
    cea4: 776f6c66     	strbvc	r6, [pc, -r6, ror #24]!

0000cea8 <fmt.Parser.number__anon_1606>:
    cea8: 65746e69     	ldrbvs	r6, [r4, #-3689]!
    ceac: 20726567     	rsbshs	r6, r2, r7, ror #10
    ceb0: 7265766f     	rsbvc	r7, r5, #116391936
    ceb4: 776f6c66     	strbvc	r6, [pc, -r6, ror #24]!

0000ceb8 <fmt.Parser.number__anon_1607>:
    ceb8: 65746e69     	ldrbvs	r6, [r4, #-3689]!
    cebc: 20726567     	rsbshs	r6, r2, r7, ror #10
    cec0: 7265766f     	rsbvc	r7, r5, #116391936
    cec4: 776f6c66     	strbvc	r6, [pc, -r6, ror #24]!

0000cec8 <fmt.Parser.number__anon_1608>:
    cec8: 65746e69     	ldrbvs	r6, [r4, #-3689]!
    cecc: 20726567     	rsbshs	r6, r2, r7, ror #10
    ced0: 7265766f     	rsbvc	r7, r5, #116391936
    ced4: 776f6c66     	strbvc	r6, [pc, -r6, ror #24]!

0000ced8 <fmt.Parser.until__anon_1610>:
    ced8: 65746e69     	ldrbvs	r6, [r4, #-3689]!
    cedc: 20726567     	rsbshs	r6, r2, r7, ror #10
    cee0: 7265766f     	rsbvc	r7, r5, #116391936
    cee4: 776f6c66     	strbvc	r6, [pc, -r6, ror #24]!

0000cee8 <fmt.Parser.until__anon_1611>:
    cee8: 65746e69     	ldrbvs	r6, [r4, #-3689]!
    ceec: 20726567     	rsbshs	r6, r2, r7, ror #10
    cef0: 7265766f     	rsbvc	r7, r5, #116391936
    cef4: 776f6c66     	strbvc	r6, [pc, -r6, ror #24]!

0000cef8 <fmt.Parser.char__anon_1612>:
    cef8: 65746e69     	ldrbvs	r6, [r4, #-3689]!
    cefc: 20726567     	rsbshs	r6, r2, r7, ror #10
    cf00: 7265766f     	rsbvc	r7, r5, #116391936
    cf04: 776f6c66     	strbvc	r6, [pc, -r6, ror #24]!

0000cf08 <fmt.Parser.peek__anon_1613>:
    cf08: 65746e69     	ldrbvs	r6, [r4, #-3689]!
    cf0c: 20726567     	rsbshs	r6, r2, r7, ror #10
    cf10: 7265766f     	rsbvc	r7, r5, #116391936
    cf14: 776f6c66     	strbvc	r6, [pc, -r6, ror #24]!

0000cf18 <fmt.Parser.peek__anon_1614>:
    cf18: 65746e69     	ldrbvs	r6, [r4, #-3689]!
    cf1c: 20726567     	rsbshs	r6, r2, r7, ror #10
    cf20: 7265766f     	rsbvc	r7, r5, #116391936
    cf24: 776f6c66     	strbvc	r6, [pc, -r6, ror #24]!

0000cf28 <fmt.ArgState.nextArg__anon_1615>:
    cf28: 65746e69     	ldrbvs	r6, [r4, #-3689]!
    cf2c: 20726567     	rsbshs	r6, r2, r7, ror #10
    cf30: 7265766f     	rsbvc	r7, r5, #116391936
    cf34: 776f6c66     	strbvc	r6, [pc, -r6, ror #24]!

0000cf38 <fmt.formatInt__anon_1691__anon_1695>:
    cf38: 69766964     	ldmdbvs	r6!, {r2, r5, r6, r8, r11, sp, lr} ^
    cf3c: 6e6f6973     	mcrvs	p9, #3, r6, c15, c3, #3
    cf40: 20796220     	rsbshs	r6, r9, r0, lsr #4
    cf44: 6f72657a     	svcvs	#7497082

0000cf48 <fmt.formatInt__anon_1691__anon_1696>:
    cf48: 65746e69     	ldrbvs	r6, [r4, #-3689]!
    cf4c: 20726567     	rsbshs	r6, r2, r7, ror #10
    cf50: 7265766f     	rsbvc	r7, r5, #116391936
    cf54: 776f6c66     	strbvc	r6, [pc, -r6, ror #24]!

0000cf58 <fmt.formatInt__anon_1691__anon_1698>:
    cf58: 69766964     	ldmdbvs	r6!, {r2, r5, r6, r8, r11, sp, lr} ^
    cf5c: 6e6f6973     	mcrvs	p9, #3, r6, c15, c3, #3
    cf60: 20796220     	rsbshs	r6, r9, r0, lsr #4
    cf64: 6f72657a     	svcvs	#7497082

0000cf68 <fmt.formatInt__anon_1691__anon_1699>:
    cf68: 65746e69     	ldrbvs	r6, [r4, #-3689]!
    cf6c: 20726567     	rsbshs	r6, r2, r7, ror #10
    cf70: 7265766f     	rsbvc	r7, r5, #116391936
    cf74: 776f6c66     	strbvc	r6, [pc, -r6, ror #24]!

0000cf78 <unicode.utf8CountCodepoints__anon_1774>:
    cf78: 65746e69     	ldrbvs	r6, [r4, #-3689]!
    cf7c: 20726567     	rsbshs	r6, r2, r7, ror #10
    cf80: 7265766f     	rsbvc	r7, r5, #116391936
    cf84: 776f6c66     	strbvc	r6, [pc, -r6, ror #24]!

0000cf88 <unicode.utf8CountCodepoints__anon_1775>:
    cf88: 65746e69     	ldrbvs	r6, [r4, #-3689]!
    cf8c: 20726567     	rsbshs	r6, r2, r7, ror #10
    cf90: 7265766f     	rsbvc	r7, r5, #116391936
    cf94: 776f6c66     	strbvc	r6, [pc, -r6, ror #24]!

0000cf98 <unicode.utf8CountCodepoints__anon_1777>:
    cf98: 65746e69     	ldrbvs	r6, [r4, #-3689]!
    cf9c: 20726567     	rsbshs	r6, r2, r7, ror #10
    cfa0: 7265766f     	rsbvc	r7, r5, #116391936
    cfa4: 776f6c66     	strbvc	r6, [pc, -r6, ror #24]!

0000cfa8 <unicode.utf8CountCodepoints__anon_1778>:
    cfa8: 65746e69     	ldrbvs	r6, [r4, #-3689]!
    cfac: 20726567     	rsbshs	r6, r2, r7, ror #10
    cfb0: 7265766f     	rsbvc	r7, r5, #116391936
    cfb4: 776f6c66     	strbvc	r6, [pc, -r6, ror #24]!

0000cfb8 <unicode.utf8CountCodepoints__anon_1779>:
    cfb8: 65746e69     	ldrbvs	r6, [r4, #-3689]!
    cfbc: 20726567     	rsbshs	r6, r2, r7, ror #10
    cfc0: 7265766f     	rsbvc	r7, r5, #116391936
    cfc4: 776f6c66     	strbvc	r6, [pc, -r6, ror #24]!

0000cfc8 <unicode.utf8CountCodepoints__anon_1783>:
    cfc8: 65746e69     	ldrbvs	r6, [r4, #-3689]!
    cfcc: 20726567     	rsbshs	r6, r2, r7, ror #10
    cfd0: 7265766f     	rsbvc	r7, r5, #116391936
    cfd4: 776f6c66     	strbvc	r6, [pc, -r6, ror #24]!

0000cfd8 <unicode.utf8CountCodepoints__anon_1784>:
    cfd8: 65746e69     	ldrbvs	r6, [r4, #-3689]!
    cfdc: 20726567     	rsbshs	r6, r2, r7, ror #10
    cfe0: 7265766f     	rsbvc	r7, r5, #116391936
    cfe4: 776f6c66     	strbvc	r6, [pc, -r6, ror #24]!

0000cfe8 <unicode.utf8CountCodepoints__anon_1785>:
    cfe8: 65746e69     	ldrbvs	r6, [r4, #-3689]!
    cfec: 20726567     	rsbshs	r6, r2, r7, ror #10
    cff0: 7265766f     	rsbvc	r7, r5, #116391936
    cff4: 776f6c66     	strbvc	r6, [pc, -r6, ror #24]!

0000cff8 <unicode.utf8CountCodepoints__anon_1786>:
    cff8: 65746e69     	ldrbvs	r6, [r4, #-3689]!
    cffc: 20726567     	rsbshs	r6, r2, r7, ror #10
    d000: 7265766f     	rsbvc	r7, r5, #116391936
    d004: 776f6c66     	strbvc	r6, [pc, -r6, ror #24]!

0000d008 <fmt.formatBuf__anon_1700__anon_1787>:
    d008: 65746e69     	ldrbvs	r6, [r4, #-3689]!
    d00c: 20726567     	rsbshs	r6, r2, r7, ror #10
    d010: 7265766f     	rsbvc	r7, r5, #116391936
    d014: 776f6c66     	strbvc	r6, [pc, -r6, ror #24]!

0000d018 <fmt.formatBuf__anon_1700__anon_1788>:
    d018: 65746e69     	ldrbvs	r6, [r4, #-3689]!
    d01c: 20726567     	rsbshs	r6, r2, r7, ror #10
    d020: 7265766f     	rsbvc	r7, r5, #116391936
    d024: 776f6c66     	strbvc	r6, [pc, -r6, ror #24]!

0000d028 <fmt.digitToChar__anon_1796>:
    d028: 65746e69     	ldrbvs	r6, [r4, #-3689]!
    d02c: 20726567     	rsbshs	r6, r2, r7, ror #10
    d030: 7265766f     	rsbvc	r7, r5, #116391936
    d034: 776f6c66     	strbvc	r6, [pc, -r6, ror #24]!

0000d038 <fmt.digitToChar__anon_1797>:
    d038: 65746e69     	ldrbvs	r6, [r4, #-3689]!
    d03c: 20726567     	rsbshs	r6, r2, r7, ror #10
    d040: 7265766f     	rsbvc	r7, r5, #116391936
    d044: 776f6c66     	strbvc	r6, [pc, -r6, ror #24]!

0000d048 <fmt.digitToChar__anon_1798>:
    d048: 65746e69     	ldrbvs	r6, [r4, #-3689]!
    d04c: 20726567     	rsbshs	r6, r2, r7, ror #10
    d050: 7265766f     	rsbvc	r7, r5, #116391936
    d054: 776f6c66     	strbvc	r6, [pc, -r6, ror #24]!

0000d058 <io.writer.Writer(*io.fixed_buffer_stream.FixedBufferStream([]u8),error{NoSpaceLeft},(function 'write')).writeByteNTimes__anon_1803>:
    d058: 65746e69     	ldrbvs	r6, [r4, #-3689]!
    d05c: 20726567     	rsbshs	r6, r2, r7, ror #10
    d060: 7265766f     	rsbvc	r7, r5, #116391936
    d064: 776f6c66     	strbvc	r6, [pc, -r6, ror #24]!

0000d068 <mem.set__anon_1801__anon_1810>:
    d068: 65746e69     	ldrbvs	r6, [r4, #-3689]!
    d06c: 20726567     	rsbshs	r6, r2, r7, ror #10
    d070: 7265766f     	rsbvc	r7, r5, #116391936
    d074: 776f6c66     	strbvc	r6, [pc, -r6, ror #24]!

0000d078 <target.arm.cpu.arm1176jzf_s__anon_484>:
    d078: 316d7261     	<unknown>
    d07c: 6a363731     	bvs	0xd9ad48 <__prog_end__+0xd8db70> @ imm = #14212292
    d080: 735f667a     	cmpvc	pc, #127926272
    d084: 6d726100     	ldclvs	p1, c6, [r2, #-0]!

0000d085 <target.arm.cpu.arm1176jzf_s__anon_485>:
    d085: 316d7261     	<unknown>
    d089: 6a363731     	bvs	0xd9ad55 <__prog_end__+0xd8db7d> @ imm = #14212292
    d08d: 732d667a     	<unknown>
    d091: 736d2800     	<unknown>

0000d092 <debug.panicExtra__anon_1008__anon_1014>:
    d092: 67736d28     	ldrbvs	r6, [r3, -r8, lsr #26]!
    d096: 75727420     	ldrbvc	r7, [r2, #-1056]!
    d09a: 7461636e     	strbtvc	r6, [r1], #-878
    d09e: 00296465     	eoreq	r6, r9, r5, ror #8

0000d0a2 <builtin.panicOutOfBounds__anon_1007>:
    d0a2: 65646e69     	strbvs	r6, [r4, #-3689]!
    d0a6: 756f2078     	strbvc	r2, [pc, #-120]!
    d0aa: 666f2074     	uqsub16vs	r2, pc, r4
    d0ae: 756f6220     	strbvc	r6, [pc, #-544]!
    d0b2: 3a73646e     	blo	0x1ce6272 <__prog_end__+0x1cd909a> @ imm = #30249400
    d0b6: 646e6920     	strbtvs	r6, [lr], #-2336
    d0ba: 7b207865     	blvc	0x82b256 <__prog_end__+0x81e07e> @ imm = #8511892
    d0be: 202c7d64     	eorhs	r7, r12, r4, ror #26
    d0c2: 206e656c     	rsbhs	r6, lr, r12, ror #10
    d0c6: 007d647b     	rsbseq	r6, sp, r11, ror r4

0000d0ca <builtin.panicUnwrapError__anon_1011>:
    d0ca: 65747461     	ldrbvs	r7, [r4, #-1121]!
    d0ce: 2074706d     	rsbshs	r7, r4, sp, rrx
    d0d2: 75206f74     	strvc	r6, [r0, #-3956]!
    d0d6: 6172776e     	cmnvs	r2, lr, ror #14
    d0da: 72652070     	rsbvc	r2, r5, #112
    d0de: 3a726f72     	blo	0x1ca8eae <__prog_end__+0x1c9bcd6> @ imm = #29998536
    d0e2: 7d737b20     	<unknown>
    d0e6: 2e207b00     	<unknown>

0000d0e7 <fmt.formatType__anon_1591__anon_1794>:
    d0e7: 2e2e207b     	mcrhs	p0, #1, r2, c14, c11, #3
    d0eb: 007d202e     	rsbseq	r2, sp, lr, lsr #32

0000d0ef <fmt.ANY__anon_1617>:
    d0ef: 00796e61     	rsbseq	r6, r9, r1, ror #28
    d0f3: 61766e49     	cmnvs	r6, r9, asr #28
    d0f7: 5064696c     	rsbpl	r6, r4, r12, ror #18
    d0fb: 49006e69     	stmdbmi	r0, {r0, r3, r5, r6, r9, r10, r11, sp, lr}
    d0ff: 6c61766e     	stclvs	p6, c7, [r1], #-440
    d103: 75466469     	strbvc	r6, [r6, #-1129]
    d107: 6974636e     	ldmdbvs	r4!, {r1, r2, r3, r5, r6, r8, r9, sp, lr} ^
    d10b: 4e006e6f     	cdpmi	p14, #0, c6, c0, c15, #3
    d10f: 6170536f     	cmnvs	r0, pc, ror #6
    d113: 654c6563     	strbvs	r6, [r12, #-1379]
    d117: 45007466     	strmi	r7, [r0, #-1126]
    d11b: 63657078     	<unknown>
    d11f: 20646574     	rsbhs	r6, r4, r4, ror r5
    d123: 736f6c63     	<unknown>
    d127: 20676e69     	rsbhs	r6, r7, r9, ror #28
    d12b: 7455005d     	ldrbvc	r0, [r5], #-93
    d12f: 6e493866     	cdpvs	p8, #4, c3, c9, c6, #3
    d133: 696c6176     	stmdbvs	r12!, {r1, r2, r4, r5, r6, r8, sp, lr} ^
    d137: 61745364     	cmnvs	r4, r4, ror #6
    d13b: 79427472     	stmdbvc	r2, {r1, r4, r5, r6, r10, r12, sp, lr} ^
    d13f: 54006574     	strpl	r6, [r0], #-1396
    d143: 636e7572     	<unknown>
    d147: 64657461     	strbtvs	r7, [r5], #-1121
    d14b: 75706e49     	ldrbvc	r6, [r0, #-3657]!
    d14f: 74550074     	ldrbvc	r0, [r5], #-116
    d153: 78453866     	stmdavc	r5, {r1, r2, r5, r6, r11, r12, sp} ^
    d157: 74636570     	strbtvc	r6, [r3], #-1392
    d15b: 6f436465     	svcvs	#4416613
    d15f: 6e69746e     	cdpvs	p4, #6, c7, c9, c14, #3
    d163: 69746175     	ldmdbvs	r4!, {r0, r2, r4, r5, r6, r8, sp, lr} ^
    d167: 55006e6f     	strpl	r6, [r0, #-3695]
    d16b: 4f386674     	svcmi	#3696244
    d16f: 6c726576     	ldclvs	p5, c6, [r2], #-472
    d173: 45676e6f     	strbmi	r6, [r7, #-3695]!
    d177: 646f636e     	strbtvs	r6, [pc], #-878
    d17b: 00676e69     	rsbeq	r6, r7, r9, ror #28
    d17f: 38667455     	stmdalo	r6!, {r0, r2, r4, r6, r10, r12, sp, lr} ^
    d183: 6f636e45     	svcvs	#6516293
    d187: 53736564     	cmnpl	r3, #100, #10
    d18b: 6f727275     	svcvs	#7500405
    d18f: 65746167     	ldrbvs	r6, [r4, #-359]!
    d193: 666c6148     	strbtvs	r6, [r12], -r8, asr #2
    d197: 66745500     	ldrbtvs	r5, [r4], -r0, lsl #10
    d19b: 646f4338     	strbtvs	r4, [pc], #-824
    d19f: 696f7065     	stmdbvs	pc!, {r0, r2, r5, r6, r12, sp, lr} ^
    d1a3: 6f54746e     	svcvs	#5534830
    d1a7: 72614c6f     	rsbvc	r4, r1, #28416
    d1ab: 00006567     	andeq	r6, r0, r7, ror #10
    d1af: 20000000     	andhs	r0, r0, r0

0000d1b0 <main.GPIO_BASE>:
    d1b0: 20200000     	eorhs	r0, r0, r0

0000d1b4 <main.GPIO_BASE_INT>:
    d1b4: 20200000     	eorhs	r0, r0, r0

0000d1b8 <main.gpio_set0>:
    d1b8: 2020001c     	eorhs	r0, r0, r12, lsl r0

0000d1bc <main.gpio_clr0>:
    d1bc: 20200028     	eorhs	r0, r0, r8, lsr #32
    d1c0: 00010000     	andeq	r0, r1, r0
    d1c4: 00020000     	andeq	r0, r2, r0
    d1c8: 00030000     	andeq	r0, r3, r0
    d1cc: 00040000     	andeq	r0, r4, r0
    d1d0: 00000005     	andeq	r0, r0, r5

Disassembly of section .bss:

0000d1d4 <__bss_start__>:
...

Disassembly of section .symtab:

00000000 <.symtab>:
		...
      10: 00000001     	andeq	r0, r0, r1
      14: 00008000     	andeq	r8, r0, r0
      18: 00000000     	andeq	r0, r0, r0
      1c: 00010000     	andeq	r0, r1, r0
      20: 00000006     	andeq	r0, r0, r6
		...
      2c: fff10004     	<unknown>
      30: 00000010     	andeq	r0, r0, r0, lsl r0
      34: 00008038     	andeq	r8, r0, r8, lsr r0
      38: 00000128     	andeq	r0, r0, r8, lsr #2
      3c: 00010002     	andeq	r0, r1, r2
      40: 00000059     	andeq	r0, r0, r9, asr r0
      44: 00008038     	andeq	r8, r0, r8, lsr r0
      48: 00000000     	andeq	r0, r0, r0
      4c: 00010000     	andeq	r0, r1, r0
      50: 0000005e     	andeq	r0, r0, lr, asr r0
      54: 00008160     	andeq	r8, r0, r0, ror #2
      58: 00000024     	andeq	r0, r0, r4, lsr #32
      5c: 00010002     	andeq	r0, r1, r2
      60: 0000008d     	andeq	r0, r0, sp, lsl #1
      64: 00008184     	andeq	r8, r0, r4, lsl #3
      68: 00000030     	andeq	r0, r0, r0, lsr r0
      6c: 00010002     	andeq	r0, r1, r2
      70: 000000a6     	andeq	r0, r0, r6, lsr #1
      74: 000081b4     	strheq	r8, [r0], -r4
      78: 000000c4     	andeq	r0, r0, r4, asr #1
      7c: 00010002     	andeq	r0, r1, r2
      80: 000000cf     	andeq	r0, r0, pc, asr #1
      84: 00008278     	andeq	r8, r0, r8, ror r2
      88: 0000000c     	andeq	r0, r0, r12
      8c: 00010002     	andeq	r0, r1, r2
      90: 000000e5     	andeq	r0, r0, r5, ror #1
      94: 00008158     	andeq	r8, r0, r8, asr r1
      98: 00000000     	andeq	r0, r0, r0
      9c: 00010000     	andeq	r0, r1, r0
      a0: 000000ea     	andeq	r0, r0, r10, ror #1
      a4: 0000cdd8     	ldrdeq	r12, sp, [r0], -r8
      a8: 00000010     	andeq	r0, r0, r0, lsl r0
      ac: 00020001     	andeq	r0, r2, r1
      b0: 0000013d     	andeq	r0, r0, sp, lsr r1
      b4: 00008160     	andeq	r8, r0, r0, ror #2
      b8: 00000000     	andeq	r0, r0, r0
      bc: 00010000     	andeq	r0, r1, r0
      c0: 00000142     	andeq	r0, r0, r2, asr #2
      c4: 00008180     	andeq	r8, r0, r0, lsl #3
      c8: 00000000     	andeq	r0, r0, r0
      cc: 00010000     	andeq	r0, r1, r0
      d0: 00000147     	andeq	r0, r0, r7, asr #2
      d4: 00008184     	andeq	r8, r0, r4, lsl #3
      d8: 00000000     	andeq	r0, r0, r0
      dc: 00010000     	andeq	r0, r1, r0
      e0: 0000014c     	andeq	r0, r0, r12, asr #2
      e4: 0000858c     	andeq	r8, r0, r12, lsl #11
      e8: 00000134     	andeq	r0, r0, r4, lsr r1
      ec: 00010002     	andeq	r0, r1, r2
      f0: 00000168     	andeq	r0, r0, r8, ror #2
      f4: 00008270     	andeq	r8, r0, r0, ror r2
      f8: 00000000     	andeq	r0, r0, r0
      fc: 00010000     	andeq	r0, r1, r0
     100: 0000016d     	andeq	r0, r0, sp, ror #2
     104: 0000c9a8     	andeq	r12, r0, r8, lsr #19
     108: 0000001b     	andeq	r0, r0, r11, lsl r0
     10c: 00020001     	andeq	r0, r2, r1
     110: 000001a0     	andeq	r0, r0, r0, lsr #3
     114: 00008278     	andeq	r8, r0, r8, ror r2
     118: 00000000     	andeq	r0, r0, r0
     11c: 00010000     	andeq	r0, r1, r0
     120: 000001a5     	andeq	r0, r0, r5, lsr #3
     124: 00008284     	andeq	r8, r0, r4, lsl #5
     128: 00000080     	andeq	r0, r0, r0, lsl #1
     12c: 00010002     	andeq	r0, r1, r2
     130: 000001c3     	andeq	r0, r0, r3, asr #3
     134: 00008304     	andeq	r8, r0, r4, lsl #6
     138: 00000050     	andeq	r0, r0, r0, asr r0
     13c: 00010002     	andeq	r0, r1, r2
     140: 000001f4     	strdeq	r0, r1, [r0], -r4
     144: 000082fc     	strdeq	r8, r9, [r0], -r12
     148: 00000000     	andeq	r0, r0, r0
     14c: 00010000     	andeq	r0, r1, r0
     150: 000001f9     	strdeq	r0, r1, [r0], -r9
     154: 0000ca25     	andeq	r12, r0, r5, lsr #20
     158: 00000017     	andeq	r0, r0, r7, lsl r0
     15c: 00020001     	andeq	r0, r2, r1
     160: 00000221     	andeq	r0, r0, r1, lsr #4
     164: 00008304     	andeq	r8, r0, r4, lsl #6
     168: 00000000     	andeq	r0, r0, r0
     16c: 00010000     	andeq	r0, r1, r0
     170: 00000226     	andeq	r0, r0, r6, lsr #4
     174: 00008434     	andeq	r8, r0, r4, lsr r4
     178: 00000054     	andeq	r0, r0, r4, asr r0
     17c: 00010002     	andeq	r0, r1, r2
     180: 00000245     	andeq	r0, r0, r5, asr #4
     184: 00008488     	andeq	r8, r0, r8, lsl #9
     188: 00000044     	andeq	r0, r0, r4, asr #32
     18c: 00010002     	andeq	r0, r1, r2
     190: 0000025e     	andeq	r0, r0, lr, asr r2
     194: 000084cc     	andeq	r8, r0, r12, asr #9
     198: 00000018     	andeq	r0, r0, r8, lsl r0
     19c: 00010002     	andeq	r0, r1, r2
     1a0: 00000279     	andeq	r0, r0, r9, ror r2
     1a4: 000084e4     	andeq	r8, r0, r4, ror #9
     1a8: 00000090     	<unknown>
     1ac: 00010002     	andeq	r0, r1, r2
     1b0: 00000284     	andeq	r0, r0, r4, lsl #5
     1b4: 00008574     	andeq	r8, r0, r4, ror r5
     1b8: 00000018     	andeq	r0, r0, r8, lsl r0
     1bc: 00010002     	andeq	r0, r1, r2
     1c0: 000002a0     	andeq	r0, r0, r0, lsr #5
     1c4: 000086c0     	andeq	r8, r0, r0, asr #13
     1c8: 000000a0     	andeq	r0, r0, r0, lsr #1
     1cc: 00010002     	andeq	r0, r1, r2
     1d0: 000002c2     	andeq	r0, r0, r2, asr #5
     1d4: 00008760     	andeq	r8, r0, r0, ror #14
     1d8: 000000f4     	strdeq	r0, r1, [r0], -r4
     1dc: 00010002     	andeq	r0, r1, r2
     1e0: 000002d6     	ldrdeq	r0, r1, [r0], -r6
     1e4: 00008854     	andeq	r8, r0, r4, asr r8
     1e8: 00000134     	andeq	r0, r0, r4, lsr r1
     1ec: 00010002     	andeq	r0, r1, r2
     1f0: 000002f2     	strdeq	r0, r1, [r0], -r2
     1f4: 000084c8     	andeq	r8, r0, r8, asr #9
     1f8: 00000000     	andeq	r0, r0, r0
     1fc: 00010000     	andeq	r0, r1, r0
     200: 000002f7     	strdeq	r0, r1, [r0], -r7
     204: 000084cc     	andeq	r8, r0, r12, asr #9
     208: 00000000     	andeq	r0, r0, r0
     20c: 00010000     	andeq	r0, r1, r0
     210: 000002fd     	strdeq	r0, r1, [r0], -sp
     214: 000084e0     	andeq	r8, r0, r0, ror #9
     218: 00000000     	andeq	r0, r0, r0
     21c: 00010000     	andeq	r0, r1, r0
     220: 00000303     	andeq	r0, r0, r3, lsl #6
     224: 000084e4     	andeq	r8, r0, r4, ror #9
     228: 00000000     	andeq	r0, r0, r0
     22c: 00010000     	andeq	r0, r1, r0
     230: 00000309     	andeq	r0, r0, r9, lsl #6
     234: 0000856c     	andeq	r8, r0, r12, ror #10
     238: 00000000     	andeq	r0, r0, r0
     23c: 00010000     	andeq	r0, r1, r0
     240: 0000030f     	andeq	r0, r0, pc, lsl #6
     244: 0000cde8     	andeq	r12, r0, r8, ror #27
     248: 00000010     	andeq	r0, r0, r0, lsl r0
     24c: 00020001     	andeq	r0, r2, r1
     250: 00000325     	andeq	r0, r0, r5, lsr #6
     254: 00008574     	andeq	r8, r0, r4, ror r5
     258: 00000000     	andeq	r0, r0, r0
     25c: 00010000     	andeq	r0, r1, r0
     260: 0000032b     	andeq	r0, r0, r11, lsr #6
     264: 00008588     	andeq	r8, r0, r8, lsl #11
     268: 00000000     	andeq	r0, r0, r0
     26c: 00010000     	andeq	r0, r1, r0
     270: 00000331     	andeq	r0, r0, r1, lsr r3
     274: 0000858c     	andeq	r8, r0, r12, lsl #11
     278: 00000000     	andeq	r0, r0, r0
     27c: 00010000     	andeq	r0, r1, r0
     280: 00000337     	andeq	r0, r0, r7, lsr r3
     284: 00008988     	andeq	r8, r0, r8, lsl #19
     288: 00000130     	andeq	r0, r0, r0, lsr r1
     28c: 00010002     	andeq	r0, r1, r2
     290: 0000034f     	andeq	r0, r0, pc, asr #6
     294: 00008ab8     	strheq	r8, [r0], -r8
     298: 000000a8     	andeq	r0, r0, r8, lsr #1
     29c: 00010002     	andeq	r0, r1, r2
     2a0: 00000363     	andeq	r0, r0, r3, ror #6
     2a4: 000086b4     	strheq	r8, [r0], -r4
     2a8: 00000000     	andeq	r0, r0, r0
     2ac: 00010000     	andeq	r0, r1, r0
     2b0: 00000369     	andeq	r0, r0, r9, ror #6
     2b4: 0000d092     	<unknown>
     2b8: 00000010     	andeq	r0, r0, r0, lsl r0
     2bc: 00020001     	andeq	r0, r2, r1
     2c0: 00000390     	<unknown>
     2c4: 0000ca40     	andeq	r12, r0, r0, asr #20
     2c8: 00000017     	andeq	r0, r0, r7, lsl r0
     2cc: 00020001     	andeq	r0, r2, r1
     2d0: 000003b7     	strheq	r0, [r0], -r7
     2d4: 000086c0     	andeq	r8, r0, r0, asr #13
     2d8: 00000000     	andeq	r0, r0, r0
     2dc: 00010000     	andeq	r0, r1, r0
     2e0: 000003bd     	strheq	r0, [r0], -sp
     2e4: 0000875c     	andeq	r8, r0, r12, asr r7
     2e8: 00000000     	andeq	r0, r0, r0
     2ec: 00010000     	andeq	r0, r1, r0
     2f0: 000003c3     	andeq	r0, r0, r3, asr #7
     2f4: 00008760     	andeq	r8, r0, r0, ror #14
     2f8: 00000000     	andeq	r0, r0, r0
     2fc: 00010000     	andeq	r0, r1, r0
     300: 000003c9     	andeq	r0, r0, r9, asr #7
     304: 0000884c     	andeq	r8, r0, r12, asr #16
     308: 00000000     	andeq	r0, r0, r0
     30c: 00010000     	andeq	r0, r1, r0
     310: 000003cf     	andeq	r0, r0, pc, asr #7
     314: 0000cdf8     	strdeq	r12, sp, [r0], -r8
     318: 00000010     	andeq	r0, r0, r0, lsl r0
     31c: 00020001     	andeq	r0, r2, r1
     320: 000003f5     	strdeq	r0, r1, [r0], -r5
     324: 00008854     	andeq	r8, r0, r4, asr r8
     328: 00000000     	andeq	r0, r0, r0
     32c: 00010000     	andeq	r0, r1, r0
     330: 000003fb     	strdeq	r0, r1, [r0], -r11
     334: 00008b60     	andeq	r8, r0, r0, ror #22
     338: 00000130     	andeq	r0, r0, r0, lsr r1
     33c: 00010002     	andeq	r0, r1, r2
     340: 00000413     	andeq	r0, r0, r3, lsl r4
     344: 0000897c     	andeq	r8, r0, r12, ror r9
     348: 00000000     	andeq	r0, r0, r0
     34c: 00010000     	andeq	r0, r1, r0
     350: 00000419     	andeq	r0, r0, r9, lsl r4
     354: 0000ca57     	andeq	r12, r0, r7, asr r10
     358: 00000017     	andeq	r0, r0, r7, lsl r0
     35c: 00020001     	andeq	r0, r2, r1
     360: 00000440     	andeq	r0, r0, r0, asr #8
     364: 00008988     	andeq	r8, r0, r8, lsl #19
     368: 00000000     	andeq	r0, r0, r0
     36c: 00010000     	andeq	r0, r1, r0
     370: 00000446     	andeq	r0, r0, r6, asr #8
     374: 00009030     	andeq	r9, r0, r0, lsr r0
     378: 0000004c     	andeq	r0, r0, r12, asr #32
     37c: 00010002     	andeq	r0, r1, r2
     380: 0000047a     	andeq	r0, r0, r10, ror r4
     384: 0000907c     	andeq	r9, r0, r12, ror r0
     388: 00000008     	andeq	r0, r0, r8
     38c: 00010002     	andeq	r0, r1, r2
     390: 000004b0     	strheq	r0, [r0], -r0
     394: 00008c90     	<unknown>
     398: 00000174     	andeq	r0, r0, r4, ror r1
     39c: 00010002     	andeq	r0, r1, r2
     3a0: 000004c6     	andeq	r0, r0, r6, asr #9
     3a4: 00009084     	andeq	r9, r0, r4, lsl #1
     3a8: 00000088     	andeq	r0, r0, r8, lsl #1
     3ac: 00010002     	andeq	r0, r1, r2
     3b0: 00000500     	andeq	r0, r0, r0, lsl #10
     3b4: 0000910c     	andeq	r9, r0, r12, lsl #2
     3b8: 00000038     	andeq	r0, r0, r8, lsr r0
     3bc: 00010002     	andeq	r0, r1, r2
     3c0: 0000050d     	andeq	r0, r0, sp, lsl #10
     3c4: 00009144     	andeq	r9, r0, r4, asr #2
     3c8: 000000d0     	ldrdeq	r0, r1, [r0], -r0
     3cc: 00010002     	andeq	r0, r1, r2
     3d0: 00000523     	andeq	r0, r0, r3, lsr #10
     3d4: 00008e04     	andeq	r8, r0, r4, lsl #28
     3d8: 000001e4     	andeq	r0, r0, r4, ror #3
     3dc: 00010002     	andeq	r0, r1, r2
     3e0: 00000594     	<unknown>
     3e4: 00008fe8     	andeq	r8, r0, r8, ror #31
     3e8: 00000048     	andeq	r0, r0, r8, asr #32
     3ec: 00010002     	andeq	r0, r1, r2
     3f0: 000005ae     	andeq	r0, r0, lr, lsr #11
     3f4: 00008df8     	strdeq	r8, r9, [r0], -r8
     3f8: 00000000     	andeq	r0, r0, r0
     3fc: 00010000     	andeq	r0, r1, r0
     400: 000005b4     	strheq	r0, [r0], -r4
     404: 0000d0a2     	andeq	sp, r0, r2, lsr #1
     408: 00000028     	andeq	r0, r0, r8, lsr #32
     40c: 00020001     	andeq	r0, r2, r1
     410: 000005d8     	ldrdeq	r0, r1, [r0], -r8
     414: 00008e04     	andeq	r8, r0, r4, lsl #28
     418: 00000000     	andeq	r0, r0, r0
     41c: 00010000     	andeq	r0, r1, r0
     420: 000005de     	ldrdeq	r0, r1, [r0], -lr
     424: 0000976c     	andeq	r9, r0, r12, ror #14
     428: 00000068     	andeq	r0, r0, r8, rrx
     42c: 00010002     	andeq	r0, r1, r2
     430: 0000064c     	andeq	r0, r0, r12, asr #12
     434: 00008fd8     	ldrdeq	r8, r9, [r0], -r8
     438: 00000000     	andeq	r0, r0, r0
     43c: 00010000     	andeq	r0, r1, r0
     440: 00000652     	andeq	r0, r0, r2, asr r6
     444: 0000ce58     	andeq	r12, r0, r8, asr lr
     448: 00000010     	andeq	r0, r0, r0, lsl r0
     44c: 00020001     	andeq	r0, r2, r1
     450: 000006ce     	andeq	r0, r0, lr, asr #13
     454: 0000ce68     	andeq	r12, r0, r8, ror #28
     458: 00000010     	andeq	r0, r0, r0, lsl r0
     45c: 00020001     	andeq	r0, r2, r1
     460: 0000074a     	andeq	r0, r0, r10, asr #14
     464: 00008fe8     	andeq	r8, r0, r8, ror #31
     468: 00000000     	andeq	r0, r0, r0
     46c: 00010000     	andeq	r0, r1, r0
     470: 00000750     	andeq	r0, r0, r0, asr r7
     474: 0000a3c0     	andeq	r10, r0, r0, asr #7
     478: 00000048     	andeq	r0, r0, r8, asr #32
     47c: 00010002     	andeq	r0, r1, r2
     480: 0000076b     	andeq	r0, r0, r11, ror #14
     484: 00009308     	andeq	r9, r0, r8, lsl #6
     488: 0000008c     	andeq	r0, r0, r12, lsl #1
     48c: 00010002     	andeq	r0, r1, r2
     490: 0000077f     	andeq	r0, r0, pc, ror r7
     494: 0000913c     	andeq	r9, r0, r12, lsr r1
     498: 00000000     	andeq	r0, r0, r0
     49c: 00010000     	andeq	r0, r1, r0
     4a0: 00000785     	andeq	r0, r0, r5, lsl #15
     4a4: 0000cb88     	andeq	r12, r0, r8, lsl #23
     4a8: 00000018     	andeq	r0, r0, r8, lsl r0
     4ac: 00020001     	andeq	r0, r2, r1
     4b0: 0000079d     	<unknown>
     4b4: 00009144     	andeq	r9, r0, r4, asr #2
     4b8: 00000000     	andeq	r0, r0, r0
     4bc: 00010000     	andeq	r0, r1, r0
     4c0: 000007a3     	andeq	r0, r0, r3, lsr #15
     4c4: 00009214     	andeq	r9, r0, r4, lsl r2
     4c8: 000000f4     	strdeq	r0, r1, [r0], -r4
     4cc: 00010002     	andeq	r0, r1, r2
     4d0: 000007bd     	strheq	r0, [r0], -sp
     4d4: 0000920c     	andeq	r9, r0, r12, lsl #4
     4d8: 00000000     	andeq	r0, r0, r0
     4dc: 00010000     	andeq	r0, r1, r0
     4e0: 000007c3     	andeq	r0, r0, r3, asr #15
     4e4: 0000d0ca     	andeq	sp, r0, r10, asr #1
     4e8: 0000001d     	andeq	r0, r0, sp, lsl r0
     4ec: 00020001     	andeq	r0, r2, r1
     4f0: 000007e7     	andeq	r0, r0, r7, ror #15
     4f4: 00009214     	andeq	r9, r0, r4, lsl r2
     4f8: 00000000     	andeq	r0, r0, r0
     4fc: 00010000     	andeq	r0, r1, r0
     500: 000007ed     	andeq	r0, r0, sp, ror #15
     504: 0000a938     	andeq	r10, r0, r8, lsr r9
     508: 000004f0     	strdeq	r0, r1, [r0], -r0
     50c: 00010002     	andeq	r0, r1, r2
     510: 00000806     	andeq	r0, r0, r6, lsl #16
     514: 00009304     	andeq	r9, r0, r4, lsl #6
     518: 00000000     	andeq	r0, r0, r0
     51c: 00010000     	andeq	r0, r1, r0
     520: 0000080c     	andeq	r0, r0, r12, lsl #16
     524: 0000d0e7     	andeq	sp, r0, r7, ror #1
     528: 00000008     	andeq	r0, r0, r8
     52c: 00020001     	andeq	r0, r2, r1
     530: 00000831     	andeq	r0, r0, r1, lsr r8
     534: 00009308     	andeq	r9, r0, r8, lsl #6
     538: 00000000     	andeq	r0, r0, r0
     53c: 00010000     	andeq	r0, r1, r0
     540: 00000837     	andeq	r0, r0, r7, lsr r8
     544: 0000b934     	andeq	r11, r0, r4, lsr r9
     548: 00000014     	andeq	r0, r0, r4, lsl r0
     54c: 00010002     	andeq	r0, r1, r2
     550: 0000084a     	andeq	r0, r0, r10, asr #16
     554: 00009394     	<unknown>
     558: 000003d8     	ldrdeq	r0, r1, [r0], -r8
     55c: 00010002     	andeq	r0, r1, r2
     560: 0000087f     	andeq	r0, r0, pc, ror r8
     564: 00009744     	andeq	r9, r0, r4, asr #14
     568: 00000000     	andeq	r0, r0, r0
     56c: 00010000     	andeq	r0, r1, r0
     570: 00000885     	andeq	r0, r0, r5, lsl #17
     574: 0000ce08     	andeq	r12, r0, r8, lsl #28
     578: 00000010     	andeq	r0, r0, r0, lsl r0
     57c: 00020001     	andeq	r0, r2, r1
     580: 000008c5     	andeq	r0, r0, r5, asr #17
     584: 0000ce18     	andeq	r12, r0, r8, lsl lr
     588: 00000010     	andeq	r0, r0, r0, lsl r0
     58c: 00020001     	andeq	r0, r2, r1
     590: 00000905     	andeq	r0, r0, r5, lsl #18
     594: 0000ce28     	andeq	r12, r0, r8, lsr #28
     598: 00000010     	andeq	r0, r0, r0, lsl r0
     59c: 00020001     	andeq	r0, r2, r1
     5a0: 00000945     	andeq	r0, r0, r5, asr #18
     5a4: 0000ce38     	andeq	r12, r0, r8, lsr lr
     5a8: 00000010     	andeq	r0, r0, r0, lsl r0
     5ac: 00020001     	andeq	r0, r2, r1
     5b0: 00000985     	andeq	r0, r0, r5, lsl #19
     5b4: 0000ce48     	andeq	r12, r0, r8, asr #28
     5b8: 00000010     	andeq	r0, r0, r0, lsl r0
     5bc: 00020001     	andeq	r0, r2, r1
     5c0: 000009c5     	andeq	r0, r0, r5, asr #19
     5c4: 0000976c     	andeq	r9, r0, r12, ror #14
     5c8: 00000000     	andeq	r0, r0, r0
     5cc: 00010000     	andeq	r0, r1, r0
     5d0: 000009cb     	andeq	r0, r0, r11, asr #19
     5d4: 000097d4     	ldrdeq	r9, r10, [r0], -r4
     5d8: 000001b8     	strheq	r0, [r0], -r8
     5dc: 00010002     	andeq	r0, r1, r2
     5e0: 000009e0     	andeq	r0, r0, r0, ror #19
     5e4: 0000998c     	andeq	r9, r0, r12, lsl #19
     5e8: 00000128     	andeq	r0, r0, r8, lsr #2
     5ec: 00010002     	andeq	r0, r1, r2
     5f0: 000009f1     	strdeq	r0, r1, [r0], -r1
     5f4: 00009ab4     	strheq	r9, [r0], -r4
     5f8: 00000210     	andeq	r0, r0, r0, lsl r2
     5fc: 00010002     	andeq	r0, r1, r2
     600: 00000a02     	andeq	r0, r0, r2, lsl #20
     604: 00009cc4     	andeq	r9, r0, r4, asr #25
     608: 00000324     	andeq	r0, r0, r4, lsr #6
     60c: 00010002     	andeq	r0, r1, r2
     610: 00000a14     	andeq	r0, r0, r4, lsl r10
     614: 00009aac     	andeq	r9, r0, r12, lsr #21
     618: 00000000     	andeq	r0, r0, r0
     61c: 00010000     	andeq	r0, r1, r0
     620: 00000a1a     	andeq	r0, r0, r10, lsl r10
     624: 0000ce88     	andeq	r12, r0, r8, lsl #29
     628: 00000010     	andeq	r0, r0, r0, lsl r0
     62c: 00020001     	andeq	r0, r2, r1
     630: 00000a36     	andeq	r0, r0, r6, lsr r10
     634: 00009ab4     	strheq	r9, [r0], -r4
     638: 00000000     	andeq	r0, r0, r0
     63c: 00010000     	andeq	r0, r1, r0
     640: 00000a3c     	andeq	r0, r0, r12, lsr r10
     644: 00009cb0     	strheq	r9, [r0], -r0
     648: 00000000     	andeq	r0, r0, r0
     64c: 00010000     	andeq	r0, r1, r0
     650: 00000a42     	andeq	r0, r0, r2, asr #20
     654: 0000ced8     	ldrdeq	r12, sp, [r0], -r8
     658: 00000010     	andeq	r0, r0, r0, lsl r0
     65c: 00020001     	andeq	r0, r2, r1
     660: 00000a5e     	andeq	r0, r0, lr, asr r10
     664: 0000cee8     	andeq	r12, r0, r8, ror #29
     668: 00000010     	andeq	r0, r0, r0, lsl r0
     66c: 00020001     	andeq	r0, r2, r1
     670: 00000a7a     	andeq	r0, r0, r10, ror r10
     674: 00009cc4     	andeq	r9, r0, r4, asr #25
     678: 00000000     	andeq	r0, r0, r0
     67c: 00010000     	andeq	r0, r1, r0
     680: 00000a80     	andeq	r0, r0, r0, lsl #21
     684: 00009fb8     	strheq	r9, [r0], -r8
     688: 00000000     	andeq	r0, r0, r0
     68c: 00010000     	andeq	r0, r1, r0
     690: 00000a86     	andeq	r0, r0, r6, lsl #21
     694: 0000cba0     	andeq	r12, r0, r0, lsr #23
     698: 00000019     	andeq	r0, r0, r9, lsl r0
     69c: 00020001     	andeq	r0, r2, r1
     6a0: 00000aa3     	andeq	r0, r0, r3, lsr #21
     6a4: 0000ce98     	<unknown>
     6a8: 00000010     	andeq	r0, r0, r0, lsl r0
     6ac: 00020001     	andeq	r0, r2, r1
     6b0: 00000ac0     	andeq	r0, r0, r0, asr #21
     6b4: 0000cbb9     	strheq	r12, [r0], -r9
     6b8: 00000019     	andeq	r0, r0, r9, lsl r0
     6bc: 00020001     	andeq	r0, r2, r1
     6c0: 00000add     	ldrdeq	r0, r1, [r0], -sp
     6c4: 0000cea8     	andeq	r12, r0, r8, lsr #29
     6c8: 00000010     	andeq	r0, r0, r0, lsl r0
     6cc: 00020001     	andeq	r0, r2, r1
     6d0: 00000afa     	strdeq	r0, r1, [r0], -r10
     6d4: 0000ceb8     	strheq	r12, [r0], -r8
     6d8: 00000010     	andeq	r0, r0, r0, lsl r0
     6dc: 00020001     	andeq	r0, r2, r1
     6e0: 00000b17     	andeq	r0, r0, r7, lsl r11
     6e4: 0000cec8     	andeq	r12, r0, r8, asr #29
     6e8: 00000010     	andeq	r0, r0, r0, lsl r0
     6ec: 00020001     	andeq	r0, r2, r1
     6f0: 00000b34     	andeq	r0, r0, r4, lsr r11
     6f4: 00009fe8     	andeq	r9, r0, r8, ror #31
     6f8: 0000011c     	andeq	r0, r0, r12, lsl r1
     6fc: 00010002     	andeq	r0, r1, r2
     700: 00000b44     	andeq	r0, r0, r4, asr #22
     704: 00009fe8     	andeq	r9, r0, r8, ror #31
     708: 00000000     	andeq	r0, r0, r0
     70c: 00010000     	andeq	r0, r1, r0
     710: 00000b4a     	andeq	r0, r0, r10, asr #22
     714: 0000a0fc     	strdeq	r10, r11, [r0], -r12
     718: 00000000     	andeq	r0, r0, r0
     71c: 00010000     	andeq	r0, r1, r0
     720: 00000b50     	andeq	r0, r0, r0, asr r11
     724: 0000cef8     	strdeq	r12, sp, [r0], -r8
     728: 00000010     	andeq	r0, r0, r0, lsl r0
     72c: 00020001     	andeq	r0, r2, r1
     730: 00000b6b     	andeq	r0, r0, r11, ror #22
     734: 0000a104     	andeq	r10, r0, r4, lsl #2
     738: 00000148     	andeq	r0, r0, r8, asr #2
     73c: 00010002     	andeq	r0, r1, r2
     740: 00000b7b     	andeq	r0, r0, r11, ror r11
     744: 0000a104     	andeq	r10, r0, r4, lsl #2
     748: 00000000     	andeq	r0, r0, r0
     74c: 00010000     	andeq	r0, r1, r0
     750: 00000b81     	andeq	r0, r0, r1, lsl #23
     754: 0000a23c     	andeq	r10, r0, r12, lsr r2
     758: 00000000     	andeq	r0, r0, r0
     75c: 00010000     	andeq	r0, r1, r0
     760: 00000b87     	andeq	r0, r0, r7, lsl #23
     764: 0000cf08     	andeq	r12, r0, r8, lsl #30
     768: 00000010     	andeq	r0, r0, r0, lsl r0
     76c: 00020001     	andeq	r0, r2, r1
     770: 00000ba2     	andeq	r0, r0, r2, lsr #23
     774: 0000cf18     	andeq	r12, r0, r8, lsl pc
     778: 00000010     	andeq	r0, r0, r0, lsl r0
     77c: 00020001     	andeq	r0, r2, r1
     780: 00000bbd     	strheq	r0, [r0], -sp
     784: 0000a24c     	andeq	r10, r0, r12, asr #4
     788: 00000174     	andeq	r0, r0, r4, ror r1
     78c: 00010002     	andeq	r0, r1, r2
     790: 00000bd2     	ldrdeq	r0, r1, [r0], -r2
     794: 0000a24c     	andeq	r10, r0, r12, asr #4
     798: 00000000     	andeq	r0, r0, r0
     79c: 00010000     	andeq	r0, r1, r0
     7a0: 00000bd8     	ldrdeq	r0, r1, [r0], -r8
     7a4: 0000a3b0     	strheq	r10, [r0], -r0
     7a8: 00000000     	andeq	r0, r0, r0
     7ac: 00010000     	andeq	r0, r1, r0
     7b0: 00000bde     	ldrdeq	r0, r1, [r0], -lr
     7b4: 0000cf28     	andeq	r12, r0, r8, lsr #30
     7b8: 00000010     	andeq	r0, r0, r0, lsl r0
     7bc: 00020001     	andeq	r0, r2, r1
     7c0: 00000bfe     	strdeq	r0, r1, [r0], -lr
     7c4: 0000cbd6     	ldrdeq	r12, sp, [r0], -r6
     7c8: 0000001b     	andeq	r0, r0, r11, lsl r0
     7cc: 00020001     	andeq	r0, r2, r1
     7d0: 00000c1e     	andeq	r0, r0, lr, lsl r12
     7d4: 0000a3c0     	andeq	r10, r0, r0, asr #7
     7d8: 00000000     	andeq	r0, r0, r0
     7dc: 00010000     	andeq	r0, r1, r0
     7e0: 00000c24     	andeq	r0, r0, r4, lsr #24
     7e4: 0000a408     	andeq	r10, r0, r8, lsl #8
     7e8: 00000060     	andeq	r0, r0, r0, rrx
     7ec: 00010002     	andeq	r0, r1, r2
     7f0: 00000c42     	andeq	r0, r0, r2, asr #24
     7f4: 0000a468     	andeq	r10, r0, r8, ror #8
     7f8: 00000314     	andeq	r0, r0, r4, lsl r3
     7fc: 00010002     	andeq	r0, r1, r2
     800: 00000c5b     	andeq	r0, r0, r11, asr r12
     804: 0000a77c     	andeq	r10, r0, r12, ror r7
     808: 00000004     	andeq	r0, r0, r4
     80c: 00010002     	andeq	r0, r1, r2
     810: 00000c73     	andeq	r0, r0, r3, ror r12
     814: 0000a780     	andeq	r10, r0, r0, lsl #15
     818: 000001b8     	strheq	r0, [r0], -r8
     81c: 00010002     	andeq	r0, r1, r2
     820: 00000c83     	andeq	r0, r0, r3, lsl #25
     824: 0000a754     	andeq	r10, r0, r4, asr r7
     828: 00000000     	andeq	r0, r0, r0
     82c: 00010000     	andeq	r0, r1, r0
     830: 00000c89     	andeq	r0, r0, r9, lsl #25
     834: 0000cf38     	andeq	r12, r0, r8, lsr pc
     838: 00000010     	andeq	r0, r0, r0, lsl r0
     83c: 00020001     	andeq	r0, r2, r1
     840: 00000cad     	andeq	r0, r0, sp, lsr #25
     844: 0000cf48     	andeq	r12, r0, r8, asr #30
     848: 00000010     	andeq	r0, r0, r0, lsl r0
     84c: 00020001     	andeq	r0, r2, r1
     850: 00000cd1     	ldrdeq	r0, r1, [r0], -r1
     854: 0000cbf3     	strdeq	r12, sp, [r0], -r3
     858: 0000001b     	andeq	r0, r0, r11, lsl r0
     85c: 00020001     	andeq	r0, r2, r1
     860: 00000cf5     	strdeq	r0, r1, [r0], -r5
     864: 0000cf58     	andeq	r12, r0, r8, asr pc
     868: 00000010     	andeq	r0, r0, r0, lsl r0
     86c: 00020001     	andeq	r0, r2, r1
     870: 00000d19     	andeq	r0, r0, r9, lsl sp
     874: 0000cf68     	andeq	r12, r0, r8, ror #30
     878: 00000010     	andeq	r0, r0, r0, lsl r0
     87c: 00020001     	andeq	r0, r2, r1
     880: 00000d3d     	andeq	r0, r0, sp, lsr sp
     884: 0000a77c     	andeq	r10, r0, r12, ror r7
     888: 00000000     	andeq	r0, r0, r0
     88c: 00010000     	andeq	r0, r1, r0
     890: 00000d43     	andeq	r0, r0, r3, asr #26
     894: 0000a918     	andeq	r10, r0, r8, lsl r9
     898: 00000000     	andeq	r0, r0, r0
     89c: 00010000     	andeq	r0, r1, r0
     8a0: 00000d49     	andeq	r0, r0, r9, asr #26
     8a4: 0000cc45     	andeq	r12, r0, r5, asr #24
     8a8: 00000018     	andeq	r0, r0, r8, lsl r0
     8ac: 00020001     	andeq	r0, r2, r1
     8b0: 00000d64     	andeq	r0, r0, r4, ror #26
     8b4: 0000d038     	andeq	sp, r0, r8, lsr r0
     8b8: 00000010     	andeq	r0, r0, r0, lsl r0
     8bc: 00020001     	andeq	r0, r2, r1
     8c0: 00000d7f     	andeq	r0, r0, pc, ror sp
     8c4: 0000d048     	andeq	sp, r0, r8, asr #32
     8c8: 00000010     	andeq	r0, r0, r0, lsl r0
     8cc: 00020001     	andeq	r0, r2, r1
     8d0: 00000d9a     	<unknown>
     8d4: 0000d028     	andeq	sp, r0, r8, lsr #32
     8d8: 00000010     	andeq	r0, r0, r0, lsl r0
     8dc: 00020001     	andeq	r0, r2, r1
     8e0: 00000db5     	strheq	r0, [r0], -r5
     8e4: 0000a938     	andeq	r10, r0, r8, lsr r9
     8e8: 00000000     	andeq	r0, r0, r0
     8ec: 00010000     	andeq	r0, r1, r0
     8f0: 00000dbb     	strheq	r0, [r0], -r11
     8f4: 0000af78     	andeq	r10, r0, r8, ror pc
     8f8: 00000620     	andeq	r0, r0, r0, lsr #12
     8fc: 00010002     	andeq	r0, r1, r2
     900: 00000dd7     	ldrdeq	r0, r1, [r0], -r7
     904: 0000b750     	andeq	r11, r0, r0, asr r7
     908: 00000190     	<unknown>
     90c: 00010002     	andeq	r0, r1, r2
     910: 00000e4f     	andeq	r0, r0, pc, asr #28
     914: 0000ae10     	andeq	r10, r0, r0, lsl lr
     918: 00000000     	andeq	r0, r0, r0
     91c: 00010000     	andeq	r0, r1, r0
     920: 00000e55     	andeq	r0, r0, r5, asr lr
     924: 0000d008     	andeq	sp, r0, r8
     928: 00000010     	andeq	r0, r0, r0, lsl r0
     92c: 00020001     	andeq	r0, r2, r1
     930: 00000e79     	andeq	r0, r0, r9, ror lr
     934: 0000d018     	andeq	sp, r0, r8, lsl r0
     938: 00000010     	andeq	r0, r0, r0, lsl r0
     93c: 00020001     	andeq	r0, r2, r1
     940: 00000e9d     	<unknown>
     944: 0000cc0e     	andeq	r12, r0, lr, lsl #24
     948: 00000017     	andeq	r0, r0, r7, lsl r0
     94c: 00020001     	andeq	r0, r2, r1
     950: 00000ec1     	andeq	r0, r0, r1, asr #29
     954: 0000ae28     	andeq	r10, r0, r8, lsr #28
     958: 00000150     	andeq	r0, r0, r0, asr r1
     95c: 00010002     	andeq	r0, r1, r2
     960: 00000ee0     	andeq	r0, r0, r0, ror #29
     964: 0000ae28     	andeq	r10, r0, r8, lsr #28
     968: 00000000     	andeq	r0, r0, r0
     96c: 00010000     	andeq	r0, r1, r0
     970: 00000ee6     	andeq	r0, r0, r6, ror #29
     974: 0000af68     	andeq	r10, r0, r8, ror #30
     978: 00000000     	andeq	r0, r0, r0
     97c: 00010000     	andeq	r0, r1, r0
     980: 00000eec     	andeq	r0, r0, r12, ror #29
     984: 0000af78     	andeq	r10, r0, r8, ror pc
     988: 00000000     	andeq	r0, r0, r0
     98c: 00010000     	andeq	r0, r1, r0
     990: 00000ef2     	strdeq	r0, r1, [r0], -r2
     994: 0000b598     	<unknown>
     998: 00000008     	andeq	r0, r0, r8
     99c: 00010002     	andeq	r0, r1, r2
     9a0: 00000f0f     	andeq	r0, r0, pc, lsl #30
     9a4: 0000b5a0     	andeq	r11, r0, r0, lsr #11
     9a8: 000001b0     	strheq	r0, [r0], -r0
     9ac: 00010002     	andeq	r0, r1, r2
     9b0: 00000f22     	andeq	r0, r0, r2, lsr #30
     9b4: 0000b54c     	andeq	r11, r0, r12, asr #10
     9b8: 00000000     	andeq	r0, r0, r0
     9bc: 00010000     	andeq	r0, r1, r0
     9c0: 00000f28     	andeq	r0, r0, r8, lsr #30
     9c4: 0000cf78     	andeq	r12, r0, r8, ror pc
     9c8: 00000010     	andeq	r0, r0, r0, lsl r0
     9cc: 00020001     	andeq	r0, r2, r1
     9d0: 00000f4f     	andeq	r0, r0, pc, asr #30
     9d4: 0000cf88     	andeq	r12, r0, r8, lsl #31
     9d8: 00000010     	andeq	r0, r0, r0, lsl r0
     9dc: 00020001     	andeq	r0, r2, r1
     9e0: 00000f76     	andeq	r0, r0, r6, ror pc
     9e4: 0000cf98     	<unknown>
     9e8: 00000010     	andeq	r0, r0, r0, lsl r0
     9ec: 00020001     	andeq	r0, r2, r1
     9f0: 00000f9d     	<unknown>
     9f4: 0000cfa8     	andeq	r12, r0, r8, lsr #31
     9f8: 00000010     	andeq	r0, r0, r0, lsl r0
     9fc: 00020001     	andeq	r0, r2, r1
     a00: 00000fc4     	andeq	r0, r0, r4, asr #31
     a04: 0000cfb8     	strheq	r12, [r0], -r8
     a08: 00000010     	andeq	r0, r0, r0, lsl r0
     a0c: 00020001     	andeq	r0, r2, r1
     a10: 00000feb     	andeq	r0, r0, r11, ror #31
     a14: 0000cfc8     	andeq	r12, r0, r8, asr #31
     a18: 00000010     	andeq	r0, r0, r0, lsl r0
     a1c: 00020001     	andeq	r0, r2, r1
     a20: 00001012     	andeq	r1, r0, r2, lsl r0
     a24: 0000cfd8     	ldrdeq	r12, sp, [r0], -r8
     a28: 00000010     	andeq	r0, r0, r0, lsl r0
     a2c: 00020001     	andeq	r0, r2, r1
     a30: 00001039     	andeq	r1, r0, r9, lsr r0
     a34: 0000cfe8     	andeq	r12, r0, r8, ror #31
     a38: 00000010     	andeq	r0, r0, r0, lsl r0
     a3c: 00020001     	andeq	r0, r2, r1
     a40: 00001060     	andeq	r1, r0, r0, rrx
     a44: 0000cff8     	strdeq	r12, sp, [r0], -r8
     a48: 00000010     	andeq	r0, r0, r0, lsl r0
     a4c: 00020001     	andeq	r0, r2, r1
     a50: 00001087     	andeq	r1, r0, r7, lsl #1
     a54: 0000b598     	<unknown>
     a58: 00000000     	andeq	r0, r0, r0
     a5c: 00010000     	andeq	r0, r1, r0
     a60: 0000108d     	andeq	r1, r0, sp, lsl #1
     a64: 0000b5e0     	andeq	r11, r0, r0, ror #11
     a68: 00000000     	andeq	r0, r0, r0
     a6c: 00010000     	andeq	r0, r1, r0
     a70: 00001093     	<unknown>
     a74: 0000b5f0     	strdeq	r11, r12, [r0], -r0
     a78: 00000000     	andeq	r0, r0, r0
     a7c: 00010000     	andeq	r0, r1, r0
     a80: 00001099     	<unknown>
     a84: 0000b948     	andeq	r11, r0, r8, asr #18
     a88: 00000260     	andeq	r0, r0, r0, ror #4
     a8c: 00010002     	andeq	r0, r1, r2
     a90: 000010ad     	andeq	r1, r0, sp, lsr #1
     a94: 0000bba8     	andeq	r11, r0, r8, lsr #23
     a98: 00000400     	andeq	r0, r0, r0, lsl #8
     a9c: 00010002     	andeq	r0, r1, r2
     aa0: 000010c1     	andeq	r1, r0, r1, asr #1
     aa4: 0000bfa8     	andeq	r11, r0, r8, lsr #31
     aa8: 000004e0     	andeq	r0, r0, r0, ror #9
     aac: 00010002     	andeq	r0, r1, r2
     ab0: 000010d5     	ldrdeq	r1, r2, [r0], -r5
     ab4: 0000b748     	andeq	r11, r0, r8, asr #14
     ab8: 00000000     	andeq	r0, r0, r0
     abc: 00010000     	andeq	r0, r1, r0
     ac0: 000010db     	ldrdeq	r1, r2, [r0], -r11
     ac4: 0000cc5d     	andeq	r12, r0, sp, asr r12
     ac8: 00000018     	andeq	r0, r0, r8, lsl r0
     acc: 00020001     	andeq	r0, r2, r1
     ad0: 000010f9     	strdeq	r1, r2, [r0], -r9
     ad4: 0000b750     	andeq	r11, r0, r0, asr r7
     ad8: 00000000     	andeq	r0, r0, r0
     adc: 00010000     	andeq	r0, r1, r0
     ae0: 000010ff     	strdeq	r1, r2, [r0], -pc
     ae4: 0000c488     	andeq	r12, r0, r8, lsl #9
     ae8: 000000ec     	andeq	r0, r0, r12, ror #1
     aec: 00010002     	andeq	r0, r1, r2
     af0: 00001112     	andeq	r1, r0, r2, lsl r1
     af4: 0000c574     	andeq	r12, r0, r4, ror r5
     af8: 00000030     	andeq	r0, r0, r0, lsr r0
     afc: 00010002     	andeq	r0, r1, r2
     b00: 00001126     	andeq	r1, r0, r6, lsr #2
     b04: 0000b8d8     	ldrdeq	r11, r12, [r0], -r8
     b08: 00000000     	andeq	r0, r0, r0
     b0c: 00010000     	andeq	r0, r1, r0
     b10: 0000112c     	andeq	r1, r0, r12, lsr #2
     b14: 0000d058     	andeq	sp, r0, r8, asr r0
     b18: 00000010     	andeq	r0, r0, r0, lsl r0
     b1c: 00020001     	andeq	r0, r2, r1
     b20: 000011af     	andeq	r1, r0, pc, lsr #3
     b24: 0000b8e0     	andeq	r11, r0, r0, ror #17
     b28: 00000054     	andeq	r0, r0, r4, asr r0
     b2c: 00010002     	andeq	r0, r1, r2
     b30: 000011ca     	andeq	r1, r0, r10, asr #3
     b34: 0000b8e0     	andeq	r11, r0, r0, ror #17
     b38: 00000000     	andeq	r0, r0, r0
     b3c: 00010000     	andeq	r0, r1, r0
     b40: 000011d0     	ldrdeq	r1, r2, [r0], -r0
     b44: 0000b924     	andeq	r11, r0, r4, lsr #18
     b48: 00000000     	andeq	r0, r0, r0
     b4c: 00010000     	andeq	r0, r1, r0
     b50: 000011d6     	ldrdeq	r1, r2, [r0], -r6
     b54: 0000b934     	andeq	r11, r0, r4, lsr r9
     b58: 00000000     	andeq	r0, r0, r0
     b5c: 00010000     	andeq	r0, r1, r0
     b60: 000011dc     	ldrdeq	r1, r2, [r0], -r12
     b64: 0000bb9c     	<unknown>
     b68: 00000000     	andeq	r0, r0, r0
     b6c: 00010000     	andeq	r0, r1, r0
     b70: 000011e2     	andeq	r1, r0, r2, ror #3
     b74: 0000cc84     	andeq	r12, r0, r4, lsl #25
     b78: 0000002a     	andeq	r0, r0, r10, lsr #32
     b7c: 00020001     	andeq	r0, r2, r1
     b80: 00001201     	andeq	r1, r0, r1, lsl #4
     b84: 0000bba8     	andeq	r11, r0, r8, lsr #23
     b88: 00000000     	andeq	r0, r0, r0
     b8c: 00010000     	andeq	r0, r1, r0
     b90: 00001207     	andeq	r1, r0, r7, lsl #4
     b94: 0000bf94     	<unknown>
     b98: 00000000     	andeq	r0, r0, r0
     b9c: 00010000     	andeq	r0, r1, r0
     ba0: 0000120d     	andeq	r1, r0, sp, lsl #4
     ba4: 0000ccae     	andeq	r12, r0, lr, lsr #25
     ba8: 0000002a     	andeq	r0, r0, r10, lsr #32
     bac: 00020001     	andeq	r0, r2, r1
     bb0: 0000122c     	andeq	r1, r0, r12, lsr #4
     bb4: 0000ccd8     	ldrdeq	r12, sp, [r0], -r8
     bb8: 0000002a     	andeq	r0, r0, r10, lsr #32
     bbc: 00020001     	andeq	r0, r2, r1
     bc0: 0000124b     	andeq	r1, r0, r11, asr #4
     bc4: 0000bfa8     	andeq	r11, r0, r8, lsr #31
     bc8: 00000000     	andeq	r0, r0, r0
     bcc: 00010000     	andeq	r0, r1, r0
     bd0: 00001251     	andeq	r1, r0, r1, asr r2
     bd4: 0000c46c     	andeq	r12, r0, r12, ror #8
     bd8: 00000000     	andeq	r0, r0, r0
     bdc: 00010000     	andeq	r0, r1, r0
     be0: 00001257     	andeq	r1, r0, r7, asr r2
     be4: 0000cd02     	andeq	r12, r0, r2, lsl #26
     be8: 0000002a     	andeq	r0, r0, r10, lsr #32
     bec: 00020001     	andeq	r0, r2, r1
     bf0: 00001276     	andeq	r1, r0, r6, ror r2
     bf4: 0000cd2c     	andeq	r12, r0, r12, lsr #26
     bf8: 0000002a     	andeq	r0, r0, r10, lsr #32
     bfc: 00020001     	andeq	r0, r2, r1
     c00: 00001295     	<unknown>
     c04: 0000cd56     	andeq	r12, r0, r6, asr sp
     c08: 0000002a     	andeq	r0, r0, r10, lsr #32
     c0c: 00020001     	andeq	r0, r2, r1
     c10: 000012b4     	strheq	r1, [r0], -r4
     c14: 0000c488     	andeq	r12, r0, r8, lsl #9
     c18: 00000000     	andeq	r0, r0, r0
     c1c: 00010000     	andeq	r0, r1, r0
     c20: 000012ba     	strheq	r1, [r0], -r10
     c24: 0000c56c     	andeq	r12, r0, r12, ror #10
     c28: 00000000     	andeq	r0, r0, r0
     c2c: 00010000     	andeq	r0, r1, r0
     c30: 000012c0     	andeq	r1, r0, r0, asr #5
     c34: 0000d068     	andeq	sp, r0, r8, rrx
     c38: 00000010     	andeq	r0, r0, r0, lsl r0
     c3c: 00020001     	andeq	r0, r2, r1
     c40: 000012de     	ldrdeq	r1, r2, [r0], -lr
     c44: 0000c574     	andeq	r12, r0, r4, ror r5
     c48: 00000000     	andeq	r0, r0, r0
     c4c: 00010000     	andeq	r0, r1, r0
     c50: 000012e4     	andeq	r1, r0, r4, ror #5
     c54: 0000c710     	andeq	r12, r0, r0, lsl r7
     c58: 00000008     	andeq	r0, r0, r8
     c5c: 00020001     	andeq	r0, r2, r1
     c60: 000012f8     	strdeq	r1, r2, [r0], -r8
     c64: 0000c980     	andeq	r12, r0, r0, lsl #19
     c68: 00000001     	andeq	r0, r0, r1
     c6c: 00020001     	andeq	r0, r2, r1
     c70: 0000130c     	andeq	r1, r0, r12, lsl #6
     c74: 0000c981     	andeq	r12, r0, r1, lsl #19
     c78: 00000001     	andeq	r0, r0, r1
     c7c: 00020001     	andeq	r0, r2, r1
     c80: 0000131e     	andeq	r1, r0, lr, lsl r3
     c84: 0000c982     	andeq	r12, r0, r2, lsl #19
     c88: 00000001     	andeq	r0, r0, r1
     c8c: 00020001     	andeq	r0, r2, r1
     c90: 0000132e     	andeq	r1, r0, lr, lsr #6
     c94: 0000c9c4     	andeq	r12, r0, r4, asr #19
     c98: 00000034     	andeq	r0, r0, r4, lsr r0
     c9c: 00020001     	andeq	r0, r2, r1
     ca0: 0000134a     	andeq	r1, r0, r10, asr #6
     ca4: 0000d078     	andeq	sp, r0, r8, ror r0
     ca8: 0000000d     	andeq	r0, r0, sp
     cac: 00020001     	andeq	r0, r2, r1
     cb0: 00001370     	andeq	r1, r0, r0, ror r3
     cb4: 0000d085     	andeq	sp, r0, r5, lsl #1
     cb8: 0000000d     	andeq	r0, r0, sp
     cbc: 00020001     	andeq	r0, r2, r1
     cc0: 00001396     	<unknown>
     cc4: 0000c9f8     	strdeq	r12, sp, [r0], -r8
     cc8: 0000002c     	andeq	r0, r0, r12, lsr #32
     ccc: 00020001     	andeq	r0, r2, r1
     cd0: 000013a2     	andeq	r1, r0, r2, lsr #7
     cd4: 0000ca24     	andeq	r12, r0, r4, lsr #20
     cd8: 00000001     	andeq	r0, r0, r1
     cdc: 00020001     	andeq	r0, r2, r1
     ce0: 000013b4     	strheq	r1, [r0], -r4
     ce4: 0000d1b0     	strheq	sp, [r0], -r0
     ce8: 00000004     	andeq	r0, r0, r4
     cec: 00020001     	andeq	r0, r2, r1
     cf0: 000013c3     	andeq	r1, r0, r3, asr #7
     cf4: 0000d1b4     	strheq	sp, [r0], -r4
     cf8: 00000004     	andeq	r0, r0, r4
     cfc: 00020001     	andeq	r0, r2, r1
     d00: 000013d6     	ldrdeq	r1, r2, [r0], -r6
     d04: 0000d1b8     	strheq	sp, [r0], -r8
     d08: 00000004     	andeq	r0, r0, r4
     d0c: 00020001     	andeq	r0, r2, r1
     d10: 000013e5     	andeq	r1, r0, r5, ror #7
     d14: 0000d1bc     	strheq	sp, [r0], -r12
     d18: 00000004     	andeq	r0, r0, r4
     d1c: 00020001     	andeq	r0, r2, r1
     d20: 000013f4     	strdeq	r1, r2, [r0], -r4
     d24: 0000ca84     	andeq	r12, r0, r4, lsl #21
     d28: 0000000c     	andeq	r0, r0, r12
     d2c: 00020001     	andeq	r0, r2, r1
     d30: 00001415     	andeq	r1, r0, r5, lsl r4
     d34: 0000ca90     	<unknown>
     d38: 00000001     	andeq	r0, r0, r1
     d3c: 00020001     	andeq	r0, r2, r1
     d40: 00001436     	andeq	r1, r0, r6, lsr r4
     d44: 0000ca91     	<unknown>
     d48: 00000001     	andeq	r0, r0, r1
     d4c: 00020001     	andeq	r0, r2, r1
     d50: 00001451     	andeq	r1, r0, r1, asr r4
     d54: 0000cad8     	ldrdeq	r12, sp, [r0], -r8
     d58: 00000001     	andeq	r0, r0, r1
     d5c: 00020001     	andeq	r0, r2, r1
     d60: 00001472     	andeq	r1, r0, r2, ror r4
     d64: 0000cb34     	andeq	r12, r0, r4, lsr r11
     d68: 0000000c     	andeq	r0, r0, r12
     d6c: 00020001     	andeq	r0, r2, r1
     d70: 00001493     	<unknown>
     d74: 0000cb40     	andeq	r12, r0, r0, asr #22
     d78: 00000001     	andeq	r0, r0, r1
     d7c: 00020001     	andeq	r0, r2, r1
     d80: 000014b4     	strheq	r1, [r0], -r4
     d84: 0000cb41     	andeq	r12, r0, r1, asr #22
     d88: 00000001     	andeq	r0, r0, r1
     d8c: 00020001     	andeq	r0, r2, r1
     d90: 000014cf     	andeq	r1, r0, pc, asr #9
     d94: 0000cbf1     	strdeq	r12, sp, [r0], -r1
     d98: 00000001     	andeq	r0, r0, r1
     d9c: 00020001     	andeq	r0, r2, r1
     da0: 000014f8     	strdeq	r1, r2, [r0], -r8
     da4: 0000cc25     	andeq	r12, r0, r5, lsr #24
     da8: 00000001     	andeq	r0, r0, r1
     dac: 00020001     	andeq	r0, r2, r1
     db0: 0000151d     	andeq	r1, r0, sp, lsl r5
     db4: 0000cc40     	andeq	r12, r0, r0, asr #24
     db8: 00000004     	andeq	r0, r0, r4
     dbc: 00020001     	andeq	r0, r2, r1
     dc0: 00001525     	andeq	r1, r0, r5, lsr #10
     dc4: 0000d0ef     	andeq	sp, r0, pc, ror #1
     dc8: 00000004     	andeq	r0, r0, r4
     dcc: 00020001     	andeq	r0, r2, r1
     dd0: 00001538     	andeq	r1, r0, r8, lsr r5
		...
     ddc: fff10004     	<unknown>
     de0: 00001544     	andeq	r1, r0, r4, asr #10
     de4: 0000c5a4     	andeq	r12, r0, r4, lsr #11
     de8: 00000000     	andeq	r0, r0, r0
     dec: 00010000     	andeq	r0, r1, r0
     df0: 0000154b     	andeq	r1, r0, r11, asr #10
     df4: 0000c63c     	andeq	r12, r0, r12, lsr r6
     df8: 00000000     	andeq	r0, r0, r0
     dfc: 00010000     	andeq	r0, r1, r0
     e00: 00001552     	andeq	r1, r0, r2, asr r5
     e04: 0000c6dc     	ldrdeq	r12, sp, [r0], -r12
     e08: 00000000     	andeq	r0, r0, r0
     e0c: 00010000     	andeq	r0, r1, r0
     e10: 00001559     	andeq	r1, r0, r9, asr r5
     e14: 0000c6f8     	strdeq	r12, sp, [r0], -r8
     e18: 00000000     	andeq	r0, r0, r0
     e1c: 00010000     	andeq	r0, r1, r0
     e20: 00001560     	andeq	r1, r0, r0, ror #10
     e24: 00008000     	andeq	r8, r0, r0
     e28: 00000000     	andeq	r0, r0, r0
     e2c: 00010010     	andeq	r0, r1, r0, lsl r0
     e30: 00001567     	andeq	r1, r0, r7, ror #10
     e34: 00008354     	andeq	r8, r0, r4, asr r3
     e38: 000000e0     	andeq	r0, r0, r0, ror #1
     e3c: 00010012     	andeq	r0, r1, r2, lsl r0
     e40: 0000156f     	andeq	r1, r0, pc, ror #10
     e44: 00008024     	andeq	r8, r0, r4, lsr #32
     e48: 00000000     	andeq	r0, r0, r0
     e4c: 00010010     	andeq	r0, r1, r0, lsl r0
     e50: 00001575     	andeq	r1, r0, r5, ror r5
     e54: 00008024     	andeq	r8, r0, r4, lsr #32
     e58: 00000000     	andeq	r0, r0, r0
     e5c: 00010010     	andeq	r0, r1, r0, lsl r0
     e60: 0000157b     	andeq	r1, r0, r11, ror r5
     e64: 0000802c     	andeq	r8, r0, r12, lsr #32
     e68: 00000000     	andeq	r0, r0, r0
     e6c: 00010010     	andeq	r0, r1, r0, lsl r0
     e70: 00001581     	andeq	r1, r0, r1, lsl #11
     e74: 0000802c     	andeq	r8, r0, r12, lsr #32
     e78: 00000000     	andeq	r0, r0, r0
     e7c: 00010010     	andeq	r0, r1, r0, lsl r0
     e80: 00001587     	andeq	r1, r0, r7, lsl #11
     e84: 00008034     	andeq	r8, r0, r4, lsr r0
     e88: 00000000     	andeq	r0, r0, r0
     e8c: 00010010     	andeq	r0, r1, r0, lsl r0
     e90: 0000158b     	andeq	r1, r0, r11, lsl #11
     e94: 0000c6f8     	strdeq	r12, sp, [r0], -r8
     e98: 00000018     	andeq	r0, r0, r8, lsl r0
     e9c: 00010022     	andeq	r0, r1, r2, lsr #32
     ea0: 0000159a     	<unknown>
     ea4: 0000c6dc     	ldrdeq	r12, sp, [r0], -r12
     ea8: 0000001c     	andeq	r0, r0, r12, lsl r0
     eac: 00010022     	andeq	r0, r1, r2, lsr #32
     eb0: 000015ab     	andeq	r1, r0, r11, lsr #11
     eb4: 0000c5a4     	andeq	r12, r0, r4, lsr #11
     eb8: 00000098     	<unknown>
     ebc: 00010022     	andeq	r0, r1, r2, lsr #32
     ec0: 000015b9     	strheq	r1, [r0], -r9
     ec4: 0000c63c     	andeq	r12, r0, r12, lsr r6
     ec8: 000000a0     	andeq	r0, r0, r0, lsr #1
     ecc: 00010022     	andeq	r0, r1, r2, lsr #32
     ed0: 000015c6     	andeq	r1, r0, r6, asr #11
     ed4: 00008000     	andeq	r8, r0, r0
     ed8: 00000000     	andeq	r0, r0, r0
     edc: 00010010     	andeq	r0, r1, r0, lsl r0
     ee0: 000015d5     	ldrdeq	r1, r2, [r0], -r5
     ee4: 0000c710     	andeq	r12, r0, r0, lsl r7
     ee8: 00000000     	andeq	r0, r0, r0
     eec: 00010010     	andeq	r0, r1, r0, lsl r0
     ef0: 000015e2     	andeq	r1, r0, r2, ror #11
     ef4: 0000d1d4     	ldrdeq	sp, lr, [r0], -r4
     ef8: 00000000     	andeq	r0, r0, r0
     efc: 00030010     	andeq	r0, r3, r0, lsl r0
     f00: 000015f1     	strdeq	r1, r2, [r0], -r1
     f04: 0000d1d4     	ldrdeq	sp, lr, [r0], -r4
     f08: 00000000     	andeq	r0, r0, r0
     f0c: 00030010     	andeq	r0, r3, r0, lsl r0
     f10: 000015fe     	strdeq	r1, r2, [r0], -lr
     f14: 0000d1d4     	ldrdeq	sp, lr, [r0], -r4
     f18: 00000000     	andeq	r0, r0, r0
     f1c: 00040010     	andeq	r0, r4, r0, lsl r0
     f20: 0000160c     	andeq	r1, r0, r12, lsl #12
     f24: 0000d1d8     	ldrdeq	sp, lr, [r0], -r8
     f28: 00000000     	andeq	r0, r0, r0
     f2c: 00040010     	andeq	r0, r4, r0, lsl r0
     f30: 00001618     	andeq	r1, r0, r8, lsl r6
     f34: 0000d1d8     	ldrdeq	sp, lr, [r0], -r8
     f38: 00000000     	andeq	r0, r0, r0
     f3c: 00040010     	andeq	r0, r4, r0, lsl r0
     f40: 00001625     	andeq	r1, r0, r5, lsr #12
     f44: 0000d1d8     	ldrdeq	sp, lr, [r0], -r8
     f48: 00000000     	andeq	r0, r0, r0
     f4c: 00040010     	andeq	r0, r4, r0, lsl r0

Disassembly of section .shstrtab:

00000000 <.shstrtab>:
       0: 65742e00     	ldrbvs	r2, [r4, #-3584]!
       4: 2e007478     	mcrhs	p4, #0, r7, c0, c8, #3
       8: 61646f72     	<unknown>
       c: 2e006174     	mcrhs	p1, #0, r6, c0, c4, #3
      10: 61746164     	cmnvs	r4, r4, ror #2
      14: 73622e00     	<unknown>
      18: 732e0073     	<unknown>
      1c: 61746d79     	cmnvs	r4, r9, ror sp
      20: 732e0062     	<unknown>
      24: 72747368     	rsbsvc	r7, r4, #104, #6
      28: 00626174     	rsbeq	r6, r2, r4, ror r1
      2c: 7274732e     	rsbsvc	r7, r4, #-1207959552
      30: 00626174     	rsbeq	r6, r2, r4, ror r1

Disassembly of section .strtab:

00000000 <.strtab>:
       0: 2e612400     	cdphs	p4, #6, c2, c1, c0, #0
       4: 6c620030     	stclvs	p0, c0, [r2], #-192
       8: 2e6b6e69     	cdphs	p14, #6, c6, c11, c9, #3
       c: 006e6962     	rsbeq	r6, lr, r2, ror #18
      10: 67726174     	<unknown>
      14: 542e7465     	strtpl	r7, [lr], #-1125
      18: 65677261     	strbvs	r7, [r7, #-609]!
      1c: 70432e74     	subvc	r2, r3, r4, ror lr
      20: 65462e75     	strbvs	r2, [r6, #-3701]
      24: 72757461     	rsbsvc	r7, r5, #1627389952
      28: 65662e65     	strbvs	r2, [r6, #-3685]!
      2c: 72757461     	rsbsvc	r7, r5, #1627389952
      30: 65735f65     	ldrbvs	r5, [r3, #-3941]!
      34: 6e665f74     	mcrvs	p15, #3, r5, c6, c4, #3
      38: 61742873     	cmnvs	r4, r3, ror r8
      3c: 74656772     	strbtvc	r6, [r5], #-1906
      40: 6d72612e     	ldclvs	p1, c6, [r2, #-184]!
      44: 6165462e     	<unknown>
      48: 65727574     	ldrbvs	r7, [r2, #-1396]!
      4c: 65662e29     	strbvs	r2, [r6, #-3625]!
      50: 72757461     	rsbsvc	r7, r5, #1627389952
      54: 74655365     	strbtvc	r5, [r5], #-869
      58: 2e612400     	cdphs	p4, #6, c2, c1, c0, #0
      5c: 61740030     	cmnvs	r4, r0, lsr r0
      60: 74656772     	strbtvc	r6, [r5], #-1906
      64: 7261542e     	rsbvc	r5, r1, #771751936
      68: 2e746567     	cdphs	p5, #7, c6, c4, c7, #3
      6c: 2e757043     	cdphs	p0, #7, c7, c5, c3, #2
      70: 74616546     	strbtvc	r6, [r1], #-1350
      74: 2e657275     	mcrhs	p2, #3, r7, c5, c5, #3
      78: 2e746553     	mrchs	p5, #3, r6, c4, c3, #2
      7c: 74706d65     	ldrbtvc	r6, [r0], #-3429
      80: 6f775f79     	svcvs	#7823225
      84: 72616b72     	rsbvc	r6, r1, #116736
      88: 646e756f     	strbtvs	r7, [lr], #-1391
      8c: 69756200     	ldmdbvs	r5!, {r9, sp, lr} ^
      90: 6e69746c     	cdpvs	p4, #6, c7, c9, c12, #3
      94: 6e61702e     	cdpvs	p0, #6, c7, c1, c14, #1
      98: 754f6369     	strbvc	r6, [pc, #-873]
      9c: 42664f74     	rsbmi	r4, r6, #116, #30
      a0: 646e756f     	strbtvs	r7, [lr], #-1391
      a4: 61740073     	cmnvs	r4, r3, ror r0
      a8: 74656772     	strbtvc	r6, [r5], #-1906
      ac: 7261542e     	rsbvc	r5, r1, #771751936
      b0: 2e746567     	cdphs	p5, #7, c6, c4, c7, #3
      b4: 2e757043     	cdphs	p0, #7, c7, c5, c3, #2
      b8: 74616546     	strbtvc	r6, [r1], #-1350
      bc: 2e657275     	mcrhs	p2, #3, r7, c5, c5, #3
      c0: 2e746553     	mrchs	p5, #3, r6, c4, c3, #2
      c4: 46646461     	strbtmi	r6, [r4], -r1, ror #8
      c8: 75746165     	ldrbvc	r6, [r4, #-357]!
      cc: 62006572     	andvs	r6, r0, #478150656
      d0: 746c6975     	strbtvc	r6, [r12], #-2421
      d4: 642e6e69     	strtvs	r6, [lr], #-3689
      d8: 75616665     	strbvc	r6, [r1, #-1637]!
      dc: 705f746c     	subsvc	r7, pc, r12, ror #8
      e0: 63696e61     	<unknown>
      e4: 2e642400     	cdphs	p4, #6, c2, c4, c0, #0
      e8: 61740031     	cmnvs	r4, r1, lsr r0
      ec: 74656772     	strbtvc	r6, [r5], #-1906
      f0: 7261542e     	rsbvc	r5, r1, #771751936
      f4: 2e746567     	cdphs	p5, #7, c6, c4, c7, #3
      f8: 2e757043     	cdphs	p0, #7, c7, c5, c3, #2
      fc: 74616546     	strbtvc	r6, [r1], #-1350
     100: 2e657275     	mcrhs	p2, #3, r7, c5, c5, #3
     104: 74616566     	strbtvc	r6, [r1], #-1382
     108: 5f657275     	svcpl	#6648437
     10c: 5f746573     	svcpl	#7628147
     110: 28736e66     	ldmdahs	r3!, {r1, r2, r5, r6, r9, r10, r11, sp, lr} ^
     114: 67726174     	<unknown>
     118: 612e7465     	<unknown>
     11c: 462e6d72     	qsub16mi	r6, lr, r2
     120: 75746165     	ldrbvc	r6, [r4, #-357]!
     124: 2e296572     	mcrhs	p5, #1, r6, c9, c2, #3
     128: 74616566     	strbtvc	r6, [r1], #-1382
     12c: 53657275     	<unknown>
     130: 5f5f7465     	svcpl	#6255717
     134: 6e6f6e61     	cdpvs	p14, #6, c6, c15, c1, #3
     138: 3630395f     	shsaxlo	r3, r0, pc
     13c: 2e612400     	cdphs	p4, #6, c2, c1, c0, #0
     140: 64240032     	strtvs	r0, [r4], #-50
     144: 2400332e     	strhs	r3, [r0], #-814
     148: 00342e61     	eorseq	r2, r4, r1, ror #28
     14c: 75626564     	strbvc	r6, [r2, #-1380]!
     150: 61702e67     	cmnvs	r0, r7, ror #28
     154: 4563696e     	strbmi	r6, [r3, #-2414]!
     158: 61727478     	cmnvs	r2, r8, ror r4
     15c: 6e615f5f     	mcrvs	p15, #3, r5, c1, c15, #2
     160: 315f6e6f     	cmplo	pc, pc, ror #28
     164: 00383030     	eorseq	r3, r8, r0, lsr r0
     168: 352e6424     	strlo	r6, [lr, #-1060]!
     16c: 72617400     	rsbvc	r7, r1, #0, #8
     170: 2e746567     	cdphs	p5, #7, c6, c4, c7, #3
     174: 67726154     	<unknown>
     178: 432e7465     	<unknown>
     17c: 462e7570     	qsub16mi	r7, lr, r0
     180: 75746165     	ldrbvc	r6, [r4, #-357]!
     184: 532e6572     	<unknown>
     188: 612e7465     	<unknown>
     18c: 65466464     	strbvs	r6, [r6, #-1124]
     190: 72757461     	rsbsvc	r7, r5, #1627389952
     194: 615f5f65     	cmpvs	pc, r5, ror #30
     198: 5f6e6f6e     	svcpl	#7237486
     19c: 00393039     	eorseq	r3, r9, r9, lsr r0
     1a0: 362e6124     	strtlo	r6, [lr], -r4, lsr #2
     1a4: 72617400     	rsbvc	r7, r1, #0, #8
     1a8: 2e746567     	cdphs	p5, #7, c6, c4, c7, #3
     1ac: 67726154     	<unknown>
     1b0: 432e7465     	<unknown>
     1b4: 412e7570     	<unknown>
     1b8: 2e686372     	mcrhs	p3, #3, r6, c8, c2, #3
     1bc: 61577369     	cmpvs	r7, r9, ror #6
     1c0: 5f006d73     	svcpl	#28019
     1c4: 67697a5f     	<unknown>
     1c8: 5f73695f     	svcpl	#7563615
     1cc: 656d616e     	strbvs	r6, [sp, #-366]!
     1d0: 6e655f64     	cdpvs	p15, #6, c5, c5, c4, #3
     1d4: 765f6d75     	usub16vc	r6, pc, r5
     1d8: 65756c61     	ldrbvs	r6, [r5, #-3169]!
     1dc: 7261745f     	rsbvc	r7, r1, #1593835520
     1e0: 2e746567     	cdphs	p5, #7, c6, c4, c7, #3
     1e4: 67726154     	<unknown>
     1e8: 432e7465     	<unknown>
     1ec: 412e7570     	<unknown>
     1f0: 00686372     	rsbeq	r6, r8, r2, ror r3
     1f4: 372e6424     	strlo	r6, [lr, -r4, lsr #8]!
     1f8: 72617400     	rsbvc	r7, r1, #0, #8
     1fc: 2e746567     	cdphs	p5, #7, c6, c4, c7, #3
     200: 67726154     	<unknown>
     204: 432e7465     	<unknown>
     208: 412e7570     	<unknown>
     20c: 2e686372     	mcrhs	p3, #3, r6, c8, c2, #3
     210: 61577369     	cmpvs	r7, r9, ror #6
     214: 5f5f6d73     	svcpl	#6253939
     218: 6e6f6e61     	cdpvs	p14, #6, c6, c15, c1, #3
     21c: 3031395f     	eorslo	r3, r1, pc, asr r9
     220: 2e612400     	cdphs	p4, #6, c2, c1, c0, #0
     224: 616d0038     	<unknown>
     228: 672e6e69     	strvs	r6, [lr, -r9, ror #28]!
     22c: 5f6f6970     	svcpl	#7301488
     230: 5f746573     	svcpl	#7628147
     234: 7074756f     	rsbsvc	r7, r4, pc, ror #10
     238: 5f5f7475     	svcpl	#6255733
     23c: 6e6f6e61     	cdpvs	p14, #6, c6, c15, c1, #3
     240: 3231395f     	eorslo	r3, r1, #1556480
     244: 69756200     	ldmdbvs	r5!, {r9, sp, lr} ^
     248: 6e69746c     	cdpvs	p4, #6, c7, c9, c12, #3
     24c: 6e61702e     	cdpvs	p0, #6, c7, c1, c14, #1
     250: 6e556369     	cdpvs	p3, #5, c6, c5, c9, #3
     254: 70617277     	rsbvc	r7, r1, r7, ror r2
     258: 6f727245     	svcvs	#7500357
     25c: 616d0072     	<unknown>
     260: 672e6e69     	strvs	r6, [lr, -r9, ror #28]!
     264: 5f6f6970     	svcpl	#7301488
     268: 5f746573     	svcpl	#7628147
     26c: 5f5f6e6f     	svcpl	#6254191
     270: 6e6f6e61     	cdpvs	p14, #6, c6, c15, c1, #3
     274: 3331395f     	teqlo	r1, #1556480
     278: 69616d00     	stmdbvs	r1!, {r8, r10, r11, sp, lr} ^
     27c: 65642e6e     	strbvs	r2, [r4, #-3694]!
     280: 0079616c     	rsbseq	r6, r9, r12, ror #2
     284: 6e69616d     	cdpvs	p1, #6, c6, c9, c13, #3
     288: 6970672e     	ldmdbvs	r0!, {r1, r2, r3, r5, r8, r9, r10, sp, lr} ^
     28c: 65735f6f     	ldrbvs	r5, [r3, #-3951]!
     290: 666f5f74     	uqsub16vs	r5, pc, r4
     294: 615f5f66     	cmpvs	pc, r6, ror #30
     298: 5f6e6f6e     	svcpl	#7237486
     29c: 00343139     	eorseq	r3, r4, r9, lsr r1
     2a0: 6e69616d     	cdpvs	p1, #6, c6, c9, c13, #3
     2a4: 6970672e     	ldmdbvs	r0!, {r1, r2, r3, r5, r8, r9, r10, sp, lr} ^
     2a8: 65735f6f     	ldrbvs	r5, [r3, #-3951]!
     2ac: 75665f74     	strbvc	r5, [r6, #-3956]!
     2b0: 6974636e     	ldmdbvs	r4!, {r1, r2, r3, r5, r6, r8, r9, sp, lr} ^
     2b4: 5f5f6e6f     	svcpl	#6254191
     2b8: 6e6f6e61     	cdpvs	p14, #6, c6, c15, c1, #3
     2bc: 3130315f     	teqlo	r0, pc, asr r1
     2c0: 75620030     	strbvc	r0, [r2, #-48]!
     2c4: 69746c69     	ldmdbvs	r4!, {r0, r3, r5, r6, r10, r11, sp, lr} ^
     2c8: 65722e6e     	ldrbvs	r2, [r2, #-3694]!
     2cc: 6e727574     	mrcvs	p5, #3, r7, c2, c4, #3
     2d0: 6f727245     	svcvs	#7500357
     2d4: 65640072     	strbvs	r0, [r4, #-114]!
     2d8: 2e677562     	cdphs	p5, #6, c7, c7, c2, #3
     2dc: 696e6170     	stmdbvs	lr!, {r4, r5, r6, r8, sp, lr} ^
     2e0: 74784563     	ldrbtvc	r4, [r8], #-1379
     2e4: 5f5f6172     	svcpl	#6250866
     2e8: 6e6f6e61     	cdpvs	p14, #6, c6, c15, c1, #3
     2ec: 3130315f     	teqlo	r0, pc, asr r1
     2f0: 64240032     	strtvs	r0, [r4], #-50
     2f4: 2400392e     	strhs	r3, [r0], #-2350
     2f8: 30312e61     	eorslo	r2, r1, r1, ror #28
     2fc: 2e642400     	cdphs	p4, #6, c2, c4, c0, #0
     300: 24003131     	strhs	r3, [r0], #-305
     304: 32312e61     	eorslo	r2, r1, #1552
     308: 2e642400     	cdphs	p4, #6, c2, c4, c0, #0
     30c: 6d003331     	stcvs	p3, c3, [r0, #-196]
     310: 2e6e6961     	cdphs	p9, #6, c6, c14, c1, #3
     314: 616c6564     	<unknown>
     318: 615f5f79     	cmpvs	pc, r9, ror pc
     31c: 5f6e6f6e     	svcpl	#7237486
     320: 33313031     	teqlo	r1, #49
     324: 2e612400     	cdphs	p4, #6, c2, c1, c0, #0
     328: 24003431     	strhs	r3, [r0], #-1073
     32c: 35312e64     	ldrlo	r2, [r1, #-3684]!
     330: 2e612400     	cdphs	p4, #6, c2, c1, c0, #0
     334: 66003631     	<unknown>
     338: 622e746d     	eorvs	r7, lr, #1828716544
     33c: 72506675     	subsvc	r6, r0, #122683392
     340: 5f746e69     	svcpl	#7630441
     344: 6f6e615f     	svcvs	#7233887
     348: 31315f6e     	teqlo	r1, lr, ror #30
     34c: 6d003435     	stcvs	p4, c3, [r0, #-212]
     350: 632e6d65     	<unknown>
     354: 5f79706f     	svcpl	#7958639
     358: 6f6e615f     	svcvs	#7233887
     35c: 33315f6e     	teqlo	r1, #440
     360: 24003138     	strhs	r3, [r0], #-312
     364: 37312e64     	ldrlo	r2, [r1, -r4, ror #28]!
     368: 62656400     	rsbvs	r6, r5, #0, #8
     36c: 702e6775     	eorvc	r6, lr, r5, ror r7
     370: 63696e61     	<unknown>
     374: 72747845     	rsbsvc	r7, r4, #4521984
     378: 615f5f61     	cmpvs	pc, r1, ror #30
     37c: 5f6e6f6e     	svcpl	#7237486
     380: 38303031     	ldmdalo	r0!, {r0, r4, r5, r12, sp}
     384: 6e615f5f     	mcrvs	p15, #3, r5, c1, c15, #2
     388: 315f6e6f     	cmplo	pc, pc, ror #28
     38c: 00343130     	eorseq	r3, r4, r0, lsr r1
     390: 75626564     	strbvc	r6, [r2, #-1380]!
     394: 61702e67     	cmnvs	r0, r7, ror #28
     398: 4563696e     	strbmi	r6, [r3, #-2414]!
     39c: 61727478     	cmnvs	r2, r8, ror r4
     3a0: 6e615f5f     	mcrvs	p15, #3, r5, c1, c15, #2
     3a4: 315f6e6f     	cmplo	pc, pc, ror #28
     3a8: 5f383030     	svcpl	#3682352
     3ac: 6f6e615f     	svcvs	#7233887
     3b0: 33315f6e     	teqlo	r1, #440
     3b4: 24003238     	strhs	r3, [r0], #-568
     3b8: 38312e61     	ldmdalo	r1!, {r0, r5, r6, r9, r10, r11, sp}
     3bc: 2e642400     	cdphs	p4, #6, c2, c4, c0, #0
     3c0: 24003931     	strhs	r3, [r0], #-2353
     3c4: 30322e61     	eorslo	r2, r2, r1, ror #28
     3c8: 2e642400     	cdphs	p4, #6, c2, c4, c0, #0
     3cc: 62003132     	andvs	r3, r0, #-2147483636
     3d0: 746c6975     	strbtvc	r6, [r12], #-2421
     3d4: 612e6e69     	<unknown>
     3d8: 72456464     	subvc	r6, r5, #100, #8
     3dc: 74655272     	strbtvc	r5, [r5], #-626
     3e0: 63617254     	<unknown>
     3e4: 64644165     	strbtvs	r4, [r4], #-357
     3e8: 615f5f72     	cmpvs	pc, r2, ror pc
     3ec: 5f6e6f6e     	svcpl	#7237486
     3f0: 33383331     	teqlo	r8, #-1006632960
     3f4: 2e612400     	cdphs	p4, #6, c2, c1, c0, #0
     3f8: 66003232     	<unknown>
     3fc: 622e746d     	eorvs	r7, lr, #1828716544
     400: 72506675     	subsvc	r6, r0, #122683392
     404: 5f746e69     	svcpl	#7630441
     408: 6f6e615f     	svcvs	#7233887
     40c: 33315f6e     	teqlo	r1, #440
     410: 24003438     	strhs	r3, [r0], #-1080
     414: 33322e64     	teqlo	r2, #100, #28
     418: 62656400     	rsbvs	r6, r5, #0, #8
     41c: 702e6775     	eorvc	r6, lr, r5, ror r7
     420: 63696e61     	<unknown>
     424: 72747845     	rsbsvc	r7, r4, #4521984
     428: 615f5f61     	cmpvs	pc, r1, ror #30
     42c: 5f6e6f6e     	svcpl	#7237486
     430: 32313031     	eorslo	r3, r1, #49
     434: 6e615f5f     	mcrvs	p15, #3, r5, c1, c15, #2
     438: 315f6e6f     	cmplo	pc, pc, ror #28
     43c: 00353833     	eorseq	r3, r5, r3, lsr r8
     440: 322e6124     	eorlo	r6, lr, #36, #2
     444: 6f690034     	svcvs	#6881332
     448: 7869662e     	stmdavc	r9!, {r1, r2, r3, r5, r9, r10, sp, lr} ^
     44c: 625f6465     	subsvs	r6, pc, #1694498816
     450: 65666675     	strbvs	r6, [r6, #-1653]!
     454: 74735f72     	ldrbtvc	r5, [r3], #-3954
     458: 6d616572     	stclvs	p5, c6, [r1, #-456]!
     45c: 7869662e     	stmdavc	r9!, {r1, r2, r3, r5, r9, r10, sp, lr} ^
     460: 75426465     	strbvc	r6, [r2, #-1125]
     464: 72656666     	rsbvc	r6, r5, #106954752
     468: 65727453     	ldrbvs	r7, [r2, #-1107]!
     46c: 5f5f6d61     	svcpl	#6253921
     470: 6e6f6e61     	cdpvs	p14, #6, c6, c15, c1, #3
     474: 3534315f     	ldrlo	r3, [r4, #-351]!
     478: 6f690039     	svcvs	#6881337
     47c: 7869662e     	stmdavc	r9!, {r1, r2, r3, r5, r9, r10, sp, lr} ^
     480: 625f6465     	subsvs	r6, pc, #1694498816
     484: 65666675     	strbvs	r6, [r6, #-1653]!
     488: 74735f72     	ldrbtvc	r5, [r3], #-3954
     48c: 6d616572     	stclvs	p5, c6, [r1, #-456]!
     490: 7869462e     	stmdavc	r9!, {r1, r2, r3, r5, r9, r10, lr} ^
     494: 75426465     	strbvc	r6, [r2, #-1125]
     498: 72656666     	rsbvc	r6, r5, #106954752
     49c: 65727453     	ldrbvs	r7, [r2, #-1107]!
     4a0: 5b286d61     	blpl	0xa1ba2c <__prog_end__+0xa0e854> @ imm = #10597764
     4a4: 2938755d     	ldmdbhs	r8!, {r0, r2, r3, r4, r6, r8, r10, r12, sp, lr}
     4a8: 6972772e     	ldmdbvs	r2!, {r1, r2, r3, r5, r8, r9, r10, r12, sp, lr} ^
     4ac: 00726574     	rsbseq	r6, r2, r4, ror r5
     4b0: 2e746d66     	cdphs	p13, #7, c6, c4, c6, #3
     4b4: 6d726f66     	ldclvs	p15, c6, [r2, #-408]!
     4b8: 5f5f7461     	svcpl	#6255713
     4bc: 6e6f6e61     	cdpvs	p14, #6, c6, c15, c1, #3
     4c0: 3035315f     	eorslo	r3, r5, pc, asr r1
     4c4: 6f690032     	svcvs	#6881330
     4c8: 7869662e     	stmdavc	r9!, {r1, r2, r3, r5, r9, r10, sp, lr} ^
     4cc: 625f6465     	subsvs	r6, pc, #1694498816
     4d0: 65666675     	strbvs	r6, [r6, #-1653]!
     4d4: 74735f72     	ldrbtvc	r5, [r3], #-3954
     4d8: 6d616572     	stclvs	p5, c6, [r1, #-456]!
     4dc: 7869462e     	stmdavc	r9!, {r1, r2, r3, r5, r9, r10, lr} ^
     4e0: 75426465     	strbvc	r6, [r2, #-1125]
     4e4: 72656666     	rsbvc	r6, r5, #106954752
     4e8: 65727453     	ldrbvs	r7, [r2, #-1107]!
     4ec: 5b286d61     	blpl	0xa1ba78 <__prog_end__+0xa0e8a0> @ imm = #10597764
     4f0: 2938755d     	ldmdbhs	r8!, {r0, r2, r3, r4, r6, r8, r10, r12, sp, lr}
     4f4: 7465672e     	strbtvc	r6, [r5], #-1838
     4f8: 74697257     	strbtvc	r7, [r9], #-599
     4fc: 006e6574     	rsbeq	r6, lr, r4, ror r5
     500: 75626564     	strbvc	r6, [r2, #-1380]!
     504: 73612e67     	<unknown>
     508: 74726573     	ldrbtvc	r6, [r2], #-1395
     50c: 746d6600     	strbtvc	r6, [sp], #-1536
     510: 726f662e     	rsbvc	r6, pc, #48234496
     514: 5f74616d     	svcpl	#7627117
     518: 6f6e615f     	svcvs	#7233887
     51c: 35315f6e     	ldrlo	r5, [r1, #-3950]!
     520: 69003835     	stmdbvs	r0, {r0, r2, r4, r5, r11, r12, sp}
     524: 72772e6f     	rsbsvc	r2, r7, #1776
     528: 72657469     	rsbvc	r7, r5, #1761607680
     52c: 6972572e     	ldmdbvs	r2!, {r1, r2, r3, r5, r8, r9, r10, r12, lr} ^
     530: 28726574     	ldmdahs	r2!, {r2, r4, r5, r6, r8, r10, sp, lr} ^
     534: 2e6f692a     	cdphs	p9, #6, c6, c15, c10, #1
     538: 65786966     	ldrbvs	r6, [r8, #-2406]!
     53c: 75625f64     	strbvc	r5, [r2, #-3940]!
     540: 72656666     	rsbvc	r6, r5, #106954752
     544: 7274735f     	rsbsvc	r7, r4, #2080374785
     548: 2e6d6165     	cdphs	p1, #6, c6, c13, c5, #3
     54c: 65786946     	ldrbvs	r6, [r8, #-2374]!
     550: 66754264     	ldrbtvs	r4, [r5], -r4, ror #4
     554: 53726566     	cmnpl	r2, #427819008
     558: 61657274     	<unknown>
     55c: 5d5b286d     	ldclpl	p8, c2, [r11, #-436]
     560: 2c293875     	stchs	p8, c3, [r9], #-468
     564: 6f727265     	svcvs	#7500389
     568: 6f4e7b72     	svcvs	#5143410
     56c: 63617053     	<unknown>
     570: 66654c65     	strbtvs	r4, [r5], -r5, ror #24
     574: 282c7d74     	stmdahs	r12!, {r2, r4, r5, r6, r8, r10, r11, r12, sp, lr}
     578: 636e7566     	<unknown>
     57c: 6e6f6974     	mcrvs	p9, #3, r6, c15, c4, #3
     580: 72772720     	rsbsvc	r2, r7, #32, #14
     584: 27657469     	strbhs	r7, [r5, -r9, ror #8]!
     588: 772e2929     	strvc	r2, [lr, -r9, lsr #18]!
     58c: 65746972     	ldrbvs	r6, [r4, #-2418]!
     590: 006c6c41     	rsbeq	r6, r12, r1, asr #24
     594: 2e746d66     	cdphs	p13, #7, c6, c4, c6, #3
     598: 6d726f66     	ldclvs	p15, c6, [r2, #-408]!
     59c: 79547461     	ldmdbvc	r4, {r0, r5, r6, r10, r12, sp, lr} ^
     5a0: 5f5f6570     	svcpl	#6251888
     5a4: 6e6f6e61     	cdpvs	p14, #6, c6, c15, c1, #3
     5a8: 3535315f     	ldrlo	r3, [r5, #-351]!
     5ac: 64240031     	strtvs	r0, [r4], #-49
     5b0: 0035322e     	eorseq	r3, r5, lr, lsr #4
     5b4: 6c697562     	stclvs	p5, c7, [r9], #-392
     5b8: 2e6e6974     	mcrhs	p9, #3, r6, c14, c4, #3
     5bc: 696e6170     	stmdbvs	lr!, {r4, r5, r6, r8, sp, lr} ^
     5c0: 74754f63     	ldrbtvc	r4, [r5], #-3939
     5c4: 6f42664f     	svcvs	#4351567
     5c8: 73646e75     	<unknown>
     5cc: 6e615f5f     	mcrvs	p15, #3, r5, c1, c15, #2
     5d0: 315f6e6f     	cmplo	pc, pc, ror #28
     5d4: 00373030     	eorseq	r3, r7, r0, lsr r0
     5d8: 322e6124     	eorlo	r6, lr, #36, #2
     5dc: 6f690036     	svcvs	#6881334
     5e0: 6972772e     	ldmdbvs	r2!, {r1, r2, r3, r5, r8, r9, r10, r12, sp, lr} ^
     5e4: 2e726574     	mrchs	p5, #3, r6, c2, c4, #3
     5e8: 74697257     	strbtvc	r7, [r9], #-599
     5ec: 2a287265     	bhs	0xa1cf88 <__prog_end__+0xa0fdb0> @ imm = #10602900
     5f0: 662e6f69     	strtvs	r6, [lr], -r9, ror #30
     5f4: 64657869     	strbtvs	r7, [r5], #-2153
     5f8: 6675625f     	uhsaxvs	r6, r5, pc
     5fc: 5f726566     	svcpl	#7497062
     600: 65727473     	ldrbvs	r7, [r2, #-1139]!
     604: 462e6d61     	strtmi	r6, [lr], -r1, ror #26
     608: 64657869     	strbtvs	r7, [r5], #-2153
     60c: 66667542     	strbtvs	r7, [r6], -r2, asr #10
     610: 74537265     	ldrbvc	r7, [r3], #-613
     614: 6d616572     	stclvs	p5, c6, [r1, #-456]!
     618: 755d5b28     	ldrbvc	r5, [sp, #-2856]
     61c: 652c2938     	strvs	r2, [r12, #-2360]!
     620: 726f7272     	rsbvc	r7, pc, #536870919
     624: 536f4e7b     	<unknown>
     628: 65636170     	strbvs	r6, [r3, #-368]!
     62c: 7466654c     	strbtvc	r6, [r6], #-1356
     630: 66282c7d     	qsub16vs	r2, r8, sp
     634: 74636e75     	strbtvc	r6, [r3], #-3701
     638: 206e6f69     	rsbhs	r6, lr, r9, ror #30
     63c: 69727727     	ldmdbvs	r2!, {r0, r1, r2, r5, r8, r9, r10, r12, sp, lr} ^
     640: 29276574     	stmdbhs	r7!, {r2, r4, r5, r6, r8, r10, sp, lr}
     644: 72772e29     	rsbsvc	r2, r7, #656
     648: 00657469     	rsbeq	r7, r5, r9, ror #8
     64c: 322e6424     	eorlo	r6, lr, #36, #8
     650: 6f690037     	svcvs	#6881335
     654: 6972772e     	ldmdbvs	r2!, {r1, r2, r3, r5, r8, r9, r10, r12, sp, lr} ^
     658: 2e726574     	mrchs	p5, #3, r6, c2, c4, #3
     65c: 74697257     	strbtvc	r7, [r9], #-599
     660: 2a287265     	bhs	0xa1cffc <__prog_end__+0xa0fe24> @ imm = #10602900
     664: 662e6f69     	strtvs	r6, [lr], -r9, ror #30
     668: 64657869     	strbtvs	r7, [r5], #-2153
     66c: 6675625f     	uhsaxvs	r6, r5, pc
     670: 5f726566     	svcpl	#7497062
     674: 65727473     	ldrbvs	r7, [r2, #-1139]!
     678: 462e6d61     	strtmi	r6, [lr], -r1, ror #26
     67c: 64657869     	strbtvs	r7, [r5], #-2153
     680: 66667542     	strbtvs	r7, [r6], -r2, asr #10
     684: 74537265     	ldrbvc	r7, [r3], #-613
     688: 6d616572     	stclvs	p5, c6, [r1, #-456]!
     68c: 755d5b28     	ldrbvc	r5, [sp, #-2856]
     690: 652c2938     	strvs	r2, [r12, #-2360]!
     694: 726f7272     	rsbvc	r7, pc, #536870919
     698: 536f4e7b     	<unknown>
     69c: 65636170     	strbvs	r6, [r3, #-368]!
     6a0: 7466654c     	strbtvc	r6, [r6], #-1356
     6a4: 66282c7d     	qsub16vs	r2, r8, sp
     6a8: 74636e75     	strbtvc	r6, [r3], #-3701
     6ac: 206e6f69     	rsbhs	r6, lr, r9, ror #30
     6b0: 69727727     	ldmdbvs	r2!, {r0, r1, r2, r5, r8, r9, r10, r12, sp, lr} ^
     6b4: 29276574     	stmdbhs	r7!, {r2, r4, r5, r6, r8, r10, sp, lr}
     6b8: 72772e29     	rsbsvc	r2, r7, #656
     6bc: 41657469     	<unknown>
     6c0: 5f5f6c6c     	svcpl	#6253676
     6c4: 6e6f6e61     	cdpvs	p14, #6, c6, c15, c1, #3
     6c8: 3935315f     	ldmdblo	r5!, {r0, r1, r2, r3, r4, r6, r8, r12, sp}
     6cc: 6f690038     	svcvs	#6881336
     6d0: 6972772e     	ldmdbvs	r2!, {r1, r2, r3, r5, r8, r9, r10, r12, sp, lr} ^
     6d4: 2e726574     	mrchs	p5, #3, r6, c2, c4, #3
     6d8: 74697257     	strbtvc	r7, [r9], #-599
     6dc: 2a287265     	bhs	0xa1d078 <__prog_end__+0xa0fea0> @ imm = #10602900
     6e0: 662e6f69     	strtvs	r6, [lr], -r9, ror #30
     6e4: 64657869     	strbtvs	r7, [r5], #-2153
     6e8: 6675625f     	uhsaxvs	r6, r5, pc
     6ec: 5f726566     	svcpl	#7497062
     6f0: 65727473     	ldrbvs	r7, [r2, #-1139]!
     6f4: 462e6d61     	strtmi	r6, [lr], -r1, ror #26
     6f8: 64657869     	strbtvs	r7, [r5], #-2153
     6fc: 66667542     	strbtvs	r7, [r6], -r2, asr #10
     700: 74537265     	ldrbvc	r7, [r3], #-613
     704: 6d616572     	stclvs	p5, c6, [r1, #-456]!
     708: 755d5b28     	ldrbvc	r5, [sp, #-2856]
     70c: 652c2938     	strvs	r2, [r12, #-2360]!
     710: 726f7272     	rsbvc	r7, pc, #536870919
     714: 536f4e7b     	<unknown>
     718: 65636170     	strbvs	r6, [r3, #-368]!
     71c: 7466654c     	strbtvc	r6, [r6], #-1356
     720: 66282c7d     	qsub16vs	r2, r8, sp
     724: 74636e75     	strbtvc	r6, [r3], #-3701
     728: 206e6f69     	rsbhs	r6, lr, r9, ror #30
     72c: 69727727     	ldmdbvs	r2!, {r0, r1, r2, r5, r8, r9, r10, r12, sp, lr} ^
     730: 29276574     	stmdbhs	r7!, {r2, r4, r5, r6, r8, r10, sp, lr}
     734: 72772e29     	rsbsvc	r2, r7, #656
     738: 41657469     	<unknown>
     73c: 5f5f6c6c     	svcpl	#6253676
     740: 6e6f6e61     	cdpvs	p14, #6, c6, c15, c1, #3
     744: 3935315f     	ldmdblo	r5!, {r0, r1, r2, r3, r4, r6, r8, r12, sp}
     748: 61240039     	<unknown>
     74c: 0038322e     	eorseq	r3, r8, lr, lsr #4
     750: 2e746d66     	cdphs	p13, #7, c6, c4, c6, #3
     754: 6d726f66     	ldclvs	p15, c6, [r2, #-408]!
     758: 61567461     	cmpvs	r6, r1, ror #8
     75c: 5f65756c     	svcpl	#6649196
     760: 6f6e615f     	svcvs	#7233887
     764: 36315f6e     	ldrtlo	r5, [r1], -lr, ror #30
     768: 6d003138     	stcvs	p1, c3, [r0, #-224]
     76c: 732e6d65     	<unknown>
     770: 5f6e6170     	svcpl	#7233904
     774: 6f6e615f     	svcvs	#7233887
     778: 35315f6e     	ldrlo	r5, [r1, #-3950]!
     77c: 24003239     	strhs	r3, [r0], #-569
     780: 39322e64     	ldmdblo	r2!, {r2, r5, r6, r9, r10, r11, sp}
     784: 62656400     	rsbvs	r6, r5, #0, #8
     788: 612e6775     	<unknown>
     78c: 72657373     	rsbvc	r7, r5, #-872415231
     790: 615f5f74     	cmpvs	pc, r4, ror pc
     794: 5f6e6f6e     	svcpl	#7237486
     798: 30303631     	eorslo	r3, r0, r1, lsr r6
     79c: 2e612400     	cdphs	p4, #6, c2, c1, c0, #0
     7a0: 66003033     	<unknown>
     7a4: 662e746d     	strtvs	r7, [lr], -sp, ror #8
     7a8: 616d726f     	<unknown>
     7ac: 70795474     	rsbsvc	r5, r9, r4, ror r4
     7b0: 615f5f65     	cmpvs	pc, r5, ror #30
     7b4: 5f6e6f6e     	svcpl	#7237486
     7b8: 31393531     	teqlo	r9, r1, lsr r5
     7bc: 2e642400     	cdphs	p4, #6, c2, c4, c0, #0
     7c0: 62003133     	andvs	r3, r0, #-1073741812
     7c4: 746c6975     	strbtvc	r6, [r12], #-2421
     7c8: 702e6e69     	eorvc	r6, lr, r9, ror #28
     7cc: 63696e61     	<unknown>
     7d0: 72776e55     	rsbsvc	r6, r7, #1360
     7d4: 72457061     	subvc	r7, r5, #97
     7d8: 5f726f72     	svcpl	#7499634
     7dc: 6f6e615f     	svcvs	#7233887
     7e0: 30315f6e     	eorslo	r5, r1, lr, ror #30
     7e4: 24003131     	strhs	r3, [r0], #-305
     7e8: 32332e61     	eorslo	r2, r3, #1552
     7ec: 746d6600     	strbtvc	r6, [sp], #-1536
     7f0: 726f662e     	rsbvc	r6, pc, #48234496
     7f4: 4274616d     	rsbsmi	r6, r4, #1073741851
     7f8: 5f5f6675     	svcpl	#6252149
     7fc: 6e6f6e61     	cdpvs	p14, #6, c6, c15, c1, #3
     800: 3037315f     	eorslo	r3, r7, pc, asr r1
     804: 64240030     	strtvs	r0, [r4], #-48
     808: 0033332e     	eorseq	r3, r3, lr, lsr #6
     80c: 2e746d66     	cdphs	p13, #7, c6, c4, c6, #3
     810: 6d726f66     	ldclvs	p15, c6, [r2, #-408]!
     814: 79547461     	ldmdbvc	r4, {r0, r5, r6, r10, r12, sp, lr} ^
     818: 5f5f6570     	svcpl	#6251888
     81c: 6e6f6e61     	cdpvs	p14, #6, c6, c15, c1, #3
     820: 3935315f     	ldmdblo	r5!, {r0, r1, r2, r3, r4, r6, r8, r12, sp}
     824: 615f5f31     	cmpvs	pc, r1, lsr pc
     828: 5f6e6f6e     	svcpl	#7237486
     82c: 34393731     	ldrtlo	r3, [r9], #-1841
     830: 2e612400     	cdphs	p4, #6, c2, c1, c0, #0
     834: 6d003433     	stcvs	p4, c3, [r0, #-204]
     838: 6c2e6d65     	stcvs	p13, c6, [lr], #-404
     83c: 5f5f6e65     	svcpl	#6254181
     840: 6e6f6e61     	cdpvs	p14, #6, c6, c15, c1, #3
     844: 3937315f     	ldmdblo	r7!, {r0, r1, r2, r3, r4, r6, r8, r12, sp}
     848: 6f690035     	svcvs	#6881333
     84c: 7869662e     	stmdavc	r9!, {r1, r2, r3, r5, r9, r10, sp, lr} ^
     850: 625f6465     	subsvs	r6, pc, #1694498816
     854: 65666675     	strbvs	r6, [r6, #-1653]!
     858: 74735f72     	ldrbtvc	r5, [r3], #-3954
     85c: 6d616572     	stclvs	p5, c6, [r1, #-456]!
     860: 7869462e     	stmdavc	r9!, {r1, r2, r3, r5, r9, r10, lr} ^
     864: 75426465     	strbvc	r6, [r2, #-1125]
     868: 72656666     	rsbvc	r6, r5, #106954752
     86c: 65727453     	ldrbvs	r7, [r2, #-1107]!
     870: 5b286d61     	blpl	0xa1bdfc <__prog_end__+0xa0ec24> @ imm = #10597764
     874: 2938755d     	ldmdbhs	r8!, {r0, r2, r3, r4, r6, r8, r10, r12, sp, lr}
     878: 6972772e     	ldmdbvs	r2!, {r1, r2, r3, r5, r8, r9, r10, r12, sp, lr} ^
     87c: 24006574     	strhs	r6, [r0], #-1396
     880: 35332e64     	ldrlo	r2, [r3, #-3684]!
     884: 2e6f6900     	cdphs	p9, #6, c6, c15, c0, #0
     888: 65786966     	ldrbvs	r6, [r8, #-2406]!
     88c: 75625f64     	strbvc	r5, [r2, #-3940]!
     890: 72656666     	rsbvc	r6, r5, #106954752
     894: 7274735f     	rsbsvc	r7, r4, #2080374785
     898: 2e6d6165     	cdphs	p1, #6, c6, c13, c5, #3
     89c: 65786946     	ldrbvs	r6, [r8, #-2374]!
     8a0: 66754264     	ldrbtvs	r4, [r5], -r4, ror #4
     8a4: 53726566     	cmnpl	r2, #427819008
     8a8: 61657274     	<unknown>
     8ac: 5d5b286d     	ldclpl	p8, c2, [r11, #-436]
     8b0: 2e293875     	mcrhs	p8, #1, r3, c9, c5, #3
     8b4: 74697277     	strbtvc	r7, [r9], #-631
     8b8: 615f5f65     	cmpvs	pc, r5, ror #30
     8bc: 5f6e6f6e     	svcpl	#7237486
     8c0: 33393531     	teqlo	r9, #205520896
     8c4: 2e6f6900     	cdphs	p9, #6, c6, c15, c0, #0
     8c8: 65786966     	ldrbvs	r6, [r8, #-2406]!
     8cc: 75625f64     	strbvc	r5, [r2, #-3940]!
     8d0: 72656666     	rsbvc	r6, r5, #106954752
     8d4: 7274735f     	rsbsvc	r7, r4, #2080374785
     8d8: 2e6d6165     	cdphs	p1, #6, c6, c13, c5, #3
     8dc: 65786946     	ldrbvs	r6, [r8, #-2374]!
     8e0: 66754264     	ldrbtvs	r4, [r5], -r4, ror #4
     8e4: 53726566     	cmnpl	r2, #427819008
     8e8: 61657274     	<unknown>
     8ec: 5d5b286d     	ldclpl	p8, c2, [r11, #-436]
     8f0: 2e293875     	mcrhs	p8, #1, r3, c9, c5, #3
     8f4: 74697277     	strbtvc	r7, [r9], #-631
     8f8: 615f5f65     	cmpvs	pc, r5, ror #30
     8fc: 5f6e6f6e     	svcpl	#7237486
     900: 34393531     	ldrtlo	r3, [r9], #-1329
     904: 2e6f6900     	cdphs	p9, #6, c6, c15, c0, #0
     908: 65786966     	ldrbvs	r6, [r8, #-2406]!
     90c: 75625f64     	strbvc	r5, [r2, #-3940]!
     910: 72656666     	rsbvc	r6, r5, #106954752
     914: 7274735f     	rsbsvc	r7, r4, #2080374785
     918: 2e6d6165     	cdphs	p1, #6, c6, c13, c5, #3
     91c: 65786946     	ldrbvs	r6, [r8, #-2374]!
     920: 66754264     	ldrbtvs	r4, [r5], -r4, ror #4
     924: 53726566     	cmnpl	r2, #427819008
     928: 61657274     	<unknown>
     92c: 5d5b286d     	ldclpl	p8, c2, [r11, #-436]
     930: 2e293875     	mcrhs	p8, #1, r3, c9, c5, #3
     934: 74697277     	strbtvc	r7, [r9], #-631
     938: 615f5f65     	cmpvs	pc, r5, ror #30
     93c: 5f6e6f6e     	svcpl	#7237486
     940: 35393531     	ldrlo	r3, [r9, #-1329]!
     944: 2e6f6900     	cdphs	p9, #6, c6, c15, c0, #0
     948: 65786966     	ldrbvs	r6, [r8, #-2406]!
     94c: 75625f64     	strbvc	r5, [r2, #-3940]!
     950: 72656666     	rsbvc	r6, r5, #106954752
     954: 7274735f     	rsbsvc	r7, r4, #2080374785
     958: 2e6d6165     	cdphs	p1, #6, c6, c13, c5, #3
     95c: 65786946     	ldrbvs	r6, [r8, #-2374]!
     960: 66754264     	ldrbtvs	r4, [r5], -r4, ror #4
     964: 53726566     	cmnpl	r2, #427819008
     968: 61657274     	<unknown>
     96c: 5d5b286d     	ldclpl	p8, c2, [r11, #-436]
     970: 2e293875     	mcrhs	p8, #1, r3, c9, c5, #3
     974: 74697277     	strbtvc	r7, [r9], #-631
     978: 615f5f65     	cmpvs	pc, r5, ror #30
     97c: 5f6e6f6e     	svcpl	#7237486
     980: 36393531     	shasxlo	r3, r9, r1
     984: 2e6f6900     	cdphs	p9, #6, c6, c15, c0, #0
     988: 65786966     	ldrbvs	r6, [r8, #-2406]!
     98c: 75625f64     	strbvc	r5, [r2, #-3940]!
     990: 72656666     	rsbvc	r6, r5, #106954752
     994: 7274735f     	rsbsvc	r7, r4, #2080374785
     998: 2e6d6165     	cdphs	p1, #6, c6, c13, c5, #3
     99c: 65786946     	ldrbvs	r6, [r8, #-2374]!
     9a0: 66754264     	ldrbtvs	r4, [r5], -r4, ror #4
     9a4: 53726566     	cmnpl	r2, #427819008
     9a8: 61657274     	<unknown>
     9ac: 5d5b286d     	ldclpl	p8, c2, [r11, #-436]
     9b0: 2e293875     	mcrhs	p8, #1, r3, c9, c5, #3
     9b4: 74697277     	strbtvc	r7, [r9], #-631
     9b8: 615f5f65     	cmpvs	pc, r5, ror #30
     9bc: 5f6e6f6e     	svcpl	#7237486
     9c0: 37393531     	<unknown>
     9c4: 2e612400     	cdphs	p4, #6, c2, c1, c0, #0
     9c8: 66003633     	<unknown>
     9cc: 502e746d     	eorpl	r7, lr, sp, ror #8
     9d0: 65737261     	ldrbvs	r7, [r3, #-609]!
     9d4: 70732e72     	rsbsvc	r2, r3, r2, ror lr
     9d8: 66696365     	strbtvs	r6, [r9], -r5, ror #6
     9dc: 00726569     	rsbseq	r6, r2, r9, ror #10
     9e0: 2e746d66     	cdphs	p13, #7, c6, c4, c6, #3
     9e4: 73726150     	cmnvc	r2, #80, #2
     9e8: 6d2e7265     	stcvs	p2, c7, [lr, #-404]!
     9ec: 65627961     	strbvs	r7, [r2, #-2401]!
     9f0: 746d6600     	strbtvc	r6, [sp], #-1536
     9f4: 7261502e     	rsbvc	r5, r1, #46
     9f8: 2e726573     	mrchs	p5, #3, r6, c2, c3, #3
     9fc: 69746e75     	ldmdbvs	r4!, {r0, r2, r4, r5, r6, r9, r10, r11, sp, lr} ^
     a00: 6d66006c     	stclvs	p0, c0, [r6, #-432]!
     a04: 61502e74     	cmpvs	r0, r4, ror lr
     a08: 72657372     	rsbvc	r7, r5, #-939524095
     a0c: 6d756e2e     	ldclvs	p14, c6, [r5, #-184]!
     a10: 00726562     	rsbseq	r6, r2, r2, ror #10
     a14: 332e6424     	<unknown>
     a18: 6d660037     	stclvs	p0, c0, [r6, #-220]!
     a1c: 61502e74     	cmpvs	r0, r4, ror lr
     a20: 72657372     	rsbvc	r7, r5, #-939524095
     a24: 79616d2e     	stmdbvc	r1!, {r1, r2, r3, r5, r8, r10, r11, sp, lr} ^
     a28: 5f5f6562     	svcpl	#6251874
     a2c: 6e6f6e61     	cdpvs	p14, #6, c6, c15, c1, #3
     a30: 3036315f     	eorslo	r3, r6, pc, asr r1
     a34: 61240032     	<unknown>
     a38: 0038332e     	eorseq	r3, r8, lr, lsr #6
     a3c: 332e6424     	<unknown>
     a40: 6d660039     	stclvs	p0, c0, [r6, #-228]!
     a44: 61502e74     	cmpvs	r0, r4, ror lr
     a48: 72657372     	rsbvc	r7, r5, #-939524095
     a4c: 746e752e     	strbtvc	r7, [lr], #-1326
     a50: 5f5f6c69     	svcpl	#6253673
     a54: 6e6f6e61     	cdpvs	p14, #6, c6, c15, c1, #3
     a58: 3136315f     	teqlo	r6, pc, asr r1
     a5c: 6d660030     	stclvs	p0, c0, [r6, #-192]!
     a60: 61502e74     	cmpvs	r0, r4, ror lr
     a64: 72657372     	rsbvc	r7, r5, #-939524095
     a68: 746e752e     	strbtvc	r7, [lr], #-1326
     a6c: 5f5f6c69     	svcpl	#6253673
     a70: 6e6f6e61     	cdpvs	p14, #6, c6, c15, c1, #3
     a74: 3136315f     	teqlo	r6, pc, asr r1
     a78: 61240031     	<unknown>
     a7c: 0030342e     	eorseq	r3, r0, lr, lsr #8
     a80: 342e6424     	strtlo	r6, [lr], #-1060
     a84: 6d660031     	stclvs	p0, c0, [r6, #-196]!
     a88: 61502e74     	cmpvs	r0, r4, ror lr
     a8c: 72657372     	rsbvc	r7, r5, #-939524095
     a90: 6d756e2e     	ldclvs	p14, c6, [r5, #-184]!
     a94: 5f726562     	svcpl	#7497058
     a98: 6f6e615f     	svcvs	#7233887
     a9c: 36315f6e     	ldrtlo	r5, [r1], -lr, ror #30
     aa0: 66003330     	<unknown>
     aa4: 502e746d     	eorpl	r7, lr, sp, ror #8
     aa8: 65737261     	ldrbvs	r7, [r3, #-609]!
     aac: 756e2e72     	strbvc	r2, [lr, #-3698]!
     ab0: 7265626d     	rsbvc	r6, r5, #-805306362
     ab4: 6e615f5f     	mcrvs	p15, #3, r5, c1, c15, #2
     ab8: 315f6e6f     	cmplo	pc, pc, ror #28
     abc: 00343036     	eorseq	r3, r4, r6, lsr r0
     ac0: 2e746d66     	cdphs	p13, #7, c6, c4, c6, #3
     ac4: 73726150     	cmnvc	r2, #80, #2
     ac8: 6e2e7265     	cdpvs	p2, #2, c7, c14, c5, #3
     acc: 65626d75     	strbvs	r6, [r2, #-3445]!
     ad0: 615f5f72     	cmpvs	pc, r2, ror pc
     ad4: 5f6e6f6e     	svcpl	#7237486
     ad8: 35303631     	ldrlo	r3, [r0, #-1585]!
     adc: 746d6600     	strbtvc	r6, [sp], #-1536
     ae0: 7261502e     	rsbvc	r5, r1, #46
     ae4: 2e726573     	mrchs	p5, #3, r6, c2, c3, #3
     ae8: 626d756e     	rsbvs	r7, sp, #461373440
     aec: 5f5f7265     	svcpl	#6255205
     af0: 6e6f6e61     	cdpvs	p14, #6, c6, c15, c1, #3
     af4: 3036315f     	eorslo	r3, r6, pc, asr r1
     af8: 6d660036     	stclvs	p0, c0, [r6, #-216]!
     afc: 61502e74     	cmpvs	r0, r4, ror lr
     b00: 72657372     	rsbvc	r7, r5, #-939524095
     b04: 6d756e2e     	ldclvs	p14, c6, [r5, #-184]!
     b08: 5f726562     	svcpl	#7497058
     b0c: 6f6e615f     	svcvs	#7233887
     b10: 36315f6e     	ldrtlo	r5, [r1], -lr, ror #30
     b14: 66003730     	<unknown>
     b18: 502e746d     	eorpl	r7, lr, sp, ror #8
     b1c: 65737261     	ldrbvs	r7, [r3, #-609]!
     b20: 756e2e72     	strbvc	r2, [lr, #-3698]!
     b24: 7265626d     	rsbvc	r6, r5, #-805306362
     b28: 6e615f5f     	mcrvs	p15, #3, r5, c1, c15, #2
     b2c: 315f6e6f     	cmplo	pc, pc, ror #28
     b30: 00383036     	eorseq	r3, r8, r6, lsr r0
     b34: 2e746d66     	cdphs	p13, #7, c6, c4, c6, #3
     b38: 73726150     	cmnvc	r2, #80, #2
     b3c: 632e7265     	<unknown>
     b40: 00726168     	rsbseq	r6, r2, r8, ror #2
     b44: 342e6124     	strtlo	r6, [lr], #-292
     b48: 64240032     	strtvs	r0, [r4], #-50
     b4c: 0033342e     	eorseq	r3, r3, lr, lsr #8
     b50: 2e746d66     	cdphs	p13, #7, c6, c4, c6, #3
     b54: 73726150     	cmnvc	r2, #80, #2
     b58: 632e7265     	<unknown>
     b5c: 5f726168     	svcpl	#7496040
     b60: 6f6e615f     	svcvs	#7233887
     b64: 36315f6e     	ldrtlo	r5, [r1], -lr, ror #30
     b68: 66003231     	<unknown>
     b6c: 502e746d     	eorpl	r7, lr, sp, ror #8
     b70: 65737261     	ldrbvs	r7, [r3, #-609]!
     b74: 65702e72     	ldrbvs	r2, [r0, #-3698]!
     b78: 24006b65     	strhs	r6, [r0], #-2917
     b7c: 34342e61     	ldrtlo	r2, [r4], #-3681
     b80: 2e642400     	cdphs	p4, #6, c2, c4, c0, #0
     b84: 66003534     	<unknown>
     b88: 502e746d     	eorpl	r7, lr, sp, ror #8
     b8c: 65737261     	ldrbvs	r7, [r3, #-609]!
     b90: 65702e72     	ldrbvs	r2, [r0, #-3698]!
     b94: 5f5f6b65     	svcpl	#6253413
     b98: 6e6f6e61     	cdpvs	p14, #6, c6, c15, c1, #3
     b9c: 3136315f     	teqlo	r6, pc, asr r1
     ba0: 6d660033     	stclvs	p0, c0, [r6, #-204]!
     ba4: 61502e74     	cmpvs	r0, r4, ror lr
     ba8: 72657372     	rsbvc	r7, r5, #-939524095
     bac: 6565702e     	strbvs	r7, [r5, #-46]!
     bb0: 615f5f6b     	cmpvs	pc, r11, ror #30
     bb4: 5f6e6f6e     	svcpl	#7237486
     bb8: 34313631     	ldrtlo	r3, [r1], #-1585
     bbc: 746d6600     	strbtvc	r6, [sp], #-1536
     bc0: 6772412e     	ldrbvs	r4, [r2, -lr, lsr #2]!
     bc4: 74617453     	strbtvc	r7, [r1], #-1107
     bc8: 656e2e65     	strbvs	r2, [lr, #-3685]!
     bcc: 72417478     	subvc	r7, r1, #120, #8
     bd0: 61240067     	<unknown>
     bd4: 0036342e     	eorseq	r3, r6, lr, lsr #8
     bd8: 342e6424     	strtlo	r6, [lr], #-1060
     bdc: 6d660037     	stclvs	p0, c0, [r6, #-220]!
     be0: 72412e74     	subvc	r2, r1, #116, #28
     be4: 61745367     	cmnvs	r4, r7, ror #6
     be8: 6e2e6574     	mcrvs	p5, #1, r6, c14, c4, #3
     bec: 41747865     	cmnmi	r4, r5, ror #16
     bf0: 5f5f6772     	svcpl	#6252402
     bf4: 6e6f6e61     	cdpvs	p14, #6, c6, c15, c1, #3
     bf8: 3136315f     	teqlo	r6, pc, asr r1
     bfc: 6d660035     	stclvs	p0, c0, [r6, #-212]!
     c00: 72412e74     	subvc	r2, r1, #116, #28
     c04: 61745367     	cmnvs	r4, r7, ror #6
     c08: 6e2e6574     	mcrvs	p5, #1, r6, c14, c4, #3
     c0c: 41747865     	cmnmi	r4, r5, ror #16
     c10: 5f5f6772     	svcpl	#6252402
     c14: 6e6f6e61     	cdpvs	p14, #6, c6, c15, c1, #3
     c18: 3136315f     	teqlo	r6, pc, asr r1
     c1c: 61240036     	<unknown>
     c20: 0038342e     	eorseq	r3, r8, lr, lsr #8
     c24: 2e746d66     	cdphs	p13, #7, c6, c4, c6, #3
     c28: 6d726f66     	ldclvs	p15, c6, [r2, #-408]!
     c2c: 6e497461     	cdpvs	p4, #4, c7, c9, c1, #3
     c30: 6c615674     	stclvs	p6, c5, [r1], #-464
     c34: 5f5f6575     	svcpl	#6251893
     c38: 6e6f6e61     	cdpvs	p14, #6, c6, c15, c1, #3
     c3c: 3836315f     	ldmdalo	r6!, {r0, r1, r2, r3, r4, r6, r8, r12, sp}
     c40: 6d660035     	stclvs	p0, c0, [r6, #-212]!
     c44: 6f662e74     	svcvs	#6696564
     c48: 74616d72     	strbtvc	r6, [r1], #-3442
     c4c: 5f746e49     	svcpl	#7630409
     c50: 6f6e615f     	svcvs	#7233887
     c54: 36315f6e     	ldrtlo	r5, [r1], -lr, ror #30
     c58: 6d003139     	stcvs	p1, c3, [r0, #-228]
     c5c: 2e687461     	cdphs	p4, #6, c7, c8, c1, #3
     c60: 43736261     	cmnmi	r3, #268435462
     c64: 5f747361     	svcpl	#7631713
     c68: 6f6e615f     	svcvs	#7233887
     c6c: 36315f6e     	ldrtlo	r5, [r1], -lr, ror #30
     c70: 66003339     	<unknown>
     c74: 642e746d     	strtvs	r7, [lr], #-1133
     c78: 74696769     	strbtvc	r6, [r9], #-1897
     c7c: 68436f54     	stmdavs	r3, {r2, r4, r6, r8, r9, r10, r11, sp, lr} ^
     c80: 24007261     	strhs	r7, [r0], #-609
     c84: 39342e64     	ldmdblo	r4!, {r2, r5, r6, r9, r10, r11, sp}
     c88: 746d6600     	strbtvc	r6, [sp], #-1536
     c8c: 726f662e     	rsbvc	r6, pc, #48234496
     c90: 4974616d     	ldmdbmi	r4!, {r0, r2, r3, r5, r6, r8, sp, lr} ^
     c94: 5f5f746e     	svcpl	#6255726
     c98: 6e6f6e61     	cdpvs	p14, #6, c6, c15, c1, #3
     c9c: 3936315f     	ldmdblo	r6!, {r0, r1, r2, r3, r4, r6, r8, r12, sp}
     ca0: 615f5f31     	cmpvs	pc, r1, lsr pc
     ca4: 5f6e6f6e     	svcpl	#7237486
     ca8: 35393631     	ldrlo	r3, [r9, #-1585]!
     cac: 746d6600     	strbtvc	r6, [sp], #-1536
     cb0: 726f662e     	rsbvc	r6, pc, #48234496
     cb4: 4974616d     	ldmdbmi	r4!, {r0, r2, r3, r5, r6, r8, sp, lr} ^
     cb8: 5f5f746e     	svcpl	#6255726
     cbc: 6e6f6e61     	cdpvs	p14, #6, c6, c15, c1, #3
     cc0: 3936315f     	ldmdblo	r6!, {r0, r1, r2, r3, r4, r6, r8, r12, sp}
     cc4: 615f5f31     	cmpvs	pc, r1, lsr pc
     cc8: 5f6e6f6e     	svcpl	#7237486
     ccc: 36393631     	shasxlo	r3, r9, r1
     cd0: 746d6600     	strbtvc	r6, [sp], #-1536
     cd4: 726f662e     	rsbvc	r6, pc, #48234496
     cd8: 4974616d     	ldmdbmi	r4!, {r0, r2, r3, r5, r6, r8, sp, lr} ^
     cdc: 5f5f746e     	svcpl	#6255726
     ce0: 6e6f6e61     	cdpvs	p14, #6, c6, c15, c1, #3
     ce4: 3936315f     	ldmdblo	r6!, {r0, r1, r2, r3, r4, r6, r8, r12, sp}
     ce8: 615f5f31     	cmpvs	pc, r1, lsr pc
     cec: 5f6e6f6e     	svcpl	#7237486
     cf0: 37393631     	<unknown>
     cf4: 746d6600     	strbtvc	r6, [sp], #-1536
     cf8: 726f662e     	rsbvc	r6, pc, #48234496
     cfc: 4974616d     	ldmdbmi	r4!, {r0, r2, r3, r5, r6, r8, sp, lr} ^
     d00: 5f5f746e     	svcpl	#6255726
     d04: 6e6f6e61     	cdpvs	p14, #6, c6, c15, c1, #3
     d08: 3936315f     	ldmdblo	r6!, {r0, r1, r2, r3, r4, r6, r8, r12, sp}
     d0c: 615f5f31     	cmpvs	pc, r1, lsr pc
     d10: 5f6e6f6e     	svcpl	#7237486
     d14: 38393631     	ldmdalo	r9!, {r0, r4, r5, r9, r10, r12, sp}
     d18: 746d6600     	strbtvc	r6, [sp], #-1536
     d1c: 726f662e     	rsbvc	r6, pc, #48234496
     d20: 4974616d     	ldmdbmi	r4!, {r0, r2, r3, r5, r6, r8, sp, lr} ^
     d24: 5f5f746e     	svcpl	#6255726
     d28: 6e6f6e61     	cdpvs	p14, #6, c6, c15, c1, #3
     d2c: 3936315f     	ldmdblo	r6!, {r0, r1, r2, r3, r4, r6, r8, r12, sp}
     d30: 615f5f31     	cmpvs	pc, r1, lsr pc
     d34: 5f6e6f6e     	svcpl	#7237486
     d38: 39393631     	ldmdblo	r9!, {r0, r4, r5, r9, r10, r12, sp}
     d3c: 2e612400     	cdphs	p4, #6, c2, c1, c0, #0
     d40: 24003035     	strhs	r3, [r0], #-53
     d44: 31352e64     	teqlo	r5, r4, ror #28
     d48: 746d6600     	strbtvc	r6, [sp], #-1536
     d4c: 6769642e     	strbvs	r6, [r9, -lr, lsr #8]!
     d50: 6f547469     	svcvs	#5534825
     d54: 72616843     	rsbvc	r6, r1, #4390912
     d58: 6e615f5f     	mcrvs	p15, #3, r5, c1, c15, #2
     d5c: 315f6e6f     	cmplo	pc, pc, ror #28
     d60: 00393937     	eorseq	r3, r9, r7, lsr r9
     d64: 2e746d66     	cdphs	p13, #7, c6, c4, c6, #3
     d68: 69676964     	stmdbvs	r7!, {r2, r5, r6, r8, r11, sp, lr} ^
     d6c: 436f5474     	<unknown>
     d70: 5f726168     	svcpl	#7496040
     d74: 6f6e615f     	svcvs	#7233887
     d78: 37315f6e     	ldrlo	r5, [r1, -lr, ror #30]!
     d7c: 66003739     	<unknown>
     d80: 642e746d     	strtvs	r7, [lr], #-1133
     d84: 74696769     	strbtvc	r6, [r9], #-1897
     d88: 68436f54     	stmdavs	r3, {r2, r4, r6, r8, r9, r10, r11, sp, lr} ^
     d8c: 5f5f7261     	svcpl	#6255201
     d90: 6e6f6e61     	cdpvs	p14, #6, c6, c15, c1, #3
     d94: 3937315f     	ldmdblo	r7!, {r0, r1, r2, r3, r4, r6, r8, r12, sp}
     d98: 6d660038     	stclvs	p0, c0, [r6, #-224]!
     d9c: 69642e74     	stmdbvs	r4!, {r2, r4, r5, r6, r9, r10, r11, sp} ^
     da0: 54746967     	ldrbtpl	r6, [r4], #-2407
     da4: 6168436f     	<unknown>
     da8: 615f5f72     	cmpvs	pc, r2, ror pc
     dac: 5f6e6f6e     	svcpl	#7237486
     db0: 36393731     	shasxlo	r3, r9, r1
     db4: 2e612400     	cdphs	p4, #6, c2, c1, c0, #0
     db8: 75003235     	strvc	r3, [r0, #-565]
     dbc: 6f63696e     	svcvs	#6515054
     dc0: 752e6564     	strvc	r6, [lr, #-1380]!
     dc4: 43386674     	teqmi	r8, #116, #12
     dc8: 746e756f     	strbtvc	r7, [lr], #-1391
     dcc: 65646f43     	strbvs	r6, [r4, #-3907]!
     dd0: 6e696f70     	mcrvs	p15, #3, r6, c9, c0, #3
     dd4: 69007374     	stmdbvs	r0, {r2, r4, r5, r6, r8, r9, r12, sp, lr}
     dd8: 72772e6f     	rsbsvc	r2, r7, #1776
     ddc: 72657469     	rsbvc	r7, r5, #1761607680
     de0: 6972572e     	ldmdbvs	r2!, {r1, r2, r3, r5, r8, r9, r10, r12, lr} ^
     de4: 28726574     	ldmdahs	r2!, {r2, r4, r5, r6, r8, r10, sp, lr} ^
     de8: 2e6f692a     	cdphs	p9, #6, c6, c15, c10, #1
     dec: 65786966     	ldrbvs	r6, [r8, #-2406]!
     df0: 75625f64     	strbvc	r5, [r2, #-3940]!
     df4: 72656666     	rsbvc	r6, r5, #106954752
     df8: 7274735f     	rsbsvc	r7, r4, #2080374785
     dfc: 2e6d6165     	cdphs	p1, #6, c6, c13, c5, #3
     e00: 65786946     	ldrbvs	r6, [r8, #-2374]!
     e04: 66754264     	ldrbtvs	r4, [r5], -r4, ror #4
     e08: 53726566     	cmnpl	r2, #427819008
     e0c: 61657274     	<unknown>
     e10: 5d5b286d     	ldclpl	p8, c2, [r11, #-436]
     e14: 2c293875     	stchs	p8, c3, [r9], #-468
     e18: 6f727265     	svcvs	#7500389
     e1c: 6f4e7b72     	svcvs	#5143410
     e20: 63617053     	<unknown>
     e24: 66654c65     	strbtvs	r4, [r5], -r5, ror #24
     e28: 282c7d74     	stmdahs	r12!, {r2, r4, r5, r6, r8, r10, r11, r12, sp, lr}
     e2c: 636e7566     	<unknown>
     e30: 6e6f6974     	mcrvs	p9, #3, r6, c15, c4, #3
     e34: 72772720     	rsbsvc	r2, r7, #32, #14
     e38: 27657469     	strbhs	r7, [r5, -r9, ror #8]!
     e3c: 772e2929     	strvc	r2, [lr, -r9, lsr #18]!
     e40: 65746972     	ldrbvs	r6, [r4, #-2418]!
     e44: 65747942     	ldrbvs	r7, [r4, #-2370]!
     e48: 6d69544e     	stclvs	p4, c5, [r9, #-312]!
     e4c: 24007365     	strhs	r7, [r0], #-869
     e50: 33352e64     	teqlo	r5, #100, #28
     e54: 746d6600     	strbtvc	r6, [sp], #-1536
     e58: 726f662e     	rsbvc	r6, pc, #48234496
     e5c: 4274616d     	rsbsmi	r6, r4, #1073741851
     e60: 5f5f6675     	svcpl	#6252149
     e64: 6e6f6e61     	cdpvs	p14, #6, c6, c15, c1, #3
     e68: 3037315f     	eorslo	r3, r7, pc, asr r1
     e6c: 615f5f30     	cmpvs	pc, r0, lsr pc
     e70: 5f6e6f6e     	svcpl	#7237486
     e74: 37383731     	<unknown>
     e78: 746d6600     	strbtvc	r6, [sp], #-1536
     e7c: 726f662e     	rsbvc	r6, pc, #48234496
     e80: 4274616d     	rsbsmi	r6, r4, #1073741851
     e84: 5f5f6675     	svcpl	#6252149
     e88: 6e6f6e61     	cdpvs	p14, #6, c6, c15, c1, #3
     e8c: 3037315f     	eorslo	r3, r7, pc, asr r1
     e90: 615f5f30     	cmpvs	pc, r0, lsr pc
     e94: 5f6e6f6e     	svcpl	#7237486
     e98: 38383731     	ldmdalo	r8!, {r0, r4, r5, r8, r9, r10, r12, sp}
     e9c: 746d6600     	strbtvc	r6, [sp], #-1536
     ea0: 726f662e     	rsbvc	r6, pc, #48234496
     ea4: 4274616d     	rsbsmi	r6, r4, #1073741851
     ea8: 5f5f6675     	svcpl	#6252149
     eac: 6e6f6e61     	cdpvs	p14, #6, c6, c15, c1, #3
     eb0: 3037315f     	eorslo	r3, r7, pc, asr r1
     eb4: 615f5f30     	cmpvs	pc, r0, lsr pc
     eb8: 5f6e6f6e     	svcpl	#7237486
     ebc: 39383731     	ldmdblo	r8!, {r0, r4, r5, r8, r9, r10, r12, sp}
     ec0: 696e7500     	stmdbvs	lr!, {r8, r10, r12, sp, lr} ^
     ec4: 65646f63     	strbvs	r6, [r4, #-3939]!
     ec8: 6674752e     	ldrbtvs	r7, [r4], -lr, lsr #10
     ecc: 74794238     	ldrbtvc	r4, [r9], #-568
     ed0: 71655365     	<unknown>
     ed4: 636e6575     	<unknown>
     ed8: 6e654c65     	cdpvs	p12, #6, c4, c5, c5, #3
     edc: 00687467     	rsbeq	r7, r8, r7, ror #8
     ee0: 352e6124     	strlo	r6, [lr, #-292]!
     ee4: 64240034     	strtvs	r0, [r4], #-52
     ee8: 0035352e     	eorseq	r3, r5, lr, lsr #10
     eec: 352e6124     	strlo	r6, [lr, #-292]!
     ef0: 656d0036     	strbvs	r0, [sp, #-54]!
     ef4: 65722e6d     	ldrbvs	r2, [r2, #-3693]!
     ef8: 6e496461     	cdpvs	p4, #4, c6, c9, c1, #3
     efc: 74614e74     	strbtvc	r4, [r1], #-3700
     f00: 5f657669     	svcpl	#6649449
     f04: 6f6e615f     	svcvs	#7233887
     f08: 37315f6e     	ldrlo	r5, [r1, -lr, ror #30]!
     f0c: 75003637     	strvc	r3, [r0, #-1591]
     f10: 6f63696e     	svcvs	#6515054
     f14: 752e6564     	strvc	r6, [lr, #-1380]!
     f18: 44386674     	ldrtmi	r6, [r8], #-1652
     f1c: 646f6365     	strbtvs	r6, [pc], #-869
     f20: 64240065     	strtvs	r0, [r4], #-101
     f24: 0037352e     	eorseq	r3, r7, lr, lsr #10
     f28: 63696e75     	<unknown>
     f2c: 2e65646f     	cdphs	p4, #6, c6, c5, c15, #3
     f30: 38667475     	stmdalo	r6!, {r0, r2, r4, r5, r6, r10, r12, sp, lr} ^
     f34: 6e756f43     	cdpvs	p15, #7, c6, c5, c3, #2
     f38: 646f4374     	strbtvs	r4, [pc], #-884
     f3c: 696f7065     	stmdbvs	pc!, {r0, r2, r5, r6, r12, sp, lr} ^
     f40: 5f73746e     	svcpl	#7566446
     f44: 6f6e615f     	svcvs	#7233887
     f48: 37315f6e     	ldrlo	r5, [r1, -lr, ror #30]!
     f4c: 75003437     	strvc	r3, [r0, #-1079]
     f50: 6f63696e     	svcvs	#6515054
     f54: 752e6564     	strvc	r6, [lr, #-1380]!
     f58: 43386674     	teqmi	r8, #116, #12
     f5c: 746e756f     	strbtvc	r7, [lr], #-1391
     f60: 65646f43     	strbvs	r6, [r4, #-3907]!
     f64: 6e696f70     	mcrvs	p15, #3, r6, c9, c0, #3
     f68: 5f5f7374     	svcpl	#6255476
     f6c: 6e6f6e61     	cdpvs	p14, #6, c6, c15, c1, #3
     f70: 3737315f     	<unknown>
     f74: 6e750035     	mrcvs	p0, #3, r0, c5, c5, #1
     f78: 646f6369     	strbtvs	r6, [pc], #-873
     f7c: 74752e65     	ldrbtvc	r2, [r5], #-3685
     f80: 6f433866     	svcvs	#4405350
     f84: 43746e75     	cmnmi	r4, #1872
     f88: 7065646f     	rsbvc	r6, r5, pc, ror #8
     f8c: 746e696f     	strbtvc	r6, [lr], #-2415
     f90: 615f5f73     	cmpvs	pc, r3, ror pc
     f94: 5f6e6f6e     	svcpl	#7237486
     f98: 37373731     	<unknown>
     f9c: 696e7500     	stmdbvs	lr!, {r8, r10, r12, sp, lr} ^
     fa0: 65646f63     	strbvs	r6, [r4, #-3939]!
     fa4: 6674752e     	ldrbtvs	r7, [r4], -lr, lsr #10
     fa8: 756f4338     	strbvc	r4, [pc, #-824]!
     fac: 6f43746e     	svcvs	#4420718
     fb0: 6f706564     	svcvs	#7365988
     fb4: 73746e69     	cmnvc	r4, #1680
     fb8: 6e615f5f     	mcrvs	p15, #3, r5, c1, c15, #2
     fbc: 315f6e6f     	cmplo	pc, pc, ror #28
     fc0: 00383737     	eorseq	r3, r8, r7, lsr r7
     fc4: 63696e75     	<unknown>
     fc8: 2e65646f     	cdphs	p4, #6, c6, c5, c15, #3
     fcc: 38667475     	stmdalo	r6!, {r0, r2, r4, r5, r6, r10, r12, sp, lr} ^
     fd0: 6e756f43     	cdpvs	p15, #7, c6, c5, c3, #2
     fd4: 646f4374     	strbtvs	r4, [pc], #-884
     fd8: 696f7065     	stmdbvs	pc!, {r0, r2, r5, r6, r12, sp, lr} ^
     fdc: 5f73746e     	svcpl	#7566446
     fe0: 6f6e615f     	svcvs	#7233887
     fe4: 37315f6e     	ldrlo	r5, [r1, -lr, ror #30]!
     fe8: 75003937     	strvc	r3, [r0, #-2359]
     fec: 6f63696e     	svcvs	#6515054
     ff0: 752e6564     	strvc	r6, [lr, #-1380]!
     ff4: 43386674     	teqmi	r8, #116, #12
     ff8: 746e756f     	strbtvc	r7, [lr], #-1391
     ffc: 65646f43     	strbvs	r6, [r4, #-3907]!
    1000: 6e696f70     	mcrvs	p15, #3, r6, c9, c0, #3
    1004: 5f5f7374     	svcpl	#6255476
    1008: 6e6f6e61     	cdpvs	p14, #6, c6, c15, c1, #3
    100c: 3837315f     	ldmdalo	r7!, {r0, r1, r2, r3, r4, r6, r8, r12, sp}
    1010: 6e750033     	mrcvs	p0, #3, r0, c5, c3, #1
    1014: 646f6369     	strbtvs	r6, [pc], #-873
    1018: 74752e65     	ldrbtvc	r2, [r5], #-3685
    101c: 6f433866     	svcvs	#4405350
    1020: 43746e75     	cmnmi	r4, #1872
    1024: 7065646f     	rsbvc	r6, r5, pc, ror #8
    1028: 746e696f     	strbtvc	r6, [lr], #-2415
    102c: 615f5f73     	cmpvs	pc, r3, ror pc
    1030: 5f6e6f6e     	svcpl	#7237486
    1034: 34383731     	ldrtlo	r3, [r8], #-1841
    1038: 696e7500     	stmdbvs	lr!, {r8, r10, r12, sp, lr} ^
    103c: 65646f63     	strbvs	r6, [r4, #-3939]!
    1040: 6674752e     	ldrbtvs	r7, [r4], -lr, lsr #10
    1044: 756f4338     	strbvc	r4, [pc, #-824]!
    1048: 6f43746e     	svcvs	#4420718
    104c: 6f706564     	svcvs	#7365988
    1050: 73746e69     	cmnvc	r4, #1680
    1054: 6e615f5f     	mcrvs	p15, #3, r5, c1, c15, #2
    1058: 315f6e6f     	cmplo	pc, pc, ror #28
    105c: 00353837     	eorseq	r3, r5, r7, lsr r8
    1060: 63696e75     	<unknown>
    1064: 2e65646f     	cdphs	p4, #6, c6, c5, c15, #3
    1068: 38667475     	stmdalo	r6!, {r0, r2, r4, r5, r6, r10, r12, sp, lr} ^
    106c: 6e756f43     	cdpvs	p15, #7, c6, c5, c3, #2
    1070: 646f4374     	strbtvs	r4, [pc], #-884
    1074: 696f7065     	stmdbvs	pc!, {r0, r2, r5, r6, r12, sp, lr} ^
    1078: 5f73746e     	svcpl	#7566446
    107c: 6f6e615f     	svcvs	#7233887
    1080: 37315f6e     	ldrlo	r5, [r1, -lr, ror #30]!
    1084: 24003638     	strhs	r3, [r0], #-1592
    1088: 38352e61     	ldmdalo	r5!, {r0, r5, r6, r9, r10, r11, sp}
    108c: 2e642400     	cdphs	p4, #6, c2, c4, c0, #0
    1090: 24003935     	strhs	r3, [r0], #-2357
    1094: 30362e61     	eorslo	r2, r6, r1, ror #28
    1098: 696e7500     	stmdbvs	lr!, {r8, r10, r12, sp, lr} ^
    109c: 65646f63     	strbvs	r6, [r4, #-3939]!
    10a0: 6674752e     	ldrbtvs	r7, [r4], -lr, lsr #10
    10a4: 63654438     	<unknown>
    10a8: 3265646f     	rsblo	r6, r5, #1862270976
    10ac: 696e7500     	stmdbvs	lr!, {r8, r10, r12, sp, lr} ^
    10b0: 65646f63     	strbvs	r6, [r4, #-3939]!
    10b4: 6674752e     	ldrbtvs	r7, [r4], -lr, lsr #10
    10b8: 63654438     	<unknown>
    10bc: 3365646f     	<unknown>
    10c0: 696e7500     	stmdbvs	lr!, {r8, r10, r12, sp, lr} ^
    10c4: 65646f63     	strbvs	r6, [r4, #-3939]!
    10c8: 6674752e     	ldrbtvs	r7, [r4], -lr, lsr #10
    10cc: 63654438     	<unknown>
    10d0: 3465646f     	strbtlo	r6, [r5], #-1135
    10d4: 2e642400     	cdphs	p4, #6, c2, c4, c0, #0
    10d8: 75003136     	strvc	r3, [r0, #-310]
    10dc: 6f63696e     	svcvs	#6515054
    10e0: 752e6564     	strvc	r6, [lr, #-1380]!
    10e4: 44386674     	ldrtmi	r6, [r8], #-1652
    10e8: 646f6365     	strbtvs	r6, [pc], #-869
    10ec: 615f5f65     	cmpvs	pc, r5, ror #30
    10f0: 5f6e6f6e     	svcpl	#7237486
    10f4: 30303831     	eorslo	r3, r0, r1, lsr r8
    10f8: 2e612400     	cdphs	p4, #6, c2, c1, c0, #0
    10fc: 6d003236     	stcvs	p2, c3, [r0, #-216]
    1100: 732e6d65     	<unknown>
    1104: 5f5f7465     	svcpl	#6255717
    1108: 6e6f6e61     	cdpvs	p14, #6, c6, c15, c1, #3
    110c: 3038315f     	eorslo	r3, r8, pc, asr r1
    1110: 616d0031     	<unknown>
    1114: 6d2e6874     	stcvs	p8, c6, [lr, #-464]!
    1118: 5f5f6e69     	svcpl	#6254185
    111c: 6e6f6e61     	cdpvs	p14, #6, c6, c15, c1, #3
    1120: 3038315f     	eorslo	r3, r8, pc, asr r1
    1124: 64240032     	strtvs	r0, [r4], #-50
    1128: 0033362e     	eorseq	r3, r3, lr, lsr #12
    112c: 772e6f69     	strvc	r6, [lr, -r9, ror #30]!
    1130: 65746972     	ldrbvs	r6, [r4, #-2418]!
    1134: 72572e72     	subsvc	r2, r7, #1824
    1138: 72657469     	rsbvc	r7, r5, #1761607680
    113c: 6f692a28     	svcvs	#6892072
    1140: 7869662e     	stmdavc	r9!, {r1, r2, r3, r5, r9, r10, sp, lr} ^
    1144: 625f6465     	subsvs	r6, pc, #1694498816
    1148: 65666675     	strbvs	r6, [r6, #-1653]!
    114c: 74735f72     	ldrbtvc	r5, [r3], #-3954
    1150: 6d616572     	stclvs	p5, c6, [r1, #-456]!
    1154: 7869462e     	stmdavc	r9!, {r1, r2, r3, r5, r9, r10, lr} ^
    1158: 75426465     	strbvc	r6, [r2, #-1125]
    115c: 72656666     	rsbvc	r6, r5, #106954752
    1160: 65727453     	ldrbvs	r7, [r2, #-1107]!
    1164: 5b286d61     	blpl	0xa1c6f0 <__prog_end__+0xa0f518> @ imm = #10597764
    1168: 2938755d     	ldmdbhs	r8!, {r0, r2, r3, r4, r6, r8, r10, r12, sp, lr}
    116c: 7272652c     	rsbsvc	r6, r2, #44, #10
    1170: 4e7b726f     	cdpmi	p2, #7, c7, c11, c15, #3
    1174: 6170536f     	cmnvs	r0, pc, ror #6
    1178: 654c6563     	strbvs	r6, [r12, #-1379]
    117c: 2c7d7466     	ldclhs	p4, c7, [sp], #-408
    1180: 6e756628     	cdpvs	p6, #7, c6, c5, c8, #1
    1184: 6f697463     	svcvs	#6911075
    1188: 7727206e     	strvc	r2, [r7, -lr, rrx]!
    118c: 65746972     	ldrbvs	r6, [r4, #-2418]!
    1190: 2e292927     	cdphs	p9, #2, c2, c9, c7, #1
    1194: 74697277     	strbtvc	r7, [r9], #-631
    1198: 74794265     	ldrbtvc	r4, [r9], #-613
    119c: 69544e65     	ldmdbvs	r4, {r0, r2, r5, r6, r9, r10, r11, lr} ^
    11a0: 5f73656d     	svcpl	#7562605
    11a4: 6f6e615f     	svcvs	#7233887
    11a8: 38315f6e     	ldmdalo	r1!, {r1, r2, r3, r5, r6, r8, r9, r10, r11, r12, lr}
    11ac: 66003330     	<unknown>
    11b0: 412e746d     	<unknown>
    11b4: 74536772     	ldrbvc	r6, [r3], #-1906
    11b8: 2e657461     	cdphs	p4, #6, c7, c5, c1, #3
    11bc: 55736168     	ldrbpl	r6, [r3, #-360]!
    11c0: 6573756e     	ldrbvs	r7, [r3, #-1390]!
    11c4: 67724164     	ldrbvs	r4, [r2, -r4, ror #2]!
    11c8: 61240073     	<unknown>
    11cc: 0034362e     	eorseq	r3, r4, lr, lsr #12
    11d0: 362e6424     	strtlo	r6, [lr], -r4, lsr #8
    11d4: 61240035     	<unknown>
    11d8: 0036362e     	eorseq	r3, r6, lr, lsr #12
    11dc: 362e6424     	strtlo	r6, [lr], -r4, lsr #8
    11e0: 6e750037     	mrcvs	p0, #3, r0, c5, c7, #1
    11e4: 646f6369     	strbtvs	r6, [pc], #-873
    11e8: 74752e65     	ldrbtvc	r2, [r5], #-3685
    11ec: 65443866     	strbvs	r3, [r4, #-2150]
    11f0: 65646f63     	strbvs	r6, [r4, #-3939]!
    11f4: 615f5f32     	cmpvs	pc, r2, lsr pc
    11f8: 5f6e6f6e     	svcpl	#7237486
    11fc: 34303831     	ldrtlo	r3, [r0], #-2097
    1200: 2e612400     	cdphs	p4, #6, c2, c1, c0, #0
    1204: 24003836     	strhs	r3, [r0], #-2102
    1208: 39362e64     	ldmdblo	r6!, {r2, r5, r6, r9, r10, r11, sp}
    120c: 696e7500     	stmdbvs	lr!, {r8, r10, r12, sp, lr} ^
    1210: 65646f63     	strbvs	r6, [r4, #-3939]!
    1214: 6674752e     	ldrbtvs	r7, [r4], -lr, lsr #10
    1218: 63654438     	<unknown>
    121c: 3365646f     	<unknown>
    1220: 6e615f5f     	mcrvs	p15, #3, r5, c1, c15, #2
    1224: 315f6e6f     	cmplo	pc, pc, ror #28
    1228: 00353038     	eorseq	r3, r5, r8, lsr r0
    122c: 63696e75     	<unknown>
    1230: 2e65646f     	cdphs	p4, #6, c6, c5, c15, #3
    1234: 38667475     	stmdalo	r6!, {r0, r2, r4, r5, r6, r10, r12, sp, lr} ^
    1238: 6f636544     	svcvs	#6513988
    123c: 5f336564     	svcpl	#3368292
    1240: 6f6e615f     	svcvs	#7233887
    1244: 38315f6e     	ldmdalo	r1!, {r1, r2, r3, r5, r6, r8, r9, r10, r11, r12, lr}
    1248: 24003630     	strhs	r3, [r0], #-1584
    124c: 30372e61     	eorslo	r2, r7, r1, ror #28
    1250: 2e642400     	cdphs	p4, #6, c2, c4, c0, #0
    1254: 75003137     	strvc	r3, [r0, #-311]
    1258: 6f63696e     	svcvs	#6515054
    125c: 752e6564     	strvc	r6, [lr, #-1380]!
    1260: 44386674     	ldrtmi	r6, [r8], #-1652
    1264: 646f6365     	strbtvs	r6, [pc], #-869
    1268: 5f5f3465     	svcpl	#6239333
    126c: 6e6f6e61     	cdpvs	p14, #6, c6, c15, c1, #3
    1270: 3038315f     	eorslo	r3, r8, pc, asr r1
    1274: 6e750037     	mrcvs	p0, #3, r0, c5, c7, #1
    1278: 646f6369     	strbtvs	r6, [pc], #-873
    127c: 74752e65     	ldrbtvc	r2, [r5], #-3685
    1280: 65443866     	strbvs	r3, [r4, #-2150]
    1284: 65646f63     	strbvs	r6, [r4, #-3939]!
    1288: 615f5f34     	cmpvs	pc, r4, lsr pc
    128c: 5f6e6f6e     	svcpl	#7237486
    1290: 38303831     	ldmdalo	r0!, {r0, r4, r5, r11, r12, sp}
    1294: 696e7500     	stmdbvs	lr!, {r8, r10, r12, sp, lr} ^
    1298: 65646f63     	strbvs	r6, [r4, #-3939]!
    129c: 6674752e     	ldrbtvs	r7, [r4], -lr, lsr #10
    12a0: 63654438     	<unknown>
    12a4: 3465646f     	strbtlo	r6, [r5], #-1135
    12a8: 6e615f5f     	mcrvs	p15, #3, r5, c1, c15, #2
    12ac: 315f6e6f     	cmplo	pc, pc, ror #28
    12b0: 00393038     	eorseq	r3, r9, r8, lsr r0
    12b4: 372e6124     	strlo	r6, [lr, -r4, lsr #2]!
    12b8: 64240032     	strtvs	r0, [r4], #-50
    12bc: 0033372e     	eorseq	r3, r3, lr, lsr #14
    12c0: 2e6d656d     	cdphs	p5, #6, c6, c13, c13, #3
    12c4: 5f746573     	svcpl	#7628147
    12c8: 6f6e615f     	svcvs	#7233887
    12cc: 38315f6e     	ldmdalo	r1!, {r1, r2, r3, r5, r6, r8, r9, r10, r11, r12, lr}
    12d0: 5f5f3130     	svcpl	#6238512
    12d4: 6e6f6e61     	cdpvs	p14, #6, c6, c15, c1, #3
    12d8: 3138315f     	teqlo	r8, pc, asr r1
    12dc: 61240030     	<unknown>
    12e0: 0034372e     	eorseq	r3, r4, lr, lsr #14
    12e4: 6c697562     	stclvs	p5, c7, [r9], #-392
    12e8: 2e6e6974     	mcrhs	p9, #3, r6, c14, c4, #3
    12ec: 5f67697a     	svcpl	#6777210
    12f0: 6b636162     	blvs	0x18d9880 <__prog_end__+0x18cc6a8> @ imm = #26051976
    12f4: 00646e65     	rsbeq	r6, r4, r5, ror #28
    12f8: 6c697562     	stclvs	p5, c7, [r9], #-392
    12fc: 2e6e6974     	mcrhs	p9, #3, r6, c14, c4, #3
    1300: 7074756f     	rsbsvc	r7, r4, pc, ror #10
    1304: 6d5f7475     	ldclvs	p4, c7, [pc, #-468]     @ 0x1138 <.strtab+0x1138>
    1308: 0065646f     	rsbeq	r6, r5, pc, ror #8
    130c: 6c697562     	stclvs	p5, c7, [r9], #-392
    1310: 2e6e6974     	mcrhs	p9, #3, r6, c14, c4, #3
    1314: 6b6e696c     	blvs	0x1b9b8cc <__prog_end__+0x1b8e6f4> @ imm = #28943792
    1318: 62696c5f     	rsbvs	r6, r9, #24320
    131c: 74730063     	ldrbtvc	r0, [r3], #-99
    1320: 2e747261     	cdphs	p2, #7, c7, c4, c1, #3
    1324: 6974616e     	ldmdbvs	r4!, {r1, r2, r3, r5, r6, r8, sp, lr} ^
    1328: 6f5f6576     	svcvs	#6251894
    132c: 61740073     	cmnvs	r4, r3, ror r0
    1330: 74656772     	strbtvc	r6, [r5], #-1906
    1334: 6d72612e     	ldclvs	p1, c6, [r2, #-184]!
    1338: 7570632e     	ldrbvc	r6, [r0, #-814]!
    133c: 6d72612e     	ldclvs	p1, c6, [r2, #-184]!
    1340: 36373131     	shasxlo	r3, r7, r1
    1344: 5f667a6a     	svcpl	#6716010
    1348: 61740073     	cmnvs	r4, r3, ror r0
    134c: 74656772     	strbtvc	r6, [r5], #-1906
    1350: 6d72612e     	ldclvs	p1, c6, [r2, #-184]!
    1354: 7570632e     	ldrbvc	r6, [r0, #-814]!
    1358: 6d72612e     	ldclvs	p1, c6, [r2, #-184]!
    135c: 36373131     	shasxlo	r3, r7, r1
    1360: 5f667a6a     	svcpl	#6716010
    1364: 615f5f73     	cmpvs	pc, r3, ror pc
    1368: 5f6e6f6e     	svcpl	#7237486
    136c: 00343834     	eorseq	r3, r4, r4, lsr r8
    1370: 67726174     	<unknown>
    1374: 612e7465     	<unknown>
    1378: 632e6d72     	<unknown>
    137c: 612e7570     	<unknown>
    1380: 31316d72     	teqlo	r1, r2, ror sp
    1384: 7a6a3637     	bvc	0x1a8ec68 <__prog_end__+0x1a81a90> @ imm = #27842780
    1388: 5f735f66     	svcpl	#7561062
    138c: 6f6e615f     	svcvs	#7233887
    1390: 38345f6e     	ldmdalo	r4!, {r1, r2, r3, r5, r6, r8, r9, r10, r11, r12, lr}
    1394: 75620035     	strbvc	r0, [r2, #-53]!
    1398: 69746c69     	ldmdbvs	r4!, {r0, r3, r5, r6, r10, r11, sp, lr} ^
    139c: 70632e6e     	rsbvc	r2, r3, lr, ror #28
    13a0: 74730075     	ldrbtvc	r0, [r3], #-117
    13a4: 2e747261     	cdphs	p2, #7, c7, c4, c1, #3
    13a8: 6974616e     	ldmdbvs	r4!, {r1, r2, r3, r5, r6, r8, sp, lr} ^
    13ac: 615f6576     	cmpvs	pc, r6, ror r5
    13b0: 00686372     	rsbeq	r6, r8, r2, ror r3
    13b4: 6e69616d     	cdpvs	p1, #6, c6, c9, c13, #3
    13b8: 4950472e     	ldmdbmi	r0, {r1, r2, r3, r5, r8, r9, r10, lr} ^
    13bc: 41425f4f     	<unknown>
    13c0: 6d004553     	stcvs	p5, c4, [r0, #-332]
    13c4: 2e6e6961     	cdphs	p9, #6, c6, c14, c1, #3
    13c8: 4f495047     	svcmi	#4804679
    13cc: 5341425f     	<unknown>
    13d0: 4e495f45     	cdpmi	p15, #4, c5, c9, c5, #2
    13d4: 616d0054     	qdsubvs	r0, r4, sp
    13d8: 672e6e69     	strvs	r6, [lr, -r9, ror #28]!
    13dc: 5f6f6970     	svcpl	#7301488
    13e0: 30746573     	rsbslo	r6, r4, r3, ror r5
    13e4: 69616d00     	stmdbvs	r1!, {r8, r10, r11, sp, lr} ^
    13e8: 70672e6e     	rsbvc	r2, r7, lr, ror #28
    13ec: 635f6f69     	cmpvs	pc, #420
    13f0: 0030726c     	eorseq	r7, r0, r12, ror #4
    13f4: 2e746d66     	cdphs	p13, #7, c6, c4, c6, #3
    13f8: 6d726f66     	ldclvs	p15, c6, [r2, #-408]!
    13fc: 5f5f7461     	svcpl	#6255713
    1400: 6e6f6e61     	cdpvs	p14, #6, c6, c15, c1, #3
    1404: 3035315f     	eorslo	r3, r5, pc, asr r1
    1408: 615f5f32     	cmpvs	pc, r2, lsr pc
    140c: 5f6e6f6e     	svcpl	#7237486
    1410: 30313531     	eorslo	r3, r1, r1, lsr r5
    1414: 746d6600     	strbtvc	r6, [sp], #-1536
    1418: 726f662e     	rsbvc	r6, pc, #48234496
    141c: 5f74616d     	svcpl	#7627117
    1420: 6f6e615f     	svcvs	#7233887
    1424: 35315f6e     	ldrlo	r5, [r1, #-3950]!
    1428: 5f5f3230     	svcpl	#6238768
    142c: 6e6f6e61     	cdpvs	p14, #6, c6, c15, c1, #3
    1430: 3135315f     	teqlo	r5, pc, asr r1
    1434: 6d660033     	stclvs	p0, c0, [r6, #-204]!
    1438: 61632e74     	<unknown>
    143c: 53656863     	<unknown>
    1440: 6e697274     	mcrvs	p2, #3, r7, c9, c4, #3
    1444: 615f5f67     	cmpvs	pc, r7, ror #30
    1448: 5f6e6f6e     	svcpl	#7237486
    144c: 37343531     	<unknown>
    1450: 746d6600     	strbtvc	r6, [sp], #-1536
    1454: 726f662e     	rsbvc	r6, pc, #48234496
    1458: 5f74616d     	svcpl	#7627117
    145c: 6f6e615f     	svcvs	#7233887
    1460: 35315f6e     	ldrlo	r5, [r1, #-3950]!
    1464: 5f5f3230     	svcpl	#6238768
    1468: 6e6f6e61     	cdpvs	p14, #6, c6, c15, c1, #3
    146c: 3535315f     	ldrlo	r3, [r5, #-351]!
    1470: 6d660033     	stclvs	p0, c0, [r6, #-204]!
    1474: 6f662e74     	svcvs	#6696564
    1478: 74616d72     	strbtvc	r6, [r1], #-3442
    147c: 6e615f5f     	mcrvs	p15, #3, r5, c1, c15, #2
    1480: 315f6e6f     	cmplo	pc, pc, ror #28
    1484: 5f383535     	svcpl	#3683637
    1488: 6f6e615f     	svcvs	#7233887
    148c: 35315f6e     	ldrlo	r5, [r1, #-3950]!
    1490: 66003236     	<unknown>
    1494: 662e746d     	strtvs	r7, [lr], -sp, ror #8
    1498: 616d726f     	<unknown>
    149c: 615f5f74     	cmpvs	pc, r4, ror pc
    14a0: 5f6e6f6e     	svcpl	#7237486
    14a4: 38353531     	ldmdalo	r5!, {r0, r4, r5, r8, r10, r12, sp}
    14a8: 6e615f5f     	mcrvs	p15, #3, r5, c1, c15, #2
    14ac: 315f6e6f     	cmplo	pc, pc, ror #28
    14b0: 00353635     	eorseq	r3, r5, r5, lsr r6
    14b4: 2e746d66     	cdphs	p13, #7, c6, c4, c6, #3
    14b8: 68636163     	stmdavs	r3!, {r0, r1, r5, r6, r8, sp, lr} ^
    14bc: 72745365     	rsbsvc	r5, r4, #-1811939327
    14c0: 5f676e69     	svcpl	#6778473
    14c4: 6f6e615f     	svcvs	#7233887
    14c8: 35315f6e     	ldrlo	r5, [r1, #-3950]!
    14cc: 66003838     	<unknown>
    14d0: 662e746d     	strtvs	r7, [lr], -sp, ror #8
    14d4: 616d726f     	<unknown>
    14d8: 746e4974     	strbtvc	r4, [lr], #-2420
    14dc: 756c6156     	strbvc	r6, [r12, #-342]!
    14e0: 615f5f65     	cmpvs	pc, r5, ror #30
    14e4: 5f6e6f6e     	svcpl	#7237486
    14e8: 35383631     	ldrlo	r3, [r8, #-1585]!
    14ec: 6e615f5f     	mcrvs	p15, #3, r5, c1, c15, #2
    14f0: 315f6e6f     	cmplo	pc, pc, ror #28
    14f4: 00383836     	eorseq	r3, r8, r6, lsr r8
    14f8: 2e746d66     	cdphs	p13, #7, c6, c4, c6, #3
    14fc: 6d726f66     	ldclvs	p15, c6, [r2, #-408]!
    1500: 79547461     	ldmdbvc	r4, {r0, r5, r6, r10, r12, sp, lr} ^
    1504: 5f5f6570     	svcpl	#6251888
    1508: 6e6f6e61     	cdpvs	p14, #6, c6, c15, c1, #3
    150c: 3935315f     	ldmdblo	r5!, {r0, r1, r2, r3, r4, r6, r8, r12, sp}
    1510: 615f5f31     	cmpvs	pc, r1, lsr pc
    1514: 5f6e6f6e     	svcpl	#7237486
    1518: 33393731     	teqlo	r9, #12845056
    151c: 746d6600     	strbtvc	r6, [sp], #-1536
    1520: 594e412e     	stmdbpl	lr, {r1, r2, r3, r5, r8, lr} ^
    1524: 746d6600     	strbtvc	r6, [sp], #-1536
    1528: 594e412e     	stmdbpl	lr, {r1, r2, r3, r5, r8, lr} ^
    152c: 6e615f5f     	mcrvs	p15, #3, r5, c1, c15, #2
    1530: 315f6e6f     	cmplo	pc, pc, ror #28
    1534: 00373136     	eorseq	r3, r7, r6, lsr r1
    1538: 706d6f63     	rsbvc	r6, sp, r3, ror #30
    153c: 72656c69     	rsbvc	r6, r5, #26880
    1540: 0074725f     	rsbseq	r7, r4, pc, asr r2
    1544: 342e6124     	strtlo	r6, [lr], #-292
    1548: 24003238     	strhs	r3, [r0], #-568
    154c: 38342e61     	ldmdalo	r4!, {r0, r5, r6, r9, r10, r11, sp}
    1550: 61240039     	<unknown>
    1554: 3732352e     	ldrlo	r3, [r2, -lr, lsr #10]!
    1558: 2e612400     	cdphs	p4, #6, c2, c1, c0, #0
    155c: 00303335     	eorseq	r3, r0, r5, lsr r3
    1560: 6174735f     	cmnvs	r4, pc, asr r3
    1564: 7a007472     	bvc	0x1e734 <__prog_end__+0x1155c> @ imm = #119240
    1568: 614d6769     	<unknown>
    156c: 70006e69     	andvc	r6, r0, r9, ror #28
    1570: 32337475     	eorslo	r7, r3, #1962934272
    1574: 54555000     	ldrbpl	r5, [r5], #-0
    1578: 67003233     	<unknown>
    157c: 32337465     	eorslo	r7, r3, #1694498816
    1580: 54454700     	strbpl	r4, [r5], #-1792
    1584: 6e003233     	mcrvs	p2, #0, r3, c0, c3, #1
    1588: 5f00706f     	svcpl	#28783
    158c: 6165615f     	qdsubvs	r6, pc, r5
    1590: 6d5f6962     	ldclvs	p9, c6, [pc, #-392]     @ 0x1410 <.strtab+0x1410>
    1594: 65736d65     	ldrbvs	r6, [r3, #-3429]!
    1598: 5f5f0074     	svcpl	#6226036
    159c: 62616561     	rsbvs	r6, r1, #406847488
    15a0: 69755f69     	ldmdbvs	r5!, {r0, r3, r5, r6, r8, r9, r10, r11, r12, lr} ^
    15a4: 6d766964     	ldclvs	p9, c6, [r6, #-400]!
    15a8: 5f00646f     	svcpl	#25711
    15ac: 6165615f     	qdsubvs	r6, pc, r5
    15b0: 755f6962     	ldrbvc	r6, [pc, #-2402]        @ 0xc56 <.strtab+0xc56>
    15b4: 76696469     	strbtvc	r6, [r9], -r9, ror #8
    15b8: 755f5f00     	ldrbvc	r5, [pc, #-3840]        @ 0x6c0 <.strtab+0x6c0>
    15bc: 6d766964     	ldclvs	p9, c6, [r6, #-400]!
    15c0: 6973646f     	ldmdbvs	r3!, {r0, r1, r2, r3, r5, r6, r10, sp, lr} ^
    15c4: 5f5f0034     	svcpl	#6225972
    15c8: 65646f63     	strbvs	r6, [r4, #-3939]!
    15cc: 6174735f     	cmnvs	r4, pc, asr r3
    15d0: 5f5f7472     	svcpl	#6255730
    15d4: 635f5f00     	cmpvs	pc, #0, #30
    15d8: 5f65646f     	svcpl	#6644847
    15dc: 5f646e65     	svcpl	#6581861
    15e0: 5f5f005f     	svcpl	#6226015
    15e4: 61746164     	cmnvs	r4, r4, ror #2
    15e8: 6174735f     	cmnvs	r4, pc, asr r3
    15ec: 5f5f7472     	svcpl	#6255730
    15f0: 645f5f00     	ldrbvs	r5, [pc], #-3840
    15f4: 5f617461     	svcpl	#6386785
    15f8: 5f646e65     	svcpl	#6581861
    15fc: 5f5f005f     	svcpl	#6226015
    1600: 5f737362     	svcpl	#7566178
    1604: 72617473     	rsbvc	r7, r1, #1929379840
    1608: 005f5f74     	subseq	r5, pc, r4, ror pc
    160c: 73625f5f     	<unknown>
    1610: 6e655f73     	mcrvs	p15, #3, r5, c5, c3, #3
    1614: 005f5f64     	subseq	r5, pc, r4, ror #30
    1618: 72705f5f     	rsbsvc	r5, r0, #380
    161c: 655f676f     	ldrbvs	r6, [pc, #-1903]        @ 0xeb5 <.strtab+0xeb5>
    1620: 5f5f646e     	svcpl	#6251630
    1624: 685f5f00     	ldmdavs	pc, {r8, r9, r10, r11, r12, lr} ^
    1628: 5f706165     	svcpl	#7364965
    162c: 72617473     	rsbvc	r7, r1, #1929379840
    1630: 005f5f74     	subseq	r5, pc, r4, ror pc
