
tests/part2-test6.elf:     file format elf32-littlearm


Disassembly of section .text:

00008000 <__code_start__>:
    8000:	e3a00013 	mov	r0, #19, 0
    8004:	e3800080 	orr	r0, r0, #128, 0	; 0x80
    8008:	e129f000 	msr	CPSR_fc, r0
    800c:	e3a01000 	mov	r1, #0, 0
    8010:	ee071f95 	mcr	15, 0, r1, cr7, cr5, {4}
    8014:	e3a0d302 	mov	sp, #134217728	; 0x8000000
    8018:	e3a0b000 	mov	fp, #0, 0
    801c:	eb000514 	bl	9474 <_cstart>
    8020:	eb00052e 	bl	94e0 <rpi_reboot>

00008024 <PUT32>:
    8024:	e5801000 	str	r1, [r0]
    8028:	e12fff1e 	bx	lr

0000802c <GET32>:
    802c:	e5900000 	ldr	r0, [r0]
    8030:	e12fff1e 	bx	lr

00008034 <BRANCHTO>:
    8034:	e12fff10 	bx	r0

00008038 <test1>:
    8038:	e92d4010 	push	{r4, lr}
    803c:	e24dd010 	sub	sp, sp, #16, 0
    8040:	e59f304c 	ldr	r3, [pc, #76]	; 8094 <test1+0x5c>
    8044:	e58d3004 	str	r3, [sp, #4]
    8048:	e59f3048 	ldr	r3, [pc, #72]	; 8098 <test1+0x60>
    804c:	e58d3008 	str	r3, [sp, #8]
    8050:	e3a03007 	mov	r3, #7, 0
    8054:	e58d300c 	str	r3, [sp, #12]
    8058:	e28d3010 	add	r3, sp, #16, 0
    805c:	e913000e 	ldmdb	r3, {r1, r2, r3}
    8060:	e3a00004 	mov	r0, #4, 0
    8064:	eb0000f6 	bl	8444 <ckalloc>
    8068:	e1a04000 	mov	r4, r0
    806c:	e1a01000 	mov	r1, r0
    8070:	e59f0024 	ldr	r0, [pc, #36]	; 809c <test1+0x64>
    8074:	eb000300 	bl	8c7c <printk>
    8078:	e3a02004 	mov	r2, #4, 0
    807c:	e3a01000 	mov	r1, #0, 0
    8080:	e1a00004 	mov	r0, r4
    8084:	eb0002f6 	bl	8c64 <memset>
    8088:	e2840001 	add	r0, r4, #1, 0
    808c:	e28dd010 	add	sp, sp, #16, 0
    8090:	e8bd8010 	pop	{r4, pc}
    8094:	00009d78 	andeq	r9, r0, r8, ror sp
    8098:	00009e5c 	andeq	r9, r0, ip, asr lr
    809c:	00009d8c 	andeq	r9, r0, ip, lsl #27

000080a0 <notmain>:
    80a0:	e92d4010 	push	{r4, lr}
    80a4:	e59f006c 	ldr	r0, [pc, #108]	; 8118 <notmain+0x78>
    80a8:	eb0002f3 	bl	8c7c <printk>
    80ac:	ebffffe1 	bl	8038 <test1>
    80b0:	e1a01000 	mov	r1, r0
    80b4:	e59f0060 	ldr	r0, [pc, #96]	; 811c <notmain+0x7c>
    80b8:	eb0002ef 	bl	8c7c <printk>
    80bc:	e3a00000 	mov	r0, #0, 0
    80c0:	eb00022b 	bl	8974 <ck_find_leaks>
    80c4:	e3500000 	cmp	r0, #0, 0
    80c8:	1a000006 	bne	80e8 <notmain+0x48>
    80cc:	e3a00001 	mov	r0, #1, 0
    80d0:	eb000227 	bl	8974 <ck_find_leaks>
    80d4:	e3500000 	cmp	r0, #0, 0
    80d8:	0a000008 	beq	8100 <notmain+0x60>
    80dc:	e59f003c 	ldr	r0, [pc, #60]	; 8120 <notmain+0x80>
    80e0:	eb0002e5 	bl	8c7c <printk>
    80e4:	e8bd8010 	pop	{r4, pc}
    80e8:	e3a03017 	mov	r3, #23, 0
    80ec:	e59f2030 	ldr	r2, [pc, #48]	; 8124 <notmain+0x84>
    80f0:	e59f1030 	ldr	r1, [pc, #48]	; 8128 <notmain+0x88>
    80f4:	e59f0030 	ldr	r0, [pc, #48]	; 812c <notmain+0x8c>
    80f8:	eb0002df 	bl	8c7c <printk>
    80fc:	eb0004d1 	bl	9448 <clean_reboot>
    8100:	e3a0301d 	mov	r3, #29, 0
    8104:	e59f2018 	ldr	r2, [pc, #24]	; 8124 <notmain+0x84>
    8108:	e59f1018 	ldr	r1, [pc, #24]	; 8128 <notmain+0x88>
    810c:	e59f001c 	ldr	r0, [pc, #28]	; 8130 <notmain+0x90>
    8110:	eb0002d9 	bl	8c7c <printk>
    8114:	eb0004cb 	bl	9448 <clean_reboot>
    8118:	00009da8 	andeq	r9, r0, r8, lsr #27
    811c:	00009db4 			; <UNDEFINED> instruction: 0x00009db4
    8120:	00009e00 	andeq	r9, r0, r0, lsl #28
    8124:	00009e64 	andeq	r9, r0, r4, ror #28
    8128:	00009d78 	andeq	r9, r0, r8, ror sp
    812c:	00009dd0 	ldrdeq	r9, [r0], -r0
    8130:	00009e28 	andeq	r9, r0, r8, lsr #28

00008134 <list_append>:
    8134:	e59f3058 	ldr	r3, [pc, #88]	; 8194 <list_append+0x60>
    8138:	e5933000 	ldr	r3, [r3]
    813c:	e3530000 	cmp	r3, #0, 0
    8140:	0a000005 	beq	815c <list_append+0x28>
    8144:	e3500000 	cmp	r0, #0, 0
    8148:	0a000007 	beq	816c <list_append+0x38>
    814c:	e59f2040 	ldr	r2, [pc, #64]	; 8194 <list_append+0x60>
    8150:	e5821000 	str	r1, [r2]
    8154:	e5831000 	str	r1, [r3]
    8158:	e12fff1e 	bx	lr
    815c:	e59f3030 	ldr	r3, [pc, #48]	; 8194 <list_append+0x60>
    8160:	e5831004 	str	r1, [r3, #4]
    8164:	e5831000 	str	r1, [r3]
    8168:	e12fff1e 	bx	lr
    816c:	e52de004 	push	{lr}		; (str lr, [sp, #-4]!)
    8170:	e24dd00c 	sub	sp, sp, #12, 0
    8174:	e59f301c 	ldr	r3, [pc, #28]	; 8198 <list_append+0x64>
    8178:	e58d3000 	str	r3, [sp]
    817c:	e3a03025 	mov	r3, #37, 0	; 0x25
    8180:	e59f2014 	ldr	r2, [pc, #20]	; 819c <list_append+0x68>
    8184:	e59f1014 	ldr	r1, [pc, #20]	; 81a0 <list_append+0x6c>
    8188:	e59f0014 	ldr	r0, [pc, #20]	; 81a4 <list_append+0x70>
    818c:	eb0002ba 	bl	8c7c <printk>
    8190:	eb0004ac 	bl	9448 <clean_reboot>
    8194:	0000a638 	andeq	sl, r0, r8, lsr r6
    8198:	00009e8c 	andeq	r9, r0, ip, lsl #29
    819c:	00009f68 	andeq	r9, r0, r8, ror #30
    81a0:	00009e6c 	andeq	r9, r0, ip, ror #28
    81a4:	00009e78 	andeq	r9, r0, r8, ror lr

000081a8 <ck_first_hdr>:
    81a8:	e59f3004 	ldr	r3, [pc, #4]	; 81b4 <ck_first_hdr+0xc>
    81ac:	e5930004 	ldr	r0, [r3, #4]
    81b0:	e12fff1e 	bx	lr
    81b4:	0000a638 	andeq	sl, r0, r8, lsr r6

000081b8 <ck_next_hdr>:
    81b8:	e3500000 	cmp	r0, #0, 0
    81bc:	012fff1e 	bxeq	lr
    81c0:	e5900000 	ldr	r0, [r0]
    81c4:	e12fff1e 	bx	lr

000081c8 <list_remove>:
    81c8:	e92d4030 	push	{r4, r5, lr}
    81cc:	e24dd00c 	sub	sp, sp, #12, 0
    81d0:	e3500000 	cmp	r0, #0, 0
    81d4:	0a00000c 	beq	820c <list_remove+0x44>
    81d8:	e1a04001 	mov	r4, r1
    81dc:	e1500001 	cmp	r0, r1
    81e0:	0a000007 	beq	8204 <list_remove+0x3c>
    81e4:	e1a05000 	mov	r5, r0
    81e8:	ebfffff2 	bl	81b8 <ck_next_hdr>
    81ec:	e3500000 	cmp	r0, #0, 0
    81f0:	0a00000d 	beq	822c <list_remove+0x64>
    81f4:	e1540000 	cmp	r4, r0
    81f8:	1afffff9 	bne	81e4 <list_remove+0x1c>
    81fc:	e5903000 	ldr	r3, [r0]
    8200:	e5853000 	str	r3, [r5]
    8204:	e28dd00c 	add	sp, sp, #12, 0
    8208:	e8bd8030 	pop	{r4, r5, pc}
    820c:	e59f3034 	ldr	r3, [pc, #52]	; 8248 <list_remove+0x80>
    8210:	e58d3000 	str	r3, [sp]
    8214:	e3a0300b 	mov	r3, #11, 0
    8218:	e59f202c 	ldr	r2, [pc, #44]	; 824c <list_remove+0x84>
    821c:	e59f102c 	ldr	r1, [pc, #44]	; 8250 <list_remove+0x88>
    8220:	e59f002c 	ldr	r0, [pc, #44]	; 8254 <list_remove+0x8c>
    8224:	eb000294 	bl	8c7c <printk>
    8228:	eb000486 	bl	9448 <clean_reboot>
    822c:	e58d4000 	str	r4, [sp]
    8230:	e3a0301b 	mov	r3, #27, 0
    8234:	e59f2010 	ldr	r2, [pc, #16]	; 824c <list_remove+0x84>
    8238:	e59f1010 	ldr	r1, [pc, #16]	; 8250 <list_remove+0x88>
    823c:	e59f0014 	ldr	r0, [pc, #20]	; 8258 <list_remove+0x90>
    8240:	eb00028d 	bl	8c7c <printk>
    8244:	eb00047f 	bl	9448 <clean_reboot>
    8248:	00009e8c 	andeq	r9, r0, ip, lsl #29
    824c:	00009f74 	andeq	r9, r0, r4, ror pc
    8250:	00009e6c 	andeq	r9, r0, ip, ror #28
    8254:	00009e78 	andeq	r9, r0, r8, ror lr
    8258:	00009e90 	muleq	r0, r0, lr

0000825c <ck_hdr_start>:
    825c:	e2800024 	add	r0, r0, #36, 0	; 0x24
    8260:	e12fff1e 	bx	lr

00008264 <ck_hdr_end>:
    8264:	e92d4010 	push	{r4, lr}
    8268:	e1a04000 	mov	r4, r0
    826c:	ebfffffa 	bl	825c <ck_hdr_start>
    8270:	e5943004 	ldr	r3, [r4, #4]
    8274:	e0800003 	add	r0, r0, r3
    8278:	e8bd8010 	pop	{r4, pc}

0000827c <kr_first_hdr>:
    827c:	e92d4010 	push	{r4, lr}
    8280:	ebffffc8 	bl	81a8 <ck_first_hdr>
    8284:	e2800024 	add	r0, r0, #36, 0	; 0x24
    8288:	e8bd8010 	pop	{r4, pc}

0000828c <kr_next_hdr>:
    828c:	e3500000 	cmp	r0, #0, 0
    8290:	012fff1e 	bxeq	lr
    8294:	e5900000 	ldr	r0, [r0]
    8298:	e2800024 	add	r0, r0, #36, 0	; 0x24
    829c:	e12fff1e 	bx	lr

000082a0 <ck_ptr_in_block>:
    82a0:	e5903004 	ldr	r3, [r0, #4]
    82a4:	e2833024 	add	r3, r3, #36, 0	; 0x24
    82a8:	e0803003 	add	r3, r0, r3
    82ac:	e1530001 	cmp	r3, r1
    82b0:	3a000004 	bcc	82c8 <ck_ptr_in_block+0x28>
    82b4:	e2800024 	add	r0, r0, #36, 0	; 0x24
    82b8:	e1500001 	cmp	r0, r1
    82bc:	9a000003 	bls	82d0 <ck_ptr_in_block+0x30>
    82c0:	e3a00000 	mov	r0, #0, 0
    82c4:	e12fff1e 	bx	lr
    82c8:	e3a00000 	mov	r0, #0, 0
    82cc:	e12fff1e 	bx	lr
    82d0:	e3a00001 	mov	r0, #1, 0
    82d4:	e12fff1e 	bx	lr

000082d8 <ck_ptr_is_alloced>:
    82d8:	e92d4070 	push	{r4, r5, r6, lr}
    82dc:	e1a05000 	mov	r5, r0
    82e0:	ebffffb0 	bl	81a8 <ck_first_hdr>
    82e4:	e1a04000 	mov	r4, r0
    82e8:	ea000002 	b	82f8 <ck_ptr_is_alloced+0x20>
    82ec:	e1a00004 	mov	r0, r4
    82f0:	ebffffb0 	bl	81b8 <ck_next_hdr>
    82f4:	e1a04000 	mov	r4, r0
    82f8:	e3540000 	cmp	r4, #0, 0
    82fc:	0a000007 	beq	8320 <ck_ptr_is_alloced+0x48>
    8300:	e1a01005 	mov	r1, r5
    8304:	e1a00004 	mov	r0, r4
    8308:	ebffffe4 	bl	82a0 <ck_ptr_in_block>
    830c:	e3500000 	cmp	r0, #0, 0
    8310:	0afffff5 	beq	82ec <ck_ptr_is_alloced+0x14>
    8314:	e5943008 	ldr	r3, [r4, #8]
    8318:	e353000b 	cmp	r3, #11, 0
    831c:	1afffff2 	bne	82ec <ck_ptr_is_alloced+0x14>
    8320:	e1a00004 	mov	r0, r4
    8324:	e8bd8070 	pop	{r4, r5, r6, pc}

00008328 <ckfree>:
    8328:	e92d4030 	push	{r4, r5, lr}
    832c:	e24dd01c 	sub	sp, sp, #28, 0
    8330:	e1a04000 	mov	r4, r0
    8334:	e28d0018 	add	r0, sp, #24, 0
    8338:	e900000e 	stmdb	r0, {r1, r2, r3}
    833c:	e514301c 	ldr	r3, [r4, #-28]	; 0xffffffe4
    8340:	e353000b 	cmp	r3, #11, 0
    8344:	1a00001a 	bne	83b4 <ckfree+0x8c>
    8348:	e2445024 	sub	r5, r4, #36, 0	; 0x24
    834c:	e59d3014 	ldr	r3, [sp, #20]
    8350:	e59d2010 	ldr	r2, [sp, #16]
    8354:	e59d100c 	ldr	r1, [sp, #12]
    8358:	e59f00bc 	ldr	r0, [pc, #188]	; 841c <ckfree+0xf4>
    835c:	eb000246 	bl	8c7c <printk>
    8360:	e1a01004 	mov	r1, r4
    8364:	e59f00b4 	ldr	r0, [pc, #180]	; 8420 <ckfree+0xf8>
    8368:	eb000243 	bl	8c7c <printk>
    836c:	e1a00004 	mov	r0, r4
    8370:	ebffffd8 	bl	82d8 <ck_ptr_is_alloced>
    8374:	e3500000 	cmp	r0, #0, 0
    8378:	0a000017 	beq	83dc <ckfree+0xb4>
    837c:	e3a0300c 	mov	r3, #12, 0
    8380:	e504301c 	str	r3, [r4, #-28]	; 0xffffffe4
    8384:	e1a01005 	mov	r1, r5
    8388:	e59f3094 	ldr	r3, [pc, #148]	; 8424 <ckfree+0xfc>
    838c:	e5930004 	ldr	r0, [r3, #4]
    8390:	ebffff8c 	bl	81c8 <list_remove>
    8394:	e1a00004 	mov	r0, r4
    8398:	ebffffce 	bl	82d8 <ck_ptr_is_alloced>
    839c:	e3500000 	cmp	r0, #0, 0
    83a0:	1a000015 	bne	83fc <ckfree+0xd4>
    83a4:	e1a00005 	mov	r0, r5
    83a8:	eb0001c2 	bl	8ab8 <kr_free>
    83ac:	e28dd01c 	add	sp, sp, #28, 0
    83b0:	e8bd8030 	pop	{r4, r5, pc}
    83b4:	e59d3014 	ldr	r3, [sp, #20]
    83b8:	e59d2010 	ldr	r2, [sp, #16]
    83bc:	e59d100c 	ldr	r1, [sp, #12]
    83c0:	e59f0060 	ldr	r0, [pc, #96]	; 8428 <ckfree+0x100>
    83c4:	eb00022c 	bl	8c7c <printk>
    83c8:	e514201c 	ldr	r2, [r4, #-28]	; 0xffffffe4
    83cc:	e1a01004 	mov	r1, r4
    83d0:	e59f0054 	ldr	r0, [pc, #84]	; 842c <ckfree+0x104>
    83d4:	eb000228 	bl	8c7c <printk>
    83d8:	eb00041a 	bl	9448 <clean_reboot>
    83dc:	e59f304c 	ldr	r3, [pc, #76]	; 8430 <ckfree+0x108>
    83e0:	e58d3000 	str	r3, [sp]
    83e4:	e3a0306d 	mov	r3, #109, 0	; 0x6d
    83e8:	e59f2044 	ldr	r2, [pc, #68]	; 8434 <ckfree+0x10c>
    83ec:	e59f1044 	ldr	r1, [pc, #68]	; 8438 <ckfree+0x110>
    83f0:	e59f0044 	ldr	r0, [pc, #68]	; 843c <ckfree+0x114>
    83f4:	eb000220 	bl	8c7c <printk>
    83f8:	eb000412 	bl	9448 <clean_reboot>
    83fc:	e59f303c 	ldr	r3, [pc, #60]	; 8440 <ckfree+0x118>
    8400:	e58d3000 	str	r3, [sp]
    8404:	e3a03070 	mov	r3, #112, 0	; 0x70
    8408:	e59f2024 	ldr	r2, [pc, #36]	; 8434 <ckfree+0x10c>
    840c:	e59f1024 	ldr	r1, [pc, #36]	; 8438 <ckfree+0x110>
    8410:	e59f0024 	ldr	r0, [pc, #36]	; 843c <ckfree+0x114>
    8414:	eb000218 	bl	8c7c <printk>
    8418:	eb00040a 	bl	9448 <clean_reboot>
    841c:	00009f04 	andeq	r9, r0, r4, lsl #30
    8420:	00009f10 	andeq	r9, r0, r0, lsl pc
    8424:	0000a638 	andeq	sl, r0, r8, lsr r6
    8428:	00009ebc 			; <UNDEFINED> instruction: 0x00009ebc
    842c:	00009ed4 	ldrdeq	r9, [r0], -r4
    8430:	00009f1c 	andeq	r9, r0, ip, lsl pc
    8434:	00009f80 	andeq	r9, r0, r0, lsl #31
    8438:	00009e6c 	andeq	r9, r0, ip, ror #28
    843c:	00009e78 	andeq	r9, r0, r8, ror lr
    8440:	00009f3c 	andeq	r9, r0, ip, lsr pc

00008444 <ckalloc>:
    8444:	e92d4070 	push	{r4, r5, r6, lr}
    8448:	e24dd010 	sub	sp, sp, #16, 0
    844c:	e1a06000 	mov	r6, r0
    8450:	e28d5004 	add	r5, sp, #4, 0
    8454:	e885000e 	stm	r5, {r1, r2, r3}
    8458:	e2800024 	add	r0, r0, #36, 0	; 0x24
    845c:	eb0001d5 	bl	8bb8 <kr_malloc>
    8460:	e1a04000 	mov	r4, r0
    8464:	e3a02024 	mov	r2, #36, 0	; 0x24
    8468:	e3a01000 	mov	r1, #0, 0
    846c:	eb0001fc 	bl	8c64 <memset>
    8470:	e5846004 	str	r6, [r4, #4]
    8474:	e3a0300b 	mov	r3, #11, 0
    8478:	e5843008 	str	r3, [r4, #8]
    847c:	e284300c 	add	r3, r4, #12, 0
    8480:	e8950007 	ldm	r5, {r0, r1, r2}
    8484:	e8830007 	stm	r3, {r0, r1, r2}
    8488:	e3a03000 	mov	r3, #0, 0
    848c:	e5843000 	str	r3, [r4]
    8490:	e1c432b0 	strh	r3, [r4, #32]
    8494:	e59d300c 	ldr	r3, [sp, #12]
    8498:	e59d2008 	ldr	r2, [sp, #8]
    849c:	e59d1004 	ldr	r1, [sp, #4]
    84a0:	e59f002c 	ldr	r0, [pc, #44]	; 84d4 <ckalloc+0x90>
    84a4:	eb0001f4 	bl	8c7c <printk>
    84a8:	e2845024 	add	r5, r4, #36, 0	; 0x24
    84ac:	e1a01005 	mov	r1, r5
    84b0:	e59f0020 	ldr	r0, [pc, #32]	; 84d8 <ckalloc+0x94>
    84b4:	eb0001f0 	bl	8c7c <printk>
    84b8:	e1a01004 	mov	r1, r4
    84bc:	e59f3018 	ldr	r3, [pc, #24]	; 84dc <ckalloc+0x98>
    84c0:	e5930004 	ldr	r0, [r3, #4]
    84c4:	ebffff1a 	bl	8134 <list_append>
    84c8:	e1a00005 	mov	r0, r5
    84cc:	e28dd010 	add	sp, sp, #16, 0
    84d0:	e8bd8070 	pop	{r4, r5, r6, pc}
    84d4:	00009f04 	andeq	r9, r0, r4, lsl #30
    84d8:	00009f58 	andeq	r9, r0, r8, asr pc
    84dc:	0000a638 	andeq	sl, r0, r8, lsr r6

000084e0 <in_heap>:
    84e0:	e59f3030 	ldr	r3, [pc, #48]	; 8518 <in_heap+0x38>
    84e4:	e5933000 	ldr	r3, [r3]
    84e8:	e1530000 	cmp	r3, r0
    84ec:	8a000005 	bhi	8508 <in_heap+0x28>
    84f0:	e59f3020 	ldr	r3, [pc, #32]	; 8518 <in_heap+0x38>
    84f4:	e5933004 	ldr	r3, [r3, #4]
    84f8:	e1530000 	cmp	r3, r0
    84fc:	9a000003 	bls	8510 <in_heap+0x30>
    8500:	e3a00001 	mov	r0, #1, 0
    8504:	e12fff1e 	bx	lr
    8508:	e3a00000 	mov	r0, #0, 0
    850c:	e12fff1e 	bx	lr
    8510:	e3a00000 	mov	r0, #0, 0
    8514:	e12fff1e 	bx	lr
    8518:	0000a640 	andeq	sl, r0, r0, asr #12

0000851c <sweep_leak>:
    851c:	e92d41f0 	push	{r4, r5, r6, r7, r8, lr}
    8520:	e59f00d8 	ldr	r0, [pc, #216]	; 8600 <sweep_leak+0xe4>
    8524:	eb0001d4 	bl	8c7c <printk>
    8528:	e59f00d4 	ldr	r0, [pc, #212]	; 8604 <sweep_leak+0xe8>
    852c:	eb0001d2 	bl	8c7c <printk>
    8530:	ebffff1c 	bl	81a8 <ck_first_hdr>
    8534:	e1a04000 	mov	r4, r0
    8538:	e3a06000 	mov	r6, #0, 0
    853c:	e1a07006 	mov	r7, r6
    8540:	e1a05006 	mov	r5, r6
    8544:	ea00000c 	b	857c <sweep_leak+0x60>
    8548:	e3530000 	cmp	r3, #0, 0
    854c:	1a000004 	bne	8564 <sweep_leak+0x48>
    8550:	e594301c 	ldr	r3, [r4, #28]
    8554:	e3530000 	cmp	r3, #0, 0
    8558:	02877001 	addeq	r7, r7, #1, 0
    855c:	03a03001 	moveq	r3, #1, 0
    8560:	01c432b2 	strheq	r3, [r4, #34]	; 0x22
    8564:	e1a01004 	mov	r1, r4
    8568:	e59f0098 	ldr	r0, [pc, #152]	; 8608 <sweep_leak+0xec>
    856c:	eb0001c2 	bl	8c7c <printk>
    8570:	e1a00004 	mov	r0, r4
    8574:	ebffff0f 	bl	81b8 <ck_next_hdr>
    8578:	e1a04000 	mov	r4, r0
    857c:	e3540000 	cmp	r4, #0, 0
    8580:	0a00000e 	beq	85c0 <sweep_leak+0xa4>
    8584:	e2855001 	add	r5, r5, #1, 0
    8588:	e5943008 	ldr	r3, [r4, #8]
    858c:	e353000b 	cmp	r3, #11, 0
    8590:	1afffff6 	bne	8570 <sweep_leak+0x54>
    8594:	e5943020 	ldr	r3, [r4, #32]
    8598:	e3530000 	cmp	r3, #0, 0
    859c:	1afffff3 	bne	8570 <sweep_leak+0x54>
    85a0:	e5943018 	ldr	r3, [r4, #24]
    85a4:	e3530000 	cmp	r3, #0, 0
    85a8:	1affffe6 	bne	8548 <sweep_leak+0x2c>
    85ac:	e594201c 	ldr	r2, [r4, #28]
    85b0:	e3520000 	cmp	r2, #0, 0
    85b4:	0affffe3 	beq	8548 <sweep_leak+0x2c>
    85b8:	e2866001 	add	r6, r6, #1, 0
    85bc:	eaffffe8 	b	8564 <sweep_leak+0x48>
    85c0:	e1a01005 	mov	r1, r5
    85c4:	e59f0040 	ldr	r0, [pc, #64]	; 860c <sweep_leak+0xf0>
    85c8:	eb0001ab 	bl	8c7c <printk>
    85cc:	e1973006 	orrs	r3, r7, r6
    85d0:	1a000005 	bne	85ec <sweep_leak+0xd0>
    85d4:	e59f0034 	ldr	r0, [pc, #52]	; 8610 <sweep_leak+0xf4>
    85d8:	eb0001a7 	bl	8c7c <printk>
    85dc:	e59f0030 	ldr	r0, [pc, #48]	; 8614 <sweep_leak+0xf8>
    85e0:	eb0001a5 	bl	8c7c <printk>
    85e4:	e0870006 	add	r0, r7, r6
    85e8:	e8bd81f0 	pop	{r4, r5, r6, r7, r8, pc}
    85ec:	e1a02006 	mov	r2, r6
    85f0:	e1a01007 	mov	r1, r7
    85f4:	e59f001c 	ldr	r0, [pc, #28]	; 8618 <sweep_leak+0xfc>
    85f8:	eb00019f 	bl	8c7c <printk>
    85fc:	eafffff6 	b	85dc <sweep_leak+0xc0>
    8600:	00009f88 	andeq	r9, r0, r8, lsl #31
    8604:	00009fc4 	andeq	r9, r0, r4, asr #31
    8608:	00009fdc 	ldrdeq	r9, [r0], -ip
    860c:	00009ffc 	strdeq	r9, [r0], -ip
    8610:	0000a01c 	andeq	sl, r0, ip, lsl r0
    8614:	0000a074 	andeq	sl, r0, r4, ror r0
    8618:	0000a044 	andeq	sl, r0, r4, asr #32

0000861c <sweep_free>:
    861c:	e92d41f0 	push	{r4, r5, r6, r7, r8, lr}
    8620:	e59f009c 	ldr	r0, [pc, #156]	; 86c4 <sweep_free+0xa8>
    8624:	eb000194 	bl	8c7c <printk>
    8628:	e59f0098 	ldr	r0, [pc, #152]	; 86c8 <sweep_free+0xac>
    862c:	eb000192 	bl	8c7c <printk>
    8630:	ebfffedc 	bl	81a8 <ck_first_hdr>
    8634:	e1a04000 	mov	r4, r0
    8638:	e3a06000 	mov	r6, #0, 0
    863c:	e1a07006 	mov	r7, r6
    8640:	e1a05006 	mov	r5, r6
    8644:	ea000002 	b	8654 <sweep_free+0x38>
    8648:	e1a00004 	mov	r0, r4
    864c:	ebfffed9 	bl	81b8 <ck_next_hdr>
    8650:	e1a04000 	mov	r4, r0
    8654:	e3540000 	cmp	r4, #0, 0
    8658:	0a000012 	beq	86a8 <sweep_free+0x8c>
    865c:	e2855001 	add	r5, r5, #1, 0
    8660:	e5943008 	ldr	r3, [r4, #8]
    8664:	e353000b 	cmp	r3, #11, 0
    8668:	1afffff6 	bne	8648 <sweep_free+0x2c>
    866c:	e1d432b0 	ldrh	r3, [r4, #32]
    8670:	e3530001 	cmp	r3, #1, 0
    8674:	0afffff3 	beq	8648 <sweep_free+0x2c>
    8678:	e1d432b2 	ldrh	r3, [r4, #34]	; 0x22
    867c:	e3530000 	cmp	r3, #0, 0
    8680:	1afffff0 	bne	8648 <sweep_free+0x2c>
    8684:	e3a0300c 	mov	r3, #12, 0
    8688:	e5843008 	str	r3, [r4, #8]
    868c:	e2877001 	add	r7, r7, #1, 0
    8690:	e5943004 	ldr	r3, [r4, #4]
    8694:	e0866003 	add	r6, r6, r3
    8698:	e1a01004 	mov	r1, r4
    869c:	e59f0028 	ldr	r0, [pc, #40]	; 86cc <sweep_free+0xb0>
    86a0:	eb000175 	bl	8c7c <printk>
    86a4:	eaffffe7 	b	8648 <sweep_free+0x2c>
    86a8:	e1a03006 	mov	r3, r6
    86ac:	e1a02007 	mov	r2, r7
    86b0:	e1a01005 	mov	r1, r5
    86b4:	e59f0014 	ldr	r0, [pc, #20]	; 86d0 <sweep_free+0xb4>
    86b8:	eb00016f 	bl	8c7c <printk>
    86bc:	e1a00006 	mov	r0, r6
    86c0:	e8bd81f0 	pop	{r4, r5, r6, r7, r8, pc}
    86c4:	00009f88 	andeq	r9, r0, r8, lsl #31
    86c8:	0000a0b0 	strheq	sl, [r0], -r0
    86cc:	0000a0c0 	andeq	sl, r0, r0, asr #1
    86d0:	0000a0ec 	andeq	sl, r0, ip, ror #1

000086d4 <is_ptr>:
    86d4:	e92d4010 	push	{r4, lr}
    86d8:	e1a04000 	mov	r4, r0
    86dc:	ebffff7f 	bl	84e0 <in_heap>
    86e0:	e3500000 	cmp	r0, #0, 0
    86e4:	0a000002 	beq	86f4 <is_ptr+0x20>
    86e8:	e1a00004 	mov	r0, r4
    86ec:	ebfffef9 	bl	82d8 <ck_ptr_is_alloced>
    86f0:	e8bd8010 	pop	{r4, pc}
    86f4:	e3a00000 	mov	r0, #0, 0
    86f8:	e8bd8010 	pop	{r4, pc}

000086fc <mark>:
    86fc:	e92d41f0 	push	{r4, r5, r6, r7, r8, lr}
    8700:	e24dd008 	sub	sp, sp, #8, 0
    8704:	e1500001 	cmp	r0, r1
    8708:	2a000007 	bcs	872c <mark+0x30>
    870c:	e1a07000 	mov	r7, r0
    8710:	e3100003 	tst	r0, #3, 0
    8714:	1a00000c 	bne	874c <mark+0x50>
    8718:	e2115003 	ands	r5, r1, #3, 0
    871c:	1a000012 	bne	876c <mark+0x70>
    8720:	e0411000 	sub	r1, r1, r0
    8724:	e1a06141 	asr	r6, r1, #2
    8728:	ea00001f 	b	87ac <mark+0xb0>
    872c:	e59f30e4 	ldr	r3, [pc, #228]	; 8818 <mark+0x11c>
    8730:	e58d3000 	str	r3, [sp]
    8734:	e3a0304c 	mov	r3, #76, 0	; 0x4c
    8738:	e59f20dc 	ldr	r2, [pc, #220]	; 881c <mark+0x120>
    873c:	e59f10dc 	ldr	r1, [pc, #220]	; 8820 <mark+0x124>
    8740:	e59f00dc 	ldr	r0, [pc, #220]	; 8824 <mark+0x128>
    8744:	eb00014c 	bl	8c7c <printk>
    8748:	eb00033e 	bl	9448 <clean_reboot>
    874c:	e59f30d4 	ldr	r3, [pc, #212]	; 8828 <mark+0x12c>
    8750:	e58d3000 	str	r3, [sp]
    8754:	e3a0304e 	mov	r3, #78, 0	; 0x4e
    8758:	e59f20bc 	ldr	r2, [pc, #188]	; 881c <mark+0x120>
    875c:	e59f10bc 	ldr	r1, [pc, #188]	; 8820 <mark+0x124>
    8760:	e59f00bc 	ldr	r0, [pc, #188]	; 8824 <mark+0x128>
    8764:	eb000144 	bl	8c7c <printk>
    8768:	eb000336 	bl	9448 <clean_reboot>
    876c:	e59f30b8 	ldr	r3, [pc, #184]	; 882c <mark+0x130>
    8770:	e58d3000 	str	r3, [sp]
    8774:	e3a0304f 	mov	r3, #79, 0	; 0x4f
    8778:	e59f209c 	ldr	r2, [pc, #156]	; 881c <mark+0x120>
    877c:	e59f109c 	ldr	r1, [pc, #156]	; 8820 <mark+0x124>
    8780:	e59f009c 	ldr	r0, [pc, #156]	; 8824 <mark+0x128>
    8784:	eb00013c 	bl	8c7c <printk>
    8788:	eb00032e 	bl	9448 <clean_reboot>
    878c:	e7973008 	ldr	r3, [r7, r8]
    8790:	e1530004 	cmp	r3, r4
    8794:	0a000019 	beq	8800 <mark+0x104>
    8798:	e2840024 	add	r0, r4, #36, 0	; 0x24
    879c:	e5941004 	ldr	r1, [r4, #4]
    87a0:	e0801001 	add	r1, r0, r1
    87a4:	ebffffd4 	bl	86fc <mark>
    87a8:	e2855001 	add	r5, r5, #1, 0
    87ac:	e1550006 	cmp	r5, r6
    87b0:	2a000016 	bcs	8810 <mark+0x114>
    87b4:	e1a08105 	lsl	r8, r5, #2
    87b8:	e7970105 	ldr	r0, [r7, r5, lsl #2]
    87bc:	ebffffc4 	bl	86d4 <is_ptr>
    87c0:	e2504000 	subs	r4, r0, #0, 0
    87c4:	0afffff7 	beq	87a8 <mark+0xac>
    87c8:	e1d432b0 	ldrh	r3, [r4, #32]
    87cc:	e3530000 	cmp	r3, #0, 0
    87d0:	1afffff4 	bne	87a8 <mark+0xac>
    87d4:	e3a03001 	mov	r3, #1, 0
    87d8:	e1c432b0 	strh	r3, [r4, #32]
    87dc:	e7971008 	ldr	r1, [r7, r8]
    87e0:	e1a00004 	mov	r0, r4
    87e4:	ebfffead 	bl	82a0 <ck_ptr_in_block>
    87e8:	e3500000 	cmp	r0, #0, 0
    87ec:	0affffe6 	beq	878c <mark+0x90>
    87f0:	e594301c 	ldr	r3, [r4, #28]
    87f4:	e2833001 	add	r3, r3, #1, 0
    87f8:	e584301c 	str	r3, [r4, #28]
    87fc:	eaffffe5 	b	8798 <mark+0x9c>
    8800:	e5943018 	ldr	r3, [r4, #24]
    8804:	e2833001 	add	r3, r3, #1, 0
    8808:	e5843018 	str	r3, [r4, #24]
    880c:	eaffffe1 	b	8798 <mark+0x9c>
    8810:	e28dd008 	add	sp, sp, #8, 0
    8814:	e8bd81f0 	pop	{r4, r5, r6, r7, r8, pc}
    8818:	0000a128 	andeq	sl, r0, r8, lsr #2
    881c:	0000a270 	andeq	sl, r0, r0, ror r2
    8820:	0000a120 	andeq	sl, r0, r0, lsr #2
    8824:	00009e78 	andeq	r9, r0, r8, ror lr
    8828:	0000a12c 	andeq	sl, r0, ip, lsr #2
    882c:	0000a13c 	andeq	sl, r0, ip, lsr r1

00008830 <mark_all>:
    8830:	e52de004 	push	{lr}		; (str lr, [sp, #-4]!)
    8834:	e24dd044 	sub	sp, sp, #68, 0	; 0x44
    8838:	ebfffe5a 	bl	81a8 <ck_first_hdr>
    883c:	e3500000 	cmp	r0, #0, 0
    8840:	0a000005 	beq	885c <mark_all+0x2c>
    8844:	e3a03000 	mov	r3, #0, 0
    8848:	e580301c 	str	r3, [r0, #28]
    884c:	e5803018 	str	r3, [r0, #24]
    8850:	e1c032b0 	strh	r3, [r0, #32]
    8854:	ebfffe57 	bl	81b8 <ck_next_hdr>
    8858:	eafffff7 	b	883c <mark_all+0xc>
    885c:	e1a0000d 	mov	r0, sp
    8860:	eb000083 	bl	8a74 <dump_regs>
    8864:	e3a03000 	mov	r3, #0, 0
    8868:	e58d3000 	str	r3, [sp]
    886c:	e58d3004 	str	r3, [sp, #4]
    8870:	e58d3008 	str	r3, [sp, #8]
    8874:	e58d300c 	str	r3, [sp, #12]
    8878:	e28d1040 	add	r1, sp, #64, 0	; 0x40
    887c:	e1a0000d 	mov	r0, sp
    8880:	ebffff9d 	bl	86fc <mark>
    8884:	e3a01302 	mov	r1, #134217728	; 0x8000000
    8888:	e59d0034 	ldr	r0, [sp, #52]	; 0x34
    888c:	ebffff9a 	bl	86fc <mark>
    8890:	e59f1018 	ldr	r1, [pc, #24]	; 88b0 <mark_all+0x80>
    8894:	e59f0018 	ldr	r0, [pc, #24]	; 88b4 <mark_all+0x84>
    8898:	ebffff97 	bl	86fc <mark>
    889c:	e59f1014 	ldr	r1, [pc, #20]	; 88b8 <mark_all+0x88>
    88a0:	e59f0014 	ldr	r0, [pc, #20]	; 88bc <mark_all+0x8c>
    88a4:	ebffff94 	bl	86fc <mark>
    88a8:	e28dd044 	add	sp, sp, #68, 0	; 0x44
    88ac:	e49df004 	pop	{pc}		; (ldr pc, [sp], #4)
    88b0:	0000aa68 	andeq	sl, r0, r8, ror #20
    88b4:	0000a638 	andeq	sl, r0, r8, lsr r6
    88b8:	0000a634 	andeq	sl, r0, r4, lsr r6
    88bc:	0000a620 	andeq	sl, r0, r0, lsr #12

000088c0 <sbrk>:
    88c0:	e92d4030 	push	{r4, r5, lr}
    88c4:	e24dd00c 	sub	sp, sp, #12, 0
    88c8:	e1a04000 	mov	r4, r0
    88cc:	e59f0084 	ldr	r0, [pc, #132]	; 8958 <sbrk+0x98>
    88d0:	eb0000e9 	bl	8c7c <printk>
    88d4:	e3540000 	cmp	r4, #0, 0
    88d8:	da000010 	ble	8920 <sbrk+0x60>
    88dc:	e59f3078 	ldr	r3, [pc, #120]	; 895c <sbrk+0x9c>
    88e0:	e5933008 	ldr	r3, [r3, #8]
    88e4:	e3530000 	cmp	r3, #0, 0
    88e8:	1a000014 	bne	8940 <sbrk+0x80>
    88ec:	e59f5068 	ldr	r5, [pc, #104]	; 895c <sbrk+0x9c>
    88f0:	e3a00601 	mov	r0, #1048576	; 0x100000
    88f4:	e5850000 	str	r0, [r5]
    88f8:	e3a03602 	mov	r3, #2097152	; 0x200000
    88fc:	e5853004 	str	r3, [r5, #4]
    8900:	e1a01000 	mov	r1, r0
    8904:	eb0003b3 	bl	97d8 <kmalloc_init_set_start>
    8908:	e3a03001 	mov	r3, #1, 0
    890c:	e5853008 	str	r3, [r5, #8]
    8910:	e1a00004 	mov	r0, r4
    8914:	eb000412 	bl	9964 <kmalloc>
    8918:	e28dd00c 	add	sp, sp, #12, 0
    891c:	e8bd8030 	pop	{r4, r5, pc}
    8920:	e59f3038 	ldr	r3, [pc, #56]	; 8960 <sbrk+0xa0>
    8924:	e58d3000 	str	r3, [sp]
    8928:	e3a03015 	mov	r3, #21, 0
    892c:	e59f2030 	ldr	r2, [pc, #48]	; 8964 <sbrk+0xa4>
    8930:	e59f1030 	ldr	r1, [pc, #48]	; 8968 <sbrk+0xa8>
    8934:	e59f0030 	ldr	r0, [pc, #48]	; 896c <sbrk+0xac>
    8938:	eb0000cf 	bl	8c7c <printk>
    893c:	eb0002c1 	bl	9448 <clean_reboot>
    8940:	e3a03017 	mov	r3, #23, 0
    8944:	e59f2018 	ldr	r2, [pc, #24]	; 8964 <sbrk+0xa4>
    8948:	e59f1018 	ldr	r1, [pc, #24]	; 8968 <sbrk+0xa8>
    894c:	e59f001c 	ldr	r0, [pc, #28]	; 8970 <sbrk+0xb0>
    8950:	eb0000c9 	bl	8c7c <printk>
    8954:	eb0002bb 	bl	9448 <clean_reboot>
    8958:	0000a14c 	andeq	sl, r0, ip, asr #2
    895c:	0000a640 	andeq	sl, r0, r0, asr #12
    8960:	0000a15c 	andeq	sl, r0, ip, asr r1
    8964:	0000a278 	andeq	sl, r0, r8, ror r2
    8968:	0000a120 	andeq	sl, r0, r0, lsr #2
    896c:	00009e78 	andeq	r9, r0, r8, ror lr
    8970:	0000a16c 	andeq	sl, r0, ip, ror #2

00008974 <ck_find_leaks>:
    8974:	e92d4010 	push	{r4, lr}
    8978:	e1a04000 	mov	r4, r0
    897c:	e59f0018 	ldr	r0, [pc, #24]	; 899c <ck_find_leaks+0x28>
    8980:	eb0000bd 	bl	8c7c <printk>
    8984:	ebffffa9 	bl	8830 <mark_all>
    8988:	e59f0010 	ldr	r0, [pc, #16]	; 89a0 <ck_find_leaks+0x2c>
    898c:	eb0000ba 	bl	8c7c <printk>
    8990:	e1a00004 	mov	r0, r4
    8994:	ebfffee0 	bl	851c <sweep_leak>
    8998:	e8bd8010 	pop	{r4, pc}
    899c:	0000a18c 	andeq	sl, r0, ip, lsl #3
    89a0:	0000a1a0 	andeq	sl, r0, r0, lsr #3

000089a4 <check_no_leak>:
    89a4:	e92d4010 	push	{r4, lr}
    89a8:	e3a00001 	mov	r0, #1, 0
    89ac:	ebfffff0 	bl	8974 <ck_find_leaks>
    89b0:	e3500000 	cmp	r0, #0, 0
    89b4:	1a000002 	bne	89c4 <check_no_leak+0x20>
    89b8:	e59f001c 	ldr	r0, [pc, #28]	; 89dc <check_no_leak+0x38>
    89bc:	eb0000ae 	bl	8c7c <printk>
    89c0:	e8bd8010 	pop	{r4, pc}
    89c4:	e3a030c9 	mov	r3, #201, 0	; 0xc9
    89c8:	e59f2010 	ldr	r2, [pc, #16]	; 89e0 <check_no_leak+0x3c>
    89cc:	e59f1010 	ldr	r1, [pc, #16]	; 89e4 <check_no_leak+0x40>
    89d0:	e59f0010 	ldr	r0, [pc, #16]	; 89e8 <check_no_leak+0x44>
    89d4:	eb0000a8 	bl	8c7c <printk>
    89d8:	eb00029a 	bl	9448 <clean_reboot>
    89dc:	0000a1d4 	ldrdeq	sl, [r0], -r4
    89e0:	0000a280 	andeq	sl, r0, r0, lsl #5
    89e4:	0000a120 	andeq	sl, r0, r0, lsr #2
    89e8:	0000a1a8 	andeq	sl, r0, r8, lsr #3

000089ec <check_should_leak>:
    89ec:	e92d4010 	push	{r4, lr}
    89f0:	e3a00001 	mov	r0, #1, 0
    89f4:	ebffffde 	bl	8974 <ck_find_leaks>
    89f8:	e2504000 	subs	r4, r0, #0, 0
    89fc:	0a000004 	beq	8a14 <check_should_leak+0x28>
    8a00:	e1a01004 	mov	r1, r4
    8a04:	e59f0020 	ldr	r0, [pc, #32]	; 8a2c <check_should_leak+0x40>
    8a08:	eb00009b 	bl	8c7c <printk>
    8a0c:	e1a00004 	mov	r0, r4
    8a10:	e8bd8010 	pop	{r4, pc}
    8a14:	e3a030d7 	mov	r3, #215, 0	; 0xd7
    8a18:	e59f2010 	ldr	r2, [pc, #16]	; 8a30 <check_should_leak+0x44>
    8a1c:	e59f1010 	ldr	r1, [pc, #16]	; 8a34 <check_should_leak+0x48>
    8a20:	e59f0010 	ldr	r0, [pc, #16]	; 8a38 <check_should_leak+0x4c>
    8a24:	eb000094 	bl	8c7c <printk>
    8a28:	eb000286 	bl	9448 <clean_reboot>
    8a2c:	0000a21c 	andeq	sl, r0, ip, lsl r2
    8a30:	0000a290 	muleq	r0, r0, r2
    8a34:	0000a120 	andeq	sl, r0, r0, lsr #2
    8a38:	0000a1f4 	strdeq	sl, [r0], -r4

00008a3c <ck_gc>:
    8a3c:	e92d4010 	push	{r4, lr}
    8a40:	ebffff7a 	bl	8830 <mark_all>
    8a44:	ebfffef4 	bl	861c <sweep_free>
    8a48:	e8bd8010 	pop	{r4, pc}

00008a4c <implement_this>:
    8a4c:	e92d4010 	push	{r4, lr}
    8a50:	e3a03c01 	mov	r3, #256	; 0x100
    8a54:	e59f200c 	ldr	r2, [pc, #12]	; 8a68 <implement_this+0x1c>
    8a58:	e59f100c 	ldr	r1, [pc, #12]	; 8a6c <implement_this+0x20>
    8a5c:	e59f000c 	ldr	r0, [pc, #12]	; 8a70 <implement_this+0x24>
    8a60:	eb000085 	bl	8c7c <printk>
    8a64:	eb000277 	bl	9448 <clean_reboot>
    8a68:	0000a2a4 	andeq	sl, r0, r4, lsr #5
    8a6c:	0000a120 	andeq	sl, r0, r0, lsr #2
    8a70:	0000a240 	andeq	sl, r0, r0, asr #4

00008a74 <dump_regs>:
    8a74:	e5800000 	str	r0, [r0]
    8a78:	e5801004 	str	r1, [r0, #4]
    8a7c:	e5802008 	str	r2, [r0, #8]
    8a80:	e580300c 	str	r3, [r0, #12]
    8a84:	e5804010 	str	r4, [r0, #16]
    8a88:	e5805014 	str	r5, [r0, #20]
    8a8c:	e5806018 	str	r6, [r0, #24]
    8a90:	e580701c 	str	r7, [r0, #28]
    8a94:	e5808020 	str	r8, [r0, #32]
    8a98:	e5809024 	str	r9, [r0, #36]	; 0x24
    8a9c:	e580a028 	str	sl, [r0, #40]	; 0x28
    8aa0:	e580b02c 	str	fp, [r0, #44]	; 0x2c
    8aa4:	e580c030 	str	ip, [r0, #48]	; 0x30
    8aa8:	e580d034 	str	sp, [r0, #52]	; 0x34
    8aac:	e580e038 	str	lr, [r0, #56]	; 0x38
    8ab0:	e580f03c 	str	pc, [r0, #60]	; 0x3c
    8ab4:	e12fff1e 	bx	lr

00008ab8 <kr_free>:
    8ab8:	e52de004 	push	{lr}		; (str lr, [sp, #-4]!)
    8abc:	e2401008 	sub	r1, r0, #8, 0
    8ac0:	e59f30a8 	ldr	r3, [pc, #168]	; 8b70 <kr_free+0xb8>
    8ac4:	e5933000 	ldr	r3, [r3]
    8ac8:	ea000000 	b	8ad0 <kr_free+0x18>
    8acc:	e1a03002 	mov	r3, r2
    8ad0:	e1530001 	cmp	r3, r1
    8ad4:	2a000002 	bcs	8ae4 <kr_free+0x2c>
    8ad8:	e5932000 	ldr	r2, [r3]
    8adc:	e1520001 	cmp	r2, r1
    8ae0:	8a000007 	bhi	8b04 <kr_free+0x4c>
    8ae4:	e5932000 	ldr	r2, [r3]
    8ae8:	e1520003 	cmp	r2, r3
    8aec:	8afffff6 	bhi	8acc <kr_free+0x14>
    8af0:	e1530001 	cmp	r3, r1
    8af4:	3a000002 	bcc	8b04 <kr_free+0x4c>
    8af8:	e1520001 	cmp	r2, r1
    8afc:	91a03002 	movls	r3, r2
    8b00:	9afffff2 	bls	8ad0 <kr_free+0x18>
    8b04:	e510c004 	ldr	ip, [r0, #-4]
    8b08:	e081e18c 	add	lr, r1, ip, lsl #3
    8b0c:	e5932000 	ldr	r2, [r3]
    8b10:	e15e0002 	cmp	lr, r2
    8b14:	0a000008 	beq	8b3c <kr_free+0x84>
    8b18:	e5002008 	str	r2, [r0, #-8]
    8b1c:	e5932004 	ldr	r2, [r3, #4]
    8b20:	e083c182 	add	ip, r3, r2, lsl #3
    8b24:	e15c0001 	cmp	ip, r1
    8b28:	0a00000a 	beq	8b58 <kr_free+0xa0>
    8b2c:	e5831000 	str	r1, [r3]
    8b30:	e59f2038 	ldr	r2, [pc, #56]	; 8b70 <kr_free+0xb8>
    8b34:	e5823000 	str	r3, [r2]
    8b38:	e49df004 	pop	{pc}		; (ldr pc, [sp], #4)
    8b3c:	e5922004 	ldr	r2, [r2, #4]
    8b40:	e08cc002 	add	ip, ip, r2
    8b44:	e500c004 	str	ip, [r0, #-4]
    8b48:	e5932000 	ldr	r2, [r3]
    8b4c:	e5922000 	ldr	r2, [r2]
    8b50:	e5002008 	str	r2, [r0, #-8]
    8b54:	eafffff0 	b	8b1c <kr_free+0x64>
    8b58:	e5101004 	ldr	r1, [r0, #-4]
    8b5c:	e0822001 	add	r2, r2, r1
    8b60:	e5832004 	str	r2, [r3, #4]
    8b64:	e5102008 	ldr	r2, [r0, #-8]
    8b68:	e5832000 	str	r2, [r3]
    8b6c:	eaffffef 	b	8b30 <kr_free+0x78>
    8b70:	0000a650 	andeq	sl, r0, r0, asr r6

00008b74 <kr_morecore>:
    8b74:	e92d4010 	push	{r4, lr}
    8b78:	e1a04000 	mov	r4, r0
    8b7c:	e3500b01 	cmp	r0, #1024	; 0x400
    8b80:	33a04b01 	movcc	r4, #1024	; 0x400
    8b84:	e1a00184 	lsl	r0, r4, #3
    8b88:	ebffff4c 	bl	88c0 <sbrk>
    8b8c:	e3700001 	cmn	r0, #1, 0
    8b90:	0a000005 	beq	8bac <kr_morecore+0x38>
    8b94:	e5804004 	str	r4, [r0, #4]
    8b98:	e2800008 	add	r0, r0, #8, 0
    8b9c:	ebffffc5 	bl	8ab8 <kr_free>
    8ba0:	e59f300c 	ldr	r3, [pc, #12]	; 8bb4 <kr_morecore+0x40>
    8ba4:	e5930000 	ldr	r0, [r3]
    8ba8:	e8bd8010 	pop	{r4, pc}
    8bac:	e3a00000 	mov	r0, #0, 0
    8bb0:	e8bd8010 	pop	{r4, pc}
    8bb4:	0000a650 	andeq	sl, r0, r0, asr r6

00008bb8 <kr_malloc>:
    8bb8:	e92d4010 	push	{r4, lr}
    8bbc:	e2804007 	add	r4, r0, #7, 0
    8bc0:	e1a041a4 	lsr	r4, r4, #3
    8bc4:	e2844001 	add	r4, r4, #1, 0
    8bc8:	e59f3090 	ldr	r3, [pc, #144]	; 8c60 <kr_malloc+0xa8>
    8bcc:	e5932000 	ldr	r2, [r3]
    8bd0:	e3520000 	cmp	r2, #0, 0
    8bd4:	0a000001 	beq	8be0 <kr_malloc+0x28>
    8bd8:	e5920000 	ldr	r0, [r2]
    8bdc:	ea000013 	b	8c30 <kr_malloc+0x78>
    8be0:	e2832008 	add	r2, r3, #8, 0
    8be4:	e5832000 	str	r2, [r3]
    8be8:	e5832008 	str	r2, [r3, #8]
    8bec:	e3a01000 	mov	r1, #0, 0
    8bf0:	e583100c 	str	r1, [r3, #12]
    8bf4:	eafffff7 	b	8bd8 <kr_malloc+0x20>
    8bf8:	0a000007 	beq	8c1c <kr_malloc+0x64>
    8bfc:	e0433004 	sub	r3, r3, r4
    8c00:	e5803004 	str	r3, [r0, #4]
    8c04:	e0800183 	add	r0, r0, r3, lsl #3
    8c08:	e5804004 	str	r4, [r0, #4]
    8c0c:	e59f304c 	ldr	r3, [pc, #76]	; 8c60 <kr_malloc+0xa8>
    8c10:	e5832000 	str	r2, [r3]
    8c14:	e2800008 	add	r0, r0, #8, 0
    8c18:	e8bd8010 	pop	{r4, pc}
    8c1c:	e5903000 	ldr	r3, [r0]
    8c20:	e5823000 	str	r3, [r2]
    8c24:	eafffff8 	b	8c0c <kr_malloc+0x54>
    8c28:	e1a02000 	mov	r2, r0
    8c2c:	e5900000 	ldr	r0, [r0]
    8c30:	e5903004 	ldr	r3, [r0, #4]
    8c34:	e1530004 	cmp	r3, r4
    8c38:	2affffee 	bcs	8bf8 <kr_malloc+0x40>
    8c3c:	e59f301c 	ldr	r3, [pc, #28]	; 8c60 <kr_malloc+0xa8>
    8c40:	e5933000 	ldr	r3, [r3]
    8c44:	e1530000 	cmp	r3, r0
    8c48:	1afffff6 	bne	8c28 <kr_malloc+0x70>
    8c4c:	e1a00004 	mov	r0, r4
    8c50:	ebffffc7 	bl	8b74 <kr_morecore>
    8c54:	e3500000 	cmp	r0, #0, 0
    8c58:	1afffff2 	bne	8c28 <kr_malloc+0x70>
    8c5c:	e8bd8010 	pop	{r4, pc}
    8c60:	0000a650 	andeq	sl, r0, r0, asr r6

00008c64 <memset>:
    8c64:	e0802002 	add	r2, r0, r2
    8c68:	e1a03000 	mov	r3, r0
    8c6c:	e1530002 	cmp	r3, r2
    8c70:	212fff1e 	bxcs	lr
    8c74:	e4c31001 	strb	r1, [r3], #1
    8c78:	eafffffb 	b	8c6c <memset+0x8>

00008c7c <printk>:
    8c7c:	e92d000f 	push	{r0, r1, r2, r3}
    8c80:	e92d4030 	push	{r4, r5, lr}
    8c84:	e24dd00c 	sub	sp, sp, #12, 0
    8c88:	e28d301c 	add	r3, sp, #28, 0
    8c8c:	e58d3004 	str	r3, [sp, #4]
    8c90:	e59f5034 	ldr	r5, [pc, #52]	; 8ccc <printk+0x50>
    8c94:	e59d2018 	ldr	r2, [sp, #24]
    8c98:	e3a01b01 	mov	r1, #1024	; 0x400
    8c9c:	e1a00005 	mov	r0, r5
    8ca0:	eb0000ba 	bl	8f90 <va_printk>
    8ca4:	e1a04000 	mov	r4, r0
    8ca8:	e59f3020 	ldr	r3, [pc, #32]	; 8cd0 <printk+0x54>
    8cac:	e5933000 	ldr	r3, [r3]
    8cb0:	e1a00005 	mov	r0, r5
    8cb4:	e12fff33 	blx	r3
    8cb8:	e1a00004 	mov	r0, r4
    8cbc:	e28dd00c 	add	sp, sp, #12, 0
    8cc0:	e8bd4030 	pop	{r4, r5, lr}
    8cc4:	e28dd010 	add	sp, sp, #16, 0
    8cc8:	e12fff1e 	bx	lr
    8ccc:	0000a660 	andeq	sl, r0, r0, ror #12
    8cd0:	0000a620 	andeq	sl, r0, r0, lsr #12

00008cd4 <internal_putk>:
    8cd4:	e92d4010 	push	{r4, lr}
    8cd8:	e1a04000 	mov	r4, r0
    8cdc:	e5d40000 	ldrb	r0, [r4]
    8ce0:	e3500000 	cmp	r0, #0, 0
    8ce4:	0a000004 	beq	8cfc <internal_putk+0x28>
    8ce8:	e59f3014 	ldr	r3, [pc, #20]	; 8d04 <internal_putk+0x30>
    8cec:	e5933000 	ldr	r3, [r3]
    8cf0:	e12fff33 	blx	r3
    8cf4:	e2844001 	add	r4, r4, #1, 0
    8cf8:	eafffff7 	b	8cdc <internal_putk+0x8>
    8cfc:	e3a00001 	mov	r0, #1, 0
    8d00:	e8bd8010 	pop	{r4, pc}
    8d04:	0000a630 	andeq	sl, r0, r0, lsr r6

00008d08 <isdigit>:
    8d08:	e2400030 	sub	r0, r0, #48, 0	; 0x30
    8d0c:	e3500009 	cmp	r0, #9, 0
    8d10:	83a00000 	movhi	r0, #0, 0
    8d14:	93a00001 	movls	r0, #1, 0
    8d18:	e12fff1e 	bx	lr

00008d1c <pad>:
    8d1c:	e0401001 	sub	r1, r0, r1
    8d20:	e1510002 	cmp	r1, r2
    8d24:	b3a03020 	movlt	r3, #32, 0
    8d28:	b4c03001 	strblt	r3, [r0], #1
    8d2c:	b2811001 	addlt	r1, r1, #1, 0
    8d30:	bafffffa 	blt	8d20 <pad+0x4>
    8d34:	e3a03000 	mov	r3, #0, 0
    8d38:	e5c03000 	strb	r3, [r0]
    8d3c:	e12fff1e 	bx	lr

00008d40 <reverse>:
    8d40:	e042c003 	sub	ip, r2, r3
    8d44:	e28cc001 	add	ip, ip, #1, 0
    8d48:	e15c0001 	cmp	ip, r1
    8d4c:	c04cc001 	subgt	ip, ip, r1
    8d50:	c083300c 	addgt	r3, r3, ip
    8d54:	e2421001 	sub	r1, r2, #1, 0
    8d58:	e1a02000 	mov	r2, r0
    8d5c:	e1510003 	cmp	r1, r3
    8d60:	2451c001 	ldrbcs	ip, [r1], #-1
    8d64:	24c2c001 	strbcs	ip, [r2], #1
    8d68:	2afffffb 	bcs	8d5c <reverse+0x1c>
    8d6c:	e3a03000 	mov	r3, #0, 0
    8d70:	e5c23000 	strb	r3, [r2]
    8d74:	e12fff1e 	bx	lr

00008d78 <emit>:
    8d78:	e92d40f0 	push	{r4, r5, r6, r7, lr}
    8d7c:	e24dd04c 	sub	sp, sp, #76, 0	; 0x4c
    8d80:	e1a05001 	mov	r5, r1
    8d84:	e1a04002 	mov	r4, r2
    8d88:	e59d2060 	ldr	r2, [sp, #96]	; 0x60
    8d8c:	e1520004 	cmp	r2, r4
    8d90:	c2442001 	subgt	r2, r4, #1, 0
    8d94:	e1a0c003 	mov	ip, r3
    8d98:	e2400002 	sub	r0, r0, #2, 0
    8d9c:	e350000e 	cmp	r0, #14, 0
    8da0:	979ff100 	ldrls	pc, [pc, r0, lsl #2]
    8da4:	ea000050 	b	8eec <emit+0x174>
    8da8:	00008ec4 	andeq	r8, r0, r4, asr #29
    8dac:	00008eec 	andeq	r8, r0, ip, ror #29
    8db0:	00008eec 	andeq	r8, r0, ip, ror #29
    8db4:	00008eec 	andeq	r8, r0, ip, ror #29
    8db8:	00008eec 	andeq	r8, r0, ip, ror #29
    8dbc:	00008eec 	andeq	r8, r0, ip, ror #29
    8dc0:	00008eb8 			; <UNDEFINED> instruction: 0x00008eb8
    8dc4:	00008eec 	andeq	r8, r0, ip, ror #29
    8dc8:	00008de4 	andeq	r8, r0, r4, ror #27
    8dcc:	00008eec 	andeq	r8, r0, ip, ror #29
    8dd0:	00008eec 	andeq	r8, r0, ip, ror #29
    8dd4:	00008eec 	andeq	r8, r0, ip, ror #29
    8dd8:	00008eec 	andeq	r8, r0, ip, ror #29
    8ddc:	00008eec 	andeq	r8, r0, ip, ror #29
    8de0:	00008e5c 	andeq	r8, r0, ip, asr lr
    8de4:	e59d1064 	ldr	r1, [sp, #100]	; 0x64
    8de8:	e2511000 	subs	r1, r1, #0, 0
    8dec:	13a01001 	movne	r1, #1, 0
    8df0:	e0111fa3 	ands	r1, r1, r3, lsr #31
    8df4:	0a000016 	beq	8e54 <emit+0xdc>
    8df8:	e263c000 	rsb	ip, r3, #0, 0
    8dfc:	e3a06001 	mov	r6, #1, 0
    8e00:	e28d0008 	add	r0, sp, #8, 0
    8e04:	e59f3100 	ldr	r3, [pc, #256]	; 8f0c <emit+0x194>
    8e08:	e0831c93 	umull	r1, r3, r3, ip
    8e0c:	e1a031a3 	lsr	r3, r3, #3
    8e10:	e1a0e003 	mov	lr, r3
    8e14:	e0833103 	add	r3, r3, r3, lsl #2
    8e18:	e04c3083 	sub	r3, ip, r3, lsl #1
    8e1c:	e1a01000 	mov	r1, r0
    8e20:	e2800001 	add	r0, r0, #1, 0
    8e24:	e59f70e4 	ldr	r7, [pc, #228]	; 8f10 <emit+0x198>
    8e28:	e7d73003 	ldrb	r3, [r7, r3]
    8e2c:	e5c13000 	strb	r3, [r1]
    8e30:	e1a0300c 	mov	r3, ip
    8e34:	e1a0c00e 	mov	ip, lr
    8e38:	e3530009 	cmp	r3, #9, 0
    8e3c:	8afffff0 	bhi	8e04 <emit+0x8c>
    8e40:	e3560000 	cmp	r6, #0, 0
    8e44:	13a0302d 	movne	r3, #45, 0	; 0x2d
    8e48:	15c03000 	strbne	r3, [r0]
    8e4c:	12810002 	addne	r0, r1, #2, 0
    8e50:	ea00000f 	b	8e94 <emit+0x11c>
    8e54:	e3a06000 	mov	r6, #0, 0
    8e58:	eaffffe8 	b	8e00 <emit+0x88>
    8e5c:	e28d1008 	add	r1, sp, #8, 0
    8e60:	e20c000f 	and	r0, ip, #15, 0
    8e64:	e59fe0a8 	ldr	lr, [pc, #168]	; 8f14 <emit+0x19c>
    8e68:	e7de0000 	ldrb	r0, [lr, r0]
    8e6c:	e5c10000 	strb	r0, [r1]
    8e70:	e2811001 	add	r1, r1, #1, 0
    8e74:	e35c000f 	cmp	ip, #15, 0
    8e78:	e1a0c22c 	lsr	ip, ip, #4
    8e7c:	8afffff7 	bhi	8e60 <emit+0xe8>
    8e80:	e1a00001 	mov	r0, r1
    8e84:	e3a03078 	mov	r3, #120, 0	; 0x78
    8e88:	e4c03002 	strb	r3, [r0], #2
    8e8c:	e3a03030 	mov	r3, #48, 0	; 0x30
    8e90:	e5c13001 	strb	r3, [r1, #1]
    8e94:	e28d1008 	add	r1, sp, #8, 0
    8e98:	ebffff9f 	bl	8d1c <pad>
    8e9c:	e1a02000 	mov	r2, r0
    8ea0:	e28d3008 	add	r3, sp, #8, 0
    8ea4:	e1a01004 	mov	r1, r4
    8ea8:	e1a00005 	mov	r0, r5
    8eac:	ebffffa3 	bl	8d40 <reverse>
    8eb0:	e28dd04c 	add	sp, sp, #76, 0	; 0x4c
    8eb4:	e8bd80f0 	pop	{r4, r5, r6, r7, pc}
    8eb8:	e5cd3008 	strb	r3, [sp, #8]
    8ebc:	e28d0009 	add	r0, sp, #9, 0
    8ec0:	eafffff3 	b	8e94 <emit+0x11c>
    8ec4:	e28d0008 	add	r0, sp, #8, 0
    8ec8:	e20c1001 	and	r1, ip, #1, 0
    8ecc:	e59fe044 	ldr	lr, [pc, #68]	; 8f18 <emit+0x1a0>
    8ed0:	e7de1001 	ldrb	r1, [lr, r1]
    8ed4:	e5c01000 	strb	r1, [r0]
    8ed8:	e2800001 	add	r0, r0, #1, 0
    8edc:	e35c0001 	cmp	ip, #1, 0
    8ee0:	e1a0c0ac 	lsr	ip, ip, #1
    8ee4:	8afffff7 	bhi	8ec8 <emit+0x150>
    8ee8:	eaffffe9 	b	8e94 <emit+0x11c>
    8eec:	e59f3028 	ldr	r3, [pc, #40]	; 8f1c <emit+0x1a4>
    8ef0:	e58d3000 	str	r3, [sp]
    8ef4:	e3a03079 	mov	r3, #121, 0	; 0x79
    8ef8:	e59f2020 	ldr	r2, [pc, #32]	; 8f20 <emit+0x1a8>
    8efc:	e59f1020 	ldr	r1, [pc, #32]	; 8f24 <emit+0x1ac>
    8f00:	e59f0020 	ldr	r0, [pc, #32]	; 8f28 <emit+0x1b0>
    8f04:	ebffff5c 	bl	8c7c <printk>
    8f08:	eb00014e 	bl	9448 <clean_reboot>
    8f0c:	cccccccd 	stclgt	12, cr12, [ip], {205}	; 0xcd
    8f10:	0000a2c8 	andeq	sl, r0, r8, asr #5
    8f14:	0000a2d4 	ldrdeq	sl, [r0], -r4
    8f18:	0000a2e8 	andeq	sl, r0, r8, ror #5
    8f1c:	0000a168 	andeq	sl, r0, r8, ror #2
    8f20:	0000a3f4 	strdeq	sl, [r0], -r4
    8f24:	0000a2b4 			; <UNDEFINED> instruction: 0x0000a2b4
    8f28:	00009e78 	andeq	r9, r0, r8, ror lr

00008f2c <rpi_set_output>:
    8f2c:	e3500000 	cmp	r0, #0, 0
    8f30:	0a000006 	beq	8f50 <rpi_set_output+0x24>
    8f34:	e59f303c 	ldr	r3, [pc, #60]	; 8f78 <rpi_set_output+0x4c>
    8f38:	e5830000 	str	r0, [r3]
    8f3c:	e3510000 	cmp	r1, #0, 0
    8f40:	012fff1e 	bxeq	lr
    8f44:	e59f3030 	ldr	r3, [pc, #48]	; 8f7c <rpi_set_output+0x50>
    8f48:	e5831000 	str	r1, [r3]
    8f4c:	e12fff1e 	bx	lr
    8f50:	e52de004 	push	{lr}		; (str lr, [sp, #-4]!)
    8f54:	e24dd00c 	sub	sp, sp, #12, 0
    8f58:	e59f3020 	ldr	r3, [pc, #32]	; 8f80 <rpi_set_output+0x54>
    8f5c:	e58d3000 	str	r3, [sp]
    8f60:	e3a03020 	mov	r3, #32, 0
    8f64:	e59f2018 	ldr	r2, [pc, #24]	; 8f84 <rpi_set_output+0x58>
    8f68:	e59f1018 	ldr	r1, [pc, #24]	; 8f88 <rpi_set_output+0x5c>
    8f6c:	e59f0018 	ldr	r0, [pc, #24]	; 8f8c <rpi_set_output+0x60>
    8f70:	ebffff41 	bl	8c7c <printk>
    8f74:	eb000133 	bl	9448 <clean_reboot>
    8f78:	0000a630 	andeq	sl, r0, r0, lsr r6
    8f7c:	0000a620 	andeq	sl, r0, r0, lsr #12
    8f80:	0000a2ec 	andeq	sl, r0, ip, ror #5
    8f84:	0000a3fc 	strdeq	sl, [r0], -ip
    8f88:	0000a2b4 			; <UNDEFINED> instruction: 0x0000a2b4
    8f8c:	00009e78 	andeq	r9, r0, r8, ror lr

00008f90 <va_printk>:
    8f90:	e92d4ff0 	push	{r4, r5, r6, r7, r8, r9, sl, fp, lr}
    8f94:	e24ddf45 	sub	sp, sp, #276	; 0x114
    8f98:	e1a09000 	mov	r9, r0
    8f9c:	e58d2008 	str	r2, [sp, #8]
    8fa0:	e58d300c 	str	r3, [sp, #12]
    8fa4:	e2411001 	sub	r1, r1, #1, 0
    8fa8:	e0808001 	add	r8, r0, r1
    8fac:	e3a03000 	mov	r3, #0, 0
    8fb0:	e5c03000 	strb	r3, [r0]
    8fb4:	e1a04000 	mov	r4, r0
    8fb8:	e1a06002 	mov	r6, r2
    8fbc:	ea000001 	b	8fc8 <va_printk+0x38>
    8fc0:	e2866001 	add	r6, r6, #1, 0
    8fc4:	e4c43001 	strb	r3, [r4], #1
    8fc8:	e5d63000 	ldrb	r3, [r6]
    8fcc:	e3530000 	cmp	r3, #0, 0
    8fd0:	0a000108 	beq	93f8 <va_printk+0x468>
    8fd4:	e1540008 	cmp	r4, r8
    8fd8:	2a000106 	bcs	93f8 <va_printk+0x468>
    8fdc:	e3530025 	cmp	r3, #37, 0	; 0x25
    8fe0:	1afffff6 	bne	8fc0 <va_printk+0x30>
    8fe4:	e5d62001 	ldrb	r2, [r6, #1]
    8fe8:	e3520025 	cmp	r2, #37, 0	; 0x25
    8fec:	04c43001 	strbeq	r3, [r4], #1
    8ff0:	02866002 	addeq	r6, r6, #2, 0
    8ff4:	0afffff3 	beq	8fc8 <va_printk+0x38>
    8ff8:	e2866001 	add	r6, r6, #1, 0
    8ffc:	e3a05000 	mov	r5, #0, 0
    9000:	e5d67000 	ldrb	r7, [r6]
    9004:	e1a0a007 	mov	sl, r7
    9008:	e1a00007 	mov	r0, r7
    900c:	ebffff3d 	bl	8d08 <isdigit>
    9010:	e3500000 	cmp	r0, #0, 0
    9014:	0a000004 	beq	902c <va_printk+0x9c>
    9018:	e0855105 	add	r5, r5, r5, lsl #2
    901c:	e0875085 	add	r5, r7, r5, lsl #1
    9020:	e2455030 	sub	r5, r5, #48, 0	; 0x30
    9024:	e2866001 	add	r6, r6, #1, 0
    9028:	eafffff4 	b	9000 <va_printk+0x70>
    902c:	e355001f 	cmp	r5, #31, 0
    9030:	8a00001a 	bhi	90a0 <va_printk+0x110>
    9034:	e2477062 	sub	r7, r7, #98, 0	; 0x62
    9038:	e3570016 	cmp	r7, #22, 0
    903c:	979ff107 	ldrls	pc, [pc, r7, lsl #2]
    9040:	ea0000d4 	b	9398 <va_printk+0x408>
    9044:	0000931c 	andeq	r9, r0, ip, lsl r3
    9048:	00009364 	andeq	r9, r0, r4, ror #6
    904c:	0000927c 	andeq	r9, r0, ip, ror r2
    9050:	00009398 	muleq	r0, r8, r3
    9054:	00009264 	andeq	r9, r0, r4, ror #4
    9058:	00009398 	muleq	r0, r8, r3
    905c:	00009398 	muleq	r0, r8, r3
    9060:	00009398 	muleq	r0, r8, r3
    9064:	00009398 	muleq	r0, r8, r3
    9068:	00009398 	muleq	r0, r8, r3
    906c:	000090c0 	andeq	r9, r0, r0, asr #1
    9070:	00009398 	muleq	r0, r8, r3
    9074:	00009398 	muleq	r0, r8, r3
    9078:	00009398 	muleq	r0, r8, r3
    907c:	000092e8 	andeq	r9, r0, r8, ror #5
    9080:	00009398 	muleq	r0, r8, r3
    9084:	00009398 	muleq	r0, r8, r3
    9088:	00009350 	andeq	r9, r0, r0, asr r3
    908c:	00009398 	muleq	r0, r8, r3
    9090:	000092b4 			; <UNDEFINED> instruction: 0x000092b4
    9094:	00009398 	muleq	r0, r8, r3
    9098:	00009398 	muleq	r0, r8, r3
    909c:	000092e8 	andeq	r9, r0, r8, ror #5
    90a0:	e59f3364 	ldr	r3, [pc, #868]	; 940c <va_printk+0x47c>
    90a4:	e58d3000 	str	r3, [sp]
    90a8:	e3a03098 	mov	r3, #152, 0	; 0x98
    90ac:	e59f235c 	ldr	r2, [pc, #860]	; 9410 <va_printk+0x480>
    90b0:	e59f135c 	ldr	r1, [pc, #860]	; 9414 <va_printk+0x484>
    90b4:	e59f035c 	ldr	r0, [pc, #860]	; 9418 <va_printk+0x488>
    90b8:	ebfffeef 	bl	8c7c <printk>
    90bc:	eb0000e1 	bl	9448 <clean_reboot>
    90c0:	e3a02003 	mov	r2, #3, 0
    90c4:	e59f1350 	ldr	r1, [pc, #848]	; 941c <va_printk+0x48c>
    90c8:	e1a00006 	mov	r0, r6
    90cc:	eb0002d0 	bl	9c14 <strncmp>
    90d0:	e3500000 	cmp	r0, #0, 0
    90d4:	0a000005 	beq	90f0 <va_printk+0x160>
    90d8:	e3a02003 	mov	r2, #3, 0
    90dc:	e59f133c 	ldr	r1, [pc, #828]	; 9420 <va_printk+0x490>
    90e0:	e1a00006 	mov	r0, r6
    90e4:	eb0002ca 	bl	9c14 <strncmp>
    90e8:	e3500000 	cmp	r0, #0, 0
    90ec:	1a000033 	bne	91c0 <va_printk+0x230>
    90f0:	e286b002 	add	fp, r6, #2, 0
    90f4:	e59d300c 	ldr	r3, [sp, #12]
    90f8:	e2833007 	add	r3, r3, #7, 0
    90fc:	e3c33007 	bic	r3, r3, #7, 0
    9100:	e2832008 	add	r2, r3, #8, 0
    9104:	e58d200c 	str	r2, [sp, #12]
    9108:	e593a000 	ldr	sl, [r3]
    910c:	e5937004 	ldr	r7, [r3, #4]
    9110:	e1a01007 	mov	r1, r7
    9114:	e59f0308 	ldr	r0, [pc, #776]	; 9424 <va_printk+0x494>
    9118:	ebfffed7 	bl	8c7c <printk>
    911c:	e1a0100a 	mov	r1, sl
    9120:	e59f0300 	ldr	r0, [pc, #768]	; 9428 <va_printk+0x498>
    9124:	ebfffed4 	bl	8c7c <printk>
    9128:	e3a02003 	mov	r2, #3, 0
    912c:	e59f12e8 	ldr	r1, [pc, #744]	; 941c <va_printk+0x48c>
    9130:	e1a00006 	mov	r0, r6
    9134:	eb0002b6 	bl	9c14 <strncmp>
    9138:	e3500000 	cmp	r0, #0, 0
    913c:	0a000027 	beq	91e0 <va_printk+0x250>
    9140:	e3a02003 	mov	r2, #3, 0
    9144:	e59f12d4 	ldr	r1, [pc, #724]	; 9420 <va_printk+0x490>
    9148:	e1a00006 	mov	r0, r6
    914c:	eb0002b0 	bl	9c14 <strncmp>
    9150:	e3500000 	cmp	r0, #0, 0
    9154:	1a00003b 	bne	9248 <va_printk+0x2b8>
    9158:	e3a06000 	mov	r6, #0, 0
    915c:	e58d6004 	str	r6, [sp, #4]
    9160:	e58d5000 	str	r5, [sp]
    9164:	e1a03007 	mov	r3, r7
    9168:	e3a02080 	mov	r2, #128, 0	; 0x80
    916c:	e28d1010 	add	r1, sp, #16, 0
    9170:	e3a0000a 	mov	r0, #10, 0
    9174:	ebfffeff 	bl	8d78 <emit>
    9178:	e1a07000 	mov	r7, r0
    917c:	e58d6004 	str	r6, [sp, #4]
    9180:	e58d5000 	str	r5, [sp]
    9184:	e1a0300a 	mov	r3, sl
    9188:	e3a02080 	mov	r2, #128, 0	; 0x80
    918c:	e28d1090 	add	r1, sp, #144, 0	; 0x90
    9190:	e3a0000a 	mov	r0, #10, 0
    9194:	ebfffef7 	bl	8d78 <emit>
    9198:	e59f128c 	ldr	r1, [pc, #652]	; 942c <va_printk+0x49c>
    919c:	e28d0010 	add	r0, sp, #16, 0
    91a0:	eb000288 	bl	9bc8 <strcmp>
    91a4:	e1500006 	cmp	r0, r6
    91a8:	1a000021 	bne	9234 <va_printk+0x2a4>
    91ac:	e28d1090 	add	r1, sp, #144, 0	; 0x90
    91b0:	e28d0010 	add	r0, sp, #16, 0
    91b4:	eb00028e 	bl	9bf4 <strcpy>
    91b8:	e1a0600b 	mov	r6, fp
    91bc:	ea00003a 	b	92ac <va_printk+0x31c>
    91c0:	e59f3268 	ldr	r3, [pc, #616]	; 9430 <va_printk+0x4a0>
    91c4:	e58d3000 	str	r3, [sp]
    91c8:	e3a0309f 	mov	r3, #159, 0	; 0x9f
    91cc:	e59f223c 	ldr	r2, [pc, #572]	; 9410 <va_printk+0x480>
    91d0:	e59f123c 	ldr	r1, [pc, #572]	; 9414 <va_printk+0x484>
    91d4:	e59f023c 	ldr	r0, [pc, #572]	; 9418 <va_printk+0x488>
    91d8:	ebfffea7 	bl	8c7c <printk>
    91dc:	eb000099 	bl	9448 <clean_reboot>
    91e0:	e3a06000 	mov	r6, #0, 0
    91e4:	e58d6004 	str	r6, [sp, #4]
    91e8:	e58d5000 	str	r5, [sp]
    91ec:	e1a03007 	mov	r3, r7
    91f0:	e3a02080 	mov	r2, #128, 0	; 0x80
    91f4:	e28d1010 	add	r1, sp, #16, 0
    91f8:	e3a00010 	mov	r0, #16, 0
    91fc:	ebfffedd 	bl	8d78 <emit>
    9200:	e1a07000 	mov	r7, r0
    9204:	e58d6004 	str	r6, [sp, #4]
    9208:	e58d5000 	str	r5, [sp]
    920c:	e1a0300a 	mov	r3, sl
    9210:	e3a02080 	mov	r2, #128, 0	; 0x80
    9214:	e28d1090 	add	r1, sp, #144, 0	; 0x90
    9218:	e3a00010 	mov	r0, #16, 0
    921c:	ebfffed5 	bl	8d78 <emit>
    9220:	e28d1092 	add	r1, sp, #146, 0	; 0x92
    9224:	e28d0010 	add	r0, sp, #16, 0
    9228:	eb000259 	bl	9b94 <strcat>
    922c:	e1a0600b 	mov	r6, fp
    9230:	ea00001d 	b	92ac <va_printk+0x31c>
    9234:	e28d1090 	add	r1, sp, #144, 0	; 0x90
    9238:	e28d0010 	add	r0, sp, #16, 0
    923c:	eb000254 	bl	9b94 <strcat>
    9240:	e1a0600b 	mov	r6, fp
    9244:	ea000018 	b	92ac <va_printk+0x31c>
    9248:	e58d6000 	str	r6, [sp]
    924c:	e3a030b6 	mov	r3, #182, 0	; 0xb6
    9250:	e59f21b8 	ldr	r2, [pc, #440]	; 9410 <va_printk+0x480>
    9254:	e59f11b8 	ldr	r1, [pc, #440]	; 9414 <va_printk+0x484>
    9258:	e59f01d4 	ldr	r0, [pc, #468]	; 9434 <va_printk+0x4a4>
    925c:	ebfffe86 	bl	8c7c <printk>
    9260:	eb000078 	bl	9448 <clean_reboot>
    9264:	e3a030be 	mov	r3, #190, 0	; 0xbe
    9268:	e59f21a0 	ldr	r2, [pc, #416]	; 9410 <va_printk+0x480>
    926c:	e59f11a0 	ldr	r1, [pc, #416]	; 9414 <va_printk+0x484>
    9270:	e59f01c0 	ldr	r0, [pc, #448]	; 9438 <va_printk+0x4a8>
    9274:	ebfffe80 	bl	8c7c <printk>
    9278:	eb000072 	bl	9448 <clean_reboot>
    927c:	e59d300c 	ldr	r3, [sp, #12]
    9280:	e2832004 	add	r2, r3, #4, 0
    9284:	e58d200c 	str	r2, [sp, #12]
    9288:	e5933000 	ldr	r3, [r3]
    928c:	e3a02001 	mov	r2, #1, 0
    9290:	e58d2004 	str	r2, [sp, #4]
    9294:	e58d5000 	str	r5, [sp]
    9298:	e3a02080 	mov	r2, #128, 0	; 0x80
    929c:	e28d1010 	add	r1, sp, #16, 0
    92a0:	e3a0000a 	mov	r0, #10, 0
    92a4:	ebfffeb3 	bl	8d78 <emit>
    92a8:	e1a07000 	mov	r7, r0
    92ac:	e2866001 	add	r6, r6, #1, 0
    92b0:	ea00004a 	b	93e0 <va_printk+0x450>
    92b4:	e59d300c 	ldr	r3, [sp, #12]
    92b8:	e2832004 	add	r2, r3, #4, 0
    92bc:	e58d200c 	str	r2, [sp, #12]
    92c0:	e5933000 	ldr	r3, [r3]
    92c4:	e3a02000 	mov	r2, #0, 0
    92c8:	e58d2004 	str	r2, [sp, #4]
    92cc:	e58d5000 	str	r5, [sp]
    92d0:	e3a02080 	mov	r2, #128, 0	; 0x80
    92d4:	e28d1010 	add	r1, sp, #16, 0
    92d8:	e3a0000a 	mov	r0, #10, 0
    92dc:	ebfffea5 	bl	8d78 <emit>
    92e0:	e1a07000 	mov	r7, r0
    92e4:	eafffff0 	b	92ac <va_printk+0x31c>
    92e8:	e59d300c 	ldr	r3, [sp, #12]
    92ec:	e2832004 	add	r2, r3, #4, 0
    92f0:	e58d200c 	str	r2, [sp, #12]
    92f4:	e5933000 	ldr	r3, [r3]
    92f8:	e3a02000 	mov	r2, #0, 0
    92fc:	e58d2004 	str	r2, [sp, #4]
    9300:	e58d5000 	str	r5, [sp]
    9304:	e3a02080 	mov	r2, #128, 0	; 0x80
    9308:	e28d1010 	add	r1, sp, #16, 0
    930c:	e3a00010 	mov	r0, #16, 0
    9310:	ebfffe98 	bl	8d78 <emit>
    9314:	e1a07000 	mov	r7, r0
    9318:	eaffffe3 	b	92ac <va_printk+0x31c>
    931c:	e59d300c 	ldr	r3, [sp, #12]
    9320:	e2832004 	add	r2, r3, #4, 0
    9324:	e58d200c 	str	r2, [sp, #12]
    9328:	e5933000 	ldr	r3, [r3]
    932c:	e3a02000 	mov	r2, #0, 0
    9330:	e58d2004 	str	r2, [sp, #4]
    9334:	e58d5000 	str	r5, [sp]
    9338:	e3a02080 	mov	r2, #128, 0	; 0x80
    933c:	e28d1010 	add	r1, sp, #16, 0
    9340:	e3a00002 	mov	r0, #2, 0
    9344:	ebfffe8b 	bl	8d78 <emit>
    9348:	e1a07000 	mov	r7, r0
    934c:	eaffffd6 	b	92ac <va_printk+0x31c>
    9350:	e59d300c 	ldr	r3, [sp, #12]
    9354:	e2832004 	add	r2, r3, #4, 0
    9358:	e58d200c 	str	r2, [sp, #12]
    935c:	e5937000 	ldr	r7, [r3]
    9360:	eaffffd1 	b	92ac <va_printk+0x31c>
    9364:	e59d300c 	ldr	r3, [sp, #12]
    9368:	e2832004 	add	r2, r3, #4, 0
    936c:	e58d200c 	str	r2, [sp, #12]
    9370:	e5933000 	ldr	r3, [r3]
    9374:	e3a02000 	mov	r2, #0, 0
    9378:	e58d2004 	str	r2, [sp, #4]
    937c:	e58d5000 	str	r5, [sp]
    9380:	e3a02080 	mov	r2, #128, 0	; 0x80
    9384:	e28d1010 	add	r1, sp, #16, 0
    9388:	e3a00008 	mov	r0, #8, 0
    938c:	ebfffe79 	bl	8d78 <emit>
    9390:	e1a07000 	mov	r7, r0
    9394:	eaffffc4 	b	92ac <va_printk+0x31c>
    9398:	e3a03000 	mov	r3, #0, 0
    939c:	e5c63001 	strb	r3, [r6, #1]
    93a0:	e1a0200a 	mov	r2, sl
    93a4:	e1a0100a 	mov	r1, sl
    93a8:	e59f008c 	ldr	r0, [pc, #140]	; 943c <va_printk+0x4ac>
    93ac:	ebfffe32 	bl	8c7c <printk>
    93b0:	e59f3088 	ldr	r3, [pc, #136]	; 9440 <va_printk+0x4b0>
    93b4:	e5933000 	ldr	r3, [r3]
    93b8:	e59d0008 	ldr	r0, [sp, #8]
    93bc:	e12fff33 	blx	r3
    93c0:	e3a030e2 	mov	r3, #226, 0	; 0xe2
    93c4:	e59f2044 	ldr	r2, [pc, #68]	; 9410 <va_printk+0x480>
    93c8:	e59f1044 	ldr	r1, [pc, #68]	; 9414 <va_printk+0x484>
    93cc:	e59f0070 	ldr	r0, [pc, #112]	; 9444 <va_printk+0x4b4>
    93d0:	ebfffe29 	bl	8c7c <printk>
    93d4:	eb00001b 	bl	9448 <clean_reboot>
    93d8:	e2877001 	add	r7, r7, #1, 0
    93dc:	e4c43001 	strb	r3, [r4], #1
    93e0:	e1540008 	cmp	r4, r8
    93e4:	2afffef7 	bcs	8fc8 <va_printk+0x38>
    93e8:	e5d73000 	ldrb	r3, [r7]
    93ec:	e3530000 	cmp	r3, #0, 0
    93f0:	1afffff8 	bne	93d8 <va_printk+0x448>
    93f4:	eafffef3 	b	8fc8 <va_printk+0x38>
    93f8:	e3a03000 	mov	r3, #0, 0
    93fc:	e4c43001 	strb	r3, [r4], #1
    9400:	e0440009 	sub	r0, r4, r9
    9404:	e28ddf45 	add	sp, sp, #276	; 0x114
    9408:	e8bd8ff0 	pop	{r4, r5, r6, r7, r8, r9, sl, fp, pc}
    940c:	0000a2f4 	strdeq	sl, [r0], -r4
    9410:	0000a40c 	andeq	sl, r0, ip, lsl #8
    9414:	0000a2b4 			; <UNDEFINED> instruction: 0x0000a2b4
    9418:	00009e78 	andeq	r9, r0, r8, ror lr
    941c:	0000a300 	andeq	sl, r0, r0, lsl #6
    9420:	0000a304 	andeq	sl, r0, r4, lsl #6
    9424:	0000a308 	andeq	sl, r0, r8, lsl #6
    9428:	0000a310 	andeq	sl, r0, r0, lsl r3
    942c:	0000a168 	andeq	sl, r0, r8, ror #2
    9430:	0000a318 	andeq	sl, r0, r8, lsl r3
    9434:	0000a354 	andeq	sl, r0, r4, asr r3
    9438:	0000a37c 	andeq	sl, r0, ip, ror r3
    943c:	0000a3a4 	andeq	sl, r0, r4, lsr #7
    9440:	0000a620 	andeq	sl, r0, r0, lsr #12
    9444:	0000a3d4 	ldrdeq	sl, [r0], -r4

00009448 <clean_reboot>:
    9448:	e92d4010 	push	{r4, lr}
    944c:	e59f3018 	ldr	r3, [pc, #24]	; 946c <clean_reboot+0x24>
    9450:	e5933000 	ldr	r3, [r3]
    9454:	e59f0014 	ldr	r0, [pc, #20]	; 9470 <clean_reboot+0x28>
    9458:	e12fff33 	blx	r3
    945c:	eb0000c3 	bl	9770 <uart_flush_tx>
    9460:	e3a0000a 	mov	r0, #10, 0
    9464:	eb000047 	bl	9588 <delay_ms>
    9468:	eb00001c 	bl	94e0 <rpi_reboot>
    946c:	0000a620 	andeq	sl, r0, r0, lsr #12
    9470:	0000a418 	andeq	sl, r0, r8, lsl r4

00009474 <_cstart>:
    9474:	e92d4010 	push	{r4, lr}
    9478:	eb00000c 	bl	94b0 <custom_loader>
    947c:	e59f3024 	ldr	r3, [pc, #36]	; 94a8 <_cstart+0x34>
    9480:	e59f2024 	ldr	r2, [pc, #36]	; 94ac <_cstart+0x38>
    9484:	e1530002 	cmp	r3, r2
    9488:	33a02000 	movcc	r2, #0, 0
    948c:	34832004 	strcc	r2, [r3], #4
    9490:	3afffffa 	bcc	9480 <_cstart+0xc>
    9494:	eb000057 	bl	95f8 <uart_init>
    9498:	e3a03001 	mov	r3, #1, 0
    949c:	ee0f3f1c 	mcr	15, 0, r3, cr15, cr12, {0}
    94a0:	ebfffafe 	bl	80a0 <notmain>
    94a4:	ebffffe7 	bl	9448 <clean_reboot>
    94a8:	0000a638 	andeq	sl, r0, r8, lsr r6
    94ac:	0000aa68 	andeq	sl, r0, r8, ror #20

000094b0 <custom_loader>:
    94b0:	e12fff1e 	bx	lr

000094b4 <at_user_level>:
    94b4:	e10f0000 	mrs	r0, CPSR
    94b8:	e200001f 	and	r0, r0, #31, 0
    94bc:	e3500010 	cmp	r0, #16, 0
    94c0:	13a00000 	movne	r0, #0, 0
    94c4:	03a00001 	moveq	r0, #1, 0
    94c8:	e12fff1e 	bx	lr

000094cc <set_user_level>:
    94cc:	e10f3000 	mrs	r3, CPSR
    94d0:	e3c3301f 	bic	r3, r3, #31, 0
    94d4:	e3833010 	orr	r3, r3, #16, 0
    94d8:	e129f003 	msr	CPSR_fc, r3
    94dc:	e12fff1e 	bx	lr

000094e0 <rpi_reboot>:
    94e0:	e92d4010 	push	{r4, lr}
    94e4:	ebfffff2 	bl	94b4 <at_user_level>
    94e8:	e3500000 	cmp	r0, #0, 0
    94ec:	1a00000a 	bne	951c <rpi_reboot+0x3c>
    94f0:	eb0001d2 	bl	9c40 <reboot_callout>
    94f4:	eb00009d 	bl	9770 <uart_flush_tx>
    94f8:	e3a0000a 	mov	r0, #10, 0
    94fc:	eb000021 	bl	9588 <delay_ms>
    9500:	e59f101c 	ldr	r1, [pc, #28]	; 9524 <rpi_reboot+0x44>
    9504:	e59f001c 	ldr	r0, [pc, #28]	; 9528 <rpi_reboot+0x48>
    9508:	ebfffac5 	bl	8024 <PUT32>
    950c:	e59f1018 	ldr	r1, [pc, #24]	; 952c <rpi_reboot+0x4c>
    9510:	e59f0018 	ldr	r0, [pc, #24]	; 9530 <rpi_reboot+0x50>
    9514:	ebfffac2 	bl	8024 <PUT32>
    9518:	eafffffe 	b	9518 <rpi_reboot+0x38>
    951c:	ebffffea 	bl	94cc <set_user_level>
    9520:	eafffff2 	b	94f0 <rpi_reboot+0x10>
    9524:	5a000001 	bpl	9530 <rpi_reboot+0x50>
    9528:	20100024 	andscs	r0, r0, r4, lsr #32
    952c:	5a000020 	bpl	95b4 <delay_sec+0x14>
    9530:	2010001c 	andscs	r0, r0, ip, lsl r0

00009534 <timer_get_usec_raw>:
    9534:	e92d4010 	push	{r4, lr}
    9538:	e59f0004 	ldr	r0, [pc, #4]	; 9544 <timer_get_usec_raw+0x10>
    953c:	ebfffaba 	bl	802c <GET32>
    9540:	e8bd8010 	pop	{r4, pc}
    9544:	20003004 	andcs	r3, r0, r4

00009548 <timer_get_usec>:
    9548:	e92d4010 	push	{r4, lr}
    954c:	eb0001bc 	bl	9c44 <dev_barrier>
    9550:	ebfffff7 	bl	9534 <timer_get_usec_raw>
    9554:	e1a04000 	mov	r4, r0
    9558:	eb0001b9 	bl	9c44 <dev_barrier>
    955c:	e1a00004 	mov	r0, r4
    9560:	e8bd8010 	pop	{r4, pc}

00009564 <delay_us>:
    9564:	e92d4070 	push	{r4, r5, r6, lr}
    9568:	e1a05000 	mov	r5, r0
    956c:	ebfffff5 	bl	9548 <timer_get_usec>
    9570:	e1a04000 	mov	r4, r0
    9574:	ebfffff3 	bl	9548 <timer_get_usec>
    9578:	e0400004 	sub	r0, r0, r4
    957c:	e1500005 	cmp	r0, r5
    9580:	3afffffb 	bcc	9574 <delay_us+0x10>
    9584:	e8bd8070 	pop	{r4, r5, r6, pc}

00009588 <delay_ms>:
    9588:	e92d4010 	push	{r4, lr}
    958c:	e0603280 	rsb	r3, r0, r0, lsl #5
    9590:	e0800103 	add	r0, r0, r3, lsl #2
    9594:	e1a00180 	lsl	r0, r0, #3
    9598:	ebfffff1 	bl	9564 <delay_us>
    959c:	e8bd8010 	pop	{r4, pc}

000095a0 <delay_sec>:
    95a0:	e92d4010 	push	{r4, lr}
    95a4:	e0603280 	rsb	r3, r0, r0, lsl #5
    95a8:	e0800103 	add	r0, r0, r3, lsl #2
    95ac:	e1a00180 	lsl	r0, r0, #3
    95b0:	ebfffff4 	bl	9588 <delay_ms>
    95b4:	e8bd8010 	pop	{r4, pc}

000095b8 <and_in32>:
    95b8:	e92d4070 	push	{r4, r5, r6, lr}
    95bc:	e1a04000 	mov	r4, r0
    95c0:	e1a05001 	mov	r5, r1
    95c4:	ebfffa98 	bl	802c <GET32>
    95c8:	e0001005 	and	r1, r0, r5
    95cc:	e1a00004 	mov	r0, r4
    95d0:	ebfffa93 	bl	8024 <PUT32>
    95d4:	e8bd8070 	pop	{r4, r5, r6, pc}

000095d8 <or_in32>:
    95d8:	e92d4070 	push	{r4, r5, r6, lr}
    95dc:	e1a04000 	mov	r4, r0
    95e0:	e1a05001 	mov	r5, r1
    95e4:	ebfffa90 	bl	802c <GET32>
    95e8:	e1801005 	orr	r1, r0, r5
    95ec:	e1a00004 	mov	r0, r4
    95f0:	ebfffa8b 	bl	8024 <PUT32>
    95f4:	e8bd8070 	pop	{r4, r5, r6, pc}

000095f8 <uart_init>:
    95f8:	e92d4010 	push	{r4, lr}
    95fc:	e3a01002 	mov	r1, #2, 0
    9600:	e3a0000e 	mov	r0, #14, 0
    9604:	eb000194 	bl	9c5c <gpio_set_function>
    9608:	e3a01002 	mov	r1, #2, 0
    960c:	e3a0000f 	mov	r0, #15, 0
    9610:	eb000191 	bl	9c5c <gpio_set_function>
    9614:	eb00018a 	bl	9c44 <dev_barrier>
    9618:	e3a01001 	mov	r1, #1, 0
    961c:	e59f0064 	ldr	r0, [pc, #100]	; 9688 <uart_init+0x90>
    9620:	ebffffec 	bl	95d8 <or_in32>
    9624:	eb000186 	bl	9c44 <dev_barrier>
    9628:	e59f405c 	ldr	r4, [pc, #92]	; 968c <uart_init+0x94>
    962c:	e3a01000 	mov	r1, #0, 0
    9630:	e1a00004 	mov	r0, r4
    9634:	ebfffa7a 	bl	8024 <PUT32>
    9638:	e3a01000 	mov	r1, #0, 0
    963c:	e59f004c 	ldr	r0, [pc, #76]	; 9690 <uart_init+0x98>
    9640:	ebfffa77 	bl	8024 <PUT32>
    9644:	e3a01003 	mov	r1, #3, 0
    9648:	e59f0044 	ldr	r0, [pc, #68]	; 9694 <uart_init+0x9c>
    964c:	ebfffa74 	bl	8024 <PUT32>
    9650:	e3a01000 	mov	r1, #0, 0
    9654:	e59f003c 	ldr	r0, [pc, #60]	; 9698 <uart_init+0xa0>
    9658:	ebfffa71 	bl	8024 <PUT32>
    965c:	e3a010c7 	mov	r1, #199, 0	; 0xc7
    9660:	e59f0034 	ldr	r0, [pc, #52]	; 969c <uart_init+0xa4>
    9664:	ebfffa6e 	bl	8024 <PUT32>
    9668:	e59f1030 	ldr	r1, [pc, #48]	; 96a0 <uart_init+0xa8>
    966c:	e59f0030 	ldr	r0, [pc, #48]	; 96a4 <uart_init+0xac>
    9670:	ebfffa6b 	bl	8024 <PUT32>
    9674:	e3a01003 	mov	r1, #3, 0
    9678:	e1a00004 	mov	r0, r4
    967c:	ebfffa68 	bl	8024 <PUT32>
    9680:	eb00016f 	bl	9c44 <dev_barrier>
    9684:	e8bd8010 	pop	{r4, pc}
    9688:	20215004 	eorcs	r5, r1, r4
    968c:	20215060 	eorcs	r5, r1, r0, rrx
    9690:	20215044 	eorcs	r5, r1, r4, asr #32
    9694:	2021504c 	eorcs	r5, r1, ip, asr #32
    9698:	20215050 	eorcs	r5, r1, r0, asr r0
    969c:	20215048 	eorcs	r5, r1, r8, asr #32
    96a0:	0000010e 	andeq	r0, r0, lr, lsl #2
    96a4:	20215068 	eorcs	r5, r1, r8, rrx

000096a8 <uart_can_getc>:
    96a8:	e92d4010 	push	{r4, lr}
    96ac:	e59f0008 	ldr	r0, [pc, #8]	; 96bc <uart_can_getc+0x14>
    96b0:	ebfffa5d 	bl	802c <GET32>
    96b4:	e2000001 	and	r0, r0, #1, 0
    96b8:	e8bd8010 	pop	{r4, pc}
    96bc:	20215064 	eorcs	r5, r1, r4, rrx

000096c0 <uart_can_putc>:
    96c0:	e92d4010 	push	{r4, lr}
    96c4:	e59f0010 	ldr	r0, [pc, #16]	; 96dc <uart_can_putc+0x1c>
    96c8:	ebfffa57 	bl	802c <GET32>
    96cc:	e3100002 	tst	r0, #2, 0
    96d0:	13a00001 	movne	r0, #1, 0
    96d4:	03a00000 	moveq	r0, #0, 0
    96d8:	e8bd8010 	pop	{r4, pc}
    96dc:	20215064 	eorcs	r5, r1, r4, rrx

000096e0 <uart_getc>:
    96e0:	e92d4010 	push	{r4, lr}
    96e4:	eb000156 	bl	9c44 <dev_barrier>
    96e8:	ebffffee 	bl	96a8 <uart_can_getc>
    96ec:	e3500000 	cmp	r0, #0, 0
    96f0:	0afffffc 	beq	96e8 <uart_getc+0x8>
    96f4:	e59f0010 	ldr	r0, [pc, #16]	; 970c <uart_getc+0x2c>
    96f8:	ebfffa4b 	bl	802c <GET32>
    96fc:	e6ef4070 	uxtb	r4, r0
    9700:	eb00014f 	bl	9c44 <dev_barrier>
    9704:	e1a00004 	mov	r0, r4
    9708:	e8bd8010 	pop	{r4, pc}
    970c:	20215040 	eorcs	r5, r1, r0, asr #32

00009710 <uart_putc>:
    9710:	e92d4010 	push	{r4, lr}
    9714:	e1a04000 	mov	r4, r0
    9718:	eb000149 	bl	9c44 <dev_barrier>
    971c:	ebffffe7 	bl	96c0 <uart_can_putc>
    9720:	e3500000 	cmp	r0, #0, 0
    9724:	0afffffc 	beq	971c <uart_putc+0xc>
    9728:	e6ef1074 	uxtb	r1, r4
    972c:	e59f0008 	ldr	r0, [pc, #8]	; 973c <uart_putc+0x2c>
    9730:	ebfffa3b 	bl	8024 <PUT32>
    9734:	eb000142 	bl	9c44 <dev_barrier>
    9738:	e8bd8010 	pop	{r4, pc}
    973c:	20215040 	eorcs	r5, r1, r0, asr #32

00009740 <uart_has_data>:
    9740:	e92d4010 	push	{r4, lr}
    9744:	eb00013e 	bl	9c44 <dev_barrier>
    9748:	ebffffd6 	bl	96a8 <uart_can_getc>
    974c:	e8bd8010 	pop	{r4, pc}

00009750 <uart_tx_is_empty>:
    9750:	e92d4010 	push	{r4, lr}
    9754:	eb00013a 	bl	9c44 <dev_barrier>
    9758:	e59f000c 	ldr	r0, [pc, #12]	; 976c <uart_tx_is_empty+0x1c>
    975c:	ebfffa32 	bl	802c <GET32>
    9760:	e1a004a0 	lsr	r0, r0, #9
    9764:	e2000001 	and	r0, r0, #1, 0
    9768:	e8bd8010 	pop	{r4, pc}
    976c:	20215064 	eorcs	r5, r1, r4, rrx

00009770 <uart_flush_tx>:
    9770:	e92d4010 	push	{r4, lr}
    9774:	ebfffff5 	bl	9750 <uart_tx_is_empty>
    9778:	e3500000 	cmp	r0, #0, 0
    977c:	0afffffc 	beq	9774 <uart_flush_tx+0x4>
    9780:	e8bd8010 	pop	{r4, pc}

00009784 <uart_disable>:
    9784:	e92d4010 	push	{r4, lr}
    9788:	ebfffff8 	bl	9770 <uart_flush_tx>
    978c:	eb00012c 	bl	9c44 <dev_barrier>
    9790:	e3e01001 	mvn	r1, #1, 0
    9794:	e59f0008 	ldr	r0, [pc, #8]	; 97a4 <uart_disable+0x20>
    9798:	ebffff86 	bl	95b8 <and_in32>
    979c:	eb000128 	bl	9c44 <dev_barrier>
    97a0:	e8bd8010 	pop	{r4, pc}
    97a4:	20215004 	eorcs	r5, r1, r4

000097a8 <kmalloc_heap_end>:
    97a8:	e59f3004 	ldr	r3, [pc, #4]	; 97b4 <kmalloc_heap_end+0xc>
    97ac:	e5930000 	ldr	r0, [r3]
    97b0:	e12fff1e 	bx	lr
    97b4:	0000a624 	andeq	sl, r0, r4, lsr #12

000097b8 <kmalloc_heap_start>:
    97b8:	e59f3004 	ldr	r3, [pc, #4]	; 97c4 <kmalloc_heap_start+0xc>
    97bc:	e5930004 	ldr	r0, [r3, #4]
    97c0:	e12fff1e 	bx	lr
    97c4:	0000a624 	andeq	sl, r0, r4, lsr #12

000097c8 <kmalloc_heap_ptr>:
    97c8:	e59f3004 	ldr	r3, [pc, #4]	; 97d4 <kmalloc_heap_ptr+0xc>
    97cc:	e5930008 	ldr	r0, [r3, #8]
    97d0:	e12fff1e 	bx	lr
    97d4:	0000a624 	andeq	sl, r0, r4, lsr #12

000097d8 <kmalloc_init_set_start>:
    97d8:	e52de004 	push	{lr}		; (str lr, [sp, #-4]!)
    97dc:	e24dd00c 	sub	sp, sp, #12, 0
    97e0:	e3510000 	cmp	r1, #0, 0
    97e4:	0a00000a 	beq	9814 <kmalloc_init_set_start+0x3c>
    97e8:	e59f306c 	ldr	r3, [pc, #108]	; 985c <kmalloc_init_set_start+0x84>
    97ec:	e5933008 	ldr	r3, [r3, #8]
    97f0:	e1530000 	cmp	r3, r0
    97f4:	8a00000e 	bhi	9834 <kmalloc_init_set_start+0x5c>
    97f8:	e59f305c 	ldr	r3, [pc, #92]	; 985c <kmalloc_init_set_start+0x84>
    97fc:	e5830008 	str	r0, [r3, #8]
    9800:	e5830004 	str	r0, [r3, #4]
    9804:	e0800001 	add	r0, r0, r1
    9808:	e5830000 	str	r0, [r3]
    980c:	e28dd00c 	add	sp, sp, #12, 0
    9810:	e49df004 	pop	{pc}		; (ldr pc, [sp], #4)
    9814:	e59f3044 	ldr	r3, [pc, #68]	; 9860 <kmalloc_init_set_start+0x88>
    9818:	e58d3000 	str	r3, [sp]
    981c:	e3a03030 	mov	r3, #48, 0	; 0x30
    9820:	e59f203c 	ldr	r2, [pc, #60]	; 9864 <kmalloc_init_set_start+0x8c>
    9824:	e59f103c 	ldr	r1, [pc, #60]	; 9868 <kmalloc_init_set_start+0x90>
    9828:	e59f003c 	ldr	r0, [pc, #60]	; 986c <kmalloc_init_set_start+0x94>
    982c:	ebfffd12 	bl	8c7c <printk>
    9830:	ebffff04 	bl	9448 <clean_reboot>
    9834:	e59f3020 	ldr	r3, [pc, #32]	; 985c <kmalloc_init_set_start+0x84>
    9838:	e5933000 	ldr	r3, [r3]
    983c:	e58d3004 	str	r3, [sp, #4]
    9840:	e58d0000 	str	r0, [sp]
    9844:	e3a03034 	mov	r3, #52, 0	; 0x34
    9848:	e59f2014 	ldr	r2, [pc, #20]	; 9864 <kmalloc_init_set_start+0x8c>
    984c:	e59f1014 	ldr	r1, [pc, #20]	; 9868 <kmalloc_init_set_start+0x90>
    9850:	e59f0018 	ldr	r0, [pc, #24]	; 9870 <kmalloc_init_set_start+0x98>
    9854:	ebfffd08 	bl	8c7c <printk>
    9858:	ebfffefa 	bl	9448 <clean_reboot>
    985c:	0000a624 	andeq	sl, r0, r4, lsr #12
    9860:	0000a430 	andeq	sl, r0, r0, lsr r4
    9864:	0000a5bc 			; <UNDEFINED> instruction: 0x0000a5bc
    9868:	0000a424 	andeq	sl, r0, r4, lsr #8
    986c:	00009e78 	andeq	r9, r0, r8, ror lr
    9870:	0000a43c 	andeq	sl, r0, ip, lsr r4

00009874 <kmalloc_init>:
    9874:	e92d4010 	push	{r4, lr}
    9878:	e59f303c 	ldr	r3, [pc, #60]	; 98bc <kmalloc_init+0x48>
    987c:	e5933000 	ldr	r3, [r3]
    9880:	e3530000 	cmp	r3, #0, 0
    9884:	1a000006 	bne	98a4 <kmalloc_init+0x30>
    9888:	e59f302c 	ldr	r3, [pc, #44]	; 98bc <kmalloc_init+0x48>
    988c:	e3a02001 	mov	r2, #1, 0
    9890:	e5832000 	str	r2, [r3]
    9894:	e3a01201 	mov	r1, #268435456	; 0x10000000
    9898:	e3a00601 	mov	r0, #1048576	; 0x100000
    989c:	ebffffcd 	bl	97d8 <kmalloc_init_set_start>
    98a0:	e8bd8010 	pop	{r4, pc}
    98a4:	e3a03040 	mov	r3, #64, 0	; 0x40
    98a8:	e59f2010 	ldr	r2, [pc, #16]	; 98c0 <kmalloc_init+0x4c>
    98ac:	e59f1010 	ldr	r1, [pc, #16]	; 98c4 <kmalloc_init+0x50>
    98b0:	e59f0010 	ldr	r0, [pc, #16]	; 98c8 <kmalloc_init+0x54>
    98b4:	ebfffcf0 	bl	8c7c <printk>
    98b8:	ebfffee2 	bl	9448 <clean_reboot>
    98bc:	0000aa60 	andeq	sl, r0, r0, ror #20
    98c0:	0000a5d4 	ldrdeq	sl, [r0], -r4
    98c4:	0000a424 	andeq	sl, r0, r4, lsr #8
    98c8:	0000a480 	andeq	sl, r0, r0, lsl #9

000098cc <kmalloc_notzero>:
    98cc:	e52de004 	push	{lr}		; (str lr, [sp, #-4]!)
    98d0:	e24dd00c 	sub	sp, sp, #12, 0
    98d4:	e3500000 	cmp	r0, #0, 0
    98d8:	0a00000a 	beq	9908 <kmalloc_notzero+0x3c>
    98dc:	e2800007 	add	r0, r0, #7, 0
    98e0:	e3c03007 	bic	r3, r0, #7, 0
    98e4:	e59f2060 	ldr	r2, [pc, #96]	; 994c <kmalloc_notzero+0x80>
    98e8:	e5920008 	ldr	r0, [r2, #8]
    98ec:	e0801003 	add	r1, r0, r3
    98f0:	e5821008 	str	r1, [r2, #8]
    98f4:	e5922000 	ldr	r2, [r2]
    98f8:	e1510002 	cmp	r1, r2
    98fc:	8a000009 	bhi	9928 <kmalloc_notzero+0x5c>
    9900:	e28dd00c 	add	sp, sp, #12, 0
    9904:	e49df004 	pop	{pc}		; (ldr pc, [sp], #4)
    9908:	e59f3040 	ldr	r3, [pc, #64]	; 9950 <kmalloc_notzero+0x84>
    990c:	e58d3000 	str	r3, [sp]
    9910:	e3a03048 	mov	r3, #72, 0	; 0x48
    9914:	e59f2038 	ldr	r2, [pc, #56]	; 9954 <kmalloc_notzero+0x88>
    9918:	e59f1038 	ldr	r1, [pc, #56]	; 9958 <kmalloc_notzero+0x8c>
    991c:	e59f0038 	ldr	r0, [pc, #56]	; 995c <kmalloc_notzero+0x90>
    9920:	ebfffcd5 	bl	8c7c <printk>
    9924:	ebfffec7 	bl	9448 <clean_reboot>
    9928:	e0422000 	sub	r2, r2, r0
    992c:	e58d2004 	str	r2, [sp, #4]
    9930:	e58d3000 	str	r3, [sp]
    9934:	e3a0304e 	mov	r3, #78, 0	; 0x4e
    9938:	e59f2014 	ldr	r2, [pc, #20]	; 9954 <kmalloc_notzero+0x88>
    993c:	e59f1014 	ldr	r1, [pc, #20]	; 9958 <kmalloc_notzero+0x8c>
    9940:	e59f0018 	ldr	r0, [pc, #24]	; 9960 <kmalloc_notzero+0x94>
    9944:	ebfffccc 	bl	8c7c <printk>
    9948:	ebfffebe 	bl	9448 <clean_reboot>
    994c:	0000a624 	andeq	sl, r0, r4, lsr #12
    9950:	0000a434 	andeq	sl, r0, r4, lsr r4
    9954:	0000a5e4 	andeq	sl, r0, r4, ror #11
    9958:	0000a424 	andeq	sl, r0, r4, lsr #8
    995c:	00009e78 	andeq	r9, r0, r8, ror lr
    9960:	0000a4b0 			; <UNDEFINED> instruction: 0x0000a4b0

00009964 <kmalloc>:
    9964:	e92d4030 	push	{r4, r5, lr}
    9968:	e24dd00c 	sub	sp, sp, #12, 0
    996c:	e2504000 	subs	r4, r0, #0, 0
    9970:	0a000008 	beq	9998 <kmalloc+0x34>
    9974:	e1a00004 	mov	r0, r4
    9978:	ebffffd3 	bl	98cc <kmalloc_notzero>
    997c:	e1a05000 	mov	r5, r0
    9980:	e1a02004 	mov	r2, r4
    9984:	e3a01000 	mov	r1, #0, 0
    9988:	ebfffcb5 	bl	8c64 <memset>
    998c:	e1a00005 	mov	r0, r5
    9990:	e28dd00c 	add	sp, sp, #12, 0
    9994:	e8bd8030 	pop	{r4, r5, pc}
    9998:	e59f3018 	ldr	r3, [pc, #24]	; 99b8 <kmalloc+0x54>
    999c:	e58d3000 	str	r3, [sp]
    99a0:	e3a03054 	mov	r3, #84, 0	; 0x54
    99a4:	e59f2010 	ldr	r2, [pc, #16]	; 99bc <kmalloc+0x58>
    99a8:	e59f1010 	ldr	r1, [pc, #16]	; 99c0 <kmalloc+0x5c>
    99ac:	e59f0010 	ldr	r0, [pc, #16]	; 99c4 <kmalloc+0x60>
    99b0:	ebfffcb1 	bl	8c7c <printk>
    99b4:	ebfffea3 	bl	9448 <clean_reboot>
    99b8:	0000a434 	andeq	sl, r0, r4, lsr r4
    99bc:	0000a5f4 	strdeq	sl, [r0], -r4
    99c0:	0000a424 	andeq	sl, r0, r4, lsr #8
    99c4:	00009e78 	andeq	r9, r0, r8, ror lr

000099c8 <kmalloc_aligned>:
    99c8:	e52de004 	push	{lr}		; (str lr, [sp, #-4]!)
    99cc:	e24dd00c 	sub	sp, sp, #12, 0
    99d0:	e3500000 	cmp	r0, #0, 0
    99d4:	0a000014 	beq	9a2c <kmalloc_aligned+0x64>
    99d8:	e2613000 	rsb	r3, r1, #0, 0
    99dc:	e1d13003 	bics	r3, r1, r3
    99e0:	1a000019 	bne	9a4c <kmalloc_aligned+0x84>
    99e4:	e3510008 	cmp	r1, #8, 0
    99e8:	33a01008 	movcc	r1, #8, 0
    99ec:	e59f30c0 	ldr	r3, [pc, #192]	; 9ab4 <kmalloc_aligned+0xec>
    99f0:	e5932008 	ldr	r2, [r3, #8]
    99f4:	e2613000 	rsb	r3, r1, #0, 0
    99f8:	e1d1c003 	bics	ip, r1, r3
    99fc:	1a00001b 	bne	9a70 <kmalloc_aligned+0xa8>
    9a00:	e0822001 	add	r2, r2, r1
    9a04:	e2422001 	sub	r2, r2, #1, 0
    9a08:	e0033002 	and	r3, r3, r2
    9a0c:	e2411001 	sub	r1, r1, #1, 0
    9a10:	e1110003 	tst	r1, r3
    9a14:	1a00001d 	bne	9a90 <kmalloc_aligned+0xc8>
    9a18:	e59f2094 	ldr	r2, [pc, #148]	; 9ab4 <kmalloc_aligned+0xec>
    9a1c:	e5823008 	str	r3, [r2, #8]
    9a20:	ebffffcf 	bl	9964 <kmalloc>
    9a24:	e28dd00c 	add	sp, sp, #12, 0
    9a28:	e49df004 	pop	{pc}		; (ldr pc, [sp], #4)
    9a2c:	e59f3084 	ldr	r3, [pc, #132]	; 9ab8 <kmalloc_aligned+0xf0>
    9a30:	e58d3000 	str	r3, [sp]
    9a34:	e3a0305f 	mov	r3, #95, 0	; 0x5f
    9a38:	e59f207c 	ldr	r2, [pc, #124]	; 9abc <kmalloc_aligned+0xf4>
    9a3c:	e59f107c 	ldr	r1, [pc, #124]	; 9ac0 <kmalloc_aligned+0xf8>
    9a40:	e59f007c 	ldr	r0, [pc, #124]	; 9ac4 <kmalloc_aligned+0xfc>
    9a44:	ebfffc8c 	bl	8c7c <printk>
    9a48:	ebfffe7e 	bl	9448 <clean_reboot>
    9a4c:	eb000046 	bl	9b6c <rpi_reset_putc>
    9a50:	e59f3070 	ldr	r3, [pc, #112]	; 9ac8 <kmalloc_aligned+0x100>
    9a54:	e58d3000 	str	r3, [sp]
    9a58:	e3a03060 	mov	r3, #96, 0	; 0x60
    9a5c:	e59f2058 	ldr	r2, [pc, #88]	; 9abc <kmalloc_aligned+0xf4>
    9a60:	e59f1058 	ldr	r1, [pc, #88]	; 9ac0 <kmalloc_aligned+0xf8>
    9a64:	e59f0060 	ldr	r0, [pc, #96]	; 9acc <kmalloc_aligned+0x104>
    9a68:	ebfffc83 	bl	8c7c <printk>
    9a6c:	ebfffe75 	bl	9448 <clean_reboot>
    9a70:	e59f3058 	ldr	r3, [pc, #88]	; 9ad0 <kmalloc_aligned+0x108>
    9a74:	e58d3000 	str	r3, [sp]
    9a78:	e3a03011 	mov	r3, #17, 0
    9a7c:	e59f2050 	ldr	r2, [pc, #80]	; 9ad4 <kmalloc_aligned+0x10c>
    9a80:	e59f1038 	ldr	r1, [pc, #56]	; 9ac0 <kmalloc_aligned+0xf8>
    9a84:	e59f0038 	ldr	r0, [pc, #56]	; 9ac4 <kmalloc_aligned+0xfc>
    9a88:	ebfffc7b 	bl	8c7c <printk>
    9a8c:	ebfffe6d 	bl	9448 <clean_reboot>
    9a90:	eb000035 	bl	9b6c <rpi_reset_putc>
    9a94:	e59f303c 	ldr	r3, [pc, #60]	; 9ad8 <kmalloc_aligned+0x110>
    9a98:	e58d3000 	str	r3, [sp]
    9a9c:	e3a03068 	mov	r3, #104, 0	; 0x68
    9aa0:	e59f2014 	ldr	r2, [pc, #20]	; 9abc <kmalloc_aligned+0xf4>
    9aa4:	e59f1014 	ldr	r1, [pc, #20]	; 9ac0 <kmalloc_aligned+0xf8>
    9aa8:	e59f002c 	ldr	r0, [pc, #44]	; 9adc <kmalloc_aligned+0x114>
    9aac:	ebfffc72 	bl	8c7c <printk>
    9ab0:	ebfffe64 	bl	9448 <clean_reboot>
    9ab4:	0000a624 	andeq	sl, r0, r4, lsr #12
    9ab8:	0000a434 	andeq	sl, r0, r4, lsr r4
    9abc:	0000a5fc 	strdeq	sl, [r0], -ip
    9ac0:	0000a424 	andeq	sl, r0, r4, lsr #8
    9ac4:	00009e78 	andeq	r9, r0, r8, ror lr
    9ac8:	0000a524 	andeq	sl, r0, r4, lsr #10
    9acc:	0000a4f0 	strdeq	sl, [r0], -r0
    9ad0:	0000a538 	andeq	sl, r0, r8, lsr r5
    9ad4:	0000a60c 	andeq	sl, r0, ip, lsl #12
    9ad8:	0000a570 	andeq	sl, r0, r0, ror r5
    9adc:	0000a544 	andeq	sl, r0, r4, asr #10

00009ae0 <kfree>:
    9ae0:	e12fff1e 	bx	lr

00009ae4 <kfree_all>:
    9ae4:	e59f3008 	ldr	r3, [pc, #8]	; 9af4 <kfree_all+0x10>
    9ae8:	e5932004 	ldr	r2, [r3, #4]
    9aec:	e5832008 	str	r2, [r3, #8]
    9af0:	e12fff1e 	bx	lr
    9af4:	0000a624 	andeq	sl, r0, r4, lsr #12

00009af8 <kfree_pop>:
    9af8:	e59f3048 	ldr	r3, [pc, #72]	; 9b48 <kfree_pop+0x50>
    9afc:	e5933004 	ldr	r3, [r3, #4]
    9b00:	e1530000 	cmp	r3, r0
    9b04:	8a000006 	bhi	9b24 <kfree_pop+0x2c>
    9b08:	e59f3038 	ldr	r3, [pc, #56]	; 9b48 <kfree_pop+0x50>
    9b0c:	e5933000 	ldr	r3, [r3]
    9b10:	e1530000 	cmp	r3, r0
    9b14:	3a000002 	bcc	9b24 <kfree_pop+0x2c>
    9b18:	e59f3028 	ldr	r3, [pc, #40]	; 9b48 <kfree_pop+0x50>
    9b1c:	e5830008 	str	r0, [r3, #8]
    9b20:	e12fff1e 	bx	lr
    9b24:	e52de004 	push	{lr}		; (str lr, [sp, #-4]!)
    9b28:	e24dd00c 	sub	sp, sp, #12, 0
    9b2c:	e58d0000 	str	r0, [sp]
    9b30:	e3a03077 	mov	r3, #119, 0	; 0x77
    9b34:	e59f2010 	ldr	r2, [pc, #16]	; 9b4c <kfree_pop+0x54>
    9b38:	e59f1010 	ldr	r1, [pc, #16]	; 9b50 <kfree_pop+0x58>
    9b3c:	e59f0010 	ldr	r0, [pc, #16]	; 9b54 <kfree_pop+0x5c>
    9b40:	ebfffc4d 	bl	8c7c <printk>
    9b44:	ebfffe3f 	bl	9448 <clean_reboot>
    9b48:	0000a624 	andeq	sl, r0, r4, lsr #12
    9b4c:	0000a614 	andeq	sl, r0, r4, lsl r6
    9b50:	0000a424 	andeq	sl, r0, r4, lsr #8
    9b54:	0000a58c 	andeq	sl, r0, ip, lsl #11

00009b58 <internal_putchar>:
    9b58:	e92d4010 	push	{r4, lr}
    9b5c:	e1a04000 	mov	r4, r0
    9b60:	ebfffeea 	bl	9710 <uart_putc>
    9b64:	e1a00004 	mov	r0, r4
    9b68:	e8bd8010 	pop	{r4, pc}

00009b6c <rpi_reset_putc>:
    9b6c:	e59f3008 	ldr	r3, [pc, #8]	; 9b7c <rpi_reset_putc+0x10>
    9b70:	e59f2008 	ldr	r2, [pc, #8]	; 9b80 <rpi_reset_putc+0x14>
    9b74:	e5832000 	str	r2, [r3]
    9b78:	e12fff1e 	bx	lr
    9b7c:	0000a630 	andeq	sl, r0, r0, lsr r6
    9b80:	00009b58 	andeq	r9, r0, r8, asr fp

00009b84 <rpi_set_putc>:
    9b84:	e59f3004 	ldr	r3, [pc, #4]	; 9b90 <rpi_set_putc+0xc>
    9b88:	e5830000 	str	r0, [r3]
    9b8c:	e12fff1e 	bx	lr
    9b90:	0000a630 	andeq	sl, r0, r0, lsr r6

00009b94 <strcat>:
    9b94:	e1a02000 	mov	r2, r0
    9b98:	e1a03002 	mov	r3, r2
    9b9c:	e2822001 	add	r2, r2, #1, 0
    9ba0:	e5d3c000 	ldrb	ip, [r3]
    9ba4:	e35c0000 	cmp	ip, #0, 0
    9ba8:	1afffffa 	bne	9b98 <strcat+0x4>
    9bac:	e2433001 	sub	r3, r3, #1, 0
    9bb0:	e5d12000 	ldrb	r2, [r1]
    9bb4:	e2811001 	add	r1, r1, #1, 0
    9bb8:	e5e32001 	strb	r2, [r3, #1]!
    9bbc:	e3520000 	cmp	r2, #0, 0
    9bc0:	1afffffa 	bne	9bb0 <strcat+0x1c>
    9bc4:	e12fff1e 	bx	lr

00009bc8 <strcmp>:
    9bc8:	e5d03000 	ldrb	r3, [r0]
    9bcc:	e3530000 	cmp	r3, #0, 0
    9bd0:	0a000004 	beq	9be8 <strcmp+0x20>
    9bd4:	e5d12000 	ldrb	r2, [r1]
    9bd8:	e1530002 	cmp	r3, r2
    9bdc:	02800001 	addeq	r0, r0, #1, 0
    9be0:	02811001 	addeq	r1, r1, #1, 0
    9be4:	0afffff7 	beq	9bc8 <strcmp>
    9be8:	e5d10000 	ldrb	r0, [r1]
    9bec:	e0430000 	sub	r0, r3, r0
    9bf0:	e12fff1e 	bx	lr

00009bf4 <strcpy>:
    9bf4:	e1a0c000 	mov	ip, r0
    9bf8:	e5d12000 	ldrb	r2, [r1]
    9bfc:	e2811001 	add	r1, r1, #1, 0
    9c00:	e5cc2000 	strb	r2, [ip]
    9c04:	e28cc001 	add	ip, ip, #1, 0
    9c08:	e3520000 	cmp	r2, #0, 0
    9c0c:	1afffff9 	bne	9bf8 <strcpy+0x4>
    9c10:	e12fff1e 	bx	lr

00009c14 <strncmp>:
    9c14:	e3520000 	cmp	r2, #0, 0
    9c18:	e2422001 	sub	r2, r2, #1, 0
    9c1c:	0a000005 	beq	9c38 <strncmp+0x24>
    9c20:	e4d03001 	ldrb	r3, [r0], #1
    9c24:	e4d1c001 	ldrb	ip, [r1], #1
    9c28:	e153000c 	cmp	r3, ip
    9c2c:	0afffff8 	beq	9c14 <strncmp>
    9c30:	e043000c 	sub	r0, r3, ip
    9c34:	e12fff1e 	bx	lr
    9c38:	e3a00000 	mov	r0, #0, 0
    9c3c:	e12fff1e 	bx	lr

00009c40 <reboot_callout>:
    9c40:	e12fff1e 	bx	lr

00009c44 <dev_barrier>:
    9c44:	ea000002 	b	9c54 <dsb>

00009c48 <dmb>:
    9c48:	e3a00000 	mov	r0, #0, 0
    9c4c:	ee070fba 	mcr	15, 0, r0, cr7, cr10, {5}
    9c50:	e12fff1e 	bx	lr

00009c54 <dsb>:
    9c54:	ee070f9a 	mcr	15, 0, r0, cr7, cr10, {4}
    9c58:	e12fff1e 	bx	lr

00009c5c <gpio_set_function>:
    9c5c:	e350001f 	cmp	r0, #31, 0
    9c60:	812fff1e 	bxhi	lr
    9c64:	e92d4070 	push	{r4, r5, r6, lr}
    9c68:	e1a05001 	mov	r5, r1
    9c6c:	e3d13007 	bics	r3, r1, #7, 0
    9c70:	18bd8070 	popne	{r4, r5, r6, pc}
    9c74:	e59f3040 	ldr	r3, [pc, #64]	; 9cbc <gpio_set_function+0x60>
    9c78:	e0832093 	umull	r2, r3, r3, r0
    9c7c:	e1a031a3 	lsr	r3, r3, #3
    9c80:	e1a02003 	mov	r2, r3
    9c84:	e0833103 	add	r3, r3, r3, lsl #2
    9c88:	e0403083 	sub	r3, r0, r3, lsl #1
    9c8c:	e0834083 	add	r4, r3, r3, lsl #1
    9c90:	e2820302 	add	r0, r2, #134217728	; 0x8000000
    9c94:	e2800702 	add	r0, r0, #524288	; 0x80000
    9c98:	e1a06100 	lsl	r6, r0, #2
    9c9c:	e1a00006 	mov	r0, r6
    9ca0:	ebfff8e1 	bl	802c <GET32>
    9ca4:	e3a01007 	mov	r1, #7, 0
    9ca8:	e1c01411 	bic	r1, r0, r1, lsl r4
    9cac:	e1811415 	orr	r1, r1, r5, lsl r4
    9cb0:	e1a00006 	mov	r0, r6
    9cb4:	ebfff8da 	bl	8024 <PUT32>
    9cb8:	e8bd8070 	pop	{r4, r5, r6, pc}
    9cbc:	cccccccd 	stclgt	12, cr12, [ip], {205}	; 0xcd

00009cc0 <gpio_set_output>:
    9cc0:	e92d4010 	push	{r4, lr}
    9cc4:	e3a01001 	mov	r1, #1, 0
    9cc8:	ebffffe3 	bl	9c5c <gpio_set_function>
    9ccc:	e8bd8010 	pop	{r4, pc}

00009cd0 <gpio_set_on>:
    9cd0:	e350001f 	cmp	r0, #31, 0
    9cd4:	812fff1e 	bxhi	lr
    9cd8:	e92d4010 	push	{r4, lr}
    9cdc:	e3a01001 	mov	r1, #1, 0
    9ce0:	e1a01011 	lsl	r1, r1, r0
    9ce4:	e59f0004 	ldr	r0, [pc, #4]	; 9cf0 <gpio_set_on+0x20>
    9ce8:	ebfff8cd 	bl	8024 <PUT32>
    9cec:	e8bd8010 	pop	{r4, pc}
    9cf0:	2020001c 	eorcs	r0, r0, ip, lsl r0

00009cf4 <gpio_set_off>:
    9cf4:	e350001f 	cmp	r0, #31, 0
    9cf8:	812fff1e 	bxhi	lr
    9cfc:	e92d4010 	push	{r4, lr}
    9d00:	e3a01001 	mov	r1, #1, 0
    9d04:	e1a01011 	lsl	r1, r1, r0
    9d08:	e59f0004 	ldr	r0, [pc, #4]	; 9d14 <gpio_set_off+0x20>
    9d0c:	ebfff8c4 	bl	8024 <PUT32>
    9d10:	e8bd8010 	pop	{r4, pc}
    9d14:	20200028 	eorcs	r0, r0, r8, lsr #32

00009d18 <gpio_set_input>:
    9d18:	e92d4010 	push	{r4, lr}
    9d1c:	e3a01000 	mov	r1, #0, 0
    9d20:	ebffffcd 	bl	9c5c <gpio_set_function>
    9d24:	e8bd8010 	pop	{r4, pc}

00009d28 <gpio_write>:
    9d28:	e92d4010 	push	{r4, lr}
    9d2c:	e3510000 	cmp	r1, #0, 0
    9d30:	0a000001 	beq	9d3c <gpio_write+0x14>
    9d34:	ebffffe5 	bl	9cd0 <gpio_set_on>
    9d38:	e8bd8010 	pop	{r4, pc}
    9d3c:	ebffffec 	bl	9cf4 <gpio_set_off>
    9d40:	e8bd8010 	pop	{r4, pc}

00009d44 <gpio_read>:
    9d44:	e350001f 	cmp	r0, #31, 0
    9d48:	8a000007 	bhi	9d6c <gpio_read+0x28>
    9d4c:	e92d4010 	push	{r4, lr}
    9d50:	e200401f 	and	r4, r0, #31, 0
    9d54:	e59f3018 	ldr	r3, [pc, #24]	; 9d74 <gpio_read+0x30>
    9d58:	e08302a0 	add	r0, r3, r0, lsr #5
    9d5c:	ebfff8b2 	bl	802c <GET32>
    9d60:	e1a00430 	lsr	r0, r0, r4
    9d64:	e2000001 	and	r0, r0, #1, 0
    9d68:	e8bd8010 	pop	{r4, pc}
    9d6c:	e3e00000 	mvn	r0, #0, 0
    9d70:	e12fff1e 	bx	lr
    9d74:	20200034 	eorcs	r0, r0, r4, lsr r0

Disassembly of section .rodata:

00009d78 <__FUNCTION__.4018-0xe4>:
    9d78:	74736574 	ldrbtvc	r6, [r3], #-1396	; 0xfffffa8c
    9d7c:	61702f73 	cmnvs	r0, r3, ror pc
    9d80:	2d327472 	cfldrscs	mvf7, [r2, #-456]!	; 0xfffffe38
    9d84:	74736574 	ldrbtvc	r6, [r3], #-1396	; 0xfffffa8c
    9d88:	00632e36 	rsbeq	r2, r3, r6, lsr lr
    9d8c:	43415254 	movtmi	r5, #4692	; 0x1254
    9d90:	6c613a45 			; <UNDEFINED> instruction: 0x6c613a45
    9d94:	20636f6c 	rsbcs	r6, r3, ip, ror #30
    9d98:	75746572 	ldrbvc	r6, [r4, #-1394]!	; 0xfffffa8e
    9d9c:	64656e72 	strbtvs	r6, [r5], #-3698	; 0xfffff18e
    9da0:	0a702520 	beq	1c13228 <__bss_end__+0x1c087c0>
    9da4:	00000000 	andeq	r0, r0, r0
    9da8:	74204347 	strtvc	r4, [r0], #-839	; 0xfffffcb9
    9dac:	36747365 	ldrbtcc	r7, [r4], -r5, ror #6
    9db0:	0000000a 	andeq	r0, r0, sl
    9db4:	43415254 	movtmi	r5, #4692	; 0x1254
    9db8:	65743a45 	ldrbvs	r3, [r4, #-2629]!	; 0xfffff5bb
    9dbc:	20317473 	eorscs	r7, r1, r3, ror r4
    9dc0:	75746572 	ldrbvc	r6, [r4, #-1394]!	; 0xfffffa8e
    9dc4:	64656e72 	strbtvs	r6, [r5], #-3698	; 0xfffff18e
    9dc8:	0a702520 	beq	1c13250 <__bss_end__+0x1c087e8>
    9dcc:	00000000 	andeq	r0, r0, r0
    9dd0:	494e4150 	stmdbmi	lr, {r4, r6, r8, lr}^
    9dd4:	73253a43 			; <UNDEFINED> instruction: 0x73253a43
    9dd8:	3a73253a 	bcc	1cd32c8 <__bss_end__+0x1cc8860>
    9ddc:	733a6425 	teqvc	sl, #620756992	; 0x25000000
    9de0:	6c756f68 	ldclvs	15, cr6, [r5], #-416	; 0xfffffe60
    9de4:	61682064 	cmnvs	r8, r4, rrx
    9de8:	6e206576 	mcrvs	5, 1, r6, cr0, cr6, {3}
    9dec:	6564206f 	strbvs	r2, [r4, #-111]!	; 0xffffff91
    9df0:	696e6966 	stmdbvs	lr!, {r1, r2, r5, r6, r8, fp, sp, lr}^
    9df4:	6c206574 	cfstr32vs	mvfx6, [r0], #-464	; 0xfffffe30
    9df8:	736b6165 	cmnvc	fp, #1073741849	; 0x40000019
    9dfc:	000a0a21 	andeq	r0, sl, r1, lsr #20
    9e00:	43415254 	movtmi	r5, #4692	; 0x1254
    9e04:	55533a45 	ldrbpl	r3, [r3, #-2629]	; 0xfffff5bb
    9e08:	53454343 	movtpl	r4, #21315	; 0x5343
    9e0c:	64203a53 	strtvs	r3, [r0], #-2643	; 0xfffff5ad
    9e10:	63657465 	cmnvs	r5, #1694498816	; 0x65000000
    9e14:	20646574 	rsbcs	r6, r4, r4, ror r5
    9e18:	616d2061 	cmnvs	sp, r1, rrx
    9e1c:	20656279 	rsbcs	r6, r5, r9, ror r2
    9e20:	6b61656c 	blvs	18633d8 <__bss_end__+0x1858970>
    9e24:	00000a21 	andeq	r0, r0, r1, lsr #20
    9e28:	494e4150 	stmdbmi	lr, {r4, r6, r8, lr}^
    9e2c:	73253a43 			; <UNDEFINED> instruction: 0x73253a43
    9e30:	3a73253a 	bcc	1cd3320 <__bss_end__+0x1cc88b8>
    9e34:	733a6425 	teqvc	sl, #620756992	; 0x25000000
    9e38:	6c756f68 	ldclvs	15, cr6, [r5], #-416	; 0xfffffe60
    9e3c:	61682064 	cmnvs	r8, r4, rrx
    9e40:	66206576 			; <UNDEFINED> instruction: 0x66206576
    9e44:	646e756f 	strbtvs	r7, [lr], #-1391	; 0xfffffa91
    9e48:	6d206120 	stfvss	f6, [r0, #-128]!	; 0xffffff80
    9e4c:	65627961 	strbvs	r7, [r2, #-2401]!	; 0xfffff69f
    9e50:	61656c20 	cmnvs	r5, r0, lsr #24
    9e54:	0a0a216b 	beq	292408 <__bss_end__+0x2879a0>
    9e58:	00000000 	andeq	r0, r0, r0

00009e5c <__FUNCTION__.4018>:
    9e5c:	74736574 	ldrbtvc	r6, [r3], #-1396	; 0xfffffa8c
    9e60:	00000031 	andeq	r0, r0, r1, lsr r0

00009e64 <__FUNCTION__.4023>:
    9e64:	6d746f6e 	ldclvs	15, cr6, [r4, #-440]!	; 0xfffffe48
    9e68:	006e6961 	rsbeq	r6, lr, r1, ror #18
    9e6c:	6c616b63 			; <UNDEFINED> instruction: 0x6c616b63
    9e70:	2e636f6c 	cdpcs	15, 6, cr6, cr3, cr12, {3}
    9e74:	00000063 	andeq	r0, r0, r3, rrx
    9e78:	494e4150 	stmdbmi	lr, {r4, r6, r8, lr}^
    9e7c:	73253a43 			; <UNDEFINED> instruction: 0x73253a43
    9e80:	3a73253a 	bcc	1cd3370 <__bss_end__+0x1cc8908>
    9e84:	253a6425 	ldrcs	r6, [sl, #-1061]!	; 0xfffffbdb
    9e88:	00000a73 	andeq	r0, r0, r3, ror sl
    9e8c:	0000006c 	andeq	r0, r0, ip, rrx
    9e90:	494e4150 	stmdbmi	lr, {r4, r6, r8, lr}^
    9e94:	73253a43 			; <UNDEFINED> instruction: 0x73253a43
    9e98:	3a73253a 	bcc	1cd3388 <__bss_end__+0x1cc8920>
    9e9c:	643a6425 	ldrtvs	r6, [sl], #-1061	; 0xfffffbdb
    9ea0:	6e206469 	cdpvs	4, 2, cr6, cr0, cr9, {3}
    9ea4:	6620746f 	strtvs	r7, [r0], -pc, ror #8
    9ea8:	20646e69 	rsbcs	r6, r4, r9, ror #28
    9eac:	69207025 	stmdbvs	r0!, {r0, r2, r5, ip, sp, lr}
    9eb0:	696c206e 	stmdbvs	ip!, {r1, r2, r3, r5, r6, sp}^
    9eb4:	0a0a7473 	beq	2a7088 <__bss_end__+0x29c620>
    9eb8:	00000000 	andeq	r0, r0, r0
    9ebc:	5f434f4c 	svcpl	0x00434f4c
    9ec0:	494e4150 	stmdbmi	lr, {r4, r6, r8, lr}^
    9ec4:	25203a43 	strcs	r3, [r0, #-2627]!	; 0xfffff5bd
    9ec8:	73253a73 			; <UNDEFINED> instruction: 0x73253a73
    9ecc:	3a64253a 	bcc	19133bc <__bss_end__+0x1908954>
    9ed0:	00000000 	andeq	r0, r0, r0
    9ed4:	65657266 	strbvs	r7, [r5, #-614]!	; 0xfffffd9a
    9ed8:	20676e69 	rsbcs	r6, r7, r9, ror #28
    9edc:	6c616e75 	stclvs	14, cr6, [r1], #-468	; 0xfffffe2c
    9ee0:	61636f6c 	cmnvs	r3, ip, ror #30
    9ee4:	20646574 	rsbcs	r6, r4, r4, ror r5
    9ee8:	6f6d656d 	svcvs	0x006d656d
    9eec:	203a7972 	eorscs	r7, sl, r2, ror r9
    9ef0:	72646461 	rsbvc	r6, r4, #1627389952	; 0x61000000
    9ef4:	25203d20 	strcs	r3, [r0, #-3360]!	; 0xfffff2e0
    9ef8:	74732070 	ldrbtvc	r2, [r3], #-112	; 0xffffff90
    9efc:	3d657461 	cfstrdcc	mvd7, [r5, #-388]!	; 0xfffffe7c
    9f00:	000a6425 	andeq	r6, sl, r5, lsr #8
    9f04:	253a7325 	ldrcs	r7, [sl, #-805]!	; 0xfffffcdb
    9f08:	64253a73 	strtvs	r3, [r5], #-2675	; 0xfffff58d
    9f0c:	0000003a 	andeq	r0, r0, sl, lsr r0
    9f10:	65657266 	strbvs	r7, [r5, #-614]!	; 0xfffffd9a
    9f14:	20676e69 	rsbcs	r6, r7, r9, ror #28
    9f18:	000a7025 	andeq	r7, sl, r5, lsr #32
    9f1c:	705f6b63 	subsvc	r6, pc, r3, ror #22
    9f20:	695f7274 	ldmdbvs	pc, {r2, r4, r5, r6, r9, ip, sp, lr}^	; <UNPREDICTABLE>
    9f24:	6c615f73 	stclvs	15, cr5, [r1], #-460	; 0xfffffe34
    9f28:	65636f6c 	strbvs	r6, [r3, #-3948]!	; 0xfffff094
    9f2c:	64612864 	strbtvs	r2, [r1], #-2148	; 0xfffff79c
    9f30:	20297264 	eorcs	r7, r9, r4, ror #4
    9f34:	30203d21 	eorcc	r3, r0, r1, lsr #26
    9f38:	00000000 	andeq	r0, r0, r0
    9f3c:	5f6b6321 	svcpl	0x006b6321
    9f40:	5f727470 	svcpl	0x00727470
    9f44:	615f7369 	cmpvs	pc, r9, ror #6
    9f48:	636f6c6c 	cmnvs	pc, #108, 24	; 0x6c00
    9f4c:	61286465 			; <UNDEFINED> instruction: 0x61286465
    9f50:	29726464 	ldmdbcs	r2!, {r2, r5, r6, sl, sp, lr}^
    9f54:	00000000 	andeq	r0, r0, r0
    9f58:	6f6c6c61 	svcvs	0x006c6c61
    9f5c:	69746163 	ldmdbvs	r4!, {r0, r1, r5, r6, r8, sp, lr}^
    9f60:	2520676e 	strcs	r6, [r0, #-1902]!	; 0xfffff892
    9f64:	00000a70 	andeq	r0, r0, r0, ror sl

00009f68 <__FUNCTION__.4030>:
    9f68:	7473696c 	ldrbtvc	r6, [r3], #-2412	; 0xfffff694
    9f6c:	7070615f 	rsbsvc	r6, r0, pc, asr r1
    9f70:	00646e65 	rsbeq	r6, r4, r5, ror #28

00009f74 <__FUNCTION__.4020>:
    9f74:	7473696c 	ldrbtvc	r6, [r3], #-2412	; 0xfffff694
    9f78:	6d65725f 	sfmvs	f7, 2, [r5, #-380]!	; 0xfffffe84
    9f7c:	0065766f 	rsbeq	r7, r5, pc, ror #12

00009f80 <__FUNCTION__.4068>:
    9f80:	72666b63 	rsbvc	r6, r6, #101376	; 0x18c00
    9f84:	00006565 	andeq	r6, r0, r5, ror #10
    9f88:	2d2d2d2d 	stccs	13, cr2, [sp, #-180]!	; 0xffffff4c
    9f8c:	2d2d2d2d 	stccs	13, cr2, [sp, #-180]!	; 0xffffff4c
    9f90:	2d2d2d2d 	stccs	13, cr2, [sp, #-180]!	; 0xffffff4c
    9f94:	2d2d2d2d 	stccs	13, cr2, [sp, #-180]!	; 0xffffff4c
    9f98:	2d2d2d2d 	stccs	13, cr2, [sp, #-180]!	; 0xffffff4c
    9f9c:	2d2d2d2d 	stccs	13, cr2, [sp, #-180]!	; 0xffffff4c
    9fa0:	2d2d2d2d 	stccs	13, cr2, [sp, #-180]!	; 0xffffff4c
    9fa4:	2d2d2d2d 	stccs	13, cr2, [sp, #-180]!	; 0xffffff4c
    9fa8:	2d2d2d2d 	stccs	13, cr2, [sp, #-180]!	; 0xffffff4c
    9fac:	2d2d2d2d 	stccs	13, cr2, [sp, #-180]!	; 0xffffff4c
    9fb0:	2d2d2d2d 	stccs	13, cr2, [sp, #-180]!	; 0xffffff4c
    9fb4:	2d2d2d2d 	stccs	13, cr2, [sp, #-180]!	; 0xffffff4c
    9fb8:	2d2d2d2d 	stccs	13, cr2, [sp, #-180]!	; 0xffffff4c
    9fbc:	2d2d2d2d 	stccs	13, cr2, [sp, #-180]!	; 0xffffff4c
    9fc0:	00000a2d 	andeq	r0, r0, sp, lsr #20
    9fc4:	63656863 	cmnvs	r5, #6488064	; 0x630000
    9fc8:	676e696b 	strbvs	r6, [lr, -fp, ror #18]!
    9fcc:	726f6620 	rsbvc	r6, pc, #32, 12	; 0x2000000
    9fd0:	61656c20 	cmnvs	r5, r0, lsr #24
    9fd4:	0a3a736b 	beq	ea6d88 <__bss_end__+0xe9c320>
    9fd8:	00000000 	andeq	r0, r0, r0
    9fdc:	43415254 	movtmi	r5, #4692	; 0x1254
    9fe0:	656c3a45 	strbvs	r3, [ip, #-2629]!	; 0xfffff5bb
    9fe4:	66206b61 	strtvs	r6, [r0], -r1, ror #22
    9fe8:	646e756f 	strbtvs	r7, [lr], #-1391	; 0xfffffa91
    9fec:	726f6620 	rsbvc	r6, pc, #32, 12	; 0x2000000
    9ff0:	6f6c6220 	svcvs	0x006c6220
    9ff4:	203a6b63 	eorscs	r6, sl, r3, ror #22
    9ff8:	000a7825 	andeq	r7, sl, r5, lsr #16
    9ffc:	43415254 	movtmi	r5, #4692	; 0x1254
    a000:	47093a45 	strmi	r3, [r9, -r5, asr #20]
    a004:	68433a43 	stmdavs	r3, {r0, r1, r6, r9, fp, ip, sp}^
    a008:	656b6365 	strbvs	r6, [fp, #-869]!	; 0xfffffc9b
    a00c:	64252064 	strtvs	r2, [r5], #-100	; 0xffffff9c
    a010:	6f6c6220 	svcvs	0x006c6220
    a014:	2e736b63 	vsubcs.f64	d22, d3, d19
    a018:	0000000a 	andeq	r0, r0, sl
    a01c:	43415254 	movtmi	r5, #4692	; 0x1254
    a020:	09093a45 	stmdbeq	r9, {r0, r2, r6, r9, fp, ip, sp}
    a024:	533a4347 	teqpl	sl, #469762049	; 0x1c000001
    a028:	45434355 	strbmi	r4, [r3, #-853]	; 0xfffffcab
    a02c:	203a5353 	eorscs	r5, sl, r3, asr r3
    a030:	6c206f4e 	stcvs	15, cr6, [r0], #-312	; 0xfffffec8
    a034:	736b6165 	cmnvc	fp, #1073741849	; 0x40000019
    a038:	756f6620 	strbvc	r6, [pc, #-1568]!	; 9a20 <kmalloc_aligned+0x58>
    a03c:	0a21646e 	beq	8631fc <__bss_end__+0x858794>
    a040:	00000000 	andeq	r0, r0, r0
    a044:	43415254 	movtmi	r5, #4692	; 0x1254
    a048:	09093a45 	stmdbeq	r9, {r0, r2, r6, r9, fp, ip, sp}
    a04c:	453a4347 	ldrmi	r4, [sl, #-839]!	; 0xfffffcb9
    a050:	524f5252 	subpl	r5, pc, #536870917	; 0x20000005
    a054:	25203a53 	strcs	r3, [r0, #-2643]!	; 0xfffff5ad
    a058:	72652064 	rsbvc	r2, r5, #100, 0	; 0x64
    a05c:	73726f72 	cmnvc	r2, #456	; 0x1c8
    a060:	6425202c 	strtvs	r2, [r5], #-44	; 0xffffffd4
    a064:	79616d20 	stmdbvc	r1!, {r5, r8, sl, fp, sp, lr}^
    a068:	655f6562 	ldrbvs	r6, [pc, #-1378]	; 9b0e <kfree_pop+0x16>
    a06c:	726f7272 	rsbvc	r7, pc, #536870919	; 0x20000007
    a070:	00000a73 	andeq	r0, r0, r3, ror sl
    a074:	2d2d2d2d 	stccs	13, cr2, [sp, #-180]!	; 0xffffff4c
    a078:	2d2d2d2d 	stccs	13, cr2, [sp, #-180]!	; 0xffffff4c
    a07c:	2d2d2d2d 	stccs	13, cr2, [sp, #-180]!	; 0xffffff4c
    a080:	2d2d2d2d 	stccs	13, cr2, [sp, #-180]!	; 0xffffff4c
    a084:	2d2d2d2d 	stccs	13, cr2, [sp, #-180]!	; 0xffffff4c
    a088:	2d2d2d2d 	stccs	13, cr2, [sp, #-180]!	; 0xffffff4c
    a08c:	2d2d2d2d 	stccs	13, cr2, [sp, #-180]!	; 0xffffff4c
    a090:	2d2d2d2d 	stccs	13, cr2, [sp, #-180]!	; 0xffffff4c
    a094:	2d2d2d2d 	stccs	13, cr2, [sp, #-180]!	; 0xffffff4c
    a098:	2d2d2d2d 	stccs	13, cr2, [sp, #-180]!	; 0xffffff4c
    a09c:	2d2d2d2d 	stccs	13, cr2, [sp, #-180]!	; 0xffffff4c
    a0a0:	2d2d2d2d 	stccs	13, cr2, [sp, #-180]!	; 0xffffff4c
    a0a4:	2d2d2d2d 	stccs	13, cr2, [sp, #-180]!	; 0xffffff4c
    a0a8:	2d2d2d2d 	stccs	13, cr2, [sp, #-180]!	; 0xffffff4c
    a0ac:	000a2d2d 	andeq	r2, sl, sp, lsr #26
    a0b0:	706d6f63 	rsbvc	r6, sp, r3, ror #30
    a0b4:	69746361 	ldmdbvs	r4!, {r0, r5, r6, r8, r9, sp, lr}^
    a0b8:	0a3a676e 	beq	ea3e78 <__bss_end__+0xe99410>
    a0bc:	00000000 	andeq	r0, r0, r0
    a0c0:	43415254 	movtmi	r5, #4692	; 0x1254
    a0c4:	656c3a45 	strbvs	r3, [ip, #-2629]!	; 0xfffff5bb
    a0c8:	66206b61 	strtvs	r6, [r0], -r1, ror #22
    a0cc:	646e756f 	strbtvs	r7, [lr], #-1391	; 0xfffffa91
    a0d0:	726f6620 	rsbvc	r6, pc, #32, 12	; 0x2000000
    a0d4:	6f6c6220 	svcvs	0x006c6220
    a0d8:	203a6b63 	eorscs	r6, sl, r3, ror #22
    a0dc:	202e7825 	eorcs	r7, lr, r5, lsr #16
    a0e0:	65657246 	strbvs	r7, [r5, #-582]!	; 0xfffffdba
    a0e4:	2e676e69 	cdpcs	14, 6, cr6, cr7, cr9, {3}
    a0e8:	0000000a 	andeq	r0, r0, sl
    a0ec:	43415254 	movtmi	r5, #4692	; 0x1254
    a0f0:	47093a45 	strmi	r3, [r9, -r5, asr #20]
    a0f4:	68433a43 	stmdavs	r3, {r0, r1, r6, r9, fp, ip, sp}^
    a0f8:	656b6365 	strbvs	r6, [fp, #-869]!	; 0xfffffc9b
    a0fc:	64252064 	strtvs	r2, [r5], #-100	; 0xffffff9c
    a100:	6f6c6220 	svcvs	0x006c6220
    a104:	2c736b63 			; <UNDEFINED> instruction: 0x2c736b63
    a108:	65726620 	ldrbvs	r6, [r2, #-1568]!	; 0xfffff9e0
    a10c:	25206465 	strcs	r6, [r0, #-1125]!	; 0xfffffb9b
    a110:	25202c64 	strcs	r2, [r0, #-3172]!	; 0xfffff39c
    a114:	79622064 	stmdbvc	r2!, {r2, r5, r6, sp}^
    a118:	0a736574 	beq	1ce36f0 <__bss_end__+0x1cd8c88>
    a11c:	00000000 	andeq	r0, r0, r0
    a120:	672d6b63 	strvs	r6, [sp, -r3, ror #22]!
    a124:	00632e63 	rsbeq	r2, r3, r3, ror #28
    a128:	00653c70 	rsbeq	r3, r5, r0, ror ip
    a12c:	67696c61 	strbvs	r6, [r9, -r1, ror #24]!
    a130:	2864656e 	stmdacs	r4!, {r1, r2, r3, r5, r6, r8, sl, sp, lr}^
    a134:	29342c70 	ldmdbcs	r4!, {r4, r5, r6, sl, fp, sp}
    a138:	00000000 	andeq	r0, r0, r0
    a13c:	67696c61 	strbvs	r6, [r9, -r1, ror #24]!
    a140:	2864656e 	stmdacs	r4!, {r1, r2, r3, r5, r6, r8, sl, sp, lr}^
    a144:	29342c65 	ldmdbcs	r4!, {r0, r2, r5, r6, sl, fp, sp}
    a148:	00000000 	andeq	r0, r0, r0
    a14c:	43415254 	movtmi	r5, #4692	; 0x1254
    a150:	6e693a45 	vnmulvs.f32	s7, s18, s10
    a154:	72627320 	rsbvc	r7, r2, #32, 6	; 0x80000000
    a158:	00000a6b 	andeq	r0, r0, fp, ror #20
    a15c:	72636e69 	rsbvc	r6, r3, #1680	; 0x690
    a160:	6e656d65 	cdpvs	13, 6, cr6, cr5, cr5, {3}
    a164:	203e2074 	eorscs	r2, lr, r4, ror r0
    a168:	00000030 	andeq	r0, r0, r0, lsr r0
    a16c:	494e4150 	stmdbmi	lr, {r4, r6, r8, lr}^
    a170:	73253a43 			; <UNDEFINED> instruction: 0x73253a43
    a174:	3a73253a 	bcc	1cd3664 <__bss_end__+0x1cc8bfc>
    a178:	6e3a6425 	cdpvs	4, 3, cr6, cr10, cr5, {1}
    a17c:	6820746f 	stmdavs	r0!, {r0, r1, r2, r3, r5, r6, sl, ip, sp, lr}
    a180:	6c646e61 	stclvs	14, cr6, [r4], #-388	; 0xfffffe7c
    a184:	0a676e69 	beq	19e5b30 <__bss_end__+0x19db0c8>
    a188:	0000000a 	andeq	r0, r0, sl
    a18c:	43415254 	movtmi	r5, #4692	; 0x1254
    a190:	614d3a45 	cmpvs	sp, r5, asr #20
    a194:	6e696b72 	vmovvs.8	d9[7], r6
    a198:	2e2e2e67 	cdpcs	14, 2, cr2, cr14, cr7, {3}
    a19c:	00000000 	andeq	r0, r0, r0
    a1a0:	656e6f44 	strbvs	r6, [lr, #-3908]!	; 0xfffff0bc
    a1a4:	00000a21 	andeq	r0, r0, r1, lsr #20
    a1a8:	494e4150 	stmdbmi	lr, {r4, r6, r8, lr}^
    a1ac:	73253a43 			; <UNDEFINED> instruction: 0x73253a43
    a1b0:	3a73253a 	bcc	1cd36a0 <__bss_end__+0x1cc8c38>
    a1b4:	473a6425 	ldrmi	r6, [sl, -r5, lsr #8]!
    a1b8:	73203a43 			; <UNDEFINED> instruction: 0x73203a43
    a1bc:	6c756f68 	ldclvs	15, cr6, [r5], #-416	; 0xfffffe60
    a1c0:	61682064 	cmnvs	r8, r4, rrx
    a1c4:	6e206576 	mcrvs	5, 1, r6, cr0, cr6, {3}
    a1c8:	656c206f 	strbvs	r2, [ip, #-111]!	; 0xffffff91
    a1cc:	21736b61 	cmncs	r3, r1, ror #22
    a1d0:	00000a0a 	andeq	r0, r0, sl, lsl #20
    a1d4:	43415254 	movtmi	r5, #4692	; 0x1254
    a1d8:	43473a45 	movtmi	r3, #31301	; 0x7a45
    a1dc:	5553203a 	ldrbpl	r2, [r3, #-58]	; 0xffffffc6
    a1e0:	53454343 	movtpl	r4, #21315	; 0x5343
    a1e4:	6e203a53 			; <UNDEFINED> instruction: 0x6e203a53
    a1e8:	656c206f 	strbvs	r2, [ip, #-111]!	; 0xffffff91
    a1ec:	21736b61 	cmncs	r3, r1, ror #22
    a1f0:	0000000a 	andeq	r0, r0, sl
    a1f4:	494e4150 	stmdbmi	lr, {r4, r6, r8, lr}^
    a1f8:	73253a43 			; <UNDEFINED> instruction: 0x73253a43
    a1fc:	3a73253a 	bcc	1cd36ec <__bss_end__+0x1cc8c84>
    a200:	473a6425 	ldrmi	r6, [sl, -r5, lsr #8]!
    a204:	73203a43 			; <UNDEFINED> instruction: 0x73203a43
    a208:	6c756f68 	ldclvs	15, cr6, [r5], #-416	; 0xfffffe60
    a20c:	61682064 	cmnvs	r8, r4, rrx
    a210:	6c206576 	cfstr32vs	mvfx6, [r0], #-472	; 0xfffffe28
    a214:	736b6165 	cmnvc	fp, #1073741849	; 0x40000019
    a218:	000a0a21 	andeq	r0, sl, r1, lsr #20
    a21c:	43415254 	movtmi	r5, #4692	; 0x1254
    a220:	43473a45 	movtmi	r3, #31301	; 0x7a45
    a224:	5553203a 	ldrbpl	r2, [r3, #-58]	; 0xffffffc6
    a228:	53454343 	movtpl	r4, #21315	; 0x5343
    a22c:	66203a53 			; <UNDEFINED> instruction: 0x66203a53
    a230:	646e756f 	strbtvs	r7, [lr], #-1391	; 0xfffffa91
    a234:	20642520 	rsbcs	r2, r4, r0, lsr #10
    a238:	6b61656c 	blvs	18637f0 <__bss_end__+0x1858d88>
    a23c:	000a2173 	andeq	r2, sl, r3, ror r1
    a240:	494e4150 	stmdbmi	lr, {r4, r6, r8, lr}^
    a244:	73253a43 			; <UNDEFINED> instruction: 0x73253a43
    a248:	3a73253a 	bcc	1cd3738 <__bss_end__+0x1cc8cd0>
    a24c:	643a6425 	ldrtvs	r6, [sl], #-1061	; 0xfffffbdb
    a250:	6e206469 	cdpvs	4, 2, cr6, cr0, cr9, {3}
    a254:	6920746f 	stmdbvs	r0!, {r0, r1, r2, r3, r5, r6, sl, ip, sp, lr}
    a258:	656c706d 	strbvs	r7, [ip, #-109]!	; 0xffffff93
    a25c:	746e656d 	strbtvc	r6, [lr], #-1389	; 0xfffffa93
    a260:	6d756420 	cfldrdvs	mvd6, [r5, #-128]!	; 0xffffff80
    a264:	65725f70 	ldrbvs	r5, [r2, #-3952]!	; 0xfffff090
    a268:	0a217367 	beq	86700c <__bss_end__+0x85c5a4>
    a26c:	0000000a 	andeq	r0, r0, sl

0000a270 <__FUNCTION__.4033>:
    a270:	6b72616d 	blvs	1ca282c <__bss_end__+0x1c97dc4>
    a274:	00000000 	andeq	r0, r0, r0

0000a278 <__FUNCTION__.4020>:
    a278:	6b726273 	blvs	1ca2c4c <__bss_end__+0x1c981e4>
    a27c:	00000000 	andeq	r0, r0, r0

0000a280 <__FUNCTION__.4078>:
    a280:	63656863 	cmnvs	r5, #6488064	; 0x630000
    a284:	6f6e5f6b 	svcvs	0x006e5f6b
    a288:	61656c5f 	cmnvs	r5, pc, asr ip
    a28c:	0000006b 	andeq	r0, r0, fp, rrx

0000a290 <__FUNCTION__.4083>:
    a290:	63656863 	cmnvs	r5, #6488064	; 0x630000
    a294:	68735f6b 	ldmdavs	r3!, {r0, r1, r3, r5, r6, r8, r9, sl, fp, ip, lr}^
    a298:	646c756f 	strbtvs	r7, [ip], #-1391	; 0xfffffa91
    a29c:	61656c5f 	cmnvs	r5, pc, asr ip
    a2a0:	0000006b 	andeq	r0, r0, fp, rrx

0000a2a4 <__FUNCTION__.4101>:
    a2a4:	6c706d69 	ldclvs	13, cr6, [r0], #-420	; 0xfffffe5c
    a2a8:	6e656d65 	cdpvs	13, 6, cr6, cr5, cr5, {3}
    a2ac:	68745f74 	ldmdavs	r4!, {r2, r4, r5, r6, r8, r9, sl, fp, ip, lr}^
    a2b0:	00007369 	andeq	r7, r0, r9, ror #6
    a2b4:	696c2f2e 	stmdbvs	ip!, {r1, r2, r3, r5, r8, r9, sl, fp, sp}^
    a2b8:	762f6362 	strtvc	r6, [pc], -r2, ror #6
    a2bc:	72702d61 	rsbsvc	r2, r0, #6208	; 0x1840
    a2c0:	6b746e69 	blvs	1d25c6c <__bss_end__+0x1d1b204>
    a2c4:	0000632e 	andeq	r6, r0, lr, lsr #6
    a2c8:	33323130 	teqcc	r2, #12
    a2cc:	37363534 			; <UNDEFINED> instruction: 0x37363534
    a2d0:	00003938 	andeq	r3, r0, r8, lsr r9
    a2d4:	33323130 	teqcc	r2, #12
    a2d8:	37363534 			; <UNDEFINED> instruction: 0x37363534
    a2dc:	62613938 	rsbvs	r3, r1, #56, 18	; 0xe0000
    a2e0:	66656463 	strbtvs	r6, [r5], -r3, ror #8
    a2e4:	00000000 	andeq	r0, r0, r0
    a2e8:	00003130 	andeq	r3, r0, r0, lsr r1
    a2ec:	63747570 	cmnvs	r4, #112, 10	; 0x1c000000
    a2f0:	0070665f 	rsbseq	r6, r0, pc, asr r6
    a2f4:	74646977 	strbtvc	r6, [r4], #-2423	; 0xfffff689
    a2f8:	203c2068 	eorscs	r2, ip, r8, rrx
    a2fc:	00003233 	andeq	r3, r0, r3, lsr r2
    a300:	00786c6c 	rsbseq	r6, r8, ip, ror #24
    a304:	00646c6c 	rsbeq	r6, r4, ip, ror #24
    a308:	253d3078 	ldrcs	r3, [sp, #-120]!	; 0xffffff88
    a30c:	00000a78 	andeq	r0, r0, r8, ror sl
    a310:	253d3178 	ldrcs	r3, [sp, #-376]!	; 0xfffffe88
    a314:	00000a78 	andeq	r0, r0, r8, ror sl
    a318:	6e727473 	mrcvs	4, 3, r7, cr2, cr3, {3}
    a31c:	28706d63 	ldmdacs	r0!, {r0, r1, r5, r6, r8, sl, fp, sp, lr}^
    a320:	202c7974 	eorcs	r7, ip, r4, ror r9
    a324:	786c6c22 	stmdavc	ip!, {r1, r5, sl, fp, sp, lr}^
    a328:	33202c22 			; <UNDEFINED> instruction: 0x33202c22
    a32c:	3d3d2029 	ldccc	0, cr2, [sp, #-164]!	; 0xffffff5c
    a330:	7c203020 	stcvc	0, cr3, [r0], #-128	; 0xffffff80
    a334:	7473207c 	ldrbtvc	r2, [r3], #-124	; 0xffffff84
    a338:	6d636e72 	stclvs	14, cr6, [r3, #-456]!	; 0xfffffe38
    a33c:	79742870 	ldmdbvc	r4!, {r4, r5, r6, fp, sp}^
    a340:	6c22202c 	stcvs	0, cr2, [r2], #-176	; 0xffffff50
    a344:	2c22646c 	cfstrscs	mvf6, [r2], #-432	; 0xfffffe50
    a348:	20293320 	eorcs	r3, r9, r0, lsr #6
    a34c:	30203d3d 	eorcc	r3, r0, sp, lsr sp
    a350:	00000000 	andeq	r0, r0, r0
    a354:	494e4150 	stmdbmi	lr, {r4, r6, r8, lr}^
    a358:	73253a43 			; <UNDEFINED> instruction: 0x73253a43
    a35c:	3a73253a 	bcc	1cd384c <__bss_end__+0x1cc8de4>
    a360:	693a6425 	ldmdbvs	sl!, {r0, r2, r5, sl, sp, lr}
    a364:	736f706d 	cmnvc	pc, #109, 0	; 0x6d
    a368:	6c626973 			; <UNDEFINED> instruction: 0x6c626973
    a36c:	66203a65 	strtvs	r3, [r0], -r5, ror #20
    a370:	3c3d746d 	cfldrscc	mvf7, [sp], #-436	; 0xfffffe4c
    a374:	0a3e7325 	beq	fa7010 <__bss_end__+0xf9c5a8>
    a378:	0000000a 	andeq	r0, r0, sl
    a37c:	494e4150 	stmdbmi	lr, {r4, r6, r8, lr}^
    a380:	73253a43 			; <UNDEFINED> instruction: 0x73253a43
    a384:	3a73253a 	bcc	1cd3874 <__bss_end__+0x1cc8e0c>
    a388:	663a6425 	ldrtvs	r6, [sl], -r5, lsr #8
    a38c:	74616f6c 	strbtvc	r6, [r1], #-3948	; 0xfffff094
    a390:	746f6e20 	strbtvc	r6, [pc], #-3616	; a398 <__FUNCTION__.4101+0xf4>
    a394:	616e6520 	cmnvs	lr, r0, lsr #10
    a398:	64656c62 	strbtvs	r6, [r5], #-3170	; 0xfffff39e
    a39c:	0a212121 	beq	852828 <__bss_end__+0x847dc0>
    a3a0:	00000000 	andeq	r0, r0, r0
    a3a4:	6e697270 	mcrvs	2, 3, r7, cr9, cr0, {3}
    a3a8:	203a6b74 	eorscs	r6, sl, r4, ror fp
    a3ac:	20746f6e 	rsbscs	r6, r4, lr, ror #30
    a3b0:	646e6168 	strbtvs	r6, [lr], #-360	; 0xfffffe98
    a3b4:	676e696c 	strbvs	r6, [lr, -ip, ror #18]!
    a3b8:	65707320 	ldrbvs	r7, [r0, #-800]!	; 0xfffffce0
    a3bc:	69666963 	stmdbvs	r6!, {r0, r1, r5, r6, r8, fp, sp, lr}^
    a3c0:	27207265 	strcs	r7, [r0, -r5, ror #4]!
    a3c4:	20276325 	eorcs	r6, r7, r5, lsr #6
    a3c8:	63736128 	cmnvs	r3, #10
    a3cc:	253d6969 	ldrcs	r6, [sp, #-2409]!	; 0xfffff697
    a3d0:	000a2964 	andeq	r2, sl, r4, ror #18
    a3d4:	494e4150 	stmdbmi	lr, {r4, r6, r8, lr}^
    a3d8:	73253a43 			; <UNDEFINED> instruction: 0x73253a43
    a3dc:	3a73253a 	bcc	1cd38cc <__bss_end__+0x1cc8e64>
    a3e0:	703a6425 	eorsvc	r6, sl, r5, lsr #8
    a3e4:	746e6972 	strbtvc	r6, [lr], #-2418	; 0xfffff68e
    a3e8:	7265206b 	rsbvc	r2, r5, #107, 0	; 0x6b
    a3ec:	0a726f72 	beq	1ca61bc <__bss_end__+0x1c9b754>
    a3f0:	0000000a 	andeq	r0, r0, sl

0000a3f4 <__FUNCTION__.4008>:
    a3f4:	74696d65 	strbtvc	r6, [r9], #-3429	; 0xfffff29b
    a3f8:	00000000 	andeq	r0, r0, r0

0000a3fc <__FUNCTION__.3956>:
    a3fc:	5f697072 	svcpl	0x00697072
    a400:	5f746573 	svcpl	0x00746573
    a404:	7074756f 	rsbsvc	r7, r4, pc, ror #10
    a408:	00007475 	andeq	r7, r0, r5, ror r4

0000a40c <__FUNCTION__.4034>:
    a40c:	705f6176 	subsvc	r6, pc, r6, ror r1	; <UNPREDICTABLE>
    a410:	746e6972 	strbtvc	r6, [lr], #-2418	; 0xfffff68e
    a414:	0000006b 	andeq	r0, r0, fp, rrx
    a418:	454e4f44 	strbmi	r4, [lr, #-3908]	; 0xfffff0bc
    a41c:	0a212121 	beq	8528a8 <__bss_end__+0x847e40>
    a420:	00000000 	andeq	r0, r0, r0
    a424:	6c616d6b 	stclvs	13, cr6, [r1], #-428	; 0xfffffe54
    a428:	2e636f6c 	cdpcs	15, 6, cr6, cr3, cr12, {3}
    a42c:	00000063 	andeq	r0, r0, r3, rrx
    a430:	5f78616d 	svcpl	0x0078616d
    a434:	7479626e 	ldrbtvc	r6, [r9], #-622	; 0xfffffd92
    a438:	00007365 	andeq	r7, r0, r5, ror #6
    a43c:	494e4150 	stmdbmi	lr, {r4, r6, r8, lr}^
    a440:	73253a43 			; <UNDEFINED> instruction: 0x73253a43
    a444:	3a73253a 	bcc	1cd3934 <__bss_end__+0x1cc8ecc>
    a448:	733a6425 	teqvc	sl, #620756992	; 0x25000000
    a44c:	69747465 	ldmdbvs	r4!, {r0, r2, r5, r6, sl, ip, sp, lr}^
    a450:	6820676e 	stmdavs	r0!, {r1, r2, r3, r5, r6, r8, r9, sl, sp, lr}
    a454:	20706165 	rsbscs	r6, r0, r5, ror #2
    a458:	25206f74 	strcs	r6, [r0, #-3956]!	; 0xfffff08c
    a45c:	77203a70 			; <UNDEFINED> instruction: 0x77203a70
    a460:	206c6c69 	rsbcs	r6, ip, r9, ror #24
    a464:	20746968 	rsbscs	r6, r4, r8, ror #18
    a468:	20656874 	rsbcs	r6, r5, r4, ror r8
    a46c:	20646c6f 	rsbcs	r6, r4, pc, ror #24
    a470:	70616568 	rsbvc	r6, r1, r8, ror #10
    a474:	20746120 	rsbscs	r6, r4, r0, lsr #2
    a478:	0a0a7025 	beq	2a6514 <__bss_end__+0x29baac>
    a47c:	00000000 	andeq	r0, r0, r0
    a480:	494e4150 	stmdbmi	lr, {r4, r6, r8, lr}^
    a484:	73253a43 			; <UNDEFINED> instruction: 0x73253a43
    a488:	3a73253a 	bcc	1cd3978 <__bss_end__+0x1cc8f10>
    a48c:	613a6425 	teqvs	sl, r5, lsr #8
    a490:	6165726c 	cmnvs	r5, ip, ror #4
    a494:	63207964 			; <UNDEFINED> instruction: 0x63207964
    a498:	656c6c61 	strbvs	r6, [ip, #-3169]!	; 0xfffff39f
    a49c:	6d6b2064 	stclvs	0, cr2, [fp, #-400]!	; 0xfffffe70
    a4a0:	6f6c6c61 	svcvs	0x006c6c61
    a4a4:	6e695f63 	cdpvs	15, 6, cr5, cr9, cr3, {3}
    a4a8:	0a0a7469 	beq	2a7654 <__bss_end__+0x29cbec>
    a4ac:	00000000 	andeq	r0, r0, r0
    a4b0:	494e4150 	stmdbmi	lr, {r4, r6, r8, lr}^
    a4b4:	73253a43 			; <UNDEFINED> instruction: 0x73253a43
    a4b8:	3a73253a 	bcc	1cd39a8 <__bss_end__+0x1cc8f40>
    a4bc:	253a6425 	ldrcs	r6, [sl, #-1061]!	; 0xfffffbdb
    a4c0:	626e2064 	rsbvs	r2, lr, #100, 0	; 0x64
    a4c4:	73657479 	cmnvc	r5, #2030043136	; 0x79000000
    a4c8:	63786520 	cmnvs	r8, #32, 10	; 0x8000000
    a4cc:	65646565 	strbvs	r6, [r4, #-1381]!	; 0xfffffa9b
    a4d0:	69732064 	ldmdbvs	r3!, {r2, r5, r6, sp}^
    a4d4:	6f20657a 	svcvs	0x0020657a
    a4d8:	65682066 	strbvs	r2, [r8, #-102]!	; 0xffffff9a
    a4dc:	62207061 	eorvs	r7, r0, #97, 0	; 0x61
    a4e0:	75252079 	strvc	r2, [r5, #-121]!	; 0xffffff87
    a4e4:	79626e20 	stmdbvc	r2!, {r5, r9, sl, fp, sp, lr}^
    a4e8:	0a736574 	beq	1ce3ac0 <__bss_end__+0x1cd9058>
    a4ec:	0000000a 	andeq	r0, r0, sl
    a4f0:	4f525245 	svcmi	0x00525245
    a4f4:	73253a52 			; <UNDEFINED> instruction: 0x73253a52
    a4f8:	3a73253a 	bcc	1cd39e8 <__bss_end__+0x1cc8f80>
    a4fc:	203a6425 	eorscs	r6, sl, r5, lsr #8
    a500:	534c4146 	movtpl	r4, #49478	; 0xc146
    a504:	253c2845 	ldrcs	r2, [ip, #-2117]!	; 0xfffff7bb
    a508:	3a293e73 	bcc	a59edc <__bss_end__+0xa4f474>
    a50c:	73736120 	cmnvc	r3, #8
    a510:	6e696d75 	mcrvs	13, 3, r6, cr9, cr5, {3}
    a514:	6f702067 	svcvs	0x00702067
    a518:	20726577 	rsbscs	r6, r2, r7, ror r5
    a51c:	7420666f 	strtvc	r6, [r0], #-1647	; 0xfffff991
    a520:	000a6f77 	andeq	r6, sl, r7, ror pc
    a524:	705f7369 	subsvc	r7, pc, r9, ror #6
    a528:	2832776f 	ldmdacs	r2!, {r0, r1, r2, r3, r5, r6, r8, r9, sl, ip, sp, lr}
    a52c:	67696c61 	strbvs	r6, [r9, -r1, ror #24]!
    a530:	6e656d6e 	cdpvs	13, 6, cr6, cr5, cr14, {3}
    a534:	00002974 	andeq	r2, r0, r4, ror r9
    a538:	705f7369 	subsvc	r7, pc, r9, ror #6
    a53c:	2832776f 	ldmdacs	r2!, {r0, r1, r2, r3, r5, r6, r8, r9, sl, ip, sp, lr}
    a540:	0000296e 	andeq	r2, r0, lr, ror #18
    a544:	4f525245 	svcmi	0x00525245
    a548:	73253a52 			; <UNDEFINED> instruction: 0x73253a52
    a54c:	3a73253a 	bcc	1cd3a3c <__bss_end__+0x1cc8fd4>
    a550:	203a6425 	eorscs	r6, sl, r5, lsr #8
    a554:	534c4146 	movtpl	r4, #49478	; 0xc146
    a558:	253c2845 	ldrcs	r2, [ip, #-2117]!	; 0xfffff7bb
    a55c:	3a293e73 	bcc	a59f30 <__bss_end__+0xa4f4c8>
    a560:	706d6920 	rsbvc	r6, sp, r0, lsr #18
    a564:	6973736f 	ldmdbvs	r3!, {r0, r1, r2, r3, r5, r6, r8, r9, ip, sp, lr}^
    a568:	0a656c62 	beq	19656f8 <__bss_end__+0x195ac90>
    a56c:	00000000 	andeq	r0, r0, r0
    a570:	615f7369 	cmpvs	pc, r9, ror #6
    a574:	6e67696c 	vnmulvs.f16	s13, s14, s25	; <UNPREDICTABLE>
    a578:	68286465 	stmdavs	r8!, {r0, r2, r5, r6, sl, sp, lr}
    a57c:	6c61202c 	stclvs	0, cr2, [r1], #-176	; 0xffffff50
    a580:	6d6e6769 	stclvs	7, cr6, [lr, #-420]!	; 0xfffffe5c
    a584:	29746e65 	ldmdbcs	r4!, {r0, r2, r5, r6, r9, sl, fp, sp, lr}^
    a588:	00000000 	andeq	r0, r0, r0
    a58c:	494e4150 	stmdbmi	lr, {r4, r6, r8, lr}^
    a590:	73253a43 			; <UNDEFINED> instruction: 0x73253a43
    a594:	3a73253a 	bcc	1cd3a84 <__bss_end__+0x1cc901c>
    a598:	703a6425 	eorsvc	r6, sl, r5, lsr #8
    a59c:	746e696f 	strbtvc	r6, [lr], #-2415	; 0xfffff691
    a5a0:	25207265 	strcs	r7, [r0, #-613]!	; 0xfffffd9b
    a5a4:	61772070 	cmnvs	r7, r0, ror r0
    a5a8:	656e2073 	strbvs	r2, [lr, #-115]!	; 0xffffff8d
    a5ac:	20726576 	rsbscs	r6, r2, r6, ror r5
    a5b0:	6f6c6c61 	svcvs	0x006c6c61
    a5b4:	65746163 	ldrbvs	r6, [r4, #-355]!	; 0xfffffe9d
    a5b8:	000a0a64 	andeq	r0, sl, r4, ror #20

0000a5bc <__FUNCTION__.7>:
    a5bc:	6c616d6b 	stclvs	13, cr6, [r1], #-428	; 0xfffffe54
    a5c0:	5f636f6c 	svcpl	0x00636f6c
    a5c4:	74696e69 	strbtvc	r6, [r9], #-3689	; 0xfffff197
    a5c8:	7465735f 	strbtvc	r7, [r5], #-863	; 0xfffffca1
    a5cc:	6174735f 	cmnvs	r4, pc, asr r3
    a5d0:	00007472 	andeq	r7, r0, r2, ror r4

0000a5d4 <__FUNCTION__.5>:
    a5d4:	6c616d6b 	stclvs	13, cr6, [r1], #-428	; 0xfffffe54
    a5d8:	5f636f6c 	svcpl	0x00636f6c
    a5dc:	74696e69 	strbtvc	r6, [r9], #-3689	; 0xfffff197
    a5e0:	00000000 	andeq	r0, r0, r0

0000a5e4 <__FUNCTION__.4>:
    a5e4:	6c616d6b 	stclvs	13, cr6, [r1], #-428	; 0xfffffe54
    a5e8:	5f636f6c 	svcpl	0x00636f6c
    a5ec:	7a746f6e 	bvc	1d263ac <__bss_end__+0x1d1b944>
    a5f0:	006f7265 	rsbeq	r7, pc, r5, ror #4

0000a5f4 <__FUNCTION__.2>:
    a5f4:	6c616d6b 	stclvs	13, cr6, [r1], #-428	; 0xfffffe54
    a5f8:	00636f6c 	rsbeq	r6, r3, ip, ror #30

0000a5fc <__FUNCTION__.1>:
    a5fc:	6c616d6b 	stclvs	13, cr6, [r1], #-428	; 0xfffffe54
    a600:	5f636f6c 	svcpl	0x00636f6c
    a604:	67696c61 	strbvs	r6, [r9, -r1, ror #24]!
    a608:	0064656e 	rsbeq	r6, r4, lr, ror #10

0000a60c <__FUNCTION__.3>:
    a60c:	6e756f72 	mrcvs	15, 3, r6, cr5, cr2, {3}
    a610:	00707564 	rsbseq	r7, r0, r4, ror #10

0000a614 <__FUNCTION__.0>:
    a614:	6572666b 	ldrbvs	r6, [r2, #-1643]!	; 0xfffff995
    a618:	6f705f65 	svcvs	0x00705f65
    a61c:	Address 0x000000000000a61c is out of bounds.


Disassembly of section .data:

0000a620 <putk>:
    a620:	00008cd4 	ldrdeq	r8, [r0], -r4

0000a624 <heap_end>:
    a624:	0020aa68 	eoreq	sl, r0, r8, ror #20

0000a628 <heap_start>:
    a628:	0000aa68 	andeq	sl, r0, r8, ror #20

0000a62c <heap>:
    a62c:	0000aa68 	andeq	sl, r0, r8, ror #20

0000a630 <rpi_putchar>:
    a630:	00009b58 	andeq	r9, r0, r8, asr fp

Disassembly of section .bss:

0000a638 <__bss_start__>:
    a638:	00000000 	andeq	r0, r0, r0

0000a63c <alloc_list>:
    a63c:	00000000 	andeq	r0, r0, r0

0000a640 <heap_start>:
    a640:	00000000 	andeq	r0, r0, r0

0000a644 <heap_end>:
    a644:	00000000 	andeq	r0, r0, r0

0000a648 <init_p>:
	...

0000a650 <freep>:
	...

0000a658 <base>:
	...

0000a660 <buf.3948>:
	...

0000aa60 <init_p.6>:
	...

Disassembly of section .ARM.attributes:

00000000 <.ARM.attributes>:
   0:	00002a41 	andeq	r2, r0, r1, asr #20
   4:	61656100 	cmnvs	r5, r0, lsl #2
   8:	01006962 	tsteq	r0, r2, ror #18
   c:	00000020 	andeq	r0, r0, r0, lsr #32
  10:	4b5a3605 	blmi	168d82c <__bss_end__+0x1682dc4>
  14:	08070600 	stmdaeq	r7, {r9, sl}
  18:	12010901 	andne	r0, r1, #16384	; 0x4000
  1c:	15011404 	strne	r1, [r1, #-1028]	; 0xfffffbfc
  20:	18031701 	stmdane	r3, {r0, r8, r9, sl, ip}
  24:	22011a01 	andcs	r1, r1, #4096	; 0x1000
  28:	Address 0x0000000000000028 is out of bounds.


Disassembly of section .comment:

00000000 <.comment>:
   0:	3a434347 	bcc	10d0d24 <__bss_end__+0x10c62bc>
   4:	4e472820 	cdpmi	8, 4, cr2, cr7, cr0, {1}
   8:	6f542055 	svcvs	0x00542055
   c:	20736c6f 	rsbscs	r6, r3, pc, ror #24
  10:	20726f66 	rsbscs	r6, r2, r6, ror #30
  14:	206d7241 	rsbcs	r7, sp, r1, asr #4
  18:	65626d45 	strbvs	r6, [r2, #-3397]!	; 0xfffff2bb
  1c:	64656464 	strbtvs	r6, [r5], #-1124	; 0xfffffb9c
  20:	6f725020 	svcvs	0x00725020
  24:	73736563 	cmnvc	r3, #415236096	; 0x18c00000
  28:	2073726f 	rsbscs	r7, r3, pc, ror #4
  2c:	30322d39 	eorscc	r2, r2, r9, lsr sp
  30:	712d3931 			; <UNDEFINED> instruction: 0x712d3931
  34:	616d2d34 	cmnvs	sp, r4, lsr sp
  38:	29726f6a 	ldmdbcs	r2!, {r1, r3, r5, r6, r8, r9, sl, fp, sp, lr}^
  3c:	322e3920 	eorcc	r3, lr, #32, 18	; 0x80000
  40:	3220312e 	eorcc	r3, r0, #-2147483637	; 0x8000000b
  44:	31393130 	teqcc	r9, r0, lsr r1
  48:	20353230 	eorscs	r3, r5, r0, lsr r2
  4c:	6c657228 	sfmvs	f7, 2, [r5], #-160	; 0xffffff60
  50:	65736165 	ldrbvs	r6, [r3, #-357]!	; 0xfffffe9b
  54:	415b2029 	cmpmi	fp, r9, lsr #32
  58:	612f4d52 			; <UNDEFINED> instruction: 0x612f4d52
  5c:	392d6d72 	pushcc	{r1, r4, r5, r6, r8, sl, fp, sp, lr}
  60:	6172622d 	cmnvs	r2, sp, lsr #4
  64:	2068636e 	rsbcs	r6, r8, lr, ror #6
  68:	69766572 	ldmdbvs	r6!, {r1, r4, r5, r6, r8, sl, sp, lr}^
  6c:	6e6f6973 			; <UNDEFINED> instruction: 0x6e6f6973
  70:	37373220 	ldrcc	r3, [r7, -r0, lsr #4]!
  74:	5d393935 			; <UNDEFINED> instruction: 0x5d393935
  78:	43434700 	movtmi	r4, #14080	; 0x3700
  7c:	4728203a 			; <UNDEFINED> instruction: 0x4728203a
  80:	4120554e 			; <UNDEFINED> instruction: 0x4120554e
  84:	45206d72 	strmi	r6, [r0, #-3442]!	; 0xfffff28e
  88:	6465626d 	strbtvs	r6, [r5], #-621	; 0xfffffd93
  8c:	20646564 	rsbcs	r6, r4, r4, ror #10
  90:	6c6f6f54 	stclvs	15, cr6, [pc], #-336	; ffffff48 <__bss_end__+0xffff54e0>
  94:	69616863 	stmdbvs	r1!, {r0, r1, r5, r6, fp, sp, lr}^
  98:	3031206e 	eorscc	r2, r1, lr, rrx
  9c:	322d332e 	eorcc	r3, sp, #-1207959552	; 0xb8000000
  a0:	2e313230 	mrccs	2, 1, r3, cr1, cr0, {1}
  a4:	20293031 	eorcs	r3, r9, r1, lsr r0
  a8:	332e3031 			; <UNDEFINED> instruction: 0x332e3031
  ac:	3220312e 	eorcc	r3, r0, #-2147483637	; 0x8000000b
  b0:	30313230 	eorscc	r3, r1, r0, lsr r2
  b4:	20343238 	eorscs	r3, r4, r8, lsr r2
  b8:	6c657228 	sfmvs	f7, 2, [r5], #-160	; 0xffffff60
  bc:	65736165 	ldrbvs	r6, [r3, #-357]!	; 0xfffffe9b
  c0:	Address 0x00000000000000c0 is out of bounds.


Disassembly of section .debug_info:

00000000 <.debug_info>:
       0:	00000445 	andeq	r0, r0, r5, asr #8
       4:	00000004 	andeq	r0, r0, r4
       8:	01040000 	mrseq	r0, (UNDEF: 4)
       c:	00000195 	muleq	r0, r5, r1
      10:	00004d0c 	andeq	r4, r0, ip, lsl #26
      14:	0000fd00 	andeq	pc, r0, r0, lsl #26
      18:	00803800 	addeq	r3, r0, r0, lsl #16
      1c:	0000fc00 	andeq	pc, r0, r0, lsl #24
      20:	00000000 	andeq	r0, r0, r0
      24:	05040200 	streq	r0, [r4, #-512]	; 0xfffffe00
      28:	00746e69 	rsbseq	r6, r4, r9, ror #28
      2c:	df070403 	svcle	0x00070403
      30:	03000000 	movweq	r0, #0
      34:	00950601 	addseq	r0, r5, r1, lsl #12
      38:	02030000 	andeq	r0, r3, #0, 0
      3c:	00016f05 	andeq	r6, r1, r5, lsl #30
      40:	05040300 	streq	r0, [r4, #-768]	; 0xfffffd00
      44:	0000015a 	andeq	r0, r0, sl, asr r1
      48:	55050803 	strpl	r0, [r5, #-2051]	; 0xfffff7fd
      4c:	03000001 	movweq	r0, #1
      50:	00930801 	addseq	r0, r3, r1, lsl #16
      54:	83040000 	movwhi	r0, #16384	; 0x4000
      58:	03000001 	movweq	r0, #1
      5c:	00621931 	rsbeq	r1, r2, r1, lsr r9
      60:	02030000 	andeq	r0, r3, #0, 0
      64:	00006e07 	andeq	r6, r0, r7, lsl #28
      68:	018c0400 	orreq	r0, ip, r0, lsl #8
      6c:	34030000 	strcc	r0, [r3], #-0
      70:	00007519 	andeq	r7, r0, r9, lsl r5
      74:	07040300 	streq	r0, [r4, -r0, lsl #6]
      78:	000000da 	ldrdeq	r0, [r0], -sl
      7c:	d5070803 	strle	r0, [r7, #-2051]	; 0xfffff7fd
      80:	05000000 	streq	r0, [r0, #-0]
      84:	00000025 	andeq	r0, r0, r5, lsr #32
      88:	00000092 	muleq	r0, r2, r0
      8c:	00002506 	andeq	r2, r0, r6, lsl #10
      90:	63070000 	movwvs	r0, #28672	; 0x7000
      94:	04000001 	streq	r0, [r0], #-1
      98:	009e0e1c 	addseq	r0, lr, ip, lsl lr
      9c:	04080000 	streq	r0, [r8], #-0
      a0:	00000083 	andeq	r0, r0, r3, lsl #1
      a4:	00002505 	andeq	r2, r0, r5, lsl #10
      a8:	0000b300 	andeq	fp, r0, r0, lsl #6
      ac:	00b30600 	adcseq	r0, r3, r0, lsl #12
      b0:	08000000 	stmdaeq	r0, {}	; <UNPREDICTABLE>
      b4:	0000c004 	andeq	ip, r0, r4
      b8:	08010300 	stmdaeq	r1, {r8, r9}
      bc:	0000009c 	muleq	r0, ip, r0
      c0:	0000b909 	andeq	fp, r0, r9, lsl #18
      c4:	06510700 	ldrbeq	r0, [r1], -r0, lsl #14
      c8:	21040000 	mrscs	r0, (UNDEF: 4)
      cc:	0000d10e 	andeq	sp, r0, lr, lsl #2
      d0:	a4040800 	strge	r0, [r4], #-2048	; 0xfffff800
      d4:	0a000000 	beq	dc <__code_start__-0x7f24>
      d8:	0904020c 	stmdbeq	r4, {r2, r3, r9}
      dc:	00000108 	andeq	r0, r0, r8, lsl #2
      e0:	0000480b 	andeq	r4, r0, fp, lsl #16
      e4:	11060200 	mrsne	r0, LR_usr
      e8:	000000b3 	strheq	r0, [r0], -r3
      ec:	00a80b00 	adceq	r0, r8, r0, lsl #22
      f0:	07020000 	streq	r0, [r2, -r0]
      f4:	0000b311 	andeq	fp, r0, r1, lsl r3
      f8:	190b0400 	stmdbne	fp, {sl}
      fc:	02000000 	andeq	r0, r0, #0, 0
     100:	002c0e08 	eoreq	r0, ip, r8, lsl #28
     104:	00080000 	andeq	r0, r8, r0
     108:	00017904 	andeq	r7, r1, r4, lsl #18
     10c:	03090200 	movweq	r0, #37376	; 0x9200
     110:	000000d7 	ldrdeq	r0, [r0], -r7
     114:	0000810c 	andeq	r8, r0, ip, lsl #2
     118:	0f052400 	svceq	0x00052400
     11c:	00018a10 	andeq	r8, r1, r0, lsl sl
     120:	00060b00 	andeq	r0, r6, r0, lsl #22
     124:	10050000 	andne	r0, r5, r0
     128:	00018a14 	andeq	r8, r1, r4, lsl sl
     12c:	3b0b0000 	blcc	2c0134 <__bss_end__+0x2b56cc>
     130:	05000000 	streq	r0, [r0, #-0]
     134:	00690e11 	rsbeq	r0, r9, r1, lsl lr
     138:	0b040000 	bleq	100140 <__bss_end__+0xf56d8>
     13c:	00000013 	andeq	r0, r0, r3, lsl r0
     140:	690e1205 	stmdbvs	lr, {r0, r2, r9, ip}
     144:	08000000 	stmdaeq	r0, {}	; <UNPREDICTABLE>
     148:	0000ec0b 	andeq	lr, r0, fp, lsl #24
     14c:	0f140500 	svceq	0x00140500
     150:	00000108 	andeq	r0, r0, r8, lsl #2
     154:	024a0b0c 	subeq	r0, sl, #12, 22	; 0x3000
     158:	17050000 	strne	r0, [r5, -r0]
     15c:	0000690e 	andeq	r6, r0, lr, lsl #18
     160:	550b1800 	strpl	r1, [fp, #-2048]	; 0xfffff800
     164:	05000002 	streq	r0, [r0, #-2]
     168:	00690e18 	rsbeq	r0, r9, r8, lsl lr
     16c:	0b1c0000 	bleq	700174 <__bss_end__+0x6f570c>
     170:	0000002e 	andeq	r0, r0, lr, lsr #32
     174:	560e1a05 	strpl	r1, [lr], -r5, lsl #20
     178:	20000000 	andcs	r0, r0, r0
     17c:	0000f60b 	andeq	pc, r0, fp, lsl #12
     180:	0b1b0500 	bleq	6c1588 <__bss_end__+0x6b6b20>
     184:	00000056 	andeq	r0, r0, r6, asr r0
     188:	04080022 	streq	r0, [r8], #-34	; 0xffffffde
     18c:	00000114 	andeq	r0, r0, r4, lsl r1
     190:	00000004 	andeq	r0, r0, r4
     194:	031c0500 	tsteq	ip, #0, 10
     198:	00000114 	andeq	r0, r0, r4, lsl r1
     19c:	0000c00d 	andeq	ip, r0, sp
     1a0:	0f1e0500 	svceq	0x001e0500
     1a4:	000001a8 	andeq	r0, r0, r8, lsr #3
     1a8:	01900408 	orrseq	r0, r0, r8, lsl #8
     1ac:	cb0e0000 	blgt	3801b4 <__bss_end__+0x37574c>
     1b0:	05000000 	streq	r0, [r0, #-0]
     1b4:	01a80f1f 			; <UNDEFINED> instruction: 0x01a80f1f
     1b8:	0f000000 	svceq	0x00000000
     1bc:	00000033 	andeq	r0, r0, r3, lsr r0
     1c0:	a0060d01 	andge	r0, r6, r1, lsl #26
     1c4:	94000080 	strls	r0, [r0], #-128	; 0xffffff80
     1c8:	01000000 	mrseq	r0, (UNDEF: 0)
     1cc:	0002d59c 	muleq	r2, ip, r5
     1d0:	00701000 	rsbseq	r1, r0, r0
     1d4:	d50b1101 	strle	r1, [fp, #-257]	; 0xfffffeff
     1d8:	04000002 	streq	r0, [r0], #-2
     1dc:	00000000 	andeq	r0, r0, r0
     1e0:	11000000 	mrsne	r0, (UNDEF: 0)
     1e4:	000000ad 	andeq	r0, r0, sp, lsr #1
     1e8:	000002eb 	andeq	r0, r0, fp, ror #5
     1ec:	9e640305 	cdpls	3, 6, cr0, cr4, cr5, {0}
     1f0:	ac120000 	ldcge	0, cr0, [r2], {-0}
     1f4:	02000080 	andeq	r0, r0, #128, 0	; 0x80
     1f8:	09000004 	stmdbeq	r0, {r2}
     1fc:	13000002 	movwne	r0, #2
     200:	03055001 	movweq	r5, #20481	; 0x5001
     204:	00009da8 	andeq	r9, r0, r8, lsr #27
     208:	80b01400 	adcshi	r1, r0, r0, lsl #8
     20c:	02f00000 	rscseq	r0, r0, #0, 0
     210:	bc120000 	ldclt	0, cr0, [r2], {-0}
     214:	02000080 	andeq	r0, r0, #128, 0	; 0x80
     218:	29000004 	stmdbcs	r0, {r2}
     21c:	13000002 	movwne	r0, #2
     220:	03055001 	movweq	r5, #20481	; 0x5001
     224:	00009db4 			; <UNDEFINED> instruction: 0x00009db4
     228:	80c41200 	sbchi	r1, r4, r0, lsl #4
     22c:	040e0000 	streq	r0, [lr], #-0
     230:	023c0000 	eorseq	r0, ip, #0, 0
     234:	01130000 	tsteq	r3, r0
     238:	00300150 	eorseq	r0, r0, r0, asr r1
     23c:	0080d412 	addeq	sp, r0, r2, lsl r4
     240:	00040e00 	andeq	r0, r4, r0, lsl #28
     244:	00024f00 	andeq	r4, r2, r0, lsl #30
     248:	50011300 	andpl	r1, r1, r0, lsl #6
     24c:	12003101 	andne	r3, r0, #1073741824	; 0x40000000
     250:	000080e4 	andeq	r8, r0, r4, ror #1
     254:	00000402 	andeq	r0, r0, r2, lsl #8
     258:	00000266 	andeq	r0, r0, r6, ror #4
     25c:	05500113 	ldrbeq	r0, [r0, #-275]	; 0xfffffeed
     260:	009e0003 	addseq	r0, lr, r3
     264:	fc120000 	ldc2	0, cr0, [r2], {-0}
     268:	02000080 	andeq	r0, r0, #128, 0	; 0x80
     26c:	94000004 	strls	r0, [r0], #-4
     270:	13000002 	movwne	r0, #2
     274:	03055001 	movweq	r5, #20481	; 0x5001
     278:	00009dd0 	ldrdeq	r9, [r0], -r0
     27c:	05510113 	ldrbeq	r0, [r1, #-275]	; 0xfffffeed
     280:	009d7803 	addseq	r7, sp, r3, lsl #16
     284:	52011300 	andpl	r1, r1, #0, 6
     288:	9e640305 	cdpls	3, 6, cr0, cr4, cr5, {0}
     28c:	01130000 	tsteq	r3, r0
     290:	00470153 	subeq	r0, r7, r3, asr r1
     294:	00810014 	addeq	r0, r1, r4, lsl r0
     298:	00041a00 	andeq	r1, r4, r0, lsl #20
     29c:	81141200 	tsthi	r4, r0, lsl #4
     2a0:	04020000 	streq	r0, [r2], #-0
     2a4:	02cb0000 	sbceq	r0, fp, #0, 0
     2a8:	01130000 	tsteq	r3, r0
     2ac:	28030550 	stmdacs	r3, {r4, r6, r8, sl}
     2b0:	1300009e 	movwne	r0, #158	; 0x9e
     2b4:	03055101 	movweq	r5, #20737	; 0x5101
     2b8:	00009d78 	andeq	r9, r0, r8, ror sp
     2bc:	05520113 	ldrbeq	r0, [r2, #-275]	; 0xfffffeed
     2c0:	009e6403 	addseq	r6, lr, r3, lsl #8
     2c4:	53011300 	movwpl	r1, #4864	; 0x1300
     2c8:	14004d01 	strne	r4, [r0], #-3329	; 0xfffff2ff
     2cc:	00008118 	andeq	r8, r0, r8, lsl r1
     2d0:	0000041a 	andeq	r0, r0, sl, lsl r4
     2d4:	b9040800 	stmdblt	r4, {fp}
     2d8:	15000000 	strne	r0, [r0, #-0]
     2dc:	000000c0 	andeq	r0, r0, r0, asr #1
     2e0:	000002eb 	andeq	r0, r0, fp, ror #5
     2e4:	00002c16 	andeq	r2, r0, r6, lsl ip
     2e8:	09000700 	stmdbeq	r0, {r8, r9, sl}
     2ec:	000002db 	ldrdeq	r0, [r0], -fp
     2f0:	0000ba17 	andeq	fp, r0, r7, lsl sl
     2f4:	07050100 	streq	r0, [r5, -r0, lsl #2]
     2f8:	000002d5 	ldrdeq	r0, [r0], -r5
     2fc:	00008038 	andeq	r8, r0, r8, lsr r0
     300:	00000068 	andeq	r0, r0, r8, rrx
     304:	03b79c01 			; <UNDEFINED> instruction: 0x03b79c01
     308:	70100000 	andsvc	r0, r0, r0
     30c:	0b070100 	bleq	1c0714 <__bss_end__+0x1b5cac>
     310:	000002d5 	ldrdeq	r0, [r0], -r5
     314:	0000002a 	andeq	r0, r0, sl, lsr #32
     318:	00000022 	andeq	r0, r0, r2, lsr #32
     31c:	0000ad11 	andeq	sl, r0, r1, lsl sp
     320:	0003c700 	andeq	ip, r3, r0, lsl #14
     324:	5c030500 	cfstr32pl	mvfx0, [r3], {-0}
     328:	1800009e 	stmdane	r0, {r1, r2, r3, r4, r7}
     32c:	000003cc 	andeq	r0, r0, ip, asr #7
     330:	00008040 	andeq	r8, r0, r0, asr #32
     334:	00804001 	addeq	r4, r0, r1
     338:	00001800 	andeq	r1, r0, r0, lsl #16
     33c:	0f070100 	svceq	0x00070100
     340:	0000036c 	andeq	r0, r0, ip, ror #6
     344:	0003f519 	andeq	pc, r3, r9, lsl r5	; <UNPREDICTABLE>
     348:	00006200 	andeq	r6, r0, r0, lsl #4
     34c:	00006000 	andeq	r6, r0, r0
     350:	03e91900 	mvneq	r1, #0, 18
     354:	00780000 	rsbseq	r0, r8, r0
     358:	00760000 	rsbseq	r0, r6, r0
     35c:	dd190000 	ldcle	0, cr0, [r9, #-0]
     360:	92000003 	andls	r0, r0, #3, 0
     364:	90000000 	andls	r0, r0, r0
     368:	00000000 	andeq	r0, r0, r0
     36c:	00806812 	addeq	r6, r0, r2, lsl r8
     370:	00043000 	andeq	r3, r4, r0
     374:	00037f00 	andeq	r7, r3, r0, lsl #30
     378:	50011300 	andpl	r1, r1, r0, lsl #6
     37c:	12003401 	andne	r3, r0, #16777216	; 0x1000000
     380:	00008078 	andeq	r8, r0, r8, ror r0
     384:	00000402 	andeq	r0, r0, r2, lsl #8
     388:	0000039c 	muleq	r0, ip, r3
     38c:	05500113 	ldrbeq	r0, [r0, #-275]	; 0xfffffeed
     390:	009d8c03 	addseq	r8, sp, r3, lsl #24
     394:	51011300 	mrspl	r1, SP_irq
     398:	00007402 	andeq	r7, r0, r2, lsl #8
     39c:	0080881a 	addeq	r8, r0, sl, lsl r8
     3a0:	00043c00 	andeq	r3, r4, r0, lsl #24
     3a4:	50011300 	andpl	r1, r1, r0, lsl #6
     3a8:	13007402 	movwne	r7, #1026	; 0x402
     3ac:	30015101 	andcc	r5, r1, r1, lsl #2
     3b0:	01520113 	cmpeq	r2, r3, lsl r1
     3b4:	15000034 	strne	r0, [r0, #-52]	; 0xffffffcc
     3b8:	000000c0 	andeq	r0, r0, r0, asr #1
     3bc:	000003c7 	andeq	r0, r0, r7, asr #7
     3c0:	00002c16 	andeq	r2, r0, r6, lsl ip
     3c4:	09000500 	stmdbeq	r0, {r8, sl}
     3c8:	000003b7 			; <UNDEFINED> instruction: 0x000003b7
     3cc:	0000881b 	andeq	r8, r0, fp, lsl r8
     3d0:	0b0c0200 	bleq	300bd8 <__bss_end__+0x2f6170>
     3d4:	00000108 	andeq	r0, r0, r8, lsl #2
     3d8:	00040203 	andeq	r0, r4, r3, lsl #4
     3dc:	00481c00 	subeq	r1, r8, r0, lsl #24
     3e0:	0c020000 	stceq	0, cr0, [r2], {-0}
     3e4:	0000b322 	andeq	fp, r0, r2, lsr #6
     3e8:	00a81c00 	adceq	r1, r8, r0, lsl #24
     3ec:	0c020000 	stceq	0, cr0, [r2], {-0}
     3f0:	0000b334 	andeq	fp, r0, r4, lsr r3
     3f4:	00191c00 	andseq	r1, r9, r0, lsl #24
     3f8:	0c020000 	stceq	0, cr0, [r2], {-0}
     3fc:	00002c43 	andeq	r2, r0, r3, asr #24
     400:	131d0000 	tstne	sp, #0, 0
     404:	13000006 	movwne	r0, #6
     408:	04000006 	streq	r0, [r0], #-6
     40c:	201d0628 	andscs	r0, sp, r8, lsr #12
     410:	20000000 	andcs	r0, r0, r0
     414:	05000000 	streq	r0, [r0, #-0]
     418:	611d0a4f 	tstvs	sp, pc, asr #20
     41c:	61000000 	mrsvs	r0, (UNDEF: 0)
     420:	04000000 	streq	r0, [r0], #-0
     424:	081e066e 	ldmdaeq	lr, {r1, r2, r3, r5, r6, r9, sl}
     428:	6574069e 	ldrbvs	r0, [r4, #-1694]!	; 0xfffff962
     42c:	00317473 	eorseq	r7, r1, r3, ror r4
     430:	00000b1d 	andeq	r0, r0, sp, lsl fp
     434:	00000b00 	andeq	r0, r0, r0, lsl #22
     438:	08390500 	ldmdaeq	r9!, {r8, sl}
     43c:	0000a11d 	andeq	sl, r0, sp, lsl r1
     440:	0000a100 	andeq	sl, r0, r0, lsl #2
     444:	07f70400 	ldrbeq	r0, [r7, r0, lsl #8]!
     448:	0008bf00 	andeq	fp, r8, r0, lsl #30
     44c:	bd000400 	cfstrslt	mvf0, [r0, #-0]
     450:	04000001 	streq	r0, [r0], #-1
     454:	00019501 	andeq	r9, r1, r1, lsl #10
     458:	02d30c00 	sbcseq	r0, r3, #0, 24
     45c:	00fd0000 	rscseq	r0, sp, r0
     460:	81340000 	teqhi	r4, r0
     464:	03ac0000 			; <UNDEFINED> instruction: 0x03ac0000
     468:	01900000 	orrseq	r0, r0, r0
     46c:	04020000 	streq	r0, [r2], #-0
     470:	746e6905 	strbtvc	r6, [lr], #-2309	; 0xfffff6fb
     474:	07040300 	streq	r0, [r4, -r0, lsl #6]
     478:	000000df 	ldrdeq	r0, [r0], -pc	; <UNPREDICTABLE>
     47c:	95060103 	strls	r0, [r6, #-259]	; 0xfffffefd
     480:	03000000 	movweq	r0, #0
     484:	016f0502 	cmneq	pc, r2, lsl #10
     488:	04030000 	streq	r0, [r3], #-0
     48c:	00015a05 	andeq	r5, r1, r5, lsl #20
     490:	05080300 	streq	r0, [r8, #-768]	; 0xfffffd00
     494:	00000155 	andeq	r0, r0, r5, asr r1
     498:	93080103 	movwls	r0, #33027	; 0x8103
     49c:	04000000 	streq	r0, [r0], #-0
     4a0:	00000183 	andeq	r0, r0, r3, lsl #3
     4a4:	62193103 	andsvs	r3, r9, #-1073741824	; 0xc0000000
     4a8:	03000000 	movweq	r0, #0
     4ac:	006e0702 	rsbeq	r0, lr, r2, lsl #14
     4b0:	8c040000 	stchi	0, cr0, [r4], {-0}
     4b4:	03000001 	movweq	r0, #1
     4b8:	00751934 	rsbseq	r1, r5, r4, lsr r9
     4bc:	04030000 	streq	r0, [r3], #-0
     4c0:	0000da07 	andeq	sp, r0, r7, lsl #20
     4c4:	07080300 	streq	r0, [r8, -r0, lsl #6]
     4c8:	000000d5 	ldrdeq	r0, [r0], -r5
     4cc:	00002505 	andeq	r2, r0, r5, lsl #10
     4d0:	00009200 	andeq	r9, r0, r0, lsl #4
     4d4:	00250600 	eoreq	r0, r5, r0, lsl #12
     4d8:	07000000 	streq	r0, [r0, -r0]
     4dc:	00000163 	andeq	r0, r0, r3, ror #2
     4e0:	9e0e1c04 	cdpls	12, 0, cr1, cr14, cr4, {0}
     4e4:	08000000 	stmdaeq	r0, {}	; <UNPREDICTABLE>
     4e8:	00008304 	andeq	r8, r0, r4, lsl #6
     4ec:	00250500 	eoreq	r0, r5, r0, lsl #10
     4f0:	00b30000 	adcseq	r0, r3, r0
     4f4:	b3060000 	movwlt	r0, #24576	; 0x6000
     4f8:	00000000 	andeq	r0, r0, r0
     4fc:	00c00408 	sbceq	r0, r0, r8, lsl #8
     500:	01030000 	mrseq	r0, (UNDEF: 3)
     504:	00009c08 	andeq	r9, r0, r8, lsl #24
     508:	00b90900 	adcseq	r0, r9, r0, lsl #18
     50c:	51070000 	mrspl	r0, (UNDEF: 7)
     510:	04000006 	streq	r0, [r0], #-6
     514:	00d10e21 	sbcseq	r0, r1, r1, lsr #28
     518:	04080000 	streq	r0, [r8], #-0
     51c:	000000a4 	andeq	r0, r0, r4, lsr #1
     520:	04050c0a 	streq	r0, [r5], #-3082	; 0xfffff3f6
     524:	00010809 	andeq	r0, r1, r9, lsl #16
     528:	00480b00 	subeq	r0, r8, r0, lsl #22
     52c:	06050000 	streq	r0, [r5], -r0
     530:	0000b311 	andeq	fp, r0, r1, lsl r3
     534:	a80b0000 	stmdage	fp, {}	; <UNPREDICTABLE>
     538:	05000000 	streq	r0, [r0, #-0]
     53c:	00b31107 	adcseq	r1, r3, r7, lsl #2
     540:	0b040000 	bleq	100548 <__bss_end__+0xf5ae0>
     544:	00000019 	andeq	r0, r0, r9, lsl r0
     548:	2c0e0805 	stccs	8, cr0, [lr], {5}
     54c:	08000000 	stmdaeq	r0, {}	; <UNPREDICTABLE>
     550:	01790400 	cmneq	r9, r0, lsl #8
     554:	09050000 	stmdbeq	r5, {}	; <UNPREDICTABLE>
     558:	0000d703 	andeq	sp, r0, r3, lsl #14
     55c:	01070c00 	tsteq	r7, r0, lsl #24
     560:	0000004f 	andeq	r0, r0, pc, asr #32
     564:	2f0e0c02 	svccs	0x000e0c02
     568:	0d000001 	stceq	0, cr0, [r0, #-4]
     56c:	000002f6 	strdeq	r0, [r0], -r6
     570:	027b0d0b 	rsbseq	r0, fp, #704	; 0x2c0
     574:	000c0000 	andeq	r0, ip, r0
     578:	0000810e 	andeq	r8, r0, lr, lsl #2
     57c:	0f022400 	svceq	0x00022400
     580:	0001a510 	andeq	sl, r1, r0, lsl r5
     584:	00060b00 	andeq	r0, r6, r0, lsl #22
     588:	10020000 	andne	r0, r2, r0
     58c:	0001a514 	andeq	sl, r1, r4, lsl r5
     590:	3b0b0000 	blcc	2c0598 <__bss_end__+0x2b5b30>
     594:	02000000 	andeq	r0, r0, #0, 0
     598:	00690e11 	rsbeq	r0, r9, r1, lsl lr
     59c:	0b040000 	bleq	1005a4 <__bss_end__+0xf5b3c>
     5a0:	00000013 	andeq	r0, r0, r3, lsl r0
     5a4:	690e1202 	stmdbvs	lr, {r1, r9, ip}
     5a8:	08000000 	stmdaeq	r0, {}	; <UNPREDICTABLE>
     5ac:	0000ec0b 	andeq	lr, r0, fp, lsl #24
     5b0:	0f140200 	svceq	0x00140200
     5b4:	00000108 	andeq	r0, r0, r8, lsl #2
     5b8:	024a0b0c 	subeq	r0, sl, #12, 22	; 0x3000
     5bc:	17020000 	strne	r0, [r2, -r0]
     5c0:	0000690e 	andeq	r6, r0, lr, lsl #18
     5c4:	550b1800 	strpl	r1, [fp, #-2048]	; 0xfffff800
     5c8:	02000002 	andeq	r0, r0, #2, 0
     5cc:	00690e18 	rsbeq	r0, r9, r8, lsl lr
     5d0:	0b1c0000 	bleq	7005d8 <__bss_end__+0x6f5b70>
     5d4:	0000002e 	andeq	r0, r0, lr, lsr #32
     5d8:	560e1a02 	strpl	r1, [lr], -r2, lsl #20
     5dc:	20000000 	andcs	r0, r0, r0
     5e0:	0000f60b 	andeq	pc, r0, fp, lsl #12
     5e4:	0b1b0200 	bleq	6c0dec <__bss_end__+0x6b6384>
     5e8:	00000056 	andeq	r0, r0, r6, asr r0
     5ec:	04080022 	streq	r0, [r8], #-34	; 0xffffffde
     5f0:	0000012f 	andeq	r0, r0, pc, lsr #2
     5f4:	00000004 	andeq	r0, r0, r4
     5f8:	031c0200 	tsteq	ip, #0, 4
     5fc:	0000012f 	andeq	r0, r0, pc, lsr #2
     600:	0000c00f 	andeq	ip, r0, pc
     604:	0f1e0200 	svceq	0x001e0200
     608:	000001c9 	andeq	r0, r0, r9, asr #3
     60c:	a63c0305 	ldrtge	r0, [ip], -r5, lsl #6
     610:	04080000 	streq	r0, [r8], #-0
     614:	000001ab 	andeq	r0, r0, fp, lsr #3
     618:	0000cb0f 	andeq	ip, r0, pc, lsl #22
     61c:	0f1f0200 	svceq	0x001f0200
     620:	000001c9 	andeq	r0, r0, r9, asr #3
     624:	a6380305 	ldrtge	r0, [r8], -r5, lsl #6
     628:	04100000 	ldreq	r0, [r0], #-0
     62c:	00000b11 	andeq	r0, r0, r1, lsl fp
     630:	08770100 	ldmdaeq	r7!, {r8}^
     634:	000001e1 	andeq	r0, r0, r1, ror #3
     638:	00008444 	andeq	r8, r0, r4, asr #8
     63c:	0000009c 	muleq	r0, ip, r0
     640:	02bd9c01 	adcseq	r9, sp, #256	; 0x100
     644:	1e120000 	cdpne	0, 1, cr0, cr2, cr0, {0}
     648:	01000003 	tsteq	r0, r3
     64c:	00691a77 	rsbeq	r1, r9, r7, ror sl
     650:	00b00000 	adcseq	r0, r0, r0
     654:	00aa0000 	adceq	r0, sl, r0
     658:	6c130000 	ldcvs	0, cr0, [r3], {-0}
     65c:	2c770100 	ldfcse	f0, [r7], #-0
     660:	00000108 	andeq	r0, r0, r8, lsl #2
     664:	14649102 	strbtne	r9, [r4], #-258	; 0xfffffefe
     668:	79010068 	stmdbvc	r1, {r3, r5, r6}
     66c:	0001c90c 	andeq	ip, r1, ip, lsl #18
     670:	0000e200 	andeq	lr, r0, r0, lsl #4
     674:	0000dc00 	andeq	sp, r0, r0, lsl #24
     678:	84601500 	strbthi	r1, [r0], #-1280	; 0xfffffb00
     67c:	08860000 	stmeq	r6, {}	; <UNPREDICTABLE>
     680:	02440000 	subeq	r0, r4, #0, 0
     684:	01160000 	tsteq	r6, r0
     688:	24760250 	ldrbtcs	r0, [r6], #-592	; 0xfffffdb0
     68c:	84701500 	ldrbthi	r1, [r0], #-1280	; 0xfffffb00
     690:	08920000 	ldmeq	r2, {}	; <UNPREDICTABLE>
     694:	02630000 	rsbeq	r0, r3, #0, 0
     698:	01160000 	tsteq	r6, r0
     69c:	00740250 	rsbseq	r0, r4, r0, asr r2
     6a0:	01510116 	cmpeq	r1, r6, lsl r1
     6a4:	52011630 	andpl	r1, r1, #48, 12	; 0x3000000
     6a8:	00240802 	eoreq	r0, r4, r2, lsl #16
     6ac:	0084a815 	addeq	sl, r4, r5, lsl r8
     6b0:	00089e00 	andeq	r9, r8, r0, lsl #28
     6b4:	00028f00 	andeq	r8, r2, r0, lsl #30
     6b8:	50011600 	andpl	r1, r1, r0, lsl #12
     6bc:	9f040305 	svcls	0x00040305
     6c0:	01160000 	tsteq	r6, r0
     6c4:	00750351 	rsbseq	r0, r5, r1, asr r3
     6c8:	52011606 	andpl	r1, r1, #6291456	; 0x600000
     6cc:	06609103 	strbteq	r9, [r0], -r3, lsl #2
     6d0:	03530116 	cmpeq	r3, #-2147483643	; 0x80000005
     6d4:	00066491 	muleq	r6, r1, r4
     6d8:	0084b815 	addeq	fp, r4, r5, lsl r8
     6dc:	00089e00 	andeq	r9, r8, r0, lsl #28
     6e0:	0002ac00 	andeq	sl, r2, r0, lsl #24
     6e4:	50011600 	andpl	r1, r1, r0, lsl #12
     6e8:	9f580305 	svcls	0x00580305
     6ec:	01160000 	tsteq	r6, r0
     6f0:	00750251 	rsbseq	r0, r5, r1, asr r2
     6f4:	84c81700 	strbhi	r1, [r8], #1792	; 0x700
     6f8:	06ac0000 	strteq	r0, [ip], r0
     6fc:	01160000 	tsteq	r6, r0
     700:	00740251 	rsbseq	r0, r4, r1, asr r2
     704:	a2180000 	andsge	r0, r8, #0, 0
     708:	01000002 	tsteq	r0, r2
     70c:	83280767 			; <UNDEFINED> instruction: 0x83280767
     710:	011c0000 	tsteq	ip, r0
     714:	9c010000 	stcls	0, cr0, [r1], {-0}
     718:	00000485 	andeq	r0, r0, r5, lsl #9
     71c:	000ad012 	andeq	sp, sl, r2, lsl r0
     720:	15670100 	strbne	r0, [r7, #-256]!	; 0xffffff00
     724:	000001e1 	andeq	r0, r0, r1, ror #3
     728:	00000111 	andeq	r0, r0, r1, lsl r1
     72c:	0000010d 	andeq	r0, r0, sp, lsl #2
     730:	01006c13 	tsteq	r0, r3, lsl ip
     734:	01082567 	tsteq	r8, r7, ror #10
     738:	91020000 	mrsls	r0, (UNDEF: 2)
     73c:	00681464 	rsbeq	r1, r8, r4, ror #8
     740:	c90c6801 	stmdbgt	ip, {r0, fp, sp, lr}
     744:	37000001 	strcc	r0, [r0, -r1]
     748:	2f000001 	svccs	0x00000001
     74c:	19000001 	stmdbne	r0, {r0}
     750:	000000ad 	andeq	r0, r0, sp, lsr #1
     754:	00000495 	muleq	r0, r5, r4
     758:	9f800305 	svcls	0x00800305
     75c:	60150000 	andsvs	r0, r5, r0
     760:	9e000083 	cdpls	0, 0, cr0, cr0, cr3, {4}
     764:	41000008 	tstmi	r0, r8
     768:	16000003 	strne	r0, [r0], -r3
     76c:	03055001 	movweq	r5, #20481	; 0x5001
     770:	00009f04 	andeq	r9, r0, r4, lsl #30
     774:	03510116 	cmpeq	r1, #-2147483643	; 0x80000005
     778:	16065c91 			; <UNDEFINED> instruction: 0x16065c91
     77c:	91035201 	tstls	r3, r1, lsl #4
     780:	01160660 	tsteq	r6, r0, ror #12
     784:	64910353 	ldrvs	r0, [r1], #851	; 0x353
     788:	6c150006 	ldcvs	0, cr0, [r5], {6}
     78c:	9e000083 	cdpls	0, 0, cr0, cr0, cr3, {4}
     790:	5e000008 	cdppl	0, 0, cr0, cr0, cr8, {0}
     794:	16000003 	strne	r0, [r0], -r3
     798:	03055001 	movweq	r5, #20481	; 0x5001
     79c:	00009f10 	andeq	r9, r0, r0, lsl pc
     7a0:	02510116 	subseq	r0, r1, #-2147483643	; 0x80000005
     7a4:	15000074 	strne	r0, [r0, #-116]	; 0xffffff8c
     7a8:	00008374 	andeq	r8, r0, r4, ror r3
     7ac:	0000049a 	muleq	r0, sl, r4
     7b0:	00000372 	andeq	r0, r0, r2, ror r3
     7b4:	02500116 	subseq	r0, r0, #-2147483643	; 0x80000005
     7b8:	15000074 	strne	r0, [r0, #-116]	; 0xffffff8c
     7bc:	00008394 	muleq	r0, r4, r3
     7c0:	00000767 	andeq	r0, r0, r7, ror #14
     7c4:	00000386 	andeq	r0, r0, r6, lsl #7
     7c8:	02510116 	subseq	r0, r1, #-2147483643	; 0x80000005
     7cc:	15000075 	strne	r0, [r0, #-117]	; 0xffffff8b
     7d0:	0000839c 	muleq	r0, ip, r3
     7d4:	0000049a 	muleq	r0, sl, r4
     7d8:	0000039a 	muleq	r0, sl, r3
     7dc:	02500116 	subseq	r0, r0, #-2147483643	; 0x80000005
     7e0:	15000074 	strne	r0, [r0, #-116]	; 0xffffff8c
     7e4:	000083ac 	andeq	r8, r0, ip, lsr #7
     7e8:	000008aa 	andeq	r0, r0, sl, lsr #17
     7ec:	000003ae 	andeq	r0, r0, lr, lsr #7
     7f0:	02500116 	subseq	r0, r0, #-2147483643	; 0x80000005
     7f4:	15000075 	strne	r0, [r0, #-117]	; 0xffffff8b
     7f8:	000083c8 	andeq	r8, r0, r8, asr #7
     7fc:	0000089e 	muleq	r0, lr, r8
     800:	000003da 	ldrdeq	r0, [r0], -sl
     804:	05500116 	ldrbeq	r0, [r0, #-278]	; 0xfffffeea
     808:	009ebc03 	addseq	fp, lr, r3, lsl #24
     80c:	51011600 	tstpl	r1, r0, lsl #12
     810:	065c9103 	ldrbeq	r9, [ip], -r3, lsl #2
     814:	03520116 	cmpeq	r2, #-2147483643	; 0x80000005
     818:	16066091 			; <UNDEFINED> instruction: 0x16066091
     81c:	91035301 	tstls	r3, r1, lsl #6
     820:	15000664 	strne	r0, [r0, #-1636]	; 0xfffff99c
     824:	000083d8 	ldrdeq	r8, [r0], -r8	; <UNPREDICTABLE>
     828:	0000089e 	muleq	r0, lr, r8
     82c:	000003f7 	strdeq	r0, [r0], -r7
     830:	05500116 	ldrbeq	r0, [r0, #-278]	; 0xfffffeea
     834:	009ed403 	addseq	sp, lr, r3, lsl #8
     838:	51011600 	tstpl	r1, r0, lsl #12
     83c:	00007402 	andeq	r7, r0, r2, lsl #8
     840:	0083dc1a 	addeq	sp, r3, sl, lsl ip
     844:	0008b600 	andeq	fp, r8, r0, lsl #12
     848:	83f81500 	mvnshi	r1, #0, 10
     84c:	089e0000 	ldmeq	lr, {}	; <UNPREDICTABLE>
     850:	04390000 	ldrteq	r0, [r9], #-0
     854:	01160000 	tsteq	r6, r0
     858:	78030550 	stmdavc	r3, {r4, r6, r8, sl}
     85c:	1600009e 			; <UNDEFINED> instruction: 0x1600009e
     860:	03055101 	movweq	r5, #20737	; 0x5101
     864:	00009e6c 	andeq	r9, r0, ip, ror #28
     868:	05520116 	ldrbeq	r0, [r2, #-278]	; 0xfffffeea
     86c:	009f8003 	addseq	r8, pc, r3
     870:	53011600 	movwpl	r1, #5632	; 0x1600
     874:	166d0802 	strbtne	r0, [sp], -r2, lsl #16
     878:	05007d02 	streq	r7, [r0, #-3330]	; 0xfffff2fe
     87c:	009f1c03 	addseq	r1, pc, r3, lsl #24
     880:	fc1a0000 	ldc2	0, cr0, [sl], {-0}
     884:	b6000083 	strlt	r0, [r0], -r3, lsl #1
     888:	15000008 	strne	r0, [r0, #-8]
     88c:	00008418 	andeq	r8, r0, r8, lsl r4
     890:	0000089e 	muleq	r0, lr, r8
     894:	0000047b 	andeq	r0, r0, fp, ror r4
     898:	05500116 	ldrbeq	r0, [r0, #-278]	; 0xfffffeea
     89c:	009e7803 	addseq	r7, lr, r3, lsl #16
     8a0:	51011600 	tstpl	r1, r0, lsl #12
     8a4:	9e6c0305 	cdpls	3, 6, cr0, cr12, cr5, {0}
     8a8:	01160000 	tsteq	r6, r0
     8ac:	80030552 	andhi	r0, r3, r2, asr r5
     8b0:	1600009f 			; <UNDEFINED> instruction: 0x1600009f
     8b4:	08025301 	stmdaeq	r2, {r0, r8, r9, ip, lr}
     8b8:	7d021670 	stcvc	6, cr1, [r2, #-448]	; 0xfffffe40
     8bc:	3c030500 	cfstr32cc	mvfx0, [r3], {-0}
     8c0:	0000009f 	muleq	r0, pc, r0	; <UNPREDICTABLE>
     8c4:	00841c1a 	addeq	r1, r4, sl, lsl ip
     8c8:	0008b600 	andeq	fp, r8, r0, lsl #12
     8cc:	c01b0000 	andsgt	r0, fp, r0
     8d0:	95000000 	strls	r0, [r0, #-0]
     8d4:	1c000004 	stcne	0, cr0, [r0], {4}
     8d8:	0000002c 	andeq	r0, r0, ip, lsr #32
     8dc:	85090006 	strhi	r0, [r9, #-6]
     8e0:	11000004 	tstne	r0, r4
     8e4:	000002b5 			; <UNDEFINED> instruction: 0x000002b5
     8e8:	c9085b01 	stmdbgt	r8, {r0, r8, r9, fp, ip, lr}
     8ec:	d8000001 	stmdale	r0, {r0}
     8f0:	50000082 	andpl	r0, r0, r2, lsl #1
     8f4:	01000000 	mrseq	r0, (UNDEF: 0)
     8f8:	0005189c 	muleq	r5, ip, r8
     8fc:	74701d00 	ldrbtvc	r1, [r0], #-3328	; 0xfffff300
     900:	5b010072 	blpl	40ad0 <__bss_end__+0x36068>
     904:	0001e120 	andeq	lr, r1, r0, lsr #2
     908:	00017300 	andeq	r7, r1, r0, lsl #6
     90c:	00016f00 	andeq	r6, r1, r0, lsl #30
     910:	82e01e00 	rschi	r1, r0, #0, 28
     914:	00400000 	subeq	r0, r0, r0
     918:	68140000 	ldmdavs	r4, {}	; <UNPREDICTABLE>
     91c:	105c0100 	subsne	r0, ip, r0, lsl #2
     920:	000001c9 	andeq	r0, r0, r9, asr #3
     924:	00000199 	muleq	r0, r9, r1
     928:	00000191 	muleq	r0, r1, r1
     92c:	0082e41a 	addeq	lr, r2, sl, lsl r4
     930:	00069600 	andeq	r9, r6, r0, lsl #12
     934:	82f41500 	rscshi	r1, r4, #0, 10
     938:	06690000 	strbteq	r0, [r9], -r0
     93c:	05000000 	streq	r0, [r0, #-0]
     940:	01160000 	tsteq	r6, r0
     944:	00740250 	rsbseq	r0, r4, r0, asr r2
     948:	830c1700 	movwhi	r1, #50944	; 0xc700
     94c:	05180000 	ldreq	r0, [r8, #-0]
     950:	01160000 	tsteq	r6, r0
     954:	00740250 	rsbseq	r0, r4, r0, asr r2
     958:	02510116 	subseq	r0, r1, #-2147483643	; 0x80000005
     95c:	00000075 	andeq	r0, r0, r5, ror r0
     960:	02611100 	rsbeq	r1, r1, #0
     964:	53010000 	movwpl	r0, #4096	; 0x1000
     968:	00002c0a 	andeq	r2, r0, sl, lsl #24
     96c:	0082a000 	addeq	sl, r2, r0
     970:	00003800 	andeq	r3, r0, r0, lsl #16
     974:	539c0100 	orrspl	r0, ip, #0
     978:	1d000005 	stcne	0, cr0, [r0, #-20]	; 0xffffffec
     97c:	53010068 	movwpl	r0, #4200	; 0x1068
     980:	0001c921 	andeq	ip, r1, r1, lsr #18
     984:	0001d700 	andeq	sp, r1, r0, lsl #14
     988:	0001cd00 	andeq	ip, r1, r0, lsl #26
     98c:	74701300 	ldrbtvc	r1, [r0], #-768	; 0xfffffd00
     990:	53010072 	movwpl	r0, #4210	; 0x1072
     994:	0001e12a 	andeq	lr, r1, sl, lsr #2
     998:	00510100 	subseq	r0, r1, r0, lsl #2
     99c:	0002dd11 	andeq	sp, r2, r1, lsl sp
     9a0:	08480100 	stmdaeq	r8, {r8}^
     9a4:	000001c9 	andeq	r0, r0, r9, asr #3
     9a8:	0000828c 	andeq	r8, r0, ip, lsl #5
     9ac:	00000014 	andeq	r0, r0, r4, lsl r0
     9b0:	05a09c01 	streq	r9, [r0, #3073]!	; 0xc01
     9b4:	701d0000 	andsvc	r0, sp, r0
     9b8:	01007274 	tsteq	r0, r4, ror r2
     9bc:	01c91b48 	biceq	r1, r9, r8, asr #22
     9c0:	02220000 	eoreq	r0, r2, #0, 0
     9c4:	021e0000 	andseq	r0, lr, #0, 0
     9c8:	941e0000 	ldrls	r0, [lr], #-0
     9cc:	08000082 	stmdaeq	r0, {r1, r7}
     9d0:	1f000000 	svcne	0x00000000
     9d4:	00000006 	andeq	r0, r0, r6
     9d8:	c90a4a01 	stmdbgt	sl, {r0, r9, fp, lr}
     9dc:	45000001 	strmi	r0, [r0, #-1]
     9e0:	43000002 	movwmi	r0, #2
     9e4:	00000002 	andeq	r0, r0, r2
     9e8:	02e91100 	rsceq	r1, r9, #0
     9ec:	43010000 	movwmi	r0, #4096	; 0x1000
     9f0:	0001c908 	andeq	ip, r1, r8, lsl #18
     9f4:	00827c00 	addeq	r7, r2, r0, lsl #24
     9f8:	00001000 	andeq	r1, r0, r0
     9fc:	d89c0100 	ldmle	ip, {r8}
     a00:	1f000005 	svcne	0x00000005
     a04:	0000033f 	andeq	r0, r0, pc, lsr r3
     a08:	c9094401 	stmdbgt	r9, {r0, sl, lr}
     a0c:	5c000001 	stcpl	0, cr0, [r0], {1}
     a10:	58000002 	stmdapl	r0, {r1}
     a14:	1a000002 	bne	a24 <__code_start__-0x75dc>
     a18:	00008284 	andeq	r8, r0, r4, lsl #5
     a1c:	00000696 	muleq	r0, r6, r6
     a20:	030b1100 	movweq	r1, #45312	; 0xb100
     a24:	3f010000 	svccc	0x00010000
     a28:	0001e107 	andeq	lr, r1, r7, lsl #2
     a2c:	00826400 	addeq	r6, r2, r0, lsl #8
     a30:	00001800 	andeq	r1, r0, r0, lsl #16
     a34:	3c9c0100 	ldfccs	f0, [ip], {0}
     a38:	1d000006 	stcne	0, cr0, [r0, #-24]	; 0xffffffe8
     a3c:	3f010068 	svccc	0x00010068
     a40:	0001c919 	andeq	ip, r1, r9, lsl r9
     a44:	00028000 	andeq	r8, r2, r0
     a48:	00027c00 	andeq	r7, r2, r0, lsl #24
     a4c:	086a2000 	stmdaeq	sl!, {sp}^
     a50:	82700000 	rsbshi	r0, r0, #0, 0
     a54:	70000000 	andvc	r0, r0, r0
     a58:	04000082 	streq	r0, [r0], #-130	; 0xffffff7e
     a5c:	01000000 	mrseq	r0, (UNDEF: 0)
     a60:	062b2640 	strteq	r2, [fp], -r0, asr #12
     a64:	7b210000 	blvc	840a6c <__bss_end__+0x836004>
     a68:	a0000008 	andge	r0, r0, r8
     a6c:	9e000002 	cdpls	0, 0, cr0, cr0, cr2, {0}
     a70:	00000002 	andeq	r0, r0, r2
     a74:	00827017 	addeq	r7, r2, r7, lsl r0
     a78:	00063c00 	andeq	r3, r6, r0, lsl #24
     a7c:	50011600 	andpl	r1, r1, r0, lsl #12
     a80:	00007402 	andeq	r7, r0, r2, lsl #8
     a84:	02fe1100 	rscseq	r1, lr, #0
     a88:	3a010000 	bcc	40a90 <__bss_end__+0x36028>
     a8c:	0001e107 	andeq	lr, r1, r7, lsl #2
     a90:	00825c00 	addeq	r5, r2, r0, lsl #24
     a94:	00000800 	andeq	r0, r0, r0, lsl #16
     a98:	699c0100 	ldmibvs	ip, {r8}
     a9c:	1d000006 	stcne	0, cr0, [r0, #-24]	; 0xffffffe8
     aa0:	3a010068 	bcc	40c48 <__bss_end__+0x361e0>
     aa4:	0001c91b 	andeq	ip, r1, fp, lsl r9
     aa8:	0002b700 	andeq	fp, r2, r0, lsl #14
     aac:	0002b300 	andeq	fp, r2, r0, lsl #6
     ab0:	c7110000 	ldrgt	r0, [r1, -r0]
     ab4:	01000002 	tsteq	r0, r2
     ab8:	01c90833 	biceq	r0, r9, r3, lsr r8
     abc:	81b80000 			; <UNDEFINED> instruction: 0x81b80000
     ac0:	00100000 	andseq	r0, r0, r0
     ac4:	9c010000 	stcls	0, cr0, [r1], {-0}
     ac8:	00000696 	muleq	r0, r6, r6
     acc:	0100701d 	tsteq	r0, sp, lsl r0
     ad0:	01c91b33 	biceq	r1, r9, r3, lsr fp
     ad4:	02db0000 	sbcseq	r0, fp, #0, 0
     ad8:	02d70000 	sbcseq	r0, r7, #0, 0
     adc:	22000000 	andcs	r0, r0, #0, 0
     ae0:	00000295 	muleq	r0, r5, r2
     ae4:	c9082e01 	stmdbgt	r8, {r0, r9, sl, fp, sp}
     ae8:	a8000001 	stmdage	r0, {r0}
     aec:	10000081 	andne	r0, r0, r1, lsl #1
     af0:	01000000 	mrseq	r0, (UNDEF: 0)
     af4:	0281239c 	addeq	r2, r1, #156, 6	; 0x70000002
     af8:	1e010000 	cdpne	0, 0, cr0, cr1, cr0, {0}
     afc:	0081340d 	addeq	r3, r1, sp, lsl #8
     b00:	00007400 	andeq	r7, r0, r0, lsl #8
     b04:	529c0100 	addspl	r0, ip, #0
     b08:	1d000007 	stcne	0, cr0, [r0, #-28]	; 0xffffffe4
     b0c:	1e01006c 	cdpne	0, 0, cr0, cr1, cr12, {3}
     b10:	0001c920 	andeq	ip, r1, r0, lsr #18
     b14:	00030000 	andeq	r0, r3, r0
     b18:	0002fc00 	andeq	pc, r2, r0, lsl #24
     b1c:	00681d00 	rsbeq	r1, r8, r0, lsl #26
     b20:	c92a1e01 	stmdbgt	sl!, {r0, r9, sl, fp, ip}
     b24:	25000001 	strcs	r0, [r0, #-1]
     b28:	21000003 	tstcs	r0, r3
     b2c:	19000003 	stmdbne	r0, {r0, r1}
     b30:	000000ad 	andeq	r0, r0, sp, lsr #1
     b34:	00000762 	andeq	r0, r0, r2, ror #14
     b38:	9f680305 	svcls	0x00680305
     b3c:	00240000 	eoreq	r0, r4, r0
     b40:	1f000000 	svcne	0x00000000
     b44:	00000271 	andeq	r0, r0, r1, ror r2
     b48:	c90a2601 	stmdbgt	sl, {r0, r9, sl, sp}
     b4c:	48000001 	stmdami	r0, {r0}
     b50:	46000003 	strmi	r0, [r0], -r3
     b54:	15000003 	strne	r0, [r0, #-3]
     b58:	00008190 	muleq	r0, r0, r1
     b5c:	0000089e 	muleq	r0, lr, r8
     b60:	00000747 	andeq	r0, r0, r7, asr #14
     b64:	05500116 	ldrbeq	r0, [r0, #-278]	; 0xfffffeea
     b68:	009e7803 	addseq	r7, lr, r3, lsl #16
     b6c:	51011600 	tstpl	r1, r0, lsl #12
     b70:	9e6c0305 	cdpls	3, 6, cr0, cr12, cr5, {0}
     b74:	01160000 	tsteq	r6, r0
     b78:	68030552 	stmdavs	r3, {r1, r4, r6, r8, sl}
     b7c:	1600009f 			; <UNDEFINED> instruction: 0x1600009f
     b80:	08025301 	stmdaeq	r2, {r0, r8, r9, ip, lr}
     b84:	7d021625 	stcvc	6, cr1, [r2, #-148]	; 0xffffff6c
     b88:	8c030500 	cfstr32hi	mvfx0, [r3], {-0}
     b8c:	0000009e 	muleq	r0, lr, r0
     b90:	0081941a 	addeq	r9, r1, sl, lsl r4
     b94:	0008b600 	andeq	fp, r8, r0, lsl #12
     b98:	1b000000 	blne	ba0 <__code_start__-0x7460>
     b9c:	000000c0 	andeq	r0, r0, r0, asr #1
     ba0:	00000762 	andeq	r0, r0, r2, ror #14
     ba4:	00002c1c 	andeq	r2, r0, ip, lsl ip
     ba8:	09000b00 	stmdbeq	r0, {r8, r9, fp}
     bac:	00000752 	andeq	r0, r0, r2, asr r7
     bb0:	0002a923 	andeq	sl, r2, r3, lsr #18
     bb4:	0d0a0100 	stfeqs	f0, [sl, #-0]
     bb8:	000081c8 	andeq	r8, r0, r8, asr #3
     bbc:	00000094 	muleq	r0, r4, r0
     bc0:	086a9c01 	stmdaeq	sl!, {r0, sl, fp, ip, pc}^
     bc4:	6c1d0000 	ldcvs	0, cr0, [sp], {-0}
     bc8:	200a0100 	andcs	r0, sl, r0, lsl #2
     bcc:	000001c9 	andeq	r0, r0, r9, asr #3
     bd0:	00000363 	andeq	r0, r0, r3, ror #6
     bd4:	0000035b 	andeq	r0, r0, fp, asr r3
     bd8:	0100681d 	tsteq	r0, sp, lsl r8
     bdc:	01c92a0a 	biceq	r2, r9, sl, lsl #20
     be0:	03a70000 			; <UNDEFINED> instruction: 0x03a70000
     be4:	039d0000 	orrseq	r0, sp, #0, 0
     be8:	ad190000 	ldcge	0, cr0, [r9, #-0]
     bec:	62000000 	andvs	r0, r0, #0, 0
     bf0:	05000007 	streq	r0, [r0, #-7]
     bf4:	009f7403 	addseq	r7, pc, r3, lsl #8
     bf8:	03161f00 	tsteq	r6, #0, 30
     bfc:	0c010000 	stceq	0, cr0, [r1], {-0}
     c00:	0001c90c 	andeq	ip, r1, ip, lsl #18
     c04:	0003ef00 	andeq	lr, r3, r0, lsl #30
     c08:	0003e900 	andeq	lr, r3, r0, lsl #18
     c0c:	00701400 	rsbseq	r1, r0, r0, lsl #8
     c10:	c90c1301 	stmdbgt	ip, {r0, r8, r9, ip}
     c14:	1c000001 	stcne	0, cr0, [r0], {1}
     c18:	18000004 	stmdane	r0, {r2}
     c1c:	15000004 	strne	r0, [r0, #-4]
     c20:	000081ec 	andeq	r8, r0, ip, ror #3
     c24:	00000669 	andeq	r0, r0, r9, ror #12
     c28:	000007ea 	andeq	r0, r0, sl, ror #15
     c2c:	02500116 	subseq	r0, r0, #-2147483643	; 0x80000005
     c30:	15000075 	strne	r0, [r0, #-117]	; 0xffffff8b
     c34:	00008228 	andeq	r8, r0, r8, lsr #4
     c38:	0000089e 	muleq	r0, lr, r8
     c3c:	00000822 	andeq	r0, r0, r2, lsr #16
     c40:	05500116 	ldrbeq	r0, [r0, #-278]	; 0xfffffeea
     c44:	009e7803 	addseq	r7, lr, r3, lsl #16
     c48:	51011600 	tstpl	r1, r0, lsl #12
     c4c:	9e6c0305 	cdpls	3, 6, cr0, cr12, cr5, {0}
     c50:	01160000 	tsteq	r6, r0
     c54:	74030552 	strvc	r0, [r3], #-1362	; 0xfffffaae
     c58:	1600009f 			; <UNDEFINED> instruction: 0x1600009f
     c5c:	3b015301 	blcc	55868 <__bss_end__+0x4ae00>
     c60:	007d0216 	rsbseq	r0, sp, r6, lsl r2
     c64:	9e8c0305 	cdpls	3, 8, cr0, cr12, cr5, {0}
     c68:	1a000000 	bne	c70 <__code_start__-0x7390>
     c6c:	0000822c 	andeq	r8, r0, ip, lsr #4
     c70:	000008b6 			; <UNDEFINED> instruction: 0x000008b6
     c74:	00824415 	addeq	r4, r2, r5, lsl r4
     c78:	00089e00 	andeq	r9, r8, r0, lsl #28
     c7c:	00086000 	andeq	r6, r8, r0
     c80:	50011600 	andpl	r1, r1, r0, lsl #12
     c84:	9e900305 	cdpls	3, 9, cr0, cr0, cr5, {0}
     c88:	01160000 	tsteq	r6, r0
     c8c:	6c030551 	cfstr32vs	mvfx0, [r3], {81}	; 0x51
     c90:	1600009e 			; <UNDEFINED> instruction: 0x1600009e
     c94:	03055201 	movweq	r5, #20993	; 0x5201
     c98:	00009f74 	andeq	r9, r0, r4, ror pc
     c9c:	01530116 	cmpeq	r3, r6, lsl r1
     ca0:	7d02164b 	stcvc	6, cr1, [r2, #-300]	; 0xfffffed4
     ca4:	00740200 	rsbseq	r0, r4, r0, lsl #4
     ca8:	82481a00 	subhi	r1, r8, #0, 20
     cac:	08b60000 	ldmeq	r6!, {}	; <UNPREDICTABLE>
     cb0:	25000000 	strcs	r0, [r0, #-0]
     cb4:	0000031b 	andeq	r0, r0, fp, lsl r3
     cb8:	2c182802 	ldccs	8, cr2, [r8], {2}
     cbc:	03000000 	movweq	r0, #0
     cc0:	00000886 	andeq	r0, r0, r6, lsl #17
     cc4:	02006826 	andeq	r6, r0, #2490368	; 0x260000
     cc8:	01c92928 	biceq	r2, r9, r8, lsr #18
     ccc:	27000000 	strcs	r0, [r0, -r0]
     cd0:	00000325 	andeq	r0, r0, r5, lsr #6
     cd4:	00000325 	andeq	r0, r0, r5, lsr #6
     cd8:	27071e06 	strcs	r1, [r7, -r6, lsl #28]
     cdc:	000000a1 	andeq	r0, r0, r1, lsr #1
     ce0:	000000a1 	andeq	r0, r0, r1, lsr #1
     ce4:	2707f704 	strcs	pc, [r7, -r4, lsl #14]
     ce8:	00000613 	andeq	r0, r0, r3, lsl r6
     cec:	00000613 	andeq	r0, r0, r3, lsl r6
     cf0:	27062804 	strcs	r2, [r6, -r4, lsl #16]
     cf4:	0000028d 	andeq	r0, r0, sp, lsl #5
     cf8:	0000028d 	andeq	r0, r0, sp, lsl #5
     cfc:	27061f06 	strcs	r1, [r6, -r6, lsl #30]
     d00:	00000061 	andeq	r0, r0, r1, rrx
     d04:	00000061 	andeq	r0, r0, r1, rrx
     d08:	00066e04 	andeq	r6, r6, r4, lsl #28
     d0c:	00000be5 	andeq	r0, r0, r5, ror #23
     d10:	041a0004 	ldreq	r0, [sl], #-4
     d14:	01040000 	mrseq	r0, (UNDEF: 4)
     d18:	00000195 	muleq	r0, r5, r1
     d1c:	0004140c 	andeq	r1, r4, ip, lsl #8
     d20:	0000fd00 	andeq	pc, r0, r0, lsl #26
     d24:	0084e000 	addeq	lr, r4, r0
     d28:	00059400 	andeq	r9, r5, r0, lsl #8
     d2c:	00059700 	andeq	r9, r5, r0, lsl #14
     d30:	05040200 	streq	r0, [r4, #-512]	; 0xfffffe00
     d34:	00746e69 	rsbseq	r6, r4, r9, ror #28
     d38:	df070403 	svcle	0x00070403
     d3c:	04000000 	streq	r0, [r0], #-0
     d40:	0000002c 	andeq	r0, r0, ip, lsr #32
     d44:	95060103 	strls	r0, [r6, #-259]	; 0xfffffefd
     d48:	03000000 	movweq	r0, #0
     d4c:	016f0502 	cmneq	pc, r2, lsl #10
     d50:	04030000 	streq	r0, [r3], #-0
     d54:	00015a05 	andeq	r5, r1, r5, lsl #20
     d58:	05080300 	streq	r0, [r8, #-768]	; 0xfffffd00
     d5c:	00000155 	andeq	r0, r0, r5, asr r1
     d60:	93080103 	movwls	r0, #33027	; 0x8103
     d64:	05000000 	streq	r0, [r0, #-0]
     d68:	00000183 	andeq	r0, r0, r3, lsl #3
     d6c:	67193102 	ldrvs	r3, [r9, -r2, lsl #2]
     d70:	03000000 	movweq	r0, #0
     d74:	006e0702 	rsbeq	r0, lr, r2, lsl #14
     d78:	8c050000 	stchi	0, cr0, [r5], {-0}
     d7c:	02000001 	andeq	r0, r0, #1, 0
     d80:	007a1934 	rsbseq	r1, sl, r4, lsr r9
     d84:	04030000 	streq	r0, [r3], #-0
     d88:	0000da07 	andeq	sp, r0, r7, lsl #20
     d8c:	07080300 	streq	r0, [r8, -r0, lsl #6]
     d90:	000000d5 	ldrdeq	r0, [r0], -r5
     d94:	00002506 	andeq	r2, r0, r6, lsl #10
     d98:	00009700 	andeq	r9, r0, r0, lsl #14
     d9c:	00250700 	eoreq	r0, r5, r0, lsl #14
     da0:	08000000 	stmdaeq	r0, {}	; <UNPREDICTABLE>
     da4:	00000163 	andeq	r0, r0, r3, ror #2
     da8:	a30e1c03 	movwge	r1, #60419	; 0xec03
     dac:	09000000 	stmdbeq	r0, {}	; <UNPREDICTABLE>
     db0:	00008804 	andeq	r8, r0, r4, lsl #16
     db4:	00250600 	eoreq	r0, r5, r0, lsl #12
     db8:	00b80000 	adcseq	r0, r8, r0
     dbc:	b8070000 	stmdalt	r7, {}	; <UNPREDICTABLE>
     dc0:	00000000 	andeq	r0, r0, r0
     dc4:	00c50409 	sbceq	r0, r5, r9, lsl #8
     dc8:	01030000 	mrseq	r0, (UNDEF: 3)
     dcc:	00009c08 	andeq	r9, r0, r8, lsl #24
     dd0:	00be0400 	adcseq	r0, lr, r0, lsl #8
     dd4:	51080000 	mrspl	r0, (UNDEF: 8)
     dd8:	03000006 	movweq	r0, #6
     ddc:	00d60e21 	sbcseq	r0, r6, r1, lsr #28
     de0:	04090000 	streq	r0, [r9], #-0
     de4:	000000a9 	andeq	r0, r0, r9, lsr #1
     de8:	04040c0a 	streq	r0, [r4], #-3082	; 0xfffff3f6
     dec:	00010d09 	andeq	r0, r1, r9, lsl #26
     df0:	00480b00 	subeq	r0, r8, r0, lsl #22
     df4:	06040000 	streq	r0, [r4], -r0
     df8:	0000b811 	andeq	fp, r0, r1, lsl r8
     dfc:	a80b0000 	stmdage	fp, {}	; <UNPREDICTABLE>
     e00:	04000000 	streq	r0, [r0], #-0
     e04:	00b81107 	adcseq	r1, r8, r7, lsl #2
     e08:	0b040000 	bleq	100e10 <__bss_end__+0xf63a8>
     e0c:	00000019 	andeq	r0, r0, r9, lsl r0
     e10:	2c0e0804 	stccs	8, cr0, [lr], {4}
     e14:	08000000 	stmdaeq	r0, {}	; <UNPREDICTABLE>
     e18:	01790500 	cmneq	r9, r0, lsl #10
     e1c:	09040000 	stmdbeq	r4, {}	; <UNPREDICTABLE>
     e20:	0000dc03 	andeq	sp, r0, r3, lsl #24
     e24:	01070c00 	tsteq	r7, r0, lsl #24
     e28:	00000054 	andeq	r0, r0, r4, asr r0
     e2c:	340e0c05 	strcc	r0, [lr], #-3077	; 0xfffff3fb
     e30:	0d000001 	stceq	0, cr0, [r0, #-4]
     e34:	000002f6 	strdeq	r0, [r0], -r6
     e38:	027b0d0b 	rsbseq	r0, fp, #704	; 0x2c0
     e3c:	000c0000 	andeq	r0, ip, r0
     e40:	0000810e 	andeq	r8, r0, lr, lsl #2
     e44:	0f052400 	svceq	0x00052400
     e48:	0001aa10 	andeq	sl, r1, r0, lsl sl
     e4c:	00060b00 	andeq	r0, r6, r0, lsl #22
     e50:	10050000 	andne	r0, r5, r0
     e54:	0001aa14 	andeq	sl, r1, r4, lsl sl
     e58:	3b0b0000 	blcc	2c0e60 <__bss_end__+0x2b63f8>
     e5c:	05000000 	streq	r0, [r0, #-0]
     e60:	006e0e11 	rsbeq	r0, lr, r1, lsl lr
     e64:	0b040000 	bleq	100e6c <__bss_end__+0xf6404>
     e68:	00000013 	andeq	r0, r0, r3, lsl r0
     e6c:	6e0e1205 	cdpvs	2, 0, cr1, cr14, cr5, {0}
     e70:	08000000 	stmdaeq	r0, {}	; <UNPREDICTABLE>
     e74:	0000ec0b 	andeq	lr, r0, fp, lsl #24
     e78:	0f140500 	svceq	0x00140500
     e7c:	0000010d 	andeq	r0, r0, sp, lsl #2
     e80:	024a0b0c 	subeq	r0, sl, #12, 22	; 0x3000
     e84:	17050000 	strne	r0, [r5, -r0]
     e88:	00006e0e 	andeq	r6, r0, lr, lsl #28
     e8c:	550b1800 	strpl	r1, [fp, #-2048]	; 0xfffff800
     e90:	05000002 	streq	r0, [r0, #-2]
     e94:	006e0e18 	rsbeq	r0, lr, r8, lsl lr
     e98:	0b1c0000 	bleq	700ea0 <__bss_end__+0x6f6438>
     e9c:	0000002e 	andeq	r0, r0, lr, lsr #32
     ea0:	5b0e1a05 	blpl	3876bc <__bss_end__+0x37cc54>
     ea4:	20000000 	andcs	r0, r0, r0
     ea8:	0000f60b 	andeq	pc, r0, fp, lsl #12
     eac:	0b1b0500 	bleq	6c22b4 <__bss_end__+0x6b784c>
     eb0:	0000005b 	andeq	r0, r0, fp, asr r0
     eb4:	04090022 	streq	r0, [r9], #-34	; 0xffffffde
     eb8:	00000134 	andeq	r0, r0, r4, lsr r1
     ebc:	00000005 	andeq	r0, r0, r5
     ec0:	031c0500 	tsteq	ip, #0, 10
     ec4:	00000134 	andeq	r0, r0, r4, lsr r1
     ec8:	0000c00f 	andeq	ip, r0, pc
     ecc:	0f1e0500 	svceq	0x001e0500
     ed0:	000001c8 	andeq	r0, r0, r8, asr #3
     ed4:	01b00409 	lslseq	r0, r9, #8
     ed8:	cb100000 	blgt	400ee0 <__bss_end__+0x3f6478>
     edc:	05000000 	streq	r0, [r0, #-0]
     ee0:	01c80f1f 	biceq	r0, r8, pc, lsl pc
     ee4:	11000000 	mrsne	r0, (UNDEF: 0)
     ee8:	0ab91204 	beq	fee45700 <__bss_end__+0xfee3ac98>
     eec:	10010000 	andne	r0, r1, r0
     ef0:	0001db0f 	andeq	sp, r1, pc, lsl #22
     ef4:	40030500 	andmi	r0, r3, r0, lsl #10
     ef8:	120000a6 	andne	r0, r0, #166, 0	; 0xa6
     efc:	00000b1a 	andeq	r0, r0, sl, lsl fp
     f00:	db0f1101 	blle	3c530c <__bss_end__+0x3ba8a4>
     f04:	05000001 	streq	r0, [r0, #-1]
     f08:	00a64403 	adceq	r4, r6, r3, lsl #8
     f0c:	037d1200 	cmneq	sp, #0, 4
     f10:	12010000 	andne	r0, r1, #0, 0
     f14:	0000250c 	andeq	r2, r0, ip, lsl #10
     f18:	48030500 	stmdami	r3, {r8, sl}
     f1c:	130000a6 	movwne	r0, #166	; 0xa6
     f20:	0000034e 	andeq	r0, r0, lr, asr #6
     f24:	4c06ff01 	stcmi	15, cr15, [r6], {1}
     f28:	2800008a 	stmdacs	r0, {r1, r3, r7}
     f2c:	01000000 	mrseq	r0, (UNDEF: 0)
     f30:	0002729c 	muleq	r2, ip, r2
     f34:	00ad1400 	adceq	r1, sp, r0, lsl #8
     f38:	02820000 	addeq	r0, r2, #0, 0
     f3c:	03050000 	movweq	r0, #20480	; 0x5000
     f40:	0000a2a4 	andeq	sl, r0, r4, lsr #5
     f44:	008a6415 	addeq	r6, sl, r5, lsl r4
     f48:	000b7c00 	andeq	r7, fp, r0, lsl #24
     f4c:	00026800 	andeq	r6, r2, r0, lsl #16
     f50:	50011600 	andpl	r1, r1, r0, lsl #12
     f54:	a2400305 	subge	r0, r0, #335544320	; 0x14000000
     f58:	01160000 	tsteq	r6, r0
     f5c:	20030551 	andcs	r0, r3, r1, asr r5
     f60:	160000a1 	strne	r0, [r0], -r1, lsr #1
     f64:	03055201 	movweq	r5, #20993	; 0x5201
     f68:	0000a2a4 	andeq	sl, r0, r4, lsr #5
     f6c:	03530116 	cmpeq	r3, #-2147483643	; 0x80000005
     f70:	0001000a 	andeq	r0, r1, sl
     f74:	008a6817 	addeq	r6, sl, r7, lsl r8
     f78:	000b8800 	andeq	r8, fp, r0, lsl #16
     f7c:	c5180000 	ldrgt	r0, [r8, #-0]
     f80:	82000000 	andhi	r0, r0, #0, 0
     f84:	19000002 	stmdbne	r0, {r1}
     f88:	0000002c 	andeq	r0, r0, ip, lsr #32
     f8c:	7204000e 	andvc	r0, r4, #14, 0
     f90:	1a000002 	bne	fa0 <__code_start__-0x7060>
     f94:	000003a8 	andeq	r0, r0, r8, lsr #7
     f98:	2c0af601 	stccs	6, cr15, [sl], {1}
     f9c:	3c000000 	stccc	0, cr0, [r0], {-0}
     fa0:	1000008a 	andne	r0, r0, sl, lsl #1
     fa4:	01000000 	mrseq	r0, (UNDEF: 0)
     fa8:	0002c89c 	muleq	r2, ip, r8
     fac:	031e1b00 	tsteq	lr, #0, 22
     fb0:	f8010000 			; <UNDEFINED> instruction: 0xf8010000
     fb4:	00002c0e 	andeq	r2, r0, lr, lsl #24
     fb8:	00043c00 	andeq	r3, r4, r0, lsl #24
     fbc:	00043a00 	andeq	r3, r4, r0, lsl #20
     fc0:	8a441700 	bhi	1106bc8 <__bss_end__+0x10fc160>
     fc4:	058e0000 	streq	r0, [lr]
     fc8:	48170000 	ldmdami	r7, {}	; <UNPREDICTABLE>
     fcc:	c800008a 	stmdagt	r0, {r1, r3, r7}
     fd0:	00000002 	andeq	r0, r0, r2
     fd4:	0004731c 	andeq	r7, r4, ip, lsl r3
     fd8:	11df0100 	bicsne	r0, pc, r0, lsl #2
     fdc:	0000002c 	andeq	r0, r0, ip, lsr #32
     fe0:	0000861c 	andeq	r8, r0, ip, lsl r6
     fe4:	000000b8 	strheq	r0, [r0], -r8
     fe8:	03c09c01 	biceq	r9, r0, #256	; 0x100
     fec:	751b0000 	ldrvc	r0, [fp, #-0]
     ff0:	01000003 	tsteq	r0, r3
     ff4:	002c0be0 	eoreq	r0, ip, r0, ror #23
     ff8:	04530000 	ldrbeq	r0, [r3], #-0
     ffc:	044f0000 	strbeq	r0, [pc], #-0	; 1004 <__code_start__-0x6ffc>
    1000:	f01b0000 			; <UNDEFINED> instruction: 0xf01b0000
    1004:	01000003 	tsteq	r0, r3
    1008:	002c18e0 	eoreq	r1, ip, r0, ror #17
    100c:	04760000 	ldrbteq	r0, [r6], #-0
    1010:	04720000 	ldrbteq	r0, [r2], #-0
    1014:	841b0000 	ldrhi	r0, [fp], #-0
    1018:	01000003 	tsteq	r0, r3
    101c:	002c22e0 	eoreq	r2, ip, r0, ror #5
    1020:	04990000 	ldreq	r0, [r9], #0
    1024:	04950000 	ldreq	r0, [r5], #0
    1028:	0f1b0000 	svceq	0x001b0000
    102c:	01000004 	tsteq	r0, r4
    1030:	01c809e4 	biceq	r0, r8, r4, ror #19
    1034:	04c60000 	strbeq	r0, [r6], #0
    1038:	04b80000 	ldrteq	r0, [r8], #0
    103c:	28150000 	ldmdacs	r5, {}	; <UNPREDICTABLE>
    1040:	7c000086 	stcvc	0, cr0, [r0], {134}	; 0x86
    1044:	4900000b 	stmdbmi	r0, {r0, r1, r3}
    1048:	16000003 	strne	r0, [r0], -r3
    104c:	03055001 	movweq	r5, #20481	; 0x5001
    1050:	00009f88 	andeq	r9, r0, r8, lsl #31
    1054:	86301500 	ldrthi	r1, [r0], -r0, lsl #10
    1058:	0b7c0000 	bleq	1f01060 <__bss_end__+0x1ef65f8>
    105c:	03600000 	cmneq	r0, #0, 0
    1060:	01160000 	tsteq	r6, r0
    1064:	b0030550 	andlt	r0, r3, r0, asr r5
    1068:	000000a0 	andeq	r0, r0, r0, lsr #1
    106c:	00863417 	addeq	r3, r6, r7, lsl r4
    1070:	000b9400 	andeq	r9, fp, r0, lsl #8
    1074:	86501500 	ldrbhi	r1, [r0], -r0, lsl #10
    1078:	0ba00000 	bleq	fe801080 <__bss_end__+0xfe7f6618>
    107c:	037d0000 	cmneq	sp, #0, 0
    1080:	01160000 	tsteq	r6, r0
    1084:	00740250 	rsbseq	r0, r4, r0, asr r2
    1088:	86a41500 	strthi	r1, [r4], r0, lsl #10
    108c:	0b7c0000 	bleq	1f01094 <__bss_end__+0x1ef662c>
    1090:	039a0000 	orrseq	r0, sl, #0, 0
    1094:	01160000 	tsteq	r6, r0
    1098:	c0030550 	andgt	r0, r3, r0, asr r5
    109c:	160000a0 	strne	r0, [r0], -r0, lsr #1
    10a0:	74025101 	strvc	r5, [r2], #-257	; 0xfffffeff
    10a4:	bc1d0000 	ldclt	0, cr0, [sp], {-0}
    10a8:	7c000086 	stcvc	0, cr0, [r0], {134}	; 0x86
    10ac:	1600000b 	strne	r0, [r0], -fp
    10b0:	03055001 	movweq	r5, #20481	; 0x5001
    10b4:	0000a0ec 	andeq	sl, r0, ip, ror #1
    10b8:	02510116 	subseq	r0, r1, #-2147483643	; 0x80000005
    10bc:	01160075 	tsteq	r6, r5, ror r0
    10c0:	00770252 	rsbseq	r0, r7, r2, asr r2
    10c4:	02530116 	subseq	r0, r3, #-2147483643	; 0x80000005
    10c8:	00000076 	andeq	r0, r0, r6, ror r0
    10cc:	00041c1a 	andeq	r1, r4, sl, lsl ip
    10d0:	0ad00100 	beq	ff4014d8 <__bss_end__+0xff3f6a70>
    10d4:	0000002c 	andeq	r0, r0, ip, lsr #32
    10d8:	000089ec 	andeq	r8, r0, ip, ror #19
    10dc:	00000050 	andeq	r0, r0, r0, asr r0
    10e0:	04669c01 	strbteq	r9, [r6], #-3073	; 0xfffff3ff
    10e4:	b81b0000 	ldmdalt	fp, {}	; <UNPREDICTABLE>
    10e8:	01000003 	tsteq	r0, r3
    10ec:	002c0ed5 	ldrdeq	r0, [ip], -r5	; <UNPREDICTABLE>
    10f0:	05210000 	streq	r0, [r1, #-0]!
    10f4:	051b0000 	ldreq	r0, [fp, #-0]
    10f8:	ad140000 	ldcge	0, cr0, [r4, #-0]
    10fc:	76000000 	strvc	r0, [r0], -r0
    1100:	05000004 	streq	r0, [r0, #-4]
    1104:	00a29003 	adceq	r9, r2, r3
    1108:	89f81500 	ldmibhi	r8!, {r8, sl, ip}^
    110c:	05180000 	ldreq	r0, [r8, #-0]
    1110:	04100000 	ldreq	r0, [r0], #-0
    1114:	01160000 	tsteq	r6, r0
    1118:	00310150 	eorseq	r0, r1, r0, asr r1
    111c:	008a0c15 	addeq	r0, sl, r5, lsl ip
    1120:	000b7c00 	andeq	r7, fp, r0, lsl #24
    1124:	00042d00 	andeq	r2, r4, r0, lsl #26
    1128:	50011600 	andpl	r1, r1, r0, lsl #12
    112c:	a21c0305 	andsge	r0, ip, #335544320	; 0x14000000
    1130:	01160000 	tsteq	r6, r0
    1134:	00740251 	rsbseq	r0, r4, r1, asr r2
    1138:	8a281500 	bhi	a06540 <__bss_end__+0x9fbad8>
    113c:	0b7c0000 	bleq	1f01144 <__bss_end__+0x1ef66dc>
    1140:	045c0000 	ldrbeq	r0, [ip], #-0
    1144:	01160000 	tsteq	r6, r0
    1148:	f4030550 	vst3.16	{d0,d2,d4}, [r3 :64], r0
    114c:	160000a1 	strne	r0, [r0], -r1, lsr #1
    1150:	03055101 	movweq	r5, #20737	; 0x5101
    1154:	0000a120 	andeq	sl, r0, r0, lsr #2
    1158:	05520116 	ldrbeq	r0, [r2, #-278]	; 0xfffffeea
    115c:	00a29003 	adceq	r9, r2, r3
    1160:	53011600 	movwpl	r1, #5632	; 0x1600
    1164:	00d70802 	sbcseq	r0, r7, r2, lsl #16
    1168:	008a2c17 	addeq	r2, sl, r7, lsl ip
    116c:	000b8800 	andeq	r8, fp, r0, lsl #16
    1170:	c5180000 	ldrgt	r0, [r8, #-0]
    1174:	76000000 	strvc	r0, [r0], -r0
    1178:	19000004 	stmdbne	r0, {r2}
    117c:	0000002c 	andeq	r0, r0, ip, lsr #32
    1180:	66040011 			; <UNDEFINED> instruction: 0x66040011
    1184:	13000004 	movwne	r0, #4
    1188:	000003cc 	andeq	r0, r0, ip, asr #7
    118c:	a406c301 	strge	ip, [r6], #-769	; 0xfffffcff
    1190:	48000089 	stmdami	r0, {r0, r3, r7}
    1194:	01000000 	mrseq	r0, (UNDEF: 0)
    1198:	0005039c 	muleq	r5, ip, r3
    119c:	00ad1400 	adceq	r1, sp, r0, lsl #8
    11a0:	05130000 	ldreq	r0, [r3, #-0]
    11a4:	03050000 	movweq	r0, #20480	; 0x5000
    11a8:	0000a280 	andeq	sl, r0, r0, lsl #5
    11ac:	0089b015 	addeq	fp, r9, r5, lsl r0
    11b0:	00051800 	andeq	r1, r5, r0, lsl #16
    11b4:	0004b300 	andeq	fp, r4, r0, lsl #6
    11b8:	50011600 	andpl	r1, r1, r0, lsl #12
    11bc:	15003101 	strne	r3, [r0, #-257]	; 0xfffffeff
    11c0:	000089c0 	andeq	r8, r0, r0, asr #19
    11c4:	00000b7c 	andeq	r0, r0, ip, ror fp
    11c8:	000004ca 	andeq	r0, r0, sl, asr #9
    11cc:	05500116 	ldrbeq	r0, [r0, #-278]	; 0xfffffeea
    11d0:	00a1d403 	adceq	sp, r1, r3, lsl #8
    11d4:	d8150000 	ldmdale	r5, {}	; <UNPREDICTABLE>
    11d8:	7c000089 	stcvc	0, cr0, [r0], {137}	; 0x89
    11dc:	f900000b 			; <UNDEFINED> instruction: 0xf900000b
    11e0:	16000004 	strne	r0, [r0], -r4
    11e4:	03055001 	movweq	r5, #20481	; 0x5001
    11e8:	0000a1a8 	andeq	sl, r0, r8, lsr #3
    11ec:	05510116 	ldrbeq	r0, [r1, #-278]	; 0xfffffeea
    11f0:	00a12003 	adceq	r2, r1, r3
    11f4:	52011600 	andpl	r1, r1, #0, 12
    11f8:	a2800305 	addge	r0, r0, #335544320	; 0x14000000
    11fc:	01160000 	tsteq	r6, r0
    1200:	c9080253 	stmdbgt	r8, {r0, r1, r4, r6, r9}
    1204:	89dc1700 	ldmibhi	ip, {r8, r9, sl, ip}^
    1208:	0b880000 	bleq	fe201210 <__bss_end__+0xfe1f67a8>
    120c:	18000000 	stmdane	r0, {}	; <UNPREDICTABLE>
    1210:	000000c5 	andeq	r0, r0, r5, asr #1
    1214:	00000513 	andeq	r0, r0, r3, lsl r5
    1218:	00002c19 	andeq	r2, r0, r9, lsl ip
    121c:	04000d00 	streq	r0, [r0], #-3328	; 0xfffff300
    1220:	00000503 	andeq	r0, r0, r3, lsl #10
    1224:	0000201a 	andeq	r2, r0, sl, lsl r0
    1228:	0abb0100 	beq	feec1630 <__bss_end__+0xfeeb6bc8>
    122c:	0000002c 	andeq	r0, r0, ip, lsr #32
    1230:	00008974 	andeq	r8, r0, r4, ror r9
    1234:	00000030 	andeq	r0, r0, r0, lsr r0
    1238:	058e9c01 	streq	r9, [lr, #3073]	; 0xc01
    123c:	7e1e0000 	cdpvc	0, 1, cr0, cr14, cr0, {0}
    1240:	01000004 	tsteq	r0, r4
    1244:	00251cbb 	strhteq	r1, [r5], -fp
    1248:	054e0000 	strbeq	r0, [lr, #-0]
    124c:	054a0000 	strbeq	r0, [sl, #-0]
    1250:	84150000 	ldrhi	r0, [r5], #-0
    1254:	7c000089 	stcvc	0, cr0, [r0], {137}	; 0x89
    1258:	5d00000b 	stcpl	0, cr0, [r0, #-44]	; 0xffffffd4
    125c:	16000005 	strne	r0, [r0], -r5
    1260:	03055001 	movweq	r5, #20481	; 0x5001
    1264:	0000a18c 	andeq	sl, r0, ip, lsl #3
    1268:	89881700 	stmibhi	r8, {r8, r9, sl, ip}
    126c:	058e0000 	streq	r0, [lr]
    1270:	90150000 	andsls	r0, r5, r0
    1274:	7c000089 	stcvc	0, cr0, [r0], {137}	; 0x89
    1278:	7d00000b 	stcvc	0, cr0, [r0, #-44]	; 0xffffffd4
    127c:	16000005 	strne	r0, [r0], -r5
    1280:	03055001 	movweq	r5, #20481	; 0x5001
    1284:	0000a1a0 	andeq	sl, r0, r0, lsr #3
    1288:	89981d00 	ldmibhi	r8, {r8, sl, fp, ip}
    128c:	06b00000 	ldrteq	r0, [r0], r0
    1290:	01160000 	tsteq	r6, r0
    1294:	00740250 	rsbseq	r0, r4, r0, asr r2
    1298:	451f0000 	ldrmi	r0, [pc, #-0]	; 12a0 <__code_start__-0x6d60>
    129c:	01000003 	tsteq	r0, r3
    12a0:	88300d93 	ldmdahi	r0!, {r0, r1, r4, r7, r8, sl, fp}
    12a4:	00900000 	addseq	r0, r0, r0
    12a8:	9c010000 	stcls	0, cr0, [r1], {-0}
    12ac:	00000685 	andeq	r0, r0, r5, lsl #13
    12b0:	0003b312 	andeq	fp, r3, r2, lsl r3
    12b4:	0e9d0100 	fmleqe	f0, f5, f0
    12b8:	00000685 	andeq	r0, r0, r5, lsl #13
    12bc:	7fb89103 	svcvc	0x00b89103
    12c0:	0000ad20 	andeq	sl, r0, r0, lsr #26
    12c4:	0006a500 	andeq	sl, r6, r0, lsl #10
    12c8:	032f2100 			; <UNDEFINED> instruction: 0x032f2100
    12cc:	ae010000 	cdpge	0, 0, cr0, cr1, cr0, {0}
    12d0:	0006aa0f 	andeq	sl, r6, pc, lsl #20
    12d4:	00000000 	andeq	r0, r0, r0
    12d8:	035d0808 	cmpeq	sp, #8, 16	; 0x80000
    12dc:	b2010000 	andlt	r0, r1, #0, 0
    12e0:	00006e15 	andeq	r6, r0, r5, lsl lr
    12e4:	042e0800 	strteq	r0, [lr], #-2048	; 0xfffff800
    12e8:	b2010000 	andlt	r0, r1, #0, 0
    12ec:	00006e24 	andeq	r6, r0, r4, lsr #28
    12f0:	04640800 	strbteq	r0, [r4], #-2048	; 0xfffff800
    12f4:	b5010000 	strlt	r0, [r1, #-0]
    12f8:	00006e15 	andeq	r6, r0, r5, lsl lr
    12fc:	03bf0800 			; <UNDEFINED> instruction: 0x03bf0800
    1300:	b5010000 	strlt	r0, [r1, #-0]
    1304:	00006e25 	andeq	r6, r0, r5, lsr #28
    1308:	88382200 	ldmdahi	r8!, {r9, sp}
    130c:	00240000 	eoreq	r0, r4, r0
    1310:	062f0000 	strteq	r0, [pc], -r0
    1314:	68230000 	stmdavs	r3!, {}	; <UNPREDICTABLE>
    1318:	10970100 	addsne	r0, r7, r0, lsl #2
    131c:	000001c8 	andeq	r0, r0, r8, asr #3
    1320:	00000570 	andeq	r0, r0, r0, ror r5
    1324:	0000056c 	andeq	r0, r0, ip, ror #10
    1328:	00883c17 	addeq	r3, r8, r7, lsl ip
    132c:	000b9400 	andeq	r9, fp, r0, lsl #8
    1330:	88581700 	ldmdahi	r8, {r8, r9, sl, ip}^
    1334:	0ba00000 	bleq	fe80133c <__bss_end__+0xfe7f68d4>
    1338:	15000000 	strne	r0, [r0, #-0]
    133c:	00008864 	andeq	r8, r0, r4, ror #16
    1340:	00000bac 	andeq	r0, r0, ip, lsr #23
    1344:	00000643 	andeq	r0, r0, r3, asr #12
    1348:	02500116 	subseq	r0, r0, #-2147483643	; 0x80000005
    134c:	1500007d 	strne	r0, [r0, #-125]	; 0xffffff83
    1350:	00008884 	andeq	r8, r0, r4, lsl #17
    1354:	00000801 	andeq	r0, r0, r1, lsl #16
    1358:	0000065d 	andeq	r0, r0, sp, asr r6
    135c:	02500116 	subseq	r0, r0, #-2147483643	; 0x80000005
    1360:	0116007d 	tsteq	r6, sp, ror r0
    1364:	70910251 	addsvc	r0, r1, r1, asr r2
    1368:	88901500 	ldmhi	r0, {r8, sl, ip}
    136c:	08010000 	stmdaeq	r1, {}	; <UNPREDICTABLE>
    1370:	06720000 	ldrbteq	r0, [r2], -r0
    1374:	01160000 	tsteq	r6, r0
    1378:	47400351 	smlsldmi	r0, r0, r1, r3	; <UNPREDICTABLE>
    137c:	9c170024 	ldcls	0, cr0, [r7], {36}	; 0x24
    1380:	01000088 	smlabbeq	r0, r8, r0, r0
    1384:	17000008 	strne	r0, [r0, -r8]
    1388:	000088a8 	andeq	r8, r0, r8, lsr #17
    138c:	00000801 	andeq	r0, r0, r1, lsl #16
    1390:	006e1800 	rsbeq	r1, lr, r0, lsl #16
    1394:	06950000 	ldreq	r0, [r5], r0
    1398:	2c190000 	ldccs	0, cr0, [r9], {-0}
    139c:	0f000000 	svceq	0x00000000
    13a0:	00c51800 	sbceq	r1, r5, r0, lsl #16
    13a4:	06a50000 	strteq	r0, [r5], r0
    13a8:	2c190000 	ldccs	0, cr0, [r9], {-0}
    13ac:	08000000 	stmdaeq	r0, {}	; <UNPREDICTABLE>
    13b0:	06950400 	ldreq	r0, [r5], r0, lsl #8
    13b4:	04090000 	streq	r0, [r9], #-0
    13b8:	0000006e 	andeq	r0, r0, lr, rrx
    13bc:	0004591c 	andeq	r5, r4, ip, lsl r9
    13c0:	11690100 	cmnne	r9, r0, lsl #2
    13c4:	0000002c 	andeq	r0, r0, ip, lsr #32
    13c8:	0000851c 	andeq	r8, r0, ip, lsl r5
    13cc:	00000100 	andeq	r0, r0, r0, lsl #2
    13d0:	08019c01 	stmdaeq	r1, {r0, sl, fp, ip, pc}
    13d4:	7e1e0000 	cdpvc	0, 1, cr0, cr14, cr0, {0}
    13d8:	01000004 	tsteq	r0, r4
    13dc:	00252069 	eoreq	r2, r5, r9, rrx
    13e0:	05920000 	ldreq	r0, [r2]
    13e4:	058e0000 	streq	r0, [lr]
    13e8:	751b0000 	ldrvc	r0, [fp, #-0]
    13ec:	01000003 	tsteq	r0, r3
    13f0:	002c0b6a 	eoreq	r0, ip, sl, ror #22
    13f4:	05b70000 	ldreq	r0, [r7, #0]!
    13f8:	05b30000 	ldreq	r0, [r3, #0]!
    13fc:	a11b0000 	tstge	fp, r0
    1400:	01000003 	tsteq	r0, r3
    1404:	002c186a 	eoreq	r1, ip, sl, ror #16
    1408:	05da0000 	ldrbeq	r0, [sl]
    140c:	05d60000 	ldrbeq	r0, [r6]
    1410:	9b1b0000 	blls	6c1418 <__bss_end__+0x6b69b0>
    1414:	01000003 	tsteq	r0, r3
    1418:	002c246a 	eoreq	r2, ip, sl, ror #8
    141c:	05fd0000 	ldrbeq	r0, [sp, #0]!
    1420:	05f90000 	ldrbeq	r0, [r9, #0]!
    1424:	0f1b0000 	svceq	0x001b0000
    1428:	01000004 	tsteq	r0, r4
    142c:	01c8096f 	biceq	r0, r8, pc, ror #18
    1430:	06240000 	strteq	r0, [r4], -r0
    1434:	061c0000 	ldreq	r0, [ip], -r0
    1438:	28150000 	ldmdacs	r5, {}	; <UNPREDICTABLE>
    143c:	7c000085 	stcvc	0, cr0, [r0], {133}	; 0x85
    1440:	4500000b 	strmi	r0, [r0, #-11]
    1444:	16000007 	strne	r0, [r0], -r7
    1448:	03055001 	movweq	r5, #20481	; 0x5001
    144c:	00009f88 	andeq	r9, r0, r8, lsl #31
    1450:	85301500 	ldrhi	r1, [r0, #-1280]!	; 0xfffffb00
    1454:	0b7c0000 	bleq	1f0145c <__bss_end__+0x1ef69f4>
    1458:	075c0000 	ldrbeq	r0, [ip, -r0]
    145c:	01160000 	tsteq	r6, r0
    1460:	c4030550 	strgt	r0, [r3], #-1360	; 0xfffffab0
    1464:	0000009f 	muleq	r0, pc, r0	; <UNPREDICTABLE>
    1468:	00853417 	addeq	r3, r5, r7, lsl r4
    146c:	000b9400 	andeq	r9, fp, r0, lsl #8
    1470:	85701500 	ldrbhi	r1, [r0, #-1280]!	; 0xfffffb00
    1474:	0b7c0000 	bleq	1f0147c <__bss_end__+0x1ef6a14>
    1478:	07820000 	streq	r0, [r2, r0]
    147c:	01160000 	tsteq	r6, r0
    1480:	dc030550 	cfstr32le	mvfx0, [r3], {80}	; 0x50
    1484:	1600009f 			; <UNDEFINED> instruction: 0x1600009f
    1488:	74025101 	strvc	r5, [r2], #-257	; 0xfffffeff
    148c:	78150000 	ldmdavc	r5, {}	; <UNPREDICTABLE>
    1490:	a0000085 	andge	r0, r0, r5, lsl #1
    1494:	9600000b 	strls	r0, [r0], -fp
    1498:	16000007 	strne	r0, [r0], -r7
    149c:	74025001 	strvc	r5, [r2], #-1
    14a0:	cc150000 	ldcgt	0, cr0, [r5], {-0}
    14a4:	7c000085 	stcvc	0, cr0, [r0], {133}	; 0x85
    14a8:	b300000b 	movwlt	r0, #11
    14ac:	16000007 	strne	r0, [r0], -r7
    14b0:	03055001 	movweq	r5, #20481	; 0x5001
    14b4:	00009ffc 	strdeq	r9, [r0], -ip
    14b8:	02510116 	subseq	r0, r1, #-2147483643	; 0x80000005
    14bc:	15000075 	strne	r0, [r0, #-117]	; 0xffffff8b
    14c0:	000085dc 	ldrdeq	r8, [r0], -ip
    14c4:	00000b7c 	andeq	r0, r0, ip, ror fp
    14c8:	000007ca 	andeq	r0, r0, sl, asr #15
    14cc:	05500116 	ldrbeq	r0, [r0, #-278]	; 0xfffffeea
    14d0:	00a01c03 	adceq	r1, r0, r3, lsl #24
    14d4:	e4150000 	ldr	r0, [r5], #-0
    14d8:	7c000085 	stcvc	0, cr0, [r0], {133}	; 0x85
    14dc:	e100000b 	tst	r0, fp
    14e0:	16000007 	strne	r0, [r0], -r7
    14e4:	03055001 	movweq	r5, #20481	; 0x5001
    14e8:	0000a074 	andeq	sl, r0, r4, ror r0
    14ec:	85fc1d00 	ldrbhi	r1, [ip, #3328]!	; 0xd00
    14f0:	0b7c0000 	bleq	1f014f8 <__bss_end__+0x1ef6a90>
    14f4:	01160000 	tsteq	r6, r0
    14f8:	44030550 	strmi	r0, [r3], #-1360	; 0xfffffab0
    14fc:	160000a0 	strne	r0, [r0], -r0, lsr #1
    1500:	77025101 	strvc	r5, [r2, -r1, lsl #2]
    1504:	52011600 	andpl	r1, r1, #0, 12
    1508:	00007602 	andeq	r7, r0, r2, lsl #12
    150c:	002e1f00 	eoreq	r1, lr, r0, lsl #30
    1510:	4b010000 	blmi	41518 <__bss_end__+0x36ab0>
    1514:	0086fc0d 	addeq	pc, r6, sp, lsl #24
    1518:	00013400 	andeq	r3, r1, r0, lsl #8
    151c:	ba9c0100 	blt	fe701924 <__bss_end__+0xfe6f6ebc>
    1520:	24000009 	strcs	r0, [r0], #-9
    1524:	4b010070 	blmi	416ec <__bss_end__+0x36c84>
    1528:	0006aa1c 	andeq	sl, r6, ip, lsl sl
    152c:	00066600 	andeq	r6, r6, r0, lsl #12
    1530:	00065800 	andeq	r5, r6, r0, lsl #16
    1534:	00652400 	rsbeq	r2, r5, r0, lsl #8
    1538:	aa294b01 	bge	a54144 <__bss_end__+0xa496dc>
    153c:	d1000006 	tstle	r0, r6
    1540:	c1000006 	tstgt	r0, r6
    1544:	14000006 	strne	r0, [r0], #-6
    1548:	000000ad 	andeq	r0, r0, sp, lsr #1
    154c:	000009ca 	andeq	r0, r0, sl, asr #19
    1550:	a2700305 	rsbsge	r0, r0, #335544320	; 0x14000000
    1554:	6b1b0000 	blvs	6c155c <__bss_end__+0x6b6af4>
    1558:	01000003 	tsteq	r0, r3
    155c:	00331151 	eorseq	r1, r3, r1, asr r1
    1560:	07430000 	strbeq	r0, [r3, -r0]
    1564:	073d0000 	ldreq	r0, [sp, -r0]!
    1568:	18250000 	stmdane	r5!, {}	; <UNPREDICTABLE>
    156c:	f3000000 	vhadd.u8	d0, d0, d0
    1570:	23000008 	movwcs	r0, #8
    1574:	52010069 	andpl	r0, r1, #105, 0	; 0x69
    1578:	00002c10 	andeq	r2, r0, r0, lsl ip
    157c:	00077900 	andeq	r7, r7, r0, lsl #18
    1580:	00077500 	andeq	r7, r7, r0, lsl #10
    1584:	00302600 	eorseq	r2, r0, r0, lsl #12
    1588:	f71b0000 			; <UNDEFINED> instruction: 0xf71b0000
    158c:	01000003 	tsteq	r0, r3
    1590:	01c80a53 	biceq	r0, r8, r3, asr sl
    1594:	079e0000 	ldreq	r0, [lr, r0]
    1598:	07980000 	ldreq	r0, [r8, r0]
    159c:	48250000 	stmdami	r5!, {}	; <UNPREDICTABLE>
    15a0:	e8000000 	stmda	r0, {}	; <UNPREDICTABLE>
    15a4:	1b000008 	blne	15cc <__code_start__-0x6a34>
    15a8:	00000339 	andeq	r0, r0, r9, lsr r3
    15ac:	aa0e5e01 	bge	398db8 <__bss_end__+0x38e350>
    15b0:	cb000006 	blgt	15d0 <__code_start__-0x6a30>
    15b4:	c7000007 	strgt	r0, [r0, -r7]
    15b8:	1b000007 	blne	15dc <__code_start__-0x6a24>
    15bc:	000003e6 	andeq	r0, r0, r6, ror #7
    15c0:	aa0e5f01 	bge	3991cc <__bss_end__+0x38e764>
    15c4:	ef000006 	svc	0x00000006
    15c8:	eb000007 	bl	15ec <__code_start__-0x6a14>
    15cc:	15000007 	strne	r0, [r0, #-7]
    15d0:	000087a8 	andeq	r8, r0, r8, lsr #15
    15d4:	00000801 	andeq	r0, r0, r1, lsl #16
    15d8:	000008d7 	ldrdeq	r0, [r0], -r7
    15dc:	02500116 	subseq	r0, r0, #-2147483643	; 0x80000005
    15e0:	1d002474 	cfstrsne	mvf2, [r0, #-464]	; 0xfffffe30
    15e4:	000087e8 	andeq	r8, r0, r8, ror #15
    15e8:	00000bb8 			; <UNDEFINED> instruction: 0x00000bb8
    15ec:	02500116 	subseq	r0, r0, #-2147483643	; 0x80000005
    15f0:	00000074 	andeq	r0, r0, r4, ror r0
    15f4:	0087c017 	addeq	ip, r7, r7, lsl r0
    15f8:	0009cf00 	andeq	ip, r9, r0, lsl #30
    15fc:	15000000 	strne	r0, [r0, #-0]
    1600:	00008748 	andeq	r8, r0, r8, asr #14
    1604:	00000b7c 	andeq	r0, r0, ip, ror fp
    1608:	0000092c 	andeq	r0, r0, ip, lsr #18
    160c:	05500116 	ldrbeq	r0, [r0, #-278]	; 0xfffffeea
    1610:	009e7803 	addseq	r7, lr, r3, lsl #16
    1614:	51011600 	tstpl	r1, r0, lsl #12
    1618:	a1200305 			; <UNDEFINED> instruction: 0xa1200305
    161c:	01160000 	tsteq	r6, r0
    1620:	70030552 	andvc	r0, r3, r2, asr r5
    1624:	160000a2 	strne	r0, [r0], -r2, lsr #1
    1628:	08025301 	stmdaeq	r2, {r0, r8, r9, ip, lr}
    162c:	7d02164c 	stcvc	6, cr1, [r2, #-304]	; 0xfffffed0
    1630:	28030500 	stmdacs	r3, {r8, sl}
    1634:	000000a1 	andeq	r0, r0, r1, lsr #1
    1638:	00874c17 	addeq	r4, r7, r7, lsl ip
    163c:	000b8800 	andeq	r8, fp, r0, lsl #16
    1640:	87681500 	strbhi	r1, [r8, -r0, lsl #10]!
    1644:	0b7c0000 	bleq	1f0164c <__bss_end__+0x1ef6be4>
    1648:	096e0000 	stmdbeq	lr!, {}^	; <UNPREDICTABLE>
    164c:	01160000 	tsteq	r6, r0
    1650:	78030550 	stmdavc	r3, {r4, r6, r8, sl}
    1654:	1600009e 			; <UNDEFINED> instruction: 0x1600009e
    1658:	03055101 	movweq	r5, #20737	; 0x5101
    165c:	0000a120 	andeq	sl, r0, r0, lsr #2
    1660:	05520116 	ldrbeq	r0, [r2, #-278]	; 0xfffffeea
    1664:	00a27003 	adceq	r7, r2, r3
    1668:	53011600 	movwpl	r1, #5632	; 0x1600
    166c:	164e0802 	strbne	r0, [lr], -r2, lsl #16
    1670:	05007d02 	streq	r7, [r0, #-3330]	; 0xfffff2fe
    1674:	00a12c03 	adceq	r2, r1, r3, lsl #24
    1678:	6c170000 	ldcvs	0, cr0, [r7], {-0}
    167c:	88000087 	stmdahi	r0, {r0, r1, r2, r7}
    1680:	1500000b 	strne	r0, [r0, #-11]
    1684:	00008788 	andeq	r8, r0, r8, lsl #15
    1688:	00000b7c 	andeq	r0, r0, ip, ror fp
    168c:	000009b0 			; <UNDEFINED> instruction: 0x000009b0
    1690:	05500116 	ldrbeq	r0, [r0, #-278]	; 0xfffffeea
    1694:	009e7803 	addseq	r7, lr, r3, lsl #16
    1698:	51011600 	tstpl	r1, r0, lsl #12
    169c:	a1200305 			; <UNDEFINED> instruction: 0xa1200305
    16a0:	01160000 	tsteq	r6, r0
    16a4:	70030552 	andvc	r0, r3, r2, asr r5
    16a8:	160000a2 	strne	r0, [r0], -r2, lsr #1
    16ac:	08025301 	stmdaeq	r2, {r0, r8, r9, ip, lr}
    16b0:	7d02164f 	stcvc	6, cr1, [r2, #-316]	; 0xfffffec4
    16b4:	3c030500 	cfstr32cc	mvfx0, [r3], {-0}
    16b8:	000000a1 	andeq	r0, r0, r1, lsr #1
    16bc:	00878c17 	addeq	r8, r7, r7, lsl ip
    16c0:	000b8800 	andeq	r8, fp, r0, lsl #16
    16c4:	c5180000 	ldrgt	r0, [r8, #-0]
    16c8:	ca000000 	bgt	16d0 <__code_start__-0x6930>
    16cc:	19000009 	stmdbne	r0, {r0, r3}
    16d0:	0000002c 	andeq	r0, r0, ip, lsr #32
    16d4:	ba040004 	blt	1016ec <__bss_end__+0xf6c84>
    16d8:	1c000009 	stcne	0, cr0, [r0], {9}
    16dc:	000003df 	ldrdeq	r0, [r0], -pc	; <UNPREDICTABLE>
    16e0:	c80f3801 	stmdagt	pc, {r0, fp, ip, sp}	; <UNPREDICTABLE>
    16e4:	d4000001 	strle	r0, [r0], #-1
    16e8:	28000086 	stmdacs	r0, {r1, r2, r7}
    16ec:	01000000 	mrseq	r0, (UNDEF: 0)
    16f0:	000a349c 	muleq	sl, ip, r4
    16f4:	0ad01e00 	beq	ff408efc <__bss_end__+0xff3fe494>
    16f8:	38010000 	stmdacc	r1, {}	; <UNPREDICTABLE>
    16fc:	00006e1f 	andeq	r6, r0, pc, lsl lr
    1700:	00081600 	andeq	r1, r8, r0, lsl #12
    1704:	00081200 	andeq	r1, r8, r0, lsl #4
    1708:	00702300 	rsbseq	r2, r0, r0, lsl #6
    170c:	db0b3901 	blle	2cfb18 <__bss_end__+0x2c50b0>
    1710:	38000001 	stmdacc	r0, {r0}
    1714:	34000008 	strcc	r0, [r0], #-8
    1718:	15000008 	strne	r0, [r0, #-8]
    171c:	000086e0 	andeq	r8, r0, r0, ror #13
    1720:	00000a34 	andeq	r0, r0, r4, lsr sl
    1724:	00000a23 	andeq	r0, r0, r3, lsr #20
    1728:	02500116 	subseq	r0, r0, #-2147483643	; 0x80000005
    172c:	1d000074 	stcne	0, cr0, [r0, #-464]	; 0xfffffe30
    1730:	000086f0 	strdeq	r8, [r0], -r0
    1734:	00000bc4 	andeq	r0, r0, r4, asr #23
    1738:	02500116 	subseq	r0, r0, #-2147483643	; 0x80000005
    173c:	00000074 	andeq	r0, r0, r4, ror r0
    1740:	0004011c 	andeq	r0, r4, ip, lsl r1
    1744:	0c280100 	stfeqs	f0, [r8], #-0
    1748:	00000025 	andeq	r0, r0, r5, lsr #32
    174c:	000084e0 	andeq	r8, r0, r0, ror #9
    1750:	0000003c 	andeq	r0, r0, ip, lsr r0
    1754:	0a619c01 	beq	1868760 <__bss_end__+0x185dcf8>
    1758:	70240000 	eorvc	r0, r4, r0
    175c:	1a280100 	bne	a01b64 <__bss_end__+0x9f70fc>
    1760:	000001db 	ldrdeq	r0, [r0], -fp
    1764:	00000862 	andeq	r0, r0, r2, ror #16
    1768:	00000856 	andeq	r0, r0, r6, asr r8
    176c:	03da1a00 	bicseq	r1, sl, #0, 20
    1770:	13010000 	movwne	r0, #4096	; 0x1000
    1774:	0001db07 	andeq	sp, r1, r7, lsl #22
    1778:	0088c000 	addeq	ip, r8, r0
    177c:	0000b400 	andeq	fp, r0, r0, lsl #8
    1780:	7c9c0100 	ldfvcs	f0, [ip], {0}
    1784:	1e00000b 	cdpne	0, 0, cr0, cr0, cr11, {0}
    1788:	00000391 	muleq	r0, r1, r3
    178c:	46111301 	ldrmi	r1, [r1], -r1, lsl #6
    1790:	b9000000 	stmdblt	r0, {}	; <UNPREDICTABLE>
    1794:	b5000008 	strlt	r0, [r0, #-8]
    1798:	14000008 	strne	r0, [r0], #-8
    179c:	000000ad 	andeq	r0, r0, sp, lsr #1
    17a0:	000009ca 	andeq	r0, r0, sl, asr #19
    17a4:	a2780305 	rsbsge	r0, r8, #335544320	; 0x14000000
    17a8:	ec220000 	stc	0, cr0, [r2], #-0
    17ac:	24000088 	strcs	r0, [r0], #-136	; 0xffffff78
    17b0:	d8000000 	stmdale	r0, {}	; <UNPREDICTABLE>
    17b4:	1b00000a 	blne	17e4 <__code_start__-0x681c>
    17b8:	00000409 	andeq	r0, r0, r9, lsl #8
    17bc:	2c121901 			; <UNDEFINED> instruction: 0x2c121901
    17c0:	d9000000 	stmdble	r0, {}	; <UNPREDICTABLE>
    17c4:	d7000008 	strle	r0, [r0, -r8]
    17c8:	1d000008 	stcne	0, cr0, [r0, #-32]	; 0xffffffe0
    17cc:	00008908 	andeq	r8, r0, r8, lsl #18
    17d0:	00000bd0 	ldrdeq	r0, [r0], -r0	; <UNPREDICTABLE>
    17d4:	03500116 	cmpeq	r0, #-2147483643	; 0x80000005
    17d8:	16244040 	strtne	r4, [r4], -r0, asr #32
    17dc:	40035101 	andmi	r5, r3, r1, lsl #2
    17e0:	00002440 	andeq	r2, r0, r0, asr #8
    17e4:	0088d415 	addeq	sp, r8, r5, lsl r4
    17e8:	000b7c00 	andeq	r7, fp, r0, lsl #24
    17ec:	000aef00 	andeq	lr, sl, r0, lsl #30
    17f0:	50011600 	andpl	r1, r1, r0, lsl #12
    17f4:	a14c0305 	cmpge	ip, r5, lsl #6
    17f8:	15000000 	strne	r0, [r0, #-0]
    17fc:	00008918 	andeq	r8, r0, r8, lsl r9
    1800:	00000bdc 	ldrdeq	r0, [r0], -ip
    1804:	00000b03 	andeq	r0, r0, r3, lsl #22
    1808:	02500116 	subseq	r0, r0, #-2147483643	; 0x80000005
    180c:	15000074 	strne	r0, [r0, #-116]	; 0xffffff8c
    1810:	0000893c 	andeq	r8, r0, ip, lsr r9
    1814:	00000b7c 	andeq	r0, r0, ip, ror fp
    1818:	00000b3b 	andeq	r0, r0, fp, lsr fp
    181c:	05500116 	ldrbeq	r0, [r0, #-278]	; 0xfffffeea
    1820:	009e7803 	addseq	r7, lr, r3, lsl #16
    1824:	51011600 	tstpl	r1, r0, lsl #12
    1828:	a1200305 			; <UNDEFINED> instruction: 0xa1200305
    182c:	01160000 	tsteq	r6, r0
    1830:	78030552 	stmdavc	r3, {r1, r4, r6, r8, sl}
    1834:	160000a2 	strne	r0, [r0], -r2, lsr #1
    1838:	45015301 	strmi	r5, [r1, #-769]	; 0xfffffcff
    183c:	007d0216 	rsbseq	r0, sp, r6, lsl r2
    1840:	a15c0305 	cmpge	ip, r5, lsl #6
    1844:	17000000 	strne	r0, [r0, -r0]
    1848:	00008940 	andeq	r8, r0, r0, asr #18
    184c:	00000b88 	andeq	r0, r0, r8, lsl #23
    1850:	00895415 	addeq	r5, r9, r5, lsl r4
    1854:	000b7c00 	andeq	r7, fp, r0, lsl #24
    1858:	000b7200 	andeq	r7, fp, r0, lsl #4
    185c:	50011600 	andpl	r1, r1, r0, lsl #12
    1860:	a16c0305 	cmnge	ip, r5, lsl #6
    1864:	01160000 	tsteq	r6, r0
    1868:	20030551 	andcs	r0, r3, r1, asr r5
    186c:	160000a1 	strne	r0, [r0], -r1, lsr #1
    1870:	03055201 	movweq	r5, #20993	; 0x5201
    1874:	0000a278 	andeq	sl, r0, r8, ror r2
    1878:	01530116 	cmpeq	r3, r6, lsl r1
    187c:	58170047 	ldmdapl	r7, {r0, r1, r2, r6}
    1880:	88000089 	stmdahi	r0, {r0, r3, r7}
    1884:	0000000b 	andeq	r0, r0, fp
    1888:	00061327 	andeq	r1, r6, r7, lsr #6
    188c:	00061300 	andeq	r1, r6, r0, lsl #6
    1890:	06280300 	strteq	r0, [r8], -r0, lsl #6
    1894:	00006127 	andeq	r6, r0, r7, lsr #2
    1898:	00006100 	andeq	r6, r0, r0, lsl #2
    189c:	066e0300 	strbteq	r0, [lr], -r0, lsl #6
    18a0:	00029527 	andeq	r9, r2, r7, lsr #10
    18a4:	00029500 	andeq	r9, r2, r0, lsl #10
    18a8:	08220500 	stmdaeq	r2!, {r8, sl}
    18ac:	0002c727 	andeq	ip, r2, r7, lsr #14
    18b0:	0002c700 	andeq	ip, r2, r0, lsl #14
    18b4:	08250500 	stmdaeq	r5!, {r8, sl}
    18b8:	0003ae27 	andeq	sl, r3, r7, lsr #28
    18bc:	0003ae00 	andeq	sl, r3, r0, lsl #28
    18c0:	06900100 	ldreq	r0, [r0], r0, lsl #2
    18c4:	00026127 	andeq	r6, r2, r7, lsr #2
    18c8:	00026100 	andeq	r6, r2, r0, lsl #2
    18cc:	01320500 	teqeq	r2, r0, lsl #10
    18d0:	0002b527 	andeq	fp, r2, r7, lsr #10
    18d4:	0002b500 	andeq	fp, r2, r0, lsl #10
    18d8:	08350500 	ldmdaeq	r5!, {r8, sl}
    18dc:	00044227 	andeq	r4, r4, r7, lsr #4
    18e0:	00044200 	andeq	r4, r4, r0, lsl #4
    18e4:	06830300 	streq	r0, [r3], r0, lsl #6
    18e8:	00043a27 	andeq	r3, r4, r7, lsr #20
    18ec:	00043a00 	andeq	r3, r4, r0, lsl #20
    18f0:	077c0300 	ldrbeq	r0, [ip, -r0, lsl #6]!
    18f4:	0002da00 	andeq	sp, r2, r0, lsl #20
    18f8:	65000400 	strvs	r0, [r0, #-1024]	; 0xfffffc00
    18fc:	04000006 	streq	r0, [r0], #-6
    1900:	00019501 	andeq	r9, r1, r1, lsl #10
    1904:	04b20c00 	ldrteq	r0, [r2], #3072	; 0xc00
    1908:	00fd0000 	rscseq	r0, sp, r0
    190c:	8ab80000 	bhi	fee01914 <__bss_end__+0xfedf6eac>
    1910:	01ac0000 			; <UNDEFINED> instruction: 0x01ac0000
    1914:	0b690000 	bleq	1a4191c <__bss_end__+0x1a36eb4>
    1918:	04020000 	streq	r0, [r2], #-0
    191c:	746e6905 	strbtvc	r6, [lr], #-2309	; 0xfffff6fb
    1920:	07040300 	streq	r0, [r4, -r0, lsl #6]
    1924:	000000df 	ldrdeq	r0, [r0], -pc	; <UNPREDICTABLE>
    1928:	95060103 	strls	r0, [r6, #-259]	; 0xfffffefd
    192c:	03000000 	movweq	r0, #0
    1930:	016f0502 	cmneq	pc, r2, lsl #10
    1934:	04030000 	streq	r0, [r3], #-0
    1938:	00015a05 	andeq	r5, r1, r5, lsl #20
    193c:	05080300 	streq	r0, [r8, #-768]	; 0xfffffd00
    1940:	00000155 	andeq	r0, r0, r5, asr r1
    1944:	93080103 	movwls	r0, #33027	; 0x8103
    1948:	03000000 	movweq	r0, #0
    194c:	006e0702 	rsbeq	r0, lr, r2, lsl #14
    1950:	04030000 	streq	r0, [r3], #-0
    1954:	0000da07 	andeq	sp, r0, r7, lsl #20
    1958:	07080300 	streq	r0, [r8, -r0, lsl #6]
    195c:	000000d5 	ldrdeq	r0, [r0], -r5
    1960:	00002504 	andeq	r2, r0, r4, lsl #10
    1964:	00007a00 	andeq	r7, r0, r0, lsl #20
    1968:	00250500 	eoreq	r0, r5, r0, lsl #10
    196c:	06000000 	streq	r0, [r0], -r0
    1970:	00000163 	andeq	r0, r0, r3, ror #2
    1974:	860e1c02 	strhi	r1, [lr], -r2, lsl #24
    1978:	07000000 	streq	r0, [r0, -r0]
    197c:	00006b04 	andeq	r6, r0, r4, lsl #22
    1980:	00250400 	eoreq	r0, r5, r0, lsl #8
    1984:	009b0000 	addseq	r0, fp, r0
    1988:	9b050000 	blls	141990 <__bss_end__+0x136f28>
    198c:	00000000 	andeq	r0, r0, r0
    1990:	00a80407 	adceq	r0, r8, r7, lsl #8
    1994:	01030000 	mrseq	r0, (UNDEF: 3)
    1998:	00009c08 	andeq	r9, r0, r8, lsl #24
    199c:	00a10800 	adceq	r0, r1, r0, lsl #16
    19a0:	51060000 	mrspl	r0, (UNDEF: 6)
    19a4:	02000006 	andeq	r0, r0, #6, 0
    19a8:	00b90e21 	adcseq	r0, r9, r1, lsr #28
    19ac:	04070000 	streq	r0, [r7], #-0
    19b0:	0000008c 	andeq	r0, r0, ip, lsl #1
    19b4:	00049f09 	andeq	r9, r4, r9, lsl #30
    19b8:	05010800 	streq	r0, [r1, #-2048]	; 0xfffff800
    19bc:	0000ec07 	andeq	lr, r0, r7, lsl #24
    19c0:	00640a00 	rsbeq	r0, r4, r0, lsl #20
    19c4:	ec100601 	ldc	6, cr0, [r0], {1}
    19c8:	0a000000 	beq	19d0 <__code_start__-0x6630>
    19cc:	07010070 	smlsdxeq	r1, r0, r0, r0
    19d0:	0000f30f 	andeq	pc, r0, pc, lsl #6
    19d4:	70660a00 	rsbvc	r0, r6, r0, lsl #20
    19d8:	10080100 	andne	r0, r8, r0, lsl #2
    19dc:	000000f6 	strdeq	r0, [r0], -r6
    19e0:	04080300 	streq	r0, [r8], #-768	; 0xfffffd00
    19e4:	000004be 			; <UNDEFINED> instruction: 0x000004be
    19e8:	070c040b 	streq	r0, [ip, -fp, lsl #8]
    19ec:	0000f504 	andeq	pc, r0, r4, lsl #10
    19f0:	01080d00 	tsteq	r8, r0, lsl #26
    19f4:	0120020c 			; <UNDEFINED> instruction: 0x0120020c
    19f8:	700e0000 	andvc	r0, lr, r0
    19fc:	01007274 	tsteq	r0, r4, ror r2
    1a00:	0142150d 	cmpeq	r2, sp, lsl #10
    1a04:	0f000000 	svceq	0x00000000
    1a08:	000004d6 	ldrdeq	r0, [r0], -r6
    1a0c:	2c100e01 	ldccs	14, cr0, [r0], {1}
    1a10:	04000000 	streq	r0, [r0], #-0
    1a14:	04920900 	ldreq	r0, [r2], #2304	; 0x900
    1a18:	01080000 	mrseq	r0, (UNDEF: 8)
    1a1c:	01420f0b 	cmpeq	r2, fp, lsl #30
    1a20:	730a0000 	movwvc	r0, #40960	; 0xa000
    1a24:	060f0100 	streq	r0, [pc], -r0, lsl #2
    1a28:	000000fc 	strdeq	r0, [r0], -ip
    1a2c:	0100780a 	tsteq	r0, sl, lsl #16
    1a30:	00bf1010 	adcseq	r1, pc, r0, lsl r0	; <UNPREDICTABLE>
    1a34:	07000000 	streq	r0, [r0, -r0]
    1a38:	00012004 	andeq	r2, r1, r4
    1a3c:	04db1000 	ldrbeq	r1, [fp], #0
    1a40:	11010000 	mrsne	r0, (UNDEF: 1)
    1a44:	00012003 	andeq	r2, r1, r3
    1a48:	04c51100 	strbeq	r1, [r5], #256	; 0x100
    1a4c:	13010000 	movwne	r0, #4096	; 0x1000
    1a50:	0001480f 	andeq	r4, r1, pc, lsl #16
    1a54:	58030500 	stmdapl	r3, {r8, sl}
    1a58:	110000a6 	smlatbne	r0, r6, r0, r0
    1a5c:	000004a5 	andeq	r0, r0, r5, lsr #9
    1a60:	78101401 	ldmdavc	r0, {r0, sl, ip}
    1a64:	05000001 	streq	r0, [r0, #-1]
    1a68:	00a65003 	adceq	r5, r6, r3
    1a6c:	48040700 	stmdami	r4, {r8, r9, sl}
    1a70:	12000001 	andne	r0, r0, #1, 0
    1a74:	0000028d 	andeq	r0, r0, sp, lsl #5
    1a78:	b8065301 	stmdalt	r6, {r0, r8, r9, ip, lr}
    1a7c:	bc00008a 	stclt	0, cr0, [r0], {138}	; 0x8a
    1a80:	01000000 	mrseq	r0, (UNDEF: 0)
    1a84:	0001c89c 	muleq	r1, ip, r8
    1a88:	74701300 	ldrbtvc	r1, [r0], #-768	; 0xfffffd00
    1a8c:	53010072 	movwpl	r0, #4210	; 0x1072
    1a90:	0000f314 	andeq	pc, r0, r4, lsl r3	; <UNPREDICTABLE>
    1a94:	14500100 	ldrbne	r0, [r0], #-256	; 0xffffff00
    1a98:	01007062 	tsteq	r0, r2, rrx
    1a9c:	01780a54 	cmneq	r8, r4, asr sl
    1aa0:	08f70000 	ldmeq	r7!, {}^	; <UNPREDICTABLE>
    1aa4:	08ef0000 	stmiaeq	pc!, {}^	; <UNPREDICTABLE>
    1aa8:	70140000 	andsvc	r0, r4, r0
    1aac:	0f540100 	svceq	0x00540100
    1ab0:	00000178 	andeq	r0, r0, r8, ror r1
    1ab4:	00000933 	andeq	r0, r0, r3, lsr r9
    1ab8:	0000092f 	andeq	r0, r0, pc, lsr #18
    1abc:	03251500 			; <UNDEFINED> instruction: 0x03251500
    1ac0:	2d010000 	stccs	0, cr0, [r1, #-0]
    1ac4:	0000f307 	andeq	pc, r0, r7, lsl #6
    1ac8:	008bb800 	addeq	fp, fp, r0, lsl #16
    1acc:	0000ac00 	andeq	sl, r0, r0, lsl #24
    1ad0:	579c0100 	ldrpl	r0, [ip, r0, lsl #2]
    1ad4:	16000002 	strne	r0, [r0], -r2
    1ad8:	0000031e 	andeq	r0, r0, lr, lsl r3
    1adc:	2c1a2d01 	ldccs	13, cr2, [sl], {1}
    1ae0:	59000000 	stmdbpl	r0, {}	; <UNPREDICTABLE>
    1ae4:	51000009 	tstpl	r0, r9
    1ae8:	14000009 	strne	r0, [r0], #-9
    1aec:	2e010070 	mcrcs	0, 0, r0, cr1, cr0, {3}
    1af0:	0001780a 	andeq	r7, r1, sl, lsl #16
    1af4:	0009a100 	andeq	sl, r9, r0, lsl #2
    1af8:	00099300 	andeq	r9, r9, r0, lsl #6
    1afc:	04991700 	ldreq	r1, [r9], #1792	; 0x700
    1b00:	2e010000 	cdpcs	0, 0, cr0, cr1, cr0, {0}
    1b04:	0001780e 	andeq	r7, r1, lr, lsl #16
    1b08:	000a0300 	andeq	r0, sl, r0, lsl #6
    1b0c:	0009f900 	andeq	pc, r9, r0, lsl #18
    1b10:	04ab1700 	strteq	r1, [fp], #1792	; 0x700
    1b14:	2f010000 	svccs	0x00010000
    1b18:	00002c0b 	andeq	r2, r0, fp, lsl #24
    1b1c:	000a4900 	andeq	r4, sl, r0, lsl #18
    1b20:	000a4700 	andeq	r4, sl, r0, lsl #14
    1b24:	04ca1800 	strbeq	r1, [sl], #2048	; 0x800
    1b28:	30010000 	andcc	r0, r1, r0
    1b2c:	0001780a 	andeq	r7, r1, sl, lsl #16
    1b30:	00024600 	andeq	r4, r2, r0, lsl #12
    1b34:	002c0500 	eoreq	r0, ip, r0, lsl #10
    1b38:	19000000 	stmdbne	r0, {}	; <UNPREDICTABLE>
    1b3c:	00008c54 	andeq	r8, r0, r4, asr ip
    1b40:	00000257 	andeq	r0, r0, r7, asr r2
    1b44:	0250011a 	subseq	r0, r0, #-2147483642	; 0x80000006
    1b48:	00000074 	andeq	r0, r0, r4, ror r0
    1b4c:	0004ca1b 	andeq	ip, r4, fp, lsl sl
    1b50:	10190100 	andsne	r0, r9, r0, lsl #2
    1b54:	00000178 	andeq	r0, r0, r8, ror r1
    1b58:	00008b74 	andeq	r8, r0, r4, ror fp
    1b5c:	00000044 	andeq	r0, r0, r4, asr #32
    1b60:	02cb9c01 	sbceq	r9, fp, #256	; 0x100
    1b64:	691c0000 	ldmdbvs	ip, {}	; <UNPREDICTABLE>
    1b68:	0100636e 	tsteq	r0, lr, ror #6
    1b6c:	002c2519 	eoreq	r2, ip, r9, lsl r5
    1b70:	0a600000 	beq	1801b78 <__bss_end__+0x17f7110>
    1b74:	0a5c0000 	beq	1701b7c <__bss_end__+0x16f7114>
    1b78:	63140000 	tstvs	r4, #0, 0
    1b7c:	1a010070 	bne	41d44 <__bss_end__+0x372dc>
    1b80:	0002cb08 	andeq	ip, r2, r8, lsl #22
    1b84:	000a8400 	andeq	r8, sl, r0, lsl #8
    1b88:	000a7e00 	andeq	r7, sl, r0, lsl #28
    1b8c:	70751400 	rsbsvc	r1, r5, r0, lsl #8
    1b90:	0a1b0100 	beq	6c1f98 <__bss_end__+0x6b7530>
    1b94:	00000178 	andeq	r0, r0, r8, ror r1
    1b98:	00000ab3 			; <UNDEFINED> instruction: 0x00000ab3
    1b9c:	00000aaf 	andeq	r0, r0, pc, lsr #21
    1ba0:	008b8c1d 	addeq	r8, fp, sp, lsl ip
    1ba4:	0002d100 	andeq	sp, r2, r0, lsl #2
    1ba8:	0002c100 	andeq	ip, r2, r0, lsl #2
    1bac:	50011a00 	andpl	r1, r1, r0, lsl #20
    1bb0:	33007404 	movwcc	r7, #1028	; 0x404
    1bb4:	a01e0024 	andsge	r0, lr, r4, lsr #32
    1bb8:	7e00008b 	cdpvc	0, 0, cr0, cr0, cr11, {4}
    1bbc:	00000001 	andeq	r0, r0, r1
    1bc0:	00a10407 	adceq	r0, r1, r7, lsl #8
    1bc4:	da1f0000 	ble	7c1bcc <__bss_end__+0x7b7164>
    1bc8:	da000003 	ble	1bdc <__code_start__-0x6424>
    1bcc:	03000003 	movweq	r0, #3
    1bd0:	3a000b1a 	bcc	4840 <__code_start__-0x37c0>
    1bd4:	04000001 	streq	r0, [r0], #-1
    1bd8:	00085300 	andeq	r5, r8, r0, lsl #6
    1bdc:	e2010400 	and	r0, r1, #0, 8
    1be0:	0c000004 	stceq	0, cr0, [r0], {4}
    1be4:	000005b3 			; <UNDEFINED> instruction: 0x000005b3
    1be8:	000005c3 	andeq	r0, r0, r3, asr #11
    1bec:	00008c64 	andeq	r8, r0, r4, ror #24
    1bf0:	00000018 	andeq	r0, r0, r8, lsl r0
    1bf4:	00000dbf 			; <UNDEFINED> instruction: 0x00000dbf
    1bf8:	69050402 	stmdbvs	r5, {r1, sl}
    1bfc:	0300746e 	movweq	r7, #1134	; 0x46e
    1c00:	000005ac 	andeq	r0, r0, ip, lsr #11
    1c04:	3817d103 	ldmdacc	r7, {r0, r1, r8, ip, lr, pc}
    1c08:	04000000 	streq	r0, [r0], #-0
    1c0c:	00df0704 	sbcseq	r0, pc, r4, lsl #14
    1c10:	01040000 	mrseq	r0, (UNDEF: 4)
    1c14:	00009506 	andeq	r9, r0, r6, lsl #10
    1c18:	05020400 	streq	r0, [r2, #-1024]	; 0xfffffc00
    1c1c:	0000016f 	andeq	r0, r0, pc, ror #2
    1c20:	5a050404 	bpl	142c38 <__bss_end__+0x1381d0>
    1c24:	04000001 	streq	r0, [r0], #-1
    1c28:	01550508 	cmpeq	r5, r8, lsl #10
    1c2c:	01040000 	mrseq	r0, (UNDEF: 4)
    1c30:	00009308 	andeq	r9, r0, r8, lsl #6
    1c34:	07020400 	streq	r0, [r2, -r0, lsl #8]
    1c38:	0000006e 	andeq	r0, r0, lr, rrx
    1c3c:	da070404 	ble	1c2c54 <__bss_end__+0x1b81ec>
    1c40:	04000000 	streq	r0, [r0], #-0
    1c44:	00d50708 	sbcseq	r0, r5, r8, lsl #14
    1c48:	25050000 	strcs	r0, [r5, #-0]
    1c4c:	86000000 	strhi	r0, [r0], -r0
    1c50:	06000000 	streq	r0, [r0], -r0
    1c54:	00000025 	andeq	r0, r0, r5, lsr #32
    1c58:	01630700 	cmneq	r3, r0, lsl #14
    1c5c:	1c020000 	stcne	0, cr0, [r2], {-0}
    1c60:	0000920e 	andeq	r9, r0, lr, lsl #4
    1c64:	77040800 	strvc	r0, [r4, -r0, lsl #16]
    1c68:	05000000 	streq	r0, [r0, #-0]
    1c6c:	00000025 	andeq	r0, r0, r5, lsr #32
    1c70:	000000a7 	andeq	r0, r0, r7, lsr #1
    1c74:	0000a706 	andeq	sl, r0, r6, lsl #14
    1c78:	04080000 	streq	r0, [r8], #-0
    1c7c:	000000b4 	strheq	r0, [r0], -r4
    1c80:	9c080104 	stflss	f0, [r8], {4}
    1c84:	09000000 	stmdbeq	r0, {}	; <UNPREDICTABLE>
    1c88:	000000ad 	andeq	r0, r0, sp, lsr #1
    1c8c:	00065107 	andeq	r5, r6, r7, lsl #2
    1c90:	0e210200 	cdpeq	2, 2, cr0, cr1, cr0, {0}
    1c94:	000000c5 	andeq	r0, r0, r5, asr #1
    1c98:	00980408 	addseq	r0, r8, r8, lsl #8
    1c9c:	a10a0000 	mrsge	r0, (UNDEF: 10)
    1ca0:	01000000 	mrseq	r0, (UNDEF: 0)
    1ca4:	01350704 	teqeq	r5, r4, lsl #14
    1ca8:	8c640000 	stclhi	0, cr0, [r4], #-0
    1cac:	00180000 	andseq	r0, r8, r0
    1cb0:	9c010000 	stcls	0, cr0, [r1], {-0}
    1cb4:	00000135 	andeq	r0, r0, r5, lsr r1
    1cb8:	00705f0b 	rsbseq	r5, r0, fp, lsl #30
    1cbc:	35140401 	ldrcc	r0, [r4, #-1025]	; 0xfffffbff
    1cc0:	01000001 	tsteq	r0, r1
    1cc4:	00630b50 	rsbeq	r0, r3, r0, asr fp
    1cc8:	251c0401 	ldrcs	r0, [ip, #-1025]	; 0xfffffbff
    1ccc:	01000000 	mrseq	r0, (UNDEF: 0)
    1cd0:	006e0c51 	rsbeq	r0, lr, r1, asr ip
    1cd4:	2c260401 	cfstrscs	mvf0, [r6], #-4
    1cd8:	d7000000 	strle	r0, [r0, -r0]
    1cdc:	d300000a 	movwle	r0, #10
    1ce0:	0d00000a 	stceq	0, cr0, [r0, #-40]	; 0xffffffd8
    1ce4:	05010070 	streq	r0, [r1, #-112]	; 0xffffff90
    1ce8:	0001370b 	andeq	r3, r1, fp, lsl #14
    1cec:	000b0000 	andeq	r0, fp, r0
    1cf0:	000af800 	andeq	pc, sl, r0, lsl #16
    1cf4:	00650d00 	rsbeq	r0, r5, r0, lsl #26
    1cf8:	37140501 	ldrcc	r0, [r4, -r1, lsl #10]
    1cfc:	38000001 	stmdacc	r0, {r0}
    1d00:	3600000b 	strcc	r0, [r0], -fp
    1d04:	0000000b 	andeq	r0, r0, fp
    1d08:	0408040e 	streq	r0, [r8], #-1038	; 0xfffffbf2
    1d0c:	000000ad 	andeq	r0, r0, sp, lsr #1
    1d10:	00019d00 	andeq	r9, r1, r0, lsl #26
    1d14:	1f000400 	svcne	0x00000400
    1d18:	04000009 	streq	r0, [r0], #-9
    1d1c:	0004e201 	andeq	lr, r4, r1, lsl #4
    1d20:	06380c00 	ldrteq	r0, [r8], -r0, lsl #24
    1d24:	05c30000 	strbeq	r0, [r3]
    1d28:	8c7c0000 	ldclhi	0, cr0, [ip], #-0
    1d2c:	00580000 	subseq	r0, r8, r0
    1d30:	0ed70000 	cdpeq	0, 13, cr0, cr7, cr0, {0}
    1d34:	1a020000 	bne	81d3c <__bss_end__+0x772d4>
    1d38:	02000006 	andeq	r0, r0, #6, 0
    1d3c:	00311b28 	eorseq	r1, r1, r8, lsr #22
    1d40:	29030000 	stmdbcs	r3, {}	; <UNPREDICTABLE>
    1d44:	04000006 	streq	r0, [r0], #-6
    1d48:	00480004 	subeq	r0, r8, r4
    1d4c:	33040000 	movwcc	r0, #16384	; 0x4000
    1d50:	48000006 	stmdami	r0, {r1, r2}
    1d54:	00000000 	andeq	r0, r0, r0
    1d58:	02040500 	andeq	r0, r4, #0, 10
    1d5c:	0000062b 	andeq	r0, r0, fp, lsr #12
    1d60:	25186302 	ldrcs	r6, [r8, #-770]	; 0xfffffcfe
    1d64:	06000000 	streq	r0, [r0], -r0
    1d68:	6e690504 	cdpvs	5, 6, cr0, cr9, cr4, {0}
    1d6c:	04070074 	streq	r0, [r7], #-116	; 0xffffff8c
    1d70:	0000df07 	andeq	sp, r0, r7, lsl #30
    1d74:	06010700 	streq	r0, [r1], -r0, lsl #14
    1d78:	00000095 	muleq	r0, r5, r0
    1d7c:	6f050207 	svcvs	0x00050207
    1d80:	07000001 	streq	r0, [r0, -r1]
    1d84:	015a0504 	cmpeq	sl, r4, lsl #10
    1d88:	08070000 	stmdaeq	r7, {}	; <UNPREDICTABLE>
    1d8c:	00015505 	andeq	r5, r1, r5, lsl #10
    1d90:	08010700 	stmdaeq	r1, {r8, r9, sl}
    1d94:	00000093 	muleq	r0, r3, r0
    1d98:	6e070207 	cdpvs	2, 0, cr0, cr7, cr7, {0}
    1d9c:	07000000 	streq	r0, [r0, -r0]
    1da0:	00da0704 	sbcseq	r0, sl, r4, lsl #14
    1da4:	08070000 	stmdaeq	r7, {}	; <UNPREDICTABLE>
    1da8:	0000d507 	andeq	sp, r0, r7, lsl #10
    1dac:	00560800 	subseq	r0, r6, r0, lsl #16
    1db0:	00ab0000 	adceq	r0, fp, r0
    1db4:	56090000 	strpl	r0, [r9], -r0
    1db8:	00000000 	andeq	r0, r0, r0
    1dbc:	0001630a 	andeq	r6, r1, sl, lsl #6
    1dc0:	0e1c0300 	cdpeq	3, 1, cr0, cr12, cr0, {0}
    1dc4:	000000b7 	strheq	r0, [r0], -r7
    1dc8:	009c040b 	addseq	r0, ip, fp, lsl #8
    1dcc:	56080000 	strpl	r0, [r8], -r0
    1dd0:	cc000000 	stcgt	0, cr0, [r0], {-0}
    1dd4:	09000000 	stmdbeq	r0, {}	; <UNPREDICTABLE>
    1dd8:	000000cc 	andeq	r0, r0, ip, asr #1
    1ddc:	d9040b00 	stmdble	r4, {r8, r9, fp}
    1de0:	07000000 	streq	r0, [r0, -r0]
    1de4:	009c0801 	addseq	r0, ip, r1, lsl #16
    1de8:	d20c0000 	andle	r0, ip, #0, 0
    1dec:	0a000000 	beq	1df4 <__code_start__-0x620c>
    1df0:	00000651 	andeq	r0, r0, r1, asr r6
    1df4:	ea0e2103 	b	38a208 <__bss_end__+0x37f7a0>
    1df8:	0b000000 	bleq	1e00 <__code_start__-0x6200>
    1dfc:	0000bd04 	andeq	fp, r0, r4, lsl #26
    1e00:	06130d00 	ldreq	r0, [r3], -r0, lsl #26
    1e04:	06010000 	streq	r0, [r1], -r0
    1e08:	00005605 	andeq	r5, r0, r5, lsl #12
    1e0c:	008c7c00 	addeq	r7, ip, r0, lsl #24
    1e10:	00005800 	andeq	r5, r0, r0, lsl #16
    1e14:	839c0100 	orrshi	r0, ip, #0
    1e18:	0e000001 	cdpeq	0, 0, cr0, cr0, cr1, {0}
    1e1c:	00746d66 	rsbseq	r6, r4, r6, ror #26
    1e20:	cc180601 	ldcgt	6, cr0, [r8], {1}
    1e24:	02000000 	andeq	r0, r0, #0, 0
    1e28:	100f7091 	mulne	pc, r1, r0	; <UNPREDICTABLE>
    1e2c:	00667562 	rsbeq	r7, r6, r2, ror #10
    1e30:	83110801 	tsthi	r1, #65536	; 0x10000
    1e34:	05000001 	streq	r0, [r0, #-1]
    1e38:	00a66003 	adceq	r6, r6, r3
    1e3c:	060b1100 	streq	r1, [fp], -r0, lsl #2
    1e40:	09010000 	stmdbeq	r1, {}	; <UNPREDICTABLE>
    1e44:	00004a0d 	andeq	r4, r0, sp, lsl #20
    1e48:	5c910200 	lfmpl	f0, 4, [r1], {0}
    1e4c:	007a7312 	rsbseq	r7, sl, r2, lsl r3
    1e50:	560d0c01 	strpl	r0, [sp], -r1, lsl #24
    1e54:	51000000 	mrspl	r0, (UNDEF: 0)
    1e58:	4b00000b 	blmi	1e8c <__code_start__-0x6174>
    1e5c:	1300000b 	movwne	r0, #11
    1e60:	00008ca4 	andeq	r8, r0, r4, lsr #25
    1e64:	00000194 	muleq	r0, r4, r1
    1e68:	00000176 	andeq	r0, r0, r6, ror r1
    1e6c:	02500114 	subseq	r0, r0, #5
    1e70:	01140075 	tsteq	r4, r5, ror r0
    1e74:	000a0351 	andeq	r0, sl, r1, asr r3
    1e78:	52011404 	andpl	r1, r1, #4, 8	; 0x4000000
    1e7c:	06489103 	strbeq	r9, [r8], -r3, lsl #2
    1e80:	02530114 	subseq	r0, r3, #5
    1e84:	15004c91 	strne	r4, [r0, #-3217]	; 0xfffff36f
    1e88:	00008cb8 			; <UNDEFINED> instruction: 0x00008cb8
    1e8c:	02500114 	subseq	r0, r0, #5
    1e90:	00000075 	andeq	r0, r0, r5, ror r0
    1e94:	0000d216 	andeq	sp, r0, r6, lsl r2
    1e98:	00019400 	andeq	r9, r1, r0, lsl #8
    1e9c:	005d1700 	subseq	r1, sp, r0, lsl #14
    1ea0:	03ff0000 	mvnseq	r0, #0, 0
    1ea4:	06101800 	ldreq	r1, [r0], -r0, lsl #16
    1ea8:	06100000 	ldreq	r0, [r0], -r0
    1eac:	02050000 	andeq	r0, r5, #0, 0
    1eb0:	00f30005 	rscseq	r0, r3, r5
    1eb4:	00040000 	andeq	r0, r4, r0
    1eb8:	00000a61 	andeq	r0, r0, r1, ror #20
    1ebc:	04e20104 	strbteq	r0, [r2], #260	; 0x104
    1ec0:	560c0000 	strpl	r0, [ip], -r0
    1ec4:	c3000006 	movwgt	r0, #6
    1ec8:	d4000005 	strle	r0, [r0], #-5
    1ecc:	3400008c 	strcc	r0, [r0], #-140	; 0xffffff74
    1ed0:	0e000000 	cdpeq	0, 0, cr0, cr0, cr0, {0}
    1ed4:	02000010 	andeq	r0, r0, #16, 0
    1ed8:	6e690504 	cdpvs	5, 6, cr0, cr9, cr4, {0}
    1edc:	04030074 	streq	r0, [r3], #-116	; 0xffffff8c
    1ee0:	0000df07 	andeq	sp, r0, r7, lsl #30
    1ee4:	06010300 	streq	r0, [r1], -r0, lsl #6
    1ee8:	00000095 	muleq	r0, r5, r0
    1eec:	6f050203 	svcvs	0x00050203
    1ef0:	03000001 	movweq	r0, #1
    1ef4:	015a0504 	cmpeq	sl, r4, lsl #10
    1ef8:	08030000 	stmdaeq	r3, {}	; <UNPREDICTABLE>
    1efc:	00015505 	andeq	r5, r1, r5, lsl #10
    1f00:	08010300 	stmdaeq	r1, {r8, r9}
    1f04:	00000093 	muleq	r0, r3, r0
    1f08:	6e070203 	cdpvs	2, 0, cr0, cr7, cr3, {0}
    1f0c:	03000000 	movweq	r0, #0
    1f10:	00da0704 	sbcseq	r0, sl, r4, lsl #14
    1f14:	08030000 	stmdaeq	r3, {}	; <UNPREDICTABLE>
    1f18:	0000d507 	andeq	sp, r0, r7, lsl #10
    1f1c:	00250400 	eoreq	r0, r5, r0, lsl #8
    1f20:	007a0000 	rsbseq	r0, sl, r0
    1f24:	25050000 	strcs	r0, [r5, #-0]
    1f28:	00000000 	andeq	r0, r0, r0
    1f2c:	00016306 	andeq	r6, r1, r6, lsl #6
    1f30:	0e1c0200 	cdpeq	2, 1, cr0, cr12, cr0, {0}
    1f34:	00000086 	andeq	r0, r0, r6, lsl #1
    1f38:	006b0407 	rsbeq	r0, fp, r7, lsl #8
    1f3c:	25040000 	strcs	r0, [r4, #-0]
    1f40:	9b000000 	blls	1f48 <__code_start__-0x60b8>
    1f44:	05000000 	streq	r0, [r0, #-0]
    1f48:	0000009b 	muleq	r0, fp, r0
    1f4c:	a8040700 	stmdage	r4, {r8, r9, sl}
    1f50:	03000000 	movweq	r0, #0
    1f54:	009c0801 	addseq	r0, ip, r1, lsl #16
    1f58:	a1080000 	mrsge	r0, (UNDEF: 8)
    1f5c:	06000000 	streq	r0, [r0], -r0
    1f60:	00000651 	andeq	r0, r0, r1, asr r6
    1f64:	b90e2102 	stmdblt	lr, {r1, r8, sp}
    1f68:	07000000 	streq	r0, [r0, -r0]
    1f6c:	00008c04 	andeq	r8, r0, r4, lsl #24
    1f70:	00ad0900 	adceq	r0, sp, r0, lsl #18
    1f74:	0c010000 	stceq	0, cr0, [r1], {-0}
    1f78:	20030507 	andcs	r0, r3, r7, lsl #10
    1f7c:	0a0000a6 	beq	221c <__code_start__-0x5de4>
    1f80:	00000648 	andeq	r0, r0, r8, asr #12
    1f84:	25050401 	strcs	r0, [r5, #-1025]	; 0xfffffbff
    1f88:	d4000000 	strle	r0, [r0], #-0
    1f8c:	3400008c 	strcc	r0, [r0], #-140	; 0xffffff74
    1f90:	01000000 	mrseq	r0, (UNDEF: 0)
    1f94:	00700b9c 			; <UNDEFINED> instruction: 0x00700b9c
    1f98:	9b1f0401 	blls	7c2fa4 <__bss_end__+0x7b853c>
    1f9c:	7e000000 	cdpvc	0, 0, cr0, cr0, cr0, {0}
    1fa0:	7a00000b 	bvc	1fd4 <__code_start__-0x602c>
    1fa4:	0000000b 	andeq	r0, r0, fp
    1fa8:	000ad700 	andeq	sp, sl, r0, lsl #14
    1fac:	ff000400 			; <UNDEFINED> instruction: 0xff000400
    1fb0:	0400000a 	streq	r0, [r0], #-10
    1fb4:	0004e201 	andeq	lr, r4, r1, lsl #4
    1fb8:	06750c00 	ldrbteq	r0, [r5], -r0, lsl #24
    1fbc:	05c30000 	strbeq	r0, [r3]
    1fc0:	8d080000 	stchi	0, cr0, [r8, #-0]
    1fc4:	07400000 	strbeq	r0, [r0, -r0]
    1fc8:	10dd0000 	sbcsne	r0, sp, r0
    1fcc:	04020000 	streq	r0, [r2], #-0
    1fd0:	746e6905 	strbtvc	r6, [lr], #-2309	; 0xfffff6fb
    1fd4:	07040300 	streq	r0, [r4, -r0, lsl #6]
    1fd8:	000000df 	ldrdeq	r0, [r0], -pc	; <UNPREDICTABLE>
    1fdc:	95060103 	strls	r0, [r6, #-259]	; 0xfffffefd
    1fe0:	03000000 	movweq	r0, #0
    1fe4:	016f0502 	cmneq	pc, r2, lsl #10
    1fe8:	04030000 	streq	r0, [r3], #-0
    1fec:	00015a05 	andeq	r5, r1, r5, lsl #20
    1ff0:	05080300 	streq	r0, [r8, #-768]	; 0xfffffd00
    1ff4:	00000155 	andeq	r0, r0, r5, asr r1
    1ff8:	93080103 	movwls	r0, #33027	; 0x8103
    1ffc:	03000000 	movweq	r0, #0
    2000:	006e0702 	rsbeq	r0, lr, r2, lsl #14
    2004:	8c040000 	stchi	0, cr0, [r4], {-0}
    2008:	02000001 	andeq	r0, r0, #1, 0
    200c:	00691934 	rsbeq	r1, r9, r4, lsr r9
    2010:	04030000 	streq	r0, [r3], #-0
    2014:	0000da07 	andeq	sp, r0, r7, lsl #20
    2018:	066c0400 	strbteq	r0, [ip], -r0, lsl #8
    201c:	37020000 	strcc	r0, [r2, -r0]
    2020:	00007c19 	andeq	r7, r0, r9, lsl ip
    2024:	07080300 	streq	r0, [r8, -r0, lsl #6]
    2028:	000000d5 	ldrdeq	r0, [r0], -r5
    202c:	00002505 	andeq	r2, r0, r5, lsl #10
    2030:	00009200 	andeq	r9, r0, r0, lsl #4
    2034:	00250600 	eoreq	r0, r5, r0, lsl #12
    2038:	07000000 	streq	r0, [r0, -r0]
    203c:	00000163 	andeq	r0, r0, r3, ror #2
    2040:	9e0e1c03 	cdpls	12, 0, cr1, cr14, cr3, {0}
    2044:	08000000 	stmdaeq	r0, {}	; <UNPREDICTABLE>
    2048:	00008304 	andeq	r8, r0, r4, lsl #6
    204c:	00250500 	eoreq	r0, r5, r0, lsl #10
    2050:	00b30000 	adcseq	r0, r3, r0
    2054:	b3060000 	movwlt	r0, #24576	; 0x6000
    2058:	00000000 	andeq	r0, r0, r0
    205c:	00c00408 	sbceq	r0, r0, r8, lsl #8
    2060:	01030000 	mrseq	r0, (UNDEF: 3)
    2064:	00009c08 	andeq	r9, r0, r8, lsl #24
    2068:	00b90900 	adcseq	r0, r9, r0, lsl #18
    206c:	51070000 	mrspl	r0, (UNDEF: 7)
    2070:	03000006 	movweq	r0, #6
    2074:	00d10e21 	sbcseq	r0, r1, r1, lsr #28
    2078:	04080000 	streq	r0, [r8], #-0
    207c:	000000a4 	andeq	r0, r0, r4, lsr #1
    2080:	00068807 	andeq	r8, r6, r7, lsl #16
    2084:	0d0b0400 	cfstrseq	mvf0, [fp, #-0]
    2088:	000000b9 	strheq	r0, [r0], -r9
    208c:	0006da07 	andeq	sp, r6, r7, lsl #20
    2090:	0d0c0400 	cfstrseq	mvf0, [ip, #-0]
    2094:	000000b9 	strheq	r0, [r0], -r9
    2098:	00035d07 	andeq	r5, r3, r7, lsl #26
    209c:	0d0d0400 	cfstrseq	mvf0, [sp, #-0]
    20a0:	000000b9 	strheq	r0, [r0], -r9
    20a4:	00042e07 	andeq	r2, r4, r7, lsl #28
    20a8:	0d0e0400 	cfstrseq	mvf0, [lr, #-0]
    20ac:	000000b9 	strheq	r0, [r0], -r9
    20b0:	00046407 	andeq	r6, r4, r7, lsl #8
    20b4:	0d0f0400 	cfstrseq	mvf0, [pc, #-0]	; 20bc <__code_start__-0x5f44>
    20b8:	000000b9 	strheq	r0, [r0], -r9
    20bc:	0003bf07 	andeq	fp, r3, r7, lsl #30
    20c0:	0d100400 	cfldrseq	mvf0, [r0, #-0]
    20c4:	000000b9 	strheq	r0, [r0], -r9
    20c8:	00070a07 	andeq	r0, r7, r7, lsl #20
    20cc:	0d110400 	cfldrseq	mvf0, [r1, #-0]
    20d0:	000000b9 	strheq	r0, [r0], -r9
    20d4:	0006a507 	andeq	sl, r6, r7, lsl #10
    20d8:	0d120400 	cfldrseq	mvf0, [r2, #-0]
    20dc:	000000b9 	strheq	r0, [r0], -r9
    20e0:	00061a04 	andeq	r1, r6, r4, lsl #20
    20e4:	1b280500 	blne	a034ec <__bss_end__+0x9f8a84>
    20e8:	00000143 	andeq	r0, r0, r3, asr #2
    20ec:	0006290a 	andeq	r2, r6, sl, lsl #18
    20f0:	00060400 	andeq	r0, r6, r0, lsl #8
    20f4:	0000015a 	andeq	r0, r0, sl, asr r1
    20f8:	0006330b 	andeq	r3, r6, fp, lsl #6
    20fc:	00015a00 	andeq	r5, r1, r0, lsl #20
    2100:	0c000000 	stceq	0, cr0, [r0], {-0}
    2104:	062b0404 	strteq	r0, [fp], -r4, lsl #8
    2108:	63050000 	movwvs	r0, #20480	; 0x5000
    210c:	00013718 	andeq	r3, r1, r8, lsl r7
    2110:	06100d00 	ldreq	r0, [r0], -r0, lsl #26
    2114:	81010000 	mrshi	r0, (UNDEF: 1)
    2118:	00002505 	andeq	r2, r0, r5, lsl #10
    211c:	008f9000 	addeq	r9, pc, r0
    2120:	0004b800 	andeq	fp, r4, r0, lsl #16
    2124:	179c0100 	ldrne	r0, [ip, r0, lsl #2]
    2128:	0e000007 	cdpeq	0, 0, cr0, cr0, cr7, {0}
    212c:	00667562 	rsbeq	r7, r6, r2, ror #10
    2130:	17158101 	ldrne	r8, [r5, -r1, lsl #2]
    2134:	a2000007 	andge	r0, r0, #7, 0
    2138:	9c00000b 	stcls	0, cr0, [r0], {11}
    213c:	0e00000b 	cdpeq	0, 0, cr0, cr0, cr11, {0}
    2140:	8101006e 	tsthi	r1, lr, rrx
    2144:	0000251e 	andeq	r2, r0, lr, lsl r5
    2148:	000bd400 	andeq	sp, fp, r0, lsl #8
    214c:	000bce00 	andeq	ip, fp, r0, lsl #28
    2150:	6d660e00 	stclvs	14, cr0, [r6, #-0]
    2154:	81010074 	tsthi	r1, r4, ror r0
    2158:	0000b32d 	andeq	fp, r0, sp, lsr #6
    215c:	000c0e00 	andeq	r0, ip, r0, lsl #28
    2160:	000c0200 	andeq	r0, ip, r0, lsl #4
    2164:	060b0f00 	streq	r0, [fp], -r0, lsl #30
    2168:	81010000 	mrshi	r0, (UNDEF: 1)
    216c:	00015c3a 	andeq	r5, r1, sl, lsr ip
    2170:	d4910300 	ldrle	r0, [r1], #768	; 0x300
    2174:	0070107d 	rsbseq	r1, r0, sp, ror r0
    2178:	17088201 	strne	r8, [r8, -r1, lsl #4]
    217c:	6c000007 	stcvs	0, cr0, [r0], {7}
    2180:	5800000c 	stmdapl	r0, {r2, r3}
    2184:	1000000c 	andne	r0, r0, ip
    2188:	82010065 	andhi	r0, r1, #101, 0	; 0x65
    218c:	00071712 	andeq	r1, r7, r2, lsl r7
    2190:	000cee00 	andeq	lr, ip, r0, lsl #28
    2194:	000cea00 	andeq	lr, ip, r0, lsl #20
    2198:	30781000 	rsbscc	r1, r8, r0
    219c:	0e830100 	rmfeqs	f0, f3, f0
    21a0:	0000005d 	andeq	r0, r0, sp, asr r0
    21a4:	00000d1b 	andeq	r0, r0, fp, lsl sp
    21a8:	00000d15 	andeq	r0, r0, r5, lsl sp
    21ac:	00317810 	eorseq	r7, r1, r0, lsl r8
    21b0:	5d118301 	ldcpl	3, cr8, [r1, #-4]
    21b4:	48000000 	stmdami	r0, {}	; <UNPREDICTABLE>
    21b8:	4400000d 	strmi	r0, [r0], #-13
    21bc:	1100000d 	tstne	r0, sp
    21c0:	000006c3 	andeq	r0, r0, r3, asr #13
    21c4:	b3118601 	tstlt	r1, #1048576	; 0x100000
    21c8:	6a000000 	bvs	21d0 <__code_start__-0x5e30>
    21cc:	6600000d 	strvs	r0, [r0], -sp
    21d0:	1200000d 	andne	r0, r0, #13, 0
    21d4:	000000ad 	andeq	r0, r0, sp, lsr #1
    21d8:	0000072d 	andeq	r0, r0, sp, lsr #14
    21dc:	a40c0305 	strge	r0, [ip], #-773	; 0xfffffcfb
    21e0:	f8130000 			; <UNDEFINED> instruction: 0xf8130000
    21e4:	0000008f 	andeq	r0, r0, pc, lsl #1
    21e8:	10000004 	andne	r0, r0, r4
    21ec:	91010073 	tstls	r1, r3, ror r0
    21f0:	0007170a 	andeq	r1, r7, sl, lsl #14
    21f4:	000da000 	andeq	sl, sp, r0
    21f8:	000d8a00 	andeq	r8, sp, r0, lsl #20
    21fc:	756e1400 	strbvc	r1, [lr, #-1024]!	; 0xfffffc00
    2200:	9101006d 	tstls	r1, sp, rrx
    2204:	0007320d 	andeq	r3, r7, sp, lsl #4
    2208:	d8910300 	ldmle	r1, {r8, r9}
    220c:	0717157d 			; <UNDEFINED> instruction: 0x0717157d
    2210:	91010000 	mrsls	r0, (UNDEF: 1)
    2214:	00073217 	andeq	r3, r7, r7, lsl r2
    2218:	d8910300 	ldmle	r1, {r8, r9}
    221c:	0697117e 			; <UNDEFINED> instruction: 0x0697117e
    2220:	92010000 	andls	r0, r1, #0, 0
    2224:	00002c0d 	andeq	r2, r0, sp, lsl #24
    2228:	000e2700 	andeq	r2, lr, r0, lsl #14
    222c:	000e2100 	andeq	r2, lr, r0, lsl #2
    2230:	90c01600 	sbcls	r1, r0, r0, lsl #12
    2234:	01a40000 			; <UNDEFINED> instruction: 0x01a40000
    2238:	05390000 	ldreq	r0, [r9, #-0]!
    223c:	74100000 	ldrvc	r0, [r0], #-0
    2240:	9e010079 	mcrls	0, 0, r0, cr1, cr9, {3}
    2244:	0000b31d 	andeq	fp, r0, sp, lsl r3
    2248:	000e5b00 	andeq	r5, lr, r0, lsl #22
    224c:	000e5100 	andeq	r5, lr, r0, lsl #2
    2250:	78781700 	ldmdavc	r8!, {r8, r9, sl, ip}^
    2254:	1aa20100 	bne	fe88265c <__bss_end__+0xfe877bf4>
    2258:	00000070 	andeq	r0, r0, r0, ror r0
    225c:	0090d018 	addseq	sp, r0, r8, lsl r0
    2260:	000a9200 	andeq	r9, sl, r0, lsl #4
    2264:	0002d500 	andeq	sp, r2, r0, lsl #10
    2268:	50011900 	andpl	r1, r1, r0, lsl #18
    226c:	19007602 	stmdbne	r0, {r1, r9, sl, ip, sp, lr}
    2270:	03055101 	movweq	r5, #20737	; 0x5101
    2274:	0000a300 	andeq	sl, r0, r0, lsl #6
    2278:	01520119 	cmpeq	r2, r9, lsl r1
    227c:	e8180033 	ldmda	r8, {r0, r1, r4, r5}
    2280:	92000090 	andls	r0, r0, #144, 0	; 0x90
    2284:	f700000a 			; <UNDEFINED> instruction: 0xf700000a
    2288:	19000002 	stmdbne	r0, {r1}
    228c:	76025001 	strvc	r5, [r2], -r1
    2290:	51011900 	tstpl	r1, r0, lsl #18
    2294:	a3040305 	movwge	r0, #17157	; 0x4305
    2298:	01190000 	tsteq	r9, r0
    229c:	00330152 	eorseq	r0, r3, r2, asr r1
    22a0:	00911c18 	addseq	r1, r1, r8, lsl ip
    22a4:	000a9e00 	andeq	r9, sl, r0, lsl #28
    22a8:	00031400 	andeq	r1, r3, r0, lsl #8
    22ac:	50011900 	andpl	r1, r1, r0, lsl #18
    22b0:	a3080305 	movwge	r0, #33541	; 0x8305
    22b4:	01190000 	tsteq	r9, r0
    22b8:	00770251 	rsbseq	r0, r7, r1, asr r2
    22bc:	91281800 			; <UNDEFINED> instruction: 0x91281800
    22c0:	0a9e0000 	beq	fe7822c8 <__bss_end__+0xfe777860>
    22c4:	03310000 	teqeq	r1, #0, 0
    22c8:	01190000 	tsteq	r9, r0
    22cc:	10030550 	andne	r0, r3, r0, asr r5
    22d0:	190000a3 	stmdbne	r0, {r0, r1, r5, r7}
    22d4:	7a025101 	bvc	966e0 <__bss_end__+0x8bc78>
    22d8:	38180000 	ldmdacc	r8, {}	; <UNPREDICTABLE>
    22dc:	92000091 	andls	r0, r0, #145, 0	; 0x91
    22e0:	5300000a 	movwpl	r0, #10
    22e4:	19000003 	stmdbne	r0, {r0, r1}
    22e8:	76025001 	strvc	r5, [r2], -r1
    22ec:	51011900 	tstpl	r1, r0, lsl #18
    22f0:	a3000305 	movwge	r0, #773	; 0x305
    22f4:	01190000 	tsteq	r9, r0
    22f8:	00330152 	eorseq	r0, r3, r2, asr r1
    22fc:	00915018 	addseq	r5, r1, r8, lsl r0
    2300:	000a9200 	andeq	r9, sl, r0, lsl #4
    2304:	00037500 	andeq	r7, r3, r0, lsl #10
    2308:	50011900 	andpl	r1, r1, r0, lsl #18
    230c:	19007602 	stmdbne	r0, {r1, r9, sl, ip, sp, lr}
    2310:	03055101 	movweq	r5, #20737	; 0x5101
    2314:	0000a304 	andeq	sl, r0, r4, lsl #6
    2318:	01520119 	cmpeq	r2, r9, lsl r1
    231c:	78180033 	ldmdavc	r8, {r0, r1, r4, r5}
    2320:	42000091 	andmi	r0, r0, #145, 0	; 0x91
    2324:	a9000007 	stmdbge	r0, {r0, r1, r2}
    2328:	19000003 	stmdbne	r0, {r0, r1}
    232c:	3a015001 	bcc	56338 <__bss_end__+0x4b8d0>
    2330:	03510119 	cmpeq	r1, #1073741830	; 0x40000006
    2334:	197dd091 	ldmdbne	sp!, {r0, r4, r7, ip, lr, pc}^
    2338:	08025201 	stmdaeq	r2, {r0, r9, ip, lr}
    233c:	53011980 	movwpl	r1, #6528	; 0x1980
    2340:	19007702 	stmdbne	r0, {r1, r8, r9, sl, ip, sp, lr}
    2344:	02007d02 	andeq	r7, r0, #128	; 0x80
    2348:	02190075 	andseq	r0, r9, #117, 0	; 0x75
    234c:	7602047d 			; <UNDEFINED> instruction: 0x7602047d
    2350:	98180000 	ldmdals	r8, {}	; <UNPREDICTABLE>
    2354:	42000091 	andmi	r0, r0, #145, 0	; 0x91
    2358:	dd000007 	stcle	0, cr0, [r0, #-28]	; 0xffffffe4
    235c:	19000003 	stmdbne	r0, {r0, r1}
    2360:	3a015001 	bcc	5636c <__bss_end__+0x4b904>
    2364:	03510119 	cmpeq	r1, #1073741830	; 0x40000006
    2368:	197ed091 	ldmdbne	lr!, {r0, r4, r7, ip, lr, pc}^
    236c:	08025201 	stmdaeq	r2, {r0, r9, ip, lr}
    2370:	53011980 	movwpl	r1, #6528	; 0x1980
    2374:	19007a02 	stmdbne	r0, {r1, r9, fp, ip, sp, lr}
    2378:	02007d02 	andeq	r7, r0, #128	; 0x80
    237c:	02190075 	andseq	r0, r9, #117, 0	; 0x75
    2380:	7602047d 			; <UNDEFINED> instruction: 0x7602047d
    2384:	a4180000 	ldrge	r0, [r8], #-0
    2388:	aa000091 	bge	25d4 <__code_start__-0x5a2c>
    238c:	fb00000a 	blx	23be <__code_start__-0x5c42>
    2390:	19000003 	stmdbne	r0, {r0, r1}
    2394:	91035001 	tstls	r3, r1
    2398:	01197dd0 			; <UNDEFINED> instruction: 0x01197dd0
    239c:	68030551 	stmdavs	r3, {r0, r4, r6, r8, sl}
    23a0:	000000a1 	andeq	r0, r0, r1, lsr #1
    23a4:	0091b818 	addseq	fp, r1, r8, lsl r8
    23a8:	000ab600 	andeq	fp, sl, r0, lsl #12
    23ac:	00041700 	andeq	r1, r4, r0, lsl #14
    23b0:	50011900 	andpl	r1, r1, r0, lsl #18
    23b4:	7dd09103 	ldfvcp	f1, [r0, #12]
    23b8:	03510119 	cmpeq	r1, #1073741830	; 0x40000006
    23bc:	007ed091 			; <UNDEFINED> instruction: 0x007ed091
    23c0:	0091dc18 	addseq	sp, r1, r8, lsl ip
    23c4:	000a9e00 	andeq	r9, sl, r0, lsl #28
    23c8:	00045000 	andeq	r5, r4, r0
    23cc:	50011900 	andpl	r1, r1, r0, lsl #18
    23d0:	9e780305 	cdpls	3, 7, cr0, cr8, cr5, {0}
    23d4:	01190000 	tsteq	r9, r0
    23d8:	b4030551 	strlt	r0, [r3], #-1361	; 0xfffffaaf
    23dc:	190000a2 	stmdbne	r0, {r1, r5, r7}
    23e0:	03055201 	movweq	r5, #20993	; 0x5201
    23e4:	0000a40c 	andeq	sl, r0, ip, lsl #8
    23e8:	02530119 	subseq	r0, r3, #1073741830	; 0x40000006
    23ec:	02199f08 	andseq	r9, r9, #8, 30
    23f0:	0305007d 	movweq	r0, #20605	; 0x507d
    23f4:	0000a318 	andeq	sl, r0, r8, lsl r3
    23f8:	91e01a00 	mvnls	r1, r0, lsl #20
    23fc:	0ac20000 	beq	ff082404 <__bss_end__+0xff07799c>
    2400:	00180000 	andseq	r0, r8, r0
    2404:	42000092 	andmi	r0, r0, #146, 0	; 0x92
    2408:	8d000007 	stchi	0, cr0, [r0, #-28]	; 0xffffffe4
    240c:	19000004 	stmdbne	r0, {r2}
    2410:	40015001 	andmi	r5, r1, r1
    2414:	03510119 	cmpeq	r1, #1073741830	; 0x40000006
    2418:	197dd091 	ldmdbne	sp!, {r0, r4, r7, ip, lr, pc}^
    241c:	08025201 	stmdaeq	r2, {r0, r9, ip, lr}
    2420:	53011980 	movwpl	r1, #6528	; 0x1980
    2424:	19007702 	stmdbne	r0, {r1, r8, r9, sl, ip, sp, lr}
    2428:	02007d02 	andeq	r7, r0, #128	; 0x80
    242c:	02190075 	andseq	r0, r9, #117, 0	; 0x75
    2430:	7602047d 			; <UNDEFINED> instruction: 0x7602047d
    2434:	20180000 	andscs	r0, r8, r0
    2438:	42000092 	andmi	r0, r0, #146, 0	; 0x92
    243c:	c1000007 	tstgt	r0, r7
    2440:	19000004 	stmdbne	r0, {r2}
    2444:	40015001 	andmi	r5, r1, r1
    2448:	03510119 	cmpeq	r1, #1073741830	; 0x40000006
    244c:	197ed091 	ldmdbne	lr!, {r0, r4, r7, ip, lr, pc}^
    2450:	08025201 	stmdaeq	r2, {r0, r9, ip, lr}
    2454:	53011980 	movwpl	r1, #6528	; 0x1980
    2458:	19007a02 	stmdbne	r0, {r1, r9, fp, ip, sp, lr}
    245c:	02007d02 	andeq	r7, r0, #128	; 0x80
    2460:	02190075 	andseq	r0, r9, #117, 0	; 0x75
    2464:	7602047d 			; <UNDEFINED> instruction: 0x7602047d
    2468:	2c180000 	ldccs	0, cr0, [r8], {-0}
    246c:	ce000092 	mcrgt	0, 0, r0, cr0, cr2, {4}
    2470:	dd00000a 	stcle	0, cr0, [r0, #-40]	; 0xffffffd8
    2474:	19000004 	stmdbne	r0, {r2}
    2478:	91035001 	tstls	r3, r1
    247c:	01197dd0 			; <UNDEFINED> instruction: 0x01197dd0
    2480:	d2910351 	addsle	r0, r1, #1140850689	; 0x44000001
    2484:	4018007e 	andsmi	r0, r8, lr, ror r0
    2488:	ce000092 	mcrgt	0, 0, r0, cr0, cr2, {4}
    248c:	f900000a 			; <UNDEFINED> instruction: 0xf900000a
    2490:	19000004 	stmdbne	r0, {r2}
    2494:	91035001 	tstls	r3, r1
    2498:	01197dd0 			; <UNDEFINED> instruction: 0x01197dd0
    249c:	d0910351 	addsle	r0, r1, r1, asr r3
    24a0:	6018007e 	andsvs	r0, r8, lr, ror r0
    24a4:	9e000092 	mcrls	0, 0, r0, cr0, cr2, {4}
    24a8:	2f00000a 	svccs	0x0000000a
    24ac:	19000005 	stmdbne	r0, {r0, r2}
    24b0:	03055001 	movweq	r5, #20481	; 0x5001
    24b4:	0000a354 	andeq	sl, r0, r4, asr r3
    24b8:	05510119 	ldrbeq	r0, [r1, #-281]	; 0xfffffee7
    24bc:	00a2b403 	adceq	fp, r2, r3, lsl #8
    24c0:	52011900 	andpl	r1, r1, #0, 18
    24c4:	a40c0305 	strge	r0, [ip], #-773	; 0xfffffcfb
    24c8:	01190000 	tsteq	r9, r0
    24cc:	b6080253 			; <UNDEFINED> instruction: 0xb6080253
    24d0:	007d0219 	rsbseq	r0, sp, r9, lsl r2
    24d4:	00007602 	andeq	r7, r0, r2, lsl #12
    24d8:	0092641a 	addseq	r6, r2, sl, lsl r4
    24dc:	000ac200 	andeq	ip, sl, r0, lsl #4
    24e0:	10180000 	andsne	r0, r8, r0
    24e4:	c0000090 	mulgt	r0, r0, r0
    24e8:	4d000009 	stcmi	0, cr0, [r0, #-36]	; 0xffffffdc
    24ec:	19000005 	stmdbne	r0, {r0, r2}
    24f0:	77025001 	strvc	r5, [r2, -r1]
    24f4:	bc180000 	ldclt	0, cr0, [r8], {-0}
    24f8:	9e000090 	mcrls	0, 0, r0, cr0, cr0, {4}
    24fc:	8600000a 	strhi	r0, [r0], -sl
    2500:	19000005 	stmdbne	r0, {r0, r2}
    2504:	03055001 	movweq	r5, #20481	; 0x5001
    2508:	00009e78 	andeq	r9, r0, r8, ror lr
    250c:	05510119 	ldrbeq	r0, [r1, #-281]	; 0xfffffee7
    2510:	00a2b403 	adceq	fp, r2, r3, lsl #8
    2514:	52011900 	andpl	r1, r1, #0, 18
    2518:	a40c0305 	strge	r0, [ip], #-773	; 0xfffffcfb
    251c:	01190000 	tsteq	r9, r0
    2520:	98080253 	stmdals	r8, {r0, r1, r4, r6, r9}
    2524:	007d0219 	rsbseq	r0, sp, r9, lsl r2
    2528:	a2f40305 	rscsge	r0, r4, #335544320	; 0x14000000
    252c:	1a000000 	bne	2534 <__code_start__-0x5acc>
    2530:	000090c0 	andeq	r9, r0, r0, asr #1
    2534:	00000ac2 	andeq	r0, r0, r2, asr #21
    2538:	00927818 	addseq	r7, r2, r8, lsl r8
    253c:	000a9e00 	andeq	r9, sl, r0, lsl #28
    2540:	0005be00 	andeq	fp, r5, r0, lsl #28
    2544:	50011900 	andpl	r1, r1, r0, lsl #18
    2548:	a37c0305 	cmnge	ip, #335544320	; 0x14000000
    254c:	01190000 	tsteq	r9, r0
    2550:	b4030551 	strlt	r0, [r3], #-1361	; 0xfffffaaf
    2554:	190000a2 	stmdbne	r0, {r1, r5, r7}
    2558:	03055201 	movweq	r5, #20993	; 0x5201
    255c:	0000a40c 	andeq	sl, r0, ip, lsl #8
    2560:	02530119 	subseq	r0, r3, #1073741830	; 0x40000006
    2564:	1a00be08 	bne	31d8c <__bss_end__+0x27324>
    2568:	0000927c 	andeq	r9, r0, ip, ror r2
    256c:	00000ac2 	andeq	r0, r0, r2, asr #21
    2570:	0092a818 	addseq	sl, r2, r8, lsl r8
    2574:	00074200 	andeq	r4, r7, r0, lsl #4
    2578:	0005f400 	andeq	pc, r5, r0, lsl #8
    257c:	50011900 	andpl	r1, r1, r0, lsl #18
    2580:	01193a01 	tsteq	r9, r1, lsl #20
    2584:	d0910351 	addsle	r0, r1, r1, asr r3
    2588:	5201197d 	andpl	r1, r1, #2048000	; 0x1f4000
    258c:	19800802 	stmibne	r0, {r1, fp}
    2590:	02007d02 	andeq	r7, r0, #128	; 0x80
    2594:	02190075 	andseq	r0, r9, #117, 0	; 0x75
    2598:	3101047d 	tstcc	r1, sp, ror r4
    259c:	92e01800 	rscls	r1, r0, #0, 16
    25a0:	07420000 	strbeq	r0, [r2, -r0]
    25a4:	06210000 	strteq	r0, [r1], -r0
    25a8:	01190000 	tsteq	r9, r0
    25ac:	193a0150 	ldmdbne	sl!, {r4, r6, r8}
    25b0:	91035101 	tstls	r3, r1, lsl #2
    25b4:	01197dd0 			; <UNDEFINED> instruction: 0x01197dd0
    25b8:	80080252 	andhi	r0, r8, r2, asr r2
    25bc:	007d0219 	rsbseq	r0, sp, r9, lsl r2
    25c0:	19007502 	stmdbne	r0, {r1, r8, sl, ip, sp, lr}
    25c4:	01047d02 	tsteq	r4, r2, lsl #26
    25c8:	14180030 	ldrne	r0, [r8], #-48	; 0xffffffd0
    25cc:	42000093 	andmi	r0, r0, #147, 0	; 0x93
    25d0:	4e000007 	cdpmi	0, 0, cr0, cr0, cr7, {0}
    25d4:	19000006 	stmdbne	r0, {r1, r2}
    25d8:	40015001 	andmi	r5, r1, r1
    25dc:	03510119 	cmpeq	r1, #1073741830	; 0x40000006
    25e0:	197dd091 	ldmdbne	sp!, {r0, r4, r7, ip, lr, pc}^
    25e4:	08025201 	stmdaeq	r2, {r0, r9, ip, lr}
    25e8:	7d021980 	vstrvc.16	s2, [r2, #-256]	; 0xffffff00	; <UNPREDICTABLE>
    25ec:	00750200 	rsbseq	r0, r5, r0, lsl #4
    25f0:	047d0219 	ldrbteq	r0, [sp], #-537	; 0xfffffde7
    25f4:	18003001 	stmdane	r0, {r0, ip, sp}
    25f8:	00009348 	andeq	r9, r0, r8, asr #6
    25fc:	00000742 	andeq	r0, r0, r2, asr #14
    2600:	0000067b 	andeq	r0, r0, fp, ror r6
    2604:	01500119 	cmpeq	r0, r9, lsl r1
    2608:	51011932 	tstpl	r1, r2, lsr r9
    260c:	7dd09103 	ldfvcp	f1, [r0, #12]
    2610:	02520119 	subseq	r0, r2, #1073741830	; 0x40000006
    2614:	02198008 	andseq	r8, r9, #8, 0
    2618:	7502007d 	strvc	r0, [r2, #-125]	; 0xffffff83
    261c:	7d021900 	vstrvc.16	s2, [r2, #-0]	; <UNPREDICTABLE>
    2620:	00300104 	eorseq	r0, r0, r4, lsl #2
    2624:	00939018 	addseq	r9, r3, r8, lsl r0
    2628:	00074200 	andeq	r4, r7, r0, lsl #4
    262c:	0006a800 	andeq	sl, r6, r0, lsl #16
    2630:	50011900 	andpl	r1, r1, r0, lsl #18
    2634:	01193801 	tsteq	r9, r1, lsl #16
    2638:	d0910351 	addsle	r0, r1, r1, asr r3
    263c:	5201197d 	andpl	r1, r1, #2048000	; 0x1f4000
    2640:	19800802 	stmibne	r0, {r1, fp}
    2644:	02007d02 	andeq	r7, r0, #128	; 0x80
    2648:	02190075 	andseq	r0, r9, #117, 0	; 0x75
    264c:	3001047d 	andcc	r0, r1, sp, ror r4
    2650:	93b01800 	movsls	r1, #0, 16
    2654:	0a9e0000 	beq	fe78265c <__bss_end__+0xfe777bf4>
    2658:	06cb0000 	strbeq	r0, [fp], r0
    265c:	01190000 	tsteq	r9, r0
    2660:	a4030550 	strge	r0, [r3], #-1360	; 0xfffffab0
    2664:	190000a3 	stmdbne	r0, {r0, r1, r5, r7}
    2668:	7a025101 	bvc	96a74 <__bss_end__+0x8c00c>
    266c:	52011900 	andpl	r1, r1, #0, 18
    2670:	00007a02 	andeq	r7, r0, r2, lsl #20
    2674:	0093c01b 	addseq	ip, r3, fp, lsl r0
    2678:	0006dd00 	andeq	sp, r6, r0, lsl #26
    267c:	50011900 	andpl	r1, r1, r0, lsl #18
    2680:	7dc89104 	stfvcp	f1, [r8, #16]
    2684:	d4180006 	ldrle	r0, [r8], #-6
    2688:	9e000093 	mcrls	0, 0, r0, cr0, cr3, {4}
    268c:	0c00000a 	stceq	0, cr0, [r0], {10}
    2690:	19000007 	stmdbne	r0, {r0, r1, r2}
    2694:	03055001 	movweq	r5, #20481	; 0x5001
    2698:	0000a3d4 	ldrdeq	sl, [r0], -r4
    269c:	05510119 	ldrbeq	r0, [r1, #-281]	; 0xfffffee7
    26a0:	00a2b403 	adceq	fp, r2, r3, lsl #8
    26a4:	52011900 	andpl	r1, r1, #0, 18
    26a8:	a40c0305 	strge	r0, [ip], #-773	; 0xfffffcfb
    26ac:	01190000 	tsteq	r9, r0
    26b0:	e2080253 	and	r0, r8, #805306373	; 0x30000005
    26b4:	93d81a00 	bicsls	r1, r8, #0, 20
    26b8:	0ac20000 	beq	ff0826c0 <__bss_end__+0xff077c58>
    26bc:	00000000 	andeq	r0, r0, r0
    26c0:	00b90408 	adcseq	r0, r9, r8, lsl #8
    26c4:	c01c0000 	andsgt	r0, ip, r0
    26c8:	2d000000 	stccs	0, cr0, [r0, #-0]
    26cc:	1d000007 	stcne	0, cr0, [r0, #-28]	; 0xffffffe4
    26d0:	0000002c 	andeq	r0, r0, ip, lsr #32
    26d4:	1d090009 	stcne	0, cr0, [r9, #-36]	; 0xffffffdc
    26d8:	1c000007 	stcne	0, cr0, [r0], {7}
    26dc:	000000b9 	strheq	r0, [r0], -r9
    26e0:	00000742 	andeq	r0, r0, r2, asr #14
    26e4:	00002c1d 	andeq	r2, r0, sp, lsl ip
    26e8:	1e007f00 	cdpne	15, 0, cr7, cr0, cr0, {0}
    26ec:	000006e7 	andeq	r0, r0, r7, ror #13
    26f0:	17014901 	strne	r4, [r1, -r1, lsl #18]
    26f4:	78000007 	stmdavc	r0, {r0, r1, r2}
    26f8:	b400008d 	strlt	r0, [r0], #-141	; 0xffffff73
    26fc:	01000001 	tsteq	r0, r1
    2700:	0008ab9c 	muleq	r8, ip, fp
    2704:	04c51f00 	strbeq	r1, [r5], #3840	; 0xf00
    2708:	49010000 	stmdbmi	r1, {}	; <UNPREDICTABLE>
    270c:	00002c0f 	andeq	r2, r0, pc, lsl #24
    2710:	000ea400 	andeq	sl, lr, r0, lsl #8
    2714:	000e9e00 	andeq	r9, lr, r0, lsl #28
    2718:	73640e00 	cmnvc	r4, #0, 28
    271c:	49010074 	stmdbmi	r1, {r2, r4, r5, r6}
    2720:	0007171b 	andeq	r1, r7, fp, lsl r7
    2724:	000ee200 	andeq	lr, lr, r0, lsl #4
    2728:	000ed200 	andeq	sp, lr, r0, lsl #4
    272c:	006e0e00 	rsbeq	r0, lr, r0, lsl #28
    2730:	25244901 	strcs	r4, [r4, #-2305]!	; 0xfffff6ff
    2734:	46000000 	strmi	r0, [r0], -r0
    2738:	4200000f 	andmi	r0, r0, #15, 0
    273c:	0e00000f 	cdpeq	0, 0, cr0, cr0, cr15, {0}
    2740:	006c6176 	rsbeq	r6, ip, r6, ror r1
    2744:	252b4901 	strcs	r4, [fp, #-2305]!	; 0xfffff6ff
    2748:	70000000 	andvc	r0, r0, r0
    274c:	6400000f 	strvs	r0, [r0], #-15
    2750:	1f00000f 	svcne	0x0000000f
    2754:	00000697 	muleq	r0, r7, r6
    2758:	25344901 	ldrcs	r4, [r4, #-2305]!	; 0xfffff6ff
    275c:	c6000000 	strgt	r0, [r0], -r0
    2760:	c000000f 	andgt	r0, r0, pc
    2764:	0f00000f 	svceq	0x0000000f
    2768:	00000724 	andeq	r0, r0, r4, lsr #14
    276c:	253f4901 	ldrcs	r4, [pc, #-2305]!	; 1e73 <__code_start__-0x618d>
    2770:	02000000 	andeq	r0, r0, #0, 0
    2774:	62140491 	andsvs	r0, r4, #-1862270976	; 0x91000000
    2778:	01006675 	tsteq	r0, r5, ror r6
    277c:	08ab074e 	stmiaeq	fp!, {r1, r2, r3, r6, r8, r9, sl}
    2780:	91030000 	mrsls	r0, (UNDEF: 3)
    2784:	70107fa8 	andsvc	r7, r0, r8, lsr #31
    2788:	114e0100 	mrsne	r0, (UNDEF: 94)
    278c:	00000717 	andeq	r0, r0, r7, lsl r7
    2790:	00001010 	andeq	r1, r0, r0, lsl r0
    2794:	00000ff0 	strdeq	r0, [r0], -r0	; <UNPREDICTABLE>
    2798:	01007510 	tsteq	r0, r0, lsl r5
    279c:	002c0b4f 	eoreq	r0, ip, pc, asr #22
    27a0:	10f60000 	rscsne	r0, r6, r0
    27a4:	10e20000 	rscne	r0, r2, r0
    27a8:	ad120000 	ldcge	0, cr0, [r2, #-0]
    27ac:	cb000000 	blgt	27b4 <__code_start__-0x584c>
    27b0:	05000008 	streq	r0, [r0, #-8]
    27b4:	00a3f403 	adceq	pc, r3, r3, lsl #8
    27b8:	8de41600 	stclhi	6, cr1, [r4]
    27bc:	00780000 	rsbseq	r0, r8, r0
    27c0:	08320000 	ldmdaeq	r2!, {}	; <UNPREDICTABLE>
    27c4:	d4110000 	ldrle	r0, [r1], #-0
    27c8:	01000006 	tsteq	r0, r6
    27cc:	002c0d54 	eoreq	r0, ip, r4, asr sp
    27d0:	11770000 	cmnne	r7, r0
    27d4:	116f0000 	cmnne	pc, r0
    27d8:	18000000 	stmdane	r0, {}	; <UNPREDICTABLE>
    27dc:	00008e9c 	muleq	r0, ip, lr
    27e0:	0000095d 	andeq	r0, r0, sp, asr r9
    27e4:	00000847 	andeq	r0, r0, r7, asr #16
    27e8:	03510119 	cmpeq	r1, #1073741830	; 0x40000006
    27ec:	007fa091 			; <UNDEFINED> instruction: 0x007fa091
    27f0:	008eb018 	addeq	fp, lr, r8, lsl r0
    27f4:	0008d000 	andeq	sp, r8, r0
    27f8:	00086800 	andeq	r6, r8, r0, lsl #16
    27fc:	50011900 	andpl	r1, r1, r0, lsl #18
    2800:	19007502 	stmdbne	r0, {r1, r8, sl, ip, sp, lr}
    2804:	74025101 	strvc	r5, [r2], #-257	; 0xfffffeff
    2808:	53011900 	movwpl	r1, #6400	; 0x1900
    280c:	7fa09103 	svcvc	0x00a09103
    2810:	8f081800 	svchi	0x00081800
    2814:	0a9e0000 	beq	fe78281c <__bss_end__+0xfe777db4>
    2818:	08a10000 	stmiaeq	r1!, {}	; <UNPREDICTABLE>
    281c:	01190000 	tsteq	r9, r0
    2820:	78030550 	stmdavc	r3, {r4, r6, r8, sl}
    2824:	1900009e 	stmdbne	r0, {r1, r2, r3, r4, r7}
    2828:	03055101 	movweq	r5, #20737	; 0x5101
    282c:	0000a2b4 			; <UNDEFINED> instruction: 0x0000a2b4
    2830:	05520119 	ldrbeq	r0, [r2, #-281]	; 0xfffffee7
    2834:	00a3f403 	adceq	pc, r3, r3, lsl #8
    2838:	53011900 	movwpl	r1, #6400	; 0x1900
    283c:	19790802 	ldmdbne	r9!, {r1, fp}^
    2840:	05007d02 	streq	r7, [r0, #-3330]	; 0xfffff2fe
    2844:	00a16803 	adceq	r6, r1, r3, lsl #16
    2848:	0c1a0000 	ldceq	0, cr0, [sl], {-0}
    284c:	c200008f 	andgt	r0, r0, #143, 0	; 0x8f
    2850:	0000000a 	andeq	r0, r0, sl
    2854:	0000b91c 	andeq	fp, r0, ip, lsl r9
    2858:	0008bb00 	andeq	fp, r8, r0, lsl #22
    285c:	002c1d00 	eoreq	r1, ip, r0, lsl #26
    2860:	003f0000 	eorseq	r0, pc, r0
    2864:	0000c01c 	andeq	ip, r0, ip, lsl r0
    2868:	0008cb00 	andeq	ip, r8, r0, lsl #22
    286c:	002c1d00 	eoreq	r1, ip, r0, lsl #26
    2870:	00040000 	andeq	r0, r4, r0
    2874:	0008bb09 	andeq	fp, r8, r9, lsl #22
    2878:	06f41e00 	ldrbteq	r1, [r4], r0, lsl #28
    287c:	38010000 	stmdacc	r1, {}	; <UNPREDICTABLE>
    2880:	0007170e 	andeq	r1, r7, lr, lsl #14
    2884:	008d4000 	addeq	r4, sp, r0
    2888:	00003800 	andeq	r3, r0, r0, lsl #16
    288c:	5d9c0100 	ldfpls	f0, [ip]
    2890:	0e000009 	cdpeq	0, 0, cr0, cr0, cr9, {0}
    2894:	00747364 	rsbseq	r7, r4, r4, ror #6
    2898:	171c3801 	ldrne	r3, [ip, -r1, lsl #16]
    289c:	b8000007 	stmdalt	r0, {r0, r1, r2}
    28a0:	ae000011 	mcrge	0, 0, r0, cr0, cr1, {0}
    28a4:	0e000011 	mcreq	0, 0, r0, cr0, cr1, {0}
    28a8:	3801006e 	stmdacc	r1, {r1, r2, r3, r5, r6}
    28ac:	00002525 	andeq	r2, r0, r5, lsr #10
    28b0:	0011ff00 	andseq	pc, r1, r0, lsl #30
    28b4:	0011fb00 	andseq	pc, r1, r0, lsl #22
    28b8:	00700e00 	rsbseq	r0, r0, r0, lsl #28
    28bc:	172e3801 	strne	r3, [lr, -r1, lsl #16]!
    28c0:	28000007 	stmdacs	r0, {r0, r1, r2}
    28c4:	20000012 	andcs	r0, r0, r2, lsl r0
    28c8:	1f000012 	svcne	0x00000012
    28cc:	0000033f 	andeq	r0, r0, pc, lsr r3
    28d0:	17373801 	ldrne	r3, [r7, -r1, lsl #16]!
    28d4:	62000007 	andvs	r0, r0, #7, 0
    28d8:	5e000012 	mcrpl	0, 0, r0, cr0, cr2, {0}
    28dc:	10000012 	andne	r0, r0, r2, lsl r0
    28e0:	006e656c 	rsbeq	r6, lr, ip, ror #10
    28e4:	25063a01 	strcs	r3, [r6, #-2561]	; 0xfffff5ff
    28e8:	88000000 	stmdahi	r0, {}	; <UNPREDICTABLE>
    28ec:	80000012 	andhi	r0, r0, r2, lsl r0
    28f0:	10000012 	andne	r0, r0, r2, lsl r0
    28f4:	3e010073 	mcrcc	0, 0, r0, cr1, cr3, {3}
    28f8:	00071708 	andeq	r1, r7, r8, lsl #14
    28fc:	0012d600 	andseq	sp, r2, r0, lsl #12
    2900:	0012d400 	andseq	sp, r2, r0, lsl #8
    2904:	70200000 	eorvc	r0, r0, r0
    2908:	01006461 	tsteq	r0, r1, ror #8
    290c:	07170e2e 	ldreq	r0, [r7, -lr, lsr #28]
    2910:	8d1c0000 	ldchi	0, cr0, [ip, #-0]
    2914:	00240000 	eoreq	r0, r4, r0
    2918:	9c010000 	stcls	0, cr0, [r1], {-0}
    291c:	000009c0 	andeq	r0, r0, r0, asr #19
    2920:	0100700e 	tsteq	r0, lr
    2924:	0717182e 	ldreq	r1, [r7, -lr, lsr #16]
    2928:	12ef0000 	rscne	r0, pc, #0, 0
    292c:	12e90000 	rscne	r0, r9, #0, 0
    2930:	c51f0000 	ldrgt	r0, [pc, #-0]	; 2938 <__code_start__-0x56c8>
    2934:	01000004 	tsteq	r0, r4
    2938:	0717222e 	ldreq	r2, [r7, -lr, lsr #4]
    293c:	131e0000 	tstne	lr, #0, 0
    2940:	131a0000 	tstne	sl, #0, 0
    2944:	970f0000 	strls	r0, [pc, -r0]
    2948:	01000006 	tsteq	r0, r6
    294c:	00252c2e 	eoreq	r2, r5, lr, lsr #24
    2950:	52010000 	andpl	r0, r1, #0, 0
    2954:	6e656c10 	mcrvs	12, 3, r6, cr5, cr0, {0}
    2958:	062f0100 	strteq	r0, [pc], -r0, lsl #2
    295c:	00000025 	andeq	r0, r0, r5, lsr #32
    2960:	00001341 	andeq	r1, r0, r1, asr #6
    2964:	0000133f 	andeq	r1, r0, pc, lsr r3
    2968:	06641e00 	strbteq	r1, [r4], -r0, lsl #28
    296c:	27010000 	strcs	r0, [r1, -r0]
    2970:	0000250c 	andeq	r2, r0, ip, lsl #10
    2974:	008d0800 	addeq	r0, sp, r0, lsl #16
    2978:	00001400 	andeq	r1, r0, r0, lsl #8
    297c:	ed9c0100 	ldfs	f0, [ip]
    2980:	0e000009 	cdpeq	0, 0, cr0, cr0, cr9, {0}
    2984:	27010063 	strcs	r0, [r1, -r3, rrx]
    2988:	00002518 	andeq	r2, r0, r8, lsl r5
    298c:	00135a00 	andseq	r5, r3, r0, lsl #20
    2990:	00135400 	andseq	r5, r3, r0, lsl #8
    2994:	b4210000 	strtlt	r0, [r1], #-0
    2998:	01000006 	tsteq	r0, r6
    299c:	8f2c061f 	svchi	0x002c061f
    29a0:	00640000 	rsbeq	r0, r4, r0
    29a4:	9c010000 	stcls	0, cr0, [r1], {-0}
    29a8:	00000a7d 	andeq	r0, r0, sp, ror sl
    29ac:	00069d1f 	andeq	r9, r6, pc, lsl sp
    29b0:	1b1f0100 	blne	7c2db8 <__bss_end__+0x7b8350>
    29b4:	0000009e 	muleq	r0, lr, r0
    29b8:	0000138c 	andeq	r1, r0, ip, lsl #7
    29bc:	00001388 	andeq	r1, r0, r8, lsl #7
    29c0:	0006ec1f 	andeq	lr, r6, pc, lsl ip
    29c4:	301f0100 	andscc	r0, pc, r0, lsl #2
    29c8:	000000d1 	ldrdeq	r0, [r0], -r1
    29cc:	000013b1 			; <UNDEFINED> instruction: 0x000013b1
    29d0:	000013ad 	andeq	r1, r0, sp, lsr #7
    29d4:	0000ad12 	andeq	sl, r0, r2, lsl sp
    29d8:	000a8d00 	andeq	r8, sl, r0, lsl #26
    29dc:	fc030500 	stc2	5, cr0, [r3], {-0}
    29e0:	180000a3 	stmdane	r0, {r0, r1, r5, r7}
    29e4:	00008f74 	andeq	r8, r0, r4, ror pc
    29e8:	00000a9e 	muleq	r0, lr, sl
    29ec:	00000a73 	andeq	r0, r0, r3, ror sl
    29f0:	05500119 	ldrbeq	r0, [r0, #-281]	; 0xfffffee7
    29f4:	009e7803 	addseq	r7, lr, r3, lsl #16
    29f8:	51011900 	tstpl	r1, r0, lsl #18
    29fc:	a2b40305 	adcsge	r0, r4, #335544320	; 0x14000000
    2a00:	01190000 	tsteq	r9, r0
    2a04:	fc030552 	stc2	5, cr0, [r3], {82}	; 0x52
    2a08:	190000a3 	stmdbne	r0, {r0, r1, r5, r7}
    2a0c:	08025301 	stmdaeq	r2, {r0, r8, r9, ip, lr}
    2a10:	7d021920 	vstrvc.16	s2, [r2, #-64]	; 0xffffffc0	; <UNPREDICTABLE>
    2a14:	ec030500 	cfstr32	mvfx0, [r3], {-0}
    2a18:	000000a2 	andeq	r0, r0, r2, lsr #1
    2a1c:	008f781a 	addeq	r7, pc, sl, lsl r8	; <UNPREDICTABLE>
    2a20:	000ac200 	andeq	ip, sl, r0, lsl #4
    2a24:	c01c0000 	andsgt	r0, ip, r0
    2a28:	8d000000 	stchi	0, cr0, [r0, #-0]
    2a2c:	1d00000a 	stcne	0, cr0, [r0, #-40]	; 0xffffffd8
    2a30:	0000002c 	andeq	r0, r0, ip, lsr #32
    2a34:	7d09000e 	stcvc	0, cr0, [r9, #-56]	; 0xffffffc8
    2a38:	2200000a 	andcs	r0, r0, #10, 0
    2a3c:	0000071c 	andeq	r0, r0, ip, lsl r7
    2a40:	0000071c 	andeq	r0, r0, ip, lsl r7
    2a44:	2205f003 	andcs	pc, r5, #3, 0
    2a48:	00000613 	andeq	r0, r0, r3, lsl r6
    2a4c:	00000613 	andeq	r0, r0, r3, lsl r6
    2a50:	22062803 	andcs	r2, r6, #196608	; 0x30000
    2a54:	00000703 	andeq	r0, r0, r3, lsl #14
    2a58:	00000703 	andeq	r0, r0, r3, lsl #14
    2a5c:	2205ef03 	andcs	lr, r5, #3, 30
    2a60:	000006cd 	andeq	r0, r0, sp, asr #13
    2a64:	000006cd 	andeq	r0, r0, sp, asr #13
    2a68:	2207f203 	andcs	pc, r7, #805306368	; 0x30000000
    2a6c:	00000061 	andeq	r0, r0, r1, rrx
    2a70:	00000061 	andeq	r0, r0, r1, rrx
    2a74:	22066e03 	andcs	r6, r6, #3, 28	; 0x30
    2a78:	000006fc 	strdeq	r0, [r0], -ip
    2a7c:	000006fc 	strdeq	r0, [r0], -ip
    2a80:	0007f303 	andeq	pc, r7, r3, lsl #6
    2a84:	0000012f 	andeq	r0, r0, pc, lsr #2
    2a88:	0d090004 	stceq	0, cr0, [r9, #-16]
    2a8c:	01040000 	mrseq	r0, (UNDEF: 4)
    2a90:	000004e2 	andeq	r0, r0, r2, ror #9
    2a94:	0007410c 	andeq	r4, r7, ip, lsl #2
    2a98:	0005c300 	andeq	ip, r5, r0, lsl #6
    2a9c:	00944800 	addseq	r4, r4, r0, lsl #16
    2aa0:	00002c00 	andeq	r2, r0, r0, lsl #24
    2aa4:	0016fe00 	andseq	pc, r6, r0, lsl #28
    2aa8:	05040200 	streq	r0, [r4, #-512]	; 0xfffffe00
    2aac:	00746e69 	rsbseq	r6, r4, r9, ror #28
    2ab0:	df070403 	svcle	0x00070403
    2ab4:	03000000 	movweq	r0, #0
    2ab8:	00950601 	addseq	r0, r5, r1, lsl #12
    2abc:	02030000 	andeq	r0, r3, #0, 0
    2ac0:	00016f05 	andeq	r6, r1, r5, lsl #30
    2ac4:	05040300 	streq	r0, [r4, #-768]	; 0xfffffd00
    2ac8:	0000015a 	andeq	r0, r0, sl, asr r1
    2acc:	55050803 	strpl	r0, [r5, #-2051]	; 0xfffff7fd
    2ad0:	03000001 	movweq	r0, #1
    2ad4:	00930801 	addseq	r0, r3, r1, lsl #16
    2ad8:	02030000 	andeq	r0, r3, #0, 0
    2adc:	00006e07 	andeq	r6, r0, r7, lsl #28
    2ae0:	07040300 	streq	r0, [r4, -r0, lsl #6]
    2ae4:	000000da 	ldrdeq	r0, [r0], -sl
    2ae8:	d5070803 	strle	r0, [r7, #-2051]	; 0xfffff7fd
    2aec:	04000000 	streq	r0, [r0], #-0
    2af0:	00000025 	andeq	r0, r0, r5, lsr #32
    2af4:	0000007a 	andeq	r0, r0, sl, ror r0
    2af8:	00002505 	andeq	r2, r0, r5, lsl #10
    2afc:	63060000 	movwvs	r0, #24576	; 0x6000
    2b00:	02000001 	andeq	r0, r0, #1, 0
    2b04:	00860e1c 	addeq	r0, r6, ip, lsl lr
    2b08:	04070000 	streq	r0, [r7], #-0
    2b0c:	0000006b 	andeq	r0, r0, fp, rrx
    2b10:	00002504 	andeq	r2, r0, r4, lsl #10
    2b14:	00009b00 	andeq	r9, r0, r0, lsl #22
    2b18:	009b0500 	addseq	r0, fp, r0, lsl #10
    2b1c:	07000000 	streq	r0, [r0, -r0]
    2b20:	0000a804 	andeq	sl, r0, r4, lsl #16
    2b24:	08010300 	stmdaeq	r1, {r8, r9}
    2b28:	0000009c 	muleq	r0, ip, r0
    2b2c:	0000a108 	andeq	sl, r0, r8, lsl #2
    2b30:	06510600 	ldrbeq	r0, [r1], -r0, lsl #12
    2b34:	21020000 	mrscs	r0, (UNDEF: 2)
    2b38:	0000b90e 	andeq	fp, r0, lr, lsl #18
    2b3c:	8c040700 	stchi	7, cr0, [r4], {-0}
    2b40:	09000000 	stmdbeq	r0, {}	; <UNPREDICTABLE>
    2b44:	00000061 	andeq	r0, r0, r1, rrx
    2b48:	48060401 	stmdami	r6, {r0, sl}
    2b4c:	2c000094 	stccs	0, cr0, [r0], {148}	; 0x94
    2b50:	01000000 	mrseq	r0, (UNDEF: 0)
    2b54:	00010e9c 	muleq	r1, ip, lr
    2b58:	945c0a00 	ldrbls	r0, [ip], #-2560	; 0xfffff600
    2b5c:	00e80000 	rsceq	r0, r8, r0
    2b60:	010b0000 	mrseq	r0, (UNDEF: 11)
    2b64:	18030550 	stmdane	r3, {r4, r6, r8, sl}
    2b68:	000000a4 	andeq	r0, r0, r4, lsr #1
    2b6c:	0094600c 	addseq	r6, r4, ip
    2b70:	00010e00 	andeq	r0, r1, r0, lsl #28
    2b74:	94680d00 	strbtls	r0, [r8], #-3328	; 0xfffff300
    2b78:	011a0000 	tsteq	sl, r0
    2b7c:	01040000 	mrseq	r0, (UNDEF: 4)
    2b80:	010b0000 	mrseq	r0, (UNDEF: 11)
    2b84:	003a0150 	eorseq	r0, sl, r0, asr r1
    2b88:	00946c0c 	addseq	r6, r4, ip, lsl #24
    2b8c:	00012600 	andeq	r2, r1, r0, lsl #12
    2b90:	5c0e0000 	stcpl	0, cr0, [lr], {-0}
    2b94:	5c000007 	stcpl	0, cr0, [r0], {7}
    2b98:	02000007 	andeq	r0, r0, #7, 0
    2b9c:	380e064d 	stmdacc	lr, {r0, r2, r3, r6, r9, sl}
    2ba0:	38000007 	stmdacc	r0, {r0, r1, r2}
    2ba4:	02000007 	andeq	r0, r0, #7, 0
    2ba8:	2d0e0658 	stccs	6, cr0, [lr, #-352]	; 0xfffffea0
    2bac:	2d000007 	stccs	0, cr0, [r0, #-28]	; 0xffffffe4
    2bb0:	02000007 	andeq	r0, r0, #7, 0
    2bb4:	8900066b 	stmdbhi	r0, {r0, r1, r3, r5, r6, r9, sl}
    2bb8:	04000001 	streq	r0, [r0], #-1
    2bbc:	000dc900 	andeq	ip, sp, r0, lsl #18
    2bc0:	e2010400 	and	r0, r1, #0, 8
    2bc4:	0c000004 	stceq	0, cr0, [r0], {4}
    2bc8:	00000792 	muleq	r0, r2, r7
    2bcc:	000005c3 	andeq	r0, r0, r3, asr #11
    2bd0:	00009474 	andeq	r9, r0, r4, ror r4
    2bd4:	0000003c 	andeq	r0, r0, ip, lsr r0
    2bd8:	000017a7 	andeq	r1, r0, r7, lsr #15
    2bdc:	69050402 	stmdbvs	r5, {r1, sl}
    2be0:	0300746e 	movweq	r7, #1134	; 0x46e
    2be4:	00df0704 	sbcseq	r0, pc, r4, lsl #14
    2be8:	01030000 	mrseq	r0, (UNDEF: 3)
    2bec:	00009506 	andeq	r9, r0, r6, lsl #10
    2bf0:	05020300 	streq	r0, [r2, #-768]	; 0xfffffd00
    2bf4:	0000016f 	andeq	r0, r0, pc, ror #2
    2bf8:	5a050403 	bpl	143c0c <__bss_end__+0x1391a4>
    2bfc:	03000001 	movweq	r0, #1
    2c00:	01550508 	cmpeq	r5, r8, lsl #10
    2c04:	01030000 	mrseq	r0, (UNDEF: 3)
    2c08:	00009308 	andeq	r9, r0, r8, lsl #6
    2c0c:	07020300 	streq	r0, [r2, -r0, lsl #6]
    2c10:	0000006e 	andeq	r0, r0, lr, rrx
    2c14:	da070403 	ble	1c3c28 <__bss_end__+0x1b91c0>
    2c18:	03000000 	movweq	r0, #0
    2c1c:	00d50708 	sbcseq	r0, r5, r8, lsl #14
    2c20:	25040000 	strcs	r0, [r4, #-0]
    2c24:	7a000000 	bvc	2c2c <__code_start__-0x53d4>
    2c28:	05000000 	streq	r0, [r0, #-0]
    2c2c:	00000025 	andeq	r0, r0, r5, lsr #32
    2c30:	01630600 	cmneq	r3, r0, lsl #12
    2c34:	1c020000 	stcne	0, cr0, [r2], {-0}
    2c38:	0000860e 	andeq	r8, r0, lr, lsl #12
    2c3c:	6b040700 	blvs	104844 <__bss_end__+0xf9ddc>
    2c40:	04000000 	streq	r0, [r0], #-0
    2c44:	00000025 	andeq	r0, r0, r5, lsr #32
    2c48:	0000009b 	muleq	r0, fp, r0
    2c4c:	00009b05 	andeq	r9, r0, r5, lsl #22
    2c50:	04070000 	streq	r0, [r7], #-0
    2c54:	000000a8 	andeq	r0, r0, r8, lsr #1
    2c58:	9c080103 	stflss	f0, [r8], {3}
    2c5c:	08000000 	stmdaeq	r0, {}	; <UNPREDICTABLE>
    2c60:	000000a1 	andeq	r0, r0, r1, lsr #1
    2c64:	00065106 	andeq	r5, r6, r6, lsl #2
    2c68:	0e210200 	cdpeq	2, 2, cr0, cr1, cr0, {0}
    2c6c:	000000b9 	strheq	r0, [r0], -r9
    2c70:	008c0407 	addeq	r0, ip, r7, lsl #8
    2c74:	6a090000 	bvs	242c7c <__bss_end__+0x238214>
    2c78:	01000007 	tsteq	r0, r7
    2c7c:	94740604 	ldrbtls	r0, [r4], #-1540	; 0xfffff9fc
    2c80:	003c0000 	eorseq	r0, ip, r0
    2c84:	9c010000 	stcls	0, cr0, [r1], {-0}
    2c88:	00000154 	andeq	r0, r0, r4, asr r1
    2c8c:	00035d06 	andeq	r5, r3, r6, lsl #26
    2c90:	10050100 	andne	r0, r5, r0, lsl #2
    2c94:	00000025 	andeq	r0, r0, r5, lsr #32
    2c98:	00042e06 	andeq	r2, r4, r6, lsl #28
    2c9c:	1f050100 	svcne	0x00050100
    2ca0:	00000025 	andeq	r0, r0, r5, lsr #32
    2ca4:	0000330a 	andeq	r3, r0, sl, lsl #6
    2ca8:	07060100 	streq	r0, [r6, -r0, lsl #2]
    2cac:	7373620b 	cmnvc	r3, #-1342177280	; 0xb0000000
    2cb0:	0a0a0100 	beq	2830b8 <__bss_end__+0x278650>
    2cb4:	00000154 	andeq	r0, r0, r4, asr r1
    2cb8:	000013d8 	ldrdeq	r1, [r0], -r8
    2cbc:	000013d2 	ldrdeq	r1, [r0], -r2
    2cc0:	0007720c 	andeq	r7, r7, ip, lsl #4
    2cc4:	0a0b0100 	beq	2c30cc <__bss_end__+0x2b8664>
    2cc8:	00000154 	andeq	r0, r0, r4, asr r1
    2ccc:	0094980d 	addseq	r9, r4, sp, lsl #16
    2cd0:	00000800 	andeq	r0, r0, r0, lsl #16
    2cd4:	00012f00 	andeq	r2, r1, r0, lsl #30
    2cd8:	6e690e00 	cdpvs	14, 6, cr0, cr9, cr0, {0}
    2cdc:	05140100 	ldreq	r0, [r4, #-256]	; 0xffffff00
    2ce0:	0000002c 	andeq	r0, r0, ip, lsr #32
    2ce4:	7c0f0001 	stcvc	0, cr0, [pc], {1}
    2ce8:	5a000094 	bpl	2f40 <__code_start__-0x50c0>
    2cec:	0f000001 	svceq	0x00000001
    2cf0:	00009498 	muleq	r0, r8, r4
    2cf4:	00000167 	andeq	r0, r0, r7, ror #2
    2cf8:	0094a40f 	addseq	sl, r4, pc, lsl #8
    2cfc:	00017300 	andeq	r7, r1, r0, lsl #6
    2d00:	94a80f00 	strtls	r0, [r8], #3840	; 0xf00
    2d04:	01800000 	orreq	r0, r0, r0
    2d08:	07000000 	streq	r0, [r0, -r0]
    2d0c:	00002504 	andeq	r2, r0, r4, lsl #10
    2d10:	07841000 	streq	r1, [r4, r0]
    2d14:	07840000 	streq	r0, [r4, r0]
    2d18:	36020000 	strcc	r0, [r2], -r0
    2d1c:	7a110601 	bvc	444528 <__bss_end__+0x439ac0>
    2d20:	7a000007 	bvc	2d44 <__code_start__-0x52bc>
    2d24:	02000007 	andeq	r0, r0, #7, 0
    2d28:	3310063b 	tstcc	r0, #61865984	; 0x3b00000
    2d2c:	33000000 	movwcc	r0, #0
    2d30:	02000000 	andeq	r0, r0, #0, 0
    2d34:	1106010a 	tstne	r6, sl, lsl #2
    2d38:	00000061 	andeq	r0, r0, r1, rrx
    2d3c:	00000061 	andeq	r0, r0, r1, rrx
    2d40:	00066e02 	andeq	r6, r6, r2, lsl #28
    2d44:	000000ce 	andeq	r0, r0, lr, asr #1
    2d48:	0ec50004 	cdpeq	0, 12, cr0, cr5, cr4, {0}
    2d4c:	01040000 	mrseq	r0, (UNDEF: 4)
    2d50:	000004e2 	andeq	r0, r0, r2, ror #9
    2d54:	0007a70c 	andeq	sl, r7, ip, lsl #14
    2d58:	0005c300 	andeq	ip, r5, r0, lsl #6
    2d5c:	0094b000 	addseq	fp, r4, r0
    2d60:	00000400 	andeq	r0, r0, r0, lsl #8
    2d64:	00186a00 	andseq	r6, r8, r0, lsl #20
    2d68:	05040200 	streq	r0, [r4, #-512]	; 0xfffffe00
    2d6c:	00746e69 	rsbseq	r6, r4, r9, ror #28
    2d70:	df070403 	svcle	0x00070403
    2d74:	03000000 	movweq	r0, #0
    2d78:	00950601 	addseq	r0, r5, r1, lsl #12
    2d7c:	02030000 	andeq	r0, r3, #0, 0
    2d80:	00016f05 	andeq	r6, r1, r5, lsl #30
    2d84:	05040300 	streq	r0, [r4, #-768]	; 0xfffffd00
    2d88:	0000015a 	andeq	r0, r0, sl, asr r1
    2d8c:	55050803 	strpl	r0, [r5, #-2051]	; 0xfffff7fd
    2d90:	03000001 	movweq	r0, #1
    2d94:	00930801 	addseq	r0, r3, r1, lsl #16
    2d98:	02030000 	andeq	r0, r3, #0, 0
    2d9c:	00006e07 	andeq	r6, r0, r7, lsl #28
    2da0:	07040300 	streq	r0, [r4, -r0, lsl #6]
    2da4:	000000da 	ldrdeq	r0, [r0], -sl
    2da8:	d5070803 	strle	r0, [r7, #-2051]	; 0xfffff7fd
    2dac:	04000000 	streq	r0, [r0], #-0
    2db0:	00000025 	andeq	r0, r0, r5, lsr #32
    2db4:	0000007a 	andeq	r0, r0, sl, ror r0
    2db8:	00002505 	andeq	r2, r0, r5, lsl #10
    2dbc:	63060000 	movwvs	r0, #24576	; 0x6000
    2dc0:	02000001 	andeq	r0, r0, #1, 0
    2dc4:	00860e1c 	addeq	r0, r6, ip, lsl lr
    2dc8:	04070000 	streq	r0, [r7], #-0
    2dcc:	0000006b 	andeq	r0, r0, fp, rrx
    2dd0:	00002504 	andeq	r2, r0, r4, lsl #10
    2dd4:	00009b00 	andeq	r9, r0, r0, lsl #22
    2dd8:	009b0500 	addseq	r0, fp, r0, lsl #10
    2ddc:	07000000 	streq	r0, [r0, -r0]
    2de0:	0000a804 	andeq	sl, r0, r4, lsl #16
    2de4:	08010300 	stmdaeq	r1, {r8, r9}
    2de8:	0000009c 	muleq	r0, ip, r0
    2dec:	0000a108 	andeq	sl, r0, r8, lsl #2
    2df0:	06510600 	ldrbeq	r0, [r1], -r0, lsl #12
    2df4:	21020000 	mrscs	r0, (UNDEF: 2)
    2df8:	0000b90e 	andeq	fp, r0, lr, lsl #18
    2dfc:	8c040700 	stchi	7, cr0, [r4], {-0}
    2e00:	09000000 	stmdbeq	r0, {}	; <UNPREDICTABLE>
    2e04:	00000784 	andeq	r0, r0, r4, lsl #15
    2e08:	b0060401 	andlt	r0, r6, r1, lsl #8
    2e0c:	04000094 	streq	r0, [r0], #-148	; 0xffffff6c
    2e10:	01000000 	mrseq	r0, (UNDEF: 0)
    2e14:	0236009c 	eorseq	r0, r6, #156, 0	; 0x9c
    2e18:	00040000 	andeq	r0, r4, r0
    2e1c:	00000f3e 	andeq	r0, r0, lr, lsr pc
    2e20:	04e20104 	strbteq	r0, [r2], #260	; 0x104
    2e24:	ef0c0000 	svc	0x000c0000
    2e28:	c3000007 	movwgt	r0, #7
    2e2c:	60000005 	andvs	r0, r0, r5
    2e30:	00000000 	andeq	r0, r0, r0
    2e34:	11000000 	mrsne	r0, (UNDEF: 0)
    2e38:	02000019 	andeq	r0, r0, #25, 0
    2e3c:	6e690504 	cdpvs	5, 6, cr0, cr9, cr4, {0}
    2e40:	25030074 	strcs	r0, [r3, #-116]	; 0xffffff8c
    2e44:	04000000 	streq	r0, [r0], #-0
    2e48:	00df0704 	sbcseq	r0, pc, r4, lsl #14
    2e4c:	01040000 	mrseq	r0, (UNDEF: 4)
    2e50:	00009506 	andeq	r9, r0, r6, lsl #10
    2e54:	05020400 	streq	r0, [r2, #-1024]	; 0xfffffc00
    2e58:	0000016f 	andeq	r0, r0, pc, ror #2
    2e5c:	5a050404 	bpl	143e74 <__bss_end__+0x13940c>
    2e60:	04000001 	streq	r0, [r0], #-1
    2e64:	01550508 	cmpeq	r5, r8, lsl #10
    2e68:	01040000 	mrseq	r0, (UNDEF: 4)
    2e6c:	00009308 	andeq	r9, r0, r8, lsl #6
    2e70:	07020400 	streq	r0, [r2, -r0, lsl #8]
    2e74:	0000006e 	andeq	r0, r0, lr, rrx
    2e78:	da070404 	ble	1c3e90 <__bss_end__+0x1b9428>
    2e7c:	04000000 	streq	r0, [r0], #-0
    2e80:	00d50708 	sbcseq	r0, r5, r8, lsl #14
    2e84:	25050000 	strcs	r0, [r5, #-0]
    2e88:	7f000000 	svcvc	0x00000000
    2e8c:	06000000 	streq	r0, [r0], -r0
    2e90:	00000025 	andeq	r0, r0, r5, lsr #32
    2e94:	01630700 	cmneq	r3, r0, lsl #14
    2e98:	1c020000 	stcne	0, cr0, [r2], {-0}
    2e9c:	00008b0e 	andeq	r8, r0, lr, lsl #22
    2ea0:	70040800 	andvc	r0, r4, r0, lsl #16
    2ea4:	05000000 	streq	r0, [r0, #-0]
    2ea8:	00000025 	andeq	r0, r0, r5, lsr #32
    2eac:	000000a0 	andeq	r0, r0, r0, lsr #1
    2eb0:	0000a006 	andeq	sl, r0, r6
    2eb4:	04080000 	streq	r0, [r8], #-0
    2eb8:	000000ad 	andeq	r0, r0, sp, lsr #1
    2ebc:	9c080104 	stflss	f0, [r8], {4}
    2ec0:	03000000 	movweq	r0, #0
    2ec4:	000000a6 	andeq	r0, r0, r6, lsr #1
    2ec8:	00065107 	andeq	r5, r6, r7, lsl #2
    2ecc:	0e210200 	cdpeq	2, 2, cr0, cr1, cr0, {0}
    2ed0:	000000be 	strheq	r0, [r0], -lr
    2ed4:	00910408 	addseq	r0, r1, r8, lsl #8
    2ed8:	13090000 	movwne	r0, #36864	; 0x9000
    2edc:	01000008 	tsteq	r0, r8
    2ee0:	0031110d 	eorseq	r1, r1, sp, lsl #2
    2ee4:	2d0a0000 	stccs	0, cr0, [sl, #-0]
    2ee8:	01000007 	tsteq	r0, r7
    2eec:	94e0061f 	strbtls	r0, [r0], #1567	; 0x61f
    2ef0:	00540000 	subseq	r0, r4, r0
    2ef4:	9c010000 	stcls	0, cr0, [r1], {-0}
    2ef8:	000001ae 	andeq	r0, r0, lr, lsr #3
    2efc:	0008370b 	andeq	r3, r8, fp, lsl #14
    2f00:	0f2c0100 	svceq	0x002c0100
    2f04:	0000002c 	andeq	r0, r0, ip, lsr #32
    2f08:	00001405 	andeq	r1, r0, r5, lsl #8
    2f0c:	00001403 	andeq	r1, r0, r3, lsl #8
    2f10:	0007d20b 	andeq	sp, r7, fp, lsl #4
    2f14:	0f2d0100 	svceq	0x002d0100
    2f18:	0000002c 	andeq	r0, r0, ip, lsr #32
    2f1c:	0000141f 	andeq	r1, r0, pc, lsl r4
    2f20:	0000141d 	andeq	r1, r0, sp, lsl r4
    2f24:	0008040b 	andeq	r0, r8, fp, lsl #8
    2f28:	0f2e0100 	svceq	0x002e0100
    2f2c:	0000002c 	andeq	r0, r0, ip, lsr #32
    2f30:	00001439 	andeq	r1, r0, r9, lsr r4
    2f34:	00001437 	andeq	r1, r0, r7, lsr r4
    2f38:	00081e0b 	andeq	r1, r8, fp, lsl #28
    2f3c:	0f2f0100 	svceq	0x002f0100
    2f40:	0000002c 	andeq	r0, r0, ip, lsr #32
    2f44:	00001452 	andeq	r1, r0, r2, asr r4
    2f48:	00001450 	andeq	r1, r0, r0, asr r4
    2f4c:	0094e80c 	addseq	lr, r4, ip, lsl #16
    2f50:	0001d900 	andeq	sp, r1, r0, lsl #18
    2f54:	94f40c00 	ldrbtls	r0, [r4], #3072	; 0xc00
    2f58:	02080000 	andeq	r0, r8, #0, 0
    2f5c:	f80c0000 			; <UNDEFINED> instruction: 0xf80c0000
    2f60:	15000094 	strne	r0, [r0, #-148]	; 0xffffff6c
    2f64:	0d000002 	stceq	0, cr0, [r0, #-8]
    2f68:	00009500 	andeq	r9, r0, r0, lsl #10
    2f6c:	00000221 	andeq	r0, r0, r1, lsr #4
    2f70:	00000164 	andeq	r0, r0, r4, ror #2
    2f74:	0150010e 	cmpeq	r0, lr, lsl #2
    2f78:	0c0d003a 	stceq	0, cr0, [sp], {58}	; 0x3a
    2f7c:	2d000095 	stccs	0, cr0, [r0, #-596]	; 0xfffffdac
    2f80:	84000002 	strhi	r0, [r0], #-2
    2f84:	0e000001 	cdpeq	0, 0, cr0, cr0, cr1, {0}
    2f88:	0c055001 	stceq	0, cr5, [r5], {1}
    2f8c:	20100024 	andscs	r0, r0, r4, lsr #32
    2f90:	0551010e 	ldrbeq	r0, [r1, #-270]	; 0xfffffef2
    2f94:	0000010c 	andeq	r0, r0, ip, lsl #2
    2f98:	180d005a 	stmdane	sp, {r1, r3, r4, r6}
    2f9c:	2d000095 	stccs	0, cr0, [r0, #-596]	; 0xfffffdac
    2fa0:	a4000002 	strge	r0, [r0], #-2
    2fa4:	0e000001 	cdpeq	0, 0, cr0, cr0, cr1, {0}
    2fa8:	0c055001 	stceq	0, cr5, [r5], {1}
    2fac:	2010001c 	andscs	r0, r0, ip, lsl r0
    2fb0:	0551010e 	ldrbeq	r0, [r1, #-270]	; 0xfffffef2
    2fb4:	0000200c 	andeq	r2, r0, ip
    2fb8:	200c005a 	andcs	r0, ip, sl, asr r0
    2fbc:	ae000095 	mcrge	0, 0, r0, cr0, cr5, {4}
    2fc0:	00000001 	andeq	r0, r0, r1
    2fc4:	0007e00f 	andeq	lr, r7, pc
    2fc8:	06170100 	ldreq	r0, [r7], -r0, lsl #2
    2fcc:	000094cc 	andeq	r9, r0, ip, asr #9
    2fd0:	00000014 	andeq	r0, r0, r4, lsl r0
    2fd4:	01d99c01 	bicseq	r9, r9, r1, lsl #24
    2fd8:	3f0b0000 	svccc	0x000b0000
    2fdc:	01000008 	tsteq	r0, r8
    2fe0:	00310e18 	eorseq	r0, r1, r8, lsl lr
    2fe4:	146d0000 	strbtne	r0, [sp], #-0
    2fe8:	14670000 	strbtne	r0, [r7], #-0
    2fec:	10000000 	andne	r0, r0, r0
    2ff0:	00000810 	andeq	r0, r0, r0, lsl r8
    2ff4:	25050e01 	strcs	r0, [r5, #-3585]	; 0xfffff1ff
    2ff8:	b4000000 	strlt	r0, [r0], #-0
    2ffc:	18000094 	stmdane	r0, {r2, r4, r7}
    3000:	01000000 	mrseq	r0, (UNDEF: 0)
    3004:	0002089c 	muleq	r2, ip, r8
    3008:	083f0b00 	ldmdaeq	pc!, {r8, r9, fp}	; <UNPREDICTABLE>
    300c:	0f010000 	svceq	0x00010000
    3010:	0000310e 	andeq	r3, r0, lr, lsl #2
    3014:	00149b00 	andseq	r9, r4, r0, lsl #22
    3018:	00149700 	andseq	r9, r4, r0, lsl #14
    301c:	c3110000 	tstgt	r1, #0, 0
    3020:	c3000007 	movwgt	r0, #7
    3024:	02000007 	andeq	r0, r0, #7, 0
    3028:	1206013b 	andne	r0, r6, #-1073741810	; 0xc000000e
    302c:	0000075c 	andeq	r0, r0, ip, asr r7
    3030:	0000075c 	andeq	r0, r0, ip, asr r7
    3034:	12064d02 	andne	r4, r6, #128	; 0x80
    3038:	00000738 	andeq	r0, r0, r8, lsr r7
    303c:	00000738 	andeq	r0, r0, r8, lsr r7
    3040:	12065802 	andne	r5, r6, #131072	; 0x20000
    3044:	000007da 	ldrdeq	r0, [r0], -sl
    3048:	000007da 	ldrdeq	r0, [r0], -sl
    304c:	0006b202 	andeq	fp, r6, r2, lsl #4
    3050:	0000024d 	andeq	r0, r0, sp, asr #4
    3054:	10630004 	rsbne	r0, r3, r4
    3058:	01040000 	mrseq	r0, (UNDEF: 4)
    305c:	000004e2 	andeq	r0, r0, r2, ror #9
    3060:	00085a0c 	andeq	r5, r8, ip, lsl #20
    3064:	0005c300 	andeq	ip, r5, r0, lsl #6
    3068:	00953400 	addseq	r3, r5, r0, lsl #8
    306c:	00008400 	andeq	r8, r0, r0, lsl #8
    3070:	001a0800 	andseq	r0, sl, r0, lsl #16
    3074:	05040200 	streq	r0, [r4, #-512]	; 0xfffffe00
    3078:	00746e69 	rsbseq	r6, r4, r9, ror #28
    307c:	df070403 	svcle	0x00070403
    3080:	03000000 	movweq	r0, #0
    3084:	00950601 	addseq	r0, r5, r1, lsl #12
    3088:	02030000 	andeq	r0, r3, #0, 0
    308c:	00016f05 	andeq	r6, r1, r5, lsl #30
    3090:	05040300 	streq	r0, [r4, #-768]	; 0xfffffd00
    3094:	0000015a 	andeq	r0, r0, sl, asr r1
    3098:	55050803 	strpl	r0, [r5, #-2051]	; 0xfffff7fd
    309c:	03000001 	movweq	r0, #1
    30a0:	00930801 	addseq	r0, r3, r1, lsl #16
    30a4:	02030000 	andeq	r0, r3, #0, 0
    30a8:	00006e07 	andeq	r6, r0, r7, lsl #28
    30ac:	07040300 	streq	r0, [r4, -r0, lsl #6]
    30b0:	000000da 	ldrdeq	r0, [r0], -sl
    30b4:	d5070803 	strle	r0, [r7, #-2051]	; 0xfffff7fd
    30b8:	04000000 	streq	r0, [r0], #-0
    30bc:	00000025 	andeq	r0, r0, r5, lsr #32
    30c0:	0000007a 	andeq	r0, r0, sl, ror r0
    30c4:	00002505 	andeq	r2, r0, r5, lsl #10
    30c8:	63060000 	movwvs	r0, #24576	; 0x6000
    30cc:	02000001 	andeq	r0, r0, #1, 0
    30d0:	00860e1c 	addeq	r0, r6, ip, lsl lr
    30d4:	04070000 	streq	r0, [r7], #-0
    30d8:	0000006b 	andeq	r0, r0, fp, rrx
    30dc:	00002504 	andeq	r2, r0, r4, lsl #10
    30e0:	00009b00 	andeq	r9, r0, r0, lsl #22
    30e4:	009b0500 	addseq	r0, fp, r0, lsl #10
    30e8:	07000000 	streq	r0, [r0, -r0]
    30ec:	0000a804 	andeq	sl, r0, r4, lsl #16
    30f0:	08010300 	stmdaeq	r1, {r8, r9}
    30f4:	0000009c 	muleq	r0, ip, r0
    30f8:	0000a108 	andeq	sl, r0, r8, lsl #2
    30fc:	06510600 	ldrbeq	r0, [r1], -r0, lsl #12
    3100:	21020000 	mrscs	r0, (UNDEF: 2)
    3104:	0000b90e 	andeq	fp, r0, lr, lsl #18
    3108:	8c040700 	stchi	7, cr0, [r4], {-0}
    310c:	09000000 	stmdbeq	r0, {}	; <UNPREDICTABLE>
    3110:	00000850 	andeq	r0, r0, r0, asr r8
    3114:	a0061e01 	andge	r1, r6, r1, lsl #28
    3118:	18000095 	stmdane	r0, {r0, r2, r4, r7}
    311c:	01000000 	mrseq	r0, (UNDEF: 0)
    3120:	0001099c 	muleq	r1, ip, r9
    3124:	65730a00 	ldrbvs	r0, [r3, #-2560]!	; 0xfffff600
    3128:	1e010063 	cdpne	0, 0, cr0, cr1, cr3, {3}
    312c:	00002c19 	andeq	r2, r0, r9, lsl ip
    3130:	0014be00 	andseq	fp, r4, r0, lsl #28
    3134:	0014ba00 	andseq	fp, r4, r0, lsl #20
    3138:	95b40b00 	ldrls	r0, [r4, #2816]!	; 0xb00
    313c:	01090000 	mrseq	r0, (UNDEF: 9)
    3140:	010c0000 	mrseq	r0, (UNDEF: 12)
    3144:	01f31150 	mvnseq	r1, r0, asr r1
    3148:	f3243550 	vqrshl.u32	<illegal reg q1.5>, q0, q2
    314c:	321c5001 	andscc	r5, ip, #1, 0
    3150:	5001f324 	andpl	pc, r1, r4, lsr #6
    3154:	00243322 	eoreq	r3, r4, r2, lsr #6
    3158:	07380900 	ldreq	r0, [r8, -r0, lsl #18]!
    315c:	1b010000 	blne	43164 <__bss_end__+0x386fc>
    3160:	00958806 	addseq	r8, r5, r6, lsl #16
    3164:	00001800 	andeq	r1, r0, r0, lsl #16
    3168:	529c0100 	addspl	r0, ip, #0
    316c:	0a000001 	beq	3178 <__code_start__-0x4e88>
    3170:	0100736d 	tsteq	r0, sp, ror #6
    3174:	002c181b 	eoreq	r1, ip, fp, lsl r8
    3178:	14e30000 	strbtne	r0, [r3], #0
    317c:	14df0000 	ldrbne	r0, [pc], #0	; 3184 <__code_start__-0x4e7c>
    3180:	9c0b0000 	stcls	0, cr0, [fp], {-0}
    3184:	52000095 	andpl	r0, r0, #149, 0	; 0x95
    3188:	0c000001 	stceq	0, cr0, [r0], {1}
    318c:	f3115001 	vhadd.u16	d5, d1, d1
    3190:	24355001 	ldrtcs	r5, [r5], #-1
    3194:	1c5001f3 	ldfnee	f0, [r0], {243}	; 0xf3
    3198:	01f32432 	mvnseq	r2, r2, lsr r4
    319c:	24332250 	ldrtcs	r2, [r3], #-592	; 0xfffffdb0
    31a0:	83090000 	movwhi	r0, #36864	; 0x9000
    31a4:	01000008 	tsteq	r0, r8
    31a8:	95640612 	strbls	r0, [r4, #-1554]!	; 0xfffff9ee
    31ac:	00240000 	eoreq	r0, r4, r0
    31b0:	9c010000 	stcls	0, cr0, [r1], {-0}
    31b4:	000001c2 	andeq	r0, r0, r2, asr #3
    31b8:	0073750a 	rsbseq	r7, r3, sl, lsl #10
    31bc:	2c181201 	lfmcs	f1, 4, [r8], {1}
    31c0:	08000000 	stmdaeq	r0, {}	; <UNPREDICTABLE>
    31c4:	04000015 	streq	r0, [r0], #-21	; 0xffffffeb
    31c8:	0d000015 	stceq	0, cr0, [r0, #-84]	; 0xffffffac
    31cc:	01006272 	tsteq	r0, r2, ror r2
    31d0:	002c0e13 	eoreq	r0, ip, r3, lsl lr
    31d4:	15280000 	strne	r0, [r8, #-0]!
    31d8:	15260000 	strne	r0, [r6, #-0]!
    31dc:	740e0000 	strvc	r0, [lr], #-0
    31e0:	14000095 	strne	r0, [r0], #-149	; 0xffffff6b
    31e4:	b8000000 	stmdalt	r0, {}	; <UNPREDICTABLE>
    31e8:	0d000001 	stceq	0, cr0, [r0, #-4]
    31ec:	01006172 	tsteq	r0, r2, ror r1
    31f0:	002c1215 	eoreq	r1, ip, r5, lsl r2
    31f4:	153d0000 	ldrne	r0, [sp, #-0]!
    31f8:	153b0000 	ldrne	r0, [fp, #-0]!
    31fc:	780f0000 	stmdavc	pc, {}	; <UNPREDICTABLE>
    3200:	c2000095 	andgt	r0, r0, #149, 0	; 0x95
    3204:	00000001 	andeq	r0, r0, r1
    3208:	0095700f 	addseq	r7, r5, pc
    320c:	0001c200 	andeq	ip, r1, r0, lsl #4
    3210:	74100000 	ldrvc	r0, [r0], #-0
    3214:	01000008 	tsteq	r0, r8
    3218:	002c0a09 	eoreq	r0, ip, r9, lsl #20
    321c:	95480000 	strbls	r0, [r8, #-0]
    3220:	001c0000 	andseq	r0, ip, r0
    3224:	9c010000 	stcls	0, cr0, [r1], {-0}
    3228:	0000020a 	andeq	r0, r0, sl, lsl #4
    322c:	0100750d 	tsteq	r0, sp, lsl #10
    3230:	002c0e0d 	eoreq	r0, ip, sp, lsl #28
    3234:	15540000 	ldrbne	r0, [r4, #-0]
    3238:	15500000 	ldrbne	r0, [r0, #-0]
    323c:	500f0000 	andpl	r0, pc, r0
    3240:	38000095 	stmdacc	r0, {r0, r2, r4, r7}
    3244:	0f000002 	svceq	0x00000002
    3248:	00009554 	andeq	r9, r0, r4, asr r5
    324c:	0000020a 	andeq	r0, r0, sl, lsl #4
    3250:	00955c0f 	addseq	r5, r5, pc, lsl #24
    3254:	00023800 	andeq	r3, r2, r0, lsl #16
    3258:	8c100000 	ldchi	0, cr0, [r0], {-0}
    325c:	01000008 	tsteq	r0, r8
    3260:	002c0a04 	eoreq	r0, ip, r4, lsl #20
    3264:	95340000 	ldrls	r0, [r4, #-0]!
    3268:	00140000 	andseq	r0, r4, r0
    326c:	9c010000 	stcls	0, cr0, [r1], {-0}
    3270:	00000238 	andeq	r0, r0, r8, lsr r2
    3274:	0095400b 	addseq	r4, r5, fp
    3278:	00024400 	andeq	r4, r2, r0, lsl #8
    327c:	50010c00 	andpl	r0, r1, r0, lsl #24
    3280:	30040c05 	andcc	r0, r4, r5, lsl #24
    3284:	00002000 	andeq	r2, r0, r0
    3288:	00084411 	andeq	r4, r8, r1, lsl r4
    328c:	00084400 	andeq	r4, r8, r0, lsl #8
    3290:	06a10200 	strteq	r0, [r1], r0, lsl #4
    3294:	00086e11 	andeq	r6, r8, r1, lsl lr
    3298:	00086e00 	andeq	r6, r8, r0, lsl #28
    329c:	0ac70200 	beq	ff1c3aa4 <__bss_end__+0xff1b903c>
    32a0:	0005cd00 	andeq	ip, r5, r0, lsl #26
    32a4:	64000400 	strvs	r0, [r0], #-1024	; 0xfffffc00
    32a8:	04000011 	streq	r0, [r0], #-17	; 0xffffffef
    32ac:	00099f01 	andeq	r9, r9, r1, lsl #30
    32b0:	08de0c00 	ldmeq	lr, {sl, fp}^
    32b4:	094f0000 	stmdbeq	pc, {}^	; <UNPREDICTABLE>
    32b8:	95b80000 	ldrls	r0, [r8, #0]!
    32bc:	01f00000 	mvnseq	r0, r0
    32c0:	1b060000 	blne	1832c8 <__bss_end__+0x178860>
    32c4:	04020000 	streq	r0, [r2], #-0
    32c8:	746e6905 	strbtvc	r6, [lr], #-2309	; 0xfffff6fb
    32cc:	07040300 	streq	r0, [r4, -r0, lsl #6]
    32d0:	000000df 	ldrdeq	r0, [r0], -pc	; <UNPREDICTABLE>
    32d4:	00002c04 	andeq	r2, r0, r4, lsl #24
    32d8:	06010300 	streq	r0, [r1], -r0, lsl #6
    32dc:	00000095 	muleq	r0, r5, r0
    32e0:	6f050203 	svcvs	0x00050203
    32e4:	03000001 	movweq	r0, #1
    32e8:	015a0504 	cmpeq	sl, r4, lsl #10
    32ec:	08030000 	stmdaeq	r3, {}	; <UNPREDICTABLE>
    32f0:	00015505 	andeq	r5, r1, r5, lsl #10
    32f4:	08010300 	stmdaeq	r1, {r8, r9}
    32f8:	00000093 	muleq	r0, r3, r0
    32fc:	6e070203 	cdpvs	2, 0, cr0, cr7, cr3, {0}
    3300:	05000000 	streq	r0, [r0, #-0]
    3304:	0000018c 	andeq	r0, r0, ip, lsl #3
    3308:	6e193405 	cfmulsvs	mvf3, mvf9, mvf5
    330c:	03000000 	movweq	r0, #0
    3310:	00da0704 	sbcseq	r0, sl, r4, lsl #14
    3314:	08030000 	stmdaeq	r3, {}	; <UNPREDICTABLE>
    3318:	0000d507 	andeq	sp, r0, r7, lsl #10
    331c:	08010300 	stmdaeq	r1, {r8, r9}
    3320:	0000009c 	muleq	r0, ip, r0
    3324:	54010706 	strpl	r0, [r1], #-1798	; 0xfffff8fa
    3328:	04000000 	streq	r0, [r0], #-0
    332c:	00c20e0c 	sbceq	r0, r2, ip, lsl #28
    3330:	89070000 	stmdbhi	r7, {}	; <UNPREDICTABLE>
    3334:	0000000a 	andeq	r0, r0, sl
    3338:	0008c107 	andeq	ip, r8, r7, lsl #2
    333c:	04070100 	streq	r0, [r7], #-256	; 0xffffff00
    3340:	04000009 	streq	r0, [r0], #-9
    3344:	00091307 	andeq	r1, r9, r7, lsl #6
    3348:	22070500 	andcs	r0, r7, #0, 10
    334c:	06000009 	streq	r0, [r0], -r9
    3350:	00093107 	andeq	r3, r9, r7, lsl #2
    3354:	52070700 	andpl	r0, r7, #0, 14
    3358:	0300000a 	movweq	r0, #10
    335c:	00094007 	andeq	r4, r9, r7
    3360:	08000200 	stmdaeq	r0, {r9}
    3364:	000008d2 	ldrdeq	r0, [r0], -r2
    3368:	0806022c 	stmdaeq	r6, {r2, r3, r5, r9}
    336c:	0000015e 	andeq	r0, r0, lr, asr r1
    3370:	006f6909 	rsbeq	r6, pc, r9, lsl #18
    3374:	33090902 	movwcc	r0, #39170	; 0x9902
    3378:	00000000 	andeq	r0, r0, r0
    337c:	72656909 	rsbvc	r6, r5, #147456	; 0x24000
    3380:	090a0200 	stmdbeq	sl, {r9}
    3384:	00000033 	andeq	r0, r0, r3, lsr r0
    3388:	69690904 	stmdbvs	r9!, {r2, r8, fp}^
    338c:	11020072 	tstne	r2, r2, ror r0
    3390:	00003309 	andeq	r3, r0, r9, lsl #6
    3394:	6c090800 	stcvs	8, cr0, [r9], {-0}
    3398:	02007263 	andeq	r7, r0, #805306374	; 0x30000006
    339c:	00330913 	eorseq	r0, r3, r3, lsl r9
    33a0:	090c0000 	stmdbeq	ip, {}	; <UNPREDICTABLE>
    33a4:	0072636d 	rsbseq	r6, r2, sp, ror #6
    33a8:	33091402 	movwcc	r1, #37890	; 0x9402
    33ac:	10000000 	andne	r0, r0, r0
    33b0:	72736c09 	rsbsvc	r6, r3, #2304	; 0x900
    33b4:	09150200 	ldmdbeq	r5, {r9}
    33b8:	00000033 	andeq	r0, r0, r3, lsr r0
    33bc:	736d0914 	cmnvc	sp, #20, 18	; 0x50000
    33c0:	16020072 			; <UNDEFINED> instruction: 0x16020072
    33c4:	00003309 	andeq	r3, r0, r9, lsl #6
    33c8:	690a1800 	stmdbvs	sl, {fp, ip}
    33cc:	0200000a 	andeq	r0, r0, #10, 0
    33d0:	00330917 	eorseq	r0, r3, r7, lsl r9
    33d4:	0a1c0000 	beq	7033dc <__bss_end__+0x6f8974>
    33d8:	00000a32 	andeq	r0, r0, r2, lsr sl
    33dc:	33091b02 	movwcc	r1, #39682	; 0x9b02
    33e0:	20000000 	andcs	r0, r0, r0
    33e4:	0008ae0a 	andeq	sl, r8, sl, lsl #28
    33e8:	091d0200 	ldmdbeq	sp, {r9}
    33ec:	00000033 	andeq	r0, r0, r3, lsr r0
    33f0:	09840a24 	stmibeq	r4, {r2, r5, r9, fp}
    33f4:	1e020000 	cdpne	0, 0, cr0, cr2, cr0, {0}
    33f8:	00003309 	andeq	r3, r0, r9, lsl #6
    33fc:	0b002800 	bleq	d404 <__bss_end__+0x299c>
    3400:	00000989 	andeq	r0, r0, r9, lsl #19
    3404:	74090801 	strvc	r0, [r9], #-2049	; 0xfffff7ff
    3408:	04000001 	streq	r0, [r0], #-1
    340c:	0c202150 	stfeqs	f2, [r0], #-320	; 0xfffffec0
    3410:	00003304 	andeq	r3, r0, r4, lsl #6
    3414:	016e0d00 	cmneq	lr, r0, lsl #26
    3418:	710b0000 	mrsvc	r0, (UNDEF: 11)
    341c:	0100000a 	tsteq	r0, sl
    3420:	018f2329 	orreq	r2, pc, r9, lsr #6
    3424:	50400000 	subpl	r0, r0, r0
    3428:	040c2021 	streq	r2, [ip], #-33	; 0xffffffdf
    342c:	000000c2 	andeq	r0, r0, r2, asr #1
    3430:	0001890d 	andeq	r8, r1, sp, lsl #18
    3434:	075c0e00 	ldrbeq	r0, [ip, -r0, lsl #28]
    3438:	cc010000 	stcgt	0, cr0, [r1], {-0}
    343c:	00977006 	addseq	r7, r7, r6
    3440:	00001400 	andeq	r1, r0, r0, lsl #8
    3444:	b49c0100 	ldrlt	r0, [ip], #256	; 0x100
    3448:	0f000001 	svceq	0x00000001
    344c:	00009778 	andeq	r9, r0, r8, ror r7
    3450:	000001b4 			; <UNDEFINED> instruction: 0x000001b4
    3454:	08f31000 	ldmeq	r3!, {ip}^
    3458:	b6010000 	strlt	r0, [r1], -r0
    345c:	00002505 	andeq	r2, r0, r5, lsl #10
    3460:	00975000 	addseq	r5, r7, r0
    3464:	00002000 	andeq	r2, r0, r0
    3468:	eb9c0100 	bl	fe703870 <__bss_end__+0xfe6f8e08>
    346c:	0f000001 	svceq	0x00000001
    3470:	00009758 	andeq	r9, r0, r8, asr r7
    3474:	000005a0 	andeq	r0, r0, r0, lsr #11
    3478:	00976011 	addseq	r6, r7, r1, lsl r0
    347c:	0005ac00 	andeq	sl, r5, r0, lsl #24
    3480:	50011200 	andpl	r1, r1, r0, lsl #4
    3484:	50640c05 	rsbpl	r0, r4, r5, lsl #24
    3488:	00002021 	andeq	r2, r0, r1, lsr #32
    348c:	000a4410 	andeq	r4, sl, r0, lsl r4
    3490:	05b30100 	ldreq	r0, [r3, #256]!	; 0x100
    3494:	00000025 	andeq	r0, r0, r5, lsr #32
    3498:	00009740 	andeq	r9, r0, r0, asr #14
    349c:	00000010 	andeq	r0, r0, r0, lsl r0
    34a0:	02189c01 	andseq	r9, r8, #256	; 0x100
    34a4:	480f0000 	stmdami	pc, {}	; <UNPREDICTABLE>
    34a8:	a0000097 	mulge	r0, r7, r0
    34ac:	0f000005 	svceq	0x00000005
    34b0:	0000974c 	andeq	r9, r0, ip, asr #14
    34b4:	00000309 	andeq	r0, r0, r9, lsl #6
    34b8:	0a7f0e00 	beq	1fc6cc0 <__bss_end__+0x1fbc258>
    34bc:	ab010000 	blge	434c4 <__bss_end__+0x38a5c>
    34c0:	00971006 	addseq	r1, r7, r6
    34c4:	00003000 	andeq	r3, r0, r0
    34c8:	7c9c0100 	ldfvcs	f0, [ip], {0}
    34cc:	13000002 	movwne	r0, #2
    34d0:	ab010063 	blge	43664 <__bss_end__+0x38bfc>
    34d4:	00002c19 	andeq	r2, r0, r9, lsl ip
    34d8:	00157600 	andseq	r7, r5, r0, lsl #12
    34dc:	00157200 	andseq	r7, r5, r0, lsl #4
    34e0:	971c0f00 	ldrls	r0, [ip, -r0, lsl #30]
    34e4:	05a00000 	streq	r0, [r0, #0]!
    34e8:	200f0000 	andcs	r0, pc, r0
    34ec:	db000097 	blle	3750 <__code_start__-0x48b0>
    34f0:	14000002 	strne	r0, [r0], #-2
    34f4:	00009734 	andeq	r9, r0, r4, lsr r7
    34f8:	000005b8 			; <UNDEFINED> instruction: 0x000005b8
    34fc:	00000272 	andeq	r0, r0, r2, ror r2
    3500:	05500112 	ldrbeq	r0, [r0, #-274]	; 0xfffffeee
    3504:	2150400c 	cmpcs	r0, ip
    3508:	51011220 	tstpl	r1, r0, lsr #4
    350c:	08007405 	stmdaeq	r0, {r0, r2, sl, ip, sp, lr}
    3510:	0f001aff 	svceq	0x00001aff
    3514:	00009738 	andeq	r9, r0, r8, lsr r7
    3518:	000005a0 	andeq	r0, r0, r0, lsr #11
    351c:	09951000 	ldmibeq	r5, {ip}
    3520:	a3010000 	movwge	r0, #4096	; 0x1000
    3524:	00002505 	andeq	r2, r0, r5, lsl #10
    3528:	0096e000 	addseq	lr, r6, r0
    352c:	00003000 	andeq	r3, r0, r0
    3530:	db9c0100 	blle	fe703938 <__bss_end__+0xfe6f8ed0>
    3534:	15000002 	strne	r0, [r0, #-2]
    3538:	a7010063 	strge	r0, [r1, -r3, rrx]
    353c:	00002509 	andeq	r2, r0, r9, lsl #10
    3540:	00159600 	andseq	r9, r5, r0, lsl #12
    3544:	00159400 	andseq	r9, r5, r0, lsl #8
    3548:	96e80f00 	strbtls	r0, [r8], r0, lsl #30
    354c:	05a00000 	streq	r0, [r0, #0]!
    3550:	ec0f0000 	stc	0, cr0, [pc], {-0}
    3554:	09000096 	stmdbeq	r0, {r1, r2, r4, r7}
    3558:	14000003 	strne	r0, [r0], #-3
    355c:	000096fc 	strdeq	r9, [r0], -ip
    3560:	000005ac 	andeq	r0, r0, ip, lsr #11
    3564:	000002d1 	ldrdeq	r0, [r0], -r1
    3568:	05500112 	ldrbeq	r0, [r0, #-274]	; 0xfffffeee
    356c:	2150400c 	cmpcs	r0, ip
    3570:	040f0020 	streq	r0, [pc], #-32	; 3578 <__code_start__-0x4a88>
    3574:	a0000097 	mulge	r0, r7, r0
    3578:	00000005 	andeq	r0, r0, r5
    357c:	0008e510 	andeq	lr, r8, r0, lsl r5
    3580:	05940100 	ldreq	r0, [r4, #256]	; 0x100
    3584:	00000025 	andeq	r0, r0, r5, lsr #32
    3588:	000096c0 	andeq	r9, r0, r0, asr #13
    358c:	00000020 	andeq	r0, r0, r0, lsr #32
    3590:	03099c01 	movweq	r9, #39937	; 0x9c01
    3594:	cc110000 	ldcgt	0, cr0, [r1], {-0}
    3598:	ac000096 	stcge	0, cr0, [r0], {150}	; 0x96
    359c:	12000005 	andne	r0, r0, #5, 0
    35a0:	0c055001 	stceq	0, cr5, [r5], {1}
    35a4:	20215064 	eorcs	r5, r1, r4, rrx
    35a8:	b3100000 	tstlt	r0, #0, 0
    35ac:	01000008 	tsteq	r0, r8
    35b0:	0025058b 	eoreq	r0, r5, fp, lsl #11
    35b4:	96a80000 	strtls	r0, [r8], r0
    35b8:	00180000 	andseq	r0, r8, r0
    35bc:	9c010000 	stcls	0, cr0, [r1], {-0}
    35c0:	00000337 	andeq	r0, r0, r7, lsr r3
    35c4:	0096b411 	addseq	fp, r6, r1, lsl r4
    35c8:	0005ac00 	andeq	sl, r5, r0, lsl #24
    35cc:	50011200 	andpl	r1, r1, r0, lsl #4
    35d0:	50640c05 	rsbpl	r0, r4, r5, lsl #24
    35d4:	00002021 	andeq	r2, r0, r1, lsr #32
    35d8:	00077a0e 	andeq	r7, r7, lr, lsl #20
    35dc:	06450100 	strbeq	r0, [r5], -r0, lsl #2
    35e0:	000095f8 	strdeq	r9, [r0], -r8
    35e4:	000000b0 	strheq	r0, [r0], -r0	; <UNPREDICTABLE>
    35e8:	04849c01 	streq	r9, [r4], #3073	; 0xc01
    35ec:	a5160000 	ldrge	r0, [r6, #-0]
    35f0:	01000008 	tsteq	r0, r8
    35f4:	00620e7e 	rsbeq	r0, r2, lr, ror lr
    35f8:	010e0000 	mrseq	r0, (UNDEF: 14)
    35fc:	00960814 	addseq	r0, r6, r4, lsl r8
    3600:	0005c400 	andeq	ip, r5, r0, lsl #8
    3604:	00037300 	andeq	r7, r3, r0, lsl #6
    3608:	50011200 	andpl	r1, r1, r0, lsl #4
    360c:	01123e01 	tsteq	r2, r1, lsl #28
    3610:	00320151 	eorseq	r0, r2, r1, asr r1
    3614:	00961414 	addseq	r1, r6, r4, lsl r4
    3618:	0005c400 	andeq	ip, r5, r0, lsl #8
    361c:	00038b00 	andeq	r8, r3, r0, lsl #22
    3620:	50011200 	andpl	r1, r1, r0, lsl #4
    3624:	01123f01 	tsteq	r2, r1, lsl #30
    3628:	00320151 	eorseq	r0, r2, r1, asr r1
    362c:	0096180f 	addseq	r1, r6, pc, lsl #16
    3630:	0005a000 	andeq	sl, r5, r0
    3634:	96241400 	strtls	r1, [r4], -r0, lsl #8
    3638:	053d0000 	ldreq	r0, [sp, #-0]!
    363c:	03b00000 	movseq	r0, #0, 0
    3640:	01120000 	tsteq	r2, r0
    3644:	040c0550 	streq	r0, [ip], #-1360	; 0xfffffab0
    3648:	12202150 	eorne	r2, r0, #20
    364c:	31015101 	tstcc	r1, r1, lsl #2
    3650:	96280f00 	strtls	r0, [r8], -r0, lsl #30
    3654:	05a00000 	streq	r0, [r0, #0]!
    3658:	38140000 	ldmdacc	r4, {}	; <UNPREDICTABLE>
    365c:	b8000096 	stmdalt	r0, {r1, r2, r4, r7}
    3660:	d2000005 	andle	r0, r0, #5, 0
    3664:	12000003 	andne	r0, r0, #3, 0
    3668:	74025001 	strvc	r5, [r2], #-1
    366c:	51011200 	mrspl	r1, R9_usr
    3670:	14003001 	strne	r3, [r0], #-1
    3674:	00009644 	andeq	r9, r0, r4, asr #12
    3678:	000005b8 			; <UNDEFINED> instruction: 0x000005b8
    367c:	000003ee 	andeq	r0, r0, lr, ror #7
    3680:	05500112 	ldrbeq	r0, [r0, #-274]	; 0xfffffeee
    3684:	2150440c 	cmpcs	r0, ip, lsl #8
    3688:	51011220 	tstpl	r1, r0, lsr #4
    368c:	14003001 	strne	r3, [r0], #-1
    3690:	00009650 	andeq	r9, r0, r0, asr r6
    3694:	000005b8 			; <UNDEFINED> instruction: 0x000005b8
    3698:	0000040a 	andeq	r0, r0, sl, lsl #8
    369c:	05500112 	ldrbeq	r0, [r0, #-274]	; 0xfffffeee
    36a0:	21504c0c 	cmpcs	r0, ip, lsl #24
    36a4:	51011220 	tstpl	r1, r0, lsr #4
    36a8:	14003301 	strne	r3, [r0], #-769	; 0xfffffcff
    36ac:	0000965c 	andeq	r9, r0, ip, asr r6
    36b0:	000005b8 			; <UNDEFINED> instruction: 0x000005b8
    36b4:	00000426 	andeq	r0, r0, r6, lsr #8
    36b8:	05500112 	ldrbeq	r0, [r0, #-274]	; 0xfffffeee
    36bc:	2150500c 	cmpcs	r0, ip
    36c0:	51011220 	tstpl	r1, r0, lsr #4
    36c4:	14003001 	strne	r3, [r0], #-1
    36c8:	00009668 	andeq	r9, r0, r8, ror #12
    36cc:	000005b8 			; <UNDEFINED> instruction: 0x000005b8
    36d0:	00000443 	andeq	r0, r0, r3, asr #8
    36d4:	05500112 	ldrbeq	r0, [r0, #-274]	; 0xfffffeee
    36d8:	2150480c 	cmpcs	r0, ip, lsl #16
    36dc:	51011220 	tstpl	r1, r0, lsr #4
    36e0:	00c70802 	sbceq	r0, r7, r2, lsl #16
    36e4:	00967414 	addseq	r7, r6, r4, lsl r4
    36e8:	0005b800 	andeq	fp, r5, r0, lsl #16
    36ec:	00046100 	andeq	r6, r4, r0, lsl #2
    36f0:	50011200 	andpl	r1, r1, r0, lsl #4
    36f4:	50680c05 	rsbpl	r0, r8, r5, lsl #24
    36f8:	01122021 	tsteq	r2, r1, lsr #32
    36fc:	0e0a0351 	mcreq	3, 0, r0, cr10, cr1, {2}
    3700:	80140001 	andshi	r0, r4, r1
    3704:	b8000096 	stmdalt	r0, {r1, r2, r4, r7}
    3708:	7a000005 	bvc	3724 <__code_start__-0x48dc>
    370c:	12000004 	andne	r0, r0, #4, 0
    3710:	74025001 	strvc	r5, [r2], #-1
    3714:	51011200 	mrspl	r1, R9_usr
    3718:	0f003301 	svceq	0x00003301
    371c:	00009684 	andeq	r9, r0, r4, lsl #13
    3720:	000005a0 	andeq	r0, r0, r0, lsr #11
    3724:	0a370e00 	beq	dc6f2c <__bss_end__+0xdbc4c4>
    3728:	35010000 	strcc	r0, [r1, #-0]
    372c:	00978406 	addseq	r8, r7, r6, lsl #8
    3730:	00002400 	andeq	r2, r0, r0, lsl #8
    3734:	d39c0100 	orrsle	r0, ip, #0
    3738:	0f000004 	svceq	0x00000004
    373c:	0000978c 	andeq	r9, r0, ip, lsl #15
    3740:	00000194 	muleq	r0, r4, r1
    3744:	0097900f 	addseq	r9, r7, pc
    3748:	0005a000 	andeq	sl, r5, r0
    374c:	979c1400 	ldrls	r1, [ip, r0, lsl #8]
    3750:	04d30000 	ldrbeq	r0, [r3], #0
    3754:	04c90000 	strbeq	r0, [r9], #0
    3758:	01120000 	tsteq	r2, r0
    375c:	040c0550 	streq	r0, [ip], #-1360	; 0xfffffab0
    3760:	12202150 	eorne	r2, r0, #20
    3764:	09025101 	stmdbeq	r2, {r0, r8, ip, lr}
    3768:	a00f00fe 	strdge	r0, [pc], -lr
    376c:	a0000097 	mulge	r0, r7, r0
    3770:	00000005 	andeq	r0, r0, r5
    3774:	000a7617 	andeq	r7, sl, r7, lsl r6
    3778:	0d310100 	ldfeqs	f0, [r1, #-0]
    377c:	000095b8 			; <UNDEFINED> instruction: 0x000095b8
    3780:	00000020 	andeq	r0, r0, r0, lsr #32
    3784:	05369c01 	ldreq	r9, [r6, #-3073]!	; 0xfffff3ff
    3788:	d0180000 	andsle	r0, r8, r0
    378c:	0100000a 	tsteq	r0, sl
    3790:	05362531 	ldreq	r2, [r6, #-1329]!	; 0xfffffacf
    3794:	15ad0000 	strne	r0, [sp, #0]!
    3798:	15a90000 	strne	r0, [r9, #0]!
    379c:	76130000 	ldrvc	r0, [r3], -r0
    37a0:	01006c61 	tsteq	r0, r1, ror #24
    37a4:	002c3431 	eoreq	r3, ip, r1, lsr r4
    37a8:	15cf0000 	strbne	r0, [pc]	; 37b0 <__code_start__-0x4850>
    37ac:	15cb0000 	strbne	r0, [fp]
    37b0:	c8140000 	ldmdagt	r4, {}	; <UNPREDICTABLE>
    37b4:	ac000095 	stcge	0, cr0, [r0], {149}	; 0x95
    37b8:	25000005 	strcs	r0, [r0, #-5]
    37bc:	12000005 	andne	r0, r0, #5, 0
    37c0:	74025001 	strvc	r5, [r2], #-1
    37c4:	d4110000 	ldrle	r0, [r1], #-0
    37c8:	b8000095 	stmdalt	r0, {r0, r2, r4, r7}
    37cc:	12000005 	andne	r0, r0, #5, 0
    37d0:	74025001 	strvc	r5, [r2], #-1
    37d4:	0c000000 	stceq	0, cr0, [r0], {-0}
    37d8:	00053c04 	andeq	r3, r5, r4, lsl #24
    37dc:	61171900 	tstvs	r7, r0, lsl #18
    37e0:	0100000a 	tsteq	r0, sl
    37e4:	95d80d2e 	ldrbls	r0, [r8, #3374]	; 0xd2e
    37e8:	00200000 	eoreq	r0, r0, r0
    37ec:	9c010000 	stcls	0, cr0, [r1], {-0}
    37f0:	000005a0 	andeq	r0, r0, r0, lsr #11
    37f4:	000ad018 	andeq	sp, sl, r8, lsl r0
    37f8:	242e0100 	strtcs	r0, [lr], #-256	; 0xffffff00
    37fc:	00000536 	andeq	r0, r0, r6, lsr r5
    3800:	000015f1 	strdeq	r1, [r0], -r1	; <UNPREDICTABLE>
    3804:	000015ed 	andeq	r1, r0, sp, ror #11
    3808:	6c617613 	stclvs	6, cr7, [r1], #-76	; 0xffffffb4
    380c:	332e0100 			; <UNDEFINED> instruction: 0x332e0100
    3810:	0000002c 	andeq	r0, r0, ip, lsr #32
    3814:	00001613 	andeq	r1, r0, r3, lsl r6
    3818:	0000160f 	andeq	r1, r0, pc, lsl #12
    381c:	0095e814 	addseq	lr, r5, r4, lsl r8
    3820:	0005ac00 	andeq	sl, r5, r0, lsl #24
    3824:	00058f00 	andeq	r8, r5, r0, lsl #30
    3828:	50011200 	andpl	r1, r1, r0, lsl #4
    382c:	00007402 	andeq	r7, r0, r2, lsl #8
    3830:	0095f411 	addseq	pc, r5, r1, lsl r4	; <UNPREDICTABLE>
    3834:	0005b800 	andeq	fp, r5, r0, lsl #16
    3838:	50011200 	andpl	r1, r1, r0, lsl #4
    383c:	00007402 	andeq	r7, r0, r2, lsl #8
    3840:	08441a00 	stmdaeq	r4, {r9, fp, ip}^
    3844:	08440000 	stmdaeq	r4, {}^	; <UNPREDICTABLE>
    3848:	a1030000 	mrsge	r0, (UNDEF: 3)
    384c:	0aab1a06 	beq	feaca06c <__bss_end__+0xfeabf604>
    3850:	0aab0000 	beq	feac3858 <__bss_end__+0xfeab8df0>
    3854:	c8030000 	stmdagt	r3, {}	; <UNPREDICTABLE>
    3858:	089f1a0b 	ldmeq	pc, {r0, r1, r3, r9, fp, ip}	; <UNPREDICTABLE>
    385c:	089f0000 	ldmeq	pc, {}	; <UNPREDICTABLE>
    3860:	b3030000 	movwlt	r0, #12288	; 0x3000
    3864:	0a991a06 	beq	fe64a084 <__bss_end__+0xfe63f61c>
    3868:	0a990000 	beq	fe643870 <__bss_end__+0xfe638e08>
    386c:	19040000 	stmdbne	r4, {}	; <UNPREDICTABLE>
    3870:	08e90006 	stmiaeq	r9!, {r1, r2}^
    3874:	00040000 	andeq	r0, r4, r0
    3878:	000012fc 	strdeq	r1, [r0], -ip
    387c:	099f0104 	ldmibeq	pc, {r2, r8}	; <UNPREDICTABLE>
    3880:	3b0c0000 	blcc	303888 <__bss_end__+0x2f8e20>
    3884:	4f00000b 	svcmi	0x0000000b
    3888:	a8000009 	stmdage	r0, {r0, r3}
    388c:	b0000097 	mullt	r0, r7, r0
    3890:	0f000003 	svceq	0x00000003
    3894:	0200001d 	andeq	r0, r0, #29, 0
    3898:	6e690504 	cdpvs	5, 6, cr0, cr9, cr4, {0}
    389c:	04030074 	streq	r0, [r3], #-116	; 0xffffff8c
    38a0:	0000df07 	andeq	sp, r0, r7, lsl #30
    38a4:	06010300 	streq	r0, [r1], -r0, lsl #6
    38a8:	00000095 	muleq	r0, r5, r0
    38ac:	6f050203 	svcvs	0x00050203
    38b0:	03000001 	movweq	r0, #1
    38b4:	015a0504 	cmpeq	sl, r4, lsl #10
    38b8:	08030000 	stmdaeq	r3, {}	; <UNPREDICTABLE>
    38bc:	00015505 	andeq	r5, r1, r5, lsl #10
    38c0:	08010300 	stmdaeq	r1, {r8, r9}
    38c4:	00000093 	muleq	r0, r3, r0
    38c8:	6e070203 	cdpvs	2, 0, cr0, cr7, cr3, {0}
    38cc:	04000000 	streq	r0, [r0], #-0
    38d0:	0000018c 	andeq	r0, r0, ip, lsl #3
    38d4:	69193403 	ldmdbvs	r9, {r0, r1, sl, ip, sp}
    38d8:	03000000 	movweq	r0, #0
    38dc:	00da0704 	sbcseq	r0, sl, r4, lsl #14
    38e0:	08030000 	stmdaeq	r3, {}	; <UNPREDICTABLE>
    38e4:	0000d507 	andeq	sp, r0, r7, lsl #10
    38e8:	08010300 	stmdaeq	r1, {r8, r9}
    38ec:	0000009c 	muleq	r0, ip, r0
    38f0:	00007705 	andeq	r7, r0, r5, lsl #14
    38f4:	04080300 	streq	r0, [r8], #-768	; 0xfffffd00
    38f8:	000004be 			; <UNDEFINED> instruction: 0x000004be
    38fc:	07070406 	streq	r0, [r7, -r6, lsl #8]
    3900:	00002c04 	andeq	r2, r0, r4, lsl #24
    3904:	061f0100 	ldreq	r0, [pc], -r0, lsl #2
    3908:	000000a4 	andeq	r0, r0, r4, lsr #1
    390c:	000ad508 	andeq	sp, sl, r8, lsl #10
    3910:	20000000 	andcs	r0, r0, r0
    3914:	a5090000 	strge	r0, [r9, #-0]
    3918:	01000006 	tsteq	r0, r6
    391c:	00770d22 	rsbseq	r0, r7, r2, lsr #26
    3920:	040a0000 	streq	r0, [sl], #-0
    3924:	01000004 	tsteq	r0, r4
    3928:	00c20e23 	sbceq	r0, r2, r3, lsr #28
    392c:	03050000 	movweq	r0, #20480	; 0x5000
    3930:	0000a62c 	andeq	sl, r0, ip, lsr #12
    3934:	0077040b 	rsbseq	r0, r7, fp, lsl #8
    3938:	b90a0000 	stmdblt	sl, {}	; <UNPREDICTABLE>
    393c:	0100000a 	tsteq	r0, sl
    3940:	00c20e24 	sbceq	r0, r2, r4, lsr #28
    3944:	03050000 	movweq	r0, #20480	; 0x5000
    3948:	0000a628 	andeq	sl, r0, r8, lsr #12
    394c:	000b1a0a 	andeq	r1, fp, sl, lsl #20
    3950:	0e250100 	sufeqs	f0, f5, f0
    3954:	000000c2 	andeq	r0, r0, r2, asr #1
    3958:	a6240305 	strtge	r0, [r4], -r5, lsl #6
    395c:	f00c0000 			; <UNDEFINED> instruction: 0xf00c0000
    3960:	0100000a 	tsteq	r0, sl
    3964:	9af80675 	bls	ffe05340 <__bss_end__+0xffdfa8d8>
    3968:	00600000 	rsbeq	r0, r0, r0
    396c:	9c010000 	stcls	0, cr0, [r1], {-0}
    3970:	00000164 	andeq	r0, r0, r4, ror #2
    3974:	0100700d 	tsteq	r0, sp
    3978:	008a1675 	addeq	r1, sl, r5, ror r6
    397c:	16370000 	ldrtne	r0, [r7], -r0
    3980:	16310000 	ldrtne	r0, [r1], -r0
    3984:	ad0e0000 	stcge	0, cr0, [lr, #-0]
    3988:	74000000 	strvc	r0, [r0], #-0
    398c:	05000001 	streq	r0, [r0, #-1]
    3990:	00a61403 	adceq	r1, r6, r3, lsl #8
    3994:	9b440f00 	blls	110759c <__bss_end__+0x10fcb34>
    3998:	08bc0000 	ldmeq	ip!, {}	; <UNPREDICTABLE>
    399c:	015a0000 	cmpeq	sl, r0
    39a0:	01100000 	tsteq	r0, r0
    39a4:	8c030550 	cfstr32hi	mvfx0, [r3], {80}	; 0x50
    39a8:	100000a5 	andne	r0, r0, r5, lsr #1
    39ac:	03055101 	movweq	r5, #20737	; 0x5101
    39b0:	0000a424 	andeq	sl, r0, r4, lsr #8
    39b4:	05520110 	ldrbeq	r0, [r2, #-272]	; 0xfffffef0
    39b8:	00a61403 	adceq	r1, r6, r3, lsl #8
    39bc:	53011000 	movwpl	r1, #4096	; 0x1000
    39c0:	10770802 	rsbsne	r0, r7, r2, lsl #16
    39c4:	03007d02 	movweq	r7, #3330	; 0xd02
    39c8:	005001f3 	ldrsheq	r0, [r0], #-19	; 0xffffffed
    39cc:	009b4811 	addseq	r4, fp, r1, lsl r8
    39d0:	0008c800 	andeq	ip, r8, r0, lsl #16
    39d4:	7e120000 	cdpvc	0, 1, cr0, cr2, cr0, {0}
    39d8:	74000000 	strvc	r0, [r0], #-0
    39dc:	13000001 	movwne	r0, #1
    39e0:	0000002c 	andeq	r0, r0, ip, lsr #32
    39e4:	64050009 	strvs	r0, [r5], #-9
    39e8:	14000001 	strne	r0, [r0], #-1
    39ec:	00000ade 	ldrdeq	r0, [r0], -lr
    39f0:	e4067201 	str	r7, [r6], #-513	; 0xfffffdff
    39f4:	1400009a 	strne	r0, [r0], #-154	; 0xffffff66
    39f8:	01000000 	mrseq	r0, (UNDEF: 0)
    39fc:	02a30c9c 	adceq	r0, r3, #156, 24	; 0x9c00
    3a00:	6f010000 	svcvs	0x00010000
    3a04:	009ae006 	addseq	lr, sl, r6
    3a08:	00000400 	andeq	r0, r0, r0, lsl #8
    3a0c:	ae9c0100 	fmlgee	f0, f4, f0
    3a10:	15000001 	strne	r0, [r0, #-1]
    3a14:	6f010070 	svcvs	0x00010070
    3a18:	00008a12 	andeq	r8, r0, r2, lsl sl
    3a1c:	00500100 	subseq	r0, r0, r0, lsl #2
    3a20:	000b7d16 	andeq	r7, fp, r6, lsl sp
    3a24:	075e0100 	ldrbeq	r0, [lr, -r0, lsl #2]
    3a28:	0000008a 	andeq	r0, r0, sl, lsl #1
    3a2c:	000099c8 	andeq	r9, r0, r8, asr #19
    3a30:	00000118 	andeq	r0, r0, r8, lsl r1
    3a34:	042c9c01 	strteq	r9, [ip], #-3073	; 0xfffff3ff
    3a38:	1e170000 	cdpne	0, 1, cr0, cr7, cr0, {0}
    3a3c:	01000003 	tsteq	r0, r3
    3a40:	002c205e 	eoreq	r2, ip, lr, asr r0
    3a44:	16780000 	ldrbtne	r0, [r8], -r0
    3a48:	16640000 	strbtne	r0, [r4], -r0
    3a4c:	fa170000 	blx	5c3a54 <__bss_end__+0x5b8fec>
    3a50:	0100000a 	tsteq	r0, sl
    3a54:	002c315e 	eoreq	r3, ip, lr, asr r1
    3a58:	17110000 	ldrne	r0, [r1, -r0]
    3a5c:	16fd0000 	ldrbtne	r0, [sp], r0
    3a60:	ad0e0000 	stcge	0, cr0, [lr, #-0]
    3a64:	3c000000 	stccc	0, cr0, [r0], {-0}
    3a68:	05000004 	streq	r0, [r0, #-4]
    3a6c:	00a5fc03 	adceq	pc, r5, r3, lsl #24
    3a70:	00681800 	rsbeq	r1, r8, r0, lsl #16
    3a74:	2c0e6601 	stccs	6, cr6, [lr], {1}
    3a78:	c7000000 	strgt	r0, [r0, -r0]
    3a7c:	bb000017 	bllt	3ae0 <__code_start__-0x4520>
    3a80:	19000017 	stmdbne	r0, {r0, r1, r2, r4}
    3a84:	00000854 	andeq	r0, r0, r4, asr r8
    3a88:	000099d8 	ldrdeq	r9, [r0], -r8
    3a8c:	0099d804 	addseq	sp, r9, r4, lsl #16
    3a90:	00000400 	andeq	r0, r0, r0, lsl #8
    3a94:	05600100 	strbeq	r0, [r0, #-256]!	; 0xffffff00
    3a98:	00000238 	andeq	r0, r0, r8, lsr r2
    3a9c:	0008651a 	andeq	r6, r8, sl, lsl r5
    3aa0:	00181b00 	andseq	r1, r8, r0, lsl #22
    3aa4:	00181900 	andseq	r1, r8, r0, lsl #18
    3aa8:	96190000 	ldrls	r0, [r9], -r0
    3aac:	e4000008 	str	r0, [r0], #-8
    3ab0:	02000099 	andeq	r0, r0, #153, 0	; 0x99
    3ab4:	000099e4 	andeq	r9, r0, r4, ror #19
    3ab8:	00000008 	andeq	r0, r0, r8
    3abc:	6c116101 	ldfvss	f6, [r1], {1}
    3ac0:	1a000002 	bne	3ad0 <__code_start__-0x4530>
    3ac4:	000008b1 			; <UNDEFINED> instruction: 0x000008b1
    3ac8:	00001830 	andeq	r1, r0, r0, lsr r8
    3acc:	0000182e 	andeq	r1, r0, lr, lsr #16
    3ad0:	0008a71a 	andeq	sl, r8, sl, lsl r7
    3ad4:	00184600 	andseq	r4, r8, r0, lsl #12
    3ad8:	00184400 	andseq	r4, r8, r0, lsl #8
    3adc:	1f1b0000 	svcne	0x001b0000
    3ae0:	f4000008 	vst4.8	{d0-d3}, [r0], r8
    3ae4:	01000099 	swpeq	r0, r9, [r0]	; <UNPREDICTABLE>
    3ae8:	00000088 	andeq	r0, r0, r8, lsl #1
    3aec:	0a096701 	beq	25d6f8 <__bss_end__+0x252c90>
    3af0:	1a000003 	bne	3b04 <__code_start__-0x44fc>
    3af4:	0000083a 	andeq	r0, r0, sl, lsr r8
    3af8:	0000185f 	andeq	r1, r0, pc, asr r8
    3afc:	00001859 	andeq	r1, r0, r9, asr r8
    3b00:	0008301a 	andeq	r3, r8, sl, lsl r0
    3b04:	0018a600 	andseq	sl, r8, r0, lsl #12
    3b08:	00189e00 	andseq	r9, r8, r0, lsl #28
    3b0c:	00881c00 	addeq	r1, r8, r0, lsl #24
    3b10:	54190000 	ldrpl	r0, [r9], #-0
    3b14:	f4000008 	vst4.8	{d0-d3}, [r0], r8
    3b18:	04000099 	streq	r0, [r0], #-153	; 0xffffff67
    3b1c:	000099f4 	strdeq	r9, [r0], -r4
    3b20:	00000004 	andeq	r0, r0, r4
    3b24:	c7051101 	strgt	r1, [r5, -r1, lsl #2]
    3b28:	1a000002 	bne	3b38 <__code_start__-0x44c8>
    3b2c:	00000865 	andeq	r0, r0, r5, ror #16
    3b30:	000018e4 	andeq	r1, r0, r4, ror #17
    3b34:	000018e2 	andeq	r1, r0, r2, ror #17
    3b38:	9a8c0f00 	bls	fe307740 <__bss_end__+0xfe2fccd8>
    3b3c:	08bc0000 	ldmeq	ip!, {}	; <UNPREDICTABLE>
    3b40:	02ff0000 	rscseq	r0, pc, #0, 0
    3b44:	01100000 	tsteq	r0, r0
    3b48:	78030550 	stmdavc	r3, {r4, r6, r8, sl}
    3b4c:	1000009e 	mulne	r0, lr, r0
    3b50:	03055101 	movweq	r5, #20737	; 0x5101
    3b54:	0000a424 	andeq	sl, r0, r4, lsr #8
    3b58:	05520110 	ldrbeq	r0, [r2, #-272]	; 0xfffffef0
    3b5c:	00a60c03 	adceq	r0, r6, r3, lsl #24
    3b60:	53011000 	movwpl	r1, #4096	; 0x1000
    3b64:	02104101 	andseq	r4, r0, #1073741824	; 0x40000000
    3b68:	0305007d 	movweq	r0, #20605	; 0x507d
    3b6c:	0000a538 	andeq	sl, r0, r8, lsr r5
    3b70:	9a901100 	bls	fe407f78 <__bss_end__+0xfe3fd510>
    3b74:	08c80000 	stmiaeq	r8, {}^	; <UNPREDICTABLE>
    3b78:	00000000 	andeq	r0, r0, r0
    3b7c:	00087019 	andeq	r7, r8, r9, lsl r0
    3b80:	009a0c00 	addseq	r0, sl, r0, lsl #24
    3b84:	9a0c0300 	bls	30478c <__bss_end__+0x2f9d24>
    3b88:	00040000 	andeq	r0, r4, r0
    3b8c:	68010000 	stmdavs	r1, {}	; <UNPREDICTABLE>
    3b90:	00033e05 	andeq	r3, r3, r5, lsl #28
    3b94:	088b1a00 	stmeq	fp, {r9, fp, ip}
    3b98:	18f90000 	ldmne	r9!, {}^	; <UNPREDICTABLE>
    3b9c:	18f70000 	ldmne	r7!, {}^	; <UNPREDICTABLE>
    3ba0:	811a0000 	tsthi	sl, r0
    3ba4:	0e000008 	cdpeq	0, 0, cr0, cr0, cr8, {0}
    3ba8:	0c000019 	stceq	0, cr0, [r0], {25}
    3bac:	00000019 	andeq	r0, r0, r9, lsl r0
    3bb0:	009a240f 	addseq	r2, sl, pc, lsl #8
    3bb4:	00044100 	andeq	r4, r4, r0, lsl #2
    3bb8:	00035300 	andeq	r5, r3, r0, lsl #6
    3bbc:	50011000 	andpl	r1, r1, r0
    3bc0:	5001f303 	andpl	pc, r1, r3, lsl #6
    3bc4:	9a480f00 	bls	12077cc <__bss_end__+0x11fcd64>
    3bc8:	08bc0000 	ldmeq	ip!, {}	; <UNPREDICTABLE>
    3bcc:	038c0000 	orreq	r0, ip, #0, 0
    3bd0:	01100000 	tsteq	r0, r0
    3bd4:	78030550 	stmdavc	r3, {r4, r6, r8, sl}
    3bd8:	1000009e 	mulne	r0, lr, r0
    3bdc:	03055101 	movweq	r5, #20737	; 0x5101
    3be0:	0000a424 	andeq	sl, r0, r4, lsr #8
    3be4:	05520110 	ldrbeq	r0, [r2, #-272]	; 0xfffffef0
    3be8:	00a5fc03 	adceq	pc, r5, r3, lsl #24
    3bec:	53011000 	movwpl	r1, #4096	; 0x1000
    3bf0:	105f0802 	subsne	r0, pc, r2, lsl #16
    3bf4:	05007d02 	streq	r7, [r0, #-3330]	; 0xfffff2fe
    3bf8:	00a43403 	adceq	r3, r4, r3, lsl #8
    3bfc:	4c110000 	ldcmi	0, cr0, [r1], {-0}
    3c00:	c800009a 	stmdagt	r0, {r1, r3, r4, r7}
    3c04:	11000008 	tstne	r0, r8
    3c08:	00009a50 	andeq	r9, r0, r0, asr sl
    3c0c:	000008d4 	ldrdeq	r0, [r0], -r4
    3c10:	009a6c0f 	addseq	r6, sl, pc, lsl #24
    3c14:	0008bc00 	andeq	fp, r8, r0, lsl #24
    3c18:	0003d700 	andeq	sp, r3, r0, lsl #14
    3c1c:	50011000 	andpl	r1, r1, r0
    3c20:	a4f00305 	ldrbtge	r0, [r0], #773	; 0x305
    3c24:	01100000 	tsteq	r0, r0
    3c28:	24030551 	strcs	r0, [r3], #-1361	; 0xfffffaaf
    3c2c:	100000a4 	andne	r0, r0, r4, lsr #1
    3c30:	03055201 	movweq	r5, #20993	; 0x5201
    3c34:	0000a5fc 	strdeq	sl, [r0], -ip
    3c38:	02530110 	subseq	r0, r3, #4
    3c3c:	02106008 	andseq	r6, r0, #8, 0
    3c40:	0305007d 	movweq	r0, #20605	; 0x507d
    3c44:	0000a524 	andeq	sl, r0, r4, lsr #10
    3c48:	9a701100 	bls	1c08050 <__bss_end__+0x1bfd5e8>
    3c4c:	08c80000 	stmiaeq	r8, {}^	; <UNPREDICTABLE>
    3c50:	94110000 	ldrls	r0, [r1], #-0
    3c54:	d400009a 	strle	r0, [r0], #-154	; 0xffffff66
    3c58:	0f000008 	svceq	0x00000008
    3c5c:	00009ab0 			; <UNDEFINED> instruction: 0x00009ab0
    3c60:	000008bc 			; <UNDEFINED> instruction: 0x000008bc
    3c64:	00000422 	andeq	r0, r0, r2, lsr #8
    3c68:	05500110 	ldrbeq	r0, [r0, #-272]	; 0xfffffef0
    3c6c:	00a54403 	adceq	r4, r5, r3, lsl #8
    3c70:	51011000 	mrspl	r1, (UNDEF: 1)
    3c74:	a4240305 	strtge	r0, [r4], #-773	; 0xfffffcfb
    3c78:	01100000 	tsteq	r0, r0
    3c7c:	fc030552 	stc2	5, cr0, [r3], {82}	; 0x52
    3c80:	100000a5 	andne	r0, r0, r5, lsr #1
    3c84:	08025301 	stmdaeq	r2, {r0, r8, r9, ip, lr}
    3c88:	7d021068 	stcvc	0, cr1, [r2, #-416]	; 0xfffffe60
    3c8c:	70030500 	andvc	r0, r3, r0, lsl #10
    3c90:	000000a5 	andeq	r0, r0, r5, lsr #1
    3c94:	009ab411 	addseq	fp, sl, r1, lsl r4
    3c98:	0008c800 	andeq	ip, r8, r0, lsl #16
    3c9c:	7e120000 	cdpvc	0, 1, cr0, cr2, cr0, {0}
    3ca0:	3c000000 	stccc	0, cr0, [r0], {-0}
    3ca4:	13000004 	movwne	r0, #4
    3ca8:	0000002c 	andeq	r0, r0, ip, lsr #32
    3cac:	2c05000f 	stccs	0, cr0, [r5], {15}
    3cb0:	16000004 	strne	r0, [r0], -r4
    3cb4:	0000043a 	andeq	r0, r0, sl, lsr r4
    3cb8:	8a075301 	bhi	1d88c4 <__bss_end__+0x1cde5c>
    3cbc:	64000000 	strvs	r0, [r0], #-0
    3cc0:	64000099 	strvs	r0, [r0], #-153	; 0xffffff67
    3cc4:	01000000 	mrseq	r0, (UNDEF: 0)
    3cc8:	0005089c 	muleq	r5, ip, r8
    3ccc:	031e1700 	tsteq	lr, #0, 14
    3cd0:	53010000 	movwpl	r0, #4096	; 0x1000
    3cd4:	00002c18 	andeq	r2, r0, r8, lsl ip
    3cd8:	00192900 	andseq	r2, r9, r0, lsl #18
    3cdc:	00192100 	andseq	r2, r9, r0, lsl #2
    3ce0:	00ad0e00 	adceq	r0, sp, r0, lsl #28
    3ce4:	05180000 	ldreq	r0, [r8, #-0]
    3ce8:	03050000 	movweq	r0, #20480	; 0x5000
    3cec:	0000a5f4 	strdeq	sl, [r0], -r4
    3cf0:	000ad01d 	andeq	sp, sl, sp, lsl r0
    3cf4:	0b550100 	bleq	15440fc <__bss_end__+0x1539694>
    3cf8:	0000008a 	andeq	r0, r0, sl, lsl #1
    3cfc:	00001961 	andeq	r1, r0, r1, ror #18
    3d00:	0000195d 	andeq	r1, r0, sp, asr r9
    3d04:	00997c0f 	addseq	r7, r9, pc, lsl #24
    3d08:	00051d00 	andeq	r1, r5, r0, lsl #26
    3d0c:	0004a600 	andeq	sl, r4, r0, lsl #12
    3d10:	50011000 	andpl	r1, r1, r0
    3d14:	00007402 	andeq	r7, r0, r2, lsl #8
    3d18:	00998c0f 	addseq	r8, r9, pc, lsl #24
    3d1c:	0008e000 	andeq	lr, r8, r0
    3d20:	0004c500 	andeq	ip, r4, r0, lsl #10
    3d24:	50011000 	andpl	r1, r1, r0
    3d28:	10007502 	andne	r7, r0, r2, lsl #10
    3d2c:	30015101 	andcc	r5, r1, r1, lsl #2
    3d30:	02520110 	subseq	r0, r2, #4
    3d34:	0f000074 	svceq	0x00000074
    3d38:	000099b4 			; <UNDEFINED> instruction: 0x000099b4
    3d3c:	000008bc 			; <UNDEFINED> instruction: 0x000008bc
    3d40:	000004fe 	strdeq	r0, [r0], -lr
    3d44:	05500110 	ldrbeq	r0, [r0, #-272]	; 0xfffffef0
    3d48:	009e7803 	addseq	r7, lr, r3, lsl #16
    3d4c:	51011000 	mrspl	r1, (UNDEF: 1)
    3d50:	a4240305 	strtge	r0, [r4], #-773	; 0xfffffcfb
    3d54:	01100000 	tsteq	r0, r0
    3d58:	f4030552 	vst3.16	{d0,d2,d4}, [r3 :64], r2
    3d5c:	100000a5 	andne	r0, r0, r5, lsr #1
    3d60:	08025301 	stmdaeq	r2, {r0, r8, r9, ip, lr}
    3d64:	7d021054 	stcvc	0, cr1, [r2, #-336]	; 0xfffffeb0
    3d68:	34030500 	strcc	r0, [r3], #-1280	; 0xfffffb00
    3d6c:	000000a4 	andeq	r0, r0, r4, lsr #1
    3d70:	0099b811 	addseq	fp, r9, r1, lsl r8
    3d74:	0008c800 	andeq	ip, r8, r0, lsl #16
    3d78:	7e120000 	cdpvc	0, 1, cr0, cr2, cr0, {0}
    3d7c:	18000000 	stmdane	r0, {}	; <UNPREDICTABLE>
    3d80:	13000005 	movwne	r0, #5
    3d84:	0000002c 	andeq	r0, r0, ip, lsr #32
    3d88:	08050007 	stmdaeq	r5, {r0, r1, r2}
    3d8c:	16000005 	strne	r0, [r0], -r5
    3d90:	00000b23 	andeq	r0, r0, r3, lsr #22
    3d94:	8a074701 	bhi	1d59a0 <__bss_end__+0x1caf38>
    3d98:	cc000000 	stcgt	0, cr0, [r0], {-0}
    3d9c:	98000098 	stmdals	r0, {r3, r4, r7}
    3da0:	01000000 	mrseq	r0, (UNDEF: 0)
    3da4:	00062b9c 	muleq	r6, ip, fp
    3da8:	031e1700 	tsteq	lr, #0, 14
    3dac:	47010000 	strmi	r0, [r1, -r0]
    3db0:	00002c20 	andeq	r2, r0, r0, lsr #24
    3db4:	00198f00 	andseq	r8, r9, r0, lsl #30
    3db8:	00197f00 	andseq	r7, r9, r0, lsl #30
    3dbc:	00ad0e00 	adceq	r0, sp, r0, lsl #28
    3dc0:	043c0000 	ldrteq	r0, [ip], #-0
    3dc4:	03050000 	movweq	r0, #20480	; 0x5000
    3dc8:	0000a5e4 	andeq	sl, r0, r4, ror #11
    3dcc:	000ad01d 	andeq	sp, sl, sp, lsl r0
    3dd0:	0b4b0100 	bleq	12c41d8 <__bss_end__+0x12b9770>
    3dd4:	0000008a 	andeq	r0, r0, sl, lsl #1
    3dd8:	00001a03 	andeq	r1, r0, r3, lsl #20
    3ddc:	000019fd 	strdeq	r1, [r0], -sp
    3de0:	00081f1b 	andeq	r1, r8, fp, lsl pc
    3de4:	0098dc00 	addseq	sp, r8, r0, lsl #24
    3de8:	00700300 	rsbseq	r0, r0, r0, lsl #6
    3dec:	49010000 	stmdbmi	r1, {}	; <UNPREDICTABLE>
    3df0:	0005a30e 	andeq	sl, r5, lr, lsl #6
    3df4:	083a1a00 	ldmdaeq	sl!, {r9, fp, ip}
    3df8:	1a320000 	bne	c83e00 <__bss_end__+0xc79398>
    3dfc:	1a300000 	bne	c03e04 <__bss_end__+0xbf939c>
    3e00:	301a0000 	andscc	r0, sl, r0
    3e04:	4a000008 	bmi	3e2c <__code_start__-0x41d4>
    3e08:	4600001a 			; <UNDEFINED> instruction: 0x4600001a
    3e0c:	1e00001a 	mcrne	0, 0, r0, cr0, cr10, {0}
    3e10:	00000070 	andeq	r0, r0, r0, ror r0
    3e14:	99240f00 	stmdbls	r4!, {r8, r9, sl, fp}
    3e18:	08bc0000 	ldmeq	ip!, {}	; <UNPREDICTABLE>
    3e1c:	05dc0000 	ldrbeq	r0, [ip]
    3e20:	01100000 	tsteq	r0, r0
    3e24:	78030550 	stmdavc	r3, {r4, r6, r8, sl}
    3e28:	1000009e 	mulne	r0, lr, r0
    3e2c:	03055101 	movweq	r5, #20737	; 0x5101
    3e30:	0000a424 	andeq	sl, r0, r4, lsr #8
    3e34:	05520110 	ldrbeq	r0, [r2, #-272]	; 0xfffffef0
    3e38:	00a5e403 	adceq	lr, r5, r3, lsl #8
    3e3c:	53011000 	movwpl	r1, #4096	; 0x1000
    3e40:	10480802 	subne	r0, r8, r2, lsl #16
    3e44:	05007d02 	streq	r7, [r0, #-3330]	; 0xfffff2fe
    3e48:	00a43403 	adceq	r3, r4, r3, lsl #8
    3e4c:	28110000 	ldmdacs	r1, {}	; <UNPREDICTABLE>
    3e50:	c8000099 	stmdagt	r0, {r0, r3, r4, r7}
    3e54:	0f000008 	svceq	0x00000008
    3e58:	00009948 	andeq	r9, r0, r8, asr #18
    3e5c:	000008bc 			; <UNDEFINED> instruction: 0x000008bc
    3e60:	00000621 	andeq	r0, r0, r1, lsr #12
    3e64:	05500110 	ldrbeq	r0, [r0, #-272]	; 0xfffffef0
    3e68:	00a4b003 	adceq	fp, r4, r3
    3e6c:	51011000 	mrspl	r1, (UNDEF: 1)
    3e70:	a4240305 	strtge	r0, [r4], #-773	; 0xfffffcfb
    3e74:	01100000 	tsteq	r0, r0
    3e78:	e4030552 	str	r0, [r3], #-1362	; 0xfffffaae
    3e7c:	100000a5 	andne	r0, r0, r5, lsr #1
    3e80:	08025301 	stmdaeq	r2, {r0, r8, r9, ip, lr}
    3e84:	7d02104e 	stcvc	0, cr1, [r2, #-312]	; 0xfffffec8
    3e88:	01f30800 	mvnseq	r0, r0, lsl #16
    3e8c:	09072350 	stmdbeq	r7, {r4, r6, r8, r9, sp}
    3e90:	11001af8 	strdne	r1, [r0, -r8]
    3e94:	0000994c 	andeq	r9, r0, ip, asr #18
    3e98:	000008c8 	andeq	r0, r0, r8, asr #17
    3e9c:	0b450c00 	bleq	1146ea4 <__bss_end__+0x113c43c>
    3ea0:	3c010000 	stccc	0, cr0, [r1], {-0}
    3ea4:	00987406 	addseq	r7, r8, r6, lsl #8
    3ea8:	00005800 	andeq	r5, r0, r0, lsl #16
    3eac:	cf9c0100 	svcgt	0x009c0100
    3eb0:	0a000006 	beq	3ed0 <__code_start__-0x4130>
    3eb4:	0000037d 	andeq	r0, r0, sp, ror r3
    3eb8:	25103d01 	ldrcs	r3, [r0, #-3329]	; 0xfffff2ff
    3ebc:	05000000 	streq	r0, [r0, #-0]
    3ec0:	00aa6003 	adceq	r6, sl, r3
    3ec4:	00ad0e00 	adceq	r0, sp, r0, lsl #28
    3ec8:	06df0000 	ldrbeq	r0, [pc], r0
    3ecc:	03050000 	movweq	r0, #20480	; 0x5000
    3ed0:	0000a5d4 	ldrdeq	sl, [r0], -r4
    3ed4:	2c040707 	stccs	7, cr0, [r4], {7}
    3ed8:	01000000 	mrseq	r0, (UNDEF: 0)
    3edc:	067a0a42 	ldrbteq	r0, [sl], -r2, asr #20
    3ee0:	0c080000 	stceq	0, cr0, [r8], {-0}
    3ee4:	0000000b 	andeq	r0, r0, fp
    3ee8:	00001000 	andeq	r1, r0, r0
    3eec:	0098a00f 	addseq	sl, r8, pc
    3ef0:	0006e400 	andeq	lr, r6, r0, lsl #8
    3ef4:	00069600 	andeq	r9, r6, r0, lsl #12
    3ef8:	50011000 	andpl	r1, r1, r0
    3efc:	24404003 	strbcs	r4, [r0], #-3
    3f00:	03510110 	cmpeq	r1, #4
    3f04:	00244840 	eoreq	r4, r4, r0, asr #16
    3f08:	0098b80f 	addseq	fp, r8, pc, lsl #16
    3f0c:	0008bc00 	andeq	fp, r8, r0, lsl #24
    3f10:	0006c500 	andeq	ip, r6, r0, lsl #10
    3f14:	50011000 	andpl	r1, r1, r0
    3f18:	a4800305 	strge	r0, [r0], #773	; 0x305
    3f1c:	01100000 	tsteq	r0, r0
    3f20:	24030551 	strcs	r0, [r3], #-1361	; 0xfffffaaf
    3f24:	100000a4 	andne	r0, r0, r4, lsr #1
    3f28:	03055201 	movweq	r5, #20993	; 0x5201
    3f2c:	0000a5d4 	ldrdeq	sl, [r0], -r4
    3f30:	02530110 	subseq	r0, r3, #4
    3f34:	11004008 	tstne	r0, r8
    3f38:	000098bc 			; <UNDEFINED> instruction: 0x000098bc
    3f3c:	000008c8 	andeq	r0, r0, r8, asr #17
    3f40:	007e1200 	rsbseq	r1, lr, r0, lsl #4
    3f44:	06df0000 	ldrbeq	r0, [pc], r0
    3f48:	2c130000 	ldccs	0, cr0, [r3], {-0}
    3f4c:	0c000000 	stceq	0, cr0, [r0], {-0}
    3f50:	06cf0500 	strbeq	r0, [pc], r0, lsl #10
    3f54:	420c0000 	andmi	r0, ip, #0, 0
    3f58:	01000004 	tsteq	r0, r4
    3f5c:	97d8062d 	ldrbls	r0, [r8, sp, lsr #12]
    3f60:	009c0000 	addseq	r0, ip, r0
    3f64:	9c010000 	stcls	0, cr0, [r1], {-0}
    3f68:	000007c8 	andeq	r0, r0, r8, asr #15
    3f6c:	000acf17 	andeq	ip, sl, r7, lsl pc
    3f70:	262d0100 	strtcs	r0, [sp], -r0, lsl #2
    3f74:	0000002c 	andeq	r0, r0, ip, lsr #32
    3f78:	00001a78 	andeq	r1, r0, r8, ror sl
    3f7c:	00001a6a 	andeq	r1, r0, sl, ror #20
    3f80:	000ac417 	andeq	ip, sl, r7, lsl r4
    3f84:	362d0100 	strtcc	r0, [sp], -r0, lsl #2
    3f88:	0000002c 	andeq	r0, r0, ip, lsr #32
    3f8c:	00001ae0 	andeq	r1, r0, r0, ror #21
    3f90:	00001ad8 	ldrdeq	r1, [r0], -r8
    3f94:	000ad01d 	andeq	sp, sl, sp, lsl r0
    3f98:	0b2e0100 	bleq	b843a0 <__bss_end__+0xb79938>
    3f9c:	000000c2 	andeq	r0, r0, r2, asr #1
    3fa0:	00001b28 	andeq	r1, r0, r8, lsr #22
    3fa4:	00001b1a 	andeq	r1, r0, sl, lsl fp
    3fa8:	0000ad0e 	andeq	sl, r0, lr, lsl #26
    3fac:	0007d800 	andeq	sp, r7, r0, lsl #16
    3fb0:	bc030500 	cfstr32lt	mvfx0, [r3], {-0}
    3fb4:	0f0000a5 	svceq	0x000000a5
    3fb8:	00009830 	andeq	r9, r0, r0, lsr r8
    3fbc:	000008bc 			; <UNDEFINED> instruction: 0x000008bc
    3fc0:	0000077e 	andeq	r0, r0, lr, ror r7
    3fc4:	05500110 	ldrbeq	r0, [r0, #-272]	; 0xfffffef0
    3fc8:	009e7803 	addseq	r7, lr, r3, lsl #16
    3fcc:	51011000 	mrspl	r1, (UNDEF: 1)
    3fd0:	a4240305 	strtge	r0, [r4], #-773	; 0xfffffcfb
    3fd4:	01100000 	tsteq	r0, r0
    3fd8:	bc030552 	cfstr32lt	mvfx0, [r3], {82}	; 0x52
    3fdc:	100000a5 	andne	r0, r0, r5, lsr #1
    3fe0:	08025301 	stmdaeq	r2, {r0, r8, r9, ip, lr}
    3fe4:	7d021030 	stcvc	0, cr1, [r2, #-192]	; 0xffffff40
    3fe8:	30030500 	andcc	r0, r3, r0, lsl #10
    3fec:	000000a4 	andeq	r0, r0, r4, lsr #1
    3ff0:	00983411 	addseq	r3, r8, r1, lsl r4
    3ff4:	0008c800 	andeq	ip, r8, r0, lsl #16
    3ff8:	98580f00 	ldmdals	r8, {r8, r9, sl, fp}^
    3ffc:	08bc0000 	ldmeq	ip!, {}	; <UNPREDICTABLE>
    4000:	07be0000 	ldreq	r0, [lr, r0]!
    4004:	01100000 	tsteq	r0, r0
    4008:	3c030550 	cfstr32cc	mvfx0, [r3], {80}	; 0x50
    400c:	100000a4 	andne	r0, r0, r4, lsr #1
    4010:	03055101 	movweq	r5, #20737	; 0x5101
    4014:	0000a424 	andeq	sl, r0, r4, lsr #8
    4018:	05520110 	ldrbeq	r0, [r2, #-272]	; 0xfffffef0
    401c:	00a5bc03 	adceq	fp, r5, r3, lsl #24
    4020:	53011000 	movwpl	r1, #4096	; 0x1000
    4024:	10340802 	eorsne	r0, r4, r2, lsl #16
    4028:	03007d02 	movweq	r7, #3330	; 0xd02
    402c:	005001f3 	ldrsheq	r0, [r0], #-19	; 0xffffffed
    4030:	00985c11 	addseq	r5, r8, r1, lsl ip
    4034:	0008c800 	andeq	ip, r8, r0, lsl #16
    4038:	7e120000 	cdpvc	0, 1, cr0, cr2, cr0, {0}
    403c:	d8000000 	stmdale	r0, {}	; <UNPREDICTABLE>
    4040:	13000007 	movwne	r0, #7
    4044:	0000002c 	andeq	r0, r0, ip, lsr #32
    4048:	c8050016 	stmdagt	r5, {r1, r2, r4}
    404c:	1f000007 	svcne	0x00000007
    4050:	00000b5d 	andeq	r0, r0, sp, asr fp
    4054:	8a072a01 	bhi	1ce860 <__bss_end__+0x1c3df8>
    4058:	c8000000 	stmdagt	r0, {}	; <UNPREDICTABLE>
    405c:	10000097 	mulne	r0, r7, r0
    4060:	01000000 	mrseq	r0, (UNDEF: 0)
    4064:	0ab11f9c 	beq	fec4bedc <__bss_end__+0xfec41474>
    4068:	29010000 	stmdbcs	r1, {}	; <UNPREDICTABLE>
    406c:	00008a07 	andeq	r8, r0, r7, lsl #20
    4070:	0097b800 	addseq	fp, r7, r0, lsl #16
    4074:	00001000 	andeq	r1, r0, r0
    4078:	1f9c0100 	svcne	0x009c0100
    407c:	00000b12 	andeq	r0, r0, r2, lsl fp
    4080:	8a072801 	bhi	1ce08c <__bss_end__+0x1c3624>
    4084:	a8000000 	stmdage	r0, {}	; <UNPREDICTABLE>
    4088:	10000097 	mulne	r0, r7, r0
    408c:	01000000 	mrseq	r0, (UNDEF: 0)
    4090:	0ae8209c 	beq	ffa0c308 <__bss_end__+0xffa018a0>
    4094:	10010000 	andne	r0, r1, r0
    4098:	00002c18 	andeq	r2, r0, r8, lsl ip
    409c:	08540300 	ldmdaeq	r4, {r8, r9}^
    40a0:	78210000 	stmdavc	r1!, {}	; <UNPREDICTABLE>
    40a4:	29100100 	ldmdbcs	r0, {r8}
    40a8:	0000002c 	andeq	r0, r0, ip, lsr #32
    40ac:	01006e21 	tsteq	r0, r1, lsr #28
    40b0:	002c3510 	eoreq	r3, ip, r0, lsl r5
    40b4:	ad0e0000 	stcge	0, cr0, [lr, #-0]
    40b8:	18000000 	stmdane	r0, {}	; <UNPREDICTABLE>
    40bc:	05000005 	streq	r0, [r0, #-5]
    40c0:	00a60c03 	adceq	r0, r6, r3, lsl #24
    40c4:	33200000 	nopcc	{0}	; <UNPREDICTABLE>
    40c8:	0100000b 	tsteq	r0, fp
    40cc:	002c180d 	eoreq	r1, ip, sp, lsl #16
    40d0:	70030000 	andvc	r0, r3, r0
    40d4:	21000008 	tstcs	r0, r8
    40d8:	0d010078 	stceq	0, cr0, [r1, #-480]	; 0xfffffe20
    40dc:	00002c29 	andeq	r2, r0, r9, lsr #24
    40e0:	52200000 	eorpl	r0, r0, #0, 0
    40e4:	0100000b 	tsteq	r0, fp
    40e8:	002c1807 	eoreq	r1, ip, r7, lsl #16
    40ec:	96030000 	strls	r0, [r3], -r0
    40f0:	21000008 	tstcs	r0, r8
    40f4:	07010078 	smlsdxeq	r1, r8, r0, r0
    40f8:	00002c2c 	andeq	r2, r0, ip, lsr #24
    40fc:	006e2100 	rsbeq	r2, lr, r0, lsl #2
    4100:	2c380701 	ldccs	7, cr0, [r8], #-4
    4104:	00000000 	andeq	r0, r0, r0
    4108:	000b0420 	andeq	r0, fp, r0, lsr #8
    410c:	18040100 	stmdane	r4, {r8}
    4110:	0000005d 	andeq	r0, r0, sp, asr r0
    4114:	0008bc03 	andeq	fp, r8, r3, lsl #24
    4118:	00782100 	rsbseq	r2, r8, r0, lsl #2
    411c:	5d290401 	cfstrspl	mvf0, [r9, #-4]!
    4120:	21000000 	mrscs	r0, (UNDEF: 0)
    4124:	04010079 	streq	r0, [r1], #-121	; 0xffffff87
    4128:	00005d35 	andeq	r5, r0, r5, lsr sp
    412c:	13220000 			; <UNDEFINED> instruction: 0x13220000
    4130:	13000006 	movwne	r0, #6
    4134:	02000006 	andeq	r0, r0, #6, 0
    4138:	61220628 			; <UNDEFINED> instruction: 0x61220628
    413c:	61000000 	mrsvs	r0, (UNDEF: 0)
    4140:	02000000 	andeq	r0, r0, #0, 0
    4144:	6e22066e 	cfmadda32vs	mvax3, mvax0, mvfx2, mvfx14
    4148:	6e00000b 	cdpvs	0, 0, cr0, cr0, cr11, {0}
    414c:	0200000b 	andeq	r0, r0, #11, 0
    4150:	a122061d 			; <UNDEFINED> instruction: 0xa122061d
    4154:	a1000000 	mrsge	r0, (UNDEF: 0)
    4158:	02000000 	andeq	r0, r0, #0, 0
    415c:	490007f7 	stmdbmi	r0, {r0, r1, r2, r4, r5, r6, r7, r8, r9, sl}
    4160:	04000001 	streq	r0, [r0], #-1
    4164:	00151f00 	andseq	r1, r5, r0, lsl #30
    4168:	e2010400 	and	r0, r1, #0, 8
    416c:	0c000004 	stceq	0, cr0, [r0], {4}
    4170:	00000bab 	andeq	r0, r0, fp, lsr #23
    4174:	000005c3 	andeq	r0, r0, r3, asr #11
    4178:	00009b58 	andeq	r9, r0, r8, asr fp
    417c:	0000003c 	andeq	r0, r0, ip, lsr r0
    4180:	000020a6 	andeq	r2, r0, r6, lsr #1
    4184:	69050402 	stmdbvs	r5, {r1, sl}
    4188:	0300746e 	movweq	r7, #1134	; 0x46e
    418c:	00df0704 	sbcseq	r0, pc, r4, lsl #14
    4190:	01030000 	mrseq	r0, (UNDEF: 3)
    4194:	00009506 	andeq	r9, r0, r6, lsl #10
    4198:	05020300 	streq	r0, [r2, #-768]	; 0xfffffd00
    419c:	0000016f 	andeq	r0, r0, pc, ror #2
    41a0:	5a050403 	bpl	1451b4 <__bss_end__+0x13a74c>
    41a4:	03000001 	movweq	r0, #1
    41a8:	01550508 	cmpeq	r5, r8, lsl #10
    41ac:	01030000 	mrseq	r0, (UNDEF: 3)
    41b0:	00009308 	andeq	r9, r0, r8, lsl #6
    41b4:	07020300 	streq	r0, [r2, -r0, lsl #6]
    41b8:	0000006e 	andeq	r0, r0, lr, rrx
    41bc:	da070403 	ble	1c51d0 <__bss_end__+0x1ba768>
    41c0:	03000000 	movweq	r0, #0
    41c4:	00d50708 	sbcseq	r0, r5, r8, lsl #14
    41c8:	25040000 	strcs	r0, [r4, #-0]
    41cc:	7a000000 	bvc	41d4 <__code_start__-0x3e2c>
    41d0:	05000000 	streq	r0, [r0, #-0]
    41d4:	00000025 	andeq	r0, r0, r5, lsr #32
    41d8:	01630600 	cmneq	r3, r0, lsl #12
    41dc:	1c020000 	stcne	0, cr0, [r2], {-0}
    41e0:	0000860e 	andeq	r8, r0, lr, lsl #12
    41e4:	6b040700 	blvs	105dec <__bss_end__+0xfb384>
    41e8:	04000000 	streq	r0, [r0], #-0
    41ec:	00000025 	andeq	r0, r0, r5, lsr #32
    41f0:	0000009b 	muleq	r0, fp, r0
    41f4:	00009b05 	andeq	r9, r0, r5, lsl #22
    41f8:	04070000 	streq	r0, [r7], #-0
    41fc:	000000a8 	andeq	r0, r0, r8, lsr #1
    4200:	9c080103 	stflss	f0, [r8], {3}
    4204:	08000000 	stmdaeq	r0, {}	; <UNPREDICTABLE>
    4208:	000000a1 	andeq	r0, r0, r1, lsr #1
    420c:	00065106 	andeq	r5, r6, r6, lsl #2
    4210:	0e210200 	cdpeq	2, 2, cr0, cr1, cr0, {0}
    4214:	000000b9 	strheq	r0, [r0], -r9
    4218:	008c0407 	addeq	r0, ip, r7, lsl #8
    421c:	7a090000 	bvc	244224 <__bss_end__+0x2397bc>
    4220:	01000000 	mrseq	r0, (UNDEF: 0)
    4224:	03050706 	movweq	r0, #22278	; 0x5706
    4228:	0000a630 	andeq	sl, r0, r0, lsr r6
    422c:	000b9e0a 	andeq	r9, fp, sl, lsl #28
    4230:	060b0100 	streq	r0, [fp], -r0, lsl #2
    4234:	00009b84 	andeq	r9, r0, r4, lsl #23
    4238:	00000010 	andeq	r0, r0, r0, lsl r0
    423c:	00f19c01 	rscseq	r9, r1, r1, lsl #24
    4240:	660b0000 	strvs	r0, [fp], -r0
    4244:	0b010070 	bleq	4440c <__bss_end__+0x399a4>
    4248:	00008619 	andeq	r8, r0, r9, lsl r6
    424c:	00500100 	subseq	r0, r0, r0, lsl #2
    4250:	000b6e0c 	andeq	r6, fp, ip, lsl #28
    4254:	06080100 	streq	r0, [r8], -r0, lsl #2
    4258:	00009b6c 	andeq	r9, r0, ip, ror #22
    425c:	00000018 	andeq	r0, r0, r8, lsl r0
    4260:	8d0d9c01 	stchi	12, cr9, [sp, #-4]
    4264:	0100000b 	tsteq	r0, fp
    4268:	00250c03 	eoreq	r0, r5, r3, lsl #24
    426c:	9b580000 	blls	1604274 <__bss_end__+0x15f980c>
    4270:	00140000 	andseq	r0, r4, r0
    4274:	9c010000 	stcls	0, cr0, [r1], {-0}
    4278:	00000140 	andeq	r0, r0, r0, asr #2
    427c:	0100630e 	tsteq	r0, lr, lsl #6
    4280:	00252103 	eoreq	r2, r5, r3, lsl #2
    4284:	1b8c0000 	blne	fe30428c <__bss_end__+0xfe2f9824>
    4288:	1b880000 	blne	fe204290 <__bss_end__+0xfe1f9828>
    428c:	640f0000 	strvs	r0, [pc], #-0	; 4294 <__code_start__-0x3d6c>
    4290:	4000009b 	mulmi	r0, fp, r0
    4294:	10000001 	andne	r0, r0, r1
    4298:	74025001 	strvc	r5, [r2], #-1
    429c:	11000000 	mrsne	r0, (UNDEF: 0)
    42a0:	00000a7f 	andeq	r0, r0, pc, ror sl
    42a4:	00000a7f 	andeq	r0, r0, pc, ror sl
    42a8:	00064202 	andeq	r4, r6, r2, lsl #4
    42ac:	00000137 	andeq	r0, r0, r7, lsr r1
    42b0:	162e0004 	strtne	r0, [lr], -r4
    42b4:	01040000 	mrseq	r0, (UNDEF: 4)
    42b8:	000004e2 	andeq	r0, r0, r2, ror #9
    42bc:	000bc10c 	andeq	ip, fp, ip, lsl #2
    42c0:	0005c300 	andeq	ip, r5, r0, lsl #6
    42c4:	009b9400 	addseq	r9, fp, r0, lsl #8
    42c8:	00003400 	andeq	r3, r0, r0, lsl #8
    42cc:	00216800 	eoreq	r6, r1, r0, lsl #16
    42d0:	05040200 	streq	r0, [r4, #-512]	; 0xfffffe00
    42d4:	00746e69 	rsbseq	r6, r4, r9, ror #28
    42d8:	df070403 	svcle	0x00070403
    42dc:	03000000 	movweq	r0, #0
    42e0:	00950601 	addseq	r0, r5, r1, lsl #12
    42e4:	02030000 	andeq	r0, r3, #0, 0
    42e8:	00016f05 	andeq	r6, r1, r5, lsl #30
    42ec:	05040300 	streq	r0, [r4, #-768]	; 0xfffffd00
    42f0:	0000015a 	andeq	r0, r0, sl, asr r1
    42f4:	55050803 	strpl	r0, [r5, #-2051]	; 0xfffff7fd
    42f8:	03000001 	movweq	r0, #1
    42fc:	00930801 	addseq	r0, r3, r1, lsl #16
    4300:	02030000 	andeq	r0, r3, #0, 0
    4304:	00006e07 	andeq	r6, r0, r7, lsl #28
    4308:	07040300 	streq	r0, [r4, -r0, lsl #6]
    430c:	000000da 	ldrdeq	r0, [r0], -sl
    4310:	d5070803 	strle	r0, [r7, #-2051]	; 0xfffff7fd
    4314:	04000000 	streq	r0, [r0], #-0
    4318:	00000025 	andeq	r0, r0, r5, lsr #32
    431c:	0000007a 	andeq	r0, r0, sl, ror r0
    4320:	00002505 	andeq	r2, r0, r5, lsl #10
    4324:	63060000 	movwvs	r0, #24576	; 0x6000
    4328:	02000001 	andeq	r0, r0, #1, 0
    432c:	00860e1c 	addeq	r0, r6, ip, lsl lr
    4330:	04070000 	streq	r0, [r7], #-0
    4334:	0000006b 	andeq	r0, r0, fp, rrx
    4338:	00002504 	andeq	r2, r0, r4, lsl #10
    433c:	00009b00 	andeq	r9, r0, r0, lsl #22
    4340:	009b0500 	addseq	r0, fp, r0, lsl #10
    4344:	07000000 	streq	r0, [r0, -r0]
    4348:	0000a804 	andeq	sl, r0, r4, lsl #16
    434c:	08010300 	stmdaeq	r1, {r8, r9}
    4350:	0000009c 	muleq	r0, ip, r0
    4354:	0000a108 	andeq	sl, r0, r8, lsl #2
    4358:	06510600 	ldrbeq	r0, [r1], -r0, lsl #12
    435c:	21020000 	mrscs	r0, (UNDEF: 2)
    4360:	0000b90e 	andeq	fp, r0, lr, lsl #18
    4364:	8c040700 	stchi	7, cr0, [r4], {-0}
    4368:	09000000 	stmdbeq	r0, {}	; <UNPREDICTABLE>
    436c:	000006fc 	strdeq	r0, [r0], -ip
    4370:	34070401 	strcc	r0, [r7], #-1025	; 0xfffffbff
    4374:	94000001 	strls	r0, [r0], #-1
    4378:	3400009b 	strcc	r0, [r0], #-155	; 0xffffff65
    437c:	01000000 	mrseq	r0, (UNDEF: 0)
    4380:	0001349c 	muleq	r1, ip, r4
    4384:	0bbc0a00 	bleq	fef06b8c <__bss_end__+0xfeefc124>
    4388:	04010000 	streq	r0, [r1], #-0
    438c:	00013415 	andeq	r3, r1, r5, lsl r4
    4390:	0b500100 	bleq	1404798 <__bss_end__+0x13f9d30>
    4394:	00637273 	rsbeq	r7, r3, r3, ror r2
    4398:	9b270401 	blls	9c53a4 <__bss_end__+0x9ba93c>
    439c:	ae000000 	cdpge	0, 0, cr0, cr0, cr0, {0}
    43a0:	aa00001b 	bge	4414 <__code_start__-0x3bec>
    43a4:	0c00001b 	stceq	0, cr0, [r0], {27}
    43a8:	01003173 	tsteq	r0, r3, ror r1
    43ac:	01340b05 	teqeq	r4, r5, lsl #22
    43b0:	1bd90000 	blne	ff6443b8 <__bss_end__+0xff639950>
    43b4:	1bcf0000 	blne	ff3c43bc <__bss_end__+0xff3b9954>
    43b8:	730c0000 	movwvc	r0, #49152	; 0xc000
    43bc:	06010032 			; <UNDEFINED> instruction: 0x06010032
    43c0:	00009b11 	andeq	r9, r0, r1, lsl fp
    43c4:	001c1e00 	andseq	r1, ip, r0, lsl #28
    43c8:	001c1a00 	andseq	r1, ip, r0, lsl #20
    43cc:	00630c00 	rsbeq	r0, r3, r0, lsl #24
    43d0:	a10a0701 	tstge	sl, r1, lsl #14
    43d4:	42000000 	andmi	r0, r0, #0, 0
    43d8:	3e00001c 	mcrcc	0, 0, r0, cr0, cr12, {0}
    43dc:	0000001c 	andeq	r0, r0, ip, lsl r0
    43e0:	00a10407 	adceq	r0, r1, r7, lsl #8
    43e4:	f7000000 			; <UNDEFINED> instruction: 0xf7000000
    43e8:	04000000 	streq	r0, [r0], #-0
    43ec:	0016e400 	andseq	lr, r6, r0, lsl #8
    43f0:	e2010400 	and	r0, r1, #0, 8
    43f4:	0c000004 	stceq	0, cr0, [r0], {4}
    43f8:	00000bd1 	ldrdeq	r0, [r0], -r1
    43fc:	000005c3 	andeq	r0, r0, r3, asr #11
    4400:	00009bc8 	andeq	r9, r0, r8, asr #23
    4404:	0000002c 	andeq	r0, r0, ip, lsr #32
    4408:	00002276 	andeq	r2, r0, r6, ror r2
    440c:	69050402 	stmdbvs	r5, {r1, sl}
    4410:	0300746e 	movweq	r7, #1134	; 0x46e
    4414:	00df0704 	sbcseq	r0, pc, r4, lsl #14
    4418:	01030000 	mrseq	r0, (UNDEF: 3)
    441c:	00009506 	andeq	r9, r0, r6, lsl #10
    4420:	05020300 	streq	r0, [r2, #-768]	; 0xfffffd00
    4424:	0000016f 	andeq	r0, r0, pc, ror #2
    4428:	5a050403 	bpl	14543c <__bss_end__+0x13a9d4>
    442c:	03000001 	movweq	r0, #1
    4430:	01550508 	cmpeq	r5, r8, lsl #10
    4434:	01030000 	mrseq	r0, (UNDEF: 3)
    4438:	00009308 	andeq	r9, r0, r8, lsl #6
    443c:	07020300 	streq	r0, [r2, -r0, lsl #6]
    4440:	0000006e 	andeq	r0, r0, lr, rrx
    4444:	da070403 	ble	1c5458 <__bss_end__+0x1ba9f0>
    4448:	03000000 	movweq	r0, #0
    444c:	00d50708 	sbcseq	r0, r5, r8, lsl #14
    4450:	25040000 	strcs	r0, [r4, #-0]
    4454:	7a000000 	bvc	445c <__code_start__-0x3ba4>
    4458:	05000000 	streq	r0, [r0, #-0]
    445c:	00000025 	andeq	r0, r0, r5, lsr #32
    4460:	01630600 	cmneq	r3, r0, lsl #12
    4464:	1c020000 	stcne	0, cr0, [r2], {-0}
    4468:	0000860e 	andeq	r8, r0, lr, lsl #12
    446c:	6b040700 	blvs	106074 <__bss_end__+0xfb60c>
    4470:	04000000 	streq	r0, [r0], #-0
    4474:	00000025 	andeq	r0, r0, r5, lsr #32
    4478:	0000009b 	muleq	r0, fp, r0
    447c:	00009b05 	andeq	r9, r0, r5, lsl #22
    4480:	04070000 	streq	r0, [r7], #-0
    4484:	000000a8 	andeq	r0, r0, r8, lsr #1
    4488:	9c080103 	stflss	f0, [r8], {3}
    448c:	08000000 	stmdaeq	r0, {}	; <UNPREDICTABLE>
    4490:	000000a1 	andeq	r0, r0, r1, lsr #1
    4494:	00065106 	andeq	r5, r6, r6, lsl #2
    4498:	0e210200 	cdpeq	2, 2, cr0, cr1, cr0, {0}
    449c:	000000b9 	strheq	r0, [r0], -r9
    44a0:	008c0407 	addeq	r0, ip, r7, lsl #8
    44a4:	03090000 	movweq	r0, #36864	; 0x9000
    44a8:	01000007 	tsteq	r0, r7
    44ac:	00250503 	eoreq	r0, r5, r3, lsl #10
    44b0:	9bc80000 	blls	ff2044b8 <__bss_end__+0xff1f9a50>
    44b4:	002c0000 	eoreq	r0, ip, r0
    44b8:	9c010000 	stcls	0, cr0, [r1], {-0}
    44bc:	0100610a 	tsteq	r0, sl, lsl #2
    44c0:	009b1803 	addseq	r1, fp, r3, lsl #16
    44c4:	1c640000 	stclne	0, cr0, [r4], #-0
    44c8:	1c600000 	stclne	0, cr0, [r0], #-0
    44cc:	620a0000 	andvs	r0, sl, #0, 0
    44d0:	27030100 	strcs	r0, [r3, -r0, lsl #2]
    44d4:	0000009b 	muleq	r0, fp, r0
    44d8:	00001c86 	andeq	r1, r0, r6, lsl #25
    44dc:	00001c82 	andeq	r1, r0, r2, lsl #25
    44e0:	010f0000 	mrseq	r0, CPSR
    44e4:	00040000 	andeq	r0, r4, r0
    44e8:	00001773 	andeq	r1, r0, r3, ror r7
    44ec:	04e20104 	strbteq	r0, [r2], #260	; 0x104
    44f0:	e10c0000 	mrs	r0, (UNDEF: 12)
    44f4:	c300000b 	movwgt	r0, #11
    44f8:	f4000005 	vst4.8	{d0-d3}, [r0], r5
    44fc:	2000009b 	mulcs	r0, fp, r0
    4500:	3d000000 	stccc	0, cr0, [r0, #-0]
    4504:	02000023 	andeq	r0, r0, #35, 0	; 0x23
    4508:	6e690504 	cdpvs	5, 6, cr0, cr9, cr4, {0}
    450c:	04030074 	streq	r0, [r3], #-116	; 0xffffff8c
    4510:	0000df07 	andeq	sp, r0, r7, lsl #30
    4514:	06010300 	streq	r0, [r1], -r0, lsl #6
    4518:	00000095 	muleq	r0, r5, r0
    451c:	6f050203 	svcvs	0x00050203
    4520:	03000001 	movweq	r0, #1
    4524:	015a0504 	cmpeq	sl, r4, lsl #10
    4528:	08030000 	stmdaeq	r3, {}	; <UNPREDICTABLE>
    452c:	00015505 	andeq	r5, r1, r5, lsl #10
    4530:	08010300 	stmdaeq	r1, {r8, r9}
    4534:	00000093 	muleq	r0, r3, r0
    4538:	6e070203 	cdpvs	2, 0, cr0, cr7, cr3, {0}
    453c:	03000000 	movweq	r0, #0
    4540:	00da0704 	sbcseq	r0, sl, r4, lsl #14
    4544:	08030000 	stmdaeq	r3, {}	; <UNPREDICTABLE>
    4548:	0000d507 	andeq	sp, r0, r7, lsl #10
    454c:	00250400 	eoreq	r0, r5, r0, lsl #8
    4550:	007a0000 	rsbseq	r0, sl, r0
    4554:	25050000 	strcs	r0, [r5, #-0]
    4558:	00000000 	andeq	r0, r0, r0
    455c:	00016306 	andeq	r6, r1, r6, lsl #6
    4560:	0e1c0200 	cdpeq	2, 1, cr0, cr12, cr0, {0}
    4564:	00000086 	andeq	r0, r0, r6, lsl #1
    4568:	006b0407 	rsbeq	r0, fp, r7, lsl #8
    456c:	25040000 	strcs	r0, [r4, #-0]
    4570:	9b000000 	blls	4578 <__code_start__-0x3a88>
    4574:	05000000 	streq	r0, [r0, #-0]
    4578:	0000009b 	muleq	r0, fp, r0
    457c:	a8040700 	stmdage	r4, {r8, r9, sl}
    4580:	03000000 	movweq	r0, #0
    4584:	009c0801 	addseq	r0, ip, r1, lsl #16
    4588:	a1080000 	mrsge	r0, (UNDEF: 8)
    458c:	06000000 	streq	r0, [r0], -r0
    4590:	00000651 	andeq	r0, r0, r1, asr r6
    4594:	b90e2102 	stmdblt	lr, {r1, r8, sp}
    4598:	07000000 	streq	r0, [r0, -r0]
    459c:	00008c04 	andeq	r8, r0, r4, lsl #24
    45a0:	06cd0900 	strbeq	r0, [sp], r0, lsl #18
    45a4:	03010000 	movweq	r0, #4096	; 0x1000
    45a8:	00010c07 	andeq	r0, r1, r7, lsl #24
    45ac:	009bf400 	addseq	pc, fp, r0, lsl #8
    45b0:	00002000 	andeq	r2, r0, r0
    45b4:	0c9c0100 	ldfeqs	f0, [ip], {0}
    45b8:	0a000001 	beq	45c4 <__code_start__-0x3a3c>
    45bc:	01003173 	tsteq	r0, r3, ror r1
    45c0:	010c1503 	tsteq	ip, r3, lsl #10
    45c4:	50010000 	andpl	r0, r1, r0
    45c8:	0032730b 	eorseq	r7, r2, fp, lsl #6
    45cc:	9b260301 	blls	9851d8 <__bss_end__+0x97a770>
    45d0:	aa000000 	bge	45d8 <__code_start__-0x3a28>
    45d4:	a400001c 	strge	r0, [r0], #-28	; 0xffffffe4
    45d8:	0c00001c 	stceq	0, cr0, [r0], {28}
    45dc:	04010073 	streq	r0, [r1], #-115	; 0xffffff8d
    45e0:	00010c14 	andeq	r0, r1, r4, lsl ip
    45e4:	001cdb00 	andseq	sp, ip, r0, lsl #22
    45e8:	001cd500 	andseq	sp, ip, r0, lsl #10
    45ec:	04070000 	streq	r0, [r7], #-0
    45f0:	000000a1 	andeq	r0, r0, r1, lsr #1
    45f4:	00014e00 	andeq	r4, r1, r0, lsl #28
    45f8:	29000400 	stmdbcs	r0, {sl}
    45fc:	04000018 	streq	r0, [r0], #-24	; 0xffffffe8
    4600:	0004e201 	andeq	lr, r4, r1, lsl #4
    4604:	0bf10c00 	bleq	ffc4760c <__bss_end__+0xffc3cba4>
    4608:	05c30000 	strbeq	r0, [r3]
    460c:	00a00000 	adceq	r0, r0, r0
    4610:	00000000 	andeq	r0, r0, r0
    4614:	24020000 	strcs	r0, [r2], #-0
    4618:	04020000 	streq	r0, [r2], #-0
    461c:	746e6905 	strbtvc	r6, [lr], #-2309	; 0xfffff6fb
    4620:	05ac0300 	streq	r0, [ip, #768]!	; 0x300
    4624:	d1030000 	mrsle	r0, (UNDEF: 3)
    4628:	00003817 	andeq	r3, r0, r7, lsl r8
    462c:	07040400 	streq	r0, [r4, -r0, lsl #8]
    4630:	000000df 	ldrdeq	r0, [r0], -pc	; <UNPREDICTABLE>
    4634:	95060104 	strls	r0, [r6, #-260]	; 0xfffffefc
    4638:	04000000 	streq	r0, [r0], #-0
    463c:	016f0502 	cmneq	pc, r2, lsl #10
    4640:	04040000 	streq	r0, [r4], #-0
    4644:	00015a05 	andeq	r5, r1, r5, lsl #20
    4648:	05080400 	streq	r0, [r8, #-1024]	; 0xfffffc00
    464c:	00000155 	andeq	r0, r0, r5, asr r1
    4650:	93080104 	movwls	r0, #33028	; 0x8104
    4654:	05000000 	streq	r0, [r0, #-0]
    4658:	0000005b 	andeq	r0, r0, fp, asr r0
    465c:	6e070204 	cdpvs	2, 0, cr0, cr7, cr4, {0}
    4660:	04000000 	streq	r0, [r0], #-0
    4664:	00da0704 	sbcseq	r0, sl, r4, lsl #14
    4668:	08040000 	stmdaeq	r4, {}	; <UNPREDICTABLE>
    466c:	0000d507 	andeq	sp, r0, r7, lsl #10
    4670:	00250600 	eoreq	r0, r5, r0, lsl #12
    4674:	008b0000 	addeq	r0, fp, r0
    4678:	25070000 	strcs	r0, [r7, #-0]
    467c:	00000000 	andeq	r0, r0, r0
    4680:	00016308 	andeq	r6, r1, r8, lsl #6
    4684:	0e1c0200 	cdpeq	2, 1, cr0, cr12, cr0, {0}
    4688:	00000097 	muleq	r0, r7, r0
    468c:	007c0409 	rsbseq	r0, ip, r9, lsl #8
    4690:	25060000 	strcs	r0, [r6, #-0]
    4694:	ac000000 	stcge	0, cr0, [r0], {-0}
    4698:	07000000 	streq	r0, [r0, -r0]
    469c:	000000ac 	andeq	r0, r0, ip, lsr #1
    46a0:	b9040900 	stmdblt	r4, {r8, fp}
    46a4:	04000000 	streq	r0, [r0], #-0
    46a8:	009c0801 	addseq	r0, ip, r1, lsl #16
    46ac:	b2050000 	andlt	r0, r5, #0, 0
    46b0:	08000000 	stmdaeq	r0, {}	; <UNPREDICTABLE>
    46b4:	00000651 	andeq	r0, r0, r1, asr r6
    46b8:	ca0e2102 	bgt	38cac8 <__bss_end__+0x382060>
    46bc:	09000000 	stmdbeq	r0, {}	; <UNPREDICTABLE>
    46c0:	00009d04 	andeq	r9, r0, r4, lsl #26
    46c4:	071c0a00 	ldreq	r0, [ip, -r0, lsl #20]
    46c8:	04010000 	streq	r0, [r1], #-0
    46cc:	00002505 	andeq	r2, r0, r5, lsl #10
    46d0:	009c1400 	addseq	r1, ip, r0, lsl #8
    46d4:	00002c00 	andeq	r2, r0, r0, lsl #24
    46d8:	4b9c0100 	blmi	fe704ae0 <__bss_end__+0xfe6fa078>
    46dc:	0b000001 	bleq	46e8 <__code_start__-0x3918>
    46e0:	0031735f 	eorseq	r7, r1, pc, asr r3
    46e4:	ac190401 	cfldrsge	mvf0, [r9], {1}
    46e8:	0a000000 	beq	46f0 <__code_start__-0x3910>
    46ec:	0600001d 			; <UNDEFINED> instruction: 0x0600001d
    46f0:	0b00001d 	bleq	476c <__code_start__-0x3894>
    46f4:	0032735f 	eorseq	r7, r2, pc, asr r3
    46f8:	ac2a0401 	cfstrsge	mvf0, [sl], #-4
    46fc:	2f000000 	svccs	0x00000000
    4700:	2b00001d 	blcs	477c <__code_start__-0x3884>
    4704:	0b00001d 	bleq	4780 <__code_start__-0x3880>
    4708:	0401006e 	streq	r0, [r1], #-110	; 0xffffff92
    470c:	00002c36 	andeq	r2, r0, r6, lsr ip
    4710:	001d5600 	andseq	r5, sp, r0, lsl #12
    4714:	001d5000 	andseq	r5, sp, r0
    4718:	31730c00 	cmncc	r3, r0, lsl #24
    471c:	1a050100 	bne	144b24 <__bss_end__+0x13a0bc>
    4720:	0000014b 	andeq	r0, r0, fp, asr #2
    4724:	00001d89 	andeq	r1, r0, r9, lsl #27
    4728:	00001d81 	andeq	r1, r0, r1, lsl #27
    472c:	0032730c 	eorseq	r7, r2, ip, lsl #6
    4730:	4b2c0501 	blmi	b05b3c <__bss_end__+0xafb0d4>
    4734:	c5000001 	strgt	r0, [r0, #-1]
    4738:	bf00001d 	svclt	0x0000001d
    473c:	0000001d 	andeq	r0, r0, sp, lsl r0
    4740:	00620409 	rsbeq	r0, r2, r9, lsl #8
    4744:	ce000000 	cdpgt	0, 0, cr0, cr0, cr0, {0}
    4748:	04000000 	streq	r0, [r0], #-0
    474c:	0018dd00 	andseq	sp, r8, r0, lsl #26
    4750:	e2010400 	and	r0, r1, #0, 8
    4754:	0c000004 	stceq	0, cr0, [r0], {4}
    4758:	00000c02 	andeq	r0, r0, r2, lsl #24
    475c:	000005c3 	andeq	r0, r0, r3, asr #11
    4760:	00009c40 	andeq	r9, r0, r0, asr #24
    4764:	00000004 	andeq	r0, r0, r4
    4768:	00002527 	andeq	r2, r0, r7, lsr #10
    476c:	69050402 	stmdbvs	r5, {r1, sl}
    4770:	0300746e 	movweq	r7, #1134	; 0x46e
    4774:	00df0704 	sbcseq	r0, pc, r4, lsl #14
    4778:	01030000 	mrseq	r0, (UNDEF: 3)
    477c:	00009506 	andeq	r9, r0, r6, lsl #10
    4780:	05020300 	streq	r0, [r2, #-768]	; 0xfffffd00
    4784:	0000016f 	andeq	r0, r0, pc, ror #2
    4788:	5a050403 	bpl	14579c <__bss_end__+0x13ad34>
    478c:	03000001 	movweq	r0, #1
    4790:	01550508 	cmpeq	r5, r8, lsl #10
    4794:	01030000 	mrseq	r0, (UNDEF: 3)
    4798:	00009308 	andeq	r9, r0, r8, lsl #6
    479c:	07020300 	streq	r0, [r2, -r0, lsl #6]
    47a0:	0000006e 	andeq	r0, r0, lr, rrx
    47a4:	da070403 	ble	1c57b8 <__bss_end__+0x1bad50>
    47a8:	03000000 	movweq	r0, #0
    47ac:	00d50708 	sbcseq	r0, r5, r8, lsl #14
    47b0:	25040000 	strcs	r0, [r4, #-0]
    47b4:	7a000000 	bvc	47bc <__code_start__-0x3844>
    47b8:	05000000 	streq	r0, [r0, #-0]
    47bc:	00000025 	andeq	r0, r0, r5, lsr #32
    47c0:	01630600 	cmneq	r3, r0, lsl #12
    47c4:	1c020000 	stcne	0, cr0, [r2], {-0}
    47c8:	0000860e 	andeq	r8, r0, lr, lsl #12
    47cc:	6b040700 	blvs	1063d4 <__bss_end__+0xfb96c>
    47d0:	04000000 	streq	r0, [r0], #-0
    47d4:	00000025 	andeq	r0, r0, r5, lsr #32
    47d8:	0000009b 	muleq	r0, fp, r0
    47dc:	00009b05 	andeq	r9, r0, r5, lsl #22
    47e0:	04070000 	streq	r0, [r7], #-0
    47e4:	000000a8 	andeq	r0, r0, r8, lsr #1
    47e8:	9c080103 	stflss	f0, [r8], {3}
    47ec:	08000000 	stmdaeq	r0, {}	; <UNPREDICTABLE>
    47f0:	000000a1 	andeq	r0, r0, r1, lsr #1
    47f4:	00065106 	andeq	r5, r6, r6, lsl #2
    47f8:	0e210200 	cdpeq	2, 2, cr0, cr1, cr0, {0}
    47fc:	000000b9 	strheq	r0, [r0], -r9
    4800:	008c0407 	addeq	r0, ip, r7, lsl #8
    4804:	c3090000 	movwgt	r0, #36864	; 0x9000
    4808:	01000007 	tsteq	r0, r7
    480c:	9c400603 	mcrrls	6, 0, r0, r0, cr3
    4810:	00040000 	andeq	r0, r4, r0
    4814:	9c010000 	stcls	0, cr0, [r1], {-0}
    4818:	0003a500 	andeq	sl, r3, r0, lsl #10
    481c:	56000400 	strpl	r0, [r0], -r0, lsl #8
    4820:	04000019 	streq	r0, [r0], #-25	; 0xffffffe7
    4824:	00099f01 	andeq	r9, r9, r1, lsl #30
    4828:	0ca10c00 	stceq	12, cr0, [r1]
    482c:	094f0000 	stmdbeq	pc, {}^	; <UNPREDICTABLE>
    4830:	9c5c0000 	mrals	r0, ip, acc0
    4834:	011c0000 	tsteq	ip, r0
    4838:	25db0000 	ldrbcs	r0, [fp]
    483c:	04020000 	streq	r0, [r2], #-0
    4840:	746e6905 	strbtvc	r6, [lr], #-2309	; 0xfffff6fb
    4844:	07040300 	streq	r0, [r4, -r0, lsl #6]
    4848:	000000df 	ldrdeq	r0, [r0], -pc	; <UNPREDICTABLE>
    484c:	00002c04 	andeq	r2, r0, r4, lsl #24
    4850:	06010300 	streq	r0, [r1], -r0, lsl #6
    4854:	00000095 	muleq	r0, r5, r0
    4858:	6f050203 	svcvs	0x00050203
    485c:	03000001 	movweq	r0, #1
    4860:	015a0504 	cmpeq	sl, r4, lsl #10
    4864:	08030000 	stmdaeq	r3, {}	; <UNPREDICTABLE>
    4868:	00015505 	andeq	r5, r1, r5, lsl #10
    486c:	08010300 	stmdaeq	r1, {r8, r9}
    4870:	00000093 	muleq	r0, r3, r0
    4874:	6e070203 	cdpvs	2, 0, cr0, cr7, cr3, {0}
    4878:	05000000 	streq	r0, [r0, #-0]
    487c:	0000018c 	andeq	r0, r0, ip, lsl #3
    4880:	6e193403 	cfmulsvs	mvf3, mvf9, mvf3
    4884:	03000000 	movweq	r0, #0
    4888:	00da0704 	sbcseq	r0, sl, r4, lsl #14
    488c:	08030000 	stmdaeq	r3, {}	; <UNPREDICTABLE>
    4890:	0000d507 	andeq	sp, r0, r7, lsl #10
    4894:	08010300 	stmdaeq	r1, {r8, r9}
    4898:	0000009c 	muleq	r0, ip, r0
    489c:	54010706 	strpl	r0, [r1], #-1798	; 0xfffff8fa
    48a0:	04000000 	streq	r0, [r0], #-0
    48a4:	00c20e0c 	sbceq	r0, r2, ip, lsl #28
    48a8:	89070000 	stmdbhi	r7, {}	; <UNPREDICTABLE>
    48ac:	0000000a 	andeq	r0, r0, sl
    48b0:	0008c107 	andeq	ip, r8, r7, lsl #2
    48b4:	04070100 	streq	r0, [r7], #-256	; 0xffffff00
    48b8:	04000009 	streq	r0, [r0], #-9
    48bc:	00091307 	andeq	r1, r9, r7, lsl #6
    48c0:	22070500 	andcs	r0, r7, #0, 10
    48c4:	06000009 	streq	r0, [r0], -r9
    48c8:	00093107 	andeq	r3, r9, r7, lsl #2
    48cc:	52070700 	andpl	r0, r7, #0, 14
    48d0:	0300000a 	movweq	r0, #10
    48d4:	00094007 	andeq	r4, r9, r7
    48d8:	05000200 	streq	r0, [r0, #-512]	; 0xfffffe00
    48dc:	00000c86 	andeq	r0, r0, r6, lsl #25
    48e0:	83031504 	movwhi	r1, #13572	; 0x3504
    48e4:	08000000 	stmdaeq	r0, {}	; <UNPREDICTABLE>
    48e8:	00000c31 	andeq	r0, r0, r1, lsr ip
    48ec:	33171d01 	tstcc	r7, #64	; 0x40
    48f0:	1c000000 	stcne	0, cr0, [r0], {-0}
    48f4:	08202000 	stmdaeq	r0!, {sp}
    48f8:	00000c27 	andeq	r0, r0, r7, lsr #24
    48fc:	33171e01 	tstcc	r7, #1, 28
    4900:	28000000 	stmdacs	r0, {}	; <UNPREDICTABLE>
    4904:	08202000 	stmdaeq	r0!, {sp}
    4908:	00000c92 	muleq	r0, r2, ip
    490c:	33171f01 	tstcc	r7, #1, 30
    4910:	34000000 	strcc	r0, [r0], #-0
    4914:	09202000 	stmdbeq	r0!, {sp}
    4918:	00000c50 	andeq	r0, r0, r0, asr ip
    491c:	25055501 	strcs	r5, [r5, #-1281]	; 0xfffffaff
    4920:	44000000 	strmi	r0, [r0], #-0
    4924:	3400009d 	strcc	r0, [r0], #-157	; 0xffffff63
    4928:	01000000 	mrseq	r0, (UNDEF: 0)
    492c:	00016e9c 	muleq	r1, ip, lr
    4930:	69700a00 	ldmdbvs	r0!, {r9, fp}^
    4934:	5501006e 	strpl	r0, [r1, #-110]	; 0xffffff92
    4938:	00002c18 	andeq	r2, r0, r8, lsl ip
    493c:	001df800 	andseq	pc, sp, r0, lsl #16
    4940:	001df000 	andseq	pc, sp, r0
    4944:	0c9c0b00 	vldmiaeq	ip, {d0-d-1}
    4948:	58010000 	stmdapl	r1, {}	; <UNPREDICTABLE>
    494c:	00002c0e 	andeq	r2, r0, lr, lsl #24
    4950:	001e3800 	andseq	r3, lr, r0, lsl #16
    4954:	001e3200 	andseq	r3, lr, r0, lsl #4
    4958:	666f0c00 	strbtvs	r0, [pc], -r0, lsl #24
    495c:	59010066 	stmdbpl	r1, {r1, r2, r5, r6}
    4960:	00002c0e 	andeq	r2, r0, lr, lsl #24
    4964:	001e7800 	andseq	r7, lr, r0, lsl #16
    4968:	001e7600 	andseq	r7, lr, r0, lsl #12
    496c:	9d600d00 	stclls	13, cr0, [r0, #-0]
    4970:	03900000 	orrseq	r0, r0, #0, 0
    4974:	010e0000 	mrseq	r0, (UNDEF: 14)
    4978:	01f30b50 	mvnseq	r0, r0, asr fp
    497c:	23253550 			; <UNDEFINED> instruction: 0x23253550
    4980:	818080b4 	strhhi	r8, [r0, r4]
    4984:	0f000002 	svceq	0x00000002
    4988:	00000c3b 	andeq	r0, r0, fp, lsr ip
    498c:	28064e01 	stmdacs	r6, {r0, r9, sl, fp, lr}
    4990:	1c00009d 	stcne	0, cr0, [r0], {157}	; 0x9d
    4994:	01000000 	mrseq	r0, (UNDEF: 0)
    4998:	0001c99c 	muleq	r1, ip, r9
    499c:	69700a00 	ldmdbvs	r0!, {r9, fp}^
    49a0:	4e01006e 	cdpmi	0, 0, cr0, cr1, cr14, {3}
    49a4:	00002c1a 	andeq	r2, r0, sl, lsl ip
    49a8:	001e9300 	andseq	r9, lr, r0, lsl #6
    49ac:	001e8b00 	andseq	r8, lr, r0, lsl #22
    49b0:	00760a00 	rsbseq	r0, r6, r0, lsl #20
    49b4:	2c284e01 	stccs	14, cr4, [r8], #-4
    49b8:	d5000000 	strle	r0, [r0, #-0]
    49bc:	cd00001e 	stcgt	0, cr0, [r0, #-120]	; 0xffffff88
    49c0:	1000001e 	andne	r0, r0, lr, lsl r0
    49c4:	00009d38 	andeq	r9, r0, r8, lsr sp
    49c8:	00000251 	andeq	r0, r0, r1, asr r2
    49cc:	000001bf 			; <UNDEFINED> instruction: 0x000001bf
    49d0:	0350010e 	cmpeq	r0, #-2147483645	; 0x80000003
    49d4:	005001f3 	ldrsheq	r0, [r0], #-19	; 0xffffffed
    49d8:	009d4011 	addseq	r4, sp, r1, lsl r0
    49dc:	00020a00 	andeq	r0, r2, r0, lsl #20
    49e0:	5a0f0000 	bpl	3c49e8 <__bss_end__+0x3b9f80>
    49e4:	0100000c 	tsteq	r0, ip
    49e8:	9d180649 	ldcls	6, cr0, [r8, #-292]	; 0xfffffedc
    49ec:	00100000 	andseq	r0, r0, r0
    49f0:	9c010000 	stcls	0, cr0, [r1], {-0}
    49f4:	0000020a 	andeq	r0, r0, sl, lsl #4
    49f8:	6e69700a 	cdpvs	0, 6, cr7, cr9, cr10, {0}
    49fc:	1e490100 	dvfnee	f0, f1, f0
    4a00:	0000002c 	andeq	r0, r0, ip, lsr #32
    4a04:	00001f13 	andeq	r1, r0, r3, lsl pc
    4a08:	00001f0f 	andeq	r1, r0, pc, lsl #30
    4a0c:	009d240d 	addseq	r2, sp, sp, lsl #8
    4a10:	0002d900 	andeq	sp, r2, r0, lsl #18
    4a14:	50010e00 	andpl	r0, r1, r0, lsl #28
    4a18:	5001f303 	andpl	pc, r1, r3, lsl #6
    4a1c:	0151010e 	cmpeq	r1, lr, lsl #2
    4a20:	0f000030 	svceq	0x00000030
    4a24:	00000c69 	andeq	r0, r0, r9, ror #24
    4a28:	f4064201 	vst1.8	{d4-d7}, [r6], r1
    4a2c:	2400009c 	strcs	r0, [r0], #-156	; 0xffffff64
    4a30:	01000000 	mrseq	r0, (UNDEF: 0)
    4a34:	0002519c 	muleq	r2, ip, r1
    4a38:	69700a00 	ldmdbvs	r0!, {r9, fp}^
    4a3c:	4201006e 	andmi	r0, r1, #110, 0	; 0x6e
    4a40:	00002c1c 	andeq	r2, r0, ip, lsl ip
    4a44:	001f3800 	andseq	r3, pc, r0, lsl #16
    4a48:	001f3400 	andseq	r3, pc, r0, lsl #8
    4a4c:	9d100d00 	ldcls	13, cr0, [r0, #-0]
    4a50:	039c0000 	orrseq	r0, ip, #0, 0
    4a54:	010e0000 	mrseq	r0, (UNDEF: 14)
    4a58:	280c0550 	stmdacs	ip, {r4, r6, r8, sl}
    4a5c:	0e202000 	cdpeq	0, 2, cr2, cr0, cr0, {0}
    4a60:	31055101 	tstcc	r5, r1, lsl #2
    4a64:	245001f3 	ldrbcs	r0, [r0], #-499	; 0xfffffe0d
    4a68:	a80f0000 	stmdage	pc, {}	; <UNPREDICTABLE>
    4a6c:	0100000c 	tsteq	r0, ip
    4a70:	9cd0063b 	ldclls	6, cr0, [r0], {59}	; 0x3b
    4a74:	00240000 	eoreq	r0, r4, r0
    4a78:	9c010000 	stcls	0, cr0, [r1], {-0}
    4a7c:	00000298 	muleq	r0, r8, r2
    4a80:	6e69700a 	cdpvs	0, 6, cr7, cr9, cr10, {0}
    4a84:	1b3b0100 	blne	ec4e8c <__bss_end__+0xeba424>
    4a88:	0000002c 	andeq	r0, r0, ip, lsr #32
    4a8c:	00001f5d 	andeq	r1, r0, sp, asr pc
    4a90:	00001f59 	andeq	r1, r0, r9, asr pc
    4a94:	009cec0d 	addseq	lr, ip, sp, lsl #24
    4a98:	00039c00 	andeq	r9, r3, r0, lsl #24
    4a9c:	50010e00 	andpl	r0, r1, r0, lsl #28
    4aa0:	001c0c05 	andseq	r0, ip, r5, lsl #24
    4aa4:	010e2020 	tsteq	lr, r0, lsr #32
    4aa8:	f3310551 	vqrshl.u64	q0, <illegal reg q0.5>, <illegal reg q0.5>
    4aac:	00245001 	eoreq	r5, r4, r1
    4ab0:	0c760f00 	ldcleq	15, cr0, [r6], #-0
    4ab4:	36010000 	strcc	r0, [r1], -r0
    4ab8:	009cc006 	addseq	ip, ip, r6
    4abc:	00001000 	andeq	r1, r0, r0
    4ac0:	d99c0100 	ldmible	ip, {r8}
    4ac4:	0a000002 	beq	4ad4 <__code_start__-0x352c>
    4ac8:	006e6970 	rsbeq	r6, lr, r0, ror r9
    4acc:	2c1f3601 	ldccs	6, cr3, [pc], {1}
    4ad0:	82000000 	andhi	r0, r0, #0, 0
    4ad4:	7e00001f 	mcrvc	0, 0, r0, cr0, cr15, {0}
    4ad8:	0d00001f 	stceq	0, cr0, [r0, #-124]	; 0xffffff84
    4adc:	00009ccc 	andeq	r9, r0, ip, asr #25
    4ae0:	000002d9 	ldrdeq	r0, [r0], -r9
    4ae4:	0350010e 	cmpeq	r0, #-2147483645	; 0x80000003
    4ae8:	0e5001f3 	mrceq	1, 2, r0, cr0, cr3, {7}
    4aec:	31015101 	tstcc	r1, r1, lsl #2
    4af0:	990f0000 	stmdbls	pc, {}	; <UNPREDICTABLE>
    4af4:	0100000a 	tsteq	r0, sl
    4af8:	9c5c0628 	mrrcls	6, 2, r0, ip, cr8
    4afc:	00640000 	rsbeq	r0, r4, r0
    4b00:	9c010000 	stcls	0, cr0, [r1], {-0}
    4b04:	00000374 	andeq	r0, r0, r4, ror r3
    4b08:	6e69700a 	cdpvs	0, 6, cr7, cr9, cr10, {0}
    4b0c:	21280100 			; <UNDEFINED> instruction: 0x21280100
    4b10:	0000002c 	andeq	r0, r0, ip, lsr #32
    4b14:	00001fa7 	andeq	r1, r0, r7, lsr #31
    4b18:	00001fa3 	andeq	r1, r0, r3, lsr #31
    4b1c:	0000a812 	andeq	sl, r0, r2, lsl r8
    4b20:	32280100 	eorcc	r0, r8, #0
    4b24:	000000c2 	andeq	r0, r0, r2, asr #1
    4b28:	00001fcc 	andeq	r1, r0, ip, asr #31
    4b2c:	00001fc8 	andeq	r1, r0, r8, asr #31
    4b30:	66666f0c 	strbtvs	r6, [r6], -ip, lsl #30
    4b34:	0e2d0100 	sufeqe	f0, f5, f0
    4b38:	0000002c 	andeq	r0, r0, ip, lsr #32
    4b3c:	00001fef 	andeq	r1, r0, pc, ror #31
    4b40:	00001fed 	andeq	r1, r0, sp, ror #31
    4b44:	0100670c 	tsteq	r0, ip, lsl #14
    4b48:	002c0e2e 	eoreq	r0, ip, lr, lsr #28
    4b4c:	20040000 	andcs	r0, r4, r0
    4b50:	20020000 	andcs	r0, r2, r0
    4b54:	760c0000 	strvc	r0, [ip], -r0
    4b58:	0e300100 	rsfeqs	f0, f0, f0
    4b5c:	0000002c 	andeq	r0, r0, ip, lsr #32
    4b60:	0000201f 	andeq	r2, r0, pc, lsl r0
    4b64:	00002017 	andeq	r2, r0, r7, lsl r0
    4b68:	009ca410 	addseq	sl, ip, r0, lsl r4
    4b6c:	00039000 	andeq	r9, r3, r0
    4b70:	00036300 	andeq	r6, r3, r0, lsl #6
    4b74:	50010e00 	andpl	r0, r1, r0, lsl #28
    4b78:	00007602 	andeq	r7, r0, r2, lsl #12
    4b7c:	009cb80d 	addseq	fp, ip, sp, lsl #16
    4b80:	00039c00 	andeq	r9, r3, r0, lsl #24
    4b84:	50010e00 	andpl	r0, r1, r0, lsl #28
    4b88:	00007602 	andeq	r7, r0, r2, lsl #12
    4b8c:	0c461300 	mcrreq	3, 0, r1, r6, cr0
    4b90:	b6020000 	strlt	r0, [r2], -r0
    4b94:	00006218 	andeq	r6, r0, r8, lsl r2
    4b98:	03900300 	orrseq	r0, r0, #0, 6
    4b9c:	78140000 	ldmdavc	r4, {}	; <UNPREDICTABLE>
    4ba0:	2bb60200 	blcs	fed853a8 <__bss_end__+0xfed7a940>
    4ba4:	00000062 	andeq	r0, r0, r2, rrx
    4ba8:	086e1500 	stmdaeq	lr!, {r8, sl, ip}^
    4bac:	086e0000 	stmdaeq	lr!, {}^	; <UNPREDICTABLE>
    4bb0:	c7020000 	strgt	r0, [r2, -r0]
    4bb4:	07da150a 	ldrbeq	r1, [sl, sl, lsl #10]
    4bb8:	07da0000 	ldrbeq	r0, [sl, r0]
    4bbc:	b2020000 	andlt	r0, r2, #0, 0
    4bc0:	Address 0x0000000000004bc0 is out of bounds.


Disassembly of section .debug_abbrev:

00000000 <.debug_abbrev>:
       0:	25011101 	strcs	r1, [r1, #-257]	; 0xfffffeff
       4:	030b130e 	movweq	r1, #45838	; 0xb30e
       8:	110e1b0e 	tstne	lr, lr, lsl #22
       c:	10061201 	andne	r1, r6, r1, lsl #4
      10:	02000017 	andeq	r0, r0, #23, 0
      14:	0b0b0024 	bleq	2c00ac <__bss_end__+0x2b5644>
      18:	08030b3e 	stmdaeq	r3, {r1, r2, r3, r4, r5, r8, r9, fp}
      1c:	24030000 	strcs	r0, [r3], #-0
      20:	3e0b0b00 	vmlacc.f64	d0, d11, d0
      24:	000e030b 	andeq	r0, lr, fp, lsl #6
      28:	00160400 	andseq	r0, r6, r0, lsl #8
      2c:	0b3a0e03 	bleq	e83840 <__bss_end__+0xe78dd8>
      30:	0b390b3b 	bleq	e42d24 <__bss_end__+0xe382bc>
      34:	00001349 	andeq	r1, r0, r9, asr #6
      38:	27011505 	strcs	r1, [r1, -r5, lsl #10]
      3c:	01134919 	tsteq	r3, r9, lsl r9
      40:	06000013 			; <UNDEFINED> instruction: 0x06000013
      44:	13490005 	movtne	r0, #36869	; 0x9005
      48:	34070000 	strcc	r0, [r7], #-0
      4c:	3a0e0300 	bcc	380c54 <__bss_end__+0x3761ec>
      50:	390b3b0b 	stmdbcc	fp, {r0, r1, r3, r8, r9, fp, ip, sp}
      54:	3f13490b 	svccc	0x0013490b
      58:	00193c19 	andseq	r3, r9, r9, lsl ip
      5c:	000f0800 	andeq	r0, pc, r0, lsl #16
      60:	13490b0b 	movtne	r0, #39691	; 0x9b0b
      64:	26090000 	strcs	r0, [r9], -r0
      68:	00134900 	andseq	r4, r3, r0, lsl #18
      6c:	01130a00 	tsteq	r3, r0, lsl #20
      70:	0b3a0b0b 	bleq	e82ca4 <__bss_end__+0xe7823c>
      74:	0b390b3b 	bleq	e42d68 <__bss_end__+0xe38300>
      78:	00001301 	andeq	r1, r0, r1, lsl #6
      7c:	03000d0b 	movweq	r0, #3339	; 0xd0b
      80:	3b0b3a0e 	blcc	2ce8c0 <__bss_end__+0x2c3e58>
      84:	490b390b 	stmdbmi	fp, {r0, r1, r3, r8, fp, ip, sp}
      88:	000b3813 	andeq	r3, fp, r3, lsl r8
      8c:	01130c00 	tsteq	r3, r0, lsl #24
      90:	0b0b0e03 	bleq	2c38a4 <__bss_end__+0x2b8e3c>
      94:	0b3b0b3a 	bleq	ec2d84 <__bss_end__+0xeb831c>
      98:	13010b39 	movwne	r0, #6969	; 0x1b39
      9c:	340d0000 	strcc	r0, [sp], #-0
      a0:	3a0e0300 	bcc	380ca8 <__bss_end__+0x376240>
      a4:	390b3b0b 	stmdbcc	fp, {r0, r1, r3, r8, r9, fp, ip, sp}
      a8:	0013490b 	andseq	r4, r3, fp, lsl #18
      ac:	00340e00 	eorseq	r0, r4, r0, lsl #28
      b0:	0b3a0e03 	bleq	e838c4 <__bss_end__+0xe78e5c>
      b4:	0b390b3b 	bleq	e42da8 <__bss_end__+0xe38340>
      b8:	0b1c1349 	bleq	704de4 <__bss_end__+0x6fa37c>
      bc:	2e0f0000 	cdpcs	0, 0, cr0, cr15, cr0, {0}
      c0:	03193f01 	tsteq	r9, #1, 30
      c4:	3b0b3a0e 	blcc	2ce904 <__bss_end__+0x2c3e9c>
      c8:	270b390b 	strcs	r3, [fp, -fp, lsl #18]
      cc:	12011119 	andne	r1, r1, #1073741830	; 0x40000006
      d0:	97184006 	ldrls	r4, [r8, -r6]
      d4:	13011942 	movwne	r1, #6466	; 0x1942
      d8:	34100000 	ldrcc	r0, [r0], #-0
      dc:	3a080300 	bcc	200ce4 <__bss_end__+0x1f627c>
      e0:	390b3b0b 	stmdbcc	fp, {r0, r1, r3, r8, r9, fp, ip, sp}
      e4:	0213490b 	andseq	r4, r3, #180224	; 0x2c000
      e8:	1742b717 	smlaldne	fp, r2, r7, r7
      ec:	34110000 	ldrcc	r0, [r1], #-0
      f0:	490e0300 	stmdbmi	lr, {r8, r9}
      f4:	02193413 	andseq	r3, r9, #318767104	; 0x13000000
      f8:	12000018 	andne	r0, r0, #24, 0
      fc:	01018289 	smlabbeq	r1, r9, r2, r8
     100:	13310111 	teqne	r1, #1073741828	; 0x40000004
     104:	00001301 	andeq	r1, r0, r1, lsl #6
     108:	01828a13 	orreq	r8, r2, r3, lsl sl
     10c:	91180200 	tstls	r8, r0, lsl #4
     110:	00001842 	andeq	r1, r0, r2, asr #16
     114:	01828914 	orreq	r8, r2, r4, lsl r9
     118:	31011100 	mrscc	r1, (UNDEF: 17)
     11c:	15000013 	strne	r0, [r0, #-19]	; 0xffffffed
     120:	13490101 	movtne	r0, #37121	; 0x9101
     124:	00001301 	andeq	r1, r0, r1, lsl #6
     128:	49002116 	stmdbmi	r0, {r1, r2, r4, r8, sp}
     12c:	000b2f13 	andeq	r2, fp, r3, lsl pc
     130:	012e1700 			; <UNDEFINED> instruction: 0x012e1700
     134:	0e03193f 			; <UNDEFINED> instruction: 0x0e03193f
     138:	0b3b0b3a 	bleq	ec2e28 <__bss_end__+0xeb83c0>
     13c:	19270b39 	stmdbne	r7!, {r0, r3, r4, r5, r8, r9, fp}
     140:	01111349 	tsteq	r1, r9, asr #6
     144:	18400612 	stmdane	r0, {r1, r4, r9, sl}^
     148:	01194297 			; <UNDEFINED> instruction: 0x01194297
     14c:	18000013 	stmdane	r0, {r0, r1, r4}
     150:	1331011d 	teqne	r1, #1073741831	; 0x40000007
     154:	42b80152 	adcsmi	r0, r8, #-2147483628	; 0x80000014
     158:	1201110b 	andne	r1, r1, #-1073741822	; 0xc0000002
     15c:	590b5806 	stmdbpl	fp, {r1, r2, fp, ip, lr}
     160:	010b570b 	tsteq	fp, fp, lsl #14
     164:	19000013 	stmdbne	r0, {r0, r1, r4}
     168:	13310005 	teqne	r1, #5, 0
     16c:	42b71702 	adcsmi	r1, r7, #524288	; 0x80000
     170:	1a000017 	bne	1d4 <__code_start__-0x7e2c>
     174:	01018289 	smlabbeq	r1, r9, r2, r8
     178:	13310111 	teqne	r1, #1073741828	; 0x40000004
     17c:	2e1b0000 	cdpcs	0, 1, cr0, cr11, cr0, {0}
     180:	3a0e0301 	bcc	380d8c <__bss_end__+0x376324>
     184:	390b3b0b 	stmdbcc	fp, {r0, r1, r3, r8, r9, fp, ip, sp}
     188:	4919270b 	ldmdbmi	r9, {r0, r1, r3, r8, r9, sl, sp}
     18c:	010b2013 	tsteq	fp, r3, lsl r0
     190:	1c000013 	stcne	0, cr0, [r0], {19}
     194:	0e030005 	cdpeq	0, 0, cr0, cr3, cr5, {0}
     198:	0b3b0b3a 	bleq	ec2e88 <__bss_end__+0xeb8420>
     19c:	13490b39 	movtne	r0, #39737	; 0x9b39
     1a0:	2e1d0000 	cdpcs	0, 1, cr0, cr13, cr0, {0}
     1a4:	3c193f00 	ldccc	15, cr3, [r9], {-0}
     1a8:	030e6e19 	movweq	r6, #60953	; 0xee19
     1ac:	3b0b3a0e 	blcc	2ce9ec <__bss_end__+0x2c3f84>
     1b0:	000b390b 	andeq	r3, fp, fp, lsl #18
     1b4:	00361e00 	eorseq	r1, r6, r0, lsl #28
     1b8:	00001802 	andeq	r1, r0, r2, lsl #16
     1bc:	01110100 	tsteq	r1, r0, lsl #2
     1c0:	0b130e25 	bleq	4c3a5c <__bss_end__+0x4b8ff4>
     1c4:	0e1b0e03 	cdpeq	14, 1, cr0, cr11, cr3, {0}
     1c8:	06120111 			; <UNDEFINED> instruction: 0x06120111
     1cc:	00001710 	andeq	r1, r0, r0, lsl r7
     1d0:	0b002402 	bleq	91e0 <va_printk+0x250>
     1d4:	030b3e0b 	movweq	r3, #48651	; 0xbe0b
     1d8:	03000008 	movweq	r0, #8
     1dc:	0b0b0024 	bleq	2c0274 <__bss_end__+0x2b580c>
     1e0:	0e030b3e 	vmoveq.16	d3[0], r0
     1e4:	16040000 	strne	r0, [r4], -r0
     1e8:	3a0e0300 	bcc	380df0 <__bss_end__+0x376388>
     1ec:	390b3b0b 	stmdbcc	fp, {r0, r1, r3, r8, r9, fp, ip, sp}
     1f0:	0013490b 	andseq	r4, r3, fp, lsl #18
     1f4:	01150500 	tsteq	r5, r0, lsl #10
     1f8:	13491927 	movtne	r1, #39207	; 0x9927
     1fc:	00001301 	andeq	r1, r0, r1, lsl #6
     200:	49000506 	stmdbmi	r0, {r1, r2, r8, sl}
     204:	07000013 	smladeq	r0, r3, r0, r0
     208:	0e030034 	mcreq	0, 0, r0, cr3, cr4, {1}
     20c:	0b3b0b3a 	bleq	ec2efc <__bss_end__+0xeb8494>
     210:	13490b39 	movtne	r0, #39737	; 0x9b39
     214:	193c193f 	ldmdbne	ip!, {r0, r1, r2, r3, r4, r5, r8, fp, ip}
     218:	0f080000 	svceq	0x00080000
     21c:	490b0b00 	stmdbmi	fp, {r8, r9, fp}
     220:	09000013 	stmdbeq	r0, {r0, r1, r4}
     224:	13490026 	movtne	r0, #36902	; 0x9026
     228:	130a0000 	movwne	r0, #40960	; 0xa000
     22c:	3a0b0b01 	bcc	2c2e38 <__bss_end__+0x2b83d0>
     230:	390b3b0b 	stmdbcc	fp, {r0, r1, r3, r8, r9, fp, ip, sp}
     234:	0013010b 	andseq	r0, r3, fp, lsl #2
     238:	000d0b00 	andeq	r0, sp, r0, lsl #22
     23c:	0b3a0e03 	bleq	e83a50 <__bss_end__+0xe78fe8>
     240:	0b390b3b 	bleq	e42f34 <__bss_end__+0xe384cc>
     244:	0b381349 	bleq	e04f70 <__bss_end__+0xdfa508>
     248:	040c0000 	streq	r0, [ip], #-0
     24c:	0b0b3e01 	bleq	2cfa58 <__bss_end__+0x2c4ff0>
     250:	3a13490b 	bcc	4d2684 <__bss_end__+0x4c7c1c>
     254:	390b3b0b 	stmdbcc	fp, {r0, r1, r3, r8, r9, fp, ip, sp}
     258:	0013010b 	andseq	r0, r3, fp, lsl #2
     25c:	00280d00 	eoreq	r0, r8, r0, lsl #26
     260:	0b1c0e03 	bleq	703a74 <__bss_end__+0x6f900c>
     264:	130e0000 	movwne	r0, #57344	; 0xe000
     268:	0b0e0301 	bleq	380e74 <__bss_end__+0x37640c>
     26c:	3b0b3a0b 	blcc	2ceaa0 <__bss_end__+0x2c4038>
     270:	010b390b 	tsteq	fp, fp, lsl #18
     274:	0f000013 	svceq	0x00000013
     278:	0e030034 	mcreq	0, 0, r0, cr3, cr4, {1}
     27c:	0b3b0b3a 	bleq	ec2f6c <__bss_end__+0xeb8504>
     280:	13490b39 	movtne	r0, #39737	; 0x9b39
     284:	00001802 	andeq	r1, r0, r2, lsl #16
     288:	0b000f10 	bleq	3ed0 <__code_start__-0x4130>
     28c:	1100000b 	tstne	r0, fp
     290:	193f012e 	ldmdbne	pc!, {r1, r2, r3, r5, r8}	; <UNPREDICTABLE>
     294:	0b3a0e03 	bleq	e83aa8 <__bss_end__+0xe79040>
     298:	0b390b3b 	bleq	e42f8c <__bss_end__+0xe38524>
     29c:	13491927 	movtne	r1, #39207	; 0x9927
     2a0:	06120111 			; <UNDEFINED> instruction: 0x06120111
     2a4:	42971840 	addsmi	r1, r7, #64, 16	; 0x400000
     2a8:	00130119 	andseq	r0, r3, r9, lsl r1
     2ac:	00051200 	andeq	r1, r5, r0, lsl #4
     2b0:	0b3a0e03 	bleq	e83ac4 <__bss_end__+0xe7905c>
     2b4:	0b390b3b 	bleq	e42fa8 <__bss_end__+0xe38540>
     2b8:	17021349 	strne	r1, [r2, -r9, asr #6]
     2bc:	001742b7 			; <UNDEFINED> instruction: 0x001742b7
     2c0:	00051300 	andeq	r1, r5, r0, lsl #6
     2c4:	0b3a0803 	bleq	e822d8 <__bss_end__+0xe77870>
     2c8:	0b390b3b 	bleq	e42fbc <__bss_end__+0xe38554>
     2cc:	18021349 	stmdane	r2, {r0, r3, r6, r8, r9, ip}
     2d0:	34140000 	ldrcc	r0, [r4], #-0
     2d4:	3a080300 	bcc	200edc <__bss_end__+0x1f6474>
     2d8:	390b3b0b 	stmdbcc	fp, {r0, r1, r3, r8, r9, fp, ip, sp}
     2dc:	0213490b 	andseq	r4, r3, #180224	; 0x2c000
     2e0:	1742b717 	smlaldne	fp, r2, r7, r7
     2e4:	89150000 	ldmdbhi	r5, {}	; <UNPREDICTABLE>
     2e8:	11010182 	smlabbne	r1, r2, r1, r0
     2ec:	01133101 	tsteq	r3, r1, lsl #2
     2f0:	16000013 			; <UNDEFINED> instruction: 0x16000013
     2f4:	0001828a 	andeq	r8, r1, sl, lsl #5
     2f8:	42911802 	addsmi	r1, r1, #131072	; 0x20000
     2fc:	17000018 	smladne	r0, r8, r0, r0
     300:	01018289 	smlabbeq	r1, r9, r2, r8
     304:	13310111 	teqne	r1, #1073741828	; 0x40000004
     308:	2e180000 	cdpcs	0, 1, cr0, cr8, cr0, {0}
     30c:	03193f01 	tsteq	r9, #1, 30
     310:	3b0b3a0e 	blcc	2ceb50 <__bss_end__+0x2c40e8>
     314:	270b390b 	strcs	r3, [fp, -fp, lsl #18]
     318:	12011119 	andne	r1, r1, #1073741830	; 0x40000006
     31c:	97184006 	ldrls	r4, [r8, -r6]
     320:	13011942 	movwne	r1, #6466	; 0x1942
     324:	34190000 	ldrcc	r0, [r9], #-0
     328:	490e0300 	stmdbmi	lr, {r8, r9}
     32c:	02193413 	andseq	r3, r9, #318767104	; 0x13000000
     330:	1a000018 	bne	398 <__code_start__-0x7c68>
     334:	00018289 	andeq	r8, r1, r9, lsl #5
     338:	13310111 	teqne	r1, #1073741828	; 0x40000004
     33c:	011b0000 	tsteq	fp, r0
     340:	01134901 	tsteq	r3, r1, lsl #18
     344:	1c000013 	stcne	0, cr0, [r0], {19}
     348:	13490021 	movtne	r0, #36897	; 0x9021
     34c:	00000b2f 	andeq	r0, r0, pc, lsr #22
     350:	0300051d 	movweq	r0, #1309	; 0x51d
     354:	3b0b3a08 	blcc	2ceb7c <__bss_end__+0x2c4114>
     358:	490b390b 	stmdbmi	fp, {r0, r1, r3, r8, fp, ip, sp}
     35c:	b7170213 			; <UNDEFINED> instruction: 0xb7170213
     360:	00001742 	andeq	r1, r0, r2, asr #14
     364:	11010b1e 	tstne	r1, lr, lsl fp
     368:	00061201 	andeq	r1, r6, r1, lsl #4
     36c:	00341f00 	eorseq	r1, r4, r0, lsl #30
     370:	0b3a0e03 	bleq	e83b84 <__bss_end__+0xe7911c>
     374:	0b390b3b 	bleq	e43068 <__bss_end__+0xe38600>
     378:	17021349 	strne	r1, [r2, -r9, asr #6]
     37c:	001742b7 			; <UNDEFINED> instruction: 0x001742b7
     380:	011d2000 	tsteq	sp, r0
     384:	01521331 	cmpeq	r2, r1, lsr r3
     388:	110b42b8 			; <UNDEFINED> instruction: 0x110b42b8
     38c:	58061201 	stmdapl	r6, {r0, r9, ip}
     390:	570b590b 	strpl	r5, [fp, -fp, lsl #18]
     394:	0013010b 	andseq	r0, r3, fp, lsl #2
     398:	00052100 	andeq	r2, r5, r0, lsl #2
     39c:	17021331 	smladxne	r2, r1, r3, r1
     3a0:	001742b7 			; <UNDEFINED> instruction: 0x001742b7
     3a4:	002e2200 	eoreq	r2, lr, r0, lsl #4
     3a8:	0e03193f 			; <UNDEFINED> instruction: 0x0e03193f
     3ac:	0b3b0b3a 	bleq	ec309c <__bss_end__+0xeb8634>
     3b0:	19270b39 	stmdbne	r7!, {r0, r3, r4, r5, r8, r9, fp}
     3b4:	01111349 	tsteq	r1, r9, asr #6
     3b8:	18400612 	stmdane	r0, {r1, r4, r9, sl}^
     3bc:	00194297 	mulseq	r9, r7, r2
     3c0:	012e2300 			; <UNDEFINED> instruction: 0x012e2300
     3c4:	0b3a0e03 	bleq	e83bd8 <__bss_end__+0xe79170>
     3c8:	0b390b3b 	bleq	e430bc <__bss_end__+0xe38654>
     3cc:	01111927 	tsteq	r1, r7, lsr #18
     3d0:	18400612 	stmdane	r0, {r1, r4, r9, sl}^
     3d4:	01194297 			; <UNDEFINED> instruction: 0x01194297
     3d8:	24000013 	strcs	r0, [r0], #-19	; 0xffffffed
     3dc:	1755010b 	ldrbne	r0, [r5, -fp, lsl #2]
     3e0:	2e250000 	cdpcs	0, 2, cr0, cr5, cr0, {0}
     3e4:	3a0e0301 	bcc	380ff0 <__bss_end__+0x376588>
     3e8:	390b3b0b 	stmdbcc	fp, {r0, r1, r3, r8, r9, fp, ip, sp}
     3ec:	4919270b 	ldmdbmi	r9, {r0, r1, r3, r8, r9, sl, sp}
     3f0:	010b2013 	tsteq	fp, r3, lsl r0
     3f4:	26000013 			; <UNDEFINED> instruction: 0x26000013
     3f8:	08030005 	stmdaeq	r3, {r0, r2}
     3fc:	0b3b0b3a 	bleq	ec30ec <__bss_end__+0xeb8684>
     400:	13490b39 	movtne	r0, #39737	; 0x9b39
     404:	2e270000 	cdpcs	0, 2, cr0, cr7, cr0, {0}
     408:	3c193f00 	ldccc	15, cr3, [r9], {-0}
     40c:	030e6e19 	movweq	r6, #60953	; 0xee19
     410:	3b0b3a0e 	blcc	2cec50 <__bss_end__+0x2c41e8>
     414:	000b390b 	andeq	r3, fp, fp, lsl #18
     418:	11010000 	mrsne	r0, (UNDEF: 1)
     41c:	130e2501 	movwne	r2, #58625	; 0xe501
     420:	1b0e030b 	blne	381054 <__bss_end__+0x3765ec>
     424:	1201110e 	andne	r1, r1, #-2147483645	; 0x80000003
     428:	00171006 	andseq	r1, r7, r6
     42c:	00240200 	eoreq	r0, r4, r0, lsl #4
     430:	0b3e0b0b 	bleq	f83064 <__bss_end__+0xf785fc>
     434:	00000803 	andeq	r0, r0, r3, lsl #16
     438:	0b002403 	bleq	944c <clean_reboot+0x4>
     43c:	030b3e0b 	movweq	r3, #48651	; 0xbe0b
     440:	0400000e 	streq	r0, [r0], #-14
     444:	13490026 	movtne	r0, #36902	; 0x9026
     448:	16050000 	strne	r0, [r5], -r0
     44c:	3a0e0300 	bcc	381054 <__bss_end__+0x3765ec>
     450:	390b3b0b 	stmdbcc	fp, {r0, r1, r3, r8, r9, fp, ip, sp}
     454:	0013490b 	andseq	r4, r3, fp, lsl #18
     458:	01150600 	tsteq	r5, r0, lsl #12
     45c:	13491927 	movtne	r1, #39207	; 0x9927
     460:	00001301 	andeq	r1, r0, r1, lsl #6
     464:	49000507 	stmdbmi	r0, {r0, r1, r2, r8, sl}
     468:	08000013 	stmdaeq	r0, {r0, r1, r4}
     46c:	0e030034 	mcreq	0, 0, r0, cr3, cr4, {1}
     470:	0b3b0b3a 	bleq	ec3160 <__bss_end__+0xeb86f8>
     474:	13490b39 	movtne	r0, #39737	; 0x9b39
     478:	193c193f 	ldmdbne	ip!, {r0, r1, r2, r3, r4, r5, r8, fp, ip}
     47c:	0f090000 	svceq	0x00090000
     480:	490b0b00 	stmdbmi	fp, {r8, r9, fp}
     484:	0a000013 	beq	4d8 <__code_start__-0x7b28>
     488:	0b0b0113 	bleq	2c08dc <__bss_end__+0x2b5e74>
     48c:	0b3b0b3a 	bleq	ec317c <__bss_end__+0xeb8714>
     490:	13010b39 	movwne	r0, #6969	; 0x1b39
     494:	0d0b0000 	stceq	0, cr0, [fp, #-0]
     498:	3a0e0300 	bcc	3810a0 <__bss_end__+0x376638>
     49c:	390b3b0b 	stmdbcc	fp, {r0, r1, r3, r8, r9, fp, ip, sp}
     4a0:	3813490b 	ldmdacc	r3, {r0, r1, r3, r8, fp, lr}
     4a4:	0c00000b 	stceq	0, cr0, [r0], {11}
     4a8:	0b3e0104 	bleq	f808c0 <__bss_end__+0xf75e58>
     4ac:	13490b0b 	movtne	r0, #39691	; 0x9b0b
     4b0:	0b3b0b3a 	bleq	ec31a0 <__bss_end__+0xeb8738>
     4b4:	13010b39 	movwne	r0, #6969	; 0x1b39
     4b8:	280d0000 	stmdacs	sp, {}	; <UNPREDICTABLE>
     4bc:	1c0e0300 	stcne	3, cr0, [lr], {-0}
     4c0:	0e00000b 	cdpeq	0, 0, cr0, cr0, cr11, {0}
     4c4:	0e030113 	mcreq	1, 0, r0, cr3, cr3, {0}
     4c8:	0b3a0b0b 	bleq	e830fc <__bss_end__+0xe78694>
     4cc:	0b390b3b 	bleq	e431c0 <__bss_end__+0xe38758>
     4d0:	00001301 	andeq	r1, r0, r1, lsl #6
     4d4:	0300340f 	movweq	r3, #1039	; 0x40f
     4d8:	3b0b3a0e 	blcc	2ced18 <__bss_end__+0x2c42b0>
     4dc:	490b390b 	stmdbmi	fp, {r0, r1, r3, r8, fp, ip, sp}
     4e0:	10000013 	andne	r0, r0, r3, lsl r0
     4e4:	0e030034 	mcreq	0, 0, r0, cr3, cr4, {1}
     4e8:	0b3b0b3a 	bleq	ec31d8 <__bss_end__+0xeb8770>
     4ec:	13490b39 	movtne	r0, #39737	; 0x9b39
     4f0:	00000b1c 	andeq	r0, r0, ip, lsl fp
     4f4:	0b000f11 	bleq	4140 <__code_start__-0x3ec0>
     4f8:	1200000b 	andne	r0, r0, #11, 0
     4fc:	0e030034 	mcreq	0, 0, r0, cr3, cr4, {1}
     500:	0b3b0b3a 	bleq	ec31f0 <__bss_end__+0xeb8788>
     504:	13490b39 	movtne	r0, #39737	; 0x9b39
     508:	00001802 	andeq	r1, r0, r2, lsl #16
     50c:	3f012e13 	svccc	0x00012e13
     510:	3a0e0319 	bcc	38117c <__bss_end__+0x376714>
     514:	390b3b0b 	stmdbcc	fp, {r0, r1, r3, r8, r9, fp, ip, sp}
     518:	1119270b 	tstne	r9, fp, lsl #14
     51c:	40061201 	andmi	r1, r6, r1, lsl #4
     520:	19429718 	stmdbne	r2, {r3, r4, r8, r9, sl, ip, pc}^
     524:	00001301 	andeq	r1, r0, r1, lsl #6
     528:	03003414 	movweq	r3, #1044	; 0x414
     52c:	3413490e 	ldrcc	r4, [r3], #-2318	; 0xfffff6f2
     530:	00180219 	andseq	r0, r8, r9, lsl r2
     534:	82891500 	addhi	r1, r9, #0, 10
     538:	01110101 	tsteq	r1, r1, lsl #2
     53c:	13011331 	movwne	r1, #4913	; 0x1331
     540:	8a160000 	bhi	580548 <__bss_end__+0x575ae0>
     544:	02000182 	andeq	r0, r0, #-2147483616	; 0x80000020
     548:	18429118 	stmdane	r2, {r3, r4, r8, ip, pc}^
     54c:	89170000 	ldmdbhi	r7, {}	; <UNPREDICTABLE>
     550:	11000182 	smlabbne	r0, r2, r1, r0
     554:	00133101 	andseq	r3, r3, r1, lsl #2
     558:	01011800 	tsteq	r1, r0, lsl #16
     55c:	13011349 	movwne	r1, #4937	; 0x1349
     560:	21190000 	tstcs	r9, r0
     564:	2f134900 	svccs	0x00134900
     568:	1a00000b 	bne	59c <__code_start__-0x7a64>
     56c:	193f012e 	ldmdbne	pc!, {r1, r2, r3, r5, r8}	; <UNPREDICTABLE>
     570:	0b3a0e03 	bleq	e83d84 <__bss_end__+0xe7931c>
     574:	0b390b3b 	bleq	e43268 <__bss_end__+0xe38800>
     578:	13491927 	movtne	r1, #39207	; 0x9927
     57c:	06120111 			; <UNDEFINED> instruction: 0x06120111
     580:	42971840 	addsmi	r1, r7, #64, 16	; 0x400000
     584:	00130119 	andseq	r0, r3, r9, lsl r1
     588:	00341b00 	eorseq	r1, r4, r0, lsl #22
     58c:	0b3a0e03 	bleq	e83da0 <__bss_end__+0xe79338>
     590:	0b390b3b 	bleq	e43284 <__bss_end__+0xe3881c>
     594:	17021349 	strne	r1, [r2, -r9, asr #6]
     598:	001742b7 			; <UNDEFINED> instruction: 0x001742b7
     59c:	012e1c00 			; <UNDEFINED> instruction: 0x012e1c00
     5a0:	0b3a0e03 	bleq	e83db4 <__bss_end__+0xe7934c>
     5a4:	0b390b3b 	bleq	e43298 <__bss_end__+0xe38830>
     5a8:	13491927 	movtne	r1, #39207	; 0x9927
     5ac:	06120111 			; <UNDEFINED> instruction: 0x06120111
     5b0:	42971840 	addsmi	r1, r7, #64, 16	; 0x400000
     5b4:	00130119 	andseq	r0, r3, r9, lsl r1
     5b8:	82891d00 	addhi	r1, r9, #0, 26
     5bc:	01110101 	tsteq	r1, r1, lsl #2
     5c0:	00001331 	andeq	r1, r0, r1, lsr r3
     5c4:	0300051e 	movweq	r0, #1310	; 0x51e
     5c8:	3b0b3a0e 	blcc	2cee08 <__bss_end__+0x2c43a0>
     5cc:	490b390b 	stmdbmi	fp, {r0, r1, r3, r8, fp, ip, sp}
     5d0:	b7170213 			; <UNDEFINED> instruction: 0xb7170213
     5d4:	00001742 	andeq	r1, r0, r2, asr #14
     5d8:	03012e1f 	movweq	r2, #7711	; 0x1e1f
     5dc:	3b0b3a0e 	blcc	2cee1c <__bss_end__+0x2c43b4>
     5e0:	270b390b 	strcs	r3, [fp, -fp, lsl #18]
     5e4:	12011119 	andne	r1, r1, #1073741830	; 0x40000006
     5e8:	97184006 	ldrls	r4, [r8, -r6]
     5ec:	13011942 	movwne	r1, #6466	; 0x1942
     5f0:	34200000 	strtcc	r0, [r0], #-0
     5f4:	490e0300 	stmdbmi	lr, {r8, r9}
     5f8:	00193413 	andseq	r3, r9, r3, lsl r4
     5fc:	00342100 	eorseq	r2, r4, r0, lsl #2
     600:	0b3a0e03 	bleq	e83e14 <__bss_end__+0xe793ac>
     604:	0b390b3b 	bleq	e432f8 <__bss_end__+0xe38890>
     608:	061c1349 	ldreq	r1, [ip], -r9, asr #6
     60c:	0b220000 	bleq	880614 <__bss_end__+0x875bac>
     610:	12011101 	andne	r1, r1, #1073741824	; 0x40000000
     614:	00130106 	andseq	r0, r3, r6, lsl #2
     618:	00342300 	eorseq	r2, r4, r0, lsl #6
     61c:	0b3a0803 	bleq	e82630 <__bss_end__+0xe77bc8>
     620:	0b390b3b 	bleq	e43314 <__bss_end__+0xe388ac>
     624:	17021349 	strne	r1, [r2, -r9, asr #6]
     628:	001742b7 			; <UNDEFINED> instruction: 0x001742b7
     62c:	00052400 	andeq	r2, r5, r0, lsl #8
     630:	0b3a0803 	bleq	e82644 <__bss_end__+0xe77bdc>
     634:	0b390b3b 	bleq	e43328 <__bss_end__+0xe388c0>
     638:	17021349 	strne	r1, [r2, -r9, asr #6]
     63c:	001742b7 			; <UNDEFINED> instruction: 0x001742b7
     640:	010b2500 	tsteq	fp, r0, lsl #10
     644:	13011755 	movwne	r1, #5973	; 0x1755
     648:	0b260000 	bleq	980650 <__bss_end__+0x975be8>
     64c:	00175501 	andseq	r5, r7, r1, lsl #10
     650:	002e2700 	eoreq	r2, lr, r0, lsl #14
     654:	193c193f 	ldmdbne	ip!, {r0, r1, r2, r3, r4, r5, r8, fp, ip}
     658:	0e030e6e 	cdpeq	14, 0, cr0, cr3, cr14, {3}
     65c:	0b3b0b3a 	bleq	ec334c <__bss_end__+0xeb88e4>
     660:	00000b39 	andeq	r0, r0, r9, lsr fp
     664:	01110100 	tsteq	r1, r0, lsl #2
     668:	0b130e25 	bleq	4c3f04 <__bss_end__+0x4b949c>
     66c:	0e1b0e03 	cdpeq	14, 1, cr0, cr11, cr3, {0}
     670:	06120111 			; <UNDEFINED> instruction: 0x06120111
     674:	00001710 	andeq	r1, r0, r0, lsl r7
     678:	0b002402 	bleq	9688 <uart_init+0x90>
     67c:	030b3e0b 	movweq	r3, #48651	; 0xbe0b
     680:	03000008 	movweq	r0, #8
     684:	0b0b0024 	bleq	2c071c <__bss_end__+0x2b5cb4>
     688:	0e030b3e 	vmoveq.16	d3[0], r0
     68c:	15040000 	strne	r0, [r4, #-0]
     690:	49192701 	ldmdbmi	r9, {r0, r8, r9, sl, sp}
     694:	00130113 	andseq	r0, r3, r3, lsl r1
     698:	00050500 	andeq	r0, r5, r0, lsl #10
     69c:	00001349 	andeq	r1, r0, r9, asr #6
     6a0:	03003406 	movweq	r3, #1030	; 0x406
     6a4:	3b0b3a0e 	blcc	2ceee4 <__bss_end__+0x2c447c>
     6a8:	490b390b 	stmdbmi	fp, {r0, r1, r3, r8, fp, ip, sp}
     6ac:	3c193f13 	ldccc	15, cr3, [r9], {19}
     6b0:	07000019 	smladeq	r0, r9, r0, r0
     6b4:	0b0b000f 	bleq	2c06f8 <__bss_end__+0x2b5c90>
     6b8:	00001349 	andeq	r1, r0, r9, asr #6
     6bc:	49002608 	stmdbmi	r0, {r3, r9, sl, sp}
     6c0:	09000013 	stmdbeq	r0, {r0, r1, r4}
     6c4:	0e030117 	mcreq	1, 0, r0, cr3, cr7, {0}
     6c8:	0b3a0b0b 	bleq	e832fc <__bss_end__+0xe78894>
     6cc:	0b390b3b 	bleq	e433c0 <__bss_end__+0xe38958>
     6d0:	00001301 	andeq	r1, r0, r1, lsl #6
     6d4:	03000d0a 	movweq	r0, #3338	; 0xd0a
     6d8:	3b0b3a08 	blcc	2cef00 <__bss_end__+0x2c4498>
     6dc:	490b390b 	stmdbmi	fp, {r0, r1, r3, r8, fp, ip, sp}
     6e0:	0b000013 	bleq	734 <__code_start__-0x78cc>
     6e4:	0b0b000f 	bleq	2c0728 <__bss_end__+0x2b5cc0>
     6e8:	150c0000 	strne	r0, [ip, #-0]
     6ec:	00192700 	andseq	r2, r9, r0, lsl #14
     6f0:	01130d00 	tsteq	r3, r0, lsl #26
     6f4:	0b3a0b0b 	bleq	e83328 <__bss_end__+0xe788c0>
     6f8:	0b390b3b 	bleq	e433ec <__bss_end__+0xe38984>
     6fc:	00001301 	andeq	r1, r0, r1, lsl #6
     700:	03000d0e 	movweq	r0, #3342	; 0xd0e
     704:	3b0b3a08 	blcc	2cef2c <__bss_end__+0x2c44c4>
     708:	490b390b 	stmdbmi	fp, {r0, r1, r3, r8, fp, ip, sp}
     70c:	000b3813 	andeq	r3, fp, r3, lsl r8
     710:	000d0f00 	andeq	r0, sp, r0, lsl #30
     714:	0b3a0e03 	bleq	e83f28 <__bss_end__+0xe794c0>
     718:	0b390b3b 	bleq	e4340c <__bss_end__+0xe389a4>
     71c:	0b381349 	bleq	e05448 <__bss_end__+0xdfa9e0>
     720:	16100000 	ldrne	r0, [r0], -r0
     724:	3a0e0300 	bcc	38132c <__bss_end__+0x3768c4>
     728:	390b3b0b 	stmdbcc	fp, {r0, r1, r3, r8, r9, fp, ip, sp}
     72c:	0013490b 	andseq	r4, r3, fp, lsl #18
     730:	00341100 	eorseq	r1, r4, r0, lsl #2
     734:	0b3a0e03 	bleq	e83f48 <__bss_end__+0xe794e0>
     738:	0b390b3b 	bleq	e4342c <__bss_end__+0xe389c4>
     73c:	18021349 	stmdane	r2, {r0, r3, r6, r8, r9, ip}
     740:	2e120000 	cdpcs	0, 1, cr0, cr2, cr0, {0}
     744:	03193f01 	tsteq	r9, #1, 30
     748:	3b0b3a0e 	blcc	2cef88 <__bss_end__+0x2c4520>
     74c:	270b390b 	strcs	r3, [fp, -fp, lsl #18]
     750:	12011119 	andne	r1, r1, #1073741830	; 0x40000006
     754:	97184006 	ldrls	r4, [r8, -r6]
     758:	13011942 	movwne	r1, #6466	; 0x1942
     75c:	05130000 	ldreq	r0, [r3, #-0]
     760:	3a080300 	bcc	201368 <__bss_end__+0x1f6900>
     764:	390b3b0b 	stmdbcc	fp, {r0, r1, r3, r8, r9, fp, ip, sp}
     768:	0213490b 	andseq	r4, r3, #180224	; 0x2c000
     76c:	14000018 	strne	r0, [r0], #-24	; 0xffffffe8
     770:	08030034 	stmdaeq	r3, {r2, r4, r5}
     774:	0b3b0b3a 	bleq	ec3464 <__bss_end__+0xeb89fc>
     778:	13490b39 	movtne	r0, #39737	; 0x9b39
     77c:	42b71702 	adcsmi	r1, r7, #524288	; 0x80000
     780:	15000017 	strne	r0, [r0, #-23]	; 0xffffffe9
     784:	193f012e 	ldmdbne	pc!, {r1, r2, r3, r5, r8}	; <UNPREDICTABLE>
     788:	0b3a0e03 	bleq	e83f9c <__bss_end__+0xe79534>
     78c:	0b390b3b 	bleq	e43480 <__bss_end__+0xe38a18>
     790:	13491927 	movtne	r1, #39207	; 0x9927
     794:	06120111 			; <UNDEFINED> instruction: 0x06120111
     798:	42971840 	addsmi	r1, r7, #64, 16	; 0x400000
     79c:	00130119 	andseq	r0, r3, r9, lsl r1
     7a0:	00051600 	andeq	r1, r5, r0, lsl #12
     7a4:	0b3a0e03 	bleq	e83fb8 <__bss_end__+0xe79550>
     7a8:	0b390b3b 	bleq	e4349c <__bss_end__+0xe38a34>
     7ac:	17021349 	strne	r1, [r2, -r9, asr #6]
     7b0:	001742b7 			; <UNDEFINED> instruction: 0x001742b7
     7b4:	00341700 	eorseq	r1, r4, r0, lsl #14
     7b8:	0b3a0e03 	bleq	e83fcc <__bss_end__+0xe79564>
     7bc:	0b390b3b 	bleq	e434b0 <__bss_end__+0xe38a48>
     7c0:	17021349 	strne	r1, [r2, -r9, asr #6]
     7c4:	001742b7 			; <UNDEFINED> instruction: 0x001742b7
     7c8:	012e1800 			; <UNDEFINED> instruction: 0x012e1800
     7cc:	0e03193f 			; <UNDEFINED> instruction: 0x0e03193f
     7d0:	0b3b0b3a 	bleq	ec34c0 <__bss_end__+0xeb8a58>
     7d4:	19270b39 	stmdbne	r7!, {r0, r3, r4, r5, r8, r9, fp}
     7d8:	193c1349 	ldmdbne	ip!, {r0, r3, r6, r8, r9, ip}
     7dc:	00001301 	andeq	r1, r0, r1, lsl #6
     7e0:	01828919 	orreq	r8, r2, r9, lsl r9
     7e4:	31011101 	tstcc	r1, r1, lsl #2
     7e8:	1a000013 	bne	83c <__code_start__-0x77c4>
     7ec:	0001828a 	andeq	r8, r1, sl, lsl #5
     7f0:	42911802 	addsmi	r1, r1, #131072	; 0x20000
     7f4:	1b000018 	blne	85c <__code_start__-0x77a4>
     7f8:	0e03012e 	adfeqsp	f0, f3, #0.5
     7fc:	0b3b0b3a 	bleq	ec34ec <__bss_end__+0xeb8a84>
     800:	19270b39 	stmdbne	r7!, {r0, r3, r4, r5, r8, r9, fp}
     804:	01111349 	tsteq	r1, r9, asr #6
     808:	18400612 	stmdane	r0, {r1, r4, r9, sl}^
     80c:	01194297 			; <UNDEFINED> instruction: 0x01194297
     810:	1c000013 	stcne	0, cr0, [r0], {19}
     814:	08030005 	stmdaeq	r3, {r0, r2}
     818:	0b3b0b3a 	bleq	ec3508 <__bss_end__+0xeb8aa0>
     81c:	13490b39 	movtne	r0, #39737	; 0x9b39
     820:	42b71702 	adcsmi	r1, r7, #524288	; 0x80000
     824:	1d000017 	stcne	0, cr0, [r0, #-92]	; 0xffffffa4
     828:	01018289 	smlabbeq	r1, r9, r2, r8
     82c:	13310111 	teqne	r1, #1073741828	; 0x40000004
     830:	00001301 	andeq	r1, r0, r1, lsl #6
     834:	0182891e 	orreq	r8, r2, lr, lsl r9
     838:	31011100 	mrscc	r1, (UNDEF: 17)
     83c:	1f000013 	svcne	0x00000013
     840:	193f002e 	ldmdbne	pc!, {r1, r2, r3, r5}	; <UNPREDICTABLE>
     844:	0e6e193c 			; <UNDEFINED> instruction: 0x0e6e193c
     848:	0b3a0e03 	bleq	e8405c <__bss_end__+0xe795f4>
     84c:	0b390b3b 	bleq	e43540 <__bss_end__+0xe38ad8>
     850:	01000000 	mrseq	r0, (UNDEF: 0)
     854:	0e250111 	mcreq	1, 1, r0, cr5, cr1, {0}
     858:	0e030b13 	vmoveq.32	d3[0], r0
     85c:	01110e1b 	tsteq	r1, fp, lsl lr
     860:	17100612 			; <UNDEFINED> instruction: 0x17100612
     864:	24020000 	strcs	r0, [r2], #-0
     868:	3e0b0b00 	vmlacc.f64	d0, d11, d0
     86c:	0008030b 	andeq	r0, r8, fp, lsl #6
     870:	00160300 	andseq	r0, r6, r0, lsl #6
     874:	0b3a0e03 	bleq	e84088 <__bss_end__+0xe79620>
     878:	0b390b3b 	bleq	e4356c <__bss_end__+0xe38b04>
     87c:	00001349 	andeq	r1, r0, r9, asr #6
     880:	0b002404 	bleq	9898 <kmalloc_init+0x24>
     884:	030b3e0b 	movweq	r3, #48651	; 0xbe0b
     888:	0500000e 	streq	r0, [r0, #-14]
     88c:	19270115 	stmdbne	r7!, {r0, r2, r4, r8}
     890:	13011349 	movwne	r1, #4937	; 0x1349
     894:	05060000 	streq	r0, [r6, #-0]
     898:	00134900 	andseq	r4, r3, r0, lsl #18
     89c:	00340700 	eorseq	r0, r4, r0, lsl #14
     8a0:	0b3a0e03 	bleq	e840b4 <__bss_end__+0xe7964c>
     8a4:	0b390b3b 	bleq	e43598 <__bss_end__+0xe38b30>
     8a8:	193f1349 	ldmdbne	pc!, {r0, r3, r6, r8, r9, ip}	; <UNPREDICTABLE>
     8ac:	0000193c 	andeq	r1, r0, ip, lsr r9
     8b0:	0b000f08 	bleq	44d8 <__code_start__-0x3b28>
     8b4:	0013490b 	andseq	r4, r3, fp, lsl #18
     8b8:	00260900 	eoreq	r0, r6, r0, lsl #18
     8bc:	00001349 	andeq	r1, r0, r9, asr #6
     8c0:	3f012e0a 	svccc	0x00012e0a
     8c4:	3a0e0319 	bcc	381530 <__bss_end__+0x376ac8>
     8c8:	390b3b0b 	stmdbcc	fp, {r0, r1, r3, r8, r9, fp, ip, sp}
     8cc:	4919270b 	ldmdbmi	r9, {r0, r1, r3, r8, r9, sl, sp}
     8d0:	12011113 	andne	r1, r1, #-1073741820	; 0xc0000004
     8d4:	97184006 	ldrls	r4, [r8, -r6]
     8d8:	13011942 	movwne	r1, #6466	; 0x1942
     8dc:	050b0000 	streq	r0, [fp, #-0]
     8e0:	3a080300 	bcc	2014e8 <__bss_end__+0x1f6a80>
     8e4:	390b3b0b 	stmdbcc	fp, {r0, r1, r3, r8, r9, fp, ip, sp}
     8e8:	0213490b 	andseq	r4, r3, #180224	; 0x2c000
     8ec:	0c000018 	stceq	0, cr0, [r0], {24}
     8f0:	08030005 	stmdaeq	r3, {r0, r2}
     8f4:	0b3b0b3a 	bleq	ec35e4 <__bss_end__+0xeb8b7c>
     8f8:	13490b39 	movtne	r0, #39737	; 0x9b39
     8fc:	42b71702 	adcsmi	r1, r7, #524288	; 0x80000
     900:	0d000017 	stceq	0, cr0, [r0, #-92]	; 0xffffffa4
     904:	08030034 	stmdaeq	r3, {r2, r4, r5}
     908:	0b3b0b3a 	bleq	ec35f8 <__bss_end__+0xeb8b90>
     90c:	13490b39 	movtne	r0, #39737	; 0x9b39
     910:	42b71702 	adcsmi	r1, r7, #524288	; 0x80000
     914:	0e000017 	mcreq	0, 0, r0, cr0, cr7, {0}
     918:	0b0b000f 	bleq	2c095c <__bss_end__+0x2b5ef4>
     91c:	01000000 	mrseq	r0, (UNDEF: 0)
     920:	0e250111 	mcreq	1, 1, r0, cr5, cr1, {0}
     924:	0e030b13 	vmoveq.32	d3[0], r0
     928:	01110e1b 	tsteq	r1, fp, lsl lr
     92c:	17100612 			; <UNDEFINED> instruction: 0x17100612
     930:	16020000 	strne	r0, [r2], -r0
     934:	3a0e0300 	bcc	38153c <__bss_end__+0x376ad4>
     938:	390b3b0b 	stmdbcc	fp, {r0, r1, r3, r8, r9, fp, ip, sp}
     93c:	0013490b 	andseq	r4, r3, fp, lsl #18
     940:	01130300 	tsteq	r3, r0, lsl #6
     944:	0b0b0e03 	bleq	2c4158 <__bss_end__+0x2b96f0>
     948:	0b3b0b3a 	bleq	ec3638 <__bss_end__+0xeb8bd0>
     94c:	00001301 	andeq	r1, r0, r1, lsl #6
     950:	03000d04 	movweq	r0, #3332	; 0xd04
     954:	3813490e 	ldmdacc	r3, {r1, r2, r3, r8, fp, lr}
     958:	0019340b 	andseq	r3, r9, fp, lsl #8
     95c:	000f0500 	andeq	r0, pc, r0, lsl #10
     960:	00000b0b 	andeq	r0, r0, fp, lsl #22
     964:	0b002406 	bleq	9984 <kmalloc+0x20>
     968:	030b3e0b 	movweq	r3, #48651	; 0xbe0b
     96c:	07000008 	streq	r0, [r0, -r8]
     970:	0b0b0024 	bleq	2c0a08 <__bss_end__+0x2b5fa0>
     974:	0e030b3e 	vmoveq.16	d3[0], r0
     978:	15080000 	strne	r0, [r8, #-0]
     97c:	49192701 	ldmdbmi	r9, {r0, r8, r9, sl, sp}
     980:	00130113 	andseq	r0, r3, r3, lsl r1
     984:	00050900 	andeq	r0, r5, r0, lsl #18
     988:	00001349 	andeq	r1, r0, r9, asr #6
     98c:	0300340a 	movweq	r3, #1034	; 0x40a
     990:	3b0b3a0e 	blcc	2cf1d0 <__bss_end__+0x2c4768>
     994:	490b390b 	stmdbmi	fp, {r0, r1, r3, r8, fp, ip, sp}
     998:	3c193f13 	ldccc	15, cr3, [r9], {19}
     99c:	0b000019 	bleq	a08 <__code_start__-0x75f8>
     9a0:	0b0b000f 	bleq	2c09e4 <__bss_end__+0x2b5f7c>
     9a4:	00001349 	andeq	r1, r0, r9, asr #6
     9a8:	4900260c 	stmdbmi	r0, {r2, r3, r9, sl, sp}
     9ac:	0d000013 	stceq	0, cr0, [r0, #-76]	; 0xffffffb4
     9b0:	193f012e 	ldmdbne	pc!, {r1, r2, r3, r5, r8}	; <UNPREDICTABLE>
     9b4:	0b3a0e03 	bleq	e841c8 <__bss_end__+0xe79760>
     9b8:	0b390b3b 	bleq	e436ac <__bss_end__+0xe38c44>
     9bc:	13491927 	movtne	r1, #39207	; 0x9927
     9c0:	06120111 			; <UNDEFINED> instruction: 0x06120111
     9c4:	42971840 	addsmi	r1, r7, #64, 16	; 0x400000
     9c8:	00130119 	andseq	r0, r3, r9, lsl r1
     9cc:	00050e00 	andeq	r0, r5, r0, lsl #28
     9d0:	0b3a0803 	bleq	e829e4 <__bss_end__+0xe77f7c>
     9d4:	0b390b3b 	bleq	e436c8 <__bss_end__+0xe38c60>
     9d8:	18021349 	stmdane	r2, {r0, r3, r6, r8, r9, ip}
     9dc:	180f0000 	stmdane	pc, {}	; <UNPREDICTABLE>
     9e0:	10000000 	andne	r0, r0, r0
     9e4:	08030034 	stmdaeq	r3, {r2, r4, r5}
     9e8:	0b3b0b3a 	bleq	ec36d8 <__bss_end__+0xeb8c70>
     9ec:	13490b39 	movtne	r0, #39737	; 0x9b39
     9f0:	00001802 	andeq	r1, r0, r2, lsl #16
     9f4:	03003411 	movweq	r3, #1041	; 0x411
     9f8:	3b0b3a0e 	blcc	2cf238 <__bss_end__+0x2c47d0>
     9fc:	490b390b 	stmdbmi	fp, {r0, r1, r3, r8, fp, ip, sp}
     a00:	00180213 	andseq	r0, r8, r3, lsl r2
     a04:	00341200 	eorseq	r1, r4, r0, lsl #4
     a08:	0b3a0803 	bleq	e82a1c <__bss_end__+0xe77fb4>
     a0c:	0b390b3b 	bleq	e43700 <__bss_end__+0xe38c98>
     a10:	17021349 	strne	r1, [r2, -r9, asr #6]
     a14:	001742b7 			; <UNDEFINED> instruction: 0x001742b7
     a18:	82891300 	addhi	r1, r9, #0, 6
     a1c:	01110101 	tsteq	r1, r1, lsl #2
     a20:	13011331 	movwne	r1, #4913	; 0x1331
     a24:	8a140000 	bhi	500a2c <__bss_end__+0x4f5fc4>
     a28:	02000182 	andeq	r0, r0, #-2147483616	; 0x80000020
     a2c:	18429118 	stmdane	r2, {r3, r4, r8, ip, pc}^
     a30:	89150000 	ldmdbhi	r5, {}	; <UNPREDICTABLE>
     a34:	11010182 	smlabbne	r1, r2, r1, r0
     a38:	16000001 	strne	r0, [r0], -r1
     a3c:	13490101 	movtne	r0, #37121	; 0x9101
     a40:	00001301 	andeq	r1, r0, r1, lsl #6
     a44:	49002117 	stmdbmi	r0, {r0, r1, r2, r4, r8, sp}
     a48:	00052f13 	andeq	r2, r5, r3, lsl pc
     a4c:	002e1800 	eoreq	r1, lr, r0, lsl #16
     a50:	193c193f 	ldmdbne	ip!, {r0, r1, r2, r3, r4, r5, r8, fp, ip}
     a54:	0e030e6e 	cdpeq	14, 0, cr0, cr3, cr14, {3}
     a58:	0b3b0b3a 	bleq	ec3748 <__bss_end__+0xeb8ce0>
     a5c:	00000b39 	andeq	r0, r0, r9, lsr fp
     a60:	01110100 	tsteq	r1, r0, lsl #2
     a64:	0b130e25 	bleq	4c4300 <__bss_end__+0x4b9898>
     a68:	0e1b0e03 	cdpeq	14, 1, cr0, cr11, cr3, {0}
     a6c:	06120111 			; <UNDEFINED> instruction: 0x06120111
     a70:	00001710 	andeq	r1, r0, r0, lsl r7
     a74:	0b002402 	bleq	9a84 <kmalloc_aligned+0xbc>
     a78:	030b3e0b 	movweq	r3, #48651	; 0xbe0b
     a7c:	03000008 	movweq	r0, #8
     a80:	0b0b0024 	bleq	2c0b18 <__bss_end__+0x2b60b0>
     a84:	0e030b3e 	vmoveq.16	d3[0], r0
     a88:	15040000 	strne	r0, [r4, #-0]
     a8c:	49192701 	ldmdbmi	r9, {r0, r8, r9, sl, sp}
     a90:	00130113 	andseq	r0, r3, r3, lsl r1
     a94:	00050500 	andeq	r0, r5, r0, lsl #10
     a98:	00001349 	andeq	r1, r0, r9, asr #6
     a9c:	03003406 	movweq	r3, #1030	; 0x406
     aa0:	3b0b3a0e 	blcc	2cf2e0 <__bss_end__+0x2c4878>
     aa4:	490b390b 	stmdbmi	fp, {r0, r1, r3, r8, fp, ip, sp}
     aa8:	3c193f13 	ldccc	15, cr3, [r9], {19}
     aac:	07000019 	smladeq	r0, r9, r0, r0
     ab0:	0b0b000f 	bleq	2c0af4 <__bss_end__+0x2b608c>
     ab4:	00001349 	andeq	r1, r0, r9, asr #6
     ab8:	49002608 	stmdbmi	r0, {r3, r9, sl, sp}
     abc:	09000013 	stmdbeq	r0, {r0, r1, r4}
     ac0:	13470034 	movtne	r0, #28724	; 0x7034
     ac4:	0b3b0b3a 	bleq	ec37b4 <__bss_end__+0xeb8d4c>
     ac8:	18020b39 	stmdane	r2, {r0, r3, r4, r5, r8, r9, fp}
     acc:	2e0a0000 	cdpcs	0, 0, cr0, cr10, cr0, {0}
     ad0:	03193f01 	tsteq	r9, #1, 30
     ad4:	3b0b3a0e 	blcc	2cf314 <__bss_end__+0x2c48ac>
     ad8:	270b390b 	strcs	r3, [fp, -fp, lsl #18]
     adc:	11134919 	tstne	r3, r9, lsl r9
     ae0:	40061201 	andmi	r1, r6, r1, lsl #4
     ae4:	19429618 	stmdbne	r2, {r3, r4, r9, sl, ip, pc}^
     ae8:	050b0000 	streq	r0, [fp, #-0]
     aec:	3a080300 	bcc	2016f4 <__bss_end__+0x1f6c8c>
     af0:	390b3b0b 	stmdbcc	fp, {r0, r1, r3, r8, r9, fp, ip, sp}
     af4:	0213490b 	andseq	r4, r3, #180224	; 0x2c000
     af8:	1742b717 	smlaldne	fp, r2, r7, r7
     afc:	01000000 	mrseq	r0, (UNDEF: 0)
     b00:	0e250111 	mcreq	1, 1, r0, cr5, cr1, {0}
     b04:	0e030b13 	vmoveq.32	d3[0], r0
     b08:	01110e1b 	tsteq	r1, fp, lsl lr
     b0c:	17100612 			; <UNDEFINED> instruction: 0x17100612
     b10:	24020000 	strcs	r0, [r2], #-0
     b14:	3e0b0b00 	vmlacc.f64	d0, d11, d0
     b18:	0008030b 	andeq	r0, r8, fp, lsl #6
     b1c:	00240300 	eoreq	r0, r4, r0, lsl #6
     b20:	0b3e0b0b 	bleq	f83754 <__bss_end__+0xf78cec>
     b24:	00000e03 	andeq	r0, r0, r3, lsl #28
     b28:	03001604 	movweq	r1, #1540	; 0x604
     b2c:	3b0b3a0e 	blcc	2cf36c <__bss_end__+0x2c4904>
     b30:	490b390b 	stmdbmi	fp, {r0, r1, r3, r8, fp, ip, sp}
     b34:	05000013 	streq	r0, [r0, #-19]	; 0xffffffed
     b38:	19270115 	stmdbne	r7!, {r0, r2, r4, r8}
     b3c:	13011349 	movwne	r1, #4937	; 0x1349
     b40:	05060000 	streq	r0, [r6, #-0]
     b44:	00134900 	andseq	r4, r3, r0, lsl #18
     b48:	00340700 	eorseq	r0, r4, r0, lsl #14
     b4c:	0b3a0e03 	bleq	e84360 <__bss_end__+0xe798f8>
     b50:	0b390b3b 	bleq	e43844 <__bss_end__+0xe38ddc>
     b54:	193f1349 	ldmdbne	pc!, {r0, r3, r6, r8, r9, ip}	; <UNPREDICTABLE>
     b58:	0000193c 	andeq	r1, r0, ip, lsr r9
     b5c:	0b000f08 	bleq	4784 <__code_start__-0x387c>
     b60:	0013490b 	andseq	r4, r3, fp, lsl #18
     b64:	00260900 	eoreq	r0, r6, r0, lsl #18
     b68:	00001349 	andeq	r1, r0, r9, asr #6
     b6c:	0301130a 	movweq	r1, #4874	; 0x130a
     b70:	3a0b0b0e 	bcc	2c37b0 <__bss_end__+0x2b8d48>
     b74:	010b3b0b 	tsteq	fp, fp, lsl #22
     b78:	0b000013 	bleq	bcc <__code_start__-0x7434>
     b7c:	0e03000d 	cdpeq	0, 0, cr0, cr3, cr13, {0}
     b80:	0b381349 	bleq	e058ac <__bss_end__+0xdfae44>
     b84:	00001934 	andeq	r1, r0, r4, lsr r9
     b88:	0b000f0c 	bleq	47c0 <__code_start__-0x3840>
     b8c:	0d00000b 	stceq	0, cr0, [r0, #-44]	; 0xffffffd4
     b90:	193f012e 	ldmdbne	pc!, {r1, r2, r3, r5, r8}	; <UNPREDICTABLE>
     b94:	0b3a0e03 	bleq	e843a8 <__bss_end__+0xe79940>
     b98:	0b390b3b 	bleq	e4388c <__bss_end__+0xe38e24>
     b9c:	13491927 	movtne	r1, #39207	; 0x9927
     ba0:	06120111 			; <UNDEFINED> instruction: 0x06120111
     ba4:	42971840 	addsmi	r1, r7, #64, 16	; 0x400000
     ba8:	00130119 	andseq	r0, r3, r9, lsl r1
     bac:	00050e00 	andeq	r0, r5, r0, lsl #28
     bb0:	0b3a0803 	bleq	e82bc4 <__bss_end__+0xe7815c>
     bb4:	0b390b3b 	bleq	e438a8 <__bss_end__+0xe38e40>
     bb8:	17021349 	strne	r1, [r2, -r9, asr #6]
     bbc:	001742b7 			; <UNDEFINED> instruction: 0x001742b7
     bc0:	00050f00 	andeq	r0, r5, r0, lsl #30
     bc4:	0b3a0e03 	bleq	e843d8 <__bss_end__+0xe79970>
     bc8:	0b390b3b 	bleq	e438bc <__bss_end__+0xe38e54>
     bcc:	18021349 	stmdane	r2, {r0, r3, r6, r8, r9, ip}
     bd0:	34100000 	ldrcc	r0, [r0], #-0
     bd4:	3a080300 	bcc	2017dc <__bss_end__+0x1f6d74>
     bd8:	390b3b0b 	stmdbcc	fp, {r0, r1, r3, r8, r9, fp, ip, sp}
     bdc:	0213490b 	andseq	r4, r3, #180224	; 0x2c000
     be0:	1742b717 	smlaldne	fp, r2, r7, r7
     be4:	34110000 	ldrcc	r0, [r1], #-0
     be8:	3a0e0300 	bcc	3817f0 <__bss_end__+0x376d88>
     bec:	390b3b0b 	stmdbcc	fp, {r0, r1, r3, r8, r9, fp, ip, sp}
     bf0:	0213490b 	andseq	r4, r3, #180224	; 0x2c000
     bf4:	1742b717 	smlaldne	fp, r2, r7, r7
     bf8:	34120000 	ldrcc	r0, [r2], #-0
     bfc:	490e0300 	stmdbmi	lr, {r8, r9}
     c00:	02193413 	andseq	r3, r9, #318767104	; 0x13000000
     c04:	13000018 	movwne	r0, #24
     c08:	0111010b 	tsteq	r1, fp, lsl #2
     c0c:	00000612 	andeq	r0, r0, r2, lsl r6
     c10:	03003414 	movweq	r3, #1044	; 0x414
     c14:	3b0b3a08 	blcc	2cf43c <__bss_end__+0x2c49d4>
     c18:	490b390b 	stmdbmi	fp, {r0, r1, r3, r8, fp, ip, sp}
     c1c:	00180213 	andseq	r0, r8, r3, lsl r2
     c20:	00341500 	eorseq	r1, r4, r0, lsl #10
     c24:	0b3a0e03 	bleq	e84438 <__bss_end__+0xe799d0>
     c28:	0b390b3b 	bleq	e4391c <__bss_end__+0xe38eb4>
     c2c:	18021349 	stmdane	r2, {r0, r3, r6, r8, r9, ip}
     c30:	0b160000 	bleq	580c38 <__bss_end__+0x5761d0>
     c34:	12011101 	andne	r1, r1, #1073741824	; 0x40000000
     c38:	00130106 	andseq	r0, r3, r6, lsl #2
     c3c:	00341700 	eorseq	r1, r4, r0, lsl #14
     c40:	0b3a0803 	bleq	e82c54 <__bss_end__+0xe781ec>
     c44:	0b390b3b 	bleq	e43938 <__bss_end__+0xe38ed0>
     c48:	00001349 	andeq	r1, r0, r9, asr #6
     c4c:	01828918 	orreq	r8, r2, r8, lsl r9
     c50:	31011101 	tstcc	r1, r1, lsl #2
     c54:	00130113 	andseq	r0, r3, r3, lsl r1
     c58:	828a1900 	addhi	r1, sl, #0, 18
     c5c:	18020001 	stmdane	r2, {r0}
     c60:	00184291 	mulseq	r8, r1, r2
     c64:	82891a00 	addhi	r1, r9, #0, 20
     c68:	01110001 	tsteq	r1, r1
     c6c:	00001331 	andeq	r1, r0, r1, lsr r3
     c70:	0182891b 	orreq	r8, r2, fp, lsl r9
     c74:	01011101 	tsteq	r1, r1, lsl #2
     c78:	1c000013 	stcne	0, cr0, [r0], {19}
     c7c:	13490101 	movtne	r0, #37121	; 0x9101
     c80:	00001301 	andeq	r1, r0, r1, lsl #6
     c84:	4900211d 	stmdbmi	r0, {r0, r2, r3, r4, r8, sp}
     c88:	000b2f13 	andeq	r2, fp, r3, lsl pc
     c8c:	012e1e00 			; <UNDEFINED> instruction: 0x012e1e00
     c90:	0b3a0e03 	bleq	e844a4 <__bss_end__+0xe79a3c>
     c94:	0b390b3b 	bleq	e43988 <__bss_end__+0xe38f20>
     c98:	13491927 	movtne	r1, #39207	; 0x9927
     c9c:	06120111 			; <UNDEFINED> instruction: 0x06120111
     ca0:	42971840 	addsmi	r1, r7, #64, 16	; 0x400000
     ca4:	00130119 	andseq	r0, r3, r9, lsl r1
     ca8:	00051f00 	andeq	r1, r5, r0, lsl #30
     cac:	0b3a0e03 	bleq	e844c0 <__bss_end__+0xe79a58>
     cb0:	0b390b3b 	bleq	e439a4 <__bss_end__+0xe38f3c>
     cb4:	17021349 	strne	r1, [r2, -r9, asr #6]
     cb8:	001742b7 			; <UNDEFINED> instruction: 0x001742b7
     cbc:	012e2000 			; <UNDEFINED> instruction: 0x012e2000
     cc0:	0b3a0803 	bleq	e82cd4 <__bss_end__+0xe7826c>
     cc4:	0b390b3b 	bleq	e439b8 <__bss_end__+0xe38f50>
     cc8:	13491927 	movtne	r1, #39207	; 0x9927
     ccc:	06120111 			; <UNDEFINED> instruction: 0x06120111
     cd0:	42971840 	addsmi	r1, r7, #64, 16	; 0x400000
     cd4:	00130119 	andseq	r0, r3, r9, lsl r1
     cd8:	012e2100 			; <UNDEFINED> instruction: 0x012e2100
     cdc:	0e03193f 			; <UNDEFINED> instruction: 0x0e03193f
     ce0:	0b3b0b3a 	bleq	ec39d0 <__bss_end__+0xeb8f68>
     ce4:	19270b39 	stmdbne	r7!, {r0, r3, r4, r5, r8, r9, fp}
     ce8:	06120111 			; <UNDEFINED> instruction: 0x06120111
     cec:	42971840 	addsmi	r1, r7, #64, 16	; 0x400000
     cf0:	00130119 	andseq	r0, r3, r9, lsl r1
     cf4:	002e2200 	eoreq	r2, lr, r0, lsl #4
     cf8:	193c193f 	ldmdbne	ip!, {r0, r1, r2, r3, r4, r5, r8, fp, ip}
     cfc:	0e030e6e 	cdpeq	14, 0, cr0, cr3, cr14, {3}
     d00:	0b3b0b3a 	bleq	ec39f0 <__bss_end__+0xeb8f88>
     d04:	00000b39 	andeq	r0, r0, r9, lsr fp
     d08:	01110100 	tsteq	r1, r0, lsl #2
     d0c:	0b130e25 	bleq	4c45a8 <__bss_end__+0x4b9b40>
     d10:	0e1b0e03 	cdpeq	14, 1, cr0, cr11, cr3, {0}
     d14:	06120111 			; <UNDEFINED> instruction: 0x06120111
     d18:	00001710 	andeq	r1, r0, r0, lsl r7
     d1c:	0b002402 	bleq	9d2c <gpio_write+0x4>
     d20:	030b3e0b 	movweq	r3, #48651	; 0xbe0b
     d24:	03000008 	movweq	r0, #8
     d28:	0b0b0024 	bleq	2c0dc0 <__bss_end__+0x2b6358>
     d2c:	0e030b3e 	vmoveq.16	d3[0], r0
     d30:	15040000 	strne	r0, [r4, #-0]
     d34:	49192701 	ldmdbmi	r9, {r0, r8, r9, sl, sp}
     d38:	00130113 	andseq	r0, r3, r3, lsl r1
     d3c:	00050500 	andeq	r0, r5, r0, lsl #10
     d40:	00001349 	andeq	r1, r0, r9, asr #6
     d44:	03003406 	movweq	r3, #1030	; 0x406
     d48:	3b0b3a0e 	blcc	2cf588 <__bss_end__+0x2c4b20>
     d4c:	490b390b 	stmdbmi	fp, {r0, r1, r3, r8, fp, ip, sp}
     d50:	3c193f13 	ldccc	15, cr3, [r9], {19}
     d54:	07000019 	smladeq	r0, r9, r0, r0
     d58:	0b0b000f 	bleq	2c0d9c <__bss_end__+0x2b6334>
     d5c:	00001349 	andeq	r1, r0, r9, asr #6
     d60:	49002608 	stmdbmi	r0, {r3, r9, sl, sp}
     d64:	09000013 	stmdbeq	r0, {r0, r1, r4}
     d68:	193f012e 	ldmdbne	pc!, {r1, r2, r3, r5, r8}	; <UNPREDICTABLE>
     d6c:	0b3a0e03 	bleq	e84580 <__bss_end__+0xe79b18>
     d70:	0b390b3b 	bleq	e43a64 <__bss_end__+0xe38ffc>
     d74:	01871927 	orreq	r1, r7, r7, lsr #18
     d78:	12011119 	andne	r1, r1, #1073741830	; 0x40000006
     d7c:	97184006 	ldrls	r4, [r8, -r6]
     d80:	13011942 	movwne	r1, #6466	; 0x1942
     d84:	890a0000 	stmdbhi	sl, {}	; <UNPREDICTABLE>
     d88:	11010182 	smlabbne	r1, r2, r1, r0
     d8c:	00130101 	andseq	r0, r3, r1, lsl #2
     d90:	828a0b00 	addhi	r0, sl, #0, 22
     d94:	18020001 	stmdane	r2, {r0}
     d98:	00184291 	mulseq	r8, r1, r2
     d9c:	82890c00 	addhi	r0, r9, #0, 24
     da0:	01110001 	tsteq	r1, r1
     da4:	00001331 	andeq	r1, r0, r1, lsr r3
     da8:	0182890d 	orreq	r8, r2, sp, lsl #18
     dac:	31011101 	tstcc	r1, r1, lsl #2
     db0:	00130113 	andseq	r0, r3, r3, lsl r1
     db4:	002e0e00 	eoreq	r0, lr, r0, lsl #28
     db8:	193c193f 	ldmdbne	ip!, {r0, r1, r2, r3, r4, r5, r8, fp, ip}
     dbc:	0e030e6e 	cdpeq	14, 0, cr0, cr3, cr14, {3}
     dc0:	0b3b0b3a 	bleq	ec3ab0 <__bss_end__+0xeb9048>
     dc4:	00000b39 	andeq	r0, r0, r9, lsr fp
     dc8:	01110100 	tsteq	r1, r0, lsl #2
     dcc:	0b130e25 	bleq	4c4668 <__bss_end__+0x4b9c00>
     dd0:	0e1b0e03 	cdpeq	14, 1, cr0, cr11, cr3, {0}
     dd4:	06120111 			; <UNDEFINED> instruction: 0x06120111
     dd8:	00001710 	andeq	r1, r0, r0, lsl r7
     ddc:	0b002402 	bleq	9dec <__code_end__+0x74>
     de0:	030b3e0b 	movweq	r3, #48651	; 0xbe0b
     de4:	03000008 	movweq	r0, #8
     de8:	0b0b0024 	bleq	2c0e80 <__bss_end__+0x2b6418>
     dec:	0e030b3e 	vmoveq.16	d3[0], r0
     df0:	15040000 	strne	r0, [r4, #-0]
     df4:	49192701 	ldmdbmi	r9, {r0, r8, r9, sl, sp}
     df8:	00130113 	andseq	r0, r3, r3, lsl r1
     dfc:	00050500 	andeq	r0, r5, r0, lsl #10
     e00:	00001349 	andeq	r1, r0, r9, asr #6
     e04:	03003406 	movweq	r3, #1030	; 0x406
     e08:	3b0b3a0e 	blcc	2cf648 <__bss_end__+0x2c4be0>
     e0c:	490b390b 	stmdbmi	fp, {r0, r1, r3, r8, fp, ip, sp}
     e10:	3c193f13 	ldccc	15, cr3, [r9], {19}
     e14:	07000019 	smladeq	r0, r9, r0, r0
     e18:	0b0b000f 	bleq	2c0e5c <__bss_end__+0x2b63f4>
     e1c:	00001349 	andeq	r1, r0, r9, asr #6
     e20:	49002608 	stmdbmi	r0, {r3, r9, sl, sp}
     e24:	09000013 	stmdbeq	r0, {r0, r1, r4}
     e28:	193f012e 	ldmdbne	pc!, {r1, r2, r3, r5, r8}	; <UNPREDICTABLE>
     e2c:	0b3a0e03 	bleq	e84640 <__bss_end__+0xe79bd8>
     e30:	0b390b3b 	bleq	e43b24 <__bss_end__+0xe390bc>
     e34:	06120111 			; <UNDEFINED> instruction: 0x06120111
     e38:	42971840 	addsmi	r1, r7, #64, 16	; 0x400000
     e3c:	00130119 	andseq	r0, r3, r9, lsl r1
     e40:	002e0a00 	eoreq	r0, lr, r0, lsl #20
     e44:	0e03193f 			; <UNDEFINED> instruction: 0x0e03193f
     e48:	0b3b0b3a 	bleq	ec3b38 <__bss_end__+0xeb90d0>
     e4c:	19270b39 	stmdbne	r7!, {r0, r3, r4, r5, r8, r9, fp}
     e50:	0000193c 	andeq	r1, r0, ip, lsr r9
     e54:	0300340b 	movweq	r3, #1035	; 0x40b
     e58:	3b0b3a08 	blcc	2cf680 <__bss_end__+0x2c4c18>
     e5c:	490b390b 	stmdbmi	fp, {r0, r1, r3, r8, fp, ip, sp}
     e60:	b7170213 			; <UNDEFINED> instruction: 0xb7170213
     e64:	00001742 	andeq	r1, r0, r2, asr #14
     e68:	0300340c 	movweq	r3, #1036	; 0x40c
     e6c:	3b0b3a0e 	blcc	2cf6ac <__bss_end__+0x2c4c44>
     e70:	490b390b 	stmdbmi	fp, {r0, r1, r3, r8, fp, ip, sp}
     e74:	0d000013 	stceq	0, cr0, [r0, #-76]	; 0xffffffb4
     e78:	0111010b 	tsteq	r1, fp, lsl #2
     e7c:	13010612 	movwne	r0, #5650	; 0x1612
     e80:	340e0000 	strcc	r0, [lr], #-0
     e84:	3a080300 	bcc	201a8c <__bss_end__+0x1f7024>
     e88:	390b3b0b 	stmdbcc	fp, {r0, r1, r3, r8, r9, fp, ip, sp}
     e8c:	1c13490b 			; <UNDEFINED> instruction: 0x1c13490b
     e90:	0f00000b 	svceq	0x0000000b
     e94:	00018289 	andeq	r8, r1, r9, lsl #5
     e98:	13310111 	teqne	r1, #1073741828	; 0x40000004
     e9c:	2e100000 	cdpcs	0, 1, cr0, cr0, cr0, {0}
     ea0:	3c193f00 	ldccc	15, cr3, [r9], {-0}
     ea4:	030e6e19 	movweq	r6, #60953	; 0xee19
     ea8:	3b0b3a0e 	blcc	2cf6e8 <__bss_end__+0x2c4c80>
     eac:	000b3905 	andeq	r3, fp, r5, lsl #18
     eb0:	002e1100 	eoreq	r1, lr, r0, lsl #2
     eb4:	193c193f 	ldmdbne	ip!, {r0, r1, r2, r3, r4, r5, r8, fp, ip}
     eb8:	0e030e6e 	cdpeq	14, 0, cr0, cr3, cr14, {3}
     ebc:	0b3b0b3a 	bleq	ec3bac <__bss_end__+0xeb9144>
     ec0:	00000b39 	andeq	r0, r0, r9, lsr fp
     ec4:	01110100 	tsteq	r1, r0, lsl #2
     ec8:	0b130e25 	bleq	4c4764 <__bss_end__+0x4b9cfc>
     ecc:	0e1b0e03 	cdpeq	14, 1, cr0, cr11, cr3, {0}
     ed0:	06120111 			; <UNDEFINED> instruction: 0x06120111
     ed4:	00001710 	andeq	r1, r0, r0, lsl r7
     ed8:	0b002402 	bleq	9ee8 <__FUNCTION__.4023+0x84>
     edc:	030b3e0b 	movweq	r3, #48651	; 0xbe0b
     ee0:	03000008 	movweq	r0, #8
     ee4:	0b0b0024 	bleq	2c0f7c <__bss_end__+0x2b6514>
     ee8:	0e030b3e 	vmoveq.16	d3[0], r0
     eec:	15040000 	strne	r0, [r4, #-0]
     ef0:	49192701 	ldmdbmi	r9, {r0, r8, r9, sl, sp}
     ef4:	00130113 	andseq	r0, r3, r3, lsl r1
     ef8:	00050500 	andeq	r0, r5, r0, lsl #10
     efc:	00001349 	andeq	r1, r0, r9, asr #6
     f00:	03003406 	movweq	r3, #1030	; 0x406
     f04:	3b0b3a0e 	blcc	2cf744 <__bss_end__+0x2c4cdc>
     f08:	490b390b 	stmdbmi	fp, {r0, r1, r3, r8, fp, ip, sp}
     f0c:	3c193f13 	ldccc	15, cr3, [r9], {19}
     f10:	07000019 	smladeq	r0, r9, r0, r0
     f14:	0b0b000f 	bleq	2c0f58 <__bss_end__+0x2b64f0>
     f18:	00001349 	andeq	r1, r0, r9, asr #6
     f1c:	49002608 	stmdbmi	r0, {r3, r9, sl, sp}
     f20:	09000013 	stmdbeq	r0, {r0, r1, r4}
     f24:	193f002e 	ldmdbne	pc!, {r1, r2, r3, r5}	; <UNPREDICTABLE>
     f28:	0b3a0e03 	bleq	e8473c <__bss_end__+0xe79cd4>
     f2c:	0b390b3b 	bleq	e43c20 <__bss_end__+0xe391b8>
     f30:	01111927 	tsteq	r1, r7, lsr #18
     f34:	18400612 	stmdane	r0, {r1, r4, r9, sl}^
     f38:	00194297 	mulseq	r9, r7, r2
     f3c:	11010000 	mrsne	r0, (UNDEF: 1)
     f40:	130e2501 	movwne	r2, #58625	; 0xe501
     f44:	1b0e030b 	blne	381b78 <__bss_end__+0x377110>
     f48:	1117550e 	tstne	r7, lr, lsl #10
     f4c:	00171001 	andseq	r1, r7, r1
     f50:	00240200 	eoreq	r0, r4, r0, lsl #4
     f54:	0b3e0b0b 	bleq	f83b88 <__bss_end__+0xf79120>
     f58:	00000803 	andeq	r0, r0, r3, lsl #16
     f5c:	49002603 	stmdbmi	r0, {r0, r1, r9, sl, sp}
     f60:	04000013 	streq	r0, [r0], #-19	; 0xffffffed
     f64:	0b0b0024 	bleq	2c0ffc <__bss_end__+0x2b6594>
     f68:	0e030b3e 	vmoveq.16	d3[0], r0
     f6c:	15050000 	strne	r0, [r5, #-0]
     f70:	49192701 	ldmdbmi	r9, {r0, r8, r9, sl, sp}
     f74:	00130113 	andseq	r0, r3, r3, lsl r1
     f78:	00050600 	andeq	r0, r5, r0, lsl #12
     f7c:	00001349 	andeq	r1, r0, r9, asr #6
     f80:	03003407 	movweq	r3, #1031	; 0x407
     f84:	3b0b3a0e 	blcc	2cf7c4 <__bss_end__+0x2c4d5c>
     f88:	490b390b 	stmdbmi	fp, {r0, r1, r3, r8, fp, ip, sp}
     f8c:	3c193f13 	ldccc	15, cr3, [r9], {19}
     f90:	08000019 	stmdaeq	r0, {r0, r3, r4}
     f94:	0b0b000f 	bleq	2c0fd8 <__bss_end__+0x2b6570>
     f98:	00001349 	andeq	r1, r0, r9, asr #6
     f9c:	03003409 	movweq	r3, #1033	; 0x409
     fa0:	3b0b3a0e 	blcc	2cf7e0 <__bss_end__+0x2c4d78>
     fa4:	490b390b 	stmdbmi	fp, {r0, r1, r3, r8, fp, ip, sp}
     fa8:	0a000013 	beq	ffc <__code_start__-0x7004>
     fac:	193f012e 	ldmdbne	pc!, {r1, r2, r3, r5, r8}	; <UNPREDICTABLE>
     fb0:	0b3a0e03 	bleq	e847c4 <__bss_end__+0xe79d5c>
     fb4:	0b390b3b 	bleq	e43ca8 <__bss_end__+0xe39240>
     fb8:	01871927 	orreq	r1, r7, r7, lsr #18
     fbc:	12011119 	andne	r1, r1, #1073741830	; 0x40000006
     fc0:	97184006 	ldrls	r4, [r8, -r6]
     fc4:	13011942 	movwne	r1, #6466	; 0x1942
     fc8:	340b0000 	strcc	r0, [fp], #-0
     fcc:	3a0e0300 	bcc	381bd4 <__bss_end__+0x37716c>
     fd0:	390b3b0b 	stmdbcc	fp, {r0, r1, r3, r8, r9, fp, ip, sp}
     fd4:	0213490b 	andseq	r4, r3, #180224	; 0x2c000
     fd8:	1742b717 	smlaldne	fp, r2, r7, r7
     fdc:	890c0000 	stmdbhi	ip, {}	; <UNPREDICTABLE>
     fe0:	11000182 	smlabbne	r0, r2, r1, r0
     fe4:	00133101 	andseq	r3, r3, r1, lsl #2
     fe8:	82890d00 	addhi	r0, r9, #0, 26
     fec:	01110101 	tsteq	r1, r1, lsl #2
     ff0:	13011331 	movwne	r1, #4913	; 0x1331
     ff4:	8a0e0000 	bhi	380ffc <__bss_end__+0x376594>
     ff8:	02000182 	andeq	r0, r0, #-2147483616	; 0x80000020
     ffc:	18429118 	stmdane	r2, {r3, r4, r8, ip, pc}^
    1000:	2e0f0000 	cdpcs	0, 0, cr0, cr15, cr0, {0}
    1004:	03193f01 	tsteq	r9, #1, 30
    1008:	3b0b3a0e 	blcc	2cf848 <__bss_end__+0x2c4de0>
    100c:	270b390b 	strcs	r3, [fp, -fp, lsl #18]
    1010:	12011119 	andne	r1, r1, #1073741830	; 0x40000006
    1014:	97184006 	ldrls	r4, [r8, -r6]
    1018:	13011942 	movwne	r1, #6466	; 0x1942
    101c:	2e100000 	cdpcs	0, 1, cr0, cr0, cr0, {0}
    1020:	03193f01 	tsteq	r9, #1, 30
    1024:	3b0b3a0e 	blcc	2cf864 <__bss_end__+0x2c4dfc>
    1028:	270b390b 	strcs	r3, [fp, -fp, lsl #18]
    102c:	11134919 	tstne	r3, r9, lsl r9
    1030:	40061201 	andmi	r1, r6, r1, lsl #4
    1034:	19429718 	stmdbne	r2, {r3, r4, r8, r9, sl, ip, pc}^
    1038:	00001301 	andeq	r1, r0, r1, lsl #6
    103c:	3f002e11 	svccc	0x00002e11
    1040:	6e193c19 	mrcvs	12, 0, r3, cr9, cr9, {0}
    1044:	3a0e030e 	bcc	381c84 <__bss_end__+0x37721c>
    1048:	39053b0b 	stmdbcc	r5, {r0, r1, r3, r8, r9, fp, ip, sp}
    104c:	1200000b 	andne	r0, r0, #11, 0
    1050:	193f002e 	ldmdbne	pc!, {r1, r2, r3, r5}	; <UNPREDICTABLE>
    1054:	0e6e193c 			; <UNDEFINED> instruction: 0x0e6e193c
    1058:	0b3a0e03 	bleq	e8486c <__bss_end__+0xe79e04>
    105c:	0b390b3b 	bleq	e43d50 <__bss_end__+0xe392e8>
    1060:	01000000 	mrseq	r0, (UNDEF: 0)
    1064:	0e250111 	mcreq	1, 1, r0, cr5, cr1, {0}
    1068:	0e030b13 	vmoveq.32	d3[0], r0
    106c:	01110e1b 	tsteq	r1, fp, lsl lr
    1070:	17100612 			; <UNDEFINED> instruction: 0x17100612
    1074:	24020000 	strcs	r0, [r2], #-0
    1078:	3e0b0b00 	vmlacc.f64	d0, d11, d0
    107c:	0008030b 	andeq	r0, r8, fp, lsl #6
    1080:	00240300 	eoreq	r0, r4, r0, lsl #6
    1084:	0b3e0b0b 	bleq	f83cb8 <__bss_end__+0xf79250>
    1088:	00000e03 	andeq	r0, r0, r3, lsl #28
    108c:	27011504 	strcs	r1, [r1, -r4, lsl #10]
    1090:	01134919 	tsteq	r3, r9, lsl r9
    1094:	05000013 	streq	r0, [r0, #-19]	; 0xffffffed
    1098:	13490005 	movtne	r0, #36869	; 0x9005
    109c:	34060000 	strcc	r0, [r6], #-0
    10a0:	3a0e0300 	bcc	381ca8 <__bss_end__+0x377240>
    10a4:	390b3b0b 	stmdbcc	fp, {r0, r1, r3, r8, r9, fp, ip, sp}
    10a8:	3f13490b 	svccc	0x0013490b
    10ac:	00193c19 	andseq	r3, r9, r9, lsl ip
    10b0:	000f0700 	andeq	r0, pc, r0, lsl #14
    10b4:	13490b0b 	movtne	r0, #39691	; 0x9b0b
    10b8:	26080000 	strcs	r0, [r8], -r0
    10bc:	00134900 	andseq	r4, r3, r0, lsl #18
    10c0:	012e0900 			; <UNDEFINED> instruction: 0x012e0900
    10c4:	0e03193f 			; <UNDEFINED> instruction: 0x0e03193f
    10c8:	0b3b0b3a 	bleq	ec3db8 <__bss_end__+0xeb9350>
    10cc:	19270b39 	stmdbne	r7!, {r0, r3, r4, r5, r8, r9, fp}
    10d0:	06120111 			; <UNDEFINED> instruction: 0x06120111
    10d4:	42971840 	addsmi	r1, r7, #64, 16	; 0x400000
    10d8:	00130119 	andseq	r0, r3, r9, lsl r1
    10dc:	00050a00 	andeq	r0, r5, r0, lsl #20
    10e0:	0b3a0803 	bleq	e830f4 <__bss_end__+0xe7868c>
    10e4:	0b390b3b 	bleq	e43dd8 <__bss_end__+0xe39370>
    10e8:	17021349 	strne	r1, [r2, -r9, asr #6]
    10ec:	001742b7 			; <UNDEFINED> instruction: 0x001742b7
    10f0:	82890b00 	addhi	r0, r9, #0, 22
    10f4:	01110101 	tsteq	r1, r1, lsl #2
    10f8:	00001331 	andeq	r1, r0, r1, lsr r3
    10fc:	01828a0c 	orreq	r8, r2, ip, lsl #20
    1100:	91180200 	tstls	r8, r0, lsl #4
    1104:	00001842 	andeq	r1, r0, r2, asr #16
    1108:	0300340d 	movweq	r3, #1037	; 0x40d
    110c:	3b0b3a08 	blcc	2cf934 <__bss_end__+0x2c4ecc>
    1110:	490b390b 	stmdbmi	fp, {r0, r1, r3, r8, fp, ip, sp}
    1114:	b7170213 			; <UNDEFINED> instruction: 0xb7170213
    1118:	00001742 	andeq	r1, r0, r2, asr #14
    111c:	11010b0e 	tstne	r1, lr, lsl #22
    1120:	01061201 	tsteq	r6, r1, lsl #4
    1124:	0f000013 	svceq	0x00000013
    1128:	00018289 	andeq	r8, r1, r9, lsl #5
    112c:	13310111 	teqne	r1, #1073741828	; 0x40000004
    1130:	2e100000 	cdpcs	0, 1, cr0, cr0, cr0, {0}
    1134:	03193f01 	tsteq	r9, #1, 30
    1138:	3b0b3a0e 	blcc	2cf978 <__bss_end__+0x2c4f10>
    113c:	270b390b 	strcs	r3, [fp, -fp, lsl #18]
    1140:	11134919 	tstne	r3, r9, lsl r9
    1144:	40061201 	andmi	r1, r6, r1, lsl #4
    1148:	19429718 	stmdbne	r2, {r3, r4, r8, r9, sl, ip, pc}^
    114c:	00001301 	andeq	r1, r0, r1, lsl #6
    1150:	3f002e11 	svccc	0x00002e11
    1154:	6e193c19 	mrcvs	12, 0, r3, cr9, cr9, {0}
    1158:	3a0e030e 	bcc	381d98 <__bss_end__+0x377330>
    115c:	390b3b0b 	stmdbcc	fp, {r0, r1, r3, r8, r9, fp, ip, sp}
    1160:	0000000b 	andeq	r0, r0, fp
    1164:	25011101 	strcs	r1, [r1, #-257]	; 0xfffffeff
    1168:	030b130e 	movweq	r1, #45838	; 0xb30e
    116c:	110e1b0e 	tstne	lr, lr, lsl #22
    1170:	10061201 	andne	r1, r6, r1, lsl #4
    1174:	02000017 	andeq	r0, r0, #23, 0
    1178:	0b0b0024 	bleq	2c1210 <__bss_end__+0x2b67a8>
    117c:	08030b3e 	stmdaeq	r3, {r1, r2, r3, r4, r5, r8, r9, fp}
    1180:	24030000 	strcs	r0, [r3], #-0
    1184:	3e0b0b00 	vmlacc.f64	d0, d11, d0
    1188:	000e030b 	andeq	r0, lr, fp, lsl #6
    118c:	00350400 	eorseq	r0, r5, r0, lsl #8
    1190:	00001349 	andeq	r1, r0, r9, asr #6
    1194:	03001605 	movweq	r1, #1541	; 0x605
    1198:	3b0b3a0e 	blcc	2cf9d8 <__bss_end__+0x2c4f70>
    119c:	490b390b 	stmdbmi	fp, {r0, r1, r3, r8, fp, ip, sp}
    11a0:	06000013 			; <UNDEFINED> instruction: 0x06000013
    11a4:	0b3e0104 	bleq	f815bc <__bss_end__+0xf76b54>
    11a8:	13490b0b 	movtne	r0, #39691	; 0x9b0b
    11ac:	0b3b0b3a 	bleq	ec3e9c <__bss_end__+0xeb9434>
    11b0:	13010b39 	movwne	r0, #6969	; 0x1b39
    11b4:	28070000 	stmdacs	r7, {}	; <UNPREDICTABLE>
    11b8:	1c0e0300 	stcne	3, cr0, [lr], {-0}
    11bc:	0800000b 	stmdaeq	r0, {r0, r1, r3}
    11c0:	0e030113 	mcreq	1, 0, r0, cr3, cr3, {0}
    11c4:	0b3a0b0b 	bleq	e83df8 <__bss_end__+0xe79390>
    11c8:	0b390b3b 	bleq	e43ebc <__bss_end__+0xe39454>
    11cc:	00001301 	andeq	r1, r0, r1, lsl #6
    11d0:	03000d09 	movweq	r0, #3337	; 0xd09
    11d4:	3b0b3a08 	blcc	2cf9fc <__bss_end__+0x2c4f94>
    11d8:	490b390b 	stmdbmi	fp, {r0, r1, r3, r8, fp, ip, sp}
    11dc:	000b3813 	andeq	r3, fp, r3, lsl r8
    11e0:	000d0a00 	andeq	r0, sp, r0, lsl #20
    11e4:	0b3a0e03 	bleq	e849f8 <__bss_end__+0xe79f90>
    11e8:	0b390b3b 	bleq	e43edc <__bss_end__+0xe39474>
    11ec:	0b381349 	bleq	e05f18 <__bss_end__+0xdfb4b0>
    11f0:	340b0000 	strcc	r0, [fp], #-0
    11f4:	3a0e0300 	bcc	381dfc <__bss_end__+0x377394>
    11f8:	390b3b0b 	stmdbcc	fp, {r0, r1, r3, r8, r9, fp, ip, sp}
    11fc:	1c13490b 			; <UNDEFINED> instruction: 0x1c13490b
    1200:	0c000006 	stceq	0, cr0, [r0], {6}
    1204:	0b0b000f 	bleq	2c1248 <__bss_end__+0x2b67e0>
    1208:	00001349 	andeq	r1, r0, r9, asr #6
    120c:	4900260d 	stmdbmi	r0, {r0, r2, r3, r9, sl, sp}
    1210:	0e000013 	mcreq	0, 0, r0, cr0, cr3, {0}
    1214:	193f012e 	ldmdbne	pc!, {r1, r2, r3, r5, r8}	; <UNPREDICTABLE>
    1218:	0b3a0e03 	bleq	e84a2c <__bss_end__+0xe79fc4>
    121c:	0b390b3b 	bleq	e43f10 <__bss_end__+0xe394a8>
    1220:	01111927 	tsteq	r1, r7, lsr #18
    1224:	18400612 	stmdane	r0, {r1, r4, r9, sl}^
    1228:	01194297 			; <UNDEFINED> instruction: 0x01194297
    122c:	0f000013 	svceq	0x00000013
    1230:	00018289 	andeq	r8, r1, r9, lsl #5
    1234:	13310111 	teqne	r1, #1073741828	; 0x40000004
    1238:	2e100000 	cdpcs	0, 1, cr0, cr0, cr0, {0}
    123c:	03193f01 	tsteq	r9, #1, 30
    1240:	3b0b3a0e 	blcc	2cfa80 <__bss_end__+0x2c5018>
    1244:	270b390b 	strcs	r3, [fp, -fp, lsl #18]
    1248:	11134919 	tstne	r3, r9, lsl r9
    124c:	40061201 	andmi	r1, r6, r1, lsl #4
    1250:	19429718 	stmdbne	r2, {r3, r4, r8, r9, sl, ip, pc}^
    1254:	00001301 	andeq	r1, r0, r1, lsl #6
    1258:	01828911 	orreq	r8, r2, r1, lsl r9
    125c:	31011101 	tstcc	r1, r1, lsl #2
    1260:	12000013 	andne	r0, r0, #19, 0
    1264:	0001828a 	andeq	r8, r1, sl, lsl #5
    1268:	42911802 	addsmi	r1, r1, #131072	; 0x20000
    126c:	13000018 	movwne	r0, #24
    1270:	08030005 	stmdaeq	r3, {r0, r2}
    1274:	0b3b0b3a 	bleq	ec3f64 <__bss_end__+0xeb94fc>
    1278:	13490b39 	movtne	r0, #39737	; 0x9b39
    127c:	42b71702 	adcsmi	r1, r7, #524288	; 0x80000
    1280:	14000017 	strne	r0, [r0], #-23	; 0xffffffe9
    1284:	01018289 	smlabbeq	r1, r9, r2, r8
    1288:	13310111 	teqne	r1, #1073741828	; 0x40000004
    128c:	00001301 	andeq	r1, r0, r1, lsl #6
    1290:	03003415 	movweq	r3, #1045	; 0x415
    1294:	3b0b3a08 	blcc	2cfabc <__bss_end__+0x2c5054>
    1298:	490b390b 	stmdbmi	fp, {r0, r1, r3, r8, fp, ip, sp}
    129c:	b7170213 			; <UNDEFINED> instruction: 0xb7170213
    12a0:	00001742 	andeq	r1, r0, r2, asr #14
    12a4:	03003416 	movweq	r3, #1046	; 0x416
    12a8:	3b0b3a0e 	blcc	2cfae8 <__bss_end__+0x2c5080>
    12ac:	490b390b 	stmdbmi	fp, {r0, r1, r3, r8, fp, ip, sp}
    12b0:	00051c13 	andeq	r1, r5, r3, lsl ip
    12b4:	012e1700 			; <UNDEFINED> instruction: 0x012e1700
    12b8:	0b3a0e03 	bleq	e84acc <__bss_end__+0xe7a064>
    12bc:	0b390b3b 	bleq	e43fb0 <__bss_end__+0xe39548>
    12c0:	01111927 	tsteq	r1, r7, lsr #18
    12c4:	18400612 	stmdane	r0, {r1, r4, r9, sl}^
    12c8:	01194297 			; <UNDEFINED> instruction: 0x01194297
    12cc:	18000013 	stmdane	r0, {r0, r1, r4}
    12d0:	0e030005 	cdpeq	0, 0, cr0, cr3, cr5, {0}
    12d4:	0b3b0b3a 	bleq	ec3fc4 <__bss_end__+0xeb955c>
    12d8:	13490b39 	movtne	r0, #39737	; 0x9b39
    12dc:	42b71702 	adcsmi	r1, r7, #524288	; 0x80000
    12e0:	19000017 	stmdbne	r0, {r0, r1, r2, r4}
    12e4:	00000035 	andeq	r0, r0, r5, lsr r0
    12e8:	3f002e1a 	svccc	0x00002e1a
    12ec:	6e193c19 	mrcvs	12, 0, r3, cr9, cr9, {0}
    12f0:	3a0e030e 	bcc	381f30 <__bss_end__+0x3774c8>
    12f4:	390b3b0b 	stmdbcc	fp, {r0, r1, r3, r8, r9, fp, ip, sp}
    12f8:	0000000b 	andeq	r0, r0, fp
    12fc:	25011101 	strcs	r1, [r1, #-257]	; 0xfffffeff
    1300:	030b130e 	movweq	r1, #45838	; 0xb30e
    1304:	110e1b0e 	tstne	lr, lr, lsl #22
    1308:	10061201 	andne	r1, r6, r1, lsl #4
    130c:	02000017 	andeq	r0, r0, #23, 0
    1310:	0b0b0024 	bleq	2c13a8 <__bss_end__+0x2b6940>
    1314:	08030b3e 	stmdaeq	r3, {r1, r2, r3, r4, r5, r8, r9, fp}
    1318:	24030000 	strcs	r0, [r3], #-0
    131c:	3e0b0b00 	vmlacc.f64	d0, d11, d0
    1320:	000e030b 	andeq	r0, lr, fp, lsl #6
    1324:	00160400 	andseq	r0, r6, r0, lsl #8
    1328:	0b3a0e03 	bleq	e84b3c <__bss_end__+0xe7a0d4>
    132c:	0b390b3b 	bleq	e44020 <__bss_end__+0xe395b8>
    1330:	00001349 	andeq	r1, r0, r9, asr #6
    1334:	49002605 	stmdbmi	r0, {r0, r2, r9, sl, sp}
    1338:	06000013 			; <UNDEFINED> instruction: 0x06000013
    133c:	0b0b000f 	bleq	2c1380 <__bss_end__+0x2b6918>
    1340:	04070000 	streq	r0, [r7], #-0
    1344:	0b0b3e01 	bleq	2d0b50 <__bss_end__+0x2c60e8>
    1348:	3a13490b 	bcc	4d377c <__bss_end__+0x4c8d14>
    134c:	390b3b0b 	stmdbcc	fp, {r0, r1, r3, r8, r9, fp, ip, sp}
    1350:	0013010b 	andseq	r0, r3, fp, lsl #2
    1354:	00280800 	eoreq	r0, r8, r0, lsl #16
    1358:	061c0e03 	ldreq	r0, [ip], -r3, lsl #28
    135c:	34090000 	strcc	r0, [r9], #-0
    1360:	3a0e0300 	bcc	381f68 <__bss_end__+0x377500>
    1364:	390b3b0b 	stmdbcc	fp, {r0, r1, r3, r8, r9, fp, ip, sp}
    1368:	3f13490b 	svccc	0x0013490b
    136c:	00193c19 	andseq	r3, r9, r9, lsl ip
    1370:	00340a00 	eorseq	r0, r4, r0, lsl #20
    1374:	0b3a0e03 	bleq	e84b88 <__bss_end__+0xe7a120>
    1378:	0b390b3b 	bleq	e4406c <__bss_end__+0xe39604>
    137c:	18021349 	stmdane	r2, {r0, r3, r6, r8, r9, ip}
    1380:	0f0b0000 	svceq	0x000b0000
    1384:	490b0b00 	stmdbmi	fp, {r8, r9, fp}
    1388:	0c000013 	stceq	0, cr0, [r0], {19}
    138c:	193f012e 	ldmdbne	pc!, {r1, r2, r3, r5, r8}	; <UNPREDICTABLE>
    1390:	0b3a0e03 	bleq	e84ba4 <__bss_end__+0xe7a13c>
    1394:	0b390b3b 	bleq	e44088 <__bss_end__+0xe39620>
    1398:	01111927 	tsteq	r1, r7, lsr #18
    139c:	18400612 	stmdane	r0, {r1, r4, r9, sl}^
    13a0:	01194297 			; <UNDEFINED> instruction: 0x01194297
    13a4:	0d000013 	stceq	0, cr0, [r0, #-76]	; 0xffffffb4
    13a8:	08030005 	stmdaeq	r3, {r0, r2}
    13ac:	0b3b0b3a 	bleq	ec409c <__bss_end__+0xeb9634>
    13b0:	13490b39 	movtne	r0, #39737	; 0x9b39
    13b4:	42b71702 	adcsmi	r1, r7, #524288	; 0x80000
    13b8:	0e000017 	mcreq	0, 0, r0, cr0, cr7, {0}
    13bc:	0e030034 	mcreq	0, 0, r0, cr3, cr4, {1}
    13c0:	19341349 	ldmdbne	r4!, {r0, r3, r6, r8, r9, ip}
    13c4:	00001802 	andeq	r1, r0, r2, lsl #16
    13c8:	0182890f 	orreq	r8, r2, pc, lsl #18
    13cc:	31011101 	tstcc	r1, r1, lsl #2
    13d0:	00130113 	andseq	r0, r3, r3, lsl r1
    13d4:	828a1000 	addhi	r1, sl, #0, 0
    13d8:	18020001 	stmdane	r2, {r0}
    13dc:	00184291 	mulseq	r8, r1, r2
    13e0:	82891100 	addhi	r1, r9, #0
    13e4:	01110001 	tsteq	r1, r1
    13e8:	00001331 	andeq	r1, r0, r1, lsr r3
    13ec:	49010112 	stmdbmi	r1, {r1, r4, r8}
    13f0:	00130113 	andseq	r0, r3, r3, lsl r1
    13f4:	00211300 	eoreq	r1, r1, r0, lsl #6
    13f8:	0b2f1349 	bleq	bc6124 <__bss_end__+0xbbb6bc>
    13fc:	2e140000 	cdpcs	0, 1, cr0, cr4, cr0, {0}
    1400:	03193f00 	tsteq	r9, #0, 30
    1404:	3b0b3a0e 	blcc	2cfc44 <__bss_end__+0x2c51dc>
    1408:	270b390b 	strcs	r3, [fp, -fp, lsl #18]
    140c:	12011119 	andne	r1, r1, #1073741830	; 0x40000006
    1410:	97184006 	ldrls	r4, [r8, -r6]
    1414:	00001942 	andeq	r1, r0, r2, asr #18
    1418:	03000515 	movweq	r0, #1301	; 0x515
    141c:	3b0b3a08 	blcc	2cfc44 <__bss_end__+0x2c51dc>
    1420:	490b390b 	stmdbmi	fp, {r0, r1, r3, r8, fp, ip, sp}
    1424:	00180213 	andseq	r0, r8, r3, lsl r2
    1428:	012e1600 			; <UNDEFINED> instruction: 0x012e1600
    142c:	0e03193f 			; <UNDEFINED> instruction: 0x0e03193f
    1430:	0b3b0b3a 	bleq	ec4120 <__bss_end__+0xeb96b8>
    1434:	19270b39 	stmdbne	r7!, {r0, r3, r4, r5, r8, r9, fp}
    1438:	01111349 	tsteq	r1, r9, asr #6
    143c:	18400612 	stmdane	r0, {r1, r4, r9, sl}^
    1440:	01194297 			; <UNDEFINED> instruction: 0x01194297
    1444:	17000013 	smladne	r0, r3, r0, r0
    1448:	0e030005 	cdpeq	0, 0, cr0, cr3, cr5, {0}
    144c:	0b3b0b3a 	bleq	ec413c <__bss_end__+0xeb96d4>
    1450:	13490b39 	movtne	r0, #39737	; 0x9b39
    1454:	42b71702 	adcsmi	r1, r7, #524288	; 0x80000
    1458:	18000017 	stmdane	r0, {r0, r1, r2, r4}
    145c:	08030034 	stmdaeq	r3, {r2, r4, r5}
    1460:	0b3b0b3a 	bleq	ec4150 <__bss_end__+0xeb96e8>
    1464:	13490b39 	movtne	r0, #39737	; 0x9b39
    1468:	42b71702 	adcsmi	r1, r7, #524288	; 0x80000
    146c:	19000017 	stmdbne	r0, {r0, r1, r2, r4}
    1470:	1331011d 	teqne	r1, #1073741831	; 0x40000007
    1474:	42b80152 	adcsmi	r0, r8, #-2147483628	; 0x80000014
    1478:	1201110b 	andne	r1, r1, #-1073741822	; 0xc0000002
    147c:	590b5806 	stmdbpl	fp, {r1, r2, fp, ip, lr}
    1480:	010b570b 	tsteq	fp, fp, lsl #14
    1484:	1a000013 	bne	14d8 <__code_start__-0x6b28>
    1488:	13310005 	teqne	r1, #5, 0
    148c:	42b71702 	adcsmi	r1, r7, #524288	; 0x80000
    1490:	1b000017 	blne	14f4 <__code_start__-0x6b0c>
    1494:	1331011d 	teqne	r1, #1073741831	; 0x40000007
    1498:	42b80152 	adcsmi	r0, r8, #-2147483628	; 0x80000014
    149c:	5817550b 	ldmdapl	r7, {r0, r1, r3, r8, sl, ip, lr}
    14a0:	570b590b 	strpl	r5, [fp, -fp, lsl #18]
    14a4:	0013010b 	andseq	r0, r3, fp, lsl #2
    14a8:	010b1c00 	tsteq	fp, r0, lsl #24
    14ac:	00001755 	andeq	r1, r0, r5, asr r7
    14b0:	0300341d 	movweq	r3, #1053	; 0x41d
    14b4:	3b0b3a0e 	blcc	2cfcf4 <__bss_end__+0x2c528c>
    14b8:	490b390b 	stmdbmi	fp, {r0, r1, r3, r8, fp, ip, sp}
    14bc:	b7170213 			; <UNDEFINED> instruction: 0xb7170213
    14c0:	00001742 	andeq	r1, r0, r2, asr #14
    14c4:	55000b1e 	strpl	r0, [r0, #-2846]	; 0xfffff4e2
    14c8:	1f000017 	svcne	0x00000017
    14cc:	193f002e 	ldmdbne	pc!, {r1, r2, r3, r5}	; <UNPREDICTABLE>
    14d0:	0b3a0e03 	bleq	e84ce4 <__bss_end__+0xe7a27c>
    14d4:	0b390b3b 	bleq	e441c8 <__bss_end__+0xe39760>
    14d8:	13491927 	movtne	r1, #39207	; 0x9927
    14dc:	06120111 			; <UNDEFINED> instruction: 0x06120111
    14e0:	42971840 	addsmi	r1, r7, #64, 16	; 0x400000
    14e4:	20000019 	andcs	r0, r0, r9, lsl r0
    14e8:	0e03012e 	adfeqsp	f0, f3, #0.5
    14ec:	0b3b0b3a 	bleq	ec41dc <__bss_end__+0xeb9774>
    14f0:	19270b39 	stmdbne	r7!, {r0, r3, r4, r5, r8, r9, fp}
    14f4:	0b201349 	bleq	806220 <__bss_end__+0x7fb7b8>
    14f8:	00001301 	andeq	r1, r0, r1, lsl #6
    14fc:	03000521 	movweq	r0, #1313	; 0x521
    1500:	3b0b3a08 	blcc	2cfd28 <__bss_end__+0x2c52c0>
    1504:	490b390b 	stmdbmi	fp, {r0, r1, r3, r8, fp, ip, sp}
    1508:	22000013 	andcs	r0, r0, #19, 0
    150c:	193f002e 	ldmdbne	pc!, {r1, r2, r3, r5}	; <UNPREDICTABLE>
    1510:	0e6e193c 			; <UNDEFINED> instruction: 0x0e6e193c
    1514:	0b3a0e03 	bleq	e84d28 <__bss_end__+0xe7a2c0>
    1518:	0b390b3b 	bleq	e4420c <__bss_end__+0xe397a4>
    151c:	01000000 	mrseq	r0, (UNDEF: 0)
    1520:	0e250111 	mcreq	1, 1, r0, cr5, cr1, {0}
    1524:	0e030b13 	vmoveq.32	d3[0], r0
    1528:	01110e1b 	tsteq	r1, fp, lsl lr
    152c:	17100612 			; <UNDEFINED> instruction: 0x17100612
    1530:	24020000 	strcs	r0, [r2], #-0
    1534:	3e0b0b00 	vmlacc.f64	d0, d11, d0
    1538:	0008030b 	andeq	r0, r8, fp, lsl #6
    153c:	00240300 	eoreq	r0, r4, r0, lsl #6
    1540:	0b3e0b0b 	bleq	f84174 <__bss_end__+0xf7970c>
    1544:	00000e03 	andeq	r0, r0, r3, lsl #28
    1548:	27011504 	strcs	r1, [r1, -r4, lsl #10]
    154c:	01134919 	tsteq	r3, r9, lsl r9
    1550:	05000013 	streq	r0, [r0, #-19]	; 0xffffffed
    1554:	13490005 	movtne	r0, #36869	; 0x9005
    1558:	34060000 	strcc	r0, [r6], #-0
    155c:	3a0e0300 	bcc	382164 <__bss_end__+0x3776fc>
    1560:	390b3b0b 	stmdbcc	fp, {r0, r1, r3, r8, r9, fp, ip, sp}
    1564:	3f13490b 	svccc	0x0013490b
    1568:	00193c19 	andseq	r3, r9, r9, lsl ip
    156c:	000f0700 	andeq	r0, pc, r0, lsl #14
    1570:	13490b0b 	movtne	r0, #39691	; 0x9b0b
    1574:	26080000 	strcs	r0, [r8], -r0
    1578:	00134900 	andseq	r4, r3, r0, lsl #18
    157c:	00340900 	eorseq	r0, r4, r0, lsl #18
    1580:	0b3a1347 	bleq	e862a4 <__bss_end__+0xe7b83c>
    1584:	0b390b3b 	bleq	e44278 <__bss_end__+0xe39810>
    1588:	00001802 	andeq	r1, r0, r2, lsl #16
    158c:	3f012e0a 	svccc	0x00012e0a
    1590:	3a0e0319 	bcc	3821fc <__bss_end__+0x377794>
    1594:	390b3b0b 	stmdbcc	fp, {r0, r1, r3, r8, r9, fp, ip, sp}
    1598:	1119270b 	tstne	r9, fp, lsl #14
    159c:	40061201 	andmi	r1, r6, r1, lsl #4
    15a0:	19429718 	stmdbne	r2, {r3, r4, r8, r9, sl, ip, pc}^
    15a4:	00001301 	andeq	r1, r0, r1, lsl #6
    15a8:	0300050b 	movweq	r0, #1291	; 0x50b
    15ac:	3b0b3a08 	blcc	2cfdd4 <__bss_end__+0x2c536c>
    15b0:	490b390b 	stmdbmi	fp, {r0, r1, r3, r8, fp, ip, sp}
    15b4:	00180213 	andseq	r0, r8, r3, lsl r2
    15b8:	002e0c00 	eoreq	r0, lr, r0, lsl #24
    15bc:	0e03193f 			; <UNDEFINED> instruction: 0x0e03193f
    15c0:	0b3b0b3a 	bleq	ec42b0 <__bss_end__+0xeb9848>
    15c4:	19270b39 	stmdbne	r7!, {r0, r3, r4, r5, r8, r9, fp}
    15c8:	06120111 			; <UNDEFINED> instruction: 0x06120111
    15cc:	42971840 	addsmi	r1, r7, #64, 16	; 0x400000
    15d0:	0d000019 	stceq	0, cr0, [r0, #-100]	; 0xffffff9c
    15d4:	0e03012e 	adfeqsp	f0, f3, #0.5
    15d8:	0b3b0b3a 	bleq	ec42c8 <__bss_end__+0xeb9860>
    15dc:	19270b39 	stmdbne	r7!, {r0, r3, r4, r5, r8, r9, fp}
    15e0:	01111349 	tsteq	r1, r9, asr #6
    15e4:	18400612 	stmdane	r0, {r1, r4, r9, sl}^
    15e8:	01194297 			; <UNDEFINED> instruction: 0x01194297
    15ec:	0e000013 	mcreq	0, 0, r0, cr0, cr3, {0}
    15f0:	08030005 	stmdaeq	r3, {r0, r2}
    15f4:	0b3b0b3a 	bleq	ec42e4 <__bss_end__+0xeb987c>
    15f8:	13490b39 	movtne	r0, #39737	; 0x9b39
    15fc:	42b71702 	adcsmi	r1, r7, #524288	; 0x80000
    1600:	0f000017 	svceq	0x00000017
    1604:	01018289 	smlabbeq	r1, r9, r2, r8
    1608:	13310111 	teqne	r1, #1073741828	; 0x40000004
    160c:	8a100000 	bhi	401614 <__bss_end__+0x3f6bac>
    1610:	02000182 	andeq	r0, r0, #-2147483616	; 0x80000020
    1614:	18429118 	stmdane	r2, {r3, r4, r8, ip, pc}^
    1618:	2e110000 	cdpcs	0, 1, cr0, cr1, cr0, {0}
    161c:	3c193f00 	ldccc	15, cr3, [r9], {-0}
    1620:	030e6e19 	movweq	r6, #60953	; 0xee19
    1624:	3b0b3a0e 	blcc	2cfe64 <__bss_end__+0x2c53fc>
    1628:	000b390b 	andeq	r3, fp, fp, lsl #18
    162c:	11010000 	mrsne	r0, (UNDEF: 1)
    1630:	130e2501 	movwne	r2, #58625	; 0xe501
    1634:	1b0e030b 	blne	382268 <__bss_end__+0x377800>
    1638:	1201110e 	andne	r1, r1, #-2147483645	; 0x80000003
    163c:	00171006 	andseq	r1, r7, r6
    1640:	00240200 	eoreq	r0, r4, r0, lsl #4
    1644:	0b3e0b0b 	bleq	f84278 <__bss_end__+0xf79810>
    1648:	00000803 	andeq	r0, r0, r3, lsl #16
    164c:	0b002403 	bleq	a660 <buf.3948>
    1650:	030b3e0b 	movweq	r3, #48651	; 0xbe0b
    1654:	0400000e 	streq	r0, [r0], #-14
    1658:	19270115 	stmdbne	r7!, {r0, r2, r4, r8}
    165c:	13011349 	movwne	r1, #4937	; 0x1349
    1660:	05050000 	streq	r0, [r5, #-0]
    1664:	00134900 	andseq	r4, r3, r0, lsl #18
    1668:	00340600 	eorseq	r0, r4, r0, lsl #12
    166c:	0b3a0e03 	bleq	e84e80 <__bss_end__+0xe7a418>
    1670:	0b390b3b 	bleq	e44364 <__bss_end__+0xe398fc>
    1674:	193f1349 	ldmdbne	pc!, {r0, r3, r6, r8, r9, ip}	; <UNPREDICTABLE>
    1678:	0000193c 	andeq	r1, r0, ip, lsr r9
    167c:	0b000f07 	bleq	52a0 <__code_start__-0x2d60>
    1680:	0013490b 	andseq	r4, r3, fp, lsl #18
    1684:	00260800 	eoreq	r0, r6, r0, lsl #16
    1688:	00001349 	andeq	r1, r0, r9, asr #6
    168c:	3f012e09 	svccc	0x00012e09
    1690:	3a0e0319 	bcc	3822fc <__bss_end__+0x377894>
    1694:	390b3b0b 	stmdbcc	fp, {r0, r1, r3, r8, r9, fp, ip, sp}
    1698:	4919270b 	ldmdbmi	r9, {r0, r1, r3, r8, r9, sl, sp}
    169c:	12011113 	andne	r1, r1, #-1073741820	; 0xc0000004
    16a0:	97184006 	ldrls	r4, [r8, -r6]
    16a4:	13011942 	movwne	r1, #6466	; 0x1942
    16a8:	050a0000 	streq	r0, [sl, #-0]
    16ac:	3a0e0300 	bcc	3822b4 <__bss_end__+0x37784c>
    16b0:	390b3b0b 	stmdbcc	fp, {r0, r1, r3, r8, r9, fp, ip, sp}
    16b4:	0213490b 	andseq	r4, r3, #180224	; 0x2c000
    16b8:	0b000018 	bleq	1720 <__code_start__-0x68e0>
    16bc:	08030005 	stmdaeq	r3, {r0, r2}
    16c0:	0b3b0b3a 	bleq	ec43b0 <__bss_end__+0xeb9948>
    16c4:	13490b39 	movtne	r0, #39737	; 0x9b39
    16c8:	42b71702 	adcsmi	r1, r7, #524288	; 0x80000
    16cc:	0c000017 	stceq	0, cr0, [r0], {23}
    16d0:	08030034 	stmdaeq	r3, {r2, r4, r5}
    16d4:	0b3b0b3a 	bleq	ec43c4 <__bss_end__+0xeb995c>
    16d8:	13490b39 	movtne	r0, #39737	; 0x9b39
    16dc:	42b71702 	adcsmi	r1, r7, #524288	; 0x80000
    16e0:	00000017 	andeq	r0, r0, r7, lsl r0
    16e4:	25011101 	strcs	r1, [r1, #-257]	; 0xfffffeff
    16e8:	030b130e 	movweq	r1, #45838	; 0xb30e
    16ec:	110e1b0e 	tstne	lr, lr, lsl #22
    16f0:	10061201 	andne	r1, r6, r1, lsl #4
    16f4:	02000017 	andeq	r0, r0, #23, 0
    16f8:	0b0b0024 	bleq	2c1790 <__bss_end__+0x2b6d28>
    16fc:	08030b3e 	stmdaeq	r3, {r1, r2, r3, r4, r5, r8, r9, fp}
    1700:	24030000 	strcs	r0, [r3], #-0
    1704:	3e0b0b00 	vmlacc.f64	d0, d11, d0
    1708:	000e030b 	andeq	r0, lr, fp, lsl #6
    170c:	01150400 	tsteq	r5, r0, lsl #8
    1710:	13491927 	movtne	r1, #39207	; 0x9927
    1714:	00001301 	andeq	r1, r0, r1, lsl #6
    1718:	49000505 	stmdbmi	r0, {r0, r2, r8, sl}
    171c:	06000013 			; <UNDEFINED> instruction: 0x06000013
    1720:	0e030034 	mcreq	0, 0, r0, cr3, cr4, {1}
    1724:	0b3b0b3a 	bleq	ec4414 <__bss_end__+0xeb99ac>
    1728:	13490b39 	movtne	r0, #39737	; 0x9b39
    172c:	193c193f 	ldmdbne	ip!, {r0, r1, r2, r3, r4, r5, r8, fp, ip}
    1730:	0f070000 	svceq	0x00070000
    1734:	490b0b00 	stmdbmi	fp, {r8, r9, fp}
    1738:	08000013 	stmdaeq	r0, {r0, r1, r4}
    173c:	13490026 	movtne	r0, #36902	; 0x9026
    1740:	2e090000 	cdpcs	0, 0, cr0, cr9, cr0, {0}
    1744:	03193f01 	tsteq	r9, #1, 30
    1748:	3b0b3a0e 	blcc	2cff88 <__bss_end__+0x2c5520>
    174c:	270b390b 	strcs	r3, [fp, -fp, lsl #18]
    1750:	11134919 	tstne	r3, r9, lsl r9
    1754:	40061201 	andmi	r1, r6, r1, lsl #4
    1758:	19429718 	stmdbne	r2, {r3, r4, r8, r9, sl, ip, pc}^
    175c:	050a0000 	streq	r0, [sl, #-0]
    1760:	3a080300 	bcc	202368 <__bss_end__+0x1f7900>
    1764:	390b3b0b 	stmdbcc	fp, {r0, r1, r3, r8, r9, fp, ip, sp}
    1768:	0213490b 	andseq	r4, r3, #180224	; 0x2c000
    176c:	1742b717 	smlaldne	fp, r2, r7, r7
    1770:	01000000 	mrseq	r0, (UNDEF: 0)
    1774:	0e250111 	mcreq	1, 1, r0, cr5, cr1, {0}
    1778:	0e030b13 	vmoveq.32	d3[0], r0
    177c:	01110e1b 	tsteq	r1, fp, lsl lr
    1780:	17100612 			; <UNDEFINED> instruction: 0x17100612
    1784:	24020000 	strcs	r0, [r2], #-0
    1788:	3e0b0b00 	vmlacc.f64	d0, d11, d0
    178c:	0008030b 	andeq	r0, r8, fp, lsl #6
    1790:	00240300 	eoreq	r0, r4, r0, lsl #6
    1794:	0b3e0b0b 	bleq	f843c8 <__bss_end__+0xf79960>
    1798:	00000e03 	andeq	r0, r0, r3, lsl #28
    179c:	27011504 	strcs	r1, [r1, -r4, lsl #10]
    17a0:	01134919 	tsteq	r3, r9, lsl r9
    17a4:	05000013 	streq	r0, [r0, #-19]	; 0xffffffed
    17a8:	13490005 	movtne	r0, #36869	; 0x9005
    17ac:	34060000 	strcc	r0, [r6], #-0
    17b0:	3a0e0300 	bcc	3823b8 <__bss_end__+0x377950>
    17b4:	390b3b0b 	stmdbcc	fp, {r0, r1, r3, r8, r9, fp, ip, sp}
    17b8:	3f13490b 	svccc	0x0013490b
    17bc:	00193c19 	andseq	r3, r9, r9, lsl ip
    17c0:	000f0700 	andeq	r0, pc, r0, lsl #14
    17c4:	13490b0b 	movtne	r0, #39691	; 0x9b0b
    17c8:	26080000 	strcs	r0, [r8], -r0
    17cc:	00134900 	andseq	r4, r3, r0, lsl #18
    17d0:	012e0900 			; <UNDEFINED> instruction: 0x012e0900
    17d4:	0e03193f 			; <UNDEFINED> instruction: 0x0e03193f
    17d8:	0b3b0b3a 	bleq	ec44c8 <__bss_end__+0xeb9a60>
    17dc:	19270b39 	stmdbne	r7!, {r0, r3, r4, r5, r8, r9, fp}
    17e0:	01111349 	tsteq	r1, r9, asr #6
    17e4:	18400612 	stmdane	r0, {r1, r4, r9, sl}^
    17e8:	01194297 			; <UNDEFINED> instruction: 0x01194297
    17ec:	0a000013 	beq	1840 <__code_start__-0x67c0>
    17f0:	08030005 	stmdaeq	r3, {r0, r2}
    17f4:	0b3b0b3a 	bleq	ec44e4 <__bss_end__+0xeb9a7c>
    17f8:	13490b39 	movtne	r0, #39737	; 0x9b39
    17fc:	00001802 	andeq	r1, r0, r2, lsl #16
    1800:	0300050b 	movweq	r0, #1291	; 0x50b
    1804:	3b0b3a08 	blcc	2d002c <__bss_end__+0x2c55c4>
    1808:	490b390b 	stmdbmi	fp, {r0, r1, r3, r8, fp, ip, sp}
    180c:	b7170213 			; <UNDEFINED> instruction: 0xb7170213
    1810:	00001742 	andeq	r1, r0, r2, asr #14
    1814:	0300340c 	movweq	r3, #1036	; 0x40c
    1818:	3b0b3a08 	blcc	2d0040 <__bss_end__+0x2c55d8>
    181c:	490b390b 	stmdbmi	fp, {r0, r1, r3, r8, fp, ip, sp}
    1820:	b7170213 			; <UNDEFINED> instruction: 0xb7170213
    1824:	00001742 	andeq	r1, r0, r2, asr #14
    1828:	01110100 	tsteq	r1, r0, lsl #2
    182c:	0b130e25 	bleq	4c50c8 <__bss_end__+0x4ba660>
    1830:	0e1b0e03 	cdpeq	14, 1, cr0, cr11, cr3, {0}
    1834:	01111755 	tsteq	r1, r5, asr r7
    1838:	00001710 	andeq	r1, r0, r0, lsl r7
    183c:	0b002402 	bleq	a84c <buf.3948+0x1ec>
    1840:	030b3e0b 	movweq	r3, #48651	; 0xbe0b
    1844:	03000008 	movweq	r0, #8
    1848:	0e030016 	mcreq	0, 0, r0, cr3, cr6, {0}
    184c:	0b3b0b3a 	bleq	ec453c <__bss_end__+0xeb9ad4>
    1850:	13490b39 	movtne	r0, #39737	; 0x9b39
    1854:	24040000 	strcs	r0, [r4], #-0
    1858:	3e0b0b00 	vmlacc.f64	d0, d11, d0
    185c:	000e030b 	andeq	r0, lr, fp, lsl #6
    1860:	00260500 	eoreq	r0, r6, r0, lsl #10
    1864:	00001349 	andeq	r1, r0, r9, asr #6
    1868:	27011506 	strcs	r1, [r1, -r6, lsl #10]
    186c:	01134919 	tsteq	r3, r9, lsl r9
    1870:	07000013 	smladeq	r0, r3, r0, r0
    1874:	13490005 	movtne	r0, #36869	; 0x9005
    1878:	34080000 	strcc	r0, [r8], #-0
    187c:	3a0e0300 	bcc	382484 <__bss_end__+0x377a1c>
    1880:	390b3b0b 	stmdbcc	fp, {r0, r1, r3, r8, r9, fp, ip, sp}
    1884:	3f13490b 	svccc	0x0013490b
    1888:	00193c19 	andseq	r3, r9, r9, lsl ip
    188c:	000f0900 	andeq	r0, pc, r0, lsl #18
    1890:	13490b0b 	movtne	r0, #39691	; 0x9b0b
    1894:	2e0a0000 	cdpcs	0, 0, cr0, cr10, cr0, {0}
    1898:	03193f01 	tsteq	r9, #1, 30
    189c:	3b0b3a0e 	blcc	2d00dc <__bss_end__+0x2c5674>
    18a0:	270b390b 	strcs	r3, [fp, -fp, lsl #18]
    18a4:	11134919 	tstne	r3, r9, lsl r9
    18a8:	40061201 	andmi	r1, r6, r1, lsl #4
    18ac:	19429718 	stmdbne	r2, {r3, r4, r8, r9, sl, ip, pc}^
    18b0:	00001301 	andeq	r1, r0, r1, lsl #6
    18b4:	0300050b 	movweq	r0, #1291	; 0x50b
    18b8:	3b0b3a08 	blcc	2d00e0 <__bss_end__+0x2c5678>
    18bc:	490b390b 	stmdbmi	fp, {r0, r1, r3, r8, fp, ip, sp}
    18c0:	b7170213 			; <UNDEFINED> instruction: 0xb7170213
    18c4:	00001742 	andeq	r1, r0, r2, asr #14
    18c8:	0300340c 	movweq	r3, #1036	; 0x40c
    18cc:	3b0b3a08 	blcc	2d00f4 <__bss_end__+0x2c568c>
    18d0:	490b390b 	stmdbmi	fp, {r0, r1, r3, r8, fp, ip, sp}
    18d4:	b7170213 			; <UNDEFINED> instruction: 0xb7170213
    18d8:	00001742 	andeq	r1, r0, r2, asr #14
    18dc:	01110100 	tsteq	r1, r0, lsl #2
    18e0:	0b130e25 	bleq	4c517c <__bss_end__+0x4ba714>
    18e4:	0e1b0e03 	cdpeq	14, 1, cr0, cr11, cr3, {0}
    18e8:	06120111 			; <UNDEFINED> instruction: 0x06120111
    18ec:	00001710 	andeq	r1, r0, r0, lsl r7
    18f0:	0b002402 	bleq	a900 <buf.3948+0x2a0>
    18f4:	030b3e0b 	movweq	r3, #48651	; 0xbe0b
    18f8:	03000008 	movweq	r0, #8
    18fc:	0b0b0024 	bleq	2c1994 <__bss_end__+0x2b6f2c>
    1900:	0e030b3e 	vmoveq.16	d3[0], r0
    1904:	15040000 	strne	r0, [r4, #-0]
    1908:	49192701 	ldmdbmi	r9, {r0, r8, r9, sl, sp}
    190c:	00130113 	andseq	r0, r3, r3, lsl r1
    1910:	00050500 	andeq	r0, r5, r0, lsl #10
    1914:	00001349 	andeq	r1, r0, r9, asr #6
    1918:	03003406 	movweq	r3, #1030	; 0x406
    191c:	3b0b3a0e 	blcc	2d015c <__bss_end__+0x2c56f4>
    1920:	490b390b 	stmdbmi	fp, {r0, r1, r3, r8, fp, ip, sp}
    1924:	3c193f13 	ldccc	15, cr3, [r9], {19}
    1928:	07000019 	smladeq	r0, r9, r0, r0
    192c:	0b0b000f 	bleq	2c1970 <__bss_end__+0x2b6f08>
    1930:	00001349 	andeq	r1, r0, r9, asr #6
    1934:	49002608 	stmdbmi	r0, {r3, r9, sl, sp}
    1938:	09000013 	stmdbeq	r0, {r0, r1, r4}
    193c:	193f002e 	ldmdbne	pc!, {r1, r2, r3, r5}	; <UNPREDICTABLE>
    1940:	0b3a0e03 	bleq	e85154 <__bss_end__+0xe7a6ec>
    1944:	0b390b3b 	bleq	e44638 <__bss_end__+0xe39bd0>
    1948:	01111927 	tsteq	r1, r7, lsr #18
    194c:	18400612 	stmdane	r0, {r1, r4, r9, sl}^
    1950:	00194297 	mulseq	r9, r7, r2
    1954:	11010000 	mrsne	r0, (UNDEF: 1)
    1958:	130e2501 	movwne	r2, #58625	; 0xe501
    195c:	1b0e030b 	blne	382590 <__bss_end__+0x377b28>
    1960:	1201110e 	andne	r1, r1, #-2147483645	; 0x80000003
    1964:	00171006 	andseq	r1, r7, r6
    1968:	00240200 	eoreq	r0, r4, r0, lsl #4
    196c:	0b3e0b0b 	bleq	f845a0 <__bss_end__+0xf79b38>
    1970:	00000803 	andeq	r0, r0, r3, lsl #16
    1974:	0b002403 	bleq	a988 <buf.3948+0x328>
    1978:	030b3e0b 	movweq	r3, #48651	; 0xbe0b
    197c:	0400000e 	streq	r0, [r0], #-14
    1980:	13490026 	movtne	r0, #36902	; 0x9026
    1984:	16050000 	strne	r0, [r5], -r0
    1988:	3a0e0300 	bcc	382590 <__bss_end__+0x377b28>
    198c:	390b3b0b 	stmdbcc	fp, {r0, r1, r3, r8, r9, fp, ip, sp}
    1990:	0013490b 	andseq	r4, r3, fp, lsl #18
    1994:	01040600 	tsteq	r4, r0, lsl #12
    1998:	0b0b0b3e 	bleq	2c4698 <__bss_end__+0x2b9c30>
    199c:	0b3a1349 	bleq	e866c8 <__bss_end__+0xe7bc60>
    19a0:	0b390b3b 	bleq	e44694 <__bss_end__+0xe39c2c>
    19a4:	00001301 	andeq	r1, r0, r1, lsl #6
    19a8:	03002807 	movweq	r2, #2055	; 0x807
    19ac:	000b1c0e 	andeq	r1, fp, lr, lsl #24
    19b0:	00340800 	eorseq	r0, r4, r0, lsl #16
    19b4:	0b3a0e03 	bleq	e851c8 <__bss_end__+0xe7a760>
    19b8:	0b390b3b 	bleq	e446ac <__bss_end__+0xe39c44>
    19bc:	061c1349 	ldreq	r1, [ip], -r9, asr #6
    19c0:	2e090000 	cdpcs	0, 0, cr0, cr9, cr0, {0}
    19c4:	03193f01 	tsteq	r9, #1, 30
    19c8:	3b0b3a0e 	blcc	2d0208 <__bss_end__+0x2c57a0>
    19cc:	270b390b 	strcs	r3, [fp, -fp, lsl #18]
    19d0:	11134919 	tstne	r3, r9, lsl r9
    19d4:	40061201 	andmi	r1, r6, r1, lsl #4
    19d8:	19429718 	stmdbne	r2, {r3, r4, r8, r9, sl, ip, pc}^
    19dc:	00001301 	andeq	r1, r0, r1, lsl #6
    19e0:	0300050a 	movweq	r0, #1290	; 0x50a
    19e4:	3b0b3a08 	blcc	2d020c <__bss_end__+0x2c57a4>
    19e8:	490b390b 	stmdbmi	fp, {r0, r1, r3, r8, fp, ip, sp}
    19ec:	b7170213 			; <UNDEFINED> instruction: 0xb7170213
    19f0:	00001742 	andeq	r1, r0, r2, asr #14
    19f4:	0300340b 	movweq	r3, #1035	; 0x40b
    19f8:	3b0b3a0e 	blcc	2d0238 <__bss_end__+0x2c57d0>
    19fc:	490b390b 	stmdbmi	fp, {r0, r1, r3, r8, fp, ip, sp}
    1a00:	b7170213 			; <UNDEFINED> instruction: 0xb7170213
    1a04:	00001742 	andeq	r1, r0, r2, asr #14
    1a08:	0300340c 	movweq	r3, #1036	; 0x40c
    1a0c:	3b0b3a08 	blcc	2d0234 <__bss_end__+0x2c57cc>
    1a10:	490b390b 	stmdbmi	fp, {r0, r1, r3, r8, fp, ip, sp}
    1a14:	b7170213 			; <UNDEFINED> instruction: 0xb7170213
    1a18:	00001742 	andeq	r1, r0, r2, asr #14
    1a1c:	0182890d 	orreq	r8, r2, sp, lsl #18
    1a20:	31011101 	tstcc	r1, r1, lsl #2
    1a24:	0e000013 	mcreq	0, 0, r0, cr0, cr3, {0}
    1a28:	0001828a 	andeq	r8, r1, sl, lsl #5
    1a2c:	42911802 	addsmi	r1, r1, #131072	; 0x20000
    1a30:	0f000018 	svceq	0x00000018
    1a34:	193f012e 	ldmdbne	pc!, {r1, r2, r3, r5, r8}	; <UNPREDICTABLE>
    1a38:	0b3a0e03 	bleq	e8524c <__bss_end__+0xe7a7e4>
    1a3c:	0b390b3b 	bleq	e44730 <__bss_end__+0xe39cc8>
    1a40:	01111927 	tsteq	r1, r7, lsr #18
    1a44:	18400612 	stmdane	r0, {r1, r4, r9, sl}^
    1a48:	01194297 			; <UNDEFINED> instruction: 0x01194297
    1a4c:	10000013 	andne	r0, r0, r3, lsl r0
    1a50:	01018289 	smlabbeq	r1, r9, r2, r8
    1a54:	13310111 	teqne	r1, #1073741828	; 0x40000004
    1a58:	00001301 	andeq	r1, r0, r1, lsl #6
    1a5c:	01828911 	orreq	r8, r2, r1, lsl r9
    1a60:	31011100 	mrscc	r1, (UNDEF: 17)
    1a64:	12000013 	andne	r0, r0, #19, 0
    1a68:	0e030005 	cdpeq	0, 0, cr0, cr3, cr5, {0}
    1a6c:	0b3b0b3a 	bleq	ec475c <__bss_end__+0xeb9cf4>
    1a70:	13490b39 	movtne	r0, #39737	; 0x9b39
    1a74:	42b71702 	adcsmi	r1, r7, #524288	; 0x80000
    1a78:	13000017 	movwne	r0, #23
    1a7c:	0e03012e 	adfeqsp	f0, f3, #0.5
    1a80:	0b3b0b3a 	bleq	ec4770 <__bss_end__+0xeb9d08>
    1a84:	19270b39 	stmdbne	r7!, {r0, r3, r4, r5, r8, r9, fp}
    1a88:	0b201349 	bleq	8067b4 <__bss_end__+0x7fbd4c>
    1a8c:	00001301 	andeq	r1, r0, r1, lsl #6
    1a90:	03000514 	movweq	r0, #1300	; 0x514
    1a94:	3b0b3a08 	blcc	2d02bc <__bss_end__+0x2c5854>
    1a98:	490b390b 	stmdbmi	fp, {r0, r1, r3, r8, fp, ip, sp}
    1a9c:	15000013 	strne	r0, [r0, #-19]	; 0xffffffed
    1aa0:	193f002e 	ldmdbne	pc!, {r1, r2, r3, r5}	; <UNPREDICTABLE>
    1aa4:	0e6e193c 			; <UNDEFINED> instruction: 0x0e6e193c
    1aa8:	0b3a0e03 	bleq	e852bc <__bss_end__+0xe7a854>
    1aac:	0b390b3b 	bleq	e447a0 <__bss_end__+0xe39d38>
    1ab0:	Address 0x0000000000001ab0 is out of bounds.


Disassembly of section .debug_loc:

00000000 <.debug_loc>:
       0:	00000000 	andeq	r0, r0, r0
       4:	0000007c 	andeq	r0, r0, ip, ror r0
       8:	00000080 	andeq	r0, r0, r0, lsl #1
       c:	80500001 	subshi	r0, r0, r1
      10:	83000000 	movwhi	r0, #0
      14:	01000000 	mrseq	r0, (UNDEF: 0)
      18:	00005100 	andeq	r5, r0, r0, lsl #2
	...
      28:	00340000 	eorseq	r0, r4, r0
      2c:	003c0000 	eorseq	r0, ip, r0
      30:	00010000 	andeq	r0, r1, r0
      34:	00003c50 	andeq	r3, r0, r0, asr ip
      38:	00003f00 	andeq	r3, r0, r0, lsl #30
      3c:	51000100 	mrspl	r0, (UNDEF: 16)
      40:	0000003f 	andeq	r0, r0, pc, lsr r0
      44:	0000005c 	andeq	r0, r0, ip, asr r0
      48:	5c540001 	mrrcpl	0, 0, r0, r4, cr1
      4c:	68000000 	stmdavs	r0, {}	; <UNPREDICTABLE>
      50:	03000000 	movweq	r0, #0
      54:	9f7f7000 	svcls	0x007f7000
	...
      60:	00080001 	andeq	r0, r8, r1
      64:	00200000 	eoreq	r0, r0, r0
      68:	00020000 	andeq	r0, r2, r0
      6c:	00009f37 	andeq	r9, r0, r7, lsr pc
      70:	00000000 	andeq	r0, r0, r0
      74:	00010000 	andeq	r0, r1, r0
      78:	00000008 	andeq	r0, r0, r8
      7c:	00000020 	andeq	r0, r0, r0, lsr #32
      80:	26f20006 	ldrbtcs	r0, [r2], r6
      84:	00000004 	andeq	r0, r0, r4
	...
      90:	00080001 	andeq	r0, r8, r1
      94:	00200000 	eoreq	r0, r0, r0
      98:	00060000 	andeq	r0, r6, r0
      9c:	009d7803 	addseq	r7, sp, r3, lsl #16
      a0:	00009f00 	andeq	r9, r0, r0, lsl #30
	...
      b0:	00000310 	andeq	r0, r0, r0, lsl r3
      b4:	00000328 	andeq	r0, r0, r8, lsr #6
      b8:	28500001 	ldmdacs	r0, {r0}^
      bc:	a0000003 	andge	r0, r0, r3
      c0:	01000003 	tsteq	r0, r3
      c4:	03a05600 	moveq	r5, #0, 12
      c8:	03ac0000 			; <UNDEFINED> instruction: 0x03ac0000
      cc:	00040000 	andeq	r0, r4, r0
      d0:	9f5001f3 	svcls	0x005001f3
	...
      e0:	03300000 	teqeq	r0, #0, 0
      e4:	033b0000 	teqeq	fp, #0, 0
      e8:	00010000 	andeq	r0, r1, r0
      ec:	00033b50 	andeq	r3, r3, r0, asr fp
      f0:	0003a000 	andeq	sl, r3, r0
      f4:	54000100 	strpl	r0, [r0], #-256	; 0xffffff00
      f8:	000003a0 	andeq	r0, r0, r0, lsr #7
      fc:	000003ac 	andeq	r0, r0, ip, lsr #7
     100:	5c700003 	ldclpl	0, cr0, [r0], #-12
     104:	0000009f 	muleq	r0, pc, r0	; <UNPREDICTABLE>
	...
     110:	0001f400 	andeq	pc, r1, r0, lsl #8
     114:	00020400 	andeq	r0, r2, r0, lsl #8
     118:	50000100 	andpl	r0, r0, r0, lsl #2
     11c:	00000204 	andeq	r0, r0, r4, lsl #4
     120:	00000310 	andeq	r0, r0, r0, lsl r3
     124:	00540001 	subseq	r0, r4, r1
     128:	00000000 	andeq	r0, r0, r0
     12c:	01000000 	mrseq	r0, (UNDEF: 0)
     130:	00000000 	andeq	r0, r0, r0
     134:	08000000 	stmdaeq	r0, {}	; <UNPREDICTABLE>
     138:	18000002 	stmdane	r0, {r1}
     13c:	03000002 	movweq	r0, #2
     140:	9f5c7400 	svcls	0x005c7400
     144:	00000218 	andeq	r0, r0, r8, lsl r2
     148:	00000280 	andeq	r0, r0, r0, lsl #5
     14c:	80550001 	subshi	r0, r5, r1
     150:	a8000002 	stmdage	r0, {r1}
     154:	03000002 	movweq	r0, #2
     158:	9f5c7400 	svcls	0x005c7400
     15c:	000002a8 	andeq	r0, r0, r8, lsr #5
     160:	00000310 	andeq	r0, r0, r0, lsl r3
     164:	00550001 	subseq	r0, r5, r1
	...
     170:	a4000000 	strge	r0, [r0], #-0
     174:	af000001 	svcge	0x00000001
     178:	01000001 	tsteq	r0, r1
     17c:	01af5000 			; <UNDEFINED> instruction: 0x01af5000
     180:	01f40000 	mvnseq	r0, r0
     184:	00010000 	andeq	r0, r1, r0
     188:	00000055 	andeq	r0, r0, r5, asr r0
	...
     198:	0001b400 	andeq	fp, r1, r0, lsl #8
     19c:	0001b800 	andeq	fp, r1, r0, lsl #16
     1a0:	50000100 	andpl	r0, r0, r0, lsl #2
     1a4:	000001b8 			; <UNDEFINED> instruction: 0x000001b8
     1a8:	000001c4 	andeq	r0, r0, r4, asr #3
     1ac:	c4540001 	ldrbgt	r0, [r4], #-1
     1b0:	d7000001 	strle	r0, [r0, -r1]
     1b4:	01000001 	tsteq	r0, r1
     1b8:	01d75000 	bicseq	r5, r7, r0
     1bc:	01f40000 	mvnseq	r0, r0
     1c0:	00010000 	andeq	r0, r1, r0
     1c4:	00000054 	andeq	r0, r0, r4, asr r0
	...
     1d4:	6c000000 	stcvs	0, cr0, [r0], {-0}
     1d8:	84000001 	strhi	r0, [r0], #-1
     1dc:	01000001 	tsteq	r0, r1
     1e0:	01845000 	orreq	r5, r4, r0
     1e4:	01900000 	orrseq	r0, r0, r0
     1e8:	00030000 	andeq	r0, r3, r0
     1ec:	909f5c70 	addsls	r5, pc, r0, ror ip	; <UNPREDICTABLE>
     1f0:	94000001 	strls	r0, [r0], #-1
     1f4:	04000001 	streq	r0, [r0], #-1
     1f8:	5001f300 	andpl	pc, r1, r0, lsl #6
     1fc:	0001949f 	muleq	r1, pc, r4	; <UNPREDICTABLE>
     200:	00019800 	andeq	r9, r1, r0, lsl #16
     204:	50000100 	andpl	r0, r0, r0, lsl #2
     208:	00000198 	muleq	r0, r8, r1
     20c:	000001a4 	andeq	r0, r0, r4, lsr #3
     210:	01f30004 	mvnseq	r0, r4
     214:	00009f50 	andeq	r9, r0, r0, asr pc
	...
     220:	01580000 	cmpeq	r8, r0
     224:	01640000 	cmneq	r4, r0
     228:	00010000 	andeq	r0, r1, r0
     22c:	00016450 	andeq	r6, r1, r0, asr r4
     230:	00016c00 	andeq	r6, r1, r0, lsl #24
     234:	f3000400 	vshl.u8	d0, d0, d0
     238:	009f5001 	addseq	r5, pc, r1
	...
     244:	00016400 	andeq	r6, r1, r0, lsl #8
     248:	00016c00 	andeq	r6, r1, r0, lsl #24
     24c:	50000100 	andpl	r0, r0, r0, lsl #2
	...
     25c:	00000150 	andeq	r0, r0, r0, asr r1
     260:	00000154 	andeq	r0, r0, r4, asr r1
     264:	54500001 	ldrbpl	r0, [r0], #-1
     268:	58000001 	stmdapl	r0, {r0}
     26c:	03000001 	movweq	r0, #1
     270:	9f5c7000 	svcls	0x005c7000
	...
     280:	00000130 	andeq	r0, r0, r0, lsr r1
     284:	0000013b 	andeq	r0, r0, fp, lsr r1
     288:	3b500001 	blcc	1400294 <__bss_end__+0x13f582c>
     28c:	48000001 	stmdami	r0, {r0}
     290:	01000001 	tsteq	r0, r1
     294:	00005400 	andeq	r5, r0, r0, lsl #8
	...
     2a0:	0000013c 	andeq	r0, r0, ip, lsr r1
     2a4:	00000140 	andeq	r0, r0, r0, asr #2
     2a8:	00540001 	subseq	r0, r4, r1
	...
     2b4:	28000000 	stmdacs	r0, {}	; <UNPREDICTABLE>
     2b8:	2c000001 	stccs	0, cr0, [r0], {1}
     2bc:	01000001 	tsteq	r0, r1
     2c0:	012c5000 			; <UNDEFINED> instruction: 0x012c5000
     2c4:	01300000 	teqeq	r0, r0
     2c8:	00030000 	andeq	r0, r3, r0
     2cc:	009f5c70 	addseq	r5, pc, r0, ror ip	; <UNPREDICTABLE>
	...
     2d8:	84000000 	strhi	r0, [r0], #-0
     2dc:	90000000 	andls	r0, r0, r0
     2e0:	01000000 	mrseq	r0, (UNDEF: 0)
     2e4:	00905000 	addseq	r5, r0, r0
     2e8:	00940000 	addseq	r0, r4, r0
     2ec:	00040000 	andeq	r0, r4, r0
     2f0:	9f5001f3 	svcls	0x005001f3
	...
     304:	00000058 	andeq	r0, r0, r8, asr r0
     308:	58500001 	ldmdapl	r0, {r0}^
     30c:	74000000 	strvc	r0, [r0], #-0
     310:	04000000 	streq	r0, [r0], #-0
     314:	5001f300 	andpl	pc, r1, r0, lsl #6
     318:	0000009f 	muleq	r0, pc, r0	; <UNPREDICTABLE>
	...
     328:	00005400 	andeq	r5, r0, r0, lsl #8
     32c:	51000100 	mrspl	r0, (UNDEF: 16)
     330:	00000054 	andeq	r0, r0, r4, asr r0
     334:	00000074 	andeq	r0, r0, r4, ror r0
     338:	01f30004 	mvnseq	r0, r4
     33c:	00009f51 	andeq	r9, r0, r1, asr pc
     340:	00000000 	andeq	r0, r0, r0
     344:	00030000 	andeq	r0, r3, r0
     348:	00000018 	andeq	r0, r0, r8, lsl r0
     34c:	00000028 	andeq	r0, r0, r8, lsr #32
     350:	00530001 	subseq	r0, r3, r1
	...
     360:	94000000 	strls	r0, [r0], #-0
     364:	b0000000 	andlt	r0, r0, r0
     368:	01000000 	mrseq	r0, (UNDEF: 0)
     36c:	00b05000 	adcseq	r5, r0, r0
     370:	00d80000 	sbcseq	r0, r8, r0
     374:	00040000 	andeq	r0, r4, r0
     378:	9f5001f3 	svcls	0x005001f3
     37c:	000000d8 	ldrdeq	r0, [r0], -r8
     380:	000000f0 	strdeq	r0, [r0], -r0	; <UNPREDICTABLE>
     384:	f0500001 			; <UNDEFINED> instruction: 0xf0500001
     388:	28000000 	stmdacs	r0, {}	; <UNPREDICTABLE>
     38c:	04000001 	streq	r0, [r0], #-1
     390:	5001f300 	andpl	pc, r1, r0, lsl #6
     394:	0000009f 	muleq	r0, pc, r0	; <UNPREDICTABLE>
	...
     3a4:	94000000 	strls	r0, [r0], #-0
     3a8:	b0000000 	andlt	r0, r0, r0
     3ac:	01000000 	mrseq	r0, (UNDEF: 0)
     3b0:	00b05100 	adcseq	r5, r0, r0, lsl #2
     3b4:	00d80000 	sbcseq	r0, r8, r0
     3b8:	00010000 	andeq	r0, r1, r0
     3bc:	0000d854 	andeq	sp, r0, r4, asr r8
     3c0:	0000ec00 	andeq	lr, r0, r0, lsl #24
     3c4:	51000100 	mrspl	r0, (UNDEF: 16)
     3c8:	000000ec 	andeq	r0, r0, ip, ror #1
     3cc:	000000f8 	strdeq	r0, [r0], -r8
     3d0:	01f30004 	mvnseq	r0, r4
     3d4:	00f89f51 	rscseq	r9, r8, r1, asr pc
     3d8:	01280000 			; <UNDEFINED> instruction: 0x01280000
     3dc:	00010000 	andeq	r0, r1, r0
     3e0:	00000054 	andeq	r0, r0, r4, asr r0
     3e4:	00000000 	andeq	r0, r0, r0
     3e8:	00000300 	andeq	r0, r0, r0, lsl #6
     3ec:	a8000001 	stmdage	r0, {r0}
     3f0:	b7000000 	strlt	r0, [r0, -r0]
     3f4:	01000000 	mrseq	r0, (UNDEF: 0)
     3f8:	00b75000 	adcseq	r5, r7, r0
     3fc:	00d00000 	sbcseq	r0, r0, r0
     400:	00010000 	andeq	r0, r1, r0
     404:	0000f855 	andeq	pc, r0, r5, asr r8	; <UNPREDICTABLE>
     408:	00012800 	andeq	r2, r1, r0, lsl #16
     40c:	55000100 	strpl	r0, [r0, #-256]	; 0xffffff00
	...
     418:	00000100 	andeq	r0, r0, r0, lsl #2
     41c:	000000b8 	strheq	r0, [r0], -r8
     420:	000000d0 	ldrdeq	r0, [r0], -r0	; <UNPREDICTABLE>
     424:	f8500001 			; <UNDEFINED> instruction: 0xf8500001
     428:	0c000000 	stceq	0, cr0, [r0], {-0}
     42c:	01000001 	tsteq	r0, r1
     430:	00005000 	andeq	r5, r0, r0
	...
     43c:	00000568 	andeq	r0, r0, r8, ror #10
     440:	0000056c 	andeq	r0, r0, ip, ror #10
     444:	00500001 	subseq	r0, r0, r1
     448:	00000000 	andeq	r0, r0, r0
     44c:	01000000 	mrseq	r0, (UNDEF: 0)
     450:	40000000 	andmi	r0, r0, r0
     454:	68000001 	stmdavs	r0, {r0}
     458:	02000001 	andeq	r0, r0, #1, 0
     45c:	689f3000 	ldmvs	pc, {ip, sp}	; <UNPREDICTABLE>
     460:	f4000001 	vst4.8	{d0-d3}, [r0], r1
     464:	01000001 	tsteq	r0, r1
     468:	00005500 	andeq	r5, r0, r0, lsl #10
     46c:	00000000 	andeq	r0, r0, r0
     470:	00010000 	andeq	r0, r1, r0
     474:	01400000 	mrseq	r0, (UNDEF: 64)
     478:	01680000 	cmneq	r8, r0
     47c:	00020000 	andeq	r0, r2, r0
     480:	01689f30 	cmneq	r8, r0, lsr pc
     484:	01f40000 	mvnseq	r0, r0
     488:	00010000 	andeq	r0, r1, r0
     48c:	00000057 	andeq	r0, r0, r7, asr r0
     490:	00000000 	andeq	r0, r0, r0
     494:	00000100 	andeq	r0, r0, r0, lsl #2
     498:	00014000 	andeq	r4, r1, r0
     49c:	00016800 	andeq	r6, r1, r0, lsl #16
     4a0:	30000200 	andcc	r0, r0, r0, lsl #4
     4a4:	0001689f 	muleq	r1, pc, r8	; <UNPREDICTABLE>
     4a8:	0001f400 	andeq	pc, r1, r0, lsl #8
     4ac:	56000100 	strpl	r0, [r0], -r0, lsl #2
	...
     4c4:	01580000 	cmpeq	r8, r0
     4c8:	01680000 	cmneq	r8, r0
     4cc:	00010000 	andeq	r0, r1, r0
     4d0:	00016850 	andeq	r6, r1, r0, asr r8
     4d4:	00017400 	andeq	r7, r1, r0, lsl #8
     4d8:	54000100 	strpl	r0, [r0], #-256	; 0xffffff00
     4dc:	00000174 	andeq	r0, r0, r4, ror r1
     4e0:	000001c0 	andeq	r0, r0, r0, asr #3
     4e4:	c0500001 	subsgt	r0, r0, r1
     4e8:	c3000001 	movwgt	r0, #1
     4ec:	01000001 	tsteq	r0, r1
     4f0:	01c35100 	biceq	r5, r3, r0, lsl #2
     4f4:	01c80000 	biceq	r0, r8, r0
     4f8:	00010000 	andeq	r0, r1, r0
     4fc:	0001c854 	andeq	ip, r1, r4, asr r8
     500:	0001d800 	andeq	sp, r1, r0, lsl #16
     504:	50000100 	andpl	r0, r0, r0, lsl #2
     508:	000001d8 	ldrdeq	r0, [r0], -r8
     50c:	000001f4 	strdeq	r0, [r0], -r4
     510:	00540001 	subseq	r0, r4, r1
	...
     520:	00051800 	andeq	r1, r5, r0, lsl #16
     524:	00052800 	andeq	r2, r5, r0, lsl #16
     528:	50000100 	andpl	r0, r0, r0, lsl #2
     52c:	00000528 	andeq	r0, r0, r8, lsr #10
     530:	0000052b 	andeq	r0, r0, fp, lsr #10
     534:	2b510001 	blcs	1440540 <__bss_end__+0x1435ad8>
     538:	5c000005 	stcpl	0, cr0, [r0], {5}
     53c:	01000005 	tsteq	r0, r5
     540:	00005400 	andeq	r5, r0, r0, lsl #8
	...
     54c:	04940000 	ldreq	r0, [r4], #0
     550:	04a00000 	strteq	r0, [r0], #0
     554:	00010000 	andeq	r0, r1, r0
     558:	0004a050 	andeq	sl, r4, r0, asr r0
     55c:	0004c400 	andeq	ip, r4, r0, lsl #8
     560:	54000100 	strpl	r0, [r0], #-256	; 0xffffff00
	...
     570:	0000035c 	andeq	r0, r0, ip, asr r3
     574:	00000377 	andeq	r0, r0, r7, ror r3
     578:	78500001 	ldmdavc	r0, {r0}^
     57c:	80000003 	andhi	r0, r0, r3
     580:	01000003 	tsteq	r0, r3
     584:	00005000 	andeq	r5, r0, r0
	...
     590:	003c0000 	eorseq	r0, ip, r0
     594:	00440000 	subeq	r0, r4, r0
     598:	00010000 	andeq	r0, r1, r0
     59c:	00004450 	andeq	r4, r0, r0, asr r4
     5a0:	00013c00 	andeq	r3, r1, r0, lsl #24
     5a4:	f3000400 	vshl.u8	d0, d0, d0
     5a8:	009f5001 	addseq	r5, pc, r1
     5ac:	00000000 	andeq	r0, r0, r0
     5b0:	01000000 	mrseq	r0, (UNDEF: 0)
     5b4:	40000000 	andmi	r0, r0, r0
     5b8:	68000000 	stmdavs	r0, {}	; <UNPREDICTABLE>
     5bc:	02000000 	andeq	r0, r0, #0, 0
     5c0:	689f3000 	ldmvs	pc, {ip, sp}	; <UNPREDICTABLE>
     5c4:	3c000000 	stccc	0, cr0, [r0], {-0}
     5c8:	01000001 	tsteq	r0, r1
     5cc:	00005500 	andeq	r5, r0, r0, lsl #10
     5d0:	00000000 	andeq	r0, r0, r0
     5d4:	00010000 	andeq	r0, r1, r0
     5d8:	00400000 	subeq	r0, r0, r0
     5dc:	00680000 	rsbeq	r0, r8, r0
     5e0:	00020000 	andeq	r0, r2, r0
     5e4:	00689f30 	rsbeq	r9, r8, r0, lsr pc
     5e8:	013c0000 	teqeq	ip, r0
     5ec:	00010000 	andeq	r0, r1, r0
     5f0:	00000057 	andeq	r0, r0, r7, asr r0
     5f4:	00000000 	andeq	r0, r0, r0
     5f8:	00000100 	andeq	r0, r0, r0, lsl #2
     5fc:	00004000 	andeq	r4, r0, r0
     600:	00006800 	andeq	r6, r0, r0, lsl #16
     604:	30000200 	andcc	r0, r0, r0, lsl #4
     608:	0000689f 	muleq	r0, pc, r8	; <UNPREDICTABLE>
     60c:	00013c00 	andeq	r3, r1, r0, lsl #24
     610:	56000100 	strpl	r0, [r0], -r0, lsl #2
	...
     624:	00000058 	andeq	r0, r0, r8, asr r0
     628:	0000008c 	andeq	r0, r0, ip, lsl #1
     62c:	8c500001 	mrrchi	0, 0, r0, r0, cr1	; <UNPREDICTABLE>
     630:	9c000000 	stcls	0, cr0, [r0], {-0}
     634:	01000000 	mrseq	r0, (UNDEF: 0)
     638:	009c5400 	addseq	r5, ip, r0, lsl #8
     63c:	00e80000 	rsceq	r0, r8, r0
     640:	00010000 	andeq	r0, r1, r0
     644:	0000e850 	andeq	lr, r0, r0, asr r8
     648:	00013c00 	andeq	r3, r1, r0, lsl #24
     64c:	54000100 	strpl	r0, [r0], #-256	; 0xffffff00
	...
     664:	021c0000 	andseq	r0, ip, #0, 0
     668:	02640000 	rsbeq	r0, r4, #0, 0
     66c:	00010000 	andeq	r0, r1, r0
     670:	00026450 	andeq	r6, r2, r0, asr r4
     674:	00026c00 	andeq	r6, r2, r0, lsl #24
     678:	f3000400 	vshl.u8	d0, d0, d0
     67c:	6c9f5001 	ldcvs	0, cr5, [pc], {1}
     680:	84000002 	strhi	r0, [r0], #-2
     684:	01000002 	tsteq	r0, r2
     688:	02845000 	addeq	r5, r4, #0, 0
     68c:	028c0000 	addeq	r0, ip, #0, 0
     690:	00010000 	andeq	r0, r1, r0
     694:	00028c57 	andeq	r8, r2, r7, asr ip
     698:	0002a400 	andeq	sl, r2, r0, lsl #8
     69c:	50000100 	andpl	r0, r0, r0, lsl #2
     6a0:	000002a4 	andeq	r0, r0, r4, lsr #5
     6a4:	00000338 	andeq	r0, r0, r8, lsr r3
     6a8:	38570001 	ldmdacc	r7, {r0}^
     6ac:	50000003 	andpl	r0, r0, r3
     6b0:	04000003 	streq	r0, [r0], #-3
     6b4:	5001f300 	andpl	pc, r1, r0, lsl #6
     6b8:	0000009f 	muleq	r0, pc, r0	; <UNPREDICTABLE>
	...
     6d0:	00021c00 	andeq	r1, r2, r0, lsl #24
     6d4:	00024400 	andeq	r4, r2, r0, lsl #8
     6d8:	51000100 	mrspl	r0, (UNDEF: 16)
     6dc:	00000244 	andeq	r0, r0, r4, asr #4
     6e0:	0000024c 	andeq	r0, r0, ip, asr #4
     6e4:	01f30004 	mvnseq	r0, r4
     6e8:	024c9f51 	subeq	r9, ip, #324	; 0x144
     6ec:	02600000 	rsbeq	r0, r0, #0, 0
     6f0:	00010000 	andeq	r0, r1, r0
     6f4:	00026051 	andeq	r6, r2, r1, asr r0
     6f8:	00026c00 	andeq	r6, r2, r0, lsl #24
     6fc:	f3000400 	vshl.u8	d0, d0, d0
     700:	6c9f5101 	ldfvss	f5, [pc], {1}
     704:	80000002 	andhi	r0, r0, r2
     708:	01000002 	tsteq	r0, r2
     70c:	02805100 	addeq	r5, r0, #0
     710:	028c0000 	addeq	r0, ip, #0, 0
     714:	00040000 	andeq	r0, r4, r0
     718:	9f5101f3 	svcls	0x005101f3
     71c:	0000028c 	andeq	r0, r0, ip, lsl #5
     720:	000002a0 	andeq	r0, r0, r0, lsr #5
     724:	a0510001 	subsge	r0, r1, r1
     728:	50000002 	andpl	r0, r0, r2
     72c:	04000003 	streq	r0, [r0], #-3
     730:	5101f300 	mrspl	pc, SP_irq	; <UNPREDICTABLE>
     734:	0000009f 	muleq	r0, pc, r0	; <UNPREDICTABLE>
	...
     740:	48000000 	stmdami	r0, {}	; <UNPREDICTABLE>
     744:	4c000002 	stcmi	0, cr0, [r0], {2}
     748:	01000002 	tsteq	r0, r2
     74c:	02ac5600 	adceq	r5, ip, #0, 12
     750:	03380000 	teqeq	r8, #0, 0
     754:	00010000 	andeq	r0, r1, r0
     758:	00033856 	andeq	r3, r3, r6, asr r8
     75c:	00035000 	andeq	r5, r3, r0
     760:	f3000a00 	vpmax.u8	d0, d0, d0
     764:	01f35101 	mvnseq	r5, r1, lsl #2
     768:	26321c50 			; <UNDEFINED> instruction: 0x26321c50
     76c:	0000009f 	muleq	r0, pc, r0	; <UNPREDICTABLE>
     770:	00000000 	andeq	r0, r0, r0
     774:	00000200 	andeq	r0, r0, r0, lsl #4
     778:	00024800 	andeq	r4, r2, r0, lsl #16
     77c:	00024c00 	andeq	r4, r2, r0, lsl #24
     780:	30000200 	andcc	r0, r0, r0, lsl #4
     784:	0002ac9f 	muleq	r2, pc, ip	; <UNPREDICTABLE>
     788:	00033800 	andeq	r3, r3, r0, lsl #16
     78c:	55000100 	strpl	r0, [r0, #-256]	; 0xffffff00
	...
     79c:	02ac0000 	adceq	r0, ip, #0, 0
     7a0:	02cc0000 	sbceq	r0, ip, #0, 0
     7a4:	00010000 	andeq	r0, r1, r0
     7a8:	0002e054 	andeq	lr, r2, r4, asr r0
     7ac:	00030700 	andeq	r0, r3, r0, lsl #14
     7b0:	50000100 	andpl	r0, r0, r0, lsl #2
     7b4:	00000307 	andeq	r0, r0, r7, lsl #6
     7b8:	00000330 	andeq	r0, r0, r0, lsr r3
     7bc:	00540001 	subseq	r0, r4, r1
	...
     7c8:	bc000000 	stclt	0, cr0, [r0], {-0}
     7cc:	c7000002 	strgt	r0, [r0, -r2]
     7d0:	01000002 	tsteq	r0, r2
     7d4:	02c75000 	sbceq	r5, r7, #0, 0
     7d8:	02c80000 	sbceq	r0, r8, #0, 0
     7dc:	00030000 	andeq	r0, r3, r0
     7e0:	009f2474 	addseq	r2, pc, r4, ror r4	; <UNPREDICTABLE>
	...
     7ec:	c0000000 	andgt	r0, r0, r0
     7f0:	c4000002 	strgt	r0, [r0], #-2
     7f4:	06000002 	streq	r0, [r0], -r2
     7f8:	71007000 	mrsvc	r7, (UNDEF: 0)
     7fc:	c49f2200 	ldrgt	r2, [pc], #512	; 804 <__code_start__-0x77fc>
     800:	c7000002 	strgt	r0, [r0, -r2]
     804:	01000002 	tsteq	r0, r2
     808:	00005100 	andeq	r5, r0, r0, lsl #2
	...
     814:	01f40000 	mvnseq	r0, r0
     818:	01ff0000 	mvnseq	r0, r0
     81c:	00010000 	andeq	r0, r1, r0
     820:	0001ff50 	andeq	pc, r1, r0, asr pc	; <UNPREDICTABLE>
     824:	00021c00 	andeq	r1, r2, r0, lsl #24
     828:	54000100 	strpl	r0, [r0], #-256	; 0xffffff00
	...
     834:	00000001 	andeq	r0, r0, r1
     838:	000001fc 	strdeq	r0, [r0], -ip
     83c:	000001ff 	strdeq	r0, [r0], -pc	; <UNPREDICTABLE>
     840:	ff500001 			; <UNDEFINED> instruction: 0xff500001
     844:	1c000001 	stcne	0, cr0, [r0], {1}
     848:	01000002 	tsteq	r0, r2
     84c:	00005400 	andeq	r5, r0, r0, lsl #8
	...
     864:	00240000 	eoreq	r0, r4, r0
     868:	00010000 	andeq	r0, r1, r0
     86c:	00002450 	andeq	r2, r0, r0, asr r4
     870:	00002800 	andeq	r2, r0, r0, lsl #16
     874:	f3000400 	vshl.u8	d0, d0, d0
     878:	289f5001 	ldmcs	pc, {r0, ip, lr}	; <UNPREDICTABLE>
     87c:	2c000000 	stccs	0, cr0, [r0], {-0}
     880:	01000000 	mrseq	r0, (UNDEF: 0)
     884:	002c5000 	eoreq	r5, ip, r0
     888:	00300000 	eorseq	r0, r0, r0
     88c:	00040000 	andeq	r0, r4, r0
     890:	9f5001f3 	svcls	0x005001f3
     894:	00000030 	andeq	r0, r0, r0, lsr r0
     898:	00000034 	andeq	r0, r0, r4, lsr r0
     89c:	34500001 	ldrbcc	r0, [r0], #-1
     8a0:	3c000000 	stccc	0, cr0, [r0], {-0}
     8a4:	04000000 	streq	r0, [r0], #-0
     8a8:	5001f300 	andpl	pc, r1, r0, lsl #6
     8ac:	0000009f 	muleq	r0, pc, r0	; <UNPREDICTABLE>
	...
     8b8:	0003e000 	andeq	lr, r3, r0
     8bc:	0003f000 	andeq	pc, r3, r0
     8c0:	50000100 	andpl	r0, r0, r0, lsl #2
     8c4:	000003f0 	strdeq	r0, [r0], -r0	; <UNPREDICTABLE>
     8c8:	00000494 	muleq	r0, r4, r4
     8cc:	00540001 	subseq	r0, r4, r1
     8d0:	00000000 	andeq	r0, r0, r0
     8d4:	02000000 	andeq	r0, r0, #0, 0
     8d8:	00040c00 	andeq	r0, r4, r0, lsl #24
     8dc:	00044000 	andeq	r4, r4, r0
     8e0:	40000400 	andmi	r0, r0, r0, lsl #8
     8e4:	009f2440 	addseq	r2, pc, r0, asr #8
	...
     8f4:	08000000 	stmdaeq	r0, {}	; <UNPREDICTABLE>
     8f8:	78000000 	stmdavc	r0, {}	; <UNPREDICTABLE>
     8fc:	01000000 	mrseq	r0, (UNDEF: 0)
     900:	00785100 	rsbseq	r5, r8, r0, lsl #2
     904:	00840000 	addeq	r0, r4, r0
     908:	00030000 	andeq	r0, r3, r0
     90c:	849f7870 	ldrhi	r7, [pc], #2160	; 914 <__code_start__-0x76ec>
     910:	a4000000 	strge	r0, [r0], #-0
     914:	01000000 	mrseq	r0, (UNDEF: 0)
     918:	00a45100 	adceq	r5, r4, r0, lsl #2
     91c:	00bc0000 	adcseq	r0, ip, r0
     920:	00030000 	andeq	r0, r3, r0
     924:	009f7870 	addseq	r7, pc, r0, ror r8	; <UNPREDICTABLE>
	...
     930:	10000000 	andne	r0, r0, r0
     934:	48000000 	stmdami	r0, {}	; <UNPREDICTABLE>
     938:	01000000 	mrseq	r0, (UNDEF: 0)
     93c:	004c5300 	subeq	r5, ip, r0, lsl #6
     940:	00bc0000 	adcseq	r0, ip, r0
     944:	00010000 	andeq	r0, r1, r0
     948:	00000053 	andeq	r0, r0, r3, asr r0
	...
     958:	00010000 	andeq	r0, r1, r0
     95c:	00012400 	andeq	r2, r1, r0, lsl #8
     960:	50000100 	andpl	r0, r0, r0, lsl #2
     964:	00000124 	andeq	r0, r0, r4, lsr #2
     968:	00000128 	andeq	r0, r0, r8, lsr #2
     96c:	01f30004 	mvnseq	r0, r4
     970:	01289f50 			; <UNDEFINED> instruction: 0x01289f50
     974:	01400000 	mrseq	r0, (UNDEF: 64)
     978:	00010000 	andeq	r0, r1, r0
     97c:	00014050 	andeq	r4, r1, r0, asr r0
     980:	0001ac00 	andeq	sl, r1, r0, lsl #24
     984:	f3000400 	vshl.u8	d0, d0, d0
     988:	009f5001 	addseq	r5, pc, r1
	...
     998:	01010000 	mrseq	r0, (UNDEF: 1)
     99c:	00000000 	andeq	r0, r0, r0
     9a0:	00012400 	andeq	r2, r1, r0, lsl #8
     9a4:	00012800 	andeq	r2, r1, r0, lsl #16
     9a8:	50000100 	andpl	r0, r0, r0, lsl #2
     9ac:	00000140 	andeq	r0, r0, r0, asr #2
     9b0:	00000160 	andeq	r0, r0, r0, ror #2
     9b4:	60500001 	subsvs	r0, r0, r1
     9b8:	64000001 	strvs	r0, [r0], #-1
     9bc:	03000001 	movweq	r0, #1
     9c0:	9f787000 	svcls	0x00787000
     9c4:	00000164 	andeq	r0, r0, r4, ror #2
     9c8:	00000170 	andeq	r0, r0, r0, ror r1
     9cc:	70500001 	subsvc	r0, r0, r1
     9d0:	78000001 	stmdavc	r0, {r0}
     9d4:	02000001 	andeq	r0, r0, #1, 0
     9d8:	78007000 	stmdavc	r0, {ip, sp, lr}
     9dc:	98000001 	stmdals	r0, {r0}
     9e0:	01000001 	tsteq	r0, r1
     9e4:	019c5000 	orrseq	r5, ip, r0
     9e8:	01ac0000 			; <UNDEFINED> instruction: 0x01ac0000
     9ec:	00010000 	andeq	r0, r1, r0
     9f0:	00000050 	andeq	r0, r0, r0, asr r0
     9f4:	00000000 	andeq	r0, r0, r0
     9f8:	01010000 	mrseq	r0, (UNDEF: 1)
     9fc:	01000000 	mrseq	r0, (UNDEF: 0)
     a00:	18000000 	stmdane	r0, {}	; <UNPREDICTABLE>
     a04:	28000001 	stmdacs	r0, {r0}
     a08:	01000001 	tsteq	r0, r1
     a0c:	01285200 			; <UNDEFINED> instruction: 0x01285200
     a10:	01400000 	mrseq	r0, (UNDEF: 64)
     a14:	00060000 	andeq	r0, r6, r0
     a18:	00a65803 	adceq	r5, r6, r3, lsl #16
     a1c:	01409f00 	cmpeq	r0, r0, lsl #30
     a20:	01700000 	cmneq	r0, r0
     a24:	00010000 	andeq	r0, r1, r0
     a28:	00017052 	andeq	r7, r1, r2, asr r0
     a2c:	00017800 	andeq	r7, r1, r0, lsl #16
     a30:	50000100 	andpl	r0, r0, r0, lsl #2
     a34:	00000178 	andeq	r0, r0, r8, ror r1
     a38:	0000019b 	muleq	r0, fp, r1
     a3c:	00520001 	subseq	r0, r2, r1
	...
     a48:	00011000 	andeq	r1, r1, r0
     a4c:	0001ac00 	andeq	sl, r1, r0, lsl #24
     a50:	54000100 	strpl	r0, [r0], #-256	; 0xffffff00
	...
     a60:	000000bc 	strheq	r0, [r0], -ip
     a64:	000000cc 	andeq	r0, r0, ip, asr #1
     a68:	cc500001 	mrrcgt	0, 0, r0, r0, cr1	; <UNPREDICTABLE>
     a6c:	00000000 	andeq	r0, r0, r0
     a70:	01000001 	tsteq	r0, r1
     a74:	00005400 	andeq	r5, r0, r0, lsl #8
	...
     a84:	000000d4 	ldrdeq	r0, [r0], -r4
     a88:	000000e4 	andeq	r0, r0, r4, ror #1
     a8c:	e4500001 	ldrb	r0, [r0], #-1
     a90:	e7000000 	str	r0, [r0, -r0]
     a94:	03000000 	movweq	r0, #0
     a98:	9f787000 	svcls	0x00787000
     a9c:	000000f4 	strdeq	r0, [r0], -r4
     aa0:	000000f8 	strdeq	r0, [r0], -r8
     aa4:	00500001 	subseq	r0, r0, r1
     aa8:	00000000 	andeq	r0, r0, r0
     aac:	01000000 	mrseq	r0, (UNDEF: 0)
     ab0:	dc000000 	stcle	0, cr0, [r0], {-0}
     ab4:	e4000000 	str	r0, [r0], #-0
     ab8:	01000000 	mrseq	r0, (UNDEF: 0)
     abc:	00e45000 	rsceq	r5, r4, r0
     ac0:	00e70000 	rsceq	r0, r7, r0
     ac4:	00030000 	andeq	r0, r3, r0
     ac8:	009f7870 	addseq	r7, pc, r0, ror r8	; <UNPREDICTABLE>
	...
     ad8:	04000000 	streq	r0, [r0], #-0
     adc:	01000000 	mrseq	r0, (UNDEF: 0)
     ae0:	00045200 	andeq	r5, r4, r0, lsl #4
     ae4:	00180000 	andseq	r0, r8, r0
     ae8:	00040000 	andeq	r0, r4, r0
     aec:	9f5201f3 	svcls	0x005201f3
	...
     af8:	01000002 	tsteq	r0, r2
     afc:	00000001 	andeq	r0, r0, r1
     b00:	00000000 	andeq	r0, r0, r0
     b04:	00000008 	andeq	r0, r0, r8
     b08:	08500001 	ldmdaeq	r0, {r0}^
     b0c:	10000000 	andne	r0, r0, r0
     b10:	01000000 	mrseq	r0, (UNDEF: 0)
     b14:	00105300 	andseq	r5, r0, r0, lsl #6
     b18:	00140000 	andseq	r0, r4, r0
     b1c:	00030000 	andeq	r0, r3, r0
     b20:	149f0173 	ldrne	r0, [pc], #371	; b28 <__code_start__-0x74d8>
     b24:	18000000 	stmdane	r0, {}	; <UNPREDICTABLE>
     b28:	01000000 	mrseq	r0, (UNDEF: 0)
     b2c:	00005300 	andeq	r5, r0, r0, lsl #6
	...
     b38:	00000004 	andeq	r0, r0, r4
     b3c:	00000018 	andeq	r0, r0, r8, lsl r0
     b40:	00520001 	subseq	r0, r2, r1
	...
     b50:	00002c00 	andeq	r2, r0, r0, lsl #24
     b54:	00003800 	andeq	r3, r0, r0, lsl #16
     b58:	50000100 	andpl	r0, r0, r0, lsl #2
     b5c:	00000038 	andeq	r0, r0, r8, lsr r0
     b60:	00000048 	andeq	r0, r0, r8, asr #32
     b64:	48540001 	ldmdami	r4, {r0}^
     b68:	58000000 	stmdapl	r0, {}	; <UNPREDICTABLE>
     b6c:	01000000 	mrseq	r0, (UNDEF: 0)
     b70:	00005000 	andeq	r5, r0, r0
     b74:	00000000 	andeq	r0, r0, r0
     b78:	01000000 	mrseq	r0, (UNDEF: 0)
     b7c:	00000001 	andeq	r0, r0, r1
     b80:	00080000 	andeq	r0, r8, r0
     b84:	00010000 	andeq	r0, r1, r0
     b88:	00000850 	andeq	r0, r0, r0, asr r8
     b8c:	00003400 	andeq	r3, r0, r0, lsl #8
     b90:	54000100 	strpl	r0, [r0], #-256	; 0xffffff00
	...
     ba0:	02880000 	addeq	r0, r8, #0, 0
     ba4:	02b80000 	adcseq	r0, r8, #0, 0
     ba8:	00010000 	andeq	r0, r1, r0
     bac:	0002b850 	andeq	fp, r2, r0, asr r8
     bb0:	00070400 	andeq	r0, r7, r0, lsl #8
     bb4:	59000100 	stmdbpl	r0, {r8}
     bb8:	00000704 	andeq	r0, r0, r4, lsl #14
     bbc:	00000740 	andeq	r0, r0, r0, asr #14
     bc0:	01f30004 	mvnseq	r0, r4
     bc4:	00009f50 	andeq	r9, r0, r0, asr pc
	...
     bd4:	00000288 	andeq	r0, r0, r8, lsl #5
     bd8:	000002a0 	andeq	r0, r0, r0, lsr #5
     bdc:	a0510001 	subsge	r0, r1, r1
     be0:	b8000002 	stmdalt	r0, {r1}
     be4:	03000002 	movweq	r0, #2
     be8:	9f017100 	svcls	0x00017100
     bec:	000002b8 			; <UNDEFINED> instruction: 0x000002b8
     bf0:	00000740 	andeq	r0, r0, r0, asr #14
     bf4:	01f30004 	mvnseq	r0, r4
     bf8:	00009f51 	andeq	r9, r0, r1, asr pc
	...
     c0c:	02880000 	addeq	r0, r8, #0, 0
     c10:	02b80000 	adcseq	r0, r8, #0, 0
     c14:	00010000 	andeq	r0, r1, r0
     c18:	0002b852 	andeq	fp, r2, r2, asr r8
     c1c:	0003ec00 	andeq	lr, r3, r0, lsl #24
     c20:	56000100 	strpl	r0, [r0], -r0, lsl #2
     c24:	000003ec 	andeq	r0, r0, ip, ror #7
     c28:	000004b8 			; <UNDEFINED> instruction: 0x000004b8
     c2c:	b85b0001 	ldmdalt	fp, {r0}^
     c30:	d8000004 	stmdale	r0, {r2}
     c34:	01000004 	tsteq	r0, r4
     c38:	04d85600 	ldrbeq	r5, [r8], #1536	; 0x600
     c3c:	055c0000 	ldrbeq	r0, [ip, #-0]
     c40:	00010000 	andeq	r0, r1, r0
     c44:	00055c5b 	andeq	r5, r5, fp, asr ip
     c48:	00070400 	andeq	r0, r7, r0, lsl #8
     c4c:	56000100 	strpl	r0, [r0], -r0, lsl #2
	...
     c58:	00000001 	andeq	r0, r0, r1
     c5c:	01000000 	mrseq	r0, (UNDEF: 0)
     c60:	00000001 	andeq	r0, r0, r1
     c64:	02000000 	andeq	r0, r0, #0, 0
     c68:	00000002 	andeq	r0, r0, r2
     c6c:	0000029c 	muleq	r0, ip, r2
     c70:	000002b8 			; <UNDEFINED> instruction: 0x000002b8
     c74:	b8500001 	ldmdalt	r0, {r0}^
     c78:	bc000002 	stclt	0, cr0, [r0], {2}
     c7c:	01000002 	tsteq	r0, r2
     c80:	02bc5400 	adcseq	r5, ip, #0, 8
     c84:	02c00000 	sbceq	r0, r0, #0, 0
     c88:	00030000 	andeq	r0, r3, r0
     c8c:	c09f0174 	addsgt	r0, pc, r4, ror r1	; <UNPREDICTABLE>
     c90:	e4000002 	str	r0, [r0], #-2
     c94:	01000002 	tsteq	r0, r2
     c98:	02e45400 	rsceq	r5, r4, #0, 8
     c9c:	02e80000 	rsceq	r0, r8, #0, 0
     ca0:	00030000 	andeq	r0, r3, r0
     ca4:	e89f0174 	ldm	pc, {r2, r4, r5, r6, r8}	; <UNPREDICTABLE>
     ca8:	d4000002 	strle	r0, [r0], #-2
     cac:	01000006 	tsteq	r0, r6
     cb0:	06d45400 	ldrbeq	r5, [r4], r0, lsl #8
     cb4:	06d80000 	ldrbeq	r0, [r8], r0
     cb8:	00030000 	andeq	r0, r3, r0
     cbc:	d89f0174 	ldmle	pc, {r2, r4, r5, r6, r8}	; <UNPREDICTABLE>
     cc0:	f0000006 			; <UNDEFINED> instruction: 0xf0000006
     cc4:	01000006 	tsteq	r0, r6
     cc8:	06f05400 	ldrbteq	r5, [r0], r0, lsl #8
     ccc:	06f80000 	ldrbteq	r0, [r8], r0
     cd0:	00030000 	andeq	r0, r3, r0
     cd4:	f89f0174 			; <UNDEFINED> instruction: 0xf89f0174
     cd8:	04000006 	streq	r0, [r0], #-6
     cdc:	01000007 	tsteq	r0, r7
     ce0:	00005400 	andeq	r5, r0, r0, lsl #8
	...
     cec:	02a40000 	adceq	r0, r4, #0, 0
     cf0:	07040000 	streq	r0, [r4, -r0]
     cf4:	00010000 	andeq	r0, r1, r0
     cf8:	00070458 	andeq	r0, r7, r8, asr r4
     cfc:	00074000 	andeq	r4, r7, r0
     d00:	f3000a00 	vpmax.u8	d0, d0, d0
     d04:	01f35101 	mvnseq	r5, r1, lsl #2
     d08:	1c312250 	lfmne	f2, 4, [r1], #-320	; 0xfffffec0
     d0c:	0000009f 	muleq	r0, pc, r0	; <UNPREDICTABLE>
     d10:	00000000 	andeq	r0, r0, r0
     d14:	00000100 	andeq	r0, r0, r0, lsl #2
     d18:	08000000 	stmdaeq	r0, {}	; <UNPREDICTABLE>
     d1c:	74000004 	strvc	r0, [r0], #-4
     d20:	01000004 	tsteq	r0, r4
     d24:	04d85700 	ldrbeq	r5, [r8], #1792	; 0x700
     d28:	04fc0000 	ldrbteq	r0, [ip], #0
     d2c:	00010000 	andeq	r0, r1, r0
     d30:	00054057 	andeq	r4, r5, r7, asr r0
     d34:	00055c00 	andeq	r5, r5, r0, lsl #24
     d38:	57000100 	strpl	r0, [r0, -r0, lsl #2]
	...
     d44:	00000002 	andeq	r0, r0, r2
     d48:	00000408 	andeq	r0, r0, r8, lsl #8
     d4c:	000004b8 			; <UNDEFINED> instruction: 0x000004b8
     d50:	d85a0001 	ldmdale	sl, {r0}^
     d54:	5c000004 	stcpl	0, cr0, [r0], {4}
     d58:	01000005 	tsteq	r0, r5
     d5c:	00005a00 	andeq	r5, r0, r0, lsl #20
     d60:	00000000 	andeq	r0, r0, r0
     d64:	00010000 	andeq	r0, r1, r0
     d68:	02ac0000 	adceq	r0, ip, #0, 0
     d6c:	02b80000 	adcseq	r0, r8, #0, 0
     d70:	00010000 	andeq	r0, r1, r0
     d74:	0002b852 	andeq	fp, r2, r2, asr r8
     d78:	00074000 	andeq	r4, r7, r0
     d7c:	91000300 	mrsls	r0, LR_irq
     d80:	00007dc8 	andeq	r7, r0, r8, asr #27
	...
     d90:	01000000 	mrseq	r0, (UNDEF: 0)
     d94:	00000001 	andeq	r0, r0, r1
	...
     da0:	00000474 	andeq	r0, r0, r4, ror r4
     da4:	0000048c 	andeq	r0, r0, ip, lsl #9
     da8:	8c500001 	mrrchi	0, 0, r0, r0, cr1	; <UNPREDICTABLE>
     dac:	b8000004 	stmdalt	r0, {r2}
     db0:	01000004 	tsteq	r0, r4
     db4:	04fc5700 	ldrbteq	r5, [ip], #1792	; 0x700
     db8:	05140000 	ldreq	r0, [r4, #-0]
     dbc:	00010000 	andeq	r0, r1, r0
     dc0:	00051450 	andeq	r1, r5, r0, asr r4
     dc4:	00054000 	andeq	r4, r5, r0
     dc8:	57000100 	strpl	r0, [r0, -r0, lsl #2]
     dcc:	000005a4 	andeq	r0, r0, r4, lsr #11
     dd0:	000005a4 	andeq	r0, r0, r4, lsr #11
     dd4:	a4500001 	ldrbge	r0, [r0], #-1
     dd8:	ac000005 	stcge	0, cr0, [r0], {5}
     ddc:	01000005 	tsteq	r0, r5
     de0:	05dc5700 	ldrbeq	r5, [ip, #1792]	; 0x700
     de4:	05e00000 	strbeq	r0, [r0, #0]!
     de8:	00010000 	andeq	r0, r1, r0
     dec:	00061050 	andeq	r1, r6, r0, asr r0
     df0:	00061400 	andeq	r1, r6, r0, lsl #8
     df4:	50000100 	andpl	r0, r0, r0, lsl #2
     df8:	00000644 	andeq	r0, r0, r4, asr #12
     dfc:	00000648 	andeq	r0, r0, r8, asr #12
     e00:	8c500001 	mrrchi	0, 0, r0, r0, cr1	; <UNPREDICTABLE>
     e04:	90000006 	andls	r0, r0, r6
     e08:	01000006 	tsteq	r0, r6
     e0c:	06d05000 	ldrbeq	r5, [r0], r0
     e10:	06f00000 	ldrbteq	r0, [r0], r0
     e14:	00010000 	andeq	r0, r1, r0
     e18:	00000057 	andeq	r0, r0, r7, asr r0
     e1c:	00000000 	andeq	r0, r0, r0
     e20:	00000200 	andeq	r0, r0, r0, lsl #4
     e24:	f4000000 	vst4.8	{d0-d3}, [r0], r0
     e28:	f8000002 			; <UNDEFINED> instruction: 0xf8000002
     e2c:	02000002 	andeq	r0, r0, #2, 0
     e30:	f89f3000 			; <UNDEFINED> instruction: 0xf89f3000
     e34:	14000002 	strne	r0, [r0], #-2
     e38:	01000003 	tsteq	r0, r3
     e3c:	031c5500 	tsteq	ip, #0, 10
     e40:	06f00000 	ldrbteq	r0, [r0], r0
     e44:	00010000 	andeq	r0, r1, r0
     e48:	00000055 	andeq	r0, r0, r5, asr r0
     e4c:	00000000 	andeq	r0, r0, r0
     e50:	00000100 	andeq	r0, r0, r0, lsl #2
     e54:	00000000 	andeq	r0, r0, r0
     e58:	b8000000 	stmdalt	r0, {}	; <UNPREDICTABLE>
     e5c:	54000003 	strpl	r0, [r0], #-3
     e60:	01000004 	tsteq	r0, r4
     e64:	04545600 	ldrbeq	r5, [r4], #-1536	; 0xfffffa00
     e68:	04b80000 	ldrteq	r0, [r8], #0
     e6c:	00030000 	andeq	r0, r3, r0
     e70:	b89f7e7b 	ldmlt	pc, {r0, r1, r3, r4, r5, r6, r9, sl, fp, ip, sp, lr}	; <UNPREDICTABLE>
     e74:	dc000004 	stcle	0, cr0, [r0], {4}
     e78:	01000004 	tsteq	r0, r4
     e7c:	04dc5600 	ldrbeq	r5, [ip], #1536	; 0x600
     e80:	05400000 	strbeq	r0, [r0, #-0]
     e84:	00030000 	andeq	r0, r3, r0
     e88:	409f7e7b 	addsmi	r7, pc, fp, ror lr	; <UNPREDICTABLE>
     e8c:	5c000005 	stcpl	0, cr0, [r0], {5}
     e90:	01000005 	tsteq	r0, r5
     e94:	00005600 	andeq	r5, r0, r0, lsl #12
	...
     ea4:	00000070 	andeq	r0, r0, r0, ror r0
     ea8:	00000094 	muleq	r0, r4, r0
     eac:	94500001 	ldrbls	r0, [r0], #-1
     eb0:	fc000000 	stc2	0, cr0, [r0], {-0}
     eb4:	03000000 	movweq	r0, #0
     eb8:	9f027000 	svcls	0x00027000
     ebc:	000000fc 	strdeq	r0, [r0], -ip
     ec0:	00000224 	andeq	r0, r0, r4, lsr #4
     ec4:	01f30004 	mvnseq	r0, r4
     ec8:	00009f50 	andeq	r9, r0, r0, asr pc
	...
     ee0:	00700000 	rsbseq	r0, r0, r0
     ee4:	00e00000 	rsceq	r0, r0, r0
     ee8:	00010000 	andeq	r0, r1, r0
     eec:	0000e051 	andeq	lr, r0, r1, asr r0
     ef0:	00015400 	andeq	r5, r1, r0, lsl #8
     ef4:	55000100 	strpl	r0, [r0, #-256]	; 0xffffff00
     ef8:	00000154 	andeq	r0, r0, r4, asr r1
     efc:	00000158 	andeq	r0, r0, r8, asr r1
     f00:	58510001 	ldmdapl	r1, {r0}^
     f04:	b0000001 	andlt	r0, r0, r1
     f08:	01000001 	tsteq	r0, r1
     f0c:	01b05500 	lslseq	r5, r0, #10
     f10:	01c00000 	biceq	r0, r0, r0
     f14:	00010000 	andeq	r0, r1, r0
     f18:	0001c051 	andeq	ip, r1, r1, asr r0
     f1c:	0001e400 	andeq	lr, r1, r0, lsl #8
     f20:	55000100 	strpl	r0, [r0, #-256]	; 0xffffff00
     f24:	000001e4 	andeq	r0, r0, r4, ror #3
     f28:	000001f8 	strdeq	r0, [r0], -r8
     f2c:	f8510001 			; <UNDEFINED> instruction: 0xf8510001
     f30:	24000001 	strcs	r0, [r0], #-1
     f34:	01000002 	tsteq	r0, r2
     f38:	00005500 	andeq	r5, r0, r0, lsl #10
	...
     f44:	00700000 	rsbseq	r0, r0, r0
     f48:	00840000 	addeq	r0, r4, r0
     f4c:	00010000 	andeq	r0, r1, r0
     f50:	00008452 	andeq	r8, r0, r2, asr r4
     f54:	00022400 	andeq	r2, r2, r0, lsl #8
     f58:	54000100 	strpl	r0, [r0], #-256	; 0xffffff00
	...
     f68:	00000100 	andeq	r0, r0, r0, lsl #2
     f6c:	00000000 	andeq	r0, r0, r0
     f70:	00000070 	andeq	r0, r0, r0, ror r0
     f74:	000000f4 	strdeq	r0, [r0], -r4
     f78:	4c530001 	mrrcmi	0, 0, r0, r3, cr1
     f7c:	80000001 	andhi	r0, r0, r1
     f80:	01000001 	tsteq	r0, r1
     f84:	01805300 	orreq	r5, r0, r0, lsl #6
     f88:	018c0000 	orreq	r0, ip, r0
     f8c:	00040000 	andeq	r0, r4, r0
     f90:	9f5301f3 	svcls	0x005301f3
     f94:	000001b0 			; <UNDEFINED> instruction: 0x000001b0
     f98:	000001e8 	andeq	r0, r0, r8, ror #3
     f9c:	e8530001 	ldmda	r3, {r0}^
     fa0:	ff000001 			; <UNDEFINED> instruction: 0xff000001
     fa4:	01000001 	tsteq	r0, r1
     fa8:	01ff5c00 	mvnseq	r5, r0, lsl #24
     fac:	02240000 	eoreq	r0, r4, #0, 0
     fb0:	00040000 	andeq	r0, r4, r0
     fb4:	9f5301f3 	svcls	0x005301f3
	...
     fc4:	00700000 	rsbseq	r0, r0, r0
     fc8:	008c0000 	addeq	r0, ip, r0
     fcc:	00020000 	andeq	r0, r2, r0
     fd0:	008c0091 	umulleq	r0, ip, r1, r0
     fd4:	01930000 	orrseq	r0, r3, r0
     fd8:	00010000 	andeq	r0, r1, r0
     fdc:	0001b052 	andeq	fp, r1, r2, asr r0
     fe0:	0001f400 	andeq	pc, r1, r0, lsl #8
     fe4:	52000100 	andpl	r0, r0, #0
	...
     ff0:	01000001 	tsteq	r0, r1
     ff4:	00000001 	andeq	r0, r0, r1
     ff8:	00000000 	andeq	r0, r0, r0
     ffc:	01010100 	mrseq	r0, (UNDEF: 17)
    1000:	01000001 	tsteq	r0, r1
    1004:	00000001 	andeq	r0, r0, r1
	...
    1010:	0000008c 	andeq	r0, r0, ip, lsl #1
    1014:	000000fc 	strdeq	r0, [r0], -ip
    1018:	a0910004 	addsge	r0, r1, r4
    101c:	00fc9f7f 	rscseq	r9, ip, pc, ror pc
    1020:	013c0000 	teqeq	ip, r0
    1024:	00010000 	andeq	r0, r1, r0
    1028:	00013c50 	andeq	r3, r1, r0, asr ip
    102c:	00014800 	andeq	r4, r1, r0, lsl #16
    1030:	71000300 	mrsvc	r0, LR_irq
    1034:	01489f02 	cmpeq	r8, r2, lsl #30
    1038:	014c0000 	mrseq	r0, (UNDEF: 76)
    103c:	00010000 	andeq	r0, r1, r0
    1040:	00014c50 	andeq	r4, r1, r0, asr ip
    1044:	00015800 	andeq	r5, r1, r0, lsl #16
    1048:	91000400 	tstls	r0, r0, lsl #8
    104c:	589f7fa0 	ldmpl	pc, {r5, r7, r8, r9, sl, fp, ip, sp, lr}	; <UNPREDICTABLE>
    1050:	6c000001 	stcvs	0, cr0, [r0], {1}
    1054:	01000001 	tsteq	r0, r1
    1058:	016c5100 	cmneq	ip, r0, lsl #2
    105c:	01780000 	cmneq	r8, r0
    1060:	00030000 	andeq	r0, r3, r0
    1064:	789f7f71 	ldmvc	pc, {r0, r4, r5, r6, r8, r9, sl, fp, ip, sp, lr}	; <UNPREDICTABLE>
    1068:	84000001 	strhi	r0, [r0], #-1
    106c:	03000001 	movweq	r0, #1
    1070:	9f017100 	svcls	0x00017100
    1074:	00000184 	andeq	r0, r0, r4, lsl #3
    1078:	00000193 	muleq	r0, r3, r1
    107c:	b0500001 	subslt	r0, r0, r1
    1080:	b0000001 	andlt	r0, r0, r1
    1084:	04000001 	streq	r0, [r0], #-1
    1088:	7fa09100 	svcvc	0x00a09100
    108c:	0001b09f 	muleq	r1, pc, r0	; <UNPREDICTABLE>
    1090:	0001b800 	andeq	fp, r1, r0, lsl #16
    1094:	91000400 	tstls	r0, r0, lsl #8
    1098:	b89f7fa1 	ldmlt	pc, {r0, r5, r7, r8, r9, sl, fp, ip, sp, lr}	; <UNPREDICTABLE>
    109c:	bc000001 	stclt	0, cr0, [r0], {1}
    10a0:	01000001 	tsteq	r0, r1
    10a4:	01bc5000 			; <UNDEFINED> instruction: 0x01bc5000
    10a8:	01c00000 	biceq	r0, r0, r0
    10ac:	00040000 	andeq	r0, r4, r0
    10b0:	9f7fa091 	svcls	0x007fa091
    10b4:	000001c0 	andeq	r0, r0, r0, asr #3
    10b8:	000001d4 	ldrdeq	r0, [r0], -r4
    10bc:	d4500001 	ldrble	r0, [r0], #-1
    10c0:	e4000001 	str	r0, [r0], #-1
    10c4:	03000001 	movweq	r0, #1
    10c8:	9f7f7000 	svcls	0x007f7000
    10cc:	000001e4 	andeq	r0, r0, r4, ror #3
    10d0:	00000224 	andeq	r0, r0, r4, lsr #4
    10d4:	a0910004 	addsge	r0, r1, r4
    10d8:	00009f7f 	andeq	r9, r0, pc, ror pc
	...
    10e4:	00010100 	andeq	r0, r1, r0, lsl #2
	...
    10f4:	00900000 	addseq	r0, r0, r0
    10f8:	00dc0000 	sbcseq	r0, ip, r0
    10fc:	00010000 	andeq	r0, r1, r0
    1100:	0000dc5c 	andeq	sp, r0, ip, asr ip
    1104:	0000f400 	andeq	pc, r0, r0, lsl #8
    1108:	53000100 	movwpl	r0, #256	; 0x100
    110c:	000000f4 	strdeq	r0, [r0], -r4
    1110:	0000014c 	andeq	r0, r0, ip, asr #2
    1114:	4c5c0001 	mrrcmi	0, 0, r0, ip, cr1
    1118:	58000001 	stmdapl	r0, {r0}
    111c:	01000001 	tsteq	r0, r1
    1120:	01585300 	cmpeq	r8, r0, lsl #6
    1124:	01740000 	cmneq	r4, r0
    1128:	00010000 	andeq	r0, r1, r0
    112c:	0001b05c 	andeq	fp, r1, ip, asr r0
    1130:	0001c000 	andeq	ip, r1, r0
    1134:	53000100 	movwpl	r0, #256	; 0x100
    1138:	000001c0 	andeq	r0, r0, r0, asr #3
    113c:	000001dc 	ldrdeq	r0, [r0], -ip
    1140:	e45c0001 	ldrb	r0, [ip], #-1
    1144:	e8000001 	stmda	r0, {r0}
    1148:	01000001 	tsteq	r0, r1
    114c:	01e85300 	mvneq	r5, r0, lsl #6
    1150:	01ff0000 	mvnseq	r0, r0
    1154:	00010000 	andeq	r0, r1, r0
    1158:	0001ff5c 	andeq	pc, r1, ip, asr pc	; <UNPREDICTABLE>
    115c:	00022400 	andeq	r2, r2, r0, lsl #8
    1160:	f3000400 	vshl.u8	d0, d0, d0
    1164:	009f5301 	addseq	r5, pc, r1, lsl #6
    1168:	00000000 	andeq	r0, r0, r0
    116c:	01000000 	mrseq	r0, (UNDEF: 0)
    1170:	00000101 	andeq	r0, r0, r1, lsl #2
    1174:	dc000000 	stcle	0, cr0, [r0], {-0}
    1178:	f0000000 			; <UNDEFINED> instruction: 0xf0000000
    117c:	02000000 	andeq	r0, r0, #0, 0
    1180:	f09f3000 			; <UNDEFINED> instruction: 0xf09f3000
    1184:	f8000000 			; <UNDEFINED> instruction: 0xf8000000
    1188:	02000000 	andeq	r0, r0, #0, 0
    118c:	fc9f3100 	ldc2	1, cr3, [pc], {0}
    1190:	4c000000 	stcmi	0, cr0, [r0], {-0}
    1194:	01000001 	tsteq	r0, r1
    1198:	014c5600 	cmpeq	ip, r0, lsl #12
    119c:	01540000 	cmpeq	r4, r0
    11a0:	00020000 	andeq	r0, r2, r0
    11a4:	00009f30 	andeq	r9, r0, r0, lsr pc
	...
    11b0:	00010100 	andeq	r0, r1, r0, lsl #2
    11b4:	00010100 	andeq	r0, r1, r0, lsl #2
    11b8:	00000038 	andeq	r0, r0, r8, lsr r0
    11bc:	00000054 	andeq	r0, r0, r4, asr r0
    11c0:	54500001 	ldrbpl	r0, [r0], #-1
    11c4:	58000000 	stmdapl	r0, {}	; <UNPREDICTABLE>
    11c8:	01000000 	mrseq	r0, (UNDEF: 0)
    11cc:	00585200 	subseq	r5, r8, r0, lsl #4
    11d0:	00600000 	rsbeq	r0, r0, r0
    11d4:	00030000 	andeq	r0, r3, r0
    11d8:	609f0172 	addsvs	r0, pc, r2, ror r1	; <UNPREDICTABLE>
    11dc:	64000000 	strvs	r0, [r0], #-0
    11e0:	01000000 	mrseq	r0, (UNDEF: 0)
    11e4:	00645200 	rsbeq	r5, r4, r0, lsl #4
    11e8:	00700000 	rsbseq	r0, r0, r0
    11ec:	00030000 	andeq	r0, r3, r0
    11f0:	009f0172 	addseq	r0, pc, r2, ror r1	; <UNPREDICTABLE>
	...
    11fc:	38000000 	stmdacc	r0, {}	; <UNPREDICTABLE>
    1200:	50000000 	andpl	r0, r0, r0
    1204:	01000000 	mrseq	r0, (UNDEF: 0)
    1208:	00505100 	subseq	r5, r0, r0, lsl #2
    120c:	00700000 	rsbseq	r0, r0, r0
    1210:	00040000 	andeq	r0, r4, r0
    1214:	9f5101f3 	svcls	0x005101f3
	...
    1224:	00010100 	andeq	r0, r1, r0, lsl #2
    1228:	00000038 	andeq	r0, r0, r8, lsr r0
    122c:	00000050 	andeq	r0, r0, r0, asr r0
    1230:	50520001 	subspl	r0, r2, r1
    1234:	5c000000 	stcpl	0, cr0, [r0], {-0}
    1238:	01000000 	mrseq	r0, (UNDEF: 0)
    123c:	005c5100 	subseq	r5, ip, r0, lsl #2
    1240:	00600000 	rsbeq	r0, r0, r0
    1244:	00030000 	andeq	r0, r3, r0
    1248:	609f0171 	addsvs	r0, pc, r1, ror r1	; <UNPREDICTABLE>
    124c:	70000000 	andvc	r0, r0, r0
    1250:	01000000 	mrseq	r0, (UNDEF: 0)
    1254:	00005100 	andeq	r5, r0, r0, lsl #2
	...
    1260:	00380000 	eorseq	r0, r8, r0
    1264:	004c0000 	subeq	r0, ip, r0
    1268:	00010000 	andeq	r0, r1, r0
    126c:	00004c53 	andeq	r4, r0, r3, asr ip
    1270:	00006800 	andeq	r6, r0, r0, lsl #16
    1274:	53000100 	movwpl	r0, #256	; 0x100
	...
    1288:	00000040 	andeq	r0, r0, r0, asr #32
    128c:	00000048 	andeq	r0, r0, r8, asr #32
    1290:	485c0001 	ldmdami	ip, {r0}^
    1294:	4c000000 	stcmi	0, cr0, [r0], {-0}
    1298:	08000000 	stmdaeq	r0, {}	; <UNPREDICTABLE>
    129c:	73007200 	movwvc	r7, #512	; 0x200
    12a0:	01231c00 			; <UNDEFINED> instruction: 0x01231c00
    12a4:	00004c9f 	muleq	r0, pc, ip	; <UNPREDICTABLE>
    12a8:	00005400 	andeq	r5, r0, r0, lsl #8
    12ac:	72000900 	andvc	r0, r0, #0, 18
    12b0:	5301f300 	movwpl	pc, #4864	; 0x1300	; <UNPREDICTABLE>
    12b4:	9f01231c 	svcls	0x0001231c
    12b8:	00000054 	andeq	r0, r0, r4, asr r0
    12bc:	00000070 	andeq	r0, r0, r0, ror r0
    12c0:	01f3000a 	mvnseq	r0, sl
    12c4:	5301f352 	movwpl	pc, #4946	; 0x1352	; <UNPREDICTABLE>
    12c8:	9f01231c 	svcls	0x0001231c
	...
    12d4:	004c0001 	subeq	r0, ip, r1
    12d8:	00700000 	rsbseq	r0, r0, r0
    12dc:	00010000 	andeq	r0, r1, r0
    12e0:	00000050 	andeq	r0, r0, r0, asr r0
    12e4:	00000000 	andeq	r0, r0, r0
    12e8:	01010000 	mrseq	r0, (UNDEF: 1)
    12ec:	14000000 	strne	r0, [r0], #-0
    12f0:	1c000000 	stcne	0, cr0, [r0], {-0}
    12f4:	01000000 	mrseq	r0, (UNDEF: 0)
    12f8:	001c5000 	andseq	r5, ip, r0
    12fc:	00240000 	eoreq	r0, r4, r0
    1300:	00030000 	andeq	r0, r3, r0
    1304:	249f0170 	ldrcs	r0, [pc], #368	; 130c <__code_start__-0x6cf4>
    1308:	38000000 	stmdacc	r0, {}	; <UNPREDICTABLE>
    130c:	01000000 	mrseq	r0, (UNDEF: 0)
    1310:	00005000 	andeq	r5, r0, r0
	...
    131c:	00140000 	andseq	r0, r4, r0
    1320:	00180000 	andseq	r0, r8, r0
    1324:	00010000 	andeq	r0, r1, r0
    1328:	00001851 	andeq	r1, r0, r1, asr r8
    132c:	00003800 	andeq	r3, r0, r0, lsl #16
    1330:	f3000400 	vshl.u8	d0, d0, d0
    1334:	009f5101 	addseq	r5, pc, r1, lsl #2
	...
    1340:	00001800 	andeq	r1, r0, r0, lsl #16
    1344:	00003800 	andeq	r3, r0, r0, lsl #16
    1348:	51000100 	mrspl	r0, (UNDEF: 16)
	...
    135c:	00040000 	andeq	r0, r4, r0
    1360:	00010000 	andeq	r0, r1, r0
    1364:	00000450 	andeq	r0, r0, r0, asr r4
    1368:	00000c00 	andeq	r0, r0, r0, lsl #24
    136c:	70000300 	andvc	r0, r0, r0, lsl #6
    1370:	000c9f30 	andeq	r9, ip, r0, lsr pc
    1374:	00140000 	andseq	r0, r4, r0
    1378:	00040000 	andeq	r0, r4, r0
    137c:	9f5001f3 	svcls	0x005001f3
	...
    138c:	00000224 	andeq	r0, r0, r4, lsr #4
    1390:	00000268 	andeq	r0, r0, r8, ror #4
    1394:	68500001 	ldmdavs	r0, {r0}^
    1398:	88000002 	stmdahi	r0, {r1}
    139c:	04000002 	streq	r0, [r0], #-2
    13a0:	5001f300 	andpl	pc, r1, r0, lsl #6
    13a4:	0000009f 	muleq	r0, pc, r0	; <UNPREDICTABLE>
	...
    13b0:	00022400 	andeq	r2, r2, r0, lsl #8
    13b4:	00026400 	andeq	r6, r2, r0, lsl #8
    13b8:	51000100 	mrspl	r0, (UNDEF: 16)
    13bc:	00000264 	andeq	r0, r0, r4, ror #4
    13c0:	00000288 	andeq	r0, r0, r8, lsl #5
    13c4:	01f30004 	mvnseq	r0, r4
    13c8:	00009f51 	andeq	r9, r0, r1, asr pc
    13cc:	00000000 	andeq	r0, r0, r0
    13d0:	01000000 	mrseq	r0, (UNDEF: 0)
    13d4:	00000001 	andeq	r0, r0, r1
    13d8:	0000000c 	andeq	r0, r0, ip
    13dc:	00000014 	andeq	r0, r0, r4, lsl r0
    13e0:	14530001 	ldrbne	r0, [r3], #-1
    13e4:	1c000000 	stcne	0, cr0, [r0], {-0}
    13e8:	03000000 	movweq	r0, #0
    13ec:	9f047300 	svcls	0x00047300
    13f0:	0000001c 	andeq	r0, r0, ip, lsl r0
    13f4:	00000023 	andeq	r0, r0, r3, lsr #32
    13f8:	00530001 	subseq	r0, r3, r1
    13fc:	00000000 	andeq	r0, r0, r0
    1400:	01000000 	mrseq	r0, (UNDEF: 0)
    1404:	00950000 	addseq	r0, r5, r0
    1408:	00951c00 	addseq	r1, r5, r0, lsl #24
    140c:	0c000600 	stceq	6, cr0, [r0], {-0}
    1410:	2010001c 	andscs	r0, r0, ip, lsl r0
    1414:	0000009f 	muleq	r0, pc, r0	; <UNPREDICTABLE>
    1418:	00000000 	andeq	r0, r0, r0
    141c:	00000200 	andeq	r0, r0, r0, lsl #4
    1420:	1c000095 	stcne	0, cr0, [r0], {149}	; 0x95
    1424:	06000095 			; <UNDEFINED> instruction: 0x06000095
    1428:	00240c00 	eoreq	r0, r4, r0, lsl #24
    142c:	009f2010 	addseq	r2, pc, r0, lsl r0	; <UNPREDICTABLE>
    1430:	00000000 	andeq	r0, r0, r0
    1434:	03000000 	movweq	r0, #0
    1438:	00950000 	addseq	r0, r5, r0
    143c:	00951c00 	addseq	r1, r5, r0, lsl #24
    1440:	08000500 	stmdaeq	r0, {r8, sl}
    1444:	9f2447b4 	svcls	0x002447b4
	...
    1450:	95000004 	strls	r0, [r0, #-4]
    1454:	951c0000 	ldrls	r0, [ip, #-0]
    1458:	00030000 	andeq	r0, r3, r0
    145c:	009f2008 	addseq	r2, pc, r8
    1460:	00000000 	andeq	r0, r0, r0
    1464:	02000000 	andeq	r0, r0, #0, 0
    1468:	00000000 	andeq	r0, r0, r0
    146c:	0094cc00 	addseq	ip, r4, r0, lsl #24
    1470:	0094d000 	addseq	sp, r4, r0
    1474:	30000200 	andcc	r0, r0, r0, lsl #4
    1478:	0094d09f 	umullseq	sp, r4, pc, r0	; <UNPREDICTABLE>
    147c:	0094d400 	addseq	sp, r4, r0, lsl #8
    1480:	53000100 	movwpl	r0, #256	; 0x100
    1484:	000094d8 	ldrdeq	r9, [r0], -r8
    1488:	000094e0 	andeq	r9, r0, r0, ror #9
    148c:	00530001 	subseq	r0, r3, r1
    1490:	00000000 	andeq	r0, r0, r0
    1494:	02000000 	andeq	r0, r0, #0, 0
    1498:	b4000000 	strlt	r0, [r0], #-0
    149c:	b8000094 	stmdalt	r0, {r2, r4, r7}
    14a0:	02000094 	andeq	r0, r0, #148, 0	; 0x94
    14a4:	b89f3000 	ldmlt	pc, {ip, sp}	; <UNPREDICTABLE>
    14a8:	bc000094 	stclt	0, cr0, [r0], {148}	; 0x94
    14ac:	01000094 	swpeq	r0, r4, [r0]	; <UNPREDICTABLE>
    14b0:	00005000 	andeq	r5, r0, r0
	...
    14bc:	006c0000 	rsbeq	r0, ip, r0
    14c0:	00780000 	rsbseq	r0, r8, r0
    14c4:	00010000 	andeq	r0, r1, r0
    14c8:	00007850 	andeq	r7, r0, r0, asr r8
    14cc:	00008400 	andeq	r8, r0, r0, lsl #8
    14d0:	f3000400 	vshl.u8	d0, d0, d0
    14d4:	009f5001 	addseq	r5, pc, r1
	...
    14e0:	54000000 	strpl	r0, [r0], #-0
    14e4:	60000000 	andvs	r0, r0, r0
    14e8:	01000000 	mrseq	r0, (UNDEF: 0)
    14ec:	00605000 	rsbeq	r5, r0, r0
    14f0:	006c0000 	rsbeq	r0, ip, r0
    14f4:	00040000 	andeq	r0, r4, r0
    14f8:	9f5001f3 	svcls	0x005001f3
	...
    1508:	00000030 	andeq	r0, r0, r0, lsr r0
    150c:	0000003b 	andeq	r0, r0, fp, lsr r0
    1510:	3b500001 	blcc	140151c <__bss_end__+0x13f6ab4>
    1514:	54000000 	strpl	r0, [r0], #-0
    1518:	01000000 	mrseq	r0, (UNDEF: 0)
    151c:	00005500 	andeq	r5, r0, r0, lsl #10
	...
    1528:	00000040 	andeq	r0, r0, r0, asr #32
    152c:	00000054 	andeq	r0, r0, r4, asr r0
    1530:	00540001 	subseq	r0, r4, r1
	...
    153c:	00004400 	andeq	r4, r0, r0, lsl #8
    1540:	00004800 	andeq	r4, r0, r0, lsl #16
    1544:	50000100 	andpl	r0, r0, r0, lsl #2
	...
    1554:	00000024 	andeq	r0, r0, r4, lsr #32
    1558:	00000027 	andeq	r0, r0, r7, lsr #32
    155c:	27500001 	ldrbcs	r0, [r0, -r1]
    1560:	30000000 	andcc	r0, r0, r0
    1564:	01000000 	mrseq	r0, (UNDEF: 0)
    1568:	00005400 	andeq	r5, r0, r0, lsl #8
	...
    1574:	01580000 	cmpeq	r8, r0
    1578:	01630000 	cmneq	r3, r0
    157c:	00010000 	andeq	r0, r1, r0
    1580:	00016350 	andeq	r6, r1, r0, asr r3
    1584:	00018800 	andeq	r8, r1, r0, lsl #16
    1588:	54000100 	strpl	r0, [r0], #-256	; 0xffffff00
	...
    1594:	01480000 	mrseq	r0, (UNDEF: 72)
    1598:	01580000 	cmpeq	r8, r0
    159c:	00010000 	andeq	r0, r1, r0
    15a0:	00000054 	andeq	r0, r0, r4, asr r0
	...
    15b0:	00000f00 	andeq	r0, r0, r0, lsl #30
    15b4:	50000100 	andpl	r0, r0, r0, lsl #2
    15b8:	0000000f 	andeq	r0, r0, pc
    15bc:	00000020 	andeq	r0, r0, r0, lsr #32
    15c0:	00540001 	subseq	r0, r4, r1
	...
    15d0:	0f000000 	svceq	0x00000000
    15d4:	01000000 	mrseq	r0, (UNDEF: 0)
    15d8:	000f5100 	andeq	r5, pc, r0, lsl #2
    15dc:	00200000 	eoreq	r0, r0, r0
    15e0:	00010000 	andeq	r0, r1, r0
    15e4:	00000055 	andeq	r0, r0, r5, asr r0
	...
    15f0:	00002000 	andeq	r2, r0, r0
    15f4:	00002f00 	andeq	r2, r0, r0, lsl #30
    15f8:	50000100 	andpl	r0, r0, r0, lsl #2
    15fc:	0000002f 	andeq	r0, r0, pc, lsr #32
    1600:	00000040 	andeq	r0, r0, r0, asr #32
    1604:	00540001 	subseq	r0, r4, r1
	...
    1610:	20000000 	andcs	r0, r0, r0
    1614:	2f000000 	svccs	0x00000000
    1618:	01000000 	mrseq	r0, (UNDEF: 0)
    161c:	002f5100 	eoreq	r5, pc, r0, lsl #2
    1620:	00400000 	subeq	r0, r0, r0
    1624:	00010000 	andeq	r0, r1, r0
    1628:	00000055 	andeq	r0, r0, r5, asr r0
	...
    1634:	50000000 	andpl	r0, r0, r0
    1638:	98000003 	stmdals	r0, {r0, r1}
    163c:	01000003 	tsteq	r0, r3
    1640:	03985000 	orrseq	r5, r8, #0, 0
    1644:	039b0000 	orrseq	r0, fp, #0, 0
    1648:	00020000 	andeq	r0, r2, r0
    164c:	039b6891 	orrseq	r6, fp, #9502720	; 0x910000
    1650:	03b00000 	movseq	r0, #0, 0
    1654:	00040000 	andeq	r0, r4, r0
    1658:	9f5001f3 	svcls	0x005001f3
	...
    1678:	00000220 	andeq	r0, r0, r0, lsr #4
    167c:	0000027b 	andeq	r0, r0, fp, ror r2
    1680:	7b500001 	blvc	140168c <__bss_end__+0x13f6c24>
    1684:	84000002 	strhi	r0, [r0], #-2
    1688:	04000002 	streq	r0, [r0], #-2
    168c:	5001f300 	andpl	pc, r1, r0, lsl #6
    1690:	0002849f 	muleq	r2, pc, r4	; <UNPREDICTABLE>
    1694:	00029c00 	andeq	r9, r2, r0, lsl #24
    1698:	50000100 	andpl	r0, r0, r0, lsl #2
    169c:	0000029c 	muleq	r0, ip, r2
    16a0:	000002a4 	andeq	r0, r0, r4, lsr #5
    16a4:	01f30004 	mvnseq	r0, r4
    16a8:	02a49f50 	adceq	r9, r4, #80, 30	; 0x140
    16ac:	02a70000 	adceq	r0, r7, #0, 0
    16b0:	00010000 	andeq	r0, r1, r0
    16b4:	0002a750 	andeq	sl, r2, r0, asr r7
    16b8:	0002c800 	andeq	ip, r2, r0, lsl #16
    16bc:	f3000400 	vshl.u8	d0, d0, d0
    16c0:	c89f5001 	ldmgt	pc, {r0, ip, lr}	; <UNPREDICTABLE>
    16c4:	e0000002 	and	r0, r0, r2
    16c8:	01000002 	tsteq	r0, r2
    16cc:	02e05000 	rsceq	r5, r0, #0, 0
    16d0:	02e80000 	rsceq	r0, r8, #0, 0
    16d4:	00040000 	andeq	r0, r4, r0
    16d8:	9f5001f3 	svcls	0x005001f3
    16dc:	000002e8 	andeq	r0, r0, r8, ror #5
    16e0:	000002eb 	andeq	r0, r0, fp, ror #5
    16e4:	eb500001 	bl	14016f0 <__bss_end__+0x13f6c88>
    16e8:	38000002 	stmdacc	r0, {r1}
    16ec:	04000003 	streq	r0, [r0], #-3
    16f0:	5001f300 	andpl	pc, r1, r0, lsl #6
    16f4:	0000009f 	muleq	r0, pc, r0	; <UNPREDICTABLE>
	...
    1710:	00022000 	andeq	r2, r2, r0
    1714:	00024400 	andeq	r4, r2, r0, lsl #8
    1718:	51000100 	mrspl	r0, (UNDEF: 16)
    171c:	00000244 	andeq	r0, r0, r4, asr #4
    1720:	00000268 	andeq	r0, r0, r8, ror #4
    1724:	68510001 	ldmdavs	r1, {r0}^
    1728:	7b000002 	blvc	1738 <__code_start__-0x68c8>
    172c:	03000002 	movweq	r0, #2
    1730:	9f017100 	svcls	0x00017100
    1734:	0000027b 	andeq	r0, r0, fp, ror r2
    1738:	00000284 	andeq	r0, r0, r4, lsl #5
    173c:	f3380017 	vqadd.u64	d0, d8, d7
    1740:	01f35101 	mvnseq	r5, r1, lsl #2
    1744:	244b4051 	strbcs	r4, [fp], #-81	; 0xffffffaf
    1748:	00080c22 	andeq	r0, r8, r2, lsr #24
    174c:	282d8000 	stmdacs	sp!, {pc}
    1750:	13160001 	tstne	r6, #1, 0
    1754:	0002849f 	muleq	r2, pc, r4	; <UNPREDICTABLE>
    1758:	00029800 	andeq	r9, r2, r0, lsl #16
    175c:	51000100 	mrspl	r0, (UNDEF: 16)
    1760:	00000298 	muleq	r0, r8, r2
    1764:	000002a4 	andeq	r0, r0, r4, lsr #5
    1768:	01f30004 	mvnseq	r0, r4
    176c:	02a49f51 	adceq	r9, r4, #324	; 0x144
    1770:	02a70000 	adceq	r0, r7, #0, 0
    1774:	00010000 	andeq	r0, r1, r0
    1778:	0002a751 	andeq	sl, r2, r1, asr r7
    177c:	0002c800 	andeq	ip, r2, r0, lsl #16
    1780:	f3000400 	vshl.u8	d0, d0, d0
    1784:	c89f5101 	ldmgt	pc, {r0, r8, ip, lr}	; <UNPREDICTABLE>
    1788:	dc000002 	stcle	0, cr0, [r0], {2}
    178c:	01000002 	tsteq	r0, r2
    1790:	02dc5100 	sbcseq	r5, ip, #0
    1794:	03380000 	teqeq	r8, #0, 0
    1798:	00170000 	andseq	r0, r7, r0
    179c:	5101f338 	tstpl	r1, r8, lsr r3	; <UNPREDICTABLE>
    17a0:	405101f3 	ldrshmi	r0, [r1], #-19	; 0xffffffed
    17a4:	0c22244b 	cfstrseq	mvf2, [r2], #-300	; 0xfffffed4
    17a8:	80000008 	andhi	r0, r0, r8
    17ac:	0001282d 	andeq	r2, r1, sp, lsr #16
    17b0:	009f1316 	addseq	r1, pc, r6, lsl r3	; <UNPREDICTABLE>
	...
    17c4:	4c000000 	stcmi	0, cr0, [r0], {-0}
    17c8:	5c000002 	stcpl	0, cr0, [r0], {2}
    17cc:	01000002 	tsteq	r0, r2
    17d0:	025c5200 	subseq	r5, ip, #0, 4
    17d4:	02640000 	rsbeq	r0, r4, #0, 0
    17d8:	00050000 	andeq	r0, r5, r0
    17dc:	00a62c03 	adceq	r2, r6, r3, lsl #24
    17e0:	00026400 	andeq	r6, r2, r0, lsl #8
    17e4:	00027b00 	andeq	r7, r2, r0, lsl #22
    17e8:	53000100 	movwpl	r0, #256	; 0x100
    17ec:	000002c8 	andeq	r0, r0, r8, asr #5
    17f0:	000002d8 	ldrdeq	r0, [r0], -r8
    17f4:	d8520001 	ldmdale	r2, {r0}^
    17f8:	e3000002 	movw	r0, #2
    17fc:	05000002 	streq	r0, [r0, #-2]
    1800:	a62c0300 	strtge	r0, [ip], -r0, lsl #6
    1804:	02e80000 	rsceq	r0, r8, #0, 0
    1808:	02eb0000 	rsceq	r0, fp, #0, 0
    180c:	00010000 	andeq	r0, r1, r0
    1810:	00000053 	andeq	r0, r0, r3, asr r0
    1814:	00000000 	andeq	r0, r0, r0
    1818:	30000400 	andcc	r0, r0, r0, lsl #8
    181c:	34000002 	strcc	r0, [r0], #-2
    1820:	01000002 	tsteq	r0, r2
    1824:	00005100 	andeq	r5, r0, r0, lsl #2
    1828:	00000000 	andeq	r0, r0, r0
    182c:	00020000 	andeq	r0, r2, r0
    1830:	0000023c 	andeq	r0, r0, ip, lsr r2
    1834:	00000244 	andeq	r0, r0, r4, asr #4
    1838:	9f380002 	svcls	0x00380002
	...
    1844:	023c0002 	eorseq	r0, ip, #2, 0
    1848:	02440000 	subeq	r0, r4, #0, 0
    184c:	00010000 	andeq	r0, r1, r0
    1850:	00000051 	andeq	r0, r0, r1, asr r0
    1854:	00000000 	andeq	r0, r0, r0
    1858:	00000100 	andeq	r0, r0, r0, lsl #2
    185c:	4c000000 	stcmi	0, cr0, [r0], {-0}
    1860:	64000002 	strvs	r0, [r0], #-2
    1864:	01000002 	tsteq	r0, r2
    1868:	02c85100 	sbceq	r5, r8, #0
    186c:	02dc0000 	sbcseq	r0, ip, #0, 0
    1870:	00010000 	andeq	r0, r1, r0
    1874:	0002dc51 	andeq	sp, r2, r1, asr ip
    1878:	0002e800 	andeq	lr, r2, r0, lsl #16
    187c:	38001700 	stmdacc	r0, {r8, r9, sl, ip}
    1880:	f35101f3 	vbsl	q8, <illegal reg q8.5>, <illegal reg q9.5>
    1884:	4b405101 	blmi	1015c90 <__bss_end__+0x100b228>
    1888:	080c2224 	stmdaeq	ip, {r2, r5, r9, sp}
    188c:	2d800000 	stccs	0, cr0, [r0]
    1890:	16000128 	strne	r0, [r0], -r8, lsr #2
    1894:	00009f13 	andeq	r9, r0, r3, lsl pc
    1898:	00000000 	andeq	r0, r0, r0
    189c:	00010000 	andeq	r0, r1, r0
    18a0:	00000000 	andeq	r0, r0, r0
    18a4:	024c0000 	subeq	r0, ip, #0, 0
    18a8:	025c0000 	subseq	r0, ip, #0, 0
    18ac:	00010000 	andeq	r0, r1, r0
    18b0:	00025c52 	andeq	r5, r2, r2, asr ip
    18b4:	00026400 	andeq	r6, r2, r0, lsl #8
    18b8:	03000500 	movweq	r0, #1280	; 0x500
    18bc:	0000a62c 	andeq	sl, r0, ip, lsr #12
    18c0:	000002c8 	andeq	r0, r0, r8, asr #5
    18c4:	000002d8 	ldrdeq	r0, [r0], -r8
    18c8:	d8520001 	ldmdale	r2, {r0}^
    18cc:	e3000002 	movw	r0, #2
    18d0:	05000002 	streq	r0, [r0, #-2]
    18d4:	a62c0300 	strtge	r0, [ip], -r0, lsl #6
	...
    18e0:	00040000 	andeq	r0, r4, r0
    18e4:	0000024c 	andeq	r0, r0, ip, asr #4
    18e8:	00000250 	andeq	r0, r0, r0, asr r2
    18ec:	00510001 	subseq	r0, r1, r1
    18f0:	00000000 	andeq	r0, r0, r0
    18f4:	03000000 	movweq	r0, #0
    18f8:	00026400 	andeq	r6, r2, r0, lsl #8
    18fc:	00026800 	andeq	r6, r2, r0, lsl #16
    1900:	51000100 	mrspl	r0, (UNDEF: 16)
	...
    190c:	02640003 	rsbeq	r0, r4, #3, 0
    1910:	02680000 	rsbeq	r0, r8, #0, 0
    1914:	00010000 	andeq	r0, r1, r0
    1918:	00000053 	andeq	r0, r0, r3, asr r0
	...
    1928:	0001bc00 	andeq	fp, r1, r0, lsl #24
    192c:	0001d300 	andeq	sp, r1, r0, lsl #6
    1930:	50000100 	andpl	r0, r0, r0, lsl #2
    1934:	000001d3 	ldrdeq	r0, [r0], -r3
    1938:	000001f0 	strdeq	r0, [r0], -r0	; <UNPREDICTABLE>
    193c:	f0540001 			; <UNDEFINED> instruction: 0xf0540001
    1940:	08000001 	stmdaeq	r0, {r0}
    1944:	01000002 	tsteq	r0, r2
    1948:	02085000 	andeq	r5, r8, #0, 0
    194c:	02200000 	eoreq	r0, r0, #0, 0
    1950:	00010000 	andeq	r0, r1, r0
    1954:	00000054 	andeq	r0, r0, r4, asr r0
	...
    1960:	0001d800 	andeq	sp, r1, r0, lsl #16
    1964:	0001e300 	andeq	lr, r1, r0, lsl #6
    1968:	50000100 	andpl	r0, r0, r0, lsl #2
    196c:	000001e3 	andeq	r0, r0, r3, ror #3
    1970:	000001f0 	strdeq	r0, [r0], -r0	; <UNPREDICTABLE>
    1974:	00550001 	subseq	r0, r5, r1
	...
    198c:	24000000 	strcs	r0, [r0], #-0
    1990:	38000001 	stmdacc	r0, {r0}
    1994:	01000001 	tsteq	r0, r1
    1998:	01385000 	teqeq	r8, r0
    199c:	013c0000 	teqeq	ip, r0
    19a0:	00030000 	andeq	r0, r3, r0
    19a4:	3c9f7970 			; <UNDEFINED> instruction: 0x3c9f7970
    19a8:	60000001 	andvs	r0, r0, r1
    19ac:	01000001 	tsteq	r0, r1
    19b0:	01605300 	cmneq	r0, r0, lsl #6
    19b4:	01780000 	cmneq	r8, r0
    19b8:	00010000 	andeq	r0, r1, r0
    19bc:	00017850 	andeq	r7, r1, r0, asr r8
    19c0:	00018000 	andeq	r8, r1, r0
    19c4:	f3000400 	vshl.u8	d0, d0, d0
    19c8:	809f5001 	addshi	r5, pc, r1
    19cc:	90000001 	andls	r0, r0, r1
    19d0:	01000001 	tsteq	r0, r1
    19d4:	01905300 	orrseq	r5, r0, r0, lsl #6
    19d8:	019f0000 	orrseq	r0, pc, r0
    19dc:	00020000 	andeq	r0, r2, r0
    19e0:	019f6891 			; <UNDEFINED> instruction: 0x019f6891
    19e4:	01bc0000 			; <UNDEFINED> instruction: 0x01bc0000
    19e8:	00090000 	andeq	r0, r9, r0
    19ec:	235001f3 	cmpcs	r0, #-1073741764	; 0xc000003c
    19f0:	1af80907 	bne	ffe03e14 <__bss_end__+0xffdf93ac>
    19f4:	0000009f 	muleq	r0, pc, r0	; <UNPREDICTABLE>
	...
    1a00:	44000000 	strmi	r0, [r0], #-0
    1a04:	60000001 	andvs	r0, r0, r1
    1a08:	01000001 	tsteq	r0, r1
    1a0c:	01805000 	orreq	r5, r0, r0
    1a10:	019c0000 	orrseq	r0, ip, r0
    1a14:	00010000 	andeq	r0, r1, r0
    1a18:	00019c50 	andeq	r9, r1, r0, asr ip
    1a1c:	00019f00 	andeq	r9, r1, r0, lsl #30
    1a20:	03000500 	movweq	r0, #1280	; 0x500
    1a24:	0000a62c 	andeq	sl, r0, ip, lsr #12
	...
    1a30:	01340003 	teqeq	r4, r3
    1a34:	013c0000 	teqeq	ip, r0
    1a38:	00020000 	andeq	r0, r2, r0
    1a3c:	00009f38 	andeq	r9, r0, r8, lsr pc
    1a40:	00000000 	andeq	r0, r0, r0
    1a44:	00030000 	andeq	r0, r3, r0
    1a48:	01340000 	teqeq	r4, r0
    1a4c:	01380000 	teqeq	r8, r0
    1a50:	00010000 	andeq	r0, r1, r0
    1a54:	00013850 	andeq	r3, r1, r0, asr r8
    1a58:	00013c00 	andeq	r3, r1, r0, lsl #24
    1a5c:	70000300 	andvc	r0, r0, r0, lsl #6
    1a60:	00009f79 	andeq	r9, r0, r9, ror pc
	...
    1a78:	00000030 	andeq	r0, r0, r0, lsr r0
    1a7c:	00000060 	andeq	r0, r0, r0, rrx
    1a80:	60500001 	subsvs	r0, r0, r1
    1a84:	6c000000 	stcvs	0, cr0, [r0], {-0}
    1a88:	05000000 	streq	r0, [r0, #-0]
    1a8c:	a62c0300 	strtge	r0, [ip], -r0, lsl #6
    1a90:	006c0000 	rsbeq	r0, ip, r0
    1a94:	00840000 	addeq	r0, r4, r0
    1a98:	00010000 	andeq	r0, r1, r0
    1a9c:	00008450 	andeq	r8, r0, r0, asr r4
    1aa0:	00008c00 	andeq	r8, r0, r0, lsl #24
    1aa4:	f3000400 	vshl.u8	d0, d0, d0
    1aa8:	8c9f5001 	ldchi	0, cr5, [pc], {1}
    1aac:	ac000000 	stcge	0, cr0, [r0], {-0}
    1ab0:	01000000 	mrseq	r0, (UNDEF: 0)
    1ab4:	00ac5000 	adceq	r5, ip, r0
    1ab8:	00af0000 	adceq	r0, pc, r0
    1abc:	00020000 	andeq	r0, r2, r0
    1ac0:	00af6891 	umlaleq	r6, pc, r1, r8	; <UNPREDICTABLE>
    1ac4:	00cc0000 	sbceq	r0, ip, r0
    1ac8:	00040000 	andeq	r0, r4, r0
    1acc:	9f5001f3 	svcls	0x005001f3
	...
    1ae0:	00000030 	andeq	r0, r0, r0, lsr r0
    1ae4:	00000080 	andeq	r0, r0, r0, lsl #1
    1ae8:	80510001 	subshi	r0, r1, r1
    1aec:	8c000000 	stchi	0, cr0, [r0], {-0}
    1af0:	04000000 	streq	r0, [r0], #-0
    1af4:	5101f300 	mrspl	pc, SP_irq	; <UNPREDICTABLE>
    1af8:	00008c9f 	muleq	r0, pc, ip	; <UNPREDICTABLE>
    1afc:	0000a800 	andeq	sl, r0, r0, lsl #16
    1b00:	51000100 	mrspl	r0, (UNDEF: 16)
    1b04:	000000a8 	andeq	r0, r0, r8, lsr #1
    1b08:	000000cc 	andeq	r0, r0, ip, asr #1
    1b0c:	01f30004 	mvnseq	r0, r4
    1b10:	00009f51 	andeq	r9, r0, r1, asr pc
    1b14:	00000000 	andeq	r0, r0, r0
    1b18:	00010000 	andeq	r0, r1, r0
	...
    1b28:	00000038 	andeq	r0, r0, r8, lsr r0
    1b2c:	00000060 	andeq	r0, r0, r0, rrx
    1b30:	60500001 	subsvs	r0, r0, r1
    1b34:	6c000000 	stcvs	0, cr0, [r0], {-0}
    1b38:	05000000 	streq	r0, [r0, #-0]
    1b3c:	a62c0300 	strtge	r0, [ip], -r0, lsl #6
    1b40:	006c0000 	rsbeq	r0, ip, r0
    1b44:	00840000 	addeq	r0, r4, r0
    1b48:	00010000 	andeq	r0, r1, r0
    1b4c:	00008450 	andeq	r8, r0, r0, asr r4
    1b50:	00008c00 	andeq	r8, r0, r0, lsl #24
    1b54:	f3000400 	vshl.u8	d0, d0, d0
    1b58:	8c9f5001 	ldchi	0, cr5, [pc], {1}
    1b5c:	ac000000 	stcge	0, cr0, [r0], {-0}
    1b60:	01000000 	mrseq	r0, (UNDEF: 0)
    1b64:	00ac5000 	adceq	r5, ip, r0
    1b68:	00af0000 	adceq	r0, pc, r0
    1b6c:	00020000 	andeq	r0, r2, r0
    1b70:	00af6891 	umlaleq	r6, pc, r1, r8	; <UNPREDICTABLE>
    1b74:	00cc0000 	sbceq	r0, ip, r0
    1b78:	00040000 	andeq	r0, r4, r0
    1b7c:	9f5001f3 	svcls	0x005001f3
	...
    1b90:	0000000b 	andeq	r0, r0, fp
    1b94:	0b500001 	bleq	1401ba0 <__bss_end__+0x13f7138>
    1b98:	14000000 	strne	r0, [r0], #-0
    1b9c:	01000000 	mrseq	r0, (UNDEF: 0)
    1ba0:	00005400 	andeq	r5, r0, r0, lsl #8
	...
    1bb0:	001c0000 	andseq	r0, ip, r0
    1bb4:	00010000 	andeq	r0, r1, r0
    1bb8:	00001c51 	andeq	r1, r0, r1, asr ip
    1bbc:	00003400 	andeq	r3, r0, r0, lsl #8
    1bc0:	f3000400 	vshl.u8	d0, d0, d0
    1bc4:	009f5101 	addseq	r5, pc, r1, lsl #2
    1bc8:	00000000 	andeq	r0, r0, r0
    1bcc:	02000000 	andeq	r0, r0, #0, 0
    1bd0:	00000000 	andeq	r0, r0, r0
    1bd4:	00000101 	andeq	r0, r0, r1, lsl #2
    1bd8:	00000000 	andeq	r0, r0, r0
    1bdc:	00000400 	andeq	r0, r0, r0, lsl #8
    1be0:	50000100 	andpl	r0, r0, r0, lsl #2
    1be4:	00000004 	andeq	r0, r0, r4
    1be8:	0000001c 	andeq	r0, r0, ip, lsl r0
    1bec:	1c520001 	mrrcne	0, 0, r0, r2, cr1
    1bf0:	24000000 	strcs	r0, [r0], #-0
    1bf4:	01000000 	mrseq	r0, (UNDEF: 0)
    1bf8:	00245300 	eoreq	r5, r4, r0, lsl #6
    1bfc:	00280000 	eoreq	r0, r8, r0
    1c00:	00030000 	andeq	r0, r3, r0
    1c04:	289f0173 	ldmcs	pc, {r0, r1, r4, r5, r6, r8}	; <UNPREDICTABLE>
    1c08:	34000000 	strcc	r0, [r0], #-0
    1c0c:	01000000 	mrseq	r0, (UNDEF: 0)
    1c10:	00005300 	andeq	r5, r0, r0, lsl #6
    1c14:	00000000 	andeq	r0, r0, r0
    1c18:	00030000 	andeq	r0, r3, r0
    1c1c:	00000000 	andeq	r0, r0, r0
    1c20:	00240000 	eoreq	r0, r4, r0
    1c24:	00010000 	andeq	r0, r1, r0
    1c28:	00002451 	andeq	r2, r0, r1, asr r4
    1c2c:	00003400 	andeq	r3, r0, r0, lsl #8
    1c30:	71000300 	mrsvc	r0, LR_irq
    1c34:	00009f7f 	andeq	r9, r0, pc, ror pc
	...
    1c40:	00100000 	andseq	r0, r0, r0
    1c44:	001c0000 	andseq	r0, ip, r0
    1c48:	00010000 	andeq	r0, r1, r0
    1c4c:	0000245c 	andeq	r2, r0, ip, asr r4
    1c50:	00003400 	andeq	r3, r0, r0, lsl #8
    1c54:	52000100 	andpl	r0, r0, #0
	...
    1c68:	00000018 	andeq	r0, r0, r8, lsl r0
    1c6c:	18500001 	ldmdane	r0, {r0}^
    1c70:	24000000 	strcs	r0, [r0], #-0
    1c74:	01000000 	mrseq	r0, (UNDEF: 0)
    1c78:	00005000 	andeq	r5, r0, r0
	...
    1c88:	001c0000 	andseq	r0, ip, r0
    1c8c:	00010000 	andeq	r0, r1, r0
    1c90:	00001c51 	andeq	r1, r0, r1, asr ip
    1c94:	00002c00 	andeq	r2, r0, r0, lsl #24
    1c98:	51000100 	mrspl	r0, (UNDEF: 16)
	...
    1cac:	00040000 	andeq	r0, r4, r0
    1cb0:	00010000 	andeq	r0, r1, r0
    1cb4:	00000451 	andeq	r0, r0, r1, asr r4
    1cb8:	00000c00 	andeq	r0, r0, r0, lsl #24
    1cbc:	51000100 	mrspl	r0, (UNDEF: 16)
    1cc0:	0000000c 	andeq	r0, r0, ip
    1cc4:	00000020 	andeq	r0, r0, r0, lsr #32
    1cc8:	7f710003 	svcvc	0x00710003
    1ccc:	0000009f 	muleq	r0, pc, r0	; <UNPREDICTABLE>
    1cd0:	00000000 	andeq	r0, r0, r0
    1cd4:	00000200 	andeq	r0, r0, r0, lsl #4
    1cd8:	00000000 	andeq	r0, r0, r0
    1cdc:	04000000 	streq	r0, [r0], #-0
    1ce0:	01000000 	mrseq	r0, (UNDEF: 0)
    1ce4:	00045000 	andeq	r5, r4, r0
    1ce8:	00140000 	andseq	r0, r4, r0
    1cec:	00010000 	andeq	r0, r1, r0
    1cf0:	0000145c 	andeq	r1, r0, ip, asr r4
    1cf4:	00002000 	andeq	r2, r0, r0
    1cf8:	7c000300 	stcvc	3, cr0, [r0], {-0}
    1cfc:	00009f7f 	andeq	r9, r0, pc, ror pc
    1d00:	00000000 	andeq	r0, r0, r0
    1d04:	03000000 	movweq	r0, #0
    1d08:	9c140003 	ldcls	0, cr0, [r4], {3}
    1d0c:	9c140000 	ldcls	0, cr0, [r4], {-0}
    1d10:	00010000 	andeq	r0, r1, r0
    1d14:	009c1450 	addseq	r1, ip, r0, asr r4
    1d18:	009c4000 	addseq	r4, ip, r0
    1d1c:	f3000400 	vshl.u8	d0, d0, d0
    1d20:	009f5001 	addseq	r5, pc, r1
	...
    1d2c:	14000303 	strne	r0, [r0], #-771	; 0xfffffcfd
    1d30:	1400009c 	strne	r0, [r0], #-156	; 0xffffff64
    1d34:	0100009c 	swpeq	r0, ip, [r0]	; <UNPREDICTABLE>
    1d38:	9c145100 	ldflss	f5, [r4], {-0}
    1d3c:	9c400000 	marls	acc0, r0, r0
    1d40:	00040000 	andeq	r0, r4, r0
    1d44:	9f5101f3 	svcls	0x005101f3
	...
    1d50:	00030300 	andeq	r0, r3, r0, lsl #6
    1d54:	9c140000 	ldcls	0, cr0, [r4], {-0}
    1d58:	9c140000 	ldcls	0, cr0, [r4], {-0}
    1d5c:	00010000 	andeq	r0, r1, r0
    1d60:	009c1452 	addseq	r1, ip, r2, asr r4
    1d64:	009c1c00 	addseq	r1, ip, r0, lsl #24
    1d68:	52000100 	andpl	r0, r0, #0
    1d6c:	00009c1c 	andeq	r9, r0, ip, lsl ip
    1d70:	00009c40 	andeq	r9, r0, r0, asr #24
    1d74:	01720003 	cmneq	r2, r3
    1d78:	0000009f 	muleq	r0, pc, r0	; <UNPREDICTABLE>
    1d7c:	00000000 	andeq	r0, r0, r0
    1d80:	01010200 	mrseq	r0, R9_usr
    1d84:	00000000 	andeq	r0, r0, r0
    1d88:	009c1400 	addseq	r1, ip, r0, lsl #8
    1d8c:	009c2000 	addseq	r2, ip, r0
    1d90:	50000100 	andpl	r0, r0, r0, lsl #2
    1d94:	00009c20 	andeq	r9, r0, r0, lsr #24
    1d98:	00009c24 	andeq	r9, r0, r4, lsr #24
    1d9c:	01700003 	cmneq	r0, r3
    1da0:	009c249f 	umullseq	r2, ip, pc, r4	; <UNPREDICTABLE>
    1da4:	009c3400 	addseq	r3, ip, r0, lsl #8
    1da8:	50000100 	andpl	r0, r0, r0, lsl #2
    1dac:	00009c38 	andeq	r9, r0, r8, lsr ip
    1db0:	00009c3c 	andeq	r9, r0, ip, lsr ip
    1db4:	00500001 	subseq	r0, r0, r1
    1db8:	00000000 	andeq	r0, r0, r0
    1dbc:	02000000 	andeq	r0, r0, #0, 0
    1dc0:	00000000 	andeq	r0, r0, r0
    1dc4:	009c1400 	addseq	r1, ip, r0, lsl #8
    1dc8:	009c2400 	addseq	r2, ip, r0, lsl #8
    1dcc:	51000100 	mrspl	r0, (UNDEF: 16)
    1dd0:	00009c24 	andeq	r9, r0, r4, lsr #24
    1dd4:	00009c28 	andeq	r9, r0, r8, lsr #24
    1dd8:	01710003 	cmneq	r1, r3
    1ddc:	009c289f 	umullseq	r2, ip, pc, r8	; <UNPREDICTABLE>
    1de0:	009c4000 	addseq	r4, ip, r0
    1de4:	51000100 	mrspl	r0, (UNDEF: 16)
	...
    1df8:	000000e8 	andeq	r0, r0, r8, ror #1
    1dfc:	00000100 	andeq	r0, r0, r0, lsl #2
    1e00:	00500001 	subseq	r0, r0, r1
    1e04:	10000001 	andne	r0, r0, r1
    1e08:	04000001 	streq	r0, [r0], #-1
    1e0c:	5001f300 	andpl	pc, r1, r0, lsl #6
    1e10:	0001109f 	muleq	r1, pc, r0	; <UNPREDICTABLE>
    1e14:	00011400 	andeq	r1, r1, r0, lsl #8
    1e18:	50000100 	andpl	r0, r0, r0, lsl #2
    1e1c:	00000114 	andeq	r0, r0, r4, lsl r1
    1e20:	0000011c 	andeq	r0, r0, ip, lsl r1
    1e24:	01f30004 	mvnseq	r0, r4
    1e28:	00009f50 	andeq	r9, r0, r0, asr pc
    1e2c:	00000000 	andeq	r0, r0, r0
    1e30:	00010000 	andeq	r0, r1, r0
    1e34:	00000000 	andeq	r0, r0, r0
    1e38:	000000f4 	strdeq	r0, [r0], -r4
    1e3c:	00000100 	andeq	r0, r0, r0, lsl #2
    1e40:	0070000b 	rsbseq	r0, r0, fp
    1e44:	b4232535 	strtlt	r2, [r3], #-1333	; 0xfffffacb
    1e48:	02818080 	addeq	r8, r1, #128, 0	; 0x80
    1e4c:	0001009f 	muleq	r1, pc, r0	; <UNPREDICTABLE>
    1e50:	00010300 	andeq	r0, r1, r0, lsl #6
    1e54:	50000100 	andpl	r0, r0, r0, lsl #2
    1e58:	00000103 	andeq	r0, r0, r3, lsl #2
    1e5c:	00000110 	andeq	r0, r0, r0, lsl r1
    1e60:	01f3000c 	mvnseq	r0, ip
    1e64:	23253550 			; <UNDEFINED> instruction: 0x23253550
    1e68:	818080b4 	strhhi	r8, [r0, r4]
    1e6c:	00009f02 	andeq	r9, r0, r2, lsl #30
	...
    1e78:	000000f8 	strdeq	r0, [r0], -r8
    1e7c:	00000110 	andeq	r0, r0, r0, lsl r1
    1e80:	00540001 	subseq	r0, r4, r1
	...
    1e90:	cc000000 	stcgt	0, cr0, [r0], {-0}
    1e94:	db000000 	blle	1e9c <__code_start__-0x6164>
    1e98:	01000000 	mrseq	r0, (UNDEF: 0)
    1e9c:	00db5000 	sbcseq	r5, fp, r0
    1ea0:	00e00000 	rsceq	r0, r0, r0
    1ea4:	00040000 	andeq	r0, r4, r0
    1ea8:	9f5001f3 	svcls	0x005001f3
    1eac:	000000e0 	andeq	r0, r0, r0, ror #1
    1eb0:	000000e3 	andeq	r0, r0, r3, ror #1
    1eb4:	e3500001 	cmp	r0, #1, 0
    1eb8:	e8000000 	stmda	r0, {}	; <UNPREDICTABLE>
    1ebc:	04000000 	streq	r0, [r0], #-0
    1ec0:	5001f300 	andpl	pc, r1, r0, lsl #6
    1ec4:	0000009f 	muleq	r0, pc, r0	; <UNPREDICTABLE>
	...
    1ed4:	0000cc00 	andeq	ip, r0, r0, lsl #24
    1ed8:	0000db00 	andeq	sp, r0, r0, lsl #22
    1edc:	51000100 	mrspl	r0, (UNDEF: 16)
    1ee0:	000000db 	ldrdeq	r0, [r0], -fp
    1ee4:	000000e0 	andeq	r0, r0, r0, ror #1
    1ee8:	01f30004 	mvnseq	r0, r4
    1eec:	00e09f51 	rsceq	r9, r0, r1, asr pc
    1ef0:	00e30000 	rsceq	r0, r3, r0
    1ef4:	00010000 	andeq	r0, r1, r0
    1ef8:	0000e351 	andeq	lr, r0, r1, asr r3
    1efc:	0000e800 	andeq	lr, r0, r0, lsl #16
    1f00:	f3000400 	vshl.u8	d0, d0, d0
    1f04:	009f5101 	addseq	r5, pc, r1, lsl #2
	...
    1f10:	bc000000 	stclt	0, cr0, [r0], {-0}
    1f14:	c7000000 	strgt	r0, [r0, -r0]
    1f18:	01000000 	mrseq	r0, (UNDEF: 0)
    1f1c:	00c75000 	sbceq	r5, r7, r0
    1f20:	00cc0000 	sbceq	r0, ip, r0
    1f24:	00040000 	andeq	r0, r4, r0
    1f28:	9f5001f3 	svcls	0x005001f3
	...
    1f38:	00000098 	muleq	r0, r8, r0
    1f3c:	000000b0 	strheq	r0, [r0], -r0	; <UNPREDICTABLE>
    1f40:	b0500001 	subslt	r0, r0, r1
    1f44:	bc000000 	stclt	0, cr0, [r0], {-0}
    1f48:	04000000 	streq	r0, [r0], #-0
    1f4c:	5001f300 	andpl	pc, r1, r0, lsl #6
    1f50:	0000009f 	muleq	r0, pc, r0	; <UNPREDICTABLE>
	...
    1f5c:	00007400 	andeq	r7, r0, r0, lsl #8
    1f60:	00008c00 	andeq	r8, r0, r0, lsl #24
    1f64:	50000100 	andpl	r0, r0, r0, lsl #2
    1f68:	0000008c 	andeq	r0, r0, ip, lsl #1
    1f6c:	00000098 	muleq	r0, r8, r0
    1f70:	01f30004 	mvnseq	r0, r4
    1f74:	00009f50 	andeq	r9, r0, r0, asr pc
	...
    1f80:	00640000 	rsbeq	r0, r4, r0
    1f84:	006f0000 	rsbeq	r0, pc, r0
    1f88:	00010000 	andeq	r0, r1, r0
    1f8c:	00006f50 	andeq	r6, r0, r0, asr pc
    1f90:	00007400 	andeq	r7, r0, r0, lsl #8
    1f94:	f3000400 	vshl.u8	d0, d0, d0
    1f98:	009f5001 	addseq	r5, pc, r1
	...
    1fa8:	38000000 	stmdacc	r0, {}	; <UNPREDICTABLE>
    1fac:	01000000 	mrseq	r0, (UNDEF: 0)
    1fb0:	00385000 	eorseq	r5, r8, r0
    1fb4:	00640000 	rsbeq	r0, r4, r0
    1fb8:	00040000 	andeq	r0, r4, r0
    1fbc:	9f5001f3 	svcls	0x005001f3
	...
    1fd0:	00000047 	andeq	r0, r0, r7, asr #32
    1fd4:	47510001 	ldrbmi	r0, [r1, -r1]
    1fd8:	64000000 	strvs	r0, [r0], #-0
    1fdc:	04000000 	streq	r0, [r0], #-0
    1fe0:	5101f300 	mrspl	pc, SP_irq	; <UNPREDICTABLE>
    1fe4:	0000009f 	muleq	r0, pc, r0	; <UNPREDICTABLE>
    1fe8:	00000000 	andeq	r0, r0, r0
    1fec:	34000000 	strcc	r0, [r0], #-0
    1ff0:	64000000 	strvs	r0, [r0], #-0
    1ff4:	01000000 	mrseq	r0, (UNDEF: 0)
    1ff8:	00005400 	andeq	r5, r0, r0, lsl #8
	...
    2004:	00000040 	andeq	r0, r0, r0, asr #32
    2008:	00000064 	andeq	r0, r0, r4, rrx
    200c:	00560001 	subseq	r0, r6, r1
	...
    2018:	01010000 	mrseq	r0, (UNDEF: 1)
    201c:	48000000 	stmdami	r0, {}	; <UNPREDICTABLE>
    2020:	50000000 	andpl	r0, r0, r0
    2024:	01000000 	mrseq	r0, (UNDEF: 0)
    2028:	00505000 	subseq	r5, r0, r0
    202c:	00500000 	subseq	r0, r0, r0
    2030:	00010000 	andeq	r0, r1, r0
    2034:	00005051 	andeq	r5, r0, r1, asr r0
    2038:	00005400 	andeq	r5, r0, r0, lsl #8
    203c:	75000900 	strvc	r0, [r0, #-2304]	; 0xfffff700
    2040:	24007400 	strcs	r7, [r0], #-1024	; 0xfffffc00
    2044:	9f210071 	svcls	0x00210071
    2048:	00000054 	andeq	r0, r0, r4, asr r0
    204c:	0000005b 	andeq	r0, r0, fp, asr r0
    2050:	00510001 	subseq	r0, r1, r1
    2054:	00000000 	andeq	r0, r0, r0
    2058:	Address 0x0000000000002058 is out of bounds.


Disassembly of section .debug_aranges:

00000000 <.debug_aranges>:
   0:	0000001c 	andeq	r0, r0, ip, lsl r0
   4:	00000002 	andeq	r0, r0, r2
   8:	00040000 	andeq	r0, r4, r0
   c:	00000000 	andeq	r0, r0, r0
  10:	00008038 	andeq	r8, r0, r8, lsr r0
  14:	000000fc 	strdeq	r0, [r0], -ip
	...
  20:	0000001c 	andeq	r0, r0, ip, lsl r0
  24:	04490002 	strbeq	r0, [r9], #-2
  28:	00040000 	andeq	r0, r4, r0
  2c:	00000000 	andeq	r0, r0, r0
  30:	00008134 	andeq	r8, r0, r4, lsr r1
  34:	000003ac 	andeq	r0, r0, ip, lsr #7
	...
  40:	0000001c 	andeq	r0, r0, ip, lsl r0
  44:	0d0c0002 	stceq	0, cr0, [ip, #-8]
  48:	00040000 	andeq	r0, r4, r0
  4c:	00000000 	andeq	r0, r0, r0
  50:	000084e0 	andeq	r8, r0, r0, ror #9
  54:	00000594 	muleq	r0, r4, r5
	...
  60:	0000001c 	andeq	r0, r0, ip, lsl r0
  64:	18f50002 	ldmne	r5!, {r1}^
  68:	00040000 	andeq	r0, r4, r0
  6c:	00000000 	andeq	r0, r0, r0
  70:	00008ab8 			; <UNDEFINED> instruction: 0x00008ab8
  74:	000001ac 	andeq	r0, r0, ip, lsr #3
	...
  80:	0000001c 	andeq	r0, r0, ip, lsl r0
  84:	1bd30002 	blne	ff4c0094 <__bss_end__+0xff4b562c>
  88:	00040000 	andeq	r0, r4, r0
  8c:	00000000 	andeq	r0, r0, r0
  90:	00008c64 	andeq	r8, r0, r4, ror #24
  94:	00000018 	andeq	r0, r0, r8, lsl r0
	...
  a0:	0000001c 	andeq	r0, r0, ip, lsl r0
  a4:	1d110002 	ldcne	0, cr0, [r1, #-8]
  a8:	00040000 	andeq	r0, r4, r0
  ac:	00000000 	andeq	r0, r0, r0
  b0:	00008c7c 	andeq	r8, r0, ip, ror ip
  b4:	00000058 	andeq	r0, r0, r8, asr r0
	...
  c0:	0000001c 	andeq	r0, r0, ip, lsl r0
  c4:	1eb20002 	cdpne	0, 11, cr0, cr2, cr2, {0}
  c8:	00040000 	andeq	r0, r4, r0
  cc:	00000000 	andeq	r0, r0, r0
  d0:	00008cd4 	ldrdeq	r8, [r0], -r4
  d4:	00000034 	andeq	r0, r0, r4, lsr r0
	...
  e0:	0000001c 	andeq	r0, r0, ip, lsl r0
  e4:	1fa90002 	svcne	0x00a90002
  e8:	00040000 	andeq	r0, r4, r0
  ec:	00000000 	andeq	r0, r0, r0
  f0:	00008d08 	andeq	r8, r0, r8, lsl #26
  f4:	00000740 	andeq	r0, r0, r0, asr #14
	...
 100:	0000001c 	andeq	r0, r0, ip, lsl r0
 104:	2a840002 	bcs	fe100114 <__bss_end__+0xfe0f56ac>
 108:	00040000 	andeq	r0, r4, r0
 10c:	00000000 	andeq	r0, r0, r0
 110:	00009448 	andeq	r9, r0, r8, asr #8
 114:	0000002c 	andeq	r0, r0, ip, lsr #32
	...
 120:	0000001c 	andeq	r0, r0, ip, lsl r0
 124:	2bb70002 	blcs	fedc0134 <__bss_end__+0xfedb56cc>
 128:	00040000 	andeq	r0, r4, r0
 12c:	00000000 	andeq	r0, r0, r0
 130:	00009474 	andeq	r9, r0, r4, ror r4
 134:	0000003c 	andeq	r0, r0, ip, lsr r0
	...
 140:	0000001c 	andeq	r0, r0, ip, lsl r0
 144:	2d440002 	stclcs	0, cr0, [r4, #-8]
 148:	00040000 	andeq	r0, r4, r0
 14c:	00000000 	andeq	r0, r0, r0
 150:	000094b0 			; <UNDEFINED> instruction: 0x000094b0
 154:	00000004 	andeq	r0, r0, r4
	...
 160:	0000001c 	andeq	r0, r0, ip, lsl r0
 164:	2e160002 	cdpcs	0, 1, cr0, cr6, cr2, {0}
 168:	00040000 	andeq	r0, r4, r0
 16c:	00000000 	andeq	r0, r0, r0
 170:	000094b4 			; <UNDEFINED> instruction: 0x000094b4
 174:	00000080 	andeq	r0, r0, r0, lsl #1
	...
 180:	0000001c 	andeq	r0, r0, ip, lsl r0
 184:	30500002 	subscc	r0, r0, r2
 188:	00040000 	andeq	r0, r4, r0
 18c:	00000000 	andeq	r0, r0, r0
 190:	00009534 	andeq	r9, r0, r4, lsr r5
 194:	00000084 	andeq	r0, r0, r4, lsl #1
	...
 1a0:	0000001c 	andeq	r0, r0, ip, lsl r0
 1a4:	32a10002 	adccc	r0, r1, #2, 0
 1a8:	00040000 	andeq	r0, r4, r0
 1ac:	00000000 	andeq	r0, r0, r0
 1b0:	000095b8 			; <UNDEFINED> instruction: 0x000095b8
 1b4:	000001f0 	strdeq	r0, [r0], -r0	; <UNPREDICTABLE>
	...
 1c0:	0000001c 	andeq	r0, r0, ip, lsl r0
 1c4:	38720002 	ldmdacc	r2!, {r1}^
 1c8:	00040000 	andeq	r0, r4, r0
 1cc:	00000000 	andeq	r0, r0, r0
 1d0:	000097a8 	andeq	r9, r0, r8, lsr #15
 1d4:	000003b0 			; <UNDEFINED> instruction: 0x000003b0
	...
 1e0:	0000001c 	andeq	r0, r0, ip, lsl r0
 1e4:	415f0002 	cmpmi	pc, r2
 1e8:	00040000 	andeq	r0, r4, r0
 1ec:	00000000 	andeq	r0, r0, r0
 1f0:	00009b58 	andeq	r9, r0, r8, asr fp
 1f4:	0000003c 	andeq	r0, r0, ip, lsr r0
	...
 200:	0000001c 	andeq	r0, r0, ip, lsl r0
 204:	42ac0002 	adcmi	r0, ip, #2, 0
 208:	00040000 	andeq	r0, r4, r0
 20c:	00000000 	andeq	r0, r0, r0
 210:	00009b94 	muleq	r0, r4, fp
 214:	00000034 	andeq	r0, r0, r4, lsr r0
	...
 220:	0000001c 	andeq	r0, r0, ip, lsl r0
 224:	43e70002 	mvnmi	r0, #2, 0
 228:	00040000 	andeq	r0, r4, r0
 22c:	00000000 	andeq	r0, r0, r0
 230:	00009bc8 	andeq	r9, r0, r8, asr #23
 234:	0000002c 	andeq	r0, r0, ip, lsr #32
	...
 240:	0000001c 	andeq	r0, r0, ip, lsl r0
 244:	44e20002 	strbtmi	r0, [r2], #2
 248:	00040000 	andeq	r0, r4, r0
 24c:	00000000 	andeq	r0, r0, r0
 250:	00009bf4 	strdeq	r9, [r0], -r4
 254:	00000020 	andeq	r0, r0, r0, lsr #32
	...
 260:	0000001c 	andeq	r0, r0, ip, lsl r0
 264:	45f50002 	ldrbmi	r0, [r5, #2]!
 268:	00040000 	andeq	r0, r4, r0
 26c:	00000000 	andeq	r0, r0, r0
 270:	00009c14 	andeq	r9, r0, r4, lsl ip
 274:	0000002c 	andeq	r0, r0, ip, lsr #32
	...
 280:	0000001c 	andeq	r0, r0, ip, lsl r0
 284:	47470002 	strbmi	r0, [r7, -r2]
 288:	00040000 	andeq	r0, r4, r0
 28c:	00000000 	andeq	r0, r0, r0
 290:	00009c40 	andeq	r9, r0, r0, asr #24
 294:	00000004 	andeq	r0, r0, r4
	...
 2a0:	0000001c 	andeq	r0, r0, ip, lsl r0
 2a4:	48190002 	ldmdami	r9, {r1}
 2a8:	00040000 	andeq	r0, r4, r0
 2ac:	00000000 	andeq	r0, r0, r0
 2b0:	00009c5c 	andeq	r9, r0, ip, asr ip
 2b4:	0000011c 	andeq	r0, r0, ip, lsl r1
	...

Disassembly of section .debug_line:

00000000 <.debug_line>:
       0:	0000018c 	andeq	r0, r0, ip, lsl #3
       4:	01080003 	tsteq	r8, r3
       8:	01020000 	mrseq	r0, (UNDEF: 2)
       c:	000d0efb 	strdeq	r0, [sp], -fp
      10:	01010101 	tsteq	r1, r1, lsl #2
      14:	01000000 	mrseq	r0, (UNDEF: 0)
      18:	74010000 	strvc	r0, [r1], #-0
      1c:	73747365 	cmnvc	r4, #-1811939327	; 0x94000001
      20:	2f002e00 	svccs	0x00002e00
      24:	2f727375 	svccs	0x00727375
      28:	61636f6c 	cmnvs	r3, ip, ror #30
      2c:	65432f6c 	strbvs	r2, [r3, #-3948]	; 0xfffff094
      30:	72616c6c 	rsbvc	r6, r1, #108, 24	; 0x6c00
      34:	6d72612f 	ldfvse	f6, [r2, #-188]!	; 0xffffff44
      38:	6e6f6e2d 	cdpvs	14, 6, cr6, cr15, cr13, {1}
      3c:	61652d65 	cmnvs	r5, r5, ror #26
      40:	742d6962 	strtvc	r6, [sp], #-2402	; 0xfffff69e
      44:	2f747365 	svccs	0x00747365
      48:	30322d39 	eorscc	r2, r2, r9, lsr sp
      4c:	34713931 	ldrbtcc	r3, [r1], #-2353	; 0xfffff6cf
      50:	3173632d 	cmncc	r3, sp, lsr #6
      54:	2f653730 	svccs	0x00653730
      58:	2f62696c 	svccs	0x0062696c
      5c:	2f636367 	svccs	0x00636367
      60:	2d6d7261 	sfmcs	f7, 2, [sp, #-388]!	; 0xfffffe7c
      64:	656e6f6e 	strbvs	r6, [lr, #-3950]!	; 0xfffff092
      68:	6261652d 	rsbvs	r6, r1, #188743680	; 0xb400000
      6c:	2e392f69 	cdpcs	15, 3, cr2, cr9, cr9, {3}
      70:	2f312e32 	svccs	0x00312e32
      74:	6c636e69 	stclvs	14, cr6, [r3], #-420	; 0xfffffe5c
      78:	00656475 	rsbeq	r6, r5, r5, ror r4
      7c:	6573552f 	ldrbvs	r5, [r3, #-1327]!	; 0xfffffad1
      80:	742f7372 	strtvc	r7, [pc], #-882	; 88 <__code_start__-0x7f78>
      84:	74736972 	ldrbtvc	r6, [r3], #-2418	; 0xfffff68e
      88:	6f6e6e65 	svcvs	0x006e6e65
      8c:	616d6c6c 	cmnvs	sp, ip, ror #24
      90:	6f442f6e 	svcvs	0x00442f6e
      94:	656d7563 	strbvs	r7, [sp, #-1379]!	; 0xfffffa9d
      98:	2f73746e 	svccs	0x0073746e
      9c:	69727053 	ldmdbvs	r2!, {r0, r1, r4, r6, ip, sp, lr}^
      a0:	515f676e 	cmppl	pc, lr, ror #14
      a4:	74726175 	ldrbtvc	r6, [r2], #-373	; 0xfffffe8b
      a8:	325f7265 	subscc	r7, pc, #1342177286	; 0x50000006
      ac:	2f323230 	svccs	0x00323230
      b0:	34325343 	ldrtcc	r5, [r2], #-835	; 0xfffffcbd
      b4:	2d584c30 	ldclcs	12, cr4, [r8, #-192]	; 0xffffff40
      b8:	32727073 	rsbscc	r7, r2, #115, 0	; 0x73
      bc:	696c2f32 	stmdbvs	ip!, {r1, r4, r5, r8, r9, sl, fp, sp}^
      c0:	2f697062 	svccs	0x00697062
      c4:	6c636e69 	stclvs	14, cr6, [r3], #-420	; 0xfffffe5c
      c8:	00656475 	rsbeq	r6, r5, r5, ror r4
      cc:	72617000 	rsbvc	r7, r1, #0, 0
      d0:	742d3274 	strtvc	r3, [sp], #-628	; 0xfffffd8c
      d4:	36747365 	ldrbtcc	r7, [r4], -r5, ror #6
      d8:	0100632e 	tsteq	r0, lr, lsr #6
      dc:	72730000 	rsbsvc	r0, r3, #0, 0
      e0:	6f6c2d63 	svcvs	0x006c2d63
      e4:	00682e63 	rsbeq	r2, r8, r3, ror #28
      e8:	73000002 	movwvc	r0, #2
      ec:	6e696474 	mcrvs	4, 3, r6, cr9, cr4, {3}
      f0:	63672d74 	cmnvs	r7, #116, 26	; 0x1d00
      f4:	00682e63 	rsbeq	r2, r8, r3, ror #28
      f8:	72000003 	andvc	r0, r0, #3, 0
      fc:	682e6970 	stmdavs	lr!, {r4, r5, r6, r8, fp, sp, lr}
     100:	00000400 	andeq	r0, r0, r0, lsl #8
     104:	6c616b63 			; <UNDEFINED> instruction: 0x6c616b63
     108:	2e636f6c 	cdpcs	15, 6, cr6, cr3, cr12, {3}
     10c:	00020068 	andeq	r0, r2, r8, rrx
     110:	13050000 	movwne	r0, #20480	; 0x5000
     114:	38020500 	stmdacc	r2, {r8, sl}
     118:	16000080 	strne	r0, [r0], -r0, lsl #1
     11c:	044c0505 	strbeq	r0, [ip], #-1285	; 0xfffffafb
     120:	170b0502 	strne	r0, [fp, -r2, lsl #10]
     124:	05130505 	ldreq	r0, [r3, #-1285]	; 0xfffffafb
     128:	ba01060c 	blt	41960 <__bss_end__+0x36ef8>
     12c:	0f050104 	svceq	0x00050104
     130:	05017a03 	streq	r7, [r1, #-2563]	; 0xfffff5fd
     134:	019f0605 	orrseq	r0, pc, r5, lsl #12
     138:	2e064a06 	vmlacs.f32	s8, s12, s12
     13c:	01058313 	tsteq	r5, r3, lsl r3
     140:	05661306 	strbeq	r1, [r6, #-774]!	; 0xfffffcfa
     144:	05000614 	streq	r0, [r0, #-1556]	; 0xfffff9ec
     148:	0080a002 	addeq	sl, r0, r2
     14c:	05051400 	streq	r1, [r5, #-1024]	; 0xfffffc00
     150:	0f054d2f 	svceq	0x00054d2f
     154:	05050106 	streq	r0, [r5, #-262]	; 0xfffffefa
     158:	06014c06 	streq	r4, [r1], -r6, lsl #24
     15c:	152e062e 	strne	r0, [lr, #-1582]!	; 0xfffff9d2
     160:	01060805 	tsteq	r6, r5, lsl #16
     164:	054a0705 	strbeq	r0, [sl, #-1797]	; 0xfffff8fb
     168:	054b0609 	strbeq	r0, [fp, #-1545]	; 0xfffff9f7
     16c:	08051505 	stmdaeq	r5, {r0, r2, r8, sl, ip}
     170:	07050106 	streq	r0, [r5, -r6, lsl #2]
     174:	0609054a 	streq	r0, [r9], -sl, asr #10
     178:	144a014b 	strbne	r0, [sl], #-331	; 0xfffffeb5
     17c:	14060105 	strne	r0, [r6], #-261	; 0xfffffefb
     180:	03060905 	movweq	r0, #26885	; 0x6905
     184:	9e012e78 	mcrls	14, 0, r2, cr1, cr8, {3}
     188:	029e0134 	addseq	r0, lr, #13
     18c:	01010010 	tsteq	r1, r0, lsl r0
     190:	00000403 	andeq	r0, r0, r3, lsl #8
     194:	010b0003 	tsteq	fp, r3
     198:	01020000 	mrseq	r0, (UNDEF: 2)
     19c:	000d0efb 	strdeq	r0, [sp], -fp
     1a0:	01010101 	tsteq	r1, r1, lsl #2
     1a4:	01000000 	mrseq	r0, (UNDEF: 0)
     1a8:	2f010000 	svccs	0x00010000
     1ac:	2f727375 	svccs	0x00727375
     1b0:	61636f6c 	cmnvs	r3, ip, ror #30
     1b4:	65432f6c 	strbvs	r2, [r3, #-3948]	; 0xfffff094
     1b8:	72616c6c 	rsbvc	r6, r1, #108, 24	; 0x6c00
     1bc:	6d72612f 	ldfvse	f6, [r2, #-188]!	; 0xffffff44
     1c0:	6e6f6e2d 	cdpvs	14, 6, cr6, cr15, cr13, {1}
     1c4:	61652d65 	cmnvs	r5, r5, ror #26
     1c8:	742d6962 	strtvc	r6, [sp], #-2402	; 0xfffff69e
     1cc:	2f747365 	svccs	0x00747365
     1d0:	30322d39 	eorscc	r2, r2, r9, lsr sp
     1d4:	34713931 	ldrbtcc	r3, [r1], #-2353	; 0xfffff6cf
     1d8:	3173632d 	cmncc	r3, sp, lsr #6
     1dc:	2f653730 	svccs	0x00653730
     1e0:	2f62696c 	svccs	0x0062696c
     1e4:	2f636367 	svccs	0x00636367
     1e8:	2d6d7261 	sfmcs	f7, 2, [sp, #-388]!	; 0xfffffe7c
     1ec:	656e6f6e 	strbvs	r6, [lr, #-3950]!	; 0xfffff092
     1f0:	6261652d 	rsbvs	r6, r1, #188743680	; 0xb400000
     1f4:	2e392f69 	cdpcs	15, 3, cr2, cr9, cr9, {3}
     1f8:	2f312e32 	svccs	0x00312e32
     1fc:	6c636e69 	stclvs	14, cr6, [r3], #-420	; 0xfffffe5c
     200:	00656475 	rsbeq	r6, r5, r5, ror r4
     204:	6573552f 	ldrbvs	r5, [r3, #-1327]!	; 0xfffffad1
     208:	742f7372 	strtvc	r7, [pc], #-882	; 210 <__code_start__-0x7df0>
     20c:	74736972 	ldrbtvc	r6, [r3], #-2418	; 0xfffff68e
     210:	6f6e6e65 	svcvs	0x006e6e65
     214:	616d6c6c 	cmnvs	sp, ip, ror #24
     218:	6f442f6e 	svcvs	0x00442f6e
     21c:	656d7563 	strbvs	r7, [sp, #-1379]!	; 0xfffffa9d
     220:	2f73746e 	svccs	0x0073746e
     224:	69727053 	ldmdbvs	r2!, {r0, r1, r4, r6, ip, sp, lr}^
     228:	515f676e 	cmppl	pc, lr, ror #14
     22c:	74726175 	ldrbtvc	r6, [r2], #-373	; 0xfffffe8b
     230:	325f7265 	subscc	r7, pc, #1342177286	; 0x50000006
     234:	2f323230 	svccs	0x00323230
     238:	34325343 	ldrtcc	r5, [r2], #-835	; 0xfffffcbd
     23c:	2d584c30 	ldclcs	12, cr4, [r8, #-192]	; 0xffffff40
     240:	32727073 	rsbscc	r7, r2, #115, 0	; 0x73
     244:	696c2f32 	stmdbvs	ip!, {r1, r4, r5, r8, r9, sl, fp, sp}^
     248:	2f697062 	svccs	0x00697062
     24c:	6c636e69 	stclvs	14, cr6, [r3], #-420	; 0xfffffe5c
     250:	00656475 	rsbeq	r6, r5, r5, ror r4
     254:	616b6300 	cmnvs	fp, r0, lsl #6
     258:	636f6c6c 	cmnvs	pc, #108, 24	; 0x6c00
     25c:	0000632e 	andeq	r6, r0, lr, lsr #6
     260:	6b630000 	blvs	18c0268 <__bss_end__+0x18b5800>
     264:	6f6c6c61 	svcvs	0x006c6c61
     268:	00682e63 	rsbeq	r2, r8, r3, ror #28
     26c:	73000000 	movwvc	r0, #0
     270:	6e696474 	mcrvs	4, 3, r6, cr9, cr4, {3}
     274:	63672d74 	cmnvs	r7, #116, 26	; 0x1d00
     278:	00682e63 	rsbeq	r2, r8, r3, ror #28
     27c:	72000001 	andvc	r0, r0, #1, 0
     280:	682e6970 	stmdavs	lr!, {r4, r5, r6, r8, fp, sp, lr}
     284:	00000200 	andeq	r0, r0, r0, lsl #4
     288:	2d637273 	sfmcs	f7, 2, [r3, #-460]!	; 0xfffffe34
     28c:	2e636f6c 	cdpcs	15, 6, cr6, cr3, cr12, {3}
     290:	00000068 	andeq	r0, r0, r8, rrx
     294:	2d726b00 	vldmdbcs	r2!, {d22-d21}
     298:	6c6c616d 	stfvse	f6, [ip], #-436	; 0xfffffe4c
     29c:	682e636f 	stmdavs	lr!, {r0, r1, r2, r3, r5, r6, r8, r9, sp, lr}
     2a0:	00000000 	andeq	r0, r0, r0
     2a4:	002d0500 	eoreq	r0, sp, r0, lsl #10
     2a8:	81340205 	teqhi	r4, r5, lsl #4
     2ac:	1d030000 	stcne	0, cr0, [r3, #-0]
     2b0:	13020501 	movwne	r0, #9473	; 0x2501
     2b4:	01061005 	tsteq	r6, r5
     2b8:	054a0505 	strbeq	r0, [sl, #-1285]	; 0xfffffafb
     2bc:	01500603 	cmpeq	r0, r3, lsl #12
     2c0:	02040200 	andeq	r0, r4, #0, 4
     2c4:	0402004a 	streq	r0, [r2], #-74	; 0xffffffb6
     2c8:	02000102 	andeq	r0, r0, #-2147483648	; 0x80000000
     2cc:	00130204 	andseq	r0, r3, r4, lsl #4
     2d0:	13020402 	movwne	r0, #9218	; 0x2402
     2d4:	02000d05 	andeq	r0, r0, #320	; 0x140
     2d8:	01060204 	tsteq	r6, r4, lsl #4
     2dc:	02000305 	andeq	r0, r0, #335544320	; 0x14000000
     2e0:	4b060204 	blmi	180af8 <__bss_end__+0x176090>
     2e4:	02001305 	andeq	r1, r0, #335544320	; 0x14000000
     2e8:	01060204 	tsteq	r6, r4, lsl #4
     2ec:	02000305 	andeq	r0, r0, #335544320	; 0x14000000
     2f0:	2f060204 	svccs	0x00060204
     2f4:	02040200 	andeq	r0, r4, #0, 4
     2f8:	03062e06 	movweq	r2, #28166	; 0x6e06
     2fc:	0e050178 	mcreq	1, 0, r0, cr5, cr8, {3}
     300:	03050106 	movweq	r0, #20742	; 0x5106
     304:	0d054b06 	vstreq	d4, [r5, #-24]	; 0xffffffe8
     308:	03050106 	movweq	r0, #20742	; 0x5106
     30c:	2d052f06 	stccs	15, cr2, [r5, #-24]	; 0xffffffe8
     310:	01040200 	mrseq	r0, R12_usr
     314:	03052906 	movweq	r2, #22790	; 0x5906
     318:	01040200 	mrseq	r0, R12_usr
     31c:	02005106 	andeq	r5, r0, #-2147483647	; 0x80000001
     320:	00010104 	andeq	r0, r1, r4, lsl #2
     324:	06010402 	streq	r0, [r1], -r2, lsl #8
     328:	0402009e 	streq	r0, [r2], #-158	; 0xffffff62
     32c:	02002e01 	andeq	r2, r0, #1, 28
     330:	2e060104 	adfcss	f0, f6, f4
     334:	09031b05 	stmdbeq	r3, {r0, r2, r8, r9, fp, ip}
     338:	130505ba 	movwne	r0, #21946	; 0x55ba
     33c:	13060105 	movwne	r0, #24837	; 0x6105
     340:	85061e05 	strhi	r1, [r6, #-3589]	; 0xfffff1fb
     344:	05130505 	ldreq	r0, [r3, #-1285]	; 0xfffffafb
     348:	2e010607 	cfmadd32cs	mvax0, mvfx0, mvfx1, mvfx7
     34c:	2f060905 	svccs	0x00060905
     350:	01061105 	tsteq	r6, r5, lsl #2
     354:	05300105 	ldreq	r0, [r0, #-261]!	; 0xfffffefb
     358:	5303062d 	movwpl	r0, #13869	; 0x362d
     35c:	0501062e 	streq	r0, [r1, #-1582]	; 0xfffff9d2
     360:	014b0605 	cmpeq	fp, r5, lsl #12
     364:	02002e06 	andeq	r2, r0, #96	; 0x60
     368:	4a060204 	bmi	180b80 <__bss_end__+0x176118>
     36c:	02040200 	andeq	r0, r4, #0, 4
     370:	04020001 	streq	r0, [r2], #-1
     374:	02001302 	andeq	r1, r0, #134217728	; 0x8000000
     378:	05140204 	ldreq	r0, [r4, #-516]	; 0xfffffdfc
     37c:	04020007 	streq	r0, [r2], #-7
     380:	05010602 	streq	r0, [r1, #-1538]	; 0xfffff9fe
     384:	0550060a 	ldrbeq	r0, [r0, #-1546]	; 0xfffff9f6
     388:	052e0610 	streq	r0, [lr, #-1552]!	; 0xfffff9f0
     38c:	052e2e0a 	streq	r2, [lr, #-3594]!	; 0xfffff1f6
     390:	052f0609 	streq	r0, [pc, #-1545]!	; fffffd8f <__bss_end__+0xffff5327>
     394:	0501060b 	streq	r0, [r1, #-1547]	; 0xfffff9f5
     398:	054b060d 	strbeq	r0, [fp, #-1549]	; 0xfffff9f3
     39c:	0501061b 	streq	r0, [r1, #-1563]	; 0xfffff9e5
     3a0:	0d052e18 	stceq	14, cr2, [r5, #-96]	; 0xffffffa0
     3a4:	01052f06 	tsteq	r5, r6, lsl #30
     3a8:	05051706 	streq	r1, [r5, #-1798]	; 0xfffff8fa
     3ac:	01040200 	mrseq	r0, R12_usr
     3b0:	4a6f0306 	bmi	1bc0fd0 <__bss_end__+0x1bb6568>
     3b4:	01040200 	mrseq	r0, R12_usr
     3b8:	04020001 	streq	r0, [r2], #-1
     3bc:	009e0601 	addseq	r0, lr, r1, lsl #12
     3c0:	2e010402 	cdpcs	4, 0, cr0, cr1, cr2, {0}
     3c4:	01040200 	mrseq	r0, R12_usr
     3c8:	10032e06 	andne	r2, r3, r6, lsl #28
     3cc:	9e06012e 	adflssp	f0, f6, #0.5
     3d0:	1e052e06 	cdpne	14, 0, cr2, cr5, cr6, {0}
     3d4:	05ba1f03 	ldreq	r1, [sl, #3843]!	; 0xf03
     3d8:	01051305 	tsteq	r5, r5, lsl #6
     3dc:	052e1306 	streq	r1, [lr, #-774]!	; 0xfffffcfa
     3e0:	0631061c 			; <UNDEFINED> instruction: 0x0631061c
     3e4:	06050501 	streq	r0, [r5], -r1, lsl #10
     3e8:	0614054b 	ldreq	r0, [r4], -fp, asr #10
     3ec:	05020401 	streq	r0, [r2, #-1025]	; 0xfffffbff
     3f0:	68030618 	stmdavs	r3, {r3, r4, r9, sl}
     3f4:	1305052e 	movwne	r0, #21806	; 0x552e
     3f8:	01060d05 	tsteq	r6, r5, lsl #26
     3fc:	0501042e 	streq	r0, [r1, #-1070]	; 0xfffffbd2
     400:	01180301 	tsteq	r8, r1, lsl #6
     404:	4c061b05 			; <UNDEFINED> instruction: 0x4c061b05
     408:	052f0205 	streq	r0, [pc, #-517]!	; 20b <__code_start__-0x7df5>
     40c:	05010611 	streq	r0, [r1, #-1553]	; 0xfffff9ef
     410:	052f0602 	streq	r0, [pc, #-1538]!	; fffffe16 <__bss_end__+0xffff53ae>
     414:	2e130601 	cfmsub32cs	mvax0, mvfx0, mvfx3, mvfx1
     418:	30062005 	andcc	r2, r6, r5
     41c:	05130205 	ldreq	r0, [r3, #-517]	; 0xfffffdfb
     420:	2e010605 	cfmadd32cs	mvax0, mvfx0, mvfx1, mvfx5
     424:	2f060305 	svccs	0x00060305
     428:	01060a05 	tsteq	r6, r5, lsl #20
     42c:	2f060305 	svccs	0x00060305
     430:	01060805 	tsteq	r6, r5, lsl #16
     434:	2f060305 	svccs	0x00060305
     438:	16060105 	strne	r0, [r6], -r5, lsl #2
     43c:	31062f05 	tstcc	r6, r5, lsl #30
     440:	05130205 	ldreq	r0, [r3, #-517]	; 0xfffffdfb
     444:	0501061a 	streq	r0, [r1, #-1562]	; 0xfffff9e6
     448:	05052e29 	streq	r2, [r5, #-3625]	; 0xfffff1d7
     44c:	0048054a 	subeq	r0, r8, sl, asr #10
     450:	4a010402 	bmi	41460 <__bss_end__+0x369f8>
     454:	02003505 	andeq	r3, r0, #20971520	; 0x1400000
     458:	052e0104 	streq	r0, [lr, #-260]!	; 0xfffffefc
     45c:	2e2e4d09 	cdpcs	13, 2, cr4, cr14, cr9, {0}
     460:	2c0a052e 	cfstr32cs	mvfx0, [sl], {46}	; 0x2e
     464:	05310105 	ldreq	r0, [r1, #-261]!	; 0xfffffefb
     468:	06310625 	ldrteq	r0, [r1], -r5, lsr #12
     46c:	06050501 	streq	r0, [r5], -r1, lsl #10
     470:	0109054b 	tsteq	r9, fp, asr #10
     474:	01061405 	tsteq	r6, r5, lsl #8
     478:	2e05052e 	cfsh32cs	mvfx0, mvfx5, #30
     47c:	02002705 	andeq	r2, r0, #1310720	; 0x140000
     480:	2e060204 	cdpcs	2, 0, cr0, cr6, cr4, {0}
     484:	02002b05 	andeq	r2, r0, #5120	; 0x1400
     488:	01060204 	tsteq	r6, r4, lsl #4
     48c:	02002405 	andeq	r2, r0, #83886080	; 0x5000000
     490:	66060104 	strvs	r0, [r6], -r4, lsl #2
     494:	02000505 	andeq	r0, r0, #20971520	; 0x1400000
     498:	01060104 	tsteq	r6, r4, lsl #2
     49c:	4b060905 	blmi	1828b8 <__bss_end__+0x177e50>
     4a0:	01060c05 	tsteq	r6, r5, lsl #24
     4a4:	2e0b054a 	cfsh32cs	mvfx0, mvfx11, #42
     4a8:	02002705 	andeq	r2, r0, #1310720	; 0x140000
     4ac:	054a0104 	strbeq	r0, [sl, #-260]	; 0xfffffefc
     4b0:	04020023 	streq	r0, [r2], #-35	; 0xffffffdd
     4b4:	02002e01 	andeq	r2, r0, #1, 28
     4b8:	054a0104 	strbeq	r0, [sl, #-260]	; 0xfffffefc
     4bc:	28051801 	stmdacs	r5, {r0, fp, ip}
     4c0:	01064e06 	tsteq	r6, r6, lsl #28
     4c4:	06050582 	streq	r0, [r5], -r2, lsl #11
     4c8:	0905142f 	stmdbeq	r5, {r0, r1, r2, r3, r5, sl, ip}
     4cc:	07050106 	streq	r0, [r5, -r6, lsl #2]
     4d0:	0609052e 	streq	r0, [r9], -lr, lsr #10
     4d4:	13050567 	movwne	r0, #21863	; 0x5567
     4d8:	13669e01 	cmnne	r6, #1, 28
     4dc:	04020001 	streq	r0, [r2], #-1
     4e0:	02008202 	andeq	r8, r0, #536870912	; 0x20000000
     4e4:	00010204 	andeq	r0, r1, r4, lsl #4
     4e8:	13020402 	movwne	r0, #9218	; 0x2402
     4ec:	02000e05 	andeq	r0, r0, #80	; 0x50
     4f0:	01060204 	tsteq	r6, r4, lsl #4
     4f4:	02000205 	andeq	r0, r0, #1342177280	; 0x50000000
     4f8:	4b060204 	blmi	180d10 <__bss_end__+0x1762a8>
     4fc:	02000505 	andeq	r0, r0, #20971520	; 0x1400000
     500:	00830204 	addeq	r0, r3, r4, lsl #4
     504:	01020402 	tsteq	r2, r2, lsl #8
     508:	02040200 	andeq	r0, r4, #0, 4
     50c:	04020082 	streq	r0, [r2], #-130	; 0xffffff7e
     510:	02000102 	andeq	r0, r0, #-2147483648	; 0x80000000
     514:	05130204 	ldreq	r0, [r3, #-516]	; 0xfffffdfc
     518:	04020001 	streq	r0, [r2], #-1
     51c:	054b0602 	strbeq	r0, [fp, #-1538]	; 0xfffff9fe
     520:	79030609 	stmdbvc	r3, {r0, r3, r9, sl}
     524:	829e014a 	addshi	r0, lr, #-2147483630	; 0x80000012
     528:	02000505 	andeq	r0, r0, #20971520	; 0x1400000
     52c:	00300104 	eorseq	r0, r0, r4, lsl #2
     530:	01010402 	tsteq	r1, r2, lsl #8
     534:	01040200 	mrseq	r0, R12_usr
     538:	040200d6 	streq	r0, [r2], #-214	; 0xffffff2a
     53c:	02003101 	andeq	r3, r0, #1073741824	; 0x40000000
     540:	00010104 	andeq	r0, r1, r4, lsl #2
     544:	d6010402 	strle	r0, [r1], -r2, lsl #8
     548:	5f082f05 	svcpl	0x00082f05
     54c:	05050106 	streq	r0, [r5, #-262]	; 0xfffffefa
     550:	1005a006 	andne	sl, r5, r6
     554:	052e0106 	streq	r0, [lr, #-262]!	; 0xfffffefa
     558:	054b0602 	strbeq	r0, [fp, #-1538]	; 0xfffff9fe
     55c:	15056705 	strne	r6, [r5, #-1797]	; 0xfffff8fb
     560:	05050106 	streq	r0, [r5, #-262]	; 0xfffffefa
     564:	0e052f06 	cdpeq	15, 0, cr2, cr5, cr6, {0}
     568:	05050106 	streq	r0, [r5, #-262]	; 0xfffffefa
     56c:	12054b06 	andne	r4, r5, #6144	; 0x1800
     570:	02050106 	andeq	r0, r5, #-2147483647	; 0x80000001
     574:	0a056706 	beq	15a194 <__bss_end__+0x14f72c>
     578:	02050106 	andeq	r0, r5, #-2147483647	; 0x80000001
     57c:	0b054b06 	bleq	15319c <__bss_end__+0x148734>
     580:	05050106 	streq	r0, [r5, #-262]	; 0xfffffefa
     584:	9e013106 	adflss	f3, f1, f6
     588:	14020582 	strne	r0, [r2], #-1410	; 0xfffffa7e
     58c:	06010583 	streq	r0, [r1], -r3, lsl #11
     590:	06026614 			; <UNDEFINED> instruction: 0x06026614
     594:	ce010100 	adfgts	f0, f1, f0
     598:	03000005 	movweq	r0, #5
     59c:	0000fa00 	andeq	pc, r0, r0, lsl #20
     5a0:	fb010200 	blx	40daa <__bss_end__+0x36342>
     5a4:	01000d0e 	tsteq	r0, lr, lsl #26
     5a8:	00010101 	andeq	r0, r1, r1, lsl #2
     5ac:	00010000 	andeq	r0, r1, r0
     5b0:	752f0100 	strvc	r0, [pc, #-256]!	; 4b8 <__code_start__-0x7b48>
     5b4:	6c2f7273 	sfmvs	f7, 4, [pc], #-460	; 3f0 <__code_start__-0x7c10>
     5b8:	6c61636f 	stclvs	3, cr6, [r1], #-444	; 0xfffffe44
     5bc:	6c65432f 	stclvs	3, cr4, [r5], #-188	; 0xffffff44
     5c0:	2f72616c 	svccs	0x0072616c
     5c4:	2d6d7261 	sfmcs	f7, 2, [sp, #-388]!	; 0xfffffe7c
     5c8:	656e6f6e 	strbvs	r6, [lr, #-3950]!	; 0xfffff092
     5cc:	6261652d 	rsbvs	r6, r1, #188743680	; 0xb400000
     5d0:	65742d69 	ldrbvs	r2, [r4, #-3433]!	; 0xfffff297
     5d4:	392f7473 	stmdbcc	pc!, {r0, r1, r4, r5, r6, sl, ip, sp, lr}	; <UNPREDICTABLE>
     5d8:	3130322d 	teqcc	r0, sp, lsr #4
     5dc:	2d347139 	ldfcss	f7, [r4, #-228]!	; 0xffffff1c
     5e0:	30317363 	eorscc	r7, r1, r3, ror #6
     5e4:	6c2f6537 	cfstr32vs	mvfx6, [pc], #-220	; 510 <__code_start__-0x7af0>
     5e8:	672f6269 	strvs	r6, [pc, -r9, ror #4]!
     5ec:	612f6363 			; <UNDEFINED> instruction: 0x612f6363
     5f0:	6e2d6d72 	mcrvs	13, 1, r6, cr13, cr2, {3}
     5f4:	2d656e6f 	stclcs	14, cr6, [r5, #-444]!	; 0xfffffe44
     5f8:	69626165 	stmdbvs	r2!, {r0, r2, r5, r6, r8, sp, lr}^
     5fc:	322e392f 	eorcc	r3, lr, #770048	; 0xbc000
     600:	692f312e 	stmdbvs	pc!, {r1, r2, r3, r5, r8, ip, sp}	; <UNPREDICTABLE>
     604:	756c636e 	strbvc	r6, [ip, #-878]!	; 0xfffffc92
     608:	2f006564 	svccs	0x00006564
     60c:	72657355 	rsbvc	r7, r5, #1409286145	; 0x54000001
     610:	72742f73 	rsbsvc	r2, r4, #460	; 0x1cc
     614:	65747369 	ldrbvs	r7, [r4, #-873]!	; 0xfffffc97
     618:	6c6f6e6e 	stclvs	14, cr6, [pc], #-440	; 468 <__code_start__-0x7b98>
     61c:	6e616d6c 	cdpvs	13, 6, cr6, cr1, cr12, {3}
     620:	636f442f 	cmnvs	pc, #788529152	; 0x2f000000
     624:	6e656d75 	mcrvs	13, 3, r6, cr5, cr5, {3}
     628:	532f7374 			; <UNDEFINED> instruction: 0x532f7374
     62c:	6e697270 	mcrvs	2, 3, r7, cr9, cr0, {3}
     630:	75515f67 	ldrbvc	r5, [r1, #-3943]	; 0xfffff099
     634:	65747261 	ldrbvs	r7, [r4, #-609]!	; 0xfffffd9f
     638:	30325f72 	eorscc	r5, r2, r2, ror pc
     63c:	432f3232 			; <UNDEFINED> instruction: 0x432f3232
     640:	30343253 	eorscc	r3, r4, r3, asr r2
     644:	732d584c 			; <UNDEFINED> instruction: 0x732d584c
     648:	32327270 	eorscc	r7, r2, #112, 4
     64c:	62696c2f 	rsbvs	r6, r9, #12032	; 0x2f00
     650:	692f6970 	stmdbvs	pc!, {r4, r5, r6, r8, fp, sp, lr}	; <UNPREDICTABLE>
     654:	756c636e 	strbvc	r6, [ip, #-878]!	; 0xfffffc92
     658:	00006564 	andeq	r6, r0, r4, ror #10
     65c:	672d6b63 	strvs	r6, [sp, -r3, ror #22]!
     660:	00632e63 	rsbeq	r2, r3, r3, ror #28
     664:	73000000 	movwvc	r0, #0
     668:	6e696474 	mcrvs	4, 3, r6, cr9, cr4, {3}
     66c:	63672d74 	cmnvs	r7, #116, 26	; 0x1d00
     670:	00682e63 	rsbeq	r2, r8, r3, ror #28
     674:	72000001 	andvc	r0, r0, #1, 0
     678:	682e6970 	stmdavs	lr!, {r4, r5, r6, r8, fp, sp, lr}
     67c:	00000200 	andeq	r0, r0, r0, lsl #4
     680:	2d637273 	sfmcs	f7, 2, [r3, #-460]!	; 0xfffffe34
     684:	2e636f6c 	cdpcs	15, 6, cr6, cr3, cr12, {3}
     688:	00000068 	andeq	r0, r0, r8, rrx
     68c:	616b6300 	cmnvs	fp, r0, lsl #6
     690:	636f6c6c 	cmnvs	pc, #108, 24	; 0x6c00
     694:	0000682e 	andeq	r6, r0, lr, lsr #16
     698:	05000000 	streq	r0, [r0, #-0]
     69c:	0205001d 	andeq	r0, r5, #29, 0
     6a0:	000084e0 	andeq	r8, r0, r0, ror #9
     6a4:	05012703 	streq	r2, [r1, #-1795]	; 0xfffff8fd
     6a8:	0a051405 	beq	1456c4 <__bss_end__+0x13ac5c>
     6ac:	07050106 	streq	r0, [r5, -r6, lsl #2]
     6b0:	001c054a 	andseq	r0, ip, sl, asr #10
     6b4:	4a010402 	bmi	416c4 <__bss_end__+0x36c5c>
     6b8:	02001705 	andeq	r1, r0, #1310720	; 0x140000
     6bc:	054a0104 	strbeq	r0, [sl, #-260]	; 0xfffffefc
     6c0:	052e4d0c 	streq	r4, [lr, #-3340]!	; 0xfffff2f4
     6c4:	2e2e2c10 	mcrcs	12, 1, r2, cr14, cr0, {0}
     6c8:	05310105 	ldreq	r0, [r1, #-261]!	; 0xfffffefb
     6cc:	3b030635 	blcc	c1fa8 <__bss_end__+0xb7540>
     6d0:	0501064a 	streq	r0, [r1, #-1610]	; 0xfffff9b6
     6d4:	132f0602 			; <UNDEFINED> instruction: 0x132f0602
     6d8:	2f062e06 	svccs	0x00062e06
     6dc:	0610054d 	ldreq	r0, [r0], -sp, asr #10
     6e0:	06020501 	streq	r0, [r2], -r1, lsl #10
     6e4:	0624054b 	strteq	r0, [r4], -fp, asr #10
     6e8:	05017a03 	streq	r7, [r1, #-2563]	; 0xfffff5fd
     6ec:	0b052e18 	bleq	14bf54 <__bss_end__+0x1414ec>
     6f0:	3408052e 	strcc	r0, [r8], #-1326	; 0xfffffad2
     6f4:	35060b05 	strcc	r0, [r6, #-2821]	; 0xfffff4fb
     6f8:	01060e05 	tsteq	r6, r5, lsl #28
     6fc:	02002905 	andeq	r2, r0, #81920	; 0x14000
     700:	054a0104 	strbeq	r0, [sl, #-260]	; 0xfffffefc
     704:	04020021 	streq	r0, [r2], #-33	; 0xffffffdf
     708:	05052e01 	streq	r2, [r5, #-3585]	; 0xfffff1ff
     70c:	0b053006 	bleq	14c72c <__bss_end__+0x141cc4>
     710:	05050106 	streq	r0, [r5, #-262]	; 0xfffffefa
     714:	12052f06 	andne	r2, r5, #6, 30
     718:	04050106 	streq	r0, [r5], #-262	; 0xfffffefa
     71c:	06014d06 	streq	r4, [r1], -r6, lsl #26
     720:	0402004a 	streq	r0, [r2], #-74	; 0xffffffb6
     724:	052e0601 	streq	r0, [lr, #-1537]!	; 0xfffff9ff
     728:	04020003 	streq	r0, [r2], #-3
     72c:	0a051401 	beq	145738 <__bss_end__+0x13acd0>
     730:	01040200 	mrseq	r0, R12_usr
     734:	08050106 	stmdaeq	r5, {r1, r2, r8}
     738:	66710306 	ldrbtvs	r0, [r1], -r6, lsl #6
     73c:	054b0305 	strbeq	r0, [fp, #-773]	; 0xfffffcfb
     740:	0501060a 	streq	r0, [r1, #-1546]	; 0xfffff9f6
     744:	052f0603 	streq	r0, [pc, #-1539]!	; 149 <__code_start__-0x7eb7>
     748:	0501060b 	streq	r0, [r1, #-1547]	; 0xfffff9f5
     74c:	31052e06 	tstcc	r5, r6, lsl #28
     750:	01040200 	mrseq	r0, R12_usr
     754:	0604054a 	streq	r0, [r4], -sl, asr #10
     758:	060d0568 	streq	r0, [sp], -r8, ror #10
     75c:	2e070501 	cfsh32cs	mvfx0, mvfx7, #1
     760:	02002105 	andeq	r2, r0, #1073741825	; 0x40000001
     764:	054a0104 	strbeq	r0, [sl, #-260]	; 0xfffffefc
     768:	0402001a 	streq	r0, [r2], #-26	; 0xffffffe6
     76c:	05052e01 	streq	r2, [r5, #-3585]	; 0xfffff1ff
     770:	11054c06 	tstne	r5, r6, lsl #24
     774:	052e0106 	streq	r0, [lr, #-262]!	; 0xfffffefa
     778:	0d030602 	stceq	6, cr0, [r3, #-8]
     77c:	4a06012e 	bmi	180c3c <__bss_end__+0x1761d4>
     780:	05132e06 	ldreq	r2, [r3, #-3590]	; 0xfffff1fa
     784:	05010604 	streq	r0, [r1, #-1540]	; 0xfffff9fc
     788:	014b0603 	cmpeq	fp, r3, lsl #12
     78c:	0402004a 	streq	r0, [r2], #-74	; 0xffffffb6
     790:	02051401 	andeq	r1, r5, #16777216	; 0x1000000
     794:	01040200 	mrseq	r0, R12_usr
     798:	04020014 	streq	r0, [r2], #-20	; 0xffffffec
     79c:	01054b01 	tsteq	r5, r1, lsl #22
     7a0:	01040200 	mrseq	r0, R12_usr
     7a4:	03051306 	movweq	r1, #21254	; 0x5306
     7a8:	05014606 	streq	r4, [r1, #-1542]	; 0xfffff9fa
     7ac:	00d80322 	sbcseq	r0, r8, r2, lsr #6
     7b0:	02057408 	andeq	r7, r5, #8, 8	; 0x8000000
     7b4:	4c4b132f 	mcrrmi	3, 2, r1, fp, cr15
     7b8:	01061005 	tsteq	r6, r5
     7bc:	4b060205 	blmi	180fd8 <__bss_end__+0x176570>
     7c0:	0d062205 	sfmeq	f2, 4, [r6, #-20]	; 0xffffffec
     7c4:	052e1805 	streq	r1, [lr, #-2053]!	; 0xfffff7fb
     7c8:	08052e0b 	stmdaeq	r5, {r0, r1, r3, r9, sl, fp, sp}
     7cc:	00040533 	andeq	r0, r4, r3, lsr r5
     7d0:	06010402 	streq	r0, [r1], -r2, lsl #8
     7d4:	00030535 	andeq	r0, r3, r5, lsr r5
     7d8:	14010402 	strne	r0, [r1], #-1026	; 0xfffffbfe
     7dc:	02000a05 	andeq	r0, r0, #20480	; 0x5000
     7e0:	01060104 	tsteq	r6, r4, lsl #2
     7e4:	03060805 	movweq	r0, #26629	; 0x6805
     7e8:	03056677 	movweq	r6, #22135	; 0x5677
     7ec:	060a054b 	streq	r0, [sl], -fp, asr #10
     7f0:	06030501 	streq	r0, [r3], -r1, lsl #10
     7f4:	060b052f 	streq	r0, [fp], -pc, lsr #10
     7f8:	2e060501 	cfsh32cs	mvfx0, mvfx6, #1
     7fc:	02002505 	andeq	r2, r0, #20971520	; 0x1400000
     800:	054a0104 	strbeq	r0, [sl, #-260]	; 0xfffffefc
     804:	0402001e 	streq	r0, [r2], #-30	; 0xffffffe2
     808:	38052e01 	stmdacc	r5, {r0, r9, sl, fp, sp}
     80c:	02040200 	andeq	r0, r4, #0, 4
     810:	0031054a 	eorseq	r0, r1, sl, asr #10
     814:	2e020402 	cdpcs	4, 0, cr0, cr2, cr2, {0}
     818:	4c060405 	cfstrsmi	mvf0, [r6], {5}
     81c:	01061005 	tsteq	r6, r5
     820:	4b060405 	blmi	18183c <__bss_end__+0x176dd4>
     824:	01060a05 	tsteq	r6, r5, lsl #20
     828:	2f060405 	svccs	0x00060405
     82c:	01061805 	tsteq	r6, r5, lsl #16
     830:	052e1105 	streq	r1, [lr, #-261]!	; 0xfffffefb
     834:	012f0604 			; <UNDEFINED> instruction: 0x012f0604
     838:	052e4a06 	streq	r4, [lr, #-2566]!	; 0xfffff5fa
     83c:	01330602 	teqeq	r3, r2, lsl #12
     840:	2e068206 	cdpcs	2, 0, cr8, cr6, cr6, {0}
     844:	05140505 	ldreq	r0, [r4, #-1285]	; 0xfffffafb
     848:	05130601 	ldreq	r0, [r3, #-1537]	; 0xfffff9ff
     84c:	c4030625 	strgt	r0, [r3], #-1573	; 0xfffff9db
     850:	0106ba7e 	tsteq	r6, lr, ror sl
     854:	4b060505 	blmi	181c70 <__bss_end__+0x177208>
     858:	06090514 			; <UNDEFINED> instruction: 0x06090514
     85c:	2e070501 	cfsh32cs	mvfx0, mvfx7, #1
     860:	4c060505 	cfstr32mi	mvfx0, [r6], {5}
     864:	01060c05 	tsteq	r6, r5, lsl #24
     868:	05651005 	strbeq	r1, [r5, #-5]!
     86c:	2c053001 	stccs	0, cr3, [r5], {1}
     870:	2e0d0306 	cdpcs	3, 0, cr0, cr13, cr6, {0}
     874:	05050106 	streq	r0, [r5, #-262]	; 0xfffffefa
     878:	00014b06 	andeq	r4, r1, r6, lsl #22
     87c:	66020402 	strvs	r0, [r2], -r2, lsl #8
     880:	02040200 	andeq	r0, r4, #0, 4
     884:	04020001 	streq	r0, [r2], #-1
     888:	02001402 	andeq	r1, r0, #33554432	; 0x2000000
     88c:	00010204 	andeq	r0, r1, r4, lsl #4
     890:	4a020402 	bmi	818a0 <__bss_end__+0x76e38>
     894:	02040200 	andeq	r0, r4, #0, 4
     898:	04020001 	streq	r0, [r2], #-1
     89c:	02001302 	andeq	r1, r0, #134217728	; 0x8000000
     8a0:	00010204 	andeq	r0, r1, r4, lsl #4
     8a4:	4a020402 	bmi	818b4 <__bss_end__+0x76e4c>
     8a8:	02040200 	andeq	r0, r4, #0, 4
     8ac:	00020501 	andeq	r0, r2, r1, lsl #10
     8b0:	14020402 	strne	r0, [r2], #-1026	; 0xfffffbfe
     8b4:	02001f05 	andeq	r1, r0, #5, 30
     8b8:	01060204 	tsteq	r6, r4, lsl #4
     8bc:	02001105 	andeq	r1, r0, #1073741825	; 0x40000001
     8c0:	052e0204 	streq	r0, [lr, #-516]!	; 0xfffffdfc
     8c4:	04020002 	streq	r0, [r2], #-2
     8c8:	052f0602 	streq	r0, [pc, #-1538]!	; 2ce <__code_start__-0x7d32>
     8cc:	04020007 	streq	r0, [r2], #-7
     8d0:	02050102 	andeq	r0, r5, #-2147483648	; 0x80000000
     8d4:	02040200 	andeq	r0, r4, #0, 4
     8d8:	02000106 	andeq	r0, r0, #-2147483647	; 0x80000001
     8dc:	052e0204 	streq	r0, [lr, #-516]!	; 0xfffffdfc
     8e0:	04020005 	streq	r0, [r2], #-5
     8e4:	7a030601 	bvc	c20f0 <__bss_end__+0xb7688>
     8e8:	04020001 	streq	r0, [r2], #-1
     8ec:	02000101 	andeq	r0, r0, #1073741824	; 0x40000000
     8f0:	9e060104 	adflss	f0, f6, f4
     8f4:	01040200 	mrseq	r0, R12_usr
     8f8:	0402002e 	streq	r0, [r2], #-46	; 0xffffffd2
     8fc:	002e0601 	eoreq	r0, lr, r1, lsl #12
     900:	30010402 	andcc	r0, r1, r2, lsl #8
     904:	01040200 	mrseq	r0, R12_usr
     908:	04020001 	streq	r0, [r2], #-1
     90c:	009e0601 	addseq	r0, lr, r1, lsl #12
     910:	2e010402 	cdpcs	4, 0, cr0, cr1, cr2, {0}
     914:	01040200 	mrseq	r0, R12_usr
     918:	02002e06 	andeq	r2, r0, #96	; 0x60
     91c:	002f0104 	eoreq	r0, pc, r4, lsl #2
     920:	01010402 	tsteq	r1, r2, lsl #8
     924:	01040200 	mrseq	r0, R12_usr
     928:	02009e06 	andeq	r9, r0, #96	; 0x60
     92c:	002e0104 	eoreq	r0, lr, r4, lsl #2
     930:	06010402 	streq	r0, [r1], -r2, lsl #8
     934:	030b052e 	movweq	r0, #46382	; 0xb52e
     938:	17052e0b 	strne	r2, [r5, -fp, lsl #28]
     93c:	0e050106 	adfeqs	f0, f5, f6
     940:	0604052e 	streq	r0, [r4], -lr, lsr #10
     944:	060e054e 	streq	r0, [lr], -lr, asr #10
     948:	06040501 	streq	r0, [r4], -r1, lsl #10
     94c:	0644052f 	strbeq	r0, [r4], -pc, lsr #10
     950:	06040501 	streq	r0, [r4], -r1, lsl #10
     954:	2e2e062f 	cfmadda32cs	mvax1, mvax0, mvfx14, mvfx15
     958:	02002605 	andeq	r2, r0, #5242880	; 0x500000
     95c:	03060204 	movweq	r0, #25092	; 0x6204
     960:	27050172 	smlsdxcs	r5, r2, r1, r0
     964:	02040200 	andeq	r0, r4, #0, 4
     968:	17050106 	strne	r0, [r5, -r6, lsl #2]
     96c:	01040200 	mrseq	r0, R12_usr
     970:	02052e06 	andeq	r2, r5, #96	; 0x60
     974:	01040200 	mrseq	r0, R12_usr
     978:	03050106 	movweq	r0, #20742	; 0x5106
     97c:	1e054b06 	vmlane.f64	d4, d5, d6
     980:	16050106 	strne	r0, [r5], -r6, lsl #2
     984:	0603052e 	streq	r0, [r3], -lr, lsr #10
     988:	0606054b 	streq	r0, [r6], -fp, asr #10
     98c:	001e0501 	andseq	r0, lr, r1, lsl #10
     990:	4a010402 	bmi	419a0 <__bss_end__+0x36f38>
     994:	02001105 	andeq	r1, r0, #1073741825	; 0x40000001
     998:	052e0104 	streq	r0, [lr, #-260]!	; 0xfffffefc
     99c:	054c0604 	strbeq	r0, [ip, #-1540]	; 0xfffff9fc
     9a0:	05010614 	streq	r0, [r1, #-1556]	; 0xfffff9ec
     9a4:	054b0604 	strbeq	r0, [fp, #-1540]	; 0xfffff9fc
     9a8:	4a010608 	bmi	421d0 <__bss_end__+0x37768>
     9ac:	052e0705 	streq	r0, [lr, #-1797]!	; 0xfffff8fb
     9b0:	054c0605 	strbeq	r0, [ip, #-1541]	; 0xfffff9fb
     9b4:	0501060e 	streq	r0, [r1, #-1550]	; 0xfffff9f2
     9b8:	05052e1b 	streq	r2, [r5, #-3611]	; 0xfffff1e5
     9bc:	0e056806 	cdpeq	8, 0, cr6, cr5, cr6, {0}
     9c0:	1a050106 	bne	140de0 <__bss_end__+0x136378>
     9c4:	0105662e 	tsteq	r5, lr, lsr #12
     9c8:	1c054a1a 			; <UNDEFINED> instruction: 0x1c054a1a
     9cc:	02050006 	andeq	r0, r5, #6, 0
     9d0:	00008830 	andeq	r8, r0, r0, lsr r8
     9d4:	05013003 	streq	r3, [r1, #-3]
     9d8:	09054e05 	stmdbeq	r5, {r0, r2, r9, sl, fp, lr}
     9dc:	06140501 	ldreq	r0, [r4], -r1, lsl #10
     9e0:	00240501 	eoreq	r0, r4, r1, lsl #10
     9e4:	06010402 	streq	r0, [r1], -r2, lsl #8
     9e8:	0005052e 	andeq	r0, r5, lr, lsr #10
     9ec:	06010402 	streq	r0, [r1], -r2, lsl #8
     9f0:	00090501 	andeq	r0, r9, r1, lsl #10
     9f4:	06030402 	streq	r0, [r3], -r2, lsl #8
     9f8:	0032054b 	eorseq	r0, r2, fp, asr #10
     9fc:	06030402 	streq	r0, [r3], -r2, lsl #8
     a00:	00210501 	eoreq	r0, r1, r1, lsl #10
     a04:	4a030402 	bmi	c1a14 <__bss_end__+0xb6fac>
     a08:	02001105 	andeq	r1, r0, #1073741825	; 0x40000001
     a0c:	052e0304 	streq	r0, [lr, #-772]!	; 0xfffffcfc
     a10:	04020027 	streq	r0, [r2], #-39	; 0xffffffd9
     a14:	052d0603 	streq	r0, [sp, #-1539]!	; 0xfffff9fd
     a18:	0402002b 	streq	r0, [r2], #-43	; 0xffffffd5
     a1c:	00010603 	andeq	r0, r1, r3, lsl #12
     a20:	2e030402 	cdpcs	4, 0, cr0, cr3, cr2, {0}
     a24:	03040200 	movweq	r0, #16896	; 0x4200
     a28:	0605052e 	streq	r0, [r5], -lr, lsr #10
     a2c:	2e061318 	mcrcs	3, 0, r1, cr6, cr8, {0}
     a30:	0d053106 	stfeqs	f3, [r5, #-24]	; 0xffffffe8
     a34:	05050106 	streq	r0, [r5, #-262]	; 0xfffffefa
     a38:	0d054b06 	vstreq	d4, [r5, #-24]	; 0xffffffe8
     a3c:	05050106 	streq	r0, [r5, #-262]	; 0xfffffefa
     a40:	0d052f06 	stceq	15, cr2, [r5, #-24]	; 0xffffffe8
     a44:	05050106 	streq	r0, [r5, #-262]	; 0xfffffefa
     a48:	0d052f06 	stceq	15, cr2, [r5, #-24]	; 0xffffffe8
     a4c:	05050106 	streq	r0, [r5, #-262]	; 0xfffffefa
     a50:	01683006 	cmneq	r8, r6
     a54:	05180101 	ldreq	r0, [r8, #-257]	; 0xfffffeff
     a58:	05051302 	streq	r1, [r5, #-770]	; 0xfffffcfe
     a5c:	13681369 	cmnne	r8, #-1543503871	; 0xa4000001
     a60:	67060105 	strvs	r0, [r6, -r5, lsl #2]
     a64:	03061c05 	movweq	r1, #27653	; 0x6c05
     a68:	06ba7edc 	ssateq	r7, #27, ip, asr #29
     a6c:	06020501 	streq	r0, [r2], -r1, lsl #10
     a70:	2e060167 	adfcssz	f0, f6, f7
     a74:	05052e06 	streq	r2, [r5, #-3590]	; 0xfffff1fa
     a78:	02000113 	andeq	r0, r0, #-1073741820	; 0xc0000004
     a7c:	004a0204 	subeq	r0, sl, r4, lsl #4
     a80:	01020402 	tsteq	r2, r2, lsl #8
     a84:	02040200 	andeq	r0, r4, #0, 4
     a88:	00080513 	andeq	r0, r8, r3, lsl r5
     a8c:	06020402 	streq	r0, [r2], -r2, lsl #8
     a90:	00070501 	andeq	r0, r7, r1, lsl #10
     a94:	4a020402 	bmi	81aa4 <__bss_end__+0x7703c>
     a98:	4b060905 	blmi	182eb4 <__bss_end__+0x17844c>
     a9c:	14051314 	strne	r1, [r5], #-788	; 0xfffffcec
     aa0:	09050106 	stmdbeq	r5, {r1, r2, r8}
     aa4:	12056706 	andne	r6, r5, #1572864	; 0x180000
     aa8:	09050106 	stmdbeq	r5, {r1, r2, r8}
     aac:	054b4b06 	strbeq	r4, [fp, #-2822]	; 0xfffff4fa
     ab0:	05010610 	streq	r0, [r1, #-1552]	; 0xfffff9f0
     ab4:	054c0605 	strbeq	r0, [ip, #-1541]	; 0xfffff9fb
     ab8:	0501060c 	streq	r0, [r1, #-1548]	; 0xfffff9f4
     abc:	05054b01 	streq	r4, [r5, #-2817]	; 0xfffff4ff
     ac0:	01040200 	mrseq	r0, R12_usr
     ac4:	4a750306 	bmi	1d416e4 <__bss_end__+0x1d36c7c>
     ac8:	01040200 	mrseq	r0, R12_usr
     acc:	04020001 	streq	r0, [r2], #-1
     ad0:	0905d601 	stmdbeq	r5, {r0, r9, sl, ip, lr, pc}
     ad4:	059e0130 	ldreq	r0, [lr, #304]	; 0x130
     ad8:	01a40331 			; <UNDEFINED> instruction: 0x01a40331
     adc:	050106f2 	streq	r0, [r1, #-1778]	; 0xfffff90e
     ae0:	014b0602 	cmpeq	fp, r2, lsl #12
     ae4:	2e062e06 	cdpcs	14, 0, cr2, cr6, cr6, {0}
     ae8:	05130505 	ldreq	r0, [r3, #-1285]	; 0xfffffafb
     aec:	05052f02 	streq	r2, [r5, #-3842]	; 0xfffff0fe
     af0:	060c054b 	streq	r0, [ip], -fp, asr #10
     af4:	4b010501 	blmi	41f00 <__bss_end__+0x37498>
     af8:	69061a05 	stmdbvs	r6, {r0, r2, r9, fp, ip}
     afc:	13320505 	teqne	r2, #20971520	; 0x1400000
     b00:	01060805 	tsteq	r6, r5, lsl #16
     b04:	054a0705 	strbeq	r0, [sl, #-1797]	; 0xfffff8fb
     b08:	144b0609 	strbne	r0, [fp], #-1545	; 0xfffff9f7
     b0c:	05054a01 	streq	r4, [r5, #-2561]	; 0xfffff5ff
     b10:	06010513 			; <UNDEFINED> instruction: 0x06010513
     b14:	06090513 			; <UNDEFINED> instruction: 0x06090513
     b18:	059e012a 	ldreq	r0, [lr, #298]	; 0x12a
     b1c:	0505a522 	streq	sl, [r5, #-1314]	; 0xfffffade
     b20:	17051332 	smladxne	r5, r2, r3, r1
     b24:	05050106 	streq	r0, [r5, #-262]	; 0xfffffefa
     b28:	07054b06 	streq	r4, [r5, -r6, lsl #22]
     b2c:	09050106 	stmdbeq	r5, {r1, r2, r8}
     b30:	01144b06 	tsteq	r4, r6, lsl #22
     b34:	2e064a06 	vmlacs.f32	s8, s12, s12
     b38:	13130505 	tstne	r3, #20971520	; 0x1400000
     b3c:	13060105 	movwne	r0, #24837	; 0x6105
     b40:	45060905 	strmi	r0, [r6, #-2309]	; 0xfffff6fb
     b44:	16059e01 	strne	r9, [r5], -r1, lsl #28
     b48:	059e1f03 	ldreq	r1, [lr, #3843]	; 0xf03
     b4c:	052f2f05 	streq	r2, [pc, #-3845]!	; fffffc4f <__bss_end__+0xffff51e7>
     b50:	05010617 	streq	r0, [r1, #-1559]	; 0xfffff9e9
     b54:	05320605 	ldreq	r0, [r2, #-1541]!	; 0xfffff9fb
     b58:	05130601 	ldreq	r0, [r3, #-1537]	; 0xfffff9ff
     b5c:	0530061b 	ldreq	r0, [r0, #-1563]!	; 0xfffff9e5
     b60:	9e012f05 	cdpls	15, 0, cr2, cr1, cr5, {0}
     b64:	01000802 	tsteq	r0, r2, lsl #16
     b68:	00025201 	andeq	r5, r2, r1, lsl #4
     b6c:	8a000300 	bhi	1774 <__code_start__-0x688c>
     b70:	02000000 	andeq	r0, r0, #0, 0
     b74:	0d0efb01 	vstreq	d15, [lr, #-4]
     b78:	01010100 	mrseq	r0, (UNDEF: 17)
     b7c:	00000001 	andeq	r0, r0, r1
     b80:	01000001 	tsteq	r0, r1
     b84:	6573552f 	ldrbvs	r5, [r3, #-1327]!	; 0xfffffad1
     b88:	742f7372 	strtvc	r7, [pc], #-882	; b90 <__code_start__-0x7470>
     b8c:	74736972 	ldrbtvc	r6, [r3], #-2418	; 0xfffff68e
     b90:	6f6e6e65 	svcvs	0x006e6e65
     b94:	616d6c6c 	cmnvs	sp, ip, ror #24
     b98:	6f442f6e 	svcvs	0x00442f6e
     b9c:	656d7563 	strbvs	r7, [sp, #-1379]!	; 0xfffffa9d
     ba0:	2f73746e 	svccs	0x0073746e
     ba4:	69727053 	ldmdbvs	r2!, {r0, r1, r4, r6, ip, sp, lr}^
     ba8:	515f676e 	cmppl	pc, lr, ror #14
     bac:	74726175 	ldrbtvc	r6, [r2], #-373	; 0xfffffe8b
     bb0:	325f7265 	subscc	r7, pc, #1342177286	; 0x50000006
     bb4:	2f323230 	svccs	0x00323230
     bb8:	34325343 	ldrtcc	r5, [r2], #-835	; 0xfffffcbd
     bbc:	2d584c30 	ldclcs	12, cr4, [r8, #-192]	; 0xffffff40
     bc0:	32727073 	rsbscc	r7, r2, #115, 0	; 0x73
     bc4:	696c2f32 	stmdbvs	ip!, {r1, r4, r5, r8, r9, sl, fp, sp}^
     bc8:	2f697062 	svccs	0x00697062
     bcc:	6c636e69 	stclvs	14, cr6, [r3], #-420	; 0xfffffe5c
     bd0:	00656475 	rsbeq	r6, r5, r5, ror r4
     bd4:	2d726b00 	vldmdbcs	r2!, {d22-d21}
     bd8:	6c6c616d 	stfvse	f6, [ip], #-436	; 0xfffffe4c
     bdc:	632e636f 			; <UNDEFINED> instruction: 0x632e636f
     be0:	00000000 	andeq	r0, r0, r0
     be4:	2e697072 	mcrcs	0, 3, r7, cr9, cr2, {3}
     be8:	00010068 	andeq	r0, r1, r8, rrx
     bec:	2d726b00 	vldmdbcs	r2!, {d22-d21}
     bf0:	6c6c616d 	stfvse	f6, [ip], #-436	; 0xfffffe4c
     bf4:	682e636f 	stmdavs	lr!, {r0, r1, r2, r3, r5, r6, r8, r9, sp, lr}
     bf8:	00000000 	andeq	r0, r0, r0
     bfc:	00190500 	andseq	r0, r9, r0, lsl #10
     c00:	8ab80205 	bhi	fee0141c <__bss_end__+0xfedf69b4>
     c04:	d2030000 	andle	r0, r3, #0, 0
     c08:	01060100 	mrseq	r0, (UNDEF: 22)
     c0c:	2f060205 	svccs	0x00060205
     c10:	06050513 			; <UNDEFINED> instruction: 0x06050513
     c14:	06020501 	streq	r0, [r2], -r1, lsl #10
     c18:	0609052f 	streq	r0, [r9], -pc, lsr #10
     c1c:	4a020501 	bmi	82028 <__bss_end__+0x775c0>
     c20:	0012052e 	andseq	r0, r2, lr, lsr #10
     c24:	06010402 	streq	r0, [r1], -r2, lsl #8
     c28:	0002052e 	andeq	r0, r2, lr, lsr #10
     c2c:	06010402 	streq	r0, [r1], -r2, lsl #8
     c30:	00260501 	eoreq	r0, r6, r1, lsl #10
     c34:	4a030402 	bmi	c1c44 <__bss_end__+0xb71dc>
     c38:	02001205 	andeq	r1, r0, #1342177280	; 0x50000000
     c3c:	052e0304 	streq	r0, [lr, #-772]!	; 0xfffffcfc
     c40:	054b0603 	strbeq	r0, [fp, #-1539]	; 0xfffff9fd
     c44:	05010610 	streq	r0, [r1, #-1552]	; 0xfffff9f0
     c48:	15052e06 	strne	r2, [r5, #-3590]	; 0xfffff1fa
     c4c:	01040200 	mrseq	r0, R12_usr
     c50:	0020054a 	eoreq	r0, r0, sl, asr #10
     c54:	4a020402 	bmi	81c64 <__bss_end__+0x771fc>
     c58:	02040200 	andeq	r0, r4, #0, 4
     c5c:	0602054a 	streq	r0, [r2], -sl, asr #10
     c60:	06100532 			; <UNDEFINED> instruction: 0x06100532
     c64:	2e090501 	cfsh32cs	mvfx0, mvfx9, #1
     c68:	052e1d05 	streq	r1, [lr, #-3333]!	; 0xfffff2fb
     c6c:	0c052e05 	stceq	14, cr2, [r5], {5}
     c70:	16054e06 	strne	r4, [r5], -r6, lsl #28
     c74:	08050106 	stmdaeq	r5, {r1, r2, r8}
     c78:	14052f06 	strne	r2, [r5], #-3846	; 0xfffff0fa
     c7c:	0e050106 	adfeqs	f0, f5, f6
     c80:	2e0b052e 	cfsh32cs	mvfx0, mvfx11, #30
     c84:	4e060c05 	cdpmi	12, 0, cr0, cr6, cr5, {0}
     c88:	01061505 	tsteq	r6, r5, lsl #10
     c8c:	30060205 	andcc	r0, r6, r5, lsl #4
     c90:	01060805 	tsteq	r6, r5, lsl #16
     c94:	054b0105 	strbeq	r0, [fp, #-261]	; 0xfffffefb
     c98:	7503060c 	strvc	r0, [r3, #-1548]	; 0xfffff9f4
     c9c:	0625052e 	strteq	r0, [r5], -lr, lsr #10
     ca0:	2e170501 	cfmul32cs	mvfx0, mvfx7, mvfx1
     ca4:	4b060c05 	blmi	183cc0 <__bss_end__+0x179258>
     ca8:	01061c05 	tsteq	r6, r5, lsl #24
     cac:	052e2305 	streq	r2, [lr, #-773]!	; 0xfffffcfb
     cb0:	0c052e16 	stceq	14, cr2, [r5], {22}
     cb4:	1e054e06 	cdpne	14, 0, cr4, cr5, cr6, {0}
     cb8:	16050106 	strne	r0, [r5], -r6, lsl #2
     cbc:	060c052e 	streq	r0, [ip], -lr, lsr #10
     cc0:	061c054b 	ldreq	r0, [ip], -fp, asr #10
     cc4:	2e150501 	cfmul32cs	mvfx0, mvfx5, mvfx1
     cc8:	03062a05 	movweq	r2, #27141	; 0x6a05
     ccc:	06667fb7 			; <UNDEFINED> instruction: 0x06667fb7
     cd0:	06020501 	streq	r0, [r2], -r1, lsl #10
     cd4:	0514134b 	ldreq	r1, [r4, #-843]	; 0xfffffcb5
     cd8:	05010605 	streq	r0, [r1, #-1541]	; 0xfffff9fb
     cdc:	02052f07 	andeq	r2, r5, #7, 30
     ce0:	07053106 	streq	r3, [r5, -r6, lsl #2]
     ce4:	02050106 	andeq	r0, r5, #-2147483647	; 0x80000001
     ce8:	05054b06 	streq	r4, [r5, #-2822]	; 0xfffff4fa
     cec:	02050106 	andeq	r0, r5, #-2147483647	; 0x80000001
     cf0:	05134e06 	ldreq	r4, [r3, #-3590]	; 0xfffff1fa
     cf4:	0501060d 	streq	r0, [r1, #-1549]	; 0xfffff9f3
     cf8:	062f0602 	strteq	r0, [pc], -r2, lsl #12
     cfc:	052f062e 	streq	r0, [pc, #-1582]!	; 6d6 <__code_start__-0x792a>
     d00:	05010609 	streq	r0, [r1, #-1545]	; 0xfffff9f7
     d04:	667a030a 	ldrbtvs	r0, [sl], -sl, lsl #6
     d08:	05350105 	ldreq	r0, [r5, #-261]!	; 0xfffffefb
     d0c:	064d0622 	strbeq	r0, [sp], -r2, lsr #12
     d10:	06020501 	streq	r0, [r2], -r1, lsl #10
     d14:	1413132f 	ldrne	r1, [r3], #-815	; 0xfffffcd1
     d18:	01062405 	tsteq	r6, r5, lsl #8
     d1c:	052e2905 	streq	r2, [lr, #-2309]!	; 0xfffff6fb
     d20:	02052e09 	andeq	r2, r5, #144	; 0x90
     d24:	0d052f06 	stceq	15, cr2, [r5, #-24]	; 0xffffffe8
     d28:	05050106 	streq	r0, [r5, #-262]	; 0xfffffefa
     d2c:	0602054a 	streq	r0, [r2], -sl, asr #10
     d30:	06090550 			; <UNDEFINED> instruction: 0x06090550
     d34:	03052e01 	movweq	r2, #24065	; 0x5e01
     d38:	16052a06 	strne	r2, [r5], -r6, lsl #20
     d3c:	0e050106 	adfeqs	f0, f5, f6
     d40:	0603054a 	streq	r0, [r3], -sl, asr #10
     d44:	060f052f 	streq	r0, [pc], -pc, lsr #10
     d48:	06040501 	streq	r0, [r4], -r1, lsl #10
     d4c:	0607056c 	streq	r0, [r7], -ip, ror #10
     d50:	06050501 	streq	r0, [r5], -r1, lsl #10
     d54:	060f0532 			; <UNDEFINED> instruction: 0x060f0532
     d58:	06050501 	streq	r0, [r5], -r1, lsl #10
     d5c:	0607054b 	streq	r0, [r7], -fp, asr #10
     d60:	06050501 	streq	r0, [r5], -r1, lsl #10
     d64:	060f052f 	streq	r0, [pc], -pc, lsr #10
     d68:	06040501 	streq	r0, [r4], -r1, lsl #10
     d6c:	060a0530 			; <UNDEFINED> instruction: 0x060a0530
     d70:	06040501 	streq	r0, [r4], -r1, lsl #10
     d74:	060b054b 	streq	r0, [fp], -fp, asr #10
     d78:	05052e01 	streq	r2, [r5, #-3585]	; 0xfffff1ff
     d7c:	2e790306 	cdpcs	3, 7, cr0, cr9, cr6, {0}
     d80:	01061805 	tsteq	r6, r5, lsl #16
     d84:	052e1205 	streq	r1, [lr, #-517]!	; 0xfffffdfb
     d88:	0545061a 	strbeq	r0, [r5, #-1562]	; 0xfffff9e6
     d8c:	20050118 	andcs	r0, r5, r8, lsl r1
     d90:	27050106 	strcs	r0, [r5, -r6, lsl #2]
     d94:	0603052e 	streq	r0, [r3], -lr, lsr #10
     d98:	060b052f 	streq	r0, [fp], -pc, lsr #10
     d9c:	2e060501 	cfsh32cs	mvfx0, mvfx6, #1
     da0:	03060305 	movweq	r0, #25349	; 0x6305
     da4:	09054a0e 	stmdbeq	r5, {r1, r2, r3, r9, fp, lr}
     da8:	06050106 	streq	r0, [r5], -r6, lsl #2
     dac:	0604054a 	streq	r0, [r4], -sl, asr #10
     db0:	060d054c 	streq	r0, [sp], -ip, asr #10
     db4:	07052e01 	streq	r2, [r5, -r1, lsl #28]
     db8:	06022e2e 	streq	r2, [r2], -lr, lsr #28
     dbc:	14010100 	strne	r0, [r1], #-256	; 0xffffff00
     dc0:	03000001 	movweq	r0, #1
     dc4:	0000e400 	andeq	lr, r0, r0, lsl #8
     dc8:	fb010200 	blx	415d2 <__bss_end__+0x36b6a>
     dcc:	01000d0e 	tsteq	r0, lr, lsl #26
     dd0:	00010101 	andeq	r0, r1, r1, lsl #2
     dd4:	00010000 	andeq	r0, r1, r0
     dd8:	2f2e0100 	svccs	0x002e0100
     ddc:	6362696c 	cmnvs	r2, #108, 18	; 0x1b0000
     de0:	73552f00 	cmpvc	r5, #0, 30
     de4:	2f737265 	svccs	0x00737265
     de8:	73697274 	cmnvc	r9, #116, 4	; 0x40000007
     dec:	6e6e6574 	mcrvs	5, 3, r6, cr14, cr4, {3}
     df0:	6d6c6c6f 	stclvs	12, cr6, [ip, #-444]!	; 0xfffffe44
     df4:	442f6e61 	strtmi	r6, [pc], #-3681	; dfc <__code_start__-0x7204>
     df8:	6d75636f 	ldclvs	3, cr6, [r5, #-444]!	; 0xfffffe44
     dfc:	73746e65 	cmnvc	r4, #1616	; 0x650
     e00:	7270532f 	rsbsvc	r5, r0, #-1140850688	; 0xbc000000
     e04:	5f676e69 	svcpl	0x00676e69
     e08:	72617551 	rsbvc	r7, r1, #339738624	; 0x14400000
     e0c:	5f726574 	svcpl	0x00726574
     e10:	32323032 	eorscc	r3, r2, #50, 0	; 0x32
     e14:	3253432f 	subscc	r4, r3, #-1140850688	; 0xbc000000
     e18:	584c3034 	stmdapl	ip, {r2, r4, r5, ip, sp}^
     e1c:	7270732d 	rsbsvc	r7, r0, #-1275068416	; 0xb4000000
     e20:	6c2f3232 	sfmvs	f3, 4, [pc], #-200	; d60 <__code_start__-0x72a0>
     e24:	69706269 	ldmdbvs	r0!, {r0, r3, r5, r6, r9, sp, lr}^
     e28:	636e692f 	cmnvs	lr, #770048	; 0xbc000
     e2c:	6564756c 	strbvs	r7, [r4, #-1388]!	; 0xfffffa94
     e30:	73752f00 	cmnvc	r5, #0, 30
     e34:	6f6c2f72 	svcvs	0x006c2f72
     e38:	2f6c6163 	svccs	0x006c6163
     e3c:	6c6c6543 	cfstr64vs	mvdx6, [ip], #-268	; 0xfffffef4
     e40:	612f7261 			; <UNDEFINED> instruction: 0x612f7261
     e44:	6e2d6d72 	mcrvs	13, 1, r6, cr13, cr2, {3}
     e48:	2d656e6f 	stclcs	14, cr6, [r5, #-444]!	; 0xfffffe44
     e4c:	69626165 	stmdbvs	r2!, {r0, r2, r5, r6, r8, sp, lr}^
     e50:	7365742d 	cmnvc	r5, #754974720	; 0x2d000000
     e54:	2d392f74 	ldccs	15, cr2, [r9, #-464]!	; 0xfffffe30
     e58:	39313032 	ldmdbcc	r1!, {r1, r4, r5, ip, sp}
     e5c:	632d3471 			; <UNDEFINED> instruction: 0x632d3471
     e60:	37303173 			; <UNDEFINED> instruction: 0x37303173
     e64:	696c2f65 	stmdbvs	ip!, {r0, r2, r5, r6, r8, r9, sl, fp, sp}^
     e68:	63672f62 	cmnvs	r7, #392	; 0x188
     e6c:	72612f63 	rsbvc	r2, r1, #396	; 0x18c
     e70:	6f6e2d6d 	svcvs	0x006e2d6d
     e74:	652d656e 	strvs	r6, [sp, #-1390]!	; 0xfffffa92
     e78:	2f696261 	svccs	0x00696261
     e7c:	2e322e39 	mrccs	14, 1, r2, cr2, cr9, {1}
     e80:	6e692f31 	mcrvs	15, 3, r2, cr9, cr1, {1}
     e84:	64756c63 	ldrbtvs	r6, [r5], #-3171	; 0xfffff39d
     e88:	6d000065 	stcvs	0, cr0, [r0, #-404]	; 0xfffffe6c
     e8c:	65736d65 	ldrbvs	r6, [r3, #-3429]!	; 0xfffff29b
     e90:	00632e74 	rsbeq	r2, r3, r4, ror lr
     e94:	72000001 	andvc	r0, r0, #1, 0
     e98:	682e6970 	stmdavs	lr!, {r4, r5, r6, r8, fp, sp, lr}
     e9c:	00000200 	andeq	r0, r0, r0, lsl #4
     ea0:	64647473 	strbtvs	r7, [r4], #-1139	; 0xfffffb8d
     ea4:	682e6665 	stmdavs	lr!, {r0, r2, r5, r6, r9, sl, sp, lr}
     ea8:	00000300 	andeq	r0, r0, r0, lsl #6
     eac:	00290500 	eoreq	r0, r9, r0, lsl #10
     eb0:	8c640205 	sfmhi	f0, 2, [r4], #-20	; 0xffffffec
     eb4:	05150000 	ldreq	r0, [r5, #-0]
     eb8:	14051305 	strne	r1, [r5], #-773	; 0xfffffcfb
     ebc:	05050106 	streq	r0, [r5, #-262]	; 0xfffffefa
     ec0:	0b053006 	bleq	14cee0 <__bss_end__+0x142478>
     ec4:	0a051006 	beq	144ee4 <__bss_end__+0x13a47c>
     ec8:	09053006 	stmdbeq	r5, {r1, r2, ip, sp}
     ecc:	060e054b 	streq	r0, [lr], -fp, asr #10
     ed0:	02022e01 	andeq	r2, r2, #1, 28
     ed4:	33010100 	movwcc	r0, #4352	; 0x1100
     ed8:	03000001 	movweq	r0, #1
     edc:	00010100 	andeq	r0, r1, r0, lsl #2
     ee0:	fb010200 	blx	416ea <__bss_end__+0x36c82>
     ee4:	01000d0e 	tsteq	r0, lr, lsl #26
     ee8:	00010101 	andeq	r0, r1, r1, lsl #2
     eec:	00010000 	andeq	r0, r1, r0
     ef0:	2f2e0100 	svccs	0x002e0100
     ef4:	6362696c 	cmnvs	r2, #108, 18	; 0x1b0000
     ef8:	73752f00 	cmnvc	r5, #0, 30
     efc:	6f6c2f72 	svcvs	0x006c2f72
     f00:	2f6c6163 	svccs	0x006c6163
     f04:	6c6c6543 	cfstr64vs	mvdx6, [ip], #-268	; 0xfffffef4
     f08:	612f7261 			; <UNDEFINED> instruction: 0x612f7261
     f0c:	6e2d6d72 	mcrvs	13, 1, r6, cr13, cr2, {3}
     f10:	2d656e6f 	stclcs	14, cr6, [r5, #-444]!	; 0xfffffe44
     f14:	69626165 	stmdbvs	r2!, {r0, r2, r5, r6, r8, sp, lr}^
     f18:	7365742d 	cmnvc	r5, #754974720	; 0x2d000000
     f1c:	2d392f74 	ldccs	15, cr2, [r9, #-464]!	; 0xfffffe30
     f20:	39313032 	ldmdbcc	r1!, {r1, r4, r5, ip, sp}
     f24:	632d3471 			; <UNDEFINED> instruction: 0x632d3471
     f28:	37303173 			; <UNDEFINED> instruction: 0x37303173
     f2c:	696c2f65 	stmdbvs	ip!, {r0, r2, r5, r6, r8, r9, sl, fp, sp}^
     f30:	63672f62 	cmnvs	r7, #392	; 0x188
     f34:	72612f63 	rsbvc	r2, r1, #396	; 0x18c
     f38:	6f6e2d6d 	svcvs	0x006e2d6d
     f3c:	652d656e 	strvs	r6, [sp, #-1390]!	; 0xfffffa92
     f40:	2f696261 	svccs	0x00696261
     f44:	2e322e39 	mrccs	14, 1, r2, cr2, cr9, {1}
     f48:	6e692f31 	mcrvs	15, 3, r2, cr9, cr1, {1}
     f4c:	64756c63 	ldrbtvs	r6, [r5], #-3171	; 0xfffff39d
     f50:	552f0065 	strpl	r0, [pc, #-101]!	; ef3 <__code_start__-0x710d>
     f54:	73726573 	cmnvc	r2, #482344960	; 0x1cc00000
     f58:	6972742f 	ldmdbvs	r2!, {r0, r1, r2, r3, r5, sl, ip, sp, lr}^
     f5c:	6e657473 	mcrvs	4, 3, r7, cr5, cr3, {3}
     f60:	6c6c6f6e 	stclvs	15, cr6, [ip], #-440	; 0xfffffe48
     f64:	2f6e616d 	svccs	0x006e616d
     f68:	75636f44 	strbvc	r6, [r3, #-3908]!	; 0xfffff0bc
     f6c:	746e656d 	strbtvc	r6, [lr], #-1389	; 0xfffffa93
     f70:	70532f73 	subsvc	r2, r3, r3, ror pc
     f74:	676e6972 			; <UNDEFINED> instruction: 0x676e6972
     f78:	6175515f 	cmnvs	r5, pc, asr r1
     f7c:	72657472 	rsbvc	r7, r5, #1912602624	; 0x72000000
     f80:	3230325f 	eorscc	r3, r0, #-268435451	; 0xf0000005
     f84:	53432f32 	movtpl	r2, #16178	; 0x3f32
     f88:	4c303432 	cfldrsmi	mvf3, [r0], #-200	; 0xffffff38
     f8c:	70732d58 	rsbsvc	r2, r3, r8, asr sp
     f90:	2f323272 	svccs	0x00323272
     f94:	7062696c 	rsbvc	r6, r2, ip, ror #18
     f98:	6e692f69 	cdpvs	15, 6, cr2, cr9, cr9, {3}
     f9c:	64756c63 	ldrbtvs	r6, [r5], #-3171	; 0xfffff39d
     fa0:	70000065 	andvc	r0, r0, r5, rrx
     fa4:	746e6972 	strbtvc	r6, [lr], #-2418	; 0xfffff68e
     fa8:	00632e6b 	rsbeq	r2, r3, fp, ror #28
     fac:	73000001 	movwvc	r0, #1
     fb0:	72616474 	rsbvc	r6, r1, #116, 8	; 0x74000000
     fb4:	00682e67 	rsbeq	r2, r8, r7, ror #28
     fb8:	72000002 	andvc	r0, r0, #2, 0
     fbc:	682e6970 	stmdavs	lr!, {r4, r5, r6, r8, fp, sp, lr}
     fc0:	00000300 	andeq	r0, r0, r0, lsl #6
     fc4:	6975623c 	ldmdbvs	r5!, {r2, r3, r4, r5, r9, sp, lr}^
     fc8:	692d746c 	pushvs	{r2, r3, r5, r6, sl, ip, sp, lr}
     fcc:	00003e6e 	andeq	r3, r0, lr, ror #28
     fd0:	61760000 	cmnvs	r6, r0
     fd4:	6972702d 	ldmdbvs	r2!, {r0, r2, r3, r5, ip, sp, lr}^
     fd8:	2e6b746e 	cdpcs	4, 6, cr7, cr11, cr14, {3}
     fdc:	00010068 	andeq	r0, r1, r8, rrx
     fe0:	22050000 	andcs	r0, r5, #0, 0
     fe4:	7c020500 	cfstr32vc	mvfx0, [r2], {-0}
     fe8:	1700008c 	strne	r0, [r0, -ip, lsl #1]
     fec:	05050106 	streq	r0, [r5, #-262]	; 0xfffffefa
     ff0:	14136806 	ldrne	r6, [r3], #-2054	; 0xfffff7fa
     ff4:	054b0905 	strbeq	r0, [fp, #-2309]	; 0xfffff6fb
     ff8:	05010612 	streq	r0, [r1, #-1554]	; 0xfffff9ee
     ffc:	16bb0605 	ldrtne	r0, [fp], r5, lsl #12
    1000:	34066606 	strcc	r6, [r6], #-1542	; 0xfffff9fa
    1004:	13060105 	movwne	r0, #24837	; 0x6105
    1008:	00080266 	andeq	r0, r8, r6, ror #4
    100c:	00cb0101 	sbceq	r0, fp, r1, lsl #2
    1010:	00030000 	andeq	r0, r3, r0
    1014:	0000007d 	andeq	r0, r0, sp, ror r0
    1018:	0efb0102 	cdpeq	1, 15, cr0, cr11, cr2, {0}
    101c:	0101000d 	tsteq	r1, sp
    1020:	00000101 	andeq	r0, r0, r1, lsl #2
    1024:	00000100 	andeq	r0, r0, r0, lsl #2
    1028:	6c2f2e01 	stcvs	14, cr2, [pc], #-4	; 102c <__code_start__-0x6fd4>
    102c:	00636269 	rsbeq	r6, r3, r9, ror #4
    1030:	6573552f 	ldrbvs	r5, [r3, #-1327]!	; 0xfffffad1
    1034:	742f7372 	strtvc	r7, [pc], #-882	; 103c <__code_start__-0x6fc4>
    1038:	74736972 	ldrbtvc	r6, [r3], #-2418	; 0xfffff68e
    103c:	6f6e6e65 	svcvs	0x006e6e65
    1040:	616d6c6c 	cmnvs	sp, ip, ror #24
    1044:	6f442f6e 	svcvs	0x00442f6e
    1048:	656d7563 	strbvs	r7, [sp, #-1379]!	; 0xfffffa9d
    104c:	2f73746e 	svccs	0x0073746e
    1050:	69727053 	ldmdbvs	r2!, {r0, r1, r4, r6, ip, sp, lr}^
    1054:	515f676e 	cmppl	pc, lr, ror #14
    1058:	74726175 	ldrbtvc	r6, [r2], #-373	; 0xfffffe8b
    105c:	325f7265 	subscc	r7, pc, #1342177286	; 0x50000006
    1060:	2f323230 	svccs	0x00323230
    1064:	34325343 	ldrtcc	r5, [r2], #-835	; 0xfffffcbd
    1068:	2d584c30 	ldclcs	12, cr4, [r8, #-192]	; 0xffffff40
    106c:	32727073 	rsbscc	r7, r2, #115, 0	; 0x73
    1070:	696c2f32 	stmdbvs	ip!, {r1, r4, r5, r8, r9, sl, fp, sp}^
    1074:	2f697062 	svccs	0x00697062
    1078:	6c636e69 	stclvs	14, cr6, [r3], #-420	; 0xfffffe5c
    107c:	00656475 	rsbeq	r6, r5, r5, ror r4
    1080:	74757000 	ldrbtvc	r7, [r5], #-0
    1084:	00632e6b 	rsbeq	r2, r3, fp, ror #28
    1088:	72000001 	andvc	r0, r0, #1, 0
    108c:	682e6970 	stmdavs	lr!, {r4, r5, r6, r8, fp, sp, lr}
    1090:	00000200 	andeq	r0, r0, r0, lsl #4
    1094:	00220500 	eoreq	r0, r2, r0, lsl #10
    1098:	8cd40205 	lfmhi	f0, 2, [r4], {5}
    109c:	06150000 	ldreq	r0, [r5], -r0
    10a0:	06050501 	streq	r0, [r5], -r1, lsl #10
    10a4:	000b054b 	andeq	r0, fp, fp, asr #10
    10a8:	01010402 	tsteq	r1, r2, lsl #8
    10ac:	02000505 	andeq	r0, r0, #20971520	; 0x1400000
    10b0:	2e060104 	adfcss	f0, f6, f4
    10b4:	02000905 	andeq	r0, r0, #81920	; 0x14000
    10b8:	4b060204 	blmi	1818d0 <__bss_end__+0x176e68>
    10bc:	02000f05 	andeq	r0, r0, #5, 30
    10c0:	05650204 	strbeq	r0, [r5, #-516]!	; 0xfffffdfc
    10c4:	04020010 	streq	r0, [r2], #-16
    10c8:	00010602 	andeq	r0, r1, r2, lsl #12
    10cc:	2e020402 	cdpcs	4, 0, cr0, cr2, cr2, {0}
    10d0:	32060505 	andcc	r0, r6, #20971520	; 0x1400000
    10d4:	13060105 	movwne	r0, #24837	; 0x6105
    10d8:	01000602 	tsteq	r0, r2, lsl #12
    10dc:	00061d01 	andeq	r1, r6, r1, lsl #26
    10e0:	17000300 	strne	r0, [r0, -r0, lsl #6]
    10e4:	02000001 	andeq	r0, r0, #1, 0
    10e8:	0d0efb01 	vstreq	d15, [lr, #-4]
    10ec:	01010100 	mrseq	r0, (UNDEF: 17)
    10f0:	00000001 	andeq	r0, r0, r1
    10f4:	01000001 	tsteq	r0, r1
    10f8:	696c2f2e 	stmdbvs	ip!, {r1, r2, r3, r5, r8, r9, sl, fp, sp}^
    10fc:	2f006362 	svccs	0x00006362
    1100:	2f727375 	svccs	0x00727375
    1104:	61636f6c 	cmnvs	r3, ip, ror #30
    1108:	65432f6c 	strbvs	r2, [r3, #-3948]	; 0xfffff094
    110c:	72616c6c 	rsbvc	r6, r1, #108, 24	; 0x6c00
    1110:	6d72612f 	ldfvse	f6, [r2, #-188]!	; 0xffffff44
    1114:	6e6f6e2d 	cdpvs	14, 6, cr6, cr15, cr13, {1}
    1118:	61652d65 	cmnvs	r5, r5, ror #26
    111c:	742d6962 	strtvc	r6, [sp], #-2402	; 0xfffff69e
    1120:	2f747365 	svccs	0x00747365
    1124:	30322d39 	eorscc	r2, r2, r9, lsr sp
    1128:	34713931 	ldrbtcc	r3, [r1], #-2353	; 0xfffff6cf
    112c:	3173632d 	cmncc	r3, sp, lsr #6
    1130:	2f653730 	svccs	0x00653730
    1134:	2f62696c 	svccs	0x0062696c
    1138:	2f636367 	svccs	0x00636367
    113c:	2d6d7261 	sfmcs	f7, 2, [sp, #-388]!	; 0xfffffe7c
    1140:	656e6f6e 	strbvs	r6, [lr, #-3950]!	; 0xfffff092
    1144:	6261652d 	rsbvs	r6, r1, #188743680	; 0xb400000
    1148:	2e392f69 	cdpcs	15, 3, cr2, cr9, cr9, {3}
    114c:	2f312e32 	svccs	0x00312e32
    1150:	6c636e69 	stclvs	14, cr6, [r3], #-420	; 0xfffffe5c
    1154:	00656475 	rsbeq	r6, r5, r5, ror r4
    1158:	6573552f 	ldrbvs	r5, [r3, #-1327]!	; 0xfffffad1
    115c:	742f7372 	strtvc	r7, [pc], #-882	; 1164 <__code_start__-0x6e9c>
    1160:	74736972 	ldrbtvc	r6, [r3], #-2418	; 0xfffff68e
    1164:	6f6e6e65 	svcvs	0x006e6e65
    1168:	616d6c6c 	cmnvs	sp, ip, ror #24
    116c:	6f442f6e 	svcvs	0x00442f6e
    1170:	656d7563 	strbvs	r7, [sp, #-1379]!	; 0xfffffa9d
    1174:	2f73746e 	svccs	0x0073746e
    1178:	69727053 	ldmdbvs	r2!, {r0, r1, r4, r6, ip, sp, lr}^
    117c:	515f676e 	cmppl	pc, lr, ror #14
    1180:	74726175 	ldrbtvc	r6, [r2], #-373	; 0xfffffe8b
    1184:	325f7265 	subscc	r7, pc, #1342177286	; 0x50000006
    1188:	2f323230 	svccs	0x00323230
    118c:	34325343 	ldrtcc	r5, [r2], #-835	; 0xfffffcbd
    1190:	2d584c30 	ldclcs	12, cr4, [r8, #-192]	; 0xffffff40
    1194:	32727073 	rsbscc	r7, r2, #115, 0	; 0x73
    1198:	696c2f32 	stmdbvs	ip!, {r1, r4, r5, r8, r9, sl, fp, sp}^
    119c:	2f697062 	svccs	0x00697062
    11a0:	6c636e69 	stclvs	14, cr6, [r3], #-420	; 0xfffffe5c
    11a4:	00656475 	rsbeq	r6, r5, r5, ror r4
    11a8:	2d617600 	stclcs	6, cr7, [r1, #-0]
    11ac:	6e697270 	mcrvs	2, 3, r7, cr9, cr0, {3}
    11b0:	632e6b74 			; <UNDEFINED> instruction: 0x632e6b74
    11b4:	00000100 	andeq	r0, r0, r0, lsl #2
    11b8:	69647473 	stmdbvs	r4!, {r0, r1, r4, r5, r6, sl, ip, sp, lr}^
    11bc:	672d746e 	strvs	r7, [sp, -lr, ror #8]!
    11c0:	682e6363 	stmdavs	lr!, {r0, r1, r5, r6, r8, r9, sp, lr}
    11c4:	00000200 	andeq	r0, r0, r0, lsl #4
    11c8:	2e697072 	mcrcs	0, 3, r7, cr9, cr2, {3}
    11cc:	00030068 	andeq	r0, r3, r8, rrx
    11d0:	69707200 	ldmdbvs	r0!, {r9, ip, sp, lr}^
    11d4:	746e692d 	strbtvc	r6, [lr], #-2349	; 0xfffff6d3
    11d8:	616e7265 	cmnvs	lr, r5, ror #4
    11dc:	00682e6c 	rsbeq	r2, r8, ip, ror #28
    11e0:	73000003 	movwvc	r0, #3
    11e4:	72616474 	rsbvc	r6, r1, #116, 8	; 0x74000000
    11e8:	00682e67 	rsbeq	r2, r8, r7, ror #28
    11ec:	3c000002 	stccc	0, cr0, [r0], {2}
    11f0:	6c697562 	cfstr64vs	mvdx7, [r9], #-392	; 0xfffffe78
    11f4:	6e692d74 	mcrvs	13, 3, r2, cr9, cr4, {3}
    11f8:	0000003e 	andeq	r0, r0, lr, lsr r0
    11fc:	1b050000 	blne	141204 <__bss_end__+0x13679c>
    1200:	08020500 	stmdaeq	r2, {r8, sl}
    1204:	0300008d 	movweq	r0, #141	; 0x8d
    1208:	1d050126 	stfnes	f0, [r5, #-152]	; 0xffffff68
    120c:	062d0501 	strteq	r0, [sp], -r1, lsl #10
    1210:	2e010501 	cfsh32cs	mvfx0, mvfx1, #1
    1214:	0633054a 	ldrteq	r0, [r3], -sl, asr #10
    1218:	13020551 	movwne	r0, #9553	; 0x2551
    121c:	01060605 	tsteq	r6, r5, lsl #12
    1220:	30060205 	andcc	r0, r6, r5, lsl #4
    1224:	02000805 	andeq	r0, r0, #327680	; 0x50000
    1228:	05010104 	streq	r0, [r1, #-260]	; 0xfffffefc
    122c:	04020002 	streq	r0, [r2], #-2
    1230:	05010601 	streq	r0, [r1, #-1537]	; 0xfffff9ff
    1234:	04020003 	streq	r0, [r2], #-3
    1238:	052f0602 	streq	r0, [pc, #-1538]!	; c3e <__code_start__-0x73c2>
    123c:	04020008 	streq	r0, [r2], #-8
    1240:	05010602 	streq	r0, [r1, #-1538]	; 0xfffff9fe
    1244:	04020015 	streq	r0, [r2], #-21	; 0xffffffeb
    1248:	05490602 	strbeq	r0, [r9, #-1538]	; 0xfffff9fe
    124c:	04020018 	streq	r0, [r2], #-24	; 0xffffffe8
    1250:	00010602 	andeq	r0, r1, r2, lsl #12
    1254:	2e020402 	cdpcs	4, 0, cr0, cr2, cr2, {0}
    1258:	30060205 	andcc	r0, r6, r5, lsl #4
    125c:	01060505 	tsteq	r6, r5, lsl #10
    1260:	4b060205 	blmi	181a7c <__bss_end__+0x177014>
    1264:	13060105 	movwne	r0, #24837	; 0x6105
    1268:	31063e05 	tstcc	r6, r5, lsl #28
    126c:	05140205 	ldreq	r0, [r4, #-517]	; 0xfffffdfb
    1270:	0501060e 	streq	r0, [r1, #-1550]	; 0xfffff9f2
    1274:	02052e06 	andeq	r2, r5, #96	; 0x60
    1278:	04052f06 	streq	r2, [r5], #-3846	; 0xfffff0fa
    127c:	03050106 	movweq	r0, #20742	; 0x5106
    1280:	11052f06 	tstne	r5, r6, lsl #30
    1284:	09050106 	stmdbeq	r5, {r1, r2, r8}
    1288:	0602052e 	streq	r0, [r2], -lr, lsr #10
    128c:	07051530 	smladxeq	r5, r0, r5, r1
    1290:	02050106 	andeq	r0, r5, #-2147483647	; 0x80000001
    1294:	000b052e 	andeq	r0, fp, lr, lsr #10
    1298:	06010402 	streq	r0, [r1], -r2, lsl #8
    129c:	0002052e 	andeq	r0, r2, lr, lsr #10
    12a0:	06010402 	streq	r0, [r1], -r2, lsl #8
    12a4:	00030501 	andeq	r0, r3, r1, lsl #10
    12a8:	06030402 	streq	r0, [r3], -r2, lsl #8
    12ac:	000c052f 	andeq	r0, ip, pc, lsr #10
    12b0:	06030402 	streq	r0, [r3], -r2, lsl #8
    12b4:	000a0501 	andeq	r0, sl, r1, lsl #10
    12b8:	2e030402 	cdpcs	4, 0, cr0, cr3, cr2, {0}
    12bc:	02001705 	andeq	r1, r0, #1310720	; 0x140000
    12c0:	2d060304 	stccs	3, cr0, [r6, #-16]
    12c4:	03040200 	movweq	r0, #16896	; 0x4200
    12c8:	02050106 	andeq	r0, r5, #-2147483647	; 0x80000001
    12cc:	09053006 	stmdbeq	r5, {r1, r2, ip, sp}
    12d0:	052e0106 	streq	r0, [lr, #-262]!	; 0xfffffefa
    12d4:	05300602 	ldreq	r0, [r0, #-1538]!	; 0xfffff9fe
    12d8:	05130601 	ldreq	r0, [r3, #-1537]	; 0xfffff9ff
    12dc:	06310649 	ldrteq	r0, [r1], -r9, asr #12
    12e0:	06020501 	streq	r0, [r2], -r1, lsl #10
    12e4:	060405a0 	streq	r0, [r4], -r0, lsr #11
    12e8:	06030501 	streq	r0, [r3], -r1, lsl #10
    12ec:	0609052f 	streq	r0, [r9], -pc, lsr #10
    12f0:	06020501 	streq	r0, [r2], -r1, lsl #10
    12f4:	0b051330 	bleq	145fbc <__bss_end__+0x13b554>
    12f8:	02050106 	andeq	r0, r5, #-2147483647	; 0x80000001
    12fc:	2e063006 	cdpcs	0, 0, cr3, cr6, cr6, {0}
    1300:	02060405 	andeq	r0, r6, #83886080	; 0x5000000
    1304:	05131524 	ldreq	r1, [r3, #-1316]	; 0xfffffadc
    1308:	2e01060f 	cfmadd32cs	mvax0, mvfx0, mvfx1, mvfx15
    130c:	054a0605 	strbeq	r0, [sl, #-1541]	; 0xfffff9fb
    1310:	134b0605 	movtne	r0, #46597	; 0xb605
    1314:	01060905 	tsteq	r6, r5, lsl #18
    1318:	2f060505 	svccs	0x00060505
    131c:	10060b05 	andne	r0, r6, r5, lsl #22
    1320:	02000d05 	andeq	r0, r0, #320	; 0x140
    1324:	052c0104 	streq	r0, [ip, #-260]!	; 0xfffffefc
    1328:	04020004 	streq	r0, [r2], #-4
    132c:	05340601 	ldreq	r0, [r4, #-1537]!	; 0xfffff9ff
    1330:	04020005 	streq	r0, [r2], #-5
    1334:	1b051301 	blne	145f40 <__bss_end__+0x13b4d8>
    1338:	01040200 	mrseq	r0, R12_usr
    133c:	07050106 	streq	r0, [r5, -r6, lsl #2]
    1340:	01040200 	mrseq	r0, R12_usr
    1344:	001805d6 			; <UNDEFINED> instruction: 0x001805d6
    1348:	2e010402 	cdpcs	4, 0, cr0, cr1, cr2, {0}
    134c:	02000a05 	andeq	r0, r0, #20480	; 0x5000
    1350:	054a0104 	strbeq	r0, [sl, #-260]	; 0xfffffefc
    1354:	0402000b 	streq	r0, [r2], #-11
    1358:	052f0601 	streq	r0, [pc, #-1537]!	; d5f <__code_start__-0x72a1>
    135c:	0402000e 	streq	r0, [r2], #-14
    1360:	052e0601 	streq	r0, [lr, #-1537]!	; 0xfffff9ff
    1364:	04020004 	streq	r0, [r2], #-4
    1368:	4b062e01 	blmi	18cb74 <__bss_end__+0x18210c>
    136c:	01060605 	tsteq	r6, r5, lsl #12
    1370:	2f060505 	svccs	0x00060505
    1374:	01060a05 	tsteq	r6, r5, lsl #20
    1378:	2e4a0705 	cdpcs	7, 4, cr0, cr10, cr5, {0}
    137c:	76030d05 	strvc	r0, [r3], -r5, lsl #26
    1380:	0b054a2e 	bleq	153c40 <__bss_end__+0x1491d8>
    1384:	000d050d 	andeq	r0, sp, sp, lsl #10
    1388:	06010402 	streq	r0, [r1], -r2, lsl #8
    138c:	052e1403 	streq	r1, [lr, #-1027]!	; 0xfffffbfd
    1390:	04020011 	streq	r0, [r2], #-17	; 0xffffffef
    1394:	2d051301 	stccs	3, cr1, [r5, #-4]
    1398:	01040200 	mrseq	r0, R12_usr
    139c:	2a050106 	bcs	1417bc <__bss_end__+0x136d54>
    13a0:	01040200 	mrseq	r0, R12_usr
    13a4:	0016052e 	andseq	r0, r6, lr, lsr #10
    13a8:	4a010402 	bmi	423b8 <__bss_end__+0x37950>
    13ac:	02001405 	andeq	r1, r0, #83886080	; 0x5000000
    13b0:	4b060104 	blmi	1817c8 <__bss_end__+0x176d60>
    13b4:	02000d05 	andeq	r0, r0, #320	; 0x140
    13b8:	01060104 	tsteq	r6, r4, lsl #2
    13bc:	01040200 	mrseq	r0, R12_usr
    13c0:	052f064a 	streq	r0, [pc, #-1610]!	; d7e <__code_start__-0x7282>
    13c4:	4a010612 	bmi	42c14 <__bss_end__+0x381ac>
    13c8:	2f060d05 	svccs	0x00060d05
    13cc:	01061205 	tsteq	r6, r5, lsl #4
    13d0:	4b061905 	blmi	1877ec <__bss_end__+0x17cd84>
    13d4:	02000405 	andeq	r0, r0, #83886080	; 0x5000000
    13d8:	11030204 	tstne	r3, r4, lsl #4
    13dc:	04020001 	streq	r0, [r2], #-1
    13e0:	02050102 	andeq	r0, r5, #-2147483648	; 0x80000000
    13e4:	02040200 	andeq	r0, r4, #0, 4
    13e8:	00090515 	andeq	r0, r9, r5, lsl r5
    13ec:	06020402 	streq	r0, [r2], -r2, lsl #8
    13f0:	04020001 	streq	r0, [r2], #-1
    13f4:	01054a02 	tsteq	r5, r2, lsl #20
    13f8:	02040200 	andeq	r0, r4, #0, 4
    13fc:	0604059f 			; <UNDEFINED> instruction: 0x0604059f
    1400:	054a6e03 	strbeq	r6, [sl, #-3587]	; 0xfffff1fd
    1404:	05010609 	streq	r0, [r1, #-1545]	; 0xfffff9f7
    1408:	052f0604 	streq	r0, [pc, #-1540]!	; e0c <__code_start__-0x71f4>
    140c:	05110606 	ldreq	r0, [r1, #-1542]	; 0xfffff9fa
    1410:	0b052f04 	bleq	14d028 <__bss_end__+0x1425c0>
    1414:	052e6303 	streq	r6, [lr, #-771]!	; 0xfffffcfd
    1418:	04020019 	streq	r0, [r2], #-25	; 0xffffffe7
    141c:	24030601 	strcs	r0, [r3], #-1537	; 0xfffff9ff
    1420:	001a052e 	andseq	r0, sl, lr, lsr #10
    1424:	13010402 	movwne	r0, #5122	; 0x1402
    1428:	02002805 	andeq	r2, r0, #327680	; 0x50000
    142c:	01060104 	tsteq	r6, r4, lsl #2
    1430:	02002505 	andeq	r2, r0, #20971520	; 0x1400000
    1434:	052e0104 	streq	r0, [lr, #-260]!	; 0xfffffefc
    1438:	0402001f 	streq	r0, [r2], #-31	; 0xffffffe1
    143c:	0b054a01 	bleq	153c48 <__bss_end__+0x1491e0>
    1440:	01040200 	mrseq	r0, R12_usr
    1444:	04054b06 	streq	r4, [r5], #-2822	; 0xfffff4fa
    1448:	01040200 	mrseq	r0, R12_usr
    144c:	02000106 	andeq	r0, r0, #-2147483647	; 0x80000001
    1450:	004a0104 	subeq	r0, sl, r4, lsl #2
    1454:	06010402 	streq	r0, [r1], -r2, lsl #8
    1458:	0402004e 	streq	r0, [r2], #-78	; 0xffffffb2
    145c:	02000101 	andeq	r0, r0, #1073741824	; 0x40000000
    1460:	00010104 	andeq	r0, r1, r4, lsl #2
    1464:	01010402 	tsteq	r1, r2, lsl #8
    1468:	01040200 	mrseq	r0, R12_usr
    146c:	02002e06 	andeq	r2, r0, #96	; 0x60
    1470:	00660104 	rsbeq	r0, r6, r4, lsl #2
    1474:	2e010402 	cdpcs	4, 0, cr0, cr1, cr2, {0}
    1478:	01040200 	mrseq	r0, R12_usr
    147c:	48054a06 	stmdami	r5, {r1, r2, r9, fp, lr}
    1480:	087fa603 	ldmdaeq	pc!, {r0, r1, r9, sl, sp, pc}^	; <UNPREDICTABLE>
    1484:	13050520 	movwne	r0, #21792	; 0x5520
    1488:	002e0601 	eoreq	r0, lr, r1, lsl #12
    148c:	06020402 	streq	r0, [r2], -r2, lsl #8
    1490:	0402002e 	streq	r0, [r2], #-46	; 0xffffffd2
    1494:	02000102 	andeq	r0, r0, #-2147483648	; 0x80000000
    1498:	05130204 	ldreq	r0, [r3, #-516]	; 0xfffffdfc
    149c:	04020011 	streq	r0, [r2], #-17	; 0xffffffef
    14a0:	05010602 	streq	r0, [r1, #-1538]	; 0xfffff9fe
    14a4:	04020005 	streq	r0, [r2], #-5
    14a8:	054b0602 	strbeq	r0, [fp, #-1538]	; 0xfffff9fe
    14ac:	04020007 	streq	r0, [r2], #-7
    14b0:	05010602 	streq	r0, [r1, #-1538]	; 0xfffff9fe
    14b4:	054b0609 	strbeq	r0, [fp, #-1545]	; 0xfffff9f7
    14b8:	0501060e 	streq	r0, [r1, #-1550]	; 0xfffff9f2
    14bc:	04020048 	streq	r0, [r2], #-72	; 0xffffffb8
    14c0:	05056201 	streq	r6, [r5, #-513]	; 0xfffffdff
    14c4:	01040200 	mrseq	r0, R12_usr
    14c8:	02004b06 	andeq	r4, r0, #6144	; 0x1800
    14cc:	00010104 	andeq	r0, r1, r4, lsl #2
    14d0:	06010402 	streq	r0, [r1], -r2, lsl #8
    14d4:	0402009e 	streq	r0, [r2], #-158	; 0xffffff62
    14d8:	02002e01 	andeq	r2, r0, #1, 28
    14dc:	2e060104 	adfcss	f0, f6, f4
    14e0:	e1034005 	tst	r3, r5
    14e4:	0106d600 	tsteq	r6, r0, lsl #12
    14e8:	9f060205 	svcls	0x00060205
    14ec:	01061e05 	tsteq	r6, r5, lsl #28
    14f0:	052e1205 	streq	r1, [lr, #-517]!	; 0xfffffdfb
    14f4:	052f0605 	streq	r0, [pc, #-1541]!	; ef7 <__code_start__-0x7109>
    14f8:	09051402 	stmdbeq	r5, {r1, sl, ip}
    14fc:	05050106 	streq	r0, [r5, #-262]	; 0xfffffefa
    1500:	02054b06 	andeq	r4, r5, #6144	; 0x1800
    1504:	06080513 			; <UNDEFINED> instruction: 0x06080513
    1508:	3302050d 	movwcc	r0, #9485	; 0x250d
    150c:	4c060405 	cfstrsmi	mvf0, [r6], {5}
    1510:	01060f05 	tsteq	r6, r5, lsl #30
    1514:	052e0905 	streq	r0, [lr, #-2309]!	; 0xfffff6fb
    1518:	052c0608 	streq	r0, [ip, #-1544]!	; 0xfffff9f8
    151c:	052e0602 	streq	r0, [lr, #-1538]!	; 0xfffff9fe
    1520:	0402000d 	streq	r0, [r2], #-13
    1524:	03054a01 	movweq	r4, #23041	; 0x5a01
    1528:	05054b06 	streq	r4, [r5, #-2822]	; 0xfffff4fa
    152c:	08050106 	stmdaeq	r5, {r1, r2, r8}
    1530:	0e054d06 	cdpeq	13, 0, cr4, cr5, cr6, {0}
    1534:	0a050106 	beq	141954 <__bss_end__+0x136eec>
    1538:	0604052e 	streq	r0, [r4], -lr, lsr #10
    153c:	0609052f 	streq	r0, [r9], -pc, lsr #10
    1540:	06040501 	streq	r0, [r4], -r1, lsl #10
    1544:	0607052f 	streq	r0, [r7], -pc, lsr #10
    1548:	04052e01 	streq	r2, [r5], #-3585	; 0xfffff1ff
    154c:	07053006 	streq	r3, [r5, -r6]
    1550:	04050106 	streq	r0, [r5], #-262	; 0xfffffefa
    1554:	14133006 	ldrne	r3, [r3], #-6
    1558:	10060d05 	andne	r0, r6, r5, lsl #26
    155c:	30060905 	andcc	r0, r6, r5, lsl #18
    1560:	01061205 	tsteq	r6, r5, lsl #4
    1564:	052e0a05 	streq	r0, [lr, #-2565]!	; 0xfffff5fb
    1568:	05056609 	streq	r6, [r5, #-1545]	; 0xfffff9f7
    156c:	12054b06 	andne	r4, r5, #6144	; 0x1800
    1570:	16050106 	strne	r0, [r5], -r6, lsl #2
    1574:	2e0b052e 	cfsh32cs	mvfx0, mvfx11, #30
    1578:	2f060505 	svccs	0x00060505
    157c:	01060805 	tsteq	r6, r5, lsl #16
    1580:	0604052e 	streq	r0, [r4], -lr, lsr #10
    1584:	014a0130 	cmpeq	sl, r0, lsr r1
    1588:	04020015 	streq	r0, [r2], #-21	; 0xffffffeb
    158c:	0f360201 	svceq	0x00360201
    1590:	01040200 	mrseq	r0, R12_usr
    1594:	04020001 	streq	r0, [r2], #-1
    1598:	1105d601 	tstne	r5, r1, lsl #12
    159c:	00011334 	andeq	r1, r1, r4, lsr r3
    15a0:	06020402 	streq	r0, [r2], -r2, lsl #8
    15a4:	040200ba 	streq	r0, [r2], #-186	; 0xffffff46
    15a8:	00ba0603 	adcseq	r0, sl, r3, lsl #12
    15ac:	01030402 	tsteq	r3, r2, lsl #8
    15b0:	03040200 	movweq	r0, #16896	; 0x4200
    15b4:	00150514 	andseq	r0, r5, r4, lsl r5
    15b8:	06030402 	streq	r0, [r3], -r2, lsl #8
    15bc:	00110501 	andseq	r0, r1, r1, lsl #10
    15c0:	06030402 	streq	r0, [r3], -r2, lsl #8
    15c4:	001a052f 	andseq	r0, sl, pc, lsr #10
    15c8:	06030402 	streq	r0, [r3], -r2, lsl #8
    15cc:	00110501 	andseq	r0, r1, r1, lsl #10
    15d0:	06030402 	streq	r0, [r3], -r2, lsl #8
    15d4:	040200d7 	streq	r0, [r2], #-215	; 0xffffff29
    15d8:	02001303 	andeq	r1, r0, #201326592	; 0xc000000
    15dc:	00140304 	andseq	r0, r4, r4, lsl #6
    15e0:	67030402 	strvs	r0, [r3, -r2, lsl #8]
    15e4:	03040200 	movweq	r0, #16896	; 0x4200
    15e8:	00140568 	andseq	r0, r4, r8, ror #10
    15ec:	06030402 	streq	r0, [r3], -r2, lsl #8
    15f0:	00130501 	andseq	r0, r3, r1, lsl #10
    15f4:	82030402 	andhi	r0, r3, #33554432	; 0x2000000
    15f8:	4e061805 	cdpmi	8, 0, cr1, cr6, cr5, {0}
    15fc:	01061b05 	tsteq	r6, r5, lsl #22
    1600:	05821a05 	streq	r1, [r2, #2565]	; 0xa05
    1604:	054b0609 	strbeq	r0, [fp, #-1545]	; 0xfffff9f7
    1608:	2e01060d 	cfmadd32cs	mvax0, mvfx0, mvfx1, mvfx13
    160c:	f3060905 	vmls.i8	d0, d6, d5
    1610:	1505ba06 	strne	fp, [r5, #-2566]	; 0xfffff5fa
    1614:	18053006 	stmdane	r5, {r1, r2, ip, sp}
    1618:	17050106 	strne	r0, [r5, -r6, lsl #2]
    161c:	06190566 	ldreq	r0, [r9], -r6, ror #10
    1620:	0615054b 	ldreq	r0, [r5], -fp, asr #10
    1624:	05666f03 	strbeq	r6, [r6, #-3843]!	; 0xfffff0fd
    1628:	01480611 	cmpeq	r8, r1, lsl r6
    162c:	030905d6 	movweq	r0, #38358	; 0x95d6
    1630:	0d052e0b 	stceq	14, cr2, [r5, #-44]	; 0xffffffd4
    1634:	052e0106 	streq	r0, [lr, #-262]!	; 0xfffffefa
    1638:	06f30609 	ldrbteq	r0, [r3], r9, lsl #12
    163c:	061505ba 			; <UNDEFINED> instruction: 0x061505ba
    1640:	7503062f 	strvc	r0, [r3, #-1583]	; 0xfffff9d1
    1644:	06190566 	ldreq	r0, [r9], -r6, ror #10
    1648:	054a1303 	strbeq	r1, [sl, #-771]	; 0xfffffcfd
    164c:	6d030615 	stcvs	6, cr0, [r3, #-84]	; 0xffffffac
    1650:	15030666 	strne	r0, [r3, #-1638]	; 0xfffff99a
    1654:	06ba014a 	ldrteq	r0, [sl], sl, asr #2
    1658:	0605052e 	streq	r0, [r5], -lr, lsr #10
    165c:	2e9e011a 	mrccs	1, 4, r0, cr14, cr10, {0}
    1660:	05010e03 	streq	r0, [r1, #-3587]	; 0xfffff1fd
    1664:	05010609 	streq	r0, [r1, #-1545]	; 0xfffff9f7
    1668:	75080605 	strvc	r0, [r8, #-1541]	; 0xfffff9fb
    166c:	18030405 	stmdane	r3, {r0, r2, sl}
    1670:	06070501 	streq	r0, [r7], -r1, lsl #10
    1674:	06040501 	streq	r0, [r4], -r1, lsl #10
    1678:	03050531 	movweq	r0, #21809	; 0x5531
    167c:	1c052e67 	stcne	14, cr2, [r5], {103}	; 0x67
    1680:	09050106 	stmdbeq	r5, {r1, r2, r8}
    1684:	06050582 	streq	r0, [r5], -r2, lsl #11
    1688:	1c0531f3 	stfnes	f3, [r5], {243}	; 0xf3
    168c:	09050106 	stmdbeq	r5, {r1, r2, r8}
    1690:	06050582 	streq	r0, [r5], -r2, lsl #11
    1694:	1b0530f3 	blne	14da68 <__bss_end__+0x143000>
    1698:	09050106 	stmdbeq	r5, {r1, r2, r8}
    169c:	06050582 	streq	r0, [r5], -r2, lsl #11
    16a0:	070530f3 			; <UNDEFINED> instruction: 0x070530f3
    16a4:	05050106 	streq	r0, [r5, #-262]	; 0xfffffefa
    16a8:	05308306 	ldreq	r8, [r0, #-774]!	; 0xfffffcfa
    16ac:	05010609 	streq	r0, [r1, #-1545]	; 0xfffff9f7
    16b0:	75080605 	strvc	r0, [r8, #-1541]	; 0xfffff9fb
    16b4:	05301105 	ldreq	r1, [r0, #-261]!	; 0xfffffefb
    16b8:	05010622 	streq	r0, [r1, #-1570]	; 0xfffff9de
    16bc:	054b0605 	strbeq	r0, [fp, #-1541]	; 0xfffff9fb
    16c0:	05058311 	streq	r8, [r5, #-785]	; 0xfffffcef
    16c4:	359e0183 	ldrcc	r0, [lr, #387]	; 0x183
    16c8:	01060e05 	tsteq	r6, r5, lsl #28
    16cc:	062e0a05 	strteq	r0, [lr], -r5, lsl #20
    16d0:	0604052d 	streq	r0, [r4], -sp, lsr #10
    16d4:	00130501 	andseq	r0, r3, r1, lsl #10
    16d8:	4a010402 	bmi	426e8 <__bss_end__+0x37c80>
    16dc:	02001005 	andeq	r1, r0, #5, 0
    16e0:	002e0104 	eoreq	r0, lr, r4, lsl #2
    16e4:	66010402 	strvs	r0, [r1], -r2, lsl #8
    16e8:	16060205 	strne	r0, [r6], -r5, lsl #4
    16ec:	01060705 	tsteq	r6, r5, lsl #14
    16f0:	4b060205 	blmi	181f0c <__bss_end__+0x1774a4>
    16f4:	13060105 	movwne	r0, #24837	; 0x6105
    16f8:	001e0266 	andseq	r0, lr, r6, ror #4
    16fc:	00a50101 	adceq	r0, r5, r1, lsl #2
    1700:	00030000 	andeq	r0, r3, r0
    1704:	0000008a 	andeq	r0, r0, sl, lsl #1
    1708:	0efb0102 	cdpeq	1, 15, cr0, cr11, cr2, {0}
    170c:	0101000d 	tsteq	r1, sp
    1710:	00000101 	andeq	r0, r0, r1, lsl #2
    1714:	00000100 	andeq	r0, r0, r0, lsl #2
    1718:	732f2e01 			; <UNDEFINED> instruction: 0x732f2e01
    171c:	66666174 			; <UNDEFINED> instruction: 0x66666174
    1720:	6372732d 	cmnvs	r2, #-1275068416	; 0xb4000000
    1724:	73552f00 	cmpvc	r5, #0, 30
    1728:	2f737265 	svccs	0x00737265
    172c:	73697274 	cmnvc	r9, #116, 4	; 0x40000007
    1730:	6e6e6574 	mcrvs	5, 3, r6, cr14, cr4, {3}
    1734:	6d6c6c6f 	stclvs	12, cr6, [ip, #-444]!	; 0xfffffe44
    1738:	442f6e61 	strtmi	r6, [pc], #-3681	; 1740 <__code_start__-0x68c0>
    173c:	6d75636f 	ldclvs	3, cr6, [r5, #-444]!	; 0xfffffe44
    1740:	73746e65 	cmnvc	r4, #1616	; 0x650
    1744:	7270532f 	rsbsvc	r5, r0, #-1140850688	; 0xbc000000
    1748:	5f676e69 	svcpl	0x00676e69
    174c:	72617551 	rsbvc	r7, r1, #339738624	; 0x14400000
    1750:	5f726574 	svcpl	0x00726574
    1754:	32323032 	eorscc	r3, r2, #50, 0	; 0x32
    1758:	3253432f 	subscc	r4, r3, #-1140850688	; 0xbc000000
    175c:	584c3034 	stmdapl	ip, {r2, r4, r5, ip, sp}^
    1760:	7270732d 	rsbsvc	r7, r0, #-1275068416	; 0xb4000000
    1764:	6c2f3232 	sfmvs	f3, 4, [pc], #-200	; 16a4 <__code_start__-0x695c>
    1768:	69706269 	ldmdbvs	r0!, {r0, r3, r5, r6, r9, sp, lr}^
    176c:	636e692f 	cmnvs	lr, #770048	; 0xbc000
    1770:	6564756c 	strbvs	r7, [r4, #-1388]!	; 0xfffffa94
    1774:	6c630000 	stclvs	0, cr0, [r3], #-0
    1778:	2d6e6165 	stfcse	f6, [lr, #-404]!	; 0xfffffe6c
    177c:	6f626572 	svcvs	0x00626572
    1780:	632e746f 			; <UNDEFINED> instruction: 0x632e746f
    1784:	00000100 	andeq	r0, r0, r0, lsl #2
    1788:	2e697072 	mcrcs	0, 3, r7, cr9, cr2, {3}
    178c:	00020068 	andeq	r0, r2, r8, rrx
    1790:	19050000 	stmdbne	r5, {}	; <UNPREDICTABLE>
    1794:	48020500 	stmdami	r2, {r8, sl}
    1798:	15000094 	strne	r0, [r0, #-148]	; 0xffffff6c
    179c:	832f0505 			; <UNDEFINED> instruction: 0x832f0505
    17a0:	06024b2f 	streq	r4, [r2], -pc, lsr #22
    17a4:	bf010100 	svclt	0x00010100
    17a8:	03000000 	movweq	r0, #0
    17ac:	00008400 	andeq	r8, r0, r0, lsl #8
    17b0:	fb010200 	blx	41fba <__bss_end__+0x37552>
    17b4:	01000d0e 	tsteq	r0, lr, lsl #26
    17b8:	00010101 	andeq	r0, r1, r1, lsl #2
    17bc:	00010000 	andeq	r0, r1, r0
    17c0:	2f2e0100 	svccs	0x002e0100
    17c4:	66617473 			; <UNDEFINED> instruction: 0x66617473
    17c8:	72732d66 	rsbsvc	r2, r3, #6528	; 0x1980
    17cc:	552f0063 	strpl	r0, [pc, #-99]!	; 1771 <__code_start__-0x688f>
    17d0:	73726573 	cmnvc	r2, #482344960	; 0x1cc00000
    17d4:	6972742f 	ldmdbvs	r2!, {r0, r1, r2, r3, r5, sl, ip, sp, lr}^
    17d8:	6e657473 	mcrvs	4, 3, r7, cr5, cr3, {3}
    17dc:	6c6c6f6e 	stclvs	15, cr6, [ip], #-440	; 0xfffffe48
    17e0:	2f6e616d 	svccs	0x006e616d
    17e4:	75636f44 	strbvc	r6, [r3, #-3908]!	; 0xfffff0bc
    17e8:	746e656d 	strbtvc	r6, [lr], #-1389	; 0xfffffa93
    17ec:	70532f73 	subsvc	r2, r3, r3, ror pc
    17f0:	676e6972 			; <UNDEFINED> instruction: 0x676e6972
    17f4:	6175515f 	cmnvs	r5, pc, asr r1
    17f8:	72657472 	rsbvc	r7, r5, #1912602624	; 0x72000000
    17fc:	3230325f 	eorscc	r3, r0, #-268435451	; 0xf0000005
    1800:	53432f32 	movtpl	r2, #16178	; 0x3f32
    1804:	4c303432 	cfldrsmi	mvf3, [r0], #-200	; 0xffffff38
    1808:	70732d58 	rsbsvc	r2, r3, r8, asr sp
    180c:	2f323272 	svccs	0x00323272
    1810:	7062696c 	rsbvc	r6, r2, ip, ror #18
    1814:	6e692f69 	cdpvs	15, 6, cr2, cr9, cr9, {3}
    1818:	64756c63 	ldrbtvs	r6, [r5], #-3171	; 0xfffff39d
    181c:	63000065 	movwvs	r0, #101	; 0x65
    1820:	72617473 	rsbvc	r7, r1, #1929379840	; 0x73000000
    1824:	00632e74 	rsbeq	r2, r3, r4, ror lr
    1828:	72000001 	andvc	r0, r0, #1, 0
    182c:	682e6970 	stmdavs	lr!, {r4, r5, r6, r8, fp, sp, lr}
    1830:	00000200 	andeq	r0, r0, r0, lsl #4
    1834:	00100500 	andseq	r0, r0, r0, lsl #10
    1838:	94740205 	ldrbtls	r0, [r4], #-517	; 0xfffffdfb
    183c:	05150000 	ldreq	r0, [r5, #-0]
    1840:	02052f05 	andeq	r2, r5, #5, 30
    1844:	14050513 	strne	r0, [r5], #-1299	; 0xfffffaed
    1848:	05141330 	ldreq	r1, [r4, #-816]	; 0xfffffcd0
    184c:	060f060a 	streq	r0, [pc], -sl, lsl #12
    1850:	4b090531 	blmi	242d1c <__bss_end__+0x2382b4>
    1854:	01061005 	tsteq	r6, r5
    1858:	0605054a 	streq	r0, [r5], -sl, asr #10
    185c:	01013230 	tsteq	r1, r0, lsr r2
    1860:	0205144a 	andeq	r1, r5, #1241513984	; 0x4a000000
    1864:	0006022f 	andeq	r0, r6, pc, lsr #4
    1868:	00a30101 	adceq	r0, r3, r1, lsl #2
    186c:	00030000 	andeq	r0, r3, r0
    1870:	0000008b 	andeq	r0, r0, fp, lsl #1
    1874:	0efb0102 	cdpeq	1, 15, cr0, cr11, cr2, {0}
    1878:	0101000d 	tsteq	r1, sp
    187c:	00000101 	andeq	r0, r0, r1, lsl #2
    1880:	00000100 	andeq	r0, r0, r0, lsl #2
    1884:	732f2e01 			; <UNDEFINED> instruction: 0x732f2e01
    1888:	66666174 			; <UNDEFINED> instruction: 0x66666174
    188c:	6372732d 	cmnvs	r2, #-1275068416	; 0xb4000000
    1890:	73552f00 	cmpvc	r5, #0, 30
    1894:	2f737265 	svccs	0x00737265
    1898:	73697274 	cmnvc	r9, #116, 4	; 0x40000007
    189c:	6e6e6574 	mcrvs	5, 3, r6, cr14, cr4, {3}
    18a0:	6d6c6c6f 	stclvs	12, cr6, [ip, #-444]!	; 0xfffffe44
    18a4:	442f6e61 	strtmi	r6, [pc], #-3681	; 18ac <__code_start__-0x6754>
    18a8:	6d75636f 	ldclvs	3, cr6, [r5, #-444]!	; 0xfffffe44
    18ac:	73746e65 	cmnvc	r4, #1616	; 0x650
    18b0:	7270532f 	rsbsvc	r5, r0, #-1140850688	; 0xbc000000
    18b4:	5f676e69 	svcpl	0x00676e69
    18b8:	72617551 	rsbvc	r7, r1, #339738624	; 0x14400000
    18bc:	5f726574 	svcpl	0x00726574
    18c0:	32323032 	eorscc	r3, r2, #50, 0	; 0x32
    18c4:	3253432f 	subscc	r4, r3, #-1140850688	; 0xbc000000
    18c8:	584c3034 	stmdapl	ip, {r2, r4, r5, ip, sp}^
    18cc:	7270732d 	rsbsvc	r7, r0, #-1275068416	; 0xb4000000
    18d0:	6c2f3232 	sfmvs	f3, 4, [pc], #-200	; 1810 <__code_start__-0x67f0>
    18d4:	69706269 	ldmdbvs	r0!, {r0, r3, r5, r6, r9, sp, lr}^
    18d8:	636e692f 	cmnvs	lr, #770048	; 0xbc000
    18dc:	6564756c 	strbvs	r7, [r4, #-1388]!	; 0xfffffa94
    18e0:	75630000 	strbvc	r0, [r3, #-0]!
    18e4:	6d6f7473 	cfstrdvs	mvd7, [pc, #-460]!	; 1720 <__code_start__-0x68e0>
    18e8:	616f6c2d 	cmnvs	pc, sp, lsr #24
    18ec:	2e726564 	cdpcs	5, 7, cr6, cr2, cr4, {3}
    18f0:	00010063 	andeq	r0, r1, r3, rrx
    18f4:	69707200 	ldmdbvs	r0!, {r9, ip, sp, lr}^
    18f8:	0200682e 	andeq	r6, r0, #3014656	; 0x2e0000
    18fc:	05000000 	streq	r0, [r0, #-0]
    1900:	0205001a 	andeq	r0, r5, #26, 0
    1904:	000094b0 			; <UNDEFINED> instruction: 0x000094b0
    1908:	14010515 	strne	r0, [r1], #-1301	; 0xfffffaeb
    190c:	01000202 	tsteq	r0, r2, lsl #4
    1910:	0000f301 	andeq	pc, r0, r1, lsl #6
    1914:	84000300 	strhi	r0, [r0], #-768	; 0xfffffd00
    1918:	02000000 	andeq	r0, r0, #0, 0
    191c:	0d0efb01 	vstreq	d15, [lr, #-4]
    1920:	01010100 	mrseq	r0, (UNDEF: 17)
    1924:	00000001 	andeq	r0, r0, r1
    1928:	01000001 	tsteq	r0, r1
    192c:	74732f2e 	ldrbtvc	r2, [r3], #-3886	; 0xfffff0d2
    1930:	2d666661 	stclcs	6, cr6, [r6, #-388]!	; 0xfffffe7c
    1934:	00637273 	rsbeq	r7, r3, r3, ror r2
    1938:	6573552f 	ldrbvs	r5, [r3, #-1327]!	; 0xfffffad1
    193c:	742f7372 	strtvc	r7, [pc], #-882	; 1944 <__code_start__-0x66bc>
    1940:	74736972 	ldrbtvc	r6, [r3], #-2418	; 0xfffff68e
    1944:	6f6e6e65 	svcvs	0x006e6e65
    1948:	616d6c6c 	cmnvs	sp, ip, ror #24
    194c:	6f442f6e 	svcvs	0x00442f6e
    1950:	656d7563 	strbvs	r7, [sp, #-1379]!	; 0xfffffa9d
    1954:	2f73746e 	svccs	0x0073746e
    1958:	69727053 	ldmdbvs	r2!, {r0, r1, r4, r6, ip, sp, lr}^
    195c:	515f676e 	cmppl	pc, lr, ror #14
    1960:	74726175 	ldrbtvc	r6, [r2], #-373	; 0xfffffe8b
    1964:	325f7265 	subscc	r7, pc, #1342177286	; 0x50000006
    1968:	2f323230 	svccs	0x00323230
    196c:	34325343 	ldrtcc	r5, [r2], #-835	; 0xfffffcbd
    1970:	2d584c30 	ldclcs	12, cr4, [r8, #-192]	; 0xffffff40
    1974:	32727073 	rsbscc	r7, r2, #115, 0	; 0x73
    1978:	696c2f32 	stmdbvs	ip!, {r1, r4, r5, r8, r9, sl, fp, sp}^
    197c:	2f697062 	svccs	0x00697062
    1980:	6c636e69 	stclvs	14, cr6, [r3], #-420	; 0xfffffe5c
    1984:	00656475 	rsbeq	r6, r5, r5, ror r4
    1988:	62657200 	rsbvs	r7, r5, #0, 4
    198c:	2e746f6f 	cdpcs	15, 7, cr6, cr4, cr15, {3}
    1990:	00010063 	andeq	r0, r1, r3, rrx
    1994:	69707200 	ldmdbvs	r0!, {r9, ip, sp, lr}^
    1998:	0200682e 	andeq	r6, r0, #3014656	; 0x2e0000
    199c:	05000000 	streq	r0, [r0, #-0]
    19a0:	02050019 	andeq	r0, r5, #25, 0
    19a4:	000094b4 			; <UNDEFINED> instruction: 0x000094b4
    19a8:	05010d03 	streq	r0, [r1, #-3331]	; 0xfffff2fd
    19ac:	31131305 	tstcc	r3, r5, lsl #6
    19b0:	01061305 	tsteq	r6, r5, lsl #6
    19b4:	052f0105 	streq	r0, [pc, #-261]!	; 18b7 <__code_start__-0x6749>
    19b8:	0585061b 	streq	r0, [r5, #1563]	; 0x61b
    19bc:	05141305 	ldreq	r1, [r4, #-773]	; 0xfffffcfb
    19c0:	16052f09 	strne	r2, [r5], -r9, lsl #30
    19c4:	0e050106 	adfeqs	f0, f5, f6
    19c8:	0605052e 	streq	r0, [r5], -lr, lsr #10
    19cc:	0601052f 	streq	r0, [r1], -pc, lsr #10
    19d0:	0617052f 	ldreq	r0, [r7], -pc, lsr #10
    19d4:	2f050530 	svccs	0x00050530
    19d8:	01060805 	tsteq	r6, r5, lsl #16
    19dc:	052e0705 	streq	r0, [lr, #-1797]!	; 0xfffff8fb
    19e0:	30500605 	subscc	r0, r0, r5, lsl #12
    19e4:	13134d2f 	tstne	r3, #3008	; 0xbc0
    19e8:	00671513 	rsbeq	r1, r7, r3, lsl r5
    19ec:	67010402 	strvs	r0, [r1, -r2, lsl #8]
    19f0:	02000d05 	andeq	r0, r0, #320	; 0x140
    19f4:	05010104 	streq	r0, [r1, #-260]	; 0xfffffefc
    19f8:	0402000a 	streq	r0, [r2], #-10
    19fc:	09050101 	stmdbeq	r5, {r0, r8}
    1a00:	022e6d03 	eoreq	r6, lr, #192	; 0xc0
    1a04:	0101000c 	tsteq	r1, ip
    1a08:	000000fa 	strdeq	r0, [r0], -sl
    1a0c:	00830003 	addeq	r0, r3, r3
    1a10:	01020000 	mrseq	r0, (UNDEF: 2)
    1a14:	000d0efb 	strdeq	r0, [sp], -fp
    1a18:	01010101 	tsteq	r1, r1, lsl #2
    1a1c:	01000000 	mrseq	r0, (UNDEF: 0)
    1a20:	2e010000 	cdpcs	0, 0, cr0, cr1, cr0, {0}
    1a24:	6174732f 	cmnvs	r4, pc, lsr #6
    1a28:	732d6666 			; <UNDEFINED> instruction: 0x732d6666
    1a2c:	2f006372 	svccs	0x00006372
    1a30:	72657355 	rsbvc	r7, r5, #1409286145	; 0x54000001
    1a34:	72742f73 	rsbsvc	r2, r4, #460	; 0x1cc
    1a38:	65747369 	ldrbvs	r7, [r4, #-873]!	; 0xfffffc97
    1a3c:	6c6f6e6e 	stclvs	14, cr6, [pc], #-440	; 188c <__code_start__-0x6774>
    1a40:	6e616d6c 	cdpvs	13, 6, cr6, cr1, cr12, {3}
    1a44:	636f442f 	cmnvs	pc, #788529152	; 0x2f000000
    1a48:	6e656d75 	mcrvs	13, 3, r6, cr5, cr5, {3}
    1a4c:	532f7374 			; <UNDEFINED> instruction: 0x532f7374
    1a50:	6e697270 	mcrvs	2, 3, r7, cr9, cr0, {3}
    1a54:	75515f67 	ldrbvc	r5, [r1, #-3943]	; 0xfffff099
    1a58:	65747261 	ldrbvs	r7, [r4, #-609]!	; 0xfffffd9f
    1a5c:	30325f72 	eorscc	r5, r2, r2, ror pc
    1a60:	432f3232 			; <UNDEFINED> instruction: 0x432f3232
    1a64:	30343253 	eorscc	r3, r4, r3, asr r2
    1a68:	732d584c 			; <UNDEFINED> instruction: 0x732d584c
    1a6c:	32327270 	eorscc	r7, r2, #112, 4
    1a70:	62696c2f 	rsbvs	r6, r9, #12032	; 0x2f00
    1a74:	692f6970 	stmdbvs	pc!, {r4, r5, r6, r8, fp, sp, lr}	; <UNPREDICTABLE>
    1a78:	756c636e 	strbvc	r6, [ip, #-878]!	; 0xfffffc92
    1a7c:	00006564 	andeq	r6, r0, r4, ror #10
    1a80:	656d6974 	strbvs	r6, [sp, #-2420]!	; 0xfffff68c
    1a84:	00632e72 	rsbeq	r2, r3, r2, ror lr
    1a88:	72000001 	andvc	r0, r0, #1, 0
    1a8c:	682e6970 	stmdavs	lr!, {r4, r5, r6, r8, fp, sp, lr}
    1a90:	00000200 	andeq	r0, r0, r0, lsl #4
    1a94:	00230500 	eoreq	r0, r3, r0, lsl #10
    1a98:	95340205 	ldrls	r0, [r4, #-517]!	; 0xfffffdfb
    1a9c:	05150000 	ldreq	r0, [r5, #-0]
    1aa0:	0c052f05 	stceq	15, cr2, [r5], {5}
    1aa4:	01050106 	tsteq	r5, r6, lsl #2
    1aa8:	061f054b 	ldreq	r0, [pc], -fp, asr #10
    1aac:	3105054d 	tstcc	r5, sp, asr #10
    1ab0:	0612052f 	ldreq	r0, [r2], -pc, lsr #10
    1ab4:	06050501 	streq	r0, [r5], -r1, lsl #10
    1ab8:	01052f4b 	tsteq	r5, fp, asr #30
    1abc:	1c051306 	stcne	3, cr1, [r5], {6}
    1ac0:	01064c06 	tsteq	r6, r6, lsl #24
    1ac4:	4b060505 	blmi	182ee0 <__bss_end__+0x178478>
    1ac8:	01061305 	tsteq	r6, r5, lsl #6
    1acc:	0605052e 	streq	r0, [r5], -lr, lsr #10
    1ad0:	1309052f 	movwne	r0, #38191	; 0x952f
    1ad4:	01061705 	tsteq	r6, r5, lsl #14
    1ad8:	2f060905 	svccs	0x00060905
    1adc:	01061105 	tsteq	r6, r5, lsl #2
    1ae0:	052e0c05 	streq	r0, [lr, #-3077]!	; 0xfffff3fb
    1ae4:	066b061c 			; <UNDEFINED> instruction: 0x066b061c
    1ae8:	06050501 	streq	r0, [r5], -r1, lsl #10
    1aec:	054a062f 	strbeq	r0, [sl, #-1583]	; 0xfffff9d1
    1af0:	1e054b01 	vmlane.f64	d4, d5, d1
    1af4:	01062f06 	tsteq	r6, r6, lsl #30
    1af8:	2f060505 	svccs	0x00060505
    1afc:	01054a06 	tsteq	r5, r6, lsl #20
    1b00:	0002024b 	andeq	r0, r2, fp, asr #4
    1b04:	02050101 	andeq	r0, r5, #1073741824	; 0x40000000
    1b08:	00030000 	andeq	r0, r3, r0
    1b0c:	000000c9 	andeq	r0, r0, r9, asr #1
    1b10:	0efb0102 	cdpeq	1, 15, cr0, cr11, cr2, {0}
    1b14:	0101000d 	tsteq	r1, sp
    1b18:	00000101 	andeq	r0, r0, r1, lsl #2
    1b1c:	00000100 	andeq	r0, r0, r0, lsl #2
    1b20:	6f682f01 	svcvs	0x00682f01
    1b24:	652f656d 	strvs	r6, [pc, #-1389]!	; 15bf <__code_start__-0x6a41>
    1b28:	656c676e 	strbvs	r6, [ip, #-1902]!	; 0xfffff892
    1b2c:	6c632f72 	stclvs	15, cr2, [r3], #-456	; 0xfffffe38
    1b30:	2f737361 	svccs	0x00737361
    1b34:	34327363 	ldrtcc	r7, [r2], #-867	; 0xfffffc9d
    1b38:	2d786c30 	ldclcs	12, cr6, [r8, #-192]!	; 0xffffff40
    1b3c:	70733232 	rsbsvc	r3, r3, r2, lsr r2
    1b40:	6c2f2f72 	stcvs	15, cr2, [pc], #-456	; 1980 <__code_start__-0x6680>
    1b44:	69706269 	ldmdbvs	r0!, {r0, r3, r5, r6, r9, sp, lr}^
    1b48:	636e692f 	cmnvs	lr, #770048	; 0xbc000
    1b4c:	6564756c 	strbvs	r7, [r4, #-1388]!	; 0xfffffa94
    1b50:	73752f00 	cmnvc	r5, #0, 30
    1b54:	68732f72 	ldmdavs	r3!, {r1, r4, r5, r6, r8, r9, sl, fp, sp}^
    1b58:	2f657261 	svccs	0x00657261
    1b5c:	2d636367 	stclcs	3, cr6, [r3, #-412]!	; 0xfffffe64
    1b60:	2d6d7261 	sfmcs	f7, 2, [sp, #-388]!	; 0xfffffe7c
    1b64:	656e6f6e 	strbvs	r6, [lr, #-3950]!	; 0xfffff092
    1b68:	6261652d 	rsbvs	r6, r1, #188743680	; 0xb400000
    1b6c:	30312d69 	eorscc	r2, r1, r9, ror #26
    1b70:	322d332e 	eorcc	r3, sp, #-1207959552	; 0xb8000000
    1b74:	2e313230 	mrccs	2, 1, r3, cr1, cr0, {1}
    1b78:	6c2f3031 	stcvs	0, cr3, [pc], #-196	; 1abc <__code_start__-0x6544>
    1b7c:	672f6269 	strvs	r6, [pc, -r9, ror #4]!
    1b80:	612f6363 			; <UNDEFINED> instruction: 0x612f6363
    1b84:	6e2d6d72 	mcrvs	13, 1, r6, cr13, cr2, {3}
    1b88:	2d656e6f 	stclcs	14, cr6, [r5, #-444]!	; 0xfffffe44
    1b8c:	69626165 	stmdbvs	r2!, {r0, r2, r5, r6, r8, sp, lr}^
    1b90:	2e30312f 	rsfcssp	f3, f0, #10.0
    1b94:	2f312e33 	svccs	0x00312e33
    1b98:	6c636e69 	stclvs	14, cr6, [r3], #-420	; 0xfffffe5c
    1b9c:	00656475 	rsbeq	r6, r5, r5, ror r4
    1ba0:	72617500 	rsbvc	r7, r1, #0, 10
    1ba4:	00632e74 	rsbeq	r2, r3, r4, ror lr
    1ba8:	75000000 	strvc	r0, [r0, #-0]
    1bac:	2e747261 	cdpcs	2, 7, cr7, cr4, cr1, {3}
    1bb0:	00010068 	andeq	r0, r1, r8, rrx
    1bb4:	69707200 	ldmdbvs	r0!, {r9, ip, sp, lr}^
    1bb8:	0100682e 	tsteq	r0, lr, lsr #16
    1bbc:	70670000 	rsbvc	r0, r7, r0
    1bc0:	682e6f69 	stmdavs	lr!, {r0, r3, r5, r6, r8, r9, sl, fp, sp, lr}
    1bc4:	00000100 	andeq	r0, r0, r0, lsl #2
    1bc8:	69647473 	stmdbvs	r4!, {r0, r1, r4, r5, r6, sl, ip, sp, lr}^
    1bcc:	672d746e 	strvs	r7, [sp, -lr, ror #8]!
    1bd0:	682e6363 	stmdavs	lr!, {r0, r1, r5, r6, r8, r9, sp, lr}
    1bd4:	00000200 	andeq	r0, r0, r0, lsl #4
    1bd8:	00390500 	eorseq	r0, r9, r0, lsl #10
    1bdc:	95b80205 	ldrls	r0, [r8, #517]!	; 0x205
    1be0:	30030000 	andcc	r0, r3, r0
    1be4:	05010601 	streq	r0, [r1, #-1537]	; 0xfffff9ff
    1be8:	05670605 	strbeq	r0, [r7, #-1541]!	; 0xfffff9fb
    1bec:	05010611 	streq	r0, [r1, #-1553]	; 0xfffff9ef
    1bf0:	01052e05 	tsteq	r5, r5, lsl #28
    1bf4:	06380567 	ldrteq	r0, [r8], -r7, ror #10
    1bf8:	05010629 	streq	r0, [r1, #-1577]	; 0xfffff9d7
    1bfc:	05670605 	strbeq	r0, [r7, #-1541]!	; 0xfffff9fb
    1c00:	05010611 	streq	r0, [r1, #-1553]	; 0xfffff9ef
    1c04:	01052e05 	tsteq	r5, r5, lsl #28
    1c08:	06160567 	ldreq	r0, [r6], -r7, ror #10
    1c0c:	052e1503 	streq	r1, [lr, #-1283]!	; 0xfffffafd
    1c10:	68673505 	stmdavs	r7!, {r0, r2, r8, sl, ip, sp}^
    1c14:	0c036835 	stceq	8, cr6, [r3], {53}	; 0x35
    1c18:	696b852e 	stmdbvs	fp!, {r1, r2, r3, r5, r8, sl, pc}^
    1c1c:	660c0369 	strvs	r0, [ip], -r9, ror #6
    1c20:	05676b13 	strbeq	r6, [r7, #-2835]!	; 0xfffff4ed
    1c24:	052f0601 	streq	r0, [pc, #-1537]!	; 162b <__code_start__-0x69d5>
    1c28:	25080619 	strcs	r0, [r8, #-1561]	; 0xfffff9e7
    1c2c:	05340505 	ldreq	r0, [r4, #-1285]!	; 0xfffffafb
    1c30:	0501060d 	streq	r0, [r1, #-1549]	; 0xfffff9f3
    1c34:	19054c01 	stmdbne	r5, {r0, sl, fp, lr}
    1c38:	05056706 	streq	r6, [r5, #-1798]	; 0xfffff8fa
    1c3c:	060d0536 			; <UNDEFINED> instruction: 0x060d0536
    1c40:	4a280501 	bmi	a0304c <__bss_end__+0x9f85e4>
    1c44:	05300105 	ldreq	r0, [r0, #-261]!	; 0xfffffefb
    1c48:	05870615 	streq	r0, [r7, #1557]	; 0x615
    1c4c:	052f2f05 	streq	r2, [pc, #-3845]!	; d4f <__code_start__-0x72b1>
    1c50:	04020009 	streq	r0, [r2], #-9
    1c54:	0a051301 	beq	146860 <__bss_end__+0x13bdf8>
    1c58:	01040200 	mrseq	r0, R12_usr
    1c5c:	000c0511 	andeq	r0, ip, r1, lsl r5
    1c60:	06010402 	streq	r0, [r1], -r2, lsl #8
    1c64:	000a0501 	andeq	r0, sl, r1, lsl #10
    1c68:	2e010402 	cdpcs	4, 0, cr0, cr1, cr2, {0}
    1c6c:	4c060505 	cfstr32mi	mvfx0, [r6], {5}
    1c70:	01060e05 	tsteq	r6, r5, lsl #28
    1c74:	054a0905 	strbeq	r0, [sl, #-2309]	; 0xfffff6fb
    1c78:	2f2f0605 	svccs	0x002f0605
    1c7c:	13060105 	movwne	r0, #24837	; 0x6105
    1c80:	67061c05 	strvs	r1, [r6, -r5, lsl #24]
    1c84:	05050106 	streq	r0, [r5, #-262]	; 0xfffffefa
    1c88:	052f4b06 	streq	r4, [pc, #-2822]!	; 118a <__code_start__-0x6e76>
    1c8c:	04020009 	streq	r0, [r2], #-9
    1c90:	0a051301 	beq	14689c <__bss_end__+0x13be34>
    1c94:	01040200 	mrseq	r0, R12_usr
    1c98:	000c0511 	andeq	r0, ip, r1, lsl r5
    1c9c:	06010402 	streq	r0, [r1], -r2, lsl #8
    1ca0:	000a0501 	andeq	r0, sl, r1, lsl #10
    1ca4:	2e010402 	cdpcs	4, 0, cr0, cr1, cr2, {0}
    1ca8:	4c060505 	cfstr32mi	mvfx0, [r6], {5}
    1cac:	06010567 	streq	r0, [r1], -r7, ror #10
    1cb0:	0619052f 	ldreq	r0, [r9], -pc, lsr #10
    1cb4:	2e1b054c 	cfmac32cs	mvfx0, mvfx11, mvfx12
    1cb8:	052e2a05 	streq	r2, [lr, #-2565]!	; 0xfffff5fb
    1cbc:	05010631 	streq	r0, [r1, #-1585]	; 0xfffff9cf
    1cc0:	1c052e42 	stcne	14, cr2, [r5], {66}	; 0x42
    1cc4:	05053106 	streq	r3, [r5, #-262]	; 0xfffffefa
    1cc8:	2e09032f 	cdpcs	3, 0, cr0, cr9, cr15, {1}
    1ccc:	01060e05 	tsteq	r6, r5, lsl #28
    1cd0:	054a2105 	strbeq	r2, [sl, #-261]	; 0xfffffefb
    1cd4:	2e0a0301 	cdpcs	3, 0, cr0, cr10, cr1, {0}
    1cd8:	68061a05 	stmdavs	r6, {r0, r2, r9, fp, ip}
    1cdc:	02000905 	andeq	r0, r0, #81920	; 0x14000
    1ce0:	05300104 	ldreq	r0, [r0, #-260]!	; 0xfffffefc
    1ce4:	0402000a 	streq	r0, [r2], #-10
    1ce8:	0c051101 	stfeqs	f1, [r5], {1}
    1cec:	01040200 	mrseq	r0, R12_usr
    1cf0:	0a050106 	beq	142110 <__bss_end__+0x1376a8>
    1cf4:	01040200 	mrseq	r0, R12_usr
    1cf8:	0619052e 	ldreq	r0, [r9], -lr, lsr #10
    1cfc:	667ee803 	ldrbtvs	lr, [lr], -r3, lsl #16
    1d00:	2f2f0505 	svccs	0x002f0505
    1d04:	0105672f 	tsteq	r5, pc, lsr #14
    1d08:	04022f06 	streq	r2, [r2], #-3846	; 0xfffff0fa
    1d0c:	93010100 	movwls	r0, #4352	; 0x1100
    1d10:	03000003 	movweq	r0, #3
    1d14:	0000b800 	andeq	fp, r0, r0, lsl #16
    1d18:	fb010200 	blx	42522 <__bss_end__+0x37aba>
    1d1c:	01000d0e 	tsteq	r0, lr, lsl #26
    1d20:	00010101 	andeq	r0, r1, r1, lsl #2
    1d24:	00010000 	andeq	r0, r1, r0
    1d28:	682f0100 	stmdavs	pc!, {r8}	; <UNPREDICTABLE>
    1d2c:	2f656d6f 	svccs	0x00656d6f
    1d30:	6c676e65 	stclvs	14, cr6, [r7], #-404	; 0xfffffe6c
    1d34:	632f7265 			; <UNDEFINED> instruction: 0x632f7265
    1d38:	7373616c 	cmnvc	r3, #27
    1d3c:	3273632f 	rsbscc	r6, r3, #-1140850688	; 0xbc000000
    1d40:	786c3034 	stmdavc	ip!, {r2, r4, r5, ip, sp}^
    1d44:	7332322d 	teqvc	r2, #-805306366	; 0xd0000002
    1d48:	2f2f7270 	svccs	0x002f7270
    1d4c:	7062696c 	rsbvc	r6, r2, ip, ror #18
    1d50:	6e692f69 	cdpvs	15, 6, cr2, cr9, cr9, {3}
    1d54:	64756c63 	ldrbtvs	r6, [r5], #-3171	; 0xfffff39d
    1d58:	752f0065 	strvc	r0, [pc, #-101]!	; 1cfb <__code_start__-0x6305>
    1d5c:	732f7273 			; <UNDEFINED> instruction: 0x732f7273
    1d60:	65726168 	ldrbvs	r6, [r2, #-360]!	; 0xfffffe98
    1d64:	6363672f 	cmnvs	r3, #12320768	; 0xbc0000
    1d68:	6d72612d 	ldfvse	f6, [r2, #-180]!	; 0xffffff4c
    1d6c:	6e6f6e2d 	cdpvs	14, 6, cr6, cr15, cr13, {1}
    1d70:	61652d65 	cmnvs	r5, r5, ror #26
    1d74:	312d6962 			; <UNDEFINED> instruction: 0x312d6962
    1d78:	2d332e30 	ldccs	14, cr2, [r3, #-192]!	; 0xffffff40
    1d7c:	31323032 	teqcc	r2, r2, lsr r0
    1d80:	2f30312e 	svccs	0x0030312e
    1d84:	2f62696c 	svccs	0x0062696c
    1d88:	2f636367 	svccs	0x00636367
    1d8c:	2d6d7261 	sfmcs	f7, 2, [sp, #-388]!	; 0xfffffe7c
    1d90:	656e6f6e 	strbvs	r6, [lr, #-3950]!	; 0xfffff092
    1d94:	6261652d 	rsbvs	r6, r1, #188743680	; 0xb400000
    1d98:	30312f69 	eorscc	r2, r1, r9, ror #30
    1d9c:	312e332e 			; <UNDEFINED> instruction: 0x312e332e
    1da0:	636e692f 	cmnvs	lr, #770048	; 0xbc000
    1da4:	6564756c 	strbvs	r7, [r4, #-1388]!	; 0xfffffa94
    1da8:	6d6b0000 	stclvs	0, cr0, [fp, #-0]
    1dac:	6f6c6c61 	svcvs	0x006c6c61
    1db0:	00632e63 	rsbeq	r2, r3, r3, ror #28
    1db4:	72000000 	andvc	r0, r0, #0, 0
    1db8:	682e6970 	stmdavs	lr!, {r4, r5, r6, r8, fp, sp, lr}
    1dbc:	00000100 	andeq	r0, r0, r0, lsl #2
    1dc0:	69647473 	stmdbvs	r4!, {r0, r1, r4, r5, r6, sl, ip, sp, lr}^
    1dc4:	672d746e 	strvs	r7, [sp, -lr, ror #8]!
    1dc8:	682e6363 	stmdavs	lr!, {r0, r1, r5, r6, r8, r9, sp, lr}
    1dcc:	00000200 	andeq	r0, r0, r0, lsl #4
    1dd0:	001e0500 	andseq	r0, lr, r0, lsl #10
    1dd4:	97a80205 	strls	r0, [r8, r5, lsl #4]!
    1dd8:	27030000 	strcs	r0, [r3, -r0]
    1ddc:	01200501 			; <UNDEFINED> instruction: 0x01200501
    1de0:	01063105 	tsteq	r6, r5, lsl #2
    1de4:	83062005 	movwhi	r2, #24581	; 0x6005
    1de8:	05012205 	streq	r2, [r1, #-517]	; 0xfffffdfb
    1dec:	05010635 	streq	r0, [r1, #-1589]	; 0xfffff9cb
    1df0:	0583061e 	streq	r0, [r3, #1566]	; 0x61e
    1df4:	2d050120 	stfcss	f0, [r5, #-128]	; 0xffffff80
    1df8:	42050106 	andmi	r0, r5, #-2147483647	; 0x80000001
    1dfc:	01068506 	tsteq	r6, r6, lsl #10
    1e00:	4b060505 	blmi	18321c <__bss_end__+0x1787b4>
    1e04:	2e060114 	mcrcs	1, 0, r0, cr6, cr4, {0}
    1e08:	02040200 	andeq	r0, r4, #0, 4
    1e0c:	02002e06 	andeq	r2, r0, #96	; 0x60
    1e10:	00010204 	andeq	r0, r1, r4, lsl #4
    1e14:	15020402 	strne	r0, [r2, #-1026]	; 0xfffffbfe
    1e18:	02000d05 	andeq	r0, r0, #320	; 0x140
    1e1c:	01060204 	tsteq	r6, r4, lsl #4
    1e20:	02000705 	andeq	r0, r0, #1310720	; 0x140000
    1e24:	054a0204 	strbeq	r0, [sl, #-516]	; 0xfffffdfc
    1e28:	054b0609 	strbeq	r0, [fp, #-1545]	; 0xfffff9f7
    1e2c:	17051505 	strne	r1, [r5, -r5, lsl #10]
    1e30:	10050106 	andne	r0, r5, r6, lsl #2
    1e34:	0605054a 	streq	r0, [r5], -sl, asr #10
    1e38:	061b052f 	ldreq	r0, [fp], -pc, lsr #10
    1e3c:	2e0e0501 	cfsh32cs	mvfx0, mvfx14, #1
    1e40:	052f0105 	streq	r0, [pc, #-261]!	; 1d43 <__code_start__-0x62bd>
    1e44:	04020005 	streq	r0, [r2], #-5
    1e48:	77030601 	strvc	r0, [r3, -r1, lsl #12]
    1e4c:	0402004a 	streq	r0, [r2], #-74	; 0xffffffb6
    1e50:	02000101 	andeq	r0, r0, #1073741824	; 0x40000000
    1e54:	9e060104 	adflss	f0, f6, f4
    1e58:	01040200 	mrseq	r0, R12_usr
    1e5c:	0402002e 	streq	r0, [r2], #-46	; 0xffffffd2
    1e60:	052e0601 	streq	r0, [lr, #-1537]!	; 0xfffff9ff
    1e64:	06013209 	streq	r3, [r1], -r9, lsl #4
    1e68:	2e062ed6 	mcrcs	14, 0, r2, cr6, cr6, {6}
    1e6c:	05de1905 	ldrbeq	r1, [lr, #2309]	; 0x905
    1e70:	05142f05 	ldreq	r2, [r4, #-3845]	; 0xfffff0fb
    1e74:	05010608 	streq	r0, [r1, #-1544]	; 0xfffff9f8
    1e78:	09054a07 	stmdbeq	r5, {r0, r1, r2, r9, fp, lr}
    1e7c:	05054b06 	streq	r4, [r5, #-2822]	; 0xfffff4fa
    1e80:	060c0513 			; <UNDEFINED> instruction: 0x060c0513
    1e84:	06050501 	streq	r0, [r5], -r1, lsl #10
    1e88:	01051367 	tsteq	r5, r7, ror #6
    1e8c:	09056706 	stmdbeq	r5, {r1, r2, r8, r9, sl, sp, lr}
    1e90:	9e012a06 	vmlals.f32	s4, s2, s12
    1e94:	06a52805 	strteq	r2, [r5], r5, lsl #16
    1e98:	06050501 	streq	r0, [r5], -r1, lsl #10
    1e9c:	2e06014b 	adfcssm	f0, f6, #3.0
    1ea0:	13012e06 	movwne	r2, #7686	; 0x1e06
    1ea4:	47031805 	strmi	r1, [r3, -r5, lsl #16]
    1ea8:	13050501 	movwne	r0, #21761	; 0x5501
    1eac:	06010601 	streq	r0, [r1], -r1, lsl #12
    1eb0:	1301150f 	movwne	r1, #5391	; 0x150f
    1eb4:	01060e05 	tsteq	r6, r5, lsl #28
    1eb8:	2e2e1605 	cfmadda32cs	mvax0, mvax1, mvfx14, mvfx5
    1ebc:	03060505 	movweq	r0, #25861	; 0x6505
    1ec0:	0b050139 	bleq	1423ac <__bss_end__+0x137944>
    1ec4:	05050106 	streq	r0, [r5, #-262]	; 0xfffffefa
    1ec8:	0a054b06 	beq	154ae8 <__bss_end__+0x14a080>
    1ecc:	05050106 	streq	r0, [r5, #-262]	; 0xfffffefa
    1ed0:	0d054b06 	vstreq	d4, [r5, #-24]	; 0xffffffe8
    1ed4:	07050106 	streq	r0, [r5, -r6, lsl #2]
    1ed8:	4d01052e 	cfstr32mi	mvfx0, [r1, #-184]	; 0xffffff48
    1edc:	02000505 	andeq	r0, r0, #20971520	; 0x1400000
    1ee0:	03060104 	movweq	r0, #24836	; 0x6104
    1ee4:	02004a78 	andeq	r4, r0, #120, 20	; 0x78000
    1ee8:	00010104 	andeq	r0, r1, r4, lsl #2
    1eec:	06010402 	streq	r0, [r1], -r2, lsl #8
    1ef0:	040200ba 	streq	r0, [r2], #-186	; 0xffffff46
    1ef4:	052e0601 	streq	r0, [lr, #-1537]!	; 0xfffff9ff
    1ef8:	06013409 	streq	r3, [r1], -r9, lsl #8
    1efc:	2e066682 	cfmadd32cs	mvax4, mvfx6, mvfx6, mvfx2
    1f00:	06db2005 	ldrbeq	r2, [fp], r5
    1f04:	06050501 	streq	r0, [r5], -r1, lsl #10
    1f08:	0200014b 	andeq	r0, r0, #-1073741806	; 0xc0000012
    1f0c:	004a0204 	subeq	r0, sl, r4, lsl #4
    1f10:	01020402 	tsteq	r2, r2, lsl #8
    1f14:	02040200 	andeq	r0, r4, #0, 4
    1f18:	00120513 	andseq	r0, r2, r3, lsl r5
    1f1c:	06020402 	streq	r0, [r2], -r2, lsl #8
    1f20:	04020001 	streq	r0, [r2], #-1
    1f24:	02002e02 	andeq	r2, r0, #2, 28
    1f28:	052e0204 	streq	r0, [lr, #-516]!	; 0xfffffdfc
    1f2c:	04020005 	streq	r0, [r2], #-5
    1f30:	002f0602 	eoreq	r0, pc, r2, lsl #12
    1f34:	67020402 	strvs	r0, [r2, -r2, lsl #8]
    1f38:	02000105 	andeq	r0, r0, #1073741825	; 0x40000001
    1f3c:	13060204 	movwne	r0, #25092	; 0x6204
    1f40:	02000505 	andeq	r0, r0, #20971520	; 0x1400000
    1f44:	62060104 	andvs	r0, r6, #1
    1f48:	01040200 	mrseq	r0, R12_usr
    1f4c:	04020001 	streq	r0, [r2], #-1
    1f50:	00ba0601 	adcseq	r0, sl, r1, lsl #12
    1f54:	06010402 	streq	r0, [r1], -r2, lsl #8
    1f58:	033c052e 	teqeq	ip, #192937984	; 0xb800000
    1f5c:	01069e0a 	tsteq	r6, sl, lsl #28
    1f60:	4b060505 	blmi	18337c <__bss_end__+0x178914>
    1f64:	062e0601 	strteq	r0, [lr], -r1, lsl #12
    1f68:	0113012e 	tsteq	r3, lr, lsr #2
    1f6c:	ad031805 	stcge	8, cr1, [r3, #-20]	; 0xffffffec
    1f70:	0505017f 	streq	r0, [r5, #-383]	; 0xfffffe81
    1f74:	06110513 			; <UNDEFINED> instruction: 0x06110513
    1f78:	05052e01 	streq	r2, [r5, #-3585]	; 0xfffff1ff
    1f7c:	0100d203 	tsteq	r0, r3, lsl #4
    1f80:	05134a06 	ldreq	r4, [r3, #-2566]	; 0xfffff5fa
    1f84:	7fa30318 	svcvc	0x00a30318
    1f88:	13050501 	movwne	r0, #21761	; 0x5501
    1f8c:	01061605 	tsteq	r6, r5, lsl #12
    1f90:	0605054a 	streq	r0, [r5], -sl, asr #10
    1f94:	0100e103 	tsteq	r0, r3, lsl #2
    1f98:	01061205 	tsteq	r6, r5, lsl #4
    1f9c:	4b060505 	blmi	1833b8 <__bss_end__+0x178950>
    1fa0:	a9031805 	stmdbge	r3, {r0, r2, fp, ip}
    1fa4:	0505017f 	streq	r0, [r5, #-383]	; 0xfffffe81
    1fa8:	18050113 	stmdane	r5, {r0, r1, r4, r8}
    1fac:	1305050e 	movwne	r0, #21774	; 0x550e
    1fb0:	01061105 	tsteq	r6, r5, lsl #2
    1fb4:	1505052e 	strne	r0, [r5, #-1326]	; 0xfffffad2
    1fb8:	13014a06 	movwne	r4, #6662	; 0x1a06
    1fbc:	01060e05 	tsteq	r6, r5, lsl #28
    1fc0:	2e16052e 	cfmul64cs	mvdx0, mvdx6, mvdx14
    1fc4:	0605052e 	streq	r0, [r5], -lr, lsr #10
    1fc8:	0100d603 	tsteq	r0, r3, lsl #12
    1fcc:	03180501 	tsteq	r8, #4194304	; 0x400000
    1fd0:	05017f9f 	streq	r7, [r1, #-3999]	; 0xfffff061
    1fd4:	19051305 	stmdbne	r5, {r0, r2, r8, r9, ip}
    1fd8:	052e0106 	streq	r0, [lr, #-262]!	; 0xfffffefa
    1fdc:	00e00305 	rsceq	r0, r0, r5, lsl #6
    1fe0:	04020001 	streq	r0, [r2], #-1
    1fe4:	004a0602 	subeq	r0, sl, r2, lsl #12
    1fe8:	14020402 	strne	r0, [r2], #-1026	; 0xfffffbfe
    1fec:	02000a05 	andeq	r0, r0, #20480	; 0x5000
    1ff0:	01060204 	tsteq	r6, r4, lsl #4
    1ff4:	02000505 	andeq	r0, r0, #20971520	; 0x1400000
    1ff8:	4b060204 	blmi	182810 <__bss_end__+0x177da8>
    1ffc:	02000c05 	andeq	r0, r0, #1280	; 0x500
    2000:	01060204 	tsteq	r6, r4, lsl #4
    2004:	02000105 	andeq	r0, r0, #1073741825	; 0x40000001
    2008:	052f0204 	streq	r0, [pc, #-516]!	; 1e0c <__code_start__-0x61f4>
    200c:	04020005 	streq	r0, [r2], #-5
    2010:	73030601 	movwvc	r0, #13825	; 0x3601
    2014:	0402004a 	streq	r0, [r2], #-74	; 0xffffffb6
    2018:	02000101 	andeq	r0, r0, #1073741824	; 0x40000000
    201c:	9e060104 	adflss	f0, f6, f4
    2020:	01040200 	mrseq	r0, R12_usr
    2024:	0402002e 	streq	r0, [r2], #-46	; 0xffffffd2
    2028:	002e0601 	eoreq	r0, lr, r1, lsl #12
    202c:	2f010402 	svccs	0x00010402
    2030:	01040200 	mrseq	r0, R12_usr
    2034:	0402002e 	streq	r0, [r2], #-46	; 0xffffffd2
    2038:	b103d601 	tstlt	r3, r1, lsl #12
    203c:	06012e7f 			; <UNDEFINED> instruction: 0x06012e7f
    2040:	062e2e82 	strteq	r2, [lr], -r2, lsl #29
    2044:	002e062e 	eoreq	r0, lr, lr, lsr #12
    2048:	06010402 	streq	r0, [r1], -r2, lsl #8
    204c:	0100d703 	tsteq	r0, r3, lsl #14
    2050:	01040200 	mrseq	r0, R12_usr
    2054:	0402002e 	streq	r0, [r2], #-46	; 0xffffffd2
    2058:	1505d601 	strne	sp, [r5, #-1537]	; 0xfffff9ff
    205c:	17057b08 	strne	r7, [r5, -r8, lsl #22]
    2060:	31160501 	tstcc	r6, r1, lsl #10
    2064:	05011805 	streq	r1, [r1, #-2053]	; 0xfffff7fb
    2068:	0501061d 	streq	r0, [r1, #-1565]	; 0xfffff9e3
    206c:	1905662b 	stmdbne	r5, {r0, r1, r3, r5, r9, sl, sp, lr}
    2070:	05054d06 	streq	r4, [r5, #-3334]	; 0xfffff2fa
    2074:	060c0513 			; <UNDEFINED> instruction: 0x060c0513
    2078:	4a070501 	bmi	1c3484 <__bss_end__+0x1b8a1c>
    207c:	02002505 	andeq	r2, r0, #20971520	; 0x1400000
    2080:	054a0104 	strbeq	r0, [sl, #-260]	; 0xfffffefc
    2084:	0402001e 	streq	r0, [r2], #-30	; 0xffffffe2
    2088:	09054a01 	stmdbeq	r5, {r0, r9, fp, lr}
    208c:	05054b06 	streq	r4, [r5, #-2822]	; 0xfffff4fa
    2090:	060a0513 			; <UNDEFINED> instruction: 0x060a0513
    2094:	63190501 	tstvs	r9, #4194304	; 0x400000
    2098:	4c060905 			; <UNDEFINED> instruction: 0x4c060905
    209c:	069e0601 	ldreq	r0, [lr], r1, lsl #12
    20a0:	000a022e 	andeq	r0, sl, lr, lsr #4
    20a4:	00be0101 	adcseq	r0, lr, r1, lsl #2
    20a8:	00030000 	andeq	r0, r3, r0
    20ac:	00000080 	andeq	r0, r0, r0, lsl #1
    20b0:	0efb0102 	cdpeq	1, 15, cr0, cr11, cr2, {0}
    20b4:	0101000d 	tsteq	r1, sp
    20b8:	00000101 	andeq	r0, r0, r1, lsl #2
    20bc:	00000100 	andeq	r0, r0, r0, lsl #2
    20c0:	6c2f2e01 	stcvs	14, cr2, [pc], #-4	; 20c4 <__code_start__-0x5f3c>
    20c4:	00636269 	rsbeq	r6, r3, r9, ror #4
    20c8:	6573552f 	ldrbvs	r5, [r3, #-1327]!	; 0xfffffad1
    20cc:	742f7372 	strtvc	r7, [pc], #-882	; 20d4 <__code_start__-0x5f2c>
    20d0:	74736972 	ldrbtvc	r6, [r3], #-2418	; 0xfffff68e
    20d4:	6f6e6e65 	svcvs	0x006e6e65
    20d8:	616d6c6c 	cmnvs	sp, ip, ror #24
    20dc:	6f442f6e 	svcvs	0x00442f6e
    20e0:	656d7563 	strbvs	r7, [sp, #-1379]!	; 0xfffffa9d
    20e4:	2f73746e 	svccs	0x0073746e
    20e8:	69727053 	ldmdbvs	r2!, {r0, r1, r4, r6, ip, sp, lr}^
    20ec:	515f676e 	cmppl	pc, lr, ror #14
    20f0:	74726175 	ldrbtvc	r6, [r2], #-373	; 0xfffffe8b
    20f4:	325f7265 	subscc	r7, pc, #1342177286	; 0x50000006
    20f8:	2f323230 	svccs	0x00323230
    20fc:	34325343 	ldrtcc	r5, [r2], #-835	; 0xfffffcbd
    2100:	2d584c30 	ldclcs	12, cr4, [r8, #-192]	; 0xffffff40
    2104:	32727073 	rsbscc	r7, r2, #115, 0	; 0x73
    2108:	696c2f32 	stmdbvs	ip!, {r1, r4, r5, r8, r9, sl, fp, sp}^
    210c:	2f697062 	svccs	0x00697062
    2110:	6c636e69 	stclvs	14, cr6, [r3], #-420	; 0xfffffe5c
    2114:	00656475 	rsbeq	r6, r5, r5, ror r4
    2118:	74757000 	ldrbtvc	r7, [r5], #-0
    211c:	72616863 	rsbvc	r6, r1, #6488064	; 0x630000
    2120:	0100632e 	tsteq	r0, lr, lsr #6
    2124:	70720000 	rsbsvc	r0, r2, r0
    2128:	00682e69 	rsbeq	r2, r8, r9, ror #28
    212c:	00000002 	andeq	r0, r0, r2
    2130:	05002405 	streq	r2, [r0, #-1029]	; 0xfffffbfb
    2134:	009b5802 	addseq	r5, fp, r2, lsl #16
    2138:	01061400 	tsteq	r6, r0, lsl #8
    213c:	4a062605 	bmi	18b958 <__bss_end__+0x180ef0>
    2140:	052e3405 	streq	r3, [lr, #-1029]!	; 0xfffffbfb
    2144:	05010601 	streq	r0, [r1, #-1537]	; 0xfffff9ff
    2148:	054f061b 	strbeq	r0, [pc, #-1563]	; 1b35 <__code_start__-0x64cb>
    214c:	11051305 	tstne	r5, r5, lsl #6
    2150:	01050106 	tsteq	r5, r6, lsl #2
    2154:	06230567 	strteq	r0, [r3], -r7, ror #10
    2158:	13050567 	movwne	r0, #21863	; 0x5567
    215c:	01061105 	tsteq	r6, r5, lsl #2
    2160:	024b0105 	subeq	r0, fp, #1073741825	; 0x40000001
    2164:	01010004 	tsteq	r1, r4
    2168:	0000010a 	andeq	r0, r0, sl, lsl #2
    216c:	007f0003 	rsbseq	r0, pc, r3
    2170:	01020000 	mrseq	r0, (UNDEF: 2)
    2174:	000d0efb 	strdeq	r0, [sp], -fp
    2178:	01010101 	tsteq	r1, r1, lsl #2
    217c:	01000000 	mrseq	r0, (UNDEF: 0)
    2180:	2e010000 	cdpcs	0, 0, cr0, cr1, cr0, {0}
    2184:	62696c2f 	rsbvs	r6, r9, #12032	; 0x2f00
    2188:	552f0063 	strpl	r0, [pc, #-99]!	; 212d <__code_start__-0x5ed3>
    218c:	73726573 	cmnvc	r2, #482344960	; 0x1cc00000
    2190:	6972742f 	ldmdbvs	r2!, {r0, r1, r2, r3, r5, sl, ip, sp, lr}^
    2194:	6e657473 	mcrvs	4, 3, r7, cr5, cr3, {3}
    2198:	6c6c6f6e 	stclvs	15, cr6, [ip], #-440	; 0xfffffe48
    219c:	2f6e616d 	svccs	0x006e616d
    21a0:	75636f44 	strbvc	r6, [r3, #-3908]!	; 0xfffff0bc
    21a4:	746e656d 	strbtvc	r6, [lr], #-1389	; 0xfffffa93
    21a8:	70532f73 	subsvc	r2, r3, r3, ror pc
    21ac:	676e6972 			; <UNDEFINED> instruction: 0x676e6972
    21b0:	6175515f 	cmnvs	r5, pc, asr r1
    21b4:	72657472 	rsbvc	r7, r5, #1912602624	; 0x72000000
    21b8:	3230325f 	eorscc	r3, r0, #-268435451	; 0xf0000005
    21bc:	53432f32 	movtpl	r2, #16178	; 0x3f32
    21c0:	4c303432 	cfldrsmi	mvf3, [r0], #-200	; 0xffffff38
    21c4:	70732d58 	rsbsvc	r2, r3, r8, asr sp
    21c8:	2f323272 	svccs	0x00323272
    21cc:	7062696c 	rsbvc	r6, r2, ip, ror #18
    21d0:	6e692f69 	cdpvs	15, 6, cr2, cr9, cr9, {3}
    21d4:	64756c63 	ldrbtvs	r6, [r5], #-3171	; 0xfffff39d
    21d8:	73000065 	movwvc	r0, #101	; 0x65
    21dc:	61637274 	smcvs	14116	; 0x3724
    21e0:	00632e74 	rsbeq	r2, r3, r4, ror lr
    21e4:	72000001 	andvc	r0, r0, #1, 0
    21e8:	682e6970 	stmdavs	lr!, {r4, r5, r6, r8, fp, sp, lr}
    21ec:	00000200 	andeq	r0, r0, r0, lsl #4
    21f0:	002c0500 	eoreq	r0, ip, r0, lsl #10
    21f4:	9b940205 	blls	fe502a10 <__bss_end__+0xfe4f7fa8>
    21f8:	05150000 	ldreq	r0, [r5, #-0]
    21fc:	05131305 	ldreq	r1, [r3, #-773]	; 0xfffffcfb
    2200:	0511060b 	ldreq	r0, [r1, #-1547]	; 0xfffff9f5
    2204:	04020005 	streq	r0, [r2], #-5
    2208:	00300601 	eorseq	r0, r0, r1, lsl #12
    220c:	15010402 	strne	r0, [r1, #-1026]	; 0xfffffbfe
    2210:	02000905 	andeq	r0, r0, #81920	; 0x14000
    2214:	05130104 	ldreq	r0, [r3, #-260]	; 0xfffffefc
    2218:	04020010 	streq	r0, [r2], #-16
    221c:	052e0601 	streq	r0, [lr, #-1537]!	; 0xfffff9ff
    2220:	0402000b 	streq	r0, [r2], #-11
    2224:	02002e01 	andeq	r2, r0, #1, 28
    2228:	2f060104 	svccs	0x00060104
    222c:	02000505 	andeq	r0, r0, #20971520	; 0x1400000
    2230:	01060104 	tsteq	r6, r4, lsl #2
    2234:	08054e06 	stmdaeq	r5, {r1, r2, r9, sl, fp, lr}
    2238:	05050106 	streq	r0, [r5, #-262]	; 0xfffffefa
    223c:	01040200 	mrseq	r0, R12_usr
    2240:	09052f06 	stmdbeq	r5, {r1, r2, r8, r9, sl, fp, sp}
    2244:	01040200 	mrseq	r0, R12_usr
    2248:	000b0513 	andeq	r0, fp, r3, lsl r5
    224c:	06010402 	streq	r0, [r1], -r2, lsl #8
    2250:	00090501 	andeq	r0, r9, r1, lsl #10
    2254:	06010402 	streq	r0, [r1], -r2, lsl #8
    2258:	000f054b 	andeq	r0, pc, fp, asr #10
    225c:	06010402 	streq	r0, [r1], -r2, lsl #8
    2260:	000d0501 	andeq	r0, sp, r1, lsl #10
    2264:	06010402 	streq	r0, [r1], -r2, lsl #8
    2268:	0005052f 	andeq	r0, r5, pc, lsr #10
    226c:	06010402 	streq	r0, [r1], -r2, lsl #8
    2270:	00060201 	andeq	r0, r6, r1, lsl #4
    2274:	00c30101 	sbceq	r0, r3, r1, lsl #2
    2278:	00030000 	andeq	r0, r3, r0
    227c:	0000007f 	andeq	r0, r0, pc, ror r0
    2280:	0efb0102 	cdpeq	1, 15, cr0, cr11, cr2, {0}
    2284:	0101000d 	tsteq	r1, sp
    2288:	00000101 	andeq	r0, r0, r1, lsl #2
    228c:	00000100 	andeq	r0, r0, r0, lsl #2
    2290:	6c2f2e01 	stcvs	14, cr2, [pc], #-4	; 2294 <__code_start__-0x5d6c>
    2294:	00636269 	rsbeq	r6, r3, r9, ror #4
    2298:	6573552f 	ldrbvs	r5, [r3, #-1327]!	; 0xfffffad1
    229c:	742f7372 	strtvc	r7, [pc], #-882	; 22a4 <__code_start__-0x5d5c>
    22a0:	74736972 	ldrbtvc	r6, [r3], #-2418	; 0xfffff68e
    22a4:	6f6e6e65 	svcvs	0x006e6e65
    22a8:	616d6c6c 	cmnvs	sp, ip, ror #24
    22ac:	6f442f6e 	svcvs	0x00442f6e
    22b0:	656d7563 	strbvs	r7, [sp, #-1379]!	; 0xfffffa9d
    22b4:	2f73746e 	svccs	0x0073746e
    22b8:	69727053 	ldmdbvs	r2!, {r0, r1, r4, r6, ip, sp, lr}^
    22bc:	515f676e 	cmppl	pc, lr, ror #14
    22c0:	74726175 	ldrbtvc	r6, [r2], #-373	; 0xfffffe8b
    22c4:	325f7265 	subscc	r7, pc, #1342177286	; 0x50000006
    22c8:	2f323230 	svccs	0x00323230
    22cc:	34325343 	ldrtcc	r5, [r2], #-835	; 0xfffffcbd
    22d0:	2d584c30 	ldclcs	12, cr4, [r8, #-192]	; 0xffffff40
    22d4:	32727073 	rsbscc	r7, r2, #115, 0	; 0x73
    22d8:	696c2f32 	stmdbvs	ip!, {r1, r4, r5, r8, r9, sl, fp, sp}^
    22dc:	2f697062 	svccs	0x00697062
    22e0:	6c636e69 	stclvs	14, cr6, [r3], #-420	; 0xfffffe5c
    22e4:	00656475 	rsbeq	r6, r5, r5, ror r4
    22e8:	72747300 	rsbsvc	r7, r4, #0, 6
    22ec:	2e706d63 	cdpcs	13, 7, cr6, cr0, cr3, {3}
    22f0:	00010063 	andeq	r0, r1, r3, rrx
    22f4:	69707200 	ldmdbvs	r0!, {r9, ip, sp, lr}^
    22f8:	0200682e 	andeq	r6, r0, #3014656	; 0x2e0000
    22fc:	05000000 	streq	r0, [r0, #-0]
    2300:	0205002a 	andeq	r0, r5, #42, 0	; 0x2a
    2304:	00009bc8 	andeq	r9, r0, r8, asr #23
    2308:	13090514 	movwne	r0, #38164	; 0x9514
    230c:	05010f05 	streq	r0, [r1, #-3845]	; 0xfffff0fb
    2310:	05010610 	streq	r0, [r1, #-1552]	; 0xfffff9f0
    2314:	1c052e0f 	stcne	14, cr2, [r5], {15}
    2318:	01040200 	mrseq	r0, R12_usr
    231c:	0013054a 	andseq	r0, r3, sl, asr #10
    2320:	2e010402 	cdpcs	4, 0, cr0, cr1, cr2, {0}
    2324:	2f061105 	svccs	0x00061105
    2328:	2e061605 	cfmadd32cs	mvax0, mvfx1, mvfx6, mvfx5
    232c:	0609052e 	streq	r0, [r9], -lr, lsr #10
    2330:	0615052f 	ldreq	r0, [r5], -pc, lsr #10
    2334:	2f010501 	svccs	0x00010501
    2338:	01000402 	tsteq	r0, r2, lsl #8
    233c:	0000c101 	andeq	ip, r0, r1, lsl #2
    2340:	7f000300 	svcvc	0x00000300
    2344:	02000000 	andeq	r0, r0, #0, 0
    2348:	0d0efb01 	vstreq	d15, [lr, #-4]
    234c:	01010100 	mrseq	r0, (UNDEF: 17)
    2350:	00000001 	andeq	r0, r0, r1
    2354:	01000001 	tsteq	r0, r1
    2358:	696c2f2e 	stmdbvs	ip!, {r1, r2, r3, r5, r8, r9, sl, fp, sp}^
    235c:	2f006362 	svccs	0x00006362
    2360:	72657355 	rsbvc	r7, r5, #1409286145	; 0x54000001
    2364:	72742f73 	rsbsvc	r2, r4, #460	; 0x1cc
    2368:	65747369 	ldrbvs	r7, [r4, #-873]!	; 0xfffffc97
    236c:	6c6f6e6e 	stclvs	14, cr6, [pc], #-440	; 21bc <__code_start__-0x5e44>
    2370:	6e616d6c 	cdpvs	13, 6, cr6, cr1, cr12, {3}
    2374:	636f442f 	cmnvs	pc, #788529152	; 0x2f000000
    2378:	6e656d75 	mcrvs	13, 3, r6, cr5, cr5, {3}
    237c:	532f7374 			; <UNDEFINED> instruction: 0x532f7374
    2380:	6e697270 	mcrvs	2, 3, r7, cr9, cr0, {3}
    2384:	75515f67 	ldrbvc	r5, [r1, #-3943]	; 0xfffff099
    2388:	65747261 	ldrbvs	r7, [r4, #-609]!	; 0xfffffd9f
    238c:	30325f72 	eorscc	r5, r2, r2, ror pc
    2390:	432f3232 			; <UNDEFINED> instruction: 0x432f3232
    2394:	30343253 	eorscc	r3, r4, r3, asr r2
    2398:	732d584c 			; <UNDEFINED> instruction: 0x732d584c
    239c:	32327270 	eorscc	r7, r2, #112, 4
    23a0:	62696c2f 	rsbvs	r6, r9, #12032	; 0x2f00
    23a4:	692f6970 	stmdbvs	pc!, {r4, r5, r6, r8, fp, sp, lr}	; <UNPREDICTABLE>
    23a8:	756c636e 	strbvc	r6, [ip, #-878]!	; 0xfffffc92
    23ac:	00006564 	andeq	r6, r0, r4, ror #10
    23b0:	63727473 	cmnvs	r2, #1929379840	; 0x73000000
    23b4:	632e7970 			; <UNDEFINED> instruction: 0x632e7970
    23b8:	00000100 	andeq	r0, r0, r0, lsl #2
    23bc:	2e697072 	mcrcs	0, 3, r7, cr9, cr2, {3}
    23c0:	00020068 	andeq	r0, r2, r8, rrx
    23c4:	2a050000 	bcs	1423cc <__bss_end__+0x137964>
    23c8:	f4020500 	vst3.8	{d0,d2,d4}, [r2], r0
    23cc:	1400009b 	strne	r0, [r0], #-155	; 0xffffff65
    23d0:	13130505 	tstne	r3, #20971520	; 0x1400000
    23d4:	11061405 	tstne	r6, r5, lsl #8
    23d8:	02002205 	andeq	r2, r0, #1342177280	; 0x50000000
    23dc:	2f060104 	svccs	0x00060104
    23e0:	02000b05 	andeq	r0, r0, #5120	; 0x1400
    23e4:	05010104 	streq	r0, [r1, #-260]	; 0xfffffefc
    23e8:	04020015 	streq	r0, [r2], #-21	; 0xffffffeb
    23ec:	05010601 	streq	r0, [r1, #-1537]	; 0xfffff9ff
    23f0:	04020013 	streq	r0, [r2], #-19	; 0xffffffed
    23f4:	0b054a01 	bleq	154c00 <__bss_end__+0x14a198>
    23f8:	01040200 	mrseq	r0, R12_usr
    23fc:	0006024a 	andeq	r0, r6, sl, asr #4
    2400:	01210101 			; <UNDEFINED> instruction: 0x01210101
    2404:	00030000 	andeq	r0, r3, r0
    2408:	000000e5 	andeq	r0, r0, r5, ror #1
    240c:	0efb0102 	cdpeq	1, 15, cr0, cr11, cr2, {0}
    2410:	0101000d 	tsteq	r1, sp
    2414:	00000101 	andeq	r0, r0, r1, lsl #2
    2418:	00000100 	andeq	r0, r0, r0, lsl #2
    241c:	6c2f2e01 	stcvs	14, cr2, [pc], #-4	; 2420 <__code_start__-0x5be0>
    2420:	00636269 	rsbeq	r6, r3, r9, ror #4
    2424:	6573552f 	ldrbvs	r5, [r3, #-1327]!	; 0xfffffad1
    2428:	742f7372 	strtvc	r7, [pc], #-882	; 2430 <__code_start__-0x5bd0>
    242c:	74736972 	ldrbtvc	r6, [r3], #-2418	; 0xfffff68e
    2430:	6f6e6e65 	svcvs	0x006e6e65
    2434:	616d6c6c 	cmnvs	sp, ip, ror #24
    2438:	6f442f6e 	svcvs	0x00442f6e
    243c:	656d7563 	strbvs	r7, [sp, #-1379]!	; 0xfffffa9d
    2440:	2f73746e 	svccs	0x0073746e
    2444:	69727053 	ldmdbvs	r2!, {r0, r1, r4, r6, ip, sp, lr}^
    2448:	515f676e 	cmppl	pc, lr, ror #14
    244c:	74726175 	ldrbtvc	r6, [r2], #-373	; 0xfffffe8b
    2450:	325f7265 	subscc	r7, pc, #1342177286	; 0x50000006
    2454:	2f323230 	svccs	0x00323230
    2458:	34325343 	ldrtcc	r5, [r2], #-835	; 0xfffffcbd
    245c:	2d584c30 	ldclcs	12, cr4, [r8, #-192]	; 0xffffff40
    2460:	32727073 	rsbscc	r7, r2, #115, 0	; 0x73
    2464:	696c2f32 	stmdbvs	ip!, {r1, r4, r5, r8, r9, sl, fp, sp}^
    2468:	2f697062 	svccs	0x00697062
    246c:	6c636e69 	stclvs	14, cr6, [r3], #-420	; 0xfffffe5c
    2470:	00656475 	rsbeq	r6, r5, r5, ror r4
    2474:	7273752f 	rsbsvc	r7, r3, #197132288	; 0xbc00000
    2478:	636f6c2f 	cmnvs	pc, #12032	; 0x2f00
    247c:	432f6c61 			; <UNDEFINED> instruction: 0x432f6c61
    2480:	616c6c65 	cmnvs	ip, r5, ror #24
    2484:	72612f72 	rsbvc	r2, r1, #456	; 0x1c8
    2488:	6f6e2d6d 	svcvs	0x006e2d6d
    248c:	652d656e 	strvs	r6, [sp, #-1390]!	; 0xfffffa92
    2490:	2d696261 	sfmcs	f6, 2, [r9, #-388]!	; 0xfffffe7c
    2494:	74736574 	ldrbtvc	r6, [r3], #-1396	; 0xfffffa8c
    2498:	322d392f 	eorcc	r3, sp, #770048	; 0xbc000
    249c:	71393130 	teqvc	r9, r0, lsr r1
    24a0:	73632d34 	cmnvc	r3, #52, 26	; 0xd00
    24a4:	65373031 	ldrvs	r3, [r7, #-49]!	; 0xffffffcf
    24a8:	62696c2f 	rsbvs	r6, r9, #12032	; 0x2f00
    24ac:	6363672f 	cmnvs	r3, #12320768	; 0xbc0000
    24b0:	6d72612f 	ldfvse	f6, [r2, #-188]!	; 0xffffff44
    24b4:	6e6f6e2d 	cdpvs	14, 6, cr6, cr15, cr13, {1}
    24b8:	61652d65 	cmnvs	r5, r5, ror #26
    24bc:	392f6962 	stmdbcc	pc!, {r1, r5, r6, r8, fp, sp, lr}	; <UNPREDICTABLE>
    24c0:	312e322e 			; <UNDEFINED> instruction: 0x312e322e
    24c4:	636e692f 	cmnvs	lr, #770048	; 0xbc000
    24c8:	6564756c 	strbvs	r7, [r4, #-1388]!	; 0xfffffa94
    24cc:	74730000 	ldrbtvc	r0, [r3], #-0
    24d0:	6d636e72 	stclvs	14, cr6, [r3, #-456]!	; 0xfffffe38
    24d4:	00632e70 	rsbeq	r2, r3, r0, ror lr
    24d8:	72000001 	andvc	r0, r0, #1, 0
    24dc:	682e6970 	stmdavs	lr!, {r4, r5, r6, r8, fp, sp, lr}
    24e0:	00000200 	andeq	r0, r0, r0, lsl #4
    24e4:	64647473 	strbtvs	r7, [r4], #-1139	; 0xfffffb8d
    24e8:	682e6665 	stmdavs	lr!, {r0, r2, r5, r6, r9, sl, sp, lr}
    24ec:	00000300 	andeq	r0, r0, r0, lsl #6
    24f0:	00390500 	eorseq	r0, r9, r0, lsl #10
    24f4:	9c140205 	lfmls	f0, 4, [r4], {5}
    24f8:	05150000 	ldreq	r0, [r5, #-0]
    24fc:	05131305 	ldreq	r1, [r3, #-773]	; 0xfffffcfb
    2500:	0106010a 	tsteq	r6, sl, lsl #2
    2504:	0609054a 	streq	r0, [r9], -sl, asr #10
    2508:	060c052f 	streq	r0, [ip], -pc, lsr #10
    250c:	2e130501 	cfmul32cs	mvfx0, mvfx3, mvfx1
    2510:	052e0b05 	streq	r0, [lr, #-2821]!	; 0xfffff4fb
    2514:	054b060d 	strbeq	r0, [fp, #-1549]	; 0xfffff9f3
    2518:	2e01061b 	mcrcs	6, 0, r0, cr1, cr11, {0}
    251c:	05300c05 	ldreq	r0, [r0, #-3077]!	; 0xfffff3fb
    2520:	02022f01 	andeq	r2, r2, #1, 30
    2524:	b0010100 	andlt	r0, r1, r0, lsl #2
    2528:	03000000 	movweq	r0, #0
    252c:	00009400 	andeq	r9, r0, r0, lsl #8
    2530:	fb010200 	blx	42d3a <__bss_end__+0x382d2>
    2534:	01000d0e 	tsteq	r0, lr, lsl #26
    2538:	00010101 	andeq	r0, r1, r1, lsl #2
    253c:	00010000 	andeq	r0, r1, r0
    2540:	2f2e0100 	svccs	0x002e0100
    2544:	66617473 			; <UNDEFINED> instruction: 0x66617473
    2548:	72732d66 	rsbsvc	r2, r3, #6528	; 0x1980
    254c:	552f0063 	strpl	r0, [pc, #-99]!	; 24f1 <__code_start__-0x5b0f>
    2550:	73726573 	cmnvc	r2, #482344960	; 0x1cc00000
    2554:	6972742f 	ldmdbvs	r2!, {r0, r1, r2, r3, r5, sl, ip, sp, lr}^
    2558:	6e657473 	mcrvs	4, 3, r7, cr5, cr3, {3}
    255c:	6c6c6f6e 	stclvs	15, cr6, [ip], #-440	; 0xfffffe48
    2560:	2f6e616d 	svccs	0x006e616d
    2564:	75636f44 	strbvc	r6, [r3, #-3908]!	; 0xfffff0bc
    2568:	746e656d 	strbtvc	r6, [lr], #-1389	; 0xfffffa93
    256c:	70532f73 	subsvc	r2, r3, r3, ror pc
    2570:	676e6972 			; <UNDEFINED> instruction: 0x676e6972
    2574:	6175515f 	cmnvs	r5, pc, asr r1
    2578:	72657472 	rsbvc	r7, r5, #1912602624	; 0x72000000
    257c:	3230325f 	eorscc	r3, r0, #-268435451	; 0xf0000005
    2580:	53432f32 	movtpl	r2, #16178	; 0x3f32
    2584:	4c303432 	cfldrsmi	mvf3, [r0], #-200	; 0xffffff38
    2588:	70732d58 	rsbsvc	r2, r3, r8, asr sp
    258c:	2f323272 	svccs	0x00323272
    2590:	7062696c 	rsbvc	r6, r2, ip, ror #18
    2594:	6e692f69 	cdpvs	15, 6, cr2, cr9, cr9, {3}
    2598:	64756c63 	ldrbtvs	r6, [r5], #-3171	; 0xfffff39d
    259c:	64000065 	strvs	r0, [r0], #-101	; 0xffffff9b
    25a0:	75616665 	strbvc	r6, [r1, #-1637]!	; 0xfffff99b
    25a4:	722d746c 	eorvc	r7, sp, #108, 8	; 0x6c000000
    25a8:	6f6f6265 	svcvs	0x006f6265
    25ac:	61632d74 	smcvs	13012	; 0x32d4
    25b0:	756f6c6c 	strbvc	r6, [pc, #-3180]!	; 194c <__code_start__-0x66b4>
    25b4:	00632e74 	rsbeq	r2, r3, r4, ror lr
    25b8:	72000001 	andvc	r0, r0, #1, 0
    25bc:	682e6970 	stmdavs	lr!, {r4, r5, r6, r8, fp, sp, lr}
    25c0:	00000200 	andeq	r0, r0, r0, lsl #4
    25c4:	001b0500 	andseq	r0, fp, r0, lsl #10
    25c8:	9c400205 	sfmls	f0, 2, [r0], {5}
    25cc:	05140000 	ldreq	r0, [r4, #-0]
    25d0:	0105011c 	tsteq	r5, ip, lsl r1
    25d4:	02020106 	andeq	r0, r2, #-2147483647	; 0x80000001
    25d8:	bb010100 	bllt	429e0 <__bss_end__+0x37f78>
    25dc:	03000001 	movweq	r0, #1
    25e0:	0000bf00 	andeq	fp, r0, r0, lsl #30
    25e4:	fb010200 	blx	42dee <__bss_end__+0x38386>
    25e8:	01000d0e 	tsteq	r0, lr, lsl #26
    25ec:	00010101 	andeq	r0, r1, r1, lsl #2
    25f0:	00010000 	andeq	r0, r1, r0
    25f4:	682f0100 	stmdavs	pc!, {r8}	; <UNPREDICTABLE>
    25f8:	2f656d6f 	svccs	0x00656d6f
    25fc:	6c676e65 	stclvs	14, cr6, [r7], #-404	; 0xfffffe6c
    2600:	632f7265 			; <UNDEFINED> instruction: 0x632f7265
    2604:	7373616c 	cmnvc	r3, #27
    2608:	3273632f 	rsbscc	r6, r3, #-1140850688	; 0xbc000000
    260c:	786c3034 	stmdavc	ip!, {r2, r4, r5, ip, sp}^
    2610:	7332322d 	teqvc	r2, #-805306366	; 0xd0000002
    2614:	2f2f7270 	svccs	0x002f7270
    2618:	7062696c 	rsbvc	r6, r2, ip, ror #18
    261c:	6e692f69 	cdpvs	15, 6, cr2, cr9, cr9, {3}
    2620:	64756c63 	ldrbtvs	r6, [r5], #-3171	; 0xfffff39d
    2624:	752f0065 	strvc	r0, [pc, #-101]!	; 25c7 <__code_start__-0x5a39>
    2628:	732f7273 			; <UNDEFINED> instruction: 0x732f7273
    262c:	65726168 	ldrbvs	r6, [r2, #-360]!	; 0xfffffe98
    2630:	6363672f 	cmnvs	r3, #12320768	; 0xbc0000
    2634:	6d72612d 	ldfvse	f6, [r2, #-180]!	; 0xffffff4c
    2638:	6e6f6e2d 	cdpvs	14, 6, cr6, cr15, cr13, {1}
    263c:	61652d65 	cmnvs	r5, r5, ror #26
    2640:	312d6962 			; <UNDEFINED> instruction: 0x312d6962
    2644:	2d332e30 	ldccs	14, cr2, [r3, #-192]!	; 0xffffff40
    2648:	31323032 	teqcc	r2, r2, lsr r0
    264c:	2f30312e 	svccs	0x0030312e
    2650:	2f62696c 	svccs	0x0062696c
    2654:	2f636367 	svccs	0x00636367
    2658:	2d6d7261 	sfmcs	f7, 2, [sp, #-388]!	; 0xfffffe7c
    265c:	656e6f6e 	strbvs	r6, [lr, #-3950]!	; 0xfffff092
    2660:	6261652d 	rsbvs	r6, r1, #188743680	; 0xb400000
    2664:	30312f69 	eorscc	r2, r1, r9, ror #30
    2668:	312e332e 			; <UNDEFINED> instruction: 0x312e332e
    266c:	636e692f 	cmnvs	lr, #770048	; 0xbc000
    2670:	6564756c 	strbvs	r7, [r4, #-1388]!	; 0xfffffa94
    2674:	70670000 	rsbvc	r0, r7, r0
    2678:	632e6f69 			; <UNDEFINED> instruction: 0x632e6f69
    267c:	00000000 	andeq	r0, r0, r0
    2680:	2e697072 	mcrcs	0, 3, r7, cr9, cr2, {3}
    2684:	00010068 	andeq	r0, r1, r8, rrx
    2688:	64747300 	ldrbtvs	r7, [r4], #-768	; 0xfffffd00
    268c:	2d746e69 	ldclcs	14, cr6, [r4, #-420]!	; 0xfffffe5c
    2690:	2e636367 	cdpcs	3, 6, cr6, cr3, cr7, {3}
    2694:	00020068 	andeq	r0, r2, r8, rrx
    2698:	69706700 	ldmdbvs	r0!, {r8, r9, sl, sp, lr}^
    269c:	00682e6f 	rsbeq	r2, r8, pc, ror #28
    26a0:	00000001 	andeq	r0, r0, r1
    26a4:	05003805 	streq	r3, [r0, #-2053]	; 0xfffff7fb
    26a8:	009c5c02 	addseq	r5, ip, r2, lsl #24
    26ac:	01270300 			; <UNDEFINED> instruction: 0x01270300
    26b0:	05130505 	ldreq	r0, [r3, #-1285]	; 0xfffffafb
    26b4:	05010607 	streq	r0, [r1, #-1543]	; 0xfffff9f9
    26b8:	05054938 	streq	r4, [r5, #-2360]	; 0xfffff6c8
    26bc:	07054d06 	streq	r4, [r5, -r6, lsl #26]
    26c0:	05050106 	streq	r0, [r5, #-262]	; 0xfffffefa
    26c4:	18054c06 	stmdane	r5, {r1, r2, sl, fp, lr}
    26c8:	0e050106 	adfeqs	f0, f5, f6
    26cc:	060505ba 			; <UNDEFINED> instruction: 0x060505ba
    26d0:	061c052f 	ldreq	r0, [ip], -pc, lsr #10
    26d4:	0e052e01 	cdpeq	14, 0, cr2, cr5, cr1, {0}
    26d8:	0605052e 	streq	r0, [r5], -lr, lsr #10
    26dc:	06120530 			; <UNDEFINED> instruction: 0x06120530
    26e0:	06050501 	streq	r0, [r5], -r1, lsl #10
    26e4:	0607054b 	streq	r0, [r7], -fp, asr #10
    26e8:	06050501 	streq	r0, [r5], -r1, lsl #10
    26ec:	2e06134b 	cdpcs	3, 0, cr1, cr6, cr11, {2}
    26f0:	054b0105 	strbeq	r0, [fp, #-261]	; 0xfffffefb
    26f4:	064c0624 	strbeq	r0, [ip], -r4, lsr #12
    26f8:	06050501 	streq	r0, [r5], -r1, lsl #10
    26fc:	0601052f 	streq	r0, [r1], -pc, lsr #10
    2700:	0620054b 	strteq	r0, [r0], -fp, asr #10
    2704:	13050531 	movwne	r0, #21809	; 0x5531
    2708:	01060705 	tsteq	r6, r5, lsl #14
    270c:	05492005 	strbeq	r2, [r9, #-5]
    2710:	06310605 	ldrteq	r0, [r1], -r5, lsl #12
    2714:	2f010566 	svccs	0x00010566
    2718:	4d062105 	stfmis	f2, [r6, #-20]	; 0xffffffec
    271c:	05130505 	ldreq	r0, [r3, #-1285]	; 0xfffffafb
    2720:	05010607 	streq	r0, [r1, #-1543]	; 0xfffff9f9
    2724:	05054921 	streq	r4, [r5, #-2337]	; 0xfffff6df
    2728:	66063106 	strvs	r3, [r6], -r6, lsl #2
    272c:	052f0105 	streq	r0, [pc, #-261]!	; 262f <__code_start__-0x59d1>
    2730:	064d0623 	strbeq	r0, [sp], -r3, lsr #12
    2734:	06050501 	streq	r0, [r5], -r1, lsl #10
    2738:	0601052f 	streq	r0, [r1], -pc, lsr #10
    273c:	062b054b 	strteq	r0, [fp], -fp, asr #10
    2740:	05010631 	streq	r0, [r1, #-1585]	; 0xfffff9cf
    2744:	052f0605 	streq	r0, [pc, #-1541]!	; 2147 <__code_start__-0x5eb9>
    2748:	05010607 	streq	r0, [r1, #-1543]	; 0xfffff9f9
    274c:	064b0609 	strbeq	r0, [fp], -r9, lsl #12
    2750:	0530062e 	ldreq	r0, [r0, #-1582]!	; 0xfffff9d2
    2754:	052f0601 	streq	r0, [pc, #-1537]!	; 215b <__code_start__-0x5ea5>
    2758:	0530061d 	ldreq	r0, [r0, #-1565]!	; 0xfffff9e3
    275c:	07051305 	streq	r1, [r5, -r5, lsl #6]
    2760:	1d050106 	stfnes	f0, [r5, #-24]	; 0xffffffe8
    2764:	06050549 	streq	r0, [r5], -r9, asr #10
    2768:	0e051331 	mcreq	3, 0, r1, cr5, cr1, {1}
    276c:	05050106 	streq	r0, [r5, #-262]	; 0xfffffefa
    2770:	17052f06 	strne	r2, [r5, -r6, lsl #30]
    2774:	054a0106 	strbeq	r0, [sl, #-262]	; 0xfffffefa
    2778:	02042e23 	andeq	r2, r4, #560	; 0x230
    277c:	03063005 	movweq	r3, #24581	; 0x6005
    2780:	042e00dc 	strteq	r0, [lr], #-220	; 0xffffff24
    2784:	060c0501 	streq	r0, [ip], -r1, lsl #10
    2788:	017fa403 	cmneq	pc, r3, lsl #8
    278c:	052f0105 	streq	r0, [pc, #-261]!	; 268f <__code_start__-0x5971>
    2790:	01052a10 	tsteq	r5, r0, lsl sl
    2794:	00040232 	andeq	r0, r4, r2, lsr r2
    2798:	Address 0x0000000000002798 is out of bounds.


Disassembly of section .debug_str:

00000000 <.debug_str>:
   0:	5f726468 	svcpl	0x00726468
   4:	656e0074 	strbvs	r0, [lr, #-116]!	; 0xffffff8c
   8:	63007478 	movwvs	r7, #1144	; 0x478
   c:	6c6c616b 	stfvse	f6, [ip], #-428	; 0xfffffe54
  10:	7300636f 	movwvc	r6, #879	; 0x36f
  14:	65746174 	ldrbvs	r6, [r4, #-372]!	; 0xfffffe8c
  18:	6e696c00 	cdpvs	12, 6, cr6, cr9, cr0, {0}
  1c:	006f6e65 	rsbeq	r6, pc, r5, ror #28
  20:	665f6b63 	ldrbvs	r6, [pc], -r3, ror #22
  24:	5f646e69 	svcpl	0x00646e69
  28:	6b61656c 	blvs	18595e0 <__bss_end__+0x184eb78>
  2c:	616d0073 	smcvs	53251	; 0xd003
  30:	6e006b72 	vmovvs.16	d0[1], r6
  34:	616d746f 	cmnvs	sp, pc, ror #8
  38:	6e006e69 	cdpvs	14, 0, cr6, cr0, cr9, {3}
  3c:	65747962 	ldrbvs	r7, [r4, #-2402]!	; 0xfffff69e
  40:	6c615f73 	stclvs	15, cr5, [r1], #-460	; 0xfffffe34
  44:	00636f6c 	rsbeq	r6, r3, ip, ror #30
  48:	656c6966 	strbvs	r6, [ip, #-2406]!	; 0xfffff69a
  4c:	73657400 	cmnvc	r5, #0, 8
  50:	702f7374 	eorvc	r7, pc, r4, ror r3	; <UNPREDICTABLE>
  54:	32747261 	rsbscc	r7, r4, #268435462	; 0x10000006
  58:	7365742d 	cmnvc	r5, #754974720	; 0x2d000000
  5c:	632e3674 			; <UNDEFINED> instruction: 0x632e3674
  60:	656c6300 	strbvs	r6, [ip, #-768]!	; 0xfffffd00
  64:	725f6e61 	subsvc	r6, pc, #1552	; 0x610
  68:	6f6f6265 	svcvs	0x006f6265
  6c:	68730074 	ldmdavs	r3!, {r2, r4, r5, r6}^
  70:	2074726f 	rsbscs	r7, r4, pc, ror #4
  74:	69736e75 	ldmdbvs	r3!, {r0, r2, r4, r5, r6, r9, sl, fp, sp, lr}^
  78:	64656e67 	strbtvs	r6, [r5], #-3687	; 0xfffff199
  7c:	746e6920 	strbtvc	r6, [lr], #-2336	; 0xfffff6e0
  80:	5f6b6300 	svcpl	0x006b6300
  84:	00726468 	rsbseq	r6, r2, r8, ror #8
  88:	5f637273 	svcpl	0x00637273
  8c:	5f636f6c 	svcpl	0x00636f6c
  90:	75006b6d 	strvc	r6, [r0, #-2925]	; 0xfffff493
  94:	6769736e 	strbvs	r7, [r9, -lr, ror #6]!
  98:	2064656e 	rsbcs	r6, r4, lr, ror #10
  9c:	72616863 	rsbvc	r6, r1, #6488064	; 0x630000
  a0:	6d656d00 	stclvs	13, cr6, [r5, #-0]
  a4:	00746573 	rsbseq	r6, r4, r3, ror r5
  a8:	636e7566 	cmnvs	lr, #427819008	; 0x19800000
  ac:	465f5f00 	ldrbmi	r5, [pc], -r0, lsl #30
  b0:	54434e55 	strbpl	r4, [r3], #-3669	; 0xfffff1ab
  b4:	5f4e4f49 	svcpl	0x004e4f49
  b8:	6574005f 	ldrbvs	r0, [r4, #-95]!	; 0xffffffa1
  bc:	00317473 	eorseq	r7, r1, r3, ror r4
  c0:	6f6c6c61 	svcvs	0x006c6c61
  c4:	696c5f63 	stmdbvs	ip!, {r0, r1, r5, r6, r8, r9, sl, fp, ip, lr}^
  c8:	6c007473 	cfstrsvs	mvf7, [r0], {115}	; 0x73
  cc:	5f747361 	svcpl	0x00747361
  d0:	65646f6e 	strbvs	r6, [r4, #-3950]!	; 0xfffff092
  d4:	6e6f6c00 	cdpvs	12, 6, cr6, cr15, cr0, {0}
  d8:	6f6c2067 	svcvs	0x006c2067
  dc:	7520676e 	strvc	r6, [r0, #-1902]!	; 0xfffff892
  e0:	6769736e 	strbvs	r7, [r9, -lr, ror #6]!
  e4:	2064656e 	rsbcs	r6, r4, lr, ror #10
  e8:	00746e69 	rsbseq	r6, r4, r9, ror #28
  ec:	6f6c6c61 	svcvs	0x006c6c61
  f0:	6f6c5f63 	svcvs	0x006c5f63
  f4:	656c0063 	strbvs	r0, [ip, #-99]!	; 0xffffff9d
  f8:	64656b61 	strbtvs	r6, [r5], #-2913	; 0xfffff49f
  fc:	73552f00 	cmpvc	r5, #0, 30
 100:	2f737265 	svccs	0x00737265
 104:	73697274 	cmnvc	r9, #116, 4	; 0x40000007
 108:	6e6e6574 	mcrvs	5, 3, r6, cr14, cr4, {3}
 10c:	6d6c6c6f 	stclvs	12, cr6, [ip, #-444]!	; 0xfffffe44
 110:	442f6e61 	strtmi	r6, [pc], #-3681	; 118 <__code_start__-0x7ee8>
 114:	6d75636f 	ldclvs	3, cr6, [r5, #-444]!	; 0xfffffe44
 118:	73746e65 	cmnvc	r4, #1616	; 0x650
 11c:	7270532f 	rsbsvc	r5, r0, #-1140850688	; 0xbc000000
 120:	5f676e69 	svcpl	0x00676e69
 124:	72617551 	rsbvc	r7, r1, #339738624	; 0x14400000
 128:	5f726574 	svcpl	0x00726574
 12c:	32323032 	eorscc	r3, r2, #50, 0	; 0x32
 130:	3253432f 	subscc	r4, r3, #-1140850688	; 0xbc000000
 134:	584c3034 	stmdapl	ip, {r2, r4, r5, ip, sp}^
 138:	7270732d 	rsbsvc	r7, r0, #-1275068416	; 0xb4000000
 13c:	6c2f3232 	sfmvs	f3, 4, [pc], #-200	; 7c <__code_start__-0x7f84>
 140:	2f736261 	svccs	0x00736261
 144:	616d2d35 	cmnvs	sp, r5, lsr sp
 148:	636f6c6c 	cmnvs	pc, #108, 24	; 0x6c00
 14c:	2f63672b 	svccs	0x0063672b
 150:	65646f63 	strbvs	r6, [r4, #-3939]!	; 0xfffff09d
 154:	6e6f6c00 	cdpvs	12, 6, cr6, cr15, cr0, {0}
 158:	6f6c2067 	svcvs	0x006c2067
 15c:	6920676e 	stmdbvs	r0!, {r1, r2, r3, r5, r6, r8, r9, sl, sp, lr}
 160:	7200746e 	andvc	r7, r0, #1845493760	; 0x6e000000
 164:	705f6970 	subsvc	r6, pc, r0, ror r9	; <UNPREDICTABLE>
 168:	68637475 	stmdavs	r3!, {r0, r2, r4, r5, r6, sl, ip, sp, lr}^
 16c:	73007261 	movwvc	r7, #609	; 0x261
 170:	74726f68 	ldrbtvc	r6, [r2], #-3944	; 0xfffff098
 174:	746e6920 	strbtvc	r6, [lr], #-2336	; 0xfffff6e0
 178:	63727300 	cmnvs	r2, #0, 6
 17c:	636f6c5f 	cmnvs	pc, #24320	; 0x5f00
 180:	7500745f 	strvc	r7, [r0, #-1119]	; 0xfffffba1
 184:	31746e69 	cmncc	r4, r9, ror #28
 188:	00745f36 	rsbseq	r5, r4, r6, lsr pc
 18c:	746e6975 	strbtvc	r6, [lr], #-2421	; 0xfffff68b
 190:	745f3233 	ldrbvc	r3, [pc], #-563	; 198 <__code_start__-0x7e68>
 194:	554e4700 	strbpl	r4, [lr, #-1792]	; 0xfffff900
 198:	39394320 	ldmdbcc	r9!, {r5, r8, r9, lr}
 19c:	322e3920 	eorcc	r3, lr, #32, 18	; 0x80000
 1a0:	3220312e 	eorcc	r3, r0, #-2147483637	; 0x8000000b
 1a4:	31393130 	teqcc	r9, r0, lsr r1
 1a8:	20353230 	eorscs	r3, r5, r0, lsr r2
 1ac:	6c657228 	sfmvs	f7, 2, [r5], #-160	; 0xffffff60
 1b0:	65736165 	ldrbvs	r6, [r3, #-357]!	; 0xfffffe9b
 1b4:	415b2029 	cmpmi	fp, r9, lsr #32
 1b8:	612f4d52 			; <UNDEFINED> instruction: 0x612f4d52
 1bc:	392d6d72 	pushcc	{r1, r4, r5, r6, r8, sl, fp, sp, lr}
 1c0:	6172622d 	cmnvs	r2, sp, lsr #4
 1c4:	2068636e 	rsbcs	r6, r8, lr, ror #6
 1c8:	69766572 	ldmdbvs	r6!, {r1, r4, r5, r6, r8, sl, sp, lr}^
 1cc:	6e6f6973 			; <UNDEFINED> instruction: 0x6e6f6973
 1d0:	37373220 	ldrcc	r3, [r7, -r0, lsr #4]!
 1d4:	5d393935 			; <UNDEFINED> instruction: 0x5d393935
 1d8:	636d2d20 	cmnvs	sp, #32, 26	; 0x800
 1dc:	613d7570 	teqvs	sp, r0, ror r5
 1e0:	31316d72 	teqcc	r1, r2, ror sp
 1e4:	7a6a3637 	bvc	1a8dac8 <__bss_end__+0x1a83060>
 1e8:	20732d66 	rsbscs	r2, r3, r6, ror #26
 1ec:	75746d2d 	ldrbvc	r6, [r4, #-3373]!	; 0xfffff2d3
 1f0:	613d656e 	teqvs	sp, lr, ror #10
 1f4:	31316d72 	teqcc	r1, r2, ror sp
 1f8:	7a6a3637 	bvc	1a8dadc <__bss_end__+0x1a83074>
 1fc:	20732d66 	rsbscs	r2, r3, r6, ror #26
 200:	6c666d2d 	stclvs	13, cr6, [r6], #-180	; 0xffffff4c
 204:	2d74616f 	ldfcse	f6, [r4, #-444]!	; 0xfffffe44
 208:	3d696261 	sfmcc	f6, 2, [r9, #-388]!	; 0xfffffe7c
 20c:	74666f73 	strbtvc	r6, [r6], #-3955	; 0xfffff08d
 210:	616d2d20 	cmnvs	sp, r0, lsr #26
 214:	2d206d72 	stccs	13, cr6, [r0, #-456]!	; 0xfffffe38
 218:	6372616d 	cmnvs	r2, #1073741851	; 0x4000001b
 21c:	72613d68 	rsbvc	r3, r1, #104, 26	; 0x1a00
 220:	6b36766d 	blvs	d9dbdc <__bss_end__+0xd93174>
 224:	672d207a 			; <UNDEFINED> instruction: 0x672d207a
 228:	20626467 	rsbcs	r6, r2, r7, ror #8
 22c:	20674f2d 	rsbcs	r4, r7, sp, lsr #30
 230:	6474732d 	ldrbtvs	r7, [r4], #-813	; 0xfffffcd3
 234:	756e673d 	strbvc	r6, [lr, #-1853]!	; 0xfffff8c3
 238:	2d203939 			; <UNDEFINED> instruction: 0x2d203939
 23c:	65726666 	ldrbvs	r6, [r2, #-1638]!	; 0xfffff99a
 240:	61747365 	cmnvs	r4, r5, ror #6
 244:	6e69646e 	cdpvs	4, 6, cr6, cr9, cr14, {3}
 248:	65720067 	ldrbvs	r0, [r2, #-103]!	; 0xffffff99
 24c:	735f7366 	cmpvc	pc, #-1744830463	; 0x98000001
 250:	74726174 	ldrbtvc	r6, [r2], #-372	; 0xfffffe8c
 254:	66657200 	strbtvs	r7, [r5], -r0, lsl #4
 258:	696d5f73 	stmdbvs	sp!, {r0, r1, r4, r5, r6, r8, r9, sl, fp, ip, lr}^
 25c:	656c6464 	strbvs	r6, [ip, #-1124]!	; 0xfffffb9c
 260:	5f6b6300 	svcpl	0x006b6300
 264:	5f727470 	svcpl	0x00727470
 268:	625f6e69 	subsvs	r6, pc, #1680	; 0x690
 26c:	6b636f6c 	blvs	18dc024 <__bss_end__+0x18d15bc>
 270:	65727000 	ldrbvs	r7, [r2, #-0]!
 274:	616c5f76 	smcvs	50678	; 0xc5f6
 278:	46007473 			; <UNDEFINED> instruction: 0x46007473
 27c:	44454552 	strbmi	r4, [r5], #-1362	; 0xfffffaae
 280:	73696c00 	cmnvc	r9, #0, 24
 284:	70615f74 	rsbvc	r5, r1, r4, ror pc
 288:	646e6570 	strbtvs	r6, [lr], #-1392	; 0xfffffa90
 28c:	5f726b00 	svcpl	0x00726b00
 290:	65657266 	strbvs	r7, [r5, #-614]!	; 0xfffffd9a
 294:	5f6b6300 	svcpl	0x006b6300
 298:	73726966 	cmnvc	r2, #1671168	; 0x198000
 29c:	64685f74 	strbtvs	r5, [r8], #-3956	; 0xfffff08c
 2a0:	6b630072 	blvs	18c0470 <__bss_end__+0x18b5a08>
 2a4:	65657266 	strbvs	r7, [r5, #-614]!	; 0xfffffd9a
 2a8:	73696c00 	cmnvc	r9, #0, 24
 2ac:	65725f74 	ldrbvs	r5, [r2, #-3956]!	; 0xfffff08c
 2b0:	65766f6d 	ldrbvs	r6, [r6, #-3949]!	; 0xfffff093
 2b4:	5f6b6300 	svcpl	0x006b6300
 2b8:	5f727470 	svcpl	0x00727470
 2bc:	615f7369 	cmpvs	pc, r9, ror #6
 2c0:	636f6c6c 	cmnvs	pc, #108, 24	; 0x6c00
 2c4:	63006465 	movwvs	r6, #1125	; 0x465
 2c8:	656e5f6b 	strbvs	r5, [lr, #-3947]!	; 0xfffff095
 2cc:	685f7478 	ldmdavs	pc, {r3, r4, r5, r6, sl, ip, sp, lr}^	; <UNPREDICTABLE>
 2d0:	63007264 	movwvs	r7, #612	; 0x264
 2d4:	6c6c616b 	stfvse	f6, [ip], #-428	; 0xfffffe54
 2d8:	632e636f 			; <UNDEFINED> instruction: 0x632e636f
 2dc:	5f726b00 	svcpl	0x00726b00
 2e0:	7478656e 	ldrbtvc	r6, [r8], #-1390	; 0xfffffa92
 2e4:	7264685f 	rsbvc	r6, r4, #6225920	; 0x5f0000
 2e8:	5f726b00 	svcpl	0x00726b00
 2ec:	73726966 	cmnvc	r2, #1671168	; 0x198000
 2f0:	64685f74 	strbtvs	r5, [r8], #-3956	; 0xfffff08c
 2f4:	4c410072 	mcrrmi	0, 7, r0, r1, cr2
 2f8:	45434f4c 	strbmi	r4, [r3, #-3916]	; 0xfffff0b4
 2fc:	6b630044 	blvs	18c0414 <__bss_end__+0x18b59ac>
 300:	7264685f 	rsbvc	r6, r4, #6225920	; 0x5f0000
 304:	6174735f 	cmnvs	r4, pc, asr r3
 308:	63007472 	movwvs	r7, #1138	; 0x472
 30c:	64685f6b 	strbtvs	r5, [r8], #-3947	; 0xfffff095
 310:	6e655f72 	mcrvs	15, 3, r5, cr5, cr2, {3}
 314:	72700064 	rsbsvc	r0, r0, #100, 0	; 0x64
 318:	63007665 	movwvs	r7, #1637	; 0x665
 31c:	626e5f6b 	rsbvs	r5, lr, #428	; 0x1ac
 320:	73657479 	cmnvc	r5, #2030043136	; 0x79000000
 324:	5f726b00 	svcpl	0x00726b00
 328:	6c6c616d 	stfvse	f6, [ip], #-436	; 0xfffffe4c
 32c:	7300636f 	movwvc	r6, #879	; 0x36f
 330:	6b636174 	blvs	18d8908 <__bss_end__+0x18cdea0>
 334:	706f745f 	rsbvc	r7, pc, pc, asr r4	; <UNPREDICTABLE>
 338:	6f6c6200 	svcvs	0x006c6200
 33c:	735f6b63 	cmpvc	pc, #101376	; 0x18c00
 340:	74726174 	ldrbtvc	r6, [r2], #-372	; 0xfffffe8c
 344:	72616d00 	rsbvc	r6, r1, #0, 26
 348:	6c615f6b 	stclvs	15, cr5, [r1], #-428	; 0xfffffe54
 34c:	6d69006c 	stclvs	0, cr0, [r9, #-432]!	; 0xfffffe50
 350:	6d656c70 	stclvs	12, cr6, [r5, #-448]!	; 0xfffffe40
 354:	5f746e65 	svcpl	0x00746e65
 358:	73696874 	cmnvc	r9, #116, 16	; 0x740000
 35c:	625f5f00 	subsvs	r5, pc, #0, 30
 360:	735f7373 	cmpvc	pc, #-872415231	; 0xcc000001
 364:	74726174 	ldrbtvc	r6, [r2], #-372	; 0xfffffe8c
 368:	6e005f5f 	mcrvs	15, 0, r5, cr0, cr15, {2}
 36c:	775f6d75 			; <UNDEFINED> instruction: 0x775f6d75
 370:	7364726f 	cmnvc	r4, #-268435450	; 0xf0000006
 374:	6c626e00 	stclvs	14, cr6, [r2], #-0
 378:	736b636f 	cmnvc	fp, #-1140850687	; 0xbc000001
 37c:	696e6900 	stmdbvs	lr!, {r8, fp, sp, lr}^
 380:	00705f74 	rsbseq	r5, r0, r4, ror pc
 384:	7479626e 	ldrbtvc	r6, [r9], #-622	; 0xfffffd92
 388:	665f7365 	ldrbvs	r7, [pc], -r5, ror #6
 38c:	64656572 	strbtvs	r6, [r5], #-1394	; 0xfffffa8e
 390:	636e6900 	cmnvs	lr, #0, 18
 394:	656d6572 	strbvs	r6, [sp, #-1394]!	; 0xfffffa8e
 398:	6d00746e 	cfstrsvs	mvf7, [r0, #-440]	; 0xfffffe48
 39c:	65627961 	strbvs	r7, [r2, #-2401]!	; 0xfffff69f
 3a0:	7272655f 	rsbsvc	r6, r2, #398458880	; 0x17c00000
 3a4:	0073726f 	rsbseq	r7, r3, pc, ror #4
 3a8:	675f6b63 	ldrbvs	r6, [pc, -r3, ror #22]
 3ac:	75640063 	strbvc	r0, [r4, #-99]!	; 0xffffff9d
 3b0:	725f706d 	subsvc	r7, pc, #109, 0	; 0x6d
 3b4:	00736765 	rsbseq	r6, r3, r5, ror #14
 3b8:	61656c6e 	cmnvs	r5, lr, ror #24
 3bc:	5f00736b 	svcpl	0x0000736b
 3c0:	7461645f 	strbtvc	r6, [r1], #-1119	; 0xfffffba1
 3c4:	6e655f61 	cdpvs	15, 6, cr5, cr5, cr1, {3}
 3c8:	005f5f64 	subseq	r5, pc, r4, ror #30
 3cc:	63656863 	cmnvs	r5, #6488064	; 0x630000
 3d0:	6f6e5f6b 	svcvs	0x006e5f6b
 3d4:	61656c5f 	cmnvs	r5, pc, asr ip
 3d8:	6273006b 	rsbsvs	r0, r3, #107, 0	; 0x6b
 3dc:	69006b72 	stmdbvs	r0, {r1, r4, r5, r6, r8, r9, fp, sp, lr}
 3e0:	74705f73 	ldrbtvc	r5, [r0], #-3955	; 0xfffff08d
 3e4:	6c620072 	stclvs	0, cr0, [r2], #-456	; 0xfffffe38
 3e8:	5f6b636f 	svcpl	0x006b636f
 3ec:	00646e65 	rsbeq	r6, r4, r5, ror #28
 3f0:	6572666e 	ldrbvs	r6, [r2, #-1646]!	; 0xfffff992
 3f4:	63006465 	movwvs	r6, #1125	; 0x465
 3f8:	5f727275 	svcpl	0x00727275
 3fc:	64726f77 	ldrbtvs	r6, [r2], #-3959	; 0xfffff089
 400:	5f6e6900 	svcpl	0x006e6900
 404:	70616568 	rsbvc	r6, r1, r8, ror #10
 408:	656e6f00 	strbvs	r6, [lr, #-3840]!	; 0xfffff100
 40c:	6300626d 	movwvs	r6, #621	; 0x26d
 410:	00727275 	rsbseq	r7, r2, r5, ror r2
 414:	672d6b63 	strvs	r6, [sp, -r3, ror #22]!
 418:	00632e63 	rsbeq	r2, r3, r3, ror #28
 41c:	63656863 	cmnvs	r5, #6488064	; 0x630000
 420:	68735f6b 	ldmdavs	r3!, {r0, r1, r3, r5, r6, r8, r9, sl, fp, ip, lr}^
 424:	646c756f 	strbtvs	r7, [ip], #-1391	; 0xfffffa91
 428:	61656c5f 	cmnvs	r5, pc, asr ip
 42c:	5f5f006b 	svcpl	0x005f006b
 430:	5f737362 	svcpl	0x00737362
 434:	5f646e65 	svcpl	0x00646e65
 438:	6d6b005f 	stclvs	0, cr0, [fp, #-380]!	; 0xfffffe84
 43c:	6f6c6c61 	svcvs	0x006c6c61
 440:	6d6b0063 	stclvs	0, cr0, [fp, #-396]!	; 0xfffffe74
 444:	6f6c6c61 	svcvs	0x006c6c61
 448:	6e695f63 	cdpvs	15, 6, cr5, cr9, cr3, {3}
 44c:	735f7469 	cmpvc	pc, #1761607680	; 0x69000000
 450:	735f7465 	cmpvc	pc, #1694498816	; 0x65000000
 454:	74726174 	ldrbtvc	r6, [r2], #-372	; 0xfffffe8c
 458:	65777300 	ldrbvs	r7, [r7, #-768]!	; 0xfffffd00
 45c:	6c5f7065 	mrrcvs	0, 6, r7, pc, cr5	; <UNPREDICTABLE>
 460:	006b6165 	rsbeq	r6, fp, r5, ror #2
 464:	61645f5f 	cmnvs	r4, pc, asr pc
 468:	735f6174 	cmpvc	pc, #29
 46c:	74726174 	ldrbtvc	r6, [r2], #-372	; 0xfffffe8c
 470:	73005f5f 	movwvc	r5, #3935	; 0xf5f
 474:	70656577 	rsbvc	r6, r5, r7, ror r5
 478:	6572665f 	ldrbvs	r6, [r2, #-1631]!	; 0xfffff9a1
 47c:	61770065 	cmnvs	r7, r5, rrx
 480:	6e5f6e72 	mrcvs	14, 2, r6, cr15, cr2, {3}
 484:	74735f6f 	ldrbtvc	r5, [r3], #-3951	; 0xfffff091
 488:	5f747261 	svcpl	0x00747261
 48c:	5f666572 	svcpl	0x00666572
 490:	65680070 	strbvs	r0, [r8, #-112]!	; 0xffffff90
 494:	72656461 	rsbvc	r6, r5, #1627389952	; 0x61000000
 498:	65727000 	ldrbvs	r7, [r2, #-0]!
 49c:	61007076 	tstvs	r0, r6, ror r0
 4a0:	6e67696c 	vnmulvs.f16	s13, s14, s25	; <UNPREDICTABLE>
 4a4:	65726600 	ldrbvs	r6, [r2, #-1536]!	; 0xfffffa00
 4a8:	6e007065 	cdpvs	0, 0, cr7, cr0, cr5, {3}
 4ac:	74696e75 	strbtvc	r6, [r9], #-3701	; 0xfffff18b
 4b0:	726b0073 	rsbvc	r0, fp, #115, 0	; 0x73
 4b4:	6c616d2d 	stclvs	13, cr6, [r1], #-180	; 0xffffff4c
 4b8:	2e636f6c 	cdpcs	15, 6, cr6, cr3, cr12, {3}
 4bc:	6f640063 	svcvs	0x00640063
 4c0:	656c6275 	strbvs	r6, [ip, #-629]!	; 0xfffffd8b
 4c4:	73616200 	cmnvc	r1, #0, 4
 4c8:	726b0065 	rsbvc	r0, fp, #101, 0	; 0x65
 4cc:	726f6d5f 	rsbvc	r6, pc, #6080	; 0x17c0
 4d0:	726f6365 	rsbvc	r6, pc, #-1811939327	; 0x94000001
 4d4:	69730065 	ldmdbvs	r3!, {r0, r2, r5, r6}^
 4d8:	4800657a 	stmdami	r0, {r1, r3, r4, r5, r6, r8, sl, sp, lr}
 4dc:	65646165 	strbvs	r6, [r4, #-357]!	; 0xfffffe9b
 4e0:	4e470072 	mcrmi	0, 2, r0, cr7, cr2, {3}
 4e4:	39432055 	stmdbcc	r3, {r0, r2, r4, r6, sp}^
 4e8:	2e392039 	mrccs	0, 1, r2, cr9, cr9, {1}
 4ec:	20312e32 	eorscs	r2, r1, r2, lsr lr
 4f0:	39313032 	ldmdbcc	r1!, {r1, r4, r5, ip, sp}
 4f4:	35323031 	ldrcc	r3, [r2, #-49]!	; 0xffffffcf
 4f8:	65722820 	ldrbvs	r2, [r2, #-2080]!	; 0xfffff7e0
 4fc:	7361656c 	cmnvc	r1, #108, 10	; 0x1b000000
 500:	5b202965 	blpl	80aa9c <__bss_end__+0x800034>
 504:	2f4d5241 	svccs	0x004d5241
 508:	2d6d7261 	sfmcs	f7, 2, [sp, #-388]!	; 0xfffffe7c
 50c:	72622d39 	rsbvc	r2, r2, #3648	; 0xe40
 510:	68636e61 	stmdavs	r3!, {r0, r5, r6, r9, sl, fp, sp, lr}^
 514:	76657220 	strbtvc	r7, [r5], -r0, lsr #4
 518:	6f697369 	svcvs	0x00697369
 51c:	3732206e 	ldrcc	r2, [r2, -lr, rrx]!
 520:	39393537 	ldmdbcc	r9!, {r0, r1, r2, r4, r5, r8, sl, ip, sp}
 524:	6d2d205d 	stcvs	0, cr2, [sp, #-372]!	; 0xfffffe8c
 528:	3d757063 	ldclcc	0, cr7, [r5, #-396]!	; 0xfffffe74
 52c:	316d7261 	cmncc	sp, r1, ror #4
 530:	6a363731 	bvs	d8e1fc <__bss_end__+0xd83794>
 534:	732d667a 			; <UNDEFINED> instruction: 0x732d667a
 538:	746d2d20 	strbtvc	r2, [sp], #-3360	; 0xfffff2e0
 53c:	3d656e75 	stclcc	14, cr6, [r5, #-468]!	; 0xfffffe2c
 540:	316d7261 	cmncc	sp, r1, ror #4
 544:	6a363731 	bvs	d8e210 <__bss_end__+0xd837a8>
 548:	732d667a 			; <UNDEFINED> instruction: 0x732d667a
 54c:	666d2d20 	strbtvs	r2, [sp], -r0, lsr #26
 550:	74616f6c 	strbtvc	r6, [r1], #-3948	; 0xfffff094
 554:	6962612d 	stmdbvs	r2!, {r0, r2, r3, r5, r8, sp, lr}^
 558:	666f733d 			; <UNDEFINED> instruction: 0x666f733d
 55c:	6d2d2074 	stcvs	0, cr2, [sp, #-464]!	; 0xfffffe30
 560:	206d7261 	rsbcs	r7, sp, r1, ror #4
 564:	72616d2d 	rsbvc	r6, r1, #2880	; 0xb40
 568:	613d6863 	teqvs	sp, r3, ror #16
 56c:	36766d72 			; <UNDEFINED> instruction: 0x36766d72
 570:	2d207a6b 	vstmdbcs	r0!, {s14-s120}
 574:	62646767 	rsbvs	r6, r4, #27000832	; 0x19c0000
 578:	67672d20 	strbvs	r2, [r7, -r0, lsr #26]!
 57c:	2d206264 	sfmcs	f6, 4, [r0, #-400]!	; 0xfffffe70
 580:	2d20674f 	stccs	7, cr6, [r0, #-316]!	; 0xfffffec4
 584:	2d20674f 	stccs	7, cr6, [r0, #-316]!	; 0xfffffec4
 588:	3d647473 	cfstrdcc	mvd7, [r4, #-460]!	; 0xfffffe34
 58c:	39756e67 	ldmdbcc	r5!, {r0, r1, r2, r5, r6, r9, sl, fp, sp, lr}^
 590:	732d2039 			; <UNDEFINED> instruction: 0x732d2039
 594:	673d6474 			; <UNDEFINED> instruction: 0x673d6474
 598:	3939756e 	ldmdbcc	r9!, {r1, r2, r3, r5, r6, r8, sl, ip, sp, lr}
 59c:	66662d20 	strbtvs	r2, [r6], -r0, lsr #26
 5a0:	73656572 	cmnvc	r5, #478150656	; 0x1c800000
 5a4:	646e6174 	strbtvs	r6, [lr], #-372	; 0xfffffe8c
 5a8:	00676e69 	rsbeq	r6, r7, r9, ror #28
 5ac:	657a6973 	ldrbvs	r6, [sl, #-2419]!	; 0xfffff68d
 5b0:	2e00745f 	cfmvsrcs	mvf0, r7
 5b4:	62696c2f 	rsbvs	r6, r9, #12032	; 0x2f00
 5b8:	656d2f63 	strbvs	r2, [sp, #-3939]!	; 0xfffff09d
 5bc:	7465736d 	strbtvc	r7, [r5], #-877	; 0xfffffc93
 5c0:	2f00632e 	svccs	0x0000632e
 5c4:	72657355 	rsbvc	r7, r5, #1409286145	; 0x54000001
 5c8:	72742f73 	rsbsvc	r2, r4, #460	; 0x1cc
 5cc:	65747369 	ldrbvs	r7, [r4, #-873]!	; 0xfffffc97
 5d0:	6c6f6e6e 	stclvs	14, cr6, [pc], #-440	; 420 <__code_start__-0x7be0>
 5d4:	6e616d6c 	cdpvs	13, 6, cr6, cr1, cr12, {3}
 5d8:	636f442f 	cmnvs	pc, #788529152	; 0x2f000000
 5dc:	6e656d75 	mcrvs	13, 3, r6, cr5, cr5, {3}
 5e0:	532f7374 			; <UNDEFINED> instruction: 0x532f7374
 5e4:	6e697270 	mcrvs	2, 3, r7, cr9, cr0, {3}
 5e8:	75515f67 	ldrbvc	r5, [r1, #-3943]	; 0xfffff099
 5ec:	65747261 	ldrbvs	r7, [r4, #-609]!	; 0xfffffd9f
 5f0:	30325f72 	eorscc	r5, r2, r2, ror pc
 5f4:	432f3232 			; <UNDEFINED> instruction: 0x432f3232
 5f8:	30343253 	eorscc	r3, r4, r3, asr r2
 5fc:	732d584c 			; <UNDEFINED> instruction: 0x732d584c
 600:	32327270 	eorscc	r7, r2, #112, 4
 604:	62696c2f 	rsbvs	r6, r9, #12032	; 0x2f00
 608:	61006970 	tstvs	r0, r0, ror r9
 60c:	00736772 	rsbseq	r6, r3, r2, ror r7
 610:	705f6176 	subsvc	r6, pc, r6, ror r1	; <UNPREDICTABLE>
 614:	746e6972 	strbtvc	r6, [lr], #-2418	; 0xfffff68e
 618:	5f5f006b 	svcpl	0x005f006b
 61c:	63756e67 	cmnvs	r5, #1648	; 0x670
 620:	5f61765f 	svcpl	0x0061765f
 624:	7473696c 	ldrbtvc	r6, [r3], #-2412	; 0xfffff694
 628:	765f5f00 	ldrbvc	r5, [pc], -r0, lsl #30
 62c:	696c5f61 	stmdbvs	ip!, {r0, r5, r6, r8, r9, sl, fp, ip, lr}^
 630:	5f007473 	svcpl	0x00007473
 634:	0070615f 	rsbseq	r6, r0, pc, asr r1
 638:	696c2f2e 	stmdbvs	ip!, {r1, r2, r3, r5, r8, r9, sl, fp, sp}^
 63c:	702f6362 	eorvc	r6, pc, r2, ror #6
 640:	746e6972 	strbtvc	r6, [lr], #-2418	; 0xfffff68e
 644:	00632e6b 	rsbeq	r2, r3, fp, ror #28
 648:	65746e69 	ldrbvs	r6, [r4, #-3689]!	; 0xfffff197
 64c:	6c616e72 	stclvs	14, cr6, [r1], #-456	; 0xfffffe38
 650:	7475705f 	ldrbtvc	r7, [r5], #-95	; 0xffffffa1
 654:	2f2e006b 	svccs	0x002e006b
 658:	6362696c 	cmnvs	r2, #108, 18	; 0x1b0000
 65c:	7475702f 	ldrbtvc	r7, [r5], #-47	; 0xffffffd1
 660:	00632e6b 	rsbeq	r2, r3, fp, ror #28
 664:	69647369 	stmdbvs	r4!, {r0, r3, r5, r6, r8, r9, ip, sp, lr}^
 668:	00746967 	rsbseq	r6, r4, r7, ror #18
 66c:	746e6975 	strbtvc	r6, [lr], #-2421	; 0xfffff68b
 670:	745f3436 	ldrbvc	r3, [pc], #-1078	; 678 <__code_start__-0x7988>
 674:	6c2f2e00 	stcvs	14, cr2, [pc], #-0	; 67c <__code_start__-0x7984>
 678:	2f636269 	svccs	0x00636269
 67c:	702d6176 	eorvc	r6, sp, r6, ror r1
 680:	746e6972 	strbtvc	r6, [lr], #-2418	; 0xfffff68e
 684:	00632e6b 	rsbeq	r2, r3, fp, ror #28
 688:	6f635f5f 	svcvs	0x00635f5f
 68c:	735f6564 	cmpvc	pc, #100, 10	; 0x19000000
 690:	74726174 	ldrbtvc	r6, [r2], #-372	; 0xfffffe8c
 694:	77005f5f 	smlsdvc	r0, pc, pc, r5	; <UNPREDICTABLE>
 698:	68746469 	ldmdavs	r4!, {r0, r3, r5, r6, sl, sp, lr}^
 69c:	74757000 	ldrbtvc	r7, [r5], #-0
 6a0:	70665f63 	rsbvc	r5, r6, r3, ror #30
 6a4:	685f5f00 	ldmdavs	pc, {r8, r9, sl, fp, ip, lr}^	; <UNPREDICTABLE>
 6a8:	5f706165 	svcpl	0x00706165
 6ac:	72617473 	rsbvc	r7, r1, #1929379840	; 0x73000000
 6b0:	005f5f74 	subseq	r5, pc, r4, ror pc	; <UNPREDICTABLE>
 6b4:	5f697072 	svcpl	0x00697072
 6b8:	5f746573 	svcpl	0x00746573
 6bc:	7074756f 	rsbsvc	r7, r4, pc, ror #10
 6c0:	66007475 			; <UNDEFINED> instruction: 0x66007475
 6c4:	735f746d 	cmpvc	pc, #1828716544	; 0x6d000000
 6c8:	74726174 	ldrbtvc	r6, [r2], #-372	; 0xfffffe8c
 6cc:	72747300 	rsbsvc	r7, r4, #0, 6
 6d0:	00797063 	rsbseq	r7, r9, r3, rrx
 6d4:	5f67656e 	svcpl	0x0067656e
 6d8:	5f5f0070 	svcpl	0x005f0070
 6dc:	65646f63 	strbvs	r6, [r4, #-3939]!	; 0xfffff09d
 6e0:	646e655f 	strbtvs	r6, [lr], #-1375	; 0xfffffaa1
 6e4:	65005f5f 	strvs	r5, [r0, #-3935]	; 0xfffff0a1
 6e8:	0074696d 	rsbseq	r6, r4, sp, ror #18
 6ec:	73747570 	cmnvc	r4, #112, 10	; 0x1c000000
 6f0:	0070665f 	rsbseq	r6, r0, pc, asr r6
 6f4:	65766572 	ldrbvs	r6, [r6, #-1394]!	; 0xfffffa8e
 6f8:	00657372 	rsbeq	r7, r5, r2, ror r3
 6fc:	63727473 	cmnvs	r2, #1929379840	; 0x73000000
 700:	73007461 	movwvc	r7, #1121	; 0x461
 704:	6d637274 	sfmvs	f7, 2, [r3, #-464]!	; 0xfffffe30
 708:	5f5f0070 	svcpl	0x005f0070
 70c:	676f7270 			; <UNDEFINED> instruction: 0x676f7270
 710:	646e655f 	strbtvs	r6, [lr], #-1375	; 0xfffffaa1
 714:	6e005f5f 	mcrvs	15, 0, r5, cr0, cr15, {2}
 718:	00316d75 	eorseq	r6, r1, r5, ror sp
 71c:	6e727473 	mrcvs	4, 3, r7, cr2, cr3, {3}
 720:	00706d63 	rsbseq	r6, r0, r3, ror #26
 724:	6e676973 			; <UNDEFINED> instruction: 0x6e676973
 728:	705f6465 	subsvc	r6, pc, r5, ror #8
 72c:	69707200 	ldmdbvs	r0!, {r9, ip, sp, lr}^
 730:	6265725f 	rsbvs	r7, r5, #-268435451	; 0xf0000005
 734:	00746f6f 	rsbseq	r6, r4, pc, ror #30
 738:	616c6564 	cmnvs	ip, r4, ror #10
 73c:	736d5f79 	cmnvc	sp, #484	; 0x1e4
 740:	732f2e00 			; <UNDEFINED> instruction: 0x732f2e00
 744:	66666174 			; <UNDEFINED> instruction: 0x66666174
 748:	6372732d 	cmnvs	r2, #-1275068416	; 0xb4000000
 74c:	656c632f 	strbvs	r6, [ip, #-815]!	; 0xfffffcd1
 750:	722d6e61 	eorvc	r6, sp, #1552	; 0x610
 754:	6f6f6265 	svcvs	0x006f6265
 758:	00632e74 	rsbeq	r2, r3, r4, ror lr
 75c:	74726175 	ldrbtvc	r6, [r2], #-373	; 0xfffffe8b
 760:	756c665f 	strbvc	r6, [ip, #-1631]!	; 0xfffff9a1
 764:	745f6873 	ldrbvc	r6, [pc], #-2163	; 76c <__code_start__-0x7894>
 768:	635f0078 	cmpvs	pc, #120, 0	; 0x78
 76c:	72617473 	rsbvc	r7, r1, #1929379840	; 0x73000000
 770:	73620074 	cmnvc	r2, #116, 0	; 0x74
 774:	6e655f73 	mcrvs	15, 3, r5, cr5, cr3, {3}
 778:	61750064 	cmnvs	r5, r4, rrx
 77c:	695f7472 	ldmdbvs	pc, {r1, r4, r5, r6, sl, ip, sp, lr}^	; <UNPREDICTABLE>
 780:	0074696e 	rsbseq	r6, r4, lr, ror #18
 784:	74737563 	ldrbtvc	r7, [r3], #-1379	; 0xfffffa9d
 788:	6c5f6d6f 	mrrcvs	13, 6, r6, pc, cr15	; <UNPREDICTABLE>
 78c:	6564616f 	strbvs	r6, [r4, #-367]!	; 0xfffffe91
 790:	2f2e0072 	svccs	0x002e0072
 794:	66617473 			; <UNDEFINED> instruction: 0x66617473
 798:	72732d66 	rsbsvc	r2, r3, #6528	; 0x1980
 79c:	73632f63 	cmnvc	r3, #396	; 0x18c
 7a0:	74726174 	ldrbtvc	r6, [r2], #-372	; 0xfffffe8c
 7a4:	2e00632e 	cdpcs	3, 0, cr6, cr0, cr14, {1}
 7a8:	6174732f 	cmnvs	r4, pc, lsr #6
 7ac:	732d6666 			; <UNDEFINED> instruction: 0x732d6666
 7b0:	632f6372 			; <UNDEFINED> instruction: 0x632f6372
 7b4:	6f747375 	svcvs	0x00747375
 7b8:	6f6c2d6d 	svcvs	0x006c2d6d
 7bc:	72656461 	rsbvc	r6, r5, #1627389952	; 0x61000000
 7c0:	7200632e 	andvc	r6, r0, #-1207959552	; 0xb8000000
 7c4:	6f6f6265 	svcvs	0x006f6265
 7c8:	61635f74 	smcvs	13812	; 0x35f4
 7cc:	756f6c6c 	strbvc	r6, [pc, #-3180]!	; fffffb68 <__bss_end__+0xffff5100>
 7d0:	4d500074 	ldclmi	0, cr0, [r0, #-464]	; 0xfffffe30
 7d4:	4f44575f 	svcmi	0x0044575f
 7d8:	55500047 	ldrbpl	r0, [r0, #-71]	; 0xffffffb9
 7dc:	00323354 	eorseq	r3, r2, r4, asr r3
 7e0:	5f746573 	svcpl	0x00746573
 7e4:	72657375 	rsbvc	r7, r5, #-738197503	; 0xd4000001
 7e8:	76656c5f 			; <UNDEFINED> instruction: 0x76656c5f
 7ec:	2e006c65 	cdpcs	12, 0, cr6, cr0, cr5, {3}
 7f0:	6174732f 	cmnvs	r4, pc, lsr #6
 7f4:	732d6666 			; <UNDEFINED> instruction: 0x732d6666
 7f8:	722f6372 	eorvc	r6, pc, #-939524095	; 0xc8000001
 7fc:	6f6f6265 	svcvs	0x006f6265
 800:	00632e74 	rsbeq	r2, r3, r4, ror lr
 804:	505f4d50 	subspl	r4, pc, r0, asr sp	; <UNPREDICTABLE>
 808:	57535341 	ldrbpl	r5, [r3, -r1, asr #6]
 80c:	0044524f 	subeq	r5, r4, pc, asr #4
 810:	755f7461 	ldrbvc	r7, [pc, #-1121]	; 3b7 <__code_start__-0x7c49>
 814:	5f726573 	svcpl	0x00726573
 818:	6576656c 	ldrbvs	r6, [r6, #-1388]!	; 0xfffffa94
 81c:	4d50006c 	ldclmi	0, cr0, [r0, #-432]	; 0xfffffe50
 820:	5453525f 	ldrbpl	r5, [r3], #-607	; 0xfffffda1
 824:	52575f43 	subspl	r5, r7, #268	; 0x10c
 828:	5f474643 	svcpl	0x00474643
 82c:	4c4c5546 	cfstr64mi	mvdx5, [ip], {70}	; 0x46
 830:	5345525f 	movtpl	r5, #21087	; 0x525f
 834:	50005445 	andpl	r5, r0, r5, asr #8
 838:	53525f4d 	cmppl	r2, #308	; 0x134
 83c:	63004354 	movwvs	r4, #852	; 0x354
 840:	00727370 	rsbseq	r7, r2, r0, ror r3
 844:	5f766564 	svcpl	0x00766564
 848:	72726162 	rsbsvc	r6, r2, #-2147483624	; 0x80000018
 84c:	00726569 	rsbseq	r6, r2, r9, ror #10
 850:	616c6564 	cmnvs	ip, r4, ror #10
 854:	65735f79 	ldrbvs	r5, [r3, #-3961]!	; 0xfffff087
 858:	2f2e0063 	svccs	0x002e0063
 85c:	66617473 			; <UNDEFINED> instruction: 0x66617473
 860:	72732d66 	rsbsvc	r2, r3, #6528	; 0x1980
 864:	69742f63 	ldmdbvs	r4!, {r0, r1, r5, r6, r8, r9, sl, fp, sp}^
 868:	2e72656d 	cdpcs	5, 7, cr6, cr2, cr13, {3}
 86c:	45470063 	strbmi	r0, [r7, #-99]	; 0xffffff9d
 870:	00323354 	eorseq	r3, r2, r4, asr r3
 874:	656d6974 	strbvs	r6, [sp, #-2420]!	; 0xfffff68c
 878:	65675f72 	strbvs	r5, [r7, #-3954]!	; 0xfffff08e
 87c:	73755f74 	cmnvc	r5, #116, 30	; 0x1d0
 880:	64006365 	strvs	r6, [r0], #-869	; 0xfffffc9b
 884:	79616c65 	stmdbvc	r1!, {r0, r2, r5, r6, sl, fp, sp, lr}^
 888:	0073755f 	rsbseq	r7, r3, pc, asr r5
 88c:	656d6974 	strbvs	r6, [sp, #-2420]!	; 0xfffff68c
 890:	65675f72 	strbvs	r5, [r7, #-3954]!	; 0xfffff08e
 894:	73755f74 	cmnvc	r5, #116, 30	; 0x1d0
 898:	725f6365 	subsvc	r6, pc, #-1811939327	; 0x94000001
 89c:	70007761 	andvc	r7, r0, r1, ror #14
 8a0:	32337475 	eorscc	r7, r3, #1962934272	; 0x75000000
 8a4:	75616200 	strbvc	r6, [r1, #-512]!	; 0xfffffe00
 8a8:	61765f64 	cmnvs	r6, r4, ror #30
 8ac:	7473006c 	ldrbtvc	r0, [r3], #-108	; 0xffffff94
 8b0:	75007461 	strvc	r7, [r0, #-1121]	; 0xfffffb9f
 8b4:	5f747261 	svcpl	0x00747261
 8b8:	5f6e6163 	svcpl	0x006e6163
 8bc:	63746567 	cmnvs	r4, #432013312	; 0x19c00000
 8c0:	49504700 	ldmdbmi	r0, {r8, r9, sl, lr}^
 8c4:	55465f4f 	strbpl	r5, [r6, #-3919]	; 0xfffff0b1
 8c8:	4f5f434e 	svcmi	0x005f434e
 8cc:	55505455 	ldrbpl	r5, [r0, #-1109]	; 0xfffffbab
 8d0:	75610054 	strbvc	r0, [r1, #-84]!	; 0xffffffac
 8d4:	65705f78 	ldrbvs	r5, [r0, #-3960]!	; 0xfffff088
 8d8:	68706972 	ldmdavs	r0!, {r1, r4, r5, r6, r8, fp, sp, lr}^
 8dc:	61750073 	cmnvs	r5, r3, ror r0
 8e0:	632e7472 			; <UNDEFINED> instruction: 0x632e7472
 8e4:	72617500 	rsbvc	r7, r1, #0, 10
 8e8:	61635f74 	smcvs	13812	; 0x35f4
 8ec:	75705f6e 	ldrbvc	r5, [r0, #-3950]!	; 0xfffff092
 8f0:	75006374 	strvc	r6, [r0, #-884]	; 0xfffffc8c
 8f4:	5f747261 	svcpl	0x00747261
 8f8:	695f7874 	ldmdbvs	pc, {r2, r4, r5, r6, fp, ip, sp, lr}^	; <UNPREDICTABLE>
 8fc:	6d655f73 	stclvs	15, cr5, [r5, #-460]!	; 0xfffffe34
 900:	00797470 	rsbseq	r7, r9, r0, ror r4
 904:	4f495047 	svcmi	0x00495047
 908:	4e55465f 	mrcmi	6, 2, r4, cr5, cr15, {2}
 90c:	4c415f43 	mcrrmi	15, 4, r5, r1, cr3
 910:	47003054 	smlsdmi	r0, r4, r0, r3
 914:	5f4f4950 	svcpl	0x004f4950
 918:	434e5546 	movtmi	r5, #58694	; 0xe546
 91c:	544c415f 	strbpl	r4, [ip], #-351	; 0xfffffea1
 920:	50470031 	subpl	r0, r7, r1, lsr r0
 924:	465f4f49 	ldrbmi	r4, [pc], -r9, asr #30
 928:	5f434e55 	svcpl	0x00434e55
 92c:	32544c41 	subscc	r4, r4, #16640	; 0x4100
 930:	49504700 	ldmdbmi	r0, {r8, r9, sl, lr}^
 934:	55465f4f 	strbpl	r5, [r6, #-3919]	; 0xfffff0b1
 938:	415f434e 	cmpmi	pc, lr, asr #6
 93c:	0033544c 	eorseq	r5, r3, ip, asr #8
 940:	4f495047 	svcmi	0x00495047
 944:	4e55465f 	mrcmi	6, 2, r4, cr5, cr15, {2}
 948:	4c415f43 	mcrrmi	15, 4, r5, r1, cr3
 94c:	2f003554 	svccs	0x00003554
 950:	656d6f68 	strbvs	r6, [sp, #-3944]!	; 0xfffff098
 954:	676e652f 	strbvs	r6, [lr, -pc, lsr #10]!
 958:	2f72656c 	svccs	0x0072656c
 95c:	73616c63 	cmnvc	r1, #25344	; 0x6300
 960:	73632f73 	cmnvc	r3, #460	; 0x1cc
 964:	6c303432 	cfldrsvs	mvf3, [r0], #-200	; 0xffffff38
 968:	32322d78 	eorscc	r2, r2, #120, 26	; 0x1e00
 96c:	2f727073 	svccs	0x00727073
 970:	7062696c 	rsbvc	r6, r2, ip, ror #18
 974:	74732f69 	ldrbtvc	r2, [r3], #-3945	; 0xfffff097
 978:	2d666661 	stclcs	6, cr6, [r6, #-388]!	; 0xfffffe7c
 97c:	76697270 			; <UNDEFINED> instruction: 0x76697270
 980:	00657461 	rsbeq	r7, r5, r1, ror #8
 984:	64756162 	ldrbtvs	r6, [r5], #-354	; 0xfffffe9e
 988:	78756100 	ldmdavc	r5!, {r8, sp, lr}^
 98c:	616e655f 	cmnvs	lr, pc, asr r5
 990:	73656c62 	cmnvc	r5, #25088	; 0x6200
 994:	72617500 	rsbvc	r7, r1, #0, 10
 998:	65675f74 	strbvs	r5, [r7, #-3956]!	; 0xfffff08c
 99c:	47006374 	smlsdxmi	r0, r4, r3, r6
 9a0:	4320554e 			; <UNDEFINED> instruction: 0x4320554e
 9a4:	31203939 			; <UNDEFINED> instruction: 0x31203939
 9a8:	2e332e30 	mrccs	14, 1, r2, cr3, cr0, {1}
 9ac:	30322031 	eorscc	r2, r2, r1, lsr r0
 9b0:	38303132 	ldmdacc	r0!, {r1, r4, r5, r8, ip, sp}
 9b4:	28203432 	stmdacs	r0!, {r1, r4, r5, sl, ip, sp}
 9b8:	656c6572 	strbvs	r6, [ip, #-1394]!	; 0xfffffa8e
 9bc:	29657361 	stmdbcs	r5!, {r0, r5, r6, r8, r9, ip, sp, lr}^
 9c0:	636d2d20 	cmnvs	sp, #32, 26	; 0x800
 9c4:	613d7570 	teqvs	sp, r0, ror r5
 9c8:	31316d72 	teqcc	r1, r2, ror sp
 9cc:	7a6a3637 	bvc	1a8e2b0 <__bss_end__+0x1a83848>
 9d0:	20732d66 	rsbscs	r2, r3, r6, ror #26
 9d4:	75746d2d 	ldrbvc	r6, [r4, #-3373]!	; 0xfffff2d3
 9d8:	613d656e 	teqvs	sp, lr, ror #10
 9dc:	31316d72 	teqcc	r1, r2, ror sp
 9e0:	7a6a3637 	bvc	1a8e2c4 <__bss_end__+0x1a8385c>
 9e4:	20732d66 	rsbscs	r2, r3, r6, ror #26
 9e8:	6c666d2d 	stclvs	13, cr6, [r6], #-180	; 0xffffff4c
 9ec:	2d74616f 	ldfcse	f6, [r4, #-444]!	; 0xfffffe44
 9f0:	3d696261 	sfmcc	f6, 2, [r9, #-388]!	; 0xfffffe7c
 9f4:	74666f73 	strbtvc	r6, [r6], #-3955	; 0xfffff08d
 9f8:	616d2d20 	cmnvs	sp, r0, lsr #26
 9fc:	2d206d72 	stccs	13, cr6, [r0, #-456]!	; 0xfffffe38
 a00:	6372616d 	cmnvs	r2, #1073741851	; 0x4000001b
 a04:	72613d68 	rsbvc	r3, r1, #104, 26	; 0x1a00
 a08:	6b36766d 	blvs	d9e3c4 <__bss_end__+0xd9395c>
 a0c:	672d207a 			; <UNDEFINED> instruction: 0x672d207a
 a10:	20626467 	rsbcs	r6, r2, r7, ror #8
 a14:	20674f2d 	rsbcs	r4, r7, sp, lsr #30
 a18:	6474732d 	ldrbtvs	r7, [r4], #-813	; 0xfffffcd3
 a1c:	756e673d 	strbvc	r6, [lr, #-1853]!	; 0xfffff8c3
 a20:	2d203939 			; <UNDEFINED> instruction: 0x2d203939
 a24:	65726666 	ldrbvs	r6, [r2, #-1638]!	; 0xfffff99a
 a28:	61747365 	cmnvs	r4, r5, ror #6
 a2c:	6e69646e 	cdpvs	4, 6, cr6, cr9, cr14, {3}
 a30:	6e630067 	cdpvs	0, 6, cr0, cr3, cr7, {3}
 a34:	75006c74 	strvc	r6, [r0, #-3188]	; 0xfffff38c
 a38:	5f747261 	svcpl	0x00747261
 a3c:	61736964 	cmnvs	r3, r4, ror #18
 a40:	00656c62 	rsbeq	r6, r5, r2, ror #24
 a44:	74726175 	ldrbtvc	r6, [r2], #-373	; 0xfffffe8b
 a48:	7361685f 	cmnvc	r1, #6225920	; 0x5f0000
 a4c:	7461645f 	strbtvc	r6, [r1], #-1119	; 0xfffffba1
 a50:	50470061 	subpl	r0, r7, r1, rrx
 a54:	465f4f49 	ldrbmi	r4, [pc], -r9, asr #30
 a58:	5f434e55 	svcpl	0x00434e55
 a5c:	34544c41 	ldrbcc	r4, [r4], #-3137	; 0xfffff3bf
 a60:	5f726f00 	svcpl	0x00726f00
 a64:	32336e69 	eorscc	r6, r3, #1680	; 0x690
 a68:	72637300 	rsbvc	r7, r3, #0, 6
 a6c:	68637461 	stmdavs	r3!, {r0, r5, r6, sl, ip, sp, lr}^
 a70:	72617500 	rsbvc	r7, r1, #0, 10
 a74:	6e610074 	mcrvs	0, 3, r0, cr1, cr4, {3}
 a78:	6e695f64 	cdpvs	15, 6, cr5, cr9, cr4, {3}
 a7c:	75003233 	strvc	r3, [r0, #-563]	; 0xfffffdcd
 a80:	5f747261 	svcpl	0x00747261
 a84:	63747570 	cmnvs	r4, #112, 10	; 0x1c000000
 a88:	49504700 	ldmdbmi	r0, {r8, r9, sl, lr}^
 a8c:	55465f4f 	strbpl	r5, [r6, #-3919]	; 0xfffff0b1
 a90:	495f434e 	ldmdbmi	pc, {r1, r2, r3, r6, r8, r9, lr}^	; <UNPREDICTABLE>
 a94:	5455504e 	ldrbpl	r5, [r5], #-78	; 0xffffffb2
 a98:	69706700 	ldmdbvs	r0!, {r8, r9, sl, sp, lr}^
 a9c:	65735f6f 	ldrbvs	r5, [r3, #-3951]!	; 0xfffff091
 aa0:	75665f74 	strbvc	r5, [r6, #-3956]!	; 0xfffff08c
 aa4:	6974636e 	ldmdbvs	r4!, {r1, r2, r3, r5, r6, r8, r9, sp, lr}^
 aa8:	67006e6f 	strvs	r6, [r0, -pc, ror #28]
 aac:	32337465 	eorscc	r7, r3, #1694498816	; 0x65000000
 ab0:	616d6b00 	cmnvs	sp, r0, lsl #22
 ab4:	636f6c6c 	cmnvs	pc, #108, 24	; 0x6c00
 ab8:	6165685f 	cmnvs	r5, pc, asr r8
 abc:	74735f70 	ldrbtvc	r5, [r3], #-3952	; 0xfffff090
 ac0:	00747261 	rsbseq	r7, r4, r1, ror #4
 ac4:	5f78616d 	svcpl	0x0078616d
 ac8:	7479626e 	ldrbtvc	r6, [r9], #-622	; 0xfffffd92
 acc:	5f007365 	svcpl	0x00007365
 ad0:	72646461 	rsbvc	r6, r4, #1627389952	; 0x61000000
 ad4:	61656800 	cmnvs	r5, r0, lsl #16
 ad8:	616d5f70 	smcvs	54768	; 0xd5f0
 adc:	666b0078 			; <UNDEFINED> instruction: 0x666b0078
 ae0:	5f656572 	svcpl	0x00656572
 ae4:	006c6c61 	rsbeq	r6, ip, r1, ror #24
 ae8:	6e756f72 	mrcvs	15, 3, r6, cr5, cr2, {3}
 aec:	00707564 	rsbseq	r7, r0, r4, ror #10
 af0:	6572666b 	ldrbvs	r6, [r2, #-1643]!	; 0xfffff995
 af4:	6f705f65 	svcvs	0x00705f65
 af8:	6c610070 	stclvs	0, cr0, [r1], #-448	; 0xfffffe40
 afc:	6d6e6769 	stclvs	7, cr6, [lr, #-420]!	; 0xfffffe5c
 b00:	00746e65 	rsbseq	r6, r4, r5, ror #28
 b04:	5f78616d 	svcpl	0x0078616d
 b08:	00323375 	eorseq	r3, r2, r5, ror r3
 b0c:	4d656e4f 	stclmi	14, cr6, [r5, #-316]!	; 0xfffffec4
 b10:	6d6b0042 	stclvs	0, cr0, [fp, #-264]!	; 0xfffffef8
 b14:	6f6c6c61 	svcvs	0x006c6c61
 b18:	65685f63 	strbvs	r5, [r8, #-3939]!	; 0xfffff09d
 b1c:	655f7061 	ldrbvs	r7, [pc, #-97]	; ac3 <__code_start__-0x753d>
 b20:	6b00646e 	blvs	19ce0 <__bss_end__+0xf278>
 b24:	6c6c616d 	stfvse	f6, [ip], #-436	; 0xfffffe4c
 b28:	6e5f636f 	cdpvs	3, 5, cr6, cr15, cr15, {3}
 b2c:	657a746f 	ldrbvs	r7, [sl, #-1135]!	; 0xfffffb91
 b30:	69006f72 	stmdbvs	r0, {r1, r4, r5, r6, r8, r9, sl, fp, sp, lr}
 b34:	6f705f73 	svcvs	0x00705f73
 b38:	6b003277 	blvs	d51c <__bss_end__+0x2ab4>
 b3c:	6c6c616d 	stfvse	f6, [ip], #-436	; 0xfffffe4c
 b40:	632e636f 			; <UNDEFINED> instruction: 0x632e636f
 b44:	616d6b00 	cmnvs	sp, r0, lsl #22
 b48:	636f6c6c 	cmnvs	pc, #108, 24	; 0x6c00
 b4c:	696e695f 	stmdbvs	lr!, {r0, r1, r2, r3, r4, r6, r8, fp, sp, lr}^
 b50:	73690074 	cmnvc	r9, #116, 0	; 0x74
 b54:	696c615f 	stmdbvs	ip!, {r0, r1, r2, r3, r4, r6, r8, sp, lr}^
 b58:	64656e67 	strbtvs	r6, [r5], #-3687	; 0xfffff199
 b5c:	616d6b00 	cmnvs	sp, r0, lsl #22
 b60:	636f6c6c 	cmnvs	pc, #108, 24	; 0x6c00
 b64:	6165685f 	cmnvs	r5, pc, asr r8
 b68:	74705f70 	ldrbtvc	r5, [r0], #-3952	; 0xfffff090
 b6c:	70720072 	rsbsvc	r0, r2, r2, ror r0
 b70:	65725f69 	ldrbvs	r5, [r2, #-3945]!	; 0xfffff097
 b74:	5f746573 	svcpl	0x00746573
 b78:	63747570 	cmnvs	r4, #112, 10	; 0x1c000000
 b7c:	616d6b00 	cmnvs	sp, r0, lsl #22
 b80:	636f6c6c 	cmnvs	pc, #108, 24	; 0x6c00
 b84:	696c615f 	stmdbvs	ip!, {r0, r1, r2, r3, r4, r6, r8, sp, lr}^
 b88:	64656e67 	strbtvs	r6, [r5], #-3687	; 0xfffff199
 b8c:	746e6900 	strbtvc	r6, [lr], #-2304	; 0xfffff700
 b90:	616e7265 	cmnvs	lr, r5, ror #4
 b94:	75705f6c 	ldrbvc	r5, [r0, #-3948]!	; 0xfffff094
 b98:	61686374 	smcvs	34356	; 0x8634
 b9c:	70720072 	rsbsvc	r0, r2, r2, ror r0
 ba0:	65735f69 	ldrbvs	r5, [r3, #-3945]!	; 0xfffff097
 ba4:	75705f74 	ldrbvc	r5, [r0, #-3956]!	; 0xfffff08c
 ba8:	2e006374 	mcrcs	3, 0, r6, cr0, cr4, {3}
 bac:	62696c2f 	rsbvs	r6, r9, #12032	; 0x2f00
 bb0:	75702f63 	ldrbvc	r2, [r0, #-3939]!	; 0xfffff09d
 bb4:	61686374 	smcvs	34356	; 0x8634
 bb8:	00632e72 	rsbeq	r2, r3, r2, ror lr
 bbc:	74736564 	ldrbtvc	r6, [r3], #-1380	; 0xfffffa9c
 bc0:	6c2f2e00 	stcvs	14, cr2, [pc], #-0	; bc8 <__code_start__-0x7438>
 bc4:	2f636269 	svccs	0x00636269
 bc8:	63727473 	cmnvs	r2, #1929379840	; 0x73000000
 bcc:	632e7461 			; <UNDEFINED> instruction: 0x632e7461
 bd0:	6c2f2e00 	stcvs	14, cr2, [pc], #-0	; bd8 <__code_start__-0x7428>
 bd4:	2f636269 	svccs	0x00636269
 bd8:	63727473 	cmnvs	r2, #1929379840	; 0x73000000
 bdc:	632e706d 			; <UNDEFINED> instruction: 0x632e706d
 be0:	6c2f2e00 	stcvs	14, cr2, [pc], #-0	; be8 <__code_start__-0x7418>
 be4:	2f636269 	svccs	0x00636269
 be8:	63727473 	cmnvs	r2, #1929379840	; 0x73000000
 bec:	632e7970 			; <UNDEFINED> instruction: 0x632e7970
 bf0:	6c2f2e00 	stcvs	14, cr2, [pc], #-0	; bf8 <__code_start__-0x7408>
 bf4:	2f636269 	svccs	0x00636269
 bf8:	6e727473 	mrcvs	4, 3, r7, cr2, cr3, {3}
 bfc:	2e706d63 	cdpcs	13, 7, cr6, cr0, cr3, {3}
 c00:	2f2e0063 	svccs	0x002e0063
 c04:	66617473 			; <UNDEFINED> instruction: 0x66617473
 c08:	72732d66 	rsbsvc	r2, r3, #6528	; 0x1980
 c0c:	65642f63 	strbvs	r2, [r4, #-3939]!	; 0xfffff09d
 c10:	6c756166 	ldfvse	f6, [r5], #-408	; 0xfffffe68
 c14:	65722d74 	ldrbvs	r2, [r2, #-3444]!	; 0xfffff28c
 c18:	746f6f62 	strbtvc	r6, [pc], #-3938	; c20 <__code_start__-0x73e0>
 c1c:	6c61632d 	stclvs	3, cr6, [r1], #-180	; 0xffffff4c
 c20:	74756f6c 	ldrbtvc	r6, [r5], #-3948	; 0xfffff094
 c24:	6700632e 	strvs	r6, [r0, -lr, lsr #6]
 c28:	5f6f6970 	svcpl	0x006f6970
 c2c:	30726c63 	rsbscc	r6, r2, r3, ror #24
 c30:	69706700 	ldmdbvs	r0!, {r8, r9, sl, sp, lr}^
 c34:	65735f6f 	ldrbvs	r5, [r3, #-3951]!	; 0xfffff091
 c38:	67003074 	smlsdxvs	r0, r4, r0, r3
 c3c:	5f6f6970 	svcpl	0x006f6970
 c40:	74697277 	strbtvc	r7, [r9], #-631	; 0xfffffd89
 c44:	45440065 	strbmi	r0, [r4, #-101]	; 0xffffff9b
 c48:	41565f56 	cmpmi	r6, r6, asr pc
 c4c:	0032334c 	eorseq	r3, r2, ip, asr #6
 c50:	6f697067 	svcvs	0x00697067
 c54:	6165725f 	cmnvs	r5, pc, asr r2
 c58:	70670064 	rsbvc	r0, r7, r4, rrx
 c5c:	735f6f69 	cmpvc	pc, #420	; 0x1a4
 c60:	695f7465 	ldmdbvs	pc, {r0, r2, r5, r6, sl, ip, sp, lr}^	; <UNPREDICTABLE>
 c64:	7475706e 	ldrbtvc	r7, [r5], #-110	; 0xffffff92
 c68:	69706700 	ldmdbvs	r0!, {r8, r9, sl, sp, lr}^
 c6c:	65735f6f 	ldrbvs	r5, [r3, #-3951]!	; 0xfffff091
 c70:	666f5f74 	uqsub16vs	r5, pc, r4	; <UNPREDICTABLE>
 c74:	70670066 	rsbvc	r0, r7, r6, rrx
 c78:	735f6f69 	cmpvc	pc, #420	; 0x1a4
 c7c:	6f5f7465 	svcvs	0x005f7465
 c80:	75707475 	ldrbvc	r7, [r0, #-1141]!	; 0xfffffb8b
 c84:	70670074 	rsbvc	r0, r7, r4, ror r0
 c88:	665f6f69 	ldrbvs	r6, [pc], -r9, ror #30
 c8c:	5f636e75 	svcpl	0x00636e75
 c90:	70670074 	rsbvc	r0, r7, r4, ror r0
 c94:	6c5f6f69 	mrrcvs	15, 6, r6, pc, cr9	; <UNPREDICTABLE>
 c98:	00307665 	eorseq	r7, r0, r5, ror #12
 c9c:	6b6e6162 	blvs	1b9922c <__bss_end__+0x1b8e7c4>
 ca0:	69706700 	ldmdbvs	r0!, {r8, r9, sl, sp, lr}^
 ca4:	00632e6f 	rsbeq	r2, r3, pc, ror #28
 ca8:	6f697067 	svcvs	0x00697067
 cac:	7465735f 	strbtvc	r7, [r5], #-863	; 0xfffffca1
 cb0:	006e6f5f 	rsbeq	r6, lr, pc, asr pc

Disassembly of section .debug_frame:

00000000 <.debug_frame>:
   0:	0000000c 	andeq	r0, r0, ip
   4:	ffffffff 			; <UNDEFINED> instruction: 0xffffffff
   8:	7c020001 	stcvc	0, cr0, [r2], {1}
   c:	000d0c0e 	andeq	r0, sp, lr, lsl #24
  10:	0000001c 	andeq	r0, r0, ip, lsl r0
  14:	00000000 	andeq	r0, r0, r0
  18:	00008038 	andeq	r8, r0, r8, lsr r0
  1c:	00000068 	andeq	r0, r0, r8, rrx
  20:	84080e42 	strhi	r0, [r8], #-3650	; 0xfffff1be
  24:	42018e02 	andmi	r8, r1, #2, 28
  28:	0e68180e 	cdpeq	8, 6, cr1, cr8, cr14, {0}
  2c:	00000008 	andeq	r0, r0, r8
  30:	00000014 	andeq	r0, r0, r4, lsl r0
  34:	00000000 	andeq	r0, r0, r0
  38:	000080a0 	andeq	r8, r0, r0, lsr #1
  3c:	00000094 	muleq	r0, r4, r0
  40:	84080e42 	strhi	r0, [r8], #-3650	; 0xfffff1be
  44:	00018e02 	andeq	r8, r1, r2, lsl #28
  48:	0000000c 	andeq	r0, r0, ip
  4c:	ffffffff 			; <UNDEFINED> instruction: 0xffffffff
  50:	7c020001 	stcvc	0, cr0, [r2], {1}
  54:	000d0c0e 	andeq	r0, sp, lr, lsl #24
  58:	00000014 	andeq	r0, r0, r4, lsl r0
  5c:	00000048 	andeq	r0, r0, r8, asr #32
  60:	00008134 	andeq	r8, r0, r4, lsr r1
  64:	00000074 	andeq	r0, r0, r4, ror r0
  68:	8e040e5e 	mcrhi	14, 0, r0, cr4, cr14, {2}
  6c:	100e4201 	andne	r4, lr, r1, lsl #4
  70:	0000000c 	andeq	r0, r0, ip
  74:	00000048 	andeq	r0, r0, r8, asr #32
  78:	000081a8 	andeq	r8, r0, r8, lsr #3
  7c:	00000010 	andeq	r0, r0, r0, lsl r0
  80:	0000000c 	andeq	r0, r0, ip
  84:	00000048 	andeq	r0, r0, r8, asr #32
  88:	000081b8 			; <UNDEFINED> instruction: 0x000081b8
  8c:	00000010 	andeq	r0, r0, r0, lsl r0
  90:	00000020 	andeq	r0, r0, r0, lsr #32
  94:	00000048 	andeq	r0, r0, r8, asr #32
  98:	000081c8 	andeq	r8, r0, r8, asr #3
  9c:	00000094 	muleq	r0, r4, r0
  a0:	840c0e42 	strhi	r0, [ip], #-3650	; 0xfffff1be
  a4:	8e028503 	cfsh32hi	mvfx8, mvfx2, #3
  a8:	180e4201 	stmdane	lr, {r0, r9, lr}
  ac:	0c0e0a5c 			; <UNDEFINED> instruction: 0x0c0e0a5c
  b0:	00000b42 	andeq	r0, r0, r2, asr #22
  b4:	0000000c 	andeq	r0, r0, ip
  b8:	00000048 	andeq	r0, r0, r8, asr #32
  bc:	0000825c 	andeq	r8, r0, ip, asr r2
  c0:	00000008 	andeq	r0, r0, r8
  c4:	00000014 	andeq	r0, r0, r4, lsl r0
  c8:	00000048 	andeq	r0, r0, r8, asr #32
  cc:	00008264 	andeq	r8, r0, r4, ror #4
  d0:	00000018 	andeq	r0, r0, r8, lsl r0
  d4:	84080e42 	strhi	r0, [r8], #-3650	; 0xfffff1be
  d8:	00018e02 	andeq	r8, r1, r2, lsl #28
  dc:	00000014 	andeq	r0, r0, r4, lsl r0
  e0:	00000048 	andeq	r0, r0, r8, asr #32
  e4:	0000827c 	andeq	r8, r0, ip, ror r2
  e8:	00000010 	andeq	r0, r0, r0, lsl r0
  ec:	84080e42 	strhi	r0, [r8], #-3650	; 0xfffff1be
  f0:	00018e02 	andeq	r8, r1, r2, lsl #28
  f4:	0000000c 	andeq	r0, r0, ip
  f8:	00000048 	andeq	r0, r0, r8, asr #32
  fc:	0000828c 	andeq	r8, r0, ip, lsl #5
 100:	00000014 	andeq	r0, r0, r4, lsl r0
 104:	0000000c 	andeq	r0, r0, ip
 108:	00000048 	andeq	r0, r0, r8, asr #32
 10c:	000082a0 	andeq	r8, r0, r0, lsr #5
 110:	00000038 	andeq	r0, r0, r8, lsr r0
 114:	00000018 	andeq	r0, r0, r8, lsl r0
 118:	00000048 	andeq	r0, r0, r8, asr #32
 11c:	000082d8 	ldrdeq	r8, [r0], -r8	; <UNPREDICTABLE>
 120:	00000050 	andeq	r0, r0, r0, asr r0
 124:	84100e42 	ldrhi	r0, [r0], #-3650	; 0xfffff1be
 128:	86038504 	strhi	r8, [r3], -r4, lsl #10
 12c:	00018e02 	andeq	r8, r1, r2, lsl #28
 130:	00000020 	andeq	r0, r0, r0, lsr #32
 134:	00000048 	andeq	r0, r0, r8, asr #32
 138:	00008328 	andeq	r8, r0, r8, lsr #6
 13c:	0000011c 	andeq	r0, r0, ip, lsl r1
 140:	840c0e42 	strhi	r0, [ip], #-3650	; 0xfffff1be
 144:	8e028503 	cfsh32hi	mvfx8, mvfx2, #3
 148:	280e4201 	stmdacs	lr, {r0, r9, lr}
 14c:	0e0a4002 	cdpeq	0, 0, cr4, cr10, cr2, {0}
 150:	000b420c 	andeq	r4, fp, ip, lsl #4
 154:	00000020 	andeq	r0, r0, r0, lsr #32
 158:	00000048 	andeq	r0, r0, r8, asr #32
 15c:	00008444 	andeq	r8, r0, r4, asr #8
 160:	0000009c 	muleq	r0, ip, r0
 164:	84100e42 	ldrhi	r0, [r0], #-3650	; 0xfffff1be
 168:	86038504 	strhi	r8, [r3], -r4, lsl #10
 16c:	42018e02 	andmi	r8, r1, #2, 28
 170:	4202200e 	andmi	r2, r2, #14, 0
 174:	0000100e 	andeq	r1, r0, lr
 178:	0000000c 	andeq	r0, r0, ip
 17c:	ffffffff 			; <UNDEFINED> instruction: 0xffffffff
 180:	7c020001 	stcvc	0, cr0, [r2], {1}
 184:	000d0c0e 	andeq	r0, sp, lr, lsl #24
 188:	0000000c 	andeq	r0, r0, ip
 18c:	00000178 	andeq	r0, r0, r8, ror r1
 190:	000084e0 	andeq	r8, r0, r0, ror #9
 194:	0000003c 	andeq	r0, r0, ip, lsr r0
 198:	0000001c 	andeq	r0, r0, ip, lsl r0
 19c:	00000178 	andeq	r0, r0, r8, ror r1
 1a0:	0000851c 	andeq	r8, r0, ip, lsl r5
 1a4:	00000100 	andeq	r0, r0, r0, lsl #2
 1a8:	84180e42 	ldrhi	r0, [r8], #-3650	; 0xfffff1be
 1ac:	86058506 	strhi	r8, [r5], -r6, lsl #10
 1b0:	88038704 	stmdahi	r3, {r2, r8, r9, sl, pc}
 1b4:	00018e02 	andeq	r8, r1, r2, lsl #28
 1b8:	0000001c 	andeq	r0, r0, ip, lsl r0
 1bc:	00000178 	andeq	r0, r0, r8, ror r1
 1c0:	0000861c 	andeq	r8, r0, ip, lsl r6
 1c4:	000000b8 	strheq	r0, [r0], -r8
 1c8:	84180e42 	ldrhi	r0, [r8], #-3650	; 0xfffff1be
 1cc:	86058506 	strhi	r8, [r5], -r6, lsl #10
 1d0:	88038704 	stmdahi	r3, {r2, r8, r9, sl, pc}
 1d4:	00018e02 	andeq	r8, r1, r2, lsl #28
 1d8:	00000014 	andeq	r0, r0, r4, lsl r0
 1dc:	00000178 	andeq	r0, r0, r8, ror r1
 1e0:	000086d4 	ldrdeq	r8, [r0], -r4
 1e4:	00000028 	andeq	r0, r0, r8, lsr #32
 1e8:	84080e42 	strhi	r0, [r8], #-3650	; 0xfffff1be
 1ec:	00018e02 	andeq	r8, r1, r2, lsl #28
 1f0:	00000024 	andeq	r0, r0, r4, lsr #32
 1f4:	00000178 	andeq	r0, r0, r8, ror r1
 1f8:	000086fc 	strdeq	r8, [r0], -ip
 1fc:	00000134 	andeq	r0, r0, r4, lsr r1
 200:	84180e42 	ldrhi	r0, [r8], #-3650	; 0xfffff1be
 204:	86058506 	strhi	r8, [r5], -r6, lsl #10
 208:	88038704 	stmdahi	r3, {r2, r8, r9, sl, pc}
 20c:	42018e02 	andmi	r8, r1, #2, 28
 210:	8802200e 	stmdahi	r2, {r1, r2, r3, sp}
 214:	0000180e 	andeq	r1, r0, lr, lsl #16
 218:	00000018 	andeq	r0, r0, r8, lsl r0
 21c:	00000178 	andeq	r0, r0, r8, ror r1
 220:	00008830 	andeq	r8, r0, r0, lsr r8
 224:	00000090 	muleq	r0, r0, r0
 228:	8e040e42 	cdphi	14, 0, cr0, cr4, cr2, {2}
 22c:	480e4201 	stmdami	lr, {r0, r9, lr}
 230:	00040e7a 	andeq	r0, r4, sl, ror lr
 234:	00000020 	andeq	r0, r0, r0, lsr #32
 238:	00000178 	andeq	r0, r0, r8, ror r1
 23c:	000088c0 	andeq	r8, r0, r0, asr #17
 240:	000000b4 	strheq	r0, [r0], -r4
 244:	840c0e42 	strhi	r0, [ip], #-3650	; 0xfffff1be
 248:	8e028503 	cfsh32hi	mvfx8, mvfx2, #3
 24c:	180e4201 	stmdane	lr, {r0, r9, lr}
 250:	0c0e0a6a 			; <UNDEFINED> instruction: 0x0c0e0a6a
 254:	00000b42 	andeq	r0, r0, r2, asr #22
 258:	00000014 	andeq	r0, r0, r4, lsl r0
 25c:	00000178 	andeq	r0, r0, r8, ror r1
 260:	00008974 	andeq	r8, r0, r4, ror r9
 264:	00000030 	andeq	r0, r0, r0, lsr r0
 268:	84080e42 	strhi	r0, [r8], #-3650	; 0xfffff1be
 26c:	00018e02 	andeq	r8, r1, r2, lsl #28
 270:	00000014 	andeq	r0, r0, r4, lsl r0
 274:	00000178 	andeq	r0, r0, r8, ror r1
 278:	000089a4 	andeq	r8, r0, r4, lsr #19
 27c:	00000048 	andeq	r0, r0, r8, asr #32
 280:	84080e42 	strhi	r0, [r8], #-3650	; 0xfffff1be
 284:	00018e02 	andeq	r8, r1, r2, lsl #28
 288:	00000014 	andeq	r0, r0, r4, lsl r0
 28c:	00000178 	andeq	r0, r0, r8, ror r1
 290:	000089ec 	andeq	r8, r0, ip, ror #19
 294:	00000050 	andeq	r0, r0, r0, asr r0
 298:	84080e42 	strhi	r0, [r8], #-3650	; 0xfffff1be
 29c:	00018e02 	andeq	r8, r1, r2, lsl #28
 2a0:	00000014 	andeq	r0, r0, r4, lsl r0
 2a4:	00000178 	andeq	r0, r0, r8, ror r1
 2a8:	00008a3c 	andeq	r8, r0, ip, lsr sl
 2ac:	00000010 	andeq	r0, r0, r0, lsl r0
 2b0:	84080e42 	strhi	r0, [r8], #-3650	; 0xfffff1be
 2b4:	00018e02 	andeq	r8, r1, r2, lsl #28
 2b8:	00000014 	andeq	r0, r0, r4, lsl r0
 2bc:	00000178 	andeq	r0, r0, r8, ror r1
 2c0:	00008a4c 	andeq	r8, r0, ip, asr #20
 2c4:	00000028 	andeq	r0, r0, r8, lsr #32
 2c8:	84080e42 	strhi	r0, [r8], #-3650	; 0xfffff1be
 2cc:	00018e02 	andeq	r8, r1, r2, lsl #28
 2d0:	0000000c 	andeq	r0, r0, ip
 2d4:	ffffffff 			; <UNDEFINED> instruction: 0xffffffff
 2d8:	7c020001 	stcvc	0, cr0, [r2], {1}
 2dc:	000d0c0e 	andeq	r0, sp, lr, lsl #24
 2e0:	00000014 	andeq	r0, r0, r4, lsl r0
 2e4:	000002d0 	ldrdeq	r0, [r0], -r0	; <UNPREDICTABLE>
 2e8:	00008ab8 			; <UNDEFINED> instruction: 0x00008ab8
 2ec:	000000bc 	strheq	r0, [r0], -ip
 2f0:	8e040e42 	cdphi	14, 0, cr0, cr4, cr2, {2}
 2f4:	00000001 	andeq	r0, r0, r1
 2f8:	00000014 	andeq	r0, r0, r4, lsl r0
 2fc:	000002d0 	ldrdeq	r0, [r0], -r0	; <UNPREDICTABLE>
 300:	00008b74 	andeq	r8, r0, r4, ror fp
 304:	00000044 	andeq	r0, r0, r4, asr #32
 308:	84080e42 	strhi	r0, [r8], #-3650	; 0xfffff1be
 30c:	00018e02 	andeq	r8, r1, r2, lsl #28
 310:	00000014 	andeq	r0, r0, r4, lsl r0
 314:	000002d0 	ldrdeq	r0, [r0], -r0	; <UNPREDICTABLE>
 318:	00008bb8 			; <UNDEFINED> instruction: 0x00008bb8
 31c:	000000ac 	andeq	r0, r0, ip, lsr #1
 320:	84080e42 	strhi	r0, [r8], #-3650	; 0xfffff1be
 324:	00018e02 	andeq	r8, r1, r2, lsl #28
 328:	0000000c 	andeq	r0, r0, ip
 32c:	ffffffff 			; <UNDEFINED> instruction: 0xffffffff
 330:	7c020001 	stcvc	0, cr0, [r2], {1}
 334:	000d0c0e 	andeq	r0, sp, lr, lsl #24
 338:	0000000c 	andeq	r0, r0, ip
 33c:	00000328 	andeq	r0, r0, r8, lsr #6
 340:	00008c64 	andeq	r8, r0, r4, ror #24
 344:	00000018 	andeq	r0, r0, r8, lsl r0
 348:	0000000c 	andeq	r0, r0, ip
 34c:	ffffffff 			; <UNDEFINED> instruction: 0xffffffff
 350:	7c020001 	stcvc	0, cr0, [r2], {1}
 354:	000d0c0e 	andeq	r0, sp, lr, lsl #24
 358:	00000034 	andeq	r0, r0, r4, lsr r0
 35c:	00000348 	andeq	r0, r0, r8, asr #6
 360:	00008c7c 	andeq	r8, r0, ip, ror ip
 364:	00000058 	andeq	r0, r0, r8, asr r0
 368:	80100e42 	andshi	r0, r0, r2, asr #28
 36c:	82038104 	andhi	r8, r3, #1
 370:	42018302 	andmi	r8, r1, #134217728	; 0x8000000
 374:	07841c0e 	streq	r1, [r4, lr, lsl #24]
 378:	058e0685 	streq	r0, [lr, #1669]	; 0x685
 37c:	5c280e42 	stcpl	14, cr0, [r8], #-264	; 0xfffffef8
 380:	ce421c0e 	cdpgt	12, 4, cr1, cr2, cr14, {0}
 384:	100ec4c5 	andne	ip, lr, r5, asr #9
 388:	c1c2c342 	bicgt	ip, r2, r2, asr #6
 38c:	00000ec0 	andeq	r0, r0, r0, asr #29
 390:	0000000c 	andeq	r0, r0, ip
 394:	ffffffff 			; <UNDEFINED> instruction: 0xffffffff
 398:	7c020001 	stcvc	0, cr0, [r2], {1}
 39c:	000d0c0e 	andeq	r0, sp, lr, lsl #24
 3a0:	00000014 	andeq	r0, r0, r4, lsl r0
 3a4:	00000390 	muleq	r0, r0, r3
 3a8:	00008cd4 	ldrdeq	r8, [r0], -r4
 3ac:	00000034 	andeq	r0, r0, r4, lsr r0
 3b0:	84080e42 	strhi	r0, [r8], #-3650	; 0xfffff1be
 3b4:	00018e02 	andeq	r8, r1, r2, lsl #28
 3b8:	0000000c 	andeq	r0, r0, ip
 3bc:	ffffffff 			; <UNDEFINED> instruction: 0xffffffff
 3c0:	7c020001 	stcvc	0, cr0, [r2], {1}
 3c4:	000d0c0e 	andeq	r0, sp, lr, lsl #24
 3c8:	0000000c 	andeq	r0, r0, ip
 3cc:	000003b8 			; <UNDEFINED> instruction: 0x000003b8
 3d0:	00008d08 	andeq	r8, r0, r8, lsl #26
 3d4:	00000014 	andeq	r0, r0, r4, lsl r0
 3d8:	0000000c 	andeq	r0, r0, ip
 3dc:	000003b8 			; <UNDEFINED> instruction: 0x000003b8
 3e0:	00008d1c 	andeq	r8, r0, ip, lsl sp
 3e4:	00000024 	andeq	r0, r0, r4, lsr #32
 3e8:	0000000c 	andeq	r0, r0, ip
 3ec:	000003b8 			; <UNDEFINED> instruction: 0x000003b8
 3f0:	00008d40 	andeq	r8, r0, r0, asr #26
 3f4:	00000038 	andeq	r0, r0, r8, lsr r0
 3f8:	00000024 	andeq	r0, r0, r4, lsr #32
 3fc:	000003b8 			; <UNDEFINED> instruction: 0x000003b8
 400:	00008d78 	andeq	r8, r0, r8, ror sp
 404:	000001b4 			; <UNDEFINED> instruction: 0x000001b4
 408:	84140e42 	ldrhi	r0, [r4], #-3650	; 0xfffff1be
 40c:	86048505 	strhi	r8, [r4], -r5, lsl #10
 410:	8e028703 	cdphi	7, 0, cr8, cr2, cr3, {0}
 414:	600e4201 	andvs	r4, lr, r1, lsl #4
 418:	0e0a9a02 	vmlaeq.f32	s18, s20, s4
 41c:	000b4214 	andeq	r4, fp, r4, lsl r2
 420:	00000014 	andeq	r0, r0, r4, lsl r0
 424:	000003b8 			; <UNDEFINED> instruction: 0x000003b8
 428:	00008f2c 	andeq	r8, r0, ip, lsr #30
 42c:	00000064 	andeq	r0, r0, r4, rrx
 430:	8e040e54 	mcrhi	14, 0, r0, cr4, cr4, {2}
 434:	100e4201 	andne	r4, lr, r1, lsl #4
 438:	0000002c 	andeq	r0, r0, ip, lsr #32
 43c:	000003b8 			; <UNDEFINED> instruction: 0x000003b8
 440:	00008f90 	muleq	r0, r0, pc	; <UNPREDICTABLE>
 444:	000004b8 			; <UNDEFINED> instruction: 0x000004b8
 448:	84240e42 	strthi	r0, [r4], #-3650	; 0xfffff1be
 44c:	86088509 	strhi	r8, [r8], -r9, lsl #10
 450:	88068707 	stmdahi	r6, {r0, r1, r2, r8, r9, sl, pc}
 454:	8a048905 	bhi	122870 <__bss_end__+0x117e08>
 458:	8e028b03 	vmlahi.f64	d8, d2, d3
 45c:	b80e4201 	stmdalt	lr, {r0, r9, lr}
 460:	02380302 	eorseq	r0, r8, #134217728	; 0x8000000
 464:	0000240e 	andeq	r2, r0, lr, lsl #8
 468:	0000000c 	andeq	r0, r0, ip
 46c:	ffffffff 			; <UNDEFINED> instruction: 0xffffffff
 470:	7c020001 	stcvc	0, cr0, [r2], {1}
 474:	000d0c0e 	andeq	r0, sp, lr, lsl #24
 478:	00000014 	andeq	r0, r0, r4, lsl r0
 47c:	00000468 	andeq	r0, r0, r8, ror #8
 480:	00009448 	andeq	r9, r0, r8, asr #8
 484:	0000002c 	andeq	r0, r0, ip, lsr #32
 488:	84080e42 	strhi	r0, [r8], #-3650	; 0xfffff1be
 48c:	00018e02 	andeq	r8, r1, r2, lsl #28
 490:	0000000c 	andeq	r0, r0, ip
 494:	ffffffff 			; <UNDEFINED> instruction: 0xffffffff
 498:	7c020001 	stcvc	0, cr0, [r2], {1}
 49c:	000d0c0e 	andeq	r0, sp, lr, lsl #24
 4a0:	00000014 	andeq	r0, r0, r4, lsl r0
 4a4:	00000490 	muleq	r0, r0, r4
 4a8:	00009474 	andeq	r9, r0, r4, ror r4
 4ac:	0000003c 	andeq	r0, r0, ip, lsr r0
 4b0:	84080e42 	strhi	r0, [r8], #-3650	; 0xfffff1be
 4b4:	00018e02 	andeq	r8, r1, r2, lsl #28
 4b8:	0000000c 	andeq	r0, r0, ip
 4bc:	ffffffff 			; <UNDEFINED> instruction: 0xffffffff
 4c0:	7c020001 	stcvc	0, cr0, [r2], {1}
 4c4:	000d0c0e 	andeq	r0, sp, lr, lsl #24
 4c8:	0000000c 	andeq	r0, r0, ip
 4cc:	000004b8 			; <UNDEFINED> instruction: 0x000004b8
 4d0:	000094b0 			; <UNDEFINED> instruction: 0x000094b0
 4d4:	00000004 	andeq	r0, r0, r4
 4d8:	0000000c 	andeq	r0, r0, ip
 4dc:	ffffffff 			; <UNDEFINED> instruction: 0xffffffff
 4e0:	7c020001 	stcvc	0, cr0, [r2], {1}
 4e4:	000d0c0e 	andeq	r0, sp, lr, lsl #24
 4e8:	0000000c 	andeq	r0, r0, ip
 4ec:	000004d8 	ldrdeq	r0, [r0], -r8
 4f0:	000094b4 			; <UNDEFINED> instruction: 0x000094b4
 4f4:	00000018 	andeq	r0, r0, r8, lsl r0
 4f8:	0000000c 	andeq	r0, r0, ip
 4fc:	000004d8 	ldrdeq	r0, [r0], -r8
 500:	000094cc 	andeq	r9, r0, ip, asr #9
 504:	00000014 	andeq	r0, r0, r4, lsl r0
 508:	00000014 	andeq	r0, r0, r4, lsl r0
 50c:	000004d8 	ldrdeq	r0, [r0], -r8
 510:	000094e0 	andeq	r9, r0, r0, ror #9
 514:	00000054 	andeq	r0, r0, r4, asr r0
 518:	84080e42 	strhi	r0, [r8], #-3650	; 0xfffff1be
 51c:	00018e02 	andeq	r8, r1, r2, lsl #28
 520:	0000000c 	andeq	r0, r0, ip
 524:	ffffffff 			; <UNDEFINED> instruction: 0xffffffff
 528:	7c020001 	stcvc	0, cr0, [r2], {1}
 52c:	000d0c0e 	andeq	r0, sp, lr, lsl #24
 530:	00000014 	andeq	r0, r0, r4, lsl r0
 534:	00000520 	andeq	r0, r0, r0, lsr #10
 538:	00009534 	andeq	r9, r0, r4, lsr r5
 53c:	00000014 	andeq	r0, r0, r4, lsl r0
 540:	84080e42 	strhi	r0, [r8], #-3650	; 0xfffff1be
 544:	00018e02 	andeq	r8, r1, r2, lsl #28
 548:	00000014 	andeq	r0, r0, r4, lsl r0
 54c:	00000520 	andeq	r0, r0, r0, lsr #10
 550:	00009548 	andeq	r9, r0, r8, asr #10
 554:	0000001c 	andeq	r0, r0, ip, lsl r0
 558:	84080e42 	strhi	r0, [r8], #-3650	; 0xfffff1be
 55c:	00018e02 	andeq	r8, r1, r2, lsl #28
 560:	00000018 	andeq	r0, r0, r8, lsl r0
 564:	00000520 	andeq	r0, r0, r0, lsr #10
 568:	00009564 	andeq	r9, r0, r4, ror #10
 56c:	00000024 	andeq	r0, r0, r4, lsr #32
 570:	84100e42 	ldrhi	r0, [r0], #-3650	; 0xfffff1be
 574:	86038504 	strhi	r8, [r3], -r4, lsl #10
 578:	00018e02 	andeq	r8, r1, r2, lsl #28
 57c:	00000014 	andeq	r0, r0, r4, lsl r0
 580:	00000520 	andeq	r0, r0, r0, lsr #10
 584:	00009588 	andeq	r9, r0, r8, lsl #11
 588:	00000018 	andeq	r0, r0, r8, lsl r0
 58c:	84080e42 	strhi	r0, [r8], #-3650	; 0xfffff1be
 590:	00018e02 	andeq	r8, r1, r2, lsl #28
 594:	00000014 	andeq	r0, r0, r4, lsl r0
 598:	00000520 	andeq	r0, r0, r0, lsr #10
 59c:	000095a0 	andeq	r9, r0, r0, lsr #11
 5a0:	00000018 	andeq	r0, r0, r8, lsl r0
 5a4:	84080e42 	strhi	r0, [r8], #-3650	; 0xfffff1be
 5a8:	00018e02 	andeq	r8, r1, r2, lsl #28
 5ac:	0000000c 	andeq	r0, r0, ip
 5b0:	ffffffff 			; <UNDEFINED> instruction: 0xffffffff
 5b4:	7c020001 	stcvc	0, cr0, [r2], {1}
 5b8:	000d0c0e 	andeq	r0, sp, lr, lsl #24
 5bc:	00000018 	andeq	r0, r0, r8, lsl r0
 5c0:	000005ac 	andeq	r0, r0, ip, lsr #11
 5c4:	000095b8 			; <UNDEFINED> instruction: 0x000095b8
 5c8:	00000020 	andeq	r0, r0, r0, lsr #32
 5cc:	84100e42 	ldrhi	r0, [r0], #-3650	; 0xfffff1be
 5d0:	86038504 	strhi	r8, [r3], -r4, lsl #10
 5d4:	00018e02 	andeq	r8, r1, r2, lsl #28
 5d8:	00000018 	andeq	r0, r0, r8, lsl r0
 5dc:	000005ac 	andeq	r0, r0, ip, lsr #11
 5e0:	000095d8 	ldrdeq	r9, [r0], -r8
 5e4:	00000020 	andeq	r0, r0, r0, lsr #32
 5e8:	84100e42 	ldrhi	r0, [r0], #-3650	; 0xfffff1be
 5ec:	86038504 	strhi	r8, [r3], -r4, lsl #10
 5f0:	00018e02 	andeq	r8, r1, r2, lsl #28
 5f4:	00000014 	andeq	r0, r0, r4, lsl r0
 5f8:	000005ac 	andeq	r0, r0, ip, lsr #11
 5fc:	000095f8 	strdeq	r9, [r0], -r8
 600:	000000b0 	strheq	r0, [r0], -r0	; <UNPREDICTABLE>
 604:	84080e42 	strhi	r0, [r8], #-3650	; 0xfffff1be
 608:	00018e02 	andeq	r8, r1, r2, lsl #28
 60c:	00000014 	andeq	r0, r0, r4, lsl r0
 610:	000005ac 	andeq	r0, r0, ip, lsr #11
 614:	000096a8 	andeq	r9, r0, r8, lsr #13
 618:	00000018 	andeq	r0, r0, r8, lsl r0
 61c:	84080e42 	strhi	r0, [r8], #-3650	; 0xfffff1be
 620:	00018e02 	andeq	r8, r1, r2, lsl #28
 624:	00000014 	andeq	r0, r0, r4, lsl r0
 628:	000005ac 	andeq	r0, r0, ip, lsr #11
 62c:	000096c0 	andeq	r9, r0, r0, asr #13
 630:	00000020 	andeq	r0, r0, r0, lsr #32
 634:	84080e42 	strhi	r0, [r8], #-3650	; 0xfffff1be
 638:	00018e02 	andeq	r8, r1, r2, lsl #28
 63c:	00000014 	andeq	r0, r0, r4, lsl r0
 640:	000005ac 	andeq	r0, r0, ip, lsr #11
 644:	000096e0 	andeq	r9, r0, r0, ror #13
 648:	00000030 	andeq	r0, r0, r0, lsr r0
 64c:	84080e42 	strhi	r0, [r8], #-3650	; 0xfffff1be
 650:	00018e02 	andeq	r8, r1, r2, lsl #28
 654:	00000014 	andeq	r0, r0, r4, lsl r0
 658:	000005ac 	andeq	r0, r0, ip, lsr #11
 65c:	00009710 	andeq	r9, r0, r0, lsl r7
 660:	00000030 	andeq	r0, r0, r0, lsr r0
 664:	84080e42 	strhi	r0, [r8], #-3650	; 0xfffff1be
 668:	00018e02 	andeq	r8, r1, r2, lsl #28
 66c:	00000014 	andeq	r0, r0, r4, lsl r0
 670:	000005ac 	andeq	r0, r0, ip, lsr #11
 674:	00009740 	andeq	r9, r0, r0, asr #14
 678:	00000010 	andeq	r0, r0, r0, lsl r0
 67c:	84080e42 	strhi	r0, [r8], #-3650	; 0xfffff1be
 680:	00018e02 	andeq	r8, r1, r2, lsl #28
 684:	00000014 	andeq	r0, r0, r4, lsl r0
 688:	000005ac 	andeq	r0, r0, ip, lsr #11
 68c:	00009750 	andeq	r9, r0, r0, asr r7
 690:	00000020 	andeq	r0, r0, r0, lsr #32
 694:	84080e42 	strhi	r0, [r8], #-3650	; 0xfffff1be
 698:	00018e02 	andeq	r8, r1, r2, lsl #28
 69c:	00000014 	andeq	r0, r0, r4, lsl r0
 6a0:	000005ac 	andeq	r0, r0, ip, lsr #11
 6a4:	00009770 	andeq	r9, r0, r0, ror r7
 6a8:	00000014 	andeq	r0, r0, r4, lsl r0
 6ac:	84080e42 	strhi	r0, [r8], #-3650	; 0xfffff1be
 6b0:	00018e02 	andeq	r8, r1, r2, lsl #28
 6b4:	00000014 	andeq	r0, r0, r4, lsl r0
 6b8:	000005ac 	andeq	r0, r0, ip, lsr #11
 6bc:	00009784 	andeq	r9, r0, r4, lsl #15
 6c0:	00000024 	andeq	r0, r0, r4, lsr #32
 6c4:	84080e42 	strhi	r0, [r8], #-3650	; 0xfffff1be
 6c8:	00018e02 	andeq	r8, r1, r2, lsl #28
 6cc:	0000000c 	andeq	r0, r0, ip
 6d0:	ffffffff 			; <UNDEFINED> instruction: 0xffffffff
 6d4:	7c020001 	stcvc	0, cr0, [r2], {1}
 6d8:	000d0c0e 	andeq	r0, sp, lr, lsl #24
 6dc:	0000000c 	andeq	r0, r0, ip
 6e0:	000006cc 	andeq	r0, r0, ip, asr #13
 6e4:	000097a8 	andeq	r9, r0, r8, lsr #15
 6e8:	00000010 	andeq	r0, r0, r0, lsl r0
 6ec:	0000000c 	andeq	r0, r0, ip
 6f0:	000006cc 	andeq	r0, r0, ip, asr #13
 6f4:	000097b8 			; <UNDEFINED> instruction: 0x000097b8
 6f8:	00000010 	andeq	r0, r0, r0, lsl r0
 6fc:	0000000c 	andeq	r0, r0, ip
 700:	000006cc 	andeq	r0, r0, ip, asr #13
 704:	000097c8 	andeq	r9, r0, r8, asr #15
 708:	00000010 	andeq	r0, r0, r0, lsl r0
 70c:	0000001c 	andeq	r0, r0, ip, lsl r0
 710:	000006cc 	andeq	r0, r0, ip, asr #13
 714:	000097d8 	ldrdeq	r9, [r0], -r8
 718:	0000009c 	muleq	r0, ip, r0
 71c:	8e040e42 	cdphi	14, 0, cr0, cr4, cr2, {2}
 720:	100e4201 	andne	r4, lr, r1, lsl #4
 724:	040e0a58 	streq	r0, [lr], #-2648	; 0xfffff5a8
 728:	00000b42 	andeq	r0, r0, r2, asr #22
 72c:	00000014 	andeq	r0, r0, r4, lsl r0
 730:	000006cc 	andeq	r0, r0, ip, asr #13
 734:	00009874 	andeq	r9, r0, r4, ror r8
 738:	00000058 	andeq	r0, r0, r8, asr r0
 73c:	84080e42 	strhi	r0, [r8], #-3650	; 0xfffff1be
 740:	00018e02 	andeq	r8, r1, r2, lsl #28
 744:	0000001c 	andeq	r0, r0, ip, lsl r0
 748:	000006cc 	andeq	r0, r0, ip, asr #13
 74c:	000098cc 	andeq	r9, r0, ip, asr #17
 750:	00000098 	muleq	r0, r8, r0
 754:	8e040e42 	cdphi	14, 0, cr0, cr4, cr2, {2}
 758:	100e4201 	andne	r4, lr, r1, lsl #4
 75c:	040e0a58 	streq	r0, [lr], #-2648	; 0xfffff5a8
 760:	00000b42 	andeq	r0, r0, r2, asr #22
 764:	00000020 	andeq	r0, r0, r0, lsr #32
 768:	000006cc 	andeq	r0, r0, ip, asr #13
 76c:	00009964 	andeq	r9, r0, r4, ror #18
 770:	00000064 	andeq	r0, r0, r4, rrx
 774:	840c0e42 	strhi	r0, [ip], #-3650	; 0xfffff1be
 778:	8e028503 	cfsh32hi	mvfx8, mvfx2, #3
 77c:	180e4201 	stmdane	lr, {r0, r9, lr}
 780:	0c0e0a54 			; <UNDEFINED> instruction: 0x0c0e0a54
 784:	00000b42 	andeq	r0, r0, r2, asr #22
 788:	0000001c 	andeq	r0, r0, ip, lsl r0
 78c:	000006cc 	andeq	r0, r0, ip, asr #13
 790:	000099c8 	andeq	r9, r0, r8, asr #19
 794:	00000118 	andeq	r0, r0, r8, lsl r1
 798:	8e040e42 	cdphi	14, 0, cr0, cr4, cr2, {2}
 79c:	100e4201 	andne	r4, lr, r1, lsl #4
 7a0:	040e0a6c 	streq	r0, [lr], #-2668	; 0xfffff594
 7a4:	00000b42 	andeq	r0, r0, r2, asr #22
 7a8:	0000000c 	andeq	r0, r0, ip
 7ac:	000006cc 	andeq	r0, r0, ip, asr #13
 7b0:	00009ae0 	andeq	r9, r0, r0, ror #21
 7b4:	00000004 	andeq	r0, r0, r4
 7b8:	0000000c 	andeq	r0, r0, ip
 7bc:	000006cc 	andeq	r0, r0, ip, asr #13
 7c0:	00009ae4 	andeq	r9, r0, r4, ror #21
 7c4:	00000014 	andeq	r0, r0, r4, lsl r0
 7c8:	00000014 	andeq	r0, r0, r4, lsl r0
 7cc:	000006cc 	andeq	r0, r0, ip, asr #13
 7d0:	00009af8 	strdeq	r9, [r0], -r8
 7d4:	00000060 	andeq	r0, r0, r0, rrx
 7d8:	8e040e58 	mcrhi	14, 0, r0, cr4, cr8, {2}
 7dc:	100e4201 	andne	r4, lr, r1, lsl #4
 7e0:	0000000c 	andeq	r0, r0, ip
 7e4:	ffffffff 			; <UNDEFINED> instruction: 0xffffffff
 7e8:	7c020001 	stcvc	0, cr0, [r2], {1}
 7ec:	000d0c0e 	andeq	r0, sp, lr, lsl #24
 7f0:	00000014 	andeq	r0, r0, r4, lsl r0
 7f4:	000007e0 	andeq	r0, r0, r0, ror #15
 7f8:	00009b58 	andeq	r9, r0, r8, asr fp
 7fc:	00000014 	andeq	r0, r0, r4, lsl r0
 800:	84080e42 	strhi	r0, [r8], #-3650	; 0xfffff1be
 804:	00018e02 	andeq	r8, r1, r2, lsl #28
 808:	0000000c 	andeq	r0, r0, ip
 80c:	000007e0 	andeq	r0, r0, r0, ror #15
 810:	00009b6c 	andeq	r9, r0, ip, ror #22
 814:	00000018 	andeq	r0, r0, r8, lsl r0
 818:	0000000c 	andeq	r0, r0, ip
 81c:	000007e0 	andeq	r0, r0, r0, ror #15
 820:	00009b84 	andeq	r9, r0, r4, lsl #23
 824:	00000010 	andeq	r0, r0, r0, lsl r0
 828:	0000000c 	andeq	r0, r0, ip
 82c:	ffffffff 			; <UNDEFINED> instruction: 0xffffffff
 830:	7c020001 	stcvc	0, cr0, [r2], {1}
 834:	000d0c0e 	andeq	r0, sp, lr, lsl #24
 838:	0000000c 	andeq	r0, r0, ip
 83c:	00000828 	andeq	r0, r0, r8, lsr #16
 840:	00009b94 	muleq	r0, r4, fp
 844:	00000034 	andeq	r0, r0, r4, lsr r0
 848:	0000000c 	andeq	r0, r0, ip
 84c:	ffffffff 			; <UNDEFINED> instruction: 0xffffffff
 850:	7c020001 	stcvc	0, cr0, [r2], {1}
 854:	000d0c0e 	andeq	r0, sp, lr, lsl #24
 858:	0000000c 	andeq	r0, r0, ip
 85c:	00000848 	andeq	r0, r0, r8, asr #16
 860:	00009bc8 	andeq	r9, r0, r8, asr #23
 864:	0000002c 	andeq	r0, r0, ip, lsr #32
 868:	0000000c 	andeq	r0, r0, ip
 86c:	ffffffff 			; <UNDEFINED> instruction: 0xffffffff
 870:	7c020001 	stcvc	0, cr0, [r2], {1}
 874:	000d0c0e 	andeq	r0, sp, lr, lsl #24
 878:	0000000c 	andeq	r0, r0, ip
 87c:	00000868 	andeq	r0, r0, r8, ror #16
 880:	00009bf4 	strdeq	r9, [r0], -r4
 884:	00000020 	andeq	r0, r0, r0, lsr #32
 888:	0000000c 	andeq	r0, r0, ip
 88c:	ffffffff 			; <UNDEFINED> instruction: 0xffffffff
 890:	7c020001 	stcvc	0, cr0, [r2], {1}
 894:	000d0c0e 	andeq	r0, sp, lr, lsl #24
 898:	0000000c 	andeq	r0, r0, ip
 89c:	00000888 	andeq	r0, r0, r8, lsl #17
 8a0:	00009c14 	andeq	r9, r0, r4, lsl ip
 8a4:	0000002c 	andeq	r0, r0, ip, lsr #32
 8a8:	0000000c 	andeq	r0, r0, ip
 8ac:	ffffffff 			; <UNDEFINED> instruction: 0xffffffff
 8b0:	7c020001 	stcvc	0, cr0, [r2], {1}
 8b4:	000d0c0e 	andeq	r0, sp, lr, lsl #24
 8b8:	0000000c 	andeq	r0, r0, ip
 8bc:	000008a8 	andeq	r0, r0, r8, lsr #17
 8c0:	00009c40 	andeq	r9, r0, r0, asr #24
 8c4:	00000004 	andeq	r0, r0, r4
 8c8:	0000000c 	andeq	r0, r0, ip
 8cc:	ffffffff 			; <UNDEFINED> instruction: 0xffffffff
 8d0:	7c020001 	stcvc	0, cr0, [r2], {1}
 8d4:	000d0c0e 	andeq	r0, sp, lr, lsl #24
 8d8:	00000018 	andeq	r0, r0, r8, lsl r0
 8dc:	000008c8 	andeq	r0, r0, r8, asr #17
 8e0:	00009c5c 	andeq	r9, r0, ip, asr ip
 8e4:	00000064 	andeq	r0, r0, r4, rrx
 8e8:	84100e46 	ldrhi	r0, [r0], #-3654	; 0xfffff1ba
 8ec:	86038504 	strhi	r8, [r3], -r4, lsl #10
 8f0:	00018e02 	andeq	r8, r1, r2, lsl #28
 8f4:	00000014 	andeq	r0, r0, r4, lsl r0
 8f8:	000008c8 	andeq	r0, r0, r8, asr #17
 8fc:	00009cc0 	andeq	r9, r0, r0, asr #25
 900:	00000010 	andeq	r0, r0, r0, lsl r0
 904:	84080e42 	strhi	r0, [r8], #-3650	; 0xfffff1be
 908:	00018e02 	andeq	r8, r1, r2, lsl #28
 90c:	00000014 	andeq	r0, r0, r4, lsl r0
 910:	000008c8 	andeq	r0, r0, r8, asr #17
 914:	00009cd0 	ldrdeq	r9, [r0], -r0
 918:	00000024 	andeq	r0, r0, r4, lsr #32
 91c:	84080e46 	strhi	r0, [r8], #-3654	; 0xfffff1ba
 920:	00018e02 	andeq	r8, r1, r2, lsl #28
 924:	00000014 	andeq	r0, r0, r4, lsl r0
 928:	000008c8 	andeq	r0, r0, r8, asr #17
 92c:	00009cf4 	strdeq	r9, [r0], -r4
 930:	00000024 	andeq	r0, r0, r4, lsr #32
 934:	84080e46 	strhi	r0, [r8], #-3654	; 0xfffff1ba
 938:	00018e02 	andeq	r8, r1, r2, lsl #28
 93c:	00000014 	andeq	r0, r0, r4, lsl r0
 940:	000008c8 	andeq	r0, r0, r8, asr #17
 944:	00009d18 	andeq	r9, r0, r8, lsl sp
 948:	00000010 	andeq	r0, r0, r0, lsl r0
 94c:	84080e42 	strhi	r0, [r8], #-3650	; 0xfffff1be
 950:	00018e02 	andeq	r8, r1, r2, lsl #28
 954:	00000014 	andeq	r0, r0, r4, lsl r0
 958:	000008c8 	andeq	r0, r0, r8, asr #17
 95c:	00009d28 	andeq	r9, r0, r8, lsr #26
 960:	0000001c 	andeq	r0, r0, ip, lsl r0
 964:	84080e42 	strhi	r0, [r8], #-3650	; 0xfffff1be
 968:	00018e02 	andeq	r8, r1, r2, lsl #28
 96c:	00000018 	andeq	r0, r0, r8, lsl r0
 970:	000008c8 	andeq	r0, r0, r8, asr #17
 974:	00009d44 	andeq	r9, r0, r4, asr #26
 978:	00000034 	andeq	r0, r0, r4, lsr r0
 97c:	84080e46 	strhi	r0, [r8], #-3654	; 0xfffff1ba
 980:	4e018e02 	cdpmi	14, 0, cr8, cr1, cr2, {0}
 984:	cec4000e 	cdpgt	0, 12, cr0, cr4, cr14, {0}

Disassembly of section .debug_ranges:

00000000 <.debug_ranges>:
   0:	00000010 	andeq	r0, r0, r0, lsl r0
   4:	00000028 	andeq	r0, r0, r8, lsr #32
   8:	00000040 	andeq	r0, r0, r0, asr #32
   c:	00000074 	andeq	r0, r0, r4, ror r0
	...
  18:	00000248 	andeq	r0, r0, r8, asr #4
  1c:	0000024c 	andeq	r0, r0, ip, asr #4
  20:	000002ac 	andeq	r0, r0, ip, lsr #5
  24:	00000330 	andeq	r0, r0, r0, lsr r3
	...
  30:	000002ac 	andeq	r0, r0, ip, lsr #5
  34:	000002c8 	andeq	r0, r0, r8, asr #5
  38:	000002d4 	ldrdeq	r0, [r0], -r4
  3c:	00000330 	andeq	r0, r0, r0, lsr r3
	...
  48:	000002ac 	andeq	r0, r0, ip, lsr #5
  4c:	000002c8 	andeq	r0, r0, r8, asr #5
  50:	000002f4 	strdeq	r0, [r0], -r4
  54:	00000330 	andeq	r0, r0, r0, lsr r3
	...
  60:	000094b4 			; <UNDEFINED> instruction: 0x000094b4
  64:	00009534 	andeq	r9, r0, r4, lsr r5
	...
  70:	00000134 	andeq	r0, r0, r4, lsr r1
  74:	00000134 	andeq	r0, r0, r4, lsr r1
  78:	00000134 	andeq	r0, r0, r4, lsr r1
  7c:	0000013c 	andeq	r0, r0, ip, lsr r1
	...
  88:	0000024c 	andeq	r0, r0, ip, asr #4
  8c:	00000264 	andeq	r0, r0, r4, ror #4
  90:	000002c8 	andeq	r0, r0, r8, asr #5
  94:	000002e8 	andeq	r0, r0, r8, ror #5
	...
  a0:	00009c14 	andeq	r9, r0, r4, lsl ip
  a4:	00009c40 	andeq	r9, r0, r0, asr #24
	...
