
tests/part2-test2.elf:     file format elf32-littlearm


Disassembly of section .text:

00008000 <__code_start__>:
    8000:	e3a00013 	mov	r0, #19, 0
    8004:	e3800080 	orr	r0, r0, #128, 0	; 0x80
    8008:	e129f000 	msr	CPSR_fc, r0
    800c:	e3a01000 	mov	r1, #0, 0
    8010:	ee071f95 	mcr	15, 0, r1, cr7, cr5, {4}
    8014:	e3a0d302 	mov	sp, #134217728	; 0x8000000
    8018:	e3a0b000 	mov	fp, #0, 0
    801c:	eb000508 	bl	9444 <_cstart>
    8020:	eb000522 	bl	94b0 <rpi_reboot>

00008024 <PUT32>:
    8024:	e5801000 	str	r1, [r0]
    8028:	e12fff1e 	bx	lr

0000802c <GET32>:
    802c:	e5900000 	ldr	r0, [r0]
    8030:	e12fff1e 	bx	lr

00008034 <BRANCHTO>:
    8034:	e12fff10 	bx	r0

00008038 <test>:
    8038:	e92d4070 	push	{r4, r5, r6, lr}
    803c:	e24dd018 	sub	sp, sp, #24, 0
    8040:	e59f607c 	ldr	r6, [pc, #124]	; 80c4 <test+0x8c>
    8044:	e59f307c 	ldr	r3, [pc, #124]	; 80c8 <test+0x90>
    8048:	e59f207c 	ldr	r2, [pc, #124]	; 80cc <test+0x94>
    804c:	e1a01006 	mov	r1, r6
    8050:	e59f0078 	ldr	r0, [pc, #120]	; 80d0 <test+0x98>
    8054:	eb0002fc 	bl	8c4c <printk>
    8058:	e59f5074 	ldr	r5, [pc, #116]	; 80d4 <test+0x9c>
    805c:	e58d5000 	str	r5, [sp]
    8060:	e59f4070 	ldr	r4, [pc, #112]	; 80d8 <test+0xa0>
    8064:	e58d4004 	str	r4, [sp, #4]
    8068:	e3a0301a 	mov	r3, #26, 0
    806c:	e58d3008 	str	r3, [sp, #8]
    8070:	e1a0300d 	mov	r3, sp
    8074:	e893000e 	ldm	r3, {r1, r2, r3}
    8078:	e3a00004 	mov	r0, #4, 0
    807c:	eb0000e4 	bl	8414 <ckalloc>
    8080:	e5860000 	str	r0, [r6]
    8084:	e3a02004 	mov	r2, #4, 0
    8088:	e3a01000 	mov	r1, #0, 0
    808c:	eb0002e8 	bl	8c34 <memset>
    8090:	e58d500c 	str	r5, [sp, #12]
    8094:	e58d4010 	str	r4, [sp, #16]
    8098:	e3a0301d 	mov	r3, #29, 0
    809c:	e58d3014 	str	r3, [sp, #20]
    80a0:	e28d3018 	add	r3, sp, #24, 0
    80a4:	e913000e 	ldmdb	r3, {r1, r2, r3}
    80a8:	e3a00004 	mov	r0, #4, 0
    80ac:	eb0000d8 	bl	8414 <ckalloc>
    80b0:	e1a04000 	mov	r4, r0
    80b4:	eb00022e 	bl	8974 <check_no_leak>
    80b8:	e1a00004 	mov	r0, r4
    80bc:	e28dd018 	add	sp, sp, #24, 0
    80c0:	e8bd8070 	pop	{r4, r5, r6, pc}
    80c4:	0000a9dc 	ldrdeq	sl, [r0], -ip
    80c8:	0000a5ac 	andeq	sl, r0, ip, lsr #11
    80cc:	0000a598 	muleq	r0, r8, r5
    80d0:	00009d48 	andeq	r9, r0, r8, asr #26
    80d4:	00009d70 	andeq	r9, r0, r0, ror sp
    80d8:	00009ddc 	ldrdeq	r9, [r0], -ip

000080dc <notmain>:
    80dc:	e92d4010 	push	{r4, lr}
    80e0:	e59f0014 	ldr	r0, [pc, #20]	; 80fc <notmain+0x20>
    80e4:	eb0002d8 	bl	8c4c <printk>
    80e8:	ebffffd2 	bl	8038 <test>
    80ec:	e1a01000 	mov	r1, r0
    80f0:	e59f0008 	ldr	r0, [pc, #8]	; 8100 <notmain+0x24>
    80f4:	eb0002d4 	bl	8c4c <printk>
    80f8:	e8bd8010 	pop	{r4, pc}
    80fc:	00009d84 	andeq	r9, r0, r4, lsl #27
    8100:	00009dcc 	andeq	r9, r0, ip, asr #27

00008104 <list_append>:
    8104:	e59f3058 	ldr	r3, [pc, #88]	; 8164 <list_append+0x60>
    8108:	e5933000 	ldr	r3, [r3]
    810c:	e3530000 	cmp	r3, #0, 0
    8110:	0a000005 	beq	812c <list_append+0x28>
    8114:	e3500000 	cmp	r0, #0, 0
    8118:	0a000007 	beq	813c <list_append+0x38>
    811c:	e59f2040 	ldr	r2, [pc, #64]	; 8164 <list_append+0x60>
    8120:	e5821000 	str	r1, [r2]
    8124:	e5831000 	str	r1, [r3]
    8128:	e12fff1e 	bx	lr
    812c:	e59f3030 	ldr	r3, [pc, #48]	; 8164 <list_append+0x60>
    8130:	e5831004 	str	r1, [r3, #4]
    8134:	e5831000 	str	r1, [r3]
    8138:	e12fff1e 	bx	lr
    813c:	e52de004 	push	{lr}		; (str lr, [sp, #-4]!)
    8140:	e24dd00c 	sub	sp, sp, #12, 0
    8144:	e59f301c 	ldr	r3, [pc, #28]	; 8168 <list_append+0x64>
    8148:	e58d3000 	str	r3, [sp]
    814c:	e3a03025 	mov	r3, #37, 0	; 0x25
    8150:	e59f2014 	ldr	r2, [pc, #20]	; 816c <list_append+0x68>
    8154:	e59f1014 	ldr	r1, [pc, #20]	; 8170 <list_append+0x6c>
    8158:	e59f0014 	ldr	r0, [pc, #20]	; 8174 <list_append+0x70>
    815c:	eb0002ba 	bl	8c4c <printk>
    8160:	eb0004ac 	bl	9418 <clean_reboot>
    8164:	0000a5b0 			; <UNDEFINED> instruction: 0x0000a5b0
    8168:	00009e04 	andeq	r9, r0, r4, lsl #28
    816c:	00009ee0 	andeq	r9, r0, r0, ror #29
    8170:	00009de4 	andeq	r9, r0, r4, ror #27
    8174:	00009df0 	strdeq	r9, [r0], -r0

00008178 <ck_first_hdr>:
    8178:	e59f3004 	ldr	r3, [pc, #4]	; 8184 <ck_first_hdr+0xc>
    817c:	e5930004 	ldr	r0, [r3, #4]
    8180:	e12fff1e 	bx	lr
    8184:	0000a5b0 			; <UNDEFINED> instruction: 0x0000a5b0

00008188 <ck_next_hdr>:
    8188:	e3500000 	cmp	r0, #0, 0
    818c:	012fff1e 	bxeq	lr
    8190:	e5900000 	ldr	r0, [r0]
    8194:	e12fff1e 	bx	lr

00008198 <list_remove>:
    8198:	e92d4030 	push	{r4, r5, lr}
    819c:	e24dd00c 	sub	sp, sp, #12, 0
    81a0:	e3500000 	cmp	r0, #0, 0
    81a4:	0a00000c 	beq	81dc <list_remove+0x44>
    81a8:	e1a04001 	mov	r4, r1
    81ac:	e1500001 	cmp	r0, r1
    81b0:	0a000007 	beq	81d4 <list_remove+0x3c>
    81b4:	e1a05000 	mov	r5, r0
    81b8:	ebfffff2 	bl	8188 <ck_next_hdr>
    81bc:	e3500000 	cmp	r0, #0, 0
    81c0:	0a00000d 	beq	81fc <list_remove+0x64>
    81c4:	e1540000 	cmp	r4, r0
    81c8:	1afffff9 	bne	81b4 <list_remove+0x1c>
    81cc:	e5903000 	ldr	r3, [r0]
    81d0:	e5853000 	str	r3, [r5]
    81d4:	e28dd00c 	add	sp, sp, #12, 0
    81d8:	e8bd8030 	pop	{r4, r5, pc}
    81dc:	e59f3034 	ldr	r3, [pc, #52]	; 8218 <list_remove+0x80>
    81e0:	e58d3000 	str	r3, [sp]
    81e4:	e3a0300b 	mov	r3, #11, 0
    81e8:	e59f202c 	ldr	r2, [pc, #44]	; 821c <list_remove+0x84>
    81ec:	e59f102c 	ldr	r1, [pc, #44]	; 8220 <list_remove+0x88>
    81f0:	e59f002c 	ldr	r0, [pc, #44]	; 8224 <list_remove+0x8c>
    81f4:	eb000294 	bl	8c4c <printk>
    81f8:	eb000486 	bl	9418 <clean_reboot>
    81fc:	e58d4000 	str	r4, [sp]
    8200:	e3a0301b 	mov	r3, #27, 0
    8204:	e59f2010 	ldr	r2, [pc, #16]	; 821c <list_remove+0x84>
    8208:	e59f1010 	ldr	r1, [pc, #16]	; 8220 <list_remove+0x88>
    820c:	e59f0014 	ldr	r0, [pc, #20]	; 8228 <list_remove+0x90>
    8210:	eb00028d 	bl	8c4c <printk>
    8214:	eb00047f 	bl	9418 <clean_reboot>
    8218:	00009e04 	andeq	r9, r0, r4, lsl #28
    821c:	00009eec 	andeq	r9, r0, ip, ror #29
    8220:	00009de4 	andeq	r9, r0, r4, ror #27
    8224:	00009df0 	strdeq	r9, [r0], -r0
    8228:	00009e08 	andeq	r9, r0, r8, lsl #28

0000822c <ck_hdr_start>:
    822c:	e2800024 	add	r0, r0, #36, 0	; 0x24
    8230:	e12fff1e 	bx	lr

00008234 <ck_hdr_end>:
    8234:	e92d4010 	push	{r4, lr}
    8238:	e1a04000 	mov	r4, r0
    823c:	ebfffffa 	bl	822c <ck_hdr_start>
    8240:	e5943004 	ldr	r3, [r4, #4]
    8244:	e0800003 	add	r0, r0, r3
    8248:	e8bd8010 	pop	{r4, pc}

0000824c <kr_first_hdr>:
    824c:	e92d4010 	push	{r4, lr}
    8250:	ebffffc8 	bl	8178 <ck_first_hdr>
    8254:	e2800024 	add	r0, r0, #36, 0	; 0x24
    8258:	e8bd8010 	pop	{r4, pc}

0000825c <kr_next_hdr>:
    825c:	e3500000 	cmp	r0, #0, 0
    8260:	012fff1e 	bxeq	lr
    8264:	e5900000 	ldr	r0, [r0]
    8268:	e2800024 	add	r0, r0, #36, 0	; 0x24
    826c:	e12fff1e 	bx	lr

00008270 <ck_ptr_in_block>:
    8270:	e5903004 	ldr	r3, [r0, #4]
    8274:	e2833024 	add	r3, r3, #36, 0	; 0x24
    8278:	e0803003 	add	r3, r0, r3
    827c:	e1530001 	cmp	r3, r1
    8280:	3a000004 	bcc	8298 <ck_ptr_in_block+0x28>
    8284:	e2800024 	add	r0, r0, #36, 0	; 0x24
    8288:	e1500001 	cmp	r0, r1
    828c:	9a000003 	bls	82a0 <ck_ptr_in_block+0x30>
    8290:	e3a00000 	mov	r0, #0, 0
    8294:	e12fff1e 	bx	lr
    8298:	e3a00000 	mov	r0, #0, 0
    829c:	e12fff1e 	bx	lr
    82a0:	e3a00001 	mov	r0, #1, 0
    82a4:	e12fff1e 	bx	lr

000082a8 <ck_ptr_is_alloced>:
    82a8:	e92d4070 	push	{r4, r5, r6, lr}
    82ac:	e1a05000 	mov	r5, r0
    82b0:	ebffffb0 	bl	8178 <ck_first_hdr>
    82b4:	e1a04000 	mov	r4, r0
    82b8:	ea000002 	b	82c8 <ck_ptr_is_alloced+0x20>
    82bc:	e1a00004 	mov	r0, r4
    82c0:	ebffffb0 	bl	8188 <ck_next_hdr>
    82c4:	e1a04000 	mov	r4, r0
    82c8:	e3540000 	cmp	r4, #0, 0
    82cc:	0a000007 	beq	82f0 <ck_ptr_is_alloced+0x48>
    82d0:	e1a01005 	mov	r1, r5
    82d4:	e1a00004 	mov	r0, r4
    82d8:	ebffffe4 	bl	8270 <ck_ptr_in_block>
    82dc:	e3500000 	cmp	r0, #0, 0
    82e0:	0afffff5 	beq	82bc <ck_ptr_is_alloced+0x14>
    82e4:	e5943008 	ldr	r3, [r4, #8]
    82e8:	e353000b 	cmp	r3, #11, 0
    82ec:	1afffff2 	bne	82bc <ck_ptr_is_alloced+0x14>
    82f0:	e1a00004 	mov	r0, r4
    82f4:	e8bd8070 	pop	{r4, r5, r6, pc}

000082f8 <ckfree>:
    82f8:	e92d4030 	push	{r4, r5, lr}
    82fc:	e24dd01c 	sub	sp, sp, #28, 0
    8300:	e1a04000 	mov	r4, r0
    8304:	e28d0018 	add	r0, sp, #24, 0
    8308:	e900000e 	stmdb	r0, {r1, r2, r3}
    830c:	e514301c 	ldr	r3, [r4, #-28]	; 0xffffffe4
    8310:	e353000b 	cmp	r3, #11, 0
    8314:	1a00001a 	bne	8384 <ckfree+0x8c>
    8318:	e2445024 	sub	r5, r4, #36, 0	; 0x24
    831c:	e59d3014 	ldr	r3, [sp, #20]
    8320:	e59d2010 	ldr	r2, [sp, #16]
    8324:	e59d100c 	ldr	r1, [sp, #12]
    8328:	e59f00bc 	ldr	r0, [pc, #188]	; 83ec <ckfree+0xf4>
    832c:	eb000246 	bl	8c4c <printk>
    8330:	e1a01004 	mov	r1, r4
    8334:	e59f00b4 	ldr	r0, [pc, #180]	; 83f0 <ckfree+0xf8>
    8338:	eb000243 	bl	8c4c <printk>
    833c:	e1a00004 	mov	r0, r4
    8340:	ebffffd8 	bl	82a8 <ck_ptr_is_alloced>
    8344:	e3500000 	cmp	r0, #0, 0
    8348:	0a000017 	beq	83ac <ckfree+0xb4>
    834c:	e3a0300c 	mov	r3, #12, 0
    8350:	e504301c 	str	r3, [r4, #-28]	; 0xffffffe4
    8354:	e1a01005 	mov	r1, r5
    8358:	e59f3094 	ldr	r3, [pc, #148]	; 83f4 <ckfree+0xfc>
    835c:	e5930004 	ldr	r0, [r3, #4]
    8360:	ebffff8c 	bl	8198 <list_remove>
    8364:	e1a00004 	mov	r0, r4
    8368:	ebffffce 	bl	82a8 <ck_ptr_is_alloced>
    836c:	e3500000 	cmp	r0, #0, 0
    8370:	1a000015 	bne	83cc <ckfree+0xd4>
    8374:	e1a00005 	mov	r0, r5
    8378:	eb0001c2 	bl	8a88 <kr_free>
    837c:	e28dd01c 	add	sp, sp, #28, 0
    8380:	e8bd8030 	pop	{r4, r5, pc}
    8384:	e59d3014 	ldr	r3, [sp, #20]
    8388:	e59d2010 	ldr	r2, [sp, #16]
    838c:	e59d100c 	ldr	r1, [sp, #12]
    8390:	e59f0060 	ldr	r0, [pc, #96]	; 83f8 <ckfree+0x100>
    8394:	eb00022c 	bl	8c4c <printk>
    8398:	e514201c 	ldr	r2, [r4, #-28]	; 0xffffffe4
    839c:	e1a01004 	mov	r1, r4
    83a0:	e59f0054 	ldr	r0, [pc, #84]	; 83fc <ckfree+0x104>
    83a4:	eb000228 	bl	8c4c <printk>
    83a8:	eb00041a 	bl	9418 <clean_reboot>
    83ac:	e59f304c 	ldr	r3, [pc, #76]	; 8400 <ckfree+0x108>
    83b0:	e58d3000 	str	r3, [sp]
    83b4:	e3a0306d 	mov	r3, #109, 0	; 0x6d
    83b8:	e59f2044 	ldr	r2, [pc, #68]	; 8404 <ckfree+0x10c>
    83bc:	e59f1044 	ldr	r1, [pc, #68]	; 8408 <ckfree+0x110>
    83c0:	e59f0044 	ldr	r0, [pc, #68]	; 840c <ckfree+0x114>
    83c4:	eb000220 	bl	8c4c <printk>
    83c8:	eb000412 	bl	9418 <clean_reboot>
    83cc:	e59f303c 	ldr	r3, [pc, #60]	; 8410 <ckfree+0x118>
    83d0:	e58d3000 	str	r3, [sp]
    83d4:	e3a03070 	mov	r3, #112, 0	; 0x70
    83d8:	e59f2024 	ldr	r2, [pc, #36]	; 8404 <ckfree+0x10c>
    83dc:	e59f1024 	ldr	r1, [pc, #36]	; 8408 <ckfree+0x110>
    83e0:	e59f0024 	ldr	r0, [pc, #36]	; 840c <ckfree+0x114>
    83e4:	eb000218 	bl	8c4c <printk>
    83e8:	eb00040a 	bl	9418 <clean_reboot>
    83ec:	00009e7c 	andeq	r9, r0, ip, ror lr
    83f0:	00009e88 	andeq	r9, r0, r8, lsl #29
    83f4:	0000a5b0 			; <UNDEFINED> instruction: 0x0000a5b0
    83f8:	00009e34 	andeq	r9, r0, r4, lsr lr
    83fc:	00009e4c 	andeq	r9, r0, ip, asr #28
    8400:	00009e94 	muleq	r0, r4, lr
    8404:	00009ef8 	strdeq	r9, [r0], -r8
    8408:	00009de4 	andeq	r9, r0, r4, ror #27
    840c:	00009df0 	strdeq	r9, [r0], -r0
    8410:	00009eb4 			; <UNDEFINED> instruction: 0x00009eb4

00008414 <ckalloc>:
    8414:	e92d4070 	push	{r4, r5, r6, lr}
    8418:	e24dd010 	sub	sp, sp, #16, 0
    841c:	e1a06000 	mov	r6, r0
    8420:	e28d5004 	add	r5, sp, #4, 0
    8424:	e885000e 	stm	r5, {r1, r2, r3}
    8428:	e2800024 	add	r0, r0, #36, 0	; 0x24
    842c:	eb0001d5 	bl	8b88 <kr_malloc>
    8430:	e1a04000 	mov	r4, r0
    8434:	e3a02024 	mov	r2, #36, 0	; 0x24
    8438:	e3a01000 	mov	r1, #0, 0
    843c:	eb0001fc 	bl	8c34 <memset>
    8440:	e5846004 	str	r6, [r4, #4]
    8444:	e3a0300b 	mov	r3, #11, 0
    8448:	e5843008 	str	r3, [r4, #8]
    844c:	e284300c 	add	r3, r4, #12, 0
    8450:	e8950007 	ldm	r5, {r0, r1, r2}
    8454:	e8830007 	stm	r3, {r0, r1, r2}
    8458:	e3a03000 	mov	r3, #0, 0
    845c:	e5843000 	str	r3, [r4]
    8460:	e1c432b0 	strh	r3, [r4, #32]
    8464:	e59d300c 	ldr	r3, [sp, #12]
    8468:	e59d2008 	ldr	r2, [sp, #8]
    846c:	e59d1004 	ldr	r1, [sp, #4]
    8470:	e59f002c 	ldr	r0, [pc, #44]	; 84a4 <ckalloc+0x90>
    8474:	eb0001f4 	bl	8c4c <printk>
    8478:	e2845024 	add	r5, r4, #36, 0	; 0x24
    847c:	e1a01005 	mov	r1, r5
    8480:	e59f0020 	ldr	r0, [pc, #32]	; 84a8 <ckalloc+0x94>
    8484:	eb0001f0 	bl	8c4c <printk>
    8488:	e1a01004 	mov	r1, r4
    848c:	e59f3018 	ldr	r3, [pc, #24]	; 84ac <ckalloc+0x98>
    8490:	e5930004 	ldr	r0, [r3, #4]
    8494:	ebffff1a 	bl	8104 <list_append>
    8498:	e1a00005 	mov	r0, r5
    849c:	e28dd010 	add	sp, sp, #16, 0
    84a0:	e8bd8070 	pop	{r4, r5, r6, pc}
    84a4:	00009e7c 	andeq	r9, r0, ip, ror lr
    84a8:	00009ed0 	ldrdeq	r9, [r0], -r0
    84ac:	0000a5b0 			; <UNDEFINED> instruction: 0x0000a5b0

000084b0 <in_heap>:
    84b0:	e59f3030 	ldr	r3, [pc, #48]	; 84e8 <in_heap+0x38>
    84b4:	e5933000 	ldr	r3, [r3]
    84b8:	e1530000 	cmp	r3, r0
    84bc:	8a000005 	bhi	84d8 <in_heap+0x28>
    84c0:	e59f3020 	ldr	r3, [pc, #32]	; 84e8 <in_heap+0x38>
    84c4:	e5933004 	ldr	r3, [r3, #4]
    84c8:	e1530000 	cmp	r3, r0
    84cc:	9a000003 	bls	84e0 <in_heap+0x30>
    84d0:	e3a00001 	mov	r0, #1, 0
    84d4:	e12fff1e 	bx	lr
    84d8:	e3a00000 	mov	r0, #0, 0
    84dc:	e12fff1e 	bx	lr
    84e0:	e3a00000 	mov	r0, #0, 0
    84e4:	e12fff1e 	bx	lr
    84e8:	0000a5b8 			; <UNDEFINED> instruction: 0x0000a5b8

000084ec <sweep_leak>:
    84ec:	e92d41f0 	push	{r4, r5, r6, r7, r8, lr}
    84f0:	e59f00d8 	ldr	r0, [pc, #216]	; 85d0 <sweep_leak+0xe4>
    84f4:	eb0001d4 	bl	8c4c <printk>
    84f8:	e59f00d4 	ldr	r0, [pc, #212]	; 85d4 <sweep_leak+0xe8>
    84fc:	eb0001d2 	bl	8c4c <printk>
    8500:	ebffff1c 	bl	8178 <ck_first_hdr>
    8504:	e1a04000 	mov	r4, r0
    8508:	e3a06000 	mov	r6, #0, 0
    850c:	e1a07006 	mov	r7, r6
    8510:	e1a05006 	mov	r5, r6
    8514:	ea00000c 	b	854c <sweep_leak+0x60>
    8518:	e3530000 	cmp	r3, #0, 0
    851c:	1a000004 	bne	8534 <sweep_leak+0x48>
    8520:	e594301c 	ldr	r3, [r4, #28]
    8524:	e3530000 	cmp	r3, #0, 0
    8528:	02877001 	addeq	r7, r7, #1, 0
    852c:	03a03001 	moveq	r3, #1, 0
    8530:	01c432b2 	strheq	r3, [r4, #34]	; 0x22
    8534:	e1a01004 	mov	r1, r4
    8538:	e59f0098 	ldr	r0, [pc, #152]	; 85d8 <sweep_leak+0xec>
    853c:	eb0001c2 	bl	8c4c <printk>
    8540:	e1a00004 	mov	r0, r4
    8544:	ebffff0f 	bl	8188 <ck_next_hdr>
    8548:	e1a04000 	mov	r4, r0
    854c:	e3540000 	cmp	r4, #0, 0
    8550:	0a00000e 	beq	8590 <sweep_leak+0xa4>
    8554:	e2855001 	add	r5, r5, #1, 0
    8558:	e5943008 	ldr	r3, [r4, #8]
    855c:	e353000b 	cmp	r3, #11, 0
    8560:	1afffff6 	bne	8540 <sweep_leak+0x54>
    8564:	e5943020 	ldr	r3, [r4, #32]
    8568:	e3530000 	cmp	r3, #0, 0
    856c:	1afffff3 	bne	8540 <sweep_leak+0x54>
    8570:	e5943018 	ldr	r3, [r4, #24]
    8574:	e3530000 	cmp	r3, #0, 0
    8578:	1affffe6 	bne	8518 <sweep_leak+0x2c>
    857c:	e594201c 	ldr	r2, [r4, #28]
    8580:	e3520000 	cmp	r2, #0, 0
    8584:	0affffe3 	beq	8518 <sweep_leak+0x2c>
    8588:	e2866001 	add	r6, r6, #1, 0
    858c:	eaffffe8 	b	8534 <sweep_leak+0x48>
    8590:	e1a01005 	mov	r1, r5
    8594:	e59f0040 	ldr	r0, [pc, #64]	; 85dc <sweep_leak+0xf0>
    8598:	eb0001ab 	bl	8c4c <printk>
    859c:	e1973006 	orrs	r3, r7, r6
    85a0:	1a000005 	bne	85bc <sweep_leak+0xd0>
    85a4:	e59f0034 	ldr	r0, [pc, #52]	; 85e0 <sweep_leak+0xf4>
    85a8:	eb0001a7 	bl	8c4c <printk>
    85ac:	e59f0030 	ldr	r0, [pc, #48]	; 85e4 <sweep_leak+0xf8>
    85b0:	eb0001a5 	bl	8c4c <printk>
    85b4:	e0870006 	add	r0, r7, r6
    85b8:	e8bd81f0 	pop	{r4, r5, r6, r7, r8, pc}
    85bc:	e1a02006 	mov	r2, r6
    85c0:	e1a01007 	mov	r1, r7
    85c4:	e59f001c 	ldr	r0, [pc, #28]	; 85e8 <sweep_leak+0xfc>
    85c8:	eb00019f 	bl	8c4c <printk>
    85cc:	eafffff6 	b	85ac <sweep_leak+0xc0>
    85d0:	00009f00 	andeq	r9, r0, r0, lsl #30
    85d4:	00009f3c 	andeq	r9, r0, ip, lsr pc
    85d8:	00009f54 	andeq	r9, r0, r4, asr pc
    85dc:	00009f74 	andeq	r9, r0, r4, ror pc
    85e0:	00009f94 	muleq	r0, r4, pc	; <UNPREDICTABLE>
    85e4:	00009fec 	andeq	r9, r0, ip, ror #31
    85e8:	00009fbc 			; <UNDEFINED> instruction: 0x00009fbc

000085ec <sweep_free>:
    85ec:	e92d41f0 	push	{r4, r5, r6, r7, r8, lr}
    85f0:	e59f009c 	ldr	r0, [pc, #156]	; 8694 <sweep_free+0xa8>
    85f4:	eb000194 	bl	8c4c <printk>
    85f8:	e59f0098 	ldr	r0, [pc, #152]	; 8698 <sweep_free+0xac>
    85fc:	eb000192 	bl	8c4c <printk>
    8600:	ebfffedc 	bl	8178 <ck_first_hdr>
    8604:	e1a04000 	mov	r4, r0
    8608:	e3a06000 	mov	r6, #0, 0
    860c:	e1a07006 	mov	r7, r6
    8610:	e1a05006 	mov	r5, r6
    8614:	ea000002 	b	8624 <sweep_free+0x38>
    8618:	e1a00004 	mov	r0, r4
    861c:	ebfffed9 	bl	8188 <ck_next_hdr>
    8620:	e1a04000 	mov	r4, r0
    8624:	e3540000 	cmp	r4, #0, 0
    8628:	0a000012 	beq	8678 <sweep_free+0x8c>
    862c:	e2855001 	add	r5, r5, #1, 0
    8630:	e5943008 	ldr	r3, [r4, #8]
    8634:	e353000b 	cmp	r3, #11, 0
    8638:	1afffff6 	bne	8618 <sweep_free+0x2c>
    863c:	e1d432b0 	ldrh	r3, [r4, #32]
    8640:	e3530001 	cmp	r3, #1, 0
    8644:	0afffff3 	beq	8618 <sweep_free+0x2c>
    8648:	e1d432b2 	ldrh	r3, [r4, #34]	; 0x22
    864c:	e3530000 	cmp	r3, #0, 0
    8650:	1afffff0 	bne	8618 <sweep_free+0x2c>
    8654:	e3a0300c 	mov	r3, #12, 0
    8658:	e5843008 	str	r3, [r4, #8]
    865c:	e2877001 	add	r7, r7, #1, 0
    8660:	e5943004 	ldr	r3, [r4, #4]
    8664:	e0866003 	add	r6, r6, r3
    8668:	e1a01004 	mov	r1, r4
    866c:	e59f0028 	ldr	r0, [pc, #40]	; 869c <sweep_free+0xb0>
    8670:	eb000175 	bl	8c4c <printk>
    8674:	eaffffe7 	b	8618 <sweep_free+0x2c>
    8678:	e1a03006 	mov	r3, r6
    867c:	e1a02007 	mov	r2, r7
    8680:	e1a01005 	mov	r1, r5
    8684:	e59f0014 	ldr	r0, [pc, #20]	; 86a0 <sweep_free+0xb4>
    8688:	eb00016f 	bl	8c4c <printk>
    868c:	e1a00006 	mov	r0, r6
    8690:	e8bd81f0 	pop	{r4, r5, r6, r7, r8, pc}
    8694:	00009f00 	andeq	r9, r0, r0, lsl #30
    8698:	0000a028 	andeq	sl, r0, r8, lsr #32
    869c:	0000a038 	andeq	sl, r0, r8, lsr r0
    86a0:	0000a064 	andeq	sl, r0, r4, rrx

000086a4 <is_ptr>:
    86a4:	e92d4010 	push	{r4, lr}
    86a8:	e1a04000 	mov	r4, r0
    86ac:	ebffff7f 	bl	84b0 <in_heap>
    86b0:	e3500000 	cmp	r0, #0, 0
    86b4:	0a000002 	beq	86c4 <is_ptr+0x20>
    86b8:	e1a00004 	mov	r0, r4
    86bc:	ebfffef9 	bl	82a8 <ck_ptr_is_alloced>
    86c0:	e8bd8010 	pop	{r4, pc}
    86c4:	e3a00000 	mov	r0, #0, 0
    86c8:	e8bd8010 	pop	{r4, pc}

000086cc <mark>:
    86cc:	e92d41f0 	push	{r4, r5, r6, r7, r8, lr}
    86d0:	e24dd008 	sub	sp, sp, #8, 0
    86d4:	e1500001 	cmp	r0, r1
    86d8:	2a000007 	bcs	86fc <mark+0x30>
    86dc:	e1a07000 	mov	r7, r0
    86e0:	e3100003 	tst	r0, #3, 0
    86e4:	1a00000c 	bne	871c <mark+0x50>
    86e8:	e2115003 	ands	r5, r1, #3, 0
    86ec:	1a000012 	bne	873c <mark+0x70>
    86f0:	e0411000 	sub	r1, r1, r0
    86f4:	e1a06141 	asr	r6, r1, #2
    86f8:	ea00001f 	b	877c <mark+0xb0>
    86fc:	e59f30e4 	ldr	r3, [pc, #228]	; 87e8 <mark+0x11c>
    8700:	e58d3000 	str	r3, [sp]
    8704:	e3a0304c 	mov	r3, #76, 0	; 0x4c
    8708:	e59f20dc 	ldr	r2, [pc, #220]	; 87ec <mark+0x120>
    870c:	e59f10dc 	ldr	r1, [pc, #220]	; 87f0 <mark+0x124>
    8710:	e59f00dc 	ldr	r0, [pc, #220]	; 87f4 <mark+0x128>
    8714:	eb00014c 	bl	8c4c <printk>
    8718:	eb00033e 	bl	9418 <clean_reboot>
    871c:	e59f30d4 	ldr	r3, [pc, #212]	; 87f8 <mark+0x12c>
    8720:	e58d3000 	str	r3, [sp]
    8724:	e3a0304e 	mov	r3, #78, 0	; 0x4e
    8728:	e59f20bc 	ldr	r2, [pc, #188]	; 87ec <mark+0x120>
    872c:	e59f10bc 	ldr	r1, [pc, #188]	; 87f0 <mark+0x124>
    8730:	e59f00bc 	ldr	r0, [pc, #188]	; 87f4 <mark+0x128>
    8734:	eb000144 	bl	8c4c <printk>
    8738:	eb000336 	bl	9418 <clean_reboot>
    873c:	e59f30b8 	ldr	r3, [pc, #184]	; 87fc <mark+0x130>
    8740:	e58d3000 	str	r3, [sp]
    8744:	e3a0304f 	mov	r3, #79, 0	; 0x4f
    8748:	e59f209c 	ldr	r2, [pc, #156]	; 87ec <mark+0x120>
    874c:	e59f109c 	ldr	r1, [pc, #156]	; 87f0 <mark+0x124>
    8750:	e59f009c 	ldr	r0, [pc, #156]	; 87f4 <mark+0x128>
    8754:	eb00013c 	bl	8c4c <printk>
    8758:	eb00032e 	bl	9418 <clean_reboot>
    875c:	e7973008 	ldr	r3, [r7, r8]
    8760:	e1530004 	cmp	r3, r4
    8764:	0a000019 	beq	87d0 <mark+0x104>
    8768:	e2840024 	add	r0, r4, #36, 0	; 0x24
    876c:	e5941004 	ldr	r1, [r4, #4]
    8770:	e0801001 	add	r1, r0, r1
    8774:	ebffffd4 	bl	86cc <mark>
    8778:	e2855001 	add	r5, r5, #1, 0
    877c:	e1550006 	cmp	r5, r6
    8780:	2a000016 	bcs	87e0 <mark+0x114>
    8784:	e1a08105 	lsl	r8, r5, #2
    8788:	e7970105 	ldr	r0, [r7, r5, lsl #2]
    878c:	ebffffc4 	bl	86a4 <is_ptr>
    8790:	e2504000 	subs	r4, r0, #0, 0
    8794:	0afffff7 	beq	8778 <mark+0xac>
    8798:	e1d432b0 	ldrh	r3, [r4, #32]
    879c:	e3530000 	cmp	r3, #0, 0
    87a0:	1afffff4 	bne	8778 <mark+0xac>
    87a4:	e3a03001 	mov	r3, #1, 0
    87a8:	e1c432b0 	strh	r3, [r4, #32]
    87ac:	e7971008 	ldr	r1, [r7, r8]
    87b0:	e1a00004 	mov	r0, r4
    87b4:	ebfffead 	bl	8270 <ck_ptr_in_block>
    87b8:	e3500000 	cmp	r0, #0, 0
    87bc:	0affffe6 	beq	875c <mark+0x90>
    87c0:	e594301c 	ldr	r3, [r4, #28]
    87c4:	e2833001 	add	r3, r3, #1, 0
    87c8:	e584301c 	str	r3, [r4, #28]
    87cc:	eaffffe5 	b	8768 <mark+0x9c>
    87d0:	e5943018 	ldr	r3, [r4, #24]
    87d4:	e2833001 	add	r3, r3, #1, 0
    87d8:	e5843018 	str	r3, [r4, #24]
    87dc:	eaffffe1 	b	8768 <mark+0x9c>
    87e0:	e28dd008 	add	sp, sp, #8, 0
    87e4:	e8bd81f0 	pop	{r4, r5, r6, r7, r8, pc}
    87e8:	0000a0a0 	andeq	sl, r0, r0, lsr #1
    87ec:	0000a1e8 	andeq	sl, r0, r8, ror #3
    87f0:	0000a098 	muleq	r0, r8, r0
    87f4:	00009df0 	strdeq	r9, [r0], -r0
    87f8:	0000a0a4 	andeq	sl, r0, r4, lsr #1
    87fc:	0000a0b4 	strheq	sl, [r0], -r4

00008800 <mark_all>:
    8800:	e52de004 	push	{lr}		; (str lr, [sp, #-4]!)
    8804:	e24dd044 	sub	sp, sp, #68, 0	; 0x44
    8808:	ebfffe5a 	bl	8178 <ck_first_hdr>
    880c:	e3500000 	cmp	r0, #0, 0
    8810:	0a000005 	beq	882c <mark_all+0x2c>
    8814:	e3a03000 	mov	r3, #0, 0
    8818:	e580301c 	str	r3, [r0, #28]
    881c:	e5803018 	str	r3, [r0, #24]
    8820:	e1c032b0 	strh	r3, [r0, #32]
    8824:	ebfffe57 	bl	8188 <ck_next_hdr>
    8828:	eafffff7 	b	880c <mark_all+0xc>
    882c:	e1a0000d 	mov	r0, sp
    8830:	eb000083 	bl	8a44 <dump_regs>
    8834:	e3a03000 	mov	r3, #0, 0
    8838:	e58d3000 	str	r3, [sp]
    883c:	e58d3004 	str	r3, [sp, #4]
    8840:	e58d3008 	str	r3, [sp, #8]
    8844:	e58d300c 	str	r3, [sp, #12]
    8848:	e28d1040 	add	r1, sp, #64, 0	; 0x40
    884c:	e1a0000d 	mov	r0, sp
    8850:	ebffff9d 	bl	86cc <mark>
    8854:	e3a01302 	mov	r1, #134217728	; 0x8000000
    8858:	e59d0034 	ldr	r0, [sp, #52]	; 0x34
    885c:	ebffff9a 	bl	86cc <mark>
    8860:	e59f1018 	ldr	r1, [pc, #24]	; 8880 <mark_all+0x80>
    8864:	e59f0018 	ldr	r0, [pc, #24]	; 8884 <mark_all+0x84>
    8868:	ebffff97 	bl	86cc <mark>
    886c:	e59f1014 	ldr	r1, [pc, #20]	; 8888 <mark_all+0x88>
    8870:	e59f0014 	ldr	r0, [pc, #20]	; 888c <mark_all+0x8c>
    8874:	ebffff94 	bl	86cc <mark>
    8878:	e28dd044 	add	sp, sp, #68, 0	; 0x44
    887c:	e49df004 	pop	{pc}		; (ldr pc, [sp], #4)
    8880:	0000a9e0 	andeq	sl, r0, r0, ror #19
    8884:	0000a5b0 			; <UNDEFINED> instruction: 0x0000a5b0
    8888:	0000a5ac 	andeq	sl, r0, ip, lsr #11
    888c:	0000a598 	muleq	r0, r8, r5

00008890 <sbrk>:
    8890:	e92d4030 	push	{r4, r5, lr}
    8894:	e24dd00c 	sub	sp, sp, #12, 0
    8898:	e1a04000 	mov	r4, r0
    889c:	e59f0084 	ldr	r0, [pc, #132]	; 8928 <sbrk+0x98>
    88a0:	eb0000e9 	bl	8c4c <printk>
    88a4:	e3540000 	cmp	r4, #0, 0
    88a8:	da000010 	ble	88f0 <sbrk+0x60>
    88ac:	e59f3078 	ldr	r3, [pc, #120]	; 892c <sbrk+0x9c>
    88b0:	e5933008 	ldr	r3, [r3, #8]
    88b4:	e3530000 	cmp	r3, #0, 0
    88b8:	1a000014 	bne	8910 <sbrk+0x80>
    88bc:	e59f5068 	ldr	r5, [pc, #104]	; 892c <sbrk+0x9c>
    88c0:	e3a00601 	mov	r0, #1048576	; 0x100000
    88c4:	e5850000 	str	r0, [r5]
    88c8:	e3a03602 	mov	r3, #2097152	; 0x200000
    88cc:	e5853004 	str	r3, [r5, #4]
    88d0:	e1a01000 	mov	r1, r0
    88d4:	eb0003b3 	bl	97a8 <kmalloc_init_set_start>
    88d8:	e3a03001 	mov	r3, #1, 0
    88dc:	e5853008 	str	r3, [r5, #8]
    88e0:	e1a00004 	mov	r0, r4
    88e4:	eb000412 	bl	9934 <kmalloc>
    88e8:	e28dd00c 	add	sp, sp, #12, 0
    88ec:	e8bd8030 	pop	{r4, r5, pc}
    88f0:	e59f3038 	ldr	r3, [pc, #56]	; 8930 <sbrk+0xa0>
    88f4:	e58d3000 	str	r3, [sp]
    88f8:	e3a03015 	mov	r3, #21, 0
    88fc:	e59f2030 	ldr	r2, [pc, #48]	; 8934 <sbrk+0xa4>
    8900:	e59f1030 	ldr	r1, [pc, #48]	; 8938 <sbrk+0xa8>
    8904:	e59f0030 	ldr	r0, [pc, #48]	; 893c <sbrk+0xac>
    8908:	eb0000cf 	bl	8c4c <printk>
    890c:	eb0002c1 	bl	9418 <clean_reboot>
    8910:	e3a03017 	mov	r3, #23, 0
    8914:	e59f2018 	ldr	r2, [pc, #24]	; 8934 <sbrk+0xa4>
    8918:	e59f1018 	ldr	r1, [pc, #24]	; 8938 <sbrk+0xa8>
    891c:	e59f001c 	ldr	r0, [pc, #28]	; 8940 <sbrk+0xb0>
    8920:	eb0000c9 	bl	8c4c <printk>
    8924:	eb0002bb 	bl	9418 <clean_reboot>
    8928:	0000a0c4 	andeq	sl, r0, r4, asr #1
    892c:	0000a5b8 			; <UNDEFINED> instruction: 0x0000a5b8
    8930:	0000a0d4 	ldrdeq	sl, [r0], -r4
    8934:	0000a1f0 	strdeq	sl, [r0], -r0
    8938:	0000a098 	muleq	r0, r8, r0
    893c:	00009df0 	strdeq	r9, [r0], -r0
    8940:	0000a0e4 	andeq	sl, r0, r4, ror #1

00008944 <ck_find_leaks>:
    8944:	e92d4010 	push	{r4, lr}
    8948:	e1a04000 	mov	r4, r0
    894c:	e59f0018 	ldr	r0, [pc, #24]	; 896c <ck_find_leaks+0x28>
    8950:	eb0000bd 	bl	8c4c <printk>
    8954:	ebffffa9 	bl	8800 <mark_all>
    8958:	e59f0010 	ldr	r0, [pc, #16]	; 8970 <ck_find_leaks+0x2c>
    895c:	eb0000ba 	bl	8c4c <printk>
    8960:	e1a00004 	mov	r0, r4
    8964:	ebfffee0 	bl	84ec <sweep_leak>
    8968:	e8bd8010 	pop	{r4, pc}
    896c:	0000a104 	andeq	sl, r0, r4, lsl #2
    8970:	0000a118 	andeq	sl, r0, r8, lsl r1

00008974 <check_no_leak>:
    8974:	e92d4010 	push	{r4, lr}
    8978:	e3a00001 	mov	r0, #1, 0
    897c:	ebfffff0 	bl	8944 <ck_find_leaks>
    8980:	e3500000 	cmp	r0, #0, 0
    8984:	1a000002 	bne	8994 <check_no_leak+0x20>
    8988:	e59f001c 	ldr	r0, [pc, #28]	; 89ac <check_no_leak+0x38>
    898c:	eb0000ae 	bl	8c4c <printk>
    8990:	e8bd8010 	pop	{r4, pc}
    8994:	e3a030c9 	mov	r3, #201, 0	; 0xc9
    8998:	e59f2010 	ldr	r2, [pc, #16]	; 89b0 <check_no_leak+0x3c>
    899c:	e59f1010 	ldr	r1, [pc, #16]	; 89b4 <check_no_leak+0x40>
    89a0:	e59f0010 	ldr	r0, [pc, #16]	; 89b8 <check_no_leak+0x44>
    89a4:	eb0000a8 	bl	8c4c <printk>
    89a8:	eb00029a 	bl	9418 <clean_reboot>
    89ac:	0000a14c 	andeq	sl, r0, ip, asr #2
    89b0:	0000a1f8 	strdeq	sl, [r0], -r8
    89b4:	0000a098 	muleq	r0, r8, r0
    89b8:	0000a120 	andeq	sl, r0, r0, lsr #2

000089bc <check_should_leak>:
    89bc:	e92d4010 	push	{r4, lr}
    89c0:	e3a00001 	mov	r0, #1, 0
    89c4:	ebffffde 	bl	8944 <ck_find_leaks>
    89c8:	e2504000 	subs	r4, r0, #0, 0
    89cc:	0a000004 	beq	89e4 <check_should_leak+0x28>
    89d0:	e1a01004 	mov	r1, r4
    89d4:	e59f0020 	ldr	r0, [pc, #32]	; 89fc <check_should_leak+0x40>
    89d8:	eb00009b 	bl	8c4c <printk>
    89dc:	e1a00004 	mov	r0, r4
    89e0:	e8bd8010 	pop	{r4, pc}
    89e4:	e3a030d7 	mov	r3, #215, 0	; 0xd7
    89e8:	e59f2010 	ldr	r2, [pc, #16]	; 8a00 <check_should_leak+0x44>
    89ec:	e59f1010 	ldr	r1, [pc, #16]	; 8a04 <check_should_leak+0x48>
    89f0:	e59f0010 	ldr	r0, [pc, #16]	; 8a08 <check_should_leak+0x4c>
    89f4:	eb000094 	bl	8c4c <printk>
    89f8:	eb000286 	bl	9418 <clean_reboot>
    89fc:	0000a194 	muleq	r0, r4, r1
    8a00:	0000a208 	andeq	sl, r0, r8, lsl #4
    8a04:	0000a098 	muleq	r0, r8, r0
    8a08:	0000a16c 	andeq	sl, r0, ip, ror #2

00008a0c <ck_gc>:
    8a0c:	e92d4010 	push	{r4, lr}
    8a10:	ebffff7a 	bl	8800 <mark_all>
    8a14:	ebfffef4 	bl	85ec <sweep_free>
    8a18:	e8bd8010 	pop	{r4, pc}

00008a1c <implement_this>:
    8a1c:	e92d4010 	push	{r4, lr}
    8a20:	e3a03c01 	mov	r3, #256	; 0x100
    8a24:	e59f200c 	ldr	r2, [pc, #12]	; 8a38 <implement_this+0x1c>
    8a28:	e59f100c 	ldr	r1, [pc, #12]	; 8a3c <implement_this+0x20>
    8a2c:	e59f000c 	ldr	r0, [pc, #12]	; 8a40 <implement_this+0x24>
    8a30:	eb000085 	bl	8c4c <printk>
    8a34:	eb000277 	bl	9418 <clean_reboot>
    8a38:	0000a21c 	andeq	sl, r0, ip, lsl r2
    8a3c:	0000a098 	muleq	r0, r8, r0
    8a40:	0000a1b8 			; <UNDEFINED> instruction: 0x0000a1b8

00008a44 <dump_regs>:
    8a44:	e5800000 	str	r0, [r0]
    8a48:	e5801004 	str	r1, [r0, #4]
    8a4c:	e5802008 	str	r2, [r0, #8]
    8a50:	e580300c 	str	r3, [r0, #12]
    8a54:	e5804010 	str	r4, [r0, #16]
    8a58:	e5805014 	str	r5, [r0, #20]
    8a5c:	e5806018 	str	r6, [r0, #24]
    8a60:	e580701c 	str	r7, [r0, #28]
    8a64:	e5808020 	str	r8, [r0, #32]
    8a68:	e5809024 	str	r9, [r0, #36]	; 0x24
    8a6c:	e580a028 	str	sl, [r0, #40]	; 0x28
    8a70:	e580b02c 	str	fp, [r0, #44]	; 0x2c
    8a74:	e580c030 	str	ip, [r0, #48]	; 0x30
    8a78:	e580d034 	str	sp, [r0, #52]	; 0x34
    8a7c:	e580e038 	str	lr, [r0, #56]	; 0x38
    8a80:	e580f03c 	str	pc, [r0, #60]	; 0x3c
    8a84:	e12fff1e 	bx	lr

00008a88 <kr_free>:
    8a88:	e52de004 	push	{lr}		; (str lr, [sp, #-4]!)
    8a8c:	e2401008 	sub	r1, r0, #8, 0
    8a90:	e59f30a8 	ldr	r3, [pc, #168]	; 8b40 <kr_free+0xb8>
    8a94:	e5933000 	ldr	r3, [r3]
    8a98:	ea000000 	b	8aa0 <kr_free+0x18>
    8a9c:	e1a03002 	mov	r3, r2
    8aa0:	e1530001 	cmp	r3, r1
    8aa4:	2a000002 	bcs	8ab4 <kr_free+0x2c>
    8aa8:	e5932000 	ldr	r2, [r3]
    8aac:	e1520001 	cmp	r2, r1
    8ab0:	8a000007 	bhi	8ad4 <kr_free+0x4c>
    8ab4:	e5932000 	ldr	r2, [r3]
    8ab8:	e1520003 	cmp	r2, r3
    8abc:	8afffff6 	bhi	8a9c <kr_free+0x14>
    8ac0:	e1530001 	cmp	r3, r1
    8ac4:	3a000002 	bcc	8ad4 <kr_free+0x4c>
    8ac8:	e1520001 	cmp	r2, r1
    8acc:	91a03002 	movls	r3, r2
    8ad0:	9afffff2 	bls	8aa0 <kr_free+0x18>
    8ad4:	e510c004 	ldr	ip, [r0, #-4]
    8ad8:	e081e18c 	add	lr, r1, ip, lsl #3
    8adc:	e5932000 	ldr	r2, [r3]
    8ae0:	e15e0002 	cmp	lr, r2
    8ae4:	0a000008 	beq	8b0c <kr_free+0x84>
    8ae8:	e5002008 	str	r2, [r0, #-8]
    8aec:	e5932004 	ldr	r2, [r3, #4]
    8af0:	e083c182 	add	ip, r3, r2, lsl #3
    8af4:	e15c0001 	cmp	ip, r1
    8af8:	0a00000a 	beq	8b28 <kr_free+0xa0>
    8afc:	e5831000 	str	r1, [r3]
    8b00:	e59f2038 	ldr	r2, [pc, #56]	; 8b40 <kr_free+0xb8>
    8b04:	e5823000 	str	r3, [r2]
    8b08:	e49df004 	pop	{pc}		; (ldr pc, [sp], #4)
    8b0c:	e5922004 	ldr	r2, [r2, #4]
    8b10:	e08cc002 	add	ip, ip, r2
    8b14:	e500c004 	str	ip, [r0, #-4]
    8b18:	e5932000 	ldr	r2, [r3]
    8b1c:	e5922000 	ldr	r2, [r2]
    8b20:	e5002008 	str	r2, [r0, #-8]
    8b24:	eafffff0 	b	8aec <kr_free+0x64>
    8b28:	e5101004 	ldr	r1, [r0, #-4]
    8b2c:	e0822001 	add	r2, r2, r1
    8b30:	e5832004 	str	r2, [r3, #4]
    8b34:	e5102008 	ldr	r2, [r0, #-8]
    8b38:	e5832000 	str	r2, [r3]
    8b3c:	eaffffef 	b	8b00 <kr_free+0x78>
    8b40:	0000a5c8 	andeq	sl, r0, r8, asr #11

00008b44 <kr_morecore>:
    8b44:	e92d4010 	push	{r4, lr}
    8b48:	e1a04000 	mov	r4, r0
    8b4c:	e3500b01 	cmp	r0, #1024	; 0x400
    8b50:	33a04b01 	movcc	r4, #1024	; 0x400
    8b54:	e1a00184 	lsl	r0, r4, #3
    8b58:	ebffff4c 	bl	8890 <sbrk>
    8b5c:	e3700001 	cmn	r0, #1, 0
    8b60:	0a000005 	beq	8b7c <kr_morecore+0x38>
    8b64:	e5804004 	str	r4, [r0, #4]
    8b68:	e2800008 	add	r0, r0, #8, 0
    8b6c:	ebffffc5 	bl	8a88 <kr_free>
    8b70:	e59f300c 	ldr	r3, [pc, #12]	; 8b84 <kr_morecore+0x40>
    8b74:	e5930000 	ldr	r0, [r3]
    8b78:	e8bd8010 	pop	{r4, pc}
    8b7c:	e3a00000 	mov	r0, #0, 0
    8b80:	e8bd8010 	pop	{r4, pc}
    8b84:	0000a5c8 	andeq	sl, r0, r8, asr #11

00008b88 <kr_malloc>:
    8b88:	e92d4010 	push	{r4, lr}
    8b8c:	e2804007 	add	r4, r0, #7, 0
    8b90:	e1a041a4 	lsr	r4, r4, #3
    8b94:	e2844001 	add	r4, r4, #1, 0
    8b98:	e59f3090 	ldr	r3, [pc, #144]	; 8c30 <kr_malloc+0xa8>
    8b9c:	e5932000 	ldr	r2, [r3]
    8ba0:	e3520000 	cmp	r2, #0, 0
    8ba4:	0a000001 	beq	8bb0 <kr_malloc+0x28>
    8ba8:	e5920000 	ldr	r0, [r2]
    8bac:	ea000013 	b	8c00 <kr_malloc+0x78>
    8bb0:	e2832008 	add	r2, r3, #8, 0
    8bb4:	e5832000 	str	r2, [r3]
    8bb8:	e5832008 	str	r2, [r3, #8]
    8bbc:	e3a01000 	mov	r1, #0, 0
    8bc0:	e583100c 	str	r1, [r3, #12]
    8bc4:	eafffff7 	b	8ba8 <kr_malloc+0x20>
    8bc8:	0a000007 	beq	8bec <kr_malloc+0x64>
    8bcc:	e0433004 	sub	r3, r3, r4
    8bd0:	e5803004 	str	r3, [r0, #4]
    8bd4:	e0800183 	add	r0, r0, r3, lsl #3
    8bd8:	e5804004 	str	r4, [r0, #4]
    8bdc:	e59f304c 	ldr	r3, [pc, #76]	; 8c30 <kr_malloc+0xa8>
    8be0:	e5832000 	str	r2, [r3]
    8be4:	e2800008 	add	r0, r0, #8, 0
    8be8:	e8bd8010 	pop	{r4, pc}
    8bec:	e5903000 	ldr	r3, [r0]
    8bf0:	e5823000 	str	r3, [r2]
    8bf4:	eafffff8 	b	8bdc <kr_malloc+0x54>
    8bf8:	e1a02000 	mov	r2, r0
    8bfc:	e5900000 	ldr	r0, [r0]
    8c00:	e5903004 	ldr	r3, [r0, #4]
    8c04:	e1530004 	cmp	r3, r4
    8c08:	2affffee 	bcs	8bc8 <kr_malloc+0x40>
    8c0c:	e59f301c 	ldr	r3, [pc, #28]	; 8c30 <kr_malloc+0xa8>
    8c10:	e5933000 	ldr	r3, [r3]
    8c14:	e1530000 	cmp	r3, r0
    8c18:	1afffff6 	bne	8bf8 <kr_malloc+0x70>
    8c1c:	e1a00004 	mov	r0, r4
    8c20:	ebffffc7 	bl	8b44 <kr_morecore>
    8c24:	e3500000 	cmp	r0, #0, 0
    8c28:	1afffff2 	bne	8bf8 <kr_malloc+0x70>
    8c2c:	e8bd8010 	pop	{r4, pc}
    8c30:	0000a5c8 	andeq	sl, r0, r8, asr #11

00008c34 <memset>:
    8c34:	e0802002 	add	r2, r0, r2
    8c38:	e1a03000 	mov	r3, r0
    8c3c:	e1530002 	cmp	r3, r2
    8c40:	212fff1e 	bxcs	lr
    8c44:	e4c31001 	strb	r1, [r3], #1
    8c48:	eafffffb 	b	8c3c <memset+0x8>

00008c4c <printk>:
    8c4c:	e92d000f 	push	{r0, r1, r2, r3}
    8c50:	e92d4030 	push	{r4, r5, lr}
    8c54:	e24dd00c 	sub	sp, sp, #12, 0
    8c58:	e28d301c 	add	r3, sp, #28, 0
    8c5c:	e58d3004 	str	r3, [sp, #4]
    8c60:	e59f5034 	ldr	r5, [pc, #52]	; 8c9c <printk+0x50>
    8c64:	e59d2018 	ldr	r2, [sp, #24]
    8c68:	e3a01b01 	mov	r1, #1024	; 0x400
    8c6c:	e1a00005 	mov	r0, r5
    8c70:	eb0000ba 	bl	8f60 <va_printk>
    8c74:	e1a04000 	mov	r4, r0
    8c78:	e59f3020 	ldr	r3, [pc, #32]	; 8ca0 <printk+0x54>
    8c7c:	e5933000 	ldr	r3, [r3]
    8c80:	e1a00005 	mov	r0, r5
    8c84:	e12fff33 	blx	r3
    8c88:	e1a00004 	mov	r0, r4
    8c8c:	e28dd00c 	add	sp, sp, #12, 0
    8c90:	e8bd4030 	pop	{r4, r5, lr}
    8c94:	e28dd010 	add	sp, sp, #16, 0
    8c98:	e12fff1e 	bx	lr
    8c9c:	0000a5d8 	ldrdeq	sl, [r0], -r8
    8ca0:	0000a598 	muleq	r0, r8, r5

00008ca4 <internal_putk>:
    8ca4:	e92d4010 	push	{r4, lr}
    8ca8:	e1a04000 	mov	r4, r0
    8cac:	e5d40000 	ldrb	r0, [r4]
    8cb0:	e3500000 	cmp	r0, #0, 0
    8cb4:	0a000004 	beq	8ccc <internal_putk+0x28>
    8cb8:	e59f3014 	ldr	r3, [pc, #20]	; 8cd4 <internal_putk+0x30>
    8cbc:	e5933000 	ldr	r3, [r3]
    8cc0:	e12fff33 	blx	r3
    8cc4:	e2844001 	add	r4, r4, #1, 0
    8cc8:	eafffff7 	b	8cac <internal_putk+0x8>
    8ccc:	e3a00001 	mov	r0, #1, 0
    8cd0:	e8bd8010 	pop	{r4, pc}
    8cd4:	0000a5a8 	andeq	sl, r0, r8, lsr #11

00008cd8 <isdigit>:
    8cd8:	e2400030 	sub	r0, r0, #48, 0	; 0x30
    8cdc:	e3500009 	cmp	r0, #9, 0
    8ce0:	83a00000 	movhi	r0, #0, 0
    8ce4:	93a00001 	movls	r0, #1, 0
    8ce8:	e12fff1e 	bx	lr

00008cec <pad>:
    8cec:	e0401001 	sub	r1, r0, r1
    8cf0:	e1510002 	cmp	r1, r2
    8cf4:	b3a03020 	movlt	r3, #32, 0
    8cf8:	b4c03001 	strblt	r3, [r0], #1
    8cfc:	b2811001 	addlt	r1, r1, #1, 0
    8d00:	bafffffa 	blt	8cf0 <pad+0x4>
    8d04:	e3a03000 	mov	r3, #0, 0
    8d08:	e5c03000 	strb	r3, [r0]
    8d0c:	e12fff1e 	bx	lr

00008d10 <reverse>:
    8d10:	e042c003 	sub	ip, r2, r3
    8d14:	e28cc001 	add	ip, ip, #1, 0
    8d18:	e15c0001 	cmp	ip, r1
    8d1c:	c04cc001 	subgt	ip, ip, r1
    8d20:	c083300c 	addgt	r3, r3, ip
    8d24:	e2421001 	sub	r1, r2, #1, 0
    8d28:	e1a02000 	mov	r2, r0
    8d2c:	e1510003 	cmp	r1, r3
    8d30:	2451c001 	ldrbcs	ip, [r1], #-1
    8d34:	24c2c001 	strbcs	ip, [r2], #1
    8d38:	2afffffb 	bcs	8d2c <reverse+0x1c>
    8d3c:	e3a03000 	mov	r3, #0, 0
    8d40:	e5c23000 	strb	r3, [r2]
    8d44:	e12fff1e 	bx	lr

00008d48 <emit>:
    8d48:	e92d40f0 	push	{r4, r5, r6, r7, lr}
    8d4c:	e24dd04c 	sub	sp, sp, #76, 0	; 0x4c
    8d50:	e1a05001 	mov	r5, r1
    8d54:	e1a04002 	mov	r4, r2
    8d58:	e59d2060 	ldr	r2, [sp, #96]	; 0x60
    8d5c:	e1520004 	cmp	r2, r4
    8d60:	c2442001 	subgt	r2, r4, #1, 0
    8d64:	e1a0c003 	mov	ip, r3
    8d68:	e2400002 	sub	r0, r0, #2, 0
    8d6c:	e350000e 	cmp	r0, #14, 0
    8d70:	979ff100 	ldrls	pc, [pc, r0, lsl #2]
    8d74:	ea000050 	b	8ebc <emit+0x174>
    8d78:	00008e94 	muleq	r0, r4, lr
    8d7c:	00008ebc 			; <UNDEFINED> instruction: 0x00008ebc
    8d80:	00008ebc 			; <UNDEFINED> instruction: 0x00008ebc
    8d84:	00008ebc 			; <UNDEFINED> instruction: 0x00008ebc
    8d88:	00008ebc 			; <UNDEFINED> instruction: 0x00008ebc
    8d8c:	00008ebc 			; <UNDEFINED> instruction: 0x00008ebc
    8d90:	00008e88 	andeq	r8, r0, r8, lsl #29
    8d94:	00008ebc 			; <UNDEFINED> instruction: 0x00008ebc
    8d98:	00008db4 			; <UNDEFINED> instruction: 0x00008db4
    8d9c:	00008ebc 			; <UNDEFINED> instruction: 0x00008ebc
    8da0:	00008ebc 			; <UNDEFINED> instruction: 0x00008ebc
    8da4:	00008ebc 			; <UNDEFINED> instruction: 0x00008ebc
    8da8:	00008ebc 			; <UNDEFINED> instruction: 0x00008ebc
    8dac:	00008ebc 			; <UNDEFINED> instruction: 0x00008ebc
    8db0:	00008e2c 	andeq	r8, r0, ip, lsr #28
    8db4:	e59d1064 	ldr	r1, [sp, #100]	; 0x64
    8db8:	e2511000 	subs	r1, r1, #0, 0
    8dbc:	13a01001 	movne	r1, #1, 0
    8dc0:	e0111fa3 	ands	r1, r1, r3, lsr #31
    8dc4:	0a000016 	beq	8e24 <emit+0xdc>
    8dc8:	e263c000 	rsb	ip, r3, #0, 0
    8dcc:	e3a06001 	mov	r6, #1, 0
    8dd0:	e28d0008 	add	r0, sp, #8, 0
    8dd4:	e59f3100 	ldr	r3, [pc, #256]	; 8edc <emit+0x194>
    8dd8:	e0831c93 	umull	r1, r3, r3, ip
    8ddc:	e1a031a3 	lsr	r3, r3, #3
    8de0:	e1a0e003 	mov	lr, r3
    8de4:	e0833103 	add	r3, r3, r3, lsl #2
    8de8:	e04c3083 	sub	r3, ip, r3, lsl #1
    8dec:	e1a01000 	mov	r1, r0
    8df0:	e2800001 	add	r0, r0, #1, 0
    8df4:	e59f70e4 	ldr	r7, [pc, #228]	; 8ee0 <emit+0x198>
    8df8:	e7d73003 	ldrb	r3, [r7, r3]
    8dfc:	e5c13000 	strb	r3, [r1]
    8e00:	e1a0300c 	mov	r3, ip
    8e04:	e1a0c00e 	mov	ip, lr
    8e08:	e3530009 	cmp	r3, #9, 0
    8e0c:	8afffff0 	bhi	8dd4 <emit+0x8c>
    8e10:	e3560000 	cmp	r6, #0, 0
    8e14:	13a0302d 	movne	r3, #45, 0	; 0x2d
    8e18:	15c03000 	strbne	r3, [r0]
    8e1c:	12810002 	addne	r0, r1, #2, 0
    8e20:	ea00000f 	b	8e64 <emit+0x11c>
    8e24:	e3a06000 	mov	r6, #0, 0
    8e28:	eaffffe8 	b	8dd0 <emit+0x88>
    8e2c:	e28d1008 	add	r1, sp, #8, 0
    8e30:	e20c000f 	and	r0, ip, #15, 0
    8e34:	e59fe0a8 	ldr	lr, [pc, #168]	; 8ee4 <emit+0x19c>
    8e38:	e7de0000 	ldrb	r0, [lr, r0]
    8e3c:	e5c10000 	strb	r0, [r1]
    8e40:	e2811001 	add	r1, r1, #1, 0
    8e44:	e35c000f 	cmp	ip, #15, 0
    8e48:	e1a0c22c 	lsr	ip, ip, #4
    8e4c:	8afffff7 	bhi	8e30 <emit+0xe8>
    8e50:	e1a00001 	mov	r0, r1
    8e54:	e3a03078 	mov	r3, #120, 0	; 0x78
    8e58:	e4c03002 	strb	r3, [r0], #2
    8e5c:	e3a03030 	mov	r3, #48, 0	; 0x30
    8e60:	e5c13001 	strb	r3, [r1, #1]
    8e64:	e28d1008 	add	r1, sp, #8, 0
    8e68:	ebffff9f 	bl	8cec <pad>
    8e6c:	e1a02000 	mov	r2, r0
    8e70:	e28d3008 	add	r3, sp, #8, 0
    8e74:	e1a01004 	mov	r1, r4
    8e78:	e1a00005 	mov	r0, r5
    8e7c:	ebffffa3 	bl	8d10 <reverse>
    8e80:	e28dd04c 	add	sp, sp, #76, 0	; 0x4c
    8e84:	e8bd80f0 	pop	{r4, r5, r6, r7, pc}
    8e88:	e5cd3008 	strb	r3, [sp, #8]
    8e8c:	e28d0009 	add	r0, sp, #9, 0
    8e90:	eafffff3 	b	8e64 <emit+0x11c>
    8e94:	e28d0008 	add	r0, sp, #8, 0
    8e98:	e20c1001 	and	r1, ip, #1, 0
    8e9c:	e59fe044 	ldr	lr, [pc, #68]	; 8ee8 <emit+0x1a0>
    8ea0:	e7de1001 	ldrb	r1, [lr, r1]
    8ea4:	e5c01000 	strb	r1, [r0]
    8ea8:	e2800001 	add	r0, r0, #1, 0
    8eac:	e35c0001 	cmp	ip, #1, 0
    8eb0:	e1a0c0ac 	lsr	ip, ip, #1
    8eb4:	8afffff7 	bhi	8e98 <emit+0x150>
    8eb8:	eaffffe9 	b	8e64 <emit+0x11c>
    8ebc:	e59f3028 	ldr	r3, [pc, #40]	; 8eec <emit+0x1a4>
    8ec0:	e58d3000 	str	r3, [sp]
    8ec4:	e3a03079 	mov	r3, #121, 0	; 0x79
    8ec8:	e59f2020 	ldr	r2, [pc, #32]	; 8ef0 <emit+0x1a8>
    8ecc:	e59f1020 	ldr	r1, [pc, #32]	; 8ef4 <emit+0x1ac>
    8ed0:	e59f0020 	ldr	r0, [pc, #32]	; 8ef8 <emit+0x1b0>
    8ed4:	ebffff5c 	bl	8c4c <printk>
    8ed8:	eb00014e 	bl	9418 <clean_reboot>
    8edc:	cccccccd 	stclgt	12, cr12, [ip], {205}	; 0xcd
    8ee0:	0000a240 	andeq	sl, r0, r0, asr #4
    8ee4:	0000a24c 	andeq	sl, r0, ip, asr #4
    8ee8:	0000a260 	andeq	sl, r0, r0, ror #4
    8eec:	0000a0e0 	andeq	sl, r0, r0, ror #1
    8ef0:	0000a36c 	andeq	sl, r0, ip, ror #6
    8ef4:	0000a22c 	andeq	sl, r0, ip, lsr #4
    8ef8:	00009df0 	strdeq	r9, [r0], -r0

00008efc <rpi_set_output>:
    8efc:	e3500000 	cmp	r0, #0, 0
    8f00:	0a000006 	beq	8f20 <rpi_set_output+0x24>
    8f04:	e59f303c 	ldr	r3, [pc, #60]	; 8f48 <rpi_set_output+0x4c>
    8f08:	e5830000 	str	r0, [r3]
    8f0c:	e3510000 	cmp	r1, #0, 0
    8f10:	012fff1e 	bxeq	lr
    8f14:	e59f3030 	ldr	r3, [pc, #48]	; 8f4c <rpi_set_output+0x50>
    8f18:	e5831000 	str	r1, [r3]
    8f1c:	e12fff1e 	bx	lr
    8f20:	e52de004 	push	{lr}		; (str lr, [sp, #-4]!)
    8f24:	e24dd00c 	sub	sp, sp, #12, 0
    8f28:	e59f3020 	ldr	r3, [pc, #32]	; 8f50 <rpi_set_output+0x54>
    8f2c:	e58d3000 	str	r3, [sp]
    8f30:	e3a03020 	mov	r3, #32, 0
    8f34:	e59f2018 	ldr	r2, [pc, #24]	; 8f54 <rpi_set_output+0x58>
    8f38:	e59f1018 	ldr	r1, [pc, #24]	; 8f58 <rpi_set_output+0x5c>
    8f3c:	e59f0018 	ldr	r0, [pc, #24]	; 8f5c <rpi_set_output+0x60>
    8f40:	ebffff41 	bl	8c4c <printk>
    8f44:	eb000133 	bl	9418 <clean_reboot>
    8f48:	0000a5a8 	andeq	sl, r0, r8, lsr #11
    8f4c:	0000a598 	muleq	r0, r8, r5
    8f50:	0000a264 	andeq	sl, r0, r4, ror #4
    8f54:	0000a374 	andeq	sl, r0, r4, ror r3
    8f58:	0000a22c 	andeq	sl, r0, ip, lsr #4
    8f5c:	00009df0 	strdeq	r9, [r0], -r0

00008f60 <va_printk>:
    8f60:	e92d4ff0 	push	{r4, r5, r6, r7, r8, r9, sl, fp, lr}
    8f64:	e24ddf45 	sub	sp, sp, #276	; 0x114
    8f68:	e1a09000 	mov	r9, r0
    8f6c:	e58d2008 	str	r2, [sp, #8]
    8f70:	e58d300c 	str	r3, [sp, #12]
    8f74:	e2411001 	sub	r1, r1, #1, 0
    8f78:	e0808001 	add	r8, r0, r1
    8f7c:	e3a03000 	mov	r3, #0, 0
    8f80:	e5c03000 	strb	r3, [r0]
    8f84:	e1a04000 	mov	r4, r0
    8f88:	e1a06002 	mov	r6, r2
    8f8c:	ea000001 	b	8f98 <va_printk+0x38>
    8f90:	e2866001 	add	r6, r6, #1, 0
    8f94:	e4c43001 	strb	r3, [r4], #1
    8f98:	e5d63000 	ldrb	r3, [r6]
    8f9c:	e3530000 	cmp	r3, #0, 0
    8fa0:	0a000108 	beq	93c8 <va_printk+0x468>
    8fa4:	e1540008 	cmp	r4, r8
    8fa8:	2a000106 	bcs	93c8 <va_printk+0x468>
    8fac:	e3530025 	cmp	r3, #37, 0	; 0x25
    8fb0:	1afffff6 	bne	8f90 <va_printk+0x30>
    8fb4:	e5d62001 	ldrb	r2, [r6, #1]
    8fb8:	e3520025 	cmp	r2, #37, 0	; 0x25
    8fbc:	04c43001 	strbeq	r3, [r4], #1
    8fc0:	02866002 	addeq	r6, r6, #2, 0
    8fc4:	0afffff3 	beq	8f98 <va_printk+0x38>
    8fc8:	e2866001 	add	r6, r6, #1, 0
    8fcc:	e3a05000 	mov	r5, #0, 0
    8fd0:	e5d67000 	ldrb	r7, [r6]
    8fd4:	e1a0a007 	mov	sl, r7
    8fd8:	e1a00007 	mov	r0, r7
    8fdc:	ebffff3d 	bl	8cd8 <isdigit>
    8fe0:	e3500000 	cmp	r0, #0, 0
    8fe4:	0a000004 	beq	8ffc <va_printk+0x9c>
    8fe8:	e0855105 	add	r5, r5, r5, lsl #2
    8fec:	e0875085 	add	r5, r7, r5, lsl #1
    8ff0:	e2455030 	sub	r5, r5, #48, 0	; 0x30
    8ff4:	e2866001 	add	r6, r6, #1, 0
    8ff8:	eafffff4 	b	8fd0 <va_printk+0x70>
    8ffc:	e355001f 	cmp	r5, #31, 0
    9000:	8a00001a 	bhi	9070 <va_printk+0x110>
    9004:	e2477062 	sub	r7, r7, #98, 0	; 0x62
    9008:	e3570016 	cmp	r7, #22, 0
    900c:	979ff107 	ldrls	pc, [pc, r7, lsl #2]
    9010:	ea0000d4 	b	9368 <va_printk+0x408>
    9014:	000092ec 	andeq	r9, r0, ip, ror #5
    9018:	00009334 	andeq	r9, r0, r4, lsr r3
    901c:	0000924c 	andeq	r9, r0, ip, asr #4
    9020:	00009368 	andeq	r9, r0, r8, ror #6
    9024:	00009234 	andeq	r9, r0, r4, lsr r2
    9028:	00009368 	andeq	r9, r0, r8, ror #6
    902c:	00009368 	andeq	r9, r0, r8, ror #6
    9030:	00009368 	andeq	r9, r0, r8, ror #6
    9034:	00009368 	andeq	r9, r0, r8, ror #6
    9038:	00009368 	andeq	r9, r0, r8, ror #6
    903c:	00009090 	muleq	r0, r0, r0
    9040:	00009368 	andeq	r9, r0, r8, ror #6
    9044:	00009368 	andeq	r9, r0, r8, ror #6
    9048:	00009368 	andeq	r9, r0, r8, ror #6
    904c:	000092b8 			; <UNDEFINED> instruction: 0x000092b8
    9050:	00009368 	andeq	r9, r0, r8, ror #6
    9054:	00009368 	andeq	r9, r0, r8, ror #6
    9058:	00009320 	andeq	r9, r0, r0, lsr #6
    905c:	00009368 	andeq	r9, r0, r8, ror #6
    9060:	00009284 	andeq	r9, r0, r4, lsl #5
    9064:	00009368 	andeq	r9, r0, r8, ror #6
    9068:	00009368 	andeq	r9, r0, r8, ror #6
    906c:	000092b8 			; <UNDEFINED> instruction: 0x000092b8
    9070:	e59f3364 	ldr	r3, [pc, #868]	; 93dc <va_printk+0x47c>
    9074:	e58d3000 	str	r3, [sp]
    9078:	e3a03098 	mov	r3, #152, 0	; 0x98
    907c:	e59f235c 	ldr	r2, [pc, #860]	; 93e0 <va_printk+0x480>
    9080:	e59f135c 	ldr	r1, [pc, #860]	; 93e4 <va_printk+0x484>
    9084:	e59f035c 	ldr	r0, [pc, #860]	; 93e8 <va_printk+0x488>
    9088:	ebfffeef 	bl	8c4c <printk>
    908c:	eb0000e1 	bl	9418 <clean_reboot>
    9090:	e3a02003 	mov	r2, #3, 0
    9094:	e59f1350 	ldr	r1, [pc, #848]	; 93ec <va_printk+0x48c>
    9098:	e1a00006 	mov	r0, r6
    909c:	eb0002d0 	bl	9be4 <strncmp>
    90a0:	e3500000 	cmp	r0, #0, 0
    90a4:	0a000005 	beq	90c0 <va_printk+0x160>
    90a8:	e3a02003 	mov	r2, #3, 0
    90ac:	e59f133c 	ldr	r1, [pc, #828]	; 93f0 <va_printk+0x490>
    90b0:	e1a00006 	mov	r0, r6
    90b4:	eb0002ca 	bl	9be4 <strncmp>
    90b8:	e3500000 	cmp	r0, #0, 0
    90bc:	1a000033 	bne	9190 <va_printk+0x230>
    90c0:	e286b002 	add	fp, r6, #2, 0
    90c4:	e59d300c 	ldr	r3, [sp, #12]
    90c8:	e2833007 	add	r3, r3, #7, 0
    90cc:	e3c33007 	bic	r3, r3, #7, 0
    90d0:	e2832008 	add	r2, r3, #8, 0
    90d4:	e58d200c 	str	r2, [sp, #12]
    90d8:	e593a000 	ldr	sl, [r3]
    90dc:	e5937004 	ldr	r7, [r3, #4]
    90e0:	e1a01007 	mov	r1, r7
    90e4:	e59f0308 	ldr	r0, [pc, #776]	; 93f4 <va_printk+0x494>
    90e8:	ebfffed7 	bl	8c4c <printk>
    90ec:	e1a0100a 	mov	r1, sl
    90f0:	e59f0300 	ldr	r0, [pc, #768]	; 93f8 <va_printk+0x498>
    90f4:	ebfffed4 	bl	8c4c <printk>
    90f8:	e3a02003 	mov	r2, #3, 0
    90fc:	e59f12e8 	ldr	r1, [pc, #744]	; 93ec <va_printk+0x48c>
    9100:	e1a00006 	mov	r0, r6
    9104:	eb0002b6 	bl	9be4 <strncmp>
    9108:	e3500000 	cmp	r0, #0, 0
    910c:	0a000027 	beq	91b0 <va_printk+0x250>
    9110:	e3a02003 	mov	r2, #3, 0
    9114:	e59f12d4 	ldr	r1, [pc, #724]	; 93f0 <va_printk+0x490>
    9118:	e1a00006 	mov	r0, r6
    911c:	eb0002b0 	bl	9be4 <strncmp>
    9120:	e3500000 	cmp	r0, #0, 0
    9124:	1a00003b 	bne	9218 <va_printk+0x2b8>
    9128:	e3a06000 	mov	r6, #0, 0
    912c:	e58d6004 	str	r6, [sp, #4]
    9130:	e58d5000 	str	r5, [sp]
    9134:	e1a03007 	mov	r3, r7
    9138:	e3a02080 	mov	r2, #128, 0	; 0x80
    913c:	e28d1010 	add	r1, sp, #16, 0
    9140:	e3a0000a 	mov	r0, #10, 0
    9144:	ebfffeff 	bl	8d48 <emit>
    9148:	e1a07000 	mov	r7, r0
    914c:	e58d6004 	str	r6, [sp, #4]
    9150:	e58d5000 	str	r5, [sp]
    9154:	e1a0300a 	mov	r3, sl
    9158:	e3a02080 	mov	r2, #128, 0	; 0x80
    915c:	e28d1090 	add	r1, sp, #144, 0	; 0x90
    9160:	e3a0000a 	mov	r0, #10, 0
    9164:	ebfffef7 	bl	8d48 <emit>
    9168:	e59f128c 	ldr	r1, [pc, #652]	; 93fc <va_printk+0x49c>
    916c:	e28d0010 	add	r0, sp, #16, 0
    9170:	eb000288 	bl	9b98 <strcmp>
    9174:	e1500006 	cmp	r0, r6
    9178:	1a000021 	bne	9204 <va_printk+0x2a4>
    917c:	e28d1090 	add	r1, sp, #144, 0	; 0x90
    9180:	e28d0010 	add	r0, sp, #16, 0
    9184:	eb00028e 	bl	9bc4 <strcpy>
    9188:	e1a0600b 	mov	r6, fp
    918c:	ea00003a 	b	927c <va_printk+0x31c>
    9190:	e59f3268 	ldr	r3, [pc, #616]	; 9400 <va_printk+0x4a0>
    9194:	e58d3000 	str	r3, [sp]
    9198:	e3a0309f 	mov	r3, #159, 0	; 0x9f
    919c:	e59f223c 	ldr	r2, [pc, #572]	; 93e0 <va_printk+0x480>
    91a0:	e59f123c 	ldr	r1, [pc, #572]	; 93e4 <va_printk+0x484>
    91a4:	e59f023c 	ldr	r0, [pc, #572]	; 93e8 <va_printk+0x488>
    91a8:	ebfffea7 	bl	8c4c <printk>
    91ac:	eb000099 	bl	9418 <clean_reboot>
    91b0:	e3a06000 	mov	r6, #0, 0
    91b4:	e58d6004 	str	r6, [sp, #4]
    91b8:	e58d5000 	str	r5, [sp]
    91bc:	e1a03007 	mov	r3, r7
    91c0:	e3a02080 	mov	r2, #128, 0	; 0x80
    91c4:	e28d1010 	add	r1, sp, #16, 0
    91c8:	e3a00010 	mov	r0, #16, 0
    91cc:	ebfffedd 	bl	8d48 <emit>
    91d0:	e1a07000 	mov	r7, r0
    91d4:	e58d6004 	str	r6, [sp, #4]
    91d8:	e58d5000 	str	r5, [sp]
    91dc:	e1a0300a 	mov	r3, sl
    91e0:	e3a02080 	mov	r2, #128, 0	; 0x80
    91e4:	e28d1090 	add	r1, sp, #144, 0	; 0x90
    91e8:	e3a00010 	mov	r0, #16, 0
    91ec:	ebfffed5 	bl	8d48 <emit>
    91f0:	e28d1092 	add	r1, sp, #146, 0	; 0x92
    91f4:	e28d0010 	add	r0, sp, #16, 0
    91f8:	eb000259 	bl	9b64 <strcat>
    91fc:	e1a0600b 	mov	r6, fp
    9200:	ea00001d 	b	927c <va_printk+0x31c>
    9204:	e28d1090 	add	r1, sp, #144, 0	; 0x90
    9208:	e28d0010 	add	r0, sp, #16, 0
    920c:	eb000254 	bl	9b64 <strcat>
    9210:	e1a0600b 	mov	r6, fp
    9214:	ea000018 	b	927c <va_printk+0x31c>
    9218:	e58d6000 	str	r6, [sp]
    921c:	e3a030b6 	mov	r3, #182, 0	; 0xb6
    9220:	e59f21b8 	ldr	r2, [pc, #440]	; 93e0 <va_printk+0x480>
    9224:	e59f11b8 	ldr	r1, [pc, #440]	; 93e4 <va_printk+0x484>
    9228:	e59f01d4 	ldr	r0, [pc, #468]	; 9404 <va_printk+0x4a4>
    922c:	ebfffe86 	bl	8c4c <printk>
    9230:	eb000078 	bl	9418 <clean_reboot>
    9234:	e3a030be 	mov	r3, #190, 0	; 0xbe
    9238:	e59f21a0 	ldr	r2, [pc, #416]	; 93e0 <va_printk+0x480>
    923c:	e59f11a0 	ldr	r1, [pc, #416]	; 93e4 <va_printk+0x484>
    9240:	e59f01c0 	ldr	r0, [pc, #448]	; 9408 <va_printk+0x4a8>
    9244:	ebfffe80 	bl	8c4c <printk>
    9248:	eb000072 	bl	9418 <clean_reboot>
    924c:	e59d300c 	ldr	r3, [sp, #12]
    9250:	e2832004 	add	r2, r3, #4, 0
    9254:	e58d200c 	str	r2, [sp, #12]
    9258:	e5933000 	ldr	r3, [r3]
    925c:	e3a02001 	mov	r2, #1, 0
    9260:	e58d2004 	str	r2, [sp, #4]
    9264:	e58d5000 	str	r5, [sp]
    9268:	e3a02080 	mov	r2, #128, 0	; 0x80
    926c:	e28d1010 	add	r1, sp, #16, 0
    9270:	e3a0000a 	mov	r0, #10, 0
    9274:	ebfffeb3 	bl	8d48 <emit>
    9278:	e1a07000 	mov	r7, r0
    927c:	e2866001 	add	r6, r6, #1, 0
    9280:	ea00004a 	b	93b0 <va_printk+0x450>
    9284:	e59d300c 	ldr	r3, [sp, #12]
    9288:	e2832004 	add	r2, r3, #4, 0
    928c:	e58d200c 	str	r2, [sp, #12]
    9290:	e5933000 	ldr	r3, [r3]
    9294:	e3a02000 	mov	r2, #0, 0
    9298:	e58d2004 	str	r2, [sp, #4]
    929c:	e58d5000 	str	r5, [sp]
    92a0:	e3a02080 	mov	r2, #128, 0	; 0x80
    92a4:	e28d1010 	add	r1, sp, #16, 0
    92a8:	e3a0000a 	mov	r0, #10, 0
    92ac:	ebfffea5 	bl	8d48 <emit>
    92b0:	e1a07000 	mov	r7, r0
    92b4:	eafffff0 	b	927c <va_printk+0x31c>
    92b8:	e59d300c 	ldr	r3, [sp, #12]
    92bc:	e2832004 	add	r2, r3, #4, 0
    92c0:	e58d200c 	str	r2, [sp, #12]
    92c4:	e5933000 	ldr	r3, [r3]
    92c8:	e3a02000 	mov	r2, #0, 0
    92cc:	e58d2004 	str	r2, [sp, #4]
    92d0:	e58d5000 	str	r5, [sp]
    92d4:	e3a02080 	mov	r2, #128, 0	; 0x80
    92d8:	e28d1010 	add	r1, sp, #16, 0
    92dc:	e3a00010 	mov	r0, #16, 0
    92e0:	ebfffe98 	bl	8d48 <emit>
    92e4:	e1a07000 	mov	r7, r0
    92e8:	eaffffe3 	b	927c <va_printk+0x31c>
    92ec:	e59d300c 	ldr	r3, [sp, #12]
    92f0:	e2832004 	add	r2, r3, #4, 0
    92f4:	e58d200c 	str	r2, [sp, #12]
    92f8:	e5933000 	ldr	r3, [r3]
    92fc:	e3a02000 	mov	r2, #0, 0
    9300:	e58d2004 	str	r2, [sp, #4]
    9304:	e58d5000 	str	r5, [sp]
    9308:	e3a02080 	mov	r2, #128, 0	; 0x80
    930c:	e28d1010 	add	r1, sp, #16, 0
    9310:	e3a00002 	mov	r0, #2, 0
    9314:	ebfffe8b 	bl	8d48 <emit>
    9318:	e1a07000 	mov	r7, r0
    931c:	eaffffd6 	b	927c <va_printk+0x31c>
    9320:	e59d300c 	ldr	r3, [sp, #12]
    9324:	e2832004 	add	r2, r3, #4, 0
    9328:	e58d200c 	str	r2, [sp, #12]
    932c:	e5937000 	ldr	r7, [r3]
    9330:	eaffffd1 	b	927c <va_printk+0x31c>
    9334:	e59d300c 	ldr	r3, [sp, #12]
    9338:	e2832004 	add	r2, r3, #4, 0
    933c:	e58d200c 	str	r2, [sp, #12]
    9340:	e5933000 	ldr	r3, [r3]
    9344:	e3a02000 	mov	r2, #0, 0
    9348:	e58d2004 	str	r2, [sp, #4]
    934c:	e58d5000 	str	r5, [sp]
    9350:	e3a02080 	mov	r2, #128, 0	; 0x80
    9354:	e28d1010 	add	r1, sp, #16, 0
    9358:	e3a00008 	mov	r0, #8, 0
    935c:	ebfffe79 	bl	8d48 <emit>
    9360:	e1a07000 	mov	r7, r0
    9364:	eaffffc4 	b	927c <va_printk+0x31c>
    9368:	e3a03000 	mov	r3, #0, 0
    936c:	e5c63001 	strb	r3, [r6, #1]
    9370:	e1a0200a 	mov	r2, sl
    9374:	e1a0100a 	mov	r1, sl
    9378:	e59f008c 	ldr	r0, [pc, #140]	; 940c <va_printk+0x4ac>
    937c:	ebfffe32 	bl	8c4c <printk>
    9380:	e59f3088 	ldr	r3, [pc, #136]	; 9410 <va_printk+0x4b0>
    9384:	e5933000 	ldr	r3, [r3]
    9388:	e59d0008 	ldr	r0, [sp, #8]
    938c:	e12fff33 	blx	r3
    9390:	e3a030e2 	mov	r3, #226, 0	; 0xe2
    9394:	e59f2044 	ldr	r2, [pc, #68]	; 93e0 <va_printk+0x480>
    9398:	e59f1044 	ldr	r1, [pc, #68]	; 93e4 <va_printk+0x484>
    939c:	e59f0070 	ldr	r0, [pc, #112]	; 9414 <va_printk+0x4b4>
    93a0:	ebfffe29 	bl	8c4c <printk>
    93a4:	eb00001b 	bl	9418 <clean_reboot>
    93a8:	e2877001 	add	r7, r7, #1, 0
    93ac:	e4c43001 	strb	r3, [r4], #1
    93b0:	e1540008 	cmp	r4, r8
    93b4:	2afffef7 	bcs	8f98 <va_printk+0x38>
    93b8:	e5d73000 	ldrb	r3, [r7]
    93bc:	e3530000 	cmp	r3, #0, 0
    93c0:	1afffff8 	bne	93a8 <va_printk+0x448>
    93c4:	eafffef3 	b	8f98 <va_printk+0x38>
    93c8:	e3a03000 	mov	r3, #0, 0
    93cc:	e4c43001 	strb	r3, [r4], #1
    93d0:	e0440009 	sub	r0, r4, r9
    93d4:	e28ddf45 	add	sp, sp, #276	; 0x114
    93d8:	e8bd8ff0 	pop	{r4, r5, r6, r7, r8, r9, sl, fp, pc}
    93dc:	0000a26c 	andeq	sl, r0, ip, ror #4
    93e0:	0000a384 	andeq	sl, r0, r4, lsl #7
    93e4:	0000a22c 	andeq	sl, r0, ip, lsr #4
    93e8:	00009df0 	strdeq	r9, [r0], -r0
    93ec:	0000a278 	andeq	sl, r0, r8, ror r2
    93f0:	0000a27c 	andeq	sl, r0, ip, ror r2
    93f4:	0000a280 	andeq	sl, r0, r0, lsl #5
    93f8:	0000a288 	andeq	sl, r0, r8, lsl #5
    93fc:	0000a0e0 	andeq	sl, r0, r0, ror #1
    9400:	0000a290 	muleq	r0, r0, r2
    9404:	0000a2cc 	andeq	sl, r0, ip, asr #5
    9408:	0000a2f4 	strdeq	sl, [r0], -r4
    940c:	0000a31c 	andeq	sl, r0, ip, lsl r3
    9410:	0000a598 	muleq	r0, r8, r5
    9414:	0000a34c 	andeq	sl, r0, ip, asr #6

00009418 <clean_reboot>:
    9418:	e92d4010 	push	{r4, lr}
    941c:	e59f3018 	ldr	r3, [pc, #24]	; 943c <clean_reboot+0x24>
    9420:	e5933000 	ldr	r3, [r3]
    9424:	e59f0014 	ldr	r0, [pc, #20]	; 9440 <clean_reboot+0x28>
    9428:	e12fff33 	blx	r3
    942c:	eb0000c3 	bl	9740 <uart_flush_tx>
    9430:	e3a0000a 	mov	r0, #10, 0
    9434:	eb000047 	bl	9558 <delay_ms>
    9438:	eb00001c 	bl	94b0 <rpi_reboot>
    943c:	0000a598 	muleq	r0, r8, r5
    9440:	0000a390 	muleq	r0, r0, r3

00009444 <_cstart>:
    9444:	e92d4010 	push	{r4, lr}
    9448:	eb00000c 	bl	9480 <custom_loader>
    944c:	e59f3024 	ldr	r3, [pc, #36]	; 9478 <_cstart+0x34>
    9450:	e59f2024 	ldr	r2, [pc, #36]	; 947c <_cstart+0x38>
    9454:	e1530002 	cmp	r3, r2
    9458:	33a02000 	movcc	r2, #0, 0
    945c:	34832004 	strcc	r2, [r3], #4
    9460:	3afffffa 	bcc	9450 <_cstart+0xc>
    9464:	eb000057 	bl	95c8 <uart_init>
    9468:	e3a03001 	mov	r3, #1, 0
    946c:	ee0f3f1c 	mcr	15, 0, r3, cr15, cr12, {0}
    9470:	ebfffb19 	bl	80dc <notmain>
    9474:	ebffffe7 	bl	9418 <clean_reboot>
    9478:	0000a5b0 			; <UNDEFINED> instruction: 0x0000a5b0
    947c:	0000a9e0 	andeq	sl, r0, r0, ror #19

00009480 <custom_loader>:
    9480:	e12fff1e 	bx	lr

00009484 <at_user_level>:
    9484:	e10f0000 	mrs	r0, CPSR
    9488:	e200001f 	and	r0, r0, #31, 0
    948c:	e3500010 	cmp	r0, #16, 0
    9490:	13a00000 	movne	r0, #0, 0
    9494:	03a00001 	moveq	r0, #1, 0
    9498:	e12fff1e 	bx	lr

0000949c <set_user_level>:
    949c:	e10f3000 	mrs	r3, CPSR
    94a0:	e3c3301f 	bic	r3, r3, #31, 0
    94a4:	e3833010 	orr	r3, r3, #16, 0
    94a8:	e129f003 	msr	CPSR_fc, r3
    94ac:	e12fff1e 	bx	lr

000094b0 <rpi_reboot>:
    94b0:	e92d4010 	push	{r4, lr}
    94b4:	ebfffff2 	bl	9484 <at_user_level>
    94b8:	e3500000 	cmp	r0, #0, 0
    94bc:	1a00000a 	bne	94ec <rpi_reboot+0x3c>
    94c0:	eb0001d2 	bl	9c10 <reboot_callout>
    94c4:	eb00009d 	bl	9740 <uart_flush_tx>
    94c8:	e3a0000a 	mov	r0, #10, 0
    94cc:	eb000021 	bl	9558 <delay_ms>
    94d0:	e59f101c 	ldr	r1, [pc, #28]	; 94f4 <rpi_reboot+0x44>
    94d4:	e59f001c 	ldr	r0, [pc, #28]	; 94f8 <rpi_reboot+0x48>
    94d8:	ebfffad1 	bl	8024 <PUT32>
    94dc:	e59f1018 	ldr	r1, [pc, #24]	; 94fc <rpi_reboot+0x4c>
    94e0:	e59f0018 	ldr	r0, [pc, #24]	; 9500 <rpi_reboot+0x50>
    94e4:	ebffface 	bl	8024 <PUT32>
    94e8:	eafffffe 	b	94e8 <rpi_reboot+0x38>
    94ec:	ebffffea 	bl	949c <set_user_level>
    94f0:	eafffff2 	b	94c0 <rpi_reboot+0x10>
    94f4:	5a000001 	bpl	9500 <rpi_reboot+0x50>
    94f8:	20100024 	andscs	r0, r0, r4, lsr #32
    94fc:	5a000020 	bpl	9584 <delay_sec+0x14>
    9500:	2010001c 	andscs	r0, r0, ip, lsl r0

00009504 <timer_get_usec_raw>:
    9504:	e92d4010 	push	{r4, lr}
    9508:	e59f0004 	ldr	r0, [pc, #4]	; 9514 <timer_get_usec_raw+0x10>
    950c:	ebfffac6 	bl	802c <GET32>
    9510:	e8bd8010 	pop	{r4, pc}
    9514:	20003004 	andcs	r3, r0, r4

00009518 <timer_get_usec>:
    9518:	e92d4010 	push	{r4, lr}
    951c:	eb0001bc 	bl	9c14 <dev_barrier>
    9520:	ebfffff7 	bl	9504 <timer_get_usec_raw>
    9524:	e1a04000 	mov	r4, r0
    9528:	eb0001b9 	bl	9c14 <dev_barrier>
    952c:	e1a00004 	mov	r0, r4
    9530:	e8bd8010 	pop	{r4, pc}

00009534 <delay_us>:
    9534:	e92d4070 	push	{r4, r5, r6, lr}
    9538:	e1a05000 	mov	r5, r0
    953c:	ebfffff5 	bl	9518 <timer_get_usec>
    9540:	e1a04000 	mov	r4, r0
    9544:	ebfffff3 	bl	9518 <timer_get_usec>
    9548:	e0400004 	sub	r0, r0, r4
    954c:	e1500005 	cmp	r0, r5
    9550:	3afffffb 	bcc	9544 <delay_us+0x10>
    9554:	e8bd8070 	pop	{r4, r5, r6, pc}

00009558 <delay_ms>:
    9558:	e92d4010 	push	{r4, lr}
    955c:	e0603280 	rsb	r3, r0, r0, lsl #5
    9560:	e0800103 	add	r0, r0, r3, lsl #2
    9564:	e1a00180 	lsl	r0, r0, #3
    9568:	ebfffff1 	bl	9534 <delay_us>
    956c:	e8bd8010 	pop	{r4, pc}

00009570 <delay_sec>:
    9570:	e92d4010 	push	{r4, lr}
    9574:	e0603280 	rsb	r3, r0, r0, lsl #5
    9578:	e0800103 	add	r0, r0, r3, lsl #2
    957c:	e1a00180 	lsl	r0, r0, #3
    9580:	ebfffff4 	bl	9558 <delay_ms>
    9584:	e8bd8010 	pop	{r4, pc}

00009588 <and_in32>:
    9588:	e92d4070 	push	{r4, r5, r6, lr}
    958c:	e1a04000 	mov	r4, r0
    9590:	e1a05001 	mov	r5, r1
    9594:	ebfffaa4 	bl	802c <GET32>
    9598:	e0001005 	and	r1, r0, r5
    959c:	e1a00004 	mov	r0, r4
    95a0:	ebfffa9f 	bl	8024 <PUT32>
    95a4:	e8bd8070 	pop	{r4, r5, r6, pc}

000095a8 <or_in32>:
    95a8:	e92d4070 	push	{r4, r5, r6, lr}
    95ac:	e1a04000 	mov	r4, r0
    95b0:	e1a05001 	mov	r5, r1
    95b4:	ebfffa9c 	bl	802c <GET32>
    95b8:	e1801005 	orr	r1, r0, r5
    95bc:	e1a00004 	mov	r0, r4
    95c0:	ebfffa97 	bl	8024 <PUT32>
    95c4:	e8bd8070 	pop	{r4, r5, r6, pc}

000095c8 <uart_init>:
    95c8:	e92d4010 	push	{r4, lr}
    95cc:	e3a01002 	mov	r1, #2, 0
    95d0:	e3a0000e 	mov	r0, #14, 0
    95d4:	eb000194 	bl	9c2c <gpio_set_function>
    95d8:	e3a01002 	mov	r1, #2, 0
    95dc:	e3a0000f 	mov	r0, #15, 0
    95e0:	eb000191 	bl	9c2c <gpio_set_function>
    95e4:	eb00018a 	bl	9c14 <dev_barrier>
    95e8:	e3a01001 	mov	r1, #1, 0
    95ec:	e59f0064 	ldr	r0, [pc, #100]	; 9658 <uart_init+0x90>
    95f0:	ebffffec 	bl	95a8 <or_in32>
    95f4:	eb000186 	bl	9c14 <dev_barrier>
    95f8:	e59f405c 	ldr	r4, [pc, #92]	; 965c <uart_init+0x94>
    95fc:	e3a01000 	mov	r1, #0, 0
    9600:	e1a00004 	mov	r0, r4
    9604:	ebfffa86 	bl	8024 <PUT32>
    9608:	e3a01000 	mov	r1, #0, 0
    960c:	e59f004c 	ldr	r0, [pc, #76]	; 9660 <uart_init+0x98>
    9610:	ebfffa83 	bl	8024 <PUT32>
    9614:	e3a01003 	mov	r1, #3, 0
    9618:	e59f0044 	ldr	r0, [pc, #68]	; 9664 <uart_init+0x9c>
    961c:	ebfffa80 	bl	8024 <PUT32>
    9620:	e3a01000 	mov	r1, #0, 0
    9624:	e59f003c 	ldr	r0, [pc, #60]	; 9668 <uart_init+0xa0>
    9628:	ebfffa7d 	bl	8024 <PUT32>
    962c:	e3a010c7 	mov	r1, #199, 0	; 0xc7
    9630:	e59f0034 	ldr	r0, [pc, #52]	; 966c <uart_init+0xa4>
    9634:	ebfffa7a 	bl	8024 <PUT32>
    9638:	e59f1030 	ldr	r1, [pc, #48]	; 9670 <uart_init+0xa8>
    963c:	e59f0030 	ldr	r0, [pc, #48]	; 9674 <uart_init+0xac>
    9640:	ebfffa77 	bl	8024 <PUT32>
    9644:	e3a01003 	mov	r1, #3, 0
    9648:	e1a00004 	mov	r0, r4
    964c:	ebfffa74 	bl	8024 <PUT32>
    9650:	eb00016f 	bl	9c14 <dev_barrier>
    9654:	e8bd8010 	pop	{r4, pc}
    9658:	20215004 	eorcs	r5, r1, r4
    965c:	20215060 	eorcs	r5, r1, r0, rrx
    9660:	20215044 	eorcs	r5, r1, r4, asr #32
    9664:	2021504c 	eorcs	r5, r1, ip, asr #32
    9668:	20215050 	eorcs	r5, r1, r0, asr r0
    966c:	20215048 	eorcs	r5, r1, r8, asr #32
    9670:	0000010e 	andeq	r0, r0, lr, lsl #2
    9674:	20215068 	eorcs	r5, r1, r8, rrx

00009678 <uart_can_getc>:
    9678:	e92d4010 	push	{r4, lr}
    967c:	e59f0008 	ldr	r0, [pc, #8]	; 968c <uart_can_getc+0x14>
    9680:	ebfffa69 	bl	802c <GET32>
    9684:	e2000001 	and	r0, r0, #1, 0
    9688:	e8bd8010 	pop	{r4, pc}
    968c:	20215064 	eorcs	r5, r1, r4, rrx

00009690 <uart_can_putc>:
    9690:	e92d4010 	push	{r4, lr}
    9694:	e59f0010 	ldr	r0, [pc, #16]	; 96ac <uart_can_putc+0x1c>
    9698:	ebfffa63 	bl	802c <GET32>
    969c:	e3100002 	tst	r0, #2, 0
    96a0:	13a00001 	movne	r0, #1, 0
    96a4:	03a00000 	moveq	r0, #0, 0
    96a8:	e8bd8010 	pop	{r4, pc}
    96ac:	20215064 	eorcs	r5, r1, r4, rrx

000096b0 <uart_getc>:
    96b0:	e92d4010 	push	{r4, lr}
    96b4:	eb000156 	bl	9c14 <dev_barrier>
    96b8:	ebffffee 	bl	9678 <uart_can_getc>
    96bc:	e3500000 	cmp	r0, #0, 0
    96c0:	0afffffc 	beq	96b8 <uart_getc+0x8>
    96c4:	e59f0010 	ldr	r0, [pc, #16]	; 96dc <uart_getc+0x2c>
    96c8:	ebfffa57 	bl	802c <GET32>
    96cc:	e6ef4070 	uxtb	r4, r0
    96d0:	eb00014f 	bl	9c14 <dev_barrier>
    96d4:	e1a00004 	mov	r0, r4
    96d8:	e8bd8010 	pop	{r4, pc}
    96dc:	20215040 	eorcs	r5, r1, r0, asr #32

000096e0 <uart_putc>:
    96e0:	e92d4010 	push	{r4, lr}
    96e4:	e1a04000 	mov	r4, r0
    96e8:	eb000149 	bl	9c14 <dev_barrier>
    96ec:	ebffffe7 	bl	9690 <uart_can_putc>
    96f0:	e3500000 	cmp	r0, #0, 0
    96f4:	0afffffc 	beq	96ec <uart_putc+0xc>
    96f8:	e6ef1074 	uxtb	r1, r4
    96fc:	e59f0008 	ldr	r0, [pc, #8]	; 970c <uart_putc+0x2c>
    9700:	ebfffa47 	bl	8024 <PUT32>
    9704:	eb000142 	bl	9c14 <dev_barrier>
    9708:	e8bd8010 	pop	{r4, pc}
    970c:	20215040 	eorcs	r5, r1, r0, asr #32

00009710 <uart_has_data>:
    9710:	e92d4010 	push	{r4, lr}
    9714:	eb00013e 	bl	9c14 <dev_barrier>
    9718:	ebffffd6 	bl	9678 <uart_can_getc>
    971c:	e8bd8010 	pop	{r4, pc}

00009720 <uart_tx_is_empty>:
    9720:	e92d4010 	push	{r4, lr}
    9724:	eb00013a 	bl	9c14 <dev_barrier>
    9728:	e59f000c 	ldr	r0, [pc, #12]	; 973c <uart_tx_is_empty+0x1c>
    972c:	ebfffa3e 	bl	802c <GET32>
    9730:	e1a004a0 	lsr	r0, r0, #9
    9734:	e2000001 	and	r0, r0, #1, 0
    9738:	e8bd8010 	pop	{r4, pc}
    973c:	20215064 	eorcs	r5, r1, r4, rrx

00009740 <uart_flush_tx>:
    9740:	e92d4010 	push	{r4, lr}
    9744:	ebfffff5 	bl	9720 <uart_tx_is_empty>
    9748:	e3500000 	cmp	r0, #0, 0
    974c:	0afffffc 	beq	9744 <uart_flush_tx+0x4>
    9750:	e8bd8010 	pop	{r4, pc}

00009754 <uart_disable>:
    9754:	e92d4010 	push	{r4, lr}
    9758:	ebfffff8 	bl	9740 <uart_flush_tx>
    975c:	eb00012c 	bl	9c14 <dev_barrier>
    9760:	e3e01001 	mvn	r1, #1, 0
    9764:	e59f0008 	ldr	r0, [pc, #8]	; 9774 <uart_disable+0x20>
    9768:	ebffff86 	bl	9588 <and_in32>
    976c:	eb000128 	bl	9c14 <dev_barrier>
    9770:	e8bd8010 	pop	{r4, pc}
    9774:	20215004 	eorcs	r5, r1, r4

00009778 <kmalloc_heap_end>:
    9778:	e59f3004 	ldr	r3, [pc, #4]	; 9784 <kmalloc_heap_end+0xc>
    977c:	e5930000 	ldr	r0, [r3]
    9780:	e12fff1e 	bx	lr
    9784:	0000a59c 	muleq	r0, ip, r5

00009788 <kmalloc_heap_start>:
    9788:	e59f3004 	ldr	r3, [pc, #4]	; 9794 <kmalloc_heap_start+0xc>
    978c:	e5930004 	ldr	r0, [r3, #4]
    9790:	e12fff1e 	bx	lr
    9794:	0000a59c 	muleq	r0, ip, r5

00009798 <kmalloc_heap_ptr>:
    9798:	e59f3004 	ldr	r3, [pc, #4]	; 97a4 <kmalloc_heap_ptr+0xc>
    979c:	e5930008 	ldr	r0, [r3, #8]
    97a0:	e12fff1e 	bx	lr
    97a4:	0000a59c 	muleq	r0, ip, r5

000097a8 <kmalloc_init_set_start>:
    97a8:	e52de004 	push	{lr}		; (str lr, [sp, #-4]!)
    97ac:	e24dd00c 	sub	sp, sp, #12, 0
    97b0:	e3510000 	cmp	r1, #0, 0
    97b4:	0a00000a 	beq	97e4 <kmalloc_init_set_start+0x3c>
    97b8:	e59f306c 	ldr	r3, [pc, #108]	; 982c <kmalloc_init_set_start+0x84>
    97bc:	e5933008 	ldr	r3, [r3, #8]
    97c0:	e1530000 	cmp	r3, r0
    97c4:	8a00000e 	bhi	9804 <kmalloc_init_set_start+0x5c>
    97c8:	e59f305c 	ldr	r3, [pc, #92]	; 982c <kmalloc_init_set_start+0x84>
    97cc:	e5830008 	str	r0, [r3, #8]
    97d0:	e5830004 	str	r0, [r3, #4]
    97d4:	e0800001 	add	r0, r0, r1
    97d8:	e5830000 	str	r0, [r3]
    97dc:	e28dd00c 	add	sp, sp, #12, 0
    97e0:	e49df004 	pop	{pc}		; (ldr pc, [sp], #4)
    97e4:	e59f3044 	ldr	r3, [pc, #68]	; 9830 <kmalloc_init_set_start+0x88>
    97e8:	e58d3000 	str	r3, [sp]
    97ec:	e3a03030 	mov	r3, #48, 0	; 0x30
    97f0:	e59f203c 	ldr	r2, [pc, #60]	; 9834 <kmalloc_init_set_start+0x8c>
    97f4:	e59f103c 	ldr	r1, [pc, #60]	; 9838 <kmalloc_init_set_start+0x90>
    97f8:	e59f003c 	ldr	r0, [pc, #60]	; 983c <kmalloc_init_set_start+0x94>
    97fc:	ebfffd12 	bl	8c4c <printk>
    9800:	ebffff04 	bl	9418 <clean_reboot>
    9804:	e59f3020 	ldr	r3, [pc, #32]	; 982c <kmalloc_init_set_start+0x84>
    9808:	e5933000 	ldr	r3, [r3]
    980c:	e58d3004 	str	r3, [sp, #4]
    9810:	e58d0000 	str	r0, [sp]
    9814:	e3a03034 	mov	r3, #52, 0	; 0x34
    9818:	e59f2014 	ldr	r2, [pc, #20]	; 9834 <kmalloc_init_set_start+0x8c>
    981c:	e59f1014 	ldr	r1, [pc, #20]	; 9838 <kmalloc_init_set_start+0x90>
    9820:	e59f0018 	ldr	r0, [pc, #24]	; 9840 <kmalloc_init_set_start+0x98>
    9824:	ebfffd08 	bl	8c4c <printk>
    9828:	ebfffefa 	bl	9418 <clean_reboot>
    982c:	0000a59c 	muleq	r0, ip, r5
    9830:	0000a3a8 	andeq	sl, r0, r8, lsr #7
    9834:	0000a534 	andeq	sl, r0, r4, lsr r5
    9838:	0000a39c 	muleq	r0, ip, r3
    983c:	00009df0 	strdeq	r9, [r0], -r0
    9840:	0000a3b4 			; <UNDEFINED> instruction: 0x0000a3b4

00009844 <kmalloc_init>:
    9844:	e92d4010 	push	{r4, lr}
    9848:	e59f303c 	ldr	r3, [pc, #60]	; 988c <kmalloc_init+0x48>
    984c:	e5933000 	ldr	r3, [r3]
    9850:	e3530000 	cmp	r3, #0, 0
    9854:	1a000006 	bne	9874 <kmalloc_init+0x30>
    9858:	e59f302c 	ldr	r3, [pc, #44]	; 988c <kmalloc_init+0x48>
    985c:	e3a02001 	mov	r2, #1, 0
    9860:	e5832000 	str	r2, [r3]
    9864:	e3a01201 	mov	r1, #268435456	; 0x10000000
    9868:	e3a00601 	mov	r0, #1048576	; 0x100000
    986c:	ebffffcd 	bl	97a8 <kmalloc_init_set_start>
    9870:	e8bd8010 	pop	{r4, pc}
    9874:	e3a03040 	mov	r3, #64, 0	; 0x40
    9878:	e59f2010 	ldr	r2, [pc, #16]	; 9890 <kmalloc_init+0x4c>
    987c:	e59f1010 	ldr	r1, [pc, #16]	; 9894 <kmalloc_init+0x50>
    9880:	e59f0010 	ldr	r0, [pc, #16]	; 9898 <kmalloc_init+0x54>
    9884:	ebfffcf0 	bl	8c4c <printk>
    9888:	ebfffee2 	bl	9418 <clean_reboot>
    988c:	0000a9d8 	ldrdeq	sl, [r0], -r8
    9890:	0000a54c 	andeq	sl, r0, ip, asr #10
    9894:	0000a39c 	muleq	r0, ip, r3
    9898:	0000a3f8 	strdeq	sl, [r0], -r8

0000989c <kmalloc_notzero>:
    989c:	e52de004 	push	{lr}		; (str lr, [sp, #-4]!)
    98a0:	e24dd00c 	sub	sp, sp, #12, 0
    98a4:	e3500000 	cmp	r0, #0, 0
    98a8:	0a00000a 	beq	98d8 <kmalloc_notzero+0x3c>
    98ac:	e2800007 	add	r0, r0, #7, 0
    98b0:	e3c03007 	bic	r3, r0, #7, 0
    98b4:	e59f2060 	ldr	r2, [pc, #96]	; 991c <kmalloc_notzero+0x80>
    98b8:	e5920008 	ldr	r0, [r2, #8]
    98bc:	e0801003 	add	r1, r0, r3
    98c0:	e5821008 	str	r1, [r2, #8]
    98c4:	e5922000 	ldr	r2, [r2]
    98c8:	e1510002 	cmp	r1, r2
    98cc:	8a000009 	bhi	98f8 <kmalloc_notzero+0x5c>
    98d0:	e28dd00c 	add	sp, sp, #12, 0
    98d4:	e49df004 	pop	{pc}		; (ldr pc, [sp], #4)
    98d8:	e59f3040 	ldr	r3, [pc, #64]	; 9920 <kmalloc_notzero+0x84>
    98dc:	e58d3000 	str	r3, [sp]
    98e0:	e3a03048 	mov	r3, #72, 0	; 0x48
    98e4:	e59f2038 	ldr	r2, [pc, #56]	; 9924 <kmalloc_notzero+0x88>
    98e8:	e59f1038 	ldr	r1, [pc, #56]	; 9928 <kmalloc_notzero+0x8c>
    98ec:	e59f0038 	ldr	r0, [pc, #56]	; 992c <kmalloc_notzero+0x90>
    98f0:	ebfffcd5 	bl	8c4c <printk>
    98f4:	ebfffec7 	bl	9418 <clean_reboot>
    98f8:	e0422000 	sub	r2, r2, r0
    98fc:	e58d2004 	str	r2, [sp, #4]
    9900:	e58d3000 	str	r3, [sp]
    9904:	e3a0304e 	mov	r3, #78, 0	; 0x4e
    9908:	e59f2014 	ldr	r2, [pc, #20]	; 9924 <kmalloc_notzero+0x88>
    990c:	e59f1014 	ldr	r1, [pc, #20]	; 9928 <kmalloc_notzero+0x8c>
    9910:	e59f0018 	ldr	r0, [pc, #24]	; 9930 <kmalloc_notzero+0x94>
    9914:	ebfffccc 	bl	8c4c <printk>
    9918:	ebfffebe 	bl	9418 <clean_reboot>
    991c:	0000a59c 	muleq	r0, ip, r5
    9920:	0000a3ac 	andeq	sl, r0, ip, lsr #7
    9924:	0000a55c 	andeq	sl, r0, ip, asr r5
    9928:	0000a39c 	muleq	r0, ip, r3
    992c:	00009df0 	strdeq	r9, [r0], -r0
    9930:	0000a428 	andeq	sl, r0, r8, lsr #8

00009934 <kmalloc>:
    9934:	e92d4030 	push	{r4, r5, lr}
    9938:	e24dd00c 	sub	sp, sp, #12, 0
    993c:	e2504000 	subs	r4, r0, #0, 0
    9940:	0a000008 	beq	9968 <kmalloc+0x34>
    9944:	e1a00004 	mov	r0, r4
    9948:	ebffffd3 	bl	989c <kmalloc_notzero>
    994c:	e1a05000 	mov	r5, r0
    9950:	e1a02004 	mov	r2, r4
    9954:	e3a01000 	mov	r1, #0, 0
    9958:	ebfffcb5 	bl	8c34 <memset>
    995c:	e1a00005 	mov	r0, r5
    9960:	e28dd00c 	add	sp, sp, #12, 0
    9964:	e8bd8030 	pop	{r4, r5, pc}
    9968:	e59f3018 	ldr	r3, [pc, #24]	; 9988 <kmalloc+0x54>
    996c:	e58d3000 	str	r3, [sp]
    9970:	e3a03054 	mov	r3, #84, 0	; 0x54
    9974:	e59f2010 	ldr	r2, [pc, #16]	; 998c <kmalloc+0x58>
    9978:	e59f1010 	ldr	r1, [pc, #16]	; 9990 <kmalloc+0x5c>
    997c:	e59f0010 	ldr	r0, [pc, #16]	; 9994 <kmalloc+0x60>
    9980:	ebfffcb1 	bl	8c4c <printk>
    9984:	ebfffea3 	bl	9418 <clean_reboot>
    9988:	0000a3ac 	andeq	sl, r0, ip, lsr #7
    998c:	0000a56c 	andeq	sl, r0, ip, ror #10
    9990:	0000a39c 	muleq	r0, ip, r3
    9994:	00009df0 	strdeq	r9, [r0], -r0

00009998 <kmalloc_aligned>:
    9998:	e52de004 	push	{lr}		; (str lr, [sp, #-4]!)
    999c:	e24dd00c 	sub	sp, sp, #12, 0
    99a0:	e3500000 	cmp	r0, #0, 0
    99a4:	0a000014 	beq	99fc <kmalloc_aligned+0x64>
    99a8:	e2613000 	rsb	r3, r1, #0, 0
    99ac:	e1d13003 	bics	r3, r1, r3
    99b0:	1a000019 	bne	9a1c <kmalloc_aligned+0x84>
    99b4:	e3510008 	cmp	r1, #8, 0
    99b8:	33a01008 	movcc	r1, #8, 0
    99bc:	e59f30c0 	ldr	r3, [pc, #192]	; 9a84 <kmalloc_aligned+0xec>
    99c0:	e5932008 	ldr	r2, [r3, #8]
    99c4:	e2613000 	rsb	r3, r1, #0, 0
    99c8:	e1d1c003 	bics	ip, r1, r3
    99cc:	1a00001b 	bne	9a40 <kmalloc_aligned+0xa8>
    99d0:	e0822001 	add	r2, r2, r1
    99d4:	e2422001 	sub	r2, r2, #1, 0
    99d8:	e0033002 	and	r3, r3, r2
    99dc:	e2411001 	sub	r1, r1, #1, 0
    99e0:	e1110003 	tst	r1, r3
    99e4:	1a00001d 	bne	9a60 <kmalloc_aligned+0xc8>
    99e8:	e59f2094 	ldr	r2, [pc, #148]	; 9a84 <kmalloc_aligned+0xec>
    99ec:	e5823008 	str	r3, [r2, #8]
    99f0:	ebffffcf 	bl	9934 <kmalloc>
    99f4:	e28dd00c 	add	sp, sp, #12, 0
    99f8:	e49df004 	pop	{pc}		; (ldr pc, [sp], #4)
    99fc:	e59f3084 	ldr	r3, [pc, #132]	; 9a88 <kmalloc_aligned+0xf0>
    9a00:	e58d3000 	str	r3, [sp]
    9a04:	e3a0305f 	mov	r3, #95, 0	; 0x5f
    9a08:	e59f207c 	ldr	r2, [pc, #124]	; 9a8c <kmalloc_aligned+0xf4>
    9a0c:	e59f107c 	ldr	r1, [pc, #124]	; 9a90 <kmalloc_aligned+0xf8>
    9a10:	e59f007c 	ldr	r0, [pc, #124]	; 9a94 <kmalloc_aligned+0xfc>
    9a14:	ebfffc8c 	bl	8c4c <printk>
    9a18:	ebfffe7e 	bl	9418 <clean_reboot>
    9a1c:	eb000046 	bl	9b3c <rpi_reset_putc>
    9a20:	e59f3070 	ldr	r3, [pc, #112]	; 9a98 <kmalloc_aligned+0x100>
    9a24:	e58d3000 	str	r3, [sp]
    9a28:	e3a03060 	mov	r3, #96, 0	; 0x60
    9a2c:	e59f2058 	ldr	r2, [pc, #88]	; 9a8c <kmalloc_aligned+0xf4>
    9a30:	e59f1058 	ldr	r1, [pc, #88]	; 9a90 <kmalloc_aligned+0xf8>
    9a34:	e59f0060 	ldr	r0, [pc, #96]	; 9a9c <kmalloc_aligned+0x104>
    9a38:	ebfffc83 	bl	8c4c <printk>
    9a3c:	ebfffe75 	bl	9418 <clean_reboot>
    9a40:	e59f3058 	ldr	r3, [pc, #88]	; 9aa0 <kmalloc_aligned+0x108>
    9a44:	e58d3000 	str	r3, [sp]
    9a48:	e3a03011 	mov	r3, #17, 0
    9a4c:	e59f2050 	ldr	r2, [pc, #80]	; 9aa4 <kmalloc_aligned+0x10c>
    9a50:	e59f1038 	ldr	r1, [pc, #56]	; 9a90 <kmalloc_aligned+0xf8>
    9a54:	e59f0038 	ldr	r0, [pc, #56]	; 9a94 <kmalloc_aligned+0xfc>
    9a58:	ebfffc7b 	bl	8c4c <printk>
    9a5c:	ebfffe6d 	bl	9418 <clean_reboot>
    9a60:	eb000035 	bl	9b3c <rpi_reset_putc>
    9a64:	e59f303c 	ldr	r3, [pc, #60]	; 9aa8 <kmalloc_aligned+0x110>
    9a68:	e58d3000 	str	r3, [sp]
    9a6c:	e3a03068 	mov	r3, #104, 0	; 0x68
    9a70:	e59f2014 	ldr	r2, [pc, #20]	; 9a8c <kmalloc_aligned+0xf4>
    9a74:	e59f1014 	ldr	r1, [pc, #20]	; 9a90 <kmalloc_aligned+0xf8>
    9a78:	e59f002c 	ldr	r0, [pc, #44]	; 9aac <kmalloc_aligned+0x114>
    9a7c:	ebfffc72 	bl	8c4c <printk>
    9a80:	ebfffe64 	bl	9418 <clean_reboot>
    9a84:	0000a59c 	muleq	r0, ip, r5
    9a88:	0000a3ac 	andeq	sl, r0, ip, lsr #7
    9a8c:	0000a574 	andeq	sl, r0, r4, ror r5
    9a90:	0000a39c 	muleq	r0, ip, r3
    9a94:	00009df0 	strdeq	r9, [r0], -r0
    9a98:	0000a49c 	muleq	r0, ip, r4
    9a9c:	0000a468 	andeq	sl, r0, r8, ror #8
    9aa0:	0000a4b0 			; <UNDEFINED> instruction: 0x0000a4b0
    9aa4:	0000a584 	andeq	sl, r0, r4, lsl #11
    9aa8:	0000a4e8 	andeq	sl, r0, r8, ror #9
    9aac:	0000a4bc 			; <UNDEFINED> instruction: 0x0000a4bc

00009ab0 <kfree>:
    9ab0:	e12fff1e 	bx	lr

00009ab4 <kfree_all>:
    9ab4:	e59f3008 	ldr	r3, [pc, #8]	; 9ac4 <kfree_all+0x10>
    9ab8:	e5932004 	ldr	r2, [r3, #4]
    9abc:	e5832008 	str	r2, [r3, #8]
    9ac0:	e12fff1e 	bx	lr
    9ac4:	0000a59c 	muleq	r0, ip, r5

00009ac8 <kfree_pop>:
    9ac8:	e59f3048 	ldr	r3, [pc, #72]	; 9b18 <kfree_pop+0x50>
    9acc:	e5933004 	ldr	r3, [r3, #4]
    9ad0:	e1530000 	cmp	r3, r0
    9ad4:	8a000006 	bhi	9af4 <kfree_pop+0x2c>
    9ad8:	e59f3038 	ldr	r3, [pc, #56]	; 9b18 <kfree_pop+0x50>
    9adc:	e5933000 	ldr	r3, [r3]
    9ae0:	e1530000 	cmp	r3, r0
    9ae4:	3a000002 	bcc	9af4 <kfree_pop+0x2c>
    9ae8:	e59f3028 	ldr	r3, [pc, #40]	; 9b18 <kfree_pop+0x50>
    9aec:	e5830008 	str	r0, [r3, #8]
    9af0:	e12fff1e 	bx	lr
    9af4:	e52de004 	push	{lr}		; (str lr, [sp, #-4]!)
    9af8:	e24dd00c 	sub	sp, sp, #12, 0
    9afc:	e58d0000 	str	r0, [sp]
    9b00:	e3a03077 	mov	r3, #119, 0	; 0x77
    9b04:	e59f2010 	ldr	r2, [pc, #16]	; 9b1c <kfree_pop+0x54>
    9b08:	e59f1010 	ldr	r1, [pc, #16]	; 9b20 <kfree_pop+0x58>
    9b0c:	e59f0010 	ldr	r0, [pc, #16]	; 9b24 <kfree_pop+0x5c>
    9b10:	ebfffc4d 	bl	8c4c <printk>
    9b14:	ebfffe3f 	bl	9418 <clean_reboot>
    9b18:	0000a59c 	muleq	r0, ip, r5
    9b1c:	0000a58c 	andeq	sl, r0, ip, lsl #11
    9b20:	0000a39c 	muleq	r0, ip, r3
    9b24:	0000a504 	andeq	sl, r0, r4, lsl #10

00009b28 <internal_putchar>:
    9b28:	e92d4010 	push	{r4, lr}
    9b2c:	e1a04000 	mov	r4, r0
    9b30:	ebfffeea 	bl	96e0 <uart_putc>
    9b34:	e1a00004 	mov	r0, r4
    9b38:	e8bd8010 	pop	{r4, pc}

00009b3c <rpi_reset_putc>:
    9b3c:	e59f3008 	ldr	r3, [pc, #8]	; 9b4c <rpi_reset_putc+0x10>
    9b40:	e59f2008 	ldr	r2, [pc, #8]	; 9b50 <rpi_reset_putc+0x14>
    9b44:	e5832000 	str	r2, [r3]
    9b48:	e12fff1e 	bx	lr
    9b4c:	0000a5a8 	andeq	sl, r0, r8, lsr #11
    9b50:	00009b28 	andeq	r9, r0, r8, lsr #22

00009b54 <rpi_set_putc>:
    9b54:	e59f3004 	ldr	r3, [pc, #4]	; 9b60 <rpi_set_putc+0xc>
    9b58:	e5830000 	str	r0, [r3]
    9b5c:	e12fff1e 	bx	lr
    9b60:	0000a5a8 	andeq	sl, r0, r8, lsr #11

00009b64 <strcat>:
    9b64:	e1a02000 	mov	r2, r0
    9b68:	e1a03002 	mov	r3, r2
    9b6c:	e2822001 	add	r2, r2, #1, 0
    9b70:	e5d3c000 	ldrb	ip, [r3]
    9b74:	e35c0000 	cmp	ip, #0, 0
    9b78:	1afffffa 	bne	9b68 <strcat+0x4>
    9b7c:	e2433001 	sub	r3, r3, #1, 0
    9b80:	e5d12000 	ldrb	r2, [r1]
    9b84:	e2811001 	add	r1, r1, #1, 0
    9b88:	e5e32001 	strb	r2, [r3, #1]!
    9b8c:	e3520000 	cmp	r2, #0, 0
    9b90:	1afffffa 	bne	9b80 <strcat+0x1c>
    9b94:	e12fff1e 	bx	lr

00009b98 <strcmp>:
    9b98:	e5d03000 	ldrb	r3, [r0]
    9b9c:	e3530000 	cmp	r3, #0, 0
    9ba0:	0a000004 	beq	9bb8 <strcmp+0x20>
    9ba4:	e5d12000 	ldrb	r2, [r1]
    9ba8:	e1530002 	cmp	r3, r2
    9bac:	02800001 	addeq	r0, r0, #1, 0
    9bb0:	02811001 	addeq	r1, r1, #1, 0
    9bb4:	0afffff7 	beq	9b98 <strcmp>
    9bb8:	e5d10000 	ldrb	r0, [r1]
    9bbc:	e0430000 	sub	r0, r3, r0
    9bc0:	e12fff1e 	bx	lr

00009bc4 <strcpy>:
    9bc4:	e1a0c000 	mov	ip, r0
    9bc8:	e5d12000 	ldrb	r2, [r1]
    9bcc:	e2811001 	add	r1, r1, #1, 0
    9bd0:	e5cc2000 	strb	r2, [ip]
    9bd4:	e28cc001 	add	ip, ip, #1, 0
    9bd8:	e3520000 	cmp	r2, #0, 0
    9bdc:	1afffff9 	bne	9bc8 <strcpy+0x4>
    9be0:	e12fff1e 	bx	lr

00009be4 <strncmp>:
    9be4:	e3520000 	cmp	r2, #0, 0
    9be8:	e2422001 	sub	r2, r2, #1, 0
    9bec:	0a000005 	beq	9c08 <strncmp+0x24>
    9bf0:	e4d03001 	ldrb	r3, [r0], #1
    9bf4:	e4d1c001 	ldrb	ip, [r1], #1
    9bf8:	e153000c 	cmp	r3, ip
    9bfc:	0afffff8 	beq	9be4 <strncmp>
    9c00:	e043000c 	sub	r0, r3, ip
    9c04:	e12fff1e 	bx	lr
    9c08:	e3a00000 	mov	r0, #0, 0
    9c0c:	e12fff1e 	bx	lr

00009c10 <reboot_callout>:
    9c10:	e12fff1e 	bx	lr

00009c14 <dev_barrier>:
    9c14:	ea000002 	b	9c24 <dsb>

00009c18 <dmb>:
    9c18:	e3a00000 	mov	r0, #0, 0
    9c1c:	ee070fba 	mcr	15, 0, r0, cr7, cr10, {5}
    9c20:	e12fff1e 	bx	lr

00009c24 <dsb>:
    9c24:	ee070f9a 	mcr	15, 0, r0, cr7, cr10, {4}
    9c28:	e12fff1e 	bx	lr

00009c2c <gpio_set_function>:
    9c2c:	e350001f 	cmp	r0, #31, 0
    9c30:	812fff1e 	bxhi	lr
    9c34:	e92d4070 	push	{r4, r5, r6, lr}
    9c38:	e1a05001 	mov	r5, r1
    9c3c:	e3d13007 	bics	r3, r1, #7, 0
    9c40:	18bd8070 	popne	{r4, r5, r6, pc}
    9c44:	e59f3040 	ldr	r3, [pc, #64]	; 9c8c <gpio_set_function+0x60>
    9c48:	e0832093 	umull	r2, r3, r3, r0
    9c4c:	e1a031a3 	lsr	r3, r3, #3
    9c50:	e1a02003 	mov	r2, r3
    9c54:	e0833103 	add	r3, r3, r3, lsl #2
    9c58:	e0403083 	sub	r3, r0, r3, lsl #1
    9c5c:	e0834083 	add	r4, r3, r3, lsl #1
    9c60:	e2820302 	add	r0, r2, #134217728	; 0x8000000
    9c64:	e2800702 	add	r0, r0, #524288	; 0x80000
    9c68:	e1a06100 	lsl	r6, r0, #2
    9c6c:	e1a00006 	mov	r0, r6
    9c70:	ebfff8ed 	bl	802c <GET32>
    9c74:	e3a01007 	mov	r1, #7, 0
    9c78:	e1c01411 	bic	r1, r0, r1, lsl r4
    9c7c:	e1811415 	orr	r1, r1, r5, lsl r4
    9c80:	e1a00006 	mov	r0, r6
    9c84:	ebfff8e6 	bl	8024 <PUT32>
    9c88:	e8bd8070 	pop	{r4, r5, r6, pc}
    9c8c:	cccccccd 	stclgt	12, cr12, [ip], {205}	; 0xcd

00009c90 <gpio_set_output>:
    9c90:	e92d4010 	push	{r4, lr}
    9c94:	e3a01001 	mov	r1, #1, 0
    9c98:	ebffffe3 	bl	9c2c <gpio_set_function>
    9c9c:	e8bd8010 	pop	{r4, pc}

00009ca0 <gpio_set_on>:
    9ca0:	e350001f 	cmp	r0, #31, 0
    9ca4:	812fff1e 	bxhi	lr
    9ca8:	e92d4010 	push	{r4, lr}
    9cac:	e3a01001 	mov	r1, #1, 0
    9cb0:	e1a01011 	lsl	r1, r1, r0
    9cb4:	e59f0004 	ldr	r0, [pc, #4]	; 9cc0 <gpio_set_on+0x20>
    9cb8:	ebfff8d9 	bl	8024 <PUT32>
    9cbc:	e8bd8010 	pop	{r4, pc}
    9cc0:	2020001c 	eorcs	r0, r0, ip, lsl r0

00009cc4 <gpio_set_off>:
    9cc4:	e350001f 	cmp	r0, #31, 0
    9cc8:	812fff1e 	bxhi	lr
    9ccc:	e92d4010 	push	{r4, lr}
    9cd0:	e3a01001 	mov	r1, #1, 0
    9cd4:	e1a01011 	lsl	r1, r1, r0
    9cd8:	e59f0004 	ldr	r0, [pc, #4]	; 9ce4 <gpio_set_off+0x20>
    9cdc:	ebfff8d0 	bl	8024 <PUT32>
    9ce0:	e8bd8010 	pop	{r4, pc}
    9ce4:	20200028 	eorcs	r0, r0, r8, lsr #32

00009ce8 <gpio_set_input>:
    9ce8:	e92d4010 	push	{r4, lr}
    9cec:	e3a01000 	mov	r1, #0, 0
    9cf0:	ebffffcd 	bl	9c2c <gpio_set_function>
    9cf4:	e8bd8010 	pop	{r4, pc}

00009cf8 <gpio_write>:
    9cf8:	e92d4010 	push	{r4, lr}
    9cfc:	e3510000 	cmp	r1, #0, 0
    9d00:	0a000001 	beq	9d0c <gpio_write+0x14>
    9d04:	ebffffe5 	bl	9ca0 <gpio_set_on>
    9d08:	e8bd8010 	pop	{r4, pc}
    9d0c:	ebffffec 	bl	9cc4 <gpio_set_off>
    9d10:	e8bd8010 	pop	{r4, pc}

00009d14 <gpio_read>:
    9d14:	e350001f 	cmp	r0, #31, 0
    9d18:	8a000007 	bhi	9d3c <gpio_read+0x28>
    9d1c:	e92d4010 	push	{r4, lr}
    9d20:	e200401f 	and	r4, r0, #31, 0
    9d24:	e59f3018 	ldr	r3, [pc, #24]	; 9d44 <gpio_read+0x30>
    9d28:	e08302a0 	add	r0, r3, r0, lsr #5
    9d2c:	ebfff8be 	bl	802c <GET32>
    9d30:	e1a00430 	lsr	r0, r0, r4
    9d34:	e2000001 	and	r0, r0, #1, 0
    9d38:	e8bd8010 	pop	{r4, pc}
    9d3c:	e3e00000 	mvn	r0, #0, 0
    9d40:	e12fff1e 	bx	lr
    9d44:	20200034 	eorcs	r0, r0, r4, lsr r0

Disassembly of section .rodata:

00009d48 <__FUNCTION__.4020-0x94>:
    9d48:	626f6c67 	rsbvs	r6, pc, #26368	; 0x6700
    9d4c:	705f6c61 	subsvc	r6, pc, r1, ror #24
    9d50:	2070253d 	rsbscs	r2, r0, sp, lsr r5
    9d54:	61746164 	cmnvs	r4, r4, ror #2
    9d58:	72617473 	rsbvc	r7, r1, #1929379840	; 0x73000000
    9d5c:	70253d74 	eorvc	r3, r5, r4, ror sp
    9d60:	6164202c 	cmnvs	r4, ip, lsr #32
    9d64:	6e656174 	mcrvs	1, 3, r6, cr5, cr4, {3}
    9d68:	70253d64 	eorvc	r3, r5, r4, ror #26
    9d6c:	0000000a 	andeq	r0, r0, sl
    9d70:	74736574 	ldrbtvc	r6, [r3], #-1396	; 0xfffffa8c
    9d74:	61702f73 	cmnvs	r0, r3, ror pc
    9d78:	2d327472 	cfldrscs	mvf7, [r2, #-456]!	; 0xfffffe38
    9d7c:	74736574 	ldrbtvc	r6, [r3], #-1396	; 0xfffffa8c
    9d80:	00632e32 	rsbeq	r2, r3, r2, lsr lr
    9d84:	74204347 	strtvc	r4, [r0], #-839	; 0xfffffcb9
    9d88:	32747365 	rsbscc	r7, r4, #-1811939327	; 0x94000001
    9d8c:	6863203a 	stmdavs	r3!, {r1, r3, r4, r5, sp}^
    9d90:	696b6365 	stmdbvs	fp!, {r0, r2, r5, r6, r8, r9, sp, lr}^
    9d94:	7420676e 	strtvc	r6, [r0], #-1902	; 0xfffff892
    9d98:	20746168 	rsbscs	r6, r4, r8, ror #2
    9d9c:	61636f6c 	cmnvs	r3, ip, ror #30
    9da0:	7328206c 			; <UNDEFINED> instruction: 0x7328206c
    9da4:	6b636174 	blvs	18e237c <__bss_end__+0x18d799c>
    9da8:	20726f20 	rsbscs	r6, r2, r0, lsr #30
    9dac:	29676572 	stmdbcs	r7!, {r1, r4, r5, r6, r8, sl, sp, lr}^
    9db0:	696f7020 	stmdbvs	pc!, {r5, ip, sp, lr}^	; <UNPREDICTABLE>
    9db4:	7265746e 	rsbvc	r7, r5, #1845493760	; 0x6e000000
    9db8:	72612073 	rsbvc	r2, r1, #115, 0	; 0x73
    9dbc:	65642065 	strbvs	r2, [r4, #-101]!	; 0xffffff9b
    9dc0:	74636574 	strbtvc	r6, [r3], #-1396	; 0xfffffa8c
    9dc4:	0a2e6465 	beq	ba2f60 <__bss_end__+0xb98580>
    9dc8:	00000000 	andeq	r0, r0, r0
    9dcc:	7473616c 	ldrbtvc	r6, [r3], #-364	; 0xfffffe94
    9dd0:	6c6c6120 	stfvse	f6, [ip], #-128	; 0xffffff80
    9dd4:	3d20636f 	stccc	3, cr6, [r0, #-444]!	; 0xfffffe44
    9dd8:	000a7025 	andeq	r7, sl, r5, lsr #32

00009ddc <__FUNCTION__.4020>:
    9ddc:	74736574 	ldrbtvc	r6, [r3], #-1396	; 0xfffffa8c
    9de0:	00000000 	andeq	r0, r0, r0
    9de4:	6c616b63 			; <UNDEFINED> instruction: 0x6c616b63
    9de8:	2e636f6c 	cdpcs	15, 6, cr6, cr3, cr12, {3}
    9dec:	00000063 	andeq	r0, r0, r3, rrx
    9df0:	494e4150 	stmdbmi	lr, {r4, r6, r8, lr}^
    9df4:	73253a43 			; <UNDEFINED> instruction: 0x73253a43
    9df8:	3a73253a 	bcc	1cd32e8 <__bss_end__+0x1cc8908>
    9dfc:	253a6425 	ldrcs	r6, [sl, #-1061]!	; 0xfffffbdb
    9e00:	00000a73 	andeq	r0, r0, r3, ror sl
    9e04:	0000006c 	andeq	r0, r0, ip, rrx
    9e08:	494e4150 	stmdbmi	lr, {r4, r6, r8, lr}^
    9e0c:	73253a43 			; <UNDEFINED> instruction: 0x73253a43
    9e10:	3a73253a 	bcc	1cd3300 <__bss_end__+0x1cc8920>
    9e14:	643a6425 	ldrtvs	r6, [sl], #-1061	; 0xfffffbdb
    9e18:	6e206469 	cdpvs	4, 2, cr6, cr0, cr9, {3}
    9e1c:	6620746f 	strtvs	r7, [r0], -pc, ror #8
    9e20:	20646e69 	rsbcs	r6, r4, r9, ror #28
    9e24:	69207025 	stmdbvs	r0!, {r0, r2, r5, ip, sp, lr}
    9e28:	696c206e 	stmdbvs	ip!, {r1, r2, r3, r5, r6, sp}^
    9e2c:	0a0a7473 	beq	2a7000 <__bss_end__+0x29c620>
    9e30:	00000000 	andeq	r0, r0, r0
    9e34:	5f434f4c 	svcpl	0x00434f4c
    9e38:	494e4150 	stmdbmi	lr, {r4, r6, r8, lr}^
    9e3c:	25203a43 	strcs	r3, [r0, #-2627]!	; 0xfffff5bd
    9e40:	73253a73 			; <UNDEFINED> instruction: 0x73253a73
    9e44:	3a64253a 	bcc	1913334 <__bss_end__+0x1908954>
    9e48:	00000000 	andeq	r0, r0, r0
    9e4c:	65657266 	strbvs	r7, [r5, #-614]!	; 0xfffffd9a
    9e50:	20676e69 	rsbcs	r6, r7, r9, ror #28
    9e54:	6c616e75 	stclvs	14, cr6, [r1], #-468	; 0xfffffe2c
    9e58:	61636f6c 	cmnvs	r3, ip, ror #30
    9e5c:	20646574 	rsbcs	r6, r4, r4, ror r5
    9e60:	6f6d656d 	svcvs	0x006d656d
    9e64:	203a7972 	eorscs	r7, sl, r2, ror r9
    9e68:	72646461 	rsbvc	r6, r4, #1627389952	; 0x61000000
    9e6c:	25203d20 	strcs	r3, [r0, #-3360]!	; 0xfffff2e0
    9e70:	74732070 	ldrbtvc	r2, [r3], #-112	; 0xffffff90
    9e74:	3d657461 	cfstrdcc	mvd7, [r5, #-388]!	; 0xfffffe7c
    9e78:	000a6425 	andeq	r6, sl, r5, lsr #8
    9e7c:	253a7325 	ldrcs	r7, [sl, #-805]!	; 0xfffffcdb
    9e80:	64253a73 	strtvs	r3, [r5], #-2675	; 0xfffff58d
    9e84:	0000003a 	andeq	r0, r0, sl, lsr r0
    9e88:	65657266 	strbvs	r7, [r5, #-614]!	; 0xfffffd9a
    9e8c:	20676e69 	rsbcs	r6, r7, r9, ror #28
    9e90:	000a7025 	andeq	r7, sl, r5, lsr #32
    9e94:	705f6b63 	subsvc	r6, pc, r3, ror #22
    9e98:	695f7274 	ldmdbvs	pc, {r2, r4, r5, r6, r9, ip, sp, lr}^	; <UNPREDICTABLE>
    9e9c:	6c615f73 	stclvs	15, cr5, [r1], #-460	; 0xfffffe34
    9ea0:	65636f6c 	strbvs	r6, [r3, #-3948]!	; 0xfffff094
    9ea4:	64612864 	strbtvs	r2, [r1], #-2148	; 0xfffff79c
    9ea8:	20297264 	eorcs	r7, r9, r4, ror #4
    9eac:	30203d21 	eorcc	r3, r0, r1, lsr #26
    9eb0:	00000000 	andeq	r0, r0, r0
    9eb4:	5f6b6321 	svcpl	0x006b6321
    9eb8:	5f727470 	svcpl	0x00727470
    9ebc:	615f7369 	cmpvs	pc, r9, ror #6
    9ec0:	636f6c6c 	cmnvs	pc, #108, 24	; 0x6c00
    9ec4:	61286465 			; <UNDEFINED> instruction: 0x61286465
    9ec8:	29726464 	ldmdbcs	r2!, {r2, r5, r6, sl, sp, lr}^
    9ecc:	00000000 	andeq	r0, r0, r0
    9ed0:	6f6c6c61 	svcvs	0x006c6c61
    9ed4:	69746163 	ldmdbvs	r4!, {r0, r1, r5, r6, r8, sp, lr}^
    9ed8:	2520676e 	strcs	r6, [r0, #-1902]!	; 0xfffff892
    9edc:	00000a70 	andeq	r0, r0, r0, ror sl

00009ee0 <__FUNCTION__.4030>:
    9ee0:	7473696c 	ldrbtvc	r6, [r3], #-2412	; 0xfffff694
    9ee4:	7070615f 	rsbsvc	r6, r0, pc, asr r1
    9ee8:	00646e65 	rsbeq	r6, r4, r5, ror #28

00009eec <__FUNCTION__.4020>:
    9eec:	7473696c 	ldrbtvc	r6, [r3], #-2412	; 0xfffff694
    9ef0:	6d65725f 	sfmvs	f7, 2, [r5, #-380]!	; 0xfffffe84
    9ef4:	0065766f 	rsbeq	r7, r5, pc, ror #12

00009ef8 <__FUNCTION__.4068>:
    9ef8:	72666b63 	rsbvc	r6, r6, #101376	; 0x18c00
    9efc:	00006565 	andeq	r6, r0, r5, ror #10
    9f00:	2d2d2d2d 	stccs	13, cr2, [sp, #-180]!	; 0xffffff4c
    9f04:	2d2d2d2d 	stccs	13, cr2, [sp, #-180]!	; 0xffffff4c
    9f08:	2d2d2d2d 	stccs	13, cr2, [sp, #-180]!	; 0xffffff4c
    9f0c:	2d2d2d2d 	stccs	13, cr2, [sp, #-180]!	; 0xffffff4c
    9f10:	2d2d2d2d 	stccs	13, cr2, [sp, #-180]!	; 0xffffff4c
    9f14:	2d2d2d2d 	stccs	13, cr2, [sp, #-180]!	; 0xffffff4c
    9f18:	2d2d2d2d 	stccs	13, cr2, [sp, #-180]!	; 0xffffff4c
    9f1c:	2d2d2d2d 	stccs	13, cr2, [sp, #-180]!	; 0xffffff4c
    9f20:	2d2d2d2d 	stccs	13, cr2, [sp, #-180]!	; 0xffffff4c
    9f24:	2d2d2d2d 	stccs	13, cr2, [sp, #-180]!	; 0xffffff4c
    9f28:	2d2d2d2d 	stccs	13, cr2, [sp, #-180]!	; 0xffffff4c
    9f2c:	2d2d2d2d 	stccs	13, cr2, [sp, #-180]!	; 0xffffff4c
    9f30:	2d2d2d2d 	stccs	13, cr2, [sp, #-180]!	; 0xffffff4c
    9f34:	2d2d2d2d 	stccs	13, cr2, [sp, #-180]!	; 0xffffff4c
    9f38:	00000a2d 	andeq	r0, r0, sp, lsr #20
    9f3c:	63656863 	cmnvs	r5, #6488064	; 0x630000
    9f40:	676e696b 	strbvs	r6, [lr, -fp, ror #18]!
    9f44:	726f6620 	rsbvc	r6, pc, #32, 12	; 0x2000000
    9f48:	61656c20 	cmnvs	r5, r0, lsr #24
    9f4c:	0a3a736b 	beq	ea6d00 <__bss_end__+0xe9c320>
    9f50:	00000000 	andeq	r0, r0, r0
    9f54:	43415254 	movtmi	r5, #4692	; 0x1254
    9f58:	656c3a45 	strbvs	r3, [ip, #-2629]!	; 0xfffff5bb
    9f5c:	66206b61 	strtvs	r6, [r0], -r1, ror #22
    9f60:	646e756f 	strbtvs	r7, [lr], #-1391	; 0xfffffa91
    9f64:	726f6620 	rsbvc	r6, pc, #32, 12	; 0x2000000
    9f68:	6f6c6220 	svcvs	0x006c6220
    9f6c:	203a6b63 	eorscs	r6, sl, r3, ror #22
    9f70:	000a7825 	andeq	r7, sl, r5, lsr #16
    9f74:	43415254 	movtmi	r5, #4692	; 0x1254
    9f78:	47093a45 	strmi	r3, [r9, -r5, asr #20]
    9f7c:	68433a43 	stmdavs	r3, {r0, r1, r6, r9, fp, ip, sp}^
    9f80:	656b6365 	strbvs	r6, [fp, #-869]!	; 0xfffffc9b
    9f84:	64252064 	strtvs	r2, [r5], #-100	; 0xffffff9c
    9f88:	6f6c6220 	svcvs	0x006c6220
    9f8c:	2e736b63 	vsubcs.f64	d22, d3, d19
    9f90:	0000000a 	andeq	r0, r0, sl
    9f94:	43415254 	movtmi	r5, #4692	; 0x1254
    9f98:	09093a45 	stmdbeq	r9, {r0, r2, r6, r9, fp, ip, sp}
    9f9c:	533a4347 	teqpl	sl, #469762049	; 0x1c000001
    9fa0:	45434355 	strbmi	r4, [r3, #-853]	; 0xfffffcab
    9fa4:	203a5353 	eorscs	r5, sl, r3, asr r3
    9fa8:	6c206f4e 	stcvs	15, cr6, [r0], #-312	; 0xfffffec8
    9fac:	736b6165 	cmnvc	fp, #1073741849	; 0x40000019
    9fb0:	756f6620 	strbvc	r6, [pc, #-1568]!	; 9998 <kmalloc_aligned>
    9fb4:	0a21646e 	beq	863174 <__bss_end__+0x858794>
    9fb8:	00000000 	andeq	r0, r0, r0
    9fbc:	43415254 	movtmi	r5, #4692	; 0x1254
    9fc0:	09093a45 	stmdbeq	r9, {r0, r2, r6, r9, fp, ip, sp}
    9fc4:	453a4347 	ldrmi	r4, [sl, #-839]!	; 0xfffffcb9
    9fc8:	524f5252 	subpl	r5, pc, #536870917	; 0x20000005
    9fcc:	25203a53 	strcs	r3, [r0, #-2643]!	; 0xfffff5ad
    9fd0:	72652064 	rsbvc	r2, r5, #100, 0	; 0x64
    9fd4:	73726f72 	cmnvc	r2, #456	; 0x1c8
    9fd8:	6425202c 	strtvs	r2, [r5], #-44	; 0xffffffd4
    9fdc:	79616d20 	stmdbvc	r1!, {r5, r8, sl, fp, sp, lr}^
    9fe0:	655f6562 	ldrbvs	r6, [pc, #-1378]	; 9a86 <kmalloc_aligned+0xee>
    9fe4:	726f7272 	rsbvc	r7, pc, #536870919	; 0x20000007
    9fe8:	00000a73 	andeq	r0, r0, r3, ror sl
    9fec:	2d2d2d2d 	stccs	13, cr2, [sp, #-180]!	; 0xffffff4c
    9ff0:	2d2d2d2d 	stccs	13, cr2, [sp, #-180]!	; 0xffffff4c
    9ff4:	2d2d2d2d 	stccs	13, cr2, [sp, #-180]!	; 0xffffff4c
    9ff8:	2d2d2d2d 	stccs	13, cr2, [sp, #-180]!	; 0xffffff4c
    9ffc:	2d2d2d2d 	stccs	13, cr2, [sp, #-180]!	; 0xffffff4c
    a000:	2d2d2d2d 	stccs	13, cr2, [sp, #-180]!	; 0xffffff4c
    a004:	2d2d2d2d 	stccs	13, cr2, [sp, #-180]!	; 0xffffff4c
    a008:	2d2d2d2d 	stccs	13, cr2, [sp, #-180]!	; 0xffffff4c
    a00c:	2d2d2d2d 	stccs	13, cr2, [sp, #-180]!	; 0xffffff4c
    a010:	2d2d2d2d 	stccs	13, cr2, [sp, #-180]!	; 0xffffff4c
    a014:	2d2d2d2d 	stccs	13, cr2, [sp, #-180]!	; 0xffffff4c
    a018:	2d2d2d2d 	stccs	13, cr2, [sp, #-180]!	; 0xffffff4c
    a01c:	2d2d2d2d 	stccs	13, cr2, [sp, #-180]!	; 0xffffff4c
    a020:	2d2d2d2d 	stccs	13, cr2, [sp, #-180]!	; 0xffffff4c
    a024:	000a2d2d 	andeq	r2, sl, sp, lsr #26
    a028:	706d6f63 	rsbvc	r6, sp, r3, ror #30
    a02c:	69746361 	ldmdbvs	r4!, {r0, r5, r6, r8, r9, sp, lr}^
    a030:	0a3a676e 	beq	ea3df0 <__bss_end__+0xe99410>
    a034:	00000000 	andeq	r0, r0, r0
    a038:	43415254 	movtmi	r5, #4692	; 0x1254
    a03c:	656c3a45 	strbvs	r3, [ip, #-2629]!	; 0xfffff5bb
    a040:	66206b61 	strtvs	r6, [r0], -r1, ror #22
    a044:	646e756f 	strbtvs	r7, [lr], #-1391	; 0xfffffa91
    a048:	726f6620 	rsbvc	r6, pc, #32, 12	; 0x2000000
    a04c:	6f6c6220 	svcvs	0x006c6220
    a050:	203a6b63 	eorscs	r6, sl, r3, ror #22
    a054:	202e7825 	eorcs	r7, lr, r5, lsr #16
    a058:	65657246 	strbvs	r7, [r5, #-582]!	; 0xfffffdba
    a05c:	2e676e69 	cdpcs	14, 6, cr6, cr7, cr9, {3}
    a060:	0000000a 	andeq	r0, r0, sl
    a064:	43415254 	movtmi	r5, #4692	; 0x1254
    a068:	47093a45 	strmi	r3, [r9, -r5, asr #20]
    a06c:	68433a43 	stmdavs	r3, {r0, r1, r6, r9, fp, ip, sp}^
    a070:	656b6365 	strbvs	r6, [fp, #-869]!	; 0xfffffc9b
    a074:	64252064 	strtvs	r2, [r5], #-100	; 0xffffff9c
    a078:	6f6c6220 	svcvs	0x006c6220
    a07c:	2c736b63 			; <UNDEFINED> instruction: 0x2c736b63
    a080:	65726620 	ldrbvs	r6, [r2, #-1568]!	; 0xfffff9e0
    a084:	25206465 	strcs	r6, [r0, #-1125]!	; 0xfffffb9b
    a088:	25202c64 	strcs	r2, [r0, #-3172]!	; 0xfffff39c
    a08c:	79622064 	stmdbvc	r2!, {r2, r5, r6, sp}^
    a090:	0a736574 	beq	1ce3668 <__bss_end__+0x1cd8c88>
    a094:	00000000 	andeq	r0, r0, r0
    a098:	672d6b63 	strvs	r6, [sp, -r3, ror #22]!
    a09c:	00632e63 	rsbeq	r2, r3, r3, ror #28
    a0a0:	00653c70 	rsbeq	r3, r5, r0, ror ip
    a0a4:	67696c61 	strbvs	r6, [r9, -r1, ror #24]!
    a0a8:	2864656e 	stmdacs	r4!, {r1, r2, r3, r5, r6, r8, sl, sp, lr}^
    a0ac:	29342c70 	ldmdbcs	r4!, {r4, r5, r6, sl, fp, sp}
    a0b0:	00000000 	andeq	r0, r0, r0
    a0b4:	67696c61 	strbvs	r6, [r9, -r1, ror #24]!
    a0b8:	2864656e 	stmdacs	r4!, {r1, r2, r3, r5, r6, r8, sl, sp, lr}^
    a0bc:	29342c65 	ldmdbcs	r4!, {r0, r2, r5, r6, sl, fp, sp}
    a0c0:	00000000 	andeq	r0, r0, r0
    a0c4:	43415254 	movtmi	r5, #4692	; 0x1254
    a0c8:	6e693a45 	vnmulvs.f32	s7, s18, s10
    a0cc:	72627320 	rsbvc	r7, r2, #32, 6	; 0x80000000
    a0d0:	00000a6b 	andeq	r0, r0, fp, ror #20
    a0d4:	72636e69 	rsbvc	r6, r3, #1680	; 0x690
    a0d8:	6e656d65 	cdpvs	13, 6, cr6, cr5, cr5, {3}
    a0dc:	203e2074 	eorscs	r2, lr, r4, ror r0
    a0e0:	00000030 	andeq	r0, r0, r0, lsr r0
    a0e4:	494e4150 	stmdbmi	lr, {r4, r6, r8, lr}^
    a0e8:	73253a43 			; <UNDEFINED> instruction: 0x73253a43
    a0ec:	3a73253a 	bcc	1cd35dc <__bss_end__+0x1cc8bfc>
    a0f0:	6e3a6425 	cdpvs	4, 3, cr6, cr10, cr5, {1}
    a0f4:	6820746f 	stmdavs	r0!, {r0, r1, r2, r3, r5, r6, sl, ip, sp, lr}
    a0f8:	6c646e61 	stclvs	14, cr6, [r4], #-388	; 0xfffffe7c
    a0fc:	0a676e69 	beq	19e5aa8 <__bss_end__+0x19db0c8>
    a100:	0000000a 	andeq	r0, r0, sl
    a104:	43415254 	movtmi	r5, #4692	; 0x1254
    a108:	614d3a45 	cmpvs	sp, r5, asr #20
    a10c:	6e696b72 	vmovvs.8	d9[7], r6
    a110:	2e2e2e67 	cdpcs	14, 2, cr2, cr14, cr7, {3}
    a114:	00000000 	andeq	r0, r0, r0
    a118:	656e6f44 	strbvs	r6, [lr, #-3908]!	; 0xfffff0bc
    a11c:	00000a21 	andeq	r0, r0, r1, lsr #20
    a120:	494e4150 	stmdbmi	lr, {r4, r6, r8, lr}^
    a124:	73253a43 			; <UNDEFINED> instruction: 0x73253a43
    a128:	3a73253a 	bcc	1cd3618 <__bss_end__+0x1cc8c38>
    a12c:	473a6425 	ldrmi	r6, [sl, -r5, lsr #8]!
    a130:	73203a43 			; <UNDEFINED> instruction: 0x73203a43
    a134:	6c756f68 	ldclvs	15, cr6, [r5], #-416	; 0xfffffe60
    a138:	61682064 	cmnvs	r8, r4, rrx
    a13c:	6e206576 	mcrvs	5, 1, r6, cr0, cr6, {3}
    a140:	656c206f 	strbvs	r2, [ip, #-111]!	; 0xffffff91
    a144:	21736b61 	cmncs	r3, r1, ror #22
    a148:	00000a0a 	andeq	r0, r0, sl, lsl #20
    a14c:	43415254 	movtmi	r5, #4692	; 0x1254
    a150:	43473a45 	movtmi	r3, #31301	; 0x7a45
    a154:	5553203a 	ldrbpl	r2, [r3, #-58]	; 0xffffffc6
    a158:	53454343 	movtpl	r4, #21315	; 0x5343
    a15c:	6e203a53 			; <UNDEFINED> instruction: 0x6e203a53
    a160:	656c206f 	strbvs	r2, [ip, #-111]!	; 0xffffff91
    a164:	21736b61 	cmncs	r3, r1, ror #22
    a168:	0000000a 	andeq	r0, r0, sl
    a16c:	494e4150 	stmdbmi	lr, {r4, r6, r8, lr}^
    a170:	73253a43 			; <UNDEFINED> instruction: 0x73253a43
    a174:	3a73253a 	bcc	1cd3664 <__bss_end__+0x1cc8c84>
    a178:	473a6425 	ldrmi	r6, [sl, -r5, lsr #8]!
    a17c:	73203a43 			; <UNDEFINED> instruction: 0x73203a43
    a180:	6c756f68 	ldclvs	15, cr6, [r5], #-416	; 0xfffffe60
    a184:	61682064 	cmnvs	r8, r4, rrx
    a188:	6c206576 	cfstr32vs	mvfx6, [r0], #-472	; 0xfffffe28
    a18c:	736b6165 	cmnvc	fp, #1073741849	; 0x40000019
    a190:	000a0a21 	andeq	r0, sl, r1, lsr #20
    a194:	43415254 	movtmi	r5, #4692	; 0x1254
    a198:	43473a45 	movtmi	r3, #31301	; 0x7a45
    a19c:	5553203a 	ldrbpl	r2, [r3, #-58]	; 0xffffffc6
    a1a0:	53454343 	movtpl	r4, #21315	; 0x5343
    a1a4:	66203a53 			; <UNDEFINED> instruction: 0x66203a53
    a1a8:	646e756f 	strbtvs	r7, [lr], #-1391	; 0xfffffa91
    a1ac:	20642520 	rsbcs	r2, r4, r0, lsr #10
    a1b0:	6b61656c 	blvs	1863768 <__bss_end__+0x1858d88>
    a1b4:	000a2173 	andeq	r2, sl, r3, ror r1
    a1b8:	494e4150 	stmdbmi	lr, {r4, r6, r8, lr}^
    a1bc:	73253a43 			; <UNDEFINED> instruction: 0x73253a43
    a1c0:	3a73253a 	bcc	1cd36b0 <__bss_end__+0x1cc8cd0>
    a1c4:	643a6425 	ldrtvs	r6, [sl], #-1061	; 0xfffffbdb
    a1c8:	6e206469 	cdpvs	4, 2, cr6, cr0, cr9, {3}
    a1cc:	6920746f 	stmdbvs	r0!, {r0, r1, r2, r3, r5, r6, sl, ip, sp, lr}
    a1d0:	656c706d 	strbvs	r7, [ip, #-109]!	; 0xffffff93
    a1d4:	746e656d 	strbtvc	r6, [lr], #-1389	; 0xfffffa93
    a1d8:	6d756420 	cfldrdvs	mvd6, [r5, #-128]!	; 0xffffff80
    a1dc:	65725f70 	ldrbvs	r5, [r2, #-3952]!	; 0xfffff090
    a1e0:	0a217367 	beq	866f84 <__bss_end__+0x85c5a4>
    a1e4:	0000000a 	andeq	r0, r0, sl

0000a1e8 <__FUNCTION__.4033>:
    a1e8:	6b72616d 	blvs	1ca27a4 <__bss_end__+0x1c97dc4>
    a1ec:	00000000 	andeq	r0, r0, r0

0000a1f0 <__FUNCTION__.4020>:
    a1f0:	6b726273 	blvs	1ca2bc4 <__bss_end__+0x1c981e4>
    a1f4:	00000000 	andeq	r0, r0, r0

0000a1f8 <__FUNCTION__.4078>:
    a1f8:	63656863 	cmnvs	r5, #6488064	; 0x630000
    a1fc:	6f6e5f6b 	svcvs	0x006e5f6b
    a200:	61656c5f 	cmnvs	r5, pc, asr ip
    a204:	0000006b 	andeq	r0, r0, fp, rrx

0000a208 <__FUNCTION__.4083>:
    a208:	63656863 	cmnvs	r5, #6488064	; 0x630000
    a20c:	68735f6b 	ldmdavs	r3!, {r0, r1, r3, r5, r6, r8, r9, sl, fp, ip, lr}^
    a210:	646c756f 	strbtvs	r7, [ip], #-1391	; 0xfffffa91
    a214:	61656c5f 	cmnvs	r5, pc, asr ip
    a218:	0000006b 	andeq	r0, r0, fp, rrx

0000a21c <__FUNCTION__.4101>:
    a21c:	6c706d69 	ldclvs	13, cr6, [r0], #-420	; 0xfffffe5c
    a220:	6e656d65 	cdpvs	13, 6, cr6, cr5, cr5, {3}
    a224:	68745f74 	ldmdavs	r4!, {r2, r4, r5, r6, r8, r9, sl, fp, ip, lr}^
    a228:	00007369 	andeq	r7, r0, r9, ror #6
    a22c:	696c2f2e 	stmdbvs	ip!, {r1, r2, r3, r5, r8, r9, sl, fp, sp}^
    a230:	762f6362 	strtvc	r6, [pc], -r2, ror #6
    a234:	72702d61 	rsbsvc	r2, r0, #6208	; 0x1840
    a238:	6b746e69 	blvs	1d25be4 <__bss_end__+0x1d1b204>
    a23c:	0000632e 	andeq	r6, r0, lr, lsr #6
    a240:	33323130 	teqcc	r2, #12
    a244:	37363534 			; <UNDEFINED> instruction: 0x37363534
    a248:	00003938 	andeq	r3, r0, r8, lsr r9
    a24c:	33323130 	teqcc	r2, #12
    a250:	37363534 			; <UNDEFINED> instruction: 0x37363534
    a254:	62613938 	rsbvs	r3, r1, #56, 18	; 0xe0000
    a258:	66656463 	strbtvs	r6, [r5], -r3, ror #8
    a25c:	00000000 	andeq	r0, r0, r0
    a260:	00003130 	andeq	r3, r0, r0, lsr r1
    a264:	63747570 	cmnvs	r4, #112, 10	; 0x1c000000
    a268:	0070665f 	rsbseq	r6, r0, pc, asr r6
    a26c:	74646977 	strbtvc	r6, [r4], #-2423	; 0xfffff689
    a270:	203c2068 	eorscs	r2, ip, r8, rrx
    a274:	00003233 	andeq	r3, r0, r3, lsr r2
    a278:	00786c6c 	rsbseq	r6, r8, ip, ror #24
    a27c:	00646c6c 	rsbeq	r6, r4, ip, ror #24
    a280:	253d3078 	ldrcs	r3, [sp, #-120]!	; 0xffffff88
    a284:	00000a78 	andeq	r0, r0, r8, ror sl
    a288:	253d3178 	ldrcs	r3, [sp, #-376]!	; 0xfffffe88
    a28c:	00000a78 	andeq	r0, r0, r8, ror sl
    a290:	6e727473 	mrcvs	4, 3, r7, cr2, cr3, {3}
    a294:	28706d63 	ldmdacs	r0!, {r0, r1, r5, r6, r8, sl, fp, sp, lr}^
    a298:	202c7974 	eorcs	r7, ip, r4, ror r9
    a29c:	786c6c22 	stmdavc	ip!, {r1, r5, sl, fp, sp, lr}^
    a2a0:	33202c22 			; <UNDEFINED> instruction: 0x33202c22
    a2a4:	3d3d2029 	ldccc	0, cr2, [sp, #-164]!	; 0xffffff5c
    a2a8:	7c203020 	stcvc	0, cr3, [r0], #-128	; 0xffffff80
    a2ac:	7473207c 	ldrbtvc	r2, [r3], #-124	; 0xffffff84
    a2b0:	6d636e72 	stclvs	14, cr6, [r3, #-456]!	; 0xfffffe38
    a2b4:	79742870 	ldmdbvc	r4!, {r4, r5, r6, fp, sp}^
    a2b8:	6c22202c 	stcvs	0, cr2, [r2], #-176	; 0xffffff50
    a2bc:	2c22646c 	cfstrscs	mvf6, [r2], #-432	; 0xfffffe50
    a2c0:	20293320 	eorcs	r3, r9, r0, lsr #6
    a2c4:	30203d3d 	eorcc	r3, r0, sp, lsr sp
    a2c8:	00000000 	andeq	r0, r0, r0
    a2cc:	494e4150 	stmdbmi	lr, {r4, r6, r8, lr}^
    a2d0:	73253a43 			; <UNDEFINED> instruction: 0x73253a43
    a2d4:	3a73253a 	bcc	1cd37c4 <__bss_end__+0x1cc8de4>
    a2d8:	693a6425 	ldmdbvs	sl!, {r0, r2, r5, sl, sp, lr}
    a2dc:	736f706d 	cmnvc	pc, #109, 0	; 0x6d
    a2e0:	6c626973 			; <UNDEFINED> instruction: 0x6c626973
    a2e4:	66203a65 	strtvs	r3, [r0], -r5, ror #20
    a2e8:	3c3d746d 	cfldrscc	mvf7, [sp], #-436	; 0xfffffe4c
    a2ec:	0a3e7325 	beq	fa6f88 <__bss_end__+0xf9c5a8>
    a2f0:	0000000a 	andeq	r0, r0, sl
    a2f4:	494e4150 	stmdbmi	lr, {r4, r6, r8, lr}^
    a2f8:	73253a43 			; <UNDEFINED> instruction: 0x73253a43
    a2fc:	3a73253a 	bcc	1cd37ec <__bss_end__+0x1cc8e0c>
    a300:	663a6425 	ldrtvs	r6, [sl], -r5, lsr #8
    a304:	74616f6c 	strbtvc	r6, [r1], #-3948	; 0xfffff094
    a308:	746f6e20 	strbtvc	r6, [pc], #-3616	; a310 <__FUNCTION__.4101+0xf4>
    a30c:	616e6520 	cmnvs	lr, r0, lsr #10
    a310:	64656c62 	strbtvs	r6, [r5], #-3170	; 0xfffff39e
    a314:	0a212121 	beq	8527a0 <__bss_end__+0x847dc0>
    a318:	00000000 	andeq	r0, r0, r0
    a31c:	6e697270 	mcrvs	2, 3, r7, cr9, cr0, {3}
    a320:	203a6b74 	eorscs	r6, sl, r4, ror fp
    a324:	20746f6e 	rsbscs	r6, r4, lr, ror #30
    a328:	646e6168 	strbtvs	r6, [lr], #-360	; 0xfffffe98
    a32c:	676e696c 	strbvs	r6, [lr, -ip, ror #18]!
    a330:	65707320 	ldrbvs	r7, [r0, #-800]!	; 0xfffffce0
    a334:	69666963 	stmdbvs	r6!, {r0, r1, r5, r6, r8, fp, sp, lr}^
    a338:	27207265 	strcs	r7, [r0, -r5, ror #4]!
    a33c:	20276325 	eorcs	r6, r7, r5, lsr #6
    a340:	63736128 	cmnvs	r3, #10
    a344:	253d6969 	ldrcs	r6, [sp, #-2409]!	; 0xfffff697
    a348:	000a2964 	andeq	r2, sl, r4, ror #18
    a34c:	494e4150 	stmdbmi	lr, {r4, r6, r8, lr}^
    a350:	73253a43 			; <UNDEFINED> instruction: 0x73253a43
    a354:	3a73253a 	bcc	1cd3844 <__bss_end__+0x1cc8e64>
    a358:	703a6425 	eorsvc	r6, sl, r5, lsr #8
    a35c:	746e6972 	strbtvc	r6, [lr], #-2418	; 0xfffff68e
    a360:	7265206b 	rsbvc	r2, r5, #107, 0	; 0x6b
    a364:	0a726f72 	beq	1ca6134 <__bss_end__+0x1c9b754>
    a368:	0000000a 	andeq	r0, r0, sl

0000a36c <__FUNCTION__.4008>:
    a36c:	74696d65 	strbtvc	r6, [r9], #-3429	; 0xfffff29b
    a370:	00000000 	andeq	r0, r0, r0

0000a374 <__FUNCTION__.3956>:
    a374:	5f697072 	svcpl	0x00697072
    a378:	5f746573 	svcpl	0x00746573
    a37c:	7074756f 	rsbsvc	r7, r4, pc, ror #10
    a380:	00007475 	andeq	r7, r0, r5, ror r4

0000a384 <__FUNCTION__.4034>:
    a384:	705f6176 	subsvc	r6, pc, r6, ror r1	; <UNPREDICTABLE>
    a388:	746e6972 	strbtvc	r6, [lr], #-2418	; 0xfffff68e
    a38c:	0000006b 	andeq	r0, r0, fp, rrx
    a390:	454e4f44 	strbmi	r4, [lr, #-3908]	; 0xfffff0bc
    a394:	0a212121 	beq	852820 <__bss_end__+0x847e40>
    a398:	00000000 	andeq	r0, r0, r0
    a39c:	6c616d6b 	stclvs	13, cr6, [r1], #-428	; 0xfffffe54
    a3a0:	2e636f6c 	cdpcs	15, 6, cr6, cr3, cr12, {3}
    a3a4:	00000063 	andeq	r0, r0, r3, rrx
    a3a8:	5f78616d 	svcpl	0x0078616d
    a3ac:	7479626e 	ldrbtvc	r6, [r9], #-622	; 0xfffffd92
    a3b0:	00007365 	andeq	r7, r0, r5, ror #6
    a3b4:	494e4150 	stmdbmi	lr, {r4, r6, r8, lr}^
    a3b8:	73253a43 			; <UNDEFINED> instruction: 0x73253a43
    a3bc:	3a73253a 	bcc	1cd38ac <__bss_end__+0x1cc8ecc>
    a3c0:	733a6425 	teqvc	sl, #620756992	; 0x25000000
    a3c4:	69747465 	ldmdbvs	r4!, {r0, r2, r5, r6, sl, ip, sp, lr}^
    a3c8:	6820676e 	stmdavs	r0!, {r1, r2, r3, r5, r6, r8, r9, sl, sp, lr}
    a3cc:	20706165 	rsbscs	r6, r0, r5, ror #2
    a3d0:	25206f74 	strcs	r6, [r0, #-3956]!	; 0xfffff08c
    a3d4:	77203a70 			; <UNDEFINED> instruction: 0x77203a70
    a3d8:	206c6c69 	rsbcs	r6, ip, r9, ror #24
    a3dc:	20746968 	rsbscs	r6, r4, r8, ror #18
    a3e0:	20656874 	rsbcs	r6, r5, r4, ror r8
    a3e4:	20646c6f 	rsbcs	r6, r4, pc, ror #24
    a3e8:	70616568 	rsbvc	r6, r1, r8, ror #10
    a3ec:	20746120 	rsbscs	r6, r4, r0, lsr #2
    a3f0:	0a0a7025 	beq	2a648c <__bss_end__+0x29baac>
    a3f4:	00000000 	andeq	r0, r0, r0
    a3f8:	494e4150 	stmdbmi	lr, {r4, r6, r8, lr}^
    a3fc:	73253a43 			; <UNDEFINED> instruction: 0x73253a43
    a400:	3a73253a 	bcc	1cd38f0 <__bss_end__+0x1cc8f10>
    a404:	613a6425 	teqvs	sl, r5, lsr #8
    a408:	6165726c 	cmnvs	r5, ip, ror #4
    a40c:	63207964 			; <UNDEFINED> instruction: 0x63207964
    a410:	656c6c61 	strbvs	r6, [ip, #-3169]!	; 0xfffff39f
    a414:	6d6b2064 	stclvs	0, cr2, [fp, #-400]!	; 0xfffffe70
    a418:	6f6c6c61 	svcvs	0x006c6c61
    a41c:	6e695f63 	cdpvs	15, 6, cr5, cr9, cr3, {3}
    a420:	0a0a7469 	beq	2a75cc <__bss_end__+0x29cbec>
    a424:	00000000 	andeq	r0, r0, r0
    a428:	494e4150 	stmdbmi	lr, {r4, r6, r8, lr}^
    a42c:	73253a43 			; <UNDEFINED> instruction: 0x73253a43
    a430:	3a73253a 	bcc	1cd3920 <__bss_end__+0x1cc8f40>
    a434:	253a6425 	ldrcs	r6, [sl, #-1061]!	; 0xfffffbdb
    a438:	626e2064 	rsbvs	r2, lr, #100, 0	; 0x64
    a43c:	73657479 	cmnvc	r5, #2030043136	; 0x79000000
    a440:	63786520 	cmnvs	r8, #32, 10	; 0x8000000
    a444:	65646565 	strbvs	r6, [r4, #-1381]!	; 0xfffffa9b
    a448:	69732064 	ldmdbvs	r3!, {r2, r5, r6, sp}^
    a44c:	6f20657a 	svcvs	0x0020657a
    a450:	65682066 	strbvs	r2, [r8, #-102]!	; 0xffffff9a
    a454:	62207061 	eorvs	r7, r0, #97, 0	; 0x61
    a458:	75252079 	strvc	r2, [r5, #-121]!	; 0xffffff87
    a45c:	79626e20 	stmdbvc	r2!, {r5, r9, sl, fp, sp, lr}^
    a460:	0a736574 	beq	1ce3a38 <__bss_end__+0x1cd9058>
    a464:	0000000a 	andeq	r0, r0, sl
    a468:	4f525245 	svcmi	0x00525245
    a46c:	73253a52 			; <UNDEFINED> instruction: 0x73253a52
    a470:	3a73253a 	bcc	1cd3960 <__bss_end__+0x1cc8f80>
    a474:	203a6425 	eorscs	r6, sl, r5, lsr #8
    a478:	534c4146 	movtpl	r4, #49478	; 0xc146
    a47c:	253c2845 	ldrcs	r2, [ip, #-2117]!	; 0xfffff7bb
    a480:	3a293e73 	bcc	a59e54 <__bss_end__+0xa4f474>
    a484:	73736120 	cmnvc	r3, #8
    a488:	6e696d75 	mcrvs	13, 3, r6, cr9, cr5, {3}
    a48c:	6f702067 	svcvs	0x00702067
    a490:	20726577 	rsbscs	r6, r2, r7, ror r5
    a494:	7420666f 	strtvc	r6, [r0], #-1647	; 0xfffff991
    a498:	000a6f77 	andeq	r6, sl, r7, ror pc
    a49c:	705f7369 	subsvc	r7, pc, r9, ror #6
    a4a0:	2832776f 	ldmdacs	r2!, {r0, r1, r2, r3, r5, r6, r8, r9, sl, ip, sp, lr}
    a4a4:	67696c61 	strbvs	r6, [r9, -r1, ror #24]!
    a4a8:	6e656d6e 	cdpvs	13, 6, cr6, cr5, cr14, {3}
    a4ac:	00002974 	andeq	r2, r0, r4, ror r9
    a4b0:	705f7369 	subsvc	r7, pc, r9, ror #6
    a4b4:	2832776f 	ldmdacs	r2!, {r0, r1, r2, r3, r5, r6, r8, r9, sl, ip, sp, lr}
    a4b8:	0000296e 	andeq	r2, r0, lr, ror #18
    a4bc:	4f525245 	svcmi	0x00525245
    a4c0:	73253a52 			; <UNDEFINED> instruction: 0x73253a52
    a4c4:	3a73253a 	bcc	1cd39b4 <__bss_end__+0x1cc8fd4>
    a4c8:	203a6425 	eorscs	r6, sl, r5, lsr #8
    a4cc:	534c4146 	movtpl	r4, #49478	; 0xc146
    a4d0:	253c2845 	ldrcs	r2, [ip, #-2117]!	; 0xfffff7bb
    a4d4:	3a293e73 	bcc	a59ea8 <__bss_end__+0xa4f4c8>
    a4d8:	706d6920 	rsbvc	r6, sp, r0, lsr #18
    a4dc:	6973736f 	ldmdbvs	r3!, {r0, r1, r2, r3, r5, r6, r8, r9, ip, sp, lr}^
    a4e0:	0a656c62 	beq	1965670 <__bss_end__+0x195ac90>
    a4e4:	00000000 	andeq	r0, r0, r0
    a4e8:	615f7369 	cmpvs	pc, r9, ror #6
    a4ec:	6e67696c 	vnmulvs.f16	s13, s14, s25	; <UNPREDICTABLE>
    a4f0:	68286465 	stmdavs	r8!, {r0, r2, r5, r6, sl, sp, lr}
    a4f4:	6c61202c 	stclvs	0, cr2, [r1], #-176	; 0xffffff50
    a4f8:	6d6e6769 	stclvs	7, cr6, [lr, #-420]!	; 0xfffffe5c
    a4fc:	29746e65 	ldmdbcs	r4!, {r0, r2, r5, r6, r9, sl, fp, sp, lr}^
    a500:	00000000 	andeq	r0, r0, r0
    a504:	494e4150 	stmdbmi	lr, {r4, r6, r8, lr}^
    a508:	73253a43 			; <UNDEFINED> instruction: 0x73253a43
    a50c:	3a73253a 	bcc	1cd39fc <__bss_end__+0x1cc901c>
    a510:	703a6425 	eorsvc	r6, sl, r5, lsr #8
    a514:	746e696f 	strbtvc	r6, [lr], #-2415	; 0xfffff691
    a518:	25207265 	strcs	r7, [r0, #-613]!	; 0xfffffd9b
    a51c:	61772070 	cmnvs	r7, r0, ror r0
    a520:	656e2073 	strbvs	r2, [lr, #-115]!	; 0xffffff8d
    a524:	20726576 	rsbscs	r6, r2, r6, ror r5
    a528:	6f6c6c61 	svcvs	0x006c6c61
    a52c:	65746163 	ldrbvs	r6, [r4, #-355]!	; 0xfffffe9d
    a530:	000a0a64 	andeq	r0, sl, r4, ror #20

0000a534 <__FUNCTION__.7>:
    a534:	6c616d6b 	stclvs	13, cr6, [r1], #-428	; 0xfffffe54
    a538:	5f636f6c 	svcpl	0x00636f6c
    a53c:	74696e69 	strbtvc	r6, [r9], #-3689	; 0xfffff197
    a540:	7465735f 	strbtvc	r7, [r5], #-863	; 0xfffffca1
    a544:	6174735f 	cmnvs	r4, pc, asr r3
    a548:	00007472 	andeq	r7, r0, r2, ror r4

0000a54c <__FUNCTION__.5>:
    a54c:	6c616d6b 	stclvs	13, cr6, [r1], #-428	; 0xfffffe54
    a550:	5f636f6c 	svcpl	0x00636f6c
    a554:	74696e69 	strbtvc	r6, [r9], #-3689	; 0xfffff197
    a558:	00000000 	andeq	r0, r0, r0

0000a55c <__FUNCTION__.4>:
    a55c:	6c616d6b 	stclvs	13, cr6, [r1], #-428	; 0xfffffe54
    a560:	5f636f6c 	svcpl	0x00636f6c
    a564:	7a746f6e 	bvc	1d26324 <__bss_end__+0x1d1b944>
    a568:	006f7265 	rsbeq	r7, pc, r5, ror #4

0000a56c <__FUNCTION__.2>:
    a56c:	6c616d6b 	stclvs	13, cr6, [r1], #-428	; 0xfffffe54
    a570:	00636f6c 	rsbeq	r6, r3, ip, ror #30

0000a574 <__FUNCTION__.1>:
    a574:	6c616d6b 	stclvs	13, cr6, [r1], #-428	; 0xfffffe54
    a578:	5f636f6c 	svcpl	0x00636f6c
    a57c:	67696c61 	strbvs	r6, [r9, -r1, ror #24]!
    a580:	0064656e 	rsbeq	r6, r4, lr, ror #10

0000a584 <__FUNCTION__.3>:
    a584:	6e756f72 	mrcvs	15, 3, r6, cr5, cr2, {3}
    a588:	00707564 	rsbseq	r7, r0, r4, ror #10

0000a58c <__FUNCTION__.0>:
    a58c:	6572666b 	ldrbvs	r6, [r2, #-1643]!	; 0xfffff995
    a590:	6f705f65 	svcvs	0x00705f65
    a594:	Address 0x000000000000a594 is out of bounds.


Disassembly of section .data:

0000a598 <putk>:
    a598:	00008ca4 	andeq	r8, r0, r4, lsr #25

0000a59c <heap_end>:
    a59c:	0020a9e0 	eoreq	sl, r0, r0, ror #19

0000a5a0 <heap_start>:
    a5a0:	0000a9e0 	andeq	sl, r0, r0, ror #19

0000a5a4 <heap>:
    a5a4:	0000a9e0 	andeq	sl, r0, r0, ror #19

0000a5a8 <rpi_putchar>:
    a5a8:	00009b28 	andeq	r9, r0, r8, lsr #22

Disassembly of section .bss:

0000a5b0 <__bss_start__>:
    a5b0:	00000000 	andeq	r0, r0, r0

0000a5b4 <alloc_list>:
    a5b4:	00000000 	andeq	r0, r0, r0

0000a5b8 <heap_start>:
    a5b8:	00000000 	andeq	r0, r0, r0

0000a5bc <heap_end>:
    a5bc:	00000000 	andeq	r0, r0, r0

0000a5c0 <init_p>:
	...

0000a5c8 <freep>:
	...

0000a5d0 <base>:
	...

0000a5d8 <buf.3948>:
	...

0000a9d8 <init_p.6>:
    a9d8:	00000000 	andeq	r0, r0, r0

0000a9dc <global_p>:
    a9dc:	00000000 	andeq	r0, r0, r0

Disassembly of section .ARM.attributes:

00000000 <.ARM.attributes>:
   0:	00002a41 	andeq	r2, r0, r1, asr #20
   4:	61656100 	cmnvs	r5, r0, lsl #2
   8:	01006962 	tsteq	r0, r2, ror #18
   c:	00000020 	andeq	r0, r0, r0, lsr #32
  10:	4b5a3605 	blmi	168d82c <__bss_end__+0x1682e4c>
  14:	08070600 	stmdaeq	r7, {r9, sl}
  18:	12010901 	andne	r0, r1, #16384	; 0x4000
  1c:	15011404 	strne	r1, [r1, #-1028]	; 0xfffffbfc
  20:	18031701 	stmdane	r3, {r0, r8, r9, sl, ip}
  24:	22011a01 	andcs	r1, r1, #4096	; 0x1000
  28:	Address 0x0000000000000028 is out of bounds.


Disassembly of section .comment:

00000000 <.comment>:
   0:	3a434347 	bcc	10d0d24 <__bss_end__+0x10c6344>
   4:	4e472820 	cdpmi	8, 4, cr2, cr7, cr0, {1}
   8:	6f542055 	svcvs	0x00542055
   c:	20736c6f 	rsbscs	r6, r3, pc, ror #24
  10:	20726f66 	rsbscs	r6, r2, r6, ror #30
  14:	206d7241 	rsbcs	r7, sp, r1, asr #4
  18:	65626d45 	strbvs	r6, [r2, #-3397]!	; 0xfffff2bb
  1c:	64656464 	strbtvs	r6, [r5], #-1124	; 0xfffffb9c
  20:	6f725020 	svcvs	0x00725020
  24:	73736563 	cmnvc	r3, #415236096	; 0x18c00000
  28:	2073726f 	rsbscs	r7, r3, pc, ror #4
  2c:	30322d39 	eorscc	r2, r2, r9, lsr sp
  30:	712d3931 			; <UNDEFINED> instruction: 0x712d3931
  34:	616d2d34 	cmnvs	sp, r4, lsr sp
  38:	29726f6a 	ldmdbcs	r2!, {r1, r3, r5, r6, r8, r9, sl, fp, sp, lr}^
  3c:	322e3920 	eorcc	r3, lr, #32, 18	; 0x80000
  40:	3220312e 	eorcc	r3, r0, #-2147483637	; 0x8000000b
  44:	31393130 	teqcc	r9, r0, lsr r1
  48:	20353230 	eorscs	r3, r5, r0, lsr r2
  4c:	6c657228 	sfmvs	f7, 2, [r5], #-160	; 0xffffff60
  50:	65736165 	ldrbvs	r6, [r3, #-357]!	; 0xfffffe9b
  54:	415b2029 	cmpmi	fp, r9, lsr #32
  58:	612f4d52 			; <UNDEFINED> instruction: 0x612f4d52
  5c:	392d6d72 	pushcc	{r1, r4, r5, r6, r8, sl, fp, sp, lr}
  60:	6172622d 	cmnvs	r2, sp, lsr #4
  64:	2068636e 	rsbcs	r6, r8, lr, ror #6
  68:	69766572 	ldmdbvs	r6!, {r1, r4, r5, r6, r8, sl, sp, lr}^
  6c:	6e6f6973 			; <UNDEFINED> instruction: 0x6e6f6973
  70:	37373220 	ldrcc	r3, [r7, -r0, lsr #4]!
  74:	5d393935 			; <UNDEFINED> instruction: 0x5d393935
  78:	43434700 	movtmi	r4, #14080	; 0x3700
  7c:	4728203a 			; <UNDEFINED> instruction: 0x4728203a
  80:	4120554e 			; <UNDEFINED> instruction: 0x4120554e
  84:	45206d72 	strmi	r6, [r0, #-3442]!	; 0xfffff28e
  88:	6465626d 	strbtvs	r6, [r5], #-621	; 0xfffffd93
  8c:	20646564 	rsbcs	r6, r4, r4, ror #10
  90:	6c6f6f54 	stclvs	15, cr6, [pc], #-336	; ffffff48 <__bss_end__+0xffff5568>
  94:	69616863 	stmdbvs	r1!, {r0, r1, r5, r6, fp, sp, lr}^
  98:	3031206e 	eorscc	r2, r1, lr, rrx
  9c:	322d332e 	eorcc	r3, sp, #-1207959552	; 0xb8000000
  a0:	2e313230 	mrccs	2, 1, r3, cr1, cr0, {1}
  a4:	20293031 	eorcs	r3, r9, r1, lsr r0
  a8:	332e3031 			; <UNDEFINED> instruction: 0x332e3031
  ac:	3220312e 	eorcc	r3, r0, #-2147483637	; 0x8000000b
  b0:	30313230 	eorscc	r3, r1, r0, lsr r2
  b4:	20343238 	eorscs	r3, r4, r8, lsr r2
  b8:	6c657228 	sfmvs	f7, 2, [r5], #-160	; 0xffffff60
  bc:	65736165 	ldrbvs	r6, [r3, #-357]!	; 0xfffffe9b
  c0:	Address 0x00000000000000c0 is out of bounds.


Disassembly of section .debug_info:

00000000 <.debug_info>:
       0:	000003da 	ldrdeq	r0, [r0], -sl
       4:	00000004 	andeq	r0, r0, r4
       8:	01040000 	mrseq	r0, (UNDEF: 4)
       c:	00000190 	muleq	r0, r0, r1
      10:	00017c0c 	andeq	r7, r1, ip, lsl #24
      14:	0000e400 	andeq	lr, r0, r0, lsl #8
      18:	00803800 	addeq	r3, r0, r0, lsl #16
      1c:	0000cc00 	andeq	ip, r0, r0, lsl #24
      20:	00000000 	andeq	r0, r0, r0
      24:	05040200 	streq	r0, [r4, #-512]	; 0xfffffe00
      28:	00746e69 	rsbseq	r6, r4, r9, ror #28
      2c:	bd070403 	cfstrslt	mvf0, [r7, #-12]
      30:	03000000 	movweq	r0, #0
      34:	004f0601 	subeq	r0, pc, r1, lsl #12
      38:	02030000 	andeq	r0, r3, #0, 0
      3c:	00015605 	andeq	r5, r1, r5, lsl #12
      40:	05040300 	streq	r0, [r4, #-768]	; 0xfffffd00
      44:	00000141 	andeq	r0, r0, r1, asr #2
      48:	3c050803 	stccc	8, cr0, [r5], {3}
      4c:	03000001 	movweq	r0, #1
      50:	004d0801 	subeq	r0, sp, r1, lsl #16
      54:	6a040000 	bvs	10005c <__bss_end__+0xf567c>
      58:	03000001 	movweq	r0, #1
      5c:	00621931 	rsbeq	r1, r2, r1, lsr r9
      60:	02030000 	andeq	r0, r3, #0, 0
      64:	00005b07 	andeq	r5, r0, r7, lsl #22
      68:	01730400 	cmneq	r3, r0, lsl #8
      6c:	34030000 	strcc	r0, [r3], #-0
      70:	00007519 	andeq	r7, r0, r9, lsl r5
      74:	07040300 	streq	r0, [r4, -r0, lsl #6]
      78:	000000b8 	strheq	r0, [r0], -r8
      7c:	b3070803 	movwlt	r0, #30723	; 0x7803
      80:	05000000 	streq	r0, [r0, #-0]
      84:	00000025 	andeq	r0, r0, r5, lsr #32
      88:	00000092 	muleq	r0, r2, r0
      8c:	00002506 	andeq	r2, r0, r6, lsl #10
      90:	4a070000 	bmi	1c0098 <__bss_end__+0x1b56b8>
      94:	04000001 	streq	r0, [r0], #-1
      98:	009e0e1c 	addseq	r0, lr, ip, lsl lr
      9c:	04080000 	streq	r0, [r8], #-0
      a0:	00000083 	andeq	r0, r0, r3, lsl #1
      a4:	00002505 	andeq	r2, r0, r5, lsl #10
      a8:	0000b300 	andeq	fp, r0, r0, lsl #6
      ac:	00b30600 	adcseq	r0, r3, r0, lsl #12
      b0:	08000000 	stmdaeq	r0, {}	; <UNPREDICTABLE>
      b4:	0000c004 	andeq	ip, r0, r4
      b8:	08010300 	stmdaeq	r1, {r8, r9}
      bc:	00000056 	andeq	r0, r0, r6, asr r0
      c0:	0000b909 	andeq	fp, r0, r9, lsl #18
      c4:	06590700 	ldrbeq	r0, [r9], -r0, lsl #14
      c8:	21040000 	mrscs	r0, (UNDEF: 4)
      cc:	0000d10e 	andeq	sp, r0, lr, lsl #2
      d0:	a4040800 	strge	r0, [r4], #-2048	; 0xfffff800
      d4:	0a000000 	beq	dc <__code_start__-0x7f24>
      d8:	0904020c 	stmdbeq	r4, {r2, r3, r9}
      dc:	00000108 	andeq	r0, r0, r8, lsl #2
      e0:	0000480b 	andeq	r4, r0, fp, lsl #16
      e4:	11060200 	mrsne	r0, LR_usr
      e8:	000000b3 	strheq	r0, [r0], -r3
      ec:	00870b00 	addeq	r0, r7, r0, lsl #22
      f0:	07020000 	streq	r0, [r2, -r0]
      f4:	0000b311 	andeq	fp, r0, r1, lsl r3
      f8:	190b0400 	stmdbne	fp, {sl}
      fc:	02000000 	andeq	r0, r0, #0, 0
     100:	002c0e08 	eoreq	r0, ip, r8, lsl #28
     104:	00080000 	andeq	r0, r8, r0
     108:	00016004 	andeq	r6, r1, r4
     10c:	03090200 	movweq	r0, #37376	; 0x9200
     110:	000000d7 	ldrdeq	r0, [r0], -r7
     114:	00006e0c 	andeq	r6, r0, ip, lsl #28
     118:	0f052400 	svceq	0x00052400
     11c:	00018a10 	andeq	r8, r1, r0, lsl sl
     120:	00060b00 	andeq	r0, r6, r0, lsl #22
     124:	10050000 	andne	r0, r5, r0
     128:	00018a14 	andeq	r8, r1, r4, lsl sl
     12c:	3b0b0000 	blcc	2c0134 <__bss_end__+0x2b5754>
     130:	05000000 	streq	r0, [r0, #-0]
     134:	00690e11 	rsbeq	r0, r9, r1, lsl lr
     138:	0b040000 	bleq	100140 <__bss_end__+0xf5760>
     13c:	00000013 	andeq	r0, r0, r3, lsl r0
     140:	690e1205 	stmdbvs	lr, {r0, r2, r9, ip}
     144:	08000000 	stmdaeq	r0, {}	; <UNPREDICTABLE>
     148:	0000ca0b 	andeq	ip, r0, fp, lsl #20
     14c:	0f140500 	svceq	0x00140500
     150:	00000108 	andeq	r0, r0, r8, lsl #2
     154:	02540b0c 	subseq	r0, r4, #12, 22	; 0x3000
     158:	17050000 	strne	r0, [r5, -r0]
     15c:	0000690e 	andeq	r6, r0, lr, lsl #18
     160:	6c0b1800 	stcvs	8, cr1, [fp], {-0}
     164:	05000002 	streq	r0, [r0, #-2]
     168:	00690e18 	rsbeq	r0, r9, r8, lsl lr
     16c:	0b1c0000 	bleq	700174 <__bss_end__+0x6f5794>
     170:	00000020 	andeq	r0, r0, r0, lsr #32
     174:	560e1a05 	strpl	r1, [lr], -r5, lsl #20
     178:	20000000 	andcs	r0, r0, r0
     17c:	0000dd0b 	andeq	sp, r0, fp, lsl #26
     180:	0b1b0500 	bleq	6c1588 <__bss_end__+0x6b6ba8>
     184:	00000056 	andeq	r0, r0, r6, asr r0
     188:	04080022 	streq	r0, [r8], #-34	; 0xffffffde
     18c:	00000114 	andeq	r0, r0, r4, lsl r1
     190:	00000004 	andeq	r0, r0, r4
     194:	031c0500 	tsteq	ip, #0, 10
     198:	00000114 	andeq	r0, r0, r4, lsl r1
     19c:	0000990d 	andeq	r9, r0, sp, lsl #18
     1a0:	0f1e0500 	svceq	0x001e0500
     1a4:	000001a8 	andeq	r0, r0, r8, lsr #3
     1a8:	01900408 	orrseq	r0, r0, r8, lsl #8
     1ac:	a40e0000 	strge	r0, [lr], #-0
     1b0:	05000000 	streq	r0, [r0, #-0]
     1b4:	01a80f1f 			; <UNDEFINED> instruction: 0x01a80f1f
     1b8:	0f000000 	svceq	0x00000000
     1bc:	00d41004 	sbcseq	r1, r4, r4
     1c0:	15010000 	strne	r0, [r1, #-0]
     1c4:	0001cf07 	andeq	ip, r1, r7, lsl #30
     1c8:	dc030500 	cfstr32le	mvfx0, [r3], {-0}
     1cc:	080000a9 	stmdaeq	r0, {r0, r3, r5, r7}
     1d0:	0000b904 	andeq	fp, r0, r4, lsl #18
     1d4:	00251100 	eoreq	r1, r5, r0, lsl #2
     1d8:	26010000 	strcs	r0, [r1], -r0
     1dc:	0080dc06 	addeq	sp, r0, r6, lsl #24
     1e0:	00002800 	andeq	r2, r0, r0, lsl #16
     1e4:	1f9c0100 	svcne	0x009c0100
     1e8:	12000002 	andne	r0, r0, #2, 0
     1ec:	000080e8 	andeq	r8, r0, r8, ror #1
     1f0:	000003a4 	andeq	r0, r0, r4, lsr #7
     1f4:	00000202 	andeq	r0, r0, r2, lsl #4
     1f8:	05500113 	ldrbeq	r0, [r0, #-275]	; 0xfffffeed
     1fc:	009d8403 	addseq	r8, sp, r3, lsl #8
     200:	ec140000 	ldc	0, cr0, [r4], {-0}
     204:	1f000080 	svcne	0x00000080
     208:	15000002 	strne	r0, [r0, #-2]
     20c:	000080f8 	strdeq	r8, [r0], -r8	; <UNPREDICTABLE>
     210:	000003a4 	andeq	r0, r0, r4, lsr #7
     214:	05500113 	ldrbeq	r0, [r0, #-275]	; 0xfffffeed
     218:	009dcc03 	addseq	ip, sp, r3, lsl #24
     21c:	16000000 	strne	r0, [r0], -r0
     220:	000000ae 	andeq	r0, r0, lr, lsr #1
     224:	bb081601 	bllt	205a30 <__bss_end__+0x1fb050>
     228:	38000001 	stmdacc	r0, {r0}
     22c:	a4000080 	strge	r0, [r0], #-128	; 0xffffff80
     230:	01000000 	mrseq	r0, (UNDEF: 0)
     234:	0003599c 	muleq	r3, ip, r9
     238:	02450700 	subeq	r0, r5, #0, 14
     23c:	17010000 	strne	r0, [r1, -r0]
     240:	00006912 	andeq	r6, r0, r2, lsl r9
     244:	025f0700 	subseq	r0, pc, #0, 14
     248:	17010000 	strne	r0, [r1, -r0]
     24c:	00006922 	andeq	r6, r0, r2, lsr #18
     250:	008c1700 	addeq	r1, ip, r0, lsl #14
     254:	03690000 	cmneq	r9, #0, 0
     258:	03050000 	movweq	r0, #20480	; 0x5000
     25c:	00009ddc 	ldrdeq	r9, [r0], -ip
     260:	01007018 	tsteq	r0, r8, lsl r0
     264:	01bb0b1d 			; <UNDEFINED> instruction: 0x01bb0b1d
     268:	00060000 	andeq	r0, r6, r0
     26c:	00000000 	andeq	r0, r0, r0
     270:	6e190000 	cdpvs	0, 1, cr0, cr9, cr0, {0}
     274:	58000003 	stmdapl	r0, {r0, r1}
     278:	01000080 	smlabbeq	r0, r0, r0, r0
     27c:	00008058 	andeq	r8, r0, r8, asr r0
     280:	00000018 	andeq	r0, r0, r8, lsl r0
     284:	b3101a01 	tstlt	r0, #4096	; 0x1000
     288:	1a000002 	bne	298 <__code_start__-0x7d68>
     28c:	00000397 	muleq	r0, r7, r3
     290:	00000031 	andeq	r0, r0, r1, lsr r0
     294:	0000002f 	andeq	r0, r0, pc, lsr #32
     298:	00038b1a 	andeq	r8, r3, sl, lsl fp
     29c:	00004700 	andeq	r4, r0, r0, lsl #14
     2a0:	00004500 	andeq	r4, r0, r0, lsl #10
     2a4:	037f1a00 	cmneq	pc, #0, 20
     2a8:	00610000 	rsbeq	r0, r1, r0
     2ac:	005f0000 	subseq	r0, pc, r0
     2b0:	19000000 	stmdbne	r0, {}	; <UNPREDICTABLE>
     2b4:	0000036e 	andeq	r0, r0, lr, ror #6
     2b8:	00008090 	muleq	r0, r0, r0
     2bc:	00809001 	addeq	r9, r0, r1
     2c0:	00001000 	andeq	r1, r0, r0
     2c4:	0e1d0100 	mufeqe	f0, f5, f0
     2c8:	000002f4 	strdeq	r0, [r0], -r4
     2cc:	0003971a 	andeq	r9, r3, sl, lsl r7
     2d0:	00007b00 	andeq	r7, r0, r0, lsl #22
     2d4:	00007900 	andeq	r7, r0, r0, lsl #18
     2d8:	038b1a00 	orreq	r1, fp, #0, 20
     2dc:	00910000 	addseq	r0, r1, r0
     2e0:	008f0000 	addeq	r0, pc, r0
     2e4:	7f1a0000 	svcvc	0x001a0000
     2e8:	ab000003 	blge	2fc <__code_start__-0x7d04>
     2ec:	a9000000 	stmdbge	r0, {}	; <UNPREDICTABLE>
     2f0:	00000000 	andeq	r0, r0, r0
     2f4:	00805812 	addeq	r5, r0, r2, lsl r8
     2f8:	0003a400 	andeq	sl, r3, r0, lsl #8
     2fc:	00031100 	andeq	r1, r3, r0, lsl #2
     300:	50011300 	andpl	r1, r1, r0, lsl #6
     304:	9d480305 	stclls	3, cr0, [r8, #-20]	; 0xffffffec
     308:	01130000 	tsteq	r3, r0
     30c:	00760251 	rsbseq	r0, r6, r1, asr r2
     310:	80801200 	addhi	r1, r0, r0, lsl #4
     314:	03b90000 			; <UNDEFINED> instruction: 0x03b90000
     318:	03240000 			; <UNDEFINED> instruction: 0x03240000
     31c:	01130000 	tsteq	r3, r0
     320:	00340150 	eorseq	r0, r4, r0, asr r1
     324:	00809012 	addeq	r9, r0, r2, lsl r0
     328:	0003c500 	andeq	ip, r3, r0, lsl #10
     32c:	00033c00 	andeq	r3, r3, r0, lsl #24
     330:	51011300 	mrspl	r1, SP_irq
     334:	01133001 	tsteq	r3, r1
     338:	00340152 	eorseq	r0, r4, r2, asr r1
     33c:	0080b012 	addeq	fp, r0, r2, lsl r0
     340:	0003b900 	andeq	fp, r3, r0, lsl #18
     344:	00034f00 	andeq	r4, r3, r0, lsl #30
     348:	50011300 	andpl	r1, r1, r0, lsl #6
     34c:	14003401 	strne	r3, [r0], #-1025	; 0xfffffbff
     350:	000080b8 	strheq	r8, [r0], -r8	; <UNPREDICTABLE>
     354:	000003d1 	ldrdeq	r0, [r0], -r1
     358:	00c01b00 	sbceq	r1, r0, r0, lsl #22
     35c:	03690000 	cmneq	r9, #0, 0
     360:	2c1c0000 	ldccs	0, cr0, [ip], {-0}
     364:	04000000 	streq	r0, [r0], #-0
     368:	03590900 	cmpeq	r9, #0, 18
     36c:	751d0000 	ldrvc	r0, [sp, #-0]
     370:	02000000 	andeq	r0, r0, #0, 0
     374:	01080b0c 	tsteq	r8, ip, lsl #22
     378:	a4030000 	strge	r0, [r3], #-0
     37c:	1e000003 	cdpne	0, 0, cr0, cr0, cr3, {0}
     380:	00000048 	andeq	r0, r0, r8, asr #32
     384:	b3220c02 			; <UNDEFINED> instruction: 0xb3220c02
     388:	1e000000 	cdpne	0, 0, cr0, cr0, cr0, {0}
     38c:	00000087 	andeq	r0, r0, r7, lsl #1
     390:	b3340c02 	teqlt	r4, #512	; 0x200
     394:	1e000000 	cdpne	0, 0, cr0, cr0, cr0, {0}
     398:	00000019 	andeq	r0, r0, r9, lsl r0
     39c:	2c430c02 	mcrrcs	12, 0, r0, r3, cr2
     3a0:	00000000 	andeq	r0, r0, r0
     3a4:	00061b1f 	andeq	r1, r6, pc, lsl fp
     3a8:	00061b00 	andeq	r1, r6, r0, lsl #22
     3ac:	06280400 	strteq	r0, [r8], -r0, lsl #8
     3b0:	059e0720 	ldreq	r0, [lr, #1824]	; 0x720
     3b4:	74736574 	ldrbtvc	r6, [r3], #-1396	; 0xfffffa8c
     3b8:	000b1f00 	andeq	r1, fp, r0, lsl #30
     3bc:	000b0000 	andeq	r0, fp, r0
     3c0:	39050000 	stmdbcc	r5, {}	; <UNPREDICTABLE>
     3c4:	00801f08 	addeq	r1, r0, r8, lsl #30
     3c8:	00800000 	addeq	r0, r0, r0
     3cc:	f7040000 			; <UNDEFINED> instruction: 0xf7040000
     3d0:	002d1f07 	eoreq	r1, sp, r7, lsl #30
     3d4:	002d0000 	eoreq	r0, sp, r0
     3d8:	5d050000 	stcpl	0, cr0, [r5, #-0]
     3dc:	08bf0006 	ldmeq	pc!, {r1, r2}	; <UNPREDICTABLE>
     3e0:	00040000 	andeq	r0, r4, r0
     3e4:	000001d7 	ldrdeq	r0, [r0], -r7
     3e8:	01900104 	orrseq	r0, r0, r4, lsl #2
     3ec:	f70c0000 			; <UNDEFINED> instruction: 0xf70c0000
     3f0:	e4000002 	str	r0, [r0], #-2
     3f4:	04000000 	streq	r0, [r0], #-0
     3f8:	ac000081 	stcge	0, cr0, [r0], {129}	; 0x81
     3fc:	7b000003 	blvc	410 <__code_start__-0x7bf0>
     400:	02000001 	andeq	r0, r0, #1, 0
     404:	6e690504 	cdpvs	5, 6, cr0, cr9, cr4, {0}
     408:	04030074 	streq	r0, [r3], #-116	; 0xffffff8c
     40c:	0000bd07 	andeq	fp, r0, r7, lsl #26
     410:	06010300 	streq	r0, [r1], -r0, lsl #6
     414:	0000004f 	andeq	r0, r0, pc, asr #32
     418:	56050203 	strpl	r0, [r5], -r3, lsl #4
     41c:	03000001 	movweq	r0, #1
     420:	01410504 	cmpeq	r1, r4, lsl #10
     424:	08030000 	stmdaeq	r3, {}	; <UNPREDICTABLE>
     428:	00013c05 	andeq	r3, r1, r5, lsl #24
     42c:	08010300 	stmdaeq	r1, {r8, r9}
     430:	0000004d 	andeq	r0, r0, sp, asr #32
     434:	00016a04 	andeq	r6, r1, r4, lsl #20
     438:	19310300 	ldmdbne	r1!, {r8, r9}
     43c:	00000062 	andeq	r0, r0, r2, rrx
     440:	5b070203 	blpl	1c0c54 <__bss_end__+0x1b6274>
     444:	04000000 	streq	r0, [r0], #-0
     448:	00000173 	andeq	r0, r0, r3, ror r1
     44c:	75193403 	ldrvc	r3, [r9, #-1027]	; 0xfffffbfd
     450:	03000000 	movweq	r0, #0
     454:	00b80704 	adcseq	r0, r8, r4, lsl #14
     458:	08030000 	stmdaeq	r3, {}	; <UNPREDICTABLE>
     45c:	0000b307 	andeq	fp, r0, r7, lsl #6
     460:	00250500 	eoreq	r0, r5, r0, lsl #10
     464:	00920000 	addseq	r0, r2, r0
     468:	25060000 	strcs	r0, [r6, #-0]
     46c:	00000000 	andeq	r0, r0, r0
     470:	00014a07 	andeq	r4, r1, r7, lsl #20
     474:	0e1c0400 	cfmulseq	mvf0, mvf12, mvf0
     478:	0000009e 	muleq	r0, lr, r0
     47c:	00830408 	addeq	r0, r3, r8, lsl #8
     480:	25050000 	strcs	r0, [r5, #-0]
     484:	b3000000 	movwlt	r0, #0
     488:	06000000 	streq	r0, [r0], -r0
     48c:	000000b3 	strheq	r0, [r0], -r3
     490:	c0040800 	andgt	r0, r4, r0, lsl #16
     494:	03000000 	movweq	r0, #0
     498:	00560801 	subseq	r0, r6, r1, lsl #16
     49c:	b9090000 	stmdblt	r9, {}	; <UNPREDICTABLE>
     4a0:	07000000 	streq	r0, [r0, -r0]
     4a4:	00000659 	andeq	r0, r0, r9, asr r6
     4a8:	d10e2104 	tstle	lr, r4, lsl #2
     4ac:	08000000 	stmdaeq	r0, {}	; <UNPREDICTABLE>
     4b0:	0000a404 	andeq	sl, r0, r4, lsl #8
     4b4:	050c0a00 	streq	r0, [ip, #-2560]	; 0xfffff600
     4b8:	01080904 	tsteq	r8, r4, lsl #18
     4bc:	480b0000 	stmdami	fp, {}	; <UNPREDICTABLE>
     4c0:	05000000 	streq	r0, [r0, #-0]
     4c4:	00b31106 	adcseq	r1, r3, r6, lsl #2
     4c8:	0b000000 	bleq	4d0 <__code_start__-0x7b30>
     4cc:	00000087 	andeq	r0, r0, r7, lsl #1
     4d0:	b3110705 	tstlt	r1, #1310720	; 0x140000
     4d4:	04000000 	streq	r0, [r0], #-0
     4d8:	0000190b 	andeq	r1, r0, fp, lsl #18
     4dc:	0e080500 	cfsh32eq	mvfx0, mvfx8, #0
     4e0:	0000002c 	andeq	r0, r0, ip, lsr #32
     4e4:	60040008 	andvs	r0, r4, r8
     4e8:	05000001 	streq	r0, [r0, #-1]
     4ec:	00d70309 	sbcseq	r0, r7, r9, lsl #6
     4f0:	070c0000 	streq	r0, [ip, -r0]
     4f4:	00004f01 	andeq	r4, r0, r1, lsl #30
     4f8:	0e0c0200 	cdpeq	2, 0, cr0, cr12, cr0, {0}
     4fc:	0000012f 	andeq	r0, r0, pc, lsr #2
     500:	00031a0d 	andeq	r1, r3, sp, lsl #20
     504:	920d0b00 	andls	r0, sp, #0, 22
     508:	0c000002 	stceq	0, cr0, [r0], {2}
     50c:	006e0e00 	rsbeq	r0, lr, r0, lsl #28
     510:	02240000 	eoreq	r0, r4, #0, 0
     514:	01a5100f 			; <UNDEFINED> instruction: 0x01a5100f
     518:	060b0000 	streq	r0, [fp], -r0
     51c:	02000000 	andeq	r0, r0, #0, 0
     520:	01a51410 			; <UNDEFINED> instruction: 0x01a51410
     524:	0b000000 	bleq	52c <__code_start__-0x7ad4>
     528:	0000003b 	andeq	r0, r0, fp, lsr r0
     52c:	690e1102 	stmdbvs	lr, {r1, r8, ip}
     530:	04000000 	streq	r0, [r0], #-0
     534:	0000130b 	andeq	r1, r0, fp, lsl #6
     538:	0e120200 	cdpeq	2, 1, cr0, cr2, cr0, {0}
     53c:	00000069 	andeq	r0, r0, r9, rrx
     540:	00ca0b08 	sbceq	r0, sl, r8, lsl #22
     544:	14020000 	strne	r0, [r2], #-0
     548:	0001080f 	andeq	r0, r1, pc, lsl #16
     54c:	540b0c00 	strpl	r0, [fp], #-3072	; 0xfffff400
     550:	02000002 	andeq	r0, r0, #2, 0
     554:	00690e17 	rsbeq	r0, r9, r7, lsl lr
     558:	0b180000 	bleq	600560 <__bss_end__+0x5f5b80>
     55c:	0000026c 	andeq	r0, r0, ip, ror #4
     560:	690e1802 	stmdbvs	lr, {r1, fp, ip}
     564:	1c000000 	stcne	0, cr0, [r0], {-0}
     568:	0000200b 	andeq	r2, r0, fp
     56c:	0e1a0200 	cdpeq	2, 1, cr0, cr10, cr0, {0}
     570:	00000056 	andeq	r0, r0, r6, asr r0
     574:	00dd0b20 	sbcseq	r0, sp, r0, lsr #22
     578:	1b020000 	blne	80580 <__bss_end__+0x75ba0>
     57c:	0000560b 	andeq	r5, r0, fp, lsl #12
     580:	08002200 	stmdaeq	r0, {r9, sp}
     584:	00012f04 	andeq	r2, r1, r4, lsl #30
     588:	00000400 	andeq	r0, r0, r0, lsl #8
     58c:	1c020000 	stcne	0, cr0, [r2], {-0}
     590:	00012f03 	andeq	r2, r1, r3, lsl #30
     594:	00990f00 	addseq	r0, r9, r0, lsl #30
     598:	1e020000 	cdpne	0, 0, cr0, cr2, cr0, {0}
     59c:	0001c90f 	andeq	ip, r1, pc, lsl #18
     5a0:	b4030500 	strlt	r0, [r3], #-1280	; 0xfffffb00
     5a4:	080000a5 	stmdaeq	r0, {r0, r2, r5, r7}
     5a8:	0001ab04 	andeq	sl, r1, r4, lsl #22
     5ac:	00a40f00 	adceq	r0, r4, r0, lsl #30
     5b0:	1f020000 	svcne	0x00020000
     5b4:	0001c90f 	andeq	ip, r1, pc, lsl #18
     5b8:	b0030500 	andlt	r0, r3, r0, lsl #10
     5bc:	100000a5 	andne	r0, r0, r5, lsr #1
     5c0:	000b1104 	andeq	r1, fp, r4, lsl #2
     5c4:	77010000 	strvc	r0, [r1, -r0]
     5c8:	0001e108 	andeq	lr, r1, r8, lsl #2
     5cc:	00841400 	addeq	r1, r4, r0, lsl #8
     5d0:	00009c00 	andeq	r9, r0, r0, lsl #24
     5d4:	bd9c0100 	ldflts	f0, [ip]
     5d8:	12000002 	andne	r0, r0, #2, 0
     5dc:	00000342 	andeq	r0, r0, r2, asr #6
     5e0:	691a7701 	ldmdbvs	sl, {r0, r8, r9, sl, ip, sp, lr}
     5e4:	c9000000 	stmdbgt	r0, {}	; <UNPREDICTABLE>
     5e8:	c3000000 	movwgt	r0, #0
     5ec:	13000000 	movwne	r0, #0
     5f0:	7701006c 	strvc	r0, [r1, -ip, rrx]
     5f4:	0001082c 	andeq	r0, r1, ip, lsr #16
     5f8:	64910200 	ldrvs	r0, [r1], #512	; 0x200
     5fc:	01006814 	tsteq	r0, r4, lsl r8
     600:	01c90c79 	biceq	r0, r9, r9, ror ip
     604:	00fb0000 	rscseq	r0, fp, r0
     608:	00f50000 	rscseq	r0, r5, r0
     60c:	30150000 	andscc	r0, r5, r0
     610:	86000084 	strhi	r0, [r0], -r4, lsl #1
     614:	44000008 	strmi	r0, [r0], #-8
     618:	16000002 	strne	r0, [r0], -r2
     61c:	76025001 	strvc	r5, [r2], -r1
     620:	40150024 	andsmi	r0, r5, r4, lsr #32
     624:	92000084 	andls	r0, r0, #132, 0	; 0x84
     628:	63000008 	movwvs	r0, #8
     62c:	16000002 	strne	r0, [r0], -r2
     630:	74025001 	strvc	r5, [r2], #-1
     634:	51011600 	tstpl	r1, r0, lsl #12
     638:	01163001 	tsteq	r6, r1
     63c:	24080252 	strcs	r0, [r8], #-594	; 0xfffffdae
     640:	84781500 	ldrbthi	r1, [r8], #-1280	; 0xfffffb00
     644:	089e0000 	ldmeq	lr, {}	; <UNPREDICTABLE>
     648:	028f0000 	addeq	r0, pc, #0, 0
     64c:	01160000 	tsteq	r6, r0
     650:	7c030550 	cfstr32vc	mvfx0, [r3], {80}	; 0x50
     654:	1600009e 			; <UNDEFINED> instruction: 0x1600009e
     658:	75035101 	strvc	r5, [r3, #-257]	; 0xfffffeff
     65c:	01160600 	tsteq	r6, r0, lsl #12
     660:	60910352 	addsvs	r0, r1, r2, asr r3
     664:	53011606 	movwpl	r1, #5638	; 0x1606
     668:	06649103 	strbteq	r9, [r4], -r3, lsl #2
     66c:	84881500 	strhi	r1, [r8], #1280	; 0x500
     670:	089e0000 	ldmeq	lr, {}	; <UNPREDICTABLE>
     674:	02ac0000 	adceq	r0, ip, #0, 0
     678:	01160000 	tsteq	r6, r0
     67c:	d0030550 	andle	r0, r3, r0, asr r5
     680:	1600009e 			; <UNDEFINED> instruction: 0x1600009e
     684:	75025101 	strvc	r5, [r2, #-257]	; 0xfffffeff
     688:	98170000 	ldmdals	r7, {}	; <UNPREDICTABLE>
     68c:	ac000084 	stcge	0, cr0, [r0], {132}	; 0x84
     690:	16000006 	strne	r0, [r0], -r6
     694:	74025101 	strvc	r5, [r2], #-257	; 0xfffffeff
     698:	18000000 	stmdane	r0, {}	; <UNPREDICTABLE>
     69c:	000002b9 			; <UNDEFINED> instruction: 0x000002b9
     6a0:	f8076701 			; <UNDEFINED> instruction: 0xf8076701
     6a4:	1c000082 	stcne	0, cr0, [r0], {130}	; 0x82
     6a8:	01000001 	tsteq	r0, r1
     6ac:	0004859c 	muleq	r4, ip, r5
     6b0:	0ad81200 	beq	ff604eb8 <__bss_end__+0xff5fa4d8>
     6b4:	67010000 	strvs	r0, [r1, -r0]
     6b8:	0001e115 	andeq	lr, r1, r5, lsl r1
     6bc:	00012a00 	andeq	r2, r1, r0, lsl #20
     6c0:	00012600 	andeq	r2, r1, r0, lsl #12
     6c4:	006c1300 	rsbeq	r1, ip, r0, lsl #6
     6c8:	08256701 	stmdaeq	r5!, {r0, r8, r9, sl, sp, lr}
     6cc:	02000001 	andeq	r0, r0, #1, 0
     6d0:	68146491 	ldmdavs	r4, {r0, r4, r7, sl, sp, lr}
     6d4:	0c680100 	stfeqe	f0, [r8], #-0
     6d8:	000001c9 	andeq	r0, r0, r9, asr #3
     6dc:	00000150 	andeq	r0, r0, r0, asr r1
     6e0:	00000148 	andeq	r0, r0, r8, asr #2
     6e4:	00008c19 	andeq	r8, r0, r9, lsl ip
     6e8:	00049500 	andeq	r9, r4, r0, lsl #10
     6ec:	f8030500 			; <UNDEFINED> instruction: 0xf8030500
     6f0:	1500009e 	strne	r0, [r0, #-158]	; 0xffffff62
     6f4:	00008330 	andeq	r8, r0, r0, lsr r3
     6f8:	0000089e 	muleq	r0, lr, r8
     6fc:	00000341 	andeq	r0, r0, r1, asr #6
     700:	05500116 	ldrbeq	r0, [r0, #-278]	; 0xfffffeea
     704:	009e7c03 	addseq	r7, lr, r3, lsl #24
     708:	51011600 	tstpl	r1, r0, lsl #12
     70c:	065c9103 	ldrbeq	r9, [ip], -r3, lsl #2
     710:	03520116 	cmpeq	r2, #-2147483643	; 0x80000005
     714:	16066091 			; <UNDEFINED> instruction: 0x16066091
     718:	91035301 	tstls	r3, r1, lsl #6
     71c:	15000664 	strne	r0, [r0, #-1636]	; 0xfffff99c
     720:	0000833c 	andeq	r8, r0, ip, lsr r3
     724:	0000089e 	muleq	r0, lr, r8
     728:	0000035e 	andeq	r0, r0, lr, asr r3
     72c:	05500116 	ldrbeq	r0, [r0, #-278]	; 0xfffffeea
     730:	009e8803 	addseq	r8, lr, r3, lsl #16
     734:	51011600 	tstpl	r1, r0, lsl #12
     738:	00007402 	andeq	r7, r0, r2, lsl #8
     73c:	00834415 	addeq	r4, r3, r5, lsl r4
     740:	00049a00 	andeq	r9, r4, r0, lsl #20
     744:	00037200 	andeq	r7, r3, r0, lsl #4
     748:	50011600 	andpl	r1, r1, r0, lsl #12
     74c:	00007402 	andeq	r7, r0, r2, lsl #8
     750:	00836415 	addeq	r6, r3, r5, lsl r4
     754:	00076700 	andeq	r6, r7, r0, lsl #14
     758:	00038600 	andeq	r8, r3, r0, lsl #12
     75c:	51011600 	tstpl	r1, r0, lsl #12
     760:	00007502 	andeq	r7, r0, r2, lsl #10
     764:	00836c15 	addeq	r6, r3, r5, lsl ip
     768:	00049a00 	andeq	r9, r4, r0, lsl #20
     76c:	00039a00 	andeq	r9, r3, r0, lsl #20
     770:	50011600 	andpl	r1, r1, r0, lsl #12
     774:	00007402 	andeq	r7, r0, r2, lsl #8
     778:	00837c15 	addeq	r7, r3, r5, lsl ip
     77c:	0008aa00 	andeq	sl, r8, r0, lsl #20
     780:	0003ae00 	andeq	sl, r3, r0, lsl #28
     784:	50011600 	andpl	r1, r1, r0, lsl #12
     788:	00007502 	andeq	r7, r0, r2, lsl #10
     78c:	00839815 	addeq	r9, r3, r5, lsl r8
     790:	00089e00 	andeq	r9, r8, r0, lsl #28
     794:	0003da00 	andeq	sp, r3, r0, lsl #20
     798:	50011600 	andpl	r1, r1, r0, lsl #12
     79c:	9e340305 	cdpls	3, 3, cr0, cr4, cr5, {0}
     7a0:	01160000 	tsteq	r6, r0
     7a4:	5c910351 	ldcpl	3, cr0, [r1], {81}	; 0x51
     7a8:	52011606 	andpl	r1, r1, #6291456	; 0x600000
     7ac:	06609103 	strbteq	r9, [r0], -r3, lsl #2
     7b0:	03530116 	cmpeq	r3, #-2147483643	; 0x80000005
     7b4:	00066491 	muleq	r6, r1, r4
     7b8:	0083a815 	addeq	sl, r3, r5, lsl r8
     7bc:	00089e00 	andeq	r9, r8, r0, lsl #28
     7c0:	0003f700 	andeq	pc, r3, r0, lsl #14
     7c4:	50011600 	andpl	r1, r1, r0, lsl #12
     7c8:	9e4c0305 	cdpls	3, 4, cr0, cr12, cr5, {0}
     7cc:	01160000 	tsteq	r6, r0
     7d0:	00740251 	rsbseq	r0, r4, r1, asr r2
     7d4:	83ac1a00 			; <UNDEFINED> instruction: 0x83ac1a00
     7d8:	08b60000 	ldmeq	r6!, {}	; <UNPREDICTABLE>
     7dc:	c8150000 	ldmdagt	r5, {}	; <UNPREDICTABLE>
     7e0:	9e000083 	cdpls	0, 0, cr0, cr0, cr3, {4}
     7e4:	39000008 	stmdbcc	r0, {r3}
     7e8:	16000004 	strne	r0, [r0], -r4
     7ec:	03055001 	movweq	r5, #20481	; 0x5001
     7f0:	00009df0 	strdeq	r9, [r0], -r0
     7f4:	05510116 	ldrbeq	r0, [r1, #-278]	; 0xfffffeea
     7f8:	009de403 	addseq	lr, sp, r3, lsl #8
     7fc:	52011600 	andpl	r1, r1, #0, 12
     800:	9ef80305 	cdpls	3, 15, cr0, cr8, cr5, {0}
     804:	01160000 	tsteq	r6, r0
     808:	6d080253 	sfmvs	f0, 4, [r8, #-332]	; 0xfffffeb4
     80c:	007d0216 	rsbseq	r0, sp, r6, lsl r2
     810:	9e940305 	cdpls	3, 9, cr0, cr4, cr5, {0}
     814:	1a000000 	bne	81c <__code_start__-0x77e4>
     818:	000083cc 	andeq	r8, r0, ip, asr #7
     81c:	000008b6 			; <UNDEFINED> instruction: 0x000008b6
     820:	0083e815 	addeq	lr, r3, r5, lsl r8
     824:	00089e00 	andeq	r9, r8, r0, lsl #28
     828:	00047b00 	andeq	r7, r4, r0, lsl #22
     82c:	50011600 	andpl	r1, r1, r0, lsl #12
     830:	9df00305 	ldclls	3, cr0, [r0, #20]!
     834:	01160000 	tsteq	r6, r0
     838:	e4030551 	str	r0, [r3], #-1361	; 0xfffffaaf
     83c:	1600009d 			; <UNDEFINED> instruction: 0x1600009d
     840:	03055201 	movweq	r5, #20993	; 0x5201
     844:	00009ef8 	strdeq	r9, [r0], -r8
     848:	02530116 	subseq	r0, r3, #-2147483643	; 0x80000005
     84c:	02167008 	andseq	r7, r6, #8, 0
     850:	0305007d 	movweq	r0, #20605	; 0x507d
     854:	00009eb4 			; <UNDEFINED> instruction: 0x00009eb4
     858:	83ec1a00 	mvnhi	r1, #0, 20
     85c:	08b60000 	ldmeq	r6!, {}	; <UNPREDICTABLE>
     860:	1b000000 	blne	868 <__code_start__-0x7798>
     864:	000000c0 	andeq	r0, r0, r0, asr #1
     868:	00000495 	muleq	r0, r5, r4
     86c:	00002c1c 	andeq	r2, r0, ip, lsl ip
     870:	09000600 	stmdbeq	r0, {r9, sl}
     874:	00000485 	andeq	r0, r0, r5, lsl #9
     878:	0002d911 	andeq	sp, r2, r1, lsl r9
     87c:	085b0100 	ldmdaeq	fp, {r8}^
     880:	000001c9 	andeq	r0, r0, r9, asr #3
     884:	000082a8 	andeq	r8, r0, r8, lsr #5
     888:	00000050 	andeq	r0, r0, r0, asr r0
     88c:	05189c01 	ldreq	r9, [r8, #-3073]	; 0xfffff3ff
     890:	701d0000 	andsvc	r0, sp, r0
     894:	01007274 	tsteq	r0, r4, ror r2
     898:	01e1205b 	mvneq	r2, fp, asr r0
     89c:	018c0000 	orreq	r0, ip, r0
     8a0:	01880000 	orreq	r0, r8, r0
     8a4:	b01e0000 	andslt	r0, lr, r0
     8a8:	40000082 	andmi	r0, r0, r2, lsl #1
     8ac:	14000000 	strne	r0, [r0], #-0
     8b0:	5c010068 	stcpl	0, cr0, [r1], {104}	; 0x68
     8b4:	0001c910 	andeq	ip, r1, r0, lsl r9
     8b8:	0001b200 	andeq	fp, r1, r0, lsl #4
     8bc:	0001aa00 	andeq	sl, r1, r0, lsl #20
     8c0:	82b41a00 	adcshi	r1, r4, #0, 20
     8c4:	06960000 	ldreq	r0, [r6], r0
     8c8:	c4150000 	ldrgt	r0, [r5], #-0
     8cc:	69000082 	stmdbvs	r0, {r1, r7}
     8d0:	00000006 	andeq	r0, r0, r6
     8d4:	16000005 	strne	r0, [r0], -r5
     8d8:	74025001 	strvc	r5, [r2], #-1
     8dc:	dc170000 	ldcle	0, cr0, [r7], {-0}
     8e0:	18000082 	stmdane	r0, {r1, r7}
     8e4:	16000005 	strne	r0, [r0], -r5
     8e8:	74025001 	strvc	r5, [r2], #-1
     8ec:	51011600 	tstpl	r1, r0, lsl #12
     8f0:	00007502 	andeq	r7, r0, r2, lsl #10
     8f4:	78110000 	ldmdavc	r1, {}	; <UNPREDICTABLE>
     8f8:	01000002 	tsteq	r0, r2
     8fc:	002c0a53 	eoreq	r0, ip, r3, asr sl
     900:	82700000 	rsbshi	r0, r0, #0, 0
     904:	00380000 	eorseq	r0, r8, r0
     908:	9c010000 	stcls	0, cr0, [r1], {-0}
     90c:	00000553 	andeq	r0, r0, r3, asr r5
     910:	0100681d 	tsteq	r0, sp, lsl r8
     914:	01c92153 	biceq	r2, r9, r3, asr r1
     918:	01f00000 	mvnseq	r0, r0
     91c:	01e60000 	mvneq	r0, r0
     920:	70130000 	andsvc	r0, r3, r0
     924:	01007274 	tsteq	r0, r4, ror r2
     928:	01e12a53 	mvneq	r2, r3, asr sl
     92c:	51010000 	mrspl	r0, (UNDEF: 1)
     930:	03011100 	movweq	r1, #4352	; 0x1100
     934:	48010000 	stmdami	r1, {}	; <UNPREDICTABLE>
     938:	0001c908 	andeq	ip, r1, r8, lsl #18
     93c:	00825c00 	addeq	r5, r2, r0, lsl #24
     940:	00001400 	andeq	r1, r0, r0, lsl #8
     944:	a09c0100 	addsge	r0, ip, r0, lsl #2
     948:	1d000005 	stcne	0, cr0, [r0, #-20]	; 0xffffffec
     94c:	00727470 	rsbseq	r7, r2, r0, ror r4
     950:	c91b4801 	ldmdbgt	fp, {r0, fp, lr}
     954:	3b000001 	blcc	960 <__code_start__-0x76a0>
     958:	37000002 	strcc	r0, [r0, -r2]
     95c:	1e000002 	cdpne	0, 0, cr0, cr0, cr2, {0}
     960:	00008264 	andeq	r8, r0, r4, ror #4
     964:	00000008 	andeq	r0, r0, r8
     968:	0000061f 	andeq	r0, r0, pc, lsl r6
     96c:	0a4a0100 	beq	1280d74 <__bss_end__+0x1276394>
     970:	000001c9 	andeq	r0, r0, r9, asr #3
     974:	0000025e 	andeq	r0, r0, lr, asr r2
     978:	0000025c 	andeq	r0, r0, ip, asr r2
     97c:	0d110000 	ldceq	0, cr0, [r1, #-0]
     980:	01000003 	tsteq	r0, r3
     984:	01c90843 	biceq	r0, r9, r3, asr #16
     988:	824c0000 	subhi	r0, ip, #0, 0
     98c:	00100000 	andseq	r0, r0, r0
     990:	9c010000 	stcls	0, cr0, [r1], {-0}
     994:	000005d8 	ldrdeq	r0, [r0], -r8
     998:	0003631f 	andeq	r6, r3, pc, lsl r3
     99c:	09440100 	stmdbeq	r4, {r8}^
     9a0:	000001c9 	andeq	r0, r0, r9, asr #3
     9a4:	00000275 	andeq	r0, r0, r5, ror r2
     9a8:	00000271 	andeq	r0, r0, r1, ror r2
     9ac:	0082541a 	addeq	r5, r2, sl, lsl r4
     9b0:	00069600 	andeq	r9, r6, r0, lsl #12
     9b4:	2f110000 	svccs	0x00110000
     9b8:	01000003 	tsteq	r0, r3
     9bc:	01e1073f 	mvneq	r0, pc, lsr r7
     9c0:	82340000 	eorshi	r0, r4, #0, 0
     9c4:	00180000 	andseq	r0, r8, r0
     9c8:	9c010000 	stcls	0, cr0, [r1], {-0}
     9cc:	0000063c 	andeq	r0, r0, ip, lsr r6
     9d0:	0100681d 	tsteq	r0, sp, lsl r8
     9d4:	01c9193f 	biceq	r1, r9, pc, lsr r9
     9d8:	02990000 	addseq	r0, r9, #0, 0
     9dc:	02950000 	addseq	r0, r5, #0, 0
     9e0:	6a200000 	bvs	8009e8 <__bss_end__+0x7f6008>
     9e4:	40000008 	andmi	r0, r0, r8
     9e8:	00000082 	andeq	r0, r0, r2, lsl #1
     9ec:	00008240 	andeq	r8, r0, r0, asr #4
     9f0:	00000004 	andeq	r0, r0, r4
     9f4:	2b264001 	blcs	990a00 <__bss_end__+0x986020>
     9f8:	21000006 	tstcs	r0, r6
     9fc:	0000087b 	andeq	r0, r0, fp, ror r8
     a00:	000002b9 			; <UNDEFINED> instruction: 0x000002b9
     a04:	000002b7 			; <UNDEFINED> instruction: 0x000002b7
     a08:	82401700 	subhi	r1, r0, #0, 14
     a0c:	063c0000 	ldrteq	r0, [ip], -r0
     a10:	01160000 	tsteq	r6, r0
     a14:	00740250 	rsbseq	r0, r4, r0, asr r2
     a18:	22110000 	andscs	r0, r1, #0, 0
     a1c:	01000003 	tsteq	r0, r3
     a20:	01e1073a 	mvneq	r0, sl, lsr r7
     a24:	822c0000 	eorhi	r0, ip, #0, 0
     a28:	00080000 	andeq	r0, r8, r0
     a2c:	9c010000 	stcls	0, cr0, [r1], {-0}
     a30:	00000669 	andeq	r0, r0, r9, ror #12
     a34:	0100681d 	tsteq	r0, sp, lsl r8
     a38:	01c91b3a 	biceq	r1, r9, sl, lsr fp
     a3c:	02d00000 	sbcseq	r0, r0, #0, 0
     a40:	02cc0000 	sbceq	r0, ip, #0, 0
     a44:	11000000 	mrsne	r0, (UNDEF: 0)
     a48:	000002eb 	andeq	r0, r0, fp, ror #5
     a4c:	c9083301 	stmdbgt	r8, {r0, r8, r9, ip, sp}
     a50:	88000001 	stmdahi	r0, {r0}
     a54:	10000081 	andne	r0, r0, r1, lsl #1
     a58:	01000000 	mrseq	r0, (UNDEF: 0)
     a5c:	0006969c 	muleq	r6, ip, r6
     a60:	00701d00 	rsbseq	r1, r0, r0, lsl #26
     a64:	c91b3301 	ldmdbgt	fp, {r0, r8, r9, ip, sp}
     a68:	f4000001 	vst4.8	{d0-d3}, [r0], r1
     a6c:	f0000002 			; <UNDEFINED> instruction: 0xf0000002
     a70:	00000002 	andeq	r0, r0, r2
     a74:	0002ac22 	andeq	sl, r2, r2, lsr #24
     a78:	082e0100 	stmdaeq	lr!, {r8}
     a7c:	000001c9 	andeq	r0, r0, r9, asr #3
     a80:	00008178 	andeq	r8, r0, r8, ror r1
     a84:	00000010 	andeq	r0, r0, r0, lsl r0
     a88:	98239c01 	stmdals	r3!, {r0, sl, fp, ip, pc}
     a8c:	01000002 	tsteq	r0, r2
     a90:	81040d1e 	tsthi	r4, lr, lsl sp
     a94:	00740000 	rsbseq	r0, r4, r0
     a98:	9c010000 	stcls	0, cr0, [r1], {-0}
     a9c:	00000752 	andeq	r0, r0, r2, asr r7
     aa0:	01006c1d 	tsteq	r0, sp, lsl ip
     aa4:	01c9201e 	biceq	r2, r9, lr, lsl r0
     aa8:	03190000 	tsteq	r9, #0, 0
     aac:	03150000 	tsteq	r5, #0, 0
     ab0:	681d0000 	ldmdavs	sp, {}	; <UNPREDICTABLE>
     ab4:	2a1e0100 	bcs	780ebc <__bss_end__+0x7764dc>
     ab8:	000001c9 	andeq	r0, r0, r9, asr #3
     abc:	0000033e 	andeq	r0, r0, lr, lsr r3
     ac0:	0000033a 	andeq	r0, r0, sl, lsr r3
     ac4:	00008c19 	andeq	r8, r0, r9, lsl ip
     ac8:	00076200 	andeq	r6, r7, r0, lsl #4
     acc:	e0030500 	and	r0, r3, r0, lsl #10
     ad0:	2400009e 	strcs	r0, [r0], #-158	; 0xffffff62
     ad4:	00000000 	andeq	r0, r0, r0
     ad8:	0002881f 	andeq	r8, r2, pc, lsl r8
     adc:	0a260100 	beq	980ee4 <__bss_end__+0x976504>
     ae0:	000001c9 	andeq	r0, r0, r9, asr #3
     ae4:	00000361 	andeq	r0, r0, r1, ror #6
     ae8:	0000035f 	andeq	r0, r0, pc, asr r3
     aec:	00816015 	addeq	r6, r1, r5, lsl r0
     af0:	00089e00 	andeq	r9, r8, r0, lsl #28
     af4:	00074700 	andeq	r4, r7, r0, lsl #14
     af8:	50011600 	andpl	r1, r1, r0, lsl #12
     afc:	9df00305 	ldclls	3, cr0, [r0, #20]!
     b00:	01160000 	tsteq	r6, r0
     b04:	e4030551 	str	r0, [r3], #-1361	; 0xfffffaaf
     b08:	1600009d 			; <UNDEFINED> instruction: 0x1600009d
     b0c:	03055201 	movweq	r5, #20993	; 0x5201
     b10:	00009ee0 	andeq	r9, r0, r0, ror #29
     b14:	02530116 	subseq	r0, r3, #-2147483643	; 0x80000005
     b18:	02162508 	andseq	r2, r6, #8, 10	; 0x2000000
     b1c:	0305007d 	movweq	r0, #20605	; 0x507d
     b20:	00009e04 	andeq	r9, r0, r4, lsl #28
     b24:	81641a00 	cmnhi	r4, r0, lsl #20
     b28:	08b60000 	ldmeq	r6!, {}	; <UNPREDICTABLE>
     b2c:	00000000 	andeq	r0, r0, r0
     b30:	0000c01b 	andeq	ip, r0, fp, lsl r0
     b34:	00076200 	andeq	r6, r7, r0, lsl #4
     b38:	002c1c00 	eoreq	r1, ip, r0, lsl #24
     b3c:	000b0000 	andeq	r0, fp, r0
     b40:	00075209 	andeq	r5, r7, r9, lsl #4
     b44:	02c02300 	sbceq	r2, r0, #0, 6
     b48:	0a010000 	beq	40b50 <__bss_end__+0x36170>
     b4c:	0081980d 	addeq	r9, r1, sp, lsl #16
     b50:	00009400 	andeq	r9, r0, r0, lsl #8
     b54:	6a9c0100 	bvs	fe700f5c <__bss_end__+0xfe6f657c>
     b58:	1d000008 	stcne	0, cr0, [r0, #-32]	; 0xffffffe0
     b5c:	0a01006c 	beq	40d14 <__bss_end__+0x36334>
     b60:	0001c920 	andeq	ip, r1, r0, lsr #18
     b64:	00037c00 	andeq	r7, r3, r0, lsl #24
     b68:	00037400 	andeq	r7, r3, r0, lsl #8
     b6c:	00681d00 	rsbeq	r1, r8, r0, lsl #26
     b70:	c92a0a01 	stmdbgt	sl!, {r0, r9, fp}
     b74:	c0000001 	andgt	r0, r0, r1
     b78:	b6000003 	strlt	r0, [r0], -r3
     b7c:	19000003 	stmdbne	r0, {r0, r1}
     b80:	0000008c 	andeq	r0, r0, ip, lsl #1
     b84:	00000762 	andeq	r0, r0, r2, ror #14
     b88:	9eec0305 	cdpls	3, 14, cr0, cr12, cr5, {0}
     b8c:	3a1f0000 	bcc	7c0b94 <__bss_end__+0x7b61b4>
     b90:	01000003 	tsteq	r0, r3
     b94:	01c90c0c 	biceq	r0, r9, ip, lsl #24
     b98:	04080000 	streq	r0, [r8], #-0
     b9c:	04020000 	streq	r0, [r2], #-0
     ba0:	70140000 	andsvc	r0, r4, r0
     ba4:	0c130100 	ldfeqs	f0, [r3], {-0}
     ba8:	000001c9 	andeq	r0, r0, r9, asr #3
     bac:	00000435 	andeq	r0, r0, r5, lsr r4
     bb0:	00000431 	andeq	r0, r0, r1, lsr r4
     bb4:	0081bc15 	addeq	fp, r1, r5, lsl ip
     bb8:	00066900 	andeq	r6, r6, r0, lsl #18
     bbc:	0007ea00 	andeq	lr, r7, r0, lsl #20
     bc0:	50011600 	andpl	r1, r1, r0, lsl #12
     bc4:	00007502 	andeq	r7, r0, r2, lsl #10
     bc8:	0081f815 	addeq	pc, r1, r5, lsl r8	; <UNPREDICTABLE>
     bcc:	00089e00 	andeq	r9, r8, r0, lsl #28
     bd0:	00082200 	andeq	r2, r8, r0, lsl #4
     bd4:	50011600 	andpl	r1, r1, r0, lsl #12
     bd8:	9df00305 	ldclls	3, cr0, [r0, #20]!
     bdc:	01160000 	tsteq	r6, r0
     be0:	e4030551 	str	r0, [r3], #-1361	; 0xfffffaaf
     be4:	1600009d 			; <UNDEFINED> instruction: 0x1600009d
     be8:	03055201 	movweq	r5, #20993	; 0x5201
     bec:	00009eec 	andeq	r9, r0, ip, ror #29
     bf0:	01530116 	cmpeq	r3, r6, lsl r1
     bf4:	7d02163b 	stcvc	6, cr1, [r2, #-236]	; 0xffffff14
     bf8:	04030500 	streq	r0, [r3], #-1280	; 0xfffffb00
     bfc:	0000009e 	muleq	r0, lr, r0
     c00:	0081fc1a 	addeq	pc, r1, sl, lsl ip	; <UNPREDICTABLE>
     c04:	0008b600 	andeq	fp, r8, r0, lsl #12
     c08:	82141500 	andshi	r1, r4, #0, 10
     c0c:	089e0000 	ldmeq	lr, {}	; <UNPREDICTABLE>
     c10:	08600000 	stmdaeq	r0!, {}^	; <UNPREDICTABLE>
     c14:	01160000 	tsteq	r6, r0
     c18:	08030550 	stmdaeq	r3, {r4, r6, r8, sl}
     c1c:	1600009e 			; <UNDEFINED> instruction: 0x1600009e
     c20:	03055101 	movweq	r5, #20737	; 0x5101
     c24:	00009de4 	andeq	r9, r0, r4, ror #27
     c28:	05520116 	ldrbeq	r0, [r2, #-278]	; 0xfffffeea
     c2c:	009eec03 	addseq	lr, lr, r3, lsl #24
     c30:	53011600 	movwpl	r1, #5632	; 0x1600
     c34:	02164b01 	andseq	r4, r6, #1024	; 0x400
     c38:	7402007d 	strvc	r0, [r2], #-125	; 0xffffff83
     c3c:	181a0000 	ldmdane	sl, {}	; <UNPREDICTABLE>
     c40:	b6000082 	strlt	r0, [r0], -r2, lsl #1
     c44:	00000008 	andeq	r0, r0, r8
     c48:	00033f25 	andeq	r3, r3, r5, lsr #30
     c4c:	18280200 	stmdane	r8!, {r9}
     c50:	0000002c 	andeq	r0, r0, ip, lsr #32
     c54:	00088603 	andeq	r8, r8, r3, lsl #12
     c58:	00682600 	rsbeq	r2, r8, r0, lsl #12
     c5c:	c9292802 	stmdbgt	r9!, {r1, fp, sp}
     c60:	00000001 	andeq	r0, r0, r1
     c64:	00034927 	andeq	r4, r3, r7, lsr #18
     c68:	00034900 	andeq	r4, r3, r0, lsl #18
     c6c:	071e0600 	ldreq	r0, [lr, -r0, lsl #12]
     c70:	00008027 	andeq	r8, r0, r7, lsr #32
     c74:	00008000 	andeq	r8, r0, r0
     c78:	07f70400 	ldrbeq	r0, [r7, r0, lsl #8]!
     c7c:	00061b27 	andeq	r1, r6, r7, lsr #22
     c80:	00061b00 	andeq	r1, r6, r0, lsl #22
     c84:	06280400 	strteq	r0, [r8], -r0, lsl #8
     c88:	0002a427 	andeq	sl, r2, r7, lsr #8
     c8c:	0002a400 	andeq	sl, r2, r0, lsl #8
     c90:	061f0600 	ldreq	r0, [pc], -r0, lsl #12
     c94:	0002cc27 	andeq	ip, r2, r7, lsr #24
     c98:	0002cc00 	andeq	ip, r2, r0, lsl #24
     c9c:	066e0400 	strbteq	r0, [lr], -r0, lsl #8
     ca0:	000be500 	andeq	lr, fp, r0, lsl #10
     ca4:	34000400 	strcc	r0, [r0], #-1024	; 0xfffffc00
     ca8:	04000004 	streq	r0, [r0], #-4
     cac:	00019001 	andeq	r9, r1, r1
     cb0:	042b0c00 	strteq	r0, [fp], #-3072	; 0xfffff400
     cb4:	00e40000 	rsceq	r0, r4, r0
     cb8:	84b00000 	ldrthi	r0, [r0], #0
     cbc:	05940000 	ldreq	r0, [r4]
     cc0:	05820000 	streq	r0, [r2]
     cc4:	04020000 	streq	r0, [r2], #-0
     cc8:	746e6905 	strbtvc	r6, [lr], #-2309	; 0xfffff6fb
     ccc:	07040300 	streq	r0, [r4, -r0, lsl #6]
     cd0:	000000bd 	strheq	r0, [r0], -sp
     cd4:	00002c04 	andeq	r2, r0, r4, lsl #24
     cd8:	06010300 	streq	r0, [r1], -r0, lsl #6
     cdc:	0000004f 	andeq	r0, r0, pc, asr #32
     ce0:	56050203 	strpl	r0, [r5], -r3, lsl #4
     ce4:	03000001 	movweq	r0, #1
     ce8:	01410504 	cmpeq	r1, r4, lsl #10
     cec:	08030000 	stmdaeq	r3, {}	; <UNPREDICTABLE>
     cf0:	00013c05 	andeq	r3, r1, r5, lsl #24
     cf4:	08010300 	stmdaeq	r1, {r8, r9}
     cf8:	0000004d 	andeq	r0, r0, sp, asr #32
     cfc:	00016a05 	andeq	r6, r1, r5, lsl #20
     d00:	19310200 	ldmdbne	r1!, {r9}
     d04:	00000067 	andeq	r0, r0, r7, rrx
     d08:	5b070203 	blpl	1c151c <__bss_end__+0x1b6b3c>
     d0c:	05000000 	streq	r0, [r0, #-0]
     d10:	00000173 	andeq	r0, r0, r3, ror r1
     d14:	7a193402 	bvc	64dd24 <__bss_end__+0x643344>
     d18:	03000000 	movweq	r0, #0
     d1c:	00b80704 	adcseq	r0, r8, r4, lsl #14
     d20:	08030000 	stmdaeq	r3, {}	; <UNPREDICTABLE>
     d24:	0000b307 	andeq	fp, r0, r7, lsl #6
     d28:	00250600 	eoreq	r0, r5, r0, lsl #12
     d2c:	00970000 	addseq	r0, r7, r0
     d30:	25070000 	strcs	r0, [r7, #-0]
     d34:	00000000 	andeq	r0, r0, r0
     d38:	00014a08 	andeq	r4, r1, r8, lsl #20
     d3c:	0e1c0300 	cdpeq	3, 1, cr0, cr12, cr0, {0}
     d40:	000000a3 	andeq	r0, r0, r3, lsr #1
     d44:	00880409 	addeq	r0, r8, r9, lsl #8
     d48:	25060000 	strcs	r0, [r6, #-0]
     d4c:	b8000000 	stmdalt	r0, {}	; <UNPREDICTABLE>
     d50:	07000000 	streq	r0, [r0, -r0]
     d54:	000000b8 	strheq	r0, [r0], -r8
     d58:	c5040900 	strgt	r0, [r4, #-2304]	; 0xfffff700
     d5c:	03000000 	movweq	r0, #0
     d60:	00560801 	subseq	r0, r6, r1, lsl #16
     d64:	be040000 	cdplt	0, 0, cr0, cr4, cr0, {0}
     d68:	08000000 	stmdaeq	r0, {}	; <UNPREDICTABLE>
     d6c:	00000659 	andeq	r0, r0, r9, asr r6
     d70:	d60e2103 	strle	r2, [lr], -r3, lsl #2
     d74:	09000000 	stmdbeq	r0, {}	; <UNPREDICTABLE>
     d78:	0000a904 	andeq	sl, r0, r4, lsl #18
     d7c:	040c0a00 	streq	r0, [ip], #-2560	; 0xfffff600
     d80:	010d0904 	tsteq	sp, r4, lsl #18
     d84:	480b0000 	stmdami	fp, {}	; <UNPREDICTABLE>
     d88:	04000000 	streq	r0, [r0], #-0
     d8c:	00b81106 	adcseq	r1, r8, r6, lsl #2
     d90:	0b000000 	bleq	d98 <__code_start__-0x7268>
     d94:	00000087 	andeq	r0, r0, r7, lsl #1
     d98:	b8110704 	ldmdalt	r1, {r2, r8, r9, sl}
     d9c:	04000000 	streq	r0, [r0], #-0
     da0:	0000190b 	andeq	r1, r0, fp, lsl #18
     da4:	0e080400 	cfcpyseq	mvf0, mvf8
     da8:	0000002c 	andeq	r0, r0, ip, lsr #32
     dac:	60050008 	andvs	r0, r5, r8
     db0:	04000001 	streq	r0, [r0], #-1
     db4:	00dc0309 	sbcseq	r0, ip, r9, lsl #6
     db8:	070c0000 	streq	r0, [ip, -r0]
     dbc:	00005401 	andeq	r5, r0, r1, lsl #8
     dc0:	0e0c0500 	cfsh32eq	mvfx0, mvfx12, #0
     dc4:	00000134 	andeq	r0, r0, r4, lsr r1
     dc8:	00031a0d 	andeq	r1, r3, sp, lsl #20
     dcc:	920d0b00 	andls	r0, sp, #0, 22
     dd0:	0c000002 	stceq	0, cr0, [r0], {2}
     dd4:	006e0e00 	rsbeq	r0, lr, r0, lsl #28
     dd8:	05240000 	streq	r0, [r4, #-0]!
     ddc:	01aa100f 			; <UNDEFINED> instruction: 0x01aa100f
     de0:	060b0000 	streq	r0, [fp], -r0
     de4:	05000000 	streq	r0, [r0, #-0]
     de8:	01aa1410 			; <UNDEFINED> instruction: 0x01aa1410
     dec:	0b000000 	bleq	df4 <__code_start__-0x720c>
     df0:	0000003b 	andeq	r0, r0, fp, lsr r0
     df4:	6e0e1105 	adfvse	f1, f6, f5
     df8:	04000000 	streq	r0, [r0], #-0
     dfc:	0000130b 	andeq	r1, r0, fp, lsl #6
     e00:	0e120500 	cfmul32eq	mvfx0, mvfx2, mvfx0
     e04:	0000006e 	andeq	r0, r0, lr, rrx
     e08:	00ca0b08 	sbceq	r0, sl, r8, lsl #22
     e0c:	14050000 	strne	r0, [r5], #-0
     e10:	00010d0f 	andeq	r0, r1, pc, lsl #26
     e14:	540b0c00 	strpl	r0, [fp], #-3072	; 0xfffff400
     e18:	05000002 	streq	r0, [r0, #-2]
     e1c:	006e0e17 	rsbeq	r0, lr, r7, lsl lr
     e20:	0b180000 	bleq	600e28 <__bss_end__+0x5f6448>
     e24:	0000026c 	andeq	r0, r0, ip, ror #4
     e28:	6e0e1805 	cdpvs	8, 0, cr1, cr14, cr5, {0}
     e2c:	1c000000 	stcne	0, cr0, [r0], {-0}
     e30:	0000200b 	andeq	r2, r0, fp
     e34:	0e1a0500 	cfmul32eq	mvfx0, mvfx10, mvfx0
     e38:	0000005b 	andeq	r0, r0, fp, asr r0
     e3c:	00dd0b20 	sbcseq	r0, sp, r0, lsr #22
     e40:	1b050000 	blne	140e48 <__bss_end__+0x136468>
     e44:	00005b0b 	andeq	r5, r0, fp, lsl #22
     e48:	09002200 	stmdbeq	r0, {r9, sp}
     e4c:	00013404 	andeq	r3, r1, r4, lsl #8
     e50:	00000500 	andeq	r0, r0, r0, lsl #10
     e54:	1c050000 	stcne	0, cr0, [r5], {-0}
     e58:	00013403 	andeq	r3, r1, r3, lsl #8
     e5c:	00990f00 	addseq	r0, r9, r0, lsl #30
     e60:	1e050000 	cdpne	0, 0, cr0, cr5, cr0, {0}
     e64:	0001c80f 	andeq	ip, r1, pc, lsl #16
     e68:	b0040900 	andlt	r0, r4, r0, lsl #18
     e6c:	10000001 	andne	r0, r0, r1
     e70:	000000a4 	andeq	r0, r0, r4, lsr #1
     e74:	c80f1f05 	stmdagt	pc, {r0, r2, r8, r9, sl, fp, ip}	; <UNPREDICTABLE>
     e78:	00000001 	andeq	r0, r0, r1
     e7c:	c1120411 	tstgt	r2, r1, lsl r4
     e80:	0100000a 	tsteq	r0, sl
     e84:	01db0f10 	bicseq	r0, fp, r0, lsl pc
     e88:	03050000 	movweq	r0, #20480	; 0x5000
     e8c:	0000a5b8 			; <UNDEFINED> instruction: 0x0000a5b8
     e90:	000b2212 	andeq	r2, fp, r2, lsl r2
     e94:	0f110100 	svceq	0x00110100
     e98:	000001db 	ldrdeq	r0, [r0], -fp
     e9c:	a5bc0305 	ldrge	r0, [ip, #773]!	; 0x305
     ea0:	a1120000 	tstge	r2, r0
     ea4:	01000003 	tsteq	r0, r3
     ea8:	00250c12 	eoreq	r0, r5, r2, lsl ip
     eac:	03050000 	movweq	r0, #20480	; 0x5000
     eb0:	0000a5c0 	andeq	sl, r0, r0, asr #11
     eb4:	00037213 	andeq	r7, r3, r3, lsl r2
     eb8:	06ff0100 	ldrbteq	r0, [pc], r0, lsl #2
     ebc:	00008a1c 	andeq	r8, r0, ip, lsl sl
     ec0:	00000028 	andeq	r0, r0, r8, lsr #32
     ec4:	02729c01 	rsbseq	r9, r2, #256	; 0x100
     ec8:	8c140000 	ldchi	0, cr0, [r4], {-0}
     ecc:	82000000 	andhi	r0, r0, #0, 0
     ed0:	05000002 	streq	r0, [r0, #-2]
     ed4:	00a21c03 	adceq	r1, r2, r3, lsl #24
     ed8:	8a341500 	bhi	d062e0 <__bss_end__+0xcfb900>
     edc:	0b7c0000 	bleq	1f00ee4 <__bss_end__+0x1ef6504>
     ee0:	02680000 	rsbeq	r0, r8, #0, 0
     ee4:	01160000 	tsteq	r6, r0
     ee8:	b8030550 	stmdalt	r3, {r4, r6, r8, sl}
     eec:	160000a1 	strne	r0, [r0], -r1, lsr #1
     ef0:	03055101 	movweq	r5, #20737	; 0x5101
     ef4:	0000a098 	muleq	r0, r8, r0
     ef8:	05520116 	ldrbeq	r0, [r2, #-278]	; 0xfffffeea
     efc:	00a21c03 	adceq	r1, r2, r3, lsl #24
     f00:	53011600 	movwpl	r1, #5632	; 0x1600
     f04:	01000a03 	tsteq	r0, r3, lsl #20
     f08:	8a381700 	bhi	e06b10 <__bss_end__+0xdfc130>
     f0c:	0b880000 	bleq	fe200f14 <__bss_end__+0xfe1f6534>
     f10:	18000000 	stmdane	r0, {}	; <UNPREDICTABLE>
     f14:	000000c5 	andeq	r0, r0, r5, asr #1
     f18:	00000282 	andeq	r0, r0, r2, lsl #5
     f1c:	00002c19 	andeq	r2, r0, r9, lsl ip
     f20:	04000e00 	streq	r0, [r0], #-3584	; 0xfffff200
     f24:	00000272 	andeq	r0, r0, r2, ror r2
     f28:	0003cc1a 	andeq	ip, r3, sl, lsl ip
     f2c:	0af60100 	beq	ffd81334 <__bss_end__+0xffd76954>
     f30:	0000002c 	andeq	r0, r0, ip, lsr #32
     f34:	00008a0c 	andeq	r8, r0, ip, lsl #20
     f38:	00000010 	andeq	r0, r0, r0, lsl r0
     f3c:	02c89c01 	sbceq	r9, r8, #256	; 0x100
     f40:	421b0000 	andsmi	r0, fp, #0, 0
     f44:	01000003 	tsteq	r0, r3
     f48:	002c0ef8 	strdeq	r0, [ip], -r8	; <UNPREDICTABLE>
     f4c:	04550000 	ldrbeq	r0, [r5], #-0
     f50:	04530000 	ldrbeq	r0, [r3], #-0
     f54:	14170000 	ldrne	r0, [r7], #-0
     f58:	8e00008a 	cdphi	0, 0, cr0, cr0, cr10, {4}
     f5c:	17000005 	strne	r0, [r0, -r5]
     f60:	00008a18 	andeq	r8, r0, r8, lsl sl
     f64:	000002c8 	andeq	r0, r0, r8, asr #5
     f68:	047b1c00 	ldrbteq	r1, [fp], #-3072	; 0xfffff400
     f6c:	df010000 	svcle	0x00010000
     f70:	00002c11 	andeq	r2, r0, r1, lsl ip
     f74:	0085ec00 	addeq	lr, r5, r0, lsl #24
     f78:	0000b800 	andeq	fp, r0, r0, lsl #16
     f7c:	c09c0100 	addsgt	r0, ip, r0, lsl #2
     f80:	1b000003 	blne	f94 <__code_start__-0x706c>
     f84:	00000399 	muleq	r0, r9, r3
     f88:	2c0be001 	stccs	0, cr14, [fp], {1}
     f8c:	6c000000 	stcvs	0, cr0, [r0], {-0}
     f90:	68000004 	stmdavs	r0, {r2}
     f94:	1b000004 	blne	fac <__code_start__-0x7054>
     f98:	00000407 	andeq	r0, r0, r7, lsl #8
     f9c:	2c18e001 	ldccs	0, cr14, [r8], {1}
     fa0:	8f000000 	svchi	0x00000000
     fa4:	8b000004 	blhi	fbc <__code_start__-0x7044>
     fa8:	1b000004 	blne	fc0 <__code_start__-0x7040>
     fac:	000003a8 	andeq	r0, r0, r8, lsr #7
     fb0:	2c22e001 	stccs	0, cr14, [r2], #-4
     fb4:	b2000000 	andlt	r0, r0, #0, 0
     fb8:	ae000004 	cdpge	0, 0, cr0, cr0, cr4, {0}
     fbc:	1b000004 	blne	fd4 <__code_start__-0x702c>
     fc0:	00000426 	andeq	r0, r0, r6, lsr #8
     fc4:	c809e401 	stmdagt	r9, {r0, sl, sp, lr, pc}
     fc8:	df000001 	svcle	0x00000001
     fcc:	d1000004 	tstle	r0, r4
     fd0:	15000004 	strne	r0, [r0, #-4]
     fd4:	000085f8 	strdeq	r8, [r0], -r8	; <UNPREDICTABLE>
     fd8:	00000b7c 	andeq	r0, r0, ip, ror fp
     fdc:	00000349 	andeq	r0, r0, r9, asr #6
     fe0:	05500116 	ldrbeq	r0, [r0, #-278]	; 0xfffffeea
     fe4:	009f0003 	addseq	r0, pc, r3
     fe8:	00150000 	andseq	r0, r5, r0
     fec:	7c000086 	stcvc	0, cr0, [r0], {134}	; 0x86
     ff0:	6000000b 	andvs	r0, r0, fp
     ff4:	16000003 	strne	r0, [r0], -r3
     ff8:	03055001 	movweq	r5, #20481	; 0x5001
     ffc:	0000a028 	andeq	sl, r0, r8, lsr #32
    1000:	86041700 	strhi	r1, [r4], -r0, lsl #14
    1004:	0b940000 	bleq	fe50100c <__bss_end__+0xfe4f662c>
    1008:	20150000 	andscs	r0, r5, r0
    100c:	a0000086 	andge	r0, r0, r6, lsl #1
    1010:	7d00000b 	stcvc	0, cr0, [r0, #-44]	; 0xffffffd4
    1014:	16000003 	strne	r0, [r0], -r3
    1018:	74025001 	strvc	r5, [r2], #-1
    101c:	74150000 	ldrvc	r0, [r5], #-0
    1020:	7c000086 	stcvc	0, cr0, [r0], {134}	; 0x86
    1024:	9a00000b 	bls	1058 <__code_start__-0x6fa8>
    1028:	16000003 	strne	r0, [r0], -r3
    102c:	03055001 	movweq	r5, #20481	; 0x5001
    1030:	0000a038 	andeq	sl, r0, r8, lsr r0
    1034:	02510116 	subseq	r0, r1, #-2147483643	; 0x80000005
    1038:	1d000074 	stcne	0, cr0, [r0, #-464]	; 0xfffffe30
    103c:	0000868c 	andeq	r8, r0, ip, lsl #13
    1040:	00000b7c 	andeq	r0, r0, ip, ror fp
    1044:	05500116 	ldrbeq	r0, [r0, #-278]	; 0xfffffeea
    1048:	00a06403 	adceq	r6, r0, r3, lsl #8
    104c:	51011600 	tstpl	r1, r0, lsl #12
    1050:	16007502 	strne	r7, [r0], -r2, lsl #10
    1054:	77025201 	strvc	r5, [r2, -r1, lsl #4]
    1058:	53011600 	movwpl	r1, #5632	; 0x1600
    105c:	00007602 	andeq	r7, r0, r2, lsl #12
    1060:	04331a00 	ldrteq	r1, [r3], #-2560	; 0xfffff600
    1064:	d0010000 	andle	r0, r1, r0
    1068:	00002c0a 	andeq	r2, r0, sl, lsl #24
    106c:	0089bc00 	addeq	fp, r9, r0, lsl #24
    1070:	00005000 	andeq	r5, r0, r0
    1074:	669c0100 	ldrvs	r0, [ip], r0, lsl #2
    1078:	1b000004 	blne	1090 <__code_start__-0x6f70>
    107c:	000003dc 	ldrdeq	r0, [r0], -ip
    1080:	2c0ed501 	cfstr32cs	mvfx13, [lr], {1}
    1084:	3a000000 	bcc	108c <__code_start__-0x6f74>
    1088:	34000005 	strcc	r0, [r0], #-5
    108c:	14000005 	strne	r0, [r0], #-5
    1090:	0000008c 	andeq	r0, r0, ip, lsl #1
    1094:	00000476 	andeq	r0, r0, r6, ror r4
    1098:	a2080305 	andge	r0, r8, #335544320	; 0x14000000
    109c:	c8150000 	ldmdagt	r5, {}	; <UNPREDICTABLE>
    10a0:	18000089 	stmdane	r0, {r0, r3, r7}
    10a4:	10000005 	andne	r0, r0, r5
    10a8:	16000004 	strne	r0, [r0], -r4
    10ac:	31015001 	tstcc	r1, r1
    10b0:	89dc1500 	ldmibhi	ip, {r8, sl, ip}^
    10b4:	0b7c0000 	bleq	1f010bc <__bss_end__+0x1ef66dc>
    10b8:	042d0000 	strteq	r0, [sp], #-0
    10bc:	01160000 	tsteq	r6, r0
    10c0:	94030550 	strls	r0, [r3], #-1360	; 0xfffffab0
    10c4:	160000a1 	strne	r0, [r0], -r1, lsr #1
    10c8:	74025101 	strvc	r5, [r2], #-257	; 0xfffffeff
    10cc:	f8150000 			; <UNDEFINED> instruction: 0xf8150000
    10d0:	7c000089 	stcvc	0, cr0, [r0], {137}	; 0x89
    10d4:	5c00000b 	stcpl	0, cr0, [r0], {11}
    10d8:	16000004 	strne	r0, [r0], -r4
    10dc:	03055001 	movweq	r5, #20481	; 0x5001
    10e0:	0000a16c 	andeq	sl, r0, ip, ror #2
    10e4:	05510116 	ldrbeq	r0, [r1, #-278]	; 0xfffffeea
    10e8:	00a09803 	adceq	r9, r0, r3, lsl #16
    10ec:	52011600 	andpl	r1, r1, #0, 12
    10f0:	a2080305 	andge	r0, r8, #335544320	; 0x14000000
    10f4:	01160000 	tsteq	r6, r0
    10f8:	d7080253 	smlsdle	r8, r3, r2, r0
    10fc:	89fc1700 	ldmibhi	ip!, {r8, r9, sl, ip}^
    1100:	0b880000 	bleq	fe201108 <__bss_end__+0xfe1f6728>
    1104:	18000000 	stmdane	r0, {}	; <UNPREDICTABLE>
    1108:	000000c5 	andeq	r0, r0, r5, asr #1
    110c:	00000476 	andeq	r0, r0, r6, ror r4
    1110:	00002c19 	andeq	r2, r0, r9, lsl ip
    1114:	04001100 	streq	r1, [r0], #-256	; 0xffffff00
    1118:	00000466 	andeq	r0, r0, r6, ror #8
    111c:	00002d13 	andeq	r2, r0, r3, lsl sp
    1120:	06c30100 	strbeq	r0, [r3], r0, lsl #2
    1124:	00008974 	andeq	r8, r0, r4, ror r9
    1128:	00000048 	andeq	r0, r0, r8, asr #32
    112c:	05039c01 	streq	r9, [r3, #-3073]	; 0xfffff3ff
    1130:	8c140000 	ldchi	0, cr0, [r4], {-0}
    1134:	13000000 	movwne	r0, #0
    1138:	05000005 	streq	r0, [r0, #-5]
    113c:	00a1f803 	adceq	pc, r1, r3, lsl #16
    1140:	89801500 	stmibhi	r0, {r8, sl, ip}
    1144:	05180000 	ldreq	r0, [r8, #-0]
    1148:	04b30000 	ldrteq	r0, [r3], #0
    114c:	01160000 	tsteq	r6, r0
    1150:	00310150 	eorseq	r0, r1, r0, asr r1
    1154:	00899015 	addeq	r9, r9, r5, lsl r0
    1158:	000b7c00 	andeq	r7, fp, r0, lsl #24
    115c:	0004ca00 	andeq	ip, r4, r0, lsl #20
    1160:	50011600 	andpl	r1, r1, r0, lsl #12
    1164:	a14c0305 	cmpge	ip, r5, lsl #6
    1168:	15000000 	strne	r0, [r0, #-0]
    116c:	000089a8 	andeq	r8, r0, r8, lsr #19
    1170:	00000b7c 	andeq	r0, r0, ip, ror fp
    1174:	000004f9 	strdeq	r0, [r0], -r9
    1178:	05500116 	ldrbeq	r0, [r0, #-278]	; 0xfffffeea
    117c:	00a12003 	adceq	r2, r1, r3
    1180:	51011600 	tstpl	r1, r0, lsl #12
    1184:	a0980305 	addsge	r0, r8, r5, lsl #6
    1188:	01160000 	tsteq	r6, r0
    118c:	f8030552 			; <UNDEFINED> instruction: 0xf8030552
    1190:	160000a1 	strne	r0, [r0], -r1, lsr #1
    1194:	08025301 	stmdaeq	r2, {r0, r8, r9, ip, lr}
    1198:	ac1700c9 	ldcge	0, cr0, [r7], {201}	; 0xc9
    119c:	88000089 	stmdahi	r0, {r0, r3, r7}
    11a0:	0000000b 	andeq	r0, r0, fp
    11a4:	0000c518 	andeq	ip, r0, r8, lsl r5
    11a8:	00051300 	andeq	r1, r5, r0, lsl #6
    11ac:	002c1900 	eoreq	r1, ip, r0, lsl #18
    11b0:	000d0000 	andeq	r0, sp, r0
    11b4:	00050304 	andeq	r0, r5, r4, lsl #6
    11b8:	03e31a00 	mvneq	r1, #0, 20
    11bc:	bb010000 	bllt	411c4 <__bss_end__+0x367e4>
    11c0:	00002c0a 	andeq	r2, r0, sl, lsl #24
    11c4:	00894400 	addeq	r4, r9, r0, lsl #8
    11c8:	00003000 	andeq	r3, r0, r0
    11cc:	8e9c0100 	fmlhie	f0, f4, f0
    11d0:	1e000005 	cdpne	0, 0, cr0, cr0, cr5, {0}
    11d4:	00000486 	andeq	r0, r0, r6, lsl #9
    11d8:	251cbb01 	ldrcs	fp, [ip, #-2817]	; 0xfffff4ff
    11dc:	67000000 	strvs	r0, [r0, -r0]
    11e0:	63000005 	movwvs	r0, #5
    11e4:	15000005 	strne	r0, [r0, #-5]
    11e8:	00008954 	andeq	r8, r0, r4, asr r9
    11ec:	00000b7c 	andeq	r0, r0, ip, ror fp
    11f0:	0000055d 	andeq	r0, r0, sp, asr r5
    11f4:	05500116 	ldrbeq	r0, [r0, #-278]	; 0xfffffeea
    11f8:	00a10403 	adceq	r0, r1, r3, lsl #8
    11fc:	58170000 	ldmdapl	r7, {}	; <UNPREDICTABLE>
    1200:	8e000089 	cdphi	0, 0, cr0, cr0, cr9, {4}
    1204:	15000005 	strne	r0, [r0, #-5]
    1208:	00008960 	andeq	r8, r0, r0, ror #18
    120c:	00000b7c 	andeq	r0, r0, ip, ror fp
    1210:	0000057d 	andeq	r0, r0, sp, ror r5
    1214:	05500116 	ldrbeq	r0, [r0, #-278]	; 0xfffffeea
    1218:	00a11803 	adceq	r1, r1, r3, lsl #16
    121c:	681d0000 	ldmdavs	sp, {}	; <UNPREDICTABLE>
    1220:	b0000089 	andlt	r0, r0, r9, lsl #1
    1224:	16000006 	strne	r0, [r0], -r6
    1228:	74025001 	strvc	r5, [r2], #-1
    122c:	1f000000 	svcne	0x00000000
    1230:	00000369 	andeq	r0, r0, r9, ror #6
    1234:	000d9301 	andeq	r9, sp, r1, lsl #6
    1238:	90000088 	andls	r0, r0, r8, lsl #1
    123c:	01000000 	mrseq	r0, (UNDEF: 0)
    1240:	0006859c 	muleq	r6, ip, r5
    1244:	03d71200 	bicseq	r1, r7, #0, 4
    1248:	9d010000 	stcls	0, cr0, [r1, #-0]
    124c:	0006850e 	andeq	r8, r6, lr, lsl #10
    1250:	b8910300 	ldmlt	r1, {r8, r9}
    1254:	008c207f 	addeq	r2, ip, pc, ror r0
    1258:	06a50000 	strteq	r0, [r5], r0
    125c:	53210000 			; <UNDEFINED> instruction: 0x53210000
    1260:	01000003 	tsteq	r0, r3
    1264:	06aa0fae 	strteq	r0, [sl], lr, lsr #31
    1268:	00000000 	andeq	r0, r0, r0
    126c:	81080800 	tsthi	r8, r0, lsl #16
    1270:	01000003 	tsteq	r0, r3
    1274:	006e15b2 	strhteq	r1, [lr], #-82	; 0xffffffae
    1278:	45080000 	strmi	r0, [r8, #-0]
    127c:	01000004 	tsteq	r0, r4
    1280:	006e24b2 	strhteq	r2, [lr], #-66	; 0xffffffbe
    1284:	45080000 	strmi	r0, [r8, #-0]
    1288:	01000002 	tsteq	r0, r2
    128c:	006e15b5 	strhteq	r1, [lr], #-85	; 0xffffffab
    1290:	5f080000 	svcpl	0x00080000
    1294:	01000002 	tsteq	r0, r2
    1298:	006e25b5 	strhteq	r2, [lr], #-85	; 0xffffffab
    129c:	08220000 	stmdaeq	r2!, {}	; <UNPREDICTABLE>
    12a0:	24000088 	strcs	r0, [r0], #-136	; 0xffffff78
    12a4:	2f000000 	svccs	0x00000000
    12a8:	23000006 	movwcs	r0, #6
    12ac:	97010068 	strls	r0, [r1, -r8, rrx]
    12b0:	0001c810 	andeq	ip, r1, r0, lsl r8
    12b4:	00058900 	andeq	r8, r5, r0, lsl #18
    12b8:	00058500 	andeq	r8, r5, r0, lsl #10
    12bc:	880c1700 	stmdahi	ip, {r8, r9, sl, ip}
    12c0:	0b940000 	bleq	fe5012c8 <__bss_end__+0xfe4f68e8>
    12c4:	28170000 	ldmdacs	r7, {}	; <UNPREDICTABLE>
    12c8:	a0000088 	andge	r0, r0, r8, lsl #1
    12cc:	0000000b 	andeq	r0, r0, fp
    12d0:	00883415 	addeq	r3, r8, r5, lsl r4
    12d4:	000bac00 	andeq	sl, fp, r0, lsl #24
    12d8:	00064300 	andeq	r4, r6, r0, lsl #6
    12dc:	50011600 	andpl	r1, r1, r0, lsl #12
    12e0:	00007d02 	andeq	r7, r0, r2, lsl #26
    12e4:	00885415 	addeq	r5, r8, r5, lsl r4
    12e8:	00080100 	andeq	r0, r8, r0, lsl #2
    12ec:	00065d00 	andeq	r5, r6, r0, lsl #26
    12f0:	50011600 	andpl	r1, r1, r0, lsl #12
    12f4:	16007d02 	strne	r7, [r0], -r2, lsl #26
    12f8:	91025101 	tstls	r2, r1, lsl #2
    12fc:	60150070 	andsvs	r0, r5, r0, ror r0
    1300:	01000088 	smlabbeq	r0, r8, r0, r0
    1304:	72000008 	andvc	r0, r0, #8, 0
    1308:	16000006 	strne	r0, [r0], -r6
    130c:	40035101 	andmi	r5, r3, r1, lsl #2
    1310:	17002447 	strne	r2, [r0, -r7, asr #8]
    1314:	0000886c 	andeq	r8, r0, ip, ror #16
    1318:	00000801 	andeq	r0, r0, r1, lsl #16
    131c:	00887817 	addeq	r7, r8, r7, lsl r8
    1320:	00080100 	andeq	r0, r8, r0, lsl #2
    1324:	6e180000 	cdpvs	0, 1, cr0, cr8, cr0, {0}
    1328:	95000000 	strls	r0, [r0, #-0]
    132c:	19000006 	stmdbne	r0, {r1, r2}
    1330:	0000002c 	andeq	r0, r0, ip, lsr #32
    1334:	c518000f 	ldrgt	r0, [r8, #-15]
    1338:	a5000000 	strge	r0, [r0, #-0]
    133c:	19000006 	stmdbne	r0, {r1, r2}
    1340:	0000002c 	andeq	r0, r0, ip, lsr #32
    1344:	95040008 	strls	r0, [r4, #-8]
    1348:	09000006 	stmdbeq	r0, {r1, r2}
    134c:	00006e04 	andeq	r6, r0, r4, lsl #28
    1350:	04701c00 	ldrbteq	r1, [r0], #-3072	; 0xfffff400
    1354:	69010000 	stmdbvs	r1, {}	; <UNPREDICTABLE>
    1358:	00002c11 	andeq	r2, r0, r1, lsl ip
    135c:	0084ec00 	addeq	lr, r4, r0, lsl #24
    1360:	00010000 	andeq	r0, r1, r0
    1364:	019c0100 	orrseq	r0, ip, r0, lsl #2
    1368:	1e000008 	cdpne	0, 0, cr0, cr0, cr8, {0}
    136c:	00000486 	andeq	r0, r0, r6, lsl #9
    1370:	25206901 	strcs	r6, [r0, #-2305]!	; 0xfffff6ff
    1374:	ab000000 	blge	137c <__code_start__-0x6c84>
    1378:	a7000005 	strge	r0, [r0, -r5]
    137c:	1b000005 	blne	1398 <__code_start__-0x6c68>
    1380:	00000399 	muleq	r0, r9, r3
    1384:	2c0b6a01 			; <UNDEFINED> instruction: 0x2c0b6a01
    1388:	d0000000 	andle	r0, r0, r0
    138c:	cc000005 	stcgt	0, cr0, [r0], {5}
    1390:	1b000005 	blne	13ac <__code_start__-0x6c54>
    1394:	000003c5 	andeq	r0, r0, r5, asr #7
    1398:	2c186a01 			; <UNDEFINED> instruction: 0x2c186a01
    139c:	f3000000 	vhadd.u8	d0, d0, d0
    13a0:	ef000005 	svc	0x00000005
    13a4:	1b000005 	blne	13c0 <__code_start__-0x6c40>
    13a8:	000003bf 			; <UNDEFINED> instruction: 0x000003bf
    13ac:	2c246a01 			; <UNDEFINED> instruction: 0x2c246a01
    13b0:	16000000 	strne	r0, [r0], -r0
    13b4:	12000006 	andne	r0, r0, #6, 0
    13b8:	1b000006 	blne	13d8 <__code_start__-0x6c28>
    13bc:	00000426 	andeq	r0, r0, r6, lsr #8
    13c0:	c8096f01 	stmdagt	r9, {r0, r8, r9, sl, fp, sp, lr}
    13c4:	3d000001 	stccc	0, cr0, [r0, #-4]
    13c8:	35000006 	strcc	r0, [r0, #-6]
    13cc:	15000006 	strne	r0, [r0, #-6]
    13d0:	000084f8 	strdeq	r8, [r0], -r8	; <UNPREDICTABLE>
    13d4:	00000b7c 	andeq	r0, r0, ip, ror fp
    13d8:	00000745 	andeq	r0, r0, r5, asr #14
    13dc:	05500116 	ldrbeq	r0, [r0, #-278]	; 0xfffffeea
    13e0:	009f0003 	addseq	r0, pc, r3
    13e4:	00150000 	andseq	r0, r5, r0
    13e8:	7c000085 	stcvc	0, cr0, [r0], {133}	; 0x85
    13ec:	5c00000b 	stcpl	0, cr0, [r0], {11}
    13f0:	16000007 	strne	r0, [r0], -r7
    13f4:	03055001 	movweq	r5, #20481	; 0x5001
    13f8:	00009f3c 	andeq	r9, r0, ip, lsr pc
    13fc:	85041700 	strhi	r1, [r4, #-1792]	; 0xfffff900
    1400:	0b940000 	bleq	fe501408 <__bss_end__+0xfe4f6a28>
    1404:	40150000 	andsmi	r0, r5, r0
    1408:	7c000085 	stcvc	0, cr0, [r0], {133}	; 0x85
    140c:	8200000b 	andhi	r0, r0, #11, 0
    1410:	16000007 	strne	r0, [r0], -r7
    1414:	03055001 	movweq	r5, #20481	; 0x5001
    1418:	00009f54 	andeq	r9, r0, r4, asr pc
    141c:	02510116 	subseq	r0, r1, #-2147483643	; 0x80000005
    1420:	15000074 	strne	r0, [r0, #-116]	; 0xffffff8c
    1424:	00008548 	andeq	r8, r0, r8, asr #10
    1428:	00000ba0 	andeq	r0, r0, r0, lsr #23
    142c:	00000796 	muleq	r0, r6, r7
    1430:	02500116 	subseq	r0, r0, #-2147483643	; 0x80000005
    1434:	15000074 	strne	r0, [r0, #-116]	; 0xffffff8c
    1438:	0000859c 	muleq	r0, ip, r5
    143c:	00000b7c 	andeq	r0, r0, ip, ror fp
    1440:	000007b3 			; <UNDEFINED> instruction: 0x000007b3
    1444:	05500116 	ldrbeq	r0, [r0, #-278]	; 0xfffffeea
    1448:	009f7403 	addseq	r7, pc, r3, lsl #8
    144c:	51011600 	tstpl	r1, r0, lsl #12
    1450:	00007502 	andeq	r7, r0, r2, lsl #10
    1454:	0085ac15 	addeq	sl, r5, r5, lsl ip
    1458:	000b7c00 	andeq	r7, fp, r0, lsl #24
    145c:	0007ca00 	andeq	ip, r7, r0, lsl #20
    1460:	50011600 	andpl	r1, r1, r0, lsl #12
    1464:	9f940305 	svcls	0x00940305
    1468:	15000000 	strne	r0, [r0, #-0]
    146c:	000085b4 			; <UNDEFINED> instruction: 0x000085b4
    1470:	00000b7c 	andeq	r0, r0, ip, ror fp
    1474:	000007e1 	andeq	r0, r0, r1, ror #15
    1478:	05500116 	ldrbeq	r0, [r0, #-278]	; 0xfffffeea
    147c:	009fec03 	addseq	lr, pc, r3, lsl #24
    1480:	cc1d0000 	ldcgt	0, cr0, [sp], {-0}
    1484:	7c000085 	stcvc	0, cr0, [r0], {133}	; 0x85
    1488:	1600000b 	strne	r0, [r0], -fp
    148c:	03055001 	movweq	r5, #20481	; 0x5001
    1490:	00009fbc 			; <UNDEFINED> instruction: 0x00009fbc
    1494:	02510116 	subseq	r0, r1, #-2147483643	; 0x80000005
    1498:	01160077 	tsteq	r6, r7, ror r0
    149c:	00760252 	rsbseq	r0, r6, r2, asr r2
    14a0:	201f0000 	andscs	r0, pc, r0
    14a4:	01000000 	mrseq	r0, (UNDEF: 0)
    14a8:	86cc0d4b 	strbhi	r0, [ip], fp, asr #26
    14ac:	01340000 	teqeq	r4, r0
    14b0:	9c010000 	stcls	0, cr0, [r1], {-0}
    14b4:	000009ba 			; <UNDEFINED> instruction: 0x000009ba
    14b8:	01007024 	tsteq	r0, r4, lsr #32
    14bc:	06aa1c4b 	strteq	r1, [sl], fp, asr #24
    14c0:	067f0000 	ldrbteq	r0, [pc], -r0
    14c4:	06710000 	ldrbteq	r0, [r1], -r0
    14c8:	65240000 	strvs	r0, [r4, #-0]!
    14cc:	294b0100 	stmdbcs	fp, {r8}^
    14d0:	000006aa 	andeq	r0, r0, sl, lsr #13
    14d4:	000006ea 	andeq	r0, r0, sl, ror #13
    14d8:	000006da 	ldrdeq	r0, [r0], -sl
    14dc:	00008c14 	andeq	r8, r0, r4, lsl ip
    14e0:	0009ca00 	andeq	ip, r9, r0, lsl #20
    14e4:	e8030500 	stmda	r3, {r8, sl}
    14e8:	1b0000a1 	blne	1774 <__code_start__-0x688c>
    14ec:	0000038f 	andeq	r0, r0, pc, lsl #7
    14f0:	33115101 	tstcc	r1, #1073741824	; 0x40000000
    14f4:	5c000000 	stcpl	0, cr0, [r0], {-0}
    14f8:	56000007 	strpl	r0, [r0], -r7
    14fc:	25000007 	strcs	r0, [r0, #-7]
    1500:	00000018 	andeq	r0, r0, r8, lsl r0
    1504:	000008f3 	strdeq	r0, [r0], -r3
    1508:	01006923 	tsteq	r0, r3, lsr #18
    150c:	002c1052 	eoreq	r1, ip, r2, asr r0
    1510:	07920000 	ldreq	r0, [r2, r0]
    1514:	078e0000 	streq	r0, [lr, r0]
    1518:	30260000 	eorcc	r0, r6, r0
    151c:	1b000000 	blne	1524 <__code_start__-0x6adc>
    1520:	0000040e 	andeq	r0, r0, lr, lsl #8
    1524:	c80a5301 	stmdagt	sl, {r0, r8, r9, ip, lr}
    1528:	b7000001 	strlt	r0, [r0, -r1]
    152c:	b1000007 	tstlt	r0, r7
    1530:	25000007 	strcs	r0, [r0, #-7]
    1534:	00000048 	andeq	r0, r0, r8, asr #32
    1538:	000008e8 	andeq	r0, r0, r8, ror #17
    153c:	00035d1b 	andeq	r5, r3, fp, lsl sp
    1540:	0e5e0100 	rdfeqe	f0, f6, f0
    1544:	000006aa 	andeq	r0, r0, sl, lsr #13
    1548:	000007e4 	andeq	r0, r0, r4, ror #15
    154c:	000007e0 	andeq	r0, r0, r0, ror #15
    1550:	0003fd1b 	andeq	pc, r3, fp, lsl sp	; <UNPREDICTABLE>
    1554:	0e5f0100 	rdfeqe	f0, f7, f0
    1558:	000006aa 	andeq	r0, r0, sl, lsr #13
    155c:	00000808 	andeq	r0, r0, r8, lsl #16
    1560:	00000804 	andeq	r0, r0, r4, lsl #16
    1564:	00877815 	addeq	r7, r7, r5, lsl r8
    1568:	00080100 	andeq	r0, r8, r0, lsl #2
    156c:	0008d700 	andeq	sp, r8, r0, lsl #14
    1570:	50011600 	andpl	r1, r1, r0, lsl #12
    1574:	00247402 	eoreq	r7, r4, r2, lsl #8
    1578:	0087b81d 	addeq	fp, r7, sp, lsl r8
    157c:	000bb800 	andeq	fp, fp, r0, lsl #16
    1580:	50011600 	andpl	r1, r1, r0, lsl #12
    1584:	00007402 	andeq	r7, r0, r2, lsl #8
    1588:	87901700 	ldrhi	r1, [r0, r0, lsl #14]
    158c:	09cf0000 	stmibeq	pc, {}^	; <UNPREDICTABLE>
    1590:	00000000 	andeq	r0, r0, r0
    1594:	00871815 	addeq	r1, r7, r5, lsl r8
    1598:	000b7c00 	andeq	r7, fp, r0, lsl #24
    159c:	00092c00 	andeq	r2, r9, r0, lsl #24
    15a0:	50011600 	andpl	r1, r1, r0, lsl #12
    15a4:	9df00305 	ldclls	3, cr0, [r0, #20]!
    15a8:	01160000 	tsteq	r6, r0
    15ac:	98030551 	stmdals	r3, {r0, r4, r6, r8, sl}
    15b0:	160000a0 	strne	r0, [r0], -r0, lsr #1
    15b4:	03055201 	movweq	r5, #20993	; 0x5201
    15b8:	0000a1e8 	andeq	sl, r0, r8, ror #3
    15bc:	02530116 	subseq	r0, r3, #-2147483643	; 0x80000005
    15c0:	02164c08 	andseq	r4, r6, #8, 24	; 0x800
    15c4:	0305007d 	movweq	r0, #20605	; 0x507d
    15c8:	0000a0a0 	andeq	sl, r0, r0, lsr #1
    15cc:	871c1700 	ldrhi	r1, [ip, -r0, lsl #14]
    15d0:	0b880000 	bleq	fe2015d8 <__bss_end__+0xfe1f6bf8>
    15d4:	38150000 	ldmdacc	r5, {}	; <UNPREDICTABLE>
    15d8:	7c000087 	stcvc	0, cr0, [r0], {135}	; 0x87
    15dc:	6e00000b 	cdpvs	0, 0, cr0, cr0, cr11, {0}
    15e0:	16000009 	strne	r0, [r0], -r9
    15e4:	03055001 	movweq	r5, #20481	; 0x5001
    15e8:	00009df0 	strdeq	r9, [r0], -r0
    15ec:	05510116 	ldrbeq	r0, [r1, #-278]	; 0xfffffeea
    15f0:	00a09803 	adceq	r9, r0, r3, lsl #16
    15f4:	52011600 	andpl	r1, r1, #0, 12
    15f8:	a1e80305 	mvnge	r0, r5, lsl #6
    15fc:	01160000 	tsteq	r6, r0
    1600:	4e080253 	mcrmi	2, 0, r0, cr8, cr3, {2}
    1604:	007d0216 	rsbseq	r0, sp, r6, lsl r2
    1608:	a0a40305 	adcge	r0, r4, r5, lsl #6
    160c:	17000000 	strne	r0, [r0, -r0]
    1610:	0000873c 	andeq	r8, r0, ip, lsr r7
    1614:	00000b88 	andeq	r0, r0, r8, lsl #23
    1618:	00875815 	addeq	r5, r7, r5, lsl r8
    161c:	000b7c00 	andeq	r7, fp, r0, lsl #24
    1620:	0009b000 	andeq	fp, r9, r0
    1624:	50011600 	andpl	r1, r1, r0, lsl #12
    1628:	9df00305 	ldclls	3, cr0, [r0, #20]!
    162c:	01160000 	tsteq	r6, r0
    1630:	98030551 	stmdals	r3, {r0, r4, r6, r8, sl}
    1634:	160000a0 	strne	r0, [r0], -r0, lsr #1
    1638:	03055201 	movweq	r5, #20993	; 0x5201
    163c:	0000a1e8 	andeq	sl, r0, r8, ror #3
    1640:	02530116 	subseq	r0, r3, #-2147483643	; 0x80000005
    1644:	02164f08 	andseq	r4, r6, #8, 30
    1648:	0305007d 	movweq	r0, #20605	; 0x507d
    164c:	0000a0b4 	strheq	sl, [r0], -r4
    1650:	875c1700 	ldrbhi	r1, [ip, -r0, lsl #14]
    1654:	0b880000 	bleq	fe20165c <__bss_end__+0xfe1f6c7c>
    1658:	18000000 	stmdane	r0, {}	; <UNPREDICTABLE>
    165c:	000000c5 	andeq	r0, r0, r5, asr #1
    1660:	000009ca 	andeq	r0, r0, sl, asr #19
    1664:	00002c19 	andeq	r2, r0, r9, lsl ip
    1668:	04000400 	streq	r0, [r0], #-1024	; 0xfffffc00
    166c:	000009ba 			; <UNDEFINED> instruction: 0x000009ba
    1670:	0003f61c 	andeq	pc, r3, ip, lsl r6	; <UNPREDICTABLE>
    1674:	0f380100 	svceq	0x00380100
    1678:	000001c8 	andeq	r0, r0, r8, asr #3
    167c:	000086a4 	andeq	r8, r0, r4, lsr #13
    1680:	00000028 	andeq	r0, r0, r8, lsr #32
    1684:	0a349c01 	beq	d28690 <__bss_end__+0xd1dcb0>
    1688:	d81e0000 	ldmdale	lr, {}	; <UNPREDICTABLE>
    168c:	0100000a 	tsteq	r0, sl
    1690:	006e1f38 	rsbeq	r1, lr, r8, lsr pc
    1694:	082f0000 	stmdaeq	pc!, {}	; <UNPREDICTABLE>
    1698:	082b0000 	stmdaeq	fp!, {}	; <UNPREDICTABLE>
    169c:	70230000 	eorvc	r0, r3, r0
    16a0:	0b390100 	bleq	e41aa8 <__bss_end__+0xe370c8>
    16a4:	000001db 	ldrdeq	r0, [r0], -fp
    16a8:	00000851 	andeq	r0, r0, r1, asr r8
    16ac:	0000084d 	andeq	r0, r0, sp, asr #16
    16b0:	0086b015 	addeq	fp, r6, r5, lsl r0
    16b4:	000a3400 	andeq	r3, sl, r0, lsl #8
    16b8:	000a2300 	andeq	r2, sl, r0, lsl #6
    16bc:	50011600 	andpl	r1, r1, r0, lsl #12
    16c0:	00007402 	andeq	r7, r0, r2, lsl #8
    16c4:	0086c01d 	addeq	ip, r6, sp, lsl r0
    16c8:	000bc400 	andeq	ip, fp, r0, lsl #8
    16cc:	50011600 	andpl	r1, r1, r0, lsl #12
    16d0:	00007402 	andeq	r7, r0, r2, lsl #8
    16d4:	04181c00 	ldreq	r1, [r8], #-3072	; 0xfffff400
    16d8:	28010000 	stmdacs	r1, {}	; <UNPREDICTABLE>
    16dc:	0000250c 	andeq	r2, r0, ip, lsl #10
    16e0:	0084b000 	addeq	fp, r4, r0
    16e4:	00003c00 	andeq	r3, r0, r0, lsl #24
    16e8:	619c0100 	orrsvs	r0, ip, r0, lsl #2
    16ec:	2400000a 	strcs	r0, [r0], #-10
    16f0:	28010070 	stmdacs	r1, {r4, r5, r6}
    16f4:	0001db1a 	andeq	sp, r1, sl, lsl fp
    16f8:	00087b00 	andeq	r7, r8, r0, lsl #22
    16fc:	00086f00 	andeq	r6, r8, r0, lsl #30
    1700:	f11a0000 			; <UNDEFINED> instruction: 0xf11a0000
    1704:	01000003 	tsteq	r0, r3
    1708:	01db0713 	bicseq	r0, fp, r3, lsl r7
    170c:	88900000 	ldmhi	r0, {}	; <UNPREDICTABLE>
    1710:	00b40000 	adcseq	r0, r4, r0
    1714:	9c010000 	stcls	0, cr0, [r1], {-0}
    1718:	00000b7c 	andeq	r0, r0, ip, ror fp
    171c:	0003b51e 	andeq	fp, r3, lr, lsl r5
    1720:	11130100 	tstne	r3, r0, lsl #2
    1724:	00000046 	andeq	r0, r0, r6, asr #32
    1728:	000008d2 	ldrdeq	r0, [r0], -r2
    172c:	000008ce 	andeq	r0, r0, lr, asr #17
    1730:	00008c14 	andeq	r8, r0, r4, lsl ip
    1734:	0009ca00 	andeq	ip, r9, r0, lsl #20
    1738:	f0030500 			; <UNDEFINED> instruction: 0xf0030500
    173c:	220000a1 	andcs	r0, r0, #161, 0	; 0xa1
    1740:	000088bc 			; <UNDEFINED> instruction: 0x000088bc
    1744:	00000024 	andeq	r0, r0, r4, lsr #32
    1748:	00000ad8 	ldrdeq	r0, [r0], -r8
    174c:	0004201b 	andeq	r2, r4, fp, lsl r0
    1750:	12190100 	andsne	r0, r9, #0
    1754:	0000002c 	andeq	r0, r0, ip, lsr #32
    1758:	000008f2 	strdeq	r0, [r0], -r2
    175c:	000008f0 	strdeq	r0, [r0], -r0	; <UNPREDICTABLE>
    1760:	0088d81d 	addeq	sp, r8, sp, lsl r8
    1764:	000bd000 	andeq	sp, fp, r0
    1768:	50011600 	andpl	r1, r1, r0, lsl #12
    176c:	24404003 	strbcs	r4, [r0], #-3
    1770:	03510116 	cmpeq	r1, #-2147483643	; 0x80000005
    1774:	00244040 	eoreq	r4, r4, r0, asr #32
    1778:	88a41500 	stmiahi	r4!, {r8, sl, ip}
    177c:	0b7c0000 	bleq	1f01784 <__bss_end__+0x1ef6da4>
    1780:	0aef0000 	beq	ffbc1788 <__bss_end__+0xffbb6da8>
    1784:	01160000 	tsteq	r6, r0
    1788:	c4030550 	strgt	r0, [r3], #-1360	; 0xfffffab0
    178c:	000000a0 	andeq	r0, r0, r0, lsr #1
    1790:	0088e815 	addeq	lr, r8, r5, lsl r8
    1794:	000bdc00 	andeq	sp, fp, r0, lsl #24
    1798:	000b0300 	andeq	r0, fp, r0, lsl #6
    179c:	50011600 	andpl	r1, r1, r0, lsl #12
    17a0:	00007402 	andeq	r7, r0, r2, lsl #8
    17a4:	00890c15 	addeq	r0, r9, r5, lsl ip
    17a8:	000b7c00 	andeq	r7, fp, r0, lsl #24
    17ac:	000b3b00 	andeq	r3, fp, r0, lsl #22
    17b0:	50011600 	andpl	r1, r1, r0, lsl #12
    17b4:	9df00305 	ldclls	3, cr0, [r0, #20]!
    17b8:	01160000 	tsteq	r6, r0
    17bc:	98030551 	stmdals	r3, {r0, r4, r6, r8, sl}
    17c0:	160000a0 	strne	r0, [r0], -r0, lsr #1
    17c4:	03055201 	movweq	r5, #20993	; 0x5201
    17c8:	0000a1f0 	strdeq	sl, [r0], -r0
    17cc:	01530116 	cmpeq	r3, r6, lsl r1
    17d0:	7d021645 	stcvc	6, cr1, [r2, #-276]	; 0xfffffeec
    17d4:	d4030500 	strle	r0, [r3], #-1280	; 0xfffffb00
    17d8:	000000a0 	andeq	r0, r0, r0, lsr #1
    17dc:	00891017 	addeq	r1, r9, r7, lsl r0
    17e0:	000b8800 	andeq	r8, fp, r0, lsl #16
    17e4:	89241500 	stmdbhi	r4!, {r8, sl, ip}
    17e8:	0b7c0000 	bleq	1f017f0 <__bss_end__+0x1ef6e10>
    17ec:	0b720000 	bleq	1c817f4 <__bss_end__+0x1c76e14>
    17f0:	01160000 	tsteq	r6, r0
    17f4:	e4030550 	str	r0, [r3], #-1360	; 0xfffffab0
    17f8:	160000a0 	strne	r0, [r0], -r0, lsr #1
    17fc:	03055101 	movweq	r5, #20737	; 0x5101
    1800:	0000a098 	muleq	r0, r8, r0
    1804:	05520116 	ldrbeq	r0, [r2, #-278]	; 0xfffffeea
    1808:	00a1f003 	adceq	pc, r1, r3
    180c:	53011600 	movwpl	r1, #5632	; 0x1600
    1810:	17004701 	strne	r4, [r0, -r1, lsl #14]
    1814:	00008928 	andeq	r8, r0, r8, lsr #18
    1818:	00000b88 	andeq	r0, r0, r8, lsl #23
    181c:	061b2700 	ldreq	r2, [fp], -r0, lsl #14
    1820:	061b0000 	ldreq	r0, [fp], -r0
    1824:	28030000 	stmdacs	r3, {}	; <UNPREDICTABLE>
    1828:	02cc2706 	sbceq	r2, ip, #1572864	; 0x180000
    182c:	02cc0000 	sbceq	r0, ip, #0, 0
    1830:	6e030000 	cdpvs	0, 0, cr0, cr3, cr0, {0}
    1834:	02ac2706 	adceq	r2, ip, #1572864	; 0x180000
    1838:	02ac0000 	adceq	r0, ip, #0, 0
    183c:	22050000 	andcs	r0, r5, #0, 0
    1840:	02eb2708 	rsceq	r2, fp, #8, 14	; 0x200000
    1844:	02eb0000 	rsceq	r0, fp, #0, 0
    1848:	25050000 	strcs	r0, [r5, #-0]
    184c:	03d22708 	bicseq	r2, r2, #8, 14	; 0x200000
    1850:	03d20000 	bicseq	r0, r2, #0, 0
    1854:	90010000 	andls	r0, r1, r0
    1858:	02782706 	rsbseq	r2, r8, #1572864	; 0x180000
    185c:	02780000 	rsbseq	r0, r8, #0, 0
    1860:	32050000 	andcc	r0, r5, #0, 0
    1864:	02d92701 	sbcseq	r2, r9, #262144	; 0x40000
    1868:	02d90000 	sbcseq	r0, r9, #0, 0
    186c:	35050000 	strcc	r0, [r5, #-0]
    1870:	04592708 	ldrbeq	r2, [r9], #-1800	; 0xfffff8f8
    1874:	04590000 	ldrbeq	r0, [r9], #-0
    1878:	83030000 	movwhi	r0, #12288	; 0x3000
    187c:	04512706 	ldrbeq	r2, [r1], #-1798	; 0xfffff8fa
    1880:	04510000 	ldrbeq	r0, [r1], #-0
    1884:	7c030000 	stcvc	0, cr0, [r3], {-0}
    1888:	02da0007 	sbcseq	r0, sl, #7, 0
    188c:	00040000 	andeq	r0, r4, r0
    1890:	0000067f 	andeq	r0, r0, pc, ror r6
    1894:	01900104 	orrseq	r0, r0, r4, lsl #2
    1898:	ba0c0000 	blt	3018a0 <__bss_end__+0x2f6ec0>
    189c:	e4000004 	str	r0, [r0], #-4
    18a0:	88000000 	stmdahi	r0, {}	; <UNPREDICTABLE>
    18a4:	ac00008a 	stcge	0, cr0, [r0], {138}	; 0x8a
    18a8:	54000001 	strpl	r0, [r0], #-1
    18ac:	0200000b 	andeq	r0, r0, #11, 0
    18b0:	6e690504 	cdpvs	5, 6, cr0, cr9, cr4, {0}
    18b4:	04030074 	streq	r0, [r3], #-116	; 0xffffff8c
    18b8:	0000bd07 	andeq	fp, r0, r7, lsl #26
    18bc:	06010300 	streq	r0, [r1], -r0, lsl #6
    18c0:	0000004f 	andeq	r0, r0, pc, asr #32
    18c4:	56050203 	strpl	r0, [r5], -r3, lsl #4
    18c8:	03000001 	movweq	r0, #1
    18cc:	01410504 	cmpeq	r1, r4, lsl #10
    18d0:	08030000 	stmdaeq	r3, {}	; <UNPREDICTABLE>
    18d4:	00013c05 	andeq	r3, r1, r5, lsl #24
    18d8:	08010300 	stmdaeq	r1, {r8, r9}
    18dc:	0000004d 	andeq	r0, r0, sp, asr #32
    18e0:	5b070203 	blpl	1c20f4 <__bss_end__+0x1b7714>
    18e4:	03000000 	movweq	r0, #0
    18e8:	00b80704 	adcseq	r0, r8, r4, lsl #14
    18ec:	08030000 	stmdaeq	r3, {}	; <UNPREDICTABLE>
    18f0:	0000b307 	andeq	fp, r0, r7, lsl #6
    18f4:	00250400 	eoreq	r0, r5, r0, lsl #8
    18f8:	007a0000 	rsbseq	r0, sl, r0
    18fc:	25050000 	strcs	r0, [r5, #-0]
    1900:	00000000 	andeq	r0, r0, r0
    1904:	00014a06 	andeq	r4, r1, r6, lsl #20
    1908:	0e1c0200 	cdpeq	2, 1, cr0, cr12, cr0, {0}
    190c:	00000086 	andeq	r0, r0, r6, lsl #1
    1910:	006b0407 	rsbeq	r0, fp, r7, lsl #8
    1914:	25040000 	strcs	r0, [r4, #-0]
    1918:	9b000000 	blls	1920 <__code_start__-0x66e0>
    191c:	05000000 	streq	r0, [r0, #-0]
    1920:	0000009b 	muleq	r0, fp, r0
    1924:	a8040700 	stmdage	r4, {r8, r9, sl}
    1928:	03000000 	movweq	r0, #0
    192c:	00560801 	subseq	r0, r6, r1, lsl #16
    1930:	a1080000 	mrsge	r0, (UNDEF: 8)
    1934:	06000000 	streq	r0, [r0], -r0
    1938:	00000659 	andeq	r0, r0, r9, asr r6
    193c:	b90e2102 	stmdblt	lr, {r1, r8, sp}
    1940:	07000000 	streq	r0, [r0, -r0]
    1944:	00008c04 	andeq	r8, r0, r4, lsl #24
    1948:	04a70900 	strteq	r0, [r7], #2304	; 0x900
    194c:	01080000 	mrseq	r0, (UNDEF: 8)
    1950:	00ec0705 	rsceq	r0, ip, r5, lsl #14
    1954:	640a0000 	strvs	r0, [sl], #-0
    1958:	10060100 	andne	r0, r6, r0, lsl #2
    195c:	000000ec 	andeq	r0, r0, ip, ror #1
    1960:	0100700a 	tsteq	r0, sl
    1964:	00f30f07 	rscseq	r0, r3, r7, lsl #30
    1968:	660a0000 	strvs	r0, [sl], -r0
    196c:	08010070 	stmdaeq	r1, {r4, r5, r6}
    1970:	0000f610 	andeq	pc, r0, r0, lsl r6	; <UNPREDICTABLE>
    1974:	08030000 	stmdaeq	r3, {}	; <UNPREDICTABLE>
    1978:	0004c604 	andeq	ip, r4, r4, lsl #12
    197c:	0c040b00 			; <UNDEFINED> instruction: 0x0c040b00
    1980:	00f50407 	rscseq	r0, r5, r7, lsl #8
    1984:	080d0000 	stmdaeq	sp, {}	; <UNPREDICTABLE>
    1988:	20020c01 	andcs	r0, r2, r1, lsl #24
    198c:	0e000001 	cdpeq	0, 0, cr0, cr0, cr1, {0}
    1990:	00727470 	rsbseq	r7, r2, r0, ror r4
    1994:	42150d01 	andsmi	r0, r5, #64	; 0x40
    1998:	00000001 	andeq	r0, r0, r1
    199c:	0004de0f 	andeq	sp, r4, pc, lsl #28
    19a0:	100e0100 	andne	r0, lr, r0, lsl #2
    19a4:	0000002c 	andeq	r0, r0, ip, lsr #32
    19a8:	9a090004 	bls	2419c0 <__bss_end__+0x236fe0>
    19ac:	08000004 	stmdaeq	r0, {r2}
    19b0:	420f0b01 	andmi	r0, pc, #1024	; 0x400
    19b4:	0a000001 	beq	19c0 <__code_start__-0x6640>
    19b8:	0f010073 	svceq	0x00010073
    19bc:	0000fc06 	andeq	pc, r0, r6, lsl #24
    19c0:	00780a00 	rsbseq	r0, r8, r0, lsl #20
    19c4:	bf101001 	svclt	0x00101001
    19c8:	00000000 	andeq	r0, r0, r0
    19cc:	01200407 			; <UNDEFINED> instruction: 0x01200407
    19d0:	e3100000 	tst	r0, #0, 0
    19d4:	01000004 	tsteq	r0, r4
    19d8:	01200311 			; <UNDEFINED> instruction: 0x01200311
    19dc:	cd110000 	ldcgt	0, cr0, [r1, #-0]
    19e0:	01000004 	tsteq	r0, r4
    19e4:	01480f13 	cmpeq	r8, r3, lsl pc
    19e8:	03050000 	movweq	r0, #20480	; 0x5000
    19ec:	0000a5d0 	ldrdeq	sl, [r0], -r0
    19f0:	0004ad11 	andeq	sl, r4, r1, lsl sp
    19f4:	10140100 	andsne	r0, r4, r0, lsl #2
    19f8:	00000178 	andeq	r0, r0, r8, ror r1
    19fc:	a5c80305 	strbge	r0, [r8, #773]	; 0x305
    1a00:	04070000 	streq	r0, [r7], #-0
    1a04:	00000148 	andeq	r0, r0, r8, asr #2
    1a08:	0002a412 	andeq	sl, r2, r2, lsl r4
    1a0c:	06530100 	ldrbeq	r0, [r3], -r0, lsl #2
    1a10:	00008a88 	andeq	r8, r0, r8, lsl #21
    1a14:	000000bc 	strheq	r0, [r0], -ip
    1a18:	01c89c01 	biceq	r9, r8, r1, lsl #24
    1a1c:	70130000 	andsvc	r0, r3, r0
    1a20:	01007274 	tsteq	r0, r4, ror r2
    1a24:	00f31453 	rscseq	r1, r3, r3, asr r4
    1a28:	50010000 	andpl	r0, r1, r0
    1a2c:	00706214 	rsbseq	r6, r0, r4, lsl r2
    1a30:	780a5401 	stmdavc	sl, {r0, sl, ip, lr}
    1a34:	10000001 	andne	r0, r0, r1
    1a38:	08000009 	stmdaeq	r0, {r0, r3}
    1a3c:	14000009 	strne	r0, [r0], #-9
    1a40:	54010070 	strpl	r0, [r1], #-112	; 0xffffff90
    1a44:	0001780f 	andeq	r7, r1, pc, lsl #16
    1a48:	00094c00 	andeq	r4, r9, r0, lsl #24
    1a4c:	00094800 	andeq	r4, r9, r0, lsl #16
    1a50:	49150000 	ldmdbmi	r5, {}	; <UNPREDICTABLE>
    1a54:	01000003 	tsteq	r0, r3
    1a58:	00f3072d 	rscseq	r0, r3, sp, lsr #14
    1a5c:	8b880000 	blhi	fe201a64 <__bss_end__+0xfe1f7084>
    1a60:	00ac0000 	adceq	r0, ip, r0
    1a64:	9c010000 	stcls	0, cr0, [r1], {-0}
    1a68:	00000257 	andeq	r0, r0, r7, asr r2
    1a6c:	00034216 	andeq	r4, r3, r6, lsl r2
    1a70:	1a2d0100 	bne	b41e78 <__bss_end__+0xb37498>
    1a74:	0000002c 	andeq	r0, r0, ip, lsr #32
    1a78:	00000972 	andeq	r0, r0, r2, ror r9
    1a7c:	0000096a 	andeq	r0, r0, sl, ror #18
    1a80:	01007014 	tsteq	r0, r4, lsl r0
    1a84:	01780a2e 	cmneq	r8, lr, lsr #20
    1a88:	09ba0000 	ldmibeq	sl!, {}	; <UNPREDICTABLE>
    1a8c:	09ac0000 	stmibeq	ip!, {}	; <UNPREDICTABLE>
    1a90:	a1170000 	tstge	r7, r0
    1a94:	01000004 	tsteq	r0, r4
    1a98:	01780e2e 	cmneq	r8, lr, lsr #28
    1a9c:	0a1c0000 	beq	701aa4 <__bss_end__+0x6f70c4>
    1aa0:	0a120000 	beq	481aa8 <__bss_end__+0x4770c8>
    1aa4:	b3170000 	tstlt	r7, #0, 0
    1aa8:	01000004 	tsteq	r0, r4
    1aac:	002c0b2f 	eoreq	r0, ip, pc, lsr #22
    1ab0:	0a620000 	beq	1881ab8 <__bss_end__+0x18770d8>
    1ab4:	0a600000 	beq	1801abc <__bss_end__+0x17f70dc>
    1ab8:	d2180000 	andsle	r0, r8, #0, 0
    1abc:	01000004 	tsteq	r0, r4
    1ac0:	01780a30 	cmneq	r8, r0, lsr sl
    1ac4:	02460000 	subeq	r0, r6, #0, 0
    1ac8:	2c050000 	stccs	0, cr0, [r5], {-0}
    1acc:	00000000 	andeq	r0, r0, r0
    1ad0:	008c2419 	addeq	r2, ip, r9, lsl r4
    1ad4:	00025700 	andeq	r5, r2, r0, lsl #14
    1ad8:	50011a00 	andpl	r1, r1, r0, lsl #20
    1adc:	00007402 	andeq	r7, r0, r2, lsl #8
    1ae0:	04d21b00 	ldrbeq	r1, [r2], #2816	; 0xb00
    1ae4:	19010000 	stmdbne	r1, {}	; <UNPREDICTABLE>
    1ae8:	00017810 	andeq	r7, r1, r0, lsl r8
    1aec:	008b4400 	addeq	r4, fp, r0, lsl #8
    1af0:	00004400 	andeq	r4, r0, r0, lsl #8
    1af4:	cb9c0100 	blgt	fe701efc <__bss_end__+0xfe6f751c>
    1af8:	1c000002 	stcne	0, cr0, [r0], {2}
    1afc:	00636e69 	rsbeq	r6, r3, r9, ror #28
    1b00:	2c251901 			; <UNDEFINED> instruction: 0x2c251901
    1b04:	79000000 	stmdbvc	r0, {}	; <UNPREDICTABLE>
    1b08:	7500000a 	strvc	r0, [r0, #-10]
    1b0c:	1400000a 	strne	r0, [r0], #-10
    1b10:	01007063 	tsteq	r0, r3, rrx
    1b14:	02cb081a 	sbceq	r0, fp, #1703936	; 0x1a0000
    1b18:	0a9d0000 	beq	fe741b20 <__bss_end__+0xfe737140>
    1b1c:	0a970000 	beq	fe5c1b24 <__bss_end__+0xfe5b7144>
    1b20:	75140000 	ldrvc	r0, [r4, #-0]
    1b24:	1b010070 	blne	41cec <__bss_end__+0x3730c>
    1b28:	0001780a 	andeq	r7, r1, sl, lsl #16
    1b2c:	000acc00 	andeq	ip, sl, r0, lsl #24
    1b30:	000ac800 	andeq	ip, sl, r0, lsl #16
    1b34:	8b5c1d00 	blhi	1708f3c <__bss_end__+0x16fe55c>
    1b38:	02d10000 	sbcseq	r0, r1, #0, 0
    1b3c:	02c10000 	sbceq	r0, r1, #0, 0
    1b40:	011a0000 	tsteq	sl, r0
    1b44:	00740450 	rsbseq	r0, r4, r0, asr r4
    1b48:	1e002433 	cfmvdhrne	mvd0, r2
    1b4c:	00008b70 	andeq	r8, r0, r0, ror fp
    1b50:	0000017e 	andeq	r0, r0, lr, ror r1
    1b54:	a1040700 	tstge	r4, r0, lsl #14
    1b58:	1f000000 	svcne	0x00000000
    1b5c:	000003f1 	strdeq	r0, [r0], -r1
    1b60:	000003f1 	strdeq	r0, [r0], -r1
    1b64:	000b1a03 	andeq	r1, fp, r3, lsl #20
    1b68:	0000013a 	andeq	r0, r0, sl, lsr r1
    1b6c:	086d0004 	stmdaeq	sp!, {r2}^
    1b70:	01040000 	mrseq	r0, (UNDEF: 4)
    1b74:	000004ea 	andeq	r0, r0, sl, ror #9
    1b78:	0005bb0c 	andeq	fp, r5, ip, lsl #22
    1b7c:	0005cb00 	andeq	ip, r5, r0, lsl #22
    1b80:	008c3400 	addeq	r3, ip, r0, lsl #8
    1b84:	00001800 	andeq	r1, r0, r0, lsl #16
    1b88:	000daa00 	andeq	sl, sp, r0, lsl #20
    1b8c:	05040200 	streq	r0, [r4, #-512]	; 0xfffffe00
    1b90:	00746e69 	rsbseq	r6, r4, r9, ror #28
    1b94:	0005b403 	andeq	fp, r5, r3, lsl #8
    1b98:	17d10300 	ldrbne	r0, [r1, r0, lsl #6]
    1b9c:	00000038 	andeq	r0, r0, r8, lsr r0
    1ba0:	bd070404 	cfstrslt	mvf0, [r7, #-16]
    1ba4:	04000000 	streq	r0, [r0], #-0
    1ba8:	004f0601 	subeq	r0, pc, r1, lsl #12
    1bac:	02040000 	andeq	r0, r4, #0, 0
    1bb0:	00015605 	andeq	r5, r1, r5, lsl #12
    1bb4:	05040400 	streq	r0, [r4, #-1024]	; 0xfffffc00
    1bb8:	00000141 	andeq	r0, r0, r1, asr #2
    1bbc:	3c050804 	stccc	8, cr0, [r5], {4}
    1bc0:	04000001 	streq	r0, [r0], #-1
    1bc4:	004d0801 	subeq	r0, sp, r1, lsl #16
    1bc8:	02040000 	andeq	r0, r4, #0, 0
    1bcc:	00005b07 	andeq	r5, r0, r7, lsl #22
    1bd0:	07040400 	streq	r0, [r4, -r0, lsl #8]
    1bd4:	000000b8 	strheq	r0, [r0], -r8
    1bd8:	b3070804 	movwlt	r0, #30724	; 0x7804
    1bdc:	05000000 	streq	r0, [r0, #-0]
    1be0:	00000025 	andeq	r0, r0, r5, lsr #32
    1be4:	00000086 	andeq	r0, r0, r6, lsl #1
    1be8:	00002506 	andeq	r2, r0, r6, lsl #10
    1bec:	4a070000 	bmi	1c1bf4 <__bss_end__+0x1b7214>
    1bf0:	02000001 	andeq	r0, r0, #1, 0
    1bf4:	00920e1c 	addseq	r0, r2, ip, lsl lr
    1bf8:	04080000 	streq	r0, [r8], #-0
    1bfc:	00000077 	andeq	r0, r0, r7, ror r0
    1c00:	00002505 	andeq	r2, r0, r5, lsl #10
    1c04:	0000a700 	andeq	sl, r0, r0, lsl #14
    1c08:	00a70600 	adceq	r0, r7, r0, lsl #12
    1c0c:	08000000 	stmdaeq	r0, {}	; <UNPREDICTABLE>
    1c10:	0000b404 	andeq	fp, r0, r4, lsl #8
    1c14:	08010400 	stmdaeq	r1, {sl}
    1c18:	00000056 	andeq	r0, r0, r6, asr r0
    1c1c:	0000ad09 	andeq	sl, r0, r9, lsl #26
    1c20:	06590700 	ldrbeq	r0, [r9], -r0, lsl #14
    1c24:	21020000 	mrscs	r0, (UNDEF: 2)
    1c28:	0000c50e 	andeq	ip, r0, lr, lsl #10
    1c2c:	98040800 	stmdals	r4, {fp}
    1c30:	0a000000 	beq	1c38 <__code_start__-0x63c8>
    1c34:	00000080 	andeq	r0, r0, r0, lsl #1
    1c38:	35070401 	strcc	r0, [r7, #-1025]	; 0xfffffbff
    1c3c:	34000001 	strcc	r0, [r0], #-1
    1c40:	1800008c 	stmdane	r0, {r2, r3, r7}
    1c44:	01000000 	mrseq	r0, (UNDEF: 0)
    1c48:	0001359c 	muleq	r1, ip, r5
    1c4c:	705f0b00 	subsvc	r0, pc, r0, lsl #22
    1c50:	14040100 	strne	r0, [r4], #-256	; 0xffffff00
    1c54:	00000135 	andeq	r0, r0, r5, lsr r1
    1c58:	630b5001 	movwvs	r5, #45057	; 0xb001
    1c5c:	1c040100 	stfnes	f0, [r4], {-0}
    1c60:	00000025 	andeq	r0, r0, r5, lsr #32
    1c64:	6e0c5101 	adfvse	f5, f4, f1
    1c68:	26040100 	strcs	r0, [r4], -r0, lsl #2
    1c6c:	0000002c 	andeq	r0, r0, ip, lsr #32
    1c70:	00000af0 	strdeq	r0, [r0], -r0	; <UNPREDICTABLE>
    1c74:	00000aec 	andeq	r0, r0, ip, ror #21
    1c78:	0100700d 	tsteq	r0, sp
    1c7c:	01370b05 	teqeq	r7, r5, lsl #22
    1c80:	0b190000 	bleq	641c88 <__bss_end__+0x6372a8>
    1c84:	0b110000 	bleq	441c8c <__bss_end__+0x4372ac>
    1c88:	650d0000 	strvs	r0, [sp, #-0]
    1c8c:	14050100 	strne	r0, [r5], #-256	; 0xffffff00
    1c90:	00000137 	andeq	r0, r0, r7, lsr r1
    1c94:	00000b51 	andeq	r0, r0, r1, asr fp
    1c98:	00000b4f 	andeq	r0, r0, pc, asr #22
    1c9c:	08040e00 	stmdaeq	r4, {r9, sl, fp}
    1ca0:	0000ad04 	andeq	sl, r0, r4, lsl #26
    1ca4:	019d0000 	orrseq	r0, sp, r0
    1ca8:	00040000 	andeq	r0, r4, r0
    1cac:	00000939 	andeq	r0, r0, r9, lsr r9
    1cb0:	04ea0104 	strbteq	r0, [sl], #260	; 0x104
    1cb4:	400c0000 	andmi	r0, ip, r0
    1cb8:	cb000006 	blgt	1cd8 <__code_start__-0x6328>
    1cbc:	4c000005 	stcmi	0, cr0, [r0], {5}
    1cc0:	5800008c 	stmdapl	r0, {r2, r3, r7}
    1cc4:	c2000000 	andgt	r0, r0, #0, 0
    1cc8:	0200000e 	andeq	r0, r0, #14, 0
    1ccc:	00000622 	andeq	r0, r0, r2, lsr #12
    1cd0:	311b2802 	tstcc	fp, r2, lsl #16
    1cd4:	03000000 	movweq	r0, #0
    1cd8:	00000631 	andeq	r0, r0, r1, lsr r6
    1cdc:	48000404 	stmdami	r0, {r2, sl}
    1ce0:	04000000 	streq	r0, [r0], #-0
    1ce4:	0000063b 	andeq	r0, r0, fp, lsr r6
    1ce8:	00000048 	andeq	r0, r0, r8, asr #32
    1cec:	04050000 	streq	r0, [r5], #-0
    1cf0:	00063302 	andeq	r3, r6, r2, lsl #6
    1cf4:	18630200 	stmdane	r3!, {r9}^
    1cf8:	00000025 	andeq	r0, r0, r5, lsr #32
    1cfc:	69050406 	stmdbvs	r5, {r1, r2, sl}
    1d00:	0700746e 	streq	r7, [r0, -lr, ror #8]
    1d04:	00bd0704 	adcseq	r0, sp, r4, lsl #14
    1d08:	01070000 	mrseq	r0, (UNDEF: 7)
    1d0c:	00004f06 	andeq	r4, r0, r6, lsl #30
    1d10:	05020700 	streq	r0, [r2, #-1792]	; 0xfffff900
    1d14:	00000156 	andeq	r0, r0, r6, asr r1
    1d18:	41050407 	tstmi	r5, r7, lsl #8
    1d1c:	07000001 	streq	r0, [r0, -r1]
    1d20:	013c0508 	teqeq	ip, r8, lsl #10
    1d24:	01070000 	mrseq	r0, (UNDEF: 7)
    1d28:	00004d08 	andeq	r4, r0, r8, lsl #26
    1d2c:	07020700 	streq	r0, [r2, -r0, lsl #14]
    1d30:	0000005b 	andeq	r0, r0, fp, asr r0
    1d34:	b8070407 	stmdalt	r7, {r0, r1, r2, sl}
    1d38:	07000000 	streq	r0, [r0, -r0]
    1d3c:	00b30708 	adcseq	r0, r3, r8, lsl #14
    1d40:	56080000 	strpl	r0, [r8], -r0
    1d44:	ab000000 	blge	1d4c <__code_start__-0x62b4>
    1d48:	09000000 	stmdbeq	r0, {}	; <UNPREDICTABLE>
    1d4c:	00000056 	andeq	r0, r0, r6, asr r0
    1d50:	014a0a00 	cmpeq	sl, r0, lsl #20
    1d54:	1c030000 	stcne	0, cr0, [r3], {-0}
    1d58:	0000b70e 	andeq	fp, r0, lr, lsl #14
    1d5c:	9c040b00 			; <UNDEFINED> instruction: 0x9c040b00
    1d60:	08000000 	stmdaeq	r0, {}	; <UNPREDICTABLE>
    1d64:	00000056 	andeq	r0, r0, r6, asr r0
    1d68:	000000cc 	andeq	r0, r0, ip, asr #1
    1d6c:	0000cc09 	andeq	ip, r0, r9, lsl #24
    1d70:	040b0000 	streq	r0, [fp], #-0
    1d74:	000000d9 	ldrdeq	r0, [r0], -r9
    1d78:	56080107 	strpl	r0, [r8], -r7, lsl #2
    1d7c:	0c000000 	stceq	0, cr0, [r0], {-0}
    1d80:	000000d2 	ldrdeq	r0, [r0], -r2
    1d84:	0006590a 	andeq	r5, r6, sl, lsl #18
    1d88:	0e210300 	cdpeq	3, 2, cr0, cr1, cr0, {0}
    1d8c:	000000ea 	andeq	r0, r0, sl, ror #1
    1d90:	00bd040b 	adcseq	r0, sp, fp, lsl #8
    1d94:	1b0d0000 	blne	341d9c <__bss_end__+0x3373bc>
    1d98:	01000006 	tsteq	r0, r6
    1d9c:	00560506 	subseq	r0, r6, r6, lsl #10
    1da0:	8c4c0000 	marhi	acc0, r0, ip
    1da4:	00580000 	subseq	r0, r8, r0
    1da8:	9c010000 	stcls	0, cr0, [r1], {-0}
    1dac:	00000183 	andeq	r0, r0, r3, lsl #3
    1db0:	746d660e 	strbtvc	r6, [sp], #-1550	; 0xfffff9f2
    1db4:	18060100 	stmdane	r6, {r8}
    1db8:	000000cc 	andeq	r0, r0, ip, asr #1
    1dbc:	0f709102 	svceq	0x00709102
    1dc0:	66756210 			; <UNDEFINED> instruction: 0x66756210
    1dc4:	11080100 	mrsne	r0, (UNDEF: 24)
    1dc8:	00000183 	andeq	r0, r0, r3, lsl #3
    1dcc:	a5d80305 	ldrbge	r0, [r8, #773]	; 0x305
    1dd0:	13110000 	tstne	r1, #0, 0
    1dd4:	01000006 	tsteq	r0, r6
    1dd8:	004a0d09 	subeq	r0, sl, r9, lsl #26
    1ddc:	91020000 	mrsls	r0, (UNDEF: 2)
    1de0:	7a73125c 	bvc	1cc6758 <__bss_end__+0x1cbbd78>
    1de4:	0d0c0100 	stfeqs	f0, [ip, #-0]
    1de8:	00000056 	andeq	r0, r0, r6, asr r0
    1dec:	00000b6a 	andeq	r0, r0, sl, ror #22
    1df0:	00000b64 	andeq	r0, r0, r4, ror #22
    1df4:	008c7413 	addeq	r7, ip, r3, lsl r4
    1df8:	00019400 	andeq	r9, r1, r0, lsl #8
    1dfc:	00017600 	andeq	r7, r1, r0, lsl #12
    1e00:	50011400 	andpl	r1, r1, r0, lsl #8
    1e04:	14007502 	strne	r7, [r0], #-1282	; 0xfffffafe
    1e08:	0a035101 	beq	d6214 <__bss_end__+0xcb834>
    1e0c:	01140400 	tsteq	r4, r0, lsl #8
    1e10:	48910352 	ldmmi	r1, {r1, r4, r6, r8, r9}
    1e14:	53011406 	movwpl	r1, #5126	; 0x1406
    1e18:	004c9102 	subeq	r9, ip, r2, lsl #2
    1e1c:	008c8815 	addeq	r8, ip, r5, lsl r8
    1e20:	50011400 	andpl	r1, r1, r0, lsl #8
    1e24:	00007502 	andeq	r7, r0, r2, lsl #10
    1e28:	00d21600 	sbcseq	r1, r2, r0, lsl #12
    1e2c:	01940000 	orrseq	r0, r4, r0
    1e30:	5d170000 	ldcpl	0, cr0, [r7, #-0]
    1e34:	ff000000 			; <UNDEFINED> instruction: 0xff000000
    1e38:	18180003 	ldmdane	r8, {r0, r1}
    1e3c:	18000006 	stmdane	r0, {r1, r2}
    1e40:	05000006 	streq	r0, [r0, #-6]
    1e44:	f3000502 	vrshl.u8	d0, d2, d0
    1e48:	04000000 	streq	r0, [r0], #-0
    1e4c:	000a7b00 	andeq	r7, sl, r0, lsl #22
    1e50:	ea010400 	b	42e58 <__bss_end__+0x38478>
    1e54:	0c000004 	stceq	0, cr0, [r0], {4}
    1e58:	0000065e 	andeq	r0, r0, lr, asr r6
    1e5c:	000005cb 	andeq	r0, r0, fp, asr #11
    1e60:	00008ca4 	andeq	r8, r0, r4, lsr #25
    1e64:	00000034 	andeq	r0, r0, r4, lsr r0
    1e68:	00000ff9 	strdeq	r0, [r0], -r9
    1e6c:	69050402 	stmdbvs	r5, {r1, sl}
    1e70:	0300746e 	movweq	r7, #1134	; 0x46e
    1e74:	00bd0704 	adcseq	r0, sp, r4, lsl #14
    1e78:	01030000 	mrseq	r0, (UNDEF: 3)
    1e7c:	00004f06 	andeq	r4, r0, r6, lsl #30
    1e80:	05020300 	streq	r0, [r2, #-768]	; 0xfffffd00
    1e84:	00000156 	andeq	r0, r0, r6, asr r1
    1e88:	41050403 	tstmi	r5, r3, lsl #8
    1e8c:	03000001 	movweq	r0, #1
    1e90:	013c0508 	teqeq	ip, r8, lsl #10
    1e94:	01030000 	mrseq	r0, (UNDEF: 3)
    1e98:	00004d08 	andeq	r4, r0, r8, lsl #26
    1e9c:	07020300 	streq	r0, [r2, -r0, lsl #6]
    1ea0:	0000005b 	andeq	r0, r0, fp, asr r0
    1ea4:	b8070403 	stmdalt	r7, {r0, r1, sl}
    1ea8:	03000000 	movweq	r0, #0
    1eac:	00b30708 	adcseq	r0, r3, r8, lsl #14
    1eb0:	25040000 	strcs	r0, [r4, #-0]
    1eb4:	7a000000 	bvc	1ebc <__code_start__-0x6144>
    1eb8:	05000000 	streq	r0, [r0, #-0]
    1ebc:	00000025 	andeq	r0, r0, r5, lsr #32
    1ec0:	014a0600 	cmpeq	sl, r0, lsl #12
    1ec4:	1c020000 	stcne	0, cr0, [r2], {-0}
    1ec8:	0000860e 	andeq	r8, r0, lr, lsl #12
    1ecc:	6b040700 	blvs	103ad4 <__bss_end__+0xf90f4>
    1ed0:	04000000 	streq	r0, [r0], #-0
    1ed4:	00000025 	andeq	r0, r0, r5, lsr #32
    1ed8:	0000009b 	muleq	r0, fp, r0
    1edc:	00009b05 	andeq	r9, r0, r5, lsl #22
    1ee0:	04070000 	streq	r0, [r7], #-0
    1ee4:	000000a8 	andeq	r0, r0, r8, lsr #1
    1ee8:	56080103 	strpl	r0, [r8], -r3, lsl #2
    1eec:	08000000 	stmdaeq	r0, {}	; <UNPREDICTABLE>
    1ef0:	000000a1 	andeq	r0, r0, r1, lsr #1
    1ef4:	00065906 	andeq	r5, r6, r6, lsl #18
    1ef8:	0e210200 	cdpeq	2, 2, cr0, cr1, cr0, {0}
    1efc:	000000b9 	strheq	r0, [r0], -r9
    1f00:	008c0407 	addeq	r0, ip, r7, lsl #8
    1f04:	ad090000 	stcge	0, cr0, [r9, #-0]
    1f08:	01000000 	mrseq	r0, (UNDEF: 0)
    1f0c:	0305070c 	movweq	r0, #22284	; 0x570c
    1f10:	0000a598 	muleq	r0, r8, r5
    1f14:	0006500a 	andeq	r5, r6, sl
    1f18:	05040100 	streq	r0, [r4, #-256]	; 0xffffff00
    1f1c:	00000025 	andeq	r0, r0, r5, lsr #32
    1f20:	00008ca4 	andeq	r8, r0, r4, lsr #25
    1f24:	00000034 	andeq	r0, r0, r4, lsr r0
    1f28:	700b9c01 	andvc	r9, fp, r1, lsl #24
    1f2c:	1f040100 	svcne	0x00040100
    1f30:	0000009b 	muleq	r0, fp, r0
    1f34:	00000b97 	muleq	r0, r7, fp
    1f38:	00000b93 	muleq	r0, r3, fp
    1f3c:	0ad70000 	beq	ff5c1f44 <__bss_end__+0xff5b7564>
    1f40:	00040000 	andeq	r0, r4, r0
    1f44:	00000b19 	andeq	r0, r0, r9, lsl fp
    1f48:	04ea0104 	strbteq	r0, [sl], #260	; 0x104
    1f4c:	7d0c0000 	stcvc	0, cr0, [ip, #-0]
    1f50:	cb000006 	blgt	1f70 <__code_start__-0x6090>
    1f54:	d8000005 	stmdale	r0, {r0, r2}
    1f58:	4000008c 	andmi	r0, r0, ip, lsl #1
    1f5c:	c8000007 	stmdagt	r0, {r0, r1, r2}
    1f60:	02000010 	andeq	r0, r0, #16, 0
    1f64:	6e690504 	cdpvs	5, 6, cr0, cr9, cr4, {0}
    1f68:	04030074 	streq	r0, [r3], #-116	; 0xffffff8c
    1f6c:	0000bd07 	andeq	fp, r0, r7, lsl #26
    1f70:	06010300 	streq	r0, [r1], -r0, lsl #6
    1f74:	0000004f 	andeq	r0, r0, pc, asr #32
    1f78:	56050203 	strpl	r0, [r5], -r3, lsl #4
    1f7c:	03000001 	movweq	r0, #1
    1f80:	01410504 	cmpeq	r1, r4, lsl #10
    1f84:	08030000 	stmdaeq	r3, {}	; <UNPREDICTABLE>
    1f88:	00013c05 	andeq	r3, r1, r5, lsl #24
    1f8c:	08010300 	stmdaeq	r1, {r8, r9}
    1f90:	0000004d 	andeq	r0, r0, sp, asr #32
    1f94:	5b070203 	blpl	1c27a8 <__bss_end__+0x1b7dc8>
    1f98:	04000000 	streq	r0, [r0], #-0
    1f9c:	00000173 	andeq	r0, r0, r3, ror r1
    1fa0:	69193402 	ldmdbvs	r9, {r1, sl, ip, sp}
    1fa4:	03000000 	movweq	r0, #0
    1fa8:	00b80704 	adcseq	r0, r8, r4, lsl #14
    1fac:	74040000 	strvc	r0, [r4], #-0
    1fb0:	02000006 	andeq	r0, r0, #6, 0
    1fb4:	007c1937 	rsbseq	r1, ip, r7, lsr r9
    1fb8:	08030000 	stmdaeq	r3, {}	; <UNPREDICTABLE>
    1fbc:	0000b307 	andeq	fp, r0, r7, lsl #6
    1fc0:	00250500 	eoreq	r0, r5, r0, lsl #10
    1fc4:	00920000 	addseq	r0, r2, r0
    1fc8:	25060000 	strcs	r0, [r6, #-0]
    1fcc:	00000000 	andeq	r0, r0, r0
    1fd0:	00014a07 	andeq	r4, r1, r7, lsl #20
    1fd4:	0e1c0300 	cdpeq	3, 1, cr0, cr12, cr0, {0}
    1fd8:	0000009e 	muleq	r0, lr, r0
    1fdc:	00830408 	addeq	r0, r3, r8, lsl #8
    1fe0:	25050000 	strcs	r0, [r5, #-0]
    1fe4:	b3000000 	movwlt	r0, #0
    1fe8:	06000000 	streq	r0, [r0], -r0
    1fec:	000000b3 	strheq	r0, [r0], -r3
    1ff0:	c0040800 	andgt	r0, r4, r0, lsl #16
    1ff4:	03000000 	movweq	r0, #0
    1ff8:	00560801 	subseq	r0, r6, r1, lsl #16
    1ffc:	b9090000 	stmdblt	r9, {}	; <UNPREDICTABLE>
    2000:	07000000 	streq	r0, [r0, -r0]
    2004:	00000659 	andeq	r0, r0, r9, asr r6
    2008:	d10e2103 	tstle	lr, r3, lsl #2
    200c:	08000000 	stmdaeq	r0, {}	; <UNPREDICTABLE>
    2010:	0000a404 	andeq	sl, r0, r4, lsl #8
    2014:	06900700 	ldreq	r0, [r0], r0, lsl #14
    2018:	0b040000 	bleq	102020 <__bss_end__+0xf7640>
    201c:	0000b90d 	andeq	fp, r0, sp, lsl #18
    2020:	06e20700 	strbteq	r0, [r2], r0, lsl #14
    2024:	0c040000 	stceq	0, cr0, [r4], {-0}
    2028:	0000b90d 	andeq	fp, r0, sp, lsl #18
    202c:	03810700 	orreq	r0, r1, #0, 14
    2030:	0d040000 	stceq	0, cr0, [r4, #-0]
    2034:	0000b90d 	andeq	fp, r0, sp, lsl #18
    2038:	04450700 	strbeq	r0, [r5], #-1792	; 0xfffff900
    203c:	0e040000 	cdpeq	0, 0, cr0, cr4, cr0, {0}
    2040:	0000b90d 	andeq	fp, r0, sp, lsl #18
    2044:	02450700 	subeq	r0, r5, #0, 14
    2048:	0f040000 	svceq	0x00040000
    204c:	0000b90d 	andeq	fp, r0, sp, lsl #18
    2050:	025f0700 	subseq	r0, pc, #0, 14
    2054:	10040000 	andne	r0, r4, r0
    2058:	0000b90d 	andeq	fp, r0, sp, lsl #18
    205c:	07120700 	ldreq	r0, [r2, -r0, lsl #14]
    2060:	11040000 	mrsne	r0, (UNDEF: 4)
    2064:	0000b90d 	andeq	fp, r0, sp, lsl #18
    2068:	06ad0700 	strteq	r0, [sp], r0, lsl #14
    206c:	12040000 	andne	r0, r4, #0, 0
    2070:	0000b90d 	andeq	fp, r0, sp, lsl #18
    2074:	06220400 	strteq	r0, [r2], -r0, lsl #8
    2078:	28050000 	stmdacs	r5, {}	; <UNPREDICTABLE>
    207c:	0001431b 	andeq	r4, r1, fp, lsl r3
    2080:	06310a00 	ldrteq	r0, [r1], -r0, lsl #20
    2084:	06040000 	streq	r0, [r4], -r0
    2088:	00015a00 	andeq	r5, r1, r0, lsl #20
    208c:	063b0b00 	ldrteq	r0, [fp], -r0, lsl #22
    2090:	015a0000 	cmpeq	sl, r0
    2094:	00000000 	andeq	r0, r0, r0
    2098:	3304040c 	movwcc	r0, #17420	; 0x440c
    209c:	05000006 	streq	r0, [r0, #-6]
    20a0:	01371863 	teqeq	r7, r3, ror #16
    20a4:	180d0000 	stmdane	sp, {}	; <UNPREDICTABLE>
    20a8:	01000006 	tsteq	r0, r6
    20ac:	00250581 	eoreq	r0, r5, r1, lsl #11
    20b0:	8f600000 	svchi	0x00600000
    20b4:	04b80000 	ldrteq	r0, [r8], #0
    20b8:	9c010000 	stcls	0, cr0, [r1], {-0}
    20bc:	00000717 	andeq	r0, r0, r7, lsl r7
    20c0:	6675620e 	ldrbtvs	r6, [r5], -lr, lsl #4
    20c4:	15810100 	strne	r0, [r1, #256]	; 0x100
    20c8:	00000717 	andeq	r0, r0, r7, lsl r7
    20cc:	00000bbb 			; <UNDEFINED> instruction: 0x00000bbb
    20d0:	00000bb5 			; <UNDEFINED> instruction: 0x00000bb5
    20d4:	01006e0e 	tsteq	r0, lr, lsl #28
    20d8:	00251e81 	eoreq	r1, r5, r1, lsl #29
    20dc:	0bed0000 	bleq	ffb420e4 <__bss_end__+0xffb37704>
    20e0:	0be70000 	bleq	ff9c20e8 <__bss_end__+0xff9b7708>
    20e4:	660e0000 	strvs	r0, [lr], -r0
    20e8:	0100746d 	tsteq	r0, sp, ror #8
    20ec:	00b32d81 	adcseq	r2, r3, r1, lsl #27
    20f0:	0c270000 	stceq	0, cr0, [r7], #-0
    20f4:	0c1b0000 	ldceq	0, cr0, [fp], {-0}
    20f8:	130f0000 	movwne	r0, #61440	; 0xf000
    20fc:	01000006 	tsteq	r0, r6
    2100:	015c3a81 	cmpeq	ip, r1, lsl #21
    2104:	91030000 	mrsls	r0, (UNDEF: 3)
    2108:	70107dd4 			; <UNDEFINED> instruction: 0x70107dd4
    210c:	08820100 	stmeq	r2, {r8}
    2110:	00000717 	andeq	r0, r0, r7, lsl r7
    2114:	00000c85 	andeq	r0, r0, r5, lsl #25
    2118:	00000c71 	andeq	r0, r0, r1, ror ip
    211c:	01006510 	tsteq	r0, r0, lsl r5
    2120:	07171282 	ldreq	r1, [r7, -r2, lsl #5]
    2124:	0d070000 	stceq	0, cr0, [r7, #-0]
    2128:	0d030000 	stceq	0, cr0, [r3, #-0]
    212c:	78100000 	ldmdavc	r0, {}	; <UNPREDICTABLE>
    2130:	83010030 	movwhi	r0, #4144	; 0x1030
    2134:	00005d0e 	andeq	r5, r0, lr, lsl #26
    2138:	000d3400 	andeq	r3, sp, r0, lsl #8
    213c:	000d2e00 	andeq	r2, sp, r0, lsl #28
    2140:	31781000 	cmncc	r8, r0
    2144:	11830100 	orrne	r0, r3, r0, lsl #2
    2148:	0000005d 	andeq	r0, r0, sp, asr r0
    214c:	00000d61 	andeq	r0, r0, r1, ror #26
    2150:	00000d5d 	andeq	r0, r0, sp, asr sp
    2154:	0006cb11 	andeq	ip, r6, r1, lsl fp
    2158:	11860100 	orrne	r0, r6, r0, lsl #2
    215c:	000000b3 	strheq	r0, [r0], -r3
    2160:	00000d83 	andeq	r0, r0, r3, lsl #27
    2164:	00000d7f 	andeq	r0, r0, pc, ror sp
    2168:	00008c12 	andeq	r8, r0, r2, lsl ip
    216c:	00072d00 	andeq	r2, r7, r0, lsl #26
    2170:	84030500 	strhi	r0, [r3], #-1280	; 0xfffffb00
    2174:	130000a3 	movwne	r0, #163	; 0xa3
    2178:	00008fc8 	andeq	r8, r0, r8, asr #31
    217c:	00000400 	andeq	r0, r0, r0, lsl #8
    2180:	01007310 	tsteq	r0, r0, lsl r3
    2184:	07170a91 			; <UNDEFINED> instruction: 0x07170a91
    2188:	0db90000 	ldceq	0, cr0, [r9]
    218c:	0da30000 	stceq	0, cr0, [r3]
    2190:	6e140000 	cdpvs	0, 1, cr0, cr4, cr0, {0}
    2194:	01006d75 	tsteq	r0, r5, ror sp
    2198:	07320d91 			; <UNDEFINED> instruction: 0x07320d91
    219c:	91030000 	mrsls	r0, (UNDEF: 3)
    21a0:	1f157dd8 	svcne	0x00157dd8
    21a4:	01000007 	tsteq	r0, r7
    21a8:	07321791 			; <UNDEFINED> instruction: 0x07321791
    21ac:	91030000 	mrsls	r0, (UNDEF: 3)
    21b0:	9f117ed8 	svcls	0x00117ed8
    21b4:	01000006 	tsteq	r0, r6
    21b8:	002c0d92 	mlaeq	ip, r2, sp, r0
    21bc:	0e400000 	cdpeq	0, 4, cr0, cr0, cr0, {0}
    21c0:	0e3a0000 	cdpeq	0, 3, cr0, cr10, cr0, {0}
    21c4:	90160000 	andsls	r0, r6, r0
    21c8:	a4000090 	strge	r0, [r0], #-144	; 0xffffff70
    21cc:	39000001 	stmdbcc	r0, {r0}
    21d0:	10000005 	andne	r0, r0, r5
    21d4:	01007974 	tsteq	r0, r4, ror r9
    21d8:	00b31d9e 	umlalseq	r1, r3, lr, sp
    21dc:	0e740000 	cdpeq	0, 7, cr0, cr4, cr0, {0}
    21e0:	0e6a0000 	cdpeq	0, 6, cr0, cr10, cr0, {0}
    21e4:	78170000 	ldmdavc	r7, {}	; <UNPREDICTABLE>
    21e8:	a2010078 	andge	r0, r1, #120, 0	; 0x78
    21ec:	0000701a 	andeq	r7, r0, sl, lsl r0
    21f0:	90a01800 	adcls	r1, r0, r0, lsl #16
    21f4:	0a920000 	beq	fe4821fc <__bss_end__+0xfe47781c>
    21f8:	02d50000 	sbcseq	r0, r5, #0, 0
    21fc:	01190000 	tsteq	r9, r0
    2200:	00760250 	rsbseq	r0, r6, r0, asr r2
    2204:	05510119 	ldrbeq	r0, [r1, #-281]	; 0xfffffee7
    2208:	00a27803 	adceq	r7, r2, r3, lsl #16
    220c:	52011900 	andpl	r1, r1, #0, 18
    2210:	18003301 	stmdane	r0, {r0, r8, r9, ip, sp}
    2214:	000090b8 	strheq	r9, [r0], -r8
    2218:	00000a92 	muleq	r0, r2, sl
    221c:	000002f7 	strdeq	r0, [r0], -r7
    2220:	02500119 	subseq	r0, r0, #1073741830	; 0x40000006
    2224:	01190076 	tsteq	r9, r6, ror r0
    2228:	7c030551 	cfstr32vc	mvfx0, [r3], {81}	; 0x51
    222c:	190000a2 	stmdbne	r0, {r1, r5, r7}
    2230:	33015201 	movwcc	r5, #4609	; 0x1201
    2234:	90ec1800 	rscls	r1, ip, r0, lsl #16
    2238:	0a9e0000 	beq	fe782240 <__bss_end__+0xfe777860>
    223c:	03140000 	tsteq	r4, #0, 0
    2240:	01190000 	tsteq	r9, r0
    2244:	80030550 	andhi	r0, r3, r0, asr r5
    2248:	190000a2 	stmdbne	r0, {r1, r5, r7}
    224c:	77025101 	strvc	r5, [r2, -r1, lsl #2]
    2250:	f8180000 			; <UNDEFINED> instruction: 0xf8180000
    2254:	9e000090 	mcrls	0, 0, r0, cr0, cr0, {4}
    2258:	3100000a 	tstcc	r0, sl
    225c:	19000003 	stmdbne	r0, {r0, r1}
    2260:	03055001 	movweq	r5, #20481	; 0x5001
    2264:	0000a288 	andeq	sl, r0, r8, lsl #5
    2268:	02510119 	subseq	r0, r1, #1073741830	; 0x40000006
    226c:	1800007a 	stmdane	r0, {r1, r3, r4, r5, r6}
    2270:	00009108 	andeq	r9, r0, r8, lsl #2
    2274:	00000a92 	muleq	r0, r2, sl
    2278:	00000353 	andeq	r0, r0, r3, asr r3
    227c:	02500119 	subseq	r0, r0, #1073741830	; 0x40000006
    2280:	01190076 	tsteq	r9, r6, ror r0
    2284:	78030551 	stmdavc	r3, {r0, r4, r6, r8, sl}
    2288:	190000a2 	stmdbne	r0, {r1, r5, r7}
    228c:	33015201 	movwcc	r5, #4609	; 0x1201
    2290:	91201800 			; <UNDEFINED> instruction: 0x91201800
    2294:	0a920000 	beq	fe48229c <__bss_end__+0xfe4778bc>
    2298:	03750000 	cmneq	r5, #0, 0
    229c:	01190000 	tsteq	r9, r0
    22a0:	00760250 	rsbseq	r0, r6, r0, asr r2
    22a4:	05510119 	ldrbeq	r0, [r1, #-281]	; 0xfffffee7
    22a8:	00a27c03 	adceq	r7, r2, r3, lsl #24
    22ac:	52011900 	andpl	r1, r1, #0, 18
    22b0:	18003301 	stmdane	r0, {r0, r8, r9, ip, sp}
    22b4:	00009148 	andeq	r9, r0, r8, asr #2
    22b8:	00000742 	andeq	r0, r0, r2, asr #14
    22bc:	000003a9 	andeq	r0, r0, r9, lsr #7
    22c0:	01500119 	cmpeq	r0, r9, lsl r1
    22c4:	5101193a 	tstpl	r1, sl, lsr r9
    22c8:	7dd09103 	ldfvcp	f1, [r0, #12]
    22cc:	02520119 	subseq	r0, r2, #1073741830	; 0x40000006
    22d0:	01198008 	tsteq	r9, r8
    22d4:	00770253 	rsbseq	r0, r7, r3, asr r2
    22d8:	007d0219 	rsbseq	r0, sp, r9, lsl r2
    22dc:	19007502 	stmdbne	r0, {r1, r8, sl, ip, sp, lr}
    22e0:	02047d02 	andeq	r7, r4, #128	; 0x80
    22e4:	18000076 	stmdane	r0, {r1, r2, r4, r5, r6}
    22e8:	00009168 	andeq	r9, r0, r8, ror #2
    22ec:	00000742 	andeq	r0, r0, r2, asr #14
    22f0:	000003dd 	ldrdeq	r0, [r0], -sp
    22f4:	01500119 	cmpeq	r0, r9, lsl r1
    22f8:	5101193a 	tstpl	r1, sl, lsr r9
    22fc:	7ed09103 	atnvcs	f1, f3
    2300:	02520119 	subseq	r0, r2, #1073741830	; 0x40000006
    2304:	01198008 	tsteq	r9, r8
    2308:	007a0253 	rsbseq	r0, sl, r3, asr r2
    230c:	007d0219 	rsbseq	r0, sp, r9, lsl r2
    2310:	19007502 	stmdbne	r0, {r1, r8, sl, ip, sp, lr}
    2314:	02047d02 	andeq	r7, r4, #128	; 0x80
    2318:	18000076 	stmdane	r0, {r1, r2, r4, r5, r6}
    231c:	00009174 	andeq	r9, r0, r4, ror r1
    2320:	00000aaa 	andeq	r0, r0, sl, lsr #21
    2324:	000003fb 	strdeq	r0, [r0], -fp
    2328:	03500119 	cmpeq	r0, #1073741830	; 0x40000006
    232c:	197dd091 	ldmdbne	sp!, {r0, r4, r7, ip, lr, pc}^
    2330:	03055101 	movweq	r5, #20737	; 0x5101
    2334:	0000a0e0 	andeq	sl, r0, r0, ror #1
    2338:	91881800 	orrls	r1, r8, r0, lsl #16
    233c:	0ab60000 	beq	fed82344 <__bss_end__+0xfed77964>
    2340:	04170000 	ldreq	r0, [r7], #-0
    2344:	01190000 	tsteq	r9, r0
    2348:	d0910350 	addsle	r0, r1, r0, asr r3
    234c:	5101197d 	tstpl	r1, sp, ror r9
    2350:	7ed09103 	atnvcs	f1, f3
    2354:	91ac1800 			; <UNDEFINED> instruction: 0x91ac1800
    2358:	0a9e0000 	beq	fe782360 <__bss_end__+0xfe777980>
    235c:	04500000 	ldrbeq	r0, [r0], #-0
    2360:	01190000 	tsteq	r9, r0
    2364:	f0030550 			; <UNDEFINED> instruction: 0xf0030550
    2368:	1900009d 	stmdbne	r0, {r0, r2, r3, r4, r7}
    236c:	03055101 	movweq	r5, #20737	; 0x5101
    2370:	0000a22c 	andeq	sl, r0, ip, lsr #4
    2374:	05520119 	ldrbeq	r0, [r2, #-281]	; 0xfffffee7
    2378:	00a38403 	adceq	r8, r3, r3, lsl #8
    237c:	53011900 	movwpl	r1, #6400	; 0x1900
    2380:	199f0802 	ldmibne	pc, {r1, fp}	; <UNPREDICTABLE>
    2384:	05007d02 	streq	r7, [r0, #-3330]	; 0xfffff2fe
    2388:	00a29003 	adceq	r9, r2, r3
    238c:	b01a0000 	andslt	r0, sl, r0
    2390:	c2000091 	andgt	r0, r0, #145, 0	; 0x91
    2394:	1800000a 	stmdane	r0, {r1, r3}
    2398:	000091d0 	ldrdeq	r9, [r0], -r0
    239c:	00000742 	andeq	r0, r0, r2, asr #14
    23a0:	0000048d 	andeq	r0, r0, sp, lsl #9
    23a4:	01500119 	cmpeq	r0, r9, lsl r1
    23a8:	51011940 	tstpl	r1, r0, asr #18
    23ac:	7dd09103 	ldfvcp	f1, [r0, #12]
    23b0:	02520119 	subseq	r0, r2, #1073741830	; 0x40000006
    23b4:	01198008 	tsteq	r9, r8
    23b8:	00770253 	rsbseq	r0, r7, r3, asr r2
    23bc:	007d0219 	rsbseq	r0, sp, r9, lsl r2
    23c0:	19007502 	stmdbne	r0, {r1, r8, sl, ip, sp, lr}
    23c4:	02047d02 	andeq	r7, r4, #128	; 0x80
    23c8:	18000076 	stmdane	r0, {r1, r2, r4, r5, r6}
    23cc:	000091f0 	strdeq	r9, [r0], -r0
    23d0:	00000742 	andeq	r0, r0, r2, asr #14
    23d4:	000004c1 	andeq	r0, r0, r1, asr #9
    23d8:	01500119 	cmpeq	r0, r9, lsl r1
    23dc:	51011940 	tstpl	r1, r0, asr #18
    23e0:	7ed09103 	atnvcs	f1, f3
    23e4:	02520119 	subseq	r0, r2, #1073741830	; 0x40000006
    23e8:	01198008 	tsteq	r9, r8
    23ec:	007a0253 	rsbseq	r0, sl, r3, asr r2
    23f0:	007d0219 	rsbseq	r0, sp, r9, lsl r2
    23f4:	19007502 	stmdbne	r0, {r1, r8, sl, ip, sp, lr}
    23f8:	02047d02 	andeq	r7, r4, #128	; 0x80
    23fc:	18000076 	stmdane	r0, {r1, r2, r4, r5, r6}
    2400:	000091fc 	strdeq	r9, [r0], -ip
    2404:	00000ace 	andeq	r0, r0, lr, asr #21
    2408:	000004dd 	ldrdeq	r0, [r0], -sp
    240c:	03500119 	cmpeq	r0, #1073741830	; 0x40000006
    2410:	197dd091 	ldmdbne	sp!, {r0, r4, r7, ip, lr, pc}^
    2414:	91035101 	tstls	r3, r1, lsl #2
    2418:	18007ed2 	stmdane	r0, {r1, r4, r6, r7, r9, sl, fp, ip, sp, lr}
    241c:	00009210 	andeq	r9, r0, r0, lsl r2
    2420:	00000ace 	andeq	r0, r0, lr, asr #21
    2424:	000004f9 	strdeq	r0, [r0], -r9
    2428:	03500119 	cmpeq	r0, #1073741830	; 0x40000006
    242c:	197dd091 	ldmdbne	sp!, {r0, r4, r7, ip, lr, pc}^
    2430:	91035101 	tstls	r3, r1, lsl #2
    2434:	18007ed0 	stmdane	r0, {r4, r6, r7, r9, sl, fp, ip, sp, lr}
    2438:	00009230 	andeq	r9, r0, r0, lsr r2
    243c:	00000a9e 	muleq	r0, lr, sl
    2440:	0000052f 	andeq	r0, r0, pc, lsr #10
    2444:	05500119 	ldrbeq	r0, [r0, #-281]	; 0xfffffee7
    2448:	00a2cc03 	adceq	ip, r2, r3, lsl #24
    244c:	51011900 	tstpl	r1, r0, lsl #18
    2450:	a22c0305 	eorge	r0, ip, #335544320	; 0x14000000
    2454:	01190000 	tsteq	r9, r0
    2458:	84030552 	strhi	r0, [r3], #-1362	; 0xfffffaae
    245c:	190000a3 	stmdbne	r0, {r0, r1, r5, r7}
    2460:	08025301 	stmdaeq	r2, {r0, r8, r9, ip, lr}
    2464:	7d0219b6 	vstrvc.16	s2, [r2, #-364]	; 0xfffffe94	; <UNPREDICTABLE>
    2468:	00760200 	rsbseq	r0, r6, r0, lsl #4
    246c:	92341a00 	eorsls	r1, r4, #0, 20
    2470:	0ac20000 	beq	ff082478 <__bss_end__+0xff077a98>
    2474:	18000000 	stmdane	r0, {}	; <UNPREDICTABLE>
    2478:	00008fe0 	andeq	r8, r0, r0, ror #31
    247c:	000009c0 	andeq	r0, r0, r0, asr #19
    2480:	0000054d 	andeq	r0, r0, sp, asr #10
    2484:	02500119 	subseq	r0, r0, #1073741830	; 0x40000006
    2488:	18000077 	stmdane	r0, {r0, r1, r2, r4, r5, r6}
    248c:	0000908c 	andeq	r9, r0, ip, lsl #1
    2490:	00000a9e 	muleq	r0, lr, sl
    2494:	00000586 	andeq	r0, r0, r6, lsl #11
    2498:	05500119 	ldrbeq	r0, [r0, #-281]	; 0xfffffee7
    249c:	009df003 	addseq	pc, sp, r3
    24a0:	51011900 	tstpl	r1, r0, lsl #18
    24a4:	a22c0305 	eorge	r0, ip, #335544320	; 0x14000000
    24a8:	01190000 	tsteq	r9, r0
    24ac:	84030552 	strhi	r0, [r3], #-1362	; 0xfffffaae
    24b0:	190000a3 	stmdbne	r0, {r0, r1, r5, r7}
    24b4:	08025301 	stmdaeq	r2, {r0, r8, r9, ip, lr}
    24b8:	7d021998 	vstrvc.16	s2, [r2, #-304]	; 0xfffffed0	; <UNPREDICTABLE>
    24bc:	6c030500 	cfstr32vs	mvfx0, [r3], {-0}
    24c0:	000000a2 	andeq	r0, r0, r2, lsr #1
    24c4:	0090901a 	addseq	r9, r0, sl, lsl r0
    24c8:	000ac200 	andeq	ip, sl, r0, lsl #4
    24cc:	92481800 	subls	r1, r8, #0, 16
    24d0:	0a9e0000 	beq	fe7824d8 <__bss_end__+0xfe777af8>
    24d4:	05be0000 	ldreq	r0, [lr, #0]!
    24d8:	01190000 	tsteq	r9, r0
    24dc:	f4030550 	vst3.16	{d0,d2,d4}, [r3 :64], r0
    24e0:	190000a2 	stmdbne	r0, {r1, r5, r7}
    24e4:	03055101 	movweq	r5, #20737	; 0x5101
    24e8:	0000a22c 	andeq	sl, r0, ip, lsr #4
    24ec:	05520119 	ldrbeq	r0, [r2, #-281]	; 0xfffffee7
    24f0:	00a38403 	adceq	r8, r3, r3, lsl #8
    24f4:	53011900 	movwpl	r1, #6400	; 0x1900
    24f8:	00be0802 	adcseq	r0, lr, r2, lsl #16
    24fc:	00924c1a 	addseq	r4, r2, sl, lsl ip
    2500:	000ac200 	andeq	ip, sl, r0, lsl #4
    2504:	92781800 	rsbsls	r1, r8, #0, 16
    2508:	07420000 	strbeq	r0, [r2, -r0]
    250c:	05f40000 	ldrbeq	r0, [r4, #0]!
    2510:	01190000 	tsteq	r9, r0
    2514:	193a0150 	ldmdbne	sl!, {r4, r6, r8}
    2518:	91035101 	tstls	r3, r1, lsl #2
    251c:	01197dd0 			; <UNDEFINED> instruction: 0x01197dd0
    2520:	80080252 	andhi	r0, r8, r2, asr r2
    2524:	007d0219 	rsbseq	r0, sp, r9, lsl r2
    2528:	19007502 	stmdbne	r0, {r1, r8, sl, ip, sp, lr}
    252c:	01047d02 	tsteq	r4, r2, lsl #26
    2530:	b0180031 	andslt	r0, r8, r1, lsr r0
    2534:	42000092 	andmi	r0, r0, #146, 0	; 0x92
    2538:	21000007 	tstcs	r0, r7
    253c:	19000006 	stmdbne	r0, {r1, r2}
    2540:	3a015001 	bcc	5654c <__bss_end__+0x4bb6c>
    2544:	03510119 	cmpeq	r1, #1073741830	; 0x40000006
    2548:	197dd091 	ldmdbne	sp!, {r0, r4, r7, ip, lr, pc}^
    254c:	08025201 	stmdaeq	r2, {r0, r9, ip, lr}
    2550:	7d021980 	vstrvc.16	s2, [r2, #-256]	; 0xffffff00	; <UNPREDICTABLE>
    2554:	00750200 	rsbseq	r0, r5, r0, lsl #4
    2558:	047d0219 	ldrbteq	r0, [sp], #-537	; 0xfffffde7
    255c:	18003001 	stmdane	r0, {r0, ip, sp}
    2560:	000092e4 	andeq	r9, r0, r4, ror #5
    2564:	00000742 	andeq	r0, r0, r2, asr #14
    2568:	0000064e 	andeq	r0, r0, lr, asr #12
    256c:	01500119 	cmpeq	r0, r9, lsl r1
    2570:	51011940 	tstpl	r1, r0, asr #18
    2574:	7dd09103 	ldfvcp	f1, [r0, #12]
    2578:	02520119 	subseq	r0, r2, #1073741830	; 0x40000006
    257c:	02198008 	andseq	r8, r9, #8, 0
    2580:	7502007d 	strvc	r0, [r2, #-125]	; 0xffffff83
    2584:	7d021900 	vstrvc.16	s2, [r2, #-0]	; <UNPREDICTABLE>
    2588:	00300104 	eorseq	r0, r0, r4, lsl #2
    258c:	00931818 	addseq	r1, r3, r8, lsl r8
    2590:	00074200 	andeq	r4, r7, r0, lsl #4
    2594:	00067b00 	andeq	r7, r6, r0, lsl #22
    2598:	50011900 	andpl	r1, r1, r0, lsl #18
    259c:	01193201 	tsteq	r9, r1, lsl #4
    25a0:	d0910351 	addsle	r0, r1, r1, asr r3
    25a4:	5201197d 	andpl	r1, r1, #2048000	; 0x1f4000
    25a8:	19800802 	stmibne	r0, {r1, fp}
    25ac:	02007d02 	andeq	r7, r0, #128	; 0x80
    25b0:	02190075 	andseq	r0, r9, #117, 0	; 0x75
    25b4:	3001047d 	andcc	r0, r1, sp, ror r4
    25b8:	93601800 	cmnls	r0, #0, 16
    25bc:	07420000 	strbeq	r0, [r2, -r0]
    25c0:	06a80000 	strteq	r0, [r8], r0
    25c4:	01190000 	tsteq	r9, r0
    25c8:	19380150 	ldmdbne	r8!, {r4, r6, r8}
    25cc:	91035101 	tstls	r3, r1, lsl #2
    25d0:	01197dd0 			; <UNDEFINED> instruction: 0x01197dd0
    25d4:	80080252 	andhi	r0, r8, r2, asr r2
    25d8:	007d0219 	rsbseq	r0, sp, r9, lsl r2
    25dc:	19007502 	stmdbne	r0, {r1, r8, sl, ip, sp, lr}
    25e0:	01047d02 	tsteq	r4, r2, lsl #26
    25e4:	80180030 	andshi	r0, r8, r0, lsr r0
    25e8:	9e000093 	mcrls	0, 0, r0, cr0, cr3, {4}
    25ec:	cb00000a 	blgt	261c <__code_start__-0x59e4>
    25f0:	19000006 	stmdbne	r0, {r1, r2}
    25f4:	03055001 	movweq	r5, #20481	; 0x5001
    25f8:	0000a31c 	andeq	sl, r0, ip, lsl r3
    25fc:	02510119 	subseq	r0, r1, #1073741830	; 0x40000006
    2600:	0119007a 	tsteq	r9, sl, ror r0
    2604:	007a0252 	rsbseq	r0, sl, r2, asr r2
    2608:	93901b00 	orrsls	r1, r0, #0, 22
    260c:	06dd0000 	ldrbeq	r0, [sp], r0
    2610:	01190000 	tsteq	r9, r0
    2614:	c8910450 	ldmgt	r1, {r4, r6, sl}
    2618:	1800067d 	stmdane	r0, {r0, r2, r3, r4, r5, r6, r9, sl}
    261c:	000093a4 	andeq	r9, r0, r4, lsr #7
    2620:	00000a9e 	muleq	r0, lr, sl
    2624:	0000070c 	andeq	r0, r0, ip, lsl #14
    2628:	05500119 	ldrbeq	r0, [r0, #-281]	; 0xfffffee7
    262c:	00a34c03 	adceq	r4, r3, r3, lsl #24
    2630:	51011900 	tstpl	r1, r0, lsl #18
    2634:	a22c0305 	eorge	r0, ip, #335544320	; 0x14000000
    2638:	01190000 	tsteq	r9, r0
    263c:	84030552 	strhi	r0, [r3], #-1362	; 0xfffffaae
    2640:	190000a3 	stmdbne	r0, {r0, r1, r5, r7}
    2644:	08025301 	stmdaeq	r2, {r0, r8, r9, ip, lr}
    2648:	a81a00e2 	ldmdage	sl, {r1, r5, r6, r7}
    264c:	c2000093 	andgt	r0, r0, #147, 0	; 0x93
    2650:	0000000a 	andeq	r0, r0, sl
    2654:	b9040800 	stmdblt	r4, {fp}
    2658:	1c000000 	stcne	0, cr0, [r0], {-0}
    265c:	000000c0 	andeq	r0, r0, r0, asr #1
    2660:	0000072d 	andeq	r0, r0, sp, lsr #14
    2664:	00002c1d 	andeq	r2, r0, sp, lsl ip
    2668:	09000900 	stmdbeq	r0, {r8, fp}
    266c:	0000071d 	andeq	r0, r0, sp, lsl r7
    2670:	0000b91c 	andeq	fp, r0, ip, lsl r9
    2674:	00074200 	andeq	r4, r7, r0, lsl #4
    2678:	002c1d00 	eoreq	r1, ip, r0, lsl #26
    267c:	007f0000 	rsbseq	r0, pc, r0
    2680:	0006ef1e 	andeq	lr, r6, lr, lsl pc
    2684:	01490100 	mrseq	r0, (UNDEF: 89)
    2688:	00000717 	andeq	r0, r0, r7, lsl r7
    268c:	00008d48 	andeq	r8, r0, r8, asr #26
    2690:	000001b4 			; <UNDEFINED> instruction: 0x000001b4
    2694:	08ab9c01 	stmiaeq	fp!, {r0, sl, fp, ip, pc}
    2698:	cd1f0000 	ldcgt	0, cr0, [pc, #-0]	; 26a0 <__code_start__-0x5960>
    269c:	01000004 	tsteq	r0, r4
    26a0:	002c0f49 	eoreq	r0, ip, r9, asr #30
    26a4:	0ebd0000 	cdpeq	0, 11, cr0, cr13, cr0, {0}
    26a8:	0eb70000 	cdpeq	0, 11, cr0, cr7, cr0, {0}
    26ac:	640e0000 	strvs	r0, [lr], #-0
    26b0:	01007473 	tsteq	r0, r3, ror r4
    26b4:	07171b49 	ldreq	r1, [r7, -r9, asr #22]
    26b8:	0efb0000 	cdpeq	0, 15, cr0, cr11, cr0, {0}
    26bc:	0eeb0000 	cdpeq	0, 14, cr0, cr11, cr0, {0}
    26c0:	6e0e0000 	cdpvs	0, 0, cr0, cr14, cr0, {0}
    26c4:	24490100 	strbcs	r0, [r9], #-256	; 0xffffff00
    26c8:	00000025 	andeq	r0, r0, r5, lsr #32
    26cc:	00000f5f 	andeq	r0, r0, pc, asr pc
    26d0:	00000f5b 	andeq	r0, r0, fp, asr pc
    26d4:	6c61760e 	stclvs	6, cr7, [r1], #-56	; 0xffffffc8
    26d8:	2b490100 	blcs	1242ae0 <__bss_end__+0x1238100>
    26dc:	00000025 	andeq	r0, r0, r5, lsr #32
    26e0:	00000f89 	andeq	r0, r0, r9, lsl #31
    26e4:	00000f7d 	andeq	r0, r0, sp, ror pc
    26e8:	00069f1f 	andeq	r9, r6, pc, lsl pc
    26ec:	34490100 	strbcc	r0, [r9], #-256	; 0xffffff00
    26f0:	00000025 	andeq	r0, r0, r5, lsr #32
    26f4:	00000fdf 	ldrdeq	r0, [r0], -pc	; <UNPREDICTABLE>
    26f8:	00000fd9 	ldrdeq	r0, [r0], -r9
    26fc:	00072c0f 	andeq	r2, r7, pc, lsl #24
    2700:	3f490100 	svccc	0x00490100
    2704:	00000025 	andeq	r0, r0, r5, lsr #32
    2708:	14049102 	strne	r9, [r4], #-258	; 0xfffffefe
    270c:	00667562 	rsbeq	r7, r6, r2, ror #10
    2710:	ab074e01 	blge	1d5f1c <__bss_end__+0x1cb53c>
    2714:	03000008 	movweq	r0, #8
    2718:	107fa891 			; <UNDEFINED> instruction: 0x107fa891
    271c:	4e010070 	mcrmi	0, 0, r0, cr1, cr0, {3}
    2720:	00071711 	andeq	r1, r7, r1, lsl r7
    2724:	00102900 	andseq	r2, r0, r0, lsl #18
    2728:	00100900 	andseq	r0, r0, r0, lsl #18
    272c:	00751000 	rsbseq	r1, r5, r0
    2730:	2c0b4f01 	stccs	15, cr4, [fp], {1}
    2734:	0f000000 	svceq	0x00000000
    2738:	fb000011 	blx	2786 <__code_start__-0x587a>
    273c:	12000010 	andne	r0, r0, #16, 0
    2740:	0000008c 	andeq	r0, r0, ip, lsl #1
    2744:	000008cb 	andeq	r0, r0, fp, asr #17
    2748:	a36c0305 	cmnge	ip, #335544320	; 0x14000000
    274c:	b4160000 	ldrlt	r0, [r6], #-0
    2750:	7800008d 	stmdavc	r0, {r0, r2, r3, r7}
    2754:	32000000 	andcc	r0, r0, #0, 0
    2758:	11000008 	tstne	r0, r8
    275c:	000006dc 	ldrdeq	r0, [r0], -ip
    2760:	2c0d5401 	cfstrscs	mvf5, [sp], {1}
    2764:	90000000 	andls	r0, r0, r0
    2768:	88000011 	stmdahi	r0, {r0, r4}
    276c:	00000011 	andeq	r0, r0, r1, lsl r0
    2770:	008e6c18 	addeq	r6, lr, r8, lsl ip
    2774:	00095d00 	andeq	r5, r9, r0, lsl #26
    2778:	00084700 	andeq	r4, r8, r0, lsl #14
    277c:	51011900 	tstpl	r1, r0, lsl #18
    2780:	7fa09103 	svcvc	0x00a09103
    2784:	8e801800 	cdphi	8, 8, cr1, cr0, cr0, {0}
    2788:	08d00000 	ldmeq	r0, {}^	; <UNPREDICTABLE>
    278c:	08680000 	stmdaeq	r8!, {}^	; <UNPREDICTABLE>
    2790:	01190000 	tsteq	r9, r0
    2794:	00750250 	rsbseq	r0, r5, r0, asr r2
    2798:	02510119 	subseq	r0, r1, #1073741830	; 0x40000006
    279c:	01190074 	tsteq	r9, r4, ror r0
    27a0:	a0910353 	addsge	r0, r1, r3, asr r3
    27a4:	d818007f 	ldmdale	r8, {r0, r1, r2, r3, r4, r5, r6}
    27a8:	9e00008e 	cdpls	0, 0, cr0, cr0, cr14, {4}
    27ac:	a100000a 	tstge	r0, sl
    27b0:	19000008 	stmdbne	r0, {r3}
    27b4:	03055001 	movweq	r5, #20481	; 0x5001
    27b8:	00009df0 	strdeq	r9, [r0], -r0
    27bc:	05510119 	ldrbeq	r0, [r1, #-281]	; 0xfffffee7
    27c0:	00a22c03 	adceq	r2, r2, r3, lsl #24
    27c4:	52011900 	andpl	r1, r1, #0, 18
    27c8:	a36c0305 	cmnge	ip, #335544320	; 0x14000000
    27cc:	01190000 	tsteq	r9, r0
    27d0:	79080253 	stmdbvc	r8, {r0, r1, r4, r6, r9}
    27d4:	007d0219 	rsbseq	r0, sp, r9, lsl r2
    27d8:	a0e00305 	rscge	r0, r0, r5, lsl #6
    27dc:	1a000000 	bne	27e4 <__code_start__-0x581c>
    27e0:	00008edc 	ldrdeq	r8, [r0], -ip
    27e4:	00000ac2 	andeq	r0, r0, r2, asr #21
    27e8:	00b91c00 	adcseq	r1, r9, r0, lsl #24
    27ec:	08bb0000 	ldmeq	fp!, {}	; <UNPREDICTABLE>
    27f0:	2c1d0000 	ldccs	0, cr0, [sp], {-0}
    27f4:	3f000000 	svccc	0x00000000
    27f8:	00c01c00 	sbceq	r1, r0, r0, lsl #24
    27fc:	08cb0000 	stmiaeq	fp, {}^	; <UNPREDICTABLE>
    2800:	2c1d0000 	ldccs	0, cr0, [sp], {-0}
    2804:	04000000 	streq	r0, [r0], #-0
    2808:	08bb0900 	ldmeq	fp!, {r8, fp}
    280c:	fc1e0000 	ldc2	0, cr0, [lr], {-0}
    2810:	01000006 	tsteq	r0, r6
    2814:	07170e38 			; <UNDEFINED> instruction: 0x07170e38
    2818:	8d100000 	ldchi	0, cr0, [r0, #-0]
    281c:	00380000 	eorseq	r0, r8, r0
    2820:	9c010000 	stcls	0, cr0, [r1], {-0}
    2824:	0000095d 	andeq	r0, r0, sp, asr r9
    2828:	7473640e 	ldrbtvc	r6, [r3], #-1038	; 0xfffffbf2
    282c:	1c380100 	ldfnes	f0, [r8], #-0
    2830:	00000717 	andeq	r0, r0, r7, lsl r7
    2834:	000011d1 	ldrdeq	r1, [r0], -r1	; <UNPREDICTABLE>
    2838:	000011c7 	andeq	r1, r0, r7, asr #3
    283c:	01006e0e 	tsteq	r0, lr, lsl #28
    2840:	00252538 	eoreq	r2, r5, r8, lsr r5
    2844:	12180000 	andsne	r0, r8, #0, 0
    2848:	12140000 	andsne	r0, r4, #0, 0
    284c:	700e0000 	andvc	r0, lr, r0
    2850:	2e380100 	rsfcse	f0, f0, f0
    2854:	00000717 	andeq	r0, r0, r7, lsl r7
    2858:	00001241 	andeq	r1, r0, r1, asr #4
    285c:	00001239 	andeq	r1, r0, r9, lsr r2
    2860:	0003631f 	andeq	r6, r3, pc, lsl r3
    2864:	37380100 	ldrcc	r0, [r8, -r0, lsl #2]!
    2868:	00000717 	andeq	r0, r0, r7, lsl r7
    286c:	0000127b 	andeq	r1, r0, fp, ror r2
    2870:	00001277 	andeq	r1, r0, r7, ror r2
    2874:	6e656c10 	mcrvs	12, 3, r6, cr5, cr0, {0}
    2878:	063a0100 	ldrteq	r0, [sl], -r0, lsl #2
    287c:	00000025 	andeq	r0, r0, r5, lsr #32
    2880:	000012a1 	andeq	r1, r0, r1, lsr #5
    2884:	00001299 	muleq	r0, r9, r2
    2888:	01007310 	tsteq	r0, r0, lsl r3
    288c:	0717083e 			; <UNDEFINED> instruction: 0x0717083e
    2890:	12ef0000 	rscne	r0, pc, #0, 0
    2894:	12ed0000 	rscne	r0, sp, #0, 0
    2898:	20000000 	andcs	r0, r0, r0
    289c:	00646170 	rsbeq	r6, r4, r0, ror r1
    28a0:	170e2e01 	strne	r2, [lr, -r1, lsl #28]
    28a4:	ec000007 	stc	0, cr0, [r0], {7}
    28a8:	2400008c 	strcs	r0, [r0], #-140	; 0xffffff74
    28ac:	01000000 	mrseq	r0, (UNDEF: 0)
    28b0:	0009c09c 	muleq	r9, ip, r0
    28b4:	00700e00 	rsbseq	r0, r0, r0, lsl #28
    28b8:	17182e01 	ldrne	r2, [r8, -r1, lsl #28]
    28bc:	08000007 	stmdaeq	r0, {r0, r1, r2}
    28c0:	02000013 	andeq	r0, r0, #19, 0
    28c4:	1f000013 	svcne	0x00000013
    28c8:	000004cd 	andeq	r0, r0, sp, asr #9
    28cc:	17222e01 	strne	r2, [r2, -r1, lsl #28]!
    28d0:	37000007 	strcc	r0, [r0, -r7]
    28d4:	33000013 	movwcc	r0, #19
    28d8:	0f000013 	svceq	0x00000013
    28dc:	0000069f 	muleq	r0, pc, r6	; <UNPREDICTABLE>
    28e0:	252c2e01 	strcs	r2, [ip, #-3585]!	; 0xfffff1ff
    28e4:	01000000 	mrseq	r0, (UNDEF: 0)
    28e8:	656c1052 	strbvs	r1, [ip, #-82]!	; 0xffffffae
    28ec:	2f01006e 	svccs	0x0001006e
    28f0:	00002506 	andeq	r2, r0, r6, lsl #10
    28f4:	00135a00 	andseq	r5, r3, r0, lsl #20
    28f8:	00135800 	andseq	r5, r3, r0, lsl #16
    28fc:	6c1e0000 	ldcvs	0, cr0, [lr], {-0}
    2900:	01000006 	tsteq	r0, r6
    2904:	00250c27 	eoreq	r0, r5, r7, lsr #24
    2908:	8cd80000 	ldclhi	0, cr0, [r8], {0}
    290c:	00140000 	andseq	r0, r4, r0
    2910:	9c010000 	stcls	0, cr0, [r1], {-0}
    2914:	000009ed 	andeq	r0, r0, sp, ror #19
    2918:	0100630e 	tsteq	r0, lr, lsl #6
    291c:	00251827 	eoreq	r1, r5, r7, lsr #16
    2920:	13730000 	cmnne	r3, #0, 0
    2924:	136d0000 	cmnne	sp, #0, 0
    2928:	21000000 	mrscs	r0, (UNDEF: 0)
    292c:	000006bc 			; <UNDEFINED> instruction: 0x000006bc
    2930:	fc061f01 	stc2	15, cr1, [r6], {1}
    2934:	6400008e 	strvs	r0, [r0], #-142	; 0xffffff72
    2938:	01000000 	mrseq	r0, (UNDEF: 0)
    293c:	000a7d9c 	muleq	sl, ip, sp
    2940:	06a51f00 	strteq	r1, [r5], r0, lsl #30
    2944:	1f010000 	svcne	0x00010000
    2948:	00009e1b 	andeq	r9, r0, fp, lsl lr
    294c:	0013a500 	andseq	sl, r3, r0, lsl #10
    2950:	0013a100 	andseq	sl, r3, r0, lsl #2
    2954:	06f41f00 	ldrbteq	r1, [r4], r0, lsl #30
    2958:	1f010000 	svcne	0x00010000
    295c:	0000d130 	andeq	sp, r0, r0, lsr r1
    2960:	0013ca00 	andseq	ip, r3, r0, lsl #20
    2964:	0013c600 	andseq	ip, r3, r0, lsl #12
    2968:	008c1200 	addeq	r1, ip, r0, lsl #4
    296c:	0a8d0000 	beq	fe342974 <__bss_end__+0xfe337f94>
    2970:	03050000 	movweq	r0, #20480	; 0x5000
    2974:	0000a374 	andeq	sl, r0, r4, ror r3
    2978:	008f4418 	addeq	r4, pc, r8, lsl r4	; <UNPREDICTABLE>
    297c:	000a9e00 	andeq	r9, sl, r0, lsl #28
    2980:	000a7300 	andeq	r7, sl, r0, lsl #6
    2984:	50011900 	andpl	r1, r1, r0, lsl #18
    2988:	9df00305 	ldclls	3, cr0, [r0, #20]!
    298c:	01190000 	tsteq	r9, r0
    2990:	2c030551 	cfstr32cs	mvfx0, [r3], {81}	; 0x51
    2994:	190000a2 	stmdbne	r0, {r1, r5, r7}
    2998:	03055201 	movweq	r5, #20993	; 0x5201
    299c:	0000a374 	andeq	sl, r0, r4, ror r3
    29a0:	02530119 	subseq	r0, r3, #1073741830	; 0x40000006
    29a4:	02192008 	andseq	r2, r9, #8, 0
    29a8:	0305007d 	movweq	r0, #20605	; 0x507d
    29ac:	0000a264 	andeq	sl, r0, r4, ror #4
    29b0:	8f481a00 	svchi	0x00481a00
    29b4:	0ac20000 	beq	ff0829bc <__bss_end__+0xff077fdc>
    29b8:	1c000000 	stcne	0, cr0, [r0], {-0}
    29bc:	000000c0 	andeq	r0, r0, r0, asr #1
    29c0:	00000a8d 	andeq	r0, r0, sp, lsl #21
    29c4:	00002c1d 	andeq	r2, r0, sp, lsl ip
    29c8:	09000e00 	stmdbeq	r0, {r9, sl, fp}
    29cc:	00000a7d 	andeq	r0, r0, sp, ror sl
    29d0:	00072422 	andeq	r2, r7, r2, lsr #8
    29d4:	00072400 	andeq	r2, r7, r0, lsl #8
    29d8:	05f00300 	ldrbeq	r0, [r0, #768]!	; 0x300
    29dc:	00061b22 	andeq	r1, r6, r2, lsr #22
    29e0:	00061b00 	andeq	r1, r6, r0, lsl #22
    29e4:	06280300 	strteq	r0, [r8], -r0, lsl #6
    29e8:	00070b22 	andeq	r0, r7, r2, lsr #22
    29ec:	00070b00 	andeq	r0, r7, r0, lsl #22
    29f0:	05ef0300 	strbeq	r0, [pc, #768]!	; 2cf8 <__code_start__-0x5308>
    29f4:	0006d522 	andeq	sp, r6, r2, lsr #10
    29f8:	0006d500 	andeq	sp, r6, r0, lsl #10
    29fc:	07f20300 	ldrbeq	r0, [r2, r0, lsl #6]!
    2a00:	0002cc22 	andeq	ip, r2, r2, lsr #24
    2a04:	0002cc00 	andeq	ip, r2, r0, lsl #24
    2a08:	066e0300 	strbteq	r0, [lr], -r0, lsl #6
    2a0c:	00070422 	andeq	r0, r7, r2, lsr #8
    2a10:	00070400 	andeq	r0, r7, r0, lsl #8
    2a14:	07f30300 	ldrbeq	r0, [r3, r0, lsl #6]!
    2a18:	00012f00 	andeq	r2, r1, r0, lsl #30
    2a1c:	23000400 	movwcs	r0, #1024	; 0x400
    2a20:	0400000d 	streq	r0, [r0], #-13
    2a24:	0004ea01 	andeq	lr, r4, r1, lsl #20
    2a28:	07490c00 	strbeq	r0, [r9, -r0, lsl #24]
    2a2c:	05cb0000 	strbeq	r0, [fp]
    2a30:	94180000 	ldrls	r0, [r8], #-0
    2a34:	002c0000 	eoreq	r0, ip, r0
    2a38:	16e90000 	strbtne	r0, [r9], r0
    2a3c:	04020000 	streq	r0, [r2], #-0
    2a40:	746e6905 	strbtvc	r6, [lr], #-2309	; 0xfffff6fb
    2a44:	07040300 	streq	r0, [r4, -r0, lsl #6]
    2a48:	000000bd 	strheq	r0, [r0], -sp
    2a4c:	4f060103 	svcmi	0x00060103
    2a50:	03000000 	movweq	r0, #0
    2a54:	01560502 	cmpeq	r6, r2, lsl #10
    2a58:	04030000 	streq	r0, [r3], #-0
    2a5c:	00014105 	andeq	r4, r1, r5, lsl #2
    2a60:	05080300 	streq	r0, [r8, #-768]	; 0xfffffd00
    2a64:	0000013c 	andeq	r0, r0, ip, lsr r1
    2a68:	4d080103 	stfmis	f0, [r8, #-12]
    2a6c:	03000000 	movweq	r0, #0
    2a70:	005b0702 	subseq	r0, fp, r2, lsl #14
    2a74:	04030000 	streq	r0, [r3], #-0
    2a78:	0000b807 	andeq	fp, r0, r7, lsl #16
    2a7c:	07080300 	streq	r0, [r8, -r0, lsl #6]
    2a80:	000000b3 	strheq	r0, [r0], -r3
    2a84:	00002504 	andeq	r2, r0, r4, lsl #10
    2a88:	00007a00 	andeq	r7, r0, r0, lsl #20
    2a8c:	00250500 	eoreq	r0, r5, r0, lsl #10
    2a90:	06000000 	streq	r0, [r0], -r0
    2a94:	0000014a 	andeq	r0, r0, sl, asr #2
    2a98:	860e1c02 	strhi	r1, [lr], -r2, lsl #24
    2a9c:	07000000 	streq	r0, [r0, -r0]
    2aa0:	00006b04 	andeq	r6, r0, r4, lsl #22
    2aa4:	00250400 	eoreq	r0, r5, r0, lsl #8
    2aa8:	009b0000 	addseq	r0, fp, r0
    2aac:	9b050000 	blls	142ab4 <__bss_end__+0x1380d4>
    2ab0:	00000000 	andeq	r0, r0, r0
    2ab4:	00a80407 	adceq	r0, r8, r7, lsl #8
    2ab8:	01030000 	mrseq	r0, (UNDEF: 3)
    2abc:	00005608 	andeq	r5, r0, r8, lsl #12
    2ac0:	00a10800 	adceq	r0, r1, r0, lsl #16
    2ac4:	59060000 	stmdbpl	r6, {}	; <UNPREDICTABLE>
    2ac8:	02000006 	andeq	r0, r0, #6, 0
    2acc:	00b90e21 	adcseq	r0, r9, r1, lsr #28
    2ad0:	04070000 	streq	r0, [r7], #-0
    2ad4:	0000008c 	andeq	r0, r0, ip, lsl #1
    2ad8:	0002cc09 	andeq	ip, r2, r9, lsl #24
    2adc:	06040100 	streq	r0, [r4], -r0, lsl #2
    2ae0:	00009418 	andeq	r9, r0, r8, lsl r4
    2ae4:	0000002c 	andeq	r0, r0, ip, lsr #32
    2ae8:	010e9c01 	tsteq	lr, r1, lsl #24
    2aec:	2c0a0000 	stccs	0, cr0, [sl], {-0}
    2af0:	e8000094 	stmda	r0, {r2, r4, r7}
    2af4:	0b000000 	bleq	2afc <__code_start__-0x5504>
    2af8:	03055001 	movweq	r5, #20481	; 0x5001
    2afc:	0000a390 	muleq	r0, r0, r3
    2b00:	94300c00 	ldrtls	r0, [r0], #-3072	; 0xfffff400
    2b04:	010e0000 	mrseq	r0, (UNDEF: 14)
    2b08:	380d0000 	stmdacc	sp, {}	; <UNPREDICTABLE>
    2b0c:	1a000094 	bne	2d64 <__code_start__-0x529c>
    2b10:	04000001 	streq	r0, [r0], #-1
    2b14:	0b000001 	bleq	2b20 <__code_start__-0x54e0>
    2b18:	3a015001 	bcc	56b24 <__bss_end__+0x4c144>
    2b1c:	943c0c00 	ldrtls	r0, [ip], #-3072	; 0xfffff400
    2b20:	01260000 			; <UNDEFINED> instruction: 0x01260000
    2b24:	0e000000 	cdpeq	0, 0, cr0, cr0, cr0, {0}
    2b28:	00000764 	andeq	r0, r0, r4, ror #14
    2b2c:	00000764 	andeq	r0, r0, r4, ror #14
    2b30:	0e064d02 	cdpeq	13, 0, cr4, cr6, cr2, {0}
    2b34:	00000740 	andeq	r0, r0, r0, asr #14
    2b38:	00000740 	andeq	r0, r0, r0, asr #14
    2b3c:	0e065802 	cdpeq	8, 0, cr5, cr6, cr2, {0}
    2b40:	00000735 	andeq	r0, r0, r5, lsr r7
    2b44:	00000735 	andeq	r0, r0, r5, lsr r7
    2b48:	00066b02 	andeq	r6, r6, r2, lsl #22
    2b4c:	00000189 	andeq	r0, r0, r9, lsl #3
    2b50:	0de30004 	stcleq	0, cr0, [r3, #16]!
    2b54:	01040000 	mrseq	r0, (UNDEF: 4)
    2b58:	000004ea 	andeq	r0, r0, sl, ror #9
    2b5c:	00079a0c 	andeq	r9, r7, ip, lsl #20
    2b60:	0005cb00 	andeq	ip, r5, r0, lsl #22
    2b64:	00944400 	addseq	r4, r4, r0, lsl #8
    2b68:	00003c00 	andeq	r3, r0, r0, lsl #24
    2b6c:	00179200 	andseq	r9, r7, r0, lsl #4
    2b70:	05040200 	streq	r0, [r4, #-512]	; 0xfffffe00
    2b74:	00746e69 	rsbseq	r6, r4, r9, ror #28
    2b78:	bd070403 	cfstrslt	mvf0, [r7, #-12]
    2b7c:	03000000 	movweq	r0, #0
    2b80:	004f0601 	subeq	r0, pc, r1, lsl #12
    2b84:	02030000 	andeq	r0, r3, #0, 0
    2b88:	00015605 	andeq	r5, r1, r5, lsl #12
    2b8c:	05040300 	streq	r0, [r4, #-768]	; 0xfffffd00
    2b90:	00000141 	andeq	r0, r0, r1, asr #2
    2b94:	3c050803 	stccc	8, cr0, [r5], {3}
    2b98:	03000001 	movweq	r0, #1
    2b9c:	004d0801 	subeq	r0, sp, r1, lsl #16
    2ba0:	02030000 	andeq	r0, r3, #0, 0
    2ba4:	00005b07 	andeq	r5, r0, r7, lsl #22
    2ba8:	07040300 	streq	r0, [r4, -r0, lsl #6]
    2bac:	000000b8 	strheq	r0, [r0], -r8
    2bb0:	b3070803 	movwlt	r0, #30723	; 0x7803
    2bb4:	04000000 	streq	r0, [r0], #-0
    2bb8:	00000025 	andeq	r0, r0, r5, lsr #32
    2bbc:	0000007a 	andeq	r0, r0, sl, ror r0
    2bc0:	00002505 	andeq	r2, r0, r5, lsl #10
    2bc4:	4a060000 	bmi	182bcc <__bss_end__+0x1781ec>
    2bc8:	02000001 	andeq	r0, r0, #1, 0
    2bcc:	00860e1c 	addeq	r0, r6, ip, lsl lr
    2bd0:	04070000 	streq	r0, [r7], #-0
    2bd4:	0000006b 	andeq	r0, r0, fp, rrx
    2bd8:	00002504 	andeq	r2, r0, r4, lsl #10
    2bdc:	00009b00 	andeq	r9, r0, r0, lsl #22
    2be0:	009b0500 	addseq	r0, fp, r0, lsl #10
    2be4:	07000000 	streq	r0, [r0, -r0]
    2be8:	0000a804 	andeq	sl, r0, r4, lsl #16
    2bec:	08010300 	stmdaeq	r1, {r8, r9}
    2bf0:	00000056 	andeq	r0, r0, r6, asr r0
    2bf4:	0000a108 	andeq	sl, r0, r8, lsl #2
    2bf8:	06590600 	ldrbeq	r0, [r9], -r0, lsl #12
    2bfc:	21020000 	mrscs	r0, (UNDEF: 2)
    2c00:	0000b90e 	andeq	fp, r0, lr, lsl #18
    2c04:	8c040700 	stchi	7, cr0, [r4], {-0}
    2c08:	09000000 	stmdbeq	r0, {}	; <UNPREDICTABLE>
    2c0c:	00000772 	andeq	r0, r0, r2, ror r7
    2c10:	44060401 	strmi	r0, [r6], #-1025	; 0xfffffbff
    2c14:	3c000094 	stccc	0, cr0, [r0], {148}	; 0x94
    2c18:	01000000 	mrseq	r0, (UNDEF: 0)
    2c1c:	0001549c 	muleq	r1, ip, r4
    2c20:	03810600 	orreq	r0, r1, #0, 12
    2c24:	05010000 	streq	r0, [r1, #-0]
    2c28:	00002510 	andeq	r2, r0, r0, lsl r5
    2c2c:	04450600 	strbeq	r0, [r5], #-1536	; 0xfffffa00
    2c30:	05010000 	streq	r0, [r1, #-0]
    2c34:	0000251f 	andeq	r2, r0, pc, lsl r5
    2c38:	00250a00 	eoreq	r0, r5, r0, lsl #20
    2c3c:	06010000 	streq	r0, [r1], -r0
    2c40:	73620b07 	cmnvc	r2, #7168	; 0x1c00
    2c44:	0a010073 	beq	42e18 <__bss_end__+0x38438>
    2c48:	0001540a 	andeq	r5, r1, sl, lsl #8
    2c4c:	0013f100 	andseq	pc, r3, r0, lsl #2
    2c50:	0013eb00 	andseq	lr, r3, r0, lsl #22
    2c54:	077a0c00 	ldrbeq	r0, [sl, -r0, lsl #24]!
    2c58:	0b010000 	bleq	42c60 <__bss_end__+0x38280>
    2c5c:	0001540a 	andeq	r5, r1, sl, lsl #8
    2c60:	94680d00 	strbtls	r0, [r8], #-3328	; 0xfffff300
    2c64:	00080000 	andeq	r0, r8, r0
    2c68:	012f0000 			; <UNDEFINED> instruction: 0x012f0000
    2c6c:	690e0000 	stmdbvs	lr, {}	; <UNPREDICTABLE>
    2c70:	1401006e 	strne	r0, [r1], #-110	; 0xffffff92
    2c74:	00002c05 	andeq	r2, r0, r5, lsl #24
    2c78:	0f000100 	svceq	0x00000100
    2c7c:	0000944c 	andeq	r9, r0, ip, asr #8
    2c80:	0000015a 	andeq	r0, r0, sl, asr r1
    2c84:	0094680f 	addseq	r6, r4, pc, lsl #16
    2c88:	00016700 	andeq	r6, r1, r0, lsl #14
    2c8c:	94740f00 	ldrbtls	r0, [r4], #-3840	; 0xfffff100
    2c90:	01730000 	cmneq	r3, r0
    2c94:	780f0000 	stmdavc	pc, {}	; <UNPREDICTABLE>
    2c98:	80000094 	mulhi	r0, r4, r0
    2c9c:	00000001 	andeq	r0, r0, r1
    2ca0:	00250407 	eoreq	r0, r5, r7, lsl #8
    2ca4:	8c100000 	ldchi	0, cr0, [r0], {-0}
    2ca8:	8c000007 	stchi	0, cr0, [r0], {7}
    2cac:	02000007 	andeq	r0, r0, #7, 0
    2cb0:	11060136 	tstne	r6, r6, lsr r1
    2cb4:	00000782 	andeq	r0, r0, r2, lsl #15
    2cb8:	00000782 	andeq	r0, r0, r2, lsl #15
    2cbc:	10063b02 	andne	r3, r6, r2, lsl #22
    2cc0:	00000025 	andeq	r0, r0, r5, lsr #32
    2cc4:	00000025 	andeq	r0, r0, r5, lsr #32
    2cc8:	06010a02 	streq	r0, [r1], -r2, lsl #20
    2ccc:	0002cc11 	andeq	ip, r2, r1, lsl ip
    2cd0:	0002cc00 	andeq	ip, r2, r0, lsl #24
    2cd4:	066e0200 	strbteq	r0, [lr], -r0, lsl #4
    2cd8:	0000ce00 	andeq	ip, r0, r0, lsl #28
    2cdc:	df000400 	svcle	0x00000400
    2ce0:	0400000e 	streq	r0, [r0], #-14
    2ce4:	0004ea01 	andeq	lr, r4, r1, lsl #20
    2ce8:	07af0c00 	streq	r0, [pc, r0, lsl #24]!
    2cec:	05cb0000 	strbeq	r0, [fp]
    2cf0:	94800000 	strls	r0, [r0], #0
    2cf4:	00040000 	andeq	r0, r4, r0
    2cf8:	18550000 	ldmdane	r5, {}^	; <UNPREDICTABLE>
    2cfc:	04020000 	streq	r0, [r2], #-0
    2d00:	746e6905 	strbtvc	r6, [lr], #-2309	; 0xfffff6fb
    2d04:	07040300 	streq	r0, [r4, -r0, lsl #6]
    2d08:	000000bd 	strheq	r0, [r0], -sp
    2d0c:	4f060103 	svcmi	0x00060103
    2d10:	03000000 	movweq	r0, #0
    2d14:	01560502 	cmpeq	r6, r2, lsl #10
    2d18:	04030000 	streq	r0, [r3], #-0
    2d1c:	00014105 	andeq	r4, r1, r5, lsl #2
    2d20:	05080300 	streq	r0, [r8, #-768]	; 0xfffffd00
    2d24:	0000013c 	andeq	r0, r0, ip, lsr r1
    2d28:	4d080103 	stfmis	f0, [r8, #-12]
    2d2c:	03000000 	movweq	r0, #0
    2d30:	005b0702 	subseq	r0, fp, r2, lsl #14
    2d34:	04030000 	streq	r0, [r3], #-0
    2d38:	0000b807 	andeq	fp, r0, r7, lsl #16
    2d3c:	07080300 	streq	r0, [r8, -r0, lsl #6]
    2d40:	000000b3 	strheq	r0, [r0], -r3
    2d44:	00002504 	andeq	r2, r0, r4, lsl #10
    2d48:	00007a00 	andeq	r7, r0, r0, lsl #20
    2d4c:	00250500 	eoreq	r0, r5, r0, lsl #10
    2d50:	06000000 	streq	r0, [r0], -r0
    2d54:	0000014a 	andeq	r0, r0, sl, asr #2
    2d58:	860e1c02 	strhi	r1, [lr], -r2, lsl #24
    2d5c:	07000000 	streq	r0, [r0, -r0]
    2d60:	00006b04 	andeq	r6, r0, r4, lsl #22
    2d64:	00250400 	eoreq	r0, r5, r0, lsl #8
    2d68:	009b0000 	addseq	r0, fp, r0
    2d6c:	9b050000 	blls	142d74 <__bss_end__+0x138394>
    2d70:	00000000 	andeq	r0, r0, r0
    2d74:	00a80407 	adceq	r0, r8, r7, lsl #8
    2d78:	01030000 	mrseq	r0, (UNDEF: 3)
    2d7c:	00005608 	andeq	r5, r0, r8, lsl #12
    2d80:	00a10800 	adceq	r0, r1, r0, lsl #16
    2d84:	59060000 	stmdbpl	r6, {}	; <UNPREDICTABLE>
    2d88:	02000006 	andeq	r0, r0, #6, 0
    2d8c:	00b90e21 	adcseq	r0, r9, r1, lsr #28
    2d90:	04070000 	streq	r0, [r7], #-0
    2d94:	0000008c 	andeq	r0, r0, ip, lsl #1
    2d98:	00078c09 	andeq	r8, r7, r9, lsl #24
    2d9c:	06040100 	streq	r0, [r4], -r0, lsl #2
    2da0:	00009480 	andeq	r9, r0, r0, lsl #9
    2da4:	00000004 	andeq	r0, r0, r4
    2da8:	36009c01 	strcc	r9, [r0], -r1, lsl #24
    2dac:	04000002 	streq	r0, [r0], #-2
    2db0:	000f5800 	andeq	r5, pc, r0, lsl #16
    2db4:	ea010400 	b	43dbc <__bss_end__+0x393dc>
    2db8:	0c000004 	stceq	0, cr0, [r0], {4}
    2dbc:	000007f7 	strdeq	r0, [r0], -r7
    2dc0:	000005cb 	andeq	r0, r0, fp, asr #11
    2dc4:	00000060 	andeq	r0, r0, r0, rrx
    2dc8:	00000000 	andeq	r0, r0, r0
    2dcc:	000018fc 	strdeq	r1, [r0], -ip
    2dd0:	69050402 	stmdbvs	r5, {r1, sl}
    2dd4:	0300746e 	movweq	r7, #1134	; 0x46e
    2dd8:	00000025 	andeq	r0, r0, r5, lsr #32
    2ddc:	bd070404 	cfstrslt	mvf0, [r7, #-16]
    2de0:	04000000 	streq	r0, [r0], #-0
    2de4:	004f0601 	subeq	r0, pc, r1, lsl #12
    2de8:	02040000 	andeq	r0, r4, #0, 0
    2dec:	00015605 	andeq	r5, r1, r5, lsl #12
    2df0:	05040400 	streq	r0, [r4, #-1024]	; 0xfffffc00
    2df4:	00000141 	andeq	r0, r0, r1, asr #2
    2df8:	3c050804 	stccc	8, cr0, [r5], {4}
    2dfc:	04000001 	streq	r0, [r0], #-1
    2e00:	004d0801 	subeq	r0, sp, r1, lsl #16
    2e04:	02040000 	andeq	r0, r4, #0, 0
    2e08:	00005b07 	andeq	r5, r0, r7, lsl #22
    2e0c:	07040400 	streq	r0, [r4, -r0, lsl #8]
    2e10:	000000b8 	strheq	r0, [r0], -r8
    2e14:	b3070804 	movwlt	r0, #30724	; 0x7804
    2e18:	05000000 	streq	r0, [r0, #-0]
    2e1c:	00000025 	andeq	r0, r0, r5, lsr #32
    2e20:	0000007f 	andeq	r0, r0, pc, ror r0
    2e24:	00002506 	andeq	r2, r0, r6, lsl #10
    2e28:	4a070000 	bmi	1c2e30 <__bss_end__+0x1b8450>
    2e2c:	02000001 	andeq	r0, r0, #1, 0
    2e30:	008b0e1c 	addeq	r0, fp, ip, lsl lr
    2e34:	04080000 	streq	r0, [r8], #-0
    2e38:	00000070 	andeq	r0, r0, r0, ror r0
    2e3c:	00002505 	andeq	r2, r0, r5, lsl #10
    2e40:	0000a000 	andeq	sl, r0, r0
    2e44:	00a00600 	adceq	r0, r0, r0, lsl #12
    2e48:	08000000 	stmdaeq	r0, {}	; <UNPREDICTABLE>
    2e4c:	0000ad04 	andeq	sl, r0, r4, lsl #26
    2e50:	08010400 	stmdaeq	r1, {sl}
    2e54:	00000056 	andeq	r0, r0, r6, asr r0
    2e58:	0000a603 	andeq	sl, r0, r3, lsl #12
    2e5c:	06590700 	ldrbeq	r0, [r9], -r0, lsl #14
    2e60:	21020000 	mrscs	r0, (UNDEF: 2)
    2e64:	0000be0e 	andeq	fp, r0, lr, lsl #28
    2e68:	91040800 	tstls	r4, r0, lsl #16
    2e6c:	09000000 	stmdbeq	r0, {}	; <UNPREDICTABLE>
    2e70:	0000081b 	andeq	r0, r0, fp, lsl r8
    2e74:	31110d01 	tstcc	r1, r1, lsl #26
    2e78:	0a000000 	beq	2e80 <__code_start__-0x5180>
    2e7c:	00000735 	andeq	r0, r0, r5, lsr r7
    2e80:	b0061f01 	andlt	r1, r6, r1, lsl #30
    2e84:	54000094 	strpl	r0, [r0], #-148	; 0xffffff6c
    2e88:	01000000 	mrseq	r0, (UNDEF: 0)
    2e8c:	0001ae9c 	muleq	r1, ip, lr
    2e90:	083f0b00 	ldmdaeq	pc!, {r8, r9, fp}	; <UNPREDICTABLE>
    2e94:	2c010000 	stccs	0, cr0, [r1], {-0}
    2e98:	00002c0f 	andeq	r2, r0, pc, lsl #24
    2e9c:	00141e00 	andseq	r1, r4, r0, lsl #28
    2ea0:	00141c00 	andseq	r1, r4, r0, lsl #24
    2ea4:	07da0b00 	ldrbeq	r0, [sl, r0, lsl #22]
    2ea8:	2d010000 	stccs	0, cr0, [r1, #-0]
    2eac:	00002c0f 	andeq	r2, r0, pc, lsl #24
    2eb0:	00143800 	andseq	r3, r4, r0, lsl #16
    2eb4:	00143600 	andseq	r3, r4, r0, lsl #12
    2eb8:	080c0b00 	stmdaeq	ip, {r8, r9, fp}
    2ebc:	2e010000 	cdpcs	0, 0, cr0, cr1, cr0, {0}
    2ec0:	00002c0f 	andeq	r2, r0, pc, lsl #24
    2ec4:	00145200 	andseq	r5, r4, r0, lsl #4
    2ec8:	00145000 	andseq	r5, r4, r0
    2ecc:	08260b00 	stmdaeq	r6!, {r8, r9, fp}
    2ed0:	2f010000 	svccs	0x00010000
    2ed4:	00002c0f 	andeq	r2, r0, pc, lsl #24
    2ed8:	00146b00 	andseq	r6, r4, r0, lsl #22
    2edc:	00146900 	andseq	r6, r4, r0, lsl #18
    2ee0:	94b80c00 	ldrtls	r0, [r8], #3072	; 0xc00
    2ee4:	01d90000 	bicseq	r0, r9, r0
    2ee8:	c40c0000 	strgt	r0, [ip], #-0
    2eec:	08000094 	stmdaeq	r0, {r2, r4, r7}
    2ef0:	0c000002 	stceq	0, cr0, [r0], {2}
    2ef4:	000094c8 	andeq	r9, r0, r8, asr #9
    2ef8:	00000215 	andeq	r0, r0, r5, lsl r2
    2efc:	0094d00d 	addseq	sp, r4, sp
    2f00:	00022100 	andeq	r2, r2, r0, lsl #2
    2f04:	00016400 	andeq	r6, r1, r0, lsl #8
    2f08:	50010e00 	andpl	r0, r1, r0, lsl #28
    2f0c:	0d003a01 	vstreq	s6, [r0, #-4]
    2f10:	000094dc 	ldrdeq	r9, [r0], -ip
    2f14:	0000022d 	andeq	r0, r0, sp, lsr #4
    2f18:	00000184 	andeq	r0, r0, r4, lsl #3
    2f1c:	0550010e 	ldrbeq	r0, [r0, #-270]	; 0xfffffef2
    2f20:	1000240c 	andne	r2, r0, ip, lsl #8
    2f24:	51010e20 	tstpl	r1, r0, lsr #28
    2f28:	00010c05 	andeq	r0, r1, r5, lsl #24
    2f2c:	0d005a00 	vstreq	s10, [r0, #-0]
    2f30:	000094e8 	andeq	r9, r0, r8, ror #9
    2f34:	0000022d 	andeq	r0, r0, sp, lsr #4
    2f38:	000001a4 	andeq	r0, r0, r4, lsr #3
    2f3c:	0550010e 	ldrbeq	r0, [r0, #-270]	; 0xfffffef2
    2f40:	10001c0c 	andne	r1, r0, ip, lsl #24
    2f44:	51010e20 	tstpl	r1, r0, lsr #28
    2f48:	00200c05 	eoreq	r0, r0, r5, lsl #24
    2f4c:	0c005a00 			; <UNDEFINED> instruction: 0x0c005a00
    2f50:	000094f0 	strdeq	r9, [r0], -r0
    2f54:	000001ae 	andeq	r0, r0, lr, lsr #3
    2f58:	07e80f00 	strbeq	r0, [r8, r0, lsl #30]!
    2f5c:	17010000 	strne	r0, [r1, -r0]
    2f60:	00949c06 	addseq	r9, r4, r6, lsl #24
    2f64:	00001400 	andeq	r1, r0, r0, lsl #8
    2f68:	d99c0100 	ldmible	ip, {r8}
    2f6c:	0b000001 	bleq	2f78 <__code_start__-0x5088>
    2f70:	00000847 	andeq	r0, r0, r7, asr #16
    2f74:	310e1801 	tstcc	lr, r1, lsl #16
    2f78:	86000000 	strhi	r0, [r0], -r0
    2f7c:	80000014 	andhi	r0, r0, r4, lsl r0
    2f80:	00000014 	andeq	r0, r0, r4, lsl r0
    2f84:	00081810 	andeq	r1, r8, r0, lsl r8
    2f88:	050e0100 	streq	r0, [lr, #-256]	; 0xffffff00
    2f8c:	00000025 	andeq	r0, r0, r5, lsr #32
    2f90:	00009484 	andeq	r9, r0, r4, lsl #9
    2f94:	00000018 	andeq	r0, r0, r8, lsl r0
    2f98:	02089c01 	andeq	r9, r8, #256	; 0x100
    2f9c:	470b0000 	strmi	r0, [fp, -r0]
    2fa0:	01000008 	tsteq	r0, r8
    2fa4:	00310e0f 	eorseq	r0, r1, pc, lsl #28
    2fa8:	14b40000 	ldrtne	r0, [r4], #0
    2fac:	14b00000 	ldrtne	r0, [r0], #0
    2fb0:	11000000 	mrsne	r0, (UNDEF: 0)
    2fb4:	000007cb 	andeq	r0, r0, fp, asr #15
    2fb8:	000007cb 	andeq	r0, r0, fp, asr #15
    2fbc:	06013b02 	streq	r3, [r1], -r2, lsl #22
    2fc0:	00076412 	andeq	r6, r7, r2, lsl r4
    2fc4:	00076400 	andeq	r6, r7, r0, lsl #8
    2fc8:	064d0200 	strbeq	r0, [sp], -r0, lsl #4
    2fcc:	00074012 	andeq	r4, r7, r2, lsl r0
    2fd0:	00074000 	andeq	r4, r7, r0
    2fd4:	06580200 	ldrbeq	r0, [r8], -r0, lsl #4
    2fd8:	0007e212 	andeq	lr, r7, r2, lsl r2
    2fdc:	0007e200 	andeq	lr, r7, r0, lsl #4
    2fe0:	06b20200 	ldrteq	r0, [r2], r0, lsl #4
    2fe4:	00024d00 	andeq	r4, r2, r0, lsl #26
    2fe8:	7d000400 	cfstrsvc	mvf0, [r0, #-0]
    2fec:	04000010 	streq	r0, [r0], #-16
    2ff0:	0004ea01 	andeq	lr, r4, r1, lsl #20
    2ff4:	08620c00 	stmdaeq	r2!, {sl, fp}^
    2ff8:	05cb0000 	strbeq	r0, [fp]
    2ffc:	95040000 	strls	r0, [r4, #-0]
    3000:	00840000 	addeq	r0, r4, r0
    3004:	19f30000 	ldmibne	r3!, {}^	; <UNPREDICTABLE>
    3008:	04020000 	streq	r0, [r2], #-0
    300c:	746e6905 	strbtvc	r6, [lr], #-2309	; 0xfffff6fb
    3010:	07040300 	streq	r0, [r4, -r0, lsl #6]
    3014:	000000bd 	strheq	r0, [r0], -sp
    3018:	4f060103 	svcmi	0x00060103
    301c:	03000000 	movweq	r0, #0
    3020:	01560502 	cmpeq	r6, r2, lsl #10
    3024:	04030000 	streq	r0, [r3], #-0
    3028:	00014105 	andeq	r4, r1, r5, lsl #2
    302c:	05080300 	streq	r0, [r8, #-768]	; 0xfffffd00
    3030:	0000013c 	andeq	r0, r0, ip, lsr r1
    3034:	4d080103 	stfmis	f0, [r8, #-12]
    3038:	03000000 	movweq	r0, #0
    303c:	005b0702 	subseq	r0, fp, r2, lsl #14
    3040:	04030000 	streq	r0, [r3], #-0
    3044:	0000b807 	andeq	fp, r0, r7, lsl #16
    3048:	07080300 	streq	r0, [r8, -r0, lsl #6]
    304c:	000000b3 	strheq	r0, [r0], -r3
    3050:	00002504 	andeq	r2, r0, r4, lsl #10
    3054:	00007a00 	andeq	r7, r0, r0, lsl #20
    3058:	00250500 	eoreq	r0, r5, r0, lsl #10
    305c:	06000000 	streq	r0, [r0], -r0
    3060:	0000014a 	andeq	r0, r0, sl, asr #2
    3064:	860e1c02 	strhi	r1, [lr], -r2, lsl #24
    3068:	07000000 	streq	r0, [r0, -r0]
    306c:	00006b04 	andeq	r6, r0, r4, lsl #22
    3070:	00250400 	eoreq	r0, r5, r0, lsl #8
    3074:	009b0000 	addseq	r0, fp, r0
    3078:	9b050000 	blls	143080 <__bss_end__+0x1386a0>
    307c:	00000000 	andeq	r0, r0, r0
    3080:	00a80407 	adceq	r0, r8, r7, lsl #8
    3084:	01030000 	mrseq	r0, (UNDEF: 3)
    3088:	00005608 	andeq	r5, r0, r8, lsl #12
    308c:	00a10800 	adceq	r0, r1, r0, lsl #16
    3090:	59060000 	stmdbpl	r6, {}	; <UNPREDICTABLE>
    3094:	02000006 	andeq	r0, r0, #6, 0
    3098:	00b90e21 	adcseq	r0, r9, r1, lsr #28
    309c:	04070000 	streq	r0, [r7], #-0
    30a0:	0000008c 	andeq	r0, r0, ip, lsl #1
    30a4:	00085809 	andeq	r5, r8, r9, lsl #16
    30a8:	061e0100 	ldreq	r0, [lr], -r0, lsl #2
    30ac:	00009570 	andeq	r9, r0, r0, ror r5
    30b0:	00000018 	andeq	r0, r0, r8, lsl r0
    30b4:	01099c01 	tsteq	r9, r1, lsl #24
    30b8:	730a0000 	movwvc	r0, #40960	; 0xa000
    30bc:	01006365 	tsteq	r0, r5, ror #6
    30c0:	002c191e 	eoreq	r1, ip, lr, lsl r9
    30c4:	14d70000 	ldrbne	r0, [r7], #0
    30c8:	14d30000 	ldrbne	r0, [r3], #0
    30cc:	840b0000 	strhi	r0, [fp], #-0
    30d0:	09000095 	stmdbeq	r0, {r0, r2, r4, r7}
    30d4:	0c000001 	stceq	0, cr0, [r0], {1}
    30d8:	f3115001 	vhadd.u16	d5, d1, d1
    30dc:	24355001 	ldrtcs	r5, [r5], #-1
    30e0:	1c5001f3 	ldfnee	f0, [r0], {243}	; 0xf3
    30e4:	01f32432 	mvnseq	r2, r2, lsr r4
    30e8:	24332250 	ldrtcs	r2, [r3], #-592	; 0xfffffdb0
    30ec:	40090000 	andmi	r0, r9, r0
    30f0:	01000007 	tsteq	r0, r7
    30f4:	9558061b 	ldrbls	r0, [r8, #-1563]	; 0xfffff9e5
    30f8:	00180000 	andseq	r0, r8, r0
    30fc:	9c010000 	stcls	0, cr0, [r1], {-0}
    3100:	00000152 	andeq	r0, r0, r2, asr r1
    3104:	00736d0a 	rsbseq	r6, r3, sl, lsl #26
    3108:	2c181b01 			; <UNDEFINED> instruction: 0x2c181b01
    310c:	fc000000 	stc2	0, cr0, [r0], {-0}
    3110:	f8000014 			; <UNDEFINED> instruction: 0xf8000014
    3114:	0b000014 	bleq	316c <__code_start__-0x4e94>
    3118:	0000956c 	andeq	r9, r0, ip, ror #10
    311c:	00000152 	andeq	r0, r0, r2, asr r1
    3120:	1150010c 	cmpne	r0, ip, lsl #2
    3124:	355001f3 	ldrbcc	r0, [r0, #-499]	; 0xfffffe0d
    3128:	5001f324 	andpl	pc, r1, r4, lsr #6
    312c:	f324321c 	vqsub.u32	d3, d4, d12
    3130:	33225001 			; <UNDEFINED> instruction: 0x33225001
    3134:	09000024 	stmdbeq	r0, {r2, r5}
    3138:	0000088b 	andeq	r0, r0, fp, lsl #17
    313c:	34061201 	strcc	r1, [r6], #-513	; 0xfffffdff
    3140:	24000095 	strcs	r0, [r0], #-149	; 0xffffff6b
    3144:	01000000 	mrseq	r0, (UNDEF: 0)
    3148:	0001c29c 	muleq	r1, ip, r2
    314c:	73750a00 	cmnvc	r5, #0, 20
    3150:	18120100 	ldmdane	r2, {r8}
    3154:	0000002c 	andeq	r0, r0, ip, lsr #32
    3158:	00001521 	andeq	r1, r0, r1, lsr #10
    315c:	0000151d 	andeq	r1, r0, sp, lsl r5
    3160:	0062720d 	rsbeq	r7, r2, sp, lsl #4
    3164:	2c0e1301 	stccs	3, cr1, [lr], {1}
    3168:	41000000 	mrsmi	r0, (UNDEF: 0)
    316c:	3f000015 	svccc	0x00000015
    3170:	0e000015 	mcreq	0, 0, r0, cr0, cr5, {0}
    3174:	00009544 	andeq	r9, r0, r4, asr #10
    3178:	00000014 	andeq	r0, r0, r4, lsl r0
    317c:	000001b8 			; <UNDEFINED> instruction: 0x000001b8
    3180:	0061720d 	rsbeq	r7, r1, sp, lsl #4
    3184:	2c121501 	cfldr32cs	mvfx1, [r2], {1}
    3188:	56000000 	strpl	r0, [r0], -r0
    318c:	54000015 	strpl	r0, [r0], #-21	; 0xffffffeb
    3190:	0f000015 	svceq	0x00000015
    3194:	00009548 	andeq	r9, r0, r8, asr #10
    3198:	000001c2 	andeq	r0, r0, r2, asr #3
    319c:	95400f00 	strbls	r0, [r0, #-3840]	; 0xfffff100
    31a0:	01c20000 	biceq	r0, r2, r0
    31a4:	10000000 	andne	r0, r0, r0
    31a8:	0000087c 	andeq	r0, r0, ip, ror r8
    31ac:	2c0a0901 			; <UNDEFINED> instruction: 0x2c0a0901
    31b0:	18000000 	stmdane	r0, {}	; <UNPREDICTABLE>
    31b4:	1c000095 	stcne	0, cr0, [r0], {149}	; 0x95
    31b8:	01000000 	mrseq	r0, (UNDEF: 0)
    31bc:	00020a9c 	muleq	r2, ip, sl
    31c0:	00750d00 	rsbseq	r0, r5, r0, lsl #26
    31c4:	2c0e0d01 	stccs	13, cr0, [lr], {1}
    31c8:	6d000000 	stcvs	0, cr0, [r0, #-0]
    31cc:	69000015 	stmdbvs	r0, {r0, r2, r4}
    31d0:	0f000015 	svceq	0x00000015
    31d4:	00009520 	andeq	r9, r0, r0, lsr #10
    31d8:	00000238 	andeq	r0, r0, r8, lsr r2
    31dc:	0095240f 	addseq	r2, r5, pc, lsl #8
    31e0:	00020a00 	andeq	r0, r2, r0, lsl #20
    31e4:	952c0f00 	strls	r0, [ip, #-3840]!	; 0xfffff100
    31e8:	02380000 	eorseq	r0, r8, #0, 0
    31ec:	10000000 	andne	r0, r0, r0
    31f0:	00000894 	muleq	r0, r4, r8
    31f4:	2c0a0401 	cfstrscs	mvf0, [sl], {1}
    31f8:	04000000 	streq	r0, [r0], #-0
    31fc:	14000095 	strne	r0, [r0], #-149	; 0xffffff6b
    3200:	01000000 	mrseq	r0, (UNDEF: 0)
    3204:	0002389c 	muleq	r2, ip, r8
    3208:	95100b00 	ldrls	r0, [r0, #-2816]	; 0xfffff500
    320c:	02440000 	subeq	r0, r4, #0, 0
    3210:	010c0000 	mrseq	r0, (UNDEF: 12)
    3214:	040c0550 	streq	r0, [ip], #-1360	; 0xfffffab0
    3218:	00200030 	eoreq	r0, r0, r0, lsr r0
    321c:	084c1100 	stmdaeq	ip, {r8, ip}^
    3220:	084c0000 	stmdaeq	ip, {}^	; <UNPREDICTABLE>
    3224:	a1020000 	mrsge	r0, (UNDEF: 2)
    3228:	08761106 	ldmdaeq	r6!, {r1, r2, r8, ip}^
    322c:	08760000 	ldmdaeq	r6!, {}^	; <UNPREDICTABLE>
    3230:	c7020000 	strgt	r0, [r2, -r0]
    3234:	05cd000a 	strbeq	r0, [sp, #10]
    3238:	00040000 	andeq	r0, r4, r0
    323c:	0000117e 	andeq	r1, r0, lr, ror r1
    3240:	09a70104 	stmibeq	r7!, {r2, r8}
    3244:	e60c0000 	str	r0, [ip], -r0
    3248:	57000008 	strpl	r0, [r0, -r8]
    324c:	88000009 	stmdahi	r0, {r0, r3}
    3250:	f0000095 			; <UNDEFINED> instruction: 0xf0000095
    3254:	f1000001 	cps	#1
    3258:	0200001a 	andeq	r0, r0, #26, 0
    325c:	6e690504 	cdpvs	5, 6, cr0, cr9, cr4, {0}
    3260:	04030074 	streq	r0, [r3], #-116	; 0xffffff8c
    3264:	0000bd07 	andeq	fp, r0, r7, lsl #26
    3268:	002c0400 	eoreq	r0, ip, r0, lsl #8
    326c:	01030000 	mrseq	r0, (UNDEF: 3)
    3270:	00004f06 	andeq	r4, r0, r6, lsl #30
    3274:	05020300 	streq	r0, [r2, #-768]	; 0xfffffd00
    3278:	00000156 	andeq	r0, r0, r6, asr r1
    327c:	41050403 	tstmi	r5, r3, lsl #8
    3280:	03000001 	movweq	r0, #1
    3284:	013c0508 	teqeq	ip, r8, lsl #10
    3288:	01030000 	mrseq	r0, (UNDEF: 3)
    328c:	00004d08 	andeq	r4, r0, r8, lsl #26
    3290:	07020300 	streq	r0, [r2, -r0, lsl #6]
    3294:	0000005b 	andeq	r0, r0, fp, asr r0
    3298:	00017305 	andeq	r7, r1, r5, lsl #6
    329c:	19340500 	ldmdbne	r4!, {r8, sl}
    32a0:	0000006e 	andeq	r0, r0, lr, rrx
    32a4:	b8070403 	stmdalt	r7, {r0, r1, sl}
    32a8:	03000000 	movweq	r0, #0
    32ac:	00b30708 	adcseq	r0, r3, r8, lsl #14
    32b0:	01030000 	mrseq	r0, (UNDEF: 3)
    32b4:	00005608 	andeq	r5, r0, r8, lsl #12
    32b8:	01070600 	tsteq	r7, r0, lsl #12
    32bc:	00000054 	andeq	r0, r0, r4, asr r0
    32c0:	c20e0c04 	andgt	r0, lr, #4, 24	; 0x400
    32c4:	07000000 	streq	r0, [r0, -r0]
    32c8:	00000a91 	muleq	r0, r1, sl
    32cc:	08c90700 	stmiaeq	r9, {r8, r9, sl}^
    32d0:	07010000 	streq	r0, [r1, -r0]
    32d4:	0000090c 	andeq	r0, r0, ip, lsl #18
    32d8:	091b0704 	ldmdbeq	fp, {r2, r8, r9, sl}
    32dc:	07050000 	streq	r0, [r5, -r0]
    32e0:	0000092a 	andeq	r0, r0, sl, lsr #18
    32e4:	09390706 	ldmdbeq	r9!, {r1, r2, r8, r9, sl}
    32e8:	07070000 	streq	r0, [r7, -r0]
    32ec:	00000a5a 	andeq	r0, r0, sl, asr sl
    32f0:	09480703 	stmdbeq	r8, {r0, r1, r8, r9, sl}^
    32f4:	00020000 	andeq	r0, r2, r0
    32f8:	0008da08 	andeq	sp, r8, r8, lsl #20
    32fc:	06022c00 	streq	r2, [r2], -r0, lsl #24
    3300:	00015e08 	andeq	r5, r1, r8, lsl #28
    3304:	6f690900 	svcvs	0x00690900
    3308:	09090200 	stmdbeq	r9, {r9}
    330c:	00000033 	andeq	r0, r0, r3, lsr r0
    3310:	65690900 	strbvs	r0, [r9, #-2304]!	; 0xfffff700
    3314:	0a020072 	beq	834e4 <__bss_end__+0x78b04>
    3318:	00003309 	andeq	r3, r0, r9, lsl #6
    331c:	69090400 	stmdbvs	r9, {sl}
    3320:	02007269 	andeq	r7, r0, #-1879048186	; 0x90000006
    3324:	00330911 	eorseq	r0, r3, r1, lsl r9
    3328:	09080000 	stmdbeq	r8, {}	; <UNPREDICTABLE>
    332c:	0072636c 	rsbseq	r6, r2, ip, ror #6
    3330:	33091302 	movwcc	r1, #37634	; 0x9302
    3334:	0c000000 	stceq	0, cr0, [r0], {-0}
    3338:	72636d09 	rsbvc	r6, r3, #576	; 0x240
    333c:	09140200 	ldmdbeq	r4, {r9}
    3340:	00000033 	andeq	r0, r0, r3, lsr r0
    3344:	736c0910 	cmnvc	ip, #16, 18	; 0x40000
    3348:	15020072 	strne	r0, [r2, #-114]	; 0xffffff8e
    334c:	00003309 	andeq	r3, r0, r9, lsl #6
    3350:	6d091400 	cfstrsvs	mvf1, [r9, #-0]
    3354:	02007273 	andeq	r7, r0, #805306375	; 0x30000007
    3358:	00330916 	eorseq	r0, r3, r6, lsl r9
    335c:	0a180000 	beq	603364 <__bss_end__+0x5f8984>
    3360:	00000a71 	andeq	r0, r0, r1, ror sl
    3364:	33091702 	movwcc	r1, #38658	; 0x9702
    3368:	1c000000 	stcne	0, cr0, [r0], {-0}
    336c:	000a3a0a 	andeq	r3, sl, sl, lsl #20
    3370:	091b0200 	ldmdbeq	fp, {r9}
    3374:	00000033 	andeq	r0, r0, r3, lsr r0
    3378:	08b60a20 	ldmeq	r6!, {r5, r9, fp}
    337c:	1d020000 	stcne	0, cr0, [r2, #-0]
    3380:	00003309 	andeq	r3, r0, r9, lsl #6
    3384:	8c0a2400 	cfstrshi	mvf2, [sl], {-0}
    3388:	02000009 	andeq	r0, r0, #9, 0
    338c:	0033091e 	eorseq	r0, r3, lr, lsl r9
    3390:	00280000 	eoreq	r0, r8, r0
    3394:	0009910b 	andeq	r9, r9, fp, lsl #2
    3398:	09080100 	stmdbeq	r8, {r8}
    339c:	00000174 	andeq	r0, r0, r4, ror r1
    33a0:	20215004 	eorcs	r5, r1, r4
    33a4:	0033040c 	eorseq	r0, r3, ip, lsl #8
    33a8:	6e0d0000 	cdpvs	0, 0, cr0, cr13, cr0, {0}
    33ac:	0b000001 	bleq	33b8 <__code_start__-0x4c48>
    33b0:	00000a79 	andeq	r0, r0, r9, ror sl
    33b4:	8f232901 	svchi	0x00232901
    33b8:	40000001 	andmi	r0, r0, r1
    33bc:	0c202150 	stfeqs	f2, [r0], #-320	; 0xfffffec0
    33c0:	0000c204 	andeq	ip, r0, r4, lsl #4
    33c4:	01890d00 	orreq	r0, r9, r0, lsl #26
    33c8:	640e0000 	strvs	r0, [lr], #-0
    33cc:	01000007 	tsteq	r0, r7
    33d0:	974006cc 	strbls	r0, [r0, -ip, asr #13]
    33d4:	00140000 	andseq	r0, r4, r0
    33d8:	9c010000 	stcls	0, cr0, [r1], {-0}
    33dc:	000001b4 			; <UNDEFINED> instruction: 0x000001b4
    33e0:	0097480f 	addseq	r4, r7, pc, lsl #16
    33e4:	0001b400 	andeq	fp, r1, r0, lsl #8
    33e8:	fb100000 	blx	4033f2 <__bss_end__+0x3f8a12>
    33ec:	01000008 	tsteq	r0, r8
    33f0:	002505b6 	strhteq	r0, [r5], -r6
    33f4:	97200000 	strls	r0, [r0, -r0]!
    33f8:	00200000 	eoreq	r0, r0, r0
    33fc:	9c010000 	stcls	0, cr0, [r1], {-0}
    3400:	000001eb 	andeq	r0, r0, fp, ror #3
    3404:	0097280f 	addseq	r2, r7, pc, lsl #16
    3408:	0005a000 	andeq	sl, r5, r0
    340c:	97301100 	ldrls	r1, [r0, -r0, lsl #2]!
    3410:	05ac0000 	streq	r0, [ip, #0]!
    3414:	01120000 	tsteq	r2, r0
    3418:	640c0550 	strvs	r0, [ip], #-1360	; 0xfffffab0
    341c:	00202150 	eoreq	r2, r0, r0, asr r1
    3420:	0a4c1000 	beq	1307428 <__bss_end__+0x12fca48>
    3424:	b3010000 	movwlt	r0, #4096	; 0x1000
    3428:	00002505 	andeq	r2, r0, r5, lsl #10
    342c:	00971000 	addseq	r1, r7, r0
    3430:	00001000 	andeq	r1, r0, r0
    3434:	189c0100 	ldmne	ip, {r8}
    3438:	0f000002 	svceq	0x00000002
    343c:	00009718 	andeq	r9, r0, r8, lsl r7
    3440:	000005a0 	andeq	r0, r0, r0, lsr #11
    3444:	00971c0f 	addseq	r1, r7, pc, lsl #24
    3448:	00030900 	andeq	r0, r3, r0, lsl #18
    344c:	870e0000 	strhi	r0, [lr, -r0]
    3450:	0100000a 	tsteq	r0, sl
    3454:	96e006ab 	strbtls	r0, [r0], fp, lsr #13
    3458:	00300000 	eorseq	r0, r0, r0
    345c:	9c010000 	stcls	0, cr0, [r1], {-0}
    3460:	0000027c 	andeq	r0, r0, ip, ror r2
    3464:	01006313 	tsteq	r0, r3, lsl r3
    3468:	002c19ab 	eoreq	r1, ip, fp, lsr #19
    346c:	158f0000 	strne	r0, [pc]	; 3474 <__code_start__-0x4b8c>
    3470:	158b0000 	strne	r0, [fp]
    3474:	ec0f0000 	stc	0, cr0, [pc], {-0}
    3478:	a0000096 	mulge	r0, r6, r0
    347c:	0f000005 	svceq	0x00000005
    3480:	000096f0 	strdeq	r9, [r0], -r0
    3484:	000002db 	ldrdeq	r0, [r0], -fp
    3488:	00970414 	addseq	r0, r7, r4, lsl r4
    348c:	0005b800 	andeq	fp, r5, r0, lsl #16
    3490:	00027200 	andeq	r7, r2, r0, lsl #4
    3494:	50011200 	andpl	r1, r1, r0, lsl #4
    3498:	50400c05 	subpl	r0, r0, r5, lsl #24
    349c:	01122021 	tsteq	r2, r1, lsr #32
    34a0:	00740551 	rsbseq	r0, r4, r1, asr r5
    34a4:	001aff08 	andseq	pc, sl, r8, lsl #30
    34a8:	0097080f 	addseq	r0, r7, pc, lsl #16
    34ac:	0005a000 	andeq	sl, r5, r0
    34b0:	9d100000 	ldcls	0, cr0, [r0, #-0]
    34b4:	01000009 	tsteq	r0, r9
    34b8:	002505a3 	eoreq	r0, r5, r3, lsr #11
    34bc:	96b00000 	ldrtls	r0, [r0], r0
    34c0:	00300000 	eorseq	r0, r0, r0
    34c4:	9c010000 	stcls	0, cr0, [r1], {-0}
    34c8:	000002db 	ldrdeq	r0, [r0], -fp
    34cc:	01006315 	tsteq	r0, r5, lsl r3
    34d0:	002509a7 	eoreq	r0, r5, r7, lsr #19
    34d4:	15af0000 	strne	r0, [pc, #0]!	; 34dc <__code_start__-0x4b24>
    34d8:	15ad0000 	strne	r0, [sp, #0]!
    34dc:	b80f0000 	stmdalt	pc, {}	; <UNPREDICTABLE>
    34e0:	a0000096 	mulge	r0, r6, r0
    34e4:	0f000005 	svceq	0x00000005
    34e8:	000096bc 			; <UNDEFINED> instruction: 0x000096bc
    34ec:	00000309 	andeq	r0, r0, r9, lsl #6
    34f0:	0096cc14 	addseq	ip, r6, r4, lsl ip
    34f4:	0005ac00 	andeq	sl, r5, r0, lsl #24
    34f8:	0002d100 	andeq	sp, r2, r0, lsl #2
    34fc:	50011200 	andpl	r1, r1, r0, lsl #4
    3500:	50400c05 	subpl	r0, r0, r5, lsl #24
    3504:	0f002021 	svceq	0x00002021
    3508:	000096d4 	ldrdeq	r9, [r0], -r4
    350c:	000005a0 	andeq	r0, r0, r0, lsr #11
    3510:	08ed1000 	stmiaeq	sp!, {ip}^
    3514:	94010000 	strls	r0, [r1], #-0
    3518:	00002505 	andeq	r2, r0, r5, lsl #10
    351c:	00969000 	addseq	r9, r6, r0
    3520:	00002000 	andeq	r2, r0, r0
    3524:	099c0100 	ldmibeq	ip, {r8}
    3528:	11000003 	tstne	r0, r3
    352c:	0000969c 	muleq	r0, ip, r6
    3530:	000005ac 	andeq	r0, r0, ip, lsr #11
    3534:	05500112 	ldrbeq	r0, [r0, #-274]	; 0xfffffeee
    3538:	2150640c 	cmpcs	r0, ip, lsl #8
    353c:	10000020 	andne	r0, r0, r0, lsr #32
    3540:	000008bb 			; <UNDEFINED> instruction: 0x000008bb
    3544:	25058b01 	strcs	r8, [r5, #-2817]	; 0xfffff4ff
    3548:	78000000 	stmdavc	r0, {}	; <UNPREDICTABLE>
    354c:	18000096 	stmdane	r0, {r1, r2, r4, r7}
    3550:	01000000 	mrseq	r0, (UNDEF: 0)
    3554:	0003379c 	muleq	r3, ip, r7
    3558:	96841100 	strls	r1, [r4], r0, lsl #2
    355c:	05ac0000 	streq	r0, [ip, #0]!
    3560:	01120000 	tsteq	r2, r0
    3564:	640c0550 	strvs	r0, [ip], #-1360	; 0xfffffab0
    3568:	00202150 	eoreq	r2, r0, r0, asr r1
    356c:	07820e00 	streq	r0, [r2, r0, lsl #28]
    3570:	45010000 	strmi	r0, [r1, #-0]
    3574:	0095c806 	addseq	ip, r5, r6, lsl #16
    3578:	0000b000 	andeq	fp, r0, r0
    357c:	849c0100 	ldrhi	r0, [ip], #256	; 0x100
    3580:	16000004 	strne	r0, [r0], -r4
    3584:	000008ad 	andeq	r0, r0, sp, lsr #17
    3588:	620e7e01 	andvs	r7, lr, #1, 28
    358c:	0e000000 	cdpeq	0, 0, cr0, cr0, cr0, {0}
    3590:	95d81401 	ldrbls	r1, [r8, #1025]	; 0x401
    3594:	05c40000 	strbeq	r0, [r4]
    3598:	03730000 	cmneq	r3, #0, 0
    359c:	01120000 	tsteq	r2, r0
    35a0:	123e0150 	eorsne	r0, lr, #20
    35a4:	32015101 	andcc	r5, r1, #1073741824	; 0x40000000
    35a8:	95e41400 	strbls	r1, [r4, #1024]!	; 0x400
    35ac:	05c40000 	strbeq	r0, [r4]
    35b0:	038b0000 	orreq	r0, fp, #0, 0
    35b4:	01120000 	tsteq	r2, r0
    35b8:	123f0150 	eorsne	r0, pc, #20
    35bc:	32015101 	andcc	r5, r1, #1073741824	; 0x40000000
    35c0:	95e80f00 	strbls	r0, [r8, #3840]!	; 0xf00
    35c4:	05a00000 	streq	r0, [r0, #0]!
    35c8:	f4140000 			; <UNDEFINED> instruction: 0xf4140000
    35cc:	3d000095 	stccc	0, cr0, [r0, #-596]	; 0xfffffdac
    35d0:	b0000005 	andlt	r0, r0, r5
    35d4:	12000003 	andne	r0, r0, #3, 0
    35d8:	0c055001 	stceq	0, cr5, [r5], {1}
    35dc:	20215004 	eorcs	r5, r1, r4
    35e0:	01510112 	cmpeq	r1, r2, lsl r1
    35e4:	f80f0031 			; <UNDEFINED> instruction: 0xf80f0031
    35e8:	a0000095 	mulge	r0, r5, r0
    35ec:	14000005 	strne	r0, [r0], #-5
    35f0:	00009608 	andeq	r9, r0, r8, lsl #12
    35f4:	000005b8 			; <UNDEFINED> instruction: 0x000005b8
    35f8:	000003d2 	ldrdeq	r0, [r0], -r2
    35fc:	02500112 	subseq	r0, r0, #-2147483644	; 0x80000004
    3600:	01120074 	tsteq	r2, r4, ror r0
    3604:	00300151 	eorseq	r0, r0, r1, asr r1
    3608:	00961414 	addseq	r1, r6, r4, lsl r4
    360c:	0005b800 	andeq	fp, r5, r0, lsl #16
    3610:	0003ee00 	andeq	lr, r3, r0, lsl #28
    3614:	50011200 	andpl	r1, r1, r0, lsl #4
    3618:	50440c05 	subpl	r0, r4, r5, lsl #24
    361c:	01122021 	tsteq	r2, r1, lsr #32
    3620:	00300151 	eorseq	r0, r0, r1, asr r1
    3624:	00962014 	addseq	r2, r6, r4, lsl r0
    3628:	0005b800 	andeq	fp, r5, r0, lsl #16
    362c:	00040a00 	andeq	r0, r4, r0, lsl #20
    3630:	50011200 	andpl	r1, r1, r0, lsl #4
    3634:	504c0c05 	subpl	r0, ip, r5, lsl #24
    3638:	01122021 	tsteq	r2, r1, lsr #32
    363c:	00330151 	eorseq	r0, r3, r1, asr r1
    3640:	00962c14 	addseq	r2, r6, r4, lsl ip
    3644:	0005b800 	andeq	fp, r5, r0, lsl #16
    3648:	00042600 	andeq	r2, r4, r0, lsl #12
    364c:	50011200 	andpl	r1, r1, r0, lsl #4
    3650:	50500c05 	subspl	r0, r0, r5, lsl #24
    3654:	01122021 	tsteq	r2, r1, lsr #32
    3658:	00300151 	eorseq	r0, r0, r1, asr r1
    365c:	00963814 	addseq	r3, r6, r4, lsl r8
    3660:	0005b800 	andeq	fp, r5, r0, lsl #16
    3664:	00044300 	andeq	r4, r4, r0, lsl #6
    3668:	50011200 	andpl	r1, r1, r0, lsl #4
    366c:	50480c05 	subpl	r0, r8, r5, lsl #24
    3670:	01122021 	tsteq	r2, r1, lsr #32
    3674:	c7080251 	smlsdgt	r8, r1, r2, r0
    3678:	96441400 	strbls	r1, [r4], -r0, lsl #8
    367c:	05b80000 	ldreq	r0, [r8, #0]!
    3680:	04610000 	strbteq	r0, [r1], #-0
    3684:	01120000 	tsteq	r2, r0
    3688:	680c0550 	stmdavs	ip, {r4, r6, r8, sl}
    368c:	12202150 	eorne	r2, r0, #20
    3690:	0a035101 	beq	d7a9c <__bss_end__+0xcd0bc>
    3694:	1400010e 	strne	r0, [r0], #-270	; 0xfffffef2
    3698:	00009650 	andeq	r9, r0, r0, asr r6
    369c:	000005b8 			; <UNDEFINED> instruction: 0x000005b8
    36a0:	0000047a 	andeq	r0, r0, sl, ror r4
    36a4:	02500112 	subseq	r0, r0, #-2147483644	; 0x80000004
    36a8:	01120074 	tsteq	r2, r4, ror r0
    36ac:	00330151 	eorseq	r0, r3, r1, asr r1
    36b0:	0096540f 	addseq	r5, r6, pc, lsl #8
    36b4:	0005a000 	andeq	sl, r5, r0
    36b8:	3f0e0000 	svccc	0x000e0000
    36bc:	0100000a 	tsteq	r0, sl
    36c0:	97540635 	smmlarls	r4, r5, r6, r0
    36c4:	00240000 	eoreq	r0, r4, r0
    36c8:	9c010000 	stcls	0, cr0, [r1], {-0}
    36cc:	000004d3 	ldrdeq	r0, [r0], -r3
    36d0:	00975c0f 	addseq	r5, r7, pc, lsl #24
    36d4:	00019400 	andeq	r9, r1, r0, lsl #8
    36d8:	97600f00 	strbls	r0, [r0, -r0, lsl #30]!
    36dc:	05a00000 	streq	r0, [r0, #0]!
    36e0:	6c140000 	ldcvs	0, cr0, [r4], {-0}
    36e4:	d3000097 	movwle	r0, #151	; 0x97
    36e8:	c9000004 	stmdbgt	r0, {r2}
    36ec:	12000004 	andne	r0, r0, #4, 0
    36f0:	0c055001 	stceq	0, cr5, [r5], {1}
    36f4:	20215004 	eorcs	r5, r1, r4
    36f8:	02510112 	subseq	r0, r1, #-2147483644	; 0x80000004
    36fc:	0f00fe09 	svceq	0x0000fe09
    3700:	00009770 	andeq	r9, r0, r0, ror r7
    3704:	000005a0 	andeq	r0, r0, r0, lsr #11
    3708:	0a7e1700 	beq	1f89310 <__bss_end__+0x1f7e930>
    370c:	31010000 	mrscc	r0, (UNDEF: 1)
    3710:	0095880d 	addseq	r8, r5, sp, lsl #16
    3714:	00002000 	andeq	r2, r0, r0
    3718:	369c0100 	ldrcc	r0, [ip], r0, lsl #2
    371c:	18000005 	stmdane	r0, {r0, r2}
    3720:	00000ad8 	ldrdeq	r0, [r0], -r8
    3724:	36253101 	strtcc	r3, [r5], -r1, lsl #2
    3728:	c6000005 	strgt	r0, [r0], -r5
    372c:	c2000015 	andgt	r0, r0, #21, 0
    3730:	13000015 	movwne	r0, #21
    3734:	006c6176 	rsbeq	r6, ip, r6, ror r1
    3738:	2c343101 	ldfcss	f3, [r4], #-4
    373c:	e8000000 	stmda	r0, {}	; <UNPREDICTABLE>
    3740:	e4000015 	str	r0, [r0], #-21	; 0xffffffeb
    3744:	14000015 	strne	r0, [r0], #-21	; 0xffffffeb
    3748:	00009598 	muleq	r0, r8, r5
    374c:	000005ac 	andeq	r0, r0, ip, lsr #11
    3750:	00000525 	andeq	r0, r0, r5, lsr #10
    3754:	02500112 	subseq	r0, r0, #-2147483644	; 0x80000004
    3758:	11000074 	tstne	r0, r4, ror r0
    375c:	000095a4 	andeq	r9, r0, r4, lsr #11
    3760:	000005b8 			; <UNDEFINED> instruction: 0x000005b8
    3764:	02500112 	subseq	r0, r0, #-2147483644	; 0x80000004
    3768:	00000074 	andeq	r0, r0, r4, ror r0
    376c:	053c040c 	ldreq	r0, [ip, #-1036]!	; 0xfffffbf4
    3770:	17190000 	ldrne	r0, [r9, -r0]
    3774:	00000a69 	andeq	r0, r0, r9, ror #20
    3778:	a80d2e01 	stmdage	sp, {r0, r9, sl, fp, sp}
    377c:	20000095 	mulcs	r0, r5, r0
    3780:	01000000 	mrseq	r0, (UNDEF: 0)
    3784:	0005a09c 	muleq	r5, ip, r0
    3788:	0ad81800 	beq	ff609790 <__bss_end__+0xff5fedb0>
    378c:	2e010000 	cdpcs	0, 0, cr0, cr1, cr0, {0}
    3790:	00053624 	andeq	r3, r5, r4, lsr #12
    3794:	00160a00 	andseq	r0, r6, r0, lsl #20
    3798:	00160600 	andseq	r0, r6, r0, lsl #12
    379c:	61761300 	cmnvs	r6, r0, lsl #6
    37a0:	2e01006c 	cdpcs	0, 0, cr0, cr1, cr12, {3}
    37a4:	00002c33 	andeq	r2, r0, r3, lsr ip
    37a8:	00162c00 	andseq	r2, r6, r0, lsl #24
    37ac:	00162800 	andseq	r2, r6, r0, lsl #16
    37b0:	95b81400 	ldrls	r1, [r8, #1024]!	; 0x400
    37b4:	05ac0000 	streq	r0, [ip, #0]!
    37b8:	058f0000 	streq	r0, [pc]	; 37c0 <__code_start__-0x4840>
    37bc:	01120000 	tsteq	r2, r0
    37c0:	00740250 	rsbseq	r0, r4, r0, asr r2
    37c4:	95c41100 	strbls	r1, [r4, #256]	; 0x100
    37c8:	05b80000 	ldreq	r0, [r8, #0]!
    37cc:	01120000 	tsteq	r2, r0
    37d0:	00740250 	rsbseq	r0, r4, r0, asr r2
    37d4:	4c1a0000 	ldcmi	0, cr0, [sl], {-0}
    37d8:	4c000008 	stcmi	0, cr0, [r0], {8}
    37dc:	03000008 	movweq	r0, #8
    37e0:	b31a06a1 	tstlt	sl, #168820736	; 0xa100000
    37e4:	b300000a 	movwlt	r0, #10
    37e8:	0300000a 	movweq	r0, #10
    37ec:	a71a0bc8 	ldrge	r0, [sl, -r8, asr #23]
    37f0:	a7000008 	strge	r0, [r0, -r8]
    37f4:	03000008 	movweq	r0, #8
    37f8:	a11a06b3 			; <UNDEFINED> instruction: 0xa11a06b3
    37fc:	a100000a 	tstge	r0, sl
    3800:	0400000a 	streq	r0, [r0], #-10
    3804:	e9000619 	stmdb	r0, {r0, r3, r4, r9, sl}
    3808:	04000008 	streq	r0, [r0], #-8
    380c:	00131600 	andseq	r1, r3, r0, lsl #12
    3810:	a7010400 	strge	r0, [r1, -r0, lsl #8]
    3814:	0c000009 	stceq	0, cr0, [r0], {9}
    3818:	00000b43 	andeq	r0, r0, r3, asr #22
    381c:	00000957 	andeq	r0, r0, r7, asr r9
    3820:	00009778 	andeq	r9, r0, r8, ror r7
    3824:	000003b0 			; <UNDEFINED> instruction: 0x000003b0
    3828:	00001cfa 	strdeq	r1, [r0], -sl
    382c:	69050402 	stmdbvs	r5, {r1, sl}
    3830:	0300746e 	movweq	r7, #1134	; 0x46e
    3834:	00bd0704 	adcseq	r0, sp, r4, lsl #14
    3838:	01030000 	mrseq	r0, (UNDEF: 3)
    383c:	00004f06 	andeq	r4, r0, r6, lsl #30
    3840:	05020300 	streq	r0, [r2, #-768]	; 0xfffffd00
    3844:	00000156 	andeq	r0, r0, r6, asr r1
    3848:	41050403 	tstmi	r5, r3, lsl #8
    384c:	03000001 	movweq	r0, #1
    3850:	013c0508 	teqeq	ip, r8, lsl #10
    3854:	01030000 	mrseq	r0, (UNDEF: 3)
    3858:	00004d08 	andeq	r4, r0, r8, lsl #26
    385c:	07020300 	streq	r0, [r2, -r0, lsl #6]
    3860:	0000005b 	andeq	r0, r0, fp, asr r0
    3864:	00017304 	andeq	r7, r1, r4, lsl #6
    3868:	19340300 	ldmdbne	r4!, {r8, r9}
    386c:	00000069 	andeq	r0, r0, r9, rrx
    3870:	b8070403 	stmdalt	r7, {r0, r1, sl}
    3874:	03000000 	movweq	r0, #0
    3878:	00b30708 	adcseq	r0, r3, r8, lsl #14
    387c:	01030000 	mrseq	r0, (UNDEF: 3)
    3880:	00005608 	andeq	r5, r0, r8, lsl #12
    3884:	00770500 	rsbseq	r0, r7, r0, lsl #10
    3888:	08030000 	stmdaeq	r3, {}	; <UNPREDICTABLE>
    388c:	0004c604 	andeq	ip, r4, r4, lsl #12
    3890:	07040600 	streq	r0, [r4, -r0, lsl #12]
    3894:	002c0407 	eoreq	r0, ip, r7, lsl #8
    3898:	1f010000 	svcne	0x00010000
    389c:	0000a406 	andeq	sl, r0, r6, lsl #8
    38a0:	0add0800 	beq	ff7458a8 <__bss_end__+0xff73aec8>
    38a4:	00000000 	andeq	r0, r0, r0
    38a8:	09000020 	stmdbeq	r0, {r5}
    38ac:	000006ad 	andeq	r0, r0, sp, lsr #13
    38b0:	770d2201 	strvc	r2, [sp, -r1, lsl #4]
    38b4:	0a000000 	beq	38bc <__code_start__-0x4744>
    38b8:	0000041b 	andeq	r0, r0, fp, lsl r4
    38bc:	c20e2301 	andgt	r2, lr, #67108864	; 0x4000000
    38c0:	05000000 	streq	r0, [r0, #-0]
    38c4:	00a5a403 	adceq	sl, r5, r3, lsl #8
    38c8:	77040b00 	strvc	r0, [r4, -r0, lsl #22]
    38cc:	0a000000 	beq	38d4 <__code_start__-0x472c>
    38d0:	00000ac1 	andeq	r0, r0, r1, asr #21
    38d4:	c20e2401 	andgt	r2, lr, #16777216	; 0x1000000
    38d8:	05000000 	streq	r0, [r0, #-0]
    38dc:	00a5a003 	adceq	sl, r5, r3
    38e0:	0b220a00 	bleq	8860e8 <__bss_end__+0x87b708>
    38e4:	25010000 	strcs	r0, [r1, #-0]
    38e8:	0000c20e 	andeq	ip, r0, lr, lsl #4
    38ec:	9c030500 	cfstr32ls	mvfx0, [r3], {-0}
    38f0:	0c0000a5 	stceq	0, cr0, [r0], {165}	; 0xa5
    38f4:	00000af8 	strdeq	r0, [r0], -r8
    38f8:	c8067501 	stmdagt	r6, {r0, r8, sl, ip, sp, lr}
    38fc:	6000009a 	mulvs	r0, sl, r0
    3900:	01000000 	mrseq	r0, (UNDEF: 0)
    3904:	0001649c 	muleq	r1, ip, r4
    3908:	00700d00 	rsbseq	r0, r0, r0, lsl #26
    390c:	8a167501 	bhi	5a0d18 <__bss_end__+0x596338>
    3910:	50000000 	andpl	r0, r0, r0
    3914:	4a000016 	bmi	3974 <__code_start__-0x468c>
    3918:	0e000016 	mcreq	0, 0, r0, cr0, cr6, {0}
    391c:	0000008c 	andeq	r0, r0, ip, lsl #1
    3920:	00000174 	andeq	r0, r0, r4, ror r1
    3924:	a58c0305 	strge	r0, [ip, #773]	; 0x305
    3928:	140f0000 	strne	r0, [pc], #-0	; 3930 <__code_start__-0x46d0>
    392c:	bc00009b 	stclt	0, cr0, [r0], {155}	; 0x9b
    3930:	5a000008 	bpl	3958 <__code_start__-0x46a8>
    3934:	10000001 	andne	r0, r0, r1
    3938:	03055001 	movweq	r5, #20481	; 0x5001
    393c:	0000a504 	andeq	sl, r0, r4, lsl #10
    3940:	05510110 	ldrbeq	r0, [r1, #-272]	; 0xfffffef0
    3944:	00a39c03 	adceq	r9, r3, r3, lsl #24
    3948:	52011000 	andpl	r1, r1, #0, 0
    394c:	a58c0305 	strge	r0, [ip, #773]	; 0x305
    3950:	01100000 	tsteq	r0, r0
    3954:	77080253 	smlsdvc	r8, r3, r2, r0
    3958:	007d0210 	rsbseq	r0, sp, r0, lsl r2
    395c:	5001f303 	andpl	pc, r1, r3, lsl #6
    3960:	9b181100 	blls	607d68 <__bss_end__+0x5fd388>
    3964:	08c80000 	stmiaeq	r8, {}^	; <UNPREDICTABLE>
    3968:	12000000 	andne	r0, r0, #0, 0
    396c:	0000007e 	andeq	r0, r0, lr, ror r0
    3970:	00000174 	andeq	r0, r0, r4, ror r1
    3974:	00002c13 	andeq	r2, r0, r3, lsl ip
    3978:	05000900 	streq	r0, [r0, #-2304]	; 0xfffff700
    397c:	00000164 	andeq	r0, r0, r4, ror #2
    3980:	000ae614 	andeq	lr, sl, r4, lsl r6
    3984:	06720100 	ldrbteq	r0, [r2], -r0, lsl #2
    3988:	00009ab4 			; <UNDEFINED> instruction: 0x00009ab4
    398c:	00000014 	andeq	r0, r0, r4, lsl r0
    3990:	ba0c9c01 	blt	32a99c <__bss_end__+0x31ffbc>
    3994:	01000002 	tsteq	r0, r2
    3998:	9ab0066f 	bls	fec0535c <__bss_end__+0xfebfa97c>
    399c:	00040000 	andeq	r0, r4, r0
    39a0:	9c010000 	stcls	0, cr0, [r1], {-0}
    39a4:	000001ae 	andeq	r0, r0, lr, lsr #3
    39a8:	01007015 	tsteq	r0, r5, lsl r0
    39ac:	008a126f 	addeq	r1, sl, pc, ror #4
    39b0:	50010000 	andpl	r0, r1, r0
    39b4:	0b851600 	bleq	fe1491bc <__bss_end__+0xfe13e7dc>
    39b8:	5e010000 	cdppl	0, 0, cr0, cr1, cr0, {0}
    39bc:	00008a07 	andeq	r8, r0, r7, lsl #20
    39c0:	00999800 	addseq	r9, r9, r0, lsl #16
    39c4:	00011800 	andeq	r1, r1, r0, lsl #16
    39c8:	2c9c0100 	ldfcss	f0, [ip], {0}
    39cc:	17000004 	strne	r0, [r0, -r4]
    39d0:	00000342 	andeq	r0, r0, r2, asr #6
    39d4:	2c205e01 	stccs	14, cr5, [r0], #-4
    39d8:	91000000 	mrsls	r0, (UNDEF: 0)
    39dc:	7d000016 	stcvc	0, cr0, [r0, #-88]	; 0xffffffa8
    39e0:	17000016 	smladne	r0, r6, r0, r0
    39e4:	00000b02 	andeq	r0, r0, r2, lsl #22
    39e8:	2c315e01 	ldccs	14, cr5, [r1], #-4
    39ec:	2a000000 	bcs	39f4 <__code_start__-0x460c>
    39f0:	16000017 			; <UNDEFINED> instruction: 0x16000017
    39f4:	0e000017 	mcreq	0, 0, r0, cr0, cr7, {0}
    39f8:	0000008c 	andeq	r0, r0, ip, lsl #1
    39fc:	0000043c 	andeq	r0, r0, ip, lsr r4
    3a00:	a5740305 	ldrbge	r0, [r4, #-773]!	; 0xfffffcfb
    3a04:	68180000 	ldmdavs	r8, {}	; <UNPREDICTABLE>
    3a08:	0e660100 	poweqs	f0, f6, f0
    3a0c:	0000002c 	andeq	r0, r0, ip, lsr #32
    3a10:	000017e0 	andeq	r1, r0, r0, ror #15
    3a14:	000017d4 	ldrdeq	r1, [r0], -r4
    3a18:	00085419 	andeq	r5, r8, r9, lsl r4
    3a1c:	0099a800 	addseq	sl, r9, r0, lsl #16
    3a20:	99a80400 	stmibls	r8!, {sl}
    3a24:	00040000 	andeq	r0, r4, r0
    3a28:	60010000 	andvs	r0, r1, r0
    3a2c:	00023805 	andeq	r3, r2, r5, lsl #16
    3a30:	08651a00 	stmdaeq	r5!, {r9, fp, ip}^
    3a34:	18340000 	ldmdane	r4!, {}	; <UNPREDICTABLE>
    3a38:	18320000 	ldmdane	r2!, {}	; <UNPREDICTABLE>
    3a3c:	19000000 	stmdbne	r0, {}	; <UNPREDICTABLE>
    3a40:	00000896 	muleq	r0, r6, r8
    3a44:	000099b4 			; <UNDEFINED> instruction: 0x000099b4
    3a48:	0099b402 	addseq	fp, r9, r2, lsl #8
    3a4c:	00000800 	andeq	r0, r0, r0, lsl #16
    3a50:	11610100 	cmnne	r1, r0, lsl #2
    3a54:	0000026c 	andeq	r0, r0, ip, ror #4
    3a58:	0008b11a 	andeq	fp, r8, sl, lsl r1
    3a5c:	00184900 	andseq	r4, r8, r0, lsl #18
    3a60:	00184700 	andseq	r4, r8, r0, lsl #14
    3a64:	08a71a00 	stmiaeq	r7!, {r9, fp, ip}
    3a68:	185f0000 	ldmdane	pc, {}^	; <UNPREDICTABLE>
    3a6c:	185d0000 	ldmdane	sp, {}^	; <UNPREDICTABLE>
    3a70:	1b000000 	blne	3a78 <__code_start__-0x4588>
    3a74:	0000081f 	andeq	r0, r0, pc, lsl r8
    3a78:	000099c4 	andeq	r9, r0, r4, asr #19
    3a7c:	00008801 	andeq	r8, r0, r1, lsl #16
    3a80:	09670100 	stmdbeq	r7!, {r8}^
    3a84:	0000030a 	andeq	r0, r0, sl, lsl #6
    3a88:	00083a1a 	andeq	r3, r8, sl, lsl sl
    3a8c:	00187800 	andseq	r7, r8, r0, lsl #16
    3a90:	00187200 	andseq	r7, r8, r0, lsl #4
    3a94:	08301a00 	ldmdaeq	r0!, {r9, fp, ip}
    3a98:	18bf0000 	ldmne	pc!, {}	; <UNPREDICTABLE>
    3a9c:	18b70000 	ldmne	r7!, {}	; <UNPREDICTABLE>
    3aa0:	881c0000 	ldmdahi	ip, {}	; <UNPREDICTABLE>
    3aa4:	19000000 	stmdbne	r0, {}	; <UNPREDICTABLE>
    3aa8:	00000854 	andeq	r0, r0, r4, asr r8
    3aac:	000099c4 	andeq	r9, r0, r4, asr #19
    3ab0:	0099c404 	addseq	ip, r9, r4, lsl #8
    3ab4:	00000400 	andeq	r0, r0, r0, lsl #8
    3ab8:	05110100 	ldreq	r0, [r1, #-256]	; 0xffffff00
    3abc:	000002c7 	andeq	r0, r0, r7, asr #5
    3ac0:	0008651a 	andeq	r6, r8, sl, lsl r5
    3ac4:	0018fd00 	andseq	pc, r8, r0, lsl #26
    3ac8:	0018fb00 	andseq	pc, r8, r0, lsl #22
    3acc:	5c0f0000 	stcpl	0, cr0, [pc], {-0}
    3ad0:	bc00009a 	stclt	0, cr0, [r0], {154}	; 0x9a
    3ad4:	ff000008 			; <UNDEFINED> instruction: 0xff000008
    3ad8:	10000002 	andne	r0, r0, r2
    3adc:	03055001 	movweq	r5, #20481	; 0x5001
    3ae0:	00009df0 	strdeq	r9, [r0], -r0
    3ae4:	05510110 	ldrbeq	r0, [r1, #-272]	; 0xfffffef0
    3ae8:	00a39c03 	adceq	r9, r3, r3, lsl #24
    3aec:	52011000 	andpl	r1, r1, #0, 0
    3af0:	a5840305 	strge	r0, [r4, #773]	; 0x305
    3af4:	01100000 	tsteq	r0, r0
    3af8:	10410153 	subne	r0, r1, r3, asr r1
    3afc:	05007d02 	streq	r7, [r0, #-3330]	; 0xfffff2fe
    3b00:	00a4b003 	adceq	fp, r4, r3
    3b04:	60110000 	andsvs	r0, r1, r0
    3b08:	c800009a 	stmdagt	r0, {r1, r3, r4, r7}
    3b0c:	00000008 	andeq	r0, r0, r8
    3b10:	08701900 	ldmdaeq	r0!, {r8, fp, ip}^
    3b14:	99dc0000 	ldmibls	ip, {}^	; <UNPREDICTABLE>
    3b18:	dc030000 	stcle	0, cr0, [r3], {-0}
    3b1c:	04000099 	streq	r0, [r0], #-153	; 0xffffff67
    3b20:	01000000 	mrseq	r0, (UNDEF: 0)
    3b24:	033e0568 	teqeq	lr, #104, 10	; 0x1a000000
    3b28:	8b1a0000 	blhi	683b30 <__bss_end__+0x679150>
    3b2c:	12000008 	andne	r0, r0, #8, 0
    3b30:	10000019 	andne	r0, r0, r9, lsl r0
    3b34:	1a000019 	bne	3ba0 <__code_start__-0x4460>
    3b38:	00000881 	andeq	r0, r0, r1, lsl #17
    3b3c:	00001927 	andeq	r1, r0, r7, lsr #18
    3b40:	00001925 	andeq	r1, r0, r5, lsr #18
    3b44:	99f40f00 	ldmibls	r4!, {r8, r9, sl, fp}^
    3b48:	04410000 	strbeq	r0, [r1], #-0
    3b4c:	03530000 	cmpeq	r3, #0, 0
    3b50:	01100000 	tsteq	r0, r0
    3b54:	01f30350 	mvnseq	r0, r0, asr r3
    3b58:	180f0050 	stmdane	pc, {r4, r6}	; <UNPREDICTABLE>
    3b5c:	bc00009a 	stclt	0, cr0, [r0], {154}	; 0x9a
    3b60:	8c000008 	stchi	0, cr0, [r0], {8}
    3b64:	10000003 	andne	r0, r0, r3
    3b68:	03055001 	movweq	r5, #20481	; 0x5001
    3b6c:	00009df0 	strdeq	r9, [r0], -r0
    3b70:	05510110 	ldrbeq	r0, [r1, #-272]	; 0xfffffef0
    3b74:	00a39c03 	adceq	r9, r3, r3, lsl #24
    3b78:	52011000 	andpl	r1, r1, #0, 0
    3b7c:	a5740305 	ldrbge	r0, [r4, #-773]!	; 0xfffffcfb
    3b80:	01100000 	tsteq	r0, r0
    3b84:	5f080253 	svcpl	0x00080253
    3b88:	007d0210 	rsbseq	r0, sp, r0, lsl r2
    3b8c:	a3ac0305 			; <UNDEFINED> instruction: 0xa3ac0305
    3b90:	11000000 	mrsne	r0, (UNDEF: 0)
    3b94:	00009a1c 	andeq	r9, r0, ip, lsl sl
    3b98:	000008c8 	andeq	r0, r0, r8, asr #17
    3b9c:	009a2011 	addseq	r2, sl, r1, lsl r0
    3ba0:	0008d400 	andeq	sp, r8, r0, lsl #8
    3ba4:	9a3c0f00 	bls	f077ac <__bss_end__+0xefcdcc>
    3ba8:	08bc0000 	ldmeq	ip!, {}	; <UNPREDICTABLE>
    3bac:	03d70000 	bicseq	r0, r7, #0, 0
    3bb0:	01100000 	tsteq	r0, r0
    3bb4:	68030550 	stmdavs	r3, {r4, r6, r8, sl}
    3bb8:	100000a4 	andne	r0, r0, r4, lsr #1
    3bbc:	03055101 	movweq	r5, #20737	; 0x5101
    3bc0:	0000a39c 	muleq	r0, ip, r3
    3bc4:	05520110 	ldrbeq	r0, [r2, #-272]	; 0xfffffef0
    3bc8:	00a57403 	adceq	r7, r5, r3, lsl #8
    3bcc:	53011000 	movwpl	r1, #4096	; 0x1000
    3bd0:	10600802 	rsbne	r0, r0, r2, lsl #16
    3bd4:	05007d02 	streq	r7, [r0, #-3330]	; 0xfffff2fe
    3bd8:	00a49c03 	adceq	r9, r4, r3, lsl #24
    3bdc:	40110000 	andsmi	r0, r1, r0
    3be0:	c800009a 	stmdagt	r0, {r1, r3, r4, r7}
    3be4:	11000008 	tstne	r0, r8
    3be8:	00009a64 	andeq	r9, r0, r4, ror #20
    3bec:	000008d4 	ldrdeq	r0, [r0], -r4
    3bf0:	009a800f 	addseq	r8, sl, pc
    3bf4:	0008bc00 	andeq	fp, r8, r0, lsl #24
    3bf8:	00042200 	andeq	r2, r4, r0, lsl #4
    3bfc:	50011000 	andpl	r1, r1, r0
    3c00:	a4bc0305 	ldrtge	r0, [ip], #773	; 0x305
    3c04:	01100000 	tsteq	r0, r0
    3c08:	9c030551 	cfstr32ls	mvfx0, [r3], {81}	; 0x51
    3c0c:	100000a3 	andne	r0, r0, r3, lsr #1
    3c10:	03055201 	movweq	r5, #20993	; 0x5201
    3c14:	0000a574 	andeq	sl, r0, r4, ror r5
    3c18:	02530110 	subseq	r0, r3, #4
    3c1c:	02106808 	andseq	r6, r0, #8, 16	; 0x80000
    3c20:	0305007d 	movweq	r0, #20605	; 0x507d
    3c24:	0000a4e8 	andeq	sl, r0, r8, ror #9
    3c28:	9a841100 	bls	fe108030 <__bss_end__+0xfe0fd650>
    3c2c:	08c80000 	stmiaeq	r8, {}^	; <UNPREDICTABLE>
    3c30:	12000000 	andne	r0, r0, #0, 0
    3c34:	0000007e 	andeq	r0, r0, lr, ror r0
    3c38:	0000043c 	andeq	r0, r0, ip, lsr r4
    3c3c:	00002c13 	andeq	r2, r0, r3, lsl ip
    3c40:	05000f00 	streq	r0, [r0, #-3840]	; 0xfffff100
    3c44:	0000042c 	andeq	r0, r0, ip, lsr #8
    3c48:	00045116 	andeq	r5, r4, r6, lsl r1
    3c4c:	07530100 	ldrbeq	r0, [r3, -r0, lsl #2]
    3c50:	0000008a 	andeq	r0, r0, sl, lsl #1
    3c54:	00009934 	andeq	r9, r0, r4, lsr r9
    3c58:	00000064 	andeq	r0, r0, r4, rrx
    3c5c:	05089c01 	streq	r9, [r8, #-3073]	; 0xfffff3ff
    3c60:	42170000 	andsmi	r0, r7, #0, 0
    3c64:	01000003 	tsteq	r0, r3
    3c68:	002c1853 	eoreq	r1, ip, r3, asr r8
    3c6c:	19420000 	stmdbne	r2, {}^	; <UNPREDICTABLE>
    3c70:	193a0000 	ldmdbne	sl!, {}	; <UNPREDICTABLE>
    3c74:	8c0e0000 	stchi	0, cr0, [lr], {-0}
    3c78:	18000000 	stmdane	r0, {}	; <UNPREDICTABLE>
    3c7c:	05000005 	streq	r0, [r0, #-5]
    3c80:	00a56c03 	adceq	r6, r5, r3, lsl #24
    3c84:	0ad81d00 	beq	ff60b08c <__bss_end__+0xff6006ac>
    3c88:	55010000 	strpl	r0, [r1, #-0]
    3c8c:	00008a0b 	andeq	r8, r0, fp, lsl #20
    3c90:	00197a00 	andseq	r7, r9, r0, lsl #20
    3c94:	00197600 	andseq	r7, r9, r0, lsl #12
    3c98:	994c0f00 	stmdbls	ip, {r8, r9, sl, fp}^
    3c9c:	051d0000 	ldreq	r0, [sp, #-0]
    3ca0:	04a60000 	strteq	r0, [r6], #0
    3ca4:	01100000 	tsteq	r0, r0
    3ca8:	00740250 	rsbseq	r0, r4, r0, asr r2
    3cac:	995c0f00 	ldmdbls	ip, {r8, r9, sl, fp}^
    3cb0:	08e00000 	stmiaeq	r0!, {}^	; <UNPREDICTABLE>
    3cb4:	04c50000 	strbeq	r0, [r5], #0
    3cb8:	01100000 	tsteq	r0, r0
    3cbc:	00750250 	rsbseq	r0, r5, r0, asr r2
    3cc0:	01510110 	cmpeq	r1, r0, lsl r1
    3cc4:	52011030 	andpl	r1, r1, #48, 0	; 0x30
    3cc8:	00007402 	andeq	r7, r0, r2, lsl #8
    3ccc:	0099840f 	addseq	r8, r9, pc, lsl #8
    3cd0:	0008bc00 	andeq	fp, r8, r0, lsl #24
    3cd4:	0004fe00 	andeq	pc, r4, r0, lsl #28
    3cd8:	50011000 	andpl	r1, r1, r0
    3cdc:	9df00305 	ldclls	3, cr0, [r0, #20]!
    3ce0:	01100000 	tsteq	r0, r0
    3ce4:	9c030551 	cfstr32ls	mvfx0, [r3], {81}	; 0x51
    3ce8:	100000a3 	andne	r0, r0, r3, lsr #1
    3cec:	03055201 	movweq	r5, #20993	; 0x5201
    3cf0:	0000a56c 	andeq	sl, r0, ip, ror #10
    3cf4:	02530110 	subseq	r0, r3, #4
    3cf8:	02105408 	andseq	r5, r0, #8, 8	; 0x8000000
    3cfc:	0305007d 	movweq	r0, #20605	; 0x507d
    3d00:	0000a3ac 	andeq	sl, r0, ip, lsr #7
    3d04:	99881100 	stmibls	r8, {r8, ip}
    3d08:	08c80000 	stmiaeq	r8, {}^	; <UNPREDICTABLE>
    3d0c:	12000000 	andne	r0, r0, #0, 0
    3d10:	0000007e 	andeq	r0, r0, lr, ror r0
    3d14:	00000518 	andeq	r0, r0, r8, lsl r5
    3d18:	00002c13 	andeq	r2, r0, r3, lsl ip
    3d1c:	05000700 	streq	r0, [r0, #-1792]	; 0xfffff900
    3d20:	00000508 	andeq	r0, r0, r8, lsl #10
    3d24:	000b2b16 	andeq	r2, fp, r6, lsl fp
    3d28:	07470100 	strbeq	r0, [r7, -r0, lsl #2]
    3d2c:	0000008a 	andeq	r0, r0, sl, lsl #1
    3d30:	0000989c 	muleq	r0, ip, r8
    3d34:	00000098 	muleq	r0, r8, r0
    3d38:	062b9c01 	strteq	r9, [fp], -r1, lsl #24
    3d3c:	42170000 	andsmi	r0, r7, #0, 0
    3d40:	01000003 	tsteq	r0, r3
    3d44:	002c2047 	eoreq	r2, ip, r7, asr #32
    3d48:	19a80000 	stmibne	r8!, {}	; <UNPREDICTABLE>
    3d4c:	19980000 	ldmibne	r8, {}	; <UNPREDICTABLE>
    3d50:	8c0e0000 	stchi	0, cr0, [lr], {-0}
    3d54:	3c000000 	stccc	0, cr0, [r0], {-0}
    3d58:	05000004 	streq	r0, [r0, #-4]
    3d5c:	00a55c03 	adceq	r5, r5, r3, lsl #24
    3d60:	0ad81d00 	beq	ff60b168 <__bss_end__+0xff600788>
    3d64:	4b010000 	blmi	43d6c <__bss_end__+0x3938c>
    3d68:	00008a0b 	andeq	r8, r0, fp, lsl #20
    3d6c:	001a1c00 	andseq	r1, sl, r0, lsl #24
    3d70:	001a1600 	andseq	r1, sl, r0, lsl #12
    3d74:	081f1b00 	ldmdaeq	pc, {r8, r9, fp, ip}	; <UNPREDICTABLE>
    3d78:	98ac0000 	stmials	ip!, {}	; <UNPREDICTABLE>
    3d7c:	70030000 	andvc	r0, r3, r0
    3d80:	01000000 	mrseq	r0, (UNDEF: 0)
    3d84:	05a30e49 	streq	r0, [r3, #3657]!	; 0xe49
    3d88:	3a1a0000 	bcc	683d90 <__bss_end__+0x6793b0>
    3d8c:	4b000008 	blmi	3db4 <__code_start__-0x424c>
    3d90:	4900001a 	stmdbmi	r0, {r1, r3, r4}
    3d94:	1a00001a 	bne	3e04 <__code_start__-0x41fc>
    3d98:	00000830 	andeq	r0, r0, r0, lsr r8
    3d9c:	00001a63 	andeq	r1, r0, r3, ror #20
    3da0:	00001a5f 	andeq	r1, r0, pc, asr sl
    3da4:	0000701e 	andeq	r7, r0, lr, lsl r0
    3da8:	f40f0000 	vst4.8	{d0-d3}, [pc], r0
    3dac:	bc000098 	stclt	0, cr0, [r0], {152}	; 0x98
    3db0:	dc000008 	stcle	0, cr0, [r0], {8}
    3db4:	10000005 	andne	r0, r0, r5
    3db8:	03055001 	movweq	r5, #20481	; 0x5001
    3dbc:	00009df0 	strdeq	r9, [r0], -r0
    3dc0:	05510110 	ldrbeq	r0, [r1, #-272]	; 0xfffffef0
    3dc4:	00a39c03 	adceq	r9, r3, r3, lsl #24
    3dc8:	52011000 	andpl	r1, r1, #0, 0
    3dcc:	a55c0305 	ldrbge	r0, [ip, #-773]	; 0xfffffcfb
    3dd0:	01100000 	tsteq	r0, r0
    3dd4:	48080253 	stmdami	r8, {r0, r1, r4, r6, r9}
    3dd8:	007d0210 	rsbseq	r0, sp, r0, lsl r2
    3ddc:	a3ac0305 			; <UNDEFINED> instruction: 0xa3ac0305
    3de0:	11000000 	mrsne	r0, (UNDEF: 0)
    3de4:	000098f8 	strdeq	r9, [r0], -r8
    3de8:	000008c8 	andeq	r0, r0, r8, asr #17
    3dec:	0099180f 	addseq	r1, r9, pc, lsl #16
    3df0:	0008bc00 	andeq	fp, r8, r0, lsl #24
    3df4:	00062100 	andeq	r2, r6, r0, lsl #2
    3df8:	50011000 	andpl	r1, r1, r0
    3dfc:	a4280305 	strtge	r0, [r8], #-773	; 0xfffffcfb
    3e00:	01100000 	tsteq	r0, r0
    3e04:	9c030551 	cfstr32ls	mvfx0, [r3], {81}	; 0x51
    3e08:	100000a3 	andne	r0, r0, r3, lsr #1
    3e0c:	03055201 	movweq	r5, #20993	; 0x5201
    3e10:	0000a55c 	andeq	sl, r0, ip, asr r5
    3e14:	02530110 	subseq	r0, r3, #4
    3e18:	02104e08 	andseq	r4, r0, #8, 28	; 0x80
    3e1c:	f308007d 	vqadd.u8	q0, q4, <illegal reg q14.5>
    3e20:	07235001 	streq	r5, [r3, -r1]!
    3e24:	001af809 	andseq	pc, sl, r9, lsl #16
    3e28:	00991c11 	addseq	r1, r9, r1, lsl ip
    3e2c:	0008c800 	andeq	ip, r8, r0, lsl #16
    3e30:	4d0c0000 	stcmi	0, cr0, [ip, #-0]
    3e34:	0100000b 	tsteq	r0, fp
    3e38:	9844063c 	stmdals	r4, {r2, r3, r4, r5, r9, sl}^
    3e3c:	00580000 	subseq	r0, r8, r0
    3e40:	9c010000 	stcls	0, cr0, [r1], {-0}
    3e44:	000006cf 	andeq	r0, r0, pc, asr #13
    3e48:	0003a10a 	andeq	sl, r3, sl, lsl #2
    3e4c:	103d0100 	eorsne	r0, sp, r0, lsl #2
    3e50:	00000025 	andeq	r0, r0, r5, lsr #32
    3e54:	a9d80305 	ldmibge	r8, {r0, r2, r8, r9}^
    3e58:	8c0e0000 	stchi	0, cr0, [lr], {-0}
    3e5c:	df000000 	svcle	0x00000000
    3e60:	05000006 	streq	r0, [r0, #-6]
    3e64:	00a54c03 	adceq	r4, r5, r3, lsl #24
    3e68:	04070700 	streq	r0, [r7], #-1792	; 0xfffff900
    3e6c:	0000002c 	andeq	r0, r0, ip, lsr #32
    3e70:	7a0a4201 	bvc	29467c <__bss_end__+0x289c9c>
    3e74:	08000006 	stmdaeq	r0, {r1, r2}
    3e78:	00000b14 	andeq	r0, r0, r4, lsl fp
    3e7c:	00100000 	andseq	r0, r0, r0
    3e80:	98700f00 	ldmdals	r0!, {r8, r9, sl, fp}^
    3e84:	06e40000 	strbteq	r0, [r4], r0
    3e88:	06960000 	ldreq	r0, [r6], r0
    3e8c:	01100000 	tsteq	r0, r0
    3e90:	40400350 	submi	r0, r0, r0, asr r3
    3e94:	51011024 	tstpl	r1, r4, lsr #32
    3e98:	24484003 	strbcs	r4, [r8], #-3
    3e9c:	98880f00 	stmls	r8, {r8, r9, sl, fp}
    3ea0:	08bc0000 	ldmeq	ip!, {}	; <UNPREDICTABLE>
    3ea4:	06c50000 	strbeq	r0, [r5], r0
    3ea8:	01100000 	tsteq	r0, r0
    3eac:	f8030550 			; <UNDEFINED> instruction: 0xf8030550
    3eb0:	100000a3 	andne	r0, r0, r3, lsr #1
    3eb4:	03055101 	movweq	r5, #20737	; 0x5101
    3eb8:	0000a39c 	muleq	r0, ip, r3
    3ebc:	05520110 	ldrbeq	r0, [r2, #-272]	; 0xfffffef0
    3ec0:	00a54c03 	adceq	r4, r5, r3, lsl #24
    3ec4:	53011000 	movwpl	r1, #4096	; 0x1000
    3ec8:	00400802 	subeq	r0, r0, r2, lsl #16
    3ecc:	00988c11 	addseq	r8, r8, r1, lsl ip
    3ed0:	0008c800 	andeq	ip, r8, r0, lsl #16
    3ed4:	7e120000 	cdpvc	0, 1, cr0, cr2, cr0, {0}
    3ed8:	df000000 	svcle	0x00000000
    3edc:	13000006 	movwne	r0, #6
    3ee0:	0000002c 	andeq	r0, r0, ip, lsr #32
    3ee4:	cf05000c 	svcgt	0x0005000c
    3ee8:	0c000006 	stceq	0, cr0, [r0], {6}
    3eec:	00000459 	andeq	r0, r0, r9, asr r4
    3ef0:	a8062d01 	stmdage	r6, {r0, r8, sl, fp, sp}
    3ef4:	9c000097 	stcls	0, cr0, [r0], {151}	; 0x97
    3ef8:	01000000 	mrseq	r0, (UNDEF: 0)
    3efc:	0007c89c 	muleq	r7, ip, r8
    3f00:	0ad71700 	beq	ff5c9b08 <__bss_end__+0xff5bf128>
    3f04:	2d010000 	stccs	0, cr0, [r1, #-0]
    3f08:	00002c26 	andeq	r2, r0, r6, lsr #24
    3f0c:	001a9100 	andseq	r9, sl, r0, lsl #2
    3f10:	001a8300 	andseq	r8, sl, r0, lsl #6
    3f14:	0acc1700 	beq	ff309b1c <__bss_end__+0xff2ff13c>
    3f18:	2d010000 	stccs	0, cr0, [r1, #-0]
    3f1c:	00002c36 	andeq	r2, r0, r6, lsr ip
    3f20:	001af900 	andseq	pc, sl, r0, lsl #18
    3f24:	001af100 	andseq	pc, sl, r0, lsl #2
    3f28:	0ad81d00 	beq	ff60b330 <__bss_end__+0xff600950>
    3f2c:	2e010000 	cdpcs	0, 0, cr0, cr1, cr0, {0}
    3f30:	0000c20b 	andeq	ip, r0, fp, lsl #4
    3f34:	001b4100 	andseq	r4, fp, r0, lsl #2
    3f38:	001b3300 	andseq	r3, fp, r0, lsl #6
    3f3c:	008c0e00 	addeq	r0, ip, r0, lsl #28
    3f40:	07d80000 	ldrbeq	r0, [r8, r0]
    3f44:	03050000 	movweq	r0, #20480	; 0x5000
    3f48:	0000a534 	andeq	sl, r0, r4, lsr r5
    3f4c:	0098000f 	addseq	r0, r8, pc
    3f50:	0008bc00 	andeq	fp, r8, r0, lsl #24
    3f54:	00077e00 	andeq	r7, r7, r0, lsl #28
    3f58:	50011000 	andpl	r1, r1, r0
    3f5c:	9df00305 	ldclls	3, cr0, [r0, #20]!
    3f60:	01100000 	tsteq	r0, r0
    3f64:	9c030551 	cfstr32ls	mvfx0, [r3], {81}	; 0x51
    3f68:	100000a3 	andne	r0, r0, r3, lsr #1
    3f6c:	03055201 	movweq	r5, #20993	; 0x5201
    3f70:	0000a534 	andeq	sl, r0, r4, lsr r5
    3f74:	02530110 	subseq	r0, r3, #4
    3f78:	02103008 	andseq	r3, r0, #8, 0
    3f7c:	0305007d 	movweq	r0, #20605	; 0x507d
    3f80:	0000a3a8 	andeq	sl, r0, r8, lsr #7
    3f84:	98041100 	stmdals	r4, {r8, ip}
    3f88:	08c80000 	stmiaeq	r8, {}^	; <UNPREDICTABLE>
    3f8c:	280f0000 	stmdacs	pc, {}	; <UNPREDICTABLE>
    3f90:	bc000098 	stclt	0, cr0, [r0], {152}	; 0x98
    3f94:	be000008 	cdplt	0, 0, cr0, cr0, cr8, {0}
    3f98:	10000007 	andne	r0, r0, r7
    3f9c:	03055001 	movweq	r5, #20481	; 0x5001
    3fa0:	0000a3b4 			; <UNDEFINED> instruction: 0x0000a3b4
    3fa4:	05510110 	ldrbeq	r0, [r1, #-272]	; 0xfffffef0
    3fa8:	00a39c03 	adceq	r9, r3, r3, lsl #24
    3fac:	52011000 	andpl	r1, r1, #0, 0
    3fb0:	a5340305 	ldrge	r0, [r4, #-773]!	; 0xfffffcfb
    3fb4:	01100000 	tsteq	r0, r0
    3fb8:	34080253 	strcc	r0, [r8], #-595	; 0xfffffdad
    3fbc:	007d0210 	rsbseq	r0, sp, r0, lsl r2
    3fc0:	5001f303 	andpl	pc, r1, r3, lsl #6
    3fc4:	982c1100 	stmdals	ip!, {r8, ip}
    3fc8:	08c80000 	stmiaeq	r8, {}^	; <UNPREDICTABLE>
    3fcc:	12000000 	andne	r0, r0, #0, 0
    3fd0:	0000007e 	andeq	r0, r0, lr, ror r0
    3fd4:	000007d8 	ldrdeq	r0, [r0], -r8
    3fd8:	00002c13 	andeq	r2, r0, r3, lsl ip
    3fdc:	05001600 	streq	r1, [r0, #-1536]	; 0xfffffa00
    3fe0:	000007c8 	andeq	r0, r0, r8, asr #15
    3fe4:	000b651f 	andeq	r6, fp, pc, lsl r5
    3fe8:	072a0100 	streq	r0, [sl, -r0, lsl #2]!
    3fec:	0000008a 	andeq	r0, r0, sl, lsl #1
    3ff0:	00009798 	muleq	r0, r8, r7
    3ff4:	00000010 	andeq	r0, r0, r0, lsl r0
    3ff8:	b91f9c01 	ldmdblt	pc, {r0, sl, fp, ip, pc}	; <UNPREDICTABLE>
    3ffc:	0100000a 	tsteq	r0, sl
    4000:	008a0729 	addeq	r0, sl, r9, lsr #14
    4004:	97880000 	strls	r0, [r8, r0]
    4008:	00100000 	andseq	r0, r0, r0
    400c:	9c010000 	stcls	0, cr0, [r1], {-0}
    4010:	000b1a1f 	andeq	r1, fp, pc, lsl sl
    4014:	07280100 	streq	r0, [r8, -r0, lsl #2]!
    4018:	0000008a 	andeq	r0, r0, sl, lsl #1
    401c:	00009778 	andeq	r9, r0, r8, ror r7
    4020:	00000010 	andeq	r0, r0, r0, lsl r0
    4024:	f0209c01 			; <UNDEFINED> instruction: 0xf0209c01
    4028:	0100000a 	tsteq	r0, sl
    402c:	002c1810 	eoreq	r1, ip, r0, lsl r8
    4030:	54030000 	strpl	r0, [r3], #-0
    4034:	21000008 	tstcs	r0, r8
    4038:	10010078 	andne	r0, r1, r8, ror r0
    403c:	00002c29 	andeq	r2, r0, r9, lsr #24
    4040:	006e2100 	rsbeq	r2, lr, r0, lsl #2
    4044:	2c351001 	ldccs	0, cr1, [r5], #-4
    4048:	0e000000 	cdpeq	0, 0, cr0, cr0, cr0, {0}
    404c:	0000008c 	andeq	r0, r0, ip, lsl #1
    4050:	00000518 	andeq	r0, r0, r8, lsl r5
    4054:	a5840305 	strge	r0, [r4, #773]	; 0x305
    4058:	20000000 	andcs	r0, r0, r0
    405c:	00000b3b 	andeq	r0, r0, fp, lsr fp
    4060:	2c180d01 	ldccs	13, cr0, [r8], {1}
    4064:	03000000 	movweq	r0, #0
    4068:	00000870 	andeq	r0, r0, r0, ror r8
    406c:	01007821 	tsteq	r0, r1, lsr #16
    4070:	002c290d 	eoreq	r2, ip, sp, lsl #18
    4074:	20000000 	andcs	r0, r0, r0
    4078:	00000b5a 	andeq	r0, r0, sl, asr fp
    407c:	2c180701 	ldccs	7, cr0, [r8], {1}
    4080:	03000000 	movweq	r0, #0
    4084:	00000896 	muleq	r0, r6, r8
    4088:	01007821 	tsteq	r0, r1, lsr #16
    408c:	002c2c07 	eoreq	r2, ip, r7, lsl #24
    4090:	6e210000 	cdpvs	0, 2, cr0, cr1, cr0, {0}
    4094:	38070100 	stmdacc	r7, {r8}
    4098:	0000002c 	andeq	r0, r0, ip, lsr #32
    409c:	0b0c2000 	bleq	30c0a4 <__bss_end__+0x3016c4>
    40a0:	04010000 	streq	r0, [r1], #-0
    40a4:	00005d18 	andeq	r5, r0, r8, lsl sp
    40a8:	08bc0300 	ldmeq	ip!, {r8, r9}
    40ac:	78210000 	stmdavc	r1!, {}	; <UNPREDICTABLE>
    40b0:	29040100 	stmdbcs	r4, {r8}
    40b4:	0000005d 	andeq	r0, r0, sp, asr r0
    40b8:	01007921 	tsteq	r0, r1, lsr #18
    40bc:	005d3504 	subseq	r3, sp, r4, lsl #10
    40c0:	22000000 	andcs	r0, r0, #0, 0
    40c4:	0000061b 	andeq	r0, r0, fp, lsl r6
    40c8:	0000061b 	andeq	r0, r0, fp, lsl r6
    40cc:	22062802 	andcs	r2, r6, #131072	; 0x20000
    40d0:	000002cc 	andeq	r0, r0, ip, asr #5
    40d4:	000002cc 	andeq	r0, r0, ip, asr #5
    40d8:	22066e02 	andcs	r6, r6, #2, 28
    40dc:	00000b76 	andeq	r0, r0, r6, ror fp
    40e0:	00000b76 	andeq	r0, r0, r6, ror fp
    40e4:	22061d02 	andcs	r1, r6, #128	; 0x80
    40e8:	00000080 	andeq	r0, r0, r0, lsl #1
    40ec:	00000080 	andeq	r0, r0, r0, lsl #1
    40f0:	0007f702 	andeq	pc, r7, r2, lsl #14
    40f4:	00000149 	andeq	r0, r0, r9, asr #2
    40f8:	15390004 	ldrne	r0, [r9, #-4]!
    40fc:	01040000 	mrseq	r0, (UNDEF: 4)
    4100:	000004ea 	andeq	r0, r0, sl, ror #9
    4104:	000bb30c 	andeq	fp, fp, ip, lsl #6
    4108:	0005cb00 	andeq	ip, r5, r0, lsl #22
    410c:	009b2800 	addseq	r2, fp, r0, lsl #16
    4110:	00003c00 	andeq	r3, r0, r0, lsl #24
    4114:	00209100 	eoreq	r9, r0, r0, lsl #2
    4118:	05040200 	streq	r0, [r4, #-512]	; 0xfffffe00
    411c:	00746e69 	rsbseq	r6, r4, r9, ror #28
    4120:	bd070403 	cfstrslt	mvf0, [r7, #-12]
    4124:	03000000 	movweq	r0, #0
    4128:	004f0601 	subeq	r0, pc, r1, lsl #12
    412c:	02030000 	andeq	r0, r3, #0, 0
    4130:	00015605 	andeq	r5, r1, r5, lsl #12
    4134:	05040300 	streq	r0, [r4, #-768]	; 0xfffffd00
    4138:	00000141 	andeq	r0, r0, r1, asr #2
    413c:	3c050803 	stccc	8, cr0, [r5], {3}
    4140:	03000001 	movweq	r0, #1
    4144:	004d0801 	subeq	r0, sp, r1, lsl #16
    4148:	02030000 	andeq	r0, r3, #0, 0
    414c:	00005b07 	andeq	r5, r0, r7, lsl #22
    4150:	07040300 	streq	r0, [r4, -r0, lsl #6]
    4154:	000000b8 	strheq	r0, [r0], -r8
    4158:	b3070803 	movwlt	r0, #30723	; 0x7803
    415c:	04000000 	streq	r0, [r0], #-0
    4160:	00000025 	andeq	r0, r0, r5, lsr #32
    4164:	0000007a 	andeq	r0, r0, sl, ror r0
    4168:	00002505 	andeq	r2, r0, r5, lsl #10
    416c:	4a060000 	bmi	184174 <__bss_end__+0x179794>
    4170:	02000001 	andeq	r0, r0, #1, 0
    4174:	00860e1c 	addeq	r0, r6, ip, lsl lr
    4178:	04070000 	streq	r0, [r7], #-0
    417c:	0000006b 	andeq	r0, r0, fp, rrx
    4180:	00002504 	andeq	r2, r0, r4, lsl #10
    4184:	00009b00 	andeq	r9, r0, r0, lsl #22
    4188:	009b0500 	addseq	r0, fp, r0, lsl #10
    418c:	07000000 	streq	r0, [r0, -r0]
    4190:	0000a804 	andeq	sl, r0, r4, lsl #16
    4194:	08010300 	stmdaeq	r1, {r8, r9}
    4198:	00000056 	andeq	r0, r0, r6, asr r0
    419c:	0000a108 	andeq	sl, r0, r8, lsl #2
    41a0:	06590600 	ldrbeq	r0, [r9], -r0, lsl #12
    41a4:	21020000 	mrscs	r0, (UNDEF: 2)
    41a8:	0000b90e 	andeq	fp, r0, lr, lsl #18
    41ac:	8c040700 	stchi	7, cr0, [r4], {-0}
    41b0:	09000000 	stmdbeq	r0, {}	; <UNPREDICTABLE>
    41b4:	0000007a 	andeq	r0, r0, sl, ror r0
    41b8:	05070601 	streq	r0, [r7, #-1537]	; 0xfffff9ff
    41bc:	00a5a803 	adceq	sl, r5, r3, lsl #16
    41c0:	0ba60a00 	bleq	fe9869c8 <__bss_end__+0xfe97bfe8>
    41c4:	0b010000 	bleq	441cc <__bss_end__+0x397ec>
    41c8:	009b5406 	addseq	r5, fp, r6, lsl #8
    41cc:	00001000 	andeq	r1, r0, r0
    41d0:	f19c0100 			; <UNDEFINED> instruction: 0xf19c0100
    41d4:	0b000000 	bleq	41dc <__code_start__-0x3e24>
    41d8:	01007066 	tsteq	r0, r6, rrx
    41dc:	0086190b 	addeq	r1, r6, fp, lsl #18
    41e0:	50010000 	andpl	r0, r1, r0
    41e4:	0b760c00 	bleq	1d871ec <__bss_end__+0x1d7c80c>
    41e8:	08010000 	stmdaeq	r1, {}	; <UNPREDICTABLE>
    41ec:	009b3c06 	addseq	r3, fp, r6, lsl #24
    41f0:	00001800 	andeq	r1, r0, r0, lsl #16
    41f4:	0d9c0100 	ldfeqs	f0, [ip]
    41f8:	00000b95 	muleq	r0, r5, fp
    41fc:	250c0301 	strcs	r0, [ip, #-769]	; 0xfffffcff
    4200:	28000000 	stmdacs	r0, {}	; <UNPREDICTABLE>
    4204:	1400009b 	strne	r0, [r0], #-155	; 0xffffff65
    4208:	01000000 	mrseq	r0, (UNDEF: 0)
    420c:	0001409c 	muleq	r1, ip, r0
    4210:	00630e00 	rsbeq	r0, r3, r0, lsl #28
    4214:	25210301 	strcs	r0, [r1, #-769]!	; 0xfffffcff
    4218:	a5000000 	strge	r0, [r0, #-0]
    421c:	a100001b 	tstge	r0, fp, lsl r0
    4220:	0f00001b 	svceq	0x0000001b
    4224:	00009b34 	andeq	r9, r0, r4, lsr fp
    4228:	00000140 	andeq	r0, r0, r0, asr #2
    422c:	02500110 	subseq	r0, r0, #4
    4230:	00000074 	andeq	r0, r0, r4, ror r0
    4234:	000a8711 	andeq	r8, sl, r1, lsl r7
    4238:	000a8700 	andeq	r8, sl, r0, lsl #14
    423c:	06420200 	strbeq	r0, [r2], -r0, lsl #4
    4240:	00013700 	andeq	r3, r1, r0, lsl #14
    4244:	48000400 	stmdami	r0, {sl}
    4248:	04000016 	streq	r0, [r0], #-22	; 0xffffffea
    424c:	0004ea01 	andeq	lr, r4, r1, lsl #20
    4250:	0bc90c00 	bleq	ff247258 <__bss_end__+0xff23c878>
    4254:	05cb0000 	strbeq	r0, [fp]
    4258:	9b640000 	blls	1904260 <__bss_end__+0x18f9880>
    425c:	00340000 	eorseq	r0, r4, r0
    4260:	21530000 	cmpcs	r3, r0
    4264:	04020000 	streq	r0, [r2], #-0
    4268:	746e6905 	strbtvc	r6, [lr], #-2309	; 0xfffff6fb
    426c:	07040300 	streq	r0, [r4, -r0, lsl #6]
    4270:	000000bd 	strheq	r0, [r0], -sp
    4274:	4f060103 	svcmi	0x00060103
    4278:	03000000 	movweq	r0, #0
    427c:	01560502 	cmpeq	r6, r2, lsl #10
    4280:	04030000 	streq	r0, [r3], #-0
    4284:	00014105 	andeq	r4, r1, r5, lsl #2
    4288:	05080300 	streq	r0, [r8, #-768]	; 0xfffffd00
    428c:	0000013c 	andeq	r0, r0, ip, lsr r1
    4290:	4d080103 	stfmis	f0, [r8, #-12]
    4294:	03000000 	movweq	r0, #0
    4298:	005b0702 	subseq	r0, fp, r2, lsl #14
    429c:	04030000 	streq	r0, [r3], #-0
    42a0:	0000b807 	andeq	fp, r0, r7, lsl #16
    42a4:	07080300 	streq	r0, [r8, -r0, lsl #6]
    42a8:	000000b3 	strheq	r0, [r0], -r3
    42ac:	00002504 	andeq	r2, r0, r4, lsl #10
    42b0:	00007a00 	andeq	r7, r0, r0, lsl #20
    42b4:	00250500 	eoreq	r0, r5, r0, lsl #10
    42b8:	06000000 	streq	r0, [r0], -r0
    42bc:	0000014a 	andeq	r0, r0, sl, asr #2
    42c0:	860e1c02 	strhi	r1, [lr], -r2, lsl #24
    42c4:	07000000 	streq	r0, [r0, -r0]
    42c8:	00006b04 	andeq	r6, r0, r4, lsl #22
    42cc:	00250400 	eoreq	r0, r5, r0, lsl #8
    42d0:	009b0000 	addseq	r0, fp, r0
    42d4:	9b050000 	blls	1442dc <__bss_end__+0x1398fc>
    42d8:	00000000 	andeq	r0, r0, r0
    42dc:	00a80407 	adceq	r0, r8, r7, lsl #8
    42e0:	01030000 	mrseq	r0, (UNDEF: 3)
    42e4:	00005608 	andeq	r5, r0, r8, lsl #12
    42e8:	00a10800 	adceq	r0, r1, r0, lsl #16
    42ec:	59060000 	stmdbpl	r6, {}	; <UNPREDICTABLE>
    42f0:	02000006 	andeq	r0, r0, #6, 0
    42f4:	00b90e21 	adcseq	r0, r9, r1, lsr #28
    42f8:	04070000 	streq	r0, [r7], #-0
    42fc:	0000008c 	andeq	r0, r0, ip, lsl #1
    4300:	00070409 	andeq	r0, r7, r9, lsl #8
    4304:	07040100 	streq	r0, [r4, -r0, lsl #2]
    4308:	00000134 	andeq	r0, r0, r4, lsr r1
    430c:	00009b64 	andeq	r9, r0, r4, ror #22
    4310:	00000034 	andeq	r0, r0, r4, lsr r0
    4314:	01349c01 	teqeq	r4, r1, lsl #24
    4318:	c40a0000 	strgt	r0, [sl], #-0
    431c:	0100000b 	tsteq	r0, fp
    4320:	01341504 	teqeq	r4, r4, lsl #10
    4324:	50010000 	andpl	r0, r1, r0
    4328:	6372730b 	cmnvs	r2, #738197504	; 0x2c000000
    432c:	27040100 	strcs	r0, [r4, -r0, lsl #2]
    4330:	0000009b 	muleq	r0, fp, r0
    4334:	00001bc7 	andeq	r1, r0, r7, asr #23
    4338:	00001bc3 	andeq	r1, r0, r3, asr #23
    433c:	0031730c 	eorseq	r7, r1, ip, lsl #6
    4340:	340b0501 	strcc	r0, [fp], #-1281	; 0xfffffaff
    4344:	f2000001 	vhadd.s8	d0, d0, d1
    4348:	e800001b 	stmda	r0, {r0, r1, r3, r4}
    434c:	0c00001b 	stceq	0, cr0, [r0], {27}
    4350:	01003273 	tsteq	r0, r3, ror r2
    4354:	009b1106 	addseq	r1, fp, r6, lsl #2
    4358:	1c370000 	ldcne	0, cr0, [r7], #-0
    435c:	1c330000 	ldcne	0, cr0, [r3], #-0
    4360:	630c0000 	movwvs	r0, #49152	; 0xc000
    4364:	0a070100 	beq	1c476c <__bss_end__+0x1b9d8c>
    4368:	000000a1 	andeq	r0, r0, r1, lsr #1
    436c:	00001c5b 	andeq	r1, r0, fp, asr ip
    4370:	00001c57 	andeq	r1, r0, r7, asr ip
    4374:	a1040700 	tstge	r4, r0, lsl #14
    4378:	00000000 	andeq	r0, r0, r0
    437c:	000000f7 	strdeq	r0, [r0], -r7
    4380:	16fe0004 	ldrbtne	r0, [lr], r4
    4384:	01040000 	mrseq	r0, (UNDEF: 4)
    4388:	000004ea 	andeq	r0, r0, sl, ror #9
    438c:	000bd90c 	andeq	sp, fp, ip, lsl #18
    4390:	0005cb00 	andeq	ip, r5, r0, lsl #22
    4394:	009b9800 	addseq	r9, fp, r0, lsl #16
    4398:	00002c00 	andeq	r2, r0, r0, lsl #24
    439c:	00226100 	eoreq	r6, r2, r0, lsl #2
    43a0:	05040200 	streq	r0, [r4, #-512]	; 0xfffffe00
    43a4:	00746e69 	rsbseq	r6, r4, r9, ror #28
    43a8:	bd070403 	cfstrslt	mvf0, [r7, #-12]
    43ac:	03000000 	movweq	r0, #0
    43b0:	004f0601 	subeq	r0, pc, r1, lsl #12
    43b4:	02030000 	andeq	r0, r3, #0, 0
    43b8:	00015605 	andeq	r5, r1, r5, lsl #12
    43bc:	05040300 	streq	r0, [r4, #-768]	; 0xfffffd00
    43c0:	00000141 	andeq	r0, r0, r1, asr #2
    43c4:	3c050803 	stccc	8, cr0, [r5], {3}
    43c8:	03000001 	movweq	r0, #1
    43cc:	004d0801 	subeq	r0, sp, r1, lsl #16
    43d0:	02030000 	andeq	r0, r3, #0, 0
    43d4:	00005b07 	andeq	r5, r0, r7, lsl #22
    43d8:	07040300 	streq	r0, [r4, -r0, lsl #6]
    43dc:	000000b8 	strheq	r0, [r0], -r8
    43e0:	b3070803 	movwlt	r0, #30723	; 0x7803
    43e4:	04000000 	streq	r0, [r0], #-0
    43e8:	00000025 	andeq	r0, r0, r5, lsr #32
    43ec:	0000007a 	andeq	r0, r0, sl, ror r0
    43f0:	00002505 	andeq	r2, r0, r5, lsl #10
    43f4:	4a060000 	bmi	1843fc <__bss_end__+0x179a1c>
    43f8:	02000001 	andeq	r0, r0, #1, 0
    43fc:	00860e1c 	addeq	r0, r6, ip, lsl lr
    4400:	04070000 	streq	r0, [r7], #-0
    4404:	0000006b 	andeq	r0, r0, fp, rrx
    4408:	00002504 	andeq	r2, r0, r4, lsl #10
    440c:	00009b00 	andeq	r9, r0, r0, lsl #22
    4410:	009b0500 	addseq	r0, fp, r0, lsl #10
    4414:	07000000 	streq	r0, [r0, -r0]
    4418:	0000a804 	andeq	sl, r0, r4, lsl #16
    441c:	08010300 	stmdaeq	r1, {r8, r9}
    4420:	00000056 	andeq	r0, r0, r6, asr r0
    4424:	0000a108 	andeq	sl, r0, r8, lsl #2
    4428:	06590600 	ldrbeq	r0, [r9], -r0, lsl #12
    442c:	21020000 	mrscs	r0, (UNDEF: 2)
    4430:	0000b90e 	andeq	fp, r0, lr, lsl #18
    4434:	8c040700 	stchi	7, cr0, [r4], {-0}
    4438:	09000000 	stmdbeq	r0, {}	; <UNPREDICTABLE>
    443c:	0000070b 	andeq	r0, r0, fp, lsl #14
    4440:	25050301 	strcs	r0, [r5, #-769]	; 0xfffffcff
    4444:	98000000 	stmdals	r0, {}	; <UNPREDICTABLE>
    4448:	2c00009b 	stccs	0, cr0, [r0], {155}	; 0x9b
    444c:	01000000 	mrseq	r0, (UNDEF: 0)
    4450:	00610a9c 	mlseq	r1, ip, sl, r0
    4454:	9b180301 	blls	605060 <__bss_end__+0x5fa680>
    4458:	7d000000 	stcvc	0, cr0, [r0, #-0]
    445c:	7900001c 	stmdbvc	r0, {r2, r3, r4}
    4460:	0a00001c 	beq	44d8 <__code_start__-0x3b28>
    4464:	03010062 	movweq	r0, #4194	; 0x1062
    4468:	00009b27 	andeq	r9, r0, r7, lsr #22
    446c:	001c9f00 	andseq	r9, ip, r0, lsl #30
    4470:	001c9b00 	andseq	r9, ip, r0, lsl #22
    4474:	0f000000 	svceq	0x00000000
    4478:	04000001 	streq	r0, [r0], #-1
    447c:	00178d00 	andseq	r8, r7, r0, lsl #26
    4480:	ea010400 	b	45488 <__bss_end__+0x3aaa8>
    4484:	0c000004 	stceq	0, cr0, [r0], {4}
    4488:	00000be9 	andeq	r0, r0, r9, ror #23
    448c:	000005cb 	andeq	r0, r0, fp, asr #11
    4490:	00009bc4 	andeq	r9, r0, r4, asr #23
    4494:	00000020 	andeq	r0, r0, r0, lsr #32
    4498:	00002328 	andeq	r2, r0, r8, lsr #6
    449c:	69050402 	stmdbvs	r5, {r1, sl}
    44a0:	0300746e 	movweq	r7, #1134	; 0x46e
    44a4:	00bd0704 	adcseq	r0, sp, r4, lsl #14
    44a8:	01030000 	mrseq	r0, (UNDEF: 3)
    44ac:	00004f06 	andeq	r4, r0, r6, lsl #30
    44b0:	05020300 	streq	r0, [r2, #-768]	; 0xfffffd00
    44b4:	00000156 	andeq	r0, r0, r6, asr r1
    44b8:	41050403 	tstmi	r5, r3, lsl #8
    44bc:	03000001 	movweq	r0, #1
    44c0:	013c0508 	teqeq	ip, r8, lsl #10
    44c4:	01030000 	mrseq	r0, (UNDEF: 3)
    44c8:	00004d08 	andeq	r4, r0, r8, lsl #26
    44cc:	07020300 	streq	r0, [r2, -r0, lsl #6]
    44d0:	0000005b 	andeq	r0, r0, fp, asr r0
    44d4:	b8070403 	stmdalt	r7, {r0, r1, sl}
    44d8:	03000000 	movweq	r0, #0
    44dc:	00b30708 	adcseq	r0, r3, r8, lsl #14
    44e0:	25040000 	strcs	r0, [r4, #-0]
    44e4:	7a000000 	bvc	44ec <__code_start__-0x3b14>
    44e8:	05000000 	streq	r0, [r0, #-0]
    44ec:	00000025 	andeq	r0, r0, r5, lsr #32
    44f0:	014a0600 	cmpeq	sl, r0, lsl #12
    44f4:	1c020000 	stcne	0, cr0, [r2], {-0}
    44f8:	0000860e 	andeq	r8, r0, lr, lsl #12
    44fc:	6b040700 	blvs	106104 <__bss_end__+0xfb724>
    4500:	04000000 	streq	r0, [r0], #-0
    4504:	00000025 	andeq	r0, r0, r5, lsr #32
    4508:	0000009b 	muleq	r0, fp, r0
    450c:	00009b05 	andeq	r9, r0, r5, lsl #22
    4510:	04070000 	streq	r0, [r7], #-0
    4514:	000000a8 	andeq	r0, r0, r8, lsr #1
    4518:	56080103 	strpl	r0, [r8], -r3, lsl #2
    451c:	08000000 	stmdaeq	r0, {}	; <UNPREDICTABLE>
    4520:	000000a1 	andeq	r0, r0, r1, lsr #1
    4524:	00065906 	andeq	r5, r6, r6, lsl #18
    4528:	0e210200 	cdpeq	2, 2, cr0, cr1, cr0, {0}
    452c:	000000b9 	strheq	r0, [r0], -r9
    4530:	008c0407 	addeq	r0, ip, r7, lsl #8
    4534:	d5090000 	strle	r0, [r9, #-0]
    4538:	01000006 	tsteq	r0, r6
    453c:	010c0703 	tsteq	ip, r3, lsl #14
    4540:	9bc40000 	blls	ff104548 <__bss_end__+0xff0f9b68>
    4544:	00200000 	eoreq	r0, r0, r0
    4548:	9c010000 	stcls	0, cr0, [r1], {-0}
    454c:	0000010c 	andeq	r0, r0, ip, lsl #2
    4550:	0031730a 	eorseq	r7, r1, sl, lsl #6
    4554:	0c150301 	ldceq	3, cr0, [r5], {1}
    4558:	01000001 	tsteq	r0, r1
    455c:	32730b50 	rsbscc	r0, r3, #80, 22	; 0x14000
    4560:	26030100 	strcs	r0, [r3], -r0, lsl #2
    4564:	0000009b 	muleq	r0, fp, r0
    4568:	00001cc3 	andeq	r1, r0, r3, asr #25
    456c:	00001cbd 			; <UNDEFINED> instruction: 0x00001cbd
    4570:	0100730c 	tsteq	r0, ip, lsl #6
    4574:	010c1404 	tsteq	ip, r4, lsl #8
    4578:	1cf40000 	ldclne	0, cr0, [r4]
    457c:	1cee0000 	stclne	0, cr0, [lr]
    4580:	07000000 	streq	r0, [r0, -r0]
    4584:	0000a104 	andeq	sl, r0, r4, lsl #2
    4588:	014e0000 	mrseq	r0, (UNDEF: 78)
    458c:	00040000 	andeq	r0, r4, r0
    4590:	00001843 	andeq	r1, r0, r3, asr #16
    4594:	04ea0104 	strbteq	r0, [sl], #260	; 0x104
    4598:	f90c0000 			; <UNDEFINED> instruction: 0xf90c0000
    459c:	cb00000b 	blgt	45d0 <__code_start__-0x3a30>
    45a0:	a0000005 	andge	r0, r0, r5
    45a4:	00000000 	andeq	r0, r0, r0
    45a8:	ed000000 	stc	0, cr0, [r0, #-0]
    45ac:	02000023 	andeq	r0, r0, #35, 0	; 0x23
    45b0:	6e690504 	cdpvs	5, 6, cr0, cr9, cr4, {0}
    45b4:	b4030074 	strlt	r0, [r3], #-116	; 0xffffff8c
    45b8:	03000005 	movweq	r0, #5
    45bc:	003817d1 	ldrsbteq	r1, [r8], -r1
    45c0:	04040000 	streq	r0, [r4], #-0
    45c4:	0000bd07 	andeq	fp, r0, r7, lsl #26
    45c8:	06010400 	streq	r0, [r1], -r0, lsl #8
    45cc:	0000004f 	andeq	r0, r0, pc, asr #32
    45d0:	56050204 	strpl	r0, [r5], -r4, lsl #4
    45d4:	04000001 	streq	r0, [r0], #-1
    45d8:	01410504 	cmpeq	r1, r4, lsl #10
    45dc:	08040000 	stmdaeq	r4, {}	; <UNPREDICTABLE>
    45e0:	00013c05 	andeq	r3, r1, r5, lsl #24
    45e4:	08010400 	stmdaeq	r1, {sl}
    45e8:	0000004d 	andeq	r0, r0, sp, asr #32
    45ec:	00005b05 	andeq	r5, r0, r5, lsl #22
    45f0:	07020400 	streq	r0, [r2, -r0, lsl #8]
    45f4:	0000005b 	andeq	r0, r0, fp, asr r0
    45f8:	b8070404 	stmdalt	r7, {r2, sl}
    45fc:	04000000 	streq	r0, [r0], #-0
    4600:	00b30708 	adcseq	r0, r3, r8, lsl #14
    4604:	25060000 	strcs	r0, [r6, #-0]
    4608:	8b000000 	blhi	4610 <__code_start__-0x39f0>
    460c:	07000000 	streq	r0, [r0, -r0]
    4610:	00000025 	andeq	r0, r0, r5, lsr #32
    4614:	014a0800 	cmpeq	sl, r0, lsl #16
    4618:	1c020000 	stcne	0, cr0, [r2], {-0}
    461c:	0000970e 	andeq	r9, r0, lr, lsl #14
    4620:	7c040900 			; <UNDEFINED> instruction: 0x7c040900
    4624:	06000000 	streq	r0, [r0], -r0
    4628:	00000025 	andeq	r0, r0, r5, lsr #32
    462c:	000000ac 	andeq	r0, r0, ip, lsr #1
    4630:	0000ac07 	andeq	sl, r0, r7, lsl #24
    4634:	04090000 	streq	r0, [r9], #-0
    4638:	000000b9 	strheq	r0, [r0], -r9
    463c:	56080104 	strpl	r0, [r8], -r4, lsl #2
    4640:	05000000 	streq	r0, [r0, #-0]
    4644:	000000b2 	strheq	r0, [r0], -r2
    4648:	00065908 	andeq	r5, r6, r8, lsl #18
    464c:	0e210200 	cdpeq	2, 2, cr0, cr1, cr0, {0}
    4650:	000000ca 	andeq	r0, r0, sl, asr #1
    4654:	009d0409 	addseq	r0, sp, r9, lsl #8
    4658:	240a0000 	strcs	r0, [sl], #-0
    465c:	01000007 	tsteq	r0, r7
    4660:	00250504 	eoreq	r0, r5, r4, lsl #10
    4664:	9be40000 	blls	ff90466c <__bss_end__+0xff8f9c8c>
    4668:	002c0000 	eoreq	r0, ip, r0
    466c:	9c010000 	stcls	0, cr0, [r1], {-0}
    4670:	0000014b 	andeq	r0, r0, fp, asr #2
    4674:	31735f0b 	cmncc	r3, fp, lsl #30
    4678:	19040100 	stmdbne	r4, {r8}
    467c:	000000ac 	andeq	r0, r0, ip, lsr #1
    4680:	00001d23 	andeq	r1, r0, r3, lsr #26
    4684:	00001d1f 	andeq	r1, r0, pc, lsl sp
    4688:	32735f0b 	rsbscc	r5, r3, #11, 30	; 0x2c
    468c:	2a040100 	bcs	104a94 <__bss_end__+0xfa0b4>
    4690:	000000ac 	andeq	r0, r0, ip, lsr #1
    4694:	00001d48 	andeq	r1, r0, r8, asr #26
    4698:	00001d44 	andeq	r1, r0, r4, asr #26
    469c:	01006e0b 	tsteq	r0, fp, lsl #28
    46a0:	002c3604 	eoreq	r3, ip, r4, lsl #12
    46a4:	1d6f0000 	stclne	0, cr0, [pc, #-0]	; 46ac <__code_start__-0x3954>
    46a8:	1d690000 	stclne	0, cr0, [r9, #-0]
    46ac:	730c0000 	movwvc	r0, #49152	; 0xc000
    46b0:	05010031 	streq	r0, [r1, #-49]	; 0xffffffcf
    46b4:	00014b1a 	andeq	r4, r1, sl, lsl fp
    46b8:	001da200 	andseq	sl, sp, r0, lsl #4
    46bc:	001d9a00 	andseq	r9, sp, r0, lsl #20
    46c0:	32730c00 	rsbscc	r0, r3, #0, 24
    46c4:	2c050100 	stfcss	f0, [r5], {-0}
    46c8:	0000014b 	andeq	r0, r0, fp, asr #2
    46cc:	00001dde 	ldrdeq	r1, [r0], -lr
    46d0:	00001dd8 	ldrdeq	r1, [r0], -r8
    46d4:	62040900 	andvs	r0, r4, #0, 18
    46d8:	00000000 	andeq	r0, r0, r0
    46dc:	000000ce 	andeq	r0, r0, lr, asr #1
    46e0:	18f70004 	ldmne	r7!, {r2}^
    46e4:	01040000 	mrseq	r0, (UNDEF: 4)
    46e8:	000004ea 	andeq	r0, r0, sl, ror #9
    46ec:	000c0a0c 	andeq	r0, ip, ip, lsl #20
    46f0:	0005cb00 	andeq	ip, r5, r0, lsl #22
    46f4:	009c1000 	addseq	r1, ip, r0
    46f8:	00000400 	andeq	r0, r0, r0, lsl #8
    46fc:	00251200 	eoreq	r1, r5, r0, lsl #4
    4700:	05040200 	streq	r0, [r4, #-512]	; 0xfffffe00
    4704:	00746e69 	rsbseq	r6, r4, r9, ror #28
    4708:	bd070403 	cfstrslt	mvf0, [r7, #-12]
    470c:	03000000 	movweq	r0, #0
    4710:	004f0601 	subeq	r0, pc, r1, lsl #12
    4714:	02030000 	andeq	r0, r3, #0, 0
    4718:	00015605 	andeq	r5, r1, r5, lsl #12
    471c:	05040300 	streq	r0, [r4, #-768]	; 0xfffffd00
    4720:	00000141 	andeq	r0, r0, r1, asr #2
    4724:	3c050803 	stccc	8, cr0, [r5], {3}
    4728:	03000001 	movweq	r0, #1
    472c:	004d0801 	subeq	r0, sp, r1, lsl #16
    4730:	02030000 	andeq	r0, r3, #0, 0
    4734:	00005b07 	andeq	r5, r0, r7, lsl #22
    4738:	07040300 	streq	r0, [r4, -r0, lsl #6]
    473c:	000000b8 	strheq	r0, [r0], -r8
    4740:	b3070803 	movwlt	r0, #30723	; 0x7803
    4744:	04000000 	streq	r0, [r0], #-0
    4748:	00000025 	andeq	r0, r0, r5, lsr #32
    474c:	0000007a 	andeq	r0, r0, sl, ror r0
    4750:	00002505 	andeq	r2, r0, r5, lsl #10
    4754:	4a060000 	bmi	18475c <__bss_end__+0x179d7c>
    4758:	02000001 	andeq	r0, r0, #1, 0
    475c:	00860e1c 	addeq	r0, r6, ip, lsl lr
    4760:	04070000 	streq	r0, [r7], #-0
    4764:	0000006b 	andeq	r0, r0, fp, rrx
    4768:	00002504 	andeq	r2, r0, r4, lsl #10
    476c:	00009b00 	andeq	r9, r0, r0, lsl #22
    4770:	009b0500 	addseq	r0, fp, r0, lsl #10
    4774:	07000000 	streq	r0, [r0, -r0]
    4778:	0000a804 	andeq	sl, r0, r4, lsl #16
    477c:	08010300 	stmdaeq	r1, {r8, r9}
    4780:	00000056 	andeq	r0, r0, r6, asr r0
    4784:	0000a108 	andeq	sl, r0, r8, lsl #2
    4788:	06590600 	ldrbeq	r0, [r9], -r0, lsl #12
    478c:	21020000 	mrscs	r0, (UNDEF: 2)
    4790:	0000b90e 	andeq	fp, r0, lr, lsl #18
    4794:	8c040700 	stchi	7, cr0, [r4], {-0}
    4798:	09000000 	stmdbeq	r0, {}	; <UNPREDICTABLE>
    479c:	000007cb 	andeq	r0, r0, fp, asr #15
    47a0:	10060301 	andne	r0, r6, r1, lsl #6
    47a4:	0400009c 	streq	r0, [r0], #-156	; 0xffffff64
    47a8:	01000000 	mrseq	r0, (UNDEF: 0)
    47ac:	03a5009c 			; <UNDEFINED> instruction: 0x03a5009c
    47b0:	00040000 	andeq	r0, r4, r0
    47b4:	00001970 	andeq	r1, r0, r0, ror r9
    47b8:	09a70104 	stmibeq	r7!, {r2, r8}
    47bc:	a90c0000 	stmdbge	ip, {}	; <UNPREDICTABLE>
    47c0:	5700000c 	strpl	r0, [r0, -ip]
    47c4:	2c000009 	stccs	0, cr0, [r0], {9}
    47c8:	1c00009c 	stcne	0, cr0, [r0], {156}	; 0x9c
    47cc:	c6000001 	strgt	r0, [r0], -r1
    47d0:	02000025 	andeq	r0, r0, #37, 0	; 0x25
    47d4:	6e690504 	cdpvs	5, 6, cr0, cr9, cr4, {0}
    47d8:	04030074 	streq	r0, [r3], #-116	; 0xffffff8c
    47dc:	0000bd07 	andeq	fp, r0, r7, lsl #26
    47e0:	002c0400 	eoreq	r0, ip, r0, lsl #8
    47e4:	01030000 	mrseq	r0, (UNDEF: 3)
    47e8:	00004f06 	andeq	r4, r0, r6, lsl #30
    47ec:	05020300 	streq	r0, [r2, #-768]	; 0xfffffd00
    47f0:	00000156 	andeq	r0, r0, r6, asr r1
    47f4:	41050403 	tstmi	r5, r3, lsl #8
    47f8:	03000001 	movweq	r0, #1
    47fc:	013c0508 	teqeq	ip, r8, lsl #10
    4800:	01030000 	mrseq	r0, (UNDEF: 3)
    4804:	00004d08 	andeq	r4, r0, r8, lsl #26
    4808:	07020300 	streq	r0, [r2, -r0, lsl #6]
    480c:	0000005b 	andeq	r0, r0, fp, asr r0
    4810:	00017305 	andeq	r7, r1, r5, lsl #6
    4814:	19340300 	ldmdbne	r4!, {r8, r9}
    4818:	0000006e 	andeq	r0, r0, lr, rrx
    481c:	b8070403 	stmdalt	r7, {r0, r1, sl}
    4820:	03000000 	movweq	r0, #0
    4824:	00b30708 	adcseq	r0, r3, r8, lsl #14
    4828:	01030000 	mrseq	r0, (UNDEF: 3)
    482c:	00005608 	andeq	r5, r0, r8, lsl #12
    4830:	01070600 	tsteq	r7, r0, lsl #12
    4834:	00000054 	andeq	r0, r0, r4, asr r0
    4838:	c20e0c04 	andgt	r0, lr, #4, 24	; 0x400
    483c:	07000000 	streq	r0, [r0, -r0]
    4840:	00000a91 	muleq	r0, r1, sl
    4844:	08c90700 	stmiaeq	r9, {r8, r9, sl}^
    4848:	07010000 	streq	r0, [r1, -r0]
    484c:	0000090c 	andeq	r0, r0, ip, lsl #18
    4850:	091b0704 	ldmdbeq	fp, {r2, r8, r9, sl}
    4854:	07050000 	streq	r0, [r5, -r0]
    4858:	0000092a 	andeq	r0, r0, sl, lsr #18
    485c:	09390706 	ldmdbeq	r9!, {r1, r2, r8, r9, sl}
    4860:	07070000 	streq	r0, [r7, -r0]
    4864:	00000a5a 	andeq	r0, r0, sl, asr sl
    4868:	09480703 	stmdbeq	r8, {r0, r1, r8, r9, sl}^
    486c:	00020000 	andeq	r0, r2, r0
    4870:	000c8e05 	andeq	r8, ip, r5, lsl #28
    4874:	03150400 	tsteq	r5, #0, 8
    4878:	00000083 	andeq	r0, r0, r3, lsl #1
    487c:	000c3908 	andeq	r3, ip, r8, lsl #18
    4880:	171d0100 	ldrne	r0, [sp, -r0, lsl #2]
    4884:	00000033 	andeq	r0, r0, r3, lsr r0
    4888:	2020001c 	eorcs	r0, r0, ip, lsl r0
    488c:	000c2f08 	andeq	r2, ip, r8, lsl #30
    4890:	171e0100 	ldrne	r0, [lr, -r0, lsl #2]
    4894:	00000033 	andeq	r0, r0, r3, lsr r0
    4898:	20200028 	eorcs	r0, r0, r8, lsr #32
    489c:	000c9a08 	andeq	r9, ip, r8, lsl #20
    48a0:	171f0100 	ldrne	r0, [pc, -r0, lsl #2]
    48a4:	00000033 	andeq	r0, r0, r3, lsr r0
    48a8:	20200034 	eorcs	r0, r0, r4, lsr r0
    48ac:	000c5809 	andeq	r5, ip, r9, lsl #16
    48b0:	05550100 	ldrbeq	r0, [r5, #-256]	; 0xffffff00
    48b4:	00000025 	andeq	r0, r0, r5, lsr #32
    48b8:	00009d14 	andeq	r9, r0, r4, lsl sp
    48bc:	00000034 	andeq	r0, r0, r4, lsr r0
    48c0:	016e9c01 	cmneq	lr, r1, lsl #24
    48c4:	700a0000 	andvc	r0, sl, r0
    48c8:	01006e69 	tsteq	r0, r9, ror #28
    48cc:	002c1855 	eoreq	r1, ip, r5, asr r8
    48d0:	1e110000 	cdpne	0, 1, cr0, cr1, cr0, {0}
    48d4:	1e090000 	cdpne	0, 0, cr0, cr9, cr0, {0}
    48d8:	a40b0000 	strge	r0, [fp], #-0
    48dc:	0100000c 	tsteq	r0, ip
    48e0:	002c0e58 	eoreq	r0, ip, r8, asr lr
    48e4:	1e510000 	cdpne	0, 5, cr0, cr1, cr0, {0}
    48e8:	1e4b0000 	cdpne	0, 4, cr0, cr11, cr0, {0}
    48ec:	6f0c0000 	svcvs	0x000c0000
    48f0:	01006666 	tsteq	r0, r6, ror #12
    48f4:	002c0e59 	eoreq	r0, ip, r9, asr lr
    48f8:	1e910000 	cdpne	0, 9, cr0, cr1, cr0, {0}
    48fc:	1e8f0000 	cdpne	0, 8, cr0, cr15, cr0, {0}
    4900:	300d0000 	andcc	r0, sp, r0
    4904:	9000009d 	mulls	r0, sp, r0
    4908:	0e000003 	cdpeq	0, 0, cr0, cr0, cr3, {0}
    490c:	f30b5001 	vhadd.u8	d5, d11, d1
    4910:	25355001 	ldrcs	r5, [r5, #-1]!
    4914:	8080b423 	addhi	fp, r0, r3, lsr #8
    4918:	00000281 	andeq	r0, r0, r1, lsl #5
    491c:	000c430f 	andeq	r4, ip, pc, lsl #6
    4920:	064e0100 	strbeq	r0, [lr], -r0, lsl #2
    4924:	00009cf8 	strdeq	r9, [r0], -r8
    4928:	0000001c 	andeq	r0, r0, ip, lsl r0
    492c:	01c99c01 	biceq	r9, r9, r1, lsl #24
    4930:	700a0000 	andvc	r0, sl, r0
    4934:	01006e69 	tsteq	r0, r9, ror #28
    4938:	002c1a4e 	eoreq	r1, ip, lr, asr #20
    493c:	1eac0000 	cdpne	0, 10, cr0, cr12, cr0, {0}
    4940:	1ea40000 	cdpne	0, 10, cr0, cr4, cr0, {0}
    4944:	760a0000 	strvc	r0, [sl], -r0
    4948:	284e0100 	stmdacs	lr, {r8}^
    494c:	0000002c 	andeq	r0, r0, ip, lsr #32
    4950:	00001eee 	andeq	r1, r0, lr, ror #29
    4954:	00001ee6 	andeq	r1, r0, r6, ror #29
    4958:	009d0810 	addseq	r0, sp, r0, lsl r8
    495c:	00025100 	andeq	r5, r2, r0, lsl #2
    4960:	0001bf00 	andeq	fp, r1, r0, lsl #30
    4964:	50010e00 	andpl	r0, r1, r0, lsl #28
    4968:	5001f303 	andpl	pc, r1, r3, lsl #6
    496c:	9d101100 	ldflss	f1, [r0, #-0]
    4970:	020a0000 	andeq	r0, sl, #0, 0
    4974:	0f000000 	svceq	0x00000000
    4978:	00000c62 	andeq	r0, r0, r2, ror #24
    497c:	e8064901 	stmda	r6, {r0, r8, fp, lr}
    4980:	1000009c 	mulne	r0, ip, r0
    4984:	01000000 	mrseq	r0, (UNDEF: 0)
    4988:	00020a9c 	muleq	r2, ip, sl
    498c:	69700a00 	ldmdbvs	r0!, {r9, fp}^
    4990:	4901006e 	stmdbmi	r1, {r1, r2, r3, r5, r6}
    4994:	00002c1e 	andeq	r2, r0, lr, lsl ip
    4998:	001f2c00 	andseq	r2, pc, r0, lsl #24
    499c:	001f2800 	andseq	r2, pc, r0, lsl #16
    49a0:	9cf40d00 	ldclls	13, cr0, [r4]
    49a4:	02d90000 	sbcseq	r0, r9, #0, 0
    49a8:	010e0000 	mrseq	r0, (UNDEF: 14)
    49ac:	01f30350 	mvnseq	r0, r0, asr r3
    49b0:	51010e50 	tstpl	r1, r0, asr lr
    49b4:	00003001 	andeq	r3, r0, r1
    49b8:	000c710f 	andeq	r7, ip, pc, lsl #2
    49bc:	06420100 	strbeq	r0, [r2], -r0, lsl #2
    49c0:	00009cc4 	andeq	r9, r0, r4, asr #25
    49c4:	00000024 	andeq	r0, r0, r4, lsr #32
    49c8:	02519c01 	subseq	r9, r1, #256	; 0x100
    49cc:	700a0000 	andvc	r0, sl, r0
    49d0:	01006e69 	tsteq	r0, r9, ror #28
    49d4:	002c1c42 	eoreq	r1, ip, r2, asr #24
    49d8:	1f510000 	svcne	0x00510000
    49dc:	1f4d0000 	svcne	0x004d0000
    49e0:	e00d0000 	and	r0, sp, r0
    49e4:	9c00009c 	stcls	0, cr0, [r0], {156}	; 0x9c
    49e8:	0e000003 	cdpeq	0, 0, cr0, cr0, cr3, {0}
    49ec:	0c055001 	stceq	0, cr5, [r5], {1}
    49f0:	20200028 	eorcs	r0, r0, r8, lsr #32
    49f4:	0551010e 	ldrbeq	r0, [r1, #-270]	; 0xfffffef2
    49f8:	5001f331 	andpl	pc, r1, r1, lsr r3	; <UNPREDICTABLE>
    49fc:	0f000024 	svceq	0x00000024
    4a00:	00000cb0 			; <UNDEFINED> instruction: 0x00000cb0
    4a04:	a0063b01 	andge	r3, r6, r1, lsl #22
    4a08:	2400009c 	strcs	r0, [r0], #-156	; 0xffffff64
    4a0c:	01000000 	mrseq	r0, (UNDEF: 0)
    4a10:	0002989c 	muleq	r2, ip, r8
    4a14:	69700a00 	ldmdbvs	r0!, {r9, fp}^
    4a18:	3b01006e 	blcc	44bd8 <__bss_end__+0x3a1f8>
    4a1c:	00002c1b 	andeq	r2, r0, fp, lsl ip
    4a20:	001f7600 	andseq	r7, pc, r0, lsl #12
    4a24:	001f7200 	andseq	r7, pc, r0, lsl #4
    4a28:	9cbc0d00 	ldcls	13, cr0, [ip]
    4a2c:	039c0000 	orrseq	r0, ip, #0, 0
    4a30:	010e0000 	mrseq	r0, (UNDEF: 14)
    4a34:	1c0c0550 	cfstr32ne	mvfx0, [ip], {80}	; 0x50
    4a38:	0e202000 	cdpeq	0, 2, cr2, cr0, cr0, {0}
    4a3c:	31055101 	tstcc	r5, r1, lsl #2
    4a40:	245001f3 	ldrbcs	r0, [r0], #-499	; 0xfffffe0d
    4a44:	7e0f0000 	cdpvc	0, 0, cr0, cr15, cr0, {0}
    4a48:	0100000c 	tsteq	r0, ip
    4a4c:	9c900636 	ldcls	6, cr0, [r0], {54}	; 0x36
    4a50:	00100000 	andseq	r0, r0, r0
    4a54:	9c010000 	stcls	0, cr0, [r1], {-0}
    4a58:	000002d9 	ldrdeq	r0, [r0], -r9
    4a5c:	6e69700a 	cdpvs	0, 6, cr7, cr9, cr10, {0}
    4a60:	1f360100 	svcne	0x00360100
    4a64:	0000002c 	andeq	r0, r0, ip, lsr #32
    4a68:	00001f9b 	muleq	r0, fp, pc	; <UNPREDICTABLE>
    4a6c:	00001f97 	muleq	r0, r7, pc	; <UNPREDICTABLE>
    4a70:	009c9c0d 	addseq	r9, ip, sp, lsl #24
    4a74:	0002d900 	andeq	sp, r2, r0, lsl #18
    4a78:	50010e00 	andpl	r0, r1, r0, lsl #28
    4a7c:	5001f303 	andpl	pc, r1, r3, lsl #6
    4a80:	0151010e 	cmpeq	r1, lr, lsl #2
    4a84:	0f000031 	svceq	0x00000031
    4a88:	00000aa1 	andeq	r0, r0, r1, lsr #21
    4a8c:	2c062801 	stccs	8, cr2, [r6], {1}
    4a90:	6400009c 	strvs	r0, [r0], #-156	; 0xffffff64
    4a94:	01000000 	mrseq	r0, (UNDEF: 0)
    4a98:	0003749c 	muleq	r3, ip, r4
    4a9c:	69700a00 	ldmdbvs	r0!, {r9, fp}^
    4aa0:	2801006e 	stmdacs	r1, {r1, r2, r3, r5, r6}
    4aa4:	00002c21 	andeq	r2, r0, r1, lsr #24
    4aa8:	001fc000 	andseq	ip, pc, r0
    4aac:	001fbc00 	andseq	fp, pc, r0, lsl #24
    4ab0:	00871200 	addeq	r1, r7, r0, lsl #4
    4ab4:	28010000 	stmdacs	r1, {}	; <UNPREDICTABLE>
    4ab8:	0000c232 	andeq	ip, r0, r2, lsr r2
    4abc:	001fe500 	andseq	lr, pc, r0, lsl #10
    4ac0:	001fe100 	andseq	lr, pc, r0, lsl #2
    4ac4:	666f0c00 	strbtvs	r0, [pc], -r0, lsl #24
    4ac8:	2d010066 	stccs	0, cr0, [r1, #-408]	; 0xfffffe68
    4acc:	00002c0e 	andeq	r2, r0, lr, lsl #24
    4ad0:	00200800 	eoreq	r0, r0, r0, lsl #16
    4ad4:	00200600 	eoreq	r0, r0, r0, lsl #12
    4ad8:	00670c00 	rsbeq	r0, r7, r0, lsl #24
    4adc:	2c0e2e01 	stccs	14, cr2, [lr], {1}
    4ae0:	1d000000 	stcne	0, cr0, [r0, #-0]
    4ae4:	1b000020 	blne	4b6c <__code_start__-0x3494>
    4ae8:	0c000020 	stceq	0, cr0, [r0], {32}
    4aec:	30010076 	andcc	r0, r1, r6, ror r0
    4af0:	00002c0e 	andeq	r2, r0, lr, lsl #24
    4af4:	00203800 	eoreq	r3, r0, r0, lsl #16
    4af8:	00203000 	eoreq	r3, r0, r0
    4afc:	9c741000 	ldclls	0, cr1, [r4], #-0
    4b00:	03900000 	orrseq	r0, r0, #0, 0
    4b04:	03630000 	cmneq	r3, #0, 0
    4b08:	010e0000 	mrseq	r0, (UNDEF: 14)
    4b0c:	00760250 	rsbseq	r0, r6, r0, asr r2
    4b10:	9c880d00 	stcls	13, cr0, [r8], {0}
    4b14:	039c0000 	orrseq	r0, ip, #0, 0
    4b18:	010e0000 	mrseq	r0, (UNDEF: 14)
    4b1c:	00760250 	rsbseq	r0, r6, r0, asr r2
    4b20:	4e130000 	cdpmi	0, 1, cr0, cr3, cr0, {0}
    4b24:	0200000c 	andeq	r0, r0, #12, 0
    4b28:	006218b6 	strhteq	r1, [r2], #-134	; 0xffffff7a
    4b2c:	90030000 	andls	r0, r3, r0
    4b30:	14000003 	strne	r0, [r0], #-3
    4b34:	b6020078 			; <UNDEFINED> instruction: 0xb6020078
    4b38:	0000622b 	andeq	r6, r0, fp, lsr #4
    4b3c:	76150000 	ldrvc	r0, [r5], -r0
    4b40:	76000008 	strvc	r0, [r0], -r8
    4b44:	02000008 	andeq	r0, r0, #8, 0
    4b48:	e2150ac7 	ands	r0, r5, #815104	; 0xc7000
    4b4c:	e2000007 	and	r0, r0, #7, 0
    4b50:	02000007 	andeq	r0, r0, #7, 0
    4b54:	Address 0x0000000000004b54 is out of bounds.


Disassembly of section .debug_abbrev:

00000000 <.debug_abbrev>:
       0:	25011101 	strcs	r1, [r1, #-257]	; 0xfffffeff
       4:	030b130e 	movweq	r1, #45838	; 0xb30e
       8:	110e1b0e 	tstne	lr, lr, lsl #22
       c:	10061201 	andne	r1, r6, r1, lsl #4
      10:	02000017 	andeq	r0, r0, #23, 0
      14:	0b0b0024 	bleq	2c00ac <__bss_end__+0x2b56cc>
      18:	08030b3e 	stmdaeq	r3, {r1, r2, r3, r4, r5, r8, r9, fp}
      1c:	24030000 	strcs	r0, [r3], #-0
      20:	3e0b0b00 	vmlacc.f64	d0, d11, d0
      24:	000e030b 	andeq	r0, lr, fp, lsl #6
      28:	00160400 	andseq	r0, r6, r0, lsl #8
      2c:	0b3a0e03 	bleq	e83840 <__bss_end__+0xe78e60>
      30:	0b390b3b 	bleq	e42d24 <__bss_end__+0xe38344>
      34:	00001349 	andeq	r1, r0, r9, asr #6
      38:	27011505 	strcs	r1, [r1, -r5, lsl #10]
      3c:	01134919 	tsteq	r3, r9, lsl r9
      40:	06000013 			; <UNDEFINED> instruction: 0x06000013
      44:	13490005 	movtne	r0, #36869	; 0x9005
      48:	34070000 	strcc	r0, [r7], #-0
      4c:	3a0e0300 	bcc	380c54 <__bss_end__+0x376274>
      50:	390b3b0b 	stmdbcc	fp, {r0, r1, r3, r8, r9, fp, ip, sp}
      54:	3f13490b 	svccc	0x0013490b
      58:	00193c19 	andseq	r3, r9, r9, lsl ip
      5c:	000f0800 	andeq	r0, pc, r0, lsl #16
      60:	13490b0b 	movtne	r0, #39691	; 0x9b0b
      64:	26090000 	strcs	r0, [r9], -r0
      68:	00134900 	andseq	r4, r3, r0, lsl #18
      6c:	01130a00 	tsteq	r3, r0, lsl #20
      70:	0b3a0b0b 	bleq	e82ca4 <__bss_end__+0xe782c4>
      74:	0b390b3b 	bleq	e42d68 <__bss_end__+0xe38388>
      78:	00001301 	andeq	r1, r0, r1, lsl #6
      7c:	03000d0b 	movweq	r0, #3339	; 0xd0b
      80:	3b0b3a0e 	blcc	2ce8c0 <__bss_end__+0x2c3ee0>
      84:	490b390b 	stmdbmi	fp, {r0, r1, r3, r8, fp, ip, sp}
      88:	000b3813 	andeq	r3, fp, r3, lsl r8
      8c:	01130c00 	tsteq	r3, r0, lsl #24
      90:	0b0b0e03 	bleq	2c38a4 <__bss_end__+0x2b8ec4>
      94:	0b3b0b3a 	bleq	ec2d84 <__bss_end__+0xeb83a4>
      98:	13010b39 	movwne	r0, #6969	; 0x1b39
      9c:	340d0000 	strcc	r0, [sp], #-0
      a0:	3a0e0300 	bcc	380ca8 <__bss_end__+0x3762c8>
      a4:	390b3b0b 	stmdbcc	fp, {r0, r1, r3, r8, r9, fp, ip, sp}
      a8:	0013490b 	andseq	r4, r3, fp, lsl #18
      ac:	00340e00 	eorseq	r0, r4, r0, lsl #28
      b0:	0b3a0e03 	bleq	e838c4 <__bss_end__+0xe78ee4>
      b4:	0b390b3b 	bleq	e42da8 <__bss_end__+0xe383c8>
      b8:	0b1c1349 	bleq	704de4 <__bss_end__+0x6fa404>
      bc:	0f0f0000 	svceq	0x000f0000
      c0:	000b0b00 	andeq	r0, fp, r0, lsl #22
      c4:	00341000 	eorseq	r1, r4, r0
      c8:	0b3a0e03 	bleq	e838dc <__bss_end__+0xe78efc>
      cc:	0b390b3b 	bleq	e42dc0 <__bss_end__+0xe383e0>
      d0:	193f1349 	ldmdbne	pc!, {r0, r3, r6, r8, r9, ip}	; <UNPREDICTABLE>
      d4:	00001802 	andeq	r1, r0, r2, lsl #16
      d8:	3f012e11 	svccc	0x00012e11
      dc:	3a0e0319 	bcc	380d48 <__bss_end__+0x376368>
      e0:	390b3b0b 	stmdbcc	fp, {r0, r1, r3, r8, r9, fp, ip, sp}
      e4:	1119270b 	tstne	r9, fp, lsl #14
      e8:	40061201 	andmi	r1, r6, r1, lsl #4
      ec:	19429718 	stmdbne	r2, {r3, r4, r8, r9, sl, ip, pc}^
      f0:	00001301 	andeq	r1, r0, r1, lsl #6
      f4:	01828912 	orreq	r8, r2, r2, lsl r9
      f8:	31011101 	tstcc	r1, r1, lsl #2
      fc:	00130113 	andseq	r0, r3, r3, lsl r1
     100:	828a1300 	addhi	r1, sl, #0, 6
     104:	18020001 	stmdane	r2, {r0}
     108:	00184291 	mulseq	r8, r1, r2
     10c:	82891400 	addhi	r1, r9, #0, 8
     110:	01110001 	tsteq	r1, r1
     114:	00001331 	andeq	r1, r0, r1, lsr r3
     118:	01828915 	orreq	r8, r2, r5, lsl r9
     11c:	31011101 	tstcc	r1, r1, lsl #2
     120:	16000013 			; <UNDEFINED> instruction: 0x16000013
     124:	193f012e 	ldmdbne	pc!, {r1, r2, r3, r5, r8}	; <UNPREDICTABLE>
     128:	0b3a0e03 	bleq	e8393c <__bss_end__+0xe78f5c>
     12c:	0b390b3b 	bleq	e42e20 <__bss_end__+0xe38440>
     130:	13491927 	movtne	r1, #39207	; 0x9927
     134:	06120111 			; <UNDEFINED> instruction: 0x06120111
     138:	42971840 	addsmi	r1, r7, #64, 16	; 0x400000
     13c:	00130119 	andseq	r0, r3, r9, lsl r1
     140:	00341700 	eorseq	r1, r4, r0, lsl #14
     144:	13490e03 	movtne	r0, #40451	; 0x9e03
     148:	18021934 	stmdane	r2, {r2, r4, r5, r8, fp, ip}
     14c:	34180000 	ldrcc	r0, [r8], #-0
     150:	3a080300 	bcc	200d58 <__bss_end__+0x1f6378>
     154:	390b3b0b 	stmdbcc	fp, {r0, r1, r3, r8, r9, fp, ip, sp}
     158:	0213490b 	andseq	r4, r3, #180224	; 0x2c000
     15c:	1742b717 	smlaldne	fp, r2, r7, r7
     160:	1d190000 	ldcne	0, cr0, [r9, #-0]
     164:	52133101 	andspl	r3, r3, #1073741824	; 0x40000000
     168:	0b42b801 	bleq	10ae174 <__bss_end__+0x10a3794>
     16c:	06120111 			; <UNDEFINED> instruction: 0x06120111
     170:	0b590b58 	bleq	1642ed8 <__bss_end__+0x16384f8>
     174:	13010b57 	movwne	r0, #6999	; 0x1b57
     178:	051a0000 	ldreq	r0, [sl, #-0]
     17c:	02133100 	andseq	r3, r3, #0
     180:	1742b717 	smlaldne	fp, r2, r7, r7
     184:	011b0000 	tsteq	fp, r0
     188:	01134901 	tsteq	r3, r1, lsl #18
     18c:	1c000013 	stcne	0, cr0, [r0], {19}
     190:	13490021 	movtne	r0, #36897	; 0x9021
     194:	00000b2f 	andeq	r0, r0, pc, lsr #22
     198:	03012e1d 	movweq	r2, #7709	; 0x1e1d
     19c:	3b0b3a0e 	blcc	2ce9dc <__bss_end__+0x2c3ffc>
     1a0:	270b390b 	strcs	r3, [fp, -fp, lsl #18]
     1a4:	20134919 	andscs	r4, r3, r9, lsl r9
     1a8:	0013010b 	andseq	r0, r3, fp, lsl #2
     1ac:	00051e00 	andeq	r1, r5, r0, lsl #28
     1b0:	0b3a0e03 	bleq	e839c4 <__bss_end__+0xe78fe4>
     1b4:	0b390b3b 	bleq	e42ea8 <__bss_end__+0xe384c8>
     1b8:	00001349 	andeq	r1, r0, r9, asr #6
     1bc:	3f002e1f 	svccc	0x00002e1f
     1c0:	6e193c19 	mrcvs	12, 0, r3, cr9, cr9, {0}
     1c4:	3a0e030e 	bcc	380e04 <__bss_end__+0x376424>
     1c8:	390b3b0b 	stmdbcc	fp, {r0, r1, r3, r8, r9, fp, ip, sp}
     1cc:	2000000b 	andcs	r0, r0, fp
     1d0:	18020036 	stmdane	r2, {r1, r2, r4, r5}
     1d4:	01000000 	mrseq	r0, (UNDEF: 0)
     1d8:	0e250111 	mcreq	1, 1, r0, cr5, cr1, {0}
     1dc:	0e030b13 	vmoveq.32	d3[0], r0
     1e0:	01110e1b 	tsteq	r1, fp, lsl lr
     1e4:	17100612 			; <UNDEFINED> instruction: 0x17100612
     1e8:	24020000 	strcs	r0, [r2], #-0
     1ec:	3e0b0b00 	vmlacc.f64	d0, d11, d0
     1f0:	0008030b 	andeq	r0, r8, fp, lsl #6
     1f4:	00240300 	eoreq	r0, r4, r0, lsl #6
     1f8:	0b3e0b0b 	bleq	f82e2c <__bss_end__+0xf7844c>
     1fc:	00000e03 	andeq	r0, r0, r3, lsl #28
     200:	03001604 	movweq	r1, #1540	; 0x604
     204:	3b0b3a0e 	blcc	2cea44 <__bss_end__+0x2c4064>
     208:	490b390b 	stmdbmi	fp, {r0, r1, r3, r8, fp, ip, sp}
     20c:	05000013 	streq	r0, [r0, #-19]	; 0xffffffed
     210:	19270115 	stmdbne	r7!, {r0, r2, r4, r8}
     214:	13011349 	movwne	r1, #4937	; 0x1349
     218:	05060000 	streq	r0, [r6, #-0]
     21c:	00134900 	andseq	r4, r3, r0, lsl #18
     220:	00340700 	eorseq	r0, r4, r0, lsl #14
     224:	0b3a0e03 	bleq	e83a38 <__bss_end__+0xe79058>
     228:	0b390b3b 	bleq	e42f1c <__bss_end__+0xe3853c>
     22c:	193f1349 	ldmdbne	pc!, {r0, r3, r6, r8, r9, ip}	; <UNPREDICTABLE>
     230:	0000193c 	andeq	r1, r0, ip, lsr r9
     234:	0b000f08 	bleq	3e5c <__code_start__-0x41a4>
     238:	0013490b 	andseq	r4, r3, fp, lsl #18
     23c:	00260900 	eoreq	r0, r6, r0, lsl #18
     240:	00001349 	andeq	r1, r0, r9, asr #6
     244:	0b01130a 	bleq	44e74 <__bss_end__+0x3a494>
     248:	3b0b3a0b 	blcc	2cea7c <__bss_end__+0x2c409c>
     24c:	010b390b 	tsteq	fp, fp, lsl #18
     250:	0b000013 	bleq	2a4 <__code_start__-0x7d5c>
     254:	0e03000d 	cdpeq	0, 0, cr0, cr3, cr13, {0}
     258:	0b3b0b3a 	bleq	ec2f48 <__bss_end__+0xeb8568>
     25c:	13490b39 	movtne	r0, #39737	; 0x9b39
     260:	00000b38 	andeq	r0, r0, r8, lsr fp
     264:	3e01040c 	cdpcc	4, 0, cr0, cr1, cr12, {0}
     268:	490b0b0b 	stmdbmi	fp, {r0, r1, r3, r8, r9, fp}
     26c:	3b0b3a13 	blcc	2ceac0 <__bss_end__+0x2c40e0>
     270:	010b390b 	tsteq	fp, fp, lsl #18
     274:	0d000013 	stceq	0, cr0, [r0, #-76]	; 0xffffffb4
     278:	0e030028 	cdpeq	0, 0, cr0, cr3, cr8, {1}
     27c:	00000b1c 	andeq	r0, r0, ip, lsl fp
     280:	0301130e 	movweq	r1, #4878	; 0x130e
     284:	3a0b0b0e 	bcc	2c2ec4 <__bss_end__+0x2b84e4>
     288:	390b3b0b 	stmdbcc	fp, {r0, r1, r3, r8, r9, fp, ip, sp}
     28c:	0013010b 	andseq	r0, r3, fp, lsl #2
     290:	00340f00 	eorseq	r0, r4, r0, lsl #30
     294:	0b3a0e03 	bleq	e83aa8 <__bss_end__+0xe790c8>
     298:	0b390b3b 	bleq	e42f8c <__bss_end__+0xe385ac>
     29c:	18021349 	stmdane	r2, {r0, r3, r6, r8, r9, ip}
     2a0:	0f100000 	svceq	0x00100000
     2a4:	000b0b00 	andeq	r0, fp, r0, lsl #22
     2a8:	012e1100 			; <UNDEFINED> instruction: 0x012e1100
     2ac:	0e03193f 			; <UNDEFINED> instruction: 0x0e03193f
     2b0:	0b3b0b3a 	bleq	ec2fa0 <__bss_end__+0xeb85c0>
     2b4:	19270b39 	stmdbne	r7!, {r0, r3, r4, r5, r8, r9, fp}
     2b8:	01111349 	tsteq	r1, r9, asr #6
     2bc:	18400612 	stmdane	r0, {r1, r4, r9, sl}^
     2c0:	01194297 			; <UNDEFINED> instruction: 0x01194297
     2c4:	12000013 	andne	r0, r0, #19, 0
     2c8:	0e030005 	cdpeq	0, 0, cr0, cr3, cr5, {0}
     2cc:	0b3b0b3a 	bleq	ec2fbc <__bss_end__+0xeb85dc>
     2d0:	13490b39 	movtne	r0, #39737	; 0x9b39
     2d4:	42b71702 	adcsmi	r1, r7, #524288	; 0x80000
     2d8:	13000017 	movwne	r0, #23
     2dc:	08030005 	stmdaeq	r3, {r0, r2}
     2e0:	0b3b0b3a 	bleq	ec2fd0 <__bss_end__+0xeb85f0>
     2e4:	13490b39 	movtne	r0, #39737	; 0x9b39
     2e8:	00001802 	andeq	r1, r0, r2, lsl #16
     2ec:	03003414 	movweq	r3, #1044	; 0x414
     2f0:	3b0b3a08 	blcc	2ceb18 <__bss_end__+0x2c4138>
     2f4:	490b390b 	stmdbmi	fp, {r0, r1, r3, r8, fp, ip, sp}
     2f8:	b7170213 			; <UNDEFINED> instruction: 0xb7170213
     2fc:	00001742 	andeq	r1, r0, r2, asr #14
     300:	01828915 	orreq	r8, r2, r5, lsl r9
     304:	31011101 	tstcc	r1, r1, lsl #2
     308:	00130113 	andseq	r0, r3, r3, lsl r1
     30c:	828a1600 	addhi	r1, sl, #0, 12
     310:	18020001 	stmdane	r2, {r0}
     314:	00184291 	mulseq	r8, r1, r2
     318:	82891700 	addhi	r1, r9, #0, 14
     31c:	01110101 	tsteq	r1, r1, lsl #2
     320:	00001331 	andeq	r1, r0, r1, lsr r3
     324:	3f012e18 	svccc	0x00012e18
     328:	3a0e0319 	bcc	380f94 <__bss_end__+0x3765b4>
     32c:	390b3b0b 	stmdbcc	fp, {r0, r1, r3, r8, r9, fp, ip, sp}
     330:	1119270b 	tstne	r9, fp, lsl #14
     334:	40061201 	andmi	r1, r6, r1, lsl #4
     338:	19429718 	stmdbne	r2, {r3, r4, r8, r9, sl, ip, pc}^
     33c:	00001301 	andeq	r1, r0, r1, lsl #6
     340:	03003419 	movweq	r3, #1049	; 0x419
     344:	3413490e 	ldrcc	r4, [r3], #-2318	; 0xfffff6f2
     348:	00180219 	andseq	r0, r8, r9, lsl r2
     34c:	82891a00 	addhi	r1, r9, #0, 20
     350:	01110001 	tsteq	r1, r1
     354:	00001331 	andeq	r1, r0, r1, lsr r3
     358:	4901011b 	stmdbmi	r1, {r0, r1, r3, r4, r8}
     35c:	00130113 	andseq	r0, r3, r3, lsl r1
     360:	00211c00 	eoreq	r1, r1, r0, lsl #24
     364:	0b2f1349 	bleq	bc5090 <__bss_end__+0xbba6b0>
     368:	051d0000 	ldreq	r0, [sp, #-0]
     36c:	3a080300 	bcc	200f74 <__bss_end__+0x1f6594>
     370:	390b3b0b 	stmdbcc	fp, {r0, r1, r3, r8, r9, fp, ip, sp}
     374:	0213490b 	andseq	r4, r3, #180224	; 0x2c000
     378:	1742b717 	smlaldne	fp, r2, r7, r7
     37c:	0b1e0000 	bleq	780384 <__bss_end__+0x7759a4>
     380:	12011101 	andne	r1, r1, #1073741824	; 0x40000000
     384:	1f000006 	svcne	0x00000006
     388:	0e030034 	mcreq	0, 0, r0, cr3, cr4, {1}
     38c:	0b3b0b3a 	bleq	ec307c <__bss_end__+0xeb869c>
     390:	13490b39 	movtne	r0, #39737	; 0x9b39
     394:	42b71702 	adcsmi	r1, r7, #524288	; 0x80000
     398:	20000017 	andcs	r0, r0, r7, lsl r0
     39c:	1331011d 	teqne	r1, #1073741831	; 0x40000007
     3a0:	42b80152 	adcsmi	r0, r8, #-2147483628	; 0x80000014
     3a4:	1201110b 	andne	r1, r1, #-1073741822	; 0xc0000002
     3a8:	590b5806 	stmdbpl	fp, {r1, r2, fp, ip, lr}
     3ac:	010b570b 	tsteq	fp, fp, lsl #14
     3b0:	21000013 	tstcs	r0, r3, lsl r0
     3b4:	13310005 	teqne	r1, #5, 0
     3b8:	42b71702 	adcsmi	r1, r7, #524288	; 0x80000
     3bc:	22000017 	andcs	r0, r0, #23, 0
     3c0:	193f002e 	ldmdbne	pc!, {r1, r2, r3, r5}	; <UNPREDICTABLE>
     3c4:	0b3a0e03 	bleq	e83bd8 <__bss_end__+0xe791f8>
     3c8:	0b390b3b 	bleq	e430bc <__bss_end__+0xe386dc>
     3cc:	13491927 	movtne	r1, #39207	; 0x9927
     3d0:	06120111 			; <UNDEFINED> instruction: 0x06120111
     3d4:	42971840 	addsmi	r1, r7, #64, 16	; 0x400000
     3d8:	23000019 	movwcs	r0, #25
     3dc:	0e03012e 	adfeqsp	f0, f3, #0.5
     3e0:	0b3b0b3a 	bleq	ec30d0 <__bss_end__+0xeb86f0>
     3e4:	19270b39 	stmdbne	r7!, {r0, r3, r4, r5, r8, r9, fp}
     3e8:	06120111 			; <UNDEFINED> instruction: 0x06120111
     3ec:	42971840 	addsmi	r1, r7, #64, 16	; 0x400000
     3f0:	00130119 	andseq	r0, r3, r9, lsl r1
     3f4:	010b2400 	tsteq	fp, r0, lsl #8
     3f8:	00001755 	andeq	r1, r0, r5, asr r7
     3fc:	03012e25 	movweq	r2, #7717	; 0x1e25
     400:	3b0b3a0e 	blcc	2cec40 <__bss_end__+0x2c4260>
     404:	270b390b 	strcs	r3, [fp, -fp, lsl #18]
     408:	20134919 	andscs	r4, r3, r9, lsl r9
     40c:	0013010b 	andseq	r0, r3, fp, lsl #2
     410:	00052600 	andeq	r2, r5, r0, lsl #12
     414:	0b3a0803 	bleq	e82428 <__bss_end__+0xe77a48>
     418:	0b390b3b 	bleq	e4310c <__bss_end__+0xe3872c>
     41c:	00001349 	andeq	r1, r0, r9, asr #6
     420:	3f002e27 	svccc	0x00002e27
     424:	6e193c19 	mrcvs	12, 0, r3, cr9, cr9, {0}
     428:	3a0e030e 	bcc	381068 <__bss_end__+0x376688>
     42c:	390b3b0b 	stmdbcc	fp, {r0, r1, r3, r8, r9, fp, ip, sp}
     430:	0000000b 	andeq	r0, r0, fp
     434:	25011101 	strcs	r1, [r1, #-257]	; 0xfffffeff
     438:	030b130e 	movweq	r1, #45838	; 0xb30e
     43c:	110e1b0e 	tstne	lr, lr, lsl #22
     440:	10061201 	andne	r1, r6, r1, lsl #4
     444:	02000017 	andeq	r0, r0, #23, 0
     448:	0b0b0024 	bleq	2c04e0 <__bss_end__+0x2b5b00>
     44c:	08030b3e 	stmdaeq	r3, {r1, r2, r3, r4, r5, r8, r9, fp}
     450:	24030000 	strcs	r0, [r3], #-0
     454:	3e0b0b00 	vmlacc.f64	d0, d11, d0
     458:	000e030b 	andeq	r0, lr, fp, lsl #6
     45c:	00260400 	eoreq	r0, r6, r0, lsl #8
     460:	00001349 	andeq	r1, r0, r9, asr #6
     464:	03001605 	movweq	r1, #1541	; 0x605
     468:	3b0b3a0e 	blcc	2ceca8 <__bss_end__+0x2c42c8>
     46c:	490b390b 	stmdbmi	fp, {r0, r1, r3, r8, fp, ip, sp}
     470:	06000013 			; <UNDEFINED> instruction: 0x06000013
     474:	19270115 	stmdbne	r7!, {r0, r2, r4, r8}
     478:	13011349 	movwne	r1, #4937	; 0x1349
     47c:	05070000 	streq	r0, [r7, #-0]
     480:	00134900 	andseq	r4, r3, r0, lsl #18
     484:	00340800 	eorseq	r0, r4, r0, lsl #16
     488:	0b3a0e03 	bleq	e83c9c <__bss_end__+0xe792bc>
     48c:	0b390b3b 	bleq	e43180 <__bss_end__+0xe387a0>
     490:	193f1349 	ldmdbne	pc!, {r0, r3, r6, r8, r9, ip}	; <UNPREDICTABLE>
     494:	0000193c 	andeq	r1, r0, ip, lsr r9
     498:	0b000f09 	bleq	40c4 <__code_start__-0x3f3c>
     49c:	0013490b 	andseq	r4, r3, fp, lsl #18
     4a0:	01130a00 	tsteq	r3, r0, lsl #20
     4a4:	0b3a0b0b 	bleq	e830d8 <__bss_end__+0xe786f8>
     4a8:	0b390b3b 	bleq	e4319c <__bss_end__+0xe387bc>
     4ac:	00001301 	andeq	r1, r0, r1, lsl #6
     4b0:	03000d0b 	movweq	r0, #3339	; 0xd0b
     4b4:	3b0b3a0e 	blcc	2cecf4 <__bss_end__+0x2c4314>
     4b8:	490b390b 	stmdbmi	fp, {r0, r1, r3, r8, fp, ip, sp}
     4bc:	000b3813 	andeq	r3, fp, r3, lsl r8
     4c0:	01040c00 	tsteq	r4, r0, lsl #24
     4c4:	0b0b0b3e 	bleq	2c31c4 <__bss_end__+0x2b87e4>
     4c8:	0b3a1349 	bleq	e851f4 <__bss_end__+0xe7a814>
     4cc:	0b390b3b 	bleq	e431c0 <__bss_end__+0xe387e0>
     4d0:	00001301 	andeq	r1, r0, r1, lsl #6
     4d4:	0300280d 	movweq	r2, #2061	; 0x80d
     4d8:	000b1c0e 	andeq	r1, fp, lr, lsl #24
     4dc:	01130e00 	tsteq	r3, r0, lsl #28
     4e0:	0b0b0e03 	bleq	2c3cf4 <__bss_end__+0x2b9314>
     4e4:	0b3b0b3a 	bleq	ec31d4 <__bss_end__+0xeb87f4>
     4e8:	13010b39 	movwne	r0, #6969	; 0x1b39
     4ec:	340f0000 	strcc	r0, [pc], #-0	; 4f4 <__code_start__-0x7b0c>
     4f0:	3a0e0300 	bcc	3810f8 <__bss_end__+0x376718>
     4f4:	390b3b0b 	stmdbcc	fp, {r0, r1, r3, r8, r9, fp, ip, sp}
     4f8:	0013490b 	andseq	r4, r3, fp, lsl #18
     4fc:	00341000 	eorseq	r1, r4, r0
     500:	0b3a0e03 	bleq	e83d14 <__bss_end__+0xe79334>
     504:	0b390b3b 	bleq	e431f8 <__bss_end__+0xe38818>
     508:	0b1c1349 	bleq	705234 <__bss_end__+0x6fa854>
     50c:	0f110000 	svceq	0x00110000
     510:	000b0b00 	andeq	r0, fp, r0, lsl #22
     514:	00341200 	eorseq	r1, r4, r0, lsl #4
     518:	0b3a0e03 	bleq	e83d2c <__bss_end__+0xe7934c>
     51c:	0b390b3b 	bleq	e43210 <__bss_end__+0xe38830>
     520:	18021349 	stmdane	r2, {r0, r3, r6, r8, r9, ip}
     524:	2e130000 	cdpcs	0, 1, cr0, cr3, cr0, {0}
     528:	03193f01 	tsteq	r9, #1, 30
     52c:	3b0b3a0e 	blcc	2ced6c <__bss_end__+0x2c438c>
     530:	270b390b 	strcs	r3, [fp, -fp, lsl #18]
     534:	12011119 	andne	r1, r1, #1073741830	; 0x40000006
     538:	97184006 	ldrls	r4, [r8, -r6]
     53c:	13011942 	movwne	r1, #6466	; 0x1942
     540:	34140000 	ldrcc	r0, [r4], #-0
     544:	490e0300 	stmdbmi	lr, {r8, r9}
     548:	02193413 	andseq	r3, r9, #318767104	; 0x13000000
     54c:	15000018 	strne	r0, [r0, #-24]	; 0xffffffe8
     550:	01018289 	smlabbeq	r1, r9, r2, r8
     554:	13310111 	teqne	r1, #1073741828	; 0x40000004
     558:	00001301 	andeq	r1, r0, r1, lsl #6
     55c:	01828a16 	orreq	r8, r2, r6, lsl sl
     560:	91180200 	tstls	r8, r0, lsl #4
     564:	00001842 	andeq	r1, r0, r2, asr #16
     568:	01828917 	orreq	r8, r2, r7, lsl r9
     56c:	31011100 	mrscc	r1, (UNDEF: 17)
     570:	18000013 	stmdane	r0, {r0, r1, r4}
     574:	13490101 	movtne	r0, #37121	; 0x9101
     578:	00001301 	andeq	r1, r0, r1, lsl #6
     57c:	49002119 	stmdbmi	r0, {r0, r3, r4, r8, sp}
     580:	000b2f13 	andeq	r2, fp, r3, lsl pc
     584:	012e1a00 			; <UNDEFINED> instruction: 0x012e1a00
     588:	0e03193f 			; <UNDEFINED> instruction: 0x0e03193f
     58c:	0b3b0b3a 	bleq	ec327c <__bss_end__+0xeb889c>
     590:	19270b39 	stmdbne	r7!, {r0, r3, r4, r5, r8, r9, fp}
     594:	01111349 	tsteq	r1, r9, asr #6
     598:	18400612 	stmdane	r0, {r1, r4, r9, sl}^
     59c:	01194297 			; <UNDEFINED> instruction: 0x01194297
     5a0:	1b000013 	blne	5f4 <__code_start__-0x7a0c>
     5a4:	0e030034 	mcreq	0, 0, r0, cr3, cr4, {1}
     5a8:	0b3b0b3a 	bleq	ec3298 <__bss_end__+0xeb88b8>
     5ac:	13490b39 	movtne	r0, #39737	; 0x9b39
     5b0:	42b71702 	adcsmi	r1, r7, #524288	; 0x80000
     5b4:	1c000017 	stcne	0, cr0, [r0], {23}
     5b8:	0e03012e 	adfeqsp	f0, f3, #0.5
     5bc:	0b3b0b3a 	bleq	ec32ac <__bss_end__+0xeb88cc>
     5c0:	19270b39 	stmdbne	r7!, {r0, r3, r4, r5, r8, r9, fp}
     5c4:	01111349 	tsteq	r1, r9, asr #6
     5c8:	18400612 	stmdane	r0, {r1, r4, r9, sl}^
     5cc:	01194297 			; <UNDEFINED> instruction: 0x01194297
     5d0:	1d000013 	stcne	0, cr0, [r0, #-76]	; 0xffffffb4
     5d4:	01018289 	smlabbeq	r1, r9, r2, r8
     5d8:	13310111 	teqne	r1, #1073741828	; 0x40000004
     5dc:	051e0000 	ldreq	r0, [lr, #-0]
     5e0:	3a0e0300 	bcc	3811e8 <__bss_end__+0x376808>
     5e4:	390b3b0b 	stmdbcc	fp, {r0, r1, r3, r8, r9, fp, ip, sp}
     5e8:	0213490b 	andseq	r4, r3, #180224	; 0x2c000
     5ec:	1742b717 	smlaldne	fp, r2, r7, r7
     5f0:	2e1f0000 	cdpcs	0, 1, cr0, cr15, cr0, {0}
     5f4:	3a0e0301 	bcc	381200 <__bss_end__+0x376820>
     5f8:	390b3b0b 	stmdbcc	fp, {r0, r1, r3, r8, r9, fp, ip, sp}
     5fc:	1119270b 	tstne	r9, fp, lsl #14
     600:	40061201 	andmi	r1, r6, r1, lsl #4
     604:	19429718 	stmdbne	r2, {r3, r4, r8, r9, sl, ip, pc}^
     608:	00001301 	andeq	r1, r0, r1, lsl #6
     60c:	03003420 	movweq	r3, #1056	; 0x420
     610:	3413490e 	ldrcc	r4, [r3], #-2318	; 0xfffff6f2
     614:	21000019 	tstcs	r0, r9, lsl r0
     618:	0e030034 	mcreq	0, 0, r0, cr3, cr4, {1}
     61c:	0b3b0b3a 	bleq	ec330c <__bss_end__+0xeb892c>
     620:	13490b39 	movtne	r0, #39737	; 0x9b39
     624:	0000061c 	andeq	r0, r0, ip, lsl r6
     628:	11010b22 	tstne	r1, r2, lsr #22
     62c:	01061201 	tsteq	r6, r1, lsl #4
     630:	23000013 	movwcs	r0, #19
     634:	08030034 	stmdaeq	r3, {r2, r4, r5}
     638:	0b3b0b3a 	bleq	ec3328 <__bss_end__+0xeb8948>
     63c:	13490b39 	movtne	r0, #39737	; 0x9b39
     640:	42b71702 	adcsmi	r1, r7, #524288	; 0x80000
     644:	24000017 	strcs	r0, [r0], #-23	; 0xffffffe9
     648:	08030005 	stmdaeq	r3, {r0, r2}
     64c:	0b3b0b3a 	bleq	ec333c <__bss_end__+0xeb895c>
     650:	13490b39 	movtne	r0, #39737	; 0x9b39
     654:	42b71702 	adcsmi	r1, r7, #524288	; 0x80000
     658:	25000017 	strcs	r0, [r0, #-23]	; 0xffffffe9
     65c:	1755010b 	ldrbne	r0, [r5, -fp, lsl #2]
     660:	00001301 	andeq	r1, r0, r1, lsl #6
     664:	55010b26 	strpl	r0, [r1, #-2854]	; 0xfffff4da
     668:	27000017 	smladcs	r0, r7, r0, r0
     66c:	193f002e 	ldmdbne	pc!, {r1, r2, r3, r5}	; <UNPREDICTABLE>
     670:	0e6e193c 			; <UNDEFINED> instruction: 0x0e6e193c
     674:	0b3a0e03 	bleq	e83e88 <__bss_end__+0xe794a8>
     678:	0b390b3b 	bleq	e4336c <__bss_end__+0xe3898c>
     67c:	01000000 	mrseq	r0, (UNDEF: 0)
     680:	0e250111 	mcreq	1, 1, r0, cr5, cr1, {0}
     684:	0e030b13 	vmoveq.32	d3[0], r0
     688:	01110e1b 	tsteq	r1, fp, lsl lr
     68c:	17100612 			; <UNDEFINED> instruction: 0x17100612
     690:	24020000 	strcs	r0, [r2], #-0
     694:	3e0b0b00 	vmlacc.f64	d0, d11, d0
     698:	0008030b 	andeq	r0, r8, fp, lsl #6
     69c:	00240300 	eoreq	r0, r4, r0, lsl #6
     6a0:	0b3e0b0b 	bleq	f832d4 <__bss_end__+0xf788f4>
     6a4:	00000e03 	andeq	r0, r0, r3, lsl #28
     6a8:	27011504 	strcs	r1, [r1, -r4, lsl #10]
     6ac:	01134919 	tsteq	r3, r9, lsl r9
     6b0:	05000013 	streq	r0, [r0, #-19]	; 0xffffffed
     6b4:	13490005 	movtne	r0, #36869	; 0x9005
     6b8:	34060000 	strcc	r0, [r6], #-0
     6bc:	3a0e0300 	bcc	3812c4 <__bss_end__+0x3768e4>
     6c0:	390b3b0b 	stmdbcc	fp, {r0, r1, r3, r8, r9, fp, ip, sp}
     6c4:	3f13490b 	svccc	0x0013490b
     6c8:	00193c19 	andseq	r3, r9, r9, lsl ip
     6cc:	000f0700 	andeq	r0, pc, r0, lsl #14
     6d0:	13490b0b 	movtne	r0, #39691	; 0x9b0b
     6d4:	26080000 	strcs	r0, [r8], -r0
     6d8:	00134900 	andseq	r4, r3, r0, lsl #18
     6dc:	01170900 	tsteq	r7, r0, lsl #18
     6e0:	0b0b0e03 	bleq	2c3ef4 <__bss_end__+0x2b9514>
     6e4:	0b3b0b3a 	bleq	ec33d4 <__bss_end__+0xeb89f4>
     6e8:	13010b39 	movwne	r0, #6969	; 0x1b39
     6ec:	0d0a0000 	stceq	0, cr0, [sl, #-0]
     6f0:	3a080300 	bcc	2012f8 <__bss_end__+0x1f6918>
     6f4:	390b3b0b 	stmdbcc	fp, {r0, r1, r3, r8, r9, fp, ip, sp}
     6f8:	0013490b 	andseq	r4, r3, fp, lsl #18
     6fc:	000f0b00 	andeq	r0, pc, r0, lsl #22
     700:	00000b0b 	andeq	r0, r0, fp, lsl #22
     704:	2700150c 	strcs	r1, [r0, -ip, lsl #10]
     708:	0d000019 	stceq	0, cr0, [r0, #-100]	; 0xffffff9c
     70c:	0b0b0113 	bleq	2c0b60 <__bss_end__+0x2b6180>
     710:	0b3b0b3a 	bleq	ec3400 <__bss_end__+0xeb8a20>
     714:	13010b39 	movwne	r0, #6969	; 0x1b39
     718:	0d0e0000 	stceq	0, cr0, [lr, #-0]
     71c:	3a080300 	bcc	201324 <__bss_end__+0x1f6944>
     720:	390b3b0b 	stmdbcc	fp, {r0, r1, r3, r8, r9, fp, ip, sp}
     724:	3813490b 	ldmdacc	r3, {r0, r1, r3, r8, fp, lr}
     728:	0f00000b 	svceq	0x0000000b
     72c:	0e03000d 	cdpeq	0, 0, cr0, cr3, cr13, {0}
     730:	0b3b0b3a 	bleq	ec3420 <__bss_end__+0xeb8a40>
     734:	13490b39 	movtne	r0, #39737	; 0x9b39
     738:	00000b38 	andeq	r0, r0, r8, lsr fp
     73c:	03001610 	movweq	r1, #1552	; 0x610
     740:	3b0b3a0e 	blcc	2cef80 <__bss_end__+0x2c45a0>
     744:	490b390b 	stmdbmi	fp, {r0, r1, r3, r8, fp, ip, sp}
     748:	11000013 	tstne	r0, r3, lsl r0
     74c:	0e030034 	mcreq	0, 0, r0, cr3, cr4, {1}
     750:	0b3b0b3a 	bleq	ec3440 <__bss_end__+0xeb8a60>
     754:	13490b39 	movtne	r0, #39737	; 0x9b39
     758:	00001802 	andeq	r1, r0, r2, lsl #16
     75c:	3f012e12 	svccc	0x00012e12
     760:	3a0e0319 	bcc	3813cc <__bss_end__+0x3769ec>
     764:	390b3b0b 	stmdbcc	fp, {r0, r1, r3, r8, r9, fp, ip, sp}
     768:	1119270b 	tstne	r9, fp, lsl #14
     76c:	40061201 	andmi	r1, r6, r1, lsl #4
     770:	19429718 	stmdbne	r2, {r3, r4, r8, r9, sl, ip, pc}^
     774:	00001301 	andeq	r1, r0, r1, lsl #6
     778:	03000513 	movweq	r0, #1299	; 0x513
     77c:	3b0b3a08 	blcc	2cefa4 <__bss_end__+0x2c45c4>
     780:	490b390b 	stmdbmi	fp, {r0, r1, r3, r8, fp, ip, sp}
     784:	00180213 	andseq	r0, r8, r3, lsl r2
     788:	00341400 	eorseq	r1, r4, r0, lsl #8
     78c:	0b3a0803 	bleq	e827a0 <__bss_end__+0xe77dc0>
     790:	0b390b3b 	bleq	e43484 <__bss_end__+0xe38aa4>
     794:	17021349 	strne	r1, [r2, -r9, asr #6]
     798:	001742b7 			; <UNDEFINED> instruction: 0x001742b7
     79c:	012e1500 			; <UNDEFINED> instruction: 0x012e1500
     7a0:	0e03193f 			; <UNDEFINED> instruction: 0x0e03193f
     7a4:	0b3b0b3a 	bleq	ec3494 <__bss_end__+0xeb8ab4>
     7a8:	19270b39 	stmdbne	r7!, {r0, r3, r4, r5, r8, r9, fp}
     7ac:	01111349 	tsteq	r1, r9, asr #6
     7b0:	18400612 	stmdane	r0, {r1, r4, r9, sl}^
     7b4:	01194297 			; <UNDEFINED> instruction: 0x01194297
     7b8:	16000013 			; <UNDEFINED> instruction: 0x16000013
     7bc:	0e030005 	cdpeq	0, 0, cr0, cr3, cr5, {0}
     7c0:	0b3b0b3a 	bleq	ec34b0 <__bss_end__+0xeb8ad0>
     7c4:	13490b39 	movtne	r0, #39737	; 0x9b39
     7c8:	42b71702 	adcsmi	r1, r7, #524288	; 0x80000
     7cc:	17000017 	smladne	r0, r7, r0, r0
     7d0:	0e030034 	mcreq	0, 0, r0, cr3, cr4, {1}
     7d4:	0b3b0b3a 	bleq	ec34c4 <__bss_end__+0xeb8ae4>
     7d8:	13490b39 	movtne	r0, #39737	; 0x9b39
     7dc:	42b71702 	adcsmi	r1, r7, #524288	; 0x80000
     7e0:	18000017 	stmdane	r0, {r0, r1, r2, r4}
     7e4:	193f012e 	ldmdbne	pc!, {r1, r2, r3, r5, r8}	; <UNPREDICTABLE>
     7e8:	0b3a0e03 	bleq	e83ffc <__bss_end__+0xe7961c>
     7ec:	0b390b3b 	bleq	e434e0 <__bss_end__+0xe38b00>
     7f0:	13491927 	movtne	r1, #39207	; 0x9927
     7f4:	1301193c 	movwne	r1, #6460	; 0x193c
     7f8:	89190000 	ldmdbhi	r9, {}	; <UNPREDICTABLE>
     7fc:	11010182 	smlabbne	r1, r2, r1, r0
     800:	00133101 	andseq	r3, r3, r1, lsl #2
     804:	828a1a00 	addhi	r1, sl, #0, 20
     808:	18020001 	stmdane	r2, {r0}
     80c:	00184291 	mulseq	r8, r1, r2
     810:	012e1b00 			; <UNDEFINED> instruction: 0x012e1b00
     814:	0b3a0e03 	bleq	e84028 <__bss_end__+0xe79648>
     818:	0b390b3b 	bleq	e4350c <__bss_end__+0xe38b2c>
     81c:	13491927 	movtne	r1, #39207	; 0x9927
     820:	06120111 			; <UNDEFINED> instruction: 0x06120111
     824:	42971840 	addsmi	r1, r7, #64, 16	; 0x400000
     828:	00130119 	andseq	r0, r3, r9, lsl r1
     82c:	00051c00 	andeq	r1, r5, r0, lsl #24
     830:	0b3a0803 	bleq	e82844 <__bss_end__+0xe77e64>
     834:	0b390b3b 	bleq	e43528 <__bss_end__+0xe38b48>
     838:	17021349 	strne	r1, [r2, -r9, asr #6]
     83c:	001742b7 			; <UNDEFINED> instruction: 0x001742b7
     840:	82891d00 	addhi	r1, r9, #0, 26
     844:	01110101 	tsteq	r1, r1, lsl #2
     848:	13011331 	movwne	r1, #4913	; 0x1331
     84c:	891e0000 	ldmdbhi	lr, {}	; <UNPREDICTABLE>
     850:	11000182 	smlabbne	r0, r2, r1, r0
     854:	00133101 	andseq	r3, r3, r1, lsl #2
     858:	002e1f00 	eoreq	r1, lr, r0, lsl #30
     85c:	193c193f 	ldmdbne	ip!, {r0, r1, r2, r3, r4, r5, r8, fp, ip}
     860:	0e030e6e 	cdpeq	14, 0, cr0, cr3, cr14, {3}
     864:	0b3b0b3a 	bleq	ec3554 <__bss_end__+0xeb8b74>
     868:	00000b39 	andeq	r0, r0, r9, lsr fp
     86c:	01110100 	tsteq	r1, r0, lsl #2
     870:	0b130e25 	bleq	4c410c <__bss_end__+0x4b972c>
     874:	0e1b0e03 	cdpeq	14, 1, cr0, cr11, cr3, {0}
     878:	06120111 			; <UNDEFINED> instruction: 0x06120111
     87c:	00001710 	andeq	r1, r0, r0, lsl r7
     880:	0b002402 	bleq	9890 <kmalloc_init+0x4c>
     884:	030b3e0b 	movweq	r3, #48651	; 0xbe0b
     888:	03000008 	movweq	r0, #8
     88c:	0e030016 	mcreq	0, 0, r0, cr3, cr6, {0}
     890:	0b3b0b3a 	bleq	ec3580 <__bss_end__+0xeb8ba0>
     894:	13490b39 	movtne	r0, #39737	; 0x9b39
     898:	24040000 	strcs	r0, [r4], #-0
     89c:	3e0b0b00 	vmlacc.f64	d0, d11, d0
     8a0:	000e030b 	andeq	r0, lr, fp, lsl #6
     8a4:	01150500 	tsteq	r5, r0, lsl #10
     8a8:	13491927 	movtne	r1, #39207	; 0x9927
     8ac:	00001301 	andeq	r1, r0, r1, lsl #6
     8b0:	49000506 	stmdbmi	r0, {r1, r2, r8, sl}
     8b4:	07000013 	smladeq	r0, r3, r0, r0
     8b8:	0e030034 	mcreq	0, 0, r0, cr3, cr4, {1}
     8bc:	0b3b0b3a 	bleq	ec35ac <__bss_end__+0xeb8bcc>
     8c0:	13490b39 	movtne	r0, #39737	; 0x9b39
     8c4:	193c193f 	ldmdbne	ip!, {r0, r1, r2, r3, r4, r5, r8, fp, ip}
     8c8:	0f080000 	svceq	0x00080000
     8cc:	490b0b00 	stmdbmi	fp, {r8, r9, fp}
     8d0:	09000013 	stmdbeq	r0, {r0, r1, r4}
     8d4:	13490026 	movtne	r0, #36902	; 0x9026
     8d8:	2e0a0000 	cdpcs	0, 0, cr0, cr10, cr0, {0}
     8dc:	03193f01 	tsteq	r9, #1, 30
     8e0:	3b0b3a0e 	blcc	2cf120 <__bss_end__+0x2c4740>
     8e4:	270b390b 	strcs	r3, [fp, -fp, lsl #18]
     8e8:	11134919 	tstne	r3, r9, lsl r9
     8ec:	40061201 	andmi	r1, r6, r1, lsl #4
     8f0:	19429718 	stmdbne	r2, {r3, r4, r8, r9, sl, ip, pc}^
     8f4:	00001301 	andeq	r1, r0, r1, lsl #6
     8f8:	0300050b 	movweq	r0, #1291	; 0x50b
     8fc:	3b0b3a08 	blcc	2cf124 <__bss_end__+0x2c4744>
     900:	490b390b 	stmdbmi	fp, {r0, r1, r3, r8, fp, ip, sp}
     904:	00180213 	andseq	r0, r8, r3, lsl r2
     908:	00050c00 	andeq	r0, r5, r0, lsl #24
     90c:	0b3a0803 	bleq	e82920 <__bss_end__+0xe77f40>
     910:	0b390b3b 	bleq	e43604 <__bss_end__+0xe38c24>
     914:	17021349 	strne	r1, [r2, -r9, asr #6]
     918:	001742b7 			; <UNDEFINED> instruction: 0x001742b7
     91c:	00340d00 	eorseq	r0, r4, r0, lsl #26
     920:	0b3a0803 	bleq	e82934 <__bss_end__+0xe77f54>
     924:	0b390b3b 	bleq	e43618 <__bss_end__+0xe38c38>
     928:	17021349 	strne	r1, [r2, -r9, asr #6]
     92c:	001742b7 			; <UNDEFINED> instruction: 0x001742b7
     930:	000f0e00 	andeq	r0, pc, r0, lsl #28
     934:	00000b0b 	andeq	r0, r0, fp, lsl #22
     938:	01110100 	tsteq	r1, r0, lsl #2
     93c:	0b130e25 	bleq	4c41d8 <__bss_end__+0x4b97f8>
     940:	0e1b0e03 	cdpeq	14, 1, cr0, cr11, cr3, {0}
     944:	06120111 			; <UNDEFINED> instruction: 0x06120111
     948:	00001710 	andeq	r1, r0, r0, lsl r7
     94c:	03001602 	movweq	r1, #1538	; 0x602
     950:	3b0b3a0e 	blcc	2cf190 <__bss_end__+0x2c47b0>
     954:	490b390b 	stmdbmi	fp, {r0, r1, r3, r8, fp, ip, sp}
     958:	03000013 	movweq	r0, #19
     95c:	0e030113 	mcreq	1, 0, r0, cr3, cr3, {0}
     960:	0b3a0b0b 	bleq	e83594 <__bss_end__+0xe78bb4>
     964:	13010b3b 	movwne	r0, #6971	; 0x1b3b
     968:	0d040000 	stceq	0, cr0, [r4, #-0]
     96c:	490e0300 	stmdbmi	lr, {r8, r9}
     970:	340b3813 	strcc	r3, [fp], #-2067	; 0xfffff7ed
     974:	05000019 	streq	r0, [r0, #-25]	; 0xffffffe7
     978:	0b0b000f 	bleq	2c09bc <__bss_end__+0x2b5fdc>
     97c:	24060000 	strcs	r0, [r6], #-0
     980:	3e0b0b00 	vmlacc.f64	d0, d11, d0
     984:	0008030b 	andeq	r0, r8, fp, lsl #6
     988:	00240700 	eoreq	r0, r4, r0, lsl #14
     98c:	0b3e0b0b 	bleq	f835c0 <__bss_end__+0xf78be0>
     990:	00000e03 	andeq	r0, r0, r3, lsl #28
     994:	27011508 	strcs	r1, [r1, -r8, lsl #10]
     998:	01134919 	tsteq	r3, r9, lsl r9
     99c:	09000013 	stmdbeq	r0, {r0, r1, r4}
     9a0:	13490005 	movtne	r0, #36869	; 0x9005
     9a4:	340a0000 	strcc	r0, [sl], #-0
     9a8:	3a0e0300 	bcc	3815b0 <__bss_end__+0x376bd0>
     9ac:	390b3b0b 	stmdbcc	fp, {r0, r1, r3, r8, r9, fp, ip, sp}
     9b0:	3f13490b 	svccc	0x0013490b
     9b4:	00193c19 	andseq	r3, r9, r9, lsl ip
     9b8:	000f0b00 	andeq	r0, pc, r0, lsl #22
     9bc:	13490b0b 	movtne	r0, #39691	; 0x9b0b
     9c0:	260c0000 	strcs	r0, [ip], -r0
     9c4:	00134900 	andseq	r4, r3, r0, lsl #18
     9c8:	012e0d00 			; <UNDEFINED> instruction: 0x012e0d00
     9cc:	0e03193f 			; <UNDEFINED> instruction: 0x0e03193f
     9d0:	0b3b0b3a 	bleq	ec36c0 <__bss_end__+0xeb8ce0>
     9d4:	19270b39 	stmdbne	r7!, {r0, r3, r4, r5, r8, r9, fp}
     9d8:	01111349 	tsteq	r1, r9, asr #6
     9dc:	18400612 	stmdane	r0, {r1, r4, r9, sl}^
     9e0:	01194297 			; <UNDEFINED> instruction: 0x01194297
     9e4:	0e000013 	mcreq	0, 0, r0, cr0, cr3, {0}
     9e8:	08030005 	stmdaeq	r3, {r0, r2}
     9ec:	0b3b0b3a 	bleq	ec36dc <__bss_end__+0xeb8cfc>
     9f0:	13490b39 	movtne	r0, #39737	; 0x9b39
     9f4:	00001802 	andeq	r1, r0, r2, lsl #16
     9f8:	0000180f 	andeq	r1, r0, pc, lsl #16
     9fc:	00341000 	eorseq	r1, r4, r0
     a00:	0b3a0803 	bleq	e82a14 <__bss_end__+0xe78034>
     a04:	0b390b3b 	bleq	e436f8 <__bss_end__+0xe38d18>
     a08:	18021349 	stmdane	r2, {r0, r3, r6, r8, r9, ip}
     a0c:	34110000 	ldrcc	r0, [r1], #-0
     a10:	3a0e0300 	bcc	381618 <__bss_end__+0x376c38>
     a14:	390b3b0b 	stmdbcc	fp, {r0, r1, r3, r8, r9, fp, ip, sp}
     a18:	0213490b 	andseq	r4, r3, #180224	; 0x2c000
     a1c:	12000018 	andne	r0, r0, #24, 0
     a20:	08030034 	stmdaeq	r3, {r2, r4, r5}
     a24:	0b3b0b3a 	bleq	ec3714 <__bss_end__+0xeb8d34>
     a28:	13490b39 	movtne	r0, #39737	; 0x9b39
     a2c:	42b71702 	adcsmi	r1, r7, #524288	; 0x80000
     a30:	13000017 	movwne	r0, #23
     a34:	01018289 	smlabbeq	r1, r9, r2, r8
     a38:	13310111 	teqne	r1, #1073741828	; 0x40000004
     a3c:	00001301 	andeq	r1, r0, r1, lsl #6
     a40:	01828a14 	orreq	r8, r2, r4, lsl sl
     a44:	91180200 	tstls	r8, r0, lsl #4
     a48:	00001842 	andeq	r1, r0, r2, asr #16
     a4c:	01828915 	orreq	r8, r2, r5, lsl r9
     a50:	00011101 	andeq	r1, r1, r1, lsl #2
     a54:	01011600 	tsteq	r1, r0, lsl #12
     a58:	13011349 	movwne	r1, #4937	; 0x1349
     a5c:	21170000 	tstcs	r7, r0
     a60:	2f134900 	svccs	0x00134900
     a64:	18000005 	stmdane	r0, {r0, r2}
     a68:	193f002e 	ldmdbne	pc!, {r1, r2, r3, r5}	; <UNPREDICTABLE>
     a6c:	0e6e193c 			; <UNDEFINED> instruction: 0x0e6e193c
     a70:	0b3a0e03 	bleq	e84284 <__bss_end__+0xe798a4>
     a74:	0b390b3b 	bleq	e43768 <__bss_end__+0xe38d88>
     a78:	01000000 	mrseq	r0, (UNDEF: 0)
     a7c:	0e250111 	mcreq	1, 1, r0, cr5, cr1, {0}
     a80:	0e030b13 	vmoveq.32	d3[0], r0
     a84:	01110e1b 	tsteq	r1, fp, lsl lr
     a88:	17100612 			; <UNDEFINED> instruction: 0x17100612
     a8c:	24020000 	strcs	r0, [r2], #-0
     a90:	3e0b0b00 	vmlacc.f64	d0, d11, d0
     a94:	0008030b 	andeq	r0, r8, fp, lsl #6
     a98:	00240300 	eoreq	r0, r4, r0, lsl #6
     a9c:	0b3e0b0b 	bleq	f836d0 <__bss_end__+0xf78cf0>
     aa0:	00000e03 	andeq	r0, r0, r3, lsl #28
     aa4:	27011504 	strcs	r1, [r1, -r4, lsl #10]
     aa8:	01134919 	tsteq	r3, r9, lsl r9
     aac:	05000013 	streq	r0, [r0, #-19]	; 0xffffffed
     ab0:	13490005 	movtne	r0, #36869	; 0x9005
     ab4:	34060000 	strcc	r0, [r6], #-0
     ab8:	3a0e0300 	bcc	3816c0 <__bss_end__+0x376ce0>
     abc:	390b3b0b 	stmdbcc	fp, {r0, r1, r3, r8, r9, fp, ip, sp}
     ac0:	3f13490b 	svccc	0x0013490b
     ac4:	00193c19 	andseq	r3, r9, r9, lsl ip
     ac8:	000f0700 	andeq	r0, pc, r0, lsl #14
     acc:	13490b0b 	movtne	r0, #39691	; 0x9b0b
     ad0:	26080000 	strcs	r0, [r8], -r0
     ad4:	00134900 	andseq	r4, r3, r0, lsl #18
     ad8:	00340900 	eorseq	r0, r4, r0, lsl #18
     adc:	0b3a1347 	bleq	e85800 <__bss_end__+0xe7ae20>
     ae0:	0b390b3b 	bleq	e437d4 <__bss_end__+0xe38df4>
     ae4:	00001802 	andeq	r1, r0, r2, lsl #16
     ae8:	3f012e0a 	svccc	0x00012e0a
     aec:	3a0e0319 	bcc	381758 <__bss_end__+0x376d78>
     af0:	390b3b0b 	stmdbcc	fp, {r0, r1, r3, r8, r9, fp, ip, sp}
     af4:	4919270b 	ldmdbmi	r9, {r0, r1, r3, r8, r9, sl, sp}
     af8:	12011113 	andne	r1, r1, #-1073741820	; 0xc0000004
     afc:	96184006 	ldrls	r4, [r8], -r6
     b00:	00001942 	andeq	r1, r0, r2, asr #18
     b04:	0300050b 	movweq	r0, #1291	; 0x50b
     b08:	3b0b3a08 	blcc	2cf330 <__bss_end__+0x2c4950>
     b0c:	490b390b 	stmdbmi	fp, {r0, r1, r3, r8, fp, ip, sp}
     b10:	b7170213 			; <UNDEFINED> instruction: 0xb7170213
     b14:	00001742 	andeq	r1, r0, r2, asr #14
     b18:	01110100 	tsteq	r1, r0, lsl #2
     b1c:	0b130e25 	bleq	4c43b8 <__bss_end__+0x4b99d8>
     b20:	0e1b0e03 	cdpeq	14, 1, cr0, cr11, cr3, {0}
     b24:	06120111 			; <UNDEFINED> instruction: 0x06120111
     b28:	00001710 	andeq	r1, r0, r0, lsl r7
     b2c:	0b002402 	bleq	9b3c <rpi_reset_putc>
     b30:	030b3e0b 	movweq	r3, #48651	; 0xbe0b
     b34:	03000008 	movweq	r0, #8
     b38:	0b0b0024 	bleq	2c0bd0 <__bss_end__+0x2b61f0>
     b3c:	0e030b3e 	vmoveq.16	d3[0], r0
     b40:	16040000 	strne	r0, [r4], -r0
     b44:	3a0e0300 	bcc	38174c <__bss_end__+0x376d6c>
     b48:	390b3b0b 	stmdbcc	fp, {r0, r1, r3, r8, r9, fp, ip, sp}
     b4c:	0013490b 	andseq	r4, r3, fp, lsl #18
     b50:	01150500 	tsteq	r5, r0, lsl #10
     b54:	13491927 	movtne	r1, #39207	; 0x9927
     b58:	00001301 	andeq	r1, r0, r1, lsl #6
     b5c:	49000506 	stmdbmi	r0, {r1, r2, r8, sl}
     b60:	07000013 	smladeq	r0, r3, r0, r0
     b64:	0e030034 	mcreq	0, 0, r0, cr3, cr4, {1}
     b68:	0b3b0b3a 	bleq	ec3858 <__bss_end__+0xeb8e78>
     b6c:	13490b39 	movtne	r0, #39737	; 0x9b39
     b70:	193c193f 	ldmdbne	ip!, {r0, r1, r2, r3, r4, r5, r8, fp, ip}
     b74:	0f080000 	svceq	0x00080000
     b78:	490b0b00 	stmdbmi	fp, {r8, r9, fp}
     b7c:	09000013 	stmdbeq	r0, {r0, r1, r4}
     b80:	13490026 	movtne	r0, #36902	; 0x9026
     b84:	130a0000 	movwne	r0, #40960	; 0xa000
     b88:	0b0e0301 	bleq	381794 <__bss_end__+0x376db4>
     b8c:	3b0b3a0b 	blcc	2cf3c0 <__bss_end__+0x2c49e0>
     b90:	0013010b 	andseq	r0, r3, fp, lsl #2
     b94:	000d0b00 	andeq	r0, sp, r0, lsl #22
     b98:	13490e03 	movtne	r0, #40451	; 0x9e03
     b9c:	19340b38 	ldmdbne	r4!, {r3, r4, r5, r8, r9, fp}
     ba0:	0f0c0000 	svceq	0x000c0000
     ba4:	000b0b00 	andeq	r0, fp, r0, lsl #22
     ba8:	012e0d00 			; <UNDEFINED> instruction: 0x012e0d00
     bac:	0e03193f 			; <UNDEFINED> instruction: 0x0e03193f
     bb0:	0b3b0b3a 	bleq	ec38a0 <__bss_end__+0xeb8ec0>
     bb4:	19270b39 	stmdbne	r7!, {r0, r3, r4, r5, r8, r9, fp}
     bb8:	01111349 	tsteq	r1, r9, asr #6
     bbc:	18400612 	stmdane	r0, {r1, r4, r9, sl}^
     bc0:	01194297 			; <UNDEFINED> instruction: 0x01194297
     bc4:	0e000013 	mcreq	0, 0, r0, cr0, cr3, {0}
     bc8:	08030005 	stmdaeq	r3, {r0, r2}
     bcc:	0b3b0b3a 	bleq	ec38bc <__bss_end__+0xeb8edc>
     bd0:	13490b39 	movtne	r0, #39737	; 0x9b39
     bd4:	42b71702 	adcsmi	r1, r7, #524288	; 0x80000
     bd8:	0f000017 	svceq	0x00000017
     bdc:	0e030005 	cdpeq	0, 0, cr0, cr3, cr5, {0}
     be0:	0b3b0b3a 	bleq	ec38d0 <__bss_end__+0xeb8ef0>
     be4:	13490b39 	movtne	r0, #39737	; 0x9b39
     be8:	00001802 	andeq	r1, r0, r2, lsl #16
     bec:	03003410 	movweq	r3, #1040	; 0x410
     bf0:	3b0b3a08 	blcc	2cf418 <__bss_end__+0x2c4a38>
     bf4:	490b390b 	stmdbmi	fp, {r0, r1, r3, r8, fp, ip, sp}
     bf8:	b7170213 			; <UNDEFINED> instruction: 0xb7170213
     bfc:	00001742 	andeq	r1, r0, r2, asr #14
     c00:	03003411 	movweq	r3, #1041	; 0x411
     c04:	3b0b3a0e 	blcc	2cf444 <__bss_end__+0x2c4a64>
     c08:	490b390b 	stmdbmi	fp, {r0, r1, r3, r8, fp, ip, sp}
     c0c:	b7170213 			; <UNDEFINED> instruction: 0xb7170213
     c10:	00001742 	andeq	r1, r0, r2, asr #14
     c14:	03003412 	movweq	r3, #1042	; 0x412
     c18:	3413490e 	ldrcc	r4, [r3], #-2318	; 0xfffff6f2
     c1c:	00180219 	andseq	r0, r8, r9, lsl r2
     c20:	010b1300 	mrseq	r1, (UNDEF: 59)
     c24:	06120111 			; <UNDEFINED> instruction: 0x06120111
     c28:	34140000 	ldrcc	r0, [r4], #-0
     c2c:	3a080300 	bcc	201834 <__bss_end__+0x1f6e54>
     c30:	390b3b0b 	stmdbcc	fp, {r0, r1, r3, r8, r9, fp, ip, sp}
     c34:	0213490b 	andseq	r4, r3, #180224	; 0x2c000
     c38:	15000018 	strne	r0, [r0, #-24]	; 0xffffffe8
     c3c:	0e030034 	mcreq	0, 0, r0, cr3, cr4, {1}
     c40:	0b3b0b3a 	bleq	ec3930 <__bss_end__+0xeb8f50>
     c44:	13490b39 	movtne	r0, #39737	; 0x9b39
     c48:	00001802 	andeq	r1, r0, r2, lsl #16
     c4c:	11010b16 	tstne	r1, r6, lsl fp
     c50:	01061201 	tsteq	r6, r1, lsl #4
     c54:	17000013 	smladne	r0, r3, r0, r0
     c58:	08030034 	stmdaeq	r3, {r2, r4, r5}
     c5c:	0b3b0b3a 	bleq	ec394c <__bss_end__+0xeb8f6c>
     c60:	13490b39 	movtne	r0, #39737	; 0x9b39
     c64:	89180000 	ldmdbhi	r8, {}	; <UNPREDICTABLE>
     c68:	11010182 	smlabbne	r1, r2, r1, r0
     c6c:	01133101 	tsteq	r3, r1, lsl #2
     c70:	19000013 	stmdbne	r0, {r0, r1, r4}
     c74:	0001828a 	andeq	r8, r1, sl, lsl #5
     c78:	42911802 	addsmi	r1, r1, #131072	; 0x20000
     c7c:	1a000018 	bne	ce4 <__code_start__-0x731c>
     c80:	00018289 	andeq	r8, r1, r9, lsl #5
     c84:	13310111 	teqne	r1, #1073741828	; 0x40000004
     c88:	891b0000 	ldmdbhi	fp, {}	; <UNPREDICTABLE>
     c8c:	11010182 	smlabbne	r1, r2, r1, r0
     c90:	00130101 	andseq	r0, r3, r1, lsl #2
     c94:	01011c00 	tsteq	r1, r0, lsl #24
     c98:	13011349 	movwne	r1, #4937	; 0x1349
     c9c:	211d0000 	tstcs	sp, r0
     ca0:	2f134900 	svccs	0x00134900
     ca4:	1e00000b 	cdpne	0, 0, cr0, cr0, cr11, {0}
     ca8:	0e03012e 	adfeqsp	f0, f3, #0.5
     cac:	0b3b0b3a 	bleq	ec399c <__bss_end__+0xeb8fbc>
     cb0:	19270b39 	stmdbne	r7!, {r0, r3, r4, r5, r8, r9, fp}
     cb4:	01111349 	tsteq	r1, r9, asr #6
     cb8:	18400612 	stmdane	r0, {r1, r4, r9, sl}^
     cbc:	01194297 			; <UNDEFINED> instruction: 0x01194297
     cc0:	1f000013 	svcne	0x00000013
     cc4:	0e030005 	cdpeq	0, 0, cr0, cr3, cr5, {0}
     cc8:	0b3b0b3a 	bleq	ec39b8 <__bss_end__+0xeb8fd8>
     ccc:	13490b39 	movtne	r0, #39737	; 0x9b39
     cd0:	42b71702 	adcsmi	r1, r7, #524288	; 0x80000
     cd4:	20000017 	andcs	r0, r0, r7, lsl r0
     cd8:	0803012e 	stmdaeq	r3, {r1, r2, r3, r5, r8}
     cdc:	0b3b0b3a 	bleq	ec39cc <__bss_end__+0xeb8fec>
     ce0:	19270b39 	stmdbne	r7!, {r0, r3, r4, r5, r8, r9, fp}
     ce4:	01111349 	tsteq	r1, r9, asr #6
     ce8:	18400612 	stmdane	r0, {r1, r4, r9, sl}^
     cec:	01194297 			; <UNDEFINED> instruction: 0x01194297
     cf0:	21000013 	tstcs	r0, r3, lsl r0
     cf4:	193f012e 	ldmdbne	pc!, {r1, r2, r3, r5, r8}	; <UNPREDICTABLE>
     cf8:	0b3a0e03 	bleq	e8450c <__bss_end__+0xe79b2c>
     cfc:	0b390b3b 	bleq	e439f0 <__bss_end__+0xe39010>
     d00:	01111927 	tsteq	r1, r7, lsr #18
     d04:	18400612 	stmdane	r0, {r1, r4, r9, sl}^
     d08:	01194297 			; <UNDEFINED> instruction: 0x01194297
     d0c:	22000013 	andcs	r0, r0, #19, 0
     d10:	193f002e 	ldmdbne	pc!, {r1, r2, r3, r5}	; <UNPREDICTABLE>
     d14:	0e6e193c 			; <UNDEFINED> instruction: 0x0e6e193c
     d18:	0b3a0e03 	bleq	e8452c <__bss_end__+0xe79b4c>
     d1c:	0b390b3b 	bleq	e43a10 <__bss_end__+0xe39030>
     d20:	01000000 	mrseq	r0, (UNDEF: 0)
     d24:	0e250111 	mcreq	1, 1, r0, cr5, cr1, {0}
     d28:	0e030b13 	vmoveq.32	d3[0], r0
     d2c:	01110e1b 	tsteq	r1, fp, lsl lr
     d30:	17100612 			; <UNDEFINED> instruction: 0x17100612
     d34:	24020000 	strcs	r0, [r2], #-0
     d38:	3e0b0b00 	vmlacc.f64	d0, d11, d0
     d3c:	0008030b 	andeq	r0, r8, fp, lsl #6
     d40:	00240300 	eoreq	r0, r4, r0, lsl #6
     d44:	0b3e0b0b 	bleq	f83978 <__bss_end__+0xf78f98>
     d48:	00000e03 	andeq	r0, r0, r3, lsl #28
     d4c:	27011504 	strcs	r1, [r1, -r4, lsl #10]
     d50:	01134919 	tsteq	r3, r9, lsl r9
     d54:	05000013 	streq	r0, [r0, #-19]	; 0xffffffed
     d58:	13490005 	movtne	r0, #36869	; 0x9005
     d5c:	34060000 	strcc	r0, [r6], #-0
     d60:	3a0e0300 	bcc	381968 <__bss_end__+0x376f88>
     d64:	390b3b0b 	stmdbcc	fp, {r0, r1, r3, r8, r9, fp, ip, sp}
     d68:	3f13490b 	svccc	0x0013490b
     d6c:	00193c19 	andseq	r3, r9, r9, lsl ip
     d70:	000f0700 	andeq	r0, pc, r0, lsl #14
     d74:	13490b0b 	movtne	r0, #39691	; 0x9b0b
     d78:	26080000 	strcs	r0, [r8], -r0
     d7c:	00134900 	andseq	r4, r3, r0, lsl #18
     d80:	012e0900 			; <UNDEFINED> instruction: 0x012e0900
     d84:	0e03193f 			; <UNDEFINED> instruction: 0x0e03193f
     d88:	0b3b0b3a 	bleq	ec3a78 <__bss_end__+0xeb9098>
     d8c:	19270b39 	stmdbne	r7!, {r0, r3, r4, r5, r8, r9, fp}
     d90:	11190187 	tstne	r9, r7, lsl #3
     d94:	40061201 	andmi	r1, r6, r1, lsl #4
     d98:	19429718 	stmdbne	r2, {r3, r4, r8, r9, sl, ip, pc}^
     d9c:	00001301 	andeq	r1, r0, r1, lsl #6
     da0:	0182890a 	orreq	r8, r2, sl, lsl #18
     da4:	01011101 	tsteq	r1, r1, lsl #2
     da8:	0b000013 	bleq	dfc <__code_start__-0x7204>
     dac:	0001828a 	andeq	r8, r1, sl, lsl #5
     db0:	42911802 	addsmi	r1, r1, #131072	; 0x20000
     db4:	0c000018 	stceq	0, cr0, [r0], {24}
     db8:	00018289 	andeq	r8, r1, r9, lsl #5
     dbc:	13310111 	teqne	r1, #1073741828	; 0x40000004
     dc0:	890d0000 	stmdbhi	sp, {}	; <UNPREDICTABLE>
     dc4:	11010182 	smlabbne	r1, r2, r1, r0
     dc8:	01133101 	tsteq	r3, r1, lsl #2
     dcc:	0e000013 	mcreq	0, 0, r0, cr0, cr3, {0}
     dd0:	193f002e 	ldmdbne	pc!, {r1, r2, r3, r5}	; <UNPREDICTABLE>
     dd4:	0e6e193c 			; <UNDEFINED> instruction: 0x0e6e193c
     dd8:	0b3a0e03 	bleq	e845ec <__bss_end__+0xe79c0c>
     ddc:	0b390b3b 	bleq	e43ad0 <__bss_end__+0xe390f0>
     de0:	01000000 	mrseq	r0, (UNDEF: 0)
     de4:	0e250111 	mcreq	1, 1, r0, cr5, cr1, {0}
     de8:	0e030b13 	vmoveq.32	d3[0], r0
     dec:	01110e1b 	tsteq	r1, fp, lsl lr
     df0:	17100612 			; <UNDEFINED> instruction: 0x17100612
     df4:	24020000 	strcs	r0, [r2], #-0
     df8:	3e0b0b00 	vmlacc.f64	d0, d11, d0
     dfc:	0008030b 	andeq	r0, r8, fp, lsl #6
     e00:	00240300 	eoreq	r0, r4, r0, lsl #6
     e04:	0b3e0b0b 	bleq	f83a38 <__bss_end__+0xf79058>
     e08:	00000e03 	andeq	r0, r0, r3, lsl #28
     e0c:	27011504 	strcs	r1, [r1, -r4, lsl #10]
     e10:	01134919 	tsteq	r3, r9, lsl r9
     e14:	05000013 	streq	r0, [r0, #-19]	; 0xffffffed
     e18:	13490005 	movtne	r0, #36869	; 0x9005
     e1c:	34060000 	strcc	r0, [r6], #-0
     e20:	3a0e0300 	bcc	381a28 <__bss_end__+0x377048>
     e24:	390b3b0b 	stmdbcc	fp, {r0, r1, r3, r8, r9, fp, ip, sp}
     e28:	3f13490b 	svccc	0x0013490b
     e2c:	00193c19 	andseq	r3, r9, r9, lsl ip
     e30:	000f0700 	andeq	r0, pc, r0, lsl #14
     e34:	13490b0b 	movtne	r0, #39691	; 0x9b0b
     e38:	26080000 	strcs	r0, [r8], -r0
     e3c:	00134900 	andseq	r4, r3, r0, lsl #18
     e40:	012e0900 			; <UNDEFINED> instruction: 0x012e0900
     e44:	0e03193f 			; <UNDEFINED> instruction: 0x0e03193f
     e48:	0b3b0b3a 	bleq	ec3b38 <__bss_end__+0xeb9158>
     e4c:	01110b39 	tsteq	r1, r9, lsr fp
     e50:	18400612 	stmdane	r0, {r1, r4, r9, sl}^
     e54:	01194297 			; <UNDEFINED> instruction: 0x01194297
     e58:	0a000013 	beq	eac <__code_start__-0x7154>
     e5c:	193f002e 	ldmdbne	pc!, {r1, r2, r3, r5}	; <UNPREDICTABLE>
     e60:	0b3a0e03 	bleq	e84674 <__bss_end__+0xe79c94>
     e64:	0b390b3b 	bleq	e43b58 <__bss_end__+0xe39178>
     e68:	193c1927 	ldmdbne	ip!, {r0, r1, r2, r5, r8, fp, ip}
     e6c:	340b0000 	strcc	r0, [fp], #-0
     e70:	3a080300 	bcc	201a78 <__bss_end__+0x1f7098>
     e74:	390b3b0b 	stmdbcc	fp, {r0, r1, r3, r8, r9, fp, ip, sp}
     e78:	0213490b 	andseq	r4, r3, #180224	; 0x2c000
     e7c:	1742b717 	smlaldne	fp, r2, r7, r7
     e80:	340c0000 	strcc	r0, [ip], #-0
     e84:	3a0e0300 	bcc	381a8c <__bss_end__+0x3770ac>
     e88:	390b3b0b 	stmdbcc	fp, {r0, r1, r3, r8, r9, fp, ip, sp}
     e8c:	0013490b 	andseq	r4, r3, fp, lsl #18
     e90:	010b0d00 	tsteq	fp, r0, lsl #26
     e94:	06120111 			; <UNDEFINED> instruction: 0x06120111
     e98:	00001301 	andeq	r1, r0, r1, lsl #6
     e9c:	0300340e 	movweq	r3, #1038	; 0x40e
     ea0:	3b0b3a08 	blcc	2cf6c8 <__bss_end__+0x2c4ce8>
     ea4:	490b390b 	stmdbmi	fp, {r0, r1, r3, r8, fp, ip, sp}
     ea8:	000b1c13 	andeq	r1, fp, r3, lsl ip
     eac:	82890f00 	addhi	r0, r9, #0, 30
     eb0:	01110001 	tsteq	r1, r1
     eb4:	00001331 	andeq	r1, r0, r1, lsr r3
     eb8:	3f002e10 	svccc	0x00002e10
     ebc:	6e193c19 	mrcvs	12, 0, r3, cr9, cr9, {0}
     ec0:	3a0e030e 	bcc	381b00 <__bss_end__+0x377120>
     ec4:	39053b0b 	stmdbcc	r5, {r0, r1, r3, r8, r9, fp, ip, sp}
     ec8:	1100000b 	tstne	r0, fp
     ecc:	193f002e 	ldmdbne	pc!, {r1, r2, r3, r5}	; <UNPREDICTABLE>
     ed0:	0e6e193c 			; <UNDEFINED> instruction: 0x0e6e193c
     ed4:	0b3a0e03 	bleq	e846e8 <__bss_end__+0xe79d08>
     ed8:	0b390b3b 	bleq	e43bcc <__bss_end__+0xe391ec>
     edc:	01000000 	mrseq	r0, (UNDEF: 0)
     ee0:	0e250111 	mcreq	1, 1, r0, cr5, cr1, {0}
     ee4:	0e030b13 	vmoveq.32	d3[0], r0
     ee8:	01110e1b 	tsteq	r1, fp, lsl lr
     eec:	17100612 			; <UNDEFINED> instruction: 0x17100612
     ef0:	24020000 	strcs	r0, [r2], #-0
     ef4:	3e0b0b00 	vmlacc.f64	d0, d11, d0
     ef8:	0008030b 	andeq	r0, r8, fp, lsl #6
     efc:	00240300 	eoreq	r0, r4, r0, lsl #6
     f00:	0b3e0b0b 	bleq	f83b34 <__bss_end__+0xf79154>
     f04:	00000e03 	andeq	r0, r0, r3, lsl #28
     f08:	27011504 	strcs	r1, [r1, -r4, lsl #10]
     f0c:	01134919 	tsteq	r3, r9, lsl r9
     f10:	05000013 	streq	r0, [r0, #-19]	; 0xffffffed
     f14:	13490005 	movtne	r0, #36869	; 0x9005
     f18:	34060000 	strcc	r0, [r6], #-0
     f1c:	3a0e0300 	bcc	381b24 <__bss_end__+0x377144>
     f20:	390b3b0b 	stmdbcc	fp, {r0, r1, r3, r8, r9, fp, ip, sp}
     f24:	3f13490b 	svccc	0x0013490b
     f28:	00193c19 	andseq	r3, r9, r9, lsl ip
     f2c:	000f0700 	andeq	r0, pc, r0, lsl #14
     f30:	13490b0b 	movtne	r0, #39691	; 0x9b0b
     f34:	26080000 	strcs	r0, [r8], -r0
     f38:	00134900 	andseq	r4, r3, r0, lsl #18
     f3c:	002e0900 	eoreq	r0, lr, r0, lsl #18
     f40:	0e03193f 			; <UNDEFINED> instruction: 0x0e03193f
     f44:	0b3b0b3a 	bleq	ec3c34 <__bss_end__+0xeb9254>
     f48:	19270b39 	stmdbne	r7!, {r0, r3, r4, r5, r8, r9, fp}
     f4c:	06120111 			; <UNDEFINED> instruction: 0x06120111
     f50:	42971840 	addsmi	r1, r7, #64, 16	; 0x400000
     f54:	00000019 	andeq	r0, r0, r9, lsl r0
     f58:	25011101 	strcs	r1, [r1, #-257]	; 0xfffffeff
     f5c:	030b130e 	movweq	r1, #45838	; 0xb30e
     f60:	550e1b0e 	strpl	r1, [lr, #-2830]	; 0xfffff4f2
     f64:	10011117 	andne	r1, r1, r7, lsl r1
     f68:	02000017 	andeq	r0, r0, #23, 0
     f6c:	0b0b0024 	bleq	2c1004 <__bss_end__+0x2b6624>
     f70:	08030b3e 	stmdaeq	r3, {r1, r2, r3, r4, r5, r8, r9, fp}
     f74:	26030000 	strcs	r0, [r3], -r0
     f78:	00134900 	andseq	r4, r3, r0, lsl #18
     f7c:	00240400 	eoreq	r0, r4, r0, lsl #8
     f80:	0b3e0b0b 	bleq	f83bb4 <__bss_end__+0xf791d4>
     f84:	00000e03 	andeq	r0, r0, r3, lsl #28
     f88:	27011505 	strcs	r1, [r1, -r5, lsl #10]
     f8c:	01134919 	tsteq	r3, r9, lsl r9
     f90:	06000013 			; <UNDEFINED> instruction: 0x06000013
     f94:	13490005 	movtne	r0, #36869	; 0x9005
     f98:	34070000 	strcc	r0, [r7], #-0
     f9c:	3a0e0300 	bcc	381ba4 <__bss_end__+0x3771c4>
     fa0:	390b3b0b 	stmdbcc	fp, {r0, r1, r3, r8, r9, fp, ip, sp}
     fa4:	3f13490b 	svccc	0x0013490b
     fa8:	00193c19 	andseq	r3, r9, r9, lsl ip
     fac:	000f0800 	andeq	r0, pc, r0, lsl #16
     fb0:	13490b0b 	movtne	r0, #39691	; 0x9b0b
     fb4:	34090000 	strcc	r0, [r9], #-0
     fb8:	3a0e0300 	bcc	381bc0 <__bss_end__+0x3771e0>
     fbc:	390b3b0b 	stmdbcc	fp, {r0, r1, r3, r8, r9, fp, ip, sp}
     fc0:	0013490b 	andseq	r4, r3, fp, lsl #18
     fc4:	012e0a00 			; <UNDEFINED> instruction: 0x012e0a00
     fc8:	0e03193f 			; <UNDEFINED> instruction: 0x0e03193f
     fcc:	0b3b0b3a 	bleq	ec3cbc <__bss_end__+0xeb92dc>
     fd0:	19270b39 	stmdbne	r7!, {r0, r3, r4, r5, r8, r9, fp}
     fd4:	11190187 	tstne	r9, r7, lsl #3
     fd8:	40061201 	andmi	r1, r6, r1, lsl #4
     fdc:	19429718 	stmdbne	r2, {r3, r4, r8, r9, sl, ip, pc}^
     fe0:	00001301 	andeq	r1, r0, r1, lsl #6
     fe4:	0300340b 	movweq	r3, #1035	; 0x40b
     fe8:	3b0b3a0e 	blcc	2cf828 <__bss_end__+0x2c4e48>
     fec:	490b390b 	stmdbmi	fp, {r0, r1, r3, r8, fp, ip, sp}
     ff0:	b7170213 			; <UNDEFINED> instruction: 0xb7170213
     ff4:	00001742 	andeq	r1, r0, r2, asr #14
     ff8:	0182890c 	orreq	r8, r2, ip, lsl #18
     ffc:	31011100 	mrscc	r1, (UNDEF: 17)
    1000:	0d000013 	stceq	0, cr0, [r0, #-76]	; 0xffffffb4
    1004:	01018289 	smlabbeq	r1, r9, r2, r8
    1008:	13310111 	teqne	r1, #1073741828	; 0x40000004
    100c:	00001301 	andeq	r1, r0, r1, lsl #6
    1010:	01828a0e 	orreq	r8, r2, lr, lsl #20
    1014:	91180200 	tstls	r8, r0, lsl #4
    1018:	00001842 	andeq	r1, r0, r2, asr #16
    101c:	3f012e0f 	svccc	0x00012e0f
    1020:	3a0e0319 	bcc	381c8c <__bss_end__+0x3772ac>
    1024:	390b3b0b 	stmdbcc	fp, {r0, r1, r3, r8, r9, fp, ip, sp}
    1028:	1119270b 	tstne	r9, fp, lsl #14
    102c:	40061201 	andmi	r1, r6, r1, lsl #4
    1030:	19429718 	stmdbne	r2, {r3, r4, r8, r9, sl, ip, pc}^
    1034:	00001301 	andeq	r1, r0, r1, lsl #6
    1038:	3f012e10 	svccc	0x00012e10
    103c:	3a0e0319 	bcc	381ca8 <__bss_end__+0x3772c8>
    1040:	390b3b0b 	stmdbcc	fp, {r0, r1, r3, r8, r9, fp, ip, sp}
    1044:	4919270b 	ldmdbmi	r9, {r0, r1, r3, r8, r9, sl, sp}
    1048:	12011113 	andne	r1, r1, #-1073741820	; 0xc0000004
    104c:	97184006 	ldrls	r4, [r8, -r6]
    1050:	13011942 	movwne	r1, #6466	; 0x1942
    1054:	2e110000 	cdpcs	0, 1, cr0, cr1, cr0, {0}
    1058:	3c193f00 	ldccc	15, cr3, [r9], {-0}
    105c:	030e6e19 	movweq	r6, #60953	; 0xee19
    1060:	3b0b3a0e 	blcc	2cf8a0 <__bss_end__+0x2c4ec0>
    1064:	000b3905 	andeq	r3, fp, r5, lsl #18
    1068:	002e1200 	eoreq	r1, lr, r0, lsl #4
    106c:	193c193f 	ldmdbne	ip!, {r0, r1, r2, r3, r4, r5, r8, fp, ip}
    1070:	0e030e6e 	cdpeq	14, 0, cr0, cr3, cr14, {3}
    1074:	0b3b0b3a 	bleq	ec3d64 <__bss_end__+0xeb9384>
    1078:	00000b39 	andeq	r0, r0, r9, lsr fp
    107c:	01110100 	tsteq	r1, r0, lsl #2
    1080:	0b130e25 	bleq	4c491c <__bss_end__+0x4b9f3c>
    1084:	0e1b0e03 	cdpeq	14, 1, cr0, cr11, cr3, {0}
    1088:	06120111 			; <UNDEFINED> instruction: 0x06120111
    108c:	00001710 	andeq	r1, r0, r0, lsl r7
    1090:	0b002402 	bleq	a0a0 <__FUNCTION__.4068+0x1a8>
    1094:	030b3e0b 	movweq	r3, #48651	; 0xbe0b
    1098:	03000008 	movweq	r0, #8
    109c:	0b0b0024 	bleq	2c1134 <__bss_end__+0x2b6754>
    10a0:	0e030b3e 	vmoveq.16	d3[0], r0
    10a4:	15040000 	strne	r0, [r4, #-0]
    10a8:	49192701 	ldmdbmi	r9, {r0, r8, r9, sl, sp}
    10ac:	00130113 	andseq	r0, r3, r3, lsl r1
    10b0:	00050500 	andeq	r0, r5, r0, lsl #10
    10b4:	00001349 	andeq	r1, r0, r9, asr #6
    10b8:	03003406 	movweq	r3, #1030	; 0x406
    10bc:	3b0b3a0e 	blcc	2cf8fc <__bss_end__+0x2c4f1c>
    10c0:	490b390b 	stmdbmi	fp, {r0, r1, r3, r8, fp, ip, sp}
    10c4:	3c193f13 	ldccc	15, cr3, [r9], {19}
    10c8:	07000019 	smladeq	r0, r9, r0, r0
    10cc:	0b0b000f 	bleq	2c1110 <__bss_end__+0x2b6730>
    10d0:	00001349 	andeq	r1, r0, r9, asr #6
    10d4:	49002608 	stmdbmi	r0, {r3, r9, sl, sp}
    10d8:	09000013 	stmdbeq	r0, {r0, r1, r4}
    10dc:	193f012e 	ldmdbne	pc!, {r1, r2, r3, r5, r8}	; <UNPREDICTABLE>
    10e0:	0b3a0e03 	bleq	e848f4 <__bss_end__+0xe79f14>
    10e4:	0b390b3b 	bleq	e43dd8 <__bss_end__+0xe393f8>
    10e8:	01111927 	tsteq	r1, r7, lsr #18
    10ec:	18400612 	stmdane	r0, {r1, r4, r9, sl}^
    10f0:	01194297 			; <UNDEFINED> instruction: 0x01194297
    10f4:	0a000013 	beq	1148 <__code_start__-0x6eb8>
    10f8:	08030005 	stmdaeq	r3, {r0, r2}
    10fc:	0b3b0b3a 	bleq	ec3dec <__bss_end__+0xeb940c>
    1100:	13490b39 	movtne	r0, #39737	; 0x9b39
    1104:	42b71702 	adcsmi	r1, r7, #524288	; 0x80000
    1108:	0b000017 	bleq	116c <__code_start__-0x6e94>
    110c:	01018289 	smlabbeq	r1, r9, r2, r8
    1110:	13310111 	teqne	r1, #1073741828	; 0x40000004
    1114:	8a0c0000 	bhi	30111c <__bss_end__+0x2f673c>
    1118:	02000182 	andeq	r0, r0, #-2147483616	; 0x80000020
    111c:	18429118 	stmdane	r2, {r3, r4, r8, ip, pc}^
    1120:	340d0000 	strcc	r0, [sp], #-0
    1124:	3a080300 	bcc	201d2c <__bss_end__+0x1f734c>
    1128:	390b3b0b 	stmdbcc	fp, {r0, r1, r3, r8, r9, fp, ip, sp}
    112c:	0213490b 	andseq	r4, r3, #180224	; 0x2c000
    1130:	1742b717 	smlaldne	fp, r2, r7, r7
    1134:	0b0e0000 	bleq	38113c <__bss_end__+0x37675c>
    1138:	12011101 	andne	r1, r1, #1073741824	; 0x40000000
    113c:	00130106 	andseq	r0, r3, r6, lsl #2
    1140:	82890f00 	addhi	r0, r9, #0, 30
    1144:	01110001 	tsteq	r1, r1
    1148:	00001331 	andeq	r1, r0, r1, lsr r3
    114c:	3f012e10 	svccc	0x00012e10
    1150:	3a0e0319 	bcc	381dbc <__bss_end__+0x3773dc>
    1154:	390b3b0b 	stmdbcc	fp, {r0, r1, r3, r8, r9, fp, ip, sp}
    1158:	4919270b 	ldmdbmi	r9, {r0, r1, r3, r8, r9, sl, sp}
    115c:	12011113 	andne	r1, r1, #-1073741820	; 0xc0000004
    1160:	97184006 	ldrls	r4, [r8, -r6]
    1164:	13011942 	movwne	r1, #6466	; 0x1942
    1168:	2e110000 	cdpcs	0, 1, cr0, cr1, cr0, {0}
    116c:	3c193f00 	ldccc	15, cr3, [r9], {-0}
    1170:	030e6e19 	movweq	r6, #60953	; 0xee19
    1174:	3b0b3a0e 	blcc	2cf9b4 <__bss_end__+0x2c4fd4>
    1178:	000b390b 	andeq	r3, fp, fp, lsl #18
    117c:	11010000 	mrsne	r0, (UNDEF: 1)
    1180:	130e2501 	movwne	r2, #58625	; 0xe501
    1184:	1b0e030b 	blne	381db8 <__bss_end__+0x3773d8>
    1188:	1201110e 	andne	r1, r1, #-2147483645	; 0x80000003
    118c:	00171006 	andseq	r1, r7, r6
    1190:	00240200 	eoreq	r0, r4, r0, lsl #4
    1194:	0b3e0b0b 	bleq	f83dc8 <__bss_end__+0xf793e8>
    1198:	00000803 	andeq	r0, r0, r3, lsl #16
    119c:	0b002403 	bleq	a1b0 <__FUNCTION__.4068+0x2b8>
    11a0:	030b3e0b 	movweq	r3, #48651	; 0xbe0b
    11a4:	0400000e 	streq	r0, [r0], #-14
    11a8:	13490035 	movtne	r0, #36917	; 0x9035
    11ac:	16050000 	strne	r0, [r5], -r0
    11b0:	3a0e0300 	bcc	381db8 <__bss_end__+0x3773d8>
    11b4:	390b3b0b 	stmdbcc	fp, {r0, r1, r3, r8, r9, fp, ip, sp}
    11b8:	0013490b 	andseq	r4, r3, fp, lsl #18
    11bc:	01040600 	tsteq	r4, r0, lsl #12
    11c0:	0b0b0b3e 	bleq	2c3ec0 <__bss_end__+0x2b94e0>
    11c4:	0b3a1349 	bleq	e85ef0 <__bss_end__+0xe7b510>
    11c8:	0b390b3b 	bleq	e43ebc <__bss_end__+0xe394dc>
    11cc:	00001301 	andeq	r1, r0, r1, lsl #6
    11d0:	03002807 	movweq	r2, #2055	; 0x807
    11d4:	000b1c0e 	andeq	r1, fp, lr, lsl #24
    11d8:	01130800 	tsteq	r3, r0, lsl #16
    11dc:	0b0b0e03 	bleq	2c49f0 <__bss_end__+0x2ba010>
    11e0:	0b3b0b3a 	bleq	ec3ed0 <__bss_end__+0xeb94f0>
    11e4:	13010b39 	movwne	r0, #6969	; 0x1b39
    11e8:	0d090000 	stceq	0, cr0, [r9, #-0]
    11ec:	3a080300 	bcc	201df4 <__bss_end__+0x1f7414>
    11f0:	390b3b0b 	stmdbcc	fp, {r0, r1, r3, r8, r9, fp, ip, sp}
    11f4:	3813490b 	ldmdacc	r3, {r0, r1, r3, r8, fp, lr}
    11f8:	0a00000b 	beq	122c <__code_start__-0x6dd4>
    11fc:	0e03000d 	cdpeq	0, 0, cr0, cr3, cr13, {0}
    1200:	0b3b0b3a 	bleq	ec3ef0 <__bss_end__+0xeb9510>
    1204:	13490b39 	movtne	r0, #39737	; 0x9b39
    1208:	00000b38 	andeq	r0, r0, r8, lsr fp
    120c:	0300340b 	movweq	r3, #1035	; 0x40b
    1210:	3b0b3a0e 	blcc	2cfa50 <__bss_end__+0x2c5070>
    1214:	490b390b 	stmdbmi	fp, {r0, r1, r3, r8, fp, ip, sp}
    1218:	00061c13 	andeq	r1, r6, r3, lsl ip
    121c:	000f0c00 	andeq	r0, pc, r0, lsl #24
    1220:	13490b0b 	movtne	r0, #39691	; 0x9b0b
    1224:	260d0000 	strcs	r0, [sp], -r0
    1228:	00134900 	andseq	r4, r3, r0, lsl #18
    122c:	012e0e00 			; <UNDEFINED> instruction: 0x012e0e00
    1230:	0e03193f 			; <UNDEFINED> instruction: 0x0e03193f
    1234:	0b3b0b3a 	bleq	ec3f24 <__bss_end__+0xeb9544>
    1238:	19270b39 	stmdbne	r7!, {r0, r3, r4, r5, r8, r9, fp}
    123c:	06120111 			; <UNDEFINED> instruction: 0x06120111
    1240:	42971840 	addsmi	r1, r7, #64, 16	; 0x400000
    1244:	00130119 	andseq	r0, r3, r9, lsl r1
    1248:	82890f00 	addhi	r0, r9, #0, 30
    124c:	01110001 	tsteq	r1, r1
    1250:	00001331 	andeq	r1, r0, r1, lsr r3
    1254:	3f012e10 	svccc	0x00012e10
    1258:	3a0e0319 	bcc	381ec4 <__bss_end__+0x3774e4>
    125c:	390b3b0b 	stmdbcc	fp, {r0, r1, r3, r8, r9, fp, ip, sp}
    1260:	4919270b 	ldmdbmi	r9, {r0, r1, r3, r8, r9, sl, sp}
    1264:	12011113 	andne	r1, r1, #-1073741820	; 0xc0000004
    1268:	97184006 	ldrls	r4, [r8, -r6]
    126c:	13011942 	movwne	r1, #6466	; 0x1942
    1270:	89110000 	ldmdbhi	r1, {}	; <UNPREDICTABLE>
    1274:	11010182 	smlabbne	r1, r2, r1, r0
    1278:	00133101 	andseq	r3, r3, r1, lsl #2
    127c:	828a1200 	addhi	r1, sl, #0, 4
    1280:	18020001 	stmdane	r2, {r0}
    1284:	00184291 	mulseq	r8, r1, r2
    1288:	00051300 	andeq	r1, r5, r0, lsl #6
    128c:	0b3a0803 	bleq	e832a0 <__bss_end__+0xe788c0>
    1290:	0b390b3b 	bleq	e43f84 <__bss_end__+0xe395a4>
    1294:	17021349 	strne	r1, [r2, -r9, asr #6]
    1298:	001742b7 			; <UNDEFINED> instruction: 0x001742b7
    129c:	82891400 	addhi	r1, r9, #0, 8
    12a0:	01110101 	tsteq	r1, r1, lsl #2
    12a4:	13011331 	movwne	r1, #4913	; 0x1331
    12a8:	34150000 	ldrcc	r0, [r5], #-0
    12ac:	3a080300 	bcc	201eb4 <__bss_end__+0x1f74d4>
    12b0:	390b3b0b 	stmdbcc	fp, {r0, r1, r3, r8, r9, fp, ip, sp}
    12b4:	0213490b 	andseq	r4, r3, #180224	; 0x2c000
    12b8:	1742b717 	smlaldne	fp, r2, r7, r7
    12bc:	34160000 	ldrcc	r0, [r6], #-0
    12c0:	3a0e0300 	bcc	381ec8 <__bss_end__+0x3774e8>
    12c4:	390b3b0b 	stmdbcc	fp, {r0, r1, r3, r8, r9, fp, ip, sp}
    12c8:	1c13490b 			; <UNDEFINED> instruction: 0x1c13490b
    12cc:	17000005 	strne	r0, [r0, -r5]
    12d0:	0e03012e 	adfeqsp	f0, f3, #0.5
    12d4:	0b3b0b3a 	bleq	ec3fc4 <__bss_end__+0xeb95e4>
    12d8:	19270b39 	stmdbne	r7!, {r0, r3, r4, r5, r8, r9, fp}
    12dc:	06120111 			; <UNDEFINED> instruction: 0x06120111
    12e0:	42971840 	addsmi	r1, r7, #64, 16	; 0x400000
    12e4:	00130119 	andseq	r0, r3, r9, lsl r1
    12e8:	00051800 	andeq	r1, r5, r0, lsl #16
    12ec:	0b3a0e03 	bleq	e84b00 <__bss_end__+0xe7a120>
    12f0:	0b390b3b 	bleq	e43fe4 <__bss_end__+0xe39604>
    12f4:	17021349 	strne	r1, [r2, -r9, asr #6]
    12f8:	001742b7 			; <UNDEFINED> instruction: 0x001742b7
    12fc:	00351900 	eorseq	r1, r5, r0, lsl #18
    1300:	2e1a0000 	cdpcs	0, 1, cr0, cr10, cr0, {0}
    1304:	3c193f00 	ldccc	15, cr3, [r9], {-0}
    1308:	030e6e19 	movweq	r6, #60953	; 0xee19
    130c:	3b0b3a0e 	blcc	2cfb4c <__bss_end__+0x2c516c>
    1310:	000b390b 	andeq	r3, fp, fp, lsl #18
    1314:	11010000 	mrsne	r0, (UNDEF: 1)
    1318:	130e2501 	movwne	r2, #58625	; 0xe501
    131c:	1b0e030b 	blne	381f50 <__bss_end__+0x377570>
    1320:	1201110e 	andne	r1, r1, #-2147483645	; 0x80000003
    1324:	00171006 	andseq	r1, r7, r6
    1328:	00240200 	eoreq	r0, r4, r0, lsl #4
    132c:	0b3e0b0b 	bleq	f83f60 <__bss_end__+0xf79580>
    1330:	00000803 	andeq	r0, r0, r3, lsl #16
    1334:	0b002403 	bleq	a348 <__FUNCTION__.4101+0x12c>
    1338:	030b3e0b 	movweq	r3, #48651	; 0xbe0b
    133c:	0400000e 	streq	r0, [r0], #-14
    1340:	0e030016 	mcreq	0, 0, r0, cr3, cr6, {0}
    1344:	0b3b0b3a 	bleq	ec4034 <__bss_end__+0xeb9654>
    1348:	13490b39 	movtne	r0, #39737	; 0x9b39
    134c:	26050000 	strcs	r0, [r5], -r0
    1350:	00134900 	andseq	r4, r3, r0, lsl #18
    1354:	000f0600 	andeq	r0, pc, r0, lsl #12
    1358:	00000b0b 	andeq	r0, r0, fp, lsl #22
    135c:	3e010407 	cdpcc	4, 0, cr0, cr1, cr7, {0}
    1360:	490b0b0b 	stmdbmi	fp, {r0, r1, r3, r8, r9, fp}
    1364:	3b0b3a13 	blcc	2cfbb8 <__bss_end__+0x2c51d8>
    1368:	010b390b 	tsteq	fp, fp, lsl #18
    136c:	08000013 	stmdaeq	r0, {r0, r1, r4}
    1370:	0e030028 	cdpeq	0, 0, cr0, cr3, cr8, {1}
    1374:	0000061c 	andeq	r0, r0, ip, lsl r6
    1378:	03003409 	movweq	r3, #1033	; 0x409
    137c:	3b0b3a0e 	blcc	2cfbbc <__bss_end__+0x2c51dc>
    1380:	490b390b 	stmdbmi	fp, {r0, r1, r3, r8, fp, ip, sp}
    1384:	3c193f13 	ldccc	15, cr3, [r9], {19}
    1388:	0a000019 	beq	13f4 <__code_start__-0x6c0c>
    138c:	0e030034 	mcreq	0, 0, r0, cr3, cr4, {1}
    1390:	0b3b0b3a 	bleq	ec4080 <__bss_end__+0xeb96a0>
    1394:	13490b39 	movtne	r0, #39737	; 0x9b39
    1398:	00001802 	andeq	r1, r0, r2, lsl #16
    139c:	0b000f0b 	bleq	4fd0 <__code_start__-0x3030>
    13a0:	0013490b 	andseq	r4, r3, fp, lsl #18
    13a4:	012e0c00 			; <UNDEFINED> instruction: 0x012e0c00
    13a8:	0e03193f 			; <UNDEFINED> instruction: 0x0e03193f
    13ac:	0b3b0b3a 	bleq	ec409c <__bss_end__+0xeb96bc>
    13b0:	19270b39 	stmdbne	r7!, {r0, r3, r4, r5, r8, r9, fp}
    13b4:	06120111 			; <UNDEFINED> instruction: 0x06120111
    13b8:	42971840 	addsmi	r1, r7, #64, 16	; 0x400000
    13bc:	00130119 	andseq	r0, r3, r9, lsl r1
    13c0:	00050d00 	andeq	r0, r5, r0, lsl #26
    13c4:	0b3a0803 	bleq	e833d8 <__bss_end__+0xe789f8>
    13c8:	0b390b3b 	bleq	e440bc <__bss_end__+0xe396dc>
    13cc:	17021349 	strne	r1, [r2, -r9, asr #6]
    13d0:	001742b7 			; <UNDEFINED> instruction: 0x001742b7
    13d4:	00340e00 	eorseq	r0, r4, r0, lsl #28
    13d8:	13490e03 	movtne	r0, #40451	; 0x9e03
    13dc:	18021934 	stmdane	r2, {r2, r4, r5, r8, fp, ip}
    13e0:	890f0000 	stmdbhi	pc, {}	; <UNPREDICTABLE>
    13e4:	11010182 	smlabbne	r1, r2, r1, r0
    13e8:	01133101 	tsteq	r3, r1, lsl #2
    13ec:	10000013 	andne	r0, r0, r3, lsl r0
    13f0:	0001828a 	andeq	r8, r1, sl, lsl #5
    13f4:	42911802 	addsmi	r1, r1, #131072	; 0x20000
    13f8:	11000018 	tstne	r0, r8, lsl r0
    13fc:	00018289 	andeq	r8, r1, r9, lsl #5
    1400:	13310111 	teqne	r1, #1073741828	; 0x40000004
    1404:	01120000 	tsteq	r2, r0
    1408:	01134901 	tsteq	r3, r1, lsl #18
    140c:	13000013 	movwne	r0, #19
    1410:	13490021 	movtne	r0, #36897	; 0x9021
    1414:	00000b2f 	andeq	r0, r0, pc, lsr #22
    1418:	3f002e14 	svccc	0x00002e14
    141c:	3a0e0319 	bcc	382088 <__bss_end__+0x3776a8>
    1420:	390b3b0b 	stmdbcc	fp, {r0, r1, r3, r8, r9, fp, ip, sp}
    1424:	1119270b 	tstne	r9, fp, lsl #14
    1428:	40061201 	andmi	r1, r6, r1, lsl #4
    142c:	19429718 	stmdbne	r2, {r3, r4, r8, r9, sl, ip, pc}^
    1430:	05150000 	ldreq	r0, [r5, #-0]
    1434:	3a080300 	bcc	20203c <__bss_end__+0x1f765c>
    1438:	390b3b0b 	stmdbcc	fp, {r0, r1, r3, r8, r9, fp, ip, sp}
    143c:	0213490b 	andseq	r4, r3, #180224	; 0x2c000
    1440:	16000018 			; <UNDEFINED> instruction: 0x16000018
    1444:	193f012e 	ldmdbne	pc!, {r1, r2, r3, r5, r8}	; <UNPREDICTABLE>
    1448:	0b3a0e03 	bleq	e84c5c <__bss_end__+0xe7a27c>
    144c:	0b390b3b 	bleq	e44140 <__bss_end__+0xe39760>
    1450:	13491927 	movtne	r1, #39207	; 0x9927
    1454:	06120111 			; <UNDEFINED> instruction: 0x06120111
    1458:	42971840 	addsmi	r1, r7, #64, 16	; 0x400000
    145c:	00130119 	andseq	r0, r3, r9, lsl r1
    1460:	00051700 	andeq	r1, r5, r0, lsl #14
    1464:	0b3a0e03 	bleq	e84c78 <__bss_end__+0xe7a298>
    1468:	0b390b3b 	bleq	e4415c <__bss_end__+0xe3977c>
    146c:	17021349 	strne	r1, [r2, -r9, asr #6]
    1470:	001742b7 			; <UNDEFINED> instruction: 0x001742b7
    1474:	00341800 	eorseq	r1, r4, r0, lsl #16
    1478:	0b3a0803 	bleq	e8348c <__bss_end__+0xe78aac>
    147c:	0b390b3b 	bleq	e44170 <__bss_end__+0xe39790>
    1480:	17021349 	strne	r1, [r2, -r9, asr #6]
    1484:	001742b7 			; <UNDEFINED> instruction: 0x001742b7
    1488:	011d1900 	tsteq	sp, r0, lsl #18
    148c:	01521331 	cmpeq	r2, r1, lsr r3
    1490:	110b42b8 			; <UNDEFINED> instruction: 0x110b42b8
    1494:	58061201 	stmdapl	r6, {r0, r9, ip}
    1498:	570b590b 	strpl	r5, [fp, -fp, lsl #18]
    149c:	0013010b 	andseq	r0, r3, fp, lsl #2
    14a0:	00051a00 	andeq	r1, r5, r0, lsl #20
    14a4:	17021331 	smladxne	r2, r1, r3, r1
    14a8:	001742b7 			; <UNDEFINED> instruction: 0x001742b7
    14ac:	011d1b00 	tsteq	sp, r0, lsl #22
    14b0:	01521331 	cmpeq	r2, r1, lsr r3
    14b4:	550b42b8 	strpl	r4, [fp, #-696]	; 0xfffffd48
    14b8:	590b5817 	stmdbpl	fp, {r0, r1, r2, r4, fp, ip, lr}
    14bc:	010b570b 	tsteq	fp, fp, lsl #14
    14c0:	1c000013 	stcne	0, cr0, [r0], {19}
    14c4:	1755010b 	ldrbne	r0, [r5, -fp, lsl #2]
    14c8:	341d0000 	ldrcc	r0, [sp], #-0
    14cc:	3a0e0300 	bcc	3820d4 <__bss_end__+0x3776f4>
    14d0:	390b3b0b 	stmdbcc	fp, {r0, r1, r3, r8, r9, fp, ip, sp}
    14d4:	0213490b 	andseq	r4, r3, #180224	; 0x2c000
    14d8:	1742b717 	smlaldne	fp, r2, r7, r7
    14dc:	0b1e0000 	bleq	7814e4 <__bss_end__+0x776b04>
    14e0:	00175500 	andseq	r5, r7, r0, lsl #10
    14e4:	002e1f00 	eoreq	r1, lr, r0, lsl #30
    14e8:	0e03193f 			; <UNDEFINED> instruction: 0x0e03193f
    14ec:	0b3b0b3a 	bleq	ec41dc <__bss_end__+0xeb97fc>
    14f0:	19270b39 	stmdbne	r7!, {r0, r3, r4, r5, r8, r9, fp}
    14f4:	01111349 	tsteq	r1, r9, asr #6
    14f8:	18400612 	stmdane	r0, {r1, r4, r9, sl}^
    14fc:	00194297 	mulseq	r9, r7, r2
    1500:	012e2000 			; <UNDEFINED> instruction: 0x012e2000
    1504:	0b3a0e03 	bleq	e84d18 <__bss_end__+0xe7a338>
    1508:	0b390b3b 	bleq	e441fc <__bss_end__+0xe3981c>
    150c:	13491927 	movtne	r1, #39207	; 0x9927
    1510:	13010b20 	movwne	r0, #6944	; 0x1b20
    1514:	05210000 	streq	r0, [r1, #-0]!
    1518:	3a080300 	bcc	202120 <__bss_end__+0x1f7740>
    151c:	390b3b0b 	stmdbcc	fp, {r0, r1, r3, r8, r9, fp, ip, sp}
    1520:	0013490b 	andseq	r4, r3, fp, lsl #18
    1524:	002e2200 	eoreq	r2, lr, r0, lsl #4
    1528:	193c193f 	ldmdbne	ip!, {r0, r1, r2, r3, r4, r5, r8, fp, ip}
    152c:	0e030e6e 	cdpeq	14, 0, cr0, cr3, cr14, {3}
    1530:	0b3b0b3a 	bleq	ec4220 <__bss_end__+0xeb9840>
    1534:	00000b39 	andeq	r0, r0, r9, lsr fp
    1538:	01110100 	tsteq	r1, r0, lsl #2
    153c:	0b130e25 	bleq	4c4dd8 <__bss_end__+0x4ba3f8>
    1540:	0e1b0e03 	cdpeq	14, 1, cr0, cr11, cr3, {0}
    1544:	06120111 			; <UNDEFINED> instruction: 0x06120111
    1548:	00001710 	andeq	r1, r0, r0, lsl r7
    154c:	0b002402 	bleq	a55c <__FUNCTION__.4>
    1550:	030b3e0b 	movweq	r3, #48651	; 0xbe0b
    1554:	03000008 	movweq	r0, #8
    1558:	0b0b0024 	bleq	2c15f0 <__bss_end__+0x2b6c10>
    155c:	0e030b3e 	vmoveq.16	d3[0], r0
    1560:	15040000 	strne	r0, [r4, #-0]
    1564:	49192701 	ldmdbmi	r9, {r0, r8, r9, sl, sp}
    1568:	00130113 	andseq	r0, r3, r3, lsl r1
    156c:	00050500 	andeq	r0, r5, r0, lsl #10
    1570:	00001349 	andeq	r1, r0, r9, asr #6
    1574:	03003406 	movweq	r3, #1030	; 0x406
    1578:	3b0b3a0e 	blcc	2cfdb8 <__bss_end__+0x2c53d8>
    157c:	490b390b 	stmdbmi	fp, {r0, r1, r3, r8, fp, ip, sp}
    1580:	3c193f13 	ldccc	15, cr3, [r9], {19}
    1584:	07000019 	smladeq	r0, r9, r0, r0
    1588:	0b0b000f 	bleq	2c15cc <__bss_end__+0x2b6bec>
    158c:	00001349 	andeq	r1, r0, r9, asr #6
    1590:	49002608 	stmdbmi	r0, {r3, r9, sl, sp}
    1594:	09000013 	stmdbeq	r0, {r0, r1, r4}
    1598:	13470034 	movtne	r0, #28724	; 0x7034
    159c:	0b3b0b3a 	bleq	ec428c <__bss_end__+0xeb98ac>
    15a0:	18020b39 	stmdane	r2, {r0, r3, r4, r5, r8, r9, fp}
    15a4:	2e0a0000 	cdpcs	0, 0, cr0, cr10, cr0, {0}
    15a8:	03193f01 	tsteq	r9, #1, 30
    15ac:	3b0b3a0e 	blcc	2cfdec <__bss_end__+0x2c540c>
    15b0:	270b390b 	strcs	r3, [fp, -fp, lsl #18]
    15b4:	12011119 	andne	r1, r1, #1073741830	; 0x40000006
    15b8:	97184006 	ldrls	r4, [r8, -r6]
    15bc:	13011942 	movwne	r1, #6466	; 0x1942
    15c0:	050b0000 	streq	r0, [fp, #-0]
    15c4:	3a080300 	bcc	2021cc <__bss_end__+0x1f77ec>
    15c8:	390b3b0b 	stmdbcc	fp, {r0, r1, r3, r8, r9, fp, ip, sp}
    15cc:	0213490b 	andseq	r4, r3, #180224	; 0x2c000
    15d0:	0c000018 	stceq	0, cr0, [r0], {24}
    15d4:	193f002e 	ldmdbne	pc!, {r1, r2, r3, r5}	; <UNPREDICTABLE>
    15d8:	0b3a0e03 	bleq	e84dec <__bss_end__+0xe7a40c>
    15dc:	0b390b3b 	bleq	e442d0 <__bss_end__+0xe398f0>
    15e0:	01111927 	tsteq	r1, r7, lsr #18
    15e4:	18400612 	stmdane	r0, {r1, r4, r9, sl}^
    15e8:	00194297 	mulseq	r9, r7, r2
    15ec:	012e0d00 			; <UNDEFINED> instruction: 0x012e0d00
    15f0:	0b3a0e03 	bleq	e84e04 <__bss_end__+0xe7a424>
    15f4:	0b390b3b 	bleq	e442e8 <__bss_end__+0xe39908>
    15f8:	13491927 	movtne	r1, #39207	; 0x9927
    15fc:	06120111 			; <UNDEFINED> instruction: 0x06120111
    1600:	42971840 	addsmi	r1, r7, #64, 16	; 0x400000
    1604:	00130119 	andseq	r0, r3, r9, lsl r1
    1608:	00050e00 	andeq	r0, r5, r0, lsl #28
    160c:	0b3a0803 	bleq	e83620 <__bss_end__+0xe78c40>
    1610:	0b390b3b 	bleq	e44304 <__bss_end__+0xe39924>
    1614:	17021349 	strne	r1, [r2, -r9, asr #6]
    1618:	001742b7 			; <UNDEFINED> instruction: 0x001742b7
    161c:	82890f00 	addhi	r0, r9, #0, 30
    1620:	01110101 	tsteq	r1, r1, lsl #2
    1624:	00001331 	andeq	r1, r0, r1, lsr r3
    1628:	01828a10 	orreq	r8, r2, r0, lsl sl
    162c:	91180200 	tstls	r8, r0, lsl #4
    1630:	00001842 	andeq	r1, r0, r2, asr #16
    1634:	3f002e11 	svccc	0x00002e11
    1638:	6e193c19 	mrcvs	12, 0, r3, cr9, cr9, {0}
    163c:	3a0e030e 	bcc	38227c <__bss_end__+0x37789c>
    1640:	390b3b0b 	stmdbcc	fp, {r0, r1, r3, r8, r9, fp, ip, sp}
    1644:	0000000b 	andeq	r0, r0, fp
    1648:	25011101 	strcs	r1, [r1, #-257]	; 0xfffffeff
    164c:	030b130e 	movweq	r1, #45838	; 0xb30e
    1650:	110e1b0e 	tstne	lr, lr, lsl #22
    1654:	10061201 	andne	r1, r6, r1, lsl #4
    1658:	02000017 	andeq	r0, r0, #23, 0
    165c:	0b0b0024 	bleq	2c16f4 <__bss_end__+0x2b6d14>
    1660:	08030b3e 	stmdaeq	r3, {r1, r2, r3, r4, r5, r8, r9, fp}
    1664:	24030000 	strcs	r0, [r3], #-0
    1668:	3e0b0b00 	vmlacc.f64	d0, d11, d0
    166c:	000e030b 	andeq	r0, lr, fp, lsl #6
    1670:	01150400 	tsteq	r5, r0, lsl #8
    1674:	13491927 	movtne	r1, #39207	; 0x9927
    1678:	00001301 	andeq	r1, r0, r1, lsl #6
    167c:	49000505 	stmdbmi	r0, {r0, r2, r8, sl}
    1680:	06000013 			; <UNDEFINED> instruction: 0x06000013
    1684:	0e030034 	mcreq	0, 0, r0, cr3, cr4, {1}
    1688:	0b3b0b3a 	bleq	ec4378 <__bss_end__+0xeb9998>
    168c:	13490b39 	movtne	r0, #39737	; 0x9b39
    1690:	193c193f 	ldmdbne	ip!, {r0, r1, r2, r3, r4, r5, r8, fp, ip}
    1694:	0f070000 	svceq	0x00070000
    1698:	490b0b00 	stmdbmi	fp, {r8, r9, fp}
    169c:	08000013 	stmdaeq	r0, {r0, r1, r4}
    16a0:	13490026 	movtne	r0, #36902	; 0x9026
    16a4:	2e090000 	cdpcs	0, 0, cr0, cr9, cr0, {0}
    16a8:	03193f01 	tsteq	r9, #1, 30
    16ac:	3b0b3a0e 	blcc	2cfeec <__bss_end__+0x2c550c>
    16b0:	270b390b 	strcs	r3, [fp, -fp, lsl #18]
    16b4:	11134919 	tstne	r3, r9, lsl r9
    16b8:	40061201 	andmi	r1, r6, r1, lsl #4
    16bc:	19429718 	stmdbne	r2, {r3, r4, r8, r9, sl, ip, pc}^
    16c0:	00001301 	andeq	r1, r0, r1, lsl #6
    16c4:	0300050a 	movweq	r0, #1290	; 0x50a
    16c8:	3b0b3a0e 	blcc	2cff08 <__bss_end__+0x2c5528>
    16cc:	490b390b 	stmdbmi	fp, {r0, r1, r3, r8, fp, ip, sp}
    16d0:	00180213 	andseq	r0, r8, r3, lsl r2
    16d4:	00050b00 	andeq	r0, r5, r0, lsl #22
    16d8:	0b3a0803 	bleq	e836ec <__bss_end__+0xe78d0c>
    16dc:	0b390b3b 	bleq	e443d0 <__bss_end__+0xe399f0>
    16e0:	17021349 	strne	r1, [r2, -r9, asr #6]
    16e4:	001742b7 			; <UNDEFINED> instruction: 0x001742b7
    16e8:	00340c00 	eorseq	r0, r4, r0, lsl #24
    16ec:	0b3a0803 	bleq	e83700 <__bss_end__+0xe78d20>
    16f0:	0b390b3b 	bleq	e443e4 <__bss_end__+0xe39a04>
    16f4:	17021349 	strne	r1, [r2, -r9, asr #6]
    16f8:	001742b7 			; <UNDEFINED> instruction: 0x001742b7
    16fc:	11010000 	mrsne	r0, (UNDEF: 1)
    1700:	130e2501 	movwne	r2, #58625	; 0xe501
    1704:	1b0e030b 	blne	382338 <__bss_end__+0x377958>
    1708:	1201110e 	andne	r1, r1, #-2147483645	; 0x80000003
    170c:	00171006 	andseq	r1, r7, r6
    1710:	00240200 	eoreq	r0, r4, r0, lsl #4
    1714:	0b3e0b0b 	bleq	f84348 <__bss_end__+0xf79968>
    1718:	00000803 	andeq	r0, r0, r3, lsl #16
    171c:	0b002403 	bleq	a730 <buf.3948+0x158>
    1720:	030b3e0b 	movweq	r3, #48651	; 0xbe0b
    1724:	0400000e 	streq	r0, [r0], #-14
    1728:	19270115 	stmdbne	r7!, {r0, r2, r4, r8}
    172c:	13011349 	movwne	r1, #4937	; 0x1349
    1730:	05050000 	streq	r0, [r5, #-0]
    1734:	00134900 	andseq	r4, r3, r0, lsl #18
    1738:	00340600 	eorseq	r0, r4, r0, lsl #12
    173c:	0b3a0e03 	bleq	e84f50 <__bss_end__+0xe7a570>
    1740:	0b390b3b 	bleq	e44434 <__bss_end__+0xe39a54>
    1744:	193f1349 	ldmdbne	pc!, {r0, r3, r6, r8, r9, ip}	; <UNPREDICTABLE>
    1748:	0000193c 	andeq	r1, r0, ip, lsr r9
    174c:	0b000f07 	bleq	5370 <__code_start__-0x2c90>
    1750:	0013490b 	andseq	r4, r3, fp, lsl #18
    1754:	00260800 	eoreq	r0, r6, r0, lsl #16
    1758:	00001349 	andeq	r1, r0, r9, asr #6
    175c:	3f012e09 	svccc	0x00012e09
    1760:	3a0e0319 	bcc	3823cc <__bss_end__+0x3779ec>
    1764:	390b3b0b 	stmdbcc	fp, {r0, r1, r3, r8, r9, fp, ip, sp}
    1768:	4919270b 	ldmdbmi	r9, {r0, r1, r3, r8, r9, sl, sp}
    176c:	12011113 	andne	r1, r1, #-1073741820	; 0xc0000004
    1770:	97184006 	ldrls	r4, [r8, -r6]
    1774:	00001942 	andeq	r1, r0, r2, asr #18
    1778:	0300050a 	movweq	r0, #1290	; 0x50a
    177c:	3b0b3a08 	blcc	2cffa4 <__bss_end__+0x2c55c4>
    1780:	490b390b 	stmdbmi	fp, {r0, r1, r3, r8, fp, ip, sp}
    1784:	b7170213 			; <UNDEFINED> instruction: 0xb7170213
    1788:	00001742 	andeq	r1, r0, r2, asr #14
    178c:	01110100 	tsteq	r1, r0, lsl #2
    1790:	0b130e25 	bleq	4c502c <__bss_end__+0x4ba64c>
    1794:	0e1b0e03 	cdpeq	14, 1, cr0, cr11, cr3, {0}
    1798:	06120111 			; <UNDEFINED> instruction: 0x06120111
    179c:	00001710 	andeq	r1, r0, r0, lsl r7
    17a0:	0b002402 	bleq	a7b0 <buf.3948+0x1d8>
    17a4:	030b3e0b 	movweq	r3, #48651	; 0xbe0b
    17a8:	03000008 	movweq	r0, #8
    17ac:	0b0b0024 	bleq	2c1844 <__bss_end__+0x2b6e64>
    17b0:	0e030b3e 	vmoveq.16	d3[0], r0
    17b4:	15040000 	strne	r0, [r4, #-0]
    17b8:	49192701 	ldmdbmi	r9, {r0, r8, r9, sl, sp}
    17bc:	00130113 	andseq	r0, r3, r3, lsl r1
    17c0:	00050500 	andeq	r0, r5, r0, lsl #10
    17c4:	00001349 	andeq	r1, r0, r9, asr #6
    17c8:	03003406 	movweq	r3, #1030	; 0x406
    17cc:	3b0b3a0e 	blcc	2d000c <__bss_end__+0x2c562c>
    17d0:	490b390b 	stmdbmi	fp, {r0, r1, r3, r8, fp, ip, sp}
    17d4:	3c193f13 	ldccc	15, cr3, [r9], {19}
    17d8:	07000019 	smladeq	r0, r9, r0, r0
    17dc:	0b0b000f 	bleq	2c1820 <__bss_end__+0x2b6e40>
    17e0:	00001349 	andeq	r1, r0, r9, asr #6
    17e4:	49002608 	stmdbmi	r0, {r3, r9, sl, sp}
    17e8:	09000013 	stmdbeq	r0, {r0, r1, r4}
    17ec:	193f012e 	ldmdbne	pc!, {r1, r2, r3, r5, r8}	; <UNPREDICTABLE>
    17f0:	0b3a0e03 	bleq	e85004 <__bss_end__+0xe7a624>
    17f4:	0b390b3b 	bleq	e444e8 <__bss_end__+0xe39b08>
    17f8:	13491927 	movtne	r1, #39207	; 0x9927
    17fc:	06120111 			; <UNDEFINED> instruction: 0x06120111
    1800:	42971840 	addsmi	r1, r7, #64, 16	; 0x400000
    1804:	00130119 	andseq	r0, r3, r9, lsl r1
    1808:	00050a00 	andeq	r0, r5, r0, lsl #20
    180c:	0b3a0803 	bleq	e83820 <__bss_end__+0xe78e40>
    1810:	0b390b3b 	bleq	e44504 <__bss_end__+0xe39b24>
    1814:	18021349 	stmdane	r2, {r0, r3, r6, r8, r9, ip}
    1818:	050b0000 	streq	r0, [fp, #-0]
    181c:	3a080300 	bcc	202424 <__bss_end__+0x1f7a44>
    1820:	390b3b0b 	stmdbcc	fp, {r0, r1, r3, r8, r9, fp, ip, sp}
    1824:	0213490b 	andseq	r4, r3, #180224	; 0x2c000
    1828:	1742b717 	smlaldne	fp, r2, r7, r7
    182c:	340c0000 	strcc	r0, [ip], #-0
    1830:	3a080300 	bcc	202438 <__bss_end__+0x1f7a58>
    1834:	390b3b0b 	stmdbcc	fp, {r0, r1, r3, r8, r9, fp, ip, sp}
    1838:	0213490b 	andseq	r4, r3, #180224	; 0x2c000
    183c:	1742b717 	smlaldne	fp, r2, r7, r7
    1840:	01000000 	mrseq	r0, (UNDEF: 0)
    1844:	0e250111 	mcreq	1, 1, r0, cr5, cr1, {0}
    1848:	0e030b13 	vmoveq.32	d3[0], r0
    184c:	17550e1b 	smmlane	r5, fp, lr, r0
    1850:	17100111 			; <UNDEFINED> instruction: 0x17100111
    1854:	24020000 	strcs	r0, [r2], #-0
    1858:	3e0b0b00 	vmlacc.f64	d0, d11, d0
    185c:	0008030b 	andeq	r0, r8, fp, lsl #6
    1860:	00160300 	andseq	r0, r6, r0, lsl #6
    1864:	0b3a0e03 	bleq	e85078 <__bss_end__+0xe7a698>
    1868:	0b390b3b 	bleq	e4455c <__bss_end__+0xe39b7c>
    186c:	00001349 	andeq	r1, r0, r9, asr #6
    1870:	0b002404 	bleq	a888 <buf.3948+0x2b0>
    1874:	030b3e0b 	movweq	r3, #48651	; 0xbe0b
    1878:	0500000e 	streq	r0, [r0, #-14]
    187c:	13490026 	movtne	r0, #36902	; 0x9026
    1880:	15060000 	strne	r0, [r6, #-0]
    1884:	49192701 	ldmdbmi	r9, {r0, r8, r9, sl, sp}
    1888:	00130113 	andseq	r0, r3, r3, lsl r1
    188c:	00050700 	andeq	r0, r5, r0, lsl #14
    1890:	00001349 	andeq	r1, r0, r9, asr #6
    1894:	03003408 	movweq	r3, #1032	; 0x408
    1898:	3b0b3a0e 	blcc	2d00d8 <__bss_end__+0x2c56f8>
    189c:	490b390b 	stmdbmi	fp, {r0, r1, r3, r8, fp, ip, sp}
    18a0:	3c193f13 	ldccc	15, cr3, [r9], {19}
    18a4:	09000019 	stmdbeq	r0, {r0, r3, r4}
    18a8:	0b0b000f 	bleq	2c18ec <__bss_end__+0x2b6f0c>
    18ac:	00001349 	andeq	r1, r0, r9, asr #6
    18b0:	3f012e0a 	svccc	0x00012e0a
    18b4:	3a0e0319 	bcc	382520 <__bss_end__+0x377b40>
    18b8:	390b3b0b 	stmdbcc	fp, {r0, r1, r3, r8, r9, fp, ip, sp}
    18bc:	4919270b 	ldmdbmi	r9, {r0, r1, r3, r8, r9, sl, sp}
    18c0:	12011113 	andne	r1, r1, #-1073741820	; 0xc0000004
    18c4:	97184006 	ldrls	r4, [r8, -r6]
    18c8:	13011942 	movwne	r1, #6466	; 0x1942
    18cc:	050b0000 	streq	r0, [fp, #-0]
    18d0:	3a080300 	bcc	2024d8 <__bss_end__+0x1f7af8>
    18d4:	390b3b0b 	stmdbcc	fp, {r0, r1, r3, r8, r9, fp, ip, sp}
    18d8:	0213490b 	andseq	r4, r3, #180224	; 0x2c000
    18dc:	1742b717 	smlaldne	fp, r2, r7, r7
    18e0:	340c0000 	strcc	r0, [ip], #-0
    18e4:	3a080300 	bcc	2024ec <__bss_end__+0x1f7b0c>
    18e8:	390b3b0b 	stmdbcc	fp, {r0, r1, r3, r8, r9, fp, ip, sp}
    18ec:	0213490b 	andseq	r4, r3, #180224	; 0x2c000
    18f0:	1742b717 	smlaldne	fp, r2, r7, r7
    18f4:	01000000 	mrseq	r0, (UNDEF: 0)
    18f8:	0e250111 	mcreq	1, 1, r0, cr5, cr1, {0}
    18fc:	0e030b13 	vmoveq.32	d3[0], r0
    1900:	01110e1b 	tsteq	r1, fp, lsl lr
    1904:	17100612 			; <UNDEFINED> instruction: 0x17100612
    1908:	24020000 	strcs	r0, [r2], #-0
    190c:	3e0b0b00 	vmlacc.f64	d0, d11, d0
    1910:	0008030b 	andeq	r0, r8, fp, lsl #6
    1914:	00240300 	eoreq	r0, r4, r0, lsl #6
    1918:	0b3e0b0b 	bleq	f8454c <__bss_end__+0xf79b6c>
    191c:	00000e03 	andeq	r0, r0, r3, lsl #28
    1920:	27011504 	strcs	r1, [r1, -r4, lsl #10]
    1924:	01134919 	tsteq	r3, r9, lsl r9
    1928:	05000013 	streq	r0, [r0, #-19]	; 0xffffffed
    192c:	13490005 	movtne	r0, #36869	; 0x9005
    1930:	34060000 	strcc	r0, [r6], #-0
    1934:	3a0e0300 	bcc	38253c <__bss_end__+0x377b5c>
    1938:	390b3b0b 	stmdbcc	fp, {r0, r1, r3, r8, r9, fp, ip, sp}
    193c:	3f13490b 	svccc	0x0013490b
    1940:	00193c19 	andseq	r3, r9, r9, lsl ip
    1944:	000f0700 	andeq	r0, pc, r0, lsl #14
    1948:	13490b0b 	movtne	r0, #39691	; 0x9b0b
    194c:	26080000 	strcs	r0, [r8], -r0
    1950:	00134900 	andseq	r4, r3, r0, lsl #18
    1954:	002e0900 	eoreq	r0, lr, r0, lsl #18
    1958:	0e03193f 			; <UNDEFINED> instruction: 0x0e03193f
    195c:	0b3b0b3a 	bleq	ec464c <__bss_end__+0xeb9c6c>
    1960:	19270b39 	stmdbne	r7!, {r0, r3, r4, r5, r8, r9, fp}
    1964:	06120111 			; <UNDEFINED> instruction: 0x06120111
    1968:	42971840 	addsmi	r1, r7, #64, 16	; 0x400000
    196c:	00000019 	andeq	r0, r0, r9, lsl r0
    1970:	25011101 	strcs	r1, [r1, #-257]	; 0xfffffeff
    1974:	030b130e 	movweq	r1, #45838	; 0xb30e
    1978:	110e1b0e 	tstne	lr, lr, lsl #22
    197c:	10061201 	andne	r1, r6, r1, lsl #4
    1980:	02000017 	andeq	r0, r0, #23, 0
    1984:	0b0b0024 	bleq	2c1a1c <__bss_end__+0x2b703c>
    1988:	08030b3e 	stmdaeq	r3, {r1, r2, r3, r4, r5, r8, r9, fp}
    198c:	24030000 	strcs	r0, [r3], #-0
    1990:	3e0b0b00 	vmlacc.f64	d0, d11, d0
    1994:	000e030b 	andeq	r0, lr, fp, lsl #6
    1998:	00260400 	eoreq	r0, r6, r0, lsl #8
    199c:	00001349 	andeq	r1, r0, r9, asr #6
    19a0:	03001605 	movweq	r1, #1541	; 0x605
    19a4:	3b0b3a0e 	blcc	2d01e4 <__bss_end__+0x2c5804>
    19a8:	490b390b 	stmdbmi	fp, {r0, r1, r3, r8, fp, ip, sp}
    19ac:	06000013 			; <UNDEFINED> instruction: 0x06000013
    19b0:	0b3e0104 	bleq	f81dc8 <__bss_end__+0xf773e8>
    19b4:	13490b0b 	movtne	r0, #39691	; 0x9b0b
    19b8:	0b3b0b3a 	bleq	ec46a8 <__bss_end__+0xeb9cc8>
    19bc:	13010b39 	movwne	r0, #6969	; 0x1b39
    19c0:	28070000 	stmdacs	r7, {}	; <UNPREDICTABLE>
    19c4:	1c0e0300 	stcne	3, cr0, [lr], {-0}
    19c8:	0800000b 	stmdaeq	r0, {r0, r1, r3}
    19cc:	0e030034 	mcreq	0, 0, r0, cr3, cr4, {1}
    19d0:	0b3b0b3a 	bleq	ec46c0 <__bss_end__+0xeb9ce0>
    19d4:	13490b39 	movtne	r0, #39737	; 0x9b39
    19d8:	0000061c 	andeq	r0, r0, ip, lsl r6
    19dc:	3f012e09 	svccc	0x00012e09
    19e0:	3a0e0319 	bcc	38264c <__bss_end__+0x377c6c>
    19e4:	390b3b0b 	stmdbcc	fp, {r0, r1, r3, r8, r9, fp, ip, sp}
    19e8:	4919270b 	ldmdbmi	r9, {r0, r1, r3, r8, r9, sl, sp}
    19ec:	12011113 	andne	r1, r1, #-1073741820	; 0xc0000004
    19f0:	97184006 	ldrls	r4, [r8, -r6]
    19f4:	13011942 	movwne	r1, #6466	; 0x1942
    19f8:	050a0000 	streq	r0, [sl, #-0]
    19fc:	3a080300 	bcc	202604 <__bss_end__+0x1f7c24>
    1a00:	390b3b0b 	stmdbcc	fp, {r0, r1, r3, r8, r9, fp, ip, sp}
    1a04:	0213490b 	andseq	r4, r3, #180224	; 0x2c000
    1a08:	1742b717 	smlaldne	fp, r2, r7, r7
    1a0c:	340b0000 	strcc	r0, [fp], #-0
    1a10:	3a0e0300 	bcc	382618 <__bss_end__+0x377c38>
    1a14:	390b3b0b 	stmdbcc	fp, {r0, r1, r3, r8, r9, fp, ip, sp}
    1a18:	0213490b 	andseq	r4, r3, #180224	; 0x2c000
    1a1c:	1742b717 	smlaldne	fp, r2, r7, r7
    1a20:	340c0000 	strcc	r0, [ip], #-0
    1a24:	3a080300 	bcc	20262c <__bss_end__+0x1f7c4c>
    1a28:	390b3b0b 	stmdbcc	fp, {r0, r1, r3, r8, r9, fp, ip, sp}
    1a2c:	0213490b 	andseq	r4, r3, #180224	; 0x2c000
    1a30:	1742b717 	smlaldne	fp, r2, r7, r7
    1a34:	890d0000 	stmdbhi	sp, {}	; <UNPREDICTABLE>
    1a38:	11010182 	smlabbne	r1, r2, r1, r0
    1a3c:	00133101 	andseq	r3, r3, r1, lsl #2
    1a40:	828a0e00 	addhi	r0, sl, #0, 28
    1a44:	18020001 	stmdane	r2, {r0}
    1a48:	00184291 	mulseq	r8, r1, r2
    1a4c:	012e0f00 			; <UNDEFINED> instruction: 0x012e0f00
    1a50:	0e03193f 			; <UNDEFINED> instruction: 0x0e03193f
    1a54:	0b3b0b3a 	bleq	ec4744 <__bss_end__+0xeb9d64>
    1a58:	19270b39 	stmdbne	r7!, {r0, r3, r4, r5, r8, r9, fp}
    1a5c:	06120111 			; <UNDEFINED> instruction: 0x06120111
    1a60:	42971840 	addsmi	r1, r7, #64, 16	; 0x400000
    1a64:	00130119 	andseq	r0, r3, r9, lsl r1
    1a68:	82891000 	addhi	r1, r9, #0, 0
    1a6c:	01110101 	tsteq	r1, r1, lsl #2
    1a70:	13011331 	movwne	r1, #4913	; 0x1331
    1a74:	89110000 	ldmdbhi	r1, {}	; <UNPREDICTABLE>
    1a78:	11000182 	smlabbne	r0, r2, r1, r0
    1a7c:	00133101 	andseq	r3, r3, r1, lsl #2
    1a80:	00051200 	andeq	r1, r5, r0, lsl #4
    1a84:	0b3a0e03 	bleq	e85298 <__bss_end__+0xe7a8b8>
    1a88:	0b390b3b 	bleq	e4477c <__bss_end__+0xe39d9c>
    1a8c:	17021349 	strne	r1, [r2, -r9, asr #6]
    1a90:	001742b7 			; <UNDEFINED> instruction: 0x001742b7
    1a94:	012e1300 			; <UNDEFINED> instruction: 0x012e1300
    1a98:	0b3a0e03 	bleq	e852ac <__bss_end__+0xe7a8cc>
    1a9c:	0b390b3b 	bleq	e44790 <__bss_end__+0xe39db0>
    1aa0:	13491927 	movtne	r1, #39207	; 0x9927
    1aa4:	13010b20 	movwne	r0, #6944	; 0x1b20
    1aa8:	05140000 	ldreq	r0, [r4, #-0]
    1aac:	3a080300 	bcc	2026b4 <__bss_end__+0x1f7cd4>
    1ab0:	390b3b0b 	stmdbcc	fp, {r0, r1, r3, r8, r9, fp, ip, sp}
    1ab4:	0013490b 	andseq	r4, r3, fp, lsl #18
    1ab8:	002e1500 	eoreq	r1, lr, r0, lsl #10
    1abc:	193c193f 	ldmdbne	ip!, {r0, r1, r2, r3, r4, r5, r8, fp, ip}
    1ac0:	0e030e6e 	cdpeq	14, 0, cr0, cr3, cr14, {3}
    1ac4:	0b3b0b3a 	bleq	ec47b4 <__bss_end__+0xeb9dd4>
    1ac8:	00000b39 	andeq	r0, r0, r9, lsr fp
	...

Disassembly of section .debug_loc:

00000000 <.debug_loc>:
       0:	00000000 	andeq	r0, r0, r0
       4:	007c0000 	rsbseq	r0, ip, r0
       8:	007f0000 	rsbseq	r0, pc, r0
       c:	00010000 	andeq	r0, r1, r0
      10:	00007f50 	andeq	r7, r0, r0, asr pc
      14:	00008c00 	andeq	r8, r0, r0, lsl #24
      18:	54000100 	strpl	r0, [r0], #-256	; 0xffffff00
      1c:	0000008c 	andeq	r0, r0, ip, lsl #1
      20:	000000a4 	andeq	r0, r0, r4, lsr #1
      24:	00500001 	subseq	r0, r0, r1
      28:	00000000 	andeq	r0, r0, r0
      2c:	01000000 	mrseq	r0, (UNDEF: 0)
      30:	00002000 	andeq	r2, r0, r0
      34:	00003800 	andeq	r3, r0, r0, lsl #16
      38:	4a000200 	bmi	840 <__code_start__-0x77c0>
      3c:	0000009f 	muleq	r0, pc, r0	; <UNPREDICTABLE>
      40:	00000000 	andeq	r0, r0, r0
      44:	20000100 	andcs	r0, r0, r0, lsl #2
      48:	38000000 	stmdacc	r0, {}	; <UNPREDICTABLE>
      4c:	06000000 	streq	r0, [r0], -r0
      50:	03b0f200 	movseq	pc, #0, 4
	...
      5c:	01000000 	mrseq	r0, (UNDEF: 0)
      60:	00002000 	andeq	r2, r0, r0
      64:	00003800 	andeq	r3, r0, r0, lsl #16
      68:	03000600 	movweq	r0, #1536	; 0x600
      6c:	00009d70 	andeq	r9, r0, r0, ror sp
      70:	0000009f 	muleq	r0, pc, r0	; <UNPREDICTABLE>
      74:	00000000 	andeq	r0, r0, r0
      78:	58000100 	stmdapl	r0, {r8}
      7c:	68000000 	stmdavs	r0, {}	; <UNPREDICTABLE>
      80:	02000000 	andeq	r0, r0, #0, 0
      84:	009f4d00 	addseq	r4, pc, r0, lsl #26
      88:	00000000 	andeq	r0, r0, r0
      8c:	01000000 	mrseq	r0, (UNDEF: 0)
      90:	00005800 	andeq	r5, r0, r0, lsl #16
      94:	00006800 	andeq	r6, r0, r0, lsl #16
      98:	f2000600 	vmax.s8	d0, d0, d0
      9c:	000003b0 			; <UNDEFINED> instruction: 0x000003b0
	...
      a8:	58000100 	stmdapl	r0, {r8}
      ac:	68000000 	stmdavs	r0, {}	; <UNPREDICTABLE>
      b0:	06000000 	streq	r0, [r0], -r0
      b4:	9d700300 	ldclls	3, cr0, [r0, #-0]
      b8:	009f0000 	addseq	r0, pc, r0
	...
      c8:	00031000 	andeq	r1, r3, r0
      cc:	00032800 	andeq	r2, r3, r0, lsl #16
      d0:	50000100 	andpl	r0, r0, r0, lsl #2
      d4:	00000328 	andeq	r0, r0, r8, lsr #6
      d8:	000003a0 	andeq	r0, r0, r0, lsr #7
      dc:	a0560001 	subsge	r0, r6, r1
      e0:	ac000003 	stcge	0, cr0, [r0], {3}
      e4:	04000003 	streq	r0, [r0], #-3
      e8:	5001f300 	andpl	pc, r1, r0, lsl #6
      ec:	0000009f 	muleq	r0, pc, r0	; <UNPREDICTABLE>
	...
      f8:	30000000 	andcc	r0, r0, r0
      fc:	3b000003 	blcc	110 <__code_start__-0x7ef0>
     100:	01000003 	tsteq	r0, r3
     104:	033b5000 	teqeq	fp, #0, 0
     108:	03a00000 	moveq	r0, #0, 0
     10c:	00010000 	andeq	r0, r1, r0
     110:	0003a054 	andeq	sl, r3, r4, asr r0
     114:	0003ac00 	andeq	sl, r3, r0, lsl #24
     118:	70000300 	andvc	r0, r0, r0, lsl #6
     11c:	00009f5c 	andeq	r9, r0, ip, asr pc
	...
     128:	01f40000 	mvnseq	r0, r0
     12c:	02040000 	andeq	r0, r4, #0, 0
     130:	00010000 	andeq	r0, r1, r0
     134:	00020450 	andeq	r0, r2, r0, asr r4
     138:	00031000 	andeq	r1, r3, r0
     13c:	54000100 	strpl	r0, [r0], #-256	; 0xffffff00
	...
     148:	00000001 	andeq	r0, r0, r1
     14c:	00000000 	andeq	r0, r0, r0
     150:	00000208 	andeq	r0, r0, r8, lsl #4
     154:	00000218 	andeq	r0, r0, r8, lsl r2
     158:	5c740003 	ldclpl	0, cr0, [r4], #-12
     15c:	0002189f 	muleq	r2, pc, r8	; <UNPREDICTABLE>
     160:	00028000 	andeq	r8, r2, r0
     164:	55000100 	strpl	r0, [r0, #-256]	; 0xffffff00
     168:	00000280 	andeq	r0, r0, r0, lsl #5
     16c:	000002a8 	andeq	r0, r0, r8, lsr #5
     170:	5c740003 	ldclpl	0, cr0, [r4], #-12
     174:	0002a89f 	muleq	r2, pc, r8	; <UNPREDICTABLE>
     178:	00031000 	andeq	r1, r3, r0
     17c:	55000100 	strpl	r0, [r0, #-256]	; 0xffffff00
	...
     18c:	000001a4 	andeq	r0, r0, r4, lsr #3
     190:	000001af 	andeq	r0, r0, pc, lsr #3
     194:	af500001 	svcge	0x00500001
     198:	f4000001 	vst4.8	{d0-d3}, [r0], r1
     19c:	01000001 	tsteq	r0, r1
     1a0:	00005500 	andeq	r5, r0, r0, lsl #10
	...
     1b0:	01b40000 			; <UNDEFINED> instruction: 0x01b40000
     1b4:	01b80000 			; <UNDEFINED> instruction: 0x01b80000
     1b8:	00010000 	andeq	r0, r1, r0
     1bc:	0001b850 	andeq	fp, r1, r0, asr r8
     1c0:	0001c400 	andeq	ip, r1, r0, lsl #8
     1c4:	54000100 	strpl	r0, [r0], #-256	; 0xffffff00
     1c8:	000001c4 	andeq	r0, r0, r4, asr #3
     1cc:	000001d7 	ldrdeq	r0, [r0], -r7
     1d0:	d7500001 	ldrble	r0, [r0, -r1]
     1d4:	f4000001 	vst4.8	{d0-d3}, [r0], r1
     1d8:	01000001 	tsteq	r0, r1
     1dc:	00005400 	andeq	r5, r0, r0, lsl #8
	...
     1f0:	0000016c 	andeq	r0, r0, ip, ror #2
     1f4:	00000184 	andeq	r0, r0, r4, lsl #3
     1f8:	84500001 	ldrbhi	r0, [r0], #-1
     1fc:	90000001 	andls	r0, r0, r1
     200:	03000001 	movweq	r0, #1
     204:	9f5c7000 	svcls	0x005c7000
     208:	00000190 	muleq	r0, r0, r1
     20c:	00000194 	muleq	r0, r4, r1
     210:	01f30004 	mvnseq	r0, r4
     214:	01949f50 	orrseq	r9, r4, r0, asr pc
     218:	01980000 	orrseq	r0, r8, r0
     21c:	00010000 	andeq	r0, r1, r0
     220:	00019850 	andeq	r9, r1, r0, asr r8
     224:	0001a400 	andeq	sl, r1, r0, lsl #8
     228:	f3000400 	vshl.u8	d0, d0, d0
     22c:	009f5001 	addseq	r5, pc, r1
	...
     238:	58000000 	stmdapl	r0, {}	; <UNPREDICTABLE>
     23c:	64000001 	strvs	r0, [r0], #-1
     240:	01000001 	tsteq	r0, r1
     244:	01645000 	cmneq	r4, r0
     248:	016c0000 	cmneq	ip, r0
     24c:	00040000 	andeq	r0, r4, r0
     250:	9f5001f3 	svcls	0x005001f3
	...
     25c:	01640000 	cmneq	r4, r0
     260:	016c0000 	cmneq	ip, r0
     264:	00010000 	andeq	r0, r1, r0
     268:	00000050 	andeq	r0, r0, r0, asr r0
	...
     274:	00015000 	andeq	r5, r1, r0
     278:	00015400 	andeq	r5, r1, r0, lsl #8
     27c:	50000100 	andpl	r0, r0, r0, lsl #2
     280:	00000154 	andeq	r0, r0, r4, asr r1
     284:	00000158 	andeq	r0, r0, r8, asr r1
     288:	5c700003 	ldclpl	0, cr0, [r0], #-12
     28c:	0000009f 	muleq	r0, pc, r0	; <UNPREDICTABLE>
	...
     298:	00013000 	andeq	r3, r1, r0
     29c:	00013b00 	andeq	r3, r1, r0, lsl #22
     2a0:	50000100 	andpl	r0, r0, r0, lsl #2
     2a4:	0000013b 	andeq	r0, r0, fp, lsr r1
     2a8:	00000148 	andeq	r0, r0, r8, asr #2
     2ac:	00540001 	subseq	r0, r4, r1
	...
     2b8:	00013c00 	andeq	r3, r1, r0, lsl #24
     2bc:	00014000 	andeq	r4, r1, r0
     2c0:	54000100 	strpl	r0, [r0], #-256	; 0xffffff00
	...
     2d0:	00000128 	andeq	r0, r0, r8, lsr #2
     2d4:	0000012c 	andeq	r0, r0, ip, lsr #2
     2d8:	2c500001 	mrrccs	0, 0, r0, r0, cr1	; <UNPREDICTABLE>
     2dc:	30000001 	andcc	r0, r0, r1
     2e0:	03000001 	movweq	r0, #1
     2e4:	9f5c7000 	svcls	0x005c7000
	...
     2f4:	00000084 	andeq	r0, r0, r4, lsl #1
     2f8:	00000090 	muleq	r0, r0, r0
     2fc:	90500001 	subsls	r0, r0, r1
     300:	94000000 	strls	r0, [r0], #-0
     304:	04000000 	streq	r0, [r0], #-0
     308:	5001f300 	andpl	pc, r1, r0, lsl #6
     30c:	0000009f 	muleq	r0, pc, r0	; <UNPREDICTABLE>
	...
     31c:	00005800 	andeq	r5, r0, r0, lsl #16
     320:	50000100 	andpl	r0, r0, r0, lsl #2
     324:	00000058 	andeq	r0, r0, r8, asr r0
     328:	00000074 	andeq	r0, r0, r4, ror r0
     32c:	01f30004 	mvnseq	r0, r4
     330:	00009f50 	andeq	r9, r0, r0, asr pc
	...
     340:	00540000 	subseq	r0, r4, r0
     344:	00010000 	andeq	r0, r1, r0
     348:	00005451 	andeq	r5, r0, r1, asr r4
     34c:	00007400 	andeq	r7, r0, r0, lsl #8
     350:	f3000400 	vshl.u8	d0, d0, d0
     354:	009f5101 	addseq	r5, pc, r1, lsl #2
     358:	00000000 	andeq	r0, r0, r0
     35c:	03000000 	movweq	r0, #0
     360:	00001800 	andeq	r1, r0, r0, lsl #16
     364:	00002800 	andeq	r2, r0, r0, lsl #16
     368:	53000100 	movwpl	r0, #256	; 0x100
	...
     37c:	00000094 	muleq	r0, r4, r0
     380:	000000b0 	strheq	r0, [r0], -r0	; <UNPREDICTABLE>
     384:	b0500001 	subslt	r0, r0, r1
     388:	d8000000 	stmdale	r0, {}	; <UNPREDICTABLE>
     38c:	04000000 	streq	r0, [r0], #-0
     390:	5001f300 	andpl	pc, r1, r0, lsl #6
     394:	0000d89f 	muleq	r0, pc, r8	; <UNPREDICTABLE>
     398:	0000f000 	andeq	pc, r0, r0
     39c:	50000100 	andpl	r0, r0, r0, lsl #2
     3a0:	000000f0 	strdeq	r0, [r0], -r0	; <UNPREDICTABLE>
     3a4:	00000128 	andeq	r0, r0, r8, lsr #2
     3a8:	01f30004 	mvnseq	r0, r4
     3ac:	00009f50 	andeq	r9, r0, r0, asr pc
	...
     3c0:	00000094 	muleq	r0, r4, r0
     3c4:	000000b0 	strheq	r0, [r0], -r0	; <UNPREDICTABLE>
     3c8:	b0510001 	subslt	r0, r1, r1
     3cc:	d8000000 	stmdale	r0, {}	; <UNPREDICTABLE>
     3d0:	01000000 	mrseq	r0, (UNDEF: 0)
     3d4:	00d85400 	sbcseq	r5, r8, r0, lsl #8
     3d8:	00ec0000 	rsceq	r0, ip, r0
     3dc:	00010000 	andeq	r0, r1, r0
     3e0:	0000ec51 	andeq	lr, r0, r1, asr ip
     3e4:	0000f800 	andeq	pc, r0, r0, lsl #16
     3e8:	f3000400 	vshl.u8	d0, d0, d0
     3ec:	f89f5101 			; <UNDEFINED> instruction: 0xf89f5101
     3f0:	28000000 	stmdacs	r0, {}	; <UNPREDICTABLE>
     3f4:	01000001 	tsteq	r0, r1
     3f8:	00005400 	andeq	r5, r0, r0, lsl #8
     3fc:	00000000 	andeq	r0, r0, r0
     400:	00030000 	andeq	r0, r3, r0
     404:	00000100 	andeq	r0, r0, r0, lsl #2
     408:	000000a8 	andeq	r0, r0, r8, lsr #1
     40c:	000000b7 	strheq	r0, [r0], -r7
     410:	b7500001 	ldrblt	r0, [r0, -r1]
     414:	d0000000 	andle	r0, r0, r0
     418:	01000000 	mrseq	r0, (UNDEF: 0)
     41c:	00f85500 	rscseq	r5, r8, r0, lsl #10
     420:	01280000 			; <UNDEFINED> instruction: 0x01280000
     424:	00010000 	andeq	r0, r1, r0
     428:	00000055 	andeq	r0, r0, r5, asr r0
     42c:	00000000 	andeq	r0, r0, r0
     430:	00010000 	andeq	r0, r1, r0
     434:	0000b800 	andeq	fp, r0, r0, lsl #16
     438:	0000d000 	andeq	sp, r0, r0
     43c:	50000100 	andpl	r0, r0, r0, lsl #2
     440:	000000f8 	strdeq	r0, [r0], -r8
     444:	0000010c 	andeq	r0, r0, ip, lsl #2
     448:	00500001 	subseq	r0, r0, r1
	...
     454:	00056800 	andeq	r6, r5, r0, lsl #16
     458:	00056c00 	andeq	r6, r5, r0, lsl #24
     45c:	50000100 	andpl	r0, r0, r0, lsl #2
	...
     468:	00000001 	andeq	r0, r0, r1
     46c:	00000140 	andeq	r0, r0, r0, asr #2
     470:	00000168 	andeq	r0, r0, r8, ror #2
     474:	9f300002 	svcls	0x00300002
     478:	00000168 	andeq	r0, r0, r8, ror #2
     47c:	000001f4 	strdeq	r0, [r0], -r4
     480:	00550001 	subseq	r0, r5, r1
     484:	00000000 	andeq	r0, r0, r0
     488:	01000000 	mrseq	r0, (UNDEF: 0)
     48c:	40000000 	andmi	r0, r0, r0
     490:	68000001 	stmdavs	r0, {r0}
     494:	02000001 	andeq	r0, r0, #1, 0
     498:	689f3000 	ldmvs	pc, {ip, sp}	; <UNPREDICTABLE>
     49c:	f4000001 	vst4.8	{d0-d3}, [r0], r1
     4a0:	01000001 	tsteq	r0, r1
     4a4:	00005700 	andeq	r5, r0, r0, lsl #14
     4a8:	00000000 	andeq	r0, r0, r0
     4ac:	00010000 	andeq	r0, r1, r0
     4b0:	01400000 	mrseq	r0, (UNDEF: 64)
     4b4:	01680000 	cmneq	r8, r0
     4b8:	00020000 	andeq	r0, r2, r0
     4bc:	01689f30 	cmneq	r8, r0, lsr pc
     4c0:	01f40000 	mvnseq	r0, r0
     4c4:	00010000 	andeq	r0, r1, r0
     4c8:	00000056 	andeq	r0, r0, r6, asr r0
	...
     4dc:	58000000 	stmdapl	r0, {}	; <UNPREDICTABLE>
     4e0:	68000001 	stmdavs	r0, {r0}
     4e4:	01000001 	tsteq	r0, r1
     4e8:	01685000 	cmneq	r8, r0
     4ec:	01740000 	cmneq	r4, r0
     4f0:	00010000 	andeq	r0, r1, r0
     4f4:	00017454 	andeq	r7, r1, r4, asr r4
     4f8:	0001c000 	andeq	ip, r1, r0
     4fc:	50000100 	andpl	r0, r0, r0, lsl #2
     500:	000001c0 	andeq	r0, r0, r0, asr #3
     504:	000001c3 	andeq	r0, r0, r3, asr #3
     508:	c3510001 	cmpgt	r1, #1, 0
     50c:	c8000001 	stmdagt	r0, {r0}
     510:	01000001 	tsteq	r0, r1
     514:	01c85400 	biceq	r5, r8, r0, lsl #8
     518:	01d80000 	bicseq	r0, r8, r0
     51c:	00010000 	andeq	r0, r1, r0
     520:	0001d850 	andeq	sp, r1, r0, asr r8
     524:	0001f400 	andeq	pc, r1, r0, lsl #8
     528:	54000100 	strpl	r0, [r0], #-256	; 0xffffff00
	...
     538:	05180000 	ldreq	r0, [r8, #-0]
     53c:	05280000 	streq	r0, [r8, #-0]!
     540:	00010000 	andeq	r0, r1, r0
     544:	00052850 	andeq	r2, r5, r0, asr r8
     548:	00052b00 	andeq	r2, r5, r0, lsl #22
     54c:	51000100 	mrspl	r0, (UNDEF: 16)
     550:	0000052b 	andeq	r0, r0, fp, lsr #10
     554:	0000055c 	andeq	r0, r0, ip, asr r5
     558:	00540001 	subseq	r0, r4, r1
	...
     564:	94000000 	strls	r0, [r0], #-0
     568:	a0000004 	andge	r0, r0, r4
     56c:	01000004 	tsteq	r0, r4
     570:	04a05000 	strteq	r5, [r0], #0
     574:	04c40000 	strbeq	r0, [r4], #0
     578:	00010000 	andeq	r0, r1, r0
     57c:	00000054 	andeq	r0, r0, r4, asr r0
	...
     588:	00035c00 	andeq	r5, r3, r0, lsl #24
     58c:	00037700 	andeq	r7, r3, r0, lsl #14
     590:	50000100 	andpl	r0, r0, r0, lsl #2
     594:	00000378 	andeq	r0, r0, r8, ror r3
     598:	00000380 	andeq	r0, r0, r0, lsl #7
     59c:	00500001 	subseq	r0, r0, r1
	...
     5a8:	3c000000 	stccc	0, cr0, [r0], {-0}
     5ac:	44000000 	strmi	r0, [r0], #-0
     5b0:	01000000 	mrseq	r0, (UNDEF: 0)
     5b4:	00445000 	subeq	r5, r4, r0
     5b8:	013c0000 	teqeq	ip, r0
     5bc:	00040000 	andeq	r0, r4, r0
     5c0:	9f5001f3 	svcls	0x005001f3
	...
     5cc:	00000001 	andeq	r0, r0, r1
     5d0:	00000040 	andeq	r0, r0, r0, asr #32
     5d4:	00000068 	andeq	r0, r0, r8, rrx
     5d8:	9f300002 	svcls	0x00300002
     5dc:	00000068 	andeq	r0, r0, r8, rrx
     5e0:	0000013c 	andeq	r0, r0, ip, lsr r1
     5e4:	00550001 	subseq	r0, r5, r1
     5e8:	00000000 	andeq	r0, r0, r0
     5ec:	01000000 	mrseq	r0, (UNDEF: 0)
     5f0:	40000000 	andmi	r0, r0, r0
     5f4:	68000000 	stmdavs	r0, {}	; <UNPREDICTABLE>
     5f8:	02000000 	andeq	r0, r0, #0, 0
     5fc:	689f3000 	ldmvs	pc, {ip, sp}	; <UNPREDICTABLE>
     600:	3c000000 	stccc	0, cr0, [r0], {-0}
     604:	01000001 	tsteq	r0, r1
     608:	00005700 	andeq	r5, r0, r0, lsl #14
     60c:	00000000 	andeq	r0, r0, r0
     610:	00010000 	andeq	r0, r1, r0
     614:	00400000 	subeq	r0, r0, r0
     618:	00680000 	rsbeq	r0, r8, r0
     61c:	00020000 	andeq	r0, r2, r0
     620:	00689f30 	rsbeq	r9, r8, r0, lsr pc
     624:	013c0000 	teqeq	ip, r0
     628:	00010000 	andeq	r0, r1, r0
     62c:	00000056 	andeq	r0, r0, r6, asr r0
	...
     63c:	00005800 	andeq	r5, r0, r0, lsl #16
     640:	00008c00 	andeq	r8, r0, r0, lsl #24
     644:	50000100 	andpl	r0, r0, r0, lsl #2
     648:	0000008c 	andeq	r0, r0, ip, lsl #1
     64c:	0000009c 	muleq	r0, ip, r0
     650:	9c540001 	mrrcls	0, 0, r0, r4, cr1
     654:	e8000000 	stmda	r0, {}	; <UNPREDICTABLE>
     658:	01000000 	mrseq	r0, (UNDEF: 0)
     65c:	00e85000 	rsceq	r5, r8, r0
     660:	013c0000 	teqeq	ip, r0
     664:	00010000 	andeq	r0, r1, r0
     668:	00000054 	andeq	r0, r0, r4, asr r0
	...
     67c:	1c000000 	stcne	0, cr0, [r0], {-0}
     680:	64000002 	strvs	r0, [r0], #-2
     684:	01000002 	tsteq	r0, r2
     688:	02645000 	rsbeq	r5, r4, #0, 0
     68c:	026c0000 	rsbeq	r0, ip, #0, 0
     690:	00040000 	andeq	r0, r4, r0
     694:	9f5001f3 	svcls	0x005001f3
     698:	0000026c 	andeq	r0, r0, ip, ror #4
     69c:	00000284 	andeq	r0, r0, r4, lsl #5
     6a0:	84500001 	ldrbhi	r0, [r0], #-1
     6a4:	8c000002 	stchi	0, cr0, [r0], {2}
     6a8:	01000002 	tsteq	r0, r2
     6ac:	028c5700 	addeq	r5, ip, #0, 14
     6b0:	02a40000 	adceq	r0, r4, #0, 0
     6b4:	00010000 	andeq	r0, r1, r0
     6b8:	0002a450 	andeq	sl, r2, r0, asr r4
     6bc:	00033800 	andeq	r3, r3, r0, lsl #16
     6c0:	57000100 	strpl	r0, [r0, -r0, lsl #2]
     6c4:	00000338 	andeq	r0, r0, r8, lsr r3
     6c8:	00000350 	andeq	r0, r0, r0, asr r3
     6cc:	01f30004 	mvnseq	r0, r4
     6d0:	00009f50 	andeq	r9, r0, r0, asr pc
	...
     6e8:	021c0000 	andseq	r0, ip, #0, 0
     6ec:	02440000 	subeq	r0, r4, #0, 0
     6f0:	00010000 	andeq	r0, r1, r0
     6f4:	00024451 	andeq	r4, r2, r1, asr r4
     6f8:	00024c00 	andeq	r4, r2, r0, lsl #24
     6fc:	f3000400 	vshl.u8	d0, d0, d0
     700:	4c9f5101 	ldfmis	f5, [pc], {1}
     704:	60000002 	andvs	r0, r0, r2
     708:	01000002 	tsteq	r0, r2
     70c:	02605100 	rsbeq	r5, r0, #0
     710:	026c0000 	rsbeq	r0, ip, #0, 0
     714:	00040000 	andeq	r0, r4, r0
     718:	9f5101f3 	svcls	0x005101f3
     71c:	0000026c 	andeq	r0, r0, ip, ror #4
     720:	00000280 	andeq	r0, r0, r0, lsl #5
     724:	80510001 	subshi	r0, r1, r1
     728:	8c000002 	stchi	0, cr0, [r0], {2}
     72c:	04000002 	streq	r0, [r0], #-2
     730:	5101f300 	mrspl	pc, SP_irq	; <UNPREDICTABLE>
     734:	00028c9f 	muleq	r2, pc, ip	; <UNPREDICTABLE>
     738:	0002a000 	andeq	sl, r2, r0
     73c:	51000100 	mrspl	r0, (UNDEF: 16)
     740:	000002a0 	andeq	r0, r0, r0, lsr #5
     744:	00000350 	andeq	r0, r0, r0, asr r3
     748:	01f30004 	mvnseq	r0, r4
     74c:	00009f51 	andeq	r9, r0, r1, asr pc
	...
     75c:	00000248 	andeq	r0, r0, r8, asr #4
     760:	0000024c 	andeq	r0, r0, ip, asr #4
     764:	ac560001 	mrrcge	0, 0, r0, r6, cr1
     768:	38000002 	stmdacc	r0, {r1}
     76c:	01000003 	tsteq	r0, r3
     770:	03385600 	teqeq	r8, #0, 12
     774:	03500000 	cmpeq	r0, #0, 0
     778:	000a0000 	andeq	r0, sl, r0
     77c:	f35101f3 	vbsl	q8, <illegal reg q8.5>, <illegal reg q9.5>
     780:	321c5001 	andscc	r5, ip, #1, 0
     784:	00009f26 	andeq	r9, r0, r6, lsr #30
     788:	00000000 	andeq	r0, r0, r0
     78c:	00020000 	andeq	r0, r2, r0
     790:	02480000 	subeq	r0, r8, #0, 0
     794:	024c0000 	subeq	r0, ip, #0, 0
     798:	00020000 	andeq	r0, r2, r0
     79c:	02ac9f30 	adceq	r9, ip, #48, 30	; 0xc0
     7a0:	03380000 	teqeq	r8, #0, 0
     7a4:	00010000 	andeq	r0, r1, r0
     7a8:	00000055 	andeq	r0, r0, r5, asr r0
	...
     7b4:	ac000000 	stcge	0, cr0, [r0], {-0}
     7b8:	cc000002 	stcgt	0, cr0, [r0], {2}
     7bc:	01000002 	tsteq	r0, r2
     7c0:	02e05400 	rsceq	r5, r0, #0, 8
     7c4:	03070000 	movweq	r0, #28672	; 0x7000
     7c8:	00010000 	andeq	r0, r1, r0
     7cc:	00030750 	andeq	r0, r3, r0, asr r7
     7d0:	00033000 	andeq	r3, r3, r0
     7d4:	54000100 	strpl	r0, [r0], #-256	; 0xffffff00
	...
     7e4:	000002bc 			; <UNDEFINED> instruction: 0x000002bc
     7e8:	000002c7 	andeq	r0, r0, r7, asr #5
     7ec:	c7500001 	ldrbgt	r0, [r0, -r1]
     7f0:	c8000002 	stmdagt	r0, {r1}
     7f4:	03000002 	movweq	r0, #2
     7f8:	9f247400 	svcls	0x00247400
	...
     808:	000002c0 	andeq	r0, r0, r0, asr #5
     80c:	000002c4 	andeq	r0, r0, r4, asr #5
     810:	00700006 	rsbseq	r0, r0, r6
     814:	9f220071 	svcls	0x00220071
     818:	000002c4 	andeq	r0, r0, r4, asr #5
     81c:	000002c7 	andeq	r0, r0, r7, asr #5
     820:	00510001 	subseq	r0, r1, r1
	...
     82c:	f4000000 	vst4.8	{d0-d3}, [r0], r0
     830:	ff000001 			; <UNDEFINED> instruction: 0xff000001
     834:	01000001 	tsteq	r0, r1
     838:	01ff5000 	mvnseq	r5, r0
     83c:	021c0000 	andseq	r0, ip, #0, 0
     840:	00010000 	andeq	r0, r1, r0
     844:	00000054 	andeq	r0, r0, r4, asr r0
     848:	00000000 	andeq	r0, r0, r0
     84c:	00000100 	andeq	r0, r0, r0, lsl #2
     850:	0001fc00 	andeq	pc, r1, r0, lsl #24
     854:	0001ff00 	andeq	pc, r1, r0, lsl #30
     858:	50000100 	andpl	r0, r0, r0, lsl #2
     85c:	000001ff 	strdeq	r0, [r0], -pc	; <UNPREDICTABLE>
     860:	0000021c 	andeq	r0, r0, ip, lsl r2
     864:	00540001 	subseq	r0, r4, r1
	...
     87c:	24000000 	strcs	r0, [r0], #-0
     880:	01000000 	mrseq	r0, (UNDEF: 0)
     884:	00245000 	eoreq	r5, r4, r0
     888:	00280000 	eoreq	r0, r8, r0
     88c:	00040000 	andeq	r0, r4, r0
     890:	9f5001f3 	svcls	0x005001f3
     894:	00000028 	andeq	r0, r0, r8, lsr #32
     898:	0000002c 	andeq	r0, r0, ip, lsr #32
     89c:	2c500001 	mrrccs	0, 0, r0, r0, cr1	; <UNPREDICTABLE>
     8a0:	30000000 	andcc	r0, r0, r0
     8a4:	04000000 	streq	r0, [r0], #-0
     8a8:	5001f300 	andpl	pc, r1, r0, lsl #6
     8ac:	0000309f 	muleq	r0, pc, r0	; <UNPREDICTABLE>
     8b0:	00003400 	andeq	r3, r0, r0, lsl #8
     8b4:	50000100 	andpl	r0, r0, r0, lsl #2
     8b8:	00000034 	andeq	r0, r0, r4, lsr r0
     8bc:	0000003c 	andeq	r0, r0, ip, lsr r0
     8c0:	01f30004 	mvnseq	r0, r4
     8c4:	00009f50 	andeq	r9, r0, r0, asr pc
	...
     8d0:	03e00000 	mvneq	r0, #0, 0
     8d4:	03f00000 	mvnseq	r0, #0, 0
     8d8:	00010000 	andeq	r0, r1, r0
     8dc:	0003f050 	andeq	pc, r3, r0, asr r0	; <UNPREDICTABLE>
     8e0:	00049400 	andeq	r9, r4, r0, lsl #8
     8e4:	54000100 	strpl	r0, [r0], #-256	; 0xffffff00
	...
     8f0:	040c0002 	streq	r0, [ip], #-2
     8f4:	04400000 	strbeq	r0, [r0], #-0
     8f8:	00040000 	andeq	r0, r4, r0
     8fc:	9f244040 	svcls	0x00244040
	...
     910:	00000008 	andeq	r0, r0, r8
     914:	00000078 	andeq	r0, r0, r8, ror r0
     918:	78510001 	ldmdavc	r1, {r0}^
     91c:	84000000 	strhi	r0, [r0], #-0
     920:	03000000 	movweq	r0, #0
     924:	9f787000 	svcls	0x00787000
     928:	00000084 	andeq	r0, r0, r4, lsl #1
     92c:	000000a4 	andeq	r0, r0, r4, lsr #1
     930:	a4510001 	ldrbge	r0, [r1], #-1
     934:	bc000000 	stclt	0, cr0, [r0], {-0}
     938:	03000000 	movweq	r0, #0
     93c:	9f787000 	svcls	0x00787000
	...
     94c:	00000010 	andeq	r0, r0, r0, lsl r0
     950:	00000048 	andeq	r0, r0, r8, asr #32
     954:	4c530001 	mrrcmi	0, 0, r0, r3, cr1
     958:	bc000000 	stclt	0, cr0, [r0], {-0}
     95c:	01000000 	mrseq	r0, (UNDEF: 0)
     960:	00005300 	andeq	r5, r0, r0, lsl #6
	...
     970:	01000000 	mrseq	r0, (UNDEF: 0)
     974:	01240000 			; <UNDEFINED> instruction: 0x01240000
     978:	00010000 	andeq	r0, r1, r0
     97c:	00012450 	andeq	r2, r1, r0, asr r4
     980:	00012800 	andeq	r2, r1, r0, lsl #16
     984:	f3000400 	vshl.u8	d0, d0, d0
     988:	289f5001 	ldmcs	pc, {r0, ip, lr}	; <UNPREDICTABLE>
     98c:	40000001 	andmi	r0, r0, r1
     990:	01000001 	tsteq	r0, r1
     994:	01405000 	mrseq	r5, (UNDEF: 64)
     998:	01ac0000 			; <UNDEFINED> instruction: 0x01ac0000
     99c:	00040000 	andeq	r0, r4, r0
     9a0:	9f5001f3 	svcls	0x005001f3
	...
     9b0:	01000000 	mrseq	r0, (UNDEF: 0)
     9b4:	00000001 	andeq	r0, r0, r1
     9b8:	01240000 			; <UNDEFINED> instruction: 0x01240000
     9bc:	01280000 			; <UNDEFINED> instruction: 0x01280000
     9c0:	00010000 	andeq	r0, r1, r0
     9c4:	00014050 	andeq	r4, r1, r0, asr r0
     9c8:	00016000 	andeq	r6, r1, r0
     9cc:	50000100 	andpl	r0, r0, r0, lsl #2
     9d0:	00000160 	andeq	r0, r0, r0, ror #2
     9d4:	00000164 	andeq	r0, r0, r4, ror #2
     9d8:	78700003 	ldmdavc	r0!, {r0, r1}^
     9dc:	0001649f 	muleq	r1, pc, r4	; <UNPREDICTABLE>
     9e0:	00017000 	andeq	r7, r1, r0
     9e4:	50000100 	andpl	r0, r0, r0, lsl #2
     9e8:	00000170 	andeq	r0, r0, r0, ror r1
     9ec:	00000178 	andeq	r0, r0, r8, ror r1
     9f0:	00700002 	rsbseq	r0, r0, r2
     9f4:	00000178 	andeq	r0, r0, r8, ror r1
     9f8:	00000198 	muleq	r0, r8, r1
     9fc:	9c500001 	mrrcls	0, 0, r0, r0, cr1	; <UNPREDICTABLE>
     a00:	ac000001 	stcge	0, cr0, [r0], {1}
     a04:	01000001 	tsteq	r0, r1
     a08:	00005000 	andeq	r5, r0, r0
     a0c:	00000000 	andeq	r0, r0, r0
     a10:	01000000 	mrseq	r0, (UNDEF: 0)
     a14:	00000001 	andeq	r0, r0, r1
     a18:	00000001 	andeq	r0, r0, r1
     a1c:	00000118 	andeq	r0, r0, r8, lsl r1
     a20:	00000128 	andeq	r0, r0, r8, lsr #2
     a24:	28520001 	ldmdacs	r2, {r0}^
     a28:	40000001 	andmi	r0, r0, r1
     a2c:	06000001 	streq	r0, [r0], -r1
     a30:	a5d00300 	ldrbge	r0, [r0, #768]	; 0x300
     a34:	409f0000 	addsmi	r0, pc, r0
     a38:	70000001 	andvc	r0, r0, r1
     a3c:	01000001 	tsteq	r0, r1
     a40:	01705200 	cmneq	r0, r0, lsl #4
     a44:	01780000 	cmneq	r8, r0
     a48:	00010000 	andeq	r0, r1, r0
     a4c:	00017850 	andeq	r7, r1, r0, asr r8
     a50:	00019b00 	andeq	r9, r1, r0, lsl #22
     a54:	52000100 	andpl	r0, r0, #0
	...
     a60:	01100000 	tsteq	r0, r0
     a64:	01ac0000 			; <UNDEFINED> instruction: 0x01ac0000
     a68:	00010000 	andeq	r0, r1, r0
     a6c:	00000054 	andeq	r0, r0, r4, asr r0
	...
     a78:	0000bc00 	andeq	fp, r0, r0, lsl #24
     a7c:	0000cc00 	andeq	ip, r0, r0, lsl #24
     a80:	50000100 	andpl	r0, r0, r0, lsl #2
     a84:	000000cc 	andeq	r0, r0, ip, asr #1
     a88:	00000100 	andeq	r0, r0, r0, lsl #2
     a8c:	00540001 	subseq	r0, r4, r1
	...
     a9c:	0000d400 	andeq	sp, r0, r0, lsl #8
     aa0:	0000e400 	andeq	lr, r0, r0, lsl #8
     aa4:	50000100 	andpl	r0, r0, r0, lsl #2
     aa8:	000000e4 	andeq	r0, r0, r4, ror #1
     aac:	000000e7 	andeq	r0, r0, r7, ror #1
     ab0:	78700003 	ldmdavc	r0!, {r0, r1}^
     ab4:	0000f49f 	muleq	r0, pc, r4	; <UNPREDICTABLE>
     ab8:	0000f800 	andeq	pc, r0, r0, lsl #16
     abc:	50000100 	andpl	r0, r0, r0, lsl #2
	...
     ac8:	00000001 	andeq	r0, r0, r1
     acc:	000000dc 	ldrdeq	r0, [r0], -ip
     ad0:	000000e4 	andeq	r0, r0, r4, ror #1
     ad4:	e4500001 	ldrb	r0, [r0], #-1
     ad8:	e7000000 	str	r0, [r0, -r0]
     adc:	03000000 	movweq	r0, #0
     ae0:	9f787000 	svcls	0x00787000
	...
     af4:	00000004 	andeq	r0, r0, r4
     af8:	04520001 	ldrbeq	r0, [r2], #-1
     afc:	18000000 	stmdane	r0, {}	; <UNPREDICTABLE>
     b00:	04000000 	streq	r0, [r0], #-0
     b04:	5201f300 	andpl	pc, r1, #0, 6
     b08:	0000009f 	muleq	r0, pc, r0	; <UNPREDICTABLE>
     b0c:	00000000 	andeq	r0, r0, r0
     b10:	00000200 	andeq	r0, r0, r0, lsl #4
     b14:	00000101 	andeq	r0, r0, r1, lsl #2
     b18:	00000000 	andeq	r0, r0, r0
     b1c:	00000800 	andeq	r0, r0, r0, lsl #16
     b20:	50000100 	andpl	r0, r0, r0, lsl #2
     b24:	00000008 	andeq	r0, r0, r8
     b28:	00000010 	andeq	r0, r0, r0, lsl r0
     b2c:	10530001 	subsne	r0, r3, r1
     b30:	14000000 	strne	r0, [r0], #-0
     b34:	03000000 	movweq	r0, #0
     b38:	9f017300 	svcls	0x00017300
     b3c:	00000014 	andeq	r0, r0, r4, lsl r0
     b40:	00000018 	andeq	r0, r0, r8, lsl r0
     b44:	00530001 	subseq	r0, r3, r1
	...
     b50:	00000400 	andeq	r0, r0, r0, lsl #8
     b54:	00001800 	andeq	r1, r0, r0, lsl #16
     b58:	52000100 	andpl	r0, r0, #0
	...
     b68:	002c0000 	eoreq	r0, ip, r0
     b6c:	00380000 	eorseq	r0, r8, r0
     b70:	00010000 	andeq	r0, r1, r0
     b74:	00003850 	andeq	r3, r0, r0, asr r8
     b78:	00004800 	andeq	r4, r0, r0, lsl #16
     b7c:	54000100 	strpl	r0, [r0], #-256	; 0xffffff00
     b80:	00000048 	andeq	r0, r0, r8, asr #32
     b84:	00000058 	andeq	r0, r0, r8, asr r0
     b88:	00500001 	subseq	r0, r0, r1
	...
     b94:	00000101 	andeq	r0, r0, r1, lsl #2
     b98:	08000000 	stmdaeq	r0, {}	; <UNPREDICTABLE>
     b9c:	01000000 	mrseq	r0, (UNDEF: 0)
     ba0:	00085000 	andeq	r5, r8, r0
     ba4:	00340000 	eorseq	r0, r4, r0
     ba8:	00010000 	andeq	r0, r1, r0
     bac:	00000054 	andeq	r0, r0, r4, asr r0
	...
     bb8:	88000000 	stmdahi	r0, {}	; <UNPREDICTABLE>
     bbc:	b8000002 	stmdalt	r0, {r1}
     bc0:	01000002 	tsteq	r0, r2
     bc4:	02b85000 	adcseq	r5, r8, #0, 0
     bc8:	07040000 	streq	r0, [r4, -r0]
     bcc:	00010000 	andeq	r0, r1, r0
     bd0:	00070459 	andeq	r0, r7, r9, asr r4
     bd4:	00074000 	andeq	r4, r7, r0
     bd8:	f3000400 	vshl.u8	d0, d0, d0
     bdc:	009f5001 	addseq	r5, pc, r1
	...
     bec:	00028800 	andeq	r8, r2, r0, lsl #16
     bf0:	0002a000 	andeq	sl, r2, r0
     bf4:	51000100 	mrspl	r0, (UNDEF: 16)
     bf8:	000002a0 	andeq	r0, r0, r0, lsr #5
     bfc:	000002b8 			; <UNDEFINED> instruction: 0x000002b8
     c00:	01710003 	cmneq	r1, r3
     c04:	0002b89f 	muleq	r2, pc, r8	; <UNPREDICTABLE>
     c08:	00074000 	andeq	r4, r7, r0
     c0c:	f3000400 	vshl.u8	d0, d0, d0
     c10:	009f5101 	addseq	r5, pc, r1, lsl #2
	...
     c24:	88000000 	stmdahi	r0, {}	; <UNPREDICTABLE>
     c28:	b8000002 	stmdalt	r0, {r1}
     c2c:	01000002 	tsteq	r0, r2
     c30:	02b85200 	adcseq	r5, r8, #0, 4
     c34:	03ec0000 	mvneq	r0, #0, 0
     c38:	00010000 	andeq	r0, r1, r0
     c3c:	0003ec56 	andeq	lr, r3, r6, asr ip
     c40:	0004b800 	andeq	fp, r4, r0, lsl #16
     c44:	5b000100 	blpl	104c <__code_start__-0x6fb4>
     c48:	000004b8 			; <UNDEFINED> instruction: 0x000004b8
     c4c:	000004d8 	ldrdeq	r0, [r0], -r8
     c50:	d8560001 	ldmdale	r6, {r0}^
     c54:	5c000004 	stcpl	0, cr0, [r0], {4}
     c58:	01000005 	tsteq	r0, r5
     c5c:	055c5b00 	ldrbeq	r5, [ip, #-2816]	; 0xfffff500
     c60:	07040000 	streq	r0, [r4, -r0]
     c64:	00010000 	andeq	r0, r1, r0
     c68:	00000056 	andeq	r0, r0, r6, asr r0
     c6c:	00000000 	andeq	r0, r0, r0
     c70:	00000100 	andeq	r0, r0, r0, lsl #2
     c74:	00000000 	andeq	r0, r0, r0
     c78:	00000101 	andeq	r0, r0, r1, lsl #2
     c7c:	00000000 	andeq	r0, r0, r0
     c80:	00000202 	andeq	r0, r0, r2, lsl #4
     c84:	00029c00 	andeq	r9, r2, r0, lsl #24
     c88:	0002b800 	andeq	fp, r2, r0, lsl #16
     c8c:	50000100 	andpl	r0, r0, r0, lsl #2
     c90:	000002b8 			; <UNDEFINED> instruction: 0x000002b8
     c94:	000002bc 			; <UNDEFINED> instruction: 0x000002bc
     c98:	bc540001 	mrrclt	0, 0, r0, r4, cr1
     c9c:	c0000002 	andgt	r0, r0, r2
     ca0:	03000002 	movweq	r0, #2
     ca4:	9f017400 	svcls	0x00017400
     ca8:	000002c0 	andeq	r0, r0, r0, asr #5
     cac:	000002e4 	andeq	r0, r0, r4, ror #5
     cb0:	e4540001 	ldrb	r0, [r4], #-1
     cb4:	e8000002 	stmda	r0, {r1}
     cb8:	03000002 	movweq	r0, #2
     cbc:	9f017400 	svcls	0x00017400
     cc0:	000002e8 	andeq	r0, r0, r8, ror #5
     cc4:	000006d4 	ldrdeq	r0, [r0], -r4
     cc8:	d4540001 	ldrble	r0, [r4], #-1
     ccc:	d8000006 	stmdale	r0, {r1, r2}
     cd0:	03000006 	movweq	r0, #6
     cd4:	9f017400 	svcls	0x00017400
     cd8:	000006d8 	ldrdeq	r0, [r0], -r8
     cdc:	000006f0 	strdeq	r0, [r0], -r0	; <UNPREDICTABLE>
     ce0:	f0540001 			; <UNDEFINED> instruction: 0xf0540001
     ce4:	f8000006 			; <UNDEFINED> instruction: 0xf8000006
     ce8:	03000006 	movweq	r0, #6
     cec:	9f017400 	svcls	0x00017400
     cf0:	000006f8 	strdeq	r0, [r0], -r8
     cf4:	00000704 	andeq	r0, r0, r4, lsl #14
     cf8:	00540001 	subseq	r0, r4, r1
	...
     d04:	a4000000 	strge	r0, [r0], #-0
     d08:	04000002 	streq	r0, [r0], #-2
     d0c:	01000007 	tsteq	r0, r7
     d10:	07045800 	streq	r5, [r4, -r0, lsl #16]
     d14:	07400000 	strbeq	r0, [r0, -r0]
     d18:	000a0000 	andeq	r0, sl, r0
     d1c:	f35101f3 	vbsl	q8, <illegal reg q8.5>, <illegal reg q9.5>
     d20:	31225001 			; <UNDEFINED> instruction: 0x31225001
     d24:	00009f1c 	andeq	r9, r0, ip, lsl pc
     d28:	00000000 	andeq	r0, r0, r0
     d2c:	00010000 	andeq	r0, r1, r0
     d30:	00000000 	andeq	r0, r0, r0
     d34:	00000408 	andeq	r0, r0, r8, lsl #8
     d38:	00000474 	andeq	r0, r0, r4, ror r4
     d3c:	d8570001 	ldmdale	r7, {r0}^
     d40:	fc000004 	stc2	0, cr0, [r0], {4}
     d44:	01000004 	tsteq	r0, r4
     d48:	05405700 	strbeq	r5, [r0, #-1792]	; 0xfffff900
     d4c:	055c0000 	ldrbeq	r0, [ip, #-0]
     d50:	00010000 	andeq	r0, r1, r0
     d54:	00000057 	andeq	r0, r0, r7, asr r0
     d58:	00000000 	andeq	r0, r0, r0
     d5c:	00000200 	andeq	r0, r0, r0, lsl #4
     d60:	00040800 	andeq	r0, r4, r0, lsl #16
     d64:	0004b800 	andeq	fp, r4, r0, lsl #16
     d68:	5a000100 	bpl	1170 <__code_start__-0x6e90>
     d6c:	000004d8 	ldrdeq	r0, [r0], -r8
     d70:	0000055c 	andeq	r0, r0, ip, asr r5
     d74:	005a0001 	subseq	r0, sl, r1
     d78:	00000000 	andeq	r0, r0, r0
     d7c:	01000000 	mrseq	r0, (UNDEF: 0)
     d80:	ac000000 	stcge	0, cr0, [r0], {-0}
     d84:	b8000002 	stmdalt	r0, {r1}
     d88:	01000002 	tsteq	r0, r2
     d8c:	02b85200 	adcseq	r5, r8, #0, 4
     d90:	07400000 	strbeq	r0, [r0, -r0]
     d94:	00030000 	andeq	r0, r3, r0
     d98:	007dc891 			; <UNDEFINED> instruction: 0x007dc891
	...
     dac:	00000101 	andeq	r0, r0, r1, lsl #2
	...
     db8:	00047400 	andeq	r7, r4, r0, lsl #8
     dbc:	00048c00 	andeq	r8, r4, r0, lsl #24
     dc0:	50000100 	andpl	r0, r0, r0, lsl #2
     dc4:	0000048c 	andeq	r0, r0, ip, lsl #9
     dc8:	000004b8 			; <UNDEFINED> instruction: 0x000004b8
     dcc:	fc570001 	mrrc2	0, 0, r0, r7, cr1
     dd0:	14000004 	strne	r0, [r0], #-4
     dd4:	01000005 	tsteq	r0, r5
     dd8:	05145000 	ldreq	r5, [r4, #-0]
     ddc:	05400000 	strbeq	r0, [r0, #-0]
     de0:	00010000 	andeq	r0, r1, r0
     de4:	0005a457 	andeq	sl, r5, r7, asr r4
     de8:	0005a400 	andeq	sl, r5, r0, lsl #8
     dec:	50000100 	andpl	r0, r0, r0, lsl #2
     df0:	000005a4 	andeq	r0, r0, r4, lsr #11
     df4:	000005ac 	andeq	r0, r0, ip, lsr #11
     df8:	dc570001 	mrrcle	0, 0, r0, r7, cr1
     dfc:	e0000005 	and	r0, r0, r5
     e00:	01000005 	tsteq	r0, r5
     e04:	06105000 	ldreq	r5, [r0], -r0
     e08:	06140000 	ldreq	r0, [r4], -r0
     e0c:	00010000 	andeq	r0, r1, r0
     e10:	00064450 	andeq	r4, r6, r0, asr r4
     e14:	00064800 	andeq	r4, r6, r0, lsl #16
     e18:	50000100 	andpl	r0, r0, r0, lsl #2
     e1c:	0000068c 	andeq	r0, r0, ip, lsl #13
     e20:	00000690 	muleq	r0, r0, r6
     e24:	d0500001 	subsle	r0, r0, r1
     e28:	f0000006 			; <UNDEFINED> instruction: 0xf0000006
     e2c:	01000006 	tsteq	r0, r6
     e30:	00005700 	andeq	r5, r0, r0, lsl #14
     e34:	00000000 	andeq	r0, r0, r0
     e38:	00020000 	andeq	r0, r2, r0
     e3c:	00000000 	andeq	r0, r0, r0
     e40:	000002f4 	strdeq	r0, [r0], -r4
     e44:	000002f8 	strdeq	r0, [r0], -r8
     e48:	9f300002 	svcls	0x00300002
     e4c:	000002f8 	strdeq	r0, [r0], -r8
     e50:	00000314 	andeq	r0, r0, r4, lsl r3
     e54:	1c550001 	mrrcne	0, 0, r0, r5, cr1
     e58:	f0000003 			; <UNDEFINED> instruction: 0xf0000003
     e5c:	01000006 	tsteq	r0, r6
     e60:	00005500 	andeq	r5, r0, r0, lsl #10
     e64:	00000000 	andeq	r0, r0, r0
     e68:	00010000 	andeq	r0, r1, r0
	...
     e74:	000003b8 			; <UNDEFINED> instruction: 0x000003b8
     e78:	00000454 	andeq	r0, r0, r4, asr r4
     e7c:	54560001 	ldrbpl	r0, [r6], #-1
     e80:	b8000004 	stmdalt	r0, {r2}
     e84:	03000004 	movweq	r0, #4
     e88:	9f7e7b00 	svcls	0x007e7b00
     e8c:	000004b8 			; <UNDEFINED> instruction: 0x000004b8
     e90:	000004dc 	ldrdeq	r0, [r0], -ip
     e94:	dc560001 	mrrcle	0, 0, r0, r6, cr1
     e98:	40000004 	andmi	r0, r0, r4
     e9c:	03000005 	movweq	r0, #5
     ea0:	9f7e7b00 	svcls	0x007e7b00
     ea4:	00000540 	andeq	r0, r0, r0, asr #10
     ea8:	0000055c 	andeq	r0, r0, ip, asr r5
     eac:	00560001 	subseq	r0, r6, r1
	...
     ebc:	00007000 	andeq	r7, r0, r0
     ec0:	00009400 	andeq	r9, r0, r0, lsl #8
     ec4:	50000100 	andpl	r0, r0, r0, lsl #2
     ec8:	00000094 	muleq	r0, r4, r0
     ecc:	000000fc 	strdeq	r0, [r0], -ip
     ed0:	02700003 	rsbseq	r0, r0, #3, 0
     ed4:	0000fc9f 	muleq	r0, pc, ip	; <UNPREDICTABLE>
     ed8:	00022400 	andeq	r2, r2, r0, lsl #8
     edc:	f3000400 	vshl.u8	d0, d0, d0
     ee0:	009f5001 	addseq	r5, pc, r1
	...
     ef8:	70000000 	andvc	r0, r0, r0
     efc:	e0000000 	and	r0, r0, r0
     f00:	01000000 	mrseq	r0, (UNDEF: 0)
     f04:	00e05100 	rsceq	r5, r0, r0, lsl #2
     f08:	01540000 	cmpeq	r4, r0
     f0c:	00010000 	andeq	r0, r1, r0
     f10:	00015455 	andeq	r5, r1, r5, asr r4
     f14:	00015800 	andeq	r5, r1, r0, lsl #16
     f18:	51000100 	mrspl	r0, (UNDEF: 16)
     f1c:	00000158 	andeq	r0, r0, r8, asr r1
     f20:	000001b0 			; <UNDEFINED> instruction: 0x000001b0
     f24:	b0550001 	subslt	r0, r5, r1
     f28:	c0000001 	andgt	r0, r0, r1
     f2c:	01000001 	tsteq	r0, r1
     f30:	01c05100 	biceq	r5, r0, r0, lsl #2
     f34:	01e40000 	mvneq	r0, r0
     f38:	00010000 	andeq	r0, r1, r0
     f3c:	0001e455 	andeq	lr, r1, r5, asr r4
     f40:	0001f800 	andeq	pc, r1, r0, lsl #16
     f44:	51000100 	mrspl	r0, (UNDEF: 16)
     f48:	000001f8 	strdeq	r0, [r0], -r8
     f4c:	00000224 	andeq	r0, r0, r4, lsr #4
     f50:	00550001 	subseq	r0, r5, r1
	...
     f5c:	70000000 	andvc	r0, r0, r0
     f60:	84000000 	strhi	r0, [r0], #-0
     f64:	01000000 	mrseq	r0, (UNDEF: 0)
     f68:	00845200 	addeq	r5, r4, r0, lsl #4
     f6c:	02240000 	eoreq	r0, r4, #0, 0
     f70:	00010000 	andeq	r0, r1, r0
     f74:	00000054 	andeq	r0, r0, r4, asr r0
	...
     f80:	00010000 	andeq	r0, r1, r0
     f84:	00000000 	andeq	r0, r0, r0
     f88:	00007000 	andeq	r7, r0, r0
     f8c:	0000f400 	andeq	pc, r0, r0, lsl #8
     f90:	53000100 	movwpl	r0, #256	; 0x100
     f94:	0000014c 	andeq	r0, r0, ip, asr #2
     f98:	00000180 	andeq	r0, r0, r0, lsl #3
     f9c:	80530001 	subshi	r0, r3, r1
     fa0:	8c000001 	stchi	0, cr0, [r0], {1}
     fa4:	04000001 	streq	r0, [r0], #-1
     fa8:	5301f300 	movwpl	pc, #4864	; 0x1300	; <UNPREDICTABLE>
     fac:	0001b09f 	muleq	r1, pc, r0	; <UNPREDICTABLE>
     fb0:	0001e800 	andeq	lr, r1, r0, lsl #16
     fb4:	53000100 	movwpl	r0, #256	; 0x100
     fb8:	000001e8 	andeq	r0, r0, r8, ror #3
     fbc:	000001ff 	strdeq	r0, [r0], -pc	; <UNPREDICTABLE>
     fc0:	ff5c0001 			; <UNDEFINED> instruction: 0xff5c0001
     fc4:	24000001 	strcs	r0, [r0], #-1
     fc8:	04000002 	streq	r0, [r0], #-2
     fcc:	5301f300 	movwpl	pc, #4864	; 0x1300	; <UNPREDICTABLE>
     fd0:	0000009f 	muleq	r0, pc, r0	; <UNPREDICTABLE>
	...
     fdc:	70000000 	andvc	r0, r0, r0
     fe0:	8c000000 	stchi	0, cr0, [r0], {-0}
     fe4:	02000000 	andeq	r0, r0, #0, 0
     fe8:	8c009100 	stfhid	f1, [r0], {-0}
     fec:	93000000 	movwls	r0, #0
     ff0:	01000001 	tsteq	r0, r1
     ff4:	01b05200 	lslseq	r5, r0, #4
     ff8:	01f40000 	mvnseq	r0, r0
     ffc:	00010000 	andeq	r0, r1, r0
    1000:	00000052 	andeq	r0, r0, r2, asr r0
    1004:	00000000 	andeq	r0, r0, r0
    1008:	00000100 	andeq	r0, r0, r0, lsl #2
    100c:	00000101 	andeq	r0, r0, r1, lsl #2
    1010:	00000000 	andeq	r0, r0, r0
    1014:	01010000 	mrseq	r0, (UNDEF: 1)
    1018:	00000101 	andeq	r0, r0, r1, lsl #2
    101c:	00000101 	andeq	r0, r0, r1, lsl #2
	...
    1028:	00008c00 	andeq	r8, r0, r0, lsl #24
    102c:	0000fc00 	andeq	pc, r0, r0, lsl #24
    1030:	91000400 	tstls	r0, r0, lsl #8
    1034:	fc9f7fa0 	ldc2	15, cr7, [pc], {160}	; 0xa0
    1038:	3c000000 	stccc	0, cr0, [r0], {-0}
    103c:	01000001 	tsteq	r0, r1
    1040:	013c5000 	teqeq	ip, r0
    1044:	01480000 	mrseq	r0, (UNDEF: 72)
    1048:	00030000 	andeq	r0, r3, r0
    104c:	489f0271 	ldmmi	pc, {r0, r4, r5, r6, r9}	; <UNPREDICTABLE>
    1050:	4c000001 	stcmi	0, cr0, [r0], {1}
    1054:	01000001 	tsteq	r0, r1
    1058:	014c5000 	mrseq	r5, (UNDEF: 76)
    105c:	01580000 	cmpeq	r8, r0
    1060:	00040000 	andeq	r0, r4, r0
    1064:	9f7fa091 	svcls	0x007fa091
    1068:	00000158 	andeq	r0, r0, r8, asr r1
    106c:	0000016c 	andeq	r0, r0, ip, ror #2
    1070:	6c510001 	mrrcvs	0, 0, r0, r1, cr1
    1074:	78000001 	stmdavc	r0, {r0}
    1078:	03000001 	movweq	r0, #1
    107c:	9f7f7100 	svcls	0x007f7100
    1080:	00000178 	andeq	r0, r0, r8, ror r1
    1084:	00000184 	andeq	r0, r0, r4, lsl #3
    1088:	01710003 	cmneq	r1, r3
    108c:	0001849f 	muleq	r1, pc, r4	; <UNPREDICTABLE>
    1090:	00019300 	andeq	r9, r1, r0, lsl #6
    1094:	50000100 	andpl	r0, r0, r0, lsl #2
    1098:	000001b0 			; <UNDEFINED> instruction: 0x000001b0
    109c:	000001b0 			; <UNDEFINED> instruction: 0x000001b0
    10a0:	a0910004 	addsge	r0, r1, r4
    10a4:	01b09f7f 	rorseq	r9, pc, pc
    10a8:	01b80000 			; <UNDEFINED> instruction: 0x01b80000
    10ac:	00040000 	andeq	r0, r4, r0
    10b0:	9f7fa191 	svcls	0x007fa191
    10b4:	000001b8 			; <UNDEFINED> instruction: 0x000001b8
    10b8:	000001bc 			; <UNDEFINED> instruction: 0x000001bc
    10bc:	bc500001 	mrrclt	0, 0, r0, r0, cr1	; <UNPREDICTABLE>
    10c0:	c0000001 	andgt	r0, r0, r1
    10c4:	04000001 	streq	r0, [r0], #-1
    10c8:	7fa09100 	svcvc	0x00a09100
    10cc:	0001c09f 	muleq	r1, pc, r0	; <UNPREDICTABLE>
    10d0:	0001d400 	andeq	sp, r1, r0, lsl #8
    10d4:	50000100 	andpl	r0, r0, r0, lsl #2
    10d8:	000001d4 	ldrdeq	r0, [r0], -r4
    10dc:	000001e4 	andeq	r0, r0, r4, ror #3
    10e0:	7f700003 	svcvc	0x00700003
    10e4:	0001e49f 	muleq	r1, pc, r4	; <UNPREDICTABLE>
    10e8:	00022400 	andeq	r2, r2, r0, lsl #8
    10ec:	91000400 	tstls	r0, r0, lsl #8
    10f0:	009f7fa0 	addseq	r7, pc, r0, lsr #31
	...
    10fc:	01010000 	mrseq	r0, (UNDEF: 1)
	...
    110c:	90000000 	andls	r0, r0, r0
    1110:	dc000000 	stcle	0, cr0, [r0], {-0}
    1114:	01000000 	mrseq	r0, (UNDEF: 0)
    1118:	00dc5c00 	sbcseq	r5, ip, r0, lsl #24
    111c:	00f40000 	rscseq	r0, r4, r0
    1120:	00010000 	andeq	r0, r1, r0
    1124:	0000f453 	andeq	pc, r0, r3, asr r4	; <UNPREDICTABLE>
    1128:	00014c00 	andeq	r4, r1, r0, lsl #24
    112c:	5c000100 	stfpls	f0, [r0], {-0}
    1130:	0000014c 	andeq	r0, r0, ip, asr #2
    1134:	00000158 	andeq	r0, r0, r8, asr r1
    1138:	58530001 	ldmdapl	r3, {r0}^
    113c:	74000001 	strvc	r0, [r0], #-1
    1140:	01000001 	tsteq	r0, r1
    1144:	01b05c00 	lslseq	r5, r0, #24
    1148:	01c00000 	biceq	r0, r0, r0
    114c:	00010000 	andeq	r0, r1, r0
    1150:	0001c053 	andeq	ip, r1, r3, asr r0
    1154:	0001dc00 	andeq	sp, r1, r0, lsl #24
    1158:	5c000100 	stfpls	f0, [r0], {-0}
    115c:	000001e4 	andeq	r0, r0, r4, ror #3
    1160:	000001e8 	andeq	r0, r0, r8, ror #3
    1164:	e8530001 	ldmda	r3, {r0}^
    1168:	ff000001 			; <UNDEFINED> instruction: 0xff000001
    116c:	01000001 	tsteq	r0, r1
    1170:	01ff5c00 	mvnseq	r5, r0, lsl #24
    1174:	02240000 	eoreq	r0, r4, #0, 0
    1178:	00040000 	andeq	r0, r4, r0
    117c:	9f5301f3 	svcls	0x005301f3
	...
    1188:	00010101 	andeq	r0, r1, r1, lsl #2
    118c:	00000000 	andeq	r0, r0, r0
    1190:	000000dc 	ldrdeq	r0, [r0], -ip
    1194:	000000f0 	strdeq	r0, [r0], -r0	; <UNPREDICTABLE>
    1198:	9f300002 	svcls	0x00300002
    119c:	000000f0 	strdeq	r0, [r0], -r0	; <UNPREDICTABLE>
    11a0:	000000f8 	strdeq	r0, [r0], -r8
    11a4:	9f310002 	svcls	0x00310002
    11a8:	000000fc 	strdeq	r0, [r0], -ip
    11ac:	0000014c 	andeq	r0, r0, ip, asr #2
    11b0:	4c560001 	mrrcmi	0, 0, r0, r6, cr1
    11b4:	54000001 	strpl	r0, [r0], #-1
    11b8:	02000001 	andeq	r0, r0, #1, 0
    11bc:	009f3000 	addseq	r3, pc, r0
	...
    11c8:	01010000 	mrseq	r0, (UNDEF: 1)
    11cc:	01010000 	mrseq	r0, (UNDEF: 1)
    11d0:	00003800 	andeq	r3, r0, r0, lsl #16
    11d4:	00005400 	andeq	r5, r0, r0, lsl #8
    11d8:	50000100 	andpl	r0, r0, r0, lsl #2
    11dc:	00000054 	andeq	r0, r0, r4, asr r0
    11e0:	00000058 	andeq	r0, r0, r8, asr r0
    11e4:	58520001 	ldmdapl	r2, {r0}^
    11e8:	60000000 	andvs	r0, r0, r0
    11ec:	03000000 	movweq	r0, #0
    11f0:	9f017200 	svcls	0x00017200
    11f4:	00000060 	andeq	r0, r0, r0, rrx
    11f8:	00000064 	andeq	r0, r0, r4, rrx
    11fc:	64520001 	ldrbvs	r0, [r2], #-1
    1200:	70000000 	andvc	r0, r0, r0
    1204:	03000000 	movweq	r0, #0
    1208:	9f017200 	svcls	0x00017200
	...
    1218:	00000038 	andeq	r0, r0, r8, lsr r0
    121c:	00000050 	andeq	r0, r0, r0, asr r0
    1220:	50510001 	subspl	r0, r1, r1
    1224:	70000000 	andvc	r0, r0, r0
    1228:	04000000 	streq	r0, [r0], #-0
    122c:	5101f300 	mrspl	pc, SP_irq	; <UNPREDICTABLE>
    1230:	0000009f 	muleq	r0, pc, r0	; <UNPREDICTABLE>
	...
    123c:	01010000 	mrseq	r0, (UNDEF: 1)
    1240:	00003800 	andeq	r3, r0, r0, lsl #16
    1244:	00005000 	andeq	r5, r0, r0
    1248:	52000100 	andpl	r0, r0, #0
    124c:	00000050 	andeq	r0, r0, r0, asr r0
    1250:	0000005c 	andeq	r0, r0, ip, asr r0
    1254:	5c510001 	mrrcpl	0, 0, r0, r1, cr1
    1258:	60000000 	andvs	r0, r0, r0
    125c:	03000000 	movweq	r0, #0
    1260:	9f017100 	svcls	0x00017100
    1264:	00000060 	andeq	r0, r0, r0, rrx
    1268:	00000070 	andeq	r0, r0, r0, ror r0
    126c:	00510001 	subseq	r0, r1, r1
	...
    1278:	38000000 	stmdacc	r0, {}	; <UNPREDICTABLE>
    127c:	4c000000 	stcmi	0, cr0, [r0], {-0}
    1280:	01000000 	mrseq	r0, (UNDEF: 0)
    1284:	004c5300 	subeq	r5, ip, r0, lsl #6
    1288:	00680000 	rsbeq	r0, r8, r0
    128c:	00010000 	andeq	r0, r1, r0
    1290:	00000053 	andeq	r0, r0, r3, asr r0
	...
    12a0:	00004000 	andeq	r4, r0, r0
    12a4:	00004800 	andeq	r4, r0, r0, lsl #16
    12a8:	5c000100 	stfpls	f0, [r0], {-0}
    12ac:	00000048 	andeq	r0, r0, r8, asr #32
    12b0:	0000004c 	andeq	r0, r0, ip, asr #32
    12b4:	00720008 	rsbseq	r0, r2, r8
    12b8:	231c0073 	tstcs	ip, #115, 0	; 0x73
    12bc:	004c9f01 	subeq	r9, ip, r1, lsl #30
    12c0:	00540000 	subseq	r0, r4, r0
    12c4:	00090000 	andeq	r0, r9, r0
    12c8:	01f30072 	mvnseq	r0, r2, ror r0
    12cc:	01231c53 			; <UNDEFINED> instruction: 0x01231c53
    12d0:	0000549f 	muleq	r0, pc, r4	; <UNPREDICTABLE>
    12d4:	00007000 	andeq	r7, r0, r0
    12d8:	f3000a00 	vpmax.u8	d0, d0, d0
    12dc:	01f35201 	mvnseq	r5, r1, lsl #4
    12e0:	01231c53 			; <UNDEFINED> instruction: 0x01231c53
    12e4:	0000009f 	muleq	r0, pc, r0	; <UNPREDICTABLE>
    12e8:	00000000 	andeq	r0, r0, r0
    12ec:	4c000100 	stfmis	f0, [r0], {-0}
    12f0:	70000000 	andvc	r0, r0, r0
    12f4:	01000000 	mrseq	r0, (UNDEF: 0)
    12f8:	00005000 	andeq	r5, r0, r0
    12fc:	00000000 	andeq	r0, r0, r0
    1300:	01000000 	mrseq	r0, (UNDEF: 0)
    1304:	00000001 	andeq	r0, r0, r1
    1308:	00000014 	andeq	r0, r0, r4, lsl r0
    130c:	0000001c 	andeq	r0, r0, ip, lsl r0
    1310:	1c500001 	mrrcne	0, 0, r0, r0, cr1	; <UNPREDICTABLE>
    1314:	24000000 	strcs	r0, [r0], #-0
    1318:	03000000 	movweq	r0, #0
    131c:	9f017000 	svcls	0x00017000
    1320:	00000024 	andeq	r0, r0, r4, lsr #32
    1324:	00000038 	andeq	r0, r0, r8, lsr r0
    1328:	00500001 	subseq	r0, r0, r1
	...
    1334:	14000000 	strne	r0, [r0], #-0
    1338:	18000000 	stmdane	r0, {}	; <UNPREDICTABLE>
    133c:	01000000 	mrseq	r0, (UNDEF: 0)
    1340:	00185100 	andseq	r5, r8, r0, lsl #2
    1344:	00380000 	eorseq	r0, r8, r0
    1348:	00040000 	andeq	r0, r4, r0
    134c:	9f5101f3 	svcls	0x005101f3
	...
    1358:	00180000 	andseq	r0, r8, r0
    135c:	00380000 	eorseq	r0, r8, r0
    1360:	00010000 	andeq	r0, r1, r0
    1364:	00000051 	andeq	r0, r0, r1, asr r0
	...
    1374:	04000000 	streq	r0, [r0], #-0
    1378:	01000000 	mrseq	r0, (UNDEF: 0)
    137c:	00045000 	andeq	r5, r4, r0
    1380:	000c0000 	andeq	r0, ip, r0
    1384:	00030000 	andeq	r0, r3, r0
    1388:	0c9f3070 	ldceq	0, cr3, [pc], {112}	; 0x70
    138c:	14000000 	strne	r0, [r0], #-0
    1390:	04000000 	streq	r0, [r0], #-0
    1394:	5001f300 	andpl	pc, r1, r0, lsl #6
    1398:	0000009f 	muleq	r0, pc, r0	; <UNPREDICTABLE>
	...
    13a4:	00022400 	andeq	r2, r2, r0, lsl #8
    13a8:	00026800 	andeq	r6, r2, r0, lsl #16
    13ac:	50000100 	andpl	r0, r0, r0, lsl #2
    13b0:	00000268 	andeq	r0, r0, r8, ror #4
    13b4:	00000288 	andeq	r0, r0, r8, lsl #5
    13b8:	01f30004 	mvnseq	r0, r4
    13bc:	00009f50 	andeq	r9, r0, r0, asr pc
	...
    13c8:	02240000 	eoreq	r0, r4, #0, 0
    13cc:	02640000 	rsbeq	r0, r4, #0, 0
    13d0:	00010000 	andeq	r0, r1, r0
    13d4:	00026451 	andeq	r6, r2, r1, asr r4
    13d8:	00028800 	andeq	r8, r2, r0, lsl #16
    13dc:	f3000400 	vshl.u8	d0, d0, d0
    13e0:	009f5101 	addseq	r5, pc, r1, lsl #2
	...
    13ec:	00000101 	andeq	r0, r0, r1, lsl #2
    13f0:	00000c00 	andeq	r0, r0, r0, lsl #24
    13f4:	00001400 	andeq	r1, r0, r0, lsl #8
    13f8:	53000100 	movwpl	r0, #256	; 0x100
    13fc:	00000014 	andeq	r0, r0, r4, lsl r0
    1400:	0000001c 	andeq	r0, r0, ip, lsl r0
    1404:	04730003 	ldrbteq	r0, [r3], #-3
    1408:	00001c9f 	muleq	r0, pc, ip	; <UNPREDICTABLE>
    140c:	00002300 	andeq	r2, r0, r0, lsl #6
    1410:	53000100 	movwpl	r0, #256	; 0x100
	...
    141c:	94d00001 	ldrbls	r0, [r0], #1
    1420:	94ec0000 	strbtls	r0, [ip], #0
    1424:	00060000 	andeq	r0, r6, r0
    1428:	10001c0c 	andne	r1, r0, ip, lsl #24
    142c:	00009f20 	andeq	r9, r0, r0, lsr #30
    1430:	00000000 	andeq	r0, r0, r0
    1434:	00020000 	andeq	r0, r2, r0
    1438:	000094d0 	ldrdeq	r9, [r0], -r0
    143c:	000094ec 	andeq	r9, r0, ip, ror #9
    1440:	240c0006 	strcs	r0, [ip], #-6
    1444:	9f201000 	svcls	0x00201000
	...
    1450:	94d00003 	ldrbls	r0, [r0], #3
    1454:	94ec0000 	strbtls	r0, [ip], #0
    1458:	00050000 	andeq	r0, r5, r0
    145c:	2447b408 	strbcs	fp, [r7], #-1032	; 0xfffffbf8
    1460:	0000009f 	muleq	r0, pc, r0	; <UNPREDICTABLE>
    1464:	00000000 	andeq	r0, r0, r0
    1468:	d0000400 	andle	r0, r0, r0, lsl #8
    146c:	ec000094 	stc	0, cr0, [r0], {148}	; 0x94
    1470:	03000094 	movweq	r0, #148	; 0x94
    1474:	9f200800 	svcls	0x00200800
	...
    1480:	00000002 	andeq	r0, r0, r2
    1484:	949c0000 	ldrls	r0, [ip], #0
    1488:	94a00000 	strtls	r0, [r0], #0
    148c:	00020000 	andeq	r0, r2, r0
    1490:	94a09f30 	strtls	r9, [r0], #3888	; 0xf30
    1494:	94a40000 	strtls	r0, [r4], #0
    1498:	00010000 	andeq	r0, r1, r0
    149c:	0094a853 	addseq	sl, r4, r3, asr r8
    14a0:	0094b000 	addseq	fp, r4, r0
    14a4:	53000100 	movwpl	r0, #256	; 0x100
	...
    14b0:	00000002 	andeq	r0, r0, r2
    14b4:	00009484 	andeq	r9, r0, r4, lsl #9
    14b8:	00009488 	andeq	r9, r0, r8, lsl #9
    14bc:	9f300002 	svcls	0x00300002
    14c0:	00009488 	andeq	r9, r0, r8, lsl #9
    14c4:	0000948c 	andeq	r9, r0, ip, lsl #9
    14c8:	00500001 	subseq	r0, r0, r1
	...
    14d4:	6c000000 	stcvs	0, cr0, [r0], {-0}
    14d8:	78000000 	stmdavc	r0, {}	; <UNPREDICTABLE>
    14dc:	01000000 	mrseq	r0, (UNDEF: 0)
    14e0:	00785000 	rsbseq	r5, r8, r0
    14e4:	00840000 	addeq	r0, r4, r0
    14e8:	00040000 	andeq	r0, r4, r0
    14ec:	9f5001f3 	svcls	0x005001f3
	...
    14fc:	00000054 	andeq	r0, r0, r4, asr r0
    1500:	00000060 	andeq	r0, r0, r0, rrx
    1504:	60500001 	subsvs	r0, r0, r1
    1508:	6c000000 	stcvs	0, cr0, [r0], {-0}
    150c:	04000000 	streq	r0, [r0], #-0
    1510:	5001f300 	andpl	pc, r1, r0, lsl #6
    1514:	0000009f 	muleq	r0, pc, r0	; <UNPREDICTABLE>
	...
    1520:	00003000 	andeq	r3, r0, r0
    1524:	00003b00 	andeq	r3, r0, r0, lsl #22
    1528:	50000100 	andpl	r0, r0, r0, lsl #2
    152c:	0000003b 	andeq	r0, r0, fp, lsr r0
    1530:	00000054 	andeq	r0, r0, r4, asr r0
    1534:	00550001 	subseq	r0, r5, r1
	...
    1540:	00004000 	andeq	r4, r0, r0
    1544:	00005400 	andeq	r5, r0, r0, lsl #8
    1548:	54000100 	strpl	r0, [r0], #-256	; 0xffffff00
	...
    1554:	00440000 	subeq	r0, r4, r0
    1558:	00480000 	subeq	r0, r8, r0
    155c:	00010000 	andeq	r0, r1, r0
    1560:	00000050 	andeq	r0, r0, r0, asr r0
	...
    156c:	00002400 	andeq	r2, r0, r0, lsl #8
    1570:	00002700 	andeq	r2, r0, r0, lsl #14
    1574:	50000100 	andpl	r0, r0, r0, lsl #2
    1578:	00000027 	andeq	r0, r0, r7, lsr #32
    157c:	00000030 	andeq	r0, r0, r0, lsr r0
    1580:	00540001 	subseq	r0, r4, r1
	...
    158c:	58000000 	stmdapl	r0, {}	; <UNPREDICTABLE>
    1590:	63000001 	movwvs	r0, #1
    1594:	01000001 	tsteq	r0, r1
    1598:	01635000 	cmneq	r3, r0
    159c:	01880000 	orreq	r0, r8, r0
    15a0:	00010000 	andeq	r0, r1, r0
    15a4:	00000054 	andeq	r0, r0, r4, asr r0
    15a8:	00000000 	andeq	r0, r0, r0
    15ac:	48000000 	stmdami	r0, {}	; <UNPREDICTABLE>
    15b0:	58000001 	stmdapl	r0, {r0}
    15b4:	01000001 	tsteq	r0, r1
    15b8:	00005400 	andeq	r5, r0, r0, lsl #8
	...
    15c8:	000f0000 	andeq	r0, pc, r0
    15cc:	00010000 	andeq	r0, r1, r0
    15d0:	00000f50 	andeq	r0, r0, r0, asr pc
    15d4:	00002000 	andeq	r2, r0, r0
    15d8:	54000100 	strpl	r0, [r0], #-256	; 0xffffff00
	...
    15ec:	0000000f 	andeq	r0, r0, pc
    15f0:	0f510001 	svceq	0x00510001
    15f4:	20000000 	andcs	r0, r0, r0
    15f8:	01000000 	mrseq	r0, (UNDEF: 0)
    15fc:	00005500 	andeq	r5, r0, r0, lsl #10
	...
    1608:	00200000 	eoreq	r0, r0, r0
    160c:	002f0000 	eoreq	r0, pc, r0
    1610:	00010000 	andeq	r0, r1, r0
    1614:	00002f50 	andeq	r2, r0, r0, asr pc
    1618:	00004000 	andeq	r4, r0, r0
    161c:	54000100 	strpl	r0, [r0], #-256	; 0xffffff00
	...
    162c:	00000020 	andeq	r0, r0, r0, lsr #32
    1630:	0000002f 	andeq	r0, r0, pc, lsr #32
    1634:	2f510001 	svccs	0x00510001
    1638:	40000000 	andmi	r0, r0, r0
    163c:	01000000 	mrseq	r0, (UNDEF: 0)
    1640:	00005500 	andeq	r5, r0, r0, lsl #10
	...
    1650:	00000350 	andeq	r0, r0, r0, asr r3
    1654:	00000398 	muleq	r0, r8, r3
    1658:	98500001 	ldmdals	r0, {r0}^
    165c:	9b000003 	blls	1670 <__code_start__-0x6990>
    1660:	02000003 	andeq	r0, r0, #3, 0
    1664:	9b689100 	blls	1a25a6c <__bss_end__+0x1a1b08c>
    1668:	b0000003 	andlt	r0, r0, r3
    166c:	04000003 	streq	r0, [r0], #-3
    1670:	5001f300 	andpl	pc, r1, r0, lsl #6
    1674:	0000009f 	muleq	r0, pc, r0	; <UNPREDICTABLE>
	...
    1690:	00022000 	andeq	r2, r2, r0
    1694:	00027b00 	andeq	r7, r2, r0, lsl #22
    1698:	50000100 	andpl	r0, r0, r0, lsl #2
    169c:	0000027b 	andeq	r0, r0, fp, ror r2
    16a0:	00000284 	andeq	r0, r0, r4, lsl #5
    16a4:	01f30004 	mvnseq	r0, r4
    16a8:	02849f50 	addeq	r9, r4, #80, 30	; 0x140
    16ac:	029c0000 	addseq	r0, ip, #0, 0
    16b0:	00010000 	andeq	r0, r1, r0
    16b4:	00029c50 	andeq	r9, r2, r0, asr ip
    16b8:	0002a400 	andeq	sl, r2, r0, lsl #8
    16bc:	f3000400 	vshl.u8	d0, d0, d0
    16c0:	a49f5001 	ldrge	r5, [pc], #1	; 16c8 <__code_start__-0x6938>
    16c4:	a7000002 	strge	r0, [r0, -r2]
    16c8:	01000002 	tsteq	r0, r2
    16cc:	02a75000 	adceq	r5, r7, #0, 0
    16d0:	02c80000 	sbceq	r0, r8, #0, 0
    16d4:	00040000 	andeq	r0, r4, r0
    16d8:	9f5001f3 	svcls	0x005001f3
    16dc:	000002c8 	andeq	r0, r0, r8, asr #5
    16e0:	000002e0 	andeq	r0, r0, r0, ror #5
    16e4:	e0500001 	subs	r0, r0, r1
    16e8:	e8000002 	stmda	r0, {r1}
    16ec:	04000002 	streq	r0, [r0], #-2
    16f0:	5001f300 	andpl	pc, r1, r0, lsl #6
    16f4:	0002e89f 	muleq	r2, pc, r8	; <UNPREDICTABLE>
    16f8:	0002eb00 	andeq	lr, r2, r0, lsl #22
    16fc:	50000100 	andpl	r0, r0, r0, lsl #2
    1700:	000002eb 	andeq	r0, r0, fp, ror #5
    1704:	00000338 	andeq	r0, r0, r8, lsr r3
    1708:	01f30004 	mvnseq	r0, r4
    170c:	00009f50 	andeq	r9, r0, r0, asr pc
	...
    1728:	02200000 	eoreq	r0, r0, #0, 0
    172c:	02440000 	subeq	r0, r4, #0, 0
    1730:	00010000 	andeq	r0, r1, r0
    1734:	00024451 	andeq	r4, r2, r1, asr r4
    1738:	00026800 	andeq	r6, r2, r0, lsl #16
    173c:	51000100 	mrspl	r0, (UNDEF: 16)
    1740:	00000268 	andeq	r0, r0, r8, ror #4
    1744:	0000027b 	andeq	r0, r0, fp, ror r2
    1748:	01710003 	cmneq	r1, r3
    174c:	00027b9f 	muleq	r2, pc, fp	; <UNPREDICTABLE>
    1750:	00028400 	andeq	r8, r2, r0, lsl #8
    1754:	38001700 	stmdacc	r0, {r8, r9, sl, ip}
    1758:	f35101f3 	vbsl	q8, <illegal reg q8.5>, <illegal reg q9.5>
    175c:	4b405101 	blmi	1015b68 <__bss_end__+0x100b188>
    1760:	080c2224 	stmdaeq	ip, {r2, r5, r9, sp}
    1764:	2d800000 	stccs	0, cr0, [r0]
    1768:	16000128 	strne	r0, [r0], -r8, lsr #2
    176c:	02849f13 	addeq	r9, r4, #76	; 0x4c
    1770:	02980000 	addseq	r0, r8, #0, 0
    1774:	00010000 	andeq	r0, r1, r0
    1778:	00029851 	andeq	r9, r2, r1, asr r8
    177c:	0002a400 	andeq	sl, r2, r0, lsl #8
    1780:	f3000400 	vshl.u8	d0, d0, d0
    1784:	a49f5101 	ldrge	r5, [pc], #257	; 178c <__code_start__-0x6874>
    1788:	a7000002 	strge	r0, [r0, -r2]
    178c:	01000002 	tsteq	r0, r2
    1790:	02a75100 	adceq	r5, r7, #0
    1794:	02c80000 	sbceq	r0, r8, #0, 0
    1798:	00040000 	andeq	r0, r4, r0
    179c:	9f5101f3 	svcls	0x005101f3
    17a0:	000002c8 	andeq	r0, r0, r8, asr #5
    17a4:	000002dc 	ldrdeq	r0, [r0], -ip
    17a8:	dc510001 	mrrcle	0, 0, r0, r1, cr1
    17ac:	38000002 	stmdacc	r0, {r1}
    17b0:	17000003 	strne	r0, [r0, -r3]
    17b4:	01f33800 	mvnseq	r3, r0, lsl #16
    17b8:	5101f351 	tstpl	r1, r1, asr r3	; <UNPREDICTABLE>
    17bc:	22244b40 	eorcs	r4, r4, #64, 22	; 0x10000
    17c0:	0000080c 	andeq	r0, r0, ip, lsl #16
    17c4:	01282d80 	smlawbeq	r8, r0, sp, r2
    17c8:	9f131600 	svcls	0x00131600
	...
    17e0:	0000024c 	andeq	r0, r0, ip, asr #4
    17e4:	0000025c 	andeq	r0, r0, ip, asr r2
    17e8:	5c520001 	mrrcpl	0, 0, r0, r2, cr1
    17ec:	64000002 	strvs	r0, [r0], #-2
    17f0:	05000002 	streq	r0, [r0, #-2]
    17f4:	a5a40300 	strge	r0, [r4, #768]!	; 0x300
    17f8:	02640000 	rsbeq	r0, r4, #0, 0
    17fc:	027b0000 	rsbseq	r0, fp, #0, 0
    1800:	00010000 	andeq	r0, r1, r0
    1804:	0002c853 	andeq	ip, r2, r3, asr r8
    1808:	0002d800 	andeq	sp, r2, r0, lsl #16
    180c:	52000100 	andpl	r0, r0, #0
    1810:	000002d8 	ldrdeq	r0, [r0], -r8
    1814:	000002e3 	andeq	r0, r0, r3, ror #5
    1818:	a4030005 	strge	r0, [r3], #-5
    181c:	e80000a5 	stmda	r0, {r0, r2, r5, r7}
    1820:	eb000002 	bl	1830 <__code_start__-0x67d0>
    1824:	01000002 	tsteq	r0, r2
    1828:	00005300 	andeq	r5, r0, r0, lsl #6
    182c:	00000000 	andeq	r0, r0, r0
    1830:	00040000 	andeq	r0, r4, r0
    1834:	00000230 	andeq	r0, r0, r0, lsr r2
    1838:	00000234 	andeq	r0, r0, r4, lsr r2
    183c:	00510001 	subseq	r0, r1, r1
    1840:	00000000 	andeq	r0, r0, r0
    1844:	02000000 	andeq	r0, r0, #0, 0
    1848:	00023c00 	andeq	r3, r2, r0, lsl #24
    184c:	00024400 	andeq	r4, r2, r0, lsl #8
    1850:	38000200 	stmdacc	r0, {r9}
    1854:	0000009f 	muleq	r0, pc, r0	; <UNPREDICTABLE>
    1858:	00000000 	andeq	r0, r0, r0
    185c:	3c000200 	sfmcc	f0, 4, [r0], {-0}
    1860:	44000002 	strmi	r0, [r0], #-2
    1864:	01000002 	tsteq	r0, r2
    1868:	00005100 	andeq	r5, r0, r0, lsl #2
    186c:	00000000 	andeq	r0, r0, r0
    1870:	00010000 	andeq	r0, r1, r0
    1874:	00000000 	andeq	r0, r0, r0
    1878:	0000024c 	andeq	r0, r0, ip, asr #4
    187c:	00000264 	andeq	r0, r0, r4, ror #4
    1880:	c8510001 	ldmdagt	r1, {r0}^
    1884:	dc000002 	stcle	0, cr0, [r0], {2}
    1888:	01000002 	tsteq	r0, r2
    188c:	02dc5100 	sbcseq	r5, ip, #0
    1890:	02e80000 	rsceq	r0, r8, #0, 0
    1894:	00170000 	andseq	r0, r7, r0
    1898:	5101f338 	tstpl	r1, r8, lsr r3	; <UNPREDICTABLE>
    189c:	405101f3 	ldrshmi	r0, [r1], #-19	; 0xffffffed
    18a0:	0c22244b 	cfstrseq	mvf2, [r2], #-300	; 0xfffffed4
    18a4:	80000008 	andhi	r0, r0, r8
    18a8:	0001282d 	andeq	r2, r1, sp, lsr #16
    18ac:	009f1316 	addseq	r1, pc, r6, lsl r3	; <UNPREDICTABLE>
    18b0:	00000000 	andeq	r0, r0, r0
    18b4:	01000000 	mrseq	r0, (UNDEF: 0)
    18b8:	00000000 	andeq	r0, r0, r0
    18bc:	4c000000 	stcmi	0, cr0, [r0], {-0}
    18c0:	5c000002 	stcpl	0, cr0, [r0], {2}
    18c4:	01000002 	tsteq	r0, r2
    18c8:	025c5200 	subseq	r5, ip, #0, 4
    18cc:	02640000 	rsbeq	r0, r4, #0, 0
    18d0:	00050000 	andeq	r0, r5, r0
    18d4:	00a5a403 	adceq	sl, r5, r3, lsl #8
    18d8:	0002c800 	andeq	ip, r2, r0, lsl #16
    18dc:	0002d800 	andeq	sp, r2, r0, lsl #16
    18e0:	52000100 	andpl	r0, r0, #0
    18e4:	000002d8 	ldrdeq	r0, [r0], -r8
    18e8:	000002e3 	andeq	r0, r0, r3, ror #5
    18ec:	a4030005 	strge	r0, [r3], #-5
    18f0:	000000a5 	andeq	r0, r0, r5, lsr #1
    18f4:	00000000 	andeq	r0, r0, r0
    18f8:	04000000 	streq	r0, [r0], #-0
    18fc:	00024c00 	andeq	r4, r2, r0, lsl #24
    1900:	00025000 	andeq	r5, r2, r0
    1904:	51000100 	mrspl	r0, (UNDEF: 16)
	...
    1910:	02640003 	rsbeq	r0, r4, #3, 0
    1914:	02680000 	rsbeq	r0, r8, #0, 0
    1918:	00010000 	andeq	r0, r1, r0
    191c:	00000051 	andeq	r0, r0, r1, asr r0
    1920:	00000000 	andeq	r0, r0, r0
    1924:	64000300 	strvs	r0, [r0], #-768	; 0xfffffd00
    1928:	68000002 	stmdavs	r0, {r1}
    192c:	01000002 	tsteq	r0, r2
    1930:	00005300 	andeq	r5, r0, r0, lsl #6
	...
    1940:	01bc0000 			; <UNDEFINED> instruction: 0x01bc0000
    1944:	01d30000 	bicseq	r0, r3, r0
    1948:	00010000 	andeq	r0, r1, r0
    194c:	0001d350 	andeq	sp, r1, r0, asr r3
    1950:	0001f000 	andeq	pc, r1, r0
    1954:	54000100 	strpl	r0, [r0], #-256	; 0xffffff00
    1958:	000001f0 	strdeq	r0, [r0], -r0	; <UNPREDICTABLE>
    195c:	00000208 	andeq	r0, r0, r8, lsl #4
    1960:	08500001 	ldmdaeq	r0, {r0}^
    1964:	20000002 	andcs	r0, r0, r2
    1968:	01000002 	tsteq	r0, r2
    196c:	00005400 	andeq	r5, r0, r0, lsl #8
	...
    1978:	01d80000 	bicseq	r0, r8, r0
    197c:	01e30000 	mvneq	r0, r0
    1980:	00010000 	andeq	r0, r1, r0
    1984:	0001e350 	andeq	lr, r1, r0, asr r3
    1988:	0001f000 	andeq	pc, r1, r0
    198c:	55000100 	strpl	r0, [r0, #-256]	; 0xffffff00
	...
    19a8:	00000124 	andeq	r0, r0, r4, lsr #2
    19ac:	00000138 	andeq	r0, r0, r8, lsr r1
    19b0:	38500001 	ldmdacc	r0, {r0}^
    19b4:	3c000001 	stccc	0, cr0, [r0], {1}
    19b8:	03000001 	movweq	r0, #1
    19bc:	9f797000 	svcls	0x00797000
    19c0:	0000013c 	andeq	r0, r0, ip, lsr r1
    19c4:	00000160 	andeq	r0, r0, r0, ror #2
    19c8:	60530001 	subsvs	r0, r3, r1
    19cc:	78000001 	stmdavc	r0, {r0}
    19d0:	01000001 	tsteq	r0, r1
    19d4:	01785000 	cmneq	r8, r0
    19d8:	01800000 	orreq	r0, r0, r0
    19dc:	00040000 	andeq	r0, r4, r0
    19e0:	9f5001f3 	svcls	0x005001f3
    19e4:	00000180 	andeq	r0, r0, r0, lsl #3
    19e8:	00000190 	muleq	r0, r0, r1
    19ec:	90530001 	subsls	r0, r3, r1
    19f0:	9f000001 	svcls	0x00000001
    19f4:	02000001 	andeq	r0, r0, #1, 0
    19f8:	9f689100 	svcls	0x00689100
    19fc:	bc000001 	stclt	0, cr0, [r0], {1}
    1a00:	09000001 	stmdbeq	r0, {r0}
    1a04:	5001f300 	andpl	pc, r1, r0, lsl #6
    1a08:	f8090723 			; <UNDEFINED> instruction: 0xf8090723
    1a0c:	00009f1a 	andeq	r9, r0, sl, lsl pc
	...
    1a1c:	00000144 	andeq	r0, r0, r4, asr #2
    1a20:	00000160 	andeq	r0, r0, r0, ror #2
    1a24:	80500001 	subshi	r0, r0, r1
    1a28:	9c000001 	stcls	0, cr0, [r0], {1}
    1a2c:	01000001 	tsteq	r0, r1
    1a30:	019c5000 	orrseq	r5, ip, r0
    1a34:	019f0000 	orrseq	r0, pc, r0
    1a38:	00050000 	andeq	r0, r5, r0
    1a3c:	00a5a403 	adceq	sl, r5, r3, lsl #8
	...
    1a48:	34000300 	strcc	r0, [r0], #-768	; 0xfffffd00
    1a4c:	3c000001 	stccc	0, cr0, [r0], {1}
    1a50:	02000001 	andeq	r0, r0, #1, 0
    1a54:	009f3800 	addseq	r3, pc, r0, lsl #16
    1a58:	00000000 	andeq	r0, r0, r0
    1a5c:	03000000 	movweq	r0, #0
    1a60:	34000000 	strcc	r0, [r0], #-0
    1a64:	38000001 	stmdacc	r0, {r0}
    1a68:	01000001 	tsteq	r0, r1
    1a6c:	01385000 	teqeq	r8, r0
    1a70:	013c0000 	teqeq	ip, r0
    1a74:	00030000 	andeq	r0, r3, r0
    1a78:	009f7970 	addseq	r7, pc, r0, ror r9	; <UNPREDICTABLE>
	...
    1a90:	00003000 	andeq	r3, r0, r0
    1a94:	00006000 	andeq	r6, r0, r0
    1a98:	50000100 	andpl	r0, r0, r0, lsl #2
    1a9c:	00000060 	andeq	r0, r0, r0, rrx
    1aa0:	0000006c 	andeq	r0, r0, ip, rrx
    1aa4:	a4030005 	strge	r0, [r3], #-5
    1aa8:	6c0000a5 	stcvs	0, cr0, [r0], {165}	; 0xa5
    1aac:	84000000 	strhi	r0, [r0], #-0
    1ab0:	01000000 	mrseq	r0, (UNDEF: 0)
    1ab4:	00845000 	addeq	r5, r4, r0
    1ab8:	008c0000 	addeq	r0, ip, r0
    1abc:	00040000 	andeq	r0, r4, r0
    1ac0:	9f5001f3 	svcls	0x005001f3
    1ac4:	0000008c 	andeq	r0, r0, ip, lsl #1
    1ac8:	000000ac 	andeq	r0, r0, ip, lsr #1
    1acc:	ac500001 	mrrcge	0, 0, r0, r0, cr1	; <UNPREDICTABLE>
    1ad0:	af000000 	svcge	0x00000000
    1ad4:	02000000 	andeq	r0, r0, #0, 0
    1ad8:	af689100 	svcge	0x00689100
    1adc:	cc000000 	stcgt	0, cr0, [r0], {-0}
    1ae0:	04000000 	streq	r0, [r0], #-0
    1ae4:	5001f300 	andpl	pc, r1, r0, lsl #6
    1ae8:	0000009f 	muleq	r0, pc, r0	; <UNPREDICTABLE>
	...
    1af8:	00003000 	andeq	r3, r0, r0
    1afc:	00008000 	andeq	r8, r0, r0
    1b00:	51000100 	mrspl	r0, (UNDEF: 16)
    1b04:	00000080 	andeq	r0, r0, r0, lsl #1
    1b08:	0000008c 	andeq	r0, r0, ip, lsl #1
    1b0c:	01f30004 	mvnseq	r0, r4
    1b10:	008c9f51 	addeq	r9, ip, r1, asr pc
    1b14:	00a80000 	adceq	r0, r8, r0
    1b18:	00010000 	andeq	r0, r1, r0
    1b1c:	0000a851 	andeq	sl, r0, r1, asr r8
    1b20:	0000cc00 	andeq	ip, r0, r0, lsl #24
    1b24:	f3000400 	vshl.u8	d0, d0, d0
    1b28:	009f5101 	addseq	r5, pc, r1, lsl #2
    1b2c:	00000000 	andeq	r0, r0, r0
    1b30:	01000000 	mrseq	r0, (UNDEF: 0)
	...
    1b40:	00003800 	andeq	r3, r0, r0, lsl #16
    1b44:	00006000 	andeq	r6, r0, r0
    1b48:	50000100 	andpl	r0, r0, r0, lsl #2
    1b4c:	00000060 	andeq	r0, r0, r0, rrx
    1b50:	0000006c 	andeq	r0, r0, ip, rrx
    1b54:	a4030005 	strge	r0, [r3], #-5
    1b58:	6c0000a5 	stcvs	0, cr0, [r0], {165}	; 0xa5
    1b5c:	84000000 	strhi	r0, [r0], #-0
    1b60:	01000000 	mrseq	r0, (UNDEF: 0)
    1b64:	00845000 	addeq	r5, r4, r0
    1b68:	008c0000 	addeq	r0, ip, r0
    1b6c:	00040000 	andeq	r0, r4, r0
    1b70:	9f5001f3 	svcls	0x005001f3
    1b74:	0000008c 	andeq	r0, r0, ip, lsl #1
    1b78:	000000ac 	andeq	r0, r0, ip, lsr #1
    1b7c:	ac500001 	mrrcge	0, 0, r0, r0, cr1	; <UNPREDICTABLE>
    1b80:	af000000 	svcge	0x00000000
    1b84:	02000000 	andeq	r0, r0, #0, 0
    1b88:	af689100 	svcge	0x00689100
    1b8c:	cc000000 	stcgt	0, cr0, [r0], {-0}
    1b90:	04000000 	streq	r0, [r0], #-0
    1b94:	5001f300 	andpl	pc, r1, r0, lsl #6
    1b98:	0000009f 	muleq	r0, pc, r0	; <UNPREDICTABLE>
	...
    1ba8:	00000b00 	andeq	r0, r0, r0, lsl #22
    1bac:	50000100 	andpl	r0, r0, r0, lsl #2
    1bb0:	0000000b 	andeq	r0, r0, fp
    1bb4:	00000014 	andeq	r0, r0, r4, lsl r0
    1bb8:	00540001 	subseq	r0, r4, r1
	...
    1bc8:	1c000000 	stcne	0, cr0, [r0], {-0}
    1bcc:	01000000 	mrseq	r0, (UNDEF: 0)
    1bd0:	001c5100 	andseq	r5, ip, r0, lsl #2
    1bd4:	00340000 	eorseq	r0, r4, r0
    1bd8:	00040000 	andeq	r0, r4, r0
    1bdc:	9f5101f3 	svcls	0x005101f3
	...
    1be8:	00000002 	andeq	r0, r0, r2
    1bec:	00010100 	andeq	r0, r1, r0, lsl #2
    1bf0:	00000000 	andeq	r0, r0, r0
    1bf4:	00040000 	andeq	r0, r4, r0
    1bf8:	00010000 	andeq	r0, r1, r0
    1bfc:	00000450 	andeq	r0, r0, r0, asr r4
    1c00:	00001c00 	andeq	r1, r0, r0, lsl #24
    1c04:	52000100 	andpl	r0, r0, #0
    1c08:	0000001c 	andeq	r0, r0, ip, lsl r0
    1c0c:	00000024 	andeq	r0, r0, r4, lsr #32
    1c10:	24530001 	ldrbcs	r0, [r3], #-1
    1c14:	28000000 	stmdacs	r0, {}	; <UNPREDICTABLE>
    1c18:	03000000 	movweq	r0, #0
    1c1c:	9f017300 	svcls	0x00017300
    1c20:	00000028 	andeq	r0, r0, r8, lsr #32
    1c24:	00000034 	andeq	r0, r0, r4, lsr r0
    1c28:	00530001 	subseq	r0, r3, r1
    1c2c:	00000000 	andeq	r0, r0, r0
    1c30:	03000000 	movweq	r0, #0
    1c34:	00000000 	andeq	r0, r0, r0
    1c38:	24000000 	strcs	r0, [r0], #-0
    1c3c:	01000000 	mrseq	r0, (UNDEF: 0)
    1c40:	00245100 	eoreq	r5, r4, r0, lsl #2
    1c44:	00340000 	eorseq	r0, r4, r0
    1c48:	00030000 	andeq	r0, r3, r0
    1c4c:	009f7f71 	addseq	r7, pc, r1, ror pc	; <UNPREDICTABLE>
	...
    1c58:	10000000 	andne	r0, r0, r0
    1c5c:	1c000000 	stcne	0, cr0, [r0], {-0}
    1c60:	01000000 	mrseq	r0, (UNDEF: 0)
    1c64:	00245c00 	eoreq	r5, r4, r0, lsl #24
    1c68:	00340000 	eorseq	r0, r4, r0
    1c6c:	00010000 	andeq	r0, r1, r0
    1c70:	00000052 	andeq	r0, r0, r2, asr r0
	...
    1c80:	00001800 	andeq	r1, r0, r0, lsl #16
    1c84:	50000100 	andpl	r0, r0, r0, lsl #2
    1c88:	00000018 	andeq	r0, r0, r8, lsl r0
    1c8c:	00000024 	andeq	r0, r0, r4, lsr #32
    1c90:	00500001 	subseq	r0, r0, r1
	...
    1ca0:	1c000000 	stcne	0, cr0, [r0], {-0}
    1ca4:	01000000 	mrseq	r0, (UNDEF: 0)
    1ca8:	001c5100 	andseq	r5, ip, r0, lsl #2
    1cac:	002c0000 	eoreq	r0, ip, r0
    1cb0:	00010000 	andeq	r0, r1, r0
    1cb4:	00000051 	andeq	r0, r0, r1, asr r0
	...
    1cc4:	04000000 	streq	r0, [r0], #-0
    1cc8:	01000000 	mrseq	r0, (UNDEF: 0)
    1ccc:	00045100 	andeq	r5, r4, r0, lsl #2
    1cd0:	000c0000 	andeq	r0, ip, r0
    1cd4:	00010000 	andeq	r0, r1, r0
    1cd8:	00000c51 	andeq	r0, r0, r1, asr ip
    1cdc:	00002000 	andeq	r2, r0, r0
    1ce0:	71000300 	mrsvc	r0, LR_irq
    1ce4:	00009f7f 	andeq	r9, r0, pc, ror pc
    1ce8:	00000000 	andeq	r0, r0, r0
    1cec:	00020000 	andeq	r0, r2, r0
	...
    1cf8:	00000004 	andeq	r0, r0, r4
    1cfc:	04500001 	ldrbeq	r0, [r0], #-1
    1d00:	14000000 	strne	r0, [r0], #-0
    1d04:	01000000 	mrseq	r0, (UNDEF: 0)
    1d08:	00145c00 	andseq	r5, r4, r0, lsl #24
    1d0c:	00200000 	eoreq	r0, r0, r0
    1d10:	00030000 	andeq	r0, r3, r0
    1d14:	009f7f7c 	addseq	r7, pc, ip, ror pc	; <UNPREDICTABLE>
	...
    1d20:	e4000303 	str	r0, [r0], #-771	; 0xfffffcfd
    1d24:	e400009b 	str	r0, [r0], #-155	; 0xffffff65
    1d28:	0100009b 	swpeq	r0, fp, [r0]	; <UNPREDICTABLE>
    1d2c:	9be45000 	blls	ff915d34 <__bss_end__+0xff90b354>
    1d30:	9c100000 	ldcls	0, cr0, [r0], {-0}
    1d34:	00040000 	andeq	r0, r4, r0
    1d38:	9f5001f3 	svcls	0x005001f3
	...
    1d44:	00030300 	andeq	r0, r3, r0, lsl #6
    1d48:	00009be4 	andeq	r9, r0, r4, ror #23
    1d4c:	00009be4 	andeq	r9, r0, r4, ror #23
    1d50:	e4510001 	ldrb	r0, [r1], #-1
    1d54:	1000009b 	mulne	r0, fp, r0
    1d58:	0400009c 	streq	r0, [r0], #-156	; 0xffffff64
    1d5c:	5101f300 	mrspl	pc, SP_irq	; <UNPREDICTABLE>
    1d60:	0000009f 	muleq	r0, pc, r0	; <UNPREDICTABLE>
    1d64:	00000000 	andeq	r0, r0, r0
    1d68:	03030000 	movweq	r0, #12288	; 0x3000
    1d6c:	e4000000 	str	r0, [r0], #-0
    1d70:	e400009b 	str	r0, [r0], #-155	; 0xffffff65
    1d74:	0100009b 	swpeq	r0, fp, [r0]	; <UNPREDICTABLE>
    1d78:	9be45200 	blls	ff916580 <__bss_end__+0xff90bba0>
    1d7c:	9bec0000 	blls	ffb01d84 <__bss_end__+0xffaf73a4>
    1d80:	00010000 	andeq	r0, r1, r0
    1d84:	009bec52 	addseq	lr, fp, r2, asr ip
    1d88:	009c1000 	addseq	r1, ip, r0
    1d8c:	72000300 	andvc	r0, r0, #0, 6
    1d90:	00009f01 	andeq	r9, r0, r1, lsl #30
    1d94:	00000000 	andeq	r0, r0, r0
    1d98:	01020000 	mrseq	r0, (UNDEF: 2)
    1d9c:	00000001 	andeq	r0, r0, r1
    1da0:	9be40000 	blls	ff901da8 <__bss_end__+0xff8f73c8>
    1da4:	9bf00000 	blls	ffc01dac <__bss_end__+0xffbf73cc>
    1da8:	00010000 	andeq	r0, r1, r0
    1dac:	009bf050 	addseq	pc, fp, r0, asr r0	; <UNPREDICTABLE>
    1db0:	009bf400 	addseq	pc, fp, r0, lsl #8
    1db4:	70000300 	andvc	r0, r0, r0, lsl #6
    1db8:	9bf49f01 	blls	ffd299c4 <__bss_end__+0xffd1efe4>
    1dbc:	9c040000 	stcls	0, cr0, [r4], {-0}
    1dc0:	00010000 	andeq	r0, r1, r0
    1dc4:	009c0850 	addseq	r0, ip, r0, asr r8
    1dc8:	009c0c00 	addseq	r0, ip, r0, lsl #24
    1dcc:	50000100 	andpl	r0, r0, r0, lsl #2
	...
    1dd8:	00000002 	andeq	r0, r0, r2
    1ddc:	9be40000 	blls	ff901de4 <__bss_end__+0xff8f7404>
    1de0:	9bf40000 	blls	ffd01de8 <__bss_end__+0xffcf7408>
    1de4:	00010000 	andeq	r0, r1, r0
    1de8:	009bf451 	addseq	pc, fp, r1, asr r4	; <UNPREDICTABLE>
    1dec:	009bf800 	addseq	pc, fp, r0, lsl #16
    1df0:	71000300 	mrsvc	r0, LR_irq
    1df4:	9bf89f01 	blls	ffe29a00 <__bss_end__+0xffe1f020>
    1df8:	9c100000 	ldcls	0, cr0, [r0], {-0}
    1dfc:	00010000 	andeq	r0, r1, r0
    1e00:	00000051 	andeq	r0, r0, r1, asr r0
	...
    1e10:	0000e800 	andeq	lr, r0, r0, lsl #16
    1e14:	00010000 	andeq	r0, r1, r0
    1e18:	50000100 	andpl	r0, r0, r0, lsl #2
    1e1c:	00000100 	andeq	r0, r0, r0, lsl #2
    1e20:	00000110 	andeq	r0, r0, r0, lsl r1
    1e24:	01f30004 	mvnseq	r0, r4
    1e28:	01109f50 	tsteq	r0, r0, asr pc
    1e2c:	01140000 	tsteq	r4, r0
    1e30:	00010000 	andeq	r0, r1, r0
    1e34:	00011450 	andeq	r1, r1, r0, asr r4
    1e38:	00011c00 	andeq	r1, r1, r0, lsl #24
    1e3c:	f3000400 	vshl.u8	d0, d0, d0
    1e40:	009f5001 	addseq	r5, pc, r1
    1e44:	00000000 	andeq	r0, r0, r0
    1e48:	01000000 	mrseq	r0, (UNDEF: 0)
    1e4c:	00000000 	andeq	r0, r0, r0
    1e50:	0000f400 	andeq	pc, r0, r0, lsl #8
    1e54:	00010000 	andeq	r0, r1, r0
    1e58:	70000b00 	andvc	r0, r0, r0, lsl #22
    1e5c:	23253500 			; <UNDEFINED> instruction: 0x23253500
    1e60:	818080b4 	strhhi	r8, [r0, r4]
    1e64:	01009f02 	tsteq	r0, r2, lsl #30
    1e68:	01030000 	mrseq	r0, (UNDEF: 3)
    1e6c:	00010000 	andeq	r0, r1, r0
    1e70:	00010350 	andeq	r0, r1, r0, asr r3
    1e74:	00011000 	andeq	r1, r1, r0
    1e78:	f3000c00 			; <UNDEFINED> instruction: 0xf3000c00
    1e7c:	25355001 	ldrcs	r5, [r5, #-1]!
    1e80:	8080b423 	addhi	fp, r0, r3, lsr #8
    1e84:	009f0281 	addseq	r0, pc, r1, lsl #5
	...
    1e90:	0000f800 	andeq	pc, r0, r0, lsl #16
    1e94:	00011000 	andeq	r1, r1, r0
    1e98:	54000100 	strpl	r0, [r0], #-256	; 0xffffff00
	...
    1eac:	000000cc 	andeq	r0, r0, ip, asr #1
    1eb0:	000000db 	ldrdeq	r0, [r0], -fp
    1eb4:	db500001 	blle	1401ec0 <__bss_end__+0x13f74e0>
    1eb8:	e0000000 	and	r0, r0, r0
    1ebc:	04000000 	streq	r0, [r0], #-0
    1ec0:	5001f300 	andpl	pc, r1, r0, lsl #6
    1ec4:	0000e09f 	muleq	r0, pc, r0	; <UNPREDICTABLE>
    1ec8:	0000e300 	andeq	lr, r0, r0, lsl #6
    1ecc:	50000100 	andpl	r0, r0, r0, lsl #2
    1ed0:	000000e3 	andeq	r0, r0, r3, ror #1
    1ed4:	000000e8 	andeq	r0, r0, r8, ror #1
    1ed8:	01f30004 	mvnseq	r0, r4
    1edc:	00009f50 	andeq	r9, r0, r0, asr pc
	...
    1eec:	00cc0000 	sbceq	r0, ip, r0
    1ef0:	00db0000 	sbcseq	r0, fp, r0
    1ef4:	00010000 	andeq	r0, r1, r0
    1ef8:	0000db51 	andeq	sp, r0, r1, asr fp
    1efc:	0000e000 	andeq	lr, r0, r0
    1f00:	f3000400 	vshl.u8	d0, d0, d0
    1f04:	e09f5101 	adds	r5, pc, r1, lsl #2
    1f08:	e3000000 	movw	r0, #0
    1f0c:	01000000 	mrseq	r0, (UNDEF: 0)
    1f10:	00e35100 	rsceq	r5, r3, r0, lsl #2
    1f14:	00e80000 	rsceq	r0, r8, r0
    1f18:	00040000 	andeq	r0, r4, r0
    1f1c:	9f5101f3 	svcls	0x005101f3
	...
    1f2c:	000000bc 	strheq	r0, [r0], -ip
    1f30:	000000c7 	andeq	r0, r0, r7, asr #1
    1f34:	c7500001 	ldrbgt	r0, [r0, -r1]
    1f38:	cc000000 	stcgt	0, cr0, [r0], {-0}
    1f3c:	04000000 	streq	r0, [r0], #-0
    1f40:	5001f300 	andpl	pc, r1, r0, lsl #6
    1f44:	0000009f 	muleq	r0, pc, r0	; <UNPREDICTABLE>
	...
    1f50:	00009800 	andeq	r9, r0, r0, lsl #16
    1f54:	0000b000 	andeq	fp, r0, r0
    1f58:	50000100 	andpl	r0, r0, r0, lsl #2
    1f5c:	000000b0 	strheq	r0, [r0], -r0	; <UNPREDICTABLE>
    1f60:	000000bc 	strheq	r0, [r0], -ip
    1f64:	01f30004 	mvnseq	r0, r4
    1f68:	00009f50 	andeq	r9, r0, r0, asr pc
	...
    1f74:	00740000 	rsbseq	r0, r4, r0
    1f78:	008c0000 	addeq	r0, ip, r0
    1f7c:	00010000 	andeq	r0, r1, r0
    1f80:	00008c50 	andeq	r8, r0, r0, asr ip
    1f84:	00009800 	andeq	r9, r0, r0, lsl #16
    1f88:	f3000400 	vshl.u8	d0, d0, d0
    1f8c:	009f5001 	addseq	r5, pc, r1
	...
    1f98:	64000000 	strvs	r0, [r0], #-0
    1f9c:	6f000000 	svcvs	0x00000000
    1fa0:	01000000 	mrseq	r0, (UNDEF: 0)
    1fa4:	006f5000 	rsbeq	r5, pc, r0
    1fa8:	00740000 	rsbseq	r0, r4, r0
    1fac:	00040000 	andeq	r0, r4, r0
    1fb0:	9f5001f3 	svcls	0x005001f3
	...
    1fc4:	00000038 	andeq	r0, r0, r8, lsr r0
    1fc8:	38500001 	ldmdacc	r0, {r0}^
    1fcc:	64000000 	strvs	r0, [r0], #-0
    1fd0:	04000000 	streq	r0, [r0], #-0
    1fd4:	5001f300 	andpl	pc, r1, r0, lsl #6
    1fd8:	0000009f 	muleq	r0, pc, r0	; <UNPREDICTABLE>
	...
    1fe8:	00004700 	andeq	r4, r0, r0, lsl #14
    1fec:	51000100 	mrspl	r0, (UNDEF: 16)
    1ff0:	00000047 	andeq	r0, r0, r7, asr #32
    1ff4:	00000064 	andeq	r0, r0, r4, rrx
    1ff8:	01f30004 	mvnseq	r0, r4
    1ffc:	00009f51 	andeq	r9, r0, r1, asr pc
	...
    2008:	00000034 	andeq	r0, r0, r4, lsr r0
    200c:	00000064 	andeq	r0, r0, r4, rrx
    2010:	00540001 	subseq	r0, r4, r1
	...
    201c:	00004000 	andeq	r4, r0, r0
    2020:	00006400 	andeq	r6, r0, r0, lsl #8
    2024:	56000100 	strpl	r0, [r0], -r0, lsl #2
	...
    2030:	01000000 	mrseq	r0, (UNDEF: 0)
    2034:	00000001 	andeq	r0, r0, r1
    2038:	00000048 	andeq	r0, r0, r8, asr #32
    203c:	00000050 	andeq	r0, r0, r0, asr r0
    2040:	50500001 	subspl	r0, r0, r1
    2044:	50000000 	andpl	r0, r0, r0
    2048:	01000000 	mrseq	r0, (UNDEF: 0)
    204c:	00505100 	subseq	r5, r0, r0, lsl #2
    2050:	00540000 	subseq	r0, r4, r0
    2054:	00090000 	andeq	r0, r9, r0
    2058:	00740075 	rsbseq	r0, r4, r5, ror r0
    205c:	21007124 	tstcs	r0, r4, lsr #2
    2060:	0000549f 	muleq	r0, pc, r4	; <UNPREDICTABLE>
    2064:	00005b00 	andeq	r5, r0, r0, lsl #22
    2068:	51000100 	mrspl	r0, (UNDEF: 16)
	...

Disassembly of section .debug_aranges:

00000000 <.debug_aranges>:
   0:	0000001c 	andeq	r0, r0, ip, lsl r0
   4:	00000002 	andeq	r0, r0, r2
   8:	00040000 	andeq	r0, r4, r0
   c:	00000000 	andeq	r0, r0, r0
  10:	00008038 	andeq	r8, r0, r8, lsr r0
  14:	000000cc 	andeq	r0, r0, ip, asr #1
	...
  20:	0000001c 	andeq	r0, r0, ip, lsl r0
  24:	03de0002 	bicseq	r0, lr, #2, 0
  28:	00040000 	andeq	r0, r4, r0
  2c:	00000000 	andeq	r0, r0, r0
  30:	00008104 	andeq	r8, r0, r4, lsl #2
  34:	000003ac 	andeq	r0, r0, ip, lsr #7
	...
  40:	0000001c 	andeq	r0, r0, ip, lsl r0
  44:	0ca10002 	stceq	0, cr0, [r1], #8
  48:	00040000 	andeq	r0, r4, r0
  4c:	00000000 	andeq	r0, r0, r0
  50:	000084b0 			; <UNDEFINED> instruction: 0x000084b0
  54:	00000594 	muleq	r0, r4, r5
	...
  60:	0000001c 	andeq	r0, r0, ip, lsl r0
  64:	188a0002 	stmne	sl, {r1}
  68:	00040000 	andeq	r0, r4, r0
  6c:	00000000 	andeq	r0, r0, r0
  70:	00008a88 	andeq	r8, r0, r8, lsl #21
  74:	000001ac 	andeq	r0, r0, ip, lsr #3
	...
  80:	0000001c 	andeq	r0, r0, ip, lsl r0
  84:	1b680002 	blne	1a00094 <__bss_end__+0x19f56b4>
  88:	00040000 	andeq	r0, r4, r0
  8c:	00000000 	andeq	r0, r0, r0
  90:	00008c34 	andeq	r8, r0, r4, lsr ip
  94:	00000018 	andeq	r0, r0, r8, lsl r0
	...
  a0:	0000001c 	andeq	r0, r0, ip, lsl r0
  a4:	1ca60002 	stcne	0, cr0, [r6], #8
  a8:	00040000 	andeq	r0, r4, r0
  ac:	00000000 	andeq	r0, r0, r0
  b0:	00008c4c 	andeq	r8, r0, ip, asr #24
  b4:	00000058 	andeq	r0, r0, r8, asr r0
	...
  c0:	0000001c 	andeq	r0, r0, ip, lsl r0
  c4:	1e470002 	cdpne	0, 4, cr0, cr7, cr2, {0}
  c8:	00040000 	andeq	r0, r4, r0
  cc:	00000000 	andeq	r0, r0, r0
  d0:	00008ca4 	andeq	r8, r0, r4, lsr #25
  d4:	00000034 	andeq	r0, r0, r4, lsr r0
	...
  e0:	0000001c 	andeq	r0, r0, ip, lsl r0
  e4:	1f3e0002 	svcne	0x003e0002
  e8:	00040000 	andeq	r0, r4, r0
  ec:	00000000 	andeq	r0, r0, r0
  f0:	00008cd8 	ldrdeq	r8, [r0], -r8	; <UNPREDICTABLE>
  f4:	00000740 	andeq	r0, r0, r0, asr #14
	...
 100:	0000001c 	andeq	r0, r0, ip, lsl r0
 104:	2a190002 	bcs	640114 <__bss_end__+0x635734>
 108:	00040000 	andeq	r0, r4, r0
 10c:	00000000 	andeq	r0, r0, r0
 110:	00009418 	andeq	r9, r0, r8, lsl r4
 114:	0000002c 	andeq	r0, r0, ip, lsr #32
	...
 120:	0000001c 	andeq	r0, r0, ip, lsl r0
 124:	2b4c0002 	blcs	1300134 <__bss_end__+0x12f5754>
 128:	00040000 	andeq	r0, r4, r0
 12c:	00000000 	andeq	r0, r0, r0
 130:	00009444 	andeq	r9, r0, r4, asr #8
 134:	0000003c 	andeq	r0, r0, ip, lsr r0
	...
 140:	0000001c 	andeq	r0, r0, ip, lsl r0
 144:	2cd90002 	ldclcs	0, cr0, [r9], {2}
 148:	00040000 	andeq	r0, r4, r0
 14c:	00000000 	andeq	r0, r0, r0
 150:	00009480 	andeq	r9, r0, r0, lsl #9
 154:	00000004 	andeq	r0, r0, r4
	...
 160:	0000001c 	andeq	r0, r0, ip, lsl r0
 164:	2dab0002 	stccs	0, cr0, [fp, #8]!
 168:	00040000 	andeq	r0, r4, r0
 16c:	00000000 	andeq	r0, r0, r0
 170:	00009484 	andeq	r9, r0, r4, lsl #9
 174:	00000080 	andeq	r0, r0, r0, lsl #1
	...
 180:	0000001c 	andeq	r0, r0, ip, lsl r0
 184:	2fe50002 	svccs	0x00e50002
 188:	00040000 	andeq	r0, r4, r0
 18c:	00000000 	andeq	r0, r0, r0
 190:	00009504 	andeq	r9, r0, r4, lsl #10
 194:	00000084 	andeq	r0, r0, r4, lsl #1
	...
 1a0:	0000001c 	andeq	r0, r0, ip, lsl r0
 1a4:	32360002 	eorscc	r0, r6, #2, 0
 1a8:	00040000 	andeq	r0, r4, r0
 1ac:	00000000 	andeq	r0, r0, r0
 1b0:	00009588 	andeq	r9, r0, r8, lsl #11
 1b4:	000001f0 	strdeq	r0, [r0], -r0	; <UNPREDICTABLE>
	...
 1c0:	0000001c 	andeq	r0, r0, ip, lsl r0
 1c4:	38070002 	stmdacc	r7, {r1}
 1c8:	00040000 	andeq	r0, r4, r0
 1cc:	00000000 	andeq	r0, r0, r0
 1d0:	00009778 	andeq	r9, r0, r8, ror r7
 1d4:	000003b0 			; <UNDEFINED> instruction: 0x000003b0
	...
 1e0:	0000001c 	andeq	r0, r0, ip, lsl r0
 1e4:	40f40002 	rscsmi	r0, r4, r2
 1e8:	00040000 	andeq	r0, r4, r0
 1ec:	00000000 	andeq	r0, r0, r0
 1f0:	00009b28 	andeq	r9, r0, r8, lsr #22
 1f4:	0000003c 	andeq	r0, r0, ip, lsr r0
	...
 200:	0000001c 	andeq	r0, r0, ip, lsl r0
 204:	42410002 	submi	r0, r1, #2, 0
 208:	00040000 	andeq	r0, r4, r0
 20c:	00000000 	andeq	r0, r0, r0
 210:	00009b64 	andeq	r9, r0, r4, ror #22
 214:	00000034 	andeq	r0, r0, r4, lsr r0
	...
 220:	0000001c 	andeq	r0, r0, ip, lsl r0
 224:	437c0002 	cmnmi	ip, #2, 0
 228:	00040000 	andeq	r0, r4, r0
 22c:	00000000 	andeq	r0, r0, r0
 230:	00009b98 	muleq	r0, r8, fp
 234:	0000002c 	andeq	r0, r0, ip, lsr #32
	...
 240:	0000001c 	andeq	r0, r0, ip, lsl r0
 244:	44770002 	ldrbtmi	r0, [r7], #-2
 248:	00040000 	andeq	r0, r4, r0
 24c:	00000000 	andeq	r0, r0, r0
 250:	00009bc4 	andeq	r9, r0, r4, asr #23
 254:	00000020 	andeq	r0, r0, r0, lsr #32
	...
 260:	0000001c 	andeq	r0, r0, ip, lsl r0
 264:	458a0002 	strmi	r0, [sl, #2]
 268:	00040000 	andeq	r0, r4, r0
 26c:	00000000 	andeq	r0, r0, r0
 270:	00009be4 	andeq	r9, r0, r4, ror #23
 274:	0000002c 	andeq	r0, r0, ip, lsr #32
	...
 280:	0000001c 	andeq	r0, r0, ip, lsl r0
 284:	46dc0002 	ldrbmi	r0, [ip], r2
 288:	00040000 	andeq	r0, r4, r0
 28c:	00000000 	andeq	r0, r0, r0
 290:	00009c10 	andeq	r9, r0, r0, lsl ip
 294:	00000004 	andeq	r0, r0, r4
	...
 2a0:	0000001c 	andeq	r0, r0, ip, lsl r0
 2a4:	47ae0002 	strmi	r0, [lr, r2]!
 2a8:	00040000 	andeq	r0, r4, r0
 2ac:	00000000 	andeq	r0, r0, r0
 2b0:	00009c2c 	andeq	r9, r0, ip, lsr #24
 2b4:	0000011c 	andeq	r0, r0, ip, lsl r1
	...

Disassembly of section .debug_line:

00000000 <.debug_line>:
       0:	00000177 	andeq	r0, r0, r7, ror r1
       4:	01080003 	tsteq	r8, r3
       8:	01020000 	mrseq	r0, (UNDEF: 2)
       c:	000d0efb 	strdeq	r0, [sp], -fp
      10:	01010101 	tsteq	r1, r1, lsl #2
      14:	01000000 	mrseq	r0, (UNDEF: 0)
      18:	74010000 	strvc	r0, [r1], #-0
      1c:	73747365 	cmnvc	r4, #-1811939327	; 0x94000001
      20:	2f002e00 	svccs	0x00002e00
      24:	2f727375 	svccs	0x00727375
      28:	61636f6c 	cmnvs	r3, ip, ror #30
      2c:	65432f6c 	strbvs	r2, [r3, #-3948]	; 0xfffff094
      30:	72616c6c 	rsbvc	r6, r1, #108, 24	; 0x6c00
      34:	6d72612f 	ldfvse	f6, [r2, #-188]!	; 0xffffff44
      38:	6e6f6e2d 	cdpvs	14, 6, cr6, cr15, cr13, {1}
      3c:	61652d65 	cmnvs	r5, r5, ror #26
      40:	742d6962 	strtvc	r6, [sp], #-2402	; 0xfffff69e
      44:	2f747365 	svccs	0x00747365
      48:	30322d39 	eorscc	r2, r2, r9, lsr sp
      4c:	34713931 	ldrbtcc	r3, [r1], #-2353	; 0xfffff6cf
      50:	3173632d 	cmncc	r3, sp, lsr #6
      54:	2f653730 	svccs	0x00653730
      58:	2f62696c 	svccs	0x0062696c
      5c:	2f636367 	svccs	0x00636367
      60:	2d6d7261 	sfmcs	f7, 2, [sp, #-388]!	; 0xfffffe7c
      64:	656e6f6e 	strbvs	r6, [lr, #-3950]!	; 0xfffff092
      68:	6261652d 	rsbvs	r6, r1, #188743680	; 0xb400000
      6c:	2e392f69 	cdpcs	15, 3, cr2, cr9, cr9, {3}
      70:	2f312e32 	svccs	0x00312e32
      74:	6c636e69 	stclvs	14, cr6, [r3], #-420	; 0xfffffe5c
      78:	00656475 	rsbeq	r6, r5, r5, ror r4
      7c:	6573552f 	ldrbvs	r5, [r3, #-1327]!	; 0xfffffad1
      80:	742f7372 	strtvc	r7, [pc], #-882	; 88 <__code_start__-0x7f78>
      84:	74736972 	ldrbtvc	r6, [r3], #-2418	; 0xfffff68e
      88:	6f6e6e65 	svcvs	0x006e6e65
      8c:	616d6c6c 	cmnvs	sp, ip, ror #24
      90:	6f442f6e 	svcvs	0x00442f6e
      94:	656d7563 	strbvs	r7, [sp, #-1379]!	; 0xfffffa9d
      98:	2f73746e 	svccs	0x0073746e
      9c:	69727053 	ldmdbvs	r2!, {r0, r1, r4, r6, ip, sp, lr}^
      a0:	515f676e 	cmppl	pc, lr, ror #14
      a4:	74726175 	ldrbtvc	r6, [r2], #-373	; 0xfffffe8b
      a8:	325f7265 	subscc	r7, pc, #1342177286	; 0x50000006
      ac:	2f323230 	svccs	0x00323230
      b0:	34325343 	ldrtcc	r5, [r2], #-835	; 0xfffffcbd
      b4:	2d584c30 	ldclcs	12, cr4, [r8, #-192]	; 0xffffff40
      b8:	32727073 	rsbscc	r7, r2, #115, 0	; 0x73
      bc:	696c2f32 	stmdbvs	ip!, {r1, r4, r5, r8, r9, sl, fp, sp}^
      c0:	2f697062 	svccs	0x00697062
      c4:	6c636e69 	stclvs	14, cr6, [r3], #-420	; 0xfffffe5c
      c8:	00656475 	rsbeq	r6, r5, r5, ror r4
      cc:	72617000 	rsbvc	r7, r1, #0, 0
      d0:	742d3274 	strtvc	r3, [sp], #-628	; 0xfffffd8c
      d4:	32747365 	rsbscc	r7, r4, #-1811939327	; 0x94000001
      d8:	0100632e 	tsteq	r0, lr, lsr #6
      dc:	72730000 	rsbsvc	r0, r3, #0, 0
      e0:	6f6c2d63 	svcvs	0x006c2d63
      e4:	00682e63 	rsbeq	r2, r8, r3, ror #28
      e8:	73000002 	movwvc	r0, #2
      ec:	6e696474 	mcrvs	4, 3, r6, cr9, cr4, {3}
      f0:	63672d74 	cmnvs	r7, #116, 26	; 0x1d00
      f4:	00682e63 	rsbeq	r2, r8, r3, ror #28
      f8:	72000003 	andvc	r0, r0, #3, 0
      fc:	682e6970 	stmdavs	lr!, {r4, r5, r6, r8, fp, sp, lr}
     100:	00000400 	andeq	r0, r0, r0, lsl #8
     104:	6c616b63 			; <UNDEFINED> instruction: 0x6c616b63
     108:	2e636f6c 	cdpcs	15, 6, cr6, cr3, cr12, {3}
     10c:	00020068 	andeq	r0, r2, r8, rrx
     110:	13050000 	movwne	r0, #20480	; 0x5000
     114:	38020500 	stmdacc	r2, {r8, sl}
     118:	03000080 	movweq	r0, #128	; 0x80
     11c:	02050115 	andeq	r0, r5, #1073741829	; 0x40000005
     120:	1405054b 	strne	r0, [r5], #-1355	; 0xfffffab5
     124:	050204bb 	streq	r0, [r2, #-1211]	; 0xfffffb45
     128:	0172030b 	cmneq	r2, fp, lsl #6
     12c:	05130505 	ldreq	r0, [r3, #-1285]	; 0xfffffafb
     130:	ba01060c 	blt	41968 <__bss_end__+0x36f88>
     134:	10050104 	andne	r0, r5, r4, lsl #2
     138:	05010d03 	streq	r0, [r1, #-3331]	; 0xfffff2fd
     13c:	0505820e 	streq	r8, [r5, #-526]	; 0xfffffdf2
     140:	04682f06 	strbteq	r2, [r8], #-3846	; 0xfffff0fa
     144:	030b0502 	movweq	r0, #46338	; 0xb502
     148:	0505016f 	streq	r0, [r5, #-367]	; 0xfffffe91
     14c:	060c0513 			; <UNDEFINED> instruction: 0x060c0513
     150:	01048201 	tsteq	r4, r1, lsl #4
     154:	10030e05 	andne	r0, r3, r5, lsl #28
     158:	06050501 	streq	r0, [r5], -r1, lsl #10
     15c:	010531a0 	smlatbeq	r5, r0, r1, r3
     160:	05661306 	strbeq	r1, [r6, #-774]!	; 0xfffffcfa
     164:	05000614 	streq	r0, [r0, #-1556]	; 0xfffff9ec
     168:	0080dc02 	addeq	sp, r0, r2, lsl #24
     16c:	05051500 	streq	r1, [r5, #-1280]	; 0xfffffb00
     170:	01054e2f 	tsteq	r5, pc, lsr #28
     174:	06028306 	streq	r8, [r2], -r6, lsl #6
     178:	03010100 	movweq	r0, #4352	; 0x1100
     17c:	03000004 	movweq	r0, #4
     180:	00010b00 	andeq	r0, r1, r0, lsl #22
     184:	fb010200 	blx	4098e <__bss_end__+0x35fae>
     188:	01000d0e 	tsteq	r0, lr, lsl #26
     18c:	00010101 	andeq	r0, r1, r1, lsl #2
     190:	00010000 	andeq	r0, r1, r0
     194:	752f0100 	strvc	r0, [pc, #-256]!	; 9c <__code_start__-0x7f64>
     198:	6c2f7273 	sfmvs	f7, 4, [pc], #-460	; ffffffd4 <__bss_end__+0xffff55f4>
     19c:	6c61636f 	stclvs	3, cr6, [r1], #-444	; 0xfffffe44
     1a0:	6c65432f 	stclvs	3, cr4, [r5], #-188	; 0xffffff44
     1a4:	2f72616c 	svccs	0x0072616c
     1a8:	2d6d7261 	sfmcs	f7, 2, [sp, #-388]!	; 0xfffffe7c
     1ac:	656e6f6e 	strbvs	r6, [lr, #-3950]!	; 0xfffff092
     1b0:	6261652d 	rsbvs	r6, r1, #188743680	; 0xb400000
     1b4:	65742d69 	ldrbvs	r2, [r4, #-3433]!	; 0xfffff297
     1b8:	392f7473 	stmdbcc	pc!, {r0, r1, r4, r5, r6, sl, ip, sp, lr}	; <UNPREDICTABLE>
     1bc:	3130322d 	teqcc	r0, sp, lsr #4
     1c0:	2d347139 	ldfcss	f7, [r4, #-228]!	; 0xffffff1c
     1c4:	30317363 	eorscc	r7, r1, r3, ror #6
     1c8:	6c2f6537 	cfstr32vs	mvfx6, [pc], #-220	; f4 <__code_start__-0x7f0c>
     1cc:	672f6269 	strvs	r6, [pc, -r9, ror #4]!
     1d0:	612f6363 			; <UNDEFINED> instruction: 0x612f6363
     1d4:	6e2d6d72 	mcrvs	13, 1, r6, cr13, cr2, {3}
     1d8:	2d656e6f 	stclcs	14, cr6, [r5, #-444]!	; 0xfffffe44
     1dc:	69626165 	stmdbvs	r2!, {r0, r2, r5, r6, r8, sp, lr}^
     1e0:	322e392f 	eorcc	r3, lr, #770048	; 0xbc000
     1e4:	692f312e 	stmdbvs	pc!, {r1, r2, r3, r5, r8, ip, sp}	; <UNPREDICTABLE>
     1e8:	756c636e 	strbvc	r6, [ip, #-878]!	; 0xfffffc92
     1ec:	2f006564 	svccs	0x00006564
     1f0:	72657355 	rsbvc	r7, r5, #1409286145	; 0x54000001
     1f4:	72742f73 	rsbsvc	r2, r4, #460	; 0x1cc
     1f8:	65747369 	ldrbvs	r7, [r4, #-873]!	; 0xfffffc97
     1fc:	6c6f6e6e 	stclvs	14, cr6, [pc], #-440	; 4c <__code_start__-0x7fb4>
     200:	6e616d6c 	cdpvs	13, 6, cr6, cr1, cr12, {3}
     204:	636f442f 	cmnvs	pc, #788529152	; 0x2f000000
     208:	6e656d75 	mcrvs	13, 3, r6, cr5, cr5, {3}
     20c:	532f7374 			; <UNDEFINED> instruction: 0x532f7374
     210:	6e697270 	mcrvs	2, 3, r7, cr9, cr0, {3}
     214:	75515f67 	ldrbvc	r5, [r1, #-3943]	; 0xfffff099
     218:	65747261 	ldrbvs	r7, [r4, #-609]!	; 0xfffffd9f
     21c:	30325f72 	eorscc	r5, r2, r2, ror pc
     220:	432f3232 			; <UNDEFINED> instruction: 0x432f3232
     224:	30343253 	eorscc	r3, r4, r3, asr r2
     228:	732d584c 			; <UNDEFINED> instruction: 0x732d584c
     22c:	32327270 	eorscc	r7, r2, #112, 4
     230:	62696c2f 	rsbvs	r6, r9, #12032	; 0x2f00
     234:	692f6970 	stmdbvs	pc!, {r4, r5, r6, r8, fp, sp, lr}	; <UNPREDICTABLE>
     238:	756c636e 	strbvc	r6, [ip, #-878]!	; 0xfffffc92
     23c:	00006564 	andeq	r6, r0, r4, ror #10
     240:	6c616b63 			; <UNDEFINED> instruction: 0x6c616b63
     244:	2e636f6c 	cdpcs	15, 6, cr6, cr3, cr12, {3}
     248:	00000063 	andeq	r0, r0, r3, rrx
     24c:	616b6300 	cmnvs	fp, r0, lsl #6
     250:	636f6c6c 	cmnvs	pc, #108, 24	; 0x6c00
     254:	0000682e 	andeq	r6, r0, lr, lsr #16
     258:	74730000 	ldrbtvc	r0, [r3], #-0
     25c:	746e6964 	strbtvc	r6, [lr], #-2404	; 0xfffff69c
     260:	6363672d 	cmnvs	r3, #11796480	; 0xb40000
     264:	0100682e 	tsteq	r0, lr, lsr #16
     268:	70720000 	rsbsvc	r0, r2, r0
     26c:	00682e69 	rsbeq	r2, r8, r9, ror #28
     270:	73000002 	movwvc	r0, #2
     274:	6c2d6372 	stcvs	3, cr6, [sp], #-456	; 0xfffffe38
     278:	682e636f 	stmdavs	lr!, {r0, r1, r2, r3, r5, r6, r8, r9, sp, lr}
     27c:	00000000 	andeq	r0, r0, r0
     280:	6d2d726b 	sfmvs	f7, 4, [sp, #-428]!	; 0xfffffe54
     284:	6f6c6c61 	svcvs	0x006c6c61
     288:	00682e63 	rsbeq	r2, r8, r3, ror #28
     28c:	00000000 	andeq	r0, r0, r0
     290:	05002d05 	streq	r2, [r0, #-3333]	; 0xfffff2fb
     294:	00810402 	addeq	r0, r1, r2, lsl #8
     298:	011d0300 	tsteq	sp, r0, lsl #6
     29c:	05130205 	ldreq	r0, [r3, #-517]	; 0xfffffdfb
     2a0:	05010610 	streq	r0, [r1, #-1552]	; 0xfffff9f0
     2a4:	03054a05 	movweq	r4, #23045	; 0x5a05
     2a8:	00015006 	andeq	r5, r1, r6
     2ac:	4a020402 	bmi	812bc <__bss_end__+0x768dc>
     2b0:	02040200 	andeq	r0, r4, #0, 4
     2b4:	04020001 	streq	r0, [r2], #-1
     2b8:	02001302 	andeq	r1, r0, #134217728	; 0x8000000
     2bc:	05130204 	ldreq	r0, [r3, #-516]	; 0xfffffdfc
     2c0:	0402000d 	streq	r0, [r2], #-13
     2c4:	05010602 	streq	r0, [r1, #-1538]	; 0xfffff9fe
     2c8:	04020003 	streq	r0, [r2], #-3
     2cc:	054b0602 	strbeq	r0, [fp, #-1538]	; 0xfffff9fe
     2d0:	04020013 	streq	r0, [r2], #-19	; 0xffffffed
     2d4:	05010602 	streq	r0, [r1, #-1538]	; 0xfffff9fe
     2d8:	04020003 	streq	r0, [r2], #-3
     2dc:	002f0602 	eoreq	r0, pc, r2, lsl #12
     2e0:	06020402 	streq	r0, [r2], -r2, lsl #8
     2e4:	7803062e 	stmdavc	r3, {r1, r2, r3, r5, r9, sl}
     2e8:	060e0501 	streq	r0, [lr], -r1, lsl #10
     2ec:	06030501 	streq	r0, [r3], -r1, lsl #10
     2f0:	060d054b 	streq	r0, [sp], -fp, asr #10
     2f4:	06030501 	streq	r0, [r3], -r1, lsl #10
     2f8:	002d052f 	eoreq	r0, sp, pc, lsr #10
     2fc:	06010402 	streq	r0, [r1], -r2, lsl #8
     300:	00030529 	andeq	r0, r3, r9, lsr #10
     304:	06010402 	streq	r0, [r1], -r2, lsl #8
     308:	04020051 	streq	r0, [r2], #-81	; 0xffffffaf
     30c:	02000101 	andeq	r0, r0, #1073741824	; 0x40000000
     310:	9e060104 	adflss	f0, f6, f4
     314:	01040200 	mrseq	r0, R12_usr
     318:	0402002e 	streq	r0, [r2], #-46	; 0xffffffd2
     31c:	052e0601 	streq	r0, [lr, #-1537]!	; 0xfffff9ff
     320:	ba09031b 	blt	240f94 <__bss_end__+0x2365b4>
     324:	05130505 	ldreq	r0, [r3, #-1285]	; 0xfffffafb
     328:	05130601 	ldreq	r0, [r3, #-1537]	; 0xfffff9ff
     32c:	0585061e 	streq	r0, [r5, #1566]	; 0x61e
     330:	07051305 	streq	r1, [r5, -r5, lsl #6]
     334:	052e0106 	streq	r0, [lr, #-262]!	; 0xfffffefa
     338:	052f0609 	streq	r0, [pc, #-1545]!	; fffffd37 <__bss_end__+0xffff5357>
     33c:	05010611 	streq	r0, [r1, #-1553]	; 0xfffff9ef
     340:	2d053001 	stccs	0, cr3, [r5, #-4]
     344:	2e530306 	cdpcs	3, 5, cr0, cr3, cr6, {0}
     348:	05050106 	streq	r0, [r5, #-262]	; 0xfffffefa
     34c:	06014b06 	streq	r4, [r1], -r6, lsl #22
     350:	0402002e 	streq	r0, [r2], #-46	; 0xffffffd2
     354:	004a0602 	subeq	r0, sl, r2, lsl #12
     358:	01020402 	tsteq	r2, r2, lsl #8
     35c:	02040200 	andeq	r0, r4, #0, 4
     360:	04020013 	streq	r0, [r2], #-19	; 0xffffffed
     364:	07051402 	streq	r1, [r5, -r2, lsl #8]
     368:	02040200 	andeq	r0, r4, #0, 4
     36c:	0a050106 	beq	14078c <__bss_end__+0x135dac>
     370:	10055006 	andne	r5, r5, r6
     374:	0a052e06 	beq	14bb94 <__bss_end__+0x1411b4>
     378:	09052e2e 	stmdbeq	r5, {r1, r2, r3, r5, r9, sl, fp, sp}
     37c:	0b052f06 	bleq	14bf9c <__bss_end__+0x1415bc>
     380:	0d050106 	stfeqs	f0, [r5, #-24]	; 0xffffffe8
     384:	1b054b06 	blne	152fa4 <__bss_end__+0x1485c4>
     388:	18050106 	stmdane	r5, {r1, r2, r8}
     38c:	060d052e 	streq	r0, [sp], -lr, lsr #10
     390:	0601052f 	streq	r0, [r1], -pc, lsr #10
     394:	00050517 	andeq	r0, r5, r7, lsl r5
     398:	06010402 	streq	r0, [r1], -r2, lsl #8
     39c:	004a6f03 	subeq	r6, sl, r3, lsl #30
     3a0:	01010402 	tsteq	r1, r2, lsl #8
     3a4:	01040200 	mrseq	r0, R12_usr
     3a8:	02009e06 	andeq	r9, r0, #96	; 0x60
     3ac:	002e0104 	eoreq	r0, lr, r4, lsl #2
     3b0:	06010402 	streq	r0, [r1], -r2, lsl #8
     3b4:	2e10032e 	cdpcs	3, 1, cr0, cr0, cr14, {1}
     3b8:	069e0601 	ldreq	r0, [lr], r1, lsl #12
     3bc:	031e052e 	tsteq	lr, #192937984	; 0xb800000
     3c0:	0505ba1f 	streq	fp, [r5, #-2591]	; 0xfffff5e1
     3c4:	06010513 			; <UNDEFINED> instruction: 0x06010513
     3c8:	1c052e13 	stcne	14, cr2, [r5], {19}
     3cc:	01063106 	tsteq	r6, r6, lsl #2
     3d0:	4b060505 	blmi	1817ec <__bss_end__+0x176e0c>
     3d4:	01061405 	tsteq	r6, r5, lsl #8
     3d8:	18050204 	stmdane	r5, {r2, r9}
     3dc:	2e680306 	cdpcs	3, 6, cr0, cr8, cr6, {0}
     3e0:	05130505 	ldreq	r0, [r3, #-1285]	; 0xfffffafb
     3e4:	2e01060d 	cfmadd32cs	mvax0, mvfx0, mvfx1, mvfx13
     3e8:	01050104 	tsteq	r5, r4, lsl #2
     3ec:	05011803 	streq	r1, [r1, #-2051]	; 0xfffff7fd
     3f0:	054c061b 	strbeq	r0, [ip, #-1563]	; 0xfffff9e5
     3f4:	11052f02 	tstne	r5, r2, lsl #30
     3f8:	02050106 	andeq	r0, r5, #-2147483647	; 0x80000001
     3fc:	01052f06 	tsteq	r5, r6, lsl #30
     400:	052e1306 	streq	r1, [lr, #-774]!	; 0xfffffcfa
     404:	05300620 	ldreq	r0, [r0, #-1568]!	; 0xfffff9e0
     408:	05051302 	streq	r1, [r5, #-770]	; 0xfffffcfe
     40c:	052e0106 	streq	r0, [lr, #-262]!	; 0xfffffefa
     410:	052f0603 	streq	r0, [pc, #-1539]!	; fffffe15 <__bss_end__+0xffff5435>
     414:	0501060a 	streq	r0, [r1, #-1546]	; 0xfffff9f6
     418:	052f0603 	streq	r0, [pc, #-1539]!	; fffffe1d <__bss_end__+0xffff543d>
     41c:	05010608 	streq	r0, [r1, #-1544]	; 0xfffff9f8
     420:	052f0603 	streq	r0, [pc, #-1539]!	; fffffe25 <__bss_end__+0xffff5445>
     424:	05160601 	ldreq	r0, [r6, #-1537]	; 0xfffff9ff
     428:	0531062f 	ldreq	r0, [r1, #-1583]!	; 0xfffff9d1
     42c:	1a051302 	bne	14503c <__bss_end__+0x13a65c>
     430:	29050106 	stmdbcs	r5, {r1, r2, r8}
     434:	4a05052e 	bmi	1418f4 <__bss_end__+0x136f14>
     438:	02004805 	andeq	r4, r0, #327680	; 0x50000
     43c:	054a0104 	strbeq	r0, [sl, #-260]	; 0xfffffefc
     440:	04020035 	streq	r0, [r2], #-53	; 0xffffffcb
     444:	09052e01 	stmdbeq	r5, {r0, r9, sl, fp, sp}
     448:	2e2e2e4d 	cdpcs	14, 2, cr2, cr14, cr13, {2}
     44c:	052c0a05 	streq	r0, [ip, #-2565]!	; 0xfffff5fb
     450:	25053101 	strcs	r3, [r5, #-257]	; 0xfffffeff
     454:	01063106 	tsteq	r6, r6, lsl #2
     458:	4b060505 	blmi	181874 <__bss_end__+0x176e94>
     45c:	05010905 	streq	r0, [r1, #-2309]	; 0xfffff6fb
     460:	2e010614 	mcrcs	6, 0, r0, cr1, cr4, {0}
     464:	052e0505 	streq	r0, [lr, #-1285]!	; 0xfffffafb
     468:	04020027 	streq	r0, [r2], #-39	; 0xffffffd9
     46c:	052e0602 	streq	r0, [lr, #-1538]!	; 0xfffff9fe
     470:	0402002b 	streq	r0, [r2], #-43	; 0xffffffd5
     474:	05010602 	streq	r0, [r1, #-1538]	; 0xfffff9fe
     478:	04020024 	streq	r0, [r2], #-36	; 0xffffffdc
     47c:	05660601 	strbeq	r0, [r6, #-1537]!	; 0xfffff9ff
     480:	04020005 	streq	r0, [r2], #-5
     484:	05010601 	streq	r0, [r1, #-1537]	; 0xfffff9ff
     488:	054b0609 	strbeq	r0, [fp, #-1545]	; 0xfffff9f7
     48c:	4a01060c 	bmi	41cc4 <__bss_end__+0x372e4>
     490:	052e0b05 	streq	r0, [lr, #-2821]!	; 0xfffff4fb
     494:	04020027 	streq	r0, [r2], #-39	; 0xffffffd9
     498:	23054a01 	movwcs	r4, #23041	; 0x5a01
     49c:	01040200 	mrseq	r0, R12_usr
     4a0:	0402002e 	streq	r0, [r2], #-46	; 0xffffffd2
     4a4:	01054a01 	tsteq	r5, r1, lsl #20
     4a8:	06280518 			; <UNDEFINED> instruction: 0x06280518
     4ac:	8201064e 	andhi	r0, r1, #81788928	; 0x4e00000
     4b0:	2f060505 	svccs	0x00060505
     4b4:	06090514 			; <UNDEFINED> instruction: 0x06090514
     4b8:	2e070501 	cfsh32cs	mvfx0, mvfx7, #1
     4bc:	67060905 	strvs	r0, [r6, -r5, lsl #18]
     4c0:	01130505 	tsteq	r3, r5, lsl #10
     4c4:	0113669e 			; <UNDEFINED> instruction: 0x0113669e
     4c8:	02040200 	andeq	r0, r4, #0, 4
     4cc:	04020082 	streq	r0, [r2], #-130	; 0xffffff7e
     4d0:	02000102 	andeq	r0, r0, #-2147483648	; 0x80000000
     4d4:	05130204 	ldreq	r0, [r3, #-516]	; 0xfffffdfc
     4d8:	0402000e 	streq	r0, [r2], #-14
     4dc:	05010602 	streq	r0, [r1, #-1538]	; 0xfffff9fe
     4e0:	04020002 	streq	r0, [r2], #-2
     4e4:	054b0602 	strbeq	r0, [fp, #-1538]	; 0xfffff9fe
     4e8:	04020005 	streq	r0, [r2], #-5
     4ec:	02008302 	andeq	r8, r0, #134217728	; 0x8000000
     4f0:	00010204 	andeq	r0, r1, r4, lsl #4
     4f4:	82020402 	andhi	r0, r2, #33554432	; 0x2000000
     4f8:	02040200 	andeq	r0, r4, #0, 4
     4fc:	04020001 	streq	r0, [r2], #-1
     500:	01051302 	tsteq	r5, r2, lsl #6
     504:	02040200 	andeq	r0, r4, #0, 4
     508:	09054b06 	stmdbeq	r5, {r1, r2, r8, r9, fp, lr}
     50c:	4a790306 	bmi	1e4112c <__bss_end__+0x1e3674c>
     510:	05829e01 	streq	r9, [r2, #3585]	; 0xe01
     514:	04020005 	streq	r0, [r2], #-5
     518:	02003001 	andeq	r3, r0, #1, 0
     51c:	00010104 	andeq	r0, r1, r4, lsl #2
     520:	d6010402 	strle	r0, [r1], -r2, lsl #8
     524:	01040200 	mrseq	r0, R12_usr
     528:	04020031 	streq	r0, [r2], #-49	; 0xffffffcf
     52c:	02000101 	andeq	r0, r0, #1073741824	; 0x40000000
     530:	05d60104 	ldrbeq	r0, [r6, #260]	; 0x104
     534:	065f082f 	ldrbeq	r0, [pc], -pc, lsr #16
     538:	06050501 	streq	r0, [r5], -r1, lsl #10
     53c:	061005a0 	ldreq	r0, [r0], -r0, lsr #11
     540:	02052e01 	andeq	r2, r5, #1, 28
     544:	05054b06 	streq	r4, [r5, #-2822]	; 0xfffff4fa
     548:	06150567 	ldreq	r0, [r5], -r7, ror #10
     54c:	06050501 	streq	r0, [r5], -r1, lsl #10
     550:	060e052f 	streq	r0, [lr], -pc, lsr #10
     554:	06050501 	streq	r0, [r5], -r1, lsl #10
     558:	0612054b 	ldreq	r0, [r2], -fp, asr #10
     55c:	06020501 	streq	r0, [r2], -r1, lsl #10
     560:	060a0567 	streq	r0, [sl], -r7, ror #10
     564:	06020501 	streq	r0, [r2], -r1, lsl #10
     568:	060b054b 	streq	r0, [fp], -fp, asr #10
     56c:	06050501 	streq	r0, [r5], -r1, lsl #10
     570:	829e0131 	addshi	r0, lr, #1073741836	; 0x4000000c
     574:	83140205 	tsthi	r4, #1342177280	; 0x50000000
     578:	14060105 	strne	r0, [r6], #-261	; 0xfffffefb
     57c:	00060266 	andeq	r0, r6, r6, ror #4
     580:	05ce0101 	strbeq	r0, [lr, #257]	; 0x101
     584:	00030000 	andeq	r0, r3, r0
     588:	000000fa 	strdeq	r0, [r0], -sl
     58c:	0efb0102 	cdpeq	1, 15, cr0, cr11, cr2, {0}
     590:	0101000d 	tsteq	r1, sp
     594:	00000101 	andeq	r0, r0, r1, lsl #2
     598:	00000100 	andeq	r0, r0, r0, lsl #2
     59c:	73752f01 	cmnvc	r5, #1, 30
     5a0:	6f6c2f72 	svcvs	0x006c2f72
     5a4:	2f6c6163 	svccs	0x006c6163
     5a8:	6c6c6543 	cfstr64vs	mvdx6, [ip], #-268	; 0xfffffef4
     5ac:	612f7261 			; <UNDEFINED> instruction: 0x612f7261
     5b0:	6e2d6d72 	mcrvs	13, 1, r6, cr13, cr2, {3}
     5b4:	2d656e6f 	stclcs	14, cr6, [r5, #-444]!	; 0xfffffe44
     5b8:	69626165 	stmdbvs	r2!, {r0, r2, r5, r6, r8, sp, lr}^
     5bc:	7365742d 	cmnvc	r5, #754974720	; 0x2d000000
     5c0:	2d392f74 	ldccs	15, cr2, [r9, #-464]!	; 0xfffffe30
     5c4:	39313032 	ldmdbcc	r1!, {r1, r4, r5, ip, sp}
     5c8:	632d3471 			; <UNDEFINED> instruction: 0x632d3471
     5cc:	37303173 			; <UNDEFINED> instruction: 0x37303173
     5d0:	696c2f65 	stmdbvs	ip!, {r0, r2, r5, r6, r8, r9, sl, fp, sp}^
     5d4:	63672f62 	cmnvs	r7, #392	; 0x188
     5d8:	72612f63 	rsbvc	r2, r1, #396	; 0x18c
     5dc:	6f6e2d6d 	svcvs	0x006e2d6d
     5e0:	652d656e 	strvs	r6, [sp, #-1390]!	; 0xfffffa92
     5e4:	2f696261 	svccs	0x00696261
     5e8:	2e322e39 	mrccs	14, 1, r2, cr2, cr9, {1}
     5ec:	6e692f31 	mcrvs	15, 3, r2, cr9, cr1, {1}
     5f0:	64756c63 	ldrbtvs	r6, [r5], #-3171	; 0xfffff39d
     5f4:	552f0065 	strpl	r0, [pc, #-101]!	; 597 <__code_start__-0x7a69>
     5f8:	73726573 	cmnvc	r2, #482344960	; 0x1cc00000
     5fc:	6972742f 	ldmdbvs	r2!, {r0, r1, r2, r3, r5, sl, ip, sp, lr}^
     600:	6e657473 	mcrvs	4, 3, r7, cr5, cr3, {3}
     604:	6c6c6f6e 	stclvs	15, cr6, [ip], #-440	; 0xfffffe48
     608:	2f6e616d 	svccs	0x006e616d
     60c:	75636f44 	strbvc	r6, [r3, #-3908]!	; 0xfffff0bc
     610:	746e656d 	strbtvc	r6, [lr], #-1389	; 0xfffffa93
     614:	70532f73 	subsvc	r2, r3, r3, ror pc
     618:	676e6972 			; <UNDEFINED> instruction: 0x676e6972
     61c:	6175515f 	cmnvs	r5, pc, asr r1
     620:	72657472 	rsbvc	r7, r5, #1912602624	; 0x72000000
     624:	3230325f 	eorscc	r3, r0, #-268435451	; 0xf0000005
     628:	53432f32 	movtpl	r2, #16178	; 0x3f32
     62c:	4c303432 	cfldrsmi	mvf3, [r0], #-200	; 0xffffff38
     630:	70732d58 	rsbsvc	r2, r3, r8, asr sp
     634:	2f323272 	svccs	0x00323272
     638:	7062696c 	rsbvc	r6, r2, ip, ror #18
     63c:	6e692f69 	cdpvs	15, 6, cr2, cr9, cr9, {3}
     640:	64756c63 	ldrbtvs	r6, [r5], #-3171	; 0xfffff39d
     644:	63000065 	movwvs	r0, #101	; 0x65
     648:	63672d6b 	cmnvs	r7, #6848	; 0x1ac0
     64c:	0000632e 	andeq	r6, r0, lr, lsr #6
     650:	74730000 	ldrbtvc	r0, [r3], #-0
     654:	746e6964 	strbtvc	r6, [lr], #-2404	; 0xfffff69c
     658:	6363672d 	cmnvs	r3, #11796480	; 0xb40000
     65c:	0100682e 	tsteq	r0, lr, lsr #16
     660:	70720000 	rsbsvc	r0, r2, r0
     664:	00682e69 	rsbeq	r2, r8, r9, ror #28
     668:	73000002 	movwvc	r0, #2
     66c:	6c2d6372 	stcvs	3, cr6, [sp], #-456	; 0xfffffe38
     670:	682e636f 	stmdavs	lr!, {r0, r1, r2, r3, r5, r6, r8, r9, sp, lr}
     674:	00000000 	andeq	r0, r0, r0
     678:	6c616b63 			; <UNDEFINED> instruction: 0x6c616b63
     67c:	2e636f6c 	cdpcs	15, 6, cr6, cr3, cr12, {3}
     680:	00000068 	andeq	r0, r0, r8, rrx
     684:	1d050000 	stcne	0, cr0, [r5, #-0]
     688:	b0020500 	andlt	r0, r2, r0, lsl #10
     68c:	03000084 	movweq	r0, #132	; 0x84
     690:	05050127 	streq	r0, [r5, #-295]	; 0xfffffed9
     694:	060a0514 			; <UNDEFINED> instruction: 0x060a0514
     698:	4a070501 	bmi	1c1aa4 <__bss_end__+0x1b70c4>
     69c:	02001c05 	andeq	r1, r0, #1280	; 0x500
     6a0:	054a0104 	strbeq	r0, [sl, #-260]	; 0xfffffefc
     6a4:	04020017 	streq	r0, [r2], #-23	; 0xffffffe9
     6a8:	0c054a01 			; <UNDEFINED> instruction: 0x0c054a01
     6ac:	10052e4d 	andne	r2, r5, sp, asr #28
     6b0:	052e2e2c 	streq	r2, [lr, #-3628]!	; 0xfffff1d4
     6b4:	35053101 	strcc	r3, [r5, #-257]	; 0xfffffeff
     6b8:	4a3b0306 	bmi	ec12d8 <__bss_end__+0xeb68f8>
     6bc:	02050106 	andeq	r0, r5, #-2147483647	; 0x80000001
     6c0:	06132f06 	ldreq	r2, [r3], -r6, lsl #30
     6c4:	4d2f062e 	stcmi	6, cr0, [pc, #-184]!	; 614 <__code_start__-0x79ec>
     6c8:	01061005 	tsteq	r6, r5
     6cc:	4b060205 	blmi	180ee8 <__bss_end__+0x176508>
     6d0:	03062405 	movweq	r2, #25605	; 0x6405
     6d4:	1805017a 	stmdane	r5, {r1, r3, r4, r5, r6, r8}
     6d8:	2e0b052e 	cfsh32cs	mvfx0, mvfx11, #30
     6dc:	05340805 	ldreq	r0, [r4, #-2053]!	; 0xfffff7fb
     6e0:	0535060b 	ldreq	r0, [r5, #-1547]!	; 0xfffff9f5
     6e4:	0501060e 	streq	r0, [r1, #-1550]	; 0xfffff9f2
     6e8:	04020029 	streq	r0, [r2], #-41	; 0xffffffd7
     6ec:	21054a01 	tstcs	r5, r1, lsl #20
     6f0:	01040200 	mrseq	r0, R12_usr
     6f4:	0605052e 	streq	r0, [r5], -lr, lsr #10
     6f8:	060b0530 			; <UNDEFINED> instruction: 0x060b0530
     6fc:	06050501 	streq	r0, [r5], -r1, lsl #10
     700:	0612052f 	ldreq	r0, [r2], -pc, lsr #10
     704:	06040501 	streq	r0, [r4], -r1, lsl #10
     708:	4a06014d 	bmi	180c44 <__bss_end__+0x176264>
     70c:	01040200 	mrseq	r0, R12_usr
     710:	03052e06 	movweq	r2, #24070	; 0x5e06
     714:	01040200 	mrseq	r0, R12_usr
     718:	000a0514 	andeq	r0, sl, r4, lsl r5
     71c:	06010402 	streq	r0, [r1], -r2, lsl #8
     720:	06080501 	streq	r0, [r8], -r1, lsl #10
     724:	05667103 	strbeq	r7, [r6, #-259]!	; 0xfffffefd
     728:	0a054b03 	beq	15333c <__bss_end__+0x14895c>
     72c:	03050106 	movweq	r0, #20742	; 0x5106
     730:	0b052f06 	bleq	14c350 <__bss_end__+0x141970>
     734:	06050106 	streq	r0, [r5], -r6, lsl #2
     738:	0031052e 	eorseq	r0, r1, lr, lsr #10
     73c:	4a010402 	bmi	4174c <__bss_end__+0x36d6c>
     740:	68060405 	stmdavs	r6, {r0, r2, sl}
     744:	01060d05 	tsteq	r6, r5, lsl #26
     748:	052e0705 	streq	r0, [lr, #-1797]!	; 0xfffff8fb
     74c:	04020021 	streq	r0, [r2], #-33	; 0xffffffdf
     750:	1a054a01 	bne	152f5c <__bss_end__+0x14857c>
     754:	01040200 	mrseq	r0, R12_usr
     758:	0605052e 	streq	r0, [r5], -lr, lsr #10
     75c:	0611054c 	ldreq	r0, [r1], -ip, asr #10
     760:	02052e01 	andeq	r2, r5, #1, 28
     764:	2e0d0306 	cdpcs	3, 0, cr0, cr13, cr6, {0}
     768:	064a0601 	strbeq	r0, [sl], -r1, lsl #12
     76c:	0405132e 	streq	r1, [r5], #-814	; 0xfffffcd2
     770:	03050106 	movweq	r0, #20742	; 0x5106
     774:	4a014b06 	bmi	53394 <__bss_end__+0x489b4>
     778:	01040200 	mrseq	r0, R12_usr
     77c:	00020514 	andeq	r0, r2, r4, lsl r5
     780:	14010402 	strne	r0, [r1], #-1026	; 0xfffffbfe
     784:	01040200 	mrseq	r0, R12_usr
     788:	0001054b 	andeq	r0, r1, fp, asr #10
     78c:	06010402 	streq	r0, [r1], -r2, lsl #8
     790:	06030513 			; <UNDEFINED> instruction: 0x06030513
     794:	22050146 	andcs	r0, r5, #-2147483631	; 0x80000011
     798:	0800d803 	stmdaeq	r0, {r0, r1, fp, ip, lr, pc}
     79c:	2f020574 	svccs	0x00020574
     7a0:	054c4b13 	strbeq	r4, [ip, #-2835]	; 0xfffff4ed
     7a4:	05010610 	streq	r0, [r1, #-1552]	; 0xfffff9f0
     7a8:	054b0602 	strbeq	r0, [fp, #-1538]	; 0xfffff9fe
     7ac:	050d0622 	streq	r0, [sp, #-1570]	; 0xfffff9de
     7b0:	0b052e18 	bleq	14c018 <__bss_end__+0x141638>
     7b4:	3308052e 	movwcc	r0, #34094	; 0x852e
     7b8:	02000405 	andeq	r0, r0, #83886080	; 0x5000000
     7bc:	35060104 	strcc	r0, [r6, #-260]	; 0xfffffefc
     7c0:	02000305 	andeq	r0, r0, #335544320	; 0x14000000
     7c4:	05140104 	ldreq	r0, [r4, #-260]	; 0xfffffefc
     7c8:	0402000a 	streq	r0, [r2], #-10
     7cc:	05010601 	streq	r0, [r1, #-1537]	; 0xfffff9ff
     7d0:	77030608 	strvc	r0, [r3, -r8, lsl #12]
     7d4:	4b030566 	blmi	c1d74 <__bss_end__+0xb7394>
     7d8:	01060a05 	tsteq	r6, r5, lsl #20
     7dc:	2f060305 	svccs	0x00060305
     7e0:	01060b05 	tsteq	r6, r5, lsl #22
     7e4:	052e0605 	streq	r0, [lr, #-1541]!	; 0xfffff9fb
     7e8:	04020025 	streq	r0, [r2], #-37	; 0xffffffdb
     7ec:	1e054a01 	vmlane.f32	s8, s10, s2
     7f0:	01040200 	mrseq	r0, R12_usr
     7f4:	0038052e 	eorseq	r0, r8, lr, lsr #10
     7f8:	4a020402 	bmi	81808 <__bss_end__+0x76e28>
     7fc:	02003105 	andeq	r3, r0, #1073741825	; 0x40000001
     800:	052e0204 	streq	r0, [lr, #-516]!	; 0xfffffdfc
     804:	054c0604 	strbeq	r0, [ip, #-1540]	; 0xfffff9fc
     808:	05010610 	streq	r0, [r1, #-1552]	; 0xfffff9f0
     80c:	054b0604 	strbeq	r0, [fp, #-1540]	; 0xfffff9fc
     810:	0501060a 	streq	r0, [r1, #-1546]	; 0xfffff9f6
     814:	052f0604 	streq	r0, [pc, #-1540]!	; 218 <__code_start__-0x7de8>
     818:	05010618 	streq	r0, [r1, #-1560]	; 0xfffff9e8
     81c:	04052e11 	streq	r2, [r5], #-3601	; 0xfffff1ef
     820:	06012f06 	streq	r2, [r1], -r6, lsl #30
     824:	02052e4a 	andeq	r2, r5, #1184	; 0x4a0
     828:	06013306 	streq	r3, [r1], -r6, lsl #6
     82c:	052e0682 	streq	r0, [lr, #-1666]!	; 0xfffff97e
     830:	01051405 	tsteq	r5, r5, lsl #8
     834:	25051306 	strcs	r1, [r5, #-774]	; 0xfffffcfa
     838:	7ec40306 	cdpvc	3, 12, cr0, cr4, cr6, {0}
     83c:	050106ba 	streq	r0, [r1, #-1722]	; 0xfffff946
     840:	144b0605 	strbne	r0, [fp], #-1541	; 0xfffff9fb
     844:	01060905 	tsteq	r6, r5, lsl #18
     848:	052e0705 	streq	r0, [lr, #-1797]!	; 0xfffff8fb
     84c:	054c0605 	strbeq	r0, [ip, #-1541]	; 0xfffff9fb
     850:	0501060c 	streq	r0, [r1, #-1548]	; 0xfffff9f4
     854:	01056510 	tsteq	r5, r0, lsl r5
     858:	062c0530 			; <UNDEFINED> instruction: 0x062c0530
     85c:	062e0d03 	strteq	r0, [lr], -r3, lsl #26
     860:	06050501 	streq	r0, [r5], -r1, lsl #10
     864:	0200014b 	andeq	r0, r0, #-1073741806	; 0xc0000012
     868:	00660204 	rsbeq	r0, r6, r4, lsl #4
     86c:	01020402 	tsteq	r2, r2, lsl #8
     870:	02040200 	andeq	r0, r4, #0, 4
     874:	04020014 	streq	r0, [r2], #-20	; 0xffffffec
     878:	02000102 	andeq	r0, r0, #-2147483648	; 0x80000000
     87c:	004a0204 	subeq	r0, sl, r4, lsl #4
     880:	01020402 	tsteq	r2, r2, lsl #8
     884:	02040200 	andeq	r0, r4, #0, 4
     888:	04020013 	streq	r0, [r2], #-19	; 0xffffffed
     88c:	02000102 	andeq	r0, r0, #-2147483648	; 0x80000000
     890:	004a0204 	subeq	r0, sl, r4, lsl #4
     894:	01020402 	tsteq	r2, r2, lsl #8
     898:	02000205 	andeq	r0, r0, #1342177280	; 0x50000000
     89c:	05140204 	ldreq	r0, [r4, #-516]	; 0xfffffdfc
     8a0:	0402001f 	streq	r0, [r2], #-31	; 0xffffffe1
     8a4:	05010602 	streq	r0, [r1, #-1538]	; 0xfffff9fe
     8a8:	04020011 	streq	r0, [r2], #-17	; 0xffffffef
     8ac:	02052e02 	andeq	r2, r5, #2, 28
     8b0:	02040200 	andeq	r0, r4, #0, 4
     8b4:	07052f06 	streq	r2, [r5, -r6, lsl #30]
     8b8:	02040200 	andeq	r0, r4, #0, 4
     8bc:	00020501 	andeq	r0, r2, r1, lsl #10
     8c0:	06020402 	streq	r0, [r2], -r2, lsl #8
     8c4:	04020001 	streq	r0, [r2], #-1
     8c8:	05052e02 	streq	r2, [r5, #-3586]	; 0xfffff1fe
     8cc:	01040200 	mrseq	r0, R12_usr
     8d0:	017a0306 	cmneq	sl, r6, lsl #6
     8d4:	01040200 	mrseq	r0, R12_usr
     8d8:	04020001 	streq	r0, [r2], #-1
     8dc:	009e0601 	addseq	r0, lr, r1, lsl #12
     8e0:	2e010402 	cdpcs	4, 0, cr0, cr1, cr2, {0}
     8e4:	01040200 	mrseq	r0, R12_usr
     8e8:	02002e06 	andeq	r2, r0, #96	; 0x60
     8ec:	00300104 	eorseq	r0, r0, r4, lsl #2
     8f0:	01010402 	tsteq	r1, r2, lsl #8
     8f4:	01040200 	mrseq	r0, R12_usr
     8f8:	02009e06 	andeq	r9, r0, #96	; 0x60
     8fc:	002e0104 	eoreq	r0, lr, r4, lsl #2
     900:	06010402 	streq	r0, [r1], -r2, lsl #8
     904:	0402002e 	streq	r0, [r2], #-46	; 0xffffffd2
     908:	02002f01 	andeq	r2, r0, #1, 30
     90c:	00010104 	andeq	r0, r1, r4, lsl #2
     910:	06010402 	streq	r0, [r1], -r2, lsl #8
     914:	0402009e 	streq	r0, [r2], #-158	; 0xffffff62
     918:	02002e01 	andeq	r2, r0, #1, 28
     91c:	2e060104 	adfcss	f0, f6, f4
     920:	0b030b05 	bleq	c353c <__bss_end__+0xb8b5c>
     924:	0617052e 	ldreq	r0, [r7], -lr, lsr #10
     928:	2e0e0501 	cfsh32cs	mvfx0, mvfx14, #1
     92c:	4e060405 	cdpmi	4, 0, cr0, cr6, cr5, {0}
     930:	01060e05 	tsteq	r6, r5, lsl #28
     934:	2f060405 	svccs	0x00060405
     938:	01064405 	tsteq	r6, r5, lsl #8
     93c:	2f060405 	svccs	0x00060405
     940:	052e2e06 	streq	r2, [lr, #-3590]!	; 0xfffff1fa
     944:	04020026 	streq	r0, [r2], #-38	; 0xffffffda
     948:	72030602 	andvc	r0, r3, #2097152	; 0x200000
     94c:	00270501 	eoreq	r0, r7, r1, lsl #10
     950:	06020402 	streq	r0, [r2], -r2, lsl #8
     954:	00170501 	andseq	r0, r7, r1, lsl #10
     958:	06010402 	streq	r0, [r1], -r2, lsl #8
     95c:	0002052e 	andeq	r0, r2, lr, lsr #10
     960:	06010402 	streq	r0, [r1], -r2, lsl #8
     964:	06030501 	streq	r0, [r3], -r1, lsl #10
     968:	061e054b 	ldreq	r0, [lr], -fp, asr #10
     96c:	2e160501 	cfmul32cs	mvfx0, mvfx6, mvfx1
     970:	4b060305 	blmi	18158c <__bss_end__+0x176bac>
     974:	01060605 	tsteq	r6, r5, lsl #12
     978:	02001e05 	andeq	r1, r0, #80	; 0x50
     97c:	054a0104 	strbeq	r0, [sl, #-260]	; 0xfffffefc
     980:	04020011 	streq	r0, [r2], #-17	; 0xffffffef
     984:	04052e01 	streq	r2, [r5], #-3585	; 0xfffff1ff
     988:	14054c06 	strne	r4, [r5], #-3078	; 0xfffff3fa
     98c:	04050106 	streq	r0, [r5], #-262	; 0xfffffefa
     990:	08054b06 	stmdaeq	r5, {r1, r2, r8, r9, fp, lr}
     994:	054a0106 	strbeq	r0, [sl, #-262]	; 0xfffffefa
     998:	05052e07 	streq	r2, [r5, #-3591]	; 0xfffff1f9
     99c:	0e054c06 	cdpeq	12, 0, cr4, cr5, cr6, {0}
     9a0:	1b050106 	blne	140dc0 <__bss_end__+0x1363e0>
     9a4:	0605052e 	streq	r0, [r5], -lr, lsr #10
     9a8:	060e0568 	streq	r0, [lr], -r8, ror #10
     9ac:	2e1a0501 	cfmul32cs	mvfx0, mvfx10, mvfx1
     9b0:	1a010566 	bne	41f50 <__bss_end__+0x37570>
     9b4:	061c054a 	ldreq	r0, [ip], -sl, asr #10
     9b8:	00020500 	andeq	r0, r2, r0, lsl #10
     9bc:	03000088 	movweq	r0, #136	; 0x88
     9c0:	05050130 	streq	r0, [r5, #-304]	; 0xfffffed0
     9c4:	0109054e 	tsteq	r9, lr, asr #10
     9c8:	01061405 	tsteq	r6, r5, lsl #8
     9cc:	02002405 	andeq	r2, r0, #83886080	; 0x5000000
     9d0:	2e060104 	adfcss	f0, f6, f4
     9d4:	02000505 	andeq	r0, r0, #20971520	; 0x1400000
     9d8:	01060104 	tsteq	r6, r4, lsl #2
     9dc:	02000905 	andeq	r0, r0, #81920	; 0x14000
     9e0:	4b060304 	blmi	1815f8 <__bss_end__+0x176c18>
     9e4:	02003205 	andeq	r3, r0, #1342177280	; 0x50000000
     9e8:	01060304 	tsteq	r6, r4, lsl #6
     9ec:	02002105 	andeq	r2, r0, #1073741825	; 0x40000001
     9f0:	054a0304 	strbeq	r0, [sl, #-772]	; 0xfffffcfc
     9f4:	04020011 	streq	r0, [r2], #-17	; 0xffffffef
     9f8:	27052e03 	strcs	r2, [r5, -r3, lsl #28]
     9fc:	03040200 	movweq	r0, #16896	; 0x4200
     a00:	2b052d06 	blcs	14be20 <__bss_end__+0x141440>
     a04:	03040200 	movweq	r0, #16896	; 0x4200
     a08:	02000106 	andeq	r0, r0, #-2147483647	; 0x80000001
     a0c:	002e0304 	eoreq	r0, lr, r4, lsl #6
     a10:	2e030402 	cdpcs	4, 0, cr0, cr3, cr2, {0}
     a14:	18060505 	stmdane	r6, {r0, r2, r8, sl}
     a18:	062e0613 			; <UNDEFINED> instruction: 0x062e0613
     a1c:	060d0531 			; <UNDEFINED> instruction: 0x060d0531
     a20:	06050501 	streq	r0, [r5], -r1, lsl #10
     a24:	060d054b 	streq	r0, [sp], -fp, asr #10
     a28:	06050501 	streq	r0, [r5], -r1, lsl #10
     a2c:	060d052f 	streq	r0, [sp], -pc, lsr #10
     a30:	06050501 	streq	r0, [r5], -r1, lsl #10
     a34:	060d052f 	streq	r0, [sp], -pc, lsr #10
     a38:	06050501 	streq	r0, [r5], -r1, lsl #10
     a3c:	01016830 	tsteq	r1, r0, lsr r8
     a40:	02051801 	andeq	r1, r5, #65536	; 0x10000
     a44:	69050513 	stmdbvs	r5, {r0, r1, r4, r8, sl}
     a48:	05136813 	ldreq	r6, [r3, #-2067]	; 0xfffff7ed
     a4c:	05670601 	strbeq	r0, [r7, #-1537]!	; 0xfffff9ff
     a50:	dc03061c 	stcle	6, cr0, [r3], {28}
     a54:	0106ba7e 	tsteq	r6, lr, ror sl
     a58:	67060205 	strvs	r0, [r6, -r5, lsl #4]
     a5c:	062e0601 	strteq	r0, [lr], -r1, lsl #12
     a60:	1305052e 	movwne	r0, #21806	; 0x552e
     a64:	04020001 	streq	r0, [r2], #-1
     a68:	02004a02 	andeq	r4, r0, #8192	; 0x2000
     a6c:	00010204 	andeq	r0, r1, r4, lsl #4
     a70:	13020402 	movwne	r0, #9218	; 0x2402
     a74:	02000805 	andeq	r0, r0, #327680	; 0x50000
     a78:	01060204 	tsteq	r6, r4, lsl #4
     a7c:	02000705 	andeq	r0, r0, #1310720	; 0x140000
     a80:	054a0204 	strbeq	r0, [sl, #-516]	; 0xfffffdfc
     a84:	144b0609 	strbne	r0, [fp], #-1545	; 0xfffff9f7
     a88:	06140513 			; <UNDEFINED> instruction: 0x06140513
     a8c:	06090501 	streq	r0, [r9], -r1, lsl #10
     a90:	06120567 	ldreq	r0, [r2], -r7, ror #10
     a94:	06090501 	streq	r0, [r9], -r1, lsl #10
     a98:	10054b4b 	andne	r4, r5, fp, asr #22
     a9c:	05050106 	streq	r0, [r5, #-262]	; 0xfffffefa
     aa0:	0c054c06 	stceq	12, cr4, [r5], {6}
     aa4:	01050106 	tsteq	r5, r6, lsl #2
     aa8:	0005054b 	andeq	r0, r5, fp, asr #10
     aac:	06010402 	streq	r0, [r1], -r2, lsl #8
     ab0:	004a7503 	subeq	r7, sl, r3, lsl #10
     ab4:	01010402 	tsteq	r1, r2, lsl #8
     ab8:	01040200 	mrseq	r0, R12_usr
     abc:	300905d6 	ldrdcc	r0, [r9], -r6
     ac0:	31059e01 	tstcc	r5, r1, lsl #28
     ac4:	f201a403 	vshl.s8	d10, d3, d1
     ac8:	02050106 	andeq	r0, r5, #-2147483647	; 0x80000001
     acc:	06014b06 	streq	r4, [r1], -r6, lsl #22
     ad0:	052e062e 	streq	r0, [lr, #-1582]!	; 0xfffff9d2
     ad4:	02051305 	andeq	r1, r5, #335544320	; 0x14000000
     ad8:	4b05052f 	blmi	141f9c <__bss_end__+0x1375bc>
     adc:	01060c05 	tsteq	r6, r5, lsl #24
     ae0:	054b0105 	strbeq	r0, [fp, #-261]	; 0xfffffefb
     ae4:	0569061a 	strbeq	r0, [r9, #-1562]!	; 0xfffff9e6
     ae8:	05133205 	ldreq	r3, [r3, #-517]	; 0xfffffdfb
     aec:	05010608 	streq	r0, [r1, #-1544]	; 0xfffff9f8
     af0:	09054a07 	stmdbeq	r5, {r0, r1, r2, r9, fp, lr}
     af4:	01144b06 	tsteq	r4, r6, lsl #22
     af8:	1305054a 	movwne	r0, #21834	; 0x554a
     afc:	13060105 	movwne	r0, #24837	; 0x6105
     b00:	2a060905 	bcs	182f1c <__bss_end__+0x17853c>
     b04:	22059e01 	andcs	r9, r5, #1, 28
     b08:	320505a5 	andcc	r0, r5, #692060160	; 0x29400000
     b0c:	06170513 			; <UNDEFINED> instruction: 0x06170513
     b10:	06050501 	streq	r0, [r5], -r1, lsl #10
     b14:	0607054b 	streq	r0, [r7], -fp, asr #10
     b18:	06090501 	streq	r0, [r9], -r1, lsl #10
     b1c:	0601144b 	streq	r1, [r1], -fp, asr #8
     b20:	052e064a 	streq	r0, [lr, #-1610]!	; 0xfffff9b6
     b24:	05131305 	ldreq	r1, [r3, #-773]	; 0xfffffcfb
     b28:	05130601 	ldreq	r0, [r3, #-1537]	; 0xfffff9ff
     b2c:	01450609 	cmpeq	r5, r9, lsl #12
     b30:	0316059e 	tsteq	r6, #662700032	; 0x27800000
     b34:	05059e1f 	streq	r9, [r5, #-3615]	; 0xfffff1e1
     b38:	17052f2f 	strne	r2, [r5, -pc, lsr #30]
     b3c:	05050106 	streq	r0, [r5, #-262]	; 0xfffffefa
     b40:	01053206 	tsteq	r5, r6, lsl #4
     b44:	1b051306 	blne	145764 <__bss_end__+0x13ad84>
     b48:	05053006 	streq	r3, [r5, #-6]
     b4c:	029e012f 	addseq	r0, lr, #-1073741813	; 0xc000000b
     b50:	01010008 	tsteq	r1, r8
     b54:	00000252 	andeq	r0, r0, r2, asr r2
     b58:	008a0003 	addeq	r0, sl, r3
     b5c:	01020000 	mrseq	r0, (UNDEF: 2)
     b60:	000d0efb 	strdeq	r0, [sp], -fp
     b64:	01010101 	tsteq	r1, r1, lsl #2
     b68:	01000000 	mrseq	r0, (UNDEF: 0)
     b6c:	2f010000 	svccs	0x00010000
     b70:	72657355 	rsbvc	r7, r5, #1409286145	; 0x54000001
     b74:	72742f73 	rsbsvc	r2, r4, #460	; 0x1cc
     b78:	65747369 	ldrbvs	r7, [r4, #-873]!	; 0xfffffc97
     b7c:	6c6f6e6e 	stclvs	14, cr6, [pc], #-440	; 9cc <__code_start__-0x7634>
     b80:	6e616d6c 	cdpvs	13, 6, cr6, cr1, cr12, {3}
     b84:	636f442f 	cmnvs	pc, #788529152	; 0x2f000000
     b88:	6e656d75 	mcrvs	13, 3, r6, cr5, cr5, {3}
     b8c:	532f7374 			; <UNDEFINED> instruction: 0x532f7374
     b90:	6e697270 	mcrvs	2, 3, r7, cr9, cr0, {3}
     b94:	75515f67 	ldrbvc	r5, [r1, #-3943]	; 0xfffff099
     b98:	65747261 	ldrbvs	r7, [r4, #-609]!	; 0xfffffd9f
     b9c:	30325f72 	eorscc	r5, r2, r2, ror pc
     ba0:	432f3232 			; <UNDEFINED> instruction: 0x432f3232
     ba4:	30343253 	eorscc	r3, r4, r3, asr r2
     ba8:	732d584c 			; <UNDEFINED> instruction: 0x732d584c
     bac:	32327270 	eorscc	r7, r2, #112, 4
     bb0:	62696c2f 	rsbvs	r6, r9, #12032	; 0x2f00
     bb4:	692f6970 	stmdbvs	pc!, {r4, r5, r6, r8, fp, sp, lr}	; <UNPREDICTABLE>
     bb8:	756c636e 	strbvc	r6, [ip, #-878]!	; 0xfffffc92
     bbc:	00006564 	andeq	r6, r0, r4, ror #10
     bc0:	6d2d726b 	sfmvs	f7, 4, [sp, #-428]!	; 0xfffffe54
     bc4:	6f6c6c61 	svcvs	0x006c6c61
     bc8:	00632e63 	rsbeq	r2, r3, r3, ror #28
     bcc:	72000000 	andvc	r0, r0, #0, 0
     bd0:	682e6970 	stmdavs	lr!, {r4, r5, r6, r8, fp, sp, lr}
     bd4:	00000100 	andeq	r0, r0, r0, lsl #2
     bd8:	6d2d726b 	sfmvs	f7, 4, [sp, #-428]!	; 0xfffffe54
     bdc:	6f6c6c61 	svcvs	0x006c6c61
     be0:	00682e63 	rsbeq	r2, r8, r3, ror #28
     be4:	00000000 	andeq	r0, r0, r0
     be8:	05001905 	streq	r1, [r0, #-2309]	; 0xfffff6fb
     bec:	008a8802 	addeq	r8, sl, r2, lsl #16
     bf0:	00d20300 	sbcseq	r0, r2, r0, lsl #6
     bf4:	05010601 	streq	r0, [r1, #-1537]	; 0xfffff9ff
     bf8:	132f0602 			; <UNDEFINED> instruction: 0x132f0602
     bfc:	01060505 	tsteq	r6, r5, lsl #10
     c00:	2f060205 	svccs	0x00060205
     c04:	01060905 	tsteq	r6, r5, lsl #18
     c08:	2e4a0205 	cdpcs	2, 4, cr0, cr10, cr5, {0}
     c0c:	02001205 	andeq	r1, r0, #1342177280	; 0x50000000
     c10:	2e060104 	adfcss	f0, f6, f4
     c14:	02000205 	andeq	r0, r0, #1342177280	; 0x50000000
     c18:	01060104 	tsteq	r6, r4, lsl #2
     c1c:	02002605 	andeq	r2, r0, #5242880	; 0x500000
     c20:	054a0304 	strbeq	r0, [sl, #-772]	; 0xfffffcfc
     c24:	04020012 	streq	r0, [r2], #-18	; 0xffffffee
     c28:	03052e03 	movweq	r2, #24067	; 0x5e03
     c2c:	10054b06 	andne	r4, r5, r6, lsl #22
     c30:	06050106 	streq	r0, [r5], -r6, lsl #2
     c34:	0015052e 	andseq	r0, r5, lr, lsr #10
     c38:	4a010402 	bmi	41c48 <__bss_end__+0x37268>
     c3c:	02002005 	andeq	r2, r0, #5, 0
     c40:	004a0204 	subeq	r0, sl, r4, lsl #4
     c44:	4a020402 	bmi	81c54 <__bss_end__+0x77274>
     c48:	32060205 	andcc	r0, r6, #1342177280	; 0x50000000
     c4c:	01061005 	tsteq	r6, r5
     c50:	052e0905 	streq	r0, [lr, #-2309]!	; 0xfffff6fb
     c54:	05052e1d 	streq	r2, [r5, #-3613]	; 0xfffff1e3
     c58:	060c052e 	streq	r0, [ip], -lr, lsr #10
     c5c:	0616054e 	ldreq	r0, [r6], -lr, asr #10
     c60:	06080501 	streq	r0, [r8], -r1, lsl #10
     c64:	0614052f 	ldreq	r0, [r4], -pc, lsr #10
     c68:	2e0e0501 	cfsh32cs	mvfx0, mvfx14, #1
     c6c:	052e0b05 	streq	r0, [lr, #-2821]!	; 0xfffff4fb
     c70:	054e060c 	strbeq	r0, [lr, #-1548]	; 0xfffff9f4
     c74:	05010615 	streq	r0, [r1, #-1557]	; 0xfffff9eb
     c78:	05300602 	ldreq	r0, [r0, #-1538]!	; 0xfffff9fe
     c7c:	05010608 	streq	r0, [r1, #-1544]	; 0xfffff9f8
     c80:	0c054b01 			; <UNDEFINED> instruction: 0x0c054b01
     c84:	2e750306 	cdpcs	3, 7, cr0, cr5, cr6, {0}
     c88:	01062505 	tsteq	r6, r5, lsl #10
     c8c:	052e1705 	streq	r1, [lr, #-1797]!	; 0xfffff8fb
     c90:	054b060c 	strbeq	r0, [fp, #-1548]	; 0xfffff9f4
     c94:	0501061c 	streq	r0, [r1, #-1564]	; 0xfffff9e4
     c98:	16052e23 	strne	r2, [r5], -r3, lsr #28
     c9c:	060c052e 	streq	r0, [ip], -lr, lsr #10
     ca0:	061e054e 	ldreq	r0, [lr], -lr, asr #10
     ca4:	2e160501 	cfmul32cs	mvfx0, mvfx6, mvfx1
     ca8:	4b060c05 	blmi	183cc4 <__bss_end__+0x1792e4>
     cac:	01061c05 	tsteq	r6, r5, lsl #24
     cb0:	052e1505 	streq	r1, [lr, #-1285]!	; 0xfffffafb
     cb4:	b703062a 	strlt	r0, [r3, -sl, lsr #12]
     cb8:	0106667f 	tsteq	r6, pc, ror r6
     cbc:	4b060205 	blmi	1814d8 <__bss_end__+0x176af8>
     cc0:	05051413 	streq	r1, [r5, #-1043]	; 0xfffffbed
     cc4:	07050106 	streq	r0, [r5, -r6, lsl #2]
     cc8:	0602052f 	streq	r0, [r2], -pc, lsr #10
     ccc:	06070531 			; <UNDEFINED> instruction: 0x06070531
     cd0:	06020501 	streq	r0, [r2], -r1, lsl #10
     cd4:	0605054b 	streq	r0, [r5], -fp, asr #10
     cd8:	06020501 	streq	r0, [r2], -r1, lsl #10
     cdc:	0d05134e 	stceq	3, cr1, [r5, #-312]	; 0xfffffec8
     ce0:	02050106 	andeq	r0, r5, #-2147483647	; 0x80000001
     ce4:	2e062f06 	cdpcs	15, 0, cr2, cr6, cr6, {0}
     ce8:	09052f06 	stmdbeq	r5, {r1, r2, r8, r9, sl, fp, sp}
     cec:	0a050106 	beq	14110c <__bss_end__+0x13672c>
     cf0:	05667a03 	strbeq	r7, [r6, #-2563]!	; 0xfffff5fd
     cf4:	22053501 	andcs	r3, r5, #4194304	; 0x400000
     cf8:	01064d06 	tsteq	r6, r6, lsl #26
     cfc:	2f060205 	svccs	0x00060205
     d00:	05141313 	ldreq	r1, [r4, #-787]	; 0xfffffced
     d04:	05010624 	streq	r0, [r1, #-1572]	; 0xfffff9dc
     d08:	09052e29 	stmdbeq	r5, {r0, r3, r5, r9, sl, fp, sp}
     d0c:	0602052e 	streq	r0, [r2], -lr, lsr #10
     d10:	060d052f 	streq	r0, [sp], -pc, lsr #10
     d14:	4a050501 	bmi	142120 <__bss_end__+0x137740>
     d18:	50060205 	andpl	r0, r6, r5, lsl #4
     d1c:	01060905 	tsteq	r6, r5, lsl #18
     d20:	0603052e 	streq	r0, [r3], -lr, lsr #10
     d24:	0616052a 	ldreq	r0, [r6], -sl, lsr #10
     d28:	4a0e0501 	bmi	382134 <__bss_end__+0x377754>
     d2c:	2f060305 	svccs	0x00060305
     d30:	01060f05 	tsteq	r6, r5, lsl #30
     d34:	6c060405 	cfstrsvs	mvf0, [r6], {5}
     d38:	01060705 	tsteq	r6, r5, lsl #14
     d3c:	32060505 	andcc	r0, r6, #20971520	; 0x1400000
     d40:	01060f05 	tsteq	r6, r5, lsl #30
     d44:	4b060505 	blmi	182160 <__bss_end__+0x177780>
     d48:	01060705 	tsteq	r6, r5, lsl #14
     d4c:	2f060505 	svccs	0x00060505
     d50:	01060f05 	tsteq	r6, r5, lsl #30
     d54:	30060405 	andcc	r0, r6, r5, lsl #8
     d58:	01060a05 	tsteq	r6, r5, lsl #20
     d5c:	4b060405 	blmi	181d78 <__bss_end__+0x177398>
     d60:	01060b05 	tsteq	r6, r5, lsl #22
     d64:	0605052e 	streq	r0, [r5], -lr, lsr #10
     d68:	052e7903 	streq	r7, [lr, #-2307]!	; 0xfffff6fd
     d6c:	05010618 	streq	r0, [r1, #-1560]	; 0xfffff9e8
     d70:	1a052e12 	bne	14c5c0 <__bss_end__+0x141be0>
     d74:	18054506 	stmdane	r5, {r1, r2, r8, sl, lr}
     d78:	06200501 	strteq	r0, [r0], -r1, lsl #10
     d7c:	2e270501 	cfsh64cs	mvdx0, mvdx7, #1
     d80:	2f060305 	svccs	0x00060305
     d84:	01060b05 	tsteq	r6, r5, lsl #22
     d88:	052e0605 	streq	r0, [lr, #-1541]!	; 0xfffff9fb
     d8c:	0e030603 	cfmadd32eq	mvax0, mvfx0, mvfx3, mvfx3
     d90:	0609054a 	streq	r0, [r9], -sl, asr #10
     d94:	4a060501 	bmi	1821a0 <__bss_end__+0x1777c0>
     d98:	4c060405 	cfstrsmi	mvf0, [r6], {5}
     d9c:	01060d05 	tsteq	r6, r5, lsl #26
     da0:	2e07052e 	cfsh32cs	mvfx0, mvfx7, #30
     da4:	0006022e 	andeq	r0, r6, lr, lsr #4
     da8:	01140101 	tsteq	r4, r1, lsl #2
     dac:	00030000 	andeq	r0, r3, r0
     db0:	000000e4 	andeq	r0, r0, r4, ror #1
     db4:	0efb0102 	cdpeq	1, 15, cr0, cr11, cr2, {0}
     db8:	0101000d 	tsteq	r1, sp
     dbc:	00000101 	andeq	r0, r0, r1, lsl #2
     dc0:	00000100 	andeq	r0, r0, r0, lsl #2
     dc4:	6c2f2e01 	stcvs	14, cr2, [pc], #-4	; dc8 <__code_start__-0x7238>
     dc8:	00636269 	rsbeq	r6, r3, r9, ror #4
     dcc:	6573552f 	ldrbvs	r5, [r3, #-1327]!	; 0xfffffad1
     dd0:	742f7372 	strtvc	r7, [pc], #-882	; dd8 <__code_start__-0x7228>
     dd4:	74736972 	ldrbtvc	r6, [r3], #-2418	; 0xfffff68e
     dd8:	6f6e6e65 	svcvs	0x006e6e65
     ddc:	616d6c6c 	cmnvs	sp, ip, ror #24
     de0:	6f442f6e 	svcvs	0x00442f6e
     de4:	656d7563 	strbvs	r7, [sp, #-1379]!	; 0xfffffa9d
     de8:	2f73746e 	svccs	0x0073746e
     dec:	69727053 	ldmdbvs	r2!, {r0, r1, r4, r6, ip, sp, lr}^
     df0:	515f676e 	cmppl	pc, lr, ror #14
     df4:	74726175 	ldrbtvc	r6, [r2], #-373	; 0xfffffe8b
     df8:	325f7265 	subscc	r7, pc, #1342177286	; 0x50000006
     dfc:	2f323230 	svccs	0x00323230
     e00:	34325343 	ldrtcc	r5, [r2], #-835	; 0xfffffcbd
     e04:	2d584c30 	ldclcs	12, cr4, [r8, #-192]	; 0xffffff40
     e08:	32727073 	rsbscc	r7, r2, #115, 0	; 0x73
     e0c:	696c2f32 	stmdbvs	ip!, {r1, r4, r5, r8, r9, sl, fp, sp}^
     e10:	2f697062 	svccs	0x00697062
     e14:	6c636e69 	stclvs	14, cr6, [r3], #-420	; 0xfffffe5c
     e18:	00656475 	rsbeq	r6, r5, r5, ror r4
     e1c:	7273752f 	rsbsvc	r7, r3, #197132288	; 0xbc00000
     e20:	636f6c2f 	cmnvs	pc, #12032	; 0x2f00
     e24:	432f6c61 			; <UNDEFINED> instruction: 0x432f6c61
     e28:	616c6c65 	cmnvs	ip, r5, ror #24
     e2c:	72612f72 	rsbvc	r2, r1, #456	; 0x1c8
     e30:	6f6e2d6d 	svcvs	0x006e2d6d
     e34:	652d656e 	strvs	r6, [sp, #-1390]!	; 0xfffffa92
     e38:	2d696261 	sfmcs	f6, 2, [r9, #-388]!	; 0xfffffe7c
     e3c:	74736574 	ldrbtvc	r6, [r3], #-1396	; 0xfffffa8c
     e40:	322d392f 	eorcc	r3, sp, #770048	; 0xbc000
     e44:	71393130 	teqvc	r9, r0, lsr r1
     e48:	73632d34 	cmnvc	r3, #52, 26	; 0xd00
     e4c:	65373031 	ldrvs	r3, [r7, #-49]!	; 0xffffffcf
     e50:	62696c2f 	rsbvs	r6, r9, #12032	; 0x2f00
     e54:	6363672f 	cmnvs	r3, #12320768	; 0xbc0000
     e58:	6d72612f 	ldfvse	f6, [r2, #-188]!	; 0xffffff44
     e5c:	6e6f6e2d 	cdpvs	14, 6, cr6, cr15, cr13, {1}
     e60:	61652d65 	cmnvs	r5, r5, ror #26
     e64:	392f6962 	stmdbcc	pc!, {r1, r5, r6, r8, fp, sp, lr}	; <UNPREDICTABLE>
     e68:	312e322e 			; <UNDEFINED> instruction: 0x312e322e
     e6c:	636e692f 	cmnvs	lr, #770048	; 0xbc000
     e70:	6564756c 	strbvs	r7, [r4, #-1388]!	; 0xfffffa94
     e74:	656d0000 	strbvs	r0, [sp, #-0]!
     e78:	7465736d 	strbtvc	r7, [r5], #-877	; 0xfffffc93
     e7c:	0100632e 	tsteq	r0, lr, lsr #6
     e80:	70720000 	rsbsvc	r0, r2, r0
     e84:	00682e69 	rsbeq	r2, r8, r9, ror #28
     e88:	73000002 	movwvc	r0, #2
     e8c:	65646474 	strbvs	r6, [r4, #-1140]!	; 0xfffffb8c
     e90:	00682e66 	rsbeq	r2, r8, r6, ror #28
     e94:	00000003 	andeq	r0, r0, r3
     e98:	05002905 	streq	r2, [r0, #-2309]	; 0xfffff6fb
     e9c:	008c3402 	addeq	r3, ip, r2, lsl #8
     ea0:	05051500 	streq	r1, [r5, #-1280]	; 0xfffffb00
     ea4:	06140513 			; <UNDEFINED> instruction: 0x06140513
     ea8:	06050501 	streq	r0, [r5], -r1, lsl #10
     eac:	060b0530 			; <UNDEFINED> instruction: 0x060b0530
     eb0:	060a0510 			; <UNDEFINED> instruction: 0x060a0510
     eb4:	4b090530 	blmi	24237c <__bss_end__+0x23799c>
     eb8:	01060e05 	tsteq	r6, r5, lsl #28
     ebc:	0002022e 	andeq	r0, r2, lr, lsr #4
     ec0:	01330101 	teqeq	r3, r1, lsl #2
     ec4:	00030000 	andeq	r0, r3, r0
     ec8:	00000101 	andeq	r0, r0, r1, lsl #2
     ecc:	0efb0102 	cdpeq	1, 15, cr0, cr11, cr2, {0}
     ed0:	0101000d 	tsteq	r1, sp
     ed4:	00000101 	andeq	r0, r0, r1, lsl #2
     ed8:	00000100 	andeq	r0, r0, r0, lsl #2
     edc:	6c2f2e01 	stcvs	14, cr2, [pc], #-4	; ee0 <__code_start__-0x7120>
     ee0:	00636269 	rsbeq	r6, r3, r9, ror #4
     ee4:	7273752f 	rsbsvc	r7, r3, #197132288	; 0xbc00000
     ee8:	636f6c2f 	cmnvs	pc, #12032	; 0x2f00
     eec:	432f6c61 			; <UNDEFINED> instruction: 0x432f6c61
     ef0:	616c6c65 	cmnvs	ip, r5, ror #24
     ef4:	72612f72 	rsbvc	r2, r1, #456	; 0x1c8
     ef8:	6f6e2d6d 	svcvs	0x006e2d6d
     efc:	652d656e 	strvs	r6, [sp, #-1390]!	; 0xfffffa92
     f00:	2d696261 	sfmcs	f6, 2, [r9, #-388]!	; 0xfffffe7c
     f04:	74736574 	ldrbtvc	r6, [r3], #-1396	; 0xfffffa8c
     f08:	322d392f 	eorcc	r3, sp, #770048	; 0xbc000
     f0c:	71393130 	teqvc	r9, r0, lsr r1
     f10:	73632d34 	cmnvc	r3, #52, 26	; 0xd00
     f14:	65373031 	ldrvs	r3, [r7, #-49]!	; 0xffffffcf
     f18:	62696c2f 	rsbvs	r6, r9, #12032	; 0x2f00
     f1c:	6363672f 	cmnvs	r3, #12320768	; 0xbc0000
     f20:	6d72612f 	ldfvse	f6, [r2, #-188]!	; 0xffffff44
     f24:	6e6f6e2d 	cdpvs	14, 6, cr6, cr15, cr13, {1}
     f28:	61652d65 	cmnvs	r5, r5, ror #26
     f2c:	392f6962 	stmdbcc	pc!, {r1, r5, r6, r8, fp, sp, lr}	; <UNPREDICTABLE>
     f30:	312e322e 			; <UNDEFINED> instruction: 0x312e322e
     f34:	636e692f 	cmnvs	lr, #770048	; 0xbc000
     f38:	6564756c 	strbvs	r7, [r4, #-1388]!	; 0xfffffa94
     f3c:	73552f00 	cmpvc	r5, #0, 30
     f40:	2f737265 	svccs	0x00737265
     f44:	73697274 	cmnvc	r9, #116, 4	; 0x40000007
     f48:	6e6e6574 	mcrvs	5, 3, r6, cr14, cr4, {3}
     f4c:	6d6c6c6f 	stclvs	12, cr6, [ip, #-444]!	; 0xfffffe44
     f50:	442f6e61 	strtmi	r6, [pc], #-3681	; f58 <__code_start__-0x70a8>
     f54:	6d75636f 	ldclvs	3, cr6, [r5, #-444]!	; 0xfffffe44
     f58:	73746e65 	cmnvc	r4, #1616	; 0x650
     f5c:	7270532f 	rsbsvc	r5, r0, #-1140850688	; 0xbc000000
     f60:	5f676e69 	svcpl	0x00676e69
     f64:	72617551 	rsbvc	r7, r1, #339738624	; 0x14400000
     f68:	5f726574 	svcpl	0x00726574
     f6c:	32323032 	eorscc	r3, r2, #50, 0	; 0x32
     f70:	3253432f 	subscc	r4, r3, #-1140850688	; 0xbc000000
     f74:	584c3034 	stmdapl	ip, {r2, r4, r5, ip, sp}^
     f78:	7270732d 	rsbsvc	r7, r0, #-1275068416	; 0xb4000000
     f7c:	6c2f3232 	sfmvs	f3, 4, [pc], #-200	; ebc <__code_start__-0x7144>
     f80:	69706269 	ldmdbvs	r0!, {r0, r3, r5, r6, r9, sp, lr}^
     f84:	636e692f 	cmnvs	lr, #770048	; 0xbc000
     f88:	6564756c 	strbvs	r7, [r4, #-1388]!	; 0xfffffa94
     f8c:	72700000 	rsbsvc	r0, r0, #0, 0
     f90:	6b746e69 	blvs	1d1c93c <__bss_end__+0x1d11f5c>
     f94:	0100632e 	tsteq	r0, lr, lsr #6
     f98:	74730000 	ldrbtvc	r0, [r3], #-0
     f9c:	67726164 	ldrbvs	r6, [r2, -r4, ror #2]!
     fa0:	0200682e 	andeq	r6, r0, #3014656	; 0x2e0000
     fa4:	70720000 	rsbsvc	r0, r2, r0
     fa8:	00682e69 	rsbeq	r2, r8, r9, ror #28
     fac:	3c000003 	stccc	0, cr0, [r0], {3}
     fb0:	6c697562 	cfstr64vs	mvdx7, [r9], #-392	; 0xfffffe78
     fb4:	6e692d74 	mcrvs	13, 3, r2, cr9, cr4, {3}
     fb8:	0000003e 	andeq	r0, r0, lr, lsr r0
     fbc:	2d617600 	stclcs	6, cr7, [r1, #-0]
     fc0:	6e697270 	mcrvs	2, 3, r7, cr9, cr0, {3}
     fc4:	682e6b74 	stmdavs	lr!, {r2, r4, r5, r6, r8, r9, fp, sp, lr}
     fc8:	00000100 	andeq	r0, r0, r0, lsl #2
     fcc:	00220500 	eoreq	r0, r2, r0, lsl #10
     fd0:	8c4c0205 	sfmhi	f0, 2, [ip], {5}
     fd4:	06170000 	ldreq	r0, [r7], -r0
     fd8:	06050501 	streq	r0, [r5], -r1, lsl #10
     fdc:	05141368 	ldreq	r1, [r4, #-872]	; 0xfffffc98
     fe0:	12054b09 	andne	r4, r5, #9216	; 0x2400
     fe4:	05050106 	streq	r0, [r5, #-262]	; 0xfffffefa
     fe8:	0616bb06 	ldreq	fp, [r6], -r6, lsl #22
     fec:	05340666 	ldreq	r0, [r4, #-1638]!	; 0xfffff99a
     ff0:	66130601 	ldrvs	r0, [r3], -r1, lsl #12
     ff4:	01000802 	tsteq	r0, r2, lsl #16
     ff8:	0000cb01 	andeq	ip, r0, r1, lsl #22
     ffc:	7d000300 	stcvc	3, cr0, [r0, #-0]
    1000:	02000000 	andeq	r0, r0, #0, 0
    1004:	0d0efb01 	vstreq	d15, [lr, #-4]
    1008:	01010100 	mrseq	r0, (UNDEF: 17)
    100c:	00000001 	andeq	r0, r0, r1
    1010:	01000001 	tsteq	r0, r1
    1014:	696c2f2e 	stmdbvs	ip!, {r1, r2, r3, r5, r8, r9, sl, fp, sp}^
    1018:	2f006362 	svccs	0x00006362
    101c:	72657355 	rsbvc	r7, r5, #1409286145	; 0x54000001
    1020:	72742f73 	rsbsvc	r2, r4, #460	; 0x1cc
    1024:	65747369 	ldrbvs	r7, [r4, #-873]!	; 0xfffffc97
    1028:	6c6f6e6e 	stclvs	14, cr6, [pc], #-440	; e78 <__code_start__-0x7188>
    102c:	6e616d6c 	cdpvs	13, 6, cr6, cr1, cr12, {3}
    1030:	636f442f 	cmnvs	pc, #788529152	; 0x2f000000
    1034:	6e656d75 	mcrvs	13, 3, r6, cr5, cr5, {3}
    1038:	532f7374 			; <UNDEFINED> instruction: 0x532f7374
    103c:	6e697270 	mcrvs	2, 3, r7, cr9, cr0, {3}
    1040:	75515f67 	ldrbvc	r5, [r1, #-3943]	; 0xfffff099
    1044:	65747261 	ldrbvs	r7, [r4, #-609]!	; 0xfffffd9f
    1048:	30325f72 	eorscc	r5, r2, r2, ror pc
    104c:	432f3232 			; <UNDEFINED> instruction: 0x432f3232
    1050:	30343253 	eorscc	r3, r4, r3, asr r2
    1054:	732d584c 			; <UNDEFINED> instruction: 0x732d584c
    1058:	32327270 	eorscc	r7, r2, #112, 4
    105c:	62696c2f 	rsbvs	r6, r9, #12032	; 0x2f00
    1060:	692f6970 	stmdbvs	pc!, {r4, r5, r6, r8, fp, sp, lr}	; <UNPREDICTABLE>
    1064:	756c636e 	strbvc	r6, [ip, #-878]!	; 0xfffffc92
    1068:	00006564 	andeq	r6, r0, r4, ror #10
    106c:	6b747570 	blvs	1d1e634 <__bss_end__+0x1d13c54>
    1070:	0100632e 	tsteq	r0, lr, lsr #6
    1074:	70720000 	rsbsvc	r0, r2, r0
    1078:	00682e69 	rsbeq	r2, r8, r9, ror #28
    107c:	00000002 	andeq	r0, r0, r2
    1080:	05002205 	streq	r2, [r0, #-517]	; 0xfffffdfb
    1084:	008ca402 	addeq	sl, ip, r2, lsl #8
    1088:	01061500 	tsteq	r6, r0, lsl #10
    108c:	4b060505 	blmi	1824a8 <__bss_end__+0x177ac8>
    1090:	02000b05 	andeq	r0, r0, #5120	; 0x1400
    1094:	05010104 	streq	r0, [r1, #-260]	; 0xfffffefc
    1098:	04020005 	streq	r0, [r2], #-5
    109c:	052e0601 	streq	r0, [lr, #-1537]!	; 0xfffff9ff
    10a0:	04020009 	streq	r0, [r2], #-9
    10a4:	054b0602 	strbeq	r0, [fp, #-1538]	; 0xfffff9fe
    10a8:	0402000f 	streq	r0, [r2], #-15
    10ac:	10056502 	andne	r6, r5, r2, lsl #10
    10b0:	02040200 	andeq	r0, r4, #0, 4
    10b4:	02000106 	andeq	r0, r0, #-2147483647	; 0x80000001
    10b8:	052e0204 	streq	r0, [lr, #-516]!	; 0xfffffdfc
    10bc:	05320605 	ldreq	r0, [r2, #-1541]!	; 0xfffff9fb
    10c0:	02130601 	andseq	r0, r3, #1048576	; 0x100000
    10c4:	01010006 	tsteq	r1, r6
    10c8:	0000061d 	andeq	r0, r0, sp, lsl r6
    10cc:	01170003 	tsteq	r7, r3
    10d0:	01020000 	mrseq	r0, (UNDEF: 2)
    10d4:	000d0efb 	strdeq	r0, [sp], -fp
    10d8:	01010101 	tsteq	r1, r1, lsl #2
    10dc:	01000000 	mrseq	r0, (UNDEF: 0)
    10e0:	2e010000 	cdpcs	0, 0, cr0, cr1, cr0, {0}
    10e4:	62696c2f 	rsbvs	r6, r9, #12032	; 0x2f00
    10e8:	752f0063 	strvc	r0, [pc, #-99]!	; 108d <__code_start__-0x6f73>
    10ec:	6c2f7273 	sfmvs	f7, 4, [pc], #-460	; f28 <__code_start__-0x70d8>
    10f0:	6c61636f 	stclvs	3, cr6, [r1], #-444	; 0xfffffe44
    10f4:	6c65432f 	stclvs	3, cr4, [r5], #-188	; 0xffffff44
    10f8:	2f72616c 	svccs	0x0072616c
    10fc:	2d6d7261 	sfmcs	f7, 2, [sp, #-388]!	; 0xfffffe7c
    1100:	656e6f6e 	strbvs	r6, [lr, #-3950]!	; 0xfffff092
    1104:	6261652d 	rsbvs	r6, r1, #188743680	; 0xb400000
    1108:	65742d69 	ldrbvs	r2, [r4, #-3433]!	; 0xfffff297
    110c:	392f7473 	stmdbcc	pc!, {r0, r1, r4, r5, r6, sl, ip, sp, lr}	; <UNPREDICTABLE>
    1110:	3130322d 	teqcc	r0, sp, lsr #4
    1114:	2d347139 	ldfcss	f7, [r4, #-228]!	; 0xffffff1c
    1118:	30317363 	eorscc	r7, r1, r3, ror #6
    111c:	6c2f6537 	cfstr32vs	mvfx6, [pc], #-220	; 1048 <__code_start__-0x6fb8>
    1120:	672f6269 	strvs	r6, [pc, -r9, ror #4]!
    1124:	612f6363 			; <UNDEFINED> instruction: 0x612f6363
    1128:	6e2d6d72 	mcrvs	13, 1, r6, cr13, cr2, {3}
    112c:	2d656e6f 	stclcs	14, cr6, [r5, #-444]!	; 0xfffffe44
    1130:	69626165 	stmdbvs	r2!, {r0, r2, r5, r6, r8, sp, lr}^
    1134:	322e392f 	eorcc	r3, lr, #770048	; 0xbc000
    1138:	692f312e 	stmdbvs	pc!, {r1, r2, r3, r5, r8, ip, sp}	; <UNPREDICTABLE>
    113c:	756c636e 	strbvc	r6, [ip, #-878]!	; 0xfffffc92
    1140:	2f006564 	svccs	0x00006564
    1144:	72657355 	rsbvc	r7, r5, #1409286145	; 0x54000001
    1148:	72742f73 	rsbsvc	r2, r4, #460	; 0x1cc
    114c:	65747369 	ldrbvs	r7, [r4, #-873]!	; 0xfffffc97
    1150:	6c6f6e6e 	stclvs	14, cr6, [pc], #-440	; fa0 <__code_start__-0x7060>
    1154:	6e616d6c 	cdpvs	13, 6, cr6, cr1, cr12, {3}
    1158:	636f442f 	cmnvs	pc, #788529152	; 0x2f000000
    115c:	6e656d75 	mcrvs	13, 3, r6, cr5, cr5, {3}
    1160:	532f7374 			; <UNDEFINED> instruction: 0x532f7374
    1164:	6e697270 	mcrvs	2, 3, r7, cr9, cr0, {3}
    1168:	75515f67 	ldrbvc	r5, [r1, #-3943]	; 0xfffff099
    116c:	65747261 	ldrbvs	r7, [r4, #-609]!	; 0xfffffd9f
    1170:	30325f72 	eorscc	r5, r2, r2, ror pc
    1174:	432f3232 			; <UNDEFINED> instruction: 0x432f3232
    1178:	30343253 	eorscc	r3, r4, r3, asr r2
    117c:	732d584c 			; <UNDEFINED> instruction: 0x732d584c
    1180:	32327270 	eorscc	r7, r2, #112, 4
    1184:	62696c2f 	rsbvs	r6, r9, #12032	; 0x2f00
    1188:	692f6970 	stmdbvs	pc!, {r4, r5, r6, r8, fp, sp, lr}	; <UNPREDICTABLE>
    118c:	756c636e 	strbvc	r6, [ip, #-878]!	; 0xfffffc92
    1190:	00006564 	andeq	r6, r0, r4, ror #10
    1194:	702d6176 	eorvc	r6, sp, r6, ror r1
    1198:	746e6972 	strbtvc	r6, [lr], #-2418	; 0xfffff68e
    119c:	00632e6b 	rsbeq	r2, r3, fp, ror #28
    11a0:	73000001 	movwvc	r0, #1
    11a4:	6e696474 	mcrvs	4, 3, r6, cr9, cr4, {3}
    11a8:	63672d74 	cmnvs	r7, #116, 26	; 0x1d00
    11ac:	00682e63 	rsbeq	r2, r8, r3, ror #28
    11b0:	72000002 	andvc	r0, r0, #2, 0
    11b4:	682e6970 	stmdavs	lr!, {r4, r5, r6, r8, fp, sp, lr}
    11b8:	00000300 	andeq	r0, r0, r0, lsl #6
    11bc:	2d697072 	stclcs	0, cr7, [r9, #-456]!	; 0xfffffe38
    11c0:	65746e69 	ldrbvs	r6, [r4, #-3689]!	; 0xfffff197
    11c4:	6c616e72 	stclvs	14, cr6, [r1], #-456	; 0xfffffe38
    11c8:	0300682e 	movweq	r6, #2094	; 0x82e
    11cc:	74730000 	ldrbtvc	r0, [r3], #-0
    11d0:	67726164 	ldrbvs	r6, [r2, -r4, ror #2]!
    11d4:	0200682e 	andeq	r6, r0, #3014656	; 0x2e0000
    11d8:	623c0000 	eorsvs	r0, ip, #0, 0
    11dc:	746c6975 	strbtvc	r6, [ip], #-2421	; 0xfffff68b
    11e0:	3e6e692d 	vmulcc.f16	s13, s28, s27	; <UNPREDICTABLE>
    11e4:	00000000 	andeq	r0, r0, r0
    11e8:	001b0500 	andseq	r0, fp, r0, lsl #10
    11ec:	8cd80205 	lfmhi	f0, 2, [r8], {5}
    11f0:	26030000 	strcs	r0, [r3], -r0
    11f4:	011d0501 	tsteq	sp, r1, lsl #10
    11f8:	01062d05 	tsteq	r6, r5, lsl #26
    11fc:	4a2e0105 	bmi	b81618 <__bss_end__+0xb76c38>
    1200:	51063305 	tstpl	r6, r5, lsl #6
    1204:	05130205 	ldreq	r0, [r3, #-517]	; 0xfffffdfb
    1208:	05010606 	streq	r0, [r1, #-1542]	; 0xfffff9fa
    120c:	05300602 	ldreq	r0, [r0, #-1538]!	; 0xfffff9fe
    1210:	04020008 	streq	r0, [r2], #-8
    1214:	02050101 	andeq	r0, r5, #1073741824	; 0x40000000
    1218:	01040200 	mrseq	r0, R12_usr
    121c:	03050106 	movweq	r0, #20742	; 0x5106
    1220:	02040200 	andeq	r0, r4, #0, 4
    1224:	08052f06 	stmdaeq	r5, {r1, r2, r8, r9, sl, fp, sp}
    1228:	02040200 	andeq	r0, r4, #0, 4
    122c:	15050106 	strne	r0, [r5, #-262]	; 0xfffffefa
    1230:	02040200 	andeq	r0, r4, #0, 4
    1234:	18054906 	stmdane	r5, {r1, r2, r8, fp, lr}
    1238:	02040200 	andeq	r0, r4, #0, 4
    123c:	02000106 	andeq	r0, r0, #-2147483647	; 0x80000001
    1240:	052e0204 	streq	r0, [lr, #-516]!	; 0xfffffdfc
    1244:	05300602 	ldreq	r0, [r0, #-1538]!	; 0xfffff9fe
    1248:	05010605 	streq	r0, [r1, #-1541]	; 0xfffff9fb
    124c:	054b0602 	strbeq	r0, [fp, #-1538]	; 0xfffff9fe
    1250:	05130601 	ldreq	r0, [r3, #-1537]	; 0xfffff9ff
    1254:	0531063e 	ldreq	r0, [r1, #-1598]!	; 0xfffff9c2
    1258:	0e051402 	cdpeq	4, 0, cr1, cr5, cr2, {0}
    125c:	06050106 	streq	r0, [r5], -r6, lsl #2
    1260:	0602052e 	streq	r0, [r2], -lr, lsr #10
    1264:	0604052f 	streq	r0, [r4], -pc, lsr #10
    1268:	06030501 	streq	r0, [r3], -r1, lsl #10
    126c:	0611052f 	ldreq	r0, [r1], -pc, lsr #10
    1270:	2e090501 	cfsh32cs	mvfx0, mvfx9, #1
    1274:	30060205 	andcc	r0, r6, r5, lsl #4
    1278:	06070515 			; <UNDEFINED> instruction: 0x06070515
    127c:	2e020501 	cfsh32cs	mvfx0, mvfx2, #1
    1280:	02000b05 	andeq	r0, r0, #5120	; 0x1400
    1284:	2e060104 	adfcss	f0, f6, f4
    1288:	02000205 	andeq	r0, r0, #1342177280	; 0x50000000
    128c:	01060104 	tsteq	r6, r4, lsl #2
    1290:	02000305 	andeq	r0, r0, #335544320	; 0x14000000
    1294:	2f060304 	svccs	0x00060304
    1298:	02000c05 	andeq	r0, r0, #1280	; 0x500
    129c:	01060304 	tsteq	r6, r4, lsl #6
    12a0:	02000a05 	andeq	r0, r0, #20480	; 0x5000
    12a4:	052e0304 	streq	r0, [lr, #-772]!	; 0xfffffcfc
    12a8:	04020017 	streq	r0, [r2], #-23	; 0xffffffe9
    12ac:	002d0603 	eoreq	r0, sp, r3, lsl #12
    12b0:	06030402 	streq	r0, [r3], -r2, lsl #8
    12b4:	06020501 	streq	r0, [r2], -r1, lsl #10
    12b8:	06090530 			; <UNDEFINED> instruction: 0x06090530
    12bc:	02052e01 	andeq	r2, r5, #1, 28
    12c0:	01053006 	tsteq	r5, r6
    12c4:	49051306 	stmdbmi	r5, {r1, r2, r8, r9, ip}
    12c8:	01063106 	tsteq	r6, r6, lsl #2
    12cc:	a0060205 	andge	r0, r6, r5, lsl #4
    12d0:	01060405 	tsteq	r6, r5, lsl #8
    12d4:	2f060305 	svccs	0x00060305
    12d8:	01060905 	tsteq	r6, r5, lsl #18
    12dc:	30060205 	andcc	r0, r6, r5, lsl #4
    12e0:	060b0513 			; <UNDEFINED> instruction: 0x060b0513
    12e4:	06020501 	streq	r0, [r2], -r1, lsl #10
    12e8:	052e0630 	streq	r0, [lr, #-1584]!	; 0xfffff9d0
    12ec:	24020604 	strcs	r0, [r2], #-1540	; 0xfffff9fc
    12f0:	0f051315 	svceq	0x00051315
    12f4:	052e0106 	streq	r0, [lr, #-262]!	; 0xfffffefa
    12f8:	05054a06 	streq	r4, [r5, #-2566]	; 0xfffff5fa
    12fc:	05134b06 	ldreq	r4, [r3, #-2822]	; 0xfffff4fa
    1300:	05010609 	streq	r0, [r1, #-1545]	; 0xfffff9f7
    1304:	052f0605 	streq	r0, [pc, #-1541]!	; d07 <__code_start__-0x72f9>
    1308:	0510060b 	ldreq	r0, [r0, #-1547]	; 0xfffff9f5
    130c:	0402000d 	streq	r0, [r2], #-13
    1310:	04052c01 	streq	r2, [r5], #-3073	; 0xfffff3ff
    1314:	01040200 	mrseq	r0, R12_usr
    1318:	05053406 	streq	r3, [r5, #-1030]	; 0xfffffbfa
    131c:	01040200 	mrseq	r0, R12_usr
    1320:	001b0513 	andseq	r0, fp, r3, lsl r5
    1324:	06010402 	streq	r0, [r1], -r2, lsl #8
    1328:	00070501 	andeq	r0, r7, r1, lsl #10
    132c:	d6010402 	strle	r0, [r1], -r2, lsl #8
    1330:	02001805 	andeq	r1, r0, #327680	; 0x50000
    1334:	052e0104 	streq	r0, [lr, #-260]!	; 0xfffffefc
    1338:	0402000a 	streq	r0, [r2], #-10
    133c:	0b054a01 	bleq	153b48 <__bss_end__+0x149168>
    1340:	01040200 	mrseq	r0, R12_usr
    1344:	0e052f06 	cdpeq	15, 0, cr2, cr5, cr6, {0}
    1348:	01040200 	mrseq	r0, R12_usr
    134c:	04052e06 	streq	r2, [r5], #-3590	; 0xfffff1fa
    1350:	01040200 	mrseq	r0, R12_usr
    1354:	054b062e 	strbeq	r0, [fp, #-1582]	; 0xfffff9d2
    1358:	05010606 	streq	r0, [r1, #-1542]	; 0xfffff9fa
    135c:	052f0605 	streq	r0, [pc, #-1541]!	; d5f <__code_start__-0x72a1>
    1360:	0501060a 	streq	r0, [r1, #-1546]	; 0xfffff9f6
    1364:	052e4a07 	streq	r4, [lr, #-2567]!	; 0xfffff5f9
    1368:	2e76030d 	cdpcs	3, 7, cr0, cr6, cr13, {0}
    136c:	0d0b054a 	cfstr32eq	mvfx0, [fp, #-296]	; 0xfffffed8
    1370:	02000d05 	andeq	r0, r0, #320	; 0x140
    1374:	03060104 	movweq	r0, #24836	; 0x6104
    1378:	11052e14 	tstne	r5, r4, lsl lr
    137c:	01040200 	mrseq	r0, R12_usr
    1380:	002d0513 	eoreq	r0, sp, r3, lsl r5
    1384:	06010402 	streq	r0, [r1], -r2, lsl #8
    1388:	002a0501 	eoreq	r0, sl, r1, lsl #10
    138c:	2e010402 	cdpcs	4, 0, cr0, cr1, cr2, {0}
    1390:	02001605 	andeq	r1, r0, #5242880	; 0x500000
    1394:	054a0104 	strbeq	r0, [sl, #-260]	; 0xfffffefc
    1398:	04020014 	streq	r0, [r2], #-20	; 0xffffffec
    139c:	054b0601 	strbeq	r0, [fp, #-1537]	; 0xfffff9ff
    13a0:	0402000d 	streq	r0, [r2], #-13
    13a4:	00010601 	andeq	r0, r1, r1, lsl #12
    13a8:	4a010402 	bmi	423b8 <__bss_end__+0x379d8>
    13ac:	12052f06 	andne	r2, r5, #6, 30
    13b0:	054a0106 	strbeq	r0, [sl, #-262]	; 0xfffffefa
    13b4:	052f060d 	streq	r0, [pc, #-1549]!	; daf <__code_start__-0x7251>
    13b8:	05010612 	streq	r0, [r1, #-1554]	; 0xfffff9ee
    13bc:	054b0619 	strbeq	r0, [fp, #-1561]	; 0xfffff9e7
    13c0:	04020004 	streq	r0, [r2], #-4
    13c4:	01110302 	tsteq	r1, r2, lsl #6
    13c8:	02040200 	andeq	r0, r4, #0, 4
    13cc:	00020501 	andeq	r0, r2, r1, lsl #10
    13d0:	15020402 	strne	r0, [r2, #-1026]	; 0xfffffbfe
    13d4:	02000905 	andeq	r0, r0, #81920	; 0x14000
    13d8:	01060204 	tsteq	r6, r4, lsl #4
    13dc:	02040200 	andeq	r0, r4, #0, 4
    13e0:	0001054a 	andeq	r0, r1, sl, asr #10
    13e4:	9f020402 	svcls	0x00020402
    13e8:	03060405 	movweq	r0, #25605	; 0x6405
    13ec:	09054a6e 	stmdbeq	r5, {r1, r2, r3, r5, r6, r9, fp, lr}
    13f0:	04050106 	streq	r0, [r5], #-262	; 0xfffffefa
    13f4:	06052f06 	streq	r2, [r5], -r6, lsl #30
    13f8:	04051106 	streq	r1, [r5], #-262	; 0xfffffefa
    13fc:	030b052f 	movweq	r0, #46383	; 0xb52f
    1400:	19052e63 	stmdbne	r5, {r0, r1, r5, r6, r9, sl, fp, sp}
    1404:	01040200 	mrseq	r0, R12_usr
    1408:	2e240306 	cdpcs	3, 2, cr0, cr4, cr6, {0}
    140c:	02001a05 	andeq	r1, r0, #20480	; 0x5000
    1410:	05130104 	ldreq	r0, [r3, #-260]	; 0xfffffefc
    1414:	04020028 	streq	r0, [r2], #-40	; 0xffffffd8
    1418:	05010601 	streq	r0, [r1, #-1537]	; 0xfffff9ff
    141c:	04020025 	streq	r0, [r2], #-37	; 0xffffffdb
    1420:	1f052e01 	svcne	0x00052e01
    1424:	01040200 	mrseq	r0, R12_usr
    1428:	000b054a 	andeq	r0, fp, sl, asr #10
    142c:	06010402 	streq	r0, [r1], -r2, lsl #8
    1430:	0004054b 	andeq	r0, r4, fp, asr #10
    1434:	06010402 	streq	r0, [r1], -r2, lsl #8
    1438:	04020001 	streq	r0, [r2], #-1
    143c:	02004a01 	andeq	r4, r0, #4096	; 0x1000
    1440:	4e060104 	adfmis	f0, f6, f4
    1444:	01040200 	mrseq	r0, R12_usr
    1448:	04020001 	streq	r0, [r2], #-1
    144c:	02000101 	andeq	r0, r0, #1073741824	; 0x40000000
    1450:	00010104 	andeq	r0, r1, r4, lsl #2
    1454:	06010402 	streq	r0, [r1], -r2, lsl #8
    1458:	0402002e 	streq	r0, [r2], #-46	; 0xffffffd2
    145c:	02006601 	andeq	r6, r0, #1048576	; 0x100000
    1460:	002e0104 	eoreq	r0, lr, r4, lsl #2
    1464:	06010402 	streq	r0, [r1], -r2, lsl #8
    1468:	0348054a 	movteq	r0, #34122	; 0x854a
    146c:	20087fa6 	andcs	r7, r8, r6, lsr #31
    1470:	01130505 	tsteq	r3, r5, lsl #10
    1474:	02002e06 	andeq	r2, r0, #96	; 0x60
    1478:	2e060204 	cdpcs	2, 0, cr0, cr6, cr4, {0}
    147c:	02040200 	andeq	r0, r4, #0, 4
    1480:	04020001 	streq	r0, [r2], #-1
    1484:	11051302 	tstne	r5, r2, lsl #6
    1488:	02040200 	andeq	r0, r4, #0, 4
    148c:	05050106 	streq	r0, [r5, #-262]	; 0xfffffefa
    1490:	02040200 	andeq	r0, r4, #0, 4
    1494:	07054b06 	streq	r4, [r5, -r6, lsl #22]
    1498:	02040200 	andeq	r0, r4, #0, 4
    149c:	09050106 	stmdbeq	r5, {r1, r2, r8}
    14a0:	0e054b06 	vmlaeq.f64	d4, d5, d6
    14a4:	48050106 	stmdami	r5, {r1, r2, r8}
    14a8:	01040200 	mrseq	r0, R12_usr
    14ac:	00050562 	andeq	r0, r5, r2, ror #10
    14b0:	06010402 	streq	r0, [r1], -r2, lsl #8
    14b4:	0402004b 	streq	r0, [r2], #-75	; 0xffffffb5
    14b8:	02000101 	andeq	r0, r0, #1073741824	; 0x40000000
    14bc:	9e060104 	adflss	f0, f6, f4
    14c0:	01040200 	mrseq	r0, R12_usr
    14c4:	0402002e 	streq	r0, [r2], #-46	; 0xffffffd2
    14c8:	052e0601 	streq	r0, [lr, #-1537]!	; 0xfffff9ff
    14cc:	00e10340 	rsceq	r0, r1, r0, asr #6
    14d0:	050106d6 	streq	r0, [r1, #-1750]	; 0xfffff92a
    14d4:	059f0602 	ldreq	r0, [pc, #1538]	; 1ade <__code_start__-0x6522>
    14d8:	0501061e 	streq	r0, [r1, #-1566]	; 0xfffff9e2
    14dc:	05052e12 	streq	r2, [r5, #-3602]	; 0xfffff1ee
    14e0:	02052f06 	andeq	r2, r5, #6, 30
    14e4:	06090514 			; <UNDEFINED> instruction: 0x06090514
    14e8:	06050501 	streq	r0, [r5], -r1, lsl #10
    14ec:	1302054b 	movwne	r0, #9547	; 0x254b
    14f0:	0d060805 	stceq	8, cr0, [r6, #-20]	; 0xffffffec
    14f4:	05330205 	ldreq	r0, [r3, #-517]!	; 0xfffffdfb
    14f8:	054c0604 	strbeq	r0, [ip, #-1540]	; 0xfffff9fc
    14fc:	0501060f 	streq	r0, [r1, #-1551]	; 0xfffff9f1
    1500:	08052e09 	stmdaeq	r5, {r0, r3, r9, sl, fp, sp}
    1504:	02052c06 	andeq	r2, r5, #1536	; 0x600
    1508:	0d052e06 	stceq	14, cr2, [r5, #-24]	; 0xffffffe8
    150c:	01040200 	mrseq	r0, R12_usr
    1510:	0603054a 	streq	r0, [r3], -sl, asr #10
    1514:	0605054b 	streq	r0, [r5], -fp, asr #10
    1518:	06080501 	streq	r0, [r8], -r1, lsl #10
    151c:	060e054d 	streq	r0, [lr], -sp, asr #10
    1520:	2e0a0501 	cfsh32cs	mvfx0, mvfx10, #1
    1524:	2f060405 	svccs	0x00060405
    1528:	01060905 	tsteq	r6, r5, lsl #18
    152c:	2f060405 	svccs	0x00060405
    1530:	01060705 	tsteq	r6, r5, lsl #14
    1534:	0604052e 	streq	r0, [r4], -lr, lsr #10
    1538:	06070530 			; <UNDEFINED> instruction: 0x06070530
    153c:	06040501 	streq	r0, [r4], -r1, lsl #10
    1540:	05141330 	ldreq	r1, [r4, #-816]	; 0xfffffcd0
    1544:	0510060d 	ldreq	r0, [r0, #-1549]	; 0xfffff9f3
    1548:	05300609 	ldreq	r0, [r0, #-1545]!	; 0xfffff9f7
    154c:	05010612 	streq	r0, [r1, #-1554]	; 0xfffff9ee
    1550:	09052e0a 	stmdbeq	r5, {r1, r3, r9, sl, fp, sp}
    1554:	06050566 	streq	r0, [r5], -r6, ror #10
    1558:	0612054b 	ldreq	r0, [r2], -fp, asr #10
    155c:	2e160501 	cfmul32cs	mvfx0, mvfx6, mvfx1
    1560:	052e0b05 	streq	r0, [lr, #-2821]!	; 0xfffff4fb
    1564:	052f0605 	streq	r0, [pc, #-1541]!	; f67 <__code_start__-0x7099>
    1568:	2e010608 	cfmadd32cs	mvax0, mvfx0, mvfx1, mvfx8
    156c:	30060405 	andcc	r0, r6, r5, lsl #8
    1570:	15014a01 	strne	r4, [r1, #-2561]	; 0xfffff5ff
    1574:	01040200 	mrseq	r0, R12_usr
    1578:	000f3602 	andeq	r3, pc, r2, lsl #12
    157c:	01010402 	tsteq	r1, r2, lsl #8
    1580:	01040200 	mrseq	r0, R12_usr
    1584:	341105d6 	ldrcc	r0, [r1], #-1494	; 0xfffffa2a
    1588:	02000113 	andeq	r0, r0, #-1073741820	; 0xc0000004
    158c:	ba060204 	blt	181da4 <__bss_end__+0x1773c4>
    1590:	03040200 	movweq	r0, #16896	; 0x4200
    1594:	0200ba06 	andeq	fp, r0, #24576	; 0x6000
    1598:	00010304 	andeq	r0, r1, r4, lsl #6
    159c:	14030402 	strne	r0, [r3], #-1026	; 0xfffffbfe
    15a0:	02001505 	andeq	r1, r0, #20971520	; 0x1400000
    15a4:	01060304 	tsteq	r6, r4, lsl #6
    15a8:	02001105 	andeq	r1, r0, #1073741825	; 0x40000001
    15ac:	2f060304 	svccs	0x00060304
    15b0:	02001a05 	andeq	r1, r0, #20480	; 0x5000
    15b4:	01060304 	tsteq	r6, r4, lsl #6
    15b8:	02001105 	andeq	r1, r0, #1073741825	; 0x40000001
    15bc:	d7060304 	strle	r0, [r6, -r4, lsl #6]
    15c0:	03040200 	movweq	r0, #16896	; 0x4200
    15c4:	04020013 	streq	r0, [r2], #-19	; 0xffffffed
    15c8:	02001403 	andeq	r1, r0, #50331648	; 0x3000000
    15cc:	00670304 	rsbeq	r0, r7, r4, lsl #6
    15d0:	68030402 	stmdavs	r3, {r1, sl}
    15d4:	02001405 	andeq	r1, r0, #83886080	; 0x5000000
    15d8:	01060304 	tsteq	r6, r4, lsl #6
    15dc:	02001305 	andeq	r1, r0, #335544320	; 0x14000000
    15e0:	05820304 	streq	r0, [r2, #772]	; 0x304
    15e4:	054e0618 	strbeq	r0, [lr, #-1560]	; 0xfffff9e8
    15e8:	0501061b 	streq	r0, [r1, #-1563]	; 0xfffff9e5
    15ec:	0905821a 	stmdbeq	r5, {r1, r3, r4, r9, pc}
    15f0:	0d054b06 	vstreq	d4, [r5, #-24]	; 0xffffffe8
    15f4:	052e0106 	streq	r0, [lr, #-262]!	; 0xfffffefa
    15f8:	06f30609 	ldrbteq	r0, [r3], r9, lsl #12
    15fc:	061505ba 			; <UNDEFINED> instruction: 0x061505ba
    1600:	06180530 			; <UNDEFINED> instruction: 0x06180530
    1604:	66170501 	ldrvs	r0, [r7], -r1, lsl #10
    1608:	4b061905 	blmi	187a24 <__bss_end__+0x17d044>
    160c:	03061505 	movweq	r1, #25861	; 0x6505
    1610:	1105666f 	tstne	r5, pc, ror #12
    1614:	d6014806 	strle	r4, [r1], -r6, lsl #16
    1618:	0b030905 	bleq	c3a34 <__bss_end__+0xb9054>
    161c:	060d052e 	streq	r0, [sp], -lr, lsr #10
    1620:	09052e01 	stmdbeq	r5, {r0, r9, sl, fp, sp}
    1624:	ba06f306 	blt	1be244 <__bss_end__+0x1b3864>
    1628:	2f061505 	svccs	0x00061505
    162c:	66750306 	ldrbtvs	r0, [r5], -r6, lsl #6
    1630:	03061905 	movweq	r1, #26885	; 0x6905
    1634:	15054a13 	strne	r4, [r5, #-2579]	; 0xfffff5ed
    1638:	666d0306 	strbtvs	r0, [sp], -r6, lsl #6
    163c:	4a150306 	bmi	54225c <__bss_end__+0x53787c>
    1640:	2e06ba01 	vmlacs.f32	s22, s12, s2
    1644:	1a060505 	bne	182a60 <__bss_end__+0x178080>
    1648:	032e9e01 			; <UNDEFINED> instruction: 0x032e9e01
    164c:	0905010e 	stmdbeq	r5, {r1, r2, r3, r8}
    1650:	05050106 	streq	r0, [r5, #-262]	; 0xfffffefa
    1654:	05750806 	ldrbeq	r0, [r5, #-2054]!	; 0xfffff7fa
    1658:	01180304 	tsteq	r8, r4, lsl #6
    165c:	01060705 	tsteq	r6, r5, lsl #14
    1660:	31060405 	tstcc	r6, r5, lsl #8
    1664:	67030505 	strvs	r0, [r3, -r5, lsl #10]
    1668:	061c052e 	ldreq	r0, [ip], -lr, lsr #10
    166c:	82090501 	andhi	r0, r9, #4194304	; 0x400000
    1670:	f3060505 	vrshl.u8	d0, d5, d6
    1674:	061c0531 			; <UNDEFINED> instruction: 0x061c0531
    1678:	82090501 	andhi	r0, r9, #4194304	; 0x400000
    167c:	f3060505 	vrshl.u8	d0, d5, d6
    1680:	061b0530 			; <UNDEFINED> instruction: 0x061b0530
    1684:	82090501 	andhi	r0, r9, #4194304	; 0x400000
    1688:	f3060505 	vrshl.u8	d0, d5, d6
    168c:	06070530 			; <UNDEFINED> instruction: 0x06070530
    1690:	06050501 	streq	r0, [r5], -r1, lsl #10
    1694:	09053083 	stmdbeq	r5, {r0, r1, r7, ip, sp}
    1698:	05050106 	streq	r0, [r5, #-262]	; 0xfffffefa
    169c:	05750806 	ldrbeq	r0, [r5, #-2054]!	; 0xfffff7fa
    16a0:	22053011 	andcs	r3, r5, #17, 0
    16a4:	05050106 	streq	r0, [r5, #-262]	; 0xfffffefa
    16a8:	11054b06 	tstne	r5, r6, lsl #22
    16ac:	83050583 	movwhi	r0, #21891	; 0x5583
    16b0:	05359e01 	ldreq	r9, [r5, #-3585]!	; 0xfffff1ff
    16b4:	0501060e 	streq	r0, [r1, #-1550]	; 0xfffff9f2
    16b8:	2d062e0a 	stccs	14, cr2, [r6, #-40]	; 0xffffffd8
    16bc:	01060405 	tsteq	r6, r5, lsl #8
    16c0:	02001305 	andeq	r1, r0, #335544320	; 0x14000000
    16c4:	054a0104 	strbeq	r0, [sl, #-260]	; 0xfffffefc
    16c8:	04020010 	streq	r0, [r2], #-16
    16cc:	02002e01 	andeq	r2, r0, #1, 28
    16d0:	05660104 	strbeq	r0, [r6, #-260]!	; 0xfffffefc
    16d4:	05160602 	ldreq	r0, [r6, #-1538]	; 0xfffff9fe
    16d8:	05010607 	streq	r0, [r1, #-1543]	; 0xfffff9f9
    16dc:	054b0602 	strbeq	r0, [fp, #-1538]	; 0xfffff9fe
    16e0:	66130601 	ldrvs	r0, [r3], -r1, lsl #12
    16e4:	01001e02 	tsteq	r0, r2, lsl #28
    16e8:	0000a501 	andeq	sl, r0, r1, lsl #10
    16ec:	8a000300 	bhi	22f4 <__code_start__-0x5d0c>
    16f0:	02000000 	andeq	r0, r0, #0, 0
    16f4:	0d0efb01 	vstreq	d15, [lr, #-4]
    16f8:	01010100 	mrseq	r0, (UNDEF: 17)
    16fc:	00000001 	andeq	r0, r0, r1
    1700:	01000001 	tsteq	r0, r1
    1704:	74732f2e 	ldrbtvc	r2, [r3], #-3886	; 0xfffff0d2
    1708:	2d666661 	stclcs	6, cr6, [r6, #-388]!	; 0xfffffe7c
    170c:	00637273 	rsbeq	r7, r3, r3, ror r2
    1710:	6573552f 	ldrbvs	r5, [r3, #-1327]!	; 0xfffffad1
    1714:	742f7372 	strtvc	r7, [pc], #-882	; 171c <__code_start__-0x68e4>
    1718:	74736972 	ldrbtvc	r6, [r3], #-2418	; 0xfffff68e
    171c:	6f6e6e65 	svcvs	0x006e6e65
    1720:	616d6c6c 	cmnvs	sp, ip, ror #24
    1724:	6f442f6e 	svcvs	0x00442f6e
    1728:	656d7563 	strbvs	r7, [sp, #-1379]!	; 0xfffffa9d
    172c:	2f73746e 	svccs	0x0073746e
    1730:	69727053 	ldmdbvs	r2!, {r0, r1, r4, r6, ip, sp, lr}^
    1734:	515f676e 	cmppl	pc, lr, ror #14
    1738:	74726175 	ldrbtvc	r6, [r2], #-373	; 0xfffffe8b
    173c:	325f7265 	subscc	r7, pc, #1342177286	; 0x50000006
    1740:	2f323230 	svccs	0x00323230
    1744:	34325343 	ldrtcc	r5, [r2], #-835	; 0xfffffcbd
    1748:	2d584c30 	ldclcs	12, cr4, [r8, #-192]	; 0xffffff40
    174c:	32727073 	rsbscc	r7, r2, #115, 0	; 0x73
    1750:	696c2f32 	stmdbvs	ip!, {r1, r4, r5, r8, r9, sl, fp, sp}^
    1754:	2f697062 	svccs	0x00697062
    1758:	6c636e69 	stclvs	14, cr6, [r3], #-420	; 0xfffffe5c
    175c:	00656475 	rsbeq	r6, r5, r5, ror r4
    1760:	656c6300 	strbvs	r6, [ip, #-768]!	; 0xfffffd00
    1764:	722d6e61 	eorvc	r6, sp, #1552	; 0x610
    1768:	6f6f6265 	svcvs	0x006f6265
    176c:	00632e74 	rsbeq	r2, r3, r4, ror lr
    1770:	72000001 	andvc	r0, r0, #1, 0
    1774:	682e6970 	stmdavs	lr!, {r4, r5, r6, r8, fp, sp, lr}
    1778:	00000200 	andeq	r0, r0, r0, lsl #4
    177c:	00190500 	andseq	r0, r9, r0, lsl #10
    1780:	94180205 	ldrls	r0, [r8], #-517	; 0xfffffdfb
    1784:	05150000 	ldreq	r0, [r5, #-0]
    1788:	2f832f05 	svccs	0x00832f05
    178c:	0006024b 	andeq	r0, r6, fp, asr #4
    1790:	00bf0101 	adcseq	r0, pc, r1, lsl #2
    1794:	00030000 	andeq	r0, r3, r0
    1798:	00000084 	andeq	r0, r0, r4, lsl #1
    179c:	0efb0102 	cdpeq	1, 15, cr0, cr11, cr2, {0}
    17a0:	0101000d 	tsteq	r1, sp
    17a4:	00000101 	andeq	r0, r0, r1, lsl #2
    17a8:	00000100 	andeq	r0, r0, r0, lsl #2
    17ac:	732f2e01 			; <UNDEFINED> instruction: 0x732f2e01
    17b0:	66666174 			; <UNDEFINED> instruction: 0x66666174
    17b4:	6372732d 	cmnvs	r2, #-1275068416	; 0xb4000000
    17b8:	73552f00 	cmpvc	r5, #0, 30
    17bc:	2f737265 	svccs	0x00737265
    17c0:	73697274 	cmnvc	r9, #116, 4	; 0x40000007
    17c4:	6e6e6574 	mcrvs	5, 3, r6, cr14, cr4, {3}
    17c8:	6d6c6c6f 	stclvs	12, cr6, [ip, #-444]!	; 0xfffffe44
    17cc:	442f6e61 	strtmi	r6, [pc], #-3681	; 17d4 <__code_start__-0x682c>
    17d0:	6d75636f 	ldclvs	3, cr6, [r5, #-444]!	; 0xfffffe44
    17d4:	73746e65 	cmnvc	r4, #1616	; 0x650
    17d8:	7270532f 	rsbsvc	r5, r0, #-1140850688	; 0xbc000000
    17dc:	5f676e69 	svcpl	0x00676e69
    17e0:	72617551 	rsbvc	r7, r1, #339738624	; 0x14400000
    17e4:	5f726574 	svcpl	0x00726574
    17e8:	32323032 	eorscc	r3, r2, #50, 0	; 0x32
    17ec:	3253432f 	subscc	r4, r3, #-1140850688	; 0xbc000000
    17f0:	584c3034 	stmdapl	ip, {r2, r4, r5, ip, sp}^
    17f4:	7270732d 	rsbsvc	r7, r0, #-1275068416	; 0xb4000000
    17f8:	6c2f3232 	sfmvs	f3, 4, [pc], #-200	; 1738 <__code_start__-0x68c8>
    17fc:	69706269 	ldmdbvs	r0!, {r0, r3, r5, r6, r9, sp, lr}^
    1800:	636e692f 	cmnvs	lr, #770048	; 0xbc000
    1804:	6564756c 	strbvs	r7, [r4, #-1388]!	; 0xfffffa94
    1808:	73630000 	cmnvc	r3, #0, 0
    180c:	74726174 	ldrbtvc	r6, [r2], #-372	; 0xfffffe8c
    1810:	0100632e 	tsteq	r0, lr, lsr #6
    1814:	70720000 	rsbsvc	r0, r2, r0
    1818:	00682e69 	rsbeq	r2, r8, r9, ror #28
    181c:	00000002 	andeq	r0, r0, r2
    1820:	05001005 	streq	r1, [r0, #-5]
    1824:	00944402 	addseq	r4, r4, r2, lsl #8
    1828:	05051500 	streq	r1, [r5, #-1280]	; 0xfffffb00
    182c:	1302052f 	movwne	r0, #9519	; 0x252f
    1830:	30140505 	andscc	r0, r4, r5, lsl #10
    1834:	0a051413 	beq	146888 <__bss_end__+0x13bea8>
    1838:	31060f06 	tstcc	r6, r6, lsl #30
    183c:	054b0905 	strbeq	r0, [fp, #-2309]	; 0xfffff6fb
    1840:	4a010610 	bmi	43088 <__bss_end__+0x386a8>
    1844:	30060505 	andcc	r0, r6, r5, lsl #10
    1848:	4a010132 	bmi	41d18 <__bss_end__+0x37338>
    184c:	2f020514 	svccs	0x00020514
    1850:	01000602 	tsteq	r0, r2, lsl #12
    1854:	0000a301 	andeq	sl, r0, r1, lsl #6
    1858:	8b000300 	blhi	2460 <__code_start__-0x5ba0>
    185c:	02000000 	andeq	r0, r0, #0, 0
    1860:	0d0efb01 	vstreq	d15, [lr, #-4]
    1864:	01010100 	mrseq	r0, (UNDEF: 17)
    1868:	00000001 	andeq	r0, r0, r1
    186c:	01000001 	tsteq	r0, r1
    1870:	74732f2e 	ldrbtvc	r2, [r3], #-3886	; 0xfffff0d2
    1874:	2d666661 	stclcs	6, cr6, [r6, #-388]!	; 0xfffffe7c
    1878:	00637273 	rsbeq	r7, r3, r3, ror r2
    187c:	6573552f 	ldrbvs	r5, [r3, #-1327]!	; 0xfffffad1
    1880:	742f7372 	strtvc	r7, [pc], #-882	; 1888 <__code_start__-0x6778>
    1884:	74736972 	ldrbtvc	r6, [r3], #-2418	; 0xfffff68e
    1888:	6f6e6e65 	svcvs	0x006e6e65
    188c:	616d6c6c 	cmnvs	sp, ip, ror #24
    1890:	6f442f6e 	svcvs	0x00442f6e
    1894:	656d7563 	strbvs	r7, [sp, #-1379]!	; 0xfffffa9d
    1898:	2f73746e 	svccs	0x0073746e
    189c:	69727053 	ldmdbvs	r2!, {r0, r1, r4, r6, ip, sp, lr}^
    18a0:	515f676e 	cmppl	pc, lr, ror #14
    18a4:	74726175 	ldrbtvc	r6, [r2], #-373	; 0xfffffe8b
    18a8:	325f7265 	subscc	r7, pc, #1342177286	; 0x50000006
    18ac:	2f323230 	svccs	0x00323230
    18b0:	34325343 	ldrtcc	r5, [r2], #-835	; 0xfffffcbd
    18b4:	2d584c30 	ldclcs	12, cr4, [r8, #-192]	; 0xffffff40
    18b8:	32727073 	rsbscc	r7, r2, #115, 0	; 0x73
    18bc:	696c2f32 	stmdbvs	ip!, {r1, r4, r5, r8, r9, sl, fp, sp}^
    18c0:	2f697062 	svccs	0x00697062
    18c4:	6c636e69 	stclvs	14, cr6, [r3], #-420	; 0xfffffe5c
    18c8:	00656475 	rsbeq	r6, r5, r5, ror r4
    18cc:	73756300 	cmnvc	r5, #0, 6
    18d0:	2d6d6f74 	stclcs	15, cr6, [sp, #-464]!	; 0xfffffe30
    18d4:	64616f6c 	strbtvs	r6, [r1], #-3948	; 0xfffff094
    18d8:	632e7265 			; <UNDEFINED> instruction: 0x632e7265
    18dc:	00000100 	andeq	r0, r0, r0, lsl #2
    18e0:	2e697072 	mcrcs	0, 3, r7, cr9, cr2, {3}
    18e4:	00020068 	andeq	r0, r2, r8, rrx
    18e8:	1a050000 	bne	1418f0 <__bss_end__+0x136f10>
    18ec:	80020500 	andhi	r0, r2, r0, lsl #10
    18f0:	15000094 	strne	r0, [r0, #-148]	; 0xffffff6c
    18f4:	02140105 	andseq	r0, r4, #1073741825	; 0x40000001
    18f8:	01010002 	tsteq	r1, r2
    18fc:	000000f3 	strdeq	r0, [r0], -r3
    1900:	00840003 	addeq	r0, r4, r3
    1904:	01020000 	mrseq	r0, (UNDEF: 2)
    1908:	000d0efb 	strdeq	r0, [sp], -fp
    190c:	01010101 	tsteq	r1, r1, lsl #2
    1910:	01000000 	mrseq	r0, (UNDEF: 0)
    1914:	2e010000 	cdpcs	0, 0, cr0, cr1, cr0, {0}
    1918:	6174732f 	cmnvs	r4, pc, lsr #6
    191c:	732d6666 			; <UNDEFINED> instruction: 0x732d6666
    1920:	2f006372 	svccs	0x00006372
    1924:	72657355 	rsbvc	r7, r5, #1409286145	; 0x54000001
    1928:	72742f73 	rsbsvc	r2, r4, #460	; 0x1cc
    192c:	65747369 	ldrbvs	r7, [r4, #-873]!	; 0xfffffc97
    1930:	6c6f6e6e 	stclvs	14, cr6, [pc], #-440	; 1780 <__code_start__-0x6880>
    1934:	6e616d6c 	cdpvs	13, 6, cr6, cr1, cr12, {3}
    1938:	636f442f 	cmnvs	pc, #788529152	; 0x2f000000
    193c:	6e656d75 	mcrvs	13, 3, r6, cr5, cr5, {3}
    1940:	532f7374 			; <UNDEFINED> instruction: 0x532f7374
    1944:	6e697270 	mcrvs	2, 3, r7, cr9, cr0, {3}
    1948:	75515f67 	ldrbvc	r5, [r1, #-3943]	; 0xfffff099
    194c:	65747261 	ldrbvs	r7, [r4, #-609]!	; 0xfffffd9f
    1950:	30325f72 	eorscc	r5, r2, r2, ror pc
    1954:	432f3232 			; <UNDEFINED> instruction: 0x432f3232
    1958:	30343253 	eorscc	r3, r4, r3, asr r2
    195c:	732d584c 			; <UNDEFINED> instruction: 0x732d584c
    1960:	32327270 	eorscc	r7, r2, #112, 4
    1964:	62696c2f 	rsbvs	r6, r9, #12032	; 0x2f00
    1968:	692f6970 	stmdbvs	pc!, {r4, r5, r6, r8, fp, sp, lr}	; <UNPREDICTABLE>
    196c:	756c636e 	strbvc	r6, [ip, #-878]!	; 0xfffffc92
    1970:	00006564 	andeq	r6, r0, r4, ror #10
    1974:	6f626572 	svcvs	0x00626572
    1978:	632e746f 			; <UNDEFINED> instruction: 0x632e746f
    197c:	00000100 	andeq	r0, r0, r0, lsl #2
    1980:	2e697072 	mcrcs	0, 3, r7, cr9, cr2, {3}
    1984:	00020068 	andeq	r0, r2, r8, rrx
    1988:	19050000 	stmdbne	r5, {}	; <UNPREDICTABLE>
    198c:	84020500 	strhi	r0, [r2], #-1280	; 0xfffffb00
    1990:	03000094 	movweq	r0, #148	; 0x94
    1994:	0505010d 	streq	r0, [r5, #-269]	; 0xfffffef3
    1998:	05311313 	ldreq	r1, [r1, #-787]!	; 0xfffffced
    199c:	05010613 	streq	r0, [r1, #-1555]	; 0xfffff9ed
    19a0:	1b052f01 	blne	14d5ac <__bss_end__+0x142bcc>
    19a4:	05058506 	streq	r8, [r5, #-1286]	; 0xfffffafa
    19a8:	09051413 	stmdbeq	r5, {r0, r1, r4, sl, ip}
    19ac:	0616052f 	ldreq	r0, [r6], -pc, lsr #10
    19b0:	2e0e0501 	cfsh32cs	mvfx0, mvfx14, #1
    19b4:	2f060505 	svccs	0x00060505
    19b8:	2f060105 	svccs	0x00060105
    19bc:	30061705 	andcc	r1, r6, r5, lsl #14
    19c0:	052f0505 	streq	r0, [pc, #-1285]!	; 14c3 <__code_start__-0x6b3d>
    19c4:	05010608 	streq	r0, [r1, #-1544]	; 0xfffff9f8
    19c8:	05052e07 	streq	r2, [r5, #-3591]	; 0xfffff1f9
    19cc:	2f305006 	svccs	0x00305006
    19d0:	1313134d 	tstne	r3, #872415233	; 0x34000001
    19d4:	02006715 	andeq	r6, r0, #5505024	; 0x540000
    19d8:	05670104 	strbeq	r0, [r7, #-260]!	; 0xfffffefc
    19dc:	0402000d 	streq	r0, [r2], #-13
    19e0:	0a050101 	beq	141dec <__bss_end__+0x13740c>
    19e4:	01040200 	mrseq	r0, R12_usr
    19e8:	03090501 	movweq	r0, #38145	; 0x9501
    19ec:	0c022e6d 	stceq	14, cr2, [r2], {109}	; 0x6d
    19f0:	fa010100 	blx	41df8 <__bss_end__+0x37418>
    19f4:	03000000 	movweq	r0, #0
    19f8:	00008300 	andeq	r8, r0, r0, lsl #6
    19fc:	fb010200 	blx	42206 <__bss_end__+0x37826>
    1a00:	01000d0e 	tsteq	r0, lr, lsl #26
    1a04:	00010101 	andeq	r0, r1, r1, lsl #2
    1a08:	00010000 	andeq	r0, r1, r0
    1a0c:	2f2e0100 	svccs	0x002e0100
    1a10:	66617473 			; <UNDEFINED> instruction: 0x66617473
    1a14:	72732d66 	rsbsvc	r2, r3, #6528	; 0x1980
    1a18:	552f0063 	strpl	r0, [pc, #-99]!	; 19bd <__code_start__-0x6643>
    1a1c:	73726573 	cmnvc	r2, #482344960	; 0x1cc00000
    1a20:	6972742f 	ldmdbvs	r2!, {r0, r1, r2, r3, r5, sl, ip, sp, lr}^
    1a24:	6e657473 	mcrvs	4, 3, r7, cr5, cr3, {3}
    1a28:	6c6c6f6e 	stclvs	15, cr6, [ip], #-440	; 0xfffffe48
    1a2c:	2f6e616d 	svccs	0x006e616d
    1a30:	75636f44 	strbvc	r6, [r3, #-3908]!	; 0xfffff0bc
    1a34:	746e656d 	strbtvc	r6, [lr], #-1389	; 0xfffffa93
    1a38:	70532f73 	subsvc	r2, r3, r3, ror pc
    1a3c:	676e6972 			; <UNDEFINED> instruction: 0x676e6972
    1a40:	6175515f 	cmnvs	r5, pc, asr r1
    1a44:	72657472 	rsbvc	r7, r5, #1912602624	; 0x72000000
    1a48:	3230325f 	eorscc	r3, r0, #-268435451	; 0xf0000005
    1a4c:	53432f32 	movtpl	r2, #16178	; 0x3f32
    1a50:	4c303432 	cfldrsmi	mvf3, [r0], #-200	; 0xffffff38
    1a54:	70732d58 	rsbsvc	r2, r3, r8, asr sp
    1a58:	2f323272 	svccs	0x00323272
    1a5c:	7062696c 	rsbvc	r6, r2, ip, ror #18
    1a60:	6e692f69 	cdpvs	15, 6, cr2, cr9, cr9, {3}
    1a64:	64756c63 	ldrbtvs	r6, [r5], #-3171	; 0xfffff39d
    1a68:	74000065 	strvc	r0, [r0], #-101	; 0xffffff9b
    1a6c:	72656d69 	rsbvc	r6, r5, #6720	; 0x1a40
    1a70:	0100632e 	tsteq	r0, lr, lsr #6
    1a74:	70720000 	rsbsvc	r0, r2, r0
    1a78:	00682e69 	rsbeq	r2, r8, r9, ror #28
    1a7c:	00000002 	andeq	r0, r0, r2
    1a80:	05002305 	streq	r2, [r0, #-773]	; 0xfffffcfb
    1a84:	00950402 	addseq	r0, r5, r2, lsl #8
    1a88:	05051500 	streq	r1, [r5, #-1280]	; 0xfffffb00
    1a8c:	060c052f 	streq	r0, [ip], -pc, lsr #10
    1a90:	4b010501 	blmi	42e9c <__bss_end__+0x384bc>
    1a94:	4d061f05 	stcmi	15, cr1, [r6, #-20]	; 0xffffffec
    1a98:	2f310505 	svccs	0x00310505
    1a9c:	01061205 	tsteq	r6, r5, lsl #4
    1aa0:	4b060505 	blmi	182ebc <__bss_end__+0x1784dc>
    1aa4:	0601052f 	streq	r0, [r1], -pc, lsr #10
    1aa8:	061c0513 			; <UNDEFINED> instruction: 0x061c0513
    1aac:	0501064c 	streq	r0, [r1, #-1612]	; 0xfffff9b4
    1ab0:	054b0605 	strbeq	r0, [fp, #-1541]	; 0xfffff9fb
    1ab4:	2e010613 	mcrcs	6, 0, r0, cr1, cr3, {0}
    1ab8:	2f060505 	svccs	0x00060505
    1abc:	05130905 	ldreq	r0, [r3, #-2309]	; 0xfffff6fb
    1ac0:	05010617 	streq	r0, [r1, #-1559]	; 0xfffff9e9
    1ac4:	052f0609 	streq	r0, [pc, #-1545]!	; 14c3 <__code_start__-0x6b3d>
    1ac8:	05010611 	streq	r0, [r1, #-1553]	; 0xfffff9ef
    1acc:	1c052e0c 	stcne	14, cr2, [r5], {12}
    1ad0:	01066b06 	tsteq	r6, r6, lsl #22
    1ad4:	2f060505 	svccs	0x00060505
    1ad8:	01054a06 	tsteq	r5, r6, lsl #20
    1adc:	061e054b 	ldreq	r0, [lr], -fp, asr #10
    1ae0:	0501062f 	streq	r0, [r1, #-1583]	; 0xfffff9d1
    1ae4:	062f0605 	strteq	r0, [pc], -r5, lsl #12
    1ae8:	4b01054a 	blmi	43018 <__bss_end__+0x38638>
    1aec:	01000202 	tsteq	r0, r2, lsl #4
    1af0:	00020501 	andeq	r0, r2, r1, lsl #10
    1af4:	c9000300 	stmdbgt	r0, {r8, r9}
    1af8:	02000000 	andeq	r0, r0, #0, 0
    1afc:	0d0efb01 	vstreq	d15, [lr, #-4]
    1b00:	01010100 	mrseq	r0, (UNDEF: 17)
    1b04:	00000001 	andeq	r0, r0, r1
    1b08:	01000001 	tsteq	r0, r1
    1b0c:	6d6f682f 	stclvs	8, cr6, [pc, #-188]!	; 1a58 <__code_start__-0x65a8>
    1b10:	6e652f65 	cdpvs	15, 6, cr2, cr5, cr5, {3}
    1b14:	72656c67 	rsbvc	r6, r5, #26368	; 0x6700
    1b18:	616c632f 	cmnvs	ip, pc, lsr #6
    1b1c:	632f7373 			; <UNDEFINED> instruction: 0x632f7373
    1b20:	30343273 	eorscc	r3, r4, r3, ror r2
    1b24:	322d786c 	eorcc	r7, sp, #108, 16	; 0x6c0000
    1b28:	72707332 	rsbsvc	r7, r0, #-939524096	; 0xc8000000
    1b2c:	696c2f2f 	stmdbvs	ip!, {r0, r1, r2, r3, r5, r8, r9, sl, fp, sp}^
    1b30:	2f697062 	svccs	0x00697062
    1b34:	6c636e69 	stclvs	14, cr6, [r3], #-420	; 0xfffffe5c
    1b38:	00656475 	rsbeq	r6, r5, r5, ror r4
    1b3c:	7273752f 	rsbsvc	r7, r3, #197132288	; 0xbc00000
    1b40:	6168732f 	cmnvs	r8, pc, lsr #6
    1b44:	672f6572 			; <UNDEFINED> instruction: 0x672f6572
    1b48:	612d6363 			; <UNDEFINED> instruction: 0x612d6363
    1b4c:	6e2d6d72 	mcrvs	13, 1, r6, cr13, cr2, {3}
    1b50:	2d656e6f 	stclcs	14, cr6, [r5, #-444]!	; 0xfffffe44
    1b54:	69626165 	stmdbvs	r2!, {r0, r2, r5, r6, r8, sp, lr}^
    1b58:	2e30312d 	rsfcssp	f3, f0, #5.0
    1b5c:	30322d33 	eorscc	r2, r2, r3, lsr sp
    1b60:	312e3132 			; <UNDEFINED> instruction: 0x312e3132
    1b64:	696c2f30 	stmdbvs	ip!, {r4, r5, r8, r9, sl, fp, sp}^
    1b68:	63672f62 	cmnvs	r7, #392	; 0x188
    1b6c:	72612f63 	rsbvc	r2, r1, #396	; 0x18c
    1b70:	6f6e2d6d 	svcvs	0x006e2d6d
    1b74:	652d656e 	strvs	r6, [sp, #-1390]!	; 0xfffffa92
    1b78:	2f696261 	svccs	0x00696261
    1b7c:	332e3031 			; <UNDEFINED> instruction: 0x332e3031
    1b80:	692f312e 	stmdbvs	pc!, {r1, r2, r3, r5, r8, ip, sp}	; <UNPREDICTABLE>
    1b84:	756c636e 	strbvc	r6, [ip, #-878]!	; 0xfffffc92
    1b88:	00006564 	andeq	r6, r0, r4, ror #10
    1b8c:	74726175 	ldrbtvc	r6, [r2], #-373	; 0xfffffe8b
    1b90:	0000632e 	andeq	r6, r0, lr, lsr #6
    1b94:	61750000 	cmnvs	r5, r0
    1b98:	682e7472 	stmdavs	lr!, {r1, r4, r5, r6, sl, ip, sp, lr}
    1b9c:	00000100 	andeq	r0, r0, r0, lsl #2
    1ba0:	2e697072 	mcrcs	0, 3, r7, cr9, cr2, {3}
    1ba4:	00010068 	andeq	r0, r1, r8, rrx
    1ba8:	69706700 	ldmdbvs	r0!, {r8, r9, sl, sp, lr}^
    1bac:	00682e6f 	rsbeq	r2, r8, pc, ror #28
    1bb0:	73000001 	movwvc	r0, #1
    1bb4:	6e696474 	mcrvs	4, 3, r6, cr9, cr4, {3}
    1bb8:	63672d74 	cmnvs	r7, #116, 26	; 0x1d00
    1bbc:	00682e63 	rsbeq	r2, r8, r3, ror #28
    1bc0:	00000002 	andeq	r0, r0, r2
    1bc4:	05003905 	streq	r3, [r0, #-2309]	; 0xfffff6fb
    1bc8:	00958802 	addseq	r8, r5, r2, lsl #16
    1bcc:	01300300 	teqeq	r0, r0, lsl #6
    1bd0:	05050106 	streq	r0, [r5, #-262]	; 0xfffffefa
    1bd4:	11056706 	tstne	r5, r6, lsl #14
    1bd8:	05050106 	streq	r0, [r5, #-262]	; 0xfffffefa
    1bdc:	6701052e 	strvs	r0, [r1, -lr, lsr #10]
    1be0:	29063805 	stmdbcs	r6, {r0, r2, fp, ip, sp}
    1be4:	05050106 	streq	r0, [r5, #-262]	; 0xfffffefa
    1be8:	11056706 	tstne	r5, r6, lsl #14
    1bec:	05050106 	streq	r0, [r5, #-262]	; 0xfffffefa
    1bf0:	6701052e 	strvs	r0, [r1, -lr, lsr #10]
    1bf4:	03061605 	movweq	r1, #26117	; 0x6605
    1bf8:	05052e15 	streq	r2, [r5, #-3605]	; 0xfffff1eb
    1bfc:	35686735 	strbcc	r6, [r8, #-1845]!	; 0xfffff8cb
    1c00:	2e0c0368 	cdpcs	3, 0, cr0, cr12, cr8, {3}
    1c04:	69696b85 	stmdbvs	r9!, {r0, r2, r7, r8, r9, fp, sp, lr}^
    1c08:	13660c03 	cmnne	r6, #768	; 0x300
    1c0c:	0105676b 	tsteq	r5, fp, ror #14
    1c10:	19052f06 	stmdbne	r5, {r1, r2, r8, r9, sl, fp, sp}
    1c14:	05250806 	streq	r0, [r5, #-2054]!	; 0xfffff7fa
    1c18:	0d053405 	cfstrseq	mvf3, [r5, #-20]	; 0xffffffec
    1c1c:	01050106 	tsteq	r5, r6, lsl #2
    1c20:	0619054c 	ldreq	r0, [r9], -ip, asr #10
    1c24:	36050567 	strcc	r0, [r5], -r7, ror #10
    1c28:	01060d05 	tsteq	r6, r5, lsl #26
    1c2c:	054a2805 	strbeq	r2, [sl, #-2053]	; 0xfffff7fb
    1c30:	15053001 	strne	r3, [r5, #-1]
    1c34:	05058706 	streq	r8, [r5, #-1798]	; 0xfffff8fa
    1c38:	09052f2f 	stmdbeq	r5, {r0, r1, r2, r3, r5, r8, r9, sl, fp, sp}
    1c3c:	01040200 	mrseq	r0, R12_usr
    1c40:	000a0513 	andeq	r0, sl, r3, lsl r5
    1c44:	11010402 	tstne	r1, r2, lsl #8
    1c48:	02000c05 	andeq	r0, r0, #1280	; 0x500
    1c4c:	01060104 	tsteq	r6, r4, lsl #2
    1c50:	02000a05 	andeq	r0, r0, #20480	; 0x5000
    1c54:	052e0104 	streq	r0, [lr, #-260]!	; 0xfffffefc
    1c58:	054c0605 	strbeq	r0, [ip, #-1541]	; 0xfffff9fb
    1c5c:	0501060e 	streq	r0, [r1, #-1550]	; 0xfffff9f2
    1c60:	05054a09 	streq	r4, [r5, #-2569]	; 0xfffff5f7
    1c64:	052f2f06 	streq	r2, [pc, #-3846]!	; d66 <__code_start__-0x729a>
    1c68:	05130601 	ldreq	r0, [r3, #-1537]	; 0xfffff9ff
    1c6c:	0667061c 			; <UNDEFINED> instruction: 0x0667061c
    1c70:	06050501 	streq	r0, [r5], -r1, lsl #10
    1c74:	09052f4b 	stmdbeq	r5, {r0, r1, r3, r6, r8, r9, sl, fp, sp}
    1c78:	01040200 	mrseq	r0, R12_usr
    1c7c:	000a0513 	andeq	r0, sl, r3, lsl r5
    1c80:	11010402 	tstne	r1, r2, lsl #8
    1c84:	02000c05 	andeq	r0, r0, #1280	; 0x500
    1c88:	01060104 	tsteq	r6, r4, lsl #2
    1c8c:	02000a05 	andeq	r0, r0, #20480	; 0x5000
    1c90:	052e0104 	streq	r0, [lr, #-260]!	; 0xfffffefc
    1c94:	674c0605 	strbvs	r0, [ip, -r5, lsl #12]
    1c98:	2f060105 	svccs	0x00060105
    1c9c:	4c061905 			; <UNDEFINED> instruction: 0x4c061905
    1ca0:	052e1b05 	streq	r1, [lr, #-2821]!	; 0xfffff4fb
    1ca4:	31052e2a 	tstcc	r5, sl, lsr #28
    1ca8:	42050106 	andmi	r0, r5, #-2147483647	; 0x80000001
    1cac:	061c052e 	ldreq	r0, [ip], -lr, lsr #10
    1cb0:	2f050531 	svccs	0x00050531
    1cb4:	052e0903 	streq	r0, [lr, #-2307]!	; 0xfffff6fd
    1cb8:	0501060e 	streq	r0, [r1, #-1550]	; 0xfffff9f2
    1cbc:	01054a21 	tsteq	r5, r1, lsr #20
    1cc0:	052e0a03 	streq	r0, [lr, #-2563]!	; 0xfffff5fd
    1cc4:	0568061a 	strbeq	r0, [r8, #-1562]!	; 0xfffff9e6
    1cc8:	04020009 	streq	r0, [r2], #-9
    1ccc:	0a053001 	beq	14dcd8 <__bss_end__+0x1432f8>
    1cd0:	01040200 	mrseq	r0, R12_usr
    1cd4:	000c0511 	andeq	r0, ip, r1, lsl r5
    1cd8:	06010402 	streq	r0, [r1], -r2, lsl #8
    1cdc:	000a0501 	andeq	r0, sl, r1, lsl #10
    1ce0:	2e010402 	cdpcs	4, 0, cr0, cr1, cr2, {0}
    1ce4:	03061905 	movweq	r1, #26885	; 0x6905
    1ce8:	05667ee8 	strbeq	r7, [r6, #-3816]!	; 0xfffff118
    1cec:	2f2f2f05 	svccs	0x002f2f05
    1cf0:	06010567 	streq	r0, [r1], -r7, ror #10
    1cf4:	0004022f 	andeq	r0, r4, pc, lsr #4
    1cf8:	03930101 	orrseq	r0, r3, #1073741824	; 0x40000000
    1cfc:	00030000 	andeq	r0, r3, r0
    1d00:	000000b8 	strheq	r0, [r0], -r8
    1d04:	0efb0102 	cdpeq	1, 15, cr0, cr11, cr2, {0}
    1d08:	0101000d 	tsteq	r1, sp
    1d0c:	00000101 	andeq	r0, r0, r1, lsl #2
    1d10:	00000100 	andeq	r0, r0, r0, lsl #2
    1d14:	6f682f01 	svcvs	0x00682f01
    1d18:	652f656d 	strvs	r6, [pc, #-1389]!	; 17b3 <__code_start__-0x684d>
    1d1c:	656c676e 	strbvs	r6, [ip, #-1902]!	; 0xfffff892
    1d20:	6c632f72 	stclvs	15, cr2, [r3], #-456	; 0xfffffe38
    1d24:	2f737361 	svccs	0x00737361
    1d28:	34327363 	ldrtcc	r7, [r2], #-867	; 0xfffffc9d
    1d2c:	2d786c30 	ldclcs	12, cr6, [r8, #-192]!	; 0xffffff40
    1d30:	70733232 	rsbsvc	r3, r3, r2, lsr r2
    1d34:	6c2f2f72 	stcvs	15, cr2, [pc], #-456	; 1b74 <__code_start__-0x648c>
    1d38:	69706269 	ldmdbvs	r0!, {r0, r3, r5, r6, r9, sp, lr}^
    1d3c:	636e692f 	cmnvs	lr, #770048	; 0xbc000
    1d40:	6564756c 	strbvs	r7, [r4, #-1388]!	; 0xfffffa94
    1d44:	73752f00 	cmnvc	r5, #0, 30
    1d48:	68732f72 	ldmdavs	r3!, {r1, r4, r5, r6, r8, r9, sl, fp, sp}^
    1d4c:	2f657261 	svccs	0x00657261
    1d50:	2d636367 	stclcs	3, cr6, [r3, #-412]!	; 0xfffffe64
    1d54:	2d6d7261 	sfmcs	f7, 2, [sp, #-388]!	; 0xfffffe7c
    1d58:	656e6f6e 	strbvs	r6, [lr, #-3950]!	; 0xfffff092
    1d5c:	6261652d 	rsbvs	r6, r1, #188743680	; 0xb400000
    1d60:	30312d69 	eorscc	r2, r1, r9, ror #26
    1d64:	322d332e 	eorcc	r3, sp, #-1207959552	; 0xb8000000
    1d68:	2e313230 	mrccs	2, 1, r3, cr1, cr0, {1}
    1d6c:	6c2f3031 	stcvs	0, cr3, [pc], #-196	; 1cb0 <__code_start__-0x6350>
    1d70:	672f6269 	strvs	r6, [pc, -r9, ror #4]!
    1d74:	612f6363 			; <UNDEFINED> instruction: 0x612f6363
    1d78:	6e2d6d72 	mcrvs	13, 1, r6, cr13, cr2, {3}
    1d7c:	2d656e6f 	stclcs	14, cr6, [r5, #-444]!	; 0xfffffe44
    1d80:	69626165 	stmdbvs	r2!, {r0, r2, r5, r6, r8, sp, lr}^
    1d84:	2e30312f 	rsfcssp	f3, f0, #10.0
    1d88:	2f312e33 	svccs	0x00312e33
    1d8c:	6c636e69 	stclvs	14, cr6, [r3], #-420	; 0xfffffe5c
    1d90:	00656475 	rsbeq	r6, r5, r5, ror r4
    1d94:	616d6b00 	cmnvs	sp, r0, lsl #22
    1d98:	636f6c6c 	cmnvs	pc, #108, 24	; 0x6c00
    1d9c:	0000632e 	andeq	r6, r0, lr, lsr #6
    1da0:	70720000 	rsbsvc	r0, r2, r0
    1da4:	00682e69 	rsbeq	r2, r8, r9, ror #28
    1da8:	73000001 	movwvc	r0, #1
    1dac:	6e696474 	mcrvs	4, 3, r6, cr9, cr4, {3}
    1db0:	63672d74 	cmnvs	r7, #116, 26	; 0x1d00
    1db4:	00682e63 	rsbeq	r2, r8, r3, ror #28
    1db8:	00000002 	andeq	r0, r0, r2
    1dbc:	05001e05 	streq	r1, [r0, #-3589]	; 0xfffff1fb
    1dc0:	00977802 	addseq	r7, r7, r2, lsl #16
    1dc4:	01270300 			; <UNDEFINED> instruction: 0x01270300
    1dc8:	05012005 	streq	r2, [r1, #-5]
    1dcc:	05010631 	streq	r0, [r1, #-1585]	; 0xfffff9cf
    1dd0:	05830620 	streq	r0, [r3, #1568]	; 0x620
    1dd4:	35050122 	strcc	r0, [r5, #-290]	; 0xfffffede
    1dd8:	1e050106 	adfnes	f0, f5, f6
    1ddc:	20058306 	andcs	r8, r5, r6, lsl #6
    1de0:	062d0501 	strteq	r0, [sp], -r1, lsl #10
    1de4:	06420501 	strbeq	r0, [r2], -r1, lsl #10
    1de8:	05010685 	streq	r0, [r1, #-1669]	; 0xfffff97b
    1dec:	144b0605 	strbne	r0, [fp], #-1541	; 0xfffff9fb
    1df0:	002e0601 	eoreq	r0, lr, r1, lsl #12
    1df4:	06020402 	streq	r0, [r2], -r2, lsl #8
    1df8:	0402002e 	streq	r0, [r2], #-46	; 0xffffffd2
    1dfc:	02000102 	andeq	r0, r0, #-2147483648	; 0x80000000
    1e00:	05150204 	ldreq	r0, [r5, #-516]	; 0xfffffdfc
    1e04:	0402000d 	streq	r0, [r2], #-13
    1e08:	05010602 	streq	r0, [r1, #-1538]	; 0xfffff9fe
    1e0c:	04020007 	streq	r0, [r2], #-7
    1e10:	09054a02 	stmdbeq	r5, {r1, r9, fp, lr}
    1e14:	05054b06 	streq	r4, [r5, #-2822]	; 0xfffff4fa
    1e18:	06170515 			; <UNDEFINED> instruction: 0x06170515
    1e1c:	4a100501 	bmi	403228 <__bss_end__+0x3f8848>
    1e20:	2f060505 	svccs	0x00060505
    1e24:	01061b05 	tsteq	r6, r5, lsl #22
    1e28:	052e0e05 	streq	r0, [lr, #-3589]!	; 0xfffff1fb
    1e2c:	05052f01 	streq	r2, [r5, #-3841]	; 0xfffff0ff
    1e30:	01040200 	mrseq	r0, R12_usr
    1e34:	4a770306 	bmi	1dc2a54 <__bss_end__+0x1db8074>
    1e38:	01040200 	mrseq	r0, R12_usr
    1e3c:	04020001 	streq	r0, [r2], #-1
    1e40:	009e0601 	addseq	r0, lr, r1, lsl #12
    1e44:	2e010402 	cdpcs	4, 0, cr0, cr1, cr2, {0}
    1e48:	01040200 	mrseq	r0, R12_usr
    1e4c:	09052e06 	stmdbeq	r5, {r1, r2, r9, sl, fp, sp}
    1e50:	d6060132 			; <UNDEFINED> instruction: 0xd6060132
    1e54:	052e062e 	streq	r0, [lr, #-1582]!	; 0xfffff9d2
    1e58:	0505de19 	streq	sp, [r5, #-3609]	; 0xfffff1e7
    1e5c:	0805142f 	stmdaeq	r5, {r0, r1, r2, r3, r5, sl, ip}
    1e60:	07050106 	streq	r0, [r5, -r6, lsl #2]
    1e64:	0609054a 	streq	r0, [r9], -sl, asr #10
    1e68:	1305054b 	movwne	r0, #21835	; 0x554b
    1e6c:	01060c05 	tsteq	r6, r5, lsl #24
    1e70:	67060505 	strvs	r0, [r6, -r5, lsl #10]
    1e74:	06010513 			; <UNDEFINED> instruction: 0x06010513
    1e78:	06090567 	streq	r0, [r9], -r7, ror #10
    1e7c:	059e012a 	ldreq	r0, [lr, #298]	; 0x12a
    1e80:	0106a528 	tsteq	r6, r8, lsr #10
    1e84:	4b060505 	blmi	1832a0 <__bss_end__+0x1788c0>
    1e88:	062e0601 	strteq	r0, [lr], -r1, lsl #12
    1e8c:	0513012e 	ldreq	r0, [r3, #-302]	; 0xfffffed2
    1e90:	01470318 	cmpeq	r7, r8, lsl r3
    1e94:	01130505 	tsteq	r3, r5, lsl #10
    1e98:	0f060106 	svceq	0x00060106
    1e9c:	05130115 	ldreq	r0, [r3, #-277]	; 0xfffffeeb
    1ea0:	0501060e 	streq	r0, [r1, #-1550]	; 0xfffff9f2
    1ea4:	052e2e16 	streq	r2, [lr, #-3606]!	; 0xfffff1ea
    1ea8:	39030605 	stmdbcc	r3, {r0, r2, r9, sl}
    1eac:	060b0501 	streq	r0, [fp], -r1, lsl #10
    1eb0:	06050501 	streq	r0, [r5], -r1, lsl #10
    1eb4:	060a054b 	streq	r0, [sl], -fp, asr #10
    1eb8:	06050501 	streq	r0, [r5], -r1, lsl #10
    1ebc:	060d054b 	streq	r0, [sp], -fp, asr #10
    1ec0:	2e070501 	cfsh32cs	mvfx0, mvfx7, #1
    1ec4:	054d0105 	strbeq	r0, [sp, #-261]	; 0xfffffefb
    1ec8:	04020005 	streq	r0, [r2], #-5
    1ecc:	78030601 	stmdavc	r3, {r0, r9, sl}
    1ed0:	0402004a 	streq	r0, [r2], #-74	; 0xffffffb6
    1ed4:	02000101 	andeq	r0, r0, #1073741824	; 0x40000000
    1ed8:	ba060104 	blt	1822f0 <__bss_end__+0x177910>
    1edc:	01040200 	mrseq	r0, R12_usr
    1ee0:	09052e06 	stmdbeq	r5, {r1, r2, r9, sl, fp, sp}
    1ee4:	82060134 	andhi	r0, r6, #13
    1ee8:	052e0666 	streq	r0, [lr, #-1638]!	; 0xfffff99a
    1eec:	0106db20 	tsteq	r6, r0, lsr #22
    1ef0:	4b060505 	blmi	18330c <__bss_end__+0x17892c>
    1ef4:	04020001 	streq	r0, [r2], #-1
    1ef8:	02004a02 	andeq	r4, r0, #8192	; 0x2000
    1efc:	00010204 	andeq	r0, r1, r4, lsl #4
    1f00:	13020402 	movwne	r0, #9218	; 0x2402
    1f04:	02001205 	andeq	r1, r0, #1342177280	; 0x50000000
    1f08:	01060204 	tsteq	r6, r4, lsl #4
    1f0c:	02040200 	andeq	r0, r4, #0, 4
    1f10:	0402002e 	streq	r0, [r2], #-46	; 0xffffffd2
    1f14:	05052e02 	streq	r2, [r5, #-3586]	; 0xfffff1fe
    1f18:	02040200 	andeq	r0, r4, #0, 4
    1f1c:	02002f06 	andeq	r2, r0, #6, 30
    1f20:	05670204 	strbeq	r0, [r7, #-516]!	; 0xfffffdfc
    1f24:	04020001 	streq	r0, [r2], #-1
    1f28:	05130602 	ldreq	r0, [r3, #-1538]	; 0xfffff9fe
    1f2c:	04020005 	streq	r0, [r2], #-5
    1f30:	00620601 	rsbeq	r0, r2, r1, lsl #12
    1f34:	01010402 	tsteq	r1, r2, lsl #8
    1f38:	01040200 	mrseq	r0, R12_usr
    1f3c:	0200ba06 	andeq	fp, r0, #24576	; 0x6000
    1f40:	2e060104 	adfcss	f0, f6, f4
    1f44:	0a033c05 	beq	d0f60 <__bss_end__+0xc6580>
    1f48:	0501069e 	streq	r0, [r1, #-1694]	; 0xfffff962
    1f4c:	014b0605 	cmpeq	fp, r5, lsl #12
    1f50:	2e062e06 	cdpcs	14, 0, cr2, cr6, cr6, {0}
    1f54:	05011301 	streq	r1, [r1, #-769]	; 0xfffffcff
    1f58:	7fad0318 	svcvc	0x00ad0318
    1f5c:	13050501 	movwne	r0, #21761	; 0x5501
    1f60:	01061105 	tsteq	r6, r5, lsl #2
    1f64:	0305052e 	movweq	r0, #21806	; 0x552e
    1f68:	060100d2 			; <UNDEFINED> instruction: 0x060100d2
    1f6c:	1805134a 	stmdane	r5, {r1, r3, r6, r8, r9, ip}
    1f70:	017fa303 	cmneq	pc, r3, lsl #6
    1f74:	05130505 	ldreq	r0, [r3, #-1285]	; 0xfffffafb
    1f78:	4a010616 	bmi	437d8 <__bss_end__+0x38df8>
    1f7c:	03060505 	movweq	r0, #25861	; 0x6505
    1f80:	050100e1 	streq	r0, [r1, #-225]	; 0xffffff1f
    1f84:	05010612 	streq	r0, [r1, #-1554]	; 0xfffff9ee
    1f88:	054b0605 	strbeq	r0, [fp, #-1541]	; 0xfffff9fb
    1f8c:	7fa90318 	svcvc	0x00a90318
    1f90:	13050501 	movwne	r0, #21761	; 0x5501
    1f94:	0e180501 	cfmul32eq	mvfx0, mvfx8, mvfx1
    1f98:	05130505 	ldreq	r0, [r3, #-1285]	; 0xfffffafb
    1f9c:	2e010611 	mcrcs	6, 0, r0, cr1, cr1, {0}
    1fa0:	06150505 	ldreq	r0, [r5], -r5, lsl #10
    1fa4:	0513014a 	ldreq	r0, [r3, #-330]	; 0xfffffeb6
    1fa8:	2e01060e 	cfmadd32cs	mvax0, mvfx0, mvfx1, mvfx14
    1fac:	2e2e1605 	cfmadda32cs	mvax0, mvax1, mvfx14, mvfx5
    1fb0:	03060505 	movweq	r0, #25861	; 0x6505
    1fb4:	010100d6 	ldrdeq	r0, [r1, -r6]
    1fb8:	9f031805 	svcls	0x00031805
    1fbc:	0505017f 	streq	r0, [r5, #-383]	; 0xfffffe81
    1fc0:	06190513 			; <UNDEFINED> instruction: 0x06190513
    1fc4:	05052e01 	streq	r2, [r5, #-3585]	; 0xfffff1ff
    1fc8:	0100e003 	tsteq	r0, r3
    1fcc:	02040200 	andeq	r0, r4, #0, 4
    1fd0:	02004a06 	andeq	r4, r0, #24576	; 0x6000
    1fd4:	05140204 	ldreq	r0, [r4, #-516]	; 0xfffffdfc
    1fd8:	0402000a 	streq	r0, [r2], #-10
    1fdc:	05010602 	streq	r0, [r1, #-1538]	; 0xfffff9fe
    1fe0:	04020005 	streq	r0, [r2], #-5
    1fe4:	054b0602 	strbeq	r0, [fp, #-1538]	; 0xfffff9fe
    1fe8:	0402000c 	streq	r0, [r2], #-12
    1fec:	05010602 	streq	r0, [r1, #-1538]	; 0xfffff9fe
    1ff0:	04020001 	streq	r0, [r2], #-1
    1ff4:	05052f02 	streq	r2, [r5, #-3842]	; 0xfffff0fe
    1ff8:	01040200 	mrseq	r0, R12_usr
    1ffc:	4a730306 	bmi	1cc2c1c <__bss_end__+0x1cb823c>
    2000:	01040200 	mrseq	r0, R12_usr
    2004:	04020001 	streq	r0, [r2], #-1
    2008:	009e0601 	addseq	r0, lr, r1, lsl #12
    200c:	2e010402 	cdpcs	4, 0, cr0, cr1, cr2, {0}
    2010:	01040200 	mrseq	r0, R12_usr
    2014:	02002e06 	andeq	r2, r0, #96	; 0x60
    2018:	002f0104 	eoreq	r0, pc, r4, lsl #2
    201c:	2e010402 	cdpcs	4, 0, cr0, cr1, cr2, {0}
    2020:	01040200 	mrseq	r0, R12_usr
    2024:	7fb103d6 	svcvc	0x00b103d6
    2028:	8206012e 	andhi	r0, r6, #-2147483637	; 0x8000000b
    202c:	2e062e2e 	cdpcs	14, 0, cr2, cr6, cr14, {1}
    2030:	02002e06 	andeq	r2, r0, #96	; 0x60
    2034:	03060104 	movweq	r0, #24836	; 0x6104
    2038:	000100d7 	ldrdeq	r0, [r1], -r7
    203c:	2e010402 	cdpcs	4, 0, cr0, cr1, cr2, {0}
    2040:	01040200 	mrseq	r0, R12_usr
    2044:	081505d6 	ldmdaeq	r5, {r1, r2, r4, r6, r7, r8, sl}
    2048:	0117057b 	tsteq	r7, fp, ror r5
    204c:	05311605 	ldreq	r1, [r1, #-1541]!	; 0xfffff9fb
    2050:	1d050118 	stfnes	f0, [r5, #-96]	; 0xffffffa0
    2054:	2b050106 	blcs	142474 <__bss_end__+0x137a94>
    2058:	06190566 	ldreq	r0, [r9], -r6, ror #10
    205c:	1305054d 	movwne	r0, #21837	; 0x554d
    2060:	01060c05 	tsteq	r6, r5, lsl #24
    2064:	054a0705 	strbeq	r0, [sl, #-1797]	; 0xfffff8fb
    2068:	04020025 	streq	r0, [r2], #-37	; 0xffffffdb
    206c:	1e054a01 	vmlane.f32	s8, s10, s2
    2070:	01040200 	mrseq	r0, R12_usr
    2074:	0609054a 	streq	r0, [r9], -sl, asr #10
    2078:	1305054b 	movwne	r0, #21835	; 0x554b
    207c:	01060a05 	tsteq	r6, r5, lsl #20
    2080:	05631905 	strbeq	r1, [r3, #-2309]!	; 0xfffff6fb
    2084:	014c0609 	cmpeq	ip, r9, lsl #12
    2088:	2e069e06 	cdpcs	14, 0, cr9, cr6, cr6, {0}
    208c:	01000a02 	tsteq	r0, r2, lsl #20
    2090:	0000be01 	andeq	fp, r0, r1, lsl #28
    2094:	80000300 	andhi	r0, r0, r0, lsl #6
    2098:	02000000 	andeq	r0, r0, #0, 0
    209c:	0d0efb01 	vstreq	d15, [lr, #-4]
    20a0:	01010100 	mrseq	r0, (UNDEF: 17)
    20a4:	00000001 	andeq	r0, r0, r1
    20a8:	01000001 	tsteq	r0, r1
    20ac:	696c2f2e 	stmdbvs	ip!, {r1, r2, r3, r5, r8, r9, sl, fp, sp}^
    20b0:	2f006362 	svccs	0x00006362
    20b4:	72657355 	rsbvc	r7, r5, #1409286145	; 0x54000001
    20b8:	72742f73 	rsbsvc	r2, r4, #460	; 0x1cc
    20bc:	65747369 	ldrbvs	r7, [r4, #-873]!	; 0xfffffc97
    20c0:	6c6f6e6e 	stclvs	14, cr6, [pc], #-440	; 1f10 <__code_start__-0x60f0>
    20c4:	6e616d6c 	cdpvs	13, 6, cr6, cr1, cr12, {3}
    20c8:	636f442f 	cmnvs	pc, #788529152	; 0x2f000000
    20cc:	6e656d75 	mcrvs	13, 3, r6, cr5, cr5, {3}
    20d0:	532f7374 			; <UNDEFINED> instruction: 0x532f7374
    20d4:	6e697270 	mcrvs	2, 3, r7, cr9, cr0, {3}
    20d8:	75515f67 	ldrbvc	r5, [r1, #-3943]	; 0xfffff099
    20dc:	65747261 	ldrbvs	r7, [r4, #-609]!	; 0xfffffd9f
    20e0:	30325f72 	eorscc	r5, r2, r2, ror pc
    20e4:	432f3232 			; <UNDEFINED> instruction: 0x432f3232
    20e8:	30343253 	eorscc	r3, r4, r3, asr r2
    20ec:	732d584c 			; <UNDEFINED> instruction: 0x732d584c
    20f0:	32327270 	eorscc	r7, r2, #112, 4
    20f4:	62696c2f 	rsbvs	r6, r9, #12032	; 0x2f00
    20f8:	692f6970 	stmdbvs	pc!, {r4, r5, r6, r8, fp, sp, lr}	; <UNPREDICTABLE>
    20fc:	756c636e 	strbvc	r6, [ip, #-878]!	; 0xfffffc92
    2100:	00006564 	andeq	r6, r0, r4, ror #10
    2104:	63747570 	cmnvs	r4, #112, 10	; 0x1c000000
    2108:	2e726168 	rpwcssz	f6, f2, #0.0
    210c:	00010063 	andeq	r0, r1, r3, rrx
    2110:	69707200 	ldmdbvs	r0!, {r9, ip, sp, lr}^
    2114:	0200682e 	andeq	r6, r0, #3014656	; 0x2e0000
    2118:	05000000 	streq	r0, [r0, #-0]
    211c:	02050024 	andeq	r0, r5, #36, 0	; 0x24
    2120:	00009b28 	andeq	r9, r0, r8, lsr #22
    2124:	05010614 	streq	r0, [r1, #-1556]	; 0xfffff9ec
    2128:	054a0626 	strbeq	r0, [sl, #-1574]	; 0xfffff9da
    212c:	01052e34 	tsteq	r5, r4, lsr lr
    2130:	1b050106 	blne	142550 <__bss_end__+0x137b70>
    2134:	05054f06 	streq	r4, [r5, #-3846]	; 0xfffff0fa
    2138:	06110513 			; <UNDEFINED> instruction: 0x06110513
    213c:	67010501 	strvs	r0, [r1, -r1, lsl #10]
    2140:	67062305 	strvs	r2, [r6, -r5, lsl #6]
    2144:	05130505 	ldreq	r0, [r3, #-1285]	; 0xfffffafb
    2148:	05010611 	streq	r0, [r1, #-1553]	; 0xfffff9ef
    214c:	04024b01 	streq	r4, [r2], #-2817	; 0xfffff4ff
    2150:	0a010100 	beq	42558 <__bss_end__+0x37b78>
    2154:	03000001 	movweq	r0, #1
    2158:	00007f00 	andeq	r7, r0, r0, lsl #30
    215c:	fb010200 	blx	42966 <__bss_end__+0x37f86>
    2160:	01000d0e 	tsteq	r0, lr, lsl #26
    2164:	00010101 	andeq	r0, r1, r1, lsl #2
    2168:	00010000 	andeq	r0, r1, r0
    216c:	2f2e0100 	svccs	0x002e0100
    2170:	6362696c 	cmnvs	r2, #108, 18	; 0x1b0000
    2174:	73552f00 	cmpvc	r5, #0, 30
    2178:	2f737265 	svccs	0x00737265
    217c:	73697274 	cmnvc	r9, #116, 4	; 0x40000007
    2180:	6e6e6574 	mcrvs	5, 3, r6, cr14, cr4, {3}
    2184:	6d6c6c6f 	stclvs	12, cr6, [ip, #-444]!	; 0xfffffe44
    2188:	442f6e61 	strtmi	r6, [pc], #-3681	; 2190 <__code_start__-0x5e70>
    218c:	6d75636f 	ldclvs	3, cr6, [r5, #-444]!	; 0xfffffe44
    2190:	73746e65 	cmnvc	r4, #1616	; 0x650
    2194:	7270532f 	rsbsvc	r5, r0, #-1140850688	; 0xbc000000
    2198:	5f676e69 	svcpl	0x00676e69
    219c:	72617551 	rsbvc	r7, r1, #339738624	; 0x14400000
    21a0:	5f726574 	svcpl	0x00726574
    21a4:	32323032 	eorscc	r3, r2, #50, 0	; 0x32
    21a8:	3253432f 	subscc	r4, r3, #-1140850688	; 0xbc000000
    21ac:	584c3034 	stmdapl	ip, {r2, r4, r5, ip, sp}^
    21b0:	7270732d 	rsbsvc	r7, r0, #-1275068416	; 0xb4000000
    21b4:	6c2f3232 	sfmvs	f3, 4, [pc], #-200	; 20f4 <__code_start__-0x5f0c>
    21b8:	69706269 	ldmdbvs	r0!, {r0, r3, r5, r6, r9, sp, lr}^
    21bc:	636e692f 	cmnvs	lr, #770048	; 0xbc000
    21c0:	6564756c 	strbvs	r7, [r4, #-1388]!	; 0xfffffa94
    21c4:	74730000 	ldrbtvc	r0, [r3], #-0
    21c8:	74616372 	strbtvc	r6, [r1], #-882	; 0xfffffc8e
    21cc:	0100632e 	tsteq	r0, lr, lsr #6
    21d0:	70720000 	rsbsvc	r0, r2, r0
    21d4:	00682e69 	rsbeq	r2, r8, r9, ror #28
    21d8:	00000002 	andeq	r0, r0, r2
    21dc:	05002c05 	streq	r2, [r0, #-3077]	; 0xfffff3fb
    21e0:	009b6402 	addseq	r6, fp, r2, lsl #8
    21e4:	05051500 	streq	r1, [r5, #-1280]	; 0xfffffb00
    21e8:	0b051313 	bleq	146e3c <__bss_end__+0x13c45c>
    21ec:	05051106 	streq	r1, [r5, #-262]	; 0xfffffefa
    21f0:	01040200 	mrseq	r0, R12_usr
    21f4:	02003006 	andeq	r3, r0, #6, 0
    21f8:	05150104 	ldreq	r0, [r5, #-260]	; 0xfffffefc
    21fc:	04020009 	streq	r0, [r2], #-9
    2200:	10051301 	andne	r1, r5, r1, lsl #6
    2204:	01040200 	mrseq	r0, R12_usr
    2208:	0b052e06 	bleq	14da28 <__bss_end__+0x143048>
    220c:	01040200 	mrseq	r0, R12_usr
    2210:	0402002e 	streq	r0, [r2], #-46	; 0xffffffd2
    2214:	052f0601 	streq	r0, [pc, #-1537]!	; 1c1b <__code_start__-0x63e5>
    2218:	04020005 	streq	r0, [r2], #-5
    221c:	06010601 	streq	r0, [r1], -r1, lsl #12
    2220:	0608054e 	streq	r0, [r8], -lr, asr #10
    2224:	00050501 	andeq	r0, r5, r1, lsl #10
    2228:	06010402 	streq	r0, [r1], -r2, lsl #8
    222c:	0009052f 	andeq	r0, r9, pc, lsr #10
    2230:	13010402 	movwne	r0, #5122	; 0x1402
    2234:	02000b05 	andeq	r0, r0, #5120	; 0x1400
    2238:	01060104 	tsteq	r6, r4, lsl #2
    223c:	02000905 	andeq	r0, r0, #81920	; 0x14000
    2240:	4b060104 	blmi	182658 <__bss_end__+0x177c78>
    2244:	02000f05 	andeq	r0, r0, #5, 30
    2248:	01060104 	tsteq	r6, r4, lsl #2
    224c:	02000d05 	andeq	r0, r0, #320	; 0x140
    2250:	2f060104 	svccs	0x00060104
    2254:	02000505 	andeq	r0, r0, #20971520	; 0x1400000
    2258:	01060104 	tsteq	r6, r4, lsl #2
    225c:	01000602 	tsteq	r0, r2, lsl #12
    2260:	0000c301 	andeq	ip, r0, r1, lsl #6
    2264:	7f000300 	svcvc	0x00000300
    2268:	02000000 	andeq	r0, r0, #0, 0
    226c:	0d0efb01 	vstreq	d15, [lr, #-4]
    2270:	01010100 	mrseq	r0, (UNDEF: 17)
    2274:	00000001 	andeq	r0, r0, r1
    2278:	01000001 	tsteq	r0, r1
    227c:	696c2f2e 	stmdbvs	ip!, {r1, r2, r3, r5, r8, r9, sl, fp, sp}^
    2280:	2f006362 	svccs	0x00006362
    2284:	72657355 	rsbvc	r7, r5, #1409286145	; 0x54000001
    2288:	72742f73 	rsbsvc	r2, r4, #460	; 0x1cc
    228c:	65747369 	ldrbvs	r7, [r4, #-873]!	; 0xfffffc97
    2290:	6c6f6e6e 	stclvs	14, cr6, [pc], #-440	; 20e0 <__code_start__-0x5f20>
    2294:	6e616d6c 	cdpvs	13, 6, cr6, cr1, cr12, {3}
    2298:	636f442f 	cmnvs	pc, #788529152	; 0x2f000000
    229c:	6e656d75 	mcrvs	13, 3, r6, cr5, cr5, {3}
    22a0:	532f7374 			; <UNDEFINED> instruction: 0x532f7374
    22a4:	6e697270 	mcrvs	2, 3, r7, cr9, cr0, {3}
    22a8:	75515f67 	ldrbvc	r5, [r1, #-3943]	; 0xfffff099
    22ac:	65747261 	ldrbvs	r7, [r4, #-609]!	; 0xfffffd9f
    22b0:	30325f72 	eorscc	r5, r2, r2, ror pc
    22b4:	432f3232 			; <UNDEFINED> instruction: 0x432f3232
    22b8:	30343253 	eorscc	r3, r4, r3, asr r2
    22bc:	732d584c 			; <UNDEFINED> instruction: 0x732d584c
    22c0:	32327270 	eorscc	r7, r2, #112, 4
    22c4:	62696c2f 	rsbvs	r6, r9, #12032	; 0x2f00
    22c8:	692f6970 	stmdbvs	pc!, {r4, r5, r6, r8, fp, sp, lr}	; <UNPREDICTABLE>
    22cc:	756c636e 	strbvc	r6, [ip, #-878]!	; 0xfffffc92
    22d0:	00006564 	andeq	r6, r0, r4, ror #10
    22d4:	63727473 	cmnvs	r2, #1929379840	; 0x73000000
    22d8:	632e706d 			; <UNDEFINED> instruction: 0x632e706d
    22dc:	00000100 	andeq	r0, r0, r0, lsl #2
    22e0:	2e697072 	mcrcs	0, 3, r7, cr9, cr2, {3}
    22e4:	00020068 	andeq	r0, r2, r8, rrx
    22e8:	2a050000 	bcs	1422f0 <__bss_end__+0x137910>
    22ec:	98020500 	stmdals	r2, {r8, sl}
    22f0:	1400009b 	strne	r0, [r0], #-155	; 0xffffff65
    22f4:	05130905 	ldreq	r0, [r3, #-2309]	; 0xfffff6fb
    22f8:	1005010f 	andne	r0, r5, pc, lsl #2
    22fc:	0f050106 	svceq	0x00050106
    2300:	001c052e 	andseq	r0, ip, lr, lsr #10
    2304:	4a010402 	bmi	43314 <__bss_end__+0x38934>
    2308:	02001305 	andeq	r1, r0, #335544320	; 0x14000000
    230c:	052e0104 	streq	r0, [lr, #-260]!	; 0xfffffefc
    2310:	052f0611 	streq	r0, [pc, #-1553]!	; 1d07 <__code_start__-0x62f9>
    2314:	2e2e0616 	mcrcs	6, 1, r0, cr14, cr6, {0}
    2318:	2f060905 	svccs	0x00060905
    231c:	01061505 	tsteq	r6, r5, lsl #10
    2320:	022f0105 	eoreq	r0, pc, #1073741825	; 0x40000001
    2324:	01010004 	tsteq	r1, r4
    2328:	000000c1 	andeq	r0, r0, r1, asr #1
    232c:	007f0003 	rsbseq	r0, pc, r3
    2330:	01020000 	mrseq	r0, (UNDEF: 2)
    2334:	000d0efb 	strdeq	r0, [sp], -fp
    2338:	01010101 	tsteq	r1, r1, lsl #2
    233c:	01000000 	mrseq	r0, (UNDEF: 0)
    2340:	2e010000 	cdpcs	0, 0, cr0, cr1, cr0, {0}
    2344:	62696c2f 	rsbvs	r6, r9, #12032	; 0x2f00
    2348:	552f0063 	strpl	r0, [pc, #-99]!	; 22ed <__code_start__-0x5d13>
    234c:	73726573 	cmnvc	r2, #482344960	; 0x1cc00000
    2350:	6972742f 	ldmdbvs	r2!, {r0, r1, r2, r3, r5, sl, ip, sp, lr}^
    2354:	6e657473 	mcrvs	4, 3, r7, cr5, cr3, {3}
    2358:	6c6c6f6e 	stclvs	15, cr6, [ip], #-440	; 0xfffffe48
    235c:	2f6e616d 	svccs	0x006e616d
    2360:	75636f44 	strbvc	r6, [r3, #-3908]!	; 0xfffff0bc
    2364:	746e656d 	strbtvc	r6, [lr], #-1389	; 0xfffffa93
    2368:	70532f73 	subsvc	r2, r3, r3, ror pc
    236c:	676e6972 			; <UNDEFINED> instruction: 0x676e6972
    2370:	6175515f 	cmnvs	r5, pc, asr r1
    2374:	72657472 	rsbvc	r7, r5, #1912602624	; 0x72000000
    2378:	3230325f 	eorscc	r3, r0, #-268435451	; 0xf0000005
    237c:	53432f32 	movtpl	r2, #16178	; 0x3f32
    2380:	4c303432 	cfldrsmi	mvf3, [r0], #-200	; 0xffffff38
    2384:	70732d58 	rsbsvc	r2, r3, r8, asr sp
    2388:	2f323272 	svccs	0x00323272
    238c:	7062696c 	rsbvc	r6, r2, ip, ror #18
    2390:	6e692f69 	cdpvs	15, 6, cr2, cr9, cr9, {3}
    2394:	64756c63 	ldrbtvs	r6, [r5], #-3171	; 0xfffff39d
    2398:	73000065 	movwvc	r0, #101	; 0x65
    239c:	70637274 	rsbvc	r7, r3, r4, ror r2
    23a0:	00632e79 	rsbeq	r2, r3, r9, ror lr
    23a4:	72000001 	andvc	r0, r0, #1, 0
    23a8:	682e6970 	stmdavs	lr!, {r4, r5, r6, r8, fp, sp, lr}
    23ac:	00000200 	andeq	r0, r0, r0, lsl #4
    23b0:	002a0500 	eoreq	r0, sl, r0, lsl #10
    23b4:	9bc40205 	blls	ff102bd0 <__bss_end__+0xff0f81f0>
    23b8:	05140000 	ldreq	r0, [r4, #-0]
    23bc:	05131305 	ldreq	r1, [r3, #-773]	; 0xfffffcfb
    23c0:	05110614 	ldreq	r0, [r1, #-1556]	; 0xfffff9ec
    23c4:	04020022 	streq	r0, [r2], #-34	; 0xffffffde
    23c8:	052f0601 	streq	r0, [pc, #-1537]!	; 1dcf <__code_start__-0x6231>
    23cc:	0402000b 	streq	r0, [r2], #-11
    23d0:	15050101 	strne	r0, [r5, #-257]	; 0xfffffeff
    23d4:	01040200 	mrseq	r0, R12_usr
    23d8:	13050106 	movwne	r0, #20742	; 0x5106
    23dc:	01040200 	mrseq	r0, R12_usr
    23e0:	000b054a 	andeq	r0, fp, sl, asr #10
    23e4:	4a010402 	bmi	433f4 <__bss_end__+0x38a14>
    23e8:	01000602 	tsteq	r0, r2, lsl #12
    23ec:	00012101 	andeq	r2, r1, r1, lsl #2
    23f0:	e5000300 	str	r0, [r0, #-768]	; 0xfffffd00
    23f4:	02000000 	andeq	r0, r0, #0, 0
    23f8:	0d0efb01 	vstreq	d15, [lr, #-4]
    23fc:	01010100 	mrseq	r0, (UNDEF: 17)
    2400:	00000001 	andeq	r0, r0, r1
    2404:	01000001 	tsteq	r0, r1
    2408:	696c2f2e 	stmdbvs	ip!, {r1, r2, r3, r5, r8, r9, sl, fp, sp}^
    240c:	2f006362 	svccs	0x00006362
    2410:	72657355 	rsbvc	r7, r5, #1409286145	; 0x54000001
    2414:	72742f73 	rsbsvc	r2, r4, #460	; 0x1cc
    2418:	65747369 	ldrbvs	r7, [r4, #-873]!	; 0xfffffc97
    241c:	6c6f6e6e 	stclvs	14, cr6, [pc], #-440	; 226c <__code_start__-0x5d94>
    2420:	6e616d6c 	cdpvs	13, 6, cr6, cr1, cr12, {3}
    2424:	636f442f 	cmnvs	pc, #788529152	; 0x2f000000
    2428:	6e656d75 	mcrvs	13, 3, r6, cr5, cr5, {3}
    242c:	532f7374 			; <UNDEFINED> instruction: 0x532f7374
    2430:	6e697270 	mcrvs	2, 3, r7, cr9, cr0, {3}
    2434:	75515f67 	ldrbvc	r5, [r1, #-3943]	; 0xfffff099
    2438:	65747261 	ldrbvs	r7, [r4, #-609]!	; 0xfffffd9f
    243c:	30325f72 	eorscc	r5, r2, r2, ror pc
    2440:	432f3232 			; <UNDEFINED> instruction: 0x432f3232
    2444:	30343253 	eorscc	r3, r4, r3, asr r2
    2448:	732d584c 			; <UNDEFINED> instruction: 0x732d584c
    244c:	32327270 	eorscc	r7, r2, #112, 4
    2450:	62696c2f 	rsbvs	r6, r9, #12032	; 0x2f00
    2454:	692f6970 	stmdbvs	pc!, {r4, r5, r6, r8, fp, sp, lr}	; <UNPREDICTABLE>
    2458:	756c636e 	strbvc	r6, [ip, #-878]!	; 0xfffffc92
    245c:	2f006564 	svccs	0x00006564
    2460:	2f727375 	svccs	0x00727375
    2464:	61636f6c 	cmnvs	r3, ip, ror #30
    2468:	65432f6c 	strbvs	r2, [r3, #-3948]	; 0xfffff094
    246c:	72616c6c 	rsbvc	r6, r1, #108, 24	; 0x6c00
    2470:	6d72612f 	ldfvse	f6, [r2, #-188]!	; 0xffffff44
    2474:	6e6f6e2d 	cdpvs	14, 6, cr6, cr15, cr13, {1}
    2478:	61652d65 	cmnvs	r5, r5, ror #26
    247c:	742d6962 	strtvc	r6, [sp], #-2402	; 0xfffff69e
    2480:	2f747365 	svccs	0x00747365
    2484:	30322d39 	eorscc	r2, r2, r9, lsr sp
    2488:	34713931 	ldrbtcc	r3, [r1], #-2353	; 0xfffff6cf
    248c:	3173632d 	cmncc	r3, sp, lsr #6
    2490:	2f653730 	svccs	0x00653730
    2494:	2f62696c 	svccs	0x0062696c
    2498:	2f636367 	svccs	0x00636367
    249c:	2d6d7261 	sfmcs	f7, 2, [sp, #-388]!	; 0xfffffe7c
    24a0:	656e6f6e 	strbvs	r6, [lr, #-3950]!	; 0xfffff092
    24a4:	6261652d 	rsbvs	r6, r1, #188743680	; 0xb400000
    24a8:	2e392f69 	cdpcs	15, 3, cr2, cr9, cr9, {3}
    24ac:	2f312e32 	svccs	0x00312e32
    24b0:	6c636e69 	stclvs	14, cr6, [r3], #-420	; 0xfffffe5c
    24b4:	00656475 	rsbeq	r6, r5, r5, ror r4
    24b8:	72747300 	rsbsvc	r7, r4, #0, 6
    24bc:	706d636e 	rsbvc	r6, sp, lr, ror #6
    24c0:	0100632e 	tsteq	r0, lr, lsr #6
    24c4:	70720000 	rsbsvc	r0, r2, r0
    24c8:	00682e69 	rsbeq	r2, r8, r9, ror #28
    24cc:	73000002 	movwvc	r0, #2
    24d0:	65646474 	strbvs	r6, [r4, #-1140]!	; 0xfffffb8c
    24d4:	00682e66 	rsbeq	r2, r8, r6, ror #28
    24d8:	00000003 	andeq	r0, r0, r3
    24dc:	05003905 	streq	r3, [r0, #-2309]	; 0xfffff6fb
    24e0:	009be402 	addseq	lr, fp, r2, lsl #8
    24e4:	05051500 	streq	r1, [r5, #-1280]	; 0xfffffb00
    24e8:	0a051313 	beq	14713c <__bss_end__+0x13c75c>
    24ec:	4a010601 	bmi	43cf8 <__bss_end__+0x39318>
    24f0:	2f060905 	svccs	0x00060905
    24f4:	01060c05 	tsteq	r6, r5, lsl #24
    24f8:	052e1305 	streq	r1, [lr, #-773]!	; 0xfffffcfb
    24fc:	0d052e0b 	stceq	14, cr2, [r5, #-44]	; 0xffffffd4
    2500:	1b054b06 	blne	155120 <__bss_end__+0x14a740>
    2504:	052e0106 	streq	r0, [lr, #-262]!	; 0xfffffefa
    2508:	0105300c 	tsteq	r5, ip
    250c:	0002022f 	andeq	r0, r2, pc, lsr #4
    2510:	00b00101 	adcseq	r0, r0, r1, lsl #2
    2514:	00030000 	andeq	r0, r3, r0
    2518:	00000094 	muleq	r0, r4, r0
    251c:	0efb0102 	cdpeq	1, 15, cr0, cr11, cr2, {0}
    2520:	0101000d 	tsteq	r1, sp
    2524:	00000101 	andeq	r0, r0, r1, lsl #2
    2528:	00000100 	andeq	r0, r0, r0, lsl #2
    252c:	732f2e01 			; <UNDEFINED> instruction: 0x732f2e01
    2530:	66666174 			; <UNDEFINED> instruction: 0x66666174
    2534:	6372732d 	cmnvs	r2, #-1275068416	; 0xb4000000
    2538:	73552f00 	cmpvc	r5, #0, 30
    253c:	2f737265 	svccs	0x00737265
    2540:	73697274 	cmnvc	r9, #116, 4	; 0x40000007
    2544:	6e6e6574 	mcrvs	5, 3, r6, cr14, cr4, {3}
    2548:	6d6c6c6f 	stclvs	12, cr6, [ip, #-444]!	; 0xfffffe44
    254c:	442f6e61 	strtmi	r6, [pc], #-3681	; 2554 <__code_start__-0x5aac>
    2550:	6d75636f 	ldclvs	3, cr6, [r5, #-444]!	; 0xfffffe44
    2554:	73746e65 	cmnvc	r4, #1616	; 0x650
    2558:	7270532f 	rsbsvc	r5, r0, #-1140850688	; 0xbc000000
    255c:	5f676e69 	svcpl	0x00676e69
    2560:	72617551 	rsbvc	r7, r1, #339738624	; 0x14400000
    2564:	5f726574 	svcpl	0x00726574
    2568:	32323032 	eorscc	r3, r2, #50, 0	; 0x32
    256c:	3253432f 	subscc	r4, r3, #-1140850688	; 0xbc000000
    2570:	584c3034 	stmdapl	ip, {r2, r4, r5, ip, sp}^
    2574:	7270732d 	rsbsvc	r7, r0, #-1275068416	; 0xb4000000
    2578:	6c2f3232 	sfmvs	f3, 4, [pc], #-200	; 24b8 <__code_start__-0x5b48>
    257c:	69706269 	ldmdbvs	r0!, {r0, r3, r5, r6, r9, sp, lr}^
    2580:	636e692f 	cmnvs	lr, #770048	; 0xbc000
    2584:	6564756c 	strbvs	r7, [r4, #-1388]!	; 0xfffffa94
    2588:	65640000 	strbvs	r0, [r4, #-0]!
    258c:	6c756166 	ldfvse	f6, [r5], #-408	; 0xfffffe68
    2590:	65722d74 	ldrbvs	r2, [r2, #-3444]!	; 0xfffff28c
    2594:	746f6f62 	strbtvc	r6, [pc], #-3938	; 259c <__code_start__-0x5a64>
    2598:	6c61632d 	stclvs	3, cr6, [r1], #-180	; 0xffffff4c
    259c:	74756f6c 	ldrbtvc	r6, [r5], #-3948	; 0xfffff094
    25a0:	0100632e 	tsteq	r0, lr, lsr #6
    25a4:	70720000 	rsbsvc	r0, r2, r0
    25a8:	00682e69 	rsbeq	r2, r8, r9, ror #28
    25ac:	00000002 	andeq	r0, r0, r2
    25b0:	05001b05 	streq	r1, [r0, #-2821]	; 0xfffff4fb
    25b4:	009c1002 	addseq	r1, ip, r2
    25b8:	1c051400 	cfstrsne	mvf1, [r5], {-0}
    25bc:	06010501 	streq	r0, [r1], -r1, lsl #10
    25c0:	00020201 	andeq	r0, r2, r1, lsl #4
    25c4:	01bb0101 			; <UNDEFINED> instruction: 0x01bb0101
    25c8:	00030000 	andeq	r0, r3, r0
    25cc:	000000bf 	strheq	r0, [r0], -pc	; <UNPREDICTABLE>
    25d0:	0efb0102 	cdpeq	1, 15, cr0, cr11, cr2, {0}
    25d4:	0101000d 	tsteq	r1, sp
    25d8:	00000101 	andeq	r0, r0, r1, lsl #2
    25dc:	00000100 	andeq	r0, r0, r0, lsl #2
    25e0:	6f682f01 	svcvs	0x00682f01
    25e4:	652f656d 	strvs	r6, [pc, #-1389]!	; 207f <__code_start__-0x5f81>
    25e8:	656c676e 	strbvs	r6, [ip, #-1902]!	; 0xfffff892
    25ec:	6c632f72 	stclvs	15, cr2, [r3], #-456	; 0xfffffe38
    25f0:	2f737361 	svccs	0x00737361
    25f4:	34327363 	ldrtcc	r7, [r2], #-867	; 0xfffffc9d
    25f8:	2d786c30 	ldclcs	12, cr6, [r8, #-192]!	; 0xffffff40
    25fc:	70733232 	rsbsvc	r3, r3, r2, lsr r2
    2600:	6c2f2f72 	stcvs	15, cr2, [pc], #-456	; 2440 <__code_start__-0x5bc0>
    2604:	69706269 	ldmdbvs	r0!, {r0, r3, r5, r6, r9, sp, lr}^
    2608:	636e692f 	cmnvs	lr, #770048	; 0xbc000
    260c:	6564756c 	strbvs	r7, [r4, #-1388]!	; 0xfffffa94
    2610:	73752f00 	cmnvc	r5, #0, 30
    2614:	68732f72 	ldmdavs	r3!, {r1, r4, r5, r6, r8, r9, sl, fp, sp}^
    2618:	2f657261 	svccs	0x00657261
    261c:	2d636367 	stclcs	3, cr6, [r3, #-412]!	; 0xfffffe64
    2620:	2d6d7261 	sfmcs	f7, 2, [sp, #-388]!	; 0xfffffe7c
    2624:	656e6f6e 	strbvs	r6, [lr, #-3950]!	; 0xfffff092
    2628:	6261652d 	rsbvs	r6, r1, #188743680	; 0xb400000
    262c:	30312d69 	eorscc	r2, r1, r9, ror #26
    2630:	322d332e 	eorcc	r3, sp, #-1207959552	; 0xb8000000
    2634:	2e313230 	mrccs	2, 1, r3, cr1, cr0, {1}
    2638:	6c2f3031 	stcvs	0, cr3, [pc], #-196	; 257c <__code_start__-0x5a84>
    263c:	672f6269 	strvs	r6, [pc, -r9, ror #4]!
    2640:	612f6363 			; <UNDEFINED> instruction: 0x612f6363
    2644:	6e2d6d72 	mcrvs	13, 1, r6, cr13, cr2, {3}
    2648:	2d656e6f 	stclcs	14, cr6, [r5, #-444]!	; 0xfffffe44
    264c:	69626165 	stmdbvs	r2!, {r0, r2, r5, r6, r8, sp, lr}^
    2650:	2e30312f 	rsfcssp	f3, f0, #10.0
    2654:	2f312e33 	svccs	0x00312e33
    2658:	6c636e69 	stclvs	14, cr6, [r3], #-420	; 0xfffffe5c
    265c:	00656475 	rsbeq	r6, r5, r5, ror r4
    2660:	69706700 	ldmdbvs	r0!, {r8, r9, sl, sp, lr}^
    2664:	00632e6f 	rsbeq	r2, r3, pc, ror #28
    2668:	72000000 	andvc	r0, r0, #0, 0
    266c:	682e6970 	stmdavs	lr!, {r4, r5, r6, r8, fp, sp, lr}
    2670:	00000100 	andeq	r0, r0, r0, lsl #2
    2674:	69647473 	stmdbvs	r4!, {r0, r1, r4, r5, r6, sl, ip, sp, lr}^
    2678:	672d746e 	strvs	r7, [sp, -lr, ror #8]!
    267c:	682e6363 	stmdavs	lr!, {r0, r1, r5, r6, r8, r9, sp, lr}
    2680:	00000200 	andeq	r0, r0, r0, lsl #4
    2684:	6f697067 	svcvs	0x00697067
    2688:	0100682e 	tsteq	r0, lr, lsr #16
    268c:	05000000 	streq	r0, [r0, #-0]
    2690:	02050038 	andeq	r0, r5, #56, 0	; 0x38
    2694:	00009c2c 	andeq	r9, r0, ip, lsr #24
    2698:	05012703 	streq	r2, [r1, #-1795]	; 0xfffff8fd
    269c:	07051305 	streq	r1, [r5, -r5, lsl #6]
    26a0:	38050106 	stmdacc	r5, {r1, r2, r8}
    26a4:	06050549 	streq	r0, [r5], -r9, asr #10
    26a8:	0607054d 	streq	r0, [r7], -sp, asr #10
    26ac:	06050501 	streq	r0, [r5], -r1, lsl #10
    26b0:	0618054c 	ldreq	r0, [r8], -ip, asr #10
    26b4:	ba0e0501 	blt	383ac0 <__bss_end__+0x3790e0>
    26b8:	2f060505 	svccs	0x00060505
    26bc:	01061c05 	tsteq	r6, r5, lsl #24
    26c0:	2e0e052e 	cfsh32cs	mvfx0, mvfx14, #30
    26c4:	30060505 	andcc	r0, r6, r5, lsl #10
    26c8:	01061205 	tsteq	r6, r5, lsl #4
    26cc:	4b060505 	blmi	183ae8 <__bss_end__+0x179108>
    26d0:	01060705 	tsteq	r6, r5, lsl #14
    26d4:	4b060505 	blmi	183af0 <__bss_end__+0x179110>
    26d8:	052e0613 	streq	r0, [lr, #-1555]!	; 0xfffff9ed
    26dc:	24054b01 	strcs	r4, [r5], #-2817	; 0xfffff4ff
    26e0:	01064c06 	tsteq	r6, r6, lsl #24
    26e4:	2f060505 	svccs	0x00060505
    26e8:	4b060105 	blmi	182b04 <__bss_end__+0x178124>
    26ec:	31062005 	tstcc	r6, r5
    26f0:	05130505 	ldreq	r0, [r3, #-1285]	; 0xfffffafb
    26f4:	05010607 	streq	r0, [r1, #-1543]	; 0xfffff9f9
    26f8:	05054920 	streq	r4, [r5, #-2336]	; 0xfffff6e0
    26fc:	66063106 	strvs	r3, [r6], -r6, lsl #2
    2700:	052f0105 	streq	r0, [pc, #-261]!	; 2603 <__code_start__-0x59fd>
    2704:	054d0621 	strbeq	r0, [sp, #-1569]	; 0xfffff9df
    2708:	07051305 	streq	r1, [r5, -r5, lsl #6]
    270c:	21050106 	tstcs	r5, r6, lsl #2
    2710:	06050549 	streq	r0, [r5], -r9, asr #10
    2714:	05660631 	strbeq	r0, [r6, #-1585]!	; 0xfffff9cf
    2718:	23052f01 	movwcs	r2, #24321	; 0x5f01
    271c:	01064d06 	tsteq	r6, r6, lsl #26
    2720:	2f060505 	svccs	0x00060505
    2724:	4b060105 	blmi	182b40 <__bss_end__+0x178160>
    2728:	31062b05 	tstcc	r6, r5, lsl #22
    272c:	05050106 	streq	r0, [r5, #-262]	; 0xfffffefa
    2730:	07052f06 	streq	r2, [r5, -r6, lsl #30]
    2734:	09050106 	stmdbeq	r5, {r1, r2, r8}
    2738:	2e064b06 	vmlacs.f64	d4, d6, d6
    273c:	01053006 	tsteq	r5, r6
    2740:	1d052f06 	stcne	15, cr2, [r5, #-24]	; 0xffffffe8
    2744:	05053006 	streq	r3, [r5, #-6]
    2748:	06070513 			; <UNDEFINED> instruction: 0x06070513
    274c:	491d0501 	ldmdbmi	sp, {r0, r8, sl}
    2750:	31060505 	tstcc	r6, r5, lsl #10
    2754:	060e0513 			; <UNDEFINED> instruction: 0x060e0513
    2758:	06050501 	streq	r0, [r5], -r1, lsl #10
    275c:	0617052f 	ldreq	r0, [r7], -pc, lsr #10
    2760:	23054a01 	movwcs	r4, #23041	; 0x5a01
    2764:	0502042e 	streq	r0, [r2, #-1070]	; 0xfffffbd2
    2768:	dc030630 	stcle	6, cr0, [r3], {48}	; 0x30
    276c:	01042e00 	tsteq	r4, r0, lsl #28
    2770:	03060c05 	movweq	r0, #27653	; 0x6c05
    2774:	05017fa4 	streq	r7, [r1, #-4004]	; 0xfffff05c
    2778:	10052f01 	andne	r2, r5, r1, lsl #30
    277c:	3201052a 	andcc	r0, r1, #176160768	; 0xa800000
    2780:	01000402 	tsteq	r0, r2, lsl #8
    2784:	Address 0x0000000000002784 is out of bounds.


Disassembly of section .debug_str:

00000000 <.debug_str>:
   0:	5f726468 	svcpl	0x00726468
   4:	656e0074 	strbvs	r0, [lr, #-116]!	; 0xffffff8c
   8:	63007478 	movwvs	r7, #1144	; 0x478
   c:	6c6c616b 	stfvse	f6, [ip], #-428	; 0xfffffe54
  10:	7300636f 	movwvc	r6, #879	; 0x36f
  14:	65746174 	ldrbvs	r6, [r4, #-372]!	; 0xfffffe8c
  18:	6e696c00 	cdpvs	12, 6, cr6, cr9, cr0, {0}
  1c:	006f6e65 	rsbeq	r6, pc, r5, ror #28
  20:	6b72616d 	blvs	1c985dc <__bss_end__+0x1c8dbfc>
  24:	746f6e00 	strbtvc	r6, [pc], #-3584	; 2c <__code_start__-0x7fd4>
  28:	6e69616d 	powvsez	f6, f1, #5.0
  2c:	65686300 	strbvs	r6, [r8, #-768]!	; 0xfffffd00
  30:	6e5f6b63 	vnmlavs.f64	d22, d15, d19
  34:	656c5f6f 	strbvs	r5, [ip, #-3951]!	; 0xfffff091
  38:	6e006b61 	vmlsvs.f64	d6, d0, d17
  3c:	65747962 	ldrbvs	r7, [r4, #-2402]!	; 0xfffff69e
  40:	6c615f73 	stclvs	15, cr5, [r1], #-460	; 0xfffffe34
  44:	00636f6c 	rsbeq	r6, r3, ip, ror #30
  48:	656c6966 	strbvs	r6, [ip, #-2406]!	; 0xfffff69a
  4c:	736e7500 	cmnvc	lr, #0, 10
  50:	656e6769 	strbvs	r6, [lr, #-1897]!	; 0xfffff897
  54:	68632064 	stmdavs	r3!, {r2, r5, r6, sp}^
  58:	73007261 	movwvc	r7, #609	; 0x261
  5c:	74726f68 	ldrbtvc	r6, [r2], #-3944	; 0xfffff098
  60:	736e7520 	cmnvc	lr, #32, 10	; 0x8000000
  64:	656e6769 	strbvs	r6, [lr, #-1897]!	; 0xfffff897
  68:	6e692064 	cdpvs	0, 6, cr2, cr9, cr4, {3}
  6c:	6b630074 	blvs	18c0244 <__bss_end__+0x18b5864>
  70:	7264685f 	rsbvc	r6, r4, #6225920	; 0x5f0000
  74:	63727300 	cmnvs	r2, #0, 6
  78:	636f6c5f 	cmnvs	pc, #24320	; 0x5f00
  7c:	006b6d5f 	rsbeq	r6, fp, pc, asr sp
  80:	736d656d 	cmnvc	sp, #457179136	; 0x1b400000
  84:	66007465 	strvs	r7, [r0], -r5, ror #8
  88:	00636e75 	rsbeq	r6, r3, r5, ror lr
  8c:	55465f5f 	strbpl	r5, [r6, #-3935]	; 0xfffff0a1
  90:	4954434e 	ldmdbmi	r4, {r1, r2, r3, r6, r8, r9, lr}^
  94:	5f5f4e4f 	svcpl	0x005f4e4f
  98:	6c6c6100 	stfvse	f6, [ip], #-0
  9c:	6c5f636f 	mrrcvs	3, 6, r6, pc, cr15	; <UNPREDICTABLE>
  a0:	00747369 	rsbseq	r7, r4, r9, ror #6
  a4:	7473616c 	ldrbtvc	r6, [r3], #-364	; 0xfffffe94
  a8:	646f6e5f 	strbtvs	r6, [pc], #-3679	; b0 <__code_start__-0x7f50>
  ac:	65740065 	ldrbvs	r0, [r4, #-101]!	; 0xffffff9b
  b0:	6c007473 	cfstrsvs	mvf7, [r0], {115}	; 0x73
  b4:	20676e6f 	rsbcs	r6, r7, pc, ror #28
  b8:	676e6f6c 	strbvs	r6, [lr, -ip, ror #30]!
  bc:	736e7520 	cmnvc	lr, #32, 10	; 0x8000000
  c0:	656e6769 	strbvs	r6, [lr, #-1897]!	; 0xfffff897
  c4:	6e692064 	cdpvs	0, 6, cr2, cr9, cr4, {3}
  c8:	6c610074 	stclvs	0, cr0, [r1], #-464	; 0xfffffe30
  cc:	5f636f6c 	svcpl	0x00636f6c
  d0:	00636f6c 	rsbeq	r6, r3, ip, ror #30
  d4:	626f6c67 	rsbvs	r6, pc, #26368	; 0x6700
  d8:	705f6c61 	subsvc	r6, pc, r1, ror #24
  dc:	61656c00 	cmnvs	r5, r0, lsl #24
  e0:	0064656b 	rsbeq	r6, r4, fp, ror #10
  e4:	6573552f 	ldrbvs	r5, [r3, #-1327]!	; 0xfffffad1
  e8:	742f7372 	strtvc	r7, [pc], #-882	; f0 <__code_start__-0x7f10>
  ec:	74736972 	ldrbtvc	r6, [r3], #-2418	; 0xfffff68e
  f0:	6f6e6e65 	svcvs	0x006e6e65
  f4:	616d6c6c 	cmnvs	sp, ip, ror #24
  f8:	6f442f6e 	svcvs	0x00442f6e
  fc:	656d7563 	strbvs	r7, [sp, #-1379]!	; 0xfffffa9d
 100:	2f73746e 	svccs	0x0073746e
 104:	69727053 	ldmdbvs	r2!, {r0, r1, r4, r6, ip, sp, lr}^
 108:	515f676e 	cmppl	pc, lr, ror #14
 10c:	74726175 	ldrbtvc	r6, [r2], #-373	; 0xfffffe8b
 110:	325f7265 	subscc	r7, pc, #1342177286	; 0x50000006
 114:	2f323230 	svccs	0x00323230
 118:	34325343 	ldrtcc	r5, [r2], #-835	; 0xfffffcbd
 11c:	2d584c30 	ldclcs	12, cr4, [r8, #-192]	; 0xffffff40
 120:	32727073 	rsbscc	r7, r2, #115, 0	; 0x73
 124:	616c2f32 	cmnvs	ip, r2, lsr pc
 128:	352f7362 	strcc	r7, [pc, #-866]!	; fffffdce <__bss_end__+0xffff53ee>
 12c:	6c616d2d 	stclvs	13, cr6, [r1], #-180	; 0xffffff4c
 130:	2b636f6c 	blcs	18dbee8 <__bss_end__+0x18d1508>
 134:	632f6367 			; <UNDEFINED> instruction: 0x632f6367
 138:	0065646f 	rsbeq	r6, r5, pc, ror #8
 13c:	676e6f6c 	strbvs	r6, [lr, -ip, ror #30]!
 140:	6e6f6c20 	cdpvs	12, 6, cr6, cr15, cr0, {1}
 144:	6e692067 	cdpvs	0, 6, cr2, cr9, cr7, {3}
 148:	70720074 	rsbsvc	r0, r2, r4, ror r0
 14c:	75705f69 	ldrbvc	r5, [r0, #-3945]!	; 0xfffff097
 150:	61686374 	smcvs	34356	; 0x8634
 154:	68730072 	ldmdavs	r3!, {r1, r4, r5, r6}^
 158:	2074726f 	rsbscs	r7, r4, pc, ror #4
 15c:	00746e69 	rsbseq	r6, r4, r9, ror #28
 160:	5f637273 	svcpl	0x00637273
 164:	5f636f6c 	svcpl	0x00636f6c
 168:	69750074 	ldmdbvs	r5!, {r2, r4, r5, r6}^
 16c:	3631746e 	ldrtcc	r7, [r1], -lr, ror #8
 170:	7500745f 	strvc	r7, [r0, #-1119]	; 0xfffffba1
 174:	33746e69 	cmncc	r4, #1680	; 0x690
 178:	00745f32 	rsbseq	r5, r4, r2, lsr pc
 17c:	74736574 	ldrbtvc	r6, [r3], #-1396	; 0xfffffa8c
 180:	61702f73 	cmnvs	r0, r3, ror pc
 184:	2d327472 	cfldrscs	mvf7, [r2, #-456]!	; 0xfffffe38
 188:	74736574 	ldrbtvc	r6, [r3], #-1396	; 0xfffffa8c
 18c:	00632e32 	rsbeq	r2, r3, r2, lsr lr
 190:	20554e47 	subscs	r4, r5, r7, asr #28
 194:	20393943 	eorscs	r3, r9, r3, asr #18
 198:	2e322e39 	mrccs	14, 1, r2, cr2, cr9, {1}
 19c:	30322031 	eorscc	r2, r2, r1, lsr r0
 1a0:	30313931 	eorscc	r3, r1, r1, lsr r9
 1a4:	28203532 	stmdacs	r0!, {r1, r4, r5, r8, sl, ip, sp}
 1a8:	656c6572 	strbvs	r6, [ip, #-1394]!	; 0xfffffa8e
 1ac:	29657361 	stmdbcs	r5!, {r0, r5, r6, r8, r9, ip, sp, lr}^
 1b0:	52415b20 	subpl	r5, r1, #32, 22	; 0x8000
 1b4:	72612f4d 	rsbvc	r2, r1, #308	; 0x134
 1b8:	2d392d6d 	ldccs	13, cr2, [r9, #-436]!	; 0xfffffe4c
 1bc:	6e617262 	cdpvs	2, 6, cr7, cr1, cr2, {3}
 1c0:	72206863 	eorvc	r6, r0, #6488064	; 0x630000
 1c4:	73697665 	cmnvc	r9, #105906176	; 0x6500000
 1c8:	206e6f69 	rsbcs	r6, lr, r9, ror #30
 1cc:	35373732 	ldrcc	r3, [r7, #-1842]!	; 0xfffff8ce
 1d0:	205d3939 	subscs	r3, sp, r9, lsr r9
 1d4:	70636d2d 	rsbvc	r6, r3, sp, lsr #26
 1d8:	72613d75 	rsbvc	r3, r1, #7488	; 0x1d40
 1dc:	3731316d 	ldrcc	r3, [r1, -sp, ror #2]!
 1e0:	667a6a36 			; <UNDEFINED> instruction: 0x667a6a36
 1e4:	2d20732d 	stccs	3, cr7, [r0, #-180]!	; 0xffffff4c
 1e8:	6e75746d 	cdpvs	4, 7, cr7, cr5, cr13, {3}
 1ec:	72613d65 	rsbvc	r3, r1, #6464	; 0x1940
 1f0:	3731316d 	ldrcc	r3, [r1, -sp, ror #2]!
 1f4:	667a6a36 			; <UNDEFINED> instruction: 0x667a6a36
 1f8:	2d20732d 	stccs	3, cr7, [r0, #-180]!	; 0xffffff4c
 1fc:	6f6c666d 	svcvs	0x006c666d
 200:	612d7461 			; <UNDEFINED> instruction: 0x612d7461
 204:	733d6962 	teqvc	sp, #1605632	; 0x188000
 208:	2074666f 	rsbscs	r6, r4, pc, ror #12
 20c:	72616d2d 	rsbvc	r6, r1, #2880	; 0xb40
 210:	6d2d206d 	stcvs	0, cr2, [sp, #-436]!	; 0xfffffe4c
 214:	68637261 	stmdavs	r3!, {r0, r5, r6, r9, ip, sp, lr}^
 218:	6d72613d 	ldfvse	f6, [r2, #-244]!	; 0xffffff0c
 21c:	7a6b3676 	bvc	1acdbfc <__bss_end__+0x1ac321c>
 220:	67672d20 	strbvs	r2, [r7, -r0, lsr #26]!
 224:	2d206264 	sfmcs	f6, 4, [r0, #-400]!	; 0xfffffe70
 228:	2d20674f 	stccs	7, cr6, [r0, #-316]!	; 0xfffffec4
 22c:	3d647473 	cfstrdcc	mvd7, [r4, #-460]!	; 0xfffffe34
 230:	39756e67 	ldmdbcc	r5!, {r0, r1, r2, r5, r6, r9, sl, fp, sp, lr}^
 234:	662d2039 			; <UNDEFINED> instruction: 0x662d2039
 238:	65657266 	strbvs	r7, [r5, #-614]!	; 0xfffffd9a
 23c:	6e617473 	mcrvs	4, 3, r7, cr1, cr3, {3}
 240:	676e6964 	strbvs	r6, [lr, -r4, ror #18]!
 244:	645f5f00 	ldrbvs	r5, [pc], #-3840	; 24c <__code_start__-0x7db4>
 248:	5f617461 	svcpl	0x00617461
 24c:	72617473 	rsbvc	r7, r1, #1929379840	; 0x73000000
 250:	005f5f74 	subseq	r5, pc, r4, ror pc	; <UNPREDICTABLE>
 254:	73666572 	cmnvc	r6, #478150656	; 0x1c800000
 258:	6174735f 	cmnvs	r4, pc, asr r3
 25c:	5f007472 	svcpl	0x00007472
 260:	7461645f 	strbtvc	r6, [r1], #-1119	; 0xfffffba1
 264:	6e655f61 	cdpvs	15, 6, cr5, cr5, cr1, {3}
 268:	005f5f64 	subseq	r5, pc, r4, ror #30
 26c:	73666572 	cmnvc	r6, #478150656	; 0x1c800000
 270:	64696d5f 	strbtvs	r6, [r9], #-3423	; 0xfffff2a1
 274:	00656c64 	rsbeq	r6, r5, r4, ror #24
 278:	705f6b63 	subsvc	r6, pc, r3, ror #22
 27c:	695f7274 	ldmdbvs	pc, {r2, r4, r5, r6, r9, ip, sp, lr}^	; <UNPREDICTABLE>
 280:	6c625f6e 	stclvs	15, cr5, [r2], #-440	; 0xfffffe48
 284:	006b636f 	rsbeq	r6, fp, pc, ror #6
 288:	76657270 			; <UNDEFINED> instruction: 0x76657270
 28c:	73616c5f 	cmnvc	r1, #24320	; 0x5f00
 290:	52460074 	subpl	r0, r6, #116, 0	; 0x74
 294:	00444545 	subeq	r4, r4, r5, asr #10
 298:	7473696c 	ldrbtvc	r6, [r3], #-2412	; 0xfffff694
 29c:	7070615f 	rsbsvc	r6, r0, pc, asr r1
 2a0:	00646e65 	rsbeq	r6, r4, r5, ror #28
 2a4:	665f726b 	ldrbvs	r7, [pc], -fp, ror #4
 2a8:	00656572 	rsbeq	r6, r5, r2, ror r5
 2ac:	665f6b63 	ldrbvs	r6, [pc], -r3, ror #22
 2b0:	74737269 	ldrbtvc	r7, [r3], #-617	; 0xfffffd97
 2b4:	7264685f 	rsbvc	r6, r4, #6225920	; 0x5f0000
 2b8:	666b6300 	strbtvs	r6, [fp], -r0, lsl #6
 2bc:	00656572 	rsbeq	r6, r5, r2, ror r5
 2c0:	7473696c 	ldrbtvc	r6, [r3], #-2412	; 0xfffff694
 2c4:	6d65725f 	sfmvs	f7, 2, [r5, #-380]!	; 0xfffffe84
 2c8:	0065766f 	rsbeq	r7, r5, pc, ror #12
 2cc:	61656c63 	cmnvs	r5, r3, ror #24
 2d0:	65725f6e 	ldrbvs	r5, [r2, #-3950]!	; 0xfffff092
 2d4:	746f6f62 	strbtvc	r6, [pc], #-3938	; 2dc <__code_start__-0x7d24>
 2d8:	5f6b6300 	svcpl	0x006b6300
 2dc:	5f727470 	svcpl	0x00727470
 2e0:	615f7369 	cmpvs	pc, r9, ror #6
 2e4:	636f6c6c 	cmnvs	pc, #108, 24	; 0x6c00
 2e8:	63006465 	movwvs	r6, #1125	; 0x465
 2ec:	656e5f6b 	strbvs	r5, [lr, #-3947]!	; 0xfffff095
 2f0:	685f7478 	ldmdavs	pc, {r3, r4, r5, r6, sl, ip, sp, lr}^	; <UNPREDICTABLE>
 2f4:	63007264 	movwvs	r7, #612	; 0x264
 2f8:	6c6c616b 	stfvse	f6, [ip], #-428	; 0xfffffe54
 2fc:	632e636f 			; <UNDEFINED> instruction: 0x632e636f
 300:	5f726b00 	svcpl	0x00726b00
 304:	7478656e 	ldrbtvc	r6, [r8], #-1390	; 0xfffffa92
 308:	7264685f 	rsbvc	r6, r4, #6225920	; 0x5f0000
 30c:	5f726b00 	svcpl	0x00726b00
 310:	73726966 	cmnvc	r2, #1671168	; 0x198000
 314:	64685f74 	strbtvs	r5, [r8], #-3956	; 0xfffff08c
 318:	4c410072 	mcrrmi	0, 7, r0, r1, cr2
 31c:	45434f4c 	strbmi	r4, [r3, #-3916]	; 0xfffff0b4
 320:	6b630044 	blvs	18c0438 <__bss_end__+0x18b5a58>
 324:	7264685f 	rsbvc	r6, r4, #6225920	; 0x5f0000
 328:	6174735f 	cmnvs	r4, pc, asr r3
 32c:	63007472 	movwvs	r7, #1138	; 0x472
 330:	64685f6b 	strbtvs	r5, [r8], #-3947	; 0xfffff095
 334:	6e655f72 	mcrvs	15, 3, r5, cr5, cr2, {3}
 338:	72700064 	rsbsvc	r0, r0, #100, 0	; 0x64
 33c:	63007665 	movwvs	r7, #1637	; 0x665
 340:	626e5f6b 	rsbvs	r5, lr, #428	; 0x1ac
 344:	73657479 	cmnvc	r5, #2030043136	; 0x79000000
 348:	5f726b00 	svcpl	0x00726b00
 34c:	6c6c616d 	stfvse	f6, [ip], #-436	; 0xfffffe4c
 350:	7300636f 	movwvc	r6, #879	; 0x36f
 354:	6b636174 	blvs	18d892c <__bss_end__+0x18cdf4c>
 358:	706f745f 	rsbvc	r7, pc, pc, asr r4	; <UNPREDICTABLE>
 35c:	6f6c6200 	svcvs	0x006c6200
 360:	735f6b63 	cmpvc	pc, #101376	; 0x18c00
 364:	74726174 	ldrbtvc	r6, [r2], #-372	; 0xfffffe8c
 368:	72616d00 	rsbvc	r6, r1, #0, 26
 36c:	6c615f6b 	stclvs	15, cr5, [r1], #-428	; 0xfffffe54
 370:	6d69006c 	stclvs	0, cr0, [r9, #-432]!	; 0xfffffe50
 374:	6d656c70 	stclvs	12, cr6, [r5, #-448]!	; 0xfffffe40
 378:	5f746e65 	svcpl	0x00746e65
 37c:	73696874 	cmnvc	r9, #116, 16	; 0x740000
 380:	625f5f00 	subsvs	r5, pc, #0, 30
 384:	735f7373 	cmpvc	pc, #-872415231	; 0xcc000001
 388:	74726174 	ldrbtvc	r6, [r2], #-372	; 0xfffffe8c
 38c:	6e005f5f 	mcrvs	15, 0, r5, cr0, cr15, {2}
 390:	775f6d75 			; <UNDEFINED> instruction: 0x775f6d75
 394:	7364726f 	cmnvc	r4, #-268435450	; 0xf0000006
 398:	6c626e00 	stclvs	14, cr6, [r2], #-0
 39c:	736b636f 	cmnvc	fp, #-1140850687	; 0xbc000001
 3a0:	696e6900 	stmdbvs	lr!, {r8, fp, sp, lr}^
 3a4:	00705f74 	rsbseq	r5, r0, r4, ror pc
 3a8:	7479626e 	ldrbtvc	r6, [r9], #-622	; 0xfffffd92
 3ac:	665f7365 	ldrbvs	r7, [pc], -r5, ror #6
 3b0:	64656572 	strbtvs	r6, [r5], #-1394	; 0xfffffa8e
 3b4:	636e6900 	cmnvs	lr, #0, 18
 3b8:	656d6572 	strbvs	r6, [sp, #-1394]!	; 0xfffffa8e
 3bc:	6d00746e 	cfstrsvs	mvf7, [r0, #-440]	; 0xfffffe48
 3c0:	65627961 	strbvs	r7, [r2, #-2401]!	; 0xfffff69f
 3c4:	7272655f 	rsbsvc	r6, r2, #398458880	; 0x17c00000
 3c8:	0073726f 	rsbseq	r7, r3, pc, ror #4
 3cc:	675f6b63 	ldrbvs	r6, [pc, -r3, ror #22]
 3d0:	75640063 	strbvc	r0, [r4, #-99]!	; 0xffffff9d
 3d4:	725f706d 	subsvc	r7, pc, #109, 0	; 0x6d
 3d8:	00736765 	rsbseq	r6, r3, r5, ror #14
 3dc:	61656c6e 	cmnvs	r5, lr, ror #24
 3e0:	6300736b 	movwvs	r7, #875	; 0x36b
 3e4:	69665f6b 	stmdbvs	r6!, {r0, r1, r3, r5, r6, r8, r9, sl, fp, ip, lr}^
 3e8:	6c5f646e 	cfldrdvs	mvd6, [pc], {110}	; 0x6e
 3ec:	736b6165 	cmnvc	fp, #1073741849	; 0x40000019
 3f0:	72627300 	rsbvc	r7, r2, #0, 6
 3f4:	7369006b 	cmnvc	r9, #107, 0	; 0x6b
 3f8:	7274705f 	rsbsvc	r7, r4, #95, 0	; 0x5f
 3fc:	6f6c6200 	svcvs	0x006c6200
 400:	655f6b63 	ldrbvs	r6, [pc, #-2915]	; fffff8a5 <__bss_end__+0xffff4ec5>
 404:	6e00646e 	cdpvs	4, 0, cr6, cr0, cr14, {3}
 408:	65657266 	strbvs	r7, [r5, #-614]!	; 0xfffffd9a
 40c:	75630064 	strbvc	r0, [r3, #-100]!	; 0xffffff9c
 410:	775f7272 			; <UNDEFINED> instruction: 0x775f7272
 414:	0064726f 	rsbeq	r7, r4, pc, ror #4
 418:	685f6e69 	ldmdavs	pc, {r0, r3, r5, r6, r9, sl, fp, sp, lr}^	; <UNPREDICTABLE>
 41c:	00706165 	rsbseq	r6, r0, r5, ror #2
 420:	6d656e6f 	stclvs	14, cr6, [r5, #-444]!	; 0xfffffe44
 424:	75630062 	strbvc	r0, [r3, #-98]!	; 0xffffff9e
 428:	63007272 	movwvs	r7, #626	; 0x272
 42c:	63672d6b 	cmnvs	r7, #6848	; 0x1ac0
 430:	6300632e 	movwvs	r6, #814	; 0x32e
 434:	6b636568 	blvs	18d99dc <__bss_end__+0x18ceffc>
 438:	6f68735f 	svcvs	0x0068735f
 43c:	5f646c75 	svcpl	0x00646c75
 440:	6b61656c 	blvs	18599f8 <__bss_end__+0x184f018>
 444:	625f5f00 	subsvs	r5, pc, #0, 30
 448:	655f7373 	ldrbvs	r7, [pc, #-883]	; dd <__code_start__-0x7f23>
 44c:	5f5f646e 	svcpl	0x005f646e
 450:	616d6b00 	cmnvs	sp, r0, lsl #22
 454:	636f6c6c 	cmnvs	pc, #108, 24	; 0x6c00
 458:	616d6b00 	cmnvs	sp, r0, lsl #22
 45c:	636f6c6c 	cmnvs	pc, #108, 24	; 0x6c00
 460:	696e695f 	stmdbvs	lr!, {r0, r1, r2, r3, r4, r6, r8, fp, sp, lr}^
 464:	65735f74 	ldrbvs	r5, [r3, #-3956]!	; 0xfffff08c
 468:	74735f74 	ldrbtvc	r5, [r3], #-3956	; 0xfffff08c
 46c:	00747261 	rsbseq	r7, r4, r1, ror #4
 470:	65657773 	strbvs	r7, [r5, #-1907]!	; 0xfffff88d
 474:	656c5f70 	strbvs	r5, [ip, #-3952]!	; 0xfffff090
 478:	73006b61 	movwvc	r6, #2913	; 0xb61
 47c:	70656577 	rsbvc	r6, r5, r7, ror r5
 480:	6572665f 	ldrbvs	r6, [r2, #-1631]!	; 0xfffff9a1
 484:	61770065 	cmnvs	r7, r5, rrx
 488:	6e5f6e72 	mrcvs	14, 2, r6, cr15, cr2, {3}
 48c:	74735f6f 	ldrbtvc	r5, [r3], #-3951	; 0xfffff091
 490:	5f747261 	svcpl	0x00747261
 494:	5f666572 	svcpl	0x00666572
 498:	65680070 	strbvs	r0, [r8, #-112]!	; 0xffffff90
 49c:	72656461 	rsbvc	r6, r5, #1627389952	; 0x61000000
 4a0:	65727000 	ldrbvs	r7, [r2, #-0]!
 4a4:	61007076 	tstvs	r0, r6, ror r0
 4a8:	6e67696c 	vnmulvs.f16	s13, s14, s25	; <UNPREDICTABLE>
 4ac:	65726600 	ldrbvs	r6, [r2, #-1536]!	; 0xfffffa00
 4b0:	6e007065 	cdpvs	0, 0, cr7, cr0, cr5, {3}
 4b4:	74696e75 	strbtvc	r6, [r9], #-3701	; 0xfffff18b
 4b8:	726b0073 	rsbvc	r0, fp, #115, 0	; 0x73
 4bc:	6c616d2d 	stclvs	13, cr6, [r1], #-180	; 0xffffff4c
 4c0:	2e636f6c 	cdpcs	15, 6, cr6, cr3, cr12, {3}
 4c4:	6f640063 	svcvs	0x00640063
 4c8:	656c6275 	strbvs	r6, [ip, #-629]!	; 0xfffffd8b
 4cc:	73616200 	cmnvc	r1, #0, 4
 4d0:	726b0065 	rsbvc	r0, fp, #101, 0	; 0x65
 4d4:	726f6d5f 	rsbvc	r6, pc, #6080	; 0x17c0
 4d8:	726f6365 	rsbvc	r6, pc, #-1811939327	; 0x94000001
 4dc:	69730065 	ldmdbvs	r3!, {r0, r2, r5, r6}^
 4e0:	4800657a 	stmdami	r0, {r1, r3, r4, r5, r6, r8, sl, sp, lr}
 4e4:	65646165 	strbvs	r6, [r4, #-357]!	; 0xfffffe9b
 4e8:	4e470072 	mcrmi	0, 2, r0, cr7, cr2, {3}
 4ec:	39432055 	stmdbcc	r3, {r0, r2, r4, r6, sp}^
 4f0:	2e392039 	mrccs	0, 1, r2, cr9, cr9, {1}
 4f4:	20312e32 	eorscs	r2, r1, r2, lsr lr
 4f8:	39313032 	ldmdbcc	r1!, {r1, r4, r5, ip, sp}
 4fc:	35323031 	ldrcc	r3, [r2, #-49]!	; 0xffffffcf
 500:	65722820 	ldrbvs	r2, [r2, #-2080]!	; 0xfffff7e0
 504:	7361656c 	cmnvc	r1, #108, 10	; 0x1b000000
 508:	5b202965 	blpl	80aaa4 <__bss_end__+0x8000c4>
 50c:	2f4d5241 	svccs	0x004d5241
 510:	2d6d7261 	sfmcs	f7, 2, [sp, #-388]!	; 0xfffffe7c
 514:	72622d39 	rsbvc	r2, r2, #3648	; 0xe40
 518:	68636e61 	stmdavs	r3!, {r0, r5, r6, r9, sl, fp, sp, lr}^
 51c:	76657220 	strbtvc	r7, [r5], -r0, lsr #4
 520:	6f697369 	svcvs	0x00697369
 524:	3732206e 	ldrcc	r2, [r2, -lr, rrx]!
 528:	39393537 	ldmdbcc	r9!, {r0, r1, r2, r4, r5, r8, sl, ip, sp}
 52c:	6d2d205d 	stcvs	0, cr2, [sp, #-372]!	; 0xfffffe8c
 530:	3d757063 	ldclcc	0, cr7, [r5, #-396]!	; 0xfffffe74
 534:	316d7261 	cmncc	sp, r1, ror #4
 538:	6a363731 	bvs	d8e204 <__bss_end__+0xd83824>
 53c:	732d667a 			; <UNDEFINED> instruction: 0x732d667a
 540:	746d2d20 	strbtvc	r2, [sp], #-3360	; 0xfffff2e0
 544:	3d656e75 	stclcc	14, cr6, [r5, #-468]!	; 0xfffffe2c
 548:	316d7261 	cmncc	sp, r1, ror #4
 54c:	6a363731 	bvs	d8e218 <__bss_end__+0xd83838>
 550:	732d667a 			; <UNDEFINED> instruction: 0x732d667a
 554:	666d2d20 	strbtvs	r2, [sp], -r0, lsr #26
 558:	74616f6c 	strbtvc	r6, [r1], #-3948	; 0xfffff094
 55c:	6962612d 	stmdbvs	r2!, {r0, r2, r3, r5, r8, sp, lr}^
 560:	666f733d 			; <UNDEFINED> instruction: 0x666f733d
 564:	6d2d2074 	stcvs	0, cr2, [sp, #-464]!	; 0xfffffe30
 568:	206d7261 	rsbcs	r7, sp, r1, ror #4
 56c:	72616d2d 	rsbvc	r6, r1, #2880	; 0xb40
 570:	613d6863 	teqvs	sp, r3, ror #16
 574:	36766d72 			; <UNDEFINED> instruction: 0x36766d72
 578:	2d207a6b 	vstmdbcs	r0!, {s14-s120}
 57c:	62646767 	rsbvs	r6, r4, #27000832	; 0x19c0000
 580:	67672d20 	strbvs	r2, [r7, -r0, lsr #26]!
 584:	2d206264 	sfmcs	f6, 4, [r0, #-400]!	; 0xfffffe70
 588:	2d20674f 	stccs	7, cr6, [r0, #-316]!	; 0xfffffec4
 58c:	2d20674f 	stccs	7, cr6, [r0, #-316]!	; 0xfffffec4
 590:	3d647473 	cfstrdcc	mvd7, [r4, #-460]!	; 0xfffffe34
 594:	39756e67 	ldmdbcc	r5!, {r0, r1, r2, r5, r6, r9, sl, fp, sp, lr}^
 598:	732d2039 			; <UNDEFINED> instruction: 0x732d2039
 59c:	673d6474 			; <UNDEFINED> instruction: 0x673d6474
 5a0:	3939756e 	ldmdbcc	r9!, {r1, r2, r3, r5, r6, r8, sl, ip, sp, lr}
 5a4:	66662d20 	strbtvs	r2, [r6], -r0, lsr #26
 5a8:	73656572 	cmnvc	r5, #478150656	; 0x1c800000
 5ac:	646e6174 	strbtvs	r6, [lr], #-372	; 0xfffffe8c
 5b0:	00676e69 	rsbeq	r6, r7, r9, ror #28
 5b4:	657a6973 	ldrbvs	r6, [sl, #-2419]!	; 0xfffff68d
 5b8:	2e00745f 	cfmvsrcs	mvf0, r7
 5bc:	62696c2f 	rsbvs	r6, r9, #12032	; 0x2f00
 5c0:	656d2f63 	strbvs	r2, [sp, #-3939]!	; 0xfffff09d
 5c4:	7465736d 	strbtvc	r7, [r5], #-877	; 0xfffffc93
 5c8:	2f00632e 	svccs	0x0000632e
 5cc:	72657355 	rsbvc	r7, r5, #1409286145	; 0x54000001
 5d0:	72742f73 	rsbsvc	r2, r4, #460	; 0x1cc
 5d4:	65747369 	ldrbvs	r7, [r4, #-873]!	; 0xfffffc97
 5d8:	6c6f6e6e 	stclvs	14, cr6, [pc], #-440	; 428 <__code_start__-0x7bd8>
 5dc:	6e616d6c 	cdpvs	13, 6, cr6, cr1, cr12, {3}
 5e0:	636f442f 	cmnvs	pc, #788529152	; 0x2f000000
 5e4:	6e656d75 	mcrvs	13, 3, r6, cr5, cr5, {3}
 5e8:	532f7374 			; <UNDEFINED> instruction: 0x532f7374
 5ec:	6e697270 	mcrvs	2, 3, r7, cr9, cr0, {3}
 5f0:	75515f67 	ldrbvc	r5, [r1, #-3943]	; 0xfffff099
 5f4:	65747261 	ldrbvs	r7, [r4, #-609]!	; 0xfffffd9f
 5f8:	30325f72 	eorscc	r5, r2, r2, ror pc
 5fc:	432f3232 			; <UNDEFINED> instruction: 0x432f3232
 600:	30343253 	eorscc	r3, r4, r3, asr r2
 604:	732d584c 			; <UNDEFINED> instruction: 0x732d584c
 608:	32327270 	eorscc	r7, r2, #112, 4
 60c:	62696c2f 	rsbvs	r6, r9, #12032	; 0x2f00
 610:	61006970 	tstvs	r0, r0, ror r9
 614:	00736772 	rsbseq	r6, r3, r2, ror r7
 618:	705f6176 	subsvc	r6, pc, r6, ror r1	; <UNPREDICTABLE>
 61c:	746e6972 	strbtvc	r6, [lr], #-2418	; 0xfffff68e
 620:	5f5f006b 	svcpl	0x005f006b
 624:	63756e67 	cmnvs	r5, #1648	; 0x670
 628:	5f61765f 	svcpl	0x0061765f
 62c:	7473696c 	ldrbtvc	r6, [r3], #-2412	; 0xfffff694
 630:	765f5f00 	ldrbvc	r5, [pc], -r0, lsl #30
 634:	696c5f61 	stmdbvs	ip!, {r0, r5, r6, r8, r9, sl, fp, ip, lr}^
 638:	5f007473 	svcpl	0x00007473
 63c:	0070615f 	rsbseq	r6, r0, pc, asr r1
 640:	696c2f2e 	stmdbvs	ip!, {r1, r2, r3, r5, r8, r9, sl, fp, sp}^
 644:	702f6362 	eorvc	r6, pc, r2, ror #6
 648:	746e6972 	strbtvc	r6, [lr], #-2418	; 0xfffff68e
 64c:	00632e6b 	rsbeq	r2, r3, fp, ror #28
 650:	65746e69 	ldrbvs	r6, [r4, #-3689]!	; 0xfffff197
 654:	6c616e72 	stclvs	14, cr6, [r1], #-456	; 0xfffffe38
 658:	7475705f 	ldrbtvc	r7, [r5], #-95	; 0xffffffa1
 65c:	2f2e006b 	svccs	0x002e006b
 660:	6362696c 	cmnvs	r2, #108, 18	; 0x1b0000
 664:	7475702f 	ldrbtvc	r7, [r5], #-47	; 0xffffffd1
 668:	00632e6b 	rsbeq	r2, r3, fp, ror #28
 66c:	69647369 	stmdbvs	r4!, {r0, r3, r5, r6, r8, r9, ip, sp, lr}^
 670:	00746967 	rsbseq	r6, r4, r7, ror #18
 674:	746e6975 	strbtvc	r6, [lr], #-2421	; 0xfffff68b
 678:	745f3436 	ldrbvc	r3, [pc], #-1078	; 680 <__code_start__-0x7980>
 67c:	6c2f2e00 	stcvs	14, cr2, [pc], #-0	; 684 <__code_start__-0x797c>
 680:	2f636269 	svccs	0x00636269
 684:	702d6176 	eorvc	r6, sp, r6, ror r1
 688:	746e6972 	strbtvc	r6, [lr], #-2418	; 0xfffff68e
 68c:	00632e6b 	rsbeq	r2, r3, fp, ror #28
 690:	6f635f5f 	svcvs	0x00635f5f
 694:	735f6564 	cmpvc	pc, #100, 10	; 0x19000000
 698:	74726174 	ldrbtvc	r6, [r2], #-372	; 0xfffffe8c
 69c:	77005f5f 	smlsdvc	r0, pc, pc, r5	; <UNPREDICTABLE>
 6a0:	68746469 	ldmdavs	r4!, {r0, r3, r5, r6, sl, sp, lr}^
 6a4:	74757000 	ldrbtvc	r7, [r5], #-0
 6a8:	70665f63 	rsbvc	r5, r6, r3, ror #30
 6ac:	685f5f00 	ldmdavs	pc, {r8, r9, sl, fp, ip, lr}^	; <UNPREDICTABLE>
 6b0:	5f706165 	svcpl	0x00706165
 6b4:	72617473 	rsbvc	r7, r1, #1929379840	; 0x73000000
 6b8:	005f5f74 	subseq	r5, pc, r4, ror pc	; <UNPREDICTABLE>
 6bc:	5f697072 	svcpl	0x00697072
 6c0:	5f746573 	svcpl	0x00746573
 6c4:	7074756f 	rsbsvc	r7, r4, pc, ror #10
 6c8:	66007475 			; <UNDEFINED> instruction: 0x66007475
 6cc:	735f746d 	cmpvc	pc, #1828716544	; 0x6d000000
 6d0:	74726174 	ldrbtvc	r6, [r2], #-372	; 0xfffffe8c
 6d4:	72747300 	rsbsvc	r7, r4, #0, 6
 6d8:	00797063 	rsbseq	r7, r9, r3, rrx
 6dc:	5f67656e 	svcpl	0x0067656e
 6e0:	5f5f0070 	svcpl	0x005f0070
 6e4:	65646f63 	strbvs	r6, [r4, #-3939]!	; 0xfffff09d
 6e8:	646e655f 	strbtvs	r6, [lr], #-1375	; 0xfffffaa1
 6ec:	65005f5f 	strvs	r5, [r0, #-3935]	; 0xfffff0a1
 6f0:	0074696d 	rsbseq	r6, r4, sp, ror #18
 6f4:	73747570 	cmnvc	r4, #112, 10	; 0x1c000000
 6f8:	0070665f 	rsbseq	r6, r0, pc, asr r6
 6fc:	65766572 	ldrbvs	r6, [r6, #-1394]!	; 0xfffffa8e
 700:	00657372 	rsbeq	r7, r5, r2, ror r3
 704:	63727473 	cmnvs	r2, #1929379840	; 0x73000000
 708:	73007461 	movwvc	r7, #1121	; 0x461
 70c:	6d637274 	sfmvs	f7, 2, [r3, #-464]!	; 0xfffffe30
 710:	5f5f0070 	svcpl	0x005f0070
 714:	676f7270 			; <UNDEFINED> instruction: 0x676f7270
 718:	646e655f 	strbtvs	r6, [lr], #-1375	; 0xfffffaa1
 71c:	6e005f5f 	mcrvs	15, 0, r5, cr0, cr15, {2}
 720:	00316d75 	eorseq	r6, r1, r5, ror sp
 724:	6e727473 	mrcvs	4, 3, r7, cr2, cr3, {3}
 728:	00706d63 	rsbseq	r6, r0, r3, ror #26
 72c:	6e676973 			; <UNDEFINED> instruction: 0x6e676973
 730:	705f6465 	subsvc	r6, pc, r5, ror #8
 734:	69707200 	ldmdbvs	r0!, {r9, ip, sp, lr}^
 738:	6265725f 	rsbvs	r7, r5, #-268435451	; 0xf0000005
 73c:	00746f6f 	rsbseq	r6, r4, pc, ror #30
 740:	616c6564 	cmnvs	ip, r4, ror #10
 744:	736d5f79 	cmnvc	sp, #484	; 0x1e4
 748:	732f2e00 			; <UNDEFINED> instruction: 0x732f2e00
 74c:	66666174 			; <UNDEFINED> instruction: 0x66666174
 750:	6372732d 	cmnvs	r2, #-1275068416	; 0xb4000000
 754:	656c632f 	strbvs	r6, [ip, #-815]!	; 0xfffffcd1
 758:	722d6e61 	eorvc	r6, sp, #1552	; 0x610
 75c:	6f6f6265 	svcvs	0x006f6265
 760:	00632e74 	rsbeq	r2, r3, r4, ror lr
 764:	74726175 	ldrbtvc	r6, [r2], #-373	; 0xfffffe8b
 768:	756c665f 	strbvc	r6, [ip, #-1631]!	; 0xfffff9a1
 76c:	745f6873 	ldrbvc	r6, [pc], #-2163	; 774 <__code_start__-0x788c>
 770:	635f0078 	cmpvs	pc, #120, 0	; 0x78
 774:	72617473 	rsbvc	r7, r1, #1929379840	; 0x73000000
 778:	73620074 	cmnvc	r2, #116, 0	; 0x74
 77c:	6e655f73 	mcrvs	15, 3, r5, cr5, cr3, {3}
 780:	61750064 	cmnvs	r5, r4, rrx
 784:	695f7472 	ldmdbvs	pc, {r1, r4, r5, r6, sl, ip, sp, lr}^	; <UNPREDICTABLE>
 788:	0074696e 	rsbseq	r6, r4, lr, ror #18
 78c:	74737563 	ldrbtvc	r7, [r3], #-1379	; 0xfffffa9d
 790:	6c5f6d6f 	mrrcvs	13, 6, r6, pc, cr15	; <UNPREDICTABLE>
 794:	6564616f 	strbvs	r6, [r4, #-367]!	; 0xfffffe91
 798:	2f2e0072 	svccs	0x002e0072
 79c:	66617473 			; <UNDEFINED> instruction: 0x66617473
 7a0:	72732d66 	rsbsvc	r2, r3, #6528	; 0x1980
 7a4:	73632f63 	cmnvc	r3, #396	; 0x18c
 7a8:	74726174 	ldrbtvc	r6, [r2], #-372	; 0xfffffe8c
 7ac:	2e00632e 	cdpcs	3, 0, cr6, cr0, cr14, {1}
 7b0:	6174732f 	cmnvs	r4, pc, lsr #6
 7b4:	732d6666 			; <UNDEFINED> instruction: 0x732d6666
 7b8:	632f6372 			; <UNDEFINED> instruction: 0x632f6372
 7bc:	6f747375 	svcvs	0x00747375
 7c0:	6f6c2d6d 	svcvs	0x006c2d6d
 7c4:	72656461 	rsbvc	r6, r5, #1627389952	; 0x61000000
 7c8:	7200632e 	andvc	r6, r0, #-1207959552	; 0xb8000000
 7cc:	6f6f6265 	svcvs	0x006f6265
 7d0:	61635f74 	smcvs	13812	; 0x35f4
 7d4:	756f6c6c 	strbvc	r6, [pc, #-3180]!	; fffffb70 <__bss_end__+0xffff5190>
 7d8:	4d500074 	ldclmi	0, cr0, [r0, #-464]	; 0xfffffe30
 7dc:	4f44575f 	svcmi	0x0044575f
 7e0:	55500047 	ldrbpl	r0, [r0, #-71]	; 0xffffffb9
 7e4:	00323354 	eorseq	r3, r2, r4, asr r3
 7e8:	5f746573 	svcpl	0x00746573
 7ec:	72657375 	rsbvc	r7, r5, #-738197503	; 0xd4000001
 7f0:	76656c5f 			; <UNDEFINED> instruction: 0x76656c5f
 7f4:	2e006c65 	cdpcs	12, 0, cr6, cr0, cr5, {3}
 7f8:	6174732f 	cmnvs	r4, pc, lsr #6
 7fc:	732d6666 			; <UNDEFINED> instruction: 0x732d6666
 800:	722f6372 	eorvc	r6, pc, #-939524095	; 0xc8000001
 804:	6f6f6265 	svcvs	0x006f6265
 808:	00632e74 	rsbeq	r2, r3, r4, ror lr
 80c:	505f4d50 	subspl	r4, pc, r0, asr sp	; <UNPREDICTABLE>
 810:	57535341 	ldrbpl	r5, [r3, -r1, asr #6]
 814:	0044524f 	subeq	r5, r4, pc, asr #4
 818:	755f7461 	ldrbvc	r7, [pc, #-1121]	; 3bf <__code_start__-0x7c41>
 81c:	5f726573 	svcpl	0x00726573
 820:	6576656c 	ldrbvs	r6, [r6, #-1388]!	; 0xfffffa94
 824:	4d50006c 	ldclmi	0, cr0, [r0, #-432]	; 0xfffffe50
 828:	5453525f 	ldrbpl	r5, [r3], #-607	; 0xfffffda1
 82c:	52575f43 	subspl	r5, r7, #268	; 0x10c
 830:	5f474643 	svcpl	0x00474643
 834:	4c4c5546 	cfstr64mi	mvdx5, [ip], {70}	; 0x46
 838:	5345525f 	movtpl	r5, #21087	; 0x525f
 83c:	50005445 	andpl	r5, r0, r5, asr #8
 840:	53525f4d 	cmppl	r2, #308	; 0x134
 844:	63004354 	movwvs	r4, #852	; 0x354
 848:	00727370 	rsbseq	r7, r2, r0, ror r3
 84c:	5f766564 	svcpl	0x00766564
 850:	72726162 	rsbsvc	r6, r2, #-2147483624	; 0x80000018
 854:	00726569 	rsbseq	r6, r2, r9, ror #10
 858:	616c6564 	cmnvs	ip, r4, ror #10
 85c:	65735f79 	ldrbvs	r5, [r3, #-3961]!	; 0xfffff087
 860:	2f2e0063 	svccs	0x002e0063
 864:	66617473 			; <UNDEFINED> instruction: 0x66617473
 868:	72732d66 	rsbsvc	r2, r3, #6528	; 0x1980
 86c:	69742f63 	ldmdbvs	r4!, {r0, r1, r5, r6, r8, r9, sl, fp, sp}^
 870:	2e72656d 	cdpcs	5, 7, cr6, cr2, cr13, {3}
 874:	45470063 	strbmi	r0, [r7, #-99]	; 0xffffff9d
 878:	00323354 	eorseq	r3, r2, r4, asr r3
 87c:	656d6974 	strbvs	r6, [sp, #-2420]!	; 0xfffff68c
 880:	65675f72 	strbvs	r5, [r7, #-3954]!	; 0xfffff08e
 884:	73755f74 	cmnvc	r5, #116, 30	; 0x1d0
 888:	64006365 	strvs	r6, [r0], #-869	; 0xfffffc9b
 88c:	79616c65 	stmdbvc	r1!, {r0, r2, r5, r6, sl, fp, sp, lr}^
 890:	0073755f 	rsbseq	r7, r3, pc, asr r5
 894:	656d6974 	strbvs	r6, [sp, #-2420]!	; 0xfffff68c
 898:	65675f72 	strbvs	r5, [r7, #-3954]!	; 0xfffff08e
 89c:	73755f74 	cmnvc	r5, #116, 30	; 0x1d0
 8a0:	725f6365 	subsvc	r6, pc, #-1811939327	; 0x94000001
 8a4:	70007761 	andvc	r7, r0, r1, ror #14
 8a8:	32337475 	eorscc	r7, r3, #1962934272	; 0x75000000
 8ac:	75616200 	strbvc	r6, [r1, #-512]!	; 0xfffffe00
 8b0:	61765f64 	cmnvs	r6, r4, ror #30
 8b4:	7473006c 	ldrbtvc	r0, [r3], #-108	; 0xffffff94
 8b8:	75007461 	strvc	r7, [r0, #-1121]	; 0xfffffb9f
 8bc:	5f747261 	svcpl	0x00747261
 8c0:	5f6e6163 	svcpl	0x006e6163
 8c4:	63746567 	cmnvs	r4, #432013312	; 0x19c00000
 8c8:	49504700 	ldmdbmi	r0, {r8, r9, sl, lr}^
 8cc:	55465f4f 	strbpl	r5, [r6, #-3919]	; 0xfffff0b1
 8d0:	4f5f434e 	svcmi	0x005f434e
 8d4:	55505455 	ldrbpl	r5, [r0, #-1109]	; 0xfffffbab
 8d8:	75610054 	strbvc	r0, [r1, #-84]!	; 0xffffffac
 8dc:	65705f78 	ldrbvs	r5, [r0, #-3960]!	; 0xfffff088
 8e0:	68706972 	ldmdavs	r0!, {r1, r4, r5, r6, r8, fp, sp, lr}^
 8e4:	61750073 	cmnvs	r5, r3, ror r0
 8e8:	632e7472 			; <UNDEFINED> instruction: 0x632e7472
 8ec:	72617500 	rsbvc	r7, r1, #0, 10
 8f0:	61635f74 	smcvs	13812	; 0x35f4
 8f4:	75705f6e 	ldrbvc	r5, [r0, #-3950]!	; 0xfffff092
 8f8:	75006374 	strvc	r6, [r0, #-884]	; 0xfffffc8c
 8fc:	5f747261 	svcpl	0x00747261
 900:	695f7874 	ldmdbvs	pc, {r2, r4, r5, r6, fp, ip, sp, lr}^	; <UNPREDICTABLE>
 904:	6d655f73 	stclvs	15, cr5, [r5, #-460]!	; 0xfffffe34
 908:	00797470 	rsbseq	r7, r9, r0, ror r4
 90c:	4f495047 	svcmi	0x00495047
 910:	4e55465f 	mrcmi	6, 2, r4, cr5, cr15, {2}
 914:	4c415f43 	mcrrmi	15, 4, r5, r1, cr3
 918:	47003054 	smlsdmi	r0, r4, r0, r3
 91c:	5f4f4950 	svcpl	0x004f4950
 920:	434e5546 	movtmi	r5, #58694	; 0xe546
 924:	544c415f 	strbpl	r4, [ip], #-351	; 0xfffffea1
 928:	50470031 	subpl	r0, r7, r1, lsr r0
 92c:	465f4f49 	ldrbmi	r4, [pc], -r9, asr #30
 930:	5f434e55 	svcpl	0x00434e55
 934:	32544c41 	subscc	r4, r4, #16640	; 0x4100
 938:	49504700 	ldmdbmi	r0, {r8, r9, sl, lr}^
 93c:	55465f4f 	strbpl	r5, [r6, #-3919]	; 0xfffff0b1
 940:	415f434e 	cmpmi	pc, lr, asr #6
 944:	0033544c 	eorseq	r5, r3, ip, asr #8
 948:	4f495047 	svcmi	0x00495047
 94c:	4e55465f 	mrcmi	6, 2, r4, cr5, cr15, {2}
 950:	4c415f43 	mcrrmi	15, 4, r5, r1, cr3
 954:	2f003554 	svccs	0x00003554
 958:	656d6f68 	strbvs	r6, [sp, #-3944]!	; 0xfffff098
 95c:	676e652f 	strbvs	r6, [lr, -pc, lsr #10]!
 960:	2f72656c 	svccs	0x0072656c
 964:	73616c63 	cmnvc	r1, #25344	; 0x6300
 968:	73632f73 	cmnvc	r3, #460	; 0x1cc
 96c:	6c303432 	cfldrsvs	mvf3, [r0], #-200	; 0xffffff38
 970:	32322d78 	eorscc	r2, r2, #120, 26	; 0x1e00
 974:	2f727073 	svccs	0x00727073
 978:	7062696c 	rsbvc	r6, r2, ip, ror #18
 97c:	74732f69 	ldrbtvc	r2, [r3], #-3945	; 0xfffff097
 980:	2d666661 	stclcs	6, cr6, [r6, #-388]!	; 0xfffffe7c
 984:	76697270 			; <UNDEFINED> instruction: 0x76697270
 988:	00657461 	rsbeq	r7, r5, r1, ror #8
 98c:	64756162 	ldrbtvs	r6, [r5], #-354	; 0xfffffe9e
 990:	78756100 	ldmdavc	r5!, {r8, sp, lr}^
 994:	616e655f 	cmnvs	lr, pc, asr r5
 998:	73656c62 	cmnvc	r5, #25088	; 0x6200
 99c:	72617500 	rsbvc	r7, r1, #0, 10
 9a0:	65675f74 	strbvs	r5, [r7, #-3956]!	; 0xfffff08c
 9a4:	47006374 	smlsdxmi	r0, r4, r3, r6
 9a8:	4320554e 			; <UNDEFINED> instruction: 0x4320554e
 9ac:	31203939 			; <UNDEFINED> instruction: 0x31203939
 9b0:	2e332e30 	mrccs	14, 1, r2, cr3, cr0, {1}
 9b4:	30322031 	eorscc	r2, r2, r1, lsr r0
 9b8:	38303132 	ldmdacc	r0!, {r1, r4, r5, r8, ip, sp}
 9bc:	28203432 	stmdacs	r0!, {r1, r4, r5, sl, ip, sp}
 9c0:	656c6572 	strbvs	r6, [ip, #-1394]!	; 0xfffffa8e
 9c4:	29657361 	stmdbcs	r5!, {r0, r5, r6, r8, r9, ip, sp, lr}^
 9c8:	636d2d20 	cmnvs	sp, #32, 26	; 0x800
 9cc:	613d7570 	teqvs	sp, r0, ror r5
 9d0:	31316d72 	teqcc	r1, r2, ror sp
 9d4:	7a6a3637 	bvc	1a8e2b8 <__bss_end__+0x1a838d8>
 9d8:	20732d66 	rsbscs	r2, r3, r6, ror #26
 9dc:	75746d2d 	ldrbvc	r6, [r4, #-3373]!	; 0xfffff2d3
 9e0:	613d656e 	teqvs	sp, lr, ror #10
 9e4:	31316d72 	teqcc	r1, r2, ror sp
 9e8:	7a6a3637 	bvc	1a8e2cc <__bss_end__+0x1a838ec>
 9ec:	20732d66 	rsbscs	r2, r3, r6, ror #26
 9f0:	6c666d2d 	stclvs	13, cr6, [r6], #-180	; 0xffffff4c
 9f4:	2d74616f 	ldfcse	f6, [r4, #-444]!	; 0xfffffe44
 9f8:	3d696261 	sfmcc	f6, 2, [r9, #-388]!	; 0xfffffe7c
 9fc:	74666f73 	strbtvc	r6, [r6], #-3955	; 0xfffff08d
 a00:	616d2d20 	cmnvs	sp, r0, lsr #26
 a04:	2d206d72 	stccs	13, cr6, [r0, #-456]!	; 0xfffffe38
 a08:	6372616d 	cmnvs	r2, #1073741851	; 0x4000001b
 a0c:	72613d68 	rsbvc	r3, r1, #104, 26	; 0x1a00
 a10:	6b36766d 	blvs	d9e3cc <__bss_end__+0xd939ec>
 a14:	672d207a 			; <UNDEFINED> instruction: 0x672d207a
 a18:	20626467 	rsbcs	r6, r2, r7, ror #8
 a1c:	20674f2d 	rsbcs	r4, r7, sp, lsr #30
 a20:	6474732d 	ldrbtvs	r7, [r4], #-813	; 0xfffffcd3
 a24:	756e673d 	strbvc	r6, [lr, #-1853]!	; 0xfffff8c3
 a28:	2d203939 			; <UNDEFINED> instruction: 0x2d203939
 a2c:	65726666 	ldrbvs	r6, [r2, #-1638]!	; 0xfffff99a
 a30:	61747365 	cmnvs	r4, r5, ror #6
 a34:	6e69646e 	cdpvs	4, 6, cr6, cr9, cr14, {3}
 a38:	6e630067 	cdpvs	0, 6, cr0, cr3, cr7, {3}
 a3c:	75006c74 	strvc	r6, [r0, #-3188]	; 0xfffff38c
 a40:	5f747261 	svcpl	0x00747261
 a44:	61736964 	cmnvs	r3, r4, ror #18
 a48:	00656c62 	rsbeq	r6, r5, r2, ror #24
 a4c:	74726175 	ldrbtvc	r6, [r2], #-373	; 0xfffffe8b
 a50:	7361685f 	cmnvc	r1, #6225920	; 0x5f0000
 a54:	7461645f 	strbtvc	r6, [r1], #-1119	; 0xfffffba1
 a58:	50470061 	subpl	r0, r7, r1, rrx
 a5c:	465f4f49 	ldrbmi	r4, [pc], -r9, asr #30
 a60:	5f434e55 	svcpl	0x00434e55
 a64:	34544c41 	ldrbcc	r4, [r4], #-3137	; 0xfffff3bf
 a68:	5f726f00 	svcpl	0x00726f00
 a6c:	32336e69 	eorscc	r6, r3, #1680	; 0x690
 a70:	72637300 	rsbvc	r7, r3, #0, 6
 a74:	68637461 	stmdavs	r3!, {r0, r5, r6, sl, ip, sp, lr}^
 a78:	72617500 	rsbvc	r7, r1, #0, 10
 a7c:	6e610074 	mcrvs	0, 3, r0, cr1, cr4, {3}
 a80:	6e695f64 	cdpvs	15, 6, cr5, cr9, cr4, {3}
 a84:	75003233 	strvc	r3, [r0, #-563]	; 0xfffffdcd
 a88:	5f747261 	svcpl	0x00747261
 a8c:	63747570 	cmnvs	r4, #112, 10	; 0x1c000000
 a90:	49504700 	ldmdbmi	r0, {r8, r9, sl, lr}^
 a94:	55465f4f 	strbpl	r5, [r6, #-3919]	; 0xfffff0b1
 a98:	495f434e 	ldmdbmi	pc, {r1, r2, r3, r6, r8, r9, lr}^	; <UNPREDICTABLE>
 a9c:	5455504e 	ldrbpl	r5, [r5], #-78	; 0xffffffb2
 aa0:	69706700 	ldmdbvs	r0!, {r8, r9, sl, sp, lr}^
 aa4:	65735f6f 	ldrbvs	r5, [r3, #-3951]!	; 0xfffff091
 aa8:	75665f74 	strbvc	r5, [r6, #-3956]!	; 0xfffff08c
 aac:	6974636e 	ldmdbvs	r4!, {r1, r2, r3, r5, r6, r8, r9, sp, lr}^
 ab0:	67006e6f 	strvs	r6, [r0, -pc, ror #28]
 ab4:	32337465 	eorscc	r7, r3, #1694498816	; 0x65000000
 ab8:	616d6b00 	cmnvs	sp, r0, lsl #22
 abc:	636f6c6c 	cmnvs	pc, #108, 24	; 0x6c00
 ac0:	6165685f 	cmnvs	r5, pc, asr r8
 ac4:	74735f70 	ldrbtvc	r5, [r3], #-3952	; 0xfffff090
 ac8:	00747261 	rsbseq	r7, r4, r1, ror #4
 acc:	5f78616d 	svcpl	0x0078616d
 ad0:	7479626e 	ldrbtvc	r6, [r9], #-622	; 0xfffffd92
 ad4:	5f007365 	svcpl	0x00007365
 ad8:	72646461 	rsbvc	r6, r4, #1627389952	; 0x61000000
 adc:	61656800 	cmnvs	r5, r0, lsl #16
 ae0:	616d5f70 	smcvs	54768	; 0xd5f0
 ae4:	666b0078 			; <UNDEFINED> instruction: 0x666b0078
 ae8:	5f656572 	svcpl	0x00656572
 aec:	006c6c61 	rsbeq	r6, ip, r1, ror #24
 af0:	6e756f72 	mrcvs	15, 3, r6, cr5, cr2, {3}
 af4:	00707564 	rsbseq	r7, r0, r4, ror #10
 af8:	6572666b 	ldrbvs	r6, [r2, #-1643]!	; 0xfffff995
 afc:	6f705f65 	svcvs	0x00705f65
 b00:	6c610070 	stclvs	0, cr0, [r1], #-448	; 0xfffffe40
 b04:	6d6e6769 	stclvs	7, cr6, [lr, #-420]!	; 0xfffffe5c
 b08:	00746e65 	rsbseq	r6, r4, r5, ror #28
 b0c:	5f78616d 	svcpl	0x0078616d
 b10:	00323375 	eorseq	r3, r2, r5, ror r3
 b14:	4d656e4f 	stclmi	14, cr6, [r5, #-316]!	; 0xfffffec4
 b18:	6d6b0042 	stclvs	0, cr0, [fp, #-264]!	; 0xfffffef8
 b1c:	6f6c6c61 	svcvs	0x006c6c61
 b20:	65685f63 	strbvs	r5, [r8, #-3939]!	; 0xfffff09d
 b24:	655f7061 	ldrbvs	r7, [pc, #-97]	; acb <__code_start__-0x7535>
 b28:	6b00646e 	blvs	19ce8 <__bss_end__+0xf308>
 b2c:	6c6c616d 	stfvse	f6, [ip], #-436	; 0xfffffe4c
 b30:	6e5f636f 	cdpvs	3, 5, cr6, cr15, cr15, {3}
 b34:	657a746f 	ldrbvs	r7, [sl, #-1135]!	; 0xfffffb91
 b38:	69006f72 	stmdbvs	r0, {r1, r4, r5, r6, r8, r9, sl, fp, sp, lr}
 b3c:	6f705f73 	svcvs	0x00705f73
 b40:	6b003277 	blvs	d524 <__bss_end__+0x2b44>
 b44:	6c6c616d 	stfvse	f6, [ip], #-436	; 0xfffffe4c
 b48:	632e636f 			; <UNDEFINED> instruction: 0x632e636f
 b4c:	616d6b00 	cmnvs	sp, r0, lsl #22
 b50:	636f6c6c 	cmnvs	pc, #108, 24	; 0x6c00
 b54:	696e695f 	stmdbvs	lr!, {r0, r1, r2, r3, r4, r6, r8, fp, sp, lr}^
 b58:	73690074 	cmnvc	r9, #116, 0	; 0x74
 b5c:	696c615f 	stmdbvs	ip!, {r0, r1, r2, r3, r4, r6, r8, sp, lr}^
 b60:	64656e67 	strbtvs	r6, [r5], #-3687	; 0xfffff199
 b64:	616d6b00 	cmnvs	sp, r0, lsl #22
 b68:	636f6c6c 	cmnvs	pc, #108, 24	; 0x6c00
 b6c:	6165685f 	cmnvs	r5, pc, asr r8
 b70:	74705f70 	ldrbtvc	r5, [r0], #-3952	; 0xfffff090
 b74:	70720072 	rsbsvc	r0, r2, r2, ror r0
 b78:	65725f69 	ldrbvs	r5, [r2, #-3945]!	; 0xfffff097
 b7c:	5f746573 	svcpl	0x00746573
 b80:	63747570 	cmnvs	r4, #112, 10	; 0x1c000000
 b84:	616d6b00 	cmnvs	sp, r0, lsl #22
 b88:	636f6c6c 	cmnvs	pc, #108, 24	; 0x6c00
 b8c:	696c615f 	stmdbvs	ip!, {r0, r1, r2, r3, r4, r6, r8, sp, lr}^
 b90:	64656e67 	strbtvs	r6, [r5], #-3687	; 0xfffff199
 b94:	746e6900 	strbtvc	r6, [lr], #-2304	; 0xfffff700
 b98:	616e7265 	cmnvs	lr, r5, ror #4
 b9c:	75705f6c 	ldrbvc	r5, [r0, #-3948]!	; 0xfffff094
 ba0:	61686374 	smcvs	34356	; 0x8634
 ba4:	70720072 	rsbsvc	r0, r2, r2, ror r0
 ba8:	65735f69 	ldrbvs	r5, [r3, #-3945]!	; 0xfffff097
 bac:	75705f74 	ldrbvc	r5, [r0, #-3956]!	; 0xfffff08c
 bb0:	2e006374 	mcrcs	3, 0, r6, cr0, cr4, {3}
 bb4:	62696c2f 	rsbvs	r6, r9, #12032	; 0x2f00
 bb8:	75702f63 	ldrbvc	r2, [r0, #-3939]!	; 0xfffff09d
 bbc:	61686374 	smcvs	34356	; 0x8634
 bc0:	00632e72 	rsbeq	r2, r3, r2, ror lr
 bc4:	74736564 	ldrbtvc	r6, [r3], #-1380	; 0xfffffa9c
 bc8:	6c2f2e00 	stcvs	14, cr2, [pc], #-0	; bd0 <__code_start__-0x7430>
 bcc:	2f636269 	svccs	0x00636269
 bd0:	63727473 	cmnvs	r2, #1929379840	; 0x73000000
 bd4:	632e7461 			; <UNDEFINED> instruction: 0x632e7461
 bd8:	6c2f2e00 	stcvs	14, cr2, [pc], #-0	; be0 <__code_start__-0x7420>
 bdc:	2f636269 	svccs	0x00636269
 be0:	63727473 	cmnvs	r2, #1929379840	; 0x73000000
 be4:	632e706d 			; <UNDEFINED> instruction: 0x632e706d
 be8:	6c2f2e00 	stcvs	14, cr2, [pc], #-0	; bf0 <__code_start__-0x7410>
 bec:	2f636269 	svccs	0x00636269
 bf0:	63727473 	cmnvs	r2, #1929379840	; 0x73000000
 bf4:	632e7970 			; <UNDEFINED> instruction: 0x632e7970
 bf8:	6c2f2e00 	stcvs	14, cr2, [pc], #-0	; c00 <__code_start__-0x7400>
 bfc:	2f636269 	svccs	0x00636269
 c00:	6e727473 	mrcvs	4, 3, r7, cr2, cr3, {3}
 c04:	2e706d63 	cdpcs	13, 7, cr6, cr0, cr3, {3}
 c08:	2f2e0063 	svccs	0x002e0063
 c0c:	66617473 			; <UNDEFINED> instruction: 0x66617473
 c10:	72732d66 	rsbsvc	r2, r3, #6528	; 0x1980
 c14:	65642f63 	strbvs	r2, [r4, #-3939]!	; 0xfffff09d
 c18:	6c756166 	ldfvse	f6, [r5], #-408	; 0xfffffe68
 c1c:	65722d74 	ldrbvs	r2, [r2, #-3444]!	; 0xfffff28c
 c20:	746f6f62 	strbtvc	r6, [pc], #-3938	; c28 <__code_start__-0x73d8>
 c24:	6c61632d 	stclvs	3, cr6, [r1], #-180	; 0xffffff4c
 c28:	74756f6c 	ldrbtvc	r6, [r5], #-3948	; 0xfffff094
 c2c:	6700632e 	strvs	r6, [r0, -lr, lsr #6]
 c30:	5f6f6970 	svcpl	0x006f6970
 c34:	30726c63 	rsbscc	r6, r2, r3, ror #24
 c38:	69706700 	ldmdbvs	r0!, {r8, r9, sl, sp, lr}^
 c3c:	65735f6f 	ldrbvs	r5, [r3, #-3951]!	; 0xfffff091
 c40:	67003074 	smlsdxvs	r0, r4, r0, r3
 c44:	5f6f6970 	svcpl	0x006f6970
 c48:	74697277 	strbtvc	r7, [r9], #-631	; 0xfffffd89
 c4c:	45440065 	strbmi	r0, [r4, #-101]	; 0xffffff9b
 c50:	41565f56 	cmpmi	r6, r6, asr pc
 c54:	0032334c 	eorseq	r3, r2, ip, asr #6
 c58:	6f697067 	svcvs	0x00697067
 c5c:	6165725f 	cmnvs	r5, pc, asr r2
 c60:	70670064 	rsbvc	r0, r7, r4, rrx
 c64:	735f6f69 	cmpvc	pc, #420	; 0x1a4
 c68:	695f7465 	ldmdbvs	pc, {r0, r2, r5, r6, sl, ip, sp, lr}^	; <UNPREDICTABLE>
 c6c:	7475706e 	ldrbtvc	r7, [r5], #-110	; 0xffffff92
 c70:	69706700 	ldmdbvs	r0!, {r8, r9, sl, sp, lr}^
 c74:	65735f6f 	ldrbvs	r5, [r3, #-3951]!	; 0xfffff091
 c78:	666f5f74 	uqsub16vs	r5, pc, r4	; <UNPREDICTABLE>
 c7c:	70670066 	rsbvc	r0, r7, r6, rrx
 c80:	735f6f69 	cmpvc	pc, #420	; 0x1a4
 c84:	6f5f7465 	svcvs	0x005f7465
 c88:	75707475 	ldrbvc	r7, [r0, #-1141]!	; 0xfffffb8b
 c8c:	70670074 	rsbvc	r0, r7, r4, ror r0
 c90:	665f6f69 	ldrbvs	r6, [pc], -r9, ror #30
 c94:	5f636e75 	svcpl	0x00636e75
 c98:	70670074 	rsbvc	r0, r7, r4, ror r0
 c9c:	6c5f6f69 	mrrcvs	15, 6, r6, pc, cr9	; <UNPREDICTABLE>
 ca0:	00307665 	eorseq	r7, r0, r5, ror #12
 ca4:	6b6e6162 	blvs	1b99234 <__bss_end__+0x1b8e854>
 ca8:	69706700 	ldmdbvs	r0!, {r8, r9, sl, sp, lr}^
 cac:	00632e6f 	rsbeq	r2, r3, pc, ror #28
 cb0:	6f697067 	svcvs	0x00697067
 cb4:	7465735f 	strbtvc	r7, [r5], #-863	; 0xfffffca1
 cb8:	006e6f5f 	rsbeq	r6, lr, pc, asr pc

Disassembly of section .debug_frame:

00000000 <.debug_frame>:
   0:	0000000c 	andeq	r0, r0, ip
   4:	ffffffff 			; <UNDEFINED> instruction: 0xffffffff
   8:	7c020001 	stcvc	0, cr0, [r2], {1}
   c:	000d0c0e 	andeq	r0, sp, lr, lsl #24
  10:	00000020 	andeq	r0, r0, r0, lsr #32
  14:	00000000 	andeq	r0, r0, r0
  18:	00008038 	andeq	r8, r0, r8, lsr r0
  1c:	000000a4 	andeq	r0, r0, r4, lsr #1
  20:	84100e42 	ldrhi	r0, [r0], #-3650	; 0xfffff1be
  24:	86038504 	strhi	r8, [r3], -r4, lsl #10
  28:	42018e02 	andmi	r8, r1, #2, 28
  2c:	4002280e 	andmi	r2, r2, lr, lsl #16
  30:	0000100e 	andeq	r1, r0, lr
  34:	00000014 	andeq	r0, r0, r4, lsl r0
  38:	00000000 	andeq	r0, r0, r0
  3c:	000080dc 	ldrdeq	r8, [r0], -ip
  40:	00000028 	andeq	r0, r0, r8, lsr #32
  44:	84080e42 	strhi	r0, [r8], #-3650	; 0xfffff1be
  48:	00018e02 	andeq	r8, r1, r2, lsl #28
  4c:	0000000c 	andeq	r0, r0, ip
  50:	ffffffff 			; <UNDEFINED> instruction: 0xffffffff
  54:	7c020001 	stcvc	0, cr0, [r2], {1}
  58:	000d0c0e 	andeq	r0, sp, lr, lsl #24
  5c:	00000014 	andeq	r0, r0, r4, lsl r0
  60:	0000004c 	andeq	r0, r0, ip, asr #32
  64:	00008104 	andeq	r8, r0, r4, lsl #2
  68:	00000074 	andeq	r0, r0, r4, ror r0
  6c:	8e040e5e 	mcrhi	14, 0, r0, cr4, cr14, {2}
  70:	100e4201 	andne	r4, lr, r1, lsl #4
  74:	0000000c 	andeq	r0, r0, ip
  78:	0000004c 	andeq	r0, r0, ip, asr #32
  7c:	00008178 	andeq	r8, r0, r8, ror r1
  80:	00000010 	andeq	r0, r0, r0, lsl r0
  84:	0000000c 	andeq	r0, r0, ip
  88:	0000004c 	andeq	r0, r0, ip, asr #32
  8c:	00008188 	andeq	r8, r0, r8, lsl #3
  90:	00000010 	andeq	r0, r0, r0, lsl r0
  94:	00000020 	andeq	r0, r0, r0, lsr #32
  98:	0000004c 	andeq	r0, r0, ip, asr #32
  9c:	00008198 	muleq	r0, r8, r1
  a0:	00000094 	muleq	r0, r4, r0
  a4:	840c0e42 	strhi	r0, [ip], #-3650	; 0xfffff1be
  a8:	8e028503 	cfsh32hi	mvfx8, mvfx2, #3
  ac:	180e4201 	stmdane	lr, {r0, r9, lr}
  b0:	0c0e0a5c 			; <UNDEFINED> instruction: 0x0c0e0a5c
  b4:	00000b42 	andeq	r0, r0, r2, asr #22
  b8:	0000000c 	andeq	r0, r0, ip
  bc:	0000004c 	andeq	r0, r0, ip, asr #32
  c0:	0000822c 	andeq	r8, r0, ip, lsr #4
  c4:	00000008 	andeq	r0, r0, r8
  c8:	00000014 	andeq	r0, r0, r4, lsl r0
  cc:	0000004c 	andeq	r0, r0, ip, asr #32
  d0:	00008234 	andeq	r8, r0, r4, lsr r2
  d4:	00000018 	andeq	r0, r0, r8, lsl r0
  d8:	84080e42 	strhi	r0, [r8], #-3650	; 0xfffff1be
  dc:	00018e02 	andeq	r8, r1, r2, lsl #28
  e0:	00000014 	andeq	r0, r0, r4, lsl r0
  e4:	0000004c 	andeq	r0, r0, ip, asr #32
  e8:	0000824c 	andeq	r8, r0, ip, asr #4
  ec:	00000010 	andeq	r0, r0, r0, lsl r0
  f0:	84080e42 	strhi	r0, [r8], #-3650	; 0xfffff1be
  f4:	00018e02 	andeq	r8, r1, r2, lsl #28
  f8:	0000000c 	andeq	r0, r0, ip
  fc:	0000004c 	andeq	r0, r0, ip, asr #32
 100:	0000825c 	andeq	r8, r0, ip, asr r2
 104:	00000014 	andeq	r0, r0, r4, lsl r0
 108:	0000000c 	andeq	r0, r0, ip
 10c:	0000004c 	andeq	r0, r0, ip, asr #32
 110:	00008270 	andeq	r8, r0, r0, ror r2
 114:	00000038 	andeq	r0, r0, r8, lsr r0
 118:	00000018 	andeq	r0, r0, r8, lsl r0
 11c:	0000004c 	andeq	r0, r0, ip, asr #32
 120:	000082a8 	andeq	r8, r0, r8, lsr #5
 124:	00000050 	andeq	r0, r0, r0, asr r0
 128:	84100e42 	ldrhi	r0, [r0], #-3650	; 0xfffff1be
 12c:	86038504 	strhi	r8, [r3], -r4, lsl #10
 130:	00018e02 	andeq	r8, r1, r2, lsl #28
 134:	00000020 	andeq	r0, r0, r0, lsr #32
 138:	0000004c 	andeq	r0, r0, ip, asr #32
 13c:	000082f8 	strdeq	r8, [r0], -r8	; <UNPREDICTABLE>
 140:	0000011c 	andeq	r0, r0, ip, lsl r1
 144:	840c0e42 	strhi	r0, [ip], #-3650	; 0xfffff1be
 148:	8e028503 	cfsh32hi	mvfx8, mvfx2, #3
 14c:	280e4201 	stmdacs	lr, {r0, r9, lr}
 150:	0e0a4002 	cdpeq	0, 0, cr4, cr10, cr2, {0}
 154:	000b420c 	andeq	r4, fp, ip, lsl #4
 158:	00000020 	andeq	r0, r0, r0, lsr #32
 15c:	0000004c 	andeq	r0, r0, ip, asr #32
 160:	00008414 	andeq	r8, r0, r4, lsl r4
 164:	0000009c 	muleq	r0, ip, r0
 168:	84100e42 	ldrhi	r0, [r0], #-3650	; 0xfffff1be
 16c:	86038504 	strhi	r8, [r3], -r4, lsl #10
 170:	42018e02 	andmi	r8, r1, #2, 28
 174:	4202200e 	andmi	r2, r2, #14, 0
 178:	0000100e 	andeq	r1, r0, lr
 17c:	0000000c 	andeq	r0, r0, ip
 180:	ffffffff 			; <UNDEFINED> instruction: 0xffffffff
 184:	7c020001 	stcvc	0, cr0, [r2], {1}
 188:	000d0c0e 	andeq	r0, sp, lr, lsl #24
 18c:	0000000c 	andeq	r0, r0, ip
 190:	0000017c 	andeq	r0, r0, ip, ror r1
 194:	000084b0 			; <UNDEFINED> instruction: 0x000084b0
 198:	0000003c 	andeq	r0, r0, ip, lsr r0
 19c:	0000001c 	andeq	r0, r0, ip, lsl r0
 1a0:	0000017c 	andeq	r0, r0, ip, ror r1
 1a4:	000084ec 	andeq	r8, r0, ip, ror #9
 1a8:	00000100 	andeq	r0, r0, r0, lsl #2
 1ac:	84180e42 	ldrhi	r0, [r8], #-3650	; 0xfffff1be
 1b0:	86058506 	strhi	r8, [r5], -r6, lsl #10
 1b4:	88038704 	stmdahi	r3, {r2, r8, r9, sl, pc}
 1b8:	00018e02 	andeq	r8, r1, r2, lsl #28
 1bc:	0000001c 	andeq	r0, r0, ip, lsl r0
 1c0:	0000017c 	andeq	r0, r0, ip, ror r1
 1c4:	000085ec 	andeq	r8, r0, ip, ror #11
 1c8:	000000b8 	strheq	r0, [r0], -r8
 1cc:	84180e42 	ldrhi	r0, [r8], #-3650	; 0xfffff1be
 1d0:	86058506 	strhi	r8, [r5], -r6, lsl #10
 1d4:	88038704 	stmdahi	r3, {r2, r8, r9, sl, pc}
 1d8:	00018e02 	andeq	r8, r1, r2, lsl #28
 1dc:	00000014 	andeq	r0, r0, r4, lsl r0
 1e0:	0000017c 	andeq	r0, r0, ip, ror r1
 1e4:	000086a4 	andeq	r8, r0, r4, lsr #13
 1e8:	00000028 	andeq	r0, r0, r8, lsr #32
 1ec:	84080e42 	strhi	r0, [r8], #-3650	; 0xfffff1be
 1f0:	00018e02 	andeq	r8, r1, r2, lsl #28
 1f4:	00000024 	andeq	r0, r0, r4, lsr #32
 1f8:	0000017c 	andeq	r0, r0, ip, ror r1
 1fc:	000086cc 	andeq	r8, r0, ip, asr #13
 200:	00000134 	andeq	r0, r0, r4, lsr r1
 204:	84180e42 	ldrhi	r0, [r8], #-3650	; 0xfffff1be
 208:	86058506 	strhi	r8, [r5], -r6, lsl #10
 20c:	88038704 	stmdahi	r3, {r2, r8, r9, sl, pc}
 210:	42018e02 	andmi	r8, r1, #2, 28
 214:	8802200e 	stmdahi	r2, {r1, r2, r3, sp}
 218:	0000180e 	andeq	r1, r0, lr, lsl #16
 21c:	00000018 	andeq	r0, r0, r8, lsl r0
 220:	0000017c 	andeq	r0, r0, ip, ror r1
 224:	00008800 	andeq	r8, r0, r0, lsl #16
 228:	00000090 	muleq	r0, r0, r0
 22c:	8e040e42 	cdphi	14, 0, cr0, cr4, cr2, {2}
 230:	480e4201 	stmdami	lr, {r0, r9, lr}
 234:	00040e7a 	andeq	r0, r4, sl, ror lr
 238:	00000020 	andeq	r0, r0, r0, lsr #32
 23c:	0000017c 	andeq	r0, r0, ip, ror r1
 240:	00008890 	muleq	r0, r0, r8
 244:	000000b4 	strheq	r0, [r0], -r4
 248:	840c0e42 	strhi	r0, [ip], #-3650	; 0xfffff1be
 24c:	8e028503 	cfsh32hi	mvfx8, mvfx2, #3
 250:	180e4201 	stmdane	lr, {r0, r9, lr}
 254:	0c0e0a6a 			; <UNDEFINED> instruction: 0x0c0e0a6a
 258:	00000b42 	andeq	r0, r0, r2, asr #22
 25c:	00000014 	andeq	r0, r0, r4, lsl r0
 260:	0000017c 	andeq	r0, r0, ip, ror r1
 264:	00008944 	andeq	r8, r0, r4, asr #18
 268:	00000030 	andeq	r0, r0, r0, lsr r0
 26c:	84080e42 	strhi	r0, [r8], #-3650	; 0xfffff1be
 270:	00018e02 	andeq	r8, r1, r2, lsl #28
 274:	00000014 	andeq	r0, r0, r4, lsl r0
 278:	0000017c 	andeq	r0, r0, ip, ror r1
 27c:	00008974 	andeq	r8, r0, r4, ror r9
 280:	00000048 	andeq	r0, r0, r8, asr #32
 284:	84080e42 	strhi	r0, [r8], #-3650	; 0xfffff1be
 288:	00018e02 	andeq	r8, r1, r2, lsl #28
 28c:	00000014 	andeq	r0, r0, r4, lsl r0
 290:	0000017c 	andeq	r0, r0, ip, ror r1
 294:	000089bc 			; <UNDEFINED> instruction: 0x000089bc
 298:	00000050 	andeq	r0, r0, r0, asr r0
 29c:	84080e42 	strhi	r0, [r8], #-3650	; 0xfffff1be
 2a0:	00018e02 	andeq	r8, r1, r2, lsl #28
 2a4:	00000014 	andeq	r0, r0, r4, lsl r0
 2a8:	0000017c 	andeq	r0, r0, ip, ror r1
 2ac:	00008a0c 	andeq	r8, r0, ip, lsl #20
 2b0:	00000010 	andeq	r0, r0, r0, lsl r0
 2b4:	84080e42 	strhi	r0, [r8], #-3650	; 0xfffff1be
 2b8:	00018e02 	andeq	r8, r1, r2, lsl #28
 2bc:	00000014 	andeq	r0, r0, r4, lsl r0
 2c0:	0000017c 	andeq	r0, r0, ip, ror r1
 2c4:	00008a1c 	andeq	r8, r0, ip, lsl sl
 2c8:	00000028 	andeq	r0, r0, r8, lsr #32
 2cc:	84080e42 	strhi	r0, [r8], #-3650	; 0xfffff1be
 2d0:	00018e02 	andeq	r8, r1, r2, lsl #28
 2d4:	0000000c 	andeq	r0, r0, ip
 2d8:	ffffffff 			; <UNDEFINED> instruction: 0xffffffff
 2dc:	7c020001 	stcvc	0, cr0, [r2], {1}
 2e0:	000d0c0e 	andeq	r0, sp, lr, lsl #24
 2e4:	00000014 	andeq	r0, r0, r4, lsl r0
 2e8:	000002d4 	ldrdeq	r0, [r0], -r4
 2ec:	00008a88 	andeq	r8, r0, r8, lsl #21
 2f0:	000000bc 	strheq	r0, [r0], -ip
 2f4:	8e040e42 	cdphi	14, 0, cr0, cr4, cr2, {2}
 2f8:	00000001 	andeq	r0, r0, r1
 2fc:	00000014 	andeq	r0, r0, r4, lsl r0
 300:	000002d4 	ldrdeq	r0, [r0], -r4
 304:	00008b44 	andeq	r8, r0, r4, asr #22
 308:	00000044 	andeq	r0, r0, r4, asr #32
 30c:	84080e42 	strhi	r0, [r8], #-3650	; 0xfffff1be
 310:	00018e02 	andeq	r8, r1, r2, lsl #28
 314:	00000014 	andeq	r0, r0, r4, lsl r0
 318:	000002d4 	ldrdeq	r0, [r0], -r4
 31c:	00008b88 	andeq	r8, r0, r8, lsl #23
 320:	000000ac 	andeq	r0, r0, ip, lsr #1
 324:	84080e42 	strhi	r0, [r8], #-3650	; 0xfffff1be
 328:	00018e02 	andeq	r8, r1, r2, lsl #28
 32c:	0000000c 	andeq	r0, r0, ip
 330:	ffffffff 			; <UNDEFINED> instruction: 0xffffffff
 334:	7c020001 	stcvc	0, cr0, [r2], {1}
 338:	000d0c0e 	andeq	r0, sp, lr, lsl #24
 33c:	0000000c 	andeq	r0, r0, ip
 340:	0000032c 	andeq	r0, r0, ip, lsr #6
 344:	00008c34 	andeq	r8, r0, r4, lsr ip
 348:	00000018 	andeq	r0, r0, r8, lsl r0
 34c:	0000000c 	andeq	r0, r0, ip
 350:	ffffffff 			; <UNDEFINED> instruction: 0xffffffff
 354:	7c020001 	stcvc	0, cr0, [r2], {1}
 358:	000d0c0e 	andeq	r0, sp, lr, lsl #24
 35c:	00000034 	andeq	r0, r0, r4, lsr r0
 360:	0000034c 	andeq	r0, r0, ip, asr #6
 364:	00008c4c 	andeq	r8, r0, ip, asr #24
 368:	00000058 	andeq	r0, r0, r8, asr r0
 36c:	80100e42 	andshi	r0, r0, r2, asr #28
 370:	82038104 	andhi	r8, r3, #1
 374:	42018302 	andmi	r8, r1, #134217728	; 0x8000000
 378:	07841c0e 	streq	r1, [r4, lr, lsl #24]
 37c:	058e0685 	streq	r0, [lr, #1669]	; 0x685
 380:	5c280e42 	stcpl	14, cr0, [r8], #-264	; 0xfffffef8
 384:	ce421c0e 	cdpgt	12, 4, cr1, cr2, cr14, {0}
 388:	100ec4c5 	andne	ip, lr, r5, asr #9
 38c:	c1c2c342 	bicgt	ip, r2, r2, asr #6
 390:	00000ec0 	andeq	r0, r0, r0, asr #29
 394:	0000000c 	andeq	r0, r0, ip
 398:	ffffffff 			; <UNDEFINED> instruction: 0xffffffff
 39c:	7c020001 	stcvc	0, cr0, [r2], {1}
 3a0:	000d0c0e 	andeq	r0, sp, lr, lsl #24
 3a4:	00000014 	andeq	r0, r0, r4, lsl r0
 3a8:	00000394 	muleq	r0, r4, r3
 3ac:	00008ca4 	andeq	r8, r0, r4, lsr #25
 3b0:	00000034 	andeq	r0, r0, r4, lsr r0
 3b4:	84080e42 	strhi	r0, [r8], #-3650	; 0xfffff1be
 3b8:	00018e02 	andeq	r8, r1, r2, lsl #28
 3bc:	0000000c 	andeq	r0, r0, ip
 3c0:	ffffffff 			; <UNDEFINED> instruction: 0xffffffff
 3c4:	7c020001 	stcvc	0, cr0, [r2], {1}
 3c8:	000d0c0e 	andeq	r0, sp, lr, lsl #24
 3cc:	0000000c 	andeq	r0, r0, ip
 3d0:	000003bc 			; <UNDEFINED> instruction: 0x000003bc
 3d4:	00008cd8 	ldrdeq	r8, [r0], -r8	; <UNPREDICTABLE>
 3d8:	00000014 	andeq	r0, r0, r4, lsl r0
 3dc:	0000000c 	andeq	r0, r0, ip
 3e0:	000003bc 			; <UNDEFINED> instruction: 0x000003bc
 3e4:	00008cec 	andeq	r8, r0, ip, ror #25
 3e8:	00000024 	andeq	r0, r0, r4, lsr #32
 3ec:	0000000c 	andeq	r0, r0, ip
 3f0:	000003bc 			; <UNDEFINED> instruction: 0x000003bc
 3f4:	00008d10 	andeq	r8, r0, r0, lsl sp
 3f8:	00000038 	andeq	r0, r0, r8, lsr r0
 3fc:	00000024 	andeq	r0, r0, r4, lsr #32
 400:	000003bc 			; <UNDEFINED> instruction: 0x000003bc
 404:	00008d48 	andeq	r8, r0, r8, asr #26
 408:	000001b4 			; <UNDEFINED> instruction: 0x000001b4
 40c:	84140e42 	ldrhi	r0, [r4], #-3650	; 0xfffff1be
 410:	86048505 	strhi	r8, [r4], -r5, lsl #10
 414:	8e028703 	cdphi	7, 0, cr8, cr2, cr3, {0}
 418:	600e4201 	andvs	r4, lr, r1, lsl #4
 41c:	0e0a9a02 	vmlaeq.f32	s18, s20, s4
 420:	000b4214 	andeq	r4, fp, r4, lsl r2
 424:	00000014 	andeq	r0, r0, r4, lsl r0
 428:	000003bc 			; <UNDEFINED> instruction: 0x000003bc
 42c:	00008efc 	strdeq	r8, [r0], -ip
 430:	00000064 	andeq	r0, r0, r4, rrx
 434:	8e040e54 	mcrhi	14, 0, r0, cr4, cr4, {2}
 438:	100e4201 	andne	r4, lr, r1, lsl #4
 43c:	0000002c 	andeq	r0, r0, ip, lsr #32
 440:	000003bc 			; <UNDEFINED> instruction: 0x000003bc
 444:	00008f60 	andeq	r8, r0, r0, ror #30
 448:	000004b8 			; <UNDEFINED> instruction: 0x000004b8
 44c:	84240e42 	strthi	r0, [r4], #-3650	; 0xfffff1be
 450:	86088509 	strhi	r8, [r8], -r9, lsl #10
 454:	88068707 	stmdahi	r6, {r0, r1, r2, r8, r9, sl, pc}
 458:	8a048905 	bhi	122874 <__bss_end__+0x117e94>
 45c:	8e028b03 	vmlahi.f64	d8, d2, d3
 460:	b80e4201 	stmdalt	lr, {r0, r9, lr}
 464:	02380302 	eorseq	r0, r8, #134217728	; 0x8000000
 468:	0000240e 	andeq	r2, r0, lr, lsl #8
 46c:	0000000c 	andeq	r0, r0, ip
 470:	ffffffff 			; <UNDEFINED> instruction: 0xffffffff
 474:	7c020001 	stcvc	0, cr0, [r2], {1}
 478:	000d0c0e 	andeq	r0, sp, lr, lsl #24
 47c:	00000014 	andeq	r0, r0, r4, lsl r0
 480:	0000046c 	andeq	r0, r0, ip, ror #8
 484:	00009418 	andeq	r9, r0, r8, lsl r4
 488:	0000002c 	andeq	r0, r0, ip, lsr #32
 48c:	84080e42 	strhi	r0, [r8], #-3650	; 0xfffff1be
 490:	00018e02 	andeq	r8, r1, r2, lsl #28
 494:	0000000c 	andeq	r0, r0, ip
 498:	ffffffff 			; <UNDEFINED> instruction: 0xffffffff
 49c:	7c020001 	stcvc	0, cr0, [r2], {1}
 4a0:	000d0c0e 	andeq	r0, sp, lr, lsl #24
 4a4:	00000014 	andeq	r0, r0, r4, lsl r0
 4a8:	00000494 	muleq	r0, r4, r4
 4ac:	00009444 	andeq	r9, r0, r4, asr #8
 4b0:	0000003c 	andeq	r0, r0, ip, lsr r0
 4b4:	84080e42 	strhi	r0, [r8], #-3650	; 0xfffff1be
 4b8:	00018e02 	andeq	r8, r1, r2, lsl #28
 4bc:	0000000c 	andeq	r0, r0, ip
 4c0:	ffffffff 			; <UNDEFINED> instruction: 0xffffffff
 4c4:	7c020001 	stcvc	0, cr0, [r2], {1}
 4c8:	000d0c0e 	andeq	r0, sp, lr, lsl #24
 4cc:	0000000c 	andeq	r0, r0, ip
 4d0:	000004bc 			; <UNDEFINED> instruction: 0x000004bc
 4d4:	00009480 	andeq	r9, r0, r0, lsl #9
 4d8:	00000004 	andeq	r0, r0, r4
 4dc:	0000000c 	andeq	r0, r0, ip
 4e0:	ffffffff 			; <UNDEFINED> instruction: 0xffffffff
 4e4:	7c020001 	stcvc	0, cr0, [r2], {1}
 4e8:	000d0c0e 	andeq	r0, sp, lr, lsl #24
 4ec:	0000000c 	andeq	r0, r0, ip
 4f0:	000004dc 	ldrdeq	r0, [r0], -ip
 4f4:	00009484 	andeq	r9, r0, r4, lsl #9
 4f8:	00000018 	andeq	r0, r0, r8, lsl r0
 4fc:	0000000c 	andeq	r0, r0, ip
 500:	000004dc 	ldrdeq	r0, [r0], -ip
 504:	0000949c 	muleq	r0, ip, r4
 508:	00000014 	andeq	r0, r0, r4, lsl r0
 50c:	00000014 	andeq	r0, r0, r4, lsl r0
 510:	000004dc 	ldrdeq	r0, [r0], -ip
 514:	000094b0 			; <UNDEFINED> instruction: 0x000094b0
 518:	00000054 	andeq	r0, r0, r4, asr r0
 51c:	84080e42 	strhi	r0, [r8], #-3650	; 0xfffff1be
 520:	00018e02 	andeq	r8, r1, r2, lsl #28
 524:	0000000c 	andeq	r0, r0, ip
 528:	ffffffff 			; <UNDEFINED> instruction: 0xffffffff
 52c:	7c020001 	stcvc	0, cr0, [r2], {1}
 530:	000d0c0e 	andeq	r0, sp, lr, lsl #24
 534:	00000014 	andeq	r0, r0, r4, lsl r0
 538:	00000524 	andeq	r0, r0, r4, lsr #10
 53c:	00009504 	andeq	r9, r0, r4, lsl #10
 540:	00000014 	andeq	r0, r0, r4, lsl r0
 544:	84080e42 	strhi	r0, [r8], #-3650	; 0xfffff1be
 548:	00018e02 	andeq	r8, r1, r2, lsl #28
 54c:	00000014 	andeq	r0, r0, r4, lsl r0
 550:	00000524 	andeq	r0, r0, r4, lsr #10
 554:	00009518 	andeq	r9, r0, r8, lsl r5
 558:	0000001c 	andeq	r0, r0, ip, lsl r0
 55c:	84080e42 	strhi	r0, [r8], #-3650	; 0xfffff1be
 560:	00018e02 	andeq	r8, r1, r2, lsl #28
 564:	00000018 	andeq	r0, r0, r8, lsl r0
 568:	00000524 	andeq	r0, r0, r4, lsr #10
 56c:	00009534 	andeq	r9, r0, r4, lsr r5
 570:	00000024 	andeq	r0, r0, r4, lsr #32
 574:	84100e42 	ldrhi	r0, [r0], #-3650	; 0xfffff1be
 578:	86038504 	strhi	r8, [r3], -r4, lsl #10
 57c:	00018e02 	andeq	r8, r1, r2, lsl #28
 580:	00000014 	andeq	r0, r0, r4, lsl r0
 584:	00000524 	andeq	r0, r0, r4, lsr #10
 588:	00009558 	andeq	r9, r0, r8, asr r5
 58c:	00000018 	andeq	r0, r0, r8, lsl r0
 590:	84080e42 	strhi	r0, [r8], #-3650	; 0xfffff1be
 594:	00018e02 	andeq	r8, r1, r2, lsl #28
 598:	00000014 	andeq	r0, r0, r4, lsl r0
 59c:	00000524 	andeq	r0, r0, r4, lsr #10
 5a0:	00009570 	andeq	r9, r0, r0, ror r5
 5a4:	00000018 	andeq	r0, r0, r8, lsl r0
 5a8:	84080e42 	strhi	r0, [r8], #-3650	; 0xfffff1be
 5ac:	00018e02 	andeq	r8, r1, r2, lsl #28
 5b0:	0000000c 	andeq	r0, r0, ip
 5b4:	ffffffff 			; <UNDEFINED> instruction: 0xffffffff
 5b8:	7c020001 	stcvc	0, cr0, [r2], {1}
 5bc:	000d0c0e 	andeq	r0, sp, lr, lsl #24
 5c0:	00000018 	andeq	r0, r0, r8, lsl r0
 5c4:	000005b0 			; <UNDEFINED> instruction: 0x000005b0
 5c8:	00009588 	andeq	r9, r0, r8, lsl #11
 5cc:	00000020 	andeq	r0, r0, r0, lsr #32
 5d0:	84100e42 	ldrhi	r0, [r0], #-3650	; 0xfffff1be
 5d4:	86038504 	strhi	r8, [r3], -r4, lsl #10
 5d8:	00018e02 	andeq	r8, r1, r2, lsl #28
 5dc:	00000018 	andeq	r0, r0, r8, lsl r0
 5e0:	000005b0 			; <UNDEFINED> instruction: 0x000005b0
 5e4:	000095a8 	andeq	r9, r0, r8, lsr #11
 5e8:	00000020 	andeq	r0, r0, r0, lsr #32
 5ec:	84100e42 	ldrhi	r0, [r0], #-3650	; 0xfffff1be
 5f0:	86038504 	strhi	r8, [r3], -r4, lsl #10
 5f4:	00018e02 	andeq	r8, r1, r2, lsl #28
 5f8:	00000014 	andeq	r0, r0, r4, lsl r0
 5fc:	000005b0 			; <UNDEFINED> instruction: 0x000005b0
 600:	000095c8 	andeq	r9, r0, r8, asr #11
 604:	000000b0 	strheq	r0, [r0], -r0	; <UNPREDICTABLE>
 608:	84080e42 	strhi	r0, [r8], #-3650	; 0xfffff1be
 60c:	00018e02 	andeq	r8, r1, r2, lsl #28
 610:	00000014 	andeq	r0, r0, r4, lsl r0
 614:	000005b0 			; <UNDEFINED> instruction: 0x000005b0
 618:	00009678 	andeq	r9, r0, r8, ror r6
 61c:	00000018 	andeq	r0, r0, r8, lsl r0
 620:	84080e42 	strhi	r0, [r8], #-3650	; 0xfffff1be
 624:	00018e02 	andeq	r8, r1, r2, lsl #28
 628:	00000014 	andeq	r0, r0, r4, lsl r0
 62c:	000005b0 			; <UNDEFINED> instruction: 0x000005b0
 630:	00009690 	muleq	r0, r0, r6
 634:	00000020 	andeq	r0, r0, r0, lsr #32
 638:	84080e42 	strhi	r0, [r8], #-3650	; 0xfffff1be
 63c:	00018e02 	andeq	r8, r1, r2, lsl #28
 640:	00000014 	andeq	r0, r0, r4, lsl r0
 644:	000005b0 			; <UNDEFINED> instruction: 0x000005b0
 648:	000096b0 			; <UNDEFINED> instruction: 0x000096b0
 64c:	00000030 	andeq	r0, r0, r0, lsr r0
 650:	84080e42 	strhi	r0, [r8], #-3650	; 0xfffff1be
 654:	00018e02 	andeq	r8, r1, r2, lsl #28
 658:	00000014 	andeq	r0, r0, r4, lsl r0
 65c:	000005b0 			; <UNDEFINED> instruction: 0x000005b0
 660:	000096e0 	andeq	r9, r0, r0, ror #13
 664:	00000030 	andeq	r0, r0, r0, lsr r0
 668:	84080e42 	strhi	r0, [r8], #-3650	; 0xfffff1be
 66c:	00018e02 	andeq	r8, r1, r2, lsl #28
 670:	00000014 	andeq	r0, r0, r4, lsl r0
 674:	000005b0 			; <UNDEFINED> instruction: 0x000005b0
 678:	00009710 	andeq	r9, r0, r0, lsl r7
 67c:	00000010 	andeq	r0, r0, r0, lsl r0
 680:	84080e42 	strhi	r0, [r8], #-3650	; 0xfffff1be
 684:	00018e02 	andeq	r8, r1, r2, lsl #28
 688:	00000014 	andeq	r0, r0, r4, lsl r0
 68c:	000005b0 			; <UNDEFINED> instruction: 0x000005b0
 690:	00009720 	andeq	r9, r0, r0, lsr #14
 694:	00000020 	andeq	r0, r0, r0, lsr #32
 698:	84080e42 	strhi	r0, [r8], #-3650	; 0xfffff1be
 69c:	00018e02 	andeq	r8, r1, r2, lsl #28
 6a0:	00000014 	andeq	r0, r0, r4, lsl r0
 6a4:	000005b0 			; <UNDEFINED> instruction: 0x000005b0
 6a8:	00009740 	andeq	r9, r0, r0, asr #14
 6ac:	00000014 	andeq	r0, r0, r4, lsl r0
 6b0:	84080e42 	strhi	r0, [r8], #-3650	; 0xfffff1be
 6b4:	00018e02 	andeq	r8, r1, r2, lsl #28
 6b8:	00000014 	andeq	r0, r0, r4, lsl r0
 6bc:	000005b0 			; <UNDEFINED> instruction: 0x000005b0
 6c0:	00009754 	andeq	r9, r0, r4, asr r7
 6c4:	00000024 	andeq	r0, r0, r4, lsr #32
 6c8:	84080e42 	strhi	r0, [r8], #-3650	; 0xfffff1be
 6cc:	00018e02 	andeq	r8, r1, r2, lsl #28
 6d0:	0000000c 	andeq	r0, r0, ip
 6d4:	ffffffff 			; <UNDEFINED> instruction: 0xffffffff
 6d8:	7c020001 	stcvc	0, cr0, [r2], {1}
 6dc:	000d0c0e 	andeq	r0, sp, lr, lsl #24
 6e0:	0000000c 	andeq	r0, r0, ip
 6e4:	000006d0 	ldrdeq	r0, [r0], -r0	; <UNPREDICTABLE>
 6e8:	00009778 	andeq	r9, r0, r8, ror r7
 6ec:	00000010 	andeq	r0, r0, r0, lsl r0
 6f0:	0000000c 	andeq	r0, r0, ip
 6f4:	000006d0 	ldrdeq	r0, [r0], -r0	; <UNPREDICTABLE>
 6f8:	00009788 	andeq	r9, r0, r8, lsl #15
 6fc:	00000010 	andeq	r0, r0, r0, lsl r0
 700:	0000000c 	andeq	r0, r0, ip
 704:	000006d0 	ldrdeq	r0, [r0], -r0	; <UNPREDICTABLE>
 708:	00009798 	muleq	r0, r8, r7
 70c:	00000010 	andeq	r0, r0, r0, lsl r0
 710:	0000001c 	andeq	r0, r0, ip, lsl r0
 714:	000006d0 	ldrdeq	r0, [r0], -r0	; <UNPREDICTABLE>
 718:	000097a8 	andeq	r9, r0, r8, lsr #15
 71c:	0000009c 	muleq	r0, ip, r0
 720:	8e040e42 	cdphi	14, 0, cr0, cr4, cr2, {2}
 724:	100e4201 	andne	r4, lr, r1, lsl #4
 728:	040e0a58 	streq	r0, [lr], #-2648	; 0xfffff5a8
 72c:	00000b42 	andeq	r0, r0, r2, asr #22
 730:	00000014 	andeq	r0, r0, r4, lsl r0
 734:	000006d0 	ldrdeq	r0, [r0], -r0	; <UNPREDICTABLE>
 738:	00009844 	andeq	r9, r0, r4, asr #16
 73c:	00000058 	andeq	r0, r0, r8, asr r0
 740:	84080e42 	strhi	r0, [r8], #-3650	; 0xfffff1be
 744:	00018e02 	andeq	r8, r1, r2, lsl #28
 748:	0000001c 	andeq	r0, r0, ip, lsl r0
 74c:	000006d0 	ldrdeq	r0, [r0], -r0	; <UNPREDICTABLE>
 750:	0000989c 	muleq	r0, ip, r8
 754:	00000098 	muleq	r0, r8, r0
 758:	8e040e42 	cdphi	14, 0, cr0, cr4, cr2, {2}
 75c:	100e4201 	andne	r4, lr, r1, lsl #4
 760:	040e0a58 	streq	r0, [lr], #-2648	; 0xfffff5a8
 764:	00000b42 	andeq	r0, r0, r2, asr #22
 768:	00000020 	andeq	r0, r0, r0, lsr #32
 76c:	000006d0 	ldrdeq	r0, [r0], -r0	; <UNPREDICTABLE>
 770:	00009934 	andeq	r9, r0, r4, lsr r9
 774:	00000064 	andeq	r0, r0, r4, rrx
 778:	840c0e42 	strhi	r0, [ip], #-3650	; 0xfffff1be
 77c:	8e028503 	cfsh32hi	mvfx8, mvfx2, #3
 780:	180e4201 	stmdane	lr, {r0, r9, lr}
 784:	0c0e0a54 			; <UNDEFINED> instruction: 0x0c0e0a54
 788:	00000b42 	andeq	r0, r0, r2, asr #22
 78c:	0000001c 	andeq	r0, r0, ip, lsl r0
 790:	000006d0 	ldrdeq	r0, [r0], -r0	; <UNPREDICTABLE>
 794:	00009998 	muleq	r0, r8, r9
 798:	00000118 	andeq	r0, r0, r8, lsl r1
 79c:	8e040e42 	cdphi	14, 0, cr0, cr4, cr2, {2}
 7a0:	100e4201 	andne	r4, lr, r1, lsl #4
 7a4:	040e0a6c 	streq	r0, [lr], #-2668	; 0xfffff594
 7a8:	00000b42 	andeq	r0, r0, r2, asr #22
 7ac:	0000000c 	andeq	r0, r0, ip
 7b0:	000006d0 	ldrdeq	r0, [r0], -r0	; <UNPREDICTABLE>
 7b4:	00009ab0 			; <UNDEFINED> instruction: 0x00009ab0
 7b8:	00000004 	andeq	r0, r0, r4
 7bc:	0000000c 	andeq	r0, r0, ip
 7c0:	000006d0 	ldrdeq	r0, [r0], -r0	; <UNPREDICTABLE>
 7c4:	00009ab4 			; <UNDEFINED> instruction: 0x00009ab4
 7c8:	00000014 	andeq	r0, r0, r4, lsl r0
 7cc:	00000014 	andeq	r0, r0, r4, lsl r0
 7d0:	000006d0 	ldrdeq	r0, [r0], -r0	; <UNPREDICTABLE>
 7d4:	00009ac8 	andeq	r9, r0, r8, asr #21
 7d8:	00000060 	andeq	r0, r0, r0, rrx
 7dc:	8e040e58 	mcrhi	14, 0, r0, cr4, cr8, {2}
 7e0:	100e4201 	andne	r4, lr, r1, lsl #4
 7e4:	0000000c 	andeq	r0, r0, ip
 7e8:	ffffffff 			; <UNDEFINED> instruction: 0xffffffff
 7ec:	7c020001 	stcvc	0, cr0, [r2], {1}
 7f0:	000d0c0e 	andeq	r0, sp, lr, lsl #24
 7f4:	00000014 	andeq	r0, r0, r4, lsl r0
 7f8:	000007e4 	andeq	r0, r0, r4, ror #15
 7fc:	00009b28 	andeq	r9, r0, r8, lsr #22
 800:	00000014 	andeq	r0, r0, r4, lsl r0
 804:	84080e42 	strhi	r0, [r8], #-3650	; 0xfffff1be
 808:	00018e02 	andeq	r8, r1, r2, lsl #28
 80c:	0000000c 	andeq	r0, r0, ip
 810:	000007e4 	andeq	r0, r0, r4, ror #15
 814:	00009b3c 	andeq	r9, r0, ip, lsr fp
 818:	00000018 	andeq	r0, r0, r8, lsl r0
 81c:	0000000c 	andeq	r0, r0, ip
 820:	000007e4 	andeq	r0, r0, r4, ror #15
 824:	00009b54 	andeq	r9, r0, r4, asr fp
 828:	00000010 	andeq	r0, r0, r0, lsl r0
 82c:	0000000c 	andeq	r0, r0, ip
 830:	ffffffff 			; <UNDEFINED> instruction: 0xffffffff
 834:	7c020001 	stcvc	0, cr0, [r2], {1}
 838:	000d0c0e 	andeq	r0, sp, lr, lsl #24
 83c:	0000000c 	andeq	r0, r0, ip
 840:	0000082c 	andeq	r0, r0, ip, lsr #16
 844:	00009b64 	andeq	r9, r0, r4, ror #22
 848:	00000034 	andeq	r0, r0, r4, lsr r0
 84c:	0000000c 	andeq	r0, r0, ip
 850:	ffffffff 			; <UNDEFINED> instruction: 0xffffffff
 854:	7c020001 	stcvc	0, cr0, [r2], {1}
 858:	000d0c0e 	andeq	r0, sp, lr, lsl #24
 85c:	0000000c 	andeq	r0, r0, ip
 860:	0000084c 	andeq	r0, r0, ip, asr #16
 864:	00009b98 	muleq	r0, r8, fp
 868:	0000002c 	andeq	r0, r0, ip, lsr #32
 86c:	0000000c 	andeq	r0, r0, ip
 870:	ffffffff 			; <UNDEFINED> instruction: 0xffffffff
 874:	7c020001 	stcvc	0, cr0, [r2], {1}
 878:	000d0c0e 	andeq	r0, sp, lr, lsl #24
 87c:	0000000c 	andeq	r0, r0, ip
 880:	0000086c 	andeq	r0, r0, ip, ror #16
 884:	00009bc4 	andeq	r9, r0, r4, asr #23
 888:	00000020 	andeq	r0, r0, r0, lsr #32
 88c:	0000000c 	andeq	r0, r0, ip
 890:	ffffffff 			; <UNDEFINED> instruction: 0xffffffff
 894:	7c020001 	stcvc	0, cr0, [r2], {1}
 898:	000d0c0e 	andeq	r0, sp, lr, lsl #24
 89c:	0000000c 	andeq	r0, r0, ip
 8a0:	0000088c 	andeq	r0, r0, ip, lsl #17
 8a4:	00009be4 	andeq	r9, r0, r4, ror #23
 8a8:	0000002c 	andeq	r0, r0, ip, lsr #32
 8ac:	0000000c 	andeq	r0, r0, ip
 8b0:	ffffffff 			; <UNDEFINED> instruction: 0xffffffff
 8b4:	7c020001 	stcvc	0, cr0, [r2], {1}
 8b8:	000d0c0e 	andeq	r0, sp, lr, lsl #24
 8bc:	0000000c 	andeq	r0, r0, ip
 8c0:	000008ac 	andeq	r0, r0, ip, lsr #17
 8c4:	00009c10 	andeq	r9, r0, r0, lsl ip
 8c8:	00000004 	andeq	r0, r0, r4
 8cc:	0000000c 	andeq	r0, r0, ip
 8d0:	ffffffff 			; <UNDEFINED> instruction: 0xffffffff
 8d4:	7c020001 	stcvc	0, cr0, [r2], {1}
 8d8:	000d0c0e 	andeq	r0, sp, lr, lsl #24
 8dc:	00000018 	andeq	r0, r0, r8, lsl r0
 8e0:	000008cc 	andeq	r0, r0, ip, asr #17
 8e4:	00009c2c 	andeq	r9, r0, ip, lsr #24
 8e8:	00000064 	andeq	r0, r0, r4, rrx
 8ec:	84100e46 	ldrhi	r0, [r0], #-3654	; 0xfffff1ba
 8f0:	86038504 	strhi	r8, [r3], -r4, lsl #10
 8f4:	00018e02 	andeq	r8, r1, r2, lsl #28
 8f8:	00000014 	andeq	r0, r0, r4, lsl r0
 8fc:	000008cc 	andeq	r0, r0, ip, asr #17
 900:	00009c90 	muleq	r0, r0, ip
 904:	00000010 	andeq	r0, r0, r0, lsl r0
 908:	84080e42 	strhi	r0, [r8], #-3650	; 0xfffff1be
 90c:	00018e02 	andeq	r8, r1, r2, lsl #28
 910:	00000014 	andeq	r0, r0, r4, lsl r0
 914:	000008cc 	andeq	r0, r0, ip, asr #17
 918:	00009ca0 	andeq	r9, r0, r0, lsr #25
 91c:	00000024 	andeq	r0, r0, r4, lsr #32
 920:	84080e46 	strhi	r0, [r8], #-3654	; 0xfffff1ba
 924:	00018e02 	andeq	r8, r1, r2, lsl #28
 928:	00000014 	andeq	r0, r0, r4, lsl r0
 92c:	000008cc 	andeq	r0, r0, ip, asr #17
 930:	00009cc4 	andeq	r9, r0, r4, asr #25
 934:	00000024 	andeq	r0, r0, r4, lsr #32
 938:	84080e46 	strhi	r0, [r8], #-3654	; 0xfffff1ba
 93c:	00018e02 	andeq	r8, r1, r2, lsl #28
 940:	00000014 	andeq	r0, r0, r4, lsl r0
 944:	000008cc 	andeq	r0, r0, ip, asr #17
 948:	00009ce8 	andeq	r9, r0, r8, ror #25
 94c:	00000010 	andeq	r0, r0, r0, lsl r0
 950:	84080e42 	strhi	r0, [r8], #-3650	; 0xfffff1be
 954:	00018e02 	andeq	r8, r1, r2, lsl #28
 958:	00000014 	andeq	r0, r0, r4, lsl r0
 95c:	000008cc 	andeq	r0, r0, ip, asr #17
 960:	00009cf8 	strdeq	r9, [r0], -r8
 964:	0000001c 	andeq	r0, r0, ip, lsl r0
 968:	84080e42 	strhi	r0, [r8], #-3650	; 0xfffff1be
 96c:	00018e02 	andeq	r8, r1, r2, lsl #28
 970:	00000018 	andeq	r0, r0, r8, lsl r0
 974:	000008cc 	andeq	r0, r0, ip, asr #17
 978:	00009d14 	andeq	r9, r0, r4, lsl sp
 97c:	00000034 	andeq	r0, r0, r4, lsr r0
 980:	84080e46 	strhi	r0, [r8], #-3654	; 0xfffff1ba
 984:	4e018e02 	cdpmi	14, 0, cr8, cr1, cr2, {0}
 988:	cec4000e 	cdpgt	0, 12, cr0, cr4, cr14, {0}

Disassembly of section .debug_ranges:

00000000 <.debug_ranges>:
   0:	00000010 	andeq	r0, r0, r0, lsl r0
   4:	00000028 	andeq	r0, r0, r8, lsr #32
   8:	00000040 	andeq	r0, r0, r0, asr #32
   c:	00000074 	andeq	r0, r0, r4, ror r0
	...
  18:	00000248 	andeq	r0, r0, r8, asr #4
  1c:	0000024c 	andeq	r0, r0, ip, asr #4
  20:	000002ac 	andeq	r0, r0, ip, lsr #5
  24:	00000330 	andeq	r0, r0, r0, lsr r3
	...
  30:	000002ac 	andeq	r0, r0, ip, lsr #5
  34:	000002c8 	andeq	r0, r0, r8, asr #5
  38:	000002d4 	ldrdeq	r0, [r0], -r4
  3c:	00000330 	andeq	r0, r0, r0, lsr r3
	...
  48:	000002ac 	andeq	r0, r0, ip, lsr #5
  4c:	000002c8 	andeq	r0, r0, r8, asr #5
  50:	000002f4 	strdeq	r0, [r0], -r4
  54:	00000330 	andeq	r0, r0, r0, lsr r3
	...
  60:	00009484 	andeq	r9, r0, r4, lsl #9
  64:	00009504 	andeq	r9, r0, r4, lsl #10
	...
  70:	00000134 	andeq	r0, r0, r4, lsr r1
  74:	00000134 	andeq	r0, r0, r4, lsr r1
  78:	00000134 	andeq	r0, r0, r4, lsr r1
  7c:	0000013c 	andeq	r0, r0, ip, lsr r1
	...
  88:	0000024c 	andeq	r0, r0, ip, asr #4
  8c:	00000264 	andeq	r0, r0, r4, ror #4
  90:	000002c8 	andeq	r0, r0, r8, asr #5
  94:	000002e8 	andeq	r0, r0, r8, ror #5
	...
  a0:	00009be4 	andeq	r9, r0, r4, ror #23
  a4:	00009c10 	andeq	r9, r0, r0, lsl ip
	...
