
tests/part2-test1.elf:     file format elf32-littlearm


Disassembly of section .text:

00008000 <__code_start__>:
    8000:	e3a00013 	mov	r0, #19, 0
    8004:	e3800080 	orr	r0, r0, #128, 0	; 0x80
    8008:	e129f000 	msr	CPSR_fc, r0
    800c:	e3a01000 	mov	r1, #0, 0
    8010:	ee071f95 	mcr	15, 0, r1, cr7, cr5, {4}
    8014:	e3a0d302 	mov	sp, #134217728	; 0x8000000
    8018:	e3a0b000 	mov	fp, #0, 0
    801c:	eb000469 	bl	91c8 <_cstart>
    8020:	eb000483 	bl	9234 <rpi_reboot>

00008024 <PUT32>:
    8024:	e5801000 	str	r1, [r0]
    8028:	e12fff1e 	bx	lr

0000802c <GET32>:
    802c:	e5900000 	ldr	r0, [r0]
    8030:	e12fff1e 	bx	lr

00008034 <BRANCHTO>:
    8034:	e12fff10 	bx	r0

00008038 <test1>:
    8038:	e92d4070 	push	{r4, r5, r6, lr}
    803c:	e24dd018 	sub	sp, sp, #24, 0
    8040:	e59f6068 	ldr	r6, [pc, #104]	; 80b0 <test1+0x78>
    8044:	e58d6000 	str	r6, [sp]
    8048:	e59f5064 	ldr	r5, [pc, #100]	; 80b4 <test1+0x7c>
    804c:	e58d5004 	str	r5, [sp, #4]
    8050:	e3a03009 	mov	r3, #9, 0
    8054:	e58d3008 	str	r3, [sp, #8]
    8058:	e1a0300d 	mov	r3, sp
    805c:	e893000e 	ldm	r3, {r1, r2, r3}
    8060:	e3a00004 	mov	r0, #4, 0
    8064:	eb0000e5 	bl	8400 <ckalloc>
    8068:	e1a04000 	mov	r4, r0
    806c:	e1a01000 	mov	r1, r0
    8070:	e59f0040 	ldr	r0, [pc, #64]	; 80b8 <test1+0x80>
    8074:	eb000255 	bl	89d0 <printk>
    8078:	e3a02004 	mov	r2, #4, 0
    807c:	e3a01000 	mov	r1, #0, 0
    8080:	e1a00004 	mov	r0, r4
    8084:	eb00024b 	bl	89b8 <memset>
    8088:	e58d600c 	str	r6, [sp, #12]
    808c:	e58d5010 	str	r5, [sp, #16]
    8090:	e3a0300c 	mov	r3, #12, 0
    8094:	e58d3014 	str	r3, [sp, #20]
    8098:	e28d3018 	add	r3, sp, #24, 0
    809c:	e913000e 	ldmdb	r3, {r1, r2, r3}
    80a0:	e1a00004 	mov	r0, r4
    80a4:	eb00008e 	bl	82e4 <ckfree>
    80a8:	e28dd018 	add	sp, sp, #24, 0
    80ac:	e8bd8070 	pop	{r4, r5, r6, pc}
    80b0:	00009ad0 	ldrdeq	r9, [r0], -r0
    80b4:	00009b50 	andeq	r9, r0, r0, asr fp
    80b8:	00009ae4 	andeq	r9, r0, r4, ror #21

000080bc <notmain>:
    80bc:	e92d4010 	push	{r4, lr}
    80c0:	e59f0038 	ldr	r0, [pc, #56]	; 8100 <notmain+0x44>
    80c4:	eb000241 	bl	89d0 <printk>
    80c8:	ebffffda 	bl	8038 <test1>
    80cc:	e3a00001 	mov	r0, #1, 0
    80d0:	eb0001b0 	bl	8798 <ck_find_leaks>
    80d4:	e3500000 	cmp	r0, #0, 0
    80d8:	1a000002 	bne	80e8 <notmain+0x2c>
    80dc:	e59f0020 	ldr	r0, [pc, #32]	; 8104 <notmain+0x48>
    80e0:	eb00023a 	bl	89d0 <printk>
    80e4:	e8bd8010 	pop	{r4, pc}
    80e8:	e3a0301f 	mov	r3, #31, 0
    80ec:	e59f2014 	ldr	r2, [pc, #20]	; 8108 <notmain+0x4c>
    80f0:	e59f1014 	ldr	r1, [pc, #20]	; 810c <notmain+0x50>
    80f4:	e59f0014 	ldr	r0, [pc, #20]	; 8110 <notmain+0x54>
    80f8:	eb000234 	bl	89d0 <printk>
    80fc:	eb000426 	bl	919c <clean_reboot>
    8100:	00009b00 	andeq	r9, r0, r0, lsl #22
    8104:	00009b34 	andeq	r9, r0, r4, lsr fp
    8108:	00009b58 	andeq	r9, r0, r8, asr fp
    810c:	00009ad0 	ldrdeq	r9, [r0], -r0
    8110:	00009b0c 	andeq	r9, r0, ip, lsl #22

00008114 <list_append>:
    8114:	e59f3058 	ldr	r3, [pc, #88]	; 8174 <list_append+0x60>
    8118:	e5933000 	ldr	r3, [r3]
    811c:	e3530000 	cmp	r3, #0, 0
    8120:	0a000005 	beq	813c <list_append+0x28>
    8124:	e3500000 	cmp	r0, #0, 0
    8128:	0a000007 	beq	814c <list_append+0x38>
    812c:	e59f2040 	ldr	r2, [pc, #64]	; 8174 <list_append+0x60>
    8130:	e5821000 	str	r1, [r2]
    8134:	e5831000 	str	r1, [r3]
    8138:	e12fff1e 	bx	lr
    813c:	e59f3030 	ldr	r3, [pc, #48]	; 8174 <list_append+0x60>
    8140:	e5831004 	str	r1, [r3, #4]
    8144:	e5831000 	str	r1, [r3]
    8148:	e12fff1e 	bx	lr
    814c:	e52de004 	push	{lr}		; (str lr, [sp, #-4]!)
    8150:	e24dd00c 	sub	sp, sp, #12, 0
    8154:	e59f301c 	ldr	r3, [pc, #28]	; 8178 <list_append+0x64>
    8158:	e58d3000 	str	r3, [sp]
    815c:	e3a03026 	mov	r3, #38, 0	; 0x26
    8160:	e59f2014 	ldr	r2, [pc, #20]	; 817c <list_append+0x68>
    8164:	e59f1014 	ldr	r1, [pc, #20]	; 8180 <list_append+0x6c>
    8168:	e59f0014 	ldr	r0, [pc, #20]	; 8184 <list_append+0x70>
    816c:	eb000217 	bl	89d0 <printk>
    8170:	eb000409 	bl	919c <clean_reboot>
    8174:	0000a150 	andeq	sl, r0, r0, asr r1
    8178:	00009b80 	andeq	r9, r0, r0, lsl #23
    817c:	00009c5c 	andeq	r9, r0, ip, asr ip
    8180:	00009b60 	andeq	r9, r0, r0, ror #22
    8184:	00009b6c 	andeq	r9, r0, ip, ror #22

00008188 <ck_first_hdr>:
    8188:	e59f3004 	ldr	r3, [pc, #4]	; 8194 <ck_first_hdr+0xc>
    818c:	e5930004 	ldr	r0, [r3, #4]
    8190:	e12fff1e 	bx	lr
    8194:	0000a150 	andeq	sl, r0, r0, asr r1

00008198 <ck_next_hdr>:
    8198:	e3500000 	cmp	r0, #0, 0
    819c:	012fff1e 	bxeq	lr
    81a0:	e5900000 	ldr	r0, [r0]
    81a4:	e12fff1e 	bx	lr

000081a8 <list_remove>:
    81a8:	e92d4030 	push	{r4, r5, lr}
    81ac:	e24dd00c 	sub	sp, sp, #12, 0
    81b0:	e3500000 	cmp	r0, #0, 0
    81b4:	0a00000c 	beq	81ec <list_remove+0x44>
    81b8:	e1a04001 	mov	r4, r1
    81bc:	e1500001 	cmp	r0, r1
    81c0:	0a000007 	beq	81e4 <list_remove+0x3c>
    81c4:	e1a05000 	mov	r5, r0
    81c8:	ebfffff2 	bl	8198 <ck_next_hdr>
    81cc:	e3500000 	cmp	r0, #0, 0
    81d0:	0a00000d 	beq	820c <list_remove+0x64>
    81d4:	e1540000 	cmp	r4, r0
    81d8:	1afffff9 	bne	81c4 <list_remove+0x1c>
    81dc:	e5903000 	ldr	r3, [r0]
    81e0:	e5853000 	str	r3, [r5]
    81e4:	e28dd00c 	add	sp, sp, #12, 0
    81e8:	e8bd8030 	pop	{r4, r5, pc}
    81ec:	e59f3034 	ldr	r3, [pc, #52]	; 8228 <list_remove+0x80>
    81f0:	e58d3000 	str	r3, [sp]
    81f4:	e3a0300c 	mov	r3, #12, 0
    81f8:	e59f202c 	ldr	r2, [pc, #44]	; 822c <list_remove+0x84>
    81fc:	e59f102c 	ldr	r1, [pc, #44]	; 8230 <list_remove+0x88>
    8200:	e59f002c 	ldr	r0, [pc, #44]	; 8234 <list_remove+0x8c>
    8204:	eb0001f1 	bl	89d0 <printk>
    8208:	eb0003e3 	bl	919c <clean_reboot>
    820c:	e58d4000 	str	r4, [sp]
    8210:	e3a0301c 	mov	r3, #28, 0
    8214:	e59f2010 	ldr	r2, [pc, #16]	; 822c <list_remove+0x84>
    8218:	e59f1010 	ldr	r1, [pc, #16]	; 8230 <list_remove+0x88>
    821c:	e59f0014 	ldr	r0, [pc, #20]	; 8238 <list_remove+0x90>
    8220:	eb0001ea 	bl	89d0 <printk>
    8224:	eb0003dc 	bl	919c <clean_reboot>
    8228:	00009b80 	andeq	r9, r0, r0, lsl #23
    822c:	00009c68 	andeq	r9, r0, r8, ror #24
    8230:	00009b60 	andeq	r9, r0, r0, ror #22
    8234:	00009b6c 	andeq	r9, r0, ip, ror #22
    8238:	00009b84 	andeq	r9, r0, r4, lsl #23

0000823c <ck_hdr_start>:
    823c:	e2800024 	add	r0, r0, #36, 0	; 0x24
    8240:	e12fff1e 	bx	lr

00008244 <ck_hdr_end>:
    8244:	e92d4010 	push	{r4, lr}
    8248:	e1a04000 	mov	r4, r0
    824c:	ebfffffa 	bl	823c <ck_hdr_start>
    8250:	e5943004 	ldr	r3, [r4, #4]
    8254:	e0800003 	add	r0, r0, r3
    8258:	e8bd8010 	pop	{r4, pc}

0000825c <ck_ptr_in_block>:
    825c:	e5903004 	ldr	r3, [r0, #4]
    8260:	e2833024 	add	r3, r3, #36, 0	; 0x24
    8264:	e0803003 	add	r3, r0, r3
    8268:	e1530001 	cmp	r3, r1
    826c:	3a000004 	bcc	8284 <ck_ptr_in_block+0x28>
    8270:	e2800024 	add	r0, r0, #36, 0	; 0x24
    8274:	e1500001 	cmp	r0, r1
    8278:	9a000003 	bls	828c <ck_ptr_in_block+0x30>
    827c:	e3a00000 	mov	r0, #0, 0
    8280:	e12fff1e 	bx	lr
    8284:	e3a00000 	mov	r0, #0, 0
    8288:	e12fff1e 	bx	lr
    828c:	e3a00001 	mov	r0, #1, 0
    8290:	e12fff1e 	bx	lr

00008294 <ck_ptr_is_alloced>:
    8294:	e92d4070 	push	{r4, r5, r6, lr}
    8298:	e1a05000 	mov	r5, r0
    829c:	ebffffb9 	bl	8188 <ck_first_hdr>
    82a0:	e1a04000 	mov	r4, r0
    82a4:	ea000002 	b	82b4 <ck_ptr_is_alloced+0x20>
    82a8:	e1a00004 	mov	r0, r4
    82ac:	ebffffb9 	bl	8198 <ck_next_hdr>
    82b0:	e1a04000 	mov	r4, r0
    82b4:	e3540000 	cmp	r4, #0, 0
    82b8:	0a000007 	beq	82dc <ck_ptr_is_alloced+0x48>
    82bc:	e1a01005 	mov	r1, r5
    82c0:	e1a00004 	mov	r0, r4
    82c4:	ebffffe4 	bl	825c <ck_ptr_in_block>
    82c8:	e3500000 	cmp	r0, #0, 0
    82cc:	0afffff5 	beq	82a8 <ck_ptr_is_alloced+0x14>
    82d0:	e5943008 	ldr	r3, [r4, #8]
    82d4:	e353000b 	cmp	r3, #11, 0
    82d8:	1afffff2 	bne	82a8 <ck_ptr_is_alloced+0x14>
    82dc:	e1a00004 	mov	r0, r4
    82e0:	e8bd8070 	pop	{r4, r5, r6, pc}

000082e4 <ckfree>:
    82e4:	e92d4030 	push	{r4, r5, lr}
    82e8:	e24dd01c 	sub	sp, sp, #28, 0
    82ec:	e1a04000 	mov	r4, r0
    82f0:	e28d0018 	add	r0, sp, #24, 0
    82f4:	e900000e 	stmdb	r0, {r1, r2, r3}
    82f8:	e514301c 	ldr	r3, [r4, #-28]	; 0xffffffe4
    82fc:	e353000b 	cmp	r3, #11, 0
    8300:	1a00001a 	bne	8370 <ckfree+0x8c>
    8304:	e2445024 	sub	r5, r4, #36, 0	; 0x24
    8308:	e59d3014 	ldr	r3, [sp, #20]
    830c:	e59d2010 	ldr	r2, [sp, #16]
    8310:	e59d100c 	ldr	r1, [sp, #12]
    8314:	e59f00bc 	ldr	r0, [pc, #188]	; 83d8 <ckfree+0xf4>
    8318:	eb0001ac 	bl	89d0 <printk>
    831c:	e1a01004 	mov	r1, r4
    8320:	e59f00b4 	ldr	r0, [pc, #180]	; 83dc <ckfree+0xf8>
    8324:	eb0001a9 	bl	89d0 <printk>
    8328:	e1a00004 	mov	r0, r4
    832c:	ebffffd8 	bl	8294 <ck_ptr_is_alloced>
    8330:	e3500000 	cmp	r0, #0, 0
    8334:	0a000017 	beq	8398 <ckfree+0xb4>
    8338:	e3a0300c 	mov	r3, #12, 0
    833c:	e504301c 	str	r3, [r4, #-28]	; 0xffffffe4
    8340:	e1a01005 	mov	r1, r5
    8344:	e59f3094 	ldr	r3, [pc, #148]	; 83e0 <ckfree+0xfc>
    8348:	e5930004 	ldr	r0, [r3, #4]
    834c:	ebffff95 	bl	81a8 <list_remove>
    8350:	e1a00004 	mov	r0, r4
    8354:	ebffffce 	bl	8294 <ck_ptr_is_alloced>
    8358:	e3500000 	cmp	r0, #0, 0
    835c:	1a000015 	bne	83b8 <ckfree+0xd4>
    8360:	e1a00005 	mov	r0, r5
    8364:	eb000128 	bl	880c <kr_free>
    8368:	e28dd01c 	add	sp, sp, #28, 0
    836c:	e8bd8030 	pop	{r4, r5, pc}
    8370:	e59d3014 	ldr	r3, [sp, #20]
    8374:	e59d2010 	ldr	r2, [sp, #16]
    8378:	e59d100c 	ldr	r1, [sp, #12]
    837c:	e59f0060 	ldr	r0, [pc, #96]	; 83e4 <ckfree+0x100>
    8380:	eb000192 	bl	89d0 <printk>
    8384:	e514201c 	ldr	r2, [r4, #-28]	; 0xffffffe4
    8388:	e1a01004 	mov	r1, r4
    838c:	e59f0054 	ldr	r0, [pc, #84]	; 83e8 <ckfree+0x104>
    8390:	eb00018e 	bl	89d0 <printk>
    8394:	eb000380 	bl	919c <clean_reboot>
    8398:	e59f304c 	ldr	r3, [pc, #76]	; 83ec <ckfree+0x108>
    839c:	e58d3000 	str	r3, [sp]
    83a0:	e3a0305f 	mov	r3, #95, 0	; 0x5f
    83a4:	e59f2044 	ldr	r2, [pc, #68]	; 83f0 <ckfree+0x10c>
    83a8:	e59f1044 	ldr	r1, [pc, #68]	; 83f4 <ckfree+0x110>
    83ac:	e59f0044 	ldr	r0, [pc, #68]	; 83f8 <ckfree+0x114>
    83b0:	eb000186 	bl	89d0 <printk>
    83b4:	eb000378 	bl	919c <clean_reboot>
    83b8:	e59f303c 	ldr	r3, [pc, #60]	; 83fc <ckfree+0x118>
    83bc:	e58d3000 	str	r3, [sp]
    83c0:	e3a03062 	mov	r3, #98, 0	; 0x62
    83c4:	e59f2024 	ldr	r2, [pc, #36]	; 83f0 <ckfree+0x10c>
    83c8:	e59f1024 	ldr	r1, [pc, #36]	; 83f4 <ckfree+0x110>
    83cc:	e59f0024 	ldr	r0, [pc, #36]	; 83f8 <ckfree+0x114>
    83d0:	eb00017e 	bl	89d0 <printk>
    83d4:	eb000370 	bl	919c <clean_reboot>
    83d8:	00009bf8 	strdeq	r9, [r0], -r8
    83dc:	00009c04 	andeq	r9, r0, r4, lsl #24
    83e0:	0000a150 	andeq	sl, r0, r0, asr r1
    83e4:	00009bb0 			; <UNDEFINED> instruction: 0x00009bb0
    83e8:	00009bc8 	andeq	r9, r0, r8, asr #23
    83ec:	00009c10 	andeq	r9, r0, r0, lsl ip
    83f0:	00009c74 	andeq	r9, r0, r4, ror ip
    83f4:	00009b60 	andeq	r9, r0, r0, ror #22
    83f8:	00009b6c 	andeq	r9, r0, ip, ror #22
    83fc:	00009c30 	andeq	r9, r0, r0, lsr ip

00008400 <ckalloc>:
    8400:	e92d4070 	push	{r4, r5, r6, lr}
    8404:	e24dd010 	sub	sp, sp, #16, 0
    8408:	e1a06000 	mov	r6, r0
    840c:	e28d5004 	add	r5, sp, #4, 0
    8410:	e885000e 	stm	r5, {r1, r2, r3}
    8414:	e2800024 	add	r0, r0, #36, 0	; 0x24
    8418:	eb00013b 	bl	890c <kr_malloc>
    841c:	e1a04000 	mov	r4, r0
    8420:	e3a02024 	mov	r2, #36, 0	; 0x24
    8424:	e3a01000 	mov	r1, #0, 0
    8428:	eb000162 	bl	89b8 <memset>
    842c:	e5846004 	str	r6, [r4, #4]
    8430:	e3a0300b 	mov	r3, #11, 0
    8434:	e5843008 	str	r3, [r4, #8]
    8438:	e284300c 	add	r3, r4, #12, 0
    843c:	e8950007 	ldm	r5, {r0, r1, r2}
    8440:	e8830007 	stm	r3, {r0, r1, r2}
    8444:	e3a03000 	mov	r3, #0, 0
    8448:	e5843000 	str	r3, [r4]
    844c:	e1c432b0 	strh	r3, [r4, #32]
    8450:	e59d300c 	ldr	r3, [sp, #12]
    8454:	e59d2008 	ldr	r2, [sp, #8]
    8458:	e59d1004 	ldr	r1, [sp, #4]
    845c:	e59f0028 	ldr	r0, [pc, #40]	; 848c <ckalloc+0x8c>
    8460:	eb00015a 	bl	89d0 <printk>
    8464:	e1a01004 	mov	r1, r4
    8468:	e59f0020 	ldr	r0, [pc, #32]	; 8490 <ckalloc+0x90>
    846c:	eb000157 	bl	89d0 <printk>
    8470:	e1a01004 	mov	r1, r4
    8474:	e59f3018 	ldr	r3, [pc, #24]	; 8494 <ckalloc+0x94>
    8478:	e5930004 	ldr	r0, [r3, #4]
    847c:	ebffff24 	bl	8114 <list_append>
    8480:	e2840024 	add	r0, r4, #36, 0	; 0x24
    8484:	e28dd010 	add	sp, sp, #16, 0
    8488:	e8bd8070 	pop	{r4, r5, r6, pc}
    848c:	00009bf8 	strdeq	r9, [r0], -r8
    8490:	00009c4c 	andeq	r9, r0, ip, asr #24
    8494:	0000a150 	andeq	sl, r0, r0, asr r1

00008498 <in_heap>:
    8498:	e59f3030 	ldr	r3, [pc, #48]	; 84d0 <in_heap+0x38>
    849c:	e5933000 	ldr	r3, [r3]
    84a0:	e1530000 	cmp	r3, r0
    84a4:	8a000005 	bhi	84c0 <in_heap+0x28>
    84a8:	e59f3020 	ldr	r3, [pc, #32]	; 84d0 <in_heap+0x38>
    84ac:	e5933004 	ldr	r3, [r3, #4]
    84b0:	e1530000 	cmp	r3, r0
    84b4:	9a000003 	bls	84c8 <in_heap+0x30>
    84b8:	e3a00001 	mov	r0, #1, 0
    84bc:	e12fff1e 	bx	lr
    84c0:	e3a00000 	mov	r0, #0, 0
    84c4:	e12fff1e 	bx	lr
    84c8:	e3a00000 	mov	r0, #0, 0
    84cc:	e12fff1e 	bx	lr
    84d0:	0000a158 	andeq	sl, r0, r8, asr r1

000084d4 <sweep_leak>:
    84d4:	e92d4010 	push	{r4, lr}
    84d8:	e59f0020 	ldr	r0, [pc, #32]	; 8500 <sweep_leak+0x2c>
    84dc:	eb00013b 	bl	89d0 <printk>
    84e0:	e59f001c 	ldr	r0, [pc, #28]	; 8504 <sweep_leak+0x30>
    84e4:	eb000139 	bl	89d0 <printk>
    84e8:	e3a03069 	mov	r3, #105, 0	; 0x69
    84ec:	e59f2014 	ldr	r2, [pc, #20]	; 8508 <sweep_leak+0x34>
    84f0:	e59f1014 	ldr	r1, [pc, #20]	; 850c <sweep_leak+0x38>
    84f4:	e59f0014 	ldr	r0, [pc, #20]	; 8510 <sweep_leak+0x3c>
    84f8:	eb000134 	bl	89d0 <printk>
    84fc:	eb000326 	bl	919c <clean_reboot>
    8500:	00009c7c 	andeq	r9, r0, ip, ror ip
    8504:	00009cb8 			; <UNDEFINED> instruction: 0x00009cb8
    8508:	00009d98 	muleq	r0, r8, sp
    850c:	00009cd0 	ldrdeq	r9, [r0], -r0
    8510:	00009cd8 	ldrdeq	r9, [r0], -r8

00008514 <sweep_free>:
    8514:	e92d4010 	push	{r4, lr}
    8518:	e59f0020 	ldr	r0, [pc, #32]	; 8540 <sweep_free+0x2c>
    851c:	eb00012b 	bl	89d0 <printk>
    8520:	e59f001c 	ldr	r0, [pc, #28]	; 8544 <sweep_free+0x30>
    8524:	eb000129 	bl	89d0 <printk>
    8528:	e3a030cc 	mov	r3, #204, 0	; 0xcc
    852c:	e59f2014 	ldr	r2, [pc, #20]	; 8548 <sweep_free+0x34>
    8530:	e59f1014 	ldr	r1, [pc, #20]	; 854c <sweep_free+0x38>
    8534:	e59f0014 	ldr	r0, [pc, #20]	; 8550 <sweep_free+0x3c>
    8538:	eb000124 	bl	89d0 <printk>
    853c:	eb000316 	bl	919c <clean_reboot>
    8540:	00009c7c 	andeq	r9, r0, ip, ror ip
    8544:	00009d04 	andeq	r9, r0, r4, lsl #26
    8548:	00009da4 	andeq	r9, r0, r4, lsr #27
    854c:	00009cd0 	ldrdeq	r9, [r0], -r0
    8550:	00009cd8 	ldrdeq	r9, [r0], -r8

00008554 <is_ptr>:
    8554:	e92d4010 	push	{r4, lr}
    8558:	e1a04000 	mov	r4, r0
    855c:	ebffffcd 	bl	8498 <in_heap>
    8560:	e3500000 	cmp	r0, #0, 0
    8564:	0a000002 	beq	8574 <is_ptr+0x20>
    8568:	e1a00004 	mov	r0, r4
    856c:	ebffff48 	bl	8294 <ck_ptr_is_alloced>
    8570:	e8bd8010 	pop	{r4, pc}
    8574:	e3a00000 	mov	r0, #0, 0
    8578:	e8bd8010 	pop	{r4, pc}

0000857c <mark>:
    857c:	e92d4070 	push	{r4, r5, r6, lr}
    8580:	e24dd008 	sub	sp, sp, #8, 0
    8584:	e1500001 	cmp	r0, r1
    8588:	2a000007 	bcs	85ac <mark+0x30>
    858c:	e1a06000 	mov	r6, r0
    8590:	e3100003 	tst	r0, #3, 0
    8594:	1a00000c 	bne	85cc <mark+0x50>
    8598:	e2114003 	ands	r4, r1, #3, 0
    859c:	1a000012 	bne	85ec <mark+0x70>
    85a0:	e0411000 	sub	r1, r1, r0
    85a4:	e1a05141 	asr	r5, r1, #2
    85a8:	ea00001e 	b	8628 <mark+0xac>
    85ac:	e59f30a4 	ldr	r3, [pc, #164]	; 8658 <mark+0xdc>
    85b0:	e58d3000 	str	r3, [sp]
    85b4:	e3a0304d 	mov	r3, #77, 0	; 0x4d
    85b8:	e59f209c 	ldr	r2, [pc, #156]	; 865c <mark+0xe0>
    85bc:	e59f109c 	ldr	r1, [pc, #156]	; 8660 <mark+0xe4>
    85c0:	e59f009c 	ldr	r0, [pc, #156]	; 8664 <mark+0xe8>
    85c4:	eb000101 	bl	89d0 <printk>
    85c8:	eb0002f3 	bl	919c <clean_reboot>
    85cc:	e59f3094 	ldr	r3, [pc, #148]	; 8668 <mark+0xec>
    85d0:	e58d3000 	str	r3, [sp]
    85d4:	e3a0304f 	mov	r3, #79, 0	; 0x4f
    85d8:	e59f207c 	ldr	r2, [pc, #124]	; 865c <mark+0xe0>
    85dc:	e59f107c 	ldr	r1, [pc, #124]	; 8660 <mark+0xe4>
    85e0:	e59f007c 	ldr	r0, [pc, #124]	; 8664 <mark+0xe8>
    85e4:	eb0000f9 	bl	89d0 <printk>
    85e8:	eb0002eb 	bl	919c <clean_reboot>
    85ec:	e59f3078 	ldr	r3, [pc, #120]	; 866c <mark+0xf0>
    85f0:	e58d3000 	str	r3, [sp]
    85f4:	e3a03050 	mov	r3, #80, 0	; 0x50
    85f8:	e59f205c 	ldr	r2, [pc, #92]	; 865c <mark+0xe0>
    85fc:	e59f105c 	ldr	r1, [pc, #92]	; 8660 <mark+0xe4>
    8600:	e59f005c 	ldr	r0, [pc, #92]	; 8664 <mark+0xe8>
    8604:	eb0000f1 	bl	89d0 <printk>
    8608:	eb0002e3 	bl	919c <clean_reboot>
    860c:	e3a02001 	mov	r2, #1, 0
    8610:	e1c322b0 	strh	r2, [r3, #32]
    8614:	e2830024 	add	r0, r3, #36, 0	; 0x24
    8618:	e5931004 	ldr	r1, [r3, #4]
    861c:	e0801001 	add	r1, r0, r1
    8620:	ebffffd5 	bl	857c <mark>
    8624:	e2844001 	add	r4, r4, #1, 0
    8628:	e1540005 	cmp	r4, r5
    862c:	2a000007 	bcs	8650 <mark+0xd4>
    8630:	e7960104 	ldr	r0, [r6, r4, lsl #2]
    8634:	ebffffc6 	bl	8554 <is_ptr>
    8638:	e2503000 	subs	r3, r0, #0, 0
    863c:	0afffff8 	beq	8624 <mark+0xa8>
    8640:	e1d322b0 	ldrh	r2, [r3, #32]
    8644:	e3520000 	cmp	r2, #0, 0
    8648:	1afffff5 	bne	8624 <mark+0xa8>
    864c:	eaffffee 	b	860c <mark+0x90>
    8650:	e28dd008 	add	sp, sp, #8, 0
    8654:	e8bd8070 	pop	{r4, r5, r6, pc}
    8658:	00009d14 	andeq	r9, r0, r4, lsl sp
    865c:	00009db0 			; <UNDEFINED> instruction: 0x00009db0
    8660:	00009cd0 	ldrdeq	r9, [r0], -r0
    8664:	00009b6c 	andeq	r9, r0, ip, ror #22
    8668:	00009d18 	andeq	r9, r0, r8, lsl sp
    866c:	00009d28 	andeq	r9, r0, r8, lsr #26

00008670 <mark_all>:
    8670:	e52de004 	push	{lr}		; (str lr, [sp, #-4]!)
    8674:	e24dd044 	sub	sp, sp, #68, 0	; 0x44
    8678:	ebfffec2 	bl	8188 <ck_first_hdr>
    867c:	e3500000 	cmp	r0, #0, 0
    8680:	0a000005 	beq	869c <mark_all+0x2c>
    8684:	e3a03000 	mov	r3, #0, 0
    8688:	e580301c 	str	r3, [r0, #28]
    868c:	e5803018 	str	r3, [r0, #24]
    8690:	e1c032b0 	strh	r3, [r0, #32]
    8694:	ebfffebf 	bl	8198 <ck_next_hdr>
    8698:	eafffff7 	b	867c <mark_all+0xc>
    869c:	e1a0000d 	mov	r0, sp
    86a0:	eb000054 	bl	87f8 <dump_regs>
    86a4:	e3a03000 	mov	r3, #0, 0
    86a8:	e58d3000 	str	r3, [sp]
    86ac:	e58d3004 	str	r3, [sp, #4]
    86b0:	e58d3008 	str	r3, [sp, #8]
    86b4:	e58d300c 	str	r3, [sp, #12]
    86b8:	e28d1038 	add	r1, sp, #56, 0	; 0x38
    86bc:	e1a0000d 	mov	r0, sp
    86c0:	ebffffad 	bl	857c <mark>
    86c4:	e59f1018 	ldr	r1, [pc, #24]	; 86e4 <mark_all+0x74>
    86c8:	e59f0018 	ldr	r0, [pc, #24]	; 86e8 <mark_all+0x78>
    86cc:	ebffffaa 	bl	857c <mark>
    86d0:	e59f1014 	ldr	r1, [pc, #20]	; 86ec <mark_all+0x7c>
    86d4:	e59f0014 	ldr	r0, [pc, #20]	; 86f0 <mark_all+0x80>
    86d8:	ebffffa7 	bl	857c <mark>
    86dc:	e28dd044 	add	sp, sp, #68, 0	; 0x44
    86e0:	e49df004 	pop	{pc}		; (ldr pc, [sp], #4)
    86e4:	0000a580 	andeq	sl, r0, r0, lsl #11
    86e8:	0000a150 	andeq	sl, r0, r0, asr r1
    86ec:	0000a150 	andeq	sl, r0, r0, asr r1
    86f0:	0000a13c 	andeq	sl, r0, ip, lsr r1

000086f4 <sbrk>:
    86f4:	e92d4030 	push	{r4, r5, lr}
    86f8:	e24dd00c 	sub	sp, sp, #12, 0
    86fc:	e2504000 	subs	r4, r0, #0, 0
    8700:	da000010 	ble	8748 <sbrk+0x54>
    8704:	e59f3074 	ldr	r3, [pc, #116]	; 8780 <sbrk+0x8c>
    8708:	e5933008 	ldr	r3, [r3, #8]
    870c:	e3530000 	cmp	r3, #0, 0
    8710:	1a000014 	bne	8768 <sbrk+0x74>
    8714:	e59f5064 	ldr	r5, [pc, #100]	; 8780 <sbrk+0x8c>
    8718:	e3a00601 	mov	r0, #1048576	; 0x100000
    871c:	e5850000 	str	r0, [r5]
    8720:	e3a03602 	mov	r3, #2097152	; 0x200000
    8724:	e5853004 	str	r3, [r5, #4]
    8728:	e1a01000 	mov	r1, r0
    872c:	eb00037e 	bl	952c <kmalloc_init_set_start>
    8730:	e3a03001 	mov	r3, #1, 0
    8734:	e5853008 	str	r3, [r5, #8]
    8738:	e1a00004 	mov	r0, r4
    873c:	eb0003dd 	bl	96b8 <kmalloc>
    8740:	e28dd00c 	add	sp, sp, #12, 0
    8744:	e8bd8030 	pop	{r4, r5, pc}
    8748:	e59f3034 	ldr	r3, [pc, #52]	; 8784 <sbrk+0x90>
    874c:	e58d3000 	str	r3, [sp]
    8750:	e3a03016 	mov	r3, #22, 0
    8754:	e59f202c 	ldr	r2, [pc, #44]	; 8788 <sbrk+0x94>
    8758:	e59f102c 	ldr	r1, [pc, #44]	; 878c <sbrk+0x98>
    875c:	e59f002c 	ldr	r0, [pc, #44]	; 8790 <sbrk+0x9c>
    8760:	eb00009a 	bl	89d0 <printk>
    8764:	eb00028c 	bl	919c <clean_reboot>
    8768:	e3a03018 	mov	r3, #24, 0
    876c:	e59f2014 	ldr	r2, [pc, #20]	; 8788 <sbrk+0x94>
    8770:	e59f1014 	ldr	r1, [pc, #20]	; 878c <sbrk+0x98>
    8774:	e59f0018 	ldr	r0, [pc, #24]	; 8794 <sbrk+0xa0>
    8778:	eb000094 	bl	89d0 <printk>
    877c:	eb000286 	bl	919c <clean_reboot>
    8780:	0000a158 	andeq	sl, r0, r8, asr r1
    8784:	00009d38 	andeq	r9, r0, r8, lsr sp
    8788:	00009db8 			; <UNDEFINED> instruction: 0x00009db8
    878c:	00009cd0 	ldrdeq	r9, [r0], -r0
    8790:	00009b6c 	andeq	r9, r0, ip, ror #22
    8794:	00009d48 	andeq	r9, r0, r8, asr #26

00008798 <ck_find_leaks>:
    8798:	e92d4010 	push	{r4, lr}
    879c:	e1a04000 	mov	r4, r0
    87a0:	ebffffb2 	bl	8670 <mark_all>
    87a4:	e1a00004 	mov	r0, r4
    87a8:	ebffff49 	bl	84d4 <sweep_leak>

000087ac <check_no_leak>:
    87ac:	e92d4010 	push	{r4, lr}
    87b0:	e3a00001 	mov	r0, #1, 0
    87b4:	ebfffff7 	bl	8798 <ck_find_leaks>

000087b8 <check_should_leak>:
    87b8:	e92d4010 	push	{r4, lr}
    87bc:	e3a00001 	mov	r0, #1, 0
    87c0:	ebfffff4 	bl	8798 <ck_find_leaks>

000087c4 <ck_gc>:
    87c4:	e92d4010 	push	{r4, lr}
    87c8:	ebffffa8 	bl	8670 <mark_all>
    87cc:	ebffff50 	bl	8514 <sweep_free>

000087d0 <implement_this>:
    87d0:	e92d4010 	push	{r4, lr}
    87d4:	e3a030dd 	mov	r3, #221, 0	; 0xdd
    87d8:	e59f200c 	ldr	r2, [pc, #12]	; 87ec <implement_this+0x1c>
    87dc:	e59f100c 	ldr	r1, [pc, #12]	; 87f0 <implement_this+0x20>
    87e0:	e59f000c 	ldr	r0, [pc, #12]	; 87f4 <implement_this+0x24>
    87e4:	eb000079 	bl	89d0 <printk>
    87e8:	eb00026b 	bl	919c <clean_reboot>
    87ec:	00009dc0 	andeq	r9, r0, r0, asr #27
    87f0:	00009cd0 	ldrdeq	r9, [r0], -r0
    87f4:	00009d68 	andeq	r9, r0, r8, ror #26

000087f8 <dump_regs>:
    87f8:	e92d1fff 	push	{r0, r1, r2, r3, r4, r5, r6, r7, r8, r9, sl, fp, ip}
    87fc:	e580d000 	str	sp, [r0]
    8800:	e52d0004 	push	{r0}		; (str r0, [sp, #-4]!)
    8804:	e92dc000 	push	{lr, pc}
    8808:	e12fff1e 	bx	lr

0000880c <kr_free>:
    880c:	e52de004 	push	{lr}		; (str lr, [sp, #-4]!)
    8810:	e2401008 	sub	r1, r0, #8, 0
    8814:	e59f30a8 	ldr	r3, [pc, #168]	; 88c4 <kr_free+0xb8>
    8818:	e5933000 	ldr	r3, [r3]
    881c:	ea000000 	b	8824 <kr_free+0x18>
    8820:	e1a03002 	mov	r3, r2
    8824:	e1530001 	cmp	r3, r1
    8828:	2a000002 	bcs	8838 <kr_free+0x2c>
    882c:	e5932000 	ldr	r2, [r3]
    8830:	e1520001 	cmp	r2, r1
    8834:	8a000007 	bhi	8858 <kr_free+0x4c>
    8838:	e5932000 	ldr	r2, [r3]
    883c:	e1520003 	cmp	r2, r3
    8840:	8afffff6 	bhi	8820 <kr_free+0x14>
    8844:	e1530001 	cmp	r3, r1
    8848:	3a000002 	bcc	8858 <kr_free+0x4c>
    884c:	e1520001 	cmp	r2, r1
    8850:	91a03002 	movls	r3, r2
    8854:	9afffff2 	bls	8824 <kr_free+0x18>
    8858:	e510c004 	ldr	ip, [r0, #-4]
    885c:	e081e18c 	add	lr, r1, ip, lsl #3
    8860:	e5932000 	ldr	r2, [r3]
    8864:	e15e0002 	cmp	lr, r2
    8868:	0a000008 	beq	8890 <kr_free+0x84>
    886c:	e5002008 	str	r2, [r0, #-8]
    8870:	e5932004 	ldr	r2, [r3, #4]
    8874:	e083c182 	add	ip, r3, r2, lsl #3
    8878:	e15c0001 	cmp	ip, r1
    887c:	0a00000a 	beq	88ac <kr_free+0xa0>
    8880:	e5831000 	str	r1, [r3]
    8884:	e59f2038 	ldr	r2, [pc, #56]	; 88c4 <kr_free+0xb8>
    8888:	e5823000 	str	r3, [r2]
    888c:	e49df004 	pop	{pc}		; (ldr pc, [sp], #4)
    8890:	e5922004 	ldr	r2, [r2, #4]
    8894:	e08cc002 	add	ip, ip, r2
    8898:	e500c004 	str	ip, [r0, #-4]
    889c:	e5932000 	ldr	r2, [r3]
    88a0:	e5922000 	ldr	r2, [r2]
    88a4:	e5002008 	str	r2, [r0, #-8]
    88a8:	eafffff0 	b	8870 <kr_free+0x64>
    88ac:	e5101004 	ldr	r1, [r0, #-4]
    88b0:	e0822001 	add	r2, r2, r1
    88b4:	e5832004 	str	r2, [r3, #4]
    88b8:	e5102008 	ldr	r2, [r0, #-8]
    88bc:	e5832000 	str	r2, [r3]
    88c0:	eaffffef 	b	8884 <kr_free+0x78>
    88c4:	0000a168 	andeq	sl, r0, r8, ror #2

000088c8 <kr_morecore>:
    88c8:	e92d4010 	push	{r4, lr}
    88cc:	e1a04000 	mov	r4, r0
    88d0:	e3500b01 	cmp	r0, #1024	; 0x400
    88d4:	33a04b01 	movcc	r4, #1024	; 0x400
    88d8:	e1a00184 	lsl	r0, r4, #3
    88dc:	ebffff84 	bl	86f4 <sbrk>
    88e0:	e3700001 	cmn	r0, #1, 0
    88e4:	0a000005 	beq	8900 <kr_morecore+0x38>
    88e8:	e5804004 	str	r4, [r0, #4]
    88ec:	e2800008 	add	r0, r0, #8, 0
    88f0:	ebffffc5 	bl	880c <kr_free>
    88f4:	e59f300c 	ldr	r3, [pc, #12]	; 8908 <kr_morecore+0x40>
    88f8:	e5930000 	ldr	r0, [r3]
    88fc:	e8bd8010 	pop	{r4, pc}
    8900:	e3a00000 	mov	r0, #0, 0
    8904:	e8bd8010 	pop	{r4, pc}
    8908:	0000a168 	andeq	sl, r0, r8, ror #2

0000890c <kr_malloc>:
    890c:	e92d4010 	push	{r4, lr}
    8910:	e2804007 	add	r4, r0, #7, 0
    8914:	e1a041a4 	lsr	r4, r4, #3
    8918:	e2844001 	add	r4, r4, #1, 0
    891c:	e59f3090 	ldr	r3, [pc, #144]	; 89b4 <kr_malloc+0xa8>
    8920:	e5932000 	ldr	r2, [r3]
    8924:	e3520000 	cmp	r2, #0, 0
    8928:	0a000001 	beq	8934 <kr_malloc+0x28>
    892c:	e5920000 	ldr	r0, [r2]
    8930:	ea000013 	b	8984 <kr_malloc+0x78>
    8934:	e2832008 	add	r2, r3, #8, 0
    8938:	e5832000 	str	r2, [r3]
    893c:	e5832008 	str	r2, [r3, #8]
    8940:	e3a01000 	mov	r1, #0, 0
    8944:	e583100c 	str	r1, [r3, #12]
    8948:	eafffff7 	b	892c <kr_malloc+0x20>
    894c:	0a000007 	beq	8970 <kr_malloc+0x64>
    8950:	e0433004 	sub	r3, r3, r4
    8954:	e5803004 	str	r3, [r0, #4]
    8958:	e0800183 	add	r0, r0, r3, lsl #3
    895c:	e5804004 	str	r4, [r0, #4]
    8960:	e59f304c 	ldr	r3, [pc, #76]	; 89b4 <kr_malloc+0xa8>
    8964:	e5832000 	str	r2, [r3]
    8968:	e2800008 	add	r0, r0, #8, 0
    896c:	e8bd8010 	pop	{r4, pc}
    8970:	e5903000 	ldr	r3, [r0]
    8974:	e5823000 	str	r3, [r2]
    8978:	eafffff8 	b	8960 <kr_malloc+0x54>
    897c:	e1a02000 	mov	r2, r0
    8980:	e5900000 	ldr	r0, [r0]
    8984:	e5903004 	ldr	r3, [r0, #4]
    8988:	e1530004 	cmp	r3, r4
    898c:	2affffee 	bcs	894c <kr_malloc+0x40>
    8990:	e59f301c 	ldr	r3, [pc, #28]	; 89b4 <kr_malloc+0xa8>
    8994:	e5933000 	ldr	r3, [r3]
    8998:	e1530000 	cmp	r3, r0
    899c:	1afffff6 	bne	897c <kr_malloc+0x70>
    89a0:	e1a00004 	mov	r0, r4
    89a4:	ebffffc7 	bl	88c8 <kr_morecore>
    89a8:	e3500000 	cmp	r0, #0, 0
    89ac:	1afffff2 	bne	897c <kr_malloc+0x70>
    89b0:	e8bd8010 	pop	{r4, pc}
    89b4:	0000a168 	andeq	sl, r0, r8, ror #2

000089b8 <memset>:
    89b8:	e0802002 	add	r2, r0, r2
    89bc:	e1a03000 	mov	r3, r0
    89c0:	e1530002 	cmp	r3, r2
    89c4:	212fff1e 	bxcs	lr
    89c8:	e4c31001 	strb	r1, [r3], #1
    89cc:	eafffffb 	b	89c0 <memset+0x8>

000089d0 <printk>:
    89d0:	e92d000f 	push	{r0, r1, r2, r3}
    89d4:	e92d4030 	push	{r4, r5, lr}
    89d8:	e24dd00c 	sub	sp, sp, #12, 0
    89dc:	e28d301c 	add	r3, sp, #28, 0
    89e0:	e58d3004 	str	r3, [sp, #4]
    89e4:	e59f5034 	ldr	r5, [pc, #52]	; 8a20 <printk+0x50>
    89e8:	e59d2018 	ldr	r2, [sp, #24]
    89ec:	e3a01b01 	mov	r1, #1024	; 0x400
    89f0:	e1a00005 	mov	r0, r5
    89f4:	eb0000ba 	bl	8ce4 <va_printk>
    89f8:	e1a04000 	mov	r4, r0
    89fc:	e59f3020 	ldr	r3, [pc, #32]	; 8a24 <printk+0x54>
    8a00:	e5933000 	ldr	r3, [r3]
    8a04:	e1a00005 	mov	r0, r5
    8a08:	e12fff33 	blx	r3
    8a0c:	e1a00004 	mov	r0, r4
    8a10:	e28dd00c 	add	sp, sp, #12, 0
    8a14:	e8bd4030 	pop	{r4, r5, lr}
    8a18:	e28dd010 	add	sp, sp, #16, 0
    8a1c:	e12fff1e 	bx	lr
    8a20:	0000a178 	andeq	sl, r0, r8, ror r1
    8a24:	0000a13c 	andeq	sl, r0, ip, lsr r1

00008a28 <internal_putk>:
    8a28:	e92d4010 	push	{r4, lr}
    8a2c:	e1a04000 	mov	r4, r0
    8a30:	e5d40000 	ldrb	r0, [r4]
    8a34:	e3500000 	cmp	r0, #0, 0
    8a38:	0a000004 	beq	8a50 <internal_putk+0x28>
    8a3c:	e59f3014 	ldr	r3, [pc, #20]	; 8a58 <internal_putk+0x30>
    8a40:	e5933000 	ldr	r3, [r3]
    8a44:	e12fff33 	blx	r3
    8a48:	e2844001 	add	r4, r4, #1, 0
    8a4c:	eafffff7 	b	8a30 <internal_putk+0x8>
    8a50:	e3a00001 	mov	r0, #1, 0
    8a54:	e8bd8010 	pop	{r4, pc}
    8a58:	0000a14c 	andeq	sl, r0, ip, asr #2

00008a5c <isdigit>:
    8a5c:	e2400030 	sub	r0, r0, #48, 0	; 0x30
    8a60:	e3500009 	cmp	r0, #9, 0
    8a64:	83a00000 	movhi	r0, #0, 0
    8a68:	93a00001 	movls	r0, #1, 0
    8a6c:	e12fff1e 	bx	lr

00008a70 <pad>:
    8a70:	e0401001 	sub	r1, r0, r1
    8a74:	e1510002 	cmp	r1, r2
    8a78:	b3a03020 	movlt	r3, #32, 0
    8a7c:	b4c03001 	strblt	r3, [r0], #1
    8a80:	b2811001 	addlt	r1, r1, #1, 0
    8a84:	bafffffa 	blt	8a74 <pad+0x4>
    8a88:	e3a03000 	mov	r3, #0, 0
    8a8c:	e5c03000 	strb	r3, [r0]
    8a90:	e12fff1e 	bx	lr

00008a94 <reverse>:
    8a94:	e042c003 	sub	ip, r2, r3
    8a98:	e28cc001 	add	ip, ip, #1, 0
    8a9c:	e15c0001 	cmp	ip, r1
    8aa0:	c04cc001 	subgt	ip, ip, r1
    8aa4:	c083300c 	addgt	r3, r3, ip
    8aa8:	e2421001 	sub	r1, r2, #1, 0
    8aac:	e1a02000 	mov	r2, r0
    8ab0:	e1510003 	cmp	r1, r3
    8ab4:	2451c001 	ldrbcs	ip, [r1], #-1
    8ab8:	24c2c001 	strbcs	ip, [r2], #1
    8abc:	2afffffb 	bcs	8ab0 <reverse+0x1c>
    8ac0:	e3a03000 	mov	r3, #0, 0
    8ac4:	e5c23000 	strb	r3, [r2]
    8ac8:	e12fff1e 	bx	lr

00008acc <emit>:
    8acc:	e92d40f0 	push	{r4, r5, r6, r7, lr}
    8ad0:	e24dd04c 	sub	sp, sp, #76, 0	; 0x4c
    8ad4:	e1a05001 	mov	r5, r1
    8ad8:	e1a04002 	mov	r4, r2
    8adc:	e59d2060 	ldr	r2, [sp, #96]	; 0x60
    8ae0:	e1520004 	cmp	r2, r4
    8ae4:	c2442001 	subgt	r2, r4, #1, 0
    8ae8:	e1a0c003 	mov	ip, r3
    8aec:	e2400002 	sub	r0, r0, #2, 0
    8af0:	e350000e 	cmp	r0, #14, 0
    8af4:	979ff100 	ldrls	pc, [pc, r0, lsl #2]
    8af8:	ea000050 	b	8c40 <emit+0x174>
    8afc:	00008c18 	andeq	r8, r0, r8, lsl ip
    8b00:	00008c40 	andeq	r8, r0, r0, asr #24
    8b04:	00008c40 	andeq	r8, r0, r0, asr #24
    8b08:	00008c40 	andeq	r8, r0, r0, asr #24
    8b0c:	00008c40 	andeq	r8, r0, r0, asr #24
    8b10:	00008c40 	andeq	r8, r0, r0, asr #24
    8b14:	00008c0c 	andeq	r8, r0, ip, lsl #24
    8b18:	00008c40 	andeq	r8, r0, r0, asr #24
    8b1c:	00008b38 	andeq	r8, r0, r8, lsr fp
    8b20:	00008c40 	andeq	r8, r0, r0, asr #24
    8b24:	00008c40 	andeq	r8, r0, r0, asr #24
    8b28:	00008c40 	andeq	r8, r0, r0, asr #24
    8b2c:	00008c40 	andeq	r8, r0, r0, asr #24
    8b30:	00008c40 	andeq	r8, r0, r0, asr #24
    8b34:	00008bb0 			; <UNDEFINED> instruction: 0x00008bb0
    8b38:	e59d1064 	ldr	r1, [sp, #100]	; 0x64
    8b3c:	e2511000 	subs	r1, r1, #0, 0
    8b40:	13a01001 	movne	r1, #1, 0
    8b44:	e0111fa3 	ands	r1, r1, r3, lsr #31
    8b48:	0a000016 	beq	8ba8 <emit+0xdc>
    8b4c:	e263c000 	rsb	ip, r3, #0, 0
    8b50:	e3a06001 	mov	r6, #1, 0
    8b54:	e28d0008 	add	r0, sp, #8, 0
    8b58:	e59f3100 	ldr	r3, [pc, #256]	; 8c60 <emit+0x194>
    8b5c:	e0831c93 	umull	r1, r3, r3, ip
    8b60:	e1a031a3 	lsr	r3, r3, #3
    8b64:	e1a0e003 	mov	lr, r3
    8b68:	e0833103 	add	r3, r3, r3, lsl #2
    8b6c:	e04c3083 	sub	r3, ip, r3, lsl #1
    8b70:	e1a01000 	mov	r1, r0
    8b74:	e2800001 	add	r0, r0, #1, 0
    8b78:	e59f70e4 	ldr	r7, [pc, #228]	; 8c64 <emit+0x198>
    8b7c:	e7d73003 	ldrb	r3, [r7, r3]
    8b80:	e5c13000 	strb	r3, [r1]
    8b84:	e1a0300c 	mov	r3, ip
    8b88:	e1a0c00e 	mov	ip, lr
    8b8c:	e3530009 	cmp	r3, #9, 0
    8b90:	8afffff0 	bhi	8b58 <emit+0x8c>
    8b94:	e3560000 	cmp	r6, #0, 0
    8b98:	13a0302d 	movne	r3, #45, 0	; 0x2d
    8b9c:	15c03000 	strbne	r3, [r0]
    8ba0:	12810002 	addne	r0, r1, #2, 0
    8ba4:	ea00000f 	b	8be8 <emit+0x11c>
    8ba8:	e3a06000 	mov	r6, #0, 0
    8bac:	eaffffe8 	b	8b54 <emit+0x88>
    8bb0:	e28d1008 	add	r1, sp, #8, 0
    8bb4:	e20c000f 	and	r0, ip, #15, 0
    8bb8:	e59fe0a8 	ldr	lr, [pc, #168]	; 8c68 <emit+0x19c>
    8bbc:	e7de0000 	ldrb	r0, [lr, r0]
    8bc0:	e5c10000 	strb	r0, [r1]
    8bc4:	e2811001 	add	r1, r1, #1, 0
    8bc8:	e35c000f 	cmp	ip, #15, 0
    8bcc:	e1a0c22c 	lsr	ip, ip, #4
    8bd0:	8afffff7 	bhi	8bb4 <emit+0xe8>
    8bd4:	e1a00001 	mov	r0, r1
    8bd8:	e3a03078 	mov	r3, #120, 0	; 0x78
    8bdc:	e4c03002 	strb	r3, [r0], #2
    8be0:	e3a03030 	mov	r3, #48, 0	; 0x30
    8be4:	e5c13001 	strb	r3, [r1, #1]
    8be8:	e28d1008 	add	r1, sp, #8, 0
    8bec:	ebffff9f 	bl	8a70 <pad>
    8bf0:	e1a02000 	mov	r2, r0
    8bf4:	e28d3008 	add	r3, sp, #8, 0
    8bf8:	e1a01004 	mov	r1, r4
    8bfc:	e1a00005 	mov	r0, r5
    8c00:	ebffffa3 	bl	8a94 <reverse>
    8c04:	e28dd04c 	add	sp, sp, #76, 0	; 0x4c
    8c08:	e8bd80f0 	pop	{r4, r5, r6, r7, pc}
    8c0c:	e5cd3008 	strb	r3, [sp, #8]
    8c10:	e28d0009 	add	r0, sp, #9, 0
    8c14:	eafffff3 	b	8be8 <emit+0x11c>
    8c18:	e28d0008 	add	r0, sp, #8, 0
    8c1c:	e20c1001 	and	r1, ip, #1, 0
    8c20:	e59fe044 	ldr	lr, [pc, #68]	; 8c6c <emit+0x1a0>
    8c24:	e7de1001 	ldrb	r1, [lr, r1]
    8c28:	e5c01000 	strb	r1, [r0]
    8c2c:	e2800001 	add	r0, r0, #1, 0
    8c30:	e35c0001 	cmp	ip, #1, 0
    8c34:	e1a0c0ac 	lsr	ip, ip, #1
    8c38:	8afffff7 	bhi	8c1c <emit+0x150>
    8c3c:	eaffffe9 	b	8be8 <emit+0x11c>
    8c40:	e59f3028 	ldr	r3, [pc, #40]	; 8c70 <emit+0x1a4>
    8c44:	e58d3000 	str	r3, [sp]
    8c48:	e3a03079 	mov	r3, #121, 0	; 0x79
    8c4c:	e59f2020 	ldr	r2, [pc, #32]	; 8c74 <emit+0x1a8>
    8c50:	e59f1020 	ldr	r1, [pc, #32]	; 8c78 <emit+0x1ac>
    8c54:	e59f0020 	ldr	r0, [pc, #32]	; 8c7c <emit+0x1b0>
    8c58:	ebffff5c 	bl	89d0 <printk>
    8c5c:	eb00014e 	bl	919c <clean_reboot>
    8c60:	cccccccd 	stclgt	12, cr12, [ip], {205}	; 0xcd
    8c64:	00009de4 	andeq	r9, r0, r4, ror #27
    8c68:	00009df0 	strdeq	r9, [r0], -r0
    8c6c:	00009e04 	andeq	r9, r0, r4, lsl #28
    8c70:	00009d44 	andeq	r9, r0, r4, asr #26
    8c74:	00009f10 	andeq	r9, r0, r0, lsl pc
    8c78:	00009dd0 	ldrdeq	r9, [r0], -r0
    8c7c:	00009b6c 	andeq	r9, r0, ip, ror #22

00008c80 <rpi_set_output>:
    8c80:	e3500000 	cmp	r0, #0, 0
    8c84:	0a000006 	beq	8ca4 <rpi_set_output+0x24>
    8c88:	e59f303c 	ldr	r3, [pc, #60]	; 8ccc <rpi_set_output+0x4c>
    8c8c:	e5830000 	str	r0, [r3]
    8c90:	e3510000 	cmp	r1, #0, 0
    8c94:	012fff1e 	bxeq	lr
    8c98:	e59f3030 	ldr	r3, [pc, #48]	; 8cd0 <rpi_set_output+0x50>
    8c9c:	e5831000 	str	r1, [r3]
    8ca0:	e12fff1e 	bx	lr
    8ca4:	e52de004 	push	{lr}		; (str lr, [sp, #-4]!)
    8ca8:	e24dd00c 	sub	sp, sp, #12, 0
    8cac:	e59f3020 	ldr	r3, [pc, #32]	; 8cd4 <rpi_set_output+0x54>
    8cb0:	e58d3000 	str	r3, [sp]
    8cb4:	e3a03020 	mov	r3, #32, 0
    8cb8:	e59f2018 	ldr	r2, [pc, #24]	; 8cd8 <rpi_set_output+0x58>
    8cbc:	e59f1018 	ldr	r1, [pc, #24]	; 8cdc <rpi_set_output+0x5c>
    8cc0:	e59f0018 	ldr	r0, [pc, #24]	; 8ce0 <rpi_set_output+0x60>
    8cc4:	ebffff41 	bl	89d0 <printk>
    8cc8:	eb000133 	bl	919c <clean_reboot>
    8ccc:	0000a14c 	andeq	sl, r0, ip, asr #2
    8cd0:	0000a13c 	andeq	sl, r0, ip, lsr r1
    8cd4:	00009e08 	andeq	r9, r0, r8, lsl #28
    8cd8:	00009f18 	andeq	r9, r0, r8, lsl pc
    8cdc:	00009dd0 	ldrdeq	r9, [r0], -r0
    8ce0:	00009b6c 	andeq	r9, r0, ip, ror #22

00008ce4 <va_printk>:
    8ce4:	e92d4ff0 	push	{r4, r5, r6, r7, r8, r9, sl, fp, lr}
    8ce8:	e24ddf45 	sub	sp, sp, #276	; 0x114
    8cec:	e1a09000 	mov	r9, r0
    8cf0:	e58d2008 	str	r2, [sp, #8]
    8cf4:	e58d300c 	str	r3, [sp, #12]
    8cf8:	e2411001 	sub	r1, r1, #1, 0
    8cfc:	e0808001 	add	r8, r0, r1
    8d00:	e3a03000 	mov	r3, #0, 0
    8d04:	e5c03000 	strb	r3, [r0]
    8d08:	e1a04000 	mov	r4, r0
    8d0c:	e1a06002 	mov	r6, r2
    8d10:	ea000001 	b	8d1c <va_printk+0x38>
    8d14:	e2866001 	add	r6, r6, #1, 0
    8d18:	e4c43001 	strb	r3, [r4], #1
    8d1c:	e5d63000 	ldrb	r3, [r6]
    8d20:	e3530000 	cmp	r3, #0, 0
    8d24:	0a000108 	beq	914c <va_printk+0x468>
    8d28:	e1540008 	cmp	r4, r8
    8d2c:	2a000106 	bcs	914c <va_printk+0x468>
    8d30:	e3530025 	cmp	r3, #37, 0	; 0x25
    8d34:	1afffff6 	bne	8d14 <va_printk+0x30>
    8d38:	e5d62001 	ldrb	r2, [r6, #1]
    8d3c:	e3520025 	cmp	r2, #37, 0	; 0x25
    8d40:	04c43001 	strbeq	r3, [r4], #1
    8d44:	02866002 	addeq	r6, r6, #2, 0
    8d48:	0afffff3 	beq	8d1c <va_printk+0x38>
    8d4c:	e2866001 	add	r6, r6, #1, 0
    8d50:	e3a05000 	mov	r5, #0, 0
    8d54:	e5d67000 	ldrb	r7, [r6]
    8d58:	e1a0a007 	mov	sl, r7
    8d5c:	e1a00007 	mov	r0, r7
    8d60:	ebffff3d 	bl	8a5c <isdigit>
    8d64:	e3500000 	cmp	r0, #0, 0
    8d68:	0a000004 	beq	8d80 <va_printk+0x9c>
    8d6c:	e0855105 	add	r5, r5, r5, lsl #2
    8d70:	e0875085 	add	r5, r7, r5, lsl #1
    8d74:	e2455030 	sub	r5, r5, #48, 0	; 0x30
    8d78:	e2866001 	add	r6, r6, #1, 0
    8d7c:	eafffff4 	b	8d54 <va_printk+0x70>
    8d80:	e355001f 	cmp	r5, #31, 0
    8d84:	8a00001a 	bhi	8df4 <va_printk+0x110>
    8d88:	e2477062 	sub	r7, r7, #98, 0	; 0x62
    8d8c:	e3570016 	cmp	r7, #22, 0
    8d90:	979ff107 	ldrls	pc, [pc, r7, lsl #2]
    8d94:	ea0000d4 	b	90ec <va_printk+0x408>
    8d98:	00009070 	andeq	r9, r0, r0, ror r0
    8d9c:	000090b8 	strheq	r9, [r0], -r8
    8da0:	00008fd0 	ldrdeq	r8, [r0], -r0
    8da4:	000090ec 	andeq	r9, r0, ip, ror #1
    8da8:	00008fb8 			; <UNDEFINED> instruction: 0x00008fb8
    8dac:	000090ec 	andeq	r9, r0, ip, ror #1
    8db0:	000090ec 	andeq	r9, r0, ip, ror #1
    8db4:	000090ec 	andeq	r9, r0, ip, ror #1
    8db8:	000090ec 	andeq	r9, r0, ip, ror #1
    8dbc:	000090ec 	andeq	r9, r0, ip, ror #1
    8dc0:	00008e14 	andeq	r8, r0, r4, lsl lr
    8dc4:	000090ec 	andeq	r9, r0, ip, ror #1
    8dc8:	000090ec 	andeq	r9, r0, ip, ror #1
    8dcc:	000090ec 	andeq	r9, r0, ip, ror #1
    8dd0:	0000903c 	andeq	r9, r0, ip, lsr r0
    8dd4:	000090ec 	andeq	r9, r0, ip, ror #1
    8dd8:	000090ec 	andeq	r9, r0, ip, ror #1
    8ddc:	000090a4 	andeq	r9, r0, r4, lsr #1
    8de0:	000090ec 	andeq	r9, r0, ip, ror #1
    8de4:	00009008 	andeq	r9, r0, r8
    8de8:	000090ec 	andeq	r9, r0, ip, ror #1
    8dec:	000090ec 	andeq	r9, r0, ip, ror #1
    8df0:	0000903c 	andeq	r9, r0, ip, lsr r0
    8df4:	e59f3364 	ldr	r3, [pc, #868]	; 9160 <va_printk+0x47c>
    8df8:	e58d3000 	str	r3, [sp]
    8dfc:	e3a03098 	mov	r3, #152, 0	; 0x98
    8e00:	e59f235c 	ldr	r2, [pc, #860]	; 9164 <va_printk+0x480>
    8e04:	e59f135c 	ldr	r1, [pc, #860]	; 9168 <va_printk+0x484>
    8e08:	e59f035c 	ldr	r0, [pc, #860]	; 916c <va_printk+0x488>
    8e0c:	ebfffeef 	bl	89d0 <printk>
    8e10:	eb0000e1 	bl	919c <clean_reboot>
    8e14:	e3a02003 	mov	r2, #3, 0
    8e18:	e59f1350 	ldr	r1, [pc, #848]	; 9170 <va_printk+0x48c>
    8e1c:	e1a00006 	mov	r0, r6
    8e20:	eb0002d0 	bl	9968 <strncmp>
    8e24:	e3500000 	cmp	r0, #0, 0
    8e28:	0a000005 	beq	8e44 <va_printk+0x160>
    8e2c:	e3a02003 	mov	r2, #3, 0
    8e30:	e59f133c 	ldr	r1, [pc, #828]	; 9174 <va_printk+0x490>
    8e34:	e1a00006 	mov	r0, r6
    8e38:	eb0002ca 	bl	9968 <strncmp>
    8e3c:	e3500000 	cmp	r0, #0, 0
    8e40:	1a000033 	bne	8f14 <va_printk+0x230>
    8e44:	e286b002 	add	fp, r6, #2, 0
    8e48:	e59d300c 	ldr	r3, [sp, #12]
    8e4c:	e2833007 	add	r3, r3, #7, 0
    8e50:	e3c33007 	bic	r3, r3, #7, 0
    8e54:	e2832008 	add	r2, r3, #8, 0
    8e58:	e58d200c 	str	r2, [sp, #12]
    8e5c:	e593a000 	ldr	sl, [r3]
    8e60:	e5937004 	ldr	r7, [r3, #4]
    8e64:	e1a01007 	mov	r1, r7
    8e68:	e59f0308 	ldr	r0, [pc, #776]	; 9178 <va_printk+0x494>
    8e6c:	ebfffed7 	bl	89d0 <printk>
    8e70:	e1a0100a 	mov	r1, sl
    8e74:	e59f0300 	ldr	r0, [pc, #768]	; 917c <va_printk+0x498>
    8e78:	ebfffed4 	bl	89d0 <printk>
    8e7c:	e3a02003 	mov	r2, #3, 0
    8e80:	e59f12e8 	ldr	r1, [pc, #744]	; 9170 <va_printk+0x48c>
    8e84:	e1a00006 	mov	r0, r6
    8e88:	eb0002b6 	bl	9968 <strncmp>
    8e8c:	e3500000 	cmp	r0, #0, 0
    8e90:	0a000027 	beq	8f34 <va_printk+0x250>
    8e94:	e3a02003 	mov	r2, #3, 0
    8e98:	e59f12d4 	ldr	r1, [pc, #724]	; 9174 <va_printk+0x490>
    8e9c:	e1a00006 	mov	r0, r6
    8ea0:	eb0002b0 	bl	9968 <strncmp>
    8ea4:	e3500000 	cmp	r0, #0, 0
    8ea8:	1a00003b 	bne	8f9c <va_printk+0x2b8>
    8eac:	e3a06000 	mov	r6, #0, 0
    8eb0:	e58d6004 	str	r6, [sp, #4]
    8eb4:	e58d5000 	str	r5, [sp]
    8eb8:	e1a03007 	mov	r3, r7
    8ebc:	e3a02080 	mov	r2, #128, 0	; 0x80
    8ec0:	e28d1010 	add	r1, sp, #16, 0
    8ec4:	e3a0000a 	mov	r0, #10, 0
    8ec8:	ebfffeff 	bl	8acc <emit>
    8ecc:	e1a07000 	mov	r7, r0
    8ed0:	e58d6004 	str	r6, [sp, #4]
    8ed4:	e58d5000 	str	r5, [sp]
    8ed8:	e1a0300a 	mov	r3, sl
    8edc:	e3a02080 	mov	r2, #128, 0	; 0x80
    8ee0:	e28d1090 	add	r1, sp, #144, 0	; 0x90
    8ee4:	e3a0000a 	mov	r0, #10, 0
    8ee8:	ebfffef7 	bl	8acc <emit>
    8eec:	e59f128c 	ldr	r1, [pc, #652]	; 9180 <va_printk+0x49c>
    8ef0:	e28d0010 	add	r0, sp, #16, 0
    8ef4:	eb000288 	bl	991c <strcmp>
    8ef8:	e1500006 	cmp	r0, r6
    8efc:	1a000021 	bne	8f88 <va_printk+0x2a4>
    8f00:	e28d1090 	add	r1, sp, #144, 0	; 0x90
    8f04:	e28d0010 	add	r0, sp, #16, 0
    8f08:	eb00028e 	bl	9948 <strcpy>
    8f0c:	e1a0600b 	mov	r6, fp
    8f10:	ea00003a 	b	9000 <va_printk+0x31c>
    8f14:	e59f3268 	ldr	r3, [pc, #616]	; 9184 <va_printk+0x4a0>
    8f18:	e58d3000 	str	r3, [sp]
    8f1c:	e3a0309f 	mov	r3, #159, 0	; 0x9f
    8f20:	e59f223c 	ldr	r2, [pc, #572]	; 9164 <va_printk+0x480>
    8f24:	e59f123c 	ldr	r1, [pc, #572]	; 9168 <va_printk+0x484>
    8f28:	e59f023c 	ldr	r0, [pc, #572]	; 916c <va_printk+0x488>
    8f2c:	ebfffea7 	bl	89d0 <printk>
    8f30:	eb000099 	bl	919c <clean_reboot>
    8f34:	e3a06000 	mov	r6, #0, 0
    8f38:	e58d6004 	str	r6, [sp, #4]
    8f3c:	e58d5000 	str	r5, [sp]
    8f40:	e1a03007 	mov	r3, r7
    8f44:	e3a02080 	mov	r2, #128, 0	; 0x80
    8f48:	e28d1010 	add	r1, sp, #16, 0
    8f4c:	e3a00010 	mov	r0, #16, 0
    8f50:	ebfffedd 	bl	8acc <emit>
    8f54:	e1a07000 	mov	r7, r0
    8f58:	e58d6004 	str	r6, [sp, #4]
    8f5c:	e58d5000 	str	r5, [sp]
    8f60:	e1a0300a 	mov	r3, sl
    8f64:	e3a02080 	mov	r2, #128, 0	; 0x80
    8f68:	e28d1090 	add	r1, sp, #144, 0	; 0x90
    8f6c:	e3a00010 	mov	r0, #16, 0
    8f70:	ebfffed5 	bl	8acc <emit>
    8f74:	e28d1092 	add	r1, sp, #146, 0	; 0x92
    8f78:	e28d0010 	add	r0, sp, #16, 0
    8f7c:	eb000259 	bl	98e8 <strcat>
    8f80:	e1a0600b 	mov	r6, fp
    8f84:	ea00001d 	b	9000 <va_printk+0x31c>
    8f88:	e28d1090 	add	r1, sp, #144, 0	; 0x90
    8f8c:	e28d0010 	add	r0, sp, #16, 0
    8f90:	eb000254 	bl	98e8 <strcat>
    8f94:	e1a0600b 	mov	r6, fp
    8f98:	ea000018 	b	9000 <va_printk+0x31c>
    8f9c:	e58d6000 	str	r6, [sp]
    8fa0:	e3a030b6 	mov	r3, #182, 0	; 0xb6
    8fa4:	e59f21b8 	ldr	r2, [pc, #440]	; 9164 <va_printk+0x480>
    8fa8:	e59f11b8 	ldr	r1, [pc, #440]	; 9168 <va_printk+0x484>
    8fac:	e59f01d4 	ldr	r0, [pc, #468]	; 9188 <va_printk+0x4a4>
    8fb0:	ebfffe86 	bl	89d0 <printk>
    8fb4:	eb000078 	bl	919c <clean_reboot>
    8fb8:	e3a030be 	mov	r3, #190, 0	; 0xbe
    8fbc:	e59f21a0 	ldr	r2, [pc, #416]	; 9164 <va_printk+0x480>
    8fc0:	e59f11a0 	ldr	r1, [pc, #416]	; 9168 <va_printk+0x484>
    8fc4:	e59f01c0 	ldr	r0, [pc, #448]	; 918c <va_printk+0x4a8>
    8fc8:	ebfffe80 	bl	89d0 <printk>
    8fcc:	eb000072 	bl	919c <clean_reboot>
    8fd0:	e59d300c 	ldr	r3, [sp, #12]
    8fd4:	e2832004 	add	r2, r3, #4, 0
    8fd8:	e58d200c 	str	r2, [sp, #12]
    8fdc:	e5933000 	ldr	r3, [r3]
    8fe0:	e3a02001 	mov	r2, #1, 0
    8fe4:	e58d2004 	str	r2, [sp, #4]
    8fe8:	e58d5000 	str	r5, [sp]
    8fec:	e3a02080 	mov	r2, #128, 0	; 0x80
    8ff0:	e28d1010 	add	r1, sp, #16, 0
    8ff4:	e3a0000a 	mov	r0, #10, 0
    8ff8:	ebfffeb3 	bl	8acc <emit>
    8ffc:	e1a07000 	mov	r7, r0
    9000:	e2866001 	add	r6, r6, #1, 0
    9004:	ea00004a 	b	9134 <va_printk+0x450>
    9008:	e59d300c 	ldr	r3, [sp, #12]
    900c:	e2832004 	add	r2, r3, #4, 0
    9010:	e58d200c 	str	r2, [sp, #12]
    9014:	e5933000 	ldr	r3, [r3]
    9018:	e3a02000 	mov	r2, #0, 0
    901c:	e58d2004 	str	r2, [sp, #4]
    9020:	e58d5000 	str	r5, [sp]
    9024:	e3a02080 	mov	r2, #128, 0	; 0x80
    9028:	e28d1010 	add	r1, sp, #16, 0
    902c:	e3a0000a 	mov	r0, #10, 0
    9030:	ebfffea5 	bl	8acc <emit>
    9034:	e1a07000 	mov	r7, r0
    9038:	eafffff0 	b	9000 <va_printk+0x31c>
    903c:	e59d300c 	ldr	r3, [sp, #12]
    9040:	e2832004 	add	r2, r3, #4, 0
    9044:	e58d200c 	str	r2, [sp, #12]
    9048:	e5933000 	ldr	r3, [r3]
    904c:	e3a02000 	mov	r2, #0, 0
    9050:	e58d2004 	str	r2, [sp, #4]
    9054:	e58d5000 	str	r5, [sp]
    9058:	e3a02080 	mov	r2, #128, 0	; 0x80
    905c:	e28d1010 	add	r1, sp, #16, 0
    9060:	e3a00010 	mov	r0, #16, 0
    9064:	ebfffe98 	bl	8acc <emit>
    9068:	e1a07000 	mov	r7, r0
    906c:	eaffffe3 	b	9000 <va_printk+0x31c>
    9070:	e59d300c 	ldr	r3, [sp, #12]
    9074:	e2832004 	add	r2, r3, #4, 0
    9078:	e58d200c 	str	r2, [sp, #12]
    907c:	e5933000 	ldr	r3, [r3]
    9080:	e3a02000 	mov	r2, #0, 0
    9084:	e58d2004 	str	r2, [sp, #4]
    9088:	e58d5000 	str	r5, [sp]
    908c:	e3a02080 	mov	r2, #128, 0	; 0x80
    9090:	e28d1010 	add	r1, sp, #16, 0
    9094:	e3a00002 	mov	r0, #2, 0
    9098:	ebfffe8b 	bl	8acc <emit>
    909c:	e1a07000 	mov	r7, r0
    90a0:	eaffffd6 	b	9000 <va_printk+0x31c>
    90a4:	e59d300c 	ldr	r3, [sp, #12]
    90a8:	e2832004 	add	r2, r3, #4, 0
    90ac:	e58d200c 	str	r2, [sp, #12]
    90b0:	e5937000 	ldr	r7, [r3]
    90b4:	eaffffd1 	b	9000 <va_printk+0x31c>
    90b8:	e59d300c 	ldr	r3, [sp, #12]
    90bc:	e2832004 	add	r2, r3, #4, 0
    90c0:	e58d200c 	str	r2, [sp, #12]
    90c4:	e5933000 	ldr	r3, [r3]
    90c8:	e3a02000 	mov	r2, #0, 0
    90cc:	e58d2004 	str	r2, [sp, #4]
    90d0:	e58d5000 	str	r5, [sp]
    90d4:	e3a02080 	mov	r2, #128, 0	; 0x80
    90d8:	e28d1010 	add	r1, sp, #16, 0
    90dc:	e3a00008 	mov	r0, #8, 0
    90e0:	ebfffe79 	bl	8acc <emit>
    90e4:	e1a07000 	mov	r7, r0
    90e8:	eaffffc4 	b	9000 <va_printk+0x31c>
    90ec:	e3a03000 	mov	r3, #0, 0
    90f0:	e5c63001 	strb	r3, [r6, #1]
    90f4:	e1a0200a 	mov	r2, sl
    90f8:	e1a0100a 	mov	r1, sl
    90fc:	e59f008c 	ldr	r0, [pc, #140]	; 9190 <va_printk+0x4ac>
    9100:	ebfffe32 	bl	89d0 <printk>
    9104:	e59f3088 	ldr	r3, [pc, #136]	; 9194 <va_printk+0x4b0>
    9108:	e5933000 	ldr	r3, [r3]
    910c:	e59d0008 	ldr	r0, [sp, #8]
    9110:	e12fff33 	blx	r3
    9114:	e3a030e2 	mov	r3, #226, 0	; 0xe2
    9118:	e59f2044 	ldr	r2, [pc, #68]	; 9164 <va_printk+0x480>
    911c:	e59f1044 	ldr	r1, [pc, #68]	; 9168 <va_printk+0x484>
    9120:	e59f0070 	ldr	r0, [pc, #112]	; 9198 <va_printk+0x4b4>
    9124:	ebfffe29 	bl	89d0 <printk>
    9128:	eb00001b 	bl	919c <clean_reboot>
    912c:	e2877001 	add	r7, r7, #1, 0
    9130:	e4c43001 	strb	r3, [r4], #1
    9134:	e1540008 	cmp	r4, r8
    9138:	2afffef7 	bcs	8d1c <va_printk+0x38>
    913c:	e5d73000 	ldrb	r3, [r7]
    9140:	e3530000 	cmp	r3, #0, 0
    9144:	1afffff8 	bne	912c <va_printk+0x448>
    9148:	eafffef3 	b	8d1c <va_printk+0x38>
    914c:	e3a03000 	mov	r3, #0, 0
    9150:	e4c43001 	strb	r3, [r4], #1
    9154:	e0440009 	sub	r0, r4, r9
    9158:	e28ddf45 	add	sp, sp, #276	; 0x114
    915c:	e8bd8ff0 	pop	{r4, r5, r6, r7, r8, r9, sl, fp, pc}
    9160:	00009e10 	andeq	r9, r0, r0, lsl lr
    9164:	00009f28 	andeq	r9, r0, r8, lsr #30
    9168:	00009dd0 	ldrdeq	r9, [r0], -r0
    916c:	00009b6c 	andeq	r9, r0, ip, ror #22
    9170:	00009e1c 	andeq	r9, r0, ip, lsl lr
    9174:	00009e20 	andeq	r9, r0, r0, lsr #28
    9178:	00009e24 	andeq	r9, r0, r4, lsr #28
    917c:	00009e2c 	andeq	r9, r0, ip, lsr #28
    9180:	00009d44 	andeq	r9, r0, r4, asr #26
    9184:	00009e34 	andeq	r9, r0, r4, lsr lr
    9188:	00009e70 	andeq	r9, r0, r0, ror lr
    918c:	00009e98 	muleq	r0, r8, lr
    9190:	00009ec0 	andeq	r9, r0, r0, asr #29
    9194:	0000a13c 	andeq	sl, r0, ip, lsr r1
    9198:	00009ef0 	strdeq	r9, [r0], -r0

0000919c <clean_reboot>:
    919c:	e92d4010 	push	{r4, lr}
    91a0:	e59f3018 	ldr	r3, [pc, #24]	; 91c0 <clean_reboot+0x24>
    91a4:	e5933000 	ldr	r3, [r3]
    91a8:	e59f0014 	ldr	r0, [pc, #20]	; 91c4 <clean_reboot+0x28>
    91ac:	e12fff33 	blx	r3
    91b0:	eb0000c3 	bl	94c4 <uart_flush_tx>
    91b4:	e3a0000a 	mov	r0, #10, 0
    91b8:	eb000047 	bl	92dc <delay_ms>
    91bc:	eb00001c 	bl	9234 <rpi_reboot>
    91c0:	0000a13c 	andeq	sl, r0, ip, lsr r1
    91c4:	00009f34 	andeq	r9, r0, r4, lsr pc

000091c8 <_cstart>:
    91c8:	e92d4010 	push	{r4, lr}
    91cc:	eb00000c 	bl	9204 <custom_loader>
    91d0:	e59f3024 	ldr	r3, [pc, #36]	; 91fc <_cstart+0x34>
    91d4:	e59f2024 	ldr	r2, [pc, #36]	; 9200 <_cstart+0x38>
    91d8:	e1530002 	cmp	r3, r2
    91dc:	33a02000 	movcc	r2, #0, 0
    91e0:	34832004 	strcc	r2, [r3], #4
    91e4:	3afffffa 	bcc	91d4 <_cstart+0xc>
    91e8:	eb000057 	bl	934c <uart_init>
    91ec:	e3a03001 	mov	r3, #1, 0
    91f0:	ee0f3f1c 	mcr	15, 0, r3, cr15, cr12, {0}
    91f4:	ebfffbb0 	bl	80bc <notmain>
    91f8:	ebffffe7 	bl	919c <clean_reboot>
    91fc:	0000a150 	andeq	sl, r0, r0, asr r1
    9200:	0000a580 	andeq	sl, r0, r0, lsl #11

00009204 <custom_loader>:
    9204:	e12fff1e 	bx	lr

00009208 <at_user_level>:
    9208:	e10f0000 	mrs	r0, CPSR
    920c:	e200001f 	and	r0, r0, #31, 0
    9210:	e3500010 	cmp	r0, #16, 0
    9214:	13a00000 	movne	r0, #0, 0
    9218:	03a00001 	moveq	r0, #1, 0
    921c:	e12fff1e 	bx	lr

00009220 <set_user_level>:
    9220:	e10f3000 	mrs	r3, CPSR
    9224:	e3c3301f 	bic	r3, r3, #31, 0
    9228:	e3833010 	orr	r3, r3, #16, 0
    922c:	e129f003 	msr	CPSR_fc, r3
    9230:	e12fff1e 	bx	lr

00009234 <rpi_reboot>:
    9234:	e92d4010 	push	{r4, lr}
    9238:	ebfffff2 	bl	9208 <at_user_level>
    923c:	e3500000 	cmp	r0, #0, 0
    9240:	1a00000a 	bne	9270 <rpi_reboot+0x3c>
    9244:	eb0001d2 	bl	9994 <reboot_callout>
    9248:	eb00009d 	bl	94c4 <uart_flush_tx>
    924c:	e3a0000a 	mov	r0, #10, 0
    9250:	eb000021 	bl	92dc <delay_ms>
    9254:	e59f101c 	ldr	r1, [pc, #28]	; 9278 <rpi_reboot+0x44>
    9258:	e59f001c 	ldr	r0, [pc, #28]	; 927c <rpi_reboot+0x48>
    925c:	ebfffb70 	bl	8024 <PUT32>
    9260:	e59f1018 	ldr	r1, [pc, #24]	; 9280 <rpi_reboot+0x4c>
    9264:	e59f0018 	ldr	r0, [pc, #24]	; 9284 <rpi_reboot+0x50>
    9268:	ebfffb6d 	bl	8024 <PUT32>
    926c:	eafffffe 	b	926c <rpi_reboot+0x38>
    9270:	ebffffea 	bl	9220 <set_user_level>
    9274:	eafffff2 	b	9244 <rpi_reboot+0x10>
    9278:	5a000001 	bpl	9284 <rpi_reboot+0x50>
    927c:	20100024 	andscs	r0, r0, r4, lsr #32
    9280:	5a000020 	bpl	9308 <delay_sec+0x14>
    9284:	2010001c 	andscs	r0, r0, ip, lsl r0

00009288 <timer_get_usec_raw>:
    9288:	e92d4010 	push	{r4, lr}
    928c:	e59f0004 	ldr	r0, [pc, #4]	; 9298 <timer_get_usec_raw+0x10>
    9290:	ebfffb65 	bl	802c <GET32>
    9294:	e8bd8010 	pop	{r4, pc}
    9298:	20003004 	andcs	r3, r0, r4

0000929c <timer_get_usec>:
    929c:	e92d4010 	push	{r4, lr}
    92a0:	eb0001bc 	bl	9998 <dev_barrier>
    92a4:	ebfffff7 	bl	9288 <timer_get_usec_raw>
    92a8:	e1a04000 	mov	r4, r0
    92ac:	eb0001b9 	bl	9998 <dev_barrier>
    92b0:	e1a00004 	mov	r0, r4
    92b4:	e8bd8010 	pop	{r4, pc}

000092b8 <delay_us>:
    92b8:	e92d4070 	push	{r4, r5, r6, lr}
    92bc:	e1a05000 	mov	r5, r0
    92c0:	ebfffff5 	bl	929c <timer_get_usec>
    92c4:	e1a04000 	mov	r4, r0
    92c8:	ebfffff3 	bl	929c <timer_get_usec>
    92cc:	e0400004 	sub	r0, r0, r4
    92d0:	e1500005 	cmp	r0, r5
    92d4:	3afffffb 	bcc	92c8 <delay_us+0x10>
    92d8:	e8bd8070 	pop	{r4, r5, r6, pc}

000092dc <delay_ms>:
    92dc:	e92d4010 	push	{r4, lr}
    92e0:	e0603280 	rsb	r3, r0, r0, lsl #5
    92e4:	e0800103 	add	r0, r0, r3, lsl #2
    92e8:	e1a00180 	lsl	r0, r0, #3
    92ec:	ebfffff1 	bl	92b8 <delay_us>
    92f0:	e8bd8010 	pop	{r4, pc}

000092f4 <delay_sec>:
    92f4:	e92d4010 	push	{r4, lr}
    92f8:	e0603280 	rsb	r3, r0, r0, lsl #5
    92fc:	e0800103 	add	r0, r0, r3, lsl #2
    9300:	e1a00180 	lsl	r0, r0, #3
    9304:	ebfffff4 	bl	92dc <delay_ms>
    9308:	e8bd8010 	pop	{r4, pc}

0000930c <and_in32>:
    930c:	e92d4070 	push	{r4, r5, r6, lr}
    9310:	e1a04000 	mov	r4, r0
    9314:	e1a05001 	mov	r5, r1
    9318:	ebfffb43 	bl	802c <GET32>
    931c:	e0001005 	and	r1, r0, r5
    9320:	e1a00004 	mov	r0, r4
    9324:	ebfffb3e 	bl	8024 <PUT32>
    9328:	e8bd8070 	pop	{r4, r5, r6, pc}

0000932c <or_in32>:
    932c:	e92d4070 	push	{r4, r5, r6, lr}
    9330:	e1a04000 	mov	r4, r0
    9334:	e1a05001 	mov	r5, r1
    9338:	ebfffb3b 	bl	802c <GET32>
    933c:	e1801005 	orr	r1, r0, r5
    9340:	e1a00004 	mov	r0, r4
    9344:	ebfffb36 	bl	8024 <PUT32>
    9348:	e8bd8070 	pop	{r4, r5, r6, pc}

0000934c <uart_init>:
    934c:	e92d4010 	push	{r4, lr}
    9350:	e3a01002 	mov	r1, #2, 0
    9354:	e3a0000e 	mov	r0, #14, 0
    9358:	eb000194 	bl	99b0 <gpio_set_function>
    935c:	e3a01002 	mov	r1, #2, 0
    9360:	e3a0000f 	mov	r0, #15, 0
    9364:	eb000191 	bl	99b0 <gpio_set_function>
    9368:	eb00018a 	bl	9998 <dev_barrier>
    936c:	e3a01001 	mov	r1, #1, 0
    9370:	e59f0064 	ldr	r0, [pc, #100]	; 93dc <uart_init+0x90>
    9374:	ebffffec 	bl	932c <or_in32>
    9378:	eb000186 	bl	9998 <dev_barrier>
    937c:	e59f405c 	ldr	r4, [pc, #92]	; 93e0 <uart_init+0x94>
    9380:	e3a01000 	mov	r1, #0, 0
    9384:	e1a00004 	mov	r0, r4
    9388:	ebfffb25 	bl	8024 <PUT32>
    938c:	e3a01000 	mov	r1, #0, 0
    9390:	e59f004c 	ldr	r0, [pc, #76]	; 93e4 <uart_init+0x98>
    9394:	ebfffb22 	bl	8024 <PUT32>
    9398:	e3a01003 	mov	r1, #3, 0
    939c:	e59f0044 	ldr	r0, [pc, #68]	; 93e8 <uart_init+0x9c>
    93a0:	ebfffb1f 	bl	8024 <PUT32>
    93a4:	e3a01000 	mov	r1, #0, 0
    93a8:	e59f003c 	ldr	r0, [pc, #60]	; 93ec <uart_init+0xa0>
    93ac:	ebfffb1c 	bl	8024 <PUT32>
    93b0:	e3a010c7 	mov	r1, #199, 0	; 0xc7
    93b4:	e59f0034 	ldr	r0, [pc, #52]	; 93f0 <uart_init+0xa4>
    93b8:	ebfffb19 	bl	8024 <PUT32>
    93bc:	e59f1030 	ldr	r1, [pc, #48]	; 93f4 <uart_init+0xa8>
    93c0:	e59f0030 	ldr	r0, [pc, #48]	; 93f8 <uart_init+0xac>
    93c4:	ebfffb16 	bl	8024 <PUT32>
    93c8:	e3a01003 	mov	r1, #3, 0
    93cc:	e1a00004 	mov	r0, r4
    93d0:	ebfffb13 	bl	8024 <PUT32>
    93d4:	eb00016f 	bl	9998 <dev_barrier>
    93d8:	e8bd8010 	pop	{r4, pc}
    93dc:	20215004 	eorcs	r5, r1, r4
    93e0:	20215060 	eorcs	r5, r1, r0, rrx
    93e4:	20215044 	eorcs	r5, r1, r4, asr #32
    93e8:	2021504c 	eorcs	r5, r1, ip, asr #32
    93ec:	20215050 	eorcs	r5, r1, r0, asr r0
    93f0:	20215048 	eorcs	r5, r1, r8, asr #32
    93f4:	0000010e 	andeq	r0, r0, lr, lsl #2
    93f8:	20215068 	eorcs	r5, r1, r8, rrx

000093fc <uart_can_getc>:
    93fc:	e92d4010 	push	{r4, lr}
    9400:	e59f0008 	ldr	r0, [pc, #8]	; 9410 <uart_can_getc+0x14>
    9404:	ebfffb08 	bl	802c <GET32>
    9408:	e2000001 	and	r0, r0, #1, 0
    940c:	e8bd8010 	pop	{r4, pc}
    9410:	20215064 	eorcs	r5, r1, r4, rrx

00009414 <uart_can_putc>:
    9414:	e92d4010 	push	{r4, lr}
    9418:	e59f0010 	ldr	r0, [pc, #16]	; 9430 <uart_can_putc+0x1c>
    941c:	ebfffb02 	bl	802c <GET32>
    9420:	e3100002 	tst	r0, #2, 0
    9424:	13a00001 	movne	r0, #1, 0
    9428:	03a00000 	moveq	r0, #0, 0
    942c:	e8bd8010 	pop	{r4, pc}
    9430:	20215064 	eorcs	r5, r1, r4, rrx

00009434 <uart_getc>:
    9434:	e92d4010 	push	{r4, lr}
    9438:	eb000156 	bl	9998 <dev_barrier>
    943c:	ebffffee 	bl	93fc <uart_can_getc>
    9440:	e3500000 	cmp	r0, #0, 0
    9444:	0afffffc 	beq	943c <uart_getc+0x8>
    9448:	e59f0010 	ldr	r0, [pc, #16]	; 9460 <uart_getc+0x2c>
    944c:	ebfffaf6 	bl	802c <GET32>
    9450:	e6ef4070 	uxtb	r4, r0
    9454:	eb00014f 	bl	9998 <dev_barrier>
    9458:	e1a00004 	mov	r0, r4
    945c:	e8bd8010 	pop	{r4, pc}
    9460:	20215040 	eorcs	r5, r1, r0, asr #32

00009464 <uart_putc>:
    9464:	e92d4010 	push	{r4, lr}
    9468:	e1a04000 	mov	r4, r0
    946c:	eb000149 	bl	9998 <dev_barrier>
    9470:	ebffffe7 	bl	9414 <uart_can_putc>
    9474:	e3500000 	cmp	r0, #0, 0
    9478:	0afffffc 	beq	9470 <uart_putc+0xc>
    947c:	e6ef1074 	uxtb	r1, r4
    9480:	e59f0008 	ldr	r0, [pc, #8]	; 9490 <uart_putc+0x2c>
    9484:	ebfffae6 	bl	8024 <PUT32>
    9488:	eb000142 	bl	9998 <dev_barrier>
    948c:	e8bd8010 	pop	{r4, pc}
    9490:	20215040 	eorcs	r5, r1, r0, asr #32

00009494 <uart_has_data>:
    9494:	e92d4010 	push	{r4, lr}
    9498:	eb00013e 	bl	9998 <dev_barrier>
    949c:	ebffffd6 	bl	93fc <uart_can_getc>
    94a0:	e8bd8010 	pop	{r4, pc}

000094a4 <uart_tx_is_empty>:
    94a4:	e92d4010 	push	{r4, lr}
    94a8:	eb00013a 	bl	9998 <dev_barrier>
    94ac:	e59f000c 	ldr	r0, [pc, #12]	; 94c0 <uart_tx_is_empty+0x1c>
    94b0:	ebfffadd 	bl	802c <GET32>
    94b4:	e1a004a0 	lsr	r0, r0, #9
    94b8:	e2000001 	and	r0, r0, #1, 0
    94bc:	e8bd8010 	pop	{r4, pc}
    94c0:	20215064 	eorcs	r5, r1, r4, rrx

000094c4 <uart_flush_tx>:
    94c4:	e92d4010 	push	{r4, lr}
    94c8:	ebfffff5 	bl	94a4 <uart_tx_is_empty>
    94cc:	e3500000 	cmp	r0, #0, 0
    94d0:	0afffffc 	beq	94c8 <uart_flush_tx+0x4>
    94d4:	e8bd8010 	pop	{r4, pc}

000094d8 <uart_disable>:
    94d8:	e92d4010 	push	{r4, lr}
    94dc:	ebfffff8 	bl	94c4 <uart_flush_tx>
    94e0:	eb00012c 	bl	9998 <dev_barrier>
    94e4:	e3e01001 	mvn	r1, #1, 0
    94e8:	e59f0008 	ldr	r0, [pc, #8]	; 94f8 <uart_disable+0x20>
    94ec:	ebffff86 	bl	930c <and_in32>
    94f0:	eb000128 	bl	9998 <dev_barrier>
    94f4:	e8bd8010 	pop	{r4, pc}
    94f8:	20215004 	eorcs	r5, r1, r4

000094fc <kmalloc_heap_end>:
    94fc:	e59f3004 	ldr	r3, [pc, #4]	; 9508 <kmalloc_heap_end+0xc>
    9500:	e5930000 	ldr	r0, [r3]
    9504:	e12fff1e 	bx	lr
    9508:	0000a140 	andeq	sl, r0, r0, asr #2

0000950c <kmalloc_heap_start>:
    950c:	e59f3004 	ldr	r3, [pc, #4]	; 9518 <kmalloc_heap_start+0xc>
    9510:	e5930004 	ldr	r0, [r3, #4]
    9514:	e12fff1e 	bx	lr
    9518:	0000a140 	andeq	sl, r0, r0, asr #2

0000951c <kmalloc_heap_ptr>:
    951c:	e59f3004 	ldr	r3, [pc, #4]	; 9528 <kmalloc_heap_ptr+0xc>
    9520:	e5930008 	ldr	r0, [r3, #8]
    9524:	e12fff1e 	bx	lr
    9528:	0000a140 	andeq	sl, r0, r0, asr #2

0000952c <kmalloc_init_set_start>:
    952c:	e52de004 	push	{lr}		; (str lr, [sp, #-4]!)
    9530:	e24dd00c 	sub	sp, sp, #12, 0
    9534:	e3510000 	cmp	r1, #0, 0
    9538:	0a00000a 	beq	9568 <kmalloc_init_set_start+0x3c>
    953c:	e59f306c 	ldr	r3, [pc, #108]	; 95b0 <kmalloc_init_set_start+0x84>
    9540:	e5933008 	ldr	r3, [r3, #8]
    9544:	e1530000 	cmp	r3, r0
    9548:	8a00000e 	bhi	9588 <kmalloc_init_set_start+0x5c>
    954c:	e59f305c 	ldr	r3, [pc, #92]	; 95b0 <kmalloc_init_set_start+0x84>
    9550:	e5830008 	str	r0, [r3, #8]
    9554:	e5830004 	str	r0, [r3, #4]
    9558:	e0800001 	add	r0, r0, r1
    955c:	e5830000 	str	r0, [r3]
    9560:	e28dd00c 	add	sp, sp, #12, 0
    9564:	e49df004 	pop	{pc}		; (ldr pc, [sp], #4)
    9568:	e59f3044 	ldr	r3, [pc, #68]	; 95b4 <kmalloc_init_set_start+0x88>
    956c:	e58d3000 	str	r3, [sp]
    9570:	e3a03030 	mov	r3, #48, 0	; 0x30
    9574:	e59f203c 	ldr	r2, [pc, #60]	; 95b8 <kmalloc_init_set_start+0x8c>
    9578:	e59f103c 	ldr	r1, [pc, #60]	; 95bc <kmalloc_init_set_start+0x90>
    957c:	e59f003c 	ldr	r0, [pc, #60]	; 95c0 <kmalloc_init_set_start+0x94>
    9580:	ebfffd12 	bl	89d0 <printk>
    9584:	ebffff04 	bl	919c <clean_reboot>
    9588:	e59f3020 	ldr	r3, [pc, #32]	; 95b0 <kmalloc_init_set_start+0x84>
    958c:	e5933000 	ldr	r3, [r3]
    9590:	e58d3004 	str	r3, [sp, #4]
    9594:	e58d0000 	str	r0, [sp]
    9598:	e3a03034 	mov	r3, #52, 0	; 0x34
    959c:	e59f2014 	ldr	r2, [pc, #20]	; 95b8 <kmalloc_init_set_start+0x8c>
    95a0:	e59f1014 	ldr	r1, [pc, #20]	; 95bc <kmalloc_init_set_start+0x90>
    95a4:	e59f0018 	ldr	r0, [pc, #24]	; 95c4 <kmalloc_init_set_start+0x98>
    95a8:	ebfffd08 	bl	89d0 <printk>
    95ac:	ebfffefa 	bl	919c <clean_reboot>
    95b0:	0000a140 	andeq	sl, r0, r0, asr #2
    95b4:	00009f4c 	andeq	r9, r0, ip, asr #30
    95b8:	0000a0d8 	ldrdeq	sl, [r0], -r8
    95bc:	00009f40 	andeq	r9, r0, r0, asr #30
    95c0:	00009b6c 	andeq	r9, r0, ip, ror #22
    95c4:	00009f58 	andeq	r9, r0, r8, asr pc

000095c8 <kmalloc_init>:
    95c8:	e92d4010 	push	{r4, lr}
    95cc:	e59f303c 	ldr	r3, [pc, #60]	; 9610 <kmalloc_init+0x48>
    95d0:	e5933000 	ldr	r3, [r3]
    95d4:	e3530000 	cmp	r3, #0, 0
    95d8:	1a000006 	bne	95f8 <kmalloc_init+0x30>
    95dc:	e59f302c 	ldr	r3, [pc, #44]	; 9610 <kmalloc_init+0x48>
    95e0:	e3a02001 	mov	r2, #1, 0
    95e4:	e5832000 	str	r2, [r3]
    95e8:	e3a01201 	mov	r1, #268435456	; 0x10000000
    95ec:	e3a00601 	mov	r0, #1048576	; 0x100000
    95f0:	ebffffcd 	bl	952c <kmalloc_init_set_start>
    95f4:	e8bd8010 	pop	{r4, pc}
    95f8:	e3a03040 	mov	r3, #64, 0	; 0x40
    95fc:	e59f2010 	ldr	r2, [pc, #16]	; 9614 <kmalloc_init+0x4c>
    9600:	e59f1010 	ldr	r1, [pc, #16]	; 9618 <kmalloc_init+0x50>
    9604:	e59f0010 	ldr	r0, [pc, #16]	; 961c <kmalloc_init+0x54>
    9608:	ebfffcf0 	bl	89d0 <printk>
    960c:	ebfffee2 	bl	919c <clean_reboot>
    9610:	0000a578 	andeq	sl, r0, r8, ror r5
    9614:	0000a0f0 	strdeq	sl, [r0], -r0
    9618:	00009f40 	andeq	r9, r0, r0, asr #30
    961c:	00009f9c 	muleq	r0, ip, pc	; <UNPREDICTABLE>

00009620 <kmalloc_notzero>:
    9620:	e52de004 	push	{lr}		; (str lr, [sp, #-4]!)
    9624:	e24dd00c 	sub	sp, sp, #12, 0
    9628:	e3500000 	cmp	r0, #0, 0
    962c:	0a00000a 	beq	965c <kmalloc_notzero+0x3c>
    9630:	e2800007 	add	r0, r0, #7, 0
    9634:	e3c03007 	bic	r3, r0, #7, 0
    9638:	e59f2060 	ldr	r2, [pc, #96]	; 96a0 <kmalloc_notzero+0x80>
    963c:	e5920008 	ldr	r0, [r2, #8]
    9640:	e0801003 	add	r1, r0, r3
    9644:	e5821008 	str	r1, [r2, #8]
    9648:	e5922000 	ldr	r2, [r2]
    964c:	e1510002 	cmp	r1, r2
    9650:	8a000009 	bhi	967c <kmalloc_notzero+0x5c>
    9654:	e28dd00c 	add	sp, sp, #12, 0
    9658:	e49df004 	pop	{pc}		; (ldr pc, [sp], #4)
    965c:	e59f3040 	ldr	r3, [pc, #64]	; 96a4 <kmalloc_notzero+0x84>
    9660:	e58d3000 	str	r3, [sp]
    9664:	e3a03048 	mov	r3, #72, 0	; 0x48
    9668:	e59f2038 	ldr	r2, [pc, #56]	; 96a8 <kmalloc_notzero+0x88>
    966c:	e59f1038 	ldr	r1, [pc, #56]	; 96ac <kmalloc_notzero+0x8c>
    9670:	e59f0038 	ldr	r0, [pc, #56]	; 96b0 <kmalloc_notzero+0x90>
    9674:	ebfffcd5 	bl	89d0 <printk>
    9678:	ebfffec7 	bl	919c <clean_reboot>
    967c:	e0422000 	sub	r2, r2, r0
    9680:	e58d2004 	str	r2, [sp, #4]
    9684:	e58d3000 	str	r3, [sp]
    9688:	e3a0304e 	mov	r3, #78, 0	; 0x4e
    968c:	e59f2014 	ldr	r2, [pc, #20]	; 96a8 <kmalloc_notzero+0x88>
    9690:	e59f1014 	ldr	r1, [pc, #20]	; 96ac <kmalloc_notzero+0x8c>
    9694:	e59f0018 	ldr	r0, [pc, #24]	; 96b4 <kmalloc_notzero+0x94>
    9698:	ebfffccc 	bl	89d0 <printk>
    969c:	ebfffebe 	bl	919c <clean_reboot>
    96a0:	0000a140 	andeq	sl, r0, r0, asr #2
    96a4:	00009f50 	andeq	r9, r0, r0, asr pc
    96a8:	0000a100 	andeq	sl, r0, r0, lsl #2
    96ac:	00009f40 	andeq	r9, r0, r0, asr #30
    96b0:	00009b6c 	andeq	r9, r0, ip, ror #22
    96b4:	00009fcc 	andeq	r9, r0, ip, asr #31

000096b8 <kmalloc>:
    96b8:	e92d4030 	push	{r4, r5, lr}
    96bc:	e24dd00c 	sub	sp, sp, #12, 0
    96c0:	e2504000 	subs	r4, r0, #0, 0
    96c4:	0a000008 	beq	96ec <kmalloc+0x34>
    96c8:	e1a00004 	mov	r0, r4
    96cc:	ebffffd3 	bl	9620 <kmalloc_notzero>
    96d0:	e1a05000 	mov	r5, r0
    96d4:	e1a02004 	mov	r2, r4
    96d8:	e3a01000 	mov	r1, #0, 0
    96dc:	ebfffcb5 	bl	89b8 <memset>
    96e0:	e1a00005 	mov	r0, r5
    96e4:	e28dd00c 	add	sp, sp, #12, 0
    96e8:	e8bd8030 	pop	{r4, r5, pc}
    96ec:	e59f3018 	ldr	r3, [pc, #24]	; 970c <kmalloc+0x54>
    96f0:	e58d3000 	str	r3, [sp]
    96f4:	e3a03054 	mov	r3, #84, 0	; 0x54
    96f8:	e59f2010 	ldr	r2, [pc, #16]	; 9710 <kmalloc+0x58>
    96fc:	e59f1010 	ldr	r1, [pc, #16]	; 9714 <kmalloc+0x5c>
    9700:	e59f0010 	ldr	r0, [pc, #16]	; 9718 <kmalloc+0x60>
    9704:	ebfffcb1 	bl	89d0 <printk>
    9708:	ebfffea3 	bl	919c <clean_reboot>
    970c:	00009f50 	andeq	r9, r0, r0, asr pc
    9710:	0000a110 	andeq	sl, r0, r0, lsl r1
    9714:	00009f40 	andeq	r9, r0, r0, asr #30
    9718:	00009b6c 	andeq	r9, r0, ip, ror #22

0000971c <kmalloc_aligned>:
    971c:	e52de004 	push	{lr}		; (str lr, [sp, #-4]!)
    9720:	e24dd00c 	sub	sp, sp, #12, 0
    9724:	e3500000 	cmp	r0, #0, 0
    9728:	0a000014 	beq	9780 <kmalloc_aligned+0x64>
    972c:	e2613000 	rsb	r3, r1, #0, 0
    9730:	e1d13003 	bics	r3, r1, r3
    9734:	1a000019 	bne	97a0 <kmalloc_aligned+0x84>
    9738:	e3510008 	cmp	r1, #8, 0
    973c:	33a01008 	movcc	r1, #8, 0
    9740:	e59f30c0 	ldr	r3, [pc, #192]	; 9808 <kmalloc_aligned+0xec>
    9744:	e5932008 	ldr	r2, [r3, #8]
    9748:	e2613000 	rsb	r3, r1, #0, 0
    974c:	e1d1c003 	bics	ip, r1, r3
    9750:	1a00001b 	bne	97c4 <kmalloc_aligned+0xa8>
    9754:	e0822001 	add	r2, r2, r1
    9758:	e2422001 	sub	r2, r2, #1, 0
    975c:	e0033002 	and	r3, r3, r2
    9760:	e2411001 	sub	r1, r1, #1, 0
    9764:	e1110003 	tst	r1, r3
    9768:	1a00001d 	bne	97e4 <kmalloc_aligned+0xc8>
    976c:	e59f2094 	ldr	r2, [pc, #148]	; 9808 <kmalloc_aligned+0xec>
    9770:	e5823008 	str	r3, [r2, #8]
    9774:	ebffffcf 	bl	96b8 <kmalloc>
    9778:	e28dd00c 	add	sp, sp, #12, 0
    977c:	e49df004 	pop	{pc}		; (ldr pc, [sp], #4)
    9780:	e59f3084 	ldr	r3, [pc, #132]	; 980c <kmalloc_aligned+0xf0>
    9784:	e58d3000 	str	r3, [sp]
    9788:	e3a0305f 	mov	r3, #95, 0	; 0x5f
    978c:	e59f207c 	ldr	r2, [pc, #124]	; 9810 <kmalloc_aligned+0xf4>
    9790:	e59f107c 	ldr	r1, [pc, #124]	; 9814 <kmalloc_aligned+0xf8>
    9794:	e59f007c 	ldr	r0, [pc, #124]	; 9818 <kmalloc_aligned+0xfc>
    9798:	ebfffc8c 	bl	89d0 <printk>
    979c:	ebfffe7e 	bl	919c <clean_reboot>
    97a0:	eb000046 	bl	98c0 <rpi_reset_putc>
    97a4:	e59f3070 	ldr	r3, [pc, #112]	; 981c <kmalloc_aligned+0x100>
    97a8:	e58d3000 	str	r3, [sp]
    97ac:	e3a03060 	mov	r3, #96, 0	; 0x60
    97b0:	e59f2058 	ldr	r2, [pc, #88]	; 9810 <kmalloc_aligned+0xf4>
    97b4:	e59f1058 	ldr	r1, [pc, #88]	; 9814 <kmalloc_aligned+0xf8>
    97b8:	e59f0060 	ldr	r0, [pc, #96]	; 9820 <kmalloc_aligned+0x104>
    97bc:	ebfffc83 	bl	89d0 <printk>
    97c0:	ebfffe75 	bl	919c <clean_reboot>
    97c4:	e59f3058 	ldr	r3, [pc, #88]	; 9824 <kmalloc_aligned+0x108>
    97c8:	e58d3000 	str	r3, [sp]
    97cc:	e3a03011 	mov	r3, #17, 0
    97d0:	e59f2050 	ldr	r2, [pc, #80]	; 9828 <kmalloc_aligned+0x10c>
    97d4:	e59f1038 	ldr	r1, [pc, #56]	; 9814 <kmalloc_aligned+0xf8>
    97d8:	e59f0038 	ldr	r0, [pc, #56]	; 9818 <kmalloc_aligned+0xfc>
    97dc:	ebfffc7b 	bl	89d0 <printk>
    97e0:	ebfffe6d 	bl	919c <clean_reboot>
    97e4:	eb000035 	bl	98c0 <rpi_reset_putc>
    97e8:	e59f303c 	ldr	r3, [pc, #60]	; 982c <kmalloc_aligned+0x110>
    97ec:	e58d3000 	str	r3, [sp]
    97f0:	e3a03068 	mov	r3, #104, 0	; 0x68
    97f4:	e59f2014 	ldr	r2, [pc, #20]	; 9810 <kmalloc_aligned+0xf4>
    97f8:	e59f1014 	ldr	r1, [pc, #20]	; 9814 <kmalloc_aligned+0xf8>
    97fc:	e59f002c 	ldr	r0, [pc, #44]	; 9830 <kmalloc_aligned+0x114>
    9800:	ebfffc72 	bl	89d0 <printk>
    9804:	ebfffe64 	bl	919c <clean_reboot>
    9808:	0000a140 	andeq	sl, r0, r0, asr #2
    980c:	00009f50 	andeq	r9, r0, r0, asr pc
    9810:	0000a118 	andeq	sl, r0, r8, lsl r1
    9814:	00009f40 	andeq	r9, r0, r0, asr #30
    9818:	00009b6c 	andeq	r9, r0, ip, ror #22
    981c:	0000a040 	andeq	sl, r0, r0, asr #32
    9820:	0000a00c 	andeq	sl, r0, ip
    9824:	0000a054 	andeq	sl, r0, r4, asr r0
    9828:	0000a128 	andeq	sl, r0, r8, lsr #2
    982c:	0000a08c 	andeq	sl, r0, ip, lsl #1
    9830:	0000a060 	andeq	sl, r0, r0, rrx

00009834 <kfree>:
    9834:	e12fff1e 	bx	lr

00009838 <kfree_all>:
    9838:	e59f3008 	ldr	r3, [pc, #8]	; 9848 <kfree_all+0x10>
    983c:	e5932004 	ldr	r2, [r3, #4]
    9840:	e5832008 	str	r2, [r3, #8]
    9844:	e12fff1e 	bx	lr
    9848:	0000a140 	andeq	sl, r0, r0, asr #2

0000984c <kfree_pop>:
    984c:	e59f3048 	ldr	r3, [pc, #72]	; 989c <kfree_pop+0x50>
    9850:	e5933004 	ldr	r3, [r3, #4]
    9854:	e1530000 	cmp	r3, r0
    9858:	8a000006 	bhi	9878 <kfree_pop+0x2c>
    985c:	e59f3038 	ldr	r3, [pc, #56]	; 989c <kfree_pop+0x50>
    9860:	e5933000 	ldr	r3, [r3]
    9864:	e1530000 	cmp	r3, r0
    9868:	3a000002 	bcc	9878 <kfree_pop+0x2c>
    986c:	e59f3028 	ldr	r3, [pc, #40]	; 989c <kfree_pop+0x50>
    9870:	e5830008 	str	r0, [r3, #8]
    9874:	e12fff1e 	bx	lr
    9878:	e52de004 	push	{lr}		; (str lr, [sp, #-4]!)
    987c:	e24dd00c 	sub	sp, sp, #12, 0
    9880:	e58d0000 	str	r0, [sp]
    9884:	e3a03077 	mov	r3, #119, 0	; 0x77
    9888:	e59f2010 	ldr	r2, [pc, #16]	; 98a0 <kfree_pop+0x54>
    988c:	e59f1010 	ldr	r1, [pc, #16]	; 98a4 <kfree_pop+0x58>
    9890:	e59f0010 	ldr	r0, [pc, #16]	; 98a8 <kfree_pop+0x5c>
    9894:	ebfffc4d 	bl	89d0 <printk>
    9898:	ebfffe3f 	bl	919c <clean_reboot>
    989c:	0000a140 	andeq	sl, r0, r0, asr #2
    98a0:	0000a130 	andeq	sl, r0, r0, lsr r1
    98a4:	00009f40 	andeq	r9, r0, r0, asr #30
    98a8:	0000a0a8 	andeq	sl, r0, r8, lsr #1

000098ac <internal_putchar>:
    98ac:	e92d4010 	push	{r4, lr}
    98b0:	e1a04000 	mov	r4, r0
    98b4:	ebfffeea 	bl	9464 <uart_putc>
    98b8:	e1a00004 	mov	r0, r4
    98bc:	e8bd8010 	pop	{r4, pc}

000098c0 <rpi_reset_putc>:
    98c0:	e59f3008 	ldr	r3, [pc, #8]	; 98d0 <rpi_reset_putc+0x10>
    98c4:	e59f2008 	ldr	r2, [pc, #8]	; 98d4 <rpi_reset_putc+0x14>
    98c8:	e5832000 	str	r2, [r3]
    98cc:	e12fff1e 	bx	lr
    98d0:	0000a14c 	andeq	sl, r0, ip, asr #2
    98d4:	000098ac 	andeq	r9, r0, ip, lsr #17

000098d8 <rpi_set_putc>:
    98d8:	e59f3004 	ldr	r3, [pc, #4]	; 98e4 <rpi_set_putc+0xc>
    98dc:	e5830000 	str	r0, [r3]
    98e0:	e12fff1e 	bx	lr
    98e4:	0000a14c 	andeq	sl, r0, ip, asr #2

000098e8 <strcat>:
    98e8:	e1a02000 	mov	r2, r0
    98ec:	e1a03002 	mov	r3, r2
    98f0:	e2822001 	add	r2, r2, #1, 0
    98f4:	e5d3c000 	ldrb	ip, [r3]
    98f8:	e35c0000 	cmp	ip, #0, 0
    98fc:	1afffffa 	bne	98ec <strcat+0x4>
    9900:	e2433001 	sub	r3, r3, #1, 0
    9904:	e5d12000 	ldrb	r2, [r1]
    9908:	e2811001 	add	r1, r1, #1, 0
    990c:	e5e32001 	strb	r2, [r3, #1]!
    9910:	e3520000 	cmp	r2, #0, 0
    9914:	1afffffa 	bne	9904 <strcat+0x1c>
    9918:	e12fff1e 	bx	lr

0000991c <strcmp>:
    991c:	e5d03000 	ldrb	r3, [r0]
    9920:	e3530000 	cmp	r3, #0, 0
    9924:	0a000004 	beq	993c <strcmp+0x20>
    9928:	e5d12000 	ldrb	r2, [r1]
    992c:	e1530002 	cmp	r3, r2
    9930:	02800001 	addeq	r0, r0, #1, 0
    9934:	02811001 	addeq	r1, r1, #1, 0
    9938:	0afffff7 	beq	991c <strcmp>
    993c:	e5d10000 	ldrb	r0, [r1]
    9940:	e0430000 	sub	r0, r3, r0
    9944:	e12fff1e 	bx	lr

00009948 <strcpy>:
    9948:	e1a0c000 	mov	ip, r0
    994c:	e5d12000 	ldrb	r2, [r1]
    9950:	e2811001 	add	r1, r1, #1, 0
    9954:	e5cc2000 	strb	r2, [ip]
    9958:	e28cc001 	add	ip, ip, #1, 0
    995c:	e3520000 	cmp	r2, #0, 0
    9960:	1afffff9 	bne	994c <strcpy+0x4>
    9964:	e12fff1e 	bx	lr

00009968 <strncmp>:
    9968:	e3520000 	cmp	r2, #0, 0
    996c:	e2422001 	sub	r2, r2, #1, 0
    9970:	0a000005 	beq	998c <strncmp+0x24>
    9974:	e4d03001 	ldrb	r3, [r0], #1
    9978:	e4d1c001 	ldrb	ip, [r1], #1
    997c:	e153000c 	cmp	r3, ip
    9980:	0afffff8 	beq	9968 <strncmp>
    9984:	e043000c 	sub	r0, r3, ip
    9988:	e12fff1e 	bx	lr
    998c:	e3a00000 	mov	r0, #0, 0
    9990:	e12fff1e 	bx	lr

00009994 <reboot_callout>:
    9994:	e12fff1e 	bx	lr

00009998 <dev_barrier>:
    9998:	ea000002 	b	99a8 <dsb>

0000999c <dmb>:
    999c:	e3a00000 	mov	r0, #0, 0
    99a0:	ee070fba 	mcr	15, 0, r0, cr7, cr10, {5}
    99a4:	e12fff1e 	bx	lr

000099a8 <dsb>:
    99a8:	ee070f9a 	mcr	15, 0, r0, cr7, cr10, {4}
    99ac:	e12fff1e 	bx	lr

000099b0 <gpio_set_function>:
    99b0:	e350001f 	cmp	r0, #31, 0
    99b4:	812fff1e 	bxhi	lr
    99b8:	e92d4070 	push	{r4, r5, r6, lr}
    99bc:	e1a05001 	mov	r5, r1
    99c0:	e3d13007 	bics	r3, r1, #7, 0
    99c4:	18bd8070 	popne	{r4, r5, r6, pc}
    99c8:	e59f3040 	ldr	r3, [pc, #64]	; 9a10 <gpio_set_function+0x60>
    99cc:	e0832093 	umull	r2, r3, r3, r0
    99d0:	e1a031a3 	lsr	r3, r3, #3
    99d4:	e1a02003 	mov	r2, r3
    99d8:	e0833103 	add	r3, r3, r3, lsl #2
    99dc:	e0403083 	sub	r3, r0, r3, lsl #1
    99e0:	e0834083 	add	r4, r3, r3, lsl #1
    99e4:	e2820302 	add	r0, r2, #134217728	; 0x8000000
    99e8:	e2800702 	add	r0, r0, #524288	; 0x80000
    99ec:	e1a06100 	lsl	r6, r0, #2
    99f0:	e1a00006 	mov	r0, r6
    99f4:	ebfff98c 	bl	802c <GET32>
    99f8:	e3a01007 	mov	r1, #7, 0
    99fc:	e1c01411 	bic	r1, r0, r1, lsl r4
    9a00:	e1811415 	orr	r1, r1, r5, lsl r4
    9a04:	e1a00006 	mov	r0, r6
    9a08:	ebfff985 	bl	8024 <PUT32>
    9a0c:	e8bd8070 	pop	{r4, r5, r6, pc}
    9a10:	cccccccd 	stclgt	12, cr12, [ip], {205}	; 0xcd

00009a14 <gpio_set_output>:
    9a14:	e92d4010 	push	{r4, lr}
    9a18:	e3a01001 	mov	r1, #1, 0
    9a1c:	ebffffe3 	bl	99b0 <gpio_set_function>
    9a20:	e8bd8010 	pop	{r4, pc}

00009a24 <gpio_set_on>:
    9a24:	e350001f 	cmp	r0, #31, 0
    9a28:	812fff1e 	bxhi	lr
    9a2c:	e92d4010 	push	{r4, lr}
    9a30:	e3a01001 	mov	r1, #1, 0
    9a34:	e1a01011 	lsl	r1, r1, r0
    9a38:	e59f0004 	ldr	r0, [pc, #4]	; 9a44 <gpio_set_on+0x20>
    9a3c:	ebfff978 	bl	8024 <PUT32>
    9a40:	e8bd8010 	pop	{r4, pc}
    9a44:	2020001c 	eorcs	r0, r0, ip, lsl r0

00009a48 <gpio_set_off>:
    9a48:	e350001f 	cmp	r0, #31, 0
    9a4c:	812fff1e 	bxhi	lr
    9a50:	e92d4010 	push	{r4, lr}
    9a54:	e3a01001 	mov	r1, #1, 0
    9a58:	e1a01011 	lsl	r1, r1, r0
    9a5c:	e59f0004 	ldr	r0, [pc, #4]	; 9a68 <gpio_set_off+0x20>
    9a60:	ebfff96f 	bl	8024 <PUT32>
    9a64:	e8bd8010 	pop	{r4, pc}
    9a68:	20200028 	eorcs	r0, r0, r8, lsr #32

00009a6c <gpio_set_input>:
    9a6c:	e92d4010 	push	{r4, lr}
    9a70:	e3a01000 	mov	r1, #0, 0
    9a74:	ebffffcd 	bl	99b0 <gpio_set_function>
    9a78:	e8bd8010 	pop	{r4, pc}

00009a7c <gpio_write>:
    9a7c:	e92d4010 	push	{r4, lr}
    9a80:	e3510000 	cmp	r1, #0, 0
    9a84:	0a000001 	beq	9a90 <gpio_write+0x14>
    9a88:	ebffffe5 	bl	9a24 <gpio_set_on>
    9a8c:	e8bd8010 	pop	{r4, pc}
    9a90:	ebffffec 	bl	9a48 <gpio_set_off>
    9a94:	e8bd8010 	pop	{r4, pc}

00009a98 <gpio_read>:
    9a98:	e350001f 	cmp	r0, #31, 0
    9a9c:	8a000007 	bhi	9ac0 <gpio_read+0x28>
    9aa0:	e92d4010 	push	{r4, lr}
    9aa4:	e200401f 	and	r4, r0, #31, 0
    9aa8:	e59f3018 	ldr	r3, [pc, #24]	; 9ac8 <gpio_read+0x30>
    9aac:	e08302a0 	add	r0, r3, r0, lsr #5
    9ab0:	ebfff95d 	bl	802c <GET32>
    9ab4:	e1a00430 	lsr	r0, r0, r4
    9ab8:	e2000001 	and	r0, r0, #1, 0
    9abc:	e8bd8010 	pop	{r4, pc}
    9ac0:	e3e00000 	mvn	r0, #0, 0
    9ac4:	e12fff1e 	bx	lr
    9ac8:	20200034 	eorcs	r0, r0, r4, lsr r0

00009acc <__code_end__>:
    9acc:	00000000 	andeq	r0, r0, r0

Disassembly of section .rodata:

00009ad0 <__FUNCTION__.4015-0x80>:
    9ad0:	74736574 	ldrbtvc	r6, [r3], #-1396	; 0xfffffa8c
    9ad4:	61702f73 	cmnvs	r0, r3, ror pc
    9ad8:	2d327472 	cfldrscs	mvf7, [r2, #-456]!	; 0xfffffe38
    9adc:	74736574 	ldrbtvc	r6, [r3], #-1396	; 0xfffffa8c
    9ae0:	00632e31 	rsbeq	r2, r3, r1, lsr lr
    9ae4:	43415254 	movtmi	r5, #4692	; 0x1254
    9ae8:	6c613a45 			; <UNDEFINED> instruction: 0x6c613a45
    9aec:	20636f6c 	rsbcs	r6, r3, ip, ror #30
    9af0:	75746572 	ldrbvc	r6, [r4, #-1394]!	; 0xfffffa8e
    9af4:	64656e72 	strbtvs	r6, [r5], #-3698	; 0xfffff18e
    9af8:	0a702520 	beq	1c12f80 <__bss_end__+0x1c08a00>
    9afc:	00000000 	andeq	r0, r0, r0
    9b00:	74204347 	strtvc	r4, [r0], #-839	; 0xfffffcb9
    9b04:	31747365 	cmncc	r4, r5, ror #6
    9b08:	0000000a 	andeq	r0, r0, sl
    9b0c:	494e4150 	stmdbmi	lr, {r4, r6, r8, lr}^
    9b10:	73253a43 			; <UNDEFINED> instruction: 0x73253a43
    9b14:	3a73253a 	bcc	1cd3004 <__bss_end__+0x1cc8a84>
    9b18:	733a6425 	teqvc	sl, #620756992	; 0x25000000
    9b1c:	6c756f68 	ldclvs	15, cr6, [r5], #-416	; 0xfffffe60
    9b20:	61682064 	cmnvs	r8, r4, rrx
    9b24:	6e206576 	mcrvs	5, 1, r6, cr0, cr6, {3}
    9b28:	656c206f 	strbvs	r2, [ip, #-111]!	; 0xffffff91
    9b2c:	21736b61 	cmncs	r3, r1, ror #22
    9b30:	00000a0a 	andeq	r0, r0, sl, lsl #20
    9b34:	43415254 	movtmi	r5, #4692	; 0x1254
    9b38:	55533a45 	ldrbpl	r3, [r3, #-2629]	; 0xfffff5bb
    9b3c:	53454343 	movtpl	r4, #21315	; 0x5343
    9b40:	6e203a53 			; <UNDEFINED> instruction: 0x6e203a53
    9b44:	656c206f 	strbvs	r2, [ip, #-111]!	; 0xffffff91
    9b48:	21736b61 	cmncs	r3, r1, ror #22
    9b4c:	0000000a 	andeq	r0, r0, sl

00009b50 <__FUNCTION__.4015>:
    9b50:	74736574 	ldrbtvc	r6, [r3], #-1396	; 0xfffffa8c
    9b54:	00000031 	andeq	r0, r0, r1, lsr r0

00009b58 <__FUNCTION__.4019>:
    9b58:	6d746f6e 	ldclvs	15, cr6, [r4, #-440]!	; 0xfffffe48
    9b5c:	006e6961 	rsbeq	r6, lr, r1, ror #18
    9b60:	6c616b63 			; <UNDEFINED> instruction: 0x6c616b63
    9b64:	2e636f6c 	cdpcs	15, 6, cr6, cr3, cr12, {3}
    9b68:	00000063 	andeq	r0, r0, r3, rrx
    9b6c:	494e4150 	stmdbmi	lr, {r4, r6, r8, lr}^
    9b70:	73253a43 			; <UNDEFINED> instruction: 0x73253a43
    9b74:	3a73253a 	bcc	1cd3064 <__bss_end__+0x1cc8ae4>
    9b78:	253a6425 	ldrcs	r6, [sl, #-1061]!	; 0xfffffbdb
    9b7c:	00000a73 	andeq	r0, r0, r3, ror sl
    9b80:	0000006c 	andeq	r0, r0, ip, rrx
    9b84:	494e4150 	stmdbmi	lr, {r4, r6, r8, lr}^
    9b88:	73253a43 			; <UNDEFINED> instruction: 0x73253a43
    9b8c:	3a73253a 	bcc	1cd307c <__bss_end__+0x1cc8afc>
    9b90:	643a6425 	ldrtvs	r6, [sl], #-1061	; 0xfffffbdb
    9b94:	6e206469 	cdpvs	4, 2, cr6, cr0, cr9, {3}
    9b98:	6620746f 	strtvs	r7, [r0], -pc, ror #8
    9b9c:	20646e69 	rsbcs	r6, r4, r9, ror #28
    9ba0:	69207025 	stmdbvs	r0!, {r0, r2, r5, ip, sp, lr}
    9ba4:	696c206e 	stmdbvs	ip!, {r1, r2, r3, r5, r6, sp}^
    9ba8:	0a0a7473 	beq	2a6d7c <__bss_end__+0x29c7fc>
    9bac:	00000000 	andeq	r0, r0, r0
    9bb0:	5f434f4c 	svcpl	0x00434f4c
    9bb4:	494e4150 	stmdbmi	lr, {r4, r6, r8, lr}^
    9bb8:	25203a43 	strcs	r3, [r0, #-2627]!	; 0xfffff5bd
    9bbc:	73253a73 			; <UNDEFINED> instruction: 0x73253a73
    9bc0:	3a64253a 	bcc	19130b0 <__bss_end__+0x1908b30>
    9bc4:	00000000 	andeq	r0, r0, r0
    9bc8:	65657266 	strbvs	r7, [r5, #-614]!	; 0xfffffd9a
    9bcc:	20676e69 	rsbcs	r6, r7, r9, ror #28
    9bd0:	6c616e75 	stclvs	14, cr6, [r1], #-468	; 0xfffffe2c
    9bd4:	61636f6c 	cmnvs	r3, ip, ror #30
    9bd8:	20646574 	rsbcs	r6, r4, r4, ror r5
    9bdc:	6f6d656d 	svcvs	0x006d656d
    9be0:	203a7972 	eorscs	r7, sl, r2, ror r9
    9be4:	72646461 	rsbvc	r6, r4, #1627389952	; 0x61000000
    9be8:	25203d20 	strcs	r3, [r0, #-3360]!	; 0xfffff2e0
    9bec:	74732070 	ldrbtvc	r2, [r3], #-112	; 0xffffff90
    9bf0:	3d657461 	cfstrdcc	mvd7, [r5, #-388]!	; 0xfffffe7c
    9bf4:	000a6425 	andeq	r6, sl, r5, lsr #8
    9bf8:	253a7325 	ldrcs	r7, [sl, #-805]!	; 0xfffffcdb
    9bfc:	64253a73 	strtvs	r3, [r5], #-2675	; 0xfffff58d
    9c00:	0000003a 	andeq	r0, r0, sl, lsr r0
    9c04:	65657266 	strbvs	r7, [r5, #-614]!	; 0xfffffd9a
    9c08:	20676e69 	rsbcs	r6, r7, r9, ror #28
    9c0c:	000a7025 	andeq	r7, sl, r5, lsr #32
    9c10:	705f6b63 	subsvc	r6, pc, r3, ror #22
    9c14:	695f7274 	ldmdbvs	pc, {r2, r4, r5, r6, r9, ip, sp, lr}^	; <UNPREDICTABLE>
    9c18:	6c615f73 	stclvs	15, cr5, [r1], #-460	; 0xfffffe34
    9c1c:	65636f6c 	strbvs	r6, [r3, #-3948]!	; 0xfffff094
    9c20:	64612864 	strbtvs	r2, [r1], #-2148	; 0xfffff79c
    9c24:	20297264 	eorcs	r7, r9, r4, ror #4
    9c28:	30203d21 	eorcc	r3, r0, r1, lsr #26
    9c2c:	00000000 	andeq	r0, r0, r0
    9c30:	5f6b6321 	svcpl	0x006b6321
    9c34:	5f727470 	svcpl	0x00727470
    9c38:	615f7369 	cmpvs	pc, r9, ror #6
    9c3c:	636f6c6c 	cmnvs	pc, #108, 24	; 0x6c00
    9c40:	61286465 			; <UNDEFINED> instruction: 0x61286465
    9c44:	29726464 	ldmdbcs	r2!, {r2, r5, r6, sl, sp, lr}^
    9c48:	00000000 	andeq	r0, r0, r0
    9c4c:	6f6c6c61 	svcvs	0x006c6c61
    9c50:	69746163 	ldmdbvs	r4!, {r0, r1, r5, r6, r8, sp, lr}^
    9c54:	2520676e 	strcs	r6, [r0, #-1902]!	; 0xfffff892
    9c58:	00000a70 	andeq	r0, r0, r0, ror sl

00009c5c <__FUNCTION__.4029>:
    9c5c:	7473696c 	ldrbtvc	r6, [r3], #-2412	; 0xfffff694
    9c60:	7070615f 	rsbsvc	r6, r0, pc, asr r1
    9c64:	00646e65 	rsbeq	r6, r4, r5, ror #28

00009c68 <__FUNCTION__.4019>:
    9c68:	7473696c 	ldrbtvc	r6, [r3], #-2412	; 0xfffff694
    9c6c:	6d65725f 	sfmvs	f7, 2, [r5, #-380]!	; 0xfffffe84
    9c70:	0065766f 	rsbeq	r7, r5, pc, ror #12

00009c74 <__FUNCTION__.4059>:
    9c74:	72666b63 	rsbvc	r6, r6, #101376	; 0x18c00
    9c78:	00006565 	andeq	r6, r0, r5, ror #10
    9c7c:	2d2d2d2d 	stccs	13, cr2, [sp, #-180]!	; 0xffffff4c
    9c80:	2d2d2d2d 	stccs	13, cr2, [sp, #-180]!	; 0xffffff4c
    9c84:	2d2d2d2d 	stccs	13, cr2, [sp, #-180]!	; 0xffffff4c
    9c88:	2d2d2d2d 	stccs	13, cr2, [sp, #-180]!	; 0xffffff4c
    9c8c:	2d2d2d2d 	stccs	13, cr2, [sp, #-180]!	; 0xffffff4c
    9c90:	2d2d2d2d 	stccs	13, cr2, [sp, #-180]!	; 0xffffff4c
    9c94:	2d2d2d2d 	stccs	13, cr2, [sp, #-180]!	; 0xffffff4c
    9c98:	2d2d2d2d 	stccs	13, cr2, [sp, #-180]!	; 0xffffff4c
    9c9c:	2d2d2d2d 	stccs	13, cr2, [sp, #-180]!	; 0xffffff4c
    9ca0:	2d2d2d2d 	stccs	13, cr2, [sp, #-180]!	; 0xffffff4c
    9ca4:	2d2d2d2d 	stccs	13, cr2, [sp, #-180]!	; 0xffffff4c
    9ca8:	2d2d2d2d 	stccs	13, cr2, [sp, #-180]!	; 0xffffff4c
    9cac:	2d2d2d2d 	stccs	13, cr2, [sp, #-180]!	; 0xffffff4c
    9cb0:	2d2d2d2d 	stccs	13, cr2, [sp, #-180]!	; 0xffffff4c
    9cb4:	00000a2d 	andeq	r0, r0, sp, lsr #20
    9cb8:	63656863 	cmnvs	r5, #6488064	; 0x630000
    9cbc:	676e696b 	strbvs	r6, [lr, -fp, ror #18]!
    9cc0:	726f6620 	rsbvc	r6, pc, #32, 12	; 0x2000000
    9cc4:	61656c20 	cmnvs	r5, r0, lsr #24
    9cc8:	0a3a736b 	beq	ea6a7c <__bss_end__+0xe9c4fc>
    9ccc:	00000000 	andeq	r0, r0, r0
    9cd0:	672d6b63 	strvs	r6, [sp, -r3, ror #22]!
    9cd4:	00632e63 	rsbeq	r2, r3, r3, ror #28
    9cd8:	494e4150 	stmdbmi	lr, {r4, r6, r8, lr}^
    9cdc:	73253a43 			; <UNDEFINED> instruction: 0x73253a43
    9ce0:	3a73253a 	bcc	1cd31d0 <__bss_end__+0x1cc8c50>
    9ce4:	693a6425 	ldmdbvs	sl!, {r0, r2, r5, sl, sp, lr}
    9ce8:	656c706d 	strbvs	r7, [ip, #-109]!	; 0xffffff93
    9cec:	746e656d 	strbtvc	r6, [lr], #-1389	; 0xfffffa93
    9cf0:	69687420 	stmdbvs	r8!, {r5, sl, ip, sp, lr}^
    9cf4:	75662073 	strbvc	r2, [r6, #-115]!	; 0xffffff8d
    9cf8:	6974636e 	ldmdbvs	r4!, {r1, r2, r3, r5, r6, r8, r9, sp, lr}^
    9cfc:	0a216e6f 	beq	8656c0 <__bss_end__+0x85b140>
    9d00:	0000000a 	andeq	r0, r0, sl
    9d04:	706d6f63 	rsbvc	r6, sp, r3, ror #30
    9d08:	69746361 	ldmdbvs	r4!, {r0, r5, r6, r8, r9, sp, lr}^
    9d0c:	0a3a676e 	beq	ea3acc <__bss_end__+0xe9954c>
    9d10:	00000000 	andeq	r0, r0, r0
    9d14:	00653c70 	rsbeq	r3, r5, r0, ror ip
    9d18:	67696c61 	strbvs	r6, [r9, -r1, ror #24]!
    9d1c:	2864656e 	stmdacs	r4!, {r1, r2, r3, r5, r6, r8, sl, sp, lr}^
    9d20:	29342c70 	ldmdbcs	r4!, {r4, r5, r6, sl, fp, sp}
    9d24:	00000000 	andeq	r0, r0, r0
    9d28:	67696c61 	strbvs	r6, [r9, -r1, ror #24]!
    9d2c:	2864656e 	stmdacs	r4!, {r1, r2, r3, r5, r6, r8, sl, sp, lr}^
    9d30:	29342c65 	ldmdbcs	r4!, {r0, r2, r5, r6, sl, fp, sp}
    9d34:	00000000 	andeq	r0, r0, r0
    9d38:	72636e69 	rsbvc	r6, r3, #1680	; 0x690
    9d3c:	6e656d65 	cdpvs	13, 6, cr6, cr5, cr5, {3}
    9d40:	203e2074 	eorscs	r2, lr, r4, ror r0
    9d44:	00000030 	andeq	r0, r0, r0, lsr r0
    9d48:	494e4150 	stmdbmi	lr, {r4, r6, r8, lr}^
    9d4c:	73253a43 			; <UNDEFINED> instruction: 0x73253a43
    9d50:	3a73253a 	bcc	1cd3240 <__bss_end__+0x1cc8cc0>
    9d54:	6e3a6425 	cdpvs	4, 3, cr6, cr10, cr5, {1}
    9d58:	6820746f 	stmdavs	r0!, {r0, r1, r2, r3, r5, r6, sl, ip, sp, lr}
    9d5c:	6c646e61 	stclvs	14, cr6, [r4], #-388	; 0xfffffe7c
    9d60:	0a676e69 	beq	19e570c <__bss_end__+0x19db18c>
    9d64:	0000000a 	andeq	r0, r0, sl
    9d68:	494e4150 	stmdbmi	lr, {r4, r6, r8, lr}^
    9d6c:	73253a43 			; <UNDEFINED> instruction: 0x73253a43
    9d70:	3a73253a 	bcc	1cd3260 <__bss_end__+0x1cc8ce0>
    9d74:	643a6425 	ldrtvs	r6, [sl], #-1061	; 0xfffffbdb
    9d78:	6e206469 	cdpvs	4, 2, cr6, cr0, cr9, {3}
    9d7c:	6920746f 	stmdbvs	r0!, {r0, r1, r2, r3, r5, r6, sl, ip, sp, lr}
    9d80:	656c706d 	strbvs	r7, [ip, #-109]!	; 0xffffff93
    9d84:	746e656d 	strbtvc	r6, [lr], #-1389	; 0xfffffa93
    9d88:	6d756420 	cfldrdvs	mvd6, [r5, #-128]!	; 0xffffff80
    9d8c:	65725f70 	ldrbvs	r5, [r2, #-3952]!	; 0xfffff090
    9d90:	0a217367 	beq	866b34 <__bss_end__+0x85c5b4>
    9d94:	0000000a 	andeq	r0, r0, sl

00009d98 <__FUNCTION__.4045>:
    9d98:	65657773 	strbvs	r7, [r5, #-1907]!	; 0xfffff88d
    9d9c:	656c5f70 	strbvs	r5, [ip, #-3952]!	; 0xfffff090
    9da0:	00006b61 	andeq	r6, r0, r1, ror #22

00009da4 <__FUNCTION__.4084>:
    9da4:	65657773 	strbvs	r7, [r5, #-1907]!	; 0xfffff88d
    9da8:	72665f70 	rsbvc	r5, r6, #112, 30	; 0x1c0
    9dac:	00006565 	andeq	r6, r0, r5, ror #10

00009db0 <__FUNCTION__.4030>:
    9db0:	6b72616d 	blvs	1ca236c <__bss_end__+0x1c97dec>
    9db4:	00000000 	andeq	r0, r0, r0

00009db8 <__FUNCTION__.4017>:
    9db8:	6b726273 	blvs	1ca278c <__bss_end__+0x1c9820c>
    9dbc:	00000000 	andeq	r0, r0, r0

00009dc0 <__FUNCTION__.4092>:
    9dc0:	6c706d69 	ldclvs	13, cr6, [r0], #-420	; 0xfffffe5c
    9dc4:	6e656d65 	cdpvs	13, 6, cr6, cr5, cr5, {3}
    9dc8:	68745f74 	ldmdavs	r4!, {r2, r4, r5, r6, r8, r9, sl, fp, ip, lr}^
    9dcc:	00007369 	andeq	r7, r0, r9, ror #6
    9dd0:	696c2f2e 	stmdbvs	ip!, {r1, r2, r3, r5, r8, r9, sl, fp, sp}^
    9dd4:	762f6362 	strtvc	r6, [pc], -r2, ror #6
    9dd8:	72702d61 	rsbsvc	r2, r0, #6208	; 0x1840
    9ddc:	6b746e69 	blvs	1d25788 <__bss_end__+0x1d1b208>
    9de0:	0000632e 	andeq	r6, r0, lr, lsr #6
    9de4:	33323130 	teqcc	r2, #12
    9de8:	37363534 			; <UNDEFINED> instruction: 0x37363534
    9dec:	00003938 	andeq	r3, r0, r8, lsr r9
    9df0:	33323130 	teqcc	r2, #12
    9df4:	37363534 			; <UNDEFINED> instruction: 0x37363534
    9df8:	62613938 	rsbvs	r3, r1, #56, 18	; 0xe0000
    9dfc:	66656463 	strbtvs	r6, [r5], -r3, ror #8
    9e00:	00000000 	andeq	r0, r0, r0
    9e04:	00003130 	andeq	r3, r0, r0, lsr r1
    9e08:	63747570 	cmnvs	r4, #112, 10	; 0x1c000000
    9e0c:	0070665f 	rsbseq	r6, r0, pc, asr r6
    9e10:	74646977 	strbtvc	r6, [r4], #-2423	; 0xfffff689
    9e14:	203c2068 	eorscs	r2, ip, r8, rrx
    9e18:	00003233 	andeq	r3, r0, r3, lsr r2
    9e1c:	00786c6c 	rsbseq	r6, r8, ip, ror #24
    9e20:	00646c6c 	rsbeq	r6, r4, ip, ror #24
    9e24:	253d3078 	ldrcs	r3, [sp, #-120]!	; 0xffffff88
    9e28:	00000a78 	andeq	r0, r0, r8, ror sl
    9e2c:	253d3178 	ldrcs	r3, [sp, #-376]!	; 0xfffffe88
    9e30:	00000a78 	andeq	r0, r0, r8, ror sl
    9e34:	6e727473 	mrcvs	4, 3, r7, cr2, cr3, {3}
    9e38:	28706d63 	ldmdacs	r0!, {r0, r1, r5, r6, r8, sl, fp, sp, lr}^
    9e3c:	202c7974 	eorcs	r7, ip, r4, ror r9
    9e40:	786c6c22 	stmdavc	ip!, {r1, r5, sl, fp, sp, lr}^
    9e44:	33202c22 			; <UNDEFINED> instruction: 0x33202c22
    9e48:	3d3d2029 	ldccc	0, cr2, [sp, #-164]!	; 0xffffff5c
    9e4c:	7c203020 	stcvc	0, cr3, [r0], #-128	; 0xffffff80
    9e50:	7473207c 	ldrbtvc	r2, [r3], #-124	; 0xffffff84
    9e54:	6d636e72 	stclvs	14, cr6, [r3, #-456]!	; 0xfffffe38
    9e58:	79742870 	ldmdbvc	r4!, {r4, r5, r6, fp, sp}^
    9e5c:	6c22202c 	stcvs	0, cr2, [r2], #-176	; 0xffffff50
    9e60:	2c22646c 	cfstrscs	mvf6, [r2], #-432	; 0xfffffe50
    9e64:	20293320 	eorcs	r3, r9, r0, lsr #6
    9e68:	30203d3d 	eorcc	r3, r0, sp, lsr sp
    9e6c:	00000000 	andeq	r0, r0, r0
    9e70:	494e4150 	stmdbmi	lr, {r4, r6, r8, lr}^
    9e74:	73253a43 			; <UNDEFINED> instruction: 0x73253a43
    9e78:	3a73253a 	bcc	1cd3368 <__bss_end__+0x1cc8de8>
    9e7c:	693a6425 	ldmdbvs	sl!, {r0, r2, r5, sl, sp, lr}
    9e80:	736f706d 	cmnvc	pc, #109, 0	; 0x6d
    9e84:	6c626973 			; <UNDEFINED> instruction: 0x6c626973
    9e88:	66203a65 	strtvs	r3, [r0], -r5, ror #20
    9e8c:	3c3d746d 	cfldrscc	mvf7, [sp], #-436	; 0xfffffe4c
    9e90:	0a3e7325 	beq	fa6b2c <__bss_end__+0xf9c5ac>
    9e94:	0000000a 	andeq	r0, r0, sl
    9e98:	494e4150 	stmdbmi	lr, {r4, r6, r8, lr}^
    9e9c:	73253a43 			; <UNDEFINED> instruction: 0x73253a43
    9ea0:	3a73253a 	bcc	1cd3390 <__bss_end__+0x1cc8e10>
    9ea4:	663a6425 	ldrtvs	r6, [sl], -r5, lsr #8
    9ea8:	74616f6c 	strbtvc	r6, [r1], #-3948	; 0xfffff094
    9eac:	746f6e20 	strbtvc	r6, [pc], #-3616	; 9eb4 <__FUNCTION__.4092+0xf4>
    9eb0:	616e6520 	cmnvs	lr, r0, lsr #10
    9eb4:	64656c62 	strbtvs	r6, [r5], #-3170	; 0xfffff39e
    9eb8:	0a212121 	beq	852344 <__bss_end__+0x847dc4>
    9ebc:	00000000 	andeq	r0, r0, r0
    9ec0:	6e697270 	mcrvs	2, 3, r7, cr9, cr0, {3}
    9ec4:	203a6b74 	eorscs	r6, sl, r4, ror fp
    9ec8:	20746f6e 	rsbscs	r6, r4, lr, ror #30
    9ecc:	646e6168 	strbtvs	r6, [lr], #-360	; 0xfffffe98
    9ed0:	676e696c 	strbvs	r6, [lr, -ip, ror #18]!
    9ed4:	65707320 	ldrbvs	r7, [r0, #-800]!	; 0xfffffce0
    9ed8:	69666963 	stmdbvs	r6!, {r0, r1, r5, r6, r8, fp, sp, lr}^
    9edc:	27207265 	strcs	r7, [r0, -r5, ror #4]!
    9ee0:	20276325 	eorcs	r6, r7, r5, lsr #6
    9ee4:	63736128 	cmnvs	r3, #10
    9ee8:	253d6969 	ldrcs	r6, [sp, #-2409]!	; 0xfffff697
    9eec:	000a2964 	andeq	r2, sl, r4, ror #18
    9ef0:	494e4150 	stmdbmi	lr, {r4, r6, r8, lr}^
    9ef4:	73253a43 			; <UNDEFINED> instruction: 0x73253a43
    9ef8:	3a73253a 	bcc	1cd33e8 <__bss_end__+0x1cc8e68>
    9efc:	703a6425 	eorsvc	r6, sl, r5, lsr #8
    9f00:	746e6972 	strbtvc	r6, [lr], #-2418	; 0xfffff68e
    9f04:	7265206b 	rsbvc	r2, r5, #107, 0	; 0x6b
    9f08:	0a726f72 	beq	1ca5cd8 <__bss_end__+0x1c9b758>
    9f0c:	0000000a 	andeq	r0, r0, sl

00009f10 <__FUNCTION__.4008>:
    9f10:	74696d65 	strbtvc	r6, [r9], #-3429	; 0xfffff29b
    9f14:	00000000 	andeq	r0, r0, r0

00009f18 <__FUNCTION__.3956>:
    9f18:	5f697072 	svcpl	0x00697072
    9f1c:	5f746573 	svcpl	0x00746573
    9f20:	7074756f 	rsbsvc	r7, r4, pc, ror #10
    9f24:	00007475 	andeq	r7, r0, r5, ror r4

00009f28 <__FUNCTION__.4034>:
    9f28:	705f6176 	subsvc	r6, pc, r6, ror r1	; <UNPREDICTABLE>
    9f2c:	746e6972 	strbtvc	r6, [lr], #-2418	; 0xfffff68e
    9f30:	0000006b 	andeq	r0, r0, fp, rrx
    9f34:	454e4f44 	strbmi	r4, [lr, #-3908]	; 0xfffff0bc
    9f38:	0a212121 	beq	8523c4 <__bss_end__+0x847e44>
    9f3c:	00000000 	andeq	r0, r0, r0
    9f40:	6c616d6b 	stclvs	13, cr6, [r1], #-428	; 0xfffffe54
    9f44:	2e636f6c 	cdpcs	15, 6, cr6, cr3, cr12, {3}
    9f48:	00000063 	andeq	r0, r0, r3, rrx
    9f4c:	5f78616d 	svcpl	0x0078616d
    9f50:	7479626e 	ldrbtvc	r6, [r9], #-622	; 0xfffffd92
    9f54:	00007365 	andeq	r7, r0, r5, ror #6
    9f58:	494e4150 	stmdbmi	lr, {r4, r6, r8, lr}^
    9f5c:	73253a43 			; <UNDEFINED> instruction: 0x73253a43
    9f60:	3a73253a 	bcc	1cd3450 <__bss_end__+0x1cc8ed0>
    9f64:	733a6425 	teqvc	sl, #620756992	; 0x25000000
    9f68:	69747465 	ldmdbvs	r4!, {r0, r2, r5, r6, sl, ip, sp, lr}^
    9f6c:	6820676e 	stmdavs	r0!, {r1, r2, r3, r5, r6, r8, r9, sl, sp, lr}
    9f70:	20706165 	rsbscs	r6, r0, r5, ror #2
    9f74:	25206f74 	strcs	r6, [r0, #-3956]!	; 0xfffff08c
    9f78:	77203a70 			; <UNDEFINED> instruction: 0x77203a70
    9f7c:	206c6c69 	rsbcs	r6, ip, r9, ror #24
    9f80:	20746968 	rsbscs	r6, r4, r8, ror #18
    9f84:	20656874 	rsbcs	r6, r5, r4, ror r8
    9f88:	20646c6f 	rsbcs	r6, r4, pc, ror #24
    9f8c:	70616568 	rsbvc	r6, r1, r8, ror #10
    9f90:	20746120 	rsbscs	r6, r4, r0, lsr #2
    9f94:	0a0a7025 	beq	2a6030 <__bss_end__+0x29bab0>
    9f98:	00000000 	andeq	r0, r0, r0
    9f9c:	494e4150 	stmdbmi	lr, {r4, r6, r8, lr}^
    9fa0:	73253a43 			; <UNDEFINED> instruction: 0x73253a43
    9fa4:	3a73253a 	bcc	1cd3494 <__bss_end__+0x1cc8f14>
    9fa8:	613a6425 	teqvs	sl, r5, lsr #8
    9fac:	6165726c 	cmnvs	r5, ip, ror #4
    9fb0:	63207964 			; <UNDEFINED> instruction: 0x63207964
    9fb4:	656c6c61 	strbvs	r6, [ip, #-3169]!	; 0xfffff39f
    9fb8:	6d6b2064 	stclvs	0, cr2, [fp, #-400]!	; 0xfffffe70
    9fbc:	6f6c6c61 	svcvs	0x006c6c61
    9fc0:	6e695f63 	cdpvs	15, 6, cr5, cr9, cr3, {3}
    9fc4:	0a0a7469 	beq	2a7170 <__bss_end__+0x29cbf0>
    9fc8:	00000000 	andeq	r0, r0, r0
    9fcc:	494e4150 	stmdbmi	lr, {r4, r6, r8, lr}^
    9fd0:	73253a43 			; <UNDEFINED> instruction: 0x73253a43
    9fd4:	3a73253a 	bcc	1cd34c4 <__bss_end__+0x1cc8f44>
    9fd8:	253a6425 	ldrcs	r6, [sl, #-1061]!	; 0xfffffbdb
    9fdc:	626e2064 	rsbvs	r2, lr, #100, 0	; 0x64
    9fe0:	73657479 	cmnvc	r5, #2030043136	; 0x79000000
    9fe4:	63786520 	cmnvs	r8, #32, 10	; 0x8000000
    9fe8:	65646565 	strbvs	r6, [r4, #-1381]!	; 0xfffffa9b
    9fec:	69732064 	ldmdbvs	r3!, {r2, r5, r6, sp}^
    9ff0:	6f20657a 	svcvs	0x0020657a
    9ff4:	65682066 	strbvs	r2, [r8, #-102]!	; 0xffffff9a
    9ff8:	62207061 	eorvs	r7, r0, #97, 0	; 0x61
    9ffc:	75252079 	strvc	r2, [r5, #-121]!	; 0xffffff87
    a000:	79626e20 	stmdbvc	r2!, {r5, r9, sl, fp, sp, lr}^
    a004:	0a736574 	beq	1ce35dc <__bss_end__+0x1cd905c>
    a008:	0000000a 	andeq	r0, r0, sl
    a00c:	4f525245 	svcmi	0x00525245
    a010:	73253a52 			; <UNDEFINED> instruction: 0x73253a52
    a014:	3a73253a 	bcc	1cd3504 <__bss_end__+0x1cc8f84>
    a018:	203a6425 	eorscs	r6, sl, r5, lsr #8
    a01c:	534c4146 	movtpl	r4, #49478	; 0xc146
    a020:	253c2845 	ldrcs	r2, [ip, #-2117]!	; 0xfffff7bb
    a024:	3a293e73 	bcc	a599f8 <__bss_end__+0xa4f478>
    a028:	73736120 	cmnvc	r3, #8
    a02c:	6e696d75 	mcrvs	13, 3, r6, cr9, cr5, {3}
    a030:	6f702067 	svcvs	0x00702067
    a034:	20726577 	rsbscs	r6, r2, r7, ror r5
    a038:	7420666f 	strtvc	r6, [r0], #-1647	; 0xfffff991
    a03c:	000a6f77 	andeq	r6, sl, r7, ror pc
    a040:	705f7369 	subsvc	r7, pc, r9, ror #6
    a044:	2832776f 	ldmdacs	r2!, {r0, r1, r2, r3, r5, r6, r8, r9, sl, ip, sp, lr}
    a048:	67696c61 	strbvs	r6, [r9, -r1, ror #24]!
    a04c:	6e656d6e 	cdpvs	13, 6, cr6, cr5, cr14, {3}
    a050:	00002974 	andeq	r2, r0, r4, ror r9
    a054:	705f7369 	subsvc	r7, pc, r9, ror #6
    a058:	2832776f 	ldmdacs	r2!, {r0, r1, r2, r3, r5, r6, r8, r9, sl, ip, sp, lr}
    a05c:	0000296e 	andeq	r2, r0, lr, ror #18
    a060:	4f525245 	svcmi	0x00525245
    a064:	73253a52 			; <UNDEFINED> instruction: 0x73253a52
    a068:	3a73253a 	bcc	1cd3558 <__bss_end__+0x1cc8fd8>
    a06c:	203a6425 	eorscs	r6, sl, r5, lsr #8
    a070:	534c4146 	movtpl	r4, #49478	; 0xc146
    a074:	253c2845 	ldrcs	r2, [ip, #-2117]!	; 0xfffff7bb
    a078:	3a293e73 	bcc	a59a4c <__bss_end__+0xa4f4cc>
    a07c:	706d6920 	rsbvc	r6, sp, r0, lsr #18
    a080:	6973736f 	ldmdbvs	r3!, {r0, r1, r2, r3, r5, r6, r8, r9, ip, sp, lr}^
    a084:	0a656c62 	beq	1965214 <__bss_end__+0x195ac94>
    a088:	00000000 	andeq	r0, r0, r0
    a08c:	615f7369 	cmpvs	pc, r9, ror #6
    a090:	6e67696c 	vnmulvs.f16	s13, s14, s25	; <UNPREDICTABLE>
    a094:	68286465 	stmdavs	r8!, {r0, r2, r5, r6, sl, sp, lr}
    a098:	6c61202c 	stclvs	0, cr2, [r1], #-176	; 0xffffff50
    a09c:	6d6e6769 	stclvs	7, cr6, [lr, #-420]!	; 0xfffffe5c
    a0a0:	29746e65 	ldmdbcs	r4!, {r0, r2, r5, r6, r9, sl, fp, sp, lr}^
    a0a4:	00000000 	andeq	r0, r0, r0
    a0a8:	494e4150 	stmdbmi	lr, {r4, r6, r8, lr}^
    a0ac:	73253a43 			; <UNDEFINED> instruction: 0x73253a43
    a0b0:	3a73253a 	bcc	1cd35a0 <__bss_end__+0x1cc9020>
    a0b4:	703a6425 	eorsvc	r6, sl, r5, lsr #8
    a0b8:	746e696f 	strbtvc	r6, [lr], #-2415	; 0xfffff691
    a0bc:	25207265 	strcs	r7, [r0, #-613]!	; 0xfffffd9b
    a0c0:	61772070 	cmnvs	r7, r0, ror r0
    a0c4:	656e2073 	strbvs	r2, [lr, #-115]!	; 0xffffff8d
    a0c8:	20726576 	rsbscs	r6, r2, r6, ror r5
    a0cc:	6f6c6c61 	svcvs	0x006c6c61
    a0d0:	65746163 	ldrbvs	r6, [r4, #-355]!	; 0xfffffe9d
    a0d4:	000a0a64 	andeq	r0, sl, r4, ror #20

0000a0d8 <__FUNCTION__.7>:
    a0d8:	6c616d6b 	stclvs	13, cr6, [r1], #-428	; 0xfffffe54
    a0dc:	5f636f6c 	svcpl	0x00636f6c
    a0e0:	74696e69 	strbtvc	r6, [r9], #-3689	; 0xfffff197
    a0e4:	7465735f 	strbtvc	r7, [r5], #-863	; 0xfffffca1
    a0e8:	6174735f 	cmnvs	r4, pc, asr r3
    a0ec:	00007472 	andeq	r7, r0, r2, ror r4

0000a0f0 <__FUNCTION__.5>:
    a0f0:	6c616d6b 	stclvs	13, cr6, [r1], #-428	; 0xfffffe54
    a0f4:	5f636f6c 	svcpl	0x00636f6c
    a0f8:	74696e69 	strbtvc	r6, [r9], #-3689	; 0xfffff197
    a0fc:	00000000 	andeq	r0, r0, r0

0000a100 <__FUNCTION__.4>:
    a100:	6c616d6b 	stclvs	13, cr6, [r1], #-428	; 0xfffffe54
    a104:	5f636f6c 	svcpl	0x00636f6c
    a108:	7a746f6e 	bvc	1d25ec8 <__bss_end__+0x1d1b948>
    a10c:	006f7265 	rsbeq	r7, pc, r5, ror #4

0000a110 <__FUNCTION__.2>:
    a110:	6c616d6b 	stclvs	13, cr6, [r1], #-428	; 0xfffffe54
    a114:	00636f6c 	rsbeq	r6, r3, ip, ror #30

0000a118 <__FUNCTION__.1>:
    a118:	6c616d6b 	stclvs	13, cr6, [r1], #-428	; 0xfffffe54
    a11c:	5f636f6c 	svcpl	0x00636f6c
    a120:	67696c61 	strbvs	r6, [r9, -r1, ror #24]!
    a124:	0064656e 	rsbeq	r6, r4, lr, ror #10

0000a128 <__FUNCTION__.3>:
    a128:	6e756f72 	mrcvs	15, 3, r6, cr5, cr2, {3}
    a12c:	00707564 	rsbseq	r7, r0, r4, ror #10

0000a130 <__FUNCTION__.0>:
    a130:	6572666b 	ldrbvs	r6, [r2, #-1643]!	; 0xfffff995
    a134:	6f705f65 	svcvs	0x00705f65
    a138:	Address 0x000000000000a138 is out of bounds.


Disassembly of section .data:

0000a13c <putk>:
    a13c:	00008a28 	andeq	r8, r0, r8, lsr #20

0000a140 <heap_end>:
    a140:	0020a580 	eoreq	sl, r0, r0, lsl #11

0000a144 <heap_start>:
    a144:	0000a580 	andeq	sl, r0, r0, lsl #11

0000a148 <heap>:
    a148:	0000a580 	andeq	sl, r0, r0, lsl #11

0000a14c <rpi_putchar>:
    a14c:	000098ac 	andeq	r9, r0, ip, lsr #17

Disassembly of section .bss:

0000a150 <__bss_start__>:
    a150:	00000000 	andeq	r0, r0, r0

0000a154 <alloc_list>:
    a154:	00000000 	andeq	r0, r0, r0

0000a158 <heap_start>:
    a158:	00000000 	andeq	r0, r0, r0

0000a15c <heap_end>:
    a15c:	00000000 	andeq	r0, r0, r0

0000a160 <init_p.4016>:
	...

0000a168 <freep>:
	...

0000a170 <base>:
	...

0000a178 <buf.3948>:
	...

0000a578 <init_p.6>:
	...

Disassembly of section .ARM.attributes:

00000000 <.ARM.attributes>:
   0:	00002a41 	andeq	r2, r0, r1, asr #20
   4:	61656100 	cmnvs	r5, r0, lsl #2
   8:	01006962 	tsteq	r0, r2, ror #18
   c:	00000020 	andeq	r0, r0, r0, lsr #32
  10:	4b5a3605 	blmi	168d82c <__bss_end__+0x16832ac>
  14:	08070600 	stmdaeq	r7, {r9, sl}
  18:	12010901 	andne	r0, r1, #16384	; 0x4000
  1c:	15011404 	strne	r1, [r1, #-1028]	; 0xfffffbfc
  20:	18031701 	stmdane	r3, {r0, r8, r9, sl, ip}
  24:	22011a01 	andcs	r1, r1, #4096	; 0x1000
  28:	Address 0x0000000000000028 is out of bounds.


Disassembly of section .comment:

00000000 <.comment>:
   0:	3a434347 	bcc	10d0d24 <__bss_end__+0x10c67a4>
   4:	4e472820 	cdpmi	8, 4, cr2, cr7, cr0, {1}
   8:	6f542055 	svcvs	0x00542055
   c:	20736c6f 	rsbscs	r6, r3, pc, ror #24
  10:	20726f66 	rsbscs	r6, r2, r6, ror #30
  14:	206d7241 	rsbcs	r7, sp, r1, asr #4
  18:	65626d45 	strbvs	r6, [r2, #-3397]!	; 0xfffff2bb
  1c:	64656464 	strbtvs	r6, [r5], #-1124	; 0xfffffb9c
  20:	6f725020 	svcvs	0x00725020
  24:	73736563 	cmnvc	r3, #415236096	; 0x18c00000
  28:	2073726f 	rsbscs	r7, r3, pc, ror #4
  2c:	30322d39 	eorscc	r2, r2, r9, lsr sp
  30:	712d3931 			; <UNDEFINED> instruction: 0x712d3931
  34:	616d2d34 	cmnvs	sp, r4, lsr sp
  38:	29726f6a 	ldmdbcs	r2!, {r1, r3, r5, r6, r8, r9, sl, fp, sp, lr}^
  3c:	322e3920 	eorcc	r3, lr, #32, 18	; 0x80000
  40:	3220312e 	eorcc	r3, r0, #-2147483637	; 0x8000000b
  44:	31393130 	teqcc	r9, r0, lsr r1
  48:	20353230 	eorscs	r3, r5, r0, lsr r2
  4c:	6c657228 	sfmvs	f7, 2, [r5], #-160	; 0xffffff60
  50:	65736165 	ldrbvs	r6, [r3, #-357]!	; 0xfffffe9b
  54:	415b2029 	cmpmi	fp, r9, lsr #32
  58:	612f4d52 			; <UNDEFINED> instruction: 0x612f4d52
  5c:	392d6d72 	pushcc	{r1, r4, r5, r6, r8, sl, fp, sp, lr}
  60:	6172622d 	cmnvs	r2, sp, lsr #4
  64:	2068636e 	rsbcs	r6, r8, lr, ror #6
  68:	69766572 	ldmdbvs	r6!, {r1, r4, r5, r6, r8, sl, sp, lr}^
  6c:	6e6f6973 			; <UNDEFINED> instruction: 0x6e6f6973
  70:	37373220 	ldrcc	r3, [r7, -r0, lsr #4]!
  74:	5d393935 			; <UNDEFINED> instruction: 0x5d393935
  78:	43434700 	movtmi	r4, #14080	; 0x3700
  7c:	4728203a 			; <UNDEFINED> instruction: 0x4728203a
  80:	4120554e 			; <UNDEFINED> instruction: 0x4120554e
  84:	45206d72 	strmi	r6, [r0, #-3442]!	; 0xfffff28e
  88:	6465626d 	strbtvs	r6, [r5], #-621	; 0xfffffd93
  8c:	20646564 	rsbcs	r6, r4, r4, ror #10
  90:	6c6f6f54 	stclvs	15, cr6, [pc], #-336	; ffffff48 <__bss_end__+0xffff59c8>
  94:	69616863 	stmdbvs	r1!, {r0, r1, r5, r6, fp, sp, lr}^
  98:	3031206e 	eorscc	r2, r1, lr, rrx
  9c:	322d332e 	eorcc	r3, sp, #-1207959552	; 0xb8000000
  a0:	2e313230 	mrccs	2, 1, r3, cr1, cr0, {1}
  a4:	20293031 	eorcs	r3, r9, r1, lsr r0
  a8:	332e3031 			; <UNDEFINED> instruction: 0x332e3031
  ac:	3220312e 	eorcc	r3, r0, #-2147483637	; 0x8000000b
  b0:	30313230 	eorscc	r3, r1, r0, lsr r2
  b4:	20343238 	eorscs	r3, r4, r8, lsr r2
  b8:	6c657228 	sfmvs	f7, 2, [r5], #-160	; 0xffffff60
  bc:	65736165 	ldrbvs	r6, [r3, #-357]!	; 0xfffffe9b
  c0:	Address 0x00000000000000c0 is out of bounds.


Disassembly of section .debug_info:

00000000 <.debug_info>:
       0:	00000370 	andeq	r0, r0, r0, ror r3
       4:	00000004 	andeq	r0, r0, r4
       8:	01040000 	mrseq	r0, (UNDEF: 4)
       c:	00000134 	andeq	r0, r0, r4, lsr r1
      10:	00007c0c 	andeq	r7, r0, ip, lsl #24
      14:	0000a700 	andeq	sl, r0, r0, lsl #14
      18:	00803800 	addeq	r3, r0, r0, lsl #16
      1c:	0000dc00 	andeq	sp, r0, r0, lsl #24
      20:	00000000 	andeq	r0, r0, r0
      24:	05040200 	streq	r0, [r4, #-512]	; 0xfffffe00
      28:	00746e69 	rsbseq	r6, r4, r9, ror #28
      2c:	9a070403 	bls	1c1040 <__bss_end__+0x1b6ac0>
      30:	03000000 	movweq	r0, #0
      34:	002c0601 	eoreq	r0, ip, r1, lsl #12
      38:	02030000 	andeq	r0, r3, #0, 0
      3c:	00012005 	andeq	r2, r1, r5
      40:	05040300 	streq	r0, [r4, #-768]	; 0xfffffd00
      44:	00000104 	andeq	r0, r0, r4, lsl #2
      48:	ff050803 			; <UNDEFINED> instruction: 0xff050803
      4c:	03000000 	movweq	r0, #0
      50:	002a0801 	eoreq	r0, sl, r1, lsl #16
      54:	02030000 	andeq	r0, r3, #0, 0
      58:	00004507 	andeq	r4, r0, r7, lsl #10
      5c:	07040300 	streq	r0, [r4, -r0, lsl #6]
      60:	00000095 	muleq	r0, r5, r0
      64:	90070803 	andls	r0, r7, r3, lsl #16
      68:	04000000 	streq	r0, [r0], #-0
      6c:	00000025 	andeq	r0, r0, r5, lsr #32
      70:	0000007a 	andeq	r0, r0, sl, ror r0
      74:	00002505 	andeq	r2, r0, r5, lsl #10
      78:	0d060000 	stceq	0, cr0, [r6, #-0]
      7c:	03000001 	movweq	r0, #1
      80:	00860e1c 	addeq	r0, r6, ip, lsl lr
      84:	04070000 	streq	r0, [r7], #-0
      88:	0000006b 	andeq	r0, r0, fp, rrx
      8c:	00002504 	andeq	r2, r0, r4, lsl #10
      90:	00009b00 	andeq	r9, r0, r0, lsl #22
      94:	009b0500 	addseq	r0, fp, r0, lsl #10
      98:	07000000 	streq	r0, [r0, -r0]
      9c:	0000a804 	andeq	sl, r0, r4, lsl #16
      a0:	08010300 	stmdaeq	r1, {r8, r9}
      a4:	00000033 	andeq	r0, r0, r3, lsr r0
      a8:	0000a108 	andeq	sl, r0, r8, lsl #2
      ac:	062c0600 	strteq	r0, [ip], -r0, lsl #12
      b0:	21030000 	mrscs	r0, (UNDEF: 3)
      b4:	0000b90e 	andeq	fp, r0, lr, lsl #18
      b8:	8c040700 	stchi	7, cr0, [r4], {-0}
      bc:	09000000 	stmdbeq	r0, {}	; <UNPREDICTABLE>
      c0:	0904020c 	stmdbeq	r4, {r2, r3, r9}
      c4:	000000f0 	strdeq	r0, [r0], -r0	; <UNPREDICTABLE>
      c8:	0000250a 	andeq	r2, r0, sl, lsl #10
      cc:	11060200 	mrsne	r0, LR_usr
      d0:	0000009b 	muleq	r0, fp, r0
      d4:	006a0a00 	rsbeq	r0, sl, r0, lsl #20
      d8:	07020000 	streq	r0, [r2, -r0]
      dc:	00009b11 	andeq	r9, r0, r1, lsl fp
      e0:	080a0400 	stmdaeq	sl, {sl}
      e4:	02000000 	andeq	r0, r0, #0, 0
      e8:	002c0e08 	eoreq	r0, ip, r8, lsl #28
      ec:	00080000 	andeq	r0, r8, r0
      f0:	00012a0b 	andeq	r2, r1, fp, lsl #20
      f4:	03090200 	movweq	r0, #37376	; 0x9200
      f8:	000000bf 	strheq	r0, [r0], -pc	; <UNPREDICTABLE>
      fc:	00001d0c 	andeq	r1, r0, ip, lsl #26
     100:	060f0100 	streq	r0, [pc], -r0, lsl #2
     104:	000080bc 	strheq	r8, [r0], -ip
     108:	00000058 	andeq	r0, r0, r8, asr r0
     10c:	01a39c01 			; <UNDEFINED> instruction: 0x01a39c01
     110:	6f0d0000 	svcvs	0x000d0000
     114:	b3000000 	movwlt	r0, #0
     118:	05000001 	streq	r0, [r0, #-1]
     11c:	009b5803 	addseq	r5, fp, r3, lsl #16
     120:	80c80e00 	sbchi	r0, r8, r0, lsl #28
     124:	03210000 			; <UNDEFINED> instruction: 0x03210000
     128:	01380000 	teqeq	r8, r0
     12c:	010f0000 	mrseq	r0, CPSR
     130:	00030550 	andeq	r0, r3, r0, asr r5
     134:	0000009b 	muleq	r0, fp, r0
     138:	0080cc10 	addeq	ip, r0, r0, lsl ip
     13c:	0001b800 	andeq	fp, r1, r0, lsl #16
     140:	80d40e00 	sbcshi	r0, r4, r0, lsl #28
     144:	032d0000 			; <UNDEFINED> instruction: 0x032d0000
     148:	01540000 	cmpeq	r4, r0
     14c:	010f0000 	mrseq	r0, CPSR
     150:	00310150 	eorseq	r0, r1, r0, asr r1
     154:	0080e40e 	addeq	lr, r0, lr, lsl #8
     158:	00032100 	andeq	r2, r3, r0, lsl #2
     15c:	00016b00 	andeq	r6, r1, r0, lsl #22
     160:	50010f00 	andpl	r0, r1, r0, lsl #30
     164:	9b340305 	blls	d00d80 <__bss_end__+0xcf6800>
     168:	0e000000 	cdpeq	0, 0, cr0, cr0, cr0, {0}
     16c:	000080fc 	strdeq	r8, [r0], -ip
     170:	00000321 	andeq	r0, r0, r1, lsr #6
     174:	00000199 	muleq	r0, r9, r1
     178:	0550010f 	ldrbeq	r0, [r0, #-271]	; 0xfffffef1
     17c:	009b0c03 	addseq	r0, fp, r3, lsl #24
     180:	51010f00 	tstpl	r1, r0, lsl #30
     184:	9ad00305 	bls	ff400da0 <__bss_end__+0xff3f6820>
     188:	010f0000 	mrseq	r0, CPSR
     18c:	58030552 	stmdapl	r3, {r1, r4, r6, r8, sl}
     190:	0f00009b 	svceq	0x0000009b
     194:	4f015301 	svcmi	0x00015301
     198:	81001000 	mrshi	r1, (UNDEF: 0)
     19c:	03390000 	teqeq	r9, #0, 0
     1a0:	11000000 	mrsne	r0, (UNDEF: 0)
     1a4:	000000a8 	andeq	r0, r0, r8, lsr #1
     1a8:	000001b3 			; <UNDEFINED> instruction: 0x000001b3
     1ac:	00002c12 	andeq	r2, r0, r2, lsl ip
     1b0:	08000700 	stmdaeq	r0, {r8, r9, sl}
     1b4:	000001a3 	andeq	r0, r0, r3, lsr #3
     1b8:	0001e90c 	andeq	lr, r1, ip, lsl #18
     1bc:	06080100 	streq	r0, [r8], -r0, lsl #2
     1c0:	00008038 	andeq	r8, r0, r8, lsr r0
     1c4:	00000084 	andeq	r0, r0, r4, lsl #1
     1c8:	02d09c01 	sbcseq	r9, r0, #256	; 0x100
     1cc:	70130000 	andsvc	r0, r3, r0
     1d0:	0b090100 	bleq	2405d8 <__bss_end__+0x236058>
     1d4:	000002d0 	ldrdeq	r0, [r0], -r0	; <UNPREDICTABLE>
     1d8:	00000006 	andeq	r0, r0, r6
     1dc:	00000000 	andeq	r0, r0, r0
     1e0:	00006f0d 	andeq	r6, r0, sp, lsl #30
     1e4:	0002e600 	andeq	lr, r2, r0, lsl #12
     1e8:	50030500 	andpl	r0, r3, r0, lsl #10
     1ec:	1400009b 	strne	r0, [r0], #-155	; 0xffffff65
     1f0:	000002eb 	andeq	r0, r0, fp, ror #5
     1f4:	00008040 	andeq	r8, r0, r0, asr #32
     1f8:	00804001 	addeq	r4, r0, r1
     1fc:	00001800 	andeq	r1, r0, r0, lsl #16
     200:	0f090100 	svceq	0x00090100
     204:	00000230 	andeq	r0, r0, r0, lsr r2
     208:	00031415 	andeq	r1, r3, r5, lsl r4
     20c:	00003100 	andeq	r3, r0, r0, lsl #2
     210:	00002f00 	andeq	r2, r0, r0, lsl #30
     214:	03081500 	movweq	r1, #34048	; 0x8500
     218:	00470000 	subeq	r0, r7, r0
     21c:	00450000 	subeq	r0, r5, r0
     220:	fc150000 	ldc2	0, cr0, [r5], {-0}
     224:	61000002 	tstvs	r0, r2
     228:	5f000000 	svcpl	0x00000000
     22c:	00000000 	andeq	r0, r0, r0
     230:	0002eb14 	andeq	lr, r2, r4, lsl fp
     234:	00808800 	addeq	r8, r0, r0, lsl #16
     238:	80880100 	addhi	r0, r8, r0, lsl #2
     23c:	00100000 	andseq	r0, r0, r0
     240:	0c010000 	stceq	0, cr0, [r1], {-0}
     244:	00027105 	andeq	r7, r2, r5, lsl #2
     248:	03141500 	tsteq	r4, #0, 10
     24c:	007b0000 	rsbseq	r0, fp, r0
     250:	00790000 	rsbseq	r0, r9, r0
     254:	08150000 	ldmdaeq	r5, {}	; <UNPREDICTABLE>
     258:	91000003 	tstls	r0, r3
     25c:	8f000000 	svchi	0x00000000
     260:	15000000 	strne	r0, [r0, #-0]
     264:	000002fc 	strdeq	r0, [r0], -ip
     268:	000000ab 	andeq	r0, r0, fp, lsr #1
     26c:	000000a9 	andeq	r0, r0, r9, lsr #1
     270:	80680e00 	rsbhi	r0, r8, r0, lsl #28
     274:	034f0000 	movteq	r0, #61440	; 0xf000
     278:	02840000 	addeq	r0, r4, #0, 0
     27c:	010f0000 	mrseq	r0, CPSR
     280:	00340150 	eorseq	r0, r4, r0, asr r1
     284:	0080780e 	addeq	r7, r0, lr, lsl #16
     288:	00032100 	andeq	r2, r3, r0, lsl #2
     28c:	0002a100 	andeq	sl, r2, r0, lsl #2
     290:	50010f00 	andpl	r0, r1, r0, lsl #30
     294:	9ae40305 	bls	ff900eb0 <__bss_end__+0xff8f6930>
     298:	010f0000 	mrseq	r0, CPSR
     29c:	00740251 	rsbseq	r0, r4, r1, asr r2
     2a0:	80880e00 	addhi	r0, r8, r0, lsl #28
     2a4:	035b0000 	cmpeq	fp, #0, 0
     2a8:	02bf0000 	adcseq	r0, pc, #0, 0
     2ac:	010f0000 	mrseq	r0, CPSR
     2b0:	00740250 	rsbseq	r0, r4, r0, asr r2
     2b4:	0151010f 	cmpeq	r1, pc, lsl #2
     2b8:	52010f30 	andpl	r0, r1, #48, 30	; 0xc0
     2bc:	16003401 	strne	r3, [r0], -r1, lsl #8
     2c0:	000080a8 	andeq	r8, r0, r8, lsr #1
     2c4:	00000367 	andeq	r0, r0, r7, ror #6
     2c8:	0250010f 	subseq	r0, r0, #-1073741821	; 0xc0000003
     2cc:	00000074 	andeq	r0, r0, r4, ror r0
     2d0:	00a10407 	adceq	r0, r1, r7, lsl #8
     2d4:	a8110000 	ldmdage	r1, {}	; <UNPREDICTABLE>
     2d8:	e6000000 	str	r0, [r0], -r0
     2dc:	12000002 	andne	r0, r0, #2, 0
     2e0:	0000002c 	andeq	r0, r0, ip, lsr #32
     2e4:	d6080005 	strle	r0, [r8], -r5
     2e8:	17000002 	strne	r0, [r0, -r2]
     2ec:	00000058 	andeq	r0, r0, r8, asr r0
     2f0:	f00b0c02 			; <UNDEFINED> instruction: 0xf00b0c02
     2f4:	03000000 	movweq	r0, #0
     2f8:	00000321 	andeq	r0, r0, r1, lsr #6
     2fc:	00002518 	andeq	r2, r0, r8, lsl r5
     300:	220c0200 	andcs	r0, ip, #0, 4
     304:	0000009b 	muleq	r0, fp, r0
     308:	00006a18 	andeq	r6, r0, r8, lsl sl
     30c:	340c0200 	strcc	r0, [ip], #-512	; 0xfffffe00
     310:	0000009b 	muleq	r0, fp, r0
     314:	00000818 	andeq	r0, r0, r8, lsl r8
     318:	430c0200 	movwmi	r0, #49664	; 0xc200
     31c:	0000002c 	andeq	r0, r0, ip, lsr #32
     320:	05ee1900 	strbeq	r1, [lr, #2304]!	; 0x900
     324:	05ee0000 	strbeq	r0, [lr, #0]!
     328:	28030000 	stmdacs	r3, {}	; <UNPREDICTABLE>
     32c:	000f1906 	andeq	r1, pc, r6, lsl #18
     330:	000f0000 	andeq	r0, pc, r0
     334:	49040000 	stmdbmi	r4, {}	; <UNPREDICTABLE>
     338:	0038190a 	eorseq	r1, r8, sl, lsl #18
     33c:	00380000 	eorseq	r0, r8, r0
     340:	6e030000 	cdpvs	0, 0, cr0, cr3, cr0, {0}
     344:	9e081a06 	vmlals.f32	s2, s16, s12
     348:	73657406 	cmnvc	r5, #100663296	; 0x6000000
     34c:	19003174 	stmdbne	r0, {r2, r4, r5, r6, r8, ip, sp}
	...
     358:	19083304 	stmdbne	r8, {r2, r8, r9, ip, sp}
     35c:	00000063 	andeq	r0, r0, r3, rrx
     360:	00000063 	andeq	r0, r0, r3, rrx
     364:	1907f703 	stmdbne	r7, {r0, r1, r8, r9, sl, ip, sp, lr, pc}
     368:	00000119 	andeq	r0, r0, r9, lsl r1
     36c:	00000119 	andeq	r0, r0, r9, lsl r1
     370:	00073404 	andeq	r3, r7, r4, lsl #8
     374:	0000082d 	andeq	r0, r0, sp, lsr #16
     378:	016e0004 	cmneq	lr, r4
     37c:	01040000 	mrseq	r0, (UNDEF: 4)
     380:	00000134 	andeq	r0, r0, r4, lsr r1
     384:	0002ba0c 	andeq	fp, r2, ip, lsl #20
     388:	0000a700 	andeq	sl, r0, r0, lsl #14
     38c:	00811400 	addeq	r1, r1, r0, lsl #8
     390:	00038400 	andeq	r8, r3, r0, lsl #8
     394:	00011800 	andeq	r1, r1, r0, lsl #16
     398:	05040200 	streq	r0, [r4, #-512]	; 0xfffffe00
     39c:	00746e69 	rsbseq	r6, r4, r9, ror #28
     3a0:	9a070403 	bls	1c13b4 <__bss_end__+0x1b6e34>
     3a4:	03000000 	movweq	r0, #0
     3a8:	002c0601 	eoreq	r0, ip, r1, lsl #12
     3ac:	02030000 	andeq	r0, r3, #0, 0
     3b0:	00012005 	andeq	r2, r1, r5
     3b4:	05040300 	streq	r0, [r4, #-768]	; 0xfffffd00
     3b8:	00000104 	andeq	r0, r0, r4, lsl #2
     3bc:	ff050803 			; <UNDEFINED> instruction: 0xff050803
     3c0:	03000000 	movweq	r0, #0
     3c4:	002a0801 	eoreq	r0, sl, r1, lsl #16
     3c8:	93040000 	movwls	r0, #16384	; 0x4000
     3cc:	03000002 	movweq	r0, #2
     3d0:	00621931 	rsbeq	r1, r2, r1, lsr r9
     3d4:	02030000 	andeq	r0, r3, #0, 0
     3d8:	00004507 	andeq	r4, r0, r7, lsl #10
     3dc:	028a0400 	addeq	r0, sl, #0, 8
     3e0:	34030000 	strcc	r0, [r3], #-0
     3e4:	00007519 	andeq	r7, r0, r9, lsl r5
     3e8:	07040300 	streq	r0, [r4, -r0, lsl #6]
     3ec:	00000095 	muleq	r0, r5, r0
     3f0:	90070803 	andls	r0, r7, r3, lsl #16
     3f4:	05000000 	streq	r0, [r0, #-0]
     3f8:	00000025 	andeq	r0, r0, r5, lsr #32
     3fc:	00000092 	muleq	r0, r2, r0
     400:	00002506 	andeq	r2, r0, r6, lsl #10
     404:	0d070000 	stceq	0, cr0, [r7, #-0]
     408:	04000001 	streq	r0, [r0], #-1
     40c:	009e0e1c 	addseq	r0, lr, ip, lsl lr
     410:	04080000 	streq	r0, [r8], #-0
     414:	00000083 	andeq	r0, r0, r3, lsl #1
     418:	00002505 	andeq	r2, r0, r5, lsl #10
     41c:	0000b300 	andeq	fp, r0, r0, lsl #6
     420:	00b30600 	adcseq	r0, r3, r0, lsl #12
     424:	08000000 	stmdaeq	r0, {}	; <UNPREDICTABLE>
     428:	0000c004 	andeq	ip, r0, r4
     42c:	08010300 	stmdaeq	r1, {r8, r9}
     430:	00000033 	andeq	r0, r0, r3, lsr r0
     434:	0000b909 	andeq	fp, r0, r9, lsl #18
     438:	062c0700 	strteq	r0, [ip], -r0, lsl #14
     43c:	21040000 	mrscs	r0, (UNDEF: 4)
     440:	0000d10e 	andeq	sp, r0, lr, lsl #2
     444:	a4040800 	strge	r0, [r4], #-2048	; 0xfffff800
     448:	0a000000 	beq	450 <__code_start__-0x7bb0>
     44c:	0904050c 	stmdbeq	r4, {r2, r3, r8, sl}
     450:	00000108 	andeq	r0, r0, r8, lsl #2
     454:	0000250b 	andeq	r2, r0, fp, lsl #10
     458:	11060500 	tstne	r6, r0, lsl #10
     45c:	000000b3 	strheq	r0, [r0], -r3
     460:	006a0b00 	rsbeq	r0, sl, r0, lsl #22
     464:	07050000 	streq	r0, [r5, -r0]
     468:	0000b311 	andeq	fp, r0, r1, lsl r3
     46c:	080b0400 	stmdaeq	fp, {sl}
     470:	05000000 	streq	r0, [r0, #-0]
     474:	002c0e08 	eoreq	r0, ip, r8, lsl #28
     478:	00080000 	andeq	r0, r8, r0
     47c:	00012a04 	andeq	r2, r1, r4, lsl #20
     480:	03090500 	movweq	r0, #38144	; 0x9500
     484:	000000d7 	ldrdeq	r0, [r0], -r7
     488:	4f01070c 	svcmi	0x0001070c
     48c:	02000000 	andeq	r0, r0, #0, 0
     490:	012f0e0a 			; <UNDEFINED> instruction: 0x012f0e0a
     494:	c40d0000 	strgt	r0, [sp], #-0
     498:	0b000002 	bleq	4a8 <__code_start__-0x7b58>
     49c:	0002190d 	andeq	r1, r2, sp, lsl #18
     4a0:	0e000c00 	cdpeq	12, 0, cr0, cr0, cr0, {0}
     4a4:	00000263 	andeq	r0, r0, r3, ror #4
     4a8:	100d0224 	andne	r0, sp, r4, lsr #4
     4ac:	00000198 	muleq	r0, r8, r1
     4b0:	00030a0b 	andeq	r0, r3, fp, lsl #20
     4b4:	140e0200 	strne	r0, [lr], #-512	; 0xfffffe00
     4b8:	00000198 	muleq	r0, r8, r1
     4bc:	02cc0b00 	sbceq	r0, ip, #0, 22
     4c0:	0f020000 	svceq	0x00020000
     4c4:	0000690e 	andeq	r6, r0, lr, lsl #18
     4c8:	740b0400 	strvc	r0, [fp], #-1024	; 0xfffffc00
     4cc:	02000002 	andeq	r0, r0, #2, 0
     4d0:	00690e10 	rsbeq	r0, r9, r0, lsl lr
     4d4:	0b080000 	bleq	2004dc <__bss_end__+0x1f5f5c>
     4d8:	0000026a 	andeq	r0, r0, sl, ror #4
     4dc:	080f1202 	stmdaeq	pc, {r1, r9, ip}	; <UNPREDICTABLE>
     4e0:	0c000001 	stceq	0, cr0, [r0], {1}
     4e4:	00027f0b 	andeq	r7, r2, fp, lsl #30
     4e8:	0e150200 	cdpeq	2, 1, cr0, cr5, cr0, {0}
     4ec:	00000069 	andeq	r0, r0, r9, rrx
     4f0:	021f0b18 	andseq	r0, pc, #24, 22	; 0x6000
     4f4:	16020000 	strne	r0, [r2], -r0
     4f8:	0000690e 	andeq	r6, r0, lr, lsl #18
     4fc:	7a0b1c00 	bvc	2c7504 <__bss_end__+0x2bcf84>
     500:	02000002 	andeq	r0, r0, #2, 0
     504:	00560e18 	subseq	r0, r6, r8, lsl lr
     508:	00200000 	eoreq	r0, r0, r0
     50c:	012f0408 			; <UNDEFINED> instruction: 0x012f0408
     510:	13040000 	movwne	r0, #16384	; 0x4000
     514:	02000002 	andeq	r0, r0, #2, 0
     518:	012f0319 			; <UNDEFINED> instruction: 0x012f0319
     51c:	040f0000 	streq	r0, [pc], #-0	; 524 <__code_start__-0x7adc>
     520:	00024c10 	andeq	r4, r2, r0, lsl ip
     524:	0f080100 	svceq	0x00080100
     528:	000001be 			; <UNDEFINED> instruction: 0x000001be
     52c:	a1540305 	cmpge	r4, r5, lsl #6
     530:	04080000 	streq	r0, [r8], #-0
     534:	0000019e 	muleq	r0, lr, r1
     538:	0001ff10 	andeq	pc, r1, r0, lsl pc	; <UNPREDICTABLE>
     53c:	0f090100 	svceq	0x00090100
     540:	000001be 			; <UNDEFINED> instruction: 0x000001be
     544:	a1500305 	cmpge	r0, r5, lsl #6
     548:	00110000 	andseq	r0, r1, r0
     54c:	01000000 	mrseq	r0, (UNDEF: 0)
     550:	01aa0869 			; <UNDEFINED> instruction: 0x01aa0869
     554:	84000000 	strhi	r0, [r0], #-0
     558:	00980000 	addseq	r0, r8, r0
     55c:	9c010000 	stcls	0, cr0, [r1], {-0}
     560:	000002b0 			; <UNDEFINED> instruction: 0x000002b0
     564:	0002f912 	andeq	pc, r2, r2, lsl r9	; <UNPREDICTABLE>
     568:	1a690100 	bne	1a40970 <__bss_end__+0x1a363f0>
     56c:	00000069 	andeq	r0, r0, r9, rrx
     570:	000000c9 	andeq	r0, r0, r9, asr #1
     574:	000000c3 	andeq	r0, r0, r3, asr #1
     578:	01006c13 	tsteq	r0, r3, lsl ip
     57c:	01082c69 	tsteq	r8, r9, ror #24
     580:	91020000 	mrsls	r0, (UNDEF: 2)
     584:	00681464 	rsbeq	r1, r8, r4, ror #8
     588:	be0c6b01 	vmlalt.f64	d6, d12, d1
     58c:	fb000001 	blx	59a <__code_start__-0x7a66>
     590:	f5000000 			; <UNDEFINED> instruction: 0xf5000000
     594:	15000000 	strne	r0, [r0, #-0]
     598:	0000841c 	andeq	r8, r0, ip, lsl r4
     59c:	000007f4 	strdeq	r0, [r0], -r4
     5a0:	00000237 	andeq	r0, r0, r7, lsr r2
     5a4:	02500116 	subseq	r0, r0, #-2147483643	; 0x80000005
     5a8:	15002476 	strne	r2, [r0, #-1142]	; 0xfffffb8a
     5ac:	0000842c 	andeq	r8, r0, ip, lsr #8
     5b0:	00000800 	andeq	r0, r0, r0, lsl #16
     5b4:	00000256 	andeq	r0, r0, r6, asr r2
     5b8:	02500116 	subseq	r0, r0, #-2147483643	; 0x80000005
     5bc:	01160074 	tsteq	r6, r4, ror r0
     5c0:	16300151 			; <UNDEFINED> instruction: 0x16300151
     5c4:	08025201 	stmdaeq	r2, {r0, r9, ip, lr}
     5c8:	64150024 	ldrvs	r0, [r5], #-36	; 0xffffffdc
     5cc:	0c000084 	stceq	0, cr0, [r0], {132}	; 0x84
     5d0:	82000008 	andhi	r0, r0, #8, 0
     5d4:	16000002 	strne	r0, [r0], -r2
     5d8:	03055001 	movweq	r5, #20481	; 0x5001
     5dc:	00009bf8 	strdeq	r9, [r0], -r8
     5e0:	03510116 	cmpeq	r1, #-2147483643	; 0x80000005
     5e4:	16060075 			; <UNDEFINED> instruction: 0x16060075
     5e8:	91035201 	tstls	r3, r1, lsl #4
     5ec:	01160660 	tsteq	r6, r0, ror #12
     5f0:	64910353 	ldrvs	r0, [r1], #851	; 0x353
     5f4:	70150006 	andsvc	r0, r5, r6
     5f8:	0c000084 	stceq	0, cr0, [r0], {132}	; 0x84
     5fc:	9f000008 	svcls	0x00000008
     600:	16000002 	strne	r0, [r0], -r2
     604:	03055001 	movweq	r5, #20481	; 0x5001
     608:	00009c4c 	andeq	r9, r0, ip, asr #24
     60c:	02510116 	subseq	r0, r1, #-2147483643	; 0x80000005
     610:	17000074 	smlsdxne	r0, r4, r0, r0
     614:	00008480 	andeq	r8, r0, r0, lsl #9
     618:	0000061a 	andeq	r0, r0, sl, lsl r6
     61c:	02510116 	subseq	r0, r1, #-2147483643	; 0x80000005
     620:	00000074 	andeq	r0, r0, r4, ror r0
     624:	00011918 	andeq	r1, r1, r8, lsl r9
     628:	07590100 	ldrbeq	r0, [r9, -r0, lsl #2]
     62c:	000082e4 	andeq	r8, r0, r4, ror #5
     630:	0000011c 	andeq	r0, r0, ip, lsl r1
     634:	04789c01 	ldrbteq	r9, [r8], #-3073	; 0xfffff3ff
     638:	ab120000 	blge	480640 <__bss_end__+0x4760c0>
     63c:	0100000a 	tsteq	r0, sl
     640:	01aa1559 			; <UNDEFINED> instruction: 0x01aa1559
     644:	012a0000 			; <UNDEFINED> instruction: 0x012a0000
     648:	01260000 			; <UNDEFINED> instruction: 0x01260000
     64c:	6c130000 	ldcvs	0, cr0, [r3], {-0}
     650:	25590100 	ldrbcs	r0, [r9, #-256]	; 0xffffff00
     654:	00000108 	andeq	r0, r0, r8, lsl #2
     658:	14649102 	strbtne	r9, [r4], #-258	; 0xfffffefe
     65c:	5a010068 	bpl	40804 <__bss_end__+0x36284>
     660:	0001be0c 	andeq	fp, r1, ip, lsl #28
     664:	00015000 	andeq	r5, r1, r0
     668:	00014800 	andeq	r4, r1, r0, lsl #16
     66c:	006f1900 	rsbeq	r1, pc, r0, lsl #18
     670:	04880000 	streq	r0, [r8], #0
     674:	03050000 	movweq	r0, #20480	; 0x5000
     678:	00009c74 	andeq	r9, r0, r4, ror ip
     67c:	00831c15 	addeq	r1, r3, r5, lsl ip
     680:	00080c00 	andeq	r0, r8, r0, lsl #24
     684:	00033400 	andeq	r3, r3, r0, lsl #8
     688:	50011600 	andpl	r1, r1, r0, lsl #12
     68c:	9bf80305 	blls	ffe012a8 <__bss_end__+0xffdf6d28>
     690:	01160000 	tsteq	r6, r0
     694:	5c910351 	ldcpl	3, cr0, [r1], {81}	; 0x51
     698:	52011606 	andpl	r1, r1, #6291456	; 0x600000
     69c:	06609103 	strbteq	r9, [r0], -r3, lsl #2
     6a0:	03530116 	cmpeq	r3, #-2147483643	; 0x80000005
     6a4:	00066491 	muleq	r6, r1, r4
     6a8:	00832815 	addeq	r2, r3, r5, lsl r8
     6ac:	00080c00 	andeq	r0, r8, r0, lsl #24
     6b0:	00035100 	andeq	r5, r3, r0, lsl #2
     6b4:	50011600 	andpl	r1, r1, r0, lsl #12
     6b8:	9c040305 	stcls	3, cr0, [r4], {5}
     6bc:	01160000 	tsteq	r6, r0
     6c0:	00740251 	rsbseq	r0, r4, r1, asr r2
     6c4:	83301500 	teqhi	r0, #0, 10
     6c8:	048d0000 	streq	r0, [sp], #0
     6cc:	03650000 	cmneq	r5, #0, 0
     6d0:	01160000 	tsteq	r6, r0
     6d4:	00740250 	rsbseq	r0, r4, r0, asr r2
     6d8:	83501500 	cmphi	r0, #0, 10
     6dc:	06d50000 	ldrbeq	r0, [r5], r0
     6e0:	03790000 	cmneq	r9, #0, 0
     6e4:	01160000 	tsteq	r6, r0
     6e8:	00750251 	rsbseq	r0, r5, r1, asr r2
     6ec:	83581500 	cmphi	r8, #0, 10
     6f0:	048d0000 	streq	r0, [sp], #0
     6f4:	038d0000 	orreq	r0, sp, #0, 0
     6f8:	01160000 	tsteq	r6, r0
     6fc:	00740250 	rsbseq	r0, r4, r0, asr r2
     700:	83681500 	cmnhi	r8, #0, 10
     704:	08180000 	ldmdaeq	r8, {}	; <UNPREDICTABLE>
     708:	03a10000 			; <UNDEFINED> instruction: 0x03a10000
     70c:	01160000 	tsteq	r6, r0
     710:	00750250 	rsbseq	r0, r5, r0, asr r2
     714:	83841500 	orrhi	r1, r4, #0, 10
     718:	080c0000 	stmdaeq	ip, {}	; <UNPREDICTABLE>
     71c:	03cd0000 	biceq	r0, sp, #0, 0
     720:	01160000 	tsteq	r6, r0
     724:	b0030550 	andlt	r0, r3, r0, asr r5
     728:	1600009b 			; <UNDEFINED> instruction: 0x1600009b
     72c:	91035101 	tstls	r3, r1, lsl #2
     730:	0116065c 	tsteq	r6, ip, asr r6
     734:	60910352 	addsvs	r0, r1, r2, asr r3
     738:	53011606 	movwpl	r1, #5638	; 0x1606
     73c:	06649103 	strbteq	r9, [r4], -r3, lsl #2
     740:	83941500 	orrshi	r1, r4, #0, 10
     744:	080c0000 	stmdaeq	ip, {}	; <UNPREDICTABLE>
     748:	03ea0000 	mvneq	r0, #0, 0
     74c:	01160000 	tsteq	r6, r0
     750:	c8030550 	stmdagt	r3, {r4, r6, r8, sl}
     754:	1600009b 			; <UNDEFINED> instruction: 0x1600009b
     758:	74025101 	strvc	r5, [r2], #-257	; 0xfffffeff
     75c:	981a0000 	ldmdals	sl, {}	; <UNPREDICTABLE>
     760:	24000083 	strcs	r0, [r0], #-131	; 0xffffff7d
     764:	15000008 	strne	r0, [r0, #-8]
     768:	000083b4 			; <UNDEFINED> instruction: 0x000083b4
     76c:	0000080c 	andeq	r0, r0, ip, lsl #16
     770:	0000042c 	andeq	r0, r0, ip, lsr #8
     774:	05500116 	ldrbeq	r0, [r0, #-278]	; 0xfffffeea
     778:	009b6c03 	addseq	r6, fp, r3, lsl #24
     77c:	51011600 	tstpl	r1, r0, lsl #12
     780:	9b600305 	blls	180139c <__bss_end__+0x17f6e1c>
     784:	01160000 	tsteq	r6, r0
     788:	74030552 	strvc	r0, [r3], #-1362	; 0xfffffaae
     78c:	1600009c 			; <UNDEFINED> instruction: 0x1600009c
     790:	08025301 	stmdaeq	r2, {r0, r8, r9, ip, lr}
     794:	7d02165f 	stcvc	6, cr1, [r2, #-380]	; 0xfffffe84
     798:	10030500 	andne	r0, r3, r0, lsl #10
     79c:	0000009c 	muleq	r0, ip, r0
     7a0:	0083b81a 	addeq	fp, r3, sl, lsl r8
     7a4:	00082400 	andeq	r2, r8, r0, lsl #8
     7a8:	83d41500 	bicshi	r1, r4, #0, 10
     7ac:	080c0000 	stmdaeq	ip, {}	; <UNPREDICTABLE>
     7b0:	046e0000 	strbteq	r0, [lr], #-0
     7b4:	01160000 	tsteq	r6, r0
     7b8:	6c030550 	cfstr32vs	mvfx0, [r3], {80}	; 0x50
     7bc:	1600009b 			; <UNDEFINED> instruction: 0x1600009b
     7c0:	03055101 	movweq	r5, #20737	; 0x5101
     7c4:	00009b60 	andeq	r9, r0, r0, ror #22
     7c8:	05520116 	ldrbeq	r0, [r2, #-278]	; 0xfffffeea
     7cc:	009c7403 	addseq	r7, ip, r3, lsl #8
     7d0:	53011600 	movwpl	r1, #5632	; 0x1600
     7d4:	16620802 	strbtne	r0, [r2], -r2, lsl #16
     7d8:	05007d02 	streq	r7, [r0, #-3330]	; 0xfffff2fe
     7dc:	009c3003 	addseq	r3, ip, r3
     7e0:	d81a0000 	ldmdale	sl, {}	; <UNPREDICTABLE>
     7e4:	24000083 	strcs	r0, [r0], #-131	; 0xffffff7d
     7e8:	00000008 	andeq	r0, r0, r8
     7ec:	0000c01b 	andeq	ip, r0, fp, lsl r0
     7f0:	00048800 	andeq	r8, r4, r0, lsl #16
     7f4:	002c1c00 	eoreq	r1, ip, r0, lsl #24
     7f8:	00060000 	andeq	r0, r6, r0
     7fc:	00047809 	andeq	r7, r4, r9, lsl #16
     800:	029c1100 	addseq	r1, ip, #0
     804:	4d010000 	stcmi	0, cr0, [r1, #-0]
     808:	0001be08 	andeq	fp, r1, r8, lsl #28
     80c:	00829400 	addeq	r9, r2, r0, lsl #8
     810:	00005000 	andeq	r5, r0, r0
     814:	0b9c0100 	bleq	fe700c1c <__bss_end__+0xfe6f669c>
     818:	1d000005 	stcne	0, cr0, [r0, #-20]	; 0xffffffec
     81c:	00727470 	rsbseq	r7, r2, r0, ror r4
     820:	aa204d01 	bge	813c2c <__bss_end__+0x8096ac>
     824:	8c000001 	stchi	0, cr0, [r0], {1}
     828:	88000001 	stmdahi	r0, {r0}
     82c:	1e000001 	cdpne	0, 0, cr0, cr0, cr1, {0}
     830:	0000829c 	muleq	r0, ip, r2
     834:	00000040 	andeq	r0, r0, r0, asr #32
     838:	01006814 	tsteq	r0, r4, lsl r8
     83c:	01be104e 			; <UNDEFINED> instruction: 0x01be104e
     840:	01b20000 			; <UNDEFINED> instruction: 0x01b20000
     844:	01aa0000 			; <UNDEFINED> instruction: 0x01aa0000
     848:	a01a0000 	andsge	r0, sl, r0
     84c:	04000082 	streq	r0, [r0], #-130	; 0xffffff7e
     850:	15000006 	strne	r0, [r0, #-6]
     854:	000082b0 			; <UNDEFINED> instruction: 0x000082b0
     858:	000005d7 	ldrdeq	r0, [r0], -r7
     85c:	000004f3 	strdeq	r0, [r0], -r3
     860:	02500116 	subseq	r0, r0, #-2147483643	; 0x80000005
     864:	17000074 	smlsdxne	r0, r4, r0, r0
     868:	000082c8 	andeq	r8, r0, r8, asr #5
     86c:	0000050b 	andeq	r0, r0, fp, lsl #10
     870:	02500116 	subseq	r0, r0, #-2147483643	; 0x80000005
     874:	01160074 	tsteq	r6, r4, ror r0
     878:	00750251 	rsbseq	r0, r5, r1, asr r2
     87c:	11000000 	mrsne	r0, (UNDEF: 0)
     880:	000001ef 	andeq	r0, r0, pc, ror #3
     884:	2c0a4501 	cfstr32cs	mvfx4, [sl], {1}
     888:	5c000000 	stcpl	0, cr0, [r0], {-0}
     88c:	38000082 	stmdacc	r0, {r1, r7}
     890:	01000000 	mrseq	r0, (UNDEF: 0)
     894:	0005469c 	muleq	r5, ip, r6
     898:	00681d00 	rsbeq	r1, r8, r0, lsl #26
     89c:	be214501 	cfsh64lt	mvdx4, mvdx1, #1
     8a0:	f0000001 			; <UNDEFINED> instruction: 0xf0000001
     8a4:	e6000001 	str	r0, [r0], -r1
     8a8:	13000001 	movwne	r0, #1
     8ac:	00727470 	rsbseq	r7, r2, r0, ror r4
     8b0:	aa2a4501 	bge	a91cbc <__bss_end__+0xa8773c>
     8b4:	01000001 	tsteq	r0, r1
     8b8:	e6110051 			; <UNDEFINED> instruction: 0xe6110051
     8bc:	01000002 	tsteq	r0, r2
     8c0:	01aa0740 			; <UNDEFINED> instruction: 0x01aa0740
     8c4:	82440000 	subhi	r0, r4, #0, 0
     8c8:	00180000 	andseq	r0, r8, r0
     8cc:	9c010000 	stcls	0, cr0, [r1], {-0}
     8d0:	000005aa 	andeq	r0, r0, sl, lsr #11
     8d4:	0100681d 	tsteq	r0, sp, lsl r8
     8d8:	01be1940 			; <UNDEFINED> instruction: 0x01be1940
     8dc:	023b0000 	eorseq	r0, fp, #0, 0
     8e0:	02370000 	eorseq	r0, r7, #0, 0
     8e4:	d81f0000 	ldmdale	pc, {}	; <UNPREDICTABLE>
     8e8:	50000007 	andpl	r0, r0, r7
     8ec:	00000082 	andeq	r0, r0, r2, lsl #1
     8f0:	00008250 	andeq	r8, r0, r0, asr r2
     8f4:	00000004 	andeq	r0, r0, r4
     8f8:	99264101 	stmdbls	r6!, {r0, r8, lr}
     8fc:	20000005 	andcs	r0, r0, r5
     900:	000007e9 	andeq	r0, r0, r9, ror #15
     904:	0000025b 	andeq	r0, r0, fp, asr r2
     908:	00000259 	andeq	r0, r0, r9, asr r2
     90c:	82501700 	subshi	r1, r0, #0, 14
     910:	05aa0000 	streq	r0, [sl, #0]!
     914:	01160000 	tsteq	r6, r0
     918:	00740250 	rsbseq	r0, r4, r0, asr r2
     91c:	d9110000 	ldmdble	r1, {}	; <UNPREDICTABLE>
     920:	01000002 	tsteq	r0, r2
     924:	01aa073b 			; <UNDEFINED> instruction: 0x01aa073b
     928:	823c0000 	eorshi	r0, ip, #0, 0
     92c:	00080000 	andeq	r0, r8, r0
     930:	9c010000 	stcls	0, cr0, [r1], {-0}
     934:	000005d7 	ldrdeq	r0, [r0], -r7
     938:	0100681d 	tsteq	r0, sp, lsl r8
     93c:	01be1b3b 			; <UNDEFINED> instruction: 0x01be1b3b
     940:	02720000 	rsbseq	r0, r2, #0, 0
     944:	026e0000 	rsbeq	r0, lr, #0, 0
     948:	11000000 	mrsne	r0, (UNDEF: 0)
     94c:	000002ae 	andeq	r0, r0, lr, lsr #5
     950:	be083401 	cdplt	4, 0, cr3, cr8, cr1, {0}
     954:	98000001 	stmdals	r0, {r0}
     958:	10000081 	andne	r0, r0, r1, lsl #1
     95c:	01000000 	mrseq	r0, (UNDEF: 0)
     960:	0006049c 	muleq	r6, ip, r4
     964:	00701d00 	rsbseq	r1, r0, r0, lsl #26
     968:	be1b3401 	cfmulslt	mvf3, mvf11, mvf1
     96c:	96000001 	strls	r0, [r0], -r1
     970:	92000002 	andls	r0, r0, #2, 0
     974:	00000002 	andeq	r0, r0, r2
     978:	00023f21 	andeq	r3, r2, r1, lsr #30
     97c:	082f0100 	stmdaeq	pc!, {r8}	; <UNPREDICTABLE>
     980:	000001be 			; <UNDEFINED> instruction: 0x000001be
     984:	00008188 	andeq	r8, r0, r8, lsl #3
     988:	00000010 	andeq	r0, r0, r0, lsl r0
     98c:	2b229c01 	blcs	8a7998 <__bss_end__+0x89d418>
     990:	01000002 	tsteq	r0, r2
     994:	81140d1f 	tsthi	r4, pc, lsl sp
     998:	00740000 	rsbseq	r0, r4, r0
     99c:	9c010000 	stcls	0, cr0, [r1], {-0}
     9a0:	000006c0 	andeq	r0, r0, r0, asr #13
     9a4:	01006c1d 	tsteq	r0, sp, lsl ip
     9a8:	01be201f 			; <UNDEFINED> instruction: 0x01be201f
     9ac:	02bb0000 	adcseq	r0, fp, #0, 0
     9b0:	02b70000 	adcseq	r0, r7, #0, 0
     9b4:	681d0000 	ldmdavs	sp, {}	; <UNPREDICTABLE>
     9b8:	2a1f0100 	bcs	7c0dc0 <__bss_end__+0x7b6840>
     9bc:	000001be 			; <UNDEFINED> instruction: 0x000001be
     9c0:	000002e0 	andeq	r0, r0, r0, ror #5
     9c4:	000002dc 	ldrdeq	r0, [r0], -ip
     9c8:	00006f19 	andeq	r6, r0, r9, lsl pc
     9cc:	0006d000 	andeq	sp, r6, r0
     9d0:	5c030500 	cfstr32pl	mvfx0, [r3], {-0}
     9d4:	2300009c 	movwcs	r0, #156	; 0x9c
     9d8:	00000000 	andeq	r0, r0, r0
     9dc:	00020924 	andeq	r0, r2, r4, lsr #18
     9e0:	0a270100 	beq	9c0de8 <__bss_end__+0x9b6868>
     9e4:	000001be 			; <UNDEFINED> instruction: 0x000001be
     9e8:	00000303 	andeq	r0, r0, r3, lsl #6
     9ec:	00000301 	andeq	r0, r0, r1, lsl #6
     9f0:	00817015 	addeq	r7, r1, r5, lsl r0
     9f4:	00080c00 	andeq	r0, r8, r0, lsl #24
     9f8:	0006b500 	andeq	fp, r6, r0, lsl #10
     9fc:	50011600 	andpl	r1, r1, r0, lsl #12
     a00:	9b6c0305 	blls	1b0161c <__bss_end__+0x1af709c>
     a04:	01160000 	tsteq	r6, r0
     a08:	60030551 	andvs	r0, r3, r1, asr r5
     a0c:	1600009b 			; <UNDEFINED> instruction: 0x1600009b
     a10:	03055201 	movweq	r5, #20993	; 0x5201
     a14:	00009c5c 	andeq	r9, r0, ip, asr ip
     a18:	02530116 	subseq	r0, r3, #-2147483643	; 0x80000005
     a1c:	02162608 	andseq	r2, r6, #8, 12	; 0x800000
     a20:	0305007d 	movweq	r0, #20605	; 0x507d
     a24:	00009b80 	andeq	r9, r0, r0, lsl #23
     a28:	81741a00 	cmnhi	r4, r0, lsl #20
     a2c:	08240000 	stmdaeq	r4!, {}	; <UNPREDICTABLE>
     a30:	00000000 	andeq	r0, r0, r0
     a34:	0000c01b 	andeq	ip, r0, fp, lsl r0
     a38:	0006d000 	andeq	sp, r6, r0
     a3c:	002c1c00 	eoreq	r1, ip, r0, lsl #24
     a40:	000b0000 	andeq	r0, fp, r0
     a44:	0006c009 	andeq	ip, r6, r9
     a48:	02572200 	subseq	r2, r7, #0, 4
     a4c:	0b010000 	bleq	40a54 <__bss_end__+0x364d4>
     a50:	0081a80d 	addeq	sl, r1, sp, lsl #16
     a54:	00009400 	andeq	r9, r0, r0, lsl #8
     a58:	d89c0100 	ldmle	ip, {r8}
     a5c:	1d000007 	stcne	0, cr0, [r0, #-28]	; 0xffffffe4
     a60:	0b01006c 	bleq	40c18 <__bss_end__+0x36698>
     a64:	0001be20 	andeq	fp, r1, r0, lsr #28
     a68:	00031e00 	andeq	r1, r3, r0, lsl #28
     a6c:	00031600 	andeq	r1, r3, r0, lsl #12
     a70:	00681d00 	rsbeq	r1, r8, r0, lsl #26
     a74:	be2a0b01 	vmullt.f64	d0, d10, d1
     a78:	62000001 	andvs	r0, r0, #1, 0
     a7c:	58000003 	stmdapl	r0, {r0, r1}
     a80:	19000003 	stmdbne	r0, {r0, r1}
     a84:	0000006f 	andeq	r0, r0, pc, rrx
     a88:	000006d0 	ldrdeq	r0, [r0], -r0	; <UNPREDICTABLE>
     a8c:	9c680305 	stclls	3, cr0, [r8], #-20	; 0xffffffec
     a90:	f1240000 			; <UNDEFINED> instruction: 0xf1240000
     a94:	01000002 	tsteq	r0, r2
     a98:	01be0c0d 			; <UNDEFINED> instruction: 0x01be0c0d
     a9c:	03aa0000 			; <UNDEFINED> instruction: 0x03aa0000
     aa0:	03a40000 			; <UNDEFINED> instruction: 0x03a40000
     aa4:	70140000 	andsvc	r0, r4, r0
     aa8:	0c140100 	ldfeqs	f0, [r4], {-0}
     aac:	000001be 			; <UNDEFINED> instruction: 0x000001be
     ab0:	000003d7 	ldrdeq	r0, [r0], -r7
     ab4:	000003d3 	ldrdeq	r0, [r0], -r3
     ab8:	0081cc15 	addeq	ip, r1, r5, lsl ip
     abc:	0005d700 	andeq	sp, r5, r0, lsl #14
     ac0:	00075800 	andeq	r5, r7, r0, lsl #16
     ac4:	50011600 	andpl	r1, r1, r0, lsl #12
     ac8:	00007502 	andeq	r7, r0, r2, lsl #10
     acc:	00820815 	addeq	r0, r2, r5, lsl r8
     ad0:	00080c00 	andeq	r0, r8, r0, lsl #24
     ad4:	00079000 	andeq	r9, r7, r0
     ad8:	50011600 	andpl	r1, r1, r0, lsl #12
     adc:	9b6c0305 	blls	1b016f8 <__bss_end__+0x1af7178>
     ae0:	01160000 	tsteq	r6, r0
     ae4:	60030551 	andvs	r0, r3, r1, asr r5
     ae8:	1600009b 			; <UNDEFINED> instruction: 0x1600009b
     aec:	03055201 	movweq	r5, #20993	; 0x5201
     af0:	00009c68 	andeq	r9, r0, r8, ror #24
     af4:	01530116 	cmpeq	r3, r6, lsl r1
     af8:	7d02163c 	stcvc	6, cr1, [r2, #-240]	; 0xffffff10
     afc:	80030500 	andhi	r0, r3, r0, lsl #10
     b00:	0000009b 	muleq	r0, fp, r0
     b04:	00820c1a 	addeq	r0, r2, sl, lsl ip
     b08:	00082400 	andeq	r2, r8, r0, lsl #8
     b0c:	82241500 	eorhi	r1, r4, #0, 10
     b10:	080c0000 	stmdaeq	ip, {}	; <UNPREDICTABLE>
     b14:	07ce0000 	strbeq	r0, [lr, r0]
     b18:	01160000 	tsteq	r6, r0
     b1c:	84030550 	strhi	r0, [r3], #-1360	; 0xfffffab0
     b20:	1600009b 			; <UNDEFINED> instruction: 0x1600009b
     b24:	03055101 	movweq	r5, #20737	; 0x5101
     b28:	00009b60 	andeq	r9, r0, r0, ror #22
     b2c:	05520116 	ldrbeq	r0, [r2, #-278]	; 0xfffffeea
     b30:	009c6803 	addseq	r6, ip, r3, lsl #16
     b34:	53011600 	movwpl	r1, #5632	; 0x1600
     b38:	02164c01 	andseq	r4, r6, #256	; 0x100
     b3c:	7402007d 	strvc	r0, [r2], #-125	; 0xffffff83
     b40:	281a0000 	ldmdacs	sl, {}	; <UNPREDICTABLE>
     b44:	24000082 	strcs	r0, [r0], #-130	; 0xffffff7e
     b48:	00000008 	andeq	r0, r0, r8
     b4c:	0002f625 	andeq	pc, r2, r5, lsr #12
     b50:	18220200 	stmdane	r2!, {r9}
     b54:	0000002c 	andeq	r0, r0, ip, lsr #32
     b58:	0007f403 	andeq	pc, r7, r3, lsl #8
     b5c:	00682600 	rsbeq	r2, r8, r0, lsl #12
     b60:	be292202 	cdplt	2, 2, cr2, cr9, cr2, {0}
     b64:	00000001 	andeq	r0, r0, r1
     b68:	00030027 	andeq	r0, r3, r7, lsr #32
     b6c:	00030000 	andeq	r0, r3, r0
     b70:	071e0600 	ldreq	r0, [lr, -r0, lsl #12]
     b74:	00006327 	andeq	r6, r0, r7, lsr #6
     b78:	00006300 	andeq	r6, r0, r0, lsl #6
     b7c:	07f70400 	ldrbeq	r0, [r7, r0, lsl #8]!
     b80:	0005ee27 	andeq	lr, r5, r7, lsr #28
     b84:	0005ee00 	andeq	lr, r5, r0, lsl #28
     b88:	06280400 	strteq	r0, [r8], -r0, lsl #8
     b8c:	00023727 	andeq	r3, r2, r7, lsr #14
     b90:	00023700 	andeq	r3, r2, r0, lsl #14
     b94:	061f0600 	ldreq	r0, [pc], -r0, lsl #12
     b98:	00003827 	andeq	r3, r0, r7, lsr #16
     b9c:	00003800 	andeq	r3, r0, r0, lsl #16
     ba0:	066e0400 	strbteq	r0, [lr], -r0, lsl #8
     ba4:	0009b400 	andeq	fp, r9, r0, lsl #8
     ba8:	cb000400 	blgt	1bb0 <__code_start__-0x6450>
     bac:	04000003 	streq	r0, [r0], #-3
     bb0:	00013401 	andeq	r3, r1, r1, lsl #8
     bb4:	03ef0c00 	mvneq	r0, #0, 24
     bb8:	00a70000 	adceq	r0, r7, r0
     bbc:	84980000 	ldrhi	r0, [r8], #0
     bc0:	03600000 	cmneq	r0, #0, 0
     bc4:	04e70000 	strbteq	r0, [r7], #0
     bc8:	04020000 	streq	r0, [r2], #-0
     bcc:	746e6905 	strbtvc	r6, [lr], #-2309	; 0xfffff6fb
     bd0:	07040300 	streq	r0, [r4, -r0, lsl #6]
     bd4:	0000009a 	muleq	r0, sl, r0
     bd8:	00002c04 	andeq	r2, r0, r4, lsl #24
     bdc:	06010300 	streq	r0, [r1], -r0, lsl #6
     be0:	0000002c 	andeq	r0, r0, ip, lsr #32
     be4:	20050203 	andcs	r0, r5, r3, lsl #4
     be8:	03000001 	movweq	r0, #1
     bec:	01040504 	tsteq	r4, r4, lsl #10
     bf0:	08030000 	stmdaeq	r3, {}	; <UNPREDICTABLE>
     bf4:	0000ff05 	andeq	pc, r0, r5, lsl #30
     bf8:	08010300 	stmdaeq	r1, {r8, r9}
     bfc:	0000002a 	andeq	r0, r0, sl, lsr #32
     c00:	00029305 	andeq	r9, r2, r5, lsl #6
     c04:	19310200 	ldmdbne	r1!, {r9}
     c08:	00000067 	andeq	r0, r0, r7, rrx
     c0c:	45070203 	strmi	r0, [r7, #-515]	; 0xfffffdfd
     c10:	05000000 	streq	r0, [r0, #-0]
     c14:	0000028a 	andeq	r0, r0, sl, lsl #5
     c18:	7a193402 	bvc	64dc28 <__bss_end__+0x6436a8>
     c1c:	03000000 	movweq	r0, #0
     c20:	00950704 	addseq	r0, r5, r4, lsl #14
     c24:	08030000 	stmdaeq	r3, {}	; <UNPREDICTABLE>
     c28:	00009007 	andeq	r9, r0, r7
     c2c:	00250600 	eoreq	r0, r5, r0, lsl #12
     c30:	00970000 	addseq	r0, r7, r0
     c34:	25070000 	strcs	r0, [r7, #-0]
     c38:	00000000 	andeq	r0, r0, r0
     c3c:	00010d08 	andeq	r0, r1, r8, lsl #26
     c40:	0e1c0300 	cdpeq	3, 1, cr0, cr12, cr0, {0}
     c44:	000000a3 	andeq	r0, r0, r3, lsr #1
     c48:	00880409 	addeq	r0, r8, r9, lsl #8
     c4c:	25060000 	strcs	r0, [r6, #-0]
     c50:	b8000000 	stmdalt	r0, {}	; <UNPREDICTABLE>
     c54:	07000000 	streq	r0, [r0, -r0]
     c58:	000000b8 	strheq	r0, [r0], -r8
     c5c:	c5040900 	strgt	r0, [r4, #-2304]	; 0xfffff700
     c60:	03000000 	movweq	r0, #0
     c64:	00330801 	eorseq	r0, r3, r1, lsl #16
     c68:	be040000 	cdplt	0, 0, cr0, cr4, cr0, {0}
     c6c:	08000000 	stmdaeq	r0, {}	; <UNPREDICTABLE>
     c70:	0000062c 	andeq	r0, r0, ip, lsr #12
     c74:	d60e2103 	strle	r2, [lr], -r3, lsl #2
     c78:	09000000 	stmdbeq	r0, {}	; <UNPREDICTABLE>
     c7c:	0000a904 	andeq	sl, r0, r4, lsl #18
     c80:	040c0a00 	streq	r0, [ip], #-2560	; 0xfffff600
     c84:	010d0904 	tsteq	sp, r4, lsl #18
     c88:	250b0000 	strcs	r0, [fp, #-0]
     c8c:	04000000 	streq	r0, [r0], #-0
     c90:	00b81106 	adcseq	r1, r8, r6, lsl #2
     c94:	0b000000 	bleq	c9c <__code_start__-0x7364>
     c98:	0000006a 	andeq	r0, r0, sl, rrx
     c9c:	b8110704 	ldmdalt	r1, {r2, r8, r9, sl}
     ca0:	04000000 	streq	r0, [r0], #-0
     ca4:	0000080b 	andeq	r0, r0, fp, lsl #16
     ca8:	0e080400 	cfcpyseq	mvf0, mvf8
     cac:	0000002c 	andeq	r0, r0, ip, lsr #32
     cb0:	2a050008 	bcs	140cd8 <__bss_end__+0x136758>
     cb4:	04000001 	streq	r0, [r0], #-1
     cb8:	00dc0309 	sbcseq	r0, ip, r9, lsl #6
     cbc:	630c0000 	movwvs	r0, #49152	; 0xc000
     cc0:	24000002 	strcs	r0, [r0], #-2
     cc4:	82100d05 	andshi	r0, r0, #320	; 0x140
     cc8:	0b000001 	bleq	cd4 <__code_start__-0x732c>
     ccc:	0000030a 	andeq	r0, r0, sl, lsl #6
     cd0:	82140e05 	andshi	r0, r4, #80	; 0x50
     cd4:	00000001 	andeq	r0, r0, r1
     cd8:	0002cc0b 	andeq	ip, r2, fp, lsl #24
     cdc:	0e0f0500 	cfsh32eq	mvfx0, mvfx15, #0
     ce0:	0000006e 	andeq	r0, r0, lr, rrx
     ce4:	02740b04 	rsbseq	r0, r4, #4, 22	; 0x1000
     ce8:	10050000 	andne	r0, r5, r0
     cec:	00006e0e 	andeq	r6, r0, lr, lsl #28
     cf0:	6a0b0800 	bvs	2c2cf8 <__bss_end__+0x2b8778>
     cf4:	05000002 	streq	r0, [r0, #-2]
     cf8:	010d0f12 	tsteq	sp, r2, lsl pc
     cfc:	0b0c0000 	bleq	300d04 <__bss_end__+0x2f6784>
     d00:	0000027f 	andeq	r0, r0, pc, ror r2
     d04:	6e0e1505 	cfsh32vs	mvfx1, mvfx14, #5
     d08:	18000000 	stmdane	r0, {}	; <UNPREDICTABLE>
     d0c:	00021f0b 	andeq	r1, r2, fp, lsl #30
     d10:	0e160500 	cfmul32eq	mvfx0, mvfx6, mvfx0
     d14:	0000006e 	andeq	r0, r0, lr, rrx
     d18:	027a0b1c 	rsbseq	r0, sl, #28, 22	; 0x7000
     d1c:	18050000 	stmdane	r5, {}	; <UNPREDICTABLE>
     d20:	00005b0e 	andeq	r5, r0, lr, lsl #22
     d24:	09002000 	stmdbeq	r0, {sp}
     d28:	00011904 	andeq	r1, r1, r4, lsl #18
     d2c:	02130500 	andseq	r0, r3, #0, 10
     d30:	19050000 	stmdbne	r5, {}	; <UNPREDICTABLE>
     d34:	00011903 	andeq	r1, r1, r3, lsl #18
     d38:	0e040d00 	cdpeq	13, 0, cr0, cr4, cr0, {0}
     d3c:	00000a94 	muleq	r0, r4, sl
     d40:	940f1001 	strls	r1, [pc], #-1	; d48 <__code_start__-0x72b8>
     d44:	05000001 	streq	r0, [r0, #-1]
     d48:	00a15803 	adceq	r5, r1, r3, lsl #16
     d4c:	0af50e00 	beq	ffd44554 <__bss_end__+0xffd39fd4>
     d50:	11010000 	mrsne	r0, (UNDEF: 1)
     d54:	0001940f 	andeq	r9, r1, pc, lsl #8
     d58:	5c030500 	cfstr32pl	mvfx0, [r3], {-0}
     d5c:	0f0000a1 	svceq	0x000000a1
     d60:	0000032e 	andeq	r0, r0, lr, lsr #6
     d64:	d006dc01 	andle	sp, r6, r1, lsl #24
     d68:	28000087 	stmdacs	r0, {r0, r1, r2, r7}
     d6c:	01000000 	mrseq	r0, (UNDEF: 0)
     d70:	0002189c 	muleq	r2, ip, r8
     d74:	006f1000 	rsbeq	r1, pc, r0
     d78:	02280000 	eoreq	r0, r8, #0, 0
     d7c:	03050000 	movweq	r0, #20480	; 0x5000
     d80:	00009dc0 	andeq	r9, r0, r0, asr #27
     d84:	0087e811 	addeq	lr, r7, r1, lsl r8
     d88:	00095700 	andeq	r5, r9, r0, lsl #14
     d8c:	00020e00 	andeq	r0, r2, r0, lsl #28
     d90:	50011200 	andpl	r1, r1, r0, lsl #4
     d94:	9d680305 	stclls	3, cr0, [r8, #-20]!	; 0xffffffec
     d98:	01120000 	tsteq	r2, r0
     d9c:	d0030551 	andle	r0, r3, r1, asr r5
     da0:	1200009c 	andne	r0, r0, #156, 0	; 0x9c
     da4:	03055201 	movweq	r5, #20993	; 0x5201
     da8:	00009dc0 	andeq	r9, r0, r0, asr #27
     dac:	02530112 	subseq	r0, r3, #-2147483644	; 0x80000004
     db0:	1300dd08 	movwne	sp, #3336	; 0xd08
     db4:	000087ec 	andeq	r8, r0, ip, ror #15
     db8:	00000963 	andeq	r0, r0, r3, ror #18
     dbc:	00c51400 	sbceq	r1, r5, r0, lsl #8
     dc0:	02280000 	eoreq	r0, r8, #0, 0
     dc4:	2c150000 	ldccs	0, cr0, [r5], {-0}
     dc8:	0e000000 	cdpeq	0, 0, cr0, cr0, cr0, {0}
     dcc:	02180400 	andseq	r0, r8, #0, 8
     dd0:	7e160000 	cdpvc	0, 1, cr0, cr6, cr0, {0}
     dd4:	01000003 	tsteq	r0, r3
     dd8:	002c0ad3 	ldrdeq	r0, [ip], -r3	; <UNPREDICTABLE>
     ddc:	87c40000 	strbhi	r0, [r4, r0]
     de0:	000c0000 	andeq	r0, ip, r0
     de4:	9c010000 	stcls	0, cr0, [r1], {-0}
     de8:	00000266 	andeq	r0, r0, r6, ror #4
     dec:	0002f917 	andeq	pc, r2, r7, lsl r9	; <UNPREDICTABLE>
     df0:	0ed50100 	cdpeq	1, 13, cr0, cr5, cr0, {0}
     df4:	0000002c 	andeq	r0, r0, ip, lsr #32
     df8:	0087cc13 	addeq	ip, r7, r3, lsl ip
     dfc:	00041a00 	andeq	r1, r4, r0, lsl #20
     e00:	87d01300 	ldrbhi	r1, [r0, r0, lsl #6]
     e04:	02660000 	rsbeq	r0, r6, #0, 0
     e08:	18000000 	stmdane	r0, {}	; <UNPREDICTABLE>
     e0c:	0000044e 	andeq	r0, r0, lr, asr #8
     e10:	2c11c701 	ldccs	7, cr12, [r1], {1}
     e14:	14000000 	strne	r0, [r0], #-0
     e18:	40000085 	andmi	r0, r0, r5, lsl #1
     e1c:	01000000 	mrseq	r0, (UNDEF: 0)
     e20:	00031d9c 	muleq	r3, ip, sp
     e24:	03551900 	cmpeq	r5, #0, 18
     e28:	c8010000 	stmdagt	r1, {}	; <UNPREDICTABLE>
     e2c:	00002c0b 	andeq	r2, r0, fp, lsl #24
     e30:	d0190000 	andsle	r0, r9, r0
     e34:	01000003 	tsteq	r0, r3
     e38:	002c18c8 	eoreq	r1, ip, r8, asr #17
     e3c:	19000000 	stmdbne	r0, {}	; <UNPREDICTABLE>
     e40:	00000364 	andeq	r0, r0, r4, ror #6
     e44:	2c22c801 	stccs	8, cr12, [r2], #-4
     e48:	00000000 	andeq	r0, r0, r0
     e4c:	00006f10 	andeq	r6, r0, r0, lsl pc
     e50:	00032d00 	andeq	r2, r3, r0, lsl #26
     e54:	a4030500 	strge	r0, [r3], #-1280	; 0xfffffb00
     e58:	1100009d 	swpne	r0, sp, [r0]	; <UNPREDICTABLE>
     e5c:	00008520 	andeq	r8, r0, r0, lsr #10
     e60:	00000957 	andeq	r0, r0, r7, asr r9
     e64:	000002cd 	andeq	r0, r0, sp, asr #5
     e68:	05500112 	ldrbeq	r0, [r0, #-274]	; 0xfffffeee
     e6c:	009c7c03 	addseq	r7, ip, r3, lsl #24
     e70:	28110000 	ldmdacs	r1, {}	; <UNPREDICTABLE>
     e74:	57000085 	strpl	r0, [r0, -r5, lsl #1]
     e78:	e4000009 	str	r0, [r0], #-9
     e7c:	12000002 	andne	r0, r0, #2, 0
     e80:	03055001 	movweq	r5, #20481	; 0x5001
     e84:	00009d04 	andeq	r9, r0, r4, lsl #26
     e88:	853c1100 	ldrhi	r1, [ip, #-256]!	; 0xffffff00
     e8c:	09570000 	ldmdbeq	r7, {}^	; <UNPREDICTABLE>
     e90:	03130000 	tsteq	r3, #0, 0
     e94:	01120000 	tsteq	r2, r0
     e98:	d8030550 	stmdale	r3, {r4, r6, r8, sl}
     e9c:	1200009c 	andne	r0, r0, #156, 0	; 0x9c
     ea0:	03055101 	movweq	r5, #20737	; 0x5101
     ea4:	00009cd0 	ldrdeq	r9, [r0], -r0
     ea8:	05520112 	ldrbeq	r0, [r2, #-274]	; 0xfffffeee
     eac:	009da403 	addseq	sl, sp, r3, lsl #8
     eb0:	53011200 	movwpl	r1, #4608	; 0x1200
     eb4:	00cc0802 	sbceq	r0, ip, r2, lsl #16
     eb8:	00854013 	addeq	r4, r5, r3, lsl r0
     ebc:	00096300 	andeq	r6, r9, r0, lsl #6
     ec0:	c5140000 	ldrgt	r0, [r4, #-0]
     ec4:	2d000000 	stccs	0, cr0, [r0, #-0]
     ec8:	15000003 	strne	r0, [r0, #-3]
     ecc:	0000002c 	andeq	r0, r0, ip, lsr #32
     ed0:	1d04000a 	stcne	0, cr0, [r4, #-40]	; 0xffffffd8
     ed4:	16000003 	strne	r0, [r0], -r3
     ed8:	000003f7 	strdeq	r0, [r0], -r7
     edc:	2c0ab801 	stccs	8, cr11, [sl], {1}
     ee0:	b8000000 	stmdalt	r0, {}	; <UNPREDICTABLE>
     ee4:	0c000087 	stceq	0, cr0, [r0], {135}	; 0x87
     ee8:	01000000 	mrseq	r0, (UNDEF: 0)
     eec:	0003759c 	muleq	r3, ip, r5
     ef0:	038e1700 	orreq	r1, lr, #0, 14
     ef4:	bd010000 	stclt	0, cr0, [r1, #-0]
     ef8:	00002c0e 	andeq	r2, r0, lr, lsl #24
     efc:	006f1a00 	rsbeq	r1, pc, r0, lsl #20
     f00:	03850000 	orreq	r0, r5, #0, 0
     f04:	03f70000 	mvnseq	r0, #0, 0
     f08:	c41b0000 	ldrgt	r0, [fp], #-0
     f0c:	d2000087 	andle	r0, r0, #135, 0	; 0x87
     f10:	12000003 	andne	r0, r0, #3, 0
     f14:	31015001 	tstcc	r1, r1
     f18:	c5140000 	ldrgt	r0, [r4, #-0]
     f1c:	85000000 	strhi	r0, [r0, #-0]
     f20:	15000003 	strne	r0, [r0, #-3]
     f24:	0000002c 	andeq	r0, r0, ip, lsr #32
     f28:	75040011 	strvc	r0, [r4, #-17]	; 0xffffffef
     f2c:	0f000003 	svceq	0x00000003
     f30:	000003ac 	andeq	r0, r0, ip, lsr #7
     f34:	ac06ab01 			; <UNDEFINED> instruction: 0xac06ab01
     f38:	0c000087 	stceq	0, cr0, [r0], {135}	; 0x87
     f3c:	01000000 	mrseq	r0, (UNDEF: 0)
     f40:	0003bd9c 	muleq	r3, ip, sp
     f44:	006f1a00 	rsbeq	r1, pc, r0, lsl #20
     f48:	03cd0000 	biceq	r0, sp, #0, 0
     f4c:	03ac0000 			; <UNDEFINED> instruction: 0x03ac0000
     f50:	b81b0000 	ldmdalt	fp, {}	; <UNPREDICTABLE>
     f54:	d2000087 	andle	r0, r0, #135, 0	; 0x87
     f58:	12000003 	andne	r0, r0, #3, 0
     f5c:	31015001 	tstcc	r1, r1
     f60:	c5140000 	ldrgt	r0, [r4, #-0]
     f64:	cd000000 	stcgt	0, cr0, [r0, #-0]
     f68:	15000003 	strne	r0, [r0, #-3]
     f6c:	0000002c 	andeq	r0, r0, ip, lsr #32
     f70:	bd04000d 	stclt	0, cr0, [r4, #-52]	; 0xffffffcc
     f74:	16000003 	strne	r0, [r0], -r3
     f78:	0000000f 	andeq	r0, r0, pc
     f7c:	2c0aa501 	cfstr32cs	mvfx10, [sl], {1}
     f80:	98000000 	stmdals	r0, {}	; <UNPREDICTABLE>
     f84:	14000087 	strne	r0, [r0], #-135	; 0xffffff79
     f88:	01000000 	mrseq	r0, (UNDEF: 0)
     f8c:	00041a9c 	muleq	r4, ip, sl
     f90:	04591c00 	ldrbeq	r1, [r9], #-3072	; 0xfffff400
     f94:	a5010000 	strge	r0, [r1, #-0]
     f98:	0000251c 	andeq	r2, r0, ip, lsl r5
     f9c:	0003f900 	andeq	pc, r3, r0, lsl #18
     fa0:	0003f500 	andeq	pc, r3, r0, lsl #10
     fa4:	87a41300 	strhi	r1, [r4, r0, lsl #6]!
     fa8:	041a0000 	ldreq	r0, [sl], #-0
     fac:	ac1b0000 	ldcge	0, cr0, [fp], {-0}
     fb0:	2d000087 	stccs	0, cr0, [r0, #-540]	; 0xfffffde4
     fb4:	12000005 	andne	r0, r0, #5, 0
     fb8:	74025001 	strvc	r5, [r2], #-1
     fbc:	1d000000 	stcne	0, cr0, [r0, #-0]
     fc0:	00000325 	andeq	r0, r0, r5, lsr #6
     fc4:	700d7c01 	andvc	r7, sp, r1, lsl #24
     fc8:	84000086 	strhi	r0, [r0], #-134	; 0xffffff7a
     fcc:	01000000 	mrseq	r0, (UNDEF: 0)
     fd0:	0004fc9c 	muleq	r4, ip, ip
     fd4:	03890e00 	orreq	r0, r9, #0, 28
     fd8:	86010000 	strhi	r0, [r1], -r0
     fdc:	0004fc0e 	andeq	pc, r4, lr, lsl #24
     fe0:	b8910300 	ldmlt	r1, {r8, r9}
     fe4:	006f1e7f 	rsbeq	r1, pc, pc, ror lr	; <UNPREDICTABLE>
     fe8:	051c0000 	ldreq	r0, [ip, #-0]
     fec:	0f1f0000 	svceq	0x001f0000
     ff0:	01000003 	tsteq	r0, r3
     ff4:	05210f98 	streq	r0, [r1, #-3992]!	; 0xfffff068
     ff8:	00000000 	andeq	r0, r0, r0
     ffc:	3d080800 	stccc	8, cr0, [r8, #-0]
    1000:	01000003 	tsteq	r0, r3
    1004:	006e159c 	mlseq	lr, ip, r5, r1
    1008:	09080000 	stmdbeq	r8, {}	; <UNPREDICTABLE>
    100c:	01000004 	tsteq	r0, r4
    1010:	006e249c 	mlseq	lr, ip, r4, r2
    1014:	3f080000 	svccc	0x00080000
    1018:	01000004 	tsteq	r0, r4
    101c:	006e159f 	mlseq	lr, pc, r5, r1	; <UNPREDICTABLE>
    1020:	9f080000 	svcls	0x00080000
    1024:	01000003 	tsteq	r0, r3
    1028:	006e259f 	mlseq	lr, pc, r5, r2	; <UNPREDICTABLE>
    102c:	78200000 	stmdavc	r0!, {}	; <UNPREDICTABLE>
    1030:	24000086 	strcs	r0, [r0], #-134	; 0xffffff7a
    1034:	bb000000 	bllt	103c <__code_start__-0x6fc4>
    1038:	21000004 	tstcs	r0, r4
    103c:	80010068 	andhi	r0, r1, r8, rrx
    1040:	00052710 	andeq	r2, r5, r0, lsl r7
    1044:	00041b00 	andeq	r1, r4, r0, lsl #22
    1048:	00041700 	andeq	r1, r4, r0, lsl #14
    104c:	867c1300 	ldrbthi	r1, [ip], -r0, lsl #6
    1050:	096f0000 	stmdbeq	pc!, {}^	; <UNPREDICTABLE>
    1054:	98130000 	ldmdals	r3, {}	; <UNPREDICTABLE>
    1058:	7b000086 	blvc	1278 <__code_start__-0x6d88>
    105c:	00000009 	andeq	r0, r0, r9
    1060:	0086a411 	addeq	sl, r6, r1, lsl r4
    1064:	00098700 	andeq	r8, r9, r0, lsl #14
    1068:	0004cf00 	andeq	ip, r4, r0, lsl #30
    106c:	50011200 	andpl	r1, r1, r0, lsl #4
    1070:	00007d02 	andeq	r7, r0, r2, lsl #26
    1074:	0086c411 	addeq	ip, r6, r1, lsl r4
    1078:	0005f800 	andeq	pc, r5, r0, lsl #16
    107c:	0004e900 	andeq	lr, r4, r0, lsl #18
    1080:	50011200 	andpl	r1, r1, r0, lsl #4
    1084:	12007d02 	andne	r7, r0, #128	; 0x80
    1088:	91025101 	tstls	r2, r1, lsl #2
    108c:	d0130068 	andsle	r0, r3, r8, rrx
    1090:	f8000086 			; <UNDEFINED> instruction: 0xf8000086
    1094:	13000005 	movwne	r0, #5
    1098:	000086dc 	ldrdeq	r8, [r0], -ip
    109c:	000005f8 	strdeq	r0, [r0], -r8
    10a0:	006e1400 	rsbeq	r1, lr, r0, lsl #8
    10a4:	050c0000 	streq	r0, [ip, #-0]
    10a8:	2c150000 	ldccs	0, cr0, [r5], {-0}
    10ac:	0f000000 	svceq	0x00000000
    10b0:	00c51400 	sbceq	r1, r5, r0, lsl #8
    10b4:	051c0000 	ldreq	r0, [ip, #-0]
    10b8:	2c150000 	ldccs	0, cr0, [r5], {-0}
    10bc:	08000000 	stmdaeq	r0, {}	; <UNPREDICTABLE>
    10c0:	050c0400 	streq	r0, [ip, #-1024]	; 0xfffffc00
    10c4:	04090000 	streq	r0, [r9], #-0
    10c8:	0000006e 	andeq	r0, r0, lr, rrx
    10cc:	01880409 	orreq	r0, r8, r9, lsl #8
    10d0:	34180000 	ldrcc	r0, [r8], #-0
    10d4:	01000004 	tsteq	r0, r4
    10d8:	002c1164 	eoreq	r1, ip, r4, ror #2
    10dc:	84d40000 	ldrbhi	r0, [r4], #0
    10e0:	00400000 	subeq	r0, r0, r0
    10e4:	9c010000 	stcls	0, cr0, [r1], {-0}
    10e8:	000005f8 	strdeq	r0, [r0], -r8
    10ec:	0004591c 	andeq	r5, r4, ip, lsl r9
    10f0:	20640100 	rsbcs	r0, r4, r0, lsl #2
    10f4:	00000025 	andeq	r0, r0, r5, lsr #32
    10f8:	0000043d 	andeq	r0, r0, sp, lsr r4
    10fc:	00000439 	andeq	r0, r0, r9, lsr r4
    1100:	00035519 	andeq	r5, r3, r9, lsl r5
    1104:	0b650100 	bleq	194150c <__bss_end__+0x1936f8c>
    1108:	0000002c 	andeq	r0, r0, ip, lsr #32
    110c:	03771900 	cmneq	r7, #0, 18
    1110:	65010000 	strvs	r0, [r1, #-0]
    1114:	00002c18 	andeq	r2, r0, r8, lsl ip
    1118:	71190000 	tstvc	r9, r0
    111c:	01000003 	tsteq	r0, r3
    1120:	002c2465 	eoreq	r2, ip, r5, ror #8
    1124:	10000000 	andne	r0, r0, r0
    1128:	0000006f 	andeq	r0, r0, pc, rrx
    112c:	0000032d 	andeq	r0, r0, sp, lsr #6
    1130:	9d980305 	ldcls	3, cr0, [r8, #20]
    1134:	e0110000 	ands	r0, r1, r0
    1138:	57000084 	strpl	r0, [r0, -r4, lsl #1]
    113c:	a8000009 	stmdage	r0, {r0, r3}
    1140:	12000005 	andne	r0, r0, #5, 0
    1144:	03055001 	movweq	r5, #20481	; 0x5001
    1148:	00009c7c 	andeq	r9, r0, ip, ror ip
    114c:	84e81100 	strbthi	r1, [r8], #256	; 0x100
    1150:	09570000 	ldmdbeq	r7, {}^	; <UNPREDICTABLE>
    1154:	05bf0000 	ldreq	r0, [pc, #0]!	; 115c <__code_start__-0x6ea4>
    1158:	01120000 	tsteq	r2, r0
    115c:	b8030550 	stmdalt	r3, {r4, r6, r8, sl}
    1160:	0000009c 	muleq	r0, ip, r0
    1164:	0084fc11 	addeq	pc, r4, r1, lsl ip	; <UNPREDICTABLE>
    1168:	00095700 	andeq	r5, r9, r0, lsl #14
    116c:	0005ee00 	andeq	lr, r5, r0, lsl #28
    1170:	50011200 	andpl	r1, r1, r0, lsl #4
    1174:	9cd80305 	ldclls	3, cr0, [r8], {5}
    1178:	01120000 	tsteq	r2, r0
    117c:	d0030551 	andle	r0, r3, r1, asr r5
    1180:	1200009c 	andne	r0, r0, #156, 0	; 0x9c
    1184:	03055201 	movweq	r5, #20993	; 0x5201
    1188:	00009d98 	muleq	r0, r8, sp
    118c:	02530112 	subseq	r0, r3, #-2147483644	; 0x80000004
    1190:	13006908 	movwne	r6, #2312	; 0x908
    1194:	00008500 	andeq	r8, r0, r0, lsl #10
    1198:	00000963 	andeq	r0, r0, r3, ror #18
    119c:	027a1d00 	rsbseq	r1, sl, #0, 26
    11a0:	4c010000 	stcmi	0, cr0, [r1], {-0}
    11a4:	00857c0d 	addeq	r7, r5, sp, lsl #24
    11a8:	0000f400 	andeq	pc, r0, r0, lsl #8
    11ac:	9a9c0100 	bls	fe7015b4 <__bss_end__+0xfe6f7034>
    11b0:	22000007 	andcs	r0, r0, #7, 0
    11b4:	4c010070 	stcmi	0, cr0, [r1], {112}	; 0x70
    11b8:	0005211c 	andeq	r2, r5, ip, lsl r1
    11bc:	00046c00 	andeq	r6, r4, r0, lsl #24
    11c0:	00045e00 	andeq	r5, r4, r0, lsl #28
    11c4:	00652200 	rsbeq	r2, r5, r0, lsl #4
    11c8:	21294c01 			; <UNDEFINED> instruction: 0x21294c01
    11cc:	d7000005 	strle	r0, [r0, -r5]
    11d0:	c7000004 	strgt	r0, [r0, -r4]
    11d4:	10000004 	andne	r0, r0, r4
    11d8:	0000006f 	andeq	r0, r0, pc, rrx
    11dc:	000007aa 	andeq	r0, r0, sl, lsr #15
    11e0:	9db00305 	ldcls	3, cr0, [r0, #20]!
    11e4:	4b230000 	blmi	8c11ec <__bss_end__+0x8b6c6c>
    11e8:	01000003 	tsteq	r0, r3
    11ec:	00331152 	eorseq	r1, r3, r2, asr r1
    11f0:	05490000 	strbeq	r0, [r9, #-0]
    11f4:	05430000 	strbeq	r0, [r3, #-0]
    11f8:	18240000 	stmdane	r4!, {}	; <UNPREDICTABLE>
    11fc:	d3000000 	movwle	r0, #0
    1200:	21000006 	tstcs	r0, r6
    1204:	53010069 	movwpl	r0, #4201	; 0x1069
    1208:	00002c10 	andeq	r2, r0, r0, lsl ip
    120c:	00057f00 	andeq	r7, r5, r0, lsl #30
    1210:	00057b00 	andeq	r7, r5, r0, lsl #22
    1214:	00302500 	eorseq	r2, r0, r0, lsl #10
    1218:	d7230000 	strle	r0, [r3, -r0]!
    121c:	01000003 	tsteq	r0, r3
    1220:	05270a54 	streq	r0, [r7, #-2644]!	; 0xfffff5ac
    1224:	05a40000 	streq	r0, [r4, #0]!
    1228:	059e0000 	ldreq	r0, [lr]
    122c:	0c200000 	stceq	0, cr0, [r0], #-0
    1230:	18000086 	stmdane	r0, {r1, r2, r7}
    1234:	c8000000 	stmdagt	r0, {}	; <UNPREDICTABLE>
    1238:	23000006 	movwcs	r0, #6
    123c:	00000319 	andeq	r0, r0, r9, lsl r3
    1240:	210e5901 	tstcs	lr, r1, lsl #18
    1244:	cf000005 	svcgt	0x00000005
    1248:	cd000005 	stcgt	0, cr0, [r0, #-20]	; 0xffffffec
    124c:	23000005 	movwcs	r0, #5
    1250:	000003c6 	andeq	r0, r0, r6, asr #7
    1254:	210e5a01 	tstcs	lr, r1, lsl #20
    1258:	e6000005 	str	r0, [r0], -r5
    125c:	e2000005 	and	r0, r0, #5, 0
    1260:	13000005 	movwne	r0, #5
    1264:	00008624 	andeq	r8, r0, r4, lsr #12
    1268:	000005f8 	strdeq	r0, [r0], -r8
    126c:	86381300 	ldrthi	r1, [r8], -r0, lsl #6
    1270:	07af0000 	streq	r0, [pc, r0]!
    1274:	00000000 	andeq	r0, r0, r0
    1278:	0085c811 	addeq	ip, r5, r1, lsl r8
    127c:	00095700 	andeq	r5, r9, r0, lsl #14
    1280:	00070c00 	andeq	r0, r7, r0, lsl #24
    1284:	50011200 	andpl	r1, r1, r0, lsl #4
    1288:	9b6c0305 	blls	1b01ea4 <__bss_end__+0x1af7924>
    128c:	01120000 	tsteq	r2, r0
    1290:	d0030551 	andle	r0, r3, r1, asr r5
    1294:	1200009c 	andne	r0, r0, #156, 0	; 0x9c
    1298:	03055201 	movweq	r5, #20993	; 0x5201
    129c:	00009db0 			; <UNDEFINED> instruction: 0x00009db0
    12a0:	02530112 	subseq	r0, r3, #-2147483644	; 0x80000004
    12a4:	02124d08 	andseq	r4, r2, #8, 26	; 0x200
    12a8:	0305007d 	movweq	r0, #20605	; 0x507d
    12ac:	00009d14 	andeq	r9, r0, r4, lsl sp
    12b0:	85cc1300 	strbhi	r1, [ip, #768]	; 0x300
    12b4:	09630000 	stmdbeq	r3!, {}^	; <UNPREDICTABLE>
    12b8:	e8110000 	ldmda	r1, {}	; <UNPREDICTABLE>
    12bc:	57000085 	strpl	r0, [r0, -r5, lsl #1]
    12c0:	4e000009 	cdpmi	0, 0, cr0, cr0, cr9, {0}
    12c4:	12000007 	andne	r0, r0, #7, 0
    12c8:	03055001 	movweq	r5, #20481	; 0x5001
    12cc:	00009b6c 	andeq	r9, r0, ip, ror #22
    12d0:	05510112 	ldrbeq	r0, [r1, #-274]	; 0xfffffeee
    12d4:	009cd003 	addseq	sp, ip, r3
    12d8:	52011200 	andpl	r1, r1, #0, 4
    12dc:	9db00305 	ldcls	3, cr0, [r0, #20]!
    12e0:	01120000 	tsteq	r2, r0
    12e4:	4f080253 	svcmi	0x00080253
    12e8:	007d0212 	rsbseq	r0, sp, r2, lsl r2
    12ec:	9d180305 	ldcls	3, cr0, [r8, #-20]	; 0xffffffec
    12f0:	13000000 	movwne	r0, #0
    12f4:	000085ec 	andeq	r8, r0, ip, ror #11
    12f8:	00000963 	andeq	r0, r0, r3, ror #18
    12fc:	00860811 	addeq	r0, r6, r1, lsl r8
    1300:	00095700 	andeq	r5, r9, r0, lsl #14
    1304:	00079000 	andeq	r9, r7, r0
    1308:	50011200 	andpl	r1, r1, r0, lsl #4
    130c:	9b6c0305 	blls	1b01f28 <__bss_end__+0x1af79a8>
    1310:	01120000 	tsteq	r2, r0
    1314:	d0030551 	andle	r0, r3, r1, asr r5
    1318:	1200009c 	andne	r0, r0, #156, 0	; 0x9c
    131c:	03055201 	movweq	r5, #20993	; 0x5201
    1320:	00009db0 			; <UNDEFINED> instruction: 0x00009db0
    1324:	02530112 	subseq	r0, r3, #-2147483644	; 0x80000004
    1328:	02125008 	andseq	r5, r2, #8, 0
    132c:	0305007d 	movweq	r0, #20605	; 0x507d
    1330:	00009d28 	andeq	r9, r0, r8, lsr #26
    1334:	860c1300 	strhi	r1, [ip], -r0, lsl #6
    1338:	09630000 	stmdbeq	r3!, {}^	; <UNPREDICTABLE>
    133c:	14000000 	strne	r0, [r0], #-0
    1340:	000000c5 	andeq	r0, r0, r5, asr #1
    1344:	000007aa 	andeq	r0, r0, sl, lsr #15
    1348:	00002c15 	andeq	r2, r0, r5, lsl ip
    134c:	04000400 	streq	r0, [r0], #-1024	; 0xfffffc00
    1350:	0000079a 	muleq	r0, sl, r7
    1354:	0003bf18 	andeq	fp, r3, r8, lsl pc
    1358:	0f390100 	svceq	0x00390100
    135c:	00000527 	andeq	r0, r0, r7, lsr #10
    1360:	00008554 	andeq	r8, r0, r4, asr r5
    1364:	00000028 	andeq	r0, r0, r8, lsr #32
    1368:	08149c01 	ldmdaeq	r4, {r0, sl, fp, ip, pc}
    136c:	ab1c0000 	blge	701374 <__bss_end__+0x6f6df4>
    1370:	0100000a 	tsteq	r0, sl
    1374:	006e1f39 	rsbeq	r1, lr, r9, lsr pc
    1378:	060d0000 	streq	r0, [sp], -r0
    137c:	06090000 	streq	r0, [r9], -r0
    1380:	70210000 	eorvc	r0, r1, r0
    1384:	0b3a0100 	bleq	e8178c <__bss_end__+0xe7720c>
    1388:	00000194 	muleq	r0, r4, r1
    138c:	0000062f 	andeq	r0, r0, pc, lsr #12
    1390:	0000062b 	andeq	r0, r0, fp, lsr #12
    1394:	00856011 	addeq	r6, r5, r1, lsl r0
    1398:	00081400 	andeq	r1, r8, r0, lsl #8
    139c:	00080300 	andeq	r0, r8, r0, lsl #6
    13a0:	50011200 	andpl	r1, r1, r0, lsl #4
    13a4:	00007402 	andeq	r7, r0, r2, lsl #8
    13a8:	0085701b 	addeq	r7, r5, fp, lsl r0
    13ac:	00099300 	andeq	r9, r9, r0, lsl #6
    13b0:	50011200 	andpl	r1, r1, r0, lsl #4
    13b4:	00007402 	andeq	r7, r0, r2, lsl #8
    13b8:	03e11800 	mvneq	r1, #0, 16
    13bc:	29010000 	stmdbcs	r1, {}	; <UNPREDICTABLE>
    13c0:	0000250c 	andeq	r2, r0, ip, lsl #10
    13c4:	00849800 	addeq	r9, r4, r0, lsl #16
    13c8:	00003c00 	andeq	r3, r0, r0, lsl #24
    13cc:	419c0100 	orrsmi	r0, ip, r0, lsl #2
    13d0:	22000008 	andcs	r0, r0, #8, 0
    13d4:	29010070 	stmdbcs	r1, {r4, r5, r6}
    13d8:	0001941a 	andeq	r9, r1, sl, lsl r4
    13dc:	00065900 	andeq	r5, r6, r0, lsl #18
    13e0:	00064d00 	andeq	r4, r6, r0, lsl #26
    13e4:	ba160000 	blt	5813ec <__bss_end__+0x576e6c>
    13e8:	01000003 	tsteq	r0, r3
    13ec:	01940713 	orrseq	r0, r4, r3, lsl r7
    13f0:	86f40000 	ldrbthi	r0, [r4], r0
    13f4:	00a40000 	adceq	r0, r4, r0
    13f8:	9c010000 	stcls	0, cr0, [r1], {-0}
    13fc:	00000957 	andeq	r0, r0, r7, asr r9
    1400:	0003951c 	andeq	r9, r3, ip, lsl r5
    1404:	11130100 	tstne	r3, r0, lsl #2
    1408:	00000046 	andeq	r0, r0, r6, asr #32
    140c:	000006b8 			; <UNDEFINED> instruction: 0x000006b8
    1410:	000006ac 	andeq	r0, r0, ip, lsr #13
    1414:	00035d0e 	andeq	r5, r3, lr, lsl #26
    1418:	10140100 	andsne	r0, r4, r0, lsl #2
    141c:	00000025 	andeq	r0, r0, r5, lsr #32
    1420:	a1600305 	cmnge	r0, r5, lsl #6
    1424:	6f100000 	svcvs	0x00100000
    1428:	aa000000 	bge	1430 <__code_start__-0x6bd0>
    142c:	05000007 	streq	r0, [r0, #-7]
    1430:	009db803 	addseq	fp, sp, r3, lsl #16
    1434:	87142000 	ldrhi	r2, [r4, -r0]
    1438:	00240000 	eoreq	r0, r4, r0
    143c:	08ca0000 	stmiaeq	sl, {}^	; <UNPREDICTABLE>
    1440:	e9230000 	stmdb	r3!, {}	; <UNPREDICTABLE>
    1444:	01000003 	tsteq	r0, r3
    1448:	002c121a 	eoreq	r1, ip, sl, lsl r2
    144c:	07040000 	streq	r0, [r4, -r0]
    1450:	07020000 	streq	r0, [r2, -r0]
    1454:	301b0000 	andscc	r0, fp, r0
    1458:	9f000087 	svcls	0x00000087
    145c:	12000009 	andne	r0, r0, #9, 0
    1460:	40035001 	andmi	r5, r3, r1
    1464:	01122440 	tsteq	r2, r0, asr #8
    1468:	40400351 	submi	r0, r0, r1, asr r3
    146c:	11000024 	tstne	r0, r4, lsr #32
    1470:	00008740 	andeq	r8, r0, r0, asr #14
    1474:	000009ab 	andeq	r0, r0, fp, lsr #19
    1478:	000008de 	ldrdeq	r0, [r0], -lr
    147c:	02500112 	subseq	r0, r0, #-2147483644	; 0x80000004
    1480:	11000074 	tstne	r0, r4, ror r0
    1484:	00008764 	andeq	r8, r0, r4, ror #14
    1488:	00000957 	andeq	r0, r0, r7, asr r9
    148c:	00000916 	andeq	r0, r0, r6, lsl r9
    1490:	05500112 	ldrbeq	r0, [r0, #-274]	; 0xfffffeee
    1494:	009b6c03 	addseq	r6, fp, r3, lsl #24
    1498:	51011200 	mrspl	r1, R9_usr
    149c:	9cd00305 	ldclls	3, cr0, [r0], {5}
    14a0:	01120000 	tsteq	r2, r0
    14a4:	b8030552 	stmdalt	r3, {r1, r4, r6, r8, sl}
    14a8:	1200009d 	andne	r0, r0, #157, 0	; 0x9d
    14ac:	46015301 	strmi	r5, [r1], -r1, lsl #6
    14b0:	007d0212 	rsbseq	r0, sp, r2, lsl r2
    14b4:	9d380305 	ldcls	3, cr0, [r8, #-20]!	; 0xffffffec
    14b8:	13000000 	movwne	r0, #0
    14bc:	00008768 	andeq	r8, r0, r8, ror #14
    14c0:	00000963 	andeq	r0, r0, r3, ror #18
    14c4:	00877c11 	addeq	r7, r7, r1, lsl ip
    14c8:	00095700 	andeq	r5, r9, r0, lsl #14
    14cc:	00094d00 	andeq	r4, r9, r0, lsl #26
    14d0:	50011200 	andpl	r1, r1, r0, lsl #4
    14d4:	9d480305 	stclls	3, cr0, [r8, #-20]	; 0xffffffec
    14d8:	01120000 	tsteq	r2, r0
    14dc:	d0030551 	andle	r0, r3, r1, asr r5
    14e0:	1200009c 	andne	r0, r0, #156, 0	; 0x9c
    14e4:	03055201 	movweq	r5, #20993	; 0x5201
    14e8:	00009db8 			; <UNDEFINED> instruction: 0x00009db8
    14ec:	01530112 	cmpeq	r3, r2, lsl r1
    14f0:	80130048 	andshi	r0, r3, r8, asr #32
    14f4:	63000087 	movwvs	r0, #135	; 0x87
    14f8:	00000009 	andeq	r0, r0, r9
    14fc:	0005ee26 	andeq	lr, r5, r6, lsr #28
    1500:	0005ee00 	andeq	lr, r5, r0, lsl #28
    1504:	06280300 	strteq	r0, [r8], -r0, lsl #6
    1508:	00003826 	andeq	r3, r0, r6, lsr #16
    150c:	00003800 	andeq	r3, r0, r0, lsl #16
    1510:	066e0300 	strbteq	r0, [lr], -r0, lsl #6
    1514:	00023f26 	andeq	r3, r2, r6, lsr #30
    1518:	00023f00 	andeq	r3, r2, r0, lsl #30
    151c:	081c0500 	ldmdaeq	ip, {r8, sl}
    1520:	0002ae26 	andeq	sl, r2, r6, lsr #28
    1524:	0002ae00 	andeq	sl, r2, r0, lsl #28
    1528:	081f0500 	ldmdaeq	pc, {r8, sl}	; <UNPREDICTABLE>
    152c:	00038426 	andeq	r8, r3, r6, lsr #8
    1530:	00038400 	andeq	r8, r3, r0, lsl #8
    1534:	06790100 	ldrbteq	r0, [r9], -r0, lsl #2
    1538:	00029c26 	andeq	r9, r2, r6, lsr #24
    153c:	00029c00 	andeq	r9, r2, r0, lsl #24
    1540:	082f0500 	stmdaeq	pc!, {r8, sl}	; <UNPREDICTABLE>
    1544:	00041d26 	andeq	r1, r4, r6, lsr #26
    1548:	00041d00 	andeq	r1, r4, r0, lsl #26
    154c:	06830300 	streq	r0, [r3], r0, lsl #6
    1550:	00041526 	andeq	r1, r4, r6, lsr #10
    1554:	00041500 	andeq	r1, r4, r0, lsl #10
    1558:	077c0300 	ldrbeq	r0, [ip, -r0, lsl #6]!
    155c:	0002da00 	andeq	sp, r2, r0, lsl #20
    1560:	07000400 	streq	r0, [r0, -r0, lsl #8]
    1564:	04000006 	streq	r0, [r0], #-6
    1568:	00013401 	andeq	r3, r1, r1, lsl #8
    156c:	048d0c00 	streq	r0, [sp], #3072	; 0xc00
    1570:	00a70000 	adceq	r0, r7, r0
    1574:	880c0000 	stmdahi	ip, {}	; <UNPREDICTABLE>
    1578:	01ac0000 			; <UNDEFINED> instruction: 0x01ac0000
    157c:	08e40000 	stmiaeq	r4!, {}^	; <UNPREDICTABLE>
    1580:	04020000 	streq	r0, [r2], #-0
    1584:	746e6905 	strbtvc	r6, [lr], #-2309	; 0xfffff6fb
    1588:	07040300 	streq	r0, [r4, -r0, lsl #6]
    158c:	0000009a 	muleq	r0, sl, r0
    1590:	2c060103 	stfcss	f0, [r6], {3}
    1594:	03000000 	movweq	r0, #0
    1598:	01200502 			; <UNDEFINED> instruction: 0x01200502
    159c:	04030000 	streq	r0, [r3], #-0
    15a0:	00010405 	andeq	r0, r1, r5, lsl #8
    15a4:	05080300 	streq	r0, [r8, #-768]	; 0xfffffd00
    15a8:	000000ff 	strdeq	r0, [r0], -pc	; <UNPREDICTABLE>
    15ac:	2a080103 	bcs	2019c0 <__bss_end__+0x1f7440>
    15b0:	03000000 	movweq	r0, #0
    15b4:	00450702 	subeq	r0, r5, r2, lsl #14
    15b8:	04030000 	streq	r0, [r3], #-0
    15bc:	00009507 	andeq	r9, r0, r7, lsl #10
    15c0:	07080300 	streq	r0, [r8, -r0, lsl #6]
    15c4:	00000090 	muleq	r0, r0, r0
    15c8:	00002504 	andeq	r2, r0, r4, lsl #10
    15cc:	00007a00 	andeq	r7, r0, r0, lsl #20
    15d0:	00250500 	eoreq	r0, r5, r0, lsl #10
    15d4:	06000000 	streq	r0, [r0], -r0
    15d8:	0000010d 	andeq	r0, r0, sp, lsl #2
    15dc:	860e1c02 	strhi	r1, [lr], -r2, lsl #24
    15e0:	07000000 	streq	r0, [r0, -r0]
    15e4:	00006b04 	andeq	r6, r0, r4, lsl #22
    15e8:	00250400 	eoreq	r0, r5, r0, lsl #8
    15ec:	009b0000 	addseq	r0, fp, r0
    15f0:	9b050000 	blls	1415f8 <__bss_end__+0x137078>
    15f4:	00000000 	andeq	r0, r0, r0
    15f8:	00a80407 	adceq	r0, r8, r7, lsl #8
    15fc:	01030000 	mrseq	r0, (UNDEF: 3)
    1600:	00003308 	andeq	r3, r0, r8, lsl #6
    1604:	00a10800 	adceq	r0, r1, r0, lsl #16
    1608:	2c060000 	stccs	0, cr0, [r6], {-0}
    160c:	02000006 	andeq	r0, r0, #6, 0
    1610:	00b90e21 	adcseq	r0, r9, r1, lsr #28
    1614:	04070000 	streq	r0, [r7], #-0
    1618:	0000008c 	andeq	r0, r0, ip, lsl #1
    161c:	00047a09 	andeq	r7, r4, r9, lsl #20
    1620:	05010800 	streq	r0, [r1, #-2048]	; 0xfffff800
    1624:	0000ec07 	andeq	lr, r0, r7, lsl #24
    1628:	00640a00 	rsbeq	r0, r4, r0, lsl #20
    162c:	ec100601 	ldc	6, cr0, [r0], {1}
    1630:	0a000000 	beq	1638 <__code_start__-0x69c8>
    1634:	07010070 	smlsdxeq	r1, r0, r0, r0
    1638:	0000f30f 	andeq	pc, r0, pc, lsl #6
    163c:	70660a00 	rsbvc	r0, r6, r0, lsl #20
    1640:	10080100 	andne	r0, r8, r0, lsl #2
    1644:	000000f6 	strdeq	r0, [r0], -r6
    1648:	04080300 	streq	r0, [r8], #-768	; 0xfffffd00
    164c:	00000499 	muleq	r0, r9, r4
    1650:	070c040b 	streq	r0, [ip, -fp, lsl #8]
    1654:	0000f504 	andeq	pc, r0, r4, lsl #10
    1658:	01080d00 	tsteq	r8, r0, lsl #26
    165c:	0120020c 			; <UNDEFINED> instruction: 0x0120020c
    1660:	700e0000 	andvc	r0, lr, r0
    1664:	01007274 	tsteq	r0, r4, ror r2
    1668:	0142150d 	cmpeq	r2, sp, lsl #10
    166c:	0f000000 	svceq	0x00000000
    1670:	000004b1 			; <UNDEFINED> instruction: 0x000004b1
    1674:	2c100e01 	ldccs	14, cr0, [r0], {1}
    1678:	04000000 	streq	r0, [r0], #-0
    167c:	046d0900 	strbteq	r0, [sp], #-2304	; 0xfffff700
    1680:	01080000 	mrseq	r0, (UNDEF: 8)
    1684:	01420f0b 	cmpeq	r2, fp, lsl #30
    1688:	730a0000 	movwvc	r0, #40960	; 0xa000
    168c:	060f0100 	streq	r0, [pc], -r0, lsl #2
    1690:	000000fc 	strdeq	r0, [r0], -ip
    1694:	0100780a 	tsteq	r0, sl, lsl #16
    1698:	00bf1010 	adcseq	r1, pc, r0, lsl r0	; <UNPREDICTABLE>
    169c:	07000000 	streq	r0, [r0, -r0]
    16a0:	00012004 	andeq	r2, r1, r4
    16a4:	04b61000 	ldrteq	r1, [r6], #0
    16a8:	11010000 	mrsne	r0, (UNDEF: 1)
    16ac:	00012003 	andeq	r2, r1, r3
    16b0:	04a01100 	strteq	r1, [r0], #256	; 0x100
    16b4:	13010000 	movwne	r0, #4096	; 0x1000
    16b8:	0001480f 	andeq	r4, r1, pc, lsl #16
    16bc:	70030500 	andvc	r0, r3, r0, lsl #10
    16c0:	110000a1 	smlatbne	r0, r1, r0, r0
    16c4:	00000480 	andeq	r0, r0, r0, lsl #9
    16c8:	78101401 	ldmdavc	r0, {r0, sl, ip}
    16cc:	05000001 	streq	r0, [r0, #-1]
    16d0:	00a16803 	adceq	r6, r1, r3, lsl #16
    16d4:	48040700 	stmdami	r4, {r8, r9, sl}
    16d8:	12000001 	andne	r0, r0, #1, 0
    16dc:	00000237 	andeq	r0, r0, r7, lsr r2
    16e0:	0c065201 	sfmeq	f5, 4, [r6], {1}
    16e4:	bc000088 	stclt	0, cr0, [r0], {136}	; 0x88
    16e8:	01000000 	mrseq	r0, (UNDEF: 0)
    16ec:	0001c89c 	muleq	r1, ip, r8
    16f0:	74701300 	ldrbtvc	r1, [r0], #-768	; 0xfffffd00
    16f4:	52010072 	andpl	r0, r1, #114, 0	; 0x72
    16f8:	0000f314 	andeq	pc, r0, r4, lsl r3	; <UNPREDICTABLE>
    16fc:	14500100 	ldrbne	r0, [r0], #-256	; 0xffffff00
    1700:	01007062 	tsteq	r0, r2, rrx
    1704:	01780a53 	cmneq	r8, r3, asr sl
    1708:	07220000 	streq	r0, [r2, -r0]!
    170c:	071a0000 	ldreq	r0, [sl, -r0]
    1710:	70140000 	andsvc	r0, r4, r0
    1714:	0f530100 	svceq	0x00530100
    1718:	00000178 	andeq	r0, r0, r8, ror r1
    171c:	0000075e 	andeq	r0, r0, lr, asr r7
    1720:	0000075a 	andeq	r0, r0, sl, asr r7
    1724:	03001500 	movweq	r1, #1280	; 0x500
    1728:	2c010000 	stccs	0, cr0, [r1], {-0}
    172c:	0000f307 	andeq	pc, r0, r7, lsl #6
    1730:	00890c00 	addeq	r0, r9, r0, lsl #24
    1734:	0000ac00 	andeq	sl, r0, r0, lsl #24
    1738:	579c0100 	ldrpl	r0, [ip, r0, lsl #2]
    173c:	16000002 	strne	r0, [r0], -r2
    1740:	000002f9 	strdeq	r0, [r0], -r9
    1744:	2c1a2c01 	ldccs	12, cr2, [sl], {1}
    1748:	84000000 	strhi	r0, [r0], #-0
    174c:	7c000007 	stcvc	0, cr0, [r0], {7}
    1750:	14000007 	strne	r0, [r0], #-7
    1754:	2d010070 	stccs	0, cr0, [r1, #-448]	; 0xfffffe40
    1758:	0001780a 	andeq	r7, r1, sl, lsl #16
    175c:	0007cc00 	andeq	ip, r7, r0, lsl #24
    1760:	0007be00 	andeq	fp, r7, r0, lsl #28
    1764:	04741700 	ldrbteq	r1, [r4], #-1792	; 0xfffff900
    1768:	2d010000 	stccs	0, cr0, [r1, #-0]
    176c:	0001780e 	andeq	r7, r1, lr, lsl #16
    1770:	00082e00 	andeq	r2, r8, r0, lsl #28
    1774:	00082400 	andeq	r2, r8, r0, lsl #8
    1778:	04861700 	streq	r1, [r6], #1792	; 0x700
    177c:	2e010000 	cdpcs	0, 0, cr0, cr1, cr0, {0}
    1780:	00002c0b 	andeq	r2, r0, fp, lsl #24
    1784:	00087400 	andeq	r7, r8, r0, lsl #8
    1788:	00087200 	andeq	r7, r8, r0, lsl #4
    178c:	04a51800 	strteq	r1, [r5], #2048	; 0x800
    1790:	2f010000 	svccs	0x00010000
    1794:	0001780a 	andeq	r7, r1, sl, lsl #16
    1798:	00024600 	andeq	r4, r2, r0, lsl #12
    179c:	002c0500 	eoreq	r0, ip, r0, lsl #10
    17a0:	19000000 	stmdbne	r0, {}	; <UNPREDICTABLE>
    17a4:	000089a8 	andeq	r8, r0, r8, lsr #19
    17a8:	00000257 	andeq	r0, r0, r7, asr r2
    17ac:	0250011a 	subseq	r0, r0, #-2147483642	; 0x80000006
    17b0:	00000074 	andeq	r0, r0, r4, ror r0
    17b4:	0004a51b 	andeq	sl, r4, fp, lsl r5
    17b8:	10180100 	andsne	r0, r8, r0, lsl #2
    17bc:	00000178 	andeq	r0, r0, r8, ror r1
    17c0:	000088c8 	andeq	r8, r0, r8, asr #17
    17c4:	00000044 	andeq	r0, r0, r4, asr #32
    17c8:	02cb9c01 	sbceq	r9, fp, #256	; 0x100
    17cc:	691c0000 	ldmdbvs	ip, {}	; <UNPREDICTABLE>
    17d0:	0100636e 	tsteq	r0, lr, ror #6
    17d4:	002c2518 	eoreq	r2, ip, r8, lsl r5
    17d8:	088b0000 	stmeq	fp, {}	; <UNPREDICTABLE>
    17dc:	08870000 	stmeq	r7, {}	; <UNPREDICTABLE>
    17e0:	63140000 	tstvs	r4, #0, 0
    17e4:	19010070 	stmdbne	r1, {r4, r5, r6}
    17e8:	0002cb08 	andeq	ip, r2, r8, lsl #22
    17ec:	0008af00 	andeq	sl, r8, r0, lsl #30
    17f0:	0008a900 	andeq	sl, r8, r0, lsl #18
    17f4:	70751400 	rsbsvc	r1, r5, r0, lsl #8
    17f8:	0a1a0100 	beq	681c00 <__bss_end__+0x677680>
    17fc:	00000178 	andeq	r0, r0, r8, ror r1
    1800:	000008de 	ldrdeq	r0, [r0], -lr
    1804:	000008da 	ldrdeq	r0, [r0], -sl
    1808:	0088e01d 	addeq	lr, r8, sp, lsl r0
    180c:	0002d100 	andeq	sp, r2, r0, lsl #2
    1810:	0002c100 	andeq	ip, r2, r0, lsl #2
    1814:	50011a00 	andpl	r1, r1, r0, lsl #20
    1818:	33007404 	movwcc	r7, #1028	; 0x404
    181c:	f41e0024 			; <UNDEFINED> instruction: 0xf41e0024
    1820:	7e000088 	cdpvc	0, 0, cr0, cr0, cr8, {4}
    1824:	00000001 	andeq	r0, r0, r1
    1828:	00a10407 	adceq	r0, r1, r7, lsl #8
    182c:	ba1f0000 	blt	7c1834 <__bss_end__+0x7b72b4>
    1830:	ba000003 	blt	1844 <__code_start__-0x67bc>
    1834:	03000003 	movweq	r0, #3
    1838:	3a000b1a 	bcc	44a8 <__code_start__-0x3b58>
    183c:	04000001 	streq	r0, [r0], #-1
    1840:	0007f500 	andeq	pc, r7, r0, lsl #10
    1844:	bd010400 	cfstrslt	mvf0, [r1, #-0]
    1848:	0c000004 	stceq	0, cr0, [r0], {4}
    184c:	0000058e 	andeq	r0, r0, lr, lsl #11
    1850:	0000059e 	muleq	r0, lr, r5
    1854:	000089b8 			; <UNDEFINED> instruction: 0x000089b8
    1858:	00000018 	andeq	r0, r0, r8, lsl r0
    185c:	00000b3a 	andeq	r0, r0, sl, lsr fp
    1860:	69050402 	stmdbvs	r5, {r1, sl}
    1864:	0300746e 	movweq	r7, #1134	; 0x46e
    1868:	00000587 	andeq	r0, r0, r7, lsl #11
    186c:	3817d103 	ldmdacc	r7, {r0, r1, r8, ip, lr, pc}
    1870:	04000000 	streq	r0, [r0], #-0
    1874:	009a0704 	addseq	r0, sl, r4, lsl #14
    1878:	01040000 	mrseq	r0, (UNDEF: 4)
    187c:	00002c06 	andeq	r2, r0, r6, lsl #24
    1880:	05020400 	streq	r0, [r2, #-1024]	; 0xfffffc00
    1884:	00000120 	andeq	r0, r0, r0, lsr #2
    1888:	04050404 	streq	r0, [r5], #-1028	; 0xfffffbfc
    188c:	04000001 	streq	r0, [r0], #-1
    1890:	00ff0508 	rscseq	r0, pc, r8, lsl #10
    1894:	01040000 	mrseq	r0, (UNDEF: 4)
    1898:	00002a08 	andeq	r2, r0, r8, lsl #20
    189c:	07020400 	streq	r0, [r2, -r0, lsl #8]
    18a0:	00000045 	andeq	r0, r0, r5, asr #32
    18a4:	95070404 	strls	r0, [r7, #-1028]	; 0xfffffbfc
    18a8:	04000000 	streq	r0, [r0], #-0
    18ac:	00900708 	addseq	r0, r0, r8, lsl #14
    18b0:	25050000 	strcs	r0, [r5, #-0]
    18b4:	86000000 	strhi	r0, [r0], -r0
    18b8:	06000000 	streq	r0, [r0], -r0
    18bc:	00000025 	andeq	r0, r0, r5, lsr #32
    18c0:	010d0700 	tsteq	sp, r0, lsl #14
    18c4:	1c020000 	stcne	0, cr0, [r2], {-0}
    18c8:	0000920e 	andeq	r9, r0, lr, lsl #4
    18cc:	77040800 	strvc	r0, [r4, -r0, lsl #16]
    18d0:	05000000 	streq	r0, [r0, #-0]
    18d4:	00000025 	andeq	r0, r0, r5, lsr #32
    18d8:	000000a7 	andeq	r0, r0, r7, lsr #1
    18dc:	0000a706 	andeq	sl, r0, r6, lsl #14
    18e0:	04080000 	streq	r0, [r8], #-0
    18e4:	000000b4 	strheq	r0, [r0], -r4
    18e8:	33080104 	movwcc	r0, #33028	; 0x8104
    18ec:	09000000 	stmdbeq	r0, {}	; <UNPREDICTABLE>
    18f0:	000000ad 	andeq	r0, r0, sp, lsr #1
    18f4:	00062c07 	andeq	r2, r6, r7, lsl #24
    18f8:	0e210200 	cdpeq	2, 2, cr0, cr1, cr0, {0}
    18fc:	000000c5 	andeq	r0, r0, r5, asr #1
    1900:	00980408 	addseq	r0, r8, r8, lsl #8
    1904:	630a0000 	movwvs	r0, #40960	; 0xa000
    1908:	01000000 	mrseq	r0, (UNDEF: 0)
    190c:	01350704 	teqeq	r5, r4, lsl #14
    1910:	89b80000 	ldmibhi	r8!, {}	; <UNPREDICTABLE>
    1914:	00180000 	andseq	r0, r8, r0
    1918:	9c010000 	stcls	0, cr0, [r1], {-0}
    191c:	00000135 	andeq	r0, r0, r5, lsr r1
    1920:	00705f0b 	rsbseq	r5, r0, fp, lsl #30
    1924:	35140401 	ldrcc	r0, [r4, #-1025]	; 0xfffffbff
    1928:	01000001 	tsteq	r0, r1
    192c:	00630b50 	rsbeq	r0, r3, r0, asr fp
    1930:	251c0401 	ldrcs	r0, [ip, #-1025]	; 0xfffffbff
    1934:	01000000 	mrseq	r0, (UNDEF: 0)
    1938:	006e0c51 	rsbeq	r0, lr, r1, asr ip
    193c:	2c260401 	cfstrscs	mvf0, [r6], #-4
    1940:	02000000 	andeq	r0, r0, #0, 0
    1944:	fe000009 	cdp2	0, 0, cr0, cr0, cr9, {0}
    1948:	0d000008 	stceq	0, cr0, [r0, #-32]	; 0xffffffe0
    194c:	05010070 	streq	r0, [r1, #-112]	; 0xffffff90
    1950:	0001370b 	andeq	r3, r1, fp, lsl #14
    1954:	00092b00 	andeq	r2, r9, r0, lsl #22
    1958:	00092300 	andeq	r2, r9, r0, lsl #6
    195c:	00650d00 	rsbeq	r0, r5, r0, lsl #26
    1960:	37140501 	ldrcc	r0, [r4, -r1, lsl #10]
    1964:	63000001 	movwvs	r0, #1
    1968:	61000009 	tstvs	r0, r9
    196c:	00000009 	andeq	r0, r0, r9
    1970:	0408040e 	streq	r0, [r8], #-1038	; 0xfffffbf2
    1974:	000000ad 	andeq	r0, r0, sp, lsr #1
    1978:	00019d00 	andeq	r9, r1, r0, lsl #26
    197c:	c1000400 	tstgt	r0, r0, lsl #8
    1980:	04000008 	streq	r0, [r0], #-8
    1984:	0004bd01 	andeq	fp, r4, r1, lsl #26
    1988:	06130c00 	ldreq	r0, [r3], -r0, lsl #24
    198c:	059e0000 	ldreq	r0, [lr]
    1990:	89d00000 	ldmibhi	r0, {}^	; <UNPREDICTABLE>
    1994:	00580000 	subseq	r0, r8, r0
    1998:	0c520000 	mraeq	r0, r2, acc0
    199c:	f5020000 			; <UNDEFINED> instruction: 0xf5020000
    19a0:	02000005 	andeq	r0, r0, #5, 0
    19a4:	00311b28 	eorseq	r1, r1, r8, lsr #22
    19a8:	04030000 	streq	r0, [r3], #-0
    19ac:	04000006 	streq	r0, [r0], #-6
    19b0:	00480004 	subeq	r0, r8, r4
    19b4:	0e040000 	cdpeq	0, 0, cr0, cr4, cr0, {0}
    19b8:	48000006 	stmdami	r0, {r1, r2}
    19bc:	00000000 	andeq	r0, r0, r0
    19c0:	02040500 	andeq	r0, r4, #0, 10
    19c4:	00000606 	andeq	r0, r0, r6, lsl #12
    19c8:	25186302 	ldrcs	r6, [r8, #-770]	; 0xfffffcfe
    19cc:	06000000 	streq	r0, [r0], -r0
    19d0:	6e690504 	cdpvs	5, 6, cr0, cr9, cr4, {0}
    19d4:	04070074 	streq	r0, [r7], #-116	; 0xffffff8c
    19d8:	00009a07 	andeq	r9, r0, r7, lsl #20
    19dc:	06010700 	streq	r0, [r1], -r0, lsl #14
    19e0:	0000002c 	andeq	r0, r0, ip, lsr #32
    19e4:	20050207 	andcs	r0, r5, r7, lsl #4
    19e8:	07000001 	streq	r0, [r0, -r1]
    19ec:	01040504 	tsteq	r4, r4, lsl #10
    19f0:	08070000 	stmdaeq	r7, {}	; <UNPREDICTABLE>
    19f4:	0000ff05 	andeq	pc, r0, r5, lsl #30
    19f8:	08010700 	stmdaeq	r1, {r8, r9, sl}
    19fc:	0000002a 	andeq	r0, r0, sl, lsr #32
    1a00:	45070207 	strmi	r0, [r7, #-519]	; 0xfffffdf9
    1a04:	07000000 	streq	r0, [r0, -r0]
    1a08:	00950704 	addseq	r0, r5, r4, lsl #14
    1a0c:	08070000 	stmdaeq	r7, {}	; <UNPREDICTABLE>
    1a10:	00009007 	andeq	r9, r0, r7
    1a14:	00560800 	subseq	r0, r6, r0, lsl #16
    1a18:	00ab0000 	adceq	r0, fp, r0
    1a1c:	56090000 	strpl	r0, [r9], -r0
    1a20:	00000000 	andeq	r0, r0, r0
    1a24:	00010d0a 	andeq	r0, r1, sl, lsl #26
    1a28:	0e1c0300 	cdpeq	3, 1, cr0, cr12, cr0, {0}
    1a2c:	000000b7 	strheq	r0, [r0], -r7
    1a30:	009c040b 	addseq	r0, ip, fp, lsl #8
    1a34:	56080000 	strpl	r0, [r8], -r0
    1a38:	cc000000 	stcgt	0, cr0, [r0], {-0}
    1a3c:	09000000 	stmdbeq	r0, {}	; <UNPREDICTABLE>
    1a40:	000000cc 	andeq	r0, r0, ip, asr #1
    1a44:	d9040b00 	stmdble	r4, {r8, r9, fp}
    1a48:	07000000 	streq	r0, [r0, -r0]
    1a4c:	00330801 	eorseq	r0, r3, r1, lsl #16
    1a50:	d20c0000 	andle	r0, ip, #0, 0
    1a54:	0a000000 	beq	1a5c <__code_start__-0x65a4>
    1a58:	0000062c 	andeq	r0, r0, ip, lsr #12
    1a5c:	ea0e2103 	b	389e70 <__bss_end__+0x37f8f0>
    1a60:	0b000000 	bleq	1a68 <__code_start__-0x6598>
    1a64:	0000bd04 	andeq	fp, r0, r4, lsl #26
    1a68:	05ee0d00 	strbeq	r0, [lr, #3328]!	; 0xd00
    1a6c:	06010000 	streq	r0, [r1], -r0
    1a70:	00005605 	andeq	r5, r0, r5, lsl #12
    1a74:	0089d000 	addeq	sp, r9, r0
    1a78:	00005800 	andeq	r5, r0, r0, lsl #16
    1a7c:	839c0100 	orrshi	r0, ip, #0
    1a80:	0e000001 	cdpeq	0, 0, cr0, cr0, cr1, {0}
    1a84:	00746d66 	rsbseq	r6, r4, r6, ror #26
    1a88:	cc180601 	ldcgt	6, cr0, [r8], {1}
    1a8c:	02000000 	andeq	r0, r0, #0, 0
    1a90:	100f7091 	mulne	pc, r1, r0	; <UNPREDICTABLE>
    1a94:	00667562 	rsbeq	r7, r6, r2, ror #10
    1a98:	83110801 	tsthi	r1, #65536	; 0x10000
    1a9c:	05000001 	streq	r0, [r0, #-1]
    1aa0:	00a17803 	adceq	r7, r1, r3, lsl #16
    1aa4:	05e61100 	strbeq	r1, [r6, #256]!	; 0x100
    1aa8:	09010000 	stmdbeq	r1, {}	; <UNPREDICTABLE>
    1aac:	00004a0d 	andeq	r4, r0, sp, lsl #20
    1ab0:	5c910200 	lfmpl	f0, 4, [r1], {0}
    1ab4:	007a7312 	rsbseq	r7, sl, r2, lsl r3
    1ab8:	560d0c01 	strpl	r0, [sp], -r1, lsl #24
    1abc:	7c000000 	stcvc	0, cr0, [r0], {-0}
    1ac0:	76000009 	strvc	r0, [r0], -r9
    1ac4:	13000009 	movwne	r0, #9
    1ac8:	000089f8 	strdeq	r8, [r0], -r8	; <UNPREDICTABLE>
    1acc:	00000194 	muleq	r0, r4, r1
    1ad0:	00000176 	andeq	r0, r0, r6, ror r1
    1ad4:	02500114 	subseq	r0, r0, #5
    1ad8:	01140075 	tsteq	r4, r5, ror r0
    1adc:	000a0351 	andeq	r0, sl, r1, asr r3
    1ae0:	52011404 	andpl	r1, r1, #4, 8	; 0x4000000
    1ae4:	06489103 	strbeq	r9, [r8], -r3, lsl #2
    1ae8:	02530114 	subseq	r0, r3, #5
    1aec:	15004c91 	strne	r4, [r0, #-3217]	; 0xfffff36f
    1af0:	00008a0c 	andeq	r8, r0, ip, lsl #20
    1af4:	02500114 	subseq	r0, r0, #5
    1af8:	00000075 	andeq	r0, r0, r5, ror r0
    1afc:	0000d216 	andeq	sp, r0, r6, lsl r2
    1b00:	00019400 	andeq	r9, r1, r0, lsl #8
    1b04:	005d1700 	subseq	r1, sp, r0, lsl #14
    1b08:	03ff0000 	mvnseq	r0, #0, 0
    1b0c:	05eb1800 	strbeq	r1, [fp, #2048]!	; 0x800
    1b10:	05eb0000 	strbeq	r0, [fp, #0]!
    1b14:	02050000 	andeq	r0, r5, #0, 0
    1b18:	00f30005 	rscseq	r0, r3, r5
    1b1c:	00040000 	andeq	r0, r4, r0
    1b20:	00000a03 	andeq	r0, r0, r3, lsl #20
    1b24:	04bd0104 	ldrteq	r0, [sp], #260	; 0x104
    1b28:	310c0000 	mrscc	r0, (UNDEF: 12)
    1b2c:	9e000006 	cdpls	0, 0, cr0, cr0, cr6, {0}
    1b30:	28000005 	stmdacs	r0, {r0, r2}
    1b34:	3400008a 	strcc	r0, [r0], #-138	; 0xffffff76
    1b38:	89000000 	stmdbhi	r0, {}	; <UNPREDICTABLE>
    1b3c:	0200000d 	andeq	r0, r0, #13, 0
    1b40:	6e690504 	cdpvs	5, 6, cr0, cr9, cr4, {0}
    1b44:	04030074 	streq	r0, [r3], #-116	; 0xffffff8c
    1b48:	00009a07 	andeq	r9, r0, r7, lsl #20
    1b4c:	06010300 	streq	r0, [r1], -r0, lsl #6
    1b50:	0000002c 	andeq	r0, r0, ip, lsr #32
    1b54:	20050203 	andcs	r0, r5, r3, lsl #4
    1b58:	03000001 	movweq	r0, #1
    1b5c:	01040504 	tsteq	r4, r4, lsl #10
    1b60:	08030000 	stmdaeq	r3, {}	; <UNPREDICTABLE>
    1b64:	0000ff05 	andeq	pc, r0, r5, lsl #30
    1b68:	08010300 	stmdaeq	r1, {r8, r9}
    1b6c:	0000002a 	andeq	r0, r0, sl, lsr #32
    1b70:	45070203 	strmi	r0, [r7, #-515]	; 0xfffffdfd
    1b74:	03000000 	movweq	r0, #0
    1b78:	00950704 	addseq	r0, r5, r4, lsl #14
    1b7c:	08030000 	stmdaeq	r3, {}	; <UNPREDICTABLE>
    1b80:	00009007 	andeq	r9, r0, r7
    1b84:	00250400 	eoreq	r0, r5, r0, lsl #8
    1b88:	007a0000 	rsbseq	r0, sl, r0
    1b8c:	25050000 	strcs	r0, [r5, #-0]
    1b90:	00000000 	andeq	r0, r0, r0
    1b94:	00010d06 	andeq	r0, r1, r6, lsl #26
    1b98:	0e1c0200 	cdpeq	2, 1, cr0, cr12, cr0, {0}
    1b9c:	00000086 	andeq	r0, r0, r6, lsl #1
    1ba0:	006b0407 	rsbeq	r0, fp, r7, lsl #8
    1ba4:	25040000 	strcs	r0, [r4, #-0]
    1ba8:	9b000000 	blls	1bb0 <__code_start__-0x6450>
    1bac:	05000000 	streq	r0, [r0, #-0]
    1bb0:	0000009b 	muleq	r0, fp, r0
    1bb4:	a8040700 	stmdage	r4, {r8, r9, sl}
    1bb8:	03000000 	movweq	r0, #0
    1bbc:	00330801 	eorseq	r0, r3, r1, lsl #16
    1bc0:	a1080000 	mrsge	r0, (UNDEF: 8)
    1bc4:	06000000 	streq	r0, [r0], -r0
    1bc8:	0000062c 	andeq	r0, r0, ip, lsr #12
    1bcc:	b90e2102 	stmdblt	lr, {r1, r8, sp}
    1bd0:	07000000 	streq	r0, [r0, -r0]
    1bd4:	00008c04 	andeq	r8, r0, r4, lsl #24
    1bd8:	00ad0900 	adceq	r0, sp, r0, lsl #18
    1bdc:	0c010000 	stceq	0, cr0, [r1], {-0}
    1be0:	3c030507 	cfstr32cc	mvfx0, [r3], {7}
    1be4:	0a0000a1 	beq	1e70 <__code_start__-0x6190>
    1be8:	00000623 	andeq	r0, r0, r3, lsr #12
    1bec:	25050401 	strcs	r0, [r5, #-1025]	; 0xfffffbff
    1bf0:	28000000 	stmdacs	r0, {}	; <UNPREDICTABLE>
    1bf4:	3400008a 	strcc	r0, [r0], #-138	; 0xffffff76
    1bf8:	01000000 	mrseq	r0, (UNDEF: 0)
    1bfc:	00700b9c 			; <UNDEFINED> instruction: 0x00700b9c
    1c00:	9b1f0401 	blls	7c2c0c <__bss_end__+0x7b868c>
    1c04:	a9000000 	stmdbge	r0, {}	; <UNPREDICTABLE>
    1c08:	a5000009 	strge	r0, [r0, #-9]
    1c0c:	00000009 	andeq	r0, r0, r9
    1c10:	000ad700 	andeq	sp, sl, r0, lsl #14
    1c14:	a1000400 	tstge	r0, r0, lsl #8
    1c18:	0400000a 	streq	r0, [r0], #-10
    1c1c:	0004bd01 	andeq	fp, r4, r1, lsl #26
    1c20:	06500c00 	ldrbeq	r0, [r0], -r0, lsl #24
    1c24:	059e0000 	ldreq	r0, [lr]
    1c28:	8a5c0000 	bhi	1701c30 <__bss_end__+0x16f76b0>
    1c2c:	07400000 	strbeq	r0, [r0, -r0]
    1c30:	0e580000 	cdpeq	0, 5, cr0, cr8, cr0, {0}
    1c34:	04020000 	streq	r0, [r2], #-0
    1c38:	746e6905 	strbtvc	r6, [lr], #-2309	; 0xfffff6fb
    1c3c:	07040300 	streq	r0, [r4, -r0, lsl #6]
    1c40:	0000009a 	muleq	r0, sl, r0
    1c44:	2c060103 	stfcss	f0, [r6], {3}
    1c48:	03000000 	movweq	r0, #0
    1c4c:	01200502 			; <UNDEFINED> instruction: 0x01200502
    1c50:	04030000 	streq	r0, [r3], #-0
    1c54:	00010405 	andeq	r0, r1, r5, lsl #8
    1c58:	05080300 	streq	r0, [r8, #-768]	; 0xfffffd00
    1c5c:	000000ff 	strdeq	r0, [r0], -pc	; <UNPREDICTABLE>
    1c60:	2a080103 	bcs	202074 <__bss_end__+0x1f7af4>
    1c64:	03000000 	movweq	r0, #0
    1c68:	00450702 	subeq	r0, r5, r2, lsl #14
    1c6c:	8a040000 	bhi	101c74 <__bss_end__+0xf76f4>
    1c70:	02000002 	andeq	r0, r0, #2, 0
    1c74:	00691934 	rsbeq	r1, r9, r4, lsr r9
    1c78:	04030000 	streq	r0, [r3], #-0
    1c7c:	00009507 	andeq	r9, r0, r7, lsl #10
    1c80:	06470400 	strbeq	r0, [r7], -r0, lsl #8
    1c84:	37020000 	strcc	r0, [r2, -r0]
    1c88:	00007c19 	andeq	r7, r0, r9, lsl ip
    1c8c:	07080300 	streq	r0, [r8, -r0, lsl #6]
    1c90:	00000090 	muleq	r0, r0, r0
    1c94:	00002505 	andeq	r2, r0, r5, lsl #10
    1c98:	00009200 	andeq	r9, r0, r0, lsl #4
    1c9c:	00250600 	eoreq	r0, r5, r0, lsl #12
    1ca0:	07000000 	streq	r0, [r0, -r0]
    1ca4:	0000010d 	andeq	r0, r0, sp, lsl #2
    1ca8:	9e0e1c03 	cdpls	12, 0, cr1, cr14, cr3, {0}
    1cac:	08000000 	stmdaeq	r0, {}	; <UNPREDICTABLE>
    1cb0:	00008304 	andeq	r8, r0, r4, lsl #6
    1cb4:	00250500 	eoreq	r0, r5, r0, lsl #10
    1cb8:	00b30000 	adcseq	r0, r3, r0
    1cbc:	b3060000 	movwlt	r0, #24576	; 0x6000
    1cc0:	00000000 	andeq	r0, r0, r0
    1cc4:	00c00408 	sbceq	r0, r0, r8, lsl #8
    1cc8:	01030000 	mrseq	r0, (UNDEF: 3)
    1ccc:	00003308 	andeq	r3, r0, r8, lsl #6
    1cd0:	00b90900 	adcseq	r0, r9, r0, lsl #18
    1cd4:	2c070000 	stccs	0, cr0, [r7], {-0}
    1cd8:	03000006 	movweq	r0, #6
    1cdc:	00d10e21 	sbcseq	r0, r1, r1, lsr #28
    1ce0:	04080000 	streq	r0, [r8], #-0
    1ce4:	000000a4 	andeq	r0, r0, r4, lsr #1
    1ce8:	00066307 	andeq	r6, r6, r7, lsl #6
    1cec:	0d0b0400 	cfstrseq	mvf0, [fp, #-0]
    1cf0:	000000b9 	strheq	r0, [r0], -r9
    1cf4:	0006b507 	andeq	fp, r6, r7, lsl #10
    1cf8:	0d0c0400 	cfstrseq	mvf0, [ip, #-0]
    1cfc:	000000b9 	strheq	r0, [r0], -r9
    1d00:	00033d07 	andeq	r3, r3, r7, lsl #26
    1d04:	0d0d0400 	cfstrseq	mvf0, [sp, #-0]
    1d08:	000000b9 	strheq	r0, [r0], -r9
    1d0c:	00040907 	andeq	r0, r4, r7, lsl #18
    1d10:	0d0e0400 	cfstrseq	mvf0, [lr, #-0]
    1d14:	000000b9 	strheq	r0, [r0], -r9
    1d18:	00043f07 	andeq	r3, r4, r7, lsl #30
    1d1c:	0d0f0400 	cfstrseq	mvf0, [pc, #-0]	; 1d24 <__code_start__-0x62dc>
    1d20:	000000b9 	strheq	r0, [r0], -r9
    1d24:	00039f07 	andeq	r9, r3, r7, lsl #30
    1d28:	0d100400 	cfldrseq	mvf0, [r0, #-0]
    1d2c:	000000b9 	strheq	r0, [r0], -r9
    1d30:	0006e507 	andeq	lr, r6, r7, lsl #10
    1d34:	0d110400 	cfldrseq	mvf0, [r1, #-0]
    1d38:	000000b9 	strheq	r0, [r0], -r9
    1d3c:	00068007 	andeq	r8, r6, r7
    1d40:	0d120400 	cfldrseq	mvf0, [r2, #-0]
    1d44:	000000b9 	strheq	r0, [r0], -r9
    1d48:	0005f504 	andeq	pc, r5, r4, lsl #10
    1d4c:	1b280500 	blne	a03154 <__bss_end__+0x9f8bd4>
    1d50:	00000143 	andeq	r0, r0, r3, asr #2
    1d54:	0006040a 	andeq	r0, r6, sl, lsl #8
    1d58:	00060400 	andeq	r0, r6, r0, lsl #8
    1d5c:	0000015a 	andeq	r0, r0, sl, asr r1
    1d60:	00060e0b 	andeq	r0, r6, fp, lsl #28
    1d64:	00015a00 	andeq	r5, r1, r0, lsl #20
    1d68:	0c000000 	stceq	0, cr0, [r0], {-0}
    1d6c:	06060404 	streq	r0, [r6], -r4, lsl #8
    1d70:	63050000 	movwvs	r0, #20480	; 0x5000
    1d74:	00013718 	andeq	r3, r1, r8, lsl r7
    1d78:	05eb0d00 	strbeq	r0, [fp, #3328]!	; 0xd00
    1d7c:	81010000 	mrshi	r0, (UNDEF: 1)
    1d80:	00002505 	andeq	r2, r0, r5, lsl #10
    1d84:	008ce400 	addeq	lr, ip, r0, lsl #8
    1d88:	0004b800 	andeq	fp, r4, r0, lsl #16
    1d8c:	179c0100 	ldrne	r0, [ip, r0, lsl #2]
    1d90:	0e000007 	cdpeq	0, 0, cr0, cr0, cr7, {0}
    1d94:	00667562 	rsbeq	r7, r6, r2, ror #10
    1d98:	17158101 	ldrne	r8, [r5, -r1, lsl #2]
    1d9c:	cd000007 	stcgt	0, cr0, [r0, #-28]	; 0xffffffe4
    1da0:	c7000009 	strgt	r0, [r0, -r9]
    1da4:	0e000009 	cdpeq	0, 0, cr0, cr0, cr9, {0}
    1da8:	8101006e 	tsthi	r1, lr, rrx
    1dac:	0000251e 	andeq	r2, r0, lr, lsl r5
    1db0:	0009ff00 	andeq	pc, r9, r0, lsl #30
    1db4:	0009f900 	andeq	pc, r9, r0, lsl #18
    1db8:	6d660e00 	stclvs	14, cr0, [r6, #-0]
    1dbc:	81010074 	tsthi	r1, r4, ror r0
    1dc0:	0000b32d 	andeq	fp, r0, sp, lsr #6
    1dc4:	000a3900 	andeq	r3, sl, r0, lsl #18
    1dc8:	000a2d00 	andeq	r2, sl, r0, lsl #26
    1dcc:	05e60f00 	strbeq	r0, [r6, #3840]!	; 0xf00
    1dd0:	81010000 	mrshi	r0, (UNDEF: 1)
    1dd4:	00015c3a 	andeq	r5, r1, sl, lsr ip
    1dd8:	d4910300 	ldrle	r0, [r1], #768	; 0x300
    1ddc:	0070107d 	rsbseq	r1, r0, sp, ror r0
    1de0:	17088201 	strne	r8, [r8, -r1, lsl #4]
    1de4:	97000007 	strls	r0, [r0, -r7]
    1de8:	8300000a 	movwhi	r0, #10
    1dec:	1000000a 	andne	r0, r0, sl
    1df0:	82010065 	andhi	r0, r1, #101, 0	; 0x65
    1df4:	00071712 	andeq	r1, r7, r2, lsl r7
    1df8:	000b1900 	andeq	r1, fp, r0, lsl #18
    1dfc:	000b1500 	andeq	r1, fp, r0, lsl #10
    1e00:	30781000 	rsbscc	r1, r8, r0
    1e04:	0e830100 	rmfeqs	f0, f3, f0
    1e08:	0000005d 	andeq	r0, r0, sp, asr r0
    1e0c:	00000b46 	andeq	r0, r0, r6, asr #22
    1e10:	00000b40 	andeq	r0, r0, r0, asr #22
    1e14:	00317810 	eorseq	r7, r1, r0, lsl r8
    1e18:	5d118301 	ldcpl	3, cr8, [r1, #-4]
    1e1c:	73000000 	movwvc	r0, #0
    1e20:	6f00000b 	svcvs	0x0000000b
    1e24:	1100000b 	tstne	r0, fp
    1e28:	0000069e 	muleq	r0, lr, r6
    1e2c:	b3118601 	tstlt	r1, #1048576	; 0x100000
    1e30:	95000000 	strls	r0, [r0, #-0]
    1e34:	9100000b 	tstls	r0, fp
    1e38:	1200000b 	andne	r0, r0, #11, 0
    1e3c:	0000006f 	andeq	r0, r0, pc, rrx
    1e40:	0000072d 	andeq	r0, r0, sp, lsr #14
    1e44:	9f280305 	svcls	0x00280305
    1e48:	4c130000 	ldcmi	0, cr0, [r3], {-0}
    1e4c:	0000008d 	andeq	r0, r0, sp, lsl #1
    1e50:	10000004 	andne	r0, r0, r4
    1e54:	91010073 	tstls	r1, r3, ror r0
    1e58:	0007170a 	andeq	r1, r7, sl, lsl #14
    1e5c:	000bcb00 	andeq	ip, fp, r0, lsl #22
    1e60:	000bb500 	andeq	fp, fp, r0, lsl #10
    1e64:	756e1400 	strbvc	r1, [lr, #-1024]!	; 0xfffffc00
    1e68:	9101006d 	tstls	r1, sp, rrx
    1e6c:	0007320d 	andeq	r3, r7, sp, lsl #4
    1e70:	d8910300 	ldmle	r1, {r8, r9}
    1e74:	06f2157d 			; <UNDEFINED> instruction: 0x06f2157d
    1e78:	91010000 	mrsls	r0, (UNDEF: 1)
    1e7c:	00073217 	andeq	r3, r7, r7, lsl r2
    1e80:	d8910300 	ldmle	r1, {r8, r9}
    1e84:	0672117e 			; <UNDEFINED> instruction: 0x0672117e
    1e88:	92010000 	andls	r0, r1, #0, 0
    1e8c:	00002c0d 	andeq	r2, r0, sp, lsl #24
    1e90:	000c5200 	andeq	r5, ip, r0, lsl #4
    1e94:	000c4c00 	andeq	r4, ip, r0, lsl #24
    1e98:	8e141600 	cfmsub32hi	mvax0, mvfx1, mvfx4, mvfx0
    1e9c:	01a40000 			; <UNDEFINED> instruction: 0x01a40000
    1ea0:	05390000 	ldreq	r0, [r9, #-0]!
    1ea4:	74100000 	ldrvc	r0, [r0], #-0
    1ea8:	9e010079 	mcrls	0, 0, r0, cr1, cr9, {3}
    1eac:	0000b31d 	andeq	fp, r0, sp, lsl r3
    1eb0:	000c8600 	andeq	r8, ip, r0, lsl #12
    1eb4:	000c7c00 	andeq	r7, ip, r0, lsl #24
    1eb8:	78781700 	ldmdavc	r8!, {r8, r9, sl, ip}^
    1ebc:	1aa20100 	bne	fe8822c4 <__bss_end__+0xfe877d44>
    1ec0:	00000070 	andeq	r0, r0, r0, ror r0
    1ec4:	008e2418 	addeq	r2, lr, r8, lsl r4
    1ec8:	000a9200 	andeq	r9, sl, r0, lsl #4
    1ecc:	0002d500 	andeq	sp, r2, r0, lsl #10
    1ed0:	50011900 	andpl	r1, r1, r0, lsl #18
    1ed4:	19007602 	stmdbne	r0, {r1, r9, sl, ip, sp, lr}
    1ed8:	03055101 	movweq	r5, #20737	; 0x5101
    1edc:	00009e1c 	andeq	r9, r0, ip, lsl lr
    1ee0:	01520119 	cmpeq	r2, r9, lsl r1
    1ee4:	3c180033 	ldccc	0, cr0, [r8], {51}	; 0x33
    1ee8:	9200008e 	andls	r0, r0, #142, 0	; 0x8e
    1eec:	f700000a 			; <UNDEFINED> instruction: 0xf700000a
    1ef0:	19000002 	stmdbne	r0, {r1}
    1ef4:	76025001 	strvc	r5, [r2], -r1
    1ef8:	51011900 	tstpl	r1, r0, lsl #18
    1efc:	9e200305 	cdpls	3, 2, cr0, cr0, cr5, {0}
    1f00:	01190000 	tsteq	r9, r0
    1f04:	00330152 	eorseq	r0, r3, r2, asr r1
    1f08:	008e7018 	addeq	r7, lr, r8, lsl r0
    1f0c:	000a9e00 	andeq	r9, sl, r0, lsl #28
    1f10:	00031400 	andeq	r1, r3, r0, lsl #8
    1f14:	50011900 	andpl	r1, r1, r0, lsl #18
    1f18:	9e240305 	cdpls	3, 2, cr0, cr4, cr5, {0}
    1f1c:	01190000 	tsteq	r9, r0
    1f20:	00770251 	rsbseq	r0, r7, r1, asr r2
    1f24:	8e7c1800 	cdphi	8, 7, cr1, cr12, cr0, {0}
    1f28:	0a9e0000 	beq	fe781f30 <__bss_end__+0xfe7779b0>
    1f2c:	03310000 	teqeq	r1, #0, 0
    1f30:	01190000 	tsteq	r9, r0
    1f34:	2c030550 	cfstr32cs	mvfx0, [r3], {80}	; 0x50
    1f38:	1900009e 	stmdbne	r0, {r1, r2, r3, r4, r7}
    1f3c:	7a025101 	bvc	96348 <__bss_end__+0x8bdc8>
    1f40:	8c180000 	ldchi	0, cr0, [r8], {-0}
    1f44:	9200008e 	andls	r0, r0, #142, 0	; 0x8e
    1f48:	5300000a 	movwpl	r0, #10
    1f4c:	19000003 	stmdbne	r0, {r0, r1}
    1f50:	76025001 	strvc	r5, [r2], -r1
    1f54:	51011900 	tstpl	r1, r0, lsl #18
    1f58:	9e1c0305 	cdpls	3, 1, cr0, cr12, cr5, {0}
    1f5c:	01190000 	tsteq	r9, r0
    1f60:	00330152 	eorseq	r0, r3, r2, asr r1
    1f64:	008ea418 	addeq	sl, lr, r8, lsl r4
    1f68:	000a9200 	andeq	r9, sl, r0, lsl #4
    1f6c:	00037500 	andeq	r7, r3, r0, lsl #10
    1f70:	50011900 	andpl	r1, r1, r0, lsl #18
    1f74:	19007602 	stmdbne	r0, {r1, r9, sl, ip, sp, lr}
    1f78:	03055101 	movweq	r5, #20737	; 0x5101
    1f7c:	00009e20 	andeq	r9, r0, r0, lsr #28
    1f80:	01520119 	cmpeq	r2, r9, lsl r1
    1f84:	cc180033 	ldcgt	0, cr0, [r8], {51}	; 0x33
    1f88:	4200008e 	andmi	r0, r0, #142, 0	; 0x8e
    1f8c:	a9000007 	stmdbge	r0, {r0, r1, r2}
    1f90:	19000003 	stmdbne	r0, {r0, r1}
    1f94:	3a015001 	bcc	55fa0 <__bss_end__+0x4ba20>
    1f98:	03510119 	cmpeq	r1, #1073741830	; 0x40000006
    1f9c:	197dd091 	ldmdbne	sp!, {r0, r4, r7, ip, lr, pc}^
    1fa0:	08025201 	stmdaeq	r2, {r0, r9, ip, lr}
    1fa4:	53011980 	movwpl	r1, #6528	; 0x1980
    1fa8:	19007702 	stmdbne	r0, {r1, r8, r9, sl, ip, sp, lr}
    1fac:	02007d02 	andeq	r7, r0, #128	; 0x80
    1fb0:	02190075 	andseq	r0, r9, #117, 0	; 0x75
    1fb4:	7602047d 			; <UNDEFINED> instruction: 0x7602047d
    1fb8:	ec180000 	ldc	0, cr0, [r8], {-0}
    1fbc:	4200008e 	andmi	r0, r0, #142, 0	; 0x8e
    1fc0:	dd000007 	stcle	0, cr0, [r0, #-28]	; 0xffffffe4
    1fc4:	19000003 	stmdbne	r0, {r0, r1}
    1fc8:	3a015001 	bcc	55fd4 <__bss_end__+0x4ba54>
    1fcc:	03510119 	cmpeq	r1, #1073741830	; 0x40000006
    1fd0:	197ed091 	ldmdbne	lr!, {r0, r4, r7, ip, lr, pc}^
    1fd4:	08025201 	stmdaeq	r2, {r0, r9, ip, lr}
    1fd8:	53011980 	movwpl	r1, #6528	; 0x1980
    1fdc:	19007a02 	stmdbne	r0, {r1, r9, fp, ip, sp, lr}
    1fe0:	02007d02 	andeq	r7, r0, #128	; 0x80
    1fe4:	02190075 	andseq	r0, r9, #117, 0	; 0x75
    1fe8:	7602047d 			; <UNDEFINED> instruction: 0x7602047d
    1fec:	f8180000 			; <UNDEFINED> instruction: 0xf8180000
    1ff0:	aa00008e 	bge	2230 <__code_start__-0x5dd0>
    1ff4:	fb00000a 	blx	2026 <__code_start__-0x5fda>
    1ff8:	19000003 	stmdbne	r0, {r0, r1}
    1ffc:	91035001 	tstls	r3, r1
    2000:	01197dd0 			; <UNDEFINED> instruction: 0x01197dd0
    2004:	44030551 	strmi	r0, [r3], #-1361	; 0xfffffaaf
    2008:	0000009d 	muleq	r0, sp, r0
    200c:	008f0c18 	addeq	r0, pc, r8, lsl ip	; <UNPREDICTABLE>
    2010:	000ab600 	andeq	fp, sl, r0, lsl #12
    2014:	00041700 	andeq	r1, r4, r0, lsl #14
    2018:	50011900 	andpl	r1, r1, r0, lsl #18
    201c:	7dd09103 	ldfvcp	f1, [r0, #12]
    2020:	03510119 	cmpeq	r1, #1073741830	; 0x40000006
    2024:	007ed091 			; <UNDEFINED> instruction: 0x007ed091
    2028:	008f3018 	addeq	r3, pc, r8, lsl r0	; <UNPREDICTABLE>
    202c:	000a9e00 	andeq	r9, sl, r0, lsl #28
    2030:	00045000 	andeq	r5, r4, r0
    2034:	50011900 	andpl	r1, r1, r0, lsl #18
    2038:	9b6c0305 	blls	1b02c54 <__bss_end__+0x1af86d4>
    203c:	01190000 	tsteq	r9, r0
    2040:	d0030551 	andle	r0, r3, r1, asr r5
    2044:	1900009d 	stmdbne	r0, {r0, r2, r3, r4, r7}
    2048:	03055201 	movweq	r5, #20993	; 0x5201
    204c:	00009f28 	andeq	r9, r0, r8, lsr #30
    2050:	02530119 	subseq	r0, r3, #1073741830	; 0x40000006
    2054:	02199f08 	andseq	r9, r9, #8, 30
    2058:	0305007d 	movweq	r0, #20605	; 0x507d
    205c:	00009e34 	andeq	r9, r0, r4, lsr lr
    2060:	8f341a00 	svchi	0x00341a00
    2064:	0ac20000 	beq	ff08206c <__bss_end__+0xff077aec>
    2068:	54180000 	ldrpl	r0, [r8], #-0
    206c:	4200008f 	andmi	r0, r0, #143, 0	; 0x8f
    2070:	8d000007 	stchi	0, cr0, [r0, #-28]	; 0xffffffe4
    2074:	19000004 	stmdbne	r0, {r2}
    2078:	40015001 	andmi	r5, r1, r1
    207c:	03510119 	cmpeq	r1, #1073741830	; 0x40000006
    2080:	197dd091 	ldmdbne	sp!, {r0, r4, r7, ip, lr, pc}^
    2084:	08025201 	stmdaeq	r2, {r0, r9, ip, lr}
    2088:	53011980 	movwpl	r1, #6528	; 0x1980
    208c:	19007702 	stmdbne	r0, {r1, r8, r9, sl, ip, sp, lr}
    2090:	02007d02 	andeq	r7, r0, #128	; 0x80
    2094:	02190075 	andseq	r0, r9, #117, 0	; 0x75
    2098:	7602047d 			; <UNDEFINED> instruction: 0x7602047d
    209c:	74180000 	ldrvc	r0, [r8], #-0
    20a0:	4200008f 	andmi	r0, r0, #143, 0	; 0x8f
    20a4:	c1000007 	tstgt	r0, r7
    20a8:	19000004 	stmdbne	r0, {r2}
    20ac:	40015001 	andmi	r5, r1, r1
    20b0:	03510119 	cmpeq	r1, #1073741830	; 0x40000006
    20b4:	197ed091 	ldmdbne	lr!, {r0, r4, r7, ip, lr, pc}^
    20b8:	08025201 	stmdaeq	r2, {r0, r9, ip, lr}
    20bc:	53011980 	movwpl	r1, #6528	; 0x1980
    20c0:	19007a02 	stmdbne	r0, {r1, r9, fp, ip, sp, lr}
    20c4:	02007d02 	andeq	r7, r0, #128	; 0x80
    20c8:	02190075 	andseq	r0, r9, #117, 0	; 0x75
    20cc:	7602047d 			; <UNDEFINED> instruction: 0x7602047d
    20d0:	80180000 	andshi	r0, r8, r0
    20d4:	ce00008f 	cdpgt	0, 0, cr0, cr0, cr15, {4}
    20d8:	dd00000a 	stcle	0, cr0, [r0, #-40]	; 0xffffffd8
    20dc:	19000004 	stmdbne	r0, {r2}
    20e0:	91035001 	tstls	r3, r1
    20e4:	01197dd0 			; <UNDEFINED> instruction: 0x01197dd0
    20e8:	d2910351 	addsle	r0, r1, #1140850689	; 0x44000001
    20ec:	9418007e 	ldrls	r0, [r8], #-126	; 0xffffff82
    20f0:	ce00008f 	cdpgt	0, 0, cr0, cr0, cr15, {4}
    20f4:	f900000a 			; <UNDEFINED> instruction: 0xf900000a
    20f8:	19000004 	stmdbne	r0, {r2}
    20fc:	91035001 	tstls	r3, r1
    2100:	01197dd0 			; <UNDEFINED> instruction: 0x01197dd0
    2104:	d0910351 	addsle	r0, r1, r1, asr r3
    2108:	b418007e 	ldrlt	r0, [r8], #-126	; 0xffffff82
    210c:	9e00008f 	cdpls	0, 0, cr0, cr0, cr15, {4}
    2110:	2f00000a 	svccs	0x0000000a
    2114:	19000005 	stmdbne	r0, {r0, r2}
    2118:	03055001 	movweq	r5, #20481	; 0x5001
    211c:	00009e70 	andeq	r9, r0, r0, ror lr
    2120:	05510119 	ldrbeq	r0, [r1, #-281]	; 0xfffffee7
    2124:	009dd003 	addseq	sp, sp, r3
    2128:	52011900 	andpl	r1, r1, #0, 18
    212c:	9f280305 	svcls	0x00280305
    2130:	01190000 	tsteq	r9, r0
    2134:	b6080253 			; <UNDEFINED> instruction: 0xb6080253
    2138:	007d0219 	rsbseq	r0, sp, r9, lsl r2
    213c:	00007602 	andeq	r7, r0, r2, lsl #12
    2140:	008fb81a 	addeq	fp, pc, sl, lsl r8	; <UNPREDICTABLE>
    2144:	000ac200 	andeq	ip, sl, r0, lsl #4
    2148:	64180000 	ldrvs	r0, [r8], #-0
    214c:	c000008d 	andgt	r0, r0, sp, lsl #1
    2150:	4d000009 	stcmi	0, cr0, [r0, #-36]	; 0xffffffdc
    2154:	19000005 	stmdbne	r0, {r0, r2}
    2158:	77025001 	strvc	r5, [r2, -r1]
    215c:	10180000 	andsne	r0, r8, r0
    2160:	9e00008e 	cdpls	0, 0, cr0, cr0, cr14, {4}
    2164:	8600000a 	strhi	r0, [r0], -sl
    2168:	19000005 	stmdbne	r0, {r0, r2}
    216c:	03055001 	movweq	r5, #20481	; 0x5001
    2170:	00009b6c 	andeq	r9, r0, ip, ror #22
    2174:	05510119 	ldrbeq	r0, [r1, #-281]	; 0xfffffee7
    2178:	009dd003 	addseq	sp, sp, r3
    217c:	52011900 	andpl	r1, r1, #0, 18
    2180:	9f280305 	svcls	0x00280305
    2184:	01190000 	tsteq	r9, r0
    2188:	98080253 	stmdals	r8, {r0, r1, r4, r6, r9}
    218c:	007d0219 	rsbseq	r0, sp, r9, lsl r2
    2190:	9e100305 	cdpls	3, 1, cr0, cr0, cr5, {0}
    2194:	1a000000 	bne	219c <__code_start__-0x5e64>
    2198:	00008e14 	andeq	r8, r0, r4, lsl lr
    219c:	00000ac2 	andeq	r0, r0, r2, asr #21
    21a0:	008fcc18 	addeq	ip, pc, r8, lsl ip	; <UNPREDICTABLE>
    21a4:	000a9e00 	andeq	r9, sl, r0, lsl #28
    21a8:	0005be00 	andeq	fp, r5, r0, lsl #28
    21ac:	50011900 	andpl	r1, r1, r0, lsl #18
    21b0:	9e980305 	cdpls	3, 9, cr0, cr8, cr5, {0}
    21b4:	01190000 	tsteq	r9, r0
    21b8:	d0030551 	andle	r0, r3, r1, asr r5
    21bc:	1900009d 	stmdbne	r0, {r0, r2, r3, r4, r7}
    21c0:	03055201 	movweq	r5, #20993	; 0x5201
    21c4:	00009f28 	andeq	r9, r0, r8, lsr #30
    21c8:	02530119 	subseq	r0, r3, #1073741830	; 0x40000006
    21cc:	1a00be08 	bne	319f4 <__bss_end__+0x27474>
    21d0:	00008fd0 	ldrdeq	r8, [r0], -r0
    21d4:	00000ac2 	andeq	r0, r0, r2, asr #21
    21d8:	008ffc18 	addeq	pc, pc, r8, lsl ip	; <UNPREDICTABLE>
    21dc:	00074200 	andeq	r4, r7, r0, lsl #4
    21e0:	0005f400 	andeq	pc, r5, r0, lsl #8
    21e4:	50011900 	andpl	r1, r1, r0, lsl #18
    21e8:	01193a01 	tsteq	r9, r1, lsl #20
    21ec:	d0910351 	addsle	r0, r1, r1, asr r3
    21f0:	5201197d 	andpl	r1, r1, #2048000	; 0x1f4000
    21f4:	19800802 	stmibne	r0, {r1, fp}
    21f8:	02007d02 	andeq	r7, r0, #128	; 0x80
    21fc:	02190075 	andseq	r0, r9, #117, 0	; 0x75
    2200:	3101047d 	tstcc	r1, sp, ror r4
    2204:	90341800 	eorsls	r1, r4, r0, lsl #16
    2208:	07420000 	strbeq	r0, [r2, -r0]
    220c:	06210000 	strteq	r0, [r1], -r0
    2210:	01190000 	tsteq	r9, r0
    2214:	193a0150 	ldmdbne	sl!, {r4, r6, r8}
    2218:	91035101 	tstls	r3, r1, lsl #2
    221c:	01197dd0 			; <UNDEFINED> instruction: 0x01197dd0
    2220:	80080252 	andhi	r0, r8, r2, asr r2
    2224:	007d0219 	rsbseq	r0, sp, r9, lsl r2
    2228:	19007502 	stmdbne	r0, {r1, r8, sl, ip, sp, lr}
    222c:	01047d02 	tsteq	r4, r2, lsl #26
    2230:	68180030 	ldmdavs	r8, {r4, r5}
    2234:	42000090 	andmi	r0, r0, #144, 0	; 0x90
    2238:	4e000007 	cdpmi	0, 0, cr0, cr0, cr7, {0}
    223c:	19000006 	stmdbne	r0, {r1, r2}
    2240:	40015001 	andmi	r5, r1, r1
    2244:	03510119 	cmpeq	r1, #1073741830	; 0x40000006
    2248:	197dd091 	ldmdbne	sp!, {r0, r4, r7, ip, lr, pc}^
    224c:	08025201 	stmdaeq	r2, {r0, r9, ip, lr}
    2250:	7d021980 	vstrvc.16	s2, [r2, #-256]	; 0xffffff00	; <UNPREDICTABLE>
    2254:	00750200 	rsbseq	r0, r5, r0, lsl #4
    2258:	047d0219 	ldrbteq	r0, [sp], #-537	; 0xfffffde7
    225c:	18003001 	stmdane	r0, {r0, ip, sp}
    2260:	0000909c 	muleq	r0, ip, r0
    2264:	00000742 	andeq	r0, r0, r2, asr #14
    2268:	0000067b 	andeq	r0, r0, fp, ror r6
    226c:	01500119 	cmpeq	r0, r9, lsl r1
    2270:	51011932 	tstpl	r1, r2, lsr r9
    2274:	7dd09103 	ldfvcp	f1, [r0, #12]
    2278:	02520119 	subseq	r0, r2, #1073741830	; 0x40000006
    227c:	02198008 	andseq	r8, r9, #8, 0
    2280:	7502007d 	strvc	r0, [r2, #-125]	; 0xffffff83
    2284:	7d021900 	vstrvc.16	s2, [r2, #-0]	; <UNPREDICTABLE>
    2288:	00300104 	eorseq	r0, r0, r4, lsl #2
    228c:	0090e418 	addseq	lr, r0, r8, lsl r4
    2290:	00074200 	andeq	r4, r7, r0, lsl #4
    2294:	0006a800 	andeq	sl, r6, r0, lsl #16
    2298:	50011900 	andpl	r1, r1, r0, lsl #18
    229c:	01193801 	tsteq	r9, r1, lsl #16
    22a0:	d0910351 	addsle	r0, r1, r1, asr r3
    22a4:	5201197d 	andpl	r1, r1, #2048000	; 0x1f4000
    22a8:	19800802 	stmibne	r0, {r1, fp}
    22ac:	02007d02 	andeq	r7, r0, #128	; 0x80
    22b0:	02190075 	andseq	r0, r9, #117, 0	; 0x75
    22b4:	3001047d 	andcc	r0, r1, sp, ror r4
    22b8:	91041800 	tstls	r4, r0, lsl #16
    22bc:	0a9e0000 	beq	fe7822c4 <__bss_end__+0xfe777d44>
    22c0:	06cb0000 	strbeq	r0, [fp], r0
    22c4:	01190000 	tsteq	r9, r0
    22c8:	c0030550 	andgt	r0, r3, r0, asr r5
    22cc:	1900009e 	stmdbne	r0, {r1, r2, r3, r4, r7}
    22d0:	7a025101 	bvc	966dc <__bss_end__+0x8c15c>
    22d4:	52011900 	andpl	r1, r1, #0, 18
    22d8:	00007a02 	andeq	r7, r0, r2, lsl #20
    22dc:	0091141b 	addseq	r1, r1, fp, lsl r4
    22e0:	0006dd00 	andeq	sp, r6, r0, lsl #26
    22e4:	50011900 	andpl	r1, r1, r0, lsl #18
    22e8:	7dc89104 	stfvcp	f1, [r8, #16]
    22ec:	28180006 	ldmdacs	r8, {r1, r2}
    22f0:	9e000091 	mcrls	0, 0, r0, cr0, cr1, {4}
    22f4:	0c00000a 	stceq	0, cr0, [r0], {10}
    22f8:	19000007 	stmdbne	r0, {r0, r1, r2}
    22fc:	03055001 	movweq	r5, #20481	; 0x5001
    2300:	00009ef0 	strdeq	r9, [r0], -r0
    2304:	05510119 	ldrbeq	r0, [r1, #-281]	; 0xfffffee7
    2308:	009dd003 	addseq	sp, sp, r3
    230c:	52011900 	andpl	r1, r1, #0, 18
    2310:	9f280305 	svcls	0x00280305
    2314:	01190000 	tsteq	r9, r0
    2318:	e2080253 	and	r0, r8, #805306373	; 0x30000005
    231c:	912c1a00 			; <UNDEFINED> instruction: 0x912c1a00
    2320:	0ac20000 	beq	ff082328 <__bss_end__+0xff077da8>
    2324:	00000000 	andeq	r0, r0, r0
    2328:	00b90408 	adcseq	r0, r9, r8, lsl #8
    232c:	c01c0000 	andsgt	r0, ip, r0
    2330:	2d000000 	stccs	0, cr0, [r0, #-0]
    2334:	1d000007 	stcne	0, cr0, [r0, #-28]	; 0xffffffe4
    2338:	0000002c 	andeq	r0, r0, ip, lsr #32
    233c:	1d090009 	stcne	0, cr0, [r9, #-36]	; 0xffffffdc
    2340:	1c000007 	stcne	0, cr0, [r0], {7}
    2344:	000000b9 	strheq	r0, [r0], -r9
    2348:	00000742 	andeq	r0, r0, r2, asr #14
    234c:	00002c1d 	andeq	r2, r0, sp, lsl ip
    2350:	1e007f00 	cdpne	15, 0, cr7, cr0, cr0, {0}
    2354:	000006c2 	andeq	r0, r0, r2, asr #13
    2358:	17014901 	strne	r4, [r1, -r1, lsl #18]
    235c:	cc000007 	stcgt	0, cr0, [r0], {7}
    2360:	b400008a 	strlt	r0, [r0], #-138	; 0xffffff76
    2364:	01000001 	tsteq	r0, r1
    2368:	0008ab9c 	muleq	r8, ip, fp
    236c:	04a01f00 	strteq	r1, [r0], #3840	; 0xf00
    2370:	49010000 	stmdbmi	r1, {}	; <UNPREDICTABLE>
    2374:	00002c0f 	andeq	r2, r0, pc, lsl #24
    2378:	000ccf00 	andeq	ip, ip, r0, lsl #30
    237c:	000cc900 	andeq	ip, ip, r0, lsl #18
    2380:	73640e00 	cmnvc	r4, #0, 28
    2384:	49010074 	stmdbmi	r1, {r2, r4, r5, r6}
    2388:	0007171b 	andeq	r1, r7, fp, lsl r7
    238c:	000d0d00 	andeq	r0, sp, r0, lsl #26
    2390:	000cfd00 	andeq	pc, ip, r0, lsl #26
    2394:	006e0e00 	rsbeq	r0, lr, r0, lsl #28
    2398:	25244901 	strcs	r4, [r4, #-2305]!	; 0xfffff6ff
    239c:	71000000 	mrsvc	r0, (UNDEF: 0)
    23a0:	6d00000d 	stcvs	0, cr0, [r0, #-52]	; 0xffffffcc
    23a4:	0e00000d 	cdpeq	0, 0, cr0, cr0, cr13, {0}
    23a8:	006c6176 	rsbeq	r6, ip, r6, ror r1
    23ac:	252b4901 	strcs	r4, [fp, #-2305]!	; 0xfffff6ff
    23b0:	9b000000 	blls	23b8 <__code_start__-0x5c48>
    23b4:	8f00000d 	svchi	0x0000000d
    23b8:	1f00000d 	svcne	0x0000000d
    23bc:	00000672 	andeq	r0, r0, r2, ror r6
    23c0:	25344901 	ldrcs	r4, [r4, #-2305]!	; 0xfffff6ff
    23c4:	f1000000 	cps	#0
    23c8:	eb00000d 	bl	2404 <__code_start__-0x5bfc>
    23cc:	0f00000d 	svceq	0x0000000d
    23d0:	000006ff 	strdeq	r0, [r0], -pc	; <UNPREDICTABLE>
    23d4:	253f4901 	ldrcs	r4, [pc, #-2305]!	; 1adb <__code_start__-0x6525>
    23d8:	02000000 	andeq	r0, r0, #0, 0
    23dc:	62140491 	andsvs	r0, r4, #-1862270976	; 0x91000000
    23e0:	01006675 	tsteq	r0, r5, ror r6
    23e4:	08ab074e 	stmiaeq	fp!, {r1, r2, r3, r6, r8, r9, sl}
    23e8:	91030000 	mrsls	r0, (UNDEF: 3)
    23ec:	70107fa8 	andsvc	r7, r0, r8, lsr #31
    23f0:	114e0100 	mrsne	r0, (UNDEF: 94)
    23f4:	00000717 	andeq	r0, r0, r7, lsl r7
    23f8:	00000e3b 	andeq	r0, r0, fp, lsr lr
    23fc:	00000e1b 	andeq	r0, r0, fp, lsl lr
    2400:	01007510 	tsteq	r0, r0, lsl r5
    2404:	002c0b4f 	eoreq	r0, ip, pc, asr #22
    2408:	0f210000 	svceq	0x00210000
    240c:	0f0d0000 	svceq	0x000d0000
    2410:	6f120000 	svcvs	0x00120000
    2414:	cb000000 	blgt	241c <__code_start__-0x5be4>
    2418:	05000008 	streq	r0, [r0, #-8]
    241c:	009f1003 	addseq	r1, pc, r3
    2420:	8b381600 	blhi	e07c28 <__bss_end__+0xdfd6a8>
    2424:	00780000 	rsbseq	r0, r8, r0
    2428:	08320000 	ldmdaeq	r2!, {}	; <UNPREDICTABLE>
    242c:	af110000 	svcge	0x00110000
    2430:	01000006 	tsteq	r0, r6
    2434:	002c0d54 	eoreq	r0, ip, r4, asr sp
    2438:	0fa20000 	svceq	0x00a20000
    243c:	0f9a0000 	svceq	0x009a0000
    2440:	18000000 	stmdane	r0, {}	; <UNPREDICTABLE>
    2444:	00008bf0 	strdeq	r8, [r0], -r0
    2448:	0000095d 	andeq	r0, r0, sp, asr r9
    244c:	00000847 	andeq	r0, r0, r7, asr #16
    2450:	03510119 	cmpeq	r1, #1073741830	; 0x40000006
    2454:	007fa091 			; <UNDEFINED> instruction: 0x007fa091
    2458:	008c0418 	addeq	r0, ip, r8, lsl r4
    245c:	0008d000 	andeq	sp, r8, r0
    2460:	00086800 	andeq	r6, r8, r0, lsl #16
    2464:	50011900 	andpl	r1, r1, r0, lsl #18
    2468:	19007502 	stmdbne	r0, {r1, r8, sl, ip, sp, lr}
    246c:	74025101 	strvc	r5, [r2], #-257	; 0xfffffeff
    2470:	53011900 	movwpl	r1, #6400	; 0x1900
    2474:	7fa09103 	svcvc	0x00a09103
    2478:	8c5c1800 	mrrchi	8, 0, r1, ip, cr0
    247c:	0a9e0000 	beq	fe782484 <__bss_end__+0xfe777f04>
    2480:	08a10000 	stmiaeq	r1!, {}	; <UNPREDICTABLE>
    2484:	01190000 	tsteq	r9, r0
    2488:	6c030550 	cfstr32vs	mvfx0, [r3], {80}	; 0x50
    248c:	1900009b 	stmdbne	r0, {r0, r1, r3, r4, r7}
    2490:	03055101 	movweq	r5, #20737	; 0x5101
    2494:	00009dd0 	ldrdeq	r9, [r0], -r0
    2498:	05520119 	ldrbeq	r0, [r2, #-281]	; 0xfffffee7
    249c:	009f1003 	addseq	r1, pc, r3
    24a0:	53011900 	movwpl	r1, #6400	; 0x1900
    24a4:	19790802 	ldmdbne	r9!, {r1, fp}^
    24a8:	05007d02 	streq	r7, [r0, #-3330]	; 0xfffff2fe
    24ac:	009d4403 	addseq	r4, sp, r3, lsl #8
    24b0:	601a0000 	andsvs	r0, sl, r0
    24b4:	c200008c 	andgt	r0, r0, #140, 0	; 0x8c
    24b8:	0000000a 	andeq	r0, r0, sl
    24bc:	0000b91c 	andeq	fp, r0, ip, lsl r9
    24c0:	0008bb00 	andeq	fp, r8, r0, lsl #22
    24c4:	002c1d00 	eoreq	r1, ip, r0, lsl #26
    24c8:	003f0000 	eorseq	r0, pc, r0
    24cc:	0000c01c 	andeq	ip, r0, ip, lsl r0
    24d0:	0008cb00 	andeq	ip, r8, r0, lsl #22
    24d4:	002c1d00 	eoreq	r1, ip, r0, lsl #26
    24d8:	00040000 	andeq	r0, r4, r0
    24dc:	0008bb09 	andeq	fp, r8, r9, lsl #22
    24e0:	06cf1e00 	strbeq	r1, [pc], r0, lsl #28
    24e4:	38010000 	stmdacc	r1, {}	; <UNPREDICTABLE>
    24e8:	0007170e 	andeq	r1, r7, lr, lsl #14
    24ec:	008a9400 	addeq	r9, sl, r0, lsl #8
    24f0:	00003800 	andeq	r3, r0, r0, lsl #16
    24f4:	5d9c0100 	ldfpls	f0, [ip]
    24f8:	0e000009 	cdpeq	0, 0, cr0, cr0, cr9, {0}
    24fc:	00747364 	rsbseq	r7, r4, r4, ror #6
    2500:	171c3801 	ldrne	r3, [ip, -r1, lsl #16]
    2504:	e3000007 	movw	r0, #7
    2508:	d900000f 	stmdble	r0, {r0, r1, r2, r3}
    250c:	0e00000f 	cdpeq	0, 0, cr0, cr0, cr15, {0}
    2510:	3801006e 	stmdacc	r1, {r1, r2, r3, r5, r6}
    2514:	00002525 	andeq	r2, r0, r5, lsr #10
    2518:	00102a00 	andseq	r2, r0, r0, lsl #20
    251c:	00102600 	andseq	r2, r0, r0, lsl #12
    2520:	00700e00 	rsbseq	r0, r0, r0, lsl #28
    2524:	172e3801 	strne	r3, [lr, -r1, lsl #16]!
    2528:	53000007 	movwpl	r0, #7
    252c:	4b000010 	blmi	2574 <__code_start__-0x5a8c>
    2530:	1f000010 	svcne	0x00000010
    2534:	0000031f 	andeq	r0, r0, pc, lsl r3
    2538:	17373801 	ldrne	r3, [r7, -r1, lsl #16]!
    253c:	8d000007 	stchi	0, cr0, [r0, #-28]	; 0xffffffe4
    2540:	89000010 	stmdbhi	r0, {r4}
    2544:	10000010 	andne	r0, r0, r0, lsl r0
    2548:	006e656c 	rsbeq	r6, lr, ip, ror #10
    254c:	25063a01 	strcs	r3, [r6, #-2561]	; 0xfffff5ff
    2550:	b3000000 	movwlt	r0, #0
    2554:	ab000010 	blge	259c <__code_start__-0x5a64>
    2558:	10000010 	andne	r0, r0, r0, lsl r0
    255c:	3e010073 	mcrcc	0, 0, r0, cr1, cr3, {3}
    2560:	00071708 	andeq	r1, r7, r8, lsl #14
    2564:	00110100 	andseq	r0, r1, r0, lsl #2
    2568:	0010ff00 	andseq	pc, r0, r0, lsl #30
    256c:	70200000 	eorvc	r0, r0, r0
    2570:	01006461 	tsteq	r0, r1, ror #8
    2574:	07170e2e 	ldreq	r0, [r7, -lr, lsr #28]
    2578:	8a700000 	bhi	1c02580 <__bss_end__+0x1bf8000>
    257c:	00240000 	eoreq	r0, r4, r0
    2580:	9c010000 	stcls	0, cr0, [r1], {-0}
    2584:	000009c0 	andeq	r0, r0, r0, asr #19
    2588:	0100700e 	tsteq	r0, lr
    258c:	0717182e 	ldreq	r1, [r7, -lr, lsr #16]
    2590:	111a0000 	tstne	sl, r0
    2594:	11140000 	tstne	r4, r0
    2598:	a01f0000 	andsge	r0, pc, r0
    259c:	01000004 	tsteq	r0, r4
    25a0:	0717222e 	ldreq	r2, [r7, -lr, lsr #4]
    25a4:	11490000 	mrsne	r0, (UNDEF: 73)
    25a8:	11450000 	mrsne	r0, (UNDEF: 69)
    25ac:	720f0000 	andvc	r0, pc, #0, 0
    25b0:	01000006 	tsteq	r0, r6
    25b4:	00252c2e 	eoreq	r2, r5, lr, lsr #24
    25b8:	52010000 	andpl	r0, r1, #0, 0
    25bc:	6e656c10 	mcrvs	12, 3, r6, cr5, cr0, {0}
    25c0:	062f0100 	strteq	r0, [pc], -r0, lsl #2
    25c4:	00000025 	andeq	r0, r0, r5, lsr #32
    25c8:	0000116c 	andeq	r1, r0, ip, ror #2
    25cc:	0000116a 	andeq	r1, r0, sl, ror #2
    25d0:	063f1e00 	ldrteq	r1, [pc], -r0, lsl #28
    25d4:	27010000 	strcs	r0, [r1, -r0]
    25d8:	0000250c 	andeq	r2, r0, ip, lsl #10
    25dc:	008a5c00 	addeq	r5, sl, r0, lsl #24
    25e0:	00001400 	andeq	r1, r0, r0, lsl #8
    25e4:	ed9c0100 	ldfs	f0, [ip]
    25e8:	0e000009 	cdpeq	0, 0, cr0, cr0, cr9, {0}
    25ec:	27010063 	strcs	r0, [r1, -r3, rrx]
    25f0:	00002518 	andeq	r2, r0, r8, lsl r5
    25f4:	00118500 	andseq	r8, r1, r0, lsl #10
    25f8:	00117f00 	andseq	r7, r1, r0, lsl #30
    25fc:	8f210000 	svchi	0x00210000
    2600:	01000006 	tsteq	r0, r6
    2604:	8c80061f 	stchi	6, cr0, [r0], {31}
    2608:	00640000 	rsbeq	r0, r4, r0
    260c:	9c010000 	stcls	0, cr0, [r1], {-0}
    2610:	00000a7d 	andeq	r0, r0, sp, ror sl
    2614:	0006781f 	andeq	r7, r6, pc, lsl r8
    2618:	1b1f0100 	blne	7c2a20 <__bss_end__+0x7b84a0>
    261c:	0000009e 	muleq	r0, lr, r0
    2620:	000011b7 			; <UNDEFINED> instruction: 0x000011b7
    2624:	000011b3 			; <UNDEFINED> instruction: 0x000011b3
    2628:	0006c71f 	andeq	ip, r6, pc, lsl r7
    262c:	301f0100 	andscc	r0, pc, r0, lsl #2
    2630:	000000d1 	ldrdeq	r0, [r0], -r1
    2634:	000011dc 	ldrdeq	r1, [r0], -ip
    2638:	000011d8 	ldrdeq	r1, [r0], -r8
    263c:	00006f12 	andeq	r6, r0, r2, lsl pc
    2640:	000a8d00 	andeq	r8, sl, r0, lsl #26
    2644:	18030500 	stmdane	r3, {r8, sl}
    2648:	1800009f 	stmdane	r0, {r0, r1, r2, r3, r4, r7}
    264c:	00008cc8 	andeq	r8, r0, r8, asr #25
    2650:	00000a9e 	muleq	r0, lr, sl
    2654:	00000a73 	andeq	r0, r0, r3, ror sl
    2658:	05500119 	ldrbeq	r0, [r0, #-281]	; 0xfffffee7
    265c:	009b6c03 	addseq	r6, fp, r3, lsl #24
    2660:	51011900 	tstpl	r1, r0, lsl #18
    2664:	9dd00305 	ldclls	3, cr0, [r0, #20]
    2668:	01190000 	tsteq	r9, r0
    266c:	18030552 	stmdane	r3, {r1, r4, r6, r8, sl}
    2670:	1900009f 	stmdbne	r0, {r0, r1, r2, r3, r4, r7}
    2674:	08025301 	stmdaeq	r2, {r0, r8, r9, ip, lr}
    2678:	7d021920 	vstrvc.16	s2, [r2, #-64]	; 0xffffffc0	; <UNPREDICTABLE>
    267c:	08030500 	stmdaeq	r3, {r8, sl}
    2680:	0000009e 	muleq	r0, lr, r0
    2684:	008ccc1a 	addeq	ip, ip, sl, lsl ip
    2688:	000ac200 	andeq	ip, sl, r0, lsl #4
    268c:	c01c0000 	andsgt	r0, ip, r0
    2690:	8d000000 	stchi	0, cr0, [r0, #-0]
    2694:	1d00000a 	stcne	0, cr0, [r0, #-40]	; 0xffffffd8
    2698:	0000002c 	andeq	r0, r0, ip, lsr #32
    269c:	7d09000e 	stcvc	0, cr0, [r9, #-56]	; 0xffffffc8
    26a0:	2200000a 	andcs	r0, r0, #10, 0
    26a4:	000006f7 	strdeq	r0, [r0], -r7
    26a8:	000006f7 	strdeq	r0, [r0], -r7
    26ac:	2205f003 	andcs	pc, r5, #3, 0
    26b0:	000005ee 	andeq	r0, r0, lr, ror #11
    26b4:	000005ee 	andeq	r0, r0, lr, ror #11
    26b8:	22062803 	andcs	r2, r6, #196608	; 0x30000
    26bc:	000006de 	ldrdeq	r0, [r0], -lr
    26c0:	000006de 	ldrdeq	r0, [r0], -lr
    26c4:	2205ef03 	andcs	lr, r5, #3, 30
    26c8:	000006a8 	andeq	r0, r0, r8, lsr #13
    26cc:	000006a8 	andeq	r0, r0, r8, lsr #13
    26d0:	2207f203 	andcs	pc, r7, #805306368	; 0x30000000
    26d4:	00000038 	andeq	r0, r0, r8, lsr r0
    26d8:	00000038 	andeq	r0, r0, r8, lsr r0
    26dc:	22066e03 	andcs	r6, r6, #3, 28	; 0x30
    26e0:	000006d7 	ldrdeq	r0, [r0], -r7
    26e4:	000006d7 	ldrdeq	r0, [r0], -r7
    26e8:	0007f303 	andeq	pc, r7, r3, lsl #6
    26ec:	0000012f 	andeq	r0, r0, pc, lsr #2
    26f0:	0cab0004 	stceq	0, cr0, [fp], #16
    26f4:	01040000 	mrseq	r0, (UNDEF: 4)
    26f8:	000004bd 			; <UNDEFINED> instruction: 0x000004bd
    26fc:	00071c0c 	andeq	r1, r7, ip, lsl #24
    2700:	00059e00 	andeq	r9, r5, r0, lsl #28
    2704:	00919c00 	addseq	r9, r1, r0, lsl #24
    2708:	00002c00 	andeq	r2, r0, r0, lsl #24
    270c:	00147900 	andseq	r7, r4, r0, lsl #18
    2710:	05040200 	streq	r0, [r4, #-512]	; 0xfffffe00
    2714:	00746e69 	rsbseq	r6, r4, r9, ror #28
    2718:	9a070403 	bls	1c372c <__bss_end__+0x1b91ac>
    271c:	03000000 	movweq	r0, #0
    2720:	002c0601 	eoreq	r0, ip, r1, lsl #12
    2724:	02030000 	andeq	r0, r3, #0, 0
    2728:	00012005 	andeq	r2, r1, r5
    272c:	05040300 	streq	r0, [r4, #-768]	; 0xfffffd00
    2730:	00000104 	andeq	r0, r0, r4, lsl #2
    2734:	ff050803 			; <UNDEFINED> instruction: 0xff050803
    2738:	03000000 	movweq	r0, #0
    273c:	002a0801 	eoreq	r0, sl, r1, lsl #16
    2740:	02030000 	andeq	r0, r3, #0, 0
    2744:	00004507 	andeq	r4, r0, r7, lsl #10
    2748:	07040300 	streq	r0, [r4, -r0, lsl #6]
    274c:	00000095 	muleq	r0, r5, r0
    2750:	90070803 	andls	r0, r7, r3, lsl #16
    2754:	04000000 	streq	r0, [r0], #-0
    2758:	00000025 	andeq	r0, r0, r5, lsr #32
    275c:	0000007a 	andeq	r0, r0, sl, ror r0
    2760:	00002505 	andeq	r2, r0, r5, lsl #10
    2764:	0d060000 	stceq	0, cr0, [r6, #-0]
    2768:	02000001 	andeq	r0, r0, #1, 0
    276c:	00860e1c 	addeq	r0, r6, ip, lsl lr
    2770:	04070000 	streq	r0, [r7], #-0
    2774:	0000006b 	andeq	r0, r0, fp, rrx
    2778:	00002504 	andeq	r2, r0, r4, lsl #10
    277c:	00009b00 	andeq	r9, r0, r0, lsl #22
    2780:	009b0500 	addseq	r0, fp, r0, lsl #10
    2784:	07000000 	streq	r0, [r0, -r0]
    2788:	0000a804 	andeq	sl, r0, r4, lsl #16
    278c:	08010300 	stmdaeq	r1, {r8, r9}
    2790:	00000033 	andeq	r0, r0, r3, lsr r0
    2794:	0000a108 	andeq	sl, r0, r8, lsl #2
    2798:	062c0600 	strteq	r0, [ip], -r0, lsl #12
    279c:	21020000 	mrscs	r0, (UNDEF: 2)
    27a0:	0000b90e 	andeq	fp, r0, lr, lsl #18
    27a4:	8c040700 	stchi	7, cr0, [r4], {-0}
    27a8:	09000000 	stmdbeq	r0, {}	; <UNPREDICTABLE>
    27ac:	00000038 	andeq	r0, r0, r8, lsr r0
    27b0:	9c060401 	cfstrsls	mvf0, [r6], {1}
    27b4:	2c000091 	stccs	0, cr0, [r0], {145}	; 0x91
    27b8:	01000000 	mrseq	r0, (UNDEF: 0)
    27bc:	00010e9c 	muleq	r1, ip, lr
    27c0:	91b00a00 	lslsls	r0, r0, #20
    27c4:	00e80000 	rsceq	r0, r8, r0
    27c8:	010b0000 	mrseq	r0, (UNDEF: 11)
    27cc:	34030550 	strcc	r0, [r3], #-1360	; 0xfffffab0
    27d0:	0000009f 	muleq	r0, pc, r0	; <UNPREDICTABLE>
    27d4:	0091b40c 	addseq	fp, r1, ip, lsl #8
    27d8:	00010e00 	andeq	r0, r1, r0, lsl #28
    27dc:	91bc0d00 			; <UNDEFINED> instruction: 0x91bc0d00
    27e0:	011a0000 	tsteq	sl, r0
    27e4:	01040000 	mrseq	r0, (UNDEF: 4)
    27e8:	010b0000 	mrseq	r0, (UNDEF: 11)
    27ec:	003a0150 	eorseq	r0, sl, r0, asr r1
    27f0:	0091c00c 	addseq	ip, r1, ip
    27f4:	00012600 	andeq	r2, r1, r0, lsl #12
    27f8:	370e0000 	strcc	r0, [lr, -r0]
    27fc:	37000007 	strcc	r0, [r0, -r7]
    2800:	02000007 	andeq	r0, r0, #7, 0
    2804:	130e064d 	movwne	r0, #58957	; 0xe64d
    2808:	13000007 	movwne	r0, #7
    280c:	02000007 	andeq	r0, r0, #7, 0
    2810:	080e0658 	stmdaeq	lr, {r3, r4, r6, r9, sl}
    2814:	08000007 	stmdaeq	r0, {r0, r1, r2}
    2818:	02000007 	andeq	r0, r0, #7, 0
    281c:	8900066b 	stmdbhi	r0, {r0, r1, r3, r5, r6, r9, sl}
    2820:	04000001 	streq	r0, [r0], #-1
    2824:	000d6b00 	andeq	r6, sp, r0, lsl #22
    2828:	bd010400 	cfstrslt	mvf0, [r1, #-0]
    282c:	0c000004 	stceq	0, cr0, [r0], {4}
    2830:	0000076d 	andeq	r0, r0, sp, ror #14
    2834:	0000059e 	muleq	r0, lr, r5
    2838:	000091c8 	andeq	r9, r0, r8, asr #3
    283c:	0000003c 	andeq	r0, r0, ip, lsr r0
    2840:	00001522 	andeq	r1, r0, r2, lsr #10
    2844:	69050402 	stmdbvs	r5, {r1, sl}
    2848:	0300746e 	movweq	r7, #1134	; 0x46e
    284c:	009a0704 	addseq	r0, sl, r4, lsl #14
    2850:	01030000 	mrseq	r0, (UNDEF: 3)
    2854:	00002c06 	andeq	r2, r0, r6, lsl #24
    2858:	05020300 	streq	r0, [r2, #-768]	; 0xfffffd00
    285c:	00000120 	andeq	r0, r0, r0, lsr #2
    2860:	04050403 	streq	r0, [r5], #-1027	; 0xfffffbfd
    2864:	03000001 	movweq	r0, #1
    2868:	00ff0508 	rscseq	r0, pc, r8, lsl #10
    286c:	01030000 	mrseq	r0, (UNDEF: 3)
    2870:	00002a08 	andeq	r2, r0, r8, lsl #20
    2874:	07020300 	streq	r0, [r2, -r0, lsl #6]
    2878:	00000045 	andeq	r0, r0, r5, asr #32
    287c:	95070403 	strls	r0, [r7, #-1027]	; 0xfffffbfd
    2880:	03000000 	movweq	r0, #0
    2884:	00900708 	addseq	r0, r0, r8, lsl #14
    2888:	25040000 	strcs	r0, [r4, #-0]
    288c:	7a000000 	bvc	2894 <__code_start__-0x576c>
    2890:	05000000 	streq	r0, [r0, #-0]
    2894:	00000025 	andeq	r0, r0, r5, lsr #32
    2898:	010d0600 	tsteq	sp, r0, lsl #12
    289c:	1c020000 	stcne	0, cr0, [r2], {-0}
    28a0:	0000860e 	andeq	r8, r0, lr, lsl #12
    28a4:	6b040700 	blvs	1044ac <__bss_end__+0xf9f2c>
    28a8:	04000000 	streq	r0, [r0], #-0
    28ac:	00000025 	andeq	r0, r0, r5, lsr #32
    28b0:	0000009b 	muleq	r0, fp, r0
    28b4:	00009b05 	andeq	r9, r0, r5, lsl #22
    28b8:	04070000 	streq	r0, [r7], #-0
    28bc:	000000a8 	andeq	r0, r0, r8, lsr #1
    28c0:	33080103 	movwcc	r0, #33027	; 0x8103
    28c4:	08000000 	stmdaeq	r0, {}	; <UNPREDICTABLE>
    28c8:	000000a1 	andeq	r0, r0, r1, lsr #1
    28cc:	00062c06 	andeq	r2, r6, r6, lsl #24
    28d0:	0e210200 	cdpeq	2, 2, cr0, cr1, cr0, {0}
    28d4:	000000b9 	strheq	r0, [r0], -r9
    28d8:	008c0407 	addeq	r0, ip, r7, lsl #8
    28dc:	45090000 	strmi	r0, [r9, #-0]
    28e0:	01000007 	tsteq	r0, r7
    28e4:	91c80604 	bicls	r0, r8, r4, lsl #12
    28e8:	003c0000 	eorseq	r0, ip, r0
    28ec:	9c010000 	stcls	0, cr0, [r1], {-0}
    28f0:	00000154 	andeq	r0, r0, r4, asr r1
    28f4:	00033d06 	andeq	r3, r3, r6, lsl #26
    28f8:	10050100 	andne	r0, r5, r0, lsl #2
    28fc:	00000025 	andeq	r0, r0, r5, lsr #32
    2900:	00040906 	andeq	r0, r4, r6, lsl #18
    2904:	1f050100 	svcne	0x00050100
    2908:	00000025 	andeq	r0, r0, r5, lsr #32
    290c:	00001d0a 	andeq	r1, r0, sl, lsl #26
    2910:	07060100 	streq	r0, [r6, -r0, lsl #2]
    2914:	7373620b 	cmnvc	r3, #-1342177280	; 0xb0000000
    2918:	0a0a0100 	beq	282d20 <__bss_end__+0x2787a0>
    291c:	00000154 	andeq	r0, r0, r4, asr r1
    2920:	00001203 	andeq	r1, r0, r3, lsl #4
    2924:	000011fd 	strdeq	r1, [r0], -sp
    2928:	00074d0c 	andeq	r4, r7, ip, lsl #26
    292c:	0a0b0100 	beq	2c2d34 <__bss_end__+0x2b87b4>
    2930:	00000154 	andeq	r0, r0, r4, asr r1
    2934:	0091ec0d 	addseq	lr, r1, sp, lsl #24
    2938:	00000800 	andeq	r0, r0, r0, lsl #16
    293c:	00012f00 	andeq	r2, r1, r0, lsl #30
    2940:	6e690e00 	cdpvs	14, 6, cr0, cr9, cr0, {0}
    2944:	05140100 	ldreq	r0, [r4, #-256]	; 0xffffff00
    2948:	0000002c 	andeq	r0, r0, ip, lsr #32
    294c:	d00f0001 	andle	r0, pc, r1
    2950:	5a000091 	bpl	2b9c <__code_start__-0x5464>
    2954:	0f000001 	svceq	0x00000001
    2958:	000091ec 	andeq	r9, r0, ip, ror #3
    295c:	00000167 	andeq	r0, r0, r7, ror #2
    2960:	0091f80f 	addseq	pc, r1, pc, lsl #16
    2964:	00017300 	andeq	r7, r1, r0, lsl #6
    2968:	91fc0f00 	mvnsls	r0, r0, lsl #30
    296c:	01800000 	orreq	r0, r0, r0
    2970:	07000000 	streq	r0, [r0, -r0]
    2974:	00002504 	andeq	r2, r0, r4, lsl #10
    2978:	075f1000 	ldrbeq	r1, [pc, -r0]
    297c:	075f0000 	ldrbeq	r0, [pc, -r0]
    2980:	36020000 	strcc	r0, [r2], -r0
    2984:	55110601 	ldrpl	r0, [r1, #-1537]	; 0xfffff9ff
    2988:	55000007 	strpl	r0, [r0, #-7]
    298c:	02000007 	andeq	r0, r0, #7, 0
    2990:	1d10063b 	ldcne	6, cr0, [r0, #-236]	; 0xffffff14
    2994:	1d000000 	stcne	0, cr0, [r0, #-0]
    2998:	02000000 	andeq	r0, r0, #0, 0
    299c:	1106010a 	tstne	r6, sl, lsl #2
    29a0:	00000038 	andeq	r0, r0, r8, lsr r0
    29a4:	00000038 	andeq	r0, r0, r8, lsr r0
    29a8:	00066e02 	andeq	r6, r6, r2, lsl #28
    29ac:	000000ce 	andeq	r0, r0, lr, asr #1
    29b0:	0e670004 	cdpeq	0, 6, cr0, cr7, cr4, {0}
    29b4:	01040000 	mrseq	r0, (UNDEF: 4)
    29b8:	000004bd 			; <UNDEFINED> instruction: 0x000004bd
    29bc:	0007820c 	andeq	r8, r7, ip, lsl #4
    29c0:	00059e00 	andeq	r9, r5, r0, lsl #28
    29c4:	00920400 	addseq	r0, r2, r0, lsl #8
    29c8:	00000400 	andeq	r0, r0, r0, lsl #8
    29cc:	0015e500 	andseq	lr, r5, r0, lsl #10
    29d0:	05040200 	streq	r0, [r4, #-512]	; 0xfffffe00
    29d4:	00746e69 	rsbseq	r6, r4, r9, ror #28
    29d8:	9a070403 	bls	1c39ec <__bss_end__+0x1b946c>
    29dc:	03000000 	movweq	r0, #0
    29e0:	002c0601 	eoreq	r0, ip, r1, lsl #12
    29e4:	02030000 	andeq	r0, r3, #0, 0
    29e8:	00012005 	andeq	r2, r1, r5
    29ec:	05040300 	streq	r0, [r4, #-768]	; 0xfffffd00
    29f0:	00000104 	andeq	r0, r0, r4, lsl #2
    29f4:	ff050803 			; <UNDEFINED> instruction: 0xff050803
    29f8:	03000000 	movweq	r0, #0
    29fc:	002a0801 	eoreq	r0, sl, r1, lsl #16
    2a00:	02030000 	andeq	r0, r3, #0, 0
    2a04:	00004507 	andeq	r4, r0, r7, lsl #10
    2a08:	07040300 	streq	r0, [r4, -r0, lsl #6]
    2a0c:	00000095 	muleq	r0, r5, r0
    2a10:	90070803 	andls	r0, r7, r3, lsl #16
    2a14:	04000000 	streq	r0, [r0], #-0
    2a18:	00000025 	andeq	r0, r0, r5, lsr #32
    2a1c:	0000007a 	andeq	r0, r0, sl, ror r0
    2a20:	00002505 	andeq	r2, r0, r5, lsl #10
    2a24:	0d060000 	stceq	0, cr0, [r6, #-0]
    2a28:	02000001 	andeq	r0, r0, #1, 0
    2a2c:	00860e1c 	addeq	r0, r6, ip, lsl lr
    2a30:	04070000 	streq	r0, [r7], #-0
    2a34:	0000006b 	andeq	r0, r0, fp, rrx
    2a38:	00002504 	andeq	r2, r0, r4, lsl #10
    2a3c:	00009b00 	andeq	r9, r0, r0, lsl #22
    2a40:	009b0500 	addseq	r0, fp, r0, lsl #10
    2a44:	07000000 	streq	r0, [r0, -r0]
    2a48:	0000a804 	andeq	sl, r0, r4, lsl #16
    2a4c:	08010300 	stmdaeq	r1, {r8, r9}
    2a50:	00000033 	andeq	r0, r0, r3, lsr r0
    2a54:	0000a108 	andeq	sl, r0, r8, lsl #2
    2a58:	062c0600 	strteq	r0, [ip], -r0, lsl #12
    2a5c:	21020000 	mrscs	r0, (UNDEF: 2)
    2a60:	0000b90e 	andeq	fp, r0, lr, lsl #18
    2a64:	8c040700 	stchi	7, cr0, [r4], {-0}
    2a68:	09000000 	stmdbeq	r0, {}	; <UNPREDICTABLE>
    2a6c:	0000075f 	andeq	r0, r0, pc, asr r7
    2a70:	04060401 	streq	r0, [r6], #-1025	; 0xfffffbff
    2a74:	04000092 	streq	r0, [r0], #-146	; 0xffffff6e
    2a78:	01000000 	mrseq	r0, (UNDEF: 0)
    2a7c:	0236009c 	eorseq	r0, r6, #156, 0	; 0x9c
    2a80:	00040000 	andeq	r0, r4, r0
    2a84:	00000ee0 	andeq	r0, r0, r0, ror #29
    2a88:	04bd0104 	ldrteq	r0, [sp], #260	; 0x104
    2a8c:	ca0c0000 	bgt	302a94 <__bss_end__+0x2f8514>
    2a90:	9e000007 	cdpls	0, 0, cr0, cr0, cr7, {0}
    2a94:	48000005 	stmdami	r0, {r0, r2}
    2a98:	00000000 	andeq	r0, r0, r0
    2a9c:	8c000000 	stchi	0, cr0, [r0], {-0}
    2aa0:	02000016 	andeq	r0, r0, #22, 0
    2aa4:	6e690504 	cdpvs	5, 6, cr0, cr9, cr4, {0}
    2aa8:	25030074 	strcs	r0, [r3, #-116]	; 0xffffff8c
    2aac:	04000000 	streq	r0, [r0], #-0
    2ab0:	009a0704 	addseq	r0, sl, r4, lsl #14
    2ab4:	01040000 	mrseq	r0, (UNDEF: 4)
    2ab8:	00002c06 	andeq	r2, r0, r6, lsl #24
    2abc:	05020400 	streq	r0, [r2, #-1024]	; 0xfffffc00
    2ac0:	00000120 	andeq	r0, r0, r0, lsr #2
    2ac4:	04050404 	streq	r0, [r5], #-1028	; 0xfffffbfc
    2ac8:	04000001 	streq	r0, [r0], #-1
    2acc:	00ff0508 	rscseq	r0, pc, r8, lsl #10
    2ad0:	01040000 	mrseq	r0, (UNDEF: 4)
    2ad4:	00002a08 	andeq	r2, r0, r8, lsl #20
    2ad8:	07020400 	streq	r0, [r2, -r0, lsl #8]
    2adc:	00000045 	andeq	r0, r0, r5, asr #32
    2ae0:	95070404 	strls	r0, [r7, #-1028]	; 0xfffffbfc
    2ae4:	04000000 	streq	r0, [r0], #-0
    2ae8:	00900708 	addseq	r0, r0, r8, lsl #14
    2aec:	25050000 	strcs	r0, [r5, #-0]
    2af0:	7f000000 	svcvc	0x00000000
    2af4:	06000000 	streq	r0, [r0], -r0
    2af8:	00000025 	andeq	r0, r0, r5, lsr #32
    2afc:	010d0700 	tsteq	sp, r0, lsl #14
    2b00:	1c020000 	stcne	0, cr0, [r2], {-0}
    2b04:	00008b0e 	andeq	r8, r0, lr, lsl #22
    2b08:	70040800 	andvc	r0, r4, r0, lsl #16
    2b0c:	05000000 	streq	r0, [r0, #-0]
    2b10:	00000025 	andeq	r0, r0, r5, lsr #32
    2b14:	000000a0 	andeq	r0, r0, r0, lsr #1
    2b18:	0000a006 	andeq	sl, r0, r6
    2b1c:	04080000 	streq	r0, [r8], #-0
    2b20:	000000ad 	andeq	r0, r0, sp, lsr #1
    2b24:	33080104 	movwcc	r0, #33028	; 0x8104
    2b28:	03000000 	movweq	r0, #0
    2b2c:	000000a6 	andeq	r0, r0, r6, lsr #1
    2b30:	00062c07 	andeq	r2, r6, r7, lsl #24
    2b34:	0e210200 	cdpeq	2, 2, cr0, cr1, cr0, {0}
    2b38:	000000be 	strheq	r0, [r0], -lr
    2b3c:	00910408 	addseq	r0, r1, r8, lsl #8
    2b40:	ee090000 	cdp	0, 0, cr0, cr9, cr0, {0}
    2b44:	01000007 	tsteq	r0, r7
    2b48:	0031110d 	eorseq	r1, r1, sp, lsl #2
    2b4c:	080a0000 	stmdaeq	sl, {}	; <UNPREDICTABLE>
    2b50:	01000007 	tsteq	r0, r7
    2b54:	9234061f 	eorsls	r0, r4, #32505856	; 0x1f00000
    2b58:	00540000 	subseq	r0, r4, r0
    2b5c:	9c010000 	stcls	0, cr0, [r1], {-0}
    2b60:	000001ae 	andeq	r0, r0, lr, lsr #3
    2b64:	0008120b 	andeq	r1, r8, fp, lsl #4
    2b68:	0f2c0100 	svceq	0x002c0100
    2b6c:	0000002c 	andeq	r0, r0, ip, lsr #32
    2b70:	00001230 	andeq	r1, r0, r0, lsr r2
    2b74:	0000122e 	andeq	r1, r0, lr, lsr #4
    2b78:	0007ad0b 	andeq	sl, r7, fp, lsl #26
    2b7c:	0f2d0100 	svceq	0x002d0100
    2b80:	0000002c 	andeq	r0, r0, ip, lsr #32
    2b84:	0000124a 	andeq	r1, r0, sl, asr #4
    2b88:	00001248 	andeq	r1, r0, r8, asr #4
    2b8c:	0007df0b 	andeq	sp, r7, fp, lsl #30
    2b90:	0f2e0100 	svceq	0x002e0100
    2b94:	0000002c 	andeq	r0, r0, ip, lsr #32
    2b98:	00001264 	andeq	r1, r0, r4, ror #4
    2b9c:	00001262 	andeq	r1, r0, r2, ror #4
    2ba0:	0007f90b 	andeq	pc, r7, fp, lsl #18
    2ba4:	0f2f0100 	svceq	0x002f0100
    2ba8:	0000002c 	andeq	r0, r0, ip, lsr #32
    2bac:	0000127d 	andeq	r1, r0, sp, ror r2
    2bb0:	0000127b 	andeq	r1, r0, fp, ror r2
    2bb4:	00923c0c 	addseq	r3, r2, ip, lsl #24
    2bb8:	0001d900 	andeq	sp, r1, r0, lsl #18
    2bbc:	92480c00 	subls	r0, r8, #0, 24
    2bc0:	02080000 	andeq	r0, r8, #0, 0
    2bc4:	4c0c0000 	stcmi	0, cr0, [ip], {-0}
    2bc8:	15000092 	strne	r0, [r0, #-146]	; 0xffffff6e
    2bcc:	0d000002 	stceq	0, cr0, [r0, #-8]
    2bd0:	00009254 	andeq	r9, r0, r4, asr r2
    2bd4:	00000221 	andeq	r0, r0, r1, lsr #4
    2bd8:	00000164 	andeq	r0, r0, r4, ror #2
    2bdc:	0150010e 	cmpeq	r0, lr, lsl #2
    2be0:	600d003a 	andvs	r0, sp, sl, lsr r0
    2be4:	2d000092 	stccs	0, cr0, [r0, #-584]	; 0xfffffdb8
    2be8:	84000002 	strhi	r0, [r0], #-2
    2bec:	0e000001 	cdpeq	0, 0, cr0, cr0, cr1, {0}
    2bf0:	0c055001 	stceq	0, cr5, [r5], {1}
    2bf4:	20100024 	andscs	r0, r0, r4, lsr #32
    2bf8:	0551010e 	ldrbeq	r0, [r1, #-270]	; 0xfffffef2
    2bfc:	0000010c 	andeq	r0, r0, ip, lsl #2
    2c00:	6c0d005a 	stcvs	0, cr0, [sp], {90}	; 0x5a
    2c04:	2d000092 	stccs	0, cr0, [r0, #-584]	; 0xfffffdb8
    2c08:	a4000002 	strge	r0, [r0], #-2
    2c0c:	0e000001 	cdpeq	0, 0, cr0, cr0, cr1, {0}
    2c10:	0c055001 	stceq	0, cr5, [r5], {1}
    2c14:	2010001c 	andscs	r0, r0, ip, lsl r0
    2c18:	0551010e 	ldrbeq	r0, [r1, #-270]	; 0xfffffef2
    2c1c:	0000200c 	andeq	r2, r0, ip
    2c20:	740c005a 	strvc	r0, [ip], #-90	; 0xffffffa6
    2c24:	ae000092 	mcrge	0, 0, r0, cr0, cr2, {4}
    2c28:	00000001 	andeq	r0, r0, r1
    2c2c:	0007bb0f 	andeq	fp, r7, pc, lsl #22
    2c30:	06170100 	ldreq	r0, [r7], -r0, lsl #2
    2c34:	00009220 	andeq	r9, r0, r0, lsr #4
    2c38:	00000014 	andeq	r0, r0, r4, lsl r0
    2c3c:	01d99c01 	bicseq	r9, r9, r1, lsl #24
    2c40:	1a0b0000 	bne	2c2c48 <__bss_end__+0x2b86c8>
    2c44:	01000008 	tsteq	r0, r8
    2c48:	00310e18 	eorseq	r0, r1, r8, lsl lr
    2c4c:	12980000 	addsne	r0, r8, #0, 0
    2c50:	12920000 	addsne	r0, r2, #0, 0
    2c54:	10000000 	andne	r0, r0, r0
    2c58:	000007eb 	andeq	r0, r0, fp, ror #15
    2c5c:	25050e01 	strcs	r0, [r5, #-3585]	; 0xfffff1ff
    2c60:	08000000 	stmdaeq	r0, {}	; <UNPREDICTABLE>
    2c64:	18000092 	stmdane	r0, {r1, r4, r7}
    2c68:	01000000 	mrseq	r0, (UNDEF: 0)
    2c6c:	0002089c 	muleq	r2, ip, r8
    2c70:	081a0b00 	ldmdaeq	sl, {r8, r9, fp}
    2c74:	0f010000 	svceq	0x00010000
    2c78:	0000310e 	andeq	r3, r0, lr, lsl #2
    2c7c:	0012c600 	andseq	ip, r2, r0, lsl #12
    2c80:	0012c200 	andseq	ip, r2, r0, lsl #4
    2c84:	9e110000 	cdpls	0, 1, cr0, cr1, cr0, {0}
    2c88:	9e000007 	cdpls	0, 0, cr0, cr0, cr7, {0}
    2c8c:	02000007 	andeq	r0, r0, #7, 0
    2c90:	1206013b 	andne	r0, r6, #-1073741810	; 0xc000000e
    2c94:	00000737 	andeq	r0, r0, r7, lsr r7
    2c98:	00000737 	andeq	r0, r0, r7, lsr r7
    2c9c:	12064d02 	andne	r4, r6, #128	; 0x80
    2ca0:	00000713 	andeq	r0, r0, r3, lsl r7
    2ca4:	00000713 	andeq	r0, r0, r3, lsl r7
    2ca8:	12065802 	andne	r5, r6, #131072	; 0x20000
    2cac:	000007b5 			; <UNDEFINED> instruction: 0x000007b5
    2cb0:	000007b5 			; <UNDEFINED> instruction: 0x000007b5
    2cb4:	0006b202 	andeq	fp, r6, r2, lsl #4
    2cb8:	0000024d 	andeq	r0, r0, sp, asr #4
    2cbc:	10050004 	andne	r0, r5, r4
    2cc0:	01040000 	mrseq	r0, (UNDEF: 4)
    2cc4:	000004bd 			; <UNDEFINED> instruction: 0x000004bd
    2cc8:	0008350c 	andeq	r3, r8, ip, lsl #10
    2ccc:	00059e00 	andeq	r9, r5, r0, lsl #28
    2cd0:	00928800 	addseq	r8, r2, r0, lsl #16
    2cd4:	00008400 	andeq	r8, r0, r0, lsl #8
    2cd8:	00178300 	andseq	r8, r7, r0, lsl #6
    2cdc:	05040200 	streq	r0, [r4, #-512]	; 0xfffffe00
    2ce0:	00746e69 	rsbseq	r6, r4, r9, ror #28
    2ce4:	9a070403 	bls	1c3cf8 <__bss_end__+0x1b9778>
    2ce8:	03000000 	movweq	r0, #0
    2cec:	002c0601 	eoreq	r0, ip, r1, lsl #12
    2cf0:	02030000 	andeq	r0, r3, #0, 0
    2cf4:	00012005 	andeq	r2, r1, r5
    2cf8:	05040300 	streq	r0, [r4, #-768]	; 0xfffffd00
    2cfc:	00000104 	andeq	r0, r0, r4, lsl #2
    2d00:	ff050803 			; <UNDEFINED> instruction: 0xff050803
    2d04:	03000000 	movweq	r0, #0
    2d08:	002a0801 	eoreq	r0, sl, r1, lsl #16
    2d0c:	02030000 	andeq	r0, r3, #0, 0
    2d10:	00004507 	andeq	r4, r0, r7, lsl #10
    2d14:	07040300 	streq	r0, [r4, -r0, lsl #6]
    2d18:	00000095 	muleq	r0, r5, r0
    2d1c:	90070803 	andls	r0, r7, r3, lsl #16
    2d20:	04000000 	streq	r0, [r0], #-0
    2d24:	00000025 	andeq	r0, r0, r5, lsr #32
    2d28:	0000007a 	andeq	r0, r0, sl, ror r0
    2d2c:	00002505 	andeq	r2, r0, r5, lsl #10
    2d30:	0d060000 	stceq	0, cr0, [r6, #-0]
    2d34:	02000001 	andeq	r0, r0, #1, 0
    2d38:	00860e1c 	addeq	r0, r6, ip, lsl lr
    2d3c:	04070000 	streq	r0, [r7], #-0
    2d40:	0000006b 	andeq	r0, r0, fp, rrx
    2d44:	00002504 	andeq	r2, r0, r4, lsl #10
    2d48:	00009b00 	andeq	r9, r0, r0, lsl #22
    2d4c:	009b0500 	addseq	r0, fp, r0, lsl #10
    2d50:	07000000 	streq	r0, [r0, -r0]
    2d54:	0000a804 	andeq	sl, r0, r4, lsl #16
    2d58:	08010300 	stmdaeq	r1, {r8, r9}
    2d5c:	00000033 	andeq	r0, r0, r3, lsr r0
    2d60:	0000a108 	andeq	sl, r0, r8, lsl #2
    2d64:	062c0600 	strteq	r0, [ip], -r0, lsl #12
    2d68:	21020000 	mrscs	r0, (UNDEF: 2)
    2d6c:	0000b90e 	andeq	fp, r0, lr, lsl #18
    2d70:	8c040700 	stchi	7, cr0, [r4], {-0}
    2d74:	09000000 	stmdbeq	r0, {}	; <UNPREDICTABLE>
    2d78:	0000082b 	andeq	r0, r0, fp, lsr #16
    2d7c:	f4061e01 			; <UNDEFINED> instruction: 0xf4061e01
    2d80:	18000092 	stmdane	r0, {r1, r4, r7}
    2d84:	01000000 	mrseq	r0, (UNDEF: 0)
    2d88:	0001099c 	muleq	r1, ip, r9
    2d8c:	65730a00 	ldrbvs	r0, [r3, #-2560]!	; 0xfffff600
    2d90:	1e010063 	cdpne	0, 0, cr0, cr1, cr3, {3}
    2d94:	00002c19 	andeq	r2, r0, r9, lsl ip
    2d98:	0012e900 	andseq	lr, r2, r0, lsl #18
    2d9c:	0012e500 	andseq	lr, r2, r0, lsl #10
    2da0:	93080b00 	movwls	r0, #35584	; 0x8b00
    2da4:	01090000 	mrseq	r0, (UNDEF: 9)
    2da8:	010c0000 	mrseq	r0, (UNDEF: 12)
    2dac:	01f31150 	mvnseq	r1, r0, asr r1
    2db0:	f3243550 	vqrshl.u32	<illegal reg q1.5>, q0, q2
    2db4:	321c5001 	andscc	r5, ip, #1, 0
    2db8:	5001f324 	andpl	pc, r1, r4, lsr #6
    2dbc:	00243322 	eoreq	r3, r4, r2, lsr #6
    2dc0:	07130900 	ldreq	r0, [r3, -r0, lsl #18]
    2dc4:	1b010000 	blne	42dcc <__bss_end__+0x3884c>
    2dc8:	0092dc06 	addseq	sp, r2, r6, lsl #24
    2dcc:	00001800 	andeq	r1, r0, r0, lsl #16
    2dd0:	529c0100 	addspl	r0, ip, #0
    2dd4:	0a000001 	beq	2de0 <__code_start__-0x5220>
    2dd8:	0100736d 	tsteq	r0, sp, ror #6
    2ddc:	002c181b 	eoreq	r1, ip, fp, lsl r8
    2de0:	130e0000 	movwne	r0, #57344	; 0xe000
    2de4:	130a0000 	movwne	r0, #40960	; 0xa000
    2de8:	f00b0000 			; <UNDEFINED> instruction: 0xf00b0000
    2dec:	52000092 	andpl	r0, r0, #146, 0	; 0x92
    2df0:	0c000001 	stceq	0, cr0, [r0], {1}
    2df4:	f3115001 	vhadd.u16	d5, d1, d1
    2df8:	24355001 	ldrtcs	r5, [r5], #-1
    2dfc:	1c5001f3 	ldfnee	f0, [r0], {243}	; 0xf3
    2e00:	01f32432 	mvnseq	r2, r2, lsr r4
    2e04:	24332250 	ldrtcs	r2, [r3], #-592	; 0xfffffdb0
    2e08:	5e090000 	cdppl	0, 0, cr0, cr9, cr0, {0}
    2e0c:	01000008 	tsteq	r0, r8
    2e10:	92b80612 	adcsls	r0, r8, #18874368	; 0x1200000
    2e14:	00240000 	eoreq	r0, r4, r0
    2e18:	9c010000 	stcls	0, cr0, [r1], {-0}
    2e1c:	000001c2 	andeq	r0, r0, r2, asr #3
    2e20:	0073750a 	rsbseq	r7, r3, sl, lsl #10
    2e24:	2c181201 	lfmcs	f1, 4, [r8], {1}
    2e28:	33000000 	movwcc	r0, #0
    2e2c:	2f000013 	svccs	0x00000013
    2e30:	0d000013 	stceq	0, cr0, [r0, #-76]	; 0xffffffb4
    2e34:	01006272 	tsteq	r0, r2, ror r2
    2e38:	002c0e13 	eoreq	r0, ip, r3, lsl lr
    2e3c:	13530000 	cmpne	r3, #0, 0
    2e40:	13510000 	cmpne	r1, #0, 0
    2e44:	c80e0000 	stmdagt	lr, {}	; <UNPREDICTABLE>
    2e48:	14000092 	strne	r0, [r0], #-146	; 0xffffff6e
    2e4c:	b8000000 	stmdalt	r0, {}	; <UNPREDICTABLE>
    2e50:	0d000001 	stceq	0, cr0, [r0, #-4]
    2e54:	01006172 	tsteq	r0, r2, ror r1
    2e58:	002c1215 	eoreq	r1, ip, r5, lsl r2
    2e5c:	13680000 	cmnne	r8, #0, 0
    2e60:	13660000 	cmnne	r6, #0, 0
    2e64:	cc0f0000 	stcgt	0, cr0, [pc], {-0}
    2e68:	c2000092 	andgt	r0, r0, #146, 0	; 0x92
    2e6c:	00000001 	andeq	r0, r0, r1
    2e70:	0092c40f 	addseq	ip, r2, pc, lsl #8
    2e74:	0001c200 	andeq	ip, r1, r0, lsl #4
    2e78:	4f100000 	svcmi	0x00100000
    2e7c:	01000008 	tsteq	r0, r8
    2e80:	002c0a09 	eoreq	r0, ip, r9, lsl #20
    2e84:	929c0000 	addsls	r0, ip, #0, 0
    2e88:	001c0000 	andseq	r0, ip, r0
    2e8c:	9c010000 	stcls	0, cr0, [r1], {-0}
    2e90:	0000020a 	andeq	r0, r0, sl, lsl #4
    2e94:	0100750d 	tsteq	r0, sp, lsl #10
    2e98:	002c0e0d 	eoreq	r0, ip, sp, lsl #28
    2e9c:	137f0000 	cmnne	pc, #0, 0
    2ea0:	137b0000 	cmnne	fp, #0, 0
    2ea4:	a40f0000 	strge	r0, [pc], #-0	; 2eac <__code_start__-0x5154>
    2ea8:	38000092 	stmdacc	r0, {r1, r4, r7}
    2eac:	0f000002 	svceq	0x00000002
    2eb0:	000092a8 	andeq	r9, r0, r8, lsr #5
    2eb4:	0000020a 	andeq	r0, r0, sl, lsl #4
    2eb8:	0092b00f 	addseq	fp, r2, pc
    2ebc:	00023800 	andeq	r3, r2, r0, lsl #16
    2ec0:	67100000 	ldrvs	r0, [r0, -r0]
    2ec4:	01000008 	tsteq	r0, r8
    2ec8:	002c0a04 	eoreq	r0, ip, r4, lsl #20
    2ecc:	92880000 	addls	r0, r8, #0, 0
    2ed0:	00140000 	andseq	r0, r4, r0
    2ed4:	9c010000 	stcls	0, cr0, [r1], {-0}
    2ed8:	00000238 	andeq	r0, r0, r8, lsr r2
    2edc:	0092940b 	addseq	r9, r2, fp, lsl #8
    2ee0:	00024400 	andeq	r4, r2, r0, lsl #8
    2ee4:	50010c00 	andpl	r0, r1, r0, lsl #24
    2ee8:	30040c05 	andcc	r0, r4, r5, lsl #24
    2eec:	00002000 	andeq	r2, r0, r0
    2ef0:	00081f11 	andeq	r1, r8, r1, lsl pc
    2ef4:	00081f00 	andeq	r1, r8, r0, lsl #30
    2ef8:	06a10200 	strteq	r0, [r1], r0, lsl #4
    2efc:	00084911 	andeq	r4, r8, r1, lsl r9
    2f00:	00084900 	andeq	r4, r8, r0, lsl #18
    2f04:	0ac70200 	beq	ff1c370c <__bss_end__+0xff1b918c>
    2f08:	0005cd00 	andeq	ip, r5, r0, lsl #26
    2f0c:	06000400 	streq	r0, [r0], -r0, lsl #8
    2f10:	04000011 	streq	r0, [r0], #-17	; 0xffffffef
    2f14:	00097a01 	andeq	r7, r9, r1, lsl #20
    2f18:	08b90c00 	ldmeq	r9!, {sl, fp}
    2f1c:	092a0000 	stmdbeq	sl!, {}	; <UNPREDICTABLE>
    2f20:	930c0000 	movwls	r0, #49152	; 0xc000
    2f24:	01f00000 	mvnseq	r0, r0
    2f28:	18810000 	stmne	r1, {}	; <UNPREDICTABLE>
    2f2c:	04020000 	streq	r0, [r2], #-0
    2f30:	746e6905 	strbtvc	r6, [lr], #-2309	; 0xfffff6fb
    2f34:	07040300 	streq	r0, [r4, -r0, lsl #6]
    2f38:	0000009a 	muleq	r0, sl, r0
    2f3c:	00002c04 	andeq	r2, r0, r4, lsl #24
    2f40:	06010300 	streq	r0, [r1], -r0, lsl #6
    2f44:	0000002c 	andeq	r0, r0, ip, lsr #32
    2f48:	20050203 	andcs	r0, r5, r3, lsl #4
    2f4c:	03000001 	movweq	r0, #1
    2f50:	01040504 	tsteq	r4, r4, lsl #10
    2f54:	08030000 	stmdaeq	r3, {}	; <UNPREDICTABLE>
    2f58:	0000ff05 	andeq	pc, r0, r5, lsl #30
    2f5c:	08010300 	stmdaeq	r1, {r8, r9}
    2f60:	0000002a 	andeq	r0, r0, sl, lsr #32
    2f64:	45070203 	strmi	r0, [r7, #-515]	; 0xfffffdfd
    2f68:	05000000 	streq	r0, [r0, #-0]
    2f6c:	0000028a 	andeq	r0, r0, sl, lsl #5
    2f70:	6e193405 	cfmulsvs	mvf3, mvf9, mvf5
    2f74:	03000000 	movweq	r0, #0
    2f78:	00950704 	addseq	r0, r5, r4, lsl #14
    2f7c:	08030000 	stmdaeq	r3, {}	; <UNPREDICTABLE>
    2f80:	00009007 	andeq	r9, r0, r7
    2f84:	08010300 	stmdaeq	r1, {r8, r9}
    2f88:	00000033 	andeq	r0, r0, r3, lsr r0
    2f8c:	54010706 	strpl	r0, [r1], #-1798	; 0xfffff8fa
    2f90:	04000000 	streq	r0, [r0], #-0
    2f94:	00c20e0c 	sbceq	r0, r2, ip, lsl #28
    2f98:	64070000 	strvs	r0, [r7], #-0
    2f9c:	0000000a 	andeq	r0, r0, sl
    2fa0:	00089c07 	andeq	r9, r8, r7, lsl #24
    2fa4:	df070100 	svcle	0x00070100
    2fa8:	04000008 	streq	r0, [r0], #-8
    2fac:	0008ee07 	andeq	lr, r8, r7, lsl #28
    2fb0:	fd070500 	stc2	5, cr0, [r7, #-0]
    2fb4:	06000008 	streq	r0, [r0], -r8
    2fb8:	00090c07 	andeq	r0, r9, r7, lsl #24
    2fbc:	2d070700 	stccs	7, cr0, [r7, #-0]
    2fc0:	0300000a 	movweq	r0, #10
    2fc4:	00091b07 	andeq	r1, r9, r7, lsl #22
    2fc8:	08000200 	stmdaeq	r0, {r9}
    2fcc:	000008ad 	andeq	r0, r0, sp, lsr #17
    2fd0:	0806022c 	stmdaeq	r6, {r2, r3, r5, r9}
    2fd4:	0000015e 	andeq	r0, r0, lr, asr r1
    2fd8:	006f6909 	rsbeq	r6, pc, r9, lsl #18
    2fdc:	33090902 	movwcc	r0, #39170	; 0x9902
    2fe0:	00000000 	andeq	r0, r0, r0
    2fe4:	72656909 	rsbvc	r6, r5, #147456	; 0x24000
    2fe8:	090a0200 	stmdbeq	sl, {r9}
    2fec:	00000033 	andeq	r0, r0, r3, lsr r0
    2ff0:	69690904 	stmdbvs	r9!, {r2, r8, fp}^
    2ff4:	11020072 	tstne	r2, r2, ror r0
    2ff8:	00003309 	andeq	r3, r0, r9, lsl #6
    2ffc:	6c090800 	stcvs	8, cr0, [r9], {-0}
    3000:	02007263 	andeq	r7, r0, #805306374	; 0x30000006
    3004:	00330913 	eorseq	r0, r3, r3, lsl r9
    3008:	090c0000 	stmdbeq	ip, {}	; <UNPREDICTABLE>
    300c:	0072636d 	rsbseq	r6, r2, sp, ror #6
    3010:	33091402 	movwcc	r1, #37890	; 0x9402
    3014:	10000000 	andne	r0, r0, r0
    3018:	72736c09 	rsbsvc	r6, r3, #2304	; 0x900
    301c:	09150200 	ldmdbeq	r5, {r9}
    3020:	00000033 	andeq	r0, r0, r3, lsr r0
    3024:	736d0914 	cmnvc	sp, #20, 18	; 0x50000
    3028:	16020072 			; <UNDEFINED> instruction: 0x16020072
    302c:	00003309 	andeq	r3, r0, r9, lsl #6
    3030:	440a1800 	strmi	r1, [sl], #-2048	; 0xfffff800
    3034:	0200000a 	andeq	r0, r0, #10, 0
    3038:	00330917 	eorseq	r0, r3, r7, lsl r9
    303c:	0a1c0000 	beq	703044 <__bss_end__+0x6f8ac4>
    3040:	00000a0d 	andeq	r0, r0, sp, lsl #20
    3044:	33091b02 	movwcc	r1, #39682	; 0x9b02
    3048:	20000000 	andcs	r0, r0, r0
    304c:	0008890a 	andeq	r8, r8, sl, lsl #18
    3050:	091d0200 	ldmdbeq	sp, {r9}
    3054:	00000033 	andeq	r0, r0, r3, lsr r0
    3058:	095f0a24 	ldmdbeq	pc, {r2, r5, r9, fp}^	; <UNPREDICTABLE>
    305c:	1e020000 	cdpne	0, 0, cr0, cr2, cr0, {0}
    3060:	00003309 	andeq	r3, r0, r9, lsl #6
    3064:	0b002800 	bleq	d06c <__bss_end__+0x2aec>
    3068:	00000964 	andeq	r0, r0, r4, ror #18
    306c:	74090801 	strvc	r0, [r9], #-2049	; 0xfffff7ff
    3070:	04000001 	streq	r0, [r0], #-1
    3074:	0c202150 	stfeqs	f2, [r0], #-320	; 0xfffffec0
    3078:	00003304 	andeq	r3, r0, r4, lsl #6
    307c:	016e0d00 	cmneq	lr, r0, lsl #26
    3080:	4c0b0000 	stcmi	0, cr0, [fp], {-0}
    3084:	0100000a 	tsteq	r0, sl
    3088:	018f2329 	orreq	r2, pc, r9, lsr #6
    308c:	50400000 	subpl	r0, r0, r0
    3090:	040c2021 	streq	r2, [ip], #-33	; 0xffffffdf
    3094:	000000c2 	andeq	r0, r0, r2, asr #1
    3098:	0001890d 	andeq	r8, r1, sp, lsl #18
    309c:	07370e00 	ldreq	r0, [r7, -r0, lsl #28]!
    30a0:	cc010000 	stcgt	0, cr0, [r1], {-0}
    30a4:	0094c406 	addseq	ip, r4, r6, lsl #8
    30a8:	00001400 	andeq	r1, r0, r0, lsl #8
    30ac:	b49c0100 	ldrlt	r0, [ip], #256	; 0x100
    30b0:	0f000001 	svceq	0x00000001
    30b4:	000094cc 	andeq	r9, r0, ip, asr #9
    30b8:	000001b4 			; <UNDEFINED> instruction: 0x000001b4
    30bc:	08ce1000 	stmiaeq	lr, {ip}^
    30c0:	b6010000 	strlt	r0, [r1], -r0
    30c4:	00002505 	andeq	r2, r0, r5, lsl #10
    30c8:	0094a400 	addseq	sl, r4, r0, lsl #8
    30cc:	00002000 	andeq	r2, r0, r0
    30d0:	eb9c0100 	bl	fe7034d8 <__bss_end__+0xfe6f8f58>
    30d4:	0f000001 	svceq	0x00000001
    30d8:	000094ac 	andeq	r9, r0, ip, lsr #9
    30dc:	000005a0 	andeq	r0, r0, r0, lsr #11
    30e0:	0094b411 	addseq	fp, r4, r1, lsl r4
    30e4:	0005ac00 	andeq	sl, r5, r0, lsl #24
    30e8:	50011200 	andpl	r1, r1, r0, lsl #4
    30ec:	50640c05 	rsbpl	r0, r4, r5, lsl #24
    30f0:	00002021 	andeq	r2, r0, r1, lsr #32
    30f4:	000a1f10 	andeq	r1, sl, r0, lsl pc
    30f8:	05b30100 	ldreq	r0, [r3, #256]!	; 0x100
    30fc:	00000025 	andeq	r0, r0, r5, lsr #32
    3100:	00009494 	muleq	r0, r4, r4
    3104:	00000010 	andeq	r0, r0, r0, lsl r0
    3108:	02189c01 	andseq	r9, r8, #256	; 0x100
    310c:	9c0f0000 	stcls	0, cr0, [pc], {-0}
    3110:	a0000094 	mulge	r0, r4, r0
    3114:	0f000005 	svceq	0x00000005
    3118:	000094a0 	andeq	r9, r0, r0, lsr #9
    311c:	00000309 	andeq	r0, r0, r9, lsl #6
    3120:	0a5a0e00 	beq	1686928 <__bss_end__+0x167c3a8>
    3124:	ab010000 	blge	4312c <__bss_end__+0x38bac>
    3128:	00946406 	addseq	r6, r4, r6, lsl #8
    312c:	00003000 	andeq	r3, r0, r0
    3130:	7c9c0100 	ldfvcs	f0, [ip], {0}
    3134:	13000002 	movwne	r0, #2
    3138:	ab010063 	blge	432cc <__bss_end__+0x38d4c>
    313c:	00002c19 	andeq	r2, r0, r9, lsl ip
    3140:	0013a100 	andseq	sl, r3, r0, lsl #2
    3144:	00139d00 	andseq	r9, r3, r0, lsl #26
    3148:	94700f00 	ldrbtls	r0, [r0], #-3840	; 0xfffff100
    314c:	05a00000 	streq	r0, [r0, #0]!
    3150:	740f0000 	strvc	r0, [pc], #-0	; 3158 <__code_start__-0x4ea8>
    3154:	db000094 	blle	33ac <__code_start__-0x4c54>
    3158:	14000002 	strne	r0, [r0], #-2
    315c:	00009488 	andeq	r9, r0, r8, lsl #9
    3160:	000005b8 			; <UNDEFINED> instruction: 0x000005b8
    3164:	00000272 	andeq	r0, r0, r2, ror r2
    3168:	05500112 	ldrbeq	r0, [r0, #-274]	; 0xfffffeee
    316c:	2150400c 	cmpcs	r0, ip
    3170:	51011220 	tstpl	r1, r0, lsr #4
    3174:	08007405 	stmdaeq	r0, {r0, r2, sl, ip, sp, lr}
    3178:	0f001aff 	svceq	0x00001aff
    317c:	0000948c 	andeq	r9, r0, ip, lsl #9
    3180:	000005a0 	andeq	r0, r0, r0, lsr #11
    3184:	09701000 	ldmdbeq	r0!, {ip}^
    3188:	a3010000 	movwge	r0, #4096	; 0x1000
    318c:	00002505 	andeq	r2, r0, r5, lsl #10
    3190:	00943400 	addseq	r3, r4, r0, lsl #8
    3194:	00003000 	andeq	r3, r0, r0
    3198:	db9c0100 	blle	fe7035a0 <__bss_end__+0xfe6f9020>
    319c:	15000002 	strne	r0, [r0, #-2]
    31a0:	a7010063 	strge	r0, [r1, -r3, rrx]
    31a4:	00002509 	andeq	r2, r0, r9, lsl #10
    31a8:	0013c100 	andseq	ip, r3, r0, lsl #2
    31ac:	0013bf00 	andseq	fp, r3, r0, lsl #30
    31b0:	943c0f00 	ldrtls	r0, [ip], #-3840	; 0xfffff100
    31b4:	05a00000 	streq	r0, [r0, #0]!
    31b8:	400f0000 	andmi	r0, pc, r0
    31bc:	09000094 	stmdbeq	r0, {r2, r4, r7}
    31c0:	14000003 	strne	r0, [r0], #-3
    31c4:	00009450 	andeq	r9, r0, r0, asr r4
    31c8:	000005ac 	andeq	r0, r0, ip, lsr #11
    31cc:	000002d1 	ldrdeq	r0, [r0], -r1
    31d0:	05500112 	ldrbeq	r0, [r0, #-274]	; 0xfffffeee
    31d4:	2150400c 	cmpcs	r0, ip
    31d8:	580f0020 	stmdapl	pc, {r5}	; <UNPREDICTABLE>
    31dc:	a0000094 	mulge	r0, r4, r0
    31e0:	00000005 	andeq	r0, r0, r5
    31e4:	0008c010 	andeq	ip, r8, r0, lsl r0
    31e8:	05940100 	ldreq	r0, [r4, #256]	; 0x100
    31ec:	00000025 	andeq	r0, r0, r5, lsr #32
    31f0:	00009414 	andeq	r9, r0, r4, lsl r4
    31f4:	00000020 	andeq	r0, r0, r0, lsr #32
    31f8:	03099c01 	movweq	r9, #39937	; 0x9c01
    31fc:	20110000 	andscs	r0, r1, r0
    3200:	ac000094 	stcge	0, cr0, [r0], {148}	; 0x94
    3204:	12000005 	andne	r0, r0, #5, 0
    3208:	0c055001 	stceq	0, cr5, [r5], {1}
    320c:	20215064 	eorcs	r5, r1, r4, rrx
    3210:	8e100000 	cdphi	0, 1, cr0, cr0, cr0, {0}
    3214:	01000008 	tsteq	r0, r8
    3218:	0025058b 	eoreq	r0, r5, fp, lsl #11
    321c:	93fc0000 	mvnsls	r0, #0, 0
    3220:	00180000 	andseq	r0, r8, r0
    3224:	9c010000 	stcls	0, cr0, [r1], {-0}
    3228:	00000337 	andeq	r0, r0, r7, lsr r3
    322c:	00940811 	addseq	r0, r4, r1, lsl r8
    3230:	0005ac00 	andeq	sl, r5, r0, lsl #24
    3234:	50011200 	andpl	r1, r1, r0, lsl #4
    3238:	50640c05 	rsbpl	r0, r4, r5, lsl #24
    323c:	00002021 	andeq	r2, r0, r1, lsr #32
    3240:	0007550e 	andeq	r5, r7, lr, lsl #10
    3244:	06450100 	strbeq	r0, [r5], -r0, lsl #2
    3248:	0000934c 	andeq	r9, r0, ip, asr #6
    324c:	000000b0 	strheq	r0, [r0], -r0	; <UNPREDICTABLE>
    3250:	04849c01 	streq	r9, [r4], #3073	; 0xc01
    3254:	80160000 	andshi	r0, r6, r0
    3258:	01000008 	tsteq	r0, r8
    325c:	00620e7e 	rsbeq	r0, r2, lr, ror lr
    3260:	010e0000 	mrseq	r0, (UNDEF: 14)
    3264:	00935c14 	addseq	r5, r3, r4, lsl ip
    3268:	0005c400 	andeq	ip, r5, r0, lsl #8
    326c:	00037300 	andeq	r7, r3, r0, lsl #6
    3270:	50011200 	andpl	r1, r1, r0, lsl #4
    3274:	01123e01 	tsteq	r2, r1, lsl #28
    3278:	00320151 	eorseq	r0, r2, r1, asr r1
    327c:	00936814 	addseq	r6, r3, r4, lsl r8
    3280:	0005c400 	andeq	ip, r5, r0, lsl #8
    3284:	00038b00 	andeq	r8, r3, r0, lsl #22
    3288:	50011200 	andpl	r1, r1, r0, lsl #4
    328c:	01123f01 	tsteq	r2, r1, lsl #30
    3290:	00320151 	eorseq	r0, r2, r1, asr r1
    3294:	00936c0f 	addseq	r6, r3, pc, lsl #24
    3298:	0005a000 	andeq	sl, r5, r0
    329c:	93781400 	cmnls	r8, #0, 8
    32a0:	053d0000 	ldreq	r0, [sp, #-0]!
    32a4:	03b00000 	movseq	r0, #0, 0
    32a8:	01120000 	tsteq	r2, r0
    32ac:	040c0550 	streq	r0, [ip], #-1360	; 0xfffffab0
    32b0:	12202150 	eorne	r2, r0, #20
    32b4:	31015101 	tstcc	r1, r1, lsl #2
    32b8:	937c0f00 	cmnls	ip, #0, 30
    32bc:	05a00000 	streq	r0, [r0, #0]!
    32c0:	8c140000 	ldchi	0, cr0, [r4], {-0}
    32c4:	b8000093 	stmdalt	r0, {r0, r1, r4, r7}
    32c8:	d2000005 	andle	r0, r0, #5, 0
    32cc:	12000003 	andne	r0, r0, #3, 0
    32d0:	74025001 	strvc	r5, [r2], #-1
    32d4:	51011200 	mrspl	r1, R9_usr
    32d8:	14003001 	strne	r3, [r0], #-1
    32dc:	00009398 	muleq	r0, r8, r3
    32e0:	000005b8 			; <UNDEFINED> instruction: 0x000005b8
    32e4:	000003ee 	andeq	r0, r0, lr, ror #7
    32e8:	05500112 	ldrbeq	r0, [r0, #-274]	; 0xfffffeee
    32ec:	2150440c 	cmpcs	r0, ip, lsl #8
    32f0:	51011220 	tstpl	r1, r0, lsr #4
    32f4:	14003001 	strne	r3, [r0], #-1
    32f8:	000093a4 	andeq	r9, r0, r4, lsr #7
    32fc:	000005b8 			; <UNDEFINED> instruction: 0x000005b8
    3300:	0000040a 	andeq	r0, r0, sl, lsl #8
    3304:	05500112 	ldrbeq	r0, [r0, #-274]	; 0xfffffeee
    3308:	21504c0c 	cmpcs	r0, ip, lsl #24
    330c:	51011220 	tstpl	r1, r0, lsr #4
    3310:	14003301 	strne	r3, [r0], #-769	; 0xfffffcff
    3314:	000093b0 			; <UNDEFINED> instruction: 0x000093b0
    3318:	000005b8 			; <UNDEFINED> instruction: 0x000005b8
    331c:	00000426 	andeq	r0, r0, r6, lsr #8
    3320:	05500112 	ldrbeq	r0, [r0, #-274]	; 0xfffffeee
    3324:	2150500c 	cmpcs	r0, ip
    3328:	51011220 	tstpl	r1, r0, lsr #4
    332c:	14003001 	strne	r3, [r0], #-1
    3330:	000093bc 			; <UNDEFINED> instruction: 0x000093bc
    3334:	000005b8 			; <UNDEFINED> instruction: 0x000005b8
    3338:	00000443 	andeq	r0, r0, r3, asr #8
    333c:	05500112 	ldrbeq	r0, [r0, #-274]	; 0xfffffeee
    3340:	2150480c 	cmpcs	r0, ip, lsl #16
    3344:	51011220 	tstpl	r1, r0, lsr #4
    3348:	00c70802 	sbceq	r0, r7, r2, lsl #16
    334c:	0093c814 	addseq	ip, r3, r4, lsl r8
    3350:	0005b800 	andeq	fp, r5, r0, lsl #16
    3354:	00046100 	andeq	r6, r4, r0, lsl #2
    3358:	50011200 	andpl	r1, r1, r0, lsl #4
    335c:	50680c05 	rsbpl	r0, r8, r5, lsl #24
    3360:	01122021 	tsteq	r2, r1, lsr #32
    3364:	0e0a0351 	mcreq	3, 0, r0, cr10, cr1, {2}
    3368:	d4140001 	ldrle	r0, [r4], #-1
    336c:	b8000093 	stmdalt	r0, {r0, r1, r4, r7}
    3370:	7a000005 	bvc	338c <__code_start__-0x4c74>
    3374:	12000004 	andne	r0, r0, #4, 0
    3378:	74025001 	strvc	r5, [r2], #-1
    337c:	51011200 	mrspl	r1, R9_usr
    3380:	0f003301 	svceq	0x00003301
    3384:	000093d8 	ldrdeq	r9, [r0], -r8
    3388:	000005a0 	andeq	r0, r0, r0, lsr #11
    338c:	0a120e00 	beq	486b94 <__bss_end__+0x47c614>
    3390:	35010000 	strcc	r0, [r1, #-0]
    3394:	0094d806 	addseq	sp, r4, r6, lsl #16
    3398:	00002400 	andeq	r2, r0, r0, lsl #8
    339c:	d39c0100 	orrsle	r0, ip, #0
    33a0:	0f000004 	svceq	0x00000004
    33a4:	000094e0 	andeq	r9, r0, r0, ror #9
    33a8:	00000194 	muleq	r0, r4, r1
    33ac:	0094e40f 	addseq	lr, r4, pc, lsl #8
    33b0:	0005a000 	andeq	sl, r5, r0
    33b4:	94f01400 	ldrbtls	r1, [r0], #1024	; 0x400
    33b8:	04d30000 	ldrbeq	r0, [r3], #0
    33bc:	04c90000 	strbeq	r0, [r9], #0
    33c0:	01120000 	tsteq	r2, r0
    33c4:	040c0550 	streq	r0, [ip], #-1360	; 0xfffffab0
    33c8:	12202150 	eorne	r2, r0, #20
    33cc:	09025101 	stmdbeq	r2, {r0, r8, ip, lr}
    33d0:	f40f00fe 	vst4.<illegal width 64>	{d0-d3}, [pc :256], lr
    33d4:	a0000094 	mulge	r0, r4, r0
    33d8:	00000005 	andeq	r0, r0, r5
    33dc:	000a5117 	andeq	r5, sl, r7, lsl r1
    33e0:	0d310100 	ldfeqs	f0, [r1, #-0]
    33e4:	0000930c 	andeq	r9, r0, ip, lsl #6
    33e8:	00000020 	andeq	r0, r0, r0, lsr #32
    33ec:	05369c01 	ldreq	r9, [r6, #-3073]!	; 0xfffff3ff
    33f0:	ab180000 	blge	6033f8 <__bss_end__+0x5f8e78>
    33f4:	0100000a 	tsteq	r0, sl
    33f8:	05362531 	ldreq	r2, [r6, #-1329]!	; 0xfffffacf
    33fc:	13d80000 	bicsne	r0, r8, #0, 0
    3400:	13d40000 	bicsne	r0, r4, #0, 0
    3404:	76130000 	ldrvc	r0, [r3], -r0
    3408:	01006c61 	tsteq	r0, r1, ror #24
    340c:	002c3431 	eoreq	r3, ip, r1, lsr r4
    3410:	13fa0000 	mvnsne	r0, #0, 0
    3414:	13f60000 	mvnsne	r0, #0, 0
    3418:	1c140000 	ldcne	0, cr0, [r4], {-0}
    341c:	ac000093 	stcge	0, cr0, [r0], {147}	; 0x93
    3420:	25000005 	strcs	r0, [r0, #-5]
    3424:	12000005 	andne	r0, r0, #5, 0
    3428:	74025001 	strvc	r5, [r2], #-1
    342c:	28110000 	ldmdacs	r1, {}	; <UNPREDICTABLE>
    3430:	b8000093 	stmdalt	r0, {r0, r1, r4, r7}
    3434:	12000005 	andne	r0, r0, #5, 0
    3438:	74025001 	strvc	r5, [r2], #-1
    343c:	0c000000 	stceq	0, cr0, [r0], {-0}
    3440:	00053c04 	andeq	r3, r5, r4, lsl #24
    3444:	3c171900 			; <UNDEFINED> instruction: 0x3c171900
    3448:	0100000a 	tsteq	r0, sl
    344c:	932c0d2e 			; <UNDEFINED> instruction: 0x932c0d2e
    3450:	00200000 	eoreq	r0, r0, r0
    3454:	9c010000 	stcls	0, cr0, [r1], {-0}
    3458:	000005a0 	andeq	r0, r0, r0, lsr #11
    345c:	000aab18 	andeq	sl, sl, r8, lsl fp
    3460:	242e0100 	strtcs	r0, [lr], #-256	; 0xffffff00
    3464:	00000536 	andeq	r0, r0, r6, lsr r5
    3468:	0000141c 	andeq	r1, r0, ip, lsl r4
    346c:	00001418 	andeq	r1, r0, r8, lsl r4
    3470:	6c617613 	stclvs	6, cr7, [r1], #-76	; 0xffffffb4
    3474:	332e0100 			; <UNDEFINED> instruction: 0x332e0100
    3478:	0000002c 	andeq	r0, r0, ip, lsr #32
    347c:	0000143e 	andeq	r1, r0, lr, lsr r4
    3480:	0000143a 	andeq	r1, r0, sl, lsr r4
    3484:	00933c14 	addseq	r3, r3, r4, lsl ip
    3488:	0005ac00 	andeq	sl, r5, r0, lsl #24
    348c:	00058f00 	andeq	r8, r5, r0, lsl #30
    3490:	50011200 	andpl	r1, r1, r0, lsl #4
    3494:	00007402 	andeq	r7, r0, r2, lsl #8
    3498:	00934811 	addseq	r4, r3, r1, lsl r8
    349c:	0005b800 	andeq	fp, r5, r0, lsl #16
    34a0:	50011200 	andpl	r1, r1, r0, lsl #4
    34a4:	00007402 	andeq	r7, r0, r2, lsl #8
    34a8:	081f1a00 	ldmdaeq	pc, {r9, fp, ip}	; <UNPREDICTABLE>
    34ac:	081f0000 	ldmdaeq	pc, {}	; <UNPREDICTABLE>
    34b0:	a1030000 	mrsge	r0, (UNDEF: 3)
    34b4:	0a861a06 	beq	fe189cd4 <__bss_end__+0xfe17f754>
    34b8:	0a860000 	beq	fe1834c0 <__bss_end__+0xfe178f40>
    34bc:	c8030000 	stmdagt	r3, {}	; <UNPREDICTABLE>
    34c0:	087a1a0b 	ldmdaeq	sl!, {r0, r1, r3, r9, fp, ip}^
    34c4:	087a0000 	ldmdaeq	sl!, {}^	; <UNPREDICTABLE>
    34c8:	b3030000 	movwlt	r0, #12288	; 0x3000
    34cc:	0a741a06 	beq	1d09cec <__bss_end__+0x1cff76c>
    34d0:	0a740000 	beq	1d034d8 <__bss_end__+0x1cf8f58>
    34d4:	19040000 	stmdbne	r4, {}	; <UNPREDICTABLE>
    34d8:	08e90006 	stmiaeq	r9!, {r1, r2}^
    34dc:	00040000 	andeq	r0, r4, r0
    34e0:	0000129e 	muleq	r0, lr, r2
    34e4:	097a0104 	ldmdbeq	sl!, {r2, r8}^
    34e8:	160c0000 	strne	r0, [ip], -r0
    34ec:	2a00000b 	bcs	3520 <__code_start__-0x4ae0>
    34f0:	fc000009 	stc2	0, cr0, [r0], {9}
    34f4:	b0000094 	mullt	r0, r4, r0
    34f8:	8a000003 	bhi	350c <__code_start__-0x4af4>
    34fc:	0200001a 	andeq	r0, r0, #26, 0
    3500:	6e690504 	cdpvs	5, 6, cr0, cr9, cr4, {0}
    3504:	04030074 	streq	r0, [r3], #-116	; 0xffffff8c
    3508:	00009a07 	andeq	r9, r0, r7, lsl #20
    350c:	06010300 	streq	r0, [r1], -r0, lsl #6
    3510:	0000002c 	andeq	r0, r0, ip, lsr #32
    3514:	20050203 	andcs	r0, r5, r3, lsl #4
    3518:	03000001 	movweq	r0, #1
    351c:	01040504 	tsteq	r4, r4, lsl #10
    3520:	08030000 	stmdaeq	r3, {}	; <UNPREDICTABLE>
    3524:	0000ff05 	andeq	pc, r0, r5, lsl #30
    3528:	08010300 	stmdaeq	r1, {r8, r9}
    352c:	0000002a 	andeq	r0, r0, sl, lsr #32
    3530:	45070203 	strmi	r0, [r7, #-515]	; 0xfffffdfd
    3534:	04000000 	streq	r0, [r0], #-0
    3538:	0000028a 	andeq	r0, r0, sl, lsl #5
    353c:	69193403 	ldmdbvs	r9, {r0, r1, sl, ip, sp}
    3540:	03000000 	movweq	r0, #0
    3544:	00950704 	addseq	r0, r5, r4, lsl #14
    3548:	08030000 	stmdaeq	r3, {}	; <UNPREDICTABLE>
    354c:	00009007 	andeq	r9, r0, r7
    3550:	08010300 	stmdaeq	r1, {r8, r9}
    3554:	00000033 	andeq	r0, r0, r3, lsr r0
    3558:	00007705 	andeq	r7, r0, r5, lsl #14
    355c:	04080300 	streq	r0, [r8], #-768	; 0xfffffd00
    3560:	00000499 	muleq	r0, r9, r4
    3564:	07070406 	streq	r0, [r7, -r6, lsl #8]
    3568:	00002c04 	andeq	r2, r0, r4, lsl #24
    356c:	061f0100 	ldreq	r0, [pc], -r0, lsl #2
    3570:	000000a4 	andeq	r0, r0, r4, lsr #1
    3574:	000ab008 	andeq	fp, sl, r8
    3578:	20000000 	andcs	r0, r0, r0
    357c:	80090000 	andhi	r0, r9, r0
    3580:	01000006 	tsteq	r0, r6
    3584:	00770d22 	rsbseq	r0, r7, r2, lsr #26
    3588:	e40a0000 	str	r0, [sl], #-0
    358c:	01000003 	tsteq	r0, r3
    3590:	00c20e23 	sbceq	r0, r2, r3, lsr #28
    3594:	03050000 	movweq	r0, #20480	; 0x5000
    3598:	0000a148 	andeq	sl, r0, r8, asr #2
    359c:	0077040b 	rsbseq	r0, r7, fp, lsl #8
    35a0:	940a0000 	strls	r0, [sl], #-0
    35a4:	0100000a 	tsteq	r0, sl
    35a8:	00c20e24 	sbceq	r0, r2, r4, lsr #28
    35ac:	03050000 	movweq	r0, #20480	; 0x5000
    35b0:	0000a144 	andeq	sl, r0, r4, asr #2
    35b4:	000af50a 	andeq	pc, sl, sl, lsl #10
    35b8:	0e250100 	sufeqs	f0, f5, f0
    35bc:	000000c2 	andeq	r0, r0, r2, asr #1
    35c0:	a1400305 	cmpge	r0, r5, lsl #6
    35c4:	cb0c0000 	blgt	3035cc <__bss_end__+0x2f904c>
    35c8:	0100000a 	tsteq	r0, sl
    35cc:	984c0675 	stmdals	ip, {r0, r2, r4, r5, r6, r9, sl}^
    35d0:	00600000 	rsbeq	r0, r0, r0
    35d4:	9c010000 	stcls	0, cr0, [r1], {-0}
    35d8:	00000164 	andeq	r0, r0, r4, ror #2
    35dc:	0100700d 	tsteq	r0, sp
    35e0:	008a1675 	addeq	r1, sl, r5, ror r6
    35e4:	14620000 	strbtne	r0, [r2], #-0
    35e8:	145c0000 	ldrbne	r0, [ip], #-0
    35ec:	6f0e0000 	svcvs	0x000e0000
    35f0:	74000000 	strvc	r0, [r0], #-0
    35f4:	05000001 	streq	r0, [r0, #-1]
    35f8:	00a13003 	adceq	r3, r1, r3
    35fc:	98980f00 	ldmls	r8, {r8, r9, sl, fp}
    3600:	08bc0000 	ldmeq	ip!, {}	; <UNPREDICTABLE>
    3604:	015a0000 	cmpeq	sl, r0
    3608:	01100000 	tsteq	r0, r0
    360c:	a8030550 	stmdage	r3, {r4, r6, r8, sl}
    3610:	100000a0 	andne	r0, r0, r0, lsr #1
    3614:	03055101 	movweq	r5, #20737	; 0x5101
    3618:	00009f40 	andeq	r9, r0, r0, asr #30
    361c:	05520110 	ldrbeq	r0, [r2, #-272]	; 0xfffffef0
    3620:	00a13003 	adceq	r3, r1, r3
    3624:	53011000 	movwpl	r1, #4096	; 0x1000
    3628:	10770802 	rsbsne	r0, r7, r2, lsl #16
    362c:	03007d02 	movweq	r7, #3330	; 0xd02
    3630:	005001f3 	ldrsheq	r0, [r0], #-19	; 0xffffffed
    3634:	00989c11 	addseq	r9, r8, r1, lsl ip
    3638:	0008c800 	andeq	ip, r8, r0, lsl #16
    363c:	7e120000 	cdpvc	0, 1, cr0, cr2, cr0, {0}
    3640:	74000000 	strvc	r0, [r0], #-0
    3644:	13000001 	movwne	r0, #1
    3648:	0000002c 	andeq	r0, r0, ip, lsr #32
    364c:	64050009 	strvs	r0, [r5], #-9
    3650:	14000001 	strne	r0, [r0], #-1
    3654:	00000ab9 			; <UNDEFINED> instruction: 0x00000ab9
    3658:	38067201 	stmdacc	r6, {r0, r9, ip, sp, lr}
    365c:	14000098 	strne	r0, [r0], #-152	; 0xffffff68
    3660:	01000000 	mrseq	r0, (UNDEF: 0)
    3664:	011a0c9c 			; <UNDEFINED> instruction: 0x011a0c9c
    3668:	6f010000 	svcvs	0x00010000
    366c:	00983406 	addseq	r3, r8, r6, lsl #8
    3670:	00000400 	andeq	r0, r0, r0, lsl #8
    3674:	ae9c0100 	fmlgee	f0, f4, f0
    3678:	15000001 	strne	r0, [r0, #-1]
    367c:	6f010070 	svcvs	0x00010070
    3680:	00008a12 	andeq	r8, r0, r2, lsl sl
    3684:	00500100 	subseq	r0, r0, r0, lsl #2
    3688:	000b5816 	andeq	r5, fp, r6, lsl r8
    368c:	075e0100 	ldrbeq	r0, [lr, -r0, lsl #2]
    3690:	0000008a 	andeq	r0, r0, sl, lsl #1
    3694:	0000971c 	andeq	r9, r0, ip, lsl r7
    3698:	00000118 	andeq	r0, r0, r8, lsl r1
    369c:	042c9c01 	strteq	r9, [ip], #-3073	; 0xfffff3ff
    36a0:	f9170000 			; <UNDEFINED> instruction: 0xf9170000
    36a4:	01000002 	tsteq	r0, r2
    36a8:	002c205e 	eoreq	r2, ip, lr, asr r0
    36ac:	14a30000 	strtne	r0, [r3], #0
    36b0:	148f0000 	strne	r0, [pc], #0	; 36b8 <__code_start__-0x4948>
    36b4:	d5170000 	ldrle	r0, [r7, #-0]
    36b8:	0100000a 	tsteq	r0, sl
    36bc:	002c315e 	eoreq	r3, ip, lr, asr r1
    36c0:	153c0000 	ldrne	r0, [ip, #-0]!
    36c4:	15280000 	strne	r0, [r8, #-0]!
    36c8:	6f0e0000 	svcvs	0x000e0000
    36cc:	3c000000 	stccc	0, cr0, [r0], {-0}
    36d0:	05000004 	streq	r0, [r0, #-4]
    36d4:	00a11803 	adceq	r1, r1, r3, lsl #16
    36d8:	00681800 	rsbeq	r1, r8, r0, lsl #16
    36dc:	2c0e6601 	stccs	6, cr6, [lr], {1}
    36e0:	f2000000 	vhadd.s8	d0, d0, d0
    36e4:	e6000015 			; <UNDEFINED> instruction: 0xe6000015
    36e8:	19000015 	stmdbne	r0, {r0, r2, r4}
    36ec:	00000854 	andeq	r0, r0, r4, asr r8
    36f0:	0000972c 	andeq	r9, r0, ip, lsr #14
    36f4:	00972c04 	addseq	r2, r7, r4, lsl #24
    36f8:	00000400 	andeq	r0, r0, r0, lsl #8
    36fc:	05600100 	strbeq	r0, [r0, #-256]!	; 0xffffff00
    3700:	00000238 	andeq	r0, r0, r8, lsr r2
    3704:	0008651a 	andeq	r6, r8, sl, lsl r5
    3708:	00164600 	andseq	r4, r6, r0, lsl #12
    370c:	00164400 	andseq	r4, r6, r0, lsl #8
    3710:	96190000 	ldrls	r0, [r9], -r0
    3714:	38000008 	stmdacc	r0, {r3}
    3718:	02000097 	andeq	r0, r0, #151, 0	; 0x97
    371c:	00009738 	andeq	r9, r0, r8, lsr r7
    3720:	00000008 	andeq	r0, r0, r8
    3724:	6c116101 	ldfvss	f6, [r1], {1}
    3728:	1a000002 	bne	3738 <__code_start__-0x48c8>
    372c:	000008b1 			; <UNDEFINED> instruction: 0x000008b1
    3730:	0000165b 	andeq	r1, r0, fp, asr r6
    3734:	00001659 	andeq	r1, r0, r9, asr r6
    3738:	0008a71a 	andeq	sl, r8, sl, lsl r7
    373c:	00167100 	andseq	r7, r6, r0, lsl #2
    3740:	00166f00 	andseq	r6, r6, r0, lsl #30
    3744:	1f1b0000 	svcne	0x001b0000
    3748:	48000008 	stmdami	r0, {r3}
    374c:	01000097 	swpeq	r0, r7, [r0]	; <UNPREDICTABLE>
    3750:	00000070 	andeq	r0, r0, r0, ror r0
    3754:	0a096701 	beq	25d360 <__bss_end__+0x252de0>
    3758:	1a000003 	bne	376c <__code_start__-0x4894>
    375c:	0000083a 	andeq	r0, r0, sl, lsr r8
    3760:	0000168a 	andeq	r1, r0, sl, lsl #13
    3764:	00001684 	andeq	r1, r0, r4, lsl #13
    3768:	0008301a 	andeq	r3, r8, sl, lsl r0
    376c:	0016d100 	andseq	sp, r6, r0, lsl #2
    3770:	0016c900 	andseq	ip, r6, r0, lsl #18
    3774:	00701c00 	rsbseq	r1, r0, r0, lsl #24
    3778:	54190000 	ldrpl	r0, [r9], #-0
    377c:	48000008 	stmdami	r0, {r3}
    3780:	04000097 	streq	r0, [r0], #-151	; 0xffffff69
    3784:	00009748 	andeq	r9, r0, r8, asr #14
    3788:	00000004 	andeq	r0, r0, r4
    378c:	c7051101 	strgt	r1, [r5, -r1, lsl #2]
    3790:	1a000002 	bne	37a0 <__code_start__-0x4860>
    3794:	00000865 	andeq	r0, r0, r5, ror #16
    3798:	0000170f 	andeq	r1, r0, pc, lsl #14
    379c:	0000170d 	andeq	r1, r0, sp, lsl #14
    37a0:	97e00f00 	strbls	r0, [r0, r0, lsl #30]!
    37a4:	08bc0000 	ldmeq	ip!, {}	; <UNPREDICTABLE>
    37a8:	02ff0000 	rscseq	r0, pc, #0, 0
    37ac:	01100000 	tsteq	r0, r0
    37b0:	6c030550 	cfstr32vs	mvfx0, [r3], {80}	; 0x50
    37b4:	1000009b 	mulne	r0, fp, r0
    37b8:	03055101 	movweq	r5, #20737	; 0x5101
    37bc:	00009f40 	andeq	r9, r0, r0, asr #30
    37c0:	05520110 	ldrbeq	r0, [r2, #-272]	; 0xfffffef0
    37c4:	00a12803 	adceq	r2, r1, r3, lsl #16
    37c8:	53011000 	movwpl	r1, #4096	; 0x1000
    37cc:	02104101 	andseq	r4, r0, #1073741824	; 0x40000000
    37d0:	0305007d 	movweq	r0, #20605	; 0x507d
    37d4:	0000a054 	andeq	sl, r0, r4, asr r0
    37d8:	97e41100 	strbls	r1, [r4, r0, lsl #2]!
    37dc:	08c80000 	stmiaeq	r8, {}^	; <UNPREDICTABLE>
    37e0:	00000000 	andeq	r0, r0, r0
    37e4:	00087019 	andeq	r7, r8, r9, lsl r0
    37e8:	00976000 	addseq	r6, r7, r0
    37ec:	97600300 	strbls	r0, [r0, -r0, lsl #6]!
    37f0:	00040000 	andeq	r0, r4, r0
    37f4:	68010000 	stmdavs	r1, {}	; <UNPREDICTABLE>
    37f8:	00033e05 	andeq	r3, r3, r5, lsl #28
    37fc:	088b1a00 	stmeq	fp, {r9, fp, ip}
    3800:	17240000 	strne	r0, [r4, -r0]!
    3804:	17220000 	strne	r0, [r2, -r0]!
    3808:	811a0000 	tsthi	sl, r0
    380c:	39000008 	stmdbcc	r0, {r3}
    3810:	37000017 	smladcc	r0, r7, r0, r0
    3814:	00000017 	andeq	r0, r0, r7, lsl r0
    3818:	0097780f 	addseq	r7, r7, pc, lsl #16
    381c:	00044100 	andeq	r4, r4, r0, lsl #2
    3820:	00035300 	andeq	r5, r3, r0, lsl #6
    3824:	50011000 	andpl	r1, r1, r0
    3828:	5001f303 	andpl	pc, r1, r3, lsl #6
    382c:	979c0f00 	ldrls	r0, [ip, r0, lsl #30]
    3830:	08bc0000 	ldmeq	ip!, {}	; <UNPREDICTABLE>
    3834:	038c0000 	orreq	r0, ip, #0, 0
    3838:	01100000 	tsteq	r0, r0
    383c:	6c030550 	cfstr32vs	mvfx0, [r3], {80}	; 0x50
    3840:	1000009b 	mulne	r0, fp, r0
    3844:	03055101 	movweq	r5, #20737	; 0x5101
    3848:	00009f40 	andeq	r9, r0, r0, asr #30
    384c:	05520110 	ldrbeq	r0, [r2, #-272]	; 0xfffffef0
    3850:	00a11803 	adceq	r1, r1, r3, lsl #16
    3854:	53011000 	movwpl	r1, #4096	; 0x1000
    3858:	105f0802 	subsne	r0, pc, r2, lsl #16
    385c:	05007d02 	streq	r7, [r0, #-3330]	; 0xfffff2fe
    3860:	009f5003 	addseq	r5, pc, r3
    3864:	a0110000 	andsge	r0, r1, r0
    3868:	c8000097 	stmdagt	r0, {r0, r1, r2, r4, r7}
    386c:	11000008 	tstne	r0, r8
    3870:	000097a4 	andeq	r9, r0, r4, lsr #15
    3874:	000008d4 	ldrdeq	r0, [r0], -r4
    3878:	0097c00f 	addseq	ip, r7, pc
    387c:	0008bc00 	andeq	fp, r8, r0, lsl #24
    3880:	0003d700 	andeq	sp, r3, r0, lsl #14
    3884:	50011000 	andpl	r1, r1, r0
    3888:	a00c0305 	andge	r0, ip, r5, lsl #6
    388c:	01100000 	tsteq	r0, r0
    3890:	40030551 	andmi	r0, r3, r1, asr r5
    3894:	1000009f 	mulne	r0, pc, r0	; <UNPREDICTABLE>
    3898:	03055201 	movweq	r5, #20993	; 0x5201
    389c:	0000a118 	andeq	sl, r0, r8, lsl r1
    38a0:	02530110 	subseq	r0, r3, #4
    38a4:	02106008 	andseq	r6, r0, #8, 0
    38a8:	0305007d 	movweq	r0, #20605	; 0x507d
    38ac:	0000a040 	andeq	sl, r0, r0, asr #32
    38b0:	97c41100 	strbls	r1, [r4, r0, lsl #2]
    38b4:	08c80000 	stmiaeq	r8, {}^	; <UNPREDICTABLE>
    38b8:	e8110000 	ldmda	r1, {}	; <UNPREDICTABLE>
    38bc:	d4000097 	strle	r0, [r0], #-151	; 0xffffff69
    38c0:	0f000008 	svceq	0x00000008
    38c4:	00009804 	andeq	r9, r0, r4, lsl #16
    38c8:	000008bc 			; <UNDEFINED> instruction: 0x000008bc
    38cc:	00000422 	andeq	r0, r0, r2, lsr #8
    38d0:	05500110 	ldrbeq	r0, [r0, #-272]	; 0xfffffef0
    38d4:	00a06003 	adceq	r6, r0, r3
    38d8:	51011000 	mrspl	r1, (UNDEF: 1)
    38dc:	9f400305 	svcls	0x00400305
    38e0:	01100000 	tsteq	r0, r0
    38e4:	18030552 	stmdane	r3, {r1, r4, r6, r8, sl}
    38e8:	100000a1 	andne	r0, r0, r1, lsr #1
    38ec:	08025301 	stmdaeq	r2, {r0, r8, r9, ip, lr}
    38f0:	7d021068 	stcvc	0, cr1, [r2, #-416]	; 0xfffffe60
    38f4:	8c030500 	cfstr32hi	mvfx0, [r3], {-0}
    38f8:	000000a0 	andeq	r0, r0, r0, lsr #1
    38fc:	00980811 	addseq	r0, r8, r1, lsl r8
    3900:	0008c800 	andeq	ip, r8, r0, lsl #16
    3904:	7e120000 	cdpvc	0, 1, cr0, cr2, cr0, {0}
    3908:	3c000000 	stccc	0, cr0, [r0], {-0}
    390c:	13000004 	movwne	r0, #4
    3910:	0000002c 	andeq	r0, r0, ip, lsr #32
    3914:	2c05000f 	stccs	0, cr0, [r5], {15}
    3918:	16000004 	strne	r0, [r0], -r4
    391c:	00000415 	andeq	r0, r0, r5, lsl r4
    3920:	8a075301 	bhi	1d852c <__bss_end__+0x1cdfac>
    3924:	b8000000 	stmdalt	r0, {}	; <UNPREDICTABLE>
    3928:	64000096 	strvs	r0, [r0], #-150	; 0xffffff6a
    392c:	01000000 	mrseq	r0, (UNDEF: 0)
    3930:	0005089c 	muleq	r5, ip, r8
    3934:	02f91700 	rscseq	r1, r9, #0, 14
    3938:	53010000 	movwpl	r0, #4096	; 0x1000
    393c:	00002c18 	andeq	r2, r0, r8, lsl ip
    3940:	00175400 	andseq	r5, r7, r0, lsl #8
    3944:	00174c00 	andseq	r4, r7, r0, lsl #24
    3948:	006f0e00 	rsbeq	r0, pc, r0, lsl #28
    394c:	05180000 	ldreq	r0, [r8, #-0]
    3950:	03050000 	movweq	r0, #20480	; 0x5000
    3954:	0000a110 	andeq	sl, r0, r0, lsl r1
    3958:	000aab1d 	andeq	sl, sl, sp, lsl fp
    395c:	0b550100 	bleq	1543d64 <__bss_end__+0x15397e4>
    3960:	0000008a 	andeq	r0, r0, sl, lsl #1
    3964:	0000178c 	andeq	r1, r0, ip, lsl #15
    3968:	00001788 	andeq	r1, r0, r8, lsl #15
    396c:	0096d00f 	addseq	sp, r6, pc
    3970:	00051d00 	andeq	r1, r5, r0, lsl #26
    3974:	0004a600 	andeq	sl, r4, r0, lsl #12
    3978:	50011000 	andpl	r1, r1, r0
    397c:	00007402 	andeq	r7, r0, r2, lsl #8
    3980:	0096e00f 	addseq	lr, r6, pc
    3984:	0008e000 	andeq	lr, r8, r0
    3988:	0004c500 	andeq	ip, r4, r0, lsl #10
    398c:	50011000 	andpl	r1, r1, r0
    3990:	10007502 	andne	r7, r0, r2, lsl #10
    3994:	30015101 	andcc	r5, r1, r1, lsl #2
    3998:	02520110 	subseq	r0, r2, #4
    399c:	0f000074 	svceq	0x00000074
    39a0:	00009708 	andeq	r9, r0, r8, lsl #14
    39a4:	000008bc 			; <UNDEFINED> instruction: 0x000008bc
    39a8:	000004fe 	strdeq	r0, [r0], -lr
    39ac:	05500110 	ldrbeq	r0, [r0, #-272]	; 0xfffffef0
    39b0:	009b6c03 	addseq	r6, fp, r3, lsl #24
    39b4:	51011000 	mrspl	r1, (UNDEF: 1)
    39b8:	9f400305 	svcls	0x00400305
    39bc:	01100000 	tsteq	r0, r0
    39c0:	10030552 	andne	r0, r3, r2, asr r5
    39c4:	100000a1 	andne	r0, r0, r1, lsr #1
    39c8:	08025301 	stmdaeq	r2, {r0, r8, r9, ip, lr}
    39cc:	7d021054 	stcvc	0, cr1, [r2, #-336]	; 0xfffffeb0
    39d0:	50030500 	andpl	r0, r3, r0, lsl #10
    39d4:	0000009f 	muleq	r0, pc, r0	; <UNPREDICTABLE>
    39d8:	00970c11 	addseq	r0, r7, r1, lsl ip
    39dc:	0008c800 	andeq	ip, r8, r0, lsl #16
    39e0:	7e120000 	cdpvc	0, 1, cr0, cr2, cr0, {0}
    39e4:	18000000 	stmdane	r0, {}	; <UNPREDICTABLE>
    39e8:	13000005 	movwne	r0, #5
    39ec:	0000002c 	andeq	r0, r0, ip, lsr #32
    39f0:	08050007 	stmdaeq	r5, {r0, r1, r2}
    39f4:	16000005 	strne	r0, [r0], -r5
    39f8:	00000afe 	strdeq	r0, [r0], -lr
    39fc:	8a074701 	bhi	1d5608 <__bss_end__+0x1cb088>
    3a00:	20000000 	andcs	r0, r0, r0
    3a04:	98000096 	stmdals	r0, {r1, r2, r4, r7}
    3a08:	01000000 	mrseq	r0, (UNDEF: 0)
    3a0c:	00062b9c 	muleq	r6, ip, fp
    3a10:	02f91700 	rscseq	r1, r9, #0, 14
    3a14:	47010000 	strmi	r0, [r1, -r0]
    3a18:	00002c20 	andeq	r2, r0, r0, lsr #24
    3a1c:	0017ba00 	andseq	fp, r7, r0, lsl #20
    3a20:	0017aa00 	andseq	sl, r7, r0, lsl #20
    3a24:	006f0e00 	rsbeq	r0, pc, r0, lsl #28
    3a28:	043c0000 	ldrteq	r0, [ip], #-0
    3a2c:	03050000 	movweq	r0, #20480	; 0x5000
    3a30:	0000a100 	andeq	sl, r0, r0, lsl #2
    3a34:	000aab1d 	andeq	sl, sl, sp, lsl fp
    3a38:	0b4b0100 	bleq	12c3e40 <__bss_end__+0x12b98c0>
    3a3c:	0000008a 	andeq	r0, r0, sl, lsl #1
    3a40:	0000182e 	andeq	r1, r0, lr, lsr #16
    3a44:	00001828 	andeq	r1, r0, r8, lsr #16
    3a48:	00081f1b 	andeq	r1, r8, fp, lsl pc
    3a4c:	00963000 	addseq	r3, r6, r0
    3a50:	00580300 	subseq	r0, r8, r0, lsl #6
    3a54:	49010000 	stmdbmi	r1, {}	; <UNPREDICTABLE>
    3a58:	0005a30e 	andeq	sl, r5, lr, lsl #6
    3a5c:	083a1a00 	ldmdaeq	sl!, {r9, fp, ip}
    3a60:	185d0000 	ldmdane	sp, {}^	; <UNPREDICTABLE>
    3a64:	185b0000 	ldmdane	fp, {}^	; <UNPREDICTABLE>
    3a68:	301a0000 	andscc	r0, sl, r0
    3a6c:	75000008 	strvc	r0, [r0, #-8]
    3a70:	71000018 	tstvc	r0, r8, lsl r0
    3a74:	1e000018 	mcrne	0, 0, r0, cr0, cr8, {0}
    3a78:	00000058 	andeq	r0, r0, r8, asr r0
    3a7c:	96780f00 	ldrbtls	r0, [r8], -r0, lsl #30
    3a80:	08bc0000 	ldmeq	ip!, {}	; <UNPREDICTABLE>
    3a84:	05dc0000 	ldrbeq	r0, [ip]
    3a88:	01100000 	tsteq	r0, r0
    3a8c:	6c030550 	cfstr32vs	mvfx0, [r3], {80}	; 0x50
    3a90:	1000009b 	mulne	r0, fp, r0
    3a94:	03055101 	movweq	r5, #20737	; 0x5101
    3a98:	00009f40 	andeq	r9, r0, r0, asr #30
    3a9c:	05520110 	ldrbeq	r0, [r2, #-272]	; 0xfffffef0
    3aa0:	00a10003 	adceq	r0, r1, r3
    3aa4:	53011000 	movwpl	r1, #4096	; 0x1000
    3aa8:	10480802 	subne	r0, r8, r2, lsl #16
    3aac:	05007d02 	streq	r7, [r0, #-3330]	; 0xfffff2fe
    3ab0:	009f5003 	addseq	r5, pc, r3
    3ab4:	7c110000 	ldcvc	0, cr0, [r1], {-0}
    3ab8:	c8000096 	stmdagt	r0, {r1, r2, r4, r7}
    3abc:	0f000008 	svceq	0x00000008
    3ac0:	0000969c 	muleq	r0, ip, r6
    3ac4:	000008bc 			; <UNDEFINED> instruction: 0x000008bc
    3ac8:	00000621 	andeq	r0, r0, r1, lsr #12
    3acc:	05500110 	ldrbeq	r0, [r0, #-272]	; 0xfffffef0
    3ad0:	009fcc03 	addseq	ip, pc, r3, lsl #24
    3ad4:	51011000 	mrspl	r1, (UNDEF: 1)
    3ad8:	9f400305 	svcls	0x00400305
    3adc:	01100000 	tsteq	r0, r0
    3ae0:	00030552 	andeq	r0, r3, r2, asr r5
    3ae4:	100000a1 	andne	r0, r0, r1, lsr #1
    3ae8:	08025301 	stmdaeq	r2, {r0, r8, r9, ip, lr}
    3aec:	7d02104e 	stcvc	0, cr1, [r2, #-312]	; 0xfffffec8
    3af0:	01f30800 	mvnseq	r0, r0, lsl #16
    3af4:	09072350 	stmdbeq	r7, {r4, r6, r8, r9, sp}
    3af8:	11001af8 	strdne	r1, [r0, -r8]
    3afc:	000096a0 	andeq	r9, r0, r0, lsr #13
    3b00:	000008c8 	andeq	r0, r0, r8, asr #17
    3b04:	0b200c00 	bleq	806b0c <__bss_end__+0x7fc58c>
    3b08:	3c010000 	stccc	0, cr0, [r1], {-0}
    3b0c:	0095c806 	addseq	ip, r5, r6, lsl #16
    3b10:	00005800 	andeq	r5, r0, r0, lsl #16
    3b14:	cf9c0100 	svcgt	0x009c0100
    3b18:	0a000006 	beq	3b38 <__code_start__-0x44c8>
    3b1c:	0000035d 	andeq	r0, r0, sp, asr r3
    3b20:	25103d01 	ldrcs	r3, [r0, #-3329]	; 0xfffff2ff
    3b24:	05000000 	streq	r0, [r0, #-0]
    3b28:	00a57803 	adceq	r7, r5, r3, lsl #16
    3b2c:	006f0e00 	rsbeq	r0, pc, r0, lsl #28
    3b30:	06df0000 	ldrbeq	r0, [pc], r0
    3b34:	03050000 	movweq	r0, #20480	; 0x5000
    3b38:	0000a0f0 	strdeq	sl, [r0], -r0
    3b3c:	2c040707 	stccs	7, cr0, [r4], {7}
    3b40:	01000000 	mrseq	r0, (UNDEF: 0)
    3b44:	067a0a42 	ldrbteq	r0, [sl], -r2, asr #20
    3b48:	e7080000 	str	r0, [r8, -r0]
    3b4c:	0000000a 	andeq	r0, r0, sl
    3b50:	00001000 	andeq	r1, r0, r0
    3b54:	0095f40f 	addseq	pc, r5, pc, lsl #8
    3b58:	0006e400 	andeq	lr, r6, r0, lsl #8
    3b5c:	00069600 	andeq	r9, r6, r0, lsl #12
    3b60:	50011000 	andpl	r1, r1, r0
    3b64:	24404003 	strbcs	r4, [r0], #-3
    3b68:	03510110 	cmpeq	r1, #4
    3b6c:	00244840 	eoreq	r4, r4, r0, asr #16
    3b70:	00960c0f 	addseq	r0, r6, pc, lsl #24
    3b74:	0008bc00 	andeq	fp, r8, r0, lsl #24
    3b78:	0006c500 	andeq	ip, r6, r0, lsl #10
    3b7c:	50011000 	andpl	r1, r1, r0
    3b80:	9f9c0305 	svcls	0x009c0305
    3b84:	01100000 	tsteq	r0, r0
    3b88:	40030551 	andmi	r0, r3, r1, asr r5
    3b8c:	1000009f 	mulne	r0, pc, r0	; <UNPREDICTABLE>
    3b90:	03055201 	movweq	r5, #20993	; 0x5201
    3b94:	0000a0f0 	strdeq	sl, [r0], -r0
    3b98:	02530110 	subseq	r0, r3, #4
    3b9c:	11004008 	tstne	r0, r8
    3ba0:	00009610 	andeq	r9, r0, r0, lsl r6
    3ba4:	000008c8 	andeq	r0, r0, r8, asr #17
    3ba8:	007e1200 	rsbseq	r1, lr, r0, lsl #4
    3bac:	06df0000 	ldrbeq	r0, [pc], r0
    3bb0:	2c130000 	ldccs	0, cr0, [r3], {-0}
    3bb4:	0c000000 	stceq	0, cr0, [r0], {-0}
    3bb8:	06cf0500 	strbeq	r0, [pc], r0, lsl #10
    3bbc:	1d0c0000 	stcne	0, cr0, [ip, #-0]
    3bc0:	01000004 	tsteq	r0, r4
    3bc4:	952c062d 	strls	r0, [ip, #-1581]!	; 0xfffff9d3
    3bc8:	009c0000 	addseq	r0, ip, r0
    3bcc:	9c010000 	stcls	0, cr0, [r1], {-0}
    3bd0:	000007c8 	andeq	r0, r0, r8, asr #15
    3bd4:	000aaa17 	andeq	sl, sl, r7, lsl sl
    3bd8:	262d0100 	strtcs	r0, [sp], -r0, lsl #2
    3bdc:	0000002c 	andeq	r0, r0, ip, lsr #32
    3be0:	000018a3 	andeq	r1, r0, r3, lsr #17
    3be4:	00001895 	muleq	r0, r5, r8
    3be8:	000a9f17 	andeq	r9, sl, r7, lsl pc
    3bec:	362d0100 	strtcc	r0, [sp], -r0, lsl #2
    3bf0:	0000002c 	andeq	r0, r0, ip, lsr #32
    3bf4:	0000190b 	andeq	r1, r0, fp, lsl #18
    3bf8:	00001903 	andeq	r1, r0, r3, lsl #18
    3bfc:	000aab1d 	andeq	sl, sl, sp, lsl fp
    3c00:	0b2e0100 	bleq	b84008 <__bss_end__+0xb79a88>
    3c04:	000000c2 	andeq	r0, r0, r2, asr #1
    3c08:	00001953 	andeq	r1, r0, r3, asr r9
    3c0c:	00001945 	andeq	r1, r0, r5, asr #18
    3c10:	00006f0e 	andeq	r6, r0, lr, lsl #30
    3c14:	0007d800 	andeq	sp, r7, r0, lsl #16
    3c18:	d8030500 	stmdale	r3, {r8, sl}
    3c1c:	0f0000a0 	svceq	0x000000a0
    3c20:	00009584 	andeq	r9, r0, r4, lsl #11
    3c24:	000008bc 			; <UNDEFINED> instruction: 0x000008bc
    3c28:	0000077e 	andeq	r0, r0, lr, ror r7
    3c2c:	05500110 	ldrbeq	r0, [r0, #-272]	; 0xfffffef0
    3c30:	009b6c03 	addseq	r6, fp, r3, lsl #24
    3c34:	51011000 	mrspl	r1, (UNDEF: 1)
    3c38:	9f400305 	svcls	0x00400305
    3c3c:	01100000 	tsteq	r0, r0
    3c40:	d8030552 	stmdale	r3, {r1, r4, r6, r8, sl}
    3c44:	100000a0 	andne	r0, r0, r0, lsr #1
    3c48:	08025301 	stmdaeq	r2, {r0, r8, r9, ip, lr}
    3c4c:	7d021030 	stcvc	0, cr1, [r2, #-192]	; 0xffffff40
    3c50:	4c030500 	cfstr32mi	mvfx0, [r3], {-0}
    3c54:	0000009f 	muleq	r0, pc, r0	; <UNPREDICTABLE>
    3c58:	00958811 	addseq	r8, r5, r1, lsl r8
    3c5c:	0008c800 	andeq	ip, r8, r0, lsl #16
    3c60:	95ac0f00 	strls	r0, [ip, #3840]!	; 0xf00
    3c64:	08bc0000 	ldmeq	ip!, {}	; <UNPREDICTABLE>
    3c68:	07be0000 	ldreq	r0, [lr, r0]!
    3c6c:	01100000 	tsteq	r0, r0
    3c70:	58030550 	stmdapl	r3, {r4, r6, r8, sl}
    3c74:	1000009f 	mulne	r0, pc, r0	; <UNPREDICTABLE>
    3c78:	03055101 	movweq	r5, #20737	; 0x5101
    3c7c:	00009f40 	andeq	r9, r0, r0, asr #30
    3c80:	05520110 	ldrbeq	r0, [r2, #-272]	; 0xfffffef0
    3c84:	00a0d803 	adceq	sp, r0, r3, lsl #16
    3c88:	53011000 	movwpl	r1, #4096	; 0x1000
    3c8c:	10340802 	eorsne	r0, r4, r2, lsl #16
    3c90:	03007d02 	movweq	r7, #3330	; 0xd02
    3c94:	005001f3 	ldrsheq	r0, [r0], #-19	; 0xffffffed
    3c98:	0095b011 	addseq	fp, r5, r1, lsl r0
    3c9c:	0008c800 	andeq	ip, r8, r0, lsl #16
    3ca0:	7e120000 	cdpvc	0, 1, cr0, cr2, cr0, {0}
    3ca4:	d8000000 	stmdale	r0, {}	; <UNPREDICTABLE>
    3ca8:	13000007 	movwne	r0, #7
    3cac:	0000002c 	andeq	r0, r0, ip, lsr #32
    3cb0:	c8050016 	stmdagt	r5, {r1, r2, r4}
    3cb4:	1f000007 	svcne	0x00000007
    3cb8:	00000b38 	andeq	r0, r0, r8, lsr fp
    3cbc:	8a072a01 	bhi	1ce4c8 <__bss_end__+0x1c3f48>
    3cc0:	1c000000 	stcne	0, cr0, [r0], {-0}
    3cc4:	10000095 	mulne	r0, r5, r0
    3cc8:	01000000 	mrseq	r0, (UNDEF: 0)
    3ccc:	0a8c1f9c 	beq	fe30bb44 <__bss_end__+0xfe3015c4>
    3cd0:	29010000 	stmdbcs	r1, {}	; <UNPREDICTABLE>
    3cd4:	00008a07 	andeq	r8, r0, r7, lsl #20
    3cd8:	00950c00 	addseq	r0, r5, r0, lsl #24
    3cdc:	00001000 	andeq	r1, r0, r0
    3ce0:	1f9c0100 	svcne	0x009c0100
    3ce4:	00000aed 	andeq	r0, r0, sp, ror #21
    3ce8:	8a072801 	bhi	1cdcf4 <__bss_end__+0x1c3774>
    3cec:	fc000000 	stc2	0, cr0, [r0], {-0}
    3cf0:	10000094 	mulne	r0, r4, r0
    3cf4:	01000000 	mrseq	r0, (UNDEF: 0)
    3cf8:	0ac3209c 	beq	ff0cbf70 <__bss_end__+0xff0c19f0>
    3cfc:	10010000 	andne	r0, r1, r0
    3d00:	00002c18 	andeq	r2, r0, r8, lsl ip
    3d04:	08540300 	ldmdaeq	r4, {r8, r9}^
    3d08:	78210000 	stmdavc	r1!, {}	; <UNPREDICTABLE>
    3d0c:	29100100 	ldmdbcs	r0, {r8}
    3d10:	0000002c 	andeq	r0, r0, ip, lsr #32
    3d14:	01006e21 	tsteq	r0, r1, lsr #28
    3d18:	002c3510 	eoreq	r3, ip, r0, lsl r5
    3d1c:	6f0e0000 	svcvs	0x000e0000
    3d20:	18000000 	stmdane	r0, {}	; <UNPREDICTABLE>
    3d24:	05000005 	streq	r0, [r0, #-5]
    3d28:	00a12803 	adceq	r2, r1, r3, lsl #16
    3d2c:	0e200000 	cdpeq	0, 2, cr0, cr0, cr0, {0}
    3d30:	0100000b 	tsteq	r0, fp
    3d34:	002c180d 	eoreq	r1, ip, sp, lsl #16
    3d38:	70030000 	andvc	r0, r3, r0
    3d3c:	21000008 	tstcs	r0, r8
    3d40:	0d010078 	stceq	0, cr0, [r1, #-480]	; 0xfffffe20
    3d44:	00002c29 	andeq	r2, r0, r9, lsr #24
    3d48:	2d200000 	stccs	0, cr0, [r0, #-0]
    3d4c:	0100000b 	tsteq	r0, fp
    3d50:	002c1807 	eoreq	r1, ip, r7, lsl #16
    3d54:	96030000 	strls	r0, [r3], -r0
    3d58:	21000008 	tstcs	r0, r8
    3d5c:	07010078 	smlsdxeq	r1, r8, r0, r0
    3d60:	00002c2c 	andeq	r2, r0, ip, lsr #24
    3d64:	006e2100 	rsbeq	r2, lr, r0, lsl #2
    3d68:	2c380701 	ldccs	7, cr0, [r8], #-4
    3d6c:	00000000 	andeq	r0, r0, r0
    3d70:	000adf20 	andeq	sp, sl, r0, lsr #30
    3d74:	18040100 	stmdane	r4, {r8}
    3d78:	0000005d 	andeq	r0, r0, sp, asr r0
    3d7c:	0008bc03 	andeq	fp, r8, r3, lsl #24
    3d80:	00782100 	rsbseq	r2, r8, r0, lsl #2
    3d84:	5d290401 	cfstrspl	mvf0, [r9, #-4]!
    3d88:	21000000 	mrscs	r0, (UNDEF: 0)
    3d8c:	04010079 	streq	r0, [r1], #-121	; 0xffffff87
    3d90:	00005d35 	andeq	r5, r0, r5, lsr sp
    3d94:	ee220000 	cdp	0, 2, cr0, cr2, cr0, {0}
    3d98:	ee000005 	cdp	0, 0, cr0, cr0, cr5, {0}
    3d9c:	02000005 	andeq	r0, r0, #5, 0
    3da0:	38220628 	stmdacc	r2!, {r3, r5, r9, sl}
    3da4:	38000000 	stmdacc	r0, {}	; <UNPREDICTABLE>
    3da8:	02000000 	andeq	r0, r0, #0, 0
    3dac:	4922066e 	stmdbmi	r2!, {r1, r2, r3, r5, r6, r9, sl}
    3db0:	4900000b 	stmdbmi	r0, {r0, r1, r3}
    3db4:	0200000b 	andeq	r0, r0, #11, 0
    3db8:	6322061d 			; <UNDEFINED> instruction: 0x6322061d
    3dbc:	63000000 	movwvs	r0, #0
    3dc0:	02000000 	andeq	r0, r0, #0, 0
    3dc4:	490007f7 	stmdbmi	r0, {r0, r1, r2, r4, r5, r6, r7, r8, r9, sl}
    3dc8:	04000001 	streq	r0, [r0], #-1
    3dcc:	0014c100 	andseq	ip, r4, r0, lsl #2
    3dd0:	bd010400 	cfstrslt	mvf0, [r1, #-0]
    3dd4:	0c000004 	stceq	0, cr0, [r0], {4}
    3dd8:	00000b86 	andeq	r0, r0, r6, lsl #23
    3ddc:	0000059e 	muleq	r0, lr, r5
    3de0:	000098ac 	andeq	r9, r0, ip, lsr #17
    3de4:	0000003c 	andeq	r0, r0, ip, lsr r0
    3de8:	00001e21 	andeq	r1, r0, r1, lsr #28
    3dec:	69050402 	stmdbvs	r5, {r1, sl}
    3df0:	0300746e 	movweq	r7, #1134	; 0x46e
    3df4:	009a0704 	addseq	r0, sl, r4, lsl #14
    3df8:	01030000 	mrseq	r0, (UNDEF: 3)
    3dfc:	00002c06 	andeq	r2, r0, r6, lsl #24
    3e00:	05020300 	streq	r0, [r2, #-768]	; 0xfffffd00
    3e04:	00000120 	andeq	r0, r0, r0, lsr #2
    3e08:	04050403 	streq	r0, [r5], #-1027	; 0xfffffbfd
    3e0c:	03000001 	movweq	r0, #1
    3e10:	00ff0508 	rscseq	r0, pc, r8, lsl #10
    3e14:	01030000 	mrseq	r0, (UNDEF: 3)
    3e18:	00002a08 	andeq	r2, r0, r8, lsl #20
    3e1c:	07020300 	streq	r0, [r2, -r0, lsl #6]
    3e20:	00000045 	andeq	r0, r0, r5, asr #32
    3e24:	95070403 	strls	r0, [r7, #-1027]	; 0xfffffbfd
    3e28:	03000000 	movweq	r0, #0
    3e2c:	00900708 	addseq	r0, r0, r8, lsl #14
    3e30:	25040000 	strcs	r0, [r4, #-0]
    3e34:	7a000000 	bvc	3e3c <__code_start__-0x41c4>
    3e38:	05000000 	streq	r0, [r0, #-0]
    3e3c:	00000025 	andeq	r0, r0, r5, lsr #32
    3e40:	010d0600 	tsteq	sp, r0, lsl #12
    3e44:	1c020000 	stcne	0, cr0, [r2], {-0}
    3e48:	0000860e 	andeq	r8, r0, lr, lsl #12
    3e4c:	6b040700 	blvs	105a54 <__bss_end__+0xfb4d4>
    3e50:	04000000 	streq	r0, [r0], #-0
    3e54:	00000025 	andeq	r0, r0, r5, lsr #32
    3e58:	0000009b 	muleq	r0, fp, r0
    3e5c:	00009b05 	andeq	r9, r0, r5, lsl #22
    3e60:	04070000 	streq	r0, [r7], #-0
    3e64:	000000a8 	andeq	r0, r0, r8, lsr #1
    3e68:	33080103 	movwcc	r0, #33027	; 0x8103
    3e6c:	08000000 	stmdaeq	r0, {}	; <UNPREDICTABLE>
    3e70:	000000a1 	andeq	r0, r0, r1, lsr #1
    3e74:	00062c06 	andeq	r2, r6, r6, lsl #24
    3e78:	0e210200 	cdpeq	2, 2, cr0, cr1, cr0, {0}
    3e7c:	000000b9 	strheq	r0, [r0], -r9
    3e80:	008c0407 	addeq	r0, ip, r7, lsl #8
    3e84:	7a090000 	bvc	243e8c <__bss_end__+0x23990c>
    3e88:	01000000 	mrseq	r0, (UNDEF: 0)
    3e8c:	03050706 	movweq	r0, #22278	; 0x5706
    3e90:	0000a14c 	andeq	sl, r0, ip, asr #2
    3e94:	000b790a 	andeq	r7, fp, sl, lsl #18
    3e98:	060b0100 	streq	r0, [fp], -r0, lsl #2
    3e9c:	000098d8 	ldrdeq	r9, [r0], -r8
    3ea0:	00000010 	andeq	r0, r0, r0, lsl r0
    3ea4:	00f19c01 	rscseq	r9, r1, r1, lsl #24
    3ea8:	660b0000 	strvs	r0, [fp], -r0
    3eac:	0b010070 	bleq	44074 <__bss_end__+0x39af4>
    3eb0:	00008619 	andeq	r8, r0, r9, lsl r6
    3eb4:	00500100 	subseq	r0, r0, r0, lsl #2
    3eb8:	000b490c 	andeq	r4, fp, ip, lsl #18
    3ebc:	06080100 	streq	r0, [r8], -r0, lsl #2
    3ec0:	000098c0 	andeq	r9, r0, r0, asr #17
    3ec4:	00000018 	andeq	r0, r0, r8, lsl r0
    3ec8:	680d9c01 	stmdavs	sp, {r0, sl, fp, ip, pc}
    3ecc:	0100000b 	tsteq	r0, fp
    3ed0:	00250c03 	eoreq	r0, r5, r3, lsl #24
    3ed4:	98ac0000 	stmials	ip!, {}	; <UNPREDICTABLE>
    3ed8:	00140000 	andseq	r0, r4, r0
    3edc:	9c010000 	stcls	0, cr0, [r1], {-0}
    3ee0:	00000140 	andeq	r0, r0, r0, asr #2
    3ee4:	0100630e 	tsteq	r0, lr, lsl #6
    3ee8:	00252103 	eoreq	r2, r5, r3, lsl #2
    3eec:	19b70000 	ldmibne	r7!, {}	; <UNPREDICTABLE>
    3ef0:	19b30000 	ldmibne	r3!, {}	; <UNPREDICTABLE>
    3ef4:	b80f0000 	stmdalt	pc, {}	; <UNPREDICTABLE>
    3ef8:	40000098 	mulmi	r0, r8, r0
    3efc:	10000001 	andne	r0, r0, r1
    3f00:	74025001 	strvc	r5, [r2], #-1
    3f04:	11000000 	mrsne	r0, (UNDEF: 0)
    3f08:	00000a5a 	andeq	r0, r0, sl, asr sl
    3f0c:	00000a5a 	andeq	r0, r0, sl, asr sl
    3f10:	00064202 	andeq	r4, r6, r2, lsl #4
    3f14:	00000137 	andeq	r0, r0, r7, lsr r1
    3f18:	15d00004 	ldrbne	r0, [r0, #4]
    3f1c:	01040000 	mrseq	r0, (UNDEF: 4)
    3f20:	000004bd 			; <UNDEFINED> instruction: 0x000004bd
    3f24:	000b9c0c 	andeq	r9, fp, ip, lsl #24
    3f28:	00059e00 	andeq	r9, r5, r0, lsl #28
    3f2c:	0098e800 	addseq	lr, r8, r0, lsl #16
    3f30:	00003400 	andeq	r3, r0, r0, lsl #8
    3f34:	001ee300 	andseq	lr, lr, r0, lsl #6
    3f38:	05040200 	streq	r0, [r4, #-512]	; 0xfffffe00
    3f3c:	00746e69 	rsbseq	r6, r4, r9, ror #28
    3f40:	9a070403 	bls	1c4f54 <__bss_end__+0x1ba9d4>
    3f44:	03000000 	movweq	r0, #0
    3f48:	002c0601 	eoreq	r0, ip, r1, lsl #12
    3f4c:	02030000 	andeq	r0, r3, #0, 0
    3f50:	00012005 	andeq	r2, r1, r5
    3f54:	05040300 	streq	r0, [r4, #-768]	; 0xfffffd00
    3f58:	00000104 	andeq	r0, r0, r4, lsl #2
    3f5c:	ff050803 			; <UNDEFINED> instruction: 0xff050803
    3f60:	03000000 	movweq	r0, #0
    3f64:	002a0801 	eoreq	r0, sl, r1, lsl #16
    3f68:	02030000 	andeq	r0, r3, #0, 0
    3f6c:	00004507 	andeq	r4, r0, r7, lsl #10
    3f70:	07040300 	streq	r0, [r4, -r0, lsl #6]
    3f74:	00000095 	muleq	r0, r5, r0
    3f78:	90070803 	andls	r0, r7, r3, lsl #16
    3f7c:	04000000 	streq	r0, [r0], #-0
    3f80:	00000025 	andeq	r0, r0, r5, lsr #32
    3f84:	0000007a 	andeq	r0, r0, sl, ror r0
    3f88:	00002505 	andeq	r2, r0, r5, lsl #10
    3f8c:	0d060000 	stceq	0, cr0, [r6, #-0]
    3f90:	02000001 	andeq	r0, r0, #1, 0
    3f94:	00860e1c 	addeq	r0, r6, ip, lsl lr
    3f98:	04070000 	streq	r0, [r7], #-0
    3f9c:	0000006b 	andeq	r0, r0, fp, rrx
    3fa0:	00002504 	andeq	r2, r0, r4, lsl #10
    3fa4:	00009b00 	andeq	r9, r0, r0, lsl #22
    3fa8:	009b0500 	addseq	r0, fp, r0, lsl #10
    3fac:	07000000 	streq	r0, [r0, -r0]
    3fb0:	0000a804 	andeq	sl, r0, r4, lsl #16
    3fb4:	08010300 	stmdaeq	r1, {r8, r9}
    3fb8:	00000033 	andeq	r0, r0, r3, lsr r0
    3fbc:	0000a108 	andeq	sl, r0, r8, lsl #2
    3fc0:	062c0600 	strteq	r0, [ip], -r0, lsl #12
    3fc4:	21020000 	mrscs	r0, (UNDEF: 2)
    3fc8:	0000b90e 	andeq	fp, r0, lr, lsl #18
    3fcc:	8c040700 	stchi	7, cr0, [r4], {-0}
    3fd0:	09000000 	stmdbeq	r0, {}	; <UNPREDICTABLE>
    3fd4:	000006d7 	ldrdeq	r0, [r0], -r7
    3fd8:	34070401 	strcc	r0, [r7], #-1025	; 0xfffffbff
    3fdc:	e8000001 	stmda	r0, {r0}
    3fe0:	34000098 	strcc	r0, [r0], #-152	; 0xffffff68
    3fe4:	01000000 	mrseq	r0, (UNDEF: 0)
    3fe8:	0001349c 	muleq	r1, ip, r4
    3fec:	0b970a00 	bleq	fe5c67f4 <__bss_end__+0xfe5bc274>
    3ff0:	04010000 	streq	r0, [r1], #-0
    3ff4:	00013415 	andeq	r3, r1, r5, lsl r4
    3ff8:	0b500100 	bleq	1404400 <__bss_end__+0x13f9e80>
    3ffc:	00637273 	rsbeq	r7, r3, r3, ror r2
    4000:	9b270401 	blls	9c500c <__bss_end__+0x9baa8c>
    4004:	d9000000 	stmdble	r0, {}	; <UNPREDICTABLE>
    4008:	d5000019 	strle	r0, [r0, #-25]	; 0xffffffe7
    400c:	0c000019 	stceq	0, cr0, [r0], {25}
    4010:	01003173 	tsteq	r0, r3, ror r1
    4014:	01340b05 	teqeq	r4, r5, lsl #22
    4018:	1a040000 	bne	104020 <__bss_end__+0xf9aa0>
    401c:	19fa0000 	ldmibne	sl!, {}^	; <UNPREDICTABLE>
    4020:	730c0000 	movwvc	r0, #49152	; 0xc000
    4024:	06010032 			; <UNDEFINED> instruction: 0x06010032
    4028:	00009b11 	andeq	r9, r0, r1, lsl fp
    402c:	001a4900 	andseq	r4, sl, r0, lsl #18
    4030:	001a4500 	andseq	r4, sl, r0, lsl #10
    4034:	00630c00 	rsbeq	r0, r3, r0, lsl #24
    4038:	a10a0701 	tstge	sl, r1, lsl #14
    403c:	6d000000 	stcvs	0, cr0, [r0, #-0]
    4040:	6900001a 	stmdbvs	r0, {r1, r3, r4}
    4044:	0000001a 	andeq	r0, r0, sl, lsl r0
    4048:	00a10407 	adceq	r0, r1, r7, lsl #8
    404c:	f7000000 			; <UNDEFINED> instruction: 0xf7000000
    4050:	04000000 	streq	r0, [r0], #-0
    4054:	00168600 	andseq	r8, r6, r0, lsl #12
    4058:	bd010400 	cfstrslt	mvf0, [r1, #-0]
    405c:	0c000004 	stceq	0, cr0, [r0], {4}
    4060:	00000bac 	andeq	r0, r0, ip, lsr #23
    4064:	0000059e 	muleq	r0, lr, r5
    4068:	0000991c 	andeq	r9, r0, ip, lsl r9
    406c:	0000002c 	andeq	r0, r0, ip, lsr #32
    4070:	00001ff1 	strdeq	r1, [r0], -r1	; <UNPREDICTABLE>
    4074:	69050402 	stmdbvs	r5, {r1, sl}
    4078:	0300746e 	movweq	r7, #1134	; 0x46e
    407c:	009a0704 	addseq	r0, sl, r4, lsl #14
    4080:	01030000 	mrseq	r0, (UNDEF: 3)
    4084:	00002c06 	andeq	r2, r0, r6, lsl #24
    4088:	05020300 	streq	r0, [r2, #-768]	; 0xfffffd00
    408c:	00000120 	andeq	r0, r0, r0, lsr #2
    4090:	04050403 	streq	r0, [r5], #-1027	; 0xfffffbfd
    4094:	03000001 	movweq	r0, #1
    4098:	00ff0508 	rscseq	r0, pc, r8, lsl #10
    409c:	01030000 	mrseq	r0, (UNDEF: 3)
    40a0:	00002a08 	andeq	r2, r0, r8, lsl #20
    40a4:	07020300 	streq	r0, [r2, -r0, lsl #6]
    40a8:	00000045 	andeq	r0, r0, r5, asr #32
    40ac:	95070403 	strls	r0, [r7, #-1027]	; 0xfffffbfd
    40b0:	03000000 	movweq	r0, #0
    40b4:	00900708 	addseq	r0, r0, r8, lsl #14
    40b8:	25040000 	strcs	r0, [r4, #-0]
    40bc:	7a000000 	bvc	40c4 <__code_start__-0x3f3c>
    40c0:	05000000 	streq	r0, [r0, #-0]
    40c4:	00000025 	andeq	r0, r0, r5, lsr #32
    40c8:	010d0600 	tsteq	sp, r0, lsl #12
    40cc:	1c020000 	stcne	0, cr0, [r2], {-0}
    40d0:	0000860e 	andeq	r8, r0, lr, lsl #12
    40d4:	6b040700 	blvs	105cdc <__bss_end__+0xfb75c>
    40d8:	04000000 	streq	r0, [r0], #-0
    40dc:	00000025 	andeq	r0, r0, r5, lsr #32
    40e0:	0000009b 	muleq	r0, fp, r0
    40e4:	00009b05 	andeq	r9, r0, r5, lsl #22
    40e8:	04070000 	streq	r0, [r7], #-0
    40ec:	000000a8 	andeq	r0, r0, r8, lsr #1
    40f0:	33080103 	movwcc	r0, #33027	; 0x8103
    40f4:	08000000 	stmdaeq	r0, {}	; <UNPREDICTABLE>
    40f8:	000000a1 	andeq	r0, r0, r1, lsr #1
    40fc:	00062c06 	andeq	r2, r6, r6, lsl #24
    4100:	0e210200 	cdpeq	2, 2, cr0, cr1, cr0, {0}
    4104:	000000b9 	strheq	r0, [r0], -r9
    4108:	008c0407 	addeq	r0, ip, r7, lsl #8
    410c:	de090000 	cdple	0, 0, cr0, cr9, cr0, {0}
    4110:	01000006 	tsteq	r0, r6
    4114:	00250503 	eoreq	r0, r5, r3, lsl #10
    4118:	991c0000 	ldmdbls	ip, {}	; <UNPREDICTABLE>
    411c:	002c0000 	eoreq	r0, ip, r0
    4120:	9c010000 	stcls	0, cr0, [r1], {-0}
    4124:	0100610a 	tsteq	r0, sl, lsl #2
    4128:	009b1803 	addseq	r1, fp, r3, lsl #16
    412c:	1a8f0000 	bne	fe3c4134 <__bss_end__+0xfe3b9bb4>
    4130:	1a8b0000 	bne	fe2c4138 <__bss_end__+0xfe2b9bb8>
    4134:	620a0000 	andvs	r0, sl, #0, 0
    4138:	27030100 	strcs	r0, [r3, -r0, lsl #2]
    413c:	0000009b 	muleq	r0, fp, r0
    4140:	00001ab1 			; <UNDEFINED> instruction: 0x00001ab1
    4144:	00001aad 	andeq	r1, r0, sp, lsr #21
    4148:	010f0000 	mrseq	r0, CPSR
    414c:	00040000 	andeq	r0, r4, r0
    4150:	00001715 	andeq	r1, r0, r5, lsl r7
    4154:	04bd0104 	ldrteq	r0, [sp], #260	; 0x104
    4158:	bc0c0000 	stclt	0, cr0, [ip], {-0}
    415c:	9e00000b 	cdpls	0, 0, cr0, cr0, cr11, {0}
    4160:	48000005 	stmdami	r0, {r0, r2}
    4164:	20000099 	mulcs	r0, r9, r0
    4168:	b8000000 	stmdalt	r0, {}	; <UNPREDICTABLE>
    416c:	02000020 	andeq	r0, r0, #32, 0
    4170:	6e690504 	cdpvs	5, 6, cr0, cr9, cr4, {0}
    4174:	04030074 	streq	r0, [r3], #-116	; 0xffffff8c
    4178:	00009a07 	andeq	r9, r0, r7, lsl #20
    417c:	06010300 	streq	r0, [r1], -r0, lsl #6
    4180:	0000002c 	andeq	r0, r0, ip, lsr #32
    4184:	20050203 	andcs	r0, r5, r3, lsl #4
    4188:	03000001 	movweq	r0, #1
    418c:	01040504 	tsteq	r4, r4, lsl #10
    4190:	08030000 	stmdaeq	r3, {}	; <UNPREDICTABLE>
    4194:	0000ff05 	andeq	pc, r0, r5, lsl #30
    4198:	08010300 	stmdaeq	r1, {r8, r9}
    419c:	0000002a 	andeq	r0, r0, sl, lsr #32
    41a0:	45070203 	strmi	r0, [r7, #-515]	; 0xfffffdfd
    41a4:	03000000 	movweq	r0, #0
    41a8:	00950704 	addseq	r0, r5, r4, lsl #14
    41ac:	08030000 	stmdaeq	r3, {}	; <UNPREDICTABLE>
    41b0:	00009007 	andeq	r9, r0, r7
    41b4:	00250400 	eoreq	r0, r5, r0, lsl #8
    41b8:	007a0000 	rsbseq	r0, sl, r0
    41bc:	25050000 	strcs	r0, [r5, #-0]
    41c0:	00000000 	andeq	r0, r0, r0
    41c4:	00010d06 	andeq	r0, r1, r6, lsl #26
    41c8:	0e1c0200 	cdpeq	2, 1, cr0, cr12, cr0, {0}
    41cc:	00000086 	andeq	r0, r0, r6, lsl #1
    41d0:	006b0407 	rsbeq	r0, fp, r7, lsl #8
    41d4:	25040000 	strcs	r0, [r4, #-0]
    41d8:	9b000000 	blls	41e0 <__code_start__-0x3e20>
    41dc:	05000000 	streq	r0, [r0, #-0]
    41e0:	0000009b 	muleq	r0, fp, r0
    41e4:	a8040700 	stmdage	r4, {r8, r9, sl}
    41e8:	03000000 	movweq	r0, #0
    41ec:	00330801 	eorseq	r0, r3, r1, lsl #16
    41f0:	a1080000 	mrsge	r0, (UNDEF: 8)
    41f4:	06000000 	streq	r0, [r0], -r0
    41f8:	0000062c 	andeq	r0, r0, ip, lsr #12
    41fc:	b90e2102 	stmdblt	lr, {r1, r8, sp}
    4200:	07000000 	streq	r0, [r0, -r0]
    4204:	00008c04 	andeq	r8, r0, r4, lsl #24
    4208:	06a80900 	strteq	r0, [r8], r0, lsl #18
    420c:	03010000 	movweq	r0, #4096	; 0x1000
    4210:	00010c07 	andeq	r0, r1, r7, lsl #24
    4214:	00994800 	addseq	r4, r9, r0, lsl #16
    4218:	00002000 	andeq	r2, r0, r0
    421c:	0c9c0100 	ldfeqs	f0, [ip], {0}
    4220:	0a000001 	beq	422c <__code_start__-0x3dd4>
    4224:	01003173 	tsteq	r0, r3, ror r1
    4228:	010c1503 	tsteq	ip, r3, lsl #10
    422c:	50010000 	andpl	r0, r1, r0
    4230:	0032730b 	eorseq	r7, r2, fp, lsl #6
    4234:	9b260301 	blls	984e40 <__bss_end__+0x97a8c0>
    4238:	d5000000 	strle	r0, [r0, #-0]
    423c:	cf00001a 	svcgt	0x0000001a
    4240:	0c00001a 	stceq	0, cr0, [r0], {26}
    4244:	04010073 	streq	r0, [r1], #-115	; 0xffffff8d
    4248:	00010c14 	andeq	r0, r1, r4, lsl ip
    424c:	001b0600 	andseq	r0, fp, r0, lsl #12
    4250:	001b0000 	andseq	r0, fp, r0
    4254:	04070000 	streq	r0, [r7], #-0
    4258:	000000a1 	andeq	r0, r0, r1, lsr #1
    425c:	00014e00 	andeq	r4, r1, r0, lsl #28
    4260:	cb000400 	blgt	5268 <__code_start__-0x2d98>
    4264:	04000017 	streq	r0, [r0], #-23	; 0xffffffe9
    4268:	0004bd01 	andeq	fp, r4, r1, lsl #26
    426c:	0bcc0c00 	bleq	ff307274 <__bss_end__+0xff2fccf4>
    4270:	059e0000 	ldreq	r0, [lr]
    4274:	00880000 	addeq	r0, r8, r0
    4278:	00000000 	andeq	r0, r0, r0
    427c:	217d0000 	cmncs	sp, r0
    4280:	04020000 	streq	r0, [r2], #-0
    4284:	746e6905 	strbtvc	r6, [lr], #-2309	; 0xfffff6fb
    4288:	05870300 	streq	r0, [r7, #768]	; 0x300
    428c:	d1030000 	mrsle	r0, (UNDEF: 3)
    4290:	00003817 	andeq	r3, r0, r7, lsl r8
    4294:	07040400 	streq	r0, [r4, -r0, lsl #8]
    4298:	0000009a 	muleq	r0, sl, r0
    429c:	2c060104 	stfcss	f0, [r6], {4}
    42a0:	04000000 	streq	r0, [r0], #-0
    42a4:	01200502 			; <UNDEFINED> instruction: 0x01200502
    42a8:	04040000 	streq	r0, [r4], #-0
    42ac:	00010405 	andeq	r0, r1, r5, lsl #8
    42b0:	05080400 	streq	r0, [r8, #-1024]	; 0xfffffc00
    42b4:	000000ff 	strdeq	r0, [r0], -pc	; <UNPREDICTABLE>
    42b8:	2a080104 	bcs	2046d0 <__bss_end__+0x1fa150>
    42bc:	05000000 	streq	r0, [r0, #-0]
    42c0:	0000005b 	andeq	r0, r0, fp, asr r0
    42c4:	45070204 	strmi	r0, [r7, #-516]	; 0xfffffdfc
    42c8:	04000000 	streq	r0, [r0], #-0
    42cc:	00950704 	addseq	r0, r5, r4, lsl #14
    42d0:	08040000 	stmdaeq	r4, {}	; <UNPREDICTABLE>
    42d4:	00009007 	andeq	r9, r0, r7
    42d8:	00250600 	eoreq	r0, r5, r0, lsl #12
    42dc:	008b0000 	addeq	r0, fp, r0
    42e0:	25070000 	strcs	r0, [r7, #-0]
    42e4:	00000000 	andeq	r0, r0, r0
    42e8:	00010d08 	andeq	r0, r1, r8, lsl #26
    42ec:	0e1c0200 	cdpeq	2, 1, cr0, cr12, cr0, {0}
    42f0:	00000097 	muleq	r0, r7, r0
    42f4:	007c0409 	rsbseq	r0, ip, r9, lsl #8
    42f8:	25060000 	strcs	r0, [r6, #-0]
    42fc:	ac000000 	stcge	0, cr0, [r0], {-0}
    4300:	07000000 	streq	r0, [r0, -r0]
    4304:	000000ac 	andeq	r0, r0, ip, lsr #1
    4308:	b9040900 	stmdblt	r4, {r8, fp}
    430c:	04000000 	streq	r0, [r0], #-0
    4310:	00330801 	eorseq	r0, r3, r1, lsl #16
    4314:	b2050000 	andlt	r0, r5, #0, 0
    4318:	08000000 	stmdaeq	r0, {}	; <UNPREDICTABLE>
    431c:	0000062c 	andeq	r0, r0, ip, lsr #12
    4320:	ca0e2102 	bgt	38c730 <__bss_end__+0x3821b0>
    4324:	09000000 	stmdbeq	r0, {}	; <UNPREDICTABLE>
    4328:	00009d04 	andeq	r9, r0, r4, lsl #26
    432c:	06f70a00 	ldrbteq	r0, [r7], r0, lsl #20
    4330:	04010000 	streq	r0, [r1], #-0
    4334:	00002505 	andeq	r2, r0, r5, lsl #10
    4338:	00996800 	addseq	r6, r9, r0, lsl #16
    433c:	00002c00 	andeq	r2, r0, r0, lsl #24
    4340:	4b9c0100 	blmi	fe704748 <__bss_end__+0xfe6fa1c8>
    4344:	0b000001 	bleq	4350 <__code_start__-0x3cb0>
    4348:	0031735f 	eorseq	r7, r1, pc, asr r3
    434c:	ac190401 	cfldrsge	mvf0, [r9], {1}
    4350:	35000000 	strcc	r0, [r0, #-0]
    4354:	3100001b 	tstcc	r0, fp, lsl r0
    4358:	0b00001b 	bleq	43cc <__code_start__-0x3c34>
    435c:	0032735f 	eorseq	r7, r2, pc, asr r3
    4360:	ac2a0401 	cfstrsge	mvf0, [sl], #-4
    4364:	5a000000 	bpl	436c <__code_start__-0x3c94>
    4368:	5600001b 			; <UNDEFINED> instruction: 0x5600001b
    436c:	0b00001b 	bleq	43e0 <__code_start__-0x3c20>
    4370:	0401006e 	streq	r0, [r1], #-110	; 0xffffff92
    4374:	00002c36 	andeq	r2, r0, r6, lsr ip
    4378:	001b8100 	andseq	r8, fp, r0, lsl #2
    437c:	001b7b00 	andseq	r7, fp, r0, lsl #22
    4380:	31730c00 	cmncc	r3, r0, lsl #24
    4384:	1a050100 	bne	14478c <__bss_end__+0x13a20c>
    4388:	0000014b 	andeq	r0, r0, fp, asr #2
    438c:	00001bb4 			; <UNDEFINED> instruction: 0x00001bb4
    4390:	00001bac 	andeq	r1, r0, ip, lsr #23
    4394:	0032730c 	eorseq	r7, r2, ip, lsl #6
    4398:	4b2c0501 	blmi	b057a4 <__bss_end__+0xafb224>
    439c:	f0000001 			; <UNDEFINED> instruction: 0xf0000001
    43a0:	ea00001b 	b	4414 <__code_start__-0x3bec>
    43a4:	0000001b 	andeq	r0, r0, fp, lsl r0
    43a8:	00620409 	rsbeq	r0, r2, r9, lsl #8
    43ac:	ce000000 	cdpgt	0, 0, cr0, cr0, cr0, {0}
    43b0:	04000000 	streq	r0, [r0], #-0
    43b4:	00187f00 	andseq	r7, r8, r0, lsl #30
    43b8:	bd010400 	cfstrslt	mvf0, [r1, #-0]
    43bc:	0c000004 	stceq	0, cr0, [r0], {4}
    43c0:	00000bdd 	ldrdeq	r0, [r0], -sp
    43c4:	0000059e 	muleq	r0, lr, r5
    43c8:	00009994 	muleq	r0, r4, r9
    43cc:	00000004 	andeq	r0, r0, r4
    43d0:	000022a2 	andeq	r2, r0, r2, lsr #5
    43d4:	69050402 	stmdbvs	r5, {r1, sl}
    43d8:	0300746e 	movweq	r7, #1134	; 0x46e
    43dc:	009a0704 	addseq	r0, sl, r4, lsl #14
    43e0:	01030000 	mrseq	r0, (UNDEF: 3)
    43e4:	00002c06 	andeq	r2, r0, r6, lsl #24
    43e8:	05020300 	streq	r0, [r2, #-768]	; 0xfffffd00
    43ec:	00000120 	andeq	r0, r0, r0, lsr #2
    43f0:	04050403 	streq	r0, [r5], #-1027	; 0xfffffbfd
    43f4:	03000001 	movweq	r0, #1
    43f8:	00ff0508 	rscseq	r0, pc, r8, lsl #10
    43fc:	01030000 	mrseq	r0, (UNDEF: 3)
    4400:	00002a08 	andeq	r2, r0, r8, lsl #20
    4404:	07020300 	streq	r0, [r2, -r0, lsl #6]
    4408:	00000045 	andeq	r0, r0, r5, asr #32
    440c:	95070403 	strls	r0, [r7, #-1027]	; 0xfffffbfd
    4410:	03000000 	movweq	r0, #0
    4414:	00900708 	addseq	r0, r0, r8, lsl #14
    4418:	25040000 	strcs	r0, [r4, #-0]
    441c:	7a000000 	bvc	4424 <__code_start__-0x3bdc>
    4420:	05000000 	streq	r0, [r0, #-0]
    4424:	00000025 	andeq	r0, r0, r5, lsr #32
    4428:	010d0600 	tsteq	sp, r0, lsl #12
    442c:	1c020000 	stcne	0, cr0, [r2], {-0}
    4430:	0000860e 	andeq	r8, r0, lr, lsl #12
    4434:	6b040700 	blvs	10603c <__bss_end__+0xfbabc>
    4438:	04000000 	streq	r0, [r0], #-0
    443c:	00000025 	andeq	r0, r0, r5, lsr #32
    4440:	0000009b 	muleq	r0, fp, r0
    4444:	00009b05 	andeq	r9, r0, r5, lsl #22
    4448:	04070000 	streq	r0, [r7], #-0
    444c:	000000a8 	andeq	r0, r0, r8, lsr #1
    4450:	33080103 	movwcc	r0, #33027	; 0x8103
    4454:	08000000 	stmdaeq	r0, {}	; <UNPREDICTABLE>
    4458:	000000a1 	andeq	r0, r0, r1, lsr #1
    445c:	00062c06 	andeq	r2, r6, r6, lsl #24
    4460:	0e210200 	cdpeq	2, 2, cr0, cr1, cr0, {0}
    4464:	000000b9 	strheq	r0, [r0], -r9
    4468:	008c0407 	addeq	r0, ip, r7, lsl #8
    446c:	9e090000 	cdpls	0, 0, cr0, cr9, cr0, {0}
    4470:	01000007 	tsteq	r0, r7
    4474:	99940603 	ldmibls	r4, {r0, r1, r9, sl}
    4478:	00040000 	andeq	r0, r4, r0
    447c:	9c010000 	stcls	0, cr0, [r1], {-0}
    4480:	0003a500 	andeq	sl, r3, r0, lsl #10
    4484:	f8000400 			; <UNDEFINED> instruction: 0xf8000400
    4488:	04000018 	streq	r0, [r0], #-24	; 0xffffffe8
    448c:	00097a01 	andeq	r7, r9, r1, lsl #20
    4490:	0c7c0c00 	ldcleq	12, cr0, [ip], #-0
    4494:	092a0000 	stmdbeq	sl!, {}	; <UNPREDICTABLE>
    4498:	99b00000 	ldmibls	r0!, {}	; <UNPREDICTABLE>
    449c:	011c0000 	tsteq	ip, r0
    44a0:	23560000 	cmpcs	r6, #0, 0
    44a4:	04020000 	streq	r0, [r2], #-0
    44a8:	746e6905 	strbtvc	r6, [lr], #-2309	; 0xfffff6fb
    44ac:	07040300 	streq	r0, [r4, -r0, lsl #6]
    44b0:	0000009a 	muleq	r0, sl, r0
    44b4:	00002c04 	andeq	r2, r0, r4, lsl #24
    44b8:	06010300 	streq	r0, [r1], -r0, lsl #6
    44bc:	0000002c 	andeq	r0, r0, ip, lsr #32
    44c0:	20050203 	andcs	r0, r5, r3, lsl #4
    44c4:	03000001 	movweq	r0, #1
    44c8:	01040504 	tsteq	r4, r4, lsl #10
    44cc:	08030000 	stmdaeq	r3, {}	; <UNPREDICTABLE>
    44d0:	0000ff05 	andeq	pc, r0, r5, lsl #30
    44d4:	08010300 	stmdaeq	r1, {r8, r9}
    44d8:	0000002a 	andeq	r0, r0, sl, lsr #32
    44dc:	45070203 	strmi	r0, [r7, #-515]	; 0xfffffdfd
    44e0:	05000000 	streq	r0, [r0, #-0]
    44e4:	0000028a 	andeq	r0, r0, sl, lsl #5
    44e8:	6e193403 	cfmulsvs	mvf3, mvf9, mvf3
    44ec:	03000000 	movweq	r0, #0
    44f0:	00950704 	addseq	r0, r5, r4, lsl #14
    44f4:	08030000 	stmdaeq	r3, {}	; <UNPREDICTABLE>
    44f8:	00009007 	andeq	r9, r0, r7
    44fc:	08010300 	stmdaeq	r1, {r8, r9}
    4500:	00000033 	andeq	r0, r0, r3, lsr r0
    4504:	54010706 	strpl	r0, [r1], #-1798	; 0xfffff8fa
    4508:	04000000 	streq	r0, [r0], #-0
    450c:	00c20e0c 	sbceq	r0, r2, ip, lsl #28
    4510:	64070000 	strvs	r0, [r7], #-0
    4514:	0000000a 	andeq	r0, r0, sl
    4518:	00089c07 	andeq	r9, r8, r7, lsl #24
    451c:	df070100 	svcle	0x00070100
    4520:	04000008 	streq	r0, [r0], #-8
    4524:	0008ee07 	andeq	lr, r8, r7, lsl #28
    4528:	fd070500 	stc2	5, cr0, [r7, #-0]
    452c:	06000008 	streq	r0, [r0], -r8
    4530:	00090c07 	andeq	r0, r9, r7, lsl #24
    4534:	2d070700 	stccs	7, cr0, [r7, #-0]
    4538:	0300000a 	movweq	r0, #10
    453c:	00091b07 	andeq	r1, r9, r7, lsl #22
    4540:	05000200 	streq	r0, [r0, #-512]	; 0xfffffe00
    4544:	00000c61 	andeq	r0, r0, r1, ror #24
    4548:	83031504 	movwhi	r1, #13572	; 0x3504
    454c:	08000000 	stmdaeq	r0, {}	; <UNPREDICTABLE>
    4550:	00000c0c 	andeq	r0, r0, ip, lsl #24
    4554:	33171d01 	tstcc	r7, #64	; 0x40
    4558:	1c000000 	stcne	0, cr0, [r0], {-0}
    455c:	08202000 	stmdaeq	r0!, {sp}
    4560:	00000c02 	andeq	r0, r0, r2, lsl #24
    4564:	33171e01 	tstcc	r7, #1, 28
    4568:	28000000 	stmdacs	r0, {}	; <UNPREDICTABLE>
    456c:	08202000 	stmdaeq	r0!, {sp}
    4570:	00000c6d 	andeq	r0, r0, sp, ror #24
    4574:	33171f01 	tstcc	r7, #1, 30
    4578:	34000000 	strcc	r0, [r0], #-0
    457c:	09202000 	stmdbeq	r0!, {sp}
    4580:	00000c2b 	andeq	r0, r0, fp, lsr #24
    4584:	25055501 	strcs	r5, [r5, #-1281]	; 0xfffffaff
    4588:	98000000 	stmdals	r0, {}	; <UNPREDICTABLE>
    458c:	3400009a 	strcc	r0, [r0], #-154	; 0xffffff66
    4590:	01000000 	mrseq	r0, (UNDEF: 0)
    4594:	00016e9c 	muleq	r1, ip, lr
    4598:	69700a00 	ldmdbvs	r0!, {r9, fp}^
    459c:	5501006e 	strpl	r0, [r1, #-110]	; 0xffffff92
    45a0:	00002c18 	andeq	r2, r0, r8, lsl ip
    45a4:	001c2300 	andseq	r2, ip, r0, lsl #6
    45a8:	001c1b00 	andseq	r1, ip, r0, lsl #22
    45ac:	0c770b00 			; <UNDEFINED> instruction: 0x0c770b00
    45b0:	58010000 	stmdapl	r1, {}	; <UNPREDICTABLE>
    45b4:	00002c0e 	andeq	r2, r0, lr, lsl #24
    45b8:	001c6300 	andseq	r6, ip, r0, lsl #6
    45bc:	001c5d00 	andseq	r5, ip, r0, lsl #26
    45c0:	666f0c00 	strbtvs	r0, [pc], -r0, lsl #24
    45c4:	59010066 	stmdbpl	r1, {r1, r2, r5, r6}
    45c8:	00002c0e 	andeq	r2, r0, lr, lsl #24
    45cc:	001ca300 	andseq	sl, ip, r0, lsl #6
    45d0:	001ca100 	andseq	sl, ip, r0, lsl #2
    45d4:	9ab40d00 	bls	fed079dc <__bss_end__+0xfecfd45c>
    45d8:	03900000 	orrseq	r0, r0, #0, 0
    45dc:	010e0000 	mrseq	r0, (UNDEF: 14)
    45e0:	01f30b50 	mvnseq	r0, r0, asr fp
    45e4:	23253550 			; <UNDEFINED> instruction: 0x23253550
    45e8:	818080b4 	strhhi	r8, [r0, r4]
    45ec:	0f000002 	svceq	0x00000002
    45f0:	00000c16 	andeq	r0, r0, r6, lsl ip
    45f4:	7c064e01 	stcvc	14, cr4, [r6], {1}
    45f8:	1c00009a 	stcne	0, cr0, [r0], {154}	; 0x9a
    45fc:	01000000 	mrseq	r0, (UNDEF: 0)
    4600:	0001c99c 	muleq	r1, ip, r9
    4604:	69700a00 	ldmdbvs	r0!, {r9, fp}^
    4608:	4e01006e 	cdpmi	0, 0, cr0, cr1, cr14, {3}
    460c:	00002c1a 	andeq	r2, r0, sl, lsl ip
    4610:	001cbe00 	andseq	fp, ip, r0, lsl #28
    4614:	001cb600 	andseq	fp, ip, r0, lsl #12
    4618:	00760a00 	rsbseq	r0, r6, r0, lsl #20
    461c:	2c284e01 	stccs	14, cr4, [r8], #-4
    4620:	00000000 	andeq	r0, r0, r0
    4624:	f800001d 			; <UNDEFINED> instruction: 0xf800001d
    4628:	1000001c 	andne	r0, r0, ip, lsl r0
    462c:	00009a8c 	andeq	r9, r0, ip, lsl #21
    4630:	00000251 	andeq	r0, r0, r1, asr r2
    4634:	000001bf 			; <UNDEFINED> instruction: 0x000001bf
    4638:	0350010e 	cmpeq	r0, #-2147483645	; 0x80000003
    463c:	005001f3 	ldrsheq	r0, [r0], #-19	; 0xffffffed
    4640:	009a9411 	addseq	r9, sl, r1, lsl r4
    4644:	00020a00 	andeq	r0, r2, r0, lsl #20
    4648:	350f0000 	strcc	r0, [pc, #-0]	; 4650 <__code_start__-0x39b0>
    464c:	0100000c 	tsteq	r0, ip
    4650:	9a6c0649 	bls	1b05f7c <__bss_end__+0x1afb9fc>
    4654:	00100000 	andseq	r0, r0, r0
    4658:	9c010000 	stcls	0, cr0, [r1], {-0}
    465c:	0000020a 	andeq	r0, r0, sl, lsl #4
    4660:	6e69700a 	cdpvs	0, 6, cr7, cr9, cr10, {0}
    4664:	1e490100 	dvfnee	f0, f1, f0
    4668:	0000002c 	andeq	r0, r0, ip, lsr #32
    466c:	00001d3e 	andeq	r1, r0, lr, lsr sp
    4670:	00001d3a 	andeq	r1, r0, sl, lsr sp
    4674:	009a780d 	addseq	r7, sl, sp, lsl #16
    4678:	0002d900 	andeq	sp, r2, r0, lsl #18
    467c:	50010e00 	andpl	r0, r1, r0, lsl #28
    4680:	5001f303 	andpl	pc, r1, r3, lsl #6
    4684:	0151010e 	cmpeq	r1, lr, lsl #2
    4688:	0f000030 	svceq	0x00000030
    468c:	00000c44 	andeq	r0, r0, r4, asr #24
    4690:	48064201 	stmdami	r6, {r0, r9, lr}
    4694:	2400009a 	strcs	r0, [r0], #-154	; 0xffffff66
    4698:	01000000 	mrseq	r0, (UNDEF: 0)
    469c:	0002519c 	muleq	r2, ip, r1
    46a0:	69700a00 	ldmdbvs	r0!, {r9, fp}^
    46a4:	4201006e 	andmi	r0, r1, #110, 0	; 0x6e
    46a8:	00002c1c 	andeq	r2, r0, ip, lsl ip
    46ac:	001d6300 	andseq	r6, sp, r0, lsl #6
    46b0:	001d5f00 	andseq	r5, sp, r0, lsl #30
    46b4:	9a640d00 	bls	1907abc <__bss_end__+0x18fd53c>
    46b8:	039c0000 	orrseq	r0, ip, #0, 0
    46bc:	010e0000 	mrseq	r0, (UNDEF: 14)
    46c0:	280c0550 	stmdacs	ip, {r4, r6, r8, sl}
    46c4:	0e202000 	cdpeq	0, 2, cr2, cr0, cr0, {0}
    46c8:	31055101 	tstcc	r5, r1, lsl #2
    46cc:	245001f3 	ldrbcs	r0, [r0], #-499	; 0xfffffe0d
    46d0:	830f0000 	movwhi	r0, #61440	; 0xf000
    46d4:	0100000c 	tsteq	r0, ip
    46d8:	9a24063b 	bls	905fcc <__bss_end__+0x8fba4c>
    46dc:	00240000 	eoreq	r0, r4, r0
    46e0:	9c010000 	stcls	0, cr0, [r1], {-0}
    46e4:	00000298 	muleq	r0, r8, r2
    46e8:	6e69700a 	cdpvs	0, 6, cr7, cr9, cr10, {0}
    46ec:	1b3b0100 	blne	ec4af4 <__bss_end__+0xeba574>
    46f0:	0000002c 	andeq	r0, r0, ip, lsr #32
    46f4:	00001d88 	andeq	r1, r0, r8, lsl #27
    46f8:	00001d84 	andeq	r1, r0, r4, lsl #27
    46fc:	009a400d 	addseq	r4, sl, sp
    4700:	00039c00 	andeq	r9, r3, r0, lsl #24
    4704:	50010e00 	andpl	r0, r1, r0, lsl #28
    4708:	001c0c05 	andseq	r0, ip, r5, lsl #24
    470c:	010e2020 	tsteq	lr, r0, lsr #32
    4710:	f3310551 	vqrshl.u64	q0, <illegal reg q0.5>, <illegal reg q0.5>
    4714:	00245001 	eoreq	r5, r4, r1
    4718:	0c510f00 	mrrceq	15, 0, r0, r1, cr0
    471c:	36010000 	strcc	r0, [r1], -r0
    4720:	009a1406 	addseq	r1, sl, r6, lsl #8
    4724:	00001000 	andeq	r1, r0, r0
    4728:	d99c0100 	ldmible	ip, {r8}
    472c:	0a000002 	beq	473c <__code_start__-0x38c4>
    4730:	006e6970 	rsbeq	r6, lr, r0, ror r9
    4734:	2c1f3601 	ldccs	6, cr3, [pc], {1}
    4738:	ad000000 	stcge	0, cr0, [r0, #-0]
    473c:	a900001d 	stmdbge	r0, {r0, r2, r3, r4}
    4740:	0d00001d 	stceq	0, cr0, [r0, #-116]	; 0xffffff8c
    4744:	00009a20 	andeq	r9, r0, r0, lsr #20
    4748:	000002d9 	ldrdeq	r0, [r0], -r9
    474c:	0350010e 	cmpeq	r0, #-2147483645	; 0x80000003
    4750:	0e5001f3 	mrceq	1, 2, r0, cr0, cr3, {7}
    4754:	31015101 	tstcc	r1, r1, lsl #2
    4758:	740f0000 	strvc	r0, [pc], #-0	; 4760 <__code_start__-0x38a0>
    475c:	0100000a 	tsteq	r0, sl
    4760:	99b00628 	ldmibls	r0!, {r3, r5, r9, sl}
    4764:	00640000 	rsbeq	r0, r4, r0
    4768:	9c010000 	stcls	0, cr0, [r1], {-0}
    476c:	00000374 	andeq	r0, r0, r4, ror r3
    4770:	6e69700a 	cdpvs	0, 6, cr7, cr9, cr10, {0}
    4774:	21280100 			; <UNDEFINED> instruction: 0x21280100
    4778:	0000002c 	andeq	r0, r0, ip, lsr #32
    477c:	00001dd2 	ldrdeq	r1, [r0], -r2
    4780:	00001dce 	andeq	r1, r0, lr, asr #27
    4784:	00006a12 	andeq	r6, r0, r2, lsl sl
    4788:	32280100 	eorcc	r0, r8, #0
    478c:	000000c2 	andeq	r0, r0, r2, asr #1
    4790:	00001df7 	strdeq	r1, [r0], -r7
    4794:	00001df3 	strdeq	r1, [r0], -r3
    4798:	66666f0c 	strbtvs	r6, [r6], -ip, lsl #30
    479c:	0e2d0100 	sufeqe	f0, f5, f0
    47a0:	0000002c 	andeq	r0, r0, ip, lsr #32
    47a4:	00001e1a 	andeq	r1, r0, sl, lsl lr
    47a8:	00001e18 	andeq	r1, r0, r8, lsl lr
    47ac:	0100670c 	tsteq	r0, ip, lsl #14
    47b0:	002c0e2e 	eoreq	r0, ip, lr, lsr #28
    47b4:	1e2f0000 	cdpne	0, 2, cr0, cr15, cr0, {0}
    47b8:	1e2d0000 	cdpne	0, 2, cr0, cr13, cr0, {0}
    47bc:	760c0000 	strvc	r0, [ip], -r0
    47c0:	0e300100 	rsfeqs	f0, f0, f0
    47c4:	0000002c 	andeq	r0, r0, ip, lsr #32
    47c8:	00001e4a 	andeq	r1, r0, sl, asr #28
    47cc:	00001e42 	andeq	r1, r0, r2, asr #28
    47d0:	0099f810 	addseq	pc, r9, r0, lsl r8	; <UNPREDICTABLE>
    47d4:	00039000 	andeq	r9, r3, r0
    47d8:	00036300 	andeq	r6, r3, r0, lsl #6
    47dc:	50010e00 	andpl	r0, r1, r0, lsl #28
    47e0:	00007602 	andeq	r7, r0, r2, lsl #12
    47e4:	009a0c0d 	addseq	r0, sl, sp, lsl #24
    47e8:	00039c00 	andeq	r9, r3, r0, lsl #24
    47ec:	50010e00 	andpl	r0, r1, r0, lsl #28
    47f0:	00007602 	andeq	r7, r0, r2, lsl #12
    47f4:	0c211300 	stceq	3, cr1, [r1], #-0
    47f8:	b6020000 	strlt	r0, [r2], -r0
    47fc:	00006218 	andeq	r6, r0, r8, lsl r2
    4800:	03900300 	orrseq	r0, r0, #0, 6
    4804:	78140000 	ldmdavc	r4, {}	; <UNPREDICTABLE>
    4808:	2bb60200 	blcs	fed85010 <__bss_end__+0xfed7aa90>
    480c:	00000062 	andeq	r0, r0, r2, rrx
    4810:	08491500 	stmdaeq	r9, {r8, sl, ip}^
    4814:	08490000 	stmdaeq	r9, {}^	; <UNPREDICTABLE>
    4818:	c7020000 	strgt	r0, [r2, -r0]
    481c:	07b5150a 	ldreq	r1, [r5, sl, lsl #10]!
    4820:	07b50000 	ldreq	r0, [r5, r0]!
    4824:	b2020000 	andlt	r0, r2, #0, 0
    4828:	Address 0x0000000000004828 is out of bounds.


Disassembly of section .debug_abbrev:

00000000 <.debug_abbrev>:
       0:	25011101 	strcs	r1, [r1, #-257]	; 0xfffffeff
       4:	030b130e 	movweq	r1, #45838	; 0xb30e
       8:	110e1b0e 	tstne	lr, lr, lsl #22
       c:	10061201 	andne	r1, r6, r1, lsl #4
      10:	02000017 	andeq	r0, r0, #23, 0
      14:	0b0b0024 	bleq	2c00ac <__bss_end__+0x2b5b2c>
      18:	08030b3e 	stmdaeq	r3, {r1, r2, r3, r4, r5, r8, r9, fp}
      1c:	24030000 	strcs	r0, [r3], #-0
      20:	3e0b0b00 	vmlacc.f64	d0, d11, d0
      24:	000e030b 	andeq	r0, lr, fp, lsl #6
      28:	01150400 	tsteq	r5, r0, lsl #8
      2c:	13491927 	movtne	r1, #39207	; 0x9927
      30:	00001301 	andeq	r1, r0, r1, lsl #6
      34:	49000505 	stmdbmi	r0, {r0, r2, r8, sl}
      38:	06000013 			; <UNDEFINED> instruction: 0x06000013
      3c:	0e030034 	mcreq	0, 0, r0, cr3, cr4, {1}
      40:	0b3b0b3a 	bleq	ec2d30 <__bss_end__+0xeb87b0>
      44:	13490b39 	movtne	r0, #39737	; 0x9b39
      48:	193c193f 	ldmdbne	ip!, {r0, r1, r2, r3, r4, r5, r8, fp, ip}
      4c:	0f070000 	svceq	0x00070000
      50:	490b0b00 	stmdbmi	fp, {r8, r9, fp}
      54:	08000013 	stmdaeq	r0, {r0, r1, r4}
      58:	13490026 	movtne	r0, #36902	; 0x9026
      5c:	13090000 	movwne	r0, #36864	; 0x9000
      60:	3a0b0b01 	bcc	2c2c6c <__bss_end__+0x2b86ec>
      64:	390b3b0b 	stmdbcc	fp, {r0, r1, r3, r8, r9, fp, ip, sp}
      68:	0013010b 	andseq	r0, r3, fp, lsl #2
      6c:	000d0a00 	andeq	r0, sp, r0, lsl #20
      70:	0b3a0e03 	bleq	e83884 <__bss_end__+0xe79304>
      74:	0b390b3b 	bleq	e42d68 <__bss_end__+0xe387e8>
      78:	0b381349 	bleq	e04da4 <__bss_end__+0xdfa824>
      7c:	160b0000 	strne	r0, [fp], -r0
      80:	3a0e0300 	bcc	380c88 <__bss_end__+0x376708>
      84:	390b3b0b 	stmdbcc	fp, {r0, r1, r3, r8, r9, fp, ip, sp}
      88:	0013490b 	andseq	r4, r3, fp, lsl #18
      8c:	012e0c00 			; <UNDEFINED> instruction: 0x012e0c00
      90:	0e03193f 			; <UNDEFINED> instruction: 0x0e03193f
      94:	0b3b0b3a 	bleq	ec2d84 <__bss_end__+0xeb8804>
      98:	19270b39 	stmdbne	r7!, {r0, r3, r4, r5, r8, r9, fp}
      9c:	06120111 			; <UNDEFINED> instruction: 0x06120111
      a0:	42971840 	addsmi	r1, r7, #64, 16	; 0x400000
      a4:	00130119 	andseq	r0, r3, r9, lsl r1
      a8:	00340d00 	eorseq	r0, r4, r0, lsl #26
      ac:	13490e03 	movtne	r0, #40451	; 0x9e03
      b0:	18021934 	stmdane	r2, {r2, r4, r5, r8, fp, ip}
      b4:	890e0000 	stmdbhi	lr, {}	; <UNPREDICTABLE>
      b8:	11010182 	smlabbne	r1, r2, r1, r0
      bc:	01133101 	tsteq	r3, r1, lsl #2
      c0:	0f000013 	svceq	0x00000013
      c4:	0001828a 	andeq	r8, r1, sl, lsl #5
      c8:	42911802 	addsmi	r1, r1, #131072	; 0x20000
      cc:	10000018 	andne	r0, r0, r8, lsl r0
      d0:	00018289 	andeq	r8, r1, r9, lsl #5
      d4:	13310111 	teqne	r1, #1073741828	; 0x40000004
      d8:	01110000 	tsteq	r1, r0
      dc:	01134901 	tsteq	r3, r1, lsl #18
      e0:	12000013 	andne	r0, r0, #19, 0
      e4:	13490021 	movtne	r0, #36897	; 0x9021
      e8:	00000b2f 	andeq	r0, r0, pc, lsr #22
      ec:	03003413 	movweq	r3, #1043	; 0x413
      f0:	3b0b3a08 	blcc	2ce918 <__bss_end__+0x2c4398>
      f4:	490b390b 	stmdbmi	fp, {r0, r1, r3, r8, fp, ip, sp}
      f8:	b7170213 			; <UNDEFINED> instruction: 0xb7170213
      fc:	00001742 	andeq	r1, r0, r2, asr #14
     100:	31011d14 	tstcc	r1, r4, lsl sp
     104:	b8015213 	stmdalt	r1, {r0, r1, r4, r9, ip, lr}
     108:	01110b42 	tsteq	r1, r2, asr #22
     10c:	0b580612 	bleq	160195c <__bss_end__+0x15f73dc>
     110:	0b570b59 	bleq	15c2e7c <__bss_end__+0x15b88fc>
     114:	00001301 	andeq	r1, r0, r1, lsl #6
     118:	31000515 	tstcc	r0, r5, lsl r5
     11c:	b7170213 			; <UNDEFINED> instruction: 0xb7170213
     120:	00001742 	andeq	r1, r0, r2, asr #14
     124:	01828916 	orreq	r8, r2, r6, lsl r9
     128:	31011101 	tstcc	r1, r1, lsl #2
     12c:	17000013 	smladne	r0, r3, r0, r0
     130:	0e03012e 	adfeqsp	f0, f3, #0.5
     134:	0b3b0b3a 	bleq	ec2e24 <__bss_end__+0xeb88a4>
     138:	19270b39 	stmdbne	r7!, {r0, r3, r4, r5, r8, r9, fp}
     13c:	0b201349 	bleq	804e68 <__bss_end__+0x7fa8e8>
     140:	00001301 	andeq	r1, r0, r1, lsl #6
     144:	03000518 	movweq	r0, #1304	; 0x518
     148:	3b0b3a0e 	blcc	2ce988 <__bss_end__+0x2c4408>
     14c:	490b390b 	stmdbmi	fp, {r0, r1, r3, r8, fp, ip, sp}
     150:	19000013 	stmdbne	r0, {r0, r1, r4}
     154:	193f002e 	ldmdbne	pc!, {r1, r2, r3, r5}	; <UNPREDICTABLE>
     158:	0e6e193c 			; <UNDEFINED> instruction: 0x0e6e193c
     15c:	0b3a0e03 	bleq	e83970 <__bss_end__+0xe793f0>
     160:	0b390b3b 	bleq	e42e54 <__bss_end__+0xe388d4>
     164:	361a0000 	ldrcc	r0, [sl], -r0
     168:	00180200 	andseq	r0, r8, r0, lsl #4
     16c:	11010000 	mrsne	r0, (UNDEF: 1)
     170:	130e2501 	movwne	r2, #58625	; 0xe501
     174:	1b0e030b 	blne	380da8 <__bss_end__+0x376828>
     178:	1201110e 	andne	r1, r1, #-2147483645	; 0x80000003
     17c:	00171006 	andseq	r1, r7, r6
     180:	00240200 	eoreq	r0, r4, r0, lsl #4
     184:	0b3e0b0b 	bleq	f82db8 <__bss_end__+0xf78838>
     188:	00000803 	andeq	r0, r0, r3, lsl #16
     18c:	0b002403 	bleq	91a0 <clean_reboot+0x4>
     190:	030b3e0b 	movweq	r3, #48651	; 0xbe0b
     194:	0400000e 	streq	r0, [r0], #-14
     198:	0e030016 	mcreq	0, 0, r0, cr3, cr6, {0}
     19c:	0b3b0b3a 	bleq	ec2e8c <__bss_end__+0xeb890c>
     1a0:	13490b39 	movtne	r0, #39737	; 0x9b39
     1a4:	15050000 	strne	r0, [r5, #-0]
     1a8:	49192701 	ldmdbmi	r9, {r0, r8, r9, sl, sp}
     1ac:	00130113 	andseq	r0, r3, r3, lsl r1
     1b0:	00050600 	andeq	r0, r5, r0, lsl #12
     1b4:	00001349 	andeq	r1, r0, r9, asr #6
     1b8:	03003407 	movweq	r3, #1031	; 0x407
     1bc:	3b0b3a0e 	blcc	2ce9fc <__bss_end__+0x2c447c>
     1c0:	490b390b 	stmdbmi	fp, {r0, r1, r3, r8, fp, ip, sp}
     1c4:	3c193f13 	ldccc	15, cr3, [r9], {19}
     1c8:	08000019 	stmdaeq	r0, {r0, r3, r4}
     1cc:	0b0b000f 	bleq	2c0210 <__bss_end__+0x2b5c90>
     1d0:	00001349 	andeq	r1, r0, r9, asr #6
     1d4:	49002609 	stmdbmi	r0, {r0, r3, r9, sl, sp}
     1d8:	0a000013 	beq	22c <__code_start__-0x7dd4>
     1dc:	0b0b0113 	bleq	2c0630 <__bss_end__+0x2b60b0>
     1e0:	0b3b0b3a 	bleq	ec2ed0 <__bss_end__+0xeb8950>
     1e4:	13010b39 	movwne	r0, #6969	; 0x1b39
     1e8:	0d0b0000 	stceq	0, cr0, [fp, #-0]
     1ec:	3a0e0300 	bcc	380df4 <__bss_end__+0x376874>
     1f0:	390b3b0b 	stmdbcc	fp, {r0, r1, r3, r8, r9, fp, ip, sp}
     1f4:	3813490b 	ldmdacc	r3, {r0, r1, r3, r8, fp, lr}
     1f8:	0c00000b 	stceq	0, cr0, [r0], {11}
     1fc:	0b3e0104 	bleq	f80614 <__bss_end__+0xf76094>
     200:	13490b0b 	movtne	r0, #39691	; 0x9b0b
     204:	0b3b0b3a 	bleq	ec2ef4 <__bss_end__+0xeb8974>
     208:	13010b39 	movwne	r0, #6969	; 0x1b39
     20c:	280d0000 	stmdacs	sp, {}	; <UNPREDICTABLE>
     210:	1c0e0300 	stcne	3, cr0, [lr], {-0}
     214:	0e00000b 	cdpeq	0, 0, cr0, cr0, cr11, {0}
     218:	0e030113 	mcreq	1, 0, r0, cr3, cr3, {0}
     21c:	0b3a0b0b 	bleq	e82e50 <__bss_end__+0xe788d0>
     220:	0b390b3b 	bleq	e42f14 <__bss_end__+0xe38994>
     224:	00001301 	andeq	r1, r0, r1, lsl #6
     228:	0b000f0f 	bleq	3e6c <__code_start__-0x4194>
     22c:	1000000b 	andne	r0, r0, fp
     230:	0e030034 	mcreq	0, 0, r0, cr3, cr4, {1}
     234:	0b3b0b3a 	bleq	ec2f24 <__bss_end__+0xeb89a4>
     238:	13490b39 	movtne	r0, #39737	; 0x9b39
     23c:	00001802 	andeq	r1, r0, r2, lsl #16
     240:	3f012e11 	svccc	0x00012e11
     244:	3a0e0319 	bcc	380eb0 <__bss_end__+0x376930>
     248:	390b3b0b 	stmdbcc	fp, {r0, r1, r3, r8, r9, fp, ip, sp}
     24c:	4919270b 	ldmdbmi	r9, {r0, r1, r3, r8, r9, sl, sp}
     250:	12011113 	andne	r1, r1, #-1073741820	; 0xc0000004
     254:	97184006 	ldrls	r4, [r8, -r6]
     258:	13011942 	movwne	r1, #6466	; 0x1942
     25c:	05120000 	ldreq	r0, [r2, #-0]
     260:	3a0e0300 	bcc	380e68 <__bss_end__+0x3768e8>
     264:	390b3b0b 	stmdbcc	fp, {r0, r1, r3, r8, r9, fp, ip, sp}
     268:	0213490b 	andseq	r4, r3, #180224	; 0x2c000
     26c:	1742b717 	smlaldne	fp, r2, r7, r7
     270:	05130000 	ldreq	r0, [r3, #-0]
     274:	3a080300 	bcc	200e7c <__bss_end__+0x1f68fc>
     278:	390b3b0b 	stmdbcc	fp, {r0, r1, r3, r8, r9, fp, ip, sp}
     27c:	0213490b 	andseq	r4, r3, #180224	; 0x2c000
     280:	14000018 	strne	r0, [r0], #-24	; 0xffffffe8
     284:	08030034 	stmdaeq	r3, {r2, r4, r5}
     288:	0b3b0b3a 	bleq	ec2f78 <__bss_end__+0xeb89f8>
     28c:	13490b39 	movtne	r0, #39737	; 0x9b39
     290:	42b71702 	adcsmi	r1, r7, #524288	; 0x80000
     294:	15000017 	strne	r0, [r0, #-23]	; 0xffffffe9
     298:	01018289 	smlabbeq	r1, r9, r2, r8
     29c:	13310111 	teqne	r1, #1073741828	; 0x40000004
     2a0:	00001301 	andeq	r1, r0, r1, lsl #6
     2a4:	01828a16 	orreq	r8, r2, r6, lsl sl
     2a8:	91180200 	tstls	r8, r0, lsl #4
     2ac:	00001842 	andeq	r1, r0, r2, asr #16
     2b0:	01828917 	orreq	r8, r2, r7, lsl r9
     2b4:	31011101 	tstcc	r1, r1, lsl #2
     2b8:	18000013 	stmdane	r0, {r0, r1, r4}
     2bc:	193f012e 	ldmdbne	pc!, {r1, r2, r3, r5, r8}	; <UNPREDICTABLE>
     2c0:	0b3a0e03 	bleq	e83ad4 <__bss_end__+0xe79554>
     2c4:	0b390b3b 	bleq	e42fb8 <__bss_end__+0xe38a38>
     2c8:	01111927 	tsteq	r1, r7, lsr #18
     2cc:	18400612 	stmdane	r0, {r1, r4, r9, sl}^
     2d0:	01194297 			; <UNDEFINED> instruction: 0x01194297
     2d4:	19000013 	stmdbne	r0, {r0, r1, r4}
     2d8:	0e030034 	mcreq	0, 0, r0, cr3, cr4, {1}
     2dc:	19341349 	ldmdbne	r4!, {r0, r3, r6, r8, r9, ip}
     2e0:	00001802 	andeq	r1, r0, r2, lsl #16
     2e4:	0182891a 	orreq	r8, r2, sl, lsl r9
     2e8:	31011100 	mrscc	r1, (UNDEF: 17)
     2ec:	1b000013 	blne	340 <__code_start__-0x7cc0>
     2f0:	13490101 	movtne	r0, #37121	; 0x9101
     2f4:	00001301 	andeq	r1, r0, r1, lsl #6
     2f8:	4900211c 	stmdbmi	r0, {r2, r3, r4, r8, sp}
     2fc:	000b2f13 	andeq	r2, fp, r3, lsl pc
     300:	00051d00 	andeq	r1, r5, r0, lsl #26
     304:	0b3a0803 	bleq	e82318 <__bss_end__+0xe77d98>
     308:	0b390b3b 	bleq	e42ffc <__bss_end__+0xe38a7c>
     30c:	17021349 	strne	r1, [r2, -r9, asr #6]
     310:	001742b7 			; <UNDEFINED> instruction: 0x001742b7
     314:	010b1e00 	tsteq	fp, r0, lsl #28
     318:	06120111 			; <UNDEFINED> instruction: 0x06120111
     31c:	1d1f0000 	ldcne	0, cr0, [pc, #-0]	; 324 <__code_start__-0x7cdc>
     320:	52133101 	andspl	r3, r3, #1073741824	; 0x40000000
     324:	0b42b801 	bleq	10ae330 <__bss_end__+0x10a3db0>
     328:	06120111 			; <UNDEFINED> instruction: 0x06120111
     32c:	0b590b58 	bleq	1643094 <__bss_end__+0x1638b14>
     330:	13010b57 	movwne	r0, #6999	; 0x1b57
     334:	05200000 	streq	r0, [r0, #-0]!
     338:	02133100 	andseq	r3, r3, #0
     33c:	1742b717 	smlaldne	fp, r2, r7, r7
     340:	2e210000 	cdpcs	0, 2, cr0, cr1, cr0, {0}
     344:	03193f00 	tsteq	r9, #0, 30
     348:	3b0b3a0e 	blcc	2ceb88 <__bss_end__+0x2c4608>
     34c:	270b390b 	strcs	r3, [fp, -fp, lsl #18]
     350:	11134919 	tstne	r3, r9, lsl r9
     354:	40061201 	andmi	r1, r6, r1, lsl #4
     358:	19429718 	stmdbne	r2, {r3, r4, r8, r9, sl, ip, pc}^
     35c:	2e220000 	cdpcs	0, 2, cr0, cr2, cr0, {0}
     360:	3a0e0301 	bcc	380f6c <__bss_end__+0x3769ec>
     364:	390b3b0b 	stmdbcc	fp, {r0, r1, r3, r8, r9, fp, ip, sp}
     368:	1119270b 	tstne	r9, fp, lsl #14
     36c:	40061201 	andmi	r1, r6, r1, lsl #4
     370:	19429718 	stmdbne	r2, {r3, r4, r8, r9, sl, ip, pc}^
     374:	00001301 	andeq	r1, r0, r1, lsl #6
     378:	55010b23 	strpl	r0, [r1, #-2851]	; 0xfffff4dd
     37c:	24000017 	strcs	r0, [r0], #-23	; 0xffffffe9
     380:	0e030034 	mcreq	0, 0, r0, cr3, cr4, {1}
     384:	0b3b0b3a 	bleq	ec3074 <__bss_end__+0xeb8af4>
     388:	13490b39 	movtne	r0, #39737	; 0x9b39
     38c:	42b71702 	adcsmi	r1, r7, #524288	; 0x80000
     390:	25000017 	strcs	r0, [r0, #-23]	; 0xffffffe9
     394:	0e03012e 	adfeqsp	f0, f3, #0.5
     398:	0b3b0b3a 	bleq	ec3088 <__bss_end__+0xeb8b08>
     39c:	19270b39 	stmdbne	r7!, {r0, r3, r4, r5, r8, r9, fp}
     3a0:	0b201349 	bleq	8050cc <__bss_end__+0x7fab4c>
     3a4:	00001301 	andeq	r1, r0, r1, lsl #6
     3a8:	03000526 	movweq	r0, #1318	; 0x526
     3ac:	3b0b3a08 	blcc	2cebd4 <__bss_end__+0x2c4654>
     3b0:	490b390b 	stmdbmi	fp, {r0, r1, r3, r8, fp, ip, sp}
     3b4:	27000013 	smladcs	r0, r3, r0, r0
     3b8:	193f002e 	ldmdbne	pc!, {r1, r2, r3, r5}	; <UNPREDICTABLE>
     3bc:	0e6e193c 			; <UNDEFINED> instruction: 0x0e6e193c
     3c0:	0b3a0e03 	bleq	e83bd4 <__bss_end__+0xe79654>
     3c4:	0b390b3b 	bleq	e430b8 <__bss_end__+0xe38b38>
     3c8:	01000000 	mrseq	r0, (UNDEF: 0)
     3cc:	0e250111 	mcreq	1, 1, r0, cr5, cr1, {0}
     3d0:	0e030b13 	vmoveq.32	d3[0], r0
     3d4:	01110e1b 	tsteq	r1, fp, lsl lr
     3d8:	17100612 			; <UNDEFINED> instruction: 0x17100612
     3dc:	24020000 	strcs	r0, [r2], #-0
     3e0:	3e0b0b00 	vmlacc.f64	d0, d11, d0
     3e4:	0008030b 	andeq	r0, r8, fp, lsl #6
     3e8:	00240300 	eoreq	r0, r4, r0, lsl #6
     3ec:	0b3e0b0b 	bleq	f83020 <__bss_end__+0xf78aa0>
     3f0:	00000e03 	andeq	r0, r0, r3, lsl #28
     3f4:	49002604 	stmdbmi	r0, {r2, r9, sl, sp}
     3f8:	05000013 	streq	r0, [r0, #-19]	; 0xffffffed
     3fc:	0e030016 	mcreq	0, 0, r0, cr3, cr6, {0}
     400:	0b3b0b3a 	bleq	ec30f0 <__bss_end__+0xeb8b70>
     404:	13490b39 	movtne	r0, #39737	; 0x9b39
     408:	15060000 	strne	r0, [r6, #-0]
     40c:	49192701 	ldmdbmi	r9, {r0, r8, r9, sl, sp}
     410:	00130113 	andseq	r0, r3, r3, lsl r1
     414:	00050700 	andeq	r0, r5, r0, lsl #14
     418:	00001349 	andeq	r1, r0, r9, asr #6
     41c:	03003408 	movweq	r3, #1032	; 0x408
     420:	3b0b3a0e 	blcc	2cec60 <__bss_end__+0x2c46e0>
     424:	490b390b 	stmdbmi	fp, {r0, r1, r3, r8, fp, ip, sp}
     428:	3c193f13 	ldccc	15, cr3, [r9], {19}
     42c:	09000019 	stmdbeq	r0, {r0, r3, r4}
     430:	0b0b000f 	bleq	2c0474 <__bss_end__+0x2b5ef4>
     434:	00001349 	andeq	r1, r0, r9, asr #6
     438:	0b01130a 	bleq	45068 <__bss_end__+0x3aae8>
     43c:	3b0b3a0b 	blcc	2cec70 <__bss_end__+0x2c46f0>
     440:	010b390b 	tsteq	fp, fp, lsl #18
     444:	0b000013 	bleq	498 <__code_start__-0x7b68>
     448:	0e03000d 	cdpeq	0, 0, cr0, cr3, cr13, {0}
     44c:	0b3b0b3a 	bleq	ec313c <__bss_end__+0xeb8bbc>
     450:	13490b39 	movtne	r0, #39737	; 0x9b39
     454:	00000b38 	andeq	r0, r0, r8, lsr fp
     458:	0301130c 	movweq	r1, #4876	; 0x130c
     45c:	3a0b0b0e 	bcc	2c309c <__bss_end__+0x2b8b1c>
     460:	390b3b0b 	stmdbcc	fp, {r0, r1, r3, r8, r9, fp, ip, sp}
     464:	0013010b 	andseq	r0, r3, fp, lsl #2
     468:	000f0d00 	andeq	r0, pc, r0, lsl #26
     46c:	00000b0b 	andeq	r0, r0, fp, lsl #22
     470:	0300340e 	movweq	r3, #1038	; 0x40e
     474:	3b0b3a0e 	blcc	2cecb4 <__bss_end__+0x2c4734>
     478:	490b390b 	stmdbmi	fp, {r0, r1, r3, r8, fp, ip, sp}
     47c:	00180213 	andseq	r0, r8, r3, lsl r2
     480:	012e0f00 			; <UNDEFINED> instruction: 0x012e0f00
     484:	0e03193f 			; <UNDEFINED> instruction: 0x0e03193f
     488:	0b3b0b3a 	bleq	ec3178 <__bss_end__+0xeb8bf8>
     48c:	19270b39 	stmdbne	r7!, {r0, r3, r4, r5, r8, r9, fp}
     490:	06120111 			; <UNDEFINED> instruction: 0x06120111
     494:	42971840 	addsmi	r1, r7, #64, 16	; 0x400000
     498:	00130119 	andseq	r0, r3, r9, lsl r1
     49c:	00341000 	eorseq	r1, r4, r0
     4a0:	13490e03 	movtne	r0, #40451	; 0x9e03
     4a4:	18021934 	stmdane	r2, {r2, r4, r5, r8, fp, ip}
     4a8:	89110000 	ldmdbhi	r1, {}	; <UNPREDICTABLE>
     4ac:	11010182 	smlabbne	r1, r2, r1, r0
     4b0:	01133101 	tsteq	r3, r1, lsl #2
     4b4:	12000013 	andne	r0, r0, #19, 0
     4b8:	0001828a 	andeq	r8, r1, sl, lsl #5
     4bc:	42911802 	addsmi	r1, r1, #131072	; 0x20000
     4c0:	13000018 	movwne	r0, #24
     4c4:	00018289 	andeq	r8, r1, r9, lsl #5
     4c8:	13310111 	teqne	r1, #1073741828	; 0x40000004
     4cc:	01140000 	tsteq	r4, r0
     4d0:	01134901 	tsteq	r3, r1, lsl #18
     4d4:	15000013 	strne	r0, [r0, #-19]	; 0xffffffed
     4d8:	13490021 	movtne	r0, #36897	; 0x9021
     4dc:	00000b2f 	andeq	r0, r0, pc, lsr #22
     4e0:	3f012e16 	svccc	0x00012e16
     4e4:	3a0e0319 	bcc	381150 <__bss_end__+0x376bd0>
     4e8:	390b3b0b 	stmdbcc	fp, {r0, r1, r3, r8, r9, fp, ip, sp}
     4ec:	4919270b 	ldmdbmi	r9, {r0, r1, r3, r8, r9, sl, sp}
     4f0:	12011113 	andne	r1, r1, #-1073741820	; 0xc0000004
     4f4:	97184006 	ldrls	r4, [r8, -r6]
     4f8:	13011942 	movwne	r1, #6466	; 0x1942
     4fc:	34170000 	ldrcc	r0, [r7], #-0
     500:	3a0e0300 	bcc	381108 <__bss_end__+0x376b88>
     504:	390b3b0b 	stmdbcc	fp, {r0, r1, r3, r8, r9, fp, ip, sp}
     508:	0013490b 	andseq	r4, r3, fp, lsl #18
     50c:	012e1800 			; <UNDEFINED> instruction: 0x012e1800
     510:	0b3a0e03 	bleq	e83d24 <__bss_end__+0xe797a4>
     514:	0b390b3b 	bleq	e43208 <__bss_end__+0xe38c88>
     518:	13491927 	movtne	r1, #39207	; 0x9927
     51c:	06120111 			; <UNDEFINED> instruction: 0x06120111
     520:	42971840 	addsmi	r1, r7, #64, 16	; 0x400000
     524:	00130119 	andseq	r0, r3, r9, lsl r1
     528:	00341900 	eorseq	r1, r4, r0, lsl #18
     52c:	0b3a0e03 	bleq	e83d40 <__bss_end__+0xe797c0>
     530:	0b390b3b 	bleq	e43224 <__bss_end__+0xe38ca4>
     534:	0b1c1349 	bleq	705260 <__bss_end__+0x6face0>
     538:	341a0000 	ldrcc	r0, [sl], #-0
     53c:	490e0300 	stmdbmi	lr, {r8, r9}
     540:	1c193413 	cfldrsne	mvf3, [r9], {19}
     544:	1b00000e 	blne	584 <__code_start__-0x7a7c>
     548:	01018289 	smlabbeq	r1, r9, r2, r8
     54c:	13310111 	teqne	r1, #1073741828	; 0x40000004
     550:	051c0000 	ldreq	r0, [ip, #-0]
     554:	3a0e0300 	bcc	38115c <__bss_end__+0x376bdc>
     558:	390b3b0b 	stmdbcc	fp, {r0, r1, r3, r8, r9, fp, ip, sp}
     55c:	0213490b 	andseq	r4, r3, #180224	; 0x2c000
     560:	1742b717 	smlaldne	fp, r2, r7, r7
     564:	2e1d0000 	cdpcs	0, 1, cr0, cr13, cr0, {0}
     568:	3a0e0301 	bcc	381174 <__bss_end__+0x376bf4>
     56c:	390b3b0b 	stmdbcc	fp, {r0, r1, r3, r8, r9, fp, ip, sp}
     570:	1119270b 	tstne	r9, fp, lsl #14
     574:	40061201 	andmi	r1, r6, r1, lsl #4
     578:	19429718 	stmdbne	r2, {r3, r4, r8, r9, sl, ip, pc}^
     57c:	00001301 	andeq	r1, r0, r1, lsl #6
     580:	0300341e 	movweq	r3, #1054	; 0x41e
     584:	3413490e 	ldrcc	r4, [r3], #-2318	; 0xfffff6f2
     588:	1f000019 	svcne	0x00000019
     58c:	0e030034 	mcreq	0, 0, r0, cr3, cr4, {1}
     590:	0b3b0b3a 	bleq	ec3280 <__bss_end__+0xeb8d00>
     594:	13490b39 	movtne	r0, #39737	; 0x9b39
     598:	0000061c 	andeq	r0, r0, ip, lsl r6
     59c:	11010b20 	tstne	r1, r0, lsr #22
     5a0:	01061201 	tsteq	r6, r1, lsl #4
     5a4:	21000013 	tstcs	r0, r3, lsl r0
     5a8:	08030034 	stmdaeq	r3, {r2, r4, r5}
     5ac:	0b3b0b3a 	bleq	ec329c <__bss_end__+0xeb8d1c>
     5b0:	13490b39 	movtne	r0, #39737	; 0x9b39
     5b4:	42b71702 	adcsmi	r1, r7, #524288	; 0x80000
     5b8:	22000017 	andcs	r0, r0, #23, 0
     5bc:	08030005 	stmdaeq	r3, {r0, r2}
     5c0:	0b3b0b3a 	bleq	ec32b0 <__bss_end__+0xeb8d30>
     5c4:	13490b39 	movtne	r0, #39737	; 0x9b39
     5c8:	42b71702 	adcsmi	r1, r7, #524288	; 0x80000
     5cc:	23000017 	movwcs	r0, #23
     5d0:	0e030034 	mcreq	0, 0, r0, cr3, cr4, {1}
     5d4:	0b3b0b3a 	bleq	ec32c4 <__bss_end__+0xeb8d44>
     5d8:	13490b39 	movtne	r0, #39737	; 0x9b39
     5dc:	42b71702 	adcsmi	r1, r7, #524288	; 0x80000
     5e0:	24000017 	strcs	r0, [r0], #-23	; 0xffffffe9
     5e4:	1755010b 	ldrbne	r0, [r5, -fp, lsl #2]
     5e8:	00001301 	andeq	r1, r0, r1, lsl #6
     5ec:	55010b25 	strpl	r0, [r1, #-2853]	; 0xfffff4db
     5f0:	26000017 			; <UNDEFINED> instruction: 0x26000017
     5f4:	193f002e 	ldmdbne	pc!, {r1, r2, r3, r5}	; <UNPREDICTABLE>
     5f8:	0e6e193c 			; <UNDEFINED> instruction: 0x0e6e193c
     5fc:	0b3a0e03 	bleq	e83e10 <__bss_end__+0xe79890>
     600:	0b390b3b 	bleq	e432f4 <__bss_end__+0xe38d74>
     604:	01000000 	mrseq	r0, (UNDEF: 0)
     608:	0e250111 	mcreq	1, 1, r0, cr5, cr1, {0}
     60c:	0e030b13 	vmoveq.32	d3[0], r0
     610:	01110e1b 	tsteq	r1, fp, lsl lr
     614:	17100612 			; <UNDEFINED> instruction: 0x17100612
     618:	24020000 	strcs	r0, [r2], #-0
     61c:	3e0b0b00 	vmlacc.f64	d0, d11, d0
     620:	0008030b 	andeq	r0, r8, fp, lsl #6
     624:	00240300 	eoreq	r0, r4, r0, lsl #6
     628:	0b3e0b0b 	bleq	f8325c <__bss_end__+0xf78cdc>
     62c:	00000e03 	andeq	r0, r0, r3, lsl #28
     630:	27011504 	strcs	r1, [r1, -r4, lsl #10]
     634:	01134919 	tsteq	r3, r9, lsl r9
     638:	05000013 	streq	r0, [r0, #-19]	; 0xffffffed
     63c:	13490005 	movtne	r0, #36869	; 0x9005
     640:	34060000 	strcc	r0, [r6], #-0
     644:	3a0e0300 	bcc	38124c <__bss_end__+0x376ccc>
     648:	390b3b0b 	stmdbcc	fp, {r0, r1, r3, r8, r9, fp, ip, sp}
     64c:	3f13490b 	svccc	0x0013490b
     650:	00193c19 	andseq	r3, r9, r9, lsl ip
     654:	000f0700 	andeq	r0, pc, r0, lsl #14
     658:	13490b0b 	movtne	r0, #39691	; 0x9b0b
     65c:	26080000 	strcs	r0, [r8], -r0
     660:	00134900 	andseq	r4, r3, r0, lsl #18
     664:	01170900 	tsteq	r7, r0, lsl #18
     668:	0b0b0e03 	bleq	2c3e7c <__bss_end__+0x2b98fc>
     66c:	0b3b0b3a 	bleq	ec335c <__bss_end__+0xeb8ddc>
     670:	13010b39 	movwne	r0, #6969	; 0x1b39
     674:	0d0a0000 	stceq	0, cr0, [sl, #-0]
     678:	3a080300 	bcc	201280 <__bss_end__+0x1f6d00>
     67c:	390b3b0b 	stmdbcc	fp, {r0, r1, r3, r8, r9, fp, ip, sp}
     680:	0013490b 	andseq	r4, r3, fp, lsl #18
     684:	000f0b00 	andeq	r0, pc, r0, lsl #22
     688:	00000b0b 	andeq	r0, r0, fp, lsl #22
     68c:	2700150c 	strcs	r1, [r0, -ip, lsl #10]
     690:	0d000019 	stceq	0, cr0, [r0, #-100]	; 0xffffff9c
     694:	0b0b0113 	bleq	2c0ae8 <__bss_end__+0x2b6568>
     698:	0b3b0b3a 	bleq	ec3388 <__bss_end__+0xeb8e08>
     69c:	13010b39 	movwne	r0, #6969	; 0x1b39
     6a0:	0d0e0000 	stceq	0, cr0, [lr, #-0]
     6a4:	3a080300 	bcc	2012ac <__bss_end__+0x1f6d2c>
     6a8:	390b3b0b 	stmdbcc	fp, {r0, r1, r3, r8, r9, fp, ip, sp}
     6ac:	3813490b 	ldmdacc	r3, {r0, r1, r3, r8, fp, lr}
     6b0:	0f00000b 	svceq	0x0000000b
     6b4:	0e03000d 	cdpeq	0, 0, cr0, cr3, cr13, {0}
     6b8:	0b3b0b3a 	bleq	ec33a8 <__bss_end__+0xeb8e28>
     6bc:	13490b39 	movtne	r0, #39737	; 0x9b39
     6c0:	00000b38 	andeq	r0, r0, r8, lsr fp
     6c4:	03001610 	movweq	r1, #1552	; 0x610
     6c8:	3b0b3a0e 	blcc	2cef08 <__bss_end__+0x2c4988>
     6cc:	490b390b 	stmdbmi	fp, {r0, r1, r3, r8, fp, ip, sp}
     6d0:	11000013 	tstne	r0, r3, lsl r0
     6d4:	0e030034 	mcreq	0, 0, r0, cr3, cr4, {1}
     6d8:	0b3b0b3a 	bleq	ec33c8 <__bss_end__+0xeb8e48>
     6dc:	13490b39 	movtne	r0, #39737	; 0x9b39
     6e0:	00001802 	andeq	r1, r0, r2, lsl #16
     6e4:	3f012e12 	svccc	0x00012e12
     6e8:	3a0e0319 	bcc	381354 <__bss_end__+0x376dd4>
     6ec:	390b3b0b 	stmdbcc	fp, {r0, r1, r3, r8, r9, fp, ip, sp}
     6f0:	1119270b 	tstne	r9, fp, lsl #14
     6f4:	40061201 	andmi	r1, r6, r1, lsl #4
     6f8:	19429718 	stmdbne	r2, {r3, r4, r8, r9, sl, ip, pc}^
     6fc:	00001301 	andeq	r1, r0, r1, lsl #6
     700:	03000513 	movweq	r0, #1299	; 0x513
     704:	3b0b3a08 	blcc	2cef2c <__bss_end__+0x2c49ac>
     708:	490b390b 	stmdbmi	fp, {r0, r1, r3, r8, fp, ip, sp}
     70c:	00180213 	andseq	r0, r8, r3, lsl r2
     710:	00341400 	eorseq	r1, r4, r0, lsl #8
     714:	0b3a0803 	bleq	e82728 <__bss_end__+0xe781a8>
     718:	0b390b3b 	bleq	e4340c <__bss_end__+0xe38e8c>
     71c:	17021349 	strne	r1, [r2, -r9, asr #6]
     720:	001742b7 			; <UNDEFINED> instruction: 0x001742b7
     724:	012e1500 			; <UNDEFINED> instruction: 0x012e1500
     728:	0e03193f 			; <UNDEFINED> instruction: 0x0e03193f
     72c:	0b3b0b3a 	bleq	ec341c <__bss_end__+0xeb8e9c>
     730:	19270b39 	stmdbne	r7!, {r0, r3, r4, r5, r8, r9, fp}
     734:	01111349 	tsteq	r1, r9, asr #6
     738:	18400612 	stmdane	r0, {r1, r4, r9, sl}^
     73c:	01194297 			; <UNDEFINED> instruction: 0x01194297
     740:	16000013 			; <UNDEFINED> instruction: 0x16000013
     744:	0e030005 	cdpeq	0, 0, cr0, cr3, cr5, {0}
     748:	0b3b0b3a 	bleq	ec3438 <__bss_end__+0xeb8eb8>
     74c:	13490b39 	movtne	r0, #39737	; 0x9b39
     750:	42b71702 	adcsmi	r1, r7, #524288	; 0x80000
     754:	17000017 	smladne	r0, r7, r0, r0
     758:	0e030034 	mcreq	0, 0, r0, cr3, cr4, {1}
     75c:	0b3b0b3a 	bleq	ec344c <__bss_end__+0xeb8ecc>
     760:	13490b39 	movtne	r0, #39737	; 0x9b39
     764:	42b71702 	adcsmi	r1, r7, #524288	; 0x80000
     768:	18000017 	stmdane	r0, {r0, r1, r2, r4}
     76c:	193f012e 	ldmdbne	pc!, {r1, r2, r3, r5, r8}	; <UNPREDICTABLE>
     770:	0b3a0e03 	bleq	e83f84 <__bss_end__+0xe79a04>
     774:	0b390b3b 	bleq	e43468 <__bss_end__+0xe38ee8>
     778:	13491927 	movtne	r1, #39207	; 0x9927
     77c:	1301193c 	movwne	r1, #6460	; 0x193c
     780:	89190000 	ldmdbhi	r9, {}	; <UNPREDICTABLE>
     784:	11010182 	smlabbne	r1, r2, r1, r0
     788:	00133101 	andseq	r3, r3, r1, lsl #2
     78c:	828a1a00 	addhi	r1, sl, #0, 20
     790:	18020001 	stmdane	r2, {r0}
     794:	00184291 	mulseq	r8, r1, r2
     798:	012e1b00 			; <UNDEFINED> instruction: 0x012e1b00
     79c:	0b3a0e03 	bleq	e83fb0 <__bss_end__+0xe79a30>
     7a0:	0b390b3b 	bleq	e43494 <__bss_end__+0xe38f14>
     7a4:	13491927 	movtne	r1, #39207	; 0x9927
     7a8:	06120111 			; <UNDEFINED> instruction: 0x06120111
     7ac:	42971840 	addsmi	r1, r7, #64, 16	; 0x400000
     7b0:	00130119 	andseq	r0, r3, r9, lsl r1
     7b4:	00051c00 	andeq	r1, r5, r0, lsl #24
     7b8:	0b3a0803 	bleq	e827cc <__bss_end__+0xe7824c>
     7bc:	0b390b3b 	bleq	e434b0 <__bss_end__+0xe38f30>
     7c0:	17021349 	strne	r1, [r2, -r9, asr #6]
     7c4:	001742b7 			; <UNDEFINED> instruction: 0x001742b7
     7c8:	82891d00 	addhi	r1, r9, #0, 26
     7cc:	01110101 	tsteq	r1, r1, lsl #2
     7d0:	13011331 	movwne	r1, #4913	; 0x1331
     7d4:	891e0000 	ldmdbhi	lr, {}	; <UNPREDICTABLE>
     7d8:	11000182 	smlabbne	r0, r2, r1, r0
     7dc:	00133101 	andseq	r3, r3, r1, lsl #2
     7e0:	002e1f00 	eoreq	r1, lr, r0, lsl #30
     7e4:	193c193f 	ldmdbne	ip!, {r0, r1, r2, r3, r4, r5, r8, fp, ip}
     7e8:	0e030e6e 	cdpeq	14, 0, cr0, cr3, cr14, {3}
     7ec:	0b3b0b3a 	bleq	ec34dc <__bss_end__+0xeb8f5c>
     7f0:	00000b39 	andeq	r0, r0, r9, lsr fp
     7f4:	01110100 	tsteq	r1, r0, lsl #2
     7f8:	0b130e25 	bleq	4c4094 <__bss_end__+0x4b9b14>
     7fc:	0e1b0e03 	cdpeq	14, 1, cr0, cr11, cr3, {0}
     800:	06120111 			; <UNDEFINED> instruction: 0x06120111
     804:	00001710 	andeq	r1, r0, r0, lsl r7
     808:	0b002402 	bleq	9818 <kmalloc_aligned+0xfc>
     80c:	030b3e0b 	movweq	r3, #48651	; 0xbe0b
     810:	03000008 	movweq	r0, #8
     814:	0e030016 	mcreq	0, 0, r0, cr3, cr6, {0}
     818:	0b3b0b3a 	bleq	ec3508 <__bss_end__+0xeb8f88>
     81c:	13490b39 	movtne	r0, #39737	; 0x9b39
     820:	24040000 	strcs	r0, [r4], #-0
     824:	3e0b0b00 	vmlacc.f64	d0, d11, d0
     828:	000e030b 	andeq	r0, lr, fp, lsl #6
     82c:	01150500 	tsteq	r5, r0, lsl #10
     830:	13491927 	movtne	r1, #39207	; 0x9927
     834:	00001301 	andeq	r1, r0, r1, lsl #6
     838:	49000506 	stmdbmi	r0, {r1, r2, r8, sl}
     83c:	07000013 	smladeq	r0, r3, r0, r0
     840:	0e030034 	mcreq	0, 0, r0, cr3, cr4, {1}
     844:	0b3b0b3a 	bleq	ec3534 <__bss_end__+0xeb8fb4>
     848:	13490b39 	movtne	r0, #39737	; 0x9b39
     84c:	193c193f 	ldmdbne	ip!, {r0, r1, r2, r3, r4, r5, r8, fp, ip}
     850:	0f080000 	svceq	0x00080000
     854:	490b0b00 	stmdbmi	fp, {r8, r9, fp}
     858:	09000013 	stmdbeq	r0, {r0, r1, r4}
     85c:	13490026 	movtne	r0, #36902	; 0x9026
     860:	2e0a0000 	cdpcs	0, 0, cr0, cr10, cr0, {0}
     864:	03193f01 	tsteq	r9, #1, 30
     868:	3b0b3a0e 	blcc	2cf0a8 <__bss_end__+0x2c4b28>
     86c:	270b390b 	strcs	r3, [fp, -fp, lsl #18]
     870:	11134919 	tstne	r3, r9, lsl r9
     874:	40061201 	andmi	r1, r6, r1, lsl #4
     878:	19429718 	stmdbne	r2, {r3, r4, r8, r9, sl, ip, pc}^
     87c:	00001301 	andeq	r1, r0, r1, lsl #6
     880:	0300050b 	movweq	r0, #1291	; 0x50b
     884:	3b0b3a08 	blcc	2cf0ac <__bss_end__+0x2c4b2c>
     888:	490b390b 	stmdbmi	fp, {r0, r1, r3, r8, fp, ip, sp}
     88c:	00180213 	andseq	r0, r8, r3, lsl r2
     890:	00050c00 	andeq	r0, r5, r0, lsl #24
     894:	0b3a0803 	bleq	e828a8 <__bss_end__+0xe78328>
     898:	0b390b3b 	bleq	e4358c <__bss_end__+0xe3900c>
     89c:	17021349 	strne	r1, [r2, -r9, asr #6]
     8a0:	001742b7 			; <UNDEFINED> instruction: 0x001742b7
     8a4:	00340d00 	eorseq	r0, r4, r0, lsl #26
     8a8:	0b3a0803 	bleq	e828bc <__bss_end__+0xe7833c>
     8ac:	0b390b3b 	bleq	e435a0 <__bss_end__+0xe39020>
     8b0:	17021349 	strne	r1, [r2, -r9, asr #6]
     8b4:	001742b7 			; <UNDEFINED> instruction: 0x001742b7
     8b8:	000f0e00 	andeq	r0, pc, r0, lsl #28
     8bc:	00000b0b 	andeq	r0, r0, fp, lsl #22
     8c0:	01110100 	tsteq	r1, r0, lsl #2
     8c4:	0b130e25 	bleq	4c4160 <__bss_end__+0x4b9be0>
     8c8:	0e1b0e03 	cdpeq	14, 1, cr0, cr11, cr3, {0}
     8cc:	06120111 			; <UNDEFINED> instruction: 0x06120111
     8d0:	00001710 	andeq	r1, r0, r0, lsl r7
     8d4:	03001602 	movweq	r1, #1538	; 0x602
     8d8:	3b0b3a0e 	blcc	2cf118 <__bss_end__+0x2c4b98>
     8dc:	490b390b 	stmdbmi	fp, {r0, r1, r3, r8, fp, ip, sp}
     8e0:	03000013 	movweq	r0, #19
     8e4:	0e030113 	mcreq	1, 0, r0, cr3, cr3, {0}
     8e8:	0b3a0b0b 	bleq	e8351c <__bss_end__+0xe78f9c>
     8ec:	13010b3b 	movwne	r0, #6971	; 0x1b3b
     8f0:	0d040000 	stceq	0, cr0, [r4, #-0]
     8f4:	490e0300 	stmdbmi	lr, {r8, r9}
     8f8:	340b3813 	strcc	r3, [fp], #-2067	; 0xfffff7ed
     8fc:	05000019 	streq	r0, [r0, #-25]	; 0xffffffe7
     900:	0b0b000f 	bleq	2c0944 <__bss_end__+0x2b63c4>
     904:	24060000 	strcs	r0, [r6], #-0
     908:	3e0b0b00 	vmlacc.f64	d0, d11, d0
     90c:	0008030b 	andeq	r0, r8, fp, lsl #6
     910:	00240700 	eoreq	r0, r4, r0, lsl #14
     914:	0b3e0b0b 	bleq	f83548 <__bss_end__+0xf78fc8>
     918:	00000e03 	andeq	r0, r0, r3, lsl #28
     91c:	27011508 	strcs	r1, [r1, -r8, lsl #10]
     920:	01134919 	tsteq	r3, r9, lsl r9
     924:	09000013 	stmdbeq	r0, {r0, r1, r4}
     928:	13490005 	movtne	r0, #36869	; 0x9005
     92c:	340a0000 	strcc	r0, [sl], #-0
     930:	3a0e0300 	bcc	381538 <__bss_end__+0x376fb8>
     934:	390b3b0b 	stmdbcc	fp, {r0, r1, r3, r8, r9, fp, ip, sp}
     938:	3f13490b 	svccc	0x0013490b
     93c:	00193c19 	andseq	r3, r9, r9, lsl ip
     940:	000f0b00 	andeq	r0, pc, r0, lsl #22
     944:	13490b0b 	movtne	r0, #39691	; 0x9b0b
     948:	260c0000 	strcs	r0, [ip], -r0
     94c:	00134900 	andseq	r4, r3, r0, lsl #18
     950:	012e0d00 			; <UNDEFINED> instruction: 0x012e0d00
     954:	0e03193f 			; <UNDEFINED> instruction: 0x0e03193f
     958:	0b3b0b3a 	bleq	ec3648 <__bss_end__+0xeb90c8>
     95c:	19270b39 	stmdbne	r7!, {r0, r3, r4, r5, r8, r9, fp}
     960:	01111349 	tsteq	r1, r9, asr #6
     964:	18400612 	stmdane	r0, {r1, r4, r9, sl}^
     968:	01194297 			; <UNDEFINED> instruction: 0x01194297
     96c:	0e000013 	mcreq	0, 0, r0, cr0, cr3, {0}
     970:	08030005 	stmdaeq	r3, {r0, r2}
     974:	0b3b0b3a 	bleq	ec3664 <__bss_end__+0xeb90e4>
     978:	13490b39 	movtne	r0, #39737	; 0x9b39
     97c:	00001802 	andeq	r1, r0, r2, lsl #16
     980:	0000180f 	andeq	r1, r0, pc, lsl #16
     984:	00341000 	eorseq	r1, r4, r0
     988:	0b3a0803 	bleq	e8299c <__bss_end__+0xe7841c>
     98c:	0b390b3b 	bleq	e43680 <__bss_end__+0xe39100>
     990:	18021349 	stmdane	r2, {r0, r3, r6, r8, r9, ip}
     994:	34110000 	ldrcc	r0, [r1], #-0
     998:	3a0e0300 	bcc	3815a0 <__bss_end__+0x377020>
     99c:	390b3b0b 	stmdbcc	fp, {r0, r1, r3, r8, r9, fp, ip, sp}
     9a0:	0213490b 	andseq	r4, r3, #180224	; 0x2c000
     9a4:	12000018 	andne	r0, r0, #24, 0
     9a8:	08030034 	stmdaeq	r3, {r2, r4, r5}
     9ac:	0b3b0b3a 	bleq	ec369c <__bss_end__+0xeb911c>
     9b0:	13490b39 	movtne	r0, #39737	; 0x9b39
     9b4:	42b71702 	adcsmi	r1, r7, #524288	; 0x80000
     9b8:	13000017 	movwne	r0, #23
     9bc:	01018289 	smlabbeq	r1, r9, r2, r8
     9c0:	13310111 	teqne	r1, #1073741828	; 0x40000004
     9c4:	00001301 	andeq	r1, r0, r1, lsl #6
     9c8:	01828a14 	orreq	r8, r2, r4, lsl sl
     9cc:	91180200 	tstls	r8, r0, lsl #4
     9d0:	00001842 	andeq	r1, r0, r2, asr #16
     9d4:	01828915 	orreq	r8, r2, r5, lsl r9
     9d8:	00011101 	andeq	r1, r1, r1, lsl #2
     9dc:	01011600 	tsteq	r1, r0, lsl #12
     9e0:	13011349 	movwne	r1, #4937	; 0x1349
     9e4:	21170000 	tstcs	r7, r0
     9e8:	2f134900 	svccs	0x00134900
     9ec:	18000005 	stmdane	r0, {r0, r2}
     9f0:	193f002e 	ldmdbne	pc!, {r1, r2, r3, r5}	; <UNPREDICTABLE>
     9f4:	0e6e193c 			; <UNDEFINED> instruction: 0x0e6e193c
     9f8:	0b3a0e03 	bleq	e8420c <__bss_end__+0xe79c8c>
     9fc:	0b390b3b 	bleq	e436f0 <__bss_end__+0xe39170>
     a00:	01000000 	mrseq	r0, (UNDEF: 0)
     a04:	0e250111 	mcreq	1, 1, r0, cr5, cr1, {0}
     a08:	0e030b13 	vmoveq.32	d3[0], r0
     a0c:	01110e1b 	tsteq	r1, fp, lsl lr
     a10:	17100612 			; <UNDEFINED> instruction: 0x17100612
     a14:	24020000 	strcs	r0, [r2], #-0
     a18:	3e0b0b00 	vmlacc.f64	d0, d11, d0
     a1c:	0008030b 	andeq	r0, r8, fp, lsl #6
     a20:	00240300 	eoreq	r0, r4, r0, lsl #6
     a24:	0b3e0b0b 	bleq	f83658 <__bss_end__+0xf790d8>
     a28:	00000e03 	andeq	r0, r0, r3, lsl #28
     a2c:	27011504 	strcs	r1, [r1, -r4, lsl #10]
     a30:	01134919 	tsteq	r3, r9, lsl r9
     a34:	05000013 	streq	r0, [r0, #-19]	; 0xffffffed
     a38:	13490005 	movtne	r0, #36869	; 0x9005
     a3c:	34060000 	strcc	r0, [r6], #-0
     a40:	3a0e0300 	bcc	381648 <__bss_end__+0x3770c8>
     a44:	390b3b0b 	stmdbcc	fp, {r0, r1, r3, r8, r9, fp, ip, sp}
     a48:	3f13490b 	svccc	0x0013490b
     a4c:	00193c19 	andseq	r3, r9, r9, lsl ip
     a50:	000f0700 	andeq	r0, pc, r0, lsl #14
     a54:	13490b0b 	movtne	r0, #39691	; 0x9b0b
     a58:	26080000 	strcs	r0, [r8], -r0
     a5c:	00134900 	andseq	r4, r3, r0, lsl #18
     a60:	00340900 	eorseq	r0, r4, r0, lsl #18
     a64:	0b3a1347 	bleq	e85788 <__bss_end__+0xe7b208>
     a68:	0b390b3b 	bleq	e4375c <__bss_end__+0xe391dc>
     a6c:	00001802 	andeq	r1, r0, r2, lsl #16
     a70:	3f012e0a 	svccc	0x00012e0a
     a74:	3a0e0319 	bcc	3816e0 <__bss_end__+0x377160>
     a78:	390b3b0b 	stmdbcc	fp, {r0, r1, r3, r8, r9, fp, ip, sp}
     a7c:	4919270b 	ldmdbmi	r9, {r0, r1, r3, r8, r9, sl, sp}
     a80:	12011113 	andne	r1, r1, #-1073741820	; 0xc0000004
     a84:	96184006 	ldrls	r4, [r8], -r6
     a88:	00001942 	andeq	r1, r0, r2, asr #18
     a8c:	0300050b 	movweq	r0, #1291	; 0x50b
     a90:	3b0b3a08 	blcc	2cf2b8 <__bss_end__+0x2c4d38>
     a94:	490b390b 	stmdbmi	fp, {r0, r1, r3, r8, fp, ip, sp}
     a98:	b7170213 			; <UNDEFINED> instruction: 0xb7170213
     a9c:	00001742 	andeq	r1, r0, r2, asr #14
     aa0:	01110100 	tsteq	r1, r0, lsl #2
     aa4:	0b130e25 	bleq	4c4340 <__bss_end__+0x4b9dc0>
     aa8:	0e1b0e03 	cdpeq	14, 1, cr0, cr11, cr3, {0}
     aac:	06120111 			; <UNDEFINED> instruction: 0x06120111
     ab0:	00001710 	andeq	r1, r0, r0, lsl r7
     ab4:	0b002402 	bleq	9ac4 <gpio_read+0x2c>
     ab8:	030b3e0b 	movweq	r3, #48651	; 0xbe0b
     abc:	03000008 	movweq	r0, #8
     ac0:	0b0b0024 	bleq	2c0b58 <__bss_end__+0x2b65d8>
     ac4:	0e030b3e 	vmoveq.16	d3[0], r0
     ac8:	16040000 	strne	r0, [r4], -r0
     acc:	3a0e0300 	bcc	3816d4 <__bss_end__+0x377154>
     ad0:	390b3b0b 	stmdbcc	fp, {r0, r1, r3, r8, r9, fp, ip, sp}
     ad4:	0013490b 	andseq	r4, r3, fp, lsl #18
     ad8:	01150500 	tsteq	r5, r0, lsl #10
     adc:	13491927 	movtne	r1, #39207	; 0x9927
     ae0:	00001301 	andeq	r1, r0, r1, lsl #6
     ae4:	49000506 	stmdbmi	r0, {r1, r2, r8, sl}
     ae8:	07000013 	smladeq	r0, r3, r0, r0
     aec:	0e030034 	mcreq	0, 0, r0, cr3, cr4, {1}
     af0:	0b3b0b3a 	bleq	ec37e0 <__bss_end__+0xeb9260>
     af4:	13490b39 	movtne	r0, #39737	; 0x9b39
     af8:	193c193f 	ldmdbne	ip!, {r0, r1, r2, r3, r4, r5, r8, fp, ip}
     afc:	0f080000 	svceq	0x00080000
     b00:	490b0b00 	stmdbmi	fp, {r8, r9, fp}
     b04:	09000013 	stmdbeq	r0, {r0, r1, r4}
     b08:	13490026 	movtne	r0, #36902	; 0x9026
     b0c:	130a0000 	movwne	r0, #40960	; 0xa000
     b10:	0b0e0301 	bleq	38171c <__bss_end__+0x37719c>
     b14:	3b0b3a0b 	blcc	2cf348 <__bss_end__+0x2c4dc8>
     b18:	0013010b 	andseq	r0, r3, fp, lsl #2
     b1c:	000d0b00 	andeq	r0, sp, r0, lsl #22
     b20:	13490e03 	movtne	r0, #40451	; 0x9e03
     b24:	19340b38 	ldmdbne	r4!, {r3, r4, r5, r8, r9, fp}
     b28:	0f0c0000 	svceq	0x000c0000
     b2c:	000b0b00 	andeq	r0, fp, r0, lsl #22
     b30:	012e0d00 			; <UNDEFINED> instruction: 0x012e0d00
     b34:	0e03193f 			; <UNDEFINED> instruction: 0x0e03193f
     b38:	0b3b0b3a 	bleq	ec3828 <__bss_end__+0xeb92a8>
     b3c:	19270b39 	stmdbne	r7!, {r0, r3, r4, r5, r8, r9, fp}
     b40:	01111349 	tsteq	r1, r9, asr #6
     b44:	18400612 	stmdane	r0, {r1, r4, r9, sl}^
     b48:	01194297 			; <UNDEFINED> instruction: 0x01194297
     b4c:	0e000013 	mcreq	0, 0, r0, cr0, cr3, {0}
     b50:	08030005 	stmdaeq	r3, {r0, r2}
     b54:	0b3b0b3a 	bleq	ec3844 <__bss_end__+0xeb92c4>
     b58:	13490b39 	movtne	r0, #39737	; 0x9b39
     b5c:	42b71702 	adcsmi	r1, r7, #524288	; 0x80000
     b60:	0f000017 	svceq	0x00000017
     b64:	0e030005 	cdpeq	0, 0, cr0, cr3, cr5, {0}
     b68:	0b3b0b3a 	bleq	ec3858 <__bss_end__+0xeb92d8>
     b6c:	13490b39 	movtne	r0, #39737	; 0x9b39
     b70:	00001802 	andeq	r1, r0, r2, lsl #16
     b74:	03003410 	movweq	r3, #1040	; 0x410
     b78:	3b0b3a08 	blcc	2cf3a0 <__bss_end__+0x2c4e20>
     b7c:	490b390b 	stmdbmi	fp, {r0, r1, r3, r8, fp, ip, sp}
     b80:	b7170213 			; <UNDEFINED> instruction: 0xb7170213
     b84:	00001742 	andeq	r1, r0, r2, asr #14
     b88:	03003411 	movweq	r3, #1041	; 0x411
     b8c:	3b0b3a0e 	blcc	2cf3cc <__bss_end__+0x2c4e4c>
     b90:	490b390b 	stmdbmi	fp, {r0, r1, r3, r8, fp, ip, sp}
     b94:	b7170213 			; <UNDEFINED> instruction: 0xb7170213
     b98:	00001742 	andeq	r1, r0, r2, asr #14
     b9c:	03003412 	movweq	r3, #1042	; 0x412
     ba0:	3413490e 	ldrcc	r4, [r3], #-2318	; 0xfffff6f2
     ba4:	00180219 	andseq	r0, r8, r9, lsl r2
     ba8:	010b1300 	mrseq	r1, (UNDEF: 59)
     bac:	06120111 			; <UNDEFINED> instruction: 0x06120111
     bb0:	34140000 	ldrcc	r0, [r4], #-0
     bb4:	3a080300 	bcc	2017bc <__bss_end__+0x1f723c>
     bb8:	390b3b0b 	stmdbcc	fp, {r0, r1, r3, r8, r9, fp, ip, sp}
     bbc:	0213490b 	andseq	r4, r3, #180224	; 0x2c000
     bc0:	15000018 	strne	r0, [r0, #-24]	; 0xffffffe8
     bc4:	0e030034 	mcreq	0, 0, r0, cr3, cr4, {1}
     bc8:	0b3b0b3a 	bleq	ec38b8 <__bss_end__+0xeb9338>
     bcc:	13490b39 	movtne	r0, #39737	; 0x9b39
     bd0:	00001802 	andeq	r1, r0, r2, lsl #16
     bd4:	11010b16 	tstne	r1, r6, lsl fp
     bd8:	01061201 	tsteq	r6, r1, lsl #4
     bdc:	17000013 	smladne	r0, r3, r0, r0
     be0:	08030034 	stmdaeq	r3, {r2, r4, r5}
     be4:	0b3b0b3a 	bleq	ec38d4 <__bss_end__+0xeb9354>
     be8:	13490b39 	movtne	r0, #39737	; 0x9b39
     bec:	89180000 	ldmdbhi	r8, {}	; <UNPREDICTABLE>
     bf0:	11010182 	smlabbne	r1, r2, r1, r0
     bf4:	01133101 	tsteq	r3, r1, lsl #2
     bf8:	19000013 	stmdbne	r0, {r0, r1, r4}
     bfc:	0001828a 	andeq	r8, r1, sl, lsl #5
     c00:	42911802 	addsmi	r1, r1, #131072	; 0x20000
     c04:	1a000018 	bne	c6c <__code_start__-0x7394>
     c08:	00018289 	andeq	r8, r1, r9, lsl #5
     c0c:	13310111 	teqne	r1, #1073741828	; 0x40000004
     c10:	891b0000 	ldmdbhi	fp, {}	; <UNPREDICTABLE>
     c14:	11010182 	smlabbne	r1, r2, r1, r0
     c18:	00130101 	andseq	r0, r3, r1, lsl #2
     c1c:	01011c00 	tsteq	r1, r0, lsl #24
     c20:	13011349 	movwne	r1, #4937	; 0x1349
     c24:	211d0000 	tstcs	sp, r0
     c28:	2f134900 	svccs	0x00134900
     c2c:	1e00000b 	cdpne	0, 0, cr0, cr0, cr11, {0}
     c30:	0e03012e 	adfeqsp	f0, f3, #0.5
     c34:	0b3b0b3a 	bleq	ec3924 <__bss_end__+0xeb93a4>
     c38:	19270b39 	stmdbne	r7!, {r0, r3, r4, r5, r8, r9, fp}
     c3c:	01111349 	tsteq	r1, r9, asr #6
     c40:	18400612 	stmdane	r0, {r1, r4, r9, sl}^
     c44:	01194297 			; <UNDEFINED> instruction: 0x01194297
     c48:	1f000013 	svcne	0x00000013
     c4c:	0e030005 	cdpeq	0, 0, cr0, cr3, cr5, {0}
     c50:	0b3b0b3a 	bleq	ec3940 <__bss_end__+0xeb93c0>
     c54:	13490b39 	movtne	r0, #39737	; 0x9b39
     c58:	42b71702 	adcsmi	r1, r7, #524288	; 0x80000
     c5c:	20000017 	andcs	r0, r0, r7, lsl r0
     c60:	0803012e 	stmdaeq	r3, {r1, r2, r3, r5, r8}
     c64:	0b3b0b3a 	bleq	ec3954 <__bss_end__+0xeb93d4>
     c68:	19270b39 	stmdbne	r7!, {r0, r3, r4, r5, r8, r9, fp}
     c6c:	01111349 	tsteq	r1, r9, asr #6
     c70:	18400612 	stmdane	r0, {r1, r4, r9, sl}^
     c74:	01194297 			; <UNDEFINED> instruction: 0x01194297
     c78:	21000013 	tstcs	r0, r3, lsl r0
     c7c:	193f012e 	ldmdbne	pc!, {r1, r2, r3, r5, r8}	; <UNPREDICTABLE>
     c80:	0b3a0e03 	bleq	e84494 <__bss_end__+0xe79f14>
     c84:	0b390b3b 	bleq	e43978 <__bss_end__+0xe393f8>
     c88:	01111927 	tsteq	r1, r7, lsr #18
     c8c:	18400612 	stmdane	r0, {r1, r4, r9, sl}^
     c90:	01194297 			; <UNDEFINED> instruction: 0x01194297
     c94:	22000013 	andcs	r0, r0, #19, 0
     c98:	193f002e 	ldmdbne	pc!, {r1, r2, r3, r5}	; <UNPREDICTABLE>
     c9c:	0e6e193c 			; <UNDEFINED> instruction: 0x0e6e193c
     ca0:	0b3a0e03 	bleq	e844b4 <__bss_end__+0xe79f34>
     ca4:	0b390b3b 	bleq	e43998 <__bss_end__+0xe39418>
     ca8:	01000000 	mrseq	r0, (UNDEF: 0)
     cac:	0e250111 	mcreq	1, 1, r0, cr5, cr1, {0}
     cb0:	0e030b13 	vmoveq.32	d3[0], r0
     cb4:	01110e1b 	tsteq	r1, fp, lsl lr
     cb8:	17100612 			; <UNDEFINED> instruction: 0x17100612
     cbc:	24020000 	strcs	r0, [r2], #-0
     cc0:	3e0b0b00 	vmlacc.f64	d0, d11, d0
     cc4:	0008030b 	andeq	r0, r8, fp, lsl #6
     cc8:	00240300 	eoreq	r0, r4, r0, lsl #6
     ccc:	0b3e0b0b 	bleq	f83900 <__bss_end__+0xf79380>
     cd0:	00000e03 	andeq	r0, r0, r3, lsl #28
     cd4:	27011504 	strcs	r1, [r1, -r4, lsl #10]
     cd8:	01134919 	tsteq	r3, r9, lsl r9
     cdc:	05000013 	streq	r0, [r0, #-19]	; 0xffffffed
     ce0:	13490005 	movtne	r0, #36869	; 0x9005
     ce4:	34060000 	strcc	r0, [r6], #-0
     ce8:	3a0e0300 	bcc	3818f0 <__bss_end__+0x377370>
     cec:	390b3b0b 	stmdbcc	fp, {r0, r1, r3, r8, r9, fp, ip, sp}
     cf0:	3f13490b 	svccc	0x0013490b
     cf4:	00193c19 	andseq	r3, r9, r9, lsl ip
     cf8:	000f0700 	andeq	r0, pc, r0, lsl #14
     cfc:	13490b0b 	movtne	r0, #39691	; 0x9b0b
     d00:	26080000 	strcs	r0, [r8], -r0
     d04:	00134900 	andseq	r4, r3, r0, lsl #18
     d08:	012e0900 			; <UNDEFINED> instruction: 0x012e0900
     d0c:	0e03193f 			; <UNDEFINED> instruction: 0x0e03193f
     d10:	0b3b0b3a 	bleq	ec3a00 <__bss_end__+0xeb9480>
     d14:	19270b39 	stmdbne	r7!, {r0, r3, r4, r5, r8, r9, fp}
     d18:	11190187 	tstne	r9, r7, lsl #3
     d1c:	40061201 	andmi	r1, r6, r1, lsl #4
     d20:	19429718 	stmdbne	r2, {r3, r4, r8, r9, sl, ip, pc}^
     d24:	00001301 	andeq	r1, r0, r1, lsl #6
     d28:	0182890a 	orreq	r8, r2, sl, lsl #18
     d2c:	01011101 	tsteq	r1, r1, lsl #2
     d30:	0b000013 	bleq	d84 <__code_start__-0x727c>
     d34:	0001828a 	andeq	r8, r1, sl, lsl #5
     d38:	42911802 	addsmi	r1, r1, #131072	; 0x20000
     d3c:	0c000018 	stceq	0, cr0, [r0], {24}
     d40:	00018289 	andeq	r8, r1, r9, lsl #5
     d44:	13310111 	teqne	r1, #1073741828	; 0x40000004
     d48:	890d0000 	stmdbhi	sp, {}	; <UNPREDICTABLE>
     d4c:	11010182 	smlabbne	r1, r2, r1, r0
     d50:	01133101 	tsteq	r3, r1, lsl #2
     d54:	0e000013 	mcreq	0, 0, r0, cr0, cr3, {0}
     d58:	193f002e 	ldmdbne	pc!, {r1, r2, r3, r5}	; <UNPREDICTABLE>
     d5c:	0e6e193c 			; <UNDEFINED> instruction: 0x0e6e193c
     d60:	0b3a0e03 	bleq	e84574 <__bss_end__+0xe79ff4>
     d64:	0b390b3b 	bleq	e43a58 <__bss_end__+0xe394d8>
     d68:	01000000 	mrseq	r0, (UNDEF: 0)
     d6c:	0e250111 	mcreq	1, 1, r0, cr5, cr1, {0}
     d70:	0e030b13 	vmoveq.32	d3[0], r0
     d74:	01110e1b 	tsteq	r1, fp, lsl lr
     d78:	17100612 			; <UNDEFINED> instruction: 0x17100612
     d7c:	24020000 	strcs	r0, [r2], #-0
     d80:	3e0b0b00 	vmlacc.f64	d0, d11, d0
     d84:	0008030b 	andeq	r0, r8, fp, lsl #6
     d88:	00240300 	eoreq	r0, r4, r0, lsl #6
     d8c:	0b3e0b0b 	bleq	f839c0 <__bss_end__+0xf79440>
     d90:	00000e03 	andeq	r0, r0, r3, lsl #28
     d94:	27011504 	strcs	r1, [r1, -r4, lsl #10]
     d98:	01134919 	tsteq	r3, r9, lsl r9
     d9c:	05000013 	streq	r0, [r0, #-19]	; 0xffffffed
     da0:	13490005 	movtne	r0, #36869	; 0x9005
     da4:	34060000 	strcc	r0, [r6], #-0
     da8:	3a0e0300 	bcc	3819b0 <__bss_end__+0x377430>
     dac:	390b3b0b 	stmdbcc	fp, {r0, r1, r3, r8, r9, fp, ip, sp}
     db0:	3f13490b 	svccc	0x0013490b
     db4:	00193c19 	andseq	r3, r9, r9, lsl ip
     db8:	000f0700 	andeq	r0, pc, r0, lsl #14
     dbc:	13490b0b 	movtne	r0, #39691	; 0x9b0b
     dc0:	26080000 	strcs	r0, [r8], -r0
     dc4:	00134900 	andseq	r4, r3, r0, lsl #18
     dc8:	012e0900 			; <UNDEFINED> instruction: 0x012e0900
     dcc:	0e03193f 			; <UNDEFINED> instruction: 0x0e03193f
     dd0:	0b3b0b3a 	bleq	ec3ac0 <__bss_end__+0xeb9540>
     dd4:	01110b39 	tsteq	r1, r9, lsr fp
     dd8:	18400612 	stmdane	r0, {r1, r4, r9, sl}^
     ddc:	01194297 			; <UNDEFINED> instruction: 0x01194297
     de0:	0a000013 	beq	e34 <__code_start__-0x71cc>
     de4:	193f002e 	ldmdbne	pc!, {r1, r2, r3, r5}	; <UNPREDICTABLE>
     de8:	0b3a0e03 	bleq	e845fc <__bss_end__+0xe7a07c>
     dec:	0b390b3b 	bleq	e43ae0 <__bss_end__+0xe39560>
     df0:	193c1927 	ldmdbne	ip!, {r0, r1, r2, r5, r8, fp, ip}
     df4:	340b0000 	strcc	r0, [fp], #-0
     df8:	3a080300 	bcc	201a00 <__bss_end__+0x1f7480>
     dfc:	390b3b0b 	stmdbcc	fp, {r0, r1, r3, r8, r9, fp, ip, sp}
     e00:	0213490b 	andseq	r4, r3, #180224	; 0x2c000
     e04:	1742b717 	smlaldne	fp, r2, r7, r7
     e08:	340c0000 	strcc	r0, [ip], #-0
     e0c:	3a0e0300 	bcc	381a14 <__bss_end__+0x377494>
     e10:	390b3b0b 	stmdbcc	fp, {r0, r1, r3, r8, r9, fp, ip, sp}
     e14:	0013490b 	andseq	r4, r3, fp, lsl #18
     e18:	010b0d00 	tsteq	fp, r0, lsl #26
     e1c:	06120111 			; <UNDEFINED> instruction: 0x06120111
     e20:	00001301 	andeq	r1, r0, r1, lsl #6
     e24:	0300340e 	movweq	r3, #1038	; 0x40e
     e28:	3b0b3a08 	blcc	2cf650 <__bss_end__+0x2c50d0>
     e2c:	490b390b 	stmdbmi	fp, {r0, r1, r3, r8, fp, ip, sp}
     e30:	000b1c13 	andeq	r1, fp, r3, lsl ip
     e34:	82890f00 	addhi	r0, r9, #0, 30
     e38:	01110001 	tsteq	r1, r1
     e3c:	00001331 	andeq	r1, r0, r1, lsr r3
     e40:	3f002e10 	svccc	0x00002e10
     e44:	6e193c19 	mrcvs	12, 0, r3, cr9, cr9, {0}
     e48:	3a0e030e 	bcc	381a88 <__bss_end__+0x377508>
     e4c:	39053b0b 	stmdbcc	r5, {r0, r1, r3, r8, r9, fp, ip, sp}
     e50:	1100000b 	tstne	r0, fp
     e54:	193f002e 	ldmdbne	pc!, {r1, r2, r3, r5}	; <UNPREDICTABLE>
     e58:	0e6e193c 			; <UNDEFINED> instruction: 0x0e6e193c
     e5c:	0b3a0e03 	bleq	e84670 <__bss_end__+0xe7a0f0>
     e60:	0b390b3b 	bleq	e43b54 <__bss_end__+0xe395d4>
     e64:	01000000 	mrseq	r0, (UNDEF: 0)
     e68:	0e250111 	mcreq	1, 1, r0, cr5, cr1, {0}
     e6c:	0e030b13 	vmoveq.32	d3[0], r0
     e70:	01110e1b 	tsteq	r1, fp, lsl lr
     e74:	17100612 			; <UNDEFINED> instruction: 0x17100612
     e78:	24020000 	strcs	r0, [r2], #-0
     e7c:	3e0b0b00 	vmlacc.f64	d0, d11, d0
     e80:	0008030b 	andeq	r0, r8, fp, lsl #6
     e84:	00240300 	eoreq	r0, r4, r0, lsl #6
     e88:	0b3e0b0b 	bleq	f83abc <__bss_end__+0xf7953c>
     e8c:	00000e03 	andeq	r0, r0, r3, lsl #28
     e90:	27011504 	strcs	r1, [r1, -r4, lsl #10]
     e94:	01134919 	tsteq	r3, r9, lsl r9
     e98:	05000013 	streq	r0, [r0, #-19]	; 0xffffffed
     e9c:	13490005 	movtne	r0, #36869	; 0x9005
     ea0:	34060000 	strcc	r0, [r6], #-0
     ea4:	3a0e0300 	bcc	381aac <__bss_end__+0x37752c>
     ea8:	390b3b0b 	stmdbcc	fp, {r0, r1, r3, r8, r9, fp, ip, sp}
     eac:	3f13490b 	svccc	0x0013490b
     eb0:	00193c19 	andseq	r3, r9, r9, lsl ip
     eb4:	000f0700 	andeq	r0, pc, r0, lsl #14
     eb8:	13490b0b 	movtne	r0, #39691	; 0x9b0b
     ebc:	26080000 	strcs	r0, [r8], -r0
     ec0:	00134900 	andseq	r4, r3, r0, lsl #18
     ec4:	002e0900 	eoreq	r0, lr, r0, lsl #18
     ec8:	0e03193f 			; <UNDEFINED> instruction: 0x0e03193f
     ecc:	0b3b0b3a 	bleq	ec3bbc <__bss_end__+0xeb963c>
     ed0:	19270b39 	stmdbne	r7!, {r0, r3, r4, r5, r8, r9, fp}
     ed4:	06120111 			; <UNDEFINED> instruction: 0x06120111
     ed8:	42971840 	addsmi	r1, r7, #64, 16	; 0x400000
     edc:	00000019 	andeq	r0, r0, r9, lsl r0
     ee0:	25011101 	strcs	r1, [r1, #-257]	; 0xfffffeff
     ee4:	030b130e 	movweq	r1, #45838	; 0xb30e
     ee8:	550e1b0e 	strpl	r1, [lr, #-2830]	; 0xfffff4f2
     eec:	10011117 	andne	r1, r1, r7, lsl r1
     ef0:	02000017 	andeq	r0, r0, #23, 0
     ef4:	0b0b0024 	bleq	2c0f8c <__bss_end__+0x2b6a0c>
     ef8:	08030b3e 	stmdaeq	r3, {r1, r2, r3, r4, r5, r8, r9, fp}
     efc:	26030000 	strcs	r0, [r3], -r0
     f00:	00134900 	andseq	r4, r3, r0, lsl #18
     f04:	00240400 	eoreq	r0, r4, r0, lsl #8
     f08:	0b3e0b0b 	bleq	f83b3c <__bss_end__+0xf795bc>
     f0c:	00000e03 	andeq	r0, r0, r3, lsl #28
     f10:	27011505 	strcs	r1, [r1, -r5, lsl #10]
     f14:	01134919 	tsteq	r3, r9, lsl r9
     f18:	06000013 			; <UNDEFINED> instruction: 0x06000013
     f1c:	13490005 	movtne	r0, #36869	; 0x9005
     f20:	34070000 	strcc	r0, [r7], #-0
     f24:	3a0e0300 	bcc	381b2c <__bss_end__+0x3775ac>
     f28:	390b3b0b 	stmdbcc	fp, {r0, r1, r3, r8, r9, fp, ip, sp}
     f2c:	3f13490b 	svccc	0x0013490b
     f30:	00193c19 	andseq	r3, r9, r9, lsl ip
     f34:	000f0800 	andeq	r0, pc, r0, lsl #16
     f38:	13490b0b 	movtne	r0, #39691	; 0x9b0b
     f3c:	34090000 	strcc	r0, [r9], #-0
     f40:	3a0e0300 	bcc	381b48 <__bss_end__+0x3775c8>
     f44:	390b3b0b 	stmdbcc	fp, {r0, r1, r3, r8, r9, fp, ip, sp}
     f48:	0013490b 	andseq	r4, r3, fp, lsl #18
     f4c:	012e0a00 			; <UNDEFINED> instruction: 0x012e0a00
     f50:	0e03193f 			; <UNDEFINED> instruction: 0x0e03193f
     f54:	0b3b0b3a 	bleq	ec3c44 <__bss_end__+0xeb96c4>
     f58:	19270b39 	stmdbne	r7!, {r0, r3, r4, r5, r8, r9, fp}
     f5c:	11190187 	tstne	r9, r7, lsl #3
     f60:	40061201 	andmi	r1, r6, r1, lsl #4
     f64:	19429718 	stmdbne	r2, {r3, r4, r8, r9, sl, ip, pc}^
     f68:	00001301 	andeq	r1, r0, r1, lsl #6
     f6c:	0300340b 	movweq	r3, #1035	; 0x40b
     f70:	3b0b3a0e 	blcc	2cf7b0 <__bss_end__+0x2c5230>
     f74:	490b390b 	stmdbmi	fp, {r0, r1, r3, r8, fp, ip, sp}
     f78:	b7170213 			; <UNDEFINED> instruction: 0xb7170213
     f7c:	00001742 	andeq	r1, r0, r2, asr #14
     f80:	0182890c 	orreq	r8, r2, ip, lsl #18
     f84:	31011100 	mrscc	r1, (UNDEF: 17)
     f88:	0d000013 	stceq	0, cr0, [r0, #-76]	; 0xffffffb4
     f8c:	01018289 	smlabbeq	r1, r9, r2, r8
     f90:	13310111 	teqne	r1, #1073741828	; 0x40000004
     f94:	00001301 	andeq	r1, r0, r1, lsl #6
     f98:	01828a0e 	orreq	r8, r2, lr, lsl #20
     f9c:	91180200 	tstls	r8, r0, lsl #4
     fa0:	00001842 	andeq	r1, r0, r2, asr #16
     fa4:	3f012e0f 	svccc	0x00012e0f
     fa8:	3a0e0319 	bcc	381c14 <__bss_end__+0x377694>
     fac:	390b3b0b 	stmdbcc	fp, {r0, r1, r3, r8, r9, fp, ip, sp}
     fb0:	1119270b 	tstne	r9, fp, lsl #14
     fb4:	40061201 	andmi	r1, r6, r1, lsl #4
     fb8:	19429718 	stmdbne	r2, {r3, r4, r8, r9, sl, ip, pc}^
     fbc:	00001301 	andeq	r1, r0, r1, lsl #6
     fc0:	3f012e10 	svccc	0x00012e10
     fc4:	3a0e0319 	bcc	381c30 <__bss_end__+0x3776b0>
     fc8:	390b3b0b 	stmdbcc	fp, {r0, r1, r3, r8, r9, fp, ip, sp}
     fcc:	4919270b 	ldmdbmi	r9, {r0, r1, r3, r8, r9, sl, sp}
     fd0:	12011113 	andne	r1, r1, #-1073741820	; 0xc0000004
     fd4:	97184006 	ldrls	r4, [r8, -r6]
     fd8:	13011942 	movwne	r1, #6466	; 0x1942
     fdc:	2e110000 	cdpcs	0, 1, cr0, cr1, cr0, {0}
     fe0:	3c193f00 	ldccc	15, cr3, [r9], {-0}
     fe4:	030e6e19 	movweq	r6, #60953	; 0xee19
     fe8:	3b0b3a0e 	blcc	2cf828 <__bss_end__+0x2c52a8>
     fec:	000b3905 	andeq	r3, fp, r5, lsl #18
     ff0:	002e1200 	eoreq	r1, lr, r0, lsl #4
     ff4:	193c193f 	ldmdbne	ip!, {r0, r1, r2, r3, r4, r5, r8, fp, ip}
     ff8:	0e030e6e 	cdpeq	14, 0, cr0, cr3, cr14, {3}
     ffc:	0b3b0b3a 	bleq	ec3cec <__bss_end__+0xeb976c>
    1000:	00000b39 	andeq	r0, r0, r9, lsr fp
    1004:	01110100 	tsteq	r1, r0, lsl #2
    1008:	0b130e25 	bleq	4c48a4 <__bss_end__+0x4ba324>
    100c:	0e1b0e03 	cdpeq	14, 1, cr0, cr11, cr3, {0}
    1010:	06120111 			; <UNDEFINED> instruction: 0x06120111
    1014:	00001710 	andeq	r1, r0, r0, lsl r7
    1018:	0b002402 	bleq	a028 <__FUNCTION__.4034+0x100>
    101c:	030b3e0b 	movweq	r3, #48651	; 0xbe0b
    1020:	03000008 	movweq	r0, #8
    1024:	0b0b0024 	bleq	2c10bc <__bss_end__+0x2b6b3c>
    1028:	0e030b3e 	vmoveq.16	d3[0], r0
    102c:	15040000 	strne	r0, [r4, #-0]
    1030:	49192701 	ldmdbmi	r9, {r0, r8, r9, sl, sp}
    1034:	00130113 	andseq	r0, r3, r3, lsl r1
    1038:	00050500 	andeq	r0, r5, r0, lsl #10
    103c:	00001349 	andeq	r1, r0, r9, asr #6
    1040:	03003406 	movweq	r3, #1030	; 0x406
    1044:	3b0b3a0e 	blcc	2cf884 <__bss_end__+0x2c5304>
    1048:	490b390b 	stmdbmi	fp, {r0, r1, r3, r8, fp, ip, sp}
    104c:	3c193f13 	ldccc	15, cr3, [r9], {19}
    1050:	07000019 	smladeq	r0, r9, r0, r0
    1054:	0b0b000f 	bleq	2c1098 <__bss_end__+0x2b6b18>
    1058:	00001349 	andeq	r1, r0, r9, asr #6
    105c:	49002608 	stmdbmi	r0, {r3, r9, sl, sp}
    1060:	09000013 	stmdbeq	r0, {r0, r1, r4}
    1064:	193f012e 	ldmdbne	pc!, {r1, r2, r3, r5, r8}	; <UNPREDICTABLE>
    1068:	0b3a0e03 	bleq	e8487c <__bss_end__+0xe7a2fc>
    106c:	0b390b3b 	bleq	e43d60 <__bss_end__+0xe397e0>
    1070:	01111927 	tsteq	r1, r7, lsr #18
    1074:	18400612 	stmdane	r0, {r1, r4, r9, sl}^
    1078:	01194297 			; <UNDEFINED> instruction: 0x01194297
    107c:	0a000013 	beq	10d0 <__code_start__-0x6f30>
    1080:	08030005 	stmdaeq	r3, {r0, r2}
    1084:	0b3b0b3a 	bleq	ec3d74 <__bss_end__+0xeb97f4>
    1088:	13490b39 	movtne	r0, #39737	; 0x9b39
    108c:	42b71702 	adcsmi	r1, r7, #524288	; 0x80000
    1090:	0b000017 	bleq	10f4 <__code_start__-0x6f0c>
    1094:	01018289 	smlabbeq	r1, r9, r2, r8
    1098:	13310111 	teqne	r1, #1073741828	; 0x40000004
    109c:	8a0c0000 	bhi	3010a4 <__bss_end__+0x2f6b24>
    10a0:	02000182 	andeq	r0, r0, #-2147483616	; 0x80000020
    10a4:	18429118 	stmdane	r2, {r3, r4, r8, ip, pc}^
    10a8:	340d0000 	strcc	r0, [sp], #-0
    10ac:	3a080300 	bcc	201cb4 <__bss_end__+0x1f7734>
    10b0:	390b3b0b 	stmdbcc	fp, {r0, r1, r3, r8, r9, fp, ip, sp}
    10b4:	0213490b 	andseq	r4, r3, #180224	; 0x2c000
    10b8:	1742b717 	smlaldne	fp, r2, r7, r7
    10bc:	0b0e0000 	bleq	3810c4 <__bss_end__+0x376b44>
    10c0:	12011101 	andne	r1, r1, #1073741824	; 0x40000000
    10c4:	00130106 	andseq	r0, r3, r6, lsl #2
    10c8:	82890f00 	addhi	r0, r9, #0, 30
    10cc:	01110001 	tsteq	r1, r1
    10d0:	00001331 	andeq	r1, r0, r1, lsr r3
    10d4:	3f012e10 	svccc	0x00012e10
    10d8:	3a0e0319 	bcc	381d44 <__bss_end__+0x3777c4>
    10dc:	390b3b0b 	stmdbcc	fp, {r0, r1, r3, r8, r9, fp, ip, sp}
    10e0:	4919270b 	ldmdbmi	r9, {r0, r1, r3, r8, r9, sl, sp}
    10e4:	12011113 	andne	r1, r1, #-1073741820	; 0xc0000004
    10e8:	97184006 	ldrls	r4, [r8, -r6]
    10ec:	13011942 	movwne	r1, #6466	; 0x1942
    10f0:	2e110000 	cdpcs	0, 1, cr0, cr1, cr0, {0}
    10f4:	3c193f00 	ldccc	15, cr3, [r9], {-0}
    10f8:	030e6e19 	movweq	r6, #60953	; 0xee19
    10fc:	3b0b3a0e 	blcc	2cf93c <__bss_end__+0x2c53bc>
    1100:	000b390b 	andeq	r3, fp, fp, lsl #18
    1104:	11010000 	mrsne	r0, (UNDEF: 1)
    1108:	130e2501 	movwne	r2, #58625	; 0xe501
    110c:	1b0e030b 	blne	381d40 <__bss_end__+0x3777c0>
    1110:	1201110e 	andne	r1, r1, #-2147483645	; 0x80000003
    1114:	00171006 	andseq	r1, r7, r6
    1118:	00240200 	eoreq	r0, r4, r0, lsl #4
    111c:	0b3e0b0b 	bleq	f83d50 <__bss_end__+0xf797d0>
    1120:	00000803 	andeq	r0, r0, r3, lsl #16
    1124:	0b002403 	bleq	a138 <__FUNCTION__.0+0x8>
    1128:	030b3e0b 	movweq	r3, #48651	; 0xbe0b
    112c:	0400000e 	streq	r0, [r0], #-14
    1130:	13490035 	movtne	r0, #36917	; 0x9035
    1134:	16050000 	strne	r0, [r5], -r0
    1138:	3a0e0300 	bcc	381d40 <__bss_end__+0x3777c0>
    113c:	390b3b0b 	stmdbcc	fp, {r0, r1, r3, r8, r9, fp, ip, sp}
    1140:	0013490b 	andseq	r4, r3, fp, lsl #18
    1144:	01040600 	tsteq	r4, r0, lsl #12
    1148:	0b0b0b3e 	bleq	2c3e48 <__bss_end__+0x2b98c8>
    114c:	0b3a1349 	bleq	e85e78 <__bss_end__+0xe7b8f8>
    1150:	0b390b3b 	bleq	e43e44 <__bss_end__+0xe398c4>
    1154:	00001301 	andeq	r1, r0, r1, lsl #6
    1158:	03002807 	movweq	r2, #2055	; 0x807
    115c:	000b1c0e 	andeq	r1, fp, lr, lsl #24
    1160:	01130800 	tsteq	r3, r0, lsl #16
    1164:	0b0b0e03 	bleq	2c4978 <__bss_end__+0x2ba3f8>
    1168:	0b3b0b3a 	bleq	ec3e58 <__bss_end__+0xeb98d8>
    116c:	13010b39 	movwne	r0, #6969	; 0x1b39
    1170:	0d090000 	stceq	0, cr0, [r9, #-0]
    1174:	3a080300 	bcc	201d7c <__bss_end__+0x1f77fc>
    1178:	390b3b0b 	stmdbcc	fp, {r0, r1, r3, r8, r9, fp, ip, sp}
    117c:	3813490b 	ldmdacc	r3, {r0, r1, r3, r8, fp, lr}
    1180:	0a00000b 	beq	11b4 <__code_start__-0x6e4c>
    1184:	0e03000d 	cdpeq	0, 0, cr0, cr3, cr13, {0}
    1188:	0b3b0b3a 	bleq	ec3e78 <__bss_end__+0xeb98f8>
    118c:	13490b39 	movtne	r0, #39737	; 0x9b39
    1190:	00000b38 	andeq	r0, r0, r8, lsr fp
    1194:	0300340b 	movweq	r3, #1035	; 0x40b
    1198:	3b0b3a0e 	blcc	2cf9d8 <__bss_end__+0x2c5458>
    119c:	490b390b 	stmdbmi	fp, {r0, r1, r3, r8, fp, ip, sp}
    11a0:	00061c13 	andeq	r1, r6, r3, lsl ip
    11a4:	000f0c00 	andeq	r0, pc, r0, lsl #24
    11a8:	13490b0b 	movtne	r0, #39691	; 0x9b0b
    11ac:	260d0000 	strcs	r0, [sp], -r0
    11b0:	00134900 	andseq	r4, r3, r0, lsl #18
    11b4:	012e0e00 			; <UNDEFINED> instruction: 0x012e0e00
    11b8:	0e03193f 			; <UNDEFINED> instruction: 0x0e03193f
    11bc:	0b3b0b3a 	bleq	ec3eac <__bss_end__+0xeb992c>
    11c0:	19270b39 	stmdbne	r7!, {r0, r3, r4, r5, r8, r9, fp}
    11c4:	06120111 			; <UNDEFINED> instruction: 0x06120111
    11c8:	42971840 	addsmi	r1, r7, #64, 16	; 0x400000
    11cc:	00130119 	andseq	r0, r3, r9, lsl r1
    11d0:	82890f00 	addhi	r0, r9, #0, 30
    11d4:	01110001 	tsteq	r1, r1
    11d8:	00001331 	andeq	r1, r0, r1, lsr r3
    11dc:	3f012e10 	svccc	0x00012e10
    11e0:	3a0e0319 	bcc	381e4c <__bss_end__+0x3778cc>
    11e4:	390b3b0b 	stmdbcc	fp, {r0, r1, r3, r8, r9, fp, ip, sp}
    11e8:	4919270b 	ldmdbmi	r9, {r0, r1, r3, r8, r9, sl, sp}
    11ec:	12011113 	andne	r1, r1, #-1073741820	; 0xc0000004
    11f0:	97184006 	ldrls	r4, [r8, -r6]
    11f4:	13011942 	movwne	r1, #6466	; 0x1942
    11f8:	89110000 	ldmdbhi	r1, {}	; <UNPREDICTABLE>
    11fc:	11010182 	smlabbne	r1, r2, r1, r0
    1200:	00133101 	andseq	r3, r3, r1, lsl #2
    1204:	828a1200 	addhi	r1, sl, #0, 4
    1208:	18020001 	stmdane	r2, {r0}
    120c:	00184291 	mulseq	r8, r1, r2
    1210:	00051300 	andeq	r1, r5, r0, lsl #6
    1214:	0b3a0803 	bleq	e83228 <__bss_end__+0xe78ca8>
    1218:	0b390b3b 	bleq	e43f0c <__bss_end__+0xe3998c>
    121c:	17021349 	strne	r1, [r2, -r9, asr #6]
    1220:	001742b7 			; <UNDEFINED> instruction: 0x001742b7
    1224:	82891400 	addhi	r1, r9, #0, 8
    1228:	01110101 	tsteq	r1, r1, lsl #2
    122c:	13011331 	movwne	r1, #4913	; 0x1331
    1230:	34150000 	ldrcc	r0, [r5], #-0
    1234:	3a080300 	bcc	201e3c <__bss_end__+0x1f78bc>
    1238:	390b3b0b 	stmdbcc	fp, {r0, r1, r3, r8, r9, fp, ip, sp}
    123c:	0213490b 	andseq	r4, r3, #180224	; 0x2c000
    1240:	1742b717 	smlaldne	fp, r2, r7, r7
    1244:	34160000 	ldrcc	r0, [r6], #-0
    1248:	3a0e0300 	bcc	381e50 <__bss_end__+0x3778d0>
    124c:	390b3b0b 	stmdbcc	fp, {r0, r1, r3, r8, r9, fp, ip, sp}
    1250:	1c13490b 			; <UNDEFINED> instruction: 0x1c13490b
    1254:	17000005 	strne	r0, [r0, -r5]
    1258:	0e03012e 	adfeqsp	f0, f3, #0.5
    125c:	0b3b0b3a 	bleq	ec3f4c <__bss_end__+0xeb99cc>
    1260:	19270b39 	stmdbne	r7!, {r0, r3, r4, r5, r8, r9, fp}
    1264:	06120111 			; <UNDEFINED> instruction: 0x06120111
    1268:	42971840 	addsmi	r1, r7, #64, 16	; 0x400000
    126c:	00130119 	andseq	r0, r3, r9, lsl r1
    1270:	00051800 	andeq	r1, r5, r0, lsl #16
    1274:	0b3a0e03 	bleq	e84a88 <__bss_end__+0xe7a508>
    1278:	0b390b3b 	bleq	e43f6c <__bss_end__+0xe399ec>
    127c:	17021349 	strne	r1, [r2, -r9, asr #6]
    1280:	001742b7 			; <UNDEFINED> instruction: 0x001742b7
    1284:	00351900 	eorseq	r1, r5, r0, lsl #18
    1288:	2e1a0000 	cdpcs	0, 1, cr0, cr10, cr0, {0}
    128c:	3c193f00 	ldccc	15, cr3, [r9], {-0}
    1290:	030e6e19 	movweq	r6, #60953	; 0xee19
    1294:	3b0b3a0e 	blcc	2cfad4 <__bss_end__+0x2c5554>
    1298:	000b390b 	andeq	r3, fp, fp, lsl #18
    129c:	11010000 	mrsne	r0, (UNDEF: 1)
    12a0:	130e2501 	movwne	r2, #58625	; 0xe501
    12a4:	1b0e030b 	blne	381ed8 <__bss_end__+0x377958>
    12a8:	1201110e 	andne	r1, r1, #-2147483645	; 0x80000003
    12ac:	00171006 	andseq	r1, r7, r6
    12b0:	00240200 	eoreq	r0, r4, r0, lsl #4
    12b4:	0b3e0b0b 	bleq	f83ee8 <__bss_end__+0xf79968>
    12b8:	00000803 	andeq	r0, r0, r3, lsl #16
    12bc:	0b002403 	bleq	a2d0 <buf.3948+0x158>
    12c0:	030b3e0b 	movweq	r3, #48651	; 0xbe0b
    12c4:	0400000e 	streq	r0, [r0], #-14
    12c8:	0e030016 	mcreq	0, 0, r0, cr3, cr6, {0}
    12cc:	0b3b0b3a 	bleq	ec3fbc <__bss_end__+0xeb9a3c>
    12d0:	13490b39 	movtne	r0, #39737	; 0x9b39
    12d4:	26050000 	strcs	r0, [r5], -r0
    12d8:	00134900 	andseq	r4, r3, r0, lsl #18
    12dc:	000f0600 	andeq	r0, pc, r0, lsl #12
    12e0:	00000b0b 	andeq	r0, r0, fp, lsl #22
    12e4:	3e010407 	cdpcc	4, 0, cr0, cr1, cr7, {0}
    12e8:	490b0b0b 	stmdbmi	fp, {r0, r1, r3, r8, r9, fp}
    12ec:	3b0b3a13 	blcc	2cfb40 <__bss_end__+0x2c55c0>
    12f0:	010b390b 	tsteq	fp, fp, lsl #18
    12f4:	08000013 	stmdaeq	r0, {r0, r1, r4}
    12f8:	0e030028 	cdpeq	0, 0, cr0, cr3, cr8, {1}
    12fc:	0000061c 	andeq	r0, r0, ip, lsl r6
    1300:	03003409 	movweq	r3, #1033	; 0x409
    1304:	3b0b3a0e 	blcc	2cfb44 <__bss_end__+0x2c55c4>
    1308:	490b390b 	stmdbmi	fp, {r0, r1, r3, r8, fp, ip, sp}
    130c:	3c193f13 	ldccc	15, cr3, [r9], {19}
    1310:	0a000019 	beq	137c <__code_start__-0x6c84>
    1314:	0e030034 	mcreq	0, 0, r0, cr3, cr4, {1}
    1318:	0b3b0b3a 	bleq	ec4008 <__bss_end__+0xeb9a88>
    131c:	13490b39 	movtne	r0, #39737	; 0x9b39
    1320:	00001802 	andeq	r1, r0, r2, lsl #16
    1324:	0b000f0b 	bleq	4f58 <__code_start__-0x30a8>
    1328:	0013490b 	andseq	r4, r3, fp, lsl #18
    132c:	012e0c00 			; <UNDEFINED> instruction: 0x012e0c00
    1330:	0e03193f 			; <UNDEFINED> instruction: 0x0e03193f
    1334:	0b3b0b3a 	bleq	ec4024 <__bss_end__+0xeb9aa4>
    1338:	19270b39 	stmdbne	r7!, {r0, r3, r4, r5, r8, r9, fp}
    133c:	06120111 			; <UNDEFINED> instruction: 0x06120111
    1340:	42971840 	addsmi	r1, r7, #64, 16	; 0x400000
    1344:	00130119 	andseq	r0, r3, r9, lsl r1
    1348:	00050d00 	andeq	r0, r5, r0, lsl #26
    134c:	0b3a0803 	bleq	e83360 <__bss_end__+0xe78de0>
    1350:	0b390b3b 	bleq	e44044 <__bss_end__+0xe39ac4>
    1354:	17021349 	strne	r1, [r2, -r9, asr #6]
    1358:	001742b7 			; <UNDEFINED> instruction: 0x001742b7
    135c:	00340e00 	eorseq	r0, r4, r0, lsl #28
    1360:	13490e03 	movtne	r0, #40451	; 0x9e03
    1364:	18021934 	stmdane	r2, {r2, r4, r5, r8, fp, ip}
    1368:	890f0000 	stmdbhi	pc, {}	; <UNPREDICTABLE>
    136c:	11010182 	smlabbne	r1, r2, r1, r0
    1370:	01133101 	tsteq	r3, r1, lsl #2
    1374:	10000013 	andne	r0, r0, r3, lsl r0
    1378:	0001828a 	andeq	r8, r1, sl, lsl #5
    137c:	42911802 	addsmi	r1, r1, #131072	; 0x20000
    1380:	11000018 	tstne	r0, r8, lsl r0
    1384:	00018289 	andeq	r8, r1, r9, lsl #5
    1388:	13310111 	teqne	r1, #1073741828	; 0x40000004
    138c:	01120000 	tsteq	r2, r0
    1390:	01134901 	tsteq	r3, r1, lsl #18
    1394:	13000013 	movwne	r0, #19
    1398:	13490021 	movtne	r0, #36897	; 0x9021
    139c:	00000b2f 	andeq	r0, r0, pc, lsr #22
    13a0:	3f002e14 	svccc	0x00002e14
    13a4:	3a0e0319 	bcc	382010 <__bss_end__+0x377a90>
    13a8:	390b3b0b 	stmdbcc	fp, {r0, r1, r3, r8, r9, fp, ip, sp}
    13ac:	1119270b 	tstne	r9, fp, lsl #14
    13b0:	40061201 	andmi	r1, r6, r1, lsl #4
    13b4:	19429718 	stmdbne	r2, {r3, r4, r8, r9, sl, ip, pc}^
    13b8:	05150000 	ldreq	r0, [r5, #-0]
    13bc:	3a080300 	bcc	201fc4 <__bss_end__+0x1f7a44>
    13c0:	390b3b0b 	stmdbcc	fp, {r0, r1, r3, r8, r9, fp, ip, sp}
    13c4:	0213490b 	andseq	r4, r3, #180224	; 0x2c000
    13c8:	16000018 			; <UNDEFINED> instruction: 0x16000018
    13cc:	193f012e 	ldmdbne	pc!, {r1, r2, r3, r5, r8}	; <UNPREDICTABLE>
    13d0:	0b3a0e03 	bleq	e84be4 <__bss_end__+0xe7a664>
    13d4:	0b390b3b 	bleq	e440c8 <__bss_end__+0xe39b48>
    13d8:	13491927 	movtne	r1, #39207	; 0x9927
    13dc:	06120111 			; <UNDEFINED> instruction: 0x06120111
    13e0:	42971840 	addsmi	r1, r7, #64, 16	; 0x400000
    13e4:	00130119 	andseq	r0, r3, r9, lsl r1
    13e8:	00051700 	andeq	r1, r5, r0, lsl #14
    13ec:	0b3a0e03 	bleq	e84c00 <__bss_end__+0xe7a680>
    13f0:	0b390b3b 	bleq	e440e4 <__bss_end__+0xe39b64>
    13f4:	17021349 	strne	r1, [r2, -r9, asr #6]
    13f8:	001742b7 			; <UNDEFINED> instruction: 0x001742b7
    13fc:	00341800 	eorseq	r1, r4, r0, lsl #16
    1400:	0b3a0803 	bleq	e83414 <__bss_end__+0xe78e94>
    1404:	0b390b3b 	bleq	e440f8 <__bss_end__+0xe39b78>
    1408:	17021349 	strne	r1, [r2, -r9, asr #6]
    140c:	001742b7 			; <UNDEFINED> instruction: 0x001742b7
    1410:	011d1900 	tsteq	sp, r0, lsl #18
    1414:	01521331 	cmpeq	r2, r1, lsr r3
    1418:	110b42b8 			; <UNDEFINED> instruction: 0x110b42b8
    141c:	58061201 	stmdapl	r6, {r0, r9, ip}
    1420:	570b590b 	strpl	r5, [fp, -fp, lsl #18]
    1424:	0013010b 	andseq	r0, r3, fp, lsl #2
    1428:	00051a00 	andeq	r1, r5, r0, lsl #20
    142c:	17021331 	smladxne	r2, r1, r3, r1
    1430:	001742b7 			; <UNDEFINED> instruction: 0x001742b7
    1434:	011d1b00 	tsteq	sp, r0, lsl #22
    1438:	01521331 	cmpeq	r2, r1, lsr r3
    143c:	550b42b8 	strpl	r4, [fp, #-696]	; 0xfffffd48
    1440:	590b5817 	stmdbpl	fp, {r0, r1, r2, r4, fp, ip, lr}
    1444:	010b570b 	tsteq	fp, fp, lsl #14
    1448:	1c000013 	stcne	0, cr0, [r0], {19}
    144c:	1755010b 	ldrbne	r0, [r5, -fp, lsl #2]
    1450:	341d0000 	ldrcc	r0, [sp], #-0
    1454:	3a0e0300 	bcc	38205c <__bss_end__+0x377adc>
    1458:	390b3b0b 	stmdbcc	fp, {r0, r1, r3, r8, r9, fp, ip, sp}
    145c:	0213490b 	andseq	r4, r3, #180224	; 0x2c000
    1460:	1742b717 	smlaldne	fp, r2, r7, r7
    1464:	0b1e0000 	bleq	78146c <__bss_end__+0x776eec>
    1468:	00175500 	andseq	r5, r7, r0, lsl #10
    146c:	002e1f00 	eoreq	r1, lr, r0, lsl #30
    1470:	0e03193f 			; <UNDEFINED> instruction: 0x0e03193f
    1474:	0b3b0b3a 	bleq	ec4164 <__bss_end__+0xeb9be4>
    1478:	19270b39 	stmdbne	r7!, {r0, r3, r4, r5, r8, r9, fp}
    147c:	01111349 	tsteq	r1, r9, asr #6
    1480:	18400612 	stmdane	r0, {r1, r4, r9, sl}^
    1484:	00194297 	mulseq	r9, r7, r2
    1488:	012e2000 			; <UNDEFINED> instruction: 0x012e2000
    148c:	0b3a0e03 	bleq	e84ca0 <__bss_end__+0xe7a720>
    1490:	0b390b3b 	bleq	e44184 <__bss_end__+0xe39c04>
    1494:	13491927 	movtne	r1, #39207	; 0x9927
    1498:	13010b20 	movwne	r0, #6944	; 0x1b20
    149c:	05210000 	streq	r0, [r1, #-0]!
    14a0:	3a080300 	bcc	2020a8 <__bss_end__+0x1f7b28>
    14a4:	390b3b0b 	stmdbcc	fp, {r0, r1, r3, r8, r9, fp, ip, sp}
    14a8:	0013490b 	andseq	r4, r3, fp, lsl #18
    14ac:	002e2200 	eoreq	r2, lr, r0, lsl #4
    14b0:	193c193f 	ldmdbne	ip!, {r0, r1, r2, r3, r4, r5, r8, fp, ip}
    14b4:	0e030e6e 	cdpeq	14, 0, cr0, cr3, cr14, {3}
    14b8:	0b3b0b3a 	bleq	ec41a8 <__bss_end__+0xeb9c28>
    14bc:	00000b39 	andeq	r0, r0, r9, lsr fp
    14c0:	01110100 	tsteq	r1, r0, lsl #2
    14c4:	0b130e25 	bleq	4c4d60 <__bss_end__+0x4ba7e0>
    14c8:	0e1b0e03 	cdpeq	14, 1, cr0, cr11, cr3, {0}
    14cc:	06120111 			; <UNDEFINED> instruction: 0x06120111
    14d0:	00001710 	andeq	r1, r0, r0, lsl r7
    14d4:	0b002402 	bleq	a4e4 <buf.3948+0x36c>
    14d8:	030b3e0b 	movweq	r3, #48651	; 0xbe0b
    14dc:	03000008 	movweq	r0, #8
    14e0:	0b0b0024 	bleq	2c1578 <__bss_end__+0x2b6ff8>
    14e4:	0e030b3e 	vmoveq.16	d3[0], r0
    14e8:	15040000 	strne	r0, [r4, #-0]
    14ec:	49192701 	ldmdbmi	r9, {r0, r8, r9, sl, sp}
    14f0:	00130113 	andseq	r0, r3, r3, lsl r1
    14f4:	00050500 	andeq	r0, r5, r0, lsl #10
    14f8:	00001349 	andeq	r1, r0, r9, asr #6
    14fc:	03003406 	movweq	r3, #1030	; 0x406
    1500:	3b0b3a0e 	blcc	2cfd40 <__bss_end__+0x2c57c0>
    1504:	490b390b 	stmdbmi	fp, {r0, r1, r3, r8, fp, ip, sp}
    1508:	3c193f13 	ldccc	15, cr3, [r9], {19}
    150c:	07000019 	smladeq	r0, r9, r0, r0
    1510:	0b0b000f 	bleq	2c1554 <__bss_end__+0x2b6fd4>
    1514:	00001349 	andeq	r1, r0, r9, asr #6
    1518:	49002608 	stmdbmi	r0, {r3, r9, sl, sp}
    151c:	09000013 	stmdbeq	r0, {r0, r1, r4}
    1520:	13470034 	movtne	r0, #28724	; 0x7034
    1524:	0b3b0b3a 	bleq	ec4214 <__bss_end__+0xeb9c94>
    1528:	18020b39 	stmdane	r2, {r0, r3, r4, r5, r8, r9, fp}
    152c:	2e0a0000 	cdpcs	0, 0, cr0, cr10, cr0, {0}
    1530:	03193f01 	tsteq	r9, #1, 30
    1534:	3b0b3a0e 	blcc	2cfd74 <__bss_end__+0x2c57f4>
    1538:	270b390b 	strcs	r3, [fp, -fp, lsl #18]
    153c:	12011119 	andne	r1, r1, #1073741830	; 0x40000006
    1540:	97184006 	ldrls	r4, [r8, -r6]
    1544:	13011942 	movwne	r1, #6466	; 0x1942
    1548:	050b0000 	streq	r0, [fp, #-0]
    154c:	3a080300 	bcc	202154 <__bss_end__+0x1f7bd4>
    1550:	390b3b0b 	stmdbcc	fp, {r0, r1, r3, r8, r9, fp, ip, sp}
    1554:	0213490b 	andseq	r4, r3, #180224	; 0x2c000
    1558:	0c000018 	stceq	0, cr0, [r0], {24}
    155c:	193f002e 	ldmdbne	pc!, {r1, r2, r3, r5}	; <UNPREDICTABLE>
    1560:	0b3a0e03 	bleq	e84d74 <__bss_end__+0xe7a7f4>
    1564:	0b390b3b 	bleq	e44258 <__bss_end__+0xe39cd8>
    1568:	01111927 	tsteq	r1, r7, lsr #18
    156c:	18400612 	stmdane	r0, {r1, r4, r9, sl}^
    1570:	00194297 	mulseq	r9, r7, r2
    1574:	012e0d00 			; <UNDEFINED> instruction: 0x012e0d00
    1578:	0b3a0e03 	bleq	e84d8c <__bss_end__+0xe7a80c>
    157c:	0b390b3b 	bleq	e44270 <__bss_end__+0xe39cf0>
    1580:	13491927 	movtne	r1, #39207	; 0x9927
    1584:	06120111 			; <UNDEFINED> instruction: 0x06120111
    1588:	42971840 	addsmi	r1, r7, #64, 16	; 0x400000
    158c:	00130119 	andseq	r0, r3, r9, lsl r1
    1590:	00050e00 	andeq	r0, r5, r0, lsl #28
    1594:	0b3a0803 	bleq	e835a8 <__bss_end__+0xe79028>
    1598:	0b390b3b 	bleq	e4428c <__bss_end__+0xe39d0c>
    159c:	17021349 	strne	r1, [r2, -r9, asr #6]
    15a0:	001742b7 			; <UNDEFINED> instruction: 0x001742b7
    15a4:	82890f00 	addhi	r0, r9, #0, 30
    15a8:	01110101 	tsteq	r1, r1, lsl #2
    15ac:	00001331 	andeq	r1, r0, r1, lsr r3
    15b0:	01828a10 	orreq	r8, r2, r0, lsl sl
    15b4:	91180200 	tstls	r8, r0, lsl #4
    15b8:	00001842 	andeq	r1, r0, r2, asr #16
    15bc:	3f002e11 	svccc	0x00002e11
    15c0:	6e193c19 	mrcvs	12, 0, r3, cr9, cr9, {0}
    15c4:	3a0e030e 	bcc	382204 <__bss_end__+0x377c84>
    15c8:	390b3b0b 	stmdbcc	fp, {r0, r1, r3, r8, r9, fp, ip, sp}
    15cc:	0000000b 	andeq	r0, r0, fp
    15d0:	25011101 	strcs	r1, [r1, #-257]	; 0xfffffeff
    15d4:	030b130e 	movweq	r1, #45838	; 0xb30e
    15d8:	110e1b0e 	tstne	lr, lr, lsl #22
    15dc:	10061201 	andne	r1, r6, r1, lsl #4
    15e0:	02000017 	andeq	r0, r0, #23, 0
    15e4:	0b0b0024 	bleq	2c167c <__bss_end__+0x2b70fc>
    15e8:	08030b3e 	stmdaeq	r3, {r1, r2, r3, r4, r5, r8, r9, fp}
    15ec:	24030000 	strcs	r0, [r3], #-0
    15f0:	3e0b0b00 	vmlacc.f64	d0, d11, d0
    15f4:	000e030b 	andeq	r0, lr, fp, lsl #6
    15f8:	01150400 	tsteq	r5, r0, lsl #8
    15fc:	13491927 	movtne	r1, #39207	; 0x9927
    1600:	00001301 	andeq	r1, r0, r1, lsl #6
    1604:	49000505 	stmdbmi	r0, {r0, r2, r8, sl}
    1608:	06000013 			; <UNDEFINED> instruction: 0x06000013
    160c:	0e030034 	mcreq	0, 0, r0, cr3, cr4, {1}
    1610:	0b3b0b3a 	bleq	ec4300 <__bss_end__+0xeb9d80>
    1614:	13490b39 	movtne	r0, #39737	; 0x9b39
    1618:	193c193f 	ldmdbne	ip!, {r0, r1, r2, r3, r4, r5, r8, fp, ip}
    161c:	0f070000 	svceq	0x00070000
    1620:	490b0b00 	stmdbmi	fp, {r8, r9, fp}
    1624:	08000013 	stmdaeq	r0, {r0, r1, r4}
    1628:	13490026 	movtne	r0, #36902	; 0x9026
    162c:	2e090000 	cdpcs	0, 0, cr0, cr9, cr0, {0}
    1630:	03193f01 	tsteq	r9, #1, 30
    1634:	3b0b3a0e 	blcc	2cfe74 <__bss_end__+0x2c58f4>
    1638:	270b390b 	strcs	r3, [fp, -fp, lsl #18]
    163c:	11134919 	tstne	r3, r9, lsl r9
    1640:	40061201 	andmi	r1, r6, r1, lsl #4
    1644:	19429718 	stmdbne	r2, {r3, r4, r8, r9, sl, ip, pc}^
    1648:	00001301 	andeq	r1, r0, r1, lsl #6
    164c:	0300050a 	movweq	r0, #1290	; 0x50a
    1650:	3b0b3a0e 	blcc	2cfe90 <__bss_end__+0x2c5910>
    1654:	490b390b 	stmdbmi	fp, {r0, r1, r3, r8, fp, ip, sp}
    1658:	00180213 	andseq	r0, r8, r3, lsl r2
    165c:	00050b00 	andeq	r0, r5, r0, lsl #22
    1660:	0b3a0803 	bleq	e83674 <__bss_end__+0xe790f4>
    1664:	0b390b3b 	bleq	e44358 <__bss_end__+0xe39dd8>
    1668:	17021349 	strne	r1, [r2, -r9, asr #6]
    166c:	001742b7 			; <UNDEFINED> instruction: 0x001742b7
    1670:	00340c00 	eorseq	r0, r4, r0, lsl #24
    1674:	0b3a0803 	bleq	e83688 <__bss_end__+0xe79108>
    1678:	0b390b3b 	bleq	e4436c <__bss_end__+0xe39dec>
    167c:	17021349 	strne	r1, [r2, -r9, asr #6]
    1680:	001742b7 			; <UNDEFINED> instruction: 0x001742b7
    1684:	11010000 	mrsne	r0, (UNDEF: 1)
    1688:	130e2501 	movwne	r2, #58625	; 0xe501
    168c:	1b0e030b 	blne	3822c0 <__bss_end__+0x377d40>
    1690:	1201110e 	andne	r1, r1, #-2147483645	; 0x80000003
    1694:	00171006 	andseq	r1, r7, r6
    1698:	00240200 	eoreq	r0, r4, r0, lsl #4
    169c:	0b3e0b0b 	bleq	f842d0 <__bss_end__+0xf79d50>
    16a0:	00000803 	andeq	r0, r0, r3, lsl #16
    16a4:	0b002403 	bleq	a6b8 <__bss_end__+0x138>
    16a8:	030b3e0b 	movweq	r3, #48651	; 0xbe0b
    16ac:	0400000e 	streq	r0, [r0], #-14
    16b0:	19270115 	stmdbne	r7!, {r0, r2, r4, r8}
    16b4:	13011349 	movwne	r1, #4937	; 0x1349
    16b8:	05050000 	streq	r0, [r5, #-0]
    16bc:	00134900 	andseq	r4, r3, r0, lsl #18
    16c0:	00340600 	eorseq	r0, r4, r0, lsl #12
    16c4:	0b3a0e03 	bleq	e84ed8 <__bss_end__+0xe7a958>
    16c8:	0b390b3b 	bleq	e443bc <__bss_end__+0xe39e3c>
    16cc:	193f1349 	ldmdbne	pc!, {r0, r3, r6, r8, r9, ip}	; <UNPREDICTABLE>
    16d0:	0000193c 	andeq	r1, r0, ip, lsr r9
    16d4:	0b000f07 	bleq	52f8 <__code_start__-0x2d08>
    16d8:	0013490b 	andseq	r4, r3, fp, lsl #18
    16dc:	00260800 	eoreq	r0, r6, r0, lsl #16
    16e0:	00001349 	andeq	r1, r0, r9, asr #6
    16e4:	3f012e09 	svccc	0x00012e09
    16e8:	3a0e0319 	bcc	382354 <__bss_end__+0x377dd4>
    16ec:	390b3b0b 	stmdbcc	fp, {r0, r1, r3, r8, r9, fp, ip, sp}
    16f0:	4919270b 	ldmdbmi	r9, {r0, r1, r3, r8, r9, sl, sp}
    16f4:	12011113 	andne	r1, r1, #-1073741820	; 0xc0000004
    16f8:	97184006 	ldrls	r4, [r8, -r6]
    16fc:	00001942 	andeq	r1, r0, r2, asr #18
    1700:	0300050a 	movweq	r0, #1290	; 0x50a
    1704:	3b0b3a08 	blcc	2cff2c <__bss_end__+0x2c59ac>
    1708:	490b390b 	stmdbmi	fp, {r0, r1, r3, r8, fp, ip, sp}
    170c:	b7170213 			; <UNDEFINED> instruction: 0xb7170213
    1710:	00001742 	andeq	r1, r0, r2, asr #14
    1714:	01110100 	tsteq	r1, r0, lsl #2
    1718:	0b130e25 	bleq	4c4fb4 <__bss_end__+0x4baa34>
    171c:	0e1b0e03 	cdpeq	14, 1, cr0, cr11, cr3, {0}
    1720:	06120111 			; <UNDEFINED> instruction: 0x06120111
    1724:	00001710 	andeq	r1, r0, r0, lsl r7
    1728:	0b002402 	bleq	a738 <__bss_end__+0x1b8>
    172c:	030b3e0b 	movweq	r3, #48651	; 0xbe0b
    1730:	03000008 	movweq	r0, #8
    1734:	0b0b0024 	bleq	2c17cc <__bss_end__+0x2b724c>
    1738:	0e030b3e 	vmoveq.16	d3[0], r0
    173c:	15040000 	strne	r0, [r4, #-0]
    1740:	49192701 	ldmdbmi	r9, {r0, r8, r9, sl, sp}
    1744:	00130113 	andseq	r0, r3, r3, lsl r1
    1748:	00050500 	andeq	r0, r5, r0, lsl #10
    174c:	00001349 	andeq	r1, r0, r9, asr #6
    1750:	03003406 	movweq	r3, #1030	; 0x406
    1754:	3b0b3a0e 	blcc	2cff94 <__bss_end__+0x2c5a14>
    1758:	490b390b 	stmdbmi	fp, {r0, r1, r3, r8, fp, ip, sp}
    175c:	3c193f13 	ldccc	15, cr3, [r9], {19}
    1760:	07000019 	smladeq	r0, r9, r0, r0
    1764:	0b0b000f 	bleq	2c17a8 <__bss_end__+0x2b7228>
    1768:	00001349 	andeq	r1, r0, r9, asr #6
    176c:	49002608 	stmdbmi	r0, {r3, r9, sl, sp}
    1770:	09000013 	stmdbeq	r0, {r0, r1, r4}
    1774:	193f012e 	ldmdbne	pc!, {r1, r2, r3, r5, r8}	; <UNPREDICTABLE>
    1778:	0b3a0e03 	bleq	e84f8c <__bss_end__+0xe7aa0c>
    177c:	0b390b3b 	bleq	e44470 <__bss_end__+0xe39ef0>
    1780:	13491927 	movtne	r1, #39207	; 0x9927
    1784:	06120111 			; <UNDEFINED> instruction: 0x06120111
    1788:	42971840 	addsmi	r1, r7, #64, 16	; 0x400000
    178c:	00130119 	andseq	r0, r3, r9, lsl r1
    1790:	00050a00 	andeq	r0, r5, r0, lsl #20
    1794:	0b3a0803 	bleq	e837a8 <__bss_end__+0xe79228>
    1798:	0b390b3b 	bleq	e4448c <__bss_end__+0xe39f0c>
    179c:	18021349 	stmdane	r2, {r0, r3, r6, r8, r9, ip}
    17a0:	050b0000 	streq	r0, [fp, #-0]
    17a4:	3a080300 	bcc	2023ac <__bss_end__+0x1f7e2c>
    17a8:	390b3b0b 	stmdbcc	fp, {r0, r1, r3, r8, r9, fp, ip, sp}
    17ac:	0213490b 	andseq	r4, r3, #180224	; 0x2c000
    17b0:	1742b717 	smlaldne	fp, r2, r7, r7
    17b4:	340c0000 	strcc	r0, [ip], #-0
    17b8:	3a080300 	bcc	2023c0 <__bss_end__+0x1f7e40>
    17bc:	390b3b0b 	stmdbcc	fp, {r0, r1, r3, r8, r9, fp, ip, sp}
    17c0:	0213490b 	andseq	r4, r3, #180224	; 0x2c000
    17c4:	1742b717 	smlaldne	fp, r2, r7, r7
    17c8:	01000000 	mrseq	r0, (UNDEF: 0)
    17cc:	0e250111 	mcreq	1, 1, r0, cr5, cr1, {0}
    17d0:	0e030b13 	vmoveq.32	d3[0], r0
    17d4:	17550e1b 	smmlane	r5, fp, lr, r0
    17d8:	17100111 			; <UNDEFINED> instruction: 0x17100111
    17dc:	24020000 	strcs	r0, [r2], #-0
    17e0:	3e0b0b00 	vmlacc.f64	d0, d11, d0
    17e4:	0008030b 	andeq	r0, r8, fp, lsl #6
    17e8:	00160300 	andseq	r0, r6, r0, lsl #6
    17ec:	0b3a0e03 	bleq	e85000 <__bss_end__+0xe7aa80>
    17f0:	0b390b3b 	bleq	e444e4 <__bss_end__+0xe39f64>
    17f4:	00001349 	andeq	r1, r0, r9, asr #6
    17f8:	0b002404 	bleq	a810 <__bss_end__+0x290>
    17fc:	030b3e0b 	movweq	r3, #48651	; 0xbe0b
    1800:	0500000e 	streq	r0, [r0, #-14]
    1804:	13490026 	movtne	r0, #36902	; 0x9026
    1808:	15060000 	strne	r0, [r6, #-0]
    180c:	49192701 	ldmdbmi	r9, {r0, r8, r9, sl, sp}
    1810:	00130113 	andseq	r0, r3, r3, lsl r1
    1814:	00050700 	andeq	r0, r5, r0, lsl #14
    1818:	00001349 	andeq	r1, r0, r9, asr #6
    181c:	03003408 	movweq	r3, #1032	; 0x408
    1820:	3b0b3a0e 	blcc	2d0060 <__bss_end__+0x2c5ae0>
    1824:	490b390b 	stmdbmi	fp, {r0, r1, r3, r8, fp, ip, sp}
    1828:	3c193f13 	ldccc	15, cr3, [r9], {19}
    182c:	09000019 	stmdbeq	r0, {r0, r3, r4}
    1830:	0b0b000f 	bleq	2c1874 <__bss_end__+0x2b72f4>
    1834:	00001349 	andeq	r1, r0, r9, asr #6
    1838:	3f012e0a 	svccc	0x00012e0a
    183c:	3a0e0319 	bcc	3824a8 <__bss_end__+0x377f28>
    1840:	390b3b0b 	stmdbcc	fp, {r0, r1, r3, r8, r9, fp, ip, sp}
    1844:	4919270b 	ldmdbmi	r9, {r0, r1, r3, r8, r9, sl, sp}
    1848:	12011113 	andne	r1, r1, #-1073741820	; 0xc0000004
    184c:	97184006 	ldrls	r4, [r8, -r6]
    1850:	13011942 	movwne	r1, #6466	; 0x1942
    1854:	050b0000 	streq	r0, [fp, #-0]
    1858:	3a080300 	bcc	202460 <__bss_end__+0x1f7ee0>
    185c:	390b3b0b 	stmdbcc	fp, {r0, r1, r3, r8, r9, fp, ip, sp}
    1860:	0213490b 	andseq	r4, r3, #180224	; 0x2c000
    1864:	1742b717 	smlaldne	fp, r2, r7, r7
    1868:	340c0000 	strcc	r0, [ip], #-0
    186c:	3a080300 	bcc	202474 <__bss_end__+0x1f7ef4>
    1870:	390b3b0b 	stmdbcc	fp, {r0, r1, r3, r8, r9, fp, ip, sp}
    1874:	0213490b 	andseq	r4, r3, #180224	; 0x2c000
    1878:	1742b717 	smlaldne	fp, r2, r7, r7
    187c:	01000000 	mrseq	r0, (UNDEF: 0)
    1880:	0e250111 	mcreq	1, 1, r0, cr5, cr1, {0}
    1884:	0e030b13 	vmoveq.32	d3[0], r0
    1888:	01110e1b 	tsteq	r1, fp, lsl lr
    188c:	17100612 			; <UNDEFINED> instruction: 0x17100612
    1890:	24020000 	strcs	r0, [r2], #-0
    1894:	3e0b0b00 	vmlacc.f64	d0, d11, d0
    1898:	0008030b 	andeq	r0, r8, fp, lsl #6
    189c:	00240300 	eoreq	r0, r4, r0, lsl #6
    18a0:	0b3e0b0b 	bleq	f844d4 <__bss_end__+0xf79f54>
    18a4:	00000e03 	andeq	r0, r0, r3, lsl #28
    18a8:	27011504 	strcs	r1, [r1, -r4, lsl #10]
    18ac:	01134919 	tsteq	r3, r9, lsl r9
    18b0:	05000013 	streq	r0, [r0, #-19]	; 0xffffffed
    18b4:	13490005 	movtne	r0, #36869	; 0x9005
    18b8:	34060000 	strcc	r0, [r6], #-0
    18bc:	3a0e0300 	bcc	3824c4 <__bss_end__+0x377f44>
    18c0:	390b3b0b 	stmdbcc	fp, {r0, r1, r3, r8, r9, fp, ip, sp}
    18c4:	3f13490b 	svccc	0x0013490b
    18c8:	00193c19 	andseq	r3, r9, r9, lsl ip
    18cc:	000f0700 	andeq	r0, pc, r0, lsl #14
    18d0:	13490b0b 	movtne	r0, #39691	; 0x9b0b
    18d4:	26080000 	strcs	r0, [r8], -r0
    18d8:	00134900 	andseq	r4, r3, r0, lsl #18
    18dc:	002e0900 	eoreq	r0, lr, r0, lsl #18
    18e0:	0e03193f 			; <UNDEFINED> instruction: 0x0e03193f
    18e4:	0b3b0b3a 	bleq	ec45d4 <__bss_end__+0xeba054>
    18e8:	19270b39 	stmdbne	r7!, {r0, r3, r4, r5, r8, r9, fp}
    18ec:	06120111 			; <UNDEFINED> instruction: 0x06120111
    18f0:	42971840 	addsmi	r1, r7, #64, 16	; 0x400000
    18f4:	00000019 	andeq	r0, r0, r9, lsl r0
    18f8:	25011101 	strcs	r1, [r1, #-257]	; 0xfffffeff
    18fc:	030b130e 	movweq	r1, #45838	; 0xb30e
    1900:	110e1b0e 	tstne	lr, lr, lsl #22
    1904:	10061201 	andne	r1, r6, r1, lsl #4
    1908:	02000017 	andeq	r0, r0, #23, 0
    190c:	0b0b0024 	bleq	2c19a4 <__bss_end__+0x2b7424>
    1910:	08030b3e 	stmdaeq	r3, {r1, r2, r3, r4, r5, r8, r9, fp}
    1914:	24030000 	strcs	r0, [r3], #-0
    1918:	3e0b0b00 	vmlacc.f64	d0, d11, d0
    191c:	000e030b 	andeq	r0, lr, fp, lsl #6
    1920:	00260400 	eoreq	r0, r6, r0, lsl #8
    1924:	00001349 	andeq	r1, r0, r9, asr #6
    1928:	03001605 	movweq	r1, #1541	; 0x605
    192c:	3b0b3a0e 	blcc	2d016c <__bss_end__+0x2c5bec>
    1930:	490b390b 	stmdbmi	fp, {r0, r1, r3, r8, fp, ip, sp}
    1934:	06000013 			; <UNDEFINED> instruction: 0x06000013
    1938:	0b3e0104 	bleq	f81d50 <__bss_end__+0xf777d0>
    193c:	13490b0b 	movtne	r0, #39691	; 0x9b0b
    1940:	0b3b0b3a 	bleq	ec4630 <__bss_end__+0xeba0b0>
    1944:	13010b39 	movwne	r0, #6969	; 0x1b39
    1948:	28070000 	stmdacs	r7, {}	; <UNPREDICTABLE>
    194c:	1c0e0300 	stcne	3, cr0, [lr], {-0}
    1950:	0800000b 	stmdaeq	r0, {r0, r1, r3}
    1954:	0e030034 	mcreq	0, 0, r0, cr3, cr4, {1}
    1958:	0b3b0b3a 	bleq	ec4648 <__bss_end__+0xeba0c8>
    195c:	13490b39 	movtne	r0, #39737	; 0x9b39
    1960:	0000061c 	andeq	r0, r0, ip, lsl r6
    1964:	3f012e09 	svccc	0x00012e09
    1968:	3a0e0319 	bcc	3825d4 <__bss_end__+0x378054>
    196c:	390b3b0b 	stmdbcc	fp, {r0, r1, r3, r8, r9, fp, ip, sp}
    1970:	4919270b 	ldmdbmi	r9, {r0, r1, r3, r8, r9, sl, sp}
    1974:	12011113 	andne	r1, r1, #-1073741820	; 0xc0000004
    1978:	97184006 	ldrls	r4, [r8, -r6]
    197c:	13011942 	movwne	r1, #6466	; 0x1942
    1980:	050a0000 	streq	r0, [sl, #-0]
    1984:	3a080300 	bcc	20258c <__bss_end__+0x1f800c>
    1988:	390b3b0b 	stmdbcc	fp, {r0, r1, r3, r8, r9, fp, ip, sp}
    198c:	0213490b 	andseq	r4, r3, #180224	; 0x2c000
    1990:	1742b717 	smlaldne	fp, r2, r7, r7
    1994:	340b0000 	strcc	r0, [fp], #-0
    1998:	3a0e0300 	bcc	3825a0 <__bss_end__+0x378020>
    199c:	390b3b0b 	stmdbcc	fp, {r0, r1, r3, r8, r9, fp, ip, sp}
    19a0:	0213490b 	andseq	r4, r3, #180224	; 0x2c000
    19a4:	1742b717 	smlaldne	fp, r2, r7, r7
    19a8:	340c0000 	strcc	r0, [ip], #-0
    19ac:	3a080300 	bcc	2025b4 <__bss_end__+0x1f8034>
    19b0:	390b3b0b 	stmdbcc	fp, {r0, r1, r3, r8, r9, fp, ip, sp}
    19b4:	0213490b 	andseq	r4, r3, #180224	; 0x2c000
    19b8:	1742b717 	smlaldne	fp, r2, r7, r7
    19bc:	890d0000 	stmdbhi	sp, {}	; <UNPREDICTABLE>
    19c0:	11010182 	smlabbne	r1, r2, r1, r0
    19c4:	00133101 	andseq	r3, r3, r1, lsl #2
    19c8:	828a0e00 	addhi	r0, sl, #0, 28
    19cc:	18020001 	stmdane	r2, {r0}
    19d0:	00184291 	mulseq	r8, r1, r2
    19d4:	012e0f00 			; <UNDEFINED> instruction: 0x012e0f00
    19d8:	0e03193f 			; <UNDEFINED> instruction: 0x0e03193f
    19dc:	0b3b0b3a 	bleq	ec46cc <__bss_end__+0xeba14c>
    19e0:	19270b39 	stmdbne	r7!, {r0, r3, r4, r5, r8, r9, fp}
    19e4:	06120111 			; <UNDEFINED> instruction: 0x06120111
    19e8:	42971840 	addsmi	r1, r7, #64, 16	; 0x400000
    19ec:	00130119 	andseq	r0, r3, r9, lsl r1
    19f0:	82891000 	addhi	r1, r9, #0, 0
    19f4:	01110101 	tsteq	r1, r1, lsl #2
    19f8:	13011331 	movwne	r1, #4913	; 0x1331
    19fc:	89110000 	ldmdbhi	r1, {}	; <UNPREDICTABLE>
    1a00:	11000182 	smlabbne	r0, r2, r1, r0
    1a04:	00133101 	andseq	r3, r3, r1, lsl #2
    1a08:	00051200 	andeq	r1, r5, r0, lsl #4
    1a0c:	0b3a0e03 	bleq	e85220 <__bss_end__+0xe7aca0>
    1a10:	0b390b3b 	bleq	e44704 <__bss_end__+0xe3a184>
    1a14:	17021349 	strne	r1, [r2, -r9, asr #6]
    1a18:	001742b7 			; <UNDEFINED> instruction: 0x001742b7
    1a1c:	012e1300 			; <UNDEFINED> instruction: 0x012e1300
    1a20:	0b3a0e03 	bleq	e85234 <__bss_end__+0xe7acb4>
    1a24:	0b390b3b 	bleq	e44718 <__bss_end__+0xe3a198>
    1a28:	13491927 	movtne	r1, #39207	; 0x9927
    1a2c:	13010b20 	movwne	r0, #6944	; 0x1b20
    1a30:	05140000 	ldreq	r0, [r4, #-0]
    1a34:	3a080300 	bcc	20263c <__bss_end__+0x1f80bc>
    1a38:	390b3b0b 	stmdbcc	fp, {r0, r1, r3, r8, r9, fp, ip, sp}
    1a3c:	0013490b 	andseq	r4, r3, fp, lsl #18
    1a40:	002e1500 	eoreq	r1, lr, r0, lsl #10
    1a44:	193c193f 	ldmdbne	ip!, {r0, r1, r2, r3, r4, r5, r8, fp, ip}
    1a48:	0e030e6e 	cdpeq	14, 0, cr0, cr3, cr14, {3}
    1a4c:	0b3b0b3a 	bleq	ec473c <__bss_end__+0xeba1bc>
    1a50:	00000b39 	andeq	r0, r0, r9, lsr fp
	...

Disassembly of section .debug_loc:

00000000 <.debug_loc>:
       0:	00000000 	andeq	r0, r0, r0
       4:	00340000 	eorseq	r0, r4, r0
       8:	003c0000 	eorseq	r0, ip, r0
       c:	00010000 	andeq	r0, r1, r0
      10:	00003c50 	andeq	r3, r0, r0, asr ip
      14:	00003f00 	andeq	r3, r0, r0, lsl #30
      18:	51000100 	mrspl	r0, (UNDEF: 16)
      1c:	0000003f 	andeq	r0, r0, pc, lsr r0
      20:	00000078 	andeq	r0, r0, r8, ror r0
      24:	00540001 	subseq	r0, r4, r1
      28:	00000000 	andeq	r0, r0, r0
      2c:	01000000 	mrseq	r0, (UNDEF: 0)
      30:	00000800 	andeq	r0, r0, r0, lsl #16
      34:	00002000 	andeq	r2, r0, r0
      38:	39000200 	stmdbcc	r0, {r9}
      3c:	0000009f 	muleq	r0, pc, r0	; <UNPREDICTABLE>
      40:	00000000 	andeq	r0, r0, r0
      44:	08000100 	stmdaeq	r0, {r8}
      48:	20000000 	andcs	r0, r0, r0
      4c:	06000000 	streq	r0, [r0], -r0
      50:	0345f200 	movteq	pc, #20992	; 0x5200	; <UNPREDICTABLE>
	...
      5c:	01000000 	mrseq	r0, (UNDEF: 0)
      60:	00000800 	andeq	r0, r0, r0, lsl #16
      64:	00002000 	andeq	r2, r0, r0
      68:	03000600 	movweq	r0, #1536	; 0x600
      6c:	00009ad0 	ldrdeq	r9, [r0], -r0
      70:	0000009f 	muleq	r0, pc, r0	; <UNPREDICTABLE>
      74:	00000000 	andeq	r0, r0, r0
      78:	50000100 	andpl	r0, r0, r0, lsl #2
      7c:	60000000 	andvs	r0, r0, r0
      80:	02000000 	andeq	r0, r0, #0, 0
      84:	009f3c00 	addseq	r3, pc, r0, lsl #24
      88:	00000000 	andeq	r0, r0, r0
      8c:	01000000 	mrseq	r0, (UNDEF: 0)
      90:	00005000 	andeq	r5, r0, r0
      94:	00006000 	andeq	r6, r0, r0
      98:	f2000600 	vmax.s8	d0, d0, d0
      9c:	00000345 	andeq	r0, r0, r5, asr #6
	...
      a8:	50000100 	andpl	r0, r0, r0, lsl #2
      ac:	60000000 	andvs	r0, r0, r0
      b0:	06000000 	streq	r0, [r0], -r0
      b4:	9ad00300 	bls	ff400cbc <__bss_end__+0xff3f673c>
      b8:	009f0000 	addseq	r0, pc, r0
	...
      c8:	0002ec00 	andeq	lr, r2, r0, lsl #24
      cc:	00030400 	andeq	r0, r3, r0, lsl #8
      d0:	50000100 	andpl	r0, r0, r0, lsl #2
      d4:	00000304 	andeq	r0, r0, r4, lsl #6
      d8:	00000378 	andeq	r0, r0, r8, ror r3
      dc:	78560001 	ldmdavc	r6, {r0}^
      e0:	84000003 	strhi	r0, [r0], #-3
      e4:	04000003 	streq	r0, [r0], #-3
      e8:	5001f300 	andpl	pc, r1, r0, lsl #6
      ec:	0000009f 	muleq	r0, pc, r0	; <UNPREDICTABLE>
	...
      f8:	0c000000 	stceq	0, cr0, [r0], {-0}
      fc:	17000003 	strne	r0, [r0, -r3]
     100:	01000003 	tsteq	r0, r3
     104:	03175000 	tsteq	r7, #0, 0
     108:	03780000 	cmneq	r8, #0, 0
     10c:	00010000 	andeq	r0, r1, r0
     110:	00037854 	andeq	r7, r3, r4, asr r8
     114:	00038400 	andeq	r8, r3, r0, lsl #8
     118:	70000300 	andvc	r0, r0, r0, lsl #6
     11c:	00009f5c 	andeq	r9, r0, ip, asr pc
	...
     128:	01d00000 	bicseq	r0, r0, r0
     12c:	01e00000 	mvneq	r0, r0
     130:	00010000 	andeq	r0, r1, r0
     134:	0001e050 	andeq	lr, r1, r0, asr r0
     138:	0002ec00 	andeq	lr, r2, r0, lsl #24
     13c:	54000100 	strpl	r0, [r0], #-256	; 0xffffff00
	...
     148:	00000001 	andeq	r0, r0, r1
     14c:	00000000 	andeq	r0, r0, r0
     150:	000001e4 	andeq	r0, r0, r4, ror #3
     154:	000001f4 	strdeq	r0, [r0], -r4
     158:	5c740003 	ldclpl	0, cr0, [r4], #-12
     15c:	0001f49f 	muleq	r1, pc, r4	; <UNPREDICTABLE>
     160:	00025c00 	andeq	r5, r2, r0, lsl #24
     164:	55000100 	strpl	r0, [r0, #-256]	; 0xffffff00
     168:	0000025c 	andeq	r0, r0, ip, asr r2
     16c:	00000284 	andeq	r0, r0, r4, lsl #5
     170:	5c740003 	ldclpl	0, cr0, [r4], #-12
     174:	0002849f 	muleq	r2, pc, r4	; <UNPREDICTABLE>
     178:	0002ec00 	andeq	lr, r2, r0, lsl #24
     17c:	55000100 	strpl	r0, [r0, #-256]	; 0xffffff00
	...
     18c:	00000180 	andeq	r0, r0, r0, lsl #3
     190:	0000018b 	andeq	r0, r0, fp, lsl #3
     194:	8b500001 	blhi	14001a0 <__bss_end__+0x13f5c20>
     198:	d0000001 	andle	r0, r0, r1
     19c:	01000001 	tsteq	r0, r1
     1a0:	00005500 	andeq	r5, r0, r0, lsl #10
	...
     1b0:	01900000 	orrseq	r0, r0, r0
     1b4:	01940000 	orrseq	r0, r4, r0
     1b8:	00010000 	andeq	r0, r1, r0
     1bc:	00019450 	andeq	r9, r1, r0, asr r4
     1c0:	0001a000 	andeq	sl, r1, r0
     1c4:	54000100 	strpl	r0, [r0], #-256	; 0xffffff00
     1c8:	000001a0 	andeq	r0, r0, r0, lsr #3
     1cc:	000001b3 			; <UNDEFINED> instruction: 0x000001b3
     1d0:	b3500001 	cmplt	r0, #1, 0
     1d4:	d0000001 	andle	r0, r0, r1
     1d8:	01000001 	tsteq	r0, r1
     1dc:	00005400 	andeq	r5, r0, r0, lsl #8
	...
     1f0:	00000148 	andeq	r0, r0, r8, asr #2
     1f4:	00000160 	andeq	r0, r0, r0, ror #2
     1f8:	60500001 	subsvs	r0, r0, r1
     1fc:	6c000001 	stcvs	0, cr0, [r0], {1}
     200:	03000001 	movweq	r0, #1
     204:	9f5c7000 	svcls	0x005c7000
     208:	0000016c 	andeq	r0, r0, ip, ror #2
     20c:	00000170 	andeq	r0, r0, r0, ror r1
     210:	01f30004 	mvnseq	r0, r4
     214:	01709f50 	cmneq	r0, r0, asr pc
     218:	01740000 	cmneq	r4, r0
     21c:	00010000 	andeq	r0, r1, r0
     220:	00017450 	andeq	r7, r1, r0, asr r4
     224:	00018000 	andeq	r8, r1, r0
     228:	f3000400 	vshl.u8	d0, d0, d0
     22c:	009f5001 	addseq	r5, pc, r1
	...
     238:	30000000 	andcc	r0, r0, r0
     23c:	3b000001 	blcc	248 <__code_start__-0x7db8>
     240:	01000001 	tsteq	r0, r1
     244:	013b5000 	teqeq	fp, r0
     248:	01480000 	mrseq	r0, (UNDEF: 72)
     24c:	00010000 	andeq	r0, r1, r0
     250:	00000054 	andeq	r0, r0, r4, asr r0
     254:	00000000 	andeq	r0, r0, r0
     258:	3c000000 	stccc	0, cr0, [r0], {-0}
     25c:	40000001 	andmi	r0, r0, r1
     260:	01000001 	tsteq	r0, r1
     264:	00005400 	andeq	r5, r0, r0, lsl #8
	...
     270:	01280000 			; <UNDEFINED> instruction: 0x01280000
     274:	012c0000 			; <UNDEFINED> instruction: 0x012c0000
     278:	00010000 	andeq	r0, r1, r0
     27c:	00012c50 	andeq	r2, r1, r0, asr ip
     280:	00013000 	andeq	r3, r1, r0
     284:	70000300 	andvc	r0, r0, r0, lsl #6
     288:	00009f5c 	andeq	r9, r0, ip, asr pc
	...
     294:	00840000 	addeq	r0, r4, r0
     298:	00900000 	addseq	r0, r0, r0
     29c:	00010000 	andeq	r0, r1, r0
     2a0:	00009050 	andeq	r9, r0, r0, asr r0
     2a4:	00009400 	andeq	r9, r0, r0, lsl #8
     2a8:	f3000400 	vshl.u8	d0, d0, d0
     2ac:	009f5001 	addseq	r5, pc, r1
	...
     2bc:	58000000 	stmdapl	r0, {}	; <UNPREDICTABLE>
     2c0:	01000000 	mrseq	r0, (UNDEF: 0)
     2c4:	00585000 	subseq	r5, r8, r0
     2c8:	00740000 	rsbseq	r0, r4, r0
     2cc:	00040000 	andeq	r0, r4, r0
     2d0:	9f5001f3 	svcls	0x005001f3
	...
     2e4:	00000054 	andeq	r0, r0, r4, asr r0
     2e8:	54510001 	ldrbpl	r0, [r1], #-1
     2ec:	74000000 	strvc	r0, [r0], #-0
     2f0:	04000000 	streq	r0, [r0], #-0
     2f4:	5101f300 	mrspl	pc, SP_irq	; <UNPREDICTABLE>
     2f8:	0000009f 	muleq	r0, pc, r0	; <UNPREDICTABLE>
     2fc:	00000000 	andeq	r0, r0, r0
     300:	18000300 	stmdane	r0, {r8, r9}
     304:	28000000 	stmdacs	r0, {}	; <UNPREDICTABLE>
     308:	01000000 	mrseq	r0, (UNDEF: 0)
     30c:	00005300 	andeq	r5, r0, r0, lsl #6
	...
     31c:	00940000 	addseq	r0, r4, r0
     320:	00b00000 	adcseq	r0, r0, r0
     324:	00010000 	andeq	r0, r1, r0
     328:	0000b050 	andeq	fp, r0, r0, asr r0
     32c:	0000d800 	andeq	sp, r0, r0, lsl #16
     330:	f3000400 	vshl.u8	d0, d0, d0
     334:	d89f5001 	ldmle	pc, {r0, ip, lr}	; <UNPREDICTABLE>
     338:	f0000000 			; <UNDEFINED> instruction: 0xf0000000
     33c:	01000000 	mrseq	r0, (UNDEF: 0)
     340:	00f05000 	rscseq	r5, r0, r0
     344:	01280000 			; <UNDEFINED> instruction: 0x01280000
     348:	00040000 	andeq	r0, r4, r0
     34c:	9f5001f3 	svcls	0x005001f3
	...
     360:	00940000 	addseq	r0, r4, r0
     364:	00b00000 	adcseq	r0, r0, r0
     368:	00010000 	andeq	r0, r1, r0
     36c:	0000b051 	andeq	fp, r0, r1, asr r0
     370:	0000d800 	andeq	sp, r0, r0, lsl #16
     374:	54000100 	strpl	r0, [r0], #-256	; 0xffffff00
     378:	000000d8 	ldrdeq	r0, [r0], -r8
     37c:	000000ec 	andeq	r0, r0, ip, ror #1
     380:	ec510001 	mrrc	0, 0, r0, r1, cr1
     384:	f8000000 			; <UNDEFINED> instruction: 0xf8000000
     388:	04000000 	streq	r0, [r0], #-0
     38c:	5101f300 	mrspl	pc, SP_irq	; <UNPREDICTABLE>
     390:	0000f89f 	muleq	r0, pc, r8	; <UNPREDICTABLE>
     394:	00012800 	andeq	r2, r1, r0, lsl #16
     398:	54000100 	strpl	r0, [r0], #-256	; 0xffffff00
	...
     3a4:	01000003 	tsteq	r0, r3
     3a8:	00a80000 	adceq	r0, r8, r0
     3ac:	00b70000 	adcseq	r0, r7, r0
     3b0:	00010000 	andeq	r0, r1, r0
     3b4:	0000b750 	andeq	fp, r0, r0, asr r7
     3b8:	0000d000 	andeq	sp, r0, r0
     3bc:	55000100 	strpl	r0, [r0, #-256]	; 0xffffff00
     3c0:	000000f8 	strdeq	r0, [r0], -r8
     3c4:	00000128 	andeq	r0, r0, r8, lsr #2
     3c8:	00550001 	subseq	r0, r5, r1
	...
     3d4:	b8000001 	stmdalt	r0, {r0}
     3d8:	d0000000 	andle	r0, r0, r0
     3dc:	01000000 	mrseq	r0, (UNDEF: 0)
     3e0:	00f85000 	rscseq	r5, r8, r0
     3e4:	010c0000 	mrseq	r0, (UNDEF: 12)
     3e8:	00010000 	andeq	r0, r1, r0
     3ec:	00000050 	andeq	r0, r0, r0, asr r0
	...
     3f8:	00030000 	andeq	r0, r3, r0
     3fc:	00030b00 	andeq	r0, r3, r0, lsl #22
     400:	50000100 	andpl	r0, r0, r0, lsl #2
     404:	0000030b 	andeq	r0, r0, fp, lsl #6
     408:	00000314 	andeq	r0, r0, r4, lsl r3
     40c:	00540001 	subseq	r0, r4, r1
	...
     418:	e4000000 	str	r0, [r0], #-0
     41c:	ff000001 			; <UNDEFINED> instruction: 0xff000001
     420:	01000001 	tsteq	r0, r1
     424:	02005000 	andeq	r5, r0, #0, 0
     428:	02080000 	andeq	r0, r8, #0, 0
     42c:	00010000 	andeq	r0, r1, r0
     430:	00000050 	andeq	r0, r0, r0, asr r0
	...
     43c:	00003c00 	andeq	r3, r0, r0, lsl #24
     440:	00004400 	andeq	r4, r0, r0, lsl #8
     444:	50000100 	andpl	r0, r0, r0, lsl #2
     448:	00000044 	andeq	r0, r0, r4, asr #32
     44c:	0000007c 	andeq	r0, r0, ip, ror r0
     450:	01f30004 	mvnseq	r0, r4
     454:	00009f50 	andeq	r9, r0, r0, asr pc
	...
     46c:	000000e4 	andeq	r0, r0, r4, ror #1
     470:	0000012c 	andeq	r0, r0, ip, lsr #2
     474:	2c500001 	mrrccs	0, 0, r0, r0, cr1	; <UNPREDICTABLE>
     478:	34000001 	strcc	r0, [r0], #-1
     47c:	04000001 	streq	r0, [r0], #-1
     480:	5001f300 	andpl	pc, r1, r0, lsl #6
     484:	0001349f 	muleq	r1, pc, r4	; <UNPREDICTABLE>
     488:	00014c00 	andeq	r4, r1, r0, lsl #24
     48c:	50000100 	andpl	r0, r0, r0, lsl #2
     490:	0000014c 	andeq	r0, r0, ip, asr #2
     494:	00000154 	andeq	r0, r0, r4, asr r1
     498:	54560001 	ldrbpl	r0, [r6], #-1
     49c:	6c000001 	stcvs	0, cr0, [r0], {1}
     4a0:	01000001 	tsteq	r0, r1
     4a4:	016c5000 	cmneq	ip, r0
     4a8:	01c00000 	biceq	r0, r0, r0
     4ac:	00010000 	andeq	r0, r1, r0
     4b0:	0001c056 	andeq	ip, r1, r6, asr r0
     4b4:	0001d800 	andeq	sp, r1, r0, lsl #16
     4b8:	f3000400 	vshl.u8	d0, d0, d0
     4bc:	009f5001 	addseq	r5, pc, r1
	...
     4d4:	e4000000 	str	r0, [r0], #-0
     4d8:	0c000000 	stceq	0, cr0, [r0], {-0}
     4dc:	01000001 	tsteq	r0, r1
     4e0:	010c5100 	mrseq	r5, (UNDEF: 28)
     4e4:	01140000 	tsteq	r4, r0
     4e8:	00040000 	andeq	r0, r4, r0
     4ec:	9f5101f3 	svcls	0x005101f3
     4f0:	00000114 	andeq	r0, r0, r4, lsl r1
     4f4:	00000128 	andeq	r0, r0, r8, lsr #2
     4f8:	28510001 	ldmdacs	r1, {r0}^
     4fc:	34000001 	strcc	r0, [r0], #-1
     500:	04000001 	streq	r0, [r0], #-1
     504:	5101f300 	mrspl	pc, SP_irq	; <UNPREDICTABLE>
     508:	0001349f 	muleq	r1, pc, r4	; <UNPREDICTABLE>
     50c:	00014800 	andeq	r4, r1, r0, lsl #16
     510:	51000100 	mrspl	r0, (UNDEF: 16)
     514:	00000148 	andeq	r0, r0, r8, asr #2
     518:	00000154 	andeq	r0, r0, r4, asr r1
     51c:	01f30004 	mvnseq	r0, r4
     520:	01549f51 	cmpeq	r4, r1, asr pc
     524:	01680000 	cmneq	r8, r0
     528:	00010000 	andeq	r0, r1, r0
     52c:	00016851 	andeq	r6, r1, r1, asr r8
     530:	0001d800 	andeq	sp, r1, r0, lsl #16
     534:	f3000400 	vshl.u8	d0, d0, d0
     538:	009f5101 	addseq	r5, pc, r1, lsl #2
	...
     548:	00011000 	andeq	r1, r1, r0
     54c:	00011400 	andeq	r1, r1, r0, lsl #8
     550:	55000100 	strpl	r0, [r0, #-256]	; 0xffffff00
     554:	00000174 	andeq	r0, r0, r4, ror r1
     558:	000001c0 	andeq	r0, r0, r0, asr #3
     55c:	c0550001 	subsgt	r0, r5, r1
     560:	d8000001 	stmdale	r0, {r0}
     564:	0a000001 	beq	570 <__code_start__-0x7a90>
     568:	5101f300 	mrspl	pc, SP_irq	; <UNPREDICTABLE>
     56c:	1c5001f3 	ldfnee	f0, [r0], {243}	; 0xf3
     570:	009f2632 	addseq	r2, pc, r2, lsr r6	; <UNPREDICTABLE>
     574:	00000000 	andeq	r0, r0, r0
     578:	02000000 	andeq	r0, r0, #0, 0
     57c:	10000000 	andne	r0, r0, r0
     580:	14000001 	strne	r0, [r0], #-1
     584:	02000001 	andeq	r0, r0, #1, 0
     588:	749f3000 	ldrvc	r3, [pc], #0	; 590 <__code_start__-0x7a70>
     58c:	c0000001 	andgt	r0, r0, r1
     590:	01000001 	tsteq	r0, r1
     594:	00005400 	andeq	r5, r0, r0, lsl #8
	...
     5a4:	00000174 	andeq	r0, r0, r4, ror r1
     5a8:	00000180 	andeq	r0, r0, r0, lsl #3
     5ac:	80500001 	subshi	r0, r0, r1
     5b0:	8b000001 	blhi	5bc <__code_start__-0x7a44>
     5b4:	01000001 	tsteq	r0, r1
     5b8:	01a05300 	lsleq	r5, r0, #6
     5bc:	01b80000 			; <UNDEFINED> instruction: 0x01b80000
     5c0:	00010000 	andeq	r0, r1, r0
     5c4:	00000050 	andeq	r0, r0, r0, asr r0
     5c8:	00000000 	andeq	r0, r0, r0
     5cc:	80000000 	andhi	r0, r0, r0
     5d0:	8b000001 	blhi	5dc <__code_start__-0x7a24>
     5d4:	01000001 	tsteq	r0, r1
     5d8:	00005000 	andeq	r5, r0, r0
	...
     5e4:	01840000 	orreq	r0, r4, r0
     5e8:	01880000 	orreq	r0, r8, r0
     5ec:	00060000 	andeq	r0, r6, r0
     5f0:	00710070 	rsbseq	r0, r1, r0, ror r0
     5f4:	01889f22 	orreq	r9, r8, r2, lsr #30
     5f8:	018b0000 	orreq	r0, fp, r0
     5fc:	00010000 	andeq	r0, r1, r0
     600:	00000051 	andeq	r0, r0, r1, asr r0
	...
     60c:	0000bc00 	andeq	fp, r0, r0, lsl #24
     610:	0000c700 	andeq	ip, r0, r0, lsl #14
     614:	50000100 	andpl	r0, r0, r0, lsl #2
     618:	000000c7 	andeq	r0, r0, r7, asr #1
     61c:	000000e4 	andeq	r0, r0, r4, ror #1
     620:	00540001 	subseq	r0, r4, r1
     624:	00000000 	andeq	r0, r0, r0
     628:	01000000 	mrseq	r0, (UNDEF: 0)
     62c:	c4000000 	strgt	r0, [r0], #-0
     630:	c7000000 	strgt	r0, [r0, -r0]
     634:	01000000 	mrseq	r0, (UNDEF: 0)
     638:	00c75000 	sbceq	r5, r7, r0
     63c:	00e40000 	rsceq	r0, r4, r0
     640:	00010000 	andeq	r0, r1, r0
     644:	00000054 	andeq	r0, r0, r4, asr r0
	...
     65c:	00002400 	andeq	r2, r0, r0, lsl #8
     660:	50000100 	andpl	r0, r0, r0, lsl #2
     664:	00000024 	andeq	r0, r0, r4, lsr #32
     668:	00000028 	andeq	r0, r0, r8, lsr #32
     66c:	01f30004 	mvnseq	r0, r4
     670:	00289f50 	eoreq	r9, r8, r0, asr pc
     674:	002c0000 	eoreq	r0, ip, r0
     678:	00010000 	andeq	r0, r1, r0
     67c:	00002c50 	andeq	r2, r0, r0, asr ip
     680:	00003000 	andeq	r3, r0, r0
     684:	f3000400 	vshl.u8	d0, d0, d0
     688:	309f5001 	addscc	r5, pc, r1
     68c:	34000000 	strcc	r0, [r0], #-0
     690:	01000000 	mrseq	r0, (UNDEF: 0)
     694:	00345000 	eorseq	r5, r4, r0
     698:	003c0000 	eorseq	r0, ip, r0
     69c:	00040000 	andeq	r0, r4, r0
     6a0:	9f5001f3 	svcls	0x005001f3
	...
     6b8:	0000025c 	andeq	r0, r0, ip, asr r2
     6bc:	00000284 	andeq	r0, r0, r4, lsl #5
     6c0:	84500001 	ldrbhi	r0, [r0], #-1
     6c4:	b0000002 	andlt	r0, r0, r2
     6c8:	01000002 	tsteq	r0, r2
     6cc:	02b05400 	adcseq	r5, r0, #0, 8
     6d0:	02c80000 	sbceq	r0, r8, #0, 0
     6d4:	00010000 	andeq	r0, r1, r0
     6d8:	0002c850 	andeq	ip, r2, r0, asr r8
     6dc:	0002d000 	andeq	sp, r2, r0
     6e0:	54000100 	strpl	r0, [r0], #-256	; 0xffffff00
     6e4:	000002d0 	ldrdeq	r0, [r0], -r0	; <UNPREDICTABLE>
     6e8:	000002e0 	andeq	r0, r0, r0, ror #5
     6ec:	e0500001 	subs	r0, r0, r1
     6f0:	00000002 	andeq	r0, r0, r2
     6f4:	01000003 	tsteq	r0, r3
     6f8:	00005400 	andeq	r5, r0, r0, lsl #8
     6fc:	00000000 	andeq	r0, r0, r0
     700:	00020000 	andeq	r0, r2, r0
     704:	0000027c 	andeq	r0, r0, ip, ror r2
     708:	000002b0 			; <UNDEFINED> instruction: 0x000002b0
     70c:	40400004 	submi	r0, r0, r4
     710:	00009f24 	andeq	r9, r0, r4, lsr #30
	...
     720:	00080000 	andeq	r0, r8, r0
     724:	00780000 	rsbseq	r0, r8, r0
     728:	00010000 	andeq	r0, r1, r0
     72c:	00007851 	andeq	r7, r0, r1, asr r8
     730:	00008400 	andeq	r8, r0, r0, lsl #8
     734:	70000300 	andvc	r0, r0, r0, lsl #6
     738:	00849f78 	addeq	r9, r4, r8, ror pc
     73c:	00a40000 	adceq	r0, r4, r0
     740:	00010000 	andeq	r0, r1, r0
     744:	0000a451 	andeq	sl, r0, r1, asr r4
     748:	0000bc00 	andeq	fp, r0, r0, lsl #24
     74c:	70000300 	andvc	r0, r0, r0, lsl #6
     750:	00009f78 	andeq	r9, r0, r8, ror pc
	...
     75c:	00100000 	andseq	r0, r0, r0
     760:	00480000 	subeq	r0, r8, r0
     764:	00010000 	andeq	r0, r1, r0
     768:	00004c53 	andeq	r4, r0, r3, asr ip
     76c:	0000bc00 	andeq	fp, r0, r0, lsl #24
     770:	53000100 	movwpl	r0, #256	; 0x100
	...
     784:	00000100 	andeq	r0, r0, r0, lsl #2
     788:	00000124 	andeq	r0, r0, r4, lsr #2
     78c:	24500001 	ldrbcs	r0, [r0], #-1
     790:	28000001 	stmdacs	r0, {r0}
     794:	04000001 	streq	r0, [r0], #-1
     798:	5001f300 	andpl	pc, r1, r0, lsl #6
     79c:	0001289f 	muleq	r1, pc, r8	; <UNPREDICTABLE>
     7a0:	00014000 	andeq	r4, r1, r0
     7a4:	50000100 	andpl	r0, r0, r0, lsl #2
     7a8:	00000140 	andeq	r0, r0, r0, asr #2
     7ac:	000001ac 	andeq	r0, r0, ip, lsr #3
     7b0:	01f30004 	mvnseq	r0, r4
     7b4:	00009f50 	andeq	r9, r0, r0, asr pc
	...
     7c4:	00010100 	andeq	r0, r1, r0, lsl #2
     7c8:	00000000 	andeq	r0, r0, r0
     7cc:	00000124 	andeq	r0, r0, r4, lsr #2
     7d0:	00000128 	andeq	r0, r0, r8, lsr #2
     7d4:	40500001 	subsmi	r0, r0, r1
     7d8:	60000001 	andvs	r0, r0, r1
     7dc:	01000001 	tsteq	r0, r1
     7e0:	01605000 	cmneq	r0, r0
     7e4:	01640000 	cmneq	r4, r0
     7e8:	00030000 	andeq	r0, r3, r0
     7ec:	649f7870 	ldrvs	r7, [pc], #2160	; 7f4 <__code_start__-0x780c>
     7f0:	70000001 	andvc	r0, r0, r1
     7f4:	01000001 	tsteq	r0, r1
     7f8:	01705000 	cmneq	r0, r0
     7fc:	01780000 	cmneq	r8, r0
     800:	00020000 	andeq	r0, r2, r0
     804:	01780070 	cmneq	r8, r0, ror r0
     808:	01980000 	orrseq	r0, r8, r0
     80c:	00010000 	andeq	r0, r1, r0
     810:	00019c50 	andeq	r9, r1, r0, asr ip
     814:	0001ac00 	andeq	sl, r1, r0, lsl #24
     818:	50000100 	andpl	r0, r0, r0, lsl #2
	...
     824:	00010100 	andeq	r0, r1, r0, lsl #2
     828:	00010000 	andeq	r0, r1, r0
     82c:	01180000 	tsteq	r8, r0
     830:	01280000 			; <UNDEFINED> instruction: 0x01280000
     834:	00010000 	andeq	r0, r1, r0
     838:	00012852 	andeq	r2, r1, r2, asr r8
     83c:	00014000 	andeq	r4, r1, r0
     840:	03000600 	movweq	r0, #1536	; 0x600
     844:	0000a170 	andeq	sl, r0, r0, ror r1
     848:	0001409f 	muleq	r1, pc, r0	; <UNPREDICTABLE>
     84c:	00017000 	andeq	r7, r1, r0
     850:	52000100 	andpl	r0, r0, #0
     854:	00000170 	andeq	r0, r0, r0, ror r1
     858:	00000178 	andeq	r0, r0, r8, ror r1
     85c:	78500001 	ldmdavc	r0, {r0}^
     860:	9b000001 	blls	86c <__code_start__-0x7794>
     864:	01000001 	tsteq	r0, r1
     868:	00005200 	andeq	r5, r0, r0, lsl #4
	...
     874:	00000110 	andeq	r0, r0, r0, lsl r1
     878:	000001ac 	andeq	r0, r0, ip, lsr #3
     87c:	00540001 	subseq	r0, r4, r1
	...
     888:	bc000000 	stclt	0, cr0, [r0], {-0}
     88c:	cc000000 	stcgt	0, cr0, [r0], {-0}
     890:	01000000 	mrseq	r0, (UNDEF: 0)
     894:	00cc5000 	sbceq	r5, ip, r0
     898:	01000000 	mrseq	r0, (UNDEF: 0)
     89c:	00010000 	andeq	r0, r1, r0
     8a0:	00000054 	andeq	r0, r0, r4, asr r0
	...
     8ac:	d4000000 	strle	r0, [r0], #-0
     8b0:	e4000000 	str	r0, [r0], #-0
     8b4:	01000000 	mrseq	r0, (UNDEF: 0)
     8b8:	00e45000 	rsceq	r5, r4, r0
     8bc:	00e70000 	rsceq	r0, r7, r0
     8c0:	00030000 	andeq	r0, r3, r0
     8c4:	f49f7870 			; <UNDEFINED> instruction: 0xf49f7870
     8c8:	f8000000 			; <UNDEFINED> instruction: 0xf8000000
     8cc:	01000000 	mrseq	r0, (UNDEF: 0)
     8d0:	00005000 	andeq	r5, r0, r0
     8d4:	00000000 	andeq	r0, r0, r0
     8d8:	00010000 	andeq	r0, r1, r0
     8dc:	00dc0000 	sbcseq	r0, ip, r0
     8e0:	00e40000 	rsceq	r0, r4, r0
     8e4:	00010000 	andeq	r0, r1, r0
     8e8:	0000e450 	andeq	lr, r0, r0, asr r4
     8ec:	0000e700 	andeq	lr, r0, r0, lsl #14
     8f0:	70000300 	andvc	r0, r0, r0, lsl #6
     8f4:	00009f78 	andeq	r9, r0, r8, ror pc
	...
     904:	00040000 	andeq	r0, r4, r0
     908:	00010000 	andeq	r0, r1, r0
     90c:	00000452 	andeq	r0, r0, r2, asr r4
     910:	00001800 	andeq	r1, r0, r0, lsl #16
     914:	f3000400 	vshl.u8	d0, d0, d0
     918:	009f5201 	addseq	r5, pc, r1, lsl #4
     91c:	00000000 	andeq	r0, r0, r0
     920:	02000000 	andeq	r0, r0, #0, 0
     924:	01010000 	mrseq	r0, (UNDEF: 1)
     928:	00000000 	andeq	r0, r0, r0
     92c:	08000000 	stmdaeq	r0, {}	; <UNPREDICTABLE>
     930:	01000000 	mrseq	r0, (UNDEF: 0)
     934:	00085000 	andeq	r5, r8, r0
     938:	00100000 	andseq	r0, r0, r0
     93c:	00010000 	andeq	r0, r1, r0
     940:	00001053 	andeq	r1, r0, r3, asr r0
     944:	00001400 	andeq	r1, r0, r0, lsl #8
     948:	73000300 	movwvc	r0, #768	; 0x300
     94c:	00149f01 	andseq	r9, r4, r1, lsl #30
     950:	00180000 	andseq	r0, r8, r0
     954:	00010000 	andeq	r0, r1, r0
     958:	00000053 	andeq	r0, r0, r3, asr r0
     95c:	00000000 	andeq	r0, r0, r0
     960:	04000000 	streq	r0, [r0], #-0
     964:	18000000 	stmdane	r0, {}	; <UNPREDICTABLE>
     968:	01000000 	mrseq	r0, (UNDEF: 0)
     96c:	00005200 	andeq	r5, r0, r0, lsl #4
	...
     97c:	0000002c 	andeq	r0, r0, ip, lsr #32
     980:	00000038 	andeq	r0, r0, r8, lsr r0
     984:	38500001 	ldmdacc	r0, {r0}^
     988:	48000000 	stmdami	r0, {}	; <UNPREDICTABLE>
     98c:	01000000 	mrseq	r0, (UNDEF: 0)
     990:	00485400 	subeq	r5, r8, r0, lsl #8
     994:	00580000 	subseq	r0, r8, r0
     998:	00010000 	andeq	r0, r1, r0
     99c:	00000050 	andeq	r0, r0, r0, asr r0
     9a0:	00000000 	andeq	r0, r0, r0
     9a4:	01010000 	mrseq	r0, (UNDEF: 1)
     9a8:	00000000 	andeq	r0, r0, r0
     9ac:	00000800 	andeq	r0, r0, r0, lsl #16
     9b0:	50000100 	andpl	r0, r0, r0, lsl #2
     9b4:	00000008 	andeq	r0, r0, r8
     9b8:	00000034 	andeq	r0, r0, r4, lsr r0
     9bc:	00540001 	subseq	r0, r4, r1
	...
     9cc:	00028800 	andeq	r8, r2, r0, lsl #16
     9d0:	0002b800 	andeq	fp, r2, r0, lsl #16
     9d4:	50000100 	andpl	r0, r0, r0, lsl #2
     9d8:	000002b8 			; <UNDEFINED> instruction: 0x000002b8
     9dc:	00000704 	andeq	r0, r0, r4, lsl #14
     9e0:	04590001 	ldrbeq	r0, [r9], #-1
     9e4:	40000007 	andmi	r0, r0, r7
     9e8:	04000007 	streq	r0, [r0], #-7
     9ec:	5001f300 	andpl	pc, r1, r0, lsl #6
     9f0:	0000009f 	muleq	r0, pc, r0	; <UNPREDICTABLE>
	...
     9fc:	88000000 	stmdahi	r0, {}	; <UNPREDICTABLE>
     a00:	a0000002 	andge	r0, r0, r2
     a04:	01000002 	tsteq	r0, r2
     a08:	02a05100 	adceq	r5, r0, #0
     a0c:	02b80000 	adcseq	r0, r8, #0, 0
     a10:	00030000 	andeq	r0, r3, r0
     a14:	b89f0171 	ldmlt	pc, {r0, r4, r5, r6, r8}	; <UNPREDICTABLE>
     a18:	40000002 	andmi	r0, r0, r2
     a1c:	04000007 	streq	r0, [r0], #-7
     a20:	5101f300 	mrspl	pc, SP_irq	; <UNPREDICTABLE>
     a24:	0000009f 	muleq	r0, pc, r0	; <UNPREDICTABLE>
	...
     a38:	00028800 	andeq	r8, r2, r0, lsl #16
     a3c:	0002b800 	andeq	fp, r2, r0, lsl #16
     a40:	52000100 	andpl	r0, r0, #0
     a44:	000002b8 			; <UNDEFINED> instruction: 0x000002b8
     a48:	000003ec 	andeq	r0, r0, ip, ror #7
     a4c:	ec560001 	mrrc	0, 0, r0, r6, cr1
     a50:	b8000003 	stmdalt	r0, {r0, r1}
     a54:	01000004 	tsteq	r0, r4
     a58:	04b85b00 	ldrteq	r5, [r8], #2816	; 0xb00
     a5c:	04d80000 	ldrbeq	r0, [r8], #0
     a60:	00010000 	andeq	r0, r1, r0
     a64:	0004d856 	andeq	sp, r4, r6, asr r8
     a68:	00055c00 	andeq	r5, r5, r0, lsl #24
     a6c:	5b000100 	blpl	e74 <__code_start__-0x718c>
     a70:	0000055c 	andeq	r0, r0, ip, asr r5
     a74:	00000704 	andeq	r0, r0, r4, lsl #14
     a78:	00560001 	subseq	r0, r6, r1
     a7c:	00000000 	andeq	r0, r0, r0
     a80:	01000000 	mrseq	r0, (UNDEF: 0)
     a84:	00000000 	andeq	r0, r0, r0
     a88:	01010000 	mrseq	r0, (UNDEF: 1)
     a8c:	00000000 	andeq	r0, r0, r0
     a90:	02020000 	andeq	r0, r2, #0, 0
     a94:	9c000000 	stcls	0, cr0, [r0], {-0}
     a98:	b8000002 	stmdalt	r0, {r1}
     a9c:	01000002 	tsteq	r0, r2
     aa0:	02b85000 	adcseq	r5, r8, #0, 0
     aa4:	02bc0000 	adcseq	r0, ip, #0, 0
     aa8:	00010000 	andeq	r0, r1, r0
     aac:	0002bc54 	andeq	fp, r2, r4, asr ip
     ab0:	0002c000 	andeq	ip, r2, r0
     ab4:	74000300 	strvc	r0, [r0], #-768	; 0xfffffd00
     ab8:	02c09f01 	sbceq	r9, r0, #1, 30
     abc:	02e40000 	rsceq	r0, r4, #0, 0
     ac0:	00010000 	andeq	r0, r1, r0
     ac4:	0002e454 	andeq	lr, r2, r4, asr r4
     ac8:	0002e800 	andeq	lr, r2, r0, lsl #16
     acc:	74000300 	strvc	r0, [r0], #-768	; 0xfffffd00
     ad0:	02e89f01 	rsceq	r9, r8, #1, 30
     ad4:	06d40000 	ldrbeq	r0, [r4], r0
     ad8:	00010000 	andeq	r0, r1, r0
     adc:	0006d454 	andeq	sp, r6, r4, asr r4
     ae0:	0006d800 	andeq	sp, r6, r0, lsl #16
     ae4:	74000300 	strvc	r0, [r0], #-768	; 0xfffffd00
     ae8:	06d89f01 	ldrbeq	r9, [r8], r1, lsl #30
     aec:	06f00000 	ldrbteq	r0, [r0], r0
     af0:	00010000 	andeq	r0, r1, r0
     af4:	0006f054 	andeq	pc, r6, r4, asr r0	; <UNPREDICTABLE>
     af8:	0006f800 	andeq	pc, r6, r0, lsl #16
     afc:	74000300 	strvc	r0, [r0], #-768	; 0xfffffd00
     b00:	06f89f01 	ldrbteq	r9, [r8], r1, lsl #30
     b04:	07040000 	streq	r0, [r4, -r0]
     b08:	00010000 	andeq	r0, r1, r0
     b0c:	00000054 	andeq	r0, r0, r4, asr r0
	...
     b18:	0002a400 	andeq	sl, r2, r0, lsl #8
     b1c:	00070400 	andeq	r0, r7, r0, lsl #8
     b20:	58000100 	stmdapl	r0, {r8}
     b24:	00000704 	andeq	r0, r0, r4, lsl #14
     b28:	00000740 	andeq	r0, r0, r0, asr #14
     b2c:	01f3000a 	mvnseq	r0, sl
     b30:	5001f351 	andpl	pc, r1, r1, asr r3	; <UNPREDICTABLE>
     b34:	9f1c3122 	svcls	0x001c3122
	...
     b40:	00000001 	andeq	r0, r0, r1
     b44:	04080000 	streq	r0, [r8], #-0
     b48:	04740000 	ldrbteq	r0, [r4], #-0
     b4c:	00010000 	andeq	r0, r1, r0
     b50:	0004d857 	andeq	sp, r4, r7, asr r8
     b54:	0004fc00 	andeq	pc, r4, r0, lsl #24
     b58:	57000100 	strpl	r0, [r0, -r0, lsl #2]
     b5c:	00000540 	andeq	r0, r0, r0, asr #10
     b60:	0000055c 	andeq	r0, r0, ip, asr r5
     b64:	00570001 	subseq	r0, r7, r1
     b68:	00000000 	andeq	r0, r0, r0
     b6c:	02000000 	andeq	r0, r0, #0, 0
     b70:	08000000 	stmdaeq	r0, {}	; <UNPREDICTABLE>
     b74:	b8000004 	stmdalt	r0, {r2}
     b78:	01000004 	tsteq	r0, r4
     b7c:	04d85a00 	ldrbeq	r5, [r8], #2560	; 0xa00
     b80:	055c0000 	ldrbeq	r0, [ip, #-0]
     b84:	00010000 	andeq	r0, r1, r0
     b88:	0000005a 	andeq	r0, r0, sl, asr r0
     b8c:	00000000 	andeq	r0, r0, r0
     b90:	00000100 	andeq	r0, r0, r0, lsl #2
     b94:	0002ac00 	andeq	sl, r2, r0, lsl #24
     b98:	0002b800 	andeq	fp, r2, r0, lsl #16
     b9c:	52000100 	andpl	r0, r0, #0
     ba0:	000002b8 			; <UNDEFINED> instruction: 0x000002b8
     ba4:	00000740 	andeq	r0, r0, r0, asr #14
     ba8:	c8910003 	ldmgt	r1, {r0, r1}
     bac:	0000007d 	andeq	r0, r0, sp, ror r0
	...
     bbc:	01010000 	mrseq	r0, (UNDEF: 1)
	...
     bc8:	74000000 	strvc	r0, [r0], #-0
     bcc:	8c000004 	stchi	0, cr0, [r0], {4}
     bd0:	01000004 	tsteq	r0, r4
     bd4:	048c5000 	streq	r5, [ip], #0
     bd8:	04b80000 	ldrteq	r0, [r8], #0
     bdc:	00010000 	andeq	r0, r1, r0
     be0:	0004fc57 	andeq	pc, r4, r7, asr ip	; <UNPREDICTABLE>
     be4:	00051400 	andeq	r1, r5, r0, lsl #8
     be8:	50000100 	andpl	r0, r0, r0, lsl #2
     bec:	00000514 	andeq	r0, r0, r4, lsl r5
     bf0:	00000540 	andeq	r0, r0, r0, asr #10
     bf4:	a4570001 	ldrbge	r0, [r7], #-1
     bf8:	a4000005 	strge	r0, [r0], #-5
     bfc:	01000005 	tsteq	r0, r5
     c00:	05a45000 	streq	r5, [r4, #0]!
     c04:	05ac0000 	streq	r0, [ip, #0]!
     c08:	00010000 	andeq	r0, r1, r0
     c0c:	0005dc57 	andeq	sp, r5, r7, asr ip
     c10:	0005e000 	andeq	lr, r5, r0
     c14:	50000100 	andpl	r0, r0, r0, lsl #2
     c18:	00000610 	andeq	r0, r0, r0, lsl r6
     c1c:	00000614 	andeq	r0, r0, r4, lsl r6
     c20:	44500001 	ldrbmi	r0, [r0], #-1
     c24:	48000006 	stmdami	r0, {r1, r2}
     c28:	01000006 	tsteq	r0, r6
     c2c:	068c5000 	streq	r5, [ip], r0
     c30:	06900000 	ldreq	r0, [r0], r0
     c34:	00010000 	andeq	r0, r1, r0
     c38:	0006d050 	andeq	sp, r6, r0, asr r0
     c3c:	0006f000 	andeq	pc, r6, r0
     c40:	57000100 	strpl	r0, [r0, -r0, lsl #2]
	...
     c4c:	00000002 	andeq	r0, r0, r2
     c50:	02f40000 	rscseq	r0, r4, #0, 0
     c54:	02f80000 	rscseq	r0, r8, #0, 0
     c58:	00020000 	andeq	r0, r2, r0
     c5c:	02f89f30 	rscseq	r9, r8, #48, 30	; 0xc0
     c60:	03140000 	tsteq	r4, #0, 0
     c64:	00010000 	andeq	r0, r1, r0
     c68:	00031c55 	andeq	r1, r3, r5, asr ip
     c6c:	0006f000 	andeq	pc, r6, r0
     c70:	55000100 	strpl	r0, [r0, #-256]	; 0xffffff00
	...
     c7c:	00000001 	andeq	r0, r0, r1
     c80:	00000000 	andeq	r0, r0, r0
     c84:	03b80000 			; <UNDEFINED> instruction: 0x03b80000
     c88:	04540000 	ldrbeq	r0, [r4], #-0
     c8c:	00010000 	andeq	r0, r1, r0
     c90:	00045456 	andeq	r5, r4, r6, asr r4
     c94:	0004b800 	andeq	fp, r4, r0, lsl #16
     c98:	7b000300 	blvc	18a0 <__code_start__-0x6760>
     c9c:	04b89f7e 	ldrteq	r9, [r8], #3966	; 0xf7e
     ca0:	04dc0000 	ldrbeq	r0, [ip], #0
     ca4:	00010000 	andeq	r0, r1, r0
     ca8:	0004dc56 	andeq	sp, r4, r6, asr ip
     cac:	00054000 	andeq	r4, r5, r0
     cb0:	7b000300 	blvc	18b8 <__code_start__-0x6748>
     cb4:	05409f7e 	strbeq	r9, [r0, #-3966]	; 0xfffff082
     cb8:	055c0000 	ldrbeq	r0, [ip, #-0]
     cbc:	00010000 	andeq	r0, r1, r0
     cc0:	00000056 	andeq	r0, r0, r6, asr r0
	...
     ccc:	70000000 	andvc	r0, r0, r0
     cd0:	94000000 	strls	r0, [r0], #-0
     cd4:	01000000 	mrseq	r0, (UNDEF: 0)
     cd8:	00945000 	addseq	r5, r4, r0
     cdc:	00fc0000 	rscseq	r0, ip, r0
     ce0:	00030000 	andeq	r0, r3, r0
     ce4:	fc9f0270 	ldc2	2, cr0, [pc], {112}	; 0x70
     ce8:	24000000 	strcs	r0, [r0], #-0
     cec:	04000002 	streq	r0, [r0], #-2
     cf0:	5001f300 	andpl	pc, r1, r0, lsl #6
     cf4:	0000009f 	muleq	r0, pc, r0	; <UNPREDICTABLE>
	...
     d0c:	00007000 	andeq	r7, r0, r0
     d10:	0000e000 	andeq	lr, r0, r0
     d14:	51000100 	mrspl	r0, (UNDEF: 16)
     d18:	000000e0 	andeq	r0, r0, r0, ror #1
     d1c:	00000154 	andeq	r0, r0, r4, asr r1
     d20:	54550001 	ldrbpl	r0, [r5], #-1
     d24:	58000001 	stmdapl	r0, {r0}
     d28:	01000001 	tsteq	r0, r1
     d2c:	01585100 	cmpeq	r8, r0, lsl #2
     d30:	01b00000 	movseq	r0, r0
     d34:	00010000 	andeq	r0, r1, r0
     d38:	0001b055 	andeq	fp, r1, r5, asr r0
     d3c:	0001c000 	andeq	ip, r1, r0
     d40:	51000100 	mrspl	r0, (UNDEF: 16)
     d44:	000001c0 	andeq	r0, r0, r0, asr #3
     d48:	000001e4 	andeq	r0, r0, r4, ror #3
     d4c:	e4550001 	ldrb	r0, [r5], #-1
     d50:	f8000001 			; <UNDEFINED> instruction: 0xf8000001
     d54:	01000001 	tsteq	r0, r1
     d58:	01f85100 	mvnseq	r5, r0, lsl #2
     d5c:	02240000 	eoreq	r0, r4, #0, 0
     d60:	00010000 	andeq	r0, r1, r0
     d64:	00000055 	andeq	r0, r0, r5, asr r0
	...
     d70:	00007000 	andeq	r7, r0, r0
     d74:	00008400 	andeq	r8, r0, r0, lsl #8
     d78:	52000100 	andpl	r0, r0, #0
     d7c:	00000084 	andeq	r0, r0, r4, lsl #1
     d80:	00000224 	andeq	r0, r0, r4, lsr #4
     d84:	00540001 	subseq	r0, r4, r1
	...
     d94:	00000001 	andeq	r0, r0, r1
     d98:	70000000 	andvc	r0, r0, r0
     d9c:	f4000000 	vst4.8	{d0-d3}, [r0], r0
     da0:	01000000 	mrseq	r0, (UNDEF: 0)
     da4:	014c5300 	mrseq	r5, SPSR_mon
     da8:	01800000 	orreq	r0, r0, r0
     dac:	00010000 	andeq	r0, r1, r0
     db0:	00018053 	andeq	r8, r1, r3, asr r0
     db4:	00018c00 	andeq	r8, r1, r0, lsl #24
     db8:	f3000400 	vshl.u8	d0, d0, d0
     dbc:	b09f5301 	addslt	r5, pc, r1, lsl #6
     dc0:	e8000001 	stmda	r0, {r0}
     dc4:	01000001 	tsteq	r0, r1
     dc8:	01e85300 	mvneq	r5, r0, lsl #6
     dcc:	01ff0000 	mvnseq	r0, r0
     dd0:	00010000 	andeq	r0, r1, r0
     dd4:	0001ff5c 	andeq	pc, r1, ip, asr pc	; <UNPREDICTABLE>
     dd8:	00022400 	andeq	r2, r2, r0, lsl #8
     ddc:	f3000400 	vshl.u8	d0, d0, d0
     de0:	009f5301 	addseq	r5, pc, r1, lsl #6
	...
     df0:	00007000 	andeq	r7, r0, r0
     df4:	00008c00 	andeq	r8, r0, r0, lsl #24
     df8:	91000200 	mrsls	r0, R8_usr
     dfc:	00008c00 	andeq	r8, r0, r0, lsl #24
     e00:	00019300 	andeq	r9, r1, r0, lsl #6
     e04:	52000100 	andpl	r0, r0, #0
     e08:	000001b0 			; <UNDEFINED> instruction: 0x000001b0
     e0c:	000001f4 	strdeq	r0, [r0], -r4
     e10:	00520001 	subseq	r0, r2, r1
     e14:	00000000 	andeq	r0, r0, r0
     e18:	01000000 	mrseq	r0, (UNDEF: 0)
     e1c:	01010000 	mrseq	r0, (UNDEF: 1)
	...
     e28:	01010101 	tsteq	r1, r1, lsl #2
     e2c:	01010000 	mrseq	r0, (UNDEF: 1)
	...
     e38:	8c000000 	stchi	0, cr0, [r0], {-0}
     e3c:	fc000000 	stc2	0, cr0, [r0], {-0}
     e40:	04000000 	streq	r0, [r0], #-0
     e44:	7fa09100 	svcvc	0x00a09100
     e48:	0000fc9f 	muleq	r0, pc, ip	; <UNPREDICTABLE>
     e4c:	00013c00 	andeq	r3, r1, r0, lsl #24
     e50:	50000100 	andpl	r0, r0, r0, lsl #2
     e54:	0000013c 	andeq	r0, r0, ip, lsr r1
     e58:	00000148 	andeq	r0, r0, r8, asr #2
     e5c:	02710003 	rsbseq	r0, r1, #3, 0
     e60:	0001489f 	muleq	r1, pc, r8	; <UNPREDICTABLE>
     e64:	00014c00 	andeq	r4, r1, r0, lsl #24
     e68:	50000100 	andpl	r0, r0, r0, lsl #2
     e6c:	0000014c 	andeq	r0, r0, ip, asr #2
     e70:	00000158 	andeq	r0, r0, r8, asr r1
     e74:	a0910004 	addsge	r0, r1, r4
     e78:	01589f7f 	cmpeq	r8, pc, ror pc
     e7c:	016c0000 	cmneq	ip, r0
     e80:	00010000 	andeq	r0, r1, r0
     e84:	00016c51 	andeq	r6, r1, r1, asr ip
     e88:	00017800 	andeq	r7, r1, r0, lsl #16
     e8c:	71000300 	mrsvc	r0, LR_irq
     e90:	01789f7f 	cmneq	r8, pc, ror pc
     e94:	01840000 	orreq	r0, r4, r0
     e98:	00030000 	andeq	r0, r3, r0
     e9c:	849f0171 	ldrhi	r0, [pc], #369	; ea4 <__code_start__-0x715c>
     ea0:	93000001 	movwls	r0, #1
     ea4:	01000001 	tsteq	r0, r1
     ea8:	01b05000 	movseq	r5, r0
     eac:	01b00000 	movseq	r0, r0
     eb0:	00040000 	andeq	r0, r4, r0
     eb4:	9f7fa091 	svcls	0x007fa091
     eb8:	000001b0 			; <UNDEFINED> instruction: 0x000001b0
     ebc:	000001b8 			; <UNDEFINED> instruction: 0x000001b8
     ec0:	a1910004 	orrsge	r0, r1, r4
     ec4:	01b89f7f 			; <UNDEFINED> instruction: 0x01b89f7f
     ec8:	01bc0000 			; <UNDEFINED> instruction: 0x01bc0000
     ecc:	00010000 	andeq	r0, r1, r0
     ed0:	0001bc50 	andeq	fp, r1, r0, asr ip
     ed4:	0001c000 	andeq	ip, r1, r0
     ed8:	91000400 	tstls	r0, r0, lsl #8
     edc:	c09f7fa0 	addsgt	r7, pc, r0, lsr #31
     ee0:	d4000001 	strle	r0, [r0], #-1
     ee4:	01000001 	tsteq	r0, r1
     ee8:	01d45000 	bicseq	r5, r4, r0
     eec:	01e40000 	mvneq	r0, r0
     ef0:	00030000 	andeq	r0, r3, r0
     ef4:	e49f7f70 	ldr	r7, [pc], #3952	; efc <__code_start__-0x7104>
     ef8:	24000001 	strcs	r0, [r0], #-1
     efc:	04000002 	streq	r0, [r0], #-2
     f00:	7fa09100 	svcvc	0x00a09100
     f04:	0000009f 	muleq	r0, pc, r0	; <UNPREDICTABLE>
	...
     f10:	00000101 	andeq	r0, r0, r1, lsl #2
	...
     f20:	00009000 	andeq	r9, r0, r0
     f24:	0000dc00 	andeq	sp, r0, r0, lsl #24
     f28:	5c000100 	stfpls	f0, [r0], {-0}
     f2c:	000000dc 	ldrdeq	r0, [r0], -ip
     f30:	000000f4 	strdeq	r0, [r0], -r4
     f34:	f4530001 			; <UNDEFINED> instruction: 0xf4530001
     f38:	4c000000 	stcmi	0, cr0, [r0], {-0}
     f3c:	01000001 	tsteq	r0, r1
     f40:	014c5c00 	cmpeq	ip, r0, lsl #24
     f44:	01580000 	cmpeq	r8, r0
     f48:	00010000 	andeq	r0, r1, r0
     f4c:	00015853 	andeq	r5, r1, r3, asr r8
     f50:	00017400 	andeq	r7, r1, r0, lsl #8
     f54:	5c000100 	stfpls	f0, [r0], {-0}
     f58:	000001b0 			; <UNDEFINED> instruction: 0x000001b0
     f5c:	000001c0 	andeq	r0, r0, r0, asr #3
     f60:	c0530001 	subsgt	r0, r3, r1
     f64:	dc000001 	stcle	0, cr0, [r0], {1}
     f68:	01000001 	tsteq	r0, r1
     f6c:	01e45c00 	mvneq	r5, r0, lsl #24
     f70:	01e80000 	mvneq	r0, r0
     f74:	00010000 	andeq	r0, r1, r0
     f78:	0001e853 	andeq	lr, r1, r3, asr r8
     f7c:	0001ff00 	andeq	pc, r1, r0, lsl #30
     f80:	5c000100 	stfpls	f0, [r0], {-0}
     f84:	000001ff 	strdeq	r0, [r0], -pc	; <UNPREDICTABLE>
     f88:	00000224 	andeq	r0, r0, r4, lsr #4
     f8c:	01f30004 	mvnseq	r0, r4
     f90:	00009f53 	andeq	r9, r0, r3, asr pc
     f94:	00000000 	andeq	r0, r0, r0
     f98:	01010000 	mrseq	r0, (UNDEF: 1)
     f9c:	00000001 	andeq	r0, r0, r1
     fa0:	00dc0000 	sbcseq	r0, ip, r0
     fa4:	00f00000 	rscseq	r0, r0, r0
     fa8:	00020000 	andeq	r0, r2, r0
     fac:	00f09f30 	rscseq	r9, r0, r0, lsr pc
     fb0:	00f80000 	rscseq	r0, r8, r0
     fb4:	00020000 	andeq	r0, r2, r0
     fb8:	00fc9f31 	rscseq	r9, ip, r1, lsr pc
     fbc:	014c0000 	mrseq	r0, (UNDEF: 76)
     fc0:	00010000 	andeq	r0, r1, r0
     fc4:	00014c56 	andeq	r4, r1, r6, asr ip
     fc8:	00015400 	andeq	r5, r1, r0, lsl #8
     fcc:	30000200 	andcc	r0, r0, r0, lsl #4
     fd0:	0000009f 	muleq	r0, pc, r0	; <UNPREDICTABLE>
	...
     fdc:	00000101 	andeq	r0, r0, r1, lsl #2
     fe0:	38000101 	stmdacc	r0, {r0, r8}
     fe4:	54000000 	strpl	r0, [r0], #-0
     fe8:	01000000 	mrseq	r0, (UNDEF: 0)
     fec:	00545000 	subseq	r5, r4, r0
     ff0:	00580000 	subseq	r0, r8, r0
     ff4:	00010000 	andeq	r0, r1, r0
     ff8:	00005852 	andeq	r5, r0, r2, asr r8
     ffc:	00006000 	andeq	r6, r0, r0
    1000:	72000300 	andvc	r0, r0, #0, 6
    1004:	00609f01 	rsbeq	r9, r0, r1, lsl #30
    1008:	00640000 	rsbeq	r0, r4, r0
    100c:	00010000 	andeq	r0, r1, r0
    1010:	00006452 	andeq	r6, r0, r2, asr r4
    1014:	00007000 	andeq	r7, r0, r0
    1018:	72000300 	andvc	r0, r0, #0, 6
    101c:	00009f01 	andeq	r9, r0, r1, lsl #30
	...
    1028:	00380000 	eorseq	r0, r8, r0
    102c:	00500000 	subseq	r0, r0, r0
    1030:	00010000 	andeq	r0, r1, r0
    1034:	00005051 	andeq	r5, r0, r1, asr r0
    1038:	00007000 	andeq	r7, r0, r0
    103c:	f3000400 	vshl.u8	d0, d0, d0
    1040:	009f5101 	addseq	r5, pc, r1, lsl #2
	...
    1050:	38000101 	stmdacc	r0, {r0, r8}
    1054:	50000000 	andpl	r0, r0, r0
    1058:	01000000 	mrseq	r0, (UNDEF: 0)
    105c:	00505200 	subseq	r5, r0, r0, lsl #4
    1060:	005c0000 	subseq	r0, ip, r0
    1064:	00010000 	andeq	r0, r1, r0
    1068:	00005c51 	andeq	r5, r0, r1, asr ip
    106c:	00006000 	andeq	r6, r0, r0
    1070:	71000300 	mrsvc	r0, LR_irq
    1074:	00609f01 	rsbeq	r9, r0, r1, lsl #30
    1078:	00700000 	rsbseq	r0, r0, r0
    107c:	00010000 	andeq	r0, r1, r0
    1080:	00000051 	andeq	r0, r0, r1, asr r0
	...
    108c:	00003800 	andeq	r3, r0, r0, lsl #16
    1090:	00004c00 	andeq	r4, r0, r0, lsl #24
    1094:	53000100 	movwpl	r0, #256	; 0x100
    1098:	0000004c 	andeq	r0, r0, ip, asr #32
    109c:	00000068 	andeq	r0, r0, r8, rrx
    10a0:	00530001 	subseq	r0, r3, r1
	...
    10b0:	40000000 	andmi	r0, r0, r0
    10b4:	48000000 	stmdami	r0, {}	; <UNPREDICTABLE>
    10b8:	01000000 	mrseq	r0, (UNDEF: 0)
    10bc:	00485c00 	subeq	r5, r8, r0, lsl #24
    10c0:	004c0000 	subeq	r0, ip, r0
    10c4:	00080000 	andeq	r0, r8, r0
    10c8:	00730072 	rsbseq	r0, r3, r2, ror r0
    10cc:	9f01231c 	svcls	0x0001231c
    10d0:	0000004c 	andeq	r0, r0, ip, asr #32
    10d4:	00000054 	andeq	r0, r0, r4, asr r0
    10d8:	00720009 	rsbseq	r0, r2, r9
    10dc:	1c5301f3 	ldfnee	f0, [r3], {243}	; 0xf3
    10e0:	549f0123 	ldrpl	r0, [pc], #291	; 10e8 <__code_start__-0x6f18>
    10e4:	70000000 	andvc	r0, r0, r0
    10e8:	0a000000 	beq	10f0 <__code_start__-0x6f10>
    10ec:	5201f300 	andpl	pc, r1, #0, 6
    10f0:	1c5301f3 	ldfnee	f0, [r3], {243}	; 0xf3
    10f4:	009f0123 	addseq	r0, pc, r3, lsr #2
    10f8:	00000000 	andeq	r0, r0, r0
    10fc:	01000000 	mrseq	r0, (UNDEF: 0)
    1100:	00004c00 	andeq	r4, r0, r0, lsl #24
    1104:	00007000 	andeq	r7, r0, r0
    1108:	50000100 	andpl	r0, r0, r0, lsl #2
	...
    1114:	00010100 	andeq	r0, r1, r0, lsl #2
    1118:	00140000 	andseq	r0, r4, r0
    111c:	001c0000 	andseq	r0, ip, r0
    1120:	00010000 	andeq	r0, r1, r0
    1124:	00001c50 	andeq	r1, r0, r0, asr ip
    1128:	00002400 	andeq	r2, r0, r0, lsl #8
    112c:	70000300 	andvc	r0, r0, r0, lsl #6
    1130:	00249f01 	eoreq	r9, r4, r1, lsl #30
    1134:	00380000 	eorseq	r0, r8, r0
    1138:	00010000 	andeq	r0, r1, r0
    113c:	00000050 	andeq	r0, r0, r0, asr r0
	...
    1148:	00001400 	andeq	r1, r0, r0, lsl #8
    114c:	00001800 	andeq	r1, r0, r0, lsl #16
    1150:	51000100 	mrspl	r0, (UNDEF: 16)
    1154:	00000018 	andeq	r0, r0, r8, lsl r0
    1158:	00000038 	andeq	r0, r0, r8, lsr r0
    115c:	01f30004 	mvnseq	r0, r4
    1160:	00009f51 	andeq	r9, r0, r1, asr pc
	...
    116c:	00000018 	andeq	r0, r0, r8, lsl r0
    1170:	00000038 	andeq	r0, r0, r8, lsr r0
    1174:	00510001 	subseq	r0, r1, r1
	...
    1188:	00000400 	andeq	r0, r0, r0, lsl #8
    118c:	50000100 	andpl	r0, r0, r0, lsl #2
    1190:	00000004 	andeq	r0, r0, r4
    1194:	0000000c 	andeq	r0, r0, ip
    1198:	30700003 	rsbscc	r0, r0, r3
    119c:	00000c9f 	muleq	r0, pc, ip	; <UNPREDICTABLE>
    11a0:	00001400 	andeq	r1, r0, r0, lsl #8
    11a4:	f3000400 	vshl.u8	d0, d0, d0
    11a8:	009f5001 	addseq	r5, pc, r1
	...
    11b4:	24000000 	strcs	r0, [r0], #-0
    11b8:	68000002 	stmdavs	r0, {r1}
    11bc:	01000002 	tsteq	r0, r2
    11c0:	02685000 	rsbeq	r5, r8, #0, 0
    11c4:	02880000 	addeq	r0, r8, #0, 0
    11c8:	00040000 	andeq	r0, r4, r0
    11cc:	9f5001f3 	svcls	0x005001f3
	...
    11dc:	00000224 	andeq	r0, r0, r4, lsr #4
    11e0:	00000264 	andeq	r0, r0, r4, ror #4
    11e4:	64510001 	ldrbvs	r0, [r1], #-1
    11e8:	88000002 	stmdahi	r0, {r1}
    11ec:	04000002 	streq	r0, [r0], #-2
    11f0:	5101f300 	mrspl	pc, SP_irq	; <UNPREDICTABLE>
    11f4:	0000009f 	muleq	r0, pc, r0	; <UNPREDICTABLE>
    11f8:	00000000 	andeq	r0, r0, r0
    11fc:	01010000 	mrseq	r0, (UNDEF: 1)
    1200:	0c000000 	stceq	0, cr0, [r0], {-0}
    1204:	14000000 	strne	r0, [r0], #-0
    1208:	01000000 	mrseq	r0, (UNDEF: 0)
    120c:	00145300 	andseq	r5, r4, r0, lsl #6
    1210:	001c0000 	andseq	r0, ip, r0
    1214:	00030000 	andeq	r0, r3, r0
    1218:	1c9f0473 	cfldrsne	mvf0, [pc], {115}	; 0x73
    121c:	23000000 	movwcs	r0, #0
    1220:	01000000 	mrseq	r0, (UNDEF: 0)
    1224:	00005300 	andeq	r5, r0, r0, lsl #6
    1228:	00000000 	andeq	r0, r0, r0
    122c:	00010000 	andeq	r0, r1, r0
    1230:	00009254 	andeq	r9, r0, r4, asr r2
    1234:	00009270 	andeq	r9, r0, r0, ror r2
    1238:	1c0c0006 	stcne	0, cr0, [ip], {6}
    123c:	9f201000 	svcls	0x00201000
	...
    1248:	92540002 	subsls	r0, r4, #2, 0
    124c:	92700000 	rsbsls	r0, r0, #0, 0
    1250:	00060000 	andeq	r0, r6, r0
    1254:	1000240c 	andne	r2, r0, ip, lsl #8
    1258:	00009f20 	andeq	r9, r0, r0, lsr #30
    125c:	00000000 	andeq	r0, r0, r0
    1260:	00030000 	andeq	r0, r3, r0
    1264:	00009254 	andeq	r9, r0, r4, asr r2
    1268:	00009270 	andeq	r9, r0, r0, ror r2
    126c:	b4080005 	strlt	r0, [r8], #-5
    1270:	009f2447 	addseq	r2, pc, r7, asr #8
    1274:	00000000 	andeq	r0, r0, r0
    1278:	04000000 	streq	r0, [r0], #-0
    127c:	00925400 	addseq	r5, r2, r0, lsl #8
    1280:	00927000 	addseq	r7, r2, r0
    1284:	08000300 	stmdaeq	r0, {r8, r9}
    1288:	00009f20 	andeq	r9, r0, r0, lsr #30
    128c:	00000000 	andeq	r0, r0, r0
    1290:	00020000 	andeq	r0, r2, r0
    1294:	00000000 	andeq	r0, r0, r0
    1298:	00009220 	andeq	r9, r0, r0, lsr #4
    129c:	00009224 	andeq	r9, r0, r4, lsr #4
    12a0:	9f300002 	svcls	0x00300002
    12a4:	00009224 	andeq	r9, r0, r4, lsr #4
    12a8:	00009228 	andeq	r9, r0, r8, lsr #4
    12ac:	2c530001 	mrrccs	0, 0, r0, r3, cr1
    12b0:	34000092 	strcc	r0, [r0], #-146	; 0xffffff6e
    12b4:	01000092 	swpeq	r0, r2, [r0]	; <UNPREDICTABLE>
    12b8:	00005300 	andeq	r5, r0, r0, lsl #6
    12bc:	00000000 	andeq	r0, r0, r0
    12c0:	00020000 	andeq	r0, r2, r0
    12c4:	92080000 	andls	r0, r8, #0, 0
    12c8:	920c0000 	andls	r0, ip, #0, 0
    12cc:	00020000 	andeq	r0, r2, r0
    12d0:	920c9f30 	andls	r9, ip, #48, 30	; 0xc0
    12d4:	92100000 	andsls	r0, r0, #0, 0
    12d8:	00010000 	andeq	r0, r1, r0
    12dc:	00000050 	andeq	r0, r0, r0, asr r0
	...
    12e8:	00006c00 	andeq	r6, r0, r0, lsl #24
    12ec:	00007800 	andeq	r7, r0, r0, lsl #16
    12f0:	50000100 	andpl	r0, r0, r0, lsl #2
    12f4:	00000078 	andeq	r0, r0, r8, ror r0
    12f8:	00000084 	andeq	r0, r0, r4, lsl #1
    12fc:	01f30004 	mvnseq	r0, r4
    1300:	00009f50 	andeq	r9, r0, r0, asr pc
	...
    130c:	00540000 	subseq	r0, r4, r0
    1310:	00600000 	rsbeq	r0, r0, r0
    1314:	00010000 	andeq	r0, r1, r0
    1318:	00006050 	andeq	r6, r0, r0, asr r0
    131c:	00006c00 	andeq	r6, r0, r0, lsl #24
    1320:	f3000400 	vshl.u8	d0, d0, d0
    1324:	009f5001 	addseq	r5, pc, r1
	...
    1330:	30000000 	andcc	r0, r0, r0
    1334:	3b000000 	blcc	133c <__code_start__-0x6cc4>
    1338:	01000000 	mrseq	r0, (UNDEF: 0)
    133c:	003b5000 	eorseq	r5, fp, r0
    1340:	00540000 	subseq	r0, r4, r0
    1344:	00010000 	andeq	r0, r1, r0
    1348:	00000055 	andeq	r0, r0, r5, asr r0
    134c:	00000000 	andeq	r0, r0, r0
    1350:	40000000 	andmi	r0, r0, r0
    1354:	54000000 	strpl	r0, [r0], #-0
    1358:	01000000 	mrseq	r0, (UNDEF: 0)
    135c:	00005400 	andeq	r5, r0, r0, lsl #8
	...
    1368:	00000044 	andeq	r0, r0, r4, asr #32
    136c:	00000048 	andeq	r0, r0, r8, asr #32
    1370:	00500001 	subseq	r0, r0, r1
	...
    137c:	24000000 	strcs	r0, [r0], #-0
    1380:	27000000 	strcs	r0, [r0, -r0]
    1384:	01000000 	mrseq	r0, (UNDEF: 0)
    1388:	00275000 	eoreq	r5, r7, r0
    138c:	00300000 	eorseq	r0, r0, r0
    1390:	00010000 	andeq	r0, r1, r0
    1394:	00000054 	andeq	r0, r0, r4, asr r0
	...
    13a0:	00015800 	andeq	r5, r1, r0, lsl #16
    13a4:	00016300 	andeq	r6, r1, r0, lsl #6
    13a8:	50000100 	andpl	r0, r0, r0, lsl #2
    13ac:	00000163 	andeq	r0, r0, r3, ror #2
    13b0:	00000188 	andeq	r0, r0, r8, lsl #3
    13b4:	00540001 	subseq	r0, r4, r1
	...
    13c0:	00014800 	andeq	r4, r1, r0, lsl #16
    13c4:	00015800 	andeq	r5, r1, r0, lsl #16
    13c8:	54000100 	strpl	r0, [r0], #-256	; 0xffffff00
	...
    13dc:	0000000f 	andeq	r0, r0, pc
    13e0:	0f500001 	svceq	0x00500001
    13e4:	20000000 	andcs	r0, r0, r0
    13e8:	01000000 	mrseq	r0, (UNDEF: 0)
    13ec:	00005400 	andeq	r5, r0, r0, lsl #8
	...
    13fc:	000f0000 	andeq	r0, pc, r0
    1400:	00010000 	andeq	r0, r1, r0
    1404:	00000f51 	andeq	r0, r0, r1, asr pc
    1408:	00002000 	andeq	r2, r0, r0
    140c:	55000100 	strpl	r0, [r0, #-256]	; 0xffffff00
	...
    141c:	00000020 	andeq	r0, r0, r0, lsr #32
    1420:	0000002f 	andeq	r0, r0, pc, lsr #32
    1424:	2f500001 	svccs	0x00500001
    1428:	40000000 	andmi	r0, r0, r0
    142c:	01000000 	mrseq	r0, (UNDEF: 0)
    1430:	00005400 	andeq	r5, r0, r0, lsl #8
	...
    143c:	00200000 	eoreq	r0, r0, r0
    1440:	002f0000 	eoreq	r0, pc, r0
    1444:	00010000 	andeq	r0, r1, r0
    1448:	00002f51 	andeq	r2, r0, r1, asr pc
    144c:	00004000 	andeq	r4, r0, r0
    1450:	55000100 	strpl	r0, [r0, #-256]	; 0xffffff00
	...
    1460:	03500000 	cmpeq	r0, #0, 0
    1464:	03980000 	orrseq	r0, r8, #0, 0
    1468:	00010000 	andeq	r0, r1, r0
    146c:	00039850 	andeq	r9, r3, r0, asr r8
    1470:	00039b00 	andeq	r9, r3, r0, lsl #22
    1474:	91000200 	mrsls	r0, R8_usr
    1478:	00039b68 	andeq	r9, r3, r8, ror #22
    147c:	0003b000 	andeq	fp, r3, r0
    1480:	f3000400 	vshl.u8	d0, d0, d0
    1484:	009f5001 	addseq	r5, pc, r1
	...
    14a0:	20000000 	andcs	r0, r0, r0
    14a4:	7b000002 	blvc	14b4 <__code_start__-0x6b4c>
    14a8:	01000002 	tsteq	r0, r2
    14ac:	027b5000 	rsbseq	r5, fp, #0, 0
    14b0:	02840000 	addeq	r0, r4, #0, 0
    14b4:	00040000 	andeq	r0, r4, r0
    14b8:	9f5001f3 	svcls	0x005001f3
    14bc:	00000284 	andeq	r0, r0, r4, lsl #5
    14c0:	0000029c 	muleq	r0, ip, r2
    14c4:	9c500001 	mrrcls	0, 0, r0, r0, cr1	; <UNPREDICTABLE>
    14c8:	a4000002 	strge	r0, [r0], #-2
    14cc:	04000002 	streq	r0, [r0], #-2
    14d0:	5001f300 	andpl	pc, r1, r0, lsl #6
    14d4:	0002a49f 	muleq	r2, pc, r4	; <UNPREDICTABLE>
    14d8:	0002a700 	andeq	sl, r2, r0, lsl #14
    14dc:	50000100 	andpl	r0, r0, r0, lsl #2
    14e0:	000002a7 	andeq	r0, r0, r7, lsr #5
    14e4:	000002c8 	andeq	r0, r0, r8, asr #5
    14e8:	01f30004 	mvnseq	r0, r4
    14ec:	02c89f50 	sbceq	r9, r8, #80, 30	; 0x140
    14f0:	02e00000 	rsceq	r0, r0, #0, 0
    14f4:	00010000 	andeq	r0, r1, r0
    14f8:	0002e050 	andeq	lr, r2, r0, asr r0
    14fc:	0002e800 	andeq	lr, r2, r0, lsl #16
    1500:	f3000400 	vshl.u8	d0, d0, d0
    1504:	e89f5001 	ldm	pc, {r0, ip, lr}	; <UNPREDICTABLE>
    1508:	eb000002 	bl	1518 <__code_start__-0x6ae8>
    150c:	01000002 	tsteq	r0, r2
    1510:	02eb5000 	rsceq	r5, fp, #0, 0
    1514:	03380000 	teqeq	r8, #0, 0
    1518:	00040000 	andeq	r0, r4, r0
    151c:	9f5001f3 	svcls	0x005001f3
	...
    153c:	00000220 	andeq	r0, r0, r0, lsr #4
    1540:	00000244 	andeq	r0, r0, r4, asr #4
    1544:	44510001 	ldrbmi	r0, [r1], #-1
    1548:	68000002 	stmdavs	r0, {r1}
    154c:	01000002 	tsteq	r0, r2
    1550:	02685100 	rsbeq	r5, r8, #0
    1554:	027b0000 	rsbseq	r0, fp, #0, 0
    1558:	00030000 	andeq	r0, r3, r0
    155c:	7b9f0171 	blvc	fe7c1b28 <__bss_end__+0xfe7b75a8>
    1560:	84000002 	strhi	r0, [r0], #-2
    1564:	17000002 	strne	r0, [r0, -r2]
    1568:	01f33800 	mvnseq	r3, r0, lsl #16
    156c:	5101f351 	tstpl	r1, r1, asr r3	; <UNPREDICTABLE>
    1570:	22244b40 	eorcs	r4, r4, #64, 22	; 0x10000
    1574:	0000080c 	andeq	r0, r0, ip, lsl #16
    1578:	01282d80 	smlawbeq	r8, r0, sp, r2
    157c:	9f131600 	svcls	0x00131600
    1580:	00000284 	andeq	r0, r0, r4, lsl #5
    1584:	00000298 	muleq	r0, r8, r2
    1588:	98510001 	ldmdals	r1, {r0}^
    158c:	a4000002 	strge	r0, [r0], #-2
    1590:	04000002 	streq	r0, [r0], #-2
    1594:	5101f300 	mrspl	pc, SP_irq	; <UNPREDICTABLE>
    1598:	0002a49f 	muleq	r2, pc, r4	; <UNPREDICTABLE>
    159c:	0002a700 	andeq	sl, r2, r0, lsl #14
    15a0:	51000100 	mrspl	r0, (UNDEF: 16)
    15a4:	000002a7 	andeq	r0, r0, r7, lsr #5
    15a8:	000002c8 	andeq	r0, r0, r8, asr #5
    15ac:	01f30004 	mvnseq	r0, r4
    15b0:	02c89f51 	sbceq	r9, r8, #324	; 0x144
    15b4:	02dc0000 	sbcseq	r0, ip, #0, 0
    15b8:	00010000 	andeq	r0, r1, r0
    15bc:	0002dc51 	andeq	sp, r2, r1, asr ip
    15c0:	00033800 	andeq	r3, r3, r0, lsl #16
    15c4:	38001700 	stmdacc	r0, {r8, r9, sl, ip}
    15c8:	f35101f3 	vbsl	q8, <illegal reg q8.5>, <illegal reg q9.5>
    15cc:	4b405101 	blmi	10159d8 <__bss_end__+0x100b458>
    15d0:	080c2224 	stmdaeq	ip, {r2, r5, r9, sp}
    15d4:	2d800000 	stccs	0, cr0, [r0]
    15d8:	16000128 	strne	r0, [r0], -r8, lsr #2
    15dc:	00009f13 	andeq	r9, r0, r3, lsl pc
	...
    15f0:	024c0000 	subeq	r0, ip, #0, 0
    15f4:	025c0000 	subseq	r0, ip, #0, 0
    15f8:	00010000 	andeq	r0, r1, r0
    15fc:	00025c52 	andeq	r5, r2, r2, asr ip
    1600:	00026400 	andeq	r6, r2, r0, lsl #8
    1604:	03000500 	movweq	r0, #1280	; 0x500
    1608:	0000a148 	andeq	sl, r0, r8, asr #2
    160c:	00000264 	andeq	r0, r0, r4, ror #4
    1610:	0000027b 	andeq	r0, r0, fp, ror r2
    1614:	c8530001 	ldmdagt	r3, {r0}^
    1618:	d8000002 	stmdale	r0, {r1}
    161c:	01000002 	tsteq	r0, r2
    1620:	02d85200 	sbcseq	r5, r8, #0, 4
    1624:	02e30000 	rsceq	r0, r3, #0, 0
    1628:	00050000 	andeq	r0, r5, r0
    162c:	00a14803 	adceq	r4, r1, r3, lsl #16
    1630:	0002e800 	andeq	lr, r2, r0, lsl #16
    1634:	0002eb00 	andeq	lr, r2, r0, lsl #22
    1638:	53000100 	movwpl	r0, #256	; 0x100
	...
    1644:	02300004 	eorseq	r0, r0, #4, 0
    1648:	02340000 	eorseq	r0, r4, #0, 0
    164c:	00010000 	andeq	r0, r1, r0
    1650:	00000051 	andeq	r0, r0, r1, asr r0
    1654:	00000000 	andeq	r0, r0, r0
    1658:	3c000200 	sfmcc	f0, 4, [r0], {-0}
    165c:	44000002 	strmi	r0, [r0], #-2
    1660:	02000002 	andeq	r0, r0, #2, 0
    1664:	009f3800 	addseq	r3, pc, r0, lsl #16
    1668:	00000000 	andeq	r0, r0, r0
    166c:	02000000 	andeq	r0, r0, #0, 0
    1670:	00023c00 	andeq	r3, r2, r0, lsl #24
    1674:	00024400 	andeq	r4, r2, r0, lsl #8
    1678:	51000100 	mrspl	r0, (UNDEF: 16)
	...
    1684:	00000001 	andeq	r0, r0, r1
    1688:	024c0000 	subeq	r0, ip, #0, 0
    168c:	02640000 	rsbeq	r0, r4, #0, 0
    1690:	00010000 	andeq	r0, r1, r0
    1694:	0002c851 	andeq	ip, r2, r1, asr r8
    1698:	0002dc00 	andeq	sp, r2, r0, lsl #24
    169c:	51000100 	mrspl	r0, (UNDEF: 16)
    16a0:	000002dc 	ldrdeq	r0, [r0], -ip
    16a4:	000002e8 	andeq	r0, r0, r8, ror #5
    16a8:	f3380017 	vqadd.u64	d0, d8, d7
    16ac:	01f35101 	mvnseq	r5, r1, lsl #2
    16b0:	244b4051 	strbcs	r4, [fp], #-81	; 0xffffffaf
    16b4:	00080c22 	andeq	r0, r8, r2, lsr #24
    16b8:	282d8000 	stmdacs	sp!, {pc}
    16bc:	13160001 	tstne	r6, #1, 0
    16c0:	0000009f 	muleq	r0, pc, r0	; <UNPREDICTABLE>
    16c4:	00000000 	andeq	r0, r0, r0
    16c8:	00000100 	andeq	r0, r0, r0, lsl #2
    16cc:	00000000 	andeq	r0, r0, r0
    16d0:	00024c00 	andeq	r4, r2, r0, lsl #24
    16d4:	00025c00 	andeq	r5, r2, r0, lsl #24
    16d8:	52000100 	andpl	r0, r0, #0
    16dc:	0000025c 	andeq	r0, r0, ip, asr r2
    16e0:	00000264 	andeq	r0, r0, r4, ror #4
    16e4:	48030005 	stmdami	r3, {r0, r2}
    16e8:	c80000a1 	stmdagt	r0, {r0, r5, r7}
    16ec:	d8000002 	stmdale	r0, {r1}
    16f0:	01000002 	tsteq	r0, r2
    16f4:	02d85200 	sbcseq	r5, r8, #0, 4
    16f8:	02e30000 	rsceq	r0, r3, #0, 0
    16fc:	00050000 	andeq	r0, r5, r0
    1700:	00a14803 	adceq	r4, r1, r3, lsl #16
	...
    170c:	4c000400 	cfstrsmi	mvf0, [r0], {-0}
    1710:	50000002 	andpl	r0, r0, r2
    1714:	01000002 	tsteq	r0, r2
    1718:	00005100 	andeq	r5, r0, r0, lsl #2
    171c:	00000000 	andeq	r0, r0, r0
    1720:	00030000 	andeq	r0, r3, r0
    1724:	00000264 	andeq	r0, r0, r4, ror #4
    1728:	00000268 	andeq	r0, r0, r8, ror #4
    172c:	00510001 	subseq	r0, r1, r1
    1730:	00000000 	andeq	r0, r0, r0
    1734:	03000000 	movweq	r0, #0
    1738:	00026400 	andeq	r6, r2, r0, lsl #8
    173c:	00026800 	andeq	r6, r2, r0, lsl #16
    1740:	53000100 	movwpl	r0, #256	; 0x100
	...
    1754:	000001bc 			; <UNDEFINED> instruction: 0x000001bc
    1758:	000001d3 	ldrdeq	r0, [r0], -r3
    175c:	d3500001 	cmple	r0, #1, 0
    1760:	f0000001 			; <UNDEFINED> instruction: 0xf0000001
    1764:	01000001 	tsteq	r0, r1
    1768:	01f05400 	mvnseq	r5, r0, lsl #8
    176c:	02080000 	andeq	r0, r8, #0, 0
    1770:	00010000 	andeq	r0, r1, r0
    1774:	00020850 	andeq	r0, r2, r0, asr r8
    1778:	00022000 	andeq	r2, r2, r0
    177c:	54000100 	strpl	r0, [r0], #-256	; 0xffffff00
	...
    178c:	000001d8 	ldrdeq	r0, [r0], -r8
    1790:	000001e3 	andeq	r0, r0, r3, ror #3
    1794:	e3500001 	cmp	r0, #1, 0
    1798:	f0000001 			; <UNDEFINED> instruction: 0xf0000001
    179c:	01000001 	tsteq	r0, r1
    17a0:	00005500 	andeq	r5, r0, r0, lsl #10
	...
    17b8:	01240000 			; <UNDEFINED> instruction: 0x01240000
    17bc:	01380000 	teqeq	r8, r0
    17c0:	00010000 	andeq	r0, r1, r0
    17c4:	00013850 	andeq	r3, r1, r0, asr r8
    17c8:	00013c00 	andeq	r3, r1, r0, lsl #24
    17cc:	70000300 	andvc	r0, r0, r0, lsl #6
    17d0:	013c9f79 	teqeq	ip, r9, ror pc
    17d4:	01600000 	cmneq	r0, r0
    17d8:	00010000 	andeq	r0, r1, r0
    17dc:	00016053 	andeq	r6, r1, r3, asr r0
    17e0:	00017800 	andeq	r7, r1, r0, lsl #16
    17e4:	50000100 	andpl	r0, r0, r0, lsl #2
    17e8:	00000178 	andeq	r0, r0, r8, ror r1
    17ec:	00000180 	andeq	r0, r0, r0, lsl #3
    17f0:	01f30004 	mvnseq	r0, r4
    17f4:	01809f50 	orreq	r9, r0, r0, asr pc
    17f8:	01900000 	orrseq	r0, r0, r0
    17fc:	00010000 	andeq	r0, r1, r0
    1800:	00019053 	andeq	r9, r1, r3, asr r0
    1804:	00019f00 	andeq	r9, r1, r0, lsl #30
    1808:	91000200 	mrsls	r0, R8_usr
    180c:	00019f68 	andeq	r9, r1, r8, ror #30
    1810:	0001bc00 	andeq	fp, r1, r0, lsl #24
    1814:	f3000900 	vmls.i8	d0, d0, d0
    1818:	07235001 	streq	r5, [r3, -r1]!
    181c:	9f1af809 	svcls	0x001af809
	...
    182c:	01440000 	mrseq	r0, (UNDEF: 68)
    1830:	01600000 	cmneq	r0, r0
    1834:	00010000 	andeq	r0, r1, r0
    1838:	00018050 	andeq	r8, r1, r0, asr r0
    183c:	00019c00 	andeq	r9, r1, r0, lsl #24
    1840:	50000100 	andpl	r0, r0, r0, lsl #2
    1844:	0000019c 	muleq	r0, ip, r1
    1848:	0000019f 	muleq	r0, pc, r1	; <UNPREDICTABLE>
    184c:	48030005 	stmdami	r3, {r0, r2}
    1850:	000000a1 	andeq	r0, r0, r1, lsr #1
    1854:	00000000 	andeq	r0, r0, r0
    1858:	03000000 	movweq	r0, #0
    185c:	00013400 	andeq	r3, r1, r0, lsl #8
    1860:	00013c00 	andeq	r3, r1, r0, lsl #24
    1864:	38000200 	stmdacc	r0, {r9}
    1868:	0000009f 	muleq	r0, pc, r0	; <UNPREDICTABLE>
    186c:	00000000 	andeq	r0, r0, r0
    1870:	00000300 	andeq	r0, r0, r0, lsl #6
    1874:	00013400 	andeq	r3, r1, r0, lsl #8
    1878:	00013800 	andeq	r3, r1, r0, lsl #16
    187c:	50000100 	andpl	r0, r0, r0, lsl #2
    1880:	00000138 	andeq	r0, r0, r8, lsr r1
    1884:	0000013c 	andeq	r0, r0, ip, lsr r1
    1888:	79700003 	ldmdbvc	r0!, {r0, r1}^
    188c:	0000009f 	muleq	r0, pc, r0	; <UNPREDICTABLE>
	...
    18a0:	30000000 	andcc	r0, r0, r0
    18a4:	60000000 	andvs	r0, r0, r0
    18a8:	01000000 	mrseq	r0, (UNDEF: 0)
    18ac:	00605000 	rsbeq	r5, r0, r0
    18b0:	006c0000 	rsbeq	r0, ip, r0
    18b4:	00050000 	andeq	r0, r5, r0
    18b8:	00a14803 	adceq	r4, r1, r3, lsl #16
    18bc:	00006c00 	andeq	r6, r0, r0, lsl #24
    18c0:	00008400 	andeq	r8, r0, r0, lsl #8
    18c4:	50000100 	andpl	r0, r0, r0, lsl #2
    18c8:	00000084 	andeq	r0, r0, r4, lsl #1
    18cc:	0000008c 	andeq	r0, r0, ip, lsl #1
    18d0:	01f30004 	mvnseq	r0, r4
    18d4:	008c9f50 	addeq	r9, ip, r0, asr pc
    18d8:	00ac0000 	adceq	r0, ip, r0
    18dc:	00010000 	andeq	r0, r1, r0
    18e0:	0000ac50 	andeq	sl, r0, r0, asr ip
    18e4:	0000af00 	andeq	sl, r0, r0, lsl #30
    18e8:	91000200 	mrsls	r0, R8_usr
    18ec:	0000af68 	andeq	sl, r0, r8, ror #30
    18f0:	0000cc00 	andeq	ip, r0, r0, lsl #24
    18f4:	f3000400 	vshl.u8	d0, d0, d0
    18f8:	009f5001 	addseq	r5, pc, r1
	...
    1908:	30000000 	andcc	r0, r0, r0
    190c:	80000000 	andhi	r0, r0, r0
    1910:	01000000 	mrseq	r0, (UNDEF: 0)
    1914:	00805100 	addeq	r5, r0, r0, lsl #2
    1918:	008c0000 	addeq	r0, ip, r0
    191c:	00040000 	andeq	r0, r4, r0
    1920:	9f5101f3 	svcls	0x005101f3
    1924:	0000008c 	andeq	r0, r0, ip, lsl #1
    1928:	000000a8 	andeq	r0, r0, r8, lsr #1
    192c:	a8510001 	ldmdage	r1, {r0}^
    1930:	cc000000 	stcgt	0, cr0, [r0], {-0}
    1934:	04000000 	streq	r0, [r0], #-0
    1938:	5101f300 	mrspl	pc, SP_irq	; <UNPREDICTABLE>
    193c:	0000009f 	muleq	r0, pc, r0	; <UNPREDICTABLE>
    1940:	00000000 	andeq	r0, r0, r0
    1944:	00000100 	andeq	r0, r0, r0, lsl #2
	...
    1950:	38000000 	stmdacc	r0, {}	; <UNPREDICTABLE>
    1954:	60000000 	andvs	r0, r0, r0
    1958:	01000000 	mrseq	r0, (UNDEF: 0)
    195c:	00605000 	rsbeq	r5, r0, r0
    1960:	006c0000 	rsbeq	r0, ip, r0
    1964:	00050000 	andeq	r0, r5, r0
    1968:	00a14803 	adceq	r4, r1, r3, lsl #16
    196c:	00006c00 	andeq	r6, r0, r0, lsl #24
    1970:	00008400 	andeq	r8, r0, r0, lsl #8
    1974:	50000100 	andpl	r0, r0, r0, lsl #2
    1978:	00000084 	andeq	r0, r0, r4, lsl #1
    197c:	0000008c 	andeq	r0, r0, ip, lsl #1
    1980:	01f30004 	mvnseq	r0, r4
    1984:	008c9f50 	addeq	r9, ip, r0, asr pc
    1988:	00ac0000 	adceq	r0, ip, r0
    198c:	00010000 	andeq	r0, r1, r0
    1990:	0000ac50 	andeq	sl, r0, r0, asr ip
    1994:	0000af00 	andeq	sl, r0, r0, lsl #30
    1998:	91000200 	mrsls	r0, R8_usr
    199c:	0000af68 	andeq	sl, r0, r8, ror #30
    19a0:	0000cc00 	andeq	ip, r0, r0, lsl #24
    19a4:	f3000400 	vshl.u8	d0, d0, d0
    19a8:	009f5001 	addseq	r5, pc, r1
	...
    19b8:	0b000000 	bleq	19c0 <__code_start__-0x6640>
    19bc:	01000000 	mrseq	r0, (UNDEF: 0)
    19c0:	000b5000 	andeq	r5, fp, r0
    19c4:	00140000 	andseq	r0, r4, r0
    19c8:	00010000 	andeq	r0, r1, r0
    19cc:	00000054 	andeq	r0, r0, r4, asr r0
	...
    19dc:	00001c00 	andeq	r1, r0, r0, lsl #24
    19e0:	51000100 	mrspl	r0, (UNDEF: 16)
    19e4:	0000001c 	andeq	r0, r0, ip, lsl r0
    19e8:	00000034 	andeq	r0, r0, r4, lsr r0
    19ec:	01f30004 	mvnseq	r0, r4
    19f0:	00009f51 	andeq	r9, r0, r1, asr pc
    19f4:	00000000 	andeq	r0, r0, r0
    19f8:	00020000 	andeq	r0, r2, r0
    19fc:	01000000 	mrseq	r0, (UNDEF: 0)
    1a00:	00000001 	andeq	r0, r0, r1
    1a04:	00000000 	andeq	r0, r0, r0
    1a08:	00000004 	andeq	r0, r0, r4
    1a0c:	04500001 	ldrbeq	r0, [r0], #-1
    1a10:	1c000000 	stcne	0, cr0, [r0], {-0}
    1a14:	01000000 	mrseq	r0, (UNDEF: 0)
    1a18:	001c5200 	andseq	r5, ip, r0, lsl #4
    1a1c:	00240000 	eoreq	r0, r4, r0
    1a20:	00010000 	andeq	r0, r1, r0
    1a24:	00002453 	andeq	r2, r0, r3, asr r4
    1a28:	00002800 	andeq	r2, r0, r0, lsl #16
    1a2c:	73000300 	movwvc	r0, #768	; 0x300
    1a30:	00289f01 	eoreq	r9, r8, r1, lsl #30
    1a34:	00340000 	eorseq	r0, r4, r0
    1a38:	00010000 	andeq	r0, r1, r0
    1a3c:	00000053 	andeq	r0, r0, r3, asr r0
    1a40:	00000000 	andeq	r0, r0, r0
    1a44:	00000300 	andeq	r0, r0, r0, lsl #6
    1a48:	00000000 	andeq	r0, r0, r0
    1a4c:	00002400 	andeq	r2, r0, r0, lsl #8
    1a50:	51000100 	mrspl	r0, (UNDEF: 16)
    1a54:	00000024 	andeq	r0, r0, r4, lsr #32
    1a58:	00000034 	andeq	r0, r0, r4, lsr r0
    1a5c:	7f710003 	svcvc	0x00710003
    1a60:	0000009f 	muleq	r0, pc, r0	; <UNPREDICTABLE>
	...
    1a6c:	00001000 	andeq	r1, r0, r0
    1a70:	00001c00 	andeq	r1, r0, r0, lsl #24
    1a74:	5c000100 	stfpls	f0, [r0], {-0}
    1a78:	00000024 	andeq	r0, r0, r4, lsr #32
    1a7c:	00000034 	andeq	r0, r0, r4, lsr r0
    1a80:	00520001 	subseq	r0, r2, r1
	...
    1a90:	18000000 	stmdane	r0, {}	; <UNPREDICTABLE>
    1a94:	01000000 	mrseq	r0, (UNDEF: 0)
    1a98:	00185000 	andseq	r5, r8, r0
    1a9c:	00240000 	eoreq	r0, r4, r0
    1aa0:	00010000 	andeq	r0, r1, r0
    1aa4:	00000050 	andeq	r0, r0, r0, asr r0
	...
    1ab4:	00001c00 	andeq	r1, r0, r0, lsl #24
    1ab8:	51000100 	mrspl	r0, (UNDEF: 16)
    1abc:	0000001c 	andeq	r0, r0, ip, lsl r0
    1ac0:	0000002c 	andeq	r0, r0, ip, lsr #32
    1ac4:	00510001 	subseq	r0, r1, r1
	...
    1ad8:	00000400 	andeq	r0, r0, r0, lsl #8
    1adc:	51000100 	mrspl	r0, (UNDEF: 16)
    1ae0:	00000004 	andeq	r0, r0, r4
    1ae4:	0000000c 	andeq	r0, r0, ip
    1ae8:	0c510001 	mrrceq	0, 0, r0, r1, cr1
    1aec:	20000000 	andcs	r0, r0, r0
    1af0:	03000000 	movweq	r0, #0
    1af4:	9f7f7100 	svcls	0x007f7100
	...
    1b00:	00000002 	andeq	r0, r0, r2
    1b04:	00000000 	andeq	r0, r0, r0
    1b08:	00040000 	andeq	r0, r4, r0
    1b0c:	00010000 	andeq	r0, r1, r0
    1b10:	00000450 	andeq	r0, r0, r0, asr r4
    1b14:	00001400 	andeq	r1, r0, r0, lsl #8
    1b18:	5c000100 	stfpls	f0, [r0], {-0}
    1b1c:	00000014 	andeq	r0, r0, r4, lsl r0
    1b20:	00000020 	andeq	r0, r0, r0, lsr #32
    1b24:	7f7c0003 	svcvc	0x007c0003
    1b28:	0000009f 	muleq	r0, pc, r0	; <UNPREDICTABLE>
    1b2c:	00000000 	andeq	r0, r0, r0
    1b30:	03030000 	movweq	r0, #12288	; 0x3000
    1b34:	00996800 	addseq	r6, r9, r0, lsl #16
    1b38:	00996800 	addseq	r6, r9, r0, lsl #16
    1b3c:	50000100 	andpl	r0, r0, r0, lsl #2
    1b40:	00009968 	andeq	r9, r0, r8, ror #18
    1b44:	00009994 	muleq	r0, r4, r9
    1b48:	01f30004 	mvnseq	r0, r4
    1b4c:	00009f50 	andeq	r9, r0, r0, asr pc
    1b50:	00000000 	andeq	r0, r0, r0
    1b54:	03000000 	movweq	r0, #0
    1b58:	99680003 	stmdbls	r8!, {r0, r1}^
    1b5c:	99680000 	stmdbls	r8!, {}^	; <UNPREDICTABLE>
    1b60:	00010000 	andeq	r0, r1, r0
    1b64:	00996851 	addseq	r6, r9, r1, asr r8
    1b68:	00999400 	addseq	r9, r9, r0, lsl #8
    1b6c:	f3000400 	vshl.u8	d0, d0, d0
    1b70:	009f5101 	addseq	r5, pc, r1, lsl #2
	...
    1b7c:	00000303 	andeq	r0, r0, r3, lsl #6
    1b80:	00996800 	addseq	r6, r9, r0, lsl #16
    1b84:	00996800 	addseq	r6, r9, r0, lsl #16
    1b88:	52000100 	andpl	r0, r0, #0
    1b8c:	00009968 	andeq	r9, r0, r8, ror #18
    1b90:	00009970 	andeq	r9, r0, r0, ror r9
    1b94:	70520001 	subsvc	r0, r2, r1
    1b98:	94000099 	strls	r0, [r0], #-153	; 0xffffff67
    1b9c:	03000099 	movweq	r0, #153	; 0x99
    1ba0:	9f017200 	svcls	0x00017200
	...
    1bac:	00010102 	andeq	r0, r1, r2, lsl #2
    1bb0:	00000000 	andeq	r0, r0, r0
    1bb4:	00009968 	andeq	r9, r0, r8, ror #18
    1bb8:	00009974 	andeq	r9, r0, r4, ror r9
    1bbc:	74500001 	ldrbvc	r0, [r0], #-1
    1bc0:	78000099 	stmdavc	r0, {r0, r3, r4, r7}
    1bc4:	03000099 	movweq	r0, #153	; 0x99
    1bc8:	9f017000 	svcls	0x00017000
    1bcc:	00009978 	andeq	r9, r0, r8, ror r9
    1bd0:	00009988 	andeq	r9, r0, r8, lsl #19
    1bd4:	8c500001 	mrrchi	0, 0, r0, r0, cr1	; <UNPREDICTABLE>
    1bd8:	90000099 	mulls	r0, r9, r0
    1bdc:	01000099 	swpeq	r0, r9, [r0]	; <UNPREDICTABLE>
    1be0:	00005000 	andeq	r5, r0, r0
    1be4:	00000000 	andeq	r0, r0, r0
    1be8:	00020000 	andeq	r0, r2, r0
    1bec:	00000000 	andeq	r0, r0, r0
    1bf0:	00009968 	andeq	r9, r0, r8, ror #18
    1bf4:	00009978 	andeq	r9, r0, r8, ror r9
    1bf8:	78510001 	ldmdavc	r1, {r0}^
    1bfc:	7c000099 	stcvc	0, cr0, [r0], {153}	; 0x99
    1c00:	03000099 	movweq	r0, #153	; 0x99
    1c04:	9f017100 	svcls	0x00017100
    1c08:	0000997c 	andeq	r9, r0, ip, ror r9
    1c0c:	00009994 	muleq	r0, r4, r9
    1c10:	00510001 	subseq	r0, r1, r1
	...
    1c20:	e8000000 	stmda	r0, {}	; <UNPREDICTABLE>
    1c24:	00000000 	andeq	r0, r0, r0
    1c28:	01000001 	tsteq	r0, r1
    1c2c:	01005000 	mrseq	r5, (UNDEF: 0)
    1c30:	01100000 	tsteq	r0, r0
    1c34:	00040000 	andeq	r0, r4, r0
    1c38:	9f5001f3 	svcls	0x005001f3
    1c3c:	00000110 	andeq	r0, r0, r0, lsl r1
    1c40:	00000114 	andeq	r0, r0, r4, lsl r1
    1c44:	14500001 	ldrbne	r0, [r0], #-1
    1c48:	1c000001 	stcne	0, cr0, [r0], {1}
    1c4c:	04000001 	streq	r0, [r0], #-1
    1c50:	5001f300 	andpl	pc, r1, r0, lsl #6
    1c54:	0000009f 	muleq	r0, pc, r0	; <UNPREDICTABLE>
    1c58:	00000000 	andeq	r0, r0, r0
    1c5c:	00000100 	andeq	r0, r0, r0, lsl #2
    1c60:	f4000000 	vst4.8	{d0-d3}, [r0], r0
    1c64:	00000000 	andeq	r0, r0, r0
    1c68:	0b000001 	bleq	1c74 <__code_start__-0x638c>
    1c6c:	35007000 	strcc	r7, [r0, #-0]
    1c70:	80b42325 	adcshi	r2, r4, r5, lsr #6
    1c74:	9f028180 	svcls	0x00028180
    1c78:	00000100 	andeq	r0, r0, r0, lsl #2
    1c7c:	00000103 	andeq	r0, r0, r3, lsl #2
    1c80:	03500001 	cmpeq	r0, #1, 0
    1c84:	10000001 	andne	r0, r0, r1
    1c88:	0c000001 	stceq	0, cr0, [r0], {1}
    1c8c:	5001f300 	andpl	pc, r1, r0, lsl #6
    1c90:	b4232535 	strtlt	r2, [r3], #-1333	; 0xfffffacb
    1c94:	02818080 	addeq	r8, r1, #128, 0	; 0x80
    1c98:	0000009f 	muleq	r0, pc, r0	; <UNPREDICTABLE>
    1c9c:	00000000 	andeq	r0, r0, r0
    1ca0:	f8000000 			; <UNDEFINED> instruction: 0xf8000000
    1ca4:	10000000 	andne	r0, r0, r0
    1ca8:	01000001 	tsteq	r0, r1
    1cac:	00005400 	andeq	r5, r0, r0, lsl #8
	...
    1cbc:	00cc0000 	sbceq	r0, ip, r0
    1cc0:	00db0000 	sbcseq	r0, fp, r0
    1cc4:	00010000 	andeq	r0, r1, r0
    1cc8:	0000db50 	andeq	sp, r0, r0, asr fp
    1ccc:	0000e000 	andeq	lr, r0, r0
    1cd0:	f3000400 	vshl.u8	d0, d0, d0
    1cd4:	e09f5001 	adds	r5, pc, r1
    1cd8:	e3000000 	movw	r0, #0
    1cdc:	01000000 	mrseq	r0, (UNDEF: 0)
    1ce0:	00e35000 	rsceq	r5, r3, r0
    1ce4:	00e80000 	rsceq	r0, r8, r0
    1ce8:	00040000 	andeq	r0, r4, r0
    1cec:	9f5001f3 	svcls	0x005001f3
	...
    1d00:	000000cc 	andeq	r0, r0, ip, asr #1
    1d04:	000000db 	ldrdeq	r0, [r0], -fp
    1d08:	db510001 	blle	1441d14 <__bss_end__+0x1437794>
    1d0c:	e0000000 	and	r0, r0, r0
    1d10:	04000000 	streq	r0, [r0], #-0
    1d14:	5101f300 	mrspl	pc, SP_irq	; <UNPREDICTABLE>
    1d18:	0000e09f 	muleq	r0, pc, r0	; <UNPREDICTABLE>
    1d1c:	0000e300 	andeq	lr, r0, r0, lsl #6
    1d20:	51000100 	mrspl	r0, (UNDEF: 16)
    1d24:	000000e3 	andeq	r0, r0, r3, ror #1
    1d28:	000000e8 	andeq	r0, r0, r8, ror #1
    1d2c:	01f30004 	mvnseq	r0, r4
    1d30:	00009f51 	andeq	r9, r0, r1, asr pc
	...
    1d3c:	00bc0000 	adcseq	r0, ip, r0
    1d40:	00c70000 	sbceq	r0, r7, r0
    1d44:	00010000 	andeq	r0, r1, r0
    1d48:	0000c750 	andeq	ip, r0, r0, asr r7
    1d4c:	0000cc00 	andeq	ip, r0, r0, lsl #24
    1d50:	f3000400 	vshl.u8	d0, d0, d0
    1d54:	009f5001 	addseq	r5, pc, r1
	...
    1d60:	98000000 	stmdals	r0, {}	; <UNPREDICTABLE>
    1d64:	b0000000 	andlt	r0, r0, r0
    1d68:	01000000 	mrseq	r0, (UNDEF: 0)
    1d6c:	00b05000 	adcseq	r5, r0, r0
    1d70:	00bc0000 	adcseq	r0, ip, r0
    1d74:	00040000 	andeq	r0, r4, r0
    1d78:	9f5001f3 	svcls	0x005001f3
	...
    1d88:	00000074 	andeq	r0, r0, r4, ror r0
    1d8c:	0000008c 	andeq	r0, r0, ip, lsl #1
    1d90:	8c500001 	mrrchi	0, 0, r0, r0, cr1	; <UNPREDICTABLE>
    1d94:	98000000 	stmdals	r0, {}	; <UNPREDICTABLE>
    1d98:	04000000 	streq	r0, [r0], #-0
    1d9c:	5001f300 	andpl	pc, r1, r0, lsl #6
    1da0:	0000009f 	muleq	r0, pc, r0	; <UNPREDICTABLE>
	...
    1dac:	00006400 	andeq	r6, r0, r0, lsl #8
    1db0:	00006f00 	andeq	r6, r0, r0, lsl #30
    1db4:	50000100 	andpl	r0, r0, r0, lsl #2
    1db8:	0000006f 	andeq	r0, r0, pc, rrx
    1dbc:	00000074 	andeq	r0, r0, r4, ror r0
    1dc0:	01f30004 	mvnseq	r0, r4
    1dc4:	00009f50 	andeq	r9, r0, r0, asr pc
	...
    1dd4:	00380000 	eorseq	r0, r8, r0
    1dd8:	00010000 	andeq	r0, r1, r0
    1ddc:	00003850 	andeq	r3, r0, r0, asr r8
    1de0:	00006400 	andeq	r6, r0, r0, lsl #8
    1de4:	f3000400 	vshl.u8	d0, d0, d0
    1de8:	009f5001 	addseq	r5, pc, r1
	...
    1df8:	47000000 	strmi	r0, [r0, -r0]
    1dfc:	01000000 	mrseq	r0, (UNDEF: 0)
    1e00:	00475100 	subeq	r5, r7, r0, lsl #2
    1e04:	00640000 	rsbeq	r0, r4, r0
    1e08:	00040000 	andeq	r0, r4, r0
    1e0c:	9f5101f3 	svcls	0x005101f3
	...
    1e18:	00340000 	eorseq	r0, r4, r0
    1e1c:	00640000 	rsbeq	r0, r4, r0
    1e20:	00010000 	andeq	r0, r1, r0
    1e24:	00000054 	andeq	r0, r0, r4, asr r0
    1e28:	00000000 	andeq	r0, r0, r0
    1e2c:	40000000 	andmi	r0, r0, r0
    1e30:	64000000 	strvs	r0, [r0], #-0
    1e34:	01000000 	mrseq	r0, (UNDEF: 0)
    1e38:	00005600 	andeq	r5, r0, r0, lsl #12
	...
    1e44:	00010100 	andeq	r0, r1, r0, lsl #2
    1e48:	00480000 	subeq	r0, r8, r0
    1e4c:	00500000 	subseq	r0, r0, r0
    1e50:	00010000 	andeq	r0, r1, r0
    1e54:	00005050 	andeq	r5, r0, r0, asr r0
    1e58:	00005000 	andeq	r5, r0, r0
    1e5c:	51000100 	mrspl	r0, (UNDEF: 16)
    1e60:	00000050 	andeq	r0, r0, r0, asr r0
    1e64:	00000054 	andeq	r0, r0, r4, asr r0
    1e68:	00750009 	rsbseq	r0, r5, r9
    1e6c:	71240074 			; <UNDEFINED> instruction: 0x71240074
    1e70:	549f2100 	ldrpl	r2, [pc], #256	; 1e78 <__code_start__-0x6188>
    1e74:	5b000000 	blpl	1e7c <__code_start__-0x6184>
    1e78:	01000000 	mrseq	r0, (UNDEF: 0)
    1e7c:	00005100 	andeq	r5, r0, r0, lsl #2
    1e80:	00000000 	andeq	r0, r0, r0
	...

Disassembly of section .debug_aranges:

00000000 <.debug_aranges>:
   0:	0000001c 	andeq	r0, r0, ip, lsl r0
   4:	00000002 	andeq	r0, r0, r2
   8:	00040000 	andeq	r0, r4, r0
   c:	00000000 	andeq	r0, r0, r0
  10:	00008038 	andeq	r8, r0, r8, lsr r0
  14:	000000dc 	ldrdeq	r0, [r0], -ip
	...
  20:	0000001c 	andeq	r0, r0, ip, lsl r0
  24:	03740002 	cmneq	r4, #2, 0
  28:	00040000 	andeq	r0, r4, r0
  2c:	00000000 	andeq	r0, r0, r0
  30:	00008114 	andeq	r8, r0, r4, lsl r1
  34:	00000384 	andeq	r0, r0, r4, lsl #7
	...
  40:	0000001c 	andeq	r0, r0, ip, lsl r0
  44:	0ba50002 	bleq	fe940054 <__bss_end__+0xfe935ad4>
  48:	00040000 	andeq	r0, r4, r0
  4c:	00000000 	andeq	r0, r0, r0
  50:	00008498 	muleq	r0, r8, r4
  54:	00000360 	andeq	r0, r0, r0, ror #6
	...
  60:	0000001c 	andeq	r0, r0, ip, lsl r0
  64:	155d0002 	ldrbne	r0, [sp, #-2]
  68:	00040000 	andeq	r0, r4, r0
  6c:	00000000 	andeq	r0, r0, r0
  70:	0000880c 	andeq	r8, r0, ip, lsl #16
  74:	000001ac 	andeq	r0, r0, ip, lsr #3
	...
  80:	0000001c 	andeq	r0, r0, ip, lsl r0
  84:	183b0002 	ldmdane	fp!, {r1}
  88:	00040000 	andeq	r0, r4, r0
  8c:	00000000 	andeq	r0, r0, r0
  90:	000089b8 			; <UNDEFINED> instruction: 0x000089b8
  94:	00000018 	andeq	r0, r0, r8, lsl r0
	...
  a0:	0000001c 	andeq	r0, r0, ip, lsl r0
  a4:	19790002 	ldmdbne	r9!, {r1}^
  a8:	00040000 	andeq	r0, r4, r0
  ac:	00000000 	andeq	r0, r0, r0
  b0:	000089d0 	ldrdeq	r8, [r0], -r0
  b4:	00000058 	andeq	r0, r0, r8, asr r0
	...
  c0:	0000001c 	andeq	r0, r0, ip, lsl r0
  c4:	1b1a0002 	blne	6800d4 <__bss_end__+0x675b54>
  c8:	00040000 	andeq	r0, r4, r0
  cc:	00000000 	andeq	r0, r0, r0
  d0:	00008a28 	andeq	r8, r0, r8, lsr #20
  d4:	00000034 	andeq	r0, r0, r4, lsr r0
	...
  e0:	0000001c 	andeq	r0, r0, ip, lsl r0
  e4:	1c110002 	ldcne	0, cr0, [r1], {2}
  e8:	00040000 	andeq	r0, r4, r0
  ec:	00000000 	andeq	r0, r0, r0
  f0:	00008a5c 	andeq	r8, r0, ip, asr sl
  f4:	00000740 	andeq	r0, r0, r0, asr #14
	...
 100:	0000001c 	andeq	r0, r0, ip, lsl r0
 104:	26ec0002 	strbtcs	r0, [ip], r2
 108:	00040000 	andeq	r0, r4, r0
 10c:	00000000 	andeq	r0, r0, r0
 110:	0000919c 	muleq	r0, ip, r1
 114:	0000002c 	andeq	r0, r0, ip, lsr #32
	...
 120:	0000001c 	andeq	r0, r0, ip, lsl r0
 124:	281f0002 	ldmdacs	pc, {r1}	; <UNPREDICTABLE>
 128:	00040000 	andeq	r0, r4, r0
 12c:	00000000 	andeq	r0, r0, r0
 130:	000091c8 	andeq	r9, r0, r8, asr #3
 134:	0000003c 	andeq	r0, r0, ip, lsr r0
	...
 140:	0000001c 	andeq	r0, r0, ip, lsl r0
 144:	29ac0002 	stmibcs	ip!, {r1}
 148:	00040000 	andeq	r0, r4, r0
 14c:	00000000 	andeq	r0, r0, r0
 150:	00009204 	andeq	r9, r0, r4, lsl #4
 154:	00000004 	andeq	r0, r0, r4
	...
 160:	0000001c 	andeq	r0, r0, ip, lsl r0
 164:	2a7e0002 	bcs	1f80174 <__bss_end__+0x1f75bf4>
 168:	00040000 	andeq	r0, r4, r0
 16c:	00000000 	andeq	r0, r0, r0
 170:	00009208 	andeq	r9, r0, r8, lsl #4
 174:	00000080 	andeq	r0, r0, r0, lsl #1
	...
 180:	0000001c 	andeq	r0, r0, ip, lsl r0
 184:	2cb80002 	ldccs	0, cr0, [r8], #8
 188:	00040000 	andeq	r0, r4, r0
 18c:	00000000 	andeq	r0, r0, r0
 190:	00009288 	andeq	r9, r0, r8, lsl #5
 194:	00000084 	andeq	r0, r0, r4, lsl #1
	...
 1a0:	0000001c 	andeq	r0, r0, ip, lsl r0
 1a4:	2f090002 	svccs	0x00090002
 1a8:	00040000 	andeq	r0, r4, r0
 1ac:	00000000 	andeq	r0, r0, r0
 1b0:	0000930c 	andeq	r9, r0, ip, lsl #6
 1b4:	000001f0 	strdeq	r0, [r0], -r0	; <UNPREDICTABLE>
	...
 1c0:	0000001c 	andeq	r0, r0, ip, lsl r0
 1c4:	34da0002 	ldrbcc	r0, [sl], #2
 1c8:	00040000 	andeq	r0, r4, r0
 1cc:	00000000 	andeq	r0, r0, r0
 1d0:	000094fc 	strdeq	r9, [r0], -ip
 1d4:	000003b0 			; <UNDEFINED> instruction: 0x000003b0
	...
 1e0:	0000001c 	andeq	r0, r0, ip, lsl r0
 1e4:	3dc70002 	stclcc	0, cr0, [r7, #8]
 1e8:	00040000 	andeq	r0, r4, r0
 1ec:	00000000 	andeq	r0, r0, r0
 1f0:	000098ac 	andeq	r9, r0, ip, lsr #17
 1f4:	0000003c 	andeq	r0, r0, ip, lsr r0
	...
 200:	0000001c 	andeq	r0, r0, ip, lsl r0
 204:	3f140002 	svccc	0x00140002
 208:	00040000 	andeq	r0, r4, r0
 20c:	00000000 	andeq	r0, r0, r0
 210:	000098e8 	andeq	r9, r0, r8, ror #17
 214:	00000034 	andeq	r0, r0, r4, lsr r0
	...
 220:	0000001c 	andeq	r0, r0, ip, lsl r0
 224:	404f0002 	submi	r0, pc, r2
 228:	00040000 	andeq	r0, r4, r0
 22c:	00000000 	andeq	r0, r0, r0
 230:	0000991c 	andeq	r9, r0, ip, lsl r9
 234:	0000002c 	andeq	r0, r0, ip, lsr #32
	...
 240:	0000001c 	andeq	r0, r0, ip, lsl r0
 244:	414a0002 	cmpmi	sl, r2
 248:	00040000 	andeq	r0, r4, r0
 24c:	00000000 	andeq	r0, r0, r0
 250:	00009948 	andeq	r9, r0, r8, asr #18
 254:	00000020 	andeq	r0, r0, r0, lsr #32
	...
 260:	0000001c 	andeq	r0, r0, ip, lsl r0
 264:	425d0002 	subsmi	r0, sp, #2, 0
 268:	00040000 	andeq	r0, r4, r0
 26c:	00000000 	andeq	r0, r0, r0
 270:	00009968 	andeq	r9, r0, r8, ror #18
 274:	0000002c 	andeq	r0, r0, ip, lsr #32
	...
 280:	0000001c 	andeq	r0, r0, ip, lsl r0
 284:	43af0002 			; <UNDEFINED> instruction: 0x43af0002
 288:	00040000 	andeq	r0, r4, r0
 28c:	00000000 	andeq	r0, r0, r0
 290:	00009994 	muleq	r0, r4, r9
 294:	00000004 	andeq	r0, r0, r4
	...
 2a0:	0000001c 	andeq	r0, r0, ip, lsl r0
 2a4:	44810002 	strmi	r0, [r1], #2
 2a8:	00040000 	andeq	r0, r4, r0
 2ac:	00000000 	andeq	r0, r0, r0
 2b0:	000099b0 			; <UNDEFINED> instruction: 0x000099b0
 2b4:	0000011c 	andeq	r0, r0, ip, lsl r1
	...

Disassembly of section .debug_line:

00000000 <.debug_line>:
       0:	00000114 	andeq	r0, r0, r4, lsl r1
       4:	009f0003 	addseq	r0, pc, r3
       8:	01020000 	mrseq	r0, (UNDEF: 2)
       c:	000d0efb 	strdeq	r0, [sp], -fp
      10:	01010101 	tsteq	r1, r1, lsl #2
      14:	01000000 	mrseq	r0, (UNDEF: 0)
      18:	74010000 	strvc	r0, [r1], #-0
      1c:	73747365 	cmnvc	r4, #-1811939327	; 0x94000001
      20:	2f002e00 	svccs	0x00002e00
      24:	72657355 	rsbvc	r7, r5, #1409286145	; 0x54000001
      28:	72742f73 	rsbsvc	r2, r4, #460	; 0x1cc
      2c:	65747369 	ldrbvs	r7, [r4, #-873]!	; 0xfffffc97
      30:	6c6f6e6e 	stclvs	14, cr6, [pc], #-440	; fffffe80 <__bss_end__+0xffff5900>
      34:	6e616d6c 	cdpvs	13, 6, cr6, cr1, cr12, {3}
      38:	636f442f 	cmnvs	pc, #788529152	; 0x2f000000
      3c:	6e656d75 	mcrvs	13, 3, r6, cr5, cr5, {3}
      40:	532f7374 			; <UNDEFINED> instruction: 0x532f7374
      44:	6e697270 	mcrvs	2, 3, r7, cr9, cr0, {3}
      48:	75515f67 	ldrbvc	r5, [r1, #-3943]	; 0xfffff099
      4c:	65747261 	ldrbvs	r7, [r4, #-609]!	; 0xfffffd9f
      50:	30325f72 	eorscc	r5, r2, r2, ror pc
      54:	432f3232 			; <UNDEFINED> instruction: 0x432f3232
      58:	30343253 	eorscc	r3, r4, r3, asr r2
      5c:	732d584c 			; <UNDEFINED> instruction: 0x732d584c
      60:	32327270 	eorscc	r7, r2, #112, 4
      64:	62696c2f 	rsbvs	r6, r9, #12032	; 0x2f00
      68:	692f6970 	stmdbvs	pc!, {r4, r5, r6, r8, fp, sp, lr}	; <UNPREDICTABLE>
      6c:	756c636e 	strbvc	r6, [ip, #-878]!	; 0xfffffc92
      70:	00006564 	andeq	r6, r0, r4, ror #10
      74:	74726170 	ldrbtvc	r6, [r2], #-368	; 0xfffffe90
      78:	65742d32 	ldrbvs	r2, [r4, #-3378]!	; 0xfffff2ce
      7c:	2e317473 	mrccs	4, 1, r7, cr1, cr3, {3}
      80:	00010063 	andeq	r0, r1, r3, rrx
      84:	63727300 	cmnvs	r2, #0, 6
      88:	636f6c2d 	cmnvs	pc, #11520	; 0x2d00
      8c:	0200682e 	andeq	r6, r0, #3014656	; 0x2e0000
      90:	70720000 	rsbsvc	r0, r2, r0
      94:	00682e69 	rsbeq	r2, r8, r9, ror #28
      98:	63000003 	movwvs	r0, #3
      9c:	6c6c616b 	stfvse	f6, [ip], #-428	; 0xfffffe54
      a0:	682e636f 	stmdavs	lr!, {r0, r1, r2, r3, r5, r6, r8, r9, sp, lr}
      a4:	00000200 	andeq	r0, r0, r0, lsl #4
      a8:	00120500 	andseq	r0, r2, r0, lsl #10
      ac:	80380205 	eorshi	r0, r8, r5, lsl #4
      b0:	05190000 	ldreq	r0, [r9, #-0]
      b4:	02044b05 	andeq	r4, r4, #5120	; 0x1400
      b8:	05150b05 	ldreq	r0, [r5, #-2821]	; 0xfffff4fb
      bc:	0c051305 	stceq	3, cr1, [r5], {5}
      c0:	04ba0106 	ldrteq	r0, [sl], #262	; 0x106
      c4:	0e0f0501 	cfsh32eq	mvfx0, mvfx15, #1
      c8:	9f060505 	svcls	0x00060505
      cc:	064a0601 	strbeq	r0, [sl], -r1, lsl #12
      d0:	0483132e 	streq	r1, [r3], #814	; 0x32e
      d4:	010b0502 	tsteq	fp, r2, lsl #10
      d8:	05130505 	ldreq	r0, [r3, #-1285]	; 0xfffffafb
      dc:	8201060c 	andhi	r0, r1, #12, 12	; 0xc00000
      e0:	05050104 	streq	r0, [r5, #-260]	; 0xfffffefc
      e4:	83010511 	movwhi	r0, #5393	; 0x1511
      e8:	0614054a 	ldreq	r0, [r4], -sl, asr #10
      ec:	bc020500 	cfstr32lt	mvfx0, [r2], {-0}
      f0:	14000080 	strne	r0, [r0], #-128	; 0xffffff80
      f4:	4f2f0505 	svcmi	0x002f0505
      f8:	052e0903 	streq	r0, [lr, #-2307]!	; 0xfffff6fd
      fc:	05010608 	streq	r0, [r1, #-1544]	; 0xfffff9f8
     100:	09054a07 	stmdbeq	r5, {r0, r1, r2, r9, fp, lr}
     104:	01144b06 	tsteq	r4, r6, lsl #22
     108:	0601054a 	streq	r0, [r1], -sl, asr #10
     10c:	06090513 			; <UNDEFINED> instruction: 0x06090513
     110:	029e012b 	addseq	r0, lr, #-1073741814	; 0xc000000a
     114:	0101000c 	tsteq	r1, ip
     118:	000003cb 	andeq	r0, r0, fp, asr #7
     11c:	010b0003 	tsteq	fp, r3
     120:	01020000 	mrseq	r0, (UNDEF: 2)
     124:	000d0efb 	strdeq	r0, [sp], -fp
     128:	01010101 	tsteq	r1, r1, lsl #2
     12c:	01000000 	mrseq	r0, (UNDEF: 0)
     130:	2f010000 	svccs	0x00010000
     134:	2f727375 	svccs	0x00727375
     138:	61636f6c 	cmnvs	r3, ip, ror #30
     13c:	65432f6c 	strbvs	r2, [r3, #-3948]	; 0xfffff094
     140:	72616c6c 	rsbvc	r6, r1, #108, 24	; 0x6c00
     144:	6d72612f 	ldfvse	f6, [r2, #-188]!	; 0xffffff44
     148:	6e6f6e2d 	cdpvs	14, 6, cr6, cr15, cr13, {1}
     14c:	61652d65 	cmnvs	r5, r5, ror #26
     150:	742d6962 	strtvc	r6, [sp], #-2402	; 0xfffff69e
     154:	2f747365 	svccs	0x00747365
     158:	30322d39 	eorscc	r2, r2, r9, lsr sp
     15c:	34713931 	ldrbtcc	r3, [r1], #-2353	; 0xfffff6cf
     160:	3173632d 	cmncc	r3, sp, lsr #6
     164:	2f653730 	svccs	0x00653730
     168:	2f62696c 	svccs	0x0062696c
     16c:	2f636367 	svccs	0x00636367
     170:	2d6d7261 	sfmcs	f7, 2, [sp, #-388]!	; 0xfffffe7c
     174:	656e6f6e 	strbvs	r6, [lr, #-3950]!	; 0xfffff092
     178:	6261652d 	rsbvs	r6, r1, #188743680	; 0xb400000
     17c:	2e392f69 	cdpcs	15, 3, cr2, cr9, cr9, {3}
     180:	2f312e32 	svccs	0x00312e32
     184:	6c636e69 	stclvs	14, cr6, [r3], #-420	; 0xfffffe5c
     188:	00656475 	rsbeq	r6, r5, r5, ror r4
     18c:	6573552f 	ldrbvs	r5, [r3, #-1327]!	; 0xfffffad1
     190:	742f7372 	strtvc	r7, [pc], #-882	; 198 <__code_start__-0x7e68>
     194:	74736972 	ldrbtvc	r6, [r3], #-2418	; 0xfffff68e
     198:	6f6e6e65 	svcvs	0x006e6e65
     19c:	616d6c6c 	cmnvs	sp, ip, ror #24
     1a0:	6f442f6e 	svcvs	0x00442f6e
     1a4:	656d7563 	strbvs	r7, [sp, #-1379]!	; 0xfffffa9d
     1a8:	2f73746e 	svccs	0x0073746e
     1ac:	69727053 	ldmdbvs	r2!, {r0, r1, r4, r6, ip, sp, lr}^
     1b0:	515f676e 	cmppl	pc, lr, ror #14
     1b4:	74726175 	ldrbtvc	r6, [r2], #-373	; 0xfffffe8b
     1b8:	325f7265 	subscc	r7, pc, #1342177286	; 0x50000006
     1bc:	2f323230 	svccs	0x00323230
     1c0:	34325343 	ldrtcc	r5, [r2], #-835	; 0xfffffcbd
     1c4:	2d584c30 	ldclcs	12, cr4, [r8, #-192]	; 0xffffff40
     1c8:	32727073 	rsbscc	r7, r2, #115, 0	; 0x73
     1cc:	696c2f32 	stmdbvs	ip!, {r1, r4, r5, r8, r9, sl, fp, sp}^
     1d0:	2f697062 	svccs	0x00697062
     1d4:	6c636e69 	stclvs	14, cr6, [r3], #-420	; 0xfffffe5c
     1d8:	00656475 	rsbeq	r6, r5, r5, ror r4
     1dc:	616b6300 	cmnvs	fp, r0, lsl #6
     1e0:	636f6c6c 	cmnvs	pc, #108, 24	; 0x6c00
     1e4:	0000632e 	andeq	r6, r0, lr, lsr #6
     1e8:	6b630000 	blvs	18c01f0 <__bss_end__+0x18b5c70>
     1ec:	6f6c6c61 	svcvs	0x006c6c61
     1f0:	00682e63 	rsbeq	r2, r8, r3, ror #28
     1f4:	73000000 	movwvc	r0, #0
     1f8:	6e696474 	mcrvs	4, 3, r6, cr9, cr4, {3}
     1fc:	63672d74 	cmnvs	r7, #116, 26	; 0x1d00
     200:	00682e63 	rsbeq	r2, r8, r3, ror #28
     204:	72000001 	andvc	r0, r0, #1, 0
     208:	682e6970 	stmdavs	lr!, {r4, r5, r6, r8, fp, sp, lr}
     20c:	00000200 	andeq	r0, r0, r0, lsl #4
     210:	2d637273 	sfmcs	f7, 2, [r3, #-460]!	; 0xfffffe34
     214:	2e636f6c 	cdpcs	15, 6, cr6, cr3, cr12, {3}
     218:	00000068 	andeq	r0, r0, r8, rrx
     21c:	2d726b00 	vldmdbcs	r2!, {d22-d21}
     220:	6c6c616d 	stfvse	f6, [ip], #-436	; 0xfffffe4c
     224:	682e636f 	stmdavs	lr!, {r0, r1, r2, r3, r5, r6, r8, r9, sp, lr}
     228:	00000000 	andeq	r0, r0, r0
     22c:	002d0500 	eoreq	r0, sp, r0, lsl #10
     230:	81140205 	tsthi	r4, r5, lsl #4
     234:	1e030000 	cdpne	0, 0, cr0, cr3, cr0, {0}
     238:	13020501 	movwne	r0, #9473	; 0x2501
     23c:	01061005 	tsteq	r6, r5
     240:	054a0505 	strbeq	r0, [sl, #-1285]	; 0xfffffafb
     244:	01500603 	cmpeq	r0, r3, lsl #12
     248:	02040200 	andeq	r0, r4, #0, 4
     24c:	0402004a 	streq	r0, [r2], #-74	; 0xffffffb6
     250:	02000102 	andeq	r0, r0, #-2147483648	; 0x80000000
     254:	00130204 	andseq	r0, r3, r4, lsl #4
     258:	13020402 	movwne	r0, #9218	; 0x2402
     25c:	02000d05 	andeq	r0, r0, #320	; 0x140
     260:	01060204 	tsteq	r6, r4, lsl #4
     264:	02000305 	andeq	r0, r0, #335544320	; 0x14000000
     268:	4b060204 	blmi	180a80 <__bss_end__+0x176500>
     26c:	02001305 	andeq	r1, r0, #335544320	; 0x14000000
     270:	01060204 	tsteq	r6, r4, lsl #4
     274:	02000305 	andeq	r0, r0, #335544320	; 0x14000000
     278:	2f060204 	svccs	0x00060204
     27c:	02040200 	andeq	r0, r4, #0, 4
     280:	03062e06 	movweq	r2, #28166	; 0x6e06
     284:	0e050178 	mcreq	1, 0, r0, cr5, cr8, {3}
     288:	03050106 	movweq	r0, #20742	; 0x5106
     28c:	0d054b06 	vstreq	d4, [r5, #-24]	; 0xffffffe8
     290:	03050106 	movweq	r0, #20742	; 0x5106
     294:	2d052f06 	stccs	15, cr2, [r5, #-24]	; 0xffffffe8
     298:	01040200 	mrseq	r0, R12_usr
     29c:	03052906 	movweq	r2, #22790	; 0x5906
     2a0:	01040200 	mrseq	r0, R12_usr
     2a4:	02005106 	andeq	r5, r0, #-2147483647	; 0x80000001
     2a8:	00010104 	andeq	r0, r1, r4, lsl #2
     2ac:	06010402 	streq	r0, [r1], -r2, lsl #8
     2b0:	0402009e 	streq	r0, [r2], #-158	; 0xffffff62
     2b4:	02002e01 	andeq	r2, r0, #1, 28
     2b8:	2e060104 	adfcss	f0, f6, f4
     2bc:	09031b05 	stmdbeq	r3, {r0, r2, r8, r9, fp, ip}
     2c0:	130505ba 	movwne	r0, #21946	; 0x55ba
     2c4:	13060105 	movwne	r0, #24837	; 0x6105
     2c8:	85061e05 	strhi	r1, [r6, #-3589]	; 0xfffff1fb
     2cc:	05130505 	ldreq	r0, [r3, #-1285]	; 0xfffffafb
     2d0:	2e010607 	cfmadd32cs	mvax0, mvfx0, mvfx1, mvfx7
     2d4:	2f060905 	svccs	0x00060905
     2d8:	01061105 	tsteq	r6, r5, lsl #2
     2dc:	05300105 	ldreq	r0, [r0, #-261]!	; 0xfffffefb
     2e0:	5303062d 	movwpl	r0, #13869	; 0x362d
     2e4:	0501062e 	streq	r0, [r1, #-1582]	; 0xfffff9d2
     2e8:	014b0605 	cmpeq	fp, r5, lsl #12
     2ec:	02002e06 	andeq	r2, r0, #96	; 0x60
     2f0:	4a060204 	bmi	180b08 <__bss_end__+0x176588>
     2f4:	02040200 	andeq	r0, r4, #0, 4
     2f8:	04020001 	streq	r0, [r2], #-1
     2fc:	02001302 	andeq	r1, r0, #134217728	; 0x8000000
     300:	05140204 	ldreq	r0, [r4, #-516]	; 0xfffffdfc
     304:	04020007 	streq	r0, [r2], #-7
     308:	05010602 	streq	r0, [r1, #-1538]	; 0xfffff9fe
     30c:	0550060a 	ldrbeq	r0, [r0, #-1546]	; 0xfffff9f6
     310:	052e0610 	streq	r0, [lr, #-1552]!	; 0xfffff9f0
     314:	052e2e0a 	streq	r2, [lr, #-3594]!	; 0xfffff1f6
     318:	052f0609 	streq	r0, [pc, #-1545]!	; fffffd17 <__bss_end__+0xffff5797>
     31c:	0501060b 	streq	r0, [r1, #-1547]	; 0xfffff9f5
     320:	054b060d 	strbeq	r0, [fp, #-1549]	; 0xfffff9f3
     324:	0501061b 	streq	r0, [r1, #-1563]	; 0xfffff9e5
     328:	0d052e18 	stceq	14, cr2, [r5, #-96]	; 0xffffffa0
     32c:	01052f06 	tsteq	r5, r6, lsl #30
     330:	05051706 	streq	r1, [r5, #-1798]	; 0xfffff8fa
     334:	01040200 	mrseq	r0, R12_usr
     338:	4a6f0306 	bmi	1bc0f58 <__bss_end__+0x1bb69d8>
     33c:	01040200 	mrseq	r0, R12_usr
     340:	04020001 	streq	r0, [r2], #-1
     344:	009e0601 	addseq	r0, lr, r1, lsl #12
     348:	2e010402 	cdpcs	4, 0, cr0, cr1, cr2, {0}
     34c:	01040200 	mrseq	r0, R12_usr
     350:	10032e06 	andne	r2, r3, r6, lsl #28
     354:	9e06012e 	adflssp	f0, f6, #0.5
     358:	1e052e06 	cdpne	14, 0, cr2, cr5, cr6, {0}
     35c:	05ba1f03 	ldreq	r1, [sl, #3843]!	; 0xf03
     360:	01051305 	tsteq	r5, r5, lsl #6
     364:	052e1306 	streq	r1, [lr, #-774]!	; 0xfffffcfa
     368:	0631061c 			; <UNDEFINED> instruction: 0x0631061c
     36c:	06050501 	streq	r0, [r5], -r1, lsl #10
     370:	0614054b 	ldreq	r0, [r4], -fp, asr #10
     374:	05020401 	streq	r0, [r2, #-1025]	; 0xfffffbff
     378:	61030618 	tstvs	r3, r8, lsl r6
     37c:	1305052e 	movwne	r0, #21806	; 0x552e
     380:	01060d05 	tsteq	r6, r5, lsl #26
     384:	0501042e 	streq	r0, [r1, #-1070]	; 0xfffffbd2
     388:	011f0301 	tsteq	pc, r1, lsl #6
     38c:	4d062f05 	stcmi	15, cr2, [r6, #-20]	; 0xffffffec
     390:	05130205 	ldreq	r0, [r3, #-517]	; 0xfffffdfb
     394:	0501061a 	streq	r0, [r1, #-1562]	; 0xfffff9e6
     398:	05052e29 	streq	r2, [r5, #-3625]	; 0xfffff1d7
     39c:	0048054a 	subeq	r0, r8, sl, asr #10
     3a0:	4a010402 	bmi	413b0 <__bss_end__+0x36e30>
     3a4:	02003505 	andeq	r3, r0, #20971520	; 0x1400000
     3a8:	052e0104 	streq	r0, [lr, #-260]!	; 0xfffffefc
     3ac:	2e2e4d09 	cdpcs	13, 2, cr4, cr14, cr9, {0}
     3b0:	2c0a052e 	cfstr32cs	mvfx0, [sl], {46}	; 0x2e
     3b4:	05310105 	ldreq	r0, [r1, #-261]!	; 0xfffffefb
     3b8:	06310625 	ldrteq	r0, [r1], -r5, lsr #12
     3bc:	06050501 	streq	r0, [r5], -r1, lsl #10
     3c0:	0109054b 	tsteq	r9, fp, asr #10
     3c4:	01061405 	tsteq	r6, r5, lsl #8
     3c8:	2e05052e 	cfsh32cs	mvfx0, mvfx5, #30
     3cc:	02002705 	andeq	r2, r0, #1310720	; 0x140000
     3d0:	2e060204 	cdpcs	2, 0, cr0, cr6, cr4, {0}
     3d4:	02002b05 	andeq	r2, r0, #5120	; 0x1400
     3d8:	01060204 	tsteq	r6, r4, lsl #4
     3dc:	02002405 	andeq	r2, r0, #83886080	; 0x5000000
     3e0:	66060104 	strvs	r0, [r6], -r4, lsl #2
     3e4:	02000505 	andeq	r0, r0, #20971520	; 0x1400000
     3e8:	01060104 	tsteq	r6, r4, lsl #2
     3ec:	4b060905 	blmi	182808 <__bss_end__+0x178288>
     3f0:	01060c05 	tsteq	r6, r5, lsl #24
     3f4:	2e0b054a 	cfsh32cs	mvfx0, mvfx11, #42
     3f8:	02002705 	andeq	r2, r0, #1310720	; 0x140000
     3fc:	054a0104 	strbeq	r0, [sl, #-260]	; 0xfffffefc
     400:	04020023 	streq	r0, [r2], #-35	; 0xffffffdd
     404:	02002e01 	andeq	r2, r0, #1, 28
     408:	054a0104 	strbeq	r0, [sl, #-260]	; 0xfffffefc
     40c:	28051801 	stmdacs	r5, {r0, fp, ip}
     410:	01064e06 	tsteq	r6, r6, lsl #28
     414:	06050582 	streq	r0, [r5], -r2, lsl #11
     418:	0905142f 	stmdbeq	r5, {r0, r1, r2, r3, r5, sl, ip}
     41c:	07050106 	streq	r0, [r5, -r6, lsl #2]
     420:	0609052e 	streq	r0, [r9], -lr, lsr #10
     424:	13050567 	movwne	r0, #21863	; 0x5567
     428:	13669e01 	cmnne	r6, #1, 28
     42c:	04020001 	streq	r0, [r2], #-1
     430:	02008202 	andeq	r8, r0, #536870912	; 0x20000000
     434:	00010204 	andeq	r0, r1, r4, lsl #4
     438:	13020402 	movwne	r0, #9218	; 0x2402
     43c:	02000e05 	andeq	r0, r0, #80	; 0x50
     440:	01060204 	tsteq	r6, r4, lsl #4
     444:	02000205 	andeq	r0, r0, #1342177280	; 0x50000000
     448:	4b060204 	blmi	180c60 <__bss_end__+0x1766e0>
     44c:	02000505 	andeq	r0, r0, #20971520	; 0x1400000
     450:	00830204 	addeq	r0, r3, r4, lsl #4
     454:	01020402 	tsteq	r2, r2, lsl #8
     458:	02040200 	andeq	r0, r4, #0, 4
     45c:	04020082 	streq	r0, [r2], #-130	; 0xffffff7e
     460:	02000102 	andeq	r0, r0, #-2147483648	; 0x80000000
     464:	05130204 	ldreq	r0, [r3, #-516]	; 0xfffffdfc
     468:	04020001 	streq	r0, [r2], #-1
     46c:	054b0602 	strbeq	r0, [fp, #-1538]	; 0xfffff9fe
     470:	79030609 	stmdbvc	r3, {r0, r3, r9, sl}
     474:	829e014a 	addshi	r0, lr, #-2147483630	; 0x80000012
     478:	02000505 	andeq	r0, r0, #20971520	; 0x1400000
     47c:	00300104 	eorseq	r0, r0, r4, lsl #2
     480:	01010402 	tsteq	r1, r2, lsl #8
     484:	01040200 	mrseq	r0, R12_usr
     488:	040200d6 	streq	r0, [r2], #-214	; 0xffffff2a
     48c:	02003101 	andeq	r3, r0, #1073741824	; 0x40000000
     490:	00010104 	andeq	r0, r1, r4, lsl #2
     494:	d6010402 	strle	r0, [r1], -r2, lsl #8
     498:	5f082f05 	svcpl	0x00082f05
     49c:	05050106 	streq	r0, [r5, #-262]	; 0xfffffefa
     4a0:	1005a006 	andne	sl, r5, r6
     4a4:	052e0106 	streq	r0, [lr, #-262]!	; 0xfffffefa
     4a8:	054b0602 	strbeq	r0, [fp, #-1538]	; 0xfffff9fe
     4ac:	15056705 	strne	r6, [r5, #-1797]	; 0xfffff8fb
     4b0:	05050106 	streq	r0, [r5, #-262]	; 0xfffffefa
     4b4:	0e052f06 	cdpeq	15, 0, cr2, cr5, cr6, {0}
     4b8:	05050106 	streq	r0, [r5, #-262]	; 0xfffffefa
     4bc:	12054b06 	andne	r4, r5, #6144	; 0x1800
     4c0:	02050106 	andeq	r0, r5, #-2147483647	; 0x80000001
     4c4:	0a056706 	beq	15a0e4 <__bss_end__+0x14fb64>
     4c8:	02050106 	andeq	r0, r5, #-2147483647	; 0x80000001
     4cc:	0b054b06 	bleq	1530ec <__bss_end__+0x148b6c>
     4d0:	05050106 	streq	r0, [r5, #-262]	; 0xfffffefa
     4d4:	9e013106 	adflss	f3, f1, f6
     4d8:	14020566 	strne	r0, [r2], #-1382	; 0xfffffa9a
     4dc:	06010583 	streq	r0, [r1], -r3, lsl #11
     4e0:	06026614 			; <UNDEFINED> instruction: 0x06026614
     4e4:	f9010100 			; <UNDEFINED> instruction: 0xf9010100
     4e8:	03000003 	movweq	r0, #3
     4ec:	0000fa00 	andeq	pc, r0, r0, lsl #20
     4f0:	fb010200 	blx	40cfa <__bss_end__+0x3677a>
     4f4:	01000d0e 	tsteq	r0, lr, lsl #26
     4f8:	00010101 	andeq	r0, r1, r1, lsl #2
     4fc:	00010000 	andeq	r0, r1, r0
     500:	752f0100 	strvc	r0, [pc, #-256]!	; 408 <__code_start__-0x7bf8>
     504:	6c2f7273 	sfmvs	f7, 4, [pc], #-460	; 340 <__code_start__-0x7cc0>
     508:	6c61636f 	stclvs	3, cr6, [r1], #-444	; 0xfffffe44
     50c:	6c65432f 	stclvs	3, cr4, [r5], #-188	; 0xffffff44
     510:	2f72616c 	svccs	0x0072616c
     514:	2d6d7261 	sfmcs	f7, 2, [sp, #-388]!	; 0xfffffe7c
     518:	656e6f6e 	strbvs	r6, [lr, #-3950]!	; 0xfffff092
     51c:	6261652d 	rsbvs	r6, r1, #188743680	; 0xb400000
     520:	65742d69 	ldrbvs	r2, [r4, #-3433]!	; 0xfffff297
     524:	392f7473 	stmdbcc	pc!, {r0, r1, r4, r5, r6, sl, ip, sp, lr}	; <UNPREDICTABLE>
     528:	3130322d 	teqcc	r0, sp, lsr #4
     52c:	2d347139 	ldfcss	f7, [r4, #-228]!	; 0xffffff1c
     530:	30317363 	eorscc	r7, r1, r3, ror #6
     534:	6c2f6537 	cfstr32vs	mvfx6, [pc], #-220	; 460 <__code_start__-0x7ba0>
     538:	672f6269 	strvs	r6, [pc, -r9, ror #4]!
     53c:	612f6363 			; <UNDEFINED> instruction: 0x612f6363
     540:	6e2d6d72 	mcrvs	13, 1, r6, cr13, cr2, {3}
     544:	2d656e6f 	stclcs	14, cr6, [r5, #-444]!	; 0xfffffe44
     548:	69626165 	stmdbvs	r2!, {r0, r2, r5, r6, r8, sp, lr}^
     54c:	322e392f 	eorcc	r3, lr, #770048	; 0xbc000
     550:	692f312e 	stmdbvs	pc!, {r1, r2, r3, r5, r8, ip, sp}	; <UNPREDICTABLE>
     554:	756c636e 	strbvc	r6, [ip, #-878]!	; 0xfffffc92
     558:	2f006564 	svccs	0x00006564
     55c:	72657355 	rsbvc	r7, r5, #1409286145	; 0x54000001
     560:	72742f73 	rsbsvc	r2, r4, #460	; 0x1cc
     564:	65747369 	ldrbvs	r7, [r4, #-873]!	; 0xfffffc97
     568:	6c6f6e6e 	stclvs	14, cr6, [pc], #-440	; 3b8 <__code_start__-0x7c48>
     56c:	6e616d6c 	cdpvs	13, 6, cr6, cr1, cr12, {3}
     570:	636f442f 	cmnvs	pc, #788529152	; 0x2f000000
     574:	6e656d75 	mcrvs	13, 3, r6, cr5, cr5, {3}
     578:	532f7374 			; <UNDEFINED> instruction: 0x532f7374
     57c:	6e697270 	mcrvs	2, 3, r7, cr9, cr0, {3}
     580:	75515f67 	ldrbvc	r5, [r1, #-3943]	; 0xfffff099
     584:	65747261 	ldrbvs	r7, [r4, #-609]!	; 0xfffffd9f
     588:	30325f72 	eorscc	r5, r2, r2, ror pc
     58c:	432f3232 			; <UNDEFINED> instruction: 0x432f3232
     590:	30343253 	eorscc	r3, r4, r3, asr r2
     594:	732d584c 			; <UNDEFINED> instruction: 0x732d584c
     598:	32327270 	eorscc	r7, r2, #112, 4
     59c:	62696c2f 	rsbvs	r6, r9, #12032	; 0x2f00
     5a0:	692f6970 	stmdbvs	pc!, {r4, r5, r6, r8, fp, sp, lr}	; <UNPREDICTABLE>
     5a4:	756c636e 	strbvc	r6, [ip, #-878]!	; 0xfffffc92
     5a8:	00006564 	andeq	r6, r0, r4, ror #10
     5ac:	672d6b63 	strvs	r6, [sp, -r3, ror #22]!
     5b0:	00632e63 	rsbeq	r2, r3, r3, ror #28
     5b4:	73000000 	movwvc	r0, #0
     5b8:	6e696474 	mcrvs	4, 3, r6, cr9, cr4, {3}
     5bc:	63672d74 	cmnvs	r7, #116, 26	; 0x1d00
     5c0:	00682e63 	rsbeq	r2, r8, r3, ror #28
     5c4:	72000001 	andvc	r0, r0, #1, 0
     5c8:	682e6970 	stmdavs	lr!, {r4, r5, r6, r8, fp, sp, lr}
     5cc:	00000200 	andeq	r0, r0, r0, lsl #4
     5d0:	2d637273 	sfmcs	f7, 2, [r3, #-460]!	; 0xfffffe34
     5d4:	2e636f6c 	cdpcs	15, 6, cr6, cr3, cr12, {3}
     5d8:	00000068 	andeq	r0, r0, r8, rrx
     5dc:	616b6300 	cmnvs	fp, r0, lsl #6
     5e0:	636f6c6c 	cmnvs	pc, #108, 24	; 0x6c00
     5e4:	0000682e 	andeq	r6, r0, lr, lsr #16
     5e8:	05000000 	streq	r0, [r0, #-0]
     5ec:	0205001d 	andeq	r0, r5, #29, 0
     5f0:	00008498 	muleq	r0, r8, r4
     5f4:	05012803 	streq	r2, [r1, #-2051]	; 0xfffff7fd
     5f8:	0a051405 	beq	145614 <__bss_end__+0x13b094>
     5fc:	07050106 	streq	r0, [r5, -r6, lsl #2]
     600:	001c054a 	andseq	r0, ip, sl, asr #10
     604:	4a010402 	bmi	41614 <__bss_end__+0x37094>
     608:	02001705 	andeq	r1, r0, #1310720	; 0x140000
     60c:	054a0104 	strbeq	r0, [sl, #-260]	; 0xfffffefc
     610:	052e4d0c 	streq	r4, [lr, #-3340]!	; 0xfffff2f4
     614:	2e2e2c10 	mcrcs	12, 1, r2, cr14, cr0, {0}
     618:	05310105 	ldreq	r0, [r1, #-261]!	; 0xfffffefb
     61c:	35030635 	strcc	r0, [r3, #-1589]	; 0xfffff9cb
     620:	0501064a 	streq	r0, [r1, #-1610]	; 0xfffff9b6
     624:	132f0602 			; <UNDEFINED> instruction: 0x132f0602
     628:	2f062e06 	svccs	0x00062e06
     62c:	014c0505 	cmpeq	ip, r5, lsl #10
     630:	0322059e 			; <UNDEFINED> instruction: 0x0322059e
     634:	05ba00de 	ldreq	r0, [sl, #222]!	; 0xde
     638:	4b132f02 	blmi	4cc248 <__bss_end__+0x4c1cc8>
     63c:	014c0505 	cmpeq	ip, r5, lsl #10
     640:	0325059e 			; <UNDEFINED> instruction: 0x0325059e
     644:	06ba7eed 	ldrteq	r7, [sl], sp, ror #29
     648:	06050501 	streq	r0, [r5], -r1, lsl #10
     64c:	0905144b 	stmdbeq	r5, {r0, r1, r3, r6, sl, ip}
     650:	07050106 	streq	r0, [r5, -r6, lsl #2]
     654:	0605052e 	streq	r0, [r5], -lr, lsr #10
     658:	060c054c 	streq	r0, [ip], -ip, asr #10
     65c:	65100501 	ldrvs	r0, [r0, #-1281]	; 0xfffffaff
     660:	05300105 	ldreq	r0, [r0, #-261]!	; 0xfffffefb
     664:	0d03062c 	stceq	6, cr0, [r3, #-176]	; 0xffffff50
     668:	0501062e 	streq	r0, [r1, #-1582]	; 0xfffff9d2
     66c:	014b0605 	cmpeq	fp, r5, lsl #12
     670:	02040200 	andeq	r0, r4, #0, 4
     674:	04020066 	streq	r0, [r2], #-102	; 0xffffff9a
     678:	02000102 	andeq	r0, r0, #-2147483648	; 0x80000000
     67c:	00140204 	andseq	r0, r4, r4, lsl #4
     680:	01020402 	tsteq	r2, r2, lsl #8
     684:	02040200 	andeq	r0, r4, #0, 4
     688:	0402004a 	streq	r0, [r2], #-74	; 0xffffffb6
     68c:	02000102 	andeq	r0, r0, #-2147483648	; 0x80000000
     690:	00130204 	andseq	r0, r3, r4, lsl #4
     694:	01020402 	tsteq	r2, r2, lsl #8
     698:	02040200 	andeq	r0, r4, #0, 4
     69c:	0402004a 	streq	r0, [r2], #-74	; 0xffffffb6
     6a0:	02050102 	andeq	r0, r5, #-2147483648	; 0x80000000
     6a4:	02040200 	andeq	r0, r4, #0, 4
     6a8:	001f0514 	andseq	r0, pc, r4, lsl r5	; <UNPREDICTABLE>
     6ac:	06020402 	streq	r0, [r2], -r2, lsl #8
     6b0:	00110501 	andseq	r0, r1, r1, lsl #10
     6b4:	2e020402 	cdpcs	4, 0, cr0, cr2, cr2, {0}
     6b8:	02000205 	andeq	r0, r0, #1342177280	; 0x50000000
     6bc:	2f060204 	svccs	0x00060204
     6c0:	02000705 	andeq	r0, r0, #1310720	; 0x140000
     6c4:	05010204 	streq	r0, [r1, #-516]	; 0xfffffdfc
     6c8:	04020002 	streq	r0, [r2], #-2
     6cc:	00010602 	andeq	r0, r1, r2, lsl #12
     6d0:	2e020402 	cdpcs	4, 0, cr0, cr2, cr2, {0}
     6d4:	02000505 	andeq	r0, r0, #20971520	; 0x1400000
     6d8:	03060104 	movweq	r0, #24836	; 0x6104
     6dc:	0200017a 	andeq	r0, r0, #-2147483618	; 0x8000001e
     6e0:	00010104 	andeq	r0, r1, r4, lsl #2
     6e4:	06010402 	streq	r0, [r1], -r2, lsl #8
     6e8:	0402009e 	streq	r0, [r2], #-158	; 0xffffff62
     6ec:	02002e01 	andeq	r2, r0, #1, 28
     6f0:	2e060104 	adfcss	f0, f6, f4
     6f4:	01040200 	mrseq	r0, R12_usr
     6f8:	04020030 	streq	r0, [r2], #-48	; 0xffffffd0
     6fc:	02000101 	andeq	r0, r0, #1073741824	; 0x40000000
     700:	9e060104 	adflss	f0, f6, f4
     704:	01040200 	mrseq	r0, R12_usr
     708:	0402002e 	streq	r0, [r2], #-46	; 0xffffffd2
     70c:	002e0601 	eoreq	r0, lr, r1, lsl #12
     710:	2f010402 	svccs	0x00010402
     714:	01040200 	mrseq	r0, R12_usr
     718:	04020001 	streq	r0, [r2], #-1
     71c:	009e0601 	addseq	r0, lr, r1, lsl #12
     720:	2e010402 	cdpcs	4, 0, cr0, cr1, cr2, {0}
     724:	01040200 	mrseq	r0, R12_usr
     728:	04052e06 	streq	r2, [r5], #-3590	; 0xfffff1fa
     72c:	06140535 			; <UNDEFINED> instruction: 0x06140535
     730:	06040501 	streq	r0, [r4], -r1, lsl #10
     734:	060e054c 	streq	r0, [lr], -ip, asr #10
     738:	06040501 	streq	r0, [r4], -r1, lsl #10
     73c:	0643052f 	strbeq	r0, [r3], -pc, lsr #10
     740:	06040501 	streq	r0, [r4], -r1, lsl #10
     744:	2e2e062f 	cfmadda32cs	mvax1, mvax0, mvfx14, mvfx15
     748:	02002605 	andeq	r2, r0, #5242880	; 0x500000
     74c:	03060204 	movweq	r0, #25092	; 0x6204
     750:	27050178 	smlsdxcs	r5, r8, r1, r0
     754:	02040200 	andeq	r0, r4, #0, 4
     758:	17050106 	strne	r0, [r5, -r6, lsl #2]
     75c:	01040200 	mrseq	r0, R12_usr
     760:	02052e06 	andeq	r2, r5, #96	; 0x60
     764:	01040200 	mrseq	r0, R12_usr
     768:	03050106 	movweq	r0, #20742	; 0x5106
     76c:	16054b06 	strne	r4, [r5], -r6, lsl #22
     770:	03050106 	movweq	r0, #20742	; 0x5106
     774:	06054b06 	streq	r4, [r5], -r6, lsl #22
     778:	1e050106 	adfnes	f0, f5, f6
     77c:	01040200 	mrseq	r0, R12_usr
     780:	0011054a 	andseq	r0, r1, sl, asr #10
     784:	2e010402 	cdpcs	4, 0, cr0, cr1, cr2, {0}
     788:	01040200 	mrseq	r0, R12_usr
     78c:	03010566 	movweq	r0, #5478	; 0x1566
     790:	054a0109 	strbeq	r0, [sl, #-265]	; 0xfffffef7
     794:	0500061c 	streq	r0, [r0, #-1564]	; 0xfffff9e4
     798:	00867002 	addeq	r7, r6, r2
     79c:	011e0300 	tsteq	lr, r0, lsl #6
     7a0:	054e0505 	strbeq	r0, [lr, #-1285]	; 0xfffffafb
     7a4:	14050109 	strne	r0, [r5], #-265	; 0xfffffef7
     7a8:	24050106 	strcs	r0, [r5], #-262	; 0xfffffefa
     7ac:	01040200 	mrseq	r0, R12_usr
     7b0:	05052e06 	streq	r2, [r5, #-3590]	; 0xfffff1fa
     7b4:	01040200 	mrseq	r0, R12_usr
     7b8:	09050106 	stmdbeq	r5, {r1, r2, r8}
     7bc:	03040200 	movweq	r0, #16896	; 0x4200
     7c0:	32054b06 	andcc	r4, r5, #6144	; 0x1800
     7c4:	03040200 	movweq	r0, #16896	; 0x4200
     7c8:	21050106 	tstcs	r5, r6, lsl #2
     7cc:	03040200 	movweq	r0, #16896	; 0x4200
     7d0:	0011054a 	andseq	r0, r1, sl, asr #10
     7d4:	2e030402 	cdpcs	4, 0, cr0, cr3, cr2, {0}
     7d8:	02002705 	andeq	r2, r0, #1310720	; 0x140000
     7dc:	2d060304 	stccs	3, cr0, [r6, #-16]
     7e0:	02002b05 	andeq	r2, r0, #5120	; 0x1400
     7e4:	01060304 	tsteq	r6, r4, lsl #6
     7e8:	03040200 	movweq	r0, #16896	; 0x4200
     7ec:	0402002e 	streq	r0, [r2], #-46	; 0xffffffd2
     7f0:	05052e03 	streq	r2, [r5, #-3587]	; 0xfffff1fd
     7f4:	06131806 	ldreq	r1, [r3], -r6, lsl #16
     7f8:	0532062e 	ldreq	r0, [r2, #-1582]!	; 0xfffff9d2
     7fc:	0501060d 	streq	r0, [r1, #-1549]	; 0xfffff9f3
     800:	054b0605 	strbeq	r0, [fp, #-1541]	; 0xfffff9fb
     804:	0501060d 	streq	r0, [r1, #-1549]	; 0xfffff9f3
     808:	052f0605 	streq	r0, [pc, #-1541]!	; 20b <__code_start__-0x7df5>
     80c:	0501060d 	streq	r0, [r1, #-1549]	; 0xfffff9f3
     810:	052f0605 	streq	r0, [pc, #-1541]!	; 213 <__code_start__-0x7ded>
     814:	0501060d 	streq	r0, [r1, #-1549]	; 0xfffff9f3
     818:	68300605 	ldmdavs	r0!, {r0, r2, r9, sl}
     81c:	18010101 	stmdane	r1, {r0, r8}
     820:	13681316 	cmnne	r8, #1476395008	; 0x58000000
     824:	67060105 	strvs	r0, [r6, -r5, lsl #2]
     828:	03061c05 	movweq	r1, #27653	; 0x6c05
     82c:	06ba7ef2 			; <UNDEFINED> instruction: 0x06ba7ef2
     830:	06050501 	streq	r0, [r5], -r1, lsl #10
     834:	0001144b 	andeq	r1, r1, fp, asr #8
     838:	4a020402 	bmi	81848 <__bss_end__+0x772c8>
     83c:	02040200 	andeq	r0, r4, #0, 4
     840:	04020001 	streq	r0, [r2], #-1
     844:	08051302 	stmdaeq	r5, {r1, r8, r9, ip}
     848:	02040200 	andeq	r0, r4, #0, 4
     84c:	07050106 	streq	r0, [r5, -r6, lsl #2]
     850:	02040200 	andeq	r0, r4, #0, 4
     854:	0609054a 	streq	r0, [r9], -sl, asr #10
     858:	0513144b 	ldreq	r1, [r3, #-1099]	; 0xfffffbb5
     85c:	4a010614 	bmi	420b4 <__bss_end__+0x37b34>
     860:	2f060905 	svccs	0x00060905
     864:	01061205 	tsteq	r6, r5, lsl #4
     868:	4b060905 	blmi	182c84 <__bss_end__+0x178704>
     86c:	0610054b 	ldreq	r0, [r0], -fp, asr #10
     870:	06050501 	streq	r0, [r5], -r1, lsl #10
     874:	060c054c 	streq	r0, [ip], -ip, asr #10
     878:	4b010501 	blmi	41c84 <__bss_end__+0x37704>
     87c:	02000505 	andeq	r0, r0, #20971520	; 0x1400000
     880:	03060104 	movweq	r0, #24836	; 0x6104
     884:	02004a75 	andeq	r4, r0, #479232	; 0x75000
     888:	00010104 	andeq	r0, r1, r4, lsl #2
     88c:	06010402 	streq	r0, [r1], -r2, lsl #8
     890:	040200ba 	streq	r0, [r2], #-186	; 0xffffff46
     894:	052e0601 	streq	r0, [lr, #-1537]!	; 0xfffff9ff
     898:	06013009 	streq	r3, [r1], -r9
     89c:	052e0682 	streq	r0, [lr, #-1666]!	; 0xfffff97e
     8a0:	018d0331 	orreq	r0, sp, r1, lsr r3
     8a4:	050106d6 	streq	r0, [r1, #-1750]	; 0xfffff92a
     8a8:	2f4b0605 	svccs	0x004b0605
     8ac:	01060c05 	tsteq	r6, r5, lsl #24
     8b0:	4e061a05 	vmlami.f32	s2, s12, s10
     8b4:	13320505 	teqne	r2, #20971520	; 0x1400000
     8b8:	01060805 	tsteq	r6, r5, lsl #16
     8bc:	52062205 	andpl	r2, r6, #1342177280	; 0x50000000
     8c0:	13320505 	teqne	r2, #20971520	; 0x1400000
     8c4:	01061705 	tsteq	r6, r5, lsl #14
     8c8:	03061605 	movweq	r1, #26117	; 0x6605
     8cc:	05054a16 	streq	r4, [r5, #-2582]	; 0xfffff5ea
     8d0:	17052f2f 	strne	r2, [r5, -pc, lsr #30]
     8d4:	1b050106 	blne	140cf4 <__bss_end__+0x136774>
     8d8:	05053506 	streq	r3, [r5, #-1286]	; 0xfffffafa
     8dc:	029e012f 	addseq	r0, lr, #-1073741813	; 0xc000000b
     8e0:	01010008 	tsteq	r1, r8
     8e4:	00000252 	andeq	r0, r0, r2, asr r2
     8e8:	008a0003 	addeq	r0, sl, r3
     8ec:	01020000 	mrseq	r0, (UNDEF: 2)
     8f0:	000d0efb 	strdeq	r0, [sp], -fp
     8f4:	01010101 	tsteq	r1, r1, lsl #2
     8f8:	01000000 	mrseq	r0, (UNDEF: 0)
     8fc:	2f010000 	svccs	0x00010000
     900:	72657355 	rsbvc	r7, r5, #1409286145	; 0x54000001
     904:	72742f73 	rsbsvc	r2, r4, #460	; 0x1cc
     908:	65747369 	ldrbvs	r7, [r4, #-873]!	; 0xfffffc97
     90c:	6c6f6e6e 	stclvs	14, cr6, [pc], #-440	; 75c <__code_start__-0x78a4>
     910:	6e616d6c 	cdpvs	13, 6, cr6, cr1, cr12, {3}
     914:	636f442f 	cmnvs	pc, #788529152	; 0x2f000000
     918:	6e656d75 	mcrvs	13, 3, r6, cr5, cr5, {3}
     91c:	532f7374 			; <UNDEFINED> instruction: 0x532f7374
     920:	6e697270 	mcrvs	2, 3, r7, cr9, cr0, {3}
     924:	75515f67 	ldrbvc	r5, [r1, #-3943]	; 0xfffff099
     928:	65747261 	ldrbvs	r7, [r4, #-609]!	; 0xfffffd9f
     92c:	30325f72 	eorscc	r5, r2, r2, ror pc
     930:	432f3232 			; <UNDEFINED> instruction: 0x432f3232
     934:	30343253 	eorscc	r3, r4, r3, asr r2
     938:	732d584c 			; <UNDEFINED> instruction: 0x732d584c
     93c:	32327270 	eorscc	r7, r2, #112, 4
     940:	62696c2f 	rsbvs	r6, r9, #12032	; 0x2f00
     944:	692f6970 	stmdbvs	pc!, {r4, r5, r6, r8, fp, sp, lr}	; <UNPREDICTABLE>
     948:	756c636e 	strbvc	r6, [ip, #-878]!	; 0xfffffc92
     94c:	00006564 	andeq	r6, r0, r4, ror #10
     950:	6d2d726b 	sfmvs	f7, 4, [sp, #-428]!	; 0xfffffe54
     954:	6f6c6c61 	svcvs	0x006c6c61
     958:	00632e63 	rsbeq	r2, r3, r3, ror #28
     95c:	72000000 	andvc	r0, r0, #0, 0
     960:	682e6970 	stmdavs	lr!, {r4, r5, r6, r8, fp, sp, lr}
     964:	00000100 	andeq	r0, r0, r0, lsl #2
     968:	6d2d726b 	sfmvs	f7, 4, [sp, #-428]!	; 0xfffffe54
     96c:	6f6c6c61 	svcvs	0x006c6c61
     970:	00682e63 	rsbeq	r2, r8, r3, ror #28
     974:	00000000 	andeq	r0, r0, r0
     978:	05001905 	streq	r1, [r0, #-2309]	; 0xfffff6fb
     97c:	00880c02 	addeq	r0, r8, r2, lsl #24
     980:	00d10300 	sbcseq	r0, r1, r0, lsl #6
     984:	05010601 	streq	r0, [r1, #-1537]	; 0xfffff9ff
     988:	132f0602 			; <UNDEFINED> instruction: 0x132f0602
     98c:	01060505 	tsteq	r6, r5, lsl #10
     990:	2f060205 	svccs	0x00060205
     994:	01060905 	tsteq	r6, r5, lsl #18
     998:	2e4a0205 	cdpcs	2, 4, cr0, cr10, cr5, {0}
     99c:	02001205 	andeq	r1, r0, #1342177280	; 0x50000000
     9a0:	2e060104 	adfcss	f0, f6, f4
     9a4:	02000205 	andeq	r0, r0, #1342177280	; 0x50000000
     9a8:	01060104 	tsteq	r6, r4, lsl #2
     9ac:	02002605 	andeq	r2, r0, #5242880	; 0x500000
     9b0:	054a0304 	strbeq	r0, [sl, #-772]	; 0xfffffcfc
     9b4:	04020012 	streq	r0, [r2], #-18	; 0xffffffee
     9b8:	03052e03 	movweq	r2, #24067	; 0x5e03
     9bc:	10054b06 	andne	r4, r5, r6, lsl #22
     9c0:	06050106 	streq	r0, [r5], -r6, lsl #2
     9c4:	0015052e 	andseq	r0, r5, lr, lsr #10
     9c8:	4a010402 	bmi	419d8 <__bss_end__+0x37458>
     9cc:	02002005 	andeq	r2, r0, #5, 0
     9d0:	004a0204 	subeq	r0, sl, r4, lsl #4
     9d4:	4a020402 	bmi	819e4 <__bss_end__+0x77464>
     9d8:	32060205 	andcc	r0, r6, #1342177280	; 0x50000000
     9dc:	01061005 	tsteq	r6, r5
     9e0:	052e0905 	streq	r0, [lr, #-2309]!	; 0xfffff6fb
     9e4:	05052e1d 	streq	r2, [r5, #-3613]	; 0xfffff1e3
     9e8:	060c052e 	streq	r0, [ip], -lr, lsr #10
     9ec:	0616054e 	ldreq	r0, [r6], -lr, asr #10
     9f0:	06080501 	streq	r0, [r8], -r1, lsl #10
     9f4:	0614052f 	ldreq	r0, [r4], -pc, lsr #10
     9f8:	2e0e0501 	cfsh32cs	mvfx0, mvfx14, #1
     9fc:	052e0b05 	streq	r0, [lr, #-2821]!	; 0xfffff4fb
     a00:	054e060c 	strbeq	r0, [lr, #-1548]	; 0xfffff9f4
     a04:	05010615 	streq	r0, [r1, #-1557]	; 0xfffff9eb
     a08:	05300602 	ldreq	r0, [r0, #-1538]!	; 0xfffff9fe
     a0c:	05010608 	streq	r0, [r1, #-1544]	; 0xfffff9f8
     a10:	0c054b01 			; <UNDEFINED> instruction: 0x0c054b01
     a14:	2e750306 	cdpcs	3, 7, cr0, cr5, cr6, {0}
     a18:	01062505 	tsteq	r6, r5, lsl #10
     a1c:	052e1705 	streq	r1, [lr, #-1797]!	; 0xfffff8fb
     a20:	054b060c 	strbeq	r0, [fp, #-1548]	; 0xfffff9f4
     a24:	0501061c 	streq	r0, [r1, #-1564]	; 0xfffff9e4
     a28:	16052e23 	strne	r2, [r5], -r3, lsr #28
     a2c:	060c052e 	streq	r0, [ip], -lr, lsr #10
     a30:	061e054e 	ldreq	r0, [lr], -lr, asr #10
     a34:	2e160501 	cfmul32cs	mvfx0, mvfx6, mvfx1
     a38:	4b060c05 	blmi	183a54 <__bss_end__+0x1794d4>
     a3c:	01061c05 	tsteq	r6, r5, lsl #24
     a40:	052e1505 	streq	r1, [lr, #-1285]!	; 0xfffffafb
     a44:	b703062a 	strlt	r0, [r3, -sl, lsr #12]
     a48:	0106667f 	tsteq	r6, pc, ror r6
     a4c:	4b060205 	blmi	181268 <__bss_end__+0x176ce8>
     a50:	05051413 	streq	r1, [r5, #-1043]	; 0xfffffbed
     a54:	07050106 	streq	r0, [r5, -r6, lsl #2]
     a58:	0602052f 	streq	r0, [r2], -pc, lsr #10
     a5c:	06070531 			; <UNDEFINED> instruction: 0x06070531
     a60:	06020501 	streq	r0, [r2], -r1, lsl #10
     a64:	0605054b 	streq	r0, [r5], -fp, asr #10
     a68:	06020501 	streq	r0, [r2], -r1, lsl #10
     a6c:	0d05134e 	stceq	3, cr1, [r5, #-312]	; 0xfffffec8
     a70:	02050106 	andeq	r0, r5, #-2147483647	; 0x80000001
     a74:	2e062f06 	cdpcs	15, 0, cr2, cr6, cr6, {0}
     a78:	09052f06 	stmdbeq	r5, {r1, r2, r8, r9, sl, fp, sp}
     a7c:	0a050106 	beq	140e9c <__bss_end__+0x13691c>
     a80:	05667a03 	strbeq	r7, [r6, #-2563]!	; 0xfffff5fd
     a84:	22053501 	andcs	r3, r5, #4194304	; 0x400000
     a88:	01064d06 	tsteq	r6, r6, lsl #26
     a8c:	2f060205 	svccs	0x00060205
     a90:	05141313 	ldreq	r1, [r4, #-787]	; 0xfffffced
     a94:	05010624 	streq	r0, [r1, #-1572]	; 0xfffff9dc
     a98:	09052e29 	stmdbeq	r5, {r0, r3, r5, r9, sl, fp, sp}
     a9c:	0602052e 	streq	r0, [r2], -lr, lsr #10
     aa0:	060d052f 	streq	r0, [sp], -pc, lsr #10
     aa4:	4a050501 	bmi	141eb0 <__bss_end__+0x137930>
     aa8:	50060205 	andpl	r0, r6, r5, lsl #4
     aac:	01060905 	tsteq	r6, r5, lsl #18
     ab0:	0603052e 	streq	r0, [r3], -lr, lsr #10
     ab4:	0616052a 	ldreq	r0, [r6], -sl, lsr #10
     ab8:	4a0e0501 	bmi	381ec4 <__bss_end__+0x377944>
     abc:	2f060305 	svccs	0x00060305
     ac0:	01060f05 	tsteq	r6, r5, lsl #30
     ac4:	6c060405 	cfstrsvs	mvf0, [r6], {5}
     ac8:	01060705 	tsteq	r6, r5, lsl #14
     acc:	32060505 	andcc	r0, r6, #20971520	; 0x1400000
     ad0:	01060f05 	tsteq	r6, r5, lsl #30
     ad4:	4b060505 	blmi	181ef0 <__bss_end__+0x177970>
     ad8:	01060705 	tsteq	r6, r5, lsl #14
     adc:	2f060505 	svccs	0x00060505
     ae0:	01060f05 	tsteq	r6, r5, lsl #30
     ae4:	30060405 	andcc	r0, r6, r5, lsl #8
     ae8:	01060a05 	tsteq	r6, r5, lsl #20
     aec:	4b060405 	blmi	181b08 <__bss_end__+0x177588>
     af0:	01060b05 	tsteq	r6, r5, lsl #22
     af4:	0605052e 	streq	r0, [r5], -lr, lsr #10
     af8:	052e7903 	streq	r7, [lr, #-2307]!	; 0xfffff6fd
     afc:	05010618 	streq	r0, [r1, #-1560]	; 0xfffff9e8
     b00:	1a052e12 	bne	14c350 <__bss_end__+0x141dd0>
     b04:	18054506 	stmdane	r5, {r1, r2, r8, sl, lr}
     b08:	06200501 	strteq	r0, [r0], -r1, lsl #10
     b0c:	2e270501 	cfsh64cs	mvdx0, mvdx7, #1
     b10:	2f060305 	svccs	0x00060305
     b14:	01060b05 	tsteq	r6, r5, lsl #22
     b18:	052e0605 	streq	r0, [lr, #-1541]!	; 0xfffff9fb
     b1c:	0e030603 	cfmadd32eq	mvax0, mvfx0, mvfx3, mvfx3
     b20:	0609054a 	streq	r0, [r9], -sl, asr #10
     b24:	4a060501 	bmi	181f30 <__bss_end__+0x1779b0>
     b28:	4c060405 	cfstrsmi	mvf0, [r6], {5}
     b2c:	01060d05 	tsteq	r6, r5, lsl #26
     b30:	2e07052e 	cfsh32cs	mvfx0, mvfx7, #30
     b34:	0006022e 	andeq	r0, r6, lr, lsr #4
     b38:	01140101 	tsteq	r4, r1, lsl #2
     b3c:	00030000 	andeq	r0, r3, r0
     b40:	000000e4 	andeq	r0, r0, r4, ror #1
     b44:	0efb0102 	cdpeq	1, 15, cr0, cr11, cr2, {0}
     b48:	0101000d 	tsteq	r1, sp
     b4c:	00000101 	andeq	r0, r0, r1, lsl #2
     b50:	00000100 	andeq	r0, r0, r0, lsl #2
     b54:	6c2f2e01 	stcvs	14, cr2, [pc], #-4	; b58 <__code_start__-0x74a8>
     b58:	00636269 	rsbeq	r6, r3, r9, ror #4
     b5c:	6573552f 	ldrbvs	r5, [r3, #-1327]!	; 0xfffffad1
     b60:	742f7372 	strtvc	r7, [pc], #-882	; b68 <__code_start__-0x7498>
     b64:	74736972 	ldrbtvc	r6, [r3], #-2418	; 0xfffff68e
     b68:	6f6e6e65 	svcvs	0x006e6e65
     b6c:	616d6c6c 	cmnvs	sp, ip, ror #24
     b70:	6f442f6e 	svcvs	0x00442f6e
     b74:	656d7563 	strbvs	r7, [sp, #-1379]!	; 0xfffffa9d
     b78:	2f73746e 	svccs	0x0073746e
     b7c:	69727053 	ldmdbvs	r2!, {r0, r1, r4, r6, ip, sp, lr}^
     b80:	515f676e 	cmppl	pc, lr, ror #14
     b84:	74726175 	ldrbtvc	r6, [r2], #-373	; 0xfffffe8b
     b88:	325f7265 	subscc	r7, pc, #1342177286	; 0x50000006
     b8c:	2f323230 	svccs	0x00323230
     b90:	34325343 	ldrtcc	r5, [r2], #-835	; 0xfffffcbd
     b94:	2d584c30 	ldclcs	12, cr4, [r8, #-192]	; 0xffffff40
     b98:	32727073 	rsbscc	r7, r2, #115, 0	; 0x73
     b9c:	696c2f32 	stmdbvs	ip!, {r1, r4, r5, r8, r9, sl, fp, sp}^
     ba0:	2f697062 	svccs	0x00697062
     ba4:	6c636e69 	stclvs	14, cr6, [r3], #-420	; 0xfffffe5c
     ba8:	00656475 	rsbeq	r6, r5, r5, ror r4
     bac:	7273752f 	rsbsvc	r7, r3, #197132288	; 0xbc00000
     bb0:	636f6c2f 	cmnvs	pc, #12032	; 0x2f00
     bb4:	432f6c61 			; <UNDEFINED> instruction: 0x432f6c61
     bb8:	616c6c65 	cmnvs	ip, r5, ror #24
     bbc:	72612f72 	rsbvc	r2, r1, #456	; 0x1c8
     bc0:	6f6e2d6d 	svcvs	0x006e2d6d
     bc4:	652d656e 	strvs	r6, [sp, #-1390]!	; 0xfffffa92
     bc8:	2d696261 	sfmcs	f6, 2, [r9, #-388]!	; 0xfffffe7c
     bcc:	74736574 	ldrbtvc	r6, [r3], #-1396	; 0xfffffa8c
     bd0:	322d392f 	eorcc	r3, sp, #770048	; 0xbc000
     bd4:	71393130 	teqvc	r9, r0, lsr r1
     bd8:	73632d34 	cmnvc	r3, #52, 26	; 0xd00
     bdc:	65373031 	ldrvs	r3, [r7, #-49]!	; 0xffffffcf
     be0:	62696c2f 	rsbvs	r6, r9, #12032	; 0x2f00
     be4:	6363672f 	cmnvs	r3, #12320768	; 0xbc0000
     be8:	6d72612f 	ldfvse	f6, [r2, #-188]!	; 0xffffff44
     bec:	6e6f6e2d 	cdpvs	14, 6, cr6, cr15, cr13, {1}
     bf0:	61652d65 	cmnvs	r5, r5, ror #26
     bf4:	392f6962 	stmdbcc	pc!, {r1, r5, r6, r8, fp, sp, lr}	; <UNPREDICTABLE>
     bf8:	312e322e 			; <UNDEFINED> instruction: 0x312e322e
     bfc:	636e692f 	cmnvs	lr, #770048	; 0xbc000
     c00:	6564756c 	strbvs	r7, [r4, #-1388]!	; 0xfffffa94
     c04:	656d0000 	strbvs	r0, [sp, #-0]!
     c08:	7465736d 	strbtvc	r7, [r5], #-877	; 0xfffffc93
     c0c:	0100632e 	tsteq	r0, lr, lsr #6
     c10:	70720000 	rsbsvc	r0, r2, r0
     c14:	00682e69 	rsbeq	r2, r8, r9, ror #28
     c18:	73000002 	movwvc	r0, #2
     c1c:	65646474 	strbvs	r6, [r4, #-1140]!	; 0xfffffb8c
     c20:	00682e66 	rsbeq	r2, r8, r6, ror #28
     c24:	00000003 	andeq	r0, r0, r3
     c28:	05002905 	streq	r2, [r0, #-2309]	; 0xfffff6fb
     c2c:	0089b802 	addeq	fp, r9, r2, lsl #16
     c30:	05051500 	streq	r1, [r5, #-1280]	; 0xfffffb00
     c34:	06140513 			; <UNDEFINED> instruction: 0x06140513
     c38:	06050501 	streq	r0, [r5], -r1, lsl #10
     c3c:	060b0530 			; <UNDEFINED> instruction: 0x060b0530
     c40:	060a0510 			; <UNDEFINED> instruction: 0x060a0510
     c44:	4b090530 	blmi	24210c <__bss_end__+0x237b8c>
     c48:	01060e05 	tsteq	r6, r5, lsl #28
     c4c:	0002022e 	andeq	r0, r2, lr, lsr #4
     c50:	01330101 	teqeq	r3, r1, lsl #2
     c54:	00030000 	andeq	r0, r3, r0
     c58:	00000101 	andeq	r0, r0, r1, lsl #2
     c5c:	0efb0102 	cdpeq	1, 15, cr0, cr11, cr2, {0}
     c60:	0101000d 	tsteq	r1, sp
     c64:	00000101 	andeq	r0, r0, r1, lsl #2
     c68:	00000100 	andeq	r0, r0, r0, lsl #2
     c6c:	6c2f2e01 	stcvs	14, cr2, [pc], #-4	; c70 <__code_start__-0x7390>
     c70:	00636269 	rsbeq	r6, r3, r9, ror #4
     c74:	7273752f 	rsbsvc	r7, r3, #197132288	; 0xbc00000
     c78:	636f6c2f 	cmnvs	pc, #12032	; 0x2f00
     c7c:	432f6c61 			; <UNDEFINED> instruction: 0x432f6c61
     c80:	616c6c65 	cmnvs	ip, r5, ror #24
     c84:	72612f72 	rsbvc	r2, r1, #456	; 0x1c8
     c88:	6f6e2d6d 	svcvs	0x006e2d6d
     c8c:	652d656e 	strvs	r6, [sp, #-1390]!	; 0xfffffa92
     c90:	2d696261 	sfmcs	f6, 2, [r9, #-388]!	; 0xfffffe7c
     c94:	74736574 	ldrbtvc	r6, [r3], #-1396	; 0xfffffa8c
     c98:	322d392f 	eorcc	r3, sp, #770048	; 0xbc000
     c9c:	71393130 	teqvc	r9, r0, lsr r1
     ca0:	73632d34 	cmnvc	r3, #52, 26	; 0xd00
     ca4:	65373031 	ldrvs	r3, [r7, #-49]!	; 0xffffffcf
     ca8:	62696c2f 	rsbvs	r6, r9, #12032	; 0x2f00
     cac:	6363672f 	cmnvs	r3, #12320768	; 0xbc0000
     cb0:	6d72612f 	ldfvse	f6, [r2, #-188]!	; 0xffffff44
     cb4:	6e6f6e2d 	cdpvs	14, 6, cr6, cr15, cr13, {1}
     cb8:	61652d65 	cmnvs	r5, r5, ror #26
     cbc:	392f6962 	stmdbcc	pc!, {r1, r5, r6, r8, fp, sp, lr}	; <UNPREDICTABLE>
     cc0:	312e322e 			; <UNDEFINED> instruction: 0x312e322e
     cc4:	636e692f 	cmnvs	lr, #770048	; 0xbc000
     cc8:	6564756c 	strbvs	r7, [r4, #-1388]!	; 0xfffffa94
     ccc:	73552f00 	cmpvc	r5, #0, 30
     cd0:	2f737265 	svccs	0x00737265
     cd4:	73697274 	cmnvc	r9, #116, 4	; 0x40000007
     cd8:	6e6e6574 	mcrvs	5, 3, r6, cr14, cr4, {3}
     cdc:	6d6c6c6f 	stclvs	12, cr6, [ip, #-444]!	; 0xfffffe44
     ce0:	442f6e61 	strtmi	r6, [pc], #-3681	; ce8 <__code_start__-0x7318>
     ce4:	6d75636f 	ldclvs	3, cr6, [r5, #-444]!	; 0xfffffe44
     ce8:	73746e65 	cmnvc	r4, #1616	; 0x650
     cec:	7270532f 	rsbsvc	r5, r0, #-1140850688	; 0xbc000000
     cf0:	5f676e69 	svcpl	0x00676e69
     cf4:	72617551 	rsbvc	r7, r1, #339738624	; 0x14400000
     cf8:	5f726574 	svcpl	0x00726574
     cfc:	32323032 	eorscc	r3, r2, #50, 0	; 0x32
     d00:	3253432f 	subscc	r4, r3, #-1140850688	; 0xbc000000
     d04:	584c3034 	stmdapl	ip, {r2, r4, r5, ip, sp}^
     d08:	7270732d 	rsbsvc	r7, r0, #-1275068416	; 0xb4000000
     d0c:	6c2f3232 	sfmvs	f3, 4, [pc], #-200	; c4c <__code_start__-0x73b4>
     d10:	69706269 	ldmdbvs	r0!, {r0, r3, r5, r6, r9, sp, lr}^
     d14:	636e692f 	cmnvs	lr, #770048	; 0xbc000
     d18:	6564756c 	strbvs	r7, [r4, #-1388]!	; 0xfffffa94
     d1c:	72700000 	rsbsvc	r0, r0, #0, 0
     d20:	6b746e69 	blvs	1d1c6cc <__bss_end__+0x1d1214c>
     d24:	0100632e 	tsteq	r0, lr, lsr #6
     d28:	74730000 	ldrbtvc	r0, [r3], #-0
     d2c:	67726164 	ldrbvs	r6, [r2, -r4, ror #2]!
     d30:	0200682e 	andeq	r6, r0, #3014656	; 0x2e0000
     d34:	70720000 	rsbsvc	r0, r2, r0
     d38:	00682e69 	rsbeq	r2, r8, r9, ror #28
     d3c:	3c000003 	stccc	0, cr0, [r0], {3}
     d40:	6c697562 	cfstr64vs	mvdx7, [r9], #-392	; 0xfffffe78
     d44:	6e692d74 	mcrvs	13, 3, r2, cr9, cr4, {3}
     d48:	0000003e 	andeq	r0, r0, lr, lsr r0
     d4c:	2d617600 	stclcs	6, cr7, [r1, #-0]
     d50:	6e697270 	mcrvs	2, 3, r7, cr9, cr0, {3}
     d54:	682e6b74 	stmdavs	lr!, {r2, r4, r5, r6, r8, r9, fp, sp, lr}
     d58:	00000100 	andeq	r0, r0, r0, lsl #2
     d5c:	00220500 	eoreq	r0, r2, r0, lsl #10
     d60:	89d00205 	ldmibhi	r0, {r0, r2, r9}^
     d64:	06170000 	ldreq	r0, [r7], -r0
     d68:	06050501 	streq	r0, [r5], -r1, lsl #10
     d6c:	05141368 	ldreq	r1, [r4, #-872]	; 0xfffffc98
     d70:	12054b09 	andne	r4, r5, #9216	; 0x2400
     d74:	05050106 	streq	r0, [r5, #-262]	; 0xfffffefa
     d78:	0616bb06 	ldreq	fp, [r6], -r6, lsl #22
     d7c:	05340666 	ldreq	r0, [r4, #-1638]!	; 0xfffff99a
     d80:	66130601 	ldrvs	r0, [r3], -r1, lsl #12
     d84:	01000802 	tsteq	r0, r2, lsl #16
     d88:	0000cb01 	andeq	ip, r0, r1, lsl #22
     d8c:	7d000300 	stcvc	3, cr0, [r0, #-0]
     d90:	02000000 	andeq	r0, r0, #0, 0
     d94:	0d0efb01 	vstreq	d15, [lr, #-4]
     d98:	01010100 	mrseq	r0, (UNDEF: 17)
     d9c:	00000001 	andeq	r0, r0, r1
     da0:	01000001 	tsteq	r0, r1
     da4:	696c2f2e 	stmdbvs	ip!, {r1, r2, r3, r5, r8, r9, sl, fp, sp}^
     da8:	2f006362 	svccs	0x00006362
     dac:	72657355 	rsbvc	r7, r5, #1409286145	; 0x54000001
     db0:	72742f73 	rsbsvc	r2, r4, #460	; 0x1cc
     db4:	65747369 	ldrbvs	r7, [r4, #-873]!	; 0xfffffc97
     db8:	6c6f6e6e 	stclvs	14, cr6, [pc], #-440	; c08 <__code_start__-0x73f8>
     dbc:	6e616d6c 	cdpvs	13, 6, cr6, cr1, cr12, {3}
     dc0:	636f442f 	cmnvs	pc, #788529152	; 0x2f000000
     dc4:	6e656d75 	mcrvs	13, 3, r6, cr5, cr5, {3}
     dc8:	532f7374 			; <UNDEFINED> instruction: 0x532f7374
     dcc:	6e697270 	mcrvs	2, 3, r7, cr9, cr0, {3}
     dd0:	75515f67 	ldrbvc	r5, [r1, #-3943]	; 0xfffff099
     dd4:	65747261 	ldrbvs	r7, [r4, #-609]!	; 0xfffffd9f
     dd8:	30325f72 	eorscc	r5, r2, r2, ror pc
     ddc:	432f3232 			; <UNDEFINED> instruction: 0x432f3232
     de0:	30343253 	eorscc	r3, r4, r3, asr r2
     de4:	732d584c 			; <UNDEFINED> instruction: 0x732d584c
     de8:	32327270 	eorscc	r7, r2, #112, 4
     dec:	62696c2f 	rsbvs	r6, r9, #12032	; 0x2f00
     df0:	692f6970 	stmdbvs	pc!, {r4, r5, r6, r8, fp, sp, lr}	; <UNPREDICTABLE>
     df4:	756c636e 	strbvc	r6, [ip, #-878]!	; 0xfffffc92
     df8:	00006564 	andeq	r6, r0, r4, ror #10
     dfc:	6b747570 	blvs	1d1e3c4 <__bss_end__+0x1d13e44>
     e00:	0100632e 	tsteq	r0, lr, lsr #6
     e04:	70720000 	rsbsvc	r0, r2, r0
     e08:	00682e69 	rsbeq	r2, r8, r9, ror #28
     e0c:	00000002 	andeq	r0, r0, r2
     e10:	05002205 	streq	r2, [r0, #-517]	; 0xfffffdfb
     e14:	008a2802 	addeq	r2, sl, r2, lsl #16
     e18:	01061500 	tsteq	r6, r0, lsl #10
     e1c:	4b060505 	blmi	182238 <__bss_end__+0x177cb8>
     e20:	02000b05 	andeq	r0, r0, #5120	; 0x1400
     e24:	05010104 	streq	r0, [r1, #-260]	; 0xfffffefc
     e28:	04020005 	streq	r0, [r2], #-5
     e2c:	052e0601 	streq	r0, [lr, #-1537]!	; 0xfffff9ff
     e30:	04020009 	streq	r0, [r2], #-9
     e34:	054b0602 	strbeq	r0, [fp, #-1538]	; 0xfffff9fe
     e38:	0402000f 	streq	r0, [r2], #-15
     e3c:	10056502 	andne	r6, r5, r2, lsl #10
     e40:	02040200 	andeq	r0, r4, #0, 4
     e44:	02000106 	andeq	r0, r0, #-2147483647	; 0x80000001
     e48:	052e0204 	streq	r0, [lr, #-516]!	; 0xfffffdfc
     e4c:	05320605 	ldreq	r0, [r2, #-1541]!	; 0xfffff9fb
     e50:	02130601 	andseq	r0, r3, #1048576	; 0x100000
     e54:	01010006 	tsteq	r1, r6
     e58:	0000061d 	andeq	r0, r0, sp, lsl r6
     e5c:	01170003 	tsteq	r7, r3
     e60:	01020000 	mrseq	r0, (UNDEF: 2)
     e64:	000d0efb 	strdeq	r0, [sp], -fp
     e68:	01010101 	tsteq	r1, r1, lsl #2
     e6c:	01000000 	mrseq	r0, (UNDEF: 0)
     e70:	2e010000 	cdpcs	0, 0, cr0, cr1, cr0, {0}
     e74:	62696c2f 	rsbvs	r6, r9, #12032	; 0x2f00
     e78:	752f0063 	strvc	r0, [pc, #-99]!	; e1d <__code_start__-0x71e3>
     e7c:	6c2f7273 	sfmvs	f7, 4, [pc], #-460	; cb8 <__code_start__-0x7348>
     e80:	6c61636f 	stclvs	3, cr6, [r1], #-444	; 0xfffffe44
     e84:	6c65432f 	stclvs	3, cr4, [r5], #-188	; 0xffffff44
     e88:	2f72616c 	svccs	0x0072616c
     e8c:	2d6d7261 	sfmcs	f7, 2, [sp, #-388]!	; 0xfffffe7c
     e90:	656e6f6e 	strbvs	r6, [lr, #-3950]!	; 0xfffff092
     e94:	6261652d 	rsbvs	r6, r1, #188743680	; 0xb400000
     e98:	65742d69 	ldrbvs	r2, [r4, #-3433]!	; 0xfffff297
     e9c:	392f7473 	stmdbcc	pc!, {r0, r1, r4, r5, r6, sl, ip, sp, lr}	; <UNPREDICTABLE>
     ea0:	3130322d 	teqcc	r0, sp, lsr #4
     ea4:	2d347139 	ldfcss	f7, [r4, #-228]!	; 0xffffff1c
     ea8:	30317363 	eorscc	r7, r1, r3, ror #6
     eac:	6c2f6537 	cfstr32vs	mvfx6, [pc], #-220	; dd8 <__code_start__-0x7228>
     eb0:	672f6269 	strvs	r6, [pc, -r9, ror #4]!
     eb4:	612f6363 			; <UNDEFINED> instruction: 0x612f6363
     eb8:	6e2d6d72 	mcrvs	13, 1, r6, cr13, cr2, {3}
     ebc:	2d656e6f 	stclcs	14, cr6, [r5, #-444]!	; 0xfffffe44
     ec0:	69626165 	stmdbvs	r2!, {r0, r2, r5, r6, r8, sp, lr}^
     ec4:	322e392f 	eorcc	r3, lr, #770048	; 0xbc000
     ec8:	692f312e 	stmdbvs	pc!, {r1, r2, r3, r5, r8, ip, sp}	; <UNPREDICTABLE>
     ecc:	756c636e 	strbvc	r6, [ip, #-878]!	; 0xfffffc92
     ed0:	2f006564 	svccs	0x00006564
     ed4:	72657355 	rsbvc	r7, r5, #1409286145	; 0x54000001
     ed8:	72742f73 	rsbsvc	r2, r4, #460	; 0x1cc
     edc:	65747369 	ldrbvs	r7, [r4, #-873]!	; 0xfffffc97
     ee0:	6c6f6e6e 	stclvs	14, cr6, [pc], #-440	; d30 <__code_start__-0x72d0>
     ee4:	6e616d6c 	cdpvs	13, 6, cr6, cr1, cr12, {3}
     ee8:	636f442f 	cmnvs	pc, #788529152	; 0x2f000000
     eec:	6e656d75 	mcrvs	13, 3, r6, cr5, cr5, {3}
     ef0:	532f7374 			; <UNDEFINED> instruction: 0x532f7374
     ef4:	6e697270 	mcrvs	2, 3, r7, cr9, cr0, {3}
     ef8:	75515f67 	ldrbvc	r5, [r1, #-3943]	; 0xfffff099
     efc:	65747261 	ldrbvs	r7, [r4, #-609]!	; 0xfffffd9f
     f00:	30325f72 	eorscc	r5, r2, r2, ror pc
     f04:	432f3232 			; <UNDEFINED> instruction: 0x432f3232
     f08:	30343253 	eorscc	r3, r4, r3, asr r2
     f0c:	732d584c 			; <UNDEFINED> instruction: 0x732d584c
     f10:	32327270 	eorscc	r7, r2, #112, 4
     f14:	62696c2f 	rsbvs	r6, r9, #12032	; 0x2f00
     f18:	692f6970 	stmdbvs	pc!, {r4, r5, r6, r8, fp, sp, lr}	; <UNPREDICTABLE>
     f1c:	756c636e 	strbvc	r6, [ip, #-878]!	; 0xfffffc92
     f20:	00006564 	andeq	r6, r0, r4, ror #10
     f24:	702d6176 	eorvc	r6, sp, r6, ror r1
     f28:	746e6972 	strbtvc	r6, [lr], #-2418	; 0xfffff68e
     f2c:	00632e6b 	rsbeq	r2, r3, fp, ror #28
     f30:	73000001 	movwvc	r0, #1
     f34:	6e696474 	mcrvs	4, 3, r6, cr9, cr4, {3}
     f38:	63672d74 	cmnvs	r7, #116, 26	; 0x1d00
     f3c:	00682e63 	rsbeq	r2, r8, r3, ror #28
     f40:	72000002 	andvc	r0, r0, #2, 0
     f44:	682e6970 	stmdavs	lr!, {r4, r5, r6, r8, fp, sp, lr}
     f48:	00000300 	andeq	r0, r0, r0, lsl #6
     f4c:	2d697072 	stclcs	0, cr7, [r9, #-456]!	; 0xfffffe38
     f50:	65746e69 	ldrbvs	r6, [r4, #-3689]!	; 0xfffff197
     f54:	6c616e72 	stclvs	14, cr6, [r1], #-456	; 0xfffffe38
     f58:	0300682e 	movweq	r6, #2094	; 0x82e
     f5c:	74730000 	ldrbtvc	r0, [r3], #-0
     f60:	67726164 	ldrbvs	r6, [r2, -r4, ror #2]!
     f64:	0200682e 	andeq	r6, r0, #3014656	; 0x2e0000
     f68:	623c0000 	eorsvs	r0, ip, #0, 0
     f6c:	746c6975 	strbtvc	r6, [ip], #-2421	; 0xfffff68b
     f70:	3e6e692d 	vmulcc.f16	s13, s28, s27	; <UNPREDICTABLE>
     f74:	00000000 	andeq	r0, r0, r0
     f78:	001b0500 	andseq	r0, fp, r0, lsl #10
     f7c:	8a5c0205 	bhi	1701798 <__bss_end__+0x16f7218>
     f80:	26030000 	strcs	r0, [r3], -r0
     f84:	011d0501 	tsteq	sp, r1, lsl #10
     f88:	01062d05 	tsteq	r6, r5, lsl #26
     f8c:	4a2e0105 	bmi	b813a8 <__bss_end__+0xb76e28>
     f90:	51063305 	tstpl	r6, r5, lsl #6
     f94:	05130205 	ldreq	r0, [r3, #-517]	; 0xfffffdfb
     f98:	05010606 	streq	r0, [r1, #-1542]	; 0xfffff9fa
     f9c:	05300602 	ldreq	r0, [r0, #-1538]!	; 0xfffff9fe
     fa0:	04020008 	streq	r0, [r2], #-8
     fa4:	02050101 	andeq	r0, r5, #1073741824	; 0x40000000
     fa8:	01040200 	mrseq	r0, R12_usr
     fac:	03050106 	movweq	r0, #20742	; 0x5106
     fb0:	02040200 	andeq	r0, r4, #0, 4
     fb4:	08052f06 	stmdaeq	r5, {r1, r2, r8, r9, sl, fp, sp}
     fb8:	02040200 	andeq	r0, r4, #0, 4
     fbc:	15050106 	strne	r0, [r5, #-262]	; 0xfffffefa
     fc0:	02040200 	andeq	r0, r4, #0, 4
     fc4:	18054906 	stmdane	r5, {r1, r2, r8, fp, lr}
     fc8:	02040200 	andeq	r0, r4, #0, 4
     fcc:	02000106 	andeq	r0, r0, #-2147483647	; 0x80000001
     fd0:	052e0204 	streq	r0, [lr, #-516]!	; 0xfffffdfc
     fd4:	05300602 	ldreq	r0, [r0, #-1538]!	; 0xfffff9fe
     fd8:	05010605 	streq	r0, [r1, #-1541]	; 0xfffff9fb
     fdc:	054b0602 	strbeq	r0, [fp, #-1538]	; 0xfffff9fe
     fe0:	05130601 	ldreq	r0, [r3, #-1537]	; 0xfffff9ff
     fe4:	0531063e 	ldreq	r0, [r1, #-1598]!	; 0xfffff9c2
     fe8:	0e051402 	cdpeq	4, 0, cr1, cr5, cr2, {0}
     fec:	06050106 	streq	r0, [r5], -r6, lsl #2
     ff0:	0602052e 	streq	r0, [r2], -lr, lsr #10
     ff4:	0604052f 	streq	r0, [r4], -pc, lsr #10
     ff8:	06030501 	streq	r0, [r3], -r1, lsl #10
     ffc:	0611052f 	ldreq	r0, [r1], -pc, lsr #10
    1000:	2e090501 	cfsh32cs	mvfx0, mvfx9, #1
    1004:	30060205 	andcc	r0, r6, r5, lsl #4
    1008:	06070515 			; <UNDEFINED> instruction: 0x06070515
    100c:	2e020501 	cfsh32cs	mvfx0, mvfx2, #1
    1010:	02000b05 	andeq	r0, r0, #5120	; 0x1400
    1014:	2e060104 	adfcss	f0, f6, f4
    1018:	02000205 	andeq	r0, r0, #1342177280	; 0x50000000
    101c:	01060104 	tsteq	r6, r4, lsl #2
    1020:	02000305 	andeq	r0, r0, #335544320	; 0x14000000
    1024:	2f060304 	svccs	0x00060304
    1028:	02000c05 	andeq	r0, r0, #1280	; 0x500
    102c:	01060304 	tsteq	r6, r4, lsl #6
    1030:	02000a05 	andeq	r0, r0, #20480	; 0x5000
    1034:	052e0304 	streq	r0, [lr, #-772]!	; 0xfffffcfc
    1038:	04020017 	streq	r0, [r2], #-23	; 0xffffffe9
    103c:	002d0603 	eoreq	r0, sp, r3, lsl #12
    1040:	06030402 	streq	r0, [r3], -r2, lsl #8
    1044:	06020501 	streq	r0, [r2], -r1, lsl #10
    1048:	06090530 			; <UNDEFINED> instruction: 0x06090530
    104c:	02052e01 	andeq	r2, r5, #1, 28
    1050:	01053006 	tsteq	r5, r6
    1054:	49051306 	stmdbmi	r5, {r1, r2, r8, r9, ip}
    1058:	01063106 	tsteq	r6, r6, lsl #2
    105c:	a0060205 	andge	r0, r6, r5, lsl #4
    1060:	01060405 	tsteq	r6, r5, lsl #8
    1064:	2f060305 	svccs	0x00060305
    1068:	01060905 	tsteq	r6, r5, lsl #18
    106c:	30060205 	andcc	r0, r6, r5, lsl #4
    1070:	060b0513 			; <UNDEFINED> instruction: 0x060b0513
    1074:	06020501 	streq	r0, [r2], -r1, lsl #10
    1078:	052e0630 	streq	r0, [lr, #-1584]!	; 0xfffff9d0
    107c:	24020604 	strcs	r0, [r2], #-1540	; 0xfffff9fc
    1080:	0f051315 	svceq	0x00051315
    1084:	052e0106 	streq	r0, [lr, #-262]!	; 0xfffffefa
    1088:	05054a06 	streq	r4, [r5, #-2566]	; 0xfffff5fa
    108c:	05134b06 	ldreq	r4, [r3, #-2822]	; 0xfffff4fa
    1090:	05010609 	streq	r0, [r1, #-1545]	; 0xfffff9f7
    1094:	052f0605 	streq	r0, [pc, #-1541]!	; a97 <__code_start__-0x7569>
    1098:	0510060b 	ldreq	r0, [r0, #-1547]	; 0xfffff9f5
    109c:	0402000d 	streq	r0, [r2], #-13
    10a0:	04052c01 	streq	r2, [r5], #-3073	; 0xfffff3ff
    10a4:	01040200 	mrseq	r0, R12_usr
    10a8:	05053406 	streq	r3, [r5, #-1030]	; 0xfffffbfa
    10ac:	01040200 	mrseq	r0, R12_usr
    10b0:	001b0513 	andseq	r0, fp, r3, lsl r5
    10b4:	06010402 	streq	r0, [r1], -r2, lsl #8
    10b8:	00070501 	andeq	r0, r7, r1, lsl #10
    10bc:	d6010402 	strle	r0, [r1], -r2, lsl #8
    10c0:	02001805 	andeq	r1, r0, #327680	; 0x50000
    10c4:	052e0104 	streq	r0, [lr, #-260]!	; 0xfffffefc
    10c8:	0402000a 	streq	r0, [r2], #-10
    10cc:	0b054a01 	bleq	1538d8 <__bss_end__+0x149358>
    10d0:	01040200 	mrseq	r0, R12_usr
    10d4:	0e052f06 	cdpeq	15, 0, cr2, cr5, cr6, {0}
    10d8:	01040200 	mrseq	r0, R12_usr
    10dc:	04052e06 	streq	r2, [r5], #-3590	; 0xfffff1fa
    10e0:	01040200 	mrseq	r0, R12_usr
    10e4:	054b062e 	strbeq	r0, [fp, #-1582]	; 0xfffff9d2
    10e8:	05010606 	streq	r0, [r1, #-1542]	; 0xfffff9fa
    10ec:	052f0605 	streq	r0, [pc, #-1541]!	; aef <__code_start__-0x7511>
    10f0:	0501060a 	streq	r0, [r1, #-1546]	; 0xfffff9f6
    10f4:	052e4a07 	streq	r4, [lr, #-2567]!	; 0xfffff5f9
    10f8:	2e76030d 	cdpcs	3, 7, cr0, cr6, cr13, {0}
    10fc:	0d0b054a 	cfstr32eq	mvfx0, [fp, #-296]	; 0xfffffed8
    1100:	02000d05 	andeq	r0, r0, #320	; 0x140
    1104:	03060104 	movweq	r0, #24836	; 0x6104
    1108:	11052e14 	tstne	r5, r4, lsl lr
    110c:	01040200 	mrseq	r0, R12_usr
    1110:	002d0513 	eoreq	r0, sp, r3, lsl r5
    1114:	06010402 	streq	r0, [r1], -r2, lsl #8
    1118:	002a0501 	eoreq	r0, sl, r1, lsl #10
    111c:	2e010402 	cdpcs	4, 0, cr0, cr1, cr2, {0}
    1120:	02001605 	andeq	r1, r0, #5242880	; 0x500000
    1124:	054a0104 	strbeq	r0, [sl, #-260]	; 0xfffffefc
    1128:	04020014 	streq	r0, [r2], #-20	; 0xffffffec
    112c:	054b0601 	strbeq	r0, [fp, #-1537]	; 0xfffff9ff
    1130:	0402000d 	streq	r0, [r2], #-13
    1134:	00010601 	andeq	r0, r1, r1, lsl #12
    1138:	4a010402 	bmi	42148 <__bss_end__+0x37bc8>
    113c:	12052f06 	andne	r2, r5, #6, 30
    1140:	054a0106 	strbeq	r0, [sl, #-262]	; 0xfffffefa
    1144:	052f060d 	streq	r0, [pc, #-1549]!	; b3f <__code_start__-0x74c1>
    1148:	05010612 	streq	r0, [r1, #-1554]	; 0xfffff9ee
    114c:	054b0619 	strbeq	r0, [fp, #-1561]	; 0xfffff9e7
    1150:	04020004 	streq	r0, [r2], #-4
    1154:	01110302 	tsteq	r1, r2, lsl #6
    1158:	02040200 	andeq	r0, r4, #0, 4
    115c:	00020501 	andeq	r0, r2, r1, lsl #10
    1160:	15020402 	strne	r0, [r2, #-1026]	; 0xfffffbfe
    1164:	02000905 	andeq	r0, r0, #81920	; 0x14000
    1168:	01060204 	tsteq	r6, r4, lsl #4
    116c:	02040200 	andeq	r0, r4, #0, 4
    1170:	0001054a 	andeq	r0, r1, sl, asr #10
    1174:	9f020402 	svcls	0x00020402
    1178:	03060405 	movweq	r0, #25605	; 0x6405
    117c:	09054a6e 	stmdbeq	r5, {r1, r2, r3, r5, r6, r9, fp, lr}
    1180:	04050106 	streq	r0, [r5], #-262	; 0xfffffefa
    1184:	06052f06 	streq	r2, [r5], -r6, lsl #30
    1188:	04051106 	streq	r1, [r5], #-262	; 0xfffffefa
    118c:	030b052f 	movweq	r0, #46383	; 0xb52f
    1190:	19052e63 	stmdbne	r5, {r0, r1, r5, r6, r9, sl, fp, sp}
    1194:	01040200 	mrseq	r0, R12_usr
    1198:	2e240306 	cdpcs	3, 2, cr0, cr4, cr6, {0}
    119c:	02001a05 	andeq	r1, r0, #20480	; 0x5000
    11a0:	05130104 	ldreq	r0, [r3, #-260]	; 0xfffffefc
    11a4:	04020028 	streq	r0, [r2], #-40	; 0xffffffd8
    11a8:	05010601 	streq	r0, [r1, #-1537]	; 0xfffff9ff
    11ac:	04020025 	streq	r0, [r2], #-37	; 0xffffffdb
    11b0:	1f052e01 	svcne	0x00052e01
    11b4:	01040200 	mrseq	r0, R12_usr
    11b8:	000b054a 	andeq	r0, fp, sl, asr #10
    11bc:	06010402 	streq	r0, [r1], -r2, lsl #8
    11c0:	0004054b 	andeq	r0, r4, fp, asr #10
    11c4:	06010402 	streq	r0, [r1], -r2, lsl #8
    11c8:	04020001 	streq	r0, [r2], #-1
    11cc:	02004a01 	andeq	r4, r0, #4096	; 0x1000
    11d0:	4e060104 	adfmis	f0, f6, f4
    11d4:	01040200 	mrseq	r0, R12_usr
    11d8:	04020001 	streq	r0, [r2], #-1
    11dc:	02000101 	andeq	r0, r0, #1073741824	; 0x40000000
    11e0:	00010104 	andeq	r0, r1, r4, lsl #2
    11e4:	06010402 	streq	r0, [r1], -r2, lsl #8
    11e8:	0402002e 	streq	r0, [r2], #-46	; 0xffffffd2
    11ec:	02006601 	andeq	r6, r0, #1048576	; 0x100000
    11f0:	002e0104 	eoreq	r0, lr, r4, lsl #2
    11f4:	06010402 	streq	r0, [r1], -r2, lsl #8
    11f8:	0348054a 	movteq	r0, #34122	; 0x854a
    11fc:	20087fa6 	andcs	r7, r8, r6, lsr #31
    1200:	01130505 	tsteq	r3, r5, lsl #10
    1204:	02002e06 	andeq	r2, r0, #96	; 0x60
    1208:	2e060204 	cdpcs	2, 0, cr0, cr6, cr4, {0}
    120c:	02040200 	andeq	r0, r4, #0, 4
    1210:	04020001 	streq	r0, [r2], #-1
    1214:	11051302 	tstne	r5, r2, lsl #6
    1218:	02040200 	andeq	r0, r4, #0, 4
    121c:	05050106 	streq	r0, [r5, #-262]	; 0xfffffefa
    1220:	02040200 	andeq	r0, r4, #0, 4
    1224:	07054b06 	streq	r4, [r5, -r6, lsl #22]
    1228:	02040200 	andeq	r0, r4, #0, 4
    122c:	09050106 	stmdbeq	r5, {r1, r2, r8}
    1230:	0e054b06 	vmlaeq.f64	d4, d5, d6
    1234:	48050106 	stmdami	r5, {r1, r2, r8}
    1238:	01040200 	mrseq	r0, R12_usr
    123c:	00050562 	andeq	r0, r5, r2, ror #10
    1240:	06010402 	streq	r0, [r1], -r2, lsl #8
    1244:	0402004b 	streq	r0, [r2], #-75	; 0xffffffb5
    1248:	02000101 	andeq	r0, r0, #1073741824	; 0x40000000
    124c:	9e060104 	adflss	f0, f6, f4
    1250:	01040200 	mrseq	r0, R12_usr
    1254:	0402002e 	streq	r0, [r2], #-46	; 0xffffffd2
    1258:	052e0601 	streq	r0, [lr, #-1537]!	; 0xfffff9ff
    125c:	00e10340 	rsceq	r0, r1, r0, asr #6
    1260:	050106d6 	streq	r0, [r1, #-1750]	; 0xfffff92a
    1264:	059f0602 	ldreq	r0, [pc, #1538]	; 186e <__code_start__-0x6792>
    1268:	0501061e 	streq	r0, [r1, #-1566]	; 0xfffff9e2
    126c:	05052e12 	streq	r2, [r5, #-3602]	; 0xfffff1ee
    1270:	02052f06 	andeq	r2, r5, #6, 30
    1274:	06090514 			; <UNDEFINED> instruction: 0x06090514
    1278:	06050501 	streq	r0, [r5], -r1, lsl #10
    127c:	1302054b 	movwne	r0, #9547	; 0x254b
    1280:	0d060805 	stceq	8, cr0, [r6, #-20]	; 0xffffffec
    1284:	05330205 	ldreq	r0, [r3, #-517]!	; 0xfffffdfb
    1288:	054c0604 	strbeq	r0, [ip, #-1540]	; 0xfffff9fc
    128c:	0501060f 	streq	r0, [r1, #-1551]	; 0xfffff9f1
    1290:	08052e09 	stmdaeq	r5, {r0, r3, r9, sl, fp, sp}
    1294:	02052c06 	andeq	r2, r5, #1536	; 0x600
    1298:	0d052e06 	stceq	14, cr2, [r5, #-24]	; 0xffffffe8
    129c:	01040200 	mrseq	r0, R12_usr
    12a0:	0603054a 	streq	r0, [r3], -sl, asr #10
    12a4:	0605054b 	streq	r0, [r5], -fp, asr #10
    12a8:	06080501 	streq	r0, [r8], -r1, lsl #10
    12ac:	060e054d 	streq	r0, [lr], -sp, asr #10
    12b0:	2e0a0501 	cfsh32cs	mvfx0, mvfx10, #1
    12b4:	2f060405 	svccs	0x00060405
    12b8:	01060905 	tsteq	r6, r5, lsl #18
    12bc:	2f060405 	svccs	0x00060405
    12c0:	01060705 	tsteq	r6, r5, lsl #14
    12c4:	0604052e 	streq	r0, [r4], -lr, lsr #10
    12c8:	06070530 			; <UNDEFINED> instruction: 0x06070530
    12cc:	06040501 	streq	r0, [r4], -r1, lsl #10
    12d0:	05141330 	ldreq	r1, [r4, #-816]	; 0xfffffcd0
    12d4:	0510060d 	ldreq	r0, [r0, #-1549]	; 0xfffff9f3
    12d8:	05300609 	ldreq	r0, [r0, #-1545]!	; 0xfffff9f7
    12dc:	05010612 	streq	r0, [r1, #-1554]	; 0xfffff9ee
    12e0:	09052e0a 	stmdbeq	r5, {r1, r3, r9, sl, fp, sp}
    12e4:	06050566 	streq	r0, [r5], -r6, ror #10
    12e8:	0612054b 	ldreq	r0, [r2], -fp, asr #10
    12ec:	2e160501 	cfmul32cs	mvfx0, mvfx6, mvfx1
    12f0:	052e0b05 	streq	r0, [lr, #-2821]!	; 0xfffff4fb
    12f4:	052f0605 	streq	r0, [pc, #-1541]!	; cf7 <__code_start__-0x7309>
    12f8:	2e010608 	cfmadd32cs	mvax0, mvfx0, mvfx1, mvfx8
    12fc:	30060405 	andcc	r0, r6, r5, lsl #8
    1300:	15014a01 	strne	r4, [r1, #-2561]	; 0xfffff5ff
    1304:	01040200 	mrseq	r0, R12_usr
    1308:	000f3602 	andeq	r3, pc, r2, lsl #12
    130c:	01010402 	tsteq	r1, r2, lsl #8
    1310:	01040200 	mrseq	r0, R12_usr
    1314:	341105d6 	ldrcc	r0, [r1], #-1494	; 0xfffffa2a
    1318:	02000113 	andeq	r0, r0, #-1073741820	; 0xc0000004
    131c:	ba060204 	blt	181b34 <__bss_end__+0x1775b4>
    1320:	03040200 	movweq	r0, #16896	; 0x4200
    1324:	0200ba06 	andeq	fp, r0, #24576	; 0x6000
    1328:	00010304 	andeq	r0, r1, r4, lsl #6
    132c:	14030402 	strne	r0, [r3], #-1026	; 0xfffffbfe
    1330:	02001505 	andeq	r1, r0, #20971520	; 0x1400000
    1334:	01060304 	tsteq	r6, r4, lsl #6
    1338:	02001105 	andeq	r1, r0, #1073741825	; 0x40000001
    133c:	2f060304 	svccs	0x00060304
    1340:	02001a05 	andeq	r1, r0, #20480	; 0x5000
    1344:	01060304 	tsteq	r6, r4, lsl #6
    1348:	02001105 	andeq	r1, r0, #1073741825	; 0x40000001
    134c:	d7060304 	strle	r0, [r6, -r4, lsl #6]
    1350:	03040200 	movweq	r0, #16896	; 0x4200
    1354:	04020013 	streq	r0, [r2], #-19	; 0xffffffed
    1358:	02001403 	andeq	r1, r0, #50331648	; 0x3000000
    135c:	00670304 	rsbeq	r0, r7, r4, lsl #6
    1360:	68030402 	stmdavs	r3, {r1, sl}
    1364:	02001405 	andeq	r1, r0, #83886080	; 0x5000000
    1368:	01060304 	tsteq	r6, r4, lsl #6
    136c:	02001305 	andeq	r1, r0, #335544320	; 0x14000000
    1370:	05820304 	streq	r0, [r2, #772]	; 0x304
    1374:	054e0618 	strbeq	r0, [lr, #-1560]	; 0xfffff9e8
    1378:	0501061b 	streq	r0, [r1, #-1563]	; 0xfffff9e5
    137c:	0905821a 	stmdbeq	r5, {r1, r3, r4, r9, pc}
    1380:	0d054b06 	vstreq	d4, [r5, #-24]	; 0xffffffe8
    1384:	052e0106 	streq	r0, [lr, #-262]!	; 0xfffffefa
    1388:	06f30609 	ldrbteq	r0, [r3], r9, lsl #12
    138c:	061505ba 			; <UNDEFINED> instruction: 0x061505ba
    1390:	06180530 			; <UNDEFINED> instruction: 0x06180530
    1394:	66170501 	ldrvs	r0, [r7], -r1, lsl #10
    1398:	4b061905 	blmi	1877b4 <__bss_end__+0x17d234>
    139c:	03061505 	movweq	r1, #25861	; 0x6505
    13a0:	1105666f 	tstne	r5, pc, ror #12
    13a4:	d6014806 	strle	r4, [r1], -r6, lsl #16
    13a8:	0b030905 	bleq	c37c4 <__bss_end__+0xb9244>
    13ac:	060d052e 	streq	r0, [sp], -lr, lsr #10
    13b0:	09052e01 	stmdbeq	r5, {r0, r9, sl, fp, sp}
    13b4:	ba06f306 	blt	1bdfd4 <__bss_end__+0x1b3a54>
    13b8:	2f061505 	svccs	0x00061505
    13bc:	66750306 	ldrbtvs	r0, [r5], -r6, lsl #6
    13c0:	03061905 	movweq	r1, #26885	; 0x6905
    13c4:	15054a13 	strne	r4, [r5, #-2579]	; 0xfffff5ed
    13c8:	666d0306 	strbtvs	r0, [sp], -r6, lsl #6
    13cc:	4a150306 	bmi	541fec <__bss_end__+0x537a6c>
    13d0:	2e06ba01 	vmlacs.f32	s22, s12, s2
    13d4:	1a060505 	bne	1827f0 <__bss_end__+0x178270>
    13d8:	032e9e01 			; <UNDEFINED> instruction: 0x032e9e01
    13dc:	0905010e 	stmdbeq	r5, {r1, r2, r3, r8}
    13e0:	05050106 	streq	r0, [r5, #-262]	; 0xfffffefa
    13e4:	05750806 	ldrbeq	r0, [r5, #-2054]!	; 0xfffff7fa
    13e8:	01180304 	tsteq	r8, r4, lsl #6
    13ec:	01060705 	tsteq	r6, r5, lsl #14
    13f0:	31060405 	tstcc	r6, r5, lsl #8
    13f4:	67030505 	strvs	r0, [r3, -r5, lsl #10]
    13f8:	061c052e 	ldreq	r0, [ip], -lr, lsr #10
    13fc:	82090501 	andhi	r0, r9, #4194304	; 0x400000
    1400:	f3060505 	vrshl.u8	d0, d5, d6
    1404:	061c0531 			; <UNDEFINED> instruction: 0x061c0531
    1408:	82090501 	andhi	r0, r9, #4194304	; 0x400000
    140c:	f3060505 	vrshl.u8	d0, d5, d6
    1410:	061b0530 			; <UNDEFINED> instruction: 0x061b0530
    1414:	82090501 	andhi	r0, r9, #4194304	; 0x400000
    1418:	f3060505 	vrshl.u8	d0, d5, d6
    141c:	06070530 			; <UNDEFINED> instruction: 0x06070530
    1420:	06050501 	streq	r0, [r5], -r1, lsl #10
    1424:	09053083 	stmdbeq	r5, {r0, r1, r7, ip, sp}
    1428:	05050106 	streq	r0, [r5, #-262]	; 0xfffffefa
    142c:	05750806 	ldrbeq	r0, [r5, #-2054]!	; 0xfffff7fa
    1430:	22053011 	andcs	r3, r5, #17, 0
    1434:	05050106 	streq	r0, [r5, #-262]	; 0xfffffefa
    1438:	11054b06 	tstne	r5, r6, lsl #22
    143c:	83050583 	movwhi	r0, #21891	; 0x5583
    1440:	05359e01 	ldreq	r9, [r5, #-3585]!	; 0xfffff1ff
    1444:	0501060e 	streq	r0, [r1, #-1550]	; 0xfffff9f2
    1448:	2d062e0a 	stccs	14, cr2, [r6, #-40]	; 0xffffffd8
    144c:	01060405 	tsteq	r6, r5, lsl #8
    1450:	02001305 	andeq	r1, r0, #335544320	; 0x14000000
    1454:	054a0104 	strbeq	r0, [sl, #-260]	; 0xfffffefc
    1458:	04020010 	streq	r0, [r2], #-16
    145c:	02002e01 	andeq	r2, r0, #1, 28
    1460:	05660104 	strbeq	r0, [r6, #-260]!	; 0xfffffefc
    1464:	05160602 	ldreq	r0, [r6, #-1538]	; 0xfffff9fe
    1468:	05010607 	streq	r0, [r1, #-1543]	; 0xfffff9f9
    146c:	054b0602 	strbeq	r0, [fp, #-1538]	; 0xfffff9fe
    1470:	66130601 	ldrvs	r0, [r3], -r1, lsl #12
    1474:	01001e02 	tsteq	r0, r2, lsl #28
    1478:	0000a501 	andeq	sl, r0, r1, lsl #10
    147c:	8a000300 	bhi	2084 <__code_start__-0x5f7c>
    1480:	02000000 	andeq	r0, r0, #0, 0
    1484:	0d0efb01 	vstreq	d15, [lr, #-4]
    1488:	01010100 	mrseq	r0, (UNDEF: 17)
    148c:	00000001 	andeq	r0, r0, r1
    1490:	01000001 	tsteq	r0, r1
    1494:	74732f2e 	ldrbtvc	r2, [r3], #-3886	; 0xfffff0d2
    1498:	2d666661 	stclcs	6, cr6, [r6, #-388]!	; 0xfffffe7c
    149c:	00637273 	rsbeq	r7, r3, r3, ror r2
    14a0:	6573552f 	ldrbvs	r5, [r3, #-1327]!	; 0xfffffad1
    14a4:	742f7372 	strtvc	r7, [pc], #-882	; 14ac <__code_start__-0x6b54>
    14a8:	74736972 	ldrbtvc	r6, [r3], #-2418	; 0xfffff68e
    14ac:	6f6e6e65 	svcvs	0x006e6e65
    14b0:	616d6c6c 	cmnvs	sp, ip, ror #24
    14b4:	6f442f6e 	svcvs	0x00442f6e
    14b8:	656d7563 	strbvs	r7, [sp, #-1379]!	; 0xfffffa9d
    14bc:	2f73746e 	svccs	0x0073746e
    14c0:	69727053 	ldmdbvs	r2!, {r0, r1, r4, r6, ip, sp, lr}^
    14c4:	515f676e 	cmppl	pc, lr, ror #14
    14c8:	74726175 	ldrbtvc	r6, [r2], #-373	; 0xfffffe8b
    14cc:	325f7265 	subscc	r7, pc, #1342177286	; 0x50000006
    14d0:	2f323230 	svccs	0x00323230
    14d4:	34325343 	ldrtcc	r5, [r2], #-835	; 0xfffffcbd
    14d8:	2d584c30 	ldclcs	12, cr4, [r8, #-192]	; 0xffffff40
    14dc:	32727073 	rsbscc	r7, r2, #115, 0	; 0x73
    14e0:	696c2f32 	stmdbvs	ip!, {r1, r4, r5, r8, r9, sl, fp, sp}^
    14e4:	2f697062 	svccs	0x00697062
    14e8:	6c636e69 	stclvs	14, cr6, [r3], #-420	; 0xfffffe5c
    14ec:	00656475 	rsbeq	r6, r5, r5, ror r4
    14f0:	656c6300 	strbvs	r6, [ip, #-768]!	; 0xfffffd00
    14f4:	722d6e61 	eorvc	r6, sp, #1552	; 0x610
    14f8:	6f6f6265 	svcvs	0x006f6265
    14fc:	00632e74 	rsbeq	r2, r3, r4, ror lr
    1500:	72000001 	andvc	r0, r0, #1, 0
    1504:	682e6970 	stmdavs	lr!, {r4, r5, r6, r8, fp, sp, lr}
    1508:	00000200 	andeq	r0, r0, r0, lsl #4
    150c:	00190500 	andseq	r0, r9, r0, lsl #10
    1510:	919c0205 	orrsls	r0, ip, r5, lsl #4
    1514:	05150000 	ldreq	r0, [r5, #-0]
    1518:	2f832f05 	svccs	0x00832f05
    151c:	0006024b 	andeq	r0, r6, fp, asr #4
    1520:	00bf0101 	adcseq	r0, pc, r1, lsl #2
    1524:	00030000 	andeq	r0, r3, r0
    1528:	00000084 	andeq	r0, r0, r4, lsl #1
    152c:	0efb0102 	cdpeq	1, 15, cr0, cr11, cr2, {0}
    1530:	0101000d 	tsteq	r1, sp
    1534:	00000101 	andeq	r0, r0, r1, lsl #2
    1538:	00000100 	andeq	r0, r0, r0, lsl #2
    153c:	732f2e01 			; <UNDEFINED> instruction: 0x732f2e01
    1540:	66666174 			; <UNDEFINED> instruction: 0x66666174
    1544:	6372732d 	cmnvs	r2, #-1275068416	; 0xb4000000
    1548:	73552f00 	cmpvc	r5, #0, 30
    154c:	2f737265 	svccs	0x00737265
    1550:	73697274 	cmnvc	r9, #116, 4	; 0x40000007
    1554:	6e6e6574 	mcrvs	5, 3, r6, cr14, cr4, {3}
    1558:	6d6c6c6f 	stclvs	12, cr6, [ip, #-444]!	; 0xfffffe44
    155c:	442f6e61 	strtmi	r6, [pc], #-3681	; 1564 <__code_start__-0x6a9c>
    1560:	6d75636f 	ldclvs	3, cr6, [r5, #-444]!	; 0xfffffe44
    1564:	73746e65 	cmnvc	r4, #1616	; 0x650
    1568:	7270532f 	rsbsvc	r5, r0, #-1140850688	; 0xbc000000
    156c:	5f676e69 	svcpl	0x00676e69
    1570:	72617551 	rsbvc	r7, r1, #339738624	; 0x14400000
    1574:	5f726574 	svcpl	0x00726574
    1578:	32323032 	eorscc	r3, r2, #50, 0	; 0x32
    157c:	3253432f 	subscc	r4, r3, #-1140850688	; 0xbc000000
    1580:	584c3034 	stmdapl	ip, {r2, r4, r5, ip, sp}^
    1584:	7270732d 	rsbsvc	r7, r0, #-1275068416	; 0xb4000000
    1588:	6c2f3232 	sfmvs	f3, 4, [pc], #-200	; 14c8 <__code_start__-0x6b38>
    158c:	69706269 	ldmdbvs	r0!, {r0, r3, r5, r6, r9, sp, lr}^
    1590:	636e692f 	cmnvs	lr, #770048	; 0xbc000
    1594:	6564756c 	strbvs	r7, [r4, #-1388]!	; 0xfffffa94
    1598:	73630000 	cmnvc	r3, #0, 0
    159c:	74726174 	ldrbtvc	r6, [r2], #-372	; 0xfffffe8c
    15a0:	0100632e 	tsteq	r0, lr, lsr #6
    15a4:	70720000 	rsbsvc	r0, r2, r0
    15a8:	00682e69 	rsbeq	r2, r8, r9, ror #28
    15ac:	00000002 	andeq	r0, r0, r2
    15b0:	05001005 	streq	r1, [r0, #-5]
    15b4:	0091c802 	addseq	ip, r1, r2, lsl #16
    15b8:	05051500 	streq	r1, [r5, #-1280]	; 0xfffffb00
    15bc:	1302052f 	movwne	r0, #9519	; 0x252f
    15c0:	30140505 	andscc	r0, r4, r5, lsl #10
    15c4:	0a051413 	beq	146618 <__bss_end__+0x13c098>
    15c8:	31060f06 	tstcc	r6, r6, lsl #30
    15cc:	054b0905 	strbeq	r0, [fp, #-2309]	; 0xfffff6fb
    15d0:	4a010610 	bmi	42e18 <__bss_end__+0x38898>
    15d4:	30060505 	andcc	r0, r6, r5, lsl #10
    15d8:	4a010132 	bmi	41aa8 <__bss_end__+0x37528>
    15dc:	2f020514 	svccs	0x00020514
    15e0:	01000602 	tsteq	r0, r2, lsl #12
    15e4:	0000a301 	andeq	sl, r0, r1, lsl #6
    15e8:	8b000300 	blhi	21f0 <__code_start__-0x5e10>
    15ec:	02000000 	andeq	r0, r0, #0, 0
    15f0:	0d0efb01 	vstreq	d15, [lr, #-4]
    15f4:	01010100 	mrseq	r0, (UNDEF: 17)
    15f8:	00000001 	andeq	r0, r0, r1
    15fc:	01000001 	tsteq	r0, r1
    1600:	74732f2e 	ldrbtvc	r2, [r3], #-3886	; 0xfffff0d2
    1604:	2d666661 	stclcs	6, cr6, [r6, #-388]!	; 0xfffffe7c
    1608:	00637273 	rsbeq	r7, r3, r3, ror r2
    160c:	6573552f 	ldrbvs	r5, [r3, #-1327]!	; 0xfffffad1
    1610:	742f7372 	strtvc	r7, [pc], #-882	; 1618 <__code_start__-0x69e8>
    1614:	74736972 	ldrbtvc	r6, [r3], #-2418	; 0xfffff68e
    1618:	6f6e6e65 	svcvs	0x006e6e65
    161c:	616d6c6c 	cmnvs	sp, ip, ror #24
    1620:	6f442f6e 	svcvs	0x00442f6e
    1624:	656d7563 	strbvs	r7, [sp, #-1379]!	; 0xfffffa9d
    1628:	2f73746e 	svccs	0x0073746e
    162c:	69727053 	ldmdbvs	r2!, {r0, r1, r4, r6, ip, sp, lr}^
    1630:	515f676e 	cmppl	pc, lr, ror #14
    1634:	74726175 	ldrbtvc	r6, [r2], #-373	; 0xfffffe8b
    1638:	325f7265 	subscc	r7, pc, #1342177286	; 0x50000006
    163c:	2f323230 	svccs	0x00323230
    1640:	34325343 	ldrtcc	r5, [r2], #-835	; 0xfffffcbd
    1644:	2d584c30 	ldclcs	12, cr4, [r8, #-192]	; 0xffffff40
    1648:	32727073 	rsbscc	r7, r2, #115, 0	; 0x73
    164c:	696c2f32 	stmdbvs	ip!, {r1, r4, r5, r8, r9, sl, fp, sp}^
    1650:	2f697062 	svccs	0x00697062
    1654:	6c636e69 	stclvs	14, cr6, [r3], #-420	; 0xfffffe5c
    1658:	00656475 	rsbeq	r6, r5, r5, ror r4
    165c:	73756300 	cmnvc	r5, #0, 6
    1660:	2d6d6f74 	stclcs	15, cr6, [sp, #-464]!	; 0xfffffe30
    1664:	64616f6c 	strbtvs	r6, [r1], #-3948	; 0xfffff094
    1668:	632e7265 			; <UNDEFINED> instruction: 0x632e7265
    166c:	00000100 	andeq	r0, r0, r0, lsl #2
    1670:	2e697072 	mcrcs	0, 3, r7, cr9, cr2, {3}
    1674:	00020068 	andeq	r0, r2, r8, rrx
    1678:	1a050000 	bne	141680 <__bss_end__+0x137100>
    167c:	04020500 	streq	r0, [r2], #-1280	; 0xfffffb00
    1680:	15000092 	strne	r0, [r0, #-146]	; 0xffffff6e
    1684:	02140105 	andseq	r0, r4, #1073741825	; 0x40000001
    1688:	01010002 	tsteq	r1, r2
    168c:	000000f3 	strdeq	r0, [r0], -r3
    1690:	00840003 	addeq	r0, r4, r3
    1694:	01020000 	mrseq	r0, (UNDEF: 2)
    1698:	000d0efb 	strdeq	r0, [sp], -fp
    169c:	01010101 	tsteq	r1, r1, lsl #2
    16a0:	01000000 	mrseq	r0, (UNDEF: 0)
    16a4:	2e010000 	cdpcs	0, 0, cr0, cr1, cr0, {0}
    16a8:	6174732f 	cmnvs	r4, pc, lsr #6
    16ac:	732d6666 			; <UNDEFINED> instruction: 0x732d6666
    16b0:	2f006372 	svccs	0x00006372
    16b4:	72657355 	rsbvc	r7, r5, #1409286145	; 0x54000001
    16b8:	72742f73 	rsbsvc	r2, r4, #460	; 0x1cc
    16bc:	65747369 	ldrbvs	r7, [r4, #-873]!	; 0xfffffc97
    16c0:	6c6f6e6e 	stclvs	14, cr6, [pc], #-440	; 1510 <__code_start__-0x6af0>
    16c4:	6e616d6c 	cdpvs	13, 6, cr6, cr1, cr12, {3}
    16c8:	636f442f 	cmnvs	pc, #788529152	; 0x2f000000
    16cc:	6e656d75 	mcrvs	13, 3, r6, cr5, cr5, {3}
    16d0:	532f7374 			; <UNDEFINED> instruction: 0x532f7374
    16d4:	6e697270 	mcrvs	2, 3, r7, cr9, cr0, {3}
    16d8:	75515f67 	ldrbvc	r5, [r1, #-3943]	; 0xfffff099
    16dc:	65747261 	ldrbvs	r7, [r4, #-609]!	; 0xfffffd9f
    16e0:	30325f72 	eorscc	r5, r2, r2, ror pc
    16e4:	432f3232 			; <UNDEFINED> instruction: 0x432f3232
    16e8:	30343253 	eorscc	r3, r4, r3, asr r2
    16ec:	732d584c 			; <UNDEFINED> instruction: 0x732d584c
    16f0:	32327270 	eorscc	r7, r2, #112, 4
    16f4:	62696c2f 	rsbvs	r6, r9, #12032	; 0x2f00
    16f8:	692f6970 	stmdbvs	pc!, {r4, r5, r6, r8, fp, sp, lr}	; <UNPREDICTABLE>
    16fc:	756c636e 	strbvc	r6, [ip, #-878]!	; 0xfffffc92
    1700:	00006564 	andeq	r6, r0, r4, ror #10
    1704:	6f626572 	svcvs	0x00626572
    1708:	632e746f 			; <UNDEFINED> instruction: 0x632e746f
    170c:	00000100 	andeq	r0, r0, r0, lsl #2
    1710:	2e697072 	mcrcs	0, 3, r7, cr9, cr2, {3}
    1714:	00020068 	andeq	r0, r2, r8, rrx
    1718:	19050000 	stmdbne	r5, {}	; <UNPREDICTABLE>
    171c:	08020500 	stmdaeq	r2, {r8, sl}
    1720:	03000092 	movweq	r0, #146	; 0x92
    1724:	0505010d 	streq	r0, [r5, #-269]	; 0xfffffef3
    1728:	05311313 	ldreq	r1, [r1, #-787]!	; 0xfffffced
    172c:	05010613 	streq	r0, [r1, #-1555]	; 0xfffff9ed
    1730:	1b052f01 	blne	14d33c <__bss_end__+0x142dbc>
    1734:	05058506 	streq	r8, [r5, #-1286]	; 0xfffffafa
    1738:	09051413 	stmdbeq	r5, {r0, r1, r4, sl, ip}
    173c:	0616052f 	ldreq	r0, [r6], -pc, lsr #10
    1740:	2e0e0501 	cfsh32cs	mvfx0, mvfx14, #1
    1744:	2f060505 	svccs	0x00060505
    1748:	2f060105 	svccs	0x00060105
    174c:	30061705 	andcc	r1, r6, r5, lsl #14
    1750:	052f0505 	streq	r0, [pc, #-1285]!	; 1253 <__code_start__-0x6dad>
    1754:	05010608 	streq	r0, [r1, #-1544]	; 0xfffff9f8
    1758:	05052e07 	streq	r2, [r5, #-3591]	; 0xfffff1f9
    175c:	2f305006 	svccs	0x00305006
    1760:	1313134d 	tstne	r3, #872415233	; 0x34000001
    1764:	02006715 	andeq	r6, r0, #5505024	; 0x540000
    1768:	05670104 	strbeq	r0, [r7, #-260]!	; 0xfffffefc
    176c:	0402000d 	streq	r0, [r2], #-13
    1770:	0a050101 	beq	141b7c <__bss_end__+0x1375fc>
    1774:	01040200 	mrseq	r0, R12_usr
    1778:	03090501 	movweq	r0, #38145	; 0x9501
    177c:	0c022e6d 	stceq	14, cr2, [r2], {109}	; 0x6d
    1780:	fa010100 	blx	41b88 <__bss_end__+0x37608>
    1784:	03000000 	movweq	r0, #0
    1788:	00008300 	andeq	r8, r0, r0, lsl #6
    178c:	fb010200 	blx	41f96 <__bss_end__+0x37a16>
    1790:	01000d0e 	tsteq	r0, lr, lsl #26
    1794:	00010101 	andeq	r0, r1, r1, lsl #2
    1798:	00010000 	andeq	r0, r1, r0
    179c:	2f2e0100 	svccs	0x002e0100
    17a0:	66617473 			; <UNDEFINED> instruction: 0x66617473
    17a4:	72732d66 	rsbsvc	r2, r3, #6528	; 0x1980
    17a8:	552f0063 	strpl	r0, [pc, #-99]!	; 174d <__code_start__-0x68b3>
    17ac:	73726573 	cmnvc	r2, #482344960	; 0x1cc00000
    17b0:	6972742f 	ldmdbvs	r2!, {r0, r1, r2, r3, r5, sl, ip, sp, lr}^
    17b4:	6e657473 	mcrvs	4, 3, r7, cr5, cr3, {3}
    17b8:	6c6c6f6e 	stclvs	15, cr6, [ip], #-440	; 0xfffffe48
    17bc:	2f6e616d 	svccs	0x006e616d
    17c0:	75636f44 	strbvc	r6, [r3, #-3908]!	; 0xfffff0bc
    17c4:	746e656d 	strbtvc	r6, [lr], #-1389	; 0xfffffa93
    17c8:	70532f73 	subsvc	r2, r3, r3, ror pc
    17cc:	676e6972 			; <UNDEFINED> instruction: 0x676e6972
    17d0:	6175515f 	cmnvs	r5, pc, asr r1
    17d4:	72657472 	rsbvc	r7, r5, #1912602624	; 0x72000000
    17d8:	3230325f 	eorscc	r3, r0, #-268435451	; 0xf0000005
    17dc:	53432f32 	movtpl	r2, #16178	; 0x3f32
    17e0:	4c303432 	cfldrsmi	mvf3, [r0], #-200	; 0xffffff38
    17e4:	70732d58 	rsbsvc	r2, r3, r8, asr sp
    17e8:	2f323272 	svccs	0x00323272
    17ec:	7062696c 	rsbvc	r6, r2, ip, ror #18
    17f0:	6e692f69 	cdpvs	15, 6, cr2, cr9, cr9, {3}
    17f4:	64756c63 	ldrbtvs	r6, [r5], #-3171	; 0xfffff39d
    17f8:	74000065 	strvc	r0, [r0], #-101	; 0xffffff9b
    17fc:	72656d69 	rsbvc	r6, r5, #6720	; 0x1a40
    1800:	0100632e 	tsteq	r0, lr, lsr #6
    1804:	70720000 	rsbsvc	r0, r2, r0
    1808:	00682e69 	rsbeq	r2, r8, r9, ror #28
    180c:	00000002 	andeq	r0, r0, r2
    1810:	05002305 	streq	r2, [r0, #-773]	; 0xfffffcfb
    1814:	00928802 	addseq	r8, r2, r2, lsl #16
    1818:	05051500 	streq	r1, [r5, #-1280]	; 0xfffffb00
    181c:	060c052f 	streq	r0, [ip], -pc, lsr #10
    1820:	4b010501 	blmi	42c2c <__bss_end__+0x386ac>
    1824:	4d061f05 	stcmi	15, cr1, [r6, #-20]	; 0xffffffec
    1828:	2f310505 	svccs	0x00310505
    182c:	01061205 	tsteq	r6, r5, lsl #4
    1830:	4b060505 	blmi	182c4c <__bss_end__+0x1786cc>
    1834:	0601052f 	streq	r0, [r1], -pc, lsr #10
    1838:	061c0513 			; <UNDEFINED> instruction: 0x061c0513
    183c:	0501064c 	streq	r0, [r1, #-1612]	; 0xfffff9b4
    1840:	054b0605 	strbeq	r0, [fp, #-1541]	; 0xfffff9fb
    1844:	2e010613 	mcrcs	6, 0, r0, cr1, cr3, {0}
    1848:	2f060505 	svccs	0x00060505
    184c:	05130905 	ldreq	r0, [r3, #-2309]	; 0xfffff6fb
    1850:	05010617 	streq	r0, [r1, #-1559]	; 0xfffff9e9
    1854:	052f0609 	streq	r0, [pc, #-1545]!	; 1253 <__code_start__-0x6dad>
    1858:	05010611 	streq	r0, [r1, #-1553]	; 0xfffff9ef
    185c:	1c052e0c 	stcne	14, cr2, [r5], {12}
    1860:	01066b06 	tsteq	r6, r6, lsl #22
    1864:	2f060505 	svccs	0x00060505
    1868:	01054a06 	tsteq	r5, r6, lsl #20
    186c:	061e054b 	ldreq	r0, [lr], -fp, asr #10
    1870:	0501062f 	streq	r0, [r1, #-1583]	; 0xfffff9d1
    1874:	062f0605 	strteq	r0, [pc], -r5, lsl #12
    1878:	4b01054a 	blmi	42da8 <__bss_end__+0x38828>
    187c:	01000202 	tsteq	r0, r2, lsl #4
    1880:	00020501 	andeq	r0, r2, r1, lsl #10
    1884:	c9000300 	stmdbgt	r0, {r8, r9}
    1888:	02000000 	andeq	r0, r0, #0, 0
    188c:	0d0efb01 	vstreq	d15, [lr, #-4]
    1890:	01010100 	mrseq	r0, (UNDEF: 17)
    1894:	00000001 	andeq	r0, r0, r1
    1898:	01000001 	tsteq	r0, r1
    189c:	6d6f682f 	stclvs	8, cr6, [pc, #-188]!	; 17e8 <__code_start__-0x6818>
    18a0:	6e652f65 	cdpvs	15, 6, cr2, cr5, cr5, {3}
    18a4:	72656c67 	rsbvc	r6, r5, #26368	; 0x6700
    18a8:	616c632f 	cmnvs	ip, pc, lsr #6
    18ac:	632f7373 			; <UNDEFINED> instruction: 0x632f7373
    18b0:	30343273 	eorscc	r3, r4, r3, ror r2
    18b4:	322d786c 	eorcc	r7, sp, #108, 16	; 0x6c0000
    18b8:	72707332 	rsbsvc	r7, r0, #-939524096	; 0xc8000000
    18bc:	696c2f2f 	stmdbvs	ip!, {r0, r1, r2, r3, r5, r8, r9, sl, fp, sp}^
    18c0:	2f697062 	svccs	0x00697062
    18c4:	6c636e69 	stclvs	14, cr6, [r3], #-420	; 0xfffffe5c
    18c8:	00656475 	rsbeq	r6, r5, r5, ror r4
    18cc:	7273752f 	rsbsvc	r7, r3, #197132288	; 0xbc00000
    18d0:	6168732f 	cmnvs	r8, pc, lsr #6
    18d4:	672f6572 			; <UNDEFINED> instruction: 0x672f6572
    18d8:	612d6363 			; <UNDEFINED> instruction: 0x612d6363
    18dc:	6e2d6d72 	mcrvs	13, 1, r6, cr13, cr2, {3}
    18e0:	2d656e6f 	stclcs	14, cr6, [r5, #-444]!	; 0xfffffe44
    18e4:	69626165 	stmdbvs	r2!, {r0, r2, r5, r6, r8, sp, lr}^
    18e8:	2e30312d 	rsfcssp	f3, f0, #5.0
    18ec:	30322d33 	eorscc	r2, r2, r3, lsr sp
    18f0:	312e3132 			; <UNDEFINED> instruction: 0x312e3132
    18f4:	696c2f30 	stmdbvs	ip!, {r4, r5, r8, r9, sl, fp, sp}^
    18f8:	63672f62 	cmnvs	r7, #392	; 0x188
    18fc:	72612f63 	rsbvc	r2, r1, #396	; 0x18c
    1900:	6f6e2d6d 	svcvs	0x006e2d6d
    1904:	652d656e 	strvs	r6, [sp, #-1390]!	; 0xfffffa92
    1908:	2f696261 	svccs	0x00696261
    190c:	332e3031 			; <UNDEFINED> instruction: 0x332e3031
    1910:	692f312e 	stmdbvs	pc!, {r1, r2, r3, r5, r8, ip, sp}	; <UNPREDICTABLE>
    1914:	756c636e 	strbvc	r6, [ip, #-878]!	; 0xfffffc92
    1918:	00006564 	andeq	r6, r0, r4, ror #10
    191c:	74726175 	ldrbtvc	r6, [r2], #-373	; 0xfffffe8b
    1920:	0000632e 	andeq	r6, r0, lr, lsr #6
    1924:	61750000 	cmnvs	r5, r0
    1928:	682e7472 	stmdavs	lr!, {r1, r4, r5, r6, sl, ip, sp, lr}
    192c:	00000100 	andeq	r0, r0, r0, lsl #2
    1930:	2e697072 	mcrcs	0, 3, r7, cr9, cr2, {3}
    1934:	00010068 	andeq	r0, r1, r8, rrx
    1938:	69706700 	ldmdbvs	r0!, {r8, r9, sl, sp, lr}^
    193c:	00682e6f 	rsbeq	r2, r8, pc, ror #28
    1940:	73000001 	movwvc	r0, #1
    1944:	6e696474 	mcrvs	4, 3, r6, cr9, cr4, {3}
    1948:	63672d74 	cmnvs	r7, #116, 26	; 0x1d00
    194c:	00682e63 	rsbeq	r2, r8, r3, ror #28
    1950:	00000002 	andeq	r0, r0, r2
    1954:	05003905 	streq	r3, [r0, #-2309]	; 0xfffff6fb
    1958:	00930c02 	addseq	r0, r3, r2, lsl #24
    195c:	01300300 	teqeq	r0, r0, lsl #6
    1960:	05050106 	streq	r0, [r5, #-262]	; 0xfffffefa
    1964:	11056706 	tstne	r5, r6, lsl #14
    1968:	05050106 	streq	r0, [r5, #-262]	; 0xfffffefa
    196c:	6701052e 	strvs	r0, [r1, -lr, lsr #10]
    1970:	29063805 	stmdbcs	r6, {r0, r2, fp, ip, sp}
    1974:	05050106 	streq	r0, [r5, #-262]	; 0xfffffefa
    1978:	11056706 	tstne	r5, r6, lsl #14
    197c:	05050106 	streq	r0, [r5, #-262]	; 0xfffffefa
    1980:	6701052e 	strvs	r0, [r1, -lr, lsr #10]
    1984:	03061605 	movweq	r1, #26117	; 0x6605
    1988:	05052e15 	streq	r2, [r5, #-3605]	; 0xfffff1eb
    198c:	35686735 	strbcc	r6, [r8, #-1845]!	; 0xfffff8cb
    1990:	2e0c0368 	cdpcs	3, 0, cr0, cr12, cr8, {3}
    1994:	69696b85 	stmdbvs	r9!, {r0, r2, r7, r8, r9, fp, sp, lr}^
    1998:	13660c03 	cmnne	r6, #768	; 0x300
    199c:	0105676b 	tsteq	r5, fp, ror #14
    19a0:	19052f06 	stmdbne	r5, {r1, r2, r8, r9, sl, fp, sp}
    19a4:	05250806 	streq	r0, [r5, #-2054]!	; 0xfffff7fa
    19a8:	0d053405 	cfstrseq	mvf3, [r5, #-20]	; 0xffffffec
    19ac:	01050106 	tsteq	r5, r6, lsl #2
    19b0:	0619054c 	ldreq	r0, [r9], -ip, asr #10
    19b4:	36050567 	strcc	r0, [r5], -r7, ror #10
    19b8:	01060d05 	tsteq	r6, r5, lsl #26
    19bc:	054a2805 	strbeq	r2, [sl, #-2053]	; 0xfffff7fb
    19c0:	15053001 	strne	r3, [r5, #-1]
    19c4:	05058706 	streq	r8, [r5, #-1798]	; 0xfffff8fa
    19c8:	09052f2f 	stmdbeq	r5, {r0, r1, r2, r3, r5, r8, r9, sl, fp, sp}
    19cc:	01040200 	mrseq	r0, R12_usr
    19d0:	000a0513 	andeq	r0, sl, r3, lsl r5
    19d4:	11010402 	tstne	r1, r2, lsl #8
    19d8:	02000c05 	andeq	r0, r0, #1280	; 0x500
    19dc:	01060104 	tsteq	r6, r4, lsl #2
    19e0:	02000a05 	andeq	r0, r0, #20480	; 0x5000
    19e4:	052e0104 	streq	r0, [lr, #-260]!	; 0xfffffefc
    19e8:	054c0605 	strbeq	r0, [ip, #-1541]	; 0xfffff9fb
    19ec:	0501060e 	streq	r0, [r1, #-1550]	; 0xfffff9f2
    19f0:	05054a09 	streq	r4, [r5, #-2569]	; 0xfffff5f7
    19f4:	052f2f06 	streq	r2, [pc, #-3846]!	; af6 <__code_start__-0x750a>
    19f8:	05130601 	ldreq	r0, [r3, #-1537]	; 0xfffff9ff
    19fc:	0667061c 			; <UNDEFINED> instruction: 0x0667061c
    1a00:	06050501 	streq	r0, [r5], -r1, lsl #10
    1a04:	09052f4b 	stmdbeq	r5, {r0, r1, r3, r6, r8, r9, sl, fp, sp}
    1a08:	01040200 	mrseq	r0, R12_usr
    1a0c:	000a0513 	andeq	r0, sl, r3, lsl r5
    1a10:	11010402 	tstne	r1, r2, lsl #8
    1a14:	02000c05 	andeq	r0, r0, #1280	; 0x500
    1a18:	01060104 	tsteq	r6, r4, lsl #2
    1a1c:	02000a05 	andeq	r0, r0, #20480	; 0x5000
    1a20:	052e0104 	streq	r0, [lr, #-260]!	; 0xfffffefc
    1a24:	674c0605 	strbvs	r0, [ip, -r5, lsl #12]
    1a28:	2f060105 	svccs	0x00060105
    1a2c:	4c061905 			; <UNDEFINED> instruction: 0x4c061905
    1a30:	052e1b05 	streq	r1, [lr, #-2821]!	; 0xfffff4fb
    1a34:	31052e2a 	tstcc	r5, sl, lsr #28
    1a38:	42050106 	andmi	r0, r5, #-2147483647	; 0x80000001
    1a3c:	061c052e 	ldreq	r0, [ip], -lr, lsr #10
    1a40:	2f050531 	svccs	0x00050531
    1a44:	052e0903 	streq	r0, [lr, #-2307]!	; 0xfffff6fd
    1a48:	0501060e 	streq	r0, [r1, #-1550]	; 0xfffff9f2
    1a4c:	01054a21 	tsteq	r5, r1, lsr #20
    1a50:	052e0a03 	streq	r0, [lr, #-2563]!	; 0xfffff5fd
    1a54:	0568061a 	strbeq	r0, [r8, #-1562]!	; 0xfffff9e6
    1a58:	04020009 	streq	r0, [r2], #-9
    1a5c:	0a053001 	beq	14da68 <__bss_end__+0x1434e8>
    1a60:	01040200 	mrseq	r0, R12_usr
    1a64:	000c0511 	andeq	r0, ip, r1, lsl r5
    1a68:	06010402 	streq	r0, [r1], -r2, lsl #8
    1a6c:	000a0501 	andeq	r0, sl, r1, lsl #10
    1a70:	2e010402 	cdpcs	4, 0, cr0, cr1, cr2, {0}
    1a74:	03061905 	movweq	r1, #26885	; 0x6905
    1a78:	05667ee8 	strbeq	r7, [r6, #-3816]!	; 0xfffff118
    1a7c:	2f2f2f05 	svccs	0x002f2f05
    1a80:	06010567 	streq	r0, [r1], -r7, ror #10
    1a84:	0004022f 	andeq	r0, r4, pc, lsr #4
    1a88:	03930101 	orrseq	r0, r3, #1073741824	; 0x40000000
    1a8c:	00030000 	andeq	r0, r3, r0
    1a90:	000000b8 	strheq	r0, [r0], -r8
    1a94:	0efb0102 	cdpeq	1, 15, cr0, cr11, cr2, {0}
    1a98:	0101000d 	tsteq	r1, sp
    1a9c:	00000101 	andeq	r0, r0, r1, lsl #2
    1aa0:	00000100 	andeq	r0, r0, r0, lsl #2
    1aa4:	6f682f01 	svcvs	0x00682f01
    1aa8:	652f656d 	strvs	r6, [pc, #-1389]!	; 1543 <__code_start__-0x6abd>
    1aac:	656c676e 	strbvs	r6, [ip, #-1902]!	; 0xfffff892
    1ab0:	6c632f72 	stclvs	15, cr2, [r3], #-456	; 0xfffffe38
    1ab4:	2f737361 	svccs	0x00737361
    1ab8:	34327363 	ldrtcc	r7, [r2], #-867	; 0xfffffc9d
    1abc:	2d786c30 	ldclcs	12, cr6, [r8, #-192]!	; 0xffffff40
    1ac0:	70733232 	rsbsvc	r3, r3, r2, lsr r2
    1ac4:	6c2f2f72 	stcvs	15, cr2, [pc], #-456	; 1904 <__code_start__-0x66fc>
    1ac8:	69706269 	ldmdbvs	r0!, {r0, r3, r5, r6, r9, sp, lr}^
    1acc:	636e692f 	cmnvs	lr, #770048	; 0xbc000
    1ad0:	6564756c 	strbvs	r7, [r4, #-1388]!	; 0xfffffa94
    1ad4:	73752f00 	cmnvc	r5, #0, 30
    1ad8:	68732f72 	ldmdavs	r3!, {r1, r4, r5, r6, r8, r9, sl, fp, sp}^
    1adc:	2f657261 	svccs	0x00657261
    1ae0:	2d636367 	stclcs	3, cr6, [r3, #-412]!	; 0xfffffe64
    1ae4:	2d6d7261 	sfmcs	f7, 2, [sp, #-388]!	; 0xfffffe7c
    1ae8:	656e6f6e 	strbvs	r6, [lr, #-3950]!	; 0xfffff092
    1aec:	6261652d 	rsbvs	r6, r1, #188743680	; 0xb400000
    1af0:	30312d69 	eorscc	r2, r1, r9, ror #26
    1af4:	322d332e 	eorcc	r3, sp, #-1207959552	; 0xb8000000
    1af8:	2e313230 	mrccs	2, 1, r3, cr1, cr0, {1}
    1afc:	6c2f3031 	stcvs	0, cr3, [pc], #-196	; 1a40 <__code_start__-0x65c0>
    1b00:	672f6269 	strvs	r6, [pc, -r9, ror #4]!
    1b04:	612f6363 			; <UNDEFINED> instruction: 0x612f6363
    1b08:	6e2d6d72 	mcrvs	13, 1, r6, cr13, cr2, {3}
    1b0c:	2d656e6f 	stclcs	14, cr6, [r5, #-444]!	; 0xfffffe44
    1b10:	69626165 	stmdbvs	r2!, {r0, r2, r5, r6, r8, sp, lr}^
    1b14:	2e30312f 	rsfcssp	f3, f0, #10.0
    1b18:	2f312e33 	svccs	0x00312e33
    1b1c:	6c636e69 	stclvs	14, cr6, [r3], #-420	; 0xfffffe5c
    1b20:	00656475 	rsbeq	r6, r5, r5, ror r4
    1b24:	616d6b00 	cmnvs	sp, r0, lsl #22
    1b28:	636f6c6c 	cmnvs	pc, #108, 24	; 0x6c00
    1b2c:	0000632e 	andeq	r6, r0, lr, lsr #6
    1b30:	70720000 	rsbsvc	r0, r2, r0
    1b34:	00682e69 	rsbeq	r2, r8, r9, ror #28
    1b38:	73000001 	movwvc	r0, #1
    1b3c:	6e696474 	mcrvs	4, 3, r6, cr9, cr4, {3}
    1b40:	63672d74 	cmnvs	r7, #116, 26	; 0x1d00
    1b44:	00682e63 	rsbeq	r2, r8, r3, ror #28
    1b48:	00000002 	andeq	r0, r0, r2
    1b4c:	05001e05 	streq	r1, [r0, #-3589]	; 0xfffff1fb
    1b50:	0094fc02 	addseq	pc, r4, r2, lsl #24
    1b54:	01270300 			; <UNDEFINED> instruction: 0x01270300
    1b58:	05012005 	streq	r2, [r1, #-5]
    1b5c:	05010631 	streq	r0, [r1, #-1585]	; 0xfffff9cf
    1b60:	05830620 	streq	r0, [r3, #1568]	; 0x620
    1b64:	35050122 	strcc	r0, [r5, #-290]	; 0xfffffede
    1b68:	1e050106 	adfnes	f0, f5, f6
    1b6c:	20058306 	andcs	r8, r5, r6, lsl #6
    1b70:	062d0501 	strteq	r0, [sp], -r1, lsl #10
    1b74:	06420501 	strbeq	r0, [r2], -r1, lsl #10
    1b78:	05010685 	streq	r0, [r1, #-1669]	; 0xfffff97b
    1b7c:	144b0605 	strbne	r0, [fp], #-1541	; 0xfffff9fb
    1b80:	002e0601 	eoreq	r0, lr, r1, lsl #12
    1b84:	06020402 	streq	r0, [r2], -r2, lsl #8
    1b88:	0402002e 	streq	r0, [r2], #-46	; 0xffffffd2
    1b8c:	02000102 	andeq	r0, r0, #-2147483648	; 0x80000000
    1b90:	05150204 	ldreq	r0, [r5, #-516]	; 0xfffffdfc
    1b94:	0402000d 	streq	r0, [r2], #-13
    1b98:	05010602 	streq	r0, [r1, #-1538]	; 0xfffff9fe
    1b9c:	04020007 	streq	r0, [r2], #-7
    1ba0:	09054a02 	stmdbeq	r5, {r1, r9, fp, lr}
    1ba4:	05054b06 	streq	r4, [r5, #-2822]	; 0xfffff4fa
    1ba8:	06170515 			; <UNDEFINED> instruction: 0x06170515
    1bac:	4a100501 	bmi	402fb8 <__bss_end__+0x3f8a38>
    1bb0:	2f060505 	svccs	0x00060505
    1bb4:	01061b05 	tsteq	r6, r5, lsl #22
    1bb8:	052e0e05 	streq	r0, [lr, #-3589]!	; 0xfffff1fb
    1bbc:	05052f01 	streq	r2, [r5, #-3841]	; 0xfffff0ff
    1bc0:	01040200 	mrseq	r0, R12_usr
    1bc4:	4a770306 	bmi	1dc27e4 <__bss_end__+0x1db8264>
    1bc8:	01040200 	mrseq	r0, R12_usr
    1bcc:	04020001 	streq	r0, [r2], #-1
    1bd0:	009e0601 	addseq	r0, lr, r1, lsl #12
    1bd4:	2e010402 	cdpcs	4, 0, cr0, cr1, cr2, {0}
    1bd8:	01040200 	mrseq	r0, R12_usr
    1bdc:	09052e06 	stmdbeq	r5, {r1, r2, r9, sl, fp, sp}
    1be0:	d6060132 			; <UNDEFINED> instruction: 0xd6060132
    1be4:	052e062e 	streq	r0, [lr, #-1582]!	; 0xfffff9d2
    1be8:	0505de19 	streq	sp, [r5, #-3609]	; 0xfffff1e7
    1bec:	0805142f 	stmdaeq	r5, {r0, r1, r2, r3, r5, sl, ip}
    1bf0:	07050106 	streq	r0, [r5, -r6, lsl #2]
    1bf4:	0609054a 	streq	r0, [r9], -sl, asr #10
    1bf8:	1305054b 	movwne	r0, #21835	; 0x554b
    1bfc:	01060c05 	tsteq	r6, r5, lsl #24
    1c00:	67060505 	strvs	r0, [r6, -r5, lsl #10]
    1c04:	06010513 			; <UNDEFINED> instruction: 0x06010513
    1c08:	06090567 	streq	r0, [r9], -r7, ror #10
    1c0c:	059e012a 	ldreq	r0, [lr, #298]	; 0x12a
    1c10:	0106a528 	tsteq	r6, r8, lsr #10
    1c14:	4b060505 	blmi	183030 <__bss_end__+0x178ab0>
    1c18:	062e0601 	strteq	r0, [lr], -r1, lsl #12
    1c1c:	0513012e 	ldreq	r0, [r3, #-302]	; 0xfffffed2
    1c20:	01470318 	cmpeq	r7, r8, lsl r3
    1c24:	01130505 	tsteq	r3, r5, lsl #10
    1c28:	0f060106 	svceq	0x00060106
    1c2c:	05130115 	ldreq	r0, [r3, #-277]	; 0xfffffeeb
    1c30:	0501060e 	streq	r0, [r1, #-1550]	; 0xfffff9f2
    1c34:	052e2e16 	streq	r2, [lr, #-3606]!	; 0xfffff1ea
    1c38:	39030605 	stmdbcc	r3, {r0, r2, r9, sl}
    1c3c:	060b0501 	streq	r0, [fp], -r1, lsl #10
    1c40:	06050501 	streq	r0, [r5], -r1, lsl #10
    1c44:	060a054b 	streq	r0, [sl], -fp, asr #10
    1c48:	06050501 	streq	r0, [r5], -r1, lsl #10
    1c4c:	060d054b 	streq	r0, [sp], -fp, asr #10
    1c50:	2e070501 	cfsh32cs	mvfx0, mvfx7, #1
    1c54:	054d0105 	strbeq	r0, [sp, #-261]	; 0xfffffefb
    1c58:	04020005 	streq	r0, [r2], #-5
    1c5c:	78030601 	stmdavc	r3, {r0, r9, sl}
    1c60:	0402004a 	streq	r0, [r2], #-74	; 0xffffffb6
    1c64:	02000101 	andeq	r0, r0, #1073741824	; 0x40000000
    1c68:	ba060104 	blt	182080 <__bss_end__+0x177b00>
    1c6c:	01040200 	mrseq	r0, R12_usr
    1c70:	09052e06 	stmdbeq	r5, {r1, r2, r9, sl, fp, sp}
    1c74:	82060134 	andhi	r0, r6, #13
    1c78:	052e0666 	streq	r0, [lr, #-1638]!	; 0xfffff99a
    1c7c:	0106db20 	tsteq	r6, r0, lsr #22
    1c80:	4b060505 	blmi	18309c <__bss_end__+0x178b1c>
    1c84:	04020001 	streq	r0, [r2], #-1
    1c88:	02004a02 	andeq	r4, r0, #8192	; 0x2000
    1c8c:	00010204 	andeq	r0, r1, r4, lsl #4
    1c90:	13020402 	movwne	r0, #9218	; 0x2402
    1c94:	02001205 	andeq	r1, r0, #1342177280	; 0x50000000
    1c98:	01060204 	tsteq	r6, r4, lsl #4
    1c9c:	02040200 	andeq	r0, r4, #0, 4
    1ca0:	0402002e 	streq	r0, [r2], #-46	; 0xffffffd2
    1ca4:	05052e02 	streq	r2, [r5, #-3586]	; 0xfffff1fe
    1ca8:	02040200 	andeq	r0, r4, #0, 4
    1cac:	02002f06 	andeq	r2, r0, #6, 30
    1cb0:	05670204 	strbeq	r0, [r7, #-516]!	; 0xfffffdfc
    1cb4:	04020001 	streq	r0, [r2], #-1
    1cb8:	05130602 	ldreq	r0, [r3, #-1538]	; 0xfffff9fe
    1cbc:	04020005 	streq	r0, [r2], #-5
    1cc0:	00620601 	rsbeq	r0, r2, r1, lsl #12
    1cc4:	01010402 	tsteq	r1, r2, lsl #8
    1cc8:	01040200 	mrseq	r0, R12_usr
    1ccc:	0200ba06 	andeq	fp, r0, #24576	; 0x6000
    1cd0:	2e060104 	adfcss	f0, f6, f4
    1cd4:	0a033c05 	beq	d0cf0 <__bss_end__+0xc6770>
    1cd8:	0501069e 	streq	r0, [r1, #-1694]	; 0xfffff962
    1cdc:	014b0605 	cmpeq	fp, r5, lsl #12
    1ce0:	2e062e06 	cdpcs	14, 0, cr2, cr6, cr6, {0}
    1ce4:	05011301 	streq	r1, [r1, #-769]	; 0xfffffcff
    1ce8:	7fad0318 	svcvc	0x00ad0318
    1cec:	13050501 	movwne	r0, #21761	; 0x5501
    1cf0:	01061105 	tsteq	r6, r5, lsl #2
    1cf4:	0305052e 	movweq	r0, #21806	; 0x552e
    1cf8:	060100d2 			; <UNDEFINED> instruction: 0x060100d2
    1cfc:	1805134a 	stmdane	r5, {r1, r3, r6, r8, r9, ip}
    1d00:	017fa303 	cmneq	pc, r3, lsl #6
    1d04:	05130505 	ldreq	r0, [r3, #-1285]	; 0xfffffafb
    1d08:	4a010616 	bmi	43568 <__bss_end__+0x38fe8>
    1d0c:	03060505 	movweq	r0, #25861	; 0x6505
    1d10:	050100e1 	streq	r0, [r1, #-225]	; 0xffffff1f
    1d14:	05010612 	streq	r0, [r1, #-1554]	; 0xfffff9ee
    1d18:	054b0605 	strbeq	r0, [fp, #-1541]	; 0xfffff9fb
    1d1c:	7fa90318 	svcvc	0x00a90318
    1d20:	13050501 	movwne	r0, #21761	; 0x5501
    1d24:	0e180501 	cfmul32eq	mvfx0, mvfx8, mvfx1
    1d28:	05130505 	ldreq	r0, [r3, #-1285]	; 0xfffffafb
    1d2c:	2e010611 	mcrcs	6, 0, r0, cr1, cr1, {0}
    1d30:	06150505 	ldreq	r0, [r5], -r5, lsl #10
    1d34:	0513014a 	ldreq	r0, [r3, #-330]	; 0xfffffeb6
    1d38:	2e01060e 	cfmadd32cs	mvax0, mvfx0, mvfx1, mvfx14
    1d3c:	2e2e1605 	cfmadda32cs	mvax0, mvax1, mvfx14, mvfx5
    1d40:	03060505 	movweq	r0, #25861	; 0x6505
    1d44:	010100d6 	ldrdeq	r0, [r1, -r6]
    1d48:	9f031805 	svcls	0x00031805
    1d4c:	0505017f 	streq	r0, [r5, #-383]	; 0xfffffe81
    1d50:	06190513 			; <UNDEFINED> instruction: 0x06190513
    1d54:	05052e01 	streq	r2, [r5, #-3585]	; 0xfffff1ff
    1d58:	0100e003 	tsteq	r0, r3
    1d5c:	02040200 	andeq	r0, r4, #0, 4
    1d60:	02004a06 	andeq	r4, r0, #24576	; 0x6000
    1d64:	05140204 	ldreq	r0, [r4, #-516]	; 0xfffffdfc
    1d68:	0402000a 	streq	r0, [r2], #-10
    1d6c:	05010602 	streq	r0, [r1, #-1538]	; 0xfffff9fe
    1d70:	04020005 	streq	r0, [r2], #-5
    1d74:	054b0602 	strbeq	r0, [fp, #-1538]	; 0xfffff9fe
    1d78:	0402000c 	streq	r0, [r2], #-12
    1d7c:	05010602 	streq	r0, [r1, #-1538]	; 0xfffff9fe
    1d80:	04020001 	streq	r0, [r2], #-1
    1d84:	05052f02 	streq	r2, [r5, #-3842]	; 0xfffff0fe
    1d88:	01040200 	mrseq	r0, R12_usr
    1d8c:	4a730306 	bmi	1cc29ac <__bss_end__+0x1cb842c>
    1d90:	01040200 	mrseq	r0, R12_usr
    1d94:	04020001 	streq	r0, [r2], #-1
    1d98:	009e0601 	addseq	r0, lr, r1, lsl #12
    1d9c:	2e010402 	cdpcs	4, 0, cr0, cr1, cr2, {0}
    1da0:	01040200 	mrseq	r0, R12_usr
    1da4:	02002e06 	andeq	r2, r0, #96	; 0x60
    1da8:	002f0104 	eoreq	r0, pc, r4, lsl #2
    1dac:	2e010402 	cdpcs	4, 0, cr0, cr1, cr2, {0}
    1db0:	01040200 	mrseq	r0, R12_usr
    1db4:	7fb103d6 	svcvc	0x00b103d6
    1db8:	8206012e 	andhi	r0, r6, #-2147483637	; 0x8000000b
    1dbc:	2e062e2e 	cdpcs	14, 0, cr2, cr6, cr14, {1}
    1dc0:	02002e06 	andeq	r2, r0, #96	; 0x60
    1dc4:	03060104 	movweq	r0, #24836	; 0x6104
    1dc8:	000100d7 	ldrdeq	r0, [r1], -r7
    1dcc:	2e010402 	cdpcs	4, 0, cr0, cr1, cr2, {0}
    1dd0:	01040200 	mrseq	r0, R12_usr
    1dd4:	081505d6 	ldmdaeq	r5, {r1, r2, r4, r6, r7, r8, sl}
    1dd8:	0117057b 	tsteq	r7, fp, ror r5
    1ddc:	05311605 	ldreq	r1, [r1, #-1541]!	; 0xfffff9fb
    1de0:	1d050118 	stfnes	f0, [r5, #-96]	; 0xffffffa0
    1de4:	2b050106 	blcs	142204 <__bss_end__+0x137c84>
    1de8:	06190566 	ldreq	r0, [r9], -r6, ror #10
    1dec:	1305054d 	movwne	r0, #21837	; 0x554d
    1df0:	01060c05 	tsteq	r6, r5, lsl #24
    1df4:	054a0705 	strbeq	r0, [sl, #-1797]	; 0xfffff8fb
    1df8:	04020025 	streq	r0, [r2], #-37	; 0xffffffdb
    1dfc:	1e054a01 	vmlane.f32	s8, s10, s2
    1e00:	01040200 	mrseq	r0, R12_usr
    1e04:	0609054a 	streq	r0, [r9], -sl, asr #10
    1e08:	1305054b 	movwne	r0, #21835	; 0x554b
    1e0c:	01060a05 	tsteq	r6, r5, lsl #20
    1e10:	05631905 	strbeq	r1, [r3, #-2309]!	; 0xfffff6fb
    1e14:	014c0609 	cmpeq	ip, r9, lsl #12
    1e18:	2e069e06 	cdpcs	14, 0, cr9, cr6, cr6, {0}
    1e1c:	01000a02 	tsteq	r0, r2, lsl #20
    1e20:	0000be01 	andeq	fp, r0, r1, lsl #28
    1e24:	80000300 	andhi	r0, r0, r0, lsl #6
    1e28:	02000000 	andeq	r0, r0, #0, 0
    1e2c:	0d0efb01 	vstreq	d15, [lr, #-4]
    1e30:	01010100 	mrseq	r0, (UNDEF: 17)
    1e34:	00000001 	andeq	r0, r0, r1
    1e38:	01000001 	tsteq	r0, r1
    1e3c:	696c2f2e 	stmdbvs	ip!, {r1, r2, r3, r5, r8, r9, sl, fp, sp}^
    1e40:	2f006362 	svccs	0x00006362
    1e44:	72657355 	rsbvc	r7, r5, #1409286145	; 0x54000001
    1e48:	72742f73 	rsbsvc	r2, r4, #460	; 0x1cc
    1e4c:	65747369 	ldrbvs	r7, [r4, #-873]!	; 0xfffffc97
    1e50:	6c6f6e6e 	stclvs	14, cr6, [pc], #-440	; 1ca0 <__code_start__-0x6360>
    1e54:	6e616d6c 	cdpvs	13, 6, cr6, cr1, cr12, {3}
    1e58:	636f442f 	cmnvs	pc, #788529152	; 0x2f000000
    1e5c:	6e656d75 	mcrvs	13, 3, r6, cr5, cr5, {3}
    1e60:	532f7374 			; <UNDEFINED> instruction: 0x532f7374
    1e64:	6e697270 	mcrvs	2, 3, r7, cr9, cr0, {3}
    1e68:	75515f67 	ldrbvc	r5, [r1, #-3943]	; 0xfffff099
    1e6c:	65747261 	ldrbvs	r7, [r4, #-609]!	; 0xfffffd9f
    1e70:	30325f72 	eorscc	r5, r2, r2, ror pc
    1e74:	432f3232 			; <UNDEFINED> instruction: 0x432f3232
    1e78:	30343253 	eorscc	r3, r4, r3, asr r2
    1e7c:	732d584c 			; <UNDEFINED> instruction: 0x732d584c
    1e80:	32327270 	eorscc	r7, r2, #112, 4
    1e84:	62696c2f 	rsbvs	r6, r9, #12032	; 0x2f00
    1e88:	692f6970 	stmdbvs	pc!, {r4, r5, r6, r8, fp, sp, lr}	; <UNPREDICTABLE>
    1e8c:	756c636e 	strbvc	r6, [ip, #-878]!	; 0xfffffc92
    1e90:	00006564 	andeq	r6, r0, r4, ror #10
    1e94:	63747570 	cmnvs	r4, #112, 10	; 0x1c000000
    1e98:	2e726168 	rpwcssz	f6, f2, #0.0
    1e9c:	00010063 	andeq	r0, r1, r3, rrx
    1ea0:	69707200 	ldmdbvs	r0!, {r9, ip, sp, lr}^
    1ea4:	0200682e 	andeq	r6, r0, #3014656	; 0x2e0000
    1ea8:	05000000 	streq	r0, [r0, #-0]
    1eac:	02050024 	andeq	r0, r5, #36, 0	; 0x24
    1eb0:	000098ac 	andeq	r9, r0, ip, lsr #17
    1eb4:	05010614 	streq	r0, [r1, #-1556]	; 0xfffff9ec
    1eb8:	054a0626 	strbeq	r0, [sl, #-1574]	; 0xfffff9da
    1ebc:	01052e34 	tsteq	r5, r4, lsr lr
    1ec0:	1b050106 	blne	1422e0 <__bss_end__+0x137d60>
    1ec4:	05054f06 	streq	r4, [r5, #-3846]	; 0xfffff0fa
    1ec8:	06110513 			; <UNDEFINED> instruction: 0x06110513
    1ecc:	67010501 	strvs	r0, [r1, -r1, lsl #10]
    1ed0:	67062305 	strvs	r2, [r6, -r5, lsl #6]
    1ed4:	05130505 	ldreq	r0, [r3, #-1285]	; 0xfffffafb
    1ed8:	05010611 	streq	r0, [r1, #-1553]	; 0xfffff9ef
    1edc:	04024b01 	streq	r4, [r2], #-2817	; 0xfffff4ff
    1ee0:	0a010100 	beq	422e8 <__bss_end__+0x37d68>
    1ee4:	03000001 	movweq	r0, #1
    1ee8:	00007f00 	andeq	r7, r0, r0, lsl #30
    1eec:	fb010200 	blx	426f6 <__bss_end__+0x38176>
    1ef0:	01000d0e 	tsteq	r0, lr, lsl #26
    1ef4:	00010101 	andeq	r0, r1, r1, lsl #2
    1ef8:	00010000 	andeq	r0, r1, r0
    1efc:	2f2e0100 	svccs	0x002e0100
    1f00:	6362696c 	cmnvs	r2, #108, 18	; 0x1b0000
    1f04:	73552f00 	cmpvc	r5, #0, 30
    1f08:	2f737265 	svccs	0x00737265
    1f0c:	73697274 	cmnvc	r9, #116, 4	; 0x40000007
    1f10:	6e6e6574 	mcrvs	5, 3, r6, cr14, cr4, {3}
    1f14:	6d6c6c6f 	stclvs	12, cr6, [ip, #-444]!	; 0xfffffe44
    1f18:	442f6e61 	strtmi	r6, [pc], #-3681	; 1f20 <__code_start__-0x60e0>
    1f1c:	6d75636f 	ldclvs	3, cr6, [r5, #-444]!	; 0xfffffe44
    1f20:	73746e65 	cmnvc	r4, #1616	; 0x650
    1f24:	7270532f 	rsbsvc	r5, r0, #-1140850688	; 0xbc000000
    1f28:	5f676e69 	svcpl	0x00676e69
    1f2c:	72617551 	rsbvc	r7, r1, #339738624	; 0x14400000
    1f30:	5f726574 	svcpl	0x00726574
    1f34:	32323032 	eorscc	r3, r2, #50, 0	; 0x32
    1f38:	3253432f 	subscc	r4, r3, #-1140850688	; 0xbc000000
    1f3c:	584c3034 	stmdapl	ip, {r2, r4, r5, ip, sp}^
    1f40:	7270732d 	rsbsvc	r7, r0, #-1275068416	; 0xb4000000
    1f44:	6c2f3232 	sfmvs	f3, 4, [pc], #-200	; 1e84 <__code_start__-0x617c>
    1f48:	69706269 	ldmdbvs	r0!, {r0, r3, r5, r6, r9, sp, lr}^
    1f4c:	636e692f 	cmnvs	lr, #770048	; 0xbc000
    1f50:	6564756c 	strbvs	r7, [r4, #-1388]!	; 0xfffffa94
    1f54:	74730000 	ldrbtvc	r0, [r3], #-0
    1f58:	74616372 	strbtvc	r6, [r1], #-882	; 0xfffffc8e
    1f5c:	0100632e 	tsteq	r0, lr, lsr #6
    1f60:	70720000 	rsbsvc	r0, r2, r0
    1f64:	00682e69 	rsbeq	r2, r8, r9, ror #28
    1f68:	00000002 	andeq	r0, r0, r2
    1f6c:	05002c05 	streq	r2, [r0, #-3077]	; 0xfffff3fb
    1f70:	0098e802 	addseq	lr, r8, r2, lsl #16
    1f74:	05051500 	streq	r1, [r5, #-1280]	; 0xfffffb00
    1f78:	0b051313 	bleq	146bcc <__bss_end__+0x13c64c>
    1f7c:	05051106 	streq	r1, [r5, #-262]	; 0xfffffefa
    1f80:	01040200 	mrseq	r0, R12_usr
    1f84:	02003006 	andeq	r3, r0, #6, 0
    1f88:	05150104 	ldreq	r0, [r5, #-260]	; 0xfffffefc
    1f8c:	04020009 	streq	r0, [r2], #-9
    1f90:	10051301 	andne	r1, r5, r1, lsl #6
    1f94:	01040200 	mrseq	r0, R12_usr
    1f98:	0b052e06 	bleq	14d7b8 <__bss_end__+0x143238>
    1f9c:	01040200 	mrseq	r0, R12_usr
    1fa0:	0402002e 	streq	r0, [r2], #-46	; 0xffffffd2
    1fa4:	052f0601 	streq	r0, [pc, #-1537]!	; 19ab <__code_start__-0x6655>
    1fa8:	04020005 	streq	r0, [r2], #-5
    1fac:	06010601 	streq	r0, [r1], -r1, lsl #12
    1fb0:	0608054e 	streq	r0, [r8], -lr, asr #10
    1fb4:	00050501 	andeq	r0, r5, r1, lsl #10
    1fb8:	06010402 	streq	r0, [r1], -r2, lsl #8
    1fbc:	0009052f 	andeq	r0, r9, pc, lsr #10
    1fc0:	13010402 	movwne	r0, #5122	; 0x1402
    1fc4:	02000b05 	andeq	r0, r0, #5120	; 0x1400
    1fc8:	01060104 	tsteq	r6, r4, lsl #2
    1fcc:	02000905 	andeq	r0, r0, #81920	; 0x14000
    1fd0:	4b060104 	blmi	1823e8 <__bss_end__+0x177e68>
    1fd4:	02000f05 	andeq	r0, r0, #5, 30
    1fd8:	01060104 	tsteq	r6, r4, lsl #2
    1fdc:	02000d05 	andeq	r0, r0, #320	; 0x140
    1fe0:	2f060104 	svccs	0x00060104
    1fe4:	02000505 	andeq	r0, r0, #20971520	; 0x1400000
    1fe8:	01060104 	tsteq	r6, r4, lsl #2
    1fec:	01000602 	tsteq	r0, r2, lsl #12
    1ff0:	0000c301 	andeq	ip, r0, r1, lsl #6
    1ff4:	7f000300 	svcvc	0x00000300
    1ff8:	02000000 	andeq	r0, r0, #0, 0
    1ffc:	0d0efb01 	vstreq	d15, [lr, #-4]
    2000:	01010100 	mrseq	r0, (UNDEF: 17)
    2004:	00000001 	andeq	r0, r0, r1
    2008:	01000001 	tsteq	r0, r1
    200c:	696c2f2e 	stmdbvs	ip!, {r1, r2, r3, r5, r8, r9, sl, fp, sp}^
    2010:	2f006362 	svccs	0x00006362
    2014:	72657355 	rsbvc	r7, r5, #1409286145	; 0x54000001
    2018:	72742f73 	rsbsvc	r2, r4, #460	; 0x1cc
    201c:	65747369 	ldrbvs	r7, [r4, #-873]!	; 0xfffffc97
    2020:	6c6f6e6e 	stclvs	14, cr6, [pc], #-440	; 1e70 <__code_start__-0x6190>
    2024:	6e616d6c 	cdpvs	13, 6, cr6, cr1, cr12, {3}
    2028:	636f442f 	cmnvs	pc, #788529152	; 0x2f000000
    202c:	6e656d75 	mcrvs	13, 3, r6, cr5, cr5, {3}
    2030:	532f7374 			; <UNDEFINED> instruction: 0x532f7374
    2034:	6e697270 	mcrvs	2, 3, r7, cr9, cr0, {3}
    2038:	75515f67 	ldrbvc	r5, [r1, #-3943]	; 0xfffff099
    203c:	65747261 	ldrbvs	r7, [r4, #-609]!	; 0xfffffd9f
    2040:	30325f72 	eorscc	r5, r2, r2, ror pc
    2044:	432f3232 			; <UNDEFINED> instruction: 0x432f3232
    2048:	30343253 	eorscc	r3, r4, r3, asr r2
    204c:	732d584c 			; <UNDEFINED> instruction: 0x732d584c
    2050:	32327270 	eorscc	r7, r2, #112, 4
    2054:	62696c2f 	rsbvs	r6, r9, #12032	; 0x2f00
    2058:	692f6970 	stmdbvs	pc!, {r4, r5, r6, r8, fp, sp, lr}	; <UNPREDICTABLE>
    205c:	756c636e 	strbvc	r6, [ip, #-878]!	; 0xfffffc92
    2060:	00006564 	andeq	r6, r0, r4, ror #10
    2064:	63727473 	cmnvs	r2, #1929379840	; 0x73000000
    2068:	632e706d 			; <UNDEFINED> instruction: 0x632e706d
    206c:	00000100 	andeq	r0, r0, r0, lsl #2
    2070:	2e697072 	mcrcs	0, 3, r7, cr9, cr2, {3}
    2074:	00020068 	andeq	r0, r2, r8, rrx
    2078:	2a050000 	bcs	142080 <__bss_end__+0x137b00>
    207c:	1c020500 	cfstr32ne	mvfx0, [r2], {-0}
    2080:	14000099 	strne	r0, [r0], #-153	; 0xffffff67
    2084:	05130905 	ldreq	r0, [r3, #-2309]	; 0xfffff6fb
    2088:	1005010f 	andne	r0, r5, pc, lsl #2
    208c:	0f050106 	svceq	0x00050106
    2090:	001c052e 	andseq	r0, ip, lr, lsr #10
    2094:	4a010402 	bmi	430a4 <__bss_end__+0x38b24>
    2098:	02001305 	andeq	r1, r0, #335544320	; 0x14000000
    209c:	052e0104 	streq	r0, [lr, #-260]!	; 0xfffffefc
    20a0:	052f0611 	streq	r0, [pc, #-1553]!	; 1a97 <__code_start__-0x6569>
    20a4:	2e2e0616 	mcrcs	6, 1, r0, cr14, cr6, {0}
    20a8:	2f060905 	svccs	0x00060905
    20ac:	01061505 	tsteq	r6, r5, lsl #10
    20b0:	022f0105 	eoreq	r0, pc, #1073741825	; 0x40000001
    20b4:	01010004 	tsteq	r1, r4
    20b8:	000000c1 	andeq	r0, r0, r1, asr #1
    20bc:	007f0003 	rsbseq	r0, pc, r3
    20c0:	01020000 	mrseq	r0, (UNDEF: 2)
    20c4:	000d0efb 	strdeq	r0, [sp], -fp
    20c8:	01010101 	tsteq	r1, r1, lsl #2
    20cc:	01000000 	mrseq	r0, (UNDEF: 0)
    20d0:	2e010000 	cdpcs	0, 0, cr0, cr1, cr0, {0}
    20d4:	62696c2f 	rsbvs	r6, r9, #12032	; 0x2f00
    20d8:	552f0063 	strpl	r0, [pc, #-99]!	; 207d <__code_start__-0x5f83>
    20dc:	73726573 	cmnvc	r2, #482344960	; 0x1cc00000
    20e0:	6972742f 	ldmdbvs	r2!, {r0, r1, r2, r3, r5, sl, ip, sp, lr}^
    20e4:	6e657473 	mcrvs	4, 3, r7, cr5, cr3, {3}
    20e8:	6c6c6f6e 	stclvs	15, cr6, [ip], #-440	; 0xfffffe48
    20ec:	2f6e616d 	svccs	0x006e616d
    20f0:	75636f44 	strbvc	r6, [r3, #-3908]!	; 0xfffff0bc
    20f4:	746e656d 	strbtvc	r6, [lr], #-1389	; 0xfffffa93
    20f8:	70532f73 	subsvc	r2, r3, r3, ror pc
    20fc:	676e6972 			; <UNDEFINED> instruction: 0x676e6972
    2100:	6175515f 	cmnvs	r5, pc, asr r1
    2104:	72657472 	rsbvc	r7, r5, #1912602624	; 0x72000000
    2108:	3230325f 	eorscc	r3, r0, #-268435451	; 0xf0000005
    210c:	53432f32 	movtpl	r2, #16178	; 0x3f32
    2110:	4c303432 	cfldrsmi	mvf3, [r0], #-200	; 0xffffff38
    2114:	70732d58 	rsbsvc	r2, r3, r8, asr sp
    2118:	2f323272 	svccs	0x00323272
    211c:	7062696c 	rsbvc	r6, r2, ip, ror #18
    2120:	6e692f69 	cdpvs	15, 6, cr2, cr9, cr9, {3}
    2124:	64756c63 	ldrbtvs	r6, [r5], #-3171	; 0xfffff39d
    2128:	73000065 	movwvc	r0, #101	; 0x65
    212c:	70637274 	rsbvc	r7, r3, r4, ror r2
    2130:	00632e79 	rsbeq	r2, r3, r9, ror lr
    2134:	72000001 	andvc	r0, r0, #1, 0
    2138:	682e6970 	stmdavs	lr!, {r4, r5, r6, r8, fp, sp, lr}
    213c:	00000200 	andeq	r0, r0, r0, lsl #4
    2140:	002a0500 	eoreq	r0, sl, r0, lsl #10
    2144:	99480205 	stmdbls	r8, {r0, r2, r9}^
    2148:	05140000 	ldreq	r0, [r4, #-0]
    214c:	05131305 	ldreq	r1, [r3, #-773]	; 0xfffffcfb
    2150:	05110614 	ldreq	r0, [r1, #-1556]	; 0xfffff9ec
    2154:	04020022 	streq	r0, [r2], #-34	; 0xffffffde
    2158:	052f0601 	streq	r0, [pc, #-1537]!	; 1b5f <__code_start__-0x64a1>
    215c:	0402000b 	streq	r0, [r2], #-11
    2160:	15050101 	strne	r0, [r5, #-257]	; 0xfffffeff
    2164:	01040200 	mrseq	r0, R12_usr
    2168:	13050106 	movwne	r0, #20742	; 0x5106
    216c:	01040200 	mrseq	r0, R12_usr
    2170:	000b054a 	andeq	r0, fp, sl, asr #10
    2174:	4a010402 	bmi	43184 <__bss_end__+0x38c04>
    2178:	01000602 	tsteq	r0, r2, lsl #12
    217c:	00012101 	andeq	r2, r1, r1, lsl #2
    2180:	e5000300 	str	r0, [r0, #-768]	; 0xfffffd00
    2184:	02000000 	andeq	r0, r0, #0, 0
    2188:	0d0efb01 	vstreq	d15, [lr, #-4]
    218c:	01010100 	mrseq	r0, (UNDEF: 17)
    2190:	00000001 	andeq	r0, r0, r1
    2194:	01000001 	tsteq	r0, r1
    2198:	696c2f2e 	stmdbvs	ip!, {r1, r2, r3, r5, r8, r9, sl, fp, sp}^
    219c:	2f006362 	svccs	0x00006362
    21a0:	72657355 	rsbvc	r7, r5, #1409286145	; 0x54000001
    21a4:	72742f73 	rsbsvc	r2, r4, #460	; 0x1cc
    21a8:	65747369 	ldrbvs	r7, [r4, #-873]!	; 0xfffffc97
    21ac:	6c6f6e6e 	stclvs	14, cr6, [pc], #-440	; 1ffc <__code_start__-0x6004>
    21b0:	6e616d6c 	cdpvs	13, 6, cr6, cr1, cr12, {3}
    21b4:	636f442f 	cmnvs	pc, #788529152	; 0x2f000000
    21b8:	6e656d75 	mcrvs	13, 3, r6, cr5, cr5, {3}
    21bc:	532f7374 			; <UNDEFINED> instruction: 0x532f7374
    21c0:	6e697270 	mcrvs	2, 3, r7, cr9, cr0, {3}
    21c4:	75515f67 	ldrbvc	r5, [r1, #-3943]	; 0xfffff099
    21c8:	65747261 	ldrbvs	r7, [r4, #-609]!	; 0xfffffd9f
    21cc:	30325f72 	eorscc	r5, r2, r2, ror pc
    21d0:	432f3232 			; <UNDEFINED> instruction: 0x432f3232
    21d4:	30343253 	eorscc	r3, r4, r3, asr r2
    21d8:	732d584c 			; <UNDEFINED> instruction: 0x732d584c
    21dc:	32327270 	eorscc	r7, r2, #112, 4
    21e0:	62696c2f 	rsbvs	r6, r9, #12032	; 0x2f00
    21e4:	692f6970 	stmdbvs	pc!, {r4, r5, r6, r8, fp, sp, lr}	; <UNPREDICTABLE>
    21e8:	756c636e 	strbvc	r6, [ip, #-878]!	; 0xfffffc92
    21ec:	2f006564 	svccs	0x00006564
    21f0:	2f727375 	svccs	0x00727375
    21f4:	61636f6c 	cmnvs	r3, ip, ror #30
    21f8:	65432f6c 	strbvs	r2, [r3, #-3948]	; 0xfffff094
    21fc:	72616c6c 	rsbvc	r6, r1, #108, 24	; 0x6c00
    2200:	6d72612f 	ldfvse	f6, [r2, #-188]!	; 0xffffff44
    2204:	6e6f6e2d 	cdpvs	14, 6, cr6, cr15, cr13, {1}
    2208:	61652d65 	cmnvs	r5, r5, ror #26
    220c:	742d6962 	strtvc	r6, [sp], #-2402	; 0xfffff69e
    2210:	2f747365 	svccs	0x00747365
    2214:	30322d39 	eorscc	r2, r2, r9, lsr sp
    2218:	34713931 	ldrbtcc	r3, [r1], #-2353	; 0xfffff6cf
    221c:	3173632d 	cmncc	r3, sp, lsr #6
    2220:	2f653730 	svccs	0x00653730
    2224:	2f62696c 	svccs	0x0062696c
    2228:	2f636367 	svccs	0x00636367
    222c:	2d6d7261 	sfmcs	f7, 2, [sp, #-388]!	; 0xfffffe7c
    2230:	656e6f6e 	strbvs	r6, [lr, #-3950]!	; 0xfffff092
    2234:	6261652d 	rsbvs	r6, r1, #188743680	; 0xb400000
    2238:	2e392f69 	cdpcs	15, 3, cr2, cr9, cr9, {3}
    223c:	2f312e32 	svccs	0x00312e32
    2240:	6c636e69 	stclvs	14, cr6, [r3], #-420	; 0xfffffe5c
    2244:	00656475 	rsbeq	r6, r5, r5, ror r4
    2248:	72747300 	rsbsvc	r7, r4, #0, 6
    224c:	706d636e 	rsbvc	r6, sp, lr, ror #6
    2250:	0100632e 	tsteq	r0, lr, lsr #6
    2254:	70720000 	rsbsvc	r0, r2, r0
    2258:	00682e69 	rsbeq	r2, r8, r9, ror #28
    225c:	73000002 	movwvc	r0, #2
    2260:	65646474 	strbvs	r6, [r4, #-1140]!	; 0xfffffb8c
    2264:	00682e66 	rsbeq	r2, r8, r6, ror #28
    2268:	00000003 	andeq	r0, r0, r3
    226c:	05003905 	streq	r3, [r0, #-2309]	; 0xfffff6fb
    2270:	00996802 	addseq	r6, r9, r2, lsl #16
    2274:	05051500 	streq	r1, [r5, #-1280]	; 0xfffffb00
    2278:	0a051313 	beq	146ecc <__bss_end__+0x13c94c>
    227c:	4a010601 	bmi	43a88 <__bss_end__+0x39508>
    2280:	2f060905 	svccs	0x00060905
    2284:	01060c05 	tsteq	r6, r5, lsl #24
    2288:	052e1305 	streq	r1, [lr, #-773]!	; 0xfffffcfb
    228c:	0d052e0b 	stceq	14, cr2, [r5, #-44]	; 0xffffffd4
    2290:	1b054b06 	blne	154eb0 <__bss_end__+0x14a930>
    2294:	052e0106 	streq	r0, [lr, #-262]!	; 0xfffffefa
    2298:	0105300c 	tsteq	r5, ip
    229c:	0002022f 	andeq	r0, r2, pc, lsr #4
    22a0:	00b00101 	adcseq	r0, r0, r1, lsl #2
    22a4:	00030000 	andeq	r0, r3, r0
    22a8:	00000094 	muleq	r0, r4, r0
    22ac:	0efb0102 	cdpeq	1, 15, cr0, cr11, cr2, {0}
    22b0:	0101000d 	tsteq	r1, sp
    22b4:	00000101 	andeq	r0, r0, r1, lsl #2
    22b8:	00000100 	andeq	r0, r0, r0, lsl #2
    22bc:	732f2e01 			; <UNDEFINED> instruction: 0x732f2e01
    22c0:	66666174 			; <UNDEFINED> instruction: 0x66666174
    22c4:	6372732d 	cmnvs	r2, #-1275068416	; 0xb4000000
    22c8:	73552f00 	cmpvc	r5, #0, 30
    22cc:	2f737265 	svccs	0x00737265
    22d0:	73697274 	cmnvc	r9, #116, 4	; 0x40000007
    22d4:	6e6e6574 	mcrvs	5, 3, r6, cr14, cr4, {3}
    22d8:	6d6c6c6f 	stclvs	12, cr6, [ip, #-444]!	; 0xfffffe44
    22dc:	442f6e61 	strtmi	r6, [pc], #-3681	; 22e4 <__code_start__-0x5d1c>
    22e0:	6d75636f 	ldclvs	3, cr6, [r5, #-444]!	; 0xfffffe44
    22e4:	73746e65 	cmnvc	r4, #1616	; 0x650
    22e8:	7270532f 	rsbsvc	r5, r0, #-1140850688	; 0xbc000000
    22ec:	5f676e69 	svcpl	0x00676e69
    22f0:	72617551 	rsbvc	r7, r1, #339738624	; 0x14400000
    22f4:	5f726574 	svcpl	0x00726574
    22f8:	32323032 	eorscc	r3, r2, #50, 0	; 0x32
    22fc:	3253432f 	subscc	r4, r3, #-1140850688	; 0xbc000000
    2300:	584c3034 	stmdapl	ip, {r2, r4, r5, ip, sp}^
    2304:	7270732d 	rsbsvc	r7, r0, #-1275068416	; 0xb4000000
    2308:	6c2f3232 	sfmvs	f3, 4, [pc], #-200	; 2248 <__code_start__-0x5db8>
    230c:	69706269 	ldmdbvs	r0!, {r0, r3, r5, r6, r9, sp, lr}^
    2310:	636e692f 	cmnvs	lr, #770048	; 0xbc000
    2314:	6564756c 	strbvs	r7, [r4, #-1388]!	; 0xfffffa94
    2318:	65640000 	strbvs	r0, [r4, #-0]!
    231c:	6c756166 	ldfvse	f6, [r5], #-408	; 0xfffffe68
    2320:	65722d74 	ldrbvs	r2, [r2, #-3444]!	; 0xfffff28c
    2324:	746f6f62 	strbtvc	r6, [pc], #-3938	; 232c <__code_start__-0x5cd4>
    2328:	6c61632d 	stclvs	3, cr6, [r1], #-180	; 0xffffff4c
    232c:	74756f6c 	ldrbtvc	r6, [r5], #-3948	; 0xfffff094
    2330:	0100632e 	tsteq	r0, lr, lsr #6
    2334:	70720000 	rsbsvc	r0, r2, r0
    2338:	00682e69 	rsbeq	r2, r8, r9, ror #28
    233c:	00000002 	andeq	r0, r0, r2
    2340:	05001b05 	streq	r1, [r0, #-2821]	; 0xfffff4fb
    2344:	00999402 	addseq	r9, r9, r2, lsl #8
    2348:	1c051400 	cfstrsne	mvf1, [r5], {-0}
    234c:	06010501 	streq	r0, [r1], -r1, lsl #10
    2350:	00020201 	andeq	r0, r2, r1, lsl #4
    2354:	01bb0101 			; <UNDEFINED> instruction: 0x01bb0101
    2358:	00030000 	andeq	r0, r3, r0
    235c:	000000bf 	strheq	r0, [r0], -pc	; <UNPREDICTABLE>
    2360:	0efb0102 	cdpeq	1, 15, cr0, cr11, cr2, {0}
    2364:	0101000d 	tsteq	r1, sp
    2368:	00000101 	andeq	r0, r0, r1, lsl #2
    236c:	00000100 	andeq	r0, r0, r0, lsl #2
    2370:	6f682f01 	svcvs	0x00682f01
    2374:	652f656d 	strvs	r6, [pc, #-1389]!	; 1e0f <__code_start__-0x61f1>
    2378:	656c676e 	strbvs	r6, [ip, #-1902]!	; 0xfffff892
    237c:	6c632f72 	stclvs	15, cr2, [r3], #-456	; 0xfffffe38
    2380:	2f737361 	svccs	0x00737361
    2384:	34327363 	ldrtcc	r7, [r2], #-867	; 0xfffffc9d
    2388:	2d786c30 	ldclcs	12, cr6, [r8, #-192]!	; 0xffffff40
    238c:	70733232 	rsbsvc	r3, r3, r2, lsr r2
    2390:	6c2f2f72 	stcvs	15, cr2, [pc], #-456	; 21d0 <__code_start__-0x5e30>
    2394:	69706269 	ldmdbvs	r0!, {r0, r3, r5, r6, r9, sp, lr}^
    2398:	636e692f 	cmnvs	lr, #770048	; 0xbc000
    239c:	6564756c 	strbvs	r7, [r4, #-1388]!	; 0xfffffa94
    23a0:	73752f00 	cmnvc	r5, #0, 30
    23a4:	68732f72 	ldmdavs	r3!, {r1, r4, r5, r6, r8, r9, sl, fp, sp}^
    23a8:	2f657261 	svccs	0x00657261
    23ac:	2d636367 	stclcs	3, cr6, [r3, #-412]!	; 0xfffffe64
    23b0:	2d6d7261 	sfmcs	f7, 2, [sp, #-388]!	; 0xfffffe7c
    23b4:	656e6f6e 	strbvs	r6, [lr, #-3950]!	; 0xfffff092
    23b8:	6261652d 	rsbvs	r6, r1, #188743680	; 0xb400000
    23bc:	30312d69 	eorscc	r2, r1, r9, ror #26
    23c0:	322d332e 	eorcc	r3, sp, #-1207959552	; 0xb8000000
    23c4:	2e313230 	mrccs	2, 1, r3, cr1, cr0, {1}
    23c8:	6c2f3031 	stcvs	0, cr3, [pc], #-196	; 230c <__code_start__-0x5cf4>
    23cc:	672f6269 	strvs	r6, [pc, -r9, ror #4]!
    23d0:	612f6363 			; <UNDEFINED> instruction: 0x612f6363
    23d4:	6e2d6d72 	mcrvs	13, 1, r6, cr13, cr2, {3}
    23d8:	2d656e6f 	stclcs	14, cr6, [r5, #-444]!	; 0xfffffe44
    23dc:	69626165 	stmdbvs	r2!, {r0, r2, r5, r6, r8, sp, lr}^
    23e0:	2e30312f 	rsfcssp	f3, f0, #10.0
    23e4:	2f312e33 	svccs	0x00312e33
    23e8:	6c636e69 	stclvs	14, cr6, [r3], #-420	; 0xfffffe5c
    23ec:	00656475 	rsbeq	r6, r5, r5, ror r4
    23f0:	69706700 	ldmdbvs	r0!, {r8, r9, sl, sp, lr}^
    23f4:	00632e6f 	rsbeq	r2, r3, pc, ror #28
    23f8:	72000000 	andvc	r0, r0, #0, 0
    23fc:	682e6970 	stmdavs	lr!, {r4, r5, r6, r8, fp, sp, lr}
    2400:	00000100 	andeq	r0, r0, r0, lsl #2
    2404:	69647473 	stmdbvs	r4!, {r0, r1, r4, r5, r6, sl, ip, sp, lr}^
    2408:	672d746e 	strvs	r7, [sp, -lr, ror #8]!
    240c:	682e6363 	stmdavs	lr!, {r0, r1, r5, r6, r8, r9, sp, lr}
    2410:	00000200 	andeq	r0, r0, r0, lsl #4
    2414:	6f697067 	svcvs	0x00697067
    2418:	0100682e 	tsteq	r0, lr, lsr #16
    241c:	05000000 	streq	r0, [r0, #-0]
    2420:	02050038 	andeq	r0, r5, #56, 0	; 0x38
    2424:	000099b0 			; <UNDEFINED> instruction: 0x000099b0
    2428:	05012703 	streq	r2, [r1, #-1795]	; 0xfffff8fd
    242c:	07051305 	streq	r1, [r5, -r5, lsl #6]
    2430:	38050106 	stmdacc	r5, {r1, r2, r8}
    2434:	06050549 	streq	r0, [r5], -r9, asr #10
    2438:	0607054d 	streq	r0, [r7], -sp, asr #10
    243c:	06050501 	streq	r0, [r5], -r1, lsl #10
    2440:	0618054c 	ldreq	r0, [r8], -ip, asr #10
    2444:	ba0e0501 	blt	383850 <__bss_end__+0x3792d0>
    2448:	2f060505 	svccs	0x00060505
    244c:	01061c05 	tsteq	r6, r5, lsl #24
    2450:	2e0e052e 	cfsh32cs	mvfx0, mvfx14, #30
    2454:	30060505 	andcc	r0, r6, r5, lsl #10
    2458:	01061205 	tsteq	r6, r5, lsl #4
    245c:	4b060505 	blmi	183878 <__bss_end__+0x1792f8>
    2460:	01060705 	tsteq	r6, r5, lsl #14
    2464:	4b060505 	blmi	183880 <__bss_end__+0x179300>
    2468:	052e0613 	streq	r0, [lr, #-1555]!	; 0xfffff9ed
    246c:	24054b01 	strcs	r4, [r5], #-2817	; 0xfffff4ff
    2470:	01064c06 	tsteq	r6, r6, lsl #24
    2474:	2f060505 	svccs	0x00060505
    2478:	4b060105 	blmi	182894 <__bss_end__+0x178314>
    247c:	31062005 	tstcc	r6, r5
    2480:	05130505 	ldreq	r0, [r3, #-1285]	; 0xfffffafb
    2484:	05010607 	streq	r0, [r1, #-1543]	; 0xfffff9f9
    2488:	05054920 	streq	r4, [r5, #-2336]	; 0xfffff6e0
    248c:	66063106 	strvs	r3, [r6], -r6, lsl #2
    2490:	052f0105 	streq	r0, [pc, #-261]!	; 2393 <__code_start__-0x5c6d>
    2494:	054d0621 	strbeq	r0, [sp, #-1569]	; 0xfffff9df
    2498:	07051305 	streq	r1, [r5, -r5, lsl #6]
    249c:	21050106 	tstcs	r5, r6, lsl #2
    24a0:	06050549 	streq	r0, [r5], -r9, asr #10
    24a4:	05660631 	strbeq	r0, [r6, #-1585]!	; 0xfffff9cf
    24a8:	23052f01 	movwcs	r2, #24321	; 0x5f01
    24ac:	01064d06 	tsteq	r6, r6, lsl #26
    24b0:	2f060505 	svccs	0x00060505
    24b4:	4b060105 	blmi	1828d0 <__bss_end__+0x178350>
    24b8:	31062b05 	tstcc	r6, r5, lsl #22
    24bc:	05050106 	streq	r0, [r5, #-262]	; 0xfffffefa
    24c0:	07052f06 	streq	r2, [r5, -r6, lsl #30]
    24c4:	09050106 	stmdbeq	r5, {r1, r2, r8}
    24c8:	2e064b06 	vmlacs.f64	d4, d6, d6
    24cc:	01053006 	tsteq	r5, r6
    24d0:	1d052f06 	stcne	15, cr2, [r5, #-24]	; 0xffffffe8
    24d4:	05053006 	streq	r3, [r5, #-6]
    24d8:	06070513 			; <UNDEFINED> instruction: 0x06070513
    24dc:	491d0501 	ldmdbmi	sp, {r0, r8, sl}
    24e0:	31060505 	tstcc	r6, r5, lsl #10
    24e4:	060e0513 			; <UNDEFINED> instruction: 0x060e0513
    24e8:	06050501 	streq	r0, [r5], -r1, lsl #10
    24ec:	0617052f 	ldreq	r0, [r7], -pc, lsr #10
    24f0:	23054a01 	movwcs	r4, #23041	; 0x5a01
    24f4:	0502042e 	streq	r0, [r2, #-1070]	; 0xfffffbd2
    24f8:	dc030630 	stcle	6, cr0, [r3], {48}	; 0x30
    24fc:	01042e00 	tsteq	r4, r0, lsl #28
    2500:	03060c05 	movweq	r0, #27653	; 0x6c05
    2504:	05017fa4 	streq	r7, [r1, #-4004]	; 0xfffff05c
    2508:	10052f01 	andne	r2, r5, r1, lsl #30
    250c:	3201052a 	andcc	r0, r1, #176160768	; 0xa800000
    2510:	01000402 	tsteq	r0, r2, lsl #8
    2514:	Address 0x0000000000002514 is out of bounds.


Disassembly of section .debug_str:

00000000 <.debug_str>:
   0:	6c616b63 			; <UNDEFINED> instruction: 0x6c616b63
   4:	00636f6c 	rsbeq	r6, r3, ip, ror #30
   8:	656e696c 	strbvs	r6, [lr, #-2412]!	; 0xfffff694
   c:	63006f6e 	movwvs	r6, #3950	; 0xf6e
  10:	69665f6b 	stmdbvs	r6!, {r0, r1, r3, r5, r6, r8, r9, sl, fp, ip, lr}^
  14:	6c5f646e 	cfldrdvs	mvd6, [pc], {110}	; 0x6e
  18:	736b6165 	cmnvc	fp, #1073741849	; 0x40000019
  1c:	746f6e00 	strbtvc	r6, [pc], #-3584	; 24 <__code_start__-0x7fdc>
  20:	6e69616d 	powvsez	f6, f1, #5.0
  24:	6c696600 	stclvs	6, cr6, [r9], #-0
  28:	6e750065 	cdpvs	0, 7, cr0, cr5, cr5, {3}
  2c:	6e676973 			; <UNDEFINED> instruction: 0x6e676973
  30:	63206465 			; <UNDEFINED> instruction: 0x63206465
  34:	00726168 	rsbseq	r6, r2, r8, ror #2
  38:	61656c63 	cmnvs	r5, r3, ror #24
  3c:	65725f6e 	ldrbvs	r5, [r2, #-3950]!	; 0xfffff092
  40:	746f6f62 	strbtvc	r6, [pc], #-3938	; 48 <__code_start__-0x7fb8>
  44:	6f687300 	svcvs	0x00687300
  48:	75207472 	strvc	r7, [r0, #-1138]!	; 0xfffffb8e
  4c:	6769736e 	strbvs	r7, [r9, -lr, ror #6]!
  50:	2064656e 	rsbcs	r6, r4, lr, ror #10
  54:	00746e69 	rsbseq	r6, r4, r9, ror #28
  58:	5f637273 	svcpl	0x00637273
  5c:	5f636f6c 	svcpl	0x00636f6c
  60:	6d006b6d 	vstrvs	d6, [r0, #-436]	; 0xfffffe4c
  64:	65736d65 	ldrbvs	r6, [r3, #-3429]!	; 0xfffff29b
  68:	75660074 	strbvc	r0, [r6, #-116]!	; 0xffffff8c
  6c:	5f00636e 	svcpl	0x0000636e
  70:	4e55465f 	mrcmi	6, 2, r4, cr5, cr15, {2}
  74:	4f495443 	svcmi	0x00495443
  78:	005f5f4e 	subseq	r5, pc, lr, asr #30
  7c:	74736574 	ldrbtvc	r6, [r3], #-1396	; 0xfffffa8c
  80:	61702f73 	cmnvs	r0, r3, ror pc
  84:	2d327472 	cfldrscs	mvf7, [r2, #-456]!	; 0xfffffe38
  88:	74736574 	ldrbtvc	r6, [r3], #-1396	; 0xfffffa8c
  8c:	00632e31 	rsbeq	r2, r3, r1, lsr lr
  90:	676e6f6c 	strbvs	r6, [lr, -ip, ror #30]!
  94:	6e6f6c20 	cdpvs	12, 6, cr6, cr15, cr0, {1}
  98:	6e752067 	cdpvs	0, 7, cr2, cr5, cr7, {3}
  9c:	6e676973 			; <UNDEFINED> instruction: 0x6e676973
  a0:	69206465 	stmdbvs	r0!, {r0, r2, r5, r6, sl, sp, lr}
  a4:	2f00746e 	svccs	0x0000746e
  a8:	72657355 	rsbvc	r7, r5, #1409286145	; 0x54000001
  ac:	72742f73 	rsbsvc	r2, r4, #460	; 0x1cc
  b0:	65747369 	ldrbvs	r7, [r4, #-873]!	; 0xfffffc97
  b4:	6c6f6e6e 	stclvs	14, cr6, [pc], #-440	; ffffff04 <__bss_end__+0xffff5984>
  b8:	6e616d6c 	cdpvs	13, 6, cr6, cr1, cr12, {3}
  bc:	636f442f 	cmnvs	pc, #788529152	; 0x2f000000
  c0:	6e656d75 	mcrvs	13, 3, r6, cr5, cr5, {3}
  c4:	532f7374 			; <UNDEFINED> instruction: 0x532f7374
  c8:	6e697270 	mcrvs	2, 3, r7, cr9, cr0, {3}
  cc:	75515f67 	ldrbvc	r5, [r1, #-3943]	; 0xfffff099
  d0:	65747261 	ldrbvs	r7, [r4, #-609]!	; 0xfffffd9f
  d4:	30325f72 	eorscc	r5, r2, r2, ror pc
  d8:	432f3232 			; <UNDEFINED> instruction: 0x432f3232
  dc:	30343253 	eorscc	r3, r4, r3, asr r2
  e0:	732d584c 			; <UNDEFINED> instruction: 0x732d584c
  e4:	32327270 	eorscc	r7, r2, #112, 4
  e8:	62616c2f 	rsbvs	r6, r1, #12032	; 0x2f00
  ec:	2d352f73 	ldccs	15, cr2, [r5, #-460]!	; 0xfffffe34
  f0:	6c6c616d 	stfvse	f6, [ip], #-436	; 0xfffffe4c
  f4:	672b636f 	strvs	r6, [fp, -pc, ror #6]!
  f8:	6f632f63 	svcvs	0x00632f63
  fc:	6c006564 	cfstr32vs	mvfx6, [r0], {100}	; 0x64
 100:	20676e6f 	rsbcs	r6, r7, pc, ror #28
 104:	676e6f6c 	strbvs	r6, [lr, -ip, ror #30]!
 108:	746e6920 	strbtvc	r6, [lr], #-2336	; 0xfffff6e0
 10c:	69707200 	ldmdbvs	r0!, {r9, ip, sp, lr}^
 110:	7475705f 	ldrbtvc	r7, [r5], #-95	; 0xffffffa1
 114:	72616863 	rsbvc	r6, r1, #6488064	; 0x630000
 118:	666b6300 	strbtvs	r6, [fp], -r0, lsl #6
 11c:	00656572 	rsbeq	r6, r5, r2, ror r5
 120:	726f6873 	rsbvc	r6, pc, #7536640	; 0x730000
 124:	6e692074 	mcrvs	0, 3, r2, cr9, cr4, {3}
 128:	72730074 	rsbsvc	r0, r3, #116, 0	; 0x74
 12c:	6f6c5f63 	svcvs	0x006c5f63
 130:	00745f63 	rsbseq	r5, r4, r3, ror #30
 134:	20554e47 	subscs	r4, r5, r7, asr #28
 138:	20393943 	eorscs	r3, r9, r3, asr #18
 13c:	2e322e39 	mrccs	14, 1, r2, cr2, cr9, {1}
 140:	30322031 	eorscc	r2, r2, r1, lsr r0
 144:	30313931 	eorscc	r3, r1, r1, lsr r9
 148:	28203532 	stmdacs	r0!, {r1, r4, r5, r8, sl, ip, sp}
 14c:	656c6572 	strbvs	r6, [ip, #-1394]!	; 0xfffffa8e
 150:	29657361 	stmdbcs	r5!, {r0, r5, r6, r8, r9, ip, sp, lr}^
 154:	52415b20 	subpl	r5, r1, #32, 22	; 0x8000
 158:	72612f4d 	rsbvc	r2, r1, #308	; 0x134
 15c:	2d392d6d 	ldccs	13, cr2, [r9, #-436]!	; 0xfffffe4c
 160:	6e617262 	cdpvs	2, 6, cr7, cr1, cr2, {3}
 164:	72206863 	eorvc	r6, r0, #6488064	; 0x630000
 168:	73697665 	cmnvc	r9, #105906176	; 0x6500000
 16c:	206e6f69 	rsbcs	r6, lr, r9, ror #30
 170:	35373732 	ldrcc	r3, [r7, #-1842]!	; 0xfffff8ce
 174:	205d3939 	subscs	r3, sp, r9, lsr r9
 178:	70636d2d 	rsbvc	r6, r3, sp, lsr #26
 17c:	72613d75 	rsbvc	r3, r1, #7488	; 0x1d40
 180:	3731316d 	ldrcc	r3, [r1, -sp, ror #2]!
 184:	667a6a36 			; <UNDEFINED> instruction: 0x667a6a36
 188:	2d20732d 	stccs	3, cr7, [r0, #-180]!	; 0xffffff4c
 18c:	6e75746d 	cdpvs	4, 7, cr7, cr5, cr13, {3}
 190:	72613d65 	rsbvc	r3, r1, #6464	; 0x1940
 194:	3731316d 	ldrcc	r3, [r1, -sp, ror #2]!
 198:	667a6a36 			; <UNDEFINED> instruction: 0x667a6a36
 19c:	2d20732d 	stccs	3, cr7, [r0, #-180]!	; 0xffffff4c
 1a0:	6f6c666d 	svcvs	0x006c666d
 1a4:	612d7461 			; <UNDEFINED> instruction: 0x612d7461
 1a8:	733d6962 	teqvc	sp, #1605632	; 0x188000
 1ac:	2074666f 	rsbscs	r6, r4, pc, ror #12
 1b0:	72616d2d 	rsbvc	r6, r1, #2880	; 0xb40
 1b4:	6d2d206d 	stcvs	0, cr2, [sp, #-436]!	; 0xfffffe4c
 1b8:	68637261 	stmdavs	r3!, {r0, r5, r6, r9, ip, sp, lr}^
 1bc:	6d72613d 	ldfvse	f6, [r2, #-244]!	; 0xffffff0c
 1c0:	7a6b3676 	bvc	1acdba0 <__bss_end__+0x1ac3620>
 1c4:	67672d20 	strbvs	r2, [r7, -r0, lsr #26]!
 1c8:	2d206264 	sfmcs	f6, 4, [r0, #-400]!	; 0xfffffe70
 1cc:	2d20674f 	stccs	7, cr6, [r0, #-316]!	; 0xfffffec4
 1d0:	3d647473 	cfstrdcc	mvd7, [r4, #-460]!	; 0xfffffe34
 1d4:	39756e67 	ldmdbcc	r5!, {r0, r1, r2, r5, r6, r9, sl, fp, sp, lr}^
 1d8:	662d2039 			; <UNDEFINED> instruction: 0x662d2039
 1dc:	65657266 	strbvs	r7, [r5, #-614]!	; 0xfffffd9a
 1e0:	6e617473 	mcrvs	4, 3, r7, cr1, cr3, {3}
 1e4:	676e6964 	strbvs	r6, [lr, -r4, ror #18]!
 1e8:	73657400 	cmnvc	r5, #0, 8
 1ec:	63003174 	movwvs	r3, #372	; 0x174
 1f0:	74705f6b 	ldrbtvc	r5, [r0], #-3947	; 0xfffff095
 1f4:	6e695f72 	mcrvs	15, 3, r5, cr9, cr2, {3}
 1f8:	6f6c625f 	svcvs	0x006c625f
 1fc:	6c006b63 			; <UNDEFINED> instruction: 0x6c006b63
 200:	5f747361 	svcpl	0x00747361
 204:	65646f6e 	strbvs	r6, [r4, #-3950]!	; 0xfffff092
 208:	65727000 	ldrbvs	r7, [r2, #-0]!
 20c:	616c5f76 	smcvs	50678	; 0xc5f6
 210:	68007473 	stmdavs	r0, {r0, r1, r4, r5, r6, sl, ip, sp, lr}
 214:	745f7264 	ldrbvc	r7, [pc], #-612	; 21c <__code_start__-0x7de4>
 218:	45524600 	ldrbmi	r4, [r2, #-1536]	; 0xfffffa00
 21c:	72004445 	andvc	r4, r0, #1157627904	; 0x45000000
 220:	5f736665 	svcpl	0x00736665
 224:	6464696d 	strbtvs	r6, [r4], #-2413	; 0xfffff693
 228:	6c00656c 	cfstr32vs	mvfx6, [r0], {108}	; 0x6c
 22c:	5f747369 	svcpl	0x00747369
 230:	65707061 	ldrbvs	r7, [r0, #-97]!	; 0xffffff9f
 234:	6b00646e 	blvs	193f4 <__bss_end__+0xee74>
 238:	72665f72 	rsbvc	r5, r6, #456	; 0x1c8
 23c:	63006565 	movwvs	r6, #1381	; 0x565
 240:	69665f6b 	stmdbvs	r6!, {r0, r1, r3, r5, r6, r8, r9, sl, fp, ip, lr}^
 244:	5f747372 	svcpl	0x00747372
 248:	00726468 	rsbseq	r6, r2, r8, ror #8
 24c:	6f6c6c61 	svcvs	0x006c6c61
 250:	696c5f63 	stmdbvs	ip!, {r0, r1, r5, r6, r8, r9, sl, fp, ip, lr}^
 254:	6c007473 	cfstrsvs	mvf7, [r0], {115}	; 0x73
 258:	5f747369 	svcpl	0x00747369
 25c:	6f6d6572 	svcvs	0x006d6572
 260:	63006576 	movwvs	r6, #1398	; 0x576
 264:	64685f6b 	strbtvs	r5, [r8], #-3947	; 0xfffff095
 268:	6c610072 	stclvs	0, cr0, [r1], #-456	; 0xfffffe38
 26c:	5f636f6c 	svcpl	0x00636f6c
 270:	00636f6c 	rsbeq	r6, r3, ip, ror #30
 274:	74617473 	strbtvc	r7, [r1], #-1139	; 0xfffffb8d
 278:	616d0065 	cmnvs	sp, r5, rrx
 27c:	72006b72 	andvc	r6, r0, #116736	; 0x1c800
 280:	5f736665 	svcpl	0x00736665
 284:	72617473 	rsbvc	r7, r1, #1929379840	; 0x73000000
 288:	69750074 	ldmdbvs	r5!, {r2, r4, r5, r6}^
 28c:	3233746e 	eorscc	r7, r3, #1845493760	; 0x6e000000
 290:	7500745f 	strvc	r7, [r0, #-1119]	; 0xfffffba1
 294:	31746e69 	cmncc	r4, r9, ror #28
 298:	00745f36 	rsbseq	r5, r4, r6, lsr pc
 29c:	705f6b63 	subsvc	r6, pc, r3, ror #22
 2a0:	695f7274 	ldmdbvs	pc, {r2, r4, r5, r6, r9, ip, sp, lr}^	; <UNPREDICTABLE>
 2a4:	6c615f73 	stclvs	15, cr5, [r1], #-460	; 0xfffffe34
 2a8:	65636f6c 	strbvs	r6, [r3, #-3948]!	; 0xfffff094
 2ac:	6b630064 	blvs	18c0444 <__bss_end__+0x18b5ec4>
 2b0:	78656e5f 	stmdavc	r5!, {r0, r1, r2, r3, r4, r6, r9, sl, fp, sp, lr}^
 2b4:	64685f74 	strbtvs	r5, [r8], #-3956	; 0xfffff08c
 2b8:	6b630072 	blvs	18c0488 <__bss_end__+0x18b5f08>
 2bc:	6f6c6c61 	svcvs	0x006c6c61
 2c0:	00632e63 	rsbeq	r2, r3, r3, ror #28
 2c4:	4f4c4c41 	svcmi	0x004c4c41
 2c8:	00444543 	subeq	r4, r4, r3, asr #10
 2cc:	7479626e 	ldrbtvc	r6, [r9], #-622	; 0xfffffd92
 2d0:	615f7365 	cmpvs	pc, r5, ror #6
 2d4:	636f6c6c 	cmnvs	pc, #108, 24	; 0x6c00
 2d8:	5f6b6300 	svcpl	0x006b6300
 2dc:	5f726468 	svcpl	0x00726468
 2e0:	72617473 	rsbvc	r7, r1, #1929379840	; 0x73000000
 2e4:	6b630074 	blvs	18c04bc <__bss_end__+0x18b5f3c>
 2e8:	7264685f 	rsbvc	r6, r4, #6225920	; 0x5f0000
 2ec:	646e655f 	strbtvs	r6, [lr], #-1375	; 0xfffffaa1
 2f0:	65727000 	ldrbvs	r7, [r2, #-0]!
 2f4:	6b630076 	blvs	18c04d4 <__bss_end__+0x18b5f54>
 2f8:	79626e5f 	stmdbvc	r2!, {r0, r1, r2, r3, r4, r6, r9, sl, fp, sp, lr}^
 2fc:	00736574 	rsbseq	r6, r3, r4, ror r5
 300:	6d5f726b 	lfmvs	f7, 2, [pc, #-428]	; 15c <__code_start__-0x7ea4>
 304:	6f6c6c61 	svcvs	0x006c6c61
 308:	656e0063 	strbvs	r0, [lr, #-99]!	; 0xffffff9d
 30c:	73007478 	movwvc	r7, #1144	; 0x478
 310:	6b636174 	blvs	18d88e8 <__bss_end__+0x18ce368>
 314:	706f745f 	rsbvc	r7, pc, pc, asr r4	; <UNPREDICTABLE>
 318:	6f6c6200 	svcvs	0x006c6200
 31c:	735f6b63 	cmpvc	pc, #101376	; 0x18c00
 320:	74726174 	ldrbtvc	r6, [r2], #-372	; 0xfffffe8c
 324:	72616d00 	rsbvc	r6, r1, #0, 26
 328:	6c615f6b 	stclvs	15, cr5, [r1], #-428	; 0xfffffe54
 32c:	6d69006c 	stclvs	0, cr0, [r9, #-432]!	; 0xfffffe50
 330:	6d656c70 	stclvs	12, cr6, [r5, #-448]!	; 0xfffffe40
 334:	5f746e65 	svcpl	0x00746e65
 338:	73696874 	cmnvc	r9, #116, 16	; 0x740000
 33c:	625f5f00 	subsvs	r5, pc, #0, 30
 340:	735f7373 	cmpvc	pc, #-872415231	; 0xcc000001
 344:	74726174 	ldrbtvc	r6, [r2], #-372	; 0xfffffe8c
 348:	6e005f5f 	mcrvs	15, 0, r5, cr0, cr15, {2}
 34c:	775f6d75 			; <UNDEFINED> instruction: 0x775f6d75
 350:	7364726f 	cmnvc	r4, #-268435450	; 0xf0000006
 354:	6c626e00 	stclvs	14, cr6, [r2], #-0
 358:	736b636f 	cmnvc	fp, #-1140850687	; 0xbc000001
 35c:	696e6900 	stmdbvs	lr!, {r8, fp, sp, lr}^
 360:	00705f74 	rsbseq	r5, r0, r4, ror pc
 364:	7479626e 	ldrbtvc	r6, [r9], #-622	; 0xfffffd92
 368:	665f7365 	ldrbvs	r7, [pc], -r5, ror #6
 36c:	64656572 	strbtvs	r6, [r5], #-1394	; 0xfffffa8e
 370:	79616d00 	stmdbvc	r1!, {r8, sl, fp, sp, lr}^
 374:	655f6562 	ldrbvs	r6, [pc, #-1378]	; fffffe1a <__bss_end__+0xffff589a>
 378:	726f7272 	rsbvc	r7, pc, #536870919	; 0x20000007
 37c:	6b630073 	blvs	18c0550 <__bss_end__+0x18b5fd0>
 380:	0063675f 	rsbeq	r6, r3, pc, asr r7
 384:	706d7564 	rsbvc	r7, sp, r4, ror #10
 388:	6765725f 			; <UNDEFINED> instruction: 0x6765725f
 38c:	6c6e0073 	stclvs	0, cr0, [lr], #-460	; 0xfffffe34
 390:	736b6165 	cmnvc	fp, #1073741849	; 0x40000019
 394:	636e6900 	cmnvs	lr, #0, 18
 398:	656d6572 	strbvs	r6, [sp, #-1394]!	; 0xfffffa8e
 39c:	5f00746e 	svcpl	0x0000746e
 3a0:	7461645f 	strbtvc	r6, [r1], #-1119	; 0xfffffba1
 3a4:	6e655f61 	cdpvs	15, 6, cr5, cr5, cr1, {3}
 3a8:	005f5f64 	subseq	r5, pc, r4, ror #30
 3ac:	63656863 	cmnvs	r5, #6488064	; 0x630000
 3b0:	6f6e5f6b 	svcvs	0x006e5f6b
 3b4:	61656c5f 	cmnvs	r5, pc, asr ip
 3b8:	6273006b 	rsbsvs	r0, r3, #107, 0	; 0x6b
 3bc:	69006b72 	stmdbvs	r0, {r1, r4, r5, r6, r8, r9, fp, sp, lr}
 3c0:	74705f73 	ldrbtvc	r5, [r0], #-3955	; 0xfffff08d
 3c4:	6c620072 	stclvs	0, cr0, [r2], #-456	; 0xfffffe38
 3c8:	5f6b636f 	svcpl	0x006b636f
 3cc:	00646e65 	rsbeq	r6, r4, r5, ror #28
 3d0:	6572666e 	ldrbvs	r6, [r2, #-1646]!	; 0xfffff992
 3d4:	63006465 	movwvs	r6, #1125	; 0x465
 3d8:	5f727275 	svcpl	0x00727275
 3dc:	64726f77 	ldrbtvs	r6, [r2], #-3959	; 0xfffff089
 3e0:	5f6e6900 	svcpl	0x006e6900
 3e4:	70616568 	rsbvc	r6, r1, r8, ror #10
 3e8:	656e6f00 	strbvs	r6, [lr, #-3840]!	; 0xfffff100
 3ec:	6300626d 	movwvs	r6, #621	; 0x26d
 3f0:	63672d6b 	cmnvs	r7, #6848	; 0x1ac0
 3f4:	6300632e 	movwvs	r6, #814	; 0x32e
 3f8:	6b636568 	blvs	18d99a0 <__bss_end__+0x18cf420>
 3fc:	6f68735f 	svcvs	0x0068735f
 400:	5f646c75 	svcpl	0x00646c75
 404:	6b61656c 	blvs	18599bc <__bss_end__+0x184f43c>
 408:	625f5f00 	subsvs	r5, pc, #0, 30
 40c:	655f7373 	ldrbvs	r7, [pc, #-883]	; a1 <__code_start__-0x7f5f>
 410:	5f5f646e 	svcpl	0x005f646e
 414:	616d6b00 	cmnvs	sp, r0, lsl #22
 418:	636f6c6c 	cmnvs	pc, #108, 24	; 0x6c00
 41c:	616d6b00 	cmnvs	sp, r0, lsl #22
 420:	636f6c6c 	cmnvs	pc, #108, 24	; 0x6c00
 424:	696e695f 	stmdbvs	lr!, {r0, r1, r2, r3, r4, r6, r8, fp, sp, lr}^
 428:	65735f74 	ldrbvs	r5, [r3, #-3956]!	; 0xfffff08c
 42c:	74735f74 	ldrbtvc	r5, [r3], #-3956	; 0xfffff08c
 430:	00747261 	rsbseq	r7, r4, r1, ror #4
 434:	65657773 	strbvs	r7, [r5, #-1907]!	; 0xfffff88d
 438:	656c5f70 	strbvs	r5, [ip, #-3952]!	; 0xfffff090
 43c:	5f006b61 	svcpl	0x00006b61
 440:	7461645f 	strbtvc	r6, [r1], #-1119	; 0xfffffba1
 444:	74735f61 	ldrbtvc	r5, [r3], #-3937	; 0xfffff09f
 448:	5f747261 	svcpl	0x00747261
 44c:	7773005f 			; <UNDEFINED> instruction: 0x7773005f
 450:	5f706565 	svcpl	0x00706565
 454:	65657266 	strbvs	r7, [r5, #-614]!	; 0xfffffd9a
 458:	72617700 	rsbvc	r7, r1, #0, 14
 45c:	6f6e5f6e 	svcvs	0x006e5f6e
 460:	6174735f 	cmnvs	r4, pc, asr r3
 464:	725f7472 	subsvc	r7, pc, #1912602624	; 0x72000000
 468:	705f6665 	subsvc	r6, pc, r5, ror #12
 46c:	61656800 	cmnvs	r5, r0, lsl #16
 470:	00726564 	rsbseq	r6, r2, r4, ror #10
 474:	76657270 			; <UNDEFINED> instruction: 0x76657270
 478:	6c610070 	stclvs	0, cr0, [r1], #-448	; 0xfffffe40
 47c:	006e6769 	rsbeq	r6, lr, r9, ror #14
 480:	65657266 	strbvs	r7, [r5, #-614]!	; 0xfffffd9a
 484:	756e0070 	strbvc	r0, [lr, #-112]!	; 0xffffff90
 488:	7374696e 	cmnvc	r4, #1802240	; 0x1b8000
 48c:	2d726b00 	vldmdbcs	r2!, {d22-d21}
 490:	6c6c616d 	stfvse	f6, [ip], #-436	; 0xfffffe4c
 494:	632e636f 			; <UNDEFINED> instruction: 0x632e636f
 498:	756f6400 	strbvc	r6, [pc, #-1024]!	; a0 <__code_start__-0x7f60>
 49c:	00656c62 	rsbeq	r6, r5, r2, ror #24
 4a0:	65736162 	ldrbvs	r6, [r3, #-354]!	; 0xfffffe9e
 4a4:	5f726b00 	svcpl	0x00726b00
 4a8:	65726f6d 	ldrbvs	r6, [r2, #-3949]!	; 0xfffff093
 4ac:	65726f63 	ldrbvs	r6, [r2, #-3939]!	; 0xfffff09d
 4b0:	7a697300 	bvc	1a5d0b8 <__bss_end__+0x1a52b38>
 4b4:	65480065 	strbvs	r0, [r8, #-101]	; 0xffffff9b
 4b8:	72656461 	rsbvc	r6, r5, #1627389952	; 0x61000000
 4bc:	554e4700 	strbpl	r4, [lr, #-1792]	; 0xfffff900
 4c0:	39394320 	ldmdbcc	r9!, {r5, r8, r9, lr}
 4c4:	322e3920 	eorcc	r3, lr, #32, 18	; 0x80000
 4c8:	3220312e 	eorcc	r3, r0, #-2147483637	; 0x8000000b
 4cc:	31393130 	teqcc	r9, r0, lsr r1
 4d0:	20353230 	eorscs	r3, r5, r0, lsr r2
 4d4:	6c657228 	sfmvs	f7, 2, [r5], #-160	; 0xffffff60
 4d8:	65736165 	ldrbvs	r6, [r3, #-357]!	; 0xfffffe9b
 4dc:	415b2029 	cmpmi	fp, r9, lsr #32
 4e0:	612f4d52 			; <UNDEFINED> instruction: 0x612f4d52
 4e4:	392d6d72 	pushcc	{r1, r4, r5, r6, r8, sl, fp, sp, lr}
 4e8:	6172622d 	cmnvs	r2, sp, lsr #4
 4ec:	2068636e 	rsbcs	r6, r8, lr, ror #6
 4f0:	69766572 	ldmdbvs	r6!, {r1, r4, r5, r6, r8, sl, sp, lr}^
 4f4:	6e6f6973 			; <UNDEFINED> instruction: 0x6e6f6973
 4f8:	37373220 	ldrcc	r3, [r7, -r0, lsr #4]!
 4fc:	5d393935 			; <UNDEFINED> instruction: 0x5d393935
 500:	636d2d20 	cmnvs	sp, #32, 26	; 0x800
 504:	613d7570 	teqvs	sp, r0, ror r5
 508:	31316d72 	teqcc	r1, r2, ror sp
 50c:	7a6a3637 	bvc	1a8ddf0 <__bss_end__+0x1a83870>
 510:	20732d66 	rsbscs	r2, r3, r6, ror #26
 514:	75746d2d 	ldrbvc	r6, [r4, #-3373]!	; 0xfffff2d3
 518:	613d656e 	teqvs	sp, lr, ror #10
 51c:	31316d72 	teqcc	r1, r2, ror sp
 520:	7a6a3637 	bvc	1a8de04 <__bss_end__+0x1a83884>
 524:	20732d66 	rsbscs	r2, r3, r6, ror #26
 528:	6c666d2d 	stclvs	13, cr6, [r6], #-180	; 0xffffff4c
 52c:	2d74616f 	ldfcse	f6, [r4, #-444]!	; 0xfffffe44
 530:	3d696261 	sfmcc	f6, 2, [r9, #-388]!	; 0xfffffe7c
 534:	74666f73 	strbtvc	r6, [r6], #-3955	; 0xfffff08d
 538:	616d2d20 	cmnvs	sp, r0, lsr #26
 53c:	2d206d72 	stccs	13, cr6, [r0, #-456]!	; 0xfffffe38
 540:	6372616d 	cmnvs	r2, #1073741851	; 0x4000001b
 544:	72613d68 	rsbvc	r3, r1, #104, 26	; 0x1a00
 548:	6b36766d 	blvs	d9df04 <__bss_end__+0xd93984>
 54c:	672d207a 			; <UNDEFINED> instruction: 0x672d207a
 550:	20626467 	rsbcs	r6, r2, r7, ror #8
 554:	6467672d 	strbtvs	r6, [r7], #-1837	; 0xfffff8d3
 558:	4f2d2062 	svcmi	0x002d2062
 55c:	4f2d2067 	svcmi	0x002d2067
 560:	732d2067 			; <UNDEFINED> instruction: 0x732d2067
 564:	673d6474 			; <UNDEFINED> instruction: 0x673d6474
 568:	3939756e 	ldmdbcc	r9!, {r1, r2, r3, r5, r6, r8, sl, ip, sp, lr}
 56c:	74732d20 	ldrbtvc	r2, [r3], #-3360	; 0xfffff2e0
 570:	6e673d64 	cdpvs	13, 6, cr3, cr7, cr4, {3}
 574:	20393975 	eorscs	r3, r9, r5, ror r9
 578:	7266662d 	rsbvc	r6, r6, #47185920	; 0x2d00000
 57c:	74736565 	ldrbtvc	r6, [r3], #-1381	; 0xfffffa9b
 580:	69646e61 	stmdbvs	r4!, {r0, r5, r6, r9, sl, fp, sp, lr}^
 584:	7300676e 	movwvc	r6, #1902	; 0x76e
 588:	5f657a69 	svcpl	0x00657a69
 58c:	2f2e0074 	svccs	0x002e0074
 590:	6362696c 	cmnvs	r2, #108, 18	; 0x1b0000
 594:	6d656d2f 	stclvs	13, cr6, [r5, #-188]!	; 0xffffff44
 598:	2e746573 	mrccs	5, 3, r6, cr4, cr3, {3}
 59c:	552f0063 	strpl	r0, [pc, #-99]!	; 541 <__code_start__-0x7abf>
 5a0:	73726573 	cmnvc	r2, #482344960	; 0x1cc00000
 5a4:	6972742f 	ldmdbvs	r2!, {r0, r1, r2, r3, r5, sl, ip, sp, lr}^
 5a8:	6e657473 	mcrvs	4, 3, r7, cr5, cr3, {3}
 5ac:	6c6c6f6e 	stclvs	15, cr6, [ip], #-440	; 0xfffffe48
 5b0:	2f6e616d 	svccs	0x006e616d
 5b4:	75636f44 	strbvc	r6, [r3, #-3908]!	; 0xfffff0bc
 5b8:	746e656d 	strbtvc	r6, [lr], #-1389	; 0xfffffa93
 5bc:	70532f73 	subsvc	r2, r3, r3, ror pc
 5c0:	676e6972 			; <UNDEFINED> instruction: 0x676e6972
 5c4:	6175515f 	cmnvs	r5, pc, asr r1
 5c8:	72657472 	rsbvc	r7, r5, #1912602624	; 0x72000000
 5cc:	3230325f 	eorscc	r3, r0, #-268435451	; 0xf0000005
 5d0:	53432f32 	movtpl	r2, #16178	; 0x3f32
 5d4:	4c303432 	cfldrsmi	mvf3, [r0], #-200	; 0xffffff38
 5d8:	70732d58 	rsbsvc	r2, r3, r8, asr sp
 5dc:	2f323272 	svccs	0x00323272
 5e0:	7062696c 	rsbvc	r6, r2, ip, ror #18
 5e4:	72610069 	rsbvc	r0, r1, #105, 0	; 0x69
 5e8:	76007367 	strvc	r7, [r0], -r7, ror #6
 5ec:	72705f61 	rsbsvc	r5, r0, #388	; 0x184
 5f0:	6b746e69 	blvs	1d1bf9c <__bss_end__+0x1d11a1c>
 5f4:	675f5f00 	ldrbvs	r5, [pc, -r0, lsl #30]
 5f8:	5f63756e 	svcpl	0x0063756e
 5fc:	6c5f6176 	ldfvse	f6, [pc], {118}	; 0x76
 600:	00747369 	rsbseq	r7, r4, r9, ror #6
 604:	61765f5f 	cmnvs	r6, pc, asr pc
 608:	73696c5f 	cmnvc	r9, #24320	; 0x5f00
 60c:	5f5f0074 	svcpl	0x005f0074
 610:	2e007061 	cdpcs	0, 0, cr7, cr0, cr1, {3}
 614:	62696c2f 	rsbvs	r6, r9, #12032	; 0x2f00
 618:	72702f63 	rsbsvc	r2, r0, #396	; 0x18c
 61c:	6b746e69 	blvs	1d1bfc8 <__bss_end__+0x1d11a48>
 620:	6900632e 	stmdbvs	r0, {r1, r2, r3, r5, r8, r9, sp, lr}
 624:	7265746e 	rsbvc	r7, r5, #1845493760	; 0x6e000000
 628:	5f6c616e 	svcpl	0x006c616e
 62c:	6b747570 	blvs	1d1dbf4 <__bss_end__+0x1d13674>
 630:	6c2f2e00 	stcvs	14, cr2, [pc], #-0	; 638 <__code_start__-0x79c8>
 634:	2f636269 	svccs	0x00636269
 638:	6b747570 	blvs	1d1dc00 <__bss_end__+0x1d13680>
 63c:	6900632e 	stmdbvs	r0, {r1, r2, r3, r5, r8, r9, sp, lr}
 640:	67696473 			; <UNDEFINED> instruction: 0x67696473
 644:	75007469 	strvc	r7, [r0, #-1129]	; 0xfffffb97
 648:	36746e69 	ldrbtcc	r6, [r4], -r9, ror #28
 64c:	00745f34 	rsbseq	r5, r4, r4, lsr pc
 650:	696c2f2e 	stmdbvs	ip!, {r1, r2, r3, r5, r8, r9, sl, fp, sp}^
 654:	762f6362 	strtvc	r6, [pc], -r2, ror #6
 658:	72702d61 	rsbsvc	r2, r0, #6208	; 0x1840
 65c:	6b746e69 	blvs	1d1c008 <__bss_end__+0x1d11a88>
 660:	5f00632e 	svcpl	0x0000632e
 664:	646f635f 	strbtvs	r6, [pc], #-863	; 66c <__code_start__-0x7994>
 668:	74735f65 	ldrbtvc	r5, [r3], #-3941	; 0xfffff09b
 66c:	5f747261 	svcpl	0x00747261
 670:	6977005f 	ldmdbvs	r7!, {r0, r1, r2, r3, r4, r6}^
 674:	00687464 	rsbeq	r7, r8, r4, ror #8
 678:	63747570 	cmnvs	r4, #112, 10	; 0x1c000000
 67c:	0070665f 	rsbseq	r6, r0, pc, asr r6
 680:	65685f5f 	strbvs	r5, [r8, #-3935]!	; 0xfffff0a1
 684:	735f7061 	cmpvc	pc, #97, 0	; 0x61
 688:	74726174 	ldrbtvc	r6, [r2], #-372	; 0xfffffe8c
 68c:	72005f5f 	andvc	r5, r0, #380	; 0x17c
 690:	735f6970 	cmpvc	pc, #112, 18	; 0x1c0000
 694:	6f5f7465 	svcvs	0x005f7465
 698:	75707475 	ldrbvc	r7, [r0, #-1141]!	; 0xfffffb8b
 69c:	6d660074 	stclvs	0, cr0, [r6, #-464]!	; 0xfffffe30
 6a0:	74735f74 	ldrbtvc	r5, [r3], #-3956	; 0xfffff08c
 6a4:	00747261 	rsbseq	r7, r4, r1, ror #4
 6a8:	63727473 	cmnvs	r2, #1929379840	; 0x73000000
 6ac:	6e007970 			; <UNDEFINED> instruction: 0x6e007970
 6b0:	705f6765 	subsvc	r6, pc, r5, ror #14
 6b4:	635f5f00 	cmpvs	pc, #0, 30
 6b8:	5f65646f 	svcpl	0x0065646f
 6bc:	5f646e65 	svcpl	0x00646e65
 6c0:	6d65005f 	stclvs	0, cr0, [r5, #-380]!	; 0xfffffe84
 6c4:	70007469 	andvc	r7, r0, r9, ror #8
 6c8:	5f737475 	svcpl	0x00737475
 6cc:	72007066 	andvc	r7, r0, #102, 0	; 0x66
 6d0:	72657665 	rsbvc	r7, r5, #105906176	; 0x6500000
 6d4:	73006573 	movwvc	r6, #1395	; 0x573
 6d8:	61637274 	smcvs	14116	; 0x3724
 6dc:	74730074 	ldrbtvc	r0, [r3], #-116	; 0xffffff8c
 6e0:	706d6372 	rsbvc	r6, sp, r2, ror r3
 6e4:	705f5f00 	subsvc	r5, pc, r0, lsl #30
 6e8:	5f676f72 	svcpl	0x00676f72
 6ec:	5f646e65 	svcpl	0x00646e65
 6f0:	756e005f 	strbvc	r0, [lr, #-95]!	; 0xffffffa1
 6f4:	7300316d 	movwvc	r3, #365	; 0x16d
 6f8:	636e7274 	cmnvs	lr, #116, 4	; 0x40000007
 6fc:	7300706d 	movwvc	r7, #109	; 0x6d
 700:	656e6769 	strbvs	r6, [lr, #-1897]!	; 0xfffff897
 704:	00705f64 	rsbseq	r5, r0, r4, ror #30
 708:	5f697072 	svcpl	0x00697072
 70c:	6f626572 	svcvs	0x00626572
 710:	6400746f 	strvs	r7, [r0], #-1135	; 0xfffffb91
 714:	79616c65 	stmdbvc	r1!, {r0, r2, r5, r6, sl, fp, sp, lr}^
 718:	00736d5f 	rsbseq	r6, r3, pc, asr sp
 71c:	74732f2e 	ldrbtvc	r2, [r3], #-3886	; 0xfffff0d2
 720:	2d666661 	stclcs	6, cr6, [r6, #-388]!	; 0xfffffe7c
 724:	2f637273 	svccs	0x00637273
 728:	61656c63 	cmnvs	r5, r3, ror #24
 72c:	65722d6e 	ldrbvs	r2, [r2, #-3438]!	; 0xfffff292
 730:	746f6f62 	strbtvc	r6, [pc], #-3938	; 738 <__code_start__-0x78c8>
 734:	7500632e 	strvc	r6, [r0, #-814]	; 0xfffffcd2
 738:	5f747261 	svcpl	0x00747261
 73c:	73756c66 	cmnvc	r5, #26112	; 0x6600
 740:	78745f68 	ldmdavc	r4!, {r3, r5, r6, r8, r9, sl, fp, ip, lr}^
 744:	73635f00 	cmnvc	r3, #0, 30
 748:	74726174 	ldrbtvc	r6, [r2], #-372	; 0xfffffe8c
 74c:	73736200 	cmnvc	r3, #0, 4
 750:	646e655f 	strbtvs	r6, [lr], #-1375	; 0xfffffaa1
 754:	72617500 	rsbvc	r7, r1, #0, 10
 758:	6e695f74 	mcrvs	15, 3, r5, cr9, cr4, {3}
 75c:	63007469 	movwvs	r7, #1129	; 0x469
 760:	6f747375 	svcvs	0x00747375
 764:	6f6c5f6d 	svcvs	0x006c5f6d
 768:	72656461 	rsbvc	r6, r5, #1627389952	; 0x61000000
 76c:	732f2e00 			; <UNDEFINED> instruction: 0x732f2e00
 770:	66666174 			; <UNDEFINED> instruction: 0x66666174
 774:	6372732d 	cmnvs	r2, #-1275068416	; 0xb4000000
 778:	7473632f 	ldrbtvc	r6, [r3], #-815	; 0xfffffcd1
 77c:	2e747261 	cdpcs	2, 7, cr7, cr4, cr1, {3}
 780:	2f2e0063 	svccs	0x002e0063
 784:	66617473 			; <UNDEFINED> instruction: 0x66617473
 788:	72732d66 	rsbsvc	r2, r3, #6528	; 0x1980
 78c:	75632f63 	strbvc	r2, [r3, #-3939]!	; 0xfffff09d
 790:	6d6f7473 	cfstrdvs	mvd7, [pc, #-460]!	; 5cc <__code_start__-0x7a34>
 794:	616f6c2d 	cmnvs	pc, sp, lsr #24
 798:	2e726564 	cdpcs	5, 7, cr6, cr2, cr4, {3}
 79c:	65720063 	ldrbvs	r0, [r2, #-99]!	; 0xffffff9d
 7a0:	746f6f62 	strbtvc	r6, [pc], #-3938	; 7a8 <__code_start__-0x7858>
 7a4:	6c61635f 	stclvs	3, cr6, [r1], #-380	; 0xfffffe84
 7a8:	74756f6c 	ldrbtvc	r6, [r5], #-3948	; 0xfffff094
 7ac:	5f4d5000 	svcpl	0x004d5000
 7b0:	474f4457 	smlsldmi	r4, pc, r7, r4	; <UNPREDICTABLE>
 7b4:	54555000 	ldrbpl	r5, [r5], #-0
 7b8:	73003233 	movwvc	r3, #563	; 0x233
 7bc:	755f7465 	ldrbvc	r7, [pc, #-1125]	; 35f <__code_start__-0x7ca1>
 7c0:	5f726573 	svcpl	0x00726573
 7c4:	6576656c 	ldrbvs	r6, [r6, #-1388]!	; 0xfffffa94
 7c8:	2f2e006c 	svccs	0x002e006c
 7cc:	66617473 			; <UNDEFINED> instruction: 0x66617473
 7d0:	72732d66 	rsbsvc	r2, r3, #6528	; 0x1980
 7d4:	65722f63 	ldrbvs	r2, [r2, #-3939]!	; 0xfffff09d
 7d8:	746f6f62 	strbtvc	r6, [pc], #-3938	; 7e0 <__code_start__-0x7820>
 7dc:	5000632e 	andpl	r6, r0, lr, lsr #6
 7e0:	41505f4d 	cmpmi	r0, sp, asr #30
 7e4:	4f575353 	svcmi	0x00575353
 7e8:	61004452 	tstvs	r0, r2, asr r4
 7ec:	73755f74 	cmnvc	r5, #116, 30	; 0x1d0
 7f0:	6c5f7265 	lfmvs	f7, 2, [pc], {101}	; 0x65
 7f4:	6c657665 	stclvs	6, cr7, [r5], #-404	; 0xfffffe6c
 7f8:	5f4d5000 	svcpl	0x004d5000
 7fc:	43545352 	cmpmi	r4, #1207959553	; 0x48000001
 800:	4352575f 	cmpmi	r2, #24903680	; 0x17c0000
 804:	465f4746 	ldrbmi	r4, [pc], -r6, asr #14
 808:	5f4c4c55 	svcpl	0x004c4c55
 80c:	45534552 	ldrbmi	r4, [r3, #-1362]	; 0xfffffaae
 810:	4d500054 	ldclmi	0, cr0, [r0, #-336]	; 0xfffffeb0
 814:	5453525f 	ldrbpl	r5, [r3], #-607	; 0xfffffda1
 818:	70630043 	rsbvc	r0, r3, r3, asr #32
 81c:	64007273 	strvs	r7, [r0], #-627	; 0xfffffd8d
 820:	625f7665 	subsvs	r7, pc, #105906176	; 0x6500000
 824:	69727261 	ldmdbvs	r2!, {r0, r5, r6, r9, ip, sp, lr}^
 828:	64007265 	strvs	r7, [r0], #-613	; 0xfffffd9b
 82c:	79616c65 	stmdbvc	r1!, {r0, r2, r5, r6, sl, fp, sp, lr}^
 830:	6365735f 	cmnvs	r5, #2080374785	; 0x7c000001
 834:	732f2e00 			; <UNDEFINED> instruction: 0x732f2e00
 838:	66666174 			; <UNDEFINED> instruction: 0x66666174
 83c:	6372732d 	cmnvs	r2, #-1275068416	; 0xb4000000
 840:	6d69742f 	cfstrdvs	mvd7, [r9, #-188]!	; 0xffffff44
 844:	632e7265 			; <UNDEFINED> instruction: 0x632e7265
 848:	54454700 	strbpl	r4, [r5], #-1792	; 0xfffff900
 84c:	74003233 	strvc	r3, [r0], #-563	; 0xfffffdcd
 850:	72656d69 	rsbvc	r6, r5, #6720	; 0x1a40
 854:	7465675f 	strbtvc	r6, [r5], #-1887	; 0xfffff8a1
 858:	6573755f 	ldrbvs	r7, [r3, #-1375]!	; 0xfffffaa1
 85c:	65640063 	strbvs	r0, [r4, #-99]!	; 0xffffff9d
 860:	5f79616c 	svcpl	0x0079616c
 864:	74007375 	strvc	r7, [r0], #-885	; 0xfffffc8b
 868:	72656d69 	rsbvc	r6, r5, #6720	; 0x1a40
 86c:	7465675f 	strbtvc	r6, [r5], #-1887	; 0xfffff8a1
 870:	6573755f 	ldrbvs	r7, [r3, #-1375]!	; 0xfffffaa1
 874:	61725f63 	cmnvs	r2, r3, ror #30
 878:	75700077 	ldrbvc	r0, [r0, #-119]!	; 0xffffff89
 87c:	00323374 	eorseq	r3, r2, r4, ror r3
 880:	64756162 	ldrbtvs	r6, [r5], #-354	; 0xfffffe9e
 884:	6c61765f 	stclvs	6, cr7, [r1], #-380	; 0xfffffe84
 888:	61747300 	cmnvs	r4, r0, lsl #6
 88c:	61750074 	cmnvs	r5, r4, ror r0
 890:	635f7472 	cmpvs	pc, #1912602624	; 0x72000000
 894:	675f6e61 	ldrbvs	r6, [pc, -r1, ror #28]
 898:	00637465 	rsbeq	r7, r3, r5, ror #8
 89c:	4f495047 	svcmi	0x00495047
 8a0:	4e55465f 	mrcmi	6, 2, r4, cr5, cr15, {2}
 8a4:	554f5f43 	strbpl	r5, [pc, #-3907]	; fffff969 <__bss_end__+0xffff53e9>
 8a8:	54555054 	ldrbpl	r5, [r5], #-84	; 0xffffffac
 8ac:	78756100 	ldmdavc	r5!, {r8, sp, lr}^
 8b0:	7265705f 	rsbvc	r7, r5, #95, 0	; 0x5f
 8b4:	73687069 	cmnvc	r8, #105, 0	; 0x69
 8b8:	72617500 	rsbvc	r7, r1, #0, 10
 8bc:	00632e74 	rsbeq	r2, r3, r4, ror lr
 8c0:	74726175 	ldrbtvc	r6, [r2], #-373	; 0xfffffe8b
 8c4:	6e61635f 	mcrvs	3, 3, r6, cr1, cr15, {2}
 8c8:	7475705f 	ldrbtvc	r7, [r5], #-95	; 0xffffffa1
 8cc:	61750063 	cmnvs	r5, r3, rrx
 8d0:	745f7472 	ldrbvc	r7, [pc], #-1138	; 8d8 <__code_start__-0x7728>
 8d4:	73695f78 	cmnvc	r9, #120, 30	; 0x1e0
 8d8:	706d655f 	rsbvc	r6, sp, pc, asr r5
 8dc:	47007974 	smlsdxmi	r0, r4, r9, r7
 8e0:	5f4f4950 	svcpl	0x004f4950
 8e4:	434e5546 	movtmi	r5, #58694	; 0xe546
 8e8:	544c415f 	strbpl	r4, [ip], #-351	; 0xfffffea1
 8ec:	50470030 	subpl	r0, r7, r0, lsr r0
 8f0:	465f4f49 	ldrbmi	r4, [pc], -r9, asr #30
 8f4:	5f434e55 	svcpl	0x00434e55
 8f8:	31544c41 	cmpcc	r4, r1, asr #24
 8fc:	49504700 	ldmdbmi	r0, {r8, r9, sl, lr}^
 900:	55465f4f 	strbpl	r5, [r6, #-3919]	; 0xfffff0b1
 904:	415f434e 	cmpmi	pc, lr, asr #6
 908:	0032544c 	eorseq	r5, r2, ip, asr #8
 90c:	4f495047 	svcmi	0x00495047
 910:	4e55465f 	mrcmi	6, 2, r4, cr5, cr15, {2}
 914:	4c415f43 	mcrrmi	15, 4, r5, r1, cr3
 918:	47003354 	smlsdmi	r0, r4, r3, r3
 91c:	5f4f4950 	svcpl	0x004f4950
 920:	434e5546 	movtmi	r5, #58694	; 0xe546
 924:	544c415f 	strbpl	r4, [ip], #-351	; 0xfffffea1
 928:	682f0035 	stmdavs	pc!, {r0, r2, r4, r5}	; <UNPREDICTABLE>
 92c:	2f656d6f 	svccs	0x00656d6f
 930:	6c676e65 	stclvs	14, cr6, [r7], #-404	; 0xfffffe6c
 934:	632f7265 			; <UNDEFINED> instruction: 0x632f7265
 938:	7373616c 	cmnvc	r3, #27
 93c:	3273632f 	rsbscc	r6, r3, #-1140850688	; 0xbc000000
 940:	786c3034 	stmdavc	ip!, {r2, r4, r5, ip, sp}^
 944:	7332322d 	teqvc	r2, #-805306366	; 0xd0000002
 948:	6c2f7270 	sfmvs	f7, 4, [pc], #-448	; 790 <__code_start__-0x7870>
 94c:	69706269 	ldmdbvs	r0!, {r0, r3, r5, r6, r9, sp, lr}^
 950:	6174732f 	cmnvs	r4, pc, lsr #6
 954:	702d6666 	eorvc	r6, sp, r6, ror #12
 958:	61766972 	cmnvs	r6, r2, ror r9
 95c:	62006574 	andvs	r6, r0, #116, 10	; 0x1d000000
 960:	00647561 	rsbeq	r7, r4, r1, ror #10
 964:	5f787561 	svcpl	0x00787561
 968:	62616e65 	rsbvs	r6, r1, #1616	; 0x650
 96c:	0073656c 	rsbseq	r6, r3, ip, ror #10
 970:	74726175 	ldrbtvc	r6, [r2], #-373	; 0xfffffe8b
 974:	7465675f 	strbtvc	r6, [r5], #-1887	; 0xfffff8a1
 978:	4e470063 	cdpmi	0, 4, cr0, cr7, cr3, {3}
 97c:	39432055 	stmdbcc	r3, {r0, r2, r4, r6, sp}^
 980:	30312039 	eorscc	r2, r1, r9, lsr r0
 984:	312e332e 			; <UNDEFINED> instruction: 0x312e332e
 988:	32303220 	eorscc	r3, r0, #32, 4
 98c:	32383031 	eorscc	r3, r8, #49, 0	; 0x31
 990:	72282034 	eorvc	r2, r8, #52, 0	; 0x34
 994:	61656c65 	cmnvs	r5, r5, ror #24
 998:	20296573 	eorcs	r6, r9, r3, ror r5
 99c:	70636d2d 	rsbvc	r6, r3, sp, lsr #26
 9a0:	72613d75 	rsbvc	r3, r1, #7488	; 0x1d40
 9a4:	3731316d 	ldrcc	r3, [r1, -sp, ror #2]!
 9a8:	667a6a36 			; <UNDEFINED> instruction: 0x667a6a36
 9ac:	2d20732d 	stccs	3, cr7, [r0, #-180]!	; 0xffffff4c
 9b0:	6e75746d 	cdpvs	4, 7, cr7, cr5, cr13, {3}
 9b4:	72613d65 	rsbvc	r3, r1, #6464	; 0x1940
 9b8:	3731316d 	ldrcc	r3, [r1, -sp, ror #2]!
 9bc:	667a6a36 			; <UNDEFINED> instruction: 0x667a6a36
 9c0:	2d20732d 	stccs	3, cr7, [r0, #-180]!	; 0xffffff4c
 9c4:	6f6c666d 	svcvs	0x006c666d
 9c8:	612d7461 			; <UNDEFINED> instruction: 0x612d7461
 9cc:	733d6962 	teqvc	sp, #1605632	; 0x188000
 9d0:	2074666f 	rsbscs	r6, r4, pc, ror #12
 9d4:	72616d2d 	rsbvc	r6, r1, #2880	; 0xb40
 9d8:	6d2d206d 	stcvs	0, cr2, [sp, #-436]!	; 0xfffffe4c
 9dc:	68637261 	stmdavs	r3!, {r0, r5, r6, r9, ip, sp, lr}^
 9e0:	6d72613d 	ldfvse	f6, [r2, #-244]!	; 0xffffff0c
 9e4:	7a6b3676 	bvc	1ace3c4 <__bss_end__+0x1ac3e44>
 9e8:	67672d20 	strbvs	r2, [r7, -r0, lsr #26]!
 9ec:	2d206264 	sfmcs	f6, 4, [r0, #-400]!	; 0xfffffe70
 9f0:	2d20674f 	stccs	7, cr6, [r0, #-316]!	; 0xfffffec4
 9f4:	3d647473 	cfstrdcc	mvd7, [r4, #-460]!	; 0xfffffe34
 9f8:	39756e67 	ldmdbcc	r5!, {r0, r1, r2, r5, r6, r9, sl, fp, sp, lr}^
 9fc:	662d2039 			; <UNDEFINED> instruction: 0x662d2039
 a00:	65657266 	strbvs	r7, [r5, #-614]!	; 0xfffffd9a
 a04:	6e617473 	mcrvs	4, 3, r7, cr1, cr3, {3}
 a08:	676e6964 	strbvs	r6, [lr, -r4, ror #18]!
 a0c:	746e6300 	strbtvc	r6, [lr], #-768	; 0xfffffd00
 a10:	6175006c 	cmnvs	r5, ip, rrx
 a14:	645f7472 	ldrbvs	r7, [pc], #-1138	; a1c <__code_start__-0x75e4>
 a18:	62617369 	rsbvs	r7, r1, #-1543503871	; 0xa4000001
 a1c:	7500656c 	strvc	r6, [r0, #-1388]	; 0xfffffa94
 a20:	5f747261 	svcpl	0x00747261
 a24:	5f736168 	svcpl	0x00736168
 a28:	61746164 	cmnvs	r4, r4, ror #2
 a2c:	49504700 	ldmdbmi	r0, {r8, r9, sl, lr}^
 a30:	55465f4f 	strbpl	r5, [r6, #-3919]	; 0xfffff0b1
 a34:	415f434e 	cmpmi	pc, lr, asr #6
 a38:	0034544c 	eorseq	r5, r4, ip, asr #8
 a3c:	695f726f 	ldmdbvs	pc, {r0, r1, r2, r3, r5, r6, r9, ip, sp, lr}^	; <UNPREDICTABLE>
 a40:	0032336e 	eorseq	r3, r2, lr, ror #6
 a44:	61726373 	cmnvs	r2, r3, ror r3
 a48:	00686374 	rsbeq	r6, r8, r4, ror r3
 a4c:	74726175 	ldrbtvc	r6, [r2], #-373	; 0xfffffe8b
 a50:	646e6100 	strbtvs	r6, [lr], #-256	; 0xffffff00
 a54:	336e695f 	cmncc	lr, #1556480	; 0x17c000
 a58:	61750032 	cmnvs	r5, r2, lsr r0
 a5c:	705f7472 	subsvc	r7, pc, r2, ror r4	; <UNPREDICTABLE>
 a60:	00637475 	rsbeq	r7, r3, r5, ror r4
 a64:	4f495047 	svcmi	0x00495047
 a68:	4e55465f 	mrcmi	6, 2, r4, cr5, cr15, {2}
 a6c:	4e495f43 	cdpmi	15, 4, cr5, cr9, cr3, {2}
 a70:	00545550 	subseq	r5, r4, r0, asr r5
 a74:	6f697067 	svcvs	0x00697067
 a78:	7465735f 	strbtvc	r7, [r5], #-863	; 0xfffffca1
 a7c:	6e75665f 	mrcvs	6, 3, r6, cr5, cr15, {2}
 a80:	6f697463 	svcvs	0x00697463
 a84:	6567006e 	strbvs	r0, [r7, #-110]!	; 0xffffff92
 a88:	00323374 	eorseq	r3, r2, r4, ror r3
 a8c:	6c616d6b 	stclvs	13, cr6, [r1], #-428	; 0xfffffe54
 a90:	5f636f6c 	svcpl	0x00636f6c
 a94:	70616568 	rsbvc	r6, r1, r8, ror #10
 a98:	6174735f 	cmnvs	r4, pc, asr r3
 a9c:	6d007472 	cfstrsvs	mvf7, [r0, #-456]	; 0xfffffe38
 aa0:	6e5f7861 	cdpvs	8, 5, cr7, cr15, cr1, {3}
 aa4:	65747962 	ldrbvs	r7, [r4, #-2402]!	; 0xfffff69e
 aa8:	615f0073 	cmpvs	pc, r3, ror r0	; <UNPREDICTABLE>
 aac:	00726464 	rsbseq	r6, r2, r4, ror #8
 ab0:	70616568 	rsbvc	r6, r1, r8, ror #10
 ab4:	78616d5f 	stmdavc	r1!, {r0, r1, r2, r3, r4, r6, r8, sl, fp, sp, lr}^
 ab8:	72666b00 	rsbvc	r6, r6, #0, 22
 abc:	615f6565 	cmpvs	pc, r5, ror #10
 ac0:	72006c6c 	andvc	r6, r0, #108, 24	; 0x6c00
 ac4:	646e756f 	strbtvs	r7, [lr], #-1391	; 0xfffffa91
 ac8:	6b007075 	blvs	1cca4 <__bss_end__+0x12724>
 acc:	65657266 	strbvs	r7, [r5, #-614]!	; 0xfffffd9a
 ad0:	706f705f 	rsbvc	r7, pc, pc, asr r0	; <UNPREDICTABLE>
 ad4:	696c6100 	stmdbvs	ip!, {r8, sp, lr}^
 ad8:	656d6e67 	strbvs	r6, [sp, #-3687]!	; 0xfffff199
 adc:	6d00746e 	cfstrsvs	mvf7, [r0, #-440]	; 0xfffffe48
 ae0:	755f7861 	ldrbvc	r7, [pc, #-2145]	; 287 <__code_start__-0x7d79>
 ae4:	4f003233 	svcmi	0x00003233
 ae8:	424d656e 	submi	r6, sp, #461373440	; 0x1b800000
 aec:	616d6b00 	cmnvs	sp, r0, lsl #22
 af0:	636f6c6c 	cmnvs	pc, #108, 24	; 0x6c00
 af4:	6165685f 	cmnvs	r5, pc, asr r8
 af8:	6e655f70 	mcrvs	15, 3, r5, cr5, cr0, {3}
 afc:	6d6b0064 	stclvs	0, cr0, [fp, #-400]!	; 0xfffffe70
 b00:	6f6c6c61 	svcvs	0x006c6c61
 b04:	6f6e5f63 	svcvs	0x006e5f63
 b08:	72657a74 	rsbvc	r7, r5, #116, 20	; 0x74000
 b0c:	7369006f 	cmnvc	r9, #111, 0	; 0x6f
 b10:	776f705f 			; <UNDEFINED> instruction: 0x776f705f
 b14:	6d6b0032 	stclvs	0, cr0, [fp, #-200]!	; 0xffffff38
 b18:	6f6c6c61 	svcvs	0x006c6c61
 b1c:	00632e63 	rsbeq	r2, r3, r3, ror #28
 b20:	6c616d6b 	stclvs	13, cr6, [r1], #-428	; 0xfffffe54
 b24:	5f636f6c 	svcpl	0x00636f6c
 b28:	74696e69 	strbtvc	r6, [r9], #-3689	; 0xfffff197
 b2c:	5f736900 	svcpl	0x00736900
 b30:	67696c61 	strbvs	r6, [r9, -r1, ror #24]!
 b34:	0064656e 	rsbeq	r6, r4, lr, ror #10
 b38:	6c616d6b 	stclvs	13, cr6, [r1], #-428	; 0xfffffe54
 b3c:	5f636f6c 	svcpl	0x00636f6c
 b40:	70616568 	rsbvc	r6, r1, r8, ror #10
 b44:	7274705f 	rsbsvc	r7, r4, #95, 0	; 0x5f
 b48:	69707200 	ldmdbvs	r0!, {r9, ip, sp, lr}^
 b4c:	7365725f 	cmnvc	r5, #-268435451	; 0xf0000005
 b50:	705f7465 	subsvc	r7, pc, r5, ror #8
 b54:	00637475 	rsbeq	r7, r3, r5, ror r4
 b58:	6c616d6b 	stclvs	13, cr6, [r1], #-428	; 0xfffffe54
 b5c:	5f636f6c 	svcpl	0x00636f6c
 b60:	67696c61 	strbvs	r6, [r9, -r1, ror #24]!
 b64:	0064656e 	rsbeq	r6, r4, lr, ror #10
 b68:	65746e69 	ldrbvs	r6, [r4, #-3689]!	; 0xfffff197
 b6c:	6c616e72 	stclvs	14, cr6, [r1], #-456	; 0xfffffe38
 b70:	7475705f 	ldrbtvc	r7, [r5], #-95	; 0xffffffa1
 b74:	72616863 	rsbvc	r6, r1, #6488064	; 0x630000
 b78:	69707200 	ldmdbvs	r0!, {r9, ip, sp, lr}^
 b7c:	7465735f 	strbtvc	r7, [r5], #-863	; 0xfffffca1
 b80:	7475705f 	ldrbtvc	r7, [r5], #-95	; 0xffffffa1
 b84:	2f2e0063 	svccs	0x002e0063
 b88:	6362696c 	cmnvs	r2, #108, 18	; 0x1b0000
 b8c:	7475702f 	ldrbtvc	r7, [r5], #-47	; 0xffffffd1
 b90:	72616863 	rsbvc	r6, r1, #6488064	; 0x630000
 b94:	6400632e 	strvs	r6, [r0], #-814	; 0xfffffcd2
 b98:	00747365 	rsbseq	r7, r4, r5, ror #6
 b9c:	696c2f2e 	stmdbvs	ip!, {r1, r2, r3, r5, r8, r9, sl, fp, sp}^
 ba0:	732f6362 			; <UNDEFINED> instruction: 0x732f6362
 ba4:	61637274 	smcvs	14116	; 0x3724
 ba8:	00632e74 	rsbeq	r2, r3, r4, ror lr
 bac:	696c2f2e 	stmdbvs	ip!, {r1, r2, r3, r5, r8, r9, sl, fp, sp}^
 bb0:	732f6362 			; <UNDEFINED> instruction: 0x732f6362
 bb4:	6d637274 	sfmvs	f7, 2, [r3, #-464]!	; 0xfffffe30
 bb8:	00632e70 	rsbeq	r2, r3, r0, ror lr
 bbc:	696c2f2e 	stmdbvs	ip!, {r1, r2, r3, r5, r8, r9, sl, fp, sp}^
 bc0:	732f6362 			; <UNDEFINED> instruction: 0x732f6362
 bc4:	70637274 	rsbvc	r7, r3, r4, ror r2
 bc8:	00632e79 	rsbeq	r2, r3, r9, ror lr
 bcc:	696c2f2e 	stmdbvs	ip!, {r1, r2, r3, r5, r8, r9, sl, fp, sp}^
 bd0:	732f6362 			; <UNDEFINED> instruction: 0x732f6362
 bd4:	636e7274 	cmnvs	lr, #116, 4	; 0x40000007
 bd8:	632e706d 			; <UNDEFINED> instruction: 0x632e706d
 bdc:	732f2e00 			; <UNDEFINED> instruction: 0x732f2e00
 be0:	66666174 			; <UNDEFINED> instruction: 0x66666174
 be4:	6372732d 	cmnvs	r2, #-1275068416	; 0xb4000000
 be8:	6665642f 	strbtvs	r6, [r5], -pc, lsr #8
 bec:	746c7561 	strbtvc	r7, [ip], #-1377	; 0xfffffa9f
 bf0:	6265722d 	rsbvs	r7, r5, #-805306366	; 0xd0000002
 bf4:	2d746f6f 	ldclcs	15, cr6, [r4, #-444]!	; 0xfffffe44
 bf8:	6c6c6163 	stfvse	f6, [ip], #-396	; 0xfffffe74
 bfc:	2e74756f 	cdpcs	5, 7, cr7, cr4, cr15, {3}
 c00:	70670063 	rsbvc	r0, r7, r3, rrx
 c04:	635f6f69 	cmpvs	pc, #420	; 0x1a4
 c08:	0030726c 	eorseq	r7, r0, ip, ror #4
 c0c:	6f697067 	svcvs	0x00697067
 c10:	7465735f 	strbtvc	r7, [r5], #-863	; 0xfffffca1
 c14:	70670030 	rsbvc	r0, r7, r0, lsr r0
 c18:	775f6f69 	ldrbvc	r6, [pc, -r9, ror #30]
 c1c:	65746972 	ldrbvs	r6, [r4, #-2418]!	; 0xfffff68e
 c20:	56454400 	strbpl	r4, [r5], -r0, lsl #8
 c24:	4c41565f 	mcrrmi	6, 5, r5, r1, cr15
 c28:	67003233 	smladxvs	r0, r3, r2, r3
 c2c:	5f6f6970 	svcpl	0x006f6970
 c30:	64616572 	strbtvs	r6, [r1], #-1394	; 0xfffffa8e
 c34:	69706700 	ldmdbvs	r0!, {r8, r9, sl, sp, lr}^
 c38:	65735f6f 	ldrbvs	r5, [r3, #-3951]!	; 0xfffff091
 c3c:	6e695f74 	mcrvs	15, 3, r5, cr9, cr4, {3}
 c40:	00747570 	rsbseq	r7, r4, r0, ror r5
 c44:	6f697067 	svcvs	0x00697067
 c48:	7465735f 	strbtvc	r7, [r5], #-863	; 0xfffffca1
 c4c:	66666f5f 	uqsaxvs	r6, r6, pc	; <UNPREDICTABLE>
 c50:	69706700 	ldmdbvs	r0!, {r8, r9, sl, sp, lr}^
 c54:	65735f6f 	ldrbvs	r5, [r3, #-3951]!	; 0xfffff091
 c58:	756f5f74 	strbvc	r5, [pc, #-3956]!	; fffffcec <__bss_end__+0xffff576c>
 c5c:	74757074 	ldrbtvc	r7, [r5], #-116	; 0xffffff8c
 c60:	69706700 	ldmdbvs	r0!, {r8, r9, sl, sp, lr}^
 c64:	75665f6f 	strbvc	r5, [r6, #-3951]!	; 0xfffff091
 c68:	745f636e 	ldrbvc	r6, [pc], #-878	; c70 <__code_start__-0x7390>
 c6c:	69706700 	ldmdbvs	r0!, {r8, r9, sl, sp, lr}^
 c70:	656c5f6f 	strbvs	r5, [ip, #-3951]!	; 0xfffff091
 c74:	62003076 	andvs	r3, r0, #118, 0	; 0x76
 c78:	006b6e61 	rsbeq	r6, fp, r1, ror #28
 c7c:	6f697067 	svcvs	0x00697067
 c80:	6700632e 	strvs	r6, [r0, -lr, lsr #6]
 c84:	5f6f6970 	svcpl	0x006f6970
 c88:	5f746573 	svcpl	0x00746573
 c8c:	Address 0x0000000000000c8c is out of bounds.


Disassembly of section .debug_frame:

00000000 <.debug_frame>:
   0:	0000000c 	andeq	r0, r0, ip
   4:	ffffffff 			; <UNDEFINED> instruction: 0xffffffff
   8:	7c020001 	stcvc	0, cr0, [r2], {1}
   c:	000d0c0e 	andeq	r0, sp, lr, lsl #24
  10:	00000020 	andeq	r0, r0, r0, lsr #32
  14:	00000000 	andeq	r0, r0, r0
  18:	00008038 	andeq	r8, r0, r8, lsr r0
  1c:	00000084 	andeq	r0, r0, r4, lsl #1
  20:	84100e42 	ldrhi	r0, [r0], #-3650	; 0xfffff1be
  24:	86038504 	strhi	r8, [r3], -r4, lsl #10
  28:	42018e02 	andmi	r8, r1, #2, 28
  2c:	0e76280e 	cdpeq	8, 7, cr2, cr6, cr14, {0}
  30:	00000010 	andeq	r0, r0, r0, lsl r0
  34:	00000014 	andeq	r0, r0, r4, lsl r0
  38:	00000000 	andeq	r0, r0, r0
  3c:	000080bc 	strheq	r8, [r0], -ip
  40:	00000058 	andeq	r0, r0, r8, asr r0
  44:	84080e42 	strhi	r0, [r8], #-3650	; 0xfffff1be
  48:	00018e02 	andeq	r8, r1, r2, lsl #28
  4c:	0000000c 	andeq	r0, r0, ip
  50:	ffffffff 			; <UNDEFINED> instruction: 0xffffffff
  54:	7c020001 	stcvc	0, cr0, [r2], {1}
  58:	000d0c0e 	andeq	r0, sp, lr, lsl #24
  5c:	00000014 	andeq	r0, r0, r4, lsl r0
  60:	0000004c 	andeq	r0, r0, ip, asr #32
  64:	00008114 	andeq	r8, r0, r4, lsl r1
  68:	00000074 	andeq	r0, r0, r4, ror r0
  6c:	8e040e5e 	mcrhi	14, 0, r0, cr4, cr14, {2}
  70:	100e4201 	andne	r4, lr, r1, lsl #4
  74:	0000000c 	andeq	r0, r0, ip
  78:	0000004c 	andeq	r0, r0, ip, asr #32
  7c:	00008188 	andeq	r8, r0, r8, lsl #3
  80:	00000010 	andeq	r0, r0, r0, lsl r0
  84:	0000000c 	andeq	r0, r0, ip
  88:	0000004c 	andeq	r0, r0, ip, asr #32
  8c:	00008198 	muleq	r0, r8, r1
  90:	00000010 	andeq	r0, r0, r0, lsl r0
  94:	00000020 	andeq	r0, r0, r0, lsr #32
  98:	0000004c 	andeq	r0, r0, ip, asr #32
  9c:	000081a8 	andeq	r8, r0, r8, lsr #3
  a0:	00000094 	muleq	r0, r4, r0
  a4:	840c0e42 	strhi	r0, [ip], #-3650	; 0xfffff1be
  a8:	8e028503 	cfsh32hi	mvfx8, mvfx2, #3
  ac:	180e4201 	stmdane	lr, {r0, r9, lr}
  b0:	0c0e0a5c 			; <UNDEFINED> instruction: 0x0c0e0a5c
  b4:	00000b42 	andeq	r0, r0, r2, asr #22
  b8:	0000000c 	andeq	r0, r0, ip
  bc:	0000004c 	andeq	r0, r0, ip, asr #32
  c0:	0000823c 	andeq	r8, r0, ip, lsr r2
  c4:	00000008 	andeq	r0, r0, r8
  c8:	00000014 	andeq	r0, r0, r4, lsl r0
  cc:	0000004c 	andeq	r0, r0, ip, asr #32
  d0:	00008244 	andeq	r8, r0, r4, asr #4
  d4:	00000018 	andeq	r0, r0, r8, lsl r0
  d8:	84080e42 	strhi	r0, [r8], #-3650	; 0xfffff1be
  dc:	00018e02 	andeq	r8, r1, r2, lsl #28
  e0:	0000000c 	andeq	r0, r0, ip
  e4:	0000004c 	andeq	r0, r0, ip, asr #32
  e8:	0000825c 	andeq	r8, r0, ip, asr r2
  ec:	00000038 	andeq	r0, r0, r8, lsr r0
  f0:	00000018 	andeq	r0, r0, r8, lsl r0
  f4:	0000004c 	andeq	r0, r0, ip, asr #32
  f8:	00008294 	muleq	r0, r4, r2
  fc:	00000050 	andeq	r0, r0, r0, asr r0
 100:	84100e42 	ldrhi	r0, [r0], #-3650	; 0xfffff1be
 104:	86038504 	strhi	r8, [r3], -r4, lsl #10
 108:	00018e02 	andeq	r8, r1, r2, lsl #28
 10c:	00000020 	andeq	r0, r0, r0, lsr #32
 110:	0000004c 	andeq	r0, r0, ip, asr #32
 114:	000082e4 	andeq	r8, r0, r4, ror #5
 118:	0000011c 	andeq	r0, r0, ip, lsl r1
 11c:	840c0e42 	strhi	r0, [ip], #-3650	; 0xfffff1be
 120:	8e028503 	cfsh32hi	mvfx8, mvfx2, #3
 124:	280e4201 	stmdacs	lr, {r0, r9, lr}
 128:	0e0a4002 	cdpeq	0, 0, cr4, cr10, cr2, {0}
 12c:	000b420c 	andeq	r4, fp, ip, lsl #4
 130:	00000020 	andeq	r0, r0, r0, lsr #32
 134:	0000004c 	andeq	r0, r0, ip, asr #32
 138:	00008400 	andeq	r8, r0, r0, lsl #8
 13c:	00000098 	muleq	r0, r8, r0
 140:	84100e42 	ldrhi	r0, [r0], #-3650	; 0xfffff1be
 144:	86038504 	strhi	r8, [r3], -r4, lsl #10
 148:	42018e02 	andmi	r8, r1, #2, 28
 14c:	4002200e 	andmi	r2, r2, lr
 150:	0000100e 	andeq	r1, r0, lr
 154:	0000000c 	andeq	r0, r0, ip
 158:	ffffffff 			; <UNDEFINED> instruction: 0xffffffff
 15c:	7c020001 	stcvc	0, cr0, [r2], {1}
 160:	000d0c0e 	andeq	r0, sp, lr, lsl #24
 164:	0000000c 	andeq	r0, r0, ip
 168:	00000154 	andeq	r0, r0, r4, asr r1
 16c:	00008498 	muleq	r0, r8, r4
 170:	0000003c 	andeq	r0, r0, ip, lsr r0
 174:	00000014 	andeq	r0, r0, r4, lsl r0
 178:	00000154 	andeq	r0, r0, r4, asr r1
 17c:	000084d4 	ldrdeq	r8, [r0], -r4
 180:	00000040 	andeq	r0, r0, r0, asr #32
 184:	84080e42 	strhi	r0, [r8], #-3650	; 0xfffff1be
 188:	00018e02 	andeq	r8, r1, r2, lsl #28
 18c:	00000014 	andeq	r0, r0, r4, lsl r0
 190:	00000154 	andeq	r0, r0, r4, asr r1
 194:	00008514 	andeq	r8, r0, r4, lsl r5
 198:	00000040 	andeq	r0, r0, r0, asr #32
 19c:	84080e42 	strhi	r0, [r8], #-3650	; 0xfffff1be
 1a0:	00018e02 	andeq	r8, r1, r2, lsl #28
 1a4:	00000014 	andeq	r0, r0, r4, lsl r0
 1a8:	00000154 	andeq	r0, r0, r4, asr r1
 1ac:	00008554 	andeq	r8, r0, r4, asr r5
 1b0:	00000028 	andeq	r0, r0, r8, lsr #32
 1b4:	84080e42 	strhi	r0, [r8], #-3650	; 0xfffff1be
 1b8:	00018e02 	andeq	r8, r1, r2, lsl #28
 1bc:	00000020 	andeq	r0, r0, r0, lsr #32
 1c0:	00000154 	andeq	r0, r0, r4, asr r1
 1c4:	0000857c 	andeq	r8, r0, ip, ror r5
 1c8:	000000f4 	strdeq	r0, [r0], -r4
 1cc:	84100e42 	ldrhi	r0, [r0], #-3650	; 0xfffff1be
 1d0:	86038504 	strhi	r8, [r3], -r4, lsl #10
 1d4:	42018e02 	andmi	r8, r1, #2, 28
 1d8:	6802180e 	stmdavs	r2, {r1, r2, r3, fp, ip}
 1dc:	0000100e 	andeq	r1, r0, lr
 1e0:	00000018 	andeq	r0, r0, r8, lsl r0
 1e4:	00000154 	andeq	r0, r0, r4, asr r1
 1e8:	00008670 	andeq	r8, r0, r0, ror r6
 1ec:	00000084 	andeq	r0, r0, r4, lsl #1
 1f0:	8e040e42 	cdphi	14, 0, cr0, cr4, cr2, {2}
 1f4:	480e4201 	stmdami	lr, {r0, r9, lr}
 1f8:	00040e74 	andeq	r0, r4, r4, ror lr
 1fc:	00000020 	andeq	r0, r0, r0, lsr #32
 200:	00000154 	andeq	r0, r0, r4, asr r1
 204:	000086f4 	strdeq	r8, [r0], -r4
 208:	000000a4 	andeq	r0, r0, r4, lsr #1
 20c:	840c0e42 	strhi	r0, [ip], #-3650	; 0xfffff1be
 210:	8e028503 	cfsh32hi	mvfx8, mvfx2, #3
 214:	180e4201 	stmdane	lr, {r0, r9, lr}
 218:	0c0e0a64 			; <UNDEFINED> instruction: 0x0c0e0a64
 21c:	00000b42 	andeq	r0, r0, r2, asr #22
 220:	00000014 	andeq	r0, r0, r4, lsl r0
 224:	00000154 	andeq	r0, r0, r4, asr r1
 228:	00008798 	muleq	r0, r8, r7
 22c:	00000014 	andeq	r0, r0, r4, lsl r0
 230:	84080e42 	strhi	r0, [r8], #-3650	; 0xfffff1be
 234:	00018e02 	andeq	r8, r1, r2, lsl #28
 238:	00000014 	andeq	r0, r0, r4, lsl r0
 23c:	00000154 	andeq	r0, r0, r4, asr r1
 240:	000087ac 	andeq	r8, r0, ip, lsr #15
 244:	0000000c 	andeq	r0, r0, ip
 248:	84080e42 	strhi	r0, [r8], #-3650	; 0xfffff1be
 24c:	00018e02 	andeq	r8, r1, r2, lsl #28
 250:	00000014 	andeq	r0, r0, r4, lsl r0
 254:	00000154 	andeq	r0, r0, r4, asr r1
 258:	000087b8 			; <UNDEFINED> instruction: 0x000087b8
 25c:	0000000c 	andeq	r0, r0, ip
 260:	84080e42 	strhi	r0, [r8], #-3650	; 0xfffff1be
 264:	00018e02 	andeq	r8, r1, r2, lsl #28
 268:	00000014 	andeq	r0, r0, r4, lsl r0
 26c:	00000154 	andeq	r0, r0, r4, asr r1
 270:	000087c4 	andeq	r8, r0, r4, asr #15
 274:	0000000c 	andeq	r0, r0, ip
 278:	84080e42 	strhi	r0, [r8], #-3650	; 0xfffff1be
 27c:	00018e02 	andeq	r8, r1, r2, lsl #28
 280:	00000014 	andeq	r0, r0, r4, lsl r0
 284:	00000154 	andeq	r0, r0, r4, asr r1
 288:	000087d0 	ldrdeq	r8, [r0], -r0
 28c:	00000028 	andeq	r0, r0, r8, lsr #32
 290:	84080e42 	strhi	r0, [r8], #-3650	; 0xfffff1be
 294:	00018e02 	andeq	r8, r1, r2, lsl #28
 298:	0000000c 	andeq	r0, r0, ip
 29c:	ffffffff 			; <UNDEFINED> instruction: 0xffffffff
 2a0:	7c020001 	stcvc	0, cr0, [r2], {1}
 2a4:	000d0c0e 	andeq	r0, sp, lr, lsl #24
 2a8:	00000014 	andeq	r0, r0, r4, lsl r0
 2ac:	00000298 	muleq	r0, r8, r2
 2b0:	0000880c 	andeq	r8, r0, ip, lsl #16
 2b4:	000000bc 	strheq	r0, [r0], -ip
 2b8:	8e040e42 	cdphi	14, 0, cr0, cr4, cr2, {2}
 2bc:	00000001 	andeq	r0, r0, r1
 2c0:	00000014 	andeq	r0, r0, r4, lsl r0
 2c4:	00000298 	muleq	r0, r8, r2
 2c8:	000088c8 	andeq	r8, r0, r8, asr #17
 2cc:	00000044 	andeq	r0, r0, r4, asr #32
 2d0:	84080e42 	strhi	r0, [r8], #-3650	; 0xfffff1be
 2d4:	00018e02 	andeq	r8, r1, r2, lsl #28
 2d8:	00000014 	andeq	r0, r0, r4, lsl r0
 2dc:	00000298 	muleq	r0, r8, r2
 2e0:	0000890c 	andeq	r8, r0, ip, lsl #18
 2e4:	000000ac 	andeq	r0, r0, ip, lsr #1
 2e8:	84080e42 	strhi	r0, [r8], #-3650	; 0xfffff1be
 2ec:	00018e02 	andeq	r8, r1, r2, lsl #28
 2f0:	0000000c 	andeq	r0, r0, ip
 2f4:	ffffffff 			; <UNDEFINED> instruction: 0xffffffff
 2f8:	7c020001 	stcvc	0, cr0, [r2], {1}
 2fc:	000d0c0e 	andeq	r0, sp, lr, lsl #24
 300:	0000000c 	andeq	r0, r0, ip
 304:	000002f0 	strdeq	r0, [r0], -r0	; <UNPREDICTABLE>
 308:	000089b8 			; <UNDEFINED> instruction: 0x000089b8
 30c:	00000018 	andeq	r0, r0, r8, lsl r0
 310:	0000000c 	andeq	r0, r0, ip
 314:	ffffffff 			; <UNDEFINED> instruction: 0xffffffff
 318:	7c020001 	stcvc	0, cr0, [r2], {1}
 31c:	000d0c0e 	andeq	r0, sp, lr, lsl #24
 320:	00000034 	andeq	r0, r0, r4, lsr r0
 324:	00000310 	andeq	r0, r0, r0, lsl r3
 328:	000089d0 	ldrdeq	r8, [r0], -r0
 32c:	00000058 	andeq	r0, r0, r8, asr r0
 330:	80100e42 	andshi	r0, r0, r2, asr #28
 334:	82038104 	andhi	r8, r3, #1
 338:	42018302 	andmi	r8, r1, #134217728	; 0x8000000
 33c:	07841c0e 	streq	r1, [r4, lr, lsl #24]
 340:	058e0685 	streq	r0, [lr, #1669]	; 0x685
 344:	5c280e42 	stcpl	14, cr0, [r8], #-264	; 0xfffffef8
 348:	ce421c0e 	cdpgt	12, 4, cr1, cr2, cr14, {0}
 34c:	100ec4c5 	andne	ip, lr, r5, asr #9
 350:	c1c2c342 	bicgt	ip, r2, r2, asr #6
 354:	00000ec0 	andeq	r0, r0, r0, asr #29
 358:	0000000c 	andeq	r0, r0, ip
 35c:	ffffffff 			; <UNDEFINED> instruction: 0xffffffff
 360:	7c020001 	stcvc	0, cr0, [r2], {1}
 364:	000d0c0e 	andeq	r0, sp, lr, lsl #24
 368:	00000014 	andeq	r0, r0, r4, lsl r0
 36c:	00000358 	andeq	r0, r0, r8, asr r3
 370:	00008a28 	andeq	r8, r0, r8, lsr #20
 374:	00000034 	andeq	r0, r0, r4, lsr r0
 378:	84080e42 	strhi	r0, [r8], #-3650	; 0xfffff1be
 37c:	00018e02 	andeq	r8, r1, r2, lsl #28
 380:	0000000c 	andeq	r0, r0, ip
 384:	ffffffff 			; <UNDEFINED> instruction: 0xffffffff
 388:	7c020001 	stcvc	0, cr0, [r2], {1}
 38c:	000d0c0e 	andeq	r0, sp, lr, lsl #24
 390:	0000000c 	andeq	r0, r0, ip
 394:	00000380 	andeq	r0, r0, r0, lsl #7
 398:	00008a5c 	andeq	r8, r0, ip, asr sl
 39c:	00000014 	andeq	r0, r0, r4, lsl r0
 3a0:	0000000c 	andeq	r0, r0, ip
 3a4:	00000380 	andeq	r0, r0, r0, lsl #7
 3a8:	00008a70 	andeq	r8, r0, r0, ror sl
 3ac:	00000024 	andeq	r0, r0, r4, lsr #32
 3b0:	0000000c 	andeq	r0, r0, ip
 3b4:	00000380 	andeq	r0, r0, r0, lsl #7
 3b8:	00008a94 	muleq	r0, r4, sl
 3bc:	00000038 	andeq	r0, r0, r8, lsr r0
 3c0:	00000024 	andeq	r0, r0, r4, lsr #32
 3c4:	00000380 	andeq	r0, r0, r0, lsl #7
 3c8:	00008acc 	andeq	r8, r0, ip, asr #21
 3cc:	000001b4 			; <UNDEFINED> instruction: 0x000001b4
 3d0:	84140e42 	ldrhi	r0, [r4], #-3650	; 0xfffff1be
 3d4:	86048505 	strhi	r8, [r4], -r5, lsl #10
 3d8:	8e028703 	cdphi	7, 0, cr8, cr2, cr3, {0}
 3dc:	600e4201 	andvs	r4, lr, r1, lsl #4
 3e0:	0e0a9a02 	vmlaeq.f32	s18, s20, s4
 3e4:	000b4214 	andeq	r4, fp, r4, lsl r2
 3e8:	00000014 	andeq	r0, r0, r4, lsl r0
 3ec:	00000380 	andeq	r0, r0, r0, lsl #7
 3f0:	00008c80 	andeq	r8, r0, r0, lsl #25
 3f4:	00000064 	andeq	r0, r0, r4, rrx
 3f8:	8e040e54 	mcrhi	14, 0, r0, cr4, cr4, {2}
 3fc:	100e4201 	andne	r4, lr, r1, lsl #4
 400:	0000002c 	andeq	r0, r0, ip, lsr #32
 404:	00000380 	andeq	r0, r0, r0, lsl #7
 408:	00008ce4 	andeq	r8, r0, r4, ror #25
 40c:	000004b8 			; <UNDEFINED> instruction: 0x000004b8
 410:	84240e42 	strthi	r0, [r4], #-3650	; 0xfffff1be
 414:	86088509 	strhi	r8, [r8], -r9, lsl #10
 418:	88068707 	stmdahi	r6, {r0, r1, r2, r8, r9, sl, pc}
 41c:	8a048905 	bhi	122838 <__bss_end__+0x1182b8>
 420:	8e028b03 	vmlahi.f64	d8, d2, d3
 424:	b80e4201 	stmdalt	lr, {r0, r9, lr}
 428:	02380302 	eorseq	r0, r8, #134217728	; 0x8000000
 42c:	0000240e 	andeq	r2, r0, lr, lsl #8
 430:	0000000c 	andeq	r0, r0, ip
 434:	ffffffff 			; <UNDEFINED> instruction: 0xffffffff
 438:	7c020001 	stcvc	0, cr0, [r2], {1}
 43c:	000d0c0e 	andeq	r0, sp, lr, lsl #24
 440:	00000014 	andeq	r0, r0, r4, lsl r0
 444:	00000430 	andeq	r0, r0, r0, lsr r4
 448:	0000919c 	muleq	r0, ip, r1
 44c:	0000002c 	andeq	r0, r0, ip, lsr #32
 450:	84080e42 	strhi	r0, [r8], #-3650	; 0xfffff1be
 454:	00018e02 	andeq	r8, r1, r2, lsl #28
 458:	0000000c 	andeq	r0, r0, ip
 45c:	ffffffff 			; <UNDEFINED> instruction: 0xffffffff
 460:	7c020001 	stcvc	0, cr0, [r2], {1}
 464:	000d0c0e 	andeq	r0, sp, lr, lsl #24
 468:	00000014 	andeq	r0, r0, r4, lsl r0
 46c:	00000458 	andeq	r0, r0, r8, asr r4
 470:	000091c8 	andeq	r9, r0, r8, asr #3
 474:	0000003c 	andeq	r0, r0, ip, lsr r0
 478:	84080e42 	strhi	r0, [r8], #-3650	; 0xfffff1be
 47c:	00018e02 	andeq	r8, r1, r2, lsl #28
 480:	0000000c 	andeq	r0, r0, ip
 484:	ffffffff 			; <UNDEFINED> instruction: 0xffffffff
 488:	7c020001 	stcvc	0, cr0, [r2], {1}
 48c:	000d0c0e 	andeq	r0, sp, lr, lsl #24
 490:	0000000c 	andeq	r0, r0, ip
 494:	00000480 	andeq	r0, r0, r0, lsl #9
 498:	00009204 	andeq	r9, r0, r4, lsl #4
 49c:	00000004 	andeq	r0, r0, r4
 4a0:	0000000c 	andeq	r0, r0, ip
 4a4:	ffffffff 			; <UNDEFINED> instruction: 0xffffffff
 4a8:	7c020001 	stcvc	0, cr0, [r2], {1}
 4ac:	000d0c0e 	andeq	r0, sp, lr, lsl #24
 4b0:	0000000c 	andeq	r0, r0, ip
 4b4:	000004a0 	andeq	r0, r0, r0, lsr #9
 4b8:	00009208 	andeq	r9, r0, r8, lsl #4
 4bc:	00000018 	andeq	r0, r0, r8, lsl r0
 4c0:	0000000c 	andeq	r0, r0, ip
 4c4:	000004a0 	andeq	r0, r0, r0, lsr #9
 4c8:	00009220 	andeq	r9, r0, r0, lsr #4
 4cc:	00000014 	andeq	r0, r0, r4, lsl r0
 4d0:	00000014 	andeq	r0, r0, r4, lsl r0
 4d4:	000004a0 	andeq	r0, r0, r0, lsr #9
 4d8:	00009234 	andeq	r9, r0, r4, lsr r2
 4dc:	00000054 	andeq	r0, r0, r4, asr r0
 4e0:	84080e42 	strhi	r0, [r8], #-3650	; 0xfffff1be
 4e4:	00018e02 	andeq	r8, r1, r2, lsl #28
 4e8:	0000000c 	andeq	r0, r0, ip
 4ec:	ffffffff 			; <UNDEFINED> instruction: 0xffffffff
 4f0:	7c020001 	stcvc	0, cr0, [r2], {1}
 4f4:	000d0c0e 	andeq	r0, sp, lr, lsl #24
 4f8:	00000014 	andeq	r0, r0, r4, lsl r0
 4fc:	000004e8 	andeq	r0, r0, r8, ror #9
 500:	00009288 	andeq	r9, r0, r8, lsl #5
 504:	00000014 	andeq	r0, r0, r4, lsl r0
 508:	84080e42 	strhi	r0, [r8], #-3650	; 0xfffff1be
 50c:	00018e02 	andeq	r8, r1, r2, lsl #28
 510:	00000014 	andeq	r0, r0, r4, lsl r0
 514:	000004e8 	andeq	r0, r0, r8, ror #9
 518:	0000929c 	muleq	r0, ip, r2
 51c:	0000001c 	andeq	r0, r0, ip, lsl r0
 520:	84080e42 	strhi	r0, [r8], #-3650	; 0xfffff1be
 524:	00018e02 	andeq	r8, r1, r2, lsl #28
 528:	00000018 	andeq	r0, r0, r8, lsl r0
 52c:	000004e8 	andeq	r0, r0, r8, ror #9
 530:	000092b8 			; <UNDEFINED> instruction: 0x000092b8
 534:	00000024 	andeq	r0, r0, r4, lsr #32
 538:	84100e42 	ldrhi	r0, [r0], #-3650	; 0xfffff1be
 53c:	86038504 	strhi	r8, [r3], -r4, lsl #10
 540:	00018e02 	andeq	r8, r1, r2, lsl #28
 544:	00000014 	andeq	r0, r0, r4, lsl r0
 548:	000004e8 	andeq	r0, r0, r8, ror #9
 54c:	000092dc 	ldrdeq	r9, [r0], -ip
 550:	00000018 	andeq	r0, r0, r8, lsl r0
 554:	84080e42 	strhi	r0, [r8], #-3650	; 0xfffff1be
 558:	00018e02 	andeq	r8, r1, r2, lsl #28
 55c:	00000014 	andeq	r0, r0, r4, lsl r0
 560:	000004e8 	andeq	r0, r0, r8, ror #9
 564:	000092f4 	strdeq	r9, [r0], -r4
 568:	00000018 	andeq	r0, r0, r8, lsl r0
 56c:	84080e42 	strhi	r0, [r8], #-3650	; 0xfffff1be
 570:	00018e02 	andeq	r8, r1, r2, lsl #28
 574:	0000000c 	andeq	r0, r0, ip
 578:	ffffffff 			; <UNDEFINED> instruction: 0xffffffff
 57c:	7c020001 	stcvc	0, cr0, [r2], {1}
 580:	000d0c0e 	andeq	r0, sp, lr, lsl #24
 584:	00000018 	andeq	r0, r0, r8, lsl r0
 588:	00000574 	andeq	r0, r0, r4, ror r5
 58c:	0000930c 	andeq	r9, r0, ip, lsl #6
 590:	00000020 	andeq	r0, r0, r0, lsr #32
 594:	84100e42 	ldrhi	r0, [r0], #-3650	; 0xfffff1be
 598:	86038504 	strhi	r8, [r3], -r4, lsl #10
 59c:	00018e02 	andeq	r8, r1, r2, lsl #28
 5a0:	00000018 	andeq	r0, r0, r8, lsl r0
 5a4:	00000574 	andeq	r0, r0, r4, ror r5
 5a8:	0000932c 	andeq	r9, r0, ip, lsr #6
 5ac:	00000020 	andeq	r0, r0, r0, lsr #32
 5b0:	84100e42 	ldrhi	r0, [r0], #-3650	; 0xfffff1be
 5b4:	86038504 	strhi	r8, [r3], -r4, lsl #10
 5b8:	00018e02 	andeq	r8, r1, r2, lsl #28
 5bc:	00000014 	andeq	r0, r0, r4, lsl r0
 5c0:	00000574 	andeq	r0, r0, r4, ror r5
 5c4:	0000934c 	andeq	r9, r0, ip, asr #6
 5c8:	000000b0 	strheq	r0, [r0], -r0	; <UNPREDICTABLE>
 5cc:	84080e42 	strhi	r0, [r8], #-3650	; 0xfffff1be
 5d0:	00018e02 	andeq	r8, r1, r2, lsl #28
 5d4:	00000014 	andeq	r0, r0, r4, lsl r0
 5d8:	00000574 	andeq	r0, r0, r4, ror r5
 5dc:	000093fc 	strdeq	r9, [r0], -ip
 5e0:	00000018 	andeq	r0, r0, r8, lsl r0
 5e4:	84080e42 	strhi	r0, [r8], #-3650	; 0xfffff1be
 5e8:	00018e02 	andeq	r8, r1, r2, lsl #28
 5ec:	00000014 	andeq	r0, r0, r4, lsl r0
 5f0:	00000574 	andeq	r0, r0, r4, ror r5
 5f4:	00009414 	andeq	r9, r0, r4, lsl r4
 5f8:	00000020 	andeq	r0, r0, r0, lsr #32
 5fc:	84080e42 	strhi	r0, [r8], #-3650	; 0xfffff1be
 600:	00018e02 	andeq	r8, r1, r2, lsl #28
 604:	00000014 	andeq	r0, r0, r4, lsl r0
 608:	00000574 	andeq	r0, r0, r4, ror r5
 60c:	00009434 	andeq	r9, r0, r4, lsr r4
 610:	00000030 	andeq	r0, r0, r0, lsr r0
 614:	84080e42 	strhi	r0, [r8], #-3650	; 0xfffff1be
 618:	00018e02 	andeq	r8, r1, r2, lsl #28
 61c:	00000014 	andeq	r0, r0, r4, lsl r0
 620:	00000574 	andeq	r0, r0, r4, ror r5
 624:	00009464 	andeq	r9, r0, r4, ror #8
 628:	00000030 	andeq	r0, r0, r0, lsr r0
 62c:	84080e42 	strhi	r0, [r8], #-3650	; 0xfffff1be
 630:	00018e02 	andeq	r8, r1, r2, lsl #28
 634:	00000014 	andeq	r0, r0, r4, lsl r0
 638:	00000574 	andeq	r0, r0, r4, ror r5
 63c:	00009494 	muleq	r0, r4, r4
 640:	00000010 	andeq	r0, r0, r0, lsl r0
 644:	84080e42 	strhi	r0, [r8], #-3650	; 0xfffff1be
 648:	00018e02 	andeq	r8, r1, r2, lsl #28
 64c:	00000014 	andeq	r0, r0, r4, lsl r0
 650:	00000574 	andeq	r0, r0, r4, ror r5
 654:	000094a4 	andeq	r9, r0, r4, lsr #9
 658:	00000020 	andeq	r0, r0, r0, lsr #32
 65c:	84080e42 	strhi	r0, [r8], #-3650	; 0xfffff1be
 660:	00018e02 	andeq	r8, r1, r2, lsl #28
 664:	00000014 	andeq	r0, r0, r4, lsl r0
 668:	00000574 	andeq	r0, r0, r4, ror r5
 66c:	000094c4 	andeq	r9, r0, r4, asr #9
 670:	00000014 	andeq	r0, r0, r4, lsl r0
 674:	84080e42 	strhi	r0, [r8], #-3650	; 0xfffff1be
 678:	00018e02 	andeq	r8, r1, r2, lsl #28
 67c:	00000014 	andeq	r0, r0, r4, lsl r0
 680:	00000574 	andeq	r0, r0, r4, ror r5
 684:	000094d8 	ldrdeq	r9, [r0], -r8
 688:	00000024 	andeq	r0, r0, r4, lsr #32
 68c:	84080e42 	strhi	r0, [r8], #-3650	; 0xfffff1be
 690:	00018e02 	andeq	r8, r1, r2, lsl #28
 694:	0000000c 	andeq	r0, r0, ip
 698:	ffffffff 			; <UNDEFINED> instruction: 0xffffffff
 69c:	7c020001 	stcvc	0, cr0, [r2], {1}
 6a0:	000d0c0e 	andeq	r0, sp, lr, lsl #24
 6a4:	0000000c 	andeq	r0, r0, ip
 6a8:	00000694 	muleq	r0, r4, r6
 6ac:	000094fc 	strdeq	r9, [r0], -ip
 6b0:	00000010 	andeq	r0, r0, r0, lsl r0
 6b4:	0000000c 	andeq	r0, r0, ip
 6b8:	00000694 	muleq	r0, r4, r6
 6bc:	0000950c 	andeq	r9, r0, ip, lsl #10
 6c0:	00000010 	andeq	r0, r0, r0, lsl r0
 6c4:	0000000c 	andeq	r0, r0, ip
 6c8:	00000694 	muleq	r0, r4, r6
 6cc:	0000951c 	andeq	r9, r0, ip, lsl r5
 6d0:	00000010 	andeq	r0, r0, r0, lsl r0
 6d4:	0000001c 	andeq	r0, r0, ip, lsl r0
 6d8:	00000694 	muleq	r0, r4, r6
 6dc:	0000952c 	andeq	r9, r0, ip, lsr #10
 6e0:	0000009c 	muleq	r0, ip, r0
 6e4:	8e040e42 	cdphi	14, 0, cr0, cr4, cr2, {2}
 6e8:	100e4201 	andne	r4, lr, r1, lsl #4
 6ec:	040e0a58 	streq	r0, [lr], #-2648	; 0xfffff5a8
 6f0:	00000b42 	andeq	r0, r0, r2, asr #22
 6f4:	00000014 	andeq	r0, r0, r4, lsl r0
 6f8:	00000694 	muleq	r0, r4, r6
 6fc:	000095c8 	andeq	r9, r0, r8, asr #11
 700:	00000058 	andeq	r0, r0, r8, asr r0
 704:	84080e42 	strhi	r0, [r8], #-3650	; 0xfffff1be
 708:	00018e02 	andeq	r8, r1, r2, lsl #28
 70c:	0000001c 	andeq	r0, r0, ip, lsl r0
 710:	00000694 	muleq	r0, r4, r6
 714:	00009620 	andeq	r9, r0, r0, lsr #12
 718:	00000098 	muleq	r0, r8, r0
 71c:	8e040e42 	cdphi	14, 0, cr0, cr4, cr2, {2}
 720:	100e4201 	andne	r4, lr, r1, lsl #4
 724:	040e0a58 	streq	r0, [lr], #-2648	; 0xfffff5a8
 728:	00000b42 	andeq	r0, r0, r2, asr #22
 72c:	00000020 	andeq	r0, r0, r0, lsr #32
 730:	00000694 	muleq	r0, r4, r6
 734:	000096b8 			; <UNDEFINED> instruction: 0x000096b8
 738:	00000064 	andeq	r0, r0, r4, rrx
 73c:	840c0e42 	strhi	r0, [ip], #-3650	; 0xfffff1be
 740:	8e028503 	cfsh32hi	mvfx8, mvfx2, #3
 744:	180e4201 	stmdane	lr, {r0, r9, lr}
 748:	0c0e0a54 			; <UNDEFINED> instruction: 0x0c0e0a54
 74c:	00000b42 	andeq	r0, r0, r2, asr #22
 750:	0000001c 	andeq	r0, r0, ip, lsl r0
 754:	00000694 	muleq	r0, r4, r6
 758:	0000971c 	andeq	r9, r0, ip, lsl r7
 75c:	00000118 	andeq	r0, r0, r8, lsl r1
 760:	8e040e42 	cdphi	14, 0, cr0, cr4, cr2, {2}
 764:	100e4201 	andne	r4, lr, r1, lsl #4
 768:	040e0a6c 	streq	r0, [lr], #-2668	; 0xfffff594
 76c:	00000b42 	andeq	r0, r0, r2, asr #22
 770:	0000000c 	andeq	r0, r0, ip
 774:	00000694 	muleq	r0, r4, r6
 778:	00009834 	andeq	r9, r0, r4, lsr r8
 77c:	00000004 	andeq	r0, r0, r4
 780:	0000000c 	andeq	r0, r0, ip
 784:	00000694 	muleq	r0, r4, r6
 788:	00009838 	andeq	r9, r0, r8, lsr r8
 78c:	00000014 	andeq	r0, r0, r4, lsl r0
 790:	00000014 	andeq	r0, r0, r4, lsl r0
 794:	00000694 	muleq	r0, r4, r6
 798:	0000984c 	andeq	r9, r0, ip, asr #16
 79c:	00000060 	andeq	r0, r0, r0, rrx
 7a0:	8e040e58 	mcrhi	14, 0, r0, cr4, cr8, {2}
 7a4:	100e4201 	andne	r4, lr, r1, lsl #4
 7a8:	0000000c 	andeq	r0, r0, ip
 7ac:	ffffffff 			; <UNDEFINED> instruction: 0xffffffff
 7b0:	7c020001 	stcvc	0, cr0, [r2], {1}
 7b4:	000d0c0e 	andeq	r0, sp, lr, lsl #24
 7b8:	00000014 	andeq	r0, r0, r4, lsl r0
 7bc:	000007a8 	andeq	r0, r0, r8, lsr #15
 7c0:	000098ac 	andeq	r9, r0, ip, lsr #17
 7c4:	00000014 	andeq	r0, r0, r4, lsl r0
 7c8:	84080e42 	strhi	r0, [r8], #-3650	; 0xfffff1be
 7cc:	00018e02 	andeq	r8, r1, r2, lsl #28
 7d0:	0000000c 	andeq	r0, r0, ip
 7d4:	000007a8 	andeq	r0, r0, r8, lsr #15
 7d8:	000098c0 	andeq	r9, r0, r0, asr #17
 7dc:	00000018 	andeq	r0, r0, r8, lsl r0
 7e0:	0000000c 	andeq	r0, r0, ip
 7e4:	000007a8 	andeq	r0, r0, r8, lsr #15
 7e8:	000098d8 	ldrdeq	r9, [r0], -r8
 7ec:	00000010 	andeq	r0, r0, r0, lsl r0
 7f0:	0000000c 	andeq	r0, r0, ip
 7f4:	ffffffff 			; <UNDEFINED> instruction: 0xffffffff
 7f8:	7c020001 	stcvc	0, cr0, [r2], {1}
 7fc:	000d0c0e 	andeq	r0, sp, lr, lsl #24
 800:	0000000c 	andeq	r0, r0, ip
 804:	000007f0 	strdeq	r0, [r0], -r0	; <UNPREDICTABLE>
 808:	000098e8 	andeq	r9, r0, r8, ror #17
 80c:	00000034 	andeq	r0, r0, r4, lsr r0
 810:	0000000c 	andeq	r0, r0, ip
 814:	ffffffff 			; <UNDEFINED> instruction: 0xffffffff
 818:	7c020001 	stcvc	0, cr0, [r2], {1}
 81c:	000d0c0e 	andeq	r0, sp, lr, lsl #24
 820:	0000000c 	andeq	r0, r0, ip
 824:	00000810 	andeq	r0, r0, r0, lsl r8
 828:	0000991c 	andeq	r9, r0, ip, lsl r9
 82c:	0000002c 	andeq	r0, r0, ip, lsr #32
 830:	0000000c 	andeq	r0, r0, ip
 834:	ffffffff 			; <UNDEFINED> instruction: 0xffffffff
 838:	7c020001 	stcvc	0, cr0, [r2], {1}
 83c:	000d0c0e 	andeq	r0, sp, lr, lsl #24
 840:	0000000c 	andeq	r0, r0, ip
 844:	00000830 	andeq	r0, r0, r0, lsr r8
 848:	00009948 	andeq	r9, r0, r8, asr #18
 84c:	00000020 	andeq	r0, r0, r0, lsr #32
 850:	0000000c 	andeq	r0, r0, ip
 854:	ffffffff 			; <UNDEFINED> instruction: 0xffffffff
 858:	7c020001 	stcvc	0, cr0, [r2], {1}
 85c:	000d0c0e 	andeq	r0, sp, lr, lsl #24
 860:	0000000c 	andeq	r0, r0, ip
 864:	00000850 	andeq	r0, r0, r0, asr r8
 868:	00009968 	andeq	r9, r0, r8, ror #18
 86c:	0000002c 	andeq	r0, r0, ip, lsr #32
 870:	0000000c 	andeq	r0, r0, ip
 874:	ffffffff 			; <UNDEFINED> instruction: 0xffffffff
 878:	7c020001 	stcvc	0, cr0, [r2], {1}
 87c:	000d0c0e 	andeq	r0, sp, lr, lsl #24
 880:	0000000c 	andeq	r0, r0, ip
 884:	00000870 	andeq	r0, r0, r0, ror r8
 888:	00009994 	muleq	r0, r4, r9
 88c:	00000004 	andeq	r0, r0, r4
 890:	0000000c 	andeq	r0, r0, ip
 894:	ffffffff 			; <UNDEFINED> instruction: 0xffffffff
 898:	7c020001 	stcvc	0, cr0, [r2], {1}
 89c:	000d0c0e 	andeq	r0, sp, lr, lsl #24
 8a0:	00000018 	andeq	r0, r0, r8, lsl r0
 8a4:	00000890 	muleq	r0, r0, r8
 8a8:	000099b0 			; <UNDEFINED> instruction: 0x000099b0
 8ac:	00000064 	andeq	r0, r0, r4, rrx
 8b0:	84100e46 	ldrhi	r0, [r0], #-3654	; 0xfffff1ba
 8b4:	86038504 	strhi	r8, [r3], -r4, lsl #10
 8b8:	00018e02 	andeq	r8, r1, r2, lsl #28
 8bc:	00000014 	andeq	r0, r0, r4, lsl r0
 8c0:	00000890 	muleq	r0, r0, r8
 8c4:	00009a14 	andeq	r9, r0, r4, lsl sl
 8c8:	00000010 	andeq	r0, r0, r0, lsl r0
 8cc:	84080e42 	strhi	r0, [r8], #-3650	; 0xfffff1be
 8d0:	00018e02 	andeq	r8, r1, r2, lsl #28
 8d4:	00000014 	andeq	r0, r0, r4, lsl r0
 8d8:	00000890 	muleq	r0, r0, r8
 8dc:	00009a24 	andeq	r9, r0, r4, lsr #20
 8e0:	00000024 	andeq	r0, r0, r4, lsr #32
 8e4:	84080e46 	strhi	r0, [r8], #-3654	; 0xfffff1ba
 8e8:	00018e02 	andeq	r8, r1, r2, lsl #28
 8ec:	00000014 	andeq	r0, r0, r4, lsl r0
 8f0:	00000890 	muleq	r0, r0, r8
 8f4:	00009a48 	andeq	r9, r0, r8, asr #20
 8f8:	00000024 	andeq	r0, r0, r4, lsr #32
 8fc:	84080e46 	strhi	r0, [r8], #-3654	; 0xfffff1ba
 900:	00018e02 	andeq	r8, r1, r2, lsl #28
 904:	00000014 	andeq	r0, r0, r4, lsl r0
 908:	00000890 	muleq	r0, r0, r8
 90c:	00009a6c 	andeq	r9, r0, ip, ror #20
 910:	00000010 	andeq	r0, r0, r0, lsl r0
 914:	84080e42 	strhi	r0, [r8], #-3650	; 0xfffff1be
 918:	00018e02 	andeq	r8, r1, r2, lsl #28
 91c:	00000014 	andeq	r0, r0, r4, lsl r0
 920:	00000890 	muleq	r0, r0, r8
 924:	00009a7c 	andeq	r9, r0, ip, ror sl
 928:	0000001c 	andeq	r0, r0, ip, lsl r0
 92c:	84080e42 	strhi	r0, [r8], #-3650	; 0xfffff1be
 930:	00018e02 	andeq	r8, r1, r2, lsl #28
 934:	00000018 	andeq	r0, r0, r8, lsl r0
 938:	00000890 	muleq	r0, r0, r8
 93c:	00009a98 	muleq	r0, r8, sl
 940:	00000034 	andeq	r0, r0, r4, lsr r0
 944:	84080e46 	strhi	r0, [r8], #-3654	; 0xfffff1ba
 948:	4e018e02 	cdpmi	14, 0, cr8, cr1, cr2, {0}
 94c:	cec4000e 	cdpgt	0, 12, cr0, cr4, cr14, {0}

Disassembly of section .debug_ranges:

00000000 <.debug_ranges>:
   0:	00000010 	andeq	r0, r0, r0, lsl r0
   4:	00000028 	andeq	r0, r0, r8, lsr #32
   8:	00000040 	andeq	r0, r0, r0, asr #32
   c:	00000074 	andeq	r0, r0, r4, ror r0
	...
  18:	00000110 	andeq	r0, r0, r0, lsl r1
  1c:	00000114 	andeq	r0, r0, r4, lsl r1
  20:	00000174 	andeq	r0, r0, r4, ror r1
  24:	000001b8 			; <UNDEFINED> instruction: 0x000001b8
	...
  30:	00000174 	andeq	r0, r0, r4, ror r1
  34:	0000018c 	andeq	r0, r0, ip, lsl #3
  38:	00000198 	muleq	r0, r8, r1
  3c:	000001b8 			; <UNDEFINED> instruction: 0x000001b8
	...
  48:	00009208 	andeq	r9, r0, r8, lsl #4
  4c:	00009288 	andeq	r9, r0, r8, lsl #5
	...
  58:	00000134 	andeq	r0, r0, r4, lsr r1
  5c:	00000134 	andeq	r0, r0, r4, lsr r1
  60:	00000134 	andeq	r0, r0, r4, lsr r1
  64:	0000013c 	andeq	r0, r0, ip, lsr r1
	...
  70:	0000024c 	andeq	r0, r0, ip, asr #4
  74:	00000264 	andeq	r0, r0, r4, ror #4
  78:	000002c8 	andeq	r0, r0, r8, asr #5
  7c:	000002e8 	andeq	r0, r0, r8, ror #5
	...
  88:	00009968 	andeq	r9, r0, r8, ror #18
  8c:	00009994 	muleq	r0, r4, r9
	...
