
tests/part2-test4.elf:     file format elf32-littlearm


Disassembly of section .text:

00008000 <__code_start__>:
    8000:	e3a00013 	mov	r0, #19, 0
    8004:	e3800080 	orr	r0, r0, #128, 0	; 0x80
    8008:	e129f000 	msr	CPSR_fc, r0
    800c:	e3a01000 	mov	r1, #0, 0
    8010:	ee071f95 	mcr	15, 0, r1, cr7, cr5, {4}
    8014:	e3a0d302 	mov	sp, #134217728	; 0x8000000
    8018:	e3a0b000 	mov	fp, #0, 0
    801c:	eb000510 	bl	9464 <_cstart>
    8020:	eb00052a 	bl	94d0 <rpi_reboot>

00008024 <PUT32>:
    8024:	e5801000 	str	r1, [r0]
    8028:	e12fff1e 	bx	lr

0000802c <GET32>:
    802c:	e5900000 	ldr	r0, [r0]
    8030:	e12fff1e 	bx	lr

00008034 <BRANCHTO>:
    8034:	e12fff10 	bx	r0

00008038 <test>:
    8038:	e92d4070 	push	{r4, r5, r6, lr}
    803c:	e24dd018 	sub	sp, sp, #24, 0
    8040:	e3a06000 	mov	r6, #0, 0
    8044:	e1a05006 	mov	r5, r6
    8048:	ea000009 	b	8074 <test+0x3c>
    804c:	e59f3098 	ldr	r3, [pc, #152]	; 80ec <test+0xb4>
    8050:	e58d3000 	str	r3, [sp]
    8054:	e3a03014 	mov	r3, #20, 0
    8058:	e59f2090 	ldr	r2, [pc, #144]	; 80f0 <test+0xb8>
    805c:	e59f1090 	ldr	r1, [pc, #144]	; 80f4 <test+0xbc>
    8060:	e59f0090 	ldr	r0, [pc, #144]	; 80f8 <test+0xc0>
    8064:	eb000300 	bl	8c6c <printk>
    8068:	eb0004f2 	bl	9438 <clean_reboot>
    806c:	e2866001 	add	r6, r6, #1, 0
    8070:	e1a05004 	mov	r5, r4
    8074:	e3560063 	cmp	r6, #99, 0	; 0x63
    8078:	ca000017 	bgt	80dc <test+0xa4>
    807c:	e59f3070 	ldr	r3, [pc, #112]	; 80f4 <test+0xbc>
    8080:	e58d300c 	str	r3, [sp, #12]
    8084:	e59f3064 	ldr	r3, [pc, #100]	; 80f0 <test+0xb8>
    8088:	e58d3010 	str	r3, [sp, #16]
    808c:	e3a03010 	mov	r3, #16, 0
    8090:	e58d3014 	str	r3, [sp, #20]
    8094:	e28d3018 	add	r3, sp, #24, 0
    8098:	e913000e 	ldmdb	r3, {r1, r2, r3}
    809c:	e3a0000c 	mov	r0, #12, 0
    80a0:	eb0000e3 	bl	8434 <ckalloc>
    80a4:	e1a04000 	mov	r4, r0
    80a8:	e3a0200c 	mov	r2, #12, 0
    80ac:	e3a01000 	mov	r1, #0, 0
    80b0:	eb0002e7 	bl	8c54 <memset>
    80b4:	e3a03000 	mov	r3, #0, 0
    80b8:	e5843000 	str	r3, [r4]
    80bc:	e1550003 	cmp	r5, r3
    80c0:	0affffe9 	beq	806c <test+0x34>
    80c4:	e5953008 	ldr	r3, [r5, #8]
    80c8:	e3530000 	cmp	r3, #0, 0
    80cc:	1affffde 	bne	804c <test+0x14>
    80d0:	e5854008 	str	r4, [r5, #8]
    80d4:	e5845004 	str	r5, [r4, #4]
    80d8:	eaffffe3 	b	806c <test+0x34>
    80dc:	eb00022c 	bl	8994 <check_no_leak>
    80e0:	e1a00005 	mov	r0, r5
    80e4:	e28dd018 	add	sp, sp, #24, 0
    80e8:	e8bd8070 	pop	{r4, r5, r6, pc}
    80ec:	00009d90 	muleq	r0, r0, sp
    80f0:	00009de8 	andeq	r9, r0, r8, ror #27
    80f4:	00009d68 	andeq	r9, r0, r8, ror #26
    80f8:	00009d7c 	andeq	r9, r0, ip, ror sp

000080fc <notmain>:
    80fc:	e92d4010 	push	{r4, lr}
    8100:	e59f0014 	ldr	r0, [pc, #20]	; 811c <notmain+0x20>
    8104:	eb0002d8 	bl	8c6c <printk>
    8108:	ebffffca 	bl	8038 <test>
    810c:	e1a01000 	mov	r1, r0
    8110:	e59f0008 	ldr	r0, [pc, #8]	; 8120 <notmain+0x24>
    8114:	eb0002d4 	bl	8c6c <printk>
    8118:	e8bd8010 	pop	{r4, pc}
    811c:	00009d9c 	muleq	r0, ip, sp
    8120:	00009dd8 	ldrdeq	r9, [r0], -r8

00008124 <list_append>:
    8124:	e59f3058 	ldr	r3, [pc, #88]	; 8184 <list_append+0x60>
    8128:	e5933000 	ldr	r3, [r3]
    812c:	e3530000 	cmp	r3, #0, 0
    8130:	0a000005 	beq	814c <list_append+0x28>
    8134:	e3500000 	cmp	r0, #0, 0
    8138:	0a000007 	beq	815c <list_append+0x38>
    813c:	e59f2040 	ldr	r2, [pc, #64]	; 8184 <list_append+0x60>
    8140:	e5821000 	str	r1, [r2]
    8144:	e5831000 	str	r1, [r3]
    8148:	e12fff1e 	bx	lr
    814c:	e59f3030 	ldr	r3, [pc, #48]	; 8184 <list_append+0x60>
    8150:	e5831004 	str	r1, [r3, #4]
    8154:	e5831000 	str	r1, [r3]
    8158:	e12fff1e 	bx	lr
    815c:	e52de004 	push	{lr}		; (str lr, [sp, #-4]!)
    8160:	e24dd00c 	sub	sp, sp, #12, 0
    8164:	e59f301c 	ldr	r3, [pc, #28]	; 8188 <list_append+0x64>
    8168:	e58d3000 	str	r3, [sp]
    816c:	e3a03025 	mov	r3, #37, 0	; 0x25
    8170:	e59f2014 	ldr	r2, [pc, #20]	; 818c <list_append+0x68>
    8174:	e59f1014 	ldr	r1, [pc, #20]	; 8190 <list_append+0x6c>
    8178:	e59f0014 	ldr	r0, [pc, #20]	; 8194 <list_append+0x70>
    817c:	eb0002ba 	bl	8c6c <printk>
    8180:	eb0004ac 	bl	9438 <clean_reboot>
    8184:	0000a5a8 	andeq	sl, r0, r8, lsr #11
    8188:	00009dfc 	strdeq	r9, [r0], -ip
    818c:	00009ed8 	ldrdeq	r9, [r0], -r8
    8190:	00009df0 	strdeq	r9, [r0], -r0
    8194:	00009d7c 	andeq	r9, r0, ip, ror sp

00008198 <ck_first_hdr>:
    8198:	e59f3004 	ldr	r3, [pc, #4]	; 81a4 <ck_first_hdr+0xc>
    819c:	e5930004 	ldr	r0, [r3, #4]
    81a0:	e12fff1e 	bx	lr
    81a4:	0000a5a8 	andeq	sl, r0, r8, lsr #11

000081a8 <ck_next_hdr>:
    81a8:	e3500000 	cmp	r0, #0, 0
    81ac:	012fff1e 	bxeq	lr
    81b0:	e5900000 	ldr	r0, [r0]
    81b4:	e12fff1e 	bx	lr

000081b8 <list_remove>:
    81b8:	e92d4030 	push	{r4, r5, lr}
    81bc:	e24dd00c 	sub	sp, sp, #12, 0
    81c0:	e3500000 	cmp	r0, #0, 0
    81c4:	0a00000c 	beq	81fc <list_remove+0x44>
    81c8:	e1a04001 	mov	r4, r1
    81cc:	e1500001 	cmp	r0, r1
    81d0:	0a000007 	beq	81f4 <list_remove+0x3c>
    81d4:	e1a05000 	mov	r5, r0
    81d8:	ebfffff2 	bl	81a8 <ck_next_hdr>
    81dc:	e3500000 	cmp	r0, #0, 0
    81e0:	0a00000d 	beq	821c <list_remove+0x64>
    81e4:	e1540000 	cmp	r4, r0
    81e8:	1afffff9 	bne	81d4 <list_remove+0x1c>
    81ec:	e5903000 	ldr	r3, [r0]
    81f0:	e5853000 	str	r3, [r5]
    81f4:	e28dd00c 	add	sp, sp, #12, 0
    81f8:	e8bd8030 	pop	{r4, r5, pc}
    81fc:	e59f3034 	ldr	r3, [pc, #52]	; 8238 <list_remove+0x80>
    8200:	e58d3000 	str	r3, [sp]
    8204:	e3a0300b 	mov	r3, #11, 0
    8208:	e59f202c 	ldr	r2, [pc, #44]	; 823c <list_remove+0x84>
    820c:	e59f102c 	ldr	r1, [pc, #44]	; 8240 <list_remove+0x88>
    8210:	e59f002c 	ldr	r0, [pc, #44]	; 8244 <list_remove+0x8c>
    8214:	eb000294 	bl	8c6c <printk>
    8218:	eb000486 	bl	9438 <clean_reboot>
    821c:	e58d4000 	str	r4, [sp]
    8220:	e3a0301b 	mov	r3, #27, 0
    8224:	e59f2010 	ldr	r2, [pc, #16]	; 823c <list_remove+0x84>
    8228:	e59f1010 	ldr	r1, [pc, #16]	; 8240 <list_remove+0x88>
    822c:	e59f0014 	ldr	r0, [pc, #20]	; 8248 <list_remove+0x90>
    8230:	eb00028d 	bl	8c6c <printk>
    8234:	eb00047f 	bl	9438 <clean_reboot>
    8238:	00009dfc 	strdeq	r9, [r0], -ip
    823c:	00009ee4 	andeq	r9, r0, r4, ror #29
    8240:	00009df0 	strdeq	r9, [r0], -r0
    8244:	00009d7c 	andeq	r9, r0, ip, ror sp
    8248:	00009e00 	andeq	r9, r0, r0, lsl #28

0000824c <ck_hdr_start>:
    824c:	e2800024 	add	r0, r0, #36, 0	; 0x24
    8250:	e12fff1e 	bx	lr

00008254 <ck_hdr_end>:
    8254:	e92d4010 	push	{r4, lr}
    8258:	e1a04000 	mov	r4, r0
    825c:	ebfffffa 	bl	824c <ck_hdr_start>
    8260:	e5943004 	ldr	r3, [r4, #4]
    8264:	e0800003 	add	r0, r0, r3
    8268:	e8bd8010 	pop	{r4, pc}

0000826c <kr_first_hdr>:
    826c:	e92d4010 	push	{r4, lr}
    8270:	ebffffc8 	bl	8198 <ck_first_hdr>
    8274:	e2800024 	add	r0, r0, #36, 0	; 0x24
    8278:	e8bd8010 	pop	{r4, pc}

0000827c <kr_next_hdr>:
    827c:	e3500000 	cmp	r0, #0, 0
    8280:	012fff1e 	bxeq	lr
    8284:	e5900000 	ldr	r0, [r0]
    8288:	e2800024 	add	r0, r0, #36, 0	; 0x24
    828c:	e12fff1e 	bx	lr

00008290 <ck_ptr_in_block>:
    8290:	e5903004 	ldr	r3, [r0, #4]
    8294:	e2833024 	add	r3, r3, #36, 0	; 0x24
    8298:	e0803003 	add	r3, r0, r3
    829c:	e1530001 	cmp	r3, r1
    82a0:	3a000004 	bcc	82b8 <ck_ptr_in_block+0x28>
    82a4:	e2800024 	add	r0, r0, #36, 0	; 0x24
    82a8:	e1500001 	cmp	r0, r1
    82ac:	9a000003 	bls	82c0 <ck_ptr_in_block+0x30>
    82b0:	e3a00000 	mov	r0, #0, 0
    82b4:	e12fff1e 	bx	lr
    82b8:	e3a00000 	mov	r0, #0, 0
    82bc:	e12fff1e 	bx	lr
    82c0:	e3a00001 	mov	r0, #1, 0
    82c4:	e12fff1e 	bx	lr

000082c8 <ck_ptr_is_alloced>:
    82c8:	e92d4070 	push	{r4, r5, r6, lr}
    82cc:	e1a05000 	mov	r5, r0
    82d0:	ebffffb0 	bl	8198 <ck_first_hdr>
    82d4:	e1a04000 	mov	r4, r0
    82d8:	ea000002 	b	82e8 <ck_ptr_is_alloced+0x20>
    82dc:	e1a00004 	mov	r0, r4
    82e0:	ebffffb0 	bl	81a8 <ck_next_hdr>
    82e4:	e1a04000 	mov	r4, r0
    82e8:	e3540000 	cmp	r4, #0, 0
    82ec:	0a000007 	beq	8310 <ck_ptr_is_alloced+0x48>
    82f0:	e1a01005 	mov	r1, r5
    82f4:	e1a00004 	mov	r0, r4
    82f8:	ebffffe4 	bl	8290 <ck_ptr_in_block>
    82fc:	e3500000 	cmp	r0, #0, 0
    8300:	0afffff5 	beq	82dc <ck_ptr_is_alloced+0x14>
    8304:	e5943008 	ldr	r3, [r4, #8]
    8308:	e353000b 	cmp	r3, #11, 0
    830c:	1afffff2 	bne	82dc <ck_ptr_is_alloced+0x14>
    8310:	e1a00004 	mov	r0, r4
    8314:	e8bd8070 	pop	{r4, r5, r6, pc}

00008318 <ckfree>:
    8318:	e92d4030 	push	{r4, r5, lr}
    831c:	e24dd01c 	sub	sp, sp, #28, 0
    8320:	e1a04000 	mov	r4, r0
    8324:	e28d0018 	add	r0, sp, #24, 0
    8328:	e900000e 	stmdb	r0, {r1, r2, r3}
    832c:	e514301c 	ldr	r3, [r4, #-28]	; 0xffffffe4
    8330:	e353000b 	cmp	r3, #11, 0
    8334:	1a00001a 	bne	83a4 <ckfree+0x8c>
    8338:	e2445024 	sub	r5, r4, #36, 0	; 0x24
    833c:	e59d3014 	ldr	r3, [sp, #20]
    8340:	e59d2010 	ldr	r2, [sp, #16]
    8344:	e59d100c 	ldr	r1, [sp, #12]
    8348:	e59f00bc 	ldr	r0, [pc, #188]	; 840c <ckfree+0xf4>
    834c:	eb000246 	bl	8c6c <printk>
    8350:	e1a01004 	mov	r1, r4
    8354:	e59f00b4 	ldr	r0, [pc, #180]	; 8410 <ckfree+0xf8>
    8358:	eb000243 	bl	8c6c <printk>
    835c:	e1a00004 	mov	r0, r4
    8360:	ebffffd8 	bl	82c8 <ck_ptr_is_alloced>
    8364:	e3500000 	cmp	r0, #0, 0
    8368:	0a000017 	beq	83cc <ckfree+0xb4>
    836c:	e3a0300c 	mov	r3, #12, 0
    8370:	e504301c 	str	r3, [r4, #-28]	; 0xffffffe4
    8374:	e1a01005 	mov	r1, r5
    8378:	e59f3094 	ldr	r3, [pc, #148]	; 8414 <ckfree+0xfc>
    837c:	e5930004 	ldr	r0, [r3, #4]
    8380:	ebffff8c 	bl	81b8 <list_remove>
    8384:	e1a00004 	mov	r0, r4
    8388:	ebffffce 	bl	82c8 <ck_ptr_is_alloced>
    838c:	e3500000 	cmp	r0, #0, 0
    8390:	1a000015 	bne	83ec <ckfree+0xd4>
    8394:	e1a00005 	mov	r0, r5
    8398:	eb0001c2 	bl	8aa8 <kr_free>
    839c:	e28dd01c 	add	sp, sp, #28, 0
    83a0:	e8bd8030 	pop	{r4, r5, pc}
    83a4:	e59d3014 	ldr	r3, [sp, #20]
    83a8:	e59d2010 	ldr	r2, [sp, #16]
    83ac:	e59d100c 	ldr	r1, [sp, #12]
    83b0:	e59f0060 	ldr	r0, [pc, #96]	; 8418 <ckfree+0x100>
    83b4:	eb00022c 	bl	8c6c <printk>
    83b8:	e514201c 	ldr	r2, [r4, #-28]	; 0xffffffe4
    83bc:	e1a01004 	mov	r1, r4
    83c0:	e59f0054 	ldr	r0, [pc, #84]	; 841c <ckfree+0x104>
    83c4:	eb000228 	bl	8c6c <printk>
    83c8:	eb00041a 	bl	9438 <clean_reboot>
    83cc:	e59f304c 	ldr	r3, [pc, #76]	; 8420 <ckfree+0x108>
    83d0:	e58d3000 	str	r3, [sp]
    83d4:	e3a0306d 	mov	r3, #109, 0	; 0x6d
    83d8:	e59f2044 	ldr	r2, [pc, #68]	; 8424 <ckfree+0x10c>
    83dc:	e59f1044 	ldr	r1, [pc, #68]	; 8428 <ckfree+0x110>
    83e0:	e59f0044 	ldr	r0, [pc, #68]	; 842c <ckfree+0x114>
    83e4:	eb000220 	bl	8c6c <printk>
    83e8:	eb000412 	bl	9438 <clean_reboot>
    83ec:	e59f303c 	ldr	r3, [pc, #60]	; 8430 <ckfree+0x118>
    83f0:	e58d3000 	str	r3, [sp]
    83f4:	e3a03070 	mov	r3, #112, 0	; 0x70
    83f8:	e59f2024 	ldr	r2, [pc, #36]	; 8424 <ckfree+0x10c>
    83fc:	e59f1024 	ldr	r1, [pc, #36]	; 8428 <ckfree+0x110>
    8400:	e59f0024 	ldr	r0, [pc, #36]	; 842c <ckfree+0x114>
    8404:	eb000218 	bl	8c6c <printk>
    8408:	eb00040a 	bl	9438 <clean_reboot>
    840c:	00009e74 	andeq	r9, r0, r4, ror lr
    8410:	00009e80 	andeq	r9, r0, r0, lsl #29
    8414:	0000a5a8 	andeq	sl, r0, r8, lsr #11
    8418:	00009e2c 	andeq	r9, r0, ip, lsr #28
    841c:	00009e44 	andeq	r9, r0, r4, asr #28
    8420:	00009e8c 	andeq	r9, r0, ip, lsl #29
    8424:	00009ef0 	strdeq	r9, [r0], -r0
    8428:	00009df0 	strdeq	r9, [r0], -r0
    842c:	00009d7c 	andeq	r9, r0, ip, ror sp
    8430:	00009eac 	andeq	r9, r0, ip, lsr #29

00008434 <ckalloc>:
    8434:	e92d4070 	push	{r4, r5, r6, lr}
    8438:	e24dd010 	sub	sp, sp, #16, 0
    843c:	e1a06000 	mov	r6, r0
    8440:	e28d5004 	add	r5, sp, #4, 0
    8444:	e885000e 	stm	r5, {r1, r2, r3}
    8448:	e2800024 	add	r0, r0, #36, 0	; 0x24
    844c:	eb0001d5 	bl	8ba8 <kr_malloc>
    8450:	e1a04000 	mov	r4, r0
    8454:	e3a02024 	mov	r2, #36, 0	; 0x24
    8458:	e3a01000 	mov	r1, #0, 0
    845c:	eb0001fc 	bl	8c54 <memset>
    8460:	e5846004 	str	r6, [r4, #4]
    8464:	e3a0300b 	mov	r3, #11, 0
    8468:	e5843008 	str	r3, [r4, #8]
    846c:	e284300c 	add	r3, r4, #12, 0
    8470:	e8950007 	ldm	r5, {r0, r1, r2}
    8474:	e8830007 	stm	r3, {r0, r1, r2}
    8478:	e3a03000 	mov	r3, #0, 0
    847c:	e5843000 	str	r3, [r4]
    8480:	e1c432b0 	strh	r3, [r4, #32]
    8484:	e59d300c 	ldr	r3, [sp, #12]
    8488:	e59d2008 	ldr	r2, [sp, #8]
    848c:	e59d1004 	ldr	r1, [sp, #4]
    8490:	e59f002c 	ldr	r0, [pc, #44]	; 84c4 <ckalloc+0x90>
    8494:	eb0001f4 	bl	8c6c <printk>
    8498:	e2845024 	add	r5, r4, #36, 0	; 0x24
    849c:	e1a01005 	mov	r1, r5
    84a0:	e59f0020 	ldr	r0, [pc, #32]	; 84c8 <ckalloc+0x94>
    84a4:	eb0001f0 	bl	8c6c <printk>
    84a8:	e1a01004 	mov	r1, r4
    84ac:	e59f3018 	ldr	r3, [pc, #24]	; 84cc <ckalloc+0x98>
    84b0:	e5930004 	ldr	r0, [r3, #4]
    84b4:	ebffff1a 	bl	8124 <list_append>
    84b8:	e1a00005 	mov	r0, r5
    84bc:	e28dd010 	add	sp, sp, #16, 0
    84c0:	e8bd8070 	pop	{r4, r5, r6, pc}
    84c4:	00009e74 	andeq	r9, r0, r4, ror lr
    84c8:	00009ec8 	andeq	r9, r0, r8, asr #29
    84cc:	0000a5a8 	andeq	sl, r0, r8, lsr #11

000084d0 <in_heap>:
    84d0:	e59f3030 	ldr	r3, [pc, #48]	; 8508 <in_heap+0x38>
    84d4:	e5933000 	ldr	r3, [r3]
    84d8:	e1530000 	cmp	r3, r0
    84dc:	8a000005 	bhi	84f8 <in_heap+0x28>
    84e0:	e59f3020 	ldr	r3, [pc, #32]	; 8508 <in_heap+0x38>
    84e4:	e5933004 	ldr	r3, [r3, #4]
    84e8:	e1530000 	cmp	r3, r0
    84ec:	9a000003 	bls	8500 <in_heap+0x30>
    84f0:	e3a00001 	mov	r0, #1, 0
    84f4:	e12fff1e 	bx	lr
    84f8:	e3a00000 	mov	r0, #0, 0
    84fc:	e12fff1e 	bx	lr
    8500:	e3a00000 	mov	r0, #0, 0
    8504:	e12fff1e 	bx	lr
    8508:	0000a5b0 			; <UNDEFINED> instruction: 0x0000a5b0

0000850c <sweep_leak>:
    850c:	e92d41f0 	push	{r4, r5, r6, r7, r8, lr}
    8510:	e59f00d8 	ldr	r0, [pc, #216]	; 85f0 <sweep_leak+0xe4>
    8514:	eb0001d4 	bl	8c6c <printk>
    8518:	e59f00d4 	ldr	r0, [pc, #212]	; 85f4 <sweep_leak+0xe8>
    851c:	eb0001d2 	bl	8c6c <printk>
    8520:	ebffff1c 	bl	8198 <ck_first_hdr>
    8524:	e1a04000 	mov	r4, r0
    8528:	e3a06000 	mov	r6, #0, 0
    852c:	e1a07006 	mov	r7, r6
    8530:	e1a05006 	mov	r5, r6
    8534:	ea00000c 	b	856c <sweep_leak+0x60>
    8538:	e3530000 	cmp	r3, #0, 0
    853c:	1a000004 	bne	8554 <sweep_leak+0x48>
    8540:	e594301c 	ldr	r3, [r4, #28]
    8544:	e3530000 	cmp	r3, #0, 0
    8548:	02877001 	addeq	r7, r7, #1, 0
    854c:	03a03001 	moveq	r3, #1, 0
    8550:	01c432b2 	strheq	r3, [r4, #34]	; 0x22
    8554:	e1a01004 	mov	r1, r4
    8558:	e59f0098 	ldr	r0, [pc, #152]	; 85f8 <sweep_leak+0xec>
    855c:	eb0001c2 	bl	8c6c <printk>
    8560:	e1a00004 	mov	r0, r4
    8564:	ebffff0f 	bl	81a8 <ck_next_hdr>
    8568:	e1a04000 	mov	r4, r0
    856c:	e3540000 	cmp	r4, #0, 0
    8570:	0a00000e 	beq	85b0 <sweep_leak+0xa4>
    8574:	e2855001 	add	r5, r5, #1, 0
    8578:	e5943008 	ldr	r3, [r4, #8]
    857c:	e353000b 	cmp	r3, #11, 0
    8580:	1afffff6 	bne	8560 <sweep_leak+0x54>
    8584:	e5943020 	ldr	r3, [r4, #32]
    8588:	e3530000 	cmp	r3, #0, 0
    858c:	1afffff3 	bne	8560 <sweep_leak+0x54>
    8590:	e5943018 	ldr	r3, [r4, #24]
    8594:	e3530000 	cmp	r3, #0, 0
    8598:	1affffe6 	bne	8538 <sweep_leak+0x2c>
    859c:	e594201c 	ldr	r2, [r4, #28]
    85a0:	e3520000 	cmp	r2, #0, 0
    85a4:	0affffe3 	beq	8538 <sweep_leak+0x2c>
    85a8:	e2866001 	add	r6, r6, #1, 0
    85ac:	eaffffe8 	b	8554 <sweep_leak+0x48>
    85b0:	e1a01005 	mov	r1, r5
    85b4:	e59f0040 	ldr	r0, [pc, #64]	; 85fc <sweep_leak+0xf0>
    85b8:	eb0001ab 	bl	8c6c <printk>
    85bc:	e1973006 	orrs	r3, r7, r6
    85c0:	1a000005 	bne	85dc <sweep_leak+0xd0>
    85c4:	e59f0034 	ldr	r0, [pc, #52]	; 8600 <sweep_leak+0xf4>
    85c8:	eb0001a7 	bl	8c6c <printk>
    85cc:	e59f0030 	ldr	r0, [pc, #48]	; 8604 <sweep_leak+0xf8>
    85d0:	eb0001a5 	bl	8c6c <printk>
    85d4:	e0870006 	add	r0, r7, r6
    85d8:	e8bd81f0 	pop	{r4, r5, r6, r7, r8, pc}
    85dc:	e1a02006 	mov	r2, r6
    85e0:	e1a01007 	mov	r1, r7
    85e4:	e59f001c 	ldr	r0, [pc, #28]	; 8608 <sweep_leak+0xfc>
    85e8:	eb00019f 	bl	8c6c <printk>
    85ec:	eafffff6 	b	85cc <sweep_leak+0xc0>
    85f0:	00009ef8 	strdeq	r9, [r0], -r8
    85f4:	00009f34 	andeq	r9, r0, r4, lsr pc
    85f8:	00009f4c 	andeq	r9, r0, ip, asr #30
    85fc:	00009f6c 	andeq	r9, r0, ip, ror #30
    8600:	00009f8c 	andeq	r9, r0, ip, lsl #31
    8604:	00009fe4 	andeq	r9, r0, r4, ror #31
    8608:	00009fb4 			; <UNDEFINED> instruction: 0x00009fb4

0000860c <sweep_free>:
    860c:	e92d41f0 	push	{r4, r5, r6, r7, r8, lr}
    8610:	e59f009c 	ldr	r0, [pc, #156]	; 86b4 <sweep_free+0xa8>
    8614:	eb000194 	bl	8c6c <printk>
    8618:	e59f0098 	ldr	r0, [pc, #152]	; 86b8 <sweep_free+0xac>
    861c:	eb000192 	bl	8c6c <printk>
    8620:	ebfffedc 	bl	8198 <ck_first_hdr>
    8624:	e1a04000 	mov	r4, r0
    8628:	e3a06000 	mov	r6, #0, 0
    862c:	e1a07006 	mov	r7, r6
    8630:	e1a05006 	mov	r5, r6
    8634:	ea000002 	b	8644 <sweep_free+0x38>
    8638:	e1a00004 	mov	r0, r4
    863c:	ebfffed9 	bl	81a8 <ck_next_hdr>
    8640:	e1a04000 	mov	r4, r0
    8644:	e3540000 	cmp	r4, #0, 0
    8648:	0a000012 	beq	8698 <sweep_free+0x8c>
    864c:	e2855001 	add	r5, r5, #1, 0
    8650:	e5943008 	ldr	r3, [r4, #8]
    8654:	e353000b 	cmp	r3, #11, 0
    8658:	1afffff6 	bne	8638 <sweep_free+0x2c>
    865c:	e1d432b0 	ldrh	r3, [r4, #32]
    8660:	e3530001 	cmp	r3, #1, 0
    8664:	0afffff3 	beq	8638 <sweep_free+0x2c>
    8668:	e1d432b2 	ldrh	r3, [r4, #34]	; 0x22
    866c:	e3530000 	cmp	r3, #0, 0
    8670:	1afffff0 	bne	8638 <sweep_free+0x2c>
    8674:	e3a0300c 	mov	r3, #12, 0
    8678:	e5843008 	str	r3, [r4, #8]
    867c:	e2877001 	add	r7, r7, #1, 0
    8680:	e5943004 	ldr	r3, [r4, #4]
    8684:	e0866003 	add	r6, r6, r3
    8688:	e1a01004 	mov	r1, r4
    868c:	e59f0028 	ldr	r0, [pc, #40]	; 86bc <sweep_free+0xb0>
    8690:	eb000175 	bl	8c6c <printk>
    8694:	eaffffe7 	b	8638 <sweep_free+0x2c>
    8698:	e1a03006 	mov	r3, r6
    869c:	e1a02007 	mov	r2, r7
    86a0:	e1a01005 	mov	r1, r5
    86a4:	e59f0014 	ldr	r0, [pc, #20]	; 86c0 <sweep_free+0xb4>
    86a8:	eb00016f 	bl	8c6c <printk>
    86ac:	e1a00006 	mov	r0, r6
    86b0:	e8bd81f0 	pop	{r4, r5, r6, r7, r8, pc}
    86b4:	00009ef8 	strdeq	r9, [r0], -r8
    86b8:	0000a020 	andeq	sl, r0, r0, lsr #32
    86bc:	0000a030 	andeq	sl, r0, r0, lsr r0
    86c0:	0000a05c 	andeq	sl, r0, ip, asr r0

000086c4 <is_ptr>:
    86c4:	e92d4010 	push	{r4, lr}
    86c8:	e1a04000 	mov	r4, r0
    86cc:	ebffff7f 	bl	84d0 <in_heap>
    86d0:	e3500000 	cmp	r0, #0, 0
    86d4:	0a000002 	beq	86e4 <is_ptr+0x20>
    86d8:	e1a00004 	mov	r0, r4
    86dc:	ebfffef9 	bl	82c8 <ck_ptr_is_alloced>
    86e0:	e8bd8010 	pop	{r4, pc}
    86e4:	e3a00000 	mov	r0, #0, 0
    86e8:	e8bd8010 	pop	{r4, pc}

000086ec <mark>:
    86ec:	e92d41f0 	push	{r4, r5, r6, r7, r8, lr}
    86f0:	e24dd008 	sub	sp, sp, #8, 0
    86f4:	e1500001 	cmp	r0, r1
    86f8:	2a000007 	bcs	871c <mark+0x30>
    86fc:	e1a07000 	mov	r7, r0
    8700:	e3100003 	tst	r0, #3, 0
    8704:	1a00000c 	bne	873c <mark+0x50>
    8708:	e2115003 	ands	r5, r1, #3, 0
    870c:	1a000012 	bne	875c <mark+0x70>
    8710:	e0411000 	sub	r1, r1, r0
    8714:	e1a06141 	asr	r6, r1, #2
    8718:	ea00001f 	b	879c <mark+0xb0>
    871c:	e59f30e4 	ldr	r3, [pc, #228]	; 8808 <mark+0x11c>
    8720:	e58d3000 	str	r3, [sp]
    8724:	e3a0304c 	mov	r3, #76, 0	; 0x4c
    8728:	e59f20dc 	ldr	r2, [pc, #220]	; 880c <mark+0x120>
    872c:	e59f10dc 	ldr	r1, [pc, #220]	; 8810 <mark+0x124>
    8730:	e59f00dc 	ldr	r0, [pc, #220]	; 8814 <mark+0x128>
    8734:	eb00014c 	bl	8c6c <printk>
    8738:	eb00033e 	bl	9438 <clean_reboot>
    873c:	e59f30d4 	ldr	r3, [pc, #212]	; 8818 <mark+0x12c>
    8740:	e58d3000 	str	r3, [sp]
    8744:	e3a0304e 	mov	r3, #78, 0	; 0x4e
    8748:	e59f20bc 	ldr	r2, [pc, #188]	; 880c <mark+0x120>
    874c:	e59f10bc 	ldr	r1, [pc, #188]	; 8810 <mark+0x124>
    8750:	e59f00bc 	ldr	r0, [pc, #188]	; 8814 <mark+0x128>
    8754:	eb000144 	bl	8c6c <printk>
    8758:	eb000336 	bl	9438 <clean_reboot>
    875c:	e59f30b8 	ldr	r3, [pc, #184]	; 881c <mark+0x130>
    8760:	e58d3000 	str	r3, [sp]
    8764:	e3a0304f 	mov	r3, #79, 0	; 0x4f
    8768:	e59f209c 	ldr	r2, [pc, #156]	; 880c <mark+0x120>
    876c:	e59f109c 	ldr	r1, [pc, #156]	; 8810 <mark+0x124>
    8770:	e59f009c 	ldr	r0, [pc, #156]	; 8814 <mark+0x128>
    8774:	eb00013c 	bl	8c6c <printk>
    8778:	eb00032e 	bl	9438 <clean_reboot>
    877c:	e7973008 	ldr	r3, [r7, r8]
    8780:	e1530004 	cmp	r3, r4
    8784:	0a000019 	beq	87f0 <mark+0x104>
    8788:	e2840024 	add	r0, r4, #36, 0	; 0x24
    878c:	e5941004 	ldr	r1, [r4, #4]
    8790:	e0801001 	add	r1, r0, r1
    8794:	ebffffd4 	bl	86ec <mark>
    8798:	e2855001 	add	r5, r5, #1, 0
    879c:	e1550006 	cmp	r5, r6
    87a0:	2a000016 	bcs	8800 <mark+0x114>
    87a4:	e1a08105 	lsl	r8, r5, #2
    87a8:	e7970105 	ldr	r0, [r7, r5, lsl #2]
    87ac:	ebffffc4 	bl	86c4 <is_ptr>
    87b0:	e2504000 	subs	r4, r0, #0, 0
    87b4:	0afffff7 	beq	8798 <mark+0xac>
    87b8:	e1d432b0 	ldrh	r3, [r4, #32]
    87bc:	e3530000 	cmp	r3, #0, 0
    87c0:	1afffff4 	bne	8798 <mark+0xac>
    87c4:	e3a03001 	mov	r3, #1, 0
    87c8:	e1c432b0 	strh	r3, [r4, #32]
    87cc:	e7971008 	ldr	r1, [r7, r8]
    87d0:	e1a00004 	mov	r0, r4
    87d4:	ebfffead 	bl	8290 <ck_ptr_in_block>
    87d8:	e3500000 	cmp	r0, #0, 0
    87dc:	0affffe6 	beq	877c <mark+0x90>
    87e0:	e594301c 	ldr	r3, [r4, #28]
    87e4:	e2833001 	add	r3, r3, #1, 0
    87e8:	e584301c 	str	r3, [r4, #28]
    87ec:	eaffffe5 	b	8788 <mark+0x9c>
    87f0:	e5943018 	ldr	r3, [r4, #24]
    87f4:	e2833001 	add	r3, r3, #1, 0
    87f8:	e5843018 	str	r3, [r4, #24]
    87fc:	eaffffe1 	b	8788 <mark+0x9c>
    8800:	e28dd008 	add	sp, sp, #8, 0
    8804:	e8bd81f0 	pop	{r4, r5, r6, r7, r8, pc}
    8808:	0000a098 	muleq	r0, r8, r0
    880c:	0000a1e0 	andeq	sl, r0, r0, ror #3
    8810:	0000a090 	muleq	r0, r0, r0
    8814:	00009d7c 	andeq	r9, r0, ip, ror sp
    8818:	0000a09c 	muleq	r0, ip, r0
    881c:	0000a0ac 	andeq	sl, r0, ip, lsr #1

00008820 <mark_all>:
    8820:	e52de004 	push	{lr}		; (str lr, [sp, #-4]!)
    8824:	e24dd044 	sub	sp, sp, #68, 0	; 0x44
    8828:	ebfffe5a 	bl	8198 <ck_first_hdr>
    882c:	e3500000 	cmp	r0, #0, 0
    8830:	0a000005 	beq	884c <mark_all+0x2c>
    8834:	e3a03000 	mov	r3, #0, 0
    8838:	e580301c 	str	r3, [r0, #28]
    883c:	e5803018 	str	r3, [r0, #24]
    8840:	e1c032b0 	strh	r3, [r0, #32]
    8844:	ebfffe57 	bl	81a8 <ck_next_hdr>
    8848:	eafffff7 	b	882c <mark_all+0xc>
    884c:	e1a0000d 	mov	r0, sp
    8850:	eb000083 	bl	8a64 <dump_regs>
    8854:	e3a03000 	mov	r3, #0, 0
    8858:	e58d3000 	str	r3, [sp]
    885c:	e58d3004 	str	r3, [sp, #4]
    8860:	e58d3008 	str	r3, [sp, #8]
    8864:	e58d300c 	str	r3, [sp, #12]
    8868:	e28d1040 	add	r1, sp, #64, 0	; 0x40
    886c:	e1a0000d 	mov	r0, sp
    8870:	ebffff9d 	bl	86ec <mark>
    8874:	e3a01302 	mov	r1, #134217728	; 0x8000000
    8878:	e59d0034 	ldr	r0, [sp, #52]	; 0x34
    887c:	ebffff9a 	bl	86ec <mark>
    8880:	e59f1018 	ldr	r1, [pc, #24]	; 88a0 <mark_all+0x80>
    8884:	e59f0018 	ldr	r0, [pc, #24]	; 88a4 <mark_all+0x84>
    8888:	ebffff97 	bl	86ec <mark>
    888c:	e59f1014 	ldr	r1, [pc, #20]	; 88a8 <mark_all+0x88>
    8890:	e59f0014 	ldr	r0, [pc, #20]	; 88ac <mark_all+0x8c>
    8894:	ebffff94 	bl	86ec <mark>
    8898:	e28dd044 	add	sp, sp, #68, 0	; 0x44
    889c:	e49df004 	pop	{pc}		; (ldr pc, [sp], #4)
    88a0:	0000a9d8 	ldrdeq	sl, [r0], -r8
    88a4:	0000a5a8 	andeq	sl, r0, r8, lsr #11
    88a8:	0000a5a4 	andeq	sl, r0, r4, lsr #11
    88ac:	0000a590 	muleq	r0, r0, r5

000088b0 <sbrk>:
    88b0:	e92d4030 	push	{r4, r5, lr}
    88b4:	e24dd00c 	sub	sp, sp, #12, 0
    88b8:	e1a04000 	mov	r4, r0
    88bc:	e59f0084 	ldr	r0, [pc, #132]	; 8948 <sbrk+0x98>
    88c0:	eb0000e9 	bl	8c6c <printk>
    88c4:	e3540000 	cmp	r4, #0, 0
    88c8:	da000010 	ble	8910 <sbrk+0x60>
    88cc:	e59f3078 	ldr	r3, [pc, #120]	; 894c <sbrk+0x9c>
    88d0:	e5933008 	ldr	r3, [r3, #8]
    88d4:	e3530000 	cmp	r3, #0, 0
    88d8:	1a000014 	bne	8930 <sbrk+0x80>
    88dc:	e59f5068 	ldr	r5, [pc, #104]	; 894c <sbrk+0x9c>
    88e0:	e3a00601 	mov	r0, #1048576	; 0x100000
    88e4:	e5850000 	str	r0, [r5]
    88e8:	e3a03602 	mov	r3, #2097152	; 0x200000
    88ec:	e5853004 	str	r3, [r5, #4]
    88f0:	e1a01000 	mov	r1, r0
    88f4:	eb0003b3 	bl	97c8 <kmalloc_init_set_start>
    88f8:	e3a03001 	mov	r3, #1, 0
    88fc:	e5853008 	str	r3, [r5, #8]
    8900:	e1a00004 	mov	r0, r4
    8904:	eb000412 	bl	9954 <kmalloc>
    8908:	e28dd00c 	add	sp, sp, #12, 0
    890c:	e8bd8030 	pop	{r4, r5, pc}
    8910:	e59f3038 	ldr	r3, [pc, #56]	; 8950 <sbrk+0xa0>
    8914:	e58d3000 	str	r3, [sp]
    8918:	e3a03015 	mov	r3, #21, 0
    891c:	e59f2030 	ldr	r2, [pc, #48]	; 8954 <sbrk+0xa4>
    8920:	e59f1030 	ldr	r1, [pc, #48]	; 8958 <sbrk+0xa8>
    8924:	e59f0030 	ldr	r0, [pc, #48]	; 895c <sbrk+0xac>
    8928:	eb0000cf 	bl	8c6c <printk>
    892c:	eb0002c1 	bl	9438 <clean_reboot>
    8930:	e3a03017 	mov	r3, #23, 0
    8934:	e59f2018 	ldr	r2, [pc, #24]	; 8954 <sbrk+0xa4>
    8938:	e59f1018 	ldr	r1, [pc, #24]	; 8958 <sbrk+0xa8>
    893c:	e59f001c 	ldr	r0, [pc, #28]	; 8960 <sbrk+0xb0>
    8940:	eb0000c9 	bl	8c6c <printk>
    8944:	eb0002bb 	bl	9438 <clean_reboot>
    8948:	0000a0bc 	strheq	sl, [r0], -ip
    894c:	0000a5b0 			; <UNDEFINED> instruction: 0x0000a5b0
    8950:	0000a0cc 	andeq	sl, r0, ip, asr #1
    8954:	0000a1e8 	andeq	sl, r0, r8, ror #3
    8958:	0000a090 	muleq	r0, r0, r0
    895c:	00009d7c 	andeq	r9, r0, ip, ror sp
    8960:	0000a0dc 	ldrdeq	sl, [r0], -ip

00008964 <ck_find_leaks>:
    8964:	e92d4010 	push	{r4, lr}
    8968:	e1a04000 	mov	r4, r0
    896c:	e59f0018 	ldr	r0, [pc, #24]	; 898c <ck_find_leaks+0x28>
    8970:	eb0000bd 	bl	8c6c <printk>
    8974:	ebffffa9 	bl	8820 <mark_all>
    8978:	e59f0010 	ldr	r0, [pc, #16]	; 8990 <ck_find_leaks+0x2c>
    897c:	eb0000ba 	bl	8c6c <printk>
    8980:	e1a00004 	mov	r0, r4
    8984:	ebfffee0 	bl	850c <sweep_leak>
    8988:	e8bd8010 	pop	{r4, pc}
    898c:	0000a0fc 	strdeq	sl, [r0], -ip
    8990:	0000a110 	andeq	sl, r0, r0, lsl r1

00008994 <check_no_leak>:
    8994:	e92d4010 	push	{r4, lr}
    8998:	e3a00001 	mov	r0, #1, 0
    899c:	ebfffff0 	bl	8964 <ck_find_leaks>
    89a0:	e3500000 	cmp	r0, #0, 0
    89a4:	1a000002 	bne	89b4 <check_no_leak+0x20>
    89a8:	e59f001c 	ldr	r0, [pc, #28]	; 89cc <check_no_leak+0x38>
    89ac:	eb0000ae 	bl	8c6c <printk>
    89b0:	e8bd8010 	pop	{r4, pc}
    89b4:	e3a030c9 	mov	r3, #201, 0	; 0xc9
    89b8:	e59f2010 	ldr	r2, [pc, #16]	; 89d0 <check_no_leak+0x3c>
    89bc:	e59f1010 	ldr	r1, [pc, #16]	; 89d4 <check_no_leak+0x40>
    89c0:	e59f0010 	ldr	r0, [pc, #16]	; 89d8 <check_no_leak+0x44>
    89c4:	eb0000a8 	bl	8c6c <printk>
    89c8:	eb00029a 	bl	9438 <clean_reboot>
    89cc:	0000a144 	andeq	sl, r0, r4, asr #2
    89d0:	0000a1f0 	strdeq	sl, [r0], -r0
    89d4:	0000a090 	muleq	r0, r0, r0
    89d8:	0000a118 	andeq	sl, r0, r8, lsl r1

000089dc <check_should_leak>:
    89dc:	e92d4010 	push	{r4, lr}
    89e0:	e3a00001 	mov	r0, #1, 0
    89e4:	ebffffde 	bl	8964 <ck_find_leaks>
    89e8:	e2504000 	subs	r4, r0, #0, 0
    89ec:	0a000004 	beq	8a04 <check_should_leak+0x28>
    89f0:	e1a01004 	mov	r1, r4
    89f4:	e59f0020 	ldr	r0, [pc, #32]	; 8a1c <check_should_leak+0x40>
    89f8:	eb00009b 	bl	8c6c <printk>
    89fc:	e1a00004 	mov	r0, r4
    8a00:	e8bd8010 	pop	{r4, pc}
    8a04:	e3a030d7 	mov	r3, #215, 0	; 0xd7
    8a08:	e59f2010 	ldr	r2, [pc, #16]	; 8a20 <check_should_leak+0x44>
    8a0c:	e59f1010 	ldr	r1, [pc, #16]	; 8a24 <check_should_leak+0x48>
    8a10:	e59f0010 	ldr	r0, [pc, #16]	; 8a28 <check_should_leak+0x4c>
    8a14:	eb000094 	bl	8c6c <printk>
    8a18:	eb000286 	bl	9438 <clean_reboot>
    8a1c:	0000a18c 	andeq	sl, r0, ip, lsl #3
    8a20:	0000a200 	andeq	sl, r0, r0, lsl #4
    8a24:	0000a090 	muleq	r0, r0, r0
    8a28:	0000a164 	andeq	sl, r0, r4, ror #2

00008a2c <ck_gc>:
    8a2c:	e92d4010 	push	{r4, lr}
    8a30:	ebffff7a 	bl	8820 <mark_all>
    8a34:	ebfffef4 	bl	860c <sweep_free>
    8a38:	e8bd8010 	pop	{r4, pc}

00008a3c <implement_this>:
    8a3c:	e92d4010 	push	{r4, lr}
    8a40:	e3a03c01 	mov	r3, #256	; 0x100
    8a44:	e59f200c 	ldr	r2, [pc, #12]	; 8a58 <implement_this+0x1c>
    8a48:	e59f100c 	ldr	r1, [pc, #12]	; 8a5c <implement_this+0x20>
    8a4c:	e59f000c 	ldr	r0, [pc, #12]	; 8a60 <implement_this+0x24>
    8a50:	eb000085 	bl	8c6c <printk>
    8a54:	eb000277 	bl	9438 <clean_reboot>
    8a58:	0000a214 	andeq	sl, r0, r4, lsl r2
    8a5c:	0000a090 	muleq	r0, r0, r0
    8a60:	0000a1b0 			; <UNDEFINED> instruction: 0x0000a1b0

00008a64 <dump_regs>:
    8a64:	e5800000 	str	r0, [r0]
    8a68:	e5801004 	str	r1, [r0, #4]
    8a6c:	e5802008 	str	r2, [r0, #8]
    8a70:	e580300c 	str	r3, [r0, #12]
    8a74:	e5804010 	str	r4, [r0, #16]
    8a78:	e5805014 	str	r5, [r0, #20]
    8a7c:	e5806018 	str	r6, [r0, #24]
    8a80:	e580701c 	str	r7, [r0, #28]
    8a84:	e5808020 	str	r8, [r0, #32]
    8a88:	e5809024 	str	r9, [r0, #36]	; 0x24
    8a8c:	e580a028 	str	sl, [r0, #40]	; 0x28
    8a90:	e580b02c 	str	fp, [r0, #44]	; 0x2c
    8a94:	e580c030 	str	ip, [r0, #48]	; 0x30
    8a98:	e580d034 	str	sp, [r0, #52]	; 0x34
    8a9c:	e580e038 	str	lr, [r0, #56]	; 0x38
    8aa0:	e580f03c 	str	pc, [r0, #60]	; 0x3c
    8aa4:	e12fff1e 	bx	lr

00008aa8 <kr_free>:
    8aa8:	e52de004 	push	{lr}		; (str lr, [sp, #-4]!)
    8aac:	e2401008 	sub	r1, r0, #8, 0
    8ab0:	e59f30a8 	ldr	r3, [pc, #168]	; 8b60 <kr_free+0xb8>
    8ab4:	e5933000 	ldr	r3, [r3]
    8ab8:	ea000000 	b	8ac0 <kr_free+0x18>
    8abc:	e1a03002 	mov	r3, r2
    8ac0:	e1530001 	cmp	r3, r1
    8ac4:	2a000002 	bcs	8ad4 <kr_free+0x2c>
    8ac8:	e5932000 	ldr	r2, [r3]
    8acc:	e1520001 	cmp	r2, r1
    8ad0:	8a000007 	bhi	8af4 <kr_free+0x4c>
    8ad4:	e5932000 	ldr	r2, [r3]
    8ad8:	e1520003 	cmp	r2, r3
    8adc:	8afffff6 	bhi	8abc <kr_free+0x14>
    8ae0:	e1530001 	cmp	r3, r1
    8ae4:	3a000002 	bcc	8af4 <kr_free+0x4c>
    8ae8:	e1520001 	cmp	r2, r1
    8aec:	91a03002 	movls	r3, r2
    8af0:	9afffff2 	bls	8ac0 <kr_free+0x18>
    8af4:	e510c004 	ldr	ip, [r0, #-4]
    8af8:	e081e18c 	add	lr, r1, ip, lsl #3
    8afc:	e5932000 	ldr	r2, [r3]
    8b00:	e15e0002 	cmp	lr, r2
    8b04:	0a000008 	beq	8b2c <kr_free+0x84>
    8b08:	e5002008 	str	r2, [r0, #-8]
    8b0c:	e5932004 	ldr	r2, [r3, #4]
    8b10:	e083c182 	add	ip, r3, r2, lsl #3
    8b14:	e15c0001 	cmp	ip, r1
    8b18:	0a00000a 	beq	8b48 <kr_free+0xa0>
    8b1c:	e5831000 	str	r1, [r3]
    8b20:	e59f2038 	ldr	r2, [pc, #56]	; 8b60 <kr_free+0xb8>
    8b24:	e5823000 	str	r3, [r2]
    8b28:	e49df004 	pop	{pc}		; (ldr pc, [sp], #4)
    8b2c:	e5922004 	ldr	r2, [r2, #4]
    8b30:	e08cc002 	add	ip, ip, r2
    8b34:	e500c004 	str	ip, [r0, #-4]
    8b38:	e5932000 	ldr	r2, [r3]
    8b3c:	e5922000 	ldr	r2, [r2]
    8b40:	e5002008 	str	r2, [r0, #-8]
    8b44:	eafffff0 	b	8b0c <kr_free+0x64>
    8b48:	e5101004 	ldr	r1, [r0, #-4]
    8b4c:	e0822001 	add	r2, r2, r1
    8b50:	e5832004 	str	r2, [r3, #4]
    8b54:	e5102008 	ldr	r2, [r0, #-8]
    8b58:	e5832000 	str	r2, [r3]
    8b5c:	eaffffef 	b	8b20 <kr_free+0x78>
    8b60:	0000a5c0 	andeq	sl, r0, r0, asr #11

00008b64 <kr_morecore>:
    8b64:	e92d4010 	push	{r4, lr}
    8b68:	e1a04000 	mov	r4, r0
    8b6c:	e3500b01 	cmp	r0, #1024	; 0x400
    8b70:	33a04b01 	movcc	r4, #1024	; 0x400
    8b74:	e1a00184 	lsl	r0, r4, #3
    8b78:	ebffff4c 	bl	88b0 <sbrk>
    8b7c:	e3700001 	cmn	r0, #1, 0
    8b80:	0a000005 	beq	8b9c <kr_morecore+0x38>
    8b84:	e5804004 	str	r4, [r0, #4]
    8b88:	e2800008 	add	r0, r0, #8, 0
    8b8c:	ebffffc5 	bl	8aa8 <kr_free>
    8b90:	e59f300c 	ldr	r3, [pc, #12]	; 8ba4 <kr_morecore+0x40>
    8b94:	e5930000 	ldr	r0, [r3]
    8b98:	e8bd8010 	pop	{r4, pc}
    8b9c:	e3a00000 	mov	r0, #0, 0
    8ba0:	e8bd8010 	pop	{r4, pc}
    8ba4:	0000a5c0 	andeq	sl, r0, r0, asr #11

00008ba8 <kr_malloc>:
    8ba8:	e92d4010 	push	{r4, lr}
    8bac:	e2804007 	add	r4, r0, #7, 0
    8bb0:	e1a041a4 	lsr	r4, r4, #3
    8bb4:	e2844001 	add	r4, r4, #1, 0
    8bb8:	e59f3090 	ldr	r3, [pc, #144]	; 8c50 <kr_malloc+0xa8>
    8bbc:	e5932000 	ldr	r2, [r3]
    8bc0:	e3520000 	cmp	r2, #0, 0
    8bc4:	0a000001 	beq	8bd0 <kr_malloc+0x28>
    8bc8:	e5920000 	ldr	r0, [r2]
    8bcc:	ea000013 	b	8c20 <kr_malloc+0x78>
    8bd0:	e2832008 	add	r2, r3, #8, 0
    8bd4:	e5832000 	str	r2, [r3]
    8bd8:	e5832008 	str	r2, [r3, #8]
    8bdc:	e3a01000 	mov	r1, #0, 0
    8be0:	e583100c 	str	r1, [r3, #12]
    8be4:	eafffff7 	b	8bc8 <kr_malloc+0x20>
    8be8:	0a000007 	beq	8c0c <kr_malloc+0x64>
    8bec:	e0433004 	sub	r3, r3, r4
    8bf0:	e5803004 	str	r3, [r0, #4]
    8bf4:	e0800183 	add	r0, r0, r3, lsl #3
    8bf8:	e5804004 	str	r4, [r0, #4]
    8bfc:	e59f304c 	ldr	r3, [pc, #76]	; 8c50 <kr_malloc+0xa8>
    8c00:	e5832000 	str	r2, [r3]
    8c04:	e2800008 	add	r0, r0, #8, 0
    8c08:	e8bd8010 	pop	{r4, pc}
    8c0c:	e5903000 	ldr	r3, [r0]
    8c10:	e5823000 	str	r3, [r2]
    8c14:	eafffff8 	b	8bfc <kr_malloc+0x54>
    8c18:	e1a02000 	mov	r2, r0
    8c1c:	e5900000 	ldr	r0, [r0]
    8c20:	e5903004 	ldr	r3, [r0, #4]
    8c24:	e1530004 	cmp	r3, r4
    8c28:	2affffee 	bcs	8be8 <kr_malloc+0x40>
    8c2c:	e59f301c 	ldr	r3, [pc, #28]	; 8c50 <kr_malloc+0xa8>
    8c30:	e5933000 	ldr	r3, [r3]
    8c34:	e1530000 	cmp	r3, r0
    8c38:	1afffff6 	bne	8c18 <kr_malloc+0x70>
    8c3c:	e1a00004 	mov	r0, r4
    8c40:	ebffffc7 	bl	8b64 <kr_morecore>
    8c44:	e3500000 	cmp	r0, #0, 0
    8c48:	1afffff2 	bne	8c18 <kr_malloc+0x70>
    8c4c:	e8bd8010 	pop	{r4, pc}
    8c50:	0000a5c0 	andeq	sl, r0, r0, asr #11

00008c54 <memset>:
    8c54:	e0802002 	add	r2, r0, r2
    8c58:	e1a03000 	mov	r3, r0
    8c5c:	e1530002 	cmp	r3, r2
    8c60:	212fff1e 	bxcs	lr
    8c64:	e4c31001 	strb	r1, [r3], #1
    8c68:	eafffffb 	b	8c5c <memset+0x8>

00008c6c <printk>:
    8c6c:	e92d000f 	push	{r0, r1, r2, r3}
    8c70:	e92d4030 	push	{r4, r5, lr}
    8c74:	e24dd00c 	sub	sp, sp, #12, 0
    8c78:	e28d301c 	add	r3, sp, #28, 0
    8c7c:	e58d3004 	str	r3, [sp, #4]
    8c80:	e59f5034 	ldr	r5, [pc, #52]	; 8cbc <printk+0x50>
    8c84:	e59d2018 	ldr	r2, [sp, #24]
    8c88:	e3a01b01 	mov	r1, #1024	; 0x400
    8c8c:	e1a00005 	mov	r0, r5
    8c90:	eb0000ba 	bl	8f80 <va_printk>
    8c94:	e1a04000 	mov	r4, r0
    8c98:	e59f3020 	ldr	r3, [pc, #32]	; 8cc0 <printk+0x54>
    8c9c:	e5933000 	ldr	r3, [r3]
    8ca0:	e1a00005 	mov	r0, r5
    8ca4:	e12fff33 	blx	r3
    8ca8:	e1a00004 	mov	r0, r4
    8cac:	e28dd00c 	add	sp, sp, #12, 0
    8cb0:	e8bd4030 	pop	{r4, r5, lr}
    8cb4:	e28dd010 	add	sp, sp, #16, 0
    8cb8:	e12fff1e 	bx	lr
    8cbc:	0000a5d0 	ldrdeq	sl, [r0], -r0
    8cc0:	0000a590 	muleq	r0, r0, r5

00008cc4 <internal_putk>:
    8cc4:	e92d4010 	push	{r4, lr}
    8cc8:	e1a04000 	mov	r4, r0
    8ccc:	e5d40000 	ldrb	r0, [r4]
    8cd0:	e3500000 	cmp	r0, #0, 0
    8cd4:	0a000004 	beq	8cec <internal_putk+0x28>
    8cd8:	e59f3014 	ldr	r3, [pc, #20]	; 8cf4 <internal_putk+0x30>
    8cdc:	e5933000 	ldr	r3, [r3]
    8ce0:	e12fff33 	blx	r3
    8ce4:	e2844001 	add	r4, r4, #1, 0
    8ce8:	eafffff7 	b	8ccc <internal_putk+0x8>
    8cec:	e3a00001 	mov	r0, #1, 0
    8cf0:	e8bd8010 	pop	{r4, pc}
    8cf4:	0000a5a0 	andeq	sl, r0, r0, lsr #11

00008cf8 <isdigit>:
    8cf8:	e2400030 	sub	r0, r0, #48, 0	; 0x30
    8cfc:	e3500009 	cmp	r0, #9, 0
    8d00:	83a00000 	movhi	r0, #0, 0
    8d04:	93a00001 	movls	r0, #1, 0
    8d08:	e12fff1e 	bx	lr

00008d0c <pad>:
    8d0c:	e0401001 	sub	r1, r0, r1
    8d10:	e1510002 	cmp	r1, r2
    8d14:	b3a03020 	movlt	r3, #32, 0
    8d18:	b4c03001 	strblt	r3, [r0], #1
    8d1c:	b2811001 	addlt	r1, r1, #1, 0
    8d20:	bafffffa 	blt	8d10 <pad+0x4>
    8d24:	e3a03000 	mov	r3, #0, 0
    8d28:	e5c03000 	strb	r3, [r0]
    8d2c:	e12fff1e 	bx	lr

00008d30 <reverse>:
    8d30:	e042c003 	sub	ip, r2, r3
    8d34:	e28cc001 	add	ip, ip, #1, 0
    8d38:	e15c0001 	cmp	ip, r1
    8d3c:	c04cc001 	subgt	ip, ip, r1
    8d40:	c083300c 	addgt	r3, r3, ip
    8d44:	e2421001 	sub	r1, r2, #1, 0
    8d48:	e1a02000 	mov	r2, r0
    8d4c:	e1510003 	cmp	r1, r3
    8d50:	2451c001 	ldrbcs	ip, [r1], #-1
    8d54:	24c2c001 	strbcs	ip, [r2], #1
    8d58:	2afffffb 	bcs	8d4c <reverse+0x1c>
    8d5c:	e3a03000 	mov	r3, #0, 0
    8d60:	e5c23000 	strb	r3, [r2]
    8d64:	e12fff1e 	bx	lr

00008d68 <emit>:
    8d68:	e92d40f0 	push	{r4, r5, r6, r7, lr}
    8d6c:	e24dd04c 	sub	sp, sp, #76, 0	; 0x4c
    8d70:	e1a05001 	mov	r5, r1
    8d74:	e1a04002 	mov	r4, r2
    8d78:	e59d2060 	ldr	r2, [sp, #96]	; 0x60
    8d7c:	e1520004 	cmp	r2, r4
    8d80:	c2442001 	subgt	r2, r4, #1, 0
    8d84:	e1a0c003 	mov	ip, r3
    8d88:	e2400002 	sub	r0, r0, #2, 0
    8d8c:	e350000e 	cmp	r0, #14, 0
    8d90:	979ff100 	ldrls	pc, [pc, r0, lsl #2]
    8d94:	ea000050 	b	8edc <emit+0x174>
    8d98:	00008eb4 			; <UNDEFINED> instruction: 0x00008eb4
    8d9c:	00008edc 	ldrdeq	r8, [r0], -ip
    8da0:	00008edc 	ldrdeq	r8, [r0], -ip
    8da4:	00008edc 	ldrdeq	r8, [r0], -ip
    8da8:	00008edc 	ldrdeq	r8, [r0], -ip
    8dac:	00008edc 	ldrdeq	r8, [r0], -ip
    8db0:	00008ea8 	andeq	r8, r0, r8, lsr #29
    8db4:	00008edc 	ldrdeq	r8, [r0], -ip
    8db8:	00008dd4 	ldrdeq	r8, [r0], -r4
    8dbc:	00008edc 	ldrdeq	r8, [r0], -ip
    8dc0:	00008edc 	ldrdeq	r8, [r0], -ip
    8dc4:	00008edc 	ldrdeq	r8, [r0], -ip
    8dc8:	00008edc 	ldrdeq	r8, [r0], -ip
    8dcc:	00008edc 	ldrdeq	r8, [r0], -ip
    8dd0:	00008e4c 	andeq	r8, r0, ip, asr #28
    8dd4:	e59d1064 	ldr	r1, [sp, #100]	; 0x64
    8dd8:	e2511000 	subs	r1, r1, #0, 0
    8ddc:	13a01001 	movne	r1, #1, 0
    8de0:	e0111fa3 	ands	r1, r1, r3, lsr #31
    8de4:	0a000016 	beq	8e44 <emit+0xdc>
    8de8:	e263c000 	rsb	ip, r3, #0, 0
    8dec:	e3a06001 	mov	r6, #1, 0
    8df0:	e28d0008 	add	r0, sp, #8, 0
    8df4:	e59f3100 	ldr	r3, [pc, #256]	; 8efc <emit+0x194>
    8df8:	e0831c93 	umull	r1, r3, r3, ip
    8dfc:	e1a031a3 	lsr	r3, r3, #3
    8e00:	e1a0e003 	mov	lr, r3
    8e04:	e0833103 	add	r3, r3, r3, lsl #2
    8e08:	e04c3083 	sub	r3, ip, r3, lsl #1
    8e0c:	e1a01000 	mov	r1, r0
    8e10:	e2800001 	add	r0, r0, #1, 0
    8e14:	e59f70e4 	ldr	r7, [pc, #228]	; 8f00 <emit+0x198>
    8e18:	e7d73003 	ldrb	r3, [r7, r3]
    8e1c:	e5c13000 	strb	r3, [r1]
    8e20:	e1a0300c 	mov	r3, ip
    8e24:	e1a0c00e 	mov	ip, lr
    8e28:	e3530009 	cmp	r3, #9, 0
    8e2c:	8afffff0 	bhi	8df4 <emit+0x8c>
    8e30:	e3560000 	cmp	r6, #0, 0
    8e34:	13a0302d 	movne	r3, #45, 0	; 0x2d
    8e38:	15c03000 	strbne	r3, [r0]
    8e3c:	12810002 	addne	r0, r1, #2, 0
    8e40:	ea00000f 	b	8e84 <emit+0x11c>
    8e44:	e3a06000 	mov	r6, #0, 0
    8e48:	eaffffe8 	b	8df0 <emit+0x88>
    8e4c:	e28d1008 	add	r1, sp, #8, 0
    8e50:	e20c000f 	and	r0, ip, #15, 0
    8e54:	e59fe0a8 	ldr	lr, [pc, #168]	; 8f04 <emit+0x19c>
    8e58:	e7de0000 	ldrb	r0, [lr, r0]
    8e5c:	e5c10000 	strb	r0, [r1]
    8e60:	e2811001 	add	r1, r1, #1, 0
    8e64:	e35c000f 	cmp	ip, #15, 0
    8e68:	e1a0c22c 	lsr	ip, ip, #4
    8e6c:	8afffff7 	bhi	8e50 <emit+0xe8>
    8e70:	e1a00001 	mov	r0, r1
    8e74:	e3a03078 	mov	r3, #120, 0	; 0x78
    8e78:	e4c03002 	strb	r3, [r0], #2
    8e7c:	e3a03030 	mov	r3, #48, 0	; 0x30
    8e80:	e5c13001 	strb	r3, [r1, #1]
    8e84:	e28d1008 	add	r1, sp, #8, 0
    8e88:	ebffff9f 	bl	8d0c <pad>
    8e8c:	e1a02000 	mov	r2, r0
    8e90:	e28d3008 	add	r3, sp, #8, 0
    8e94:	e1a01004 	mov	r1, r4
    8e98:	e1a00005 	mov	r0, r5
    8e9c:	ebffffa3 	bl	8d30 <reverse>
    8ea0:	e28dd04c 	add	sp, sp, #76, 0	; 0x4c
    8ea4:	e8bd80f0 	pop	{r4, r5, r6, r7, pc}
    8ea8:	e5cd3008 	strb	r3, [sp, #8]
    8eac:	e28d0009 	add	r0, sp, #9, 0
    8eb0:	eafffff3 	b	8e84 <emit+0x11c>
    8eb4:	e28d0008 	add	r0, sp, #8, 0
    8eb8:	e20c1001 	and	r1, ip, #1, 0
    8ebc:	e59fe044 	ldr	lr, [pc, #68]	; 8f08 <emit+0x1a0>
    8ec0:	e7de1001 	ldrb	r1, [lr, r1]
    8ec4:	e5c01000 	strb	r1, [r0]
    8ec8:	e2800001 	add	r0, r0, #1, 0
    8ecc:	e35c0001 	cmp	ip, #1, 0
    8ed0:	e1a0c0ac 	lsr	ip, ip, #1
    8ed4:	8afffff7 	bhi	8eb8 <emit+0x150>
    8ed8:	eaffffe9 	b	8e84 <emit+0x11c>
    8edc:	e59f3028 	ldr	r3, [pc, #40]	; 8f0c <emit+0x1a4>
    8ee0:	e58d3000 	str	r3, [sp]
    8ee4:	e3a03079 	mov	r3, #121, 0	; 0x79
    8ee8:	e59f2020 	ldr	r2, [pc, #32]	; 8f10 <emit+0x1a8>
    8eec:	e59f1020 	ldr	r1, [pc, #32]	; 8f14 <emit+0x1ac>
    8ef0:	e59f0020 	ldr	r0, [pc, #32]	; 8f18 <emit+0x1b0>
    8ef4:	ebffff5c 	bl	8c6c <printk>
    8ef8:	eb00014e 	bl	9438 <clean_reboot>
    8efc:	cccccccd 	stclgt	12, cr12, [ip], {205}	; 0xcd
    8f00:	0000a238 	andeq	sl, r0, r8, lsr r2
    8f04:	0000a244 	andeq	sl, r0, r4, asr #4
    8f08:	0000a258 	andeq	sl, r0, r8, asr r2
    8f0c:	0000a0d8 	ldrdeq	sl, [r0], -r8
    8f10:	0000a364 	andeq	sl, r0, r4, ror #6
    8f14:	0000a224 	andeq	sl, r0, r4, lsr #4
    8f18:	00009d7c 	andeq	r9, r0, ip, ror sp

00008f1c <rpi_set_output>:
    8f1c:	e3500000 	cmp	r0, #0, 0
    8f20:	0a000006 	beq	8f40 <rpi_set_output+0x24>
    8f24:	e59f303c 	ldr	r3, [pc, #60]	; 8f68 <rpi_set_output+0x4c>
    8f28:	e5830000 	str	r0, [r3]
    8f2c:	e3510000 	cmp	r1, #0, 0
    8f30:	012fff1e 	bxeq	lr
    8f34:	e59f3030 	ldr	r3, [pc, #48]	; 8f6c <rpi_set_output+0x50>
    8f38:	e5831000 	str	r1, [r3]
    8f3c:	e12fff1e 	bx	lr
    8f40:	e52de004 	push	{lr}		; (str lr, [sp, #-4]!)
    8f44:	e24dd00c 	sub	sp, sp, #12, 0
    8f48:	e59f3020 	ldr	r3, [pc, #32]	; 8f70 <rpi_set_output+0x54>
    8f4c:	e58d3000 	str	r3, [sp]
    8f50:	e3a03020 	mov	r3, #32, 0
    8f54:	e59f2018 	ldr	r2, [pc, #24]	; 8f74 <rpi_set_output+0x58>
    8f58:	e59f1018 	ldr	r1, [pc, #24]	; 8f78 <rpi_set_output+0x5c>
    8f5c:	e59f0018 	ldr	r0, [pc, #24]	; 8f7c <rpi_set_output+0x60>
    8f60:	ebffff41 	bl	8c6c <printk>
    8f64:	eb000133 	bl	9438 <clean_reboot>
    8f68:	0000a5a0 	andeq	sl, r0, r0, lsr #11
    8f6c:	0000a590 	muleq	r0, r0, r5
    8f70:	0000a25c 	andeq	sl, r0, ip, asr r2
    8f74:	0000a36c 	andeq	sl, r0, ip, ror #6
    8f78:	0000a224 	andeq	sl, r0, r4, lsr #4
    8f7c:	00009d7c 	andeq	r9, r0, ip, ror sp

00008f80 <va_printk>:
    8f80:	e92d4ff0 	push	{r4, r5, r6, r7, r8, r9, sl, fp, lr}
    8f84:	e24ddf45 	sub	sp, sp, #276	; 0x114
    8f88:	e1a09000 	mov	r9, r0
    8f8c:	e58d2008 	str	r2, [sp, #8]
    8f90:	e58d300c 	str	r3, [sp, #12]
    8f94:	e2411001 	sub	r1, r1, #1, 0
    8f98:	e0808001 	add	r8, r0, r1
    8f9c:	e3a03000 	mov	r3, #0, 0
    8fa0:	e5c03000 	strb	r3, [r0]
    8fa4:	e1a04000 	mov	r4, r0
    8fa8:	e1a06002 	mov	r6, r2
    8fac:	ea000001 	b	8fb8 <va_printk+0x38>
    8fb0:	e2866001 	add	r6, r6, #1, 0
    8fb4:	e4c43001 	strb	r3, [r4], #1
    8fb8:	e5d63000 	ldrb	r3, [r6]
    8fbc:	e3530000 	cmp	r3, #0, 0
    8fc0:	0a000108 	beq	93e8 <va_printk+0x468>
    8fc4:	e1540008 	cmp	r4, r8
    8fc8:	2a000106 	bcs	93e8 <va_printk+0x468>
    8fcc:	e3530025 	cmp	r3, #37, 0	; 0x25
    8fd0:	1afffff6 	bne	8fb0 <va_printk+0x30>
    8fd4:	e5d62001 	ldrb	r2, [r6, #1]
    8fd8:	e3520025 	cmp	r2, #37, 0	; 0x25
    8fdc:	04c43001 	strbeq	r3, [r4], #1
    8fe0:	02866002 	addeq	r6, r6, #2, 0
    8fe4:	0afffff3 	beq	8fb8 <va_printk+0x38>
    8fe8:	e2866001 	add	r6, r6, #1, 0
    8fec:	e3a05000 	mov	r5, #0, 0
    8ff0:	e5d67000 	ldrb	r7, [r6]
    8ff4:	e1a0a007 	mov	sl, r7
    8ff8:	e1a00007 	mov	r0, r7
    8ffc:	ebffff3d 	bl	8cf8 <isdigit>
    9000:	e3500000 	cmp	r0, #0, 0
    9004:	0a000004 	beq	901c <va_printk+0x9c>
    9008:	e0855105 	add	r5, r5, r5, lsl #2
    900c:	e0875085 	add	r5, r7, r5, lsl #1
    9010:	e2455030 	sub	r5, r5, #48, 0	; 0x30
    9014:	e2866001 	add	r6, r6, #1, 0
    9018:	eafffff4 	b	8ff0 <va_printk+0x70>
    901c:	e355001f 	cmp	r5, #31, 0
    9020:	8a00001a 	bhi	9090 <va_printk+0x110>
    9024:	e2477062 	sub	r7, r7, #98, 0	; 0x62
    9028:	e3570016 	cmp	r7, #22, 0
    902c:	979ff107 	ldrls	pc, [pc, r7, lsl #2]
    9030:	ea0000d4 	b	9388 <va_printk+0x408>
    9034:	0000930c 	andeq	r9, r0, ip, lsl #6
    9038:	00009354 	andeq	r9, r0, r4, asr r3
    903c:	0000926c 	andeq	r9, r0, ip, ror #4
    9040:	00009388 	andeq	r9, r0, r8, lsl #7
    9044:	00009254 	andeq	r9, r0, r4, asr r2
    9048:	00009388 	andeq	r9, r0, r8, lsl #7
    904c:	00009388 	andeq	r9, r0, r8, lsl #7
    9050:	00009388 	andeq	r9, r0, r8, lsl #7
    9054:	00009388 	andeq	r9, r0, r8, lsl #7
    9058:	00009388 	andeq	r9, r0, r8, lsl #7
    905c:	000090b0 	strheq	r9, [r0], -r0
    9060:	00009388 	andeq	r9, r0, r8, lsl #7
    9064:	00009388 	andeq	r9, r0, r8, lsl #7
    9068:	00009388 	andeq	r9, r0, r8, lsl #7
    906c:	000092d8 	ldrdeq	r9, [r0], -r8
    9070:	00009388 	andeq	r9, r0, r8, lsl #7
    9074:	00009388 	andeq	r9, r0, r8, lsl #7
    9078:	00009340 	andeq	r9, r0, r0, asr #6
    907c:	00009388 	andeq	r9, r0, r8, lsl #7
    9080:	000092a4 	andeq	r9, r0, r4, lsr #5
    9084:	00009388 	andeq	r9, r0, r8, lsl #7
    9088:	00009388 	andeq	r9, r0, r8, lsl #7
    908c:	000092d8 	ldrdeq	r9, [r0], -r8
    9090:	e59f3364 	ldr	r3, [pc, #868]	; 93fc <va_printk+0x47c>
    9094:	e58d3000 	str	r3, [sp]
    9098:	e3a03098 	mov	r3, #152, 0	; 0x98
    909c:	e59f235c 	ldr	r2, [pc, #860]	; 9400 <va_printk+0x480>
    90a0:	e59f135c 	ldr	r1, [pc, #860]	; 9404 <va_printk+0x484>
    90a4:	e59f035c 	ldr	r0, [pc, #860]	; 9408 <va_printk+0x488>
    90a8:	ebfffeef 	bl	8c6c <printk>
    90ac:	eb0000e1 	bl	9438 <clean_reboot>
    90b0:	e3a02003 	mov	r2, #3, 0
    90b4:	e59f1350 	ldr	r1, [pc, #848]	; 940c <va_printk+0x48c>
    90b8:	e1a00006 	mov	r0, r6
    90bc:	eb0002d0 	bl	9c04 <strncmp>
    90c0:	e3500000 	cmp	r0, #0, 0
    90c4:	0a000005 	beq	90e0 <va_printk+0x160>
    90c8:	e3a02003 	mov	r2, #3, 0
    90cc:	e59f133c 	ldr	r1, [pc, #828]	; 9410 <va_printk+0x490>
    90d0:	e1a00006 	mov	r0, r6
    90d4:	eb0002ca 	bl	9c04 <strncmp>
    90d8:	e3500000 	cmp	r0, #0, 0
    90dc:	1a000033 	bne	91b0 <va_printk+0x230>
    90e0:	e286b002 	add	fp, r6, #2, 0
    90e4:	e59d300c 	ldr	r3, [sp, #12]
    90e8:	e2833007 	add	r3, r3, #7, 0
    90ec:	e3c33007 	bic	r3, r3, #7, 0
    90f0:	e2832008 	add	r2, r3, #8, 0
    90f4:	e58d200c 	str	r2, [sp, #12]
    90f8:	e593a000 	ldr	sl, [r3]
    90fc:	e5937004 	ldr	r7, [r3, #4]
    9100:	e1a01007 	mov	r1, r7
    9104:	e59f0308 	ldr	r0, [pc, #776]	; 9414 <va_printk+0x494>
    9108:	ebfffed7 	bl	8c6c <printk>
    910c:	e1a0100a 	mov	r1, sl
    9110:	e59f0300 	ldr	r0, [pc, #768]	; 9418 <va_printk+0x498>
    9114:	ebfffed4 	bl	8c6c <printk>
    9118:	e3a02003 	mov	r2, #3, 0
    911c:	e59f12e8 	ldr	r1, [pc, #744]	; 940c <va_printk+0x48c>
    9120:	e1a00006 	mov	r0, r6
    9124:	eb0002b6 	bl	9c04 <strncmp>
    9128:	e3500000 	cmp	r0, #0, 0
    912c:	0a000027 	beq	91d0 <va_printk+0x250>
    9130:	e3a02003 	mov	r2, #3, 0
    9134:	e59f12d4 	ldr	r1, [pc, #724]	; 9410 <va_printk+0x490>
    9138:	e1a00006 	mov	r0, r6
    913c:	eb0002b0 	bl	9c04 <strncmp>
    9140:	e3500000 	cmp	r0, #0, 0
    9144:	1a00003b 	bne	9238 <va_printk+0x2b8>
    9148:	e3a06000 	mov	r6, #0, 0
    914c:	e58d6004 	str	r6, [sp, #4]
    9150:	e58d5000 	str	r5, [sp]
    9154:	e1a03007 	mov	r3, r7
    9158:	e3a02080 	mov	r2, #128, 0	; 0x80
    915c:	e28d1010 	add	r1, sp, #16, 0
    9160:	e3a0000a 	mov	r0, #10, 0
    9164:	ebfffeff 	bl	8d68 <emit>
    9168:	e1a07000 	mov	r7, r0
    916c:	e58d6004 	str	r6, [sp, #4]
    9170:	e58d5000 	str	r5, [sp]
    9174:	e1a0300a 	mov	r3, sl
    9178:	e3a02080 	mov	r2, #128, 0	; 0x80
    917c:	e28d1090 	add	r1, sp, #144, 0	; 0x90
    9180:	e3a0000a 	mov	r0, #10, 0
    9184:	ebfffef7 	bl	8d68 <emit>
    9188:	e59f128c 	ldr	r1, [pc, #652]	; 941c <va_printk+0x49c>
    918c:	e28d0010 	add	r0, sp, #16, 0
    9190:	eb000288 	bl	9bb8 <strcmp>
    9194:	e1500006 	cmp	r0, r6
    9198:	1a000021 	bne	9224 <va_printk+0x2a4>
    919c:	e28d1090 	add	r1, sp, #144, 0	; 0x90
    91a0:	e28d0010 	add	r0, sp, #16, 0
    91a4:	eb00028e 	bl	9be4 <strcpy>
    91a8:	e1a0600b 	mov	r6, fp
    91ac:	ea00003a 	b	929c <va_printk+0x31c>
    91b0:	e59f3268 	ldr	r3, [pc, #616]	; 9420 <va_printk+0x4a0>
    91b4:	e58d3000 	str	r3, [sp]
    91b8:	e3a0309f 	mov	r3, #159, 0	; 0x9f
    91bc:	e59f223c 	ldr	r2, [pc, #572]	; 9400 <va_printk+0x480>
    91c0:	e59f123c 	ldr	r1, [pc, #572]	; 9404 <va_printk+0x484>
    91c4:	e59f023c 	ldr	r0, [pc, #572]	; 9408 <va_printk+0x488>
    91c8:	ebfffea7 	bl	8c6c <printk>
    91cc:	eb000099 	bl	9438 <clean_reboot>
    91d0:	e3a06000 	mov	r6, #0, 0
    91d4:	e58d6004 	str	r6, [sp, #4]
    91d8:	e58d5000 	str	r5, [sp]
    91dc:	e1a03007 	mov	r3, r7
    91e0:	e3a02080 	mov	r2, #128, 0	; 0x80
    91e4:	e28d1010 	add	r1, sp, #16, 0
    91e8:	e3a00010 	mov	r0, #16, 0
    91ec:	ebfffedd 	bl	8d68 <emit>
    91f0:	e1a07000 	mov	r7, r0
    91f4:	e58d6004 	str	r6, [sp, #4]
    91f8:	e58d5000 	str	r5, [sp]
    91fc:	e1a0300a 	mov	r3, sl
    9200:	e3a02080 	mov	r2, #128, 0	; 0x80
    9204:	e28d1090 	add	r1, sp, #144, 0	; 0x90
    9208:	e3a00010 	mov	r0, #16, 0
    920c:	ebfffed5 	bl	8d68 <emit>
    9210:	e28d1092 	add	r1, sp, #146, 0	; 0x92
    9214:	e28d0010 	add	r0, sp, #16, 0
    9218:	eb000259 	bl	9b84 <strcat>
    921c:	e1a0600b 	mov	r6, fp
    9220:	ea00001d 	b	929c <va_printk+0x31c>
    9224:	e28d1090 	add	r1, sp, #144, 0	; 0x90
    9228:	e28d0010 	add	r0, sp, #16, 0
    922c:	eb000254 	bl	9b84 <strcat>
    9230:	e1a0600b 	mov	r6, fp
    9234:	ea000018 	b	929c <va_printk+0x31c>
    9238:	e58d6000 	str	r6, [sp]
    923c:	e3a030b6 	mov	r3, #182, 0	; 0xb6
    9240:	e59f21b8 	ldr	r2, [pc, #440]	; 9400 <va_printk+0x480>
    9244:	e59f11b8 	ldr	r1, [pc, #440]	; 9404 <va_printk+0x484>
    9248:	e59f01d4 	ldr	r0, [pc, #468]	; 9424 <va_printk+0x4a4>
    924c:	ebfffe86 	bl	8c6c <printk>
    9250:	eb000078 	bl	9438 <clean_reboot>
    9254:	e3a030be 	mov	r3, #190, 0	; 0xbe
    9258:	e59f21a0 	ldr	r2, [pc, #416]	; 9400 <va_printk+0x480>
    925c:	e59f11a0 	ldr	r1, [pc, #416]	; 9404 <va_printk+0x484>
    9260:	e59f01c0 	ldr	r0, [pc, #448]	; 9428 <va_printk+0x4a8>
    9264:	ebfffe80 	bl	8c6c <printk>
    9268:	eb000072 	bl	9438 <clean_reboot>
    926c:	e59d300c 	ldr	r3, [sp, #12]
    9270:	e2832004 	add	r2, r3, #4, 0
    9274:	e58d200c 	str	r2, [sp, #12]
    9278:	e5933000 	ldr	r3, [r3]
    927c:	e3a02001 	mov	r2, #1, 0
    9280:	e58d2004 	str	r2, [sp, #4]
    9284:	e58d5000 	str	r5, [sp]
    9288:	e3a02080 	mov	r2, #128, 0	; 0x80
    928c:	e28d1010 	add	r1, sp, #16, 0
    9290:	e3a0000a 	mov	r0, #10, 0
    9294:	ebfffeb3 	bl	8d68 <emit>
    9298:	e1a07000 	mov	r7, r0
    929c:	e2866001 	add	r6, r6, #1, 0
    92a0:	ea00004a 	b	93d0 <va_printk+0x450>
    92a4:	e59d300c 	ldr	r3, [sp, #12]
    92a8:	e2832004 	add	r2, r3, #4, 0
    92ac:	e58d200c 	str	r2, [sp, #12]
    92b0:	e5933000 	ldr	r3, [r3]
    92b4:	e3a02000 	mov	r2, #0, 0
    92b8:	e58d2004 	str	r2, [sp, #4]
    92bc:	e58d5000 	str	r5, [sp]
    92c0:	e3a02080 	mov	r2, #128, 0	; 0x80
    92c4:	e28d1010 	add	r1, sp, #16, 0
    92c8:	e3a0000a 	mov	r0, #10, 0
    92cc:	ebfffea5 	bl	8d68 <emit>
    92d0:	e1a07000 	mov	r7, r0
    92d4:	eafffff0 	b	929c <va_printk+0x31c>
    92d8:	e59d300c 	ldr	r3, [sp, #12]
    92dc:	e2832004 	add	r2, r3, #4, 0
    92e0:	e58d200c 	str	r2, [sp, #12]
    92e4:	e5933000 	ldr	r3, [r3]
    92e8:	e3a02000 	mov	r2, #0, 0
    92ec:	e58d2004 	str	r2, [sp, #4]
    92f0:	e58d5000 	str	r5, [sp]
    92f4:	e3a02080 	mov	r2, #128, 0	; 0x80
    92f8:	e28d1010 	add	r1, sp, #16, 0
    92fc:	e3a00010 	mov	r0, #16, 0
    9300:	ebfffe98 	bl	8d68 <emit>
    9304:	e1a07000 	mov	r7, r0
    9308:	eaffffe3 	b	929c <va_printk+0x31c>
    930c:	e59d300c 	ldr	r3, [sp, #12]
    9310:	e2832004 	add	r2, r3, #4, 0
    9314:	e58d200c 	str	r2, [sp, #12]
    9318:	e5933000 	ldr	r3, [r3]
    931c:	e3a02000 	mov	r2, #0, 0
    9320:	e58d2004 	str	r2, [sp, #4]
    9324:	e58d5000 	str	r5, [sp]
    9328:	e3a02080 	mov	r2, #128, 0	; 0x80
    932c:	e28d1010 	add	r1, sp, #16, 0
    9330:	e3a00002 	mov	r0, #2, 0
    9334:	ebfffe8b 	bl	8d68 <emit>
    9338:	e1a07000 	mov	r7, r0
    933c:	eaffffd6 	b	929c <va_printk+0x31c>
    9340:	e59d300c 	ldr	r3, [sp, #12]
    9344:	e2832004 	add	r2, r3, #4, 0
    9348:	e58d200c 	str	r2, [sp, #12]
    934c:	e5937000 	ldr	r7, [r3]
    9350:	eaffffd1 	b	929c <va_printk+0x31c>
    9354:	e59d300c 	ldr	r3, [sp, #12]
    9358:	e2832004 	add	r2, r3, #4, 0
    935c:	e58d200c 	str	r2, [sp, #12]
    9360:	e5933000 	ldr	r3, [r3]
    9364:	e3a02000 	mov	r2, #0, 0
    9368:	e58d2004 	str	r2, [sp, #4]
    936c:	e58d5000 	str	r5, [sp]
    9370:	e3a02080 	mov	r2, #128, 0	; 0x80
    9374:	e28d1010 	add	r1, sp, #16, 0
    9378:	e3a00008 	mov	r0, #8, 0
    937c:	ebfffe79 	bl	8d68 <emit>
    9380:	e1a07000 	mov	r7, r0
    9384:	eaffffc4 	b	929c <va_printk+0x31c>
    9388:	e3a03000 	mov	r3, #0, 0
    938c:	e5c63001 	strb	r3, [r6, #1]
    9390:	e1a0200a 	mov	r2, sl
    9394:	e1a0100a 	mov	r1, sl
    9398:	e59f008c 	ldr	r0, [pc, #140]	; 942c <va_printk+0x4ac>
    939c:	ebfffe32 	bl	8c6c <printk>
    93a0:	e59f3088 	ldr	r3, [pc, #136]	; 9430 <va_printk+0x4b0>
    93a4:	e5933000 	ldr	r3, [r3]
    93a8:	e59d0008 	ldr	r0, [sp, #8]
    93ac:	e12fff33 	blx	r3
    93b0:	e3a030e2 	mov	r3, #226, 0	; 0xe2
    93b4:	e59f2044 	ldr	r2, [pc, #68]	; 9400 <va_printk+0x480>
    93b8:	e59f1044 	ldr	r1, [pc, #68]	; 9404 <va_printk+0x484>
    93bc:	e59f0070 	ldr	r0, [pc, #112]	; 9434 <va_printk+0x4b4>
    93c0:	ebfffe29 	bl	8c6c <printk>
    93c4:	eb00001b 	bl	9438 <clean_reboot>
    93c8:	e2877001 	add	r7, r7, #1, 0
    93cc:	e4c43001 	strb	r3, [r4], #1
    93d0:	e1540008 	cmp	r4, r8
    93d4:	2afffef7 	bcs	8fb8 <va_printk+0x38>
    93d8:	e5d73000 	ldrb	r3, [r7]
    93dc:	e3530000 	cmp	r3, #0, 0
    93e0:	1afffff8 	bne	93c8 <va_printk+0x448>
    93e4:	eafffef3 	b	8fb8 <va_printk+0x38>
    93e8:	e3a03000 	mov	r3, #0, 0
    93ec:	e4c43001 	strb	r3, [r4], #1
    93f0:	e0440009 	sub	r0, r4, r9
    93f4:	e28ddf45 	add	sp, sp, #276	; 0x114
    93f8:	e8bd8ff0 	pop	{r4, r5, r6, r7, r8, r9, sl, fp, pc}
    93fc:	0000a264 	andeq	sl, r0, r4, ror #4
    9400:	0000a37c 	andeq	sl, r0, ip, ror r3
    9404:	0000a224 	andeq	sl, r0, r4, lsr #4
    9408:	00009d7c 	andeq	r9, r0, ip, ror sp
    940c:	0000a270 	andeq	sl, r0, r0, ror r2
    9410:	0000a274 	andeq	sl, r0, r4, ror r2
    9414:	0000a278 	andeq	sl, r0, r8, ror r2
    9418:	0000a280 	andeq	sl, r0, r0, lsl #5
    941c:	0000a0d8 	ldrdeq	sl, [r0], -r8
    9420:	0000a288 	andeq	sl, r0, r8, lsl #5
    9424:	0000a2c4 	andeq	sl, r0, r4, asr #5
    9428:	0000a2ec 	andeq	sl, r0, ip, ror #5
    942c:	0000a314 	andeq	sl, r0, r4, lsl r3
    9430:	0000a590 	muleq	r0, r0, r5
    9434:	0000a344 	andeq	sl, r0, r4, asr #6

00009438 <clean_reboot>:
    9438:	e92d4010 	push	{r4, lr}
    943c:	e59f3018 	ldr	r3, [pc, #24]	; 945c <clean_reboot+0x24>
    9440:	e5933000 	ldr	r3, [r3]
    9444:	e59f0014 	ldr	r0, [pc, #20]	; 9460 <clean_reboot+0x28>
    9448:	e12fff33 	blx	r3
    944c:	eb0000c3 	bl	9760 <uart_flush_tx>
    9450:	e3a0000a 	mov	r0, #10, 0
    9454:	eb000047 	bl	9578 <delay_ms>
    9458:	eb00001c 	bl	94d0 <rpi_reboot>
    945c:	0000a590 	muleq	r0, r0, r5
    9460:	0000a388 	andeq	sl, r0, r8, lsl #7

00009464 <_cstart>:
    9464:	e92d4010 	push	{r4, lr}
    9468:	eb00000c 	bl	94a0 <custom_loader>
    946c:	e59f3024 	ldr	r3, [pc, #36]	; 9498 <_cstart+0x34>
    9470:	e59f2024 	ldr	r2, [pc, #36]	; 949c <_cstart+0x38>
    9474:	e1530002 	cmp	r3, r2
    9478:	33a02000 	movcc	r2, #0, 0
    947c:	34832004 	strcc	r2, [r3], #4
    9480:	3afffffa 	bcc	9470 <_cstart+0xc>
    9484:	eb000057 	bl	95e8 <uart_init>
    9488:	e3a03001 	mov	r3, #1, 0
    948c:	ee0f3f1c 	mcr	15, 0, r3, cr15, cr12, {0}
    9490:	ebfffb19 	bl	80fc <notmain>
    9494:	ebffffe7 	bl	9438 <clean_reboot>
    9498:	0000a5a8 	andeq	sl, r0, r8, lsr #11
    949c:	0000a9d8 	ldrdeq	sl, [r0], -r8

000094a0 <custom_loader>:
    94a0:	e12fff1e 	bx	lr

000094a4 <at_user_level>:
    94a4:	e10f0000 	mrs	r0, CPSR
    94a8:	e200001f 	and	r0, r0, #31, 0
    94ac:	e3500010 	cmp	r0, #16, 0
    94b0:	13a00000 	movne	r0, #0, 0
    94b4:	03a00001 	moveq	r0, #1, 0
    94b8:	e12fff1e 	bx	lr

000094bc <set_user_level>:
    94bc:	e10f3000 	mrs	r3, CPSR
    94c0:	e3c3301f 	bic	r3, r3, #31, 0
    94c4:	e3833010 	orr	r3, r3, #16, 0
    94c8:	e129f003 	msr	CPSR_fc, r3
    94cc:	e12fff1e 	bx	lr

000094d0 <rpi_reboot>:
    94d0:	e92d4010 	push	{r4, lr}
    94d4:	ebfffff2 	bl	94a4 <at_user_level>
    94d8:	e3500000 	cmp	r0, #0, 0
    94dc:	1a00000a 	bne	950c <rpi_reboot+0x3c>
    94e0:	eb0001d2 	bl	9c30 <reboot_callout>
    94e4:	eb00009d 	bl	9760 <uart_flush_tx>
    94e8:	e3a0000a 	mov	r0, #10, 0
    94ec:	eb000021 	bl	9578 <delay_ms>
    94f0:	e59f101c 	ldr	r1, [pc, #28]	; 9514 <rpi_reboot+0x44>
    94f4:	e59f001c 	ldr	r0, [pc, #28]	; 9518 <rpi_reboot+0x48>
    94f8:	ebfffac9 	bl	8024 <PUT32>
    94fc:	e59f1018 	ldr	r1, [pc, #24]	; 951c <rpi_reboot+0x4c>
    9500:	e59f0018 	ldr	r0, [pc, #24]	; 9520 <rpi_reboot+0x50>
    9504:	ebfffac6 	bl	8024 <PUT32>
    9508:	eafffffe 	b	9508 <rpi_reboot+0x38>
    950c:	ebffffea 	bl	94bc <set_user_level>
    9510:	eafffff2 	b	94e0 <rpi_reboot+0x10>
    9514:	5a000001 	bpl	9520 <rpi_reboot+0x50>
    9518:	20100024 	andscs	r0, r0, r4, lsr #32
    951c:	5a000020 	bpl	95a4 <delay_sec+0x14>
    9520:	2010001c 	andscs	r0, r0, ip, lsl r0

00009524 <timer_get_usec_raw>:
    9524:	e92d4010 	push	{r4, lr}
    9528:	e59f0004 	ldr	r0, [pc, #4]	; 9534 <timer_get_usec_raw+0x10>
    952c:	ebfffabe 	bl	802c <GET32>
    9530:	e8bd8010 	pop	{r4, pc}
    9534:	20003004 	andcs	r3, r0, r4

00009538 <timer_get_usec>:
    9538:	e92d4010 	push	{r4, lr}
    953c:	eb0001bc 	bl	9c34 <dev_barrier>
    9540:	ebfffff7 	bl	9524 <timer_get_usec_raw>
    9544:	e1a04000 	mov	r4, r0
    9548:	eb0001b9 	bl	9c34 <dev_barrier>
    954c:	e1a00004 	mov	r0, r4
    9550:	e8bd8010 	pop	{r4, pc}

00009554 <delay_us>:
    9554:	e92d4070 	push	{r4, r5, r6, lr}
    9558:	e1a05000 	mov	r5, r0
    955c:	ebfffff5 	bl	9538 <timer_get_usec>
    9560:	e1a04000 	mov	r4, r0
    9564:	ebfffff3 	bl	9538 <timer_get_usec>
    9568:	e0400004 	sub	r0, r0, r4
    956c:	e1500005 	cmp	r0, r5
    9570:	3afffffb 	bcc	9564 <delay_us+0x10>
    9574:	e8bd8070 	pop	{r4, r5, r6, pc}

00009578 <delay_ms>:
    9578:	e92d4010 	push	{r4, lr}
    957c:	e0603280 	rsb	r3, r0, r0, lsl #5
    9580:	e0800103 	add	r0, r0, r3, lsl #2
    9584:	e1a00180 	lsl	r0, r0, #3
    9588:	ebfffff1 	bl	9554 <delay_us>
    958c:	e8bd8010 	pop	{r4, pc}

00009590 <delay_sec>:
    9590:	e92d4010 	push	{r4, lr}
    9594:	e0603280 	rsb	r3, r0, r0, lsl #5
    9598:	e0800103 	add	r0, r0, r3, lsl #2
    959c:	e1a00180 	lsl	r0, r0, #3
    95a0:	ebfffff4 	bl	9578 <delay_ms>
    95a4:	e8bd8010 	pop	{r4, pc}

000095a8 <and_in32>:
    95a8:	e92d4070 	push	{r4, r5, r6, lr}
    95ac:	e1a04000 	mov	r4, r0
    95b0:	e1a05001 	mov	r5, r1
    95b4:	ebfffa9c 	bl	802c <GET32>
    95b8:	e0001005 	and	r1, r0, r5
    95bc:	e1a00004 	mov	r0, r4
    95c0:	ebfffa97 	bl	8024 <PUT32>
    95c4:	e8bd8070 	pop	{r4, r5, r6, pc}

000095c8 <or_in32>:
    95c8:	e92d4070 	push	{r4, r5, r6, lr}
    95cc:	e1a04000 	mov	r4, r0
    95d0:	e1a05001 	mov	r5, r1
    95d4:	ebfffa94 	bl	802c <GET32>
    95d8:	e1801005 	orr	r1, r0, r5
    95dc:	e1a00004 	mov	r0, r4
    95e0:	ebfffa8f 	bl	8024 <PUT32>
    95e4:	e8bd8070 	pop	{r4, r5, r6, pc}

000095e8 <uart_init>:
    95e8:	e92d4010 	push	{r4, lr}
    95ec:	e3a01002 	mov	r1, #2, 0
    95f0:	e3a0000e 	mov	r0, #14, 0
    95f4:	eb000194 	bl	9c4c <gpio_set_function>
    95f8:	e3a01002 	mov	r1, #2, 0
    95fc:	e3a0000f 	mov	r0, #15, 0
    9600:	eb000191 	bl	9c4c <gpio_set_function>
    9604:	eb00018a 	bl	9c34 <dev_barrier>
    9608:	e3a01001 	mov	r1, #1, 0
    960c:	e59f0064 	ldr	r0, [pc, #100]	; 9678 <uart_init+0x90>
    9610:	ebffffec 	bl	95c8 <or_in32>
    9614:	eb000186 	bl	9c34 <dev_barrier>
    9618:	e59f405c 	ldr	r4, [pc, #92]	; 967c <uart_init+0x94>
    961c:	e3a01000 	mov	r1, #0, 0
    9620:	e1a00004 	mov	r0, r4
    9624:	ebfffa7e 	bl	8024 <PUT32>
    9628:	e3a01000 	mov	r1, #0, 0
    962c:	e59f004c 	ldr	r0, [pc, #76]	; 9680 <uart_init+0x98>
    9630:	ebfffa7b 	bl	8024 <PUT32>
    9634:	e3a01003 	mov	r1, #3, 0
    9638:	e59f0044 	ldr	r0, [pc, #68]	; 9684 <uart_init+0x9c>
    963c:	ebfffa78 	bl	8024 <PUT32>
    9640:	e3a01000 	mov	r1, #0, 0
    9644:	e59f003c 	ldr	r0, [pc, #60]	; 9688 <uart_init+0xa0>
    9648:	ebfffa75 	bl	8024 <PUT32>
    964c:	e3a010c7 	mov	r1, #199, 0	; 0xc7
    9650:	e59f0034 	ldr	r0, [pc, #52]	; 968c <uart_init+0xa4>
    9654:	ebfffa72 	bl	8024 <PUT32>
    9658:	e59f1030 	ldr	r1, [pc, #48]	; 9690 <uart_init+0xa8>
    965c:	e59f0030 	ldr	r0, [pc, #48]	; 9694 <uart_init+0xac>
    9660:	ebfffa6f 	bl	8024 <PUT32>
    9664:	e3a01003 	mov	r1, #3, 0
    9668:	e1a00004 	mov	r0, r4
    966c:	ebfffa6c 	bl	8024 <PUT32>
    9670:	eb00016f 	bl	9c34 <dev_barrier>
    9674:	e8bd8010 	pop	{r4, pc}
    9678:	20215004 	eorcs	r5, r1, r4
    967c:	20215060 	eorcs	r5, r1, r0, rrx
    9680:	20215044 	eorcs	r5, r1, r4, asr #32
    9684:	2021504c 	eorcs	r5, r1, ip, asr #32
    9688:	20215050 	eorcs	r5, r1, r0, asr r0
    968c:	20215048 	eorcs	r5, r1, r8, asr #32
    9690:	0000010e 	andeq	r0, r0, lr, lsl #2
    9694:	20215068 	eorcs	r5, r1, r8, rrx

00009698 <uart_can_getc>:
    9698:	e92d4010 	push	{r4, lr}
    969c:	e59f0008 	ldr	r0, [pc, #8]	; 96ac <uart_can_getc+0x14>
    96a0:	ebfffa61 	bl	802c <GET32>
    96a4:	e2000001 	and	r0, r0, #1, 0
    96a8:	e8bd8010 	pop	{r4, pc}
    96ac:	20215064 	eorcs	r5, r1, r4, rrx

000096b0 <uart_can_putc>:
    96b0:	e92d4010 	push	{r4, lr}
    96b4:	e59f0010 	ldr	r0, [pc, #16]	; 96cc <uart_can_putc+0x1c>
    96b8:	ebfffa5b 	bl	802c <GET32>
    96bc:	e3100002 	tst	r0, #2, 0
    96c0:	13a00001 	movne	r0, #1, 0
    96c4:	03a00000 	moveq	r0, #0, 0
    96c8:	e8bd8010 	pop	{r4, pc}
    96cc:	20215064 	eorcs	r5, r1, r4, rrx

000096d0 <uart_getc>:
    96d0:	e92d4010 	push	{r4, lr}
    96d4:	eb000156 	bl	9c34 <dev_barrier>
    96d8:	ebffffee 	bl	9698 <uart_can_getc>
    96dc:	e3500000 	cmp	r0, #0, 0
    96e0:	0afffffc 	beq	96d8 <uart_getc+0x8>
    96e4:	e59f0010 	ldr	r0, [pc, #16]	; 96fc <uart_getc+0x2c>
    96e8:	ebfffa4f 	bl	802c <GET32>
    96ec:	e6ef4070 	uxtb	r4, r0
    96f0:	eb00014f 	bl	9c34 <dev_barrier>
    96f4:	e1a00004 	mov	r0, r4
    96f8:	e8bd8010 	pop	{r4, pc}
    96fc:	20215040 	eorcs	r5, r1, r0, asr #32

00009700 <uart_putc>:
    9700:	e92d4010 	push	{r4, lr}
    9704:	e1a04000 	mov	r4, r0
    9708:	eb000149 	bl	9c34 <dev_barrier>
    970c:	ebffffe7 	bl	96b0 <uart_can_putc>
    9710:	e3500000 	cmp	r0, #0, 0
    9714:	0afffffc 	beq	970c <uart_putc+0xc>
    9718:	e6ef1074 	uxtb	r1, r4
    971c:	e59f0008 	ldr	r0, [pc, #8]	; 972c <uart_putc+0x2c>
    9720:	ebfffa3f 	bl	8024 <PUT32>
    9724:	eb000142 	bl	9c34 <dev_barrier>
    9728:	e8bd8010 	pop	{r4, pc}
    972c:	20215040 	eorcs	r5, r1, r0, asr #32

00009730 <uart_has_data>:
    9730:	e92d4010 	push	{r4, lr}
    9734:	eb00013e 	bl	9c34 <dev_barrier>
    9738:	ebffffd6 	bl	9698 <uart_can_getc>
    973c:	e8bd8010 	pop	{r4, pc}

00009740 <uart_tx_is_empty>:
    9740:	e92d4010 	push	{r4, lr}
    9744:	eb00013a 	bl	9c34 <dev_barrier>
    9748:	e59f000c 	ldr	r0, [pc, #12]	; 975c <uart_tx_is_empty+0x1c>
    974c:	ebfffa36 	bl	802c <GET32>
    9750:	e1a004a0 	lsr	r0, r0, #9
    9754:	e2000001 	and	r0, r0, #1, 0
    9758:	e8bd8010 	pop	{r4, pc}
    975c:	20215064 	eorcs	r5, r1, r4, rrx

00009760 <uart_flush_tx>:
    9760:	e92d4010 	push	{r4, lr}
    9764:	ebfffff5 	bl	9740 <uart_tx_is_empty>
    9768:	e3500000 	cmp	r0, #0, 0
    976c:	0afffffc 	beq	9764 <uart_flush_tx+0x4>
    9770:	e8bd8010 	pop	{r4, pc}

00009774 <uart_disable>:
    9774:	e92d4010 	push	{r4, lr}
    9778:	ebfffff8 	bl	9760 <uart_flush_tx>
    977c:	eb00012c 	bl	9c34 <dev_barrier>
    9780:	e3e01001 	mvn	r1, #1, 0
    9784:	e59f0008 	ldr	r0, [pc, #8]	; 9794 <uart_disable+0x20>
    9788:	ebffff86 	bl	95a8 <and_in32>
    978c:	eb000128 	bl	9c34 <dev_barrier>
    9790:	e8bd8010 	pop	{r4, pc}
    9794:	20215004 	eorcs	r5, r1, r4

00009798 <kmalloc_heap_end>:
    9798:	e59f3004 	ldr	r3, [pc, #4]	; 97a4 <kmalloc_heap_end+0xc>
    979c:	e5930000 	ldr	r0, [r3]
    97a0:	e12fff1e 	bx	lr
    97a4:	0000a594 	muleq	r0, r4, r5

000097a8 <kmalloc_heap_start>:
    97a8:	e59f3004 	ldr	r3, [pc, #4]	; 97b4 <kmalloc_heap_start+0xc>
    97ac:	e5930004 	ldr	r0, [r3, #4]
    97b0:	e12fff1e 	bx	lr
    97b4:	0000a594 	muleq	r0, r4, r5

000097b8 <kmalloc_heap_ptr>:
    97b8:	e59f3004 	ldr	r3, [pc, #4]	; 97c4 <kmalloc_heap_ptr+0xc>
    97bc:	e5930008 	ldr	r0, [r3, #8]
    97c0:	e12fff1e 	bx	lr
    97c4:	0000a594 	muleq	r0, r4, r5

000097c8 <kmalloc_init_set_start>:
    97c8:	e52de004 	push	{lr}		; (str lr, [sp, #-4]!)
    97cc:	e24dd00c 	sub	sp, sp, #12, 0
    97d0:	e3510000 	cmp	r1, #0, 0
    97d4:	0a00000a 	beq	9804 <kmalloc_init_set_start+0x3c>
    97d8:	e59f306c 	ldr	r3, [pc, #108]	; 984c <kmalloc_init_set_start+0x84>
    97dc:	e5933008 	ldr	r3, [r3, #8]
    97e0:	e1530000 	cmp	r3, r0
    97e4:	8a00000e 	bhi	9824 <kmalloc_init_set_start+0x5c>
    97e8:	e59f305c 	ldr	r3, [pc, #92]	; 984c <kmalloc_init_set_start+0x84>
    97ec:	e5830008 	str	r0, [r3, #8]
    97f0:	e5830004 	str	r0, [r3, #4]
    97f4:	e0800001 	add	r0, r0, r1
    97f8:	e5830000 	str	r0, [r3]
    97fc:	e28dd00c 	add	sp, sp, #12, 0
    9800:	e49df004 	pop	{pc}		; (ldr pc, [sp], #4)
    9804:	e59f3044 	ldr	r3, [pc, #68]	; 9850 <kmalloc_init_set_start+0x88>
    9808:	e58d3000 	str	r3, [sp]
    980c:	e3a03030 	mov	r3, #48, 0	; 0x30
    9810:	e59f203c 	ldr	r2, [pc, #60]	; 9854 <kmalloc_init_set_start+0x8c>
    9814:	e59f103c 	ldr	r1, [pc, #60]	; 9858 <kmalloc_init_set_start+0x90>
    9818:	e59f003c 	ldr	r0, [pc, #60]	; 985c <kmalloc_init_set_start+0x94>
    981c:	ebfffd12 	bl	8c6c <printk>
    9820:	ebffff04 	bl	9438 <clean_reboot>
    9824:	e59f3020 	ldr	r3, [pc, #32]	; 984c <kmalloc_init_set_start+0x84>
    9828:	e5933000 	ldr	r3, [r3]
    982c:	e58d3004 	str	r3, [sp, #4]
    9830:	e58d0000 	str	r0, [sp]
    9834:	e3a03034 	mov	r3, #52, 0	; 0x34
    9838:	e59f2014 	ldr	r2, [pc, #20]	; 9854 <kmalloc_init_set_start+0x8c>
    983c:	e59f1014 	ldr	r1, [pc, #20]	; 9858 <kmalloc_init_set_start+0x90>
    9840:	e59f0018 	ldr	r0, [pc, #24]	; 9860 <kmalloc_init_set_start+0x98>
    9844:	ebfffd08 	bl	8c6c <printk>
    9848:	ebfffefa 	bl	9438 <clean_reboot>
    984c:	0000a594 	muleq	r0, r4, r5
    9850:	0000a3a0 	andeq	sl, r0, r0, lsr #7
    9854:	0000a52c 	andeq	sl, r0, ip, lsr #10
    9858:	0000a394 	muleq	r0, r4, r3
    985c:	00009d7c 	andeq	r9, r0, ip, ror sp
    9860:	0000a3ac 	andeq	sl, r0, ip, lsr #7

00009864 <kmalloc_init>:
    9864:	e92d4010 	push	{r4, lr}
    9868:	e59f303c 	ldr	r3, [pc, #60]	; 98ac <kmalloc_init+0x48>
    986c:	e5933000 	ldr	r3, [r3]
    9870:	e3530000 	cmp	r3, #0, 0
    9874:	1a000006 	bne	9894 <kmalloc_init+0x30>
    9878:	e59f302c 	ldr	r3, [pc, #44]	; 98ac <kmalloc_init+0x48>
    987c:	e3a02001 	mov	r2, #1, 0
    9880:	e5832000 	str	r2, [r3]
    9884:	e3a01201 	mov	r1, #268435456	; 0x10000000
    9888:	e3a00601 	mov	r0, #1048576	; 0x100000
    988c:	ebffffcd 	bl	97c8 <kmalloc_init_set_start>
    9890:	e8bd8010 	pop	{r4, pc}
    9894:	e3a03040 	mov	r3, #64, 0	; 0x40
    9898:	e59f2010 	ldr	r2, [pc, #16]	; 98b0 <kmalloc_init+0x4c>
    989c:	e59f1010 	ldr	r1, [pc, #16]	; 98b4 <kmalloc_init+0x50>
    98a0:	e59f0010 	ldr	r0, [pc, #16]	; 98b8 <kmalloc_init+0x54>
    98a4:	ebfffcf0 	bl	8c6c <printk>
    98a8:	ebfffee2 	bl	9438 <clean_reboot>
    98ac:	0000a9d0 	ldrdeq	sl, [r0], -r0
    98b0:	0000a544 	andeq	sl, r0, r4, asr #10
    98b4:	0000a394 	muleq	r0, r4, r3
    98b8:	0000a3f0 	strdeq	sl, [r0], -r0

000098bc <kmalloc_notzero>:
    98bc:	e52de004 	push	{lr}		; (str lr, [sp, #-4]!)
    98c0:	e24dd00c 	sub	sp, sp, #12, 0
    98c4:	e3500000 	cmp	r0, #0, 0
    98c8:	0a00000a 	beq	98f8 <kmalloc_notzero+0x3c>
    98cc:	e2800007 	add	r0, r0, #7, 0
    98d0:	e3c03007 	bic	r3, r0, #7, 0
    98d4:	e59f2060 	ldr	r2, [pc, #96]	; 993c <kmalloc_notzero+0x80>
    98d8:	e5920008 	ldr	r0, [r2, #8]
    98dc:	e0801003 	add	r1, r0, r3
    98e0:	e5821008 	str	r1, [r2, #8]
    98e4:	e5922000 	ldr	r2, [r2]
    98e8:	e1510002 	cmp	r1, r2
    98ec:	8a000009 	bhi	9918 <kmalloc_notzero+0x5c>
    98f0:	e28dd00c 	add	sp, sp, #12, 0
    98f4:	e49df004 	pop	{pc}		; (ldr pc, [sp], #4)
    98f8:	e59f3040 	ldr	r3, [pc, #64]	; 9940 <kmalloc_notzero+0x84>
    98fc:	e58d3000 	str	r3, [sp]
    9900:	e3a03048 	mov	r3, #72, 0	; 0x48
    9904:	e59f2038 	ldr	r2, [pc, #56]	; 9944 <kmalloc_notzero+0x88>
    9908:	e59f1038 	ldr	r1, [pc, #56]	; 9948 <kmalloc_notzero+0x8c>
    990c:	e59f0038 	ldr	r0, [pc, #56]	; 994c <kmalloc_notzero+0x90>
    9910:	ebfffcd5 	bl	8c6c <printk>
    9914:	ebfffec7 	bl	9438 <clean_reboot>
    9918:	e0422000 	sub	r2, r2, r0
    991c:	e58d2004 	str	r2, [sp, #4]
    9920:	e58d3000 	str	r3, [sp]
    9924:	e3a0304e 	mov	r3, #78, 0	; 0x4e
    9928:	e59f2014 	ldr	r2, [pc, #20]	; 9944 <kmalloc_notzero+0x88>
    992c:	e59f1014 	ldr	r1, [pc, #20]	; 9948 <kmalloc_notzero+0x8c>
    9930:	e59f0018 	ldr	r0, [pc, #24]	; 9950 <kmalloc_notzero+0x94>
    9934:	ebfffccc 	bl	8c6c <printk>
    9938:	ebfffebe 	bl	9438 <clean_reboot>
    993c:	0000a594 	muleq	r0, r4, r5
    9940:	0000a3a4 	andeq	sl, r0, r4, lsr #7
    9944:	0000a554 	andeq	sl, r0, r4, asr r5
    9948:	0000a394 	muleq	r0, r4, r3
    994c:	00009d7c 	andeq	r9, r0, ip, ror sp
    9950:	0000a420 	andeq	sl, r0, r0, lsr #8

00009954 <kmalloc>:
    9954:	e92d4030 	push	{r4, r5, lr}
    9958:	e24dd00c 	sub	sp, sp, #12, 0
    995c:	e2504000 	subs	r4, r0, #0, 0
    9960:	0a000008 	beq	9988 <kmalloc+0x34>
    9964:	e1a00004 	mov	r0, r4
    9968:	ebffffd3 	bl	98bc <kmalloc_notzero>
    996c:	e1a05000 	mov	r5, r0
    9970:	e1a02004 	mov	r2, r4
    9974:	e3a01000 	mov	r1, #0, 0
    9978:	ebfffcb5 	bl	8c54 <memset>
    997c:	e1a00005 	mov	r0, r5
    9980:	e28dd00c 	add	sp, sp, #12, 0
    9984:	e8bd8030 	pop	{r4, r5, pc}
    9988:	e59f3018 	ldr	r3, [pc, #24]	; 99a8 <kmalloc+0x54>
    998c:	e58d3000 	str	r3, [sp]
    9990:	e3a03054 	mov	r3, #84, 0	; 0x54
    9994:	e59f2010 	ldr	r2, [pc, #16]	; 99ac <kmalloc+0x58>
    9998:	e59f1010 	ldr	r1, [pc, #16]	; 99b0 <kmalloc+0x5c>
    999c:	e59f0010 	ldr	r0, [pc, #16]	; 99b4 <kmalloc+0x60>
    99a0:	ebfffcb1 	bl	8c6c <printk>
    99a4:	ebfffea3 	bl	9438 <clean_reboot>
    99a8:	0000a3a4 	andeq	sl, r0, r4, lsr #7
    99ac:	0000a564 	andeq	sl, r0, r4, ror #10
    99b0:	0000a394 	muleq	r0, r4, r3
    99b4:	00009d7c 	andeq	r9, r0, ip, ror sp

000099b8 <kmalloc_aligned>:
    99b8:	e52de004 	push	{lr}		; (str lr, [sp, #-4]!)
    99bc:	e24dd00c 	sub	sp, sp, #12, 0
    99c0:	e3500000 	cmp	r0, #0, 0
    99c4:	0a000014 	beq	9a1c <kmalloc_aligned+0x64>
    99c8:	e2613000 	rsb	r3, r1, #0, 0
    99cc:	e1d13003 	bics	r3, r1, r3
    99d0:	1a000019 	bne	9a3c <kmalloc_aligned+0x84>
    99d4:	e3510008 	cmp	r1, #8, 0
    99d8:	33a01008 	movcc	r1, #8, 0
    99dc:	e59f30c0 	ldr	r3, [pc, #192]	; 9aa4 <kmalloc_aligned+0xec>
    99e0:	e5932008 	ldr	r2, [r3, #8]
    99e4:	e2613000 	rsb	r3, r1, #0, 0
    99e8:	e1d1c003 	bics	ip, r1, r3
    99ec:	1a00001b 	bne	9a60 <kmalloc_aligned+0xa8>
    99f0:	e0822001 	add	r2, r2, r1
    99f4:	e2422001 	sub	r2, r2, #1, 0
    99f8:	e0033002 	and	r3, r3, r2
    99fc:	e2411001 	sub	r1, r1, #1, 0
    9a00:	e1110003 	tst	r1, r3
    9a04:	1a00001d 	bne	9a80 <kmalloc_aligned+0xc8>
    9a08:	e59f2094 	ldr	r2, [pc, #148]	; 9aa4 <kmalloc_aligned+0xec>
    9a0c:	e5823008 	str	r3, [r2, #8]
    9a10:	ebffffcf 	bl	9954 <kmalloc>
    9a14:	e28dd00c 	add	sp, sp, #12, 0
    9a18:	e49df004 	pop	{pc}		; (ldr pc, [sp], #4)
    9a1c:	e59f3084 	ldr	r3, [pc, #132]	; 9aa8 <kmalloc_aligned+0xf0>
    9a20:	e58d3000 	str	r3, [sp]
    9a24:	e3a0305f 	mov	r3, #95, 0	; 0x5f
    9a28:	e59f207c 	ldr	r2, [pc, #124]	; 9aac <kmalloc_aligned+0xf4>
    9a2c:	e59f107c 	ldr	r1, [pc, #124]	; 9ab0 <kmalloc_aligned+0xf8>
    9a30:	e59f007c 	ldr	r0, [pc, #124]	; 9ab4 <kmalloc_aligned+0xfc>
    9a34:	ebfffc8c 	bl	8c6c <printk>
    9a38:	ebfffe7e 	bl	9438 <clean_reboot>
    9a3c:	eb000046 	bl	9b5c <rpi_reset_putc>
    9a40:	e59f3070 	ldr	r3, [pc, #112]	; 9ab8 <kmalloc_aligned+0x100>
    9a44:	e58d3000 	str	r3, [sp]
    9a48:	e3a03060 	mov	r3, #96, 0	; 0x60
    9a4c:	e59f2058 	ldr	r2, [pc, #88]	; 9aac <kmalloc_aligned+0xf4>
    9a50:	e59f1058 	ldr	r1, [pc, #88]	; 9ab0 <kmalloc_aligned+0xf8>
    9a54:	e59f0060 	ldr	r0, [pc, #96]	; 9abc <kmalloc_aligned+0x104>
    9a58:	ebfffc83 	bl	8c6c <printk>
    9a5c:	ebfffe75 	bl	9438 <clean_reboot>
    9a60:	e59f3058 	ldr	r3, [pc, #88]	; 9ac0 <kmalloc_aligned+0x108>
    9a64:	e58d3000 	str	r3, [sp]
    9a68:	e3a03011 	mov	r3, #17, 0
    9a6c:	e59f2050 	ldr	r2, [pc, #80]	; 9ac4 <kmalloc_aligned+0x10c>
    9a70:	e59f1038 	ldr	r1, [pc, #56]	; 9ab0 <kmalloc_aligned+0xf8>
    9a74:	e59f0038 	ldr	r0, [pc, #56]	; 9ab4 <kmalloc_aligned+0xfc>
    9a78:	ebfffc7b 	bl	8c6c <printk>
    9a7c:	ebfffe6d 	bl	9438 <clean_reboot>
    9a80:	eb000035 	bl	9b5c <rpi_reset_putc>
    9a84:	e59f303c 	ldr	r3, [pc, #60]	; 9ac8 <kmalloc_aligned+0x110>
    9a88:	e58d3000 	str	r3, [sp]
    9a8c:	e3a03068 	mov	r3, #104, 0	; 0x68
    9a90:	e59f2014 	ldr	r2, [pc, #20]	; 9aac <kmalloc_aligned+0xf4>
    9a94:	e59f1014 	ldr	r1, [pc, #20]	; 9ab0 <kmalloc_aligned+0xf8>
    9a98:	e59f002c 	ldr	r0, [pc, #44]	; 9acc <kmalloc_aligned+0x114>
    9a9c:	ebfffc72 	bl	8c6c <printk>
    9aa0:	ebfffe64 	bl	9438 <clean_reboot>
    9aa4:	0000a594 	muleq	r0, r4, r5
    9aa8:	0000a3a4 	andeq	sl, r0, r4, lsr #7
    9aac:	0000a56c 	andeq	sl, r0, ip, ror #10
    9ab0:	0000a394 	muleq	r0, r4, r3
    9ab4:	00009d7c 	andeq	r9, r0, ip, ror sp
    9ab8:	0000a494 	muleq	r0, r4, r4
    9abc:	0000a460 	andeq	sl, r0, r0, ror #8
    9ac0:	0000a4a8 	andeq	sl, r0, r8, lsr #9
    9ac4:	0000a57c 	andeq	sl, r0, ip, ror r5
    9ac8:	0000a4e0 	andeq	sl, r0, r0, ror #9
    9acc:	0000a4b4 			; <UNDEFINED> instruction: 0x0000a4b4

00009ad0 <kfree>:
    9ad0:	e12fff1e 	bx	lr

00009ad4 <kfree_all>:
    9ad4:	e59f3008 	ldr	r3, [pc, #8]	; 9ae4 <kfree_all+0x10>
    9ad8:	e5932004 	ldr	r2, [r3, #4]
    9adc:	e5832008 	str	r2, [r3, #8]
    9ae0:	e12fff1e 	bx	lr
    9ae4:	0000a594 	muleq	r0, r4, r5

00009ae8 <kfree_pop>:
    9ae8:	e59f3048 	ldr	r3, [pc, #72]	; 9b38 <kfree_pop+0x50>
    9aec:	e5933004 	ldr	r3, [r3, #4]
    9af0:	e1530000 	cmp	r3, r0
    9af4:	8a000006 	bhi	9b14 <kfree_pop+0x2c>
    9af8:	e59f3038 	ldr	r3, [pc, #56]	; 9b38 <kfree_pop+0x50>
    9afc:	e5933000 	ldr	r3, [r3]
    9b00:	e1530000 	cmp	r3, r0
    9b04:	3a000002 	bcc	9b14 <kfree_pop+0x2c>
    9b08:	e59f3028 	ldr	r3, [pc, #40]	; 9b38 <kfree_pop+0x50>
    9b0c:	e5830008 	str	r0, [r3, #8]
    9b10:	e12fff1e 	bx	lr
    9b14:	e52de004 	push	{lr}		; (str lr, [sp, #-4]!)
    9b18:	e24dd00c 	sub	sp, sp, #12, 0
    9b1c:	e58d0000 	str	r0, [sp]
    9b20:	e3a03077 	mov	r3, #119, 0	; 0x77
    9b24:	e59f2010 	ldr	r2, [pc, #16]	; 9b3c <kfree_pop+0x54>
    9b28:	e59f1010 	ldr	r1, [pc, #16]	; 9b40 <kfree_pop+0x58>
    9b2c:	e59f0010 	ldr	r0, [pc, #16]	; 9b44 <kfree_pop+0x5c>
    9b30:	ebfffc4d 	bl	8c6c <printk>
    9b34:	ebfffe3f 	bl	9438 <clean_reboot>
    9b38:	0000a594 	muleq	r0, r4, r5
    9b3c:	0000a584 	andeq	sl, r0, r4, lsl #11
    9b40:	0000a394 	muleq	r0, r4, r3
    9b44:	0000a4fc 	strdeq	sl, [r0], -ip

00009b48 <internal_putchar>:
    9b48:	e92d4010 	push	{r4, lr}
    9b4c:	e1a04000 	mov	r4, r0
    9b50:	ebfffeea 	bl	9700 <uart_putc>
    9b54:	e1a00004 	mov	r0, r4
    9b58:	e8bd8010 	pop	{r4, pc}

00009b5c <rpi_reset_putc>:
    9b5c:	e59f3008 	ldr	r3, [pc, #8]	; 9b6c <rpi_reset_putc+0x10>
    9b60:	e59f2008 	ldr	r2, [pc, #8]	; 9b70 <rpi_reset_putc+0x14>
    9b64:	e5832000 	str	r2, [r3]
    9b68:	e12fff1e 	bx	lr
    9b6c:	0000a5a0 	andeq	sl, r0, r0, lsr #11
    9b70:	00009b48 	andeq	r9, r0, r8, asr #22

00009b74 <rpi_set_putc>:
    9b74:	e59f3004 	ldr	r3, [pc, #4]	; 9b80 <rpi_set_putc+0xc>
    9b78:	e5830000 	str	r0, [r3]
    9b7c:	e12fff1e 	bx	lr
    9b80:	0000a5a0 	andeq	sl, r0, r0, lsr #11

00009b84 <strcat>:
    9b84:	e1a02000 	mov	r2, r0
    9b88:	e1a03002 	mov	r3, r2
    9b8c:	e2822001 	add	r2, r2, #1, 0
    9b90:	e5d3c000 	ldrb	ip, [r3]
    9b94:	e35c0000 	cmp	ip, #0, 0
    9b98:	1afffffa 	bne	9b88 <strcat+0x4>
    9b9c:	e2433001 	sub	r3, r3, #1, 0
    9ba0:	e5d12000 	ldrb	r2, [r1]
    9ba4:	e2811001 	add	r1, r1, #1, 0
    9ba8:	e5e32001 	strb	r2, [r3, #1]!
    9bac:	e3520000 	cmp	r2, #0, 0
    9bb0:	1afffffa 	bne	9ba0 <strcat+0x1c>
    9bb4:	e12fff1e 	bx	lr

00009bb8 <strcmp>:
    9bb8:	e5d03000 	ldrb	r3, [r0]
    9bbc:	e3530000 	cmp	r3, #0, 0
    9bc0:	0a000004 	beq	9bd8 <strcmp+0x20>
    9bc4:	e5d12000 	ldrb	r2, [r1]
    9bc8:	e1530002 	cmp	r3, r2
    9bcc:	02800001 	addeq	r0, r0, #1, 0
    9bd0:	02811001 	addeq	r1, r1, #1, 0
    9bd4:	0afffff7 	beq	9bb8 <strcmp>
    9bd8:	e5d10000 	ldrb	r0, [r1]
    9bdc:	e0430000 	sub	r0, r3, r0
    9be0:	e12fff1e 	bx	lr

00009be4 <strcpy>:
    9be4:	e1a0c000 	mov	ip, r0
    9be8:	e5d12000 	ldrb	r2, [r1]
    9bec:	e2811001 	add	r1, r1, #1, 0
    9bf0:	e5cc2000 	strb	r2, [ip]
    9bf4:	e28cc001 	add	ip, ip, #1, 0
    9bf8:	e3520000 	cmp	r2, #0, 0
    9bfc:	1afffff9 	bne	9be8 <strcpy+0x4>
    9c00:	e12fff1e 	bx	lr

00009c04 <strncmp>:
    9c04:	e3520000 	cmp	r2, #0, 0
    9c08:	e2422001 	sub	r2, r2, #1, 0
    9c0c:	0a000005 	beq	9c28 <strncmp+0x24>
    9c10:	e4d03001 	ldrb	r3, [r0], #1
    9c14:	e4d1c001 	ldrb	ip, [r1], #1
    9c18:	e153000c 	cmp	r3, ip
    9c1c:	0afffff8 	beq	9c04 <strncmp>
    9c20:	e043000c 	sub	r0, r3, ip
    9c24:	e12fff1e 	bx	lr
    9c28:	e3a00000 	mov	r0, #0, 0
    9c2c:	e12fff1e 	bx	lr

00009c30 <reboot_callout>:
    9c30:	e12fff1e 	bx	lr

00009c34 <dev_barrier>:
    9c34:	ea000002 	b	9c44 <dsb>

00009c38 <dmb>:
    9c38:	e3a00000 	mov	r0, #0, 0
    9c3c:	ee070fba 	mcr	15, 0, r0, cr7, cr10, {5}
    9c40:	e12fff1e 	bx	lr

00009c44 <dsb>:
    9c44:	ee070f9a 	mcr	15, 0, r0, cr7, cr10, {4}
    9c48:	e12fff1e 	bx	lr

00009c4c <gpio_set_function>:
    9c4c:	e350001f 	cmp	r0, #31, 0
    9c50:	812fff1e 	bxhi	lr
    9c54:	e92d4070 	push	{r4, r5, r6, lr}
    9c58:	e1a05001 	mov	r5, r1
    9c5c:	e3d13007 	bics	r3, r1, #7, 0
    9c60:	18bd8070 	popne	{r4, r5, r6, pc}
    9c64:	e59f3040 	ldr	r3, [pc, #64]	; 9cac <gpio_set_function+0x60>
    9c68:	e0832093 	umull	r2, r3, r3, r0
    9c6c:	e1a031a3 	lsr	r3, r3, #3
    9c70:	e1a02003 	mov	r2, r3
    9c74:	e0833103 	add	r3, r3, r3, lsl #2
    9c78:	e0403083 	sub	r3, r0, r3, lsl #1
    9c7c:	e0834083 	add	r4, r3, r3, lsl #1
    9c80:	e2820302 	add	r0, r2, #134217728	; 0x8000000
    9c84:	e2800702 	add	r0, r0, #524288	; 0x80000
    9c88:	e1a06100 	lsl	r6, r0, #2
    9c8c:	e1a00006 	mov	r0, r6
    9c90:	ebfff8e5 	bl	802c <GET32>
    9c94:	e3a01007 	mov	r1, #7, 0
    9c98:	e1c01411 	bic	r1, r0, r1, lsl r4
    9c9c:	e1811415 	orr	r1, r1, r5, lsl r4
    9ca0:	e1a00006 	mov	r0, r6
    9ca4:	ebfff8de 	bl	8024 <PUT32>
    9ca8:	e8bd8070 	pop	{r4, r5, r6, pc}
    9cac:	cccccccd 	stclgt	12, cr12, [ip], {205}	; 0xcd

00009cb0 <gpio_set_output>:
    9cb0:	e92d4010 	push	{r4, lr}
    9cb4:	e3a01001 	mov	r1, #1, 0
    9cb8:	ebffffe3 	bl	9c4c <gpio_set_function>
    9cbc:	e8bd8010 	pop	{r4, pc}

00009cc0 <gpio_set_on>:
    9cc0:	e350001f 	cmp	r0, #31, 0
    9cc4:	812fff1e 	bxhi	lr
    9cc8:	e92d4010 	push	{r4, lr}
    9ccc:	e3a01001 	mov	r1, #1, 0
    9cd0:	e1a01011 	lsl	r1, r1, r0
    9cd4:	e59f0004 	ldr	r0, [pc, #4]	; 9ce0 <gpio_set_on+0x20>
    9cd8:	ebfff8d1 	bl	8024 <PUT32>
    9cdc:	e8bd8010 	pop	{r4, pc}
    9ce0:	2020001c 	eorcs	r0, r0, ip, lsl r0

00009ce4 <gpio_set_off>:
    9ce4:	e350001f 	cmp	r0, #31, 0
    9ce8:	812fff1e 	bxhi	lr
    9cec:	e92d4010 	push	{r4, lr}
    9cf0:	e3a01001 	mov	r1, #1, 0
    9cf4:	e1a01011 	lsl	r1, r1, r0
    9cf8:	e59f0004 	ldr	r0, [pc, #4]	; 9d04 <gpio_set_off+0x20>
    9cfc:	ebfff8c8 	bl	8024 <PUT32>
    9d00:	e8bd8010 	pop	{r4, pc}
    9d04:	20200028 	eorcs	r0, r0, r8, lsr #32

00009d08 <gpio_set_input>:
    9d08:	e92d4010 	push	{r4, lr}
    9d0c:	e3a01000 	mov	r1, #0, 0
    9d10:	ebffffcd 	bl	9c4c <gpio_set_function>
    9d14:	e8bd8010 	pop	{r4, pc}

00009d18 <gpio_write>:
    9d18:	e92d4010 	push	{r4, lr}
    9d1c:	e3510000 	cmp	r1, #0, 0
    9d20:	0a000001 	beq	9d2c <gpio_write+0x14>
    9d24:	ebffffe5 	bl	9cc0 <gpio_set_on>
    9d28:	e8bd8010 	pop	{r4, pc}
    9d2c:	ebffffec 	bl	9ce4 <gpio_set_off>
    9d30:	e8bd8010 	pop	{r4, pc}

00009d34 <gpio_read>:
    9d34:	e350001f 	cmp	r0, #31, 0
    9d38:	8a000007 	bhi	9d5c <gpio_read+0x28>
    9d3c:	e92d4010 	push	{r4, lr}
    9d40:	e200401f 	and	r4, r0, #31, 0
    9d44:	e59f3018 	ldr	r3, [pc, #24]	; 9d64 <gpio_read+0x30>
    9d48:	e08302a0 	add	r0, r3, r0, lsr #5
    9d4c:	ebfff8b6 	bl	802c <GET32>
    9d50:	e1a00430 	lsr	r0, r0, r4
    9d54:	e2000001 	and	r0, r0, #1, 0
    9d58:	e8bd8010 	pop	{r4, pc}
    9d5c:	e3e00000 	mvn	r0, #0, 0
    9d60:	e12fff1e 	bx	lr
    9d64:	20200034 	eorcs	r0, r0, r4, lsr r0

Disassembly of section .rodata:

00009d68 <__FUNCTION__.4024-0x80>:
    9d68:	74736574 	ldrbtvc	r6, [r3], #-1396	; 0xfffffa8c
    9d6c:	61702f73 	cmnvs	r0, r3, ror pc
    9d70:	2d327472 	cfldrscs	mvf7, [r2, #-456]!	; 0xfffffe38
    9d74:	74736574 	ldrbtvc	r6, [r3], #-1396	; 0xfffffa8c
    9d78:	00632e34 	rsbeq	r2, r3, r4, lsr lr
    9d7c:	494e4150 	stmdbmi	lr, {r4, r6, r8, lr}^
    9d80:	73253a43 			; <UNDEFINED> instruction: 0x73253a43
    9d84:	3a73253a 	bcc	1cd3274 <__bss_end__+0x1cc889c>
    9d88:	253a6425 	ldrcs	r6, [sl, #-1061]!	; 0xfffffbdb
    9d8c:	00000a73 	andeq	r0, r0, r3, ror sl
    9d90:	3e2d6821 	cdpcc	8, 2, cr6, cr13, cr1, {1}
    9d94:	76657270 			; <UNDEFINED> instruction: 0x76657270
    9d98:	00000000 	andeq	r0, r0, r0
    9d9c:	74204347 	strtvc	r4, [r0], #-839	; 0xfffffcb9
    9da0:	3a747365 	bcc	1d26b3c <__bss_end__+0x1d1c164>
    9da4:	65686320 	strbvs	r6, [r8, #-800]!	; 0xfffffce0
    9da8:	6e696b63 	vnmulvs.f64	d22, d9, d19
    9dac:	68742067 	ldmdavs	r4!, {r0, r1, r2, r5, r6, sp}^
    9db0:	61207461 			; <UNDEFINED> instruction: 0x61207461
    9db4:	756f6420 	strbvc	r6, [pc, #-1056]!	; 999c <kmalloc+0x48>
    9db8:	2d796c62 	ldclcs	12, cr6, [r9, #-392]!	; 0xfffffe78
    9dbc:	6b6e696c 	blvs	1ba4374 <__bss_end__+0x1b9999c>
    9dc0:	6c206465 	cfstrsvs	mvf6, [r0], #-404	; 0xfffffe6c
    9dc4:	20747369 	rsbscs	r7, r4, r9, ror #6
    9dc8:	68207369 	stmdavs	r0!, {r0, r3, r5, r6, r8, r9, ip, sp, lr}
    9dcc:	6c646e61 	stclvs	14, cr6, [r4], #-388	; 0xfffffe7c
    9dd0:	0a2e6465 	beq	ba2f6c <__bss_end__+0xb98594>
    9dd4:	00000000 	andeq	r0, r0, r0
    9dd8:	7473616c 	ldrbtvc	r6, [r3], #-364	; 0xfffffe94
    9ddc:	6c6c6120 	stfvse	f6, [ip], #-128	; 0xffffff80
    9de0:	3d20636f 	stccc	3, cr6, [r0, #-444]!	; 0xfffffe44
    9de4:	000a7025 	andeq	r7, sl, r5, lsr #32

00009de8 <__FUNCTION__.4024>:
    9de8:	74736574 	ldrbtvc	r6, [r3], #-1396	; 0xfffffa8c
    9dec:	00000000 	andeq	r0, r0, r0
    9df0:	6c616b63 			; <UNDEFINED> instruction: 0x6c616b63
    9df4:	2e636f6c 	cdpcs	15, 6, cr6, cr3, cr12, {3}
    9df8:	00000063 	andeq	r0, r0, r3, rrx
    9dfc:	0000006c 	andeq	r0, r0, ip, rrx
    9e00:	494e4150 	stmdbmi	lr, {r4, r6, r8, lr}^
    9e04:	73253a43 			; <UNDEFINED> instruction: 0x73253a43
    9e08:	3a73253a 	bcc	1cd32f8 <__bss_end__+0x1cc8920>
    9e0c:	643a6425 	ldrtvs	r6, [sl], #-1061	; 0xfffffbdb
    9e10:	6e206469 	cdpvs	4, 2, cr6, cr0, cr9, {3}
    9e14:	6620746f 	strtvs	r7, [r0], -pc, ror #8
    9e18:	20646e69 	rsbcs	r6, r4, r9, ror #28
    9e1c:	69207025 	stmdbvs	r0!, {r0, r2, r5, ip, sp, lr}
    9e20:	696c206e 	stmdbvs	ip!, {r1, r2, r3, r5, r6, sp}^
    9e24:	0a0a7473 	beq	2a6ff8 <__bss_end__+0x29c620>
    9e28:	00000000 	andeq	r0, r0, r0
    9e2c:	5f434f4c 	svcpl	0x00434f4c
    9e30:	494e4150 	stmdbmi	lr, {r4, r6, r8, lr}^
    9e34:	25203a43 	strcs	r3, [r0, #-2627]!	; 0xfffff5bd
    9e38:	73253a73 			; <UNDEFINED> instruction: 0x73253a73
    9e3c:	3a64253a 	bcc	191332c <__bss_end__+0x1908954>
    9e40:	00000000 	andeq	r0, r0, r0
    9e44:	65657266 	strbvs	r7, [r5, #-614]!	; 0xfffffd9a
    9e48:	20676e69 	rsbcs	r6, r7, r9, ror #28
    9e4c:	6c616e75 	stclvs	14, cr6, [r1], #-468	; 0xfffffe2c
    9e50:	61636f6c 	cmnvs	r3, ip, ror #30
    9e54:	20646574 	rsbcs	r6, r4, r4, ror r5
    9e58:	6f6d656d 	svcvs	0x006d656d
    9e5c:	203a7972 	eorscs	r7, sl, r2, ror r9
    9e60:	72646461 	rsbvc	r6, r4, #1627389952	; 0x61000000
    9e64:	25203d20 	strcs	r3, [r0, #-3360]!	; 0xfffff2e0
    9e68:	74732070 	ldrbtvc	r2, [r3], #-112	; 0xffffff90
    9e6c:	3d657461 	cfstrdcc	mvd7, [r5, #-388]!	; 0xfffffe7c
    9e70:	000a6425 	andeq	r6, sl, r5, lsr #8
    9e74:	253a7325 	ldrcs	r7, [sl, #-805]!	; 0xfffffcdb
    9e78:	64253a73 	strtvs	r3, [r5], #-2675	; 0xfffff58d
    9e7c:	0000003a 	andeq	r0, r0, sl, lsr r0
    9e80:	65657266 	strbvs	r7, [r5, #-614]!	; 0xfffffd9a
    9e84:	20676e69 	rsbcs	r6, r7, r9, ror #28
    9e88:	000a7025 	andeq	r7, sl, r5, lsr #32
    9e8c:	705f6b63 	subsvc	r6, pc, r3, ror #22
    9e90:	695f7274 	ldmdbvs	pc, {r2, r4, r5, r6, r9, ip, sp, lr}^	; <UNPREDICTABLE>
    9e94:	6c615f73 	stclvs	15, cr5, [r1], #-460	; 0xfffffe34
    9e98:	65636f6c 	strbvs	r6, [r3, #-3948]!	; 0xfffff094
    9e9c:	64612864 	strbtvs	r2, [r1], #-2148	; 0xfffff79c
    9ea0:	20297264 	eorcs	r7, r9, r4, ror #4
    9ea4:	30203d21 	eorcc	r3, r0, r1, lsr #26
    9ea8:	00000000 	andeq	r0, r0, r0
    9eac:	5f6b6321 	svcpl	0x006b6321
    9eb0:	5f727470 	svcpl	0x00727470
    9eb4:	615f7369 	cmpvs	pc, r9, ror #6
    9eb8:	636f6c6c 	cmnvs	pc, #108, 24	; 0x6c00
    9ebc:	61286465 			; <UNDEFINED> instruction: 0x61286465
    9ec0:	29726464 	ldmdbcs	r2!, {r2, r5, r6, sl, sp, lr}^
    9ec4:	00000000 	andeq	r0, r0, r0
    9ec8:	6f6c6c61 	svcvs	0x006c6c61
    9ecc:	69746163 	ldmdbvs	r4!, {r0, r1, r5, r6, r8, sp, lr}^
    9ed0:	2520676e 	strcs	r6, [r0, #-1902]!	; 0xfffff892
    9ed4:	00000a70 	andeq	r0, r0, r0, ror sl

00009ed8 <__FUNCTION__.4030>:
    9ed8:	7473696c 	ldrbtvc	r6, [r3], #-2412	; 0xfffff694
    9edc:	7070615f 	rsbsvc	r6, r0, pc, asr r1
    9ee0:	00646e65 	rsbeq	r6, r4, r5, ror #28

00009ee4 <__FUNCTION__.4020>:
    9ee4:	7473696c 	ldrbtvc	r6, [r3], #-2412	; 0xfffff694
    9ee8:	6d65725f 	sfmvs	f7, 2, [r5, #-380]!	; 0xfffffe84
    9eec:	0065766f 	rsbeq	r7, r5, pc, ror #12

00009ef0 <__FUNCTION__.4068>:
    9ef0:	72666b63 	rsbvc	r6, r6, #101376	; 0x18c00
    9ef4:	00006565 	andeq	r6, r0, r5, ror #10
    9ef8:	2d2d2d2d 	stccs	13, cr2, [sp, #-180]!	; 0xffffff4c
    9efc:	2d2d2d2d 	stccs	13, cr2, [sp, #-180]!	; 0xffffff4c
    9f00:	2d2d2d2d 	stccs	13, cr2, [sp, #-180]!	; 0xffffff4c
    9f04:	2d2d2d2d 	stccs	13, cr2, [sp, #-180]!	; 0xffffff4c
    9f08:	2d2d2d2d 	stccs	13, cr2, [sp, #-180]!	; 0xffffff4c
    9f0c:	2d2d2d2d 	stccs	13, cr2, [sp, #-180]!	; 0xffffff4c
    9f10:	2d2d2d2d 	stccs	13, cr2, [sp, #-180]!	; 0xffffff4c
    9f14:	2d2d2d2d 	stccs	13, cr2, [sp, #-180]!	; 0xffffff4c
    9f18:	2d2d2d2d 	stccs	13, cr2, [sp, #-180]!	; 0xffffff4c
    9f1c:	2d2d2d2d 	stccs	13, cr2, [sp, #-180]!	; 0xffffff4c
    9f20:	2d2d2d2d 	stccs	13, cr2, [sp, #-180]!	; 0xffffff4c
    9f24:	2d2d2d2d 	stccs	13, cr2, [sp, #-180]!	; 0xffffff4c
    9f28:	2d2d2d2d 	stccs	13, cr2, [sp, #-180]!	; 0xffffff4c
    9f2c:	2d2d2d2d 	stccs	13, cr2, [sp, #-180]!	; 0xffffff4c
    9f30:	00000a2d 	andeq	r0, r0, sp, lsr #20
    9f34:	63656863 	cmnvs	r5, #6488064	; 0x630000
    9f38:	676e696b 	strbvs	r6, [lr, -fp, ror #18]!
    9f3c:	726f6620 	rsbvc	r6, pc, #32, 12	; 0x2000000
    9f40:	61656c20 	cmnvs	r5, r0, lsr #24
    9f44:	0a3a736b 	beq	ea6cf8 <__bss_end__+0xe9c320>
    9f48:	00000000 	andeq	r0, r0, r0
    9f4c:	43415254 	movtmi	r5, #4692	; 0x1254
    9f50:	656c3a45 	strbvs	r3, [ip, #-2629]!	; 0xfffff5bb
    9f54:	66206b61 	strtvs	r6, [r0], -r1, ror #22
    9f58:	646e756f 	strbtvs	r7, [lr], #-1391	; 0xfffffa91
    9f5c:	726f6620 	rsbvc	r6, pc, #32, 12	; 0x2000000
    9f60:	6f6c6220 	svcvs	0x006c6220
    9f64:	203a6b63 	eorscs	r6, sl, r3, ror #22
    9f68:	000a7825 	andeq	r7, sl, r5, lsr #16
    9f6c:	43415254 	movtmi	r5, #4692	; 0x1254
    9f70:	47093a45 	strmi	r3, [r9, -r5, asr #20]
    9f74:	68433a43 	stmdavs	r3, {r0, r1, r6, r9, fp, ip, sp}^
    9f78:	656b6365 	strbvs	r6, [fp, #-869]!	; 0xfffffc9b
    9f7c:	64252064 	strtvs	r2, [r5], #-100	; 0xffffff9c
    9f80:	6f6c6220 	svcvs	0x006c6220
    9f84:	2e736b63 	vsubcs.f64	d22, d3, d19
    9f88:	0000000a 	andeq	r0, r0, sl
    9f8c:	43415254 	movtmi	r5, #4692	; 0x1254
    9f90:	09093a45 	stmdbeq	r9, {r0, r2, r6, r9, fp, ip, sp}
    9f94:	533a4347 	teqpl	sl, #469762049	; 0x1c000001
    9f98:	45434355 	strbmi	r4, [r3, #-853]	; 0xfffffcab
    9f9c:	203a5353 	eorscs	r5, sl, r3, asr r3
    9fa0:	6c206f4e 	stcvs	15, cr6, [r0], #-312	; 0xfffffec8
    9fa4:	736b6165 	cmnvc	fp, #1073741849	; 0x40000019
    9fa8:	756f6620 	strbvc	r6, [pc, #-1568]!	; 9990 <kmalloc+0x3c>
    9fac:	0a21646e 	beq	86316c <__bss_end__+0x858794>
    9fb0:	00000000 	andeq	r0, r0, r0
    9fb4:	43415254 	movtmi	r5, #4692	; 0x1254
    9fb8:	09093a45 	stmdbeq	r9, {r0, r2, r6, r9, fp, ip, sp}
    9fbc:	453a4347 	ldrmi	r4, [sl, #-839]!	; 0xfffffcb9
    9fc0:	524f5252 	subpl	r5, pc, #536870917	; 0x20000005
    9fc4:	25203a53 	strcs	r3, [r0, #-2643]!	; 0xfffff5ad
    9fc8:	72652064 	rsbvc	r2, r5, #100, 0	; 0x64
    9fcc:	73726f72 	cmnvc	r2, #456	; 0x1c8
    9fd0:	6425202c 	strtvs	r2, [r5], #-44	; 0xffffffd4
    9fd4:	79616d20 	stmdbvc	r1!, {r5, r8, sl, fp, sp, lr}^
    9fd8:	655f6562 	ldrbvs	r6, [pc, #-1378]	; 9a7e <kmalloc_aligned+0xc6>
    9fdc:	726f7272 	rsbvc	r7, pc, #536870919	; 0x20000007
    9fe0:	00000a73 	andeq	r0, r0, r3, ror sl
    9fe4:	2d2d2d2d 	stccs	13, cr2, [sp, #-180]!	; 0xffffff4c
    9fe8:	2d2d2d2d 	stccs	13, cr2, [sp, #-180]!	; 0xffffff4c
    9fec:	2d2d2d2d 	stccs	13, cr2, [sp, #-180]!	; 0xffffff4c
    9ff0:	2d2d2d2d 	stccs	13, cr2, [sp, #-180]!	; 0xffffff4c
    9ff4:	2d2d2d2d 	stccs	13, cr2, [sp, #-180]!	; 0xffffff4c
    9ff8:	2d2d2d2d 	stccs	13, cr2, [sp, #-180]!	; 0xffffff4c
    9ffc:	2d2d2d2d 	stccs	13, cr2, [sp, #-180]!	; 0xffffff4c
    a000:	2d2d2d2d 	stccs	13, cr2, [sp, #-180]!	; 0xffffff4c
    a004:	2d2d2d2d 	stccs	13, cr2, [sp, #-180]!	; 0xffffff4c
    a008:	2d2d2d2d 	stccs	13, cr2, [sp, #-180]!	; 0xffffff4c
    a00c:	2d2d2d2d 	stccs	13, cr2, [sp, #-180]!	; 0xffffff4c
    a010:	2d2d2d2d 	stccs	13, cr2, [sp, #-180]!	; 0xffffff4c
    a014:	2d2d2d2d 	stccs	13, cr2, [sp, #-180]!	; 0xffffff4c
    a018:	2d2d2d2d 	stccs	13, cr2, [sp, #-180]!	; 0xffffff4c
    a01c:	000a2d2d 	andeq	r2, sl, sp, lsr #26
    a020:	706d6f63 	rsbvc	r6, sp, r3, ror #30
    a024:	69746361 	ldmdbvs	r4!, {r0, r5, r6, r8, r9, sp, lr}^
    a028:	0a3a676e 	beq	ea3de8 <__bss_end__+0xe99410>
    a02c:	00000000 	andeq	r0, r0, r0
    a030:	43415254 	movtmi	r5, #4692	; 0x1254
    a034:	656c3a45 	strbvs	r3, [ip, #-2629]!	; 0xfffff5bb
    a038:	66206b61 	strtvs	r6, [r0], -r1, ror #22
    a03c:	646e756f 	strbtvs	r7, [lr], #-1391	; 0xfffffa91
    a040:	726f6620 	rsbvc	r6, pc, #32, 12	; 0x2000000
    a044:	6f6c6220 	svcvs	0x006c6220
    a048:	203a6b63 	eorscs	r6, sl, r3, ror #22
    a04c:	202e7825 	eorcs	r7, lr, r5, lsr #16
    a050:	65657246 	strbvs	r7, [r5, #-582]!	; 0xfffffdba
    a054:	2e676e69 	cdpcs	14, 6, cr6, cr7, cr9, {3}
    a058:	0000000a 	andeq	r0, r0, sl
    a05c:	43415254 	movtmi	r5, #4692	; 0x1254
    a060:	47093a45 	strmi	r3, [r9, -r5, asr #20]
    a064:	68433a43 	stmdavs	r3, {r0, r1, r6, r9, fp, ip, sp}^
    a068:	656b6365 	strbvs	r6, [fp, #-869]!	; 0xfffffc9b
    a06c:	64252064 	strtvs	r2, [r5], #-100	; 0xffffff9c
    a070:	6f6c6220 	svcvs	0x006c6220
    a074:	2c736b63 			; <UNDEFINED> instruction: 0x2c736b63
    a078:	65726620 	ldrbvs	r6, [r2, #-1568]!	; 0xfffff9e0
    a07c:	25206465 	strcs	r6, [r0, #-1125]!	; 0xfffffb9b
    a080:	25202c64 	strcs	r2, [r0, #-3172]!	; 0xfffff39c
    a084:	79622064 	stmdbvc	r2!, {r2, r5, r6, sp}^
    a088:	0a736574 	beq	1ce3660 <__bss_end__+0x1cd8c88>
    a08c:	00000000 	andeq	r0, r0, r0
    a090:	672d6b63 	strvs	r6, [sp, -r3, ror #22]!
    a094:	00632e63 	rsbeq	r2, r3, r3, ror #28
    a098:	00653c70 	rsbeq	r3, r5, r0, ror ip
    a09c:	67696c61 	strbvs	r6, [r9, -r1, ror #24]!
    a0a0:	2864656e 	stmdacs	r4!, {r1, r2, r3, r5, r6, r8, sl, sp, lr}^
    a0a4:	29342c70 	ldmdbcs	r4!, {r4, r5, r6, sl, fp, sp}
    a0a8:	00000000 	andeq	r0, r0, r0
    a0ac:	67696c61 	strbvs	r6, [r9, -r1, ror #24]!
    a0b0:	2864656e 	stmdacs	r4!, {r1, r2, r3, r5, r6, r8, sl, sp, lr}^
    a0b4:	29342c65 	ldmdbcs	r4!, {r0, r2, r5, r6, sl, fp, sp}
    a0b8:	00000000 	andeq	r0, r0, r0
    a0bc:	43415254 	movtmi	r5, #4692	; 0x1254
    a0c0:	6e693a45 	vnmulvs.f32	s7, s18, s10
    a0c4:	72627320 	rsbvc	r7, r2, #32, 6	; 0x80000000
    a0c8:	00000a6b 	andeq	r0, r0, fp, ror #20
    a0cc:	72636e69 	rsbvc	r6, r3, #1680	; 0x690
    a0d0:	6e656d65 	cdpvs	13, 6, cr6, cr5, cr5, {3}
    a0d4:	203e2074 	eorscs	r2, lr, r4, ror r0
    a0d8:	00000030 	andeq	r0, r0, r0, lsr r0
    a0dc:	494e4150 	stmdbmi	lr, {r4, r6, r8, lr}^
    a0e0:	73253a43 			; <UNDEFINED> instruction: 0x73253a43
    a0e4:	3a73253a 	bcc	1cd35d4 <__bss_end__+0x1cc8bfc>
    a0e8:	6e3a6425 	cdpvs	4, 3, cr6, cr10, cr5, {1}
    a0ec:	6820746f 	stmdavs	r0!, {r0, r1, r2, r3, r5, r6, sl, ip, sp, lr}
    a0f0:	6c646e61 	stclvs	14, cr6, [r4], #-388	; 0xfffffe7c
    a0f4:	0a676e69 	beq	19e5aa0 <__bss_end__+0x19db0c8>
    a0f8:	0000000a 	andeq	r0, r0, sl
    a0fc:	43415254 	movtmi	r5, #4692	; 0x1254
    a100:	614d3a45 	cmpvs	sp, r5, asr #20
    a104:	6e696b72 	vmovvs.8	d9[7], r6
    a108:	2e2e2e67 	cdpcs	14, 2, cr2, cr14, cr7, {3}
    a10c:	00000000 	andeq	r0, r0, r0
    a110:	656e6f44 	strbvs	r6, [lr, #-3908]!	; 0xfffff0bc
    a114:	00000a21 	andeq	r0, r0, r1, lsr #20
    a118:	494e4150 	stmdbmi	lr, {r4, r6, r8, lr}^
    a11c:	73253a43 			; <UNDEFINED> instruction: 0x73253a43
    a120:	3a73253a 	bcc	1cd3610 <__bss_end__+0x1cc8c38>
    a124:	473a6425 	ldrmi	r6, [sl, -r5, lsr #8]!
    a128:	73203a43 			; <UNDEFINED> instruction: 0x73203a43
    a12c:	6c756f68 	ldclvs	15, cr6, [r5], #-416	; 0xfffffe60
    a130:	61682064 	cmnvs	r8, r4, rrx
    a134:	6e206576 	mcrvs	5, 1, r6, cr0, cr6, {3}
    a138:	656c206f 	strbvs	r2, [ip, #-111]!	; 0xffffff91
    a13c:	21736b61 	cmncs	r3, r1, ror #22
    a140:	00000a0a 	andeq	r0, r0, sl, lsl #20
    a144:	43415254 	movtmi	r5, #4692	; 0x1254
    a148:	43473a45 	movtmi	r3, #31301	; 0x7a45
    a14c:	5553203a 	ldrbpl	r2, [r3, #-58]	; 0xffffffc6
    a150:	53454343 	movtpl	r4, #21315	; 0x5343
    a154:	6e203a53 			; <UNDEFINED> instruction: 0x6e203a53
    a158:	656c206f 	strbvs	r2, [ip, #-111]!	; 0xffffff91
    a15c:	21736b61 	cmncs	r3, r1, ror #22
    a160:	0000000a 	andeq	r0, r0, sl
    a164:	494e4150 	stmdbmi	lr, {r4, r6, r8, lr}^
    a168:	73253a43 			; <UNDEFINED> instruction: 0x73253a43
    a16c:	3a73253a 	bcc	1cd365c <__bss_end__+0x1cc8c84>
    a170:	473a6425 	ldrmi	r6, [sl, -r5, lsr #8]!
    a174:	73203a43 			; <UNDEFINED> instruction: 0x73203a43
    a178:	6c756f68 	ldclvs	15, cr6, [r5], #-416	; 0xfffffe60
    a17c:	61682064 	cmnvs	r8, r4, rrx
    a180:	6c206576 	cfstr32vs	mvfx6, [r0], #-472	; 0xfffffe28
    a184:	736b6165 	cmnvc	fp, #1073741849	; 0x40000019
    a188:	000a0a21 	andeq	r0, sl, r1, lsr #20
    a18c:	43415254 	movtmi	r5, #4692	; 0x1254
    a190:	43473a45 	movtmi	r3, #31301	; 0x7a45
    a194:	5553203a 	ldrbpl	r2, [r3, #-58]	; 0xffffffc6
    a198:	53454343 	movtpl	r4, #21315	; 0x5343
    a19c:	66203a53 			; <UNDEFINED> instruction: 0x66203a53
    a1a0:	646e756f 	strbtvs	r7, [lr], #-1391	; 0xfffffa91
    a1a4:	20642520 	rsbcs	r2, r4, r0, lsr #10
    a1a8:	6b61656c 	blvs	1863760 <__bss_end__+0x1858d88>
    a1ac:	000a2173 	andeq	r2, sl, r3, ror r1
    a1b0:	494e4150 	stmdbmi	lr, {r4, r6, r8, lr}^
    a1b4:	73253a43 			; <UNDEFINED> instruction: 0x73253a43
    a1b8:	3a73253a 	bcc	1cd36a8 <__bss_end__+0x1cc8cd0>
    a1bc:	643a6425 	ldrtvs	r6, [sl], #-1061	; 0xfffffbdb
    a1c0:	6e206469 	cdpvs	4, 2, cr6, cr0, cr9, {3}
    a1c4:	6920746f 	stmdbvs	r0!, {r0, r1, r2, r3, r5, r6, sl, ip, sp, lr}
    a1c8:	656c706d 	strbvs	r7, [ip, #-109]!	; 0xffffff93
    a1cc:	746e656d 	strbtvc	r6, [lr], #-1389	; 0xfffffa93
    a1d0:	6d756420 	cfldrdvs	mvd6, [r5, #-128]!	; 0xffffff80
    a1d4:	65725f70 	ldrbvs	r5, [r2, #-3952]!	; 0xfffff090
    a1d8:	0a217367 	beq	866f7c <__bss_end__+0x85c5a4>
    a1dc:	0000000a 	andeq	r0, r0, sl

0000a1e0 <__FUNCTION__.4033>:
    a1e0:	6b72616d 	blvs	1ca279c <__bss_end__+0x1c97dc4>
    a1e4:	00000000 	andeq	r0, r0, r0

0000a1e8 <__FUNCTION__.4020>:
    a1e8:	6b726273 	blvs	1ca2bbc <__bss_end__+0x1c981e4>
    a1ec:	00000000 	andeq	r0, r0, r0

0000a1f0 <__FUNCTION__.4078>:
    a1f0:	63656863 	cmnvs	r5, #6488064	; 0x630000
    a1f4:	6f6e5f6b 	svcvs	0x006e5f6b
    a1f8:	61656c5f 	cmnvs	r5, pc, asr ip
    a1fc:	0000006b 	andeq	r0, r0, fp, rrx

0000a200 <__FUNCTION__.4083>:
    a200:	63656863 	cmnvs	r5, #6488064	; 0x630000
    a204:	68735f6b 	ldmdavs	r3!, {r0, r1, r3, r5, r6, r8, r9, sl, fp, ip, lr}^
    a208:	646c756f 	strbtvs	r7, [ip], #-1391	; 0xfffffa91
    a20c:	61656c5f 	cmnvs	r5, pc, asr ip
    a210:	0000006b 	andeq	r0, r0, fp, rrx

0000a214 <__FUNCTION__.4101>:
    a214:	6c706d69 	ldclvs	13, cr6, [r0], #-420	; 0xfffffe5c
    a218:	6e656d65 	cdpvs	13, 6, cr6, cr5, cr5, {3}
    a21c:	68745f74 	ldmdavs	r4!, {r2, r4, r5, r6, r8, r9, sl, fp, ip, lr}^
    a220:	00007369 	andeq	r7, r0, r9, ror #6
    a224:	696c2f2e 	stmdbvs	ip!, {r1, r2, r3, r5, r8, r9, sl, fp, sp}^
    a228:	762f6362 	strtvc	r6, [pc], -r2, ror #6
    a22c:	72702d61 	rsbsvc	r2, r0, #6208	; 0x1840
    a230:	6b746e69 	blvs	1d25bdc <__bss_end__+0x1d1b204>
    a234:	0000632e 	andeq	r6, r0, lr, lsr #6
    a238:	33323130 	teqcc	r2, #12
    a23c:	37363534 			; <UNDEFINED> instruction: 0x37363534
    a240:	00003938 	andeq	r3, r0, r8, lsr r9
    a244:	33323130 	teqcc	r2, #12
    a248:	37363534 			; <UNDEFINED> instruction: 0x37363534
    a24c:	62613938 	rsbvs	r3, r1, #56, 18	; 0xe0000
    a250:	66656463 	strbtvs	r6, [r5], -r3, ror #8
    a254:	00000000 	andeq	r0, r0, r0
    a258:	00003130 	andeq	r3, r0, r0, lsr r1
    a25c:	63747570 	cmnvs	r4, #112, 10	; 0x1c000000
    a260:	0070665f 	rsbseq	r6, r0, pc, asr r6
    a264:	74646977 	strbtvc	r6, [r4], #-2423	; 0xfffff689
    a268:	203c2068 	eorscs	r2, ip, r8, rrx
    a26c:	00003233 	andeq	r3, r0, r3, lsr r2
    a270:	00786c6c 	rsbseq	r6, r8, ip, ror #24
    a274:	00646c6c 	rsbeq	r6, r4, ip, ror #24
    a278:	253d3078 	ldrcs	r3, [sp, #-120]!	; 0xffffff88
    a27c:	00000a78 	andeq	r0, r0, r8, ror sl
    a280:	253d3178 	ldrcs	r3, [sp, #-376]!	; 0xfffffe88
    a284:	00000a78 	andeq	r0, r0, r8, ror sl
    a288:	6e727473 	mrcvs	4, 3, r7, cr2, cr3, {3}
    a28c:	28706d63 	ldmdacs	r0!, {r0, r1, r5, r6, r8, sl, fp, sp, lr}^
    a290:	202c7974 	eorcs	r7, ip, r4, ror r9
    a294:	786c6c22 	stmdavc	ip!, {r1, r5, sl, fp, sp, lr}^
    a298:	33202c22 			; <UNDEFINED> instruction: 0x33202c22
    a29c:	3d3d2029 	ldccc	0, cr2, [sp, #-164]!	; 0xffffff5c
    a2a0:	7c203020 	stcvc	0, cr3, [r0], #-128	; 0xffffff80
    a2a4:	7473207c 	ldrbtvc	r2, [r3], #-124	; 0xffffff84
    a2a8:	6d636e72 	stclvs	14, cr6, [r3, #-456]!	; 0xfffffe38
    a2ac:	79742870 	ldmdbvc	r4!, {r4, r5, r6, fp, sp}^
    a2b0:	6c22202c 	stcvs	0, cr2, [r2], #-176	; 0xffffff50
    a2b4:	2c22646c 	cfstrscs	mvf6, [r2], #-432	; 0xfffffe50
    a2b8:	20293320 	eorcs	r3, r9, r0, lsr #6
    a2bc:	30203d3d 	eorcc	r3, r0, sp, lsr sp
    a2c0:	00000000 	andeq	r0, r0, r0
    a2c4:	494e4150 	stmdbmi	lr, {r4, r6, r8, lr}^
    a2c8:	73253a43 			; <UNDEFINED> instruction: 0x73253a43
    a2cc:	3a73253a 	bcc	1cd37bc <__bss_end__+0x1cc8de4>
    a2d0:	693a6425 	ldmdbvs	sl!, {r0, r2, r5, sl, sp, lr}
    a2d4:	736f706d 	cmnvc	pc, #109, 0	; 0x6d
    a2d8:	6c626973 			; <UNDEFINED> instruction: 0x6c626973
    a2dc:	66203a65 	strtvs	r3, [r0], -r5, ror #20
    a2e0:	3c3d746d 	cfldrscc	mvf7, [sp], #-436	; 0xfffffe4c
    a2e4:	0a3e7325 	beq	fa6f80 <__bss_end__+0xf9c5a8>
    a2e8:	0000000a 	andeq	r0, r0, sl
    a2ec:	494e4150 	stmdbmi	lr, {r4, r6, r8, lr}^
    a2f0:	73253a43 			; <UNDEFINED> instruction: 0x73253a43
    a2f4:	3a73253a 	bcc	1cd37e4 <__bss_end__+0x1cc8e0c>
    a2f8:	663a6425 	ldrtvs	r6, [sl], -r5, lsr #8
    a2fc:	74616f6c 	strbtvc	r6, [r1], #-3948	; 0xfffff094
    a300:	746f6e20 	strbtvc	r6, [pc], #-3616	; a308 <__FUNCTION__.4101+0xf4>
    a304:	616e6520 	cmnvs	lr, r0, lsr #10
    a308:	64656c62 	strbtvs	r6, [r5], #-3170	; 0xfffff39e
    a30c:	0a212121 	beq	852798 <__bss_end__+0x847dc0>
    a310:	00000000 	andeq	r0, r0, r0
    a314:	6e697270 	mcrvs	2, 3, r7, cr9, cr0, {3}
    a318:	203a6b74 	eorscs	r6, sl, r4, ror fp
    a31c:	20746f6e 	rsbscs	r6, r4, lr, ror #30
    a320:	646e6168 	strbtvs	r6, [lr], #-360	; 0xfffffe98
    a324:	676e696c 	strbvs	r6, [lr, -ip, ror #18]!
    a328:	65707320 	ldrbvs	r7, [r0, #-800]!	; 0xfffffce0
    a32c:	69666963 	stmdbvs	r6!, {r0, r1, r5, r6, r8, fp, sp, lr}^
    a330:	27207265 	strcs	r7, [r0, -r5, ror #4]!
    a334:	20276325 	eorcs	r6, r7, r5, lsr #6
    a338:	63736128 	cmnvs	r3, #10
    a33c:	253d6969 	ldrcs	r6, [sp, #-2409]!	; 0xfffff697
    a340:	000a2964 	andeq	r2, sl, r4, ror #18
    a344:	494e4150 	stmdbmi	lr, {r4, r6, r8, lr}^
    a348:	73253a43 			; <UNDEFINED> instruction: 0x73253a43
    a34c:	3a73253a 	bcc	1cd383c <__bss_end__+0x1cc8e64>
    a350:	703a6425 	eorsvc	r6, sl, r5, lsr #8
    a354:	746e6972 	strbtvc	r6, [lr], #-2418	; 0xfffff68e
    a358:	7265206b 	rsbvc	r2, r5, #107, 0	; 0x6b
    a35c:	0a726f72 	beq	1ca612c <__bss_end__+0x1c9b754>
    a360:	0000000a 	andeq	r0, r0, sl

0000a364 <__FUNCTION__.4008>:
    a364:	74696d65 	strbtvc	r6, [r9], #-3429	; 0xfffff29b
    a368:	00000000 	andeq	r0, r0, r0

0000a36c <__FUNCTION__.3956>:
    a36c:	5f697072 	svcpl	0x00697072
    a370:	5f746573 	svcpl	0x00746573
    a374:	7074756f 	rsbsvc	r7, r4, pc, ror #10
    a378:	00007475 	andeq	r7, r0, r5, ror r4

0000a37c <__FUNCTION__.4034>:
    a37c:	705f6176 	subsvc	r6, pc, r6, ror r1	; <UNPREDICTABLE>
    a380:	746e6972 	strbtvc	r6, [lr], #-2418	; 0xfffff68e
    a384:	0000006b 	andeq	r0, r0, fp, rrx
    a388:	454e4f44 	strbmi	r4, [lr, #-3908]	; 0xfffff0bc
    a38c:	0a212121 	beq	852818 <__bss_end__+0x847e40>
    a390:	00000000 	andeq	r0, r0, r0
    a394:	6c616d6b 	stclvs	13, cr6, [r1], #-428	; 0xfffffe54
    a398:	2e636f6c 	cdpcs	15, 6, cr6, cr3, cr12, {3}
    a39c:	00000063 	andeq	r0, r0, r3, rrx
    a3a0:	5f78616d 	svcpl	0x0078616d
    a3a4:	7479626e 	ldrbtvc	r6, [r9], #-622	; 0xfffffd92
    a3a8:	00007365 	andeq	r7, r0, r5, ror #6
    a3ac:	494e4150 	stmdbmi	lr, {r4, r6, r8, lr}^
    a3b0:	73253a43 			; <UNDEFINED> instruction: 0x73253a43
    a3b4:	3a73253a 	bcc	1cd38a4 <__bss_end__+0x1cc8ecc>
    a3b8:	733a6425 	teqvc	sl, #620756992	; 0x25000000
    a3bc:	69747465 	ldmdbvs	r4!, {r0, r2, r5, r6, sl, ip, sp, lr}^
    a3c0:	6820676e 	stmdavs	r0!, {r1, r2, r3, r5, r6, r8, r9, sl, sp, lr}
    a3c4:	20706165 	rsbscs	r6, r0, r5, ror #2
    a3c8:	25206f74 	strcs	r6, [r0, #-3956]!	; 0xfffff08c
    a3cc:	77203a70 			; <UNDEFINED> instruction: 0x77203a70
    a3d0:	206c6c69 	rsbcs	r6, ip, r9, ror #24
    a3d4:	20746968 	rsbscs	r6, r4, r8, ror #18
    a3d8:	20656874 	rsbcs	r6, r5, r4, ror r8
    a3dc:	20646c6f 	rsbcs	r6, r4, pc, ror #24
    a3e0:	70616568 	rsbvc	r6, r1, r8, ror #10
    a3e4:	20746120 	rsbscs	r6, r4, r0, lsr #2
    a3e8:	0a0a7025 	beq	2a6484 <__bss_end__+0x29baac>
    a3ec:	00000000 	andeq	r0, r0, r0
    a3f0:	494e4150 	stmdbmi	lr, {r4, r6, r8, lr}^
    a3f4:	73253a43 			; <UNDEFINED> instruction: 0x73253a43
    a3f8:	3a73253a 	bcc	1cd38e8 <__bss_end__+0x1cc8f10>
    a3fc:	613a6425 	teqvs	sl, r5, lsr #8
    a400:	6165726c 	cmnvs	r5, ip, ror #4
    a404:	63207964 			; <UNDEFINED> instruction: 0x63207964
    a408:	656c6c61 	strbvs	r6, [ip, #-3169]!	; 0xfffff39f
    a40c:	6d6b2064 	stclvs	0, cr2, [fp, #-400]!	; 0xfffffe70
    a410:	6f6c6c61 	svcvs	0x006c6c61
    a414:	6e695f63 	cdpvs	15, 6, cr5, cr9, cr3, {3}
    a418:	0a0a7469 	beq	2a75c4 <__bss_end__+0x29cbec>
    a41c:	00000000 	andeq	r0, r0, r0
    a420:	494e4150 	stmdbmi	lr, {r4, r6, r8, lr}^
    a424:	73253a43 			; <UNDEFINED> instruction: 0x73253a43
    a428:	3a73253a 	bcc	1cd3918 <__bss_end__+0x1cc8f40>
    a42c:	253a6425 	ldrcs	r6, [sl, #-1061]!	; 0xfffffbdb
    a430:	626e2064 	rsbvs	r2, lr, #100, 0	; 0x64
    a434:	73657479 	cmnvc	r5, #2030043136	; 0x79000000
    a438:	63786520 	cmnvs	r8, #32, 10	; 0x8000000
    a43c:	65646565 	strbvs	r6, [r4, #-1381]!	; 0xfffffa9b
    a440:	69732064 	ldmdbvs	r3!, {r2, r5, r6, sp}^
    a444:	6f20657a 	svcvs	0x0020657a
    a448:	65682066 	strbvs	r2, [r8, #-102]!	; 0xffffff9a
    a44c:	62207061 	eorvs	r7, r0, #97, 0	; 0x61
    a450:	75252079 	strvc	r2, [r5, #-121]!	; 0xffffff87
    a454:	79626e20 	stmdbvc	r2!, {r5, r9, sl, fp, sp, lr}^
    a458:	0a736574 	beq	1ce3a30 <__bss_end__+0x1cd9058>
    a45c:	0000000a 	andeq	r0, r0, sl
    a460:	4f525245 	svcmi	0x00525245
    a464:	73253a52 			; <UNDEFINED> instruction: 0x73253a52
    a468:	3a73253a 	bcc	1cd3958 <__bss_end__+0x1cc8f80>
    a46c:	203a6425 	eorscs	r6, sl, r5, lsr #8
    a470:	534c4146 	movtpl	r4, #49478	; 0xc146
    a474:	253c2845 	ldrcs	r2, [ip, #-2117]!	; 0xfffff7bb
    a478:	3a293e73 	bcc	a59e4c <__bss_end__+0xa4f474>
    a47c:	73736120 	cmnvc	r3, #8
    a480:	6e696d75 	mcrvs	13, 3, r6, cr9, cr5, {3}
    a484:	6f702067 	svcvs	0x00702067
    a488:	20726577 	rsbscs	r6, r2, r7, ror r5
    a48c:	7420666f 	strtvc	r6, [r0], #-1647	; 0xfffff991
    a490:	000a6f77 	andeq	r6, sl, r7, ror pc
    a494:	705f7369 	subsvc	r7, pc, r9, ror #6
    a498:	2832776f 	ldmdacs	r2!, {r0, r1, r2, r3, r5, r6, r8, r9, sl, ip, sp, lr}
    a49c:	67696c61 	strbvs	r6, [r9, -r1, ror #24]!
    a4a0:	6e656d6e 	cdpvs	13, 6, cr6, cr5, cr14, {3}
    a4a4:	00002974 	andeq	r2, r0, r4, ror r9
    a4a8:	705f7369 	subsvc	r7, pc, r9, ror #6
    a4ac:	2832776f 	ldmdacs	r2!, {r0, r1, r2, r3, r5, r6, r8, r9, sl, ip, sp, lr}
    a4b0:	0000296e 	andeq	r2, r0, lr, ror #18
    a4b4:	4f525245 	svcmi	0x00525245
    a4b8:	73253a52 			; <UNDEFINED> instruction: 0x73253a52
    a4bc:	3a73253a 	bcc	1cd39ac <__bss_end__+0x1cc8fd4>
    a4c0:	203a6425 	eorscs	r6, sl, r5, lsr #8
    a4c4:	534c4146 	movtpl	r4, #49478	; 0xc146
    a4c8:	253c2845 	ldrcs	r2, [ip, #-2117]!	; 0xfffff7bb
    a4cc:	3a293e73 	bcc	a59ea0 <__bss_end__+0xa4f4c8>
    a4d0:	706d6920 	rsbvc	r6, sp, r0, lsr #18
    a4d4:	6973736f 	ldmdbvs	r3!, {r0, r1, r2, r3, r5, r6, r8, r9, ip, sp, lr}^
    a4d8:	0a656c62 	beq	1965668 <__bss_end__+0x195ac90>
    a4dc:	00000000 	andeq	r0, r0, r0
    a4e0:	615f7369 	cmpvs	pc, r9, ror #6
    a4e4:	6e67696c 	vnmulvs.f16	s13, s14, s25	; <UNPREDICTABLE>
    a4e8:	68286465 	stmdavs	r8!, {r0, r2, r5, r6, sl, sp, lr}
    a4ec:	6c61202c 	stclvs	0, cr2, [r1], #-176	; 0xffffff50
    a4f0:	6d6e6769 	stclvs	7, cr6, [lr, #-420]!	; 0xfffffe5c
    a4f4:	29746e65 	ldmdbcs	r4!, {r0, r2, r5, r6, r9, sl, fp, sp, lr}^
    a4f8:	00000000 	andeq	r0, r0, r0
    a4fc:	494e4150 	stmdbmi	lr, {r4, r6, r8, lr}^
    a500:	73253a43 			; <UNDEFINED> instruction: 0x73253a43
    a504:	3a73253a 	bcc	1cd39f4 <__bss_end__+0x1cc901c>
    a508:	703a6425 	eorsvc	r6, sl, r5, lsr #8
    a50c:	746e696f 	strbtvc	r6, [lr], #-2415	; 0xfffff691
    a510:	25207265 	strcs	r7, [r0, #-613]!	; 0xfffffd9b
    a514:	61772070 	cmnvs	r7, r0, ror r0
    a518:	656e2073 	strbvs	r2, [lr, #-115]!	; 0xffffff8d
    a51c:	20726576 	rsbscs	r6, r2, r6, ror r5
    a520:	6f6c6c61 	svcvs	0x006c6c61
    a524:	65746163 	ldrbvs	r6, [r4, #-355]!	; 0xfffffe9d
    a528:	000a0a64 	andeq	r0, sl, r4, ror #20

0000a52c <__FUNCTION__.7>:
    a52c:	6c616d6b 	stclvs	13, cr6, [r1], #-428	; 0xfffffe54
    a530:	5f636f6c 	svcpl	0x00636f6c
    a534:	74696e69 	strbtvc	r6, [r9], #-3689	; 0xfffff197
    a538:	7465735f 	strbtvc	r7, [r5], #-863	; 0xfffffca1
    a53c:	6174735f 	cmnvs	r4, pc, asr r3
    a540:	00007472 	andeq	r7, r0, r2, ror r4

0000a544 <__FUNCTION__.5>:
    a544:	6c616d6b 	stclvs	13, cr6, [r1], #-428	; 0xfffffe54
    a548:	5f636f6c 	svcpl	0x00636f6c
    a54c:	74696e69 	strbtvc	r6, [r9], #-3689	; 0xfffff197
    a550:	00000000 	andeq	r0, r0, r0

0000a554 <__FUNCTION__.4>:
    a554:	6c616d6b 	stclvs	13, cr6, [r1], #-428	; 0xfffffe54
    a558:	5f636f6c 	svcpl	0x00636f6c
    a55c:	7a746f6e 	bvc	1d2631c <__bss_end__+0x1d1b944>
    a560:	006f7265 	rsbeq	r7, pc, r5, ror #4

0000a564 <__FUNCTION__.2>:
    a564:	6c616d6b 	stclvs	13, cr6, [r1], #-428	; 0xfffffe54
    a568:	00636f6c 	rsbeq	r6, r3, ip, ror #30

0000a56c <__FUNCTION__.1>:
    a56c:	6c616d6b 	stclvs	13, cr6, [r1], #-428	; 0xfffffe54
    a570:	5f636f6c 	svcpl	0x00636f6c
    a574:	67696c61 	strbvs	r6, [r9, -r1, ror #24]!
    a578:	0064656e 	rsbeq	r6, r4, lr, ror #10

0000a57c <__FUNCTION__.3>:
    a57c:	6e756f72 	mrcvs	15, 3, r6, cr5, cr2, {3}
    a580:	00707564 	rsbseq	r7, r0, r4, ror #10

0000a584 <__FUNCTION__.0>:
    a584:	6572666b 	ldrbvs	r6, [r2, #-1643]!	; 0xfffff995
    a588:	6f705f65 	svcvs	0x00705f65
    a58c:	Address 0x000000000000a58c is out of bounds.


Disassembly of section .data:

0000a590 <putk>:
    a590:	00008cc4 	andeq	r8, r0, r4, asr #25

0000a594 <heap_end>:
    a594:	0020a9d8 	ldrdeq	sl, [r0], -r8	; <UNPREDICTABLE>

0000a598 <heap_start>:
    a598:	0000a9d8 	ldrdeq	sl, [r0], -r8

0000a59c <heap>:
    a59c:	0000a9d8 	ldrdeq	sl, [r0], -r8

0000a5a0 <rpi_putchar>:
    a5a0:	00009b48 	andeq	r9, r0, r8, asr #22

Disassembly of section .bss:

0000a5a8 <__bss_start__>:
    a5a8:	00000000 	andeq	r0, r0, r0

0000a5ac <alloc_list>:
    a5ac:	00000000 	andeq	r0, r0, r0

0000a5b0 <heap_start>:
    a5b0:	00000000 	andeq	r0, r0, r0

0000a5b4 <heap_end>:
    a5b4:	00000000 	andeq	r0, r0, r0

0000a5b8 <init_p>:
	...

0000a5c0 <freep>:
	...

0000a5c8 <base>:
	...

0000a5d0 <buf.3948>:
	...

0000a9d0 <init_p.6>:
	...

Disassembly of section .ARM.attributes:

00000000 <.ARM.attributes>:
   0:	00002a41 	andeq	r2, r0, r1, asr #20
   4:	61656100 	cmnvs	r5, r0, lsl #2
   8:	01006962 	tsteq	r0, r2, ror #18
   c:	00000020 	andeq	r0, r0, r0, lsr #32
  10:	4b5a3605 	blmi	168d82c <__bss_end__+0x1682e54>
  14:	08070600 	stmdaeq	r7, {r9, sl}
  18:	12010901 	andne	r0, r1, #16384	; 0x4000
  1c:	15011404 	strne	r1, [r1, #-1028]	; 0xfffffbfc
  20:	18031701 	stmdane	r3, {r0, r8, r9, sl, ip}
  24:	22011a01 	andcs	r1, r1, #4096	; 0x1000
  28:	Address 0x0000000000000028 is out of bounds.


Disassembly of section .comment:

00000000 <.comment>:
   0:	3a434347 	bcc	10d0d24 <__bss_end__+0x10c634c>
   4:	4e472820 	cdpmi	8, 4, cr2, cr7, cr0, {1}
   8:	6f542055 	svcvs	0x00542055
   c:	20736c6f 	rsbscs	r6, r3, pc, ror #24
  10:	20726f66 	rsbscs	r6, r2, r6, ror #30
  14:	206d7241 	rsbcs	r7, sp, r1, asr #4
  18:	65626d45 	strbvs	r6, [r2, #-3397]!	; 0xfffff2bb
  1c:	64656464 	strbtvs	r6, [r5], #-1124	; 0xfffffb9c
  20:	6f725020 	svcvs	0x00725020
  24:	73736563 	cmnvc	r3, #415236096	; 0x18c00000
  28:	2073726f 	rsbscs	r7, r3, pc, ror #4
  2c:	30322d39 	eorscc	r2, r2, r9, lsr sp
  30:	712d3931 			; <UNDEFINED> instruction: 0x712d3931
  34:	616d2d34 	cmnvs	sp, r4, lsr sp
  38:	29726f6a 	ldmdbcs	r2!, {r1, r3, r5, r6, r8, r9, sl, fp, sp, lr}^
  3c:	322e3920 	eorcc	r3, lr, #32, 18	; 0x80000
  40:	3220312e 	eorcc	r3, r0, #-2147483637	; 0x8000000b
  44:	31393130 	teqcc	r9, r0, lsr r1
  48:	20353230 	eorscs	r3, r5, r0, lsr r2
  4c:	6c657228 	sfmvs	f7, 2, [r5], #-160	; 0xffffff60
  50:	65736165 	ldrbvs	r6, [r3, #-357]!	; 0xfffffe9b
  54:	415b2029 	cmpmi	fp, r9, lsr #32
  58:	612f4d52 			; <UNDEFINED> instruction: 0x612f4d52
  5c:	392d6d72 	pushcc	{r1, r4, r5, r6, r8, sl, fp, sp, lr}
  60:	6172622d 	cmnvs	r2, sp, lsr #4
  64:	2068636e 	rsbcs	r6, r8, lr, ror #6
  68:	69766572 	ldmdbvs	r6!, {r1, r4, r5, r6, r8, sl, sp, lr}^
  6c:	6e6f6973 			; <UNDEFINED> instruction: 0x6e6f6973
  70:	37373220 	ldrcc	r3, [r7, -r0, lsr #4]!
  74:	5d393935 			; <UNDEFINED> instruction: 0x5d393935
  78:	43434700 	movtmi	r4, #14080	; 0x3700
  7c:	4728203a 			; <UNDEFINED> instruction: 0x4728203a
  80:	4120554e 			; <UNDEFINED> instruction: 0x4120554e
  84:	45206d72 	strmi	r6, [r0, #-3442]!	; 0xfffff28e
  88:	6465626d 	strbtvs	r6, [r5], #-621	; 0xfffffd93
  8c:	20646564 	rsbcs	r6, r4, r4, ror #10
  90:	6c6f6f54 	stclvs	15, cr6, [pc], #-336	; ffffff48 <__bss_end__+0xffff5570>
  94:	69616863 	stmdbvs	r1!, {r0, r1, r5, r6, fp, sp, lr}^
  98:	3031206e 	eorscc	r2, r1, lr, rrx
  9c:	322d332e 	eorcc	r3, sp, #-1207959552	; 0xb8000000
  a0:	2e313230 	mrccs	2, 1, r3, cr1, cr0, {1}
  a4:	20293031 	eorcs	r3, r9, r1, lsr r0
  a8:	332e3031 			; <UNDEFINED> instruction: 0x332e3031
  ac:	3220312e 	eorcc	r3, r0, #-2147483637	; 0x8000000b
  b0:	30313230 	eorscc	r3, r1, r0, lsr r2
  b4:	20343238 	eorscs	r3, r4, r8, lsr r2
  b8:	6c657228 	sfmvs	f7, 2, [r5], #-160	; 0xffffff60
  bc:	65736165 	ldrbvs	r6, [r3, #-357]!	; 0xfffffe9b
  c0:	Address 0x00000000000000c0 is out of bounds.


Disassembly of section .debug_info:

00000000 <.debug_info>:
       0:	000003f1 	strdeq	r0, [r0], -r1
       4:	00000004 	andeq	r0, r0, r4
       8:	01040000 	mrseq	r0, (UNDEF: 4)
       c:	00000194 	muleq	r0, r4, r1
      10:	0000d70c 	andeq	sp, r0, ip, lsl #14
      14:	0000fc00 	andeq	pc, r0, r0, lsl #24
      18:	00803800 	addeq	r3, r0, r0, lsl #16
      1c:	0000ec00 	andeq	lr, r0, r0, lsl #24
      20:	00000000 	andeq	r0, r0, r0
      24:	05040200 	streq	r0, [r4, #-512]	; 0xfffffe00
      28:	00746e69 	rsbseq	r6, r4, r9, ror #28
      2c:	ca070403 	bgt	1c1040 <__bss_end__+0x1b6668>
      30:	03000000 	movweq	r0, #0
      34:	005a0601 	subseq	r0, sl, r1, lsl #12
      38:	02030000 	andeq	r0, r3, #0, 0
      3c:	00016e05 	andeq	r6, r1, r5, lsl #28
      40:	05040300 	streq	r0, [r4, #-768]	; 0xfffffd00
      44:	00000159 	andeq	r0, r0, r9, asr r1
      48:	54050803 	strpl	r0, [r5], #-2051	; 0xfffff7fd
      4c:	03000001 	movweq	r0, #1
      50:	00580801 	subseq	r0, r8, r1, lsl #16
      54:	82040000 	andhi	r0, r4, #0, 0
      58:	03000001 	movweq	r0, #1
      5c:	00621931 	rsbeq	r1, r2, r1, lsr r9
      60:	02030000 	andeq	r0, r3, #0, 0
      64:	00007307 	andeq	r7, r0, r7, lsl #6
      68:	018b0400 	orreq	r0, fp, r0, lsl #8
      6c:	34030000 	strcc	r0, [r3], #-0
      70:	00007519 	andeq	r7, r0, r9, lsl r5
      74:	07040300 	streq	r0, [r4, -r0, lsl #6]
      78:	000000c5 	andeq	r0, r0, r5, asr #1
      7c:	c0070803 	andgt	r0, r7, r3, lsl #16
      80:	05000000 	streq	r0, [r0, #-0]
      84:	00000025 	andeq	r0, r0, r5, lsr #32
      88:	00000092 	muleq	r0, r2, r0
      8c:	00002506 	andeq	r2, r0, r6, lsl #10
      90:	62070000 	andvs	r0, r7, #0, 0
      94:	04000001 	streq	r0, [r0], #-1
      98:	009e0e1c 	addseq	r0, lr, ip, lsl lr
      9c:	04080000 	streq	r0, [r8], #-0
      a0:	00000083 	andeq	r0, r0, r3, lsl #1
      a4:	00002505 	andeq	r2, r0, r5, lsl #10
      a8:	0000b300 	andeq	fp, r0, r0, lsl #6
      ac:	00b30600 	adcseq	r0, r3, r0, lsl #12
      b0:	08000000 	stmdaeq	r0, {}	; <UNPREDICTABLE>
      b4:	0000c004 	andeq	ip, r0, r4
      b8:	08010300 	stmdaeq	r1, {r8, r9}
      bc:	00000061 	andeq	r0, r0, r1, rrx
      c0:	0000b909 	andeq	fp, r0, r9, lsl #18
      c4:	06500700 	ldrbeq	r0, [r0], -r0, lsl #14
      c8:	21040000 	mrscs	r0, (UNDEF: 4)
      cc:	0000d10e 	andeq	sp, r0, lr, lsl #2
      d0:	a4040800 	strge	r0, [r4], #-2048	; 0xfffff800
      d4:	0a000000 	beq	dc <__code_start__-0x7f24>
      d8:	0904020c 	stmdbeq	r4, {r2, r3, r9}
      dc:	00000108 	andeq	r0, r0, r8, lsl #2
      e0:	0000530b 	andeq	r5, r0, fp, lsl #6
      e4:	11060200 	mrsne	r0, LR_usr
      e8:	000000b3 	strheq	r0, [r0], -r3
      ec:	00940b00 	addseq	r0, r4, r0, lsl #22
      f0:	07020000 	streq	r0, [r2, -r0]
      f4:	0000b311 	andeq	fp, r0, r1, lsl r3
      f8:	240b0400 	strcs	r0, [fp], #-1024	; 0xfffffc00
      fc:	02000000 	andeq	r0, r0, #0, 0
     100:	002c0e08 	eoreq	r0, ip, r8, lsl #28
     104:	00080000 	andeq	r0, r8, r0
     108:	00017804 	andeq	r7, r1, r4, lsl #16
     10c:	03090200 	movweq	r0, #37376	; 0x9200
     110:	000000d7 	ldrdeq	r0, [r0], -r7
     114:	0000860c 	andeq	r8, r0, ip, lsl #12
     118:	0f052400 	svceq	0x00052400
     11c:	00018a10 	andeq	r8, r1, r0, lsl sl
     120:	000e0b00 	andeq	r0, lr, r0, lsl #22
     124:	10050000 	andne	r0, r5, r0
     128:	00018a14 	andeq	r8, r1, r4, lsl sl
     12c:	460b0000 	strmi	r0, [fp], -r0
     130:	05000000 	streq	r0, [r0, #-0]
     134:	00690e11 	rsbeq	r0, r9, r1, lsl lr
     138:	0b040000 	bleq	100140 <__bss_end__+0xf5768>
     13c:	00000013 	andeq	r0, r0, r3, lsl r0
     140:	690e1205 	stmdbvs	lr, {r0, r2, r9, ip}
     144:	08000000 	stmdaeq	r0, {}	; <UNPREDICTABLE>
     148:	0000eb0b 	andeq	lr, r0, fp, lsl #22
     14c:	0f140500 	svceq	0x00140500
     150:	00000108 	andeq	r0, r0, r8, lsl #2
     154:	02490b0c 	subeq	r0, r9, #12, 22	; 0x3000
     158:	17050000 	strne	r0, [r5, -r0]
     15c:	0000690e 	andeq	r6, r0, lr, lsl #18
     160:	590b1800 	stmdbpl	fp, {fp, ip}
     164:	05000002 	streq	r0, [r0, #-2]
     168:	00690e18 	rsbeq	r0, r9, r8, lsl lr
     16c:	0b1c0000 	bleq	700174 <__bss_end__+0x6f579c>
     170:	0000002b 	andeq	r0, r0, fp, lsr #32
     174:	560e1a05 	strpl	r1, [lr], -r5, lsl #20
     178:	20000000 	andcs	r0, r0, r0
     17c:	0000f50b 	andeq	pc, r0, fp, lsl #10
     180:	0b1b0500 	bleq	6c1588 <__bss_end__+0x6b6bb0>
     184:	00000056 	andeq	r0, r0, r6, asr r0
     188:	04080022 	streq	r0, [r8], #-34	; 0xffffffde
     18c:	00000114 	andeq	r0, r0, r4, lsl r1
     190:	00000804 	andeq	r0, r0, r4, lsl #16
     194:	031c0500 	tsteq	ip, #0, 10
     198:	00000114 	andeq	r0, r0, r4, lsl r1
     19c:	0000a60d 	andeq	sl, r0, sp, lsl #12
     1a0:	0f1e0500 	svceq	0x001e0500
     1a4:	000001a8 	andeq	r0, r0, r8, lsr #3
     1a8:	01900408 	orrseq	r0, r0, r8, lsl #8
     1ac:	b10e0000 	mrslt	r0, (UNDEF: 14)
     1b0:	05000000 	streq	r0, [r0, #-0]
     1b4:	01a80f1f 			; <UNDEFINED> instruction: 0x01a80f1f
     1b8:	0f000000 	svceq	0x00000000
     1bc:	00301004 	eorseq	r1, r0, r4
     1c0:	24010000 	strcs	r0, [r1], #-0
     1c4:	0080fc06 	addeq	pc, r0, r6, lsl #24
     1c8:	00002800 	andeq	r2, r0, r0, lsl #16
     1cc:	079c0100 	ldreq	r0, [ip, r0, lsl #2]
     1d0:	11000002 	tstne	r0, r2
     1d4:	00008108 	andeq	r8, r0, r8, lsl #2
     1d8:	000003af 	andeq	r0, r0, pc, lsr #7
     1dc:	000001ea 	andeq	r0, r0, sl, ror #3
     1e0:	05500112 	ldrbeq	r0, [r0, #-274]	; 0xfffffeee
     1e4:	009d9c03 	addseq	r9, sp, r3, lsl #24
     1e8:	0c130000 	ldceq	0, cr0, [r3], {-0}
     1ec:	07000081 	streq	r0, [r0, -r1, lsl #1]
     1f0:	14000002 	strne	r0, [r0], #-2
     1f4:	00008118 	andeq	r8, r0, r8, lsl r1
     1f8:	000003af 	andeq	r0, r0, pc, lsr #7
     1fc:	05500112 	ldrbeq	r0, [r0, #-274]	; 0xfffffeee
     200:	009dd803 	addseq	sp, sp, r3, lsl #16
     204:	15000000 	strne	r0, [r0, #-0]
     208:	000000bb 	strheq	r0, [r0], -fp
     20c:	bb070801 	bllt	1c2218 <__bss_end__+0x1b7840>
     210:	38000001 	stmdacc	r0, {r0}
     214:	c4000080 	strgt	r0, [r0], #-128	; 0xffffff80
     218:	01000000 	mrseq	r0, (UNDEF: 0)
     21c:	00035e9c 	muleq	r3, ip, lr
     220:	062d0c00 	strteq	r0, [sp], -r0, lsl #24
     224:	010c0000 	mrseq	r0, (UNDEF: 12)
     228:	02540c09 	subseq	r0, r4, #2304	; 0x900
     22c:	78160000 	ldmdavc	r6, {}	; <UNPREDICTABLE>
     230:	0d0a0100 	stfeqs	f0, [sl, #-0]
     234:	00000025 	andeq	r0, r0, r5, lsr #32
     238:	000e0b00 	andeq	r0, lr, r0, lsl #22
     23c:	0b010000 	bleq	40244 <__bss_end__+0x3586c>
     240:	00035e16 	andeq	r5, r3, r6, lsl lr
     244:	540b0400 	strpl	r0, [fp], #-1024	; 0xfffffc00
     248:	01000002 	tsteq	r0, r2
     24c:	035e160c 	cmpeq	lr, #12, 12	; 0xc00000
     250:	00080000 	andeq	r0, r8, r0
     254:	01006817 	tsteq	r0, r7, lsl r8
     258:	035e080d 	cmpeq	lr, #851968	; 0xd0000
     25c:	000a0000 	andeq	r0, sl, r0
     260:	00000000 	andeq	r0, r0, r0
     264:	99180000 	ldmdbls	r8, {}	; <UNPREDICTABLE>
     268:	74000000 	strvc	r0, [r0], #-0
     26c:	05000003 	streq	r0, [r0, #-3]
     270:	009de803 	addseq	lr, sp, r3, lsl #16
     274:	00001900 	andeq	r1, r0, r0, lsl #18
     278:	03540000 	cmpeq	r4, #0, 0
     27c:	69170000 	ldmdbvs	r7, {}	; <UNPREDICTABLE>
     280:	0d0f0100 	stfeqs	f0, [pc, #-0]	; 288 <__code_start__-0x7d78>
     284:	00000025 	andeq	r0, r0, r5, lsr #32
     288:	0000004e 	andeq	r0, r0, lr, asr #32
     28c:	0000004a 	andeq	r0, r0, sl, asr #32
     290:	0000181a 	andeq	r1, r0, sl, lsl r8
     294:	00651700 	rsbeq	r1, r5, r0, lsl #14
     298:	5e161001 	cdppl	0, 1, cr1, cr6, cr1, {0}
     29c:	73000003 	movwvc	r0, #3
     2a0:	6d000000 	stcvs	0, cr0, [r0, #-0]
     2a4:	1b000000 	blne	2ac <__code_start__-0x7d54>
     2a8:	00000379 	andeq	r0, r0, r9, ror r3
     2ac:	0000807c 	andeq	r8, r0, ip, ror r0
     2b0:	00807c01 	addeq	r7, r0, r1, lsl #24
     2b4:	00001800 	andeq	r1, r0, r0, lsl #16
     2b8:	1a100100 	bne	4006c0 <__bss_end__+0x3f5ce8>
     2bc:	000002e8 	andeq	r0, r0, r8, ror #5
     2c0:	0003a21c 	andeq	sl, r3, ip, lsl r2
     2c4:	00009e00 	andeq	r9, r0, r0, lsl #28
     2c8:	00009c00 	andeq	r9, r0, r0, lsl #24
     2cc:	03961c00 	orrseq	r1, r6, #0, 24
     2d0:	00b40000 	adcseq	r0, r4, r0
     2d4:	00b20000 	adcseq	r0, r2, r0
     2d8:	8a1c0000 	bhi	7002e0 <__bss_end__+0x6f5908>
     2dc:	ce000003 	cdpgt	0, 0, cr0, cr0, cr3, {0}
     2e0:	cc000000 	stcgt	0, cr0, [r0], {-0}
     2e4:	00000000 	andeq	r0, r0, r0
     2e8:	00806811 	addeq	r6, r0, r1, lsl r8
     2ec:	0003af00 	andeq	sl, r3, r0, lsl #30
     2f0:	00031c00 	andeq	r1, r3, r0, lsl #24
     2f4:	50011200 	andpl	r1, r1, r0, lsl #4
     2f8:	9d7c0305 	ldclls	3, cr0, [ip, #-20]!	; 0xffffffec
     2fc:	01120000 	tsteq	r2, r0
     300:	5c910351 	ldcpl	3, cr0, [r1], {81}	; 0x51
     304:	52011206 	andpl	r1, r1, #1610612736	; 0x60000000
     308:	06609103 	strbteq	r9, [r0], -r3, lsl #2
     30c:	01530112 	cmpeq	r3, r2, lsl r1
     310:	7d021244 	sfmvc	f1, 4, [r2, #-272]	; 0xfffffef0
     314:	90030500 	andls	r0, r3, r0, lsl #10
     318:	0000009d 	muleq	r0, sp, r0
     31c:	00806c13 	addeq	r6, r0, r3, lsl ip
     320:	0003c400 	andeq	ip, r3, r0, lsl #8
     324:	80a41100 	adchi	r1, r4, r0, lsl #2
     328:	03d00000 	bicseq	r0, r0, #0, 0
     32c:	03380000 	teqeq	r8, #0, 0
     330:	01120000 	tsteq	r2, r0
     334:	003c0150 	eorseq	r0, ip, r0, asr r1
     338:	0080b414 	addeq	fp, r0, r4, lsl r4
     33c:	0003dc00 	andeq	sp, r3, r0, lsl #24
     340:	50011200 	andpl	r1, r1, r0, lsl #4
     344:	12007402 	andne	r7, r0, #33554432	; 0x2000000
     348:	30015101 	andcc	r5, r1, r1, lsl #2
     34c:	01520112 	cmpeq	r2, r2, lsl r1
     350:	0000003c 	andeq	r0, r0, ip, lsr r0
     354:	0080e013 	addeq	lr, r0, r3, lsl r0
     358:	0003e800 	andeq	lr, r3, r0, lsl #16
     35c:	04080000 	streq	r0, [r8], #-0
     360:	00000221 	andeq	r0, r0, r1, lsr #4
     364:	0000c01d 	andeq	ip, r0, sp, lsl r0
     368:	00037400 	andeq	r7, r3, r0, lsl #8
     36c:	002c1e00 	eoreq	r1, ip, r0, lsl #28
     370:	00040000 	andeq	r0, r4, r0
     374:	00036409 	andeq	r6, r3, r9, lsl #8
     378:	00191f00 	andseq	r1, r9, r0, lsl #30
     37c:	0c020000 	stceq	0, cr0, [r2], {-0}
     380:	0001080b 	andeq	r0, r1, fp, lsl #16
     384:	03af0300 			; <UNDEFINED> instruction: 0x03af0300
     388:	53200000 	noppl	{0}	; <UNPREDICTABLE>
     38c:	02000000 	andeq	r0, r0, #0, 0
     390:	00b3220c 	adcseq	r2, r3, ip, lsl #4
     394:	94200000 	strtls	r0, [r0], #-0
     398:	02000000 	andeq	r0, r0, #0, 0
     39c:	00b3340c 	adcseq	r3, r3, ip, lsl #8
     3a0:	24200000 	strtcs	r0, [r0], #-0
     3a4:	02000000 	andeq	r0, r0, #0, 0
     3a8:	002c430c 	eoreq	r4, ip, ip, lsl #6
     3ac:	21000000 	mrscs	r0, (UNDEF: 0)
     3b0:	00000612 	andeq	r0, r0, r2, lsl r6
     3b4:	00000612 	andeq	r0, r0, r2, lsl r6
     3b8:	22062804 	andcs	r2, r6, #4, 16	; 0x40000
     3bc:	74059e07 	strvc	r9, [r5], #-3591	; 0xfffff1f9
     3c0:	00747365 	rsbseq	r7, r4, r5, ror #6
     3c4:	00006621 	andeq	r6, r0, r1, lsr #12
     3c8:	00006600 	andeq	r6, r0, r0, lsl #12
     3cc:	066e0400 	strbteq	r0, [lr], -r0, lsl #8
     3d0:	00000021 	andeq	r0, r0, r1, lsr #32
     3d4:	00000000 	andeq	r0, r0, r0
     3d8:	08390500 	ldmdaeq	r9!, {r8, sl}
     3dc:	00008d21 	andeq	r8, r0, r1, lsr #26
     3e0:	00008d00 	andeq	r8, r0, r0, lsl #26
     3e4:	07f70400 	ldrbeq	r0, [r7, r0, lsl #8]!
     3e8:	00003821 	andeq	r3, r0, r1, lsr #16
     3ec:	00003800 	andeq	r3, r0, r0, lsl #16
     3f0:	065d0500 	ldrbeq	r0, [sp], -r0, lsl #10
     3f4:	0008bf00 	andeq	fp, r8, r0, lsl #30
     3f8:	e5000400 	str	r0, [r0, #-1024]	; 0xfffffc00
     3fc:	04000001 	streq	r0, [r0], #-1
     400:	00019401 	andeq	r9, r1, r1, lsl #8
     404:	02d70c00 	sbcseq	r0, r7, #0, 24
     408:	00fc0000 	rscseq	r0, ip, r0
     40c:	81240000 			; <UNDEFINED> instruction: 0x81240000
     410:	03ac0000 			; <UNDEFINED> instruction: 0x03ac0000
     414:	01fa0000 	mvnseq	r0, r0
     418:	04020000 	streq	r0, [r2], #-0
     41c:	746e6905 	strbtvc	r6, [lr], #-2309	; 0xfffff6fb
     420:	07040300 	streq	r0, [r4, -r0, lsl #6]
     424:	000000ca 	andeq	r0, r0, sl, asr #1
     428:	5a060103 	bpl	18083c <__bss_end__+0x175e64>
     42c:	03000000 	movweq	r0, #0
     430:	016e0502 	cmneq	lr, r2, lsl #10
     434:	04030000 	streq	r0, [r3], #-0
     438:	00015905 	andeq	r5, r1, r5, lsl #18
     43c:	05080300 	streq	r0, [r8, #-768]	; 0xfffffd00
     440:	00000154 	andeq	r0, r0, r4, asr r1
     444:	58080103 	stmdapl	r8, {r0, r1, r8}
     448:	04000000 	streq	r0, [r0], #-0
     44c:	00000182 	andeq	r0, r0, r2, lsl #3
     450:	62193103 	andsvs	r3, r9, #-1073741824	; 0xc0000000
     454:	03000000 	movweq	r0, #0
     458:	00730702 	rsbseq	r0, r3, r2, lsl #14
     45c:	8b040000 	blhi	100464 <__bss_end__+0xf5a8c>
     460:	03000001 	movweq	r0, #1
     464:	00751934 	rsbseq	r1, r5, r4, lsr r9
     468:	04030000 	streq	r0, [r3], #-0
     46c:	0000c507 	andeq	ip, r0, r7, lsl #10
     470:	07080300 	streq	r0, [r8, -r0, lsl #6]
     474:	000000c0 	andeq	r0, r0, r0, asr #1
     478:	00002505 	andeq	r2, r0, r5, lsl #10
     47c:	00009200 	andeq	r9, r0, r0, lsl #4
     480:	00250600 	eoreq	r0, r5, r0, lsl #12
     484:	07000000 	streq	r0, [r0, -r0]
     488:	00000162 	andeq	r0, r0, r2, ror #2
     48c:	9e0e1c04 	cdpls	12, 0, cr1, cr14, cr4, {0}
     490:	08000000 	stmdaeq	r0, {}	; <UNPREDICTABLE>
     494:	00008304 	andeq	r8, r0, r4, lsl #6
     498:	00250500 	eoreq	r0, r5, r0, lsl #10
     49c:	00b30000 	adcseq	r0, r3, r0
     4a0:	b3060000 	movwlt	r0, #24576	; 0x6000
     4a4:	00000000 	andeq	r0, r0, r0
     4a8:	00c00408 	sbceq	r0, r0, r8, lsl #8
     4ac:	01030000 	mrseq	r0, (UNDEF: 3)
     4b0:	00006108 	andeq	r6, r0, r8, lsl #2
     4b4:	00b90900 	adcseq	r0, r9, r0, lsl #18
     4b8:	50070000 	andpl	r0, r7, r0
     4bc:	04000006 	streq	r0, [r0], #-6
     4c0:	00d10e21 	sbcseq	r0, r1, r1, lsr #28
     4c4:	04080000 	streq	r0, [r8], #-0
     4c8:	000000a4 	andeq	r0, r0, r4, lsr #1
     4cc:	04050c0a 	streq	r0, [r5], #-3082	; 0xfffff3f6
     4d0:	00010809 	andeq	r0, r1, r9, lsl #16
     4d4:	00530b00 	subseq	r0, r3, r0, lsl #22
     4d8:	06050000 	streq	r0, [r5], -r0
     4dc:	0000b311 	andeq	fp, r0, r1, lsl r3
     4e0:	940b0000 	strls	r0, [fp], #-0
     4e4:	05000000 	streq	r0, [r0, #-0]
     4e8:	00b31107 	adcseq	r1, r3, r7, lsl #2
     4ec:	0b040000 	bleq	1004f4 <__bss_end__+0xf5b1c>
     4f0:	00000024 	andeq	r0, r0, r4, lsr #32
     4f4:	2c0e0805 	stccs	8, cr0, [lr], {5}
     4f8:	08000000 	stmdaeq	r0, {}	; <UNPREDICTABLE>
     4fc:	01780400 	cmneq	r8, r0, lsl #8
     500:	09050000 	stmdbeq	r5, {}	; <UNPREDICTABLE>
     504:	0000d703 	andeq	sp, r0, r3, lsl #14
     508:	01070c00 	tsteq	r7, r0, lsl #24
     50c:	0000004f 	andeq	r0, r0, pc, asr #32
     510:	2f0e0c02 	svccs	0x000e0c02
     514:	0d000001 	stceq	0, cr0, [r0, #-4]
     518:	000002fa 	strdeq	r0, [r0], -sl
     51c:	027f0d0b 	rsbseq	r0, pc, #704	; 0x2c0
     520:	000c0000 	andeq	r0, ip, r0
     524:	0000860e 	andeq	r8, r0, lr, lsl #12
     528:	0f022400 	svceq	0x00022400
     52c:	0001a510 	andeq	sl, r1, r0, lsl r5
     530:	000e0b00 	andeq	r0, lr, r0, lsl #22
     534:	10020000 	andne	r0, r2, r0
     538:	0001a514 	andeq	sl, r1, r4, lsl r5
     53c:	460b0000 	strmi	r0, [fp], -r0
     540:	02000000 	andeq	r0, r0, #0, 0
     544:	00690e11 	rsbeq	r0, r9, r1, lsl lr
     548:	0b040000 	bleq	100550 <__bss_end__+0xf5b78>
     54c:	00000013 	andeq	r0, r0, r3, lsl r0
     550:	690e1202 	stmdbvs	lr, {r1, r9, ip}
     554:	08000000 	stmdaeq	r0, {}	; <UNPREDICTABLE>
     558:	0000eb0b 	andeq	lr, r0, fp, lsl #22
     55c:	0f140200 	svceq	0x00140200
     560:	00000108 	andeq	r0, r0, r8, lsl #2
     564:	02490b0c 	subeq	r0, r9, #12, 22	; 0x3000
     568:	17020000 	strne	r0, [r2, -r0]
     56c:	0000690e 	andeq	r6, r0, lr, lsl #18
     570:	590b1800 	stmdbpl	fp, {fp, ip}
     574:	02000002 	andeq	r0, r0, #2, 0
     578:	00690e18 	rsbeq	r0, r9, r8, lsl lr
     57c:	0b1c0000 	bleq	700584 <__bss_end__+0x6f5bac>
     580:	0000002b 	andeq	r0, r0, fp, lsr #32
     584:	560e1a02 	strpl	r1, [lr], -r2, lsl #20
     588:	20000000 	andcs	r0, r0, r0
     58c:	0000f50b 	andeq	pc, r0, fp, lsl #10
     590:	0b1b0200 	bleq	6c0d98 <__bss_end__+0x6b63c0>
     594:	00000056 	andeq	r0, r0, r6, asr r0
     598:	04080022 	streq	r0, [r8], #-34	; 0xffffffde
     59c:	0000012f 	andeq	r0, r0, pc, lsr #2
     5a0:	00000804 	andeq	r0, r0, r4, lsl #16
     5a4:	031c0200 	tsteq	ip, #0, 4
     5a8:	0000012f 	andeq	r0, r0, pc, lsr #2
     5ac:	0000a60f 	andeq	sl, r0, pc, lsl #12
     5b0:	0f1e0200 	svceq	0x001e0200
     5b4:	000001c9 	andeq	r0, r0, r9, asr #3
     5b8:	a5ac0305 	strge	r0, [ip, #773]!	; 0x305
     5bc:	04080000 	streq	r0, [r8], #-0
     5c0:	000001ab 	andeq	r0, r0, fp, lsr #3
     5c4:	0000b10f 	andeq	fp, r0, pc, lsl #2
     5c8:	0f1f0200 	svceq	0x001f0200
     5cc:	000001c9 	andeq	r0, r0, r9, asr #3
     5d0:	a5a80305 	strge	r0, [r8, #773]!	; 0x305
     5d4:	04100000 	ldreq	r0, [r0], #-0
     5d8:	00000011 	andeq	r0, r0, r1, lsl r0
     5dc:	08770100 	ldmdaeq	r7!, {r8}^
     5e0:	000001e1 	andeq	r0, r0, r1, ror #3
     5e4:	00008434 	andeq	r8, r0, r4, lsr r4
     5e8:	0000009c 	muleq	r0, ip, r0
     5ec:	02bd9c01 	adcseq	r9, sp, #256	; 0x100
     5f0:	1d120000 	ldcne	0, cr0, [r2, #-0]
     5f4:	01000003 	tsteq	r0, r3
     5f8:	00691a77 	rsbeq	r1, r9, r7, ror sl
     5fc:	00ec0000 	rsceq	r0, ip, r0
     600:	00e60000 	rsceq	r0, r6, r0
     604:	6c130000 	ldcvs	0, cr0, [r3], {-0}
     608:	2c770100 	ldfcse	f0, [r7], #-0
     60c:	00000108 	andeq	r0, r0, r8, lsl #2
     610:	14649102 	strbtne	r9, [r4], #-258	; 0xfffffefe
     614:	79010068 	stmdbvc	r1, {r3, r5, r6}
     618:	0001c90c 	andeq	ip, r1, ip, lsl #18
     61c:	00011e00 	andeq	r1, r1, r0, lsl #28
     620:	00011800 	andeq	r1, r1, r0, lsl #16
     624:	84501500 	ldrbhi	r1, [r0], #-1280	; 0xfffffb00
     628:	08860000 	stmeq	r6, {}	; <UNPREDICTABLE>
     62c:	02440000 	subeq	r0, r4, #0, 0
     630:	01160000 	tsteq	r6, r0
     634:	24760250 	ldrbtcs	r0, [r6], #-592	; 0xfffffdb0
     638:	84601500 	strbthi	r1, [r0], #-1280	; 0xfffffb00
     63c:	08920000 	ldmeq	r2, {}	; <UNPREDICTABLE>
     640:	02630000 	rsbeq	r0, r3, #0, 0
     644:	01160000 	tsteq	r6, r0
     648:	00740250 	rsbseq	r0, r4, r0, asr r2
     64c:	01510116 	cmpeq	r1, r6, lsl r1
     650:	52011630 	andpl	r1, r1, #48, 12	; 0x3000000
     654:	00240802 	eoreq	r0, r4, r2, lsl #16
     658:	00849815 	addeq	r9, r4, r5, lsl r8
     65c:	00089e00 	andeq	r9, r8, r0, lsl #28
     660:	00028f00 	andeq	r8, r2, r0, lsl #30
     664:	50011600 	andpl	r1, r1, r0, lsl #12
     668:	9e740305 	cdpls	3, 7, cr0, cr4, cr5, {0}
     66c:	01160000 	tsteq	r6, r0
     670:	00750351 	rsbseq	r0, r5, r1, asr r3
     674:	52011606 	andpl	r1, r1, #6291456	; 0x600000
     678:	06609103 	strbteq	r9, [r0], -r3, lsl #2
     67c:	03530116 	cmpeq	r3, #-2147483643	; 0x80000005
     680:	00066491 	muleq	r6, r1, r4
     684:	0084a815 	addeq	sl, r4, r5, lsl r8
     688:	00089e00 	andeq	r9, r8, r0, lsl #28
     68c:	0002ac00 	andeq	sl, r2, r0, lsl #24
     690:	50011600 	andpl	r1, r1, r0, lsl #12
     694:	9ec80305 	cdpls	3, 12, cr0, cr8, cr5, {0}
     698:	01160000 	tsteq	r6, r0
     69c:	00750251 	rsbseq	r0, r5, r1, asr r2
     6a0:	84b81700 	ldrthi	r1, [r8], #1792	; 0x700
     6a4:	06ac0000 	strteq	r0, [ip], r0
     6a8:	01160000 	tsteq	r6, r0
     6ac:	00740251 	rsbseq	r0, r4, r1, asr r2
     6b0:	a6180000 	ldrge	r0, [r8], -r0
     6b4:	01000002 	tsteq	r0, r2
     6b8:	83180767 	tsthi	r8, #27000832	; 0x19c0000
     6bc:	011c0000 	tsteq	ip, r0
     6c0:	9c010000 	stcls	0, cr0, [r1], {-0}
     6c4:	00000485 	andeq	r0, r0, r5, lsl #9
     6c8:	000acf12 	andeq	ip, sl, r2, lsl pc
     6cc:	15670100 	strbne	r0, [r7, #-256]!	; 0xffffff00
     6d0:	000001e1 	andeq	r0, r0, r1, ror #3
     6d4:	0000014d 	andeq	r0, r0, sp, asr #2
     6d8:	00000149 	andeq	r0, r0, r9, asr #2
     6dc:	01006c13 	tsteq	r0, r3, lsl ip
     6e0:	01082567 	tsteq	r8, r7, ror #10
     6e4:	91020000 	mrsls	r0, (UNDEF: 2)
     6e8:	00681464 	rsbeq	r1, r8, r4, ror #8
     6ec:	c90c6801 	stmdbgt	ip, {r0, fp, sp, lr}
     6f0:	73000001 	movwvc	r0, #1
     6f4:	6b000001 	blvs	700 <__code_start__-0x7900>
     6f8:	19000001 	stmdbne	r0, {r0}
     6fc:	00000099 	muleq	r0, r9, r0
     700:	00000495 	muleq	r0, r5, r4
     704:	9ef00305 	cdpls	3, 15, cr0, cr0, cr5, {0}
     708:	50150000 	andspl	r0, r5, r0
     70c:	9e000083 	cdpls	0, 0, cr0, cr0, cr3, {4}
     710:	41000008 	tstmi	r0, r8
     714:	16000003 	strne	r0, [r0], -r3
     718:	03055001 	movweq	r5, #20481	; 0x5001
     71c:	00009e74 	andeq	r9, r0, r4, ror lr
     720:	03510116 	cmpeq	r1, #-2147483643	; 0x80000005
     724:	16065c91 			; <UNDEFINED> instruction: 0x16065c91
     728:	91035201 	tstls	r3, r1, lsl #4
     72c:	01160660 	tsteq	r6, r0, ror #12
     730:	64910353 	ldrvs	r0, [r1], #851	; 0x353
     734:	5c150006 	ldcpl	0, cr0, [r5], {6}
     738:	9e000083 	cdpls	0, 0, cr0, cr0, cr3, {4}
     73c:	5e000008 	cdppl	0, 0, cr0, cr0, cr8, {0}
     740:	16000003 	strne	r0, [r0], -r3
     744:	03055001 	movweq	r5, #20481	; 0x5001
     748:	00009e80 	andeq	r9, r0, r0, lsl #29
     74c:	02510116 	subseq	r0, r1, #-2147483643	; 0x80000005
     750:	15000074 	strne	r0, [r0, #-116]	; 0xffffff8c
     754:	00008364 	andeq	r8, r0, r4, ror #6
     758:	0000049a 	muleq	r0, sl, r4
     75c:	00000372 	andeq	r0, r0, r2, ror r3
     760:	02500116 	subseq	r0, r0, #-2147483643	; 0x80000005
     764:	15000074 	strne	r0, [r0, #-116]	; 0xffffff8c
     768:	00008384 	andeq	r8, r0, r4, lsl #7
     76c:	00000767 	andeq	r0, r0, r7, ror #14
     770:	00000386 	andeq	r0, r0, r6, lsl #7
     774:	02510116 	subseq	r0, r1, #-2147483643	; 0x80000005
     778:	15000075 	strne	r0, [r0, #-117]	; 0xffffff8b
     77c:	0000838c 	andeq	r8, r0, ip, lsl #7
     780:	0000049a 	muleq	r0, sl, r4
     784:	0000039a 	muleq	r0, sl, r3
     788:	02500116 	subseq	r0, r0, #-2147483643	; 0x80000005
     78c:	15000074 	strne	r0, [r0, #-116]	; 0xffffff8c
     790:	0000839c 	muleq	r0, ip, r3
     794:	000008aa 	andeq	r0, r0, sl, lsr #17
     798:	000003ae 	andeq	r0, r0, lr, lsr #7
     79c:	02500116 	subseq	r0, r0, #-2147483643	; 0x80000005
     7a0:	15000075 	strne	r0, [r0, #-117]	; 0xffffff8b
     7a4:	000083b8 			; <UNDEFINED> instruction: 0x000083b8
     7a8:	0000089e 	muleq	r0, lr, r8
     7ac:	000003da 	ldrdeq	r0, [r0], -sl
     7b0:	05500116 	ldrbeq	r0, [r0, #-278]	; 0xfffffeea
     7b4:	009e2c03 	addseq	r2, lr, r3, lsl #24
     7b8:	51011600 	tstpl	r1, r0, lsl #12
     7bc:	065c9103 	ldrbeq	r9, [ip], -r3, lsl #2
     7c0:	03520116 	cmpeq	r2, #-2147483643	; 0x80000005
     7c4:	16066091 			; <UNDEFINED> instruction: 0x16066091
     7c8:	91035301 	tstls	r3, r1, lsl #6
     7cc:	15000664 	strne	r0, [r0, #-1636]	; 0xfffff99c
     7d0:	000083c8 	andeq	r8, r0, r8, asr #7
     7d4:	0000089e 	muleq	r0, lr, r8
     7d8:	000003f7 	strdeq	r0, [r0], -r7
     7dc:	05500116 	ldrbeq	r0, [r0, #-278]	; 0xfffffeea
     7e0:	009e4403 	addseq	r4, lr, r3, lsl #8
     7e4:	51011600 	tstpl	r1, r0, lsl #12
     7e8:	00007402 	andeq	r7, r0, r2, lsl #8
     7ec:	0083cc1a 	addeq	ip, r3, sl, lsl ip
     7f0:	0008b600 	andeq	fp, r8, r0, lsl #12
     7f4:	83e81500 	mvnhi	r1, #0, 10
     7f8:	089e0000 	ldmeq	lr, {}	; <UNPREDICTABLE>
     7fc:	04390000 	ldrteq	r0, [r9], #-0
     800:	01160000 	tsteq	r6, r0
     804:	7c030550 	cfstr32vc	mvfx0, [r3], {80}	; 0x50
     808:	1600009d 			; <UNDEFINED> instruction: 0x1600009d
     80c:	03055101 	movweq	r5, #20737	; 0x5101
     810:	00009df0 	strdeq	r9, [r0], -r0
     814:	05520116 	ldrbeq	r0, [r2, #-278]	; 0xfffffeea
     818:	009ef003 	addseq	pc, lr, r3
     81c:	53011600 	movwpl	r1, #5632	; 0x1600
     820:	166d0802 	strbtne	r0, [sp], -r2, lsl #16
     824:	05007d02 	streq	r7, [r0, #-3330]	; 0xfffff2fe
     828:	009e8c03 	addseq	r8, lr, r3, lsl #24
     82c:	ec1a0000 	ldc	0, cr0, [sl], {-0}
     830:	b6000083 	strlt	r0, [r0], -r3, lsl #1
     834:	15000008 	strne	r0, [r0, #-8]
     838:	00008408 	andeq	r8, r0, r8, lsl #8
     83c:	0000089e 	muleq	r0, lr, r8
     840:	0000047b 	andeq	r0, r0, fp, ror r4
     844:	05500116 	ldrbeq	r0, [r0, #-278]	; 0xfffffeea
     848:	009d7c03 	addseq	r7, sp, r3, lsl #24
     84c:	51011600 	tstpl	r1, r0, lsl #12
     850:	9df00305 	ldclls	3, cr0, [r0, #20]!
     854:	01160000 	tsteq	r6, r0
     858:	f0030552 			; <UNDEFINED> instruction: 0xf0030552
     85c:	1600009e 			; <UNDEFINED> instruction: 0x1600009e
     860:	08025301 	stmdaeq	r2, {r0, r8, r9, ip, lr}
     864:	7d021670 	stcvc	6, cr1, [r2, #-448]	; 0xfffffe40
     868:	ac030500 	cfstr32ge	mvfx0, [r3], {-0}
     86c:	0000009e 	muleq	r0, lr, r0
     870:	00840c1a 	addeq	r0, r4, sl, lsl ip
     874:	0008b600 	andeq	fp, r8, r0, lsl #12
     878:	c01b0000 	andsgt	r0, fp, r0
     87c:	95000000 	strls	r0, [r0, #-0]
     880:	1c000004 	stcne	0, cr0, [r0], {4}
     884:	0000002c 	andeq	r0, r0, ip, lsr #32
     888:	85090006 	strhi	r0, [r9, #-6]
     88c:	11000004 	tstne	r0, r4
     890:	000002b9 			; <UNDEFINED> instruction: 0x000002b9
     894:	c9085b01 	stmdbgt	r8, {r0, r8, r9, fp, ip, lr}
     898:	c8000001 	stmdagt	r0, {r0}
     89c:	50000082 	andpl	r0, r0, r2, lsl #1
     8a0:	01000000 	mrseq	r0, (UNDEF: 0)
     8a4:	0005189c 	muleq	r5, ip, r8
     8a8:	74701d00 	ldrbtvc	r1, [r0], #-3328	; 0xfffff300
     8ac:	5b010072 	blpl	40a7c <__bss_end__+0x360a4>
     8b0:	0001e120 	andeq	lr, r1, r0, lsr #2
     8b4:	0001af00 	andeq	sl, r1, r0, lsl #30
     8b8:	0001ab00 	andeq	sl, r1, r0, lsl #22
     8bc:	82d01e00 	sbcshi	r1, r0, #0, 28
     8c0:	00400000 	subeq	r0, r0, r0
     8c4:	68140000 	ldmdavs	r4, {}	; <UNPREDICTABLE>
     8c8:	105c0100 	subsne	r0, ip, r0, lsl #2
     8cc:	000001c9 	andeq	r0, r0, r9, asr #3
     8d0:	000001d5 	ldrdeq	r0, [r0], -r5
     8d4:	000001cd 	andeq	r0, r0, sp, asr #3
     8d8:	0082d41a 	addeq	sp, r2, sl, lsl r4
     8dc:	00069600 	andeq	r9, r6, r0, lsl #12
     8e0:	82e41500 	rschi	r1, r4, #0, 10
     8e4:	06690000 	strbteq	r0, [r9], -r0
     8e8:	05000000 	streq	r0, [r0, #-0]
     8ec:	01160000 	tsteq	r6, r0
     8f0:	00740250 	rsbseq	r0, r4, r0, asr r2
     8f4:	82fc1700 	rscshi	r1, ip, #0, 14
     8f8:	05180000 	ldreq	r0, [r8, #-0]
     8fc:	01160000 	tsteq	r6, r0
     900:	00740250 	rsbseq	r0, r4, r0, asr r2
     904:	02510116 	subseq	r0, r1, #-2147483643	; 0x80000005
     908:	00000075 	andeq	r0, r0, r5, ror r0
     90c:	02651100 	rsbeq	r1, r5, #0
     910:	53010000 	movwpl	r0, #4096	; 0x1000
     914:	00002c0a 	andeq	r2, r0, sl, lsl #24
     918:	00829000 	addeq	r9, r2, r0
     91c:	00003800 	andeq	r3, r0, r0, lsl #16
     920:	539c0100 	orrspl	r0, ip, #0
     924:	1d000005 	stcne	0, cr0, [r0, #-20]	; 0xffffffec
     928:	53010068 	movwpl	r0, #4200	; 0x1068
     92c:	0001c921 	andeq	ip, r1, r1, lsr #18
     930:	00021300 	andeq	r1, r2, r0, lsl #6
     934:	00020900 	andeq	r0, r2, r0, lsl #18
     938:	74701300 	ldrbtvc	r1, [r0], #-768	; 0xfffffd00
     93c:	53010072 	movwpl	r0, #4210	; 0x1072
     940:	0001e12a 	andeq	lr, r1, sl, lsr #2
     944:	00510100 	subseq	r0, r1, r0, lsl #2
     948:	0002e111 	andeq	lr, r2, r1, lsl r1
     94c:	08480100 	stmdaeq	r8, {r8}^
     950:	000001c9 	andeq	r0, r0, r9, asr #3
     954:	0000827c 	andeq	r8, r0, ip, ror r2
     958:	00000014 	andeq	r0, r0, r4, lsl r0
     95c:	05a09c01 	streq	r9, [r0, #3073]!	; 0xc01
     960:	701d0000 	andsvc	r0, sp, r0
     964:	01007274 	tsteq	r0, r4, ror r2
     968:	01c91b48 	biceq	r1, r9, r8, asr #22
     96c:	025e0000 	subseq	r0, lr, #0, 0
     970:	025a0000 	subseq	r0, sl, #0, 0
     974:	841e0000 	ldrhi	r0, [lr], #-0
     978:	08000082 	stmdaeq	r0, {r1, r7}
     97c:	1f000000 	svcne	0x00000000
     980:	0000000e 	andeq	r0, r0, lr
     984:	c90a4a01 	stmdbgt	sl, {r0, r9, fp, lr}
     988:	81000001 	tsthi	r0, r1
     98c:	7f000002 	svcvc	0x00000002
     990:	00000002 	andeq	r0, r0, r2
     994:	02ed1100 	rsceq	r1, sp, #0
     998:	43010000 	movwmi	r0, #4096	; 0x1000
     99c:	0001c908 	andeq	ip, r1, r8, lsl #18
     9a0:	00826c00 	addeq	r6, r2, r0, lsl #24
     9a4:	00001000 	andeq	r1, r0, r0
     9a8:	d89c0100 	ldmle	ip, {r8}
     9ac:	1f000005 	svcne	0x00000005
     9b0:	0000033e 	andeq	r0, r0, lr, lsr r3
     9b4:	c9094401 	stmdbgt	r9, {r0, sl, lr}
     9b8:	98000001 	stmdals	r0, {r0}
     9bc:	94000002 	strls	r0, [r0], #-2
     9c0:	1a000002 	bne	9d0 <__code_start__-0x7630>
     9c4:	00008274 	andeq	r8, r0, r4, ror r2
     9c8:	00000696 	muleq	r0, r6, r6
     9cc:	030f1100 	movweq	r1, #61696	; 0xf100
     9d0:	3f010000 	svccc	0x00010000
     9d4:	0001e107 	andeq	lr, r1, r7, lsl #2
     9d8:	00825400 	addeq	r5, r2, r0, lsl #8
     9dc:	00001800 	andeq	r1, r0, r0, lsl #16
     9e0:	3c9c0100 	ldfccs	f0, [ip], {0}
     9e4:	1d000006 	stcne	0, cr0, [r0, #-24]	; 0xffffffe8
     9e8:	3f010068 	svccc	0x00010068
     9ec:	0001c919 	andeq	ip, r1, r9, lsl r9
     9f0:	0002bc00 	andeq	fp, r2, r0, lsl #24
     9f4:	0002b800 	andeq	fp, r2, r0, lsl #16
     9f8:	086a2000 	stmdaeq	sl!, {sp}^
     9fc:	82600000 	rsbhi	r0, r0, #0, 0
     a00:	60000000 	andvs	r0, r0, r0
     a04:	04000082 	streq	r0, [r0], #-130	; 0xffffff7e
     a08:	01000000 	mrseq	r0, (UNDEF: 0)
     a0c:	062b2640 	strteq	r2, [fp], -r0, asr #12
     a10:	7b210000 	blvc	840a18 <__bss_end__+0x836040>
     a14:	dc000008 	stcle	0, cr0, [r0], {8}
     a18:	da000002 	ble	a28 <__code_start__-0x75d8>
     a1c:	00000002 	andeq	r0, r0, r2
     a20:	00826017 	addeq	r6, r2, r7, lsl r0
     a24:	00063c00 	andeq	r3, r6, r0, lsl #24
     a28:	50011600 	andpl	r1, r1, r0, lsl #12
     a2c:	00007402 	andeq	r7, r0, r2, lsl #8
     a30:	03021100 	movweq	r1, #8448	; 0x2100
     a34:	3a010000 	bcc	40a3c <__bss_end__+0x36064>
     a38:	0001e107 	andeq	lr, r1, r7, lsl #2
     a3c:	00824c00 	addeq	r4, r2, r0, lsl #24
     a40:	00000800 	andeq	r0, r0, r0, lsl #16
     a44:	699c0100 	ldmibvs	ip, {r8}
     a48:	1d000006 	stcne	0, cr0, [r0, #-24]	; 0xffffffe8
     a4c:	3a010068 	bcc	40bf4 <__bss_end__+0x3621c>
     a50:	0001c91b 	andeq	ip, r1, fp, lsl r9
     a54:	0002f300 	andeq	pc, r2, r0, lsl #6
     a58:	0002ef00 	andeq	lr, r2, r0, lsl #30
     a5c:	cb110000 	blgt	440a64 <__bss_end__+0x43608c>
     a60:	01000002 	tsteq	r0, r2
     a64:	01c90833 	biceq	r0, r9, r3, lsr r8
     a68:	81a80000 			; <UNDEFINED> instruction: 0x81a80000
     a6c:	00100000 	andseq	r0, r0, r0
     a70:	9c010000 	stcls	0, cr0, [r1], {-0}
     a74:	00000696 	muleq	r0, r6, r6
     a78:	0100701d 	tsteq	r0, sp, lsl r0
     a7c:	01c91b33 	biceq	r1, r9, r3, lsr fp
     a80:	03170000 	tsteq	r7, #0, 0
     a84:	03130000 	tsteq	r3, #0, 0
     a88:	22000000 	andcs	r0, r0, #0, 0
     a8c:	00000299 	muleq	r0, r9, r2
     a90:	c9082e01 	stmdbgt	r8, {r0, r9, sl, fp, sp}
     a94:	98000001 	stmdals	r0, {r0}
     a98:	10000081 	andne	r0, r0, r1, lsl #1
     a9c:	01000000 	mrseq	r0, (UNDEF: 0)
     aa0:	0285239c 	addeq	r2, r5, #156, 6	; 0x70000002
     aa4:	1e010000 	cdpne	0, 0, cr0, cr1, cr0, {0}
     aa8:	0081240d 	addeq	r2, r1, sp, lsl #8
     aac:	00007400 	andeq	r7, r0, r0, lsl #8
     ab0:	529c0100 	addspl	r0, ip, #0
     ab4:	1d000007 	stcne	0, cr0, [r0, #-28]	; 0xffffffe4
     ab8:	1e01006c 	cdpne	0, 0, cr0, cr1, cr12, {3}
     abc:	0001c920 	andeq	ip, r1, r0, lsr #18
     ac0:	00033c00 	andeq	r3, r3, r0, lsl #24
     ac4:	00033800 	andeq	r3, r3, r0, lsl #16
     ac8:	00681d00 	rsbeq	r1, r8, r0, lsl #26
     acc:	c92a1e01 	stmdbgt	sl!, {r0, r9, sl, fp, ip}
     ad0:	61000001 	tstvs	r0, r1
     ad4:	5d000003 	stcpl	0, cr0, [r0, #-12]
     ad8:	19000003 	stmdbne	r0, {r0, r1}
     adc:	00000099 	muleq	r0, r9, r0
     ae0:	00000762 	andeq	r0, r0, r2, ror #14
     ae4:	9ed80305 	cdpls	3, 13, cr0, cr8, cr5, {0}
     ae8:	38240000 	stmdacc	r4!, {}	; <UNPREDICTABLE>
     aec:	1f000000 	svcne	0x00000000
     af0:	00000275 	andeq	r0, r0, r5, ror r2
     af4:	c90a2601 	stmdbgt	sl, {r0, r9, sl, sp}
     af8:	84000001 	strhi	r0, [r0], #-1
     afc:	82000003 	andhi	r0, r0, #3, 0
     b00:	15000003 	strne	r0, [r0, #-3]
     b04:	00008180 	andeq	r8, r0, r0, lsl #3
     b08:	0000089e 	muleq	r0, lr, r8
     b0c:	00000747 	andeq	r0, r0, r7, asr #14
     b10:	05500116 	ldrbeq	r0, [r0, #-278]	; 0xfffffeea
     b14:	009d7c03 	addseq	r7, sp, r3, lsl #24
     b18:	51011600 	tstpl	r1, r0, lsl #12
     b1c:	9df00305 	ldclls	3, cr0, [r0, #20]!
     b20:	01160000 	tsteq	r6, r0
     b24:	d8030552 	stmdale	r3, {r1, r4, r6, r8, sl}
     b28:	1600009e 			; <UNDEFINED> instruction: 0x1600009e
     b2c:	08025301 	stmdaeq	r2, {r0, r8, r9, ip, lr}
     b30:	7d021625 	stcvc	6, cr1, [r2, #-148]	; 0xffffff6c
     b34:	fc030500 	stc2	5, cr0, [r3], {-0}
     b38:	0000009d 	muleq	r0, sp, r0
     b3c:	0081841a 	addeq	r8, r1, sl, lsl r4
     b40:	0008b600 	andeq	fp, r8, r0, lsl #12
     b44:	1b000000 	blne	b4c <__code_start__-0x74b4>
     b48:	000000c0 	andeq	r0, r0, r0, asr #1
     b4c:	00000762 	andeq	r0, r0, r2, ror #14
     b50:	00002c1c 	andeq	r2, r0, ip, lsl ip
     b54:	09000b00 	stmdbeq	r0, {r8, r9, fp}
     b58:	00000752 	andeq	r0, r0, r2, asr r7
     b5c:	0002ad23 	andeq	sl, r2, r3, lsr #26
     b60:	0d0a0100 	stfeqs	f0, [sl, #-0]
     b64:	000081b8 			; <UNDEFINED> instruction: 0x000081b8
     b68:	00000094 	muleq	r0, r4, r0
     b6c:	086a9c01 	stmdaeq	sl!, {r0, sl, fp, ip, pc}^
     b70:	6c1d0000 	ldcvs	0, cr0, [sp], {-0}
     b74:	200a0100 	andcs	r0, sl, r0, lsl #2
     b78:	000001c9 	andeq	r0, r0, r9, asr #3
     b7c:	0000039f 	muleq	r0, pc, r3	; <UNPREDICTABLE>
     b80:	00000397 	muleq	r0, r7, r3
     b84:	0100681d 	tsteq	r0, sp, lsl r8
     b88:	01c92a0a 	biceq	r2, r9, sl, lsl #20
     b8c:	03e30000 	mvneq	r0, #0, 0
     b90:	03d90000 	bicseq	r0, r9, #0, 0
     b94:	99190000 	ldmdbls	r9, {}	; <UNPREDICTABLE>
     b98:	62000000 	andvs	r0, r0, #0, 0
     b9c:	05000007 	streq	r0, [r0, #-7]
     ba0:	009ee403 	addseq	lr, lr, r3, lsl #8
     ba4:	02541f00 	subseq	r1, r4, #0, 30
     ba8:	0c010000 	stceq	0, cr0, [r1], {-0}
     bac:	0001c90c 	andeq	ip, r1, ip, lsl #18
     bb0:	00042b00 	andeq	r2, r4, r0, lsl #22
     bb4:	00042500 	andeq	r2, r4, r0, lsl #10
     bb8:	00701400 	rsbseq	r1, r0, r0, lsl #8
     bbc:	c90c1301 	stmdbgt	ip, {r0, r8, r9, ip}
     bc0:	58000001 	stmdapl	r0, {r0}
     bc4:	54000004 	strpl	r0, [r0], #-4
     bc8:	15000004 	strne	r0, [r0, #-4]
     bcc:	000081dc 	ldrdeq	r8, [r0], -ip
     bd0:	00000669 	andeq	r0, r0, r9, ror #12
     bd4:	000007ea 	andeq	r0, r0, sl, ror #15
     bd8:	02500116 	subseq	r0, r0, #-2147483643	; 0x80000005
     bdc:	15000075 	strne	r0, [r0, #-117]	; 0xffffff8b
     be0:	00008218 	andeq	r8, r0, r8, lsl r2
     be4:	0000089e 	muleq	r0, lr, r8
     be8:	00000822 	andeq	r0, r0, r2, lsr #16
     bec:	05500116 	ldrbeq	r0, [r0, #-278]	; 0xfffffeea
     bf0:	009d7c03 	addseq	r7, sp, r3, lsl #24
     bf4:	51011600 	tstpl	r1, r0, lsl #12
     bf8:	9df00305 	ldclls	3, cr0, [r0, #20]!
     bfc:	01160000 	tsteq	r6, r0
     c00:	e4030552 	str	r0, [r3], #-1362	; 0xfffffaae
     c04:	1600009e 			; <UNDEFINED> instruction: 0x1600009e
     c08:	3b015301 	blcc	55814 <__bss_end__+0x4ae3c>
     c0c:	007d0216 	rsbseq	r0, sp, r6, lsl r2
     c10:	9dfc0305 	ldclls	3, cr0, [ip, #20]!
     c14:	1a000000 	bne	c1c <__code_start__-0x73e4>
     c18:	0000821c 	andeq	r8, r0, ip, lsl r2
     c1c:	000008b6 			; <UNDEFINED> instruction: 0x000008b6
     c20:	00823415 	addeq	r3, r2, r5, lsl r4
     c24:	00089e00 	andeq	r9, r8, r0, lsl #28
     c28:	00086000 	andeq	r6, r8, r0
     c2c:	50011600 	andpl	r1, r1, r0, lsl #12
     c30:	9e000305 	cdpls	3, 0, cr0, cr0, cr5, {0}
     c34:	01160000 	tsteq	r6, r0
     c38:	f0030551 			; <UNDEFINED> instruction: 0xf0030551
     c3c:	1600009d 			; <UNDEFINED> instruction: 0x1600009d
     c40:	03055201 	movweq	r5, #20993	; 0x5201
     c44:	00009ee4 	andeq	r9, r0, r4, ror #29
     c48:	01530116 	cmpeq	r3, r6, lsl r1
     c4c:	7d02164b 	stcvc	6, cr1, [r2, #-300]	; 0xfffffed4
     c50:	00740200 	rsbseq	r0, r4, r0, lsl #4
     c54:	82381a00 	eorshi	r1, r8, #0, 20
     c58:	08b60000 	ldmeq	r6!, {}	; <UNPREDICTABLE>
     c5c:	25000000 	strcs	r0, [r0, #-0]
     c60:	0000031a 	andeq	r0, r0, sl, lsl r3
     c64:	2c182802 	ldccs	8, cr2, [r8], {2}
     c68:	03000000 	movweq	r0, #0
     c6c:	00000886 	andeq	r0, r0, r6, lsl #17
     c70:	02006826 	andeq	r6, r0, #2490368	; 0x260000
     c74:	01c92928 	biceq	r2, r9, r8, lsr #18
     c78:	27000000 	strcs	r0, [r0, -r0]
     c7c:	00000324 	andeq	r0, r0, r4, lsr #6
     c80:	00000324 	andeq	r0, r0, r4, lsr #6
     c84:	27071e06 	strcs	r1, [r7, -r6, lsl #28]
     c88:	0000008d 	andeq	r0, r0, sp, lsl #1
     c8c:	0000008d 	andeq	r0, r0, sp, lsl #1
     c90:	2707f704 	strcs	pc, [r7, -r4, lsl #14]
     c94:	00000612 	andeq	r0, r0, r2, lsl r6
     c98:	00000612 	andeq	r0, r0, r2, lsl r6
     c9c:	27062804 	strcs	r2, [r6, -r4, lsl #16]
     ca0:	00000291 	muleq	r0, r1, r2
     ca4:	00000291 	muleq	r0, r1, r2
     ca8:	27061f06 	strcs	r1, [r6, -r6, lsl #30]
     cac:	00000066 	andeq	r0, r0, r6, rrx
     cb0:	00000066 	andeq	r0, r0, r6, rrx
     cb4:	00066e04 	andeq	r6, r6, r4, lsl #28
     cb8:	00000be5 	andeq	r0, r0, r5, ror #23
     cbc:	04420004 	strbeq	r0, [r2], #-4
     cc0:	01040000 	mrseq	r0, (UNDEF: 4)
     cc4:	00000194 	muleq	r0, r4, r1
     cc8:	0004130c 	andeq	r1, r4, ip, lsl #6
     ccc:	0000fc00 	andeq	pc, r0, r0, lsl #24
     cd0:	0084d000 	addeq	sp, r4, r0
     cd4:	00059400 	andeq	r9, r5, r0, lsl #8
     cd8:	00060100 	andeq	r0, r6, r0, lsl #2
     cdc:	05040200 	streq	r0, [r4, #-512]	; 0xfffffe00
     ce0:	00746e69 	rsbseq	r6, r4, r9, ror #28
     ce4:	ca070403 	bgt	1c1cf8 <__bss_end__+0x1b7320>
     ce8:	04000000 	streq	r0, [r0], #-0
     cec:	0000002c 	andeq	r0, r0, ip, lsr #32
     cf0:	5a060103 	bpl	181104 <__bss_end__+0x17672c>
     cf4:	03000000 	movweq	r0, #0
     cf8:	016e0502 	cmneq	lr, r2, lsl #10
     cfc:	04030000 	streq	r0, [r3], #-0
     d00:	00015905 	andeq	r5, r1, r5, lsl #18
     d04:	05080300 	streq	r0, [r8, #-768]	; 0xfffffd00
     d08:	00000154 	andeq	r0, r0, r4, asr r1
     d0c:	58080103 	stmdapl	r8, {r0, r1, r8}
     d10:	05000000 	streq	r0, [r0, #-0]
     d14:	00000182 	andeq	r0, r0, r2, lsl #3
     d18:	67193102 	ldrvs	r3, [r9, -r2, lsl #2]
     d1c:	03000000 	movweq	r0, #0
     d20:	00730702 	rsbseq	r0, r3, r2, lsl #14
     d24:	8b050000 	blhi	140d2c <__bss_end__+0x136354>
     d28:	02000001 	andeq	r0, r0, #1, 0
     d2c:	007a1934 	rsbseq	r1, sl, r4, lsr r9
     d30:	04030000 	streq	r0, [r3], #-0
     d34:	0000c507 	andeq	ip, r0, r7, lsl #10
     d38:	07080300 	streq	r0, [r8, -r0, lsl #6]
     d3c:	000000c0 	andeq	r0, r0, r0, asr #1
     d40:	00002506 	andeq	r2, r0, r6, lsl #10
     d44:	00009700 	andeq	r9, r0, r0, lsl #14
     d48:	00250700 	eoreq	r0, r5, r0, lsl #14
     d4c:	08000000 	stmdaeq	r0, {}	; <UNPREDICTABLE>
     d50:	00000162 	andeq	r0, r0, r2, ror #2
     d54:	a30e1c03 	movwge	r1, #60419	; 0xec03
     d58:	09000000 	stmdbeq	r0, {}	; <UNPREDICTABLE>
     d5c:	00008804 	andeq	r8, r0, r4, lsl #16
     d60:	00250600 	eoreq	r0, r5, r0, lsl #12
     d64:	00b80000 	adcseq	r0, r8, r0
     d68:	b8070000 	stmdalt	r7, {}	; <UNPREDICTABLE>
     d6c:	00000000 	andeq	r0, r0, r0
     d70:	00c50409 	sbceq	r0, r5, r9, lsl #8
     d74:	01030000 	mrseq	r0, (UNDEF: 3)
     d78:	00006108 	andeq	r6, r0, r8, lsl #2
     d7c:	00be0400 	adcseq	r0, lr, r0, lsl #8
     d80:	50080000 	andpl	r0, r8, r0
     d84:	03000006 	movweq	r0, #6
     d88:	00d60e21 	sbcseq	r0, r6, r1, lsr #28
     d8c:	04090000 	streq	r0, [r9], #-0
     d90:	000000a9 	andeq	r0, r0, r9, lsr #1
     d94:	04040c0a 	streq	r0, [r4], #-3082	; 0xfffff3f6
     d98:	00010d09 	andeq	r0, r1, r9, lsl #26
     d9c:	00530b00 	subseq	r0, r3, r0, lsl #22
     da0:	06040000 	streq	r0, [r4], -r0
     da4:	0000b811 	andeq	fp, r0, r1, lsl r8
     da8:	940b0000 	strls	r0, [fp], #-0
     dac:	04000000 	streq	r0, [r0], #-0
     db0:	00b81107 	adcseq	r1, r8, r7, lsl #2
     db4:	0b040000 	bleq	100dbc <__bss_end__+0xf63e4>
     db8:	00000024 	andeq	r0, r0, r4, lsr #32
     dbc:	2c0e0804 	stccs	8, cr0, [lr], {4}
     dc0:	08000000 	stmdaeq	r0, {}	; <UNPREDICTABLE>
     dc4:	01780500 	cmneq	r8, r0, lsl #10
     dc8:	09040000 	stmdbeq	r4, {}	; <UNPREDICTABLE>
     dcc:	0000dc03 	andeq	sp, r0, r3, lsl #24
     dd0:	01070c00 	tsteq	r7, r0, lsl #24
     dd4:	00000054 	andeq	r0, r0, r4, asr r0
     dd8:	340e0c05 	strcc	r0, [lr], #-3077	; 0xfffff3fb
     ddc:	0d000001 	stceq	0, cr0, [r0, #-4]
     de0:	000002fa 	strdeq	r0, [r0], -sl
     de4:	027f0d0b 	rsbseq	r0, pc, #704	; 0x2c0
     de8:	000c0000 	andeq	r0, ip, r0
     dec:	0000860e 	andeq	r8, r0, lr, lsl #12
     df0:	0f052400 	svceq	0x00052400
     df4:	0001aa10 	andeq	sl, r1, r0, lsl sl
     df8:	000e0b00 	andeq	r0, lr, r0, lsl #22
     dfc:	10050000 	andne	r0, r5, r0
     e00:	0001aa14 	andeq	sl, r1, r4, lsl sl
     e04:	460b0000 	strmi	r0, [fp], -r0
     e08:	05000000 	streq	r0, [r0, #-0]
     e0c:	006e0e11 	rsbeq	r0, lr, r1, lsl lr
     e10:	0b040000 	bleq	100e18 <__bss_end__+0xf6440>
     e14:	00000013 	andeq	r0, r0, r3, lsl r0
     e18:	6e0e1205 	cdpvs	2, 0, cr1, cr14, cr5, {0}
     e1c:	08000000 	stmdaeq	r0, {}	; <UNPREDICTABLE>
     e20:	0000eb0b 	andeq	lr, r0, fp, lsl #22
     e24:	0f140500 	svceq	0x00140500
     e28:	0000010d 	andeq	r0, r0, sp, lsl #2
     e2c:	02490b0c 	subeq	r0, r9, #12, 22	; 0x3000
     e30:	17050000 	strne	r0, [r5, -r0]
     e34:	00006e0e 	andeq	r6, r0, lr, lsl #28
     e38:	590b1800 	stmdbpl	fp, {fp, ip}
     e3c:	05000002 	streq	r0, [r0, #-2]
     e40:	006e0e18 	rsbeq	r0, lr, r8, lsl lr
     e44:	0b1c0000 	bleq	700e4c <__bss_end__+0x6f6474>
     e48:	0000002b 	andeq	r0, r0, fp, lsr #32
     e4c:	5b0e1a05 	blpl	387668 <__bss_end__+0x37cc90>
     e50:	20000000 	andcs	r0, r0, r0
     e54:	0000f50b 	andeq	pc, r0, fp, lsl #10
     e58:	0b1b0500 	bleq	6c2260 <__bss_end__+0x6b7888>
     e5c:	0000005b 	andeq	r0, r0, fp, asr r0
     e60:	04090022 	streq	r0, [r9], #-34	; 0xffffffde
     e64:	00000134 	andeq	r0, r0, r4, lsr r1
     e68:	00000805 	andeq	r0, r0, r5, lsl #16
     e6c:	031c0500 	tsteq	ip, #0, 10
     e70:	00000134 	andeq	r0, r0, r4, lsr r1
     e74:	0000a60f 	andeq	sl, r0, pc, lsl #12
     e78:	0f1e0500 	svceq	0x001e0500
     e7c:	000001c8 	andeq	r0, r0, r8, asr #3
     e80:	01b00409 	lslseq	r0, r9, #8
     e84:	b1100000 	tstlt	r0, r0
     e88:	05000000 	streq	r0, [r0, #-0]
     e8c:	01c80f1f 	biceq	r0, r8, pc, lsl pc
     e90:	11000000 	mrsne	r0, (UNDEF: 0)
     e94:	0ab81204 	beq	fee056ac <__bss_end__+0xfedfacd4>
     e98:	10010000 	andne	r0, r1, r0
     e9c:	0001db0f 	andeq	sp, r1, pc, lsl #22
     ea0:	b0030500 	andlt	r0, r3, r0, lsl #10
     ea4:	120000a5 	andne	r0, r0, #165, 0	; 0xa5
     ea8:	00000b19 	andeq	r0, r0, r9, lsl fp
     eac:	db0f1101 	blle	3c52b8 <__bss_end__+0x3ba8e0>
     eb0:	05000001 	streq	r0, [r0, #-1]
     eb4:	00a5b403 	adceq	fp, r5, r3, lsl #8
     eb8:	037c1200 	cmneq	ip, #0, 4
     ebc:	12010000 	andne	r0, r1, #0, 0
     ec0:	0000250c 	andeq	r2, r0, ip, lsl #10
     ec4:	b8030500 	stmdalt	r3, {r8, sl}
     ec8:	130000a5 	movwne	r0, #165	; 0xa5
     ecc:	0000034d 	andeq	r0, r0, sp, asr #6
     ed0:	3c06ff01 	stccc	15, cr15, [r6], {1}
     ed4:	2800008a 	stmdacs	r0, {r1, r3, r7}
     ed8:	01000000 	mrseq	r0, (UNDEF: 0)
     edc:	0002729c 	muleq	r2, ip, r2
     ee0:	00991400 	addseq	r1, r9, r0, lsl #8
     ee4:	02820000 	addeq	r0, r2, #0, 0
     ee8:	03050000 	movweq	r0, #20480	; 0x5000
     eec:	0000a214 	andeq	sl, r0, r4, lsl r2
     ef0:	008a5415 	addeq	r5, sl, r5, lsl r4
     ef4:	000b7c00 	andeq	r7, fp, r0, lsl #24
     ef8:	00026800 	andeq	r6, r2, r0, lsl #16
     efc:	50011600 	andpl	r1, r1, r0, lsl #12
     f00:	a1b00305 	lslsge	r0, r5, #6
     f04:	01160000 	tsteq	r6, r0
     f08:	90030551 	andls	r0, r3, r1, asr r5
     f0c:	160000a0 	strne	r0, [r0], -r0, lsr #1
     f10:	03055201 	movweq	r5, #20993	; 0x5201
     f14:	0000a214 	andeq	sl, r0, r4, lsl r2
     f18:	03530116 	cmpeq	r3, #-2147483643	; 0x80000005
     f1c:	0001000a 	andeq	r0, r1, sl
     f20:	008a5817 	addeq	r5, sl, r7, lsl r8
     f24:	000b8800 	andeq	r8, fp, r0, lsl #16
     f28:	c5180000 	ldrgt	r0, [r8, #-0]
     f2c:	82000000 	andhi	r0, r0, #0, 0
     f30:	19000002 	stmdbne	r0, {r1}
     f34:	0000002c 	andeq	r0, r0, ip, lsr #32
     f38:	7204000e 	andvc	r0, r4, #14, 0
     f3c:	1a000002 	bne	f4c <__code_start__-0x70b4>
     f40:	000003a7 	andeq	r0, r0, r7, lsr #7
     f44:	2c0af601 	stccs	6, cr15, [sl], {1}
     f48:	2c000000 	stccs	0, cr0, [r0], {-0}
     f4c:	1000008a 	andne	r0, r0, sl, lsl #1
     f50:	01000000 	mrseq	r0, (UNDEF: 0)
     f54:	0002c89c 	muleq	r2, ip, r8
     f58:	031d1b00 	tsteq	sp, #0, 22
     f5c:	f8010000 			; <UNDEFINED> instruction: 0xf8010000
     f60:	00002c0e 	andeq	r2, r0, lr, lsl #24
     f64:	00047800 	andeq	r7, r4, r0, lsl #16
     f68:	00047600 	andeq	r7, r4, r0, lsl #12
     f6c:	8a341700 	bhi	d06b74 <__bss_end__+0xcfc19c>
     f70:	058e0000 	streq	r0, [lr]
     f74:	38170000 	ldmdacc	r7, {}	; <UNPREDICTABLE>
     f78:	c800008a 	stmdagt	r0, {r1, r3, r7}
     f7c:	00000002 	andeq	r0, r0, r2
     f80:	0004721c 	andeq	r7, r4, ip, lsl r2
     f84:	11df0100 	bicsne	r0, pc, r0, lsl #2
     f88:	0000002c 	andeq	r0, r0, ip, lsr #32
     f8c:	0000860c 	andeq	r8, r0, ip, lsl #12
     f90:	000000b8 	strheq	r0, [r0], -r8
     f94:	03c09c01 	biceq	r9, r0, #256	; 0x100
     f98:	741b0000 	ldrvc	r0, [fp], #-0
     f9c:	01000003 	tsteq	r0, r3
     fa0:	002c0be0 	eoreq	r0, ip, r0, ror #23
     fa4:	048f0000 	streq	r0, [pc], #0	; fac <__code_start__-0x7054>
     fa8:	048b0000 	streq	r0, [fp], #0
     fac:	ef1b0000 	svc	0x001b0000
     fb0:	01000003 	tsteq	r0, r3
     fb4:	002c18e0 	eoreq	r1, ip, r0, ror #17
     fb8:	04b20000 	ldrteq	r0, [r2], #0
     fbc:	04ae0000 	strteq	r0, [lr], #0
     fc0:	831b0000 	tsthi	fp, #0, 0
     fc4:	01000003 	tsteq	r0, r3
     fc8:	002c22e0 	eoreq	r2, ip, r0, ror #5
     fcc:	04d50000 	ldrbeq	r0, [r5], #0
     fd0:	04d10000 	ldrbeq	r0, [r1], #0
     fd4:	0e1b0000 	cdpeq	0, 1, cr0, cr11, cr0, {0}
     fd8:	01000004 	tsteq	r0, r4
     fdc:	01c809e4 	biceq	r0, r8, r4, ror #19
     fe0:	05020000 	streq	r0, [r2, #-0]
     fe4:	04f40000 	ldrbteq	r0, [r4], #0
     fe8:	18150000 	ldmdane	r5, {}	; <UNPREDICTABLE>
     fec:	7c000086 	stcvc	0, cr0, [r0], {134}	; 0x86
     ff0:	4900000b 	stmdbmi	r0, {r0, r1, r3}
     ff4:	16000003 	strne	r0, [r0], -r3
     ff8:	03055001 	movweq	r5, #20481	; 0x5001
     ffc:	00009ef8 	strdeq	r9, [r0], -r8
    1000:	86201500 	strthi	r1, [r0], -r0, lsl #10
    1004:	0b7c0000 	bleq	1f0100c <__bss_end__+0x1ef6634>
    1008:	03600000 	cmneq	r0, #0, 0
    100c:	01160000 	tsteq	r6, r0
    1010:	20030550 	andcs	r0, r3, r0, asr r5
    1014:	000000a0 	andeq	r0, r0, r0, lsr #1
    1018:	00862417 	addeq	r2, r6, r7, lsl r4
    101c:	000b9400 	andeq	r9, fp, r0, lsl #8
    1020:	86401500 	strbhi	r1, [r0], -r0, lsl #10
    1024:	0ba00000 	bleq	fe80102c <__bss_end__+0xfe7f6654>
    1028:	037d0000 	cmneq	sp, #0, 0
    102c:	01160000 	tsteq	r6, r0
    1030:	00740250 	rsbseq	r0, r4, r0, asr r2
    1034:	86941500 	ldrhi	r1, [r4], r0, lsl #10
    1038:	0b7c0000 	bleq	1f01040 <__bss_end__+0x1ef6668>
    103c:	039a0000 	orrseq	r0, sl, #0, 0
    1040:	01160000 	tsteq	r6, r0
    1044:	30030550 	andcc	r0, r3, r0, asr r5
    1048:	160000a0 	strne	r0, [r0], -r0, lsr #1
    104c:	74025101 	strvc	r5, [r2], #-257	; 0xfffffeff
    1050:	ac1d0000 	ldcge	0, cr0, [sp], {-0}
    1054:	7c000086 	stcvc	0, cr0, [r0], {134}	; 0x86
    1058:	1600000b 	strne	r0, [r0], -fp
    105c:	03055001 	movweq	r5, #20481	; 0x5001
    1060:	0000a05c 	andeq	sl, r0, ip, asr r0
    1064:	02510116 	subseq	r0, r1, #-2147483643	; 0x80000005
    1068:	01160075 	tsteq	r6, r5, ror r0
    106c:	00770252 	rsbseq	r0, r7, r2, asr r2
    1070:	02530116 	subseq	r0, r3, #-2147483643	; 0x80000005
    1074:	00000076 	andeq	r0, r0, r6, ror r0
    1078:	00041b1a 	andeq	r1, r4, sl, lsl fp
    107c:	0ad00100 	beq	ff401484 <__bss_end__+0xff3f6aac>
    1080:	0000002c 	andeq	r0, r0, ip, lsr #32
    1084:	000089dc 	ldrdeq	r8, [r0], -ip
    1088:	00000050 	andeq	r0, r0, r0, asr r0
    108c:	04669c01 	strbteq	r9, [r6], #-3073	; 0xfffff3ff
    1090:	b71b0000 	ldrlt	r0, [fp, -r0]
    1094:	01000003 	tsteq	r0, r3
    1098:	002c0ed5 	ldrdeq	r0, [ip], -r5	; <UNPREDICTABLE>
    109c:	055d0000 	ldrbeq	r0, [sp, #-0]
    10a0:	05570000 	ldrbeq	r0, [r7, #-0]
    10a4:	99140000 	ldmdbls	r4, {}	; <UNPREDICTABLE>
    10a8:	76000000 	strvc	r0, [r0], -r0
    10ac:	05000004 	streq	r0, [r0, #-4]
    10b0:	00a20003 	adceq	r0, r2, r3
    10b4:	89e81500 	stmibhi	r8!, {r8, sl, ip}^
    10b8:	05180000 	ldreq	r0, [r8, #-0]
    10bc:	04100000 	ldreq	r0, [r0], #-0
    10c0:	01160000 	tsteq	r6, r0
    10c4:	00310150 	eorseq	r0, r1, r0, asr r1
    10c8:	0089fc15 	addeq	pc, r9, r5, lsl ip	; <UNPREDICTABLE>
    10cc:	000b7c00 	andeq	r7, fp, r0, lsl #24
    10d0:	00042d00 	andeq	r2, r4, r0, lsl #26
    10d4:	50011600 	andpl	r1, r1, r0, lsl #12
    10d8:	a18c0305 	orrge	r0, ip, r5, lsl #6
    10dc:	01160000 	tsteq	r6, r0
    10e0:	00740251 	rsbseq	r0, r4, r1, asr r2
    10e4:	8a181500 	bhi	6064ec <__bss_end__+0x5fbb14>
    10e8:	0b7c0000 	bleq	1f010f0 <__bss_end__+0x1ef6718>
    10ec:	045c0000 	ldrbeq	r0, [ip], #-0
    10f0:	01160000 	tsteq	r6, r0
    10f4:	64030550 	strvs	r0, [r3], #-1360	; 0xfffffab0
    10f8:	160000a1 	strne	r0, [r0], -r1, lsr #1
    10fc:	03055101 	movweq	r5, #20737	; 0x5101
    1100:	0000a090 	muleq	r0, r0, r0
    1104:	05520116 	ldrbeq	r0, [r2, #-278]	; 0xfffffeea
    1108:	00a20003 	adceq	r0, r2, r3
    110c:	53011600 	movwpl	r1, #5632	; 0x1600
    1110:	00d70802 	sbcseq	r0, r7, r2, lsl #16
    1114:	008a1c17 	addeq	r1, sl, r7, lsl ip
    1118:	000b8800 	andeq	r8, fp, r0, lsl #16
    111c:	c5180000 	ldrgt	r0, [r8, #-0]
    1120:	76000000 	strvc	r0, [r0], -r0
    1124:	19000004 	stmdbne	r0, {r2}
    1128:	0000002c 	andeq	r0, r0, ip, lsr #32
    112c:	66040011 			; <UNDEFINED> instruction: 0x66040011
    1130:	13000004 	movwne	r0, #4
    1134:	00000038 	andeq	r0, r0, r8, lsr r0
    1138:	9406c301 	strls	ip, [r6], #-769	; 0xfffffcff
    113c:	48000089 	stmdami	r0, {r0, r3, r7}
    1140:	01000000 	mrseq	r0, (UNDEF: 0)
    1144:	0005039c 	muleq	r5, ip, r3
    1148:	00991400 	addseq	r1, r9, r0, lsl #8
    114c:	05130000 	ldreq	r0, [r3, #-0]
    1150:	03050000 	movweq	r0, #20480	; 0x5000
    1154:	0000a1f0 	strdeq	sl, [r0], -r0
    1158:	0089a015 	addeq	sl, r9, r5, lsl r0
    115c:	00051800 	andeq	r1, r5, r0, lsl #16
    1160:	0004b300 	andeq	fp, r4, r0, lsl #6
    1164:	50011600 	andpl	r1, r1, r0, lsl #12
    1168:	15003101 	strne	r3, [r0, #-257]	; 0xfffffeff
    116c:	000089b0 			; <UNDEFINED> instruction: 0x000089b0
    1170:	00000b7c 	andeq	r0, r0, ip, ror fp
    1174:	000004ca 	andeq	r0, r0, sl, asr #9
    1178:	05500116 	ldrbeq	r0, [r0, #-278]	; 0xfffffeea
    117c:	00a14403 	adceq	r4, r1, r3, lsl #8
    1180:	c8150000 	ldmdagt	r5, {}	; <UNPREDICTABLE>
    1184:	7c000089 	stcvc	0, cr0, [r0], {137}	; 0x89
    1188:	f900000b 			; <UNDEFINED> instruction: 0xf900000b
    118c:	16000004 	strne	r0, [r0], -r4
    1190:	03055001 	movweq	r5, #20481	; 0x5001
    1194:	0000a118 	andeq	sl, r0, r8, lsl r1
    1198:	05510116 	ldrbeq	r0, [r1, #-278]	; 0xfffffeea
    119c:	00a09003 	adceq	r9, r0, r3
    11a0:	52011600 	andpl	r1, r1, #0, 12
    11a4:	a1f00305 	mvnsge	r0, r5, lsl #6
    11a8:	01160000 	tsteq	r6, r0
    11ac:	c9080253 	stmdbgt	r8, {r0, r1, r4, r6, r9}
    11b0:	89cc1700 	stmibhi	ip, {r8, r9, sl, ip}^
    11b4:	0b880000 	bleq	fe2011bc <__bss_end__+0xfe1f67e4>
    11b8:	18000000 	stmdane	r0, {}	; <UNPREDICTABLE>
    11bc:	000000c5 	andeq	r0, r0, r5, asr #1
    11c0:	00000513 	andeq	r0, r0, r3, lsl r5
    11c4:	00002c19 	andeq	r2, r0, r9, lsl ip
    11c8:	04000d00 	streq	r0, [r0], #-3328	; 0xfffff300
    11cc:	00000503 	andeq	r0, r0, r3, lsl #10
    11d0:	0003cb1a 	andeq	ip, r3, sl, lsl fp
    11d4:	0abb0100 	beq	feec15dc <__bss_end__+0xfeeb6c04>
    11d8:	0000002c 	andeq	r0, r0, ip, lsr #32
    11dc:	00008964 	andeq	r8, r0, r4, ror #18
    11e0:	00000030 	andeq	r0, r0, r0, lsr r0
    11e4:	058e9c01 	streq	r9, [lr, #3073]	; 0xc01
    11e8:	7d1e0000 	ldcvc	0, cr0, [lr, #-0]
    11ec:	01000004 	tsteq	r0, r4
    11f0:	00251cbb 	strhteq	r1, [r5], -fp
    11f4:	058a0000 	streq	r0, [sl]
    11f8:	05860000 	streq	r0, [r6]
    11fc:	74150000 	ldrvc	r0, [r5], #-0
    1200:	7c000089 	stcvc	0, cr0, [r0], {137}	; 0x89
    1204:	5d00000b 	stcpl	0, cr0, [r0, #-44]	; 0xffffffd4
    1208:	16000005 	strne	r0, [r0], -r5
    120c:	03055001 	movweq	r5, #20481	; 0x5001
    1210:	0000a0fc 	strdeq	sl, [r0], -ip
    1214:	89781700 	ldmdbhi	r8!, {r8, r9, sl, ip}^
    1218:	058e0000 	streq	r0, [lr]
    121c:	80150000 	andshi	r0, r5, r0
    1220:	7c000089 	stcvc	0, cr0, [r0], {137}	; 0x89
    1224:	7d00000b 	stcvc	0, cr0, [r0, #-44]	; 0xffffffd4
    1228:	16000005 	strne	r0, [r0], -r5
    122c:	03055001 	movweq	r5, #20481	; 0x5001
    1230:	0000a110 	andeq	sl, r0, r0, lsl r1
    1234:	89881d00 	stmibhi	r8, {r8, sl, fp, ip}
    1238:	06b00000 	ldrteq	r0, [r0], r0
    123c:	01160000 	tsteq	r6, r0
    1240:	00740250 	rsbseq	r0, r4, r0, asr r2
    1244:	441f0000 	ldrmi	r0, [pc], #-0	; 124c <__code_start__-0x6db4>
    1248:	01000003 	tsteq	r0, r3
    124c:	88200d93 	stmdahi	r0!, {r0, r1, r4, r7, r8, sl, fp}
    1250:	00900000 	addseq	r0, r0, r0
    1254:	9c010000 	stcls	0, cr0, [r1], {-0}
    1258:	00000685 	andeq	r0, r0, r5, lsl #13
    125c:	0003b212 	andeq	fp, r3, r2, lsl r2
    1260:	0e9d0100 	fmleqe	f0, f5, f0
    1264:	00000685 	andeq	r0, r0, r5, lsl #13
    1268:	7fb89103 	svcvc	0x00b89103
    126c:	00009920 	andeq	r9, r0, r0, lsr #18
    1270:	0006a500 	andeq	sl, r6, r0, lsl #10
    1274:	032e2100 			; <UNDEFINED> instruction: 0x032e2100
    1278:	ae010000 	cdpge	0, 0, cr0, cr1, cr0, {0}
    127c:	0006aa0f 	andeq	sl, r6, pc, lsl #20
    1280:	00000000 	andeq	r0, r0, r0
    1284:	035c0808 	cmpeq	ip, #8, 16	; 0x80000
    1288:	b2010000 	andlt	r0, r1, #0, 0
    128c:	00006e15 	andeq	r6, r0, r5, lsl lr
    1290:	042d0800 	strteq	r0, [sp], #-2048	; 0xfffff800
    1294:	b2010000 	andlt	r0, r1, #0, 0
    1298:	00006e24 	andeq	r6, r0, r4, lsr #28
    129c:	04630800 	strbteq	r0, [r3], #-2048	; 0xfffff800
    12a0:	b5010000 	strlt	r0, [r1, #-0]
    12a4:	00006e15 	andeq	r6, r0, r5, lsl lr
    12a8:	03be0800 			; <UNDEFINED> instruction: 0x03be0800
    12ac:	b5010000 	strlt	r0, [r1, #-0]
    12b0:	00006e25 	andeq	r6, r0, r5, lsr #28
    12b4:	88282200 	stmdahi	r8!, {r9, sp}
    12b8:	00240000 	eoreq	r0, r4, r0
    12bc:	062f0000 	strteq	r0, [pc], -r0
    12c0:	68230000 	stmdavs	r3!, {}	; <UNPREDICTABLE>
    12c4:	10970100 	addsne	r0, r7, r0, lsl #2
    12c8:	000001c8 	andeq	r0, r0, r8, asr #3
    12cc:	000005ac 	andeq	r0, r0, ip, lsr #11
    12d0:	000005a8 	andeq	r0, r0, r8, lsr #11
    12d4:	00882c17 	addeq	r2, r8, r7, lsl ip
    12d8:	000b9400 	andeq	r9, fp, r0, lsl #8
    12dc:	88481700 	stmdahi	r8, {r8, r9, sl, ip}^
    12e0:	0ba00000 	bleq	fe8012e8 <__bss_end__+0xfe7f6910>
    12e4:	15000000 	strne	r0, [r0, #-0]
    12e8:	00008854 	andeq	r8, r0, r4, asr r8
    12ec:	00000bac 	andeq	r0, r0, ip, lsr #23
    12f0:	00000643 	andeq	r0, r0, r3, asr #12
    12f4:	02500116 	subseq	r0, r0, #-2147483643	; 0x80000005
    12f8:	1500007d 	strne	r0, [r0, #-125]	; 0xffffff83
    12fc:	00008874 	andeq	r8, r0, r4, ror r8
    1300:	00000801 	andeq	r0, r0, r1, lsl #16
    1304:	0000065d 	andeq	r0, r0, sp, asr r6
    1308:	02500116 	subseq	r0, r0, #-2147483643	; 0x80000005
    130c:	0116007d 	tsteq	r6, sp, ror r0
    1310:	70910251 	addsvc	r0, r1, r1, asr r2
    1314:	88801500 	stmhi	r0, {r8, sl, ip}
    1318:	08010000 	stmdaeq	r1, {}	; <UNPREDICTABLE>
    131c:	06720000 	ldrbteq	r0, [r2], -r0
    1320:	01160000 	tsteq	r6, r0
    1324:	47400351 	smlsldmi	r0, r0, r1, r3	; <UNPREDICTABLE>
    1328:	8c170024 	ldchi	0, cr0, [r7], {36}	; 0x24
    132c:	01000088 	smlabbeq	r0, r8, r0, r0
    1330:	17000008 	strne	r0, [r0, -r8]
    1334:	00008898 	muleq	r0, r8, r8
    1338:	00000801 	andeq	r0, r0, r1, lsl #16
    133c:	006e1800 	rsbeq	r1, lr, r0, lsl #16
    1340:	06950000 	ldreq	r0, [r5], r0
    1344:	2c190000 	ldccs	0, cr0, [r9], {-0}
    1348:	0f000000 	svceq	0x00000000
    134c:	00c51800 	sbceq	r1, r5, r0, lsl #16
    1350:	06a50000 	strteq	r0, [r5], r0
    1354:	2c190000 	ldccs	0, cr0, [r9], {-0}
    1358:	08000000 	stmdaeq	r0, {}	; <UNPREDICTABLE>
    135c:	06950400 	ldreq	r0, [r5], r0, lsl #8
    1360:	04090000 	streq	r0, [r9], #-0
    1364:	0000006e 	andeq	r0, r0, lr, rrx
    1368:	0004581c 	andeq	r5, r4, ip, lsl r8
    136c:	11690100 	cmnne	r9, r0, lsl #2
    1370:	0000002c 	andeq	r0, r0, ip, lsr #32
    1374:	0000850c 	andeq	r8, r0, ip, lsl #10
    1378:	00000100 	andeq	r0, r0, r0, lsl #2
    137c:	08019c01 	stmdaeq	r1, {r0, sl, fp, ip, pc}
    1380:	7d1e0000 	ldcvc	0, cr0, [lr, #-0]
    1384:	01000004 	tsteq	r0, r4
    1388:	00252069 	eoreq	r2, r5, r9, rrx
    138c:	05ce0000 	strbeq	r0, [lr]
    1390:	05ca0000 	strbeq	r0, [sl]
    1394:	741b0000 	ldrvc	r0, [fp], #-0
    1398:	01000003 	tsteq	r0, r3
    139c:	002c0b6a 	eoreq	r0, ip, sl, ror #22
    13a0:	05f30000 	ldrbeq	r0, [r3, #0]!
    13a4:	05ef0000 	strbeq	r0, [pc, #0]!	; 13ac <__code_start__-0x6c54>
    13a8:	a01b0000 	andsge	r0, fp, r0
    13ac:	01000003 	tsteq	r0, r3
    13b0:	002c186a 	eoreq	r1, ip, sl, ror #16
    13b4:	06160000 	ldreq	r0, [r6], -r0
    13b8:	06120000 	ldreq	r0, [r2], -r0
    13bc:	9a1b0000 	bls	6c13c4 <__bss_end__+0x6b69ec>
    13c0:	01000003 	tsteq	r0, r3
    13c4:	002c246a 	eoreq	r2, ip, sl, ror #8
    13c8:	06390000 	ldrteq	r0, [r9], -r0
    13cc:	06350000 	ldrteq	r0, [r5], -r0
    13d0:	0e1b0000 	cdpeq	0, 1, cr0, cr11, cr0, {0}
    13d4:	01000004 	tsteq	r0, r4
    13d8:	01c8096f 	biceq	r0, r8, pc, ror #18
    13dc:	06600000 	strbteq	r0, [r0], -r0
    13e0:	06580000 	ldrbeq	r0, [r8], -r0
    13e4:	18150000 	ldmdane	r5, {}	; <UNPREDICTABLE>
    13e8:	7c000085 	stcvc	0, cr0, [r0], {133}	; 0x85
    13ec:	4500000b 	strmi	r0, [r0, #-11]
    13f0:	16000007 	strne	r0, [r0], -r7
    13f4:	03055001 	movweq	r5, #20481	; 0x5001
    13f8:	00009ef8 	strdeq	r9, [r0], -r8
    13fc:	85201500 	strhi	r1, [r0, #-1280]!	; 0xfffffb00
    1400:	0b7c0000 	bleq	1f01408 <__bss_end__+0x1ef6a30>
    1404:	075c0000 	ldrbeq	r0, [ip, -r0]
    1408:	01160000 	tsteq	r6, r0
    140c:	34030550 	strcc	r0, [r3], #-1360	; 0xfffffab0
    1410:	0000009f 	muleq	r0, pc, r0	; <UNPREDICTABLE>
    1414:	00852417 	addeq	r2, r5, r7, lsl r4
    1418:	000b9400 	andeq	r9, fp, r0, lsl #8
    141c:	85601500 	strbhi	r1, [r0, #-1280]!	; 0xfffffb00
    1420:	0b7c0000 	bleq	1f01428 <__bss_end__+0x1ef6a50>
    1424:	07820000 	streq	r0, [r2, r0]
    1428:	01160000 	tsteq	r6, r0
    142c:	4c030550 	cfstr32mi	mvfx0, [r3], {80}	; 0x50
    1430:	1600009f 			; <UNDEFINED> instruction: 0x1600009f
    1434:	74025101 	strvc	r5, [r2], #-257	; 0xfffffeff
    1438:	68150000 	ldmdavs	r5, {}	; <UNPREDICTABLE>
    143c:	a0000085 	andge	r0, r0, r5, lsl #1
    1440:	9600000b 	strls	r0, [r0], -fp
    1444:	16000007 	strne	r0, [r0], -r7
    1448:	74025001 	strvc	r5, [r2], #-1
    144c:	bc150000 	ldclt	0, cr0, [r5], {-0}
    1450:	7c000085 	stcvc	0, cr0, [r0], {133}	; 0x85
    1454:	b300000b 	movwlt	r0, #11
    1458:	16000007 	strne	r0, [r0], -r7
    145c:	03055001 	movweq	r5, #20481	; 0x5001
    1460:	00009f6c 	andeq	r9, r0, ip, ror #30
    1464:	02510116 	subseq	r0, r1, #-2147483643	; 0x80000005
    1468:	15000075 	strne	r0, [r0, #-117]	; 0xffffff8b
    146c:	000085cc 	andeq	r8, r0, ip, asr #11
    1470:	00000b7c 	andeq	r0, r0, ip, ror fp
    1474:	000007ca 	andeq	r0, r0, sl, asr #15
    1478:	05500116 	ldrbeq	r0, [r0, #-278]	; 0xfffffeea
    147c:	009f8c03 	addseq	r8, pc, r3, lsl #24
    1480:	d4150000 	ldrle	r0, [r5], #-0
    1484:	7c000085 	stcvc	0, cr0, [r0], {133}	; 0x85
    1488:	e100000b 	tst	r0, fp
    148c:	16000007 	strne	r0, [r0], -r7
    1490:	03055001 	movweq	r5, #20481	; 0x5001
    1494:	00009fe4 	andeq	r9, r0, r4, ror #31
    1498:	85ec1d00 	strbhi	r1, [ip, #3328]!	; 0xd00
    149c:	0b7c0000 	bleq	1f014a4 <__bss_end__+0x1ef6acc>
    14a0:	01160000 	tsteq	r6, r0
    14a4:	b4030550 	strlt	r0, [r3], #-1360	; 0xfffffab0
    14a8:	1600009f 			; <UNDEFINED> instruction: 0x1600009f
    14ac:	77025101 	strvc	r5, [r2, -r1, lsl #2]
    14b0:	52011600 	andpl	r1, r1, #0, 12
    14b4:	00007602 	andeq	r7, r0, r2, lsl #12
    14b8:	002b1f00 	eoreq	r1, fp, r0, lsl #30
    14bc:	4b010000 	blmi	414c4 <__bss_end__+0x36aec>
    14c0:	0086ec0d 	addeq	lr, r6, sp, lsl #24
    14c4:	00013400 	andeq	r3, r1, r0, lsl #8
    14c8:	ba9c0100 	blt	fe7018d0 <__bss_end__+0xfe6f6ef8>
    14cc:	24000009 	strcs	r0, [r0], #-9
    14d0:	4b010070 	blmi	41698 <__bss_end__+0x36cc0>
    14d4:	0006aa1c 	andeq	sl, r6, ip, lsl sl
    14d8:	0006a200 	andeq	sl, r6, r0, lsl #4
    14dc:	00069400 	andeq	r9, r6, r0, lsl #8
    14e0:	00652400 	rsbeq	r2, r5, r0, lsl #8
    14e4:	aa294b01 	bge	a540f0 <__bss_end__+0xa49718>
    14e8:	0d000006 	stceq	0, cr0, [r0, #-24]	; 0xffffffe8
    14ec:	fd000007 	stc2	0, cr0, [r0, #-28]	; 0xffffffe4
    14f0:	14000006 	strne	r0, [r0], #-6
    14f4:	00000099 	muleq	r0, r9, r0
    14f8:	000009ca 	andeq	r0, r0, sl, asr #19
    14fc:	a1e00305 	mvnge	r0, r5, lsl #6
    1500:	6a1b0000 	bvs	6c1508 <__bss_end__+0x6b6b30>
    1504:	01000003 	tsteq	r0, r3
    1508:	00331151 	eorseq	r1, r3, r1, asr r1
    150c:	077f0000 	ldrbeq	r0, [pc, -r0]!
    1510:	07790000 	ldrbeq	r0, [r9, -r0]!
    1514:	50250000 	eorpl	r0, r5, r0
    1518:	f3000000 	vhadd.u8	d0, d0, d0
    151c:	23000008 	movwcs	r0, #8
    1520:	52010069 	andpl	r0, r1, #105, 0	; 0x69
    1524:	00002c10 	andeq	r2, r0, r0, lsl ip
    1528:	0007b500 	andeq	fp, r7, r0, lsl #10
    152c:	0007b100 	andeq	fp, r7, r0, lsl #2
    1530:	00682600 	rsbeq	r2, r8, r0, lsl #12
    1534:	f61b0000 			; <UNDEFINED> instruction: 0xf61b0000
    1538:	01000003 	tsteq	r0, r3
    153c:	01c80a53 	biceq	r0, r8, r3, asr sl
    1540:	07da0000 	ldrbeq	r0, [sl, r0]
    1544:	07d40000 	ldrbeq	r0, [r4, r0]
    1548:	80250000 	eorhi	r0, r5, r0
    154c:	e8000000 	stmda	r0, {}	; <UNPREDICTABLE>
    1550:	1b000008 	blne	1578 <__code_start__-0x6a88>
    1554:	00000338 	andeq	r0, r0, r8, lsr r3
    1558:	aa0e5e01 	bge	398d64 <__bss_end__+0x38e38c>
    155c:	07000006 	streq	r0, [r0, -r6]
    1560:	03000008 	movweq	r0, #8
    1564:	1b000008 	blne	158c <__code_start__-0x6a74>
    1568:	000003e5 	andeq	r0, r0, r5, ror #7
    156c:	aa0e5f01 	bge	399178 <__bss_end__+0x38e7a0>
    1570:	2b000006 	blcs	1590 <__code_start__-0x6a70>
    1574:	27000008 	strcs	r0, [r0, -r8]
    1578:	15000008 	strne	r0, [r0, #-8]
    157c:	00008798 	muleq	r0, r8, r7
    1580:	00000801 	andeq	r0, r0, r1, lsl #16
    1584:	000008d7 	ldrdeq	r0, [r0], -r7
    1588:	02500116 	subseq	r0, r0, #-2147483643	; 0x80000005
    158c:	1d002474 	cfstrsne	mvf2, [r0, #-464]	; 0xfffffe30
    1590:	000087d8 	ldrdeq	r8, [r0], -r8	; <UNPREDICTABLE>
    1594:	00000bb8 			; <UNDEFINED> instruction: 0x00000bb8
    1598:	02500116 	subseq	r0, r0, #-2147483643	; 0x80000005
    159c:	00000074 	andeq	r0, r0, r4, ror r0
    15a0:	0087b017 	addeq	fp, r7, r7, lsl r0
    15a4:	0009cf00 	andeq	ip, r9, r0, lsl #30
    15a8:	15000000 	strne	r0, [r0, #-0]
    15ac:	00008738 	andeq	r8, r0, r8, lsr r7
    15b0:	00000b7c 	andeq	r0, r0, ip, ror fp
    15b4:	0000092c 	andeq	r0, r0, ip, lsr #18
    15b8:	05500116 	ldrbeq	r0, [r0, #-278]	; 0xfffffeea
    15bc:	009d7c03 	addseq	r7, sp, r3, lsl #24
    15c0:	51011600 	tstpl	r1, r0, lsl #12
    15c4:	a0900305 	addsge	r0, r0, r5, lsl #6
    15c8:	01160000 	tsteq	r6, r0
    15cc:	e0030552 	and	r0, r3, r2, asr r5
    15d0:	160000a1 	strne	r0, [r0], -r1, lsr #1
    15d4:	08025301 	stmdaeq	r2, {r0, r8, r9, ip, lr}
    15d8:	7d02164c 	stcvc	6, cr1, [r2, #-304]	; 0xfffffed0
    15dc:	98030500 	stmdals	r3, {r8, sl}
    15e0:	000000a0 	andeq	r0, r0, r0, lsr #1
    15e4:	00873c17 	addeq	r3, r7, r7, lsl ip
    15e8:	000b8800 	andeq	r8, fp, r0, lsl #16
    15ec:	87581500 	ldrbhi	r1, [r8, -r0, lsl #10]
    15f0:	0b7c0000 	bleq	1f015f8 <__bss_end__+0x1ef6c20>
    15f4:	096e0000 	stmdbeq	lr!, {}^	; <UNPREDICTABLE>
    15f8:	01160000 	tsteq	r6, r0
    15fc:	7c030550 	cfstr32vc	mvfx0, [r3], {80}	; 0x50
    1600:	1600009d 			; <UNDEFINED> instruction: 0x1600009d
    1604:	03055101 	movweq	r5, #20737	; 0x5101
    1608:	0000a090 	muleq	r0, r0, r0
    160c:	05520116 	ldrbeq	r0, [r2, #-278]	; 0xfffffeea
    1610:	00a1e003 	adceq	lr, r1, r3
    1614:	53011600 	movwpl	r1, #5632	; 0x1600
    1618:	164e0802 	strbne	r0, [lr], -r2, lsl #16
    161c:	05007d02 	streq	r7, [r0, #-3330]	; 0xfffff2fe
    1620:	00a09c03 	adceq	r9, r0, r3, lsl #24
    1624:	5c170000 	ldcpl	0, cr0, [r7], {-0}
    1628:	88000087 	stmdahi	r0, {r0, r1, r2, r7}
    162c:	1500000b 	strne	r0, [r0, #-11]
    1630:	00008778 	andeq	r8, r0, r8, ror r7
    1634:	00000b7c 	andeq	r0, r0, ip, ror fp
    1638:	000009b0 			; <UNDEFINED> instruction: 0x000009b0
    163c:	05500116 	ldrbeq	r0, [r0, #-278]	; 0xfffffeea
    1640:	009d7c03 	addseq	r7, sp, r3, lsl #24
    1644:	51011600 	tstpl	r1, r0, lsl #12
    1648:	a0900305 	addsge	r0, r0, r5, lsl #6
    164c:	01160000 	tsteq	r6, r0
    1650:	e0030552 	and	r0, r3, r2, asr r5
    1654:	160000a1 	strne	r0, [r0], -r1, lsr #1
    1658:	08025301 	stmdaeq	r2, {r0, r8, r9, ip, lr}
    165c:	7d02164f 	stcvc	6, cr1, [r2, #-316]	; 0xfffffec4
    1660:	ac030500 	cfstr32ge	mvfx0, [r3], {-0}
    1664:	000000a0 	andeq	r0, r0, r0, lsr #1
    1668:	00877c17 	addeq	r7, r7, r7, lsl ip
    166c:	000b8800 	andeq	r8, fp, r0, lsl #16
    1670:	c5180000 	ldrgt	r0, [r8, #-0]
    1674:	ca000000 	bgt	167c <__code_start__-0x6984>
    1678:	19000009 	stmdbne	r0, {r0, r3}
    167c:	0000002c 	andeq	r0, r0, ip, lsr #32
    1680:	ba040004 	blt	101698 <__bss_end__+0xf6cc0>
    1684:	1c000009 	stcne	0, cr0, [r0], {9}
    1688:	000003de 	ldrdeq	r0, [r0], -lr
    168c:	c80f3801 	stmdagt	pc, {r0, fp, ip, sp}	; <UNPREDICTABLE>
    1690:	c4000001 	strgt	r0, [r0], #-1
    1694:	28000086 	stmdacs	r0, {r1, r2, r7}
    1698:	01000000 	mrseq	r0, (UNDEF: 0)
    169c:	000a349c 	muleq	sl, ip, r4
    16a0:	0acf1e00 	beq	ff3c8ea8 <__bss_end__+0xff3be4d0>
    16a4:	38010000 	stmdacc	r1, {}	; <UNPREDICTABLE>
    16a8:	00006e1f 	andeq	r6, r0, pc, lsl lr
    16ac:	00085200 	andeq	r5, r8, r0, lsl #4
    16b0:	00084e00 	andeq	r4, r8, r0, lsl #28
    16b4:	00702300 	rsbseq	r2, r0, r0, lsl #6
    16b8:	db0b3901 	blle	2cfac4 <__bss_end__+0x2c50ec>
    16bc:	74000001 	strvc	r0, [r0], #-1
    16c0:	70000008 	andvc	r0, r0, r8
    16c4:	15000008 	strne	r0, [r0, #-8]
    16c8:	000086d0 	ldrdeq	r8, [r0], -r0
    16cc:	00000a34 	andeq	r0, r0, r4, lsr sl
    16d0:	00000a23 	andeq	r0, r0, r3, lsr #20
    16d4:	02500116 	subseq	r0, r0, #-2147483643	; 0x80000005
    16d8:	1d000074 	stcne	0, cr0, [r0, #-464]	; 0xfffffe30
    16dc:	000086e0 	andeq	r8, r0, r0, ror #13
    16e0:	00000bc4 	andeq	r0, r0, r4, asr #23
    16e4:	02500116 	subseq	r0, r0, #-2147483643	; 0x80000005
    16e8:	00000074 	andeq	r0, r0, r4, ror r0
    16ec:	0004001c 	andeq	r0, r4, ip, lsl r0
    16f0:	0c280100 	stfeqs	f0, [r8], #-0
    16f4:	00000025 	andeq	r0, r0, r5, lsr #32
    16f8:	000084d0 	ldrdeq	r8, [r0], -r0
    16fc:	0000003c 	andeq	r0, r0, ip, lsr r0
    1700:	0a619c01 	beq	186870c <__bss_end__+0x185dd34>
    1704:	70240000 	eorvc	r0, r4, r0
    1708:	1a280100 	bne	a01b10 <__bss_end__+0x9f7138>
    170c:	000001db 	ldrdeq	r0, [r0], -fp
    1710:	0000089e 	muleq	r0, lr, r8
    1714:	00000892 	muleq	r0, r2, r8
    1718:	03d91a00 	bicseq	r1, r9, #0, 20
    171c:	13010000 	movwne	r0, #4096	; 0x1000
    1720:	0001db07 	andeq	sp, r1, r7, lsl #22
    1724:	0088b000 	addeq	fp, r8, r0
    1728:	0000b400 	andeq	fp, r0, r0, lsl #8
    172c:	7c9c0100 	ldfvcs	f0, [ip], {0}
    1730:	1e00000b 	cdpne	0, 0, cr0, cr0, cr11, {0}
    1734:	00000390 	muleq	r0, r0, r3
    1738:	46111301 	ldrmi	r1, [r1], -r1, lsl #6
    173c:	f5000000 			; <UNDEFINED> instruction: 0xf5000000
    1740:	f1000008 	cps	#8
    1744:	14000008 	strne	r0, [r0], #-8
    1748:	00000099 	muleq	r0, r9, r0
    174c:	000009ca 	andeq	r0, r0, sl, asr #19
    1750:	a1e80305 	mvnge	r0, r5, lsl #6
    1754:	dc220000 	stcle	0, cr0, [r2], #-0
    1758:	24000088 	strcs	r0, [r0], #-136	; 0xffffff78
    175c:	d8000000 	stmdale	r0, {}	; <UNPREDICTABLE>
    1760:	1b00000a 	blne	1790 <__code_start__-0x6870>
    1764:	00000408 	andeq	r0, r0, r8, lsl #8
    1768:	2c121901 			; <UNDEFINED> instruction: 0x2c121901
    176c:	15000000 	strne	r0, [r0, #-0]
    1770:	13000009 	movwne	r0, #9
    1774:	1d000009 	stcne	0, cr0, [r0, #-36]	; 0xffffffdc
    1778:	000088f8 	strdeq	r8, [r0], -r8	; <UNPREDICTABLE>
    177c:	00000bd0 	ldrdeq	r0, [r0], -r0	; <UNPREDICTABLE>
    1780:	03500116 	cmpeq	r0, #-2147483643	; 0x80000005
    1784:	16244040 	strtne	r4, [r4], -r0, asr #32
    1788:	40035101 	andmi	r5, r3, r1, lsl #2
    178c:	00002440 	andeq	r2, r0, r0, asr #8
    1790:	0088c415 	addeq	ip, r8, r5, lsl r4
    1794:	000b7c00 	andeq	r7, fp, r0, lsl #24
    1798:	000aef00 	andeq	lr, sl, r0, lsl #30
    179c:	50011600 	andpl	r1, r1, r0, lsl #12
    17a0:	a0bc0305 	adcsge	r0, ip, r5, lsl #6
    17a4:	15000000 	strne	r0, [r0, #-0]
    17a8:	00008908 	andeq	r8, r0, r8, lsl #18
    17ac:	00000bdc 	ldrdeq	r0, [r0], -ip
    17b0:	00000b03 	andeq	r0, r0, r3, lsl #22
    17b4:	02500116 	subseq	r0, r0, #-2147483643	; 0x80000005
    17b8:	15000074 	strne	r0, [r0, #-116]	; 0xffffff8c
    17bc:	0000892c 	andeq	r8, r0, ip, lsr #18
    17c0:	00000b7c 	andeq	r0, r0, ip, ror fp
    17c4:	00000b3b 	andeq	r0, r0, fp, lsr fp
    17c8:	05500116 	ldrbeq	r0, [r0, #-278]	; 0xfffffeea
    17cc:	009d7c03 	addseq	r7, sp, r3, lsl #24
    17d0:	51011600 	tstpl	r1, r0, lsl #12
    17d4:	a0900305 	addsge	r0, r0, r5, lsl #6
    17d8:	01160000 	tsteq	r6, r0
    17dc:	e8030552 	stmda	r3, {r1, r4, r6, r8, sl}
    17e0:	160000a1 	strne	r0, [r0], -r1, lsr #1
    17e4:	45015301 	strmi	r5, [r1, #-769]	; 0xfffffcff
    17e8:	007d0216 	rsbseq	r0, sp, r6, lsl r2
    17ec:	a0cc0305 	sbcge	r0, ip, r5, lsl #6
    17f0:	17000000 	strne	r0, [r0, -r0]
    17f4:	00008930 	andeq	r8, r0, r0, lsr r9
    17f8:	00000b88 	andeq	r0, r0, r8, lsl #23
    17fc:	00894415 	addeq	r4, r9, r5, lsl r4
    1800:	000b7c00 	andeq	r7, fp, r0, lsl #24
    1804:	000b7200 	andeq	r7, fp, r0, lsl #4
    1808:	50011600 	andpl	r1, r1, r0, lsl #12
    180c:	a0dc0305 	sbcsge	r0, ip, r5, lsl #6
    1810:	01160000 	tsteq	r6, r0
    1814:	90030551 	andls	r0, r3, r1, asr r5
    1818:	160000a0 	strne	r0, [r0], -r0, lsr #1
    181c:	03055201 	movweq	r5, #20993	; 0x5201
    1820:	0000a1e8 	andeq	sl, r0, r8, ror #3
    1824:	01530116 	cmpeq	r3, r6, lsl r1
    1828:	48170047 	ldmdami	r7, {r0, r1, r2, r6}
    182c:	88000089 	stmdahi	r0, {r0, r3, r7}
    1830:	0000000b 	andeq	r0, r0, fp
    1834:	00061227 	andeq	r1, r6, r7, lsr #4
    1838:	00061200 	andeq	r1, r6, r0, lsl #4
    183c:	06280300 	strteq	r0, [r8], -r0, lsl #6
    1840:	00006627 	andeq	r6, r0, r7, lsr #12
    1844:	00006600 	andeq	r6, r0, r0, lsl #12
    1848:	066e0300 	strbteq	r0, [lr], -r0, lsl #6
    184c:	00029927 	andeq	r9, r2, r7, lsr #18
    1850:	00029900 	andeq	r9, r2, r0, lsl #18
    1854:	08220500 	stmdaeq	r2!, {r8, sl}
    1858:	0002cb27 	andeq	ip, r2, r7, lsr #22
    185c:	0002cb00 	andeq	ip, r2, r0, lsl #22
    1860:	08250500 	stmdaeq	r5!, {r8, sl}
    1864:	0003ad27 	andeq	sl, r3, r7, lsr #26
    1868:	0003ad00 	andeq	sl, r3, r0, lsl #26
    186c:	06900100 	ldreq	r0, [r0], r0, lsl #2
    1870:	00026527 	andeq	r6, r2, r7, lsr #10
    1874:	00026500 	andeq	r6, r2, r0, lsl #10
    1878:	01320500 	teqeq	r2, r0, lsl #10
    187c:	0002b927 	andeq	fp, r2, r7, lsr #18
    1880:	0002b900 	andeq	fp, r2, r0, lsl #18
    1884:	08350500 	ldmdaeq	r5!, {r8, sl}
    1888:	00044127 	andeq	r4, r4, r7, lsr #2
    188c:	00044100 	andeq	r4, r4, r0, lsl #2
    1890:	06830300 	streq	r0, [r3], r0, lsl #6
    1894:	00043927 	andeq	r3, r4, r7, lsr #18
    1898:	00043900 	andeq	r3, r4, r0, lsl #18
    189c:	077c0300 	ldrbeq	r0, [ip, -r0, lsl #6]!
    18a0:	0002da00 	andeq	sp, r2, r0, lsl #20
    18a4:	8d000400 	cfstrshi	mvf0, [r0, #-0]
    18a8:	04000006 	streq	r0, [r0], #-6
    18ac:	00019401 	andeq	r9, r1, r1, lsl #8
    18b0:	04b10c00 	ldrteq	r0, [r1], #3072	; 0xc00
    18b4:	00fc0000 	rscseq	r0, ip, r0
    18b8:	8aa80000 	bhi	fea018c0 <__bss_end__+0xfe9f6ee8>
    18bc:	01ac0000 			; <UNDEFINED> instruction: 0x01ac0000
    18c0:	0bd30000 	bleq	ff4c18c8 <__bss_end__+0xff4b6ef0>
    18c4:	04020000 	streq	r0, [r2], #-0
    18c8:	746e6905 	strbtvc	r6, [lr], #-2309	; 0xfffff6fb
    18cc:	07040300 	streq	r0, [r4, -r0, lsl #6]
    18d0:	000000ca 	andeq	r0, r0, sl, asr #1
    18d4:	5a060103 	bpl	181ce8 <__bss_end__+0x177310>
    18d8:	03000000 	movweq	r0, #0
    18dc:	016e0502 	cmneq	lr, r2, lsl #10
    18e0:	04030000 	streq	r0, [r3], #-0
    18e4:	00015905 	andeq	r5, r1, r5, lsl #18
    18e8:	05080300 	streq	r0, [r8, #-768]	; 0xfffffd00
    18ec:	00000154 	andeq	r0, r0, r4, asr r1
    18f0:	58080103 	stmdapl	r8, {r0, r1, r8}
    18f4:	03000000 	movweq	r0, #0
    18f8:	00730702 	rsbseq	r0, r3, r2, lsl #14
    18fc:	04030000 	streq	r0, [r3], #-0
    1900:	0000c507 	andeq	ip, r0, r7, lsl #10
    1904:	07080300 	streq	r0, [r8, -r0, lsl #6]
    1908:	000000c0 	andeq	r0, r0, r0, asr #1
    190c:	00002504 	andeq	r2, r0, r4, lsl #10
    1910:	00007a00 	andeq	r7, r0, r0, lsl #20
    1914:	00250500 	eoreq	r0, r5, r0, lsl #10
    1918:	06000000 	streq	r0, [r0], -r0
    191c:	00000162 	andeq	r0, r0, r2, ror #2
    1920:	860e1c02 	strhi	r1, [lr], -r2, lsl #24
    1924:	07000000 	streq	r0, [r0, -r0]
    1928:	00006b04 	andeq	r6, r0, r4, lsl #22
    192c:	00250400 	eoreq	r0, r5, r0, lsl #8
    1930:	009b0000 	addseq	r0, fp, r0
    1934:	9b050000 	blls	14193c <__bss_end__+0x136f64>
    1938:	00000000 	andeq	r0, r0, r0
    193c:	00a80407 	adceq	r0, r8, r7, lsl #8
    1940:	01030000 	mrseq	r0, (UNDEF: 3)
    1944:	00006108 	andeq	r6, r0, r8, lsl #2
    1948:	00a10800 	adceq	r0, r1, r0, lsl #16
    194c:	50060000 	andpl	r0, r6, r0
    1950:	02000006 	andeq	r0, r0, #6, 0
    1954:	00b90e21 	adcseq	r0, r9, r1, lsr #28
    1958:	04070000 	streq	r0, [r7], #-0
    195c:	0000008c 	andeq	r0, r0, ip, lsl #1
    1960:	00049e09 	andeq	r9, r4, r9, lsl #28
    1964:	05010800 	streq	r0, [r1, #-2048]	; 0xfffff800
    1968:	0000ec07 	andeq	lr, r0, r7, lsl #24
    196c:	00640a00 	rsbeq	r0, r4, r0, lsl #20
    1970:	ec100601 	ldc	6, cr0, [r0], {1}
    1974:	0a000000 	beq	197c <__code_start__-0x6684>
    1978:	07010070 	smlsdxeq	r1, r0, r0, r0
    197c:	0000f30f 	andeq	pc, r0, pc, lsl #6
    1980:	70660a00 	rsbvc	r0, r6, r0, lsl #20
    1984:	10080100 	andne	r0, r8, r0, lsl #2
    1988:	000000f6 	strdeq	r0, [r0], -r6
    198c:	04080300 	streq	r0, [r8], #-768	; 0xfffffd00
    1990:	000004bd 			; <UNDEFINED> instruction: 0x000004bd
    1994:	070c040b 	streq	r0, [ip, -fp, lsl #8]
    1998:	0000f504 	andeq	pc, r0, r4, lsl #10
    199c:	01080d00 	tsteq	r8, r0, lsl #26
    19a0:	0120020c 			; <UNDEFINED> instruction: 0x0120020c
    19a4:	700e0000 	andvc	r0, lr, r0
    19a8:	01007274 	tsteq	r0, r4, ror r2
    19ac:	0142150d 	cmpeq	r2, sp, lsl #10
    19b0:	0f000000 	svceq	0x00000000
    19b4:	000004d5 	ldrdeq	r0, [r0], -r5
    19b8:	2c100e01 	ldccs	14, cr0, [r0], {1}
    19bc:	04000000 	streq	r0, [r0], #-0
    19c0:	04910900 	ldreq	r0, [r1], #2304	; 0x900
    19c4:	01080000 	mrseq	r0, (UNDEF: 8)
    19c8:	01420f0b 	cmpeq	r2, fp, lsl #30
    19cc:	730a0000 	movwvc	r0, #40960	; 0xa000
    19d0:	060f0100 	streq	r0, [pc], -r0, lsl #2
    19d4:	000000fc 	strdeq	r0, [r0], -ip
    19d8:	0100780a 	tsteq	r0, sl, lsl #16
    19dc:	00bf1010 	adcseq	r1, pc, r0, lsl r0	; <UNPREDICTABLE>
    19e0:	07000000 	streq	r0, [r0, -r0]
    19e4:	00012004 	andeq	r2, r1, r4
    19e8:	04da1000 	ldrbeq	r1, [sl], #0
    19ec:	11010000 	mrsne	r0, (UNDEF: 1)
    19f0:	00012003 	andeq	r2, r1, r3
    19f4:	04c41100 	strbeq	r1, [r4], #256	; 0x100
    19f8:	13010000 	movwne	r0, #4096	; 0x1000
    19fc:	0001480f 	andeq	r4, r1, pc, lsl #16
    1a00:	c8030500 	stmdagt	r3, {r8, sl}
    1a04:	110000a5 	smlatbne	r0, r5, r0, r0
    1a08:	000004a4 	andeq	r0, r0, r4, lsr #9
    1a0c:	78101401 	ldmdavc	r0, {r0, sl, ip}
    1a10:	05000001 	streq	r0, [r0, #-1]
    1a14:	00a5c003 	adceq	ip, r5, r3
    1a18:	48040700 	stmdami	r4, {r8, r9, sl}
    1a1c:	12000001 	andne	r0, r0, #1, 0
    1a20:	00000291 	muleq	r0, r1, r2
    1a24:	a8065301 	stmdage	r6, {r0, r8, r9, ip, lr}
    1a28:	bc00008a 	stclt	0, cr0, [r0], {138}	; 0x8a
    1a2c:	01000000 	mrseq	r0, (UNDEF: 0)
    1a30:	0001c89c 	muleq	r1, ip, r8
    1a34:	74701300 	ldrbtvc	r1, [r0], #-768	; 0xfffffd00
    1a38:	53010072 	movwpl	r0, #4210	; 0x1072
    1a3c:	0000f314 	andeq	pc, r0, r4, lsl r3	; <UNPREDICTABLE>
    1a40:	14500100 	ldrbne	r0, [r0], #-256	; 0xffffff00
    1a44:	01007062 	tsteq	r0, r2, rrx
    1a48:	01780a54 	cmneq	r8, r4, asr sl
    1a4c:	09330000 	ldmdbeq	r3!, {}	; <UNPREDICTABLE>
    1a50:	092b0000 	stmdbeq	fp!, {}	; <UNPREDICTABLE>
    1a54:	70140000 	andsvc	r0, r4, r0
    1a58:	0f540100 	svceq	0x00540100
    1a5c:	00000178 	andeq	r0, r0, r8, ror r1
    1a60:	0000096f 	andeq	r0, r0, pc, ror #18
    1a64:	0000096b 	andeq	r0, r0, fp, ror #18
    1a68:	03241500 			; <UNDEFINED> instruction: 0x03241500
    1a6c:	2d010000 	stccs	0, cr0, [r1, #-0]
    1a70:	0000f307 	andeq	pc, r0, r7, lsl #6
    1a74:	008ba800 	addeq	sl, fp, r0, lsl #16
    1a78:	0000ac00 	andeq	sl, r0, r0, lsl #24
    1a7c:	579c0100 	ldrpl	r0, [ip, r0, lsl #2]
    1a80:	16000002 	strne	r0, [r0], -r2
    1a84:	0000031d 	andeq	r0, r0, sp, lsl r3
    1a88:	2c1a2d01 	ldccs	13, cr2, [sl], {1}
    1a8c:	95000000 	strls	r0, [r0, #-0]
    1a90:	8d000009 	stchi	0, cr0, [r0, #-36]	; 0xffffffdc
    1a94:	14000009 	strne	r0, [r0], #-9
    1a98:	2e010070 	mcrcs	0, 0, r0, cr1, cr0, {3}
    1a9c:	0001780a 	andeq	r7, r1, sl, lsl #16
    1aa0:	0009dd00 	andeq	sp, r9, r0, lsl #26
    1aa4:	0009cf00 	andeq	ip, r9, r0, lsl #30
    1aa8:	04981700 	ldreq	r1, [r8], #1792	; 0x700
    1aac:	2e010000 	cdpcs	0, 0, cr0, cr1, cr0, {0}
    1ab0:	0001780e 	andeq	r7, r1, lr, lsl #16
    1ab4:	000a3f00 	andeq	r3, sl, r0, lsl #30
    1ab8:	000a3500 	andeq	r3, sl, r0, lsl #10
    1abc:	04aa1700 	strteq	r1, [sl], #1792	; 0x700
    1ac0:	2f010000 	svccs	0x00010000
    1ac4:	00002c0b 	andeq	r2, r0, fp, lsl #24
    1ac8:	000a8500 	andeq	r8, sl, r0, lsl #10
    1acc:	000a8300 	andeq	r8, sl, r0, lsl #6
    1ad0:	04c91800 	strbeq	r1, [r9], #2048	; 0x800
    1ad4:	30010000 	andcc	r0, r1, r0
    1ad8:	0001780a 	andeq	r7, r1, sl, lsl #16
    1adc:	00024600 	andeq	r4, r2, r0, lsl #12
    1ae0:	002c0500 	eoreq	r0, ip, r0, lsl #10
    1ae4:	19000000 	stmdbne	r0, {}	; <UNPREDICTABLE>
    1ae8:	00008c44 	andeq	r8, r0, r4, asr #24
    1aec:	00000257 	andeq	r0, r0, r7, asr r2
    1af0:	0250011a 	subseq	r0, r0, #-2147483642	; 0x80000006
    1af4:	00000074 	andeq	r0, r0, r4, ror r0
    1af8:	0004c91b 	andeq	ip, r4, fp, lsl r9
    1afc:	10190100 	andsne	r0, r9, r0, lsl #2
    1b00:	00000178 	andeq	r0, r0, r8, ror r1
    1b04:	00008b64 	andeq	r8, r0, r4, ror #22
    1b08:	00000044 	andeq	r0, r0, r4, asr #32
    1b0c:	02cb9c01 	sbceq	r9, fp, #256	; 0x100
    1b10:	691c0000 	ldmdbvs	ip, {}	; <UNPREDICTABLE>
    1b14:	0100636e 	tsteq	r0, lr, ror #6
    1b18:	002c2519 	eoreq	r2, ip, r9, lsl r5
    1b1c:	0a9c0000 	beq	fe701b24 <__bss_end__+0xfe6f714c>
    1b20:	0a980000 	beq	fe601b28 <__bss_end__+0xfe5f7150>
    1b24:	63140000 	tstvs	r4, #0, 0
    1b28:	1a010070 	bne	41cf0 <__bss_end__+0x37318>
    1b2c:	0002cb08 	andeq	ip, r2, r8, lsl #22
    1b30:	000ac000 	andeq	ip, sl, r0
    1b34:	000aba00 	andeq	fp, sl, r0, lsl #20
    1b38:	70751400 	rsbsvc	r1, r5, r0, lsl #8
    1b3c:	0a1b0100 	beq	6c1f44 <__bss_end__+0x6b756c>
    1b40:	00000178 	andeq	r0, r0, r8, ror r1
    1b44:	00000aef 	andeq	r0, r0, pc, ror #21
    1b48:	00000aeb 	andeq	r0, r0, fp, ror #21
    1b4c:	008b7c1d 	addeq	r7, fp, sp, lsl ip
    1b50:	0002d100 	andeq	sp, r2, r0, lsl #2
    1b54:	0002c100 	andeq	ip, r2, r0, lsl #2
    1b58:	50011a00 	andpl	r1, r1, r0, lsl #20
    1b5c:	33007404 	movwcc	r7, #1028	; 0x404
    1b60:	901e0024 	andsls	r0, lr, r4, lsr #32
    1b64:	7e00008b 	cdpvc	0, 0, cr0, cr0, cr11, {4}
    1b68:	00000001 	andeq	r0, r0, r1
    1b6c:	00a10407 	adceq	r0, r1, r7, lsl #8
    1b70:	d91f0000 	ldmdble	pc, {}	; <UNPREDICTABLE>
    1b74:	d9000003 	stmdble	r0, {r0, r1}
    1b78:	03000003 	movweq	r0, #3
    1b7c:	3a000b1a 	bcc	47ec <__code_start__-0x3814>
    1b80:	04000001 	streq	r0, [r0], #-1
    1b84:	00087b00 	andeq	r7, r8, r0, lsl #22
    1b88:	e1010400 	tst	r1, r0, lsl #8
    1b8c:	0c000004 	stceq	0, cr0, [r0], {4}
    1b90:	000005b2 			; <UNDEFINED> instruction: 0x000005b2
    1b94:	000005c2 	andeq	r0, r0, r2, asr #11
    1b98:	00008c54 	andeq	r8, r0, r4, asr ip
    1b9c:	00000018 	andeq	r0, r0, r8, lsl r0
    1ba0:	00000e29 	andeq	r0, r0, r9, lsr #28
    1ba4:	69050402 	stmdbvs	r5, {r1, sl}
    1ba8:	0300746e 	movweq	r7, #1134	; 0x46e
    1bac:	000005ab 	andeq	r0, r0, fp, lsr #11
    1bb0:	3817d103 	ldmdacc	r7, {r0, r1, r8, ip, lr, pc}
    1bb4:	04000000 	streq	r0, [r0], #-0
    1bb8:	00ca0704 	sbceq	r0, sl, r4, lsl #14
    1bbc:	01040000 	mrseq	r0, (UNDEF: 4)
    1bc0:	00005a06 	andeq	r5, r0, r6, lsl #20
    1bc4:	05020400 	streq	r0, [r2, #-1024]	; 0xfffffc00
    1bc8:	0000016e 	andeq	r0, r0, lr, ror #2
    1bcc:	59050404 	stmdbpl	r5, {r2, sl}
    1bd0:	04000001 	streq	r0, [r0], #-1
    1bd4:	01540508 	cmpeq	r4, r8, lsl #10
    1bd8:	01040000 	mrseq	r0, (UNDEF: 4)
    1bdc:	00005808 	andeq	r5, r0, r8, lsl #16
    1be0:	07020400 	streq	r0, [r2, -r0, lsl #8]
    1be4:	00000073 	andeq	r0, r0, r3, ror r0
    1be8:	c5070404 	strgt	r0, [r7, #-1028]	; 0xfffffbfc
    1bec:	04000000 	streq	r0, [r0], #-0
    1bf0:	00c00708 	sbceq	r0, r0, r8, lsl #14
    1bf4:	25050000 	strcs	r0, [r5, #-0]
    1bf8:	86000000 	strhi	r0, [r0], -r0
    1bfc:	06000000 	streq	r0, [r0], -r0
    1c00:	00000025 	andeq	r0, r0, r5, lsr #32
    1c04:	01620700 	cmneq	r2, r0, lsl #14
    1c08:	1c020000 	stcne	0, cr0, [r2], {-0}
    1c0c:	0000920e 	andeq	r9, r0, lr, lsl #4
    1c10:	77040800 	strvc	r0, [r4, -r0, lsl #16]
    1c14:	05000000 	streq	r0, [r0, #-0]
    1c18:	00000025 	andeq	r0, r0, r5, lsr #32
    1c1c:	000000a7 	andeq	r0, r0, r7, lsr #1
    1c20:	0000a706 	andeq	sl, r0, r6, lsl #14
    1c24:	04080000 	streq	r0, [r8], #-0
    1c28:	000000b4 	strheq	r0, [r0], -r4
    1c2c:	61080104 	tstvs	r8, r4, lsl #2
    1c30:	09000000 	stmdbeq	r0, {}	; <UNPREDICTABLE>
    1c34:	000000ad 	andeq	r0, r0, sp, lsr #1
    1c38:	00065007 	andeq	r5, r6, r7
    1c3c:	0e210200 	cdpeq	2, 2, cr0, cr1, cr0, {0}
    1c40:	000000c5 	andeq	r0, r0, r5, asr #1
    1c44:	00980408 	addseq	r0, r8, r8, lsl #8
    1c48:	8d0a0000 	stchi	0, cr0, [sl, #-0]
    1c4c:	01000000 	mrseq	r0, (UNDEF: 0)
    1c50:	01350704 	teqeq	r5, r4, lsl #14
    1c54:	8c540000 	mrahi	r0, r4, acc0
    1c58:	00180000 	andseq	r0, r8, r0
    1c5c:	9c010000 	stcls	0, cr0, [r1], {-0}
    1c60:	00000135 	andeq	r0, r0, r5, lsr r1
    1c64:	00705f0b 	rsbseq	r5, r0, fp, lsl #30
    1c68:	35140401 	ldrcc	r0, [r4, #-1025]	; 0xfffffbff
    1c6c:	01000001 	tsteq	r0, r1
    1c70:	00630b50 	rsbeq	r0, r3, r0, asr fp
    1c74:	251c0401 	ldrcs	r0, [ip, #-1025]	; 0xfffffbff
    1c78:	01000000 	mrseq	r0, (UNDEF: 0)
    1c7c:	006e0c51 	rsbeq	r0, lr, r1, asr ip
    1c80:	2c260401 	cfstrscs	mvf0, [r6], #-4
    1c84:	13000000 	movwne	r0, #0
    1c88:	0f00000b 	svceq	0x0000000b
    1c8c:	0d00000b 	stceq	0, cr0, [r0, #-44]	; 0xffffffd4
    1c90:	05010070 	streq	r0, [r1, #-112]	; 0xffffff90
    1c94:	0001370b 	andeq	r3, r1, fp, lsl #14
    1c98:	000b3c00 	andeq	r3, fp, r0, lsl #24
    1c9c:	000b3400 	andeq	r3, fp, r0, lsl #8
    1ca0:	00650d00 	rsbeq	r0, r5, r0, lsl #26
    1ca4:	37140501 	ldrcc	r0, [r4, -r1, lsl #10]
    1ca8:	74000001 	strvc	r0, [r0], #-1
    1cac:	7200000b 	andvc	r0, r0, #11, 0
    1cb0:	0000000b 	andeq	r0, r0, fp
    1cb4:	0408040e 	streq	r0, [r8], #-1038	; 0xfffffbf2
    1cb8:	000000ad 	andeq	r0, r0, sp, lsr #1
    1cbc:	00019d00 	andeq	r9, r1, r0, lsl #26
    1cc0:	47000400 	strmi	r0, [r0, -r0, lsl #8]
    1cc4:	04000009 	streq	r0, [r0], #-9
    1cc8:	0004e101 	andeq	lr, r4, r1, lsl #2
    1ccc:	06370c00 	ldrteq	r0, [r7], -r0, lsl #24
    1cd0:	05c20000 	strbeq	r0, [r2]
    1cd4:	8c6c0000 	stclhi	0, cr0, [ip], #-0
    1cd8:	00580000 	subseq	r0, r8, r0
    1cdc:	0f410000 	svceq	0x00410000
    1ce0:	19020000 	stmdbne	r2, {}	; <UNPREDICTABLE>
    1ce4:	02000006 	andeq	r0, r0, #6, 0
    1ce8:	00311b28 	eorseq	r1, r1, r8, lsr #22
    1cec:	28030000 	stmdacs	r3, {}	; <UNPREDICTABLE>
    1cf0:	04000006 	streq	r0, [r0], #-6
    1cf4:	00480004 	subeq	r0, r8, r4
    1cf8:	32040000 	andcc	r0, r4, #0, 0
    1cfc:	48000006 	stmdami	r0, {r1, r2}
    1d00:	00000000 	andeq	r0, r0, r0
    1d04:	02040500 	andeq	r0, r4, #0, 10
    1d08:	0000062a 	andeq	r0, r0, sl, lsr #12
    1d0c:	25186302 	ldrcs	r6, [r8, #-770]	; 0xfffffcfe
    1d10:	06000000 	streq	r0, [r0], -r0
    1d14:	6e690504 	cdpvs	5, 6, cr0, cr9, cr4, {0}
    1d18:	04070074 	streq	r0, [r7], #-116	; 0xffffff8c
    1d1c:	0000ca07 	andeq	ip, r0, r7, lsl #20
    1d20:	06010700 	streq	r0, [r1], -r0, lsl #14
    1d24:	0000005a 	andeq	r0, r0, sl, asr r0
    1d28:	6e050207 	cdpvs	2, 0, cr0, cr5, cr7, {0}
    1d2c:	07000001 	streq	r0, [r0, -r1]
    1d30:	01590504 	cmpeq	r9, r4, lsl #10
    1d34:	08070000 	stmdaeq	r7, {}	; <UNPREDICTABLE>
    1d38:	00015405 	andeq	r5, r1, r5, lsl #8
    1d3c:	08010700 	stmdaeq	r1, {r8, r9, sl}
    1d40:	00000058 	andeq	r0, r0, r8, asr r0
    1d44:	73070207 	movwvc	r0, #29191	; 0x7207
    1d48:	07000000 	streq	r0, [r0, -r0]
    1d4c:	00c50704 	sbceq	r0, r5, r4, lsl #14
    1d50:	08070000 	stmdaeq	r7, {}	; <UNPREDICTABLE>
    1d54:	0000c007 	andeq	ip, r0, r7
    1d58:	00560800 	subseq	r0, r6, r0, lsl #16
    1d5c:	00ab0000 	adceq	r0, fp, r0
    1d60:	56090000 	strpl	r0, [r9], -r0
    1d64:	00000000 	andeq	r0, r0, r0
    1d68:	0001620a 	andeq	r6, r1, sl, lsl #4
    1d6c:	0e1c0300 	cdpeq	3, 1, cr0, cr12, cr0, {0}
    1d70:	000000b7 	strheq	r0, [r0], -r7
    1d74:	009c040b 	addseq	r0, ip, fp, lsl #8
    1d78:	56080000 	strpl	r0, [r8], -r0
    1d7c:	cc000000 	stcgt	0, cr0, [r0], {-0}
    1d80:	09000000 	stmdbeq	r0, {}	; <UNPREDICTABLE>
    1d84:	000000cc 	andeq	r0, r0, ip, asr #1
    1d88:	d9040b00 	stmdble	r4, {r8, r9, fp}
    1d8c:	07000000 	streq	r0, [r0, -r0]
    1d90:	00610801 	rsbeq	r0, r1, r1, lsl #16
    1d94:	d20c0000 	andle	r0, ip, #0, 0
    1d98:	0a000000 	beq	1da0 <__code_start__-0x6260>
    1d9c:	00000650 	andeq	r0, r0, r0, asr r6
    1da0:	ea0e2103 	b	38a1b4 <__bss_end__+0x37f7dc>
    1da4:	0b000000 	bleq	1dac <__code_start__-0x6254>
    1da8:	0000bd04 	andeq	fp, r0, r4, lsl #26
    1dac:	06120d00 	ldreq	r0, [r2], -r0, lsl #26
    1db0:	06010000 	streq	r0, [r1], -r0
    1db4:	00005605 	andeq	r5, r0, r5, lsl #12
    1db8:	008c6c00 	addeq	r6, ip, r0, lsl #24
    1dbc:	00005800 	andeq	r5, r0, r0, lsl #16
    1dc0:	839c0100 	orrshi	r0, ip, #0
    1dc4:	0e000001 	cdpeq	0, 0, cr0, cr0, cr1, {0}
    1dc8:	00746d66 	rsbseq	r6, r4, r6, ror #26
    1dcc:	cc180601 	ldcgt	6, cr0, [r8], {1}
    1dd0:	02000000 	andeq	r0, r0, #0, 0
    1dd4:	100f7091 	mulne	pc, r1, r0	; <UNPREDICTABLE>
    1dd8:	00667562 	rsbeq	r7, r6, r2, ror #10
    1ddc:	83110801 	tsthi	r1, #65536	; 0x10000
    1de0:	05000001 	streq	r0, [r0, #-1]
    1de4:	00a5d003 	adceq	sp, r5, r3
    1de8:	060a1100 	streq	r1, [sl], -r0, lsl #2
    1dec:	09010000 	stmdbeq	r1, {}	; <UNPREDICTABLE>
    1df0:	00004a0d 	andeq	r4, r0, sp, lsl #20
    1df4:	5c910200 	lfmpl	f0, 4, [r1], {0}
    1df8:	007a7312 	rsbseq	r7, sl, r2, lsl r3
    1dfc:	560d0c01 	strpl	r0, [sp], -r1, lsl #24
    1e00:	8d000000 	stchi	0, cr0, [r0, #-0]
    1e04:	8700000b 	strhi	r0, [r0, -fp]
    1e08:	1300000b 	movwne	r0, #11
    1e0c:	00008c94 	muleq	r0, r4, ip
    1e10:	00000194 	muleq	r0, r4, r1
    1e14:	00000176 	andeq	r0, r0, r6, ror r1
    1e18:	02500114 	subseq	r0, r0, #5
    1e1c:	01140075 	tsteq	r4, r5, ror r0
    1e20:	000a0351 	andeq	r0, sl, r1, asr r3
    1e24:	52011404 	andpl	r1, r1, #4, 8	; 0x4000000
    1e28:	06489103 	strbeq	r9, [r8], -r3, lsl #2
    1e2c:	02530114 	subseq	r0, r3, #5
    1e30:	15004c91 	strne	r4, [r0, #-3217]	; 0xfffff36f
    1e34:	00008ca8 	andeq	r8, r0, r8, lsr #25
    1e38:	02500114 	subseq	r0, r0, #5
    1e3c:	00000075 	andeq	r0, r0, r5, ror r0
    1e40:	0000d216 	andeq	sp, r0, r6, lsl r2
    1e44:	00019400 	andeq	r9, r1, r0, lsl #8
    1e48:	005d1700 	subseq	r1, sp, r0, lsl #14
    1e4c:	03ff0000 	mvnseq	r0, #0, 0
    1e50:	060f1800 	streq	r1, [pc], -r0, lsl #16
    1e54:	060f0000 	streq	r0, [pc], -r0
    1e58:	02050000 	andeq	r0, r5, #0, 0
    1e5c:	00f30005 	rscseq	r0, r3, r5
    1e60:	00040000 	andeq	r0, r4, r0
    1e64:	00000a89 	andeq	r0, r0, r9, lsl #21
    1e68:	04e10104 	strbteq	r0, [r1], #260	; 0x104
    1e6c:	550c0000 	strpl	r0, [ip, #-0]
    1e70:	c2000006 	andgt	r0, r0, #6, 0
    1e74:	c4000005 	strgt	r0, [r0], #-5
    1e78:	3400008c 	strcc	r0, [r0], #-140	; 0xffffff74
    1e7c:	78000000 	stmdavc	r0, {}	; <UNPREDICTABLE>
    1e80:	02000010 	andeq	r0, r0, #16, 0
    1e84:	6e690504 	cdpvs	5, 6, cr0, cr9, cr4, {0}
    1e88:	04030074 	streq	r0, [r3], #-116	; 0xffffff8c
    1e8c:	0000ca07 	andeq	ip, r0, r7, lsl #20
    1e90:	06010300 	streq	r0, [r1], -r0, lsl #6
    1e94:	0000005a 	andeq	r0, r0, sl, asr r0
    1e98:	6e050203 	cdpvs	2, 0, cr0, cr5, cr3, {0}
    1e9c:	03000001 	movweq	r0, #1
    1ea0:	01590504 	cmpeq	r9, r4, lsl #10
    1ea4:	08030000 	stmdaeq	r3, {}	; <UNPREDICTABLE>
    1ea8:	00015405 	andeq	r5, r1, r5, lsl #8
    1eac:	08010300 	stmdaeq	r1, {r8, r9}
    1eb0:	00000058 	andeq	r0, r0, r8, asr r0
    1eb4:	73070203 	movwvc	r0, #29187	; 0x7203
    1eb8:	03000000 	movweq	r0, #0
    1ebc:	00c50704 	sbceq	r0, r5, r4, lsl #14
    1ec0:	08030000 	stmdaeq	r3, {}	; <UNPREDICTABLE>
    1ec4:	0000c007 	andeq	ip, r0, r7
    1ec8:	00250400 	eoreq	r0, r5, r0, lsl #8
    1ecc:	007a0000 	rsbseq	r0, sl, r0
    1ed0:	25050000 	strcs	r0, [r5, #-0]
    1ed4:	00000000 	andeq	r0, r0, r0
    1ed8:	00016206 	andeq	r6, r1, r6, lsl #4
    1edc:	0e1c0200 	cdpeq	2, 1, cr0, cr12, cr0, {0}
    1ee0:	00000086 	andeq	r0, r0, r6, lsl #1
    1ee4:	006b0407 	rsbeq	r0, fp, r7, lsl #8
    1ee8:	25040000 	strcs	r0, [r4, #-0]
    1eec:	9b000000 	blls	1ef4 <__code_start__-0x610c>
    1ef0:	05000000 	streq	r0, [r0, #-0]
    1ef4:	0000009b 	muleq	r0, fp, r0
    1ef8:	a8040700 	stmdage	r4, {r8, r9, sl}
    1efc:	03000000 	movweq	r0, #0
    1f00:	00610801 	rsbeq	r0, r1, r1, lsl #16
    1f04:	a1080000 	mrsge	r0, (UNDEF: 8)
    1f08:	06000000 	streq	r0, [r0], -r0
    1f0c:	00000650 	andeq	r0, r0, r0, asr r6
    1f10:	b90e2102 	stmdblt	lr, {r1, r8, sp}
    1f14:	07000000 	streq	r0, [r0, -r0]
    1f18:	00008c04 	andeq	r8, r0, r4, lsl #24
    1f1c:	00ad0900 	adceq	r0, sp, r0, lsl #18
    1f20:	0c010000 	stceq	0, cr0, [r1], {-0}
    1f24:	90030507 	andls	r0, r3, r7, lsl #10
    1f28:	0a0000a5 	beq	21c4 <__code_start__-0x5e3c>
    1f2c:	00000647 	andeq	r0, r0, r7, asr #12
    1f30:	25050401 	strcs	r0, [r5, #-1025]	; 0xfffffbff
    1f34:	c4000000 	strgt	r0, [r0], #-0
    1f38:	3400008c 	strcc	r0, [r0], #-140	; 0xffffff74
    1f3c:	01000000 	mrseq	r0, (UNDEF: 0)
    1f40:	00700b9c 			; <UNDEFINED> instruction: 0x00700b9c
    1f44:	9b1f0401 	blls	7c2f50 <__bss_end__+0x7b8578>
    1f48:	ba000000 	blt	1f50 <__code_start__-0x60b0>
    1f4c:	b600000b 	strlt	r0, [r0], -fp
    1f50:	0000000b 	andeq	r0, r0, fp
    1f54:	000ad700 	andeq	sp, sl, r0, lsl #14
    1f58:	27000400 	strcs	r0, [r0, -r0, lsl #8]
    1f5c:	0400000b 	streq	r0, [r0], #-11
    1f60:	0004e101 	andeq	lr, r4, r1, lsl #2
    1f64:	06740c00 	ldrbteq	r0, [r4], -r0, lsl #24
    1f68:	05c20000 	strbeq	r0, [r2]
    1f6c:	8cf80000 	ldclhi	0, cr0, [r8]
    1f70:	07400000 	strbeq	r0, [r0, -r0]
    1f74:	11470000 	mrsne	r0, (UNDEF: 71)
    1f78:	04020000 	streq	r0, [r2], #-0
    1f7c:	746e6905 	strbtvc	r6, [lr], #-2309	; 0xfffff6fb
    1f80:	07040300 	streq	r0, [r4, -r0, lsl #6]
    1f84:	000000ca 	andeq	r0, r0, sl, asr #1
    1f88:	5a060103 	bpl	18239c <__bss_end__+0x1779c4>
    1f8c:	03000000 	movweq	r0, #0
    1f90:	016e0502 	cmneq	lr, r2, lsl #10
    1f94:	04030000 	streq	r0, [r3], #-0
    1f98:	00015905 	andeq	r5, r1, r5, lsl #18
    1f9c:	05080300 	streq	r0, [r8, #-768]	; 0xfffffd00
    1fa0:	00000154 	andeq	r0, r0, r4, asr r1
    1fa4:	58080103 	stmdapl	r8, {r0, r1, r8}
    1fa8:	03000000 	movweq	r0, #0
    1fac:	00730702 	rsbseq	r0, r3, r2, lsl #14
    1fb0:	8b040000 	blhi	101fb8 <__bss_end__+0xf75e0>
    1fb4:	02000001 	andeq	r0, r0, #1, 0
    1fb8:	00691934 	rsbeq	r1, r9, r4, lsr r9
    1fbc:	04030000 	streq	r0, [r3], #-0
    1fc0:	0000c507 	andeq	ip, r0, r7, lsl #10
    1fc4:	066b0400 	strbteq	r0, [fp], -r0, lsl #8
    1fc8:	37020000 	strcc	r0, [r2, -r0]
    1fcc:	00007c19 	andeq	r7, r0, r9, lsl ip
    1fd0:	07080300 	streq	r0, [r8, -r0, lsl #6]
    1fd4:	000000c0 	andeq	r0, r0, r0, asr #1
    1fd8:	00002505 	andeq	r2, r0, r5, lsl #10
    1fdc:	00009200 	andeq	r9, r0, r0, lsl #4
    1fe0:	00250600 	eoreq	r0, r5, r0, lsl #12
    1fe4:	07000000 	streq	r0, [r0, -r0]
    1fe8:	00000162 	andeq	r0, r0, r2, ror #2
    1fec:	9e0e1c03 	cdpls	12, 0, cr1, cr14, cr3, {0}
    1ff0:	08000000 	stmdaeq	r0, {}	; <UNPREDICTABLE>
    1ff4:	00008304 	andeq	r8, r0, r4, lsl #6
    1ff8:	00250500 	eoreq	r0, r5, r0, lsl #10
    1ffc:	00b30000 	adcseq	r0, r3, r0
    2000:	b3060000 	movwlt	r0, #24576	; 0x6000
    2004:	00000000 	andeq	r0, r0, r0
    2008:	00c00408 	sbceq	r0, r0, r8, lsl #8
    200c:	01030000 	mrseq	r0, (UNDEF: 3)
    2010:	00006108 	andeq	r6, r0, r8, lsl #2
    2014:	00b90900 	adcseq	r0, r9, r0, lsl #18
    2018:	50070000 	andpl	r0, r7, r0
    201c:	03000006 	movweq	r0, #6
    2020:	00d10e21 	sbcseq	r0, r1, r1, lsr #28
    2024:	04080000 	streq	r0, [r8], #-0
    2028:	000000a4 	andeq	r0, r0, r4, lsr #1
    202c:	00068707 	andeq	r8, r6, r7, lsl #14
    2030:	0d0b0400 	cfstrseq	mvf0, [fp, #-0]
    2034:	000000b9 	strheq	r0, [r0], -r9
    2038:	0006d907 	andeq	sp, r6, r7, lsl #18
    203c:	0d0c0400 	cfstrseq	mvf0, [ip, #-0]
    2040:	000000b9 	strheq	r0, [r0], -r9
    2044:	00035c07 	andeq	r5, r3, r7, lsl #24
    2048:	0d0d0400 	cfstrseq	mvf0, [sp, #-0]
    204c:	000000b9 	strheq	r0, [r0], -r9
    2050:	00042d07 	andeq	r2, r4, r7, lsl #26
    2054:	0d0e0400 	cfstrseq	mvf0, [lr, #-0]
    2058:	000000b9 	strheq	r0, [r0], -r9
    205c:	00046307 	andeq	r6, r4, r7, lsl #6
    2060:	0d0f0400 	cfstrseq	mvf0, [pc, #-0]	; 2068 <__code_start__-0x5f98>
    2064:	000000b9 	strheq	r0, [r0], -r9
    2068:	0003be07 	andeq	fp, r3, r7, lsl #28
    206c:	0d100400 	cfldrseq	mvf0, [r0, #-0]
    2070:	000000b9 	strheq	r0, [r0], -r9
    2074:	00070907 	andeq	r0, r7, r7, lsl #18
    2078:	0d110400 	cfldrseq	mvf0, [r1, #-0]
    207c:	000000b9 	strheq	r0, [r0], -r9
    2080:	0006a407 	andeq	sl, r6, r7, lsl #8
    2084:	0d120400 	cfldrseq	mvf0, [r2, #-0]
    2088:	000000b9 	strheq	r0, [r0], -r9
    208c:	00061904 	andeq	r1, r6, r4, lsl #18
    2090:	1b280500 	blne	a03498 <__bss_end__+0x9f8ac0>
    2094:	00000143 	andeq	r0, r0, r3, asr #2
    2098:	0006280a 	andeq	r2, r6, sl, lsl #16
    209c:	00060400 	andeq	r0, r6, r0, lsl #8
    20a0:	0000015a 	andeq	r0, r0, sl, asr r1
    20a4:	0006320b 	andeq	r3, r6, fp, lsl #4
    20a8:	00015a00 	andeq	r5, r1, r0, lsl #20
    20ac:	0c000000 	stceq	0, cr0, [r0], {-0}
    20b0:	062a0404 	strteq	r0, [sl], -r4, lsl #8
    20b4:	63050000 	movwvs	r0, #20480	; 0x5000
    20b8:	00013718 	andeq	r3, r1, r8, lsl r7
    20bc:	060f0d00 	streq	r0, [pc], -r0, lsl #26
    20c0:	81010000 	mrshi	r0, (UNDEF: 1)
    20c4:	00002505 	andeq	r2, r0, r5, lsl #10
    20c8:	008f8000 	addeq	r8, pc, r0
    20cc:	0004b800 	andeq	fp, r4, r0, lsl #16
    20d0:	179c0100 	ldrne	r0, [ip, r0, lsl #2]
    20d4:	0e000007 	cdpeq	0, 0, cr0, cr0, cr7, {0}
    20d8:	00667562 	rsbeq	r7, r6, r2, ror #10
    20dc:	17158101 	ldrne	r8, [r5, -r1, lsl #2]
    20e0:	de000007 	cdple	0, 0, cr0, cr0, cr7, {0}
    20e4:	d800000b 	stmdale	r0, {r0, r1, r3}
    20e8:	0e00000b 	cdpeq	0, 0, cr0, cr0, cr11, {0}
    20ec:	8101006e 	tsthi	r1, lr, rrx
    20f0:	0000251e 	andeq	r2, r0, lr, lsl r5
    20f4:	000c1000 	andeq	r1, ip, r0
    20f8:	000c0a00 	andeq	r0, ip, r0, lsl #20
    20fc:	6d660e00 	stclvs	14, cr0, [r6, #-0]
    2100:	81010074 	tsthi	r1, r4, ror r0
    2104:	0000b32d 	andeq	fp, r0, sp, lsr #6
    2108:	000c4a00 	andeq	r4, ip, r0, lsl #20
    210c:	000c3e00 	andeq	r3, ip, r0, lsl #28
    2110:	060a0f00 	streq	r0, [sl], -r0, lsl #30
    2114:	81010000 	mrshi	r0, (UNDEF: 1)
    2118:	00015c3a 	andeq	r5, r1, sl, lsr ip
    211c:	d4910300 	ldrle	r0, [r1], #768	; 0x300
    2120:	0070107d 	rsbseq	r1, r0, sp, ror r0
    2124:	17088201 	strne	r8, [r8, -r1, lsl #4]
    2128:	a8000007 	stmdage	r0, {r0, r1, r2}
    212c:	9400000c 	strls	r0, [r0], #-12
    2130:	1000000c 	andne	r0, r0, ip
    2134:	82010065 	andhi	r0, r1, #101, 0	; 0x65
    2138:	00071712 	andeq	r1, r7, r2, lsl r7
    213c:	000d2a00 	andeq	r2, sp, r0, lsl #20
    2140:	000d2600 	andeq	r2, sp, r0, lsl #12
    2144:	30781000 	rsbscc	r1, r8, r0
    2148:	0e830100 	rmfeqs	f0, f3, f0
    214c:	0000005d 	andeq	r0, r0, sp, asr r0
    2150:	00000d57 	andeq	r0, r0, r7, asr sp
    2154:	00000d51 	andeq	r0, r0, r1, asr sp
    2158:	00317810 	eorseq	r7, r1, r0, lsl r8
    215c:	5d118301 	ldcpl	3, cr8, [r1, #-4]
    2160:	84000000 	strhi	r0, [r0], #-0
    2164:	8000000d 	andhi	r0, r0, sp
    2168:	1100000d 	tstne	r0, sp
    216c:	000006c2 	andeq	r0, r0, r2, asr #13
    2170:	b3118601 	tstlt	r1, #1048576	; 0x100000
    2174:	a6000000 	strge	r0, [r0], -r0
    2178:	a200000d 	andge	r0, r0, #13, 0
    217c:	1200000d 	andne	r0, r0, #13, 0
    2180:	00000099 	muleq	r0, r9, r0
    2184:	0000072d 	andeq	r0, r0, sp, lsr #14
    2188:	a37c0305 	cmnge	ip, #335544320	; 0x14000000
    218c:	e8130000 	ldmda	r3, {}	; <UNPREDICTABLE>
    2190:	0000008f 	andeq	r0, r0, pc, lsl #1
    2194:	10000004 	andne	r0, r0, r4
    2198:	91010073 	tstls	r1, r3, ror r0
    219c:	0007170a 	andeq	r1, r7, sl, lsl #14
    21a0:	000ddc00 	andeq	sp, sp, r0, lsl #24
    21a4:	000dc600 	andeq	ip, sp, r0, lsl #12
    21a8:	756e1400 	strbvc	r1, [lr, #-1024]!	; 0xfffffc00
    21ac:	9101006d 	tstls	r1, sp, rrx
    21b0:	0007320d 	andeq	r3, r7, sp, lsl #4
    21b4:	d8910300 	ldmle	r1, {r8, r9}
    21b8:	0716157d 			; <UNDEFINED> instruction: 0x0716157d
    21bc:	91010000 	mrsls	r0, (UNDEF: 1)
    21c0:	00073217 	andeq	r3, r7, r7, lsl r2
    21c4:	d8910300 	ldmle	r1, {r8, r9}
    21c8:	0696117e 			; <UNDEFINED> instruction: 0x0696117e
    21cc:	92010000 	andls	r0, r1, #0, 0
    21d0:	00002c0d 	andeq	r2, r0, sp, lsl #24
    21d4:	000e6300 	andeq	r6, lr, r0, lsl #6
    21d8:	000e5d00 	andeq	r5, lr, r0, lsl #26
    21dc:	90b01600 	adcsls	r1, r0, r0, lsl #12
    21e0:	01a40000 			; <UNDEFINED> instruction: 0x01a40000
    21e4:	05390000 	ldreq	r0, [r9, #-0]!
    21e8:	74100000 	ldrvc	r0, [r0], #-0
    21ec:	9e010079 	mcrls	0, 0, r0, cr1, cr9, {3}
    21f0:	0000b31d 	andeq	fp, r0, sp, lsl r3
    21f4:	000e9700 	andeq	r9, lr, r0, lsl #14
    21f8:	000e8d00 	andeq	r8, lr, r0, lsl #26
    21fc:	78781700 	ldmdavc	r8!, {r8, r9, sl, ip}^
    2200:	1aa20100 	bne	fe882608 <__bss_end__+0xfe877c30>
    2204:	00000070 	andeq	r0, r0, r0, ror r0
    2208:	0090c018 	addseq	ip, r0, r8, lsl r0
    220c:	000a9200 	andeq	r9, sl, r0, lsl #4
    2210:	0002d500 	andeq	sp, r2, r0, lsl #10
    2214:	50011900 	andpl	r1, r1, r0, lsl #18
    2218:	19007602 	stmdbne	r0, {r1, r9, sl, ip, sp, lr}
    221c:	03055101 	movweq	r5, #20737	; 0x5101
    2220:	0000a270 	andeq	sl, r0, r0, ror r2
    2224:	01520119 	cmpeq	r2, r9, lsl r1
    2228:	d8180033 	ldmdale	r8, {r0, r1, r4, r5}
    222c:	92000090 	andls	r0, r0, #144, 0	; 0x90
    2230:	f700000a 			; <UNDEFINED> instruction: 0xf700000a
    2234:	19000002 	stmdbne	r0, {r1}
    2238:	76025001 	strvc	r5, [r2], -r1
    223c:	51011900 	tstpl	r1, r0, lsl #18
    2240:	a2740305 	rsbsge	r0, r4, #335544320	; 0x14000000
    2244:	01190000 	tsteq	r9, r0
    2248:	00330152 	eorseq	r0, r3, r2, asr r1
    224c:	00910c18 	addseq	r0, r1, r8, lsl ip
    2250:	000a9e00 	andeq	r9, sl, r0, lsl #28
    2254:	00031400 	andeq	r1, r3, r0, lsl #8
    2258:	50011900 	andpl	r1, r1, r0, lsl #18
    225c:	a2780305 	rsbsge	r0, r8, #335544320	; 0x14000000
    2260:	01190000 	tsteq	r9, r0
    2264:	00770251 	rsbseq	r0, r7, r1, asr r2
    2268:	91181800 	tstls	r8, r0, lsl #16
    226c:	0a9e0000 	beq	fe782274 <__bss_end__+0xfe77789c>
    2270:	03310000 	teqeq	r1, #0, 0
    2274:	01190000 	tsteq	r9, r0
    2278:	80030550 	andhi	r0, r3, r0, asr r5
    227c:	190000a2 	stmdbne	r0, {r1, r5, r7}
    2280:	7a025101 	bvc	9668c <__bss_end__+0x8bcb4>
    2284:	28180000 	ldmdacs	r8, {}	; <UNPREDICTABLE>
    2288:	92000091 	andls	r0, r0, #145, 0	; 0x91
    228c:	5300000a 	movwpl	r0, #10
    2290:	19000003 	stmdbne	r0, {r0, r1}
    2294:	76025001 	strvc	r5, [r2], -r1
    2298:	51011900 	tstpl	r1, r0, lsl #18
    229c:	a2700305 	rsbsge	r0, r0, #335544320	; 0x14000000
    22a0:	01190000 	tsteq	r9, r0
    22a4:	00330152 	eorseq	r0, r3, r2, asr r1
    22a8:	00914018 	addseq	r4, r1, r8, lsl r0
    22ac:	000a9200 	andeq	r9, sl, r0, lsl #4
    22b0:	00037500 	andeq	r7, r3, r0, lsl #10
    22b4:	50011900 	andpl	r1, r1, r0, lsl #18
    22b8:	19007602 	stmdbne	r0, {r1, r9, sl, ip, sp, lr}
    22bc:	03055101 	movweq	r5, #20737	; 0x5101
    22c0:	0000a274 	andeq	sl, r0, r4, ror r2
    22c4:	01520119 	cmpeq	r2, r9, lsl r1
    22c8:	68180033 	ldmdavs	r8, {r0, r1, r4, r5}
    22cc:	42000091 	andmi	r0, r0, #145, 0	; 0x91
    22d0:	a9000007 	stmdbge	r0, {r0, r1, r2}
    22d4:	19000003 	stmdbne	r0, {r0, r1}
    22d8:	3a015001 	bcc	562e4 <__bss_end__+0x4b90c>
    22dc:	03510119 	cmpeq	r1, #1073741830	; 0x40000006
    22e0:	197dd091 	ldmdbne	sp!, {r0, r4, r7, ip, lr, pc}^
    22e4:	08025201 	stmdaeq	r2, {r0, r9, ip, lr}
    22e8:	53011980 	movwpl	r1, #6528	; 0x1980
    22ec:	19007702 	stmdbne	r0, {r1, r8, r9, sl, ip, sp, lr}
    22f0:	02007d02 	andeq	r7, r0, #128	; 0x80
    22f4:	02190075 	andseq	r0, r9, #117, 0	; 0x75
    22f8:	7602047d 			; <UNDEFINED> instruction: 0x7602047d
    22fc:	88180000 	ldmdahi	r8, {}	; <UNPREDICTABLE>
    2300:	42000091 	andmi	r0, r0, #145, 0	; 0x91
    2304:	dd000007 	stcle	0, cr0, [r0, #-28]	; 0xffffffe4
    2308:	19000003 	stmdbne	r0, {r0, r1}
    230c:	3a015001 	bcc	56318 <__bss_end__+0x4b940>
    2310:	03510119 	cmpeq	r1, #1073741830	; 0x40000006
    2314:	197ed091 	ldmdbne	lr!, {r0, r4, r7, ip, lr, pc}^
    2318:	08025201 	stmdaeq	r2, {r0, r9, ip, lr}
    231c:	53011980 	movwpl	r1, #6528	; 0x1980
    2320:	19007a02 	stmdbne	r0, {r1, r9, fp, ip, sp, lr}
    2324:	02007d02 	andeq	r7, r0, #128	; 0x80
    2328:	02190075 	andseq	r0, r9, #117, 0	; 0x75
    232c:	7602047d 			; <UNDEFINED> instruction: 0x7602047d
    2330:	94180000 	ldrls	r0, [r8], #-0
    2334:	aa000091 	bge	2580 <__code_start__-0x5a80>
    2338:	fb00000a 	blx	236a <__code_start__-0x5c96>
    233c:	19000003 	stmdbne	r0, {r0, r1}
    2340:	91035001 	tstls	r3, r1
    2344:	01197dd0 			; <UNDEFINED> instruction: 0x01197dd0
    2348:	d8030551 	stmdale	r3, {r0, r4, r6, r8, sl}
    234c:	000000a0 	andeq	r0, r0, r0, lsr #1
    2350:	0091a818 	addseq	sl, r1, r8, lsl r8
    2354:	000ab600 	andeq	fp, sl, r0, lsl #12
    2358:	00041700 	andeq	r1, r4, r0, lsl #14
    235c:	50011900 	andpl	r1, r1, r0, lsl #18
    2360:	7dd09103 	ldfvcp	f1, [r0, #12]
    2364:	03510119 	cmpeq	r1, #1073741830	; 0x40000006
    2368:	007ed091 			; <UNDEFINED> instruction: 0x007ed091
    236c:	0091cc18 	addseq	ip, r1, r8, lsl ip
    2370:	000a9e00 	andeq	r9, sl, r0, lsl #28
    2374:	00045000 	andeq	r5, r4, r0
    2378:	50011900 	andpl	r1, r1, r0, lsl #18
    237c:	9d7c0305 	ldclls	3, cr0, [ip, #-20]!	; 0xffffffec
    2380:	01190000 	tsteq	r9, r0
    2384:	24030551 	strcs	r0, [r3], #-1361	; 0xfffffaaf
    2388:	190000a2 	stmdbne	r0, {r1, r5, r7}
    238c:	03055201 	movweq	r5, #20993	; 0x5201
    2390:	0000a37c 	andeq	sl, r0, ip, ror r3
    2394:	02530119 	subseq	r0, r3, #1073741830	; 0x40000006
    2398:	02199f08 	andseq	r9, r9, #8, 30
    239c:	0305007d 	movweq	r0, #20605	; 0x507d
    23a0:	0000a288 	andeq	sl, r0, r8, lsl #5
    23a4:	91d01a00 	bicsls	r1, r0, r0, lsl #20
    23a8:	0ac20000 	beq	ff0823b0 <__bss_end__+0xff0779d8>
    23ac:	f0180000 			; <UNDEFINED> instruction: 0xf0180000
    23b0:	42000091 	andmi	r0, r0, #145, 0	; 0x91
    23b4:	8d000007 	stchi	0, cr0, [r0, #-28]	; 0xffffffe4
    23b8:	19000004 	stmdbne	r0, {r2}
    23bc:	40015001 	andmi	r5, r1, r1
    23c0:	03510119 	cmpeq	r1, #1073741830	; 0x40000006
    23c4:	197dd091 	ldmdbne	sp!, {r0, r4, r7, ip, lr, pc}^
    23c8:	08025201 	stmdaeq	r2, {r0, r9, ip, lr}
    23cc:	53011980 	movwpl	r1, #6528	; 0x1980
    23d0:	19007702 	stmdbne	r0, {r1, r8, r9, sl, ip, sp, lr}
    23d4:	02007d02 	andeq	r7, r0, #128	; 0x80
    23d8:	02190075 	andseq	r0, r9, #117, 0	; 0x75
    23dc:	7602047d 			; <UNDEFINED> instruction: 0x7602047d
    23e0:	10180000 	andsne	r0, r8, r0
    23e4:	42000092 	andmi	r0, r0, #146, 0	; 0x92
    23e8:	c1000007 	tstgt	r0, r7
    23ec:	19000004 	stmdbne	r0, {r2}
    23f0:	40015001 	andmi	r5, r1, r1
    23f4:	03510119 	cmpeq	r1, #1073741830	; 0x40000006
    23f8:	197ed091 	ldmdbne	lr!, {r0, r4, r7, ip, lr, pc}^
    23fc:	08025201 	stmdaeq	r2, {r0, r9, ip, lr}
    2400:	53011980 	movwpl	r1, #6528	; 0x1980
    2404:	19007a02 	stmdbne	r0, {r1, r9, fp, ip, sp, lr}
    2408:	02007d02 	andeq	r7, r0, #128	; 0x80
    240c:	02190075 	andseq	r0, r9, #117, 0	; 0x75
    2410:	7602047d 			; <UNDEFINED> instruction: 0x7602047d
    2414:	1c180000 	ldcne	0, cr0, [r8], {-0}
    2418:	ce000092 	mcrgt	0, 0, r0, cr0, cr2, {4}
    241c:	dd00000a 	stcle	0, cr0, [r0, #-40]	; 0xffffffd8
    2420:	19000004 	stmdbne	r0, {r2}
    2424:	91035001 	tstls	r3, r1
    2428:	01197dd0 			; <UNDEFINED> instruction: 0x01197dd0
    242c:	d2910351 	addsle	r0, r1, #1140850689	; 0x44000001
    2430:	3018007e 	andscc	r0, r8, lr, ror r0
    2434:	ce000092 	mcrgt	0, 0, r0, cr0, cr2, {4}
    2438:	f900000a 			; <UNDEFINED> instruction: 0xf900000a
    243c:	19000004 	stmdbne	r0, {r2}
    2440:	91035001 	tstls	r3, r1
    2444:	01197dd0 			; <UNDEFINED> instruction: 0x01197dd0
    2448:	d0910351 	addsle	r0, r1, r1, asr r3
    244c:	5018007e 	andspl	r0, r8, lr, ror r0
    2450:	9e000092 	mcrls	0, 0, r0, cr0, cr2, {4}
    2454:	2f00000a 	svccs	0x0000000a
    2458:	19000005 	stmdbne	r0, {r0, r2}
    245c:	03055001 	movweq	r5, #20481	; 0x5001
    2460:	0000a2c4 	andeq	sl, r0, r4, asr #5
    2464:	05510119 	ldrbeq	r0, [r1, #-281]	; 0xfffffee7
    2468:	00a22403 	adceq	r2, r2, r3, lsl #8
    246c:	52011900 	andpl	r1, r1, #0, 18
    2470:	a37c0305 	cmnge	ip, #335544320	; 0x14000000
    2474:	01190000 	tsteq	r9, r0
    2478:	b6080253 			; <UNDEFINED> instruction: 0xb6080253
    247c:	007d0219 	rsbseq	r0, sp, r9, lsl r2
    2480:	00007602 	andeq	r7, r0, r2, lsl #12
    2484:	0092541a 	addseq	r5, r2, sl, lsl r4
    2488:	000ac200 	andeq	ip, sl, r0, lsl #4
    248c:	00180000 	andseq	r0, r8, r0
    2490:	c0000090 	mulgt	r0, r0, r0
    2494:	4d000009 	stcmi	0, cr0, [r0, #-36]	; 0xffffffdc
    2498:	19000005 	stmdbne	r0, {r0, r2}
    249c:	77025001 	strvc	r5, [r2, -r1]
    24a0:	ac180000 	ldcge	0, cr0, [r8], {-0}
    24a4:	9e000090 	mcrls	0, 0, r0, cr0, cr0, {4}
    24a8:	8600000a 	strhi	r0, [r0], -sl
    24ac:	19000005 	stmdbne	r0, {r0, r2}
    24b0:	03055001 	movweq	r5, #20481	; 0x5001
    24b4:	00009d7c 	andeq	r9, r0, ip, ror sp
    24b8:	05510119 	ldrbeq	r0, [r1, #-281]	; 0xfffffee7
    24bc:	00a22403 	adceq	r2, r2, r3, lsl #8
    24c0:	52011900 	andpl	r1, r1, #0, 18
    24c4:	a37c0305 	cmnge	ip, #335544320	; 0x14000000
    24c8:	01190000 	tsteq	r9, r0
    24cc:	98080253 	stmdals	r8, {r0, r1, r4, r6, r9}
    24d0:	007d0219 	rsbseq	r0, sp, r9, lsl r2
    24d4:	a2640305 	rsbge	r0, r4, #335544320	; 0x14000000
    24d8:	1a000000 	bne	24e0 <__code_start__-0x5b20>
    24dc:	000090b0 	strheq	r9, [r0], -r0
    24e0:	00000ac2 	andeq	r0, r0, r2, asr #21
    24e4:	00926818 	addseq	r6, r2, r8, lsl r8
    24e8:	000a9e00 	andeq	r9, sl, r0, lsl #28
    24ec:	0005be00 	andeq	fp, r5, r0, lsl #28
    24f0:	50011900 	andpl	r1, r1, r0, lsl #18
    24f4:	a2ec0305 	rscge	r0, ip, #335544320	; 0x14000000
    24f8:	01190000 	tsteq	r9, r0
    24fc:	24030551 	strcs	r0, [r3], #-1361	; 0xfffffaaf
    2500:	190000a2 	stmdbne	r0, {r1, r5, r7}
    2504:	03055201 	movweq	r5, #20993	; 0x5201
    2508:	0000a37c 	andeq	sl, r0, ip, ror r3
    250c:	02530119 	subseq	r0, r3, #1073741830	; 0x40000006
    2510:	1a00be08 	bne	31d38 <__bss_end__+0x27360>
    2514:	0000926c 	andeq	r9, r0, ip, ror #4
    2518:	00000ac2 	andeq	r0, r0, r2, asr #21
    251c:	00929818 	addseq	r9, r2, r8, lsl r8
    2520:	00074200 	andeq	r4, r7, r0, lsl #4
    2524:	0005f400 	andeq	pc, r5, r0, lsl #8
    2528:	50011900 	andpl	r1, r1, r0, lsl #18
    252c:	01193a01 	tsteq	r9, r1, lsl #20
    2530:	d0910351 	addsle	r0, r1, r1, asr r3
    2534:	5201197d 	andpl	r1, r1, #2048000	; 0x1f4000
    2538:	19800802 	stmibne	r0, {r1, fp}
    253c:	02007d02 	andeq	r7, r0, #128	; 0x80
    2540:	02190075 	andseq	r0, r9, #117, 0	; 0x75
    2544:	3101047d 	tstcc	r1, sp, ror r4
    2548:	92d01800 	sbcsls	r1, r0, #0, 16
    254c:	07420000 	strbeq	r0, [r2, -r0]
    2550:	06210000 	strteq	r0, [r1], -r0
    2554:	01190000 	tsteq	r9, r0
    2558:	193a0150 	ldmdbne	sl!, {r4, r6, r8}
    255c:	91035101 	tstls	r3, r1, lsl #2
    2560:	01197dd0 			; <UNDEFINED> instruction: 0x01197dd0
    2564:	80080252 	andhi	r0, r8, r2, asr r2
    2568:	007d0219 	rsbseq	r0, sp, r9, lsl r2
    256c:	19007502 	stmdbne	r0, {r1, r8, sl, ip, sp, lr}
    2570:	01047d02 	tsteq	r4, r2, lsl #26
    2574:	04180030 	ldreq	r0, [r8], #-48	; 0xffffffd0
    2578:	42000093 	andmi	r0, r0, #147, 0	; 0x93
    257c:	4e000007 	cdpmi	0, 0, cr0, cr0, cr7, {0}
    2580:	19000006 	stmdbne	r0, {r1, r2}
    2584:	40015001 	andmi	r5, r1, r1
    2588:	03510119 	cmpeq	r1, #1073741830	; 0x40000006
    258c:	197dd091 	ldmdbne	sp!, {r0, r4, r7, ip, lr, pc}^
    2590:	08025201 	stmdaeq	r2, {r0, r9, ip, lr}
    2594:	7d021980 	vstrvc.16	s2, [r2, #-256]	; 0xffffff00	; <UNPREDICTABLE>
    2598:	00750200 	rsbseq	r0, r5, r0, lsl #4
    259c:	047d0219 	ldrbteq	r0, [sp], #-537	; 0xfffffde7
    25a0:	18003001 	stmdane	r0, {r0, ip, sp}
    25a4:	00009338 	andeq	r9, r0, r8, lsr r3
    25a8:	00000742 	andeq	r0, r0, r2, asr #14
    25ac:	0000067b 	andeq	r0, r0, fp, ror r6
    25b0:	01500119 	cmpeq	r0, r9, lsl r1
    25b4:	51011932 	tstpl	r1, r2, lsr r9
    25b8:	7dd09103 	ldfvcp	f1, [r0, #12]
    25bc:	02520119 	subseq	r0, r2, #1073741830	; 0x40000006
    25c0:	02198008 	andseq	r8, r9, #8, 0
    25c4:	7502007d 	strvc	r0, [r2, #-125]	; 0xffffff83
    25c8:	7d021900 	vstrvc.16	s2, [r2, #-0]	; <UNPREDICTABLE>
    25cc:	00300104 	eorseq	r0, r0, r4, lsl #2
    25d0:	00938018 	addseq	r8, r3, r8, lsl r0
    25d4:	00074200 	andeq	r4, r7, r0, lsl #4
    25d8:	0006a800 	andeq	sl, r6, r0, lsl #16
    25dc:	50011900 	andpl	r1, r1, r0, lsl #18
    25e0:	01193801 	tsteq	r9, r1, lsl #16
    25e4:	d0910351 	addsle	r0, r1, r1, asr r3
    25e8:	5201197d 	andpl	r1, r1, #2048000	; 0x1f4000
    25ec:	19800802 	stmibne	r0, {r1, fp}
    25f0:	02007d02 	andeq	r7, r0, #128	; 0x80
    25f4:	02190075 	andseq	r0, r9, #117, 0	; 0x75
    25f8:	3001047d 	andcc	r0, r1, sp, ror r4
    25fc:	93a01800 	movls	r1, #0, 16
    2600:	0a9e0000 	beq	fe782608 <__bss_end__+0xfe777c30>
    2604:	06cb0000 	strbeq	r0, [fp], r0
    2608:	01190000 	tsteq	r9, r0
    260c:	14030550 	strne	r0, [r3], #-1360	; 0xfffffab0
    2610:	190000a3 	stmdbne	r0, {r0, r1, r5, r7}
    2614:	7a025101 	bvc	96a20 <__bss_end__+0x8c048>
    2618:	52011900 	andpl	r1, r1, #0, 18
    261c:	00007a02 	andeq	r7, r0, r2, lsl #20
    2620:	0093b01b 	addseq	fp, r3, fp, lsl r0
    2624:	0006dd00 	andeq	sp, r6, r0, lsl #26
    2628:	50011900 	andpl	r1, r1, r0, lsl #18
    262c:	7dc89104 	stfvcp	f1, [r8, #16]
    2630:	c4180006 	ldrgt	r0, [r8], #-6
    2634:	9e000093 	mcrls	0, 0, r0, cr0, cr3, {4}
    2638:	0c00000a 	stceq	0, cr0, [r0], {10}
    263c:	19000007 	stmdbne	r0, {r0, r1, r2}
    2640:	03055001 	movweq	r5, #20481	; 0x5001
    2644:	0000a344 	andeq	sl, r0, r4, asr #6
    2648:	05510119 	ldrbeq	r0, [r1, #-281]	; 0xfffffee7
    264c:	00a22403 	adceq	r2, r2, r3, lsl #8
    2650:	52011900 	andpl	r1, r1, #0, 18
    2654:	a37c0305 	cmnge	ip, #335544320	; 0x14000000
    2658:	01190000 	tsteq	r9, r0
    265c:	e2080253 	and	r0, r8, #805306373	; 0x30000005
    2660:	93c81a00 	bicls	r1, r8, #0, 20
    2664:	0ac20000 	beq	ff08266c <__bss_end__+0xff077c94>
    2668:	00000000 	andeq	r0, r0, r0
    266c:	00b90408 	adcseq	r0, r9, r8, lsl #8
    2670:	c01c0000 	andsgt	r0, ip, r0
    2674:	2d000000 	stccs	0, cr0, [r0, #-0]
    2678:	1d000007 	stcne	0, cr0, [r0, #-28]	; 0xffffffe4
    267c:	0000002c 	andeq	r0, r0, ip, lsr #32
    2680:	1d090009 	stcne	0, cr0, [r9, #-36]	; 0xffffffdc
    2684:	1c000007 	stcne	0, cr0, [r0], {7}
    2688:	000000b9 	strheq	r0, [r0], -r9
    268c:	00000742 	andeq	r0, r0, r2, asr #14
    2690:	00002c1d 	andeq	r2, r0, sp, lsl ip
    2694:	1e007f00 	cdpne	15, 0, cr7, cr0, cr0, {0}
    2698:	000006e6 	andeq	r0, r0, r6, ror #13
    269c:	17014901 	strne	r4, [r1, -r1, lsl #18]
    26a0:	68000007 	stmdavs	r0, {r0, r1, r2}
    26a4:	b400008d 	strlt	r0, [r0], #-141	; 0xffffff73
    26a8:	01000001 	tsteq	r0, r1
    26ac:	0008ab9c 	muleq	r8, ip, fp
    26b0:	04c41f00 	strbeq	r1, [r4], #3840	; 0xf00
    26b4:	49010000 	stmdbmi	r1, {}	; <UNPREDICTABLE>
    26b8:	00002c0f 	andeq	r2, r0, pc, lsl #24
    26bc:	000ee000 	andeq	lr, lr, r0
    26c0:	000eda00 	andeq	sp, lr, r0, lsl #20
    26c4:	73640e00 	cmnvc	r4, #0, 28
    26c8:	49010074 	stmdbmi	r1, {r2, r4, r5, r6}
    26cc:	0007171b 	andeq	r1, r7, fp, lsl r7
    26d0:	000f1e00 	andeq	r1, pc, r0, lsl #28
    26d4:	000f0e00 	andeq	r0, pc, r0, lsl #28
    26d8:	006e0e00 	rsbeq	r0, lr, r0, lsl #28
    26dc:	25244901 	strcs	r4, [r4, #-2305]!	; 0xfffff6ff
    26e0:	82000000 	andhi	r0, r0, #0, 0
    26e4:	7e00000f 	cdpvc	0, 0, cr0, cr0, cr15, {0}
    26e8:	0e00000f 	cdpeq	0, 0, cr0, cr0, cr15, {0}
    26ec:	006c6176 	rsbeq	r6, ip, r6, ror r1
    26f0:	252b4901 	strcs	r4, [fp, #-2305]!	; 0xfffff6ff
    26f4:	ac000000 	stcge	0, cr0, [r0], {-0}
    26f8:	a000000f 	andge	r0, r0, pc
    26fc:	1f00000f 	svcne	0x0000000f
    2700:	00000696 	muleq	r0, r6, r6
    2704:	25344901 	ldrcs	r4, [r4, #-2305]!	; 0xfffff6ff
    2708:	02000000 	andeq	r0, r0, #0, 0
    270c:	fc000010 	stc2	0, cr0, [r0], {16}
    2710:	0f00000f 	svceq	0x0000000f
    2714:	00000723 	andeq	r0, r0, r3, lsr #14
    2718:	253f4901 	ldrcs	r4, [pc, #-2305]!	; 1e1f <__code_start__-0x61e1>
    271c:	02000000 	andeq	r0, r0, #0, 0
    2720:	62140491 	andsvs	r0, r4, #-1862270976	; 0x91000000
    2724:	01006675 	tsteq	r0, r5, ror r6
    2728:	08ab074e 	stmiaeq	fp!, {r1, r2, r3, r6, r8, r9, sl}
    272c:	91030000 	mrsls	r0, (UNDEF: 3)
    2730:	70107fa8 	andsvc	r7, r0, r8, lsr #31
    2734:	114e0100 	mrsne	r0, (UNDEF: 94)
    2738:	00000717 	andeq	r0, r0, r7, lsl r7
    273c:	0000104c 	andeq	r1, r0, ip, asr #32
    2740:	0000102c 	andeq	r1, r0, ip, lsr #32
    2744:	01007510 	tsteq	r0, r0, lsl r5
    2748:	002c0b4f 	eoreq	r0, ip, pc, asr #22
    274c:	11320000 	teqne	r2, r0
    2750:	111e0000 	tstne	lr, r0
    2754:	99120000 	ldmdbls	r2, {}	; <UNPREDICTABLE>
    2758:	cb000000 	blgt	2760 <__code_start__-0x58a0>
    275c:	05000008 	streq	r0, [r0, #-8]
    2760:	00a36403 	adceq	r6, r3, r3, lsl #8
    2764:	8dd41600 	ldclhi	6, cr1, [r4]
    2768:	00780000 	rsbseq	r0, r8, r0
    276c:	08320000 	ldmdaeq	r2!, {}	; <UNPREDICTABLE>
    2770:	d3110000 	tstle	r1, #0, 0
    2774:	01000006 	tsteq	r0, r6
    2778:	002c0d54 	eoreq	r0, ip, r4, asr sp
    277c:	11b30000 			; <UNDEFINED> instruction: 0x11b30000
    2780:	11ab0000 			; <UNDEFINED> instruction: 0x11ab0000
    2784:	18000000 	stmdane	r0, {}	; <UNPREDICTABLE>
    2788:	00008e8c 	andeq	r8, r0, ip, lsl #29
    278c:	0000095d 	andeq	r0, r0, sp, asr r9
    2790:	00000847 	andeq	r0, r0, r7, asr #16
    2794:	03510119 	cmpeq	r1, #1073741830	; 0x40000006
    2798:	007fa091 			; <UNDEFINED> instruction: 0x007fa091
    279c:	008ea018 	addeq	sl, lr, r8, lsl r0
    27a0:	0008d000 	andeq	sp, r8, r0
    27a4:	00086800 	andeq	r6, r8, r0, lsl #16
    27a8:	50011900 	andpl	r1, r1, r0, lsl #18
    27ac:	19007502 	stmdbne	r0, {r1, r8, sl, ip, sp, lr}
    27b0:	74025101 	strvc	r5, [r2], #-257	; 0xfffffeff
    27b4:	53011900 	movwpl	r1, #6400	; 0x1900
    27b8:	7fa09103 	svcvc	0x00a09103
    27bc:	8ef81800 	cdphi	8, 15, cr1, cr8, cr0, {0}
    27c0:	0a9e0000 	beq	fe7827c8 <__bss_end__+0xfe777df0>
    27c4:	08a10000 	stmiaeq	r1!, {}	; <UNPREDICTABLE>
    27c8:	01190000 	tsteq	r9, r0
    27cc:	7c030550 	cfstr32vc	mvfx0, [r3], {80}	; 0x50
    27d0:	1900009d 	stmdbne	r0, {r0, r2, r3, r4, r7}
    27d4:	03055101 	movweq	r5, #20737	; 0x5101
    27d8:	0000a224 	andeq	sl, r0, r4, lsr #4
    27dc:	05520119 	ldrbeq	r0, [r2, #-281]	; 0xfffffee7
    27e0:	00a36403 	adceq	r6, r3, r3, lsl #8
    27e4:	53011900 	movwpl	r1, #6400	; 0x1900
    27e8:	19790802 	ldmdbne	r9!, {r1, fp}^
    27ec:	05007d02 	streq	r7, [r0, #-3330]	; 0xfffff2fe
    27f0:	00a0d803 	adceq	sp, r0, r3, lsl #16
    27f4:	fc1a0000 	ldc2	0, cr0, [sl], {-0}
    27f8:	c200008e 	andgt	r0, r0, #142, 0	; 0x8e
    27fc:	0000000a 	andeq	r0, r0, sl
    2800:	0000b91c 	andeq	fp, r0, ip, lsl r9
    2804:	0008bb00 	andeq	fp, r8, r0, lsl #22
    2808:	002c1d00 	eoreq	r1, ip, r0, lsl #26
    280c:	003f0000 	eorseq	r0, pc, r0
    2810:	0000c01c 	andeq	ip, r0, ip, lsl r0
    2814:	0008cb00 	andeq	ip, r8, r0, lsl #22
    2818:	002c1d00 	eoreq	r1, ip, r0, lsl #26
    281c:	00040000 	andeq	r0, r4, r0
    2820:	0008bb09 	andeq	fp, r8, r9, lsl #22
    2824:	06f31e00 	ldrbteq	r1, [r3], r0, lsl #28
    2828:	38010000 	stmdacc	r1, {}	; <UNPREDICTABLE>
    282c:	0007170e 	andeq	r1, r7, lr, lsl #14
    2830:	008d3000 	addeq	r3, sp, r0
    2834:	00003800 	andeq	r3, r0, r0, lsl #16
    2838:	5d9c0100 	ldfpls	f0, [ip]
    283c:	0e000009 	cdpeq	0, 0, cr0, cr0, cr9, {0}
    2840:	00747364 	rsbseq	r7, r4, r4, ror #6
    2844:	171c3801 	ldrne	r3, [ip, -r1, lsl #16]
    2848:	f4000007 	vst4.8	{d0-d3}, [r0], r7
    284c:	ea000011 	b	2898 <__code_start__-0x5768>
    2850:	0e000011 	mcreq	0, 0, r0, cr0, cr1, {0}
    2854:	3801006e 	stmdacc	r1, {r1, r2, r3, r5, r6}
    2858:	00002525 	andeq	r2, r0, r5, lsr #10
    285c:	00123b00 	andseq	r3, r2, r0, lsl #22
    2860:	00123700 	andseq	r3, r2, r0, lsl #14
    2864:	00700e00 	rsbseq	r0, r0, r0, lsl #28
    2868:	172e3801 	strne	r3, [lr, -r1, lsl #16]!
    286c:	64000007 	strvs	r0, [r0], #-7
    2870:	5c000012 	stcpl	0, cr0, [r0], {18}
    2874:	1f000012 	svcne	0x00000012
    2878:	0000033e 	andeq	r0, r0, lr, lsr r3
    287c:	17373801 	ldrne	r3, [r7, -r1, lsl #16]!
    2880:	9e000007 	cdpls	0, 0, cr0, cr0, cr7, {0}
    2884:	9a000012 	bls	28d4 <__code_start__-0x572c>
    2888:	10000012 	andne	r0, r0, r2, lsl r0
    288c:	006e656c 	rsbeq	r6, lr, ip, ror #10
    2890:	25063a01 	strcs	r3, [r6, #-2561]	; 0xfffff5ff
    2894:	c4000000 	strgt	r0, [r0], #-0
    2898:	bc000012 	stclt	0, cr0, [r0], {18}
    289c:	10000012 	andne	r0, r0, r2, lsl r0
    28a0:	3e010073 	mcrcc	0, 0, r0, cr1, cr3, {3}
    28a4:	00071708 	andeq	r1, r7, r8, lsl #14
    28a8:	00131200 	andseq	r1, r3, r0, lsl #4
    28ac:	00131000 	andseq	r1, r3, r0
    28b0:	70200000 	eorvc	r0, r0, r0
    28b4:	01006461 	tsteq	r0, r1, ror #8
    28b8:	07170e2e 	ldreq	r0, [r7, -lr, lsr #28]
    28bc:	8d0c0000 	stchi	0, cr0, [ip, #-0]
    28c0:	00240000 	eoreq	r0, r4, r0
    28c4:	9c010000 	stcls	0, cr0, [r1], {-0}
    28c8:	000009c0 	andeq	r0, r0, r0, asr #19
    28cc:	0100700e 	tsteq	r0, lr
    28d0:	0717182e 	ldreq	r1, [r7, -lr, lsr #16]
    28d4:	132b0000 			; <UNDEFINED> instruction: 0x132b0000
    28d8:	13250000 			; <UNDEFINED> instruction: 0x13250000
    28dc:	c41f0000 	ldrgt	r0, [pc], #-0	; 28e4 <__code_start__-0x571c>
    28e0:	01000004 	tsteq	r0, r4
    28e4:	0717222e 	ldreq	r2, [r7, -lr, lsr #4]
    28e8:	135a0000 	cmpne	sl, #0, 0
    28ec:	13560000 	cmpne	r6, #0, 0
    28f0:	960f0000 	strls	r0, [pc], -r0
    28f4:	01000006 	tsteq	r0, r6
    28f8:	00252c2e 	eoreq	r2, r5, lr, lsr #24
    28fc:	52010000 	andpl	r0, r1, #0, 0
    2900:	6e656c10 	mcrvs	12, 3, r6, cr5, cr0, {0}
    2904:	062f0100 	strteq	r0, [pc], -r0, lsl #2
    2908:	00000025 	andeq	r0, r0, r5, lsr #32
    290c:	0000137d 	andeq	r1, r0, sp, ror r3
    2910:	0000137b 	andeq	r1, r0, fp, ror r3
    2914:	06631e00 	strbteq	r1, [r3], -r0, lsl #28
    2918:	27010000 	strcs	r0, [r1, -r0]
    291c:	0000250c 	andeq	r2, r0, ip, lsl #10
    2920:	008cf800 	addeq	pc, ip, r0, lsl #16
    2924:	00001400 	andeq	r1, r0, r0, lsl #8
    2928:	ed9c0100 	ldfs	f0, [ip]
    292c:	0e000009 	cdpeq	0, 0, cr0, cr0, cr9, {0}
    2930:	27010063 	strcs	r0, [r1, -r3, rrx]
    2934:	00002518 	andeq	r2, r0, r8, lsl r5
    2938:	00139600 	andseq	r9, r3, r0, lsl #12
    293c:	00139000 	andseq	r9, r3, r0
    2940:	b3210000 			; <UNDEFINED> instruction: 0xb3210000
    2944:	01000006 	tsteq	r0, r6
    2948:	8f1c061f 	svchi	0x001c061f
    294c:	00640000 	rsbeq	r0, r4, r0
    2950:	9c010000 	stcls	0, cr0, [r1], {-0}
    2954:	00000a7d 	andeq	r0, r0, sp, ror sl
    2958:	00069c1f 	andeq	r9, r6, pc, lsl ip
    295c:	1b1f0100 	blne	7c2d64 <__bss_end__+0x7b838c>
    2960:	0000009e 	muleq	r0, lr, r0
    2964:	000013c8 	andeq	r1, r0, r8, asr #7
    2968:	000013c4 	andeq	r1, r0, r4, asr #7
    296c:	0006eb1f 	andeq	lr, r6, pc, lsl fp
    2970:	301f0100 	andscc	r0, pc, r0, lsl #2
    2974:	000000d1 	ldrdeq	r0, [r0], -r1
    2978:	000013ed 	andeq	r1, r0, sp, ror #7
    297c:	000013e9 	andeq	r1, r0, r9, ror #7
    2980:	00009912 	andeq	r9, r0, r2, lsl r9
    2984:	000a8d00 	andeq	r8, sl, r0, lsl #26
    2988:	6c030500 	cfstr32vs	mvfx0, [r3], {-0}
    298c:	180000a3 	stmdane	r0, {r0, r1, r5, r7}
    2990:	00008f64 	andeq	r8, r0, r4, ror #30
    2994:	00000a9e 	muleq	r0, lr, sl
    2998:	00000a73 	andeq	r0, r0, r3, ror sl
    299c:	05500119 	ldrbeq	r0, [r0, #-281]	; 0xfffffee7
    29a0:	009d7c03 	addseq	r7, sp, r3, lsl #24
    29a4:	51011900 	tstpl	r1, r0, lsl #18
    29a8:	a2240305 	eorge	r0, r4, #335544320	; 0x14000000
    29ac:	01190000 	tsteq	r9, r0
    29b0:	6c030552 	cfstr32vs	mvfx0, [r3], {82}	; 0x52
    29b4:	190000a3 	stmdbne	r0, {r0, r1, r5, r7}
    29b8:	08025301 	stmdaeq	r2, {r0, r8, r9, ip, lr}
    29bc:	7d021920 	vstrvc.16	s2, [r2, #-64]	; 0xffffffc0	; <UNPREDICTABLE>
    29c0:	5c030500 	cfstr32pl	mvfx0, [r3], {-0}
    29c4:	000000a2 	andeq	r0, r0, r2, lsr #1
    29c8:	008f681a 	addeq	r6, pc, sl, lsl r8	; <UNPREDICTABLE>
    29cc:	000ac200 	andeq	ip, sl, r0, lsl #4
    29d0:	c01c0000 	andsgt	r0, ip, r0
    29d4:	8d000000 	stchi	0, cr0, [r0, #-0]
    29d8:	1d00000a 	stcne	0, cr0, [r0, #-40]	; 0xffffffd8
    29dc:	0000002c 	andeq	r0, r0, ip, lsr #32
    29e0:	7d09000e 	stcvc	0, cr0, [r9, #-56]	; 0xffffffc8
    29e4:	2200000a 	andcs	r0, r0, #10, 0
    29e8:	0000071b 	andeq	r0, r0, fp, lsl r7
    29ec:	0000071b 	andeq	r0, r0, fp, lsl r7
    29f0:	2205f003 	andcs	pc, r5, #3, 0
    29f4:	00000612 	andeq	r0, r0, r2, lsl r6
    29f8:	00000612 	andeq	r0, r0, r2, lsl r6
    29fc:	22062803 	andcs	r2, r6, #196608	; 0x30000
    2a00:	00000702 	andeq	r0, r0, r2, lsl #14
    2a04:	00000702 	andeq	r0, r0, r2, lsl #14
    2a08:	2205ef03 	andcs	lr, r5, #3, 30
    2a0c:	000006cc 	andeq	r0, r0, ip, asr #13
    2a10:	000006cc 	andeq	r0, r0, ip, asr #13
    2a14:	2207f203 	andcs	pc, r7, #805306368	; 0x30000000
    2a18:	00000066 	andeq	r0, r0, r6, rrx
    2a1c:	00000066 	andeq	r0, r0, r6, rrx
    2a20:	22066e03 	andcs	r6, r6, #3, 28	; 0x30
    2a24:	000006fb 	strdeq	r0, [r0], -fp
    2a28:	000006fb 	strdeq	r0, [r0], -fp
    2a2c:	0007f303 	andeq	pc, r7, r3, lsl #6
    2a30:	0000012f 	andeq	r0, r0, pc, lsr #2
    2a34:	0d310004 	ldceq	0, cr0, [r1, #-16]!
    2a38:	01040000 	mrseq	r0, (UNDEF: 4)
    2a3c:	000004e1 	andeq	r0, r0, r1, ror #9
    2a40:	0007400c 	andeq	r4, r7, ip
    2a44:	0005c200 	andeq	ip, r5, r0, lsl #4
    2a48:	00943800 	addseq	r3, r4, r0, lsl #16
    2a4c:	00002c00 	andeq	r2, r0, r0, lsl #24
    2a50:	00176800 	andseq	r6, r7, r0, lsl #16
    2a54:	05040200 	streq	r0, [r4, #-512]	; 0xfffffe00
    2a58:	00746e69 	rsbseq	r6, r4, r9, ror #28
    2a5c:	ca070403 	bgt	1c3a70 <__bss_end__+0x1b9098>
    2a60:	03000000 	movweq	r0, #0
    2a64:	005a0601 	subseq	r0, sl, r1, lsl #12
    2a68:	02030000 	andeq	r0, r3, #0, 0
    2a6c:	00016e05 	andeq	r6, r1, r5, lsl #28
    2a70:	05040300 	streq	r0, [r4, #-768]	; 0xfffffd00
    2a74:	00000159 	andeq	r0, r0, r9, asr r1
    2a78:	54050803 	strpl	r0, [r5], #-2051	; 0xfffff7fd
    2a7c:	03000001 	movweq	r0, #1
    2a80:	00580801 	subseq	r0, r8, r1, lsl #16
    2a84:	02030000 	andeq	r0, r3, #0, 0
    2a88:	00007307 	andeq	r7, r0, r7, lsl #6
    2a8c:	07040300 	streq	r0, [r4, -r0, lsl #6]
    2a90:	000000c5 	andeq	r0, r0, r5, asr #1
    2a94:	c0070803 	andgt	r0, r7, r3, lsl #16
    2a98:	04000000 	streq	r0, [r0], #-0
    2a9c:	00000025 	andeq	r0, r0, r5, lsr #32
    2aa0:	0000007a 	andeq	r0, r0, sl, ror r0
    2aa4:	00002505 	andeq	r2, r0, r5, lsl #10
    2aa8:	62060000 	andvs	r0, r6, #0, 0
    2aac:	02000001 	andeq	r0, r0, #1, 0
    2ab0:	00860e1c 	addeq	r0, r6, ip, lsl lr
    2ab4:	04070000 	streq	r0, [r7], #-0
    2ab8:	0000006b 	andeq	r0, r0, fp, rrx
    2abc:	00002504 	andeq	r2, r0, r4, lsl #10
    2ac0:	00009b00 	andeq	r9, r0, r0, lsl #22
    2ac4:	009b0500 	addseq	r0, fp, r0, lsl #10
    2ac8:	07000000 	streq	r0, [r0, -r0]
    2acc:	0000a804 	andeq	sl, r0, r4, lsl #16
    2ad0:	08010300 	stmdaeq	r1, {r8, r9}
    2ad4:	00000061 	andeq	r0, r0, r1, rrx
    2ad8:	0000a108 	andeq	sl, r0, r8, lsl #2
    2adc:	06500600 	ldrbeq	r0, [r0], -r0, lsl #12
    2ae0:	21020000 	mrscs	r0, (UNDEF: 2)
    2ae4:	0000b90e 	andeq	fp, r0, lr, lsl #18
    2ae8:	8c040700 	stchi	7, cr0, [r4], {-0}
    2aec:	09000000 	stmdbeq	r0, {}	; <UNPREDICTABLE>
    2af0:	00000066 	andeq	r0, r0, r6, rrx
    2af4:	38060401 	stmdacc	r6, {r0, sl}
    2af8:	2c000094 	stccs	0, cr0, [r0], {148}	; 0x94
    2afc:	01000000 	mrseq	r0, (UNDEF: 0)
    2b00:	00010e9c 	muleq	r1, ip, lr
    2b04:	944c0a00 	strbls	r0, [ip], #-2560	; 0xfffff600
    2b08:	00e80000 	rsceq	r0, r8, r0
    2b0c:	010b0000 	mrseq	r0, (UNDEF: 11)
    2b10:	88030550 	stmdahi	r3, {r4, r6, r8, sl}
    2b14:	000000a3 	andeq	r0, r0, r3, lsr #1
    2b18:	0094500c 	addseq	r5, r4, ip
    2b1c:	00010e00 	andeq	r0, r1, r0, lsl #28
    2b20:	94580d00 	ldrbls	r0, [r8], #-3328	; 0xfffff300
    2b24:	011a0000 	tsteq	sl, r0
    2b28:	01040000 	mrseq	r0, (UNDEF: 4)
    2b2c:	010b0000 	mrseq	r0, (UNDEF: 11)
    2b30:	003a0150 	eorseq	r0, sl, r0, asr r1
    2b34:	00945c0c 	addseq	r5, r4, ip, lsl #24
    2b38:	00012600 	andeq	r2, r1, r0, lsl #12
    2b3c:	5b0e0000 	blpl	382b44 <__bss_end__+0x37816c>
    2b40:	5b000007 	blpl	2b64 <__code_start__-0x549c>
    2b44:	02000007 	andeq	r0, r0, #7, 0
    2b48:	370e064d 	strcc	r0, [lr, -sp, asr #12]
    2b4c:	37000007 	strcc	r0, [r0, -r7]
    2b50:	02000007 	andeq	r0, r0, #7, 0
    2b54:	2c0e0658 	stccs	6, cr0, [lr], {88}	; 0x58
    2b58:	2c000007 	stccs	0, cr0, [r0], {7}
    2b5c:	02000007 	andeq	r0, r0, #7, 0
    2b60:	8900066b 	stmdbhi	r0, {r0, r1, r3, r5, r6, r9, sl}
    2b64:	04000001 	streq	r0, [r0], #-1
    2b68:	000df100 	andeq	pc, sp, r0, lsl #2
    2b6c:	e1010400 	tst	r1, r0, lsl #8
    2b70:	0c000004 	stceq	0, cr0, [r0], {4}
    2b74:	00000791 	muleq	r0, r1, r7
    2b78:	000005c2 	andeq	r0, r0, r2, asr #11
    2b7c:	00009464 	andeq	r9, r0, r4, ror #8
    2b80:	0000003c 	andeq	r0, r0, ip, lsr r0
    2b84:	00001811 	andeq	r1, r0, r1, lsl r8
    2b88:	69050402 	stmdbvs	r5, {r1, sl}
    2b8c:	0300746e 	movweq	r7, #1134	; 0x46e
    2b90:	00ca0704 	sbceq	r0, sl, r4, lsl #14
    2b94:	01030000 	mrseq	r0, (UNDEF: 3)
    2b98:	00005a06 	andeq	r5, r0, r6, lsl #20
    2b9c:	05020300 	streq	r0, [r2, #-768]	; 0xfffffd00
    2ba0:	0000016e 	andeq	r0, r0, lr, ror #2
    2ba4:	59050403 	stmdbpl	r5, {r0, r1, sl}
    2ba8:	03000001 	movweq	r0, #1
    2bac:	01540508 	cmpeq	r4, r8, lsl #10
    2bb0:	01030000 	mrseq	r0, (UNDEF: 3)
    2bb4:	00005808 	andeq	r5, r0, r8, lsl #16
    2bb8:	07020300 	streq	r0, [r2, -r0, lsl #6]
    2bbc:	00000073 	andeq	r0, r0, r3, ror r0
    2bc0:	c5070403 	strgt	r0, [r7, #-1027]	; 0xfffffbfd
    2bc4:	03000000 	movweq	r0, #0
    2bc8:	00c00708 	sbceq	r0, r0, r8, lsl #14
    2bcc:	25040000 	strcs	r0, [r4, #-0]
    2bd0:	7a000000 	bvc	2bd8 <__code_start__-0x5428>
    2bd4:	05000000 	streq	r0, [r0, #-0]
    2bd8:	00000025 	andeq	r0, r0, r5, lsr #32
    2bdc:	01620600 	cmneq	r2, r0, lsl #12
    2be0:	1c020000 	stcne	0, cr0, [r2], {-0}
    2be4:	0000860e 	andeq	r8, r0, lr, lsl #12
    2be8:	6b040700 	blvs	1047f0 <__bss_end__+0xf9e18>
    2bec:	04000000 	streq	r0, [r0], #-0
    2bf0:	00000025 	andeq	r0, r0, r5, lsr #32
    2bf4:	0000009b 	muleq	r0, fp, r0
    2bf8:	00009b05 	andeq	r9, r0, r5, lsl #22
    2bfc:	04070000 	streq	r0, [r7], #-0
    2c00:	000000a8 	andeq	r0, r0, r8, lsr #1
    2c04:	61080103 	tstvs	r8, r3, lsl #2
    2c08:	08000000 	stmdaeq	r0, {}	; <UNPREDICTABLE>
    2c0c:	000000a1 	andeq	r0, r0, r1, lsr #1
    2c10:	00065006 	andeq	r5, r6, r6
    2c14:	0e210200 	cdpeq	2, 2, cr0, cr1, cr0, {0}
    2c18:	000000b9 	strheq	r0, [r0], -r9
    2c1c:	008c0407 	addeq	r0, ip, r7, lsl #8
    2c20:	69090000 	stmdbvs	r9, {}	; <UNPREDICTABLE>
    2c24:	01000007 	tsteq	r0, r7
    2c28:	94640604 	strbtls	r0, [r4], #-1540	; 0xfffff9fc
    2c2c:	003c0000 	eorseq	r0, ip, r0
    2c30:	9c010000 	stcls	0, cr0, [r1], {-0}
    2c34:	00000154 	andeq	r0, r0, r4, asr r1
    2c38:	00035c06 	andeq	r5, r3, r6, lsl #24
    2c3c:	10050100 	andne	r0, r5, r0, lsl #2
    2c40:	00000025 	andeq	r0, r0, r5, lsr #32
    2c44:	00042d06 	andeq	r2, r4, r6, lsl #26
    2c48:	1f050100 	svcne	0x00050100
    2c4c:	00000025 	andeq	r0, r0, r5, lsr #32
    2c50:	0000300a 	andeq	r3, r0, sl
    2c54:	07060100 	streq	r0, [r6, -r0, lsl #2]
    2c58:	7373620b 	cmnvc	r3, #-1342177280	; 0xb0000000
    2c5c:	0a0a0100 	beq	283064 <__bss_end__+0x27868c>
    2c60:	00000154 	andeq	r0, r0, r4, asr r1
    2c64:	00001414 	andeq	r1, r0, r4, lsl r4
    2c68:	0000140e 	andeq	r1, r0, lr, lsl #8
    2c6c:	0007710c 	andeq	r7, r7, ip, lsl #2
    2c70:	0a0b0100 	beq	2c3078 <__bss_end__+0x2b86a0>
    2c74:	00000154 	andeq	r0, r0, r4, asr r1
    2c78:	0094880d 	addseq	r8, r4, sp, lsl #16
    2c7c:	00000800 	andeq	r0, r0, r0, lsl #16
    2c80:	00012f00 	andeq	r2, r1, r0, lsl #30
    2c84:	6e690e00 	cdpvs	14, 6, cr0, cr9, cr0, {0}
    2c88:	05140100 	ldreq	r0, [r4, #-256]	; 0xffffff00
    2c8c:	0000002c 	andeq	r0, r0, ip, lsr #32
    2c90:	6c0f0001 	stcvs	0, cr0, [pc], {1}
    2c94:	5a000094 	bpl	2eec <__code_start__-0x5114>
    2c98:	0f000001 	svceq	0x00000001
    2c9c:	00009488 	andeq	r9, r0, r8, lsl #9
    2ca0:	00000167 	andeq	r0, r0, r7, ror #2
    2ca4:	0094940f 	addseq	r9, r4, pc, lsl #8
    2ca8:	00017300 	andeq	r7, r1, r0, lsl #6
    2cac:	94980f00 	ldrls	r0, [r8], #3840	; 0xf00
    2cb0:	01800000 	orreq	r0, r0, r0
    2cb4:	07000000 	streq	r0, [r0, -r0]
    2cb8:	00002504 	andeq	r2, r0, r4, lsl #10
    2cbc:	07831000 	streq	r1, [r3, r0]
    2cc0:	07830000 	streq	r0, [r3, r0]
    2cc4:	36020000 	strcc	r0, [r2], -r0
    2cc8:	79110601 	ldmdbvc	r1, {r0, r9, sl}
    2ccc:	79000007 	stmdbvc	r0, {r0, r1, r2}
    2cd0:	02000007 	andeq	r0, r0, #7, 0
    2cd4:	3010063b 	andscc	r0, r0, fp, lsr r6
    2cd8:	30000000 	andcc	r0, r0, r0
    2cdc:	02000000 	andeq	r0, r0, #0, 0
    2ce0:	1106010a 	tstne	r6, sl, lsl #2
    2ce4:	00000066 	andeq	r0, r0, r6, rrx
    2ce8:	00000066 	andeq	r0, r0, r6, rrx
    2cec:	00066e02 	andeq	r6, r6, r2, lsl #28
    2cf0:	000000ce 	andeq	r0, r0, lr, asr #1
    2cf4:	0eed0004 	cdpeq	0, 14, cr0, cr13, cr4, {0}
    2cf8:	01040000 	mrseq	r0, (UNDEF: 4)
    2cfc:	000004e1 	andeq	r0, r0, r1, ror #9
    2d00:	0007a60c 	andeq	sl, r7, ip, lsl #12
    2d04:	0005c200 	andeq	ip, r5, r0, lsl #4
    2d08:	0094a000 	addseq	sl, r4, r0
    2d0c:	00000400 	andeq	r0, r0, r0, lsl #8
    2d10:	0018d400 	andseq	sp, r8, r0, lsl #8
    2d14:	05040200 	streq	r0, [r4, #-512]	; 0xfffffe00
    2d18:	00746e69 	rsbseq	r6, r4, r9, ror #28
    2d1c:	ca070403 	bgt	1c3d30 <__bss_end__+0x1b9358>
    2d20:	03000000 	movweq	r0, #0
    2d24:	005a0601 	subseq	r0, sl, r1, lsl #12
    2d28:	02030000 	andeq	r0, r3, #0, 0
    2d2c:	00016e05 	andeq	r6, r1, r5, lsl #28
    2d30:	05040300 	streq	r0, [r4, #-768]	; 0xfffffd00
    2d34:	00000159 	andeq	r0, r0, r9, asr r1
    2d38:	54050803 	strpl	r0, [r5], #-2051	; 0xfffff7fd
    2d3c:	03000001 	movweq	r0, #1
    2d40:	00580801 	subseq	r0, r8, r1, lsl #16
    2d44:	02030000 	andeq	r0, r3, #0, 0
    2d48:	00007307 	andeq	r7, r0, r7, lsl #6
    2d4c:	07040300 	streq	r0, [r4, -r0, lsl #6]
    2d50:	000000c5 	andeq	r0, r0, r5, asr #1
    2d54:	c0070803 	andgt	r0, r7, r3, lsl #16
    2d58:	04000000 	streq	r0, [r0], #-0
    2d5c:	00000025 	andeq	r0, r0, r5, lsr #32
    2d60:	0000007a 	andeq	r0, r0, sl, ror r0
    2d64:	00002505 	andeq	r2, r0, r5, lsl #10
    2d68:	62060000 	andvs	r0, r6, #0, 0
    2d6c:	02000001 	andeq	r0, r0, #1, 0
    2d70:	00860e1c 	addeq	r0, r6, ip, lsl lr
    2d74:	04070000 	streq	r0, [r7], #-0
    2d78:	0000006b 	andeq	r0, r0, fp, rrx
    2d7c:	00002504 	andeq	r2, r0, r4, lsl #10
    2d80:	00009b00 	andeq	r9, r0, r0, lsl #22
    2d84:	009b0500 	addseq	r0, fp, r0, lsl #10
    2d88:	07000000 	streq	r0, [r0, -r0]
    2d8c:	0000a804 	andeq	sl, r0, r4, lsl #16
    2d90:	08010300 	stmdaeq	r1, {r8, r9}
    2d94:	00000061 	andeq	r0, r0, r1, rrx
    2d98:	0000a108 	andeq	sl, r0, r8, lsl #2
    2d9c:	06500600 	ldrbeq	r0, [r0], -r0, lsl #12
    2da0:	21020000 	mrscs	r0, (UNDEF: 2)
    2da4:	0000b90e 	andeq	fp, r0, lr, lsl #18
    2da8:	8c040700 	stchi	7, cr0, [r4], {-0}
    2dac:	09000000 	stmdbeq	r0, {}	; <UNPREDICTABLE>
    2db0:	00000783 	andeq	r0, r0, r3, lsl #15
    2db4:	a0060401 	andge	r0, r6, r1, lsl #8
    2db8:	04000094 	streq	r0, [r0], #-148	; 0xffffff6c
    2dbc:	01000000 	mrseq	r0, (UNDEF: 0)
    2dc0:	0236009c 	eorseq	r0, r6, #156, 0	; 0x9c
    2dc4:	00040000 	andeq	r0, r4, r0
    2dc8:	00000f66 	andeq	r0, r0, r6, ror #30
    2dcc:	04e10104 	strbteq	r0, [r1], #260	; 0x104
    2dd0:	ee0c0000 	cdp	0, 0, cr0, cr12, cr0, {0}
    2dd4:	c2000007 	andgt	r0, r0, #7, 0
    2dd8:	98000005 	stmdals	r0, {r0, r2}
    2ddc:	00000000 	andeq	r0, r0, r0
    2de0:	7b000000 	blvc	2de8 <__code_start__-0x5218>
    2de4:	02000019 	andeq	r0, r0, #25, 0
    2de8:	6e690504 	cdpvs	5, 6, cr0, cr9, cr4, {0}
    2dec:	25030074 	strcs	r0, [r3, #-116]	; 0xffffff8c
    2df0:	04000000 	streq	r0, [r0], #-0
    2df4:	00ca0704 	sbceq	r0, sl, r4, lsl #14
    2df8:	01040000 	mrseq	r0, (UNDEF: 4)
    2dfc:	00005a06 	andeq	r5, r0, r6, lsl #20
    2e00:	05020400 	streq	r0, [r2, #-1024]	; 0xfffffc00
    2e04:	0000016e 	andeq	r0, r0, lr, ror #2
    2e08:	59050404 	stmdbpl	r5, {r2, sl}
    2e0c:	04000001 	streq	r0, [r0], #-1
    2e10:	01540508 	cmpeq	r4, r8, lsl #10
    2e14:	01040000 	mrseq	r0, (UNDEF: 4)
    2e18:	00005808 	andeq	r5, r0, r8, lsl #16
    2e1c:	07020400 	streq	r0, [r2, -r0, lsl #8]
    2e20:	00000073 	andeq	r0, r0, r3, ror r0
    2e24:	c5070404 	strgt	r0, [r7, #-1028]	; 0xfffffbfc
    2e28:	04000000 	streq	r0, [r0], #-0
    2e2c:	00c00708 	sbceq	r0, r0, r8, lsl #14
    2e30:	25050000 	strcs	r0, [r5, #-0]
    2e34:	7f000000 	svcvc	0x00000000
    2e38:	06000000 	streq	r0, [r0], -r0
    2e3c:	00000025 	andeq	r0, r0, r5, lsr #32
    2e40:	01620700 	cmneq	r2, r0, lsl #14
    2e44:	1c020000 	stcne	0, cr0, [r2], {-0}
    2e48:	00008b0e 	andeq	r8, r0, lr, lsl #22
    2e4c:	70040800 	andvc	r0, r4, r0, lsl #16
    2e50:	05000000 	streq	r0, [r0, #-0]
    2e54:	00000025 	andeq	r0, r0, r5, lsr #32
    2e58:	000000a0 	andeq	r0, r0, r0, lsr #1
    2e5c:	0000a006 	andeq	sl, r0, r6
    2e60:	04080000 	streq	r0, [r8], #-0
    2e64:	000000ad 	andeq	r0, r0, sp, lsr #1
    2e68:	61080104 	tstvs	r8, r4, lsl #2
    2e6c:	03000000 	movweq	r0, #0
    2e70:	000000a6 	andeq	r0, r0, r6, lsr #1
    2e74:	00065007 	andeq	r5, r6, r7
    2e78:	0e210200 	cdpeq	2, 2, cr0, cr1, cr0, {0}
    2e7c:	000000be 	strheq	r0, [r0], -lr
    2e80:	00910408 	addseq	r0, r1, r8, lsl #8
    2e84:	12090000 	andne	r0, r9, #0, 0
    2e88:	01000008 	tsteq	r0, r8
    2e8c:	0031110d 	eorseq	r1, r1, sp, lsl #2
    2e90:	2c0a0000 	stccs	0, cr0, [sl], {-0}
    2e94:	01000007 	tsteq	r0, r7
    2e98:	94d0061f 	ldrbls	r0, [r0], #1567	; 0x61f
    2e9c:	00540000 	subseq	r0, r4, r0
    2ea0:	9c010000 	stcls	0, cr0, [r1], {-0}
    2ea4:	000001ae 	andeq	r0, r0, lr, lsr #3
    2ea8:	0008360b 	andeq	r3, r8, fp, lsl #12
    2eac:	0f2c0100 	svceq	0x002c0100
    2eb0:	0000002c 	andeq	r0, r0, ip, lsr #32
    2eb4:	00001441 	andeq	r1, r0, r1, asr #8
    2eb8:	0000143f 	andeq	r1, r0, pc, lsr r4
    2ebc:	0007d10b 	andeq	sp, r7, fp, lsl #2
    2ec0:	0f2d0100 	svceq	0x002d0100
    2ec4:	0000002c 	andeq	r0, r0, ip, lsr #32
    2ec8:	0000145b 	andeq	r1, r0, fp, asr r4
    2ecc:	00001459 	andeq	r1, r0, r9, asr r4
    2ed0:	0008030b 	andeq	r0, r8, fp, lsl #6
    2ed4:	0f2e0100 	svceq	0x002e0100
    2ed8:	0000002c 	andeq	r0, r0, ip, lsr #32
    2edc:	00001475 	andeq	r1, r0, r5, ror r4
    2ee0:	00001473 	andeq	r1, r0, r3, ror r4
    2ee4:	00081d0b 	andeq	r1, r8, fp, lsl #26
    2ee8:	0f2f0100 	svceq	0x002f0100
    2eec:	0000002c 	andeq	r0, r0, ip, lsr #32
    2ef0:	0000148e 	andeq	r1, r0, lr, lsl #9
    2ef4:	0000148c 	andeq	r1, r0, ip, lsl #9
    2ef8:	0094d80c 	addseq	sp, r4, ip, lsl #16
    2efc:	0001d900 	andeq	sp, r1, r0, lsl #18
    2f00:	94e40c00 	strbtls	r0, [r4], #3072	; 0xc00
    2f04:	02080000 	andeq	r0, r8, #0, 0
    2f08:	e80c0000 	stmda	ip, {}	; <UNPREDICTABLE>
    2f0c:	15000094 	strne	r0, [r0, #-148]	; 0xffffff6c
    2f10:	0d000002 	stceq	0, cr0, [r0, #-8]
    2f14:	000094f0 	strdeq	r9, [r0], -r0
    2f18:	00000221 	andeq	r0, r0, r1, lsr #4
    2f1c:	00000164 	andeq	r0, r0, r4, ror #2
    2f20:	0150010e 	cmpeq	r0, lr, lsl #2
    2f24:	fc0d003a 	stc2	0, cr0, [sp], {58}	; 0x3a
    2f28:	2d000094 	stccs	0, cr0, [r0, #-592]	; 0xfffffdb0
    2f2c:	84000002 	strhi	r0, [r0], #-2
    2f30:	0e000001 	cdpeq	0, 0, cr0, cr0, cr1, {0}
    2f34:	0c055001 	stceq	0, cr5, [r5], {1}
    2f38:	20100024 	andscs	r0, r0, r4, lsr #32
    2f3c:	0551010e 	ldrbeq	r0, [r1, #-270]	; 0xfffffef2
    2f40:	0000010c 	andeq	r0, r0, ip, lsl #2
    2f44:	080d005a 	stmdaeq	sp, {r1, r3, r4, r6}
    2f48:	2d000095 	stccs	0, cr0, [r0, #-596]	; 0xfffffdac
    2f4c:	a4000002 	strge	r0, [r0], #-2
    2f50:	0e000001 	cdpeq	0, 0, cr0, cr0, cr1, {0}
    2f54:	0c055001 	stceq	0, cr5, [r5], {1}
    2f58:	2010001c 	andscs	r0, r0, ip, lsl r0
    2f5c:	0551010e 	ldrbeq	r0, [r1, #-270]	; 0xfffffef2
    2f60:	0000200c 	andeq	r2, r0, ip
    2f64:	100c005a 	andne	r0, ip, sl, asr r0
    2f68:	ae000095 	mcrge	0, 0, r0, cr0, cr5, {4}
    2f6c:	00000001 	andeq	r0, r0, r1
    2f70:	0007df0f 	andeq	sp, r7, pc, lsl #30
    2f74:	06170100 	ldreq	r0, [r7], -r0, lsl #2
    2f78:	000094bc 			; <UNDEFINED> instruction: 0x000094bc
    2f7c:	00000014 	andeq	r0, r0, r4, lsl r0
    2f80:	01d99c01 	bicseq	r9, r9, r1, lsl #24
    2f84:	3e0b0000 	cdpcc	0, 0, cr0, cr11, cr0, {0}
    2f88:	01000008 	tsteq	r0, r8
    2f8c:	00310e18 	eorseq	r0, r1, r8, lsl lr
    2f90:	14a90000 	strtne	r0, [r9], #0
    2f94:	14a30000 	strtne	r0, [r3], #0
    2f98:	10000000 	andne	r0, r0, r0
    2f9c:	0000080f 	andeq	r0, r0, pc, lsl #16
    2fa0:	25050e01 	strcs	r0, [r5, #-3585]	; 0xfffff1ff
    2fa4:	a4000000 	strge	r0, [r0], #-0
    2fa8:	18000094 	stmdane	r0, {r2, r4, r7}
    2fac:	01000000 	mrseq	r0, (UNDEF: 0)
    2fb0:	0002089c 	muleq	r2, ip, r8
    2fb4:	083e0b00 	ldmdaeq	lr!, {r8, r9, fp}
    2fb8:	0f010000 	svceq	0x00010000
    2fbc:	0000310e 	andeq	r3, r0, lr, lsl #2
    2fc0:	0014d700 	andseq	sp, r4, r0, lsl #14
    2fc4:	0014d300 	andseq	sp, r4, r0, lsl #6
    2fc8:	c2110000 	andsgt	r0, r1, #0, 0
    2fcc:	c2000007 	andgt	r0, r0, #7, 0
    2fd0:	02000007 	andeq	r0, r0, #7, 0
    2fd4:	1206013b 	andne	r0, r6, #-1073741810	; 0xc000000e
    2fd8:	0000075b 	andeq	r0, r0, fp, asr r7
    2fdc:	0000075b 	andeq	r0, r0, fp, asr r7
    2fe0:	12064d02 	andne	r4, r6, #128	; 0x80
    2fe4:	00000737 	andeq	r0, r0, r7, lsr r7
    2fe8:	00000737 	andeq	r0, r0, r7, lsr r7
    2fec:	12065802 	andne	r5, r6, #131072	; 0x20000
    2ff0:	000007d9 	ldrdeq	r0, [r0], -r9
    2ff4:	000007d9 	ldrdeq	r0, [r0], -r9
    2ff8:	0006b202 	andeq	fp, r6, r2, lsl #4
    2ffc:	0000024d 	andeq	r0, r0, sp, asr #4
    3000:	108b0004 	addne	r0, fp, r4
    3004:	01040000 	mrseq	r0, (UNDEF: 4)
    3008:	000004e1 	andeq	r0, r0, r1, ror #9
    300c:	0008590c 	andeq	r5, r8, ip, lsl #18
    3010:	0005c200 	andeq	ip, r5, r0, lsl #4
    3014:	00952400 	addseq	r2, r5, r0, lsl #8
    3018:	00008400 	andeq	r8, r0, r0, lsl #8
    301c:	001a7200 	andseq	r7, sl, r0, lsl #4
    3020:	05040200 	streq	r0, [r4, #-512]	; 0xfffffe00
    3024:	00746e69 	rsbseq	r6, r4, r9, ror #28
    3028:	ca070403 	bgt	1c403c <__bss_end__+0x1b9664>
    302c:	03000000 	movweq	r0, #0
    3030:	005a0601 	subseq	r0, sl, r1, lsl #12
    3034:	02030000 	andeq	r0, r3, #0, 0
    3038:	00016e05 	andeq	r6, r1, r5, lsl #28
    303c:	05040300 	streq	r0, [r4, #-768]	; 0xfffffd00
    3040:	00000159 	andeq	r0, r0, r9, asr r1
    3044:	54050803 	strpl	r0, [r5], #-2051	; 0xfffff7fd
    3048:	03000001 	movweq	r0, #1
    304c:	00580801 	subseq	r0, r8, r1, lsl #16
    3050:	02030000 	andeq	r0, r3, #0, 0
    3054:	00007307 	andeq	r7, r0, r7, lsl #6
    3058:	07040300 	streq	r0, [r4, -r0, lsl #6]
    305c:	000000c5 	andeq	r0, r0, r5, asr #1
    3060:	c0070803 	andgt	r0, r7, r3, lsl #16
    3064:	04000000 	streq	r0, [r0], #-0
    3068:	00000025 	andeq	r0, r0, r5, lsr #32
    306c:	0000007a 	andeq	r0, r0, sl, ror r0
    3070:	00002505 	andeq	r2, r0, r5, lsl #10
    3074:	62060000 	andvs	r0, r6, #0, 0
    3078:	02000001 	andeq	r0, r0, #1, 0
    307c:	00860e1c 	addeq	r0, r6, ip, lsl lr
    3080:	04070000 	streq	r0, [r7], #-0
    3084:	0000006b 	andeq	r0, r0, fp, rrx
    3088:	00002504 	andeq	r2, r0, r4, lsl #10
    308c:	00009b00 	andeq	r9, r0, r0, lsl #22
    3090:	009b0500 	addseq	r0, fp, r0, lsl #10
    3094:	07000000 	streq	r0, [r0, -r0]
    3098:	0000a804 	andeq	sl, r0, r4, lsl #16
    309c:	08010300 	stmdaeq	r1, {r8, r9}
    30a0:	00000061 	andeq	r0, r0, r1, rrx
    30a4:	0000a108 	andeq	sl, r0, r8, lsl #2
    30a8:	06500600 	ldrbeq	r0, [r0], -r0, lsl #12
    30ac:	21020000 	mrscs	r0, (UNDEF: 2)
    30b0:	0000b90e 	andeq	fp, r0, lr, lsl #18
    30b4:	8c040700 	stchi	7, cr0, [r4], {-0}
    30b8:	09000000 	stmdbeq	r0, {}	; <UNPREDICTABLE>
    30bc:	0000084f 	andeq	r0, r0, pc, asr #16
    30c0:	90061e01 	andls	r1, r6, r1, lsl #28
    30c4:	18000095 	stmdane	r0, {r0, r2, r4, r7}
    30c8:	01000000 	mrseq	r0, (UNDEF: 0)
    30cc:	0001099c 	muleq	r1, ip, r9
    30d0:	65730a00 	ldrbvs	r0, [r3, #-2560]!	; 0xfffff600
    30d4:	1e010063 	cdpne	0, 0, cr0, cr1, cr3, {3}
    30d8:	00002c19 	andeq	r2, r0, r9, lsl ip
    30dc:	0014fa00 	andseq	pc, r4, r0, lsl #20
    30e0:	0014f600 	andseq	pc, r4, r0, lsl #12
    30e4:	95a40b00 	strls	r0, [r4, #2816]!	; 0xb00
    30e8:	01090000 	mrseq	r0, (UNDEF: 9)
    30ec:	010c0000 	mrseq	r0, (UNDEF: 12)
    30f0:	01f31150 	mvnseq	r1, r0, asr r1
    30f4:	f3243550 	vqrshl.u32	<illegal reg q1.5>, q0, q2
    30f8:	321c5001 	andscc	r5, ip, #1, 0
    30fc:	5001f324 	andpl	pc, r1, r4, lsr #6
    3100:	00243322 	eoreq	r3, r4, r2, lsr #6
    3104:	07370900 	ldreq	r0, [r7, -r0, lsl #18]!
    3108:	1b010000 	blne	43110 <__bss_end__+0x38738>
    310c:	00957806 	addseq	r7, r5, r6, lsl #16
    3110:	00001800 	andeq	r1, r0, r0, lsl #16
    3114:	529c0100 	addspl	r0, ip, #0
    3118:	0a000001 	beq	3124 <__code_start__-0x4edc>
    311c:	0100736d 	tsteq	r0, sp, ror #6
    3120:	002c181b 	eoreq	r1, ip, fp, lsl r8
    3124:	151f0000 	ldrne	r0, [pc, #-0]	; 312c <__code_start__-0x4ed4>
    3128:	151b0000 	ldrne	r0, [fp, #-0]
    312c:	8c0b0000 	stchi	0, cr0, [fp], {-0}
    3130:	52000095 	andpl	r0, r0, #149, 0	; 0x95
    3134:	0c000001 	stceq	0, cr0, [r0], {1}
    3138:	f3115001 	vhadd.u16	d5, d1, d1
    313c:	24355001 	ldrtcs	r5, [r5], #-1
    3140:	1c5001f3 	ldfnee	f0, [r0], {243}	; 0xf3
    3144:	01f32432 	mvnseq	r2, r2, lsr r4
    3148:	24332250 	ldrtcs	r2, [r3], #-592	; 0xfffffdb0
    314c:	82090000 	andhi	r0, r9, #0, 0
    3150:	01000008 	tsteq	r0, r8
    3154:	95540612 	ldrbls	r0, [r4, #-1554]	; 0xfffff9ee
    3158:	00240000 	eoreq	r0, r4, r0
    315c:	9c010000 	stcls	0, cr0, [r1], {-0}
    3160:	000001c2 	andeq	r0, r0, r2, asr #3
    3164:	0073750a 	rsbseq	r7, r3, sl, lsl #10
    3168:	2c181201 	lfmcs	f1, 4, [r8], {1}
    316c:	44000000 	strmi	r0, [r0], #-0
    3170:	40000015 	andmi	r0, r0, r5, lsl r0
    3174:	0d000015 	stceq	0, cr0, [r0, #-84]	; 0xffffffac
    3178:	01006272 	tsteq	r0, r2, ror r2
    317c:	002c0e13 	eoreq	r0, ip, r3, lsl lr
    3180:	15640000 	strbne	r0, [r4, #-0]!
    3184:	15620000 	strbne	r0, [r2, #-0]!
    3188:	640e0000 	strvs	r0, [lr], #-0
    318c:	14000095 	strne	r0, [r0], #-149	; 0xffffff6b
    3190:	b8000000 	stmdalt	r0, {}	; <UNPREDICTABLE>
    3194:	0d000001 	stceq	0, cr0, [r0, #-4]
    3198:	01006172 	tsteq	r0, r2, ror r1
    319c:	002c1215 	eoreq	r1, ip, r5, lsl r2
    31a0:	15790000 	ldrbne	r0, [r9, #-0]!
    31a4:	15770000 	ldrbne	r0, [r7, #-0]!
    31a8:	680f0000 	stmdavs	pc, {}	; <UNPREDICTABLE>
    31ac:	c2000095 	andgt	r0, r0, #149, 0	; 0x95
    31b0:	00000001 	andeq	r0, r0, r1
    31b4:	0095600f 	addseq	r6, r5, pc
    31b8:	0001c200 	andeq	ip, r1, r0, lsl #4
    31bc:	73100000 	tstvc	r0, #0, 0
    31c0:	01000008 	tsteq	r0, r8
    31c4:	002c0a09 	eoreq	r0, ip, r9, lsl #20
    31c8:	95380000 	ldrls	r0, [r8, #-0]!
    31cc:	001c0000 	andseq	r0, ip, r0
    31d0:	9c010000 	stcls	0, cr0, [r1], {-0}
    31d4:	0000020a 	andeq	r0, r0, sl, lsl #4
    31d8:	0100750d 	tsteq	r0, sp, lsl #10
    31dc:	002c0e0d 	eoreq	r0, ip, sp, lsl #28
    31e0:	15900000 	ldrne	r0, [r0]
    31e4:	158c0000 	strne	r0, [ip]
    31e8:	400f0000 	andmi	r0, pc, r0
    31ec:	38000095 	stmdacc	r0, {r0, r2, r4, r7}
    31f0:	0f000002 	svceq	0x00000002
    31f4:	00009544 	andeq	r9, r0, r4, asr #10
    31f8:	0000020a 	andeq	r0, r0, sl, lsl #4
    31fc:	00954c0f 	addseq	r4, r5, pc, lsl #24
    3200:	00023800 	andeq	r3, r2, r0, lsl #16
    3204:	8b100000 	blhi	40320c <__bss_end__+0x3f8834>
    3208:	01000008 	tsteq	r0, r8
    320c:	002c0a04 	eoreq	r0, ip, r4, lsl #20
    3210:	95240000 	strls	r0, [r4, #-0]!
    3214:	00140000 	andseq	r0, r4, r0
    3218:	9c010000 	stcls	0, cr0, [r1], {-0}
    321c:	00000238 	andeq	r0, r0, r8, lsr r2
    3220:	0095300b 	addseq	r3, r5, fp
    3224:	00024400 	andeq	r4, r2, r0, lsl #8
    3228:	50010c00 	andpl	r0, r1, r0, lsl #24
    322c:	30040c05 	andcc	r0, r4, r5, lsl #24
    3230:	00002000 	andeq	r2, r0, r0
    3234:	00084311 	andeq	r4, r8, r1, lsl r3
    3238:	00084300 	andeq	r4, r8, r0, lsl #6
    323c:	06a10200 	strteq	r0, [r1], r0, lsl #4
    3240:	00086d11 	andeq	r6, r8, r1, lsl sp
    3244:	00086d00 	andeq	r6, r8, r0, lsl #26
    3248:	0ac70200 	beq	ff1c3a50 <__bss_end__+0xff1b9078>
    324c:	0005cd00 	andeq	ip, r5, r0, lsl #26
    3250:	8c000400 	cfstrshi	mvf0, [r0], {-0}
    3254:	04000011 	streq	r0, [r0], #-17	; 0xffffffef
    3258:	00099e01 	andeq	r9, r9, r1, lsl #28
    325c:	08dd0c00 	ldmeq	sp, {sl, fp}^
    3260:	094e0000 	stmdbeq	lr, {}^	; <UNPREDICTABLE>
    3264:	95a80000 	strls	r0, [r8, #0]!
    3268:	01f00000 	mvnseq	r0, r0
    326c:	1b700000 	blne	1c03274 <__bss_end__+0x1bf889c>
    3270:	04020000 	streq	r0, [r2], #-0
    3274:	746e6905 	strbtvc	r6, [lr], #-2309	; 0xfffff6fb
    3278:	07040300 	streq	r0, [r4, -r0, lsl #6]
    327c:	000000ca 	andeq	r0, r0, sl, asr #1
    3280:	00002c04 	andeq	r2, r0, r4, lsl #24
    3284:	06010300 	streq	r0, [r1], -r0, lsl #6
    3288:	0000005a 	andeq	r0, r0, sl, asr r0
    328c:	6e050203 	cdpvs	2, 0, cr0, cr5, cr3, {0}
    3290:	03000001 	movweq	r0, #1
    3294:	01590504 	cmpeq	r9, r4, lsl #10
    3298:	08030000 	stmdaeq	r3, {}	; <UNPREDICTABLE>
    329c:	00015405 	andeq	r5, r1, r5, lsl #8
    32a0:	08010300 	stmdaeq	r1, {r8, r9}
    32a4:	00000058 	andeq	r0, r0, r8, asr r0
    32a8:	73070203 	movwvc	r0, #29187	; 0x7203
    32ac:	05000000 	streq	r0, [r0, #-0]
    32b0:	0000018b 	andeq	r0, r0, fp, lsl #3
    32b4:	6e193405 	cfmulsvs	mvf3, mvf9, mvf5
    32b8:	03000000 	movweq	r0, #0
    32bc:	00c50704 	sbceq	r0, r5, r4, lsl #14
    32c0:	08030000 	stmdaeq	r3, {}	; <UNPREDICTABLE>
    32c4:	0000c007 	andeq	ip, r0, r7
    32c8:	08010300 	stmdaeq	r1, {r8, r9}
    32cc:	00000061 	andeq	r0, r0, r1, rrx
    32d0:	54010706 	strpl	r0, [r1], #-1798	; 0xfffff8fa
    32d4:	04000000 	streq	r0, [r0], #-0
    32d8:	00c20e0c 	sbceq	r0, r2, ip, lsl #28
    32dc:	88070000 	stmdahi	r7, {}	; <UNPREDICTABLE>
    32e0:	0000000a 	andeq	r0, r0, sl
    32e4:	0008c007 	andeq	ip, r8, r7
    32e8:	03070100 	movweq	r0, #28928	; 0x7100
    32ec:	04000009 	streq	r0, [r0], #-9
    32f0:	00091207 	andeq	r1, r9, r7, lsl #4
    32f4:	21070500 	tstcs	r7, r0, lsl #10
    32f8:	06000009 	streq	r0, [r0], -r9
    32fc:	00093007 	andeq	r3, r9, r7
    3300:	51070700 	tstpl	r7, r0, lsl #14
    3304:	0300000a 	movweq	r0, #10
    3308:	00093f07 	andeq	r3, r9, r7, lsl #30
    330c:	08000200 	stmdaeq	r0, {r9}
    3310:	000008d1 	ldrdeq	r0, [r0], -r1
    3314:	0806022c 	stmdaeq	r6, {r2, r3, r5, r9}
    3318:	0000015e 	andeq	r0, r0, lr, asr r1
    331c:	006f6909 	rsbeq	r6, pc, r9, lsl #18
    3320:	33090902 	movwcc	r0, #39170	; 0x9902
    3324:	00000000 	andeq	r0, r0, r0
    3328:	72656909 	rsbvc	r6, r5, #147456	; 0x24000
    332c:	090a0200 	stmdbeq	sl, {r9}
    3330:	00000033 	andeq	r0, r0, r3, lsr r0
    3334:	69690904 	stmdbvs	r9!, {r2, r8, fp}^
    3338:	11020072 	tstne	r2, r2, ror r0
    333c:	00003309 	andeq	r3, r0, r9, lsl #6
    3340:	6c090800 	stcvs	8, cr0, [r9], {-0}
    3344:	02007263 	andeq	r7, r0, #805306374	; 0x30000006
    3348:	00330913 	eorseq	r0, r3, r3, lsl r9
    334c:	090c0000 	stmdbeq	ip, {}	; <UNPREDICTABLE>
    3350:	0072636d 	rsbseq	r6, r2, sp, ror #6
    3354:	33091402 	movwcc	r1, #37890	; 0x9402
    3358:	10000000 	andne	r0, r0, r0
    335c:	72736c09 	rsbsvc	r6, r3, #2304	; 0x900
    3360:	09150200 	ldmdbeq	r5, {r9}
    3364:	00000033 	andeq	r0, r0, r3, lsr r0
    3368:	736d0914 	cmnvc	sp, #20, 18	; 0x50000
    336c:	16020072 			; <UNDEFINED> instruction: 0x16020072
    3370:	00003309 	andeq	r3, r0, r9, lsl #6
    3374:	680a1800 	stmdavs	sl, {fp, ip}
    3378:	0200000a 	andeq	r0, r0, #10, 0
    337c:	00330917 	eorseq	r0, r3, r7, lsl r9
    3380:	0a1c0000 	beq	703388 <__bss_end__+0x6f89b0>
    3384:	00000a31 	andeq	r0, r0, r1, lsr sl
    3388:	33091b02 	movwcc	r1, #39682	; 0x9b02
    338c:	20000000 	andcs	r0, r0, r0
    3390:	0008ad0a 	andeq	sl, r8, sl, lsl #26
    3394:	091d0200 	ldmdbeq	sp, {r9}
    3398:	00000033 	andeq	r0, r0, r3, lsr r0
    339c:	09830a24 	stmibeq	r3, {r2, r5, r9, fp}
    33a0:	1e020000 	cdpne	0, 0, cr0, cr2, cr0, {0}
    33a4:	00003309 	andeq	r3, r0, r9, lsl #6
    33a8:	0b002800 	bleq	d3b0 <__bss_end__+0x29d8>
    33ac:	00000988 	andeq	r0, r0, r8, lsl #19
    33b0:	74090801 	strvc	r0, [r9], #-2049	; 0xfffff7ff
    33b4:	04000001 	streq	r0, [r0], #-1
    33b8:	0c202150 	stfeqs	f2, [r0], #-320	; 0xfffffec0
    33bc:	00003304 	andeq	r3, r0, r4, lsl #6
    33c0:	016e0d00 	cmneq	lr, r0, lsl #26
    33c4:	700b0000 	andvc	r0, fp, r0
    33c8:	0100000a 	tsteq	r0, sl
    33cc:	018f2329 	orreq	r2, pc, r9, lsr #6
    33d0:	50400000 	subpl	r0, r0, r0
    33d4:	040c2021 	streq	r2, [ip], #-33	; 0xffffffdf
    33d8:	000000c2 	andeq	r0, r0, r2, asr #1
    33dc:	0001890d 	andeq	r8, r1, sp, lsl #18
    33e0:	075b0e00 	ldrbeq	r0, [fp, -r0, lsl #28]
    33e4:	cc010000 	stcgt	0, cr0, [r1], {-0}
    33e8:	00976006 	addseq	r6, r7, r6
    33ec:	00001400 	andeq	r1, r0, r0, lsl #8
    33f0:	b49c0100 	ldrlt	r0, [ip], #256	; 0x100
    33f4:	0f000001 	svceq	0x00000001
    33f8:	00009768 	andeq	r9, r0, r8, ror #14
    33fc:	000001b4 			; <UNDEFINED> instruction: 0x000001b4
    3400:	08f21000 	ldmeq	r2!, {ip}^
    3404:	b6010000 	strlt	r0, [r1], -r0
    3408:	00002505 	andeq	r2, r0, r5, lsl #10
    340c:	00974000 	addseq	r4, r7, r0
    3410:	00002000 	andeq	r2, r0, r0
    3414:	eb9c0100 	bl	fe70381c <__bss_end__+0xfe6f8e44>
    3418:	0f000001 	svceq	0x00000001
    341c:	00009748 	andeq	r9, r0, r8, asr #14
    3420:	000005a0 	andeq	r0, r0, r0, lsr #11
    3424:	00975011 	addseq	r5, r7, r1, lsl r0
    3428:	0005ac00 	andeq	sl, r5, r0, lsl #24
    342c:	50011200 	andpl	r1, r1, r0, lsl #4
    3430:	50640c05 	rsbpl	r0, r4, r5, lsl #24
    3434:	00002021 	andeq	r2, r0, r1, lsr #32
    3438:	000a4310 	andeq	r4, sl, r0, lsl r3
    343c:	05b30100 	ldreq	r0, [r3, #256]!	; 0x100
    3440:	00000025 	andeq	r0, r0, r5, lsr #32
    3444:	00009730 	andeq	r9, r0, r0, lsr r7
    3448:	00000010 	andeq	r0, r0, r0, lsl r0
    344c:	02189c01 	andseq	r9, r8, #256	; 0x100
    3450:	380f0000 	stmdacc	pc, {}	; <UNPREDICTABLE>
    3454:	a0000097 	mulge	r0, r7, r0
    3458:	0f000005 	svceq	0x00000005
    345c:	0000973c 	andeq	r9, r0, ip, lsr r7
    3460:	00000309 	andeq	r0, r0, r9, lsl #6
    3464:	0a7e0e00 	beq	1f86c6c <__bss_end__+0x1f7c294>
    3468:	ab010000 	blge	43470 <__bss_end__+0x38a98>
    346c:	00970006 	addseq	r0, r7, r6
    3470:	00003000 	andeq	r3, r0, r0
    3474:	7c9c0100 	ldfvcs	f0, [ip], {0}
    3478:	13000002 	movwne	r0, #2
    347c:	ab010063 	blge	43610 <__bss_end__+0x38c38>
    3480:	00002c19 	andeq	r2, r0, r9, lsl ip
    3484:	0015b200 	andseq	fp, r5, r0, lsl #4
    3488:	0015ae00 	andseq	sl, r5, r0, lsl #28
    348c:	970c0f00 	strls	r0, [ip, -r0, lsl #30]
    3490:	05a00000 	streq	r0, [r0, #0]!
    3494:	100f0000 	andne	r0, pc, r0
    3498:	db000097 	blle	36fc <__code_start__-0x4904>
    349c:	14000002 	strne	r0, [r0], #-2
    34a0:	00009724 	andeq	r9, r0, r4, lsr #14
    34a4:	000005b8 			; <UNDEFINED> instruction: 0x000005b8
    34a8:	00000272 	andeq	r0, r0, r2, ror r2
    34ac:	05500112 	ldrbeq	r0, [r0, #-274]	; 0xfffffeee
    34b0:	2150400c 	cmpcs	r0, ip
    34b4:	51011220 	tstpl	r1, r0, lsr #4
    34b8:	08007405 	stmdaeq	r0, {r0, r2, sl, ip, sp, lr}
    34bc:	0f001aff 	svceq	0x00001aff
    34c0:	00009728 	andeq	r9, r0, r8, lsr #14
    34c4:	000005a0 	andeq	r0, r0, r0, lsr #11
    34c8:	09941000 	ldmibeq	r4, {ip}
    34cc:	a3010000 	movwge	r0, #4096	; 0x1000
    34d0:	00002505 	andeq	r2, r0, r5, lsl #10
    34d4:	0096d000 	addseq	sp, r6, r0
    34d8:	00003000 	andeq	r3, r0, r0
    34dc:	db9c0100 	blle	fe7038e4 <__bss_end__+0xfe6f8f0c>
    34e0:	15000002 	strne	r0, [r0, #-2]
    34e4:	a7010063 	strge	r0, [r1, -r3, rrx]
    34e8:	00002509 	andeq	r2, r0, r9, lsl #10
    34ec:	0015d200 	andseq	sp, r5, r0, lsl #4
    34f0:	0015d000 	andseq	sp, r5, r0
    34f4:	96d80f00 	ldrbls	r0, [r8], r0, lsl #30
    34f8:	05a00000 	streq	r0, [r0, #0]!
    34fc:	dc0f0000 	stcle	0, cr0, [pc], {-0}
    3500:	09000096 	stmdbeq	r0, {r1, r2, r4, r7}
    3504:	14000003 	strne	r0, [r0], #-3
    3508:	000096ec 	andeq	r9, r0, ip, ror #13
    350c:	000005ac 	andeq	r0, r0, ip, lsr #11
    3510:	000002d1 	ldrdeq	r0, [r0], -r1
    3514:	05500112 	ldrbeq	r0, [r0, #-274]	; 0xfffffeee
    3518:	2150400c 	cmpcs	r0, ip
    351c:	f40f0020 	vst4.8	{d0-d3}, [pc :128], r0
    3520:	a0000096 	mulge	r0, r6, r0
    3524:	00000005 	andeq	r0, r0, r5
    3528:	0008e410 	andeq	lr, r8, r0, lsl r4
    352c:	05940100 	ldreq	r0, [r4, #256]	; 0x100
    3530:	00000025 	andeq	r0, r0, r5, lsr #32
    3534:	000096b0 			; <UNDEFINED> instruction: 0x000096b0
    3538:	00000020 	andeq	r0, r0, r0, lsr #32
    353c:	03099c01 	movweq	r9, #39937	; 0x9c01
    3540:	bc110000 	ldclt	0, cr0, [r1], {-0}
    3544:	ac000096 	stcge	0, cr0, [r0], {150}	; 0x96
    3548:	12000005 	andne	r0, r0, #5, 0
    354c:	0c055001 	stceq	0, cr5, [r5], {1}
    3550:	20215064 	eorcs	r5, r1, r4, rrx
    3554:	b2100000 	andslt	r0, r0, #0, 0
    3558:	01000008 	tsteq	r0, r8
    355c:	0025058b 	eoreq	r0, r5, fp, lsl #11
    3560:	96980000 	ldrls	r0, [r8], r0
    3564:	00180000 	andseq	r0, r8, r0
    3568:	9c010000 	stcls	0, cr0, [r1], {-0}
    356c:	00000337 	andeq	r0, r0, r7, lsr r3
    3570:	0096a411 	addseq	sl, r6, r1, lsl r4
    3574:	0005ac00 	andeq	sl, r5, r0, lsl #24
    3578:	50011200 	andpl	r1, r1, r0, lsl #4
    357c:	50640c05 	rsbpl	r0, r4, r5, lsl #24
    3580:	00002021 	andeq	r2, r0, r1, lsr #32
    3584:	0007790e 	andeq	r7, r7, lr, lsl #18
    3588:	06450100 	strbeq	r0, [r5], -r0, lsl #2
    358c:	000095e8 	andeq	r9, r0, r8, ror #11
    3590:	000000b0 	strheq	r0, [r0], -r0	; <UNPREDICTABLE>
    3594:	04849c01 	streq	r9, [r4], #3073	; 0xc01
    3598:	a4160000 	ldrge	r0, [r6], #-0
    359c:	01000008 	tsteq	r0, r8
    35a0:	00620e7e 	rsbeq	r0, r2, lr, ror lr
    35a4:	010e0000 	mrseq	r0, (UNDEF: 14)
    35a8:	0095f814 	addseq	pc, r5, r4, lsl r8	; <UNPREDICTABLE>
    35ac:	0005c400 	andeq	ip, r5, r0, lsl #8
    35b0:	00037300 	andeq	r7, r3, r0, lsl #6
    35b4:	50011200 	andpl	r1, r1, r0, lsl #4
    35b8:	01123e01 	tsteq	r2, r1, lsl #28
    35bc:	00320151 	eorseq	r0, r2, r1, asr r1
    35c0:	00960414 	addseq	r0, r6, r4, lsl r4
    35c4:	0005c400 	andeq	ip, r5, r0, lsl #8
    35c8:	00038b00 	andeq	r8, r3, r0, lsl #22
    35cc:	50011200 	andpl	r1, r1, r0, lsl #4
    35d0:	01123f01 	tsteq	r2, r1, lsl #30
    35d4:	00320151 	eorseq	r0, r2, r1, asr r1
    35d8:	0096080f 	addseq	r0, r6, pc, lsl #16
    35dc:	0005a000 	andeq	sl, r5, r0
    35e0:	96141400 	ldrls	r1, [r4], -r0, lsl #8
    35e4:	053d0000 	ldreq	r0, [sp, #-0]!
    35e8:	03b00000 	movseq	r0, #0, 0
    35ec:	01120000 	tsteq	r2, r0
    35f0:	040c0550 	streq	r0, [ip], #-1360	; 0xfffffab0
    35f4:	12202150 	eorne	r2, r0, #20
    35f8:	31015101 	tstcc	r1, r1, lsl #2
    35fc:	96180f00 	ldrls	r0, [r8], -r0, lsl #30
    3600:	05a00000 	streq	r0, [r0, #0]!
    3604:	28140000 	ldmdacs	r4, {}	; <UNPREDICTABLE>
    3608:	b8000096 	stmdalt	r0, {r1, r2, r4, r7}
    360c:	d2000005 	andle	r0, r0, #5, 0
    3610:	12000003 	andne	r0, r0, #3, 0
    3614:	74025001 	strvc	r5, [r2], #-1
    3618:	51011200 	mrspl	r1, R9_usr
    361c:	14003001 	strne	r3, [r0], #-1
    3620:	00009634 	andeq	r9, r0, r4, lsr r6
    3624:	000005b8 			; <UNDEFINED> instruction: 0x000005b8
    3628:	000003ee 	andeq	r0, r0, lr, ror #7
    362c:	05500112 	ldrbeq	r0, [r0, #-274]	; 0xfffffeee
    3630:	2150440c 	cmpcs	r0, ip, lsl #8
    3634:	51011220 	tstpl	r1, r0, lsr #4
    3638:	14003001 	strne	r3, [r0], #-1
    363c:	00009640 	andeq	r9, r0, r0, asr #12
    3640:	000005b8 			; <UNDEFINED> instruction: 0x000005b8
    3644:	0000040a 	andeq	r0, r0, sl, lsl #8
    3648:	05500112 	ldrbeq	r0, [r0, #-274]	; 0xfffffeee
    364c:	21504c0c 	cmpcs	r0, ip, lsl #24
    3650:	51011220 	tstpl	r1, r0, lsr #4
    3654:	14003301 	strne	r3, [r0], #-769	; 0xfffffcff
    3658:	0000964c 	andeq	r9, r0, ip, asr #12
    365c:	000005b8 			; <UNDEFINED> instruction: 0x000005b8
    3660:	00000426 	andeq	r0, r0, r6, lsr #8
    3664:	05500112 	ldrbeq	r0, [r0, #-274]	; 0xfffffeee
    3668:	2150500c 	cmpcs	r0, ip
    366c:	51011220 	tstpl	r1, r0, lsr #4
    3670:	14003001 	strne	r3, [r0], #-1
    3674:	00009658 	andeq	r9, r0, r8, asr r6
    3678:	000005b8 			; <UNDEFINED> instruction: 0x000005b8
    367c:	00000443 	andeq	r0, r0, r3, asr #8
    3680:	05500112 	ldrbeq	r0, [r0, #-274]	; 0xfffffeee
    3684:	2150480c 	cmpcs	r0, ip, lsl #16
    3688:	51011220 	tstpl	r1, r0, lsr #4
    368c:	00c70802 	sbceq	r0, r7, r2, lsl #16
    3690:	00966414 	addseq	r6, r6, r4, lsl r4
    3694:	0005b800 	andeq	fp, r5, r0, lsl #16
    3698:	00046100 	andeq	r6, r4, r0, lsl #2
    369c:	50011200 	andpl	r1, r1, r0, lsl #4
    36a0:	50680c05 	rsbpl	r0, r8, r5, lsl #24
    36a4:	01122021 	tsteq	r2, r1, lsr #32
    36a8:	0e0a0351 	mcreq	3, 0, r0, cr10, cr1, {2}
    36ac:	70140001 	andsvc	r0, r4, r1
    36b0:	b8000096 	stmdalt	r0, {r1, r2, r4, r7}
    36b4:	7a000005 	bvc	36d0 <__code_start__-0x4930>
    36b8:	12000004 	andne	r0, r0, #4, 0
    36bc:	74025001 	strvc	r5, [r2], #-1
    36c0:	51011200 	mrspl	r1, R9_usr
    36c4:	0f003301 	svceq	0x00003301
    36c8:	00009674 	andeq	r9, r0, r4, ror r6
    36cc:	000005a0 	andeq	r0, r0, r0, lsr #11
    36d0:	0a360e00 	beq	d86ed8 <__bss_end__+0xd7c500>
    36d4:	35010000 	strcc	r0, [r1, #-0]
    36d8:	00977406 	addseq	r7, r7, r6, lsl #8
    36dc:	00002400 	andeq	r2, r0, r0, lsl #8
    36e0:	d39c0100 	orrsle	r0, ip, #0
    36e4:	0f000004 	svceq	0x00000004
    36e8:	0000977c 	andeq	r9, r0, ip, ror r7
    36ec:	00000194 	muleq	r0, r4, r1
    36f0:	0097800f 	addseq	r8, r7, pc
    36f4:	0005a000 	andeq	sl, r5, r0
    36f8:	978c1400 	strls	r1, [ip, r0, lsl #8]
    36fc:	04d30000 	ldrbeq	r0, [r3], #0
    3700:	04c90000 	strbeq	r0, [r9], #0
    3704:	01120000 	tsteq	r2, r0
    3708:	040c0550 	streq	r0, [ip], #-1360	; 0xfffffab0
    370c:	12202150 	eorne	r2, r0, #20
    3710:	09025101 	stmdbeq	r2, {r0, r8, ip, lr}
    3714:	900f00fe 	strdls	r0, [pc], -lr
    3718:	a0000097 	mulge	r0, r7, r0
    371c:	00000005 	andeq	r0, r0, r5
    3720:	000a7517 	andeq	r7, sl, r7, lsl r5
    3724:	0d310100 	ldfeqs	f0, [r1, #-0]
    3728:	000095a8 	andeq	r9, r0, r8, lsr #11
    372c:	00000020 	andeq	r0, r0, r0, lsr #32
    3730:	05369c01 	ldreq	r9, [r6, #-3073]!	; 0xfffff3ff
    3734:	cf180000 	svcgt	0x00180000
    3738:	0100000a 	tsteq	r0, sl
    373c:	05362531 	ldreq	r2, [r6, #-1329]!	; 0xfffffacf
    3740:	15e90000 	strbne	r0, [r9, #0]!
    3744:	15e50000 	strbne	r0, [r5, #0]!
    3748:	76130000 	ldrvc	r0, [r3], -r0
    374c:	01006c61 	tsteq	r0, r1, ror #24
    3750:	002c3431 	eoreq	r3, ip, r1, lsr r4
    3754:	160b0000 	strne	r0, [fp], -r0
    3758:	16070000 	strne	r0, [r7], -r0
    375c:	b8140000 	ldmdalt	r4, {}	; <UNPREDICTABLE>
    3760:	ac000095 	stcge	0, cr0, [r0], {149}	; 0x95
    3764:	25000005 	strcs	r0, [r0, #-5]
    3768:	12000005 	andne	r0, r0, #5, 0
    376c:	74025001 	strvc	r5, [r2], #-1
    3770:	c4110000 	ldrgt	r0, [r1], #-0
    3774:	b8000095 	stmdalt	r0, {r0, r2, r4, r7}
    3778:	12000005 	andne	r0, r0, #5, 0
    377c:	74025001 	strvc	r5, [r2], #-1
    3780:	0c000000 	stceq	0, cr0, [r0], {-0}
    3784:	00053c04 	andeq	r3, r5, r4, lsl #24
    3788:	60171900 	andsvs	r1, r7, r0, lsl #18
    378c:	0100000a 	tsteq	r0, sl
    3790:	95c80d2e 	strbls	r0, [r8, #3374]	; 0xd2e
    3794:	00200000 	eoreq	r0, r0, r0
    3798:	9c010000 	stcls	0, cr0, [r1], {-0}
    379c:	000005a0 	andeq	r0, r0, r0, lsr #11
    37a0:	000acf18 	andeq	ip, sl, r8, lsl pc
    37a4:	242e0100 	strtcs	r0, [lr], #-256	; 0xffffff00
    37a8:	00000536 	andeq	r0, r0, r6, lsr r5
    37ac:	0000162d 	andeq	r1, r0, sp, lsr #12
    37b0:	00001629 	andeq	r1, r0, r9, lsr #12
    37b4:	6c617613 	stclvs	6, cr7, [r1], #-76	; 0xffffffb4
    37b8:	332e0100 			; <UNDEFINED> instruction: 0x332e0100
    37bc:	0000002c 	andeq	r0, r0, ip, lsr #32
    37c0:	0000164f 	andeq	r1, r0, pc, asr #12
    37c4:	0000164b 	andeq	r1, r0, fp, asr #12
    37c8:	0095d814 	addseq	sp, r5, r4, lsl r8
    37cc:	0005ac00 	andeq	sl, r5, r0, lsl #24
    37d0:	00058f00 	andeq	r8, r5, r0, lsl #30
    37d4:	50011200 	andpl	r1, r1, r0, lsl #4
    37d8:	00007402 	andeq	r7, r0, r2, lsl #8
    37dc:	0095e411 	addseq	lr, r5, r1, lsl r4
    37e0:	0005b800 	andeq	fp, r5, r0, lsl #16
    37e4:	50011200 	andpl	r1, r1, r0, lsl #4
    37e8:	00007402 	andeq	r7, r0, r2, lsl #8
    37ec:	08431a00 	stmdaeq	r3, {r9, fp, ip}^
    37f0:	08430000 	stmdaeq	r3, {}^	; <UNPREDICTABLE>
    37f4:	a1030000 	mrsge	r0, (UNDEF: 3)
    37f8:	0aaa1a06 	beq	fea8a018 <__bss_end__+0xfea7f640>
    37fc:	0aaa0000 	beq	fea83804 <__bss_end__+0xfea78e2c>
    3800:	c8030000 	stmdagt	r3, {}	; <UNPREDICTABLE>
    3804:	089e1a0b 	ldmeq	lr, {r0, r1, r3, r9, fp, ip}
    3808:	089e0000 	ldmeq	lr, {}	; <UNPREDICTABLE>
    380c:	b3030000 	movwlt	r0, #12288	; 0x3000
    3810:	0a981a06 	beq	fe60a030 <__bss_end__+0xfe5ff658>
    3814:	0a980000 	beq	fe60381c <__bss_end__+0xfe5f8e44>
    3818:	19040000 	stmdbne	r4, {}	; <UNPREDICTABLE>
    381c:	08e90006 	stmiaeq	r9!, {r1, r2}^
    3820:	00040000 	andeq	r0, r4, r0
    3824:	00001324 	andeq	r1, r0, r4, lsr #6
    3828:	099e0104 	ldmibeq	lr, {r2, r8}
    382c:	3a0c0000 	bcc	303834 <__bss_end__+0x2f8e5c>
    3830:	4e00000b 	cdpmi	0, 0, cr0, cr0, cr11, {0}
    3834:	98000009 	stmdals	r0, {r0, r3}
    3838:	b0000097 	mullt	r0, r7, r0
    383c:	79000003 	stmdbvc	r0, {r0, r1}
    3840:	0200001d 	andeq	r0, r0, #29, 0
    3844:	6e690504 	cdpvs	5, 6, cr0, cr9, cr4, {0}
    3848:	04030074 	streq	r0, [r3], #-116	; 0xffffff8c
    384c:	0000ca07 	andeq	ip, r0, r7, lsl #20
    3850:	06010300 	streq	r0, [r1], -r0, lsl #6
    3854:	0000005a 	andeq	r0, r0, sl, asr r0
    3858:	6e050203 	cdpvs	2, 0, cr0, cr5, cr3, {0}
    385c:	03000001 	movweq	r0, #1
    3860:	01590504 	cmpeq	r9, r4, lsl #10
    3864:	08030000 	stmdaeq	r3, {}	; <UNPREDICTABLE>
    3868:	00015405 	andeq	r5, r1, r5, lsl #8
    386c:	08010300 	stmdaeq	r1, {r8, r9}
    3870:	00000058 	andeq	r0, r0, r8, asr r0
    3874:	73070203 	movwvc	r0, #29187	; 0x7203
    3878:	04000000 	streq	r0, [r0], #-0
    387c:	0000018b 	andeq	r0, r0, fp, lsl #3
    3880:	69193403 	ldmdbvs	r9, {r0, r1, sl, ip, sp}
    3884:	03000000 	movweq	r0, #0
    3888:	00c50704 	sbceq	r0, r5, r4, lsl #14
    388c:	08030000 	stmdaeq	r3, {}	; <UNPREDICTABLE>
    3890:	0000c007 	andeq	ip, r0, r7
    3894:	08010300 	stmdaeq	r1, {r8, r9}
    3898:	00000061 	andeq	r0, r0, r1, rrx
    389c:	00007705 	andeq	r7, r0, r5, lsl #14
    38a0:	04080300 	streq	r0, [r8], #-768	; 0xfffffd00
    38a4:	000004bd 			; <UNDEFINED> instruction: 0x000004bd
    38a8:	07070406 	streq	r0, [r7, -r6, lsl #8]
    38ac:	00002c04 	andeq	r2, r0, r4, lsl #24
    38b0:	061f0100 	ldreq	r0, [pc], -r0, lsl #2
    38b4:	000000a4 	andeq	r0, r0, r4, lsr #1
    38b8:	000ad408 	andeq	sp, sl, r8, lsl #8
    38bc:	20000000 	andcs	r0, r0, r0
    38c0:	a4090000 	strge	r0, [r9], #-0
    38c4:	01000006 	tsteq	r0, r6
    38c8:	00770d22 	rsbseq	r0, r7, r2, lsr #26
    38cc:	030a0000 	movweq	r0, #40960	; 0xa000
    38d0:	01000004 	tsteq	r0, r4
    38d4:	00c20e23 	sbceq	r0, r2, r3, lsr #28
    38d8:	03050000 	movweq	r0, #20480	; 0x5000
    38dc:	0000a59c 	muleq	r0, ip, r5
    38e0:	0077040b 	rsbseq	r0, r7, fp, lsl #8
    38e4:	b80a0000 	stmdalt	sl, {}	; <UNPREDICTABLE>
    38e8:	0100000a 	tsteq	r0, sl
    38ec:	00c20e24 	sbceq	r0, r2, r4, lsr #28
    38f0:	03050000 	movweq	r0, #20480	; 0x5000
    38f4:	0000a598 	muleq	r0, r8, r5
    38f8:	000b190a 	andeq	r1, fp, sl, lsl #18
    38fc:	0e250100 	sufeqs	f0, f5, f0
    3900:	000000c2 	andeq	r0, r0, r2, asr #1
    3904:	a5940305 	ldrge	r0, [r4, #773]	; 0x305
    3908:	ef0c0000 	svc	0x000c0000
    390c:	0100000a 	tsteq	r0, sl
    3910:	9ae80675 	bls	ffa052ec <__bss_end__+0xff9fa914>
    3914:	00600000 	rsbeq	r0, r0, r0
    3918:	9c010000 	stcls	0, cr0, [r1], {-0}
    391c:	00000164 	andeq	r0, r0, r4, ror #2
    3920:	0100700d 	tsteq	r0, sp
    3924:	008a1675 	addeq	r1, sl, r5, ror r6
    3928:	16730000 	ldrbtne	r0, [r3], -r0
    392c:	166d0000 	strbtne	r0, [sp], -r0
    3930:	990e0000 	stmdbls	lr, {}	; <UNPREDICTABLE>
    3934:	74000000 	strvc	r0, [r0], #-0
    3938:	05000001 	streq	r0, [r0, #-1]
    393c:	00a58403 	adceq	r8, r5, r3, lsl #8
    3940:	9b340f00 	blls	d07548 <__bss_end__+0xcfcb70>
    3944:	08bc0000 	ldmeq	ip!, {}	; <UNPREDICTABLE>
    3948:	015a0000 	cmpeq	sl, r0
    394c:	01100000 	tsteq	r0, r0
    3950:	fc030550 	stc2	5, cr0, [r3], {80}	; 0x50
    3954:	100000a4 	andne	r0, r0, r4, lsr #1
    3958:	03055101 	movweq	r5, #20737	; 0x5101
    395c:	0000a394 	muleq	r0, r4, r3
    3960:	05520110 	ldrbeq	r0, [r2, #-272]	; 0xfffffef0
    3964:	00a58403 	adceq	r8, r5, r3, lsl #8
    3968:	53011000 	movwpl	r1, #4096	; 0x1000
    396c:	10770802 	rsbsne	r0, r7, r2, lsl #16
    3970:	03007d02 	movweq	r7, #3330	; 0xd02
    3974:	005001f3 	ldrsheq	r0, [r0], #-19	; 0xffffffed
    3978:	009b3811 	addseq	r3, fp, r1, lsl r8
    397c:	0008c800 	andeq	ip, r8, r0, lsl #16
    3980:	7e120000 	cdpvc	0, 1, cr0, cr2, cr0, {0}
    3984:	74000000 	strvc	r0, [r0], #-0
    3988:	13000001 	movwne	r0, #1
    398c:	0000002c 	andeq	r0, r0, ip, lsr #32
    3990:	64050009 	strvs	r0, [r5], #-9
    3994:	14000001 	strne	r0, [r0], #-1
    3998:	00000add 	ldrdeq	r0, [r0], -sp
    399c:	d4067201 	strle	r7, [r6], #-513	; 0xfffffdff
    39a0:	1400009a 	strne	r0, [r0], #-154	; 0xffffff66
    39a4:	01000000 	mrseq	r0, (UNDEF: 0)
    39a8:	02a70c9c 	adceq	r0, r7, #156, 24	; 0x9c00
    39ac:	6f010000 	svcvs	0x00010000
    39b0:	009ad006 	addseq	sp, sl, r6
    39b4:	00000400 	andeq	r0, r0, r0, lsl #8
    39b8:	ae9c0100 	fmlgee	f0, f4, f0
    39bc:	15000001 	strne	r0, [r0, #-1]
    39c0:	6f010070 	svcvs	0x00010070
    39c4:	00008a12 	andeq	r8, r0, r2, lsl sl
    39c8:	00500100 	subseq	r0, r0, r0, lsl #2
    39cc:	000b7c16 	andeq	r7, fp, r6, lsl ip
    39d0:	075e0100 	ldrbeq	r0, [lr, -r0, lsl #2]
    39d4:	0000008a 	andeq	r0, r0, sl, lsl #1
    39d8:	000099b8 			; <UNDEFINED> instruction: 0x000099b8
    39dc:	00000118 	andeq	r0, r0, r8, lsl r1
    39e0:	042c9c01 	strteq	r9, [ip], #-3073	; 0xfffff3ff
    39e4:	1d170000 	ldcne	0, cr0, [r7, #-0]
    39e8:	01000003 	tsteq	r0, r3
    39ec:	002c205e 	eoreq	r2, ip, lr, asr r0
    39f0:	16b40000 	ldrtne	r0, [r4], r0
    39f4:	16a00000 	strtne	r0, [r0], r0
    39f8:	f9170000 			; <UNDEFINED> instruction: 0xf9170000
    39fc:	0100000a 	tsteq	r0, sl
    3a00:	002c315e 	eoreq	r3, ip, lr, asr r1
    3a04:	174d0000 	strbne	r0, [sp, -r0]
    3a08:	17390000 	ldrne	r0, [r9, -r0]!
    3a0c:	990e0000 	stmdbls	lr, {}	; <UNPREDICTABLE>
    3a10:	3c000000 	stccc	0, cr0, [r0], {-0}
    3a14:	05000004 	streq	r0, [r0, #-4]
    3a18:	00a56c03 	adceq	r6, r5, r3, lsl #24
    3a1c:	00681800 	rsbeq	r1, r8, r0, lsl #16
    3a20:	2c0e6601 	stccs	6, cr6, [lr], {1}
    3a24:	03000000 	movweq	r0, #0
    3a28:	f7000018 			; <UNDEFINED> instruction: 0xf7000018
    3a2c:	19000017 	stmdbne	r0, {r0, r1, r2, r4}
    3a30:	00000854 	andeq	r0, r0, r4, asr r8
    3a34:	000099c8 	andeq	r9, r0, r8, asr #19
    3a38:	0099c804 	addseq	ip, r9, r4, lsl #16
    3a3c:	00000400 	andeq	r0, r0, r0, lsl #8
    3a40:	05600100 	strbeq	r0, [r0, #-256]!	; 0xffffff00
    3a44:	00000238 	andeq	r0, r0, r8, lsr r2
    3a48:	0008651a 	andeq	r6, r8, sl, lsl r5
    3a4c:	00185700 	andseq	r5, r8, r0, lsl #14
    3a50:	00185500 	andseq	r5, r8, r0, lsl #10
    3a54:	96190000 	ldrls	r0, [r9], -r0
    3a58:	d4000008 	strle	r0, [r0], #-8
    3a5c:	02000099 	andeq	r0, r0, #153, 0	; 0x99
    3a60:	000099d4 	ldrdeq	r9, [r0], -r4
    3a64:	00000008 	andeq	r0, r0, r8
    3a68:	6c116101 	ldfvss	f6, [r1], {1}
    3a6c:	1a000002 	bne	3a7c <__code_start__-0x4584>
    3a70:	000008b1 			; <UNDEFINED> instruction: 0x000008b1
    3a74:	0000186c 	andeq	r1, r0, ip, ror #16
    3a78:	0000186a 	andeq	r1, r0, sl, ror #16
    3a7c:	0008a71a 	andeq	sl, r8, sl, lsl r7
    3a80:	00188200 	andseq	r8, r8, r0, lsl #4
    3a84:	00188000 	andseq	r8, r8, r0
    3a88:	1f1b0000 	svcne	0x001b0000
    3a8c:	e4000008 	str	r0, [r0], #-8
    3a90:	01000099 	swpeq	r0, r9, [r0]	; <UNPREDICTABLE>
    3a94:	000000c0 	andeq	r0, r0, r0, asr #1
    3a98:	0a096701 	beq	25d6a4 <__bss_end__+0x252ccc>
    3a9c:	1a000003 	bne	3ab0 <__code_start__-0x4550>
    3aa0:	0000083a 	andeq	r0, r0, sl, lsr r8
    3aa4:	0000189b 	muleq	r0, fp, r8
    3aa8:	00001895 	muleq	r0, r5, r8
    3aac:	0008301a 	andeq	r3, r8, sl, lsl r0
    3ab0:	0018e200 	andseq	lr, r8, r0, lsl #4
    3ab4:	0018da00 	andseq	sp, r8, r0, lsl #20
    3ab8:	00c01c00 	sbceq	r1, r0, r0, lsl #24
    3abc:	54190000 	ldrpl	r0, [r9], #-0
    3ac0:	e4000008 	str	r0, [r0], #-8
    3ac4:	04000099 	streq	r0, [r0], #-153	; 0xffffff67
    3ac8:	000099e4 	andeq	r9, r0, r4, ror #19
    3acc:	00000004 	andeq	r0, r0, r4
    3ad0:	c7051101 	strgt	r1, [r5, -r1, lsl #2]
    3ad4:	1a000002 	bne	3ae4 <__code_start__-0x451c>
    3ad8:	00000865 	andeq	r0, r0, r5, ror #16
    3adc:	00001920 	andeq	r1, r0, r0, lsr #18
    3ae0:	0000191e 	andeq	r1, r0, lr, lsl r9
    3ae4:	9a7c0f00 	bls	1f076ec <__bss_end__+0x1efcd14>
    3ae8:	08bc0000 	ldmeq	ip!, {}	; <UNPREDICTABLE>
    3aec:	02ff0000 	rscseq	r0, pc, #0, 0
    3af0:	01100000 	tsteq	r0, r0
    3af4:	7c030550 	cfstr32vc	mvfx0, [r3], {80}	; 0x50
    3af8:	1000009d 	mulne	r0, sp, r0
    3afc:	03055101 	movweq	r5, #20737	; 0x5101
    3b00:	0000a394 	muleq	r0, r4, r3
    3b04:	05520110 	ldrbeq	r0, [r2, #-272]	; 0xfffffef0
    3b08:	00a57c03 	adceq	r7, r5, r3, lsl #24
    3b0c:	53011000 	movwpl	r1, #4096	; 0x1000
    3b10:	02104101 	andseq	r4, r0, #1073741824	; 0x40000000
    3b14:	0305007d 	movweq	r0, #20605	; 0x507d
    3b18:	0000a4a8 	andeq	sl, r0, r8, lsr #9
    3b1c:	9a801100 	bls	fe007f24 <__bss_end__+0xfdffd54c>
    3b20:	08c80000 	stmiaeq	r8, {}^	; <UNPREDICTABLE>
    3b24:	00000000 	andeq	r0, r0, r0
    3b28:	00087019 	andeq	r7, r8, r9, lsl r0
    3b2c:	0099fc00 	addseq	pc, r9, r0, lsl #24
    3b30:	99fc0300 	ldmibls	ip!, {r8, r9}^
    3b34:	00040000 	andeq	r0, r4, r0
    3b38:	68010000 	stmdavs	r1, {}	; <UNPREDICTABLE>
    3b3c:	00033e05 	andeq	r3, r3, r5, lsl #28
    3b40:	088b1a00 	stmeq	fp, {r9, fp, ip}
    3b44:	19350000 	ldmdbne	r5!, {}	; <UNPREDICTABLE>
    3b48:	19330000 	ldmdbne	r3!, {}	; <UNPREDICTABLE>
    3b4c:	811a0000 	tsthi	sl, r0
    3b50:	4a000008 	bmi	3b78 <__code_start__-0x4488>
    3b54:	48000019 	stmdami	r0, {r0, r3, r4}
    3b58:	00000019 	andeq	r0, r0, r9, lsl r0
    3b5c:	009a140f 	addseq	r1, sl, pc, lsl #8
    3b60:	00044100 	andeq	r4, r4, r0, lsl #2
    3b64:	00035300 	andeq	r5, r3, r0, lsl #6
    3b68:	50011000 	andpl	r1, r1, r0
    3b6c:	5001f303 	andpl	pc, r1, r3, lsl #6
    3b70:	9a380f00 	bls	e07778 <__bss_end__+0xdfcda0>
    3b74:	08bc0000 	ldmeq	ip!, {}	; <UNPREDICTABLE>
    3b78:	038c0000 	orreq	r0, ip, #0, 0
    3b7c:	01100000 	tsteq	r0, r0
    3b80:	7c030550 	cfstr32vc	mvfx0, [r3], {80}	; 0x50
    3b84:	1000009d 	mulne	r0, sp, r0
    3b88:	03055101 	movweq	r5, #20737	; 0x5101
    3b8c:	0000a394 	muleq	r0, r4, r3
    3b90:	05520110 	ldrbeq	r0, [r2, #-272]	; 0xfffffef0
    3b94:	00a56c03 	adceq	r6, r5, r3, lsl #24
    3b98:	53011000 	movwpl	r1, #4096	; 0x1000
    3b9c:	105f0802 	subsne	r0, pc, r2, lsl #16
    3ba0:	05007d02 	streq	r7, [r0, #-3330]	; 0xfffff2fe
    3ba4:	00a3a403 	adceq	sl, r3, r3, lsl #8
    3ba8:	3c110000 	ldccc	0, cr0, [r1], {-0}
    3bac:	c800009a 	stmdagt	r0, {r1, r3, r4, r7}
    3bb0:	11000008 	tstne	r0, r8
    3bb4:	00009a40 	andeq	r9, r0, r0, asr #20
    3bb8:	000008d4 	ldrdeq	r0, [r0], -r4
    3bbc:	009a5c0f 	addseq	r5, sl, pc, lsl #24
    3bc0:	0008bc00 	andeq	fp, r8, r0, lsl #24
    3bc4:	0003d700 	andeq	sp, r3, r0, lsl #14
    3bc8:	50011000 	andpl	r1, r1, r0
    3bcc:	a4600305 	strbtge	r0, [r0], #-773	; 0xfffffcfb
    3bd0:	01100000 	tsteq	r0, r0
    3bd4:	94030551 	strls	r0, [r3], #-1361	; 0xfffffaaf
    3bd8:	100000a3 	andne	r0, r0, r3, lsr #1
    3bdc:	03055201 	movweq	r5, #20993	; 0x5201
    3be0:	0000a56c 	andeq	sl, r0, ip, ror #10
    3be4:	02530110 	subseq	r0, r3, #4
    3be8:	02106008 	andseq	r6, r0, #8, 0
    3bec:	0305007d 	movweq	r0, #20605	; 0x507d
    3bf0:	0000a494 	muleq	r0, r4, r4
    3bf4:	9a601100 	bls	1807ffc <__bss_end__+0x17fd624>
    3bf8:	08c80000 	stmiaeq	r8, {}^	; <UNPREDICTABLE>
    3bfc:	84110000 	ldrhi	r0, [r1], #-0
    3c00:	d400009a 	strle	r0, [r0], #-154	; 0xffffff66
    3c04:	0f000008 	svceq	0x00000008
    3c08:	00009aa0 	andeq	r9, r0, r0, lsr #21
    3c0c:	000008bc 			; <UNDEFINED> instruction: 0x000008bc
    3c10:	00000422 	andeq	r0, r0, r2, lsr #8
    3c14:	05500110 	ldrbeq	r0, [r0, #-272]	; 0xfffffef0
    3c18:	00a4b403 	adceq	fp, r4, r3, lsl #8
    3c1c:	51011000 	mrspl	r1, (UNDEF: 1)
    3c20:	a3940305 	orrsge	r0, r4, #335544320	; 0x14000000
    3c24:	01100000 	tsteq	r0, r0
    3c28:	6c030552 	cfstr32vs	mvfx0, [r3], {82}	; 0x52
    3c2c:	100000a5 	andne	r0, r0, r5, lsr #1
    3c30:	08025301 	stmdaeq	r2, {r0, r8, r9, ip, lr}
    3c34:	7d021068 	stcvc	0, cr1, [r2, #-416]	; 0xfffffe60
    3c38:	e0030500 	and	r0, r3, r0, lsl #10
    3c3c:	000000a4 	andeq	r0, r0, r4, lsr #1
    3c40:	009aa411 	addseq	sl, sl, r1, lsl r4
    3c44:	0008c800 	andeq	ip, r8, r0, lsl #16
    3c48:	7e120000 	cdpvc	0, 1, cr0, cr2, cr0, {0}
    3c4c:	3c000000 	stccc	0, cr0, [r0], {-0}
    3c50:	13000004 	movwne	r0, #4
    3c54:	0000002c 	andeq	r0, r0, ip, lsr #32
    3c58:	2c05000f 	stccs	0, cr0, [r5], {15}
    3c5c:	16000004 	strne	r0, [r0], -r4
    3c60:	00000439 	andeq	r0, r0, r9, lsr r4
    3c64:	8a075301 	bhi	1d8870 <__bss_end__+0x1cde98>
    3c68:	54000000 	strpl	r0, [r0], #-0
    3c6c:	64000099 	strvs	r0, [r0], #-153	; 0xffffff67
    3c70:	01000000 	mrseq	r0, (UNDEF: 0)
    3c74:	0005089c 	muleq	r5, ip, r8
    3c78:	031d1700 	tsteq	sp, #0, 14
    3c7c:	53010000 	movwpl	r0, #4096	; 0x1000
    3c80:	00002c18 	andeq	r2, r0, r8, lsl ip
    3c84:	00196500 	andseq	r6, r9, r0, lsl #10
    3c88:	00195d00 	andseq	r5, r9, r0, lsl #26
    3c8c:	00990e00 	addseq	r0, r9, r0, lsl #28
    3c90:	05180000 	ldreq	r0, [r8, #-0]
    3c94:	03050000 	movweq	r0, #20480	; 0x5000
    3c98:	0000a564 	andeq	sl, r0, r4, ror #10
    3c9c:	000acf1d 	andeq	ip, sl, sp, lsl pc
    3ca0:	0b550100 	bleq	15440a8 <__bss_end__+0x15396d0>
    3ca4:	0000008a 	andeq	r0, r0, sl, lsl #1
    3ca8:	0000199d 	muleq	r0, sp, r9
    3cac:	00001999 	muleq	r0, r9, r9
    3cb0:	00996c0f 	addseq	r6, r9, pc, lsl #24
    3cb4:	00051d00 	andeq	r1, r5, r0, lsl #26
    3cb8:	0004a600 	andeq	sl, r4, r0, lsl #12
    3cbc:	50011000 	andpl	r1, r1, r0
    3cc0:	00007402 	andeq	r7, r0, r2, lsl #8
    3cc4:	00997c0f 	addseq	r7, r9, pc, lsl #24
    3cc8:	0008e000 	andeq	lr, r8, r0
    3ccc:	0004c500 	andeq	ip, r4, r0, lsl #10
    3cd0:	50011000 	andpl	r1, r1, r0
    3cd4:	10007502 	andne	r7, r0, r2, lsl #10
    3cd8:	30015101 	andcc	r5, r1, r1, lsl #2
    3cdc:	02520110 	subseq	r0, r2, #4
    3ce0:	0f000074 	svceq	0x00000074
    3ce4:	000099a4 	andeq	r9, r0, r4, lsr #19
    3ce8:	000008bc 			; <UNDEFINED> instruction: 0x000008bc
    3cec:	000004fe 	strdeq	r0, [r0], -lr
    3cf0:	05500110 	ldrbeq	r0, [r0, #-272]	; 0xfffffef0
    3cf4:	009d7c03 	addseq	r7, sp, r3, lsl #24
    3cf8:	51011000 	mrspl	r1, (UNDEF: 1)
    3cfc:	a3940305 	orrsge	r0, r4, #335544320	; 0x14000000
    3d00:	01100000 	tsteq	r0, r0
    3d04:	64030552 	strvs	r0, [r3], #-1362	; 0xfffffaae
    3d08:	100000a5 	andne	r0, r0, r5, lsr #1
    3d0c:	08025301 	stmdaeq	r2, {r0, r8, r9, ip, lr}
    3d10:	7d021054 	stcvc	0, cr1, [r2, #-336]	; 0xfffffeb0
    3d14:	a4030500 	strge	r0, [r3], #-1280	; 0xfffffb00
    3d18:	000000a3 	andeq	r0, r0, r3, lsr #1
    3d1c:	0099a811 	addseq	sl, r9, r1, lsl r8
    3d20:	0008c800 	andeq	ip, r8, r0, lsl #16
    3d24:	7e120000 	cdpvc	0, 1, cr0, cr2, cr0, {0}
    3d28:	18000000 	stmdane	r0, {}	; <UNPREDICTABLE>
    3d2c:	13000005 	movwne	r0, #5
    3d30:	0000002c 	andeq	r0, r0, ip, lsr #32
    3d34:	08050007 	stmdaeq	r5, {r0, r1, r2}
    3d38:	16000005 	strne	r0, [r0], -r5
    3d3c:	00000b22 	andeq	r0, r0, r2, lsr #22
    3d40:	8a074701 	bhi	1d594c <__bss_end__+0x1caf74>
    3d44:	bc000000 	stclt	0, cr0, [r0], {-0}
    3d48:	98000098 	stmdals	r0, {r3, r4, r7}
    3d4c:	01000000 	mrseq	r0, (UNDEF: 0)
    3d50:	00062b9c 	muleq	r6, ip, fp
    3d54:	031d1700 	tsteq	sp, #0, 14
    3d58:	47010000 	strmi	r0, [r1, -r0]
    3d5c:	00002c20 	andeq	r2, r0, r0, lsr #24
    3d60:	0019cb00 	andseq	ip, r9, r0, lsl #22
    3d64:	0019bb00 	andseq	fp, r9, r0, lsl #22
    3d68:	00990e00 	addseq	r0, r9, r0, lsl #28
    3d6c:	043c0000 	ldrteq	r0, [ip], #-0
    3d70:	03050000 	movweq	r0, #20480	; 0x5000
    3d74:	0000a554 	andeq	sl, r0, r4, asr r5
    3d78:	000acf1d 	andeq	ip, sl, sp, lsl pc
    3d7c:	0b4b0100 	bleq	12c4184 <__bss_end__+0x12b97ac>
    3d80:	0000008a 	andeq	r0, r0, sl, lsl #1
    3d84:	00001a3f 	andeq	r1, r0, pc, lsr sl
    3d88:	00001a39 	andeq	r1, r0, r9, lsr sl
    3d8c:	00081f1b 	andeq	r1, r8, fp, lsl pc
    3d90:	0098cc00 	addseq	ip, r8, r0, lsl #24
    3d94:	00a80300 	adceq	r0, r8, r0, lsl #6
    3d98:	49010000 	stmdbmi	r1, {}	; <UNPREDICTABLE>
    3d9c:	0005a30e 	andeq	sl, r5, lr, lsl #6
    3da0:	083a1a00 	ldmdaeq	sl!, {r9, fp, ip}
    3da4:	1a6e0000 	bne	1b83dac <__bss_end__+0x1b793d4>
    3da8:	1a6c0000 	bne	1b03db0 <__bss_end__+0x1af93d8>
    3dac:	301a0000 	andscc	r0, sl, r0
    3db0:	86000008 	strhi	r0, [r0], -r8
    3db4:	8200001a 	andhi	r0, r0, #26, 0
    3db8:	1e00001a 	mcrne	0, 0, r0, cr0, cr10, {0}
    3dbc:	000000a8 	andeq	r0, r0, r8, lsr #1
    3dc0:	99140f00 	ldmdbls	r4, {r8, r9, sl, fp}
    3dc4:	08bc0000 	ldmeq	ip!, {}	; <UNPREDICTABLE>
    3dc8:	05dc0000 	ldrbeq	r0, [ip]
    3dcc:	01100000 	tsteq	r0, r0
    3dd0:	7c030550 	cfstr32vc	mvfx0, [r3], {80}	; 0x50
    3dd4:	1000009d 	mulne	r0, sp, r0
    3dd8:	03055101 	movweq	r5, #20737	; 0x5101
    3ddc:	0000a394 	muleq	r0, r4, r3
    3de0:	05520110 	ldrbeq	r0, [r2, #-272]	; 0xfffffef0
    3de4:	00a55403 	adceq	r5, r5, r3, lsl #8
    3de8:	53011000 	movwpl	r1, #4096	; 0x1000
    3dec:	10480802 	subne	r0, r8, r2, lsl #16
    3df0:	05007d02 	streq	r7, [r0, #-3330]	; 0xfffff2fe
    3df4:	00a3a403 	adceq	sl, r3, r3, lsl #8
    3df8:	18110000 	ldmdane	r1, {}	; <UNPREDICTABLE>
    3dfc:	c8000099 	stmdagt	r0, {r0, r3, r4, r7}
    3e00:	0f000008 	svceq	0x00000008
    3e04:	00009938 	andeq	r9, r0, r8, lsr r9
    3e08:	000008bc 			; <UNDEFINED> instruction: 0x000008bc
    3e0c:	00000621 	andeq	r0, r0, r1, lsr #12
    3e10:	05500110 	ldrbeq	r0, [r0, #-272]	; 0xfffffef0
    3e14:	00a42003 	adceq	r2, r4, r3
    3e18:	51011000 	mrspl	r1, (UNDEF: 1)
    3e1c:	a3940305 	orrsge	r0, r4, #335544320	; 0x14000000
    3e20:	01100000 	tsteq	r0, r0
    3e24:	54030552 	strpl	r0, [r3], #-1362	; 0xfffffaae
    3e28:	100000a5 	andne	r0, r0, r5, lsr #1
    3e2c:	08025301 	stmdaeq	r2, {r0, r8, r9, ip, lr}
    3e30:	7d02104e 	stcvc	0, cr1, [r2, #-312]	; 0xfffffec8
    3e34:	01f30800 	mvnseq	r0, r0, lsl #16
    3e38:	09072350 	stmdbeq	r7, {r4, r6, r8, r9, sp}
    3e3c:	11001af8 	strdne	r1, [r0, -r8]
    3e40:	0000993c 	andeq	r9, r0, ip, lsr r9
    3e44:	000008c8 	andeq	r0, r0, r8, asr #17
    3e48:	0b440c00 	bleq	1106e50 <__bss_end__+0x10fc478>
    3e4c:	3c010000 	stccc	0, cr0, [r1], {-0}
    3e50:	00986406 	addseq	r6, r8, r6, lsl #8
    3e54:	00005800 	andeq	r5, r0, r0, lsl #16
    3e58:	cf9c0100 	svcgt	0x009c0100
    3e5c:	0a000006 	beq	3e7c <__code_start__-0x4184>
    3e60:	0000037c 	andeq	r0, r0, ip, ror r3
    3e64:	25103d01 	ldrcs	r3, [r0, #-3329]	; 0xfffff2ff
    3e68:	05000000 	streq	r0, [r0, #-0]
    3e6c:	00a9d003 	adceq	sp, r9, r3
    3e70:	00990e00 	addseq	r0, r9, r0, lsl #28
    3e74:	06df0000 	ldrbeq	r0, [pc], r0
    3e78:	03050000 	movweq	r0, #20480	; 0x5000
    3e7c:	0000a544 	andeq	sl, r0, r4, asr #10
    3e80:	2c040707 	stccs	7, cr0, [r4], {7}
    3e84:	01000000 	mrseq	r0, (UNDEF: 0)
    3e88:	067a0a42 	ldrbteq	r0, [sl], -r2, asr #20
    3e8c:	0b080000 	bleq	203e94 <__bss_end__+0x1f94bc>
    3e90:	0000000b 	andeq	r0, r0, fp
    3e94:	00001000 	andeq	r1, r0, r0
    3e98:	0098900f 	addseq	r9, r8, pc
    3e9c:	0006e400 	andeq	lr, r6, r0, lsl #8
    3ea0:	00069600 	andeq	r9, r6, r0, lsl #12
    3ea4:	50011000 	andpl	r1, r1, r0
    3ea8:	24404003 	strbcs	r4, [r0], #-3
    3eac:	03510110 	cmpeq	r1, #4
    3eb0:	00244840 	eoreq	r4, r4, r0, asr #16
    3eb4:	0098a80f 	addseq	sl, r8, pc, lsl #16
    3eb8:	0008bc00 	andeq	fp, r8, r0, lsl #24
    3ebc:	0006c500 	andeq	ip, r6, r0, lsl #10
    3ec0:	50011000 	andpl	r1, r1, r0
    3ec4:	a3f00305 	mvnsge	r0, #335544320	; 0x14000000
    3ec8:	01100000 	tsteq	r0, r0
    3ecc:	94030551 	strls	r0, [r3], #-1361	; 0xfffffaaf
    3ed0:	100000a3 	andne	r0, r0, r3, lsr #1
    3ed4:	03055201 	movweq	r5, #20993	; 0x5201
    3ed8:	0000a544 	andeq	sl, r0, r4, asr #10
    3edc:	02530110 	subseq	r0, r3, #4
    3ee0:	11004008 	tstne	r0, r8
    3ee4:	000098ac 	andeq	r9, r0, ip, lsr #17
    3ee8:	000008c8 	andeq	r0, r0, r8, asr #17
    3eec:	007e1200 	rsbseq	r1, lr, r0, lsl #4
    3ef0:	06df0000 	ldrbeq	r0, [pc], r0
    3ef4:	2c130000 	ldccs	0, cr0, [r3], {-0}
    3ef8:	0c000000 	stceq	0, cr0, [r0], {-0}
    3efc:	06cf0500 	strbeq	r0, [pc], r0, lsl #10
    3f00:	410c0000 	mrsmi	r0, (UNDEF: 12)
    3f04:	01000004 	tsteq	r0, r4
    3f08:	97c8062d 	strbls	r0, [r8, sp, lsr #12]
    3f0c:	009c0000 	addseq	r0, ip, r0
    3f10:	9c010000 	stcls	0, cr0, [r1], {-0}
    3f14:	000007c8 	andeq	r0, r0, r8, asr #15
    3f18:	000ace17 	andeq	ip, sl, r7, lsl lr
    3f1c:	262d0100 	strtcs	r0, [sp], -r0, lsl #2
    3f20:	0000002c 	andeq	r0, r0, ip, lsr #32
    3f24:	00001ab4 			; <UNDEFINED> instruction: 0x00001ab4
    3f28:	00001aa6 	andeq	r1, r0, r6, lsr #21
    3f2c:	000ac317 	andeq	ip, sl, r7, lsl r3
    3f30:	362d0100 	strtcc	r0, [sp], -r0, lsl #2
    3f34:	0000002c 	andeq	r0, r0, ip, lsr #32
    3f38:	00001b1c 	andeq	r1, r0, ip, lsl fp
    3f3c:	00001b14 	andeq	r1, r0, r4, lsl fp
    3f40:	000acf1d 	andeq	ip, sl, sp, lsl pc
    3f44:	0b2e0100 	bleq	b8434c <__bss_end__+0xb79974>
    3f48:	000000c2 	andeq	r0, r0, r2, asr #1
    3f4c:	00001b64 	andeq	r1, r0, r4, ror #22
    3f50:	00001b56 	andeq	r1, r0, r6, asr fp
    3f54:	0000990e 	andeq	r9, r0, lr, lsl #18
    3f58:	0007d800 	andeq	sp, r7, r0, lsl #16
    3f5c:	2c030500 	cfstr32cs	mvfx0, [r3], {-0}
    3f60:	0f0000a5 	svceq	0x000000a5
    3f64:	00009820 	andeq	r9, r0, r0, lsr #16
    3f68:	000008bc 			; <UNDEFINED> instruction: 0x000008bc
    3f6c:	0000077e 	andeq	r0, r0, lr, ror r7
    3f70:	05500110 	ldrbeq	r0, [r0, #-272]	; 0xfffffef0
    3f74:	009d7c03 	addseq	r7, sp, r3, lsl #24
    3f78:	51011000 	mrspl	r1, (UNDEF: 1)
    3f7c:	a3940305 	orrsge	r0, r4, #335544320	; 0x14000000
    3f80:	01100000 	tsteq	r0, r0
    3f84:	2c030552 	cfstr32cs	mvfx0, [r3], {82}	; 0x52
    3f88:	100000a5 	andne	r0, r0, r5, lsr #1
    3f8c:	08025301 	stmdaeq	r2, {r0, r8, r9, ip, lr}
    3f90:	7d021030 	stcvc	0, cr1, [r2, #-192]	; 0xffffff40
    3f94:	a0030500 	andge	r0, r3, r0, lsl #10
    3f98:	000000a3 	andeq	r0, r0, r3, lsr #1
    3f9c:	00982411 	addseq	r2, r8, r1, lsl r4
    3fa0:	0008c800 	andeq	ip, r8, r0, lsl #16
    3fa4:	98480f00 	stmdals	r8, {r8, r9, sl, fp}^
    3fa8:	08bc0000 	ldmeq	ip!, {}	; <UNPREDICTABLE>
    3fac:	07be0000 	ldreq	r0, [lr, r0]!
    3fb0:	01100000 	tsteq	r0, r0
    3fb4:	ac030550 	cfstr32ge	mvfx0, [r3], {80}	; 0x50
    3fb8:	100000a3 	andne	r0, r0, r3, lsr #1
    3fbc:	03055101 	movweq	r5, #20737	; 0x5101
    3fc0:	0000a394 	muleq	r0, r4, r3
    3fc4:	05520110 	ldrbeq	r0, [r2, #-272]	; 0xfffffef0
    3fc8:	00a52c03 	adceq	r2, r5, r3, lsl #24
    3fcc:	53011000 	movwpl	r1, #4096	; 0x1000
    3fd0:	10340802 	eorsne	r0, r4, r2, lsl #16
    3fd4:	03007d02 	movweq	r7, #3330	; 0xd02
    3fd8:	005001f3 	ldrsheq	r0, [r0], #-19	; 0xffffffed
    3fdc:	00984c11 	addseq	r4, r8, r1, lsl ip
    3fe0:	0008c800 	andeq	ip, r8, r0, lsl #16
    3fe4:	7e120000 	cdpvc	0, 1, cr0, cr2, cr0, {0}
    3fe8:	d8000000 	stmdale	r0, {}	; <UNPREDICTABLE>
    3fec:	13000007 	movwne	r0, #7
    3ff0:	0000002c 	andeq	r0, r0, ip, lsr #32
    3ff4:	c8050016 	stmdagt	r5, {r1, r2, r4}
    3ff8:	1f000007 	svcne	0x00000007
    3ffc:	00000b5c 	andeq	r0, r0, ip, asr fp
    4000:	8a072a01 	bhi	1ce80c <__bss_end__+0x1c3e34>
    4004:	b8000000 	stmdalt	r0, {}	; <UNPREDICTABLE>
    4008:	10000097 	mulne	r0, r7, r0
    400c:	01000000 	mrseq	r0, (UNDEF: 0)
    4010:	0ab01f9c 	beq	fec0be88 <__bss_end__+0xfec014b0>
    4014:	29010000 	stmdbcs	r1, {}	; <UNPREDICTABLE>
    4018:	00008a07 	andeq	r8, r0, r7, lsl #20
    401c:	0097a800 	addseq	sl, r7, r0, lsl #16
    4020:	00001000 	andeq	r1, r0, r0
    4024:	1f9c0100 	svcne	0x009c0100
    4028:	00000b11 	andeq	r0, r0, r1, lsl fp
    402c:	8a072801 	bhi	1ce038 <__bss_end__+0x1c3660>
    4030:	98000000 	stmdals	r0, {}	; <UNPREDICTABLE>
    4034:	10000097 	mulne	r0, r7, r0
    4038:	01000000 	mrseq	r0, (UNDEF: 0)
    403c:	0ae7209c 	beq	ff9cc2b4 <__bss_end__+0xff9c18dc>
    4040:	10010000 	andne	r0, r1, r0
    4044:	00002c18 	andeq	r2, r0, r8, lsl ip
    4048:	08540300 	ldmdaeq	r4, {r8, r9}^
    404c:	78210000 	stmdavc	r1!, {}	; <UNPREDICTABLE>
    4050:	29100100 	ldmdbcs	r0, {r8}
    4054:	0000002c 	andeq	r0, r0, ip, lsr #32
    4058:	01006e21 	tsteq	r0, r1, lsr #28
    405c:	002c3510 	eoreq	r3, ip, r0, lsl r5
    4060:	990e0000 	stmdbls	lr, {}	; <UNPREDICTABLE>
    4064:	18000000 	stmdane	r0, {}	; <UNPREDICTABLE>
    4068:	05000005 	streq	r0, [r0, #-5]
    406c:	00a57c03 	adceq	r7, r5, r3, lsl #24
    4070:	32200000 	eorcc	r0, r0, #0, 0
    4074:	0100000b 	tsteq	r0, fp
    4078:	002c180d 	eoreq	r1, ip, sp, lsl #16
    407c:	70030000 	andvc	r0, r3, r0
    4080:	21000008 	tstcs	r0, r8
    4084:	0d010078 	stceq	0, cr0, [r1, #-480]	; 0xfffffe20
    4088:	00002c29 	andeq	r2, r0, r9, lsr #24
    408c:	51200000 			; <UNDEFINED> instruction: 0x51200000
    4090:	0100000b 	tsteq	r0, fp
    4094:	002c1807 	eoreq	r1, ip, r7, lsl #16
    4098:	96030000 	strls	r0, [r3], -r0
    409c:	21000008 	tstcs	r0, r8
    40a0:	07010078 	smlsdxeq	r1, r8, r0, r0
    40a4:	00002c2c 	andeq	r2, r0, ip, lsr #24
    40a8:	006e2100 	rsbeq	r2, lr, r0, lsl #2
    40ac:	2c380701 	ldccs	7, cr0, [r8], #-4
    40b0:	00000000 	andeq	r0, r0, r0
    40b4:	000b0320 	andeq	r0, fp, r0, lsr #6
    40b8:	18040100 	stmdane	r4, {r8}
    40bc:	0000005d 	andeq	r0, r0, sp, asr r0
    40c0:	0008bc03 	andeq	fp, r8, r3, lsl #24
    40c4:	00782100 	rsbseq	r2, r8, r0, lsl #2
    40c8:	5d290401 	cfstrspl	mvf0, [r9, #-4]!
    40cc:	21000000 	mrscs	r0, (UNDEF: 0)
    40d0:	04010079 	streq	r0, [r1], #-121	; 0xffffff87
    40d4:	00005d35 	andeq	r5, r0, r5, lsr sp
    40d8:	12220000 	eorne	r0, r2, #0, 0
    40dc:	12000006 	andne	r0, r0, #6, 0
    40e0:	02000006 	andeq	r0, r0, #6, 0
    40e4:	66220628 	strtvs	r0, [r2], -r8, lsr #12
    40e8:	66000000 	strvs	r0, [r0], -r0
    40ec:	02000000 	andeq	r0, r0, #0, 0
    40f0:	6d22066e 	stcvs	6, cr0, [r2, #-440]!	; 0xfffffe48
    40f4:	6d00000b 	stcvs	0, cr0, [r0, #-44]	; 0xffffffd4
    40f8:	0200000b 	andeq	r0, r0, #11, 0
    40fc:	8d22061d 	stchi	6, cr0, [r2, #-116]!	; 0xffffff8c
    4100:	8d000000 	stchi	0, cr0, [r0, #-0]
    4104:	02000000 	andeq	r0, r0, #0, 0
    4108:	490007f7 	stmdbmi	r0, {r0, r1, r2, r4, r5, r6, r7, r8, r9, sl}
    410c:	04000001 	streq	r0, [r0], #-1
    4110:	00154700 	andseq	r4, r5, r0, lsl #14
    4114:	e1010400 	tst	r1, r0, lsl #8
    4118:	0c000004 	stceq	0, cr0, [r0], {4}
    411c:	00000baa 	andeq	r0, r0, sl, lsr #23
    4120:	000005c2 	andeq	r0, r0, r2, asr #11
    4124:	00009b48 	andeq	r9, r0, r8, asr #22
    4128:	0000003c 	andeq	r0, r0, ip, lsr r0
    412c:	00002110 	andeq	r2, r0, r0, lsl r1
    4130:	69050402 	stmdbvs	r5, {r1, sl}
    4134:	0300746e 	movweq	r7, #1134	; 0x46e
    4138:	00ca0704 	sbceq	r0, sl, r4, lsl #14
    413c:	01030000 	mrseq	r0, (UNDEF: 3)
    4140:	00005a06 	andeq	r5, r0, r6, lsl #20
    4144:	05020300 	streq	r0, [r2, #-768]	; 0xfffffd00
    4148:	0000016e 	andeq	r0, r0, lr, ror #2
    414c:	59050403 	stmdbpl	r5, {r0, r1, sl}
    4150:	03000001 	movweq	r0, #1
    4154:	01540508 	cmpeq	r4, r8, lsl #10
    4158:	01030000 	mrseq	r0, (UNDEF: 3)
    415c:	00005808 	andeq	r5, r0, r8, lsl #16
    4160:	07020300 	streq	r0, [r2, -r0, lsl #6]
    4164:	00000073 	andeq	r0, r0, r3, ror r0
    4168:	c5070403 	strgt	r0, [r7, #-1027]	; 0xfffffbfd
    416c:	03000000 	movweq	r0, #0
    4170:	00c00708 	sbceq	r0, r0, r8, lsl #14
    4174:	25040000 	strcs	r0, [r4, #-0]
    4178:	7a000000 	bvc	4180 <__code_start__-0x3e80>
    417c:	05000000 	streq	r0, [r0, #-0]
    4180:	00000025 	andeq	r0, r0, r5, lsr #32
    4184:	01620600 	cmneq	r2, r0, lsl #12
    4188:	1c020000 	stcne	0, cr0, [r2], {-0}
    418c:	0000860e 	andeq	r8, r0, lr, lsl #12
    4190:	6b040700 	blvs	105d98 <__bss_end__+0xfb3c0>
    4194:	04000000 	streq	r0, [r0], #-0
    4198:	00000025 	andeq	r0, r0, r5, lsr #32
    419c:	0000009b 	muleq	r0, fp, r0
    41a0:	00009b05 	andeq	r9, r0, r5, lsl #22
    41a4:	04070000 	streq	r0, [r7], #-0
    41a8:	000000a8 	andeq	r0, r0, r8, lsr #1
    41ac:	61080103 	tstvs	r8, r3, lsl #2
    41b0:	08000000 	stmdaeq	r0, {}	; <UNPREDICTABLE>
    41b4:	000000a1 	andeq	r0, r0, r1, lsr #1
    41b8:	00065006 	andeq	r5, r6, r6
    41bc:	0e210200 	cdpeq	2, 2, cr0, cr1, cr0, {0}
    41c0:	000000b9 	strheq	r0, [r0], -r9
    41c4:	008c0407 	addeq	r0, ip, r7, lsl #8
    41c8:	7a090000 	bvc	2441d0 <__bss_end__+0x2397f8>
    41cc:	01000000 	mrseq	r0, (UNDEF: 0)
    41d0:	03050706 	movweq	r0, #22278	; 0x5706
    41d4:	0000a5a0 	andeq	sl, r0, r0, lsr #11
    41d8:	000b9d0a 	andeq	r9, fp, sl, lsl #26
    41dc:	060b0100 	streq	r0, [fp], -r0, lsl #2
    41e0:	00009b74 	andeq	r9, r0, r4, ror fp
    41e4:	00000010 	andeq	r0, r0, r0, lsl r0
    41e8:	00f19c01 	rscseq	r9, r1, r1, lsl #24
    41ec:	660b0000 	strvs	r0, [fp], -r0
    41f0:	0b010070 	bleq	443b8 <__bss_end__+0x399e0>
    41f4:	00008619 	andeq	r8, r0, r9, lsl r6
    41f8:	00500100 	subseq	r0, r0, r0, lsl #2
    41fc:	000b6d0c 	andeq	r6, fp, ip, lsl #26
    4200:	06080100 	streq	r0, [r8], -r0, lsl #2
    4204:	00009b5c 	andeq	r9, r0, ip, asr fp
    4208:	00000018 	andeq	r0, r0, r8, lsl r0
    420c:	8c0d9c01 	stchi	12, cr9, [sp], {1}
    4210:	0100000b 	tsteq	r0, fp
    4214:	00250c03 	eoreq	r0, r5, r3, lsl #24
    4218:	9b480000 	blls	1204220 <__bss_end__+0x11f9848>
    421c:	00140000 	andseq	r0, r4, r0
    4220:	9c010000 	stcls	0, cr0, [r1], {-0}
    4224:	00000140 	andeq	r0, r0, r0, asr #2
    4228:	0100630e 	tsteq	r0, lr, lsl #6
    422c:	00252103 	eoreq	r2, r5, r3, lsl #2
    4230:	1bc80000 	blne	ff204238 <__bss_end__+0xff1f9860>
    4234:	1bc40000 	blne	ff10423c <__bss_end__+0xff0f9864>
    4238:	540f0000 	strpl	r0, [pc], #-0	; 4240 <__code_start__-0x3dc0>
    423c:	4000009b 	mulmi	r0, fp, r0
    4240:	10000001 	andne	r0, r0, r1
    4244:	74025001 	strvc	r5, [r2], #-1
    4248:	11000000 	mrsne	r0, (UNDEF: 0)
    424c:	00000a7e 	andeq	r0, r0, lr, ror sl
    4250:	00000a7e 	andeq	r0, r0, lr, ror sl
    4254:	00064202 	andeq	r4, r6, r2, lsl #4
    4258:	00000137 	andeq	r0, r0, r7, lsr r1
    425c:	16560004 	ldrbne	r0, [r6], -r4
    4260:	01040000 	mrseq	r0, (UNDEF: 4)
    4264:	000004e1 	andeq	r0, r0, r1, ror #9
    4268:	000bc00c 	andeq	ip, fp, ip
    426c:	0005c200 	andeq	ip, r5, r0, lsl #4
    4270:	009b8400 	addseq	r8, fp, r0, lsl #8
    4274:	00003400 	andeq	r3, r0, r0, lsl #8
    4278:	0021d200 	eoreq	sp, r1, r0, lsl #4
    427c:	05040200 	streq	r0, [r4, #-512]	; 0xfffffe00
    4280:	00746e69 	rsbseq	r6, r4, r9, ror #28
    4284:	ca070403 	bgt	1c5298 <__bss_end__+0x1ba8c0>
    4288:	03000000 	movweq	r0, #0
    428c:	005a0601 	subseq	r0, sl, r1, lsl #12
    4290:	02030000 	andeq	r0, r3, #0, 0
    4294:	00016e05 	andeq	r6, r1, r5, lsl #28
    4298:	05040300 	streq	r0, [r4, #-768]	; 0xfffffd00
    429c:	00000159 	andeq	r0, r0, r9, asr r1
    42a0:	54050803 	strpl	r0, [r5], #-2051	; 0xfffff7fd
    42a4:	03000001 	movweq	r0, #1
    42a8:	00580801 	subseq	r0, r8, r1, lsl #16
    42ac:	02030000 	andeq	r0, r3, #0, 0
    42b0:	00007307 	andeq	r7, r0, r7, lsl #6
    42b4:	07040300 	streq	r0, [r4, -r0, lsl #6]
    42b8:	000000c5 	andeq	r0, r0, r5, asr #1
    42bc:	c0070803 	andgt	r0, r7, r3, lsl #16
    42c0:	04000000 	streq	r0, [r0], #-0
    42c4:	00000025 	andeq	r0, r0, r5, lsr #32
    42c8:	0000007a 	andeq	r0, r0, sl, ror r0
    42cc:	00002505 	andeq	r2, r0, r5, lsl #10
    42d0:	62060000 	andvs	r0, r6, #0, 0
    42d4:	02000001 	andeq	r0, r0, #1, 0
    42d8:	00860e1c 	addeq	r0, r6, ip, lsl lr
    42dc:	04070000 	streq	r0, [r7], #-0
    42e0:	0000006b 	andeq	r0, r0, fp, rrx
    42e4:	00002504 	andeq	r2, r0, r4, lsl #10
    42e8:	00009b00 	andeq	r9, r0, r0, lsl #22
    42ec:	009b0500 	addseq	r0, fp, r0, lsl #10
    42f0:	07000000 	streq	r0, [r0, -r0]
    42f4:	0000a804 	andeq	sl, r0, r4, lsl #16
    42f8:	08010300 	stmdaeq	r1, {r8, r9}
    42fc:	00000061 	andeq	r0, r0, r1, rrx
    4300:	0000a108 	andeq	sl, r0, r8, lsl #2
    4304:	06500600 	ldrbeq	r0, [r0], -r0, lsl #12
    4308:	21020000 	mrscs	r0, (UNDEF: 2)
    430c:	0000b90e 	andeq	fp, r0, lr, lsl #18
    4310:	8c040700 	stchi	7, cr0, [r4], {-0}
    4314:	09000000 	stmdbeq	r0, {}	; <UNPREDICTABLE>
    4318:	000006fb 	strdeq	r0, [r0], -fp
    431c:	34070401 	strcc	r0, [r7], #-1025	; 0xfffffbff
    4320:	84000001 	strhi	r0, [r0], #-1
    4324:	3400009b 	strcc	r0, [r0], #-155	; 0xffffff65
    4328:	01000000 	mrseq	r0, (UNDEF: 0)
    432c:	0001349c 	muleq	r1, ip, r4
    4330:	0bbb0a00 	bleq	feec6b38 <__bss_end__+0xfeebc160>
    4334:	04010000 	streq	r0, [r1], #-0
    4338:	00013415 	andeq	r3, r1, r5, lsl r4
    433c:	0b500100 	bleq	1404744 <__bss_end__+0x13f9d6c>
    4340:	00637273 	rsbeq	r7, r3, r3, ror r2
    4344:	9b270401 	blls	9c5350 <__bss_end__+0x9ba978>
    4348:	ea000000 	b	4350 <__code_start__-0x3cb0>
    434c:	e600001b 			; <UNDEFINED> instruction: 0xe600001b
    4350:	0c00001b 	stceq	0, cr0, [r0], {27}
    4354:	01003173 	tsteq	r0, r3, ror r1
    4358:	01340b05 	teqeq	r4, r5, lsl #22
    435c:	1c150000 	ldcne	0, cr0, [r5], {-0}
    4360:	1c0b0000 	stcne	0, cr0, [fp], {-0}
    4364:	730c0000 	movwvc	r0, #49152	; 0xc000
    4368:	06010032 			; <UNDEFINED> instruction: 0x06010032
    436c:	00009b11 	andeq	r9, r0, r1, lsl fp
    4370:	001c5a00 	andseq	r5, ip, r0, lsl #20
    4374:	001c5600 	andseq	r5, ip, r0, lsl #12
    4378:	00630c00 	rsbeq	r0, r3, r0, lsl #24
    437c:	a10a0701 	tstge	sl, r1, lsl #14
    4380:	7e000000 	cdpvc	0, 0, cr0, cr0, cr0, {0}
    4384:	7a00001c 	bvc	43fc <__code_start__-0x3c04>
    4388:	0000001c 	andeq	r0, r0, ip, lsl r0
    438c:	00a10407 	adceq	r0, r1, r7, lsl #8
    4390:	f7000000 			; <UNDEFINED> instruction: 0xf7000000
    4394:	04000000 	streq	r0, [r0], #-0
    4398:	00170c00 	andseq	r0, r7, r0, lsl #24
    439c:	e1010400 	tst	r1, r0, lsl #8
    43a0:	0c000004 	stceq	0, cr0, [r0], {4}
    43a4:	00000bd0 	ldrdeq	r0, [r0], -r0	; <UNPREDICTABLE>
    43a8:	000005c2 	andeq	r0, r0, r2, asr #11
    43ac:	00009bb8 			; <UNDEFINED> instruction: 0x00009bb8
    43b0:	0000002c 	andeq	r0, r0, ip, lsr #32
    43b4:	000022e0 	andeq	r2, r0, r0, ror #5
    43b8:	69050402 	stmdbvs	r5, {r1, sl}
    43bc:	0300746e 	movweq	r7, #1134	; 0x46e
    43c0:	00ca0704 	sbceq	r0, sl, r4, lsl #14
    43c4:	01030000 	mrseq	r0, (UNDEF: 3)
    43c8:	00005a06 	andeq	r5, r0, r6, lsl #20
    43cc:	05020300 	streq	r0, [r2, #-768]	; 0xfffffd00
    43d0:	0000016e 	andeq	r0, r0, lr, ror #2
    43d4:	59050403 	stmdbpl	r5, {r0, r1, sl}
    43d8:	03000001 	movweq	r0, #1
    43dc:	01540508 	cmpeq	r4, r8, lsl #10
    43e0:	01030000 	mrseq	r0, (UNDEF: 3)
    43e4:	00005808 	andeq	r5, r0, r8, lsl #16
    43e8:	07020300 	streq	r0, [r2, -r0, lsl #6]
    43ec:	00000073 	andeq	r0, r0, r3, ror r0
    43f0:	c5070403 	strgt	r0, [r7, #-1027]	; 0xfffffbfd
    43f4:	03000000 	movweq	r0, #0
    43f8:	00c00708 	sbceq	r0, r0, r8, lsl #14
    43fc:	25040000 	strcs	r0, [r4, #-0]
    4400:	7a000000 	bvc	4408 <__code_start__-0x3bf8>
    4404:	05000000 	streq	r0, [r0, #-0]
    4408:	00000025 	andeq	r0, r0, r5, lsr #32
    440c:	01620600 	cmneq	r2, r0, lsl #12
    4410:	1c020000 	stcne	0, cr0, [r2], {-0}
    4414:	0000860e 	andeq	r8, r0, lr, lsl #12
    4418:	6b040700 	blvs	106020 <__bss_end__+0xfb648>
    441c:	04000000 	streq	r0, [r0], #-0
    4420:	00000025 	andeq	r0, r0, r5, lsr #32
    4424:	0000009b 	muleq	r0, fp, r0
    4428:	00009b05 	andeq	r9, r0, r5, lsl #22
    442c:	04070000 	streq	r0, [r7], #-0
    4430:	000000a8 	andeq	r0, r0, r8, lsr #1
    4434:	61080103 	tstvs	r8, r3, lsl #2
    4438:	08000000 	stmdaeq	r0, {}	; <UNPREDICTABLE>
    443c:	000000a1 	andeq	r0, r0, r1, lsr #1
    4440:	00065006 	andeq	r5, r6, r6
    4444:	0e210200 	cdpeq	2, 2, cr0, cr1, cr0, {0}
    4448:	000000b9 	strheq	r0, [r0], -r9
    444c:	008c0407 	addeq	r0, ip, r7, lsl #8
    4450:	02090000 	andeq	r0, r9, #0, 0
    4454:	01000007 	tsteq	r0, r7
    4458:	00250503 	eoreq	r0, r5, r3, lsl #10
    445c:	9bb80000 	blls	fee04464 <__bss_end__+0xfedf9a8c>
    4460:	002c0000 	eoreq	r0, ip, r0
    4464:	9c010000 	stcls	0, cr0, [r1], {-0}
    4468:	0100610a 	tsteq	r0, sl, lsl #2
    446c:	009b1803 	addseq	r1, fp, r3, lsl #16
    4470:	1ca00000 	stcne	0, cr0, [r0]
    4474:	1c9c0000 	ldcne	0, cr0, [ip], {0}
    4478:	620a0000 	andvs	r0, sl, #0, 0
    447c:	27030100 	strcs	r0, [r3, -r0, lsl #2]
    4480:	0000009b 	muleq	r0, fp, r0
    4484:	00001cc2 	andeq	r1, r0, r2, asr #25
    4488:	00001cbe 			; <UNDEFINED> instruction: 0x00001cbe
    448c:	010f0000 	mrseq	r0, CPSR
    4490:	00040000 	andeq	r0, r4, r0
    4494:	0000179b 	muleq	r0, fp, r7
    4498:	04e10104 	strbteq	r0, [r1], #260	; 0x104
    449c:	e00c0000 	and	r0, ip, r0
    44a0:	c200000b 	andgt	r0, r0, #11, 0
    44a4:	e4000005 	str	r0, [r0], #-5
    44a8:	2000009b 	mulcs	r0, fp, r0
    44ac:	a7000000 	strge	r0, [r0, -r0]
    44b0:	02000023 	andeq	r0, r0, #35, 0	; 0x23
    44b4:	6e690504 	cdpvs	5, 6, cr0, cr9, cr4, {0}
    44b8:	04030074 	streq	r0, [r3], #-116	; 0xffffff8c
    44bc:	0000ca07 	andeq	ip, r0, r7, lsl #20
    44c0:	06010300 	streq	r0, [r1], -r0, lsl #6
    44c4:	0000005a 	andeq	r0, r0, sl, asr r0
    44c8:	6e050203 	cdpvs	2, 0, cr0, cr5, cr3, {0}
    44cc:	03000001 	movweq	r0, #1
    44d0:	01590504 	cmpeq	r9, r4, lsl #10
    44d4:	08030000 	stmdaeq	r3, {}	; <UNPREDICTABLE>
    44d8:	00015405 	andeq	r5, r1, r5, lsl #8
    44dc:	08010300 	stmdaeq	r1, {r8, r9}
    44e0:	00000058 	andeq	r0, r0, r8, asr r0
    44e4:	73070203 	movwvc	r0, #29187	; 0x7203
    44e8:	03000000 	movweq	r0, #0
    44ec:	00c50704 	sbceq	r0, r5, r4, lsl #14
    44f0:	08030000 	stmdaeq	r3, {}	; <UNPREDICTABLE>
    44f4:	0000c007 	andeq	ip, r0, r7
    44f8:	00250400 	eoreq	r0, r5, r0, lsl #8
    44fc:	007a0000 	rsbseq	r0, sl, r0
    4500:	25050000 	strcs	r0, [r5, #-0]
    4504:	00000000 	andeq	r0, r0, r0
    4508:	00016206 	andeq	r6, r1, r6, lsl #4
    450c:	0e1c0200 	cdpeq	2, 1, cr0, cr12, cr0, {0}
    4510:	00000086 	andeq	r0, r0, r6, lsl #1
    4514:	006b0407 	rsbeq	r0, fp, r7, lsl #8
    4518:	25040000 	strcs	r0, [r4, #-0]
    451c:	9b000000 	blls	4524 <__code_start__-0x3adc>
    4520:	05000000 	streq	r0, [r0, #-0]
    4524:	0000009b 	muleq	r0, fp, r0
    4528:	a8040700 	stmdage	r4, {r8, r9, sl}
    452c:	03000000 	movweq	r0, #0
    4530:	00610801 	rsbeq	r0, r1, r1, lsl #16
    4534:	a1080000 	mrsge	r0, (UNDEF: 8)
    4538:	06000000 	streq	r0, [r0], -r0
    453c:	00000650 	andeq	r0, r0, r0, asr r6
    4540:	b90e2102 	stmdblt	lr, {r1, r8, sp}
    4544:	07000000 	streq	r0, [r0, -r0]
    4548:	00008c04 	andeq	r8, r0, r4, lsl #24
    454c:	06cc0900 	strbeq	r0, [ip], r0, lsl #18
    4550:	03010000 	movweq	r0, #4096	; 0x1000
    4554:	00010c07 	andeq	r0, r1, r7, lsl #24
    4558:	009be400 	addseq	lr, fp, r0, lsl #8
    455c:	00002000 	andeq	r2, r0, r0
    4560:	0c9c0100 	ldfeqs	f0, [ip], {0}
    4564:	0a000001 	beq	4570 <__code_start__-0x3a90>
    4568:	01003173 	tsteq	r0, r3, ror r1
    456c:	010c1503 	tsteq	ip, r3, lsl #10
    4570:	50010000 	andpl	r0, r1, r0
    4574:	0032730b 	eorseq	r7, r2, fp, lsl #6
    4578:	9b260301 	blls	985184 <__bss_end__+0x97a7ac>
    457c:	e6000000 	str	r0, [r0], -r0
    4580:	e000001c 	and	r0, r0, ip, lsl r0
    4584:	0c00001c 	stceq	0, cr0, [r0], {28}
    4588:	04010073 	streq	r0, [r1], #-115	; 0xffffff8d
    458c:	00010c14 	andeq	r0, r1, r4, lsl ip
    4590:	001d1700 	andseq	r1, sp, r0, lsl #14
    4594:	001d1100 	andseq	r1, sp, r0, lsl #2
    4598:	04070000 	streq	r0, [r7], #-0
    459c:	000000a1 	andeq	r0, r0, r1, lsr #1
    45a0:	00014e00 	andeq	r4, r1, r0, lsl #28
    45a4:	51000400 	tstpl	r0, r0, lsl #8
    45a8:	04000018 	streq	r0, [r0], #-24	; 0xffffffe8
    45ac:	0004e101 	andeq	lr, r4, r1, lsl #2
    45b0:	0bf00c00 	bleq	ffc075b8 <__bss_end__+0xffbfcbe0>
    45b4:	05c20000 	strbeq	r0, [r2]
    45b8:	00d80000 	sbcseq	r0, r8, r0
    45bc:	00000000 	andeq	r0, r0, r0
    45c0:	246c0000 	strbtcs	r0, [ip], #-0
    45c4:	04020000 	streq	r0, [r2], #-0
    45c8:	746e6905 	strbtvc	r6, [lr], #-2309	; 0xfffff6fb
    45cc:	05ab0300 	streq	r0, [fp, #768]!	; 0x300
    45d0:	d1030000 	mrsle	r0, (UNDEF: 3)
    45d4:	00003817 	andeq	r3, r0, r7, lsl r8
    45d8:	07040400 	streq	r0, [r4, -r0, lsl #8]
    45dc:	000000ca 	andeq	r0, r0, sl, asr #1
    45e0:	5a060104 	bpl	1849f8 <__bss_end__+0x17a020>
    45e4:	04000000 	streq	r0, [r0], #-0
    45e8:	016e0502 	cmneq	lr, r2, lsl #10
    45ec:	04040000 	streq	r0, [r4], #-0
    45f0:	00015905 	andeq	r5, r1, r5, lsl #18
    45f4:	05080400 	streq	r0, [r8, #-1024]	; 0xfffffc00
    45f8:	00000154 	andeq	r0, r0, r4, asr r1
    45fc:	58080104 	stmdapl	r8, {r2, r8}
    4600:	05000000 	streq	r0, [r0, #-0]
    4604:	0000005b 	andeq	r0, r0, fp, asr r0
    4608:	73070204 	movwvc	r0, #29188	; 0x7204
    460c:	04000000 	streq	r0, [r0], #-0
    4610:	00c50704 	sbceq	r0, r5, r4, lsl #14
    4614:	08040000 	stmdaeq	r4, {}	; <UNPREDICTABLE>
    4618:	0000c007 	andeq	ip, r0, r7
    461c:	00250600 	eoreq	r0, r5, r0, lsl #12
    4620:	008b0000 	addeq	r0, fp, r0
    4624:	25070000 	strcs	r0, [r7, #-0]
    4628:	00000000 	andeq	r0, r0, r0
    462c:	00016208 	andeq	r6, r1, r8, lsl #4
    4630:	0e1c0200 	cdpeq	2, 1, cr0, cr12, cr0, {0}
    4634:	00000097 	muleq	r0, r7, r0
    4638:	007c0409 	rsbseq	r0, ip, r9, lsl #8
    463c:	25060000 	strcs	r0, [r6, #-0]
    4640:	ac000000 	stcge	0, cr0, [r0], {-0}
    4644:	07000000 	streq	r0, [r0, -r0]
    4648:	000000ac 	andeq	r0, r0, ip, lsr #1
    464c:	b9040900 	stmdblt	r4, {r8, fp}
    4650:	04000000 	streq	r0, [r0], #-0
    4654:	00610801 	rsbeq	r0, r1, r1, lsl #16
    4658:	b2050000 	andlt	r0, r5, #0, 0
    465c:	08000000 	stmdaeq	r0, {}	; <UNPREDICTABLE>
    4660:	00000650 	andeq	r0, r0, r0, asr r6
    4664:	ca0e2102 	bgt	38ca74 <__bss_end__+0x38209c>
    4668:	09000000 	stmdbeq	r0, {}	; <UNPREDICTABLE>
    466c:	00009d04 	andeq	r9, r0, r4, lsl #26
    4670:	071b0a00 	ldreq	r0, [fp, -r0, lsl #20]
    4674:	04010000 	streq	r0, [r1], #-0
    4678:	00002505 	andeq	r2, r0, r5, lsl #10
    467c:	009c0400 	addseq	r0, ip, r0, lsl #8
    4680:	00002c00 	andeq	r2, r0, r0, lsl #24
    4684:	4b9c0100 	blmi	fe704a8c <__bss_end__+0xfe6fa0b4>
    4688:	0b000001 	bleq	4694 <__code_start__-0x396c>
    468c:	0031735f 	eorseq	r7, r1, pc, asr r3
    4690:	ac190401 	cfldrsge	mvf0, [r9], {1}
    4694:	46000000 	strmi	r0, [r0], -r0
    4698:	4200001d 	andmi	r0, r0, #29, 0
    469c:	0b00001d 	bleq	4718 <__code_start__-0x38e8>
    46a0:	0032735f 	eorseq	r7, r2, pc, asr r3
    46a4:	ac2a0401 	cfstrsge	mvf0, [sl], #-4
    46a8:	6b000000 	blvs	46b0 <__code_start__-0x3950>
    46ac:	6700001d 	smladvs	r0, sp, r0, r0
    46b0:	0b00001d 	bleq	472c <__code_start__-0x38d4>
    46b4:	0401006e 	streq	r0, [r1], #-110	; 0xffffff92
    46b8:	00002c36 	andeq	r2, r0, r6, lsr ip
    46bc:	001d9200 	andseq	r9, sp, r0, lsl #4
    46c0:	001d8c00 	andseq	r8, sp, r0, lsl #24
    46c4:	31730c00 	cmncc	r3, r0, lsl #24
    46c8:	1a050100 	bne	144ad0 <__bss_end__+0x13a0f8>
    46cc:	0000014b 	andeq	r0, r0, fp, asr #2
    46d0:	00001dc5 	andeq	r1, r0, r5, asr #27
    46d4:	00001dbd 			; <UNDEFINED> instruction: 0x00001dbd
    46d8:	0032730c 	eorseq	r7, r2, ip, lsl #6
    46dc:	4b2c0501 	blmi	b05ae8 <__bss_end__+0xafb110>
    46e0:	01000001 	tsteq	r0, r1
    46e4:	fb00001e 	blx	4766 <__code_start__-0x389a>
    46e8:	0000001d 	andeq	r0, r0, sp, lsl r0
    46ec:	00620409 	rsbeq	r0, r2, r9, lsl #8
    46f0:	ce000000 	cdpgt	0, 0, cr0, cr0, cr0, {0}
    46f4:	04000000 	streq	r0, [r0], #-0
    46f8:	00190500 	andseq	r0, r9, r0, lsl #10
    46fc:	e1010400 	tst	r1, r0, lsl #8
    4700:	0c000004 	stceq	0, cr0, [r0], {4}
    4704:	00000c01 	andeq	r0, r0, r1, lsl #24
    4708:	000005c2 	andeq	r0, r0, r2, asr #11
    470c:	00009c30 	andeq	r9, r0, r0, lsr ip
    4710:	00000004 	andeq	r0, r0, r4
    4714:	00002591 	muleq	r0, r1, r5
    4718:	69050402 	stmdbvs	r5, {r1, sl}
    471c:	0300746e 	movweq	r7, #1134	; 0x46e
    4720:	00ca0704 	sbceq	r0, sl, r4, lsl #14
    4724:	01030000 	mrseq	r0, (UNDEF: 3)
    4728:	00005a06 	andeq	r5, r0, r6, lsl #20
    472c:	05020300 	streq	r0, [r2, #-768]	; 0xfffffd00
    4730:	0000016e 	andeq	r0, r0, lr, ror #2
    4734:	59050403 	stmdbpl	r5, {r0, r1, sl}
    4738:	03000001 	movweq	r0, #1
    473c:	01540508 	cmpeq	r4, r8, lsl #10
    4740:	01030000 	mrseq	r0, (UNDEF: 3)
    4744:	00005808 	andeq	r5, r0, r8, lsl #16
    4748:	07020300 	streq	r0, [r2, -r0, lsl #6]
    474c:	00000073 	andeq	r0, r0, r3, ror r0
    4750:	c5070403 	strgt	r0, [r7, #-1027]	; 0xfffffbfd
    4754:	03000000 	movweq	r0, #0
    4758:	00c00708 	sbceq	r0, r0, r8, lsl #14
    475c:	25040000 	strcs	r0, [r4, #-0]
    4760:	7a000000 	bvc	4768 <__code_start__-0x3898>
    4764:	05000000 	streq	r0, [r0, #-0]
    4768:	00000025 	andeq	r0, r0, r5, lsr #32
    476c:	01620600 	cmneq	r2, r0, lsl #12
    4770:	1c020000 	stcne	0, cr0, [r2], {-0}
    4774:	0000860e 	andeq	r8, r0, lr, lsl #12
    4778:	6b040700 	blvs	106380 <__bss_end__+0xfb9a8>
    477c:	04000000 	streq	r0, [r0], #-0
    4780:	00000025 	andeq	r0, r0, r5, lsr #32
    4784:	0000009b 	muleq	r0, fp, r0
    4788:	00009b05 	andeq	r9, r0, r5, lsl #22
    478c:	04070000 	streq	r0, [r7], #-0
    4790:	000000a8 	andeq	r0, r0, r8, lsr #1
    4794:	61080103 	tstvs	r8, r3, lsl #2
    4798:	08000000 	stmdaeq	r0, {}	; <UNPREDICTABLE>
    479c:	000000a1 	andeq	r0, r0, r1, lsr #1
    47a0:	00065006 	andeq	r5, r6, r6
    47a4:	0e210200 	cdpeq	2, 2, cr0, cr1, cr0, {0}
    47a8:	000000b9 	strheq	r0, [r0], -r9
    47ac:	008c0407 	addeq	r0, ip, r7, lsl #8
    47b0:	c2090000 	andgt	r0, r9, #0, 0
    47b4:	01000007 	tsteq	r0, r7
    47b8:	9c300603 	ldcls	6, cr0, [r0], #-12
    47bc:	00040000 	andeq	r0, r4, r0
    47c0:	9c010000 	stcls	0, cr0, [r1], {-0}
    47c4:	0003a500 	andeq	sl, r3, r0, lsl #10
    47c8:	7e000400 	cfcpysvc	mvf0, mvf0
    47cc:	04000019 	streq	r0, [r0], #-25	; 0xffffffe7
    47d0:	00099e01 	andeq	r9, r9, r1, lsl #28
    47d4:	0ca00c00 	stceq	12, cr0, [r0]
    47d8:	094e0000 	stmdbeq	lr, {}^	; <UNPREDICTABLE>
    47dc:	9c4c0000 	marls	acc0, r0, ip
    47e0:	011c0000 	tsteq	ip, r0
    47e4:	26450000 	strbcs	r0, [r5], -r0
    47e8:	04020000 	streq	r0, [r2], #-0
    47ec:	746e6905 	strbtvc	r6, [lr], #-2309	; 0xfffff6fb
    47f0:	07040300 	streq	r0, [r4, -r0, lsl #6]
    47f4:	000000ca 	andeq	r0, r0, sl, asr #1
    47f8:	00002c04 	andeq	r2, r0, r4, lsl #24
    47fc:	06010300 	streq	r0, [r1], -r0, lsl #6
    4800:	0000005a 	andeq	r0, r0, sl, asr r0
    4804:	6e050203 	cdpvs	2, 0, cr0, cr5, cr3, {0}
    4808:	03000001 	movweq	r0, #1
    480c:	01590504 	cmpeq	r9, r4, lsl #10
    4810:	08030000 	stmdaeq	r3, {}	; <UNPREDICTABLE>
    4814:	00015405 	andeq	r5, r1, r5, lsl #8
    4818:	08010300 	stmdaeq	r1, {r8, r9}
    481c:	00000058 	andeq	r0, r0, r8, asr r0
    4820:	73070203 	movwvc	r0, #29187	; 0x7203
    4824:	05000000 	streq	r0, [r0, #-0]
    4828:	0000018b 	andeq	r0, r0, fp, lsl #3
    482c:	6e193403 	cfmulsvs	mvf3, mvf9, mvf3
    4830:	03000000 	movweq	r0, #0
    4834:	00c50704 	sbceq	r0, r5, r4, lsl #14
    4838:	08030000 	stmdaeq	r3, {}	; <UNPREDICTABLE>
    483c:	0000c007 	andeq	ip, r0, r7
    4840:	08010300 	stmdaeq	r1, {r8, r9}
    4844:	00000061 	andeq	r0, r0, r1, rrx
    4848:	54010706 	strpl	r0, [r1], #-1798	; 0xfffff8fa
    484c:	04000000 	streq	r0, [r0], #-0
    4850:	00c20e0c 	sbceq	r0, r2, ip, lsl #28
    4854:	88070000 	stmdahi	r7, {}	; <UNPREDICTABLE>
    4858:	0000000a 	andeq	r0, r0, sl
    485c:	0008c007 	andeq	ip, r8, r7
    4860:	03070100 	movweq	r0, #28928	; 0x7100
    4864:	04000009 	streq	r0, [r0], #-9
    4868:	00091207 	andeq	r1, r9, r7, lsl #4
    486c:	21070500 	tstcs	r7, r0, lsl #10
    4870:	06000009 	streq	r0, [r0], -r9
    4874:	00093007 	andeq	r3, r9, r7
    4878:	51070700 	tstpl	r7, r0, lsl #14
    487c:	0300000a 	movweq	r0, #10
    4880:	00093f07 	andeq	r3, r9, r7, lsl #30
    4884:	05000200 	streq	r0, [r0, #-512]	; 0xfffffe00
    4888:	00000c85 	andeq	r0, r0, r5, lsl #25
    488c:	83031504 	movwhi	r1, #13572	; 0x3504
    4890:	08000000 	stmdaeq	r0, {}	; <UNPREDICTABLE>
    4894:	00000c30 	andeq	r0, r0, r0, lsr ip
    4898:	33171d01 	tstcc	r7, #64	; 0x40
    489c:	1c000000 	stcne	0, cr0, [r0], {-0}
    48a0:	08202000 	stmdaeq	r0!, {sp}
    48a4:	00000c26 	andeq	r0, r0, r6, lsr #24
    48a8:	33171e01 	tstcc	r7, #1, 28
    48ac:	28000000 	stmdacs	r0, {}	; <UNPREDICTABLE>
    48b0:	08202000 	stmdaeq	r0!, {sp}
    48b4:	00000c91 	muleq	r0, r1, ip
    48b8:	33171f01 	tstcc	r7, #1, 30
    48bc:	34000000 	strcc	r0, [r0], #-0
    48c0:	09202000 	stmdbeq	r0!, {sp}
    48c4:	00000c4f 	andeq	r0, r0, pc, asr #24
    48c8:	25055501 	strcs	r5, [r5, #-1281]	; 0xfffffaff
    48cc:	34000000 	strcc	r0, [r0], #-0
    48d0:	3400009d 	strcc	r0, [r0], #-157	; 0xffffff63
    48d4:	01000000 	mrseq	r0, (UNDEF: 0)
    48d8:	00016e9c 	muleq	r1, ip, lr
    48dc:	69700a00 	ldmdbvs	r0!, {r9, fp}^
    48e0:	5501006e 	strpl	r0, [r1, #-110]	; 0xffffff92
    48e4:	00002c18 	andeq	r2, r0, r8, lsl ip
    48e8:	001e3400 	andseq	r3, lr, r0, lsl #8
    48ec:	001e2c00 	andseq	r2, lr, r0, lsl #24
    48f0:	0c9b0b00 	vldmiaeq	fp, {d0-d-1}
    48f4:	58010000 	stmdapl	r1, {}	; <UNPREDICTABLE>
    48f8:	00002c0e 	andeq	r2, r0, lr, lsl #24
    48fc:	001e7400 	andseq	r7, lr, r0, lsl #8
    4900:	001e6e00 	andseq	r6, lr, r0, lsl #28
    4904:	666f0c00 	strbtvs	r0, [pc], -r0, lsl #24
    4908:	59010066 	stmdbpl	r1, {r1, r2, r5, r6}
    490c:	00002c0e 	andeq	r2, r0, lr, lsl #24
    4910:	001eb400 	andseq	fp, lr, r0, lsl #8
    4914:	001eb200 	andseq	fp, lr, r0, lsl #4
    4918:	9d500d00 	ldclls	13, cr0, [r0, #-0]
    491c:	03900000 	orrseq	r0, r0, #0, 0
    4920:	010e0000 	mrseq	r0, (UNDEF: 14)
    4924:	01f30b50 	mvnseq	r0, r0, asr fp
    4928:	23253550 			; <UNDEFINED> instruction: 0x23253550
    492c:	818080b4 	strhhi	r8, [r0, r4]
    4930:	0f000002 	svceq	0x00000002
    4934:	00000c3a 	andeq	r0, r0, sl, lsr ip
    4938:	18064e01 	stmdane	r6, {r0, r9, sl, fp, lr}
    493c:	1c00009d 	stcne	0, cr0, [r0], {157}	; 0x9d
    4940:	01000000 	mrseq	r0, (UNDEF: 0)
    4944:	0001c99c 	muleq	r1, ip, r9
    4948:	69700a00 	ldmdbvs	r0!, {r9, fp}^
    494c:	4e01006e 	cdpmi	0, 0, cr0, cr1, cr14, {3}
    4950:	00002c1a 	andeq	r2, r0, sl, lsl ip
    4954:	001ecf00 	andseq	ip, lr, r0, lsl #30
    4958:	001ec700 	andseq	ip, lr, r0, lsl #14
    495c:	00760a00 	rsbseq	r0, r6, r0, lsl #20
    4960:	2c284e01 	stccs	14, cr4, [r8], #-4
    4964:	11000000 	mrsne	r0, (UNDEF: 0)
    4968:	0900001f 	stmdbeq	r0, {r0, r1, r2, r3, r4}
    496c:	1000001f 	andne	r0, r0, pc, lsl r0
    4970:	00009d28 	andeq	r9, r0, r8, lsr #26
    4974:	00000251 	andeq	r0, r0, r1, asr r2
    4978:	000001bf 			; <UNDEFINED> instruction: 0x000001bf
    497c:	0350010e 	cmpeq	r0, #-2147483645	; 0x80000003
    4980:	005001f3 	ldrsheq	r0, [r0], #-19	; 0xffffffed
    4984:	009d3011 	addseq	r3, sp, r1, lsl r0
    4988:	00020a00 	andeq	r0, r2, r0, lsl #20
    498c:	590f0000 	stmdbpl	pc, {}	; <UNPREDICTABLE>
    4990:	0100000c 	tsteq	r0, ip
    4994:	9d080649 	stcls	6, cr0, [r8, #-292]	; 0xfffffedc
    4998:	00100000 	andseq	r0, r0, r0
    499c:	9c010000 	stcls	0, cr0, [r1], {-0}
    49a0:	0000020a 	andeq	r0, r0, sl, lsl #4
    49a4:	6e69700a 	cdpvs	0, 6, cr7, cr9, cr10, {0}
    49a8:	1e490100 	dvfnee	f0, f1, f0
    49ac:	0000002c 	andeq	r0, r0, ip, lsr #32
    49b0:	00001f4f 	andeq	r1, r0, pc, asr #30
    49b4:	00001f4b 	andeq	r1, r0, fp, asr #30
    49b8:	009d140d 	addseq	r1, sp, sp, lsl #8
    49bc:	0002d900 	andeq	sp, r2, r0, lsl #18
    49c0:	50010e00 	andpl	r0, r1, r0, lsl #28
    49c4:	5001f303 	andpl	pc, r1, r3, lsl #6
    49c8:	0151010e 	cmpeq	r1, lr, lsl #2
    49cc:	0f000030 	svceq	0x00000030
    49d0:	00000c68 	andeq	r0, r0, r8, ror #24
    49d4:	e4064201 	str	r4, [r6], #-513	; 0xfffffdff
    49d8:	2400009c 	strcs	r0, [r0], #-156	; 0xffffff64
    49dc:	01000000 	mrseq	r0, (UNDEF: 0)
    49e0:	0002519c 	muleq	r2, ip, r1
    49e4:	69700a00 	ldmdbvs	r0!, {r9, fp}^
    49e8:	4201006e 	andmi	r0, r1, #110, 0	; 0x6e
    49ec:	00002c1c 	andeq	r2, r0, ip, lsl ip
    49f0:	001f7400 	andseq	r7, pc, r0, lsl #8
    49f4:	001f7000 	andseq	r7, pc, r0
    49f8:	9d000d00 	stcls	13, cr0, [r0, #-0]
    49fc:	039c0000 	orrseq	r0, ip, #0, 0
    4a00:	010e0000 	mrseq	r0, (UNDEF: 14)
    4a04:	280c0550 	stmdacs	ip, {r4, r6, r8, sl}
    4a08:	0e202000 	cdpeq	0, 2, cr2, cr0, cr0, {0}
    4a0c:	31055101 	tstcc	r5, r1, lsl #2
    4a10:	245001f3 	ldrbcs	r0, [r0], #-499	; 0xfffffe0d
    4a14:	a70f0000 	strge	r0, [pc, -r0]
    4a18:	0100000c 	tsteq	r0, ip
    4a1c:	9cc0063b 	stclls	6, cr0, [r0], {59}	; 0x3b
    4a20:	00240000 	eoreq	r0, r4, r0
    4a24:	9c010000 	stcls	0, cr0, [r1], {-0}
    4a28:	00000298 	muleq	r0, r8, r2
    4a2c:	6e69700a 	cdpvs	0, 6, cr7, cr9, cr10, {0}
    4a30:	1b3b0100 	blne	ec4e38 <__bss_end__+0xeba460>
    4a34:	0000002c 	andeq	r0, r0, ip, lsr #32
    4a38:	00001f99 	muleq	r0, r9, pc	; <UNPREDICTABLE>
    4a3c:	00001f95 	muleq	r0, r5, pc	; <UNPREDICTABLE>
    4a40:	009cdc0d 	addseq	sp, ip, sp, lsl #24
    4a44:	00039c00 	andeq	r9, r3, r0, lsl #24
    4a48:	50010e00 	andpl	r0, r1, r0, lsl #28
    4a4c:	001c0c05 	andseq	r0, ip, r5, lsl #24
    4a50:	010e2020 	tsteq	lr, r0, lsr #32
    4a54:	f3310551 	vqrshl.u64	q0, <illegal reg q0.5>, <illegal reg q0.5>
    4a58:	00245001 	eoreq	r5, r4, r1
    4a5c:	0c750f00 	ldcleq	15, cr0, [r5], #-0
    4a60:	36010000 	strcc	r0, [r1], -r0
    4a64:	009cb006 	addseq	fp, ip, r6
    4a68:	00001000 	andeq	r1, r0, r0
    4a6c:	d99c0100 	ldmible	ip, {r8}
    4a70:	0a000002 	beq	4a80 <__code_start__-0x3580>
    4a74:	006e6970 	rsbeq	r6, lr, r0, ror r9
    4a78:	2c1f3601 	ldccs	6, cr3, [pc], {1}
    4a7c:	be000000 	cdplt	0, 0, cr0, cr0, cr0, {0}
    4a80:	ba00001f 	blt	4b04 <__code_start__-0x34fc>
    4a84:	0d00001f 	stceq	0, cr0, [r0, #-124]	; 0xffffff84
    4a88:	00009cbc 			; <UNDEFINED> instruction: 0x00009cbc
    4a8c:	000002d9 	ldrdeq	r0, [r0], -r9
    4a90:	0350010e 	cmpeq	r0, #-2147483645	; 0x80000003
    4a94:	0e5001f3 	mrceq	1, 2, r0, cr0, cr3, {7}
    4a98:	31015101 	tstcc	r1, r1, lsl #2
    4a9c:	980f0000 	stmdals	pc, {}	; <UNPREDICTABLE>
    4aa0:	0100000a 	tsteq	r0, sl
    4aa4:	9c4c0628 	mcrrls	6, 2, r0, ip, cr8
    4aa8:	00640000 	rsbeq	r0, r4, r0
    4aac:	9c010000 	stcls	0, cr0, [r1], {-0}
    4ab0:	00000374 	andeq	r0, r0, r4, ror r3
    4ab4:	6e69700a 	cdpvs	0, 6, cr7, cr9, cr10, {0}
    4ab8:	21280100 			; <UNDEFINED> instruction: 0x21280100
    4abc:	0000002c 	andeq	r0, r0, ip, lsr #32
    4ac0:	00001fe3 	andeq	r1, r0, r3, ror #31
    4ac4:	00001fdf 	ldrdeq	r1, [r0], -pc	; <UNPREDICTABLE>
    4ac8:	00009412 	andeq	r9, r0, r2, lsl r4
    4acc:	32280100 	eorcc	r0, r8, #0
    4ad0:	000000c2 	andeq	r0, r0, r2, asr #1
    4ad4:	00002008 	andeq	r2, r0, r8
    4ad8:	00002004 	andeq	r2, r0, r4
    4adc:	66666f0c 	strbtvs	r6, [r6], -ip, lsl #30
    4ae0:	0e2d0100 	sufeqe	f0, f5, f0
    4ae4:	0000002c 	andeq	r0, r0, ip, lsr #32
    4ae8:	0000202b 	andeq	r2, r0, fp, lsr #32
    4aec:	00002029 	andeq	r2, r0, r9, lsr #32
    4af0:	0100670c 	tsteq	r0, ip, lsl #14
    4af4:	002c0e2e 	eoreq	r0, ip, lr, lsr #28
    4af8:	20400000 	subcs	r0, r0, r0
    4afc:	203e0000 	eorscs	r0, lr, r0
    4b00:	760c0000 	strvc	r0, [ip], -r0
    4b04:	0e300100 	rsfeqs	f0, f0, f0
    4b08:	0000002c 	andeq	r0, r0, ip, lsr #32
    4b0c:	0000205b 	andeq	r2, r0, fp, asr r0
    4b10:	00002053 	andeq	r2, r0, r3, asr r0
    4b14:	009c9410 	addseq	r9, ip, r0, lsl r4
    4b18:	00039000 	andeq	r9, r3, r0
    4b1c:	00036300 	andeq	r6, r3, r0, lsl #6
    4b20:	50010e00 	andpl	r0, r1, r0, lsl #28
    4b24:	00007602 	andeq	r7, r0, r2, lsl #12
    4b28:	009ca80d 	addseq	sl, ip, sp, lsl #16
    4b2c:	00039c00 	andeq	r9, r3, r0, lsl #24
    4b30:	50010e00 	andpl	r0, r1, r0, lsl #28
    4b34:	00007602 	andeq	r7, r0, r2, lsl #12
    4b38:	0c451300 	mcrreq	3, 0, r1, r5, cr0
    4b3c:	b6020000 	strlt	r0, [r2], -r0
    4b40:	00006218 	andeq	r6, r0, r8, lsl r2
    4b44:	03900300 	orrseq	r0, r0, #0, 6
    4b48:	78140000 	ldmdavc	r4, {}	; <UNPREDICTABLE>
    4b4c:	2bb60200 	blcs	fed85354 <__bss_end__+0xfed7a97c>
    4b50:	00000062 	andeq	r0, r0, r2, rrx
    4b54:	086d1500 	stmdaeq	sp!, {r8, sl, ip}^
    4b58:	086d0000 	stmdaeq	sp!, {}^	; <UNPREDICTABLE>
    4b5c:	c7020000 	strgt	r0, [r2, -r0]
    4b60:	07d9150a 	ldrbeq	r1, [r9, sl, lsl #10]
    4b64:	07d90000 	ldrbeq	r0, [r9, r0]
    4b68:	b2020000 	andlt	r0, r2, #0, 0
    4b6c:	Address 0x0000000000004b6c is out of bounds.


Disassembly of section .debug_abbrev:

00000000 <.debug_abbrev>:
       0:	25011101 	strcs	r1, [r1, #-257]	; 0xfffffeff
       4:	030b130e 	movweq	r1, #45838	; 0xb30e
       8:	110e1b0e 	tstne	lr, lr, lsl #22
       c:	10061201 	andne	r1, r6, r1, lsl #4
      10:	02000017 	andeq	r0, r0, #23, 0
      14:	0b0b0024 	bleq	2c00ac <__bss_end__+0x2b56d4>
      18:	08030b3e 	stmdaeq	r3, {r1, r2, r3, r4, r5, r8, r9, fp}
      1c:	24030000 	strcs	r0, [r3], #-0
      20:	3e0b0b00 	vmlacc.f64	d0, d11, d0
      24:	000e030b 	andeq	r0, lr, fp, lsl #6
      28:	00160400 	andseq	r0, r6, r0, lsl #8
      2c:	0b3a0e03 	bleq	e83840 <__bss_end__+0xe78e68>
      30:	0b390b3b 	bleq	e42d24 <__bss_end__+0xe3834c>
      34:	00001349 	andeq	r1, r0, r9, asr #6
      38:	27011505 	strcs	r1, [r1, -r5, lsl #10]
      3c:	01134919 	tsteq	r3, r9, lsl r9
      40:	06000013 			; <UNDEFINED> instruction: 0x06000013
      44:	13490005 	movtne	r0, #36869	; 0x9005
      48:	34070000 	strcc	r0, [r7], #-0
      4c:	3a0e0300 	bcc	380c54 <__bss_end__+0x37627c>
      50:	390b3b0b 	stmdbcc	fp, {r0, r1, r3, r8, r9, fp, ip, sp}
      54:	3f13490b 	svccc	0x0013490b
      58:	00193c19 	andseq	r3, r9, r9, lsl ip
      5c:	000f0800 	andeq	r0, pc, r0, lsl #16
      60:	13490b0b 	movtne	r0, #39691	; 0x9b0b
      64:	26090000 	strcs	r0, [r9], -r0
      68:	00134900 	andseq	r4, r3, r0, lsl #18
      6c:	01130a00 	tsteq	r3, r0, lsl #20
      70:	0b3a0b0b 	bleq	e82ca4 <__bss_end__+0xe782cc>
      74:	0b390b3b 	bleq	e42d68 <__bss_end__+0xe38390>
      78:	00001301 	andeq	r1, r0, r1, lsl #6
      7c:	03000d0b 	movweq	r0, #3339	; 0xd0b
      80:	3b0b3a0e 	blcc	2ce8c0 <__bss_end__+0x2c3ee8>
      84:	490b390b 	stmdbmi	fp, {r0, r1, r3, r8, fp, ip, sp}
      88:	000b3813 	andeq	r3, fp, r3, lsl r8
      8c:	01130c00 	tsteq	r3, r0, lsl #24
      90:	0b0b0e03 	bleq	2c38a4 <__bss_end__+0x2b8ecc>
      94:	0b3b0b3a 	bleq	ec2d84 <__bss_end__+0xeb83ac>
      98:	13010b39 	movwne	r0, #6969	; 0x1b39
      9c:	340d0000 	strcc	r0, [sp], #-0
      a0:	3a0e0300 	bcc	380ca8 <__bss_end__+0x3762d0>
      a4:	390b3b0b 	stmdbcc	fp, {r0, r1, r3, r8, r9, fp, ip, sp}
      a8:	0013490b 	andseq	r4, r3, fp, lsl #18
      ac:	00340e00 	eorseq	r0, r4, r0, lsl #28
      b0:	0b3a0e03 	bleq	e838c4 <__bss_end__+0xe78eec>
      b4:	0b390b3b 	bleq	e42da8 <__bss_end__+0xe383d0>
      b8:	0b1c1349 	bleq	704de4 <__bss_end__+0x6fa40c>
      bc:	0f0f0000 	svceq	0x000f0000
      c0:	000b0b00 	andeq	r0, fp, r0, lsl #22
      c4:	012e1000 			; <UNDEFINED> instruction: 0x012e1000
      c8:	0e03193f 			; <UNDEFINED> instruction: 0x0e03193f
      cc:	0b3b0b3a 	bleq	ec2dbc <__bss_end__+0xeb83e4>
      d0:	19270b39 	stmdbne	r7!, {r0, r3, r4, r5, r8, r9, fp}
      d4:	06120111 			; <UNDEFINED> instruction: 0x06120111
      d8:	42971840 	addsmi	r1, r7, #64, 16	; 0x400000
      dc:	00130119 	andseq	r0, r3, r9, lsl r1
      e0:	82891100 	addhi	r1, r9, #0
      e4:	01110101 	tsteq	r1, r1, lsl #2
      e8:	13011331 	movwne	r1, #4913	; 0x1331
      ec:	8a120000 	bhi	4800f4 <__bss_end__+0x47571c>
      f0:	02000182 	andeq	r0, r0, #-2147483616	; 0x80000020
      f4:	18429118 	stmdane	r2, {r3, r4, r8, ip, pc}^
      f8:	89130000 	ldmdbhi	r3, {}	; <UNPREDICTABLE>
      fc:	11000182 	smlabbne	r0, r2, r1, r0
     100:	00133101 	andseq	r3, r3, r1, lsl #2
     104:	82891400 	addhi	r1, r9, #0, 8
     108:	01110101 	tsteq	r1, r1, lsl #2
     10c:	00001331 	andeq	r1, r0, r1, lsr r3
     110:	3f012e15 	svccc	0x00012e15
     114:	3a0e0319 	bcc	380d80 <__bss_end__+0x3763a8>
     118:	390b3b0b 	stmdbcc	fp, {r0, r1, r3, r8, r9, fp, ip, sp}
     11c:	4919270b 	ldmdbmi	r9, {r0, r1, r3, r8, r9, sl, sp}
     120:	12011113 	andne	r1, r1, #-1073741820	; 0xc0000004
     124:	97184006 	ldrls	r4, [r8, -r6]
     128:	13011942 	movwne	r1, #6466	; 0x1942
     12c:	0d160000 	ldceq	0, cr0, [r6, #-0]
     130:	3a080300 	bcc	200d38 <__bss_end__+0x1f6360>
     134:	390b3b0b 	stmdbcc	fp, {r0, r1, r3, r8, r9, fp, ip, sp}
     138:	3813490b 	ldmdacc	r3, {r0, r1, r3, r8, fp, lr}
     13c:	1700000b 	strne	r0, [r0, -fp]
     140:	08030034 	stmdaeq	r3, {r2, r4, r5}
     144:	0b3b0b3a 	bleq	ec2e34 <__bss_end__+0xeb845c>
     148:	13490b39 	movtne	r0, #39737	; 0x9b39
     14c:	42b71702 	adcsmi	r1, r7, #524288	; 0x80000
     150:	18000017 	stmdane	r0, {r0, r1, r2, r4}
     154:	0e030034 	mcreq	0, 0, r0, cr3, cr4, {1}
     158:	19341349 	ldmdbne	r4!, {r0, r3, r6, r8, r9, ip}
     15c:	00001802 	andeq	r1, r0, r2, lsl #16
     160:	55010b19 	strpl	r0, [r1, #-2841]	; 0xfffff4e7
     164:	00130117 	andseq	r0, r3, r7, lsl r1
     168:	010b1a00 	tsteq	fp, r0, lsl #20
     16c:	00001755 	andeq	r1, r0, r5, asr r7
     170:	31011d1b 	tstcc	r1, fp, lsl sp
     174:	b8015213 	stmdalt	r1, {r0, r1, r4, r9, ip, lr}
     178:	01110b42 	tsteq	r1, r2, asr #22
     17c:	0b580612 	bleq	16019cc <__bss_end__+0x15f6ff4>
     180:	0b570b59 	bleq	15c2eec <__bss_end__+0x15b8514>
     184:	00001301 	andeq	r1, r0, r1, lsl #6
     188:	3100051c 	tstcc	r0, ip, lsl r5
     18c:	b7170213 			; <UNDEFINED> instruction: 0xb7170213
     190:	00001742 	andeq	r1, r0, r2, asr #14
     194:	4901011d 	stmdbmi	r1, {r0, r2, r3, r4, r8}
     198:	00130113 	andseq	r0, r3, r3, lsl r1
     19c:	00211e00 	eoreq	r1, r1, r0, lsl #28
     1a0:	0b2f1349 	bleq	bc4ecc <__bss_end__+0xbba4f4>
     1a4:	2e1f0000 	cdpcs	0, 1, cr0, cr15, cr0, {0}
     1a8:	3a0e0301 	bcc	380db4 <__bss_end__+0x3763dc>
     1ac:	390b3b0b 	stmdbcc	fp, {r0, r1, r3, r8, r9, fp, ip, sp}
     1b0:	4919270b 	ldmdbmi	r9, {r0, r1, r3, r8, r9, sl, sp}
     1b4:	010b2013 	tsteq	fp, r3, lsl r0
     1b8:	20000013 	andcs	r0, r0, r3, lsl r0
     1bc:	0e030005 	cdpeq	0, 0, cr0, cr3, cr5, {0}
     1c0:	0b3b0b3a 	bleq	ec2eb0 <__bss_end__+0xeb84d8>
     1c4:	13490b39 	movtne	r0, #39737	; 0x9b39
     1c8:	2e210000 	cdpcs	0, 2, cr0, cr1, cr0, {0}
     1cc:	3c193f00 	ldccc	15, cr3, [r9], {-0}
     1d0:	030e6e19 	movweq	r6, #60953	; 0xee19
     1d4:	3b0b3a0e 	blcc	2cea14 <__bss_end__+0x2c403c>
     1d8:	000b390b 	andeq	r3, fp, fp, lsl #18
     1dc:	00362200 	eorseq	r2, r6, r0, lsl #4
     1e0:	00001802 	andeq	r1, r0, r2, lsl #16
     1e4:	01110100 	tsteq	r1, r0, lsl #2
     1e8:	0b130e25 	bleq	4c3a84 <__bss_end__+0x4b90ac>
     1ec:	0e1b0e03 	cdpeq	14, 1, cr0, cr11, cr3, {0}
     1f0:	06120111 			; <UNDEFINED> instruction: 0x06120111
     1f4:	00001710 	andeq	r1, r0, r0, lsl r7
     1f8:	0b002402 	bleq	9208 <va_printk+0x288>
     1fc:	030b3e0b 	movweq	r3, #48651	; 0xbe0b
     200:	03000008 	movweq	r0, #8
     204:	0b0b0024 	bleq	2c029c <__bss_end__+0x2b58c4>
     208:	0e030b3e 	vmoveq.16	d3[0], r0
     20c:	16040000 	strne	r0, [r4], -r0
     210:	3a0e0300 	bcc	380e18 <__bss_end__+0x376440>
     214:	390b3b0b 	stmdbcc	fp, {r0, r1, r3, r8, r9, fp, ip, sp}
     218:	0013490b 	andseq	r4, r3, fp, lsl #18
     21c:	01150500 	tsteq	r5, r0, lsl #10
     220:	13491927 	movtne	r1, #39207	; 0x9927
     224:	00001301 	andeq	r1, r0, r1, lsl #6
     228:	49000506 	stmdbmi	r0, {r1, r2, r8, sl}
     22c:	07000013 	smladeq	r0, r3, r0, r0
     230:	0e030034 	mcreq	0, 0, r0, cr3, cr4, {1}
     234:	0b3b0b3a 	bleq	ec2f24 <__bss_end__+0xeb854c>
     238:	13490b39 	movtne	r0, #39737	; 0x9b39
     23c:	193c193f 	ldmdbne	ip!, {r0, r1, r2, r3, r4, r5, r8, fp, ip}
     240:	0f080000 	svceq	0x00080000
     244:	490b0b00 	stmdbmi	fp, {r8, r9, fp}
     248:	09000013 	stmdbeq	r0, {r0, r1, r4}
     24c:	13490026 	movtne	r0, #36902	; 0x9026
     250:	130a0000 	movwne	r0, #40960	; 0xa000
     254:	3a0b0b01 	bcc	2c2e60 <__bss_end__+0x2b8488>
     258:	390b3b0b 	stmdbcc	fp, {r0, r1, r3, r8, r9, fp, ip, sp}
     25c:	0013010b 	andseq	r0, r3, fp, lsl #2
     260:	000d0b00 	andeq	r0, sp, r0, lsl #22
     264:	0b3a0e03 	bleq	e83a78 <__bss_end__+0xe790a0>
     268:	0b390b3b 	bleq	e42f5c <__bss_end__+0xe38584>
     26c:	0b381349 	bleq	e04f98 <__bss_end__+0xdfa5c0>
     270:	040c0000 	streq	r0, [ip], #-0
     274:	0b0b3e01 	bleq	2cfa80 <__bss_end__+0x2c50a8>
     278:	3a13490b 	bcc	4d26ac <__bss_end__+0x4c7cd4>
     27c:	390b3b0b 	stmdbcc	fp, {r0, r1, r3, r8, r9, fp, ip, sp}
     280:	0013010b 	andseq	r0, r3, fp, lsl #2
     284:	00280d00 	eoreq	r0, r8, r0, lsl #26
     288:	0b1c0e03 	bleq	703a9c <__bss_end__+0x6f90c4>
     28c:	130e0000 	movwne	r0, #57344	; 0xe000
     290:	0b0e0301 	bleq	380e9c <__bss_end__+0x3764c4>
     294:	3b0b3a0b 	blcc	2ceac8 <__bss_end__+0x2c40f0>
     298:	010b390b 	tsteq	fp, fp, lsl #18
     29c:	0f000013 	svceq	0x00000013
     2a0:	0e030034 	mcreq	0, 0, r0, cr3, cr4, {1}
     2a4:	0b3b0b3a 	bleq	ec2f94 <__bss_end__+0xeb85bc>
     2a8:	13490b39 	movtne	r0, #39737	; 0x9b39
     2ac:	00001802 	andeq	r1, r0, r2, lsl #16
     2b0:	0b000f10 	bleq	3ef8 <__code_start__-0x4108>
     2b4:	1100000b 	tstne	r0, fp
     2b8:	193f012e 	ldmdbne	pc!, {r1, r2, r3, r5, r8}	; <UNPREDICTABLE>
     2bc:	0b3a0e03 	bleq	e83ad0 <__bss_end__+0xe790f8>
     2c0:	0b390b3b 	bleq	e42fb4 <__bss_end__+0xe385dc>
     2c4:	13491927 	movtne	r1, #39207	; 0x9927
     2c8:	06120111 			; <UNDEFINED> instruction: 0x06120111
     2cc:	42971840 	addsmi	r1, r7, #64, 16	; 0x400000
     2d0:	00130119 	andseq	r0, r3, r9, lsl r1
     2d4:	00051200 	andeq	r1, r5, r0, lsl #4
     2d8:	0b3a0e03 	bleq	e83aec <__bss_end__+0xe79114>
     2dc:	0b390b3b 	bleq	e42fd0 <__bss_end__+0xe385f8>
     2e0:	17021349 	strne	r1, [r2, -r9, asr #6]
     2e4:	001742b7 			; <UNDEFINED> instruction: 0x001742b7
     2e8:	00051300 	andeq	r1, r5, r0, lsl #6
     2ec:	0b3a0803 	bleq	e82300 <__bss_end__+0xe77928>
     2f0:	0b390b3b 	bleq	e42fe4 <__bss_end__+0xe3860c>
     2f4:	18021349 	stmdane	r2, {r0, r3, r6, r8, r9, ip}
     2f8:	34140000 	ldrcc	r0, [r4], #-0
     2fc:	3a080300 	bcc	200f04 <__bss_end__+0x1f652c>
     300:	390b3b0b 	stmdbcc	fp, {r0, r1, r3, r8, r9, fp, ip, sp}
     304:	0213490b 	andseq	r4, r3, #180224	; 0x2c000
     308:	1742b717 	smlaldne	fp, r2, r7, r7
     30c:	89150000 	ldmdbhi	r5, {}	; <UNPREDICTABLE>
     310:	11010182 	smlabbne	r1, r2, r1, r0
     314:	01133101 	tsteq	r3, r1, lsl #2
     318:	16000013 			; <UNDEFINED> instruction: 0x16000013
     31c:	0001828a 	andeq	r8, r1, sl, lsl #5
     320:	42911802 	addsmi	r1, r1, #131072	; 0x20000
     324:	17000018 	smladne	r0, r8, r0, r0
     328:	01018289 	smlabbeq	r1, r9, r2, r8
     32c:	13310111 	teqne	r1, #1073741828	; 0x40000004
     330:	2e180000 	cdpcs	0, 1, cr0, cr8, cr0, {0}
     334:	03193f01 	tsteq	r9, #1, 30
     338:	3b0b3a0e 	blcc	2ceb78 <__bss_end__+0x2c41a0>
     33c:	270b390b 	strcs	r3, [fp, -fp, lsl #18]
     340:	12011119 	andne	r1, r1, #1073741830	; 0x40000006
     344:	97184006 	ldrls	r4, [r8, -r6]
     348:	13011942 	movwne	r1, #6466	; 0x1942
     34c:	34190000 	ldrcc	r0, [r9], #-0
     350:	490e0300 	stmdbmi	lr, {r8, r9}
     354:	02193413 	andseq	r3, r9, #318767104	; 0x13000000
     358:	1a000018 	bne	3c0 <__code_start__-0x7c40>
     35c:	00018289 	andeq	r8, r1, r9, lsl #5
     360:	13310111 	teqne	r1, #1073741828	; 0x40000004
     364:	011b0000 	tsteq	fp, r0
     368:	01134901 	tsteq	r3, r1, lsl #18
     36c:	1c000013 	stcne	0, cr0, [r0], {19}
     370:	13490021 	movtne	r0, #36897	; 0x9021
     374:	00000b2f 	andeq	r0, r0, pc, lsr #22
     378:	0300051d 	movweq	r0, #1309	; 0x51d
     37c:	3b0b3a08 	blcc	2ceba4 <__bss_end__+0x2c41cc>
     380:	490b390b 	stmdbmi	fp, {r0, r1, r3, r8, fp, ip, sp}
     384:	b7170213 			; <UNDEFINED> instruction: 0xb7170213
     388:	00001742 	andeq	r1, r0, r2, asr #14
     38c:	11010b1e 	tstne	r1, lr, lsl fp
     390:	00061201 	andeq	r1, r6, r1, lsl #4
     394:	00341f00 	eorseq	r1, r4, r0, lsl #30
     398:	0b3a0e03 	bleq	e83bac <__bss_end__+0xe791d4>
     39c:	0b390b3b 	bleq	e43090 <__bss_end__+0xe386b8>
     3a0:	17021349 	strne	r1, [r2, -r9, asr #6]
     3a4:	001742b7 			; <UNDEFINED> instruction: 0x001742b7
     3a8:	011d2000 	tsteq	sp, r0
     3ac:	01521331 	cmpeq	r2, r1, lsr r3
     3b0:	110b42b8 			; <UNDEFINED> instruction: 0x110b42b8
     3b4:	58061201 	stmdapl	r6, {r0, r9, ip}
     3b8:	570b590b 	strpl	r5, [fp, -fp, lsl #18]
     3bc:	0013010b 	andseq	r0, r3, fp, lsl #2
     3c0:	00052100 	andeq	r2, r5, r0, lsl #2
     3c4:	17021331 	smladxne	r2, r1, r3, r1
     3c8:	001742b7 			; <UNDEFINED> instruction: 0x001742b7
     3cc:	002e2200 	eoreq	r2, lr, r0, lsl #4
     3d0:	0e03193f 			; <UNDEFINED> instruction: 0x0e03193f
     3d4:	0b3b0b3a 	bleq	ec30c4 <__bss_end__+0xeb86ec>
     3d8:	19270b39 	stmdbne	r7!, {r0, r3, r4, r5, r8, r9, fp}
     3dc:	01111349 	tsteq	r1, r9, asr #6
     3e0:	18400612 	stmdane	r0, {r1, r4, r9, sl}^
     3e4:	00194297 	mulseq	r9, r7, r2
     3e8:	012e2300 			; <UNDEFINED> instruction: 0x012e2300
     3ec:	0b3a0e03 	bleq	e83c00 <__bss_end__+0xe79228>
     3f0:	0b390b3b 	bleq	e430e4 <__bss_end__+0xe3870c>
     3f4:	01111927 	tsteq	r1, r7, lsr #18
     3f8:	18400612 	stmdane	r0, {r1, r4, r9, sl}^
     3fc:	01194297 			; <UNDEFINED> instruction: 0x01194297
     400:	24000013 	strcs	r0, [r0], #-19	; 0xffffffed
     404:	1755010b 	ldrbne	r0, [r5, -fp, lsl #2]
     408:	2e250000 	cdpcs	0, 2, cr0, cr5, cr0, {0}
     40c:	3a0e0301 	bcc	381018 <__bss_end__+0x376640>
     410:	390b3b0b 	stmdbcc	fp, {r0, r1, r3, r8, r9, fp, ip, sp}
     414:	4919270b 	ldmdbmi	r9, {r0, r1, r3, r8, r9, sl, sp}
     418:	010b2013 	tsteq	fp, r3, lsl r0
     41c:	26000013 			; <UNDEFINED> instruction: 0x26000013
     420:	08030005 	stmdaeq	r3, {r0, r2}
     424:	0b3b0b3a 	bleq	ec3114 <__bss_end__+0xeb873c>
     428:	13490b39 	movtne	r0, #39737	; 0x9b39
     42c:	2e270000 	cdpcs	0, 2, cr0, cr7, cr0, {0}
     430:	3c193f00 	ldccc	15, cr3, [r9], {-0}
     434:	030e6e19 	movweq	r6, #60953	; 0xee19
     438:	3b0b3a0e 	blcc	2cec78 <__bss_end__+0x2c42a0>
     43c:	000b390b 	andeq	r3, fp, fp, lsl #18
     440:	11010000 	mrsne	r0, (UNDEF: 1)
     444:	130e2501 	movwne	r2, #58625	; 0xe501
     448:	1b0e030b 	blne	38107c <__bss_end__+0x3766a4>
     44c:	1201110e 	andne	r1, r1, #-2147483645	; 0x80000003
     450:	00171006 	andseq	r1, r7, r6
     454:	00240200 	eoreq	r0, r4, r0, lsl #4
     458:	0b3e0b0b 	bleq	f8308c <__bss_end__+0xf786b4>
     45c:	00000803 	andeq	r0, r0, r3, lsl #16
     460:	0b002403 	bleq	9474 <_cstart+0x10>
     464:	030b3e0b 	movweq	r3, #48651	; 0xbe0b
     468:	0400000e 	streq	r0, [r0], #-14
     46c:	13490026 	movtne	r0, #36902	; 0x9026
     470:	16050000 	strne	r0, [r5], -r0
     474:	3a0e0300 	bcc	38107c <__bss_end__+0x3766a4>
     478:	390b3b0b 	stmdbcc	fp, {r0, r1, r3, r8, r9, fp, ip, sp}
     47c:	0013490b 	andseq	r4, r3, fp, lsl #18
     480:	01150600 	tsteq	r5, r0, lsl #12
     484:	13491927 	movtne	r1, #39207	; 0x9927
     488:	00001301 	andeq	r1, r0, r1, lsl #6
     48c:	49000507 	stmdbmi	r0, {r0, r1, r2, r8, sl}
     490:	08000013 	stmdaeq	r0, {r0, r1, r4}
     494:	0e030034 	mcreq	0, 0, r0, cr3, cr4, {1}
     498:	0b3b0b3a 	bleq	ec3188 <__bss_end__+0xeb87b0>
     49c:	13490b39 	movtne	r0, #39737	; 0x9b39
     4a0:	193c193f 	ldmdbne	ip!, {r0, r1, r2, r3, r4, r5, r8, fp, ip}
     4a4:	0f090000 	svceq	0x00090000
     4a8:	490b0b00 	stmdbmi	fp, {r8, r9, fp}
     4ac:	0a000013 	beq	500 <__code_start__-0x7b00>
     4b0:	0b0b0113 	bleq	2c0904 <__bss_end__+0x2b5f2c>
     4b4:	0b3b0b3a 	bleq	ec31a4 <__bss_end__+0xeb87cc>
     4b8:	13010b39 	movwne	r0, #6969	; 0x1b39
     4bc:	0d0b0000 	stceq	0, cr0, [fp, #-0]
     4c0:	3a0e0300 	bcc	3810c8 <__bss_end__+0x3766f0>
     4c4:	390b3b0b 	stmdbcc	fp, {r0, r1, r3, r8, r9, fp, ip, sp}
     4c8:	3813490b 	ldmdacc	r3, {r0, r1, r3, r8, fp, lr}
     4cc:	0c00000b 	stceq	0, cr0, [r0], {11}
     4d0:	0b3e0104 	bleq	f808e8 <__bss_end__+0xf75f10>
     4d4:	13490b0b 	movtne	r0, #39691	; 0x9b0b
     4d8:	0b3b0b3a 	bleq	ec31c8 <__bss_end__+0xeb87f0>
     4dc:	13010b39 	movwne	r0, #6969	; 0x1b39
     4e0:	280d0000 	stmdacs	sp, {}	; <UNPREDICTABLE>
     4e4:	1c0e0300 	stcne	3, cr0, [lr], {-0}
     4e8:	0e00000b 	cdpeq	0, 0, cr0, cr0, cr11, {0}
     4ec:	0e030113 	mcreq	1, 0, r0, cr3, cr3, {0}
     4f0:	0b3a0b0b 	bleq	e83124 <__bss_end__+0xe7874c>
     4f4:	0b390b3b 	bleq	e431e8 <__bss_end__+0xe38810>
     4f8:	00001301 	andeq	r1, r0, r1, lsl #6
     4fc:	0300340f 	movweq	r3, #1039	; 0x40f
     500:	3b0b3a0e 	blcc	2ced40 <__bss_end__+0x2c4368>
     504:	490b390b 	stmdbmi	fp, {r0, r1, r3, r8, fp, ip, sp}
     508:	10000013 	andne	r0, r0, r3, lsl r0
     50c:	0e030034 	mcreq	0, 0, r0, cr3, cr4, {1}
     510:	0b3b0b3a 	bleq	ec3200 <__bss_end__+0xeb8828>
     514:	13490b39 	movtne	r0, #39737	; 0x9b39
     518:	00000b1c 	andeq	r0, r0, ip, lsl fp
     51c:	0b000f11 	bleq	4168 <__code_start__-0x3e98>
     520:	1200000b 	andne	r0, r0, #11, 0
     524:	0e030034 	mcreq	0, 0, r0, cr3, cr4, {1}
     528:	0b3b0b3a 	bleq	ec3218 <__bss_end__+0xeb8840>
     52c:	13490b39 	movtne	r0, #39737	; 0x9b39
     530:	00001802 	andeq	r1, r0, r2, lsl #16
     534:	3f012e13 	svccc	0x00012e13
     538:	3a0e0319 	bcc	3811a4 <__bss_end__+0x3767cc>
     53c:	390b3b0b 	stmdbcc	fp, {r0, r1, r3, r8, r9, fp, ip, sp}
     540:	1119270b 	tstne	r9, fp, lsl #14
     544:	40061201 	andmi	r1, r6, r1, lsl #4
     548:	19429718 	stmdbne	r2, {r3, r4, r8, r9, sl, ip, pc}^
     54c:	00001301 	andeq	r1, r0, r1, lsl #6
     550:	03003414 	movweq	r3, #1044	; 0x414
     554:	3413490e 	ldrcc	r4, [r3], #-2318	; 0xfffff6f2
     558:	00180219 	andseq	r0, r8, r9, lsl r2
     55c:	82891500 	addhi	r1, r9, #0, 10
     560:	01110101 	tsteq	r1, r1, lsl #2
     564:	13011331 	movwne	r1, #4913	; 0x1331
     568:	8a160000 	bhi	580570 <__bss_end__+0x575b98>
     56c:	02000182 	andeq	r0, r0, #-2147483616	; 0x80000020
     570:	18429118 	stmdane	r2, {r3, r4, r8, ip, pc}^
     574:	89170000 	ldmdbhi	r7, {}	; <UNPREDICTABLE>
     578:	11000182 	smlabbne	r0, r2, r1, r0
     57c:	00133101 	andseq	r3, r3, r1, lsl #2
     580:	01011800 	tsteq	r1, r0, lsl #16
     584:	13011349 	movwne	r1, #4937	; 0x1349
     588:	21190000 	tstcs	r9, r0
     58c:	2f134900 	svccs	0x00134900
     590:	1a00000b 	bne	5c4 <__code_start__-0x7a3c>
     594:	193f012e 	ldmdbne	pc!, {r1, r2, r3, r5, r8}	; <UNPREDICTABLE>
     598:	0b3a0e03 	bleq	e83dac <__bss_end__+0xe793d4>
     59c:	0b390b3b 	bleq	e43290 <__bss_end__+0xe388b8>
     5a0:	13491927 	movtne	r1, #39207	; 0x9927
     5a4:	06120111 			; <UNDEFINED> instruction: 0x06120111
     5a8:	42971840 	addsmi	r1, r7, #64, 16	; 0x400000
     5ac:	00130119 	andseq	r0, r3, r9, lsl r1
     5b0:	00341b00 	eorseq	r1, r4, r0, lsl #22
     5b4:	0b3a0e03 	bleq	e83dc8 <__bss_end__+0xe793f0>
     5b8:	0b390b3b 	bleq	e432ac <__bss_end__+0xe388d4>
     5bc:	17021349 	strne	r1, [r2, -r9, asr #6]
     5c0:	001742b7 			; <UNDEFINED> instruction: 0x001742b7
     5c4:	012e1c00 			; <UNDEFINED> instruction: 0x012e1c00
     5c8:	0b3a0e03 	bleq	e83ddc <__bss_end__+0xe79404>
     5cc:	0b390b3b 	bleq	e432c0 <__bss_end__+0xe388e8>
     5d0:	13491927 	movtne	r1, #39207	; 0x9927
     5d4:	06120111 			; <UNDEFINED> instruction: 0x06120111
     5d8:	42971840 	addsmi	r1, r7, #64, 16	; 0x400000
     5dc:	00130119 	andseq	r0, r3, r9, lsl r1
     5e0:	82891d00 	addhi	r1, r9, #0, 26
     5e4:	01110101 	tsteq	r1, r1, lsl #2
     5e8:	00001331 	andeq	r1, r0, r1, lsr r3
     5ec:	0300051e 	movweq	r0, #1310	; 0x51e
     5f0:	3b0b3a0e 	blcc	2cee30 <__bss_end__+0x2c4458>
     5f4:	490b390b 	stmdbmi	fp, {r0, r1, r3, r8, fp, ip, sp}
     5f8:	b7170213 			; <UNDEFINED> instruction: 0xb7170213
     5fc:	00001742 	andeq	r1, r0, r2, asr #14
     600:	03012e1f 	movweq	r2, #7711	; 0x1e1f
     604:	3b0b3a0e 	blcc	2cee44 <__bss_end__+0x2c446c>
     608:	270b390b 	strcs	r3, [fp, -fp, lsl #18]
     60c:	12011119 	andne	r1, r1, #1073741830	; 0x40000006
     610:	97184006 	ldrls	r4, [r8, -r6]
     614:	13011942 	movwne	r1, #6466	; 0x1942
     618:	34200000 	strtcc	r0, [r0], #-0
     61c:	490e0300 	stmdbmi	lr, {r8, r9}
     620:	00193413 	andseq	r3, r9, r3, lsl r4
     624:	00342100 	eorseq	r2, r4, r0, lsl #2
     628:	0b3a0e03 	bleq	e83e3c <__bss_end__+0xe79464>
     62c:	0b390b3b 	bleq	e43320 <__bss_end__+0xe38948>
     630:	061c1349 	ldreq	r1, [ip], -r9, asr #6
     634:	0b220000 	bleq	88063c <__bss_end__+0x875c64>
     638:	12011101 	andne	r1, r1, #1073741824	; 0x40000000
     63c:	00130106 	andseq	r0, r3, r6, lsl #2
     640:	00342300 	eorseq	r2, r4, r0, lsl #6
     644:	0b3a0803 	bleq	e82658 <__bss_end__+0xe77c80>
     648:	0b390b3b 	bleq	e4333c <__bss_end__+0xe38964>
     64c:	17021349 	strne	r1, [r2, -r9, asr #6]
     650:	001742b7 			; <UNDEFINED> instruction: 0x001742b7
     654:	00052400 	andeq	r2, r5, r0, lsl #8
     658:	0b3a0803 	bleq	e8266c <__bss_end__+0xe77c94>
     65c:	0b390b3b 	bleq	e43350 <__bss_end__+0xe38978>
     660:	17021349 	strne	r1, [r2, -r9, asr #6]
     664:	001742b7 			; <UNDEFINED> instruction: 0x001742b7
     668:	010b2500 	tsteq	fp, r0, lsl #10
     66c:	13011755 	movwne	r1, #5973	; 0x1755
     670:	0b260000 	bleq	980678 <__bss_end__+0x975ca0>
     674:	00175501 	andseq	r5, r7, r1, lsl #10
     678:	002e2700 	eoreq	r2, lr, r0, lsl #14
     67c:	193c193f 	ldmdbne	ip!, {r0, r1, r2, r3, r4, r5, r8, fp, ip}
     680:	0e030e6e 	cdpeq	14, 0, cr0, cr3, cr14, {3}
     684:	0b3b0b3a 	bleq	ec3374 <__bss_end__+0xeb899c>
     688:	00000b39 	andeq	r0, r0, r9, lsr fp
     68c:	01110100 	tsteq	r1, r0, lsl #2
     690:	0b130e25 	bleq	4c3f2c <__bss_end__+0x4b9554>
     694:	0e1b0e03 	cdpeq	14, 1, cr0, cr11, cr3, {0}
     698:	06120111 			; <UNDEFINED> instruction: 0x06120111
     69c:	00001710 	andeq	r1, r0, r0, lsl r7
     6a0:	0b002402 	bleq	96b0 <uart_can_putc>
     6a4:	030b3e0b 	movweq	r3, #48651	; 0xbe0b
     6a8:	03000008 	movweq	r0, #8
     6ac:	0b0b0024 	bleq	2c0744 <__bss_end__+0x2b5d6c>
     6b0:	0e030b3e 	vmoveq.16	d3[0], r0
     6b4:	15040000 	strne	r0, [r4, #-0]
     6b8:	49192701 	ldmdbmi	r9, {r0, r8, r9, sl, sp}
     6bc:	00130113 	andseq	r0, r3, r3, lsl r1
     6c0:	00050500 	andeq	r0, r5, r0, lsl #10
     6c4:	00001349 	andeq	r1, r0, r9, asr #6
     6c8:	03003406 	movweq	r3, #1030	; 0x406
     6cc:	3b0b3a0e 	blcc	2cef0c <__bss_end__+0x2c4534>
     6d0:	490b390b 	stmdbmi	fp, {r0, r1, r3, r8, fp, ip, sp}
     6d4:	3c193f13 	ldccc	15, cr3, [r9], {19}
     6d8:	07000019 	smladeq	r0, r9, r0, r0
     6dc:	0b0b000f 	bleq	2c0720 <__bss_end__+0x2b5d48>
     6e0:	00001349 	andeq	r1, r0, r9, asr #6
     6e4:	49002608 	stmdbmi	r0, {r3, r9, sl, sp}
     6e8:	09000013 	stmdbeq	r0, {r0, r1, r4}
     6ec:	0e030117 	mcreq	1, 0, r0, cr3, cr7, {0}
     6f0:	0b3a0b0b 	bleq	e83324 <__bss_end__+0xe7894c>
     6f4:	0b390b3b 	bleq	e433e8 <__bss_end__+0xe38a10>
     6f8:	00001301 	andeq	r1, r0, r1, lsl #6
     6fc:	03000d0a 	movweq	r0, #3338	; 0xd0a
     700:	3b0b3a08 	blcc	2cef28 <__bss_end__+0x2c4550>
     704:	490b390b 	stmdbmi	fp, {r0, r1, r3, r8, fp, ip, sp}
     708:	0b000013 	bleq	75c <__code_start__-0x78a4>
     70c:	0b0b000f 	bleq	2c0750 <__bss_end__+0x2b5d78>
     710:	150c0000 	strne	r0, [ip, #-0]
     714:	00192700 	andseq	r2, r9, r0, lsl #14
     718:	01130d00 	tsteq	r3, r0, lsl #26
     71c:	0b3a0b0b 	bleq	e83350 <__bss_end__+0xe78978>
     720:	0b390b3b 	bleq	e43414 <__bss_end__+0xe38a3c>
     724:	00001301 	andeq	r1, r0, r1, lsl #6
     728:	03000d0e 	movweq	r0, #3342	; 0xd0e
     72c:	3b0b3a08 	blcc	2cef54 <__bss_end__+0x2c457c>
     730:	490b390b 	stmdbmi	fp, {r0, r1, r3, r8, fp, ip, sp}
     734:	000b3813 	andeq	r3, fp, r3, lsl r8
     738:	000d0f00 	andeq	r0, sp, r0, lsl #30
     73c:	0b3a0e03 	bleq	e83f50 <__bss_end__+0xe79578>
     740:	0b390b3b 	bleq	e43434 <__bss_end__+0xe38a5c>
     744:	0b381349 	bleq	e05470 <__bss_end__+0xdfaa98>
     748:	16100000 	ldrne	r0, [r0], -r0
     74c:	3a0e0300 	bcc	381354 <__bss_end__+0x37697c>
     750:	390b3b0b 	stmdbcc	fp, {r0, r1, r3, r8, r9, fp, ip, sp}
     754:	0013490b 	andseq	r4, r3, fp, lsl #18
     758:	00341100 	eorseq	r1, r4, r0, lsl #2
     75c:	0b3a0e03 	bleq	e83f70 <__bss_end__+0xe79598>
     760:	0b390b3b 	bleq	e43454 <__bss_end__+0xe38a7c>
     764:	18021349 	stmdane	r2, {r0, r3, r6, r8, r9, ip}
     768:	2e120000 	cdpcs	0, 1, cr0, cr2, cr0, {0}
     76c:	03193f01 	tsteq	r9, #1, 30
     770:	3b0b3a0e 	blcc	2cefb0 <__bss_end__+0x2c45d8>
     774:	270b390b 	strcs	r3, [fp, -fp, lsl #18]
     778:	12011119 	andne	r1, r1, #1073741830	; 0x40000006
     77c:	97184006 	ldrls	r4, [r8, -r6]
     780:	13011942 	movwne	r1, #6466	; 0x1942
     784:	05130000 	ldreq	r0, [r3, #-0]
     788:	3a080300 	bcc	201390 <__bss_end__+0x1f69b8>
     78c:	390b3b0b 	stmdbcc	fp, {r0, r1, r3, r8, r9, fp, ip, sp}
     790:	0213490b 	andseq	r4, r3, #180224	; 0x2c000
     794:	14000018 	strne	r0, [r0], #-24	; 0xffffffe8
     798:	08030034 	stmdaeq	r3, {r2, r4, r5}
     79c:	0b3b0b3a 	bleq	ec348c <__bss_end__+0xeb8ab4>
     7a0:	13490b39 	movtne	r0, #39737	; 0x9b39
     7a4:	42b71702 	adcsmi	r1, r7, #524288	; 0x80000
     7a8:	15000017 	strne	r0, [r0, #-23]	; 0xffffffe9
     7ac:	193f012e 	ldmdbne	pc!, {r1, r2, r3, r5, r8}	; <UNPREDICTABLE>
     7b0:	0b3a0e03 	bleq	e83fc4 <__bss_end__+0xe795ec>
     7b4:	0b390b3b 	bleq	e434a8 <__bss_end__+0xe38ad0>
     7b8:	13491927 	movtne	r1, #39207	; 0x9927
     7bc:	06120111 			; <UNDEFINED> instruction: 0x06120111
     7c0:	42971840 	addsmi	r1, r7, #64, 16	; 0x400000
     7c4:	00130119 	andseq	r0, r3, r9, lsl r1
     7c8:	00051600 	andeq	r1, r5, r0, lsl #12
     7cc:	0b3a0e03 	bleq	e83fe0 <__bss_end__+0xe79608>
     7d0:	0b390b3b 	bleq	e434c4 <__bss_end__+0xe38aec>
     7d4:	17021349 	strne	r1, [r2, -r9, asr #6]
     7d8:	001742b7 			; <UNDEFINED> instruction: 0x001742b7
     7dc:	00341700 	eorseq	r1, r4, r0, lsl #14
     7e0:	0b3a0e03 	bleq	e83ff4 <__bss_end__+0xe7961c>
     7e4:	0b390b3b 	bleq	e434d8 <__bss_end__+0xe38b00>
     7e8:	17021349 	strne	r1, [r2, -r9, asr #6]
     7ec:	001742b7 			; <UNDEFINED> instruction: 0x001742b7
     7f0:	012e1800 			; <UNDEFINED> instruction: 0x012e1800
     7f4:	0e03193f 			; <UNDEFINED> instruction: 0x0e03193f
     7f8:	0b3b0b3a 	bleq	ec34e8 <__bss_end__+0xeb8b10>
     7fc:	19270b39 	stmdbne	r7!, {r0, r3, r4, r5, r8, r9, fp}
     800:	193c1349 	ldmdbne	ip!, {r0, r3, r6, r8, r9, ip}
     804:	00001301 	andeq	r1, r0, r1, lsl #6
     808:	01828919 	orreq	r8, r2, r9, lsl r9
     80c:	31011101 	tstcc	r1, r1, lsl #2
     810:	1a000013 	bne	864 <__code_start__-0x779c>
     814:	0001828a 	andeq	r8, r1, sl, lsl #5
     818:	42911802 	addsmi	r1, r1, #131072	; 0x20000
     81c:	1b000018 	blne	884 <__code_start__-0x777c>
     820:	0e03012e 	adfeqsp	f0, f3, #0.5
     824:	0b3b0b3a 	bleq	ec3514 <__bss_end__+0xeb8b3c>
     828:	19270b39 	stmdbne	r7!, {r0, r3, r4, r5, r8, r9, fp}
     82c:	01111349 	tsteq	r1, r9, asr #6
     830:	18400612 	stmdane	r0, {r1, r4, r9, sl}^
     834:	01194297 			; <UNDEFINED> instruction: 0x01194297
     838:	1c000013 	stcne	0, cr0, [r0], {19}
     83c:	08030005 	stmdaeq	r3, {r0, r2}
     840:	0b3b0b3a 	bleq	ec3530 <__bss_end__+0xeb8b58>
     844:	13490b39 	movtne	r0, #39737	; 0x9b39
     848:	42b71702 	adcsmi	r1, r7, #524288	; 0x80000
     84c:	1d000017 	stcne	0, cr0, [r0, #-92]	; 0xffffffa4
     850:	01018289 	smlabbeq	r1, r9, r2, r8
     854:	13310111 	teqne	r1, #1073741828	; 0x40000004
     858:	00001301 	andeq	r1, r0, r1, lsl #6
     85c:	0182891e 	orreq	r8, r2, lr, lsl r9
     860:	31011100 	mrscc	r1, (UNDEF: 17)
     864:	1f000013 	svcne	0x00000013
     868:	193f002e 	ldmdbne	pc!, {r1, r2, r3, r5}	; <UNPREDICTABLE>
     86c:	0e6e193c 			; <UNDEFINED> instruction: 0x0e6e193c
     870:	0b3a0e03 	bleq	e84084 <__bss_end__+0xe796ac>
     874:	0b390b3b 	bleq	e43568 <__bss_end__+0xe38b90>
     878:	01000000 	mrseq	r0, (UNDEF: 0)
     87c:	0e250111 	mcreq	1, 1, r0, cr5, cr1, {0}
     880:	0e030b13 	vmoveq.32	d3[0], r0
     884:	01110e1b 	tsteq	r1, fp, lsl lr
     888:	17100612 			; <UNDEFINED> instruction: 0x17100612
     88c:	24020000 	strcs	r0, [r2], #-0
     890:	3e0b0b00 	vmlacc.f64	d0, d11, d0
     894:	0008030b 	andeq	r0, r8, fp, lsl #6
     898:	00160300 	andseq	r0, r6, r0, lsl #6
     89c:	0b3a0e03 	bleq	e840b0 <__bss_end__+0xe796d8>
     8a0:	0b390b3b 	bleq	e43594 <__bss_end__+0xe38bbc>
     8a4:	00001349 	andeq	r1, r0, r9, asr #6
     8a8:	0b002404 	bleq	98c0 <kmalloc_notzero+0x4>
     8ac:	030b3e0b 	movweq	r3, #48651	; 0xbe0b
     8b0:	0500000e 	streq	r0, [r0, #-14]
     8b4:	19270115 	stmdbne	r7!, {r0, r2, r4, r8}
     8b8:	13011349 	movwne	r1, #4937	; 0x1349
     8bc:	05060000 	streq	r0, [r6, #-0]
     8c0:	00134900 	andseq	r4, r3, r0, lsl #18
     8c4:	00340700 	eorseq	r0, r4, r0, lsl #14
     8c8:	0b3a0e03 	bleq	e840dc <__bss_end__+0xe79704>
     8cc:	0b390b3b 	bleq	e435c0 <__bss_end__+0xe38be8>
     8d0:	193f1349 	ldmdbne	pc!, {r0, r3, r6, r8, r9, ip}	; <UNPREDICTABLE>
     8d4:	0000193c 	andeq	r1, r0, ip, lsr r9
     8d8:	0b000f08 	bleq	4500 <__code_start__-0x3b00>
     8dc:	0013490b 	andseq	r4, r3, fp, lsl #18
     8e0:	00260900 	eoreq	r0, r6, r0, lsl #18
     8e4:	00001349 	andeq	r1, r0, r9, asr #6
     8e8:	3f012e0a 	svccc	0x00012e0a
     8ec:	3a0e0319 	bcc	381558 <__bss_end__+0x376b80>
     8f0:	390b3b0b 	stmdbcc	fp, {r0, r1, r3, r8, r9, fp, ip, sp}
     8f4:	4919270b 	ldmdbmi	r9, {r0, r1, r3, r8, r9, sl, sp}
     8f8:	12011113 	andne	r1, r1, #-1073741820	; 0xc0000004
     8fc:	97184006 	ldrls	r4, [r8, -r6]
     900:	13011942 	movwne	r1, #6466	; 0x1942
     904:	050b0000 	streq	r0, [fp, #-0]
     908:	3a080300 	bcc	201510 <__bss_end__+0x1f6b38>
     90c:	390b3b0b 	stmdbcc	fp, {r0, r1, r3, r8, r9, fp, ip, sp}
     910:	0213490b 	andseq	r4, r3, #180224	; 0x2c000
     914:	0c000018 	stceq	0, cr0, [r0], {24}
     918:	08030005 	stmdaeq	r3, {r0, r2}
     91c:	0b3b0b3a 	bleq	ec360c <__bss_end__+0xeb8c34>
     920:	13490b39 	movtne	r0, #39737	; 0x9b39
     924:	42b71702 	adcsmi	r1, r7, #524288	; 0x80000
     928:	0d000017 	stceq	0, cr0, [r0, #-92]	; 0xffffffa4
     92c:	08030034 	stmdaeq	r3, {r2, r4, r5}
     930:	0b3b0b3a 	bleq	ec3620 <__bss_end__+0xeb8c48>
     934:	13490b39 	movtne	r0, #39737	; 0x9b39
     938:	42b71702 	adcsmi	r1, r7, #524288	; 0x80000
     93c:	0e000017 	mcreq	0, 0, r0, cr0, cr7, {0}
     940:	0b0b000f 	bleq	2c0984 <__bss_end__+0x2b5fac>
     944:	01000000 	mrseq	r0, (UNDEF: 0)
     948:	0e250111 	mcreq	1, 1, r0, cr5, cr1, {0}
     94c:	0e030b13 	vmoveq.32	d3[0], r0
     950:	01110e1b 	tsteq	r1, fp, lsl lr
     954:	17100612 			; <UNDEFINED> instruction: 0x17100612
     958:	16020000 	strne	r0, [r2], -r0
     95c:	3a0e0300 	bcc	381564 <__bss_end__+0x376b8c>
     960:	390b3b0b 	stmdbcc	fp, {r0, r1, r3, r8, r9, fp, ip, sp}
     964:	0013490b 	andseq	r4, r3, fp, lsl #18
     968:	01130300 	tsteq	r3, r0, lsl #6
     96c:	0b0b0e03 	bleq	2c4180 <__bss_end__+0x2b97a8>
     970:	0b3b0b3a 	bleq	ec3660 <__bss_end__+0xeb8c88>
     974:	00001301 	andeq	r1, r0, r1, lsl #6
     978:	03000d04 	movweq	r0, #3332	; 0xd04
     97c:	3813490e 	ldmdacc	r3, {r1, r2, r3, r8, fp, lr}
     980:	0019340b 	andseq	r3, r9, fp, lsl #8
     984:	000f0500 	andeq	r0, pc, r0, lsl #10
     988:	00000b0b 	andeq	r0, r0, fp, lsl #22
     98c:	0b002406 	bleq	99ac <kmalloc+0x58>
     990:	030b3e0b 	movweq	r3, #48651	; 0xbe0b
     994:	07000008 	streq	r0, [r0, -r8]
     998:	0b0b0024 	bleq	2c0a30 <__bss_end__+0x2b6058>
     99c:	0e030b3e 	vmoveq.16	d3[0], r0
     9a0:	15080000 	strne	r0, [r8, #-0]
     9a4:	49192701 	ldmdbmi	r9, {r0, r8, r9, sl, sp}
     9a8:	00130113 	andseq	r0, r3, r3, lsl r1
     9ac:	00050900 	andeq	r0, r5, r0, lsl #18
     9b0:	00001349 	andeq	r1, r0, r9, asr #6
     9b4:	0300340a 	movweq	r3, #1034	; 0x40a
     9b8:	3b0b3a0e 	blcc	2cf1f8 <__bss_end__+0x2c4820>
     9bc:	490b390b 	stmdbmi	fp, {r0, r1, r3, r8, fp, ip, sp}
     9c0:	3c193f13 	ldccc	15, cr3, [r9], {19}
     9c4:	0b000019 	bleq	a30 <__code_start__-0x75d0>
     9c8:	0b0b000f 	bleq	2c0a0c <__bss_end__+0x2b6034>
     9cc:	00001349 	andeq	r1, r0, r9, asr #6
     9d0:	4900260c 	stmdbmi	r0, {r2, r3, r9, sl, sp}
     9d4:	0d000013 	stceq	0, cr0, [r0, #-76]	; 0xffffffb4
     9d8:	193f012e 	ldmdbne	pc!, {r1, r2, r3, r5, r8}	; <UNPREDICTABLE>
     9dc:	0b3a0e03 	bleq	e841f0 <__bss_end__+0xe79818>
     9e0:	0b390b3b 	bleq	e436d4 <__bss_end__+0xe38cfc>
     9e4:	13491927 	movtne	r1, #39207	; 0x9927
     9e8:	06120111 			; <UNDEFINED> instruction: 0x06120111
     9ec:	42971840 	addsmi	r1, r7, #64, 16	; 0x400000
     9f0:	00130119 	andseq	r0, r3, r9, lsl r1
     9f4:	00050e00 	andeq	r0, r5, r0, lsl #28
     9f8:	0b3a0803 	bleq	e82a0c <__bss_end__+0xe78034>
     9fc:	0b390b3b 	bleq	e436f0 <__bss_end__+0xe38d18>
     a00:	18021349 	stmdane	r2, {r0, r3, r6, r8, r9, ip}
     a04:	180f0000 	stmdane	pc, {}	; <UNPREDICTABLE>
     a08:	10000000 	andne	r0, r0, r0
     a0c:	08030034 	stmdaeq	r3, {r2, r4, r5}
     a10:	0b3b0b3a 	bleq	ec3700 <__bss_end__+0xeb8d28>
     a14:	13490b39 	movtne	r0, #39737	; 0x9b39
     a18:	00001802 	andeq	r1, r0, r2, lsl #16
     a1c:	03003411 	movweq	r3, #1041	; 0x411
     a20:	3b0b3a0e 	blcc	2cf260 <__bss_end__+0x2c4888>
     a24:	490b390b 	stmdbmi	fp, {r0, r1, r3, r8, fp, ip, sp}
     a28:	00180213 	andseq	r0, r8, r3, lsl r2
     a2c:	00341200 	eorseq	r1, r4, r0, lsl #4
     a30:	0b3a0803 	bleq	e82a44 <__bss_end__+0xe7806c>
     a34:	0b390b3b 	bleq	e43728 <__bss_end__+0xe38d50>
     a38:	17021349 	strne	r1, [r2, -r9, asr #6]
     a3c:	001742b7 			; <UNDEFINED> instruction: 0x001742b7
     a40:	82891300 	addhi	r1, r9, #0, 6
     a44:	01110101 	tsteq	r1, r1, lsl #2
     a48:	13011331 	movwne	r1, #4913	; 0x1331
     a4c:	8a140000 	bhi	500a54 <__bss_end__+0x4f607c>
     a50:	02000182 	andeq	r0, r0, #-2147483616	; 0x80000020
     a54:	18429118 	stmdane	r2, {r3, r4, r8, ip, pc}^
     a58:	89150000 	ldmdbhi	r5, {}	; <UNPREDICTABLE>
     a5c:	11010182 	smlabbne	r1, r2, r1, r0
     a60:	16000001 	strne	r0, [r0], -r1
     a64:	13490101 	movtne	r0, #37121	; 0x9101
     a68:	00001301 	andeq	r1, r0, r1, lsl #6
     a6c:	49002117 	stmdbmi	r0, {r0, r1, r2, r4, r8, sp}
     a70:	00052f13 	andeq	r2, r5, r3, lsl pc
     a74:	002e1800 	eoreq	r1, lr, r0, lsl #16
     a78:	193c193f 	ldmdbne	ip!, {r0, r1, r2, r3, r4, r5, r8, fp, ip}
     a7c:	0e030e6e 	cdpeq	14, 0, cr0, cr3, cr14, {3}
     a80:	0b3b0b3a 	bleq	ec3770 <__bss_end__+0xeb8d98>
     a84:	00000b39 	andeq	r0, r0, r9, lsr fp
     a88:	01110100 	tsteq	r1, r0, lsl #2
     a8c:	0b130e25 	bleq	4c4328 <__bss_end__+0x4b9950>
     a90:	0e1b0e03 	cdpeq	14, 1, cr0, cr11, cr3, {0}
     a94:	06120111 			; <UNDEFINED> instruction: 0x06120111
     a98:	00001710 	andeq	r1, r0, r0, lsl r7
     a9c:	0b002402 	bleq	9aac <kmalloc_aligned+0xf4>
     aa0:	030b3e0b 	movweq	r3, #48651	; 0xbe0b
     aa4:	03000008 	movweq	r0, #8
     aa8:	0b0b0024 	bleq	2c0b40 <__bss_end__+0x2b6168>
     aac:	0e030b3e 	vmoveq.16	d3[0], r0
     ab0:	15040000 	strne	r0, [r4, #-0]
     ab4:	49192701 	ldmdbmi	r9, {r0, r8, r9, sl, sp}
     ab8:	00130113 	andseq	r0, r3, r3, lsl r1
     abc:	00050500 	andeq	r0, r5, r0, lsl #10
     ac0:	00001349 	andeq	r1, r0, r9, asr #6
     ac4:	03003406 	movweq	r3, #1030	; 0x406
     ac8:	3b0b3a0e 	blcc	2cf308 <__bss_end__+0x2c4930>
     acc:	490b390b 	stmdbmi	fp, {r0, r1, r3, r8, fp, ip, sp}
     ad0:	3c193f13 	ldccc	15, cr3, [r9], {19}
     ad4:	07000019 	smladeq	r0, r9, r0, r0
     ad8:	0b0b000f 	bleq	2c0b1c <__bss_end__+0x2b6144>
     adc:	00001349 	andeq	r1, r0, r9, asr #6
     ae0:	49002608 	stmdbmi	r0, {r3, r9, sl, sp}
     ae4:	09000013 	stmdbeq	r0, {r0, r1, r4}
     ae8:	13470034 	movtne	r0, #28724	; 0x7034
     aec:	0b3b0b3a 	bleq	ec37dc <__bss_end__+0xeb8e04>
     af0:	18020b39 	stmdane	r2, {r0, r3, r4, r5, r8, r9, fp}
     af4:	2e0a0000 	cdpcs	0, 0, cr0, cr10, cr0, {0}
     af8:	03193f01 	tsteq	r9, #1, 30
     afc:	3b0b3a0e 	blcc	2cf33c <__bss_end__+0x2c4964>
     b00:	270b390b 	strcs	r3, [fp, -fp, lsl #18]
     b04:	11134919 	tstne	r3, r9, lsl r9
     b08:	40061201 	andmi	r1, r6, r1, lsl #4
     b0c:	19429618 	stmdbne	r2, {r3, r4, r9, sl, ip, pc}^
     b10:	050b0000 	streq	r0, [fp, #-0]
     b14:	3a080300 	bcc	20171c <__bss_end__+0x1f6d44>
     b18:	390b3b0b 	stmdbcc	fp, {r0, r1, r3, r8, r9, fp, ip, sp}
     b1c:	0213490b 	andseq	r4, r3, #180224	; 0x2c000
     b20:	1742b717 	smlaldne	fp, r2, r7, r7
     b24:	01000000 	mrseq	r0, (UNDEF: 0)
     b28:	0e250111 	mcreq	1, 1, r0, cr5, cr1, {0}
     b2c:	0e030b13 	vmoveq.32	d3[0], r0
     b30:	01110e1b 	tsteq	r1, fp, lsl lr
     b34:	17100612 			; <UNDEFINED> instruction: 0x17100612
     b38:	24020000 	strcs	r0, [r2], #-0
     b3c:	3e0b0b00 	vmlacc.f64	d0, d11, d0
     b40:	0008030b 	andeq	r0, r8, fp, lsl #6
     b44:	00240300 	eoreq	r0, r4, r0, lsl #6
     b48:	0b3e0b0b 	bleq	f8377c <__bss_end__+0xf78da4>
     b4c:	00000e03 	andeq	r0, r0, r3, lsl #28
     b50:	03001604 	movweq	r1, #1540	; 0x604
     b54:	3b0b3a0e 	blcc	2cf394 <__bss_end__+0x2c49bc>
     b58:	490b390b 	stmdbmi	fp, {r0, r1, r3, r8, fp, ip, sp}
     b5c:	05000013 	streq	r0, [r0, #-19]	; 0xffffffed
     b60:	19270115 	stmdbne	r7!, {r0, r2, r4, r8}
     b64:	13011349 	movwne	r1, #4937	; 0x1349
     b68:	05060000 	streq	r0, [r6, #-0]
     b6c:	00134900 	andseq	r4, r3, r0, lsl #18
     b70:	00340700 	eorseq	r0, r4, r0, lsl #14
     b74:	0b3a0e03 	bleq	e84388 <__bss_end__+0xe799b0>
     b78:	0b390b3b 	bleq	e4386c <__bss_end__+0xe38e94>
     b7c:	193f1349 	ldmdbne	pc!, {r0, r3, r6, r8, r9, ip}	; <UNPREDICTABLE>
     b80:	0000193c 	andeq	r1, r0, ip, lsr r9
     b84:	0b000f08 	bleq	47ac <__code_start__-0x3854>
     b88:	0013490b 	andseq	r4, r3, fp, lsl #18
     b8c:	00260900 	eoreq	r0, r6, r0, lsl #18
     b90:	00001349 	andeq	r1, r0, r9, asr #6
     b94:	0301130a 	movweq	r1, #4874	; 0x130a
     b98:	3a0b0b0e 	bcc	2c37d8 <__bss_end__+0x2b8e00>
     b9c:	010b3b0b 	tsteq	fp, fp, lsl #22
     ba0:	0b000013 	bleq	bf4 <__code_start__-0x740c>
     ba4:	0e03000d 	cdpeq	0, 0, cr0, cr3, cr13, {0}
     ba8:	0b381349 	bleq	e058d4 <__bss_end__+0xdfaefc>
     bac:	00001934 	andeq	r1, r0, r4, lsr r9
     bb0:	0b000f0c 	bleq	47e8 <__code_start__-0x3818>
     bb4:	0d00000b 	stceq	0, cr0, [r0, #-44]	; 0xffffffd4
     bb8:	193f012e 	ldmdbne	pc!, {r1, r2, r3, r5, r8}	; <UNPREDICTABLE>
     bbc:	0b3a0e03 	bleq	e843d0 <__bss_end__+0xe799f8>
     bc0:	0b390b3b 	bleq	e438b4 <__bss_end__+0xe38edc>
     bc4:	13491927 	movtne	r1, #39207	; 0x9927
     bc8:	06120111 			; <UNDEFINED> instruction: 0x06120111
     bcc:	42971840 	addsmi	r1, r7, #64, 16	; 0x400000
     bd0:	00130119 	andseq	r0, r3, r9, lsl r1
     bd4:	00050e00 	andeq	r0, r5, r0, lsl #28
     bd8:	0b3a0803 	bleq	e82bec <__bss_end__+0xe78214>
     bdc:	0b390b3b 	bleq	e438d0 <__bss_end__+0xe38ef8>
     be0:	17021349 	strne	r1, [r2, -r9, asr #6]
     be4:	001742b7 			; <UNDEFINED> instruction: 0x001742b7
     be8:	00050f00 	andeq	r0, r5, r0, lsl #30
     bec:	0b3a0e03 	bleq	e84400 <__bss_end__+0xe79a28>
     bf0:	0b390b3b 	bleq	e438e4 <__bss_end__+0xe38f0c>
     bf4:	18021349 	stmdane	r2, {r0, r3, r6, r8, r9, ip}
     bf8:	34100000 	ldrcc	r0, [r0], #-0
     bfc:	3a080300 	bcc	201804 <__bss_end__+0x1f6e2c>
     c00:	390b3b0b 	stmdbcc	fp, {r0, r1, r3, r8, r9, fp, ip, sp}
     c04:	0213490b 	andseq	r4, r3, #180224	; 0x2c000
     c08:	1742b717 	smlaldne	fp, r2, r7, r7
     c0c:	34110000 	ldrcc	r0, [r1], #-0
     c10:	3a0e0300 	bcc	381818 <__bss_end__+0x376e40>
     c14:	390b3b0b 	stmdbcc	fp, {r0, r1, r3, r8, r9, fp, ip, sp}
     c18:	0213490b 	andseq	r4, r3, #180224	; 0x2c000
     c1c:	1742b717 	smlaldne	fp, r2, r7, r7
     c20:	34120000 	ldrcc	r0, [r2], #-0
     c24:	490e0300 	stmdbmi	lr, {r8, r9}
     c28:	02193413 	andseq	r3, r9, #318767104	; 0x13000000
     c2c:	13000018 	movwne	r0, #24
     c30:	0111010b 	tsteq	r1, fp, lsl #2
     c34:	00000612 	andeq	r0, r0, r2, lsl r6
     c38:	03003414 	movweq	r3, #1044	; 0x414
     c3c:	3b0b3a08 	blcc	2cf464 <__bss_end__+0x2c4a8c>
     c40:	490b390b 	stmdbmi	fp, {r0, r1, r3, r8, fp, ip, sp}
     c44:	00180213 	andseq	r0, r8, r3, lsl r2
     c48:	00341500 	eorseq	r1, r4, r0, lsl #10
     c4c:	0b3a0e03 	bleq	e84460 <__bss_end__+0xe79a88>
     c50:	0b390b3b 	bleq	e43944 <__bss_end__+0xe38f6c>
     c54:	18021349 	stmdane	r2, {r0, r3, r6, r8, r9, ip}
     c58:	0b160000 	bleq	580c60 <__bss_end__+0x576288>
     c5c:	12011101 	andne	r1, r1, #1073741824	; 0x40000000
     c60:	00130106 	andseq	r0, r3, r6, lsl #2
     c64:	00341700 	eorseq	r1, r4, r0, lsl #14
     c68:	0b3a0803 	bleq	e82c7c <__bss_end__+0xe782a4>
     c6c:	0b390b3b 	bleq	e43960 <__bss_end__+0xe38f88>
     c70:	00001349 	andeq	r1, r0, r9, asr #6
     c74:	01828918 	orreq	r8, r2, r8, lsl r9
     c78:	31011101 	tstcc	r1, r1, lsl #2
     c7c:	00130113 	andseq	r0, r3, r3, lsl r1
     c80:	828a1900 	addhi	r1, sl, #0, 18
     c84:	18020001 	stmdane	r2, {r0}
     c88:	00184291 	mulseq	r8, r1, r2
     c8c:	82891a00 	addhi	r1, r9, #0, 20
     c90:	01110001 	tsteq	r1, r1
     c94:	00001331 	andeq	r1, r0, r1, lsr r3
     c98:	0182891b 	orreq	r8, r2, fp, lsl r9
     c9c:	01011101 	tsteq	r1, r1, lsl #2
     ca0:	1c000013 	stcne	0, cr0, [r0], {19}
     ca4:	13490101 	movtne	r0, #37121	; 0x9101
     ca8:	00001301 	andeq	r1, r0, r1, lsl #6
     cac:	4900211d 	stmdbmi	r0, {r0, r2, r3, r4, r8, sp}
     cb0:	000b2f13 	andeq	r2, fp, r3, lsl pc
     cb4:	012e1e00 			; <UNDEFINED> instruction: 0x012e1e00
     cb8:	0b3a0e03 	bleq	e844cc <__bss_end__+0xe79af4>
     cbc:	0b390b3b 	bleq	e439b0 <__bss_end__+0xe38fd8>
     cc0:	13491927 	movtne	r1, #39207	; 0x9927
     cc4:	06120111 			; <UNDEFINED> instruction: 0x06120111
     cc8:	42971840 	addsmi	r1, r7, #64, 16	; 0x400000
     ccc:	00130119 	andseq	r0, r3, r9, lsl r1
     cd0:	00051f00 	andeq	r1, r5, r0, lsl #30
     cd4:	0b3a0e03 	bleq	e844e8 <__bss_end__+0xe79b10>
     cd8:	0b390b3b 	bleq	e439cc <__bss_end__+0xe38ff4>
     cdc:	17021349 	strne	r1, [r2, -r9, asr #6]
     ce0:	001742b7 			; <UNDEFINED> instruction: 0x001742b7
     ce4:	012e2000 			; <UNDEFINED> instruction: 0x012e2000
     ce8:	0b3a0803 	bleq	e82cfc <__bss_end__+0xe78324>
     cec:	0b390b3b 	bleq	e439e0 <__bss_end__+0xe39008>
     cf0:	13491927 	movtne	r1, #39207	; 0x9927
     cf4:	06120111 			; <UNDEFINED> instruction: 0x06120111
     cf8:	42971840 	addsmi	r1, r7, #64, 16	; 0x400000
     cfc:	00130119 	andseq	r0, r3, r9, lsl r1
     d00:	012e2100 			; <UNDEFINED> instruction: 0x012e2100
     d04:	0e03193f 			; <UNDEFINED> instruction: 0x0e03193f
     d08:	0b3b0b3a 	bleq	ec39f8 <__bss_end__+0xeb9020>
     d0c:	19270b39 	stmdbne	r7!, {r0, r3, r4, r5, r8, r9, fp}
     d10:	06120111 			; <UNDEFINED> instruction: 0x06120111
     d14:	42971840 	addsmi	r1, r7, #64, 16	; 0x400000
     d18:	00130119 	andseq	r0, r3, r9, lsl r1
     d1c:	002e2200 	eoreq	r2, lr, r0, lsl #4
     d20:	193c193f 	ldmdbne	ip!, {r0, r1, r2, r3, r4, r5, r8, fp, ip}
     d24:	0e030e6e 	cdpeq	14, 0, cr0, cr3, cr14, {3}
     d28:	0b3b0b3a 	bleq	ec3a18 <__bss_end__+0xeb9040>
     d2c:	00000b39 	andeq	r0, r0, r9, lsr fp
     d30:	01110100 	tsteq	r1, r0, lsl #2
     d34:	0b130e25 	bleq	4c45d0 <__bss_end__+0x4b9bf8>
     d38:	0e1b0e03 	cdpeq	14, 1, cr0, cr11, cr3, {0}
     d3c:	06120111 			; <UNDEFINED> instruction: 0x06120111
     d40:	00001710 	andeq	r1, r0, r0, lsl r7
     d44:	0b002402 	bleq	9d54 <gpio_read+0x20>
     d48:	030b3e0b 	movweq	r3, #48651	; 0xbe0b
     d4c:	03000008 	movweq	r0, #8
     d50:	0b0b0024 	bleq	2c0de8 <__bss_end__+0x2b6410>
     d54:	0e030b3e 	vmoveq.16	d3[0], r0
     d58:	15040000 	strne	r0, [r4, #-0]
     d5c:	49192701 	ldmdbmi	r9, {r0, r8, r9, sl, sp}
     d60:	00130113 	andseq	r0, r3, r3, lsl r1
     d64:	00050500 	andeq	r0, r5, r0, lsl #10
     d68:	00001349 	andeq	r1, r0, r9, asr #6
     d6c:	03003406 	movweq	r3, #1030	; 0x406
     d70:	3b0b3a0e 	blcc	2cf5b0 <__bss_end__+0x2c4bd8>
     d74:	490b390b 	stmdbmi	fp, {r0, r1, r3, r8, fp, ip, sp}
     d78:	3c193f13 	ldccc	15, cr3, [r9], {19}
     d7c:	07000019 	smladeq	r0, r9, r0, r0
     d80:	0b0b000f 	bleq	2c0dc4 <__bss_end__+0x2b63ec>
     d84:	00001349 	andeq	r1, r0, r9, asr #6
     d88:	49002608 	stmdbmi	r0, {r3, r9, sl, sp}
     d8c:	09000013 	stmdbeq	r0, {r0, r1, r4}
     d90:	193f012e 	ldmdbne	pc!, {r1, r2, r3, r5, r8}	; <UNPREDICTABLE>
     d94:	0b3a0e03 	bleq	e845a8 <__bss_end__+0xe79bd0>
     d98:	0b390b3b 	bleq	e43a8c <__bss_end__+0xe390b4>
     d9c:	01871927 	orreq	r1, r7, r7, lsr #18
     da0:	12011119 	andne	r1, r1, #1073741830	; 0x40000006
     da4:	97184006 	ldrls	r4, [r8, -r6]
     da8:	13011942 	movwne	r1, #6466	; 0x1942
     dac:	890a0000 	stmdbhi	sl, {}	; <UNPREDICTABLE>
     db0:	11010182 	smlabbne	r1, r2, r1, r0
     db4:	00130101 	andseq	r0, r3, r1, lsl #2
     db8:	828a0b00 	addhi	r0, sl, #0, 22
     dbc:	18020001 	stmdane	r2, {r0}
     dc0:	00184291 	mulseq	r8, r1, r2
     dc4:	82890c00 	addhi	r0, r9, #0, 24
     dc8:	01110001 	tsteq	r1, r1
     dcc:	00001331 	andeq	r1, r0, r1, lsr r3
     dd0:	0182890d 	orreq	r8, r2, sp, lsl #18
     dd4:	31011101 	tstcc	r1, r1, lsl #2
     dd8:	00130113 	andseq	r0, r3, r3, lsl r1
     ddc:	002e0e00 	eoreq	r0, lr, r0, lsl #28
     de0:	193c193f 	ldmdbne	ip!, {r0, r1, r2, r3, r4, r5, r8, fp, ip}
     de4:	0e030e6e 	cdpeq	14, 0, cr0, cr3, cr14, {3}
     de8:	0b3b0b3a 	bleq	ec3ad8 <__bss_end__+0xeb9100>
     dec:	00000b39 	andeq	r0, r0, r9, lsr fp
     df0:	01110100 	tsteq	r1, r0, lsl #2
     df4:	0b130e25 	bleq	4c4690 <__bss_end__+0x4b9cb8>
     df8:	0e1b0e03 	cdpeq	14, 1, cr0, cr11, cr3, {0}
     dfc:	06120111 			; <UNDEFINED> instruction: 0x06120111
     e00:	00001710 	andeq	r1, r0, r0, lsl r7
     e04:	0b002402 	bleq	9e14 <__FUNCTION__.4024+0x2c>
     e08:	030b3e0b 	movweq	r3, #48651	; 0xbe0b
     e0c:	03000008 	movweq	r0, #8
     e10:	0b0b0024 	bleq	2c0ea8 <__bss_end__+0x2b64d0>
     e14:	0e030b3e 	vmoveq.16	d3[0], r0
     e18:	15040000 	strne	r0, [r4, #-0]
     e1c:	49192701 	ldmdbmi	r9, {r0, r8, r9, sl, sp}
     e20:	00130113 	andseq	r0, r3, r3, lsl r1
     e24:	00050500 	andeq	r0, r5, r0, lsl #10
     e28:	00001349 	andeq	r1, r0, r9, asr #6
     e2c:	03003406 	movweq	r3, #1030	; 0x406
     e30:	3b0b3a0e 	blcc	2cf670 <__bss_end__+0x2c4c98>
     e34:	490b390b 	stmdbmi	fp, {r0, r1, r3, r8, fp, ip, sp}
     e38:	3c193f13 	ldccc	15, cr3, [r9], {19}
     e3c:	07000019 	smladeq	r0, r9, r0, r0
     e40:	0b0b000f 	bleq	2c0e84 <__bss_end__+0x2b64ac>
     e44:	00001349 	andeq	r1, r0, r9, asr #6
     e48:	49002608 	stmdbmi	r0, {r3, r9, sl, sp}
     e4c:	09000013 	stmdbeq	r0, {r0, r1, r4}
     e50:	193f012e 	ldmdbne	pc!, {r1, r2, r3, r5, r8}	; <UNPREDICTABLE>
     e54:	0b3a0e03 	bleq	e84668 <__bss_end__+0xe79c90>
     e58:	0b390b3b 	bleq	e43b4c <__bss_end__+0xe39174>
     e5c:	06120111 			; <UNDEFINED> instruction: 0x06120111
     e60:	42971840 	addsmi	r1, r7, #64, 16	; 0x400000
     e64:	00130119 	andseq	r0, r3, r9, lsl r1
     e68:	002e0a00 	eoreq	r0, lr, r0, lsl #20
     e6c:	0e03193f 			; <UNDEFINED> instruction: 0x0e03193f
     e70:	0b3b0b3a 	bleq	ec3b60 <__bss_end__+0xeb9188>
     e74:	19270b39 	stmdbne	r7!, {r0, r3, r4, r5, r8, r9, fp}
     e78:	0000193c 	andeq	r1, r0, ip, lsr r9
     e7c:	0300340b 	movweq	r3, #1035	; 0x40b
     e80:	3b0b3a08 	blcc	2cf6a8 <__bss_end__+0x2c4cd0>
     e84:	490b390b 	stmdbmi	fp, {r0, r1, r3, r8, fp, ip, sp}
     e88:	b7170213 			; <UNDEFINED> instruction: 0xb7170213
     e8c:	00001742 	andeq	r1, r0, r2, asr #14
     e90:	0300340c 	movweq	r3, #1036	; 0x40c
     e94:	3b0b3a0e 	blcc	2cf6d4 <__bss_end__+0x2c4cfc>
     e98:	490b390b 	stmdbmi	fp, {r0, r1, r3, r8, fp, ip, sp}
     e9c:	0d000013 	stceq	0, cr0, [r0, #-76]	; 0xffffffb4
     ea0:	0111010b 	tsteq	r1, fp, lsl #2
     ea4:	13010612 	movwne	r0, #5650	; 0x1612
     ea8:	340e0000 	strcc	r0, [lr], #-0
     eac:	3a080300 	bcc	201ab4 <__bss_end__+0x1f70dc>
     eb0:	390b3b0b 	stmdbcc	fp, {r0, r1, r3, r8, r9, fp, ip, sp}
     eb4:	1c13490b 			; <UNDEFINED> instruction: 0x1c13490b
     eb8:	0f00000b 	svceq	0x0000000b
     ebc:	00018289 	andeq	r8, r1, r9, lsl #5
     ec0:	13310111 	teqne	r1, #1073741828	; 0x40000004
     ec4:	2e100000 	cdpcs	0, 1, cr0, cr0, cr0, {0}
     ec8:	3c193f00 	ldccc	15, cr3, [r9], {-0}
     ecc:	030e6e19 	movweq	r6, #60953	; 0xee19
     ed0:	3b0b3a0e 	blcc	2cf710 <__bss_end__+0x2c4d38>
     ed4:	000b3905 	andeq	r3, fp, r5, lsl #18
     ed8:	002e1100 	eoreq	r1, lr, r0, lsl #2
     edc:	193c193f 	ldmdbne	ip!, {r0, r1, r2, r3, r4, r5, r8, fp, ip}
     ee0:	0e030e6e 	cdpeq	14, 0, cr0, cr3, cr14, {3}
     ee4:	0b3b0b3a 	bleq	ec3bd4 <__bss_end__+0xeb91fc>
     ee8:	00000b39 	andeq	r0, r0, r9, lsr fp
     eec:	01110100 	tsteq	r1, r0, lsl #2
     ef0:	0b130e25 	bleq	4c478c <__bss_end__+0x4b9db4>
     ef4:	0e1b0e03 	cdpeq	14, 1, cr0, cr11, cr3, {0}
     ef8:	06120111 			; <UNDEFINED> instruction: 0x06120111
     efc:	00001710 	andeq	r1, r0, r0, lsl r7
     f00:	0b002402 	bleq	9f10 <__FUNCTION__.4068+0x20>
     f04:	030b3e0b 	movweq	r3, #48651	; 0xbe0b
     f08:	03000008 	movweq	r0, #8
     f0c:	0b0b0024 	bleq	2c0fa4 <__bss_end__+0x2b65cc>
     f10:	0e030b3e 	vmoveq.16	d3[0], r0
     f14:	15040000 	strne	r0, [r4, #-0]
     f18:	49192701 	ldmdbmi	r9, {r0, r8, r9, sl, sp}
     f1c:	00130113 	andseq	r0, r3, r3, lsl r1
     f20:	00050500 	andeq	r0, r5, r0, lsl #10
     f24:	00001349 	andeq	r1, r0, r9, asr #6
     f28:	03003406 	movweq	r3, #1030	; 0x406
     f2c:	3b0b3a0e 	blcc	2cf76c <__bss_end__+0x2c4d94>
     f30:	490b390b 	stmdbmi	fp, {r0, r1, r3, r8, fp, ip, sp}
     f34:	3c193f13 	ldccc	15, cr3, [r9], {19}
     f38:	07000019 	smladeq	r0, r9, r0, r0
     f3c:	0b0b000f 	bleq	2c0f80 <__bss_end__+0x2b65a8>
     f40:	00001349 	andeq	r1, r0, r9, asr #6
     f44:	49002608 	stmdbmi	r0, {r3, r9, sl, sp}
     f48:	09000013 	stmdbeq	r0, {r0, r1, r4}
     f4c:	193f002e 	ldmdbne	pc!, {r1, r2, r3, r5}	; <UNPREDICTABLE>
     f50:	0b3a0e03 	bleq	e84764 <__bss_end__+0xe79d8c>
     f54:	0b390b3b 	bleq	e43c48 <__bss_end__+0xe39270>
     f58:	01111927 	tsteq	r1, r7, lsr #18
     f5c:	18400612 	stmdane	r0, {r1, r4, r9, sl}^
     f60:	00194297 	mulseq	r9, r7, r2
     f64:	11010000 	mrsne	r0, (UNDEF: 1)
     f68:	130e2501 	movwne	r2, #58625	; 0xe501
     f6c:	1b0e030b 	blne	381ba0 <__bss_end__+0x3771c8>
     f70:	1117550e 	tstne	r7, lr, lsl #10
     f74:	00171001 	andseq	r1, r7, r1
     f78:	00240200 	eoreq	r0, r4, r0, lsl #4
     f7c:	0b3e0b0b 	bleq	f83bb0 <__bss_end__+0xf791d8>
     f80:	00000803 	andeq	r0, r0, r3, lsl #16
     f84:	49002603 	stmdbmi	r0, {r0, r1, r9, sl, sp}
     f88:	04000013 	streq	r0, [r0], #-19	; 0xffffffed
     f8c:	0b0b0024 	bleq	2c1024 <__bss_end__+0x2b664c>
     f90:	0e030b3e 	vmoveq.16	d3[0], r0
     f94:	15050000 	strne	r0, [r5, #-0]
     f98:	49192701 	ldmdbmi	r9, {r0, r8, r9, sl, sp}
     f9c:	00130113 	andseq	r0, r3, r3, lsl r1
     fa0:	00050600 	andeq	r0, r5, r0, lsl #12
     fa4:	00001349 	andeq	r1, r0, r9, asr #6
     fa8:	03003407 	movweq	r3, #1031	; 0x407
     fac:	3b0b3a0e 	blcc	2cf7ec <__bss_end__+0x2c4e14>
     fb0:	490b390b 	stmdbmi	fp, {r0, r1, r3, r8, fp, ip, sp}
     fb4:	3c193f13 	ldccc	15, cr3, [r9], {19}
     fb8:	08000019 	stmdaeq	r0, {r0, r3, r4}
     fbc:	0b0b000f 	bleq	2c1000 <__bss_end__+0x2b6628>
     fc0:	00001349 	andeq	r1, r0, r9, asr #6
     fc4:	03003409 	movweq	r3, #1033	; 0x409
     fc8:	3b0b3a0e 	blcc	2cf808 <__bss_end__+0x2c4e30>
     fcc:	490b390b 	stmdbmi	fp, {r0, r1, r3, r8, fp, ip, sp}
     fd0:	0a000013 	beq	1024 <__code_start__-0x6fdc>
     fd4:	193f012e 	ldmdbne	pc!, {r1, r2, r3, r5, r8}	; <UNPREDICTABLE>
     fd8:	0b3a0e03 	bleq	e847ec <__bss_end__+0xe79e14>
     fdc:	0b390b3b 	bleq	e43cd0 <__bss_end__+0xe392f8>
     fe0:	01871927 	orreq	r1, r7, r7, lsr #18
     fe4:	12011119 	andne	r1, r1, #1073741830	; 0x40000006
     fe8:	97184006 	ldrls	r4, [r8, -r6]
     fec:	13011942 	movwne	r1, #6466	; 0x1942
     ff0:	340b0000 	strcc	r0, [fp], #-0
     ff4:	3a0e0300 	bcc	381bfc <__bss_end__+0x377224>
     ff8:	390b3b0b 	stmdbcc	fp, {r0, r1, r3, r8, r9, fp, ip, sp}
     ffc:	0213490b 	andseq	r4, r3, #180224	; 0x2c000
    1000:	1742b717 	smlaldne	fp, r2, r7, r7
    1004:	890c0000 	stmdbhi	ip, {}	; <UNPREDICTABLE>
    1008:	11000182 	smlabbne	r0, r2, r1, r0
    100c:	00133101 	andseq	r3, r3, r1, lsl #2
    1010:	82890d00 	addhi	r0, r9, #0, 26
    1014:	01110101 	tsteq	r1, r1, lsl #2
    1018:	13011331 	movwne	r1, #4913	; 0x1331
    101c:	8a0e0000 	bhi	381024 <__bss_end__+0x37664c>
    1020:	02000182 	andeq	r0, r0, #-2147483616	; 0x80000020
    1024:	18429118 	stmdane	r2, {r3, r4, r8, ip, pc}^
    1028:	2e0f0000 	cdpcs	0, 0, cr0, cr15, cr0, {0}
    102c:	03193f01 	tsteq	r9, #1, 30
    1030:	3b0b3a0e 	blcc	2cf870 <__bss_end__+0x2c4e98>
    1034:	270b390b 	strcs	r3, [fp, -fp, lsl #18]
    1038:	12011119 	andne	r1, r1, #1073741830	; 0x40000006
    103c:	97184006 	ldrls	r4, [r8, -r6]
    1040:	13011942 	movwne	r1, #6466	; 0x1942
    1044:	2e100000 	cdpcs	0, 1, cr0, cr0, cr0, {0}
    1048:	03193f01 	tsteq	r9, #1, 30
    104c:	3b0b3a0e 	blcc	2cf88c <__bss_end__+0x2c4eb4>
    1050:	270b390b 	strcs	r3, [fp, -fp, lsl #18]
    1054:	11134919 	tstne	r3, r9, lsl r9
    1058:	40061201 	andmi	r1, r6, r1, lsl #4
    105c:	19429718 	stmdbne	r2, {r3, r4, r8, r9, sl, ip, pc}^
    1060:	00001301 	andeq	r1, r0, r1, lsl #6
    1064:	3f002e11 	svccc	0x00002e11
    1068:	6e193c19 	mrcvs	12, 0, r3, cr9, cr9, {0}
    106c:	3a0e030e 	bcc	381cac <__bss_end__+0x3772d4>
    1070:	39053b0b 	stmdbcc	r5, {r0, r1, r3, r8, r9, fp, ip, sp}
    1074:	1200000b 	andne	r0, r0, #11, 0
    1078:	193f002e 	ldmdbne	pc!, {r1, r2, r3, r5}	; <UNPREDICTABLE>
    107c:	0e6e193c 			; <UNDEFINED> instruction: 0x0e6e193c
    1080:	0b3a0e03 	bleq	e84894 <__bss_end__+0xe79ebc>
    1084:	0b390b3b 	bleq	e43d78 <__bss_end__+0xe393a0>
    1088:	01000000 	mrseq	r0, (UNDEF: 0)
    108c:	0e250111 	mcreq	1, 1, r0, cr5, cr1, {0}
    1090:	0e030b13 	vmoveq.32	d3[0], r0
    1094:	01110e1b 	tsteq	r1, fp, lsl lr
    1098:	17100612 			; <UNDEFINED> instruction: 0x17100612
    109c:	24020000 	strcs	r0, [r2], #-0
    10a0:	3e0b0b00 	vmlacc.f64	d0, d11, d0
    10a4:	0008030b 	andeq	r0, r8, fp, lsl #6
    10a8:	00240300 	eoreq	r0, r4, r0, lsl #6
    10ac:	0b3e0b0b 	bleq	f83ce0 <__bss_end__+0xf79308>
    10b0:	00000e03 	andeq	r0, r0, r3, lsl #28
    10b4:	27011504 	strcs	r1, [r1, -r4, lsl #10]
    10b8:	01134919 	tsteq	r3, r9, lsl r9
    10bc:	05000013 	streq	r0, [r0, #-19]	; 0xffffffed
    10c0:	13490005 	movtne	r0, #36869	; 0x9005
    10c4:	34060000 	strcc	r0, [r6], #-0
    10c8:	3a0e0300 	bcc	381cd0 <__bss_end__+0x3772f8>
    10cc:	390b3b0b 	stmdbcc	fp, {r0, r1, r3, r8, r9, fp, ip, sp}
    10d0:	3f13490b 	svccc	0x0013490b
    10d4:	00193c19 	andseq	r3, r9, r9, lsl ip
    10d8:	000f0700 	andeq	r0, pc, r0, lsl #14
    10dc:	13490b0b 	movtne	r0, #39691	; 0x9b0b
    10e0:	26080000 	strcs	r0, [r8], -r0
    10e4:	00134900 	andseq	r4, r3, r0, lsl #18
    10e8:	012e0900 			; <UNDEFINED> instruction: 0x012e0900
    10ec:	0e03193f 			; <UNDEFINED> instruction: 0x0e03193f
    10f0:	0b3b0b3a 	bleq	ec3de0 <__bss_end__+0xeb9408>
    10f4:	19270b39 	stmdbne	r7!, {r0, r3, r4, r5, r8, r9, fp}
    10f8:	06120111 			; <UNDEFINED> instruction: 0x06120111
    10fc:	42971840 	addsmi	r1, r7, #64, 16	; 0x400000
    1100:	00130119 	andseq	r0, r3, r9, lsl r1
    1104:	00050a00 	andeq	r0, r5, r0, lsl #20
    1108:	0b3a0803 	bleq	e8311c <__bss_end__+0xe78744>
    110c:	0b390b3b 	bleq	e43e00 <__bss_end__+0xe39428>
    1110:	17021349 	strne	r1, [r2, -r9, asr #6]
    1114:	001742b7 			; <UNDEFINED> instruction: 0x001742b7
    1118:	82890b00 	addhi	r0, r9, #0, 22
    111c:	01110101 	tsteq	r1, r1, lsl #2
    1120:	00001331 	andeq	r1, r0, r1, lsr r3
    1124:	01828a0c 	orreq	r8, r2, ip, lsl #20
    1128:	91180200 	tstls	r8, r0, lsl #4
    112c:	00001842 	andeq	r1, r0, r2, asr #16
    1130:	0300340d 	movweq	r3, #1037	; 0x40d
    1134:	3b0b3a08 	blcc	2cf95c <__bss_end__+0x2c4f84>
    1138:	490b390b 	stmdbmi	fp, {r0, r1, r3, r8, fp, ip, sp}
    113c:	b7170213 			; <UNDEFINED> instruction: 0xb7170213
    1140:	00001742 	andeq	r1, r0, r2, asr #14
    1144:	11010b0e 	tstne	r1, lr, lsl #22
    1148:	01061201 	tsteq	r6, r1, lsl #4
    114c:	0f000013 	svceq	0x00000013
    1150:	00018289 	andeq	r8, r1, r9, lsl #5
    1154:	13310111 	teqne	r1, #1073741828	; 0x40000004
    1158:	2e100000 	cdpcs	0, 1, cr0, cr0, cr0, {0}
    115c:	03193f01 	tsteq	r9, #1, 30
    1160:	3b0b3a0e 	blcc	2cf9a0 <__bss_end__+0x2c4fc8>
    1164:	270b390b 	strcs	r3, [fp, -fp, lsl #18]
    1168:	11134919 	tstne	r3, r9, lsl r9
    116c:	40061201 	andmi	r1, r6, r1, lsl #4
    1170:	19429718 	stmdbne	r2, {r3, r4, r8, r9, sl, ip, pc}^
    1174:	00001301 	andeq	r1, r0, r1, lsl #6
    1178:	3f002e11 	svccc	0x00002e11
    117c:	6e193c19 	mrcvs	12, 0, r3, cr9, cr9, {0}
    1180:	3a0e030e 	bcc	381dc0 <__bss_end__+0x3773e8>
    1184:	390b3b0b 	stmdbcc	fp, {r0, r1, r3, r8, r9, fp, ip, sp}
    1188:	0000000b 	andeq	r0, r0, fp
    118c:	25011101 	strcs	r1, [r1, #-257]	; 0xfffffeff
    1190:	030b130e 	movweq	r1, #45838	; 0xb30e
    1194:	110e1b0e 	tstne	lr, lr, lsl #22
    1198:	10061201 	andne	r1, r6, r1, lsl #4
    119c:	02000017 	andeq	r0, r0, #23, 0
    11a0:	0b0b0024 	bleq	2c1238 <__bss_end__+0x2b6860>
    11a4:	08030b3e 	stmdaeq	r3, {r1, r2, r3, r4, r5, r8, r9, fp}
    11a8:	24030000 	strcs	r0, [r3], #-0
    11ac:	3e0b0b00 	vmlacc.f64	d0, d11, d0
    11b0:	000e030b 	andeq	r0, lr, fp, lsl #6
    11b4:	00350400 	eorseq	r0, r5, r0, lsl #8
    11b8:	00001349 	andeq	r1, r0, r9, asr #6
    11bc:	03001605 	movweq	r1, #1541	; 0x605
    11c0:	3b0b3a0e 	blcc	2cfa00 <__bss_end__+0x2c5028>
    11c4:	490b390b 	stmdbmi	fp, {r0, r1, r3, r8, fp, ip, sp}
    11c8:	06000013 			; <UNDEFINED> instruction: 0x06000013
    11cc:	0b3e0104 	bleq	f815e4 <__bss_end__+0xf76c0c>
    11d0:	13490b0b 	movtne	r0, #39691	; 0x9b0b
    11d4:	0b3b0b3a 	bleq	ec3ec4 <__bss_end__+0xeb94ec>
    11d8:	13010b39 	movwne	r0, #6969	; 0x1b39
    11dc:	28070000 	stmdacs	r7, {}	; <UNPREDICTABLE>
    11e0:	1c0e0300 	stcne	3, cr0, [lr], {-0}
    11e4:	0800000b 	stmdaeq	r0, {r0, r1, r3}
    11e8:	0e030113 	mcreq	1, 0, r0, cr3, cr3, {0}
    11ec:	0b3a0b0b 	bleq	e83e20 <__bss_end__+0xe79448>
    11f0:	0b390b3b 	bleq	e43ee4 <__bss_end__+0xe3950c>
    11f4:	00001301 	andeq	r1, r0, r1, lsl #6
    11f8:	03000d09 	movweq	r0, #3337	; 0xd09
    11fc:	3b0b3a08 	blcc	2cfa24 <__bss_end__+0x2c504c>
    1200:	490b390b 	stmdbmi	fp, {r0, r1, r3, r8, fp, ip, sp}
    1204:	000b3813 	andeq	r3, fp, r3, lsl r8
    1208:	000d0a00 	andeq	r0, sp, r0, lsl #20
    120c:	0b3a0e03 	bleq	e84a20 <__bss_end__+0xe7a048>
    1210:	0b390b3b 	bleq	e43f04 <__bss_end__+0xe3952c>
    1214:	0b381349 	bleq	e05f40 <__bss_end__+0xdfb568>
    1218:	340b0000 	strcc	r0, [fp], #-0
    121c:	3a0e0300 	bcc	381e24 <__bss_end__+0x37744c>
    1220:	390b3b0b 	stmdbcc	fp, {r0, r1, r3, r8, r9, fp, ip, sp}
    1224:	1c13490b 			; <UNDEFINED> instruction: 0x1c13490b
    1228:	0c000006 	stceq	0, cr0, [r0], {6}
    122c:	0b0b000f 	bleq	2c1270 <__bss_end__+0x2b6898>
    1230:	00001349 	andeq	r1, r0, r9, asr #6
    1234:	4900260d 	stmdbmi	r0, {r0, r2, r3, r9, sl, sp}
    1238:	0e000013 	mcreq	0, 0, r0, cr0, cr3, {0}
    123c:	193f012e 	ldmdbne	pc!, {r1, r2, r3, r5, r8}	; <UNPREDICTABLE>
    1240:	0b3a0e03 	bleq	e84a54 <__bss_end__+0xe7a07c>
    1244:	0b390b3b 	bleq	e43f38 <__bss_end__+0xe39560>
    1248:	01111927 	tsteq	r1, r7, lsr #18
    124c:	18400612 	stmdane	r0, {r1, r4, r9, sl}^
    1250:	01194297 			; <UNDEFINED> instruction: 0x01194297
    1254:	0f000013 	svceq	0x00000013
    1258:	00018289 	andeq	r8, r1, r9, lsl #5
    125c:	13310111 	teqne	r1, #1073741828	; 0x40000004
    1260:	2e100000 	cdpcs	0, 1, cr0, cr0, cr0, {0}
    1264:	03193f01 	tsteq	r9, #1, 30
    1268:	3b0b3a0e 	blcc	2cfaa8 <__bss_end__+0x2c50d0>
    126c:	270b390b 	strcs	r3, [fp, -fp, lsl #18]
    1270:	11134919 	tstne	r3, r9, lsl r9
    1274:	40061201 	andmi	r1, r6, r1, lsl #4
    1278:	19429718 	stmdbne	r2, {r3, r4, r8, r9, sl, ip, pc}^
    127c:	00001301 	andeq	r1, r0, r1, lsl #6
    1280:	01828911 	orreq	r8, r2, r1, lsl r9
    1284:	31011101 	tstcc	r1, r1, lsl #2
    1288:	12000013 	andne	r0, r0, #19, 0
    128c:	0001828a 	andeq	r8, r1, sl, lsl #5
    1290:	42911802 	addsmi	r1, r1, #131072	; 0x20000
    1294:	13000018 	movwne	r0, #24
    1298:	08030005 	stmdaeq	r3, {r0, r2}
    129c:	0b3b0b3a 	bleq	ec3f8c <__bss_end__+0xeb95b4>
    12a0:	13490b39 	movtne	r0, #39737	; 0x9b39
    12a4:	42b71702 	adcsmi	r1, r7, #524288	; 0x80000
    12a8:	14000017 	strne	r0, [r0], #-23	; 0xffffffe9
    12ac:	01018289 	smlabbeq	r1, r9, r2, r8
    12b0:	13310111 	teqne	r1, #1073741828	; 0x40000004
    12b4:	00001301 	andeq	r1, r0, r1, lsl #6
    12b8:	03003415 	movweq	r3, #1045	; 0x415
    12bc:	3b0b3a08 	blcc	2cfae4 <__bss_end__+0x2c510c>
    12c0:	490b390b 	stmdbmi	fp, {r0, r1, r3, r8, fp, ip, sp}
    12c4:	b7170213 			; <UNDEFINED> instruction: 0xb7170213
    12c8:	00001742 	andeq	r1, r0, r2, asr #14
    12cc:	03003416 	movweq	r3, #1046	; 0x416
    12d0:	3b0b3a0e 	blcc	2cfb10 <__bss_end__+0x2c5138>
    12d4:	490b390b 	stmdbmi	fp, {r0, r1, r3, r8, fp, ip, sp}
    12d8:	00051c13 	andeq	r1, r5, r3, lsl ip
    12dc:	012e1700 			; <UNDEFINED> instruction: 0x012e1700
    12e0:	0b3a0e03 	bleq	e84af4 <__bss_end__+0xe7a11c>
    12e4:	0b390b3b 	bleq	e43fd8 <__bss_end__+0xe39600>
    12e8:	01111927 	tsteq	r1, r7, lsr #18
    12ec:	18400612 	stmdane	r0, {r1, r4, r9, sl}^
    12f0:	01194297 			; <UNDEFINED> instruction: 0x01194297
    12f4:	18000013 	stmdane	r0, {r0, r1, r4}
    12f8:	0e030005 	cdpeq	0, 0, cr0, cr3, cr5, {0}
    12fc:	0b3b0b3a 	bleq	ec3fec <__bss_end__+0xeb9614>
    1300:	13490b39 	movtne	r0, #39737	; 0x9b39
    1304:	42b71702 	adcsmi	r1, r7, #524288	; 0x80000
    1308:	19000017 	stmdbne	r0, {r0, r1, r2, r4}
    130c:	00000035 	andeq	r0, r0, r5, lsr r0
    1310:	3f002e1a 	svccc	0x00002e1a
    1314:	6e193c19 	mrcvs	12, 0, r3, cr9, cr9, {0}
    1318:	3a0e030e 	bcc	381f58 <__bss_end__+0x377580>
    131c:	390b3b0b 	stmdbcc	fp, {r0, r1, r3, r8, r9, fp, ip, sp}
    1320:	0000000b 	andeq	r0, r0, fp
    1324:	25011101 	strcs	r1, [r1, #-257]	; 0xfffffeff
    1328:	030b130e 	movweq	r1, #45838	; 0xb30e
    132c:	110e1b0e 	tstne	lr, lr, lsl #22
    1330:	10061201 	andne	r1, r6, r1, lsl #4
    1334:	02000017 	andeq	r0, r0, #23, 0
    1338:	0b0b0024 	bleq	2c13d0 <__bss_end__+0x2b69f8>
    133c:	08030b3e 	stmdaeq	r3, {r1, r2, r3, r4, r5, r8, r9, fp}
    1340:	24030000 	strcs	r0, [r3], #-0
    1344:	3e0b0b00 	vmlacc.f64	d0, d11, d0
    1348:	000e030b 	andeq	r0, lr, fp, lsl #6
    134c:	00160400 	andseq	r0, r6, r0, lsl #8
    1350:	0b3a0e03 	bleq	e84b64 <__bss_end__+0xe7a18c>
    1354:	0b390b3b 	bleq	e44048 <__bss_end__+0xe39670>
    1358:	00001349 	andeq	r1, r0, r9, asr #6
    135c:	49002605 	stmdbmi	r0, {r0, r2, r9, sl, sp}
    1360:	06000013 			; <UNDEFINED> instruction: 0x06000013
    1364:	0b0b000f 	bleq	2c13a8 <__bss_end__+0x2b69d0>
    1368:	04070000 	streq	r0, [r7], #-0
    136c:	0b0b3e01 	bleq	2d0b78 <__bss_end__+0x2c61a0>
    1370:	3a13490b 	bcc	4d37a4 <__bss_end__+0x4c8dcc>
    1374:	390b3b0b 	stmdbcc	fp, {r0, r1, r3, r8, r9, fp, ip, sp}
    1378:	0013010b 	andseq	r0, r3, fp, lsl #2
    137c:	00280800 	eoreq	r0, r8, r0, lsl #16
    1380:	061c0e03 	ldreq	r0, [ip], -r3, lsl #28
    1384:	34090000 	strcc	r0, [r9], #-0
    1388:	3a0e0300 	bcc	381f90 <__bss_end__+0x3775b8>
    138c:	390b3b0b 	stmdbcc	fp, {r0, r1, r3, r8, r9, fp, ip, sp}
    1390:	3f13490b 	svccc	0x0013490b
    1394:	00193c19 	andseq	r3, r9, r9, lsl ip
    1398:	00340a00 	eorseq	r0, r4, r0, lsl #20
    139c:	0b3a0e03 	bleq	e84bb0 <__bss_end__+0xe7a1d8>
    13a0:	0b390b3b 	bleq	e44094 <__bss_end__+0xe396bc>
    13a4:	18021349 	stmdane	r2, {r0, r3, r6, r8, r9, ip}
    13a8:	0f0b0000 	svceq	0x000b0000
    13ac:	490b0b00 	stmdbmi	fp, {r8, r9, fp}
    13b0:	0c000013 	stceq	0, cr0, [r0], {19}
    13b4:	193f012e 	ldmdbne	pc!, {r1, r2, r3, r5, r8}	; <UNPREDICTABLE>
    13b8:	0b3a0e03 	bleq	e84bcc <__bss_end__+0xe7a1f4>
    13bc:	0b390b3b 	bleq	e440b0 <__bss_end__+0xe396d8>
    13c0:	01111927 	tsteq	r1, r7, lsr #18
    13c4:	18400612 	stmdane	r0, {r1, r4, r9, sl}^
    13c8:	01194297 			; <UNDEFINED> instruction: 0x01194297
    13cc:	0d000013 	stceq	0, cr0, [r0, #-76]	; 0xffffffb4
    13d0:	08030005 	stmdaeq	r3, {r0, r2}
    13d4:	0b3b0b3a 	bleq	ec40c4 <__bss_end__+0xeb96ec>
    13d8:	13490b39 	movtne	r0, #39737	; 0x9b39
    13dc:	42b71702 	adcsmi	r1, r7, #524288	; 0x80000
    13e0:	0e000017 	mcreq	0, 0, r0, cr0, cr7, {0}
    13e4:	0e030034 	mcreq	0, 0, r0, cr3, cr4, {1}
    13e8:	19341349 	ldmdbne	r4!, {r0, r3, r6, r8, r9, ip}
    13ec:	00001802 	andeq	r1, r0, r2, lsl #16
    13f0:	0182890f 	orreq	r8, r2, pc, lsl #18
    13f4:	31011101 	tstcc	r1, r1, lsl #2
    13f8:	00130113 	andseq	r0, r3, r3, lsl r1
    13fc:	828a1000 	addhi	r1, sl, #0, 0
    1400:	18020001 	stmdane	r2, {r0}
    1404:	00184291 	mulseq	r8, r1, r2
    1408:	82891100 	addhi	r1, r9, #0
    140c:	01110001 	tsteq	r1, r1
    1410:	00001331 	andeq	r1, r0, r1, lsr r3
    1414:	49010112 	stmdbmi	r1, {r1, r4, r8}
    1418:	00130113 	andseq	r0, r3, r3, lsl r1
    141c:	00211300 	eoreq	r1, r1, r0, lsl #6
    1420:	0b2f1349 	bleq	bc614c <__bss_end__+0xbbb774>
    1424:	2e140000 	cdpcs	0, 1, cr0, cr4, cr0, {0}
    1428:	03193f00 	tsteq	r9, #0, 30
    142c:	3b0b3a0e 	blcc	2cfc6c <__bss_end__+0x2c5294>
    1430:	270b390b 	strcs	r3, [fp, -fp, lsl #18]
    1434:	12011119 	andne	r1, r1, #1073741830	; 0x40000006
    1438:	97184006 	ldrls	r4, [r8, -r6]
    143c:	00001942 	andeq	r1, r0, r2, asr #18
    1440:	03000515 	movweq	r0, #1301	; 0x515
    1444:	3b0b3a08 	blcc	2cfc6c <__bss_end__+0x2c5294>
    1448:	490b390b 	stmdbmi	fp, {r0, r1, r3, r8, fp, ip, sp}
    144c:	00180213 	andseq	r0, r8, r3, lsl r2
    1450:	012e1600 			; <UNDEFINED> instruction: 0x012e1600
    1454:	0e03193f 			; <UNDEFINED> instruction: 0x0e03193f
    1458:	0b3b0b3a 	bleq	ec4148 <__bss_end__+0xeb9770>
    145c:	19270b39 	stmdbne	r7!, {r0, r3, r4, r5, r8, r9, fp}
    1460:	01111349 	tsteq	r1, r9, asr #6
    1464:	18400612 	stmdane	r0, {r1, r4, r9, sl}^
    1468:	01194297 			; <UNDEFINED> instruction: 0x01194297
    146c:	17000013 	smladne	r0, r3, r0, r0
    1470:	0e030005 	cdpeq	0, 0, cr0, cr3, cr5, {0}
    1474:	0b3b0b3a 	bleq	ec4164 <__bss_end__+0xeb978c>
    1478:	13490b39 	movtne	r0, #39737	; 0x9b39
    147c:	42b71702 	adcsmi	r1, r7, #524288	; 0x80000
    1480:	18000017 	stmdane	r0, {r0, r1, r2, r4}
    1484:	08030034 	stmdaeq	r3, {r2, r4, r5}
    1488:	0b3b0b3a 	bleq	ec4178 <__bss_end__+0xeb97a0>
    148c:	13490b39 	movtne	r0, #39737	; 0x9b39
    1490:	42b71702 	adcsmi	r1, r7, #524288	; 0x80000
    1494:	19000017 	stmdbne	r0, {r0, r1, r2, r4}
    1498:	1331011d 	teqne	r1, #1073741831	; 0x40000007
    149c:	42b80152 	adcsmi	r0, r8, #-2147483628	; 0x80000014
    14a0:	1201110b 	andne	r1, r1, #-1073741822	; 0xc0000002
    14a4:	590b5806 	stmdbpl	fp, {r1, r2, fp, ip, lr}
    14a8:	010b570b 	tsteq	fp, fp, lsl #14
    14ac:	1a000013 	bne	1500 <__code_start__-0x6b00>
    14b0:	13310005 	teqne	r1, #5, 0
    14b4:	42b71702 	adcsmi	r1, r7, #524288	; 0x80000
    14b8:	1b000017 	blne	151c <__code_start__-0x6ae4>
    14bc:	1331011d 	teqne	r1, #1073741831	; 0x40000007
    14c0:	42b80152 	adcsmi	r0, r8, #-2147483628	; 0x80000014
    14c4:	5817550b 	ldmdapl	r7, {r0, r1, r3, r8, sl, ip, lr}
    14c8:	570b590b 	strpl	r5, [fp, -fp, lsl #18]
    14cc:	0013010b 	andseq	r0, r3, fp, lsl #2
    14d0:	010b1c00 	tsteq	fp, r0, lsl #24
    14d4:	00001755 	andeq	r1, r0, r5, asr r7
    14d8:	0300341d 	movweq	r3, #1053	; 0x41d
    14dc:	3b0b3a0e 	blcc	2cfd1c <__bss_end__+0x2c5344>
    14e0:	490b390b 	stmdbmi	fp, {r0, r1, r3, r8, fp, ip, sp}
    14e4:	b7170213 			; <UNDEFINED> instruction: 0xb7170213
    14e8:	00001742 	andeq	r1, r0, r2, asr #14
    14ec:	55000b1e 	strpl	r0, [r0, #-2846]	; 0xfffff4e2
    14f0:	1f000017 	svcne	0x00000017
    14f4:	193f002e 	ldmdbne	pc!, {r1, r2, r3, r5}	; <UNPREDICTABLE>
    14f8:	0b3a0e03 	bleq	e84d0c <__bss_end__+0xe7a334>
    14fc:	0b390b3b 	bleq	e441f0 <__bss_end__+0xe39818>
    1500:	13491927 	movtne	r1, #39207	; 0x9927
    1504:	06120111 			; <UNDEFINED> instruction: 0x06120111
    1508:	42971840 	addsmi	r1, r7, #64, 16	; 0x400000
    150c:	20000019 	andcs	r0, r0, r9, lsl r0
    1510:	0e03012e 	adfeqsp	f0, f3, #0.5
    1514:	0b3b0b3a 	bleq	ec4204 <__bss_end__+0xeb982c>
    1518:	19270b39 	stmdbne	r7!, {r0, r3, r4, r5, r8, r9, fp}
    151c:	0b201349 	bleq	806248 <__bss_end__+0x7fb870>
    1520:	00001301 	andeq	r1, r0, r1, lsl #6
    1524:	03000521 	movweq	r0, #1313	; 0x521
    1528:	3b0b3a08 	blcc	2cfd50 <__bss_end__+0x2c5378>
    152c:	490b390b 	stmdbmi	fp, {r0, r1, r3, r8, fp, ip, sp}
    1530:	22000013 	andcs	r0, r0, #19, 0
    1534:	193f002e 	ldmdbne	pc!, {r1, r2, r3, r5}	; <UNPREDICTABLE>
    1538:	0e6e193c 			; <UNDEFINED> instruction: 0x0e6e193c
    153c:	0b3a0e03 	bleq	e84d50 <__bss_end__+0xe7a378>
    1540:	0b390b3b 	bleq	e44234 <__bss_end__+0xe3985c>
    1544:	01000000 	mrseq	r0, (UNDEF: 0)
    1548:	0e250111 	mcreq	1, 1, r0, cr5, cr1, {0}
    154c:	0e030b13 	vmoveq.32	d3[0], r0
    1550:	01110e1b 	tsteq	r1, fp, lsl lr
    1554:	17100612 			; <UNDEFINED> instruction: 0x17100612
    1558:	24020000 	strcs	r0, [r2], #-0
    155c:	3e0b0b00 	vmlacc.f64	d0, d11, d0
    1560:	0008030b 	andeq	r0, r8, fp, lsl #6
    1564:	00240300 	eoreq	r0, r4, r0, lsl #6
    1568:	0b3e0b0b 	bleq	f8419c <__bss_end__+0xf797c4>
    156c:	00000e03 	andeq	r0, r0, r3, lsl #28
    1570:	27011504 	strcs	r1, [r1, -r4, lsl #10]
    1574:	01134919 	tsteq	r3, r9, lsl r9
    1578:	05000013 	streq	r0, [r0, #-19]	; 0xffffffed
    157c:	13490005 	movtne	r0, #36869	; 0x9005
    1580:	34060000 	strcc	r0, [r6], #-0
    1584:	3a0e0300 	bcc	38218c <__bss_end__+0x3777b4>
    1588:	390b3b0b 	stmdbcc	fp, {r0, r1, r3, r8, r9, fp, ip, sp}
    158c:	3f13490b 	svccc	0x0013490b
    1590:	00193c19 	andseq	r3, r9, r9, lsl ip
    1594:	000f0700 	andeq	r0, pc, r0, lsl #14
    1598:	13490b0b 	movtne	r0, #39691	; 0x9b0b
    159c:	26080000 	strcs	r0, [r8], -r0
    15a0:	00134900 	andseq	r4, r3, r0, lsl #18
    15a4:	00340900 	eorseq	r0, r4, r0, lsl #18
    15a8:	0b3a1347 	bleq	e862cc <__bss_end__+0xe7b8f4>
    15ac:	0b390b3b 	bleq	e442a0 <__bss_end__+0xe398c8>
    15b0:	00001802 	andeq	r1, r0, r2, lsl #16
    15b4:	3f012e0a 	svccc	0x00012e0a
    15b8:	3a0e0319 	bcc	382224 <__bss_end__+0x37784c>
    15bc:	390b3b0b 	stmdbcc	fp, {r0, r1, r3, r8, r9, fp, ip, sp}
    15c0:	1119270b 	tstne	r9, fp, lsl #14
    15c4:	40061201 	andmi	r1, r6, r1, lsl #4
    15c8:	19429718 	stmdbne	r2, {r3, r4, r8, r9, sl, ip, pc}^
    15cc:	00001301 	andeq	r1, r0, r1, lsl #6
    15d0:	0300050b 	movweq	r0, #1291	; 0x50b
    15d4:	3b0b3a08 	blcc	2cfdfc <__bss_end__+0x2c5424>
    15d8:	490b390b 	stmdbmi	fp, {r0, r1, r3, r8, fp, ip, sp}
    15dc:	00180213 	andseq	r0, r8, r3, lsl r2
    15e0:	002e0c00 	eoreq	r0, lr, r0, lsl #24
    15e4:	0e03193f 			; <UNDEFINED> instruction: 0x0e03193f
    15e8:	0b3b0b3a 	bleq	ec42d8 <__bss_end__+0xeb9900>
    15ec:	19270b39 	stmdbne	r7!, {r0, r3, r4, r5, r8, r9, fp}
    15f0:	06120111 			; <UNDEFINED> instruction: 0x06120111
    15f4:	42971840 	addsmi	r1, r7, #64, 16	; 0x400000
    15f8:	0d000019 	stceq	0, cr0, [r0, #-100]	; 0xffffff9c
    15fc:	0e03012e 	adfeqsp	f0, f3, #0.5
    1600:	0b3b0b3a 	bleq	ec42f0 <__bss_end__+0xeb9918>
    1604:	19270b39 	stmdbne	r7!, {r0, r3, r4, r5, r8, r9, fp}
    1608:	01111349 	tsteq	r1, r9, asr #6
    160c:	18400612 	stmdane	r0, {r1, r4, r9, sl}^
    1610:	01194297 			; <UNDEFINED> instruction: 0x01194297
    1614:	0e000013 	mcreq	0, 0, r0, cr0, cr3, {0}
    1618:	08030005 	stmdaeq	r3, {r0, r2}
    161c:	0b3b0b3a 	bleq	ec430c <__bss_end__+0xeb9934>
    1620:	13490b39 	movtne	r0, #39737	; 0x9b39
    1624:	42b71702 	adcsmi	r1, r7, #524288	; 0x80000
    1628:	0f000017 	svceq	0x00000017
    162c:	01018289 	smlabbeq	r1, r9, r2, r8
    1630:	13310111 	teqne	r1, #1073741828	; 0x40000004
    1634:	8a100000 	bhi	40163c <__bss_end__+0x3f6c64>
    1638:	02000182 	andeq	r0, r0, #-2147483616	; 0x80000020
    163c:	18429118 	stmdane	r2, {r3, r4, r8, ip, pc}^
    1640:	2e110000 	cdpcs	0, 1, cr0, cr1, cr0, {0}
    1644:	3c193f00 	ldccc	15, cr3, [r9], {-0}
    1648:	030e6e19 	movweq	r6, #60953	; 0xee19
    164c:	3b0b3a0e 	blcc	2cfe8c <__bss_end__+0x2c54b4>
    1650:	000b390b 	andeq	r3, fp, fp, lsl #18
    1654:	11010000 	mrsne	r0, (UNDEF: 1)
    1658:	130e2501 	movwne	r2, #58625	; 0xe501
    165c:	1b0e030b 	blne	382290 <__bss_end__+0x3778b8>
    1660:	1201110e 	andne	r1, r1, #-2147483645	; 0x80000003
    1664:	00171006 	andseq	r1, r7, r6
    1668:	00240200 	eoreq	r0, r4, r0, lsl #4
    166c:	0b3e0b0b 	bleq	f842a0 <__bss_end__+0xf798c8>
    1670:	00000803 	andeq	r0, r0, r3, lsl #16
    1674:	0b002403 	bleq	a688 <buf.3948+0xb8>
    1678:	030b3e0b 	movweq	r3, #48651	; 0xbe0b
    167c:	0400000e 	streq	r0, [r0], #-14
    1680:	19270115 	stmdbne	r7!, {r0, r2, r4, r8}
    1684:	13011349 	movwne	r1, #4937	; 0x1349
    1688:	05050000 	streq	r0, [r5, #-0]
    168c:	00134900 	andseq	r4, r3, r0, lsl #18
    1690:	00340600 	eorseq	r0, r4, r0, lsl #12
    1694:	0b3a0e03 	bleq	e84ea8 <__bss_end__+0xe7a4d0>
    1698:	0b390b3b 	bleq	e4438c <__bss_end__+0xe399b4>
    169c:	193f1349 	ldmdbne	pc!, {r0, r3, r6, r8, r9, ip}	; <UNPREDICTABLE>
    16a0:	0000193c 	andeq	r1, r0, ip, lsr r9
    16a4:	0b000f07 	bleq	52c8 <__code_start__-0x2d38>
    16a8:	0013490b 	andseq	r4, r3, fp, lsl #18
    16ac:	00260800 	eoreq	r0, r6, r0, lsl #16
    16b0:	00001349 	andeq	r1, r0, r9, asr #6
    16b4:	3f012e09 	svccc	0x00012e09
    16b8:	3a0e0319 	bcc	382324 <__bss_end__+0x37794c>
    16bc:	390b3b0b 	stmdbcc	fp, {r0, r1, r3, r8, r9, fp, ip, sp}
    16c0:	4919270b 	ldmdbmi	r9, {r0, r1, r3, r8, r9, sl, sp}
    16c4:	12011113 	andne	r1, r1, #-1073741820	; 0xc0000004
    16c8:	97184006 	ldrls	r4, [r8, -r6]
    16cc:	13011942 	movwne	r1, #6466	; 0x1942
    16d0:	050a0000 	streq	r0, [sl, #-0]
    16d4:	3a0e0300 	bcc	3822dc <__bss_end__+0x377904>
    16d8:	390b3b0b 	stmdbcc	fp, {r0, r1, r3, r8, r9, fp, ip, sp}
    16dc:	0213490b 	andseq	r4, r3, #180224	; 0x2c000
    16e0:	0b000018 	bleq	1748 <__code_start__-0x68b8>
    16e4:	08030005 	stmdaeq	r3, {r0, r2}
    16e8:	0b3b0b3a 	bleq	ec43d8 <__bss_end__+0xeb9a00>
    16ec:	13490b39 	movtne	r0, #39737	; 0x9b39
    16f0:	42b71702 	adcsmi	r1, r7, #524288	; 0x80000
    16f4:	0c000017 	stceq	0, cr0, [r0], {23}
    16f8:	08030034 	stmdaeq	r3, {r2, r4, r5}
    16fc:	0b3b0b3a 	bleq	ec43ec <__bss_end__+0xeb9a14>
    1700:	13490b39 	movtne	r0, #39737	; 0x9b39
    1704:	42b71702 	adcsmi	r1, r7, #524288	; 0x80000
    1708:	00000017 	andeq	r0, r0, r7, lsl r0
    170c:	25011101 	strcs	r1, [r1, #-257]	; 0xfffffeff
    1710:	030b130e 	movweq	r1, #45838	; 0xb30e
    1714:	110e1b0e 	tstne	lr, lr, lsl #22
    1718:	10061201 	andne	r1, r6, r1, lsl #4
    171c:	02000017 	andeq	r0, r0, #23, 0
    1720:	0b0b0024 	bleq	2c17b8 <__bss_end__+0x2b6de0>
    1724:	08030b3e 	stmdaeq	r3, {r1, r2, r3, r4, r5, r8, r9, fp}
    1728:	24030000 	strcs	r0, [r3], #-0
    172c:	3e0b0b00 	vmlacc.f64	d0, d11, d0
    1730:	000e030b 	andeq	r0, lr, fp, lsl #6
    1734:	01150400 	tsteq	r5, r0, lsl #8
    1738:	13491927 	movtne	r1, #39207	; 0x9927
    173c:	00001301 	andeq	r1, r0, r1, lsl #6
    1740:	49000505 	stmdbmi	r0, {r0, r2, r8, sl}
    1744:	06000013 			; <UNDEFINED> instruction: 0x06000013
    1748:	0e030034 	mcreq	0, 0, r0, cr3, cr4, {1}
    174c:	0b3b0b3a 	bleq	ec443c <__bss_end__+0xeb9a64>
    1750:	13490b39 	movtne	r0, #39737	; 0x9b39
    1754:	193c193f 	ldmdbne	ip!, {r0, r1, r2, r3, r4, r5, r8, fp, ip}
    1758:	0f070000 	svceq	0x00070000
    175c:	490b0b00 	stmdbmi	fp, {r8, r9, fp}
    1760:	08000013 	stmdaeq	r0, {r0, r1, r4}
    1764:	13490026 	movtne	r0, #36902	; 0x9026
    1768:	2e090000 	cdpcs	0, 0, cr0, cr9, cr0, {0}
    176c:	03193f01 	tsteq	r9, #1, 30
    1770:	3b0b3a0e 	blcc	2cffb0 <__bss_end__+0x2c55d8>
    1774:	270b390b 	strcs	r3, [fp, -fp, lsl #18]
    1778:	11134919 	tstne	r3, r9, lsl r9
    177c:	40061201 	andmi	r1, r6, r1, lsl #4
    1780:	19429718 	stmdbne	r2, {r3, r4, r8, r9, sl, ip, pc}^
    1784:	050a0000 	streq	r0, [sl, #-0]
    1788:	3a080300 	bcc	202390 <__bss_end__+0x1f79b8>
    178c:	390b3b0b 	stmdbcc	fp, {r0, r1, r3, r8, r9, fp, ip, sp}
    1790:	0213490b 	andseq	r4, r3, #180224	; 0x2c000
    1794:	1742b717 	smlaldne	fp, r2, r7, r7
    1798:	01000000 	mrseq	r0, (UNDEF: 0)
    179c:	0e250111 	mcreq	1, 1, r0, cr5, cr1, {0}
    17a0:	0e030b13 	vmoveq.32	d3[0], r0
    17a4:	01110e1b 	tsteq	r1, fp, lsl lr
    17a8:	17100612 			; <UNDEFINED> instruction: 0x17100612
    17ac:	24020000 	strcs	r0, [r2], #-0
    17b0:	3e0b0b00 	vmlacc.f64	d0, d11, d0
    17b4:	0008030b 	andeq	r0, r8, fp, lsl #6
    17b8:	00240300 	eoreq	r0, r4, r0, lsl #6
    17bc:	0b3e0b0b 	bleq	f843f0 <__bss_end__+0xf79a18>
    17c0:	00000e03 	andeq	r0, r0, r3, lsl #28
    17c4:	27011504 	strcs	r1, [r1, -r4, lsl #10]
    17c8:	01134919 	tsteq	r3, r9, lsl r9
    17cc:	05000013 	streq	r0, [r0, #-19]	; 0xffffffed
    17d0:	13490005 	movtne	r0, #36869	; 0x9005
    17d4:	34060000 	strcc	r0, [r6], #-0
    17d8:	3a0e0300 	bcc	3823e0 <__bss_end__+0x377a08>
    17dc:	390b3b0b 	stmdbcc	fp, {r0, r1, r3, r8, r9, fp, ip, sp}
    17e0:	3f13490b 	svccc	0x0013490b
    17e4:	00193c19 	andseq	r3, r9, r9, lsl ip
    17e8:	000f0700 	andeq	r0, pc, r0, lsl #14
    17ec:	13490b0b 	movtne	r0, #39691	; 0x9b0b
    17f0:	26080000 	strcs	r0, [r8], -r0
    17f4:	00134900 	andseq	r4, r3, r0, lsl #18
    17f8:	012e0900 			; <UNDEFINED> instruction: 0x012e0900
    17fc:	0e03193f 			; <UNDEFINED> instruction: 0x0e03193f
    1800:	0b3b0b3a 	bleq	ec44f0 <__bss_end__+0xeb9b18>
    1804:	19270b39 	stmdbne	r7!, {r0, r3, r4, r5, r8, r9, fp}
    1808:	01111349 	tsteq	r1, r9, asr #6
    180c:	18400612 	stmdane	r0, {r1, r4, r9, sl}^
    1810:	01194297 			; <UNDEFINED> instruction: 0x01194297
    1814:	0a000013 	beq	1868 <__code_start__-0x6798>
    1818:	08030005 	stmdaeq	r3, {r0, r2}
    181c:	0b3b0b3a 	bleq	ec450c <__bss_end__+0xeb9b34>
    1820:	13490b39 	movtne	r0, #39737	; 0x9b39
    1824:	00001802 	andeq	r1, r0, r2, lsl #16
    1828:	0300050b 	movweq	r0, #1291	; 0x50b
    182c:	3b0b3a08 	blcc	2d0054 <__bss_end__+0x2c567c>
    1830:	490b390b 	stmdbmi	fp, {r0, r1, r3, r8, fp, ip, sp}
    1834:	b7170213 			; <UNDEFINED> instruction: 0xb7170213
    1838:	00001742 	andeq	r1, r0, r2, asr #14
    183c:	0300340c 	movweq	r3, #1036	; 0x40c
    1840:	3b0b3a08 	blcc	2d0068 <__bss_end__+0x2c5690>
    1844:	490b390b 	stmdbmi	fp, {r0, r1, r3, r8, fp, ip, sp}
    1848:	b7170213 			; <UNDEFINED> instruction: 0xb7170213
    184c:	00001742 	andeq	r1, r0, r2, asr #14
    1850:	01110100 	tsteq	r1, r0, lsl #2
    1854:	0b130e25 	bleq	4c50f0 <__bss_end__+0x4ba718>
    1858:	0e1b0e03 	cdpeq	14, 1, cr0, cr11, cr3, {0}
    185c:	01111755 	tsteq	r1, r5, asr r7
    1860:	00001710 	andeq	r1, r0, r0, lsl r7
    1864:	0b002402 	bleq	a874 <buf.3948+0x2a4>
    1868:	030b3e0b 	movweq	r3, #48651	; 0xbe0b
    186c:	03000008 	movweq	r0, #8
    1870:	0e030016 	mcreq	0, 0, r0, cr3, cr6, {0}
    1874:	0b3b0b3a 	bleq	ec4564 <__bss_end__+0xeb9b8c>
    1878:	13490b39 	movtne	r0, #39737	; 0x9b39
    187c:	24040000 	strcs	r0, [r4], #-0
    1880:	3e0b0b00 	vmlacc.f64	d0, d11, d0
    1884:	000e030b 	andeq	r0, lr, fp, lsl #6
    1888:	00260500 	eoreq	r0, r6, r0, lsl #10
    188c:	00001349 	andeq	r1, r0, r9, asr #6
    1890:	27011506 	strcs	r1, [r1, -r6, lsl #10]
    1894:	01134919 	tsteq	r3, r9, lsl r9
    1898:	07000013 	smladeq	r0, r3, r0, r0
    189c:	13490005 	movtne	r0, #36869	; 0x9005
    18a0:	34080000 	strcc	r0, [r8], #-0
    18a4:	3a0e0300 	bcc	3824ac <__bss_end__+0x377ad4>
    18a8:	390b3b0b 	stmdbcc	fp, {r0, r1, r3, r8, r9, fp, ip, sp}
    18ac:	3f13490b 	svccc	0x0013490b
    18b0:	00193c19 	andseq	r3, r9, r9, lsl ip
    18b4:	000f0900 	andeq	r0, pc, r0, lsl #18
    18b8:	13490b0b 	movtne	r0, #39691	; 0x9b0b
    18bc:	2e0a0000 	cdpcs	0, 0, cr0, cr10, cr0, {0}
    18c0:	03193f01 	tsteq	r9, #1, 30
    18c4:	3b0b3a0e 	blcc	2d0104 <__bss_end__+0x2c572c>
    18c8:	270b390b 	strcs	r3, [fp, -fp, lsl #18]
    18cc:	11134919 	tstne	r3, r9, lsl r9
    18d0:	40061201 	andmi	r1, r6, r1, lsl #4
    18d4:	19429718 	stmdbne	r2, {r3, r4, r8, r9, sl, ip, pc}^
    18d8:	00001301 	andeq	r1, r0, r1, lsl #6
    18dc:	0300050b 	movweq	r0, #1291	; 0x50b
    18e0:	3b0b3a08 	blcc	2d0108 <__bss_end__+0x2c5730>
    18e4:	490b390b 	stmdbmi	fp, {r0, r1, r3, r8, fp, ip, sp}
    18e8:	b7170213 			; <UNDEFINED> instruction: 0xb7170213
    18ec:	00001742 	andeq	r1, r0, r2, asr #14
    18f0:	0300340c 	movweq	r3, #1036	; 0x40c
    18f4:	3b0b3a08 	blcc	2d011c <__bss_end__+0x2c5744>
    18f8:	490b390b 	stmdbmi	fp, {r0, r1, r3, r8, fp, ip, sp}
    18fc:	b7170213 			; <UNDEFINED> instruction: 0xb7170213
    1900:	00001742 	andeq	r1, r0, r2, asr #14
    1904:	01110100 	tsteq	r1, r0, lsl #2
    1908:	0b130e25 	bleq	4c51a4 <__bss_end__+0x4ba7cc>
    190c:	0e1b0e03 	cdpeq	14, 1, cr0, cr11, cr3, {0}
    1910:	06120111 			; <UNDEFINED> instruction: 0x06120111
    1914:	00001710 	andeq	r1, r0, r0, lsl r7
    1918:	0b002402 	bleq	a928 <buf.3948+0x358>
    191c:	030b3e0b 	movweq	r3, #48651	; 0xbe0b
    1920:	03000008 	movweq	r0, #8
    1924:	0b0b0024 	bleq	2c19bc <__bss_end__+0x2b6fe4>
    1928:	0e030b3e 	vmoveq.16	d3[0], r0
    192c:	15040000 	strne	r0, [r4, #-0]
    1930:	49192701 	ldmdbmi	r9, {r0, r8, r9, sl, sp}
    1934:	00130113 	andseq	r0, r3, r3, lsl r1
    1938:	00050500 	andeq	r0, r5, r0, lsl #10
    193c:	00001349 	andeq	r1, r0, r9, asr #6
    1940:	03003406 	movweq	r3, #1030	; 0x406
    1944:	3b0b3a0e 	blcc	2d0184 <__bss_end__+0x2c57ac>
    1948:	490b390b 	stmdbmi	fp, {r0, r1, r3, r8, fp, ip, sp}
    194c:	3c193f13 	ldccc	15, cr3, [r9], {19}
    1950:	07000019 	smladeq	r0, r9, r0, r0
    1954:	0b0b000f 	bleq	2c1998 <__bss_end__+0x2b6fc0>
    1958:	00001349 	andeq	r1, r0, r9, asr #6
    195c:	49002608 	stmdbmi	r0, {r3, r9, sl, sp}
    1960:	09000013 	stmdbeq	r0, {r0, r1, r4}
    1964:	193f002e 	ldmdbne	pc!, {r1, r2, r3, r5}	; <UNPREDICTABLE>
    1968:	0b3a0e03 	bleq	e8517c <__bss_end__+0xe7a7a4>
    196c:	0b390b3b 	bleq	e44660 <__bss_end__+0xe39c88>
    1970:	01111927 	tsteq	r1, r7, lsr #18
    1974:	18400612 	stmdane	r0, {r1, r4, r9, sl}^
    1978:	00194297 	mulseq	r9, r7, r2
    197c:	11010000 	mrsne	r0, (UNDEF: 1)
    1980:	130e2501 	movwne	r2, #58625	; 0xe501
    1984:	1b0e030b 	blne	3825b8 <__bss_end__+0x377be0>
    1988:	1201110e 	andne	r1, r1, #-2147483645	; 0x80000003
    198c:	00171006 	andseq	r1, r7, r6
    1990:	00240200 	eoreq	r0, r4, r0, lsl #4
    1994:	0b3e0b0b 	bleq	f845c8 <__bss_end__+0xf79bf0>
    1998:	00000803 	andeq	r0, r0, r3, lsl #16
    199c:	0b002403 	bleq	a9b0 <buf.3948+0x3e0>
    19a0:	030b3e0b 	movweq	r3, #48651	; 0xbe0b
    19a4:	0400000e 	streq	r0, [r0], #-14
    19a8:	13490026 	movtne	r0, #36902	; 0x9026
    19ac:	16050000 	strne	r0, [r5], -r0
    19b0:	3a0e0300 	bcc	3825b8 <__bss_end__+0x377be0>
    19b4:	390b3b0b 	stmdbcc	fp, {r0, r1, r3, r8, r9, fp, ip, sp}
    19b8:	0013490b 	andseq	r4, r3, fp, lsl #18
    19bc:	01040600 	tsteq	r4, r0, lsl #12
    19c0:	0b0b0b3e 	bleq	2c46c0 <__bss_end__+0x2b9ce8>
    19c4:	0b3a1349 	bleq	e866f0 <__bss_end__+0xe7bd18>
    19c8:	0b390b3b 	bleq	e446bc <__bss_end__+0xe39ce4>
    19cc:	00001301 	andeq	r1, r0, r1, lsl #6
    19d0:	03002807 	movweq	r2, #2055	; 0x807
    19d4:	000b1c0e 	andeq	r1, fp, lr, lsl #24
    19d8:	00340800 	eorseq	r0, r4, r0, lsl #16
    19dc:	0b3a0e03 	bleq	e851f0 <__bss_end__+0xe7a818>
    19e0:	0b390b3b 	bleq	e446d4 <__bss_end__+0xe39cfc>
    19e4:	061c1349 	ldreq	r1, [ip], -r9, asr #6
    19e8:	2e090000 	cdpcs	0, 0, cr0, cr9, cr0, {0}
    19ec:	03193f01 	tsteq	r9, #1, 30
    19f0:	3b0b3a0e 	blcc	2d0230 <__bss_end__+0x2c5858>
    19f4:	270b390b 	strcs	r3, [fp, -fp, lsl #18]
    19f8:	11134919 	tstne	r3, r9, lsl r9
    19fc:	40061201 	andmi	r1, r6, r1, lsl #4
    1a00:	19429718 	stmdbne	r2, {r3, r4, r8, r9, sl, ip, pc}^
    1a04:	00001301 	andeq	r1, r0, r1, lsl #6
    1a08:	0300050a 	movweq	r0, #1290	; 0x50a
    1a0c:	3b0b3a08 	blcc	2d0234 <__bss_end__+0x2c585c>
    1a10:	490b390b 	stmdbmi	fp, {r0, r1, r3, r8, fp, ip, sp}
    1a14:	b7170213 			; <UNDEFINED> instruction: 0xb7170213
    1a18:	00001742 	andeq	r1, r0, r2, asr #14
    1a1c:	0300340b 	movweq	r3, #1035	; 0x40b
    1a20:	3b0b3a0e 	blcc	2d0260 <__bss_end__+0x2c5888>
    1a24:	490b390b 	stmdbmi	fp, {r0, r1, r3, r8, fp, ip, sp}
    1a28:	b7170213 			; <UNDEFINED> instruction: 0xb7170213
    1a2c:	00001742 	andeq	r1, r0, r2, asr #14
    1a30:	0300340c 	movweq	r3, #1036	; 0x40c
    1a34:	3b0b3a08 	blcc	2d025c <__bss_end__+0x2c5884>
    1a38:	490b390b 	stmdbmi	fp, {r0, r1, r3, r8, fp, ip, sp}
    1a3c:	b7170213 			; <UNDEFINED> instruction: 0xb7170213
    1a40:	00001742 	andeq	r1, r0, r2, asr #14
    1a44:	0182890d 	orreq	r8, r2, sp, lsl #18
    1a48:	31011101 	tstcc	r1, r1, lsl #2
    1a4c:	0e000013 	mcreq	0, 0, r0, cr0, cr3, {0}
    1a50:	0001828a 	andeq	r8, r1, sl, lsl #5
    1a54:	42911802 	addsmi	r1, r1, #131072	; 0x20000
    1a58:	0f000018 	svceq	0x00000018
    1a5c:	193f012e 	ldmdbne	pc!, {r1, r2, r3, r5, r8}	; <UNPREDICTABLE>
    1a60:	0b3a0e03 	bleq	e85274 <__bss_end__+0xe7a89c>
    1a64:	0b390b3b 	bleq	e44758 <__bss_end__+0xe39d80>
    1a68:	01111927 	tsteq	r1, r7, lsr #18
    1a6c:	18400612 	stmdane	r0, {r1, r4, r9, sl}^
    1a70:	01194297 			; <UNDEFINED> instruction: 0x01194297
    1a74:	10000013 	andne	r0, r0, r3, lsl r0
    1a78:	01018289 	smlabbeq	r1, r9, r2, r8
    1a7c:	13310111 	teqne	r1, #1073741828	; 0x40000004
    1a80:	00001301 	andeq	r1, r0, r1, lsl #6
    1a84:	01828911 	orreq	r8, r2, r1, lsl r9
    1a88:	31011100 	mrscc	r1, (UNDEF: 17)
    1a8c:	12000013 	andne	r0, r0, #19, 0
    1a90:	0e030005 	cdpeq	0, 0, cr0, cr3, cr5, {0}
    1a94:	0b3b0b3a 	bleq	ec4784 <__bss_end__+0xeb9dac>
    1a98:	13490b39 	movtne	r0, #39737	; 0x9b39
    1a9c:	42b71702 	adcsmi	r1, r7, #524288	; 0x80000
    1aa0:	13000017 	movwne	r0, #23
    1aa4:	0e03012e 	adfeqsp	f0, f3, #0.5
    1aa8:	0b3b0b3a 	bleq	ec4798 <__bss_end__+0xeb9dc0>
    1aac:	19270b39 	stmdbne	r7!, {r0, r3, r4, r5, r8, r9, fp}
    1ab0:	0b201349 	bleq	8067dc <__bss_end__+0x7fbe04>
    1ab4:	00001301 	andeq	r1, r0, r1, lsl #6
    1ab8:	03000514 	movweq	r0, #1300	; 0x514
    1abc:	3b0b3a08 	blcc	2d02e4 <__bss_end__+0x2c590c>
    1ac0:	490b390b 	stmdbmi	fp, {r0, r1, r3, r8, fp, ip, sp}
    1ac4:	15000013 	strne	r0, [r0, #-19]	; 0xffffffed
    1ac8:	193f002e 	ldmdbne	pc!, {r1, r2, r3, r5}	; <UNPREDICTABLE>
    1acc:	0e6e193c 			; <UNDEFINED> instruction: 0x0e6e193c
    1ad0:	0b3a0e03 	bleq	e852e4 <__bss_end__+0xe7a90c>
    1ad4:	0b390b3b 	bleq	e447c8 <__bss_end__+0xe39df0>
    1ad8:	Address 0x0000000000001ad8 is out of bounds.


Disassembly of section .debug_loc:

00000000 <.debug_loc>:
       0:	01000001 	tsteq	r0, r1
       4:	00000001 	andeq	r0, r0, r1
       8:	00080000 	andeq	r0, r8, r0
       c:	00140000 	andseq	r0, r4, r0
      10:	00020000 	andeq	r0, r2, r0
      14:	00149f30 	andseq	r9, r4, r0, lsr pc
      18:	00340000 	eorseq	r0, r4, r0
      1c:	00010000 	andeq	r0, r1, r0
      20:	00003455 	andeq	r3, r0, r5, asr r4
      24:	00003c00 	andeq	r3, r0, r0, lsl #24
      28:	54000100 	strpl	r0, [r0], #-256	; 0xffffff00
      2c:	0000003c 	andeq	r0, r0, ip, lsr r0
      30:	000000b4 	strheq	r0, [r0], -r4
      34:	b4550001 	ldrblt	r0, [r5], #-1
      38:	c4000000 	strgt	r0, [r0], #-0
      3c:	01000000 	mrseq	r0, (UNDEF: 0)
      40:	00005000 	andeq	r5, r0, r0
      44:	00000000 	andeq	r0, r0, r0
      48:	00030000 	andeq	r0, r3, r0
      4c:	00080000 	andeq	r0, r8, r0
      50:	00140000 	andseq	r0, r4, r0
      54:	00020000 	andeq	r0, r2, r0
      58:	00149f30 	andseq	r9, r4, r0, lsr pc
      5c:	00b40000 	adcseq	r0, r4, r0
      60:	00010000 	andeq	r0, r1, r0
      64:	00000056 	andeq	r0, r0, r6, asr r0
	...
      70:	14000000 	strne	r0, [r0], #-0
      74:	3c000000 	stccc	0, cr0, [r0], {-0}
      78:	01000000 	mrseq	r0, (UNDEF: 0)
      7c:	00705400 	rsbseq	r5, r0, r0, lsl #8
      80:	007b0000 	rsbseq	r0, fp, r0
      84:	00010000 	andeq	r0, r1, r0
      88:	00007b50 	andeq	r7, r0, r0, asr fp
      8c:	0000a400 	andeq	sl, r0, r0, lsl #8
      90:	54000100 	strpl	r0, [r0], #-256	; 0xffffff00
	...
      9c:	00440001 	subeq	r0, r4, r1
      a0:	005c0000 	subseq	r0, ip, r0
      a4:	00020000 	andeq	r0, r2, r0
      a8:	00009f40 	andeq	r9, r0, r0, asr #30
      ac:	00000000 	andeq	r0, r0, r0
      b0:	00010000 	andeq	r0, r1, r0
      b4:	00000044 	andeq	r0, r0, r4, asr #32
      b8:	0000005c 	andeq	r0, r0, ip, asr r0
      bc:	bbf20006 	bllt	ffc800dc <__bss_end__+0xffc75704>
      c0:	00000003 	andeq	r0, r0, r3
	...
      cc:	00440001 	subeq	r0, r4, r1
      d0:	005c0000 	subseq	r0, ip, r0
      d4:	00060000 	andeq	r0, r6, r0
      d8:	009d6803 	addseq	r6, sp, r3, lsl #16
      dc:	00009f00 	andeq	r9, r0, r0, lsl #30
	...
      ec:	00000310 	andeq	r0, r0, r0, lsl r3
      f0:	00000328 	andeq	r0, r0, r8, lsr #6
      f4:	28500001 	ldmdacs	r0, {r0}^
      f8:	a0000003 	andge	r0, r0, r3
      fc:	01000003 	tsteq	r0, r3
     100:	03a05600 	moveq	r5, #0, 12
     104:	03ac0000 			; <UNDEFINED> instruction: 0x03ac0000
     108:	00040000 	andeq	r0, r4, r0
     10c:	9f5001f3 	svcls	0x005001f3
	...
     11c:	03300000 	teqeq	r0, #0, 0
     120:	033b0000 	teqeq	fp, #0, 0
     124:	00010000 	andeq	r0, r1, r0
     128:	00033b50 	andeq	r3, r3, r0, asr fp
     12c:	0003a000 	andeq	sl, r3, r0
     130:	54000100 	strpl	r0, [r0], #-256	; 0xffffff00
     134:	000003a0 	andeq	r0, r0, r0, lsr #7
     138:	000003ac 	andeq	r0, r0, ip, lsr #7
     13c:	5c700003 	ldclpl	0, cr0, [r0], #-12
     140:	0000009f 	muleq	r0, pc, r0	; <UNPREDICTABLE>
	...
     14c:	0001f400 	andeq	pc, r1, r0, lsl #8
     150:	00020400 	andeq	r0, r2, r0, lsl #8
     154:	50000100 	andpl	r0, r0, r0, lsl #2
     158:	00000204 	andeq	r0, r0, r4, lsl #4
     15c:	00000310 	andeq	r0, r0, r0, lsl r3
     160:	00540001 	subseq	r0, r4, r1
     164:	00000000 	andeq	r0, r0, r0
     168:	01000000 	mrseq	r0, (UNDEF: 0)
     16c:	00000000 	andeq	r0, r0, r0
     170:	08000000 	stmdaeq	r0, {}	; <UNPREDICTABLE>
     174:	18000002 	stmdane	r0, {r1}
     178:	03000002 	movweq	r0, #2
     17c:	9f5c7400 	svcls	0x005c7400
     180:	00000218 	andeq	r0, r0, r8, lsl r2
     184:	00000280 	andeq	r0, r0, r0, lsl #5
     188:	80550001 	subshi	r0, r5, r1
     18c:	a8000002 	stmdage	r0, {r1}
     190:	03000002 	movweq	r0, #2
     194:	9f5c7400 	svcls	0x005c7400
     198:	000002a8 	andeq	r0, r0, r8, lsr #5
     19c:	00000310 	andeq	r0, r0, r0, lsl r3
     1a0:	00550001 	subseq	r0, r5, r1
	...
     1ac:	a4000000 	strge	r0, [r0], #-0
     1b0:	af000001 	svcge	0x00000001
     1b4:	01000001 	tsteq	r0, r1
     1b8:	01af5000 			; <UNDEFINED> instruction: 0x01af5000
     1bc:	01f40000 	mvnseq	r0, r0
     1c0:	00010000 	andeq	r0, r1, r0
     1c4:	00000055 	andeq	r0, r0, r5, asr r0
	...
     1d4:	0001b400 	andeq	fp, r1, r0, lsl #8
     1d8:	0001b800 	andeq	fp, r1, r0, lsl #16
     1dc:	50000100 	andpl	r0, r0, r0, lsl #2
     1e0:	000001b8 			; <UNDEFINED> instruction: 0x000001b8
     1e4:	000001c4 	andeq	r0, r0, r4, asr #3
     1e8:	c4540001 	ldrbgt	r0, [r4], #-1
     1ec:	d7000001 	strle	r0, [r0, -r1]
     1f0:	01000001 	tsteq	r0, r1
     1f4:	01d75000 	bicseq	r5, r7, r0
     1f8:	01f40000 	mvnseq	r0, r0
     1fc:	00010000 	andeq	r0, r1, r0
     200:	00000054 	andeq	r0, r0, r4, asr r0
	...
     210:	6c000000 	stcvs	0, cr0, [r0], {-0}
     214:	84000001 	strhi	r0, [r0], #-1
     218:	01000001 	tsteq	r0, r1
     21c:	01845000 	orreq	r5, r4, r0
     220:	01900000 	orrseq	r0, r0, r0
     224:	00030000 	andeq	r0, r3, r0
     228:	909f5c70 	addsls	r5, pc, r0, ror ip	; <UNPREDICTABLE>
     22c:	94000001 	strls	r0, [r0], #-1
     230:	04000001 	streq	r0, [r0], #-1
     234:	5001f300 	andpl	pc, r1, r0, lsl #6
     238:	0001949f 	muleq	r1, pc, r4	; <UNPREDICTABLE>
     23c:	00019800 	andeq	r9, r1, r0, lsl #16
     240:	50000100 	andpl	r0, r0, r0, lsl #2
     244:	00000198 	muleq	r0, r8, r1
     248:	000001a4 	andeq	r0, r0, r4, lsr #3
     24c:	01f30004 	mvnseq	r0, r4
     250:	00009f50 	andeq	r9, r0, r0, asr pc
	...
     25c:	01580000 	cmpeq	r8, r0
     260:	01640000 	cmneq	r4, r0
     264:	00010000 	andeq	r0, r1, r0
     268:	00016450 	andeq	r6, r1, r0, asr r4
     26c:	00016c00 	andeq	r6, r1, r0, lsl #24
     270:	f3000400 	vshl.u8	d0, d0, d0
     274:	009f5001 	addseq	r5, pc, r1
	...
     280:	00016400 	andeq	r6, r1, r0, lsl #8
     284:	00016c00 	andeq	r6, r1, r0, lsl #24
     288:	50000100 	andpl	r0, r0, r0, lsl #2
	...
     298:	00000150 	andeq	r0, r0, r0, asr r1
     29c:	00000154 	andeq	r0, r0, r4, asr r1
     2a0:	54500001 	ldrbpl	r0, [r0], #-1
     2a4:	58000001 	stmdapl	r0, {r0}
     2a8:	03000001 	movweq	r0, #1
     2ac:	9f5c7000 	svcls	0x005c7000
	...
     2bc:	00000130 	andeq	r0, r0, r0, lsr r1
     2c0:	0000013b 	andeq	r0, r0, fp, lsr r1
     2c4:	3b500001 	blcc	14002d0 <__bss_end__+0x13f58f8>
     2c8:	48000001 	stmdami	r0, {r0}
     2cc:	01000001 	tsteq	r0, r1
     2d0:	00005400 	andeq	r5, r0, r0, lsl #8
	...
     2dc:	0000013c 	andeq	r0, r0, ip, lsr r1
     2e0:	00000140 	andeq	r0, r0, r0, asr #2
     2e4:	00540001 	subseq	r0, r4, r1
	...
     2f0:	28000000 	stmdacs	r0, {}	; <UNPREDICTABLE>
     2f4:	2c000001 	stccs	0, cr0, [r0], {1}
     2f8:	01000001 	tsteq	r0, r1
     2fc:	012c5000 			; <UNDEFINED> instruction: 0x012c5000
     300:	01300000 	teqeq	r0, r0
     304:	00030000 	andeq	r0, r3, r0
     308:	009f5c70 	addseq	r5, pc, r0, ror ip	; <UNPREDICTABLE>
	...
     314:	84000000 	strhi	r0, [r0], #-0
     318:	90000000 	andls	r0, r0, r0
     31c:	01000000 	mrseq	r0, (UNDEF: 0)
     320:	00905000 	addseq	r5, r0, r0
     324:	00940000 	addseq	r0, r4, r0
     328:	00040000 	andeq	r0, r4, r0
     32c:	9f5001f3 	svcls	0x005001f3
	...
     340:	00000058 	andeq	r0, r0, r8, asr r0
     344:	58500001 	ldmdapl	r0, {r0}^
     348:	74000000 	strvc	r0, [r0], #-0
     34c:	04000000 	streq	r0, [r0], #-0
     350:	5001f300 	andpl	pc, r1, r0, lsl #6
     354:	0000009f 	muleq	r0, pc, r0	; <UNPREDICTABLE>
	...
     364:	00005400 	andeq	r5, r0, r0, lsl #8
     368:	51000100 	mrspl	r0, (UNDEF: 16)
     36c:	00000054 	andeq	r0, r0, r4, asr r0
     370:	00000074 	andeq	r0, r0, r4, ror r0
     374:	01f30004 	mvnseq	r0, r4
     378:	00009f51 	andeq	r9, r0, r1, asr pc
     37c:	00000000 	andeq	r0, r0, r0
     380:	00030000 	andeq	r0, r3, r0
     384:	00000018 	andeq	r0, r0, r8, lsl r0
     388:	00000028 	andeq	r0, r0, r8, lsr #32
     38c:	00530001 	subseq	r0, r3, r1
	...
     39c:	94000000 	strls	r0, [r0], #-0
     3a0:	b0000000 	andlt	r0, r0, r0
     3a4:	01000000 	mrseq	r0, (UNDEF: 0)
     3a8:	00b05000 	adcseq	r5, r0, r0
     3ac:	00d80000 	sbcseq	r0, r8, r0
     3b0:	00040000 	andeq	r0, r4, r0
     3b4:	9f5001f3 	svcls	0x005001f3
     3b8:	000000d8 	ldrdeq	r0, [r0], -r8
     3bc:	000000f0 	strdeq	r0, [r0], -r0	; <UNPREDICTABLE>
     3c0:	f0500001 			; <UNDEFINED> instruction: 0xf0500001
     3c4:	28000000 	stmdacs	r0, {}	; <UNPREDICTABLE>
     3c8:	04000001 	streq	r0, [r0], #-1
     3cc:	5001f300 	andpl	pc, r1, r0, lsl #6
     3d0:	0000009f 	muleq	r0, pc, r0	; <UNPREDICTABLE>
	...
     3e0:	94000000 	strls	r0, [r0], #-0
     3e4:	b0000000 	andlt	r0, r0, r0
     3e8:	01000000 	mrseq	r0, (UNDEF: 0)
     3ec:	00b05100 	adcseq	r5, r0, r0, lsl #2
     3f0:	00d80000 	sbcseq	r0, r8, r0
     3f4:	00010000 	andeq	r0, r1, r0
     3f8:	0000d854 	andeq	sp, r0, r4, asr r8
     3fc:	0000ec00 	andeq	lr, r0, r0, lsl #24
     400:	51000100 	mrspl	r0, (UNDEF: 16)
     404:	000000ec 	andeq	r0, r0, ip, ror #1
     408:	000000f8 	strdeq	r0, [r0], -r8
     40c:	01f30004 	mvnseq	r0, r4
     410:	00f89f51 	rscseq	r9, r8, r1, asr pc
     414:	01280000 			; <UNDEFINED> instruction: 0x01280000
     418:	00010000 	andeq	r0, r1, r0
     41c:	00000054 	andeq	r0, r0, r4, asr r0
     420:	00000000 	andeq	r0, r0, r0
     424:	00000300 	andeq	r0, r0, r0, lsl #6
     428:	a8000001 	stmdage	r0, {r0}
     42c:	b7000000 	strlt	r0, [r0, -r0]
     430:	01000000 	mrseq	r0, (UNDEF: 0)
     434:	00b75000 	adcseq	r5, r7, r0
     438:	00d00000 	sbcseq	r0, r0, r0
     43c:	00010000 	andeq	r0, r1, r0
     440:	0000f855 	andeq	pc, r0, r5, asr r8	; <UNPREDICTABLE>
     444:	00012800 	andeq	r2, r1, r0, lsl #16
     448:	55000100 	strpl	r0, [r0, #-256]	; 0xffffff00
	...
     454:	00000100 	andeq	r0, r0, r0, lsl #2
     458:	000000b8 	strheq	r0, [r0], -r8
     45c:	000000d0 	ldrdeq	r0, [r0], -r0	; <UNPREDICTABLE>
     460:	f8500001 			; <UNDEFINED> instruction: 0xf8500001
     464:	0c000000 	stceq	0, cr0, [r0], {-0}
     468:	01000001 	tsteq	r0, r1
     46c:	00005000 	andeq	r5, r0, r0
	...
     478:	00000568 	andeq	r0, r0, r8, ror #10
     47c:	0000056c 	andeq	r0, r0, ip, ror #10
     480:	00500001 	subseq	r0, r0, r1
     484:	00000000 	andeq	r0, r0, r0
     488:	01000000 	mrseq	r0, (UNDEF: 0)
     48c:	40000000 	andmi	r0, r0, r0
     490:	68000001 	stmdavs	r0, {r0}
     494:	02000001 	andeq	r0, r0, #1, 0
     498:	689f3000 	ldmvs	pc, {ip, sp}	; <UNPREDICTABLE>
     49c:	f4000001 	vst4.8	{d0-d3}, [r0], r1
     4a0:	01000001 	tsteq	r0, r1
     4a4:	00005500 	andeq	r5, r0, r0, lsl #10
     4a8:	00000000 	andeq	r0, r0, r0
     4ac:	00010000 	andeq	r0, r1, r0
     4b0:	01400000 	mrseq	r0, (UNDEF: 64)
     4b4:	01680000 	cmneq	r8, r0
     4b8:	00020000 	andeq	r0, r2, r0
     4bc:	01689f30 	cmneq	r8, r0, lsr pc
     4c0:	01f40000 	mvnseq	r0, r0
     4c4:	00010000 	andeq	r0, r1, r0
     4c8:	00000057 	andeq	r0, r0, r7, asr r0
     4cc:	00000000 	andeq	r0, r0, r0
     4d0:	00000100 	andeq	r0, r0, r0, lsl #2
     4d4:	00014000 	andeq	r4, r1, r0
     4d8:	00016800 	andeq	r6, r1, r0, lsl #16
     4dc:	30000200 	andcc	r0, r0, r0, lsl #4
     4e0:	0001689f 	muleq	r1, pc, r8	; <UNPREDICTABLE>
     4e4:	0001f400 	andeq	pc, r1, r0, lsl #8
     4e8:	56000100 	strpl	r0, [r0], -r0, lsl #2
	...
     500:	01580000 	cmpeq	r8, r0
     504:	01680000 	cmneq	r8, r0
     508:	00010000 	andeq	r0, r1, r0
     50c:	00016850 	andeq	r6, r1, r0, asr r8
     510:	00017400 	andeq	r7, r1, r0, lsl #8
     514:	54000100 	strpl	r0, [r0], #-256	; 0xffffff00
     518:	00000174 	andeq	r0, r0, r4, ror r1
     51c:	000001c0 	andeq	r0, r0, r0, asr #3
     520:	c0500001 	subsgt	r0, r0, r1
     524:	c3000001 	movwgt	r0, #1
     528:	01000001 	tsteq	r0, r1
     52c:	01c35100 	biceq	r5, r3, r0, lsl #2
     530:	01c80000 	biceq	r0, r8, r0
     534:	00010000 	andeq	r0, r1, r0
     538:	0001c854 	andeq	ip, r1, r4, asr r8
     53c:	0001d800 	andeq	sp, r1, r0, lsl #16
     540:	50000100 	andpl	r0, r0, r0, lsl #2
     544:	000001d8 	ldrdeq	r0, [r0], -r8
     548:	000001f4 	strdeq	r0, [r0], -r4
     54c:	00540001 	subseq	r0, r4, r1
	...
     55c:	00051800 	andeq	r1, r5, r0, lsl #16
     560:	00052800 	andeq	r2, r5, r0, lsl #16
     564:	50000100 	andpl	r0, r0, r0, lsl #2
     568:	00000528 	andeq	r0, r0, r8, lsr #10
     56c:	0000052b 	andeq	r0, r0, fp, lsr #10
     570:	2b510001 	blcs	144057c <__bss_end__+0x1435ba4>
     574:	5c000005 	stcpl	0, cr0, [r0], {5}
     578:	01000005 	tsteq	r0, r5
     57c:	00005400 	andeq	r5, r0, r0, lsl #8
	...
     588:	04940000 	ldreq	r0, [r4], #0
     58c:	04a00000 	strteq	r0, [r0], #0
     590:	00010000 	andeq	r0, r1, r0
     594:	0004a050 	andeq	sl, r4, r0, asr r0
     598:	0004c400 	andeq	ip, r4, r0, lsl #8
     59c:	54000100 	strpl	r0, [r0], #-256	; 0xffffff00
	...
     5ac:	0000035c 	andeq	r0, r0, ip, asr r3
     5b0:	00000377 	andeq	r0, r0, r7, ror r3
     5b4:	78500001 	ldmdavc	r0, {r0}^
     5b8:	80000003 	andhi	r0, r0, r3
     5bc:	01000003 	tsteq	r0, r3
     5c0:	00005000 	andeq	r5, r0, r0
	...
     5cc:	003c0000 	eorseq	r0, ip, r0
     5d0:	00440000 	subeq	r0, r4, r0
     5d4:	00010000 	andeq	r0, r1, r0
     5d8:	00004450 	andeq	r4, r0, r0, asr r4
     5dc:	00013c00 	andeq	r3, r1, r0, lsl #24
     5e0:	f3000400 	vshl.u8	d0, d0, d0
     5e4:	009f5001 	addseq	r5, pc, r1
     5e8:	00000000 	andeq	r0, r0, r0
     5ec:	01000000 	mrseq	r0, (UNDEF: 0)
     5f0:	40000000 	andmi	r0, r0, r0
     5f4:	68000000 	stmdavs	r0, {}	; <UNPREDICTABLE>
     5f8:	02000000 	andeq	r0, r0, #0, 0
     5fc:	689f3000 	ldmvs	pc, {ip, sp}	; <UNPREDICTABLE>
     600:	3c000000 	stccc	0, cr0, [r0], {-0}
     604:	01000001 	tsteq	r0, r1
     608:	00005500 	andeq	r5, r0, r0, lsl #10
     60c:	00000000 	andeq	r0, r0, r0
     610:	00010000 	andeq	r0, r1, r0
     614:	00400000 	subeq	r0, r0, r0
     618:	00680000 	rsbeq	r0, r8, r0
     61c:	00020000 	andeq	r0, r2, r0
     620:	00689f30 	rsbeq	r9, r8, r0, lsr pc
     624:	013c0000 	teqeq	ip, r0
     628:	00010000 	andeq	r0, r1, r0
     62c:	00000057 	andeq	r0, r0, r7, asr r0
     630:	00000000 	andeq	r0, r0, r0
     634:	00000100 	andeq	r0, r0, r0, lsl #2
     638:	00004000 	andeq	r4, r0, r0
     63c:	00006800 	andeq	r6, r0, r0, lsl #16
     640:	30000200 	andcc	r0, r0, r0, lsl #4
     644:	0000689f 	muleq	r0, pc, r8	; <UNPREDICTABLE>
     648:	00013c00 	andeq	r3, r1, r0, lsl #24
     64c:	56000100 	strpl	r0, [r0], -r0, lsl #2
	...
     660:	00000058 	andeq	r0, r0, r8, asr r0
     664:	0000008c 	andeq	r0, r0, ip, lsl #1
     668:	8c500001 	mrrchi	0, 0, r0, r0, cr1	; <UNPREDICTABLE>
     66c:	9c000000 	stcls	0, cr0, [r0], {-0}
     670:	01000000 	mrseq	r0, (UNDEF: 0)
     674:	009c5400 	addseq	r5, ip, r0, lsl #8
     678:	00e80000 	rsceq	r0, r8, r0
     67c:	00010000 	andeq	r0, r1, r0
     680:	0000e850 	andeq	lr, r0, r0, asr r8
     684:	00013c00 	andeq	r3, r1, r0, lsl #24
     688:	54000100 	strpl	r0, [r0], #-256	; 0xffffff00
	...
     6a0:	021c0000 	andseq	r0, ip, #0, 0
     6a4:	02640000 	rsbeq	r0, r4, #0, 0
     6a8:	00010000 	andeq	r0, r1, r0
     6ac:	00026450 	andeq	r6, r2, r0, asr r4
     6b0:	00026c00 	andeq	r6, r2, r0, lsl #24
     6b4:	f3000400 	vshl.u8	d0, d0, d0
     6b8:	6c9f5001 	ldcvs	0, cr5, [pc], {1}
     6bc:	84000002 	strhi	r0, [r0], #-2
     6c0:	01000002 	tsteq	r0, r2
     6c4:	02845000 	addeq	r5, r4, #0, 0
     6c8:	028c0000 	addeq	r0, ip, #0, 0
     6cc:	00010000 	andeq	r0, r1, r0
     6d0:	00028c57 	andeq	r8, r2, r7, asr ip
     6d4:	0002a400 	andeq	sl, r2, r0, lsl #8
     6d8:	50000100 	andpl	r0, r0, r0, lsl #2
     6dc:	000002a4 	andeq	r0, r0, r4, lsr #5
     6e0:	00000338 	andeq	r0, r0, r8, lsr r3
     6e4:	38570001 	ldmdacc	r7, {r0}^
     6e8:	50000003 	andpl	r0, r0, r3
     6ec:	04000003 	streq	r0, [r0], #-3
     6f0:	5001f300 	andpl	pc, r1, r0, lsl #6
     6f4:	0000009f 	muleq	r0, pc, r0	; <UNPREDICTABLE>
	...
     70c:	00021c00 	andeq	r1, r2, r0, lsl #24
     710:	00024400 	andeq	r4, r2, r0, lsl #8
     714:	51000100 	mrspl	r0, (UNDEF: 16)
     718:	00000244 	andeq	r0, r0, r4, asr #4
     71c:	0000024c 	andeq	r0, r0, ip, asr #4
     720:	01f30004 	mvnseq	r0, r4
     724:	024c9f51 	subeq	r9, ip, #324	; 0x144
     728:	02600000 	rsbeq	r0, r0, #0, 0
     72c:	00010000 	andeq	r0, r1, r0
     730:	00026051 	andeq	r6, r2, r1, asr r0
     734:	00026c00 	andeq	r6, r2, r0, lsl #24
     738:	f3000400 	vshl.u8	d0, d0, d0
     73c:	6c9f5101 	ldfvss	f5, [pc], {1}
     740:	80000002 	andhi	r0, r0, r2
     744:	01000002 	tsteq	r0, r2
     748:	02805100 	addeq	r5, r0, #0
     74c:	028c0000 	addeq	r0, ip, #0, 0
     750:	00040000 	andeq	r0, r4, r0
     754:	9f5101f3 	svcls	0x005101f3
     758:	0000028c 	andeq	r0, r0, ip, lsl #5
     75c:	000002a0 	andeq	r0, r0, r0, lsr #5
     760:	a0510001 	subsge	r0, r1, r1
     764:	50000002 	andpl	r0, r0, r2
     768:	04000003 	streq	r0, [r0], #-3
     76c:	5101f300 	mrspl	pc, SP_irq	; <UNPREDICTABLE>
     770:	0000009f 	muleq	r0, pc, r0	; <UNPREDICTABLE>
	...
     77c:	48000000 	stmdami	r0, {}	; <UNPREDICTABLE>
     780:	4c000002 	stcmi	0, cr0, [r0], {2}
     784:	01000002 	tsteq	r0, r2
     788:	02ac5600 	adceq	r5, ip, #0, 12
     78c:	03380000 	teqeq	r8, #0, 0
     790:	00010000 	andeq	r0, r1, r0
     794:	00033856 	andeq	r3, r3, r6, asr r8
     798:	00035000 	andeq	r5, r3, r0
     79c:	f3000a00 	vpmax.u8	d0, d0, d0
     7a0:	01f35101 	mvnseq	r5, r1, lsl #2
     7a4:	26321c50 			; <UNDEFINED> instruction: 0x26321c50
     7a8:	0000009f 	muleq	r0, pc, r0	; <UNPREDICTABLE>
     7ac:	00000000 	andeq	r0, r0, r0
     7b0:	00000200 	andeq	r0, r0, r0, lsl #4
     7b4:	00024800 	andeq	r4, r2, r0, lsl #16
     7b8:	00024c00 	andeq	r4, r2, r0, lsl #24
     7bc:	30000200 	andcc	r0, r0, r0, lsl #4
     7c0:	0002ac9f 	muleq	r2, pc, ip	; <UNPREDICTABLE>
     7c4:	00033800 	andeq	r3, r3, r0, lsl #16
     7c8:	55000100 	strpl	r0, [r0, #-256]	; 0xffffff00
	...
     7d8:	02ac0000 	adceq	r0, ip, #0, 0
     7dc:	02cc0000 	sbceq	r0, ip, #0, 0
     7e0:	00010000 	andeq	r0, r1, r0
     7e4:	0002e054 	andeq	lr, r2, r4, asr r0
     7e8:	00030700 	andeq	r0, r3, r0, lsl #14
     7ec:	50000100 	andpl	r0, r0, r0, lsl #2
     7f0:	00000307 	andeq	r0, r0, r7, lsl #6
     7f4:	00000330 	andeq	r0, r0, r0, lsr r3
     7f8:	00540001 	subseq	r0, r4, r1
	...
     804:	bc000000 	stclt	0, cr0, [r0], {-0}
     808:	c7000002 	strgt	r0, [r0, -r2]
     80c:	01000002 	tsteq	r0, r2
     810:	02c75000 	sbceq	r5, r7, #0, 0
     814:	02c80000 	sbceq	r0, r8, #0, 0
     818:	00030000 	andeq	r0, r3, r0
     81c:	009f2474 	addseq	r2, pc, r4, ror r4	; <UNPREDICTABLE>
	...
     828:	c0000000 	andgt	r0, r0, r0
     82c:	c4000002 	strgt	r0, [r0], #-2
     830:	06000002 	streq	r0, [r0], -r2
     834:	71007000 	mrsvc	r7, (UNDEF: 0)
     838:	c49f2200 	ldrgt	r2, [pc], #512	; 840 <__code_start__-0x77c0>
     83c:	c7000002 	strgt	r0, [r0, -r2]
     840:	01000002 	tsteq	r0, r2
     844:	00005100 	andeq	r5, r0, r0, lsl #2
	...
     850:	01f40000 	mvnseq	r0, r0
     854:	01ff0000 	mvnseq	r0, r0
     858:	00010000 	andeq	r0, r1, r0
     85c:	0001ff50 	andeq	pc, r1, r0, asr pc	; <UNPREDICTABLE>
     860:	00021c00 	andeq	r1, r2, r0, lsl #24
     864:	54000100 	strpl	r0, [r0], #-256	; 0xffffff00
	...
     870:	00000001 	andeq	r0, r0, r1
     874:	000001fc 	strdeq	r0, [r0], -ip
     878:	000001ff 	strdeq	r0, [r0], -pc	; <UNPREDICTABLE>
     87c:	ff500001 			; <UNDEFINED> instruction: 0xff500001
     880:	1c000001 	stcne	0, cr0, [r0], {1}
     884:	01000002 	tsteq	r0, r2
     888:	00005400 	andeq	r5, r0, r0, lsl #8
	...
     8a0:	00240000 	eoreq	r0, r4, r0
     8a4:	00010000 	andeq	r0, r1, r0
     8a8:	00002450 	andeq	r2, r0, r0, asr r4
     8ac:	00002800 	andeq	r2, r0, r0, lsl #16
     8b0:	f3000400 	vshl.u8	d0, d0, d0
     8b4:	289f5001 	ldmcs	pc, {r0, ip, lr}	; <UNPREDICTABLE>
     8b8:	2c000000 	stccs	0, cr0, [r0], {-0}
     8bc:	01000000 	mrseq	r0, (UNDEF: 0)
     8c0:	002c5000 	eoreq	r5, ip, r0
     8c4:	00300000 	eorseq	r0, r0, r0
     8c8:	00040000 	andeq	r0, r4, r0
     8cc:	9f5001f3 	svcls	0x005001f3
     8d0:	00000030 	andeq	r0, r0, r0, lsr r0
     8d4:	00000034 	andeq	r0, r0, r4, lsr r0
     8d8:	34500001 	ldrbcc	r0, [r0], #-1
     8dc:	3c000000 	stccc	0, cr0, [r0], {-0}
     8e0:	04000000 	streq	r0, [r0], #-0
     8e4:	5001f300 	andpl	pc, r1, r0, lsl #6
     8e8:	0000009f 	muleq	r0, pc, r0	; <UNPREDICTABLE>
	...
     8f4:	0003e000 	andeq	lr, r3, r0
     8f8:	0003f000 	andeq	pc, r3, r0
     8fc:	50000100 	andpl	r0, r0, r0, lsl #2
     900:	000003f0 	strdeq	r0, [r0], -r0	; <UNPREDICTABLE>
     904:	00000494 	muleq	r0, r4, r4
     908:	00540001 	subseq	r0, r4, r1
     90c:	00000000 	andeq	r0, r0, r0
     910:	02000000 	andeq	r0, r0, #0, 0
     914:	00040c00 	andeq	r0, r4, r0, lsl #24
     918:	00044000 	andeq	r4, r4, r0
     91c:	40000400 	andmi	r0, r0, r0, lsl #8
     920:	009f2440 	addseq	r2, pc, r0, asr #8
	...
     930:	08000000 	stmdaeq	r0, {}	; <UNPREDICTABLE>
     934:	78000000 	stmdavc	r0, {}	; <UNPREDICTABLE>
     938:	01000000 	mrseq	r0, (UNDEF: 0)
     93c:	00785100 	rsbseq	r5, r8, r0, lsl #2
     940:	00840000 	addeq	r0, r4, r0
     944:	00030000 	andeq	r0, r3, r0
     948:	849f7870 	ldrhi	r7, [pc], #2160	; 950 <__code_start__-0x76b0>
     94c:	a4000000 	strge	r0, [r0], #-0
     950:	01000000 	mrseq	r0, (UNDEF: 0)
     954:	00a45100 	adceq	r5, r4, r0, lsl #2
     958:	00bc0000 	adcseq	r0, ip, r0
     95c:	00030000 	andeq	r0, r3, r0
     960:	009f7870 	addseq	r7, pc, r0, ror r8	; <UNPREDICTABLE>
	...
     96c:	10000000 	andne	r0, r0, r0
     970:	48000000 	stmdami	r0, {}	; <UNPREDICTABLE>
     974:	01000000 	mrseq	r0, (UNDEF: 0)
     978:	004c5300 	subeq	r5, ip, r0, lsl #6
     97c:	00bc0000 	adcseq	r0, ip, r0
     980:	00010000 	andeq	r0, r1, r0
     984:	00000053 	andeq	r0, r0, r3, asr r0
	...
     994:	00010000 	andeq	r0, r1, r0
     998:	00012400 	andeq	r2, r1, r0, lsl #8
     99c:	50000100 	andpl	r0, r0, r0, lsl #2
     9a0:	00000124 	andeq	r0, r0, r4, lsr #2
     9a4:	00000128 	andeq	r0, r0, r8, lsr #2
     9a8:	01f30004 	mvnseq	r0, r4
     9ac:	01289f50 			; <UNDEFINED> instruction: 0x01289f50
     9b0:	01400000 	mrseq	r0, (UNDEF: 64)
     9b4:	00010000 	andeq	r0, r1, r0
     9b8:	00014050 	andeq	r4, r1, r0, asr r0
     9bc:	0001ac00 	andeq	sl, r1, r0, lsl #24
     9c0:	f3000400 	vshl.u8	d0, d0, d0
     9c4:	009f5001 	addseq	r5, pc, r1
	...
     9d4:	01010000 	mrseq	r0, (UNDEF: 1)
     9d8:	00000000 	andeq	r0, r0, r0
     9dc:	00012400 	andeq	r2, r1, r0, lsl #8
     9e0:	00012800 	andeq	r2, r1, r0, lsl #16
     9e4:	50000100 	andpl	r0, r0, r0, lsl #2
     9e8:	00000140 	andeq	r0, r0, r0, asr #2
     9ec:	00000160 	andeq	r0, r0, r0, ror #2
     9f0:	60500001 	subsvs	r0, r0, r1
     9f4:	64000001 	strvs	r0, [r0], #-1
     9f8:	03000001 	movweq	r0, #1
     9fc:	9f787000 	svcls	0x00787000
     a00:	00000164 	andeq	r0, r0, r4, ror #2
     a04:	00000170 	andeq	r0, r0, r0, ror r1
     a08:	70500001 	subsvc	r0, r0, r1
     a0c:	78000001 	stmdavc	r0, {r0}
     a10:	02000001 	andeq	r0, r0, #1, 0
     a14:	78007000 	stmdavc	r0, {ip, sp, lr}
     a18:	98000001 	stmdals	r0, {r0}
     a1c:	01000001 	tsteq	r0, r1
     a20:	019c5000 	orrseq	r5, ip, r0
     a24:	01ac0000 			; <UNDEFINED> instruction: 0x01ac0000
     a28:	00010000 	andeq	r0, r1, r0
     a2c:	00000050 	andeq	r0, r0, r0, asr r0
     a30:	00000000 	andeq	r0, r0, r0
     a34:	01010000 	mrseq	r0, (UNDEF: 1)
     a38:	01000000 	mrseq	r0, (UNDEF: 0)
     a3c:	18000000 	stmdane	r0, {}	; <UNPREDICTABLE>
     a40:	28000001 	stmdacs	r0, {r0}
     a44:	01000001 	tsteq	r0, r1
     a48:	01285200 			; <UNDEFINED> instruction: 0x01285200
     a4c:	01400000 	mrseq	r0, (UNDEF: 64)
     a50:	00060000 	andeq	r0, r6, r0
     a54:	00a5c803 	adceq	ip, r5, r3, lsl #16
     a58:	01409f00 	cmpeq	r0, r0, lsl #30
     a5c:	01700000 	cmneq	r0, r0
     a60:	00010000 	andeq	r0, r1, r0
     a64:	00017052 	andeq	r7, r1, r2, asr r0
     a68:	00017800 	andeq	r7, r1, r0, lsl #16
     a6c:	50000100 	andpl	r0, r0, r0, lsl #2
     a70:	00000178 	andeq	r0, r0, r8, ror r1
     a74:	0000019b 	muleq	r0, fp, r1
     a78:	00520001 	subseq	r0, r2, r1
	...
     a84:	00011000 	andeq	r1, r1, r0
     a88:	0001ac00 	andeq	sl, r1, r0, lsl #24
     a8c:	54000100 	strpl	r0, [r0], #-256	; 0xffffff00
	...
     a9c:	000000bc 	strheq	r0, [r0], -ip
     aa0:	000000cc 	andeq	r0, r0, ip, asr #1
     aa4:	cc500001 	mrrcgt	0, 0, r0, r0, cr1	; <UNPREDICTABLE>
     aa8:	00000000 	andeq	r0, r0, r0
     aac:	01000001 	tsteq	r0, r1
     ab0:	00005400 	andeq	r5, r0, r0, lsl #8
	...
     ac0:	000000d4 	ldrdeq	r0, [r0], -r4
     ac4:	000000e4 	andeq	r0, r0, r4, ror #1
     ac8:	e4500001 	ldrb	r0, [r0], #-1
     acc:	e7000000 	str	r0, [r0, -r0]
     ad0:	03000000 	movweq	r0, #0
     ad4:	9f787000 	svcls	0x00787000
     ad8:	000000f4 	strdeq	r0, [r0], -r4
     adc:	000000f8 	strdeq	r0, [r0], -r8
     ae0:	00500001 	subseq	r0, r0, r1
     ae4:	00000000 	andeq	r0, r0, r0
     ae8:	01000000 	mrseq	r0, (UNDEF: 0)
     aec:	dc000000 	stcle	0, cr0, [r0], {-0}
     af0:	e4000000 	str	r0, [r0], #-0
     af4:	01000000 	mrseq	r0, (UNDEF: 0)
     af8:	00e45000 	rsceq	r5, r4, r0
     afc:	00e70000 	rsceq	r0, r7, r0
     b00:	00030000 	andeq	r0, r3, r0
     b04:	009f7870 	addseq	r7, pc, r0, ror r8	; <UNPREDICTABLE>
	...
     b14:	04000000 	streq	r0, [r0], #-0
     b18:	01000000 	mrseq	r0, (UNDEF: 0)
     b1c:	00045200 	andeq	r5, r4, r0, lsl #4
     b20:	00180000 	andseq	r0, r8, r0
     b24:	00040000 	andeq	r0, r4, r0
     b28:	9f5201f3 	svcls	0x005201f3
	...
     b34:	01000002 	tsteq	r0, r2
     b38:	00000001 	andeq	r0, r0, r1
     b3c:	00000000 	andeq	r0, r0, r0
     b40:	00000008 	andeq	r0, r0, r8
     b44:	08500001 	ldmdaeq	r0, {r0}^
     b48:	10000000 	andne	r0, r0, r0
     b4c:	01000000 	mrseq	r0, (UNDEF: 0)
     b50:	00105300 	andseq	r5, r0, r0, lsl #6
     b54:	00140000 	andseq	r0, r4, r0
     b58:	00030000 	andeq	r0, r3, r0
     b5c:	149f0173 	ldrne	r0, [pc], #371	; b64 <__code_start__-0x749c>
     b60:	18000000 	stmdane	r0, {}	; <UNPREDICTABLE>
     b64:	01000000 	mrseq	r0, (UNDEF: 0)
     b68:	00005300 	andeq	r5, r0, r0, lsl #6
	...
     b74:	00000004 	andeq	r0, r0, r4
     b78:	00000018 	andeq	r0, r0, r8, lsl r0
     b7c:	00520001 	subseq	r0, r2, r1
	...
     b8c:	00002c00 	andeq	r2, r0, r0, lsl #24
     b90:	00003800 	andeq	r3, r0, r0, lsl #16
     b94:	50000100 	andpl	r0, r0, r0, lsl #2
     b98:	00000038 	andeq	r0, r0, r8, lsr r0
     b9c:	00000048 	andeq	r0, r0, r8, asr #32
     ba0:	48540001 	ldmdami	r4, {r0}^
     ba4:	58000000 	stmdapl	r0, {}	; <UNPREDICTABLE>
     ba8:	01000000 	mrseq	r0, (UNDEF: 0)
     bac:	00005000 	andeq	r5, r0, r0
     bb0:	00000000 	andeq	r0, r0, r0
     bb4:	01000000 	mrseq	r0, (UNDEF: 0)
     bb8:	00000001 	andeq	r0, r0, r1
     bbc:	00080000 	andeq	r0, r8, r0
     bc0:	00010000 	andeq	r0, r1, r0
     bc4:	00000850 	andeq	r0, r0, r0, asr r8
     bc8:	00003400 	andeq	r3, r0, r0, lsl #8
     bcc:	54000100 	strpl	r0, [r0], #-256	; 0xffffff00
	...
     bdc:	02880000 	addeq	r0, r8, #0, 0
     be0:	02b80000 	adcseq	r0, r8, #0, 0
     be4:	00010000 	andeq	r0, r1, r0
     be8:	0002b850 	andeq	fp, r2, r0, asr r8
     bec:	00070400 	andeq	r0, r7, r0, lsl #8
     bf0:	59000100 	stmdbpl	r0, {r8}
     bf4:	00000704 	andeq	r0, r0, r4, lsl #14
     bf8:	00000740 	andeq	r0, r0, r0, asr #14
     bfc:	01f30004 	mvnseq	r0, r4
     c00:	00009f50 	andeq	r9, r0, r0, asr pc
	...
     c10:	00000288 	andeq	r0, r0, r8, lsl #5
     c14:	000002a0 	andeq	r0, r0, r0, lsr #5
     c18:	a0510001 	subsge	r0, r1, r1
     c1c:	b8000002 	stmdalt	r0, {r1}
     c20:	03000002 	movweq	r0, #2
     c24:	9f017100 	svcls	0x00017100
     c28:	000002b8 			; <UNDEFINED> instruction: 0x000002b8
     c2c:	00000740 	andeq	r0, r0, r0, asr #14
     c30:	01f30004 	mvnseq	r0, r4
     c34:	00009f51 	andeq	r9, r0, r1, asr pc
	...
     c48:	02880000 	addeq	r0, r8, #0, 0
     c4c:	02b80000 	adcseq	r0, r8, #0, 0
     c50:	00010000 	andeq	r0, r1, r0
     c54:	0002b852 	andeq	fp, r2, r2, asr r8
     c58:	0003ec00 	andeq	lr, r3, r0, lsl #24
     c5c:	56000100 	strpl	r0, [r0], -r0, lsl #2
     c60:	000003ec 	andeq	r0, r0, ip, ror #7
     c64:	000004b8 			; <UNDEFINED> instruction: 0x000004b8
     c68:	b85b0001 	ldmdalt	fp, {r0}^
     c6c:	d8000004 	stmdale	r0, {r2}
     c70:	01000004 	tsteq	r0, r4
     c74:	04d85600 	ldrbeq	r5, [r8], #1536	; 0x600
     c78:	055c0000 	ldrbeq	r0, [ip, #-0]
     c7c:	00010000 	andeq	r0, r1, r0
     c80:	00055c5b 	andeq	r5, r5, fp, asr ip
     c84:	00070400 	andeq	r0, r7, r0, lsl #8
     c88:	56000100 	strpl	r0, [r0], -r0, lsl #2
	...
     c94:	00000001 	andeq	r0, r0, r1
     c98:	01000000 	mrseq	r0, (UNDEF: 0)
     c9c:	00000001 	andeq	r0, r0, r1
     ca0:	02000000 	andeq	r0, r0, #0, 0
     ca4:	00000002 	andeq	r0, r0, r2
     ca8:	0000029c 	muleq	r0, ip, r2
     cac:	000002b8 			; <UNDEFINED> instruction: 0x000002b8
     cb0:	b8500001 	ldmdalt	r0, {r0}^
     cb4:	bc000002 	stclt	0, cr0, [r0], {2}
     cb8:	01000002 	tsteq	r0, r2
     cbc:	02bc5400 	adcseq	r5, ip, #0, 8
     cc0:	02c00000 	sbceq	r0, r0, #0, 0
     cc4:	00030000 	andeq	r0, r3, r0
     cc8:	c09f0174 	addsgt	r0, pc, r4, ror r1	; <UNPREDICTABLE>
     ccc:	e4000002 	str	r0, [r0], #-2
     cd0:	01000002 	tsteq	r0, r2
     cd4:	02e45400 	rsceq	r5, r4, #0, 8
     cd8:	02e80000 	rsceq	r0, r8, #0, 0
     cdc:	00030000 	andeq	r0, r3, r0
     ce0:	e89f0174 	ldm	pc, {r2, r4, r5, r6, r8}	; <UNPREDICTABLE>
     ce4:	d4000002 	strle	r0, [r0], #-2
     ce8:	01000006 	tsteq	r0, r6
     cec:	06d45400 	ldrbeq	r5, [r4], r0, lsl #8
     cf0:	06d80000 	ldrbeq	r0, [r8], r0
     cf4:	00030000 	andeq	r0, r3, r0
     cf8:	d89f0174 	ldmle	pc, {r2, r4, r5, r6, r8}	; <UNPREDICTABLE>
     cfc:	f0000006 			; <UNDEFINED> instruction: 0xf0000006
     d00:	01000006 	tsteq	r0, r6
     d04:	06f05400 	ldrbteq	r5, [r0], r0, lsl #8
     d08:	06f80000 	ldrbteq	r0, [r8], r0
     d0c:	00030000 	andeq	r0, r3, r0
     d10:	f89f0174 			; <UNDEFINED> instruction: 0xf89f0174
     d14:	04000006 	streq	r0, [r0], #-6
     d18:	01000007 	tsteq	r0, r7
     d1c:	00005400 	andeq	r5, r0, r0, lsl #8
	...
     d28:	02a40000 	adceq	r0, r4, #0, 0
     d2c:	07040000 	streq	r0, [r4, -r0]
     d30:	00010000 	andeq	r0, r1, r0
     d34:	00070458 	andeq	r0, r7, r8, asr r4
     d38:	00074000 	andeq	r4, r7, r0
     d3c:	f3000a00 	vpmax.u8	d0, d0, d0
     d40:	01f35101 	mvnseq	r5, r1, lsl #2
     d44:	1c312250 	lfmne	f2, 4, [r1], #-320	; 0xfffffec0
     d48:	0000009f 	muleq	r0, pc, r0	; <UNPREDICTABLE>
     d4c:	00000000 	andeq	r0, r0, r0
     d50:	00000100 	andeq	r0, r0, r0, lsl #2
     d54:	08000000 	stmdaeq	r0, {}	; <UNPREDICTABLE>
     d58:	74000004 	strvc	r0, [r0], #-4
     d5c:	01000004 	tsteq	r0, r4
     d60:	04d85700 	ldrbeq	r5, [r8], #1792	; 0x700
     d64:	04fc0000 	ldrbteq	r0, [ip], #0
     d68:	00010000 	andeq	r0, r1, r0
     d6c:	00054057 	andeq	r4, r5, r7, asr r0
     d70:	00055c00 	andeq	r5, r5, r0, lsl #24
     d74:	57000100 	strpl	r0, [r0, -r0, lsl #2]
	...
     d80:	00000002 	andeq	r0, r0, r2
     d84:	00000408 	andeq	r0, r0, r8, lsl #8
     d88:	000004b8 			; <UNDEFINED> instruction: 0x000004b8
     d8c:	d85a0001 	ldmdale	sl, {r0}^
     d90:	5c000004 	stcpl	0, cr0, [r0], {4}
     d94:	01000005 	tsteq	r0, r5
     d98:	00005a00 	andeq	r5, r0, r0, lsl #20
     d9c:	00000000 	andeq	r0, r0, r0
     da0:	00010000 	andeq	r0, r1, r0
     da4:	02ac0000 	adceq	r0, ip, #0, 0
     da8:	02b80000 	adcseq	r0, r8, #0, 0
     dac:	00010000 	andeq	r0, r1, r0
     db0:	0002b852 	andeq	fp, r2, r2, asr r8
     db4:	00074000 	andeq	r4, r7, r0
     db8:	91000300 	mrsls	r0, LR_irq
     dbc:	00007dc8 	andeq	r7, r0, r8, asr #27
	...
     dcc:	01000000 	mrseq	r0, (UNDEF: 0)
     dd0:	00000001 	andeq	r0, r0, r1
	...
     ddc:	00000474 	andeq	r0, r0, r4, ror r4
     de0:	0000048c 	andeq	r0, r0, ip, lsl #9
     de4:	8c500001 	mrrchi	0, 0, r0, r0, cr1	; <UNPREDICTABLE>
     de8:	b8000004 	stmdalt	r0, {r2}
     dec:	01000004 	tsteq	r0, r4
     df0:	04fc5700 	ldrbteq	r5, [ip], #1792	; 0x700
     df4:	05140000 	ldreq	r0, [r4, #-0]
     df8:	00010000 	andeq	r0, r1, r0
     dfc:	00051450 	andeq	r1, r5, r0, asr r4
     e00:	00054000 	andeq	r4, r5, r0
     e04:	57000100 	strpl	r0, [r0, -r0, lsl #2]
     e08:	000005a4 	andeq	r0, r0, r4, lsr #11
     e0c:	000005a4 	andeq	r0, r0, r4, lsr #11
     e10:	a4500001 	ldrbge	r0, [r0], #-1
     e14:	ac000005 	stcge	0, cr0, [r0], {5}
     e18:	01000005 	tsteq	r0, r5
     e1c:	05dc5700 	ldrbeq	r5, [ip, #1792]	; 0x700
     e20:	05e00000 	strbeq	r0, [r0, #0]!
     e24:	00010000 	andeq	r0, r1, r0
     e28:	00061050 	andeq	r1, r6, r0, asr r0
     e2c:	00061400 	andeq	r1, r6, r0, lsl #8
     e30:	50000100 	andpl	r0, r0, r0, lsl #2
     e34:	00000644 	andeq	r0, r0, r4, asr #12
     e38:	00000648 	andeq	r0, r0, r8, asr #12
     e3c:	8c500001 	mrrchi	0, 0, r0, r0, cr1	; <UNPREDICTABLE>
     e40:	90000006 	andls	r0, r0, r6
     e44:	01000006 	tsteq	r0, r6
     e48:	06d05000 	ldrbeq	r5, [r0], r0
     e4c:	06f00000 	ldrbteq	r0, [r0], r0
     e50:	00010000 	andeq	r0, r1, r0
     e54:	00000057 	andeq	r0, r0, r7, asr r0
     e58:	00000000 	andeq	r0, r0, r0
     e5c:	00000200 	andeq	r0, r0, r0, lsl #4
     e60:	f4000000 	vst4.8	{d0-d3}, [r0], r0
     e64:	f8000002 			; <UNDEFINED> instruction: 0xf8000002
     e68:	02000002 	andeq	r0, r0, #2, 0
     e6c:	f89f3000 			; <UNDEFINED> instruction: 0xf89f3000
     e70:	14000002 	strne	r0, [r0], #-2
     e74:	01000003 	tsteq	r0, r3
     e78:	031c5500 	tsteq	ip, #0, 10
     e7c:	06f00000 	ldrbteq	r0, [r0], r0
     e80:	00010000 	andeq	r0, r1, r0
     e84:	00000055 	andeq	r0, r0, r5, asr r0
     e88:	00000000 	andeq	r0, r0, r0
     e8c:	00000100 	andeq	r0, r0, r0, lsl #2
     e90:	00000000 	andeq	r0, r0, r0
     e94:	b8000000 	stmdalt	r0, {}	; <UNPREDICTABLE>
     e98:	54000003 	strpl	r0, [r0], #-3
     e9c:	01000004 	tsteq	r0, r4
     ea0:	04545600 	ldrbeq	r5, [r4], #-1536	; 0xfffffa00
     ea4:	04b80000 	ldrteq	r0, [r8], #0
     ea8:	00030000 	andeq	r0, r3, r0
     eac:	b89f7e7b 	ldmlt	pc, {r0, r1, r3, r4, r5, r6, r9, sl, fp, ip, sp, lr}	; <UNPREDICTABLE>
     eb0:	dc000004 	stcle	0, cr0, [r0], {4}
     eb4:	01000004 	tsteq	r0, r4
     eb8:	04dc5600 	ldrbeq	r5, [ip], #1536	; 0x600
     ebc:	05400000 	strbeq	r0, [r0, #-0]
     ec0:	00030000 	andeq	r0, r3, r0
     ec4:	409f7e7b 	addsmi	r7, pc, fp, ror lr	; <UNPREDICTABLE>
     ec8:	5c000005 	stcpl	0, cr0, [r0], {5}
     ecc:	01000005 	tsteq	r0, r5
     ed0:	00005600 	andeq	r5, r0, r0, lsl #12
	...
     ee0:	00000070 	andeq	r0, r0, r0, ror r0
     ee4:	00000094 	muleq	r0, r4, r0
     ee8:	94500001 	ldrbls	r0, [r0], #-1
     eec:	fc000000 	stc2	0, cr0, [r0], {-0}
     ef0:	03000000 	movweq	r0, #0
     ef4:	9f027000 	svcls	0x00027000
     ef8:	000000fc 	strdeq	r0, [r0], -ip
     efc:	00000224 	andeq	r0, r0, r4, lsr #4
     f00:	01f30004 	mvnseq	r0, r4
     f04:	00009f50 	andeq	r9, r0, r0, asr pc
	...
     f1c:	00700000 	rsbseq	r0, r0, r0
     f20:	00e00000 	rsceq	r0, r0, r0
     f24:	00010000 	andeq	r0, r1, r0
     f28:	0000e051 	andeq	lr, r0, r1, asr r0
     f2c:	00015400 	andeq	r5, r1, r0, lsl #8
     f30:	55000100 	strpl	r0, [r0, #-256]	; 0xffffff00
     f34:	00000154 	andeq	r0, r0, r4, asr r1
     f38:	00000158 	andeq	r0, r0, r8, asr r1
     f3c:	58510001 	ldmdapl	r1, {r0}^
     f40:	b0000001 	andlt	r0, r0, r1
     f44:	01000001 	tsteq	r0, r1
     f48:	01b05500 	lslseq	r5, r0, #10
     f4c:	01c00000 	biceq	r0, r0, r0
     f50:	00010000 	andeq	r0, r1, r0
     f54:	0001c051 	andeq	ip, r1, r1, asr r0
     f58:	0001e400 	andeq	lr, r1, r0, lsl #8
     f5c:	55000100 	strpl	r0, [r0, #-256]	; 0xffffff00
     f60:	000001e4 	andeq	r0, r0, r4, ror #3
     f64:	000001f8 	strdeq	r0, [r0], -r8
     f68:	f8510001 			; <UNDEFINED> instruction: 0xf8510001
     f6c:	24000001 	strcs	r0, [r0], #-1
     f70:	01000002 	tsteq	r0, r2
     f74:	00005500 	andeq	r5, r0, r0, lsl #10
	...
     f80:	00700000 	rsbseq	r0, r0, r0
     f84:	00840000 	addeq	r0, r4, r0
     f88:	00010000 	andeq	r0, r1, r0
     f8c:	00008452 	andeq	r8, r0, r2, asr r4
     f90:	00022400 	andeq	r2, r2, r0, lsl #8
     f94:	54000100 	strpl	r0, [r0], #-256	; 0xffffff00
	...
     fa4:	00000100 	andeq	r0, r0, r0, lsl #2
     fa8:	00000000 	andeq	r0, r0, r0
     fac:	00000070 	andeq	r0, r0, r0, ror r0
     fb0:	000000f4 	strdeq	r0, [r0], -r4
     fb4:	4c530001 	mrrcmi	0, 0, r0, r3, cr1
     fb8:	80000001 	andhi	r0, r0, r1
     fbc:	01000001 	tsteq	r0, r1
     fc0:	01805300 	orreq	r5, r0, r0, lsl #6
     fc4:	018c0000 	orreq	r0, ip, r0
     fc8:	00040000 	andeq	r0, r4, r0
     fcc:	9f5301f3 	svcls	0x005301f3
     fd0:	000001b0 			; <UNDEFINED> instruction: 0x000001b0
     fd4:	000001e8 	andeq	r0, r0, r8, ror #3
     fd8:	e8530001 	ldmda	r3, {r0}^
     fdc:	ff000001 			; <UNDEFINED> instruction: 0xff000001
     fe0:	01000001 	tsteq	r0, r1
     fe4:	01ff5c00 	mvnseq	r5, r0, lsl #24
     fe8:	02240000 	eoreq	r0, r4, #0, 0
     fec:	00040000 	andeq	r0, r4, r0
     ff0:	9f5301f3 	svcls	0x005301f3
	...
    1000:	00700000 	rsbseq	r0, r0, r0
    1004:	008c0000 	addeq	r0, ip, r0
    1008:	00020000 	andeq	r0, r2, r0
    100c:	008c0091 	umulleq	r0, ip, r1, r0
    1010:	01930000 	orrseq	r0, r3, r0
    1014:	00010000 	andeq	r0, r1, r0
    1018:	0001b052 	andeq	fp, r1, r2, asr r0
    101c:	0001f400 	andeq	pc, r1, r0, lsl #8
    1020:	52000100 	andpl	r0, r0, #0
	...
    102c:	01000001 	tsteq	r0, r1
    1030:	00000001 	andeq	r0, r0, r1
    1034:	00000000 	andeq	r0, r0, r0
    1038:	01010100 	mrseq	r0, (UNDEF: 17)
    103c:	01000001 	tsteq	r0, r1
    1040:	00000001 	andeq	r0, r0, r1
	...
    104c:	0000008c 	andeq	r0, r0, ip, lsl #1
    1050:	000000fc 	strdeq	r0, [r0], -ip
    1054:	a0910004 	addsge	r0, r1, r4
    1058:	00fc9f7f 	rscseq	r9, ip, pc, ror pc
    105c:	013c0000 	teqeq	ip, r0
    1060:	00010000 	andeq	r0, r1, r0
    1064:	00013c50 	andeq	r3, r1, r0, asr ip
    1068:	00014800 	andeq	r4, r1, r0, lsl #16
    106c:	71000300 	mrsvc	r0, LR_irq
    1070:	01489f02 	cmpeq	r8, r2, lsl #30
    1074:	014c0000 	mrseq	r0, (UNDEF: 76)
    1078:	00010000 	andeq	r0, r1, r0
    107c:	00014c50 	andeq	r4, r1, r0, asr ip
    1080:	00015800 	andeq	r5, r1, r0, lsl #16
    1084:	91000400 	tstls	r0, r0, lsl #8
    1088:	589f7fa0 	ldmpl	pc, {r5, r7, r8, r9, sl, fp, ip, sp, lr}	; <UNPREDICTABLE>
    108c:	6c000001 	stcvs	0, cr0, [r0], {1}
    1090:	01000001 	tsteq	r0, r1
    1094:	016c5100 	cmneq	ip, r0, lsl #2
    1098:	01780000 	cmneq	r8, r0
    109c:	00030000 	andeq	r0, r3, r0
    10a0:	789f7f71 	ldmvc	pc, {r0, r4, r5, r6, r8, r9, sl, fp, ip, sp, lr}	; <UNPREDICTABLE>
    10a4:	84000001 	strhi	r0, [r0], #-1
    10a8:	03000001 	movweq	r0, #1
    10ac:	9f017100 	svcls	0x00017100
    10b0:	00000184 	andeq	r0, r0, r4, lsl #3
    10b4:	00000193 	muleq	r0, r3, r1
    10b8:	b0500001 	subslt	r0, r0, r1
    10bc:	b0000001 	andlt	r0, r0, r1
    10c0:	04000001 	streq	r0, [r0], #-1
    10c4:	7fa09100 	svcvc	0x00a09100
    10c8:	0001b09f 	muleq	r1, pc, r0	; <UNPREDICTABLE>
    10cc:	0001b800 	andeq	fp, r1, r0, lsl #16
    10d0:	91000400 	tstls	r0, r0, lsl #8
    10d4:	b89f7fa1 	ldmlt	pc, {r0, r5, r7, r8, r9, sl, fp, ip, sp, lr}	; <UNPREDICTABLE>
    10d8:	bc000001 	stclt	0, cr0, [r0], {1}
    10dc:	01000001 	tsteq	r0, r1
    10e0:	01bc5000 			; <UNDEFINED> instruction: 0x01bc5000
    10e4:	01c00000 	biceq	r0, r0, r0
    10e8:	00040000 	andeq	r0, r4, r0
    10ec:	9f7fa091 	svcls	0x007fa091
    10f0:	000001c0 	andeq	r0, r0, r0, asr #3
    10f4:	000001d4 	ldrdeq	r0, [r0], -r4
    10f8:	d4500001 	ldrble	r0, [r0], #-1
    10fc:	e4000001 	str	r0, [r0], #-1
    1100:	03000001 	movweq	r0, #1
    1104:	9f7f7000 	svcls	0x007f7000
    1108:	000001e4 	andeq	r0, r0, r4, ror #3
    110c:	00000224 	andeq	r0, r0, r4, lsr #4
    1110:	a0910004 	addsge	r0, r1, r4
    1114:	00009f7f 	andeq	r9, r0, pc, ror pc
	...
    1120:	00010100 	andeq	r0, r1, r0, lsl #2
	...
    1130:	00900000 	addseq	r0, r0, r0
    1134:	00dc0000 	sbcseq	r0, ip, r0
    1138:	00010000 	andeq	r0, r1, r0
    113c:	0000dc5c 	andeq	sp, r0, ip, asr ip
    1140:	0000f400 	andeq	pc, r0, r0, lsl #8
    1144:	53000100 	movwpl	r0, #256	; 0x100
    1148:	000000f4 	strdeq	r0, [r0], -r4
    114c:	0000014c 	andeq	r0, r0, ip, asr #2
    1150:	4c5c0001 	mrrcmi	0, 0, r0, ip, cr1
    1154:	58000001 	stmdapl	r0, {r0}
    1158:	01000001 	tsteq	r0, r1
    115c:	01585300 	cmpeq	r8, r0, lsl #6
    1160:	01740000 	cmneq	r4, r0
    1164:	00010000 	andeq	r0, r1, r0
    1168:	0001b05c 	andeq	fp, r1, ip, asr r0
    116c:	0001c000 	andeq	ip, r1, r0
    1170:	53000100 	movwpl	r0, #256	; 0x100
    1174:	000001c0 	andeq	r0, r0, r0, asr #3
    1178:	000001dc 	ldrdeq	r0, [r0], -ip
    117c:	e45c0001 	ldrb	r0, [ip], #-1
    1180:	e8000001 	stmda	r0, {r0}
    1184:	01000001 	tsteq	r0, r1
    1188:	01e85300 	mvneq	r5, r0, lsl #6
    118c:	01ff0000 	mvnseq	r0, r0
    1190:	00010000 	andeq	r0, r1, r0
    1194:	0001ff5c 	andeq	pc, r1, ip, asr pc	; <UNPREDICTABLE>
    1198:	00022400 	andeq	r2, r2, r0, lsl #8
    119c:	f3000400 	vshl.u8	d0, d0, d0
    11a0:	009f5301 	addseq	r5, pc, r1, lsl #6
    11a4:	00000000 	andeq	r0, r0, r0
    11a8:	01000000 	mrseq	r0, (UNDEF: 0)
    11ac:	00000101 	andeq	r0, r0, r1, lsl #2
    11b0:	dc000000 	stcle	0, cr0, [r0], {-0}
    11b4:	f0000000 			; <UNDEFINED> instruction: 0xf0000000
    11b8:	02000000 	andeq	r0, r0, #0, 0
    11bc:	f09f3000 			; <UNDEFINED> instruction: 0xf09f3000
    11c0:	f8000000 			; <UNDEFINED> instruction: 0xf8000000
    11c4:	02000000 	andeq	r0, r0, #0, 0
    11c8:	fc9f3100 	ldc2	1, cr3, [pc], {0}
    11cc:	4c000000 	stcmi	0, cr0, [r0], {-0}
    11d0:	01000001 	tsteq	r0, r1
    11d4:	014c5600 	cmpeq	ip, r0, lsl #12
    11d8:	01540000 	cmpeq	r4, r0
    11dc:	00020000 	andeq	r0, r2, r0
    11e0:	00009f30 	andeq	r9, r0, r0, lsr pc
	...
    11ec:	00010100 	andeq	r0, r1, r0, lsl #2
    11f0:	00010100 	andeq	r0, r1, r0, lsl #2
    11f4:	00000038 	andeq	r0, r0, r8, lsr r0
    11f8:	00000054 	andeq	r0, r0, r4, asr r0
    11fc:	54500001 	ldrbpl	r0, [r0], #-1
    1200:	58000000 	stmdapl	r0, {}	; <UNPREDICTABLE>
    1204:	01000000 	mrseq	r0, (UNDEF: 0)
    1208:	00585200 	subseq	r5, r8, r0, lsl #4
    120c:	00600000 	rsbeq	r0, r0, r0
    1210:	00030000 	andeq	r0, r3, r0
    1214:	609f0172 	addsvs	r0, pc, r2, ror r1	; <UNPREDICTABLE>
    1218:	64000000 	strvs	r0, [r0], #-0
    121c:	01000000 	mrseq	r0, (UNDEF: 0)
    1220:	00645200 	rsbeq	r5, r4, r0, lsl #4
    1224:	00700000 	rsbseq	r0, r0, r0
    1228:	00030000 	andeq	r0, r3, r0
    122c:	009f0172 	addseq	r0, pc, r2, ror r1	; <UNPREDICTABLE>
	...
    1238:	38000000 	stmdacc	r0, {}	; <UNPREDICTABLE>
    123c:	50000000 	andpl	r0, r0, r0
    1240:	01000000 	mrseq	r0, (UNDEF: 0)
    1244:	00505100 	subseq	r5, r0, r0, lsl #2
    1248:	00700000 	rsbseq	r0, r0, r0
    124c:	00040000 	andeq	r0, r4, r0
    1250:	9f5101f3 	svcls	0x005101f3
	...
    1260:	00010100 	andeq	r0, r1, r0, lsl #2
    1264:	00000038 	andeq	r0, r0, r8, lsr r0
    1268:	00000050 	andeq	r0, r0, r0, asr r0
    126c:	50520001 	subspl	r0, r2, r1
    1270:	5c000000 	stcpl	0, cr0, [r0], {-0}
    1274:	01000000 	mrseq	r0, (UNDEF: 0)
    1278:	005c5100 	subseq	r5, ip, r0, lsl #2
    127c:	00600000 	rsbeq	r0, r0, r0
    1280:	00030000 	andeq	r0, r3, r0
    1284:	609f0171 	addsvs	r0, pc, r1, ror r1	; <UNPREDICTABLE>
    1288:	70000000 	andvc	r0, r0, r0
    128c:	01000000 	mrseq	r0, (UNDEF: 0)
    1290:	00005100 	andeq	r5, r0, r0, lsl #2
	...
    129c:	00380000 	eorseq	r0, r8, r0
    12a0:	004c0000 	subeq	r0, ip, r0
    12a4:	00010000 	andeq	r0, r1, r0
    12a8:	00004c53 	andeq	r4, r0, r3, asr ip
    12ac:	00006800 	andeq	r6, r0, r0, lsl #16
    12b0:	53000100 	movwpl	r0, #256	; 0x100
	...
    12c4:	00000040 	andeq	r0, r0, r0, asr #32
    12c8:	00000048 	andeq	r0, r0, r8, asr #32
    12cc:	485c0001 	ldmdami	ip, {r0}^
    12d0:	4c000000 	stcmi	0, cr0, [r0], {-0}
    12d4:	08000000 	stmdaeq	r0, {}	; <UNPREDICTABLE>
    12d8:	73007200 	movwvc	r7, #512	; 0x200
    12dc:	01231c00 			; <UNDEFINED> instruction: 0x01231c00
    12e0:	00004c9f 	muleq	r0, pc, ip	; <UNPREDICTABLE>
    12e4:	00005400 	andeq	r5, r0, r0, lsl #8
    12e8:	72000900 	andvc	r0, r0, #0, 18
    12ec:	5301f300 	movwpl	pc, #4864	; 0x1300	; <UNPREDICTABLE>
    12f0:	9f01231c 	svcls	0x0001231c
    12f4:	00000054 	andeq	r0, r0, r4, asr r0
    12f8:	00000070 	andeq	r0, r0, r0, ror r0
    12fc:	01f3000a 	mvnseq	r0, sl
    1300:	5301f352 	movwpl	pc, #4946	; 0x1352	; <UNPREDICTABLE>
    1304:	9f01231c 	svcls	0x0001231c
	...
    1310:	004c0001 	subeq	r0, ip, r1
    1314:	00700000 	rsbseq	r0, r0, r0
    1318:	00010000 	andeq	r0, r1, r0
    131c:	00000050 	andeq	r0, r0, r0, asr r0
    1320:	00000000 	andeq	r0, r0, r0
    1324:	01010000 	mrseq	r0, (UNDEF: 1)
    1328:	14000000 	strne	r0, [r0], #-0
    132c:	1c000000 	stcne	0, cr0, [r0], {-0}
    1330:	01000000 	mrseq	r0, (UNDEF: 0)
    1334:	001c5000 	andseq	r5, ip, r0
    1338:	00240000 	eoreq	r0, r4, r0
    133c:	00030000 	andeq	r0, r3, r0
    1340:	249f0170 	ldrcs	r0, [pc], #368	; 1348 <__code_start__-0x6cb8>
    1344:	38000000 	stmdacc	r0, {}	; <UNPREDICTABLE>
    1348:	01000000 	mrseq	r0, (UNDEF: 0)
    134c:	00005000 	andeq	r5, r0, r0
	...
    1358:	00140000 	andseq	r0, r4, r0
    135c:	00180000 	andseq	r0, r8, r0
    1360:	00010000 	andeq	r0, r1, r0
    1364:	00001851 	andeq	r1, r0, r1, asr r8
    1368:	00003800 	andeq	r3, r0, r0, lsl #16
    136c:	f3000400 	vshl.u8	d0, d0, d0
    1370:	009f5101 	addseq	r5, pc, r1, lsl #2
	...
    137c:	00001800 	andeq	r1, r0, r0, lsl #16
    1380:	00003800 	andeq	r3, r0, r0, lsl #16
    1384:	51000100 	mrspl	r0, (UNDEF: 16)
	...
    1398:	00040000 	andeq	r0, r4, r0
    139c:	00010000 	andeq	r0, r1, r0
    13a0:	00000450 	andeq	r0, r0, r0, asr r4
    13a4:	00000c00 	andeq	r0, r0, r0, lsl #24
    13a8:	70000300 	andvc	r0, r0, r0, lsl #6
    13ac:	000c9f30 	andeq	r9, ip, r0, lsr pc
    13b0:	00140000 	andseq	r0, r4, r0
    13b4:	00040000 	andeq	r0, r4, r0
    13b8:	9f5001f3 	svcls	0x005001f3
	...
    13c8:	00000224 	andeq	r0, r0, r4, lsr #4
    13cc:	00000268 	andeq	r0, r0, r8, ror #4
    13d0:	68500001 	ldmdavs	r0, {r0}^
    13d4:	88000002 	stmdahi	r0, {r1}
    13d8:	04000002 	streq	r0, [r0], #-2
    13dc:	5001f300 	andpl	pc, r1, r0, lsl #6
    13e0:	0000009f 	muleq	r0, pc, r0	; <UNPREDICTABLE>
	...
    13ec:	00022400 	andeq	r2, r2, r0, lsl #8
    13f0:	00026400 	andeq	r6, r2, r0, lsl #8
    13f4:	51000100 	mrspl	r0, (UNDEF: 16)
    13f8:	00000264 	andeq	r0, r0, r4, ror #4
    13fc:	00000288 	andeq	r0, r0, r8, lsl #5
    1400:	01f30004 	mvnseq	r0, r4
    1404:	00009f51 	andeq	r9, r0, r1, asr pc
    1408:	00000000 	andeq	r0, r0, r0
    140c:	01000000 	mrseq	r0, (UNDEF: 0)
    1410:	00000001 	andeq	r0, r0, r1
    1414:	0000000c 	andeq	r0, r0, ip
    1418:	00000014 	andeq	r0, r0, r4, lsl r0
    141c:	14530001 	ldrbne	r0, [r3], #-1
    1420:	1c000000 	stcne	0, cr0, [r0], {-0}
    1424:	03000000 	movweq	r0, #0
    1428:	9f047300 	svcls	0x00047300
    142c:	0000001c 	andeq	r0, r0, ip, lsl r0
    1430:	00000023 	andeq	r0, r0, r3, lsr #32
    1434:	00530001 	subseq	r0, r3, r1
    1438:	00000000 	andeq	r0, r0, r0
    143c:	01000000 	mrseq	r0, (UNDEF: 0)
    1440:	0094f000 	addseq	pc, r4, r0
    1444:	00950c00 	addseq	r0, r5, r0, lsl #24
    1448:	0c000600 	stceq	6, cr0, [r0], {-0}
    144c:	2010001c 	andscs	r0, r0, ip, lsl r0
    1450:	0000009f 	muleq	r0, pc, r0	; <UNPREDICTABLE>
    1454:	00000000 	andeq	r0, r0, r0
    1458:	f0000200 			; <UNDEFINED> instruction: 0xf0000200
    145c:	0c000094 	stceq	0, cr0, [r0], {148}	; 0x94
    1460:	06000095 			; <UNDEFINED> instruction: 0x06000095
    1464:	00240c00 	eoreq	r0, r4, r0, lsl #24
    1468:	009f2010 	addseq	r2, pc, r0, lsl r0	; <UNPREDICTABLE>
    146c:	00000000 	andeq	r0, r0, r0
    1470:	03000000 	movweq	r0, #0
    1474:	0094f000 	addseq	pc, r4, r0
    1478:	00950c00 	addseq	r0, r5, r0, lsl #24
    147c:	08000500 	stmdaeq	r0, {r8, sl}
    1480:	9f2447b4 	svcls	0x002447b4
	...
    148c:	94f00004 	ldrbtls	r0, [r0], #4
    1490:	950c0000 	strls	r0, [ip, #-0]
    1494:	00030000 	andeq	r0, r3, r0
    1498:	009f2008 	addseq	r2, pc, r8
    149c:	00000000 	andeq	r0, r0, r0
    14a0:	02000000 	andeq	r0, r0, #0, 0
    14a4:	00000000 	andeq	r0, r0, r0
    14a8:	0094bc00 	addseq	fp, r4, r0, lsl #24
    14ac:	0094c000 	addseq	ip, r4, r0
    14b0:	30000200 	andcc	r0, r0, r0, lsl #4
    14b4:	0094c09f 	umullseq	ip, r4, pc, r0	; <UNPREDICTABLE>
    14b8:	0094c400 	addseq	ip, r4, r0, lsl #8
    14bc:	53000100 	movwpl	r0, #256	; 0x100
    14c0:	000094c8 	andeq	r9, r0, r8, asr #9
    14c4:	000094d0 	ldrdeq	r9, [r0], -r0
    14c8:	00530001 	subseq	r0, r3, r1
    14cc:	00000000 	andeq	r0, r0, r0
    14d0:	02000000 	andeq	r0, r0, #0, 0
    14d4:	a4000000 	strge	r0, [r0], #-0
    14d8:	a8000094 	stmdage	r0, {r2, r4, r7}
    14dc:	02000094 	andeq	r0, r0, #148, 0	; 0x94
    14e0:	a89f3000 	ldmge	pc, {ip, sp}	; <UNPREDICTABLE>
    14e4:	ac000094 	stcge	0, cr0, [r0], {148}	; 0x94
    14e8:	01000094 	swpeq	r0, r4, [r0]	; <UNPREDICTABLE>
    14ec:	00005000 	andeq	r5, r0, r0
	...
    14f8:	006c0000 	rsbeq	r0, ip, r0
    14fc:	00780000 	rsbseq	r0, r8, r0
    1500:	00010000 	andeq	r0, r1, r0
    1504:	00007850 	andeq	r7, r0, r0, asr r8
    1508:	00008400 	andeq	r8, r0, r0, lsl #8
    150c:	f3000400 	vshl.u8	d0, d0, d0
    1510:	009f5001 	addseq	r5, pc, r1
	...
    151c:	54000000 	strpl	r0, [r0], #-0
    1520:	60000000 	andvs	r0, r0, r0
    1524:	01000000 	mrseq	r0, (UNDEF: 0)
    1528:	00605000 	rsbeq	r5, r0, r0
    152c:	006c0000 	rsbeq	r0, ip, r0
    1530:	00040000 	andeq	r0, r4, r0
    1534:	9f5001f3 	svcls	0x005001f3
	...
    1544:	00000030 	andeq	r0, r0, r0, lsr r0
    1548:	0000003b 	andeq	r0, r0, fp, lsr r0
    154c:	3b500001 	blcc	1401558 <__bss_end__+0x13f6b80>
    1550:	54000000 	strpl	r0, [r0], #-0
    1554:	01000000 	mrseq	r0, (UNDEF: 0)
    1558:	00005500 	andeq	r5, r0, r0, lsl #10
	...
    1564:	00000040 	andeq	r0, r0, r0, asr #32
    1568:	00000054 	andeq	r0, r0, r4, asr r0
    156c:	00540001 	subseq	r0, r4, r1
	...
    1578:	00004400 	andeq	r4, r0, r0, lsl #8
    157c:	00004800 	andeq	r4, r0, r0, lsl #16
    1580:	50000100 	andpl	r0, r0, r0, lsl #2
	...
    1590:	00000024 	andeq	r0, r0, r4, lsr #32
    1594:	00000027 	andeq	r0, r0, r7, lsr #32
    1598:	27500001 	ldrbcs	r0, [r0, -r1]
    159c:	30000000 	andcc	r0, r0, r0
    15a0:	01000000 	mrseq	r0, (UNDEF: 0)
    15a4:	00005400 	andeq	r5, r0, r0, lsl #8
	...
    15b0:	01580000 	cmpeq	r8, r0
    15b4:	01630000 	cmneq	r3, r0
    15b8:	00010000 	andeq	r0, r1, r0
    15bc:	00016350 	andeq	r6, r1, r0, asr r3
    15c0:	00018800 	andeq	r8, r1, r0, lsl #16
    15c4:	54000100 	strpl	r0, [r0], #-256	; 0xffffff00
	...
    15d0:	01480000 	mrseq	r0, (UNDEF: 72)
    15d4:	01580000 	cmpeq	r8, r0
    15d8:	00010000 	andeq	r0, r1, r0
    15dc:	00000054 	andeq	r0, r0, r4, asr r0
	...
    15ec:	00000f00 	andeq	r0, r0, r0, lsl #30
    15f0:	50000100 	andpl	r0, r0, r0, lsl #2
    15f4:	0000000f 	andeq	r0, r0, pc
    15f8:	00000020 	andeq	r0, r0, r0, lsr #32
    15fc:	00540001 	subseq	r0, r4, r1
	...
    160c:	0f000000 	svceq	0x00000000
    1610:	01000000 	mrseq	r0, (UNDEF: 0)
    1614:	000f5100 	andeq	r5, pc, r0, lsl #2
    1618:	00200000 	eoreq	r0, r0, r0
    161c:	00010000 	andeq	r0, r1, r0
    1620:	00000055 	andeq	r0, r0, r5, asr r0
	...
    162c:	00002000 	andeq	r2, r0, r0
    1630:	00002f00 	andeq	r2, r0, r0, lsl #30
    1634:	50000100 	andpl	r0, r0, r0, lsl #2
    1638:	0000002f 	andeq	r0, r0, pc, lsr #32
    163c:	00000040 	andeq	r0, r0, r0, asr #32
    1640:	00540001 	subseq	r0, r4, r1
	...
    164c:	20000000 	andcs	r0, r0, r0
    1650:	2f000000 	svccs	0x00000000
    1654:	01000000 	mrseq	r0, (UNDEF: 0)
    1658:	002f5100 	eoreq	r5, pc, r0, lsl #2
    165c:	00400000 	subeq	r0, r0, r0
    1660:	00010000 	andeq	r0, r1, r0
    1664:	00000055 	andeq	r0, r0, r5, asr r0
	...
    1670:	50000000 	andpl	r0, r0, r0
    1674:	98000003 	stmdals	r0, {r0, r1}
    1678:	01000003 	tsteq	r0, r3
    167c:	03985000 	orrseq	r5, r8, #0, 0
    1680:	039b0000 	orrseq	r0, fp, #0, 0
    1684:	00020000 	andeq	r0, r2, r0
    1688:	039b6891 	orrseq	r6, fp, #9502720	; 0x910000
    168c:	03b00000 	movseq	r0, #0, 0
    1690:	00040000 	andeq	r0, r4, r0
    1694:	9f5001f3 	svcls	0x005001f3
	...
    16b4:	00000220 	andeq	r0, r0, r0, lsr #4
    16b8:	0000027b 	andeq	r0, r0, fp, ror r2
    16bc:	7b500001 	blvc	14016c8 <__bss_end__+0x13f6cf0>
    16c0:	84000002 	strhi	r0, [r0], #-2
    16c4:	04000002 	streq	r0, [r0], #-2
    16c8:	5001f300 	andpl	pc, r1, r0, lsl #6
    16cc:	0002849f 	muleq	r2, pc, r4	; <UNPREDICTABLE>
    16d0:	00029c00 	andeq	r9, r2, r0, lsl #24
    16d4:	50000100 	andpl	r0, r0, r0, lsl #2
    16d8:	0000029c 	muleq	r0, ip, r2
    16dc:	000002a4 	andeq	r0, r0, r4, lsr #5
    16e0:	01f30004 	mvnseq	r0, r4
    16e4:	02a49f50 	adceq	r9, r4, #80, 30	; 0x140
    16e8:	02a70000 	adceq	r0, r7, #0, 0
    16ec:	00010000 	andeq	r0, r1, r0
    16f0:	0002a750 	andeq	sl, r2, r0, asr r7
    16f4:	0002c800 	andeq	ip, r2, r0, lsl #16
    16f8:	f3000400 	vshl.u8	d0, d0, d0
    16fc:	c89f5001 	ldmgt	pc, {r0, ip, lr}	; <UNPREDICTABLE>
    1700:	e0000002 	and	r0, r0, r2
    1704:	01000002 	tsteq	r0, r2
    1708:	02e05000 	rsceq	r5, r0, #0, 0
    170c:	02e80000 	rsceq	r0, r8, #0, 0
    1710:	00040000 	andeq	r0, r4, r0
    1714:	9f5001f3 	svcls	0x005001f3
    1718:	000002e8 	andeq	r0, r0, r8, ror #5
    171c:	000002eb 	andeq	r0, r0, fp, ror #5
    1720:	eb500001 	bl	140172c <__bss_end__+0x13f6d54>
    1724:	38000002 	stmdacc	r0, {r1}
    1728:	04000003 	streq	r0, [r0], #-3
    172c:	5001f300 	andpl	pc, r1, r0, lsl #6
    1730:	0000009f 	muleq	r0, pc, r0	; <UNPREDICTABLE>
	...
    174c:	00022000 	andeq	r2, r2, r0
    1750:	00024400 	andeq	r4, r2, r0, lsl #8
    1754:	51000100 	mrspl	r0, (UNDEF: 16)
    1758:	00000244 	andeq	r0, r0, r4, asr #4
    175c:	00000268 	andeq	r0, r0, r8, ror #4
    1760:	68510001 	ldmdavs	r1, {r0}^
    1764:	7b000002 	blvc	1774 <__code_start__-0x688c>
    1768:	03000002 	movweq	r0, #2
    176c:	9f017100 	svcls	0x00017100
    1770:	0000027b 	andeq	r0, r0, fp, ror r2
    1774:	00000284 	andeq	r0, r0, r4, lsl #5
    1778:	f3380017 	vqadd.u64	d0, d8, d7
    177c:	01f35101 	mvnseq	r5, r1, lsl #2
    1780:	244b4051 	strbcs	r4, [fp], #-81	; 0xffffffaf
    1784:	00080c22 	andeq	r0, r8, r2, lsr #24
    1788:	282d8000 	stmdacs	sp!, {pc}
    178c:	13160001 	tstne	r6, #1, 0
    1790:	0002849f 	muleq	r2, pc, r4	; <UNPREDICTABLE>
    1794:	00029800 	andeq	r9, r2, r0, lsl #16
    1798:	51000100 	mrspl	r0, (UNDEF: 16)
    179c:	00000298 	muleq	r0, r8, r2
    17a0:	000002a4 	andeq	r0, r0, r4, lsr #5
    17a4:	01f30004 	mvnseq	r0, r4
    17a8:	02a49f51 	adceq	r9, r4, #324	; 0x144
    17ac:	02a70000 	adceq	r0, r7, #0, 0
    17b0:	00010000 	andeq	r0, r1, r0
    17b4:	0002a751 	andeq	sl, r2, r1, asr r7
    17b8:	0002c800 	andeq	ip, r2, r0, lsl #16
    17bc:	f3000400 	vshl.u8	d0, d0, d0
    17c0:	c89f5101 	ldmgt	pc, {r0, r8, ip, lr}	; <UNPREDICTABLE>
    17c4:	dc000002 	stcle	0, cr0, [r0], {2}
    17c8:	01000002 	tsteq	r0, r2
    17cc:	02dc5100 	sbcseq	r5, ip, #0
    17d0:	03380000 	teqeq	r8, #0, 0
    17d4:	00170000 	andseq	r0, r7, r0
    17d8:	5101f338 	tstpl	r1, r8, lsr r3	; <UNPREDICTABLE>
    17dc:	405101f3 	ldrshmi	r0, [r1], #-19	; 0xffffffed
    17e0:	0c22244b 	cfstrseq	mvf2, [r2], #-300	; 0xfffffed4
    17e4:	80000008 	andhi	r0, r0, r8
    17e8:	0001282d 	andeq	r2, r1, sp, lsr #16
    17ec:	009f1316 	addseq	r1, pc, r6, lsl r3	; <UNPREDICTABLE>
	...
    1800:	4c000000 	stcmi	0, cr0, [r0], {-0}
    1804:	5c000002 	stcpl	0, cr0, [r0], {2}
    1808:	01000002 	tsteq	r0, r2
    180c:	025c5200 	subseq	r5, ip, #0, 4
    1810:	02640000 	rsbeq	r0, r4, #0, 0
    1814:	00050000 	andeq	r0, r5, r0
    1818:	00a59c03 	adceq	r9, r5, r3, lsl #24
    181c:	00026400 	andeq	r6, r2, r0, lsl #8
    1820:	00027b00 	andeq	r7, r2, r0, lsl #22
    1824:	53000100 	movwpl	r0, #256	; 0x100
    1828:	000002c8 	andeq	r0, r0, r8, asr #5
    182c:	000002d8 	ldrdeq	r0, [r0], -r8
    1830:	d8520001 	ldmdale	r2, {r0}^
    1834:	e3000002 	movw	r0, #2
    1838:	05000002 	streq	r0, [r0, #-2]
    183c:	a59c0300 	ldrge	r0, [ip, #768]	; 0x300
    1840:	02e80000 	rsceq	r0, r8, #0, 0
    1844:	02eb0000 	rsceq	r0, fp, #0, 0
    1848:	00010000 	andeq	r0, r1, r0
    184c:	00000053 	andeq	r0, r0, r3, asr r0
    1850:	00000000 	andeq	r0, r0, r0
    1854:	30000400 	andcc	r0, r0, r0, lsl #8
    1858:	34000002 	strcc	r0, [r0], #-2
    185c:	01000002 	tsteq	r0, r2
    1860:	00005100 	andeq	r5, r0, r0, lsl #2
    1864:	00000000 	andeq	r0, r0, r0
    1868:	00020000 	andeq	r0, r2, r0
    186c:	0000023c 	andeq	r0, r0, ip, lsr r2
    1870:	00000244 	andeq	r0, r0, r4, asr #4
    1874:	9f380002 	svcls	0x00380002
	...
    1880:	023c0002 	eorseq	r0, ip, #2, 0
    1884:	02440000 	subeq	r0, r4, #0, 0
    1888:	00010000 	andeq	r0, r1, r0
    188c:	00000051 	andeq	r0, r0, r1, asr r0
    1890:	00000000 	andeq	r0, r0, r0
    1894:	00000100 	andeq	r0, r0, r0, lsl #2
    1898:	4c000000 	stcmi	0, cr0, [r0], {-0}
    189c:	64000002 	strvs	r0, [r0], #-2
    18a0:	01000002 	tsteq	r0, r2
    18a4:	02c85100 	sbceq	r5, r8, #0
    18a8:	02dc0000 	sbcseq	r0, ip, #0, 0
    18ac:	00010000 	andeq	r0, r1, r0
    18b0:	0002dc51 	andeq	sp, r2, r1, asr ip
    18b4:	0002e800 	andeq	lr, r2, r0, lsl #16
    18b8:	38001700 	stmdacc	r0, {r8, r9, sl, ip}
    18bc:	f35101f3 	vbsl	q8, <illegal reg q8.5>, <illegal reg q9.5>
    18c0:	4b405101 	blmi	1015ccc <__bss_end__+0x100b2f4>
    18c4:	080c2224 	stmdaeq	ip, {r2, r5, r9, sp}
    18c8:	2d800000 	stccs	0, cr0, [r0]
    18cc:	16000128 	strne	r0, [r0], -r8, lsr #2
    18d0:	00009f13 	andeq	r9, r0, r3, lsl pc
    18d4:	00000000 	andeq	r0, r0, r0
    18d8:	00010000 	andeq	r0, r1, r0
    18dc:	00000000 	andeq	r0, r0, r0
    18e0:	024c0000 	subeq	r0, ip, #0, 0
    18e4:	025c0000 	subseq	r0, ip, #0, 0
    18e8:	00010000 	andeq	r0, r1, r0
    18ec:	00025c52 	andeq	r5, r2, r2, asr ip
    18f0:	00026400 	andeq	r6, r2, r0, lsl #8
    18f4:	03000500 	movweq	r0, #1280	; 0x500
    18f8:	0000a59c 	muleq	r0, ip, r5
    18fc:	000002c8 	andeq	r0, r0, r8, asr #5
    1900:	000002d8 	ldrdeq	r0, [r0], -r8
    1904:	d8520001 	ldmdale	r2, {r0}^
    1908:	e3000002 	movw	r0, #2
    190c:	05000002 	streq	r0, [r0, #-2]
    1910:	a59c0300 	ldrge	r0, [ip, #768]	; 0x300
	...
    191c:	00040000 	andeq	r0, r4, r0
    1920:	0000024c 	andeq	r0, r0, ip, asr #4
    1924:	00000250 	andeq	r0, r0, r0, asr r2
    1928:	00510001 	subseq	r0, r1, r1
    192c:	00000000 	andeq	r0, r0, r0
    1930:	03000000 	movweq	r0, #0
    1934:	00026400 	andeq	r6, r2, r0, lsl #8
    1938:	00026800 	andeq	r6, r2, r0, lsl #16
    193c:	51000100 	mrspl	r0, (UNDEF: 16)
	...
    1948:	02640003 	rsbeq	r0, r4, #3, 0
    194c:	02680000 	rsbeq	r0, r8, #0, 0
    1950:	00010000 	andeq	r0, r1, r0
    1954:	00000053 	andeq	r0, r0, r3, asr r0
	...
    1964:	0001bc00 	andeq	fp, r1, r0, lsl #24
    1968:	0001d300 	andeq	sp, r1, r0, lsl #6
    196c:	50000100 	andpl	r0, r0, r0, lsl #2
    1970:	000001d3 	ldrdeq	r0, [r0], -r3
    1974:	000001f0 	strdeq	r0, [r0], -r0	; <UNPREDICTABLE>
    1978:	f0540001 			; <UNDEFINED> instruction: 0xf0540001
    197c:	08000001 	stmdaeq	r0, {r0}
    1980:	01000002 	tsteq	r0, r2
    1984:	02085000 	andeq	r5, r8, #0, 0
    1988:	02200000 	eoreq	r0, r0, #0, 0
    198c:	00010000 	andeq	r0, r1, r0
    1990:	00000054 	andeq	r0, r0, r4, asr r0
	...
    199c:	0001d800 	andeq	sp, r1, r0, lsl #16
    19a0:	0001e300 	andeq	lr, r1, r0, lsl #6
    19a4:	50000100 	andpl	r0, r0, r0, lsl #2
    19a8:	000001e3 	andeq	r0, r0, r3, ror #3
    19ac:	000001f0 	strdeq	r0, [r0], -r0	; <UNPREDICTABLE>
    19b0:	00550001 	subseq	r0, r5, r1
	...
    19c8:	24000000 	strcs	r0, [r0], #-0
    19cc:	38000001 	stmdacc	r0, {r0}
    19d0:	01000001 	tsteq	r0, r1
    19d4:	01385000 	teqeq	r8, r0
    19d8:	013c0000 	teqeq	ip, r0
    19dc:	00030000 	andeq	r0, r3, r0
    19e0:	3c9f7970 			; <UNDEFINED> instruction: 0x3c9f7970
    19e4:	60000001 	andvs	r0, r0, r1
    19e8:	01000001 	tsteq	r0, r1
    19ec:	01605300 	cmneq	r0, r0, lsl #6
    19f0:	01780000 	cmneq	r8, r0
    19f4:	00010000 	andeq	r0, r1, r0
    19f8:	00017850 	andeq	r7, r1, r0, asr r8
    19fc:	00018000 	andeq	r8, r1, r0
    1a00:	f3000400 	vshl.u8	d0, d0, d0
    1a04:	809f5001 	addshi	r5, pc, r1
    1a08:	90000001 	andls	r0, r0, r1
    1a0c:	01000001 	tsteq	r0, r1
    1a10:	01905300 	orrseq	r5, r0, r0, lsl #6
    1a14:	019f0000 	orrseq	r0, pc, r0
    1a18:	00020000 	andeq	r0, r2, r0
    1a1c:	019f6891 			; <UNDEFINED> instruction: 0x019f6891
    1a20:	01bc0000 			; <UNDEFINED> instruction: 0x01bc0000
    1a24:	00090000 	andeq	r0, r9, r0
    1a28:	235001f3 	cmpcs	r0, #-1073741764	; 0xc000003c
    1a2c:	1af80907 	bne	ffe03e50 <__bss_end__+0xffdf9478>
    1a30:	0000009f 	muleq	r0, pc, r0	; <UNPREDICTABLE>
	...
    1a3c:	44000000 	strmi	r0, [r0], #-0
    1a40:	60000001 	andvs	r0, r0, r1
    1a44:	01000001 	tsteq	r0, r1
    1a48:	01805000 	orreq	r5, r0, r0
    1a4c:	019c0000 	orrseq	r0, ip, r0
    1a50:	00010000 	andeq	r0, r1, r0
    1a54:	00019c50 	andeq	r9, r1, r0, asr ip
    1a58:	00019f00 	andeq	r9, r1, r0, lsl #30
    1a5c:	03000500 	movweq	r0, #1280	; 0x500
    1a60:	0000a59c 	muleq	r0, ip, r5
	...
    1a6c:	01340003 	teqeq	r4, r3
    1a70:	013c0000 	teqeq	ip, r0
    1a74:	00020000 	andeq	r0, r2, r0
    1a78:	00009f38 	andeq	r9, r0, r8, lsr pc
    1a7c:	00000000 	andeq	r0, r0, r0
    1a80:	00030000 	andeq	r0, r3, r0
    1a84:	01340000 	teqeq	r4, r0
    1a88:	01380000 	teqeq	r8, r0
    1a8c:	00010000 	andeq	r0, r1, r0
    1a90:	00013850 	andeq	r3, r1, r0, asr r8
    1a94:	00013c00 	andeq	r3, r1, r0, lsl #24
    1a98:	70000300 	andvc	r0, r0, r0, lsl #6
    1a9c:	00009f79 	andeq	r9, r0, r9, ror pc
	...
    1ab4:	00000030 	andeq	r0, r0, r0, lsr r0
    1ab8:	00000060 	andeq	r0, r0, r0, rrx
    1abc:	60500001 	subsvs	r0, r0, r1
    1ac0:	6c000000 	stcvs	0, cr0, [r0], {-0}
    1ac4:	05000000 	streq	r0, [r0, #-0]
    1ac8:	a59c0300 	ldrge	r0, [ip, #768]	; 0x300
    1acc:	006c0000 	rsbeq	r0, ip, r0
    1ad0:	00840000 	addeq	r0, r4, r0
    1ad4:	00010000 	andeq	r0, r1, r0
    1ad8:	00008450 	andeq	r8, r0, r0, asr r4
    1adc:	00008c00 	andeq	r8, r0, r0, lsl #24
    1ae0:	f3000400 	vshl.u8	d0, d0, d0
    1ae4:	8c9f5001 	ldchi	0, cr5, [pc], {1}
    1ae8:	ac000000 	stcge	0, cr0, [r0], {-0}
    1aec:	01000000 	mrseq	r0, (UNDEF: 0)
    1af0:	00ac5000 	adceq	r5, ip, r0
    1af4:	00af0000 	adceq	r0, pc, r0
    1af8:	00020000 	andeq	r0, r2, r0
    1afc:	00af6891 	umlaleq	r6, pc, r1, r8	; <UNPREDICTABLE>
    1b00:	00cc0000 	sbceq	r0, ip, r0
    1b04:	00040000 	andeq	r0, r4, r0
    1b08:	9f5001f3 	svcls	0x005001f3
	...
    1b1c:	00000030 	andeq	r0, r0, r0, lsr r0
    1b20:	00000080 	andeq	r0, r0, r0, lsl #1
    1b24:	80510001 	subshi	r0, r1, r1
    1b28:	8c000000 	stchi	0, cr0, [r0], {-0}
    1b2c:	04000000 	streq	r0, [r0], #-0
    1b30:	5101f300 	mrspl	pc, SP_irq	; <UNPREDICTABLE>
    1b34:	00008c9f 	muleq	r0, pc, ip	; <UNPREDICTABLE>
    1b38:	0000a800 	andeq	sl, r0, r0, lsl #16
    1b3c:	51000100 	mrspl	r0, (UNDEF: 16)
    1b40:	000000a8 	andeq	r0, r0, r8, lsr #1
    1b44:	000000cc 	andeq	r0, r0, ip, asr #1
    1b48:	01f30004 	mvnseq	r0, r4
    1b4c:	00009f51 	andeq	r9, r0, r1, asr pc
    1b50:	00000000 	andeq	r0, r0, r0
    1b54:	00010000 	andeq	r0, r1, r0
	...
    1b64:	00000038 	andeq	r0, r0, r8, lsr r0
    1b68:	00000060 	andeq	r0, r0, r0, rrx
    1b6c:	60500001 	subsvs	r0, r0, r1
    1b70:	6c000000 	stcvs	0, cr0, [r0], {-0}
    1b74:	05000000 	streq	r0, [r0, #-0]
    1b78:	a59c0300 	ldrge	r0, [ip, #768]	; 0x300
    1b7c:	006c0000 	rsbeq	r0, ip, r0
    1b80:	00840000 	addeq	r0, r4, r0
    1b84:	00010000 	andeq	r0, r1, r0
    1b88:	00008450 	andeq	r8, r0, r0, asr r4
    1b8c:	00008c00 	andeq	r8, r0, r0, lsl #24
    1b90:	f3000400 	vshl.u8	d0, d0, d0
    1b94:	8c9f5001 	ldchi	0, cr5, [pc], {1}
    1b98:	ac000000 	stcge	0, cr0, [r0], {-0}
    1b9c:	01000000 	mrseq	r0, (UNDEF: 0)
    1ba0:	00ac5000 	adceq	r5, ip, r0
    1ba4:	00af0000 	adceq	r0, pc, r0
    1ba8:	00020000 	andeq	r0, r2, r0
    1bac:	00af6891 	umlaleq	r6, pc, r1, r8	; <UNPREDICTABLE>
    1bb0:	00cc0000 	sbceq	r0, ip, r0
    1bb4:	00040000 	andeq	r0, r4, r0
    1bb8:	9f5001f3 	svcls	0x005001f3
	...
    1bcc:	0000000b 	andeq	r0, r0, fp
    1bd0:	0b500001 	bleq	1401bdc <__bss_end__+0x13f7204>
    1bd4:	14000000 	strne	r0, [r0], #-0
    1bd8:	01000000 	mrseq	r0, (UNDEF: 0)
    1bdc:	00005400 	andeq	r5, r0, r0, lsl #8
	...
    1bec:	001c0000 	andseq	r0, ip, r0
    1bf0:	00010000 	andeq	r0, r1, r0
    1bf4:	00001c51 	andeq	r1, r0, r1, asr ip
    1bf8:	00003400 	andeq	r3, r0, r0, lsl #8
    1bfc:	f3000400 	vshl.u8	d0, d0, d0
    1c00:	009f5101 	addseq	r5, pc, r1, lsl #2
    1c04:	00000000 	andeq	r0, r0, r0
    1c08:	02000000 	andeq	r0, r0, #0, 0
    1c0c:	00000000 	andeq	r0, r0, r0
    1c10:	00000101 	andeq	r0, r0, r1, lsl #2
    1c14:	00000000 	andeq	r0, r0, r0
    1c18:	00000400 	andeq	r0, r0, r0, lsl #8
    1c1c:	50000100 	andpl	r0, r0, r0, lsl #2
    1c20:	00000004 	andeq	r0, r0, r4
    1c24:	0000001c 	andeq	r0, r0, ip, lsl r0
    1c28:	1c520001 	mrrcne	0, 0, r0, r2, cr1
    1c2c:	24000000 	strcs	r0, [r0], #-0
    1c30:	01000000 	mrseq	r0, (UNDEF: 0)
    1c34:	00245300 	eoreq	r5, r4, r0, lsl #6
    1c38:	00280000 	eoreq	r0, r8, r0
    1c3c:	00030000 	andeq	r0, r3, r0
    1c40:	289f0173 	ldmcs	pc, {r0, r1, r4, r5, r6, r8}	; <UNPREDICTABLE>
    1c44:	34000000 	strcc	r0, [r0], #-0
    1c48:	01000000 	mrseq	r0, (UNDEF: 0)
    1c4c:	00005300 	andeq	r5, r0, r0, lsl #6
    1c50:	00000000 	andeq	r0, r0, r0
    1c54:	00030000 	andeq	r0, r3, r0
    1c58:	00000000 	andeq	r0, r0, r0
    1c5c:	00240000 	eoreq	r0, r4, r0
    1c60:	00010000 	andeq	r0, r1, r0
    1c64:	00002451 	andeq	r2, r0, r1, asr r4
    1c68:	00003400 	andeq	r3, r0, r0, lsl #8
    1c6c:	71000300 	mrsvc	r0, LR_irq
    1c70:	00009f7f 	andeq	r9, r0, pc, ror pc
	...
    1c7c:	00100000 	andseq	r0, r0, r0
    1c80:	001c0000 	andseq	r0, ip, r0
    1c84:	00010000 	andeq	r0, r1, r0
    1c88:	0000245c 	andeq	r2, r0, ip, asr r4
    1c8c:	00003400 	andeq	r3, r0, r0, lsl #8
    1c90:	52000100 	andpl	r0, r0, #0
	...
    1ca4:	00000018 	andeq	r0, r0, r8, lsl r0
    1ca8:	18500001 	ldmdane	r0, {r0}^
    1cac:	24000000 	strcs	r0, [r0], #-0
    1cb0:	01000000 	mrseq	r0, (UNDEF: 0)
    1cb4:	00005000 	andeq	r5, r0, r0
	...
    1cc4:	001c0000 	andseq	r0, ip, r0
    1cc8:	00010000 	andeq	r0, r1, r0
    1ccc:	00001c51 	andeq	r1, r0, r1, asr ip
    1cd0:	00002c00 	andeq	r2, r0, r0, lsl #24
    1cd4:	51000100 	mrspl	r0, (UNDEF: 16)
	...
    1ce8:	00040000 	andeq	r0, r4, r0
    1cec:	00010000 	andeq	r0, r1, r0
    1cf0:	00000451 	andeq	r0, r0, r1, asr r4
    1cf4:	00000c00 	andeq	r0, r0, r0, lsl #24
    1cf8:	51000100 	mrspl	r0, (UNDEF: 16)
    1cfc:	0000000c 	andeq	r0, r0, ip
    1d00:	00000020 	andeq	r0, r0, r0, lsr #32
    1d04:	7f710003 	svcvc	0x00710003
    1d08:	0000009f 	muleq	r0, pc, r0	; <UNPREDICTABLE>
    1d0c:	00000000 	andeq	r0, r0, r0
    1d10:	00000200 	andeq	r0, r0, r0, lsl #4
    1d14:	00000000 	andeq	r0, r0, r0
    1d18:	04000000 	streq	r0, [r0], #-0
    1d1c:	01000000 	mrseq	r0, (UNDEF: 0)
    1d20:	00045000 	andeq	r5, r4, r0
    1d24:	00140000 	andseq	r0, r4, r0
    1d28:	00010000 	andeq	r0, r1, r0
    1d2c:	0000145c 	andeq	r1, r0, ip, asr r4
    1d30:	00002000 	andeq	r2, r0, r0
    1d34:	7c000300 	stcvc	3, cr0, [r0], {-0}
    1d38:	00009f7f 	andeq	r9, r0, pc, ror pc
    1d3c:	00000000 	andeq	r0, r0, r0
    1d40:	03000000 	movweq	r0, #0
    1d44:	9c040003 	stcls	0, cr0, [r4], {3}
    1d48:	9c040000 	stcls	0, cr0, [r4], {-0}
    1d4c:	00010000 	andeq	r0, r1, r0
    1d50:	009c0450 	addseq	r0, ip, r0, asr r4
    1d54:	009c3000 	addseq	r3, ip, r0
    1d58:	f3000400 	vshl.u8	d0, d0, d0
    1d5c:	009f5001 	addseq	r5, pc, r1
	...
    1d68:	04000303 	streq	r0, [r0], #-771	; 0xfffffcfd
    1d6c:	0400009c 	streq	r0, [r0], #-156	; 0xffffff64
    1d70:	0100009c 	swpeq	r0, ip, [r0]	; <UNPREDICTABLE>
    1d74:	9c045100 	stflss	f5, [r4], {-0}
    1d78:	9c300000 	ldcls	0, cr0, [r0], #-0
    1d7c:	00040000 	andeq	r0, r4, r0
    1d80:	9f5101f3 	svcls	0x005101f3
	...
    1d8c:	00030300 	andeq	r0, r3, r0, lsl #6
    1d90:	9c040000 	stcls	0, cr0, [r4], {-0}
    1d94:	9c040000 	stcls	0, cr0, [r4], {-0}
    1d98:	00010000 	andeq	r0, r1, r0
    1d9c:	009c0452 	addseq	r0, ip, r2, asr r4
    1da0:	009c0c00 	addseq	r0, ip, r0, lsl #24
    1da4:	52000100 	andpl	r0, r0, #0
    1da8:	00009c0c 	andeq	r9, r0, ip, lsl #24
    1dac:	00009c30 	andeq	r9, r0, r0, lsr ip
    1db0:	01720003 	cmneq	r2, r3
    1db4:	0000009f 	muleq	r0, pc, r0	; <UNPREDICTABLE>
    1db8:	00000000 	andeq	r0, r0, r0
    1dbc:	01010200 	mrseq	r0, R9_usr
    1dc0:	00000000 	andeq	r0, r0, r0
    1dc4:	009c0400 	addseq	r0, ip, r0, lsl #8
    1dc8:	009c1000 	addseq	r1, ip, r0
    1dcc:	50000100 	andpl	r0, r0, r0, lsl #2
    1dd0:	00009c10 	andeq	r9, r0, r0, lsl ip
    1dd4:	00009c14 	andeq	r9, r0, r4, lsl ip
    1dd8:	01700003 	cmneq	r0, r3
    1ddc:	009c149f 	umullseq	r1, ip, pc, r4	; <UNPREDICTABLE>
    1de0:	009c2400 	addseq	r2, ip, r0, lsl #8
    1de4:	50000100 	andpl	r0, r0, r0, lsl #2
    1de8:	00009c28 	andeq	r9, r0, r8, lsr #24
    1dec:	00009c2c 	andeq	r9, r0, ip, lsr #24
    1df0:	00500001 	subseq	r0, r0, r1
    1df4:	00000000 	andeq	r0, r0, r0
    1df8:	02000000 	andeq	r0, r0, #0, 0
    1dfc:	00000000 	andeq	r0, r0, r0
    1e00:	009c0400 	addseq	r0, ip, r0, lsl #8
    1e04:	009c1400 	addseq	r1, ip, r0, lsl #8
    1e08:	51000100 	mrspl	r0, (UNDEF: 16)
    1e0c:	00009c14 	andeq	r9, r0, r4, lsl ip
    1e10:	00009c18 	andeq	r9, r0, r8, lsl ip
    1e14:	01710003 	cmneq	r1, r3
    1e18:	009c189f 	umullseq	r1, ip, pc, r8	; <UNPREDICTABLE>
    1e1c:	009c3000 	addseq	r3, ip, r0
    1e20:	51000100 	mrspl	r0, (UNDEF: 16)
	...
    1e34:	000000e8 	andeq	r0, r0, r8, ror #1
    1e38:	00000100 	andeq	r0, r0, r0, lsl #2
    1e3c:	00500001 	subseq	r0, r0, r1
    1e40:	10000001 	andne	r0, r0, r1
    1e44:	04000001 	streq	r0, [r0], #-1
    1e48:	5001f300 	andpl	pc, r1, r0, lsl #6
    1e4c:	0001109f 	muleq	r1, pc, r0	; <UNPREDICTABLE>
    1e50:	00011400 	andeq	r1, r1, r0, lsl #8
    1e54:	50000100 	andpl	r0, r0, r0, lsl #2
    1e58:	00000114 	andeq	r0, r0, r4, lsl r1
    1e5c:	0000011c 	andeq	r0, r0, ip, lsl r1
    1e60:	01f30004 	mvnseq	r0, r4
    1e64:	00009f50 	andeq	r9, r0, r0, asr pc
    1e68:	00000000 	andeq	r0, r0, r0
    1e6c:	00010000 	andeq	r0, r1, r0
    1e70:	00000000 	andeq	r0, r0, r0
    1e74:	000000f4 	strdeq	r0, [r0], -r4
    1e78:	00000100 	andeq	r0, r0, r0, lsl #2
    1e7c:	0070000b 	rsbseq	r0, r0, fp
    1e80:	b4232535 	strtlt	r2, [r3], #-1333	; 0xfffffacb
    1e84:	02818080 	addeq	r8, r1, #128, 0	; 0x80
    1e88:	0001009f 	muleq	r1, pc, r0	; <UNPREDICTABLE>
    1e8c:	00010300 	andeq	r0, r1, r0, lsl #6
    1e90:	50000100 	andpl	r0, r0, r0, lsl #2
    1e94:	00000103 	andeq	r0, r0, r3, lsl #2
    1e98:	00000110 	andeq	r0, r0, r0, lsl r1
    1e9c:	01f3000c 	mvnseq	r0, ip
    1ea0:	23253550 			; <UNDEFINED> instruction: 0x23253550
    1ea4:	818080b4 	strhhi	r8, [r0, r4]
    1ea8:	00009f02 	andeq	r9, r0, r2, lsl #30
	...
    1eb4:	000000f8 	strdeq	r0, [r0], -r8
    1eb8:	00000110 	andeq	r0, r0, r0, lsl r1
    1ebc:	00540001 	subseq	r0, r4, r1
	...
    1ecc:	cc000000 	stcgt	0, cr0, [r0], {-0}
    1ed0:	db000000 	blle	1ed8 <__code_start__-0x6128>
    1ed4:	01000000 	mrseq	r0, (UNDEF: 0)
    1ed8:	00db5000 	sbcseq	r5, fp, r0
    1edc:	00e00000 	rsceq	r0, r0, r0
    1ee0:	00040000 	andeq	r0, r4, r0
    1ee4:	9f5001f3 	svcls	0x005001f3
    1ee8:	000000e0 	andeq	r0, r0, r0, ror #1
    1eec:	000000e3 	andeq	r0, r0, r3, ror #1
    1ef0:	e3500001 	cmp	r0, #1, 0
    1ef4:	e8000000 	stmda	r0, {}	; <UNPREDICTABLE>
    1ef8:	04000000 	streq	r0, [r0], #-0
    1efc:	5001f300 	andpl	pc, r1, r0, lsl #6
    1f00:	0000009f 	muleq	r0, pc, r0	; <UNPREDICTABLE>
	...
    1f10:	0000cc00 	andeq	ip, r0, r0, lsl #24
    1f14:	0000db00 	andeq	sp, r0, r0, lsl #22
    1f18:	51000100 	mrspl	r0, (UNDEF: 16)
    1f1c:	000000db 	ldrdeq	r0, [r0], -fp
    1f20:	000000e0 	andeq	r0, r0, r0, ror #1
    1f24:	01f30004 	mvnseq	r0, r4
    1f28:	00e09f51 	rsceq	r9, r0, r1, asr pc
    1f2c:	00e30000 	rsceq	r0, r3, r0
    1f30:	00010000 	andeq	r0, r1, r0
    1f34:	0000e351 	andeq	lr, r0, r1, asr r3
    1f38:	0000e800 	andeq	lr, r0, r0, lsl #16
    1f3c:	f3000400 	vshl.u8	d0, d0, d0
    1f40:	009f5101 	addseq	r5, pc, r1, lsl #2
	...
    1f4c:	bc000000 	stclt	0, cr0, [r0], {-0}
    1f50:	c7000000 	strgt	r0, [r0, -r0]
    1f54:	01000000 	mrseq	r0, (UNDEF: 0)
    1f58:	00c75000 	sbceq	r5, r7, r0
    1f5c:	00cc0000 	sbceq	r0, ip, r0
    1f60:	00040000 	andeq	r0, r4, r0
    1f64:	9f5001f3 	svcls	0x005001f3
	...
    1f74:	00000098 	muleq	r0, r8, r0
    1f78:	000000b0 	strheq	r0, [r0], -r0	; <UNPREDICTABLE>
    1f7c:	b0500001 	subslt	r0, r0, r1
    1f80:	bc000000 	stclt	0, cr0, [r0], {-0}
    1f84:	04000000 	streq	r0, [r0], #-0
    1f88:	5001f300 	andpl	pc, r1, r0, lsl #6
    1f8c:	0000009f 	muleq	r0, pc, r0	; <UNPREDICTABLE>
	...
    1f98:	00007400 	andeq	r7, r0, r0, lsl #8
    1f9c:	00008c00 	andeq	r8, r0, r0, lsl #24
    1fa0:	50000100 	andpl	r0, r0, r0, lsl #2
    1fa4:	0000008c 	andeq	r0, r0, ip, lsl #1
    1fa8:	00000098 	muleq	r0, r8, r0
    1fac:	01f30004 	mvnseq	r0, r4
    1fb0:	00009f50 	andeq	r9, r0, r0, asr pc
	...
    1fbc:	00640000 	rsbeq	r0, r4, r0
    1fc0:	006f0000 	rsbeq	r0, pc, r0
    1fc4:	00010000 	andeq	r0, r1, r0
    1fc8:	00006f50 	andeq	r6, r0, r0, asr pc
    1fcc:	00007400 	andeq	r7, r0, r0, lsl #8
    1fd0:	f3000400 	vshl.u8	d0, d0, d0
    1fd4:	009f5001 	addseq	r5, pc, r1
	...
    1fe4:	38000000 	stmdacc	r0, {}	; <UNPREDICTABLE>
    1fe8:	01000000 	mrseq	r0, (UNDEF: 0)
    1fec:	00385000 	eorseq	r5, r8, r0
    1ff0:	00640000 	rsbeq	r0, r4, r0
    1ff4:	00040000 	andeq	r0, r4, r0
    1ff8:	9f5001f3 	svcls	0x005001f3
	...
    200c:	00000047 	andeq	r0, r0, r7, asr #32
    2010:	47510001 	ldrbmi	r0, [r1, -r1]
    2014:	64000000 	strvs	r0, [r0], #-0
    2018:	04000000 	streq	r0, [r0], #-0
    201c:	5101f300 	mrspl	pc, SP_irq	; <UNPREDICTABLE>
    2020:	0000009f 	muleq	r0, pc, r0	; <UNPREDICTABLE>
    2024:	00000000 	andeq	r0, r0, r0
    2028:	34000000 	strcc	r0, [r0], #-0
    202c:	64000000 	strvs	r0, [r0], #-0
    2030:	01000000 	mrseq	r0, (UNDEF: 0)
    2034:	00005400 	andeq	r5, r0, r0, lsl #8
	...
    2040:	00000040 	andeq	r0, r0, r0, asr #32
    2044:	00000064 	andeq	r0, r0, r4, rrx
    2048:	00560001 	subseq	r0, r6, r1
	...
    2054:	01010000 	mrseq	r0, (UNDEF: 1)
    2058:	48000000 	stmdami	r0, {}	; <UNPREDICTABLE>
    205c:	50000000 	andpl	r0, r0, r0
    2060:	01000000 	mrseq	r0, (UNDEF: 0)
    2064:	00505000 	subseq	r5, r0, r0
    2068:	00500000 	subseq	r0, r0, r0
    206c:	00010000 	andeq	r0, r1, r0
    2070:	00005051 	andeq	r5, r0, r1, asr r0
    2074:	00005400 	andeq	r5, r0, r0, lsl #8
    2078:	75000900 	strvc	r0, [r0, #-2304]	; 0xfffff700
    207c:	24007400 	strcs	r7, [r0], #-1024	; 0xfffffc00
    2080:	9f210071 	svcls	0x00210071
    2084:	00000054 	andeq	r0, r0, r4, asr r0
    2088:	0000005b 	andeq	r0, r0, fp, asr r0
    208c:	00510001 	subseq	r0, r1, r1
    2090:	00000000 	andeq	r0, r0, r0
    2094:	Address 0x0000000000002094 is out of bounds.


Disassembly of section .debug_aranges:

00000000 <.debug_aranges>:
   0:	0000001c 	andeq	r0, r0, ip, lsl r0
   4:	00000002 	andeq	r0, r0, r2
   8:	00040000 	andeq	r0, r4, r0
   c:	00000000 	andeq	r0, r0, r0
  10:	00008038 	andeq	r8, r0, r8, lsr r0
  14:	000000ec 	andeq	r0, r0, ip, ror #1
	...
  20:	0000001c 	andeq	r0, r0, ip, lsl r0
  24:	03f50002 	mvnseq	r0, #2, 0
  28:	00040000 	andeq	r0, r4, r0
  2c:	00000000 	andeq	r0, r0, r0
  30:	00008124 	andeq	r8, r0, r4, lsr #2
  34:	000003ac 	andeq	r0, r0, ip, lsr #7
	...
  40:	0000001c 	andeq	r0, r0, ip, lsl r0
  44:	0cb80002 	ldceq	0, cr0, [r8], #8
  48:	00040000 	andeq	r0, r4, r0
  4c:	00000000 	andeq	r0, r0, r0
  50:	000084d0 	ldrdeq	r8, [r0], -r0
  54:	00000594 	muleq	r0, r4, r5
	...
  60:	0000001c 	andeq	r0, r0, ip, lsl r0
  64:	18a10002 	stmiane	r1!, {r1}
  68:	00040000 	andeq	r0, r4, r0
  6c:	00000000 	andeq	r0, r0, r0
  70:	00008aa8 	andeq	r8, r0, r8, lsr #21
  74:	000001ac 	andeq	r0, r0, ip, lsr #3
	...
  80:	0000001c 	andeq	r0, r0, ip, lsl r0
  84:	1b7f0002 	blne	1fc0094 <__bss_end__+0x1fb56bc>
  88:	00040000 	andeq	r0, r4, r0
  8c:	00000000 	andeq	r0, r0, r0
  90:	00008c54 	andeq	r8, r0, r4, asr ip
  94:	00000018 	andeq	r0, r0, r8, lsl r0
	...
  a0:	0000001c 	andeq	r0, r0, ip, lsl r0
  a4:	1cbd0002 	ldcne	0, cr0, [sp], #8
  a8:	00040000 	andeq	r0, r4, r0
  ac:	00000000 	andeq	r0, r0, r0
  b0:	00008c6c 	andeq	r8, r0, ip, ror #24
  b4:	00000058 	andeq	r0, r0, r8, asr r0
	...
  c0:	0000001c 	andeq	r0, r0, ip, lsl r0
  c4:	1e5e0002 	cdpne	0, 5, cr0, cr14, cr2, {0}
  c8:	00040000 	andeq	r0, r4, r0
  cc:	00000000 	andeq	r0, r0, r0
  d0:	00008cc4 	andeq	r8, r0, r4, asr #25
  d4:	00000034 	andeq	r0, r0, r4, lsr r0
	...
  e0:	0000001c 	andeq	r0, r0, ip, lsl r0
  e4:	1f550002 	svcne	0x00550002
  e8:	00040000 	andeq	r0, r4, r0
  ec:	00000000 	andeq	r0, r0, r0
  f0:	00008cf8 	strdeq	r8, [r0], -r8	; <UNPREDICTABLE>
  f4:	00000740 	andeq	r0, r0, r0, asr #14
	...
 100:	0000001c 	andeq	r0, r0, ip, lsl r0
 104:	2a300002 	bcs	c00114 <__bss_end__+0xbf573c>
 108:	00040000 	andeq	r0, r4, r0
 10c:	00000000 	andeq	r0, r0, r0
 110:	00009438 	andeq	r9, r0, r8, lsr r4
 114:	0000002c 	andeq	r0, r0, ip, lsr #32
	...
 120:	0000001c 	andeq	r0, r0, ip, lsl r0
 124:	2b630002 	blcs	18c0134 <__bss_end__+0x18b575c>
 128:	00040000 	andeq	r0, r4, r0
 12c:	00000000 	andeq	r0, r0, r0
 130:	00009464 	andeq	r9, r0, r4, ror #8
 134:	0000003c 	andeq	r0, r0, ip, lsr r0
	...
 140:	0000001c 	andeq	r0, r0, ip, lsl r0
 144:	2cf00002 	ldclcs	0, cr0, [r0], #8
 148:	00040000 	andeq	r0, r4, r0
 14c:	00000000 	andeq	r0, r0, r0
 150:	000094a0 	andeq	r9, r0, r0, lsr #9
 154:	00000004 	andeq	r0, r0, r4
	...
 160:	0000001c 	andeq	r0, r0, ip, lsl r0
 164:	2dc20002 	stclcs	0, cr0, [r2, #8]
 168:	00040000 	andeq	r0, r4, r0
 16c:	00000000 	andeq	r0, r0, r0
 170:	000094a4 	andeq	r9, r0, r4, lsr #9
 174:	00000080 	andeq	r0, r0, r0, lsl #1
	...
 180:	0000001c 	andeq	r0, r0, ip, lsl r0
 184:	2ffc0002 	svccs	0x00fc0002
 188:	00040000 	andeq	r0, r4, r0
 18c:	00000000 	andeq	r0, r0, r0
 190:	00009524 	andeq	r9, r0, r4, lsr #10
 194:	00000084 	andeq	r0, r0, r4, lsl #1
	...
 1a0:	0000001c 	andeq	r0, r0, ip, lsl r0
 1a4:	324d0002 	subcc	r0, sp, #2, 0
 1a8:	00040000 	andeq	r0, r4, r0
 1ac:	00000000 	andeq	r0, r0, r0
 1b0:	000095a8 	andeq	r9, r0, r8, lsr #11
 1b4:	000001f0 	strdeq	r0, [r0], -r0	; <UNPREDICTABLE>
	...
 1c0:	0000001c 	andeq	r0, r0, ip, lsl r0
 1c4:	381e0002 	ldmdacc	lr, {r1}
 1c8:	00040000 	andeq	r0, r4, r0
 1cc:	00000000 	andeq	r0, r0, r0
 1d0:	00009798 	muleq	r0, r8, r7
 1d4:	000003b0 			; <UNDEFINED> instruction: 0x000003b0
	...
 1e0:	0000001c 	andeq	r0, r0, ip, lsl r0
 1e4:	410b0002 	tstmi	fp, r2
 1e8:	00040000 	andeq	r0, r4, r0
 1ec:	00000000 	andeq	r0, r0, r0
 1f0:	00009b48 	andeq	r9, r0, r8, asr #22
 1f4:	0000003c 	andeq	r0, r0, ip, lsr r0
	...
 200:	0000001c 	andeq	r0, r0, ip, lsl r0
 204:	42580002 	subsmi	r0, r8, #2, 0
 208:	00040000 	andeq	r0, r4, r0
 20c:	00000000 	andeq	r0, r0, r0
 210:	00009b84 	andeq	r9, r0, r4, lsl #23
 214:	00000034 	andeq	r0, r0, r4, lsr r0
	...
 220:	0000001c 	andeq	r0, r0, ip, lsl r0
 224:	43930002 	orrsmi	r0, r3, #2, 0
 228:	00040000 	andeq	r0, r4, r0
 22c:	00000000 	andeq	r0, r0, r0
 230:	00009bb8 			; <UNDEFINED> instruction: 0x00009bb8
 234:	0000002c 	andeq	r0, r0, ip, lsr #32
	...
 240:	0000001c 	andeq	r0, r0, ip, lsl r0
 244:	448e0002 	strmi	r0, [lr], #2
 248:	00040000 	andeq	r0, r4, r0
 24c:	00000000 	andeq	r0, r0, r0
 250:	00009be4 	andeq	r9, r0, r4, ror #23
 254:	00000020 	andeq	r0, r0, r0, lsr #32
	...
 260:	0000001c 	andeq	r0, r0, ip, lsl r0
 264:	45a10002 	strmi	r0, [r1, #2]!
 268:	00040000 	andeq	r0, r4, r0
 26c:	00000000 	andeq	r0, r0, r0
 270:	00009c04 	andeq	r9, r0, r4, lsl #24
 274:	0000002c 	andeq	r0, r0, ip, lsr #32
	...
 280:	0000001c 	andeq	r0, r0, ip, lsl r0
 284:	46f30002 	ldrbtmi	r0, [r3], r2
 288:	00040000 	andeq	r0, r4, r0
 28c:	00000000 	andeq	r0, r0, r0
 290:	00009c30 	andeq	r9, r0, r0, lsr ip
 294:	00000004 	andeq	r0, r0, r4
	...
 2a0:	0000001c 	andeq	r0, r0, ip, lsl r0
 2a4:	47c50002 	strbmi	r0, [r5, r2]
 2a8:	00040000 	andeq	r0, r4, r0
 2ac:	00000000 	andeq	r0, r0, r0
 2b0:	00009c4c 	andeq	r9, r0, ip, asr #24
 2b4:	0000011c 	andeq	r0, r0, ip, lsl r1
	...

Disassembly of section .debug_ranges:

00000000 <.debug_ranges>:
   0:	00000008 	andeq	r0, r0, r8
   4:	0000000c 	andeq	r0, r0, ip
   8:	00000010 	andeq	r0, r0, r0, lsl r0
   c:	000000a4 	andeq	r0, r0, r4, lsr #1
	...
  18:	00000014 	andeq	r0, r0, r4, lsl r0
  1c:	00000034 	andeq	r0, r0, r4, lsr r0
  20:	00000038 	andeq	r0, r0, r8, lsr r0
  24:	0000003c 	andeq	r0, r0, ip, lsr r0
  28:	00000044 	andeq	r0, r0, r4, asr #32
  2c:	000000a4 	andeq	r0, r0, r4, lsr #1
	...
  38:	00000010 	andeq	r0, r0, r0, lsl r0
  3c:	00000028 	andeq	r0, r0, r8, lsr #32
  40:	00000040 	andeq	r0, r0, r0, asr #32
  44:	00000074 	andeq	r0, r0, r4, ror r0
	...
  50:	00000248 	andeq	r0, r0, r8, asr #4
  54:	0000024c 	andeq	r0, r0, ip, asr #4
  58:	000002ac 	andeq	r0, r0, ip, lsr #5
  5c:	00000330 	andeq	r0, r0, r0, lsr r3
	...
  68:	000002ac 	andeq	r0, r0, ip, lsr #5
  6c:	000002c8 	andeq	r0, r0, r8, asr #5
  70:	000002d4 	ldrdeq	r0, [r0], -r4
  74:	00000330 	andeq	r0, r0, r0, lsr r3
	...
  80:	000002ac 	andeq	r0, r0, ip, lsr #5
  84:	000002c8 	andeq	r0, r0, r8, asr #5
  88:	000002f4 	strdeq	r0, [r0], -r4
  8c:	00000330 	andeq	r0, r0, r0, lsr r3
	...
  98:	000094a4 	andeq	r9, r0, r4, lsr #9
  9c:	00009524 	andeq	r9, r0, r4, lsr #10
	...
  a8:	00000134 	andeq	r0, r0, r4, lsr r1
  ac:	00000134 	andeq	r0, r0, r4, lsr r1
  b0:	00000134 	andeq	r0, r0, r4, lsr r1
  b4:	0000013c 	andeq	r0, r0, ip, lsr r1
	...
  c0:	0000024c 	andeq	r0, r0, ip, asr #4
  c4:	00000264 	andeq	r0, r0, r4, ror #4
  c8:	000002c8 	andeq	r0, r0, r8, asr #5
  cc:	000002e8 	andeq	r0, r0, r8, ror #5
	...
  d8:	00009c04 	andeq	r9, r0, r4, lsl #24
  dc:	00009c30 	andeq	r9, r0, r0, lsr ip
	...

Disassembly of section .debug_line:

00000000 <.debug_line>:
       0:	000001f6 	strdeq	r0, [r0], -r6
       4:	01080003 	tsteq	r8, r3
       8:	01020000 	mrseq	r0, (UNDEF: 2)
       c:	000d0efb 	strdeq	r0, [sp], -fp
      10:	01010101 	tsteq	r1, r1, lsl #2
      14:	01000000 	mrseq	r0, (UNDEF: 0)
      18:	74010000 	strvc	r0, [r1], #-0
      1c:	73747365 	cmnvc	r4, #-1811939327	; 0x94000001
      20:	2f002e00 	svccs	0x00002e00
      24:	2f727375 	svccs	0x00727375
      28:	61636f6c 	cmnvs	r3, ip, ror #30
      2c:	65432f6c 	strbvs	r2, [r3, #-3948]	; 0xfffff094
      30:	72616c6c 	rsbvc	r6, r1, #108, 24	; 0x6c00
      34:	6d72612f 	ldfvse	f6, [r2, #-188]!	; 0xffffff44
      38:	6e6f6e2d 	cdpvs	14, 6, cr6, cr15, cr13, {1}
      3c:	61652d65 	cmnvs	r5, r5, ror #26
      40:	742d6962 	strtvc	r6, [sp], #-2402	; 0xfffff69e
      44:	2f747365 	svccs	0x00747365
      48:	30322d39 	eorscc	r2, r2, r9, lsr sp
      4c:	34713931 	ldrbtcc	r3, [r1], #-2353	; 0xfffff6cf
      50:	3173632d 	cmncc	r3, sp, lsr #6
      54:	2f653730 	svccs	0x00653730
      58:	2f62696c 	svccs	0x0062696c
      5c:	2f636367 	svccs	0x00636367
      60:	2d6d7261 	sfmcs	f7, 2, [sp, #-388]!	; 0xfffffe7c
      64:	656e6f6e 	strbvs	r6, [lr, #-3950]!	; 0xfffff092
      68:	6261652d 	rsbvs	r6, r1, #188743680	; 0xb400000
      6c:	2e392f69 	cdpcs	15, 3, cr2, cr9, cr9, {3}
      70:	2f312e32 	svccs	0x00312e32
      74:	6c636e69 	stclvs	14, cr6, [r3], #-420	; 0xfffffe5c
      78:	00656475 	rsbeq	r6, r5, r5, ror r4
      7c:	6573552f 	ldrbvs	r5, [r3, #-1327]!	; 0xfffffad1
      80:	742f7372 	strtvc	r7, [pc], #-882	; 88 <__code_start__-0x7f78>
      84:	74736972 	ldrbtvc	r6, [r3], #-2418	; 0xfffff68e
      88:	6f6e6e65 	svcvs	0x006e6e65
      8c:	616d6c6c 	cmnvs	sp, ip, ror #24
      90:	6f442f6e 	svcvs	0x00442f6e
      94:	656d7563 	strbvs	r7, [sp, #-1379]!	; 0xfffffa9d
      98:	2f73746e 	svccs	0x0073746e
      9c:	69727053 	ldmdbvs	r2!, {r0, r1, r4, r6, ip, sp, lr}^
      a0:	515f676e 	cmppl	pc, lr, ror #14
      a4:	74726175 	ldrbtvc	r6, [r2], #-373	; 0xfffffe8b
      a8:	325f7265 	subscc	r7, pc, #1342177286	; 0x50000006
      ac:	2f323230 	svccs	0x00323230
      b0:	34325343 	ldrtcc	r5, [r2], #-835	; 0xfffffcbd
      b4:	2d584c30 	ldclcs	12, cr4, [r8, #-192]	; 0xffffff40
      b8:	32727073 	rsbscc	r7, r2, #115, 0	; 0x73
      bc:	696c2f32 	stmdbvs	ip!, {r1, r4, r5, r8, r9, sl, fp, sp}^
      c0:	2f697062 	svccs	0x00697062
      c4:	6c636e69 	stclvs	14, cr6, [r3], #-420	; 0xfffffe5c
      c8:	00656475 	rsbeq	r6, r5, r5, ror r4
      cc:	72617000 	rsbvc	r7, r1, #0, 0
      d0:	742d3274 	strtvc	r3, [sp], #-628	; 0xfffffd8c
      d4:	34747365 	ldrbtcc	r7, [r4], #-869	; 0xfffffc9b
      d8:	0100632e 	tsteq	r0, lr, lsr #6
      dc:	72730000 	rsbsvc	r0, r3, #0, 0
      e0:	6f6c2d63 	svcvs	0x006c2d63
      e4:	00682e63 	rsbeq	r2, r8, r3, ror #28
      e8:	73000002 	movwvc	r0, #2
      ec:	6e696474 	mcrvs	4, 3, r6, cr9, cr4, {3}
      f0:	63672d74 	cmnvs	r7, #116, 26	; 0x1d00
      f4:	00682e63 	rsbeq	r2, r8, r3, ror #28
      f8:	72000003 	andvc	r0, r0, #3, 0
      fc:	682e6970 	stmdavs	lr!, {r4, r5, r6, r8, fp, sp, lr}
     100:	00000400 	andeq	r0, r0, r0, lsl #8
     104:	6c616b63 			; <UNDEFINED> instruction: 0x6c616b63
     108:	2e636f6c 	cdpcs	15, 6, cr6, cr3, cr12, {3}
     10c:	00020068 	andeq	r0, r2, r8, rrx
     110:	12050000 	andne	r0, r5, #0, 0
     114:	38020500 	stmdacc	r2, {r8, sl}
     118:	19000080 	stmdbne	r0, {r7}
     11c:	184b0505 	stmdane	fp, {r0, r2, r8, sl}^
     120:	05010905 	streq	r0, [r1, #-2309]	; 0xfffff6fb
     124:	0501060d 	streq	r0, [r1, #-1549]	; 0xfffff9f3
     128:	05052c08 	streq	r2, [r5, #-3080]	; 0xfffff3f8
     12c:	000d0530 	andeq	r0, sp, r0, lsr r5
     130:	06010402 	streq	r0, [r1], -r2, lsl #8
     134:	04020033 	streq	r0, [r2], #-51	; 0xffffffcd
     138:	02000101 	andeq	r0, r0, #1073741824	; 0x40000000
     13c:	05d60104 	ldrbeq	r0, [r6, #260]	; 0x104
     140:	04020009 	streq	r0, [r2], #-9
     144:	02003202 	andeq	r3, r0, #536870912	; 0x20000000
     148:	01060204 	tsteq	r6, r4, lsl #4
     14c:	02001d05 	andeq	r1, r0, #320	; 0x140
     150:	03060204 	movweq	r0, #25092	; 0x6204
     154:	1e050177 	mcrne	1, 0, r0, cr5, cr7, {3}
     158:	02040200 	andeq	r0, r4, #0, 4
     15c:	0b050106 	bleq	14057c <__bss_end__+0x135ba4>
     160:	02040200 	andeq	r0, r4, #0, 4
     164:	002e0903 	eoreq	r0, lr, r3, lsl #18
     168:	2e020402 	cdpcs	4, 0, cr0, cr2, cr2, {0}
     16c:	02001405 	andeq	r1, r0, #83886080	; 0x5000000
     170:	03060104 	movweq	r0, #24836	; 0x6104
     174:	05050177 	streq	r0, [r5, #-375]	; 0xfffffe89
     178:	01040200 	mrseq	r0, R12_usr
     17c:	09050106 	stmdbeq	r5, {r1, r2, r8}
     180:	02044b06 	andeq	r4, r4, #6144	; 0x1800
     184:	050e0b05 	streq	r0, [lr, #-2821]	; 0xfffff4fb
     188:	0c051305 	stceq	3, cr1, [r5], {5}
     18c:	04ba0106 	ldrteq	r0, [sl], #262	; 0x106
     190:	151a0501 	ldrne	r0, [sl, #-1281]	; 0xfffffaff
     194:	9f060905 	svcls	0x00060905
     198:	060e0567 	streq	r0, [lr], -r7, ror #10
     19c:	06090501 	streq	r0, [r9], -r1, lsl #10
     1a0:	060b054b 	streq	r0, [fp], -fp, asr #10
     1a4:	060d0501 	streq	r0, [sp], -r1, lsl #10
     1a8:	0200014b 	andeq	r0, r0, #-1073741806	; 0xc0000012
     1ac:	00660204 	rsbeq	r0, r6, r4, lsl #4
     1b0:	01020402 	tsteq	r2, r2, lsl #8
     1b4:	02040200 	andeq	r0, r4, #0, 4
     1b8:	00150513 	andseq	r0, r5, r3, lsl r5
     1bc:	06020402 	streq	r0, [r2], -r2, lsl #8
     1c0:	000d0501 	andeq	r0, sp, r1, lsl #10
     1c4:	06020402 	streq	r0, [r2], -r2, lsl #8
     1c8:	0015052f 	andseq	r0, r5, pc, lsr #10
     1cc:	06020402 	streq	r0, [r2], -r2, lsl #8
     1d0:	04020001 	streq	r0, [r2], #-1
     1d4:	05054a02 	streq	r4, [r5, #-2562]	; 0xfffff5fe
     1d8:	01090306 	tsteq	r9, r6, lsl #6
     1dc:	06010530 			; <UNDEFINED> instruction: 0x06010530
     1e0:	14056613 	strne	r6, [r5], #-1555	; 0xfffff9ed
     1e4:	02050006 	andeq	r0, r5, #6, 0
     1e8:	000080fc 	strdeq	r8, [r0], -ip
     1ec:	2f050514 	svccs	0x00050514
     1f0:	0601054d 	streq	r0, [r1], -sp, asr #10
     1f4:	00060283 	andeq	r0, r6, r3, lsl #5
     1f8:	04030101 	streq	r0, [r3], #-257	; 0xfffffeff
     1fc:	00030000 	andeq	r0, r3, r0
     200:	0000010b 	andeq	r0, r0, fp, lsl #2
     204:	0efb0102 	cdpeq	1, 15, cr0, cr11, cr2, {0}
     208:	0101000d 	tsteq	r1, sp
     20c:	00000101 	andeq	r0, r0, r1, lsl #2
     210:	00000100 	andeq	r0, r0, r0, lsl #2
     214:	73752f01 	cmnvc	r5, #1, 30
     218:	6f6c2f72 	svcvs	0x006c2f72
     21c:	2f6c6163 	svccs	0x006c6163
     220:	6c6c6543 	cfstr64vs	mvdx6, [ip], #-268	; 0xfffffef4
     224:	612f7261 			; <UNDEFINED> instruction: 0x612f7261
     228:	6e2d6d72 	mcrvs	13, 1, r6, cr13, cr2, {3}
     22c:	2d656e6f 	stclcs	14, cr6, [r5, #-444]!	; 0xfffffe44
     230:	69626165 	stmdbvs	r2!, {r0, r2, r5, r6, r8, sp, lr}^
     234:	7365742d 	cmnvc	r5, #754974720	; 0x2d000000
     238:	2d392f74 	ldccs	15, cr2, [r9, #-464]!	; 0xfffffe30
     23c:	39313032 	ldmdbcc	r1!, {r1, r4, r5, ip, sp}
     240:	632d3471 			; <UNDEFINED> instruction: 0x632d3471
     244:	37303173 			; <UNDEFINED> instruction: 0x37303173
     248:	696c2f65 	stmdbvs	ip!, {r0, r2, r5, r6, r8, r9, sl, fp, sp}^
     24c:	63672f62 	cmnvs	r7, #392	; 0x188
     250:	72612f63 	rsbvc	r2, r1, #396	; 0x18c
     254:	6f6e2d6d 	svcvs	0x006e2d6d
     258:	652d656e 	strvs	r6, [sp, #-1390]!	; 0xfffffa92
     25c:	2f696261 	svccs	0x00696261
     260:	2e322e39 	mrccs	14, 1, r2, cr2, cr9, {1}
     264:	6e692f31 	mcrvs	15, 3, r2, cr9, cr1, {1}
     268:	64756c63 	ldrbtvs	r6, [r5], #-3171	; 0xfffff39d
     26c:	552f0065 	strpl	r0, [pc, #-101]!	; 20f <__code_start__-0x7df1>
     270:	73726573 	cmnvc	r2, #482344960	; 0x1cc00000
     274:	6972742f 	ldmdbvs	r2!, {r0, r1, r2, r3, r5, sl, ip, sp, lr}^
     278:	6e657473 	mcrvs	4, 3, r7, cr5, cr3, {3}
     27c:	6c6c6f6e 	stclvs	15, cr6, [ip], #-440	; 0xfffffe48
     280:	2f6e616d 	svccs	0x006e616d
     284:	75636f44 	strbvc	r6, [r3, #-3908]!	; 0xfffff0bc
     288:	746e656d 	strbtvc	r6, [lr], #-1389	; 0xfffffa93
     28c:	70532f73 	subsvc	r2, r3, r3, ror pc
     290:	676e6972 			; <UNDEFINED> instruction: 0x676e6972
     294:	6175515f 	cmnvs	r5, pc, asr r1
     298:	72657472 	rsbvc	r7, r5, #1912602624	; 0x72000000
     29c:	3230325f 	eorscc	r3, r0, #-268435451	; 0xf0000005
     2a0:	53432f32 	movtpl	r2, #16178	; 0x3f32
     2a4:	4c303432 	cfldrsmi	mvf3, [r0], #-200	; 0xffffff38
     2a8:	70732d58 	rsbsvc	r2, r3, r8, asr sp
     2ac:	2f323272 	svccs	0x00323272
     2b0:	7062696c 	rsbvc	r6, r2, ip, ror #18
     2b4:	6e692f69 	cdpvs	15, 6, cr2, cr9, cr9, {3}
     2b8:	64756c63 	ldrbtvs	r6, [r5], #-3171	; 0xfffff39d
     2bc:	63000065 	movwvs	r0, #101	; 0x65
     2c0:	6c6c616b 	stfvse	f6, [ip], #-428	; 0xfffffe54
     2c4:	632e636f 			; <UNDEFINED> instruction: 0x632e636f
     2c8:	00000000 	andeq	r0, r0, r0
     2cc:	6c616b63 			; <UNDEFINED> instruction: 0x6c616b63
     2d0:	2e636f6c 	cdpcs	15, 6, cr6, cr3, cr12, {3}
     2d4:	00000068 	andeq	r0, r0, r8, rrx
     2d8:	64747300 	ldrbtvs	r7, [r4], #-768	; 0xfffffd00
     2dc:	2d746e69 	ldclcs	14, cr6, [r4, #-420]!	; 0xfffffe5c
     2e0:	2e636367 	cdpcs	3, 6, cr6, cr3, cr7, {3}
     2e4:	00010068 	andeq	r0, r1, r8, rrx
     2e8:	69707200 	ldmdbvs	r0!, {r9, ip, sp, lr}^
     2ec:	0200682e 	andeq	r6, r0, #3014656	; 0x2e0000
     2f0:	72730000 	rsbsvc	r0, r3, #0, 0
     2f4:	6f6c2d63 	svcvs	0x006c2d63
     2f8:	00682e63 	rsbeq	r2, r8, r3, ror #28
     2fc:	6b000000 	blvs	304 <__code_start__-0x7cfc>
     300:	616d2d72 	smcvs	53970	; 0xd2d2
     304:	636f6c6c 	cmnvs	pc, #108, 24	; 0x6c00
     308:	0000682e 	andeq	r6, r0, lr, lsr #16
     30c:	05000000 	streq	r0, [r0, #-0]
     310:	0205002d 	andeq	r0, r5, #45, 0	; 0x2d
     314:	00008124 	andeq	r8, r0, r4, lsr #2
     318:	05011d03 	streq	r1, [r1, #-3331]	; 0xfffff2fd
     31c:	10051302 	andne	r1, r5, r2, lsl #6
     320:	05050106 	streq	r0, [r5, #-262]	; 0xfffffefa
     324:	0603054a 	streq	r0, [r3], -sl, asr #10
     328:	02000150 	andeq	r0, r0, #20
     32c:	004a0204 	subeq	r0, sl, r4, lsl #4
     330:	01020402 	tsteq	r2, r2, lsl #8
     334:	02040200 	andeq	r0, r4, #0, 4
     338:	04020013 	streq	r0, [r2], #-19	; 0xffffffed
     33c:	0d051302 	stceq	3, cr1, [r5, #-8]
     340:	02040200 	andeq	r0, r4, #0, 4
     344:	03050106 	movweq	r0, #20742	; 0x5106
     348:	02040200 	andeq	r0, r4, #0, 4
     34c:	13054b06 	movwne	r4, #23302	; 0x5b06
     350:	02040200 	andeq	r0, r4, #0, 4
     354:	03050106 	movweq	r0, #20742	; 0x5106
     358:	02040200 	andeq	r0, r4, #0, 4
     35c:	02002f06 	andeq	r2, r0, #6, 30
     360:	2e060204 	cdpcs	2, 0, cr0, cr6, cr4, {0}
     364:	01780306 	cmneq	r8, r6, lsl #6
     368:	01060e05 	tsteq	r6, r5, lsl #28
     36c:	4b060305 	blmi	180f88 <__bss_end__+0x1765b0>
     370:	01060d05 	tsteq	r6, r5, lsl #26
     374:	2f060305 	svccs	0x00060305
     378:	02002d05 	andeq	r2, r0, #320	; 0x140
     37c:	29060104 	stmdbcs	r6, {r2, r8}
     380:	02000305 	andeq	r0, r0, #335544320	; 0x14000000
     384:	51060104 	tstpl	r6, r4, lsl #2
     388:	01040200 	mrseq	r0, R12_usr
     38c:	04020001 	streq	r0, [r2], #-1
     390:	009e0601 	addseq	r0, lr, r1, lsl #12
     394:	2e010402 	cdpcs	4, 0, cr0, cr1, cr2, {0}
     398:	01040200 	mrseq	r0, R12_usr
     39c:	1b052e06 	blne	14bbbc <__bss_end__+0x1411e4>
     3a0:	05ba0903 	ldreq	r0, [sl, #2307]!	; 0x903
     3a4:	01051305 	tsteq	r5, r5, lsl #6
     3a8:	1e051306 	cdpne	3, 0, cr1, cr5, cr6, {0}
     3ac:	05058506 	streq	r8, [r5, #-1286]	; 0xfffffafa
     3b0:	06070513 			; <UNDEFINED> instruction: 0x06070513
     3b4:	09052e01 	stmdbeq	r5, {r0, r9, sl, fp, sp}
     3b8:	11052f06 	tstne	r5, r6, lsl #30
     3bc:	01050106 	tsteq	r5, r6, lsl #2
     3c0:	062d0530 			; <UNDEFINED> instruction: 0x062d0530
     3c4:	062e5303 	strteq	r5, [lr], -r3, lsl #6
     3c8:	06050501 	streq	r0, [r5], -r1, lsl #10
     3cc:	2e06014b 	adfcssm	f0, f6, #3.0
     3d0:	02040200 	andeq	r0, r4, #0, 4
     3d4:	02004a06 	andeq	r4, r0, #24576	; 0x6000
     3d8:	00010204 	andeq	r0, r1, r4, lsl #4
     3dc:	13020402 	movwne	r0, #9218	; 0x2402
     3e0:	02040200 	andeq	r0, r4, #0, 4
     3e4:	00070514 	andeq	r0, r7, r4, lsl r5
     3e8:	06020402 	streq	r0, [r2], -r2, lsl #8
     3ec:	060a0501 	streq	r0, [sl], -r1, lsl #10
     3f0:	06100550 			; <UNDEFINED> instruction: 0x06100550
     3f4:	2e0a052e 	cfsh32cs	mvfx0, mvfx10, #30
     3f8:	0609052e 	streq	r0, [r9], -lr, lsr #10
     3fc:	060b052f 	streq	r0, [fp], -pc, lsr #10
     400:	060d0501 	streq	r0, [sp], -r1, lsl #10
     404:	061b054b 	ldreq	r0, [fp], -fp, asr #10
     408:	2e180501 	cfmul32cs	mvfx0, mvfx8, mvfx1
     40c:	2f060d05 	svccs	0x00060d05
     410:	17060105 	strne	r0, [r6, -r5, lsl #2]
     414:	02000505 	andeq	r0, r0, #20971520	; 0x1400000
     418:	03060104 	movweq	r0, #24836	; 0x6104
     41c:	02004a6f 	andeq	r4, r0, #454656	; 0x6f000
     420:	00010104 	andeq	r0, r1, r4, lsl #2
     424:	06010402 	streq	r0, [r1], -r2, lsl #8
     428:	0402009e 	streq	r0, [r2], #-158	; 0xffffff62
     42c:	02002e01 	andeq	r2, r0, #1, 28
     430:	2e060104 	adfcss	f0, f6, f4
     434:	012e1003 			; <UNDEFINED> instruction: 0x012e1003
     438:	2e069e06 	cdpcs	14, 0, cr9, cr6, cr6, {0}
     43c:	1f031e05 	svcne	0x00031e05
     440:	130505ba 	movwne	r0, #21946	; 0x55ba
     444:	13060105 	movwne	r0, #24837	; 0x6105
     448:	061c052e 	ldreq	r0, [ip], -lr, lsr #10
     44c:	05010631 	streq	r0, [r1, #-1585]	; 0xfffff9cf
     450:	054b0605 	strbeq	r0, [fp, #-1541]	; 0xfffff9fb
     454:	04010614 	streq	r0, [r1], #-1556	; 0xfffff9ec
     458:	06180502 	ldreq	r0, [r8], -r2, lsl #10
     45c:	052e6803 	streq	r6, [lr, #-2051]!	; 0xfffff7fd
     460:	0d051305 	stceq	3, cr1, [r5, #-20]	; 0xffffffec
     464:	042e0106 	strteq	r0, [lr], #-262	; 0xfffffefa
     468:	03010501 	movweq	r0, #5377	; 0x1501
     46c:	1b050118 	blne	1408d4 <__bss_end__+0x135efc>
     470:	02054c06 	andeq	r4, r5, #1536	; 0x600
     474:	0611052f 	ldreq	r0, [r1], -pc, lsr #10
     478:	06020501 	streq	r0, [r2], -r1, lsl #10
     47c:	0601052f 	streq	r0, [r1], -pc, lsr #10
     480:	20052e13 	andcs	r2, r5, r3, lsl lr
     484:	02053006 	andeq	r3, r5, #6, 0
     488:	06050513 			; <UNDEFINED> instruction: 0x06050513
     48c:	03052e01 	movweq	r2, #24065	; 0x5e01
     490:	0a052f06 	beq	14c0b0 <__bss_end__+0x1416d8>
     494:	03050106 	movweq	r0, #20742	; 0x5106
     498:	08052f06 	stmdaeq	r5, {r1, r2, r8, r9, sl, fp, sp}
     49c:	03050106 	movweq	r0, #20742	; 0x5106
     4a0:	01052f06 	tsteq	r5, r6, lsl #30
     4a4:	2f051606 	svccs	0x00051606
     4a8:	02053106 	andeq	r3, r5, #-2147483647	; 0x80000001
     4ac:	061a0513 			; <UNDEFINED> instruction: 0x061a0513
     4b0:	2e290501 	cfsh64cs	mvdx0, mvdx9, #1
     4b4:	054a0505 	strbeq	r0, [sl, #-1285]	; 0xfffffafb
     4b8:	04020048 	streq	r0, [r2], #-72	; 0xffffffb8
     4bc:	35054a01 	strcc	r4, [r5, #-2561]	; 0xfffff5ff
     4c0:	01040200 	mrseq	r0, R12_usr
     4c4:	4d09052e 	cfstr32mi	mvfx0, [r9, #-184]	; 0xffffff48
     4c8:	052e2e2e 	streq	r2, [lr, #-3630]!	; 0xfffff1d2
     4cc:	01052c0a 	tsteq	r5, sl, lsl #24
     4d0:	06250531 			; <UNDEFINED> instruction: 0x06250531
     4d4:	05010631 	streq	r0, [r1, #-1585]	; 0xfffff9cf
     4d8:	054b0605 	strbeq	r0, [fp, #-1541]	; 0xfffff9fb
     4dc:	14050109 	strne	r0, [r5], #-265	; 0xfffffef7
     4e0:	052e0106 	streq	r0, [lr, #-262]!	; 0xfffffefa
     4e4:	27052e05 	strcs	r2, [r5, -r5, lsl #28]
     4e8:	02040200 	andeq	r0, r4, #0, 4
     4ec:	2b052e06 	blcs	14bd0c <__bss_end__+0x141334>
     4f0:	02040200 	andeq	r0, r4, #0, 4
     4f4:	24050106 	strcs	r0, [r5], #-262	; 0xfffffefa
     4f8:	01040200 	mrseq	r0, R12_usr
     4fc:	05056606 	streq	r6, [r5, #-1542]	; 0xfffff9fa
     500:	01040200 	mrseq	r0, R12_usr
     504:	09050106 	stmdbeq	r5, {r1, r2, r8}
     508:	0c054b06 			; <UNDEFINED> instruction: 0x0c054b06
     50c:	054a0106 	strbeq	r0, [sl, #-262]	; 0xfffffefa
     510:	27052e0b 	strcs	r2, [r5, -fp, lsl #28]
     514:	01040200 	mrseq	r0, R12_usr
     518:	0023054a 	eoreq	r0, r3, sl, asr #10
     51c:	2e010402 	cdpcs	4, 0, cr0, cr1, cr2, {0}
     520:	01040200 	mrseq	r0, R12_usr
     524:	1801054a 	stmdane	r1, {r1, r3, r6, r8, sl}
     528:	4e062805 	cdpmi	8, 0, cr2, cr6, cr5, {0}
     52c:	05820106 	streq	r0, [r2, #262]	; 0x106
     530:	142f0605 	strtne	r0, [pc], #-1541	; 538 <__code_start__-0x7ac8>
     534:	01060905 	tsteq	r6, r5, lsl #18
     538:	052e0705 	streq	r0, [lr, #-1797]!	; 0xfffff8fb
     53c:	05670609 	strbeq	r0, [r7, #-1545]!	; 0xfffff9f7
     540:	9e011305 	cdpls	3, 0, cr1, cr1, cr5, {0}
     544:	00011366 	andeq	r1, r1, r6, ror #6
     548:	82020402 	andhi	r0, r2, #33554432	; 0x2000000
     54c:	02040200 	andeq	r0, r4, #0, 4
     550:	04020001 	streq	r0, [r2], #-1
     554:	0e051302 	cdpeq	3, 0, cr1, cr5, cr2, {0}
     558:	02040200 	andeq	r0, r4, #0, 4
     55c:	02050106 	andeq	r0, r5, #-2147483647	; 0x80000001
     560:	02040200 	andeq	r0, r4, #0, 4
     564:	05054b06 	streq	r4, [r5, #-2822]	; 0xfffff4fa
     568:	02040200 	andeq	r0, r4, #0, 4
     56c:	04020083 	streq	r0, [r2], #-131	; 0xffffff7d
     570:	02000102 	andeq	r0, r0, #-2147483648	; 0x80000000
     574:	00820204 	addeq	r0, r2, r4, lsl #4
     578:	01020402 	tsteq	r2, r2, lsl #8
     57c:	02040200 	andeq	r0, r4, #0, 4
     580:	00010513 	andeq	r0, r1, r3, lsl r5
     584:	06020402 	streq	r0, [r2], -r2, lsl #8
     588:	0609054b 	streq	r0, [r9], -fp, asr #10
     58c:	014a7903 	cmpeq	sl, r3, lsl #18
     590:	0505829e 	streq	r8, [r5, #-670]	; 0xfffffd62
     594:	01040200 	mrseq	r0, R12_usr
     598:	04020030 	streq	r0, [r2], #-48	; 0xffffffd0
     59c:	02000101 	andeq	r0, r0, #1073741824	; 0x40000000
     5a0:	00d60104 	sbcseq	r0, r6, r4, lsl #2
     5a4:	31010402 	tstcc	r1, r2, lsl #8
     5a8:	01040200 	mrseq	r0, R12_usr
     5ac:	04020001 	streq	r0, [r2], #-1
     5b0:	2f05d601 	svccs	0x0005d601
     5b4:	01065f08 	tsteq	r6, r8, lsl #30
     5b8:	a0060505 	andge	r0, r6, r5, lsl #10
     5bc:	01061005 	tsteq	r6, r5
     5c0:	0602052e 	streq	r0, [r2], -lr, lsr #10
     5c4:	6705054b 	strvs	r0, [r5, -fp, asr #10]
     5c8:	01061505 	tsteq	r6, r5, lsl #10
     5cc:	2f060505 	svccs	0x00060505
     5d0:	01060e05 	tsteq	r6, r5, lsl #28
     5d4:	4b060505 	blmi	1819f0 <__bss_end__+0x177018>
     5d8:	01061205 	tsteq	r6, r5, lsl #4
     5dc:	67060205 	strvs	r0, [r6, -r5, lsl #4]
     5e0:	01060a05 	tsteq	r6, r5, lsl #20
     5e4:	4b060205 	blmi	180e00 <__bss_end__+0x176428>
     5e8:	01060b05 	tsteq	r6, r5, lsl #22
     5ec:	31060505 	tstcc	r6, r5, lsl #10
     5f0:	05829e01 	streq	r9, [r2, #3585]	; 0xe01
     5f4:	05831402 	streq	r1, [r3, #1026]	; 0x402
     5f8:	66140601 	ldrvs	r0, [r4], -r1, lsl #12
     5fc:	01000602 	tsteq	r0, r2, lsl #12
     600:	0005ce01 	andeq	ip, r5, r1, lsl #28
     604:	fa000300 	blx	120c <__code_start__-0x6df4>
     608:	02000000 	andeq	r0, r0, #0, 0
     60c:	0d0efb01 	vstreq	d15, [lr, #-4]
     610:	01010100 	mrseq	r0, (UNDEF: 17)
     614:	00000001 	andeq	r0, r0, r1
     618:	01000001 	tsteq	r0, r1
     61c:	7273752f 	rsbsvc	r7, r3, #197132288	; 0xbc00000
     620:	636f6c2f 	cmnvs	pc, #12032	; 0x2f00
     624:	432f6c61 			; <UNDEFINED> instruction: 0x432f6c61
     628:	616c6c65 	cmnvs	ip, r5, ror #24
     62c:	72612f72 	rsbvc	r2, r1, #456	; 0x1c8
     630:	6f6e2d6d 	svcvs	0x006e2d6d
     634:	652d656e 	strvs	r6, [sp, #-1390]!	; 0xfffffa92
     638:	2d696261 	sfmcs	f6, 2, [r9, #-388]!	; 0xfffffe7c
     63c:	74736574 	ldrbtvc	r6, [r3], #-1396	; 0xfffffa8c
     640:	322d392f 	eorcc	r3, sp, #770048	; 0xbc000
     644:	71393130 	teqvc	r9, r0, lsr r1
     648:	73632d34 	cmnvc	r3, #52, 26	; 0xd00
     64c:	65373031 	ldrvs	r3, [r7, #-49]!	; 0xffffffcf
     650:	62696c2f 	rsbvs	r6, r9, #12032	; 0x2f00
     654:	6363672f 	cmnvs	r3, #12320768	; 0xbc0000
     658:	6d72612f 	ldfvse	f6, [r2, #-188]!	; 0xffffff44
     65c:	6e6f6e2d 	cdpvs	14, 6, cr6, cr15, cr13, {1}
     660:	61652d65 	cmnvs	r5, r5, ror #26
     664:	392f6962 	stmdbcc	pc!, {r1, r5, r6, r8, fp, sp, lr}	; <UNPREDICTABLE>
     668:	312e322e 			; <UNDEFINED> instruction: 0x312e322e
     66c:	636e692f 	cmnvs	lr, #770048	; 0xbc000
     670:	6564756c 	strbvs	r7, [r4, #-1388]!	; 0xfffffa94
     674:	73552f00 	cmpvc	r5, #0, 30
     678:	2f737265 	svccs	0x00737265
     67c:	73697274 	cmnvc	r9, #116, 4	; 0x40000007
     680:	6e6e6574 	mcrvs	5, 3, r6, cr14, cr4, {3}
     684:	6d6c6c6f 	stclvs	12, cr6, [ip, #-444]!	; 0xfffffe44
     688:	442f6e61 	strtmi	r6, [pc], #-3681	; 690 <__code_start__-0x7970>
     68c:	6d75636f 	ldclvs	3, cr6, [r5, #-444]!	; 0xfffffe44
     690:	73746e65 	cmnvc	r4, #1616	; 0x650
     694:	7270532f 	rsbsvc	r5, r0, #-1140850688	; 0xbc000000
     698:	5f676e69 	svcpl	0x00676e69
     69c:	72617551 	rsbvc	r7, r1, #339738624	; 0x14400000
     6a0:	5f726574 	svcpl	0x00726574
     6a4:	32323032 	eorscc	r3, r2, #50, 0	; 0x32
     6a8:	3253432f 	subscc	r4, r3, #-1140850688	; 0xbc000000
     6ac:	584c3034 	stmdapl	ip, {r2, r4, r5, ip, sp}^
     6b0:	7270732d 	rsbsvc	r7, r0, #-1275068416	; 0xb4000000
     6b4:	6c2f3232 	sfmvs	f3, 4, [pc], #-200	; 5f4 <__code_start__-0x7a0c>
     6b8:	69706269 	ldmdbvs	r0!, {r0, r3, r5, r6, r9, sp, lr}^
     6bc:	636e692f 	cmnvs	lr, #770048	; 0xbc000
     6c0:	6564756c 	strbvs	r7, [r4, #-1388]!	; 0xfffffa94
     6c4:	6b630000 	blvs	18c06cc <__bss_end__+0x18b5cf4>
     6c8:	2e63672d 	cdpcs	7, 6, cr6, cr3, cr13, {1}
     6cc:	00000063 	andeq	r0, r0, r3, rrx
     6d0:	64747300 	ldrbtvs	r7, [r4], #-768	; 0xfffffd00
     6d4:	2d746e69 	ldclcs	14, cr6, [r4, #-420]!	; 0xfffffe5c
     6d8:	2e636367 	cdpcs	3, 6, cr6, cr3, cr7, {3}
     6dc:	00010068 	andeq	r0, r1, r8, rrx
     6e0:	69707200 	ldmdbvs	r0!, {r9, ip, sp, lr}^
     6e4:	0200682e 	andeq	r6, r0, #3014656	; 0x2e0000
     6e8:	72730000 	rsbsvc	r0, r3, #0, 0
     6ec:	6f6c2d63 	svcvs	0x006c2d63
     6f0:	00682e63 	rsbeq	r2, r8, r3, ror #28
     6f4:	63000000 	movwvs	r0, #0
     6f8:	6c6c616b 	stfvse	f6, [ip], #-428	; 0xfffffe54
     6fc:	682e636f 	stmdavs	lr!, {r0, r1, r2, r3, r5, r6, r8, r9, sp, lr}
     700:	00000000 	andeq	r0, r0, r0
     704:	001d0500 	andseq	r0, sp, r0, lsl #10
     708:	84d00205 	ldrbhi	r0, [r0], #517	; 0x205
     70c:	27030000 	strcs	r0, [r3, -r0]
     710:	14050501 	strne	r0, [r5], #-1281	; 0xfffffaff
     714:	01060a05 	tsteq	r6, r5, lsl #20
     718:	054a0705 	strbeq	r0, [sl, #-1797]	; 0xfffff8fb
     71c:	0402001c 	streq	r0, [r2], #-28	; 0xffffffe4
     720:	17054a01 	strne	r4, [r5, -r1, lsl #20]
     724:	01040200 	mrseq	r0, R12_usr
     728:	4d0c054a 	cfstr32mi	mvfx0, [ip, #-296]	; 0xfffffed8
     72c:	2c10052e 	cfldr32cs	mvfx0, [r0], {46}	; 0x2e
     730:	01052e2e 	tsteq	r5, lr, lsr #28
     734:	06350531 			; <UNDEFINED> instruction: 0x06350531
     738:	064a3b03 	strbeq	r3, [sl], -r3, lsl #22
     73c:	06020501 	streq	r0, [r2], -r1, lsl #10
     740:	2e06132f 	cdpcs	3, 0, cr1, cr6, cr15, {1}
     744:	054d2f06 	strbeq	r2, [sp, #-3846]	; 0xfffff0fa
     748:	05010610 	streq	r0, [r1, #-1552]	; 0xfffff9f0
     74c:	054b0602 	strbeq	r0, [fp, #-1538]	; 0xfffff9fe
     750:	7a030624 	bvc	c1fe8 <__bss_end__+0xb7610>
     754:	2e180501 	cfmul32cs	mvfx0, mvfx8, mvfx1
     758:	052e0b05 	streq	r0, [lr, #-2821]!	; 0xfffff4fb
     75c:	0b053408 	bleq	14d784 <__bss_end__+0x142dac>
     760:	0e053506 	cfsh32eq	mvfx3, mvfx5, #6
     764:	29050106 	stmdbcs	r5, {r1, r2, r8}
     768:	01040200 	mrseq	r0, R12_usr
     76c:	0021054a 	eoreq	r0, r1, sl, asr #10
     770:	2e010402 	cdpcs	4, 0, cr0, cr1, cr2, {0}
     774:	30060505 	andcc	r0, r6, r5, lsl #10
     778:	01060b05 	tsteq	r6, r5, lsl #22
     77c:	2f060505 	svccs	0x00060505
     780:	01061205 	tsteq	r6, r5, lsl #4
     784:	4d060405 	cfstrsmi	mvf0, [r6, #-20]	; 0xffffffec
     788:	004a0601 	subeq	r0, sl, r1, lsl #12
     78c:	06010402 	streq	r0, [r1], -r2, lsl #8
     790:	0003052e 	andeq	r0, r3, lr, lsr #10
     794:	14010402 	strne	r0, [r1], #-1026	; 0xfffffbfe
     798:	02000a05 	andeq	r0, r0, #20480	; 0x5000
     79c:	01060104 	tsteq	r6, r4, lsl #2
     7a0:	03060805 	movweq	r0, #26629	; 0x6805
     7a4:	03056671 	movweq	r6, #22129	; 0x5671
     7a8:	060a054b 	streq	r0, [sl], -fp, asr #10
     7ac:	06030501 	streq	r0, [r3], -r1, lsl #10
     7b0:	060b052f 	streq	r0, [fp], -pc, lsr #10
     7b4:	2e060501 	cfsh32cs	mvfx0, mvfx6, #1
     7b8:	02003105 	andeq	r3, r0, #1073741825	; 0x40000001
     7bc:	054a0104 	strbeq	r0, [sl, #-260]	; 0xfffffefc
     7c0:	05680604 	strbeq	r0, [r8, #-1540]!	; 0xfffff9fc
     7c4:	0501060d 	streq	r0, [r1, #-1549]	; 0xfffff9f3
     7c8:	21052e07 	tstcs	r5, r7, lsl #28
     7cc:	01040200 	mrseq	r0, R12_usr
     7d0:	001a054a 	andseq	r0, sl, sl, asr #10
     7d4:	2e010402 	cdpcs	4, 0, cr0, cr1, cr2, {0}
     7d8:	4c060505 	cfstr32mi	mvfx0, [r6], {5}
     7dc:	01061105 	tsteq	r6, r5, lsl #2
     7e0:	0602052e 	streq	r0, [r2], -lr, lsr #10
     7e4:	012e0d03 			; <UNDEFINED> instruction: 0x012e0d03
     7e8:	2e064a06 	vmlacs.f32	s8, s12, s12
     7ec:	06040513 			; <UNDEFINED> instruction: 0x06040513
     7f0:	06030501 	streq	r0, [r3], -r1, lsl #10
     7f4:	004a014b 	subeq	r0, sl, fp, asr #2
     7f8:	14010402 	strne	r0, [r1], #-1026	; 0xfffffbfe
     7fc:	02000205 	andeq	r0, r0, #1342177280	; 0x50000000
     800:	00140104 	andseq	r0, r4, r4, lsl #2
     804:	4b010402 	blmi	41814 <__bss_end__+0x36e3c>
     808:	02000105 	andeq	r0, r0, #1073741825	; 0x40000001
     80c:	13060104 	movwne	r0, #24836	; 0x6104
     810:	46060305 	strmi	r0, [r6], -r5, lsl #6
     814:	03220501 			; <UNDEFINED> instruction: 0x03220501
     818:	740800d8 	strvc	r0, [r8], #-216	; 0xffffff28
     81c:	132f0205 			; <UNDEFINED> instruction: 0x132f0205
     820:	10054c4b 	andne	r4, r5, fp, asr #24
     824:	02050106 	andeq	r0, r5, #-2147483647	; 0x80000001
     828:	22054b06 	andcs	r4, r5, #6144	; 0x1800
     82c:	18050d06 	stmdane	r5, {r1, r2, r8, sl, fp}
     830:	2e0b052e 	cfsh32cs	mvfx0, mvfx11, #30
     834:	05330805 	ldreq	r0, [r3, #-2053]!	; 0xfffff7fb
     838:	04020004 	streq	r0, [r2], #-4
     83c:	05350601 	ldreq	r0, [r5, #-1537]!	; 0xfffff9ff
     840:	04020003 	streq	r0, [r2], #-3
     844:	0a051401 	beq	145850 <__bss_end__+0x13ae78>
     848:	01040200 	mrseq	r0, R12_usr
     84c:	08050106 	stmdaeq	r5, {r1, r2, r8}
     850:	66770306 	ldrbtvs	r0, [r7], -r6, lsl #6
     854:	054b0305 	strbeq	r0, [fp, #-773]	; 0xfffffcfb
     858:	0501060a 	streq	r0, [r1, #-1546]	; 0xfffff9f6
     85c:	052f0603 	streq	r0, [pc, #-1539]!	; 261 <__code_start__-0x7d9f>
     860:	0501060b 	streq	r0, [r1, #-1547]	; 0xfffff9f5
     864:	25052e06 	strcs	r2, [r5, #-3590]	; 0xfffff1fa
     868:	01040200 	mrseq	r0, R12_usr
     86c:	001e054a 	andseq	r0, lr, sl, asr #10
     870:	2e010402 	cdpcs	4, 0, cr0, cr1, cr2, {0}
     874:	02003805 	andeq	r3, r0, #327680	; 0x50000
     878:	054a0204 	strbeq	r0, [sl, #-516]	; 0xfffffdfc
     87c:	04020031 	streq	r0, [r2], #-49	; 0xffffffcf
     880:	04052e02 	streq	r2, [r5], #-3586	; 0xfffff1fe
     884:	10054c06 	andne	r4, r5, r6, lsl #24
     888:	04050106 	streq	r0, [r5], #-262	; 0xfffffefa
     88c:	0a054b06 	beq	1534ac <__bss_end__+0x148ad4>
     890:	04050106 	streq	r0, [r5], #-262	; 0xfffffefa
     894:	18052f06 	stmdane	r5, {r1, r2, r8, r9, sl, fp, sp}
     898:	11050106 	tstne	r5, r6, lsl #2
     89c:	0604052e 	streq	r0, [r4], -lr, lsr #10
     8a0:	4a06012f 	bmi	180d64 <__bss_end__+0x17638c>
     8a4:	0602052e 	streq	r0, [r2], -lr, lsr #10
     8a8:	82060133 	andhi	r0, r6, #-1073741812	; 0xc000000c
     8ac:	05052e06 	streq	r2, [r5, #-3590]	; 0xfffff1fa
     8b0:	06010514 			; <UNDEFINED> instruction: 0x06010514
     8b4:	06250513 			; <UNDEFINED> instruction: 0x06250513
     8b8:	ba7ec403 	blt	1fb18cc <__bss_end__+0x1fa6ef4>
     8bc:	05050106 	streq	r0, [r5, #-262]	; 0xfffffefa
     8c0:	05144b06 	ldreq	r4, [r4, #-2822]	; 0xfffff4fa
     8c4:	05010609 	streq	r0, [r1, #-1545]	; 0xfffff9f7
     8c8:	05052e07 	streq	r2, [r5, #-3591]	; 0xfffff1f9
     8cc:	0c054c06 	stceq	12, cr4, [r5], {6}
     8d0:	10050106 	andne	r0, r5, r6, lsl #2
     8d4:	30010565 	andcc	r0, r1, r5, ror #10
     8d8:	03062c05 	movweq	r2, #27653	; 0x6c05
     8dc:	01062e0d 	tsteq	r6, sp, lsl #28
     8e0:	4b060505 	blmi	181cfc <__bss_end__+0x177324>
     8e4:	04020001 	streq	r0, [r2], #-1
     8e8:	02006602 	andeq	r6, r0, #2097152	; 0x200000
     8ec:	00010204 	andeq	r0, r1, r4, lsl #4
     8f0:	14020402 	strne	r0, [r2], #-1026	; 0xfffffbfe
     8f4:	02040200 	andeq	r0, r4, #0, 4
     8f8:	04020001 	streq	r0, [r2], #-1
     8fc:	02004a02 	andeq	r4, r0, #8192	; 0x2000
     900:	00010204 	andeq	r0, r1, r4, lsl #4
     904:	13020402 	movwne	r0, #9218	; 0x2402
     908:	02040200 	andeq	r0, r4, #0, 4
     90c:	04020001 	streq	r0, [r2], #-1
     910:	02004a02 	andeq	r4, r0, #8192	; 0x2000
     914:	05010204 	streq	r0, [r1, #-516]	; 0xfffffdfc
     918:	04020002 	streq	r0, [r2], #-2
     91c:	1f051402 	svcne	0x00051402
     920:	02040200 	andeq	r0, r4, #0, 4
     924:	11050106 	tstne	r5, r6, lsl #2
     928:	02040200 	andeq	r0, r4, #0, 4
     92c:	0002052e 	andeq	r0, r2, lr, lsr #10
     930:	06020402 	streq	r0, [r2], -r2, lsl #8
     934:	0007052f 	andeq	r0, r7, pc, lsr #10
     938:	01020402 	tsteq	r2, r2, lsl #8
     93c:	02000205 	andeq	r0, r0, #1342177280	; 0x50000000
     940:	01060204 	tsteq	r6, r4, lsl #4
     944:	02040200 	andeq	r0, r4, #0, 4
     948:	0005052e 	andeq	r0, r5, lr, lsr #10
     94c:	06010402 	streq	r0, [r1], -r2, lsl #8
     950:	00017a03 	andeq	r7, r1, r3, lsl #20
     954:	01010402 	tsteq	r1, r2, lsl #8
     958:	01040200 	mrseq	r0, R12_usr
     95c:	02009e06 	andeq	r9, r0, #96	; 0x60
     960:	002e0104 	eoreq	r0, lr, r4, lsl #2
     964:	06010402 	streq	r0, [r1], -r2, lsl #8
     968:	0402002e 	streq	r0, [r2], #-46	; 0xffffffd2
     96c:	02003001 	andeq	r3, r0, #1, 0
     970:	00010104 	andeq	r0, r1, r4, lsl #2
     974:	06010402 	streq	r0, [r1], -r2, lsl #8
     978:	0402009e 	streq	r0, [r2], #-158	; 0xffffff62
     97c:	02002e01 	andeq	r2, r0, #1, 28
     980:	2e060104 	adfcss	f0, f6, f4
     984:	01040200 	mrseq	r0, R12_usr
     988:	0402002f 	streq	r0, [r2], #-47	; 0xffffffd1
     98c:	02000101 	andeq	r0, r0, #1073741824	; 0x40000000
     990:	9e060104 	adflss	f0, f6, f4
     994:	01040200 	mrseq	r0, R12_usr
     998:	0402002e 	streq	r0, [r2], #-46	; 0xffffffd2
     99c:	052e0601 	streq	r0, [lr, #-1537]!	; 0xfffff9ff
     9a0:	2e0b030b 	cdpcs	3, 0, cr0, cr11, cr11, {0}
     9a4:	01061705 	tsteq	r6, r5, lsl #14
     9a8:	052e0e05 	streq	r0, [lr, #-3589]!	; 0xfffff1fb
     9ac:	054e0604 	strbeq	r0, [lr, #-1540]	; 0xfffff9fc
     9b0:	0501060e 	streq	r0, [r1, #-1550]	; 0xfffff9f2
     9b4:	052f0604 	streq	r0, [pc, #-1540]!	; 3b8 <__code_start__-0x7c48>
     9b8:	05010644 	streq	r0, [r1, #-1604]	; 0xfffff9bc
     9bc:	062f0604 	strteq	r0, [pc], -r4, lsl #12
     9c0:	26052e2e 	strcs	r2, [r5], -lr, lsr #28
     9c4:	02040200 	andeq	r0, r4, #0, 4
     9c8:	01720306 	cmneq	r2, r6, lsl #6
     9cc:	02002705 	andeq	r2, r0, #1310720	; 0x140000
     9d0:	01060204 	tsteq	r6, r4, lsl #4
     9d4:	02001705 	andeq	r1, r0, #1310720	; 0x140000
     9d8:	2e060104 	adfcss	f0, f6, f4
     9dc:	02000205 	andeq	r0, r0, #1342177280	; 0x50000000
     9e0:	01060104 	tsteq	r6, r4, lsl #2
     9e4:	4b060305 	blmi	181600 <__bss_end__+0x176c28>
     9e8:	01061e05 	tsteq	r6, r5, lsl #28
     9ec:	052e1605 	streq	r1, [lr, #-1541]!	; 0xfffff9fb
     9f0:	054b0603 	strbeq	r0, [fp, #-1539]	; 0xfffff9fd
     9f4:	05010606 	streq	r0, [r1, #-1542]	; 0xfffff9fa
     9f8:	0402001e 	streq	r0, [r2], #-30	; 0xffffffe2
     9fc:	11054a01 	tstne	r5, r1, lsl #20
     a00:	01040200 	mrseq	r0, R12_usr
     a04:	0604052e 	streq	r0, [r4], -lr, lsr #10
     a08:	0614054c 	ldreq	r0, [r4], -ip, asr #10
     a0c:	06040501 	streq	r0, [r4], -r1, lsl #10
     a10:	0608054b 	streq	r0, [r8], -fp, asr #10
     a14:	07054a01 	streq	r4, [r5, -r1, lsl #20]
     a18:	0605052e 	streq	r0, [r5], -lr, lsr #10
     a1c:	060e054c 	streq	r0, [lr], -ip, asr #10
     a20:	2e1b0501 	cfmul32cs	mvfx0, mvfx11, mvfx1
     a24:	68060505 	stmdavs	r6, {r0, r2, r8, sl}
     a28:	01060e05 	tsteq	r6, r5, lsl #28
     a2c:	662e1a05 	strtvs	r1, [lr], -r5, lsl #20
     a30:	4a1a0105 	bmi	680e4c <__bss_end__+0x676474>
     a34:	00061c05 	andeq	r1, r6, r5, lsl #24
     a38:	88200205 	stmdahi	r0!, {r0, r2, r9}
     a3c:	30030000 	andcc	r0, r3, r0
     a40:	4e050501 	cfsh32mi	mvfx0, mvfx5, #1
     a44:	05010905 	streq	r0, [r1, #-2309]	; 0xfffff6fb
     a48:	05010614 	streq	r0, [r1, #-1556]	; 0xfffff9ec
     a4c:	04020024 	streq	r0, [r2], #-36	; 0xffffffdc
     a50:	052e0601 	streq	r0, [lr, #-1537]!	; 0xfffff9ff
     a54:	04020005 	streq	r0, [r2], #-5
     a58:	05010601 	streq	r0, [r1, #-1537]	; 0xfffff9ff
     a5c:	04020009 	streq	r0, [r2], #-9
     a60:	054b0603 	strbeq	r0, [fp, #-1539]	; 0xfffff9fd
     a64:	04020032 	streq	r0, [r2], #-50	; 0xffffffce
     a68:	05010603 	streq	r0, [r1, #-1539]	; 0xfffff9fd
     a6c:	04020021 	streq	r0, [r2], #-33	; 0xffffffdf
     a70:	11054a03 	tstne	r5, r3, lsl #20
     a74:	03040200 	movweq	r0, #16896	; 0x4200
     a78:	0027052e 	eoreq	r0, r7, lr, lsr #10
     a7c:	06030402 	streq	r0, [r3], -r2, lsl #8
     a80:	002b052d 	eoreq	r0, fp, sp, lsr #10
     a84:	06030402 	streq	r0, [r3], -r2, lsl #8
     a88:	04020001 	streq	r0, [r2], #-1
     a8c:	02002e03 	andeq	r2, r0, #3, 28	; 0x30
     a90:	052e0304 	streq	r0, [lr, #-772]!	; 0xfffffcfc
     a94:	13180605 	tstne	r8, #5242880	; 0x500000
     a98:	31062e06 	tstcc	r6, r6, lsl #28
     a9c:	01060d05 	tsteq	r6, r5, lsl #26
     aa0:	4b060505 	blmi	181ebc <__bss_end__+0x1774e4>
     aa4:	01060d05 	tsteq	r6, r5, lsl #26
     aa8:	2f060505 	svccs	0x00060505
     aac:	01060d05 	tsteq	r6, r5, lsl #26
     ab0:	2f060505 	svccs	0x00060505
     ab4:	01060d05 	tsteq	r6, r5, lsl #26
     ab8:	30060505 	andcc	r0, r6, r5, lsl #10
     abc:	01010168 	tsteq	r1, r8, ror #2
     ac0:	13020518 	movwne	r0, #9496	; 0x2518
     ac4:	13690505 	cmnne	r9, #20971520	; 0x1400000
     ac8:	01051368 	tsteq	r5, r8, ror #6
     acc:	1c056706 	stcne	7, cr6, [r5], {6}
     ad0:	7edc0306 	cdpvc	3, 13, cr0, cr12, cr6, {0}
     ad4:	050106ba 	streq	r0, [r1, #-1722]	; 0xfffff946
     ad8:	01670602 	cmneq	r7, r2, lsl #12
     adc:	2e062e06 	cdpcs	14, 0, cr2, cr6, cr6, {0}
     ae0:	01130505 	tsteq	r3, r5, lsl #10
     ae4:	02040200 	andeq	r0, r4, #0, 4
     ae8:	0402004a 	streq	r0, [r2], #-74	; 0xffffffb6
     aec:	02000102 	andeq	r0, r0, #-2147483648	; 0x80000000
     af0:	05130204 	ldreq	r0, [r3, #-516]	; 0xfffffdfc
     af4:	04020008 	streq	r0, [r2], #-8
     af8:	05010602 	streq	r0, [r1, #-1538]	; 0xfffff9fe
     afc:	04020007 	streq	r0, [r2], #-7
     b00:	09054a02 	stmdbeq	r5, {r1, r9, fp, lr}
     b04:	13144b06 	tstne	r4, #6144	; 0x1800
     b08:	01061405 	tsteq	r6, r5, lsl #8
     b0c:	67060905 	strvs	r0, [r6, -r5, lsl #18]
     b10:	01061205 	tsteq	r6, r5, lsl #4
     b14:	4b060905 	blmi	182f30 <__bss_end__+0x178558>
     b18:	0610054b 	ldreq	r0, [r0], -fp, asr #10
     b1c:	06050501 	streq	r0, [r5], -r1, lsl #10
     b20:	060c054c 	streq	r0, [ip], -ip, asr #10
     b24:	4b010501 	blmi	41f30 <__bss_end__+0x37558>
     b28:	02000505 	andeq	r0, r0, #20971520	; 0x1400000
     b2c:	03060104 	movweq	r0, #24836	; 0x6104
     b30:	02004a75 	andeq	r4, r0, #479232	; 0x75000
     b34:	00010104 	andeq	r0, r1, r4, lsl #2
     b38:	d6010402 	strle	r0, [r1], -r2, lsl #8
     b3c:	01300905 	teqeq	r0, r5, lsl #18
     b40:	0331059e 	teqeq	r1, #662700032	; 0x27800000
     b44:	06f201a4 	ldrbteq	r0, [r2], r4, lsr #3
     b48:	06020501 	streq	r0, [r2], -r1, lsl #10
     b4c:	2e06014b 	adfcssm	f0, f6, #3.0
     b50:	05052e06 	streq	r2, [r5, #-3590]	; 0xfffff1fa
     b54:	2f020513 	svccs	0x00020513
     b58:	054b0505 	strbeq	r0, [fp, #-1285]	; 0xfffffafb
     b5c:	0501060c 	streq	r0, [r1, #-1548]	; 0xfffff9f4
     b60:	1a054b01 	bne	15376c <__bss_end__+0x148d94>
     b64:	05056906 	streq	r6, [r5, #-2310]	; 0xfffff6fa
     b68:	08051332 	stmdaeq	r5, {r1, r4, r5, r8, r9, ip}
     b6c:	07050106 	streq	r0, [r5, -r6, lsl #2]
     b70:	0609054a 	streq	r0, [r9], -sl, asr #10
     b74:	4a01144b 	bmi	45ca8 <__bss_end__+0x3b2d0>
     b78:	05130505 	ldreq	r0, [r3, #-1285]	; 0xfffffafb
     b7c:	05130601 	ldreq	r0, [r3, #-1537]	; 0xfffff9ff
     b80:	012a0609 			; <UNDEFINED> instruction: 0x012a0609
     b84:	a522059e 	strge	r0, [r2, #-1438]!	; 0xfffffa62
     b88:	13320505 	teqne	r2, #20971520	; 0x1400000
     b8c:	01061705 	tsteq	r6, r5, lsl #14
     b90:	4b060505 	blmi	181fac <__bss_end__+0x1775d4>
     b94:	01060705 	tsteq	r6, r5, lsl #14
     b98:	4b060905 	blmi	182fb4 <__bss_end__+0x1785dc>
     b9c:	4a060114 	bmi	180ff4 <__bss_end__+0x17661c>
     ba0:	05052e06 	streq	r2, [r5, #-3590]	; 0xfffff1fa
     ba4:	01051313 	tsteq	r5, r3, lsl r3
     ba8:	09051306 	stmdbeq	r5, {r1, r2, r8, r9, ip}
     bac:	9e014506 	cfsh32ls	mvfx4, mvfx1, #6
     bb0:	1f031605 	svcne	0x00031605
     bb4:	2f05059e 	svccs	0x0005059e
     bb8:	0617052f 	ldreq	r0, [r7], -pc, lsr #10
     bbc:	06050501 	streq	r0, [r5], -r1, lsl #10
     bc0:	06010532 			; <UNDEFINED> instruction: 0x06010532
     bc4:	061b0513 			; <UNDEFINED> instruction: 0x061b0513
     bc8:	2f050530 	svccs	0x00050530
     bcc:	08029e01 	stmdaeq	r2, {r0, r9, sl, fp, ip, pc}
     bd0:	52010100 	andpl	r0, r1, #0
     bd4:	03000002 	movweq	r0, #2
     bd8:	00008a00 	andeq	r8, r0, r0, lsl #20
     bdc:	fb010200 	blx	413e6 <__bss_end__+0x36a0e>
     be0:	01000d0e 	tsteq	r0, lr, lsl #26
     be4:	00010101 	andeq	r0, r1, r1, lsl #2
     be8:	00010000 	andeq	r0, r1, r0
     bec:	552f0100 	strpl	r0, [pc, #-256]!	; af4 <__code_start__-0x750c>
     bf0:	73726573 	cmnvc	r2, #482344960	; 0x1cc00000
     bf4:	6972742f 	ldmdbvs	r2!, {r0, r1, r2, r3, r5, sl, ip, sp, lr}^
     bf8:	6e657473 	mcrvs	4, 3, r7, cr5, cr3, {3}
     bfc:	6c6c6f6e 	stclvs	15, cr6, [ip], #-440	; 0xfffffe48
     c00:	2f6e616d 	svccs	0x006e616d
     c04:	75636f44 	strbvc	r6, [r3, #-3908]!	; 0xfffff0bc
     c08:	746e656d 	strbtvc	r6, [lr], #-1389	; 0xfffffa93
     c0c:	70532f73 	subsvc	r2, r3, r3, ror pc
     c10:	676e6972 			; <UNDEFINED> instruction: 0x676e6972
     c14:	6175515f 	cmnvs	r5, pc, asr r1
     c18:	72657472 	rsbvc	r7, r5, #1912602624	; 0x72000000
     c1c:	3230325f 	eorscc	r3, r0, #-268435451	; 0xf0000005
     c20:	53432f32 	movtpl	r2, #16178	; 0x3f32
     c24:	4c303432 	cfldrsmi	mvf3, [r0], #-200	; 0xffffff38
     c28:	70732d58 	rsbsvc	r2, r3, r8, asr sp
     c2c:	2f323272 	svccs	0x00323272
     c30:	7062696c 	rsbvc	r6, r2, ip, ror #18
     c34:	6e692f69 	cdpvs	15, 6, cr2, cr9, cr9, {3}
     c38:	64756c63 	ldrbtvs	r6, [r5], #-3171	; 0xfffff39d
     c3c:	6b000065 	blvs	dd8 <__code_start__-0x7228>
     c40:	616d2d72 	smcvs	53970	; 0xd2d2
     c44:	636f6c6c 	cmnvs	pc, #108, 24	; 0x6c00
     c48:	0000632e 	andeq	r6, r0, lr, lsr #6
     c4c:	70720000 	rsbsvc	r0, r2, r0
     c50:	00682e69 	rsbeq	r2, r8, r9, ror #28
     c54:	6b000001 	blvs	c60 <__code_start__-0x73a0>
     c58:	616d2d72 	smcvs	53970	; 0xd2d2
     c5c:	636f6c6c 	cmnvs	pc, #108, 24	; 0x6c00
     c60:	0000682e 	andeq	r6, r0, lr, lsr #16
     c64:	05000000 	streq	r0, [r0, #-0]
     c68:	02050019 	andeq	r0, r5, #25, 0
     c6c:	00008aa8 	andeq	r8, r0, r8, lsr #21
     c70:	0100d203 	tsteq	r0, r3, lsl #4
     c74:	02050106 	andeq	r0, r5, #-2147483647	; 0x80000001
     c78:	05132f06 	ldreq	r2, [r3, #-3846]	; 0xfffff0fa
     c7c:	05010605 	streq	r0, [r1, #-1541]	; 0xfffff9fb
     c80:	052f0602 	streq	r0, [pc, #-1538]!	; 686 <__code_start__-0x797a>
     c84:	05010609 	streq	r0, [r1, #-1545]	; 0xfffff9f7
     c88:	052e4a02 	streq	r4, [lr, #-2562]!	; 0xfffff5fe
     c8c:	04020012 	streq	r0, [r2], #-18	; 0xffffffee
     c90:	052e0601 	streq	r0, [lr, #-1537]!	; 0xfffff9ff
     c94:	04020002 	streq	r0, [r2], #-2
     c98:	05010601 	streq	r0, [r1, #-1537]	; 0xfffff9ff
     c9c:	04020026 	streq	r0, [r2], #-38	; 0xffffffda
     ca0:	12054a03 	andne	r4, r5, #12288	; 0x3000
     ca4:	03040200 	movweq	r0, #16896	; 0x4200
     ca8:	0603052e 	streq	r0, [r3], -lr, lsr #10
     cac:	0610054b 	ldreq	r0, [r0], -fp, asr #10
     cb0:	2e060501 	cfsh32cs	mvfx0, mvfx6, #1
     cb4:	02001505 	andeq	r1, r0, #20971520	; 0x1400000
     cb8:	054a0104 	strbeq	r0, [sl, #-260]	; 0xfffffefc
     cbc:	04020020 	streq	r0, [r2], #-32	; 0xffffffe0
     cc0:	02004a02 	andeq	r4, r0, #8192	; 0x2000
     cc4:	054a0204 	strbeq	r0, [sl, #-516]	; 0xfffffdfc
     cc8:	05320602 	ldreq	r0, [r2, #-1538]!	; 0xfffff9fe
     ccc:	05010610 	streq	r0, [r1, #-1552]	; 0xfffff9f0
     cd0:	1d052e09 	stcne	14, cr2, [r5, #-36]	; 0xffffffdc
     cd4:	2e05052e 	cfsh32cs	mvfx0, mvfx5, #30
     cd8:	4e060c05 	cdpmi	12, 0, cr0, cr6, cr5, {0}
     cdc:	01061605 	tsteq	r6, r5, lsl #12
     ce0:	2f060805 	svccs	0x00060805
     ce4:	01061405 	tsteq	r6, r5, lsl #8
     ce8:	052e0e05 	streq	r0, [lr, #-3589]!	; 0xfffff1fb
     cec:	0c052e0b 	stceq	14, cr2, [r5], {11}
     cf0:	15054e06 	strne	r4, [r5, #-3590]	; 0xfffff1fa
     cf4:	02050106 	andeq	r0, r5, #-2147483647	; 0x80000001
     cf8:	08053006 	stmdaeq	r5, {r1, r2, ip, sp}
     cfc:	01050106 	tsteq	r5, r6, lsl #2
     d00:	060c054b 	streq	r0, [ip], -fp, asr #10
     d04:	052e7503 	streq	r7, [lr, #-1283]!	; 0xfffffafd
     d08:	05010625 	streq	r0, [r1, #-1573]	; 0xfffff9db
     d0c:	0c052e17 	stceq	14, cr2, [r5], {23}
     d10:	1c054b06 			; <UNDEFINED> instruction: 0x1c054b06
     d14:	23050106 	movwcs	r0, #20742	; 0x5106
     d18:	2e16052e 	cfmul64cs	mvdx0, mvdx6, mvdx14
     d1c:	4e060c05 	cdpmi	12, 0, cr0, cr6, cr5, {0}
     d20:	01061e05 	tsteq	r6, r5, lsl #28
     d24:	052e1605 	streq	r1, [lr, #-1541]!	; 0xfffff9fb
     d28:	054b060c 	strbeq	r0, [fp, #-1548]	; 0xfffff9f4
     d2c:	0501061c 	streq	r0, [r1, #-1564]	; 0xfffff9e4
     d30:	2a052e15 	bcs	14c58c <__bss_end__+0x141bb4>
     d34:	7fb70306 	svcvc	0x00b70306
     d38:	05010666 	streq	r0, [r1, #-1638]	; 0xfffff99a
     d3c:	134b0602 	movtne	r0, #46594	; 0xb602
     d40:	06050514 			; <UNDEFINED> instruction: 0x06050514
     d44:	2f070501 	svccs	0x00070501
     d48:	31060205 	tstcc	r6, r5, lsl #4
     d4c:	01060705 	tsteq	r6, r5, lsl #14
     d50:	4b060205 	blmi	18156c <__bss_end__+0x176b94>
     d54:	01060505 	tsteq	r6, r5, lsl #10
     d58:	4e060205 	cdpmi	2, 0, cr0, cr6, cr5, {0}
     d5c:	060d0513 			; <UNDEFINED> instruction: 0x060d0513
     d60:	06020501 	streq	r0, [r2], -r1, lsl #10
     d64:	062e062f 	strteq	r0, [lr], -pc, lsr #12
     d68:	0609052f 	streq	r0, [r9], -pc, lsr #10
     d6c:	030a0501 	movweq	r0, #42241	; 0xa501
     d70:	0105667a 	tsteq	r5, sl, ror r6
     d74:	06220535 			; <UNDEFINED> instruction: 0x06220535
     d78:	0501064d 	streq	r0, [r1, #-1613]	; 0xfffff9b3
     d7c:	132f0602 			; <UNDEFINED> instruction: 0x132f0602
     d80:	24051413 	strcs	r1, [r5], #-1043	; 0xfffffbed
     d84:	29050106 	stmdbcs	r5, {r1, r2, r8}
     d88:	2e09052e 	cfsh32cs	mvfx0, mvfx9, #30
     d8c:	2f060205 	svccs	0x00060205
     d90:	01060d05 	tsteq	r6, r5, lsl #26
     d94:	054a0505 	strbeq	r0, [sl, #-1285]	; 0xfffffafb
     d98:	05500602 	ldrbeq	r0, [r0, #-1538]	; 0xfffff9fe
     d9c:	2e010609 	cfmadd32cs	mvax0, mvfx0, mvfx1, mvfx9
     da0:	2a060305 	bcs	1819bc <__bss_end__+0x176fe4>
     da4:	01061605 	tsteq	r6, r5, lsl #12
     da8:	054a0e05 	strbeq	r0, [sl, #-3589]	; 0xfffff1fb
     dac:	052f0603 	streq	r0, [pc, #-1539]!	; 7b1 <__code_start__-0x784f>
     db0:	0501060f 	streq	r0, [r1, #-1551]	; 0xfffff9f1
     db4:	056c0604 	strbeq	r0, [ip, #-1540]!	; 0xfffff9fc
     db8:	05010607 	streq	r0, [r1, #-1543]	; 0xfffff9f9
     dbc:	05320605 	ldreq	r0, [r2, #-1541]!	; 0xfffff9fb
     dc0:	0501060f 	streq	r0, [r1, #-1551]	; 0xfffff9f1
     dc4:	054b0605 	strbeq	r0, [fp, #-1541]	; 0xfffff9fb
     dc8:	05010607 	streq	r0, [r1, #-1543]	; 0xfffff9f9
     dcc:	052f0605 	streq	r0, [pc, #-1541]!	; 7cf <__code_start__-0x7831>
     dd0:	0501060f 	streq	r0, [r1, #-1551]	; 0xfffff9f1
     dd4:	05300604 	ldreq	r0, [r0, #-1540]!	; 0xfffff9fc
     dd8:	0501060a 	streq	r0, [r1, #-1546]	; 0xfffff9f6
     ddc:	054b0604 	strbeq	r0, [fp, #-1540]	; 0xfffff9fc
     de0:	2e01060b 	cfmadd32cs	mvax0, mvfx0, mvfx1, mvfx11
     de4:	03060505 	movweq	r0, #25861	; 0x6505
     de8:	18052e79 	stmdane	r5, {r0, r3, r4, r5, r6, r9, sl, fp, sp}
     dec:	12050106 	andne	r0, r5, #-2147483647	; 0x80000001
     df0:	061a052e 	ldreq	r0, [sl], -lr, lsr #10
     df4:	01180545 	tsteq	r8, r5, asr #10
     df8:	01062005 	tsteq	r6, r5
     dfc:	052e2705 	streq	r2, [lr, #-1797]!	; 0xfffff8fb
     e00:	052f0603 	streq	r0, [pc, #-1539]!	; 805 <__code_start__-0x77fb>
     e04:	0501060b 	streq	r0, [r1, #-1547]	; 0xfffff9f5
     e08:	03052e06 	movweq	r2, #24070	; 0x5e06
     e0c:	4a0e0306 	bmi	381a2c <__bss_end__+0x377054>
     e10:	01060905 	tsteq	r6, r5, lsl #18
     e14:	054a0605 	strbeq	r0, [sl, #-1541]	; 0xfffff9fb
     e18:	054c0604 	strbeq	r0, [ip, #-1540]	; 0xfffff9fc
     e1c:	2e01060d 	cfmadd32cs	mvax0, mvfx0, mvfx1, mvfx13
     e20:	2e2e0705 	cdpcs	7, 2, cr0, cr14, cr5, {0}
     e24:	01000602 	tsteq	r0, r2, lsl #12
     e28:	00011401 	andeq	r1, r1, r1, lsl #8
     e2c:	e4000300 	str	r0, [r0], #-768	; 0xfffffd00
     e30:	02000000 	andeq	r0, r0, #0, 0
     e34:	0d0efb01 	vstreq	d15, [lr, #-4]
     e38:	01010100 	mrseq	r0, (UNDEF: 17)
     e3c:	00000001 	andeq	r0, r0, r1
     e40:	01000001 	tsteq	r0, r1
     e44:	696c2f2e 	stmdbvs	ip!, {r1, r2, r3, r5, r8, r9, sl, fp, sp}^
     e48:	2f006362 	svccs	0x00006362
     e4c:	72657355 	rsbvc	r7, r5, #1409286145	; 0x54000001
     e50:	72742f73 	rsbsvc	r2, r4, #460	; 0x1cc
     e54:	65747369 	ldrbvs	r7, [r4, #-873]!	; 0xfffffc97
     e58:	6c6f6e6e 	stclvs	14, cr6, [pc], #-440	; ca8 <__code_start__-0x7358>
     e5c:	6e616d6c 	cdpvs	13, 6, cr6, cr1, cr12, {3}
     e60:	636f442f 	cmnvs	pc, #788529152	; 0x2f000000
     e64:	6e656d75 	mcrvs	13, 3, r6, cr5, cr5, {3}
     e68:	532f7374 			; <UNDEFINED> instruction: 0x532f7374
     e6c:	6e697270 	mcrvs	2, 3, r7, cr9, cr0, {3}
     e70:	75515f67 	ldrbvc	r5, [r1, #-3943]	; 0xfffff099
     e74:	65747261 	ldrbvs	r7, [r4, #-609]!	; 0xfffffd9f
     e78:	30325f72 	eorscc	r5, r2, r2, ror pc
     e7c:	432f3232 			; <UNDEFINED> instruction: 0x432f3232
     e80:	30343253 	eorscc	r3, r4, r3, asr r2
     e84:	732d584c 			; <UNDEFINED> instruction: 0x732d584c
     e88:	32327270 	eorscc	r7, r2, #112, 4
     e8c:	62696c2f 	rsbvs	r6, r9, #12032	; 0x2f00
     e90:	692f6970 	stmdbvs	pc!, {r4, r5, r6, r8, fp, sp, lr}	; <UNPREDICTABLE>
     e94:	756c636e 	strbvc	r6, [ip, #-878]!	; 0xfffffc92
     e98:	2f006564 	svccs	0x00006564
     e9c:	2f727375 	svccs	0x00727375
     ea0:	61636f6c 	cmnvs	r3, ip, ror #30
     ea4:	65432f6c 	strbvs	r2, [r3, #-3948]	; 0xfffff094
     ea8:	72616c6c 	rsbvc	r6, r1, #108, 24	; 0x6c00
     eac:	6d72612f 	ldfvse	f6, [r2, #-188]!	; 0xffffff44
     eb0:	6e6f6e2d 	cdpvs	14, 6, cr6, cr15, cr13, {1}
     eb4:	61652d65 	cmnvs	r5, r5, ror #26
     eb8:	742d6962 	strtvc	r6, [sp], #-2402	; 0xfffff69e
     ebc:	2f747365 	svccs	0x00747365
     ec0:	30322d39 	eorscc	r2, r2, r9, lsr sp
     ec4:	34713931 	ldrbtcc	r3, [r1], #-2353	; 0xfffff6cf
     ec8:	3173632d 	cmncc	r3, sp, lsr #6
     ecc:	2f653730 	svccs	0x00653730
     ed0:	2f62696c 	svccs	0x0062696c
     ed4:	2f636367 	svccs	0x00636367
     ed8:	2d6d7261 	sfmcs	f7, 2, [sp, #-388]!	; 0xfffffe7c
     edc:	656e6f6e 	strbvs	r6, [lr, #-3950]!	; 0xfffff092
     ee0:	6261652d 	rsbvs	r6, r1, #188743680	; 0xb400000
     ee4:	2e392f69 	cdpcs	15, 3, cr2, cr9, cr9, {3}
     ee8:	2f312e32 	svccs	0x00312e32
     eec:	6c636e69 	stclvs	14, cr6, [r3], #-420	; 0xfffffe5c
     ef0:	00656475 	rsbeq	r6, r5, r5, ror r4
     ef4:	6d656d00 	stclvs	13, cr6, [r5, #-0]
     ef8:	2e746573 	mrccs	5, 3, r6, cr4, cr3, {3}
     efc:	00010063 	andeq	r0, r1, r3, rrx
     f00:	69707200 	ldmdbvs	r0!, {r9, ip, sp, lr}^
     f04:	0200682e 	andeq	r6, r0, #3014656	; 0x2e0000
     f08:	74730000 	ldrbtvc	r0, [r3], #-0
     f0c:	66656464 	strbtvs	r6, [r5], -r4, ror #8
     f10:	0300682e 	movweq	r6, #2094	; 0x82e
     f14:	05000000 	streq	r0, [r0, #-0]
     f18:	02050029 	andeq	r0, r5, #41, 0	; 0x29
     f1c:	00008c54 	andeq	r8, r0, r4, asr ip
     f20:	13050515 	movwne	r0, #21781	; 0x5515
     f24:	01061405 	tsteq	r6, r5, lsl #8
     f28:	30060505 	andcc	r0, r6, r5, lsl #10
     f2c:	10060b05 	andne	r0, r6, r5, lsl #22
     f30:	30060a05 	andcc	r0, r6, r5, lsl #20
     f34:	054b0905 	strbeq	r0, [fp, #-2309]	; 0xfffff6fb
     f38:	2e01060e 	cfmadd32cs	mvax0, mvfx0, mvfx1, mvfx14
     f3c:	01000202 	tsteq	r0, r2, lsl #4
     f40:	00013301 	andeq	r3, r1, r1, lsl #6
     f44:	01000300 	mrseq	r0, LR_irq
     f48:	02000001 	andeq	r0, r0, #1, 0
     f4c:	0d0efb01 	vstreq	d15, [lr, #-4]
     f50:	01010100 	mrseq	r0, (UNDEF: 17)
     f54:	00000001 	andeq	r0, r0, r1
     f58:	01000001 	tsteq	r0, r1
     f5c:	696c2f2e 	stmdbvs	ip!, {r1, r2, r3, r5, r8, r9, sl, fp, sp}^
     f60:	2f006362 	svccs	0x00006362
     f64:	2f727375 	svccs	0x00727375
     f68:	61636f6c 	cmnvs	r3, ip, ror #30
     f6c:	65432f6c 	strbvs	r2, [r3, #-3948]	; 0xfffff094
     f70:	72616c6c 	rsbvc	r6, r1, #108, 24	; 0x6c00
     f74:	6d72612f 	ldfvse	f6, [r2, #-188]!	; 0xffffff44
     f78:	6e6f6e2d 	cdpvs	14, 6, cr6, cr15, cr13, {1}
     f7c:	61652d65 	cmnvs	r5, r5, ror #26
     f80:	742d6962 	strtvc	r6, [sp], #-2402	; 0xfffff69e
     f84:	2f747365 	svccs	0x00747365
     f88:	30322d39 	eorscc	r2, r2, r9, lsr sp
     f8c:	34713931 	ldrbtcc	r3, [r1], #-2353	; 0xfffff6cf
     f90:	3173632d 	cmncc	r3, sp, lsr #6
     f94:	2f653730 	svccs	0x00653730
     f98:	2f62696c 	svccs	0x0062696c
     f9c:	2f636367 	svccs	0x00636367
     fa0:	2d6d7261 	sfmcs	f7, 2, [sp, #-388]!	; 0xfffffe7c
     fa4:	656e6f6e 	strbvs	r6, [lr, #-3950]!	; 0xfffff092
     fa8:	6261652d 	rsbvs	r6, r1, #188743680	; 0xb400000
     fac:	2e392f69 	cdpcs	15, 3, cr2, cr9, cr9, {3}
     fb0:	2f312e32 	svccs	0x00312e32
     fb4:	6c636e69 	stclvs	14, cr6, [r3], #-420	; 0xfffffe5c
     fb8:	00656475 	rsbeq	r6, r5, r5, ror r4
     fbc:	6573552f 	ldrbvs	r5, [r3, #-1327]!	; 0xfffffad1
     fc0:	742f7372 	strtvc	r7, [pc], #-882	; fc8 <__code_start__-0x7038>
     fc4:	74736972 	ldrbtvc	r6, [r3], #-2418	; 0xfffff68e
     fc8:	6f6e6e65 	svcvs	0x006e6e65
     fcc:	616d6c6c 	cmnvs	sp, ip, ror #24
     fd0:	6f442f6e 	svcvs	0x00442f6e
     fd4:	656d7563 	strbvs	r7, [sp, #-1379]!	; 0xfffffa9d
     fd8:	2f73746e 	svccs	0x0073746e
     fdc:	69727053 	ldmdbvs	r2!, {r0, r1, r4, r6, ip, sp, lr}^
     fe0:	515f676e 	cmppl	pc, lr, ror #14
     fe4:	74726175 	ldrbtvc	r6, [r2], #-373	; 0xfffffe8b
     fe8:	325f7265 	subscc	r7, pc, #1342177286	; 0x50000006
     fec:	2f323230 	svccs	0x00323230
     ff0:	34325343 	ldrtcc	r5, [r2], #-835	; 0xfffffcbd
     ff4:	2d584c30 	ldclcs	12, cr4, [r8, #-192]	; 0xffffff40
     ff8:	32727073 	rsbscc	r7, r2, #115, 0	; 0x73
     ffc:	696c2f32 	stmdbvs	ip!, {r1, r4, r5, r8, r9, sl, fp, sp}^
    1000:	2f697062 	svccs	0x00697062
    1004:	6c636e69 	stclvs	14, cr6, [r3], #-420	; 0xfffffe5c
    1008:	00656475 	rsbeq	r6, r5, r5, ror r4
    100c:	69727000 	ldmdbvs	r2!, {ip, sp, lr}^
    1010:	2e6b746e 	cdpcs	4, 6, cr7, cr11, cr14, {3}
    1014:	00010063 	andeq	r0, r1, r3, rrx
    1018:	64747300 	ldrbtvs	r7, [r4], #-768	; 0xfffffd00
    101c:	2e677261 	cdpcs	2, 6, cr7, cr7, cr1, {3}
    1020:	00020068 	andeq	r0, r2, r8, rrx
    1024:	69707200 	ldmdbvs	r0!, {r9, ip, sp, lr}^
    1028:	0300682e 	movweq	r6, #2094	; 0x82e
    102c:	623c0000 	eorsvs	r0, ip, #0, 0
    1030:	746c6975 	strbtvc	r6, [ip], #-2421	; 0xfffff68b
    1034:	3e6e692d 	vmulcc.f16	s13, s28, s27	; <UNPREDICTABLE>
    1038:	00000000 	andeq	r0, r0, r0
    103c:	702d6176 	eorvc	r6, sp, r6, ror r1
    1040:	746e6972 	strbtvc	r6, [lr], #-2418	; 0xfffff68e
    1044:	00682e6b 	rsbeq	r2, r8, fp, ror #28
    1048:	00000001 	andeq	r0, r0, r1
    104c:	05002205 	streq	r2, [r0, #-517]	; 0xfffffdfb
    1050:	008c6c02 	addeq	r6, ip, r2, lsl #24
    1054:	01061700 	tsteq	r6, r0, lsl #14
    1058:	68060505 	stmdavs	r6, {r0, r2, r8, sl}
    105c:	09051413 	stmdbeq	r5, {r0, r1, r4, sl, ip}
    1060:	0612054b 	ldreq	r0, [r2], -fp, asr #10
    1064:	06050501 	streq	r0, [r5], -r1, lsl #10
    1068:	660616bb 			; <UNDEFINED> instruction: 0x660616bb
    106c:	01053406 	tsteq	r5, r6, lsl #8
    1070:	02661306 	rsbeq	r1, r6, #402653184	; 0x18000000
    1074:	01010008 	tsteq	r1, r8
    1078:	000000cb 	andeq	r0, r0, fp, asr #1
    107c:	007d0003 	rsbseq	r0, sp, r3
    1080:	01020000 	mrseq	r0, (UNDEF: 2)
    1084:	000d0efb 	strdeq	r0, [sp], -fp
    1088:	01010101 	tsteq	r1, r1, lsl #2
    108c:	01000000 	mrseq	r0, (UNDEF: 0)
    1090:	2e010000 	cdpcs	0, 0, cr0, cr1, cr0, {0}
    1094:	62696c2f 	rsbvs	r6, r9, #12032	; 0x2f00
    1098:	552f0063 	strpl	r0, [pc, #-99]!	; 103d <__code_start__-0x6fc3>
    109c:	73726573 	cmnvc	r2, #482344960	; 0x1cc00000
    10a0:	6972742f 	ldmdbvs	r2!, {r0, r1, r2, r3, r5, sl, ip, sp, lr}^
    10a4:	6e657473 	mcrvs	4, 3, r7, cr5, cr3, {3}
    10a8:	6c6c6f6e 	stclvs	15, cr6, [ip], #-440	; 0xfffffe48
    10ac:	2f6e616d 	svccs	0x006e616d
    10b0:	75636f44 	strbvc	r6, [r3, #-3908]!	; 0xfffff0bc
    10b4:	746e656d 	strbtvc	r6, [lr], #-1389	; 0xfffffa93
    10b8:	70532f73 	subsvc	r2, r3, r3, ror pc
    10bc:	676e6972 			; <UNDEFINED> instruction: 0x676e6972
    10c0:	6175515f 	cmnvs	r5, pc, asr r1
    10c4:	72657472 	rsbvc	r7, r5, #1912602624	; 0x72000000
    10c8:	3230325f 	eorscc	r3, r0, #-268435451	; 0xf0000005
    10cc:	53432f32 	movtpl	r2, #16178	; 0x3f32
    10d0:	4c303432 	cfldrsmi	mvf3, [r0], #-200	; 0xffffff38
    10d4:	70732d58 	rsbsvc	r2, r3, r8, asr sp
    10d8:	2f323272 	svccs	0x00323272
    10dc:	7062696c 	rsbvc	r6, r2, ip, ror #18
    10e0:	6e692f69 	cdpvs	15, 6, cr2, cr9, cr9, {3}
    10e4:	64756c63 	ldrbtvs	r6, [r5], #-3171	; 0xfffff39d
    10e8:	70000065 	andvc	r0, r0, r5, rrx
    10ec:	2e6b7475 	mcrcs	4, 3, r7, cr11, cr5, {3}
    10f0:	00010063 	andeq	r0, r1, r3, rrx
    10f4:	69707200 	ldmdbvs	r0!, {r9, ip, sp, lr}^
    10f8:	0200682e 	andeq	r6, r0, #3014656	; 0x2e0000
    10fc:	05000000 	streq	r0, [r0, #-0]
    1100:	02050022 	andeq	r0, r5, #34, 0	; 0x22
    1104:	00008cc4 	andeq	r8, r0, r4, asr #25
    1108:	05010615 	streq	r0, [r1, #-1557]	; 0xfffff9eb
    110c:	054b0605 	strbeq	r0, [fp, #-1541]	; 0xfffff9fb
    1110:	0402000b 	streq	r0, [r2], #-11
    1114:	05050101 	streq	r0, [r5, #-257]	; 0xfffffeff
    1118:	01040200 	mrseq	r0, R12_usr
    111c:	09052e06 	stmdbeq	r5, {r1, r2, r9, sl, fp, sp}
    1120:	02040200 	andeq	r0, r4, #0, 4
    1124:	0f054b06 	svceq	0x00054b06
    1128:	02040200 	andeq	r0, r4, #0, 4
    112c:	00100565 	andseq	r0, r0, r5, ror #10
    1130:	06020402 	streq	r0, [r2], -r2, lsl #8
    1134:	04020001 	streq	r0, [r2], #-1
    1138:	05052e02 	streq	r2, [r5, #-3586]	; 0xfffff1fe
    113c:	01053206 	tsteq	r5, r6, lsl #4
    1140:	06021306 	streq	r1, [r2], -r6, lsl #6
    1144:	1d010100 	stfnes	f0, [r1, #-0]
    1148:	03000006 	movweq	r0, #6
    114c:	00011700 	andeq	r1, r1, r0, lsl #14
    1150:	fb010200 	blx	4195a <__bss_end__+0x36f82>
    1154:	01000d0e 	tsteq	r0, lr, lsl #26
    1158:	00010101 	andeq	r0, r1, r1, lsl #2
    115c:	00010000 	andeq	r0, r1, r0
    1160:	2f2e0100 	svccs	0x002e0100
    1164:	6362696c 	cmnvs	r2, #108, 18	; 0x1b0000
    1168:	73752f00 	cmnvc	r5, #0, 30
    116c:	6f6c2f72 	svcvs	0x006c2f72
    1170:	2f6c6163 	svccs	0x006c6163
    1174:	6c6c6543 	cfstr64vs	mvdx6, [ip], #-268	; 0xfffffef4
    1178:	612f7261 			; <UNDEFINED> instruction: 0x612f7261
    117c:	6e2d6d72 	mcrvs	13, 1, r6, cr13, cr2, {3}
    1180:	2d656e6f 	stclcs	14, cr6, [r5, #-444]!	; 0xfffffe44
    1184:	69626165 	stmdbvs	r2!, {r0, r2, r5, r6, r8, sp, lr}^
    1188:	7365742d 	cmnvc	r5, #754974720	; 0x2d000000
    118c:	2d392f74 	ldccs	15, cr2, [r9, #-464]!	; 0xfffffe30
    1190:	39313032 	ldmdbcc	r1!, {r1, r4, r5, ip, sp}
    1194:	632d3471 			; <UNDEFINED> instruction: 0x632d3471
    1198:	37303173 			; <UNDEFINED> instruction: 0x37303173
    119c:	696c2f65 	stmdbvs	ip!, {r0, r2, r5, r6, r8, r9, sl, fp, sp}^
    11a0:	63672f62 	cmnvs	r7, #392	; 0x188
    11a4:	72612f63 	rsbvc	r2, r1, #396	; 0x18c
    11a8:	6f6e2d6d 	svcvs	0x006e2d6d
    11ac:	652d656e 	strvs	r6, [sp, #-1390]!	; 0xfffffa92
    11b0:	2f696261 	svccs	0x00696261
    11b4:	2e322e39 	mrccs	14, 1, r2, cr2, cr9, {1}
    11b8:	6e692f31 	mcrvs	15, 3, r2, cr9, cr1, {1}
    11bc:	64756c63 	ldrbtvs	r6, [r5], #-3171	; 0xfffff39d
    11c0:	552f0065 	strpl	r0, [pc, #-101]!	; 1163 <__code_start__-0x6e9d>
    11c4:	73726573 	cmnvc	r2, #482344960	; 0x1cc00000
    11c8:	6972742f 	ldmdbvs	r2!, {r0, r1, r2, r3, r5, sl, ip, sp, lr}^
    11cc:	6e657473 	mcrvs	4, 3, r7, cr5, cr3, {3}
    11d0:	6c6c6f6e 	stclvs	15, cr6, [ip], #-440	; 0xfffffe48
    11d4:	2f6e616d 	svccs	0x006e616d
    11d8:	75636f44 	strbvc	r6, [r3, #-3908]!	; 0xfffff0bc
    11dc:	746e656d 	strbtvc	r6, [lr], #-1389	; 0xfffffa93
    11e0:	70532f73 	subsvc	r2, r3, r3, ror pc
    11e4:	676e6972 			; <UNDEFINED> instruction: 0x676e6972
    11e8:	6175515f 	cmnvs	r5, pc, asr r1
    11ec:	72657472 	rsbvc	r7, r5, #1912602624	; 0x72000000
    11f0:	3230325f 	eorscc	r3, r0, #-268435451	; 0xf0000005
    11f4:	53432f32 	movtpl	r2, #16178	; 0x3f32
    11f8:	4c303432 	cfldrsmi	mvf3, [r0], #-200	; 0xffffff38
    11fc:	70732d58 	rsbsvc	r2, r3, r8, asr sp
    1200:	2f323272 	svccs	0x00323272
    1204:	7062696c 	rsbvc	r6, r2, ip, ror #18
    1208:	6e692f69 	cdpvs	15, 6, cr2, cr9, cr9, {3}
    120c:	64756c63 	ldrbtvs	r6, [r5], #-3171	; 0xfffff39d
    1210:	76000065 	strvc	r0, [r0], -r5, rrx
    1214:	72702d61 	rsbsvc	r2, r0, #6208	; 0x1840
    1218:	6b746e69 	blvs	1d1cbc4 <__bss_end__+0x1d121ec>
    121c:	0100632e 	tsteq	r0, lr, lsr #6
    1220:	74730000 	ldrbtvc	r0, [r3], #-0
    1224:	746e6964 	strbtvc	r6, [lr], #-2404	; 0xfffff69c
    1228:	6363672d 	cmnvs	r3, #11796480	; 0xb40000
    122c:	0200682e 	andeq	r6, r0, #3014656	; 0x2e0000
    1230:	70720000 	rsbsvc	r0, r2, r0
    1234:	00682e69 	rsbeq	r2, r8, r9, ror #28
    1238:	72000003 	andvc	r0, r0, #3, 0
    123c:	692d6970 	pushvs	{r4, r5, r6, r8, fp, sp, lr}
    1240:	7265746e 	rsbvc	r7, r5, #1845493760	; 0x6e000000
    1244:	2e6c616e 	powcsez	f6, f4, #0.5
    1248:	00030068 	andeq	r0, r3, r8, rrx
    124c:	64747300 	ldrbtvs	r7, [r4], #-768	; 0xfffffd00
    1250:	2e677261 	cdpcs	2, 6, cr7, cr7, cr1, {3}
    1254:	00020068 	andeq	r0, r2, r8, rrx
    1258:	75623c00 	strbvc	r3, [r2, #-3072]!	; 0xfffff400
    125c:	2d746c69 	ldclcs	12, cr6, [r4, #-420]!	; 0xfffffe5c
    1260:	003e6e69 	eorseq	r6, lr, r9, ror #28
    1264:	00000000 	andeq	r0, r0, r0
    1268:	05001b05 	streq	r1, [r0, #-2821]	; 0xfffff4fb
    126c:	008cf802 	addeq	pc, ip, r2, lsl #16
    1270:	01260300 			; <UNDEFINED> instruction: 0x01260300
    1274:	05011d05 	streq	r1, [r1, #-3333]	; 0xfffff2fb
    1278:	0501062d 	streq	r0, [r1, #-1581]	; 0xfffff9d3
    127c:	054a2e01 	strbeq	r2, [sl, #-3585]	; 0xfffff1ff
    1280:	05510633 	ldrbeq	r0, [r1, #-1587]	; 0xfffff9cd
    1284:	06051302 	streq	r1, [r5], -r2, lsl #6
    1288:	02050106 	andeq	r0, r5, #-2147483647	; 0x80000001
    128c:	08053006 	stmdaeq	r5, {r1, r2, ip, sp}
    1290:	01040200 	mrseq	r0, R12_usr
    1294:	00020501 	andeq	r0, r2, r1, lsl #10
    1298:	06010402 	streq	r0, [r1], -r2, lsl #8
    129c:	00030501 	andeq	r0, r3, r1, lsl #10
    12a0:	06020402 	streq	r0, [r2], -r2, lsl #8
    12a4:	0008052f 	andeq	r0, r8, pc, lsr #10
    12a8:	06020402 	streq	r0, [r2], -r2, lsl #8
    12ac:	00150501 	andseq	r0, r5, r1, lsl #10
    12b0:	06020402 	streq	r0, [r2], -r2, lsl #8
    12b4:	00180549 	andseq	r0, r8, r9, asr #10
    12b8:	06020402 	streq	r0, [r2], -r2, lsl #8
    12bc:	04020001 	streq	r0, [r2], #-1
    12c0:	02052e02 	andeq	r2, r5, #2, 28
    12c4:	05053006 	streq	r3, [r5, #-6]
    12c8:	02050106 	andeq	r0, r5, #-2147483647	; 0x80000001
    12cc:	01054b06 	tsteq	r5, r6, lsl #22
    12d0:	3e051306 	cdpcc	3, 0, cr1, cr5, cr6, {0}
    12d4:	02053106 	andeq	r3, r5, #-2147483647	; 0x80000001
    12d8:	060e0514 			; <UNDEFINED> instruction: 0x060e0514
    12dc:	2e060501 	cfsh32cs	mvfx0, mvfx6, #1
    12e0:	2f060205 	svccs	0x00060205
    12e4:	01060405 	tsteq	r6, r5, lsl #8
    12e8:	2f060305 	svccs	0x00060305
    12ec:	01061105 	tsteq	r6, r5, lsl #2
    12f0:	052e0905 	streq	r0, [lr, #-2309]!	; 0xfffff6fb
    12f4:	15300602 	ldrne	r0, [r0, #-1538]!	; 0xfffff9fe
    12f8:	01060705 	tsteq	r6, r5, lsl #14
    12fc:	052e0205 	streq	r0, [lr, #-517]!	; 0xfffffdfb
    1300:	0402000b 	streq	r0, [r2], #-11
    1304:	052e0601 	streq	r0, [lr, #-1537]!	; 0xfffff9ff
    1308:	04020002 	streq	r0, [r2], #-2
    130c:	05010601 	streq	r0, [r1, #-1537]	; 0xfffff9ff
    1310:	04020003 	streq	r0, [r2], #-3
    1314:	052f0603 	streq	r0, [pc, #-1539]!	; d19 <__code_start__-0x72e7>
    1318:	0402000c 	streq	r0, [r2], #-12
    131c:	05010603 	streq	r0, [r1, #-1539]	; 0xfffff9fd
    1320:	0402000a 	streq	r0, [r2], #-10
    1324:	17052e03 	strne	r2, [r5, -r3, lsl #28]
    1328:	03040200 	movweq	r0, #16896	; 0x4200
    132c:	02002d06 	andeq	r2, r0, #384	; 0x180
    1330:	01060304 	tsteq	r6, r4, lsl #6
    1334:	30060205 	andcc	r0, r6, r5, lsl #4
    1338:	01060905 	tsteq	r6, r5, lsl #18
    133c:	0602052e 	streq	r0, [r2], -lr, lsr #10
    1340:	06010530 			; <UNDEFINED> instruction: 0x06010530
    1344:	06490513 			; <UNDEFINED> instruction: 0x06490513
    1348:	05010631 	streq	r0, [r1, #-1585]	; 0xfffff9cf
    134c:	05a00602 	streq	r0, [r0, #1538]!	; 0x602
    1350:	05010604 	streq	r0, [r1, #-1540]	; 0xfffff9fc
    1354:	052f0603 	streq	r0, [pc, #-1539]!	; d59 <__code_start__-0x72a7>
    1358:	05010609 	streq	r0, [r1, #-1545]	; 0xfffff9f7
    135c:	13300602 	teqne	r0, #2097152	; 0x200000
    1360:	01060b05 	tsteq	r6, r5, lsl #22
    1364:	30060205 	andcc	r0, r6, r5, lsl #4
    1368:	04052e06 	streq	r2, [r5], #-3590	; 0xfffff1fa
    136c:	15240206 	strne	r0, [r4, #-518]!	; 0xfffffdfa
    1370:	060f0513 			; <UNDEFINED> instruction: 0x060f0513
    1374:	06052e01 	streq	r2, [r5], -r1, lsl #28
    1378:	0605054a 	streq	r0, [r5], -sl, asr #10
    137c:	0905134b 	stmdbeq	r5, {r0, r1, r3, r6, r8, r9, ip}
    1380:	05050106 	streq	r0, [r5, #-262]	; 0xfffffefa
    1384:	0b052f06 	bleq	14cfa4 <__bss_end__+0x1425cc>
    1388:	0d051006 	stceq	0, cr1, [r5, #-24]	; 0xffffffe8
    138c:	01040200 	mrseq	r0, R12_usr
    1390:	0004052c 	andeq	r0, r4, ip, lsr #10
    1394:	06010402 	streq	r0, [r1], -r2, lsl #8
    1398:	00050534 	andeq	r0, r5, r4, lsr r5
    139c:	13010402 	movwne	r0, #5122	; 0x1402
    13a0:	02001b05 	andeq	r1, r0, #5120	; 0x1400
    13a4:	01060104 	tsteq	r6, r4, lsl #2
    13a8:	02000705 	andeq	r0, r0, #1310720	; 0x140000
    13ac:	05d60104 	ldrbeq	r0, [r6, #260]	; 0x104
    13b0:	04020018 	streq	r0, [r2], #-24	; 0xffffffe8
    13b4:	0a052e01 	beq	14cbc0 <__bss_end__+0x1421e8>
    13b8:	01040200 	mrseq	r0, R12_usr
    13bc:	000b054a 	andeq	r0, fp, sl, asr #10
    13c0:	06010402 	streq	r0, [r1], -r2, lsl #8
    13c4:	000e052f 	andeq	r0, lr, pc, lsr #10
    13c8:	06010402 	streq	r0, [r1], -r2, lsl #8
    13cc:	0004052e 	andeq	r0, r4, lr, lsr #10
    13d0:	2e010402 	cdpcs	4, 0, cr0, cr1, cr2, {0}
    13d4:	06054b06 	streq	r4, [r5], -r6, lsl #22
    13d8:	05050106 	streq	r0, [r5, #-262]	; 0xfffffefa
    13dc:	0a052f06 	beq	14cffc <__bss_end__+0x142624>
    13e0:	07050106 	streq	r0, [r5, -r6, lsl #2]
    13e4:	0d052e4a 	stceq	14, cr2, [r5, #-296]	; 0xfffffed8
    13e8:	4a2e7603 	bmi	b9ebfc <__bss_end__+0xb94224>
    13ec:	050d0b05 	streq	r0, [sp, #-2821]	; 0xfffff4fb
    13f0:	0402000d 	streq	r0, [r2], #-13
    13f4:	14030601 	strne	r0, [r3], #-1537	; 0xfffff9ff
    13f8:	0011052e 	andseq	r0, r1, lr, lsr #10
    13fc:	13010402 	movwne	r0, #5122	; 0x1402
    1400:	02002d05 	andeq	r2, r0, #320	; 0x140
    1404:	01060104 	tsteq	r6, r4, lsl #2
    1408:	02002a05 	andeq	r2, r0, #20480	; 0x5000
    140c:	052e0104 	streq	r0, [lr, #-260]!	; 0xfffffefc
    1410:	04020016 	streq	r0, [r2], #-22	; 0xffffffea
    1414:	14054a01 	strne	r4, [r5], #-2561	; 0xfffff5ff
    1418:	01040200 	mrseq	r0, R12_usr
    141c:	0d054b06 	vstreq	d4, [r5, #-24]	; 0xffffffe8
    1420:	01040200 	mrseq	r0, R12_usr
    1424:	02000106 	andeq	r0, r0, #-2147483647	; 0x80000001
    1428:	064a0104 	strbeq	r0, [sl], -r4, lsl #2
    142c:	0612052f 	ldreq	r0, [r2], -pc, lsr #10
    1430:	0d054a01 	vstreq	s8, [r5, #-4]
    1434:	12052f06 	andne	r2, r5, #6, 30
    1438:	19050106 	stmdbne	r5, {r1, r2, r8}
    143c:	04054b06 	streq	r4, [r5], #-2822	; 0xfffff4fa
    1440:	02040200 	andeq	r0, r4, #0, 4
    1444:	00011103 	andeq	r1, r1, r3, lsl #2
    1448:	01020402 	tsteq	r2, r2, lsl #8
    144c:	02000205 	andeq	r0, r0, #1342177280	; 0x50000000
    1450:	05150204 	ldreq	r0, [r5, #-516]	; 0xfffffdfc
    1454:	04020009 	streq	r0, [r2], #-9
    1458:	00010602 	andeq	r0, r1, r2, lsl #12
    145c:	4a020402 	bmi	8246c <__bss_end__+0x77a94>
    1460:	02000105 	andeq	r0, r0, #1073741825	; 0x40000001
    1464:	059f0204 	ldreq	r0, [pc, #516]	; 1670 <__code_start__-0x6990>
    1468:	6e030604 	cfmadd32vs	mvax0, mvfx0, mvfx3, mvfx4
    146c:	0609054a 	streq	r0, [r9], -sl, asr #10
    1470:	06040501 	streq	r0, [r4], -r1, lsl #10
    1474:	0606052f 	streq	r0, [r6], -pc, lsr #10
    1478:	2f040511 	svccs	0x00040511
    147c:	63030b05 	movwvs	r0, #15109	; 0x3b05
    1480:	0019052e 	andseq	r0, r9, lr, lsr #10
    1484:	06010402 	streq	r0, [r1], -r2, lsl #8
    1488:	052e2403 	streq	r2, [lr, #-1027]!	; 0xfffffbfd
    148c:	0402001a 	streq	r0, [r2], #-26	; 0xffffffe6
    1490:	28051301 	stmdacs	r5, {r0, r8, r9, ip}
    1494:	01040200 	mrseq	r0, R12_usr
    1498:	25050106 	strcs	r0, [r5, #-262]	; 0xfffffefa
    149c:	01040200 	mrseq	r0, R12_usr
    14a0:	001f052e 	andseq	r0, pc, lr, lsr #10
    14a4:	4a010402 	bmi	424b4 <__bss_end__+0x37adc>
    14a8:	02000b05 	andeq	r0, r0, #5120	; 0x1400
    14ac:	4b060104 	blmi	1818c4 <__bss_end__+0x176eec>
    14b0:	02000405 	andeq	r0, r0, #83886080	; 0x5000000
    14b4:	01060104 	tsteq	r6, r4, lsl #2
    14b8:	01040200 	mrseq	r0, R12_usr
    14bc:	0402004a 	streq	r0, [r2], #-74	; 0xffffffb6
    14c0:	004e0601 	subeq	r0, lr, r1, lsl #12
    14c4:	01010402 	tsteq	r1, r2, lsl #8
    14c8:	01040200 	mrseq	r0, R12_usr
    14cc:	04020001 	streq	r0, [r2], #-1
    14d0:	02000101 	andeq	r0, r0, #1073741824	; 0x40000000
    14d4:	2e060104 	adfcss	f0, f6, f4
    14d8:	01040200 	mrseq	r0, R12_usr
    14dc:	04020066 	streq	r0, [r2], #-102	; 0xffffff9a
    14e0:	02002e01 	andeq	r2, r0, #1, 28
    14e4:	4a060104 	bmi	1818fc <__bss_end__+0x176f24>
    14e8:	a6034805 	strge	r4, [r3], -r5, lsl #16
    14ec:	0520087f 	streq	r0, [r0, #-2175]!	; 0xfffff781
    14f0:	06011305 	streq	r1, [r1], -r5, lsl #6
    14f4:	0402002e 	streq	r0, [r2], #-46	; 0xffffffd2
    14f8:	002e0602 	eoreq	r0, lr, r2, lsl #12
    14fc:	01020402 	tsteq	r2, r2, lsl #8
    1500:	02040200 	andeq	r0, r4, #0, 4
    1504:	00110513 	andseq	r0, r1, r3, lsl r5
    1508:	06020402 	streq	r0, [r2], -r2, lsl #8
    150c:	00050501 	andeq	r0, r5, r1, lsl #10
    1510:	06020402 	streq	r0, [r2], -r2, lsl #8
    1514:	0007054b 	andeq	r0, r7, fp, asr #10
    1518:	06020402 	streq	r0, [r2], -r2, lsl #8
    151c:	06090501 	streq	r0, [r9], -r1, lsl #10
    1520:	060e054b 	streq	r0, [lr], -fp, asr #10
    1524:	00480501 	subeq	r0, r8, r1, lsl #10
    1528:	62010402 	andvs	r0, r1, #33554432	; 0x2000000
    152c:	02000505 	andeq	r0, r0, #20971520	; 0x1400000
    1530:	4b060104 	blmi	181948 <__bss_end__+0x176f70>
    1534:	01040200 	mrseq	r0, R12_usr
    1538:	04020001 	streq	r0, [r2], #-1
    153c:	009e0601 	addseq	r0, lr, r1, lsl #12
    1540:	2e010402 	cdpcs	4, 0, cr0, cr1, cr2, {0}
    1544:	01040200 	mrseq	r0, R12_usr
    1548:	40052e06 	andmi	r2, r5, r6, lsl #28
    154c:	d600e103 	strle	lr, [r0], -r3, lsl #2
    1550:	02050106 	andeq	r0, r5, #-2147483647	; 0x80000001
    1554:	1e059f06 	cdpne	15, 0, cr9, cr5, cr6, {0}
    1558:	12050106 	andne	r0, r5, #-2147483647	; 0x80000001
    155c:	0605052e 	streq	r0, [r5], -lr, lsr #10
    1560:	1402052f 	strne	r0, [r2], #-1327	; 0xfffffad1
    1564:	01060905 	tsteq	r6, r5, lsl #18
    1568:	4b060505 	blmi	182984 <__bss_end__+0x177fac>
    156c:	05130205 	ldreq	r0, [r3, #-517]	; 0xfffffdfb
    1570:	050d0608 	streq	r0, [sp, #-1544]	; 0xfffff9f8
    1574:	04053302 	streq	r3, [r5], #-770	; 0xfffffcfe
    1578:	0f054c06 	svceq	0x00054c06
    157c:	09050106 	stmdbeq	r5, {r1, r2, r8}
    1580:	0608052e 	streq	r0, [r8], -lr, lsr #10
    1584:	0602052c 	streq	r0, [r2], -ip, lsr #10
    1588:	000d052e 	andeq	r0, sp, lr, lsr #10
    158c:	4a010402 	bmi	4259c <__bss_end__+0x37bc4>
    1590:	4b060305 	blmi	1821ac <__bss_end__+0x1777d4>
    1594:	01060505 	tsteq	r6, r5, lsl #10
    1598:	4d060805 	stcmi	8, cr0, [r6, #-20]	; 0xffffffec
    159c:	01060e05 	tsteq	r6, r5, lsl #28
    15a0:	052e0a05 	streq	r0, [lr, #-2565]!	; 0xfffff5fb
    15a4:	052f0604 	streq	r0, [pc, #-1540]!	; fa8 <__code_start__-0x7058>
    15a8:	05010609 	streq	r0, [r1, #-1545]	; 0xfffff9f7
    15ac:	052f0604 	streq	r0, [pc, #-1540]!	; fb0 <__code_start__-0x7050>
    15b0:	2e010607 	cfmadd32cs	mvax0, mvfx0, mvfx1, mvfx7
    15b4:	30060405 	andcc	r0, r6, r5, lsl #8
    15b8:	01060705 	tsteq	r6, r5, lsl #14
    15bc:	30060405 	andcc	r0, r6, r5, lsl #8
    15c0:	0d051413 	cfstrseq	mvf1, [r5, #-76]	; 0xffffffb4
    15c4:	09051006 	stmdbeq	r5, {r1, r2, ip}
    15c8:	12053006 	andne	r3, r5, #6, 0
    15cc:	0a050106 	beq	1419ec <__bss_end__+0x137014>
    15d0:	6609052e 	strvs	r0, [r9], -lr, lsr #10
    15d4:	4b060505 	blmi	1829f0 <__bss_end__+0x178018>
    15d8:	01061205 	tsteq	r6, r5, lsl #4
    15dc:	052e1605 	streq	r1, [lr, #-1541]!	; 0xfffff9fb
    15e0:	05052e0b 	streq	r2, [r5, #-3595]	; 0xfffff1f5
    15e4:	08052f06 	stmdaeq	r5, {r1, r2, r8, r9, sl, fp, sp}
    15e8:	052e0106 	streq	r0, [lr, #-262]!	; 0xfffffefa
    15ec:	01300604 	teqeq	r0, r4, lsl #12
    15f0:	0015014a 	andseq	r0, r5, sl, asr #2
    15f4:	02010402 	andeq	r0, r1, #33554432	; 0x2000000
    15f8:	02000f36 	andeq	r0, r0, #216	; 0xd8
    15fc:	00010104 	andeq	r0, r1, r4, lsl #2
    1600:	d6010402 	strle	r0, [r1], -r2, lsl #8
    1604:	13341105 	teqne	r4, #1073741825	; 0x40000001
    1608:	04020001 	streq	r0, [r2], #-1
    160c:	00ba0602 	adcseq	r0, sl, r2, lsl #12
    1610:	06030402 	streq	r0, [r3], -r2, lsl #8
    1614:	040200ba 	streq	r0, [r2], #-186	; 0xffffff46
    1618:	02000103 	andeq	r0, r0, #-1073741824	; 0xc0000000
    161c:	05140304 	ldreq	r0, [r4, #-772]	; 0xfffffcfc
    1620:	04020015 	streq	r0, [r2], #-21	; 0xffffffeb
    1624:	05010603 	streq	r0, [r1, #-1539]	; 0xfffff9fd
    1628:	04020011 	streq	r0, [r2], #-17	; 0xffffffef
    162c:	052f0603 	streq	r0, [pc, #-1539]!	; 1031 <__code_start__-0x6fcf>
    1630:	0402001a 	streq	r0, [r2], #-26	; 0xffffffe6
    1634:	05010603 	streq	r0, [r1, #-1539]	; 0xfffff9fd
    1638:	04020011 	streq	r0, [r2], #-17	; 0xffffffef
    163c:	00d70603 	sbcseq	r0, r7, r3, lsl #12
    1640:	13030402 	movwne	r0, #13314	; 0x3402
    1644:	03040200 	movweq	r0, #16896	; 0x4200
    1648:	04020014 	streq	r0, [r2], #-20	; 0xffffffec
    164c:	02006703 	andeq	r6, r0, #786432	; 0xc0000
    1650:	05680304 	strbeq	r0, [r8, #-772]!	; 0xfffffcfc
    1654:	04020014 	streq	r0, [r2], #-20	; 0xffffffec
    1658:	05010603 	streq	r0, [r1, #-1539]	; 0xfffff9fd
    165c:	04020013 	streq	r0, [r2], #-19	; 0xffffffed
    1660:	18058203 	stmdane	r5, {r0, r1, r9, pc}
    1664:	1b054e06 	blne	154e84 <__bss_end__+0x14a4ac>
    1668:	1a050106 	bne	141a88 <__bss_end__+0x1370b0>
    166c:	06090582 	streq	r0, [r9], -r2, lsl #11
    1670:	060d054b 	streq	r0, [sp], -fp, asr #10
    1674:	09052e01 	stmdbeq	r5, {r0, r9, sl, fp, sp}
    1678:	ba06f306 	blt	1be298 <__bss_end__+0x1b38c0>
    167c:	30061505 	andcc	r1, r6, r5, lsl #10
    1680:	01061805 	tsteq	r6, r5, lsl #16
    1684:	05661705 	strbeq	r1, [r6, #-1797]!	; 0xfffff8fb
    1688:	054b0619 	strbeq	r0, [fp, #-1561]	; 0xfffff9e7
    168c:	6f030615 	svcvs	0x00030615
    1690:	06110566 	ldreq	r0, [r1], -r6, ror #10
    1694:	05d60148 	ldrbeq	r0, [r6, #328]	; 0x148
    1698:	2e0b0309 	cdpcs	3, 0, cr0, cr11, cr9, {0}
    169c:	01060d05 	tsteq	r6, r5, lsl #26
    16a0:	0609052e 	streq	r0, [r9], -lr, lsr #10
    16a4:	05ba06f3 	ldreq	r0, [sl, #1779]!	; 0x6f3
    16a8:	062f0615 			; <UNDEFINED> instruction: 0x062f0615
    16ac:	05667503 	strbeq	r7, [r6, #-1283]!	; 0xfffffafd
    16b0:	13030619 	movwne	r0, #13849	; 0x3619
    16b4:	0615054a 	ldreq	r0, [r5], -sl, asr #10
    16b8:	06666d03 	strbteq	r6, [r6], -r3, lsl #26
    16bc:	014a1503 	cmpeq	sl, r3, lsl #10
    16c0:	052e06ba 	streq	r0, [lr, #-1722]!	; 0xfffff946
    16c4:	011a0605 	tsteq	sl, r5, lsl #12
    16c8:	0e032e9e 	mcreq	14, 0, r2, cr3, cr14, {4}
    16cc:	06090501 	streq	r0, [r9], -r1, lsl #10
    16d0:	06050501 	streq	r0, [r5], -r1, lsl #10
    16d4:	04057508 	streq	r7, [r5], #-1288	; 0xfffffaf8
    16d8:	05011803 	streq	r1, [r1, #-2051]	; 0xfffff7fd
    16dc:	05010607 	streq	r0, [r1, #-1543]	; 0xfffff9f9
    16e0:	05310604 	ldreq	r0, [r1, #-1540]!	; 0xfffff9fc
    16e4:	2e670305 	cdpcs	3, 6, cr0, cr7, cr5, {0}
    16e8:	01061c05 	tsteq	r6, r5, lsl #24
    16ec:	05820905 	streq	r0, [r2, #2309]	; 0x905
    16f0:	31f30605 	mvnscc	r0, r5, lsl #12
    16f4:	01061c05 	tsteq	r6, r5, lsl #24
    16f8:	05820905 	streq	r0, [r2, #2309]	; 0x905
    16fc:	30f30605 	rscscc	r0, r3, r5, lsl #12
    1700:	01061b05 	tsteq	r6, r5, lsl #22
    1704:	05820905 	streq	r0, [r2, #2309]	; 0x905
    1708:	30f30605 	rscscc	r0, r3, r5, lsl #12
    170c:	01060705 	tsteq	r6, r5, lsl #14
    1710:	83060505 	movwhi	r0, #25861	; 0x6505
    1714:	06090530 			; <UNDEFINED> instruction: 0x06090530
    1718:	06050501 	streq	r0, [r5], -r1, lsl #10
    171c:	11057508 	tstne	r5, r8, lsl #10
    1720:	06220530 			; <UNDEFINED> instruction: 0x06220530
    1724:	06050501 	streq	r0, [r5], -r1, lsl #10
    1728:	8311054b 	tsthi	r1, #314572800	; 0x12c00000
    172c:	01830505 	orreq	r0, r3, r5, lsl #10
    1730:	0e05359e 	mcreq	5, 0, r3, cr5, cr14, {4}
    1734:	0a050106 	beq	141b54 <__bss_end__+0x13717c>
    1738:	052d062e 	streq	r0, [sp, #-1582]!	; 0xfffff9d2
    173c:	05010604 	streq	r0, [r1, #-1540]	; 0xfffff9fc
    1740:	04020013 	streq	r0, [r2], #-19	; 0xffffffed
    1744:	10054a01 	andne	r4, r5, r1, lsl #20
    1748:	01040200 	mrseq	r0, R12_usr
    174c:	0402002e 	streq	r0, [r2], #-46	; 0xffffffd2
    1750:	02056601 	andeq	r6, r5, #1048576	; 0x100000
    1754:	07051606 	streq	r1, [r5, -r6, lsl #12]
    1758:	02050106 	andeq	r0, r5, #-2147483647	; 0x80000001
    175c:	01054b06 	tsteq	r5, r6, lsl #22
    1760:	02661306 	rsbeq	r1, r6, #402653184	; 0x18000000
    1764:	0101001e 	tsteq	r1, lr, lsl r0
    1768:	000000a5 	andeq	r0, r0, r5, lsr #1
    176c:	008a0003 	addeq	r0, sl, r3
    1770:	01020000 	mrseq	r0, (UNDEF: 2)
    1774:	000d0efb 	strdeq	r0, [sp], -fp
    1778:	01010101 	tsteq	r1, r1, lsl #2
    177c:	01000000 	mrseq	r0, (UNDEF: 0)
    1780:	2e010000 	cdpcs	0, 0, cr0, cr1, cr0, {0}
    1784:	6174732f 	cmnvs	r4, pc, lsr #6
    1788:	732d6666 			; <UNDEFINED> instruction: 0x732d6666
    178c:	2f006372 	svccs	0x00006372
    1790:	72657355 	rsbvc	r7, r5, #1409286145	; 0x54000001
    1794:	72742f73 	rsbsvc	r2, r4, #460	; 0x1cc
    1798:	65747369 	ldrbvs	r7, [r4, #-873]!	; 0xfffffc97
    179c:	6c6f6e6e 	stclvs	14, cr6, [pc], #-440	; 15ec <__code_start__-0x6a14>
    17a0:	6e616d6c 	cdpvs	13, 6, cr6, cr1, cr12, {3}
    17a4:	636f442f 	cmnvs	pc, #788529152	; 0x2f000000
    17a8:	6e656d75 	mcrvs	13, 3, r6, cr5, cr5, {3}
    17ac:	532f7374 			; <UNDEFINED> instruction: 0x532f7374
    17b0:	6e697270 	mcrvs	2, 3, r7, cr9, cr0, {3}
    17b4:	75515f67 	ldrbvc	r5, [r1, #-3943]	; 0xfffff099
    17b8:	65747261 	ldrbvs	r7, [r4, #-609]!	; 0xfffffd9f
    17bc:	30325f72 	eorscc	r5, r2, r2, ror pc
    17c0:	432f3232 			; <UNDEFINED> instruction: 0x432f3232
    17c4:	30343253 	eorscc	r3, r4, r3, asr r2
    17c8:	732d584c 			; <UNDEFINED> instruction: 0x732d584c
    17cc:	32327270 	eorscc	r7, r2, #112, 4
    17d0:	62696c2f 	rsbvs	r6, r9, #12032	; 0x2f00
    17d4:	692f6970 	stmdbvs	pc!, {r4, r5, r6, r8, fp, sp, lr}	; <UNPREDICTABLE>
    17d8:	756c636e 	strbvc	r6, [ip, #-878]!	; 0xfffffc92
    17dc:	00006564 	andeq	r6, r0, r4, ror #10
    17e0:	61656c63 	cmnvs	r5, r3, ror #24
    17e4:	65722d6e 	ldrbvs	r2, [r2, #-3438]!	; 0xfffff292
    17e8:	746f6f62 	strbtvc	r6, [pc], #-3938	; 17f0 <__code_start__-0x6810>
    17ec:	0100632e 	tsteq	r0, lr, lsr #6
    17f0:	70720000 	rsbsvc	r0, r2, r0
    17f4:	00682e69 	rsbeq	r2, r8, r9, ror #28
    17f8:	00000002 	andeq	r0, r0, r2
    17fc:	05001905 	streq	r1, [r0, #-2309]	; 0xfffff6fb
    1800:	00943802 	addseq	r3, r4, r2, lsl #16
    1804:	05051500 	streq	r1, [r5, #-1280]	; 0xfffffb00
    1808:	4b2f832f 	blmi	be24cc <__bss_end__+0xbd7af4>
    180c:	01000602 	tsteq	r0, r2, lsl #12
    1810:	0000bf01 	andeq	fp, r0, r1, lsl #30
    1814:	84000300 	strhi	r0, [r0], #-768	; 0xfffffd00
    1818:	02000000 	andeq	r0, r0, #0, 0
    181c:	0d0efb01 	vstreq	d15, [lr, #-4]
    1820:	01010100 	mrseq	r0, (UNDEF: 17)
    1824:	00000001 	andeq	r0, r0, r1
    1828:	01000001 	tsteq	r0, r1
    182c:	74732f2e 	ldrbtvc	r2, [r3], #-3886	; 0xfffff0d2
    1830:	2d666661 	stclcs	6, cr6, [r6, #-388]!	; 0xfffffe7c
    1834:	00637273 	rsbeq	r7, r3, r3, ror r2
    1838:	6573552f 	ldrbvs	r5, [r3, #-1327]!	; 0xfffffad1
    183c:	742f7372 	strtvc	r7, [pc], #-882	; 1844 <__code_start__-0x67bc>
    1840:	74736972 	ldrbtvc	r6, [r3], #-2418	; 0xfffff68e
    1844:	6f6e6e65 	svcvs	0x006e6e65
    1848:	616d6c6c 	cmnvs	sp, ip, ror #24
    184c:	6f442f6e 	svcvs	0x00442f6e
    1850:	656d7563 	strbvs	r7, [sp, #-1379]!	; 0xfffffa9d
    1854:	2f73746e 	svccs	0x0073746e
    1858:	69727053 	ldmdbvs	r2!, {r0, r1, r4, r6, ip, sp, lr}^
    185c:	515f676e 	cmppl	pc, lr, ror #14
    1860:	74726175 	ldrbtvc	r6, [r2], #-373	; 0xfffffe8b
    1864:	325f7265 	subscc	r7, pc, #1342177286	; 0x50000006
    1868:	2f323230 	svccs	0x00323230
    186c:	34325343 	ldrtcc	r5, [r2], #-835	; 0xfffffcbd
    1870:	2d584c30 	ldclcs	12, cr4, [r8, #-192]	; 0xffffff40
    1874:	32727073 	rsbscc	r7, r2, #115, 0	; 0x73
    1878:	696c2f32 	stmdbvs	ip!, {r1, r4, r5, r8, r9, sl, fp, sp}^
    187c:	2f697062 	svccs	0x00697062
    1880:	6c636e69 	stclvs	14, cr6, [r3], #-420	; 0xfffffe5c
    1884:	00656475 	rsbeq	r6, r5, r5, ror r4
    1888:	74736300 	ldrbtvc	r6, [r3], #-768	; 0xfffffd00
    188c:	2e747261 	cdpcs	2, 7, cr7, cr4, cr1, {3}
    1890:	00010063 	andeq	r0, r1, r3, rrx
    1894:	69707200 	ldmdbvs	r0!, {r9, ip, sp, lr}^
    1898:	0200682e 	andeq	r6, r0, #3014656	; 0x2e0000
    189c:	05000000 	streq	r0, [r0, #-0]
    18a0:	02050010 	andeq	r0, r5, #16, 0
    18a4:	00009464 	andeq	r9, r0, r4, ror #8
    18a8:	2f050515 	svccs	0x00050515
    18ac:	05130205 	ldreq	r0, [r3, #-517]	; 0xfffffdfb
    18b0:	13301405 	teqne	r0, #83886080	; 0x5000000
    18b4:	060a0514 			; <UNDEFINED> instruction: 0x060a0514
    18b8:	0531060f 	ldreq	r0, [r1, #-1551]!	; 0xfffff9f1
    18bc:	10054b09 	andne	r4, r5, r9, lsl #22
    18c0:	054a0106 	strbeq	r0, [sl, #-262]	; 0xfffffefa
    18c4:	32300605 	eorscc	r0, r0, #5242880	; 0x500000
    18c8:	144a0101 	strbne	r0, [sl], #-257	; 0xfffffeff
    18cc:	022f0205 	eoreq	r0, pc, #1342177280	; 0x50000000
    18d0:	01010006 	tsteq	r1, r6
    18d4:	000000a3 	andeq	r0, r0, r3, lsr #1
    18d8:	008b0003 	addeq	r0, fp, r3
    18dc:	01020000 	mrseq	r0, (UNDEF: 2)
    18e0:	000d0efb 	strdeq	r0, [sp], -fp
    18e4:	01010101 	tsteq	r1, r1, lsl #2
    18e8:	01000000 	mrseq	r0, (UNDEF: 0)
    18ec:	2e010000 	cdpcs	0, 0, cr0, cr1, cr0, {0}
    18f0:	6174732f 	cmnvs	r4, pc, lsr #6
    18f4:	732d6666 			; <UNDEFINED> instruction: 0x732d6666
    18f8:	2f006372 	svccs	0x00006372
    18fc:	72657355 	rsbvc	r7, r5, #1409286145	; 0x54000001
    1900:	72742f73 	rsbsvc	r2, r4, #460	; 0x1cc
    1904:	65747369 	ldrbvs	r7, [r4, #-873]!	; 0xfffffc97
    1908:	6c6f6e6e 	stclvs	14, cr6, [pc], #-440	; 1758 <__code_start__-0x68a8>
    190c:	6e616d6c 	cdpvs	13, 6, cr6, cr1, cr12, {3}
    1910:	636f442f 	cmnvs	pc, #788529152	; 0x2f000000
    1914:	6e656d75 	mcrvs	13, 3, r6, cr5, cr5, {3}
    1918:	532f7374 			; <UNDEFINED> instruction: 0x532f7374
    191c:	6e697270 	mcrvs	2, 3, r7, cr9, cr0, {3}
    1920:	75515f67 	ldrbvc	r5, [r1, #-3943]	; 0xfffff099
    1924:	65747261 	ldrbvs	r7, [r4, #-609]!	; 0xfffffd9f
    1928:	30325f72 	eorscc	r5, r2, r2, ror pc
    192c:	432f3232 			; <UNDEFINED> instruction: 0x432f3232
    1930:	30343253 	eorscc	r3, r4, r3, asr r2
    1934:	732d584c 			; <UNDEFINED> instruction: 0x732d584c
    1938:	32327270 	eorscc	r7, r2, #112, 4
    193c:	62696c2f 	rsbvs	r6, r9, #12032	; 0x2f00
    1940:	692f6970 	stmdbvs	pc!, {r4, r5, r6, r8, fp, sp, lr}	; <UNPREDICTABLE>
    1944:	756c636e 	strbvc	r6, [ip, #-878]!	; 0xfffffc92
    1948:	00006564 	andeq	r6, r0, r4, ror #10
    194c:	74737563 	ldrbtvc	r7, [r3], #-1379	; 0xfffffa9d
    1950:	6c2d6d6f 	stcvs	13, cr6, [sp], #-444	; 0xfffffe44
    1954:	6564616f 	strbvs	r6, [r4, #-367]!	; 0xfffffe91
    1958:	00632e72 	rsbeq	r2, r3, r2, ror lr
    195c:	72000001 	andvc	r0, r0, #1, 0
    1960:	682e6970 	stmdavs	lr!, {r4, r5, r6, r8, fp, sp, lr}
    1964:	00000200 	andeq	r0, r0, r0, lsl #4
    1968:	001a0500 	andseq	r0, sl, r0, lsl #10
    196c:	94a00205 	strtls	r0, [r0], #517	; 0x205
    1970:	05150000 	ldreq	r0, [r5, #-0]
    1974:	02021401 	andeq	r1, r2, #16777216	; 0x1000000
    1978:	f3010100 	vrhadd.u8	d0, d1, d0
    197c:	03000000 	movweq	r0, #0
    1980:	00008400 	andeq	r8, r0, r0, lsl #8
    1984:	fb010200 	blx	4218e <__bss_end__+0x377b6>
    1988:	01000d0e 	tsteq	r0, lr, lsl #26
    198c:	00010101 	andeq	r0, r1, r1, lsl #2
    1990:	00010000 	andeq	r0, r1, r0
    1994:	2f2e0100 	svccs	0x002e0100
    1998:	66617473 			; <UNDEFINED> instruction: 0x66617473
    199c:	72732d66 	rsbsvc	r2, r3, #6528	; 0x1980
    19a0:	552f0063 	strpl	r0, [pc, #-99]!	; 1945 <__code_start__-0x66bb>
    19a4:	73726573 	cmnvc	r2, #482344960	; 0x1cc00000
    19a8:	6972742f 	ldmdbvs	r2!, {r0, r1, r2, r3, r5, sl, ip, sp, lr}^
    19ac:	6e657473 	mcrvs	4, 3, r7, cr5, cr3, {3}
    19b0:	6c6c6f6e 	stclvs	15, cr6, [ip], #-440	; 0xfffffe48
    19b4:	2f6e616d 	svccs	0x006e616d
    19b8:	75636f44 	strbvc	r6, [r3, #-3908]!	; 0xfffff0bc
    19bc:	746e656d 	strbtvc	r6, [lr], #-1389	; 0xfffffa93
    19c0:	70532f73 	subsvc	r2, r3, r3, ror pc
    19c4:	676e6972 			; <UNDEFINED> instruction: 0x676e6972
    19c8:	6175515f 	cmnvs	r5, pc, asr r1
    19cc:	72657472 	rsbvc	r7, r5, #1912602624	; 0x72000000
    19d0:	3230325f 	eorscc	r3, r0, #-268435451	; 0xf0000005
    19d4:	53432f32 	movtpl	r2, #16178	; 0x3f32
    19d8:	4c303432 	cfldrsmi	mvf3, [r0], #-200	; 0xffffff38
    19dc:	70732d58 	rsbsvc	r2, r3, r8, asr sp
    19e0:	2f323272 	svccs	0x00323272
    19e4:	7062696c 	rsbvc	r6, r2, ip, ror #18
    19e8:	6e692f69 	cdpvs	15, 6, cr2, cr9, cr9, {3}
    19ec:	64756c63 	ldrbtvs	r6, [r5], #-3171	; 0xfffff39d
    19f0:	72000065 	andvc	r0, r0, #101, 0	; 0x65
    19f4:	6f6f6265 	svcvs	0x006f6265
    19f8:	00632e74 	rsbeq	r2, r3, r4, ror lr
    19fc:	72000001 	andvc	r0, r0, #1, 0
    1a00:	682e6970 	stmdavs	lr!, {r4, r5, r6, r8, fp, sp, lr}
    1a04:	00000200 	andeq	r0, r0, r0, lsl #4
    1a08:	00190500 	andseq	r0, r9, r0, lsl #10
    1a0c:	94a40205 	strtls	r0, [r4], #517	; 0x205
    1a10:	0d030000 	stceq	0, cr0, [r3, #-0]
    1a14:	13050501 	movwne	r0, #21761	; 0x5501
    1a18:	13053113 	movwne	r3, #20755	; 0x5113
    1a1c:	01050106 	tsteq	r5, r6, lsl #2
    1a20:	061b052f 	ldreq	r0, [fp], -pc, lsr #10
    1a24:	13050585 	movwne	r0, #21893	; 0x5585
    1a28:	2f090514 	svccs	0x00090514
    1a2c:	01061605 	tsteq	r6, r5, lsl #12
    1a30:	052e0e05 	streq	r0, [lr, #-3589]!	; 0xfffff1fb
    1a34:	052f0605 	streq	r0, [pc, #-1541]!	; 1437 <__code_start__-0x6bc9>
    1a38:	052f0601 	streq	r0, [pc, #-1537]!	; 143f <__code_start__-0x6bc1>
    1a3c:	05300617 	ldreq	r0, [r0, #-1559]!	; 0xfffff9e9
    1a40:	08052f05 	stmdaeq	r5, {r0, r2, r8, r9, sl, fp, sp}
    1a44:	07050106 	streq	r0, [r5, -r6, lsl #2]
    1a48:	0605052e 	streq	r0, [r5], -lr, lsr #10
    1a4c:	4d2f3050 	stcmi	0, cr3, [pc, #-320]!	; 1914 <__code_start__-0x66ec>
    1a50:	15131313 	ldrne	r1, [r3, #-787]	; 0xfffffced
    1a54:	04020067 	streq	r0, [r2], #-103	; 0xffffff99
    1a58:	0d056701 	stceq	7, cr6, [r5, #-4]
    1a5c:	01040200 	mrseq	r0, R12_usr
    1a60:	000a0501 	andeq	r0, sl, r1, lsl #10
    1a64:	01010402 	tsteq	r1, r2, lsl #8
    1a68:	6d030905 	vstrvs.16	s0, [r3, #-10]	; <UNPREDICTABLE>
    1a6c:	000c022e 	andeq	r0, ip, lr, lsr #4
    1a70:	00fa0101 	rscseq	r0, sl, r1, lsl #2
    1a74:	00030000 	andeq	r0, r3, r0
    1a78:	00000083 	andeq	r0, r0, r3, lsl #1
    1a7c:	0efb0102 	cdpeq	1, 15, cr0, cr11, cr2, {0}
    1a80:	0101000d 	tsteq	r1, sp
    1a84:	00000101 	andeq	r0, r0, r1, lsl #2
    1a88:	00000100 	andeq	r0, r0, r0, lsl #2
    1a8c:	732f2e01 			; <UNDEFINED> instruction: 0x732f2e01
    1a90:	66666174 			; <UNDEFINED> instruction: 0x66666174
    1a94:	6372732d 	cmnvs	r2, #-1275068416	; 0xb4000000
    1a98:	73552f00 	cmpvc	r5, #0, 30
    1a9c:	2f737265 	svccs	0x00737265
    1aa0:	73697274 	cmnvc	r9, #116, 4	; 0x40000007
    1aa4:	6e6e6574 	mcrvs	5, 3, r6, cr14, cr4, {3}
    1aa8:	6d6c6c6f 	stclvs	12, cr6, [ip, #-444]!	; 0xfffffe44
    1aac:	442f6e61 	strtmi	r6, [pc], #-3681	; 1ab4 <__code_start__-0x654c>
    1ab0:	6d75636f 	ldclvs	3, cr6, [r5, #-444]!	; 0xfffffe44
    1ab4:	73746e65 	cmnvc	r4, #1616	; 0x650
    1ab8:	7270532f 	rsbsvc	r5, r0, #-1140850688	; 0xbc000000
    1abc:	5f676e69 	svcpl	0x00676e69
    1ac0:	72617551 	rsbvc	r7, r1, #339738624	; 0x14400000
    1ac4:	5f726574 	svcpl	0x00726574
    1ac8:	32323032 	eorscc	r3, r2, #50, 0	; 0x32
    1acc:	3253432f 	subscc	r4, r3, #-1140850688	; 0xbc000000
    1ad0:	584c3034 	stmdapl	ip, {r2, r4, r5, ip, sp}^
    1ad4:	7270732d 	rsbsvc	r7, r0, #-1275068416	; 0xb4000000
    1ad8:	6c2f3232 	sfmvs	f3, 4, [pc], #-200	; 1a18 <__code_start__-0x65e8>
    1adc:	69706269 	ldmdbvs	r0!, {r0, r3, r5, r6, r9, sp, lr}^
    1ae0:	636e692f 	cmnvs	lr, #770048	; 0xbc000
    1ae4:	6564756c 	strbvs	r7, [r4, #-1388]!	; 0xfffffa94
    1ae8:	69740000 	ldmdbvs	r4!, {}^	; <UNPREDICTABLE>
    1aec:	2e72656d 	cdpcs	5, 7, cr6, cr2, cr13, {3}
    1af0:	00010063 	andeq	r0, r1, r3, rrx
    1af4:	69707200 	ldmdbvs	r0!, {r9, ip, sp, lr}^
    1af8:	0200682e 	andeq	r6, r0, #3014656	; 0x2e0000
    1afc:	05000000 	streq	r0, [r0, #-0]
    1b00:	02050023 	andeq	r0, r5, #35, 0	; 0x23
    1b04:	00009524 	andeq	r9, r0, r4, lsr #10
    1b08:	2f050515 	svccs	0x00050515
    1b0c:	01060c05 	tsteq	r6, r5, lsl #24
    1b10:	054b0105 	strbeq	r0, [fp, #-261]	; 0xfffffefb
    1b14:	054d061f 	strbeq	r0, [sp, #-1567]	; 0xfffff9e1
    1b18:	052f3105 	streq	r3, [pc, #-261]!	; 1a1b <__code_start__-0x65e5>
    1b1c:	05010612 	streq	r0, [r1, #-1554]	; 0xfffff9ee
    1b20:	2f4b0605 	svccs	0x004b0605
    1b24:	13060105 	movwne	r0, #24837	; 0x6105
    1b28:	4c061c05 	stcmi	12, cr1, [r6], {5}
    1b2c:	05050106 	streq	r0, [r5, #-262]	; 0xfffffefa
    1b30:	13054b06 	movwne	r4, #23302	; 0x5b06
    1b34:	052e0106 	streq	r0, [lr, #-262]!	; 0xfffffefa
    1b38:	052f0605 	streq	r0, [pc, #-1541]!	; 153b <__code_start__-0x6ac5>
    1b3c:	17051309 	strne	r1, [r5, -r9, lsl #6]
    1b40:	09050106 	stmdbeq	r5, {r1, r2, r8}
    1b44:	11052f06 	tstne	r5, r6, lsl #30
    1b48:	0c050106 	stfeqs	f0, [r5], {6}
    1b4c:	061c052e 	ldreq	r0, [ip], -lr, lsr #10
    1b50:	0501066b 	streq	r0, [r1, #-1643]	; 0xfffff995
    1b54:	062f0605 	strteq	r0, [pc], -r5, lsl #12
    1b58:	4b01054a 	blmi	43088 <__bss_end__+0x386b0>
    1b5c:	2f061e05 	svccs	0x00061e05
    1b60:	05050106 	streq	r0, [r5, #-262]	; 0xfffffefa
    1b64:	4a062f06 	bmi	18d784 <__bss_end__+0x182dac>
    1b68:	024b0105 	subeq	r0, fp, #1073741825	; 0x40000001
    1b6c:	01010002 	tsteq	r1, r2
    1b70:	00000205 	andeq	r0, r0, r5, lsl #4
    1b74:	00c90003 	sbceq	r0, r9, r3
    1b78:	01020000 	mrseq	r0, (UNDEF: 2)
    1b7c:	000d0efb 	strdeq	r0, [sp], -fp
    1b80:	01010101 	tsteq	r1, r1, lsl #2
    1b84:	01000000 	mrseq	r0, (UNDEF: 0)
    1b88:	2f010000 	svccs	0x00010000
    1b8c:	656d6f68 	strbvs	r6, [sp, #-3944]!	; 0xfffff098
    1b90:	676e652f 	strbvs	r6, [lr, -pc, lsr #10]!
    1b94:	2f72656c 	svccs	0x0072656c
    1b98:	73616c63 	cmnvc	r1, #25344	; 0x6300
    1b9c:	73632f73 	cmnvc	r3, #460	; 0x1cc
    1ba0:	6c303432 	cfldrsvs	mvf3, [r0], #-200	; 0xffffff38
    1ba4:	32322d78 	eorscc	r2, r2, #120, 26	; 0x1e00
    1ba8:	2f727073 	svccs	0x00727073
    1bac:	62696c2f 	rsbvs	r6, r9, #12032	; 0x2f00
    1bb0:	692f6970 	stmdbvs	pc!, {r4, r5, r6, r8, fp, sp, lr}	; <UNPREDICTABLE>
    1bb4:	756c636e 	strbvc	r6, [ip, #-878]!	; 0xfffffc92
    1bb8:	2f006564 	svccs	0x00006564
    1bbc:	2f727375 	svccs	0x00727375
    1bc0:	72616873 	rsbvc	r6, r1, #7536640	; 0x730000
    1bc4:	63672f65 	cmnvs	r7, #404	; 0x194
    1bc8:	72612d63 	rsbvc	r2, r1, #6336	; 0x18c0
    1bcc:	6f6e2d6d 	svcvs	0x006e2d6d
    1bd0:	652d656e 	strvs	r6, [sp, #-1390]!	; 0xfffffa92
    1bd4:	2d696261 	sfmcs	f6, 2, [r9, #-388]!	; 0xfffffe7c
    1bd8:	332e3031 			; <UNDEFINED> instruction: 0x332e3031
    1bdc:	3230322d 	eorscc	r3, r0, #-805306366	; 0xd0000002
    1be0:	30312e31 	eorscc	r2, r1, r1, lsr lr
    1be4:	62696c2f 	rsbvs	r6, r9, #12032	; 0x2f00
    1be8:	6363672f 	cmnvs	r3, #12320768	; 0xbc0000
    1bec:	6d72612f 	ldfvse	f6, [r2, #-188]!	; 0xffffff44
    1bf0:	6e6f6e2d 	cdpvs	14, 6, cr6, cr15, cr13, {1}
    1bf4:	61652d65 	cmnvs	r5, r5, ror #26
    1bf8:	312f6962 			; <UNDEFINED> instruction: 0x312f6962
    1bfc:	2e332e30 	mrccs	14, 1, r2, cr3, cr0, {1}
    1c00:	6e692f31 	mcrvs	15, 3, r2, cr9, cr1, {1}
    1c04:	64756c63 	ldrbtvs	r6, [r5], #-3171	; 0xfffff39d
    1c08:	75000065 	strvc	r0, [r0, #-101]	; 0xffffff9b
    1c0c:	2e747261 	cdpcs	2, 7, cr7, cr4, cr1, {3}
    1c10:	00000063 	andeq	r0, r0, r3, rrx
    1c14:	72617500 	rsbvc	r7, r1, #0, 10
    1c18:	00682e74 	rsbeq	r2, r8, r4, ror lr
    1c1c:	72000001 	andvc	r0, r0, #1, 0
    1c20:	682e6970 	stmdavs	lr!, {r4, r5, r6, r8, fp, sp, lr}
    1c24:	00000100 	andeq	r0, r0, r0, lsl #2
    1c28:	6f697067 	svcvs	0x00697067
    1c2c:	0100682e 	tsteq	r0, lr, lsr #16
    1c30:	74730000 	ldrbtvc	r0, [r3], #-0
    1c34:	746e6964 	strbtvc	r6, [lr], #-2404	; 0xfffff69c
    1c38:	6363672d 	cmnvs	r3, #11796480	; 0xb40000
    1c3c:	0200682e 	andeq	r6, r0, #3014656	; 0x2e0000
    1c40:	05000000 	streq	r0, [r0, #-0]
    1c44:	02050039 	andeq	r0, r5, #57, 0	; 0x39
    1c48:	000095a8 	andeq	r9, r0, r8, lsr #11
    1c4c:	06013003 	streq	r3, [r1], -r3
    1c50:	06050501 	streq	r0, [r5], -r1, lsl #10
    1c54:	06110567 	ldreq	r0, [r1], -r7, ror #10
    1c58:	2e050501 	cfsh32cs	mvfx0, mvfx5, #1
    1c5c:	05670105 	strbeq	r0, [r7, #-261]!	; 0xfffffefb
    1c60:	06290638 			; <UNDEFINED> instruction: 0x06290638
    1c64:	06050501 	streq	r0, [r5], -r1, lsl #10
    1c68:	06110567 	ldreq	r0, [r1], -r7, ror #10
    1c6c:	2e050501 	cfsh32cs	mvfx0, mvfx5, #1
    1c70:	05670105 	strbeq	r0, [r7, #-261]!	; 0xfffffefb
    1c74:	15030616 	strne	r0, [r3, #-1558]	; 0xfffff9ea
    1c78:	3505052e 	strcc	r0, [r5, #-1326]	; 0xfffffad2
    1c7c:	68356867 	ldmdavs	r5!, {r0, r1, r2, r5, r6, fp, sp, lr}
    1c80:	852e0c03 	strhi	r0, [lr, #-3075]!	; 0xfffff3fd
    1c84:	0369696b 	cmneq	r9, #1753088	; 0x1ac000
    1c88:	6b13660c 	blvs	4db4c0 <__bss_end__+0x4d0ae8>
    1c8c:	06010567 	streq	r0, [r1], -r7, ror #10
    1c90:	0619052f 	ldreq	r0, [r9], -pc, lsr #10
    1c94:	05052508 	streq	r2, [r5, #-1288]	; 0xfffffaf8
    1c98:	060d0534 			; <UNDEFINED> instruction: 0x060d0534
    1c9c:	4c010501 	cfstr32mi	mvfx0, [r1], {1}
    1ca0:	67061905 	strvs	r1, [r6, -r5, lsl #18]
    1ca4:	05360505 	ldreq	r0, [r6, #-1285]!	; 0xfffffafb
    1ca8:	0501060d 	streq	r0, [r1, #-1549]	; 0xfffff9f3
    1cac:	01054a28 	tsteq	r5, r8, lsr #20
    1cb0:	06150530 			; <UNDEFINED> instruction: 0x06150530
    1cb4:	2f050587 	svccs	0x00050587
    1cb8:	0009052f 	andeq	r0, r9, pc, lsr #10
    1cbc:	13010402 	movwne	r0, #5122	; 0x1402
    1cc0:	02000a05 	andeq	r0, r0, #20480	; 0x5000
    1cc4:	05110104 	ldreq	r0, [r1, #-260]	; 0xfffffefc
    1cc8:	0402000c 	streq	r0, [r2], #-12
    1ccc:	05010601 	streq	r0, [r1, #-1537]	; 0xfffff9ff
    1cd0:	0402000a 	streq	r0, [r2], #-10
    1cd4:	05052e01 	streq	r2, [r5, #-3585]	; 0xfffff1ff
    1cd8:	0e054c06 	cdpeq	12, 0, cr4, cr5, cr6, {0}
    1cdc:	09050106 	stmdbeq	r5, {r1, r2, r8}
    1ce0:	0605054a 	streq	r0, [r5], -sl, asr #10
    1ce4:	01052f2f 	tsteq	r5, pc, lsr #30
    1ce8:	1c051306 	stcne	3, cr1, [r5], {6}
    1cec:	01066706 	tsteq	r6, r6, lsl #14
    1cf0:	4b060505 	blmi	18310c <__bss_end__+0x178734>
    1cf4:	0009052f 	andeq	r0, r9, pc, lsr #10
    1cf8:	13010402 	movwne	r0, #5122	; 0x1402
    1cfc:	02000a05 	andeq	r0, r0, #20480	; 0x5000
    1d00:	05110104 	ldreq	r0, [r1, #-260]	; 0xfffffefc
    1d04:	0402000c 	streq	r0, [r2], #-12
    1d08:	05010601 	streq	r0, [r1, #-1537]	; 0xfffff9ff
    1d0c:	0402000a 	streq	r0, [r2], #-10
    1d10:	05052e01 	streq	r2, [r5, #-3585]	; 0xfffff1ff
    1d14:	05674c06 	strbeq	r4, [r7, #-3078]!	; 0xfffff3fa
    1d18:	052f0601 	streq	r0, [pc, #-1537]!	; 171f <__code_start__-0x68e1>
    1d1c:	054c0619 	strbeq	r0, [ip, #-1561]	; 0xfffff9e7
    1d20:	2a052e1b 	bcs	14d594 <__bss_end__+0x142bbc>
    1d24:	0631052e 	ldrteq	r0, [r1], -lr, lsr #10
    1d28:	2e420501 	cdpcs	5, 4, cr0, cr2, cr1, {0}
    1d2c:	31061c05 	tstcc	r6, r5, lsl #24
    1d30:	032f0505 			; <UNDEFINED> instruction: 0x032f0505
    1d34:	0e052e09 	cdpeq	14, 0, cr2, cr5, cr9, {0}
    1d38:	21050106 	tstcs	r5, r6, lsl #2
    1d3c:	0301054a 	movweq	r0, #5450	; 0x154a
    1d40:	1a052e0a 	bne	14d570 <__bss_end__+0x142b98>
    1d44:	09056806 	stmdbeq	r5, {r1, r2, fp, sp, lr}
    1d48:	01040200 	mrseq	r0, R12_usr
    1d4c:	000a0530 	andeq	r0, sl, r0, lsr r5
    1d50:	11010402 	tstne	r1, r2, lsl #8
    1d54:	02000c05 	andeq	r0, r0, #1280	; 0x500
    1d58:	01060104 	tsteq	r6, r4, lsl #2
    1d5c:	02000a05 	andeq	r0, r0, #20480	; 0x5000
    1d60:	052e0104 	streq	r0, [lr, #-260]!	; 0xfffffefc
    1d64:	e8030619 	stmda	r3, {r0, r3, r4, r9, sl}
    1d68:	0505667e 	streq	r6, [r5, #-1662]	; 0xfffff982
    1d6c:	672f2f2f 	strvs	r2, [pc, -pc, lsr #30]!
    1d70:	2f060105 	svccs	0x00060105
    1d74:	01000402 	tsteq	r0, r2, lsl #8
    1d78:	00039301 	andeq	r9, r3, r1, lsl #6
    1d7c:	b8000300 	stmdalt	r0, {r8, r9}
    1d80:	02000000 	andeq	r0, r0, #0, 0
    1d84:	0d0efb01 	vstreq	d15, [lr, #-4]
    1d88:	01010100 	mrseq	r0, (UNDEF: 17)
    1d8c:	00000001 	andeq	r0, r0, r1
    1d90:	01000001 	tsteq	r0, r1
    1d94:	6d6f682f 	stclvs	8, cr6, [pc, #-188]!	; 1ce0 <__code_start__-0x6320>
    1d98:	6e652f65 	cdpvs	15, 6, cr2, cr5, cr5, {3}
    1d9c:	72656c67 	rsbvc	r6, r5, #26368	; 0x6700
    1da0:	616c632f 	cmnvs	ip, pc, lsr #6
    1da4:	632f7373 			; <UNDEFINED> instruction: 0x632f7373
    1da8:	30343273 	eorscc	r3, r4, r3, ror r2
    1dac:	322d786c 	eorcc	r7, sp, #108, 16	; 0x6c0000
    1db0:	72707332 	rsbsvc	r7, r0, #-939524096	; 0xc8000000
    1db4:	696c2f2f 	stmdbvs	ip!, {r0, r1, r2, r3, r5, r8, r9, sl, fp, sp}^
    1db8:	2f697062 	svccs	0x00697062
    1dbc:	6c636e69 	stclvs	14, cr6, [r3], #-420	; 0xfffffe5c
    1dc0:	00656475 	rsbeq	r6, r5, r5, ror r4
    1dc4:	7273752f 	rsbsvc	r7, r3, #197132288	; 0xbc00000
    1dc8:	6168732f 	cmnvs	r8, pc, lsr #6
    1dcc:	672f6572 			; <UNDEFINED> instruction: 0x672f6572
    1dd0:	612d6363 			; <UNDEFINED> instruction: 0x612d6363
    1dd4:	6e2d6d72 	mcrvs	13, 1, r6, cr13, cr2, {3}
    1dd8:	2d656e6f 	stclcs	14, cr6, [r5, #-444]!	; 0xfffffe44
    1ddc:	69626165 	stmdbvs	r2!, {r0, r2, r5, r6, r8, sp, lr}^
    1de0:	2e30312d 	rsfcssp	f3, f0, #5.0
    1de4:	30322d33 	eorscc	r2, r2, r3, lsr sp
    1de8:	312e3132 			; <UNDEFINED> instruction: 0x312e3132
    1dec:	696c2f30 	stmdbvs	ip!, {r4, r5, r8, r9, sl, fp, sp}^
    1df0:	63672f62 	cmnvs	r7, #392	; 0x188
    1df4:	72612f63 	rsbvc	r2, r1, #396	; 0x18c
    1df8:	6f6e2d6d 	svcvs	0x006e2d6d
    1dfc:	652d656e 	strvs	r6, [sp, #-1390]!	; 0xfffffa92
    1e00:	2f696261 	svccs	0x00696261
    1e04:	332e3031 			; <UNDEFINED> instruction: 0x332e3031
    1e08:	692f312e 	stmdbvs	pc!, {r1, r2, r3, r5, r8, ip, sp}	; <UNPREDICTABLE>
    1e0c:	756c636e 	strbvc	r6, [ip, #-878]!	; 0xfffffc92
    1e10:	00006564 	andeq	r6, r0, r4, ror #10
    1e14:	6c616d6b 	stclvs	13, cr6, [r1], #-428	; 0xfffffe54
    1e18:	2e636f6c 	cdpcs	15, 6, cr6, cr3, cr12, {3}
    1e1c:	00000063 	andeq	r0, r0, r3, rrx
    1e20:	69707200 	ldmdbvs	r0!, {r9, ip, sp, lr}^
    1e24:	0100682e 	tsteq	r0, lr, lsr #16
    1e28:	74730000 	ldrbtvc	r0, [r3], #-0
    1e2c:	746e6964 	strbtvc	r6, [lr], #-2404	; 0xfffff69c
    1e30:	6363672d 	cmnvs	r3, #11796480	; 0xb40000
    1e34:	0200682e 	andeq	r6, r0, #3014656	; 0x2e0000
    1e38:	05000000 	streq	r0, [r0, #-0]
    1e3c:	0205001e 	andeq	r0, r5, #30, 0
    1e40:	00009798 	muleq	r0, r8, r7
    1e44:	05012703 	streq	r2, [r1, #-1795]	; 0xfffff8fd
    1e48:	31050120 	tstcc	r5, r0, lsr #2
    1e4c:	20050106 	andcs	r0, r5, r6, lsl #2
    1e50:	22058306 	andcs	r8, r5, #402653184	; 0x18000000
    1e54:	06350501 	ldrteq	r0, [r5], -r1, lsl #10
    1e58:	061e0501 	ldreq	r0, [lr], -r1, lsl #10
    1e5c:	01200583 	smlawbeq	r0, r3, r5, r0
    1e60:	01062d05 	tsteq	r6, r5, lsl #26
    1e64:	85064205 	strhi	r4, [r6, #-517]	; 0xfffffdfb
    1e68:	05050106 	streq	r0, [r5, #-262]	; 0xfffffefa
    1e6c:	01144b06 	tsteq	r4, r6, lsl #22
    1e70:	02002e06 	andeq	r2, r0, #96	; 0x60
    1e74:	2e060204 	cdpcs	2, 0, cr0, cr6, cr4, {0}
    1e78:	02040200 	andeq	r0, r4, #0, 4
    1e7c:	04020001 	streq	r0, [r2], #-1
    1e80:	0d051502 	cfstr32eq	mvfx1, [r5, #-8]
    1e84:	02040200 	andeq	r0, r4, #0, 4
    1e88:	07050106 	streq	r0, [r5, -r6, lsl #2]
    1e8c:	02040200 	andeq	r0, r4, #0, 4
    1e90:	0609054a 	streq	r0, [r9], -sl, asr #10
    1e94:	1505054b 	strne	r0, [r5, #-1355]	; 0xfffffab5
    1e98:	01061705 	tsteq	r6, r5, lsl #14
    1e9c:	054a1005 	strbeq	r1, [sl, #-5]
    1ea0:	052f0605 	streq	r0, [pc, #-1541]!	; 18a3 <__code_start__-0x675d>
    1ea4:	0501061b 	streq	r0, [r1, #-1563]	; 0xfffff9e5
    1ea8:	01052e0e 	tsteq	r5, lr, lsl #28
    1eac:	0005052f 	andeq	r0, r5, pc, lsr #10
    1eb0:	06010402 	streq	r0, [r1], -r2, lsl #8
    1eb4:	004a7703 	subeq	r7, sl, r3, lsl #14
    1eb8:	01010402 	tsteq	r1, r2, lsl #8
    1ebc:	01040200 	mrseq	r0, R12_usr
    1ec0:	02009e06 	andeq	r9, r0, #96	; 0x60
    1ec4:	002e0104 	eoreq	r0, lr, r4, lsl #2
    1ec8:	06010402 	streq	r0, [r1], -r2, lsl #8
    1ecc:	3209052e 	andcc	r0, r9, #192937984	; 0xb800000
    1ed0:	2ed60601 	cdpcs	6, 13, cr0, cr6, cr1, {0}
    1ed4:	19052e06 	stmdbne	r5, {r1, r2, r9, sl, fp, sp}
    1ed8:	2f0505de 	svccs	0x000505de
    1edc:	06080514 			; <UNDEFINED> instruction: 0x06080514
    1ee0:	4a070501 	bmi	1c32ec <__bss_end__+0x1b8914>
    1ee4:	4b060905 	blmi	184300 <__bss_end__+0x179928>
    1ee8:	05130505 	ldreq	r0, [r3, #-1285]	; 0xfffffafb
    1eec:	0501060c 	streq	r0, [r1, #-1548]	; 0xfffff9f4
    1ef0:	13670605 	cmnne	r7, #5242880	; 0x500000
    1ef4:	67060105 	strvs	r0, [r6, -r5, lsl #2]
    1ef8:	2a060905 	bcs	184314 <__bss_end__+0x17993c>
    1efc:	28059e01 	stmdacs	r5, {r0, r9, sl, fp, ip, pc}
    1f00:	050106a5 	streq	r0, [r1, #-1701]	; 0xfffff95b
    1f04:	014b0605 	cmpeq	fp, r5, lsl #12
    1f08:	2e062e06 	cdpcs	14, 0, cr2, cr6, cr6, {0}
    1f0c:	18051301 	stmdane	r5, {r0, r8, r9, ip}
    1f10:	05014703 	streq	r4, [r1, #-1795]	; 0xfffff8fd
    1f14:	06011305 	streq	r1, [r1], -r5, lsl #6
    1f18:	150f0601 	strne	r0, [pc, #-1537]	; 191f <__code_start__-0x66e1>
    1f1c:	0e051301 	cdpeq	3, 0, cr1, cr5, cr1, {0}
    1f20:	16050106 	strne	r0, [r5], -r6, lsl #2
    1f24:	05052e2e 	streq	r2, [r5, #-3630]	; 0xfffff1d2
    1f28:	01390306 	teqeq	r9, r6, lsl #6
    1f2c:	01060b05 	tsteq	r6, r5, lsl #22
    1f30:	4b060505 	blmi	18334c <__bss_end__+0x178974>
    1f34:	01060a05 	tsteq	r6, r5, lsl #20
    1f38:	4b060505 	blmi	183354 <__bss_end__+0x17897c>
    1f3c:	01060d05 	tsteq	r6, r5, lsl #26
    1f40:	052e0705 	streq	r0, [lr, #-1797]!	; 0xfffff8fb
    1f44:	05054d01 	streq	r4, [r5, #-3329]	; 0xfffff2ff
    1f48:	01040200 	mrseq	r0, R12_usr
    1f4c:	4a780306 	bmi	1e02b6c <__bss_end__+0x1df8194>
    1f50:	01040200 	mrseq	r0, R12_usr
    1f54:	04020001 	streq	r0, [r2], #-1
    1f58:	00ba0601 	adcseq	r0, sl, r1, lsl #12
    1f5c:	06010402 	streq	r0, [r1], -r2, lsl #8
    1f60:	3409052e 	strcc	r0, [r9], #-1326	; 0xfffffad2
    1f64:	66820601 	strvs	r0, [r2], r1, lsl #12
    1f68:	20052e06 	andcs	r2, r5, r6, lsl #28
    1f6c:	050106db 	streq	r0, [r1, #-1755]	; 0xfffff925
    1f70:	014b0605 	cmpeq	fp, r5, lsl #12
    1f74:	02040200 	andeq	r0, r4, #0, 4
    1f78:	0402004a 	streq	r0, [r2], #-74	; 0xffffffb6
    1f7c:	02000102 	andeq	r0, r0, #-2147483648	; 0x80000000
    1f80:	05130204 	ldreq	r0, [r3, #-516]	; 0xfffffdfc
    1f84:	04020012 	streq	r0, [r2], #-18	; 0xffffffee
    1f88:	00010602 	andeq	r0, r1, r2, lsl #12
    1f8c:	2e020402 	cdpcs	4, 0, cr0, cr2, cr2, {0}
    1f90:	02040200 	andeq	r0, r4, #0, 4
    1f94:	0005052e 	andeq	r0, r5, lr, lsr #10
    1f98:	06020402 	streq	r0, [r2], -r2, lsl #8
    1f9c:	0402002f 	streq	r0, [r2], #-47	; 0xffffffd1
    1fa0:	01056702 	tsteq	r5, r2, lsl #14
    1fa4:	02040200 	andeq	r0, r4, #0, 4
    1fa8:	05051306 	streq	r1, [r5, #-774]	; 0xfffffcfa
    1fac:	01040200 	mrseq	r0, R12_usr
    1fb0:	02006206 	andeq	r6, r0, #1610612736	; 0x60000000
    1fb4:	00010104 	andeq	r0, r1, r4, lsl #2
    1fb8:	06010402 	streq	r0, [r1], -r2, lsl #8
    1fbc:	040200ba 	streq	r0, [r2], #-186	; 0xffffff46
    1fc0:	052e0601 	streq	r0, [lr, #-1537]!	; 0xfffff9ff
    1fc4:	9e0a033c 	mcrls	3, 0, r0, cr10, cr12, {1}
    1fc8:	05050106 	streq	r0, [r5, #-262]	; 0xfffffefa
    1fcc:	06014b06 	streq	r4, [r1], -r6, lsl #22
    1fd0:	012e062e 			; <UNDEFINED> instruction: 0x012e062e
    1fd4:	18050113 	stmdane	r5, {r0, r1, r4, r8}
    1fd8:	017fad03 	cmneq	pc, r3, lsl #26
    1fdc:	05130505 	ldreq	r0, [r3, #-1285]	; 0xfffffafb
    1fe0:	2e010611 	mcrcs	6, 0, r0, cr1, cr1, {0}
    1fe4:	d2030505 	andle	r0, r3, #20971520	; 0x1400000
    1fe8:	4a060100 	bmi	1823f0 <__bss_end__+0x177a18>
    1fec:	03180513 	tsteq	r8, #79691776	; 0x4c00000
    1ff0:	05017fa3 	streq	r7, [r1, #-4003]	; 0xfffff05d
    1ff4:	16051305 	strne	r1, [r5], -r5, lsl #6
    1ff8:	054a0106 	strbeq	r0, [sl, #-262]	; 0xfffffefa
    1ffc:	e1030605 	tst	r3, r5, lsl #12
    2000:	12050100 	andne	r0, r5, #0
    2004:	05050106 	streq	r0, [r5, #-262]	; 0xfffffefa
    2008:	18054b06 	stmdane	r5, {r1, r2, r8, r9, fp, lr}
    200c:	017fa903 	cmneq	pc, r3, lsl #18
    2010:	01130505 	tsteq	r3, r5, lsl #10
    2014:	050e1805 	streq	r1, [lr, #-2053]	; 0xfffff7fb
    2018:	11051305 	tstne	r5, r5, lsl #6
    201c:	052e0106 	streq	r0, [lr, #-262]!	; 0xfffffefa
    2020:	4a061505 	bmi	18743c <__bss_end__+0x17ca64>
    2024:	0e051301 	cdpeq	3, 0, cr1, cr5, cr1, {0}
    2028:	052e0106 	streq	r0, [lr, #-262]!	; 0xfffffefa
    202c:	052e2e16 	streq	r2, [lr, #-3606]!	; 0xfffff1ea
    2030:	d6030605 	strle	r0, [r3], -r5, lsl #12
    2034:	05010100 	streq	r0, [r1, #-256]	; 0xffffff00
    2038:	7f9f0318 	svcvc	0x009f0318
    203c:	13050501 	movwne	r0, #21761	; 0x5501
    2040:	01061905 	tsteq	r6, r5, lsl #18
    2044:	0305052e 	movweq	r0, #21806	; 0x552e
    2048:	000100e0 	andeq	r0, r1, r0, ror #1
    204c:	06020402 	streq	r0, [r2], -r2, lsl #8
    2050:	0402004a 	streq	r0, [r2], #-74	; 0xffffffb6
    2054:	0a051402 	beq	147064 <__bss_end__+0x13c68c>
    2058:	02040200 	andeq	r0, r4, #0, 4
    205c:	05050106 	streq	r0, [r5, #-262]	; 0xfffffefa
    2060:	02040200 	andeq	r0, r4, #0, 4
    2064:	0c054b06 			; <UNDEFINED> instruction: 0x0c054b06
    2068:	02040200 	andeq	r0, r4, #0, 4
    206c:	01050106 	tsteq	r5, r6, lsl #2
    2070:	02040200 	andeq	r0, r4, #0, 4
    2074:	0005052f 	andeq	r0, r5, pc, lsr #10
    2078:	06010402 	streq	r0, [r1], -r2, lsl #8
    207c:	004a7303 	subeq	r7, sl, r3, lsl #6
    2080:	01010402 	tsteq	r1, r2, lsl #8
    2084:	01040200 	mrseq	r0, R12_usr
    2088:	02009e06 	andeq	r9, r0, #96	; 0x60
    208c:	002e0104 	eoreq	r0, lr, r4, lsl #2
    2090:	06010402 	streq	r0, [r1], -r2, lsl #8
    2094:	0402002e 	streq	r0, [r2], #-46	; 0xffffffd2
    2098:	02002f01 	andeq	r2, r0, #1, 30
    209c:	002e0104 	eoreq	r0, lr, r4, lsl #2
    20a0:	d6010402 	strle	r0, [r1], -r2, lsl #8
    20a4:	2e7fb103 	expcse	f3, f3
    20a8:	2e820601 	cdpcs	6, 8, cr0, cr2, cr1, {0}
    20ac:	062e062e 	strteq	r0, [lr], -lr, lsr #12
    20b0:	0402002e 	streq	r0, [r2], #-46	; 0xffffffd2
    20b4:	d7030601 	strle	r0, [r3, -r1, lsl #12]
    20b8:	02000100 	andeq	r0, r0, #0
    20bc:	002e0104 	eoreq	r0, lr, r4, lsl #2
    20c0:	d6010402 	strle	r0, [r1], -r2, lsl #8
    20c4:	7b081505 	blvc	2074e0 <__bss_end__+0x1fcb08>
    20c8:	05011705 	streq	r1, [r1, #-1797]	; 0xfffff8fb
    20cc:	18053116 	stmdane	r5, {r1, r2, r4, r8, ip, sp}
    20d0:	061d0501 	ldreq	r0, [sp], -r1, lsl #10
    20d4:	662b0501 	strtvs	r0, [fp], -r1, lsl #10
    20d8:	4d061905 	vstrmi.16	s2, [r6, #-10]	; <UNPREDICTABLE>
    20dc:	05130505 	ldreq	r0, [r3, #-1285]	; 0xfffffafb
    20e0:	0501060c 	streq	r0, [r1, #-1548]	; 0xfffff9f4
    20e4:	25054a07 	strcs	r4, [r5, #-2567]	; 0xfffff5f9
    20e8:	01040200 	mrseq	r0, R12_usr
    20ec:	001e054a 	andseq	r0, lr, sl, asr #10
    20f0:	4a010402 	bmi	43100 <__bss_end__+0x38728>
    20f4:	4b060905 	blmi	184510 <__bss_end__+0x179b38>
    20f8:	05130505 	ldreq	r0, [r3, #-1285]	; 0xfffffafb
    20fc:	0501060a 	streq	r0, [r1, #-1546]	; 0xfffff9f6
    2100:	09056319 	stmdbeq	r5, {r0, r3, r4, r8, r9, sp, lr}
    2104:	06014c06 	streq	r4, [r1], -r6, lsl #24
    2108:	022e069e 	eoreq	r0, lr, #165675008	; 0x9e00000
    210c:	0101000a 	tsteq	r1, sl
    2110:	000000be 	strheq	r0, [r0], -lr
    2114:	00800003 	addeq	r0, r0, r3
    2118:	01020000 	mrseq	r0, (UNDEF: 2)
    211c:	000d0efb 	strdeq	r0, [sp], -fp
    2120:	01010101 	tsteq	r1, r1, lsl #2
    2124:	01000000 	mrseq	r0, (UNDEF: 0)
    2128:	2e010000 	cdpcs	0, 0, cr0, cr1, cr0, {0}
    212c:	62696c2f 	rsbvs	r6, r9, #12032	; 0x2f00
    2130:	552f0063 	strpl	r0, [pc, #-99]!	; 20d5 <__code_start__-0x5f2b>
    2134:	73726573 	cmnvc	r2, #482344960	; 0x1cc00000
    2138:	6972742f 	ldmdbvs	r2!, {r0, r1, r2, r3, r5, sl, ip, sp, lr}^
    213c:	6e657473 	mcrvs	4, 3, r7, cr5, cr3, {3}
    2140:	6c6c6f6e 	stclvs	15, cr6, [ip], #-440	; 0xfffffe48
    2144:	2f6e616d 	svccs	0x006e616d
    2148:	75636f44 	strbvc	r6, [r3, #-3908]!	; 0xfffff0bc
    214c:	746e656d 	strbtvc	r6, [lr], #-1389	; 0xfffffa93
    2150:	70532f73 	subsvc	r2, r3, r3, ror pc
    2154:	676e6972 			; <UNDEFINED> instruction: 0x676e6972
    2158:	6175515f 	cmnvs	r5, pc, asr r1
    215c:	72657472 	rsbvc	r7, r5, #1912602624	; 0x72000000
    2160:	3230325f 	eorscc	r3, r0, #-268435451	; 0xf0000005
    2164:	53432f32 	movtpl	r2, #16178	; 0x3f32
    2168:	4c303432 	cfldrsmi	mvf3, [r0], #-200	; 0xffffff38
    216c:	70732d58 	rsbsvc	r2, r3, r8, asr sp
    2170:	2f323272 	svccs	0x00323272
    2174:	7062696c 	rsbvc	r6, r2, ip, ror #18
    2178:	6e692f69 	cdpvs	15, 6, cr2, cr9, cr9, {3}
    217c:	64756c63 	ldrbtvs	r6, [r5], #-3171	; 0xfffff39d
    2180:	70000065 	andvc	r0, r0, r5, rrx
    2184:	68637475 	stmdavs	r3!, {r0, r2, r4, r5, r6, sl, ip, sp, lr}^
    2188:	632e7261 			; <UNDEFINED> instruction: 0x632e7261
    218c:	00000100 	andeq	r0, r0, r0, lsl #2
    2190:	2e697072 	mcrcs	0, 3, r7, cr9, cr2, {3}
    2194:	00020068 	andeq	r0, r2, r8, rrx
    2198:	24050000 	strcs	r0, [r5], #-0
    219c:	48020500 	stmdami	r2, {r8, sl}
    21a0:	1400009b 	strne	r0, [r0], #-155	; 0xffffff65
    21a4:	26050106 	strcs	r0, [r5], -r6, lsl #2
    21a8:	34054a06 	strcc	r4, [r5], #-2566	; 0xfffff5fa
    21ac:	0601052e 	streq	r0, [r1], -lr, lsr #10
    21b0:	061b0501 	ldreq	r0, [fp], -r1, lsl #10
    21b4:	1305054f 	movwne	r0, #21839	; 0x554f
    21b8:	01061105 	tsteq	r6, r5, lsl #2
    21bc:	05670105 	strbeq	r0, [r7, #-261]!	; 0xfffffefb
    21c0:	05670623 	strbeq	r0, [r7, #-1571]!	; 0xfffff9dd
    21c4:	11051305 	tstne	r5, r5, lsl #6
    21c8:	01050106 	tsteq	r5, r6, lsl #2
    21cc:	0004024b 	andeq	r0, r4, fp, asr #4
    21d0:	010a0101 	tsteq	sl, r1, lsl #2
    21d4:	00030000 	andeq	r0, r3, r0
    21d8:	0000007f 	andeq	r0, r0, pc, ror r0
    21dc:	0efb0102 	cdpeq	1, 15, cr0, cr11, cr2, {0}
    21e0:	0101000d 	tsteq	r1, sp
    21e4:	00000101 	andeq	r0, r0, r1, lsl #2
    21e8:	00000100 	andeq	r0, r0, r0, lsl #2
    21ec:	6c2f2e01 	stcvs	14, cr2, [pc], #-4	; 21f0 <__code_start__-0x5e10>
    21f0:	00636269 	rsbeq	r6, r3, r9, ror #4
    21f4:	6573552f 	ldrbvs	r5, [r3, #-1327]!	; 0xfffffad1
    21f8:	742f7372 	strtvc	r7, [pc], #-882	; 2200 <__code_start__-0x5e00>
    21fc:	74736972 	ldrbtvc	r6, [r3], #-2418	; 0xfffff68e
    2200:	6f6e6e65 	svcvs	0x006e6e65
    2204:	616d6c6c 	cmnvs	sp, ip, ror #24
    2208:	6f442f6e 	svcvs	0x00442f6e
    220c:	656d7563 	strbvs	r7, [sp, #-1379]!	; 0xfffffa9d
    2210:	2f73746e 	svccs	0x0073746e
    2214:	69727053 	ldmdbvs	r2!, {r0, r1, r4, r6, ip, sp, lr}^
    2218:	515f676e 	cmppl	pc, lr, ror #14
    221c:	74726175 	ldrbtvc	r6, [r2], #-373	; 0xfffffe8b
    2220:	325f7265 	subscc	r7, pc, #1342177286	; 0x50000006
    2224:	2f323230 	svccs	0x00323230
    2228:	34325343 	ldrtcc	r5, [r2], #-835	; 0xfffffcbd
    222c:	2d584c30 	ldclcs	12, cr4, [r8, #-192]	; 0xffffff40
    2230:	32727073 	rsbscc	r7, r2, #115, 0	; 0x73
    2234:	696c2f32 	stmdbvs	ip!, {r1, r4, r5, r8, r9, sl, fp, sp}^
    2238:	2f697062 	svccs	0x00697062
    223c:	6c636e69 	stclvs	14, cr6, [r3], #-420	; 0xfffffe5c
    2240:	00656475 	rsbeq	r6, r5, r5, ror r4
    2244:	72747300 	rsbsvc	r7, r4, #0, 6
    2248:	2e746163 	rpwcssz	f6, f4, f3
    224c:	00010063 	andeq	r0, r1, r3, rrx
    2250:	69707200 	ldmdbvs	r0!, {r9, ip, sp, lr}^
    2254:	0200682e 	andeq	r6, r0, #3014656	; 0x2e0000
    2258:	05000000 	streq	r0, [r0, #-0]
    225c:	0205002c 	andeq	r0, r5, #44, 0	; 0x2c
    2260:	00009b84 	andeq	r9, r0, r4, lsl #23
    2264:	13050515 	movwne	r0, #21781	; 0x5515
    2268:	060b0513 			; <UNDEFINED> instruction: 0x060b0513
    226c:	00050511 	andeq	r0, r5, r1, lsl r5
    2270:	06010402 	streq	r0, [r1], -r2, lsl #8
    2274:	04020030 	streq	r0, [r2], #-48	; 0xffffffd0
    2278:	09051501 	stmdbeq	r5, {r0, r8, sl, ip}
    227c:	01040200 	mrseq	r0, R12_usr
    2280:	00100513 	andseq	r0, r0, r3, lsl r5
    2284:	06010402 	streq	r0, [r1], -r2, lsl #8
    2288:	000b052e 	andeq	r0, fp, lr, lsr #10
    228c:	2e010402 	cdpcs	4, 0, cr0, cr1, cr2, {0}
    2290:	01040200 	mrseq	r0, R12_usr
    2294:	05052f06 	streq	r2, [r5, #-3846]	; 0xfffff0fa
    2298:	01040200 	mrseq	r0, R12_usr
    229c:	4e060106 	adfmis	f0, f6, f6
    22a0:	01060805 	tsteq	r6, r5, lsl #16
    22a4:	02000505 	andeq	r0, r0, #20971520	; 0x1400000
    22a8:	2f060104 	svccs	0x00060104
    22ac:	02000905 	andeq	r0, r0, #81920	; 0x14000
    22b0:	05130104 	ldreq	r0, [r3, #-260]	; 0xfffffefc
    22b4:	0402000b 	streq	r0, [r2], #-11
    22b8:	05010601 	streq	r0, [r1, #-1537]	; 0xfffff9ff
    22bc:	04020009 	streq	r0, [r2], #-9
    22c0:	054b0601 	strbeq	r0, [fp, #-1537]	; 0xfffff9ff
    22c4:	0402000f 	streq	r0, [r2], #-15
    22c8:	05010601 	streq	r0, [r1, #-1537]	; 0xfffff9ff
    22cc:	0402000d 	streq	r0, [r2], #-13
    22d0:	052f0601 	streq	r0, [pc, #-1537]!	; 1cd7 <__code_start__-0x6329>
    22d4:	04020005 	streq	r0, [r2], #-5
    22d8:	02010601 	andeq	r0, r1, #1048576	; 0x100000
    22dc:	01010006 	tsteq	r1, r6
    22e0:	000000c3 	andeq	r0, r0, r3, asr #1
    22e4:	007f0003 	rsbseq	r0, pc, r3
    22e8:	01020000 	mrseq	r0, (UNDEF: 2)
    22ec:	000d0efb 	strdeq	r0, [sp], -fp
    22f0:	01010101 	tsteq	r1, r1, lsl #2
    22f4:	01000000 	mrseq	r0, (UNDEF: 0)
    22f8:	2e010000 	cdpcs	0, 0, cr0, cr1, cr0, {0}
    22fc:	62696c2f 	rsbvs	r6, r9, #12032	; 0x2f00
    2300:	552f0063 	strpl	r0, [pc, #-99]!	; 22a5 <__code_start__-0x5d5b>
    2304:	73726573 	cmnvc	r2, #482344960	; 0x1cc00000
    2308:	6972742f 	ldmdbvs	r2!, {r0, r1, r2, r3, r5, sl, ip, sp, lr}^
    230c:	6e657473 	mcrvs	4, 3, r7, cr5, cr3, {3}
    2310:	6c6c6f6e 	stclvs	15, cr6, [ip], #-440	; 0xfffffe48
    2314:	2f6e616d 	svccs	0x006e616d
    2318:	75636f44 	strbvc	r6, [r3, #-3908]!	; 0xfffff0bc
    231c:	746e656d 	strbtvc	r6, [lr], #-1389	; 0xfffffa93
    2320:	70532f73 	subsvc	r2, r3, r3, ror pc
    2324:	676e6972 			; <UNDEFINED> instruction: 0x676e6972
    2328:	6175515f 	cmnvs	r5, pc, asr r1
    232c:	72657472 	rsbvc	r7, r5, #1912602624	; 0x72000000
    2330:	3230325f 	eorscc	r3, r0, #-268435451	; 0xf0000005
    2334:	53432f32 	movtpl	r2, #16178	; 0x3f32
    2338:	4c303432 	cfldrsmi	mvf3, [r0], #-200	; 0xffffff38
    233c:	70732d58 	rsbsvc	r2, r3, r8, asr sp
    2340:	2f323272 	svccs	0x00323272
    2344:	7062696c 	rsbvc	r6, r2, ip, ror #18
    2348:	6e692f69 	cdpvs	15, 6, cr2, cr9, cr9, {3}
    234c:	64756c63 	ldrbtvs	r6, [r5], #-3171	; 0xfffff39d
    2350:	73000065 	movwvc	r0, #101	; 0x65
    2354:	6d637274 	sfmvs	f7, 2, [r3, #-464]!	; 0xfffffe30
    2358:	00632e70 	rsbeq	r2, r3, r0, ror lr
    235c:	72000001 	andvc	r0, r0, #1, 0
    2360:	682e6970 	stmdavs	lr!, {r4, r5, r6, r8, fp, sp, lr}
    2364:	00000200 	andeq	r0, r0, r0, lsl #4
    2368:	002a0500 	eoreq	r0, sl, r0, lsl #10
    236c:	9bb80205 	blls	fee02b88 <__bss_end__+0xfedf81b0>
    2370:	05140000 	ldreq	r0, [r4, #-0]
    2374:	0f051309 	svceq	0x00051309
    2378:	06100501 	ldreq	r0, [r0], -r1, lsl #10
    237c:	2e0f0501 	cfsh32cs	mvfx0, mvfx15, #1
    2380:	02001c05 	andeq	r1, r0, #1280	; 0x500
    2384:	054a0104 	strbeq	r0, [sl, #-260]	; 0xfffffefc
    2388:	04020013 	streq	r0, [r2], #-19	; 0xffffffed
    238c:	11052e01 	tstne	r5, r1, lsl #28
    2390:	16052f06 	strne	r2, [r5], -r6, lsl #30
    2394:	052e2e06 	streq	r2, [lr, #-3590]!	; 0xfffff1fa
    2398:	052f0609 	streq	r0, [pc, #-1545]!	; 1d97 <__code_start__-0x6269>
    239c:	05010615 	streq	r0, [r1, #-1557]	; 0xfffff9eb
    23a0:	04022f01 	streq	r2, [r2], #-3841	; 0xfffff0ff
    23a4:	c1010100 	mrsgt	r0, (UNDEF: 17)
    23a8:	03000000 	movweq	r0, #0
    23ac:	00007f00 	andeq	r7, r0, r0, lsl #30
    23b0:	fb010200 	blx	42bba <__bss_end__+0x381e2>
    23b4:	01000d0e 	tsteq	r0, lr, lsl #26
    23b8:	00010101 	andeq	r0, r1, r1, lsl #2
    23bc:	00010000 	andeq	r0, r1, r0
    23c0:	2f2e0100 	svccs	0x002e0100
    23c4:	6362696c 	cmnvs	r2, #108, 18	; 0x1b0000
    23c8:	73552f00 	cmpvc	r5, #0, 30
    23cc:	2f737265 	svccs	0x00737265
    23d0:	73697274 	cmnvc	r9, #116, 4	; 0x40000007
    23d4:	6e6e6574 	mcrvs	5, 3, r6, cr14, cr4, {3}
    23d8:	6d6c6c6f 	stclvs	12, cr6, [ip, #-444]!	; 0xfffffe44
    23dc:	442f6e61 	strtmi	r6, [pc], #-3681	; 23e4 <__code_start__-0x5c1c>
    23e0:	6d75636f 	ldclvs	3, cr6, [r5, #-444]!	; 0xfffffe44
    23e4:	73746e65 	cmnvc	r4, #1616	; 0x650
    23e8:	7270532f 	rsbsvc	r5, r0, #-1140850688	; 0xbc000000
    23ec:	5f676e69 	svcpl	0x00676e69
    23f0:	72617551 	rsbvc	r7, r1, #339738624	; 0x14400000
    23f4:	5f726574 	svcpl	0x00726574
    23f8:	32323032 	eorscc	r3, r2, #50, 0	; 0x32
    23fc:	3253432f 	subscc	r4, r3, #-1140850688	; 0xbc000000
    2400:	584c3034 	stmdapl	ip, {r2, r4, r5, ip, sp}^
    2404:	7270732d 	rsbsvc	r7, r0, #-1275068416	; 0xb4000000
    2408:	6c2f3232 	sfmvs	f3, 4, [pc], #-200	; 2348 <__code_start__-0x5cb8>
    240c:	69706269 	ldmdbvs	r0!, {r0, r3, r5, r6, r9, sp, lr}^
    2410:	636e692f 	cmnvs	lr, #770048	; 0xbc000
    2414:	6564756c 	strbvs	r7, [r4, #-1388]!	; 0xfffffa94
    2418:	74730000 	ldrbtvc	r0, [r3], #-0
    241c:	79706372 	ldmdbvc	r0!, {r1, r4, r5, r6, r8, r9, sp, lr}^
    2420:	0100632e 	tsteq	r0, lr, lsr #6
    2424:	70720000 	rsbsvc	r0, r2, r0
    2428:	00682e69 	rsbeq	r2, r8, r9, ror #28
    242c:	00000002 	andeq	r0, r0, r2
    2430:	05002a05 	streq	r2, [r0, #-2565]	; 0xfffff5fb
    2434:	009be402 	addseq	lr, fp, r2, lsl #8
    2438:	05051400 	streq	r1, [r5, #-1024]	; 0xfffffc00
    243c:	14051313 	strne	r1, [r5], #-787	; 0xfffffced
    2440:	22051106 	andcs	r1, r5, #-2147483647	; 0x80000001
    2444:	01040200 	mrseq	r0, R12_usr
    2448:	0b052f06 	bleq	14e068 <__bss_end__+0x143690>
    244c:	01040200 	mrseq	r0, R12_usr
    2450:	00150501 	andseq	r0, r5, r1, lsl #10
    2454:	06010402 	streq	r0, [r1], -r2, lsl #8
    2458:	00130501 	andseq	r0, r3, r1, lsl #10
    245c:	4a010402 	bmi	4346c <__bss_end__+0x38a94>
    2460:	02000b05 	andeq	r0, r0, #5120	; 0x1400
    2464:	024a0104 	subeq	r0, sl, #1
    2468:	01010006 	tsteq	r1, r6
    246c:	00000121 	andeq	r0, r0, r1, lsr #2
    2470:	00e50003 	rsceq	r0, r5, r3
    2474:	01020000 	mrseq	r0, (UNDEF: 2)
    2478:	000d0efb 	strdeq	r0, [sp], -fp
    247c:	01010101 	tsteq	r1, r1, lsl #2
    2480:	01000000 	mrseq	r0, (UNDEF: 0)
    2484:	2e010000 	cdpcs	0, 0, cr0, cr1, cr0, {0}
    2488:	62696c2f 	rsbvs	r6, r9, #12032	; 0x2f00
    248c:	552f0063 	strpl	r0, [pc, #-99]!	; 2431 <__code_start__-0x5bcf>
    2490:	73726573 	cmnvc	r2, #482344960	; 0x1cc00000
    2494:	6972742f 	ldmdbvs	r2!, {r0, r1, r2, r3, r5, sl, ip, sp, lr}^
    2498:	6e657473 	mcrvs	4, 3, r7, cr5, cr3, {3}
    249c:	6c6c6f6e 	stclvs	15, cr6, [ip], #-440	; 0xfffffe48
    24a0:	2f6e616d 	svccs	0x006e616d
    24a4:	75636f44 	strbvc	r6, [r3, #-3908]!	; 0xfffff0bc
    24a8:	746e656d 	strbtvc	r6, [lr], #-1389	; 0xfffffa93
    24ac:	70532f73 	subsvc	r2, r3, r3, ror pc
    24b0:	676e6972 			; <UNDEFINED> instruction: 0x676e6972
    24b4:	6175515f 	cmnvs	r5, pc, asr r1
    24b8:	72657472 	rsbvc	r7, r5, #1912602624	; 0x72000000
    24bc:	3230325f 	eorscc	r3, r0, #-268435451	; 0xf0000005
    24c0:	53432f32 	movtpl	r2, #16178	; 0x3f32
    24c4:	4c303432 	cfldrsmi	mvf3, [r0], #-200	; 0xffffff38
    24c8:	70732d58 	rsbsvc	r2, r3, r8, asr sp
    24cc:	2f323272 	svccs	0x00323272
    24d0:	7062696c 	rsbvc	r6, r2, ip, ror #18
    24d4:	6e692f69 	cdpvs	15, 6, cr2, cr9, cr9, {3}
    24d8:	64756c63 	ldrbtvs	r6, [r5], #-3171	; 0xfffff39d
    24dc:	752f0065 	strvc	r0, [pc, #-101]!	; 247f <__code_start__-0x5b81>
    24e0:	6c2f7273 	sfmvs	f7, 4, [pc], #-460	; 231c <__code_start__-0x5ce4>
    24e4:	6c61636f 	stclvs	3, cr6, [r1], #-444	; 0xfffffe44
    24e8:	6c65432f 	stclvs	3, cr4, [r5], #-188	; 0xffffff44
    24ec:	2f72616c 	svccs	0x0072616c
    24f0:	2d6d7261 	sfmcs	f7, 2, [sp, #-388]!	; 0xfffffe7c
    24f4:	656e6f6e 	strbvs	r6, [lr, #-3950]!	; 0xfffff092
    24f8:	6261652d 	rsbvs	r6, r1, #188743680	; 0xb400000
    24fc:	65742d69 	ldrbvs	r2, [r4, #-3433]!	; 0xfffff297
    2500:	392f7473 	stmdbcc	pc!, {r0, r1, r4, r5, r6, sl, ip, sp, lr}	; <UNPREDICTABLE>
    2504:	3130322d 	teqcc	r0, sp, lsr #4
    2508:	2d347139 	ldfcss	f7, [r4, #-228]!	; 0xffffff1c
    250c:	30317363 	eorscc	r7, r1, r3, ror #6
    2510:	6c2f6537 	cfstr32vs	mvfx6, [pc], #-220	; 243c <__code_start__-0x5bc4>
    2514:	672f6269 	strvs	r6, [pc, -r9, ror #4]!
    2518:	612f6363 			; <UNDEFINED> instruction: 0x612f6363
    251c:	6e2d6d72 	mcrvs	13, 1, r6, cr13, cr2, {3}
    2520:	2d656e6f 	stclcs	14, cr6, [r5, #-444]!	; 0xfffffe44
    2524:	69626165 	stmdbvs	r2!, {r0, r2, r5, r6, r8, sp, lr}^
    2528:	322e392f 	eorcc	r3, lr, #770048	; 0xbc000
    252c:	692f312e 	stmdbvs	pc!, {r1, r2, r3, r5, r8, ip, sp}	; <UNPREDICTABLE>
    2530:	756c636e 	strbvc	r6, [ip, #-878]!	; 0xfffffc92
    2534:	00006564 	andeq	r6, r0, r4, ror #10
    2538:	6e727473 	mrcvs	4, 3, r7, cr2, cr3, {3}
    253c:	2e706d63 	cdpcs	13, 7, cr6, cr0, cr3, {3}
    2540:	00010063 	andeq	r0, r1, r3, rrx
    2544:	69707200 	ldmdbvs	r0!, {r9, ip, sp, lr}^
    2548:	0200682e 	andeq	r6, r0, #3014656	; 0x2e0000
    254c:	74730000 	ldrbtvc	r0, [r3], #-0
    2550:	66656464 	strbtvs	r6, [r5], -r4, ror #8
    2554:	0300682e 	movweq	r6, #2094	; 0x82e
    2558:	05000000 	streq	r0, [r0, #-0]
    255c:	02050039 	andeq	r0, r5, #57, 0	; 0x39
    2560:	00009c04 	andeq	r9, r0, r4, lsl #24
    2564:	13050515 	movwne	r0, #21781	; 0x5515
    2568:	010a0513 	tsteq	sl, r3, lsl r5
    256c:	054a0106 	strbeq	r0, [sl, #-262]	; 0xfffffefa
    2570:	052f0609 	streq	r0, [pc, #-1545]!	; 1f6f <__code_start__-0x6091>
    2574:	0501060c 	streq	r0, [r1, #-1548]	; 0xfffff9f4
    2578:	0b052e13 	bleq	14ddcc <__bss_end__+0x1433f4>
    257c:	060d052e 	streq	r0, [sp], -lr, lsr #10
    2580:	061b054b 	ldreq	r0, [fp], -fp, asr #10
    2584:	0c052e01 	stceq	14, cr2, [r5], {1}
    2588:	2f010530 	svccs	0x00010530
    258c:	01000202 	tsteq	r0, r2, lsl #4
    2590:	0000b001 	andeq	fp, r0, r1
    2594:	94000300 	strls	r0, [r0], #-768	; 0xfffffd00
    2598:	02000000 	andeq	r0, r0, #0, 0
    259c:	0d0efb01 	vstreq	d15, [lr, #-4]
    25a0:	01010100 	mrseq	r0, (UNDEF: 17)
    25a4:	00000001 	andeq	r0, r0, r1
    25a8:	01000001 	tsteq	r0, r1
    25ac:	74732f2e 	ldrbtvc	r2, [r3], #-3886	; 0xfffff0d2
    25b0:	2d666661 	stclcs	6, cr6, [r6, #-388]!	; 0xfffffe7c
    25b4:	00637273 	rsbeq	r7, r3, r3, ror r2
    25b8:	6573552f 	ldrbvs	r5, [r3, #-1327]!	; 0xfffffad1
    25bc:	742f7372 	strtvc	r7, [pc], #-882	; 25c4 <__code_start__-0x5a3c>
    25c0:	74736972 	ldrbtvc	r6, [r3], #-2418	; 0xfffff68e
    25c4:	6f6e6e65 	svcvs	0x006e6e65
    25c8:	616d6c6c 	cmnvs	sp, ip, ror #24
    25cc:	6f442f6e 	svcvs	0x00442f6e
    25d0:	656d7563 	strbvs	r7, [sp, #-1379]!	; 0xfffffa9d
    25d4:	2f73746e 	svccs	0x0073746e
    25d8:	69727053 	ldmdbvs	r2!, {r0, r1, r4, r6, ip, sp, lr}^
    25dc:	515f676e 	cmppl	pc, lr, ror #14
    25e0:	74726175 	ldrbtvc	r6, [r2], #-373	; 0xfffffe8b
    25e4:	325f7265 	subscc	r7, pc, #1342177286	; 0x50000006
    25e8:	2f323230 	svccs	0x00323230
    25ec:	34325343 	ldrtcc	r5, [r2], #-835	; 0xfffffcbd
    25f0:	2d584c30 	ldclcs	12, cr4, [r8, #-192]	; 0xffffff40
    25f4:	32727073 	rsbscc	r7, r2, #115, 0	; 0x73
    25f8:	696c2f32 	stmdbvs	ip!, {r1, r4, r5, r8, r9, sl, fp, sp}^
    25fc:	2f697062 	svccs	0x00697062
    2600:	6c636e69 	stclvs	14, cr6, [r3], #-420	; 0xfffffe5c
    2604:	00656475 	rsbeq	r6, r5, r5, ror r4
    2608:	66656400 	strbtvs	r6, [r5], -r0, lsl #8
    260c:	746c7561 	strbtvc	r7, [ip], #-1377	; 0xfffffa9f
    2610:	6265722d 	rsbvs	r7, r5, #-805306366	; 0xd0000002
    2614:	2d746f6f 	ldclcs	15, cr6, [r4, #-444]!	; 0xfffffe44
    2618:	6c6c6163 	stfvse	f6, [ip], #-396	; 0xfffffe74
    261c:	2e74756f 	cdpcs	5, 7, cr7, cr4, cr15, {3}
    2620:	00010063 	andeq	r0, r1, r3, rrx
    2624:	69707200 	ldmdbvs	r0!, {r9, ip, sp, lr}^
    2628:	0200682e 	andeq	r6, r0, #3014656	; 0x2e0000
    262c:	05000000 	streq	r0, [r0, #-0]
    2630:	0205001b 	andeq	r0, r5, #27, 0
    2634:	00009c30 	andeq	r9, r0, r0, lsr ip
    2638:	011c0514 	tsteq	ip, r4, lsl r5
    263c:	01060105 	tsteq	r6, r5, lsl #2
    2640:	01000202 	tsteq	r0, r2, lsl #4
    2644:	0001bb01 	andeq	fp, r1, r1, lsl #22
    2648:	bf000300 	svclt	0x00000300
    264c:	02000000 	andeq	r0, r0, #0, 0
    2650:	0d0efb01 	vstreq	d15, [lr, #-4]
    2654:	01010100 	mrseq	r0, (UNDEF: 17)
    2658:	00000001 	andeq	r0, r0, r1
    265c:	01000001 	tsteq	r0, r1
    2660:	6d6f682f 	stclvs	8, cr6, [pc, #-188]!	; 25ac <__code_start__-0x5a54>
    2664:	6e652f65 	cdpvs	15, 6, cr2, cr5, cr5, {3}
    2668:	72656c67 	rsbvc	r6, r5, #26368	; 0x6700
    266c:	616c632f 	cmnvs	ip, pc, lsr #6
    2670:	632f7373 			; <UNDEFINED> instruction: 0x632f7373
    2674:	30343273 	eorscc	r3, r4, r3, ror r2
    2678:	322d786c 	eorcc	r7, sp, #108, 16	; 0x6c0000
    267c:	72707332 	rsbsvc	r7, r0, #-939524096	; 0xc8000000
    2680:	696c2f2f 	stmdbvs	ip!, {r0, r1, r2, r3, r5, r8, r9, sl, fp, sp}^
    2684:	2f697062 	svccs	0x00697062
    2688:	6c636e69 	stclvs	14, cr6, [r3], #-420	; 0xfffffe5c
    268c:	00656475 	rsbeq	r6, r5, r5, ror r4
    2690:	7273752f 	rsbsvc	r7, r3, #197132288	; 0xbc00000
    2694:	6168732f 	cmnvs	r8, pc, lsr #6
    2698:	672f6572 			; <UNDEFINED> instruction: 0x672f6572
    269c:	612d6363 			; <UNDEFINED> instruction: 0x612d6363
    26a0:	6e2d6d72 	mcrvs	13, 1, r6, cr13, cr2, {3}
    26a4:	2d656e6f 	stclcs	14, cr6, [r5, #-444]!	; 0xfffffe44
    26a8:	69626165 	stmdbvs	r2!, {r0, r2, r5, r6, r8, sp, lr}^
    26ac:	2e30312d 	rsfcssp	f3, f0, #5.0
    26b0:	30322d33 	eorscc	r2, r2, r3, lsr sp
    26b4:	312e3132 			; <UNDEFINED> instruction: 0x312e3132
    26b8:	696c2f30 	stmdbvs	ip!, {r4, r5, r8, r9, sl, fp, sp}^
    26bc:	63672f62 	cmnvs	r7, #392	; 0x188
    26c0:	72612f63 	rsbvc	r2, r1, #396	; 0x18c
    26c4:	6f6e2d6d 	svcvs	0x006e2d6d
    26c8:	652d656e 	strvs	r6, [sp, #-1390]!	; 0xfffffa92
    26cc:	2f696261 	svccs	0x00696261
    26d0:	332e3031 			; <UNDEFINED> instruction: 0x332e3031
    26d4:	692f312e 	stmdbvs	pc!, {r1, r2, r3, r5, r8, ip, sp}	; <UNPREDICTABLE>
    26d8:	756c636e 	strbvc	r6, [ip, #-878]!	; 0xfffffc92
    26dc:	00006564 	andeq	r6, r0, r4, ror #10
    26e0:	6f697067 	svcvs	0x00697067
    26e4:	0000632e 	andeq	r6, r0, lr, lsr #6
    26e8:	70720000 	rsbsvc	r0, r2, r0
    26ec:	00682e69 	rsbeq	r2, r8, r9, ror #28
    26f0:	73000001 	movwvc	r0, #1
    26f4:	6e696474 	mcrvs	4, 3, r6, cr9, cr4, {3}
    26f8:	63672d74 	cmnvs	r7, #116, 26	; 0x1d00
    26fc:	00682e63 	rsbeq	r2, r8, r3, ror #28
    2700:	67000002 	strvs	r0, [r0, -r2]
    2704:	2e6f6970 			; <UNDEFINED> instruction: 0x2e6f6970
    2708:	00010068 	andeq	r0, r1, r8, rrx
    270c:	38050000 	stmdacc	r5, {}	; <UNPREDICTABLE>
    2710:	4c020500 	cfstr32mi	mvfx0, [r2], {-0}
    2714:	0300009c 	movweq	r0, #156	; 0x9c
    2718:	05050127 	streq	r0, [r5, #-295]	; 0xfffffed9
    271c:	06070513 			; <UNDEFINED> instruction: 0x06070513
    2720:	49380501 	ldmdbmi	r8!, {r0, r8, sl}
    2724:	4d060505 	cfstr32mi	mvfx0, [r6, #-20]	; 0xffffffec
    2728:	01060705 	tsteq	r6, r5, lsl #14
    272c:	4c060505 	cfstr32mi	mvfx0, [r6], {5}
    2730:	01061805 	tsteq	r6, r5, lsl #16
    2734:	05ba0e05 	ldreq	r0, [sl, #3589]!	; 0xe05
    2738:	052f0605 	streq	r0, [pc, #-1541]!	; 213b <__code_start__-0x5ec5>
    273c:	2e01061c 	mcrcs	6, 0, r0, cr1, cr12, {0}
    2740:	052e0e05 	streq	r0, [lr, #-3589]!	; 0xfffff1fb
    2744:	05300605 	ldreq	r0, [r0, #-1541]!	; 0xfffff9fb
    2748:	05010612 	streq	r0, [r1, #-1554]	; 0xfffff9ee
    274c:	054b0605 	strbeq	r0, [fp, #-1541]	; 0xfffff9fb
    2750:	05010607 	streq	r0, [r1, #-1543]	; 0xfffff9f9
    2754:	134b0605 	movtne	r0, #46597	; 0xb605
    2758:	01052e06 	tsteq	r5, r6, lsl #28
    275c:	0624054b 	strteq	r0, [r4], -fp, asr #10
    2760:	0501064c 	streq	r0, [r1, #-1612]	; 0xfffff9b4
    2764:	052f0605 	streq	r0, [pc, #-1541]!	; 2167 <__code_start__-0x5e99>
    2768:	054b0601 	strbeq	r0, [fp, #-1537]	; 0xfffff9ff
    276c:	05310620 	ldreq	r0, [r1, #-1568]!	; 0xfffff9e0
    2770:	07051305 	streq	r1, [r5, -r5, lsl #6]
    2774:	20050106 	andcs	r0, r5, r6, lsl #2
    2778:	06050549 	streq	r0, [r5], -r9, asr #10
    277c:	05660631 	strbeq	r0, [r6, #-1585]!	; 0xfffff9cf
    2780:	21052f01 	tstcs	r5, r1, lsl #30
    2784:	05054d06 	streq	r4, [r5, #-3334]	; 0xfffff2fa
    2788:	06070513 			; <UNDEFINED> instruction: 0x06070513
    278c:	49210501 	stmdbmi	r1!, {r0, r8, sl}
    2790:	31060505 	tstcc	r6, r5, lsl #10
    2794:	01056606 	tsteq	r5, r6, lsl #12
    2798:	0623052f 	strteq	r0, [r3], -pc, lsr #10
    279c:	0501064d 	streq	r0, [r1, #-1613]	; 0xfffff9b3
    27a0:	052f0605 	streq	r0, [pc, #-1541]!	; 21a3 <__code_start__-0x5e5d>
    27a4:	054b0601 	strbeq	r0, [fp, #-1537]	; 0xfffff9ff
    27a8:	0631062b 	ldrteq	r0, [r1], -fp, lsr #12
    27ac:	06050501 	streq	r0, [r5], -r1, lsl #10
    27b0:	0607052f 	streq	r0, [r7], -pc, lsr #10
    27b4:	06090501 	streq	r0, [r9], -r1, lsl #10
    27b8:	062e064b 	strteq	r0, [lr], -fp, asr #12
    27bc:	06010530 			; <UNDEFINED> instruction: 0x06010530
    27c0:	061d052f 	ldreq	r0, [sp], -pc, lsr #10
    27c4:	13050530 	movwne	r0, #21808	; 0x5530
    27c8:	01060705 	tsteq	r6, r5, lsl #14
    27cc:	05491d05 	strbeq	r1, [r9, #-3333]	; 0xfffff2fb
    27d0:	13310605 	teqne	r1, #5242880	; 0x500000
    27d4:	01060e05 	tsteq	r6, r5, lsl #28
    27d8:	2f060505 	svccs	0x00060505
    27dc:	01061705 	tsteq	r6, r5, lsl #14
    27e0:	2e23054a 	cfsh64cs	mvdx0, mvdx3, #42
    27e4:	30050204 	andcc	r0, r5, r4, lsl #4
    27e8:	00dc0306 	sbcseq	r0, ip, r6, lsl #6
    27ec:	0501042e 	streq	r0, [r1, #-1070]	; 0xfffffbd2
    27f0:	a403060c 	strge	r0, [r3], #-1548	; 0xfffff9f4
    27f4:	0105017f 	tsteq	r5, pc, ror r1
    27f8:	2a10052f 	bcs	403cbc <__bss_end__+0x3f92e4>
    27fc:	02320105 	eorseq	r0, r2, #1073741825	; 0x40000001
    2800:	01010004 	tsteq	r1, r4

Disassembly of section .debug_str:

00000000 <.debug_str>:
   0:	6c616b63 			; <UNDEFINED> instruction: 0x6c616b63
   4:	00636f6c 	rsbeq	r6, r3, ip, ror #30
   8:	5f726468 	svcpl	0x00726468
   c:	656e0074 	strbvs	r0, [lr, #-116]!	; 0xffffff8c
  10:	73007478 	movwvc	r7, #1144	; 0x478
  14:	65746174 	ldrbvs	r6, [r4, #-372]!	; 0xfffffe8c
  18:	63727300 	cmnvs	r2, #0, 6
  1c:	636f6c5f 	cmnvs	pc, #24320	; 0x5f00
  20:	006b6d5f 	rsbeq	r6, fp, pc, asr sp
  24:	656e696c 	strbvs	r6, [lr, #-2412]!	; 0xfffff694
  28:	6d006f6e 	stcvs	15, cr6, [r0, #-440]	; 0xfffffe48
  2c:	006b7261 	rsbeq	r7, fp, r1, ror #4
  30:	6d746f6e 	ldclvs	15, cr6, [r4, #-440]!	; 0xfffffe48
  34:	006e6961 	rsbeq	r6, lr, r1, ror #18
  38:	63656863 	cmnvs	r5, #6488064	; 0x630000
  3c:	6f6e5f6b 	svcvs	0x006e5f6b
  40:	61656c5f 	cmnvs	r5, pc, asr ip
  44:	626e006b 	rsbvs	r0, lr, #107, 0	; 0x6b
  48:	73657479 	cmnvc	r5, #2030043136	; 0x79000000
  4c:	6c6c615f 	stfvse	f6, [ip], #-380	; 0xfffffe84
  50:	6600636f 	strvs	r6, [r0], -pc, ror #6
  54:	00656c69 	rsbeq	r6, r5, r9, ror #24
  58:	69736e75 	ldmdbvs	r3!, {r0, r2, r4, r5, r6, r9, sl, fp, sp, lr}^
  5c:	64656e67 	strbtvs	r6, [r5], #-3687	; 0xfffff199
  60:	61686320 	cmnvs	r8, r0, lsr #6
  64:	6c630072 	stclvs	0, cr0, [r3], #-456	; 0xfffffe38
  68:	5f6e6165 	svcpl	0x006e6165
  6c:	6f626572 	svcvs	0x00626572
  70:	7300746f 	movwvc	r7, #1135	; 0x46f
  74:	74726f68 	ldrbtvc	r6, [r2], #-3944	; 0xfffff098
  78:	736e7520 	cmnvc	lr, #32, 10	; 0x8000000
  7c:	656e6769 	strbvs	r6, [lr, #-1897]!	; 0xfffff897
  80:	6e692064 	cdpvs	0, 6, cr2, cr9, cr4, {3}
  84:	6b630074 	blvs	18c025c <__bss_end__+0x18b5884>
  88:	7264685f 	rsbvc	r6, r4, #6225920	; 0x5f0000
  8c:	6d656d00 	stclvs	13, cr6, [r5, #-0]
  90:	00746573 	rsbseq	r6, r4, r3, ror r5
  94:	636e7566 	cmnvs	lr, #427819008	; 0x19800000
  98:	465f5f00 	ldrbmi	r5, [pc], -r0, lsl #30
  9c:	54434e55 	strbpl	r4, [r3], #-3669	; 0xfffff1ab
  a0:	5f4e4f49 	svcpl	0x004e4f49
  a4:	6c61005f 	stclvs	0, cr0, [r1], #-380	; 0xfffffe84
  a8:	5f636f6c 	svcpl	0x00636f6c
  ac:	7473696c 	ldrbtvc	r6, [r3], #-2412	; 0xfffff694
  b0:	73616c00 	cmnvc	r1, #0, 24
  b4:	6f6e5f74 	svcvs	0x006e5f74
  b8:	74006564 	strvc	r6, [r0], #-1380	; 0xfffffa9c
  bc:	00747365 	rsbseq	r7, r4, r5, ror #6
  c0:	676e6f6c 	strbvs	r6, [lr, -ip, ror #30]!
  c4:	6e6f6c20 	cdpvs	12, 6, cr6, cr15, cr0, {1}
  c8:	6e752067 	cdpvs	0, 7, cr2, cr5, cr7, {3}
  cc:	6e676973 			; <UNDEFINED> instruction: 0x6e676973
  d0:	69206465 	stmdbvs	r0!, {r0, r2, r5, r6, sl, sp, lr}
  d4:	7400746e 	strvc	r7, [r0], #-1134	; 0xfffffb92
  d8:	73747365 	cmnvc	r4, #-1811939327	; 0x94000001
  dc:	7261702f 	rsbvc	r7, r1, #47, 0	; 0x2f
  e0:	742d3274 	strtvc	r3, [sp], #-628	; 0xfffffd8c
  e4:	34747365 	ldrbtcc	r7, [r4], #-869	; 0xfffffc9b
  e8:	6100632e 	tstvs	r0, lr, lsr #6
  ec:	636f6c6c 	cmnvs	pc, #108, 24	; 0x6c00
  f0:	636f6c5f 	cmnvs	pc, #24320	; 0x5f00
  f4:	61656c00 	cmnvs	r5, r0, lsl #24
  f8:	0064656b 	rsbeq	r6, r4, fp, ror #10
  fc:	6573552f 	ldrbvs	r5, [r3, #-1327]!	; 0xfffffad1
 100:	742f7372 	strtvc	r7, [pc], #-882	; 108 <__code_start__-0x7ef8>
 104:	74736972 	ldrbtvc	r6, [r3], #-2418	; 0xfffff68e
 108:	6f6e6e65 	svcvs	0x006e6e65
 10c:	616d6c6c 	cmnvs	sp, ip, ror #24
 110:	6f442f6e 	svcvs	0x00442f6e
 114:	656d7563 	strbvs	r7, [sp, #-1379]!	; 0xfffffa9d
 118:	2f73746e 	svccs	0x0073746e
 11c:	69727053 	ldmdbvs	r2!, {r0, r1, r4, r6, ip, sp, lr}^
 120:	515f676e 	cmppl	pc, lr, ror #14
 124:	74726175 	ldrbtvc	r6, [r2], #-373	; 0xfffffe8b
 128:	325f7265 	subscc	r7, pc, #1342177286	; 0x50000006
 12c:	2f323230 	svccs	0x00323230
 130:	34325343 	ldrtcc	r5, [r2], #-835	; 0xfffffcbd
 134:	2d584c30 	ldclcs	12, cr4, [r8, #-192]	; 0xffffff40
 138:	32727073 	rsbscc	r7, r2, #115, 0	; 0x73
 13c:	616c2f32 	cmnvs	ip, r2, lsr pc
 140:	352f7362 	strcc	r7, [pc, #-866]!	; fffffde6 <__bss_end__+0xffff540e>
 144:	6c616d2d 	stclvs	13, cr6, [r1], #-180	; 0xffffff4c
 148:	2b636f6c 	blcs	18dbf00 <__bss_end__+0x18d1528>
 14c:	632f6367 			; <UNDEFINED> instruction: 0x632f6367
 150:	0065646f 	rsbeq	r6, r5, pc, ror #8
 154:	676e6f6c 	strbvs	r6, [lr, -ip, ror #30]!
 158:	6e6f6c20 	cdpvs	12, 6, cr6, cr15, cr0, {1}
 15c:	6e692067 	cdpvs	0, 6, cr2, cr9, cr7, {3}
 160:	70720074 	rsbsvc	r0, r2, r4, ror r0
 164:	75705f69 	ldrbvc	r5, [r0, #-3945]!	; 0xfffff097
 168:	61686374 	smcvs	34356	; 0x8634
 16c:	68730072 	ldmdavs	r3!, {r1, r4, r5, r6}^
 170:	2074726f 	rsbscs	r7, r4, pc, ror #4
 174:	00746e69 	rsbseq	r6, r4, r9, ror #28
 178:	5f637273 	svcpl	0x00637273
 17c:	5f636f6c 	svcpl	0x00636f6c
 180:	69750074 	ldmdbvs	r5!, {r2, r4, r5, r6}^
 184:	3631746e 	ldrtcc	r7, [r1], -lr, ror #8
 188:	7500745f 	strvc	r7, [r0, #-1119]	; 0xfffffba1
 18c:	33746e69 	cmncc	r4, #1680	; 0x690
 190:	00745f32 	rsbseq	r5, r4, r2, lsr pc
 194:	20554e47 	subscs	r4, r5, r7, asr #28
 198:	20393943 	eorscs	r3, r9, r3, asr #18
 19c:	2e322e39 	mrccs	14, 1, r2, cr2, cr9, {1}
 1a0:	30322031 	eorscc	r2, r2, r1, lsr r0
 1a4:	30313931 	eorscc	r3, r1, r1, lsr r9
 1a8:	28203532 	stmdacs	r0!, {r1, r4, r5, r8, sl, ip, sp}
 1ac:	656c6572 	strbvs	r6, [ip, #-1394]!	; 0xfffffa8e
 1b0:	29657361 	stmdbcs	r5!, {r0, r5, r6, r8, r9, ip, sp, lr}^
 1b4:	52415b20 	subpl	r5, r1, #32, 22	; 0x8000
 1b8:	72612f4d 	rsbvc	r2, r1, #308	; 0x134
 1bc:	2d392d6d 	ldccs	13, cr2, [r9, #-436]!	; 0xfffffe4c
 1c0:	6e617262 	cdpvs	2, 6, cr7, cr1, cr2, {3}
 1c4:	72206863 	eorvc	r6, r0, #6488064	; 0x630000
 1c8:	73697665 	cmnvc	r9, #105906176	; 0x6500000
 1cc:	206e6f69 	rsbcs	r6, lr, r9, ror #30
 1d0:	35373732 	ldrcc	r3, [r7, #-1842]!	; 0xfffff8ce
 1d4:	205d3939 	subscs	r3, sp, r9, lsr r9
 1d8:	70636d2d 	rsbvc	r6, r3, sp, lsr #26
 1dc:	72613d75 	rsbvc	r3, r1, #7488	; 0x1d40
 1e0:	3731316d 	ldrcc	r3, [r1, -sp, ror #2]!
 1e4:	667a6a36 			; <UNDEFINED> instruction: 0x667a6a36
 1e8:	2d20732d 	stccs	3, cr7, [r0, #-180]!	; 0xffffff4c
 1ec:	6e75746d 	cdpvs	4, 7, cr7, cr5, cr13, {3}
 1f0:	72613d65 	rsbvc	r3, r1, #6464	; 0x1940
 1f4:	3731316d 	ldrcc	r3, [r1, -sp, ror #2]!
 1f8:	667a6a36 			; <UNDEFINED> instruction: 0x667a6a36
 1fc:	2d20732d 	stccs	3, cr7, [r0, #-180]!	; 0xffffff4c
 200:	6f6c666d 	svcvs	0x006c666d
 204:	612d7461 			; <UNDEFINED> instruction: 0x612d7461
 208:	733d6962 	teqvc	sp, #1605632	; 0x188000
 20c:	2074666f 	rsbscs	r6, r4, pc, ror #12
 210:	72616d2d 	rsbvc	r6, r1, #2880	; 0xb40
 214:	6d2d206d 	stcvs	0, cr2, [sp, #-436]!	; 0xfffffe4c
 218:	68637261 	stmdavs	r3!, {r0, r5, r6, r9, ip, sp, lr}^
 21c:	6d72613d 	ldfvse	f6, [r2, #-244]!	; 0xffffff0c
 220:	7a6b3676 	bvc	1acdc00 <__bss_end__+0x1ac3228>
 224:	67672d20 	strbvs	r2, [r7, -r0, lsr #26]!
 228:	2d206264 	sfmcs	f6, 4, [r0, #-400]!	; 0xfffffe70
 22c:	2d20674f 	stccs	7, cr6, [r0, #-316]!	; 0xfffffec4
 230:	3d647473 	cfstrdcc	mvd7, [r4, #-460]!	; 0xfffffe34
 234:	39756e67 	ldmdbcc	r5!, {r0, r1, r2, r5, r6, r9, sl, fp, sp, lr}^
 238:	662d2039 			; <UNDEFINED> instruction: 0x662d2039
 23c:	65657266 	strbvs	r7, [r5, #-614]!	; 0xfffffd9a
 240:	6e617473 	mcrvs	4, 3, r7, cr1, cr3, {3}
 244:	676e6964 	strbvs	r6, [lr, -r4, ror #18]!
 248:	66657200 	strbtvs	r7, [r5], -r0, lsl #4
 24c:	74735f73 	ldrbtvc	r5, [r3], #-3955	; 0xfffff08d
 250:	00747261 	rsbseq	r7, r4, r1, ror #4
 254:	76657270 			; <UNDEFINED> instruction: 0x76657270
 258:	66657200 	strbtvs	r7, [r5], -r0, lsl #4
 25c:	696d5f73 	stmdbvs	sp!, {r0, r1, r4, r5, r6, r8, r9, sl, fp, ip, lr}^
 260:	656c6464 	strbvs	r6, [ip, #-1124]!	; 0xfffffb9c
 264:	5f6b6300 	svcpl	0x006b6300
 268:	5f727470 	svcpl	0x00727470
 26c:	625f6e69 	subsvs	r6, pc, #1680	; 0x690
 270:	6b636f6c 	blvs	18dc028 <__bss_end__+0x18d1650>
 274:	65727000 	ldrbvs	r7, [r2, #-0]!
 278:	616c5f76 	smcvs	50678	; 0xc5f6
 27c:	46007473 			; <UNDEFINED> instruction: 0x46007473
 280:	44454552 	strbmi	r4, [r5], #-1362	; 0xfffffaae
 284:	73696c00 	cmnvc	r9, #0, 24
 288:	70615f74 	rsbvc	r5, r1, r4, ror pc
 28c:	646e6570 	strbtvs	r6, [lr], #-1392	; 0xfffffa90
 290:	5f726b00 	svcpl	0x00726b00
 294:	65657266 	strbvs	r7, [r5, #-614]!	; 0xfffffd9a
 298:	5f6b6300 	svcpl	0x006b6300
 29c:	73726966 	cmnvc	r2, #1671168	; 0x198000
 2a0:	64685f74 	strbtvs	r5, [r8], #-3956	; 0xfffff08c
 2a4:	6b630072 	blvs	18c0474 <__bss_end__+0x18b5a9c>
 2a8:	65657266 	strbvs	r7, [r5, #-614]!	; 0xfffffd9a
 2ac:	73696c00 	cmnvc	r9, #0, 24
 2b0:	65725f74 	ldrbvs	r5, [r2, #-3956]!	; 0xfffff08c
 2b4:	65766f6d 	ldrbvs	r6, [r6, #-3949]!	; 0xfffff093
 2b8:	5f6b6300 	svcpl	0x006b6300
 2bc:	5f727470 	svcpl	0x00727470
 2c0:	615f7369 	cmpvs	pc, r9, ror #6
 2c4:	636f6c6c 	cmnvs	pc, #108, 24	; 0x6c00
 2c8:	63006465 	movwvs	r6, #1125	; 0x465
 2cc:	656e5f6b 	strbvs	r5, [lr, #-3947]!	; 0xfffff095
 2d0:	685f7478 	ldmdavs	pc, {r3, r4, r5, r6, sl, ip, sp, lr}^	; <UNPREDICTABLE>
 2d4:	63007264 	movwvs	r7, #612	; 0x264
 2d8:	6c6c616b 	stfvse	f6, [ip], #-428	; 0xfffffe54
 2dc:	632e636f 			; <UNDEFINED> instruction: 0x632e636f
 2e0:	5f726b00 	svcpl	0x00726b00
 2e4:	7478656e 	ldrbtvc	r6, [r8], #-1390	; 0xfffffa92
 2e8:	7264685f 	rsbvc	r6, r4, #6225920	; 0x5f0000
 2ec:	5f726b00 	svcpl	0x00726b00
 2f0:	73726966 	cmnvc	r2, #1671168	; 0x198000
 2f4:	64685f74 	strbtvs	r5, [r8], #-3956	; 0xfffff08c
 2f8:	4c410072 	mcrrmi	0, 7, r0, r1, cr2
 2fc:	45434f4c 	strbmi	r4, [r3, #-3916]	; 0xfffff0b4
 300:	6b630044 	blvs	18c0418 <__bss_end__+0x18b5a40>
 304:	7264685f 	rsbvc	r6, r4, #6225920	; 0x5f0000
 308:	6174735f 	cmnvs	r4, pc, asr r3
 30c:	63007472 	movwvs	r7, #1138	; 0x472
 310:	64685f6b 	strbtvs	r5, [r8], #-3947	; 0xfffff095
 314:	6e655f72 	mcrvs	15, 3, r5, cr5, cr2, {3}
 318:	6b630064 	blvs	18c04b0 <__bss_end__+0x18b5ad8>
 31c:	79626e5f 	stmdbvc	r2!, {r0, r1, r2, r3, r4, r6, r9, sl, fp, sp, lr}^
 320:	00736574 	rsbseq	r6, r3, r4, ror r5
 324:	6d5f726b 	lfmvs	f7, 2, [pc, #-428]	; 180 <__code_start__-0x7e80>
 328:	6f6c6c61 	svcvs	0x006c6c61
 32c:	74730063 	ldrbtvc	r0, [r3], #-99	; 0xffffff9d
 330:	5f6b6361 	svcpl	0x006b6361
 334:	00706f74 	rsbseq	r6, r0, r4, ror pc
 338:	636f6c62 	cmnvs	pc, #25088	; 0x6200
 33c:	74735f6b 	ldrbtvc	r5, [r3], #-3947	; 0xfffff095
 340:	00747261 	rsbseq	r7, r4, r1, ror #4
 344:	6b72616d 	blvs	1c98900 <__bss_end__+0x1c8df28>
 348:	6c6c615f 	stfvse	f6, [ip], #-380	; 0xfffffe84
 34c:	706d6900 	rsbvc	r6, sp, r0, lsl #18
 350:	656d656c 	strbvs	r6, [sp, #-1388]!	; 0xfffffa94
 354:	745f746e 	ldrbvc	r7, [pc], #-1134	; 35c <__code_start__-0x7ca4>
 358:	00736968 	rsbseq	r6, r3, r8, ror #18
 35c:	73625f5f 	cmnvc	r2, #380	; 0x17c
 360:	74735f73 	ldrbtvc	r5, [r3], #-3955	; 0xfffff08d
 364:	5f747261 	svcpl	0x00747261
 368:	756e005f 	strbvc	r0, [lr, #-95]!	; 0xffffffa1
 36c:	6f775f6d 	svcvs	0x00775f6d
 370:	00736472 	rsbseq	r6, r3, r2, ror r4
 374:	6f6c626e 	svcvs	0x006c626e
 378:	00736b63 	rsbseq	r6, r3, r3, ror #22
 37c:	74696e69 	strbtvc	r6, [r9], #-3689	; 0xfffff197
 380:	6e00705f 	mcrvs	0, 0, r7, cr0, cr15, {2}
 384:	65747962 	ldrbvs	r7, [r4, #-2402]!	; 0xfffff69e
 388:	72665f73 	rsbvc	r5, r6, #460	; 0x1cc
 38c:	00646565 	rsbeq	r6, r4, r5, ror #10
 390:	72636e69 	rsbvc	r6, r3, #1680	; 0x690
 394:	6e656d65 	cdpvs	13, 6, cr6, cr5, cr5, {3}
 398:	616d0074 	smcvs	53252	; 0xd004
 39c:	5f656279 	svcpl	0x00656279
 3a0:	6f727265 	svcvs	0x00727265
 3a4:	63007372 	movwvs	r7, #882	; 0x372
 3a8:	63675f6b 	cmnvs	r7, #428	; 0x1ac
 3ac:	6d756400 	cfldrdvs	mvd6, [r5, #-0]
 3b0:	65725f70 	ldrbvs	r5, [r2, #-3952]!	; 0xfffff090
 3b4:	6e007367 	cdpvs	3, 0, cr7, cr0, cr7, {3}
 3b8:	6b61656c 	blvs	1859970 <__bss_end__+0x184ef98>
 3bc:	5f5f0073 	svcpl	0x005f0073
 3c0:	61746164 	cmnvs	r4, r4, ror #2
 3c4:	646e655f 	strbtvs	r6, [lr], #-1375	; 0xfffffaa1
 3c8:	63005f5f 	movwvs	r5, #3935	; 0xf5f
 3cc:	69665f6b 	stmdbvs	r6!, {r0, r1, r3, r5, r6, r8, r9, sl, fp, ip, lr}^
 3d0:	6c5f646e 	cfldrdvs	mvd6, [pc], {110}	; 0x6e
 3d4:	736b6165 	cmnvc	fp, #1073741849	; 0x40000019
 3d8:	72627300 	rsbvc	r7, r2, #0, 6
 3dc:	7369006b 	cmnvc	r9, #107, 0	; 0x6b
 3e0:	7274705f 	rsbsvc	r7, r4, #95, 0	; 0x5f
 3e4:	6f6c6200 	svcvs	0x006c6200
 3e8:	655f6b63 	ldrbvs	r6, [pc, #-2915]	; fffff88d <__bss_end__+0xffff4eb5>
 3ec:	6e00646e 	cdpvs	4, 0, cr6, cr0, cr14, {3}
 3f0:	65657266 	strbvs	r7, [r5, #-614]!	; 0xfffffd9a
 3f4:	75630064 	strbvc	r0, [r3, #-100]!	; 0xffffff9c
 3f8:	775f7272 			; <UNDEFINED> instruction: 0x775f7272
 3fc:	0064726f 	rsbeq	r7, r4, pc, ror #4
 400:	685f6e69 	ldmdavs	pc, {r0, r3, r5, r6, r9, sl, fp, sp, lr}^	; <UNPREDICTABLE>
 404:	00706165 	rsbseq	r6, r0, r5, ror #2
 408:	6d656e6f 	stclvs	14, cr6, [r5, #-444]!	; 0xfffffe44
 40c:	75630062 	strbvc	r0, [r3, #-98]!	; 0xffffff9e
 410:	63007272 	movwvs	r7, #626	; 0x272
 414:	63672d6b 	cmnvs	r7, #6848	; 0x1ac0
 418:	6300632e 	movwvs	r6, #814	; 0x32e
 41c:	6b636568 	blvs	18d99c4 <__bss_end__+0x18cefec>
 420:	6f68735f 	svcvs	0x0068735f
 424:	5f646c75 	svcpl	0x00646c75
 428:	6b61656c 	blvs	18599e0 <__bss_end__+0x184f008>
 42c:	625f5f00 	subsvs	r5, pc, #0, 30
 430:	655f7373 	ldrbvs	r7, [pc, #-883]	; c5 <__code_start__-0x7f3b>
 434:	5f5f646e 	svcpl	0x005f646e
 438:	616d6b00 	cmnvs	sp, r0, lsl #22
 43c:	636f6c6c 	cmnvs	pc, #108, 24	; 0x6c00
 440:	616d6b00 	cmnvs	sp, r0, lsl #22
 444:	636f6c6c 	cmnvs	pc, #108, 24	; 0x6c00
 448:	696e695f 	stmdbvs	lr!, {r0, r1, r2, r3, r4, r6, r8, fp, sp, lr}^
 44c:	65735f74 	ldrbvs	r5, [r3, #-3956]!	; 0xfffff08c
 450:	74735f74 	ldrbtvc	r5, [r3], #-3956	; 0xfffff08c
 454:	00747261 	rsbseq	r7, r4, r1, ror #4
 458:	65657773 	strbvs	r7, [r5, #-1907]!	; 0xfffff88d
 45c:	656c5f70 	strbvs	r5, [ip, #-3952]!	; 0xfffff090
 460:	5f006b61 	svcpl	0x00006b61
 464:	7461645f 	strbtvc	r6, [r1], #-1119	; 0xfffffba1
 468:	74735f61 	ldrbtvc	r5, [r3], #-3937	; 0xfffff09f
 46c:	5f747261 	svcpl	0x00747261
 470:	7773005f 			; <UNDEFINED> instruction: 0x7773005f
 474:	5f706565 	svcpl	0x00706565
 478:	65657266 	strbvs	r7, [r5, #-614]!	; 0xfffffd9a
 47c:	72617700 	rsbvc	r7, r1, #0, 14
 480:	6f6e5f6e 	svcvs	0x006e5f6e
 484:	6174735f 	cmnvs	r4, pc, asr r3
 488:	725f7472 	subsvc	r7, pc, #1912602624	; 0x72000000
 48c:	705f6665 	subsvc	r6, pc, r5, ror #12
 490:	61656800 	cmnvs	r5, r0, lsl #16
 494:	00726564 	rsbseq	r6, r2, r4, ror #10
 498:	76657270 			; <UNDEFINED> instruction: 0x76657270
 49c:	6c610070 	stclvs	0, cr0, [r1], #-448	; 0xfffffe40
 4a0:	006e6769 	rsbeq	r6, lr, r9, ror #14
 4a4:	65657266 	strbvs	r7, [r5, #-614]!	; 0xfffffd9a
 4a8:	756e0070 	strbvc	r0, [lr, #-112]!	; 0xffffff90
 4ac:	7374696e 	cmnvc	r4, #1802240	; 0x1b8000
 4b0:	2d726b00 	vldmdbcs	r2!, {d22-d21}
 4b4:	6c6c616d 	stfvse	f6, [ip], #-436	; 0xfffffe4c
 4b8:	632e636f 			; <UNDEFINED> instruction: 0x632e636f
 4bc:	756f6400 	strbvc	r6, [pc, #-1024]!	; c4 <__code_start__-0x7f3c>
 4c0:	00656c62 	rsbeq	r6, r5, r2, ror #24
 4c4:	65736162 	ldrbvs	r6, [r3, #-354]!	; 0xfffffe9e
 4c8:	5f726b00 	svcpl	0x00726b00
 4cc:	65726f6d 	ldrbvs	r6, [r2, #-3949]!	; 0xfffff093
 4d0:	65726f63 	ldrbvs	r6, [r2, #-3939]!	; 0xfffff09d
 4d4:	7a697300 	bvc	1a5d0dc <__bss_end__+0x1a52704>
 4d8:	65480065 	strbvs	r0, [r8, #-101]	; 0xffffff9b
 4dc:	72656461 	rsbvc	r6, r5, #1627389952	; 0x61000000
 4e0:	554e4700 	strbpl	r4, [lr, #-1792]	; 0xfffff900
 4e4:	39394320 	ldmdbcc	r9!, {r5, r8, r9, lr}
 4e8:	322e3920 	eorcc	r3, lr, #32, 18	; 0x80000
 4ec:	3220312e 	eorcc	r3, r0, #-2147483637	; 0x8000000b
 4f0:	31393130 	teqcc	r9, r0, lsr r1
 4f4:	20353230 	eorscs	r3, r5, r0, lsr r2
 4f8:	6c657228 	sfmvs	f7, 2, [r5], #-160	; 0xffffff60
 4fc:	65736165 	ldrbvs	r6, [r3, #-357]!	; 0xfffffe9b
 500:	415b2029 	cmpmi	fp, r9, lsr #32
 504:	612f4d52 			; <UNDEFINED> instruction: 0x612f4d52
 508:	392d6d72 	pushcc	{r1, r4, r5, r6, r8, sl, fp, sp, lr}
 50c:	6172622d 	cmnvs	r2, sp, lsr #4
 510:	2068636e 	rsbcs	r6, r8, lr, ror #6
 514:	69766572 	ldmdbvs	r6!, {r1, r4, r5, r6, r8, sl, sp, lr}^
 518:	6e6f6973 			; <UNDEFINED> instruction: 0x6e6f6973
 51c:	37373220 	ldrcc	r3, [r7, -r0, lsr #4]!
 520:	5d393935 			; <UNDEFINED> instruction: 0x5d393935
 524:	636d2d20 	cmnvs	sp, #32, 26	; 0x800
 528:	613d7570 	teqvs	sp, r0, ror r5
 52c:	31316d72 	teqcc	r1, r2, ror sp
 530:	7a6a3637 	bvc	1a8de14 <__bss_end__+0x1a8343c>
 534:	20732d66 	rsbscs	r2, r3, r6, ror #26
 538:	75746d2d 	ldrbvc	r6, [r4, #-3373]!	; 0xfffff2d3
 53c:	613d656e 	teqvs	sp, lr, ror #10
 540:	31316d72 	teqcc	r1, r2, ror sp
 544:	7a6a3637 	bvc	1a8de28 <__bss_end__+0x1a83450>
 548:	20732d66 	rsbscs	r2, r3, r6, ror #26
 54c:	6c666d2d 	stclvs	13, cr6, [r6], #-180	; 0xffffff4c
 550:	2d74616f 	ldfcse	f6, [r4, #-444]!	; 0xfffffe44
 554:	3d696261 	sfmcc	f6, 2, [r9, #-388]!	; 0xfffffe7c
 558:	74666f73 	strbtvc	r6, [r6], #-3955	; 0xfffff08d
 55c:	616d2d20 	cmnvs	sp, r0, lsr #26
 560:	2d206d72 	stccs	13, cr6, [r0, #-456]!	; 0xfffffe38
 564:	6372616d 	cmnvs	r2, #1073741851	; 0x4000001b
 568:	72613d68 	rsbvc	r3, r1, #104, 26	; 0x1a00
 56c:	6b36766d 	blvs	d9df28 <__bss_end__+0xd93550>
 570:	672d207a 			; <UNDEFINED> instruction: 0x672d207a
 574:	20626467 	rsbcs	r6, r2, r7, ror #8
 578:	6467672d 	strbtvs	r6, [r7], #-1837	; 0xfffff8d3
 57c:	4f2d2062 	svcmi	0x002d2062
 580:	4f2d2067 	svcmi	0x002d2067
 584:	732d2067 			; <UNDEFINED> instruction: 0x732d2067
 588:	673d6474 			; <UNDEFINED> instruction: 0x673d6474
 58c:	3939756e 	ldmdbcc	r9!, {r1, r2, r3, r5, r6, r8, sl, ip, sp, lr}
 590:	74732d20 	ldrbtvc	r2, [r3], #-3360	; 0xfffff2e0
 594:	6e673d64 	cdpvs	13, 6, cr3, cr7, cr4, {3}
 598:	20393975 	eorscs	r3, r9, r5, ror r9
 59c:	7266662d 	rsbvc	r6, r6, #47185920	; 0x2d00000
 5a0:	74736565 	ldrbtvc	r6, [r3], #-1381	; 0xfffffa9b
 5a4:	69646e61 	stmdbvs	r4!, {r0, r5, r6, r9, sl, fp, sp, lr}^
 5a8:	7300676e 	movwvc	r6, #1902	; 0x76e
 5ac:	5f657a69 	svcpl	0x00657a69
 5b0:	2f2e0074 	svccs	0x002e0074
 5b4:	6362696c 	cmnvs	r2, #108, 18	; 0x1b0000
 5b8:	6d656d2f 	stclvs	13, cr6, [r5, #-188]!	; 0xffffff44
 5bc:	2e746573 	mrccs	5, 3, r6, cr4, cr3, {3}
 5c0:	552f0063 	strpl	r0, [pc, #-99]!	; 565 <__code_start__-0x7a9b>
 5c4:	73726573 	cmnvc	r2, #482344960	; 0x1cc00000
 5c8:	6972742f 	ldmdbvs	r2!, {r0, r1, r2, r3, r5, sl, ip, sp, lr}^
 5cc:	6e657473 	mcrvs	4, 3, r7, cr5, cr3, {3}
 5d0:	6c6c6f6e 	stclvs	15, cr6, [ip], #-440	; 0xfffffe48
 5d4:	2f6e616d 	svccs	0x006e616d
 5d8:	75636f44 	strbvc	r6, [r3, #-3908]!	; 0xfffff0bc
 5dc:	746e656d 	strbtvc	r6, [lr], #-1389	; 0xfffffa93
 5e0:	70532f73 	subsvc	r2, r3, r3, ror pc
 5e4:	676e6972 			; <UNDEFINED> instruction: 0x676e6972
 5e8:	6175515f 	cmnvs	r5, pc, asr r1
 5ec:	72657472 	rsbvc	r7, r5, #1912602624	; 0x72000000
 5f0:	3230325f 	eorscc	r3, r0, #-268435451	; 0xf0000005
 5f4:	53432f32 	movtpl	r2, #16178	; 0x3f32
 5f8:	4c303432 	cfldrsmi	mvf3, [r0], #-200	; 0xffffff38
 5fc:	70732d58 	rsbsvc	r2, r3, r8, asr sp
 600:	2f323272 	svccs	0x00323272
 604:	7062696c 	rsbvc	r6, r2, ip, ror #18
 608:	72610069 	rsbvc	r0, r1, #105, 0	; 0x69
 60c:	76007367 	strvc	r7, [r0], -r7, ror #6
 610:	72705f61 	rsbsvc	r5, r0, #388	; 0x184
 614:	6b746e69 	blvs	1d1bfc0 <__bss_end__+0x1d115e8>
 618:	675f5f00 	ldrbvs	r5, [pc, -r0, lsl #30]
 61c:	5f63756e 	svcpl	0x0063756e
 620:	6c5f6176 	ldfvse	f6, [pc], {118}	; 0x76
 624:	00747369 	rsbseq	r7, r4, r9, ror #6
 628:	61765f5f 	cmnvs	r6, pc, asr pc
 62c:	73696c5f 	cmnvc	r9, #24320	; 0x5f00
 630:	5f5f0074 	svcpl	0x005f0074
 634:	2e007061 	cdpcs	0, 0, cr7, cr0, cr1, {3}
 638:	62696c2f 	rsbvs	r6, r9, #12032	; 0x2f00
 63c:	72702f63 	rsbsvc	r2, r0, #396	; 0x18c
 640:	6b746e69 	blvs	1d1bfec <__bss_end__+0x1d11614>
 644:	6900632e 	stmdbvs	r0, {r1, r2, r3, r5, r8, r9, sp, lr}
 648:	7265746e 	rsbvc	r7, r5, #1845493760	; 0x6e000000
 64c:	5f6c616e 	svcpl	0x006c616e
 650:	6b747570 	blvs	1d1dc18 <__bss_end__+0x1d13240>
 654:	6c2f2e00 	stcvs	14, cr2, [pc], #-0	; 65c <__code_start__-0x79a4>
 658:	2f636269 	svccs	0x00636269
 65c:	6b747570 	blvs	1d1dc24 <__bss_end__+0x1d1324c>
 660:	6900632e 	stmdbvs	r0, {r1, r2, r3, r5, r8, r9, sp, lr}
 664:	67696473 			; <UNDEFINED> instruction: 0x67696473
 668:	75007469 	strvc	r7, [r0, #-1129]	; 0xfffffb97
 66c:	36746e69 	ldrbtcc	r6, [r4], -r9, ror #28
 670:	00745f34 	rsbseq	r5, r4, r4, lsr pc
 674:	696c2f2e 	stmdbvs	ip!, {r1, r2, r3, r5, r8, r9, sl, fp, sp}^
 678:	762f6362 	strtvc	r6, [pc], -r2, ror #6
 67c:	72702d61 	rsbsvc	r2, r0, #6208	; 0x1840
 680:	6b746e69 	blvs	1d1c02c <__bss_end__+0x1d11654>
 684:	5f00632e 	svcpl	0x0000632e
 688:	646f635f 	strbtvs	r6, [pc], #-863	; 690 <__code_start__-0x7970>
 68c:	74735f65 	ldrbtvc	r5, [r3], #-3941	; 0xfffff09b
 690:	5f747261 	svcpl	0x00747261
 694:	6977005f 	ldmdbvs	r7!, {r0, r1, r2, r3, r4, r6}^
 698:	00687464 	rsbeq	r7, r8, r4, ror #8
 69c:	63747570 	cmnvs	r4, #112, 10	; 0x1c000000
 6a0:	0070665f 	rsbseq	r6, r0, pc, asr r6
 6a4:	65685f5f 	strbvs	r5, [r8, #-3935]!	; 0xfffff0a1
 6a8:	735f7061 	cmpvc	pc, #97, 0	; 0x61
 6ac:	74726174 	ldrbtvc	r6, [r2], #-372	; 0xfffffe8c
 6b0:	72005f5f 	andvc	r5, r0, #380	; 0x17c
 6b4:	735f6970 	cmpvc	pc, #112, 18	; 0x1c0000
 6b8:	6f5f7465 	svcvs	0x005f7465
 6bc:	75707475 	ldrbvc	r7, [r0, #-1141]!	; 0xfffffb8b
 6c0:	6d660074 	stclvs	0, cr0, [r6, #-464]!	; 0xfffffe30
 6c4:	74735f74 	ldrbtvc	r5, [r3], #-3956	; 0xfffff08c
 6c8:	00747261 	rsbseq	r7, r4, r1, ror #4
 6cc:	63727473 	cmnvs	r2, #1929379840	; 0x73000000
 6d0:	6e007970 			; <UNDEFINED> instruction: 0x6e007970
 6d4:	705f6765 	subsvc	r6, pc, r5, ror #14
 6d8:	635f5f00 	cmpvs	pc, #0, 30
 6dc:	5f65646f 	svcpl	0x0065646f
 6e0:	5f646e65 	svcpl	0x00646e65
 6e4:	6d65005f 	stclvs	0, cr0, [r5, #-380]!	; 0xfffffe84
 6e8:	70007469 	andvc	r7, r0, r9, ror #8
 6ec:	5f737475 	svcpl	0x00737475
 6f0:	72007066 	andvc	r7, r0, #102, 0	; 0x66
 6f4:	72657665 	rsbvc	r7, r5, #105906176	; 0x6500000
 6f8:	73006573 	movwvc	r6, #1395	; 0x573
 6fc:	61637274 	smcvs	14116	; 0x3724
 700:	74730074 	ldrbtvc	r0, [r3], #-116	; 0xffffff8c
 704:	706d6372 	rsbvc	r6, sp, r2, ror r3
 708:	705f5f00 	subsvc	r5, pc, r0, lsl #30
 70c:	5f676f72 	svcpl	0x00676f72
 710:	5f646e65 	svcpl	0x00646e65
 714:	756e005f 	strbvc	r0, [lr, #-95]!	; 0xffffffa1
 718:	7300316d 	movwvc	r3, #365	; 0x16d
 71c:	636e7274 	cmnvs	lr, #116, 4	; 0x40000007
 720:	7300706d 	movwvc	r7, #109	; 0x6d
 724:	656e6769 	strbvs	r6, [lr, #-1897]!	; 0xfffff897
 728:	00705f64 	rsbseq	r5, r0, r4, ror #30
 72c:	5f697072 	svcpl	0x00697072
 730:	6f626572 	svcvs	0x00626572
 734:	6400746f 	strvs	r7, [r0], #-1135	; 0xfffffb91
 738:	79616c65 	stmdbvc	r1!, {r0, r2, r5, r6, sl, fp, sp, lr}^
 73c:	00736d5f 	rsbseq	r6, r3, pc, asr sp
 740:	74732f2e 	ldrbtvc	r2, [r3], #-3886	; 0xfffff0d2
 744:	2d666661 	stclcs	6, cr6, [r6, #-388]!	; 0xfffffe7c
 748:	2f637273 	svccs	0x00637273
 74c:	61656c63 	cmnvs	r5, r3, ror #24
 750:	65722d6e 	ldrbvs	r2, [r2, #-3438]!	; 0xfffff292
 754:	746f6f62 	strbtvc	r6, [pc], #-3938	; 75c <__code_start__-0x78a4>
 758:	7500632e 	strvc	r6, [r0, #-814]	; 0xfffffcd2
 75c:	5f747261 	svcpl	0x00747261
 760:	73756c66 	cmnvc	r5, #26112	; 0x6600
 764:	78745f68 	ldmdavc	r4!, {r3, r5, r6, r8, r9, sl, fp, ip, lr}^
 768:	73635f00 	cmnvc	r3, #0, 30
 76c:	74726174 	ldrbtvc	r6, [r2], #-372	; 0xfffffe8c
 770:	73736200 	cmnvc	r3, #0, 4
 774:	646e655f 	strbtvs	r6, [lr], #-1375	; 0xfffffaa1
 778:	72617500 	rsbvc	r7, r1, #0, 10
 77c:	6e695f74 	mcrvs	15, 3, r5, cr9, cr4, {3}
 780:	63007469 	movwvs	r7, #1129	; 0x469
 784:	6f747375 	svcvs	0x00747375
 788:	6f6c5f6d 	svcvs	0x006c5f6d
 78c:	72656461 	rsbvc	r6, r5, #1627389952	; 0x61000000
 790:	732f2e00 			; <UNDEFINED> instruction: 0x732f2e00
 794:	66666174 			; <UNDEFINED> instruction: 0x66666174
 798:	6372732d 	cmnvs	r2, #-1275068416	; 0xb4000000
 79c:	7473632f 	ldrbtvc	r6, [r3], #-815	; 0xfffffcd1
 7a0:	2e747261 	cdpcs	2, 7, cr7, cr4, cr1, {3}
 7a4:	2f2e0063 	svccs	0x002e0063
 7a8:	66617473 			; <UNDEFINED> instruction: 0x66617473
 7ac:	72732d66 	rsbsvc	r2, r3, #6528	; 0x1980
 7b0:	75632f63 	strbvc	r2, [r3, #-3939]!	; 0xfffff09d
 7b4:	6d6f7473 	cfstrdvs	mvd7, [pc, #-460]!	; 5f0 <__code_start__-0x7a10>
 7b8:	616f6c2d 	cmnvs	pc, sp, lsr #24
 7bc:	2e726564 	cdpcs	5, 7, cr6, cr2, cr4, {3}
 7c0:	65720063 	ldrbvs	r0, [r2, #-99]!	; 0xffffff9d
 7c4:	746f6f62 	strbtvc	r6, [pc], #-3938	; 7cc <__code_start__-0x7834>
 7c8:	6c61635f 	stclvs	3, cr6, [r1], #-380	; 0xfffffe84
 7cc:	74756f6c 	ldrbtvc	r6, [r5], #-3948	; 0xfffff094
 7d0:	5f4d5000 	svcpl	0x004d5000
 7d4:	474f4457 	smlsldmi	r4, pc, r7, r4	; <UNPREDICTABLE>
 7d8:	54555000 	ldrbpl	r5, [r5], #-0
 7dc:	73003233 	movwvc	r3, #563	; 0x233
 7e0:	755f7465 	ldrbvc	r7, [pc, #-1125]	; 383 <__code_start__-0x7c7d>
 7e4:	5f726573 	svcpl	0x00726573
 7e8:	6576656c 	ldrbvs	r6, [r6, #-1388]!	; 0xfffffa94
 7ec:	2f2e006c 	svccs	0x002e006c
 7f0:	66617473 			; <UNDEFINED> instruction: 0x66617473
 7f4:	72732d66 	rsbsvc	r2, r3, #6528	; 0x1980
 7f8:	65722f63 	ldrbvs	r2, [r2, #-3939]!	; 0xfffff09d
 7fc:	746f6f62 	strbtvc	r6, [pc], #-3938	; 804 <__code_start__-0x77fc>
 800:	5000632e 	andpl	r6, r0, lr, lsr #6
 804:	41505f4d 	cmpmi	r0, sp, asr #30
 808:	4f575353 	svcmi	0x00575353
 80c:	61004452 	tstvs	r0, r2, asr r4
 810:	73755f74 	cmnvc	r5, #116, 30	; 0x1d0
 814:	6c5f7265 	lfmvs	f7, 2, [pc], {101}	; 0x65
 818:	6c657665 	stclvs	6, cr7, [r5], #-404	; 0xfffffe6c
 81c:	5f4d5000 	svcpl	0x004d5000
 820:	43545352 	cmpmi	r4, #1207959553	; 0x48000001
 824:	4352575f 	cmpmi	r2, #24903680	; 0x17c0000
 828:	465f4746 	ldrbmi	r4, [pc], -r6, asr #14
 82c:	5f4c4c55 	svcpl	0x004c4c55
 830:	45534552 	ldrbmi	r4, [r3, #-1362]	; 0xfffffaae
 834:	4d500054 	ldclmi	0, cr0, [r0, #-336]	; 0xfffffeb0
 838:	5453525f 	ldrbpl	r5, [r3], #-607	; 0xfffffda1
 83c:	70630043 	rsbvc	r0, r3, r3, asr #32
 840:	64007273 	strvs	r7, [r0], #-627	; 0xfffffd8d
 844:	625f7665 	subsvs	r7, pc, #105906176	; 0x6500000
 848:	69727261 	ldmdbvs	r2!, {r0, r5, r6, r9, ip, sp, lr}^
 84c:	64007265 	strvs	r7, [r0], #-613	; 0xfffffd9b
 850:	79616c65 	stmdbvc	r1!, {r0, r2, r5, r6, sl, fp, sp, lr}^
 854:	6365735f 	cmnvs	r5, #2080374785	; 0x7c000001
 858:	732f2e00 			; <UNDEFINED> instruction: 0x732f2e00
 85c:	66666174 			; <UNDEFINED> instruction: 0x66666174
 860:	6372732d 	cmnvs	r2, #-1275068416	; 0xb4000000
 864:	6d69742f 	cfstrdvs	mvd7, [r9, #-188]!	; 0xffffff44
 868:	632e7265 			; <UNDEFINED> instruction: 0x632e7265
 86c:	54454700 	strbpl	r4, [r5], #-1792	; 0xfffff900
 870:	74003233 	strvc	r3, [r0], #-563	; 0xfffffdcd
 874:	72656d69 	rsbvc	r6, r5, #6720	; 0x1a40
 878:	7465675f 	strbtvc	r6, [r5], #-1887	; 0xfffff8a1
 87c:	6573755f 	ldrbvs	r7, [r3, #-1375]!	; 0xfffffaa1
 880:	65640063 	strbvs	r0, [r4, #-99]!	; 0xffffff9d
 884:	5f79616c 	svcpl	0x0079616c
 888:	74007375 	strvc	r7, [r0], #-885	; 0xfffffc8b
 88c:	72656d69 	rsbvc	r6, r5, #6720	; 0x1a40
 890:	7465675f 	strbtvc	r6, [r5], #-1887	; 0xfffff8a1
 894:	6573755f 	ldrbvs	r7, [r3, #-1375]!	; 0xfffffaa1
 898:	61725f63 	cmnvs	r2, r3, ror #30
 89c:	75700077 	ldrbvc	r0, [r0, #-119]!	; 0xffffff89
 8a0:	00323374 	eorseq	r3, r2, r4, ror r3
 8a4:	64756162 	ldrbtvs	r6, [r5], #-354	; 0xfffffe9e
 8a8:	6c61765f 	stclvs	6, cr7, [r1], #-380	; 0xfffffe84
 8ac:	61747300 	cmnvs	r4, r0, lsl #6
 8b0:	61750074 	cmnvs	r5, r4, ror r0
 8b4:	635f7472 	cmpvs	pc, #1912602624	; 0x72000000
 8b8:	675f6e61 	ldrbvs	r6, [pc, -r1, ror #28]
 8bc:	00637465 	rsbeq	r7, r3, r5, ror #8
 8c0:	4f495047 	svcmi	0x00495047
 8c4:	4e55465f 	mrcmi	6, 2, r4, cr5, cr15, {2}
 8c8:	554f5f43 	strbpl	r5, [pc, #-3907]	; fffff98d <__bss_end__+0xffff4fb5>
 8cc:	54555054 	ldrbpl	r5, [r5], #-84	; 0xffffffac
 8d0:	78756100 	ldmdavc	r5!, {r8, sp, lr}^
 8d4:	7265705f 	rsbvc	r7, r5, #95, 0	; 0x5f
 8d8:	73687069 	cmnvc	r8, #105, 0	; 0x69
 8dc:	72617500 	rsbvc	r7, r1, #0, 10
 8e0:	00632e74 	rsbeq	r2, r3, r4, ror lr
 8e4:	74726175 	ldrbtvc	r6, [r2], #-373	; 0xfffffe8b
 8e8:	6e61635f 	mcrvs	3, 3, r6, cr1, cr15, {2}
 8ec:	7475705f 	ldrbtvc	r7, [r5], #-95	; 0xffffffa1
 8f0:	61750063 	cmnvs	r5, r3, rrx
 8f4:	745f7472 	ldrbvc	r7, [pc], #-1138	; 8fc <__code_start__-0x7704>
 8f8:	73695f78 	cmnvc	r9, #120, 30	; 0x1e0
 8fc:	706d655f 	rsbvc	r6, sp, pc, asr r5
 900:	47007974 	smlsdxmi	r0, r4, r9, r7
 904:	5f4f4950 	svcpl	0x004f4950
 908:	434e5546 	movtmi	r5, #58694	; 0xe546
 90c:	544c415f 	strbpl	r4, [ip], #-351	; 0xfffffea1
 910:	50470030 	subpl	r0, r7, r0, lsr r0
 914:	465f4f49 	ldrbmi	r4, [pc], -r9, asr #30
 918:	5f434e55 	svcpl	0x00434e55
 91c:	31544c41 	cmpcc	r4, r1, asr #24
 920:	49504700 	ldmdbmi	r0, {r8, r9, sl, lr}^
 924:	55465f4f 	strbpl	r5, [r6, #-3919]	; 0xfffff0b1
 928:	415f434e 	cmpmi	pc, lr, asr #6
 92c:	0032544c 	eorseq	r5, r2, ip, asr #8
 930:	4f495047 	svcmi	0x00495047
 934:	4e55465f 	mrcmi	6, 2, r4, cr5, cr15, {2}
 938:	4c415f43 	mcrrmi	15, 4, r5, r1, cr3
 93c:	47003354 	smlsdmi	r0, r4, r3, r3
 940:	5f4f4950 	svcpl	0x004f4950
 944:	434e5546 	movtmi	r5, #58694	; 0xe546
 948:	544c415f 	strbpl	r4, [ip], #-351	; 0xfffffea1
 94c:	682f0035 	stmdavs	pc!, {r0, r2, r4, r5}	; <UNPREDICTABLE>
 950:	2f656d6f 	svccs	0x00656d6f
 954:	6c676e65 	stclvs	14, cr6, [r7], #-404	; 0xfffffe6c
 958:	632f7265 			; <UNDEFINED> instruction: 0x632f7265
 95c:	7373616c 	cmnvc	r3, #27
 960:	3273632f 	rsbscc	r6, r3, #-1140850688	; 0xbc000000
 964:	786c3034 	stmdavc	ip!, {r2, r4, r5, ip, sp}^
 968:	7332322d 	teqvc	r2, #-805306366	; 0xd0000002
 96c:	6c2f7270 	sfmvs	f7, 4, [pc], #-448	; 7b4 <__code_start__-0x784c>
 970:	69706269 	ldmdbvs	r0!, {r0, r3, r5, r6, r9, sp, lr}^
 974:	6174732f 	cmnvs	r4, pc, lsr #6
 978:	702d6666 	eorvc	r6, sp, r6, ror #12
 97c:	61766972 	cmnvs	r6, r2, ror r9
 980:	62006574 	andvs	r6, r0, #116, 10	; 0x1d000000
 984:	00647561 	rsbeq	r7, r4, r1, ror #10
 988:	5f787561 	svcpl	0x00787561
 98c:	62616e65 	rsbvs	r6, r1, #1616	; 0x650
 990:	0073656c 	rsbseq	r6, r3, ip, ror #10
 994:	74726175 	ldrbtvc	r6, [r2], #-373	; 0xfffffe8b
 998:	7465675f 	strbtvc	r6, [r5], #-1887	; 0xfffff8a1
 99c:	4e470063 	cdpmi	0, 4, cr0, cr7, cr3, {3}
 9a0:	39432055 	stmdbcc	r3, {r0, r2, r4, r6, sp}^
 9a4:	30312039 	eorscc	r2, r1, r9, lsr r0
 9a8:	312e332e 			; <UNDEFINED> instruction: 0x312e332e
 9ac:	32303220 	eorscc	r3, r0, #32, 4
 9b0:	32383031 	eorscc	r3, r8, #49, 0	; 0x31
 9b4:	72282034 	eorvc	r2, r8, #52, 0	; 0x34
 9b8:	61656c65 	cmnvs	r5, r5, ror #24
 9bc:	20296573 	eorcs	r6, r9, r3, ror r5
 9c0:	70636d2d 	rsbvc	r6, r3, sp, lsr #26
 9c4:	72613d75 	rsbvc	r3, r1, #7488	; 0x1d40
 9c8:	3731316d 	ldrcc	r3, [r1, -sp, ror #2]!
 9cc:	667a6a36 			; <UNDEFINED> instruction: 0x667a6a36
 9d0:	2d20732d 	stccs	3, cr7, [r0, #-180]!	; 0xffffff4c
 9d4:	6e75746d 	cdpvs	4, 7, cr7, cr5, cr13, {3}
 9d8:	72613d65 	rsbvc	r3, r1, #6464	; 0x1940
 9dc:	3731316d 	ldrcc	r3, [r1, -sp, ror #2]!
 9e0:	667a6a36 			; <UNDEFINED> instruction: 0x667a6a36
 9e4:	2d20732d 	stccs	3, cr7, [r0, #-180]!	; 0xffffff4c
 9e8:	6f6c666d 	svcvs	0x006c666d
 9ec:	612d7461 			; <UNDEFINED> instruction: 0x612d7461
 9f0:	733d6962 	teqvc	sp, #1605632	; 0x188000
 9f4:	2074666f 	rsbscs	r6, r4, pc, ror #12
 9f8:	72616d2d 	rsbvc	r6, r1, #2880	; 0xb40
 9fc:	6d2d206d 	stcvs	0, cr2, [sp, #-436]!	; 0xfffffe4c
 a00:	68637261 	stmdavs	r3!, {r0, r5, r6, r9, ip, sp, lr}^
 a04:	6d72613d 	ldfvse	f6, [r2, #-244]!	; 0xffffff0c
 a08:	7a6b3676 	bvc	1ace3e8 <__bss_end__+0x1ac3a10>
 a0c:	67672d20 	strbvs	r2, [r7, -r0, lsr #26]!
 a10:	2d206264 	sfmcs	f6, 4, [r0, #-400]!	; 0xfffffe70
 a14:	2d20674f 	stccs	7, cr6, [r0, #-316]!	; 0xfffffec4
 a18:	3d647473 	cfstrdcc	mvd7, [r4, #-460]!	; 0xfffffe34
 a1c:	39756e67 	ldmdbcc	r5!, {r0, r1, r2, r5, r6, r9, sl, fp, sp, lr}^
 a20:	662d2039 			; <UNDEFINED> instruction: 0x662d2039
 a24:	65657266 	strbvs	r7, [r5, #-614]!	; 0xfffffd9a
 a28:	6e617473 	mcrvs	4, 3, r7, cr1, cr3, {3}
 a2c:	676e6964 	strbvs	r6, [lr, -r4, ror #18]!
 a30:	746e6300 	strbtvc	r6, [lr], #-768	; 0xfffffd00
 a34:	6175006c 	cmnvs	r5, ip, rrx
 a38:	645f7472 	ldrbvs	r7, [pc], #-1138	; a40 <__code_start__-0x75c0>
 a3c:	62617369 	rsbvs	r7, r1, #-1543503871	; 0xa4000001
 a40:	7500656c 	strvc	r6, [r0, #-1388]	; 0xfffffa94
 a44:	5f747261 	svcpl	0x00747261
 a48:	5f736168 	svcpl	0x00736168
 a4c:	61746164 	cmnvs	r4, r4, ror #2
 a50:	49504700 	ldmdbmi	r0, {r8, r9, sl, lr}^
 a54:	55465f4f 	strbpl	r5, [r6, #-3919]	; 0xfffff0b1
 a58:	415f434e 	cmpmi	pc, lr, asr #6
 a5c:	0034544c 	eorseq	r5, r4, ip, asr #8
 a60:	695f726f 	ldmdbvs	pc, {r0, r1, r2, r3, r5, r6, r9, ip, sp, lr}^	; <UNPREDICTABLE>
 a64:	0032336e 	eorseq	r3, r2, lr, ror #6
 a68:	61726373 	cmnvs	r2, r3, ror r3
 a6c:	00686374 	rsbeq	r6, r8, r4, ror r3
 a70:	74726175 	ldrbtvc	r6, [r2], #-373	; 0xfffffe8b
 a74:	646e6100 	strbtvs	r6, [lr], #-256	; 0xffffff00
 a78:	336e695f 	cmncc	lr, #1556480	; 0x17c000
 a7c:	61750032 	cmnvs	r5, r2, lsr r0
 a80:	705f7472 	subsvc	r7, pc, r2, ror r4	; <UNPREDICTABLE>
 a84:	00637475 	rsbeq	r7, r3, r5, ror r4
 a88:	4f495047 	svcmi	0x00495047
 a8c:	4e55465f 	mrcmi	6, 2, r4, cr5, cr15, {2}
 a90:	4e495f43 	cdpmi	15, 4, cr5, cr9, cr3, {2}
 a94:	00545550 	subseq	r5, r4, r0, asr r5
 a98:	6f697067 	svcvs	0x00697067
 a9c:	7465735f 	strbtvc	r7, [r5], #-863	; 0xfffffca1
 aa0:	6e75665f 	mrcvs	6, 3, r6, cr5, cr15, {2}
 aa4:	6f697463 	svcvs	0x00697463
 aa8:	6567006e 	strbvs	r0, [r7, #-110]!	; 0xffffff92
 aac:	00323374 	eorseq	r3, r2, r4, ror r3
 ab0:	6c616d6b 	stclvs	13, cr6, [r1], #-428	; 0xfffffe54
 ab4:	5f636f6c 	svcpl	0x00636f6c
 ab8:	70616568 	rsbvc	r6, r1, r8, ror #10
 abc:	6174735f 	cmnvs	r4, pc, asr r3
 ac0:	6d007472 	cfstrsvs	mvf7, [r0, #-456]	; 0xfffffe38
 ac4:	6e5f7861 	cdpvs	8, 5, cr7, cr15, cr1, {3}
 ac8:	65747962 	ldrbvs	r7, [r4, #-2402]!	; 0xfffff69e
 acc:	615f0073 	cmpvs	pc, r3, ror r0	; <UNPREDICTABLE>
 ad0:	00726464 	rsbseq	r6, r2, r4, ror #8
 ad4:	70616568 	rsbvc	r6, r1, r8, ror #10
 ad8:	78616d5f 	stmdavc	r1!, {r0, r1, r2, r3, r4, r6, r8, sl, fp, sp, lr}^
 adc:	72666b00 	rsbvc	r6, r6, #0, 22
 ae0:	615f6565 	cmpvs	pc, r5, ror #10
 ae4:	72006c6c 	andvc	r6, r0, #108, 24	; 0x6c00
 ae8:	646e756f 	strbtvs	r7, [lr], #-1391	; 0xfffffa91
 aec:	6b007075 	blvs	1ccc8 <__bss_end__+0x122f0>
 af0:	65657266 	strbvs	r7, [r5, #-614]!	; 0xfffffd9a
 af4:	706f705f 	rsbvc	r7, pc, pc, asr r0	; <UNPREDICTABLE>
 af8:	696c6100 	stmdbvs	ip!, {r8, sp, lr}^
 afc:	656d6e67 	strbvs	r6, [sp, #-3687]!	; 0xfffff199
 b00:	6d00746e 	cfstrsvs	mvf7, [r0, #-440]	; 0xfffffe48
 b04:	755f7861 	ldrbvc	r7, [pc, #-2145]	; 2ab <__code_start__-0x7d55>
 b08:	4f003233 	svcmi	0x00003233
 b0c:	424d656e 	submi	r6, sp, #461373440	; 0x1b800000
 b10:	616d6b00 	cmnvs	sp, r0, lsl #22
 b14:	636f6c6c 	cmnvs	pc, #108, 24	; 0x6c00
 b18:	6165685f 	cmnvs	r5, pc, asr r8
 b1c:	6e655f70 	mcrvs	15, 3, r5, cr5, cr0, {3}
 b20:	6d6b0064 	stclvs	0, cr0, [fp, #-400]!	; 0xfffffe70
 b24:	6f6c6c61 	svcvs	0x006c6c61
 b28:	6f6e5f63 	svcvs	0x006e5f63
 b2c:	72657a74 	rsbvc	r7, r5, #116, 20	; 0x74000
 b30:	7369006f 	cmnvc	r9, #111, 0	; 0x6f
 b34:	776f705f 			; <UNDEFINED> instruction: 0x776f705f
 b38:	6d6b0032 	stclvs	0, cr0, [fp, #-200]!	; 0xffffff38
 b3c:	6f6c6c61 	svcvs	0x006c6c61
 b40:	00632e63 	rsbeq	r2, r3, r3, ror #28
 b44:	6c616d6b 	stclvs	13, cr6, [r1], #-428	; 0xfffffe54
 b48:	5f636f6c 	svcpl	0x00636f6c
 b4c:	74696e69 	strbtvc	r6, [r9], #-3689	; 0xfffff197
 b50:	5f736900 	svcpl	0x00736900
 b54:	67696c61 	strbvs	r6, [r9, -r1, ror #24]!
 b58:	0064656e 	rsbeq	r6, r4, lr, ror #10
 b5c:	6c616d6b 	stclvs	13, cr6, [r1], #-428	; 0xfffffe54
 b60:	5f636f6c 	svcpl	0x00636f6c
 b64:	70616568 	rsbvc	r6, r1, r8, ror #10
 b68:	7274705f 	rsbsvc	r7, r4, #95, 0	; 0x5f
 b6c:	69707200 	ldmdbvs	r0!, {r9, ip, sp, lr}^
 b70:	7365725f 	cmnvc	r5, #-268435451	; 0xf0000005
 b74:	705f7465 	subsvc	r7, pc, r5, ror #8
 b78:	00637475 	rsbeq	r7, r3, r5, ror r4
 b7c:	6c616d6b 	stclvs	13, cr6, [r1], #-428	; 0xfffffe54
 b80:	5f636f6c 	svcpl	0x00636f6c
 b84:	67696c61 	strbvs	r6, [r9, -r1, ror #24]!
 b88:	0064656e 	rsbeq	r6, r4, lr, ror #10
 b8c:	65746e69 	ldrbvs	r6, [r4, #-3689]!	; 0xfffff197
 b90:	6c616e72 	stclvs	14, cr6, [r1], #-456	; 0xfffffe38
 b94:	7475705f 	ldrbtvc	r7, [r5], #-95	; 0xffffffa1
 b98:	72616863 	rsbvc	r6, r1, #6488064	; 0x630000
 b9c:	69707200 	ldmdbvs	r0!, {r9, ip, sp, lr}^
 ba0:	7465735f 	strbtvc	r7, [r5], #-863	; 0xfffffca1
 ba4:	7475705f 	ldrbtvc	r7, [r5], #-95	; 0xffffffa1
 ba8:	2f2e0063 	svccs	0x002e0063
 bac:	6362696c 	cmnvs	r2, #108, 18	; 0x1b0000
 bb0:	7475702f 	ldrbtvc	r7, [r5], #-47	; 0xffffffd1
 bb4:	72616863 	rsbvc	r6, r1, #6488064	; 0x630000
 bb8:	6400632e 	strvs	r6, [r0], #-814	; 0xfffffcd2
 bbc:	00747365 	rsbseq	r7, r4, r5, ror #6
 bc0:	696c2f2e 	stmdbvs	ip!, {r1, r2, r3, r5, r8, r9, sl, fp, sp}^
 bc4:	732f6362 			; <UNDEFINED> instruction: 0x732f6362
 bc8:	61637274 	smcvs	14116	; 0x3724
 bcc:	00632e74 	rsbeq	r2, r3, r4, ror lr
 bd0:	696c2f2e 	stmdbvs	ip!, {r1, r2, r3, r5, r8, r9, sl, fp, sp}^
 bd4:	732f6362 			; <UNDEFINED> instruction: 0x732f6362
 bd8:	6d637274 	sfmvs	f7, 2, [r3, #-464]!	; 0xfffffe30
 bdc:	00632e70 	rsbeq	r2, r3, r0, ror lr
 be0:	696c2f2e 	stmdbvs	ip!, {r1, r2, r3, r5, r8, r9, sl, fp, sp}^
 be4:	732f6362 			; <UNDEFINED> instruction: 0x732f6362
 be8:	70637274 	rsbvc	r7, r3, r4, ror r2
 bec:	00632e79 	rsbeq	r2, r3, r9, ror lr
 bf0:	696c2f2e 	stmdbvs	ip!, {r1, r2, r3, r5, r8, r9, sl, fp, sp}^
 bf4:	732f6362 			; <UNDEFINED> instruction: 0x732f6362
 bf8:	636e7274 	cmnvs	lr, #116, 4	; 0x40000007
 bfc:	632e706d 			; <UNDEFINED> instruction: 0x632e706d
 c00:	732f2e00 			; <UNDEFINED> instruction: 0x732f2e00
 c04:	66666174 			; <UNDEFINED> instruction: 0x66666174
 c08:	6372732d 	cmnvs	r2, #-1275068416	; 0xb4000000
 c0c:	6665642f 	strbtvs	r6, [r5], -pc, lsr #8
 c10:	746c7561 	strbtvc	r7, [ip], #-1377	; 0xfffffa9f
 c14:	6265722d 	rsbvs	r7, r5, #-805306366	; 0xd0000002
 c18:	2d746f6f 	ldclcs	15, cr6, [r4, #-444]!	; 0xfffffe44
 c1c:	6c6c6163 	stfvse	f6, [ip], #-396	; 0xfffffe74
 c20:	2e74756f 	cdpcs	5, 7, cr7, cr4, cr15, {3}
 c24:	70670063 	rsbvc	r0, r7, r3, rrx
 c28:	635f6f69 	cmpvs	pc, #420	; 0x1a4
 c2c:	0030726c 	eorseq	r7, r0, ip, ror #4
 c30:	6f697067 	svcvs	0x00697067
 c34:	7465735f 	strbtvc	r7, [r5], #-863	; 0xfffffca1
 c38:	70670030 	rsbvc	r0, r7, r0, lsr r0
 c3c:	775f6f69 	ldrbvc	r6, [pc, -r9, ror #30]
 c40:	65746972 	ldrbvs	r6, [r4, #-2418]!	; 0xfffff68e
 c44:	56454400 	strbpl	r4, [r5], -r0, lsl #8
 c48:	4c41565f 	mcrrmi	6, 5, r5, r1, cr15
 c4c:	67003233 	smladxvs	r0, r3, r2, r3
 c50:	5f6f6970 	svcpl	0x006f6970
 c54:	64616572 	strbtvs	r6, [r1], #-1394	; 0xfffffa8e
 c58:	69706700 	ldmdbvs	r0!, {r8, r9, sl, sp, lr}^
 c5c:	65735f6f 	ldrbvs	r5, [r3, #-3951]!	; 0xfffff091
 c60:	6e695f74 	mcrvs	15, 3, r5, cr9, cr4, {3}
 c64:	00747570 	rsbseq	r7, r4, r0, ror r5
 c68:	6f697067 	svcvs	0x00697067
 c6c:	7465735f 	strbtvc	r7, [r5], #-863	; 0xfffffca1
 c70:	66666f5f 	uqsaxvs	r6, r6, pc	; <UNPREDICTABLE>
 c74:	69706700 	ldmdbvs	r0!, {r8, r9, sl, sp, lr}^
 c78:	65735f6f 	ldrbvs	r5, [r3, #-3951]!	; 0xfffff091
 c7c:	756f5f74 	strbvc	r5, [pc, #-3956]!	; fffffd10 <__bss_end__+0xffff5338>
 c80:	74757074 	ldrbtvc	r7, [r5], #-116	; 0xffffff8c
 c84:	69706700 	ldmdbvs	r0!, {r8, r9, sl, sp, lr}^
 c88:	75665f6f 	strbvc	r5, [r6, #-3951]!	; 0xfffff091
 c8c:	745f636e 	ldrbvc	r6, [pc], #-878	; c94 <__code_start__-0x736c>
 c90:	69706700 	ldmdbvs	r0!, {r8, r9, sl, sp, lr}^
 c94:	656c5f6f 	strbvs	r5, [ip, #-3951]!	; 0xfffff091
 c98:	62003076 	andvs	r3, r0, #118, 0	; 0x76
 c9c:	006b6e61 	rsbeq	r6, fp, r1, ror #28
 ca0:	6f697067 	svcvs	0x00697067
 ca4:	6700632e 	strvs	r6, [r0, -lr, lsr #6]
 ca8:	5f6f6970 	svcpl	0x006f6970
 cac:	5f746573 	svcpl	0x00746573
 cb0:	Address 0x0000000000000cb0 is out of bounds.


Disassembly of section .debug_frame:

00000000 <.debug_frame>:
   0:	0000000c 	andeq	r0, r0, ip
   4:	ffffffff 			; <UNDEFINED> instruction: 0xffffffff
   8:	7c020001 	stcvc	0, cr0, [r2], {1}
   c:	000d0c0e 	andeq	r0, sp, lr, lsl #24
  10:	00000020 	andeq	r0, r0, r0, lsr #32
  14:	00000000 	andeq	r0, r0, r0
  18:	00008038 	andeq	r8, r0, r8, lsr r0
  1c:	000000c4 	andeq	r0, r0, r4, asr #1
  20:	84100e42 	ldrhi	r0, [r0], #-3650	; 0xfffff1be
  24:	86038504 	strhi	r8, [r3], -r4, lsl #10
  28:	42018e02 	andmi	r8, r1, #2, 28
  2c:	5402280e 	strpl	r2, [r2], #-2062	; 0xfffff7f2
  30:	0000100e 	andeq	r1, r0, lr
  34:	00000014 	andeq	r0, r0, r4, lsl r0
  38:	00000000 	andeq	r0, r0, r0
  3c:	000080fc 	strdeq	r8, [r0], -ip
  40:	00000028 	andeq	r0, r0, r8, lsr #32
  44:	84080e42 	strhi	r0, [r8], #-3650	; 0xfffff1be
  48:	00018e02 	andeq	r8, r1, r2, lsl #28
  4c:	0000000c 	andeq	r0, r0, ip
  50:	ffffffff 			; <UNDEFINED> instruction: 0xffffffff
  54:	7c020001 	stcvc	0, cr0, [r2], {1}
  58:	000d0c0e 	andeq	r0, sp, lr, lsl #24
  5c:	00000014 	andeq	r0, r0, r4, lsl r0
  60:	0000004c 	andeq	r0, r0, ip, asr #32
  64:	00008124 	andeq	r8, r0, r4, lsr #2
  68:	00000074 	andeq	r0, r0, r4, ror r0
  6c:	8e040e5e 	mcrhi	14, 0, r0, cr4, cr14, {2}
  70:	100e4201 	andne	r4, lr, r1, lsl #4
  74:	0000000c 	andeq	r0, r0, ip
  78:	0000004c 	andeq	r0, r0, ip, asr #32
  7c:	00008198 	muleq	r0, r8, r1
  80:	00000010 	andeq	r0, r0, r0, lsl r0
  84:	0000000c 	andeq	r0, r0, ip
  88:	0000004c 	andeq	r0, r0, ip, asr #32
  8c:	000081a8 	andeq	r8, r0, r8, lsr #3
  90:	00000010 	andeq	r0, r0, r0, lsl r0
  94:	00000020 	andeq	r0, r0, r0, lsr #32
  98:	0000004c 	andeq	r0, r0, ip, asr #32
  9c:	000081b8 			; <UNDEFINED> instruction: 0x000081b8
  a0:	00000094 	muleq	r0, r4, r0
  a4:	840c0e42 	strhi	r0, [ip], #-3650	; 0xfffff1be
  a8:	8e028503 	cfsh32hi	mvfx8, mvfx2, #3
  ac:	180e4201 	stmdane	lr, {r0, r9, lr}
  b0:	0c0e0a5c 			; <UNDEFINED> instruction: 0x0c0e0a5c
  b4:	00000b42 	andeq	r0, r0, r2, asr #22
  b8:	0000000c 	andeq	r0, r0, ip
  bc:	0000004c 	andeq	r0, r0, ip, asr #32
  c0:	0000824c 	andeq	r8, r0, ip, asr #4
  c4:	00000008 	andeq	r0, r0, r8
  c8:	00000014 	andeq	r0, r0, r4, lsl r0
  cc:	0000004c 	andeq	r0, r0, ip, asr #32
  d0:	00008254 	andeq	r8, r0, r4, asr r2
  d4:	00000018 	andeq	r0, r0, r8, lsl r0
  d8:	84080e42 	strhi	r0, [r8], #-3650	; 0xfffff1be
  dc:	00018e02 	andeq	r8, r1, r2, lsl #28
  e0:	00000014 	andeq	r0, r0, r4, lsl r0
  e4:	0000004c 	andeq	r0, r0, ip, asr #32
  e8:	0000826c 	andeq	r8, r0, ip, ror #4
  ec:	00000010 	andeq	r0, r0, r0, lsl r0
  f0:	84080e42 	strhi	r0, [r8], #-3650	; 0xfffff1be
  f4:	00018e02 	andeq	r8, r1, r2, lsl #28
  f8:	0000000c 	andeq	r0, r0, ip
  fc:	0000004c 	andeq	r0, r0, ip, asr #32
 100:	0000827c 	andeq	r8, r0, ip, ror r2
 104:	00000014 	andeq	r0, r0, r4, lsl r0
 108:	0000000c 	andeq	r0, r0, ip
 10c:	0000004c 	andeq	r0, r0, ip, asr #32
 110:	00008290 	muleq	r0, r0, r2
 114:	00000038 	andeq	r0, r0, r8, lsr r0
 118:	00000018 	andeq	r0, r0, r8, lsl r0
 11c:	0000004c 	andeq	r0, r0, ip, asr #32
 120:	000082c8 	andeq	r8, r0, r8, asr #5
 124:	00000050 	andeq	r0, r0, r0, asr r0
 128:	84100e42 	ldrhi	r0, [r0], #-3650	; 0xfffff1be
 12c:	86038504 	strhi	r8, [r3], -r4, lsl #10
 130:	00018e02 	andeq	r8, r1, r2, lsl #28
 134:	00000020 	andeq	r0, r0, r0, lsr #32
 138:	0000004c 	andeq	r0, r0, ip, asr #32
 13c:	00008318 	andeq	r8, r0, r8, lsl r3
 140:	0000011c 	andeq	r0, r0, ip, lsl r1
 144:	840c0e42 	strhi	r0, [ip], #-3650	; 0xfffff1be
 148:	8e028503 	cfsh32hi	mvfx8, mvfx2, #3
 14c:	280e4201 	stmdacs	lr, {r0, r9, lr}
 150:	0e0a4002 	cdpeq	0, 0, cr4, cr10, cr2, {0}
 154:	000b420c 	andeq	r4, fp, ip, lsl #4
 158:	00000020 	andeq	r0, r0, r0, lsr #32
 15c:	0000004c 	andeq	r0, r0, ip, asr #32
 160:	00008434 	andeq	r8, r0, r4, lsr r4
 164:	0000009c 	muleq	r0, ip, r0
 168:	84100e42 	ldrhi	r0, [r0], #-3650	; 0xfffff1be
 16c:	86038504 	strhi	r8, [r3], -r4, lsl #10
 170:	42018e02 	andmi	r8, r1, #2, 28
 174:	4202200e 	andmi	r2, r2, #14, 0
 178:	0000100e 	andeq	r1, r0, lr
 17c:	0000000c 	andeq	r0, r0, ip
 180:	ffffffff 			; <UNDEFINED> instruction: 0xffffffff
 184:	7c020001 	stcvc	0, cr0, [r2], {1}
 188:	000d0c0e 	andeq	r0, sp, lr, lsl #24
 18c:	0000000c 	andeq	r0, r0, ip
 190:	0000017c 	andeq	r0, r0, ip, ror r1
 194:	000084d0 	ldrdeq	r8, [r0], -r0
 198:	0000003c 	andeq	r0, r0, ip, lsr r0
 19c:	0000001c 	andeq	r0, r0, ip, lsl r0
 1a0:	0000017c 	andeq	r0, r0, ip, ror r1
 1a4:	0000850c 	andeq	r8, r0, ip, lsl #10
 1a8:	00000100 	andeq	r0, r0, r0, lsl #2
 1ac:	84180e42 	ldrhi	r0, [r8], #-3650	; 0xfffff1be
 1b0:	86058506 	strhi	r8, [r5], -r6, lsl #10
 1b4:	88038704 	stmdahi	r3, {r2, r8, r9, sl, pc}
 1b8:	00018e02 	andeq	r8, r1, r2, lsl #28
 1bc:	0000001c 	andeq	r0, r0, ip, lsl r0
 1c0:	0000017c 	andeq	r0, r0, ip, ror r1
 1c4:	0000860c 	andeq	r8, r0, ip, lsl #12
 1c8:	000000b8 	strheq	r0, [r0], -r8
 1cc:	84180e42 	ldrhi	r0, [r8], #-3650	; 0xfffff1be
 1d0:	86058506 	strhi	r8, [r5], -r6, lsl #10
 1d4:	88038704 	stmdahi	r3, {r2, r8, r9, sl, pc}
 1d8:	00018e02 	andeq	r8, r1, r2, lsl #28
 1dc:	00000014 	andeq	r0, r0, r4, lsl r0
 1e0:	0000017c 	andeq	r0, r0, ip, ror r1
 1e4:	000086c4 	andeq	r8, r0, r4, asr #13
 1e8:	00000028 	andeq	r0, r0, r8, lsr #32
 1ec:	84080e42 	strhi	r0, [r8], #-3650	; 0xfffff1be
 1f0:	00018e02 	andeq	r8, r1, r2, lsl #28
 1f4:	00000024 	andeq	r0, r0, r4, lsr #32
 1f8:	0000017c 	andeq	r0, r0, ip, ror r1
 1fc:	000086ec 	andeq	r8, r0, ip, ror #13
 200:	00000134 	andeq	r0, r0, r4, lsr r1
 204:	84180e42 	ldrhi	r0, [r8], #-3650	; 0xfffff1be
 208:	86058506 	strhi	r8, [r5], -r6, lsl #10
 20c:	88038704 	stmdahi	r3, {r2, r8, r9, sl, pc}
 210:	42018e02 	andmi	r8, r1, #2, 28
 214:	8802200e 	stmdahi	r2, {r1, r2, r3, sp}
 218:	0000180e 	andeq	r1, r0, lr, lsl #16
 21c:	00000018 	andeq	r0, r0, r8, lsl r0
 220:	0000017c 	andeq	r0, r0, ip, ror r1
 224:	00008820 	andeq	r8, r0, r0, lsr #16
 228:	00000090 	muleq	r0, r0, r0
 22c:	8e040e42 	cdphi	14, 0, cr0, cr4, cr2, {2}
 230:	480e4201 	stmdami	lr, {r0, r9, lr}
 234:	00040e7a 	andeq	r0, r4, sl, ror lr
 238:	00000020 	andeq	r0, r0, r0, lsr #32
 23c:	0000017c 	andeq	r0, r0, ip, ror r1
 240:	000088b0 			; <UNDEFINED> instruction: 0x000088b0
 244:	000000b4 	strheq	r0, [r0], -r4
 248:	840c0e42 	strhi	r0, [ip], #-3650	; 0xfffff1be
 24c:	8e028503 	cfsh32hi	mvfx8, mvfx2, #3
 250:	180e4201 	stmdane	lr, {r0, r9, lr}
 254:	0c0e0a6a 			; <UNDEFINED> instruction: 0x0c0e0a6a
 258:	00000b42 	andeq	r0, r0, r2, asr #22
 25c:	00000014 	andeq	r0, r0, r4, lsl r0
 260:	0000017c 	andeq	r0, r0, ip, ror r1
 264:	00008964 	andeq	r8, r0, r4, ror #18
 268:	00000030 	andeq	r0, r0, r0, lsr r0
 26c:	84080e42 	strhi	r0, [r8], #-3650	; 0xfffff1be
 270:	00018e02 	andeq	r8, r1, r2, lsl #28
 274:	00000014 	andeq	r0, r0, r4, lsl r0
 278:	0000017c 	andeq	r0, r0, ip, ror r1
 27c:	00008994 	muleq	r0, r4, r9
 280:	00000048 	andeq	r0, r0, r8, asr #32
 284:	84080e42 	strhi	r0, [r8], #-3650	; 0xfffff1be
 288:	00018e02 	andeq	r8, r1, r2, lsl #28
 28c:	00000014 	andeq	r0, r0, r4, lsl r0
 290:	0000017c 	andeq	r0, r0, ip, ror r1
 294:	000089dc 	ldrdeq	r8, [r0], -ip
 298:	00000050 	andeq	r0, r0, r0, asr r0
 29c:	84080e42 	strhi	r0, [r8], #-3650	; 0xfffff1be
 2a0:	00018e02 	andeq	r8, r1, r2, lsl #28
 2a4:	00000014 	andeq	r0, r0, r4, lsl r0
 2a8:	0000017c 	andeq	r0, r0, ip, ror r1
 2ac:	00008a2c 	andeq	r8, r0, ip, lsr #20
 2b0:	00000010 	andeq	r0, r0, r0, lsl r0
 2b4:	84080e42 	strhi	r0, [r8], #-3650	; 0xfffff1be
 2b8:	00018e02 	andeq	r8, r1, r2, lsl #28
 2bc:	00000014 	andeq	r0, r0, r4, lsl r0
 2c0:	0000017c 	andeq	r0, r0, ip, ror r1
 2c4:	00008a3c 	andeq	r8, r0, ip, lsr sl
 2c8:	00000028 	andeq	r0, r0, r8, lsr #32
 2cc:	84080e42 	strhi	r0, [r8], #-3650	; 0xfffff1be
 2d0:	00018e02 	andeq	r8, r1, r2, lsl #28
 2d4:	0000000c 	andeq	r0, r0, ip
 2d8:	ffffffff 			; <UNDEFINED> instruction: 0xffffffff
 2dc:	7c020001 	stcvc	0, cr0, [r2], {1}
 2e0:	000d0c0e 	andeq	r0, sp, lr, lsl #24
 2e4:	00000014 	andeq	r0, r0, r4, lsl r0
 2e8:	000002d4 	ldrdeq	r0, [r0], -r4
 2ec:	00008aa8 	andeq	r8, r0, r8, lsr #21
 2f0:	000000bc 	strheq	r0, [r0], -ip
 2f4:	8e040e42 	cdphi	14, 0, cr0, cr4, cr2, {2}
 2f8:	00000001 	andeq	r0, r0, r1
 2fc:	00000014 	andeq	r0, r0, r4, lsl r0
 300:	000002d4 	ldrdeq	r0, [r0], -r4
 304:	00008b64 	andeq	r8, r0, r4, ror #22
 308:	00000044 	andeq	r0, r0, r4, asr #32
 30c:	84080e42 	strhi	r0, [r8], #-3650	; 0xfffff1be
 310:	00018e02 	andeq	r8, r1, r2, lsl #28
 314:	00000014 	andeq	r0, r0, r4, lsl r0
 318:	000002d4 	ldrdeq	r0, [r0], -r4
 31c:	00008ba8 	andeq	r8, r0, r8, lsr #23
 320:	000000ac 	andeq	r0, r0, ip, lsr #1
 324:	84080e42 	strhi	r0, [r8], #-3650	; 0xfffff1be
 328:	00018e02 	andeq	r8, r1, r2, lsl #28
 32c:	0000000c 	andeq	r0, r0, ip
 330:	ffffffff 			; <UNDEFINED> instruction: 0xffffffff
 334:	7c020001 	stcvc	0, cr0, [r2], {1}
 338:	000d0c0e 	andeq	r0, sp, lr, lsl #24
 33c:	0000000c 	andeq	r0, r0, ip
 340:	0000032c 	andeq	r0, r0, ip, lsr #6
 344:	00008c54 	andeq	r8, r0, r4, asr ip
 348:	00000018 	andeq	r0, r0, r8, lsl r0
 34c:	0000000c 	andeq	r0, r0, ip
 350:	ffffffff 			; <UNDEFINED> instruction: 0xffffffff
 354:	7c020001 	stcvc	0, cr0, [r2], {1}
 358:	000d0c0e 	andeq	r0, sp, lr, lsl #24
 35c:	00000034 	andeq	r0, r0, r4, lsr r0
 360:	0000034c 	andeq	r0, r0, ip, asr #6
 364:	00008c6c 	andeq	r8, r0, ip, ror #24
 368:	00000058 	andeq	r0, r0, r8, asr r0
 36c:	80100e42 	andshi	r0, r0, r2, asr #28
 370:	82038104 	andhi	r8, r3, #1
 374:	42018302 	andmi	r8, r1, #134217728	; 0x8000000
 378:	07841c0e 	streq	r1, [r4, lr, lsl #24]
 37c:	058e0685 	streq	r0, [lr, #1669]	; 0x685
 380:	5c280e42 	stcpl	14, cr0, [r8], #-264	; 0xfffffef8
 384:	ce421c0e 	cdpgt	12, 4, cr1, cr2, cr14, {0}
 388:	100ec4c5 	andne	ip, lr, r5, asr #9
 38c:	c1c2c342 	bicgt	ip, r2, r2, asr #6
 390:	00000ec0 	andeq	r0, r0, r0, asr #29
 394:	0000000c 	andeq	r0, r0, ip
 398:	ffffffff 			; <UNDEFINED> instruction: 0xffffffff
 39c:	7c020001 	stcvc	0, cr0, [r2], {1}
 3a0:	000d0c0e 	andeq	r0, sp, lr, lsl #24
 3a4:	00000014 	andeq	r0, r0, r4, lsl r0
 3a8:	00000394 	muleq	r0, r4, r3
 3ac:	00008cc4 	andeq	r8, r0, r4, asr #25
 3b0:	00000034 	andeq	r0, r0, r4, lsr r0
 3b4:	84080e42 	strhi	r0, [r8], #-3650	; 0xfffff1be
 3b8:	00018e02 	andeq	r8, r1, r2, lsl #28
 3bc:	0000000c 	andeq	r0, r0, ip
 3c0:	ffffffff 			; <UNDEFINED> instruction: 0xffffffff
 3c4:	7c020001 	stcvc	0, cr0, [r2], {1}
 3c8:	000d0c0e 	andeq	r0, sp, lr, lsl #24
 3cc:	0000000c 	andeq	r0, r0, ip
 3d0:	000003bc 			; <UNDEFINED> instruction: 0x000003bc
 3d4:	00008cf8 	strdeq	r8, [r0], -r8	; <UNPREDICTABLE>
 3d8:	00000014 	andeq	r0, r0, r4, lsl r0
 3dc:	0000000c 	andeq	r0, r0, ip
 3e0:	000003bc 			; <UNDEFINED> instruction: 0x000003bc
 3e4:	00008d0c 	andeq	r8, r0, ip, lsl #26
 3e8:	00000024 	andeq	r0, r0, r4, lsr #32
 3ec:	0000000c 	andeq	r0, r0, ip
 3f0:	000003bc 			; <UNDEFINED> instruction: 0x000003bc
 3f4:	00008d30 	andeq	r8, r0, r0, lsr sp
 3f8:	00000038 	andeq	r0, r0, r8, lsr r0
 3fc:	00000024 	andeq	r0, r0, r4, lsr #32
 400:	000003bc 			; <UNDEFINED> instruction: 0x000003bc
 404:	00008d68 	andeq	r8, r0, r8, ror #26
 408:	000001b4 			; <UNDEFINED> instruction: 0x000001b4
 40c:	84140e42 	ldrhi	r0, [r4], #-3650	; 0xfffff1be
 410:	86048505 	strhi	r8, [r4], -r5, lsl #10
 414:	8e028703 	cdphi	7, 0, cr8, cr2, cr3, {0}
 418:	600e4201 	andvs	r4, lr, r1, lsl #4
 41c:	0e0a9a02 	vmlaeq.f32	s18, s20, s4
 420:	000b4214 	andeq	r4, fp, r4, lsl r2
 424:	00000014 	andeq	r0, r0, r4, lsl r0
 428:	000003bc 			; <UNDEFINED> instruction: 0x000003bc
 42c:	00008f1c 	andeq	r8, r0, ip, lsl pc
 430:	00000064 	andeq	r0, r0, r4, rrx
 434:	8e040e54 	mcrhi	14, 0, r0, cr4, cr4, {2}
 438:	100e4201 	andne	r4, lr, r1, lsl #4
 43c:	0000002c 	andeq	r0, r0, ip, lsr #32
 440:	000003bc 			; <UNDEFINED> instruction: 0x000003bc
 444:	00008f80 	andeq	r8, r0, r0, lsl #31
 448:	000004b8 			; <UNDEFINED> instruction: 0x000004b8
 44c:	84240e42 	strthi	r0, [r4], #-3650	; 0xfffff1be
 450:	86088509 	strhi	r8, [r8], -r9, lsl #10
 454:	88068707 	stmdahi	r6, {r0, r1, r2, r8, r9, sl, pc}
 458:	8a048905 	bhi	122874 <__bss_end__+0x117e9c>
 45c:	8e028b03 	vmlahi.f64	d8, d2, d3
 460:	b80e4201 	stmdalt	lr, {r0, r9, lr}
 464:	02380302 	eorseq	r0, r8, #134217728	; 0x8000000
 468:	0000240e 	andeq	r2, r0, lr, lsl #8
 46c:	0000000c 	andeq	r0, r0, ip
 470:	ffffffff 			; <UNDEFINED> instruction: 0xffffffff
 474:	7c020001 	stcvc	0, cr0, [r2], {1}
 478:	000d0c0e 	andeq	r0, sp, lr, lsl #24
 47c:	00000014 	andeq	r0, r0, r4, lsl r0
 480:	0000046c 	andeq	r0, r0, ip, ror #8
 484:	00009438 	andeq	r9, r0, r8, lsr r4
 488:	0000002c 	andeq	r0, r0, ip, lsr #32
 48c:	84080e42 	strhi	r0, [r8], #-3650	; 0xfffff1be
 490:	00018e02 	andeq	r8, r1, r2, lsl #28
 494:	0000000c 	andeq	r0, r0, ip
 498:	ffffffff 			; <UNDEFINED> instruction: 0xffffffff
 49c:	7c020001 	stcvc	0, cr0, [r2], {1}
 4a0:	000d0c0e 	andeq	r0, sp, lr, lsl #24
 4a4:	00000014 	andeq	r0, r0, r4, lsl r0
 4a8:	00000494 	muleq	r0, r4, r4
 4ac:	00009464 	andeq	r9, r0, r4, ror #8
 4b0:	0000003c 	andeq	r0, r0, ip, lsr r0
 4b4:	84080e42 	strhi	r0, [r8], #-3650	; 0xfffff1be
 4b8:	00018e02 	andeq	r8, r1, r2, lsl #28
 4bc:	0000000c 	andeq	r0, r0, ip
 4c0:	ffffffff 			; <UNDEFINED> instruction: 0xffffffff
 4c4:	7c020001 	stcvc	0, cr0, [r2], {1}
 4c8:	000d0c0e 	andeq	r0, sp, lr, lsl #24
 4cc:	0000000c 	andeq	r0, r0, ip
 4d0:	000004bc 			; <UNDEFINED> instruction: 0x000004bc
 4d4:	000094a0 	andeq	r9, r0, r0, lsr #9
 4d8:	00000004 	andeq	r0, r0, r4
 4dc:	0000000c 	andeq	r0, r0, ip
 4e0:	ffffffff 			; <UNDEFINED> instruction: 0xffffffff
 4e4:	7c020001 	stcvc	0, cr0, [r2], {1}
 4e8:	000d0c0e 	andeq	r0, sp, lr, lsl #24
 4ec:	0000000c 	andeq	r0, r0, ip
 4f0:	000004dc 	ldrdeq	r0, [r0], -ip
 4f4:	000094a4 	andeq	r9, r0, r4, lsr #9
 4f8:	00000018 	andeq	r0, r0, r8, lsl r0
 4fc:	0000000c 	andeq	r0, r0, ip
 500:	000004dc 	ldrdeq	r0, [r0], -ip
 504:	000094bc 			; <UNDEFINED> instruction: 0x000094bc
 508:	00000014 	andeq	r0, r0, r4, lsl r0
 50c:	00000014 	andeq	r0, r0, r4, lsl r0
 510:	000004dc 	ldrdeq	r0, [r0], -ip
 514:	000094d0 	ldrdeq	r9, [r0], -r0
 518:	00000054 	andeq	r0, r0, r4, asr r0
 51c:	84080e42 	strhi	r0, [r8], #-3650	; 0xfffff1be
 520:	00018e02 	andeq	r8, r1, r2, lsl #28
 524:	0000000c 	andeq	r0, r0, ip
 528:	ffffffff 			; <UNDEFINED> instruction: 0xffffffff
 52c:	7c020001 	stcvc	0, cr0, [r2], {1}
 530:	000d0c0e 	andeq	r0, sp, lr, lsl #24
 534:	00000014 	andeq	r0, r0, r4, lsl r0
 538:	00000524 	andeq	r0, r0, r4, lsr #10
 53c:	00009524 	andeq	r9, r0, r4, lsr #10
 540:	00000014 	andeq	r0, r0, r4, lsl r0
 544:	84080e42 	strhi	r0, [r8], #-3650	; 0xfffff1be
 548:	00018e02 	andeq	r8, r1, r2, lsl #28
 54c:	00000014 	andeq	r0, r0, r4, lsl r0
 550:	00000524 	andeq	r0, r0, r4, lsr #10
 554:	00009538 	andeq	r9, r0, r8, lsr r5
 558:	0000001c 	andeq	r0, r0, ip, lsl r0
 55c:	84080e42 	strhi	r0, [r8], #-3650	; 0xfffff1be
 560:	00018e02 	andeq	r8, r1, r2, lsl #28
 564:	00000018 	andeq	r0, r0, r8, lsl r0
 568:	00000524 	andeq	r0, r0, r4, lsr #10
 56c:	00009554 	andeq	r9, r0, r4, asr r5
 570:	00000024 	andeq	r0, r0, r4, lsr #32
 574:	84100e42 	ldrhi	r0, [r0], #-3650	; 0xfffff1be
 578:	86038504 	strhi	r8, [r3], -r4, lsl #10
 57c:	00018e02 	andeq	r8, r1, r2, lsl #28
 580:	00000014 	andeq	r0, r0, r4, lsl r0
 584:	00000524 	andeq	r0, r0, r4, lsr #10
 588:	00009578 	andeq	r9, r0, r8, ror r5
 58c:	00000018 	andeq	r0, r0, r8, lsl r0
 590:	84080e42 	strhi	r0, [r8], #-3650	; 0xfffff1be
 594:	00018e02 	andeq	r8, r1, r2, lsl #28
 598:	00000014 	andeq	r0, r0, r4, lsl r0
 59c:	00000524 	andeq	r0, r0, r4, lsr #10
 5a0:	00009590 	muleq	r0, r0, r5
 5a4:	00000018 	andeq	r0, r0, r8, lsl r0
 5a8:	84080e42 	strhi	r0, [r8], #-3650	; 0xfffff1be
 5ac:	00018e02 	andeq	r8, r1, r2, lsl #28
 5b0:	0000000c 	andeq	r0, r0, ip
 5b4:	ffffffff 			; <UNDEFINED> instruction: 0xffffffff
 5b8:	7c020001 	stcvc	0, cr0, [r2], {1}
 5bc:	000d0c0e 	andeq	r0, sp, lr, lsl #24
 5c0:	00000018 	andeq	r0, r0, r8, lsl r0
 5c4:	000005b0 			; <UNDEFINED> instruction: 0x000005b0
 5c8:	000095a8 	andeq	r9, r0, r8, lsr #11
 5cc:	00000020 	andeq	r0, r0, r0, lsr #32
 5d0:	84100e42 	ldrhi	r0, [r0], #-3650	; 0xfffff1be
 5d4:	86038504 	strhi	r8, [r3], -r4, lsl #10
 5d8:	00018e02 	andeq	r8, r1, r2, lsl #28
 5dc:	00000018 	andeq	r0, r0, r8, lsl r0
 5e0:	000005b0 			; <UNDEFINED> instruction: 0x000005b0
 5e4:	000095c8 	andeq	r9, r0, r8, asr #11
 5e8:	00000020 	andeq	r0, r0, r0, lsr #32
 5ec:	84100e42 	ldrhi	r0, [r0], #-3650	; 0xfffff1be
 5f0:	86038504 	strhi	r8, [r3], -r4, lsl #10
 5f4:	00018e02 	andeq	r8, r1, r2, lsl #28
 5f8:	00000014 	andeq	r0, r0, r4, lsl r0
 5fc:	000005b0 			; <UNDEFINED> instruction: 0x000005b0
 600:	000095e8 	andeq	r9, r0, r8, ror #11
 604:	000000b0 	strheq	r0, [r0], -r0	; <UNPREDICTABLE>
 608:	84080e42 	strhi	r0, [r8], #-3650	; 0xfffff1be
 60c:	00018e02 	andeq	r8, r1, r2, lsl #28
 610:	00000014 	andeq	r0, r0, r4, lsl r0
 614:	000005b0 			; <UNDEFINED> instruction: 0x000005b0
 618:	00009698 	muleq	r0, r8, r6
 61c:	00000018 	andeq	r0, r0, r8, lsl r0
 620:	84080e42 	strhi	r0, [r8], #-3650	; 0xfffff1be
 624:	00018e02 	andeq	r8, r1, r2, lsl #28
 628:	00000014 	andeq	r0, r0, r4, lsl r0
 62c:	000005b0 			; <UNDEFINED> instruction: 0x000005b0
 630:	000096b0 			; <UNDEFINED> instruction: 0x000096b0
 634:	00000020 	andeq	r0, r0, r0, lsr #32
 638:	84080e42 	strhi	r0, [r8], #-3650	; 0xfffff1be
 63c:	00018e02 	andeq	r8, r1, r2, lsl #28
 640:	00000014 	andeq	r0, r0, r4, lsl r0
 644:	000005b0 			; <UNDEFINED> instruction: 0x000005b0
 648:	000096d0 	ldrdeq	r9, [r0], -r0
 64c:	00000030 	andeq	r0, r0, r0, lsr r0
 650:	84080e42 	strhi	r0, [r8], #-3650	; 0xfffff1be
 654:	00018e02 	andeq	r8, r1, r2, lsl #28
 658:	00000014 	andeq	r0, r0, r4, lsl r0
 65c:	000005b0 			; <UNDEFINED> instruction: 0x000005b0
 660:	00009700 	andeq	r9, r0, r0, lsl #14
 664:	00000030 	andeq	r0, r0, r0, lsr r0
 668:	84080e42 	strhi	r0, [r8], #-3650	; 0xfffff1be
 66c:	00018e02 	andeq	r8, r1, r2, lsl #28
 670:	00000014 	andeq	r0, r0, r4, lsl r0
 674:	000005b0 			; <UNDEFINED> instruction: 0x000005b0
 678:	00009730 	andeq	r9, r0, r0, lsr r7
 67c:	00000010 	andeq	r0, r0, r0, lsl r0
 680:	84080e42 	strhi	r0, [r8], #-3650	; 0xfffff1be
 684:	00018e02 	andeq	r8, r1, r2, lsl #28
 688:	00000014 	andeq	r0, r0, r4, lsl r0
 68c:	000005b0 			; <UNDEFINED> instruction: 0x000005b0
 690:	00009740 	andeq	r9, r0, r0, asr #14
 694:	00000020 	andeq	r0, r0, r0, lsr #32
 698:	84080e42 	strhi	r0, [r8], #-3650	; 0xfffff1be
 69c:	00018e02 	andeq	r8, r1, r2, lsl #28
 6a0:	00000014 	andeq	r0, r0, r4, lsl r0
 6a4:	000005b0 			; <UNDEFINED> instruction: 0x000005b0
 6a8:	00009760 	andeq	r9, r0, r0, ror #14
 6ac:	00000014 	andeq	r0, r0, r4, lsl r0
 6b0:	84080e42 	strhi	r0, [r8], #-3650	; 0xfffff1be
 6b4:	00018e02 	andeq	r8, r1, r2, lsl #28
 6b8:	00000014 	andeq	r0, r0, r4, lsl r0
 6bc:	000005b0 			; <UNDEFINED> instruction: 0x000005b0
 6c0:	00009774 	andeq	r9, r0, r4, ror r7
 6c4:	00000024 	andeq	r0, r0, r4, lsr #32
 6c8:	84080e42 	strhi	r0, [r8], #-3650	; 0xfffff1be
 6cc:	00018e02 	andeq	r8, r1, r2, lsl #28
 6d0:	0000000c 	andeq	r0, r0, ip
 6d4:	ffffffff 			; <UNDEFINED> instruction: 0xffffffff
 6d8:	7c020001 	stcvc	0, cr0, [r2], {1}
 6dc:	000d0c0e 	andeq	r0, sp, lr, lsl #24
 6e0:	0000000c 	andeq	r0, r0, ip
 6e4:	000006d0 	ldrdeq	r0, [r0], -r0	; <UNPREDICTABLE>
 6e8:	00009798 	muleq	r0, r8, r7
 6ec:	00000010 	andeq	r0, r0, r0, lsl r0
 6f0:	0000000c 	andeq	r0, r0, ip
 6f4:	000006d0 	ldrdeq	r0, [r0], -r0	; <UNPREDICTABLE>
 6f8:	000097a8 	andeq	r9, r0, r8, lsr #15
 6fc:	00000010 	andeq	r0, r0, r0, lsl r0
 700:	0000000c 	andeq	r0, r0, ip
 704:	000006d0 	ldrdeq	r0, [r0], -r0	; <UNPREDICTABLE>
 708:	000097b8 			; <UNDEFINED> instruction: 0x000097b8
 70c:	00000010 	andeq	r0, r0, r0, lsl r0
 710:	0000001c 	andeq	r0, r0, ip, lsl r0
 714:	000006d0 	ldrdeq	r0, [r0], -r0	; <UNPREDICTABLE>
 718:	000097c8 	andeq	r9, r0, r8, asr #15
 71c:	0000009c 	muleq	r0, ip, r0
 720:	8e040e42 	cdphi	14, 0, cr0, cr4, cr2, {2}
 724:	100e4201 	andne	r4, lr, r1, lsl #4
 728:	040e0a58 	streq	r0, [lr], #-2648	; 0xfffff5a8
 72c:	00000b42 	andeq	r0, r0, r2, asr #22
 730:	00000014 	andeq	r0, r0, r4, lsl r0
 734:	000006d0 	ldrdeq	r0, [r0], -r0	; <UNPREDICTABLE>
 738:	00009864 	andeq	r9, r0, r4, ror #16
 73c:	00000058 	andeq	r0, r0, r8, asr r0
 740:	84080e42 	strhi	r0, [r8], #-3650	; 0xfffff1be
 744:	00018e02 	andeq	r8, r1, r2, lsl #28
 748:	0000001c 	andeq	r0, r0, ip, lsl r0
 74c:	000006d0 	ldrdeq	r0, [r0], -r0	; <UNPREDICTABLE>
 750:	000098bc 			; <UNDEFINED> instruction: 0x000098bc
 754:	00000098 	muleq	r0, r8, r0
 758:	8e040e42 	cdphi	14, 0, cr0, cr4, cr2, {2}
 75c:	100e4201 	andne	r4, lr, r1, lsl #4
 760:	040e0a58 	streq	r0, [lr], #-2648	; 0xfffff5a8
 764:	00000b42 	andeq	r0, r0, r2, asr #22
 768:	00000020 	andeq	r0, r0, r0, lsr #32
 76c:	000006d0 	ldrdeq	r0, [r0], -r0	; <UNPREDICTABLE>
 770:	00009954 	andeq	r9, r0, r4, asr r9
 774:	00000064 	andeq	r0, r0, r4, rrx
 778:	840c0e42 	strhi	r0, [ip], #-3650	; 0xfffff1be
 77c:	8e028503 	cfsh32hi	mvfx8, mvfx2, #3
 780:	180e4201 	stmdane	lr, {r0, r9, lr}
 784:	0c0e0a54 			; <UNDEFINED> instruction: 0x0c0e0a54
 788:	00000b42 	andeq	r0, r0, r2, asr #22
 78c:	0000001c 	andeq	r0, r0, ip, lsl r0
 790:	000006d0 	ldrdeq	r0, [r0], -r0	; <UNPREDICTABLE>
 794:	000099b8 			; <UNDEFINED> instruction: 0x000099b8
 798:	00000118 	andeq	r0, r0, r8, lsl r1
 79c:	8e040e42 	cdphi	14, 0, cr0, cr4, cr2, {2}
 7a0:	100e4201 	andne	r4, lr, r1, lsl #4
 7a4:	040e0a6c 	streq	r0, [lr], #-2668	; 0xfffff594
 7a8:	00000b42 	andeq	r0, r0, r2, asr #22
 7ac:	0000000c 	andeq	r0, r0, ip
 7b0:	000006d0 	ldrdeq	r0, [r0], -r0	; <UNPREDICTABLE>
 7b4:	00009ad0 	ldrdeq	r9, [r0], -r0
 7b8:	00000004 	andeq	r0, r0, r4
 7bc:	0000000c 	andeq	r0, r0, ip
 7c0:	000006d0 	ldrdeq	r0, [r0], -r0	; <UNPREDICTABLE>
 7c4:	00009ad4 	ldrdeq	r9, [r0], -r4
 7c8:	00000014 	andeq	r0, r0, r4, lsl r0
 7cc:	00000014 	andeq	r0, r0, r4, lsl r0
 7d0:	000006d0 	ldrdeq	r0, [r0], -r0	; <UNPREDICTABLE>
 7d4:	00009ae8 	andeq	r9, r0, r8, ror #21
 7d8:	00000060 	andeq	r0, r0, r0, rrx
 7dc:	8e040e58 	mcrhi	14, 0, r0, cr4, cr8, {2}
 7e0:	100e4201 	andne	r4, lr, r1, lsl #4
 7e4:	0000000c 	andeq	r0, r0, ip
 7e8:	ffffffff 			; <UNDEFINED> instruction: 0xffffffff
 7ec:	7c020001 	stcvc	0, cr0, [r2], {1}
 7f0:	000d0c0e 	andeq	r0, sp, lr, lsl #24
 7f4:	00000014 	andeq	r0, r0, r4, lsl r0
 7f8:	000007e4 	andeq	r0, r0, r4, ror #15
 7fc:	00009b48 	andeq	r9, r0, r8, asr #22
 800:	00000014 	andeq	r0, r0, r4, lsl r0
 804:	84080e42 	strhi	r0, [r8], #-3650	; 0xfffff1be
 808:	00018e02 	andeq	r8, r1, r2, lsl #28
 80c:	0000000c 	andeq	r0, r0, ip
 810:	000007e4 	andeq	r0, r0, r4, ror #15
 814:	00009b5c 	andeq	r9, r0, ip, asr fp
 818:	00000018 	andeq	r0, r0, r8, lsl r0
 81c:	0000000c 	andeq	r0, r0, ip
 820:	000007e4 	andeq	r0, r0, r4, ror #15
 824:	00009b74 	andeq	r9, r0, r4, ror fp
 828:	00000010 	andeq	r0, r0, r0, lsl r0
 82c:	0000000c 	andeq	r0, r0, ip
 830:	ffffffff 			; <UNDEFINED> instruction: 0xffffffff
 834:	7c020001 	stcvc	0, cr0, [r2], {1}
 838:	000d0c0e 	andeq	r0, sp, lr, lsl #24
 83c:	0000000c 	andeq	r0, r0, ip
 840:	0000082c 	andeq	r0, r0, ip, lsr #16
 844:	00009b84 	andeq	r9, r0, r4, lsl #23
 848:	00000034 	andeq	r0, r0, r4, lsr r0
 84c:	0000000c 	andeq	r0, r0, ip
 850:	ffffffff 			; <UNDEFINED> instruction: 0xffffffff
 854:	7c020001 	stcvc	0, cr0, [r2], {1}
 858:	000d0c0e 	andeq	r0, sp, lr, lsl #24
 85c:	0000000c 	andeq	r0, r0, ip
 860:	0000084c 	andeq	r0, r0, ip, asr #16
 864:	00009bb8 			; <UNDEFINED> instruction: 0x00009bb8
 868:	0000002c 	andeq	r0, r0, ip, lsr #32
 86c:	0000000c 	andeq	r0, r0, ip
 870:	ffffffff 			; <UNDEFINED> instruction: 0xffffffff
 874:	7c020001 	stcvc	0, cr0, [r2], {1}
 878:	000d0c0e 	andeq	r0, sp, lr, lsl #24
 87c:	0000000c 	andeq	r0, r0, ip
 880:	0000086c 	andeq	r0, r0, ip, ror #16
 884:	00009be4 	andeq	r9, r0, r4, ror #23
 888:	00000020 	andeq	r0, r0, r0, lsr #32
 88c:	0000000c 	andeq	r0, r0, ip
 890:	ffffffff 			; <UNDEFINED> instruction: 0xffffffff
 894:	7c020001 	stcvc	0, cr0, [r2], {1}
 898:	000d0c0e 	andeq	r0, sp, lr, lsl #24
 89c:	0000000c 	andeq	r0, r0, ip
 8a0:	0000088c 	andeq	r0, r0, ip, lsl #17
 8a4:	00009c04 	andeq	r9, r0, r4, lsl #24
 8a8:	0000002c 	andeq	r0, r0, ip, lsr #32
 8ac:	0000000c 	andeq	r0, r0, ip
 8b0:	ffffffff 			; <UNDEFINED> instruction: 0xffffffff
 8b4:	7c020001 	stcvc	0, cr0, [r2], {1}
 8b8:	000d0c0e 	andeq	r0, sp, lr, lsl #24
 8bc:	0000000c 	andeq	r0, r0, ip
 8c0:	000008ac 	andeq	r0, r0, ip, lsr #17
 8c4:	00009c30 	andeq	r9, r0, r0, lsr ip
 8c8:	00000004 	andeq	r0, r0, r4
 8cc:	0000000c 	andeq	r0, r0, ip
 8d0:	ffffffff 			; <UNDEFINED> instruction: 0xffffffff
 8d4:	7c020001 	stcvc	0, cr0, [r2], {1}
 8d8:	000d0c0e 	andeq	r0, sp, lr, lsl #24
 8dc:	00000018 	andeq	r0, r0, r8, lsl r0
 8e0:	000008cc 	andeq	r0, r0, ip, asr #17
 8e4:	00009c4c 	andeq	r9, r0, ip, asr #24
 8e8:	00000064 	andeq	r0, r0, r4, rrx
 8ec:	84100e46 	ldrhi	r0, [r0], #-3654	; 0xfffff1ba
 8f0:	86038504 	strhi	r8, [r3], -r4, lsl #10
 8f4:	00018e02 	andeq	r8, r1, r2, lsl #28
 8f8:	00000014 	andeq	r0, r0, r4, lsl r0
 8fc:	000008cc 	andeq	r0, r0, ip, asr #17
 900:	00009cb0 			; <UNDEFINED> instruction: 0x00009cb0
 904:	00000010 	andeq	r0, r0, r0, lsl r0
 908:	84080e42 	strhi	r0, [r8], #-3650	; 0xfffff1be
 90c:	00018e02 	andeq	r8, r1, r2, lsl #28
 910:	00000014 	andeq	r0, r0, r4, lsl r0
 914:	000008cc 	andeq	r0, r0, ip, asr #17
 918:	00009cc0 	andeq	r9, r0, r0, asr #25
 91c:	00000024 	andeq	r0, r0, r4, lsr #32
 920:	84080e46 	strhi	r0, [r8], #-3654	; 0xfffff1ba
 924:	00018e02 	andeq	r8, r1, r2, lsl #28
 928:	00000014 	andeq	r0, r0, r4, lsl r0
 92c:	000008cc 	andeq	r0, r0, ip, asr #17
 930:	00009ce4 	andeq	r9, r0, r4, ror #25
 934:	00000024 	andeq	r0, r0, r4, lsr #32
 938:	84080e46 	strhi	r0, [r8], #-3654	; 0xfffff1ba
 93c:	00018e02 	andeq	r8, r1, r2, lsl #28
 940:	00000014 	andeq	r0, r0, r4, lsl r0
 944:	000008cc 	andeq	r0, r0, ip, asr #17
 948:	00009d08 	andeq	r9, r0, r8, lsl #26
 94c:	00000010 	andeq	r0, r0, r0, lsl r0
 950:	84080e42 	strhi	r0, [r8], #-3650	; 0xfffff1be
 954:	00018e02 	andeq	r8, r1, r2, lsl #28
 958:	00000014 	andeq	r0, r0, r4, lsl r0
 95c:	000008cc 	andeq	r0, r0, ip, asr #17
 960:	00009d18 	andeq	r9, r0, r8, lsl sp
 964:	0000001c 	andeq	r0, r0, ip, lsl r0
 968:	84080e42 	strhi	r0, [r8], #-3650	; 0xfffff1be
 96c:	00018e02 	andeq	r8, r1, r2, lsl #28
 970:	00000018 	andeq	r0, r0, r8, lsl r0
 974:	000008cc 	andeq	r0, r0, ip, asr #17
 978:	00009d34 	andeq	r9, r0, r4, lsr sp
 97c:	00000034 	andeq	r0, r0, r4, lsr r0
 980:	84080e46 	strhi	r0, [r8], #-3654	; 0xfffff1ba
 984:	4e018e02 	cdpmi	14, 0, cr8, cr1, cr2, {0}
 988:	cec4000e 	cdpgt	0, 12, cr0, cr4, cr14, {0}
