
driver.elf:     file format elf32-littlearm


Disassembly of section .text:

00008000 <__code_start__>:
    8000:	e3a00013 	mov	r0, #19, 0
    8004:	e3800080 	orr	r0, r0, #128, 0	; 0x80
    8008:	e129f000 	msr	CPSR_fc, r0
    800c:	e3a01000 	mov	r1, #0, 0
    8010:	ee071f95 	mcr	15, 0, r1, cr7, cr5, {4}
    8014:	ee110f50 	mrc	15, 0, r0, cr1, cr0, {2}
    8018:	e3800603 	orr	r0, r0, #3145728	; 0x300000
    801c:	e3800503 	orr	r0, r0, #12582912	; 0xc00000
    8020:	ee010f50 	mcr	15, 0, r0, cr1, cr0, {2}
    8024:	e3a00101 	mov	r0, #1073741824	; 0x40000000
    8028:	eee80a10 	vmsr	fpexc, r0
    802c:	e3a000db 	mov	r0, #219, 0	; 0xdb
    8030:	e121f000 	msr	CPSR_c, r0
    8034:	e3a000d3 	mov	r0, #211, 0	; 0xd3
    8038:	e121f000 	msr	CPSR_c, r0
    803c:	e3a0d302 	mov	sp, #134217728	; 0x8000000
    8040:	e3a0b000 	mov	fp, #0, 0
    8044:	eb0003de 	bl	8fc4 <_cstart>
    8048:	eb0003fe 	bl	9048 <rpi_reboot>

0000804c <PUT32>:
    804c:	e5801000 	str	r1, [r0]
    8050:	e12fff1e 	bx	lr

00008054 <GET32>:
    8054:	e5900000 	ldr	r0, [r0]
    8058:	e12fff1e 	bx	lr

0000805c <BRANCHTO>:
    805c:	e12fff10 	bx	r0

00008060 <m4add>:
    8060:	ee000a10 	vmov	s0, r0
    8064:	ee001a90 	vmov	s1, r1
    8068:	ee012a10 	vmov	s2, r2
    806c:	ee013a90 	vmov	s3, r3
    8070:	ee302a20 	vadd.f32	s4, s0, s1
    8074:	ee712a21 	vadd.f32	s5, s2, s3
    8078:	ee120a90 	vmov	r0, s5
    807c:	e12fff1e 	bx	lr

00008080 <m4add2>:
    8080:	ee000a10 	vmov	s0, r0
    8084:	ee001a90 	vmov	s1, r1
    8088:	ee012a10 	vmov	s2, r2
    808c:	ee013a90 	vmov	s3, r3
    8090:	ee302a20 	vadd.f32	s4, s0, s1
    8094:	ee712a21 	vadd.f32	s5, s2, s3
    8098:	ee120a10 	vmov	r0, s4
    809c:	e12fff1e 	bx	lr

000080a0 <m4vmov>:
    80a0:	ee020a10 	vmov	s4, r0
    80a4:	ee020a90 	vmov	s5, r0
    80a8:	e12fff1e 	bx	lr

000080ac <notmain>:
    80ac:	e92d4070 	push	{r4, r5, r6, lr}
    80b0:	eb000037 	bl	8194 <ads1115_config>
    80b4:	e1a05000 	mov	r5, r0
    80b8:	e3a04000 	mov	r4, #0, 0
    80bc:	e3540063 	cmp	r4, #99, 0	; 0x63
    80c0:	ca000009 	bgt	80ec <notmain+0x40>
    80c4:	e3a01000 	mov	r1, #0, 0
    80c8:	e1a00005 	mov	r0, r5
    80cc:	eb00001d 	bl	8148 <ads1115_read16>
    80d0:	e6bf1070 	sxth	r1, r0
    80d4:	e59f0014 	ldr	r0, [pc, #20]	; 80f0 <notmain+0x44>
    80d8:	eb00014a 	bl	8608 <printk>
    80dc:	e3a00ffa 	mov	r0, #1000	; 0x3e8
    80e0:	eb000402 	bl	90f0 <delay_ms>
    80e4:	e2844001 	add	r4, r4, #1, 0
    80e8:	eafffff3 	b	80bc <notmain+0x10>
    80ec:	eb0003a9 	bl	8f98 <clean_reboot>
    80f0:	000093c0 	andeq	r9, r0, r0, asr #7

000080f4 <ads1115_reset>:
    80f4:	e52de004 	push	{lr}		; (str lr, [sp, #-4]!)
    80f8:	e24dd00c 	sub	sp, sp, #12, 0
    80fc:	e3a03006 	mov	r3, #6, 0
    8100:	e5cd3007 	strb	r3, [sp, #7]
    8104:	e3a02001 	mov	r2, #1, 0
    8108:	e28d1007 	add	r1, sp, #7, 0
    810c:	e3a00000 	mov	r0, #0, 0
    8110:	eb000070 	bl	82d8 <i2c_write>
    8114:	e28dd00c 	add	sp, sp, #12, 0
    8118:	e49df004 	pop	{pc}		; (ldr pc, [sp], #4)

0000811c <ads1115_write16>:
    811c:	e52de004 	push	{lr}		; (str lr, [sp, #-4]!)
    8120:	e24dd00c 	sub	sp, sp, #12, 0
    8124:	e5cd1004 	strb	r1, [sp, #4]
    8128:	e1a03422 	lsr	r3, r2, #8
    812c:	e5cd3005 	strb	r3, [sp, #5]
    8130:	e5cd2006 	strb	r2, [sp, #6]
    8134:	e3a02003 	mov	r2, #3, 0
    8138:	e28d1004 	add	r1, sp, #4, 0
    813c:	eb000065 	bl	82d8 <i2c_write>
    8140:	e28dd00c 	add	sp, sp, #12, 0
    8144:	e49df004 	pop	{pc}		; (ldr pc, [sp], #4)

00008148 <ads1115_read16>:
    8148:	e92d4010 	push	{r4, lr}
    814c:	e24dd008 	sub	sp, sp, #8, 0
    8150:	e1a04000 	mov	r4, r0
    8154:	e5cd1004 	strb	r1, [sp, #4]
    8158:	e3a02001 	mov	r2, #1, 0
    815c:	e28d1004 	add	r1, sp, #4, 0
    8160:	eb00005c 	bl	82d8 <i2c_write>
    8164:	e3a02002 	mov	r2, #2, 0
    8168:	e1a0100d 	mov	r1, sp
    816c:	e1a00004 	mov	r0, r4
    8170:	eb00008d 	bl	83ac <i2c_read>
    8174:	e5dd0000 	ldrb	r0, [sp]
    8178:	e5dd3001 	ldrb	r3, [sp, #1]
    817c:	e1830400 	orr	r0, r3, r0, lsl #8
    8180:	e28dd008 	add	sp, sp, #8, 0
    8184:	e8bd8010 	pop	{r4, pc}

00008188 <ads1115_setup>:
    8188:	e3c00c0f 	bic	r0, r0, #3840	; 0xf00
    818c:	e3800e2e 	orr	r0, r0, #736	; 0x2e0
    8190:	e12fff1e 	bx	lr

00008194 <ads1115_config>:
    8194:	e92d4010 	push	{r4, lr}
    8198:	e24dd008 	sub	sp, sp, #8, 0
    819c:	e3a0001e 	mov	r0, #30, 0
    81a0:	eb0003d2 	bl	90f0 <delay_ms>
    81a4:	eb0000b3 	bl	8478 <i2c_init>
    81a8:	e3a0001e 	mov	r0, #30, 0
    81ac:	eb0003cf 	bl	90f0 <delay_ms>
    81b0:	ebffffcf 	bl	80f4 <ads1115_reset>
    81b4:	e3a00019 	mov	r0, #25, 0
    81b8:	eb0003c3 	bl	90cc <delay_us>
    81bc:	e3a01001 	mov	r1, #1, 0
    81c0:	e3a00048 	mov	r0, #72, 0	; 0x48
    81c4:	ebffffdf 	bl	8148 <ads1115_read16>
    81c8:	e1a04000 	mov	r4, r0
    81cc:	e1a03420 	lsr	r3, r0, #8
    81d0:	e6ff3073 	uxth	r3, r3
    81d4:	e6ef2070 	uxtb	r2, r0
    81d8:	e1a01000 	mov	r1, r0
    81dc:	e59f00ac 	ldr	r0, [pc, #172]	; 8290 <ads1115_config+0xfc>
    81e0:	eb000108 	bl	8608 <printk>
    81e4:	e3c43c7a 	bic	r3, r4, #31232	; 0x7a00
    81e8:	e3c3307c 	bic	r3, r3, #124, 0	; 0x7c
    81ec:	e6ff3073 	uxth	r3, r3
    81f0:	e59f209c 	ldr	r2, [pc, #156]	; 8294 <ads1115_config+0x100>
    81f4:	e1530002 	cmp	r3, r2
    81f8:	1a000012 	bne	8248 <ads1115_config+0xb4>
    81fc:	e1a00004 	mov	r0, r4
    8200:	ebffffe0 	bl	8188 <ads1115_setup>
    8204:	e1a04000 	mov	r4, r0
    8208:	e1a01000 	mov	r1, r0
    820c:	e59f0084 	ldr	r0, [pc, #132]	; 8298 <ads1115_config+0x104>
    8210:	eb0000fc 	bl	8608 <printk>
    8214:	e1a02004 	mov	r2, r4
    8218:	e3a01001 	mov	r1, #1, 0
    821c:	e3a00048 	mov	r0, #72, 0	; 0x48
    8220:	ebffffbd 	bl	811c <ads1115_write16>
    8224:	e3a01001 	mov	r1, #1, 0
    8228:	e3a00048 	mov	r0, #72, 0	; 0x48
    822c:	ebffffc5 	bl	8148 <ads1115_read16>
    8230:	e59f3064 	ldr	r3, [pc, #100]	; 829c <ads1115_config+0x108>
    8234:	e1500003 	cmp	r0, r3
    8238:	1a00000b 	bne	826c <ads1115_config+0xd8>
    823c:	e3a00048 	mov	r0, #72, 0	; 0x48
    8240:	e28dd008 	add	sp, sp, #8, 0
    8244:	e8bd8010 	pop	{r4, pc}
    8248:	eb000109 	bl	8674 <rpi_reset_putc>
    824c:	e59f304c 	ldr	r3, [pc, #76]	; 82a0 <ads1115_config+0x10c>
    8250:	e58d3000 	str	r3, [sp]
    8254:	e3a0307c 	mov	r3, #124, 0	; 0x7c
    8258:	e59f2044 	ldr	r2, [pc, #68]	; 82a4 <ads1115_config+0x110>
    825c:	e59f1044 	ldr	r1, [pc, #68]	; 82a8 <ads1115_config+0x114>
    8260:	e59f0044 	ldr	r0, [pc, #68]	; 82ac <ads1115_config+0x118>
    8264:	eb0000e7 	bl	8608 <printk>
    8268:	eb00034a 	bl	8f98 <clean_reboot>
    826c:	eb000100 	bl	8674 <rpi_reset_putc>
    8270:	e59f3038 	ldr	r3, [pc, #56]	; 82b0 <ads1115_config+0x11c>
    8274:	e58d3000 	str	r3, [sp]
    8278:	e3a0308e 	mov	r3, #142, 0	; 0x8e
    827c:	e59f2020 	ldr	r2, [pc, #32]	; 82a4 <ads1115_config+0x110>
    8280:	e59f1020 	ldr	r1, [pc, #32]	; 82a8 <ads1115_config+0x114>
    8284:	e59f0028 	ldr	r0, [pc, #40]	; 82b4 <ads1115_config+0x120>
    8288:	eb0000de 	bl	8608 <printk>
    828c:	eb000341 	bl	8f98 <clean_reboot>
    8290:	000093c8 	andeq	r9, r0, r8, asr #7
    8294:	00008583 	andeq	r8, r0, r3, lsl #11
    8298:	0000945c 	andeq	r9, r0, ip, asr r4
    829c:	000002e3 	andeq	r0, r0, r3, ror #5
    82a0:	0000943c 	andeq	r9, r0, ip, lsr r4
    82a4:	000094d8 	ldrdeq	r9, [r0], -r8
    82a8:	000093f4 	strdeq	r9, [r0], -r4
    82ac:	00009400 	andeq	r9, r0, r0, lsl #8
    82b0:	000094bc 			; <UNDEFINED> instruction: 0x000094bc
    82b4:	00009470 	andeq	r9, r0, r0, ror r4

000082b8 <read_c>:
    82b8:	e92d4010 	push	{r4, lr}
    82bc:	ebffff64 	bl	8054 <GET32>
    82c0:	e8bd8010 	pop	{r4, pc}

000082c4 <read_s>:
    82c4:	e92d4010 	push	{r4, lr}
    82c8:	ebffff61 	bl	8054 <GET32>
    82cc:	e8bd8010 	pop	{r4, pc}

000082d0 <check_layout>:
    82d0:	e52de004 	push	{lr}		; (str lr, [sp, #-4]!)
    82d4:	e49df004 	pop	{pc}		; (ldr pc, [sp], #4)

000082d8 <i2c_write>:
    82d8:	e92d41f0 	push	{r4, r5, r6, r7, r8, lr}
    82dc:	e1a07000 	mov	r7, r0
    82e0:	e1a06001 	mov	r6, r1
    82e4:	e1a05002 	mov	r5, r2
    82e8:	eb000345 	bl	9004 <dev_barrier>
    82ec:	e59f40b0 	ldr	r4, [pc, #176]	; 83a4 <i2c_write+0xcc>
    82f0:	e1a00004 	mov	r0, r4
    82f4:	ebfffff2 	bl	82c4 <read_s>
    82f8:	e3801c03 	orr	r1, r0, #768	; 0x300
    82fc:	e3811002 	orr	r1, r1, #2, 0
    8300:	e1a00004 	mov	r0, r4
    8304:	ebffff50 	bl	804c <PUT32>
    8308:	e59f3098 	ldr	r3, [pc, #152]	; 83a8 <i2c_write+0xd0>
    830c:	e5933004 	ldr	r3, [r3, #4]
    8310:	e3130001 	tst	r3, #1, 0
    8314:	1afffffb 	bne	8308 <i2c_write+0x30>
    8318:	e59f8088 	ldr	r8, [pc, #136]	; 83a8 <i2c_write+0xd0>
    831c:	e1a00008 	mov	r0, r8
    8320:	ebffffe4 	bl	82b8 <read_c>
    8324:	e3c01010 	bic	r1, r0, #16, 0
    8328:	e3811020 	orr	r1, r1, #32, 0
    832c:	e3c11001 	bic	r1, r1, #1, 0
    8330:	e3811080 	orr	r1, r1, #128, 0	; 0x80
    8334:	e1a00008 	mov	r0, r8
    8338:	ebffff43 	bl	804c <PUT32>
    833c:	e5885008 	str	r5, [r8, #8]
    8340:	e588700c 	str	r7, [r8, #12]
    8344:	e3a00000 	mov	r0, #0, 0
    8348:	ea000007 	b	836c <i2c_write+0x94>
    834c:	e59f3054 	ldr	r3, [pc, #84]	; 83a8 <i2c_write+0xd0>
    8350:	e5933004 	ldr	r3, [r3, #4]
    8354:	e3130010 	tst	r3, #16, 0
    8358:	0afffffb 	beq	834c <i2c_write+0x74>
    835c:	e7d62000 	ldrb	r2, [r6, r0]
    8360:	e59f3040 	ldr	r3, [pc, #64]	; 83a8 <i2c_write+0xd0>
    8364:	e5832010 	str	r2, [r3, #16]
    8368:	e2800001 	add	r0, r0, #1, 0
    836c:	e1500005 	cmp	r0, r5
    8370:	3afffff5 	bcc	834c <i2c_write+0x74>
    8374:	e59f302c 	ldr	r3, [pc, #44]	; 83a8 <i2c_write+0xd0>
    8378:	e5933004 	ldr	r3, [r3, #4]
    837c:	e3130002 	tst	r3, #2, 0
    8380:	0afffffb 	beq	8374 <i2c_write+0x9c>
    8384:	e1a00004 	mov	r0, r4
    8388:	ebffffcd 	bl	82c4 <read_s>
    838c:	e3801002 	orr	r1, r0, #2, 0
    8390:	e59f000c 	ldr	r0, [pc, #12]	; 83a4 <i2c_write+0xcc>
    8394:	ebffff2c 	bl	804c <PUT32>
    8398:	eb000319 	bl	9004 <dev_barrier>
    839c:	e3a00001 	mov	r0, #1, 0
    83a0:	e8bd81f0 	pop	{r4, r5, r6, r7, r8, pc}
    83a4:	20804004 	addcs	r4, r0, r4
    83a8:	20804000 	addcs	r4, r0, r0

000083ac <i2c_read>:
    83ac:	e92d41f0 	push	{r4, r5, r6, r7, r8, lr}
    83b0:	e1a08000 	mov	r8, r0
    83b4:	e1a06001 	mov	r6, r1
    83b8:	e1a05002 	mov	r5, r2
    83bc:	eb000310 	bl	9004 <dev_barrier>
    83c0:	e59f40a8 	ldr	r4, [pc, #168]	; 8470 <i2c_read+0xc4>
    83c4:	e1a00004 	mov	r0, r4
    83c8:	ebffffbd 	bl	82c4 <read_s>
    83cc:	e3801c03 	orr	r1, r0, #768	; 0x300
    83d0:	e3811002 	orr	r1, r1, #2, 0
    83d4:	e1a00004 	mov	r0, r4
    83d8:	ebffff1b 	bl	804c <PUT32>
    83dc:	e59f3090 	ldr	r3, [pc, #144]	; 8474 <i2c_read+0xc8>
    83e0:	e5933004 	ldr	r3, [r3, #4]
    83e4:	e3130001 	tst	r3, #1, 0
    83e8:	1afffffb 	bne	83dc <i2c_read+0x30>
    83ec:	e59f7080 	ldr	r7, [pc, #128]	; 8474 <i2c_read+0xc8>
    83f0:	e1a00007 	mov	r0, r7
    83f4:	ebffffaf 	bl	82b8 <read_c>
    83f8:	e3c01010 	bic	r1, r0, #16, 0
    83fc:	e587800c 	str	r8, [r7, #12]
    8400:	e5875008 	str	r5, [r7, #8]
    8404:	e38110a1 	orr	r1, r1, #161, 0	; 0xa1
    8408:	e1a00007 	mov	r0, r7
    840c:	ebffff0e 	bl	804c <PUT32>
    8410:	e3a00000 	mov	r0, #0, 0
    8414:	ea000007 	b	8438 <i2c_read+0x8c>
    8418:	e59f3054 	ldr	r3, [pc, #84]	; 8474 <i2c_read+0xc8>
    841c:	e5933004 	ldr	r3, [r3, #4]
    8420:	e3130020 	tst	r3, #32, 0
    8424:	0afffffb 	beq	8418 <i2c_read+0x6c>
    8428:	e59f3044 	ldr	r3, [pc, #68]	; 8474 <i2c_read+0xc8>
    842c:	e5933010 	ldr	r3, [r3, #16]
    8430:	e7c63000 	strb	r3, [r6, r0]
    8434:	e2800001 	add	r0, r0, #1, 0
    8438:	e1500005 	cmp	r0, r5
    843c:	3afffff5 	bcc	8418 <i2c_read+0x6c>
    8440:	e59f302c 	ldr	r3, [pc, #44]	; 8474 <i2c_read+0xc8>
    8444:	e5933004 	ldr	r3, [r3, #4]
    8448:	e3130002 	tst	r3, #2, 0
    844c:	0afffffb 	beq	8440 <i2c_read+0x94>
    8450:	e1a00004 	mov	r0, r4
    8454:	ebffff9a 	bl	82c4 <read_s>
    8458:	e3801002 	orr	r1, r0, #2, 0
    845c:	e59f000c 	ldr	r0, [pc, #12]	; 8470 <i2c_read+0xc4>
    8460:	ebfffef9 	bl	804c <PUT32>
    8464:	eb0002e6 	bl	9004 <dev_barrier>
    8468:	e3a00001 	mov	r0, #1, 0
    846c:	e8bd81f0 	pop	{r4, r5, r6, r7, r8, pc}
    8470:	20804004 	addcs	r4, r0, r4
    8474:	20804000 	addcs	r4, r0, r0

00008478 <i2c_init>:
    8478:	e92d41f0 	push	{r4, r5, r6, r7, r8, lr}
    847c:	ebffff93 	bl	82d0 <check_layout>
    8480:	eb0002df 	bl	9004 <dev_barrier>
    8484:	e3a01004 	mov	r1, #4, 0
    8488:	e3a00002 	mov	r0, #2, 0
    848c:	eb000016 	bl	84ec <gpio_set_function>
    8490:	e3a01004 	mov	r1, #4, 0
    8494:	e3a00003 	mov	r0, #3, 0
    8498:	eb000013 	bl	84ec <gpio_set_function>
    849c:	eb0002d8 	bl	9004 <dev_barrier>
    84a0:	e59f703c 	ldr	r7, [pc, #60]	; 84e4 <i2c_init+0x6c>
    84a4:	e1a00007 	mov	r0, r7
    84a8:	ebffff85 	bl	82c4 <read_s>
    84ac:	e1a05000 	mov	r5, r0
    84b0:	e59f6030 	ldr	r6, [pc, #48]	; 84e8 <i2c_init+0x70>
    84b4:	e1a00006 	mov	r0, r6
    84b8:	ebffff7e 	bl	82b8 <read_c>
    84bc:	e3804902 	orr	r4, r0, #32768	; 0x8000
    84c0:	e3851c03 	orr	r1, r5, #768	; 0x300
    84c4:	e3811002 	orr	r1, r1, #2, 0
    84c8:	e1a00007 	mov	r0, r7
    84cc:	ebfffede 	bl	804c <PUT32>
    84d0:	e1a01004 	mov	r1, r4
    84d4:	e1a00006 	mov	r0, r6
    84d8:	ebfffedb 	bl	804c <PUT32>
    84dc:	eb0002c8 	bl	9004 <dev_barrier>
    84e0:	e8bd81f0 	pop	{r4, r5, r6, r7, r8, pc}
    84e4:	20804004 	addcs	r4, r0, r4
    84e8:	20804000 	addcs	r4, r0, r0

000084ec <gpio_set_function>:
    84ec:	e350001f 	cmp	r0, #31, 0
    84f0:	812fff1e 	bxhi	lr
    84f4:	e92d4070 	push	{r4, r5, r6, lr}
    84f8:	e1a05001 	mov	r5, r1
    84fc:	e3d13007 	bics	r3, r1, #7, 0
    8500:	18bd8070 	popne	{r4, r5, r6, pc}
    8504:	e59f3040 	ldr	r3, [pc, #64]	; 854c <gpio_set_function+0x60>
    8508:	e0832093 	umull	r2, r3, r3, r0
    850c:	e1a031a3 	lsr	r3, r3, #3
    8510:	e1a02003 	mov	r2, r3
    8514:	e0833103 	add	r3, r3, r3, lsl #2
    8518:	e0403083 	sub	r3, r0, r3, lsl #1
    851c:	e0834083 	add	r4, r3, r3, lsl #1
    8520:	e2820302 	add	r0, r2, #134217728	; 0x8000000
    8524:	e2800702 	add	r0, r0, #524288	; 0x80000
    8528:	e1a06100 	lsl	r6, r0, #2
    852c:	e1a00006 	mov	r0, r6
    8530:	ebfffec7 	bl	8054 <GET32>
    8534:	e3a01007 	mov	r1, #7, 0
    8538:	e1c01411 	bic	r1, r0, r1, lsl r4
    853c:	e1811415 	orr	r1, r1, r5, lsl r4
    8540:	e1a00006 	mov	r0, r6
    8544:	ebfffec0 	bl	804c <PUT32>
    8548:	e8bd8070 	pop	{r4, r5, r6, pc}
    854c:	cccccccd 	stclgt	12, cr12, [ip], {205}	; 0xcd

00008550 <gpio_set_output>:
    8550:	e92d4010 	push	{r4, lr}
    8554:	e3a01001 	mov	r1, #1, 0
    8558:	ebffffe3 	bl	84ec <gpio_set_function>
    855c:	e8bd8010 	pop	{r4, pc}

00008560 <gpio_set_on>:
    8560:	e350001f 	cmp	r0, #31, 0
    8564:	812fff1e 	bxhi	lr
    8568:	e92d4010 	push	{r4, lr}
    856c:	e3a01001 	mov	r1, #1, 0
    8570:	e1a01011 	lsl	r1, r1, r0
    8574:	e59f0004 	ldr	r0, [pc, #4]	; 8580 <gpio_set_on+0x20>
    8578:	ebfffeb3 	bl	804c <PUT32>
    857c:	e8bd8010 	pop	{r4, pc}
    8580:	2020001c 	eorcs	r0, r0, ip, lsl r0

00008584 <gpio_set_off>:
    8584:	e350001f 	cmp	r0, #31, 0
    8588:	812fff1e 	bxhi	lr
    858c:	e92d4010 	push	{r4, lr}
    8590:	e3a01001 	mov	r1, #1, 0
    8594:	e1a01011 	lsl	r1, r1, r0
    8598:	e59f0004 	ldr	r0, [pc, #4]	; 85a4 <gpio_set_off+0x20>
    859c:	ebfffeaa 	bl	804c <PUT32>
    85a0:	e8bd8010 	pop	{r4, pc}
    85a4:	20200028 	eorcs	r0, r0, r8, lsr #32

000085a8 <gpio_set_input>:
    85a8:	e92d4010 	push	{r4, lr}
    85ac:	e3a01000 	mov	r1, #0, 0
    85b0:	ebffffcd 	bl	84ec <gpio_set_function>
    85b4:	e8bd8010 	pop	{r4, pc}

000085b8 <gpio_write>:
    85b8:	e92d4010 	push	{r4, lr}
    85bc:	e3510000 	cmp	r1, #0, 0
    85c0:	0a000001 	beq	85cc <gpio_write+0x14>
    85c4:	ebffffe5 	bl	8560 <gpio_set_on>
    85c8:	e8bd8010 	pop	{r4, pc}
    85cc:	ebffffec 	bl	8584 <gpio_set_off>
    85d0:	e8bd8010 	pop	{r4, pc}

000085d4 <gpio_read>:
    85d4:	e350001f 	cmp	r0, #31, 0
    85d8:	8a000007 	bhi	85fc <gpio_read+0x28>
    85dc:	e92d4010 	push	{r4, lr}
    85e0:	e200401f 	and	r4, r0, #31, 0
    85e4:	e59f3018 	ldr	r3, [pc, #24]	; 8604 <gpio_read+0x30>
    85e8:	e08302a0 	add	r0, r3, r0, lsr #5
    85ec:	ebfffe98 	bl	8054 <GET32>
    85f0:	e1a00430 	lsr	r0, r0, r4
    85f4:	e2000001 	and	r0, r0, #1, 0
    85f8:	e8bd8010 	pop	{r4, pc}
    85fc:	e3e00000 	mvn	r0, #0, 0
    8600:	e12fff1e 	bx	lr
    8604:	20200034 	eorcs	r0, r0, r4, lsr r0

00008608 <printk>:
    8608:	e92d000f 	push	{r0, r1, r2, r3}
    860c:	e92d4030 	push	{r4, r5, lr}
    8610:	e24dd00c 	sub	sp, sp, #12, 0
    8614:	e28d301c 	add	r3, sp, #28, 0
    8618:	e58d3004 	str	r3, [sp, #4]
    861c:	e59f5034 	ldr	r5, [pc, #52]	; 8658 <printk+0x50>
    8620:	e59d2018 	ldr	r2, [sp, #24]
    8624:	e3a01b01 	mov	r1, #1024	; 0x400
    8628:	e1a00005 	mov	r0, r5
    862c:	eb000127 	bl	8ad0 <va_printk>
    8630:	e1a04000 	mov	r4, r0
    8634:	e59f3020 	ldr	r3, [pc, #32]	; 865c <printk+0x54>
    8638:	e5933000 	ldr	r3, [r3]
    863c:	e1a00005 	mov	r0, r5
    8640:	e12fff33 	blx	r3
    8644:	e1a00004 	mov	r0, r4
    8648:	e28dd00c 	add	sp, sp, #12, 0
    864c:	e8bd4030 	pop	{r4, r5, lr}
    8650:	e28dd010 	add	sp, sp, #16, 0
    8654:	e12fff1e 	bx	lr
    8658:	0000975c 	andeq	r9, r0, ip, asr r7
    865c:	00009758 	andeq	r9, r0, r8, asr r7

00008660 <internal_putchar>:
    8660:	e92d4010 	push	{r4, lr}
    8664:	e1a04000 	mov	r4, r0
    8668:	eb000302 	bl	9278 <uart_putc>
    866c:	e1a00004 	mov	r0, r4
    8670:	e8bd8010 	pop	{r4, pc}

00008674 <rpi_reset_putc>:
    8674:	e59f3008 	ldr	r3, [pc, #8]	; 8684 <rpi_reset_putc+0x10>
    8678:	e59f2008 	ldr	r2, [pc, #8]	; 8688 <rpi_reset_putc+0x14>
    867c:	e5832000 	str	r2, [r3]
    8680:	e12fff1e 	bx	lr
    8684:	00009754 	andeq	r9, r0, r4, asr r7
    8688:	00008660 	andeq	r8, r0, r0, ror #12

0000868c <rpi_set_putc>:
    868c:	e59f3004 	ldr	r3, [pc, #4]	; 8698 <rpi_set_putc+0xc>
    8690:	e5830000 	str	r0, [r3]
    8694:	e12fff1e 	bx	lr
    8698:	00009754 	andeq	r9, r0, r4, asr r7

0000869c <internal_putk>:
    869c:	e92d4010 	push	{r4, lr}
    86a0:	e1a04000 	mov	r4, r0
    86a4:	e5d40000 	ldrb	r0, [r4]
    86a8:	e3500000 	cmp	r0, #0, 0
    86ac:	0a000004 	beq	86c4 <internal_putk+0x28>
    86b0:	e59f3014 	ldr	r3, [pc, #20]	; 86cc <internal_putk+0x30>
    86b4:	e5933000 	ldr	r3, [r3]
    86b8:	e12fff33 	blx	r3
    86bc:	e2844001 	add	r4, r4, #1, 0
    86c0:	eafffff7 	b	86a4 <internal_putk+0x8>
    86c4:	e3a00001 	mov	r0, #1, 0
    86c8:	e8bd8010 	pop	{r4, pc}
    86cc:	00009754 	andeq	r9, r0, r4, asr r7

000086d0 <isdigit>:
    86d0:	e2400030 	sub	r0, r0, #48, 0	; 0x30
    86d4:	e3500009 	cmp	r0, #9, 0
    86d8:	83a00000 	movhi	r0, #0, 0
    86dc:	93a00001 	movls	r0, #1, 0
    86e0:	e12fff1e 	bx	lr

000086e4 <pad>:
    86e4:	e0401001 	sub	r1, r0, r1
    86e8:	e1510002 	cmp	r1, r2
    86ec:	b3a03020 	movlt	r3, #32, 0
    86f0:	b4c03001 	strblt	r3, [r0], #1
    86f4:	b2811001 	addlt	r1, r1, #1, 0
    86f8:	bafffffa 	blt	86e8 <pad+0x4>
    86fc:	e3a03000 	mov	r3, #0, 0
    8700:	e5c03000 	strb	r3, [r0]
    8704:	e12fff1e 	bx	lr

00008708 <reverse>:
    8708:	e042c003 	sub	ip, r2, r3
    870c:	e28cc001 	add	ip, ip, #1, 0
    8710:	e15c0001 	cmp	ip, r1
    8714:	c04cc001 	subgt	ip, ip, r1
    8718:	c083300c 	addgt	r3, r3, ip
    871c:	e2421001 	sub	r1, r2, #1, 0
    8720:	e1a02000 	mov	r2, r0
    8724:	e1510003 	cmp	r1, r3
    8728:	2451c001 	ldrbcs	ip, [r1], #-1
    872c:	24c2c001 	strbcs	ip, [r2], #1
    8730:	2afffffb 	bcs	8724 <reverse+0x1c>
    8734:	e3a03000 	mov	r3, #0, 0
    8738:	e5c23000 	strb	r3, [r2]
    873c:	e12fff1e 	bx	lr

00008740 <trunc>:
    8740:	eefd7bc0 	vcvt.s32.f64	s15, d0
    8744:	ee170a90 	vmov	r0, s15
    8748:	e12fff1e 	bx	lr

0000874c <fp_get_frac>:
    874c:	e92d4010 	push	{r4, lr}
    8750:	eeb50bc0 	vcmpe.f64	d0, #0.0
    8754:	eef1fa10 	vmrs	APSR_nzcv, fpscr
    8758:	4a00000b 	bmi	878c <fp_get_frac+0x40>
    875c:	ed9f7b0d 	vldr	d7, [pc, #52]	; 8798 <fp_get_frac+0x4c>
    8760:	ee200b07 	vmul.f64	d0, d0, d7
    8764:	ebfffff5 	bl	8740 <trunc>
    8768:	e59f3030 	ldr	r3, [pc, #48]	; 87a0 <fp_get_frac+0x54>
    876c:	e0c23093 	smull	r3, r2, r3, r0
    8770:	e1a03fc0 	asr	r3, r0, #31
    8774:	e0633642 	rsb	r3, r3, r2, asr #12
    8778:	e0632283 	rsb	r2, r3, r3, lsl #5
    877c:	e0833102 	add	r3, r3, r2, lsl #2
    8780:	e0833103 	add	r3, r3, r3, lsl #2
    8784:	e0400203 	sub	r0, r0, r3, lsl #4
    8788:	e8bd8010 	pop	{r4, pc}
    878c:	eeb10b40 	vneg.f64	d0, d0
    8790:	eafffff1 	b	875c <fp_get_frac+0x10>
    8794:	e320f000 	nop	{0}
    8798:	00000000 	andeq	r0, r0, r0
    879c:	40c38800 	sbcmi	r8, r3, r0, lsl #16
    87a0:	68db8bad 	ldmvs	fp, {r0, r2, r3, r5, r7, r8, r9, fp, pc}^

000087a4 <fp_get_integral>:
    87a4:	e92d4010 	push	{r4, lr}
    87a8:	ebffffe4 	bl	8740 <trunc>
    87ac:	e8bd8010 	pop	{r4, pc}

000087b0 <emit>:
    87b0:	e92d40f0 	push	{r4, r5, r6, r7, lr}
    87b4:	e24dd04c 	sub	sp, sp, #76, 0	; 0x4c
    87b8:	e1a05001 	mov	r5, r1
    87bc:	e1a04002 	mov	r4, r2
    87c0:	e59d2060 	ldr	r2, [sp, #96]	; 0x60
    87c4:	e1520004 	cmp	r2, r4
    87c8:	c2442001 	subgt	r2, r4, #1, 0
    87cc:	e1a0c003 	mov	ip, r3
    87d0:	e2400002 	sub	r0, r0, #2, 0
    87d4:	e350000e 	cmp	r0, #14, 0
    87d8:	979ff100 	ldrls	pc, [pc, r0, lsl #2]
    87dc:	ea000050 	b	8924 <emit+0x174>
    87e0:	000088fc 	strdeq	r8, [r0], -ip
    87e4:	00008924 	andeq	r8, r0, r4, lsr #18
    87e8:	00008924 	andeq	r8, r0, r4, lsr #18
    87ec:	00008924 	andeq	r8, r0, r4, lsr #18
    87f0:	00008924 	andeq	r8, r0, r4, lsr #18
    87f4:	00008924 	andeq	r8, r0, r4, lsr #18
    87f8:	000088f0 	strdeq	r8, [r0], -r0
    87fc:	00008924 	andeq	r8, r0, r4, lsr #18
    8800:	0000881c 	andeq	r8, r0, ip, lsl r8
    8804:	00008924 	andeq	r8, r0, r4, lsr #18
    8808:	00008924 	andeq	r8, r0, r4, lsr #18
    880c:	00008924 	andeq	r8, r0, r4, lsr #18
    8810:	00008924 	andeq	r8, r0, r4, lsr #18
    8814:	00008924 	andeq	r8, r0, r4, lsr #18
    8818:	00008894 	muleq	r0, r4, r8
    881c:	e59d1064 	ldr	r1, [sp, #100]	; 0x64
    8820:	e2511000 	subs	r1, r1, #0, 0
    8824:	13a01001 	movne	r1, #1, 0
    8828:	e0111fa3 	ands	r1, r1, r3, lsr #31
    882c:	0a000016 	beq	888c <emit+0xdc>
    8830:	e263c000 	rsb	ip, r3, #0, 0
    8834:	e3a06001 	mov	r6, #1, 0
    8838:	e28d0008 	add	r0, sp, #8, 0
    883c:	e59f3100 	ldr	r3, [pc, #256]	; 8944 <emit+0x194>
    8840:	e0831c93 	umull	r1, r3, r3, ip
    8844:	e1a031a3 	lsr	r3, r3, #3
    8848:	e1a0e003 	mov	lr, r3
    884c:	e0833103 	add	r3, r3, r3, lsl #2
    8850:	e04c3083 	sub	r3, ip, r3, lsl #1
    8854:	e1a01000 	mov	r1, r0
    8858:	e2800001 	add	r0, r0, #1, 0
    885c:	e59f70e4 	ldr	r7, [pc, #228]	; 8948 <emit+0x198>
    8860:	e7d73003 	ldrb	r3, [r7, r3]
    8864:	e5c13000 	strb	r3, [r1]
    8868:	e1a0300c 	mov	r3, ip
    886c:	e1a0c00e 	mov	ip, lr
    8870:	e3530009 	cmp	r3, #9, 0
    8874:	8afffff0 	bhi	883c <emit+0x8c>
    8878:	e3560000 	cmp	r6, #0, 0
    887c:	13a0302d 	movne	r3, #45, 0	; 0x2d
    8880:	15c03000 	strbne	r3, [r0]
    8884:	12810002 	addne	r0, r1, #2, 0
    8888:	ea00000f 	b	88cc <emit+0x11c>
    888c:	e3a06000 	mov	r6, #0, 0
    8890:	eaffffe8 	b	8838 <emit+0x88>
    8894:	e28d1008 	add	r1, sp, #8, 0
    8898:	e20c000f 	and	r0, ip, #15, 0
    889c:	e59fe0a8 	ldr	lr, [pc, #168]	; 894c <emit+0x19c>
    88a0:	e7de0000 	ldrb	r0, [lr, r0]
    88a4:	e5c10000 	strb	r0, [r1]
    88a8:	e2811001 	add	r1, r1, #1, 0
    88ac:	e35c000f 	cmp	ip, #15, 0
    88b0:	e1a0c22c 	lsr	ip, ip, #4
    88b4:	8afffff7 	bhi	8898 <emit+0xe8>
    88b8:	e1a00001 	mov	r0, r1
    88bc:	e3a03078 	mov	r3, #120, 0	; 0x78
    88c0:	e4c03002 	strb	r3, [r0], #2
    88c4:	e3a03030 	mov	r3, #48, 0	; 0x30
    88c8:	e5c13001 	strb	r3, [r1, #1]
    88cc:	e28d1008 	add	r1, sp, #8, 0
    88d0:	ebffff83 	bl	86e4 <pad>
    88d4:	e1a02000 	mov	r2, r0
    88d8:	e28d3008 	add	r3, sp, #8, 0
    88dc:	e1a01004 	mov	r1, r4
    88e0:	e1a00005 	mov	r0, r5
    88e4:	ebffff87 	bl	8708 <reverse>
    88e8:	e28dd04c 	add	sp, sp, #76, 0	; 0x4c
    88ec:	e8bd80f0 	pop	{r4, r5, r6, r7, pc}
    88f0:	e5cd3008 	strb	r3, [sp, #8]
    88f4:	e28d0009 	add	r0, sp, #9, 0
    88f8:	eafffff3 	b	88cc <emit+0x11c>
    88fc:	e28d0008 	add	r0, sp, #8, 0
    8900:	e20c1001 	and	r1, ip, #1, 0
    8904:	e59fe044 	ldr	lr, [pc, #68]	; 8950 <emit+0x1a0>
    8908:	e7de1001 	ldrb	r1, [lr, r1]
    890c:	e5c01000 	strb	r1, [r0]
    8910:	e2800001 	add	r0, r0, #1, 0
    8914:	e35c0001 	cmp	ip, #1, 0
    8918:	e1a0c0ac 	lsr	ip, ip, #1
    891c:	8afffff7 	bhi	8900 <emit+0x150>
    8920:	eaffffe9 	b	88cc <emit+0x11c>
    8924:	e59f3028 	ldr	r3, [pc, #40]	; 8954 <emit+0x1a4>
    8928:	e58d3000 	str	r3, [sp]
    892c:	e3a03079 	mov	r3, #121, 0	; 0x79
    8930:	e59f2020 	ldr	r2, [pc, #32]	; 8958 <emit+0x1a8>
    8934:	e59f1020 	ldr	r1, [pc, #32]	; 895c <emit+0x1ac>
    8938:	e59f0020 	ldr	r0, [pc, #32]	; 8960 <emit+0x1b0>
    893c:	ebffff31 	bl	8608 <printk>
    8940:	eb000194 	bl	8f98 <clean_reboot>
    8944:	cccccccd 	stclgt	12, cr12, [ip], {205}	; 0xcd
    8948:	0000961c 	andeq	r9, r0, ip, lsl r6
    894c:	00009628 	andeq	r9, r0, r8, lsr #12
    8950:	0000963c 	andeq	r9, r0, ip, lsr r6
    8954:	00009618 	andeq	r9, r0, r8, lsl r6
    8958:	00009724 	andeq	r9, r0, r4, lsr #14
    895c:	000095f0 	strdeq	r9, [r0], -r0
    8960:	00009604 	andeq	r9, r0, r4, lsl #12

00008964 <rpi_set_output>:
    8964:	e3500000 	cmp	r0, #0, 0
    8968:	0a000006 	beq	8988 <rpi_set_output+0x24>
    896c:	e59f303c 	ldr	r3, [pc, #60]	; 89b0 <rpi_set_output+0x4c>
    8970:	e5830000 	str	r0, [r3]
    8974:	e3510000 	cmp	r1, #0, 0
    8978:	012fff1e 	bxeq	lr
    897c:	e59f3030 	ldr	r3, [pc, #48]	; 89b4 <rpi_set_output+0x50>
    8980:	e5831000 	str	r1, [r3]
    8984:	e12fff1e 	bx	lr
    8988:	e52de004 	push	{lr}		; (str lr, [sp, #-4]!)
    898c:	e24dd00c 	sub	sp, sp, #12, 0
    8990:	e59f3020 	ldr	r3, [pc, #32]	; 89b8 <rpi_set_output+0x54>
    8994:	e58d3000 	str	r3, [sp]
    8998:	e3a03020 	mov	r3, #32, 0
    899c:	e59f2018 	ldr	r2, [pc, #24]	; 89bc <rpi_set_output+0x58>
    89a0:	e59f1018 	ldr	r1, [pc, #24]	; 89c0 <rpi_set_output+0x5c>
    89a4:	e59f0018 	ldr	r0, [pc, #24]	; 89c4 <rpi_set_output+0x60>
    89a8:	ebffff16 	bl	8608 <printk>
    89ac:	eb000179 	bl	8f98 <clean_reboot>
    89b0:	00009754 	andeq	r9, r0, r4, asr r7
    89b4:	00009758 	andeq	r9, r0, r8, asr r7
    89b8:	00009640 	andeq	r9, r0, r0, asr #12
    89bc:	0000972c 	andeq	r9, r0, ip, lsr #14
    89c0:	000095f0 	strdeq	r9, [r0], -r0
    89c4:	00009604 	andeq	r9, r0, r4, lsl #12

000089c8 <__emit_float>:
    89c8:	e92d41f0 	push	{r4, r5, r6, r7, r8, lr}
    89cc:	ed2d8b02 	vpush	{d8}
    89d0:	e24dd088 	sub	sp, sp, #136, 0	; 0x88
    89d4:	e1a06000 	mov	r6, r0
    89d8:	eeb08b40 	vmov.f64	d8, d0
    89dc:	e1a08001 	mov	r8, r1
    89e0:	eeb50bc0 	vcmpe.f64	d0, #0.0
    89e4:	eef1fa10 	vmrs	APSR_nzcv, fpscr
    89e8:	4a00001f 	bmi	8a6c <__emit_float+0xa4>
    89ec:	e1a05000 	mov	r5, r0
    89f0:	e3a04000 	mov	r4, #0, 0
    89f4:	e5c54000 	strb	r4, [r5]
    89f8:	eeb00b48 	vmov.f64	d0, d8
    89fc:	ebffff52 	bl	874c <fp_get_frac>
    8a00:	e1a07000 	mov	r7, r0
    8a04:	eeb00b48 	vmov.f64	d0, d8
    8a08:	ebffff65 	bl	87a4 <fp_get_integral>
    8a0c:	e1a03000 	mov	r3, r0
    8a10:	e3a02001 	mov	r2, #1, 0
    8a14:	e58d2004 	str	r2, [sp, #4]
    8a18:	e58d8000 	str	r8, [sp]
    8a1c:	e3a02080 	mov	r2, #128, 0	; 0x80
    8a20:	e28d1008 	add	r1, sp, #8, 0
    8a24:	e3a0000a 	mov	r0, #10, 0
    8a28:	ebffff60 	bl	87b0 <emit>
    8a2c:	e28d1008 	add	r1, sp, #8, 0
    8a30:	e1a00005 	mov	r0, r5
    8a34:	eb000235 	bl	9310 <strcat>
    8a38:	e59f108c 	ldr	r1, [pc, #140]	; 8acc <__emit_float+0x104>
    8a3c:	e1a00005 	mov	r0, r5
    8a40:	eb000232 	bl	9310 <strcat>
    8a44:	e58d4004 	str	r4, [sp, #4]
    8a48:	e3a03004 	mov	r3, #4, 0
    8a4c:	e58d3000 	str	r3, [sp]
    8a50:	e1a03007 	mov	r3, r7
    8a54:	e3a02080 	mov	r2, #128, 0	; 0x80
    8a58:	e28d1008 	add	r1, sp, #8, 0
    8a5c:	e3a0000a 	mov	r0, #10, 0
    8a60:	ebffff52 	bl	87b0 <emit>
    8a64:	e1a03004 	mov	r3, r4
    8a68:	ea000005 	b	8a84 <__emit_float+0xbc>
    8a6c:	e1a05000 	mov	r5, r0
    8a70:	e3a0302d 	mov	r3, #45, 0	; 0x2d
    8a74:	e4c53001 	strb	r3, [r5], #1
    8a78:	eeb18b40 	vneg.f64	d8, d0
    8a7c:	eaffffdb 	b	89f0 <__emit_float+0x28>
    8a80:	e2833001 	add	r3, r3, #1, 0
    8a84:	e3530003 	cmp	r3, #3, 0
    8a88:	8a000008 	bhi	8ab0 <__emit_float+0xe8>
    8a8c:	e28d2088 	add	r2, sp, #136, 0	; 0x88
    8a90:	e0822003 	add	r2, r2, r3
    8a94:	e5522080 	ldrb	r2, [r2, #-128]	; 0xffffff80
    8a98:	e3520020 	cmp	r2, #32, 0
    8a9c:	03a01030 	moveq	r1, #48, 0	; 0x30
    8aa0:	028d2088 	addeq	r2, sp, #136, 0	; 0x88
    8aa4:	00822003 	addeq	r2, r2, r3
    8aa8:	05421080 	strbeq	r1, [r2, #-128]	; 0xffffff80
    8aac:	eafffff3 	b	8a80 <__emit_float+0xb8>
    8ab0:	e28d1008 	add	r1, sp, #8, 0
    8ab4:	e1a00005 	mov	r0, r5
    8ab8:	eb000214 	bl	9310 <strcat>
    8abc:	e1a00006 	mov	r0, r6
    8ac0:	e28dd088 	add	sp, sp, #136, 0	; 0x88
    8ac4:	ecbd8b02 	vpop	{d8}
    8ac8:	e8bd81f0 	pop	{r4, r5, r6, r7, r8, pc}
    8acc:	00009648 	andeq	r9, r0, r8, asr #12

00008ad0 <va_printk>:
    8ad0:	e92d4ff0 	push	{r4, r5, r6, r7, r8, r9, sl, fp, lr}
    8ad4:	e24ddf45 	sub	sp, sp, #276	; 0x114
    8ad8:	e1a09000 	mov	r9, r0
    8adc:	e58d2008 	str	r2, [sp, #8]
    8ae0:	e58d300c 	str	r3, [sp, #12]
    8ae4:	e2411001 	sub	r1, r1, #1, 0
    8ae8:	e0808001 	add	r8, r0, r1
    8aec:	e3a03000 	mov	r3, #0, 0
    8af0:	e5c03000 	strb	r3, [r0]
    8af4:	e1a04000 	mov	r4, r0
    8af8:	e1a06002 	mov	r6, r2
    8afc:	ea000001 	b	8b08 <va_printk+0x38>
    8b00:	e2866001 	add	r6, r6, #1, 0
    8b04:	e4c43001 	strb	r3, [r4], #1
    8b08:	e5d63000 	ldrb	r3, [r6]
    8b0c:	e3530000 	cmp	r3, #0, 0
    8b10:	0a00010d 	beq	8f4c <va_printk+0x47c>
    8b14:	e1540008 	cmp	r4, r8
    8b18:	2a00010b 	bcs	8f4c <va_printk+0x47c>
    8b1c:	e3530025 	cmp	r3, #37, 0	; 0x25
    8b20:	1afffff6 	bne	8b00 <va_printk+0x30>
    8b24:	e5d62001 	ldrb	r2, [r6, #1]
    8b28:	e3520025 	cmp	r2, #37, 0	; 0x25
    8b2c:	04c43001 	strbeq	r3, [r4], #1
    8b30:	02866002 	addeq	r6, r6, #2, 0
    8b34:	0afffff3 	beq	8b08 <va_printk+0x38>
    8b38:	e2866001 	add	r6, r6, #1, 0
    8b3c:	e3a05000 	mov	r5, #0, 0
    8b40:	e5d67000 	ldrb	r7, [r6]
    8b44:	e1a0a007 	mov	sl, r7
    8b48:	e1a00007 	mov	r0, r7
    8b4c:	ebfffedf 	bl	86d0 <isdigit>
    8b50:	e3500000 	cmp	r0, #0, 0
    8b54:	0a000004 	beq	8b6c <va_printk+0x9c>
    8b58:	e0855105 	add	r5, r5, r5, lsl #2
    8b5c:	e0875085 	add	r5, r7, r5, lsl #1
    8b60:	e2455030 	sub	r5, r5, #48, 0	; 0x30
    8b64:	e2866001 	add	r6, r6, #1, 0
    8b68:	eafffff4 	b	8b40 <va_printk+0x70>
    8b6c:	e355001f 	cmp	r5, #31, 0
    8b70:	8a00001a 	bhi	8be0 <va_printk+0x110>
    8b74:	e2477062 	sub	r7, r7, #98, 0	; 0x62
    8b78:	e3570016 	cmp	r7, #22, 0
    8b7c:	979ff107 	ldrls	pc, [pc, r7, lsl #2]
    8b80:	ea0000d9 	b	8eec <va_printk+0x41c>
    8b84:	00008e70 	andeq	r8, r0, r0, ror lr
    8b88:	00008eb8 			; <UNDEFINED> instruction: 0x00008eb8
    8b8c:	00008dd4 	ldrdeq	r8, [r0], -r4
    8b90:	00008eec 	andeq	r8, r0, ip, ror #29
    8b94:	00008da4 	andeq	r8, r0, r4, lsr #27
    8b98:	00008eec 	andeq	r8, r0, ip, ror #29
    8b9c:	00008eec 	andeq	r8, r0, ip, ror #29
    8ba0:	00008eec 	andeq	r8, r0, ip, ror #29
    8ba4:	00008eec 	andeq	r8, r0, ip, ror #29
    8ba8:	00008eec 	andeq	r8, r0, ip, ror #29
    8bac:	00008c00 	andeq	r8, r0, r0, lsl #24
    8bb0:	00008eec 	andeq	r8, r0, ip, ror #29
    8bb4:	00008eec 	andeq	r8, r0, ip, ror #29
    8bb8:	00008eec 	andeq	r8, r0, ip, ror #29
    8bbc:	00008e3c 	andeq	r8, r0, ip, lsr lr
    8bc0:	00008eec 	andeq	r8, r0, ip, ror #29
    8bc4:	00008eec 	andeq	r8, r0, ip, ror #29
    8bc8:	00008ea4 	andeq	r8, r0, r4, lsr #29
    8bcc:	00008eec 	andeq	r8, r0, ip, ror #29
    8bd0:	00008e08 	andeq	r8, r0, r8, lsl #28
    8bd4:	00008eec 	andeq	r8, r0, ip, ror #29
    8bd8:	00008eec 	andeq	r8, r0, ip, ror #29
    8bdc:	00008e3c 	andeq	r8, r0, ip, lsr lr
    8be0:	e59f3378 	ldr	r3, [pc, #888]	; 8f60 <va_printk+0x490>
    8be4:	e58d3000 	str	r3, [sp]
    8be8:	e3a03098 	mov	r3, #152, 0	; 0x98
    8bec:	e59f2370 	ldr	r2, [pc, #880]	; 8f64 <va_printk+0x494>
    8bf0:	e59f1370 	ldr	r1, [pc, #880]	; 8f68 <va_printk+0x498>
    8bf4:	e59f0370 	ldr	r0, [pc, #880]	; 8f6c <va_printk+0x49c>
    8bf8:	ebfffe82 	bl	8608 <printk>
    8bfc:	eb0000e5 	bl	8f98 <clean_reboot>
    8c00:	e3a02003 	mov	r2, #3, 0
    8c04:	e59f1364 	ldr	r1, [pc, #868]	; 8f70 <va_printk+0x4a0>
    8c08:	e1a00006 	mov	r0, r6
    8c0c:	eb0001df 	bl	9390 <strncmp>
    8c10:	e3500000 	cmp	r0, #0, 0
    8c14:	0a000005 	beq	8c30 <va_printk+0x160>
    8c18:	e3a02003 	mov	r2, #3, 0
    8c1c:	e59f1350 	ldr	r1, [pc, #848]	; 8f74 <va_printk+0x4a4>
    8c20:	e1a00006 	mov	r0, r6
    8c24:	eb0001d9 	bl	9390 <strncmp>
    8c28:	e3500000 	cmp	r0, #0, 0
    8c2c:	1a000033 	bne	8d00 <va_printk+0x230>
    8c30:	e286b002 	add	fp, r6, #2, 0
    8c34:	e59d300c 	ldr	r3, [sp, #12]
    8c38:	e2833007 	add	r3, r3, #7, 0
    8c3c:	e3c33007 	bic	r3, r3, #7, 0
    8c40:	e2832008 	add	r2, r3, #8, 0
    8c44:	e58d200c 	str	r2, [sp, #12]
    8c48:	e593a000 	ldr	sl, [r3]
    8c4c:	e5937004 	ldr	r7, [r3, #4]
    8c50:	e1a01007 	mov	r1, r7
    8c54:	e59f031c 	ldr	r0, [pc, #796]	; 8f78 <va_printk+0x4a8>
    8c58:	ebfffe6a 	bl	8608 <printk>
    8c5c:	e1a0100a 	mov	r1, sl
    8c60:	e59f0314 	ldr	r0, [pc, #788]	; 8f7c <va_printk+0x4ac>
    8c64:	ebfffe67 	bl	8608 <printk>
    8c68:	e3a02003 	mov	r2, #3, 0
    8c6c:	e59f12fc 	ldr	r1, [pc, #764]	; 8f70 <va_printk+0x4a0>
    8c70:	e1a00006 	mov	r0, r6
    8c74:	eb0001c5 	bl	9390 <strncmp>
    8c78:	e3500000 	cmp	r0, #0, 0
    8c7c:	0a000027 	beq	8d20 <va_printk+0x250>
    8c80:	e3a02003 	mov	r2, #3, 0
    8c84:	e59f12e8 	ldr	r1, [pc, #744]	; 8f74 <va_printk+0x4a4>
    8c88:	e1a00006 	mov	r0, r6
    8c8c:	eb0001bf 	bl	9390 <strncmp>
    8c90:	e3500000 	cmp	r0, #0, 0
    8c94:	1a00003b 	bne	8d88 <va_printk+0x2b8>
    8c98:	e3a06000 	mov	r6, #0, 0
    8c9c:	e58d6004 	str	r6, [sp, #4]
    8ca0:	e58d5000 	str	r5, [sp]
    8ca4:	e1a03007 	mov	r3, r7
    8ca8:	e3a02080 	mov	r2, #128, 0	; 0x80
    8cac:	e28d1010 	add	r1, sp, #16, 0
    8cb0:	e3a0000a 	mov	r0, #10, 0
    8cb4:	ebfffebd 	bl	87b0 <emit>
    8cb8:	e1a07000 	mov	r7, r0
    8cbc:	e58d6004 	str	r6, [sp, #4]
    8cc0:	e58d5000 	str	r5, [sp]
    8cc4:	e1a0300a 	mov	r3, sl
    8cc8:	e3a02080 	mov	r2, #128, 0	; 0x80
    8ccc:	e28d1090 	add	r1, sp, #144, 0	; 0x90
    8cd0:	e3a0000a 	mov	r0, #10, 0
    8cd4:	ebfffeb5 	bl	87b0 <emit>
    8cd8:	e59f12a0 	ldr	r1, [pc, #672]	; 8f80 <va_printk+0x4b0>
    8cdc:	e28d0010 	add	r0, sp, #16, 0
    8ce0:	eb000197 	bl	9344 <strcmp>
    8ce4:	e1500006 	cmp	r0, r6
    8ce8:	1a000021 	bne	8d74 <va_printk+0x2a4>
    8cec:	e28d1090 	add	r1, sp, #144, 0	; 0x90
    8cf0:	e28d0010 	add	r0, sp, #16, 0
    8cf4:	eb00019d 	bl	9370 <strcpy>
    8cf8:	e1a0600b 	mov	r6, fp
    8cfc:	ea000032 	b	8dcc <va_printk+0x2fc>
    8d00:	e59f327c 	ldr	r3, [pc, #636]	; 8f84 <va_printk+0x4b4>
    8d04:	e58d3000 	str	r3, [sp]
    8d08:	e3a0309f 	mov	r3, #159, 0	; 0x9f
    8d0c:	e59f2250 	ldr	r2, [pc, #592]	; 8f64 <va_printk+0x494>
    8d10:	e59f1250 	ldr	r1, [pc, #592]	; 8f68 <va_printk+0x498>
    8d14:	e59f0250 	ldr	r0, [pc, #592]	; 8f6c <va_printk+0x49c>
    8d18:	ebfffe3a 	bl	8608 <printk>
    8d1c:	eb00009d 	bl	8f98 <clean_reboot>
    8d20:	e3a06000 	mov	r6, #0, 0
    8d24:	e58d6004 	str	r6, [sp, #4]
    8d28:	e58d5000 	str	r5, [sp]
    8d2c:	e1a03007 	mov	r3, r7
    8d30:	e3a02080 	mov	r2, #128, 0	; 0x80
    8d34:	e28d1010 	add	r1, sp, #16, 0
    8d38:	e3a00010 	mov	r0, #16, 0
    8d3c:	ebfffe9b 	bl	87b0 <emit>
    8d40:	e1a07000 	mov	r7, r0
    8d44:	e58d6004 	str	r6, [sp, #4]
    8d48:	e58d5000 	str	r5, [sp]
    8d4c:	e1a0300a 	mov	r3, sl
    8d50:	e3a02080 	mov	r2, #128, 0	; 0x80
    8d54:	e28d1090 	add	r1, sp, #144, 0	; 0x90
    8d58:	e3a00010 	mov	r0, #16, 0
    8d5c:	ebfffe93 	bl	87b0 <emit>
    8d60:	e28d1092 	add	r1, sp, #146, 0	; 0x92
    8d64:	e28d0010 	add	r0, sp, #16, 0
    8d68:	eb000168 	bl	9310 <strcat>
    8d6c:	e1a0600b 	mov	r6, fp
    8d70:	ea000015 	b	8dcc <va_printk+0x2fc>
    8d74:	e28d1090 	add	r1, sp, #144, 0	; 0x90
    8d78:	e28d0010 	add	r0, sp, #16, 0
    8d7c:	eb000163 	bl	9310 <strcat>
    8d80:	e1a0600b 	mov	r6, fp
    8d84:	ea000010 	b	8dcc <va_printk+0x2fc>
    8d88:	e58d6000 	str	r6, [sp]
    8d8c:	e3a030b6 	mov	r3, #182, 0	; 0xb6
    8d90:	e59f21cc 	ldr	r2, [pc, #460]	; 8f64 <va_printk+0x494>
    8d94:	e59f11cc 	ldr	r1, [pc, #460]	; 8f68 <va_printk+0x498>
    8d98:	e59f01e8 	ldr	r0, [pc, #488]	; 8f88 <va_printk+0x4b8>
    8d9c:	ebfffe19 	bl	8608 <printk>
    8da0:	eb00007c 	bl	8f98 <clean_reboot>
    8da4:	e59d300c 	ldr	r3, [sp, #12]
    8da8:	e2833007 	add	r3, r3, #7, 0
    8dac:	e3c33007 	bic	r3, r3, #7, 0
    8db0:	e2832008 	add	r2, r3, #8, 0
    8db4:	e58d200c 	str	r2, [sp, #12]
    8db8:	e1a01005 	mov	r1, r5
    8dbc:	ed930b00 	vldr	d0, [r3]
    8dc0:	e28d0010 	add	r0, sp, #16, 0
    8dc4:	ebfffeff 	bl	89c8 <__emit_float>
    8dc8:	e1a07000 	mov	r7, r0
    8dcc:	e2866001 	add	r6, r6, #1, 0
    8dd0:	ea000057 	b	8f34 <va_printk+0x464>
    8dd4:	e59d300c 	ldr	r3, [sp, #12]
    8dd8:	e2832004 	add	r2, r3, #4, 0
    8ddc:	e58d200c 	str	r2, [sp, #12]
    8de0:	e5933000 	ldr	r3, [r3]
    8de4:	e3a02001 	mov	r2, #1, 0
    8de8:	e58d2004 	str	r2, [sp, #4]
    8dec:	e58d5000 	str	r5, [sp]
    8df0:	e3a02080 	mov	r2, #128, 0	; 0x80
    8df4:	e28d1010 	add	r1, sp, #16, 0
    8df8:	e3a0000a 	mov	r0, #10, 0
    8dfc:	ebfffe6b 	bl	87b0 <emit>
    8e00:	e1a07000 	mov	r7, r0
    8e04:	eafffff0 	b	8dcc <va_printk+0x2fc>
    8e08:	e59d300c 	ldr	r3, [sp, #12]
    8e0c:	e2832004 	add	r2, r3, #4, 0
    8e10:	e58d200c 	str	r2, [sp, #12]
    8e14:	e5933000 	ldr	r3, [r3]
    8e18:	e3a02000 	mov	r2, #0, 0
    8e1c:	e58d2004 	str	r2, [sp, #4]
    8e20:	e58d5000 	str	r5, [sp]
    8e24:	e3a02080 	mov	r2, #128, 0	; 0x80
    8e28:	e28d1010 	add	r1, sp, #16, 0
    8e2c:	e3a0000a 	mov	r0, #10, 0
    8e30:	ebfffe5e 	bl	87b0 <emit>
    8e34:	e1a07000 	mov	r7, r0
    8e38:	eaffffe3 	b	8dcc <va_printk+0x2fc>
    8e3c:	e59d300c 	ldr	r3, [sp, #12]
    8e40:	e2832004 	add	r2, r3, #4, 0
    8e44:	e58d200c 	str	r2, [sp, #12]
    8e48:	e5933000 	ldr	r3, [r3]
    8e4c:	e3a02000 	mov	r2, #0, 0
    8e50:	e58d2004 	str	r2, [sp, #4]
    8e54:	e58d5000 	str	r5, [sp]
    8e58:	e3a02080 	mov	r2, #128, 0	; 0x80
    8e5c:	e28d1010 	add	r1, sp, #16, 0
    8e60:	e3a00010 	mov	r0, #16, 0
    8e64:	ebfffe51 	bl	87b0 <emit>
    8e68:	e1a07000 	mov	r7, r0
    8e6c:	eaffffd6 	b	8dcc <va_printk+0x2fc>
    8e70:	e59d300c 	ldr	r3, [sp, #12]
    8e74:	e2832004 	add	r2, r3, #4, 0
    8e78:	e58d200c 	str	r2, [sp, #12]
    8e7c:	e5933000 	ldr	r3, [r3]
    8e80:	e3a02000 	mov	r2, #0, 0
    8e84:	e58d2004 	str	r2, [sp, #4]
    8e88:	e58d5000 	str	r5, [sp]
    8e8c:	e3a02080 	mov	r2, #128, 0	; 0x80
    8e90:	e28d1010 	add	r1, sp, #16, 0
    8e94:	e3a00002 	mov	r0, #2, 0
    8e98:	ebfffe44 	bl	87b0 <emit>
    8e9c:	e1a07000 	mov	r7, r0
    8ea0:	eaffffc9 	b	8dcc <va_printk+0x2fc>
    8ea4:	e59d300c 	ldr	r3, [sp, #12]
    8ea8:	e2832004 	add	r2, r3, #4, 0
    8eac:	e58d200c 	str	r2, [sp, #12]
    8eb0:	e5937000 	ldr	r7, [r3]
    8eb4:	eaffffc4 	b	8dcc <va_printk+0x2fc>
    8eb8:	e59d300c 	ldr	r3, [sp, #12]
    8ebc:	e2832004 	add	r2, r3, #4, 0
    8ec0:	e58d200c 	str	r2, [sp, #12]
    8ec4:	e5933000 	ldr	r3, [r3]
    8ec8:	e3a02000 	mov	r2, #0, 0
    8ecc:	e58d2004 	str	r2, [sp, #4]
    8ed0:	e58d5000 	str	r5, [sp]
    8ed4:	e3a02080 	mov	r2, #128, 0	; 0x80
    8ed8:	e28d1010 	add	r1, sp, #16, 0
    8edc:	e3a00008 	mov	r0, #8, 0
    8ee0:	ebfffe32 	bl	87b0 <emit>
    8ee4:	e1a07000 	mov	r7, r0
    8ee8:	eaffffb7 	b	8dcc <va_printk+0x2fc>
    8eec:	e3a03000 	mov	r3, #0, 0
    8ef0:	e5c63001 	strb	r3, [r6, #1]
    8ef4:	e1a0200a 	mov	r2, sl
    8ef8:	e1a0100a 	mov	r1, sl
    8efc:	e59f0088 	ldr	r0, [pc, #136]	; 8f8c <va_printk+0x4bc>
    8f00:	ebfffdc0 	bl	8608 <printk>
    8f04:	e59f3084 	ldr	r3, [pc, #132]	; 8f90 <va_printk+0x4c0>
    8f08:	e5933000 	ldr	r3, [r3]
    8f0c:	e59d0008 	ldr	r0, [sp, #8]
    8f10:	e12fff33 	blx	r3
    8f14:	e3a030e2 	mov	r3, #226, 0	; 0xe2
    8f18:	e59f2044 	ldr	r2, [pc, #68]	; 8f64 <va_printk+0x494>
    8f1c:	e59f1044 	ldr	r1, [pc, #68]	; 8f68 <va_printk+0x498>
    8f20:	e59f006c 	ldr	r0, [pc, #108]	; 8f94 <va_printk+0x4c4>
    8f24:	ebfffdb7 	bl	8608 <printk>
    8f28:	eb00001a 	bl	8f98 <clean_reboot>
    8f2c:	e2877001 	add	r7, r7, #1, 0
    8f30:	e4c43001 	strb	r3, [r4], #1
    8f34:	e1540008 	cmp	r4, r8
    8f38:	2afffef2 	bcs	8b08 <va_printk+0x38>
    8f3c:	e5d73000 	ldrb	r3, [r7]
    8f40:	e3530000 	cmp	r3, #0, 0
    8f44:	1afffff8 	bne	8f2c <va_printk+0x45c>
    8f48:	eafffeee 	b	8b08 <va_printk+0x38>
    8f4c:	e3a03000 	mov	r3, #0, 0
    8f50:	e4c43001 	strb	r3, [r4], #1
    8f54:	e0440009 	sub	r0, r4, r9
    8f58:	e28ddf45 	add	sp, sp, #276	; 0x114
    8f5c:	e8bd8ff0 	pop	{r4, r5, r6, r7, r8, r9, sl, fp, pc}
    8f60:	0000964c 	andeq	r9, r0, ip, asr #12
    8f64:	0000973c 	andeq	r9, r0, ip, lsr r7
    8f68:	000095f0 	strdeq	r9, [r0], -r0
    8f6c:	00009604 	andeq	r9, r0, r4, lsl #12
    8f70:	00009658 	andeq	r9, r0, r8, asr r6
    8f74:	0000965c 	andeq	r9, r0, ip, asr r6
    8f78:	00009660 	andeq	r9, r0, r0, ror #12
    8f7c:	00009668 	andeq	r9, r0, r8, ror #12
    8f80:	00009618 	andeq	r9, r0, r8, lsl r6
    8f84:	00009670 	andeq	r9, r0, r0, ror r6
    8f88:	000096ac 	andeq	r9, r0, ip, lsr #13
    8f8c:	000096d4 	ldrdeq	r9, [r0], -r4
    8f90:	00009758 	andeq	r9, r0, r8, asr r7
    8f94:	00009704 	andeq	r9, r0, r4, lsl #14

00008f98 <clean_reboot>:
    8f98:	e92d4010 	push	{r4, lr}
    8f9c:	e59f3018 	ldr	r3, [pc, #24]	; 8fbc <clean_reboot+0x24>
    8fa0:	e5933000 	ldr	r3, [r3]
    8fa4:	e59f0014 	ldr	r0, [pc, #20]	; 8fc0 <clean_reboot+0x28>
    8fa8:	e12fff33 	blx	r3
    8fac:	eb0000c9 	bl	92d8 <uart_flush_tx>
    8fb0:	e3a0000a 	mov	r0, #10, 0
    8fb4:	eb00004d 	bl	90f0 <delay_ms>
    8fb8:	eb000022 	bl	9048 <rpi_reboot>
    8fbc:	00009758 	andeq	r9, r0, r8, asr r7
    8fc0:	00009748 	andeq	r9, r0, r8, asr #14

00008fc4 <_cstart>:
    8fc4:	e92d4010 	push	{r4, lr}
    8fc8:	eb00000c 	bl	9000 <custom_loader>
    8fcc:	e59f3024 	ldr	r3, [pc, #36]	; 8ff8 <_cstart+0x34>
    8fd0:	e59f2024 	ldr	r2, [pc, #36]	; 8ffc <_cstart+0x38>
    8fd4:	e1530002 	cmp	r3, r2
    8fd8:	33a02000 	movcc	r2, #0, 0
    8fdc:	34832004 	strcc	r2, [r3], #4
    8fe0:	3afffffa 	bcc	8fd0 <_cstart+0xc>
    8fe4:	eb00005d 	bl	9160 <uart_init>
    8fe8:	e3a03001 	mov	r3, #1, 0
    8fec:	ee0f3f1c 	mcr	15, 0, r3, cr15, cr12, {0}
    8ff0:	ebfffc2d 	bl	80ac <notmain>
    8ff4:	ebffffe7 	bl	8f98 <clean_reboot>
    8ff8:	0000975c 	andeq	r9, r0, ip, asr r7
    8ffc:	00009b60 	andeq	r9, r0, r0, ror #22

00009000 <custom_loader>:
    9000:	e12fff1e 	bx	lr

00009004 <dev_barrier>:
    9004:	ea000002 	b	9014 <dsb>

00009008 <dmb>:
    9008:	e3a00000 	mov	r0, #0, 0
    900c:	ee070fba 	mcr	15, 0, r0, cr7, cr10, {5}
    9010:	e12fff1e 	bx	lr

00009014 <dsb>:
    9014:	ee070f9a 	mcr	15, 0, r0, cr7, cr10, {4}
    9018:	e12fff1e 	bx	lr

0000901c <at_user_level>:
    901c:	e10f0000 	mrs	r0, CPSR
    9020:	e200001f 	and	r0, r0, #31, 0
    9024:	e3500010 	cmp	r0, #16, 0
    9028:	13a00000 	movne	r0, #0, 0
    902c:	03a00001 	moveq	r0, #1, 0
    9030:	e12fff1e 	bx	lr

00009034 <set_user_level>:
    9034:	e10f3000 	mrs	r3, CPSR
    9038:	e3c3301f 	bic	r3, r3, #31, 0
    903c:	e3833010 	orr	r3, r3, #16, 0
    9040:	e129f003 	msr	CPSR_fc, r3
    9044:	e12fff1e 	bx	lr

00009048 <rpi_reboot>:
    9048:	e92d4010 	push	{r4, lr}
    904c:	ebfffff2 	bl	901c <at_user_level>
    9050:	e3500000 	cmp	r0, #0, 0
    9054:	1a00000a 	bne	9084 <rpi_reboot+0x3c>
    9058:	eb0000d7 	bl	93bc <reboot_callout>
    905c:	eb00009d 	bl	92d8 <uart_flush_tx>
    9060:	e3a0000a 	mov	r0, #10, 0
    9064:	eb000021 	bl	90f0 <delay_ms>
    9068:	e59f101c 	ldr	r1, [pc, #28]	; 908c <rpi_reboot+0x44>
    906c:	e59f001c 	ldr	r0, [pc, #28]	; 9090 <rpi_reboot+0x48>
    9070:	ebfffbf5 	bl	804c <PUT32>
    9074:	e59f1018 	ldr	r1, [pc, #24]	; 9094 <rpi_reboot+0x4c>
    9078:	e59f0018 	ldr	r0, [pc, #24]	; 9098 <rpi_reboot+0x50>
    907c:	ebfffbf2 	bl	804c <PUT32>
    9080:	eafffffe 	b	9080 <rpi_reboot+0x38>
    9084:	ebffffea 	bl	9034 <set_user_level>
    9088:	eafffff2 	b	9058 <rpi_reboot+0x10>
    908c:	5a000001 	bpl	9098 <rpi_reboot+0x50>
    9090:	20100024 	andscs	r0, r0, r4, lsr #32
    9094:	5a000020 	bpl	911c <delay_sec+0x14>
    9098:	2010001c 	andscs	r0, r0, ip, lsl r0

0000909c <timer_get_usec_raw>:
    909c:	e92d4010 	push	{r4, lr}
    90a0:	e59f0004 	ldr	r0, [pc, #4]	; 90ac <timer_get_usec_raw+0x10>
    90a4:	ebfffbea 	bl	8054 <GET32>
    90a8:	e8bd8010 	pop	{r4, pc}
    90ac:	20003004 	andcs	r3, r0, r4

000090b0 <timer_get_usec>:
    90b0:	e92d4010 	push	{r4, lr}
    90b4:	ebffffd2 	bl	9004 <dev_barrier>
    90b8:	ebfffff7 	bl	909c <timer_get_usec_raw>
    90bc:	e1a04000 	mov	r4, r0
    90c0:	ebffffcf 	bl	9004 <dev_barrier>
    90c4:	e1a00004 	mov	r0, r4
    90c8:	e8bd8010 	pop	{r4, pc}

000090cc <delay_us>:
    90cc:	e92d4070 	push	{r4, r5, r6, lr}
    90d0:	e1a05000 	mov	r5, r0
    90d4:	ebfffff5 	bl	90b0 <timer_get_usec>
    90d8:	e1a04000 	mov	r4, r0
    90dc:	ebfffff3 	bl	90b0 <timer_get_usec>
    90e0:	e0400004 	sub	r0, r0, r4
    90e4:	e1500005 	cmp	r0, r5
    90e8:	3afffffb 	bcc	90dc <delay_us+0x10>
    90ec:	e8bd8070 	pop	{r4, r5, r6, pc}

000090f0 <delay_ms>:
    90f0:	e92d4010 	push	{r4, lr}
    90f4:	e0603280 	rsb	r3, r0, r0, lsl #5
    90f8:	e0800103 	add	r0, r0, r3, lsl #2
    90fc:	e1a00180 	lsl	r0, r0, #3
    9100:	ebfffff1 	bl	90cc <delay_us>
    9104:	e8bd8010 	pop	{r4, pc}

00009108 <delay_sec>:
    9108:	e92d4010 	push	{r4, lr}
    910c:	e0603280 	rsb	r3, r0, r0, lsl #5
    9110:	e0800103 	add	r0, r0, r3, lsl #2
    9114:	e1a00180 	lsl	r0, r0, #3
    9118:	ebfffff4 	bl	90f0 <delay_ms>
    911c:	e8bd8010 	pop	{r4, pc}

00009120 <and_in32>:
    9120:	e92d4070 	push	{r4, r5, r6, lr}
    9124:	e1a04000 	mov	r4, r0
    9128:	e1a05001 	mov	r5, r1
    912c:	ebfffbc8 	bl	8054 <GET32>
    9130:	e0001005 	and	r1, r0, r5
    9134:	e1a00004 	mov	r0, r4
    9138:	ebfffbc3 	bl	804c <PUT32>
    913c:	e8bd8070 	pop	{r4, r5, r6, pc}

00009140 <or_in32>:
    9140:	e92d4070 	push	{r4, r5, r6, lr}
    9144:	e1a04000 	mov	r4, r0
    9148:	e1a05001 	mov	r5, r1
    914c:	ebfffbc0 	bl	8054 <GET32>
    9150:	e1801005 	orr	r1, r0, r5
    9154:	e1a00004 	mov	r0, r4
    9158:	ebfffbbb 	bl	804c <PUT32>
    915c:	e8bd8070 	pop	{r4, r5, r6, pc}

00009160 <uart_init>:
    9160:	e92d4010 	push	{r4, lr}
    9164:	e3a01002 	mov	r1, #2, 0
    9168:	e3a0000e 	mov	r0, #14, 0
    916c:	ebfffcde 	bl	84ec <gpio_set_function>
    9170:	e3a01002 	mov	r1, #2, 0
    9174:	e3a0000f 	mov	r0, #15, 0
    9178:	ebfffcdb 	bl	84ec <gpio_set_function>
    917c:	ebffffa0 	bl	9004 <dev_barrier>
    9180:	e3a01001 	mov	r1, #1, 0
    9184:	e59f0064 	ldr	r0, [pc, #100]	; 91f0 <uart_init+0x90>
    9188:	ebffffec 	bl	9140 <or_in32>
    918c:	ebffff9c 	bl	9004 <dev_barrier>
    9190:	e59f405c 	ldr	r4, [pc, #92]	; 91f4 <uart_init+0x94>
    9194:	e3a01000 	mov	r1, #0, 0
    9198:	e1a00004 	mov	r0, r4
    919c:	ebfffbaa 	bl	804c <PUT32>
    91a0:	e3a01000 	mov	r1, #0, 0
    91a4:	e59f004c 	ldr	r0, [pc, #76]	; 91f8 <uart_init+0x98>
    91a8:	ebfffba7 	bl	804c <PUT32>
    91ac:	e3a01003 	mov	r1, #3, 0
    91b0:	e59f0044 	ldr	r0, [pc, #68]	; 91fc <uart_init+0x9c>
    91b4:	ebfffba4 	bl	804c <PUT32>
    91b8:	e3a01000 	mov	r1, #0, 0
    91bc:	e59f003c 	ldr	r0, [pc, #60]	; 9200 <uart_init+0xa0>
    91c0:	ebfffba1 	bl	804c <PUT32>
    91c4:	e3a010c7 	mov	r1, #199, 0	; 0xc7
    91c8:	e59f0034 	ldr	r0, [pc, #52]	; 9204 <uart_init+0xa4>
    91cc:	ebfffb9e 	bl	804c <PUT32>
    91d0:	e59f1030 	ldr	r1, [pc, #48]	; 9208 <uart_init+0xa8>
    91d4:	e59f0030 	ldr	r0, [pc, #48]	; 920c <uart_init+0xac>
    91d8:	ebfffb9b 	bl	804c <PUT32>
    91dc:	e3a01003 	mov	r1, #3, 0
    91e0:	e1a00004 	mov	r0, r4
    91e4:	ebfffb98 	bl	804c <PUT32>
    91e8:	ebffff85 	bl	9004 <dev_barrier>
    91ec:	e8bd8010 	pop	{r4, pc}
    91f0:	20215004 	eorcs	r5, r1, r4
    91f4:	20215060 	eorcs	r5, r1, r0, rrx
    91f8:	20215044 	eorcs	r5, r1, r4, asr #32
    91fc:	2021504c 	eorcs	r5, r1, ip, asr #32
    9200:	20215050 	eorcs	r5, r1, r0, asr r0
    9204:	20215048 	eorcs	r5, r1, r8, asr #32
    9208:	0000010e 	andeq	r0, r0, lr, lsl #2
    920c:	20215068 	eorcs	r5, r1, r8, rrx

00009210 <uart_can_getc>:
    9210:	e92d4010 	push	{r4, lr}
    9214:	e59f0008 	ldr	r0, [pc, #8]	; 9224 <uart_can_getc+0x14>
    9218:	ebfffb8d 	bl	8054 <GET32>
    921c:	e2000001 	and	r0, r0, #1, 0
    9220:	e8bd8010 	pop	{r4, pc}
    9224:	20215064 	eorcs	r5, r1, r4, rrx

00009228 <uart_can_putc>:
    9228:	e92d4010 	push	{r4, lr}
    922c:	e59f0010 	ldr	r0, [pc, #16]	; 9244 <uart_can_putc+0x1c>
    9230:	ebfffb87 	bl	8054 <GET32>
    9234:	e3100002 	tst	r0, #2, 0
    9238:	13a00001 	movne	r0, #1, 0
    923c:	03a00000 	moveq	r0, #0, 0
    9240:	e8bd8010 	pop	{r4, pc}
    9244:	20215064 	eorcs	r5, r1, r4, rrx

00009248 <uart_getc>:
    9248:	e92d4010 	push	{r4, lr}
    924c:	ebffff6c 	bl	9004 <dev_barrier>
    9250:	ebffffee 	bl	9210 <uart_can_getc>
    9254:	e3500000 	cmp	r0, #0, 0
    9258:	0afffffc 	beq	9250 <uart_getc+0x8>
    925c:	e59f0010 	ldr	r0, [pc, #16]	; 9274 <uart_getc+0x2c>
    9260:	ebfffb7b 	bl	8054 <GET32>
    9264:	e6ef4070 	uxtb	r4, r0
    9268:	ebffff65 	bl	9004 <dev_barrier>
    926c:	e1a00004 	mov	r0, r4
    9270:	e8bd8010 	pop	{r4, pc}
    9274:	20215040 	eorcs	r5, r1, r0, asr #32

00009278 <uart_putc>:
    9278:	e92d4010 	push	{r4, lr}
    927c:	e1a04000 	mov	r4, r0
    9280:	ebffff5f 	bl	9004 <dev_barrier>
    9284:	ebffffe7 	bl	9228 <uart_can_putc>
    9288:	e3500000 	cmp	r0, #0, 0
    928c:	0afffffc 	beq	9284 <uart_putc+0xc>
    9290:	e6ef1074 	uxtb	r1, r4
    9294:	e59f0008 	ldr	r0, [pc, #8]	; 92a4 <uart_putc+0x2c>
    9298:	ebfffb6b 	bl	804c <PUT32>
    929c:	ebffff58 	bl	9004 <dev_barrier>
    92a0:	e8bd8010 	pop	{r4, pc}
    92a4:	20215040 	eorcs	r5, r1, r0, asr #32

000092a8 <uart_has_data>:
    92a8:	e92d4010 	push	{r4, lr}
    92ac:	ebffff54 	bl	9004 <dev_barrier>
    92b0:	ebffffd6 	bl	9210 <uart_can_getc>
    92b4:	e8bd8010 	pop	{r4, pc}

000092b8 <uart_tx_is_empty>:
    92b8:	e92d4010 	push	{r4, lr}
    92bc:	ebffff50 	bl	9004 <dev_barrier>
    92c0:	e59f000c 	ldr	r0, [pc, #12]	; 92d4 <uart_tx_is_empty+0x1c>
    92c4:	ebfffb62 	bl	8054 <GET32>
    92c8:	e1a004a0 	lsr	r0, r0, #9
    92cc:	e2000001 	and	r0, r0, #1, 0
    92d0:	e8bd8010 	pop	{r4, pc}
    92d4:	20215064 	eorcs	r5, r1, r4, rrx

000092d8 <uart_flush_tx>:
    92d8:	e92d4010 	push	{r4, lr}
    92dc:	ebfffff5 	bl	92b8 <uart_tx_is_empty>
    92e0:	e3500000 	cmp	r0, #0, 0
    92e4:	0afffffc 	beq	92dc <uart_flush_tx+0x4>
    92e8:	e8bd8010 	pop	{r4, pc}

000092ec <uart_disable>:
    92ec:	e92d4010 	push	{r4, lr}
    92f0:	ebfffff8 	bl	92d8 <uart_flush_tx>
    92f4:	ebffff42 	bl	9004 <dev_barrier>
    92f8:	e3e01001 	mvn	r1, #1, 0
    92fc:	e59f0008 	ldr	r0, [pc, #8]	; 930c <uart_disable+0x20>
    9300:	ebffff86 	bl	9120 <and_in32>
    9304:	ebffff3e 	bl	9004 <dev_barrier>
    9308:	e8bd8010 	pop	{r4, pc}
    930c:	20215004 	eorcs	r5, r1, r4

00009310 <strcat>:
    9310:	e1a02000 	mov	r2, r0
    9314:	e1a03002 	mov	r3, r2
    9318:	e2822001 	add	r2, r2, #1, 0
    931c:	e5d3c000 	ldrb	ip, [r3]
    9320:	e35c0000 	cmp	ip, #0, 0
    9324:	1afffffa 	bne	9314 <strcat+0x4>
    9328:	e2433001 	sub	r3, r3, #1, 0
    932c:	e5d12000 	ldrb	r2, [r1]
    9330:	e2811001 	add	r1, r1, #1, 0
    9334:	e5e32001 	strb	r2, [r3, #1]!
    9338:	e3520000 	cmp	r2, #0, 0
    933c:	1afffffa 	bne	932c <strcat+0x1c>
    9340:	e12fff1e 	bx	lr

00009344 <strcmp>:
    9344:	e5d03000 	ldrb	r3, [r0]
    9348:	e3530000 	cmp	r3, #0, 0
    934c:	0a000004 	beq	9364 <strcmp+0x20>
    9350:	e5d12000 	ldrb	r2, [r1]
    9354:	e1530002 	cmp	r3, r2
    9358:	02800001 	addeq	r0, r0, #1, 0
    935c:	02811001 	addeq	r1, r1, #1, 0
    9360:	0afffff7 	beq	9344 <strcmp>
    9364:	e5d10000 	ldrb	r0, [r1]
    9368:	e0430000 	sub	r0, r3, r0
    936c:	e12fff1e 	bx	lr

00009370 <strcpy>:
    9370:	e1a0c000 	mov	ip, r0
    9374:	e5d12000 	ldrb	r2, [r1]
    9378:	e2811001 	add	r1, r1, #1, 0
    937c:	e5cc2000 	strb	r2, [ip]
    9380:	e28cc001 	add	ip, ip, #1, 0
    9384:	e3520000 	cmp	r2, #0, 0
    9388:	1afffff9 	bne	9374 <strcpy+0x4>
    938c:	e12fff1e 	bx	lr

00009390 <strncmp>:
    9390:	e3520000 	cmp	r2, #0, 0
    9394:	e2422001 	sub	r2, r2, #1, 0
    9398:	0a000005 	beq	93b4 <strncmp+0x24>
    939c:	e4d03001 	ldrb	r3, [r0], #1
    93a0:	e4d1c001 	ldrb	ip, [r1], #1
    93a4:	e153000c 	cmp	r3, ip
    93a8:	0afffff8 	beq	9390 <strncmp>
    93ac:	e043000c 	sub	r0, r3, ip
    93b0:	e12fff1e 	bx	lr
    93b4:	e3a00000 	mov	r0, #0, 0
    93b8:	e12fff1e 	bx	lr

000093bc <reboot_callout>:
    93bc:	e12fff1e 	bx	lr

Disassembly of section .rodata:

000093c0 <__FUNCTION__.5438-0x118>:
    93c0:	3d74756f 	cfldr64cc	mvdx7, [r4, #-444]!	; 0xfffffe44
    93c4:	000a6425 	andeq	r6, sl, r5, lsr #8
    93c8:	74696e69 	strbtvc	r6, [r9], #-3689	; 0xfffff197
    93cc:	3a6c6169 	bcc	1b21978 <__bss_end__+0x1b17e18>
    93d0:	6e6f6320 	cdpvs	3, 6, cr6, cr15, cr0, {1}
    93d4:	20676966 	rsbcs	r6, r7, r6, ror #18
    93d8:	20676572 	rsbcs	r6, r7, r2, ror r5
    93dc:	253d203d 	ldrcs	r2, [sp, #-61]!	; 0xffffffc3
    93e0:	6c282078 	stcvs	0, cr2, [r8], #-480	; 0xfffffe20
    93e4:	62253d6f 	eorvs	r3, r5, #7104	; 0x1bc0
    93e8:	3d69682c 	stclcc	8, cr6, [r9, #-176]!	; 0xffffff50
    93ec:	0a296225 	beq	a61c88 <__bss_end__+0xa58128>
    93f0:	00000000 	andeq	r0, r0, r0
    93f4:	31736461 	cmncc	r3, r1, ror #8
    93f8:	2e353131 	mrccs	1, 1, r3, cr5, cr1, {1}
    93fc:	00000063 	andeq	r0, r0, r3, rrx
    9400:	4f525245 	svcmi	0x00525245
    9404:	73253a52 			; <UNDEFINED> instruction: 0x73253a52
    9408:	3a73253a 	bcc	1cd28f8 <__bss_end__+0x1cc8d98>
    940c:	203a6425 	eorscs	r6, sl, r5, lsr #8
    9410:	534c4146 	movtpl	r4, #49478	; 0xc146
    9414:	253c2845 	ldrcs	r2, [ip, #-2117]!	; 0xfffff7bb
    9418:	3a293e73 	bcc	a58dec <__bss_end__+0xa4f28c>
    941c:	65642220 	strbvs	r2, [r4, #-544]!	; 0xfffffde0
    9420:	6c756166 	ldfvse	f6, [r5], #-408	; 0xfffffe68
    9424:	6f632074 	svcvs	0x00632074
    9428:	6769666e 	strbvs	r6, [r9, -lr, ror #12]!
    942c:	636e6920 	cmnvs	lr, #32, 18	; 0x80000
    9430:	6572726f 	ldrbvs	r7, [r2, #-623]!	; 0xfffffd91
    9434:	5c2e7463 	cfstrspl	mvf7, [lr], #-396	; 0xfffffe74
    9438:	000a226e 	andeq	r2, sl, lr, ror #4
    943c:	26206328 	strtcs	r6, [r0], -r8, lsr #6
    9440:	4e4f4320 	cdpmi	3, 4, cr4, cr15, cr0, {1}
    9444:	5f474946 	svcpl	0x00474946
    9448:	29464544 	stmdbcs	r6, {r2, r6, r8, sl, lr}^
    944c:	203d3d20 	eorscs	r3, sp, r0, lsr #26
    9450:	464e4f43 	strbmi	r4, [lr], -r3, asr #30
    9454:	445f4749 	ldrbmi	r4, [pc], #-1865	; 945c <__code_end__+0x9c>
    9458:	00004645 	andeq	r4, r0, r5, asr #12
    945c:	74697277 	strbtvc	r7, [r9], #-631	; 0xfffffd89
    9460:	20676e69 	rsbcs	r6, r7, r9, ror #28
    9464:	666e6f63 	strbtvs	r6, [lr], -r3, ror #30
    9468:	203a6769 	eorscs	r6, sl, r9, ror #14
    946c:	000a7825 	andeq	r7, sl, r5, lsr #16
    9470:	4f525245 	svcmi	0x00525245
    9474:	73253a52 			; <UNDEFINED> instruction: 0x73253a52
    9478:	3a73253a 	bcc	1cd2968 <__bss_end__+0x1cc8e08>
    947c:	203a6425 	eorscs	r6, sl, r5, lsr #8
    9480:	534c4146 	movtpl	r4, #49478	; 0xc146
    9484:	253c2845 	ldrcs	r2, [ip, #-2117]!	; 0xfffff7bb
    9488:	3a293e73 	bcc	a58e5c <__bss_end__+0xa4f2fc>
    948c:	65722220 	ldrbvs	r2, [r2, #-544]!	; 0xfffffde0
    9490:	63206461 			; <UNDEFINED> instruction: 0x63206461
    9494:	69666e6f 	stmdbvs	r6!, {r0, r1, r2, r3, r5, r6, r9, sl, fp, sp, lr}^
    9498:	6f642067 	svcvs	0x00642067
    949c:	6e207365 	cdpvs	3, 2, cr7, cr0, cr5, {3}
    94a0:	6d20746f 	cfstrsvs	mvf7, [r0, #-444]!	; 0xfffffe44
    94a4:	68637461 	stmdavs	r3!, {r0, r5, r6, sl, ip, sp, lr}^
    94a8:	61687720 	cmnvs	r8, r0, lsr #14
    94ac:	65772074 	ldrbvs	r2, [r7, #-116]!	; 0xffffff8c
    94b0:	6f727720 	svcvs	0x00727720
    94b4:	5c2e6574 	cfstr32pl	mvfx6, [lr], #-464	; 0xfffffe30
    94b8:	000a226e 	andeq	r2, sl, lr, ror #4
    94bc:	49534544 	ldmdbmi	r3, {r2, r6, r8, sl, lr}^
    94c0:	5f444552 	svcpl	0x00444552
    94c4:	464e4f43 	strbmi	r4, [lr], -r3, asr #30
    94c8:	525f4749 	subspl	r4, pc, #19136512	; 0x1240000
    94cc:	3d3d2044 	ldccc	0, cr2, [sp, #-272]!	; 0xfffffef0
    94d0:	6e6f6320 	cdpvs	3, 6, cr6, cr15, cr0, {1}
    94d4:	00000066 	andeq	r0, r0, r6, rrx

000094d8 <__FUNCTION__.5438>:
    94d8:	31736461 	cmncc	r3, r1, ror #8
    94dc:	5f353131 	svcpl	0x00353131
    94e0:	666e6f63 	strbtvs	r6, [lr], -r3, ror #30
    94e4:	00006769 	andeq	r6, r0, r9, ror #14
    94e8:	2e633269 	cdpcs	2, 6, cr3, cr3, cr9, {3}
    94ec:	00000063 	andeq	r0, r0, r3, rrx
    94f0:	494e4150 	stmdbmi	lr, {r4, r6, r8, lr}^
    94f4:	73253a43 			; <UNDEFINED> instruction: 0x73253a43
    94f8:	3a73253a 	bcc	1cd29e8 <__bss_end__+0x1cc8e88>
    94fc:	6f3a6425 	svcvs	0x003a6425
    9500:	65736666 	ldrbvs	r6, [r3, #-1638]!	; 0xfffff99a
    9504:	72772074 	rsbsvc	r2, r7, #116, 0	; 0x74
    9508:	3a676e6f 	bcc	19e4ecc <__bss_end__+0x19db36c>
    950c:	70786520 	rsbsvc	r6, r8, r0, lsr #10
    9510:	20746365 	rsbscs	r6, r4, r5, ror #6
    9514:	67207825 	strvs	r7, [r0, -r5, lsr #16]!
    9518:	2520746f 	strcs	r7, [r0, #-1135]!	; 0xfffffb91
    951c:	73252078 			; <UNDEFINED> instruction: 0x73252078
    9520:	666f5b20 	strbtvs	r5, [pc], -r0, lsr #22
    9524:	64253d66 	strtvs	r3, [r5], #-3430	; 0xfffff29a
    9528:	69626e2c 	stmdbvs	r2!, {r2, r3, r5, r9, sl, fp, sp, lr}^
    952c:	253d7374 	ldrcs	r7, [sp, #-884]!	; 0xfffffc8c
    9530:	0a0a5d64 	beq	2a0ac8 <__bss_end__+0x296f68>
    9534:	00000000 	andeq	r0, r0, r0
    9538:	64616572 	strbtvs	r6, [r1], #-1394	; 0xfffffa8e
    953c:	00000000 	andeq	r0, r0, r0
    9540:	61656c63 	cmnvs	r5, r3, ror #24
    9544:	00000072 	andeq	r0, r0, r2, ror r0
    9548:	494e4150 	stmdbmi	lr, {r4, r6, r8, lr}^
    954c:	73253a43 			; <UNDEFINED> instruction: 0x73253a43
    9550:	3a73253a 	bcc	1cd2a40 <__bss_end__+0x1cc8ee0>
    9554:	773a6425 	ldrvc	r6, [sl, -r5, lsr #8]!
    9558:	68746469 	ldmdavs	r4!, {r0, r3, r5, r6, sl, sp, lr}^
    955c:	6f727720 	svcvs	0x00727720
    9560:	203a676e 	eorscs	r6, sl, lr, ror #14
    9564:	65707865 	ldrbvs	r7, [r0, #-2149]!	; 0xfffff79b
    9568:	25207463 	strcs	r7, [r0, #-1123]!	; 0xfffffb9d
    956c:	6f672078 	svcvs	0x00672078
    9570:	78252074 	stmdavc	r5!, {r2, r4, r5, r6, sp}
    9574:	20732520 	rsbscs	r2, r3, r0, lsr #10
    9578:	66666f5b 	uqsaxvs	r6, r6, fp
    957c:	2c64253d 	cfstr64cs	mvdx2, [r4], #-244	; 0xffffff0c
    9580:	7469626e 	strbtvc	r6, [r9], #-622	; 0xfffffd92
    9584:	64253d73 	strtvs	r3, [r5], #-3443	; 0xfffff28d
    9588:	000a0a5d 	andeq	r0, sl, sp, asr sl
    958c:	00007473 	andeq	r7, r0, r3, ror r4
    9590:	64746e69 	ldrbtvs	r6, [r4], #-3689	; 0xfffff197
    9594:	00000000 	andeq	r0, r0, r0
    9598:	74746e69 	ldrbtvc	r6, [r4], #-3689	; 0xfffff197
    959c:	00000000 	andeq	r0, r0, r0
    95a0:	72746e69 	rsbsvc	r6, r4, #1680	; 0x690
    95a4:	00000000 	andeq	r0, r0, r0
    95a8:	65633269 	strbvs	r3, [r3, #-617]!	; 0xfffffd97
    95ac:	0000006e 	andeq	r0, r0, lr, rrx
    95b0:	00006174 	andeq	r6, r0, r4, ror r1
    95b4:	656e6f64 	strbvs	r6, [lr, #-3940]!	; 0xfffff09c
    95b8:	00000000 	andeq	r0, r0, r0
    95bc:	00777874 	rsbseq	r7, r7, r4, ror r8
    95c0:	00727872 	rsbseq	r7, r2, r2, ror r8
    95c4:	00647874 	rsbeq	r7, r4, r4, ror r8
    95c8:	00647872 	rsbeq	r7, r4, r2, ror r8
    95cc:	00657874 	rsbeq	r7, r5, r4, ror r8
    95d0:	00667872 	rsbeq	r7, r6, r2, ror r8
    95d4:	00727265 	rsbseq	r7, r2, r5, ror #4
    95d8:	746b6c63 	strbtvc	r6, [fp], #-3171	; 0xfffff39d
    95dc:	0000006b 	andeq	r0, r0, fp, rrx

000095e0 <__FUNCTION__.5539>:
    95e0:	63656863 	cmnvs	r5, #6488064	; 0x630000
    95e4:	616c5f6b 	cmnvs	ip, fp, ror #30
    95e8:	74756f79 	ldrbtvc	r6, [r5], #-3961	; 0xfffff087
    95ec:	00000000 	andeq	r0, r0, r0
    95f0:	696c2f2e 	stmdbvs	ip!, {r1, r2, r3, r5, r8, r9, sl, fp, sp}^
    95f4:	762f6362 	strtvc	r6, [pc], -r2, ror #6
    95f8:	72702d61 	rsbsvc	r2, r0, #6208	; 0x1840
    95fc:	6b746e69 	blvs	1d24fa8 <__bss_end__+0x1d1b448>
    9600:	0000632e 	andeq	r6, r0, lr, lsr #6
    9604:	494e4150 	stmdbmi	lr, {r4, r6, r8, lr}^
    9608:	73253a43 			; <UNDEFINED> instruction: 0x73253a43
    960c:	3a73253a 	bcc	1cd2afc <__bss_end__+0x1cc8f9c>
    9610:	253a6425 	ldrcs	r6, [sl, #-1061]!	; 0xfffffbdb
    9614:	00000a73 	andeq	r0, r0, r3, ror sl
    9618:	00000030 	andeq	r0, r0, r0, lsr r0
    961c:	33323130 	teqcc	r2, #12
    9620:	37363534 			; <UNDEFINED> instruction: 0x37363534
    9624:	00003938 	andeq	r3, r0, r8, lsr r9
    9628:	33323130 	teqcc	r2, #12
    962c:	37363534 			; <UNDEFINED> instruction: 0x37363534
    9630:	62613938 	rsbvs	r3, r1, #56, 18	; 0xe0000
    9634:	66656463 	strbtvs	r6, [r5], -r3, ror #8
    9638:	00000000 	andeq	r0, r0, r0
    963c:	00003130 	andeq	r3, r0, r0, lsr r1
    9640:	63747570 	cmnvs	r4, #112, 10	; 0x1c000000
    9644:	0070665f 	rsbseq	r6, r0, pc, asr r6
    9648:	0000002e 	andeq	r0, r0, lr, lsr #32
    964c:	74646977 	strbtvc	r6, [r4], #-2423	; 0xfffff689
    9650:	203c2068 	eorscs	r2, ip, r8, rrx
    9654:	00003233 	andeq	r3, r0, r3, lsr r2
    9658:	00786c6c 	rsbseq	r6, r8, ip, ror #24
    965c:	00646c6c 	rsbeq	r6, r4, ip, ror #24
    9660:	253d3078 	ldrcs	r3, [sp, #-120]!	; 0xffffff88
    9664:	00000a78 	andeq	r0, r0, r8, ror sl
    9668:	253d3178 	ldrcs	r3, [sp, #-376]!	; 0xfffffe88
    966c:	00000a78 	andeq	r0, r0, r8, ror sl
    9670:	6e727473 	mrcvs	4, 3, r7, cr2, cr3, {3}
    9674:	28706d63 	ldmdacs	r0!, {r0, r1, r5, r6, r8, sl, fp, sp, lr}^
    9678:	202c7974 	eorcs	r7, ip, r4, ror r9
    967c:	786c6c22 	stmdavc	ip!, {r1, r5, sl, fp, sp, lr}^
    9680:	33202c22 			; <UNDEFINED> instruction: 0x33202c22
    9684:	3d3d2029 	ldccc	0, cr2, [sp, #-164]!	; 0xffffff5c
    9688:	7c203020 	stcvc	0, cr3, [r0], #-128	; 0xffffff80
    968c:	7473207c 	ldrbtvc	r2, [r3], #-124	; 0xffffff84
    9690:	6d636e72 	stclvs	14, cr6, [r3, #-456]!	; 0xfffffe38
    9694:	79742870 	ldmdbvc	r4!, {r4, r5, r6, fp, sp}^
    9698:	6c22202c 	stcvs	0, cr2, [r2], #-176	; 0xffffff50
    969c:	2c22646c 	cfstrscs	mvf6, [r2], #-432	; 0xfffffe50
    96a0:	20293320 	eorcs	r3, r9, r0, lsr #6
    96a4:	30203d3d 	eorcc	r3, r0, sp, lsr sp
    96a8:	00000000 	andeq	r0, r0, r0
    96ac:	494e4150 	stmdbmi	lr, {r4, r6, r8, lr}^
    96b0:	73253a43 			; <UNDEFINED> instruction: 0x73253a43
    96b4:	3a73253a 	bcc	1cd2ba4 <__bss_end__+0x1cc9044>
    96b8:	693a6425 	ldmdbvs	sl!, {r0, r2, r5, sl, sp, lr}
    96bc:	736f706d 	cmnvc	pc, #109, 0	; 0x6d
    96c0:	6c626973 			; <UNDEFINED> instruction: 0x6c626973
    96c4:	66203a65 	strtvs	r3, [r0], -r5, ror #20
    96c8:	3c3d746d 	cfldrscc	mvf7, [sp], #-436	; 0xfffffe4c
    96cc:	0a3e7325 	beq	fa6368 <__bss_end__+0xf9c808>
    96d0:	0000000a 	andeq	r0, r0, sl
    96d4:	6e697270 	mcrvs	2, 3, r7, cr9, cr0, {3}
    96d8:	203a6b74 	eorscs	r6, sl, r4, ror fp
    96dc:	20746f6e 	rsbscs	r6, r4, lr, ror #30
    96e0:	646e6168 	strbtvs	r6, [lr], #-360	; 0xfffffe98
    96e4:	676e696c 	strbvs	r6, [lr, -ip, ror #18]!
    96e8:	65707320 	ldrbvs	r7, [r0, #-800]!	; 0xfffffce0
    96ec:	69666963 	stmdbvs	r6!, {r0, r1, r5, r6, r8, fp, sp, lr}^
    96f0:	27207265 	strcs	r7, [r0, -r5, ror #4]!
    96f4:	20276325 	eorcs	r6, r7, r5, lsr #6
    96f8:	63736128 	cmnvs	r3, #10
    96fc:	253d6969 	ldrcs	r6, [sp, #-2409]!	; 0xfffff697
    9700:	000a2964 	andeq	r2, sl, r4, ror #18
    9704:	494e4150 	stmdbmi	lr, {r4, r6, r8, lr}^
    9708:	73253a43 			; <UNDEFINED> instruction: 0x73253a43
    970c:	3a73253a 	bcc	1cd2bfc <__bss_end__+0x1cc909c>
    9710:	703a6425 	eorsvc	r6, sl, r5, lsr #8
    9714:	746e6972 	strbtvc	r6, [lr], #-2418	; 0xfffff68e
    9718:	7265206b 	rsbvc	r2, r5, #107, 0	; 0x6b
    971c:	0a726f72 	beq	1ca54ec <__bss_end__+0x1c9b98c>
    9720:	0000000a 	andeq	r0, r0, sl

00009724 <__FUNCTION__.5371>:
    9724:	74696d65 	strbtvc	r6, [r9], #-3429	; 0xfffff29b
    9728:	00000000 	andeq	r0, r0, r0

0000972c <__FUNCTION__.5319>:
    972c:	5f697072 	svcpl	0x00697072
    9730:	5f746573 	svcpl	0x00746573
    9734:	7074756f 	rsbsvc	r7, r4, pc, ror #10
    9738:	00007475 	andeq	r7, r0, r5, ror r4

0000973c <__FUNCTION__.5397>:
    973c:	705f6176 	subsvc	r6, pc, r6, ror r1	; <UNPREDICTABLE>
    9740:	746e6972 	strbtvc	r6, [lr], #-2418	; 0xfffff68e
    9744:	0000006b 	andeq	r0, r0, fp, rrx
    9748:	454e4f44 	strbmi	r4, [lr, #-3908]	; 0xfffff0bc
    974c:	0a212121 	beq	851bd8 <__bss_end__+0x848078>
	...

Disassembly of section .data:

00009754 <rpi_putchar>:
    9754:	00008660 	andeq	r8, r0, r0, ror #12

00009758 <putk>:
    9758:	0000869c 	muleq	r0, ip, r6

Disassembly of section .bss:

0000975c <__bss_start__>:
	...

Disassembly of section .ARM.attributes:

00000000 <.ARM.attributes>:
   0:	00002e41 	andeq	r2, r0, r1, asr #28
   4:	61656100 	cmnvs	r5, r0, lsl #2
   8:	01006962 	tsteq	r0, r2, ror #18
   c:	00000024 	andeq	r0, r0, r4, lsr #32
  10:	4b5a3605 	blmi	168d82c <__bss_end__+0x1683ccc>
  14:	08070600 	stmdaeq	r7, {r9, sl}
  18:	0a010901 	beq	42424 <__bss_end__+0x388c4>
  1c:	14041202 	strne	r1, [r4], #-514	; 0xfffffdfe
  20:	17011501 	strne	r1, [r1, -r1, lsl #10]
  24:	1a011803 	bne	46038 <__bss_end__+0x3c4d8>
  28:	22011c01 	andcs	r1, r1, #256	; 0x100
  2c:	Address 0x000000000000002c is out of bounds.


Disassembly of section .comment:

00000000 <.comment>:
   0:	3a434347 	bcc	10d0d24 <__bss_end__+0x10c71c4>
   4:	4e472820 	cdpmi	8, 4, cr2, cr7, cr0, {1}
   8:	6f542055 	svcvs	0x00542055
   c:	20736c6f 	rsbscs	r6, r3, pc, ror #24
  10:	20726f66 	rsbscs	r6, r2, r6, ror #30
  14:	206d7241 	rsbcs	r7, sp, r1, asr #4
  18:	65626d45 	strbvs	r6, [r2, #-3397]!	; 0xfffff2bb
  1c:	64656464 	strbtvs	r6, [r5], #-1124	; 0xfffffb9c
  20:	6f725020 	svcvs	0x00725020
  24:	73736563 	cmnvc	r3, #415236096	; 0x18c00000
  28:	2073726f 	rsbscs	r7, r3, pc, ror #4
  2c:	30322d39 	eorscc	r2, r2, r9, lsr sp
  30:	712d3931 			; <UNDEFINED> instruction: 0x712d3931
  34:	616d2d34 	cmnvs	sp, r4, lsr sp
  38:	29726f6a 	ldmdbcs	r2!, {r1, r3, r5, r6, r8, r9, sl, fp, sp, lr}^
  3c:	322e3920 	eorcc	r3, lr, #32, 18	; 0x80000
  40:	3220312e 	eorcc	r3, r0, #-2147483637	; 0x8000000b
  44:	31393130 	teqcc	r9, r0, lsr r1
  48:	20353230 	eorscs	r3, r5, r0, lsr r2
  4c:	6c657228 	sfmvs	f7, 2, [r5], #-160	; 0xffffff60
  50:	65736165 	ldrbvs	r6, [r3, #-357]!	; 0xfffffe9b
  54:	415b2029 	cmpmi	fp, r9, lsr #32
  58:	612f4d52 			; <UNDEFINED> instruction: 0x612f4d52
  5c:	392d6d72 	pushcc	{r1, r4, r5, r6, r8, sl, fp, sp, lr}
  60:	6172622d 	cmnvs	r2, sp, lsr #4
  64:	2068636e 	rsbcs	r6, r8, lr, ror #6
  68:	69766572 	ldmdbvs	r6!, {r1, r4, r5, r6, r8, sl, sp, lr}^
  6c:	6e6f6973 			; <UNDEFINED> instruction: 0x6e6f6973
  70:	37373220 	ldrcc	r3, [r7, -r0, lsr #4]!
  74:	5d393935 			; <UNDEFINED> instruction: 0x5d393935
  78:	43434700 	movtmi	r4, #14080	; 0x3700
  7c:	4728203a 			; <UNDEFINED> instruction: 0x4728203a
  80:	4120554e 			; <UNDEFINED> instruction: 0x4120554e
  84:	45206d72 	strmi	r6, [r0, #-3442]!	; 0xfffff28e
  88:	6465626d 	strbtvs	r6, [r5], #-621	; 0xfffffd93
  8c:	20646564 	rsbcs	r6, r4, r4, ror #10
  90:	6c6f6f54 	stclvs	15, cr6, [pc], #-336	; ffffff48 <__bss_end__+0xffff63e8>
  94:	69616863 	stmdbvs	r1!, {r0, r1, r5, r6, fp, sp, lr}^
  98:	3031206e 	eorscc	r2, r1, lr, rrx
  9c:	322d332e 	eorcc	r3, sp, #-1207959552	; 0xb8000000
  a0:	2e313230 	mrccs	2, 1, r3, cr1, cr0, {1}
  a4:	20293031 	eorcs	r3, r9, r1, lsr r0
  a8:	332e3031 			; <UNDEFINED> instruction: 0x332e3031
  ac:	3220312e 	eorcc	r3, r0, #-2147483637	; 0x8000000b
  b0:	30313230 	eorscc	r3, r1, r0, lsr r2
  b4:	20343238 	eorscs	r3, r4, r8, lsr r2
  b8:	6c657228 	sfmvs	f7, 2, [r5], #-160	; 0xffffff60
  bc:	65736165 	ldrbvs	r6, [r3, #-357]!	; 0xfffffe9b
  c0:	Address 0x00000000000000c0 is out of bounds.


Disassembly of section .debug_info:

00000000 <.debug_info>:
       0:	000001d9 	ldrdeq	r0, [r0], -r9
       4:	00000004 	andeq	r0, r0, r4
       8:	01040000 	mrseq	r0, (UNDEF: 4)
       c:	000000cd 	andeq	r0, r0, sp, asr #1
      10:	00018f0c 	andeq	r8, r1, ip, lsl #30
      14:	00004600 	andeq	r4, r0, r0, lsl #12
      18:	0080ac00 	addeq	sl, r0, r0, lsl #24
      1c:	00004800 	andeq	r4, r0, r0, lsl #16
      20:	00000000 	andeq	r0, r0, r0
      24:	05040200 	streq	r0, [r4, #-512]	; 0xfffffe00
      28:	00746e69 	rsbseq	r6, r4, r9, ror #28
      2c:	a2070403 	andge	r0, r7, #50331648	; 0x3000000
      30:	03000001 	movweq	r0, #1
      34:	00240601 	eoreq	r0, r4, r1, lsl #12
      38:	02030000 	andeq	r0, r3, #0, 0
      3c:	0001d105 	andeq	sp, r1, r5, lsl #2
      40:	05040300 	streq	r0, [r4, #-768]	; 0xfffffd00
      44:	000001bc 			; <UNDEFINED> instruction: 0x000001bc
      48:	b7050803 	strlt	r0, [r5, -r3, lsl #16]
      4c:	04000001 	streq	r0, [r0], #-1
      50:	000001af 	andeq	r0, r0, pc, lsr #3
      54:	5b182e04 	blpl	60b86c <__bss_end__+0x601d0c>
      58:	03000000 	movweq	r0, #0
      5c:	00220801 	eoreq	r0, r2, r1, lsl #16
      60:	02030000 	andeq	r0, r3, #0, 0
      64:	00009c07 	andeq	r9, r0, r7, lsl #24
      68:	07040300 	streq	r0, [r4, -r0, lsl #6]
      6c:	0000019d 	muleq	r0, sp, r1
      70:	98070803 	stmdals	r7, {r0, r1, fp}
      74:	05000001 	streq	r0, [r0, #-1]
      78:	00000025 	andeq	r0, r0, r5, lsr #32
      7c:	00000086 	andeq	r0, r0, r6, lsl #1
      80:	00002506 	andeq	r2, r0, r6, lsl #10
      84:	c5070000 	strgt	r0, [r7, #-0]
      88:	02000001 	andeq	r0, r0, #1, 0
      8c:	00920e1c 	addseq	r0, r2, ip, lsl lr
      90:	04080000 	streq	r0, [r8], #-0
      94:	00000077 	andeq	r0, r0, r7, ror r0
      98:	00002505 	andeq	r2, r0, r5, lsl #10
      9c:	0000a700 	andeq	sl, r0, r0, lsl #14
      a0:	00a70600 	adceq	r0, r7, r0, lsl #12
      a4:	08000000 	stmdaeq	r0, {}	; <UNPREDICTABLE>
      a8:	0000b404 	andeq	fp, r0, r4, lsl #8
      ac:	08010300 	stmdaeq	r1, {r8, r9}
      b0:	0000002b 	andeq	r0, r0, fp, lsr #32
      b4:	0000ad09 	andeq	sl, r0, r9, lsl #26
      b8:	069e0700 	ldreq	r0, [lr], r0, lsl #14
      bc:	21020000 	mrscs	r0, (UNDEF: 2)
      c0:	0000c50e 	andeq	ip, r0, lr, lsl #10
      c4:	98040800 	stmdals	r4, {fp}
      c8:	0a000000 	beq	d0 <__code_start__-0x7f30>
      cc:	005b0107 	subseq	r0, fp, r7, lsl #2
      d0:	0d030000 	stceq	0, cr0, [r3, #-0]
      d4:	0000e606 	andeq	lr, r0, r6, lsl #12
      d8:	000b0b00 	andeq	r0, fp, r0, lsl #22
      dc:	0b000000 	bleq	e4 <__code_start__-0x7f1c>
      e0:	00000000 	andeq	r0, r0, r0
      e4:	1a0c0001 	bne	3000f0 <__bss_end__+0x2f6590>
      e8:	01000000 	mrseq	r0, (UNDEF: 0)
      ec:	80ac0612 	adchi	r0, ip, r2, lsl r6
      f0:	00480000 	subeq	r0, r8, r0
      f4:	9c010000 	stcls	0, cr0, [r1], {-0}
      f8:	000001a0 	andeq	r0, r0, r0, lsr #3
      fc:	0001db0d 	andeq	sp, r1, sp, lsl #22
     100:	0d130100 	ldfeqs	f0, [r3, #-0]
     104:	0000004f 	andeq	r0, r0, pc, asr #32
     108:	00000002 	andeq	r0, r0, r2
     10c:	00000000 	andeq	r0, r0, r0
     110:	0080b80e 	addeq	fp, r0, lr, lsl #16
     114:	00003400 	andeq	r3, r0, r0, lsl #8
     118:	00018d00 	andeq	r8, r1, r0, lsl #26
     11c:	00690f00 	rsbeq	r0, r9, r0, lsl #30
     120:	250a1d01 	strcs	r1, [sl, #-3329]	; 0xfffff2ff
     124:	19000000 	stmdbne	r0, {}	; <UNPREDICTABLE>
     128:	15000000 	strne	r0, [r0, #-0]
     12c:	10000000 	andne	r0, r0, r0
     130:	000080c4 	andeq	r8, r0, r4, asr #1
     134:	00000020 	andeq	r0, r0, r0, lsr #32
     138:	0100760f 	tsteq	r0, pc, lsl #12
     13c:	003a0f1e 	eorseq	r0, sl, lr, lsl pc
     140:	003c0000 	eorseq	r0, ip, r0
     144:	00380000 	eorseq	r0, r8, r0
     148:	d0110000 	andsle	r0, r1, r0
     14c:	a0000080 	andge	r0, r0, r0, lsl #1
     150:	63000001 	movwvs	r0, #1
     154:	12000001 	andne	r0, r0, #1, 0
     158:	75025001 	strvc	r5, [r2, #-1]
     15c:	51011200 	mrspl	r1, R9_usr
     160:	11003001 	tstne	r0, r1
     164:	000080dc 	ldrdeq	r8, [r0], -ip
     168:	000001ac 	andeq	r0, r0, ip, lsr #3
     16c:	0000017a 	andeq	r0, r0, sl, ror r1
     170:	05500112 	ldrbeq	r0, [r0, #-274]	; 0xfffffeee
     174:	0093c003 	addseq	ip, r3, r3
     178:	e4130000 	ldr	r0, [r3], #-0
     17c:	b8000080 	stmdalt	r0, {r7}
     180:	12000001 	andne	r0, r0, #1, 0
     184:	0a035001 	beq	d4190 <__bss_end__+0xca630>
     188:	000003e8 	andeq	r0, r0, r8, ror #7
     18c:	80b41400 	adcshi	r1, r4, r0, lsl #8
     190:	01c40000 	biceq	r0, r4, r0
     194:	f0140000 			; <UNDEFINED> instruction: 0xf0140000
     198:	d0000080 	andle	r0, r0, r0, lsl #1
     19c:	00000001 	andeq	r0, r0, r1
     1a0:	0000af15 	andeq	sl, r0, r5, lsl pc
     1a4:	0000af00 	andeq	sl, r0, r0, lsl #30
     1a8:	0a080300 	beq	200db0 <__bss_end__+0x1f7250>
     1ac:	00062715 	andeq	r2, r6, r5, lsl r7
     1b0:	00062700 	andeq	r2, r6, r0, lsl #14
     1b4:	06280200 	strteq	r0, [r8], -r0, lsl #4
     1b8:	00003015 	andeq	r3, r0, r5, lsl r0
     1bc:	00003000 	andeq	r3, r0, r0
     1c0:	06580200 	ldrbeq	r0, [r8], -r0, lsl #4
     1c4:	0000be15 	andeq	fp, r0, r5, lsl lr
     1c8:	0000be00 	andeq	fp, r0, r0, lsl #28
     1cc:	090a0300 	stmdbeq	sl, {r8, r9}
     1d0:	00003915 	andeq	r3, r0, r5, lsl r9
     1d4:	00003900 	andeq	r3, r0, r0, lsl #18
     1d8:	066e0200 	strbteq	r0, [lr], -r0, lsl #4
     1dc:	00054d00 	andeq	r4, r5, r0, lsl #26
     1e0:	24000400 	strcs	r0, [r0], #-1024	; 0xfffffc00
     1e4:	04000001 	streq	r0, [r0], #-1
     1e8:	0000cd01 	andeq	ip, r0, r1, lsl #26
     1ec:	026f0c00 	rsbeq	r0, pc, #0, 24
     1f0:	00460000 	subeq	r0, r6, r0
     1f4:	80f40000 	rscshi	r0, r4, r0
     1f8:	01c40000 	biceq	r0, r4, r0
     1fc:	01700000 	cmneq	r0, r0
     200:	04020000 	streq	r0, [r2], #-0
     204:	746e6905 	strbtvc	r6, [lr], #-2309	; 0xfffff6fb
     208:	07040300 	streq	r0, [r4, -r0, lsl #6]
     20c:	000001a2 	andeq	r0, r0, r2, lsr #3
     210:	24060103 	strcs	r0, [r6], #-259	; 0xfffffefd
     214:	03000000 	movweq	r0, #0
     218:	01d10502 	bicseq	r0, r1, r2, lsl #10
     21c:	04030000 	streq	r0, [r3], #-0
     220:	0001bc05 	andeq	fp, r1, r5, lsl #24
     224:	05080300 	streq	r0, [r8, #-768]	; 0xfffffd00
     228:	000001b7 			; <UNDEFINED> instruction: 0x000001b7
     22c:	0001af04 	andeq	sl, r1, r4, lsl #30
     230:	182e0200 	stmdane	lr!, {r9}
     234:	0000005b 	andeq	r0, r0, fp, asr r0
     238:	22080103 	andcs	r0, r8, #-1073741824	; 0xc0000000
     23c:	04000000 	streq	r0, [r0], #-0
     240:	0000025d 	andeq	r0, r0, sp, asr r2
     244:	73193102 	tstvc	r9, #-2147483648	; 0x80000000
     248:	05000000 	streq	r0, [r0, #-0]
     24c:	00000062 	andeq	r0, r0, r2, rrx
     250:	9c070203 	sfmls	f0, 4, [r7], {3}
     254:	03000000 	movweq	r0, #0
     258:	019d0704 	orrseq	r0, sp, r4, lsl #14
     25c:	08030000 	stmdaeq	r3, {}	; <UNPREDICTABLE>
     260:	00019807 	andeq	r9, r1, r7, lsl #16
     264:	00250600 	eoreq	r0, r5, r0, lsl #12
     268:	00970000 	addseq	r0, r7, r0
     26c:	25070000 	strcs	r0, [r7, #-0]
     270:	00000000 	andeq	r0, r0, r0
     274:	0001c508 	andeq	ip, r1, r8, lsl #10
     278:	0e1c0300 	cdpeq	3, 1, cr0, cr12, cr0, {0}
     27c:	000000a3 	andeq	r0, r0, r3, lsr #1
     280:	00880409 	addeq	r0, r8, r9, lsl #8
     284:	25060000 	strcs	r0, [r6, #-0]
     288:	b8000000 	stmdalt	r0, {}	; <UNPREDICTABLE>
     28c:	07000000 	streq	r0, [r0, -r0]
     290:	000000b8 	strheq	r0, [r0], -r8
     294:	c5040900 	strgt	r0, [r4, #-2304]	; 0xfffff700
     298:	03000000 	movweq	r0, #0
     29c:	002b0801 	eoreq	r0, fp, r1, lsl #16
     2a0:	be050000 	cdplt	0, 0, cr0, cr5, cr0, {0}
     2a4:	08000000 	stmdaeq	r0, {}	; <UNPREDICTABLE>
     2a8:	0000069e 	muleq	r0, lr, r6
     2ac:	d60e2103 	strle	r2, [lr], -r3, lsl #2
     2b0:	09000000 	stmdbeq	r0, {}	; <UNPREDICTABLE>
     2b4:	0000a904 	andeq	sl, r0, r4, lsl #18
     2b8:	01070a00 	tsteq	r7, r0, lsl #20
     2bc:	0000005b 	andeq	r0, r0, fp, asr r0
     2c0:	f7060d04 			; <UNDEFINED> instruction: 0xf7060d04
     2c4:	0b000000 	bleq	2cc <__code_start__-0x7d34>
     2c8:	0000000b 	andeq	r0, r0, fp
     2cc:	00000b00 	andeq	r0, r0, r0, lsl #22
     2d0:	00010000 	andeq	r0, r1, r0
     2d4:	0001fb0c 	andeq	pc, r1, ip, lsl #22
     2d8:	17180100 	ldrne	r0, [r8, -r0, lsl #2]
     2dc:	0000006e 	andeq	r0, r0, lr, rrx
     2e0:	420c8583 	andmi	r8, ip, #549453824	; 0x20c00000
     2e4:	01000002 	tsteq	r0, r2
     2e8:	006e1719 	rsbeq	r1, lr, r9, lsl r7
     2ec:	02e30000 	rsceq	r0, r3, #0, 0
     2f0:	0000be0d 	andeq	fp, r0, sp, lsl #28
     2f4:	09580100 	ldmdbeq	r8, {r8}^
     2f8:	0000004f 	andeq	r0, r0, pc, asr #32
     2fc:	00008194 	muleq	r0, r4, r1
     300:	00000124 	andeq	r0, r0, r4, lsr #2
     304:	03189c01 	tsteq	r8, #256	; 0x100
     308:	070a0000 	streq	r0, [sl, -r0]
     30c:	00005b01 	andeq	r5, r0, r1, lsl #22
     310:	0a5e0100 	beq	1780718 <__bss_end__+0x1776bb8>
     314:	00000142 	andeq	r0, r0, r2, asr #2
     318:	0001db0b 	andeq	sp, r1, fp, lsl #22
     31c:	0e004800 	cdpeq	8, 0, cr4, cr0, cr0, {0}
     320:	75010063 	strvc	r0, [r1, #-99]	; 0xffffff9d
     324:	0000620b 	andeq	r6, r0, fp, lsl #4
     328:	00005c00 	andeq	r5, r0, r0, lsl #24
     32c:	00005a00 	andeq	r5, r0, r0, lsl #20
     330:	02190f00 	andseq	r0, r9, #0, 30
     334:	03280000 			; <UNDEFINED> instruction: 0x03280000
     338:	03050000 	movweq	r0, #20480	; 0x5000
     33c:	000094d8 	ldrdeq	r9, [r0], -r8
     340:	00025410 	andeq	r5, r2, r0, lsl r4
     344:	0b840100 	bleq	fe10074c <__bss_end__+0xfe0f6bec>
     348:	00000062 	andeq	r0, r0, r2, rrx
     34c:	00000073 	andeq	r0, r0, r3, ror r0
     350:	0000006f 	andeq	r0, r0, pc, rrx
     354:	00025810 	andeq	r5, r2, r0, lsl r8
     358:	0b8d0100 	bleq	fe340760 <__bss_end__+0xfe336c00>
     35c:	00000062 	andeq	r0, r0, r2, rrx
     360:	00000095 	muleq	r0, r5, r0
     364:	00000091 	muleq	r0, r1, r0
     368:	0081a411 	addeq	sl, r1, r1, lsl r4
     36c:	0004f000 	andeq	pc, r4, r0
     370:	00019e00 	andeq	r9, r1, r0, lsl #28
     374:	50011200 	andpl	r1, r1, r0, lsl #4
     378:	13004e01 	movwne	r4, #3585	; 0xe01
     37c:	000081a8 	andeq	r8, r0, r8, lsr #3
     380:	000004fc 	strdeq	r0, [r0], -ip
     384:	0081b011 	addeq	fp, r1, r1, lsl r0
     388:	0004f000 	andeq	pc, r4, r0
     38c:	0001ba00 	andeq	fp, r1, r0, lsl #20
     390:	50011200 	andpl	r1, r1, r0, lsl #4
     394:	13004e01 	movwne	r4, #3585	; 0xe01
     398:	000081b4 			; <UNDEFINED> instruction: 0x000081b4
     39c:	000004b0 			; <UNDEFINED> instruction: 0x000004b0
     3a0:	0081bc11 	addeq	fp, r1, r1, lsl ip
     3a4:	00050800 	andeq	r0, r5, r0, lsl #16
     3a8:	0001d600 	andeq	sp, r1, r0, lsl #12
     3ac:	50011200 	andpl	r1, r1, r0, lsl #4
     3b0:	11004901 	tstne	r0, r1, lsl #18
     3b4:	000081c8 	andeq	r8, r0, r8, asr #3
     3b8:	0000035c 	andeq	r0, r0, ip, asr r3
     3bc:	000001ef 	andeq	r0, r0, pc, ror #3
     3c0:	02500112 	subseq	r0, r0, #-2147483644	; 0x80000004
     3c4:	01124808 	tsteq	r2, r8, lsl #16
     3c8:	00310151 	eorseq	r0, r1, r1, asr r1
     3cc:	0081e411 	addeq	lr, r1, r1, lsl r4
     3d0:	00051400 	andeq	r1, r5, r0, lsl #8
     3d4:	00021800 	andeq	r1, r2, r0, lsl #16
     3d8:	50011200 	andpl	r1, r1, r0, lsl #4
     3dc:	93c80305 	bicls	r0, r8, #335544320	; 0x14000000
     3e0:	01120000 	tsteq	r2, r0
     3e4:	00740251 	rsbseq	r0, r4, r1, asr r2
     3e8:	08530112 	ldmdaeq	r3, {r1, r4, r8}^
     3ec:	25380074 	ldrcs	r0, [r8, #-116]!	; 0xffffff8c
     3f0:	1affff0a 	bne	20 <__code_start__-0x7fe0>
     3f4:	82041100 	andhi	r1, r4, #0
     3f8:	032d0000 			; <UNDEFINED> instruction: 0x032d0000
     3fc:	022c0000 	eoreq	r0, ip, #0, 0
     400:	01120000 	tsteq	r2, r0
     404:	00740250 	rsbseq	r0, r4, r0, asr r2
     408:	82141100 	andshi	r1, r4, #0
     40c:	05140000 	ldreq	r0, [r4, #-0]
     410:	02490000 	subeq	r0, r9, #0, 0
     414:	01120000 	tsteq	r2, r0
     418:	5c030550 	cfstr32pl	mvfx0, [r3], {80}	; 0x50
     41c:	12000094 	andne	r0, r0, #148, 0	; 0x94
     420:	74025101 	strvc	r5, [r2], #-257	; 0xfffffeff
     424:	24110000 	ldrcs	r0, [r1], #-0
     428:	2b000082 	blcs	638 <__code_start__-0x79c8>
     42c:	68000004 	stmdavs	r0, {r2}
     430:	12000002 	andne	r0, r0, #2, 0
     434:	08025001 	stmdaeq	r2, {r0, ip, lr}
     438:	51011248 	tstpl	r1, r8, asr #4
     43c:	01123101 	tsteq	r2, r1, lsl #2
     440:	00740252 	rsbseq	r0, r4, r2, asr r2
     444:	82301100 	eorshi	r1, r0, #0
     448:	035c0000 	cmpeq	ip, #0, 0
     44c:	02810000 	addeq	r0, r1, #0, 0
     450:	01120000 	tsteq	r2, r0
     454:	48080250 	stmdami	r8, {r4, r6, r9}
     458:	01510112 	cmpeq	r1, r2, lsl r1
     45c:	4c130031 	ldcmi	0, cr0, [r3], {49}	; 0x31
     460:	20000082 	andcs	r0, r0, r2, lsl #1
     464:	11000005 	tstne	r0, r5
     468:	00008268 	andeq	r8, r0, r8, ror #4
     46c:	00000514 	andeq	r0, r0, r4, lsl r5
     470:	000002c3 	andeq	r0, r0, r3, asr #5
     474:	05500112 	ldrbeq	r0, [r0, #-274]	; 0xfffffeee
     478:	00940003 	addseq	r0, r4, r3
     47c:	51011200 	mrspl	r1, R9_usr
     480:	93f40305 	mvnsls	r0, #335544320	; 0x14000000
     484:	01120000 	tsteq	r2, r0
     488:	d8030552 	stmdale	r3, {r1, r4, r6, r8, sl}
     48c:	12000094 	andne	r0, r0, #148, 0	; 0x94
     490:	08025301 	stmdaeq	r2, {r0, r8, r9, ip, lr}
     494:	7d02127c 	sfmvc	f1, 4, [r2, #-496]	; 0xfffffe10
     498:	3c030500 	cfstr32cc	mvfx0, [r3], {-0}
     49c:	00000094 	muleq	r0, r4, r0
     4a0:	00826c13 	addeq	r6, r2, r3, lsl ip
     4a4:	00052c00 	andeq	r2, r5, r0, lsl #24
     4a8:	82701300 	rsbshi	r1, r0, #0, 6
     4ac:	05200000 	streq	r0, [r0, #-0]!
     4b0:	8c110000 	ldchi	0, cr0, [r1], {-0}
     4b4:	14000082 	strne	r0, [r0], #-130	; 0xffffff7e
     4b8:	0e000005 	cdpeq	0, 0, cr0, cr0, cr5, {0}
     4bc:	12000003 	andne	r0, r0, #3, 0
     4c0:	03055001 	movweq	r5, #20481	; 0x5001
     4c4:	00009470 	andeq	r9, r0, r0, ror r4
     4c8:	05510112 	ldrbeq	r0, [r1, #-274]	; 0xfffffeee
     4cc:	0093f403 	addseq	pc, r3, r3, lsl #8
     4d0:	52011200 	andpl	r1, r1, #0, 4
     4d4:	94d80305 	ldrbls	r0, [r8], #773	; 0x305
     4d8:	01120000 	tsteq	r2, r0
     4dc:	8e080253 	mcrhi	2, 0, r0, cr8, cr3, {2}
     4e0:	007d0212 	rsbseq	r0, sp, r2, lsl r2
     4e4:	94bc0305 	ldrtls	r0, [ip], #773	; 0x305
     4e8:	13000000 	movwne	r0, #0
     4ec:	00008290 	muleq	r0, r0, r2
     4f0:	0000052c 	andeq	r0, r0, ip, lsr #10
     4f4:	00c51400 	sbceq	r1, r5, r0, lsl #8
     4f8:	03280000 			; <UNDEFINED> instruction: 0x03280000
     4fc:	2c150000 	ldccs	0, cr0, [r5], {-0}
     500:	0e000000 	cdpeq	0, 0, cr0, cr0, cr0, {0}
     504:	03180500 	tsteq	r8, #0, 10
     508:	e40d0000 	str	r0, [sp], #-0
     50c:	01000001 	tsteq	r0, r1
     510:	00620a49 	rsbeq	r0, r2, r9, asr #20
     514:	81880000 	orrhi	r0, r8, r0
     518:	000c0000 	andeq	r0, ip, r0
     51c:	9c010000 	stcls	0, cr0, [r1], {-0}
     520:	0000035c 	andeq	r0, r0, ip, asr r3
     524:	0001f216 	andeq	pc, r1, r6, lsl r2	; <UNPREDICTABLE>
     528:	21490100 	mrscs	r0, (UNDEF: 89)
     52c:	00000062 	andeq	r0, r0, r2, rrx
     530:	000000bd 	strheq	r0, [r0], -sp
     534:	000000b3 	strheq	r0, [r0], -r3
     538:	00af0d00 	adceq	r0, pc, r0, lsl #26
     53c:	3c010000 	stccc	0, cr0, [r1], {-0}
     540:	0000620a 	andeq	r6, r0, sl, lsl #4
     544:	00814800 	addeq	r4, r1, r0, lsl #16
     548:	00004000 	andeq	r4, r0, r0
     54c:	0b9c0100 	bleq	fe700954 <__bss_end__+0xfe6f6df4>
     550:	16000004 	strne	r0, [r0], -r4
     554:	000001db 	ldrdeq	r0, [r0], -fp
     558:	4f213c01 	svcmi	0x00213c01
     55c:	1c000000 	stcne	0, cr0, [r0], {-0}
     560:	18000001 	stmdane	r0, {r0}
     564:	17000001 	strne	r0, [r0, -r1]
     568:	00676572 	rsbeq	r6, r7, r2, ror r5
     56c:	4f333c01 	svcmi	0x00333c01
     570:	43000000 	movwmi	r0, #0
     574:	3d000001 	stccc	0, cr0, [r0, #-4]
     578:	18000001 	stmdane	r0, {r0}
     57c:	0000023d 	andeq	r0, r0, sp, lsr r2
     580:	0b0a3d01 	bleq	28f98c <__bss_end__+0x285e2c>
     584:	02000004 	andeq	r0, r0, #4, 0
     588:	72197491 	andsvc	r7, r9, #-1862270976	; 0x91000000
     58c:	01006365 	tsteq	r0, r5, ror #6
     590:	041b0a41 	ldreq	r0, [fp], #-2625	; 0xfffff5bf
     594:	91020000 	mrsls	r0, (UNDEF: 2)
     598:	65720e70 	ldrbvs	r0, [r2, #-3696]!	; 0xfffff190
     59c:	44010074 	strmi	r0, [r1], #-116	; 0xffffff8c
     5a0:	0000620b 	andeq	r6, r0, fp, lsl #4
     5a4:	00017400 	andeq	r7, r1, r0, lsl #8
     5a8:	00017000 	andeq	r7, r1, r0
     5ac:	81641100 	cmnhi	r4, r0, lsl #2
     5b0:	05380000 	ldreq	r0, [r8, #-0]!
     5b4:	03ef0000 	mvneq	r0, #0, 0
     5b8:	01120000 	tsteq	r2, r0
     5bc:	00740250 	rsbseq	r0, r4, r0, asr r2
     5c0:	02510112 	subseq	r0, r1, #-2147483644	; 0x80000004
     5c4:	01126c91 			; <UNDEFINED> instruction: 0x01126c91
     5c8:	00310152 	eorseq	r0, r1, r2, asr r1
     5cc:	0081741a 	addeq	r7, r1, sl, lsl r4
     5d0:	00054400 	andeq	r4, r5, r0, lsl #8
     5d4:	50011200 	andpl	r1, r1, r0, lsl #4
     5d8:	12007402 	andne	r7, r0, #33554432	; 0x2000000
     5dc:	7d025101 	stfvcs	f5, [r2, #-4]
     5e0:	52011200 	andpl	r1, r1, #0, 4
     5e4:	00003201 	andeq	r3, r0, r1, lsl #4
     5e8:	00004f14 	andeq	r4, r0, r4, lsl pc
     5ec:	00041b00 	andeq	r1, r4, r0, lsl #22
     5f0:	002c1500 	eoreq	r1, ip, r0, lsl #10
     5f4:	00000000 	andeq	r0, r0, r0
     5f8:	00004f14 	andeq	r4, r0, r4, lsl pc
     5fc:	00042b00 	andeq	r2, r4, r0, lsl #22
     600:	002c1500 	eoreq	r1, ip, r0, lsl #10
     604:	00010000 	andeq	r0, r1, r0
     608:	0002881b 	andeq	r8, r2, fp, lsl r8
     60c:	06300100 	ldrteq	r0, [r0], -r0, lsl #2
     610:	0000811c 	andeq	r8, r0, ip, lsl r1
     614:	0000002c 	andeq	r0, r0, ip, lsr #32
     618:	04a09c01 	strteq	r9, [r0], #3073	; 0xc01
     61c:	db160000 	blle	580624 <__bss_end__+0x576ac4>
     620:	01000001 	tsteq	r0, r1
     624:	004f1e30 	subeq	r1, pc, r0, lsr lr	; <UNPREDICTABLE>
     628:	019d0000 	orrseq	r0, sp, r0
     62c:	01990000 	orrseq	r0, r9, r0
     630:	72170000 	andsvc	r0, r7, #0, 0
     634:	01006765 	tsteq	r0, r5, ror #14
     638:	004f3030 	subeq	r3, pc, r0, lsr r0	; <UNPREDICTABLE>
     63c:	01c40000 	biceq	r0, r4, r0
     640:	01be0000 			; <UNDEFINED> instruction: 0x01be0000
     644:	76170000 	ldrvc	r0, [r7], -r0
     648:	3e300100 	rsfccs	f0, f0, f0
     64c:	00000062 	andeq	r0, r0, r2, rrx
     650:	000001f5 	strdeq	r0, [r0], -r5
     654:	000001f1 	strdeq	r0, [r0], -r1
     658:	00023d18 	andeq	r3, r2, r8, lsl sp
     65c:	0a310100 	beq	c40a64 <__bss_end__+0xc36f04>
     660:	000004a0 	andeq	r0, r0, r0, lsr #9
     664:	1a749102 	bne	1d24a74 <__bss_end__+0x1d1af14>
     668:	00008140 	andeq	r8, r0, r0, asr #2
     66c:	00000538 	andeq	r0, r0, r8, lsr r5
     670:	02510112 	subseq	r0, r1, #-2147483644	; 0x80000004
     674:	01126c91 			; <UNDEFINED> instruction: 0x01126c91
     678:	00330152 	eorseq	r0, r3, r2, asr r1
     67c:	004f1400 	subeq	r1, pc, r0, lsl #8
     680:	04b00000 	ldrteq	r0, [r0], #0
     684:	2c150000 	ldccs	0, cr0, [r5], {-0}
     688:	02000000 	andeq	r0, r0, #0, 0
     68c:	022f1b00 	eoreq	r1, pc, #0, 22
     690:	25010000 	strcs	r0, [r1, #-0]
     694:	0080f406 	addeq	pc, r0, r6, lsl #8
     698:	00002800 	andeq	r2, r0, r0, lsl #16
     69c:	f09c0100 			; <UNDEFINED> instruction: 0xf09c0100
     6a0:	19000004 	stmdbne	r0, {r2}
     6a4:	00747372 	rsbseq	r7, r4, r2, ror r3
     6a8:	4f0d2601 	svcmi	0x000d2601
     6ac:	02000000 	andeq	r0, r0, #0, 0
     6b0:	141a7791 	ldrne	r7, [sl], #-1937	; 0xfffff86f
     6b4:	38000081 	stmdacc	r0, {r0, r7}
     6b8:	12000005 	andne	r0, r0, #5, 0
     6bc:	30015001 	andcc	r5, r1, r1
     6c0:	02510112 	subseq	r0, r1, #-2147483644	; 0x80000004
     6c4:	01126f91 			; <UNDEFINED> instruction: 0x01126f91
     6c8:	00310152 	eorseq	r0, r1, r2, asr r1
     6cc:	00301c00 	eorseq	r1, r0, r0, lsl #24
     6d0:	00300000 	eorseq	r0, r0, r0
     6d4:	58030000 	stmdapl	r3, {}	; <UNPREDICTABLE>
     6d8:	02061c06 	andeq	r1, r6, #1536	; 0x600
     6dc:	02060000 	andeq	r0, r6, #0, 0
     6e0:	06050000 	streq	r0, [r5], -r0
     6e4:	02261c06 	eoreq	r1, r6, #1536	; 0x600
     6e8:	02260000 	eoreq	r0, r6, #0, 0
     6ec:	56030000 	strpl	r0, [r3], -r0
     6f0:	06271c06 	strteq	r1, [r7], -r6, lsl #24
     6f4:	06270000 	strteq	r0, [r7], -r0
     6f8:	28030000 	stmdacs	r3, {}	; <UNPREDICTABLE>
     6fc:	02791c06 	rsbseq	r1, r9, #1536	; 0x600
     700:	02790000 	rsbseq	r0, r9, #0, 0
     704:	1d030000 	stcne	0, cr0, [r3, #-0]
     708:	00391c06 	eorseq	r1, r9, r6, lsl #24
     70c:	00390000 	eorseq	r0, r9, r0
     710:	6e030000 	cdpvs	0, 0, cr0, cr3, cr0, {0}
     714:	020f1c06 	andeq	r1, pc, #1536	; 0x600
     718:	020f0000 	andeq	r0, pc, #0, 0
     71c:	0c050000 	stceq	0, cr0, [r5], {-0}
     720:	02661c05 	rsbeq	r1, r6, #1280	; 0x500
     724:	02660000 	rsbeq	r0, r6, #0, 0
     728:	0e050000 	cdpeq	0, 0, cr0, cr5, cr0, {0}
     72c:	10f60005 	rscsne	r0, r6, r5
     730:	00040000 	andeq	r0, r4, r0
     734:	000002cc 	andeq	r0, r0, ip, asr #5
     738:	00cd0104 	sbceq	r0, sp, r4, lsl #2
     73c:	a00c0000 	andge	r0, ip, r0
     740:	46000002 	strmi	r0, [r0], -r2
     744:	b8000000 	stmdalt	r0, {}	; <UNPREDICTABLE>
     748:	34000082 	strcc	r0, [r0], #-130	; 0xffffff7e
     74c:	9c000002 	stcls	0, cr0, [r0], {2}
     750:	02000003 	andeq	r0, r0, #3, 0
     754:	6e690504 	cdpvs	5, 6, cr0, cr9, cr4, {0}
     758:	04030074 	streq	r0, [r3], #-116	; 0xffffff8c
     75c:	0001a207 	andeq	sl, r1, r7, lsl #4
     760:	06010300 	streq	r0, [r1], -r0, lsl #6
     764:	00000024 	andeq	r0, r0, r4, lsr #32
     768:	d1050203 	tstle	r5, r3, lsl #4
     76c:	03000001 	movweq	r0, #1
     770:	01bc0504 			; <UNDEFINED> instruction: 0x01bc0504
     774:	08030000 	stmdaeq	r3, {}	; <UNPREDICTABLE>
     778:	0001b705 	andeq	fp, r1, r5, lsl #14
     77c:	01af0400 			; <UNDEFINED> instruction: 0x01af0400
     780:	2e020000 	cdpcs	0, 0, cr0, cr2, cr0, {0}
     784:	00005b18 	andeq	r5, r0, r8, lsl fp
     788:	08010300 	stmdaeq	r1, {r8, r9}
     78c:	00000022 	andeq	r0, r0, r2, lsr #32
     790:	9c070203 	sfmls	f0, 4, [r7], {3}
     794:	04000000 	streq	r0, [r0], #-0
     798:	0000039d 	muleq	r0, sp, r3
     79c:	75193402 	ldrvc	r3, [r9, #-1026]	; 0xfffffbfe
     7a0:	03000000 	movweq	r0, #0
     7a4:	019d0704 	orrseq	r0, sp, r4, lsl #14
     7a8:	08030000 	stmdaeq	r3, {}	; <UNPREDICTABLE>
     7ac:	00019807 	andeq	r9, r1, r7, lsl #16
     7b0:	00250500 	eoreq	r0, r5, r0, lsl #10
     7b4:	00920000 	addseq	r0, r2, r0
     7b8:	25060000 	strcs	r0, [r6, #-0]
     7bc:	00000000 	andeq	r0, r0, r0
     7c0:	0001c507 	andeq	ip, r1, r7, lsl #10
     7c4:	0e1c0300 	cdpeq	3, 1, cr0, cr12, cr0, {0}
     7c8:	0000009e 	muleq	r0, lr, r0
     7cc:	00830408 	addeq	r0, r3, r8, lsl #8
     7d0:	25050000 	strcs	r0, [r5, #-0]
     7d4:	b3000000 	movwlt	r0, #0
     7d8:	06000000 	streq	r0, [r0], -r0
     7dc:	000000b3 	strheq	r0, [r0], -r3
     7e0:	c0040800 	andgt	r0, r4, r0, lsl #16
     7e4:	03000000 	movweq	r0, #0
     7e8:	002b0801 	eoreq	r0, fp, r1, lsl #16
     7ec:	b9090000 	stmdblt	r9, {}	; <UNPREDICTABLE>
     7f0:	07000000 	streq	r0, [r0, -r0]
     7f4:	0000069e 	muleq	r0, lr, r6
     7f8:	d10e2103 	tstle	lr, r3, lsl #2
     7fc:	08000000 	stmdaeq	r0, {}	; <UNPREDICTABLE>
     800:	0000a404 	andeq	sl, r0, r4, lsl #8
     804:	01070a00 	tsteq	r7, r0, lsl #20
     808:	0000005b 	andeq	r0, r0, fp, asr r0
     80c:	160e0c04 	strne	r0, [lr], -r4, lsl #24
     810:	0b000001 	bleq	81c <__code_start__-0x77e4>
     814:	00000388 	andeq	r0, r0, r8, lsl #7
     818:	02c20b00 	sbceq	r0, r2, #0, 22
     81c:	0b010000 	bleq	40824 <__bss_end__+0x36cc4>
     820:	000002d9 	ldrdeq	r0, [r0], -r9
     824:	02e80b04 	rsceq	r0, r8, #4, 22	; 0x1000
     828:	0b050000 	bleq	140830 <__bss_end__+0x136cd0>
     82c:	000002f7 	strdeq	r0, [r0], -r7
     830:	03060b06 	movweq	r0, #27398	; 0x6b06
     834:	0b070000 	bleq	1c083c <__bss_end__+0x1b6cdc>
     838:	00000315 	andeq	r0, r0, r5, lsl r3
     83c:	03240b03 			; <UNDEFINED> instruction: 0x03240b03
     840:	00020000 	andeq	r0, r2, r0
     844:	2a01040c 	bcs	4187c <__bss_end__+0x37d1c>
     848:	0001cf09 	andeq	ip, r1, r9, lsl #30
     84c:	026a0d00 	rsbeq	r0, sl, #0, 26
     850:	2b010000 	blcs	40858 <__bss_end__+0x36cf8>
     854:	0000690b 	andeq	r6, r0, fp, lsl #18
     858:	1f010400 	svcne	0x00010400
     85c:	040d0d00 	streq	r0, [sp], #-3328	; 0xfffff300
     860:	2d010000 	stccs	0, cr0, [r1, #-0]
     864:	00006903 	andeq	r6, r0, r3, lsl #18
     868:	1c030400 	cfstrsne	mvf0, [r3], {-0}
     86c:	03710d00 	cmneq	r1, #0, 26
     870:	2e010000 	cdpcs	0, 0, cr0, cr1, cr0, {0}
     874:	00006903 	andeq	r6, r0, r3, lsl #18
     878:	1a020400 	bne	81880 <__bss_end__+0x77d20>
     87c:	04170d00 	ldreq	r0, [r7], #-3328	; 0xfffff300
     880:	34010000 	strcc	r0, [r1], #-0
     884:	00006903 	andeq	r6, r0, r3, lsl #18
     888:	19010400 	stmdbne	r1, {sl}
     88c:	74730e00 	ldrbtvc	r0, [r3], #-3584	; 0xfffff200
     890:	03350100 	teqeq	r5, #0
     894:	00000069 	andeq	r0, r0, r9, rrx
     898:	00180104 	andseq	r0, r8, r4, lsl #2
     89c:	0003980d 	andeq	r9, r3, sp, lsl #16
     8a0:	03390100 	teqeq	r9, #0
     8a4:	00000069 	andeq	r0, r0, r9, rrx
     8a8:	00170104 	andseq	r0, r7, r4, lsl #2
     8ac:	0003ab0d 	andeq	sl, r3, sp, lsl #22
     8b0:	033c0100 	teqeq	ip, #0
     8b4:	00000069 	andeq	r0, r0, r9, rrx
     8b8:	00160104 	andseq	r0, r6, r4, lsl #2
     8bc:	0003a60d 	andeq	sl, r3, sp, lsl #12
     8c0:	033f0100 	teqeq	pc, #0
     8c4:	00000069 	andeq	r0, r0, r9, rrx
     8c8:	00150104 	andseq	r0, r5, r4, lsl #2
     8cc:	0004210d 	andeq	r2, r4, sp, lsl #2
     8d0:	03420100 	movteq	r0, #8448	; 0x2100
     8d4:	00000069 	andeq	r0, r0, r9, rrx
     8d8:	00110404 	andseq	r0, r1, r4, lsl #8
     8dc:	0003cf0d 	andeq	ip, r3, sp, lsl #30
     8e0:	03430100 	movteq	r0, #12544	; 0x3100
     8e4:	00000069 	andeq	r0, r0, r9, rrx
     8e8:	00100104 	andseq	r0, r0, r4, lsl #2
     8ec:	00042b0d 	andeq	r2, r4, sp, lsl #22
     8f0:	03460100 	movteq	r0, #24832	; 0x6100
     8f4:	00000069 	andeq	r0, r0, r9, rrx
     8f8:	00001004 	andeq	r1, r0, r4
     8fc:	03490400 	movteq	r0, #37888	; 0x9400
     900:	47010000 	strmi	r0, [r1, -r0]
     904:	00011603 	andeq	r1, r1, r3, lsl #12
     908:	01cf0f00 	biceq	r0, pc, r0, lsl #30
     90c:	040c0000 	streq	r0, [ip], #-0
     910:	99094f01 	stmdbls	r9, {r0, r8, r9, sl, fp, lr}
     914:	0e000002 	cdpeq	0, 0, cr0, cr0, cr2, {0}
     918:	01006174 	tsteq	r0, r4, ror r1
     91c:	002c0b50 	eoreq	r0, ip, r0, asr fp
     920:	01040000 	mrseq	r0, (UNDEF: 4)
     924:	830d001f 	movwhi	r0, #53279	; 0xd01f
     928:	01000003 	tsteq	r0, r3
     92c:	002c0353 	eoreq	r0, ip, r3, asr r3
     930:	01040000 	mrseq	r0, (UNDEF: 4)
     934:	740e001e 	strvc	r0, [lr], #-30	; 0xffffffe2
     938:	01007778 	tsteq	r0, r8, ror r7
     93c:	002c0357 	eoreq	r0, ip, r7, asr r3
     940:	01040000 	mrseq	r0, (UNDEF: 4)
     944:	720e001d 	andvc	r0, lr, #29, 0
     948:	01007278 	tsteq	r0, r8, ror r2
     94c:	002c035d 	eoreq	r0, ip, sp, asr r3
     950:	01040000 	mrseq	r0, (UNDEF: 4)
     954:	740e001c 	strvc	r0, [lr], #-28	; 0xffffffe4
     958:	01006478 	tsteq	r0, r8, ror r4
     95c:	002c0363 	eoreq	r0, ip, r3, ror #6
     960:	01040000 	mrseq	r0, (UNDEF: 4)
     964:	720e001b 	andvc	r0, lr, #27, 0
     968:	01006478 	tsteq	r0, r8, ror r4
     96c:	002c0366 	eoreq	r0, ip, r6, ror #6
     970:	01040000 	mrseq	r0, (UNDEF: 4)
     974:	740e001a 	strvc	r0, [lr], #-26	; 0xffffffe6
     978:	01006578 	tsteq	r0, r8, ror r5
     97c:	002c036a 	eoreq	r0, ip, sl, ror #6
     980:	01040000 	mrseq	r0, (UNDEF: 4)
     984:	720e0019 	andvc	r0, lr, #25, 0
     988:	01006678 	tsteq	r0, r8, ror r6
     98c:	002c036f 	eoreq	r0, ip, pc, ror #6
     990:	01040000 	mrseq	r0, (UNDEF: 4)
     994:	650e0018 	strvs	r0, [lr, #-24]	; 0xffffffe8
     998:	01007272 	tsteq	r0, r2, ror r2
     99c:	002c0372 	eoreq	r0, ip, r2, ror r3
     9a0:	01040000 	mrseq	r0, (UNDEF: 4)
     9a4:	ee0d0017 	mcr	0, 0, r0, cr13, cr7, {0}
     9a8:	01000003 	tsteq	r0, r3
     9ac:	002c0376 	eoreq	r0, ip, r6, ror r3
     9b0:	01040000 	mrseq	r0, (UNDEF: 4)
     9b4:	0d0d0016 	stceq	0, cr0, [sp, #-88]	; 0xffffffa8
     9b8:	01000004 	tsteq	r0, r4
     9bc:	002c037b 	eoreq	r0, ip, fp, ror r3
     9c0:	16040000 	strne	r0, [r4], -r0
     9c4:	04000000 	streq	r0, [r0], #-0
     9c8:	00000333 	andeq	r0, r0, r3, lsr r3
     9cc:	e0037c01 	and	r7, r3, r1, lsl #24
     9d0:	0f000001 	svceq	0x00000001
     9d4:	00000299 	muleq	r0, r9, r2
     9d8:	0003c710 	andeq	ip, r3, r0, lsl r7
     9dc:	83012000 	movwhi	r2, #4096	; 0x1000
     9e0:	00032010 	andeq	r2, r3, r0, lsl r0
     9e4:	037b1100 	cmneq	fp, #0
     9e8:	84010000 	strhi	r0, [r1], #-0
     9ec:	0001cf0d 	andeq	ip, r1, sp, lsl #30
     9f0:	e0110000 	ands	r0, r1, r0
     9f4:	01000003 	tsteq	r0, r3
     9f8:	02990d85 	addseq	r0, r9, #8512	; 0x2140
     9fc:	11040000 	mrsne	r0, (UNDEF: 4)
     a00:	0000033e 	andeq	r0, r0, lr, lsr r3
     a04:	690b8801 	stmdbvs	fp, {r0, fp, pc}
     a08:	08000000 	stmdaeq	r0, {}	; <UNPREDICTABLE>
     a0c:	0001db11 	andeq	sp, r1, r1, lsl fp
     a10:	0c910100 	ldfeqs	f0, [r1], {0}
     a14:	00000069 	andeq	r0, r0, r9, rrx
     a18:	03b0110c 	movseq	r1, #3
     a1c:	93010000 	movwls	r0, #4096	; 0x1000
     a20:	0000690b 	andeq	r6, r0, fp, lsl #18
     a24:	67111000 	ldrvs	r1, [r1, -r0]
     a28:	01000003 	tsteq	r0, r3
     a2c:	00690b95 	mlseq	r9, r5, fp, r0
     a30:	11140000 	tstne	r4, r0
     a34:	00000435 	andeq	r0, r0, r5, lsr r4
     a38:	690b9701 	stmdbvs	fp, {r0, r8, r9, sl, ip, pc}
     a3c:	18000000 	stmdane	r0, {}	; <UNPREDICTABLE>
     a40:	0002a611 	andeq	sl, r2, r1, lsl r6
     a44:	0b990100 	bleq	fe640e4c <__bss_end__+0xfe6372ec>
     a48:	00000069 	andeq	r0, r0, r9, rrx
     a4c:	c704001c 	smladgt	r4, ip, r0, r0
     a50:	01000003 	tsteq	r0, r3
     a54:	02aa039a 	adceq	r0, sl, #1744830466	; 0x68000002
     a58:	200f0000 	andcs	r0, pc, r0
     a5c:	12000003 	andne	r0, r0, #3, 0
     a60:	00633269 	rsbeq	r3, r3, r9, ror #4
     a64:	3d1aa001 	ldccc	0, cr10, [sl, #-4]
     a68:	08000003 	stmdaeq	r0, {r0, r1}
     a6c:	00032c04 	andeq	r2, r3, r4, lsl #24
     a70:	035a1300 	cmpeq	sl, #0, 6
     a74:	2f010000 	svccs	0x00010000
     a78:	82d00d01 	sbcshi	r0, r0, #64	; 0x40
     a7c:	00080000 	andeq	r0, r8, r0
     a80:	9c010000 	stcls	0, cr0, [r1], {-0}
     a84:	00000a4a 	andeq	r0, r0, sl, asr #20
     a88:	00021914 	andeq	r1, r2, r4, lsl r9
     a8c:	000a5a00 	andeq	r5, sl, r0, lsl #20
     a90:	e0030500 	and	r0, r3, r0, lsl #10
     a94:	15000095 	strne	r0, [r0, #-149]	; 0xffffff6b
     a98:	000082d4 	ldrdeq	r8, [r0], -r4
     a9c:	00000000 	andeq	r0, r0, r0
     aa0:	000003d0 	ldrdeq	r0, [r0], -r0	; <UNPREDICTABLE>
     aa4:	00755f16 	rsbseq	r5, r5, r6, lsl pc
     aa8:	013a0104 	teqeq	sl, r4, lsl #2
     aac:	00039a02 	andeq	r9, r3, r2, lsl #20
     ab0:	00731700 	rsbseq	r1, r3, r0, lsl #14
     ab4:	02013a01 	andeq	r3, r1, #4096	; 0x1000
     ab8:	000001cf 	andeq	r0, r0, pc, asr #3
     abc:	01007517 	tsteq	r0, r7, lsl r5
     ac0:	2c02013a 	stfcss	f0, [r2], {58}	; 0x3a
     ac4:	00000000 	andeq	r0, r0, r0
     ac8:	01007818 	tsteq	r0, r8, lsl r8
     acc:	7602013a 			; <UNDEFINED> instruction: 0x7602013a
     ad0:	19000003 	stmdbne	r0, {r0, r1}
     ad4:	00707865 	rsbseq	r7, r0, r5, ror #16
     ad8:	02013a01 	andeq	r3, r1, #4096	; 0x1000
     adc:	0000002c 	andeq	r0, r0, ip, lsr #32
     ae0:	03541a01 	cmpeq	r4, #4096	; 0x1000
     ae4:	3a010000 	bcc	40aec <__bss_end__+0x36f8c>
     ae8:	002c0201 	eoreq	r0, ip, r1, lsl #4
     aec:	1a1f0000 	bne	7c0af4 <__bss_end__+0x7b6f94>
     af0:	00000298 	muleq	r0, r8, r2
     af4:	02013a01 	andeq	r3, r1, #4096	; 0x1000
     af8:	0000002c 	andeq	r0, r0, ip, lsr #32
     afc:	d4150001 	ldrle	r0, [r5], #-1
     b00:	00000082 	andeq	r0, r0, r2, lsl #1
     b04:	40000000 	andmi	r0, r0, r0
     b08:	16000004 	strne	r0, [r0], -r4
     b0c:	0400755f 	streq	r7, [r0], #-1375	; 0xfffffaa1
     b10:	02013b01 	andeq	r3, r1, #1024	; 0x400
     b14:	00000401 	andeq	r0, r0, r1, lsl #8
     b18:	01007317 	tsteq	r0, r7, lsl r3
     b1c:	cf02013b 	svcgt	0x0002013b
     b20:	17000001 	strne	r0, [r0, -r1]
     b24:	3b010075 	blcc	40d00 <__bss_end__+0x371a0>
     b28:	002c0201 	eoreq	r0, ip, r1, lsl #4
     b2c:	1b000000 	blne	b34 <__code_start__-0x74cc>
     b30:	3b010078 	blcc	40d18 <__bss_end__+0x371b8>
     b34:	03dd0201 	bicseq	r0, sp, #268435456	; 0x10000000
     b38:	53010000 	movwpl	r0, #4096	; 0x1000
     b3c:	7078651c 	rsbsvc	r6, r8, ip, lsl r5
     b40:	013b0100 	teqeq	fp, r0, lsl #2
     b44:	00002c02 	andeq	r2, r0, r2, lsl #24
     b48:	00021a00 	andeq	r1, r2, r0, lsl #20
     b4c:	00021600 	andeq	r1, r2, r0, lsl #12
     b50:	03541a00 	cmpeq	r4, #0, 20
     b54:	3b010000 	blcc	40b5c <__bss_end__+0x36ffc>
     b58:	002c0201 	eoreq	r0, ip, r1, lsl #4
     b5c:	1a1e0000 	bne	780b64 <__bss_end__+0x777004>
     b60:	00000298 	muleq	r0, r8, r2
     b64:	02013b01 	andeq	r3, r1, #1024	; 0x400
     b68:	0000002c 	andeq	r0, r0, ip, lsr #32
     b6c:	d4150003 	ldrle	r0, [r5], #-3
     b70:	00000082 	andeq	r0, r0, r2, lsl #1
     b74:	a7000000 	strge	r0, [r0, -r0]
     b78:	16000004 	strne	r0, [r0], -r4
     b7c:	0400755f 	streq	r7, [r0], #-1375	; 0xfffffaa1
     b80:	02013c01 	andeq	r3, r1, #256	; 0x100
     b84:	00000471 	andeq	r0, r0, r1, ror r4
     b88:	01007317 	tsteq	r0, r7, lsl r3
     b8c:	cf02013c 	svcgt	0x0002013c
     b90:	17000001 	strne	r0, [r0, -r1]
     b94:	3c010075 	stccc	0, cr0, [r1], {117}	; 0x75
     b98:	002c0201 	eoreq	r0, ip, r1, lsl #4
     b9c:	18000000 	stmdane	r0, {}	; <UNPREDICTABLE>
     ba0:	3c010078 	stccc	0, cr0, [r1], {120}	; 0x78
     ba4:	044d0201 	strbeq	r0, [sp], #-513	; 0xfffffdff
     ba8:	65190000 	ldrvs	r0, [r9, #-0]
     bac:	01007078 	tsteq	r0, r8, ror r0
     bb0:	2c02013c 	stfcss	f0, [r2], {60}	; 0x3c
     bb4:	80000000 	andhi	r0, r0, r0
     bb8:	0003541a 	andeq	r5, r3, sl, lsl r4
     bbc:	013c0100 	teqeq	ip, r0, lsl #2
     bc0:	00002c02 	andeq	r2, r0, r2, lsl #24
     bc4:	981a1f00 	ldmdals	sl, {r8, r9, sl, fp, ip}
     bc8:	01000002 	tsteq	r0, r2
     bcc:	2c02013c 	stfcss	f0, [r2], {60}	; 0x3c
     bd0:	01000000 	mrseq	r0, (UNDEF: 0)
     bd4:	82d41500 	sbcshi	r1, r4, #0, 10
     bd8:	00000000 	andeq	r0, r0, r0
     bdc:	050f0000 	streq	r0, [pc, #-0]	; be4 <__code_start__-0x741c>
     be0:	5f160000 	svcpl	0x00160000
     be4:	01040075 	tsteq	r4, r5, ror r0
     be8:	d802013d 	stmdale	r2, {r0, r2, r3, r4, r5, r8}
     bec:	17000004 	strne	r0, [r0, -r4]
     bf0:	3d010073 	stccc	0, cr0, [r1, #-460]	; 0xfffffe34
     bf4:	01cf0201 	biceq	r0, pc, r1, lsl #4
     bf8:	75170000 	ldrvc	r0, [r7, #-0]
     bfc:	013d0100 	teqeq	sp, r0, lsl #2
     c00:	00002c02 	andeq	r2, r0, r2, lsl #24
     c04:	78180000 	ldmdavc	r8, {}	; <UNPREDICTABLE>
     c08:	013d0100 	teqeq	sp, r0, lsl #2
     c0c:	0004b402 	andeq	fp, r4, r2, lsl #8
     c10:	78651d00 	stmdavc	r5!, {r8, sl, fp, ip}^
     c14:	3d010070 	stccc	0, cr0, [r1, #-448]	; 0xfffffe40
     c18:	002c0201 	eoreq	r0, ip, r1, lsl #4
     c1c:	01000000 	mrseq	r0, (UNDEF: 0)
     c20:	0003541a 	andeq	r5, r3, sl, lsl r4
     c24:	013d0100 	teqeq	sp, r0, lsl #2
     c28:	00002c02 	andeq	r2, r0, r2, lsl #24
     c2c:	981a1f00 	ldmdals	sl, {r8, r9, sl, fp, ip}
     c30:	01000002 	tsteq	r0, r2
     c34:	2c02013d 	stfcss	f0, [r2], {61}	; 0x3d
     c38:	01000000 	mrseq	r0, (UNDEF: 0)
     c3c:	82d41500 	sbcshi	r1, r4, #0, 10
     c40:	00000000 	andeq	r0, r0, r0
     c44:	05770000 	ldrbeq	r0, [r7, #-0]!
     c48:	5f160000 	svcpl	0x00160000
     c4c:	01040075 	tsteq	r4, r5, ror r0
     c50:	4002013e 	andmi	r0, r2, lr, lsr r1
     c54:	17000005 	strne	r0, [r0, -r5]
     c58:	3e010073 	mcrcc	0, 0, r0, cr1, cr3, {3}
     c5c:	01cf0201 	biceq	r0, pc, r1, lsl #4
     c60:	75170000 	ldrvc	r0, [r7, #-0]
     c64:	013e0100 	teqeq	lr, r0, lsl #2
     c68:	00002c02 	andeq	r2, r0, r2, lsl #24
     c6c:	78180000 	ldmdavc	r8, {}	; <UNPREDICTABLE>
     c70:	013e0100 	teqeq	lr, r0, lsl #2
     c74:	00051c02 	andeq	r1, r5, r2, lsl #24
     c78:	78651d00 	stmdavc	r5!, {r8, sl, fp, ip}^
     c7c:	3e010070 	mcrcc	0, 0, r0, cr1, cr0, {3}
     c80:	002c0201 	eoreq	r0, ip, r1, lsl #4
     c84:	02000000 	andeq	r0, r0, #0, 0
     c88:	0003541a 	andeq	r5, r3, sl, lsl r4
     c8c:	013e0100 	teqeq	lr, r0, lsl #2
     c90:	00002c02 	andeq	r2, r0, r2, lsl #24
     c94:	981a1f00 	ldmdals	sl, {r8, r9, sl, fp, ip}
     c98:	01000002 	tsteq	r0, r2
     c9c:	2c02013e 	stfcss	f0, [r2], {62}	; 0x3e
     ca0:	01000000 	mrseq	r0, (UNDEF: 0)
     ca4:	82d41500 	sbcshi	r1, r4, #0, 10
     ca8:	00000000 	andeq	r0, r0, r0
     cac:	05df0000 	ldrbeq	r0, [pc]	; cb4 <__code_start__-0x734c>
     cb0:	5f160000 	svcpl	0x00160000
     cb4:	01040075 	tsteq	r4, r5, ror r0
     cb8:	a802013f 	stmdage	r2, {r0, r1, r2, r3, r4, r5, r8}
     cbc:	17000005 	strne	r0, [r0, -r5]
     cc0:	3f010073 	svccc	0x00010073
     cc4:	01cf0201 	biceq	r0, pc, r1, lsl #4
     cc8:	75170000 	ldrvc	r0, [r7, #-0]
     ccc:	013f0100 	teqeq	pc, r0, lsl #2
     cd0:	00002c02 	andeq	r2, r0, r2, lsl #24
     cd4:	78180000 	ldmdavc	r8, {}	; <UNPREDICTABLE>
     cd8:	013f0100 	teqeq	pc, r0, lsl #2
     cdc:	00058402 	andeq	r8, r5, r2, lsl #8
     ce0:	78651d00 	stmdavc	r5!, {r8, sl, fp, ip}^
     ce4:	3f010070 	svccc	0x00010070
     ce8:	002c0201 	eoreq	r0, ip, r1, lsl #4
     cec:	04000000 	streq	r0, [r0], #-0
     cf0:	0003541a 	andeq	r5, r3, sl, lsl r4
     cf4:	013f0100 	teqeq	pc, r0, lsl #2
     cf8:	00002c02 	andeq	r2, r0, r2, lsl #24
     cfc:	981a1f00 	ldmdals	sl, {r8, r9, sl, fp, ip}
     d00:	01000002 	tsteq	r0, r2
     d04:	2c02013f 	stfcss	f0, [r2], {63}	; 0x3f
     d08:	01000000 	mrseq	r0, (UNDEF: 0)
     d0c:	82d41500 	sbcshi	r1, r4, #0, 10
     d10:	00000000 	andeq	r0, r0, r0
     d14:	06470000 	strbeq	r0, [r7], -r0
     d18:	5f160000 	svcpl	0x00160000
     d1c:	01040075 	tsteq	r4, r5, ror r0
     d20:	10020140 	andne	r0, r2, r0, asr #2
     d24:	17000006 	strne	r0, [r0, -r6]
     d28:	40010073 	andmi	r0, r1, r3, ror r0
     d2c:	01cf0201 	biceq	r0, pc, r1, lsl #4
     d30:	75170000 	ldrvc	r0, [r7, #-0]
     d34:	01400100 	mrseq	r0, (UNDEF: 80)
     d38:	00002c02 	andeq	r2, r0, r2, lsl #24
     d3c:	78180000 	ldmdavc	r8, {}	; <UNPREDICTABLE>
     d40:	01400100 	mrseq	r0, (UNDEF: 80)
     d44:	0005ec02 	andeq	lr, r5, r2, lsl #24
     d48:	78651d00 	stmdavc	r5!, {r8, sl, fp, ip}^
     d4c:	40010070 	andmi	r0, r1, r0, ror r0
     d50:	002c0201 	eoreq	r0, ip, r1, lsl #4
     d54:	80000000 	andhi	r0, r0, r0
     d58:	0003541a 	andeq	r5, r3, sl, lsl r4
     d5c:	01400100 	mrseq	r0, (UNDEF: 80)
     d60:	00002c02 	andeq	r2, r0, r2, lsl #24
     d64:	981a1f00 	ldmdals	sl, {r8, r9, sl, fp, ip}
     d68:	01000002 	tsteq	r0, r2
     d6c:	2c020140 	stfcss	f0, [r2], {64}	; 0x40
     d70:	01000000 	mrseq	r0, (UNDEF: 0)
     d74:	82d41500 	sbcshi	r1, r4, #0, 10
     d78:	00000000 	andeq	r0, r0, r0
     d7c:	06ae0000 	strteq	r0, [lr], r0
     d80:	5f160000 	svcpl	0x00160000
     d84:	01040075 	tsteq	r4, r5, ror r0
     d88:	78020143 	stmdavc	r2, {r0, r1, r6, r8}
     d8c:	17000006 	strne	r0, [r0, -r6]
     d90:	43010073 	movwmi	r0, #4211	; 0x1073
     d94:	02990201 	addseq	r0, r9, #268435456	; 0x10000000
     d98:	75170000 	ldrvc	r0, [r7, #-0]
     d9c:	01430100 	mrseq	r0, (UNDEF: 83)
     da0:	00002c02 	andeq	r2, r0, r2, lsl #24
     da4:	78180000 	ldmdavc	r8, {}	; <UNPREDICTABLE>
     da8:	01430100 	mrseq	r0, (UNDEF: 83)
     dac:	00065402 	andeq	r5, r6, r2, lsl #8
     db0:	78651900 	stmdavc	r5!, {r8, fp, ip}^
     db4:	43010070 	movwmi	r0, #4208	; 0x1070
     db8:	002c0201 	eoreq	r0, ip, r1, lsl #4
     dbc:	1a010000 	bne	40dc4 <__bss_end__+0x37264>
     dc0:	00000354 	andeq	r0, r0, r4, asr r3
     dc4:	02014301 	andeq	r4, r1, #67108864	; 0x4000000
     dc8:	0000002c 	andeq	r0, r0, ip, lsr #32
     dcc:	02981a1f 	addseq	r1, r8, #126976	; 0x1f000
     dd0:	43010000 	movwmi	r0, #4096	; 0x1000
     dd4:	002c0201 	eoreq	r0, ip, r1, lsl #4
     dd8:	00010000 	andeq	r0, r1, r0
     ddc:	0082d415 	addeq	sp, r2, r5, lsl r4
     de0:	00000000 	andeq	r0, r0, r0
     de4:	00071500 	andeq	r1, r7, r0, lsl #10
     de8:	755f1600 	ldrbvc	r1, [pc, #-1536]	; 7f0 <__code_start__-0x7810>
     dec:	44010400 	strmi	r0, [r1], #-1024	; 0xfffffc00
     df0:	06df0201 	ldrbeq	r0, [pc], r1, lsl #4
     df4:	73170000 	tstvc	r7, #0, 0
     df8:	01440100 	mrseq	r0, (UNDEF: 84)
     dfc:	00029902 	andeq	r9, r2, r2, lsl #18
     e00:	00751700 	rsbseq	r1, r5, r0, lsl #14
     e04:	02014401 	andeq	r4, r1, #16777216	; 0x1000000
     e08:	0000002c 	andeq	r0, r0, ip, lsr #32
     e0c:	00781800 	rsbseq	r1, r8, r0, lsl #16
     e10:	02014401 	andeq	r4, r1, #16777216	; 0x1000000
     e14:	000006bb 			; <UNDEFINED> instruction: 0x000006bb
     e18:	70786519 	rsbsvc	r6, r8, r9, lsl r5
     e1c:	01440100 	mrseq	r0, (UNDEF: 84)
     e20:	00002c02 	andeq	r2, r0, r2, lsl #24
     e24:	541a0200 	ldrpl	r0, [sl], #-512	; 0xfffffe00
     e28:	01000003 	tsteq	r0, r3
     e2c:	2c020144 	stfcss	f0, [r2], {68}	; 0x44
     e30:	1f000000 	svcne	0x00000000
     e34:	0002981a 	andeq	r9, r2, sl, lsl r8
     e38:	01440100 	mrseq	r0, (UNDEF: 84)
     e3c:	00002c02 	andeq	r2, r0, r2, lsl #24
     e40:	15000100 	strne	r0, [r0, #-256]	; 0xffffff00
     e44:	000082d4 	ldrdeq	r8, [r0], -r4
     e48:	00000000 	andeq	r0, r0, r0
     e4c:	0000077c 	andeq	r0, r0, ip, ror r7
     e50:	00755f16 	rsbseq	r5, r5, r6, lsl pc
     e54:	01450104 	cmpeq	r5, r4, lsl #2
     e58:	00074602 	andeq	r4, r7, r2, lsl #12
     e5c:	00731700 	rsbseq	r1, r3, r0, lsl #14
     e60:	02014501 	andeq	r4, r1, #4194304	; 0x400000
     e64:	00000299 	muleq	r0, r9, r2
     e68:	01007517 	tsteq	r0, r7, lsl r5
     e6c:	2c020145 	stfcss	f0, [r2], {69}	; 0x45
     e70:	00000000 	andeq	r0, r0, r0
     e74:	01007818 	tsteq	r0, r8, lsl r8
     e78:	22020145 	andcs	r0, r2, #1073741841	; 0x40000011
     e7c:	19000007 	stmdbne	r0, {r0, r1, r2}
     e80:	00707865 	rsbseq	r7, r0, r5, ror #16
     e84:	02014501 	andeq	r4, r1, #4194304	; 0x400000
     e88:	0000002c 	andeq	r0, r0, ip, lsr #32
     e8c:	03541a04 	cmpeq	r4, #4, 20	; 0x4000
     e90:	45010000 	strmi	r0, [r1, #-0]
     e94:	002c0201 	eoreq	r0, ip, r1, lsl #4
     e98:	1a1f0000 	bne	7c0ea0 <__bss_end__+0x7b7340>
     e9c:	00000298 	muleq	r0, r8, r2
     ea0:	02014501 	andeq	r4, r1, #4194304	; 0x400000
     ea4:	0000002c 	andeq	r0, r0, ip, lsr #32
     ea8:	d4150001 	ldrle	r0, [r5], #-1
     eac:	00000082 	andeq	r0, r0, r2, lsl #1
     eb0:	e3000000 	movw	r0, #0
     eb4:	16000007 	strne	r0, [r0], -r7
     eb8:	0400755f 	streq	r7, [r0], #-1375	; 0xfffffaa1
     ebc:	02014601 	andeq	r4, r1, #1048576	; 0x100000
     ec0:	000007ad 	andeq	r0, r0, sp, lsr #15
     ec4:	01007317 	tsteq	r0, r7, lsl r3
     ec8:	99020146 	stmdbls	r2, {r1, r2, r6, r8}
     ecc:	17000002 	strne	r0, [r0, -r2]
     ed0:	46010075 			; <UNDEFINED> instruction: 0x46010075
     ed4:	002c0201 	eoreq	r0, ip, r1, lsl #4
     ed8:	18000000 	stmdane	r0, {}	; <UNPREDICTABLE>
     edc:	46010078 			; <UNDEFINED> instruction: 0x46010078
     ee0:	07890201 	streq	r0, [r9, r1, lsl #4]
     ee4:	65190000 	ldrvs	r0, [r9, #-0]
     ee8:	01007078 	tsteq	r0, r8, ror r0
     eec:	2c020146 	stfcss	f0, [r2], {70}	; 0x46
     ef0:	08000000 	stmdaeq	r0, {}	; <UNPREDICTABLE>
     ef4:	0003541a 	andeq	r5, r3, sl, lsl r4
     ef8:	01460100 	mrseq	r0, (UNDEF: 86)
     efc:	00002c02 	andeq	r2, r0, r2, lsl #24
     f00:	981a1f00 	ldmdals	sl, {r8, r9, sl, fp, ip}
     f04:	01000002 	tsteq	r0, r2
     f08:	2c020146 	stfcss	f0, [r2], {70}	; 0x46
     f0c:	01000000 	mrseq	r0, (UNDEF: 0)
     f10:	82d41500 	sbcshi	r1, r4, #0, 10
     f14:	00000000 	andeq	r0, r0, r0
     f18:	084a0000 	stmdaeq	sl, {}^	; <UNPREDICTABLE>
     f1c:	5f160000 	svcpl	0x00160000
     f20:	01040075 	tsteq	r4, r5, ror r0
     f24:	14020147 	strne	r0, [r2], #-327	; 0xfffffeb9
     f28:	17000008 	strne	r0, [r0, -r8]
     f2c:	47010073 	smlsdxmi	r1, r3, r0, r0
     f30:	02990201 	addseq	r0, r9, #268435456	; 0x10000000
     f34:	75170000 	ldrvc	r0, [r7, #-0]
     f38:	01470100 	mrseq	r0, (UNDEF: 87)
     f3c:	00002c02 	andeq	r2, r0, r2, lsl #24
     f40:	78180000 	ldmdavc	r8, {}	; <UNPREDICTABLE>
     f44:	01470100 	mrseq	r0, (UNDEF: 87)
     f48:	0007f002 	andeq	pc, r7, r2
     f4c:	78651900 	stmdavc	r5!, {r8, fp, ip}^
     f50:	47010070 	smlsdxmi	r1, r0, r0, r0
     f54:	002c0201 	eoreq	r0, ip, r1, lsl #4
     f58:	1a100000 	bne	400f60 <__bss_end__+0x3f7400>
     f5c:	00000354 	andeq	r0, r0, r4, asr r3
     f60:	02014701 	andeq	r4, r1, #262144	; 0x40000
     f64:	0000002c 	andeq	r0, r0, ip, lsr #32
     f68:	02981a1f 	addseq	r1, r8, #126976	; 0x1f000
     f6c:	47010000 	strmi	r0, [r1, -r0]
     f70:	002c0201 	eoreq	r0, ip, r1, lsl #4
     f74:	00010000 	andeq	r0, r1, r0
     f78:	0082d415 	addeq	sp, r2, r5, lsl r4
     f7c:	00000000 	andeq	r0, r0, r0
     f80:	0008b100 	andeq	fp, r8, r0, lsl #2
     f84:	755f1600 	ldrbvc	r1, [pc, #-1536]	; 98c <__code_start__-0x7674>
     f88:	48010400 	stmdami	r1, {sl}
     f8c:	087b0201 	ldmdaeq	fp!, {r0, r9}^
     f90:	73170000 	tstvc	r7, #0, 0
     f94:	01480100 	mrseq	r0, (UNDEF: 88)
     f98:	00029902 	andeq	r9, r2, r2, lsl #18
     f9c:	00751700 	rsbseq	r1, r5, r0, lsl #14
     fa0:	02014801 	andeq	r4, r1, #65536	; 0x10000
     fa4:	0000002c 	andeq	r0, r0, ip, lsr #32
     fa8:	00781800 	rsbseq	r1, r8, r0, lsl #16
     fac:	02014801 	andeq	r4, r1, #65536	; 0x10000
     fb0:	00000857 	andeq	r0, r0, r7, asr r8
     fb4:	70786519 	rsbsvc	r6, r8, r9, lsl r5
     fb8:	01480100 	mrseq	r0, (UNDEF: 88)
     fbc:	00002c02 	andeq	r2, r0, r2, lsl #24
     fc0:	541a2000 	ldrpl	r2, [sl], #-0
     fc4:	01000003 	tsteq	r0, r3
     fc8:	2c020148 	stfcss	f0, [r2], {72}	; 0x48
     fcc:	1f000000 	svcne	0x00000000
     fd0:	0002981a 	andeq	r9, r2, sl, lsl r8
     fd4:	01480100 	mrseq	r0, (UNDEF: 88)
     fd8:	00002c02 	andeq	r2, r0, r2, lsl #24
     fdc:	15000100 	strne	r0, [r0, #-256]	; 0xffffff00
     fe0:	000082d4 	ldrdeq	r8, [r0], -r4
     fe4:	00000000 	andeq	r0, r0, r0
     fe8:	00000918 	andeq	r0, r0, r8, lsl r9
     fec:	00755f16 	rsbseq	r5, r5, r6, lsl pc
     ff0:	01490104 	cmpeq	r9, r4, lsl #2
     ff4:	0008e202 	andeq	lr, r8, r2, lsl #4
     ff8:	00731700 	rsbseq	r1, r3, r0, lsl #14
     ffc:	02014901 	andeq	r4, r1, #16384	; 0x4000
    1000:	00000299 	muleq	r0, r9, r2
    1004:	01007517 	tsteq	r0, r7, lsl r5
    1008:	2c020149 	stfcss	f0, [r2], {73}	; 0x49
    100c:	00000000 	andeq	r0, r0, r0
    1010:	01007818 	tsteq	r0, r8, lsl r8
    1014:	be020149 	adfltsm	f0, f2, #1.0
    1018:	19000008 	stmdbne	r0, {r3}
    101c:	00707865 	rsbseq	r7, r0, r5, ror #16
    1020:	02014901 	andeq	r4, r1, #16384	; 0x4000
    1024:	0000002c 	andeq	r0, r0, ip, lsr #32
    1028:	03541a40 	cmpeq	r4, #64, 20	; 0x40000
    102c:	49010000 	stmdbmi	r1, {}	; <UNPREDICTABLE>
    1030:	002c0201 	eoreq	r0, ip, r1, lsl #4
    1034:	1a1f0000 	bne	7c103c <__bss_end__+0x7b74dc>
    1038:	00000298 	muleq	r0, r8, r2
    103c:	02014901 	andeq	r4, r1, #16384	; 0x4000
    1040:	0000002c 	andeq	r0, r0, ip, lsr #32
    1044:	d4150001 	ldrle	r0, [r5], #-1
    1048:	00000082 	andeq	r0, r0, r2, lsl #1
    104c:	7f000000 	svcvc	0x00000000
    1050:	16000009 	strne	r0, [r0], -r9
    1054:	0400755f 	streq	r7, [r0], #-1375	; 0xfffffaa1
    1058:	02014a01 	andeq	r4, r1, #4096	; 0x1000
    105c:	00000949 	andeq	r0, r0, r9, asr #18
    1060:	01007317 	tsteq	r0, r7, lsl r3
    1064:	9902014a 	stmdbls	r2, {r1, r3, r6, r8}
    1068:	17000002 	strne	r0, [r0, -r2]
    106c:	4a010075 	bmi	41248 <__bss_end__+0x376e8>
    1070:	002c0201 	eoreq	r0, ip, r1, lsl #4
    1074:	18000000 	stmdane	r0, {}	; <UNPREDICTABLE>
    1078:	4a010078 	bmi	41260 <__bss_end__+0x37700>
    107c:	09250201 	stmdbeq	r5!, {r0, r9}
    1080:	65190000 	ldrvs	r0, [r9, #-0]
    1084:	01007078 	tsteq	r0, r8, ror r0
    1088:	2c02014a 	stfcss	f0, [r2], {74}	; 0x4a
    108c:	80000000 	andhi	r0, r0, r0
    1090:	0003541a 	andeq	r5, r3, sl, lsl r4
    1094:	014a0100 	mrseq	r0, (UNDEF: 90)
    1098:	00002c02 	andeq	r2, r0, r2, lsl #24
    109c:	981a1f00 	ldmdals	sl, {r8, r9, sl, fp, ip}
    10a0:	01000002 	tsteq	r0, r2
    10a4:	2c02014a 	stfcss	f0, [r2], {74}	; 0x4a
    10a8:	01000000 	mrseq	r0, (UNDEF: 0)
    10ac:	82d41500 	sbcshi	r1, r4, #0, 10
    10b0:	00000000 	andeq	r0, r0, r0
    10b4:	09e70000 	stmibeq	r7!, {}^	; <UNPREDICTABLE>
    10b8:	5f160000 	svcpl	0x00160000
    10bc:	01040075 	tsteq	r4, r5, ror r0
    10c0:	b002014b 	andlt	r0, r2, fp, asr #2
    10c4:	17000009 	strne	r0, [r0, -r9]
    10c8:	4b010073 	blmi	4129c <__bss_end__+0x3773c>
    10cc:	02990201 	addseq	r0, r9, #268435456	; 0x10000000
    10d0:	75170000 	ldrvc	r0, [r7, #-0]
    10d4:	014b0100 	mrseq	r0, (UNDEF: 91)
    10d8:	00002c02 	andeq	r2, r0, r2, lsl #24
    10dc:	78180000 	ldmdavc	r8, {}	; <UNPREDICTABLE>
    10e0:	014b0100 	mrseq	r0, (UNDEF: 91)
    10e4:	00098c02 	andeq	r8, r9, r2, lsl #24
    10e8:	78651d00 	stmdavc	r5!, {r8, sl, fp, ip}^
    10ec:	4b010070 	blmi	412b4 <__bss_end__+0x37754>
    10f0:	002c0201 	eoreq	r0, ip, r1, lsl #4
    10f4:	01000000 	mrseq	r0, (UNDEF: 0)
    10f8:	0003541a 	andeq	r5, r3, sl, lsl r4
    10fc:	014b0100 	mrseq	r0, (UNDEF: 91)
    1100:	00002c02 	andeq	r2, r0, r2, lsl #24
    1104:	981a1f00 	ldmdals	sl, {r8, r9, sl, fp, ip}
    1108:	01000002 	tsteq	r0, r2
    110c:	2c02014b 	stfcss	f0, [r2], {75}	; 0x4b
    1110:	01000000 	mrseq	r0, (UNDEF: 0)
    1114:	82d41e00 	sbcshi	r1, r4, #0, 28
    1118:	00000000 	andeq	r0, r0, r0
    111c:	5f160000 	svcpl	0x00160000
    1120:	01040075 	tsteq	r4, r5, ror r0
    1124:	1402014c 	strne	r0, [r2], #-332	; 0xfffffeb4
    1128:	1700000a 	strne	r0, [r0, -sl]
    112c:	4c010073 	stcmi	0, cr0, [r1], {115}	; 0x73
    1130:	02990201 	addseq	r0, r9, #268435456	; 0x10000000
    1134:	75170000 	ldrvc	r0, [r7, #-0]
    1138:	014c0100 	mrseq	r0, (UNDEF: 92)
    113c:	00002c02 	andeq	r2, r0, r2, lsl #24
    1140:	78180000 	ldmdavc	r8, {}	; <UNPREDICTABLE>
    1144:	014c0100 	mrseq	r0, (UNDEF: 92)
    1148:	0009f002 	andeq	pc, r9, r2
    114c:	78651d00 	stmdavc	r5!, {r8, sl, fp, ip}^
    1150:	4c010070 	stcmi	0, cr0, [r1], {112}	; 0x70
    1154:	002c0201 	eoreq	r0, ip, r1, lsl #4
    1158:	02000000 	andeq	r0, r0, #0, 0
    115c:	0003541f 	andeq	r5, r3, pc, lsl r4
    1160:	014c0100 	mrseq	r0, (UNDEF: 92)
    1164:	00002c02 	andeq	r2, r0, r2, lsl #24
    1168:	02981f00 	addseq	r1, r8, #0, 30
    116c:	4c010000 	stcmi	0, cr0, [r1], {-0}
    1170:	002c0201 	eoreq	r0, ip, r1, lsl #4
    1174:	00000000 	andeq	r0, r0, r0
    1178:	0000c020 	andeq	ip, r0, r0, lsr #32
    117c:	000a5a00 	andeq	r5, sl, r0, lsl #20
    1180:	002c2100 	eoreq	r2, ip, r0, lsl #2
    1184:	000c0000 	andeq	r0, ip, r0
    1188:	000a4a09 	andeq	r4, sl, r9, lsl #20
    118c:	02062200 	andeq	r2, r6, #0, 4
    1190:	08010000 	stmdaeq	r1, {}	; <UNPREDICTABLE>
    1194:	84780601 	ldrbthi	r0, [r8], #-1537	; 0xfffff9ff
    1198:	00740000 	rsbseq	r0, r4, r0
    119c:	9c010000 	stcls	0, cr0, [r1], {-0}
    11a0:	00000bf5 	strdeq	r0, [r0], -r5
    11a4:	0002d323 	andeq	sp, r2, r3, lsr #6
    11a8:	01190100 	tsteq	r9, r0, lsl #2
    11ac:	000bf517 	andeq	pc, fp, r7, lsl r5	; <UNPREDICTABLE>
    11b0:	80400400 	subhi	r0, r0, r0, lsl #8
    11b4:	03dc2420 	bicseq	r2, ip, #32, 8	; 0x20000000
    11b8:	1a010000 	bne	411c0 <__bss_end__+0x37660>
    11bc:	02991001 	addseq	r1, r9, #1, 0
    11c0:	023d0000 	eorseq	r0, sp, #0, 0
    11c4:	023b0000 	eorseq	r0, fp, #0, 0
    11c8:	bc230000 	stclt	0, cr0, [r3], #-0
    11cc:	01000002 	tsteq	r0, r2
    11d0:	fb17011b 	blx	5c1646 <__bss_end__+0x5b7ae6>
    11d4:	0000000b 	andeq	r0, r0, fp
    11d8:	24208040 	strtcs	r8, [r0], #-64	; 0xffffffc0
    11dc:	00000377 	andeq	r0, r0, r7, ror r3
    11e0:	10011c01 	andne	r1, r1, r1, lsl #24
    11e4:	000001cf 	andeq	r0, r0, pc, asr #3
    11e8:	00000252 	andeq	r0, r0, r2, asr r2
    11ec:	00000250 	andeq	r0, r0, r0, asr r2
    11f0:	0084c015 	addeq	ip, r4, r5, lsl r0
    11f4:	00000000 	andeq	r0, r0, r0
    11f8:	000b0100 	andeq	r0, fp, r0, lsl #2
    11fc:	755f1600 	ldrbvc	r1, [pc, #-1536]	; c04 <__code_start__-0x73fc>
    1200:	23010400 	movwcs	r0, #5120	; 0x1400
    1204:	0af50501 	beq	ffd42610 <__bss_end__+0xffd38ab0>
    1208:	76170000 	ldrvc	r0, [r7], -r0
    120c:	23010076 	movwcs	r0, #4214	; 0x1076
    1210:	02990501 	addseq	r0, r9, #4194304	; 0x400000
    1214:	75170000 	ldrvc	r0, [r7, #-0]
    1218:	23010075 	movwcs	r0, #4213	; 0x1075
    121c:	00690501 	rsbeq	r0, r9, r1, lsl #10
    1220:	18000000 	stmdane	r0, {}	; <UNPREDICTABLE>
    1224:	23010075 	movwcs	r0, #4213	; 0x1075
    1228:	0acf0501 	beq	ff3c2634 <__bss_end__+0xff3b8ad4>
    122c:	15000000 	strne	r0, [r0, #-0]
    1230:	000084d0 	ldrdeq	r8, [r0], -r0
    1234:	00000000 	andeq	r0, r0, r0
    1238:	00000b40 	andeq	r0, r0, r0, asr #22
    123c:	00755f16 	rsbseq	r5, r5, r6, lsl pc
    1240:	01240104 			; <UNDEFINED> instruction: 0x01240104
    1244:	000b3405 	andeq	r3, fp, r5, lsl #8
    1248:	76761700 	ldrbtvc	r1, [r6], -r0, lsl #14
    124c:	01240100 			; <UNDEFINED> instruction: 0x01240100
    1250:	0001cf05 	andeq	ip, r1, r5, lsl #30
    1254:	75751700 	ldrbvc	r1, [r5, #-1792]!	; 0xfffff900
    1258:	01240100 			; <UNDEFINED> instruction: 0x01240100
    125c:	00006905 	andeq	r6, r0, r5, lsl #18
    1260:	75180000 	ldrvc	r0, [r8, #-0]
    1264:	01240100 			; <UNDEFINED> instruction: 0x01240100
    1268:	000b0e05 	andeq	r0, fp, r5, lsl #28
    126c:	80250000 	eorhi	r0, r5, r0
    1270:	43000084 	movwmi	r0, #132	; 0x84
    1274:	25000003 	strcs	r0, [r0, #-3]
    1278:	00008484 	andeq	r8, r0, r4, lsl #9
    127c:	000010c9 	andeq	r1, r0, r9, asr #1
    1280:	00849026 	addeq	r9, r4, r6, lsr #32
    1284:	0010d500 	andseq	sp, r0, r0, lsl #10
    1288:	000b6a00 	andeq	r6, fp, r0, lsl #20
    128c:	50012700 	andpl	r2, r1, r0, lsl #14
    1290:	01273201 			; <UNDEFINED> instruction: 0x01273201
    1294:	00340151 	eorseq	r0, r4, r1, asr r1
    1298:	00849c26 	addeq	r9, r4, r6, lsr #24
    129c:	0010d500 	andseq	sp, r0, r0, lsl #10
    12a0:	000b8200 	andeq	r8, fp, r0, lsl #4
    12a4:	50012700 	andpl	r2, r1, r0, lsl #14
    12a8:	01273301 			; <UNDEFINED> instruction: 0x01273301
    12ac:	00340151 	eorseq	r0, r4, r1, asr r1
    12b0:	0084a025 	addeq	sl, r4, r5, lsr #32
    12b4:	0010c900 	andseq	ip, r0, r0, lsl #18
    12b8:	84ac2600 	strthi	r2, [ip], #1536	; 0x600
    12bc:	0fe30000 	svceq	0x00e30000
    12c0:	0b9f0000 	bleq	fe7c12c8 <__bss_end__+0xfe7b7768>
    12c4:	01270000 			; <UNDEFINED> instruction: 0x01270000
    12c8:	00770250 	rsbseq	r0, r7, r0, asr r2
    12cc:	84bc2600 	ldrthi	r2, [ip], #1536	; 0x600
    12d0:	10560000 	subsne	r0, r6, r0
    12d4:	0bb30000 	bleq	fecc12dc <__bss_end__+0xfecb777c>
    12d8:	01270000 			; <UNDEFINED> instruction: 0x01270000
    12dc:	00760250 	rsbseq	r0, r6, r0, asr r2
    12e0:	84d02600 	ldrbhi	r2, [r0], #1536	; 0x600
    12e4:	10e10000 	rscne	r0, r1, r0
    12e8:	0bd10000 	bleq	ff4412f0 <__bss_end__+0xff437790>
    12ec:	01270000 			; <UNDEFINED> instruction: 0x01270000
    12f0:	00770250 	rsbseq	r0, r7, r0, asr r2
    12f4:	06510127 	ldrbeq	r0, [r1], -r7, lsr #2
    12f8:	020a0075 	andeq	r0, sl, #117, 0	; 0x75
    12fc:	26002103 	strcs	r2, [r0], -r3, lsl #2
    1300:	000084dc 	ldrdeq	r8, [r0], -ip
    1304:	000010e1 	andeq	r1, r0, r1, ror #1
    1308:	00000beb 	andeq	r0, r0, fp, ror #23
    130c:	02500127 	subseq	r0, r0, #-1073741815	; 0xc0000009
    1310:	01270076 			; <UNDEFINED> instruction: 0x01270076
    1314:	00740251 	rsbseq	r0, r4, r1, asr r2
    1318:	84e02500 	strbthi	r2, [r0], #1280	; 0x500
    131c:	10c90000 	sbcne	r0, r9, r0
    1320:	08000000 	stmdaeq	r0, {}	; <UNPREDICTABLE>
    1324:	0002a504 	andeq	sl, r2, r4, lsl #10
    1328:	db040800 	blle	103330 <__bss_end__+0xf97d0>
    132c:	28000001 	stmdacs	r0, {r0}
    1330:	00000266 	andeq	r0, r0, r6, ror #4
    1334:	2505d701 	strcs	sp, [r5, #-1793]	; 0xfffff8ff
    1338:	ac000000 	stcge	0, cr0, [r0], {-0}
    133c:	cc000083 	stcgt	0, cr0, [r0], {131}	; 0x83
    1340:	01000000 	mrseq	r0, (UNDEF: 0)
    1344:	000deb9c 	muleq	sp, ip, fp
    1348:	01df2900 	bicseq	r2, pc, r0, lsl #18
    134c:	d7010000 	strle	r0, [r1, -r0]
    1350:	00002c17 	andeq	r2, r0, r7, lsl ip
    1354:	00026900 	andeq	r6, r2, r0, lsl #18
    1358:	00026500 	andeq	r6, r2, r0, lsl #10
    135c:	09f52900 	ldmibeq	r5!, {r8, fp, sp}^
    1360:	d7010000 	strle	r0, [r1, -r0]
    1364:	000deb25 	andeq	lr, sp, r5, lsr #22
    1368:	00028b00 	andeq	r8, r2, r0, lsl #22
    136c:	00028700 	andeq	r8, r2, r0, lsl #14
    1370:	03d52900 	bicseq	r2, r5, #0, 18
    1374:	d7010000 	strle	r0, [r1, -r0]
    1378:	00002c36 	andeq	r2, r0, r6, lsr ip
    137c:	0002ad00 	andeq	sl, r2, r0, lsl #26
    1380:	0002a900 	andeq	sl, r2, r0, lsl #18
    1384:	02d32a00 	sbcseq	r2, r3, #0, 20
    1388:	dc010000 	stcle	0, cr0, [r1], {-0}
    138c:	000bf517 	andeq	pc, fp, r7, lsl r5	; <UNPREDICTABLE>
    1390:	80400400 	subhi	r0, r0, r0, lsl #8
    1394:	03dc2b20 	bicseq	r2, ip, #32, 22	; 0x8000
    1398:	dd010000 	stcle	0, cr0, [r1, #-0]
    139c:	00029910 	andeq	r9, r2, r0, lsl r9
    13a0:	02bc2a00 	adcseq	r2, ip, #0, 20
    13a4:	e7010000 	str	r0, [r1, -r0]
    13a8:	000bfb17 	andeq	pc, fp, r7, lsl fp	; <UNPREDICTABLE>
    13ac:	80400000 	subhi	r0, r0, r0
    13b0:	03772b20 	cmneq	r7, #32, 22	; 0x8000
    13b4:	e8010000 	stmda	r1, {}	; <UNPREDICTABLE>
    13b8:	0001cf10 	andeq	ip, r1, r0, lsl pc
    13bc:	83cc1500 	bichi	r1, ip, #0, 10
    13c0:	00000000 	andeq	r0, r0, r0
    13c4:	0cca0000 	stcleq	0, cr0, [sl], {0}
    13c8:	5f2c0000 	svcpl	0x002c0000
    13cc:	01040075 	tsteq	r4, r5, ror r0
    13d0:	0cbf02e2 	lfmeq	f0, 4, [pc], #904	; 1760 <__code_start__-0x68a0>
    13d4:	762d0000 	strtvc	r0, [sp], -r0
    13d8:	e2010076 	and	r0, r1, #118, 0	; 0x76
    13dc:	00029902 	andeq	r9, r2, r2, lsl #18
    13e0:	75752d00 	ldrbvc	r2, [r5, #-3328]!	; 0xfffff300
    13e4:	02e20100 	rsceq	r0, r2, #0
    13e8:	00000069 	andeq	r0, r0, r9, rrx
    13ec:	00751200 	rsbseq	r1, r5, r0, lsl #4
    13f0:	9c02e201 	sfmls	f6, 1, [r2], {1}
    13f4:	0000000c 	andeq	r0, r0, ip
    13f8:	00840415 	addeq	r0, r4, r5, lsl r4
    13fc:	00000000 	andeq	r0, r0, r0
    1400:	000d0500 	andeq	r0, sp, r0, lsl #10
    1404:	755f2c00 	ldrbvc	r2, [pc, #-3072]	; 80c <__code_start__-0x77f4>
    1408:	ef010400 	svc	0x00010400
    140c:	000cfa02 	andeq	pc, ip, r2, lsl #20
    1410:	76762d00 	ldrbtvc	r2, [r6], -r0, lsl #26
    1414:	02ef0100 	rsceq	r0, pc, #0
    1418:	000001cf 	andeq	r0, r0, pc, asr #3
    141c:	0075752d 	rsbseq	r7, r5, sp, lsr #10
    1420:	6902ef01 	stmdbvs	r2, {r0, r8, r9, sl, fp, sp, lr, pc}
    1424:	00000000 	andeq	r0, r0, r0
    1428:	01007512 	tsteq	r0, r2, lsl r5
    142c:	0cd702ef 	lfmeq	f0, 2, [r7], {239}	; 0xef
    1430:	15000000 	strne	r0, [r0, #-0]
    1434:	00008410 	andeq	r8, r0, r0, lsl r4
    1438:	00000030 	andeq	r0, r0, r0, lsr r0
    143c:	00000d25 	andeq	r0, r0, r5, lsr #26
    1440:	0100692e 	tsteq	r0, lr, lsr #18
    1444:	002c0ff1 	strdeq	r0, [ip], -r1	; <UNPREDICTABLE>
    1448:	02cf0000 	sbceq	r0, pc, #0, 0
    144c:	02cb0000 	sbceq	r0, fp, #0, 0
    1450:	15000000 	strne	r0, [r0, #-0]
    1454:	00008458 	andeq	r8, r0, r8, asr r4
    1458:	00000000 	andeq	r0, r0, r0
    145c:	00000d60 	andeq	r0, r0, r0, ror #26
    1460:	00755f2c 	rsbseq	r5, r5, ip, lsr #30
    1464:	02fc0104 	rscseq	r0, ip, #1
    1468:	00000d55 	andeq	r0, r0, r5, asr sp
    146c:	0076762d 	rsbseq	r7, r6, sp, lsr #12
    1470:	9902fc01 	stmdbls	r2, {r0, sl, fp, ip, sp, lr, pc}
    1474:	2d000002 	stccs	0, cr0, [r0, #-8]
    1478:	01007575 	tsteq	r0, r5, ror r5
    147c:	006902fc 	strdeq	r0, [r9], #-44	; 0xffffffd4	; <UNPREDICTABLE>
    1480:	12000000 	andne	r0, r0, #0, 0
    1484:	fc010075 	stc2	0, cr0, [r1], {117}	; 0x75
    1488:	000d3202 	andeq	r3, sp, r2, lsl #4
    148c:	c0250000 	eorgt	r0, r5, r0
    1490:	c9000083 	stmdbgt	r0, {r0, r1, r7}
    1494:	26000010 			; <UNDEFINED> instruction: 0x26000010
    1498:	000083cc 	andeq	r8, r0, ip, asr #7
    149c:	00000fe3 	andeq	r0, r0, r3, ror #31
    14a0:	00000d7d 	andeq	r0, r0, sp, ror sp
    14a4:	02500127 	subseq	r0, r0, #-1073741815	; 0xc0000009
    14a8:	26000074 			; <UNDEFINED> instruction: 0x26000074
    14ac:	000083dc 	ldrdeq	r8, [r0], -ip
    14b0:	000010e1 	andeq	r1, r0, r1, ror #1
    14b4:	00000d91 	muleq	r0, r1, sp
    14b8:	02500127 	subseq	r0, r0, #-1073741815	; 0xc0000009
    14bc:	26000074 			; <UNDEFINED> instruction: 0x26000074
    14c0:	000083f8 	strdeq	r8, [r0], -r8	; <UNPREDICTABLE>
    14c4:	00001056 	andeq	r1, r0, r6, asr r0
    14c8:	00000da5 	andeq	r0, r0, r5, lsr #27
    14cc:	02500127 	subseq	r0, r0, #-1073741815	; 0xc0000009
    14d0:	26000077 			; <UNDEFINED> instruction: 0x26000077
    14d4:	00008410 	andeq	r8, r0, r0, lsl r4
    14d8:	000010e1 	andeq	r1, r0, r1, ror #1
    14dc:	00000db9 			; <UNDEFINED> instruction: 0x00000db9
    14e0:	02500127 	subseq	r0, r0, #-1073741815	; 0xc0000009
    14e4:	26000077 			; <UNDEFINED> instruction: 0x26000077
    14e8:	00008458 	andeq	r8, r0, r8, asr r4
    14ec:	00000fe3 	andeq	r0, r0, r3, ror #31
    14f0:	00000dcd 	andeq	r0, r0, sp, asr #27
    14f4:	02500127 	subseq	r0, r0, #-1073741815	; 0xc0000009
    14f8:	26000074 			; <UNDEFINED> instruction: 0x26000074
    14fc:	00008464 	andeq	r8, r0, r4, ror #8
    1500:	000010e1 	andeq	r1, r0, r1, ror #1
    1504:	00000de1 	andeq	r0, r0, r1, ror #27
    1508:	02500127 	subseq	r0, r0, #-1073741815	; 0xc0000009
    150c:	25000074 	strcs	r0, [r0, #-116]	; 0xffffff8c
    1510:	00008468 	andeq	r8, r0, r8, ror #8
    1514:	000010c9 	andeq	r1, r0, r9, asr #1
    1518:	4f040800 	svcmi	0x00040800
    151c:	28000000 	stmdacs	r0, {}	; <UNPREDICTABLE>
    1520:	0000020f 	andeq	r0, r0, pc, lsl #4
    1524:	2505a301 	strcs	sl, [r5, #-769]	; 0xfffffcff
    1528:	d8000000 	stmdale	r0, {}	; <UNPREDICTABLE>
    152c:	d4000082 	strle	r0, [r0], #-130	; 0xffffff7e
    1530:	01000000 	mrseq	r0, (UNDEF: 0)
    1534:	000fe39c 	muleq	pc, ip, r3	; <UNPREDICTABLE>
    1538:	01df2900 	bicseq	r2, pc, r0, lsl #18
    153c:	a3010000 	movwge	r0, #4096	; 0x1000
    1540:	00002c18 	andeq	r2, r0, r8, lsl ip
    1544:	0002f200 	andeq	pc, r2, r0, lsl #4
    1548:	0002ee00 	andeq	lr, r2, r0, lsl #28
    154c:	09f52900 	ldmibeq	r5!, {r8, fp, sp}^
    1550:	a3010000 	movwge	r0, #4096	; 0x1000
    1554:	000deb26 	andeq	lr, sp, r6, lsr #22
    1558:	00031400 	andeq	r1, r3, r0, lsl #8
    155c:	00031000 	andeq	r1, r3, r0
    1560:	03d52900 	bicseq	r2, r5, #0, 18
    1564:	a3010000 	movwge	r0, #4096	; 0x1000
    1568:	00002c37 	andeq	r2, r0, r7, lsr ip
    156c:	00033600 	andeq	r3, r3, r0, lsl #12
    1570:	00033200 	andeq	r3, r3, r0, lsl #4
    1574:	02d32a00 	sbcseq	r2, r3, #0, 20
    1578:	a8010000 	stmdage	r1, {}	; <UNPREDICTABLE>
    157c:	000bf517 	andeq	pc, fp, r7, lsl r5	; <UNPREDICTABLE>
    1580:	80400400 	subhi	r0, r0, r0, lsl #8
    1584:	03dc2b20 	bicseq	r2, ip, #32, 22	; 0x8000
    1588:	a9010000 	stmdbge	r1, {}	; <UNPREDICTABLE>
    158c:	00029910 	andeq	r9, r2, r0, lsl r9
    1590:	02bc2a00 	adcseq	r2, ip, #0, 20
    1594:	ba010000 	blt	4159c <__bss_end__+0x37a3c>
    1598:	000bfb17 	andeq	pc, fp, r7, lsl fp	; <UNPREDICTABLE>
    159c:	80400000 	subhi	r0, r0, r0
    15a0:	03772f20 	cmneq	r7, #32, 30	; 0x80
    15a4:	bb010000 	bllt	415ac <__bss_end__+0x37a4c>
    15a8:	0001cf10 	andeq	ip, r1, r0, lsl pc
    15ac:	00035600 	andeq	r5, r3, r0, lsl #12
    15b0:	00035400 	andeq	r5, r3, r0, lsl #8
    15b4:	82f81500 	rscshi	r1, r8, #0, 10
    15b8:	00000000 	andeq	r0, r0, r0
    15bc:	0ec20000 	cdpeq	0, 12, cr0, cr2, cr0, {0}
    15c0:	5f2c0000 	svcpl	0x002c0000
    15c4:	01040075 	tsteq	r4, r5, ror r0
    15c8:	0eb702ae 	cdpeq	2, 11, cr0, cr7, cr14, {5}
    15cc:	762d0000 	strtvc	r0, [sp], -r0
    15d0:	ae010076 	mcrge	0, 0, r0, cr1, cr6, {3}
    15d4:	00029902 	andeq	r9, r2, r2, lsl #18
    15d8:	75752d00 	ldrbvc	r2, [r5, #-3328]!	; 0xfffff300
    15dc:	02ae0100 	adceq	r0, lr, #0
    15e0:	00000069 	andeq	r0, r0, r9, rrx
    15e4:	00751200 	rsbseq	r1, r5, r0, lsl #4
    15e8:	9402ae01 	strls	sl, [r2], #-3585	; 0xfffff1ff
    15ec:	0000000e 	andeq	r0, r0, lr
    15f0:	00833015 	addeq	r3, r3, r5, lsl r0
    15f4:	00000000 	andeq	r0, r0, r0
    15f8:	000efd00 	andeq	pc, lr, r0, lsl #26
    15fc:	755f2c00 	ldrbvc	r2, [pc, #-3072]	; a04 <__code_start__-0x75fc>
    1600:	c1010400 	tstgt	r1, r0, lsl #8
    1604:	000ef202 	andeq	pc, lr, r2, lsl #4
    1608:	76762d00 	ldrbtvc	r2, [r6], -r0, lsl #26
    160c:	02c10100 	sbceq	r0, r1, #0
    1610:	000001cf 	andeq	r0, r0, pc, asr #3
    1614:	0075752d 	rsbseq	r7, r5, sp, lsr #10
    1618:	6902c101 	stmdbvs	r2, {r0, r8, lr, pc}
    161c:	00000000 	andeq	r0, r0, r0
    1620:	01007512 	tsteq	r0, r2, lsl r5
    1624:	0ecf02c1 	cdpeq	2, 12, cr0, cr15, cr1, {6}
    1628:	15000000 	strne	r0, [r0, #-0]
    162c:	00008344 	andeq	r8, r0, r4, asr #6
    1630:	00000030 	andeq	r0, r0, r0, lsr r0
    1634:	00000f1d 	andeq	r0, r0, sp, lsl pc
    1638:	0100692e 	tsteq	r0, lr, lsr #18
    163c:	002c10c6 	eoreq	r1, ip, r6, asr #1
    1640:	036d0000 	cmneq	sp, #0, 0
    1644:	03690000 	cmneq	r9, #0, 0
    1648:	15000000 	strne	r0, [r0, #-0]
    164c:	0000838c 	andeq	r8, r0, ip, lsl #7
    1650:	00000000 	andeq	r0, r0, r0
    1654:	00000f58 	andeq	r0, r0, r8, asr pc
    1658:	00755f2c 	rsbseq	r5, r5, ip, lsr #30
    165c:	02d00104 	sbcseq	r0, r0, #1
    1660:	00000f4d 	andeq	r0, r0, sp, asr #30
    1664:	0076762d 	rsbseq	r7, r6, sp, lsr #12
    1668:	9902d001 	stmdbls	r2, {r0, ip, lr, pc}
    166c:	2d000002 	stccs	0, cr0, [r0, #-8]
    1670:	01007575 	tsteq	r0, r5, ror r5
    1674:	006902d0 	ldrdeq	r0, [r9], #-32	; 0xffffffe0	; <UNPREDICTABLE>
    1678:	12000000 	andne	r0, r0, #0, 0
    167c:	d0010075 	andle	r0, r1, r5, ror r0
    1680:	000f2a02 	andeq	r2, pc, r2, lsl #20
    1684:	ec250000 	stc	0, cr0, [r5], #-0
    1688:	c9000082 	stmdbgt	r0, {r1, r7}
    168c:	26000010 			; <UNDEFINED> instruction: 0x26000010
    1690:	000082f8 	strdeq	r8, [r0], -r8	; <UNPREDICTABLE>
    1694:	00000fe3 	andeq	r0, r0, r3, ror #31
    1698:	00000f75 	andeq	r0, r0, r5, ror pc
    169c:	02500127 	subseq	r0, r0, #-1073741815	; 0xc0000009
    16a0:	26000074 			; <UNDEFINED> instruction: 0x26000074
    16a4:	00008308 	andeq	r8, r0, r8, lsl #6
    16a8:	000010e1 	andeq	r1, r0, r1, ror #1
    16ac:	00000f89 	andeq	r0, r0, r9, lsl #31
    16b0:	02500127 	subseq	r0, r0, #-1073741815	; 0xc0000009
    16b4:	26000074 			; <UNDEFINED> instruction: 0x26000074
    16b8:	00008324 	andeq	r8, r0, r4, lsr #6
    16bc:	00001056 	andeq	r1, r0, r6, asr r0
    16c0:	00000f9d 	muleq	r0, sp, pc	; <UNPREDICTABLE>
    16c4:	02500127 	subseq	r0, r0, #-1073741815	; 0xc0000009
    16c8:	26000078 			; <UNDEFINED> instruction: 0x26000078
    16cc:	0000833c 	andeq	r8, r0, ip, lsr r3
    16d0:	000010e1 	andeq	r1, r0, r1, ror #1
    16d4:	00000fb1 			; <UNDEFINED> instruction: 0x00000fb1
    16d8:	02500127 	subseq	r0, r0, #-1073741815	; 0xc0000009
    16dc:	26000078 			; <UNDEFINED> instruction: 0x26000078
    16e0:	0000838c 	andeq	r8, r0, ip, lsl #7
    16e4:	00000fe3 	andeq	r0, r0, r3, ror #31
    16e8:	00000fc5 	andeq	r0, r0, r5, asr #31
    16ec:	02500127 	subseq	r0, r0, #-1073741815	; 0xc0000009
    16f0:	26000074 			; <UNDEFINED> instruction: 0x26000074
    16f4:	00008398 	muleq	r0, r8, r3
    16f8:	000010e1 	andeq	r1, r0, r1, ror #1
    16fc:	00000fd9 	ldrdeq	r0, [r0], -r9
    1700:	02500127 	subseq	r0, r0, #-1073741815	; 0xc0000009
    1704:	25000074 	strcs	r0, [r0, #-116]	; 0xffffff8c
    1708:	0000839c 	muleq	r0, ip, r3
    170c:	000010c9 	andeq	r1, r0, r9, asr #1
    1710:	03e73000 	mvneq	r3, #0, 0
    1714:	7f010000 	svcvc	0x00010000
    1718:	00029913 	andeq	r9, r2, r3, lsl r9
    171c:	0082c400 	addeq	ip, r2, r0, lsl #8
    1720:	00000c00 	andeq	r0, r0, r0, lsl #24
    1724:	569c0100 	ldrpl	r0, [ip], r0, lsl #2
    1728:	31000010 	tstcc	r0, r0, lsl r0
    172c:	7f010073 	svcvc	0x00010073
    1730:	000bf52f 	andeq	pc, fp, pc, lsr #10
    1734:	00039000 	andeq	r9, r3, r0
    1738:	00038c00 	andeq	r8, r3, r0, lsl #24
    173c:	82c81e00 	sbchi	r1, r8, #0, 28
    1740:	00040000 	andeq	r0, r4, r0
    1744:	5f2c0000 	svcpl	0x002c0000
    1748:	01040075 	tsteq	r4, r5, ror r0
    174c:	10390980 	eorsne	r0, r9, r0, lsl #19
    1750:	762d0000 	strtvc	r0, [sp], -r0
    1754:	09800100 	stmibeq	r0, {r8}
    1758:	000002a5 	andeq	r0, r0, r5, lsr #5
    175c:	0100752d 	tsteq	r0, sp, lsr #10
    1760:	002c0980 	eoreq	r0, ip, r0, lsl #19
    1764:	12000000 	andne	r0, r0, #0, 0
    1768:	80010075 	andhi	r0, r1, r5, ror r0
    176c:	00101809 	andseq	r1, r0, r9, lsl #16
    1770:	82cc3200 	sbchi	r3, ip, #0, 4
    1774:	10ed0000 	rscne	r0, sp, r0
    1778:	01270000 			; <UNDEFINED> instruction: 0x01270000
    177c:	01f30350 	mvnseq	r0, r0, asr r3
    1780:	00000050 	andeq	r0, r0, r0, asr r0
    1784:	00040630 	andeq	r0, r4, r0, lsr r6
    1788:	13490100 	movtne	r0, #37120	; 0x9100
    178c:	000001cf 	andeq	r0, r0, pc, asr #3
    1790:	000082b8 			; <UNDEFINED> instruction: 0x000082b8
    1794:	0000000c 	andeq	r0, r0, ip
    1798:	10c99c01 	sbcne	r9, r9, r1, lsl #24
    179c:	63310000 	teqvs	r1, #0, 0
    17a0:	2f490100 	svccs	0x00490100
    17a4:	00000bfb 	strdeq	r0, [r0], -fp
    17a8:	000003b5 			; <UNDEFINED> instruction: 0x000003b5
    17ac:	000003b1 			; <UNDEFINED> instruction: 0x000003b1
    17b0:	0082bc1e 	addeq	fp, r2, lr, lsl ip
    17b4:	00000400 	andeq	r0, r0, r0, lsl #8
    17b8:	755f2c00 	ldrbvc	r2, [pc, #-3072]	; bc0 <__code_start__-0x7440>
    17bc:	4a010400 	bmi	427c4 <__bss_end__+0x38c64>
    17c0:	0010ac09 	andseq	sl, r0, r9, lsl #24
    17c4:	00762d00 	rsbseq	r2, r6, r0, lsl #26
    17c8:	db094a01 	blle	253fd4 <__bss_end__+0x24a474>
    17cc:	2d000001 	stccs	0, cr0, [r0, #-4]
    17d0:	4a010075 	bmi	419ac <__bss_end__+0x37e4c>
    17d4:	00002c09 	andeq	r2, r0, r9, lsl #24
    17d8:	75120000 	ldrvc	r0, [r2, #-0]
    17dc:	094a0100 	stmdbeq	sl, {r8}^
    17e0:	0000108b 	andeq	r1, r0, fp, lsl #1
    17e4:	0082c032 	addeq	ip, r2, r2, lsr r0
    17e8:	0010ed00 	andseq	lr, r0, r0, lsl #26
    17ec:	50012700 	andpl	r2, r1, r0, lsl #14
    17f0:	5001f303 	andpl	pc, r1, r3, lsl #6
    17f4:	33000000 	movwcc	r0, #0
    17f8:	000003b5 			; <UNDEFINED> instruction: 0x000003b5
    17fc:	000003b5 			; <UNDEFINED> instruction: 0x000003b5
    1800:	3306a103 	movwcc	sl, #24835	; 0x6103
    1804:	000003f4 	strdeq	r0, [r0], -r4
    1808:	000003f4 	strdeq	r0, [r0], -r4
    180c:	33061904 	movwcc	r1, #26884	; 0x6904
    1810:	00000343 	andeq	r0, r0, r3, asr #6
    1814:	00000343 	andeq	r0, r0, r3, asr #6
    1818:	3306b303 	movwcc	fp, #25347	; 0x6303
    181c:	000003c1 	andeq	r0, r0, r1, asr #7
    1820:	000003c1 	andeq	r0, r0, r1, asr #7
    1824:	000bc803 	andeq	ip, fp, r3, lsl #16
    1828:	000003f2 	strdeq	r0, [r0], -r2
    182c:	05fb0004 	ldrbeq	r0, [fp, #4]!
    1830:	01040000 	mrseq	r0, (UNDEF: 4)
    1834:	000004b9 			; <UNDEFINED> instruction: 0x000004b9
    1838:	0004900c 	andeq	r9, r4, ip
    183c:	0005c600 	andeq	ip, r5, r0, lsl #12
    1840:	0084ec00 	addeq	lr, r4, r0, lsl #24
    1844:	00011c00 	andeq	r1, r1, r0, lsl #24
    1848:	00090000 	andeq	r0, r9, r0
    184c:	05040200 	streq	r0, [r4, #-512]	; 0xfffffe00
    1850:	00746e69 	rsbseq	r6, r4, r9, ror #28
    1854:	a2070403 	andge	r0, r7, #50331648	; 0x3000000
    1858:	04000001 	streq	r0, [r0], #-1
    185c:	0000002c 	andeq	r0, r0, ip, lsr #32
    1860:	24060103 	strcs	r0, [r6], #-259	; 0xfffffefd
    1864:	03000000 	movweq	r0, #0
    1868:	01d10502 	bicseq	r0, r1, r2, lsl #10
    186c:	04030000 	streq	r0, [r3], #-0
    1870:	0001bc05 	andeq	fp, r1, r5, lsl #24
    1874:	05080300 	streq	r0, [r8, #-768]	; 0xfffffd00
    1878:	000001b7 			; <UNDEFINED> instruction: 0x000001b7
    187c:	22080103 	andcs	r0, r8, #-1073741824	; 0xc0000000
    1880:	03000000 	movweq	r0, #0
    1884:	009c0702 	addseq	r0, ip, r2, lsl #14
    1888:	9d050000 	stcls	0, cr0, [r5, #-0]
    188c:	03000003 	movweq	r0, #3
    1890:	006e1934 	rsbeq	r1, lr, r4, lsr r9
    1894:	04030000 	streq	r0, [r3], #-0
    1898:	00019d07 	andeq	r9, r1, r7, lsl #26
    189c:	07080300 	streq	r0, [r8, -r0, lsl #6]
    18a0:	00000198 	muleq	r0, r8, r1
    18a4:	00002506 	andeq	r2, r0, r6, lsl #10
    18a8:	00008b00 	andeq	r8, r0, r0, lsl #22
    18ac:	00250700 	eoreq	r0, r5, r0, lsl #14
    18b0:	08000000 	stmdaeq	r0, {}	; <UNPREDICTABLE>
    18b4:	000001c5 	andeq	r0, r0, r5, asr #3
    18b8:	970e1c02 	strls	r1, [lr, -r2, lsl #24]
    18bc:	09000000 	stmdbeq	r0, {}	; <UNPREDICTABLE>
    18c0:	00007c04 	andeq	r7, r0, r4, lsl #24
    18c4:	00250600 	eoreq	r0, r5, r0, lsl #12
    18c8:	00ac0000 	adceq	r0, ip, r0
    18cc:	ac070000 	stcge	0, cr0, [r7], {-0}
    18d0:	00000000 	andeq	r0, r0, r0
    18d4:	00b90409 	adcseq	r0, r9, r9, lsl #8
    18d8:	01030000 	mrseq	r0, (UNDEF: 3)
    18dc:	00002b08 	andeq	r2, r0, r8, lsl #22
    18e0:	00b20400 	adcseq	r0, r2, r0, lsl #8
    18e4:	9e080000 	cdpls	0, 0, cr0, cr8, cr0, {0}
    18e8:	02000006 	andeq	r0, r0, #6, 0
    18ec:	00ca0e21 	sbceq	r0, sl, r1, lsr #28
    18f0:	04090000 	streq	r0, [r9], #-0
    18f4:	0000009d 	muleq	r0, sp, r0
    18f8:	5401070a 	strpl	r0, [r1], #-1802	; 0xfffff8f6
    18fc:	04000000 	streq	r0, [r0], #-0
    1900:	010f0e0c 	tsteq	pc, ip, lsl #28
    1904:	880b0000 	stmdahi	fp, {}	; <UNPREDICTABLE>
    1908:	00000003 	andeq	r0, r0, r3
    190c:	0002c20b 	andeq	ip, r2, fp, lsl #4
    1910:	d90b0100 	stmdble	fp, {r8}
    1914:	04000002 	streq	r0, [r0], #-2
    1918:	0002e80b 	andeq	lr, r2, fp, lsl #16
    191c:	f70b0500 			; <UNDEFINED> instruction: 0xf70b0500
    1920:	06000002 	streq	r0, [r0], -r2
    1924:	0003060b 	andeq	r0, r3, fp, lsl #12
    1928:	150b0700 	strne	r0, [fp, #-1792]	; 0xfffff900
    192c:	03000003 	movweq	r0, #3
    1930:	0003240b 	andeq	r2, r3, fp, lsl #8
    1934:	05000200 	streq	r0, [r0, #-512]	; 0xfffffe00
    1938:	000005b0 			; <UNDEFINED> instruction: 0x000005b0
    193c:	d0031504 	andle	r1, r3, r4, lsl #10
    1940:	0c000000 	stceq	0, cr0, [r0], {-0}
    1944:	0000044b 	andeq	r0, r0, fp, asr #8
    1948:	33171d01 	tstcc	r7, #64	; 0x40
    194c:	1c000000 	stcne	0, cr0, [r0], {-0}
    1950:	0c202000 	stceq	0, cr2, [r0], #-0
    1954:	00000441 	andeq	r0, r0, r1, asr #8
    1958:	33171e01 	tstcc	r7, #1, 28
    195c:	28000000 	stmdacs	r0, {}	; <UNPREDICTABLE>
    1960:	0c202000 	stceq	0, cr2, [r0], #-0
    1964:	000005bc 			; <UNDEFINED> instruction: 0x000005bc
    1968:	33171f01 	tstcc	r7, #1, 30
    196c:	34000000 	strcc	r0, [r0], #-0
    1970:	0d202000 	stceq	0, cr2, [r0, #-0]
    1974:	00000470 	andeq	r0, r0, r0, ror r4
    1978:	25055501 	strcs	r5, [r5, #-1281]	; 0xfffffaff
    197c:	d4000000 	strle	r0, [r0], #-0
    1980:	34000085 	strcc	r0, [r0], #-133	; 0xffffff7b
    1984:	01000000 	mrseq	r0, (UNDEF: 0)
    1988:	0001bb9c 	muleq	r1, ip, fp
    198c:	69700e00 	ldmdbvs	r0!, {r9, sl, fp}^
    1990:	5501006e 	strpl	r0, [r1, #-110]	; 0xffffff92
    1994:	00002c18 	andeq	r2, r0, r8, lsl ip
    1998:	0003de00 	andeq	sp, r3, r0, lsl #28
    199c:	0003d600 	andeq	sp, r3, r0, lsl #12
    19a0:	060e0f00 	streq	r0, [lr], -r0, lsl #30
    19a4:	58010000 	stmdapl	r1, {}	; <UNPREDICTABLE>
    19a8:	00002c0e 	andeq	r2, r0, lr, lsl #24
    19ac:	00041e00 	andeq	r1, r4, r0, lsl #28
    19b0:	00041800 	andeq	r1, r4, r0, lsl #16
    19b4:	666f1000 	strbtvs	r1, [pc], -r0
    19b8:	59010066 	stmdbpl	r1, {r1, r2, r5, r6}
    19bc:	00002c0e 	andeq	r2, r0, lr, lsl #24
    19c0:	00045e00 	andeq	r5, r4, r0, lsl #28
    19c4:	00045c00 	andeq	r5, r4, r0, lsl #24
    19c8:	85f01100 	ldrbhi	r1, [r0, #256]!	; 0x100
    19cc:	03dd0000 	bicseq	r0, sp, #0, 0
    19d0:	01120000 	tsteq	r2, r0
    19d4:	01f30b50 	mvnseq	r0, r0, asr fp
    19d8:	23253550 			; <UNDEFINED> instruction: 0x23253550
    19dc:	818080b4 	strhhi	r8, [r0, r4]
    19e0:	13000002 	movwne	r0, #2
    19e4:	00000455 	andeq	r0, r0, r5, asr r4
    19e8:	b8064e01 	stmdalt	r6, {r0, r9, sl, fp, lr}
    19ec:	1c000085 	stcne	0, cr0, [r0], {133}	; 0x85
    19f0:	01000000 	mrseq	r0, (UNDEF: 0)
    19f4:	0002169c 	muleq	r2, ip, r6
    19f8:	69700e00 	ldmdbvs	r0!, {r9, sl, fp}^
    19fc:	4e01006e 	cdpmi	0, 0, cr0, cr1, cr14, {3}
    1a00:	00002c1a 	andeq	r2, r0, sl, lsl ip
    1a04:	00047900 	andeq	r7, r4, r0, lsl #18
    1a08:	00047100 	andeq	r7, r4, r0, lsl #2
    1a0c:	00760e00 	rsbseq	r0, r6, r0, lsl #28
    1a10:	2c284e01 	stccs	14, cr4, [r8], #-4
    1a14:	bb000000 	bllt	1a1c <__code_start__-0x65e4>
    1a18:	b3000004 	movwlt	r0, #4
    1a1c:	14000004 	strne	r0, [r0], #-4
    1a20:	000085c8 	andeq	r8, r0, r8, asr #11
    1a24:	0000029e 	muleq	r0, lr, r2
    1a28:	0000020c 	andeq	r0, r0, ip, lsl #4
    1a2c:	03500112 	cmpeq	r0, #-2147483644	; 0x80000004
    1a30:	005001f3 	ldrsheq	r0, [r0], #-19	; 0xffffffed
    1a34:	0085d015 	addeq	sp, r5, r5, lsl r0
    1a38:	00025700 	andeq	r5, r2, r0, lsl #14
    1a3c:	9d130000 	ldcls	0, cr0, [r3, #-0]
    1a40:	01000004 	tsteq	r0, r4
    1a44:	85a80649 	strhi	r0, [r8, #1609]!	; 0x649
    1a48:	00100000 	andseq	r0, r0, r0
    1a4c:	9c010000 	stcls	0, cr0, [r1], {-0}
    1a50:	00000257 	andeq	r0, r0, r7, asr r2
    1a54:	6e69700e 	cdpvs	0, 6, cr7, cr9, cr14, {0}
    1a58:	1e490100 	dvfnee	f0, f1, f0
    1a5c:	0000002c 	andeq	r0, r0, ip, lsr #32
    1a60:	000004f9 	strdeq	r0, [r0], -r9
    1a64:	000004f5 	strdeq	r0, [r0], -r5
    1a68:	0085b411 	addeq	fp, r5, r1, lsl r4
    1a6c:	00032600 	andeq	r2, r3, r0, lsl #12
    1a70:	50011200 	andpl	r1, r1, r0, lsl #4
    1a74:	5001f303 	andpl	pc, r1, r3, lsl #6
    1a78:	01510112 	cmpeq	r1, r2, lsl r1
    1a7c:	13000030 	movwne	r0, #48	; 0x30
    1a80:	000004ac 	andeq	r0, r0, ip, lsr #9
    1a84:	84064201 	strhi	r4, [r6], #-513	; 0xfffffdff
    1a88:	24000085 	strcs	r0, [r0], #-133	; 0xffffff7b
    1a8c:	01000000 	mrseq	r0, (UNDEF: 0)
    1a90:	00029e9c 	muleq	r2, ip, lr
    1a94:	69700e00 	ldmdbvs	r0!, {r9, sl, fp}^
    1a98:	4201006e 	andmi	r0, r1, #110, 0	; 0x6e
    1a9c:	00002c1c 	andeq	r2, r0, ip, lsl ip
    1aa0:	00051e00 	andeq	r1, r5, r0, lsl #28
    1aa4:	00051a00 	andeq	r1, r5, r0, lsl #20
    1aa8:	85a01100 	strhi	r1, [r0, #256]!	; 0x100
    1aac:	03e90000 	mvneq	r0, #0, 0
    1ab0:	01120000 	tsteq	r2, r0
    1ab4:	280c0550 	stmdacs	ip, {r4, r6, r8, sl}
    1ab8:	12202000 	eorne	r2, r0, #0, 0
    1abc:	31055101 	tstcc	r5, r1, lsl #2
    1ac0:	245001f3 	ldrbcs	r0, [r0], #-499	; 0xfffffe0d
    1ac4:	13130000 	tstne	r3, #0, 0
    1ac8:	01000006 	tsteq	r0, r6
    1acc:	8560063b 	strbhi	r0, [r0, #-1595]!	; 0xfffff9c5
    1ad0:	00240000 	eoreq	r0, r4, r0
    1ad4:	9c010000 	stcls	0, cr0, [r1], {-0}
    1ad8:	000002e5 	andeq	r0, r0, r5, ror #5
    1adc:	6e69700e 	cdpvs	0, 6, cr7, cr9, cr14, {0}
    1ae0:	1b3b0100 	blne	ec1ee8 <__bss_end__+0xeb8388>
    1ae4:	0000002c 	andeq	r0, r0, ip, lsr #32
    1ae8:	00000543 	andeq	r0, r0, r3, asr #10
    1aec:	0000053f 	andeq	r0, r0, pc, lsr r5
    1af0:	00857c11 	addeq	r7, r5, r1, lsl ip
    1af4:	0003e900 	andeq	lr, r3, r0, lsl #18
    1af8:	50011200 	andpl	r1, r1, r0, lsl #4
    1afc:	001c0c05 	andseq	r0, ip, r5, lsl #24
    1b00:	01122020 	tsteq	r2, r0, lsr #32
    1b04:	f3310551 	vqrshl.u64	q0, <illegal reg q0.5>, <illegal reg q0.5>
    1b08:	00245001 	eoreq	r5, r4, r1
    1b0c:	047a1300 	ldrbteq	r1, [sl], #-768	; 0xfffffd00
    1b10:	36010000 	strcc	r0, [r1], -r0
    1b14:	00855006 	addeq	r5, r5, r6
    1b18:	00001000 	andeq	r1, r0, r0
    1b1c:	269c0100 	ldrcs	r0, [ip], r0, lsl #2
    1b20:	0e000003 	cdpeq	0, 0, cr0, cr0, cr3, {0}
    1b24:	006e6970 	rsbeq	r6, lr, r0, ror r9
    1b28:	2c1f3601 	ldccs	6, cr3, [pc], {1}
    1b2c:	68000000 	stmdavs	r0, {}	; <UNPREDICTABLE>
    1b30:	64000005 	strvs	r0, [r0], #-5
    1b34:	11000005 	tstne	r0, r5
    1b38:	0000855c 	andeq	r8, r0, ip, asr r5
    1b3c:	00000326 	andeq	r0, r0, r6, lsr #6
    1b40:	03500112 	cmpeq	r0, #-2147483644	; 0x80000004
    1b44:	125001f3 	subsne	r0, r0, #-1073741764	; 0xc000003c
    1b48:	31015101 	tstcc	r1, r1, lsl #2
    1b4c:	f4130000 			; <UNDEFINED> instruction: 0xf4130000
    1b50:	01000003 	tsteq	r0, r3
    1b54:	84ec0628 	strbthi	r0, [ip], #1576	; 0x628
    1b58:	00640000 	rsbeq	r0, r4, r0
    1b5c:	9c010000 	stcls	0, cr0, [r1], {-0}
    1b60:	000003c1 	andeq	r0, r0, r1, asr #7
    1b64:	6e69700e 	cdpvs	0, 6, cr7, cr9, cr14, {0}
    1b68:	21280100 			; <UNDEFINED> instruction: 0x21280100
    1b6c:	0000002c 	andeq	r0, r0, ip, lsr #32
    1b70:	0000058d 	andeq	r0, r0, sp, lsl #11
    1b74:	00000589 	andeq	r0, r0, r9, lsl #11
    1b78:	0005ab16 	andeq	sl, r5, r6, lsl fp
    1b7c:	32280100 	eorcc	r0, r8, #0
    1b80:	0000010f 	andeq	r0, r0, pc, lsl #2
    1b84:	000005b2 			; <UNDEFINED> instruction: 0x000005b2
    1b88:	000005ae 	andeq	r0, r0, lr, lsr #11
    1b8c:	66666f10 	uqadd16vs	r6, r6, r0
    1b90:	0e2d0100 	sufeqe	f0, f5, f0
    1b94:	0000002c 	andeq	r0, r0, ip, lsr #32
    1b98:	000005d5 	ldrdeq	r0, [r0], -r5
    1b9c:	000005d3 	ldrdeq	r0, [r0], -r3
    1ba0:	01006710 	tsteq	r0, r0, lsl r7
    1ba4:	002c0e2e 	eoreq	r0, ip, lr, lsr #28
    1ba8:	05ea0000 	strbeq	r0, [sl, #0]!
    1bac:	05e80000 	strbeq	r0, [r8, #0]!
    1bb0:	76100000 	ldrvc	r0, [r0], -r0
    1bb4:	0e300100 	rsfeqs	f0, f0, f0
    1bb8:	0000002c 	andeq	r0, r0, ip, lsr #32
    1bbc:	00000605 	andeq	r0, r0, r5, lsl #12
    1bc0:	000005fd 	strdeq	r0, [r0], -sp
    1bc4:	00853414 	addeq	r3, r5, r4, lsl r4
    1bc8:	0003dd00 	andeq	sp, r3, r0, lsl #26
    1bcc:	0003b000 	andeq	fp, r3, r0
    1bd0:	50011200 	andpl	r1, r1, r0, lsl #4
    1bd4:	00007602 	andeq	r7, r0, r2, lsl #12
    1bd8:	00854811 	addeq	r4, r5, r1, lsl r8
    1bdc:	0003e900 	andeq	lr, r3, r0, lsl #18
    1be0:	50011200 	andpl	r1, r1, r0, lsl #4
    1be4:	00007602 	andeq	r7, r0, r2, lsl #12
    1be8:	04601700 	strbteq	r1, [r0], #-1792	; 0xfffff900
    1bec:	b6020000 	strlt	r0, [r2], -r0
    1bf0:	00006218 	andeq	r6, r0, r8, lsl r2
    1bf4:	03dd0300 	bicseq	r0, sp, #0, 6
    1bf8:	78180000 	ldmdavc	r8, {}	; <UNPREDICTABLE>
    1bfc:	2bb60200 	blcs	fed82404 <__bss_end__+0xfed788a4>
    1c00:	00000062 	andeq	r0, r0, r2, rrx
    1c04:	048a1900 	streq	r1, [sl], #2304	; 0x900
    1c08:	048a0000 	streq	r0, [sl], #0
    1c0c:	c7020000 	strgt	r0, [r2, -r0]
    1c10:	046a190a 	strbteq	r1, [sl], #-2314	; 0xfffff6f6
    1c14:	046a0000 	strbteq	r0, [sl], #-0
    1c18:	b2020000 	andlt	r0, r2, #0, 0
    1c1c:	019d0006 	orrseq	r0, sp, r6
    1c20:	00040000 	andeq	r0, r4, r0
    1c24:	00000786 	andeq	r0, r0, r6, lsl #15
    1c28:	04b90104 	ldrteq	r0, [r9], #260	; 0x104
    1c2c:	4c0c0000 	stcmi	0, cr0, [ip], {-0}
    1c30:	c6000006 	strgt	r0, [r0], -r6
    1c34:	08000005 	stmdaeq	r0, {r0, r2}
    1c38:	58000086 	stmdapl	r0, {r1, r2, r7}
    1c3c:	ef000000 	svc	0x00000000
    1c40:	0200000a 	andeq	r0, r0, #10, 0
    1c44:	0000062e 	andeq	r0, r0, lr, lsr #12
    1c48:	311b2802 	tstcc	fp, r2, lsl #16
    1c4c:	03000000 	movweq	r0, #0
    1c50:	0000063d 	andeq	r0, r0, sp, lsr r6
    1c54:	48000404 	stmdami	r0, {r2, sl}
    1c58:	04000000 	streq	r0, [r0], #-0
    1c5c:	00000647 	andeq	r0, r0, r7, asr #12
    1c60:	00000048 	andeq	r0, r0, r8, asr #32
    1c64:	04050000 	streq	r0, [r5], #-0
    1c68:	00063f02 	andeq	r3, r6, r2, lsl #30
    1c6c:	18630200 	stmdane	r3!, {r9}^
    1c70:	00000025 	andeq	r0, r0, r5, lsr #32
    1c74:	69050406 	stmdbvs	r5, {r1, r2, sl}
    1c78:	0700746e 	streq	r7, [r0, -lr, ror #8]
    1c7c:	01a20704 			; <UNDEFINED> instruction: 0x01a20704
    1c80:	01070000 	mrseq	r0, (UNDEF: 7)
    1c84:	00002406 	andeq	r2, r0, r6, lsl #8
    1c88:	05020700 	streq	r0, [r2, #-1792]	; 0xfffff900
    1c8c:	000001d1 	ldrdeq	r0, [r0], -r1
    1c90:	bc050407 	cfstrslt	mvf0, [r5], {7}
    1c94:	07000001 	streq	r0, [r0, -r1]
    1c98:	01b70508 			; <UNDEFINED> instruction: 0x01b70508
    1c9c:	01070000 	mrseq	r0, (UNDEF: 7)
    1ca0:	00002208 	andeq	r2, r0, r8, lsl #4
    1ca4:	07020700 	streq	r0, [r2, -r0, lsl #14]
    1ca8:	0000009c 	muleq	r0, ip, r0
    1cac:	9d070407 	cfstrsls	mvf0, [r7, #-28]	; 0xffffffe4
    1cb0:	07000001 	streq	r0, [r0, -r1]
    1cb4:	01980708 	orrseq	r0, r8, r8, lsl #14
    1cb8:	56080000 	strpl	r0, [r8], -r0
    1cbc:	ab000000 	blge	1cc4 <__code_start__-0x633c>
    1cc0:	09000000 	stmdbeq	r0, {}	; <UNPREDICTABLE>
    1cc4:	00000056 	andeq	r0, r0, r6, asr r0
    1cc8:	01c50a00 	biceq	r0, r5, r0, lsl #20
    1ccc:	1c030000 	stcne	0, cr0, [r3], {-0}
    1cd0:	0000b70e 	andeq	fp, r0, lr, lsl #14
    1cd4:	9c040b00 			; <UNDEFINED> instruction: 0x9c040b00
    1cd8:	08000000 	stmdaeq	r0, {}	; <UNPREDICTABLE>
    1cdc:	00000056 	andeq	r0, r0, r6, asr r0
    1ce0:	000000cc 	andeq	r0, r0, ip, asr #1
    1ce4:	0000cc09 	andeq	ip, r0, r9, lsl #24
    1ce8:	040b0000 	streq	r0, [fp], #-0
    1cec:	000000d9 	ldrdeq	r0, [r0], -r9
    1cf0:	2b080107 	blcs	202114 <__bss_end__+0x1f85b4>
    1cf4:	0c000000 	stceq	0, cr0, [r0], {-0}
    1cf8:	000000d2 	ldrdeq	r0, [r0], -r2
    1cfc:	00069e0a 	andeq	r9, r6, sl, lsl #28
    1d00:	0e210300 	cdpeq	3, 2, cr0, cr1, cr0, {0}
    1d04:	000000ea 	andeq	r0, r0, sl, ror #1
    1d08:	00bd040b 	adcseq	r0, sp, fp, lsl #8
    1d0c:	270d0000 	strcs	r0, [sp, -r0]
    1d10:	01000006 	tsteq	r0, r6
    1d14:	00560506 	subseq	r0, r6, r6, lsl #10
    1d18:	86080000 	strhi	r0, [r8], -r0
    1d1c:	00580000 	subseq	r0, r8, r0
    1d20:	9c010000 	stcls	0, cr0, [r1], {-0}
    1d24:	00000183 	andeq	r0, r0, r3, lsl #3
    1d28:	746d660e 	strbtvc	r6, [sp], #-1550	; 0xfffff9f2
    1d2c:	18060100 	stmdane	r6, {r8}
    1d30:	000000cc 	andeq	r0, r0, ip, asr #1
    1d34:	0f709102 	svceq	0x00709102
    1d38:	66756210 			; <UNDEFINED> instruction: 0x66756210
    1d3c:	11080100 	mrsne	r0, (UNDEF: 24)
    1d40:	00000183 	andeq	r0, r0, r3, lsl #3
    1d44:	975c0305 	ldrbls	r0, [ip, -r5, lsl #6]
    1d48:	1f110000 	svcne	0x00110000
    1d4c:	01000006 	tsteq	r0, r6
    1d50:	004a0d09 	subeq	r0, sl, r9, lsl #26
    1d54:	91020000 	mrsls	r0, (UNDEF: 2)
    1d58:	7a73125c 	bvc	1cc66d0 <__bss_end__+0x1cbcb70>
    1d5c:	0d0c0100 	stfeqs	f0, [ip, #-0]
    1d60:	00000056 	andeq	r0, r0, r6, asr r0
    1d64:	00000647 	andeq	r0, r0, r7, asr #12
    1d68:	00000641 	andeq	r0, r0, r1, asr #12
    1d6c:	00863013 	addeq	r3, r6, r3, lsl r0
    1d70:	00019400 	andeq	r9, r1, r0, lsl #8
    1d74:	00017600 	andeq	r7, r1, r0, lsl #12
    1d78:	50011400 	andpl	r1, r1, r0, lsl #8
    1d7c:	14007502 	strne	r7, [r0], #-1282	; 0xfffffafe
    1d80:	0a035101 	beq	d618c <__bss_end__+0xcc62c>
    1d84:	01140400 	tsteq	r4, r0, lsl #8
    1d88:	48910352 	ldmmi	r1, {r1, r4, r6, r8, r9}
    1d8c:	53011406 	movwpl	r1, #5126	; 0x1406
    1d90:	004c9102 	subeq	r9, ip, r2, lsl #2
    1d94:	00864415 	addeq	r4, r6, r5, lsl r4
    1d98:	50011400 	andpl	r1, r1, r0, lsl #8
    1d9c:	00007502 	andeq	r7, r0, r2, lsl #10
    1da0:	00d21600 	sbcseq	r1, r2, r0, lsl #12
    1da4:	01940000 	orrseq	r0, r4, r0
    1da8:	5d170000 	ldcpl	0, cr0, [r7, #-0]
    1dac:	ff000000 			; <UNDEFINED> instruction: 0xff000000
    1db0:	24180003 	ldrcs	r0, [r8], #-3
    1db4:	24000006 	strcs	r0, [r0], #-6
    1db8:	05000006 	streq	r0, [r0, #-6]
    1dbc:	49000502 	stmdbmi	r0, {r1, r8, sl}
    1dc0:	04000001 	streq	r0, [r0], #-1
    1dc4:	0008c800 	andeq	ip, r8, r0, lsl #16
    1dc8:	b9010400 	stmdblt	r1, {sl}
    1dcc:	0c000004 	stceq	0, cr0, [r0], {4}
    1dd0:	0000067a 	andeq	r0, r0, sl, ror r6
    1dd4:	000005c6 	andeq	r0, r0, r6, asr #11
    1dd8:	00008660 	andeq	r8, r0, r0, ror #12
    1ddc:	0000003c 	andeq	r0, r0, ip, lsr r0
    1de0:	00000c26 	andeq	r0, r0, r6, lsr #24
    1de4:	69050402 	stmdbvs	r5, {r1, sl}
    1de8:	0300746e 	movweq	r7, #1134	; 0x46e
    1dec:	01a20704 			; <UNDEFINED> instruction: 0x01a20704
    1df0:	01030000 	mrseq	r0, (UNDEF: 3)
    1df4:	00002406 	andeq	r2, r0, r6, lsl #8
    1df8:	05020300 	streq	r0, [r2, #-768]	; 0xfffffd00
    1dfc:	000001d1 	ldrdeq	r0, [r0], -r1
    1e00:	bc050403 	cfstrslt	mvf0, [r5], {3}
    1e04:	03000001 	movweq	r0, #1
    1e08:	01b70508 			; <UNDEFINED> instruction: 0x01b70508
    1e0c:	01030000 	mrseq	r0, (UNDEF: 3)
    1e10:	00002208 	andeq	r2, r0, r8, lsl #4
    1e14:	07020300 	streq	r0, [r2, -r0, lsl #6]
    1e18:	0000009c 	muleq	r0, ip, r0
    1e1c:	9d070403 	cfstrsls	mvf0, [r7, #-12]
    1e20:	03000001 	movweq	r0, #1
    1e24:	01980708 	orrseq	r0, r8, r8, lsl #14
    1e28:	25040000 	strcs	r0, [r4, #-0]
    1e2c:	7a000000 	bvc	1e34 <__code_start__-0x61cc>
    1e30:	05000000 	streq	r0, [r0, #-0]
    1e34:	00000025 	andeq	r0, r0, r5, lsr #32
    1e38:	01c50600 	biceq	r0, r5, r0, lsl #12
    1e3c:	1c020000 	stcne	0, cr0, [r2], {-0}
    1e40:	0000860e 	andeq	r8, r0, lr, lsl #12
    1e44:	6b040700 	blvs	103a4c <__bss_end__+0xf9eec>
    1e48:	04000000 	streq	r0, [r0], #-0
    1e4c:	00000025 	andeq	r0, r0, r5, lsr #32
    1e50:	0000009b 	muleq	r0, fp, r0
    1e54:	00009b05 	andeq	r9, r0, r5, lsl #22
    1e58:	04070000 	streq	r0, [r7], #-0
    1e5c:	000000a8 	andeq	r0, r0, r8, lsr #1
    1e60:	2b080103 	blcs	202274 <__bss_end__+0x1f8714>
    1e64:	08000000 	stmdaeq	r0, {}	; <UNPREDICTABLE>
    1e68:	000000a1 	andeq	r0, r0, r1, lsr #1
    1e6c:	00069e06 	andeq	r9, r6, r6, lsl #28
    1e70:	0e210200 	cdpeq	2, 2, cr0, cr1, cr0, {0}
    1e74:	000000b9 	strheq	r0, [r0], -r9
    1e78:	008c0407 	addeq	r0, ip, r7, lsl #8
    1e7c:	7a090000 	bvc	241e84 <__bss_end__+0x238324>
    1e80:	01000000 	mrseq	r0, (UNDEF: 0)
    1e84:	03050706 	movweq	r0, #22278	; 0x5706
    1e88:	00009754 	andeq	r9, r0, r4, asr r7
    1e8c:	00066d0a 	andeq	r6, r6, sl, lsl #26
    1e90:	060b0100 	streq	r0, [fp], -r0, lsl #2
    1e94:	0000868c 	andeq	r8, r0, ip, lsl #13
    1e98:	00000010 	andeq	r0, r0, r0, lsl r0
    1e9c:	00f19c01 	rscseq	r9, r1, r1, lsl #24
    1ea0:	660b0000 	strvs	r0, [fp], -r0
    1ea4:	0b010070 	bleq	4206c <__bss_end__+0x3850c>
    1ea8:	00008619 	andeq	r8, r0, r9, lsl r6
    1eac:	00500100 	subseq	r0, r0, r0, lsl #2
    1eb0:	0002790c 	andeq	r7, r2, ip, lsl #18
    1eb4:	06080100 	streq	r0, [r8], -r0, lsl #2
    1eb8:	00008674 	andeq	r8, r0, r4, ror r6
    1ebc:	00000018 	andeq	r0, r0, r8, lsl r0
    1ec0:	5c0d9c01 	stcpl	12, cr9, [sp], {1}
    1ec4:	01000006 	tsteq	r0, r6
    1ec8:	00250c03 	eoreq	r0, r5, r3, lsl #24
    1ecc:	86600000 	strbthi	r0, [r0], -r0
    1ed0:	00140000 	andseq	r0, r4, r0
    1ed4:	9c010000 	stcls	0, cr0, [r1], {-0}
    1ed8:	00000140 	andeq	r0, r0, r0, asr #2
    1edc:	0100630e 	tsteq	r0, lr, lsl #6
    1ee0:	00252103 	eoreq	r2, r5, r3, lsl #2
    1ee4:	06740000 	ldrbteq	r0, [r4], -r0
    1ee8:	06700000 	ldrbteq	r0, [r0], -r0
    1eec:	6c0f0000 	stcvs	0, cr0, [pc], {-0}
    1ef0:	40000086 	andmi	r0, r0, r6, lsl #1
    1ef4:	10000001 	andne	r0, r0, r1
    1ef8:	74025001 	strvc	r5, [r2], #-1
    1efc:	11000000 	mrsne	r0, (UNDEF: 0)
    1f00:	0000068b 	andeq	r0, r0, fp, lsl #13
    1f04:	0000068b 	andeq	r0, r0, fp, lsl #13
    1f08:	00064202 	andeq	r4, r6, r2, lsl #4
    1f0c:	000000f3 	strdeq	r0, [r0], -r3
    1f10:	09d70004 	ldmibeq	r7, {r2}^
    1f14:	01040000 	mrseq	r0, (UNDEF: 4)
    1f18:	000004b9 			; <UNDEFINED> instruction: 0x000004b9
    1f1c:	0006a30c 	andeq	sl, r6, ip, lsl #6
    1f20:	0005c600 	andeq	ip, r5, r0, lsl #12
    1f24:	00869c00 	addeq	r9, r6, r0, lsl #24
    1f28:	00003400 	andeq	r3, r0, r0, lsl #8
    1f2c:	000ce800 	andeq	lr, ip, r0, lsl #16
    1f30:	05040200 	streq	r0, [r4, #-512]	; 0xfffffe00
    1f34:	00746e69 	rsbseq	r6, r4, r9, ror #28
    1f38:	a2070403 	andge	r0, r7, #50331648	; 0x3000000
    1f3c:	03000001 	movweq	r0, #1
    1f40:	00240601 	eoreq	r0, r4, r1, lsl #12
    1f44:	02030000 	andeq	r0, r3, #0, 0
    1f48:	0001d105 	andeq	sp, r1, r5, lsl #2
    1f4c:	05040300 	streq	r0, [r4, #-768]	; 0xfffffd00
    1f50:	000001bc 			; <UNDEFINED> instruction: 0x000001bc
    1f54:	b7050803 	strlt	r0, [r5, -r3, lsl #16]
    1f58:	03000001 	movweq	r0, #1
    1f5c:	00220801 	eoreq	r0, r2, r1, lsl #16
    1f60:	02030000 	andeq	r0, r3, #0, 0
    1f64:	00009c07 	andeq	r9, r0, r7, lsl #24
    1f68:	07040300 	streq	r0, [r4, -r0, lsl #6]
    1f6c:	0000019d 	muleq	r0, sp, r1
    1f70:	98070803 	stmdals	r7, {r0, r1, fp}
    1f74:	04000001 	streq	r0, [r0], #-1
    1f78:	00000025 	andeq	r0, r0, r5, lsr #32
    1f7c:	0000007a 	andeq	r0, r0, sl, ror r0
    1f80:	00002505 	andeq	r2, r0, r5, lsl #10
    1f84:	c5060000 	strgt	r0, [r6, #-0]
    1f88:	02000001 	andeq	r0, r0, #1, 0
    1f8c:	00860e1c 	addeq	r0, r6, ip, lsl lr
    1f90:	04070000 	streq	r0, [r7], #-0
    1f94:	0000006b 	andeq	r0, r0, fp, rrx
    1f98:	00002504 	andeq	r2, r0, r4, lsl #10
    1f9c:	00009b00 	andeq	r9, r0, r0, lsl #22
    1fa0:	009b0500 	addseq	r0, fp, r0, lsl #10
    1fa4:	07000000 	streq	r0, [r0, -r0]
    1fa8:	0000a804 	andeq	sl, r0, r4, lsl #16
    1fac:	08010300 	stmdaeq	r1, {r8, r9}
    1fb0:	0000002b 	andeq	r0, r0, fp, lsr #32
    1fb4:	0000a108 	andeq	sl, r0, r8, lsl #2
    1fb8:	069e0600 	ldreq	r0, [lr], r0, lsl #12
    1fbc:	21020000 	mrscs	r0, (UNDEF: 2)
    1fc0:	0000b90e 	andeq	fp, r0, lr, lsl #18
    1fc4:	8c040700 	stchi	7, cr0, [r4], {-0}
    1fc8:	09000000 	stmdbeq	r0, {}	; <UNPREDICTABLE>
    1fcc:	000000ad 	andeq	r0, r0, sp, lsr #1
    1fd0:	05070c01 	streq	r0, [r7, #-3073]	; 0xfffff3ff
    1fd4:	00975803 	addseq	r5, r7, r3, lsl #16
    1fd8:	06950a00 	ldreq	r0, [r5], r0, lsl #20
    1fdc:	04010000 	streq	r0, [r1], #-0
    1fe0:	00002505 	andeq	r2, r0, r5, lsl #10
    1fe4:	00869c00 	addeq	r9, r6, r0, lsl #24
    1fe8:	00003400 	andeq	r3, r0, r0, lsl #8
    1fec:	0b9c0100 	bleq	fe7023f4 <__bss_end__+0xfe6f8894>
    1ff0:	04010070 	streq	r0, [r1], #-112	; 0xffffff90
    1ff4:	00009b1f 	andeq	r9, r0, pc, lsl fp
    1ff8:	00069600 	andeq	r9, r6, r0, lsl #12
    1ffc:	00069200 	andeq	r9, r6, r0, lsl #4
    2000:	45000000 	strmi	r0, [r0, #-0]
    2004:	0400000d 	streq	r0, [r0], #-13
    2008:	000a7500 	andeq	r7, sl, r0, lsl #10
    200c:	b9010400 	stmdblt	r1, {sl}
    2010:	0c000004 	stceq	0, cr0, [r0], {4}
    2014:	000006ce 	andeq	r0, r0, lr, asr #13
    2018:	000005c6 	andeq	r0, r0, r6, asr #11
    201c:	000086d0 	ldrdeq	r8, [r0], -r0
    2020:	000008c8 	andeq	r0, r0, r8, asr #17
    2024:	00000db7 			; <UNDEFINED> instruction: 0x00000db7
    2028:	94040802 	strls	r0, [r4], #-2050	; 0xfffff7fe
    202c:	03000007 	movweq	r0, #7
    2030:	6e690504 	cdpvs	5, 6, cr0, cr9, cr4, {0}
    2034:	04020074 	streq	r0, [r2], #-116	; 0xffffff8c
    2038:	0001a207 	andeq	sl, r1, r7, lsl #4
    203c:	00330400 	eorseq	r0, r3, r0, lsl #8
    2040:	01020000 	mrseq	r0, (UNDEF: 2)
    2044:	00002406 	andeq	r2, r0, r6, lsl #8
    2048:	05020200 	streq	r0, [r2, #-512]	; 0xfffffe00
    204c:	000001d1 	ldrdeq	r0, [r0], -r1
    2050:	bc050402 	cfstrslt	mvf0, [r5], {2}
    2054:	02000001 	andeq	r0, r0, #1, 0
    2058:	01b70508 			; <UNDEFINED> instruction: 0x01b70508
    205c:	01020000 	mrseq	r0, (UNDEF: 2)
    2060:	00002208 	andeq	r2, r0, r8, lsl #4
    2064:	07020200 	streq	r0, [r2, -r0, lsl #4]
    2068:	0000009c 	muleq	r0, ip, r0
    206c:	00039d05 	andeq	r9, r3, r5, lsl #26
    2070:	19340200 	ldmdbne	r4!, {r9}
    2074:	00000075 	andeq	r0, r0, r5, ror r0
    2078:	9d070402 	cfstrsls	mvf0, [r7, #-8]
    207c:	05000001 	streq	r0, [r0, #-1]
    2080:	000006c5 	andeq	r0, r0, r5, asr #13
    2084:	88193702 	ldmdahi	r9, {r1, r8, r9, sl, ip, sp}
    2088:	02000000 	andeq	r0, r0, #0, 0
    208c:	01980708 	orrseq	r0, r8, r8, lsl #14
    2090:	2c060000 	stccs	0, cr0, [r6], {-0}
    2094:	9e000000 	cdpls	0, 0, cr0, cr0, cr0, {0}
    2098:	07000000 	streq	r0, [r0, -r0]
    209c:	0000002c 	andeq	r0, r0, ip, lsr #32
    20a0:	01c50800 	biceq	r0, r5, r0, lsl #16
    20a4:	1c030000 	stcne	0, cr0, [r3], {-0}
    20a8:	0000aa0e 	andeq	sl, r0, lr, lsl #20
    20ac:	8f040900 	svchi	0x00040900
    20b0:	06000000 	streq	r0, [r0], -r0
    20b4:	0000002c 	andeq	r0, r0, ip, lsr #32
    20b8:	000000bf 	strheq	r0, [r0], -pc	; <UNPREDICTABLE>
    20bc:	0000bf07 	andeq	fp, r0, r7, lsl #30
    20c0:	04090000 	streq	r0, [r9], #-0
    20c4:	000000cc 	andeq	r0, r0, ip, asr #1
    20c8:	2b080102 	blcs	2024d8 <__bss_end__+0x1f8978>
    20cc:	04000000 	streq	r0, [r0], #-0
    20d0:	000000c5 	andeq	r0, r0, r5, asr #1
    20d4:	00069e08 	andeq	r9, r6, r8, lsl #28
    20d8:	0e210300 	cdpeq	3, 2, cr0, cr1, cr0, {0}
    20dc:	000000dd 	ldrdeq	r0, [r0], -sp
    20e0:	00b00409 	adcseq	r0, r0, r9, lsl #8
    20e4:	ea080000 	b	2020ec <__bss_end__+0x1f858c>
    20e8:	04000006 	streq	r0, [r0], #-6
    20ec:	00c50d0b 	sbceq	r0, r5, fp, lsl #26
    20f0:	7a080000 	bvc	2020f8 <__bss_end__+0x1f8598>
    20f4:	04000007 	streq	r0, [r0], #-7
    20f8:	00c50d0c 	sbceq	r0, r5, ip, lsl #26
    20fc:	f9080000 			; <UNDEFINED> instruction: 0xf9080000
    2100:	04000006 	streq	r0, [r0], #-6
    2104:	00c50d0d 	sbceq	r0, r5, sp, lsl #26
    2108:	32080000 	andcc	r0, r8, #0, 0
    210c:	04000007 	streq	r0, [r0], #-7
    2110:	00c50d0e 	sbceq	r0, r5, lr, lsl #26
    2114:	aa080000 	bge	20211c <__bss_end__+0x1f85bc>
    2118:	04000007 	streq	r0, [r0], #-7
    211c:	00c50d0f 	sbceq	r0, r5, pc, lsl #26
    2120:	1d080000 	stcne	0, cr0, [r8, #-0]
    2124:	04000007 	streq	r0, [r0], #-7
    2128:	00c50d10 	sbceq	r0, r5, r0, lsl sp
    212c:	b9080000 	stmdblt	r8, {}	; <UNPREDICTABLE>
    2130:	04000007 	streq	r0, [r0], #-7
    2134:	00c50d11 	sbceq	r0, r5, r1, lsl sp
    2138:	3e080000 	cdpcc	0, 0, cr0, cr8, cr0, {0}
    213c:	04000007 	streq	r0, [r0], #-7
    2140:	00c50d12 	sbceq	r0, r5, r2, lsl sp
    2144:	2e050000 	cdpcs	0, 0, cr0, cr5, cr0, {0}
    2148:	05000006 	streq	r0, [r0, #-6]
    214c:	014f1b28 	cmpeq	pc, r8, lsr #22
    2150:	3d0a0000 	stccc	0, cr0, [sl, #-0]
    2154:	04000006 	streq	r0, [r0], #-6
    2158:	01660006 	cmneq	r6, r6
    215c:	470b0000 	strmi	r0, [fp, -r0]
    2160:	66000006 	strvs	r0, [r0], -r6
    2164:	00000001 	andeq	r0, r0, r1
    2168:	05040c00 	streq	r0, [r4, #-3072]	; 0xfffff400
    216c:	0000063f 	andeq	r0, r0, pc, lsr r6
    2170:	43186305 	tstmi	r8, #335544320	; 0x14000000
    2174:	0d000001 	stceq	0, cr0, [r0, #-4]
    2178:	000007e1 	andeq	r0, r0, r1, ror #15
    217c:	08010301 	stmdaeq	r1, {r0, r8, r9}
    2180:	00000334 	andeq	r0, r0, r4, lsr r3
    2184:	000089c8 	andeq	r8, r0, r8, asr #19
    2188:	00000108 	andeq	r0, r0, r8, lsl #2
    218c:	03349c01 	teqeq	r4, #256	; 0x100
    2190:	6e0e0000 	cdpvs	0, 0, cr0, cr14, cr0, {0}
    2194:	01006d75 	tsteq	r0, r5, ror sp
    2198:	341b0103 	ldrcc	r0, [fp], #-259	; 0xfffffefd
    219c:	be000003 	cdplt	0, 0, cr0, cr0, cr3, {0}
    21a0:	b4000006 	strlt	r0, [r0], #-6
    21a4:	0e000006 	cdpeq	0, 0, cr0, cr0, cr6, {0}
    21a8:	03010064 	movweq	r0, #4196	; 0x1064
    21ac:	00252701 	eoreq	r2, r5, r1, lsl #14
    21b0:	07050000 	streq	r0, [r5, -r0]
    21b4:	06fd0000 	ldrbteq	r0, [sp], r0
    21b8:	070f0000 	streq	r0, [pc, -r0]
    21bc:	01000007 	tsteq	r0, r7
    21c0:	33330103 	teqcc	r3, #-1073741824	; 0xc0000000
    21c4:	5f000000 	svcpl	0x00000000
    21c8:	55000007 	strpl	r0, [r0, #-7]
    21cc:	10000007 	andne	r0, r0, r7
    21d0:	04010070 	streq	r0, [r1], #-112	; 0xffffff90
    21d4:	03340801 	teqeq	r4, #65536	; 0x10000
    21d8:	07ab0000 	streq	r0, [fp, r0]!
    21dc:	07a10000 	streq	r0, [r1, r0]!
    21e0:	b8110000 	ldmdalt	r1, {}	; <UNPREDICTABLE>
    21e4:	01000006 	tsteq	r0, r6
    21e8:	330b010c 	movwcc	r0, #45324	; 0xb10c
    21ec:	f2000000 	vhadd.s8	d0, d0, d0
    21f0:	ec000007 	stc	0, cr0, [r0], {7}
    21f4:	11000007 	tstne	r0, r7
    21f8:	00000714 	andeq	r0, r0, r4, lsl r7
    21fc:	06010d01 	streq	r0, [r1], -r1, lsl #26
    2200:	0000002c 	andeq	r0, r0, ip, lsr #32
    2204:	0000081f 	andeq	r0, r0, pc, lsl r8
    2208:	0000081b 	andeq	r0, r0, fp, lsl r8
    220c:	706d7412 	rsbvc	r7, sp, r2, lsl r4
    2210:	010f0100 	mrseq	r0, (UNDEF: 31)
    2214:	00033a07 	andeq	r3, r3, r7, lsl #20
    2218:	e0910300 	adds	r0, r1, r0, lsl #6
    221c:	06e1117e 			; <UNDEFINED> instruction: 0x06e1117e
    2220:	15010000 	strne	r0, [r1, #-0]
    2224:	003a1101 	eorseq	r1, sl, r1, lsl #2
    2228:	08410000 	stmdaeq	r1, {}^	; <UNPREDICTABLE>
    222c:	083d0000 	ldmdaeq	sp!, {}	; <UNPREDICTABLE>
    2230:	00130000 	andseq	r0, r3, r0
    2234:	4c000000 	stcmi	0, cr0, [r0], {-0}
    2238:	10000002 	andne	r0, r0, r2
    223c:	19010069 	stmdbne	r1, {r0, r3, r5, r6}
    2240:	002c0a01 	eoreq	r0, ip, r1, lsl #20
    2244:	08650000 	stmdaeq	r5!, {}^	; <UNPREDICTABLE>
    2248:	08610000 	stmdaeq	r1!, {}^	; <UNPREDICTABLE>
    224c:	14000000 	strne	r0, [r0], #-0
    2250:	00008a00 	andeq	r8, r0, r0, lsl #20
    2254:	00000391 	muleq	r0, r1, r3
    2258:	00000268 	andeq	r0, r0, r8, ror #4
    225c:	40900815 	addsmi	r0, r0, r5, lsl r8
    2260:	41900493 			; <UNDEFINED> instruction: 0x41900493
    2264:	f5030493 			; <UNDEFINED> instruction: 0xf5030493
    2268:	14002550 	strne	r2, [r0], #-1360	; 0xfffffab0
    226c:	00008a0c 	andeq	r8, r0, ip, lsl #20
    2270:	0000034a 	andeq	r0, r0, sl, asr #6
    2274:	00000284 	andeq	r0, r0, r4, lsl #5
    2278:	40900815 	addsmi	r0, r0, r5, lsl r8
    227c:	41900493 			; <UNDEFINED> instruction: 0x41900493
    2280:	f5030493 			; <UNDEFINED> instruction: 0xf5030493
    2284:	14002550 	strne	r2, [r0], #-1360	; 0xfffffab0
    2288:	00008a2c 	andeq	r8, r0, ip, lsr #20
    228c:	000009b0 			; <UNDEFINED> instruction: 0x000009b0
    2290:	000002b1 			; <UNDEFINED> instruction: 0x000002b1
    2294:	01500115 	cmpeq	r0, r5, lsl r1
    2298:	5101153a 	tstpl	r1, sl, lsr r5
    229c:	7ed89103 	atnvce	f1, f3
    22a0:	02520115 	subseq	r0, r2, #1073741829	; 0x40000005
    22a4:	02158008 	andseq	r8, r5, #8, 0
    22a8:	7802007d 	stmdavc	r2, {r0, r2, r3, r4, r5, r6}
    22ac:	7d021500 	cfstr32vc	mvfx1, [r2, #-0]
    22b0:	00310104 	eorseq	r0, r1, r4, lsl #2
    22b4:	008a3814 	addeq	r3, sl, r4, lsl r8
    22b8:	000d0000 	andeq	r0, sp, r0
    22bc:	0002cc00 	andeq	ip, r2, r0, lsl #24
    22c0:	50011500 	andpl	r1, r1, r0, lsl #10
    22c4:	15007502 	strne	r7, [r0, #-1282]	; 0xfffffafe
    22c8:	91035101 	tstls	r3, r1, lsl #2
    22cc:	14007ed8 	strne	r7, [r0], #-3800	; 0xfffff128
    22d0:	00008a44 	andeq	r8, r0, r4, asr #20
    22d4:	00000d00 	andeq	r0, r0, r0, lsl #26
    22d8:	000002e9 	andeq	r0, r0, r9, ror #5
    22dc:	02500115 	subseq	r0, r0, #1073741829	; 0x40000005
    22e0:	01150075 	tsteq	r5, r5, ror r0
    22e4:	48030551 	stmdami	r3, {r0, r4, r6, r8, sl}
    22e8:	00000096 	muleq	r0, r6, r0
    22ec:	008a6414 	addeq	r6, sl, r4, lsl r4
    22f0:	0009b000 	andeq	fp, r9, r0
    22f4:	00031c00 	andeq	r1, r3, r0, lsl #24
    22f8:	50011500 	andpl	r1, r1, r0, lsl #10
    22fc:	01153a01 	tsteq	r5, r1, lsl #20
    2300:	d8910351 	ldmle	r1, {r0, r4, r6, r8, r9}
    2304:	5201157e 	andpl	r1, r1, #528482304	; 0x1f800000
    2308:	15800802 	strne	r0, [r0, #2050]	; 0x802
    230c:	77025301 	strvc	r5, [r2, -r1, lsl #6]
    2310:	7d021500 	cfstr32vc	mvfx1, [r2, #-0]
    2314:	15340100 	ldrne	r0, [r4, #-256]!	; 0xffffff00
    2318:	02047d02 	andeq	r7, r4, #128	; 0x80
    231c:	16000074 			; <UNDEFINED> instruction: 0x16000074
    2320:	00008abc 			; <UNDEFINED> instruction: 0x00008abc
    2324:	00000d00 	andeq	r0, r0, r0, lsl #26
    2328:	02500115 	subseq	r0, r0, #1073741829	; 0x40000005
    232c:	01150075 	tsteq	r5, r5, ror r0
    2330:	d8910351 	ldmle	r1, {r0, r4, r6, r8, r9}
    2334:	0900007e 	stmdbeq	r0, {r1, r2, r3, r4, r5, r6}
    2338:	0000c504 	andeq	ip, r0, r4, lsl #10
    233c:	00c51700 	sbceq	r1, r5, r0, lsl #14
    2340:	034a0000 	movteq	r0, #40960	; 0xa000
    2344:	33180000 	tstcc	r8, #0, 0
    2348:	7f000000 	svcvc	0x00000000
    234c:	070d1900 	streq	r1, [sp, -r0, lsl #18]
    2350:	fe010000 	cdp2	0, 0, cr0, cr1, cr0, {0}
    2354:	00004d0d 	andeq	r4, r0, sp, lsl #26
    2358:	0087a400 	addeq	sl, r7, r0, lsl #8
    235c:	00000c00 	andeq	r0, r0, r0, lsl #24
    2360:	919c0100 	orrsls	r0, ip, r0, lsl #2
    2364:	1a000003 	bne	2378 <__code_start__-0x5c88>
    2368:	fe010064 	cdp2	0, 0, cr0, cr1, cr4, {3}
    236c:	00002524 	andeq	r2, r0, r4, lsr #10
    2370:	00088800 	andeq	r8, r8, r0, lsl #16
    2374:	00088400 	andeq	r8, r8, r0, lsl #8
    2378:	87ac1600 	strhi	r1, [ip, r0, lsl #12]!
    237c:	03c70000 	biceq	r0, r7, #0, 0
    2380:	08150000 	ldmdaeq	r5, {}	; <UNPREDICTABLE>
    2384:	04934090 	ldreq	r4, [r3], #144	; 0x90
    2388:	04934190 	ldreq	r4, [r3], #400	; 0x190
    238c:	f503f305 			; <UNDEFINED> instruction: 0xf503f305
    2390:	00002540 	andeq	r2, r0, r0, asr #10
    2394:	0006b119 	andeq	fp, r6, r9, lsl r1
    2398:	11f70100 	mvnsne	r0, r0, lsl #2
    239c:	00000033 	andeq	r0, r0, r3, lsr r0
    23a0:	0000874c 	andeq	r8, r0, ip, asr #14
    23a4:	00000058 	andeq	r0, r0, r8, asr r0
    23a8:	03c79c01 	biceq	r9, r7, #256	; 0x100
    23ac:	641a0000 	ldrvs	r0, [sl], #-0
    23b0:	24f70100 	ldrbtcs	r0, [r7], #256	; 0x100
    23b4:	00000025 	andeq	r0, r0, r5, lsr #32
    23b8:	000008b6 			; <UNDEFINED> instruction: 0x000008b6
    23bc:	000008b2 			; <UNDEFINED> instruction: 0x000008b2
    23c0:	0087681b 	addeq	r6, r7, fp, lsl r8
    23c4:	0003c700 	andeq	ip, r3, r0, lsl #14
    23c8:	ee190000 	cdp	0, 1, cr0, cr9, cr0, {0}
    23cc:	01000007 	tsteq	r0, r7
    23d0:	004d0df3 	strdeq	r0, [sp], #-211	; 0xffffff2d
    23d4:	87400000 	strbhi	r0, [r0, -r0]
    23d8:	000c0000 	andeq	r0, ip, r0
    23dc:	9c010000 	stcls	0, cr0, [r1], {-0}
    23e0:	000003f5 	strdeq	r0, [r0], -r5
    23e4:	0100641c 	tsteq	r0, ip, lsl r4
    23e8:	00251af3 	strdeq	r1, [r5], -r3	; <UNPREDICTABLE>
    23ec:	90080000 	andls	r0, r8, r0
    23f0:	90049340 	andls	r9, r4, r0, asr #6
    23f4:	00049341 	andeq	r9, r4, r1, asr #6
    23f8:	0006241d 	andeq	r2, r6, sp, lsl r4
    23fc:	05810100 	streq	r0, [r1, #256]	; 0x100
    2400:	0000002c 	andeq	r0, r0, ip, lsr #32
    2404:	00008ad0 	ldrdeq	r8, [r0], -r0
    2408:	000004c8 	andeq	r0, r0, r8, asr #9
    240c:	099b9c01 	ldmibeq	fp, {r0, sl, fp, ip, pc}
    2410:	621a0000 	andsvs	r0, sl, #0, 0
    2414:	01006675 	tsteq	r0, r5, ror r6
    2418:	03341581 	teqeq	r4, #541065216	; 0x20400000
    241c:	08e80000 	stmiaeq	r8!, {}^	; <UNPREDICTABLE>
    2420:	08e20000 	stmiaeq	r2!, {}^	; <UNPREDICTABLE>
    2424:	6e1a0000 	cdpvs	0, 1, cr0, cr10, cr0, {0}
    2428:	1e810100 	rmfnes	f0, f1, f0
    242c:	0000002c 	andeq	r0, r0, ip, lsr #32
    2430:	0000091a 	andeq	r0, r0, sl, lsl r9
    2434:	00000914 	andeq	r0, r0, r4, lsl r9
    2438:	746d661a 	strbtvc	r6, [sp], #-1562	; 0xfffff9e6
    243c:	2d810100 	stfcss	f0, [r1]
    2440:	000000bf 	strheq	r0, [r0], -pc	; <UNPREDICTABLE>
    2444:	00000954 	andeq	r0, r0, r4, asr r9
    2448:	00000948 	andeq	r0, r0, r8, asr #18
    244c:	00061f1e 	andeq	r1, r6, lr, lsl pc
    2450:	3a810100 	bcc	fe042858 <__bss_end__+0xfe038cf8>
    2454:	00000168 	andeq	r0, r0, r8, ror #2
    2458:	7dd49103 	ldfvcp	f1, [r4, #12]
    245c:	0100701f 	tsteq	r0, pc, lsl r0
    2460:	03340882 	teqeq	r4, #8519680	; 0x820000
    2464:	09b20000 	ldmibeq	r2!, {}	; <UNPREDICTABLE>
    2468:	099e0000 	ldmibeq	lr, {}	; <UNPREDICTABLE>
    246c:	651f0000 	ldrvs	r0, [pc, #-0]	; 2474 <__code_start__-0x5b8c>
    2470:	12820100 	addne	r0, r2, #0
    2474:	00000334 	andeq	r0, r0, r4, lsr r3
    2478:	00000a34 	andeq	r0, r0, r4, lsr sl
    247c:	00000a30 	andeq	r0, r0, r0, lsr sl
    2480:	0030781f 	eorseq	r7, r0, pc, lsl r8
    2484:	690e8301 	stmdbvs	lr, {r0, r8, r9, pc}
    2488:	61000000 	mrsvs	r0, (UNDEF: 0)
    248c:	5b00000a 	blpl	24bc <__code_start__-0x5b44>
    2490:	1f00000a 	svcne	0x0000000a
    2494:	01003178 	tsteq	r0, r8, ror r1
    2498:	00691183 	rsbeq	r1, r9, r3, lsl #3
    249c:	0a8e0000 	beq	fe3824a4 <__bss_end__+0xfe378944>
    24a0:	0a8a0000 	beq	fe2824a8 <__bss_end__+0xfe278948>
    24a4:	5c200000 	stcpl	0, cr0, [r0], #-0
    24a8:	01000007 	tsteq	r0, r7
    24ac:	00bf1186 	adcseq	r1, pc, r6, lsl #3
    24b0:	0ab00000 	beq	fec024b8 <__bss_end__+0xfebf8958>
    24b4:	0aac0000 	beq	feb024bc <__bss_end__+0xfeaf895c>
    24b8:	19210000 	stmdbne	r1!, {}	; <UNPREDICTABLE>
    24bc:	ab000002 	blge	24cc <__code_start__-0x5b34>
    24c0:	05000009 	streq	r0, [r0, #-9]
    24c4:	00973c03 	addseq	r3, r7, r3, lsl #24
    24c8:	8b382200 	blhi	e0acd0 <__bss_end__+0xe01170>
    24cc:	04140000 	ldreq	r0, [r4], #-0
    24d0:	731f0000 	tstvc	pc, #0, 0
    24d4:	0a910100 	beq	fe4428dc <__bss_end__+0xfe438d7c>
    24d8:	00000334 	andeq	r0, r0, r4, lsr r3
    24dc:	00000ae8 	andeq	r0, r0, r8, ror #21
    24e0:	00000ad0 	ldrdeq	r0, [r0], -r0	; <UNPREDICTABLE>
    24e4:	6d756e23 	ldclvs	14, cr6, [r5, #-140]!	; 0xffffff74
    24e8:	0d910100 	ldfeqs	f0, [r1]
    24ec:	0000033a 	andeq	r0, r0, sl, lsr r3
    24f0:	7dd89103 	ldfvcp	f1, [r8, #12]
    24f4:	0007c624 	andeq	ip, r7, r4, lsr #12
    24f8:	17910100 	ldrne	r0, [r1, r0, lsl #2]
    24fc:	0000033a 	andeq	r0, r0, sl, lsr r3
    2500:	7ed89103 	atnvce	f1, f3
    2504:	00070720 	andeq	r0, r7, r0, lsr #14
    2508:	0d920100 	ldfeqs	f0, [r2]
    250c:	00000033 	andeq	r0, r0, r3, lsr r0
    2510:	00000b7a 	andeq	r0, r0, sl, ror fp
    2514:	00000b74 	andeq	r0, r0, r4, ror fp
    2518:	008c0025 	addeq	r0, ip, r5, lsr #32
    251c:	0001a400 	andeq	sl, r1, r0, lsl #8
    2520:	0007c600 	andeq	ip, r7, r0, lsl #12
    2524:	79741f00 	ldmdbvc	r4!, {r8, r9, sl, fp, ip}^
    2528:	1d9e0100 	ldfnes	f0, [lr]
    252c:	000000bf 	strheq	r0, [r0], -pc	; <UNPREDICTABLE>
    2530:	00000bae 	andeq	r0, r0, lr, lsr #23
    2534:	00000ba4 	andeq	r0, r0, r4, lsr #23
    2538:	00787826 	rsbseq	r7, r8, r6, lsr #16
    253c:	7c1aa201 	lfmvc	f2, 1, [sl], {1}
    2540:	14000000 	strne	r0, [r0], #-0
    2544:	00008c10 	andeq	r8, r0, r0, lsl ip
    2548:	00000d0c 	andeq	r0, r0, ip, lsl #26
    254c:	00000562 	andeq	r0, r0, r2, ror #10
    2550:	02500115 	subseq	r0, r0, #1073741829	; 0x40000005
    2554:	01150076 	tsteq	r5, r6, ror r0
    2558:	58030551 	stmdapl	r3, {r0, r4, r6, r8, sl}
    255c:	15000096 	strne	r0, [r0, #-150]	; 0xffffff6a
    2560:	33015201 	movwcc	r5, #4609	; 0x1201
    2564:	8c281400 	cfstrshi	mvf1, [r8], #-0
    2568:	0d0c0000 	stceq	0, cr0, [ip, #-0]
    256c:	05840000 	streq	r0, [r4]
    2570:	01150000 	tsteq	r5, r0
    2574:	00760250 	rsbseq	r0, r6, r0, asr r2
    2578:	05510115 	ldrbeq	r0, [r1, #-277]	; 0xfffffeeb
    257c:	00965c03 	addseq	r5, r6, r3, lsl #24
    2580:	52011500 	andpl	r1, r1, #0, 10
    2584:	14003301 	strne	r3, [r0], #-769	; 0xfffffcff
    2588:	00008c5c 	andeq	r8, r0, ip, asr ip
    258c:	00000d18 	andeq	r0, r0, r8, lsl sp
    2590:	000005a1 	andeq	r0, r0, r1, lsr #11
    2594:	05500115 	ldrbeq	r0, [r0, #-277]	; 0xfffffeeb
    2598:	00966003 	addseq	r6, r6, r3
    259c:	51011500 	tstpl	r1, r0, lsl #10
    25a0:	00007702 	andeq	r7, r0, r2, lsl #14
    25a4:	008c6814 	addeq	r6, ip, r4, lsl r8
    25a8:	000d1800 	andeq	r1, sp, r0, lsl #16
    25ac:	0005be00 	andeq	fp, r5, r0, lsl #28
    25b0:	50011500 	andpl	r1, r1, r0, lsl #10
    25b4:	96680305 	strbtls	r0, [r8], -r5, lsl #6
    25b8:	01150000 	tsteq	r5, r0
    25bc:	007a0251 	rsbseq	r0, sl, r1, asr r2
    25c0:	8c781400 	cfldrdhi	mvd1, [r8], #-0
    25c4:	0d0c0000 	stceq	0, cr0, [ip, #-0]
    25c8:	05e00000 	strbeq	r0, [r0, #0]!
    25cc:	01150000 	tsteq	r5, r0
    25d0:	00760250 	rsbseq	r0, r6, r0, asr r2
    25d4:	05510115 	ldrbeq	r0, [r1, #-277]	; 0xfffffeeb
    25d8:	00965803 	addseq	r5, r6, r3, lsl #16
    25dc:	52011500 	andpl	r1, r1, #0, 10
    25e0:	14003301 	strne	r3, [r0], #-769	; 0xfffffcff
    25e4:	00008c90 	muleq	r0, r0, ip
    25e8:	00000d0c 	andeq	r0, r0, ip, lsl #26
    25ec:	00000602 	andeq	r0, r0, r2, lsl #12
    25f0:	02500115 	subseq	r0, r0, #1073741829	; 0x40000005
    25f4:	01150076 	tsteq	r5, r6, ror r0
    25f8:	5c030551 	cfstr32pl	mvfx0, [r3], {81}	; 0x51
    25fc:	15000096 	strne	r0, [r0, #-150]	; 0xffffff6a
    2600:	33015201 	movwcc	r5, #4609	; 0x1201
    2604:	8cb81400 	cfldrshi	mvf1, [r8]
    2608:	09b00000 	ldmibeq	r0!, {}	; <UNPREDICTABLE>
    260c:	06360000 	ldrteq	r0, [r6], -r0
    2610:	01150000 	tsteq	r5, r0
    2614:	153a0150 	ldrne	r0, [sl, #-336]!	; 0xfffffeb0
    2618:	91035101 	tstls	r3, r1, lsl #2
    261c:	01157dd0 			; <UNDEFINED> instruction: 0x01157dd0
    2620:	80080252 	andhi	r0, r8, r2, asr r2
    2624:	02530115 	subseq	r0, r3, #1073741829	; 0x40000005
    2628:	02150077 	andseq	r0, r5, #119, 0	; 0x77
    262c:	7502007d 	strvc	r0, [r2, #-125]	; 0xffffff83
    2630:	7d021500 	cfstr32vc	mvfx1, [r2, #-0]
    2634:	00760204 	rsbseq	r0, r6, r4, lsl #4
    2638:	8cd81400 	cfldrdhi	mvd1, [r8], {0}
    263c:	09b00000 	ldmibeq	r0!, {}	; <UNPREDICTABLE>
    2640:	066a0000 	strbteq	r0, [sl], -r0
    2644:	01150000 	tsteq	r5, r0
    2648:	153a0150 	ldrne	r0, [sl, #-336]!	; 0xfffffeb0
    264c:	91035101 	tstls	r3, r1, lsl #2
    2650:	01157ed0 			; <UNDEFINED> instruction: 0x01157ed0
    2654:	80080252 	andhi	r0, r8, r2, asr r2
    2658:	02530115 	subseq	r0, r3, #1073741829	; 0x40000005
    265c:	0215007a 	andseq	r0, r5, #122, 0	; 0x7a
    2660:	7502007d 	strvc	r0, [r2, #-125]	; 0xffffff83
    2664:	7d021500 	cfstr32vc	mvfx1, [r2, #-0]
    2668:	00760204 	rsbseq	r0, r6, r4, lsl #4
    266c:	8ce41400 	cfstrdhi	mvd1, [r4]
    2670:	0d240000 	stceq	0, cr0, [r4, #-0]
    2674:	06880000 	streq	r0, [r8], r0
    2678:	01150000 	tsteq	r5, r0
    267c:	d0910350 	addsle	r0, r1, r0, asr r3
    2680:	5101157d 	tstpl	r1, sp, ror r5
    2684:	96180305 	ldrls	r0, [r8], -r5, lsl #6
    2688:	14000000 	strne	r0, [r0], #-0
    268c:	00008cf8 	strdeq	r8, [r0], -r8	; <UNPREDICTABLE>
    2690:	00000d30 	andeq	r0, r0, r0, lsr sp
    2694:	000006a4 	andeq	r0, r0, r4, lsr #13
    2698:	03500115 	cmpeq	r0, #1073741829	; 0x40000005
    269c:	157dd091 	ldrbne	sp, [sp, #-145]!	; 0xffffff6f
    26a0:	91035101 	tstls	r3, r1, lsl #2
    26a4:	14007ed0 	strne	r7, [r0], #-3792	; 0xfffff130
    26a8:	00008d1c 	andeq	r8, r0, ip, lsl sp
    26ac:	00000d18 	andeq	r0, r0, r8, lsl sp
    26b0:	000006dd 	ldrdeq	r0, [r0], -sp
    26b4:	05500115 	ldrbeq	r0, [r0, #-277]	; 0xfffffeeb
    26b8:	00960403 	addseq	r0, r6, r3, lsl #8
    26bc:	51011500 	tstpl	r1, r0, lsl #10
    26c0:	95f00305 	ldrbls	r0, [r0, #773]!	; 0x305
    26c4:	01150000 	tsteq	r5, r0
    26c8:	3c030552 	cfstr32cc	mvfx0, [r3], {82}	; 0x52
    26cc:	15000097 	strne	r0, [r0, #-151]	; 0xffffff69
    26d0:	08025301 	stmdaeq	r2, {r0, r8, r9, ip, lr}
    26d4:	7d02159f 	cfstr32vc	mvfx1, [r2, #-636]	; 0xfffffd84
    26d8:	70030500 	andvc	r0, r3, r0, lsl #10
    26dc:	00000096 	muleq	r0, r6, r0
    26e0:	008d201b 	addeq	r2, sp, fp, lsl r0
    26e4:	000d3c00 	andeq	r3, sp, r0, lsl #24
    26e8:	8d401400 	cfstrdhi	mvd1, [r0, #-0]
    26ec:	09b00000 	ldmibeq	r0!, {}	; <UNPREDICTABLE>
    26f0:	071a0000 	ldreq	r0, [sl, -r0]
    26f4:	01150000 	tsteq	r5, r0
    26f8:	15400150 	strbne	r0, [r0, #-336]	; 0xfffffeb0
    26fc:	91035101 	tstls	r3, r1, lsl #2
    2700:	01157dd0 			; <UNDEFINED> instruction: 0x01157dd0
    2704:	80080252 	andhi	r0, r8, r2, asr r2
    2708:	02530115 	subseq	r0, r3, #1073741829	; 0x40000005
    270c:	02150077 	andseq	r0, r5, #119, 0	; 0x77
    2710:	7502007d 	strvc	r0, [r2, #-125]	; 0xffffff83
    2714:	7d021500 	cfstr32vc	mvfx1, [r2, #-0]
    2718:	00760204 	rsbseq	r0, r6, r4, lsl #4
    271c:	8d601400 	cfstrdhi	mvd1, [r0, #-0]
    2720:	09b00000 	ldmibeq	r0!, {}	; <UNPREDICTABLE>
    2724:	074e0000 	strbeq	r0, [lr, -r0]
    2728:	01150000 	tsteq	r5, r0
    272c:	15400150 	strbne	r0, [r0, #-336]	; 0xfffffeb0
    2730:	91035101 	tstls	r3, r1, lsl #2
    2734:	01157ed0 			; <UNDEFINED> instruction: 0x01157ed0
    2738:	80080252 	andhi	r0, r8, r2, asr r2
    273c:	02530115 	subseq	r0, r3, #1073741829	; 0x40000005
    2740:	0215007a 	andseq	r0, r5, #122, 0	; 0x7a
    2744:	7502007d 	strvc	r0, [r2, #-125]	; 0xffffff83
    2748:	7d021500 	cfstr32vc	mvfx1, [r2, #-0]
    274c:	00760204 	rsbseq	r0, r6, r4, lsl #4
    2750:	8d6c1400 	cfstrdhi	mvd1, [ip, #-0]
    2754:	0d000000 	stceq	0, cr0, [r0, #-0]
    2758:	076a0000 	strbeq	r0, [sl, -r0]!
    275c:	01150000 	tsteq	r5, r0
    2760:	d0910350 	addsle	r0, r1, r0, asr r3
    2764:	5101157d 	tstpl	r1, sp, ror r5
    2768:	7ed29103 	atnvcs	f1, f3
    276c:	8d801400 	cfstrshi	mvf1, [r0]
    2770:	0d000000 	stceq	0, cr0, [r0, #-0]
    2774:	07860000 	streq	r0, [r6, r0]
    2778:	01150000 	tsteq	r5, r0
    277c:	d0910350 	addsle	r0, r1, r0, asr r3
    2780:	5101157d 	tstpl	r1, sp, ror r5
    2784:	7ed09103 	atnvcs	f1, f3
    2788:	8da01400 	cfstrshi	mvf1, [r0]
    278c:	0d180000 	ldceq	0, cr0, [r8, #-0]
    2790:	07bc0000 	ldreq	r0, [ip, r0]!
    2794:	01150000 	tsteq	r5, r0
    2798:	ac030550 	cfstr32ge	mvfx0, [r3], {80}	; 0x50
    279c:	15000096 	strne	r0, [r0, #-150]	; 0xffffff6a
    27a0:	03055101 	movweq	r5, #20737	; 0x5101
    27a4:	000095f0 	strdeq	r9, [r0], -r0
    27a8:	05520115 	ldrbeq	r0, [r2, #-277]	; 0xfffffeeb
    27ac:	00973c03 	addseq	r3, r7, r3, lsl #24
    27b0:	53011500 	movwpl	r1, #5376	; 0x1500
    27b4:	15b60802 	ldrne	r0, [r6, #2050]!	; 0x802
    27b8:	02007d02 	andeq	r7, r0, #128	; 0x80
    27bc:	1b000076 	blne	299c <__code_start__-0x5664>
    27c0:	00008da4 	andeq	r8, r0, r4, lsr #27
    27c4:	00000d3c 	andeq	r0, r0, ip, lsr sp
    27c8:	8da42500 	cfstr32hi	mvfx2, [r4]
    27cc:	00280000 	eoreq	r0, r8, r0
    27d0:	07f50000 	ldrbeq	r0, [r5, r0]!
    27d4:	64260000 	strtvs	r0, [r6], #-0
    27d8:	0cc50100 	stfeqe	f0, [r5], {0}
    27dc:	00000025 	andeq	r0, r0, r5, lsr #32
    27e0:	008dc816 	addeq	ip, sp, r6, lsl r8
    27e4:	00017400 	andeq	r7, r1, r0, lsl #8
    27e8:	50011500 	andpl	r1, r1, r0, lsl #10
    27ec:	7dd09103 	ldfvcp	f1, [r0, #12]
    27f0:	02510115 	subseq	r0, r1, #1073741829	; 0x40000005
    27f4:	00000075 	andeq	r0, r0, r5, ror r0
    27f8:	008b5014 	addeq	r5, fp, r4, lsl r0
    27fc:	000c2e00 	andeq	r2, ip, r0, lsl #28
    2800:	00080900 	andeq	r0, r8, r0, lsl #18
    2804:	50011500 	andpl	r1, r1, r0, lsl #10
    2808:	00007702 	andeq	r7, r0, r2, lsl #14
    280c:	008bfc14 	addeq	pc, fp, r4, lsl ip	; <UNPREDICTABLE>
    2810:	000d1800 	andeq	r1, sp, r0, lsl #16
    2814:	00084200 	andeq	r4, r8, r0, lsl #4
    2818:	50011500 	andpl	r1, r1, r0, lsl #10
    281c:	96040305 	strls	r0, [r4], -r5, lsl #6
    2820:	01150000 	tsteq	r5, r0
    2824:	f0030551 			; <UNDEFINED> instruction: 0xf0030551
    2828:	15000095 	strne	r0, [r0, #-149]	; 0xffffff6b
    282c:	03055201 	movweq	r5, #20993	; 0x5201
    2830:	0000973c 	andeq	r9, r0, ip, lsr r7
    2834:	02530115 	subseq	r0, r3, #1073741829	; 0x40000005
    2838:	02159808 	andseq	r9, r5, #8, 16	; 0x80000
    283c:	0305007d 	movweq	r0, #20605	; 0x507d
    2840:	0000964c 	andeq	r9, r0, ip, asr #12
    2844:	8c001b00 			; <UNDEFINED> instruction: 0x8c001b00
    2848:	0d3c0000 	ldceq	0, cr0, [ip, #-0]
    284c:	00140000 	andseq	r0, r4, r0
    2850:	b000008e 	andlt	r0, r0, lr, lsl #1
    2854:	78000009 	stmdavc	r0, {r0, r3}
    2858:	15000008 	strne	r0, [r0, #-8]
    285c:	3a015001 	bcc	56868 <__bss_end__+0x4cd08>
    2860:	03510115 	cmpeq	r1, #1073741829	; 0x40000005
    2864:	157dd091 	ldrbne	sp, [sp, #-145]!	; 0xffffff6f
    2868:	08025201 	stmdaeq	r2, {r0, r9, ip, lr}
    286c:	7d021580 	cfstr32vc	mvfx1, [r2, #-512]	; 0xfffffe00
    2870:	00750200 	rsbseq	r0, r5, r0, lsl #4
    2874:	047d0215 	ldrbteq	r0, [sp], #-533	; 0xfffffdeb
    2878:	14003101 	strne	r3, [r0], #-257	; 0xfffffeff
    287c:	00008e34 	andeq	r8, r0, r4, lsr lr
    2880:	000009b0 			; <UNDEFINED> instruction: 0x000009b0
    2884:	000008a5 	andeq	r0, r0, r5, lsr #17
    2888:	01500115 	cmpeq	r0, r5, lsl r1
    288c:	5101153a 	tstpl	r1, sl, lsr r5
    2890:	7dd09103 	ldfvcp	f1, [r0, #12]
    2894:	02520115 	subseq	r0, r2, #1073741829	; 0x40000005
    2898:	02158008 	andseq	r8, r5, #8, 0
    289c:	7502007d 	strvc	r0, [r2, #-125]	; 0xffffff83
    28a0:	7d021500 	cfstr32vc	mvfx1, [r2, #-0]
    28a4:	00300104 	eorseq	r0, r0, r4, lsl #2
    28a8:	008e6814 	addeq	r6, lr, r4, lsl r8
    28ac:	0009b000 	andeq	fp, r9, r0
    28b0:	0008d200 	andeq	sp, r8, r0, lsl #4
    28b4:	50011500 	andpl	r1, r1, r0, lsl #10
    28b8:	01154001 	tsteq	r5, r1
    28bc:	d0910351 	addsle	r0, r1, r1, asr r3
    28c0:	5201157d 	andpl	r1, r1, #524288000	; 0x1f400000
    28c4:	15800802 	strne	r0, [r0, #2050]	; 0x802
    28c8:	02007d02 	andeq	r7, r0, #128	; 0x80
    28cc:	02150075 	andseq	r0, r5, #117, 0	; 0x75
    28d0:	3001047d 	andcc	r0, r1, sp, ror r4
    28d4:	8e9c1400 	cdphi	4, 9, cr1, cr12, cr0, {0}
    28d8:	09b00000 	ldmibeq	r0!, {}	; <UNPREDICTABLE>
    28dc:	08ff0000 	ldmeq	pc!, {}^	; <UNPREDICTABLE>
    28e0:	01150000 	tsteq	r5, r0
    28e4:	15320150 	ldrne	r0, [r2, #-336]!	; 0xfffffeb0
    28e8:	91035101 	tstls	r3, r1, lsl #2
    28ec:	01157dd0 			; <UNDEFINED> instruction: 0x01157dd0
    28f0:	80080252 	andhi	r0, r8, r2, asr r2
    28f4:	007d0215 	rsbseq	r0, sp, r5, lsl r2
    28f8:	15007502 	strne	r7, [r0, #-1282]	; 0xfffffafe
    28fc:	01047d02 	tsteq	r4, r2, lsl #26
    2900:	e4140030 	ldr	r0, [r4], #-48	; 0xffffffd0
    2904:	b000008e 	andlt	r0, r0, lr, lsl #1
    2908:	2c000009 	stccs	0, cr0, [r0], {9}
    290c:	15000009 	strne	r0, [r0, #-9]
    2910:	38015001 	stmdacc	r1, {r0, ip, lr}
    2914:	03510115 	cmpeq	r1, #1073741829	; 0x40000005
    2918:	157dd091 	ldrbne	sp, [sp, #-145]!	; 0xffffff6f
    291c:	08025201 	stmdaeq	r2, {r0, r9, ip, lr}
    2920:	7d021580 	cfstr32vc	mvfx1, [r2, #-512]	; 0xfffffe00
    2924:	00750200 	rsbseq	r0, r5, r0, lsl #4
    2928:	047d0215 	ldrbteq	r0, [sp], #-533	; 0xfffffdeb
    292c:	14003001 	strne	r3, [r0], #-1
    2930:	00008f04 	andeq	r8, r0, r4, lsl #30
    2934:	00000d18 	andeq	r0, r0, r8, lsl sp
    2938:	0000094f 	andeq	r0, r0, pc, asr #18
    293c:	05500115 	ldrbeq	r0, [r0, #-277]	; 0xfffffeeb
    2940:	0096d403 	addseq	sp, r6, r3, lsl #8
    2944:	51011500 	tstpl	r1, r0, lsl #10
    2948:	15007a02 	strne	r7, [r0, #-2562]	; 0xfffff5fe
    294c:	7a025201 	bvc	97158 <__bss_end__+0x8d5f8>
    2950:	14270000 	strtne	r0, [r7], #-0
    2954:	6100008f 	smlabbvs	r0, pc, r0, r0	; <UNPREDICTABLE>
    2958:	15000009 	strne	r0, [r0, #-9]
    295c:	91045001 	tstls	r4, r1
    2960:	00067dc8 	andeq	r7, r6, r8, asr #27
    2964:	008f2814 	addeq	r2, pc, r4, lsl r8	; <UNPREDICTABLE>
    2968:	000d1800 	andeq	r1, sp, r0, lsl #16
    296c:	00099000 	andeq	r9, r9, r0
    2970:	50011500 	andpl	r1, r1, r0, lsl #10
    2974:	97040305 	strls	r0, [r4, -r5, lsl #6]
    2978:	01150000 	tsteq	r5, r0
    297c:	f0030551 			; <UNDEFINED> instruction: 0xf0030551
    2980:	15000095 	strne	r0, [r0, #-149]	; 0xffffff6b
    2984:	03055201 	movweq	r5, #20993	; 0x5201
    2988:	0000973c 	andeq	r9, r0, ip, lsr r7
    298c:	02530115 	subseq	r0, r3, #1073741829	; 0x40000005
    2990:	1b00e208 	blne	3b1b8 <__bss_end__+0x31658>
    2994:	00008f2c 	andeq	r8, r0, ip, lsr #30
    2998:	00000d3c 	andeq	r0, r0, ip, lsr sp
    299c:	cc170000 	ldcgt	0, cr0, [r7], {-0}
    29a0:	ab000000 	blge	29a8 <__code_start__-0x5658>
    29a4:	18000009 	stmdane	r0, {r0, r3}
    29a8:	00000033 	andeq	r0, r0, r3, lsr r0
    29ac:	9b040009 	blls	1029d8 <__bss_end__+0xf8e78>
    29b0:	19000009 	stmdbne	r0, {r0, r3}
    29b4:	00000787 	andeq	r0, r0, r7, lsl #15
    29b8:	34014901 	strcc	r4, [r1], #-2305	; 0xfffff6ff
    29bc:	b0000003 	andlt	r0, r0, r3
    29c0:	b4000087 	strlt	r0, [r0], #-135	; 0xffffff79
    29c4:	01000001 	tsteq	r0, r1
    29c8:	000b199c 	muleq	fp, ip, r9
    29cc:	07d32800 	ldrbeq	r2, [r3, r0, lsl #16]
    29d0:	49010000 	stmdbmi	r1, {}	; <UNPREDICTABLE>
    29d4:	0000330f 	andeq	r3, r0, pc, lsl #6
    29d8:	000bf700 	andeq	pc, fp, r0, lsl #14
    29dc:	000bf100 	andeq	pc, fp, r0, lsl #2
    29e0:	73641a00 	cmnvc	r4, #0, 20
    29e4:	49010074 	stmdbmi	r1, {r2, r4, r5, r6}
    29e8:	0003341b 	andeq	r3, r3, fp, lsl r4
    29ec:	000c3500 	andeq	r3, ip, r0, lsl #10
    29f0:	000c2500 	andeq	r2, ip, r0, lsl #10
    29f4:	006e1a00 	rsbeq	r1, lr, r0, lsl #20
    29f8:	2c244901 			; <UNDEFINED> instruction: 0x2c244901
    29fc:	99000000 	stmdbls	r0, {}	; <UNPREDICTABLE>
    2a00:	9500000c 	strls	r0, [r0, #-12]
    2a04:	1a00000c 	bne	2a3c <__code_start__-0x55c4>
    2a08:	006c6176 	rsbeq	r6, ip, r6, ror r1
    2a0c:	2c2b4901 			; <UNDEFINED> instruction: 0x2c2b4901
    2a10:	c3000000 	movwgt	r0, #0
    2a14:	b700000c 	strlt	r0, [r0, -ip]
    2a18:	2800000c 	stmdacs	r0, {r2, r3}
    2a1c:	00000707 	andeq	r0, r0, r7, lsl #14
    2a20:	2c344901 			; <UNDEFINED> instruction: 0x2c344901
    2a24:	19000000 	stmdbne	r0, {}	; <UNPREDICTABLE>
    2a28:	1300000d 	movwne	r0, #13
    2a2c:	1e00000d 	cdpne	0, 0, cr0, cr0, cr13, {0}
    2a30:	000007d8 	ldrdeq	r0, [r0], -r8
    2a34:	2c3f4901 			; <UNDEFINED> instruction: 0x2c3f4901
    2a38:	02000000 	andeq	r0, r0, #0, 0
    2a3c:	62230491 	eorvs	r0, r3, #-1862270976	; 0x91000000
    2a40:	01006675 	tsteq	r0, r5, ror r6
    2a44:	0b19074e 	bleq	644784 <__bss_end__+0x63ac24>
    2a48:	91030000 	mrsls	r0, (UNDEF: 3)
    2a4c:	701f7fa8 	andsvc	r7, pc, r8, lsr #31
    2a50:	114e0100 	mrsne	r0, (UNDEF: 94)
    2a54:	00000334 	andeq	r0, r0, r4, lsr r3
    2a58:	00000d63 	andeq	r0, r0, r3, ror #26
    2a5c:	00000d43 	andeq	r0, r0, r3, asr #26
    2a60:	0100751f 	tsteq	r0, pc, lsl r5
    2a64:	00330b4f 	eorseq	r0, r3, pc, asr #22
    2a68:	0e490000 	cdpeq	0, 4, cr0, cr9, cr0, {0}
    2a6c:	0e350000 	cdpeq	0, 3, cr0, cr5, cr0, {0}
    2a70:	19210000 	stmdbne	r1!, {}	; <UNPREDICTABLE>
    2a74:	39000002 	stmdbcc	r0, {r1}
    2a78:	0500000b 	streq	r0, [r0, #-11]
    2a7c:	00972403 	addseq	r2, r7, r3, lsl #8
    2a80:	881c2500 	ldmdahi	ip, {r8, sl, sp}
    2a84:	00780000 	rsbseq	r0, r8, r0
    2a88:	0aa00000 	beq	fe802a90 <__bss_end__+0xfe7f8f30>
    2a8c:	74200000 	strtvc	r0, [r0], #-0
    2a90:	01000007 	tsteq	r0, r7
    2a94:	00330d54 	eorseq	r0, r3, r4, asr sp
    2a98:	0eca0000 	cdpeq	0, 12, cr0, cr10, cr0, {0}
    2a9c:	0ec20000 	cdpeq	0, 12, cr0, cr2, cr0, {0}
    2aa0:	14000000 	strne	r0, [r0], #-0
    2aa4:	000088d4 	ldrdeq	r8, [r0], -r4
    2aa8:	00000bcb 	andeq	r0, r0, fp, asr #23
    2aac:	00000ab5 			; <UNDEFINED> instruction: 0x00000ab5
    2ab0:	03510115 	cmpeq	r1, #1073741829	; 0x40000005
    2ab4:	007fa091 			; <UNDEFINED> instruction: 0x007fa091
    2ab8:	0088e814 	addeq	lr, r8, r4, lsl r8
    2abc:	000b3e00 	andeq	r3, fp, r0, lsl #28
    2ac0:	000ad600 	andeq	sp, sl, r0, lsl #12
    2ac4:	50011500 	andpl	r1, r1, r0, lsl #10
    2ac8:	15007502 	strne	r7, [r0, #-1282]	; 0xfffffafe
    2acc:	74025101 	strvc	r5, [r2], #-257	; 0xfffffeff
    2ad0:	53011500 	movwpl	r1, #5376	; 0x1500
    2ad4:	7fa09103 	svcvc	0x00a09103
    2ad8:	89401400 	stmdbhi	r0, {sl, ip}^
    2adc:	0d180000 	ldceq	0, cr0, [r8, #-0]
    2ae0:	0b0f0000 	bleq	3c2ae8 <__bss_end__+0x3b8f88>
    2ae4:	01150000 	tsteq	r5, r0
    2ae8:	04030550 	streq	r0, [r3], #-1360	; 0xfffffab0
    2aec:	15000096 	strne	r0, [r0, #-150]	; 0xffffff6a
    2af0:	03055101 	movweq	r5, #20737	; 0x5101
    2af4:	000095f0 	strdeq	r9, [r0], -r0
    2af8:	05520115 	ldrbeq	r0, [r2, #-277]	; 0xfffffeeb
    2afc:	00972403 	addseq	r2, r7, r3, lsl #8
    2b00:	53011500 	movwpl	r1, #5376	; 0x1500
    2b04:	15790802 	ldrbne	r0, [r9, #-2050]!	; 0xfffff7fe
    2b08:	05007d02 	streq	r7, [r0, #-3330]	; 0xfffff2fe
    2b0c:	00961803 	addseq	r1, r6, r3, lsl #16
    2b10:	441b0000 	ldrmi	r0, [fp], #-0
    2b14:	3c000089 	stccc	0, cr0, [r0], {137}	; 0x89
    2b18:	0000000d 	andeq	r0, r0, sp
    2b1c:	0000c517 	andeq	ip, r0, r7, lsl r5
    2b20:	000b2900 	andeq	r2, fp, r0, lsl #18
    2b24:	00331800 	eorseq	r1, r3, r0, lsl #16
    2b28:	003f0000 	eorseq	r0, pc, r0
    2b2c:	0000cc17 	andeq	ip, r0, r7, lsl ip
    2b30:	000b3900 	andeq	r3, fp, r0, lsl #18
    2b34:	00331800 	eorseq	r1, r3, r0, lsl #16
    2b38:	00040000 	andeq	r0, r4, r0
    2b3c:	000b2904 	andeq	r2, fp, r4, lsl #18
    2b40:	079b1900 	ldreq	r1, [fp, r0, lsl #18]
    2b44:	38010000 	stmdacc	r1, {}	; <UNPREDICTABLE>
    2b48:	0003340e 	andeq	r3, r3, lr, lsl #8
    2b4c:	00870800 	addeq	r0, r7, r0, lsl #16
    2b50:	00003800 	andeq	r3, r0, r0, lsl #16
    2b54:	cb9c0100 	blgt	fe702f5c <__bss_end__+0xfe6f93fc>
    2b58:	1a00000b 	bne	2b8c <__code_start__-0x5474>
    2b5c:	00747364 	rsbseq	r7, r4, r4, ror #6
    2b60:	341c3801 	ldrcc	r3, [ip], #-2049	; 0xfffff7ff
    2b64:	0b000003 	bleq	2b78 <__code_start__-0x5488>
    2b68:	0100000f 	tsteq	r0, pc
    2b6c:	1a00000f 	bne	2bb0 <__code_start__-0x5450>
    2b70:	3801006e 	stmdacc	r1, {r1, r2, r3, r5, r6}
    2b74:	00002c25 	andeq	r2, r0, r5, lsr #24
    2b78:	000f5200 	andeq	r5, pc, r0, lsl #4
    2b7c:	000f4e00 	andeq	r4, pc, r0, lsl #28
    2b80:	00701a00 	rsbseq	r1, r0, r0, lsl #20
    2b84:	342e3801 	strtcc	r3, [lr], #-2049	; 0xfffff7ff
    2b88:	7b000003 	blvc	2b9c <__code_start__-0x5464>
    2b8c:	7300000f 	movwvc	r0, #15
    2b90:	2800000f 	stmdacs	r0, {r0, r1, r2, r3}
    2b94:	00000760 	andeq	r0, r0, r0, ror #14
    2b98:	34373801 	ldrtcc	r3, [r7], #-2049	; 0xfffff7ff
    2b9c:	b5000003 	strlt	r0, [r0, #-3]
    2ba0:	b100000f 	tstlt	r0, pc
    2ba4:	1f00000f 	svcne	0x0000000f
    2ba8:	006e656c 	rsbeq	r6, lr, ip, ror #10
    2bac:	2c063a01 			; <UNDEFINED> instruction: 0x2c063a01
    2bb0:	db000000 	blle	2bb8 <__code_start__-0x5448>
    2bb4:	d300000f 	movwle	r0, #15
    2bb8:	1f00000f 	svcne	0x0000000f
    2bbc:	3e010073 	mcrcc	0, 0, r0, cr1, cr3, {3}
    2bc0:	00033408 	andeq	r3, r3, r8, lsl #8
    2bc4:	00102900 	andseq	r2, r0, r0, lsl #18
    2bc8:	00102700 	andseq	r2, r0, r0, lsl #14
    2bcc:	70290000 	eorvc	r0, r9, r0
    2bd0:	01006461 	tsteq	r0, r1, ror #8
    2bd4:	03340e2e 	teqeq	r4, #736	; 0x2e0
    2bd8:	86e40000 	strbthi	r0, [r4], r0
    2bdc:	00240000 	eoreq	r0, r4, r0
    2be0:	9c010000 	stcls	0, cr0, [r1], {-0}
    2be4:	00000c2e 	andeq	r0, r0, lr, lsr #24
    2be8:	0100701a 	tsteq	r0, sl, lsl r0
    2bec:	0334182e 	teqeq	r4, #3014656	; 0x2e0000
    2bf0:	10420000 	subne	r0, r2, r0
    2bf4:	103c0000 	eorsne	r0, ip, r0
    2bf8:	d3280000 			; <UNDEFINED> instruction: 0xd3280000
    2bfc:	01000007 	tsteq	r0, r7
    2c00:	0334222e 	teqeq	r4, #-536870910	; 0xe0000002
    2c04:	10710000 	rsbsne	r0, r1, r0
    2c08:	106d0000 	rsbne	r0, sp, r0
    2c0c:	071e0000 	ldreq	r0, [lr, -r0]
    2c10:	01000007 	tsteq	r0, r7
    2c14:	002c2c2e 	eoreq	r2, ip, lr, lsr #24
    2c18:	52010000 	andpl	r0, r1, #0, 0
    2c1c:	6e656c1f 	mcrvs	12, 3, r6, cr5, cr15, {0}
    2c20:	062f0100 	strteq	r0, [pc], -r0, lsl #2
    2c24:	0000002c 	andeq	r0, r0, ip, lsr #32
    2c28:	00001094 	muleq	r0, r4, r0
    2c2c:	00001092 	muleq	r0, r2, r0
    2c30:	06bd1900 	ldrteq	r1, [sp], r0, lsl #18
    2c34:	27010000 	strcs	r0, [r1, -r0]
    2c38:	00002c0c 	andeq	r2, r0, ip, lsl #24
    2c3c:	0086d000 	addeq	sp, r6, r0
    2c40:	00001400 	andeq	r1, r0, r0, lsl #8
    2c44:	5b9c0100 	blpl	fe70304c <__bss_end__+0xfe6f94ec>
    2c48:	1a00000c 	bne	2c80 <__code_start__-0x5380>
    2c4c:	27010063 	strcs	r0, [r1, -r3, rrx]
    2c50:	00002c18 	andeq	r2, r0, r8, lsl ip
    2c54:	0010ad00 	andseq	sl, r0, r0, lsl #26
    2c58:	0010a700 	andseq	sl, r0, r0, lsl #14
    2c5c:	4d2a0000 	stcmi	0, cr0, [sl, #-0]
    2c60:	01000007 	tsteq	r0, r7
    2c64:	8964061f 	stmdbhi	r4!, {r0, r1, r2, r3, r4, r9, sl}^
    2c68:	00640000 	rsbeq	r0, r4, r0
    2c6c:	9c010000 	stcls	0, cr0, [r1], {-0}
    2c70:	00000ceb 	andeq	r0, r0, fp, ror #25
    2c74:	00072a28 	andeq	r2, r7, r8, lsr #20
    2c78:	1b1f0100 	blne	7c3080 <__bss_end__+0x7b9520>
    2c7c:	000000aa 	andeq	r0, r0, sl, lsr #1
    2c80:	000010df 	ldrdeq	r1, [r0], -pc	; <UNPREDICTABLE>
    2c84:	000010db 	ldrdeq	r1, [r0], -fp
    2c88:	00078c28 	andeq	r8, r7, r8, lsr #24
    2c8c:	301f0100 	andscc	r0, pc, r0, lsl #2
    2c90:	000000dd 	ldrdeq	r0, [r0], -sp
    2c94:	00001104 	andeq	r1, r0, r4, lsl #2
    2c98:	00001100 	andeq	r1, r0, r0, lsl #2
    2c9c:	00021921 	andeq	r1, r2, r1, lsr #18
    2ca0:	000cfb00 	andeq	pc, ip, r0, lsl #22
    2ca4:	2c030500 	cfstr32cs	mvfx0, [r3], {-0}
    2ca8:	14000097 	strne	r0, [r0], #-151	; 0xffffff69
    2cac:	000089ac 	andeq	r8, r0, ip, lsr #19
    2cb0:	00000d18 	andeq	r0, r0, r8, lsl sp
    2cb4:	00000ce1 	andeq	r0, r0, r1, ror #25
    2cb8:	05500115 	ldrbeq	r0, [r0, #-277]	; 0xfffffeeb
    2cbc:	00960403 	addseq	r0, r6, r3, lsl #8
    2cc0:	51011500 	tstpl	r1, r0, lsl #10
    2cc4:	95f00305 	ldrbls	r0, [r0, #773]!	; 0x305
    2cc8:	01150000 	tsteq	r5, r0
    2ccc:	2c030552 	cfstr32cs	mvfx0, [r3], {82}	; 0x52
    2cd0:	15000097 	strne	r0, [r0, #-151]	; 0xffffff69
    2cd4:	08025301 	stmdaeq	r2, {r0, r8, r9, ip, lr}
    2cd8:	7d021520 	cfstr32vc	mvfx1, [r2, #-128]	; 0xffffff80
    2cdc:	40030500 	andmi	r0, r3, r0, lsl #10
    2ce0:	00000096 	muleq	r0, r6, r0
    2ce4:	0089b01b 	addeq	fp, r9, fp, lsl r0
    2ce8:	000d3c00 	andeq	r3, sp, r0, lsl #24
    2cec:	cc170000 	ldcgt	0, cr0, [r7], {-0}
    2cf0:	fb000000 	blx	2cfa <__code_start__-0x5306>
    2cf4:	1800000c 	stmdane	r0, {r2, r3}
    2cf8:	00000033 	andeq	r0, r0, r3, lsr r0
    2cfc:	eb04000e 	bl	102d3c <__bss_end__+0xf91dc>
    2d00:	2b00000c 	blcs	2d38 <__code_start__-0x52c8>
    2d04:	00000766 	andeq	r0, r0, r6, ror #14
    2d08:	00000766 	andeq	r0, r0, r6, ror #14
    2d0c:	2b07f303 	blcs	1ff920 <__bss_end__+0x1f5dc0>
    2d10:	000007cb 	andeq	r0, r0, fp, asr #15
    2d14:	000007cb 	andeq	r0, r0, fp, asr #15
    2d18:	2b05f003 	blcs	17ed2c <__bss_end__+0x1751cc>
    2d1c:	00000627 	andeq	r0, r0, r7, lsr #12
    2d20:	00000627 	andeq	r0, r0, r7, lsr #12
    2d24:	2b062803 	blcs	18cd38 <__bss_end__+0x1831d8>
    2d28:	000007a3 	andeq	r0, r0, r3, lsr #15
    2d2c:	000007a3 	andeq	r0, r0, r3, lsr #15
    2d30:	2b05ef03 	blcs	17e944 <__bss_end__+0x174de4>
    2d34:	0000076d 	andeq	r0, r0, sp, ror #14
    2d38:	0000076d 	andeq	r0, r0, sp, ror #14
    2d3c:	2b07f203 	blcs	1ff550 <__bss_end__+0x1f59f0>
    2d40:	00000039 	andeq	r0, r0, r9, lsr r0
    2d44:	00000039 	andeq	r0, r0, r9, lsr r0
    2d48:	00066e03 	andeq	r6, r6, r3, lsl #28
    2d4c:	0000012f 	andeq	r0, r0, pc, lsr #2
    2d50:	0d230004 	stceq	0, cr0, [r3, #-16]!
    2d54:	01040000 	mrseq	r0, (UNDEF: 4)
    2d58:	000004b9 			; <UNDEFINED> instruction: 0x000004b9
    2d5c:	0007ff0c 	andeq	pc, r7, ip, lsl #30
    2d60:	0005c600 	andeq	ip, r5, r0, lsl #12
    2d64:	008f9800 	addeq	r9, pc, r0, lsl #16
    2d68:	00002c00 	andeq	r2, r0, r0, lsl #24
    2d6c:	0014d400 	andseq	sp, r4, r0, lsl #8
    2d70:	05040200 	streq	r0, [r4, #-512]	; 0xfffffe00
    2d74:	00746e69 	rsbseq	r6, r4, r9, ror #28
    2d78:	a2070403 	andge	r0, r7, #50331648	; 0x3000000
    2d7c:	03000001 	movweq	r0, #1
    2d80:	00240601 	eoreq	r0, r4, r1, lsl #12
    2d84:	02030000 	andeq	r0, r3, #0, 0
    2d88:	0001d105 	andeq	sp, r1, r5, lsl #2
    2d8c:	05040300 	streq	r0, [r4, #-768]	; 0xfffffd00
    2d90:	000001bc 			; <UNDEFINED> instruction: 0x000001bc
    2d94:	b7050803 	strlt	r0, [r5, -r3, lsl #16]
    2d98:	03000001 	movweq	r0, #1
    2d9c:	00220801 	eoreq	r0, r2, r1, lsl #16
    2da0:	02030000 	andeq	r0, r3, #0, 0
    2da4:	00009c07 	andeq	r9, r0, r7, lsl #24
    2da8:	07040300 	streq	r0, [r4, -r0, lsl #6]
    2dac:	0000019d 	muleq	r0, sp, r1
    2db0:	98070803 	stmdals	r7, {r0, r1, fp}
    2db4:	04000001 	streq	r0, [r0], #-1
    2db8:	00000025 	andeq	r0, r0, r5, lsr #32
    2dbc:	0000007a 	andeq	r0, r0, sl, ror r0
    2dc0:	00002505 	andeq	r2, r0, r5, lsl #10
    2dc4:	c5060000 	strgt	r0, [r6, #-0]
    2dc8:	02000001 	andeq	r0, r0, #1, 0
    2dcc:	00860e1c 	addeq	r0, r6, ip, lsl lr
    2dd0:	04070000 	streq	r0, [r7], #-0
    2dd4:	0000006b 	andeq	r0, r0, fp, rrx
    2dd8:	00002504 	andeq	r2, r0, r4, lsl #10
    2ddc:	00009b00 	andeq	r9, r0, r0, lsl #22
    2de0:	009b0500 	addseq	r0, fp, r0, lsl #10
    2de4:	07000000 	streq	r0, [r0, -r0]
    2de8:	0000a804 	andeq	sl, r0, r4, lsl #16
    2dec:	08010300 	stmdaeq	r1, {r8, r9}
    2df0:	0000002b 	andeq	r0, r0, fp, lsr #32
    2df4:	0000a108 	andeq	sl, r0, r8, lsl #2
    2df8:	069e0600 	ldreq	r0, [lr], r0, lsl #12
    2dfc:	21020000 	mrscs	r0, (UNDEF: 2)
    2e00:	0000b90e 	andeq	fp, r0, lr, lsl #18
    2e04:	8c040700 	stchi	7, cr0, [r4], {-0}
    2e08:	09000000 	stmdbeq	r0, {}	; <UNPREDICTABLE>
    2e0c:	00000039 	andeq	r0, r0, r9, lsr r0
    2e10:	98060401 	stmdals	r6, {r0, sl}
    2e14:	2c00008f 	stccs	0, cr0, [r0], {143}	; 0x8f
    2e18:	01000000 	mrseq	r0, (UNDEF: 0)
    2e1c:	00010e9c 	muleq	r1, ip, lr
    2e20:	8fac0a00 	svchi	0x00ac0a00
    2e24:	00e80000 	rsceq	r0, r8, r0
    2e28:	010b0000 	mrseq	r0, (UNDEF: 11)
    2e2c:	48030550 	stmdami	r3, {r4, r6, r8, sl}
    2e30:	00000097 	muleq	r0, r7, r0
    2e34:	008fb00c 	addeq	fp, pc, ip
    2e38:	00010e00 	andeq	r0, r1, r0, lsl #28
    2e3c:	8fb80d00 	svchi	0x00b80d00
    2e40:	011a0000 	tsteq	sl, r0
    2e44:	01040000 	mrseq	r0, (UNDEF: 4)
    2e48:	010b0000 	mrseq	r0, (UNDEF: 11)
    2e4c:	003a0150 	eorseq	r0, sl, r0, asr r1
    2e50:	008fbc0c 	addeq	fp, pc, ip, lsl #24
    2e54:	00012600 	andeq	r2, r1, r0, lsl #12
    2e58:	1a0e0000 	bne	382e60 <__bss_end__+0x379300>
    2e5c:	1a000008 	bne	2e84 <__code_start__-0x517c>
    2e60:	02000008 	andeq	r0, r0, #8, 0
    2e64:	300e064d 	andcc	r0, lr, sp, asr #12
    2e68:	30000000 	andcc	r0, r0, r0
    2e6c:	02000000 	andeq	r0, r0, #0, 0
    2e70:	f40e0658 	vst1.16	{d0-d2}, [lr :64], r8
    2e74:	f4000007 	vst4.8	{d0-d3}, [r0], r7
    2e78:	02000007 	andeq	r0, r0, #7, 0
    2e7c:	8900066b 	stmdbhi	r0, {r0, r1, r3, r5, r6, r9, sl}
    2e80:	04000001 	streq	r0, [r0], #-1
    2e84:	000de300 	andeq	lr, sp, r0, lsl #6
    2e88:	b9010400 	stmdblt	r1, {sl}
    2e8c:	0c000004 	stceq	0, cr0, [r0], {4}
    2e90:	00000850 	andeq	r0, r0, r0, asr r8
    2e94:	000005c6 	andeq	r0, r0, r6, asr #11
    2e98:	00008fc4 	andeq	r8, r0, r4, asr #31
    2e9c:	0000003c 	andeq	r0, r0, ip, lsr r0
    2ea0:	0000157d 	andeq	r1, r0, sp, ror r5
    2ea4:	69050402 	stmdbvs	r5, {r1, sl}
    2ea8:	0300746e 	movweq	r7, #1134	; 0x46e
    2eac:	01a20704 			; <UNDEFINED> instruction: 0x01a20704
    2eb0:	01030000 	mrseq	r0, (UNDEF: 3)
    2eb4:	00002406 	andeq	r2, r0, r6, lsl #8
    2eb8:	05020300 	streq	r0, [r2, #-768]	; 0xfffffd00
    2ebc:	000001d1 	ldrdeq	r0, [r0], -r1
    2ec0:	bc050403 	cfstrslt	mvf0, [r5], {3}
    2ec4:	03000001 	movweq	r0, #1
    2ec8:	01b70508 			; <UNDEFINED> instruction: 0x01b70508
    2ecc:	01030000 	mrseq	r0, (UNDEF: 3)
    2ed0:	00002208 	andeq	r2, r0, r8, lsl #4
    2ed4:	07020300 	streq	r0, [r2, -r0, lsl #6]
    2ed8:	0000009c 	muleq	r0, ip, r0
    2edc:	9d070403 	cfstrsls	mvf0, [r7, #-12]
    2ee0:	03000001 	movweq	r0, #1
    2ee4:	01980708 	orrseq	r0, r8, r8, lsl #14
    2ee8:	25040000 	strcs	r0, [r4, #-0]
    2eec:	7a000000 	bvc	2ef4 <__code_start__-0x510c>
    2ef0:	05000000 	streq	r0, [r0, #-0]
    2ef4:	00000025 	andeq	r0, r0, r5, lsr #32
    2ef8:	01c50600 	biceq	r0, r5, r0, lsl #12
    2efc:	1c020000 	stcne	0, cr0, [r2], {-0}
    2f00:	0000860e 	andeq	r8, r0, lr, lsl #12
    2f04:	6b040700 	blvs	104b0c <__bss_end__+0xfafac>
    2f08:	04000000 	streq	r0, [r0], #-0
    2f0c:	00000025 	andeq	r0, r0, r5, lsr #32
    2f10:	0000009b 	muleq	r0, fp, r0
    2f14:	00009b05 	andeq	r9, r0, r5, lsl #22
    2f18:	04070000 	streq	r0, [r7], #-0
    2f1c:	000000a8 	andeq	r0, r0, r8, lsr #1
    2f20:	2b080103 	blcs	203334 <__bss_end__+0x1f97d4>
    2f24:	08000000 	stmdaeq	r0, {}	; <UNPREDICTABLE>
    2f28:	000000a1 	andeq	r0, r0, r1, lsr #1
    2f2c:	00069e06 	andeq	r9, r6, r6, lsl #28
    2f30:	0e210200 	cdpeq	2, 2, cr0, cr1, cr0, {0}
    2f34:	000000b9 	strheq	r0, [r0], -r9
    2f38:	008c0407 	addeq	r0, ip, r7, lsl #8
    2f3c:	28090000 	stmdacs	r9, {}	; <UNPREDICTABLE>
    2f40:	01000008 	tsteq	r0, r8
    2f44:	8fc40604 	svchi	0x00c40604
    2f48:	003c0000 	eorseq	r0, ip, r0
    2f4c:	9c010000 	stcls	0, cr0, [r1], {-0}
    2f50:	00000154 	andeq	r0, r0, r4, asr r1
    2f54:	0006f906 	andeq	pc, r6, r6, lsl #18
    2f58:	10050100 	andne	r0, r5, r0, lsl #2
    2f5c:	00000025 	andeq	r0, r0, r5, lsr #32
    2f60:	00073206 	andeq	r3, r7, r6, lsl #4
    2f64:	1f050100 	svcne	0x00050100
    2f68:	00000025 	andeq	r0, r0, r5, lsr #32
    2f6c:	00001a0a 	andeq	r1, r0, sl, lsl #20
    2f70:	07060100 	streq	r0, [r6, -r0, lsl #2]
    2f74:	7373620b 	cmnvc	r3, #-1342177280	; 0xb0000000
    2f78:	0a0a0100 	beq	283380 <__bss_end__+0x279820>
    2f7c:	00000154 	andeq	r0, r0, r4, asr r1
    2f80:	0000112b 	andeq	r1, r0, fp, lsr #2
    2f84:	00001125 	andeq	r1, r0, r5, lsr #2
    2f88:	0008300c 	andeq	r3, r8, ip
    2f8c:	0a0b0100 	beq	2c3394 <__bss_end__+0x2b9834>
    2f90:	00000154 	andeq	r0, r0, r4, asr r1
    2f94:	008fe80d 	addeq	lr, pc, sp, lsl #16
    2f98:	00000800 	andeq	r0, r0, r0, lsl #16
    2f9c:	00012f00 	andeq	r2, r1, r0, lsl #30
    2fa0:	6e690e00 	cdpvs	14, 6, cr0, cr9, cr0, {0}
    2fa4:	05140100 	ldreq	r0, [r4, #-256]	; 0xffffff00
    2fa8:	0000002c 	andeq	r0, r0, ip, lsr #32
    2fac:	cc0f0001 	stcgt	0, cr0, [pc], {1}
    2fb0:	5a00008f 	bpl	31f4 <__code_start__-0x4e0c>
    2fb4:	0f000001 	svceq	0x00000001
    2fb8:	00008fe8 	andeq	r8, r0, r8, ror #31
    2fbc:	00000167 	andeq	r0, r0, r7, ror #2
    2fc0:	008ff40f 	addeq	pc, pc, pc, lsl #8
    2fc4:	00017300 	andeq	r7, r1, r0, lsl #6
    2fc8:	8ff80f00 	svchi	0x00f80f00
    2fcc:	01800000 	orreq	r0, r0, r0
    2fd0:	07000000 	streq	r0, [r0, -r0]
    2fd4:	00002504 	andeq	r2, r0, r4, lsl #10
    2fd8:	08421000 	stmdaeq	r2, {ip}^
    2fdc:	08420000 	stmdaeq	r2, {}^	; <UNPREDICTABLE>
    2fe0:	36020000 	strcc	r0, [r2], -r0
    2fe4:	38110601 	ldmdacc	r1, {r0, r9, sl}
    2fe8:	38000008 	stmdacc	r0, {r3}
    2fec:	02000008 	andeq	r0, r0, #8, 0
    2ff0:	1a10063b 	bne	4048e4 <__bss_end__+0x3fad84>
    2ff4:	1a000000 	bne	2ffc <__code_start__-0x5004>
    2ff8:	02000000 	andeq	r0, r0, #0, 0
    2ffc:	1106010a 	tstne	r6, sl, lsl #2
    3000:	00000039 	andeq	r0, r0, r9, lsr r0
    3004:	00000039 	andeq	r0, r0, r9, lsr r0
    3008:	00066e02 	andeq	r6, r6, r2, lsl #28
    300c:	000000ce 	andeq	r0, r0, lr, asr #1
    3010:	0edf0004 	cdpeq	0, 13, cr0, cr15, cr4, {0}
    3014:	01040000 	mrseq	r0, (UNDEF: 4)
    3018:	000004b9 			; <UNDEFINED> instruction: 0x000004b9
    301c:	0008650c 	andeq	r6, r8, ip, lsl #10
    3020:	0005c600 	andeq	ip, r5, r0, lsl #12
    3024:	00900000 	addseq	r0, r0, r0
    3028:	00000400 	andeq	r0, r0, r0, lsl #8
    302c:	00164000 	andseq	r4, r6, r0
    3030:	05040200 	streq	r0, [r4, #-512]	; 0xfffffe00
    3034:	00746e69 	rsbseq	r6, r4, r9, ror #28
    3038:	a2070403 	andge	r0, r7, #50331648	; 0x3000000
    303c:	03000001 	movweq	r0, #1
    3040:	00240601 	eoreq	r0, r4, r1, lsl #12
    3044:	02030000 	andeq	r0, r3, #0, 0
    3048:	0001d105 	andeq	sp, r1, r5, lsl #2
    304c:	05040300 	streq	r0, [r4, #-768]	; 0xfffffd00
    3050:	000001bc 			; <UNDEFINED> instruction: 0x000001bc
    3054:	b7050803 	strlt	r0, [r5, -r3, lsl #16]
    3058:	03000001 	movweq	r0, #1
    305c:	00220801 	eoreq	r0, r2, r1, lsl #16
    3060:	02030000 	andeq	r0, r3, #0, 0
    3064:	00009c07 	andeq	r9, r0, r7, lsl #24
    3068:	07040300 	streq	r0, [r4, -r0, lsl #6]
    306c:	0000019d 	muleq	r0, sp, r1
    3070:	98070803 	stmdals	r7, {r0, r1, fp}
    3074:	04000001 	streq	r0, [r0], #-1
    3078:	00000025 	andeq	r0, r0, r5, lsr #32
    307c:	0000007a 	andeq	r0, r0, sl, ror r0
    3080:	00002505 	andeq	r2, r0, r5, lsl #10
    3084:	c5060000 	strgt	r0, [r6, #-0]
    3088:	02000001 	andeq	r0, r0, #1, 0
    308c:	00860e1c 	addeq	r0, r6, ip, lsl lr
    3090:	04070000 	streq	r0, [r7], #-0
    3094:	0000006b 	andeq	r0, r0, fp, rrx
    3098:	00002504 	andeq	r2, r0, r4, lsl #10
    309c:	00009b00 	andeq	r9, r0, r0, lsl #22
    30a0:	009b0500 	addseq	r0, fp, r0, lsl #10
    30a4:	07000000 	streq	r0, [r0, -r0]
    30a8:	0000a804 	andeq	sl, r0, r4, lsl #16
    30ac:	08010300 	stmdaeq	r1, {r8, r9}
    30b0:	0000002b 	andeq	r0, r0, fp, lsr #32
    30b4:	0000a108 	andeq	sl, r0, r8, lsl #2
    30b8:	069e0600 	ldreq	r0, [lr], r0, lsl #12
    30bc:	21020000 	mrscs	r0, (UNDEF: 2)
    30c0:	0000b90e 	andeq	fp, r0, lr, lsl #18
    30c4:	8c040700 	stchi	7, cr0, [r4], {-0}
    30c8:	09000000 	stmdbeq	r0, {}	; <UNPREDICTABLE>
    30cc:	00000842 	andeq	r0, r0, r2, asr #16
    30d0:	00060401 	andeq	r0, r6, r1, lsl #8
    30d4:	04000090 	streq	r0, [r0], #-144	; 0xffffff70
    30d8:	01000000 	mrseq	r0, (UNDEF: 0)
    30dc:	0236009c 	eorseq	r0, r6, #156, 0	; 0x9c
    30e0:	00040000 	andeq	r0, r4, r0
    30e4:	00000f58 	andeq	r0, r0, r8, asr pc
    30e8:	04b90104 	ldrteq	r0, [r9], #260	; 0x104
    30ec:	a70c0000 	strge	r0, [ip, -r0]
    30f0:	c6000008 	strgt	r0, [r0], -r8
    30f4:	18000005 	stmdane	r0, {r0, r2}
    30f8:	00000000 	andeq	r0, r0, r0
    30fc:	e7000000 	str	r0, [r0, -r0]
    3100:	02000016 	andeq	r0, r0, #22, 0
    3104:	6e690504 	cdpvs	5, 6, cr0, cr9, cr4, {0}
    3108:	25030074 	strcs	r0, [r3, #-116]	; 0xffffff8c
    310c:	04000000 	streq	r0, [r0], #-0
    3110:	01a20704 			; <UNDEFINED> instruction: 0x01a20704
    3114:	01040000 	mrseq	r0, (UNDEF: 4)
    3118:	00002406 	andeq	r2, r0, r6, lsl #8
    311c:	05020400 	streq	r0, [r2, #-1024]	; 0xfffffc00
    3120:	000001d1 	ldrdeq	r0, [r0], -r1
    3124:	bc050404 	cfstrslt	mvf0, [r5], {4}
    3128:	04000001 	streq	r0, [r0], #-1
    312c:	01b70508 			; <UNDEFINED> instruction: 0x01b70508
    3130:	01040000 	mrseq	r0, (UNDEF: 4)
    3134:	00002208 	andeq	r2, r0, r8, lsl #4
    3138:	07020400 	streq	r0, [r2, -r0, lsl #8]
    313c:	0000009c 	muleq	r0, ip, r0
    3140:	9d070404 	cfstrsls	mvf0, [r7, #-16]
    3144:	04000001 	streq	r0, [r0], #-1
    3148:	01980708 	orrseq	r0, r8, r8, lsl #14
    314c:	25050000 	strcs	r0, [r5, #-0]
    3150:	7f000000 	svcvc	0x00000000
    3154:	06000000 	streq	r0, [r0], -r0
    3158:	00000025 	andeq	r0, r0, r5, lsr #32
    315c:	01c50700 	biceq	r0, r5, r0, lsl #14
    3160:	1c020000 	stcne	0, cr0, [r2], {-0}
    3164:	00008b0e 	andeq	r8, r0, lr, lsl #22
    3168:	70040800 	andvc	r0, r4, r0, lsl #16
    316c:	05000000 	streq	r0, [r0, #-0]
    3170:	00000025 	andeq	r0, r0, r5, lsr #32
    3174:	000000a0 	andeq	r0, r0, r0, lsr #1
    3178:	0000a006 	andeq	sl, r0, r6
    317c:	04080000 	streq	r0, [r8], #-0
    3180:	000000ad 	andeq	r0, r0, sp, lsr #1
    3184:	2b080104 	blcs	20359c <__bss_end__+0x1f9a3c>
    3188:	03000000 	movweq	r0, #0
    318c:	000000a6 	andeq	r0, r0, r6, lsr #1
    3190:	00069e07 	andeq	r9, r6, r7, lsl #28
    3194:	0e210200 	cdpeq	2, 2, cr0, cr1, cr0, {0}
    3198:	000000be 	strheq	r0, [r0], -lr
    319c:	00910408 	addseq	r0, r1, r8, lsl #8
    31a0:	cb090000 	blgt	2431a8 <__bss_end__+0x239648>
    31a4:	01000008 	tsteq	r0, r8
    31a8:	0031110d 	eorseq	r1, r1, sp, lsl #2
    31ac:	f40a0000 	vst4.8	{d0-d3}, [sl], r0
    31b0:	01000007 	tsteq	r0, r7
    31b4:	9048061f 	subls	r0, r8, pc, lsl r6
    31b8:	00540000 	subseq	r0, r4, r0
    31bc:	9c010000 	stcls	0, cr0, [r1], {-0}
    31c0:	000001ae 	andeq	r0, r0, lr, lsr #3
    31c4:	0008ef0b 	andeq	lr, r8, fp, lsl #30
    31c8:	0f2c0100 	svceq	0x002c0100
    31cc:	0000002c 	andeq	r0, r0, ip, lsr #32
    31d0:	00001158 	andeq	r1, r0, r8, asr r1
    31d4:	00001156 	andeq	r1, r0, r6, asr r1
    31d8:	0008900b 	andeq	r9, r8, fp
    31dc:	0f2d0100 	svceq	0x002d0100
    31e0:	0000002c 	andeq	r0, r0, ip, lsr #32
    31e4:	00001172 	andeq	r1, r0, r2, ror r1
    31e8:	00001170 	andeq	r1, r0, r0, ror r1
    31ec:	0008bc0b 	andeq	fp, r8, fp, lsl #24
    31f0:	0f2e0100 	svceq	0x002e0100
    31f4:	0000002c 	andeq	r0, r0, ip, lsr #32
    31f8:	0000118c 	andeq	r1, r0, ip, lsl #3
    31fc:	0000118a 	andeq	r1, r0, sl, lsl #3
    3200:	0008d60b 	andeq	sp, r8, fp, lsl #12
    3204:	0f2f0100 	svceq	0x002f0100
    3208:	0000002c 	andeq	r0, r0, ip, lsr #32
    320c:	000011a5 	andeq	r1, r0, r5, lsr #3
    3210:	000011a3 	andeq	r1, r0, r3, lsr #3
    3214:	0090500c 	addseq	r5, r0, ip
    3218:	0001d900 	andeq	sp, r1, r0, lsl #18
    321c:	905c0c00 	subsls	r0, ip, r0, lsl #24
    3220:	02080000 	andeq	r0, r8, #0, 0
    3224:	600c0000 	andvs	r0, ip, r0
    3228:	15000090 	strne	r0, [r0, #-144]	; 0xffffff70
    322c:	0d000002 	stceq	0, cr0, [r0, #-8]
    3230:	00009068 	andeq	r9, r0, r8, rrx
    3234:	00000221 	andeq	r0, r0, r1, lsr #4
    3238:	00000164 	andeq	r0, r0, r4, ror #2
    323c:	0150010e 	cmpeq	r0, lr, lsl #2
    3240:	740d003a 	strvc	r0, [sp], #-58	; 0xffffffc6
    3244:	2d000090 	stccs	0, cr0, [r0, #-576]	; 0xfffffdc0
    3248:	84000002 	strhi	r0, [r0], #-2
    324c:	0e000001 	cdpeq	0, 0, cr0, cr0, cr1, {0}
    3250:	0c055001 	stceq	0, cr5, [r5], {1}
    3254:	20100024 	andscs	r0, r0, r4, lsr #32
    3258:	0551010e 	ldrbeq	r0, [r1, #-270]	; 0xfffffef2
    325c:	0000010c 	andeq	r0, r0, ip, lsl #2
    3260:	800d005a 	andhi	r0, sp, sl, asr r0
    3264:	2d000090 	stccs	0, cr0, [r0, #-576]	; 0xfffffdc0
    3268:	a4000002 	strge	r0, [r0], #-2
    326c:	0e000001 	cdpeq	0, 0, cr0, cr0, cr1, {0}
    3270:	0c055001 	stceq	0, cr5, [r5], {1}
    3274:	2010001c 	andscs	r0, r0, ip, lsl r0
    3278:	0551010e 	ldrbeq	r0, [r1, #-270]	; 0xfffffef2
    327c:	0000200c 	andeq	r2, r0, ip
    3280:	880c005a 	stmdahi	ip, {r1, r3, r4, r6}
    3284:	ae000090 	mcrge	0, 0, r0, cr0, cr0, {4}
    3288:	00000001 	andeq	r0, r0, r1
    328c:	0008980f 	andeq	r9, r8, pc, lsl #16
    3290:	06170100 	ldreq	r0, [r7], -r0, lsl #2
    3294:	00009034 	andeq	r9, r0, r4, lsr r0
    3298:	00000014 	andeq	r0, r0, r4, lsl r0
    329c:	01d99c01 	bicseq	r9, r9, r1, lsl #24
    32a0:	f70b0000 			; <UNDEFINED> instruction: 0xf70b0000
    32a4:	01000008 	tsteq	r0, r8
    32a8:	00310e18 	eorseq	r0, r1, r8, lsl lr
    32ac:	11c00000 	bicne	r0, r0, r0
    32b0:	11ba0000 			; <UNDEFINED> instruction: 0x11ba0000
    32b4:	10000000 	andne	r0, r0, r0
    32b8:	000008c8 	andeq	r0, r0, r8, asr #17
    32bc:	25050e01 	strcs	r0, [r5, #-3585]	; 0xfffff1ff
    32c0:	1c000000 	stcne	0, cr0, [r0], {-0}
    32c4:	18000090 	stmdane	r0, {r4, r7}
    32c8:	01000000 	mrseq	r0, (UNDEF: 0)
    32cc:	0002089c 	muleq	r2, ip, r8
    32d0:	08f70b00 	ldmeq	r7!, {r8, r9, fp}^
    32d4:	0f010000 	svceq	0x00010000
    32d8:	0000310e 	andeq	r3, r0, lr, lsl #2
    32dc:	0011ee00 	andseq	lr, r1, r0, lsl #28
    32e0:	0011ea00 	andseq	lr, r1, r0, lsl #20
    32e4:	81110000 	tsthi	r1, r0
    32e8:	81000008 	tsthi	r0, r8
    32ec:	02000008 	andeq	r0, r0, #8, 0
    32f0:	1206013b 	andne	r0, r6, #-1073741810	; 0xc000000e
    32f4:	0000081a 	andeq	r0, r0, sl, lsl r8
    32f8:	0000081a 	andeq	r0, r0, sl, lsl r8
    32fc:	12064d02 	andne	r4, r6, #128	; 0x80
    3300:	00000030 	andeq	r0, r0, r0, lsr r0
    3304:	00000030 	andeq	r0, r0, r0, lsr r0
    3308:	12065802 	andne	r5, r6, #131072	; 0x20000
    330c:	0000046a 	andeq	r0, r0, sl, ror #8
    3310:	0000046a 	andeq	r0, r0, sl, ror #8
    3314:	0006b202 	andeq	fp, r6, r2, lsl #4
    3318:	0000024d 	andeq	r0, r0, sp, asr #4
    331c:	107d0004 	rsbsne	r0, sp, r4
    3320:	01040000 	mrseq	r0, (UNDEF: 4)
    3324:	000004b9 			; <UNDEFINED> instruction: 0x000004b9
    3328:	0009060c 	andeq	r0, r9, ip, lsl #12
    332c:	0005c600 	andeq	ip, r5, r0, lsl #12
    3330:	00909c00 	addseq	r9, r0, r0, lsl #24
    3334:	00008400 	andeq	r8, r0, r0, lsl #8
    3338:	0017de00 	andseq	sp, r7, r0, lsl #28
    333c:	05040200 	streq	r0, [r4, #-512]	; 0xfffffe00
    3340:	00746e69 	rsbseq	r6, r4, r9, ror #28
    3344:	a2070403 	andge	r0, r7, #50331648	; 0x3000000
    3348:	03000001 	movweq	r0, #1
    334c:	00240601 	eoreq	r0, r4, r1, lsl #12
    3350:	02030000 	andeq	r0, r3, #0, 0
    3354:	0001d105 	andeq	sp, r1, r5, lsl #2
    3358:	05040300 	streq	r0, [r4, #-768]	; 0xfffffd00
    335c:	000001bc 			; <UNDEFINED> instruction: 0x000001bc
    3360:	b7050803 	strlt	r0, [r5, -r3, lsl #16]
    3364:	03000001 	movweq	r0, #1
    3368:	00220801 	eoreq	r0, r2, r1, lsl #16
    336c:	02030000 	andeq	r0, r3, #0, 0
    3370:	00009c07 	andeq	r9, r0, r7, lsl #24
    3374:	07040300 	streq	r0, [r4, -r0, lsl #6]
    3378:	0000019d 	muleq	r0, sp, r1
    337c:	98070803 	stmdals	r7, {r0, r1, fp}
    3380:	04000001 	streq	r0, [r0], #-1
    3384:	00000025 	andeq	r0, r0, r5, lsr #32
    3388:	0000007a 	andeq	r0, r0, sl, ror r0
    338c:	00002505 	andeq	r2, r0, r5, lsl #10
    3390:	c5060000 	strgt	r0, [r6, #-0]
    3394:	02000001 	andeq	r0, r0, #1, 0
    3398:	00860e1c 	addeq	r0, r6, ip, lsl lr
    339c:	04070000 	streq	r0, [r7], #-0
    33a0:	0000006b 	andeq	r0, r0, fp, rrx
    33a4:	00002504 	andeq	r2, r0, r4, lsl #10
    33a8:	00009b00 	andeq	r9, r0, r0, lsl #22
    33ac:	009b0500 	addseq	r0, fp, r0, lsl #10
    33b0:	07000000 	streq	r0, [r0, -r0]
    33b4:	0000a804 	andeq	sl, r0, r4, lsl #16
    33b8:	08010300 	stmdaeq	r1, {r8, r9}
    33bc:	0000002b 	andeq	r0, r0, fp, lsr #32
    33c0:	0000a108 	andeq	sl, r0, r8, lsl #2
    33c4:	069e0600 	ldreq	r0, [lr], r0, lsl #12
    33c8:	21020000 	mrscs	r0, (UNDEF: 2)
    33cc:	0000b90e 	andeq	fp, r0, lr, lsl #18
    33d0:	8c040700 	stchi	7, cr0, [r4], {-0}
    33d4:	09000000 	stmdbeq	r0, {}	; <UNPREDICTABLE>
    33d8:	000008fc 	strdeq	r0, [r0], -ip
    33dc:	08061e01 	stmdaeq	r6, {r0, r9, sl, fp, ip}
    33e0:	18000091 	stmdane	r0, {r0, r4, r7}
    33e4:	01000000 	mrseq	r0, (UNDEF: 0)
    33e8:	0001099c 	muleq	r1, ip, r9
    33ec:	65730a00 	ldrbvs	r0, [r3, #-2560]!	; 0xfffff600
    33f0:	1e010063 	cdpne	0, 0, cr0, cr1, cr3, {3}
    33f4:	00002c19 	andeq	r2, r0, r9, lsl ip
    33f8:	00121100 	andseq	r1, r2, r0, lsl #2
    33fc:	00120d00 	andseq	r0, r2, r0, lsl #26
    3400:	911c0b00 	tstls	ip, r0, lsl #22
    3404:	01090000 	mrseq	r0, (UNDEF: 9)
    3408:	010c0000 	mrseq	r0, (UNDEF: 12)
    340c:	01f31150 	mvnseq	r1, r0, asr r1
    3410:	f3243550 	vqrshl.u32	<illegal reg q1.5>, q0, q2
    3414:	321c5001 	andscc	r5, ip, #1, 0
    3418:	5001f324 	andpl	pc, r1, r4, lsr #6
    341c:	00243322 	eoreq	r3, r4, r2, lsr #6
    3420:	00300900 	eorseq	r0, r0, r0, lsl #18
    3424:	1b010000 	blne	4342c <__bss_end__+0x398cc>
    3428:	0090f006 	addseq	pc, r0, r6
    342c:	00001800 	andeq	r1, r0, r0, lsl #16
    3430:	529c0100 	addspl	r0, ip, #0
    3434:	0a000001 	beq	3440 <__code_start__-0x4bc0>
    3438:	0100736d 	tsteq	r0, sp, ror #6
    343c:	002c181b 	eoreq	r1, ip, fp, lsl r8
    3440:	12360000 	eorsne	r0, r6, #0, 0
    3444:	12320000 	eorsne	r0, r2, #0, 0
    3448:	040b0000 	streq	r0, [fp], #-0
    344c:	52000091 	andpl	r0, r0, #145, 0	; 0x91
    3450:	0c000001 	stceq	0, cr0, [r0], {1}
    3454:	f3115001 	vhadd.u16	d5, d1, d1
    3458:	24355001 	ldrtcs	r5, [r5], #-1
    345c:	1c5001f3 	ldfnee	f0, [r0], {243}	; 0xf3
    3460:	01f32432 	mvnseq	r2, r2, lsr r4
    3464:	24332250 	ldrtcs	r2, [r3], #-592	; 0xfffffdb0
    3468:	26090000 	strcs	r0, [r9], -r0
    346c:	01000002 	tsteq	r0, r2
    3470:	90cc0612 	sbcls	r0, ip, r2, lsl r6
    3474:	00240000 	eoreq	r0, r4, r0
    3478:	9c010000 	stcls	0, cr0, [r1], {-0}
    347c:	000001c2 	andeq	r0, r0, r2, asr #3
    3480:	0073750a 	rsbseq	r7, r3, sl, lsl #10
    3484:	2c181201 	lfmcs	f1, 4, [r8], {1}
    3488:	5b000000 	blpl	3490 <__code_start__-0x4b70>
    348c:	57000012 	smladpl	r0, r2, r0, r0
    3490:	0d000012 	stceq	0, cr0, [r0, #-72]	; 0xffffffb8
    3494:	01006272 	tsteq	r0, r2, ror r2
    3498:	002c0e13 	eoreq	r0, ip, r3, lsl lr
    349c:	127b0000 	rsbsne	r0, fp, #0, 0
    34a0:	12790000 	rsbsne	r0, r9, #0, 0
    34a4:	dc0e0000 	stcle	0, cr0, [lr], {-0}
    34a8:	14000090 	strne	r0, [r0], #-144	; 0xffffff70
    34ac:	b8000000 	stmdalt	r0, {}	; <UNPREDICTABLE>
    34b0:	0d000001 	stceq	0, cr0, [r0, #-4]
    34b4:	01006172 	tsteq	r0, r2, ror r1
    34b8:	002c1215 	eoreq	r1, ip, r5, lsl r2
    34bc:	12900000 	addsne	r0, r0, #0, 0
    34c0:	128e0000 	addne	r0, lr, #0, 0
    34c4:	e00f0000 	and	r0, pc, r0
    34c8:	c2000090 	andgt	r0, r0, #144, 0	; 0x90
    34cc:	00000001 	andeq	r0, r0, r1
    34d0:	0090d80f 	addseq	sp, r0, pc, lsl #16
    34d4:	0001c200 	andeq	ip, r1, r0, lsl #4
    34d8:	1a100000 	bne	4034e0 <__bss_end__+0x3f9980>
    34dc:	01000009 	tsteq	r0, r9
    34e0:	002c0a09 	eoreq	r0, ip, r9, lsl #20
    34e4:	90b00000 	adcsls	r0, r0, r0
    34e8:	001c0000 	andseq	r0, ip, r0
    34ec:	9c010000 	stcls	0, cr0, [r1], {-0}
    34f0:	0000020a 	andeq	r0, r0, sl, lsl #4
    34f4:	0100750d 	tsteq	r0, sp, lsl #10
    34f8:	002c0e0d 	eoreq	r0, ip, sp, lsl #28
    34fc:	12a70000 	adcne	r0, r7, #0, 0
    3500:	12a30000 	adcne	r0, r3, #0, 0
    3504:	b80f0000 	stmdalt	pc, {}	; <UNPREDICTABLE>
    3508:	38000090 	stmdacc	r0, {r4, r7}
    350c:	0f000002 	svceq	0x00000002
    3510:	000090bc 	strheq	r9, [r0], -ip
    3514:	0000020a 	andeq	r0, r0, sl, lsl #4
    3518:	0090c40f 	addseq	ip, r0, pc, lsl #8
    351c:	00023800 	andeq	r3, r2, r0, lsl #16
    3520:	29100000 	ldmdbcs	r0, {}	; <UNPREDICTABLE>
    3524:	01000009 	tsteq	r0, r9
    3528:	002c0a04 	eoreq	r0, ip, r4, lsl #20
    352c:	909c0000 	addsls	r0, ip, r0
    3530:	00140000 	andseq	r0, r4, r0
    3534:	9c010000 	stcls	0, cr0, [r1], {-0}
    3538:	00000238 	andeq	r0, r0, r8, lsr r2
    353c:	0090a80b 	addseq	sl, r0, fp, lsl #16
    3540:	00024400 	andeq	r4, r2, r0, lsl #8
    3544:	50010c00 	andpl	r0, r1, r0, lsl #24
    3548:	30040c05 	andcc	r0, r4, r5, lsl #24
    354c:	00002000 	andeq	r2, r0, r0
    3550:	0003b511 	andeq	fp, r3, r1, lsl r5
    3554:	0003b500 	andeq	fp, r3, r0, lsl #10
    3558:	06a10200 	strteq	r0, [r1], r0, lsl #4
    355c:	00048a11 	andeq	r8, r4, r1, lsl sl
    3560:	00048a00 	andeq	r8, r4, r0, lsl #20
    3564:	0ac70200 	beq	ff1c3d6c <__bss_end__+0xff1ba20c>
    3568:	0005cd00 	andeq	ip, r5, r0, lsl #26
    356c:	7e000400 	cfcpysvc	mvf0, mvf0
    3570:	04000011 	streq	r0, [r0], #-17	; 0xffffffef
    3574:	0009fa01 	andeq	pc, r9, r1, lsl #20
    3578:	09640c00 	stmdbeq	r4!, {sl, fp}^
    357c:	098a0000 	stmibeq	sl, {}	; <UNPREDICTABLE>
    3580:	91200000 			; <UNDEFINED> instruction: 0x91200000
    3584:	01f00000 	mvnseq	r0, r0
    3588:	18dc0000 	ldmne	ip, {}^	; <UNPREDICTABLE>
    358c:	04020000 	streq	r0, [r2], #-0
    3590:	746e6905 	strbtvc	r6, [lr], #-2309	; 0xfffff6fb
    3594:	07040300 	streq	r0, [r4, -r0, lsl #6]
    3598:	000001a2 	andeq	r0, r0, r2, lsr #3
    359c:	00002c04 	andeq	r2, r0, r4, lsl #24
    35a0:	06010300 	streq	r0, [r1], -r0, lsl #6
    35a4:	00000024 	andeq	r0, r0, r4, lsr #32
    35a8:	d1050203 	tstle	r5, r3, lsl #4
    35ac:	03000001 	movweq	r0, #1
    35b0:	01bc0504 			; <UNDEFINED> instruction: 0x01bc0504
    35b4:	08030000 	stmdaeq	r3, {}	; <UNPREDICTABLE>
    35b8:	0001b705 	andeq	fp, r1, r5, lsl #14
    35bc:	08010300 	stmdaeq	r1, {r8, r9}
    35c0:	00000022 	andeq	r0, r0, r2, lsr #32
    35c4:	9c070203 	sfmls	f0, 4, [r7], {3}
    35c8:	05000000 	streq	r0, [r0, #-0]
    35cc:	0000039d 	muleq	r0, sp, r3
    35d0:	6e193405 	cfmulsvs	mvf3, mvf9, mvf5
    35d4:	03000000 	movweq	r0, #0
    35d8:	019d0704 	orrseq	r0, sp, r4, lsl #14
    35dc:	08030000 	stmdaeq	r3, {}	; <UNPREDICTABLE>
    35e0:	00019807 	andeq	r9, r1, r7, lsl #16
    35e4:	08010300 	stmdaeq	r1, {r8, r9}
    35e8:	0000002b 	andeq	r0, r0, fp, lsr #32
    35ec:	54010706 	strpl	r0, [r1], #-1798	; 0xfffff8fa
    35f0:	04000000 	streq	r0, [r0], #-0
    35f4:	00c20e0c 	sbceq	r0, r2, ip, lsl #28
    35f8:	88070000 	stmdahi	r7, {}	; <UNPREDICTABLE>
    35fc:	00000003 	andeq	r0, r0, r3
    3600:	0002c207 	andeq	ip, r2, r7, lsl #4
    3604:	d9070100 	stmdble	r7, {r8}
    3608:	04000002 	streq	r0, [r0], #-2
    360c:	0002e807 	andeq	lr, r2, r7, lsl #16
    3610:	f7070500 			; <UNDEFINED> instruction: 0xf7070500
    3614:	06000002 	streq	r0, [r0], -r2
    3618:	00030607 	andeq	r0, r3, r7, lsl #12
    361c:	15070700 	strne	r0, [r7, #-1792]	; 0xfffff900
    3620:	03000003 	movweq	r0, #3
    3624:	00032407 	andeq	r2, r3, r7, lsl #8
    3628:	08000200 	stmdaeq	r0, {r9}
    362c:	00000958 	andeq	r0, r0, r8, asr r9
    3630:	0806022c 	stmdaeq	r6, {r2, r3, r5, r9}
    3634:	0000015e 	andeq	r0, r0, lr, asr r1
    3638:	006f6909 	rsbeq	r6, pc, r9, lsl #18
    363c:	33090902 	movwcc	r0, #39170	; 0x9902
    3640:	00000000 	andeq	r0, r0, r0
    3644:	72656909 	rsbvc	r6, r5, #147456	; 0x24000
    3648:	090a0200 	stmdbeq	sl, {r9}
    364c:	00000033 	andeq	r0, r0, r3, lsr r0
    3650:	69690904 	stmdbvs	r9!, {r2, r8, fp}^
    3654:	11020072 	tstne	r2, r2, ror r0
    3658:	00003309 	andeq	r3, r0, r9, lsl #6
    365c:	6c090800 	stcvs	8, cr0, [r9], {-0}
    3660:	02007263 	andeq	r7, r0, #805306374	; 0x30000006
    3664:	00330913 	eorseq	r0, r3, r3, lsl r9
    3668:	090c0000 	stmdbeq	ip, {}	; <UNPREDICTABLE>
    366c:	0072636d 	rsbseq	r6, r2, sp, ror #6
    3670:	33091402 	movwcc	r1, #37890	; 0x9402
    3674:	10000000 	andne	r0, r0, r0
    3678:	72736c09 	rsbsvc	r6, r3, #2304	; 0x900
    367c:	09150200 	ldmdbeq	r5, {r9}
    3680:	00000033 	andeq	r0, r0, r3, lsr r0
    3684:	736d0914 	cmnvc	sp, #20, 18	; 0x50000
    3688:	16020072 			; <UNDEFINED> instruction: 0x16020072
    368c:	00003309 	andeq	r3, r0, r9, lsl #6
    3690:	a20a1800 	andge	r1, sl, #0, 16
    3694:	0200000a 	andeq	r0, r0, #10, 0
    3698:	00330917 	eorseq	r0, r3, r7, lsl r9
    369c:	0a1c0000 	beq	7036a4 <__bss_end__+0x6f9b44>
    36a0:	000009da 	ldrdeq	r0, [r0], -sl
    36a4:	33091b02 	movwcc	r1, #39682	; 0x9b02
    36a8:	20000000 	andcs	r0, r0, r0
    36ac:	0009450a 	andeq	r4, r9, sl, lsl #10
    36b0:	091d0200 	ldmdbeq	sp, {r9}
    36b4:	00000033 	andeq	r0, r0, r3, lsr r0
    36b8:	09bf0a24 	ldmibeq	pc!, {r2, r5, r9, fp}	; <UNPREDICTABLE>
    36bc:	1e020000 	cdpne	0, 0, cr0, cr2, cr0, {0}
    36c0:	00003309 	andeq	r3, r0, r9, lsl #6
    36c4:	0b002800 	bleq	d6cc <__bss_end__+0x3b6c>
    36c8:	000009c4 	andeq	r0, r0, r4, asr #19
    36cc:	74090801 	strvc	r0, [r9], #-2049	; 0xfffff7ff
    36d0:	04000001 	streq	r0, [r0], #-1
    36d4:	0c202150 	stfeqs	f2, [r0], #-320	; 0xfffffec0
    36d8:	00003304 	andeq	r3, r0, r4, lsl #6
    36dc:	016e0d00 	cmneq	lr, r0, lsl #26
    36e0:	aa0b0000 	bge	2c36e8 <__bss_end__+0x2b9b88>
    36e4:	0100000a 	tsteq	r0, sl
    36e8:	018f2329 	orreq	r2, pc, r9, lsr #6
    36ec:	50400000 	subpl	r0, r0, r0
    36f0:	040c2021 	streq	r2, [ip], #-33	; 0xffffffdf
    36f4:	000000c2 	andeq	r0, r0, r2, asr #1
    36f8:	0001890d 	andeq	r8, r1, sp, lsl #18
    36fc:	081a0e00 	ldmdaeq	sl, {r9, sl, fp}
    3700:	cc010000 	stcgt	0, cr0, [r1], {-0}
    3704:	0092d806 	addseq	sp, r2, r6, lsl #16
    3708:	00001400 	andeq	r1, r0, r0, lsl #8
    370c:	b49c0100 	ldrlt	r0, [ip], #256	; 0x100
    3710:	0f000001 	svceq	0x00000001
    3714:	000092e0 	andeq	r9, r0, r0, ror #5
    3718:	000001b4 			; <UNDEFINED> instruction: 0x000001b4
    371c:	09791000 	ldmdbeq	r9!, {ip}^
    3720:	b6010000 	strlt	r0, [r1], -r0
    3724:	00002505 	andeq	r2, r0, r5, lsl #10
    3728:	0092b800 	addseq	fp, r2, r0, lsl #16
    372c:	00002000 	andeq	r2, r0, r0
    3730:	eb9c0100 	bl	fe703b38 <__bss_end__+0xfe6f9fd8>
    3734:	0f000001 	svceq	0x00000001
    3738:	000092c0 	andeq	r9, r0, r0, asr #5
    373c:	000005a0 	andeq	r0, r0, r0, lsr #11
    3740:	0092c811 	addseq	ip, r2, r1, lsl r8
    3744:	0005ac00 	andeq	sl, r5, r0, lsl #24
    3748:	50011200 	andpl	r1, r1, r0, lsl #4
    374c:	50640c05 	rsbpl	r0, r4, r5, lsl #24
    3750:	00002021 	andeq	r2, r0, r1, lsr #32
    3754:	0009ec10 	andeq	lr, r9, r0, lsl ip
    3758:	05b30100 	ldreq	r0, [r3, #256]!	; 0x100
    375c:	00000025 	andeq	r0, r0, r5, lsr #32
    3760:	000092a8 	andeq	r9, r0, r8, lsr #5
    3764:	00000010 	andeq	r0, r0, r0, lsl r0
    3768:	02189c01 	andseq	r9, r8, #256	; 0x100
    376c:	b00f0000 	andlt	r0, pc, r0
    3770:	a0000092 	mulge	r0, r2, r0
    3774:	0f000005 	svceq	0x00000005
    3778:	000092b4 			; <UNDEFINED> instruction: 0x000092b4
    377c:	00000309 	andeq	r0, r0, r9, lsl #6
    3780:	068b0e00 	streq	r0, [fp], r0, lsl #28
    3784:	ab010000 	blge	4378c <__bss_end__+0x39c2c>
    3788:	00927806 	addseq	r7, r2, r6, lsl #16
    378c:	00003000 	andeq	r3, r0, r0
    3790:	7c9c0100 	ldfvcs	f0, [ip], {0}
    3794:	13000002 	movwne	r0, #2
    3798:	ab010063 	blge	4392c <__bss_end__+0x39dcc>
    379c:	00002c19 	andeq	r2, r0, r9, lsl ip
    37a0:	0012c900 	andseq	ip, r2, r0, lsl #18
    37a4:	0012c500 	andseq	ip, r2, r0, lsl #10
    37a8:	92840f00 	addls	r0, r4, #0, 30
    37ac:	05a00000 	streq	r0, [r0, #0]!
    37b0:	880f0000 	stmdahi	pc, {}	; <UNPREDICTABLE>
    37b4:	db000092 	blle	3a04 <__code_start__-0x45fc>
    37b8:	14000002 	strne	r0, [r0], #-2
    37bc:	0000929c 	muleq	r0, ip, r2
    37c0:	000005b8 			; <UNDEFINED> instruction: 0x000005b8
    37c4:	00000272 	andeq	r0, r0, r2, ror r2
    37c8:	05500112 	ldrbeq	r0, [r0, #-274]	; 0xfffffeee
    37cc:	2150400c 	cmpcs	r0, ip
    37d0:	51011220 	tstpl	r1, r0, lsr #4
    37d4:	08007405 	stmdaeq	r0, {r0, r2, sl, ip, sp, lr}
    37d8:	0f001aff 	svceq	0x00001aff
    37dc:	000092a0 	andeq	r9, r0, r0, lsr #5
    37e0:	000005a0 	andeq	r0, r0, r0, lsr #11
    37e4:	09d01000 	ldmibeq	r0, {ip}^
    37e8:	a3010000 	movwge	r0, #4096	; 0x1000
    37ec:	00002505 	andeq	r2, r0, r5, lsl #10
    37f0:	00924800 	addseq	r4, r2, r0, lsl #16
    37f4:	00003000 	andeq	r3, r0, r0
    37f8:	db9c0100 	blle	fe703c00 <__bss_end__+0xfe6fa0a0>
    37fc:	15000002 	strne	r0, [r0, #-2]
    3800:	a7010063 	strge	r0, [r1, -r3, rrx]
    3804:	00002509 	andeq	r2, r0, r9, lsl #10
    3808:	0012e900 	andseq	lr, r2, r0, lsl #18
    380c:	0012e700 	andseq	lr, r2, r0, lsl #14
    3810:	92500f00 	subsls	r0, r0, #0, 30
    3814:	05a00000 	streq	r0, [r0, #0]!
    3818:	540f0000 	strpl	r0, [pc], #-0	; 3820 <__code_start__-0x47e0>
    381c:	09000092 	stmdbeq	r0, {r1, r4, r7}
    3820:	14000003 	strne	r0, [r0], #-3
    3824:	00009264 	andeq	r9, r0, r4, ror #4
    3828:	000005ac 	andeq	r0, r0, ip, lsr #11
    382c:	000002d1 	ldrdeq	r0, [r0], -r1
    3830:	05500112 	ldrbeq	r0, [r0, #-274]	; 0xfffffeee
    3834:	2150400c 	cmpcs	r0, ip
    3838:	6c0f0020 	stcvs	0, cr0, [pc], {32}
    383c:	a0000092 	mulge	r0, r2, r0
    3840:	00000005 	andeq	r0, r0, r5
    3844:	00096b10 	andeq	r6, r9, r0, lsl fp
    3848:	05940100 	ldreq	r0, [r4, #256]	; 0x100
    384c:	00000025 	andeq	r0, r0, r5, lsr #32
    3850:	00009228 	andeq	r9, r0, r8, lsr #4
    3854:	00000020 	andeq	r0, r0, r0, lsr #32
    3858:	03099c01 	movweq	r9, #39937	; 0x9c01
    385c:	34110000 	ldrcc	r0, [r1], #-0
    3860:	ac000092 	stcge	0, cr0, [r0], {146}	; 0x92
    3864:	12000005 	andne	r0, r0, #5, 0
    3868:	0c055001 	stceq	0, cr5, [r5], {1}
    386c:	20215064 	eorcs	r5, r1, r4, rrx
    3870:	4a100000 	bmi	403878 <__bss_end__+0x3f9d18>
    3874:	01000009 	tsteq	r0, r9
    3878:	0025058b 	eoreq	r0, r5, fp, lsl #11
    387c:	92100000 	andsls	r0, r0, #0, 0
    3880:	00180000 	andseq	r0, r8, r0
    3884:	9c010000 	stcls	0, cr0, [r1], {-0}
    3888:	00000337 	andeq	r0, r0, r7, lsr r3
    388c:	00921c11 	addseq	r1, r2, r1, lsl ip
    3890:	0005ac00 	andeq	sl, r5, r0, lsl #24
    3894:	50011200 	andpl	r1, r1, r0, lsl #4
    3898:	50640c05 	rsbpl	r0, r4, r5, lsl #24
    389c:	00002021 	andeq	r2, r0, r1, lsr #32
    38a0:	0008380e 	andeq	r3, r8, lr, lsl #16
    38a4:	06450100 	strbeq	r0, [r5], -r0, lsl #2
    38a8:	00009160 	andeq	r9, r0, r0, ror #2
    38ac:	000000b0 	strheq	r0, [r0], -r0	; <UNPREDICTABLE>
    38b0:	04849c01 	streq	r9, [r4], #3073	; 0xc01
    38b4:	3c160000 	ldccc	0, cr0, [r6], {-0}
    38b8:	01000009 	tsteq	r0, r9
    38bc:	00620e7e 	rsbeq	r0, r2, lr, ror lr
    38c0:	010e0000 	mrseq	r0, (UNDEF: 14)
    38c4:	00917014 	addseq	r7, r1, r4, lsl r0
    38c8:	0005c400 	andeq	ip, r5, r0, lsl #8
    38cc:	00037300 	andeq	r7, r3, r0, lsl #6
    38d0:	50011200 	andpl	r1, r1, r0, lsl #4
    38d4:	01123e01 	tsteq	r2, r1, lsl #28
    38d8:	00320151 	eorseq	r0, r2, r1, asr r1
    38dc:	00917c14 	addseq	r7, r1, r4, lsl ip
    38e0:	0005c400 	andeq	ip, r5, r0, lsl #8
    38e4:	00038b00 	andeq	r8, r3, r0, lsl #22
    38e8:	50011200 	andpl	r1, r1, r0, lsl #4
    38ec:	01123f01 	tsteq	r2, r1, lsl #30
    38f0:	00320151 	eorseq	r0, r2, r1, asr r1
    38f4:	0091800f 	addseq	r8, r1, pc
    38f8:	0005a000 	andeq	sl, r5, r0
    38fc:	918c1400 	orrls	r1, ip, r0, lsl #8
    3900:	053d0000 	ldreq	r0, [sp, #-0]!
    3904:	03b00000 	movseq	r0, #0, 0
    3908:	01120000 	tsteq	r2, r0
    390c:	040c0550 	streq	r0, [ip], #-1360	; 0xfffffab0
    3910:	12202150 	eorne	r2, r0, #20
    3914:	31015101 	tstcc	r1, r1, lsl #2
    3918:	91900f00 	orrsls	r0, r0, r0, lsl #30
    391c:	05a00000 	streq	r0, [r0, #0]!
    3920:	a0140000 	andsge	r0, r4, r0
    3924:	b8000091 	stmdalt	r0, {r0, r4, r7}
    3928:	d2000005 	andle	r0, r0, #5, 0
    392c:	12000003 	andne	r0, r0, #3, 0
    3930:	74025001 	strvc	r5, [r2], #-1
    3934:	51011200 	mrspl	r1, R9_usr
    3938:	14003001 	strne	r3, [r0], #-1
    393c:	000091ac 	andeq	r9, r0, ip, lsr #3
    3940:	000005b8 			; <UNDEFINED> instruction: 0x000005b8
    3944:	000003ee 	andeq	r0, r0, lr, ror #7
    3948:	05500112 	ldrbeq	r0, [r0, #-274]	; 0xfffffeee
    394c:	2150440c 	cmpcs	r0, ip, lsl #8
    3950:	51011220 	tstpl	r1, r0, lsr #4
    3954:	14003001 	strne	r3, [r0], #-1
    3958:	000091b8 			; <UNDEFINED> instruction: 0x000091b8
    395c:	000005b8 			; <UNDEFINED> instruction: 0x000005b8
    3960:	0000040a 	andeq	r0, r0, sl, lsl #8
    3964:	05500112 	ldrbeq	r0, [r0, #-274]	; 0xfffffeee
    3968:	21504c0c 	cmpcs	r0, ip, lsl #24
    396c:	51011220 	tstpl	r1, r0, lsr #4
    3970:	14003301 	strne	r3, [r0], #-769	; 0xfffffcff
    3974:	000091c4 	andeq	r9, r0, r4, asr #3
    3978:	000005b8 			; <UNDEFINED> instruction: 0x000005b8
    397c:	00000426 	andeq	r0, r0, r6, lsr #8
    3980:	05500112 	ldrbeq	r0, [r0, #-274]	; 0xfffffeee
    3984:	2150500c 	cmpcs	r0, ip
    3988:	51011220 	tstpl	r1, r0, lsr #4
    398c:	14003001 	strne	r3, [r0], #-1
    3990:	000091d0 	ldrdeq	r9, [r0], -r0
    3994:	000005b8 			; <UNDEFINED> instruction: 0x000005b8
    3998:	00000443 	andeq	r0, r0, r3, asr #8
    399c:	05500112 	ldrbeq	r0, [r0, #-274]	; 0xfffffeee
    39a0:	2150480c 	cmpcs	r0, ip, lsl #16
    39a4:	51011220 	tstpl	r1, r0, lsr #4
    39a8:	00c70802 	sbceq	r0, r7, r2, lsl #16
    39ac:	0091dc14 	addseq	sp, r1, r4, lsl ip
    39b0:	0005b800 	andeq	fp, r5, r0, lsl #16
    39b4:	00046100 	andeq	r6, r4, r0, lsl #2
    39b8:	50011200 	andpl	r1, r1, r0, lsl #4
    39bc:	50680c05 	rsbpl	r0, r8, r5, lsl #24
    39c0:	01122021 	tsteq	r2, r1, lsr #32
    39c4:	0e0a0351 	mcreq	3, 0, r0, cr10, cr1, {2}
    39c8:	e8140001 	ldmda	r4, {r0}
    39cc:	b8000091 	stmdalt	r0, {r0, r4, r7}
    39d0:	7a000005 	bvc	39ec <__code_start__-0x4614>
    39d4:	12000004 	andne	r0, r0, #4, 0
    39d8:	74025001 	strvc	r5, [r2], #-1
    39dc:	51011200 	mrspl	r1, R9_usr
    39e0:	0f003301 	svceq	0x00003301
    39e4:	000091ec 	andeq	r9, r0, ip, ror #3
    39e8:	000005a0 	andeq	r0, r0, r0, lsr #11
    39ec:	09df0e00 	ldmibeq	pc, {r9, sl, fp}^	; <UNPREDICTABLE>
    39f0:	35010000 	strcc	r0, [r1, #-0]
    39f4:	0092ec06 	addseq	lr, r2, r6, lsl #24
    39f8:	00002400 	andeq	r2, r0, r0, lsl #8
    39fc:	d39c0100 	orrsle	r0, ip, #0
    3a00:	0f000004 	svceq	0x00000004
    3a04:	000092f4 	strdeq	r9, [r0], -r4
    3a08:	00000194 	muleq	r0, r4, r1
    3a0c:	0092f80f 	addseq	pc, r2, pc, lsl #16
    3a10:	0005a000 	andeq	sl, r5, r0
    3a14:	93041400 	movwls	r1, #17408	; 0x4400
    3a18:	04d30000 	ldrbeq	r0, [r3], #0
    3a1c:	04c90000 	strbeq	r0, [r9], #0
    3a20:	01120000 	tsteq	r2, r0
    3a24:	040c0550 	streq	r0, [ip], #-1360	; 0xfffffab0
    3a28:	12202150 	eorne	r2, r0, #20
    3a2c:	09025101 	stmdbeq	r2, {r0, r8, ip, lr}
    3a30:	080f00fe 	stmdaeq	pc, {r1, r2, r3, r4, r5, r6, r7}	; <UNPREDICTABLE>
    3a34:	a0000093 	mulge	r0, r3, r0
    3a38:	00000005 	andeq	r0, r0, r5
    3a3c:	000aaf17 	andeq	sl, sl, r7, lsl pc
    3a40:	0d310100 	ldfeqs	f0, [r1, #-0]
    3a44:	00009120 	andeq	r9, r0, r0, lsr #2
    3a48:	00000020 	andeq	r0, r0, r0, lsr #32
    3a4c:	05369c01 	ldreq	r9, [r6, #-3073]!	; 0xfffff3ff
    3a50:	df180000 	svcle	0x00180000
    3a54:	01000001 	tsteq	r0, r1
    3a58:	05362531 	ldreq	r2, [r6, #-1329]!	; 0xfffffacf
    3a5c:	13000000 	movwne	r0, #0
    3a60:	12fc0000 	rscsne	r0, ip, #0, 0
    3a64:	76130000 	ldrvc	r0, [r3], -r0
    3a68:	01006c61 	tsteq	r0, r1, ror #24
    3a6c:	002c3431 	eoreq	r3, ip, r1, lsr r4
    3a70:	13220000 			; <UNDEFINED> instruction: 0x13220000
    3a74:	131e0000 	tstne	lr, #0, 0
    3a78:	30140000 	andscc	r0, r4, r0
    3a7c:	ac000091 	stcge	0, cr0, [r0], {145}	; 0x91
    3a80:	25000005 	strcs	r0, [r0, #-5]
    3a84:	12000005 	andne	r0, r0, #5, 0
    3a88:	74025001 	strvc	r5, [r2], #-1
    3a8c:	3c110000 	ldccc	0, cr0, [r1], {-0}
    3a90:	b8000091 	stmdalt	r0, {r0, r4, r7}
    3a94:	12000005 	andne	r0, r0, #5, 0
    3a98:	74025001 	strvc	r5, [r2], #-1
    3a9c:	0c000000 	stceq	0, cr0, [r0], {-0}
    3aa0:	00053c04 	andeq	r3, r5, r4, lsl #24
    3aa4:	9a171900 	bls	5c9eac <__bss_end__+0x5c034c>
    3aa8:	0100000a 	tsteq	r0, sl
    3aac:	91400d2e 	cmpls	r0, lr, lsr #26
    3ab0:	00200000 	eoreq	r0, r0, r0
    3ab4:	9c010000 	stcls	0, cr0, [r1], {-0}
    3ab8:	000005a0 	andeq	r0, r0, r0, lsr #11
    3abc:	0001df18 	andeq	sp, r1, r8, lsl pc
    3ac0:	242e0100 	strtcs	r0, [lr], #-256	; 0xffffff00
    3ac4:	00000536 	andeq	r0, r0, r6, lsr r5
    3ac8:	00001344 	andeq	r1, r0, r4, asr #6
    3acc:	00001340 	andeq	r1, r0, r0, asr #6
    3ad0:	6c617613 	stclvs	6, cr7, [r1], #-76	; 0xffffffb4
    3ad4:	332e0100 			; <UNDEFINED> instruction: 0x332e0100
    3ad8:	0000002c 	andeq	r0, r0, ip, lsr #32
    3adc:	00001366 	andeq	r1, r0, r6, ror #6
    3ae0:	00001362 	andeq	r1, r0, r2, ror #6
    3ae4:	00915014 	addseq	r5, r1, r4, lsl r0
    3ae8:	0005ac00 	andeq	sl, r5, r0, lsl #24
    3aec:	00058f00 	andeq	r8, r5, r0, lsl #30
    3af0:	50011200 	andpl	r1, r1, r0, lsl #4
    3af4:	00007402 	andeq	r7, r0, r2, lsl #8
    3af8:	00915c11 	addseq	r5, r1, r1, lsl ip
    3afc:	0005b800 	andeq	fp, r5, r0, lsl #16
    3b00:	50011200 	andpl	r1, r1, r0, lsl #4
    3b04:	00007402 	andeq	r7, r0, r2, lsl #8
    3b08:	03b51a00 			; <UNDEFINED> instruction: 0x03b51a00
    3b0c:	03b50000 			; <UNDEFINED> instruction: 0x03b50000
    3b10:	a1030000 	mrsge	r0, (UNDEF: 3)
    3b14:	03c11a06 	biceq	r1, r1, #24576	; 0x6000
    3b18:	03c10000 	biceq	r0, r1, #0, 0
    3b1c:	c8030000 	stmdagt	r3, {}	; <UNPREDICTABLE>
    3b20:	03431a0b 	movteq	r1, #14859	; 0x3a0b
    3b24:	03430000 	movteq	r0, #12288	; 0x3000
    3b28:	b3030000 	movwlt	r0, #12288	; 0x3000
    3b2c:	03f41a06 	mvnseq	r1, #24576	; 0x6000
    3b30:	03f40000 	mvnseq	r0, #0, 0
    3b34:	19040000 	stmdbne	r4, {}	; <UNPREDICTABLE>
    3b38:	01370006 	teqeq	r7, r6
    3b3c:	00040000 	andeq	r0, r4, r0
    3b40:	00001316 	andeq	r1, r0, r6, lsl r3
    3b44:	04b90104 	ldrteq	r0, [r9], #260	; 0x104
    3b48:	bd0c0000 	stclt	0, cr0, [ip, #-0]
    3b4c:	c600000a 	strgt	r0, [r0], -sl
    3b50:	10000005 	andne	r0, r0, r5
    3b54:	34000093 	strcc	r0, [r0], #-147	; 0xffffff6d
    3b58:	e5000000 	str	r0, [r0, #-0]
    3b5c:	0200001a 	andeq	r0, r0, #26, 0
    3b60:	6e690504 	cdpvs	5, 6, cr0, cr9, cr4, {0}
    3b64:	04030074 	streq	r0, [r3], #-116	; 0xffffff8c
    3b68:	0001a207 	andeq	sl, r1, r7, lsl #4
    3b6c:	06010300 	streq	r0, [r1], -r0, lsl #6
    3b70:	00000024 	andeq	r0, r0, r4, lsr #32
    3b74:	d1050203 	tstle	r5, r3, lsl #4
    3b78:	03000001 	movweq	r0, #1
    3b7c:	01bc0504 			; <UNDEFINED> instruction: 0x01bc0504
    3b80:	08030000 	stmdaeq	r3, {}	; <UNPREDICTABLE>
    3b84:	0001b705 	andeq	fp, r1, r5, lsl #14
    3b88:	08010300 	stmdaeq	r1, {r8, r9}
    3b8c:	00000022 	andeq	r0, r0, r2, lsr #32
    3b90:	9c070203 	sfmls	f0, 4, [r7], {3}
    3b94:	03000000 	movweq	r0, #0
    3b98:	019d0704 	orrseq	r0, sp, r4, lsl #14
    3b9c:	08030000 	stmdaeq	r3, {}	; <UNPREDICTABLE>
    3ba0:	00019807 	andeq	r9, r1, r7, lsl #16
    3ba4:	00250400 	eoreq	r0, r5, r0, lsl #8
    3ba8:	007a0000 	rsbseq	r0, sl, r0
    3bac:	25050000 	strcs	r0, [r5, #-0]
    3bb0:	00000000 	andeq	r0, r0, r0
    3bb4:	0001c506 	andeq	ip, r1, r6, lsl #10
    3bb8:	0e1c0200 	cdpeq	2, 1, cr0, cr12, cr0, {0}
    3bbc:	00000086 	andeq	r0, r0, r6, lsl #1
    3bc0:	006b0407 	rsbeq	r0, fp, r7, lsl #8
    3bc4:	25040000 	strcs	r0, [r4, #-0]
    3bc8:	9b000000 	blls	3bd0 <__code_start__-0x4430>
    3bcc:	05000000 	streq	r0, [r0, #-0]
    3bd0:	0000009b 	muleq	r0, fp, r0
    3bd4:	a8040700 	stmdage	r4, {r8, r9, sl}
    3bd8:	03000000 	movweq	r0, #0
    3bdc:	002b0801 	eoreq	r0, fp, r1, lsl #16
    3be0:	a1080000 	mrsge	r0, (UNDEF: 8)
    3be4:	06000000 	streq	r0, [r0], -r0
    3be8:	0000069e 	muleq	r0, lr, r6
    3bec:	b90e2102 	stmdblt	lr, {r1, r8, sp}
    3bf0:	07000000 	streq	r0, [r0, -r0]
    3bf4:	00008c04 	andeq	r8, r0, r4, lsl #24
    3bf8:	07660900 	strbeq	r0, [r6, -r0, lsl #18]!
    3bfc:	04010000 	streq	r0, [r1], #-0
    3c00:	00013407 	andeq	r3, r1, r7, lsl #8
    3c04:	00931000 	addseq	r1, r3, r0
    3c08:	00003400 	andeq	r3, r0, r0, lsl #8
    3c0c:	349c0100 	ldrcc	r0, [ip], #256	; 0x100
    3c10:	0a000001 	beq	3c1c <__code_start__-0x43e4>
    3c14:	00000ab8 			; <UNDEFINED> instruction: 0x00000ab8
    3c18:	34150401 	ldrcc	r0, [r5], #-1025	; 0xfffffbff
    3c1c:	01000001 	tsteq	r0, r1
    3c20:	72730b50 	rsbsvc	r0, r3, #80, 22	; 0x14000
    3c24:	04010063 	streq	r0, [r1], #-99	; 0xffffff9d
    3c28:	00009b27 	andeq	r9, r0, r7, lsr #22
    3c2c:	00138800 	andseq	r8, r3, r0, lsl #16
    3c30:	00138400 	andseq	r8, r3, r0, lsl #8
    3c34:	31730c00 	cmncc	r3, r0, lsl #24
    3c38:	0b050100 	bleq	144040 <__bss_end__+0x13a4e0>
    3c3c:	00000134 	andeq	r0, r0, r4, lsr r1
    3c40:	000013b3 			; <UNDEFINED> instruction: 0x000013b3
    3c44:	000013a9 	andeq	r1, r0, r9, lsr #7
    3c48:	0032730c 	eorseq	r7, r2, ip, lsl #6
    3c4c:	9b110601 	blls	445458 <__bss_end__+0x43b8f8>
    3c50:	f8000000 			; <UNDEFINED> instruction: 0xf8000000
    3c54:	f4000013 	vst4.8	{d0-d3}, [r0 :64], r3
    3c58:	0c000013 	stceq	0, cr0, [r0], {19}
    3c5c:	07010063 	streq	r0, [r1, -r3, rrx]
    3c60:	0000a10a 	andeq	sl, r0, sl, lsl #2
    3c64:	00141c00 	andseq	r1, r4, r0, lsl #24
    3c68:	00141800 	andseq	r1, r4, r0, lsl #16
    3c6c:	04070000 	streq	r0, [r7], #-0
    3c70:	000000a1 	andeq	r0, r0, r1, lsr #1
    3c74:	0000f700 	andeq	pc, r0, r0, lsl #14
    3c78:	cc000400 	cfstrsgt	mvf0, [r0], {-0}
    3c7c:	04000013 	streq	r0, [r0], #-19	; 0xffffffed
    3c80:	0004b901 	andeq	fp, r4, r1, lsl #18
    3c84:	0acd0c00 	beq	ff346c8c <__bss_end__+0xff33d12c>
    3c88:	05c60000 	strbeq	r0, [r6]
    3c8c:	93440000 	movtls	r0, #16384	; 0x4000
    3c90:	002c0000 	eoreq	r0, ip, r0
    3c94:	1bf30000 	blne	ffcc3c9c <__bss_end__+0xffcba13c>
    3c98:	04020000 	streq	r0, [r2], #-0
    3c9c:	746e6905 	strbtvc	r6, [lr], #-2309	; 0xfffff6fb
    3ca0:	07040300 	streq	r0, [r4, -r0, lsl #6]
    3ca4:	000001a2 	andeq	r0, r0, r2, lsr #3
    3ca8:	24060103 	strcs	r0, [r6], #-259	; 0xfffffefd
    3cac:	03000000 	movweq	r0, #0
    3cb0:	01d10502 	bicseq	r0, r1, r2, lsl #10
    3cb4:	04030000 	streq	r0, [r3], #-0
    3cb8:	0001bc05 	andeq	fp, r1, r5, lsl #24
    3cbc:	05080300 	streq	r0, [r8, #-768]	; 0xfffffd00
    3cc0:	000001b7 			; <UNDEFINED> instruction: 0x000001b7
    3cc4:	22080103 	andcs	r0, r8, #-1073741824	; 0xc0000000
    3cc8:	03000000 	movweq	r0, #0
    3ccc:	009c0702 	addseq	r0, ip, r2, lsl #14
    3cd0:	04030000 	streq	r0, [r3], #-0
    3cd4:	00019d07 	andeq	r9, r1, r7, lsl #26
    3cd8:	07080300 	streq	r0, [r8, -r0, lsl #6]
    3cdc:	00000198 	muleq	r0, r8, r1
    3ce0:	00002504 	andeq	r2, r0, r4, lsl #10
    3ce4:	00007a00 	andeq	r7, r0, r0, lsl #20
    3ce8:	00250500 	eoreq	r0, r5, r0, lsl #10
    3cec:	06000000 	streq	r0, [r0], -r0
    3cf0:	000001c5 	andeq	r0, r0, r5, asr #3
    3cf4:	860e1c02 	strhi	r1, [lr], -r2, lsl #24
    3cf8:	07000000 	streq	r0, [r0, -r0]
    3cfc:	00006b04 	andeq	r6, r0, r4, lsl #22
    3d00:	00250400 	eoreq	r0, r5, r0, lsl #8
    3d04:	009b0000 	addseq	r0, fp, r0
    3d08:	9b050000 	blls	143d10 <__bss_end__+0x13a1b0>
    3d0c:	00000000 	andeq	r0, r0, r0
    3d10:	00a80407 	adceq	r0, r8, r7, lsl #8
    3d14:	01030000 	mrseq	r0, (UNDEF: 3)
    3d18:	00002b08 	andeq	r2, r0, r8, lsl #22
    3d1c:	00a10800 	adceq	r0, r1, r0, lsl #16
    3d20:	9e060000 	cdpls	0, 0, cr0, cr6, cr0, {0}
    3d24:	02000006 	andeq	r0, r0, #6, 0
    3d28:	00b90e21 	adcseq	r0, r9, r1, lsr #28
    3d2c:	04070000 	streq	r0, [r7], #-0
    3d30:	0000008c 	andeq	r0, r0, ip, lsl #1
    3d34:	0007a309 	andeq	sl, r7, r9, lsl #6
    3d38:	05030100 	streq	r0, [r3, #-256]	; 0xffffff00
    3d3c:	00000025 	andeq	r0, r0, r5, lsr #32
    3d40:	00009344 	andeq	r9, r0, r4, asr #6
    3d44:	0000002c 	andeq	r0, r0, ip, lsr #32
    3d48:	610a9c01 	tstvs	sl, r1, lsl #24
    3d4c:	18030100 	stmdane	r3, {r8}
    3d50:	0000009b 	muleq	r0, fp, r0
    3d54:	0000143e 	andeq	r1, r0, lr, lsr r4
    3d58:	0000143a 	andeq	r1, r0, sl, lsr r4
    3d5c:	0100620a 	tsteq	r0, sl, lsl #4
    3d60:	009b2703 	addseq	r2, fp, r3, lsl #14
    3d64:	14600000 	strbtne	r0, [r0], #-0
    3d68:	145c0000 	ldrbne	r0, [ip], #-0
    3d6c:	00000000 	andeq	r0, r0, r0
    3d70:	0000010f 	andeq	r0, r0, pc, lsl #2
    3d74:	145b0004 	ldrbne	r0, [fp], #-4
    3d78:	01040000 	mrseq	r0, (UNDEF: 4)
    3d7c:	000004b9 			; <UNDEFINED> instruction: 0x000004b9
    3d80:	000add0c 	andeq	sp, sl, ip, lsl #26
    3d84:	0005c600 	andeq	ip, r5, r0, lsl #12
    3d88:	00937000 	addseq	r7, r3, r0
    3d8c:	00002000 	andeq	r2, r0, r0
    3d90:	001cba00 	andseq	fp, ip, r0, lsl #20
    3d94:	05040200 	streq	r0, [r4, #-512]	; 0xfffffe00
    3d98:	00746e69 	rsbseq	r6, r4, r9, ror #28
    3d9c:	a2070403 	andge	r0, r7, #50331648	; 0x3000000
    3da0:	03000001 	movweq	r0, #1
    3da4:	00240601 	eoreq	r0, r4, r1, lsl #12
    3da8:	02030000 	andeq	r0, r3, #0, 0
    3dac:	0001d105 	andeq	sp, r1, r5, lsl #2
    3db0:	05040300 	streq	r0, [r4, #-768]	; 0xfffffd00
    3db4:	000001bc 			; <UNDEFINED> instruction: 0x000001bc
    3db8:	b7050803 	strlt	r0, [r5, -r3, lsl #16]
    3dbc:	03000001 	movweq	r0, #1
    3dc0:	00220801 	eoreq	r0, r2, r1, lsl #16
    3dc4:	02030000 	andeq	r0, r3, #0, 0
    3dc8:	00009c07 	andeq	r9, r0, r7, lsl #24
    3dcc:	07040300 	streq	r0, [r4, -r0, lsl #6]
    3dd0:	0000019d 	muleq	r0, sp, r1
    3dd4:	98070803 	stmdals	r7, {r0, r1, fp}
    3dd8:	04000001 	streq	r0, [r0], #-1
    3ddc:	00000025 	andeq	r0, r0, r5, lsr #32
    3de0:	0000007a 	andeq	r0, r0, sl, ror r0
    3de4:	00002505 	andeq	r2, r0, r5, lsl #10
    3de8:	c5060000 	strgt	r0, [r6, #-0]
    3dec:	02000001 	andeq	r0, r0, #1, 0
    3df0:	00860e1c 	addeq	r0, r6, ip, lsl lr
    3df4:	04070000 	streq	r0, [r7], #-0
    3df8:	0000006b 	andeq	r0, r0, fp, rrx
    3dfc:	00002504 	andeq	r2, r0, r4, lsl #10
    3e00:	00009b00 	andeq	r9, r0, r0, lsl #22
    3e04:	009b0500 	addseq	r0, fp, r0, lsl #10
    3e08:	07000000 	streq	r0, [r0, -r0]
    3e0c:	0000a804 	andeq	sl, r0, r4, lsl #16
    3e10:	08010300 	stmdaeq	r1, {r8, r9}
    3e14:	0000002b 	andeq	r0, r0, fp, lsr #32
    3e18:	0000a108 	andeq	sl, r0, r8, lsl #2
    3e1c:	069e0600 	ldreq	r0, [lr], r0, lsl #12
    3e20:	21020000 	mrscs	r0, (UNDEF: 2)
    3e24:	0000b90e 	andeq	fp, r0, lr, lsl #18
    3e28:	8c040700 	stchi	7, cr0, [r4], {-0}
    3e2c:	09000000 	stmdbeq	r0, {}	; <UNPREDICTABLE>
    3e30:	0000076d 	andeq	r0, r0, sp, ror #14
    3e34:	0c070301 	stceq	3, cr0, [r7], {1}
    3e38:	70000001 	andvc	r0, r0, r1
    3e3c:	20000093 	mulcs	r0, r3, r0
    3e40:	01000000 	mrseq	r0, (UNDEF: 0)
    3e44:	00010c9c 	muleq	r1, ip, ip
    3e48:	31730a00 	cmncc	r3, r0, lsl #20
    3e4c:	15030100 	strne	r0, [r3, #-256]	; 0xffffff00
    3e50:	0000010c 	andeq	r0, r0, ip, lsl #2
    3e54:	730b5001 	movwvc	r5, #45057	; 0xb001
    3e58:	03010032 	movweq	r0, #4146	; 0x1032
    3e5c:	00009b26 	andeq	r9, r0, r6, lsr #22
    3e60:	00148400 	andseq	r8, r4, r0, lsl #8
    3e64:	00147e00 	andseq	r7, r4, r0, lsl #28
    3e68:	00730c00 	rsbseq	r0, r3, r0, lsl #24
    3e6c:	0c140401 	cfldrseq	mvf0, [r4], {1}
    3e70:	b5000001 	strlt	r0, [r0, #-1]
    3e74:	af000014 	svcge	0x00000014
    3e78:	00000014 	andeq	r0, r0, r4, lsl r0
    3e7c:	00a10407 	adceq	r0, r1, r7, lsl #8
    3e80:	4e000000 	cdpmi	0, 0, cr0, cr0, cr0, {0}
    3e84:	04000001 	streq	r0, [r0], #-1
    3e88:	00151100 	andseq	r1, r5, r0, lsl #2
    3e8c:	b9010400 	stmdblt	r1, {sl}
    3e90:	0c000004 	stceq	0, cr0, [r0], {4}
    3e94:	00000af4 	strdeq	r0, [r0], -r4
    3e98:	000005c6 	andeq	r0, r0, r6, asr #11
    3e9c:	00000028 	andeq	r0, r0, r8, lsr #32
    3ea0:	00000000 	andeq	r0, r0, r0
    3ea4:	00001d7f 	andeq	r1, r0, pc, ror sp
    3ea8:	69050402 	stmdbvs	r5, {r1, sl}
    3eac:	0300746e 	movweq	r7, #1134	; 0x46e
    3eb0:	00000aed 	andeq	r0, r0, sp, ror #21
    3eb4:	3817d103 	ldmdacc	r7, {r0, r1, r8, ip, lr, pc}
    3eb8:	04000000 	streq	r0, [r0], #-0
    3ebc:	01a20704 			; <UNDEFINED> instruction: 0x01a20704
    3ec0:	01040000 	mrseq	r0, (UNDEF: 4)
    3ec4:	00002406 	andeq	r2, r0, r6, lsl #8
    3ec8:	05020400 	streq	r0, [r2, #-1024]	; 0xfffffc00
    3ecc:	000001d1 	ldrdeq	r0, [r0], -r1
    3ed0:	bc050404 	cfstrslt	mvf0, [r5], {4}
    3ed4:	04000001 	streq	r0, [r0], #-1
    3ed8:	01b70508 			; <UNDEFINED> instruction: 0x01b70508
    3edc:	01040000 	mrseq	r0, (UNDEF: 4)
    3ee0:	00002208 	andeq	r2, r0, r8, lsl #4
    3ee4:	005b0500 	subseq	r0, fp, r0, lsl #10
    3ee8:	02040000 	andeq	r0, r4, #0, 0
    3eec:	00009c07 	andeq	r9, r0, r7, lsl #24
    3ef0:	07040400 	streq	r0, [r4, -r0, lsl #8]
    3ef4:	0000019d 	muleq	r0, sp, r1
    3ef8:	98070804 	stmdals	r7, {r2, fp}
    3efc:	06000001 	streq	r0, [r0], -r1
    3f00:	00000025 	andeq	r0, r0, r5, lsr #32
    3f04:	0000008b 	andeq	r0, r0, fp, lsl #1
    3f08:	00002507 	andeq	r2, r0, r7, lsl #10
    3f0c:	c5080000 	strgt	r0, [r8, #-0]
    3f10:	02000001 	andeq	r0, r0, #1, 0
    3f14:	00970e1c 	addseq	r0, r7, ip, lsl lr
    3f18:	04090000 	streq	r0, [r9], #-0
    3f1c:	0000007c 	andeq	r0, r0, ip, ror r0
    3f20:	00002506 	andeq	r2, r0, r6, lsl #10
    3f24:	0000ac00 	andeq	sl, r0, r0, lsl #24
    3f28:	00ac0700 	adceq	r0, ip, r0, lsl #14
    3f2c:	09000000 	stmdbeq	r0, {}	; <UNPREDICTABLE>
    3f30:	0000b904 	andeq	fp, r0, r4, lsl #18
    3f34:	08010400 	stmdaeq	r1, {sl}
    3f38:	0000002b 	andeq	r0, r0, fp, lsr #32
    3f3c:	0000b205 	andeq	fp, r0, r5, lsl #4
    3f40:	069e0800 	ldreq	r0, [lr], r0, lsl #16
    3f44:	21020000 	mrscs	r0, (UNDEF: 2)
    3f48:	0000ca0e 	andeq	ip, r0, lr, lsl #20
    3f4c:	9d040900 	vstrls.16	s0, [r4, #-0]	; <UNPREDICTABLE>
    3f50:	0a000000 	beq	3f58 <__code_start__-0x40a8>
    3f54:	000007cb 	andeq	r0, r0, fp, asr #15
    3f58:	25050401 	strcs	r0, [r5, #-1025]	; 0xfffffbff
    3f5c:	90000000 	andls	r0, r0, r0
    3f60:	2c000093 	stccs	0, cr0, [r0], {147}	; 0x93
    3f64:	01000000 	mrseq	r0, (UNDEF: 0)
    3f68:	00014b9c 	muleq	r1, ip, fp
    3f6c:	735f0b00 	cmpvc	pc, #0, 22
    3f70:	04010031 	streq	r0, [r1], #-49	; 0xffffffcf
    3f74:	0000ac19 	andeq	sl, r0, r9, lsl ip
    3f78:	0014e400 	andseq	lr, r4, r0, lsl #8
    3f7c:	0014e000 	andseq	lr, r4, r0
    3f80:	735f0b00 	cmpvc	pc, #0, 22
    3f84:	04010032 	streq	r0, [r1], #-50	; 0xffffffce
    3f88:	0000ac2a 	andeq	sl, r0, sl, lsr #24
    3f8c:	00150900 	andseq	r0, r5, r0, lsl #18
    3f90:	00150500 	andseq	r0, r5, r0, lsl #10
    3f94:	006e0b00 	rsbeq	r0, lr, r0, lsl #22
    3f98:	2c360401 	cfldrscs	mvf0, [r6], #-4
    3f9c:	30000000 	andcc	r0, r0, r0
    3fa0:	2a000015 	bcs	3ffc <__code_start__-0x4004>
    3fa4:	0c000015 	stceq	0, cr0, [r0], {21}
    3fa8:	01003173 	tsteq	r0, r3, ror r1
    3fac:	014b1a05 	cmpeq	fp, r5, lsl #20
    3fb0:	15630000 	strbne	r0, [r3, #-0]!
    3fb4:	155b0000 	ldrbne	r0, [fp, #-0]
    3fb8:	730c0000 	movwvc	r0, #49152	; 0xc000
    3fbc:	05010032 	streq	r0, [r1, #-50]	; 0xffffffce
    3fc0:	00014b2c 	andeq	r4, r1, ip, lsr #22
    3fc4:	00159f00 	andseq	r9, r5, r0, lsl #30
    3fc8:	00159900 	andseq	r9, r5, r0, lsl #18
    3fcc:	04090000 	streq	r0, [r9], #-0
    3fd0:	00000062 	andeq	r0, r0, r2, rrx
    3fd4:	0000ce00 	andeq	ip, r0, r0, lsl #28
    3fd8:	c5000400 	strgt	r0, [r0, #-1024]	; 0xfffffc00
    3fdc:	04000015 	streq	r0, [r0], #-21	; 0xffffffeb
    3fe0:	0004b901 	andeq	fp, r4, r1, lsl #18
    3fe4:	0b050c00 	bleq	146fec <__bss_end__+0x13d48c>
    3fe8:	05c60000 	strbeq	r0, [r6]
    3fec:	93bc0000 			; <UNDEFINED> instruction: 0x93bc0000
    3ff0:	00040000 	andeq	r0, r4, r0
    3ff4:	1ea40000 	cdpne	0, 10, cr0, cr4, cr0, {0}
    3ff8:	04020000 	streq	r0, [r2], #-0
    3ffc:	746e6905 	strbtvc	r6, [lr], #-2309	; 0xfffff6fb
    4000:	07040300 	streq	r0, [r4, -r0, lsl #6]
    4004:	000001a2 	andeq	r0, r0, r2, lsr #3
    4008:	24060103 	strcs	r0, [r6], #-259	; 0xfffffefd
    400c:	03000000 	movweq	r0, #0
    4010:	01d10502 	bicseq	r0, r1, r2, lsl #10
    4014:	04030000 	streq	r0, [r3], #-0
    4018:	0001bc05 	andeq	fp, r1, r5, lsl #24
    401c:	05080300 	streq	r0, [r8, #-768]	; 0xfffffd00
    4020:	000001b7 			; <UNDEFINED> instruction: 0x000001b7
    4024:	22080103 	andcs	r0, r8, #-1073741824	; 0xc0000000
    4028:	03000000 	movweq	r0, #0
    402c:	009c0702 	addseq	r0, ip, r2, lsl #14
    4030:	04030000 	streq	r0, [r3], #-0
    4034:	00019d07 	andeq	r9, r1, r7, lsl #26
    4038:	07080300 	streq	r0, [r8, -r0, lsl #6]
    403c:	00000198 	muleq	r0, r8, r1
    4040:	00002504 	andeq	r2, r0, r4, lsl #10
    4044:	00007a00 	andeq	r7, r0, r0, lsl #20
    4048:	00250500 	eoreq	r0, r5, r0, lsl #10
    404c:	06000000 	streq	r0, [r0], -r0
    4050:	000001c5 	andeq	r0, r0, r5, asr #3
    4054:	860e1c02 	strhi	r1, [lr], -r2, lsl #24
    4058:	07000000 	streq	r0, [r0, -r0]
    405c:	00006b04 	andeq	r6, r0, r4, lsl #22
    4060:	00250400 	eoreq	r0, r5, r0, lsl #8
    4064:	009b0000 	addseq	r0, fp, r0
    4068:	9b050000 	blls	144070 <__bss_end__+0x13a510>
    406c:	00000000 	andeq	r0, r0, r0
    4070:	00a80407 	adceq	r0, r8, r7, lsl #8
    4074:	01030000 	mrseq	r0, (UNDEF: 3)
    4078:	00002b08 	andeq	r2, r0, r8, lsl #22
    407c:	00a10800 	adceq	r0, r1, r0, lsl #16
    4080:	9e060000 	cdpls	0, 0, cr0, cr6, cr0, {0}
    4084:	02000006 	andeq	r0, r0, #6, 0
    4088:	00b90e21 	adcseq	r0, r9, r1, lsr #28
    408c:	04070000 	streq	r0, [r7], #-0
    4090:	0000008c 	andeq	r0, r0, ip, lsl #1
    4094:	00088109 	andeq	r8, r8, r9, lsl #2
    4098:	06030100 	streq	r0, [r3], -r0, lsl #2
    409c:	000093bc 			; <UNDEFINED> instruction: 0x000093bc
    40a0:	00000004 	andeq	r0, r0, r4
    40a4:	Address 0x00000000000040a4 is out of bounds.


Disassembly of section .debug_abbrev:

00000000 <.debug_abbrev>:
       0:	25011101 	strcs	r1, [r1, #-257]	; 0xfffffeff
       4:	030b130e 	movweq	r1, #45838	; 0xb30e
       8:	110e1b0e 	tstne	lr, lr, lsl #22
       c:	10061201 	andne	r1, r6, r1, lsl #4
      10:	02000017 	andeq	r0, r0, #23, 0
      14:	0b0b0024 	bleq	2c00ac <__bss_end__+0x2b654c>
      18:	08030b3e 	stmdaeq	r3, {r1, r2, r3, r4, r5, r8, r9, fp}
      1c:	24030000 	strcs	r0, [r3], #-0
      20:	3e0b0b00 	vmlacc.f64	d0, d11, d0
      24:	000e030b 	andeq	r0, lr, fp, lsl #6
      28:	00160400 	andseq	r0, r6, r0, lsl #8
      2c:	0b3a0e03 	bleq	e83840 <__bss_end__+0xe79ce0>
      30:	0b390b3b 	bleq	e42d24 <__bss_end__+0xe391c4>
      34:	00001349 	andeq	r1, r0, r9, asr #6
      38:	27011505 	strcs	r1, [r1, -r5, lsl #10]
      3c:	01134919 	tsteq	r3, r9, lsl r9
      40:	06000013 			; <UNDEFINED> instruction: 0x06000013
      44:	13490005 	movtne	r0, #36869	; 0x9005
      48:	34070000 	strcc	r0, [r7], #-0
      4c:	3a0e0300 	bcc	380c54 <__bss_end__+0x3770f4>
      50:	390b3b0b 	stmdbcc	fp, {r0, r1, r3, r8, r9, fp, ip, sp}
      54:	3f13490b 	svccc	0x0013490b
      58:	00193c19 	andseq	r3, r9, r9, lsl ip
      5c:	000f0800 	andeq	r0, pc, r0, lsl #16
      60:	13490b0b 	movtne	r0, #39691	; 0x9b0b
      64:	26090000 	strcs	r0, [r9], -r0
      68:	00134900 	andseq	r4, r3, r0, lsl #18
      6c:	01040a00 	tsteq	r4, r0, lsl #20
      70:	0b0b0b3e 	bleq	2c2d70 <__bss_end__+0x2b9210>
      74:	0b3a1349 	bleq	e84da0 <__bss_end__+0xe7b240>
      78:	0b390b3b 	bleq	e42d6c <__bss_end__+0xe3920c>
      7c:	00001301 	andeq	r1, r0, r1, lsl #6
      80:	0300280b 	movweq	r2, #2059	; 0x80b
      84:	000b1c0e 	andeq	r1, fp, lr, lsl #24
      88:	012e0c00 			; <UNDEFINED> instruction: 0x012e0c00
      8c:	0e03193f 			; <UNDEFINED> instruction: 0x0e03193f
      90:	0b3b0b3a 	bleq	ec2d80 <__bss_end__+0xeb9220>
      94:	19270b39 	stmdbne	r7!, {r0, r3, r4, r5, r8, r9, fp}
      98:	06120111 			; <UNDEFINED> instruction: 0x06120111
      9c:	42971840 	addsmi	r1, r7, #64, 16	; 0x400000
      a0:	00130119 	andseq	r0, r3, r9, lsl r1
      a4:	00340d00 	eorseq	r0, r4, r0, lsl #26
      a8:	0b3a0e03 	bleq	e838bc <__bss_end__+0xe79d5c>
      ac:	0b390b3b 	bleq	e42da0 <__bss_end__+0xe39240>
      b0:	17021349 	strne	r1, [r2, -r9, asr #6]
      b4:	001742b7 			; <UNDEFINED> instruction: 0x001742b7
      b8:	010b0e00 	tsteq	fp, r0, lsl #28
      bc:	06120111 			; <UNDEFINED> instruction: 0x06120111
      c0:	00001301 	andeq	r1, r0, r1, lsl #6
      c4:	0300340f 	movweq	r3, #1039	; 0x40f
      c8:	3b0b3a08 	blcc	2ce8f0 <__bss_end__+0x2c4d90>
      cc:	490b390b 	stmdbmi	fp, {r0, r1, r3, r8, fp, ip, sp}
      d0:	b7170213 			; <UNDEFINED> instruction: 0xb7170213
      d4:	00001742 	andeq	r1, r0, r2, asr #14
      d8:	11010b10 	tstne	r1, r0, lsl fp
      dc:	00061201 	andeq	r1, r6, r1, lsl #4
      e0:	82891100 	addhi	r1, r9, #0
      e4:	01110101 	tsteq	r1, r1, lsl #2
      e8:	13011331 	movwne	r1, #4913	; 0x1331
      ec:	8a120000 	bhi	4800f4 <__bss_end__+0x476594>
      f0:	02000182 	andeq	r0, r0, #-2147483616	; 0x80000020
      f4:	18429118 	stmdane	r2, {r3, r4, r8, ip, pc}^
      f8:	89130000 	ldmdbhi	r3, {}	; <UNPREDICTABLE>
      fc:	11010182 	smlabbne	r1, r2, r1, r0
     100:	00133101 	andseq	r3, r3, r1, lsl #2
     104:	82891400 	addhi	r1, r9, #0, 8
     108:	01110001 	tsteq	r1, r1
     10c:	00001331 	andeq	r1, r0, r1, lsr r3
     110:	3f002e15 	svccc	0x00002e15
     114:	6e193c19 	mrcvs	12, 0, r3, cr9, cr9, {0}
     118:	3a0e030e 	bcc	380d58 <__bss_end__+0x3771f8>
     11c:	390b3b0b 	stmdbcc	fp, {r0, r1, r3, r8, r9, fp, ip, sp}
     120:	0000000b 	andeq	r0, r0, fp
     124:	25011101 	strcs	r1, [r1, #-257]	; 0xfffffeff
     128:	030b130e 	movweq	r1, #45838	; 0xb30e
     12c:	110e1b0e 	tstne	lr, lr, lsl #22
     130:	10061201 	andne	r1, r6, r1, lsl #4
     134:	02000017 	andeq	r0, r0, #23, 0
     138:	0b0b0024 	bleq	2c01d0 <__bss_end__+0x2b6670>
     13c:	08030b3e 	stmdaeq	r3, {r1, r2, r3, r4, r5, r8, r9, fp}
     140:	24030000 	strcs	r0, [r3], #-0
     144:	3e0b0b00 	vmlacc.f64	d0, d11, d0
     148:	000e030b 	andeq	r0, lr, fp, lsl #6
     14c:	00160400 	andseq	r0, r6, r0, lsl #8
     150:	0b3a0e03 	bleq	e83964 <__bss_end__+0xe79e04>
     154:	0b390b3b 	bleq	e42e48 <__bss_end__+0xe392e8>
     158:	00001349 	andeq	r1, r0, r9, asr #6
     15c:	49002605 	stmdbmi	r0, {r0, r2, r9, sl, sp}
     160:	06000013 			; <UNDEFINED> instruction: 0x06000013
     164:	19270115 	stmdbne	r7!, {r0, r2, r4, r8}
     168:	13011349 	movwne	r1, #4937	; 0x1349
     16c:	05070000 	streq	r0, [r7, #-0]
     170:	00134900 	andseq	r4, r3, r0, lsl #18
     174:	00340800 	eorseq	r0, r4, r0, lsl #16
     178:	0b3a0e03 	bleq	e8398c <__bss_end__+0xe79e2c>
     17c:	0b390b3b 	bleq	e42e70 <__bss_end__+0xe39310>
     180:	193f1349 	ldmdbne	pc!, {r0, r3, r6, r8, r9, ip}	; <UNPREDICTABLE>
     184:	0000193c 	andeq	r1, r0, ip, lsr r9
     188:	0b000f09 	bleq	3db4 <__code_start__-0x424c>
     18c:	0013490b 	andseq	r4, r3, fp, lsl #18
     190:	01040a00 	tsteq	r4, r0, lsl #20
     194:	0b0b0b3e 	bleq	2c2e94 <__bss_end__+0x2b9334>
     198:	0b3a1349 	bleq	e84ec4 <__bss_end__+0xe7b364>
     19c:	0b390b3b 	bleq	e42e90 <__bss_end__+0xe39330>
     1a0:	00001301 	andeq	r1, r0, r1, lsl #6
     1a4:	0300280b 	movweq	r2, #2059	; 0x80b
     1a8:	000b1c0e 	andeq	r1, fp, lr, lsl #24
     1ac:	00340c00 	eorseq	r0, r4, r0, lsl #24
     1b0:	0b3a0e03 	bleq	e839c4 <__bss_end__+0xe79e64>
     1b4:	0b390b3b 	bleq	e42ea8 <__bss_end__+0xe39348>
     1b8:	051c1349 	ldreq	r1, [ip, #-841]	; 0xfffffcb7
     1bc:	2e0d0000 	cdpcs	0, 0, cr0, cr13, cr0, {0}
     1c0:	03193f01 	tsteq	r9, #1, 30
     1c4:	3b0b3a0e 	blcc	2cea04 <__bss_end__+0x2c4ea4>
     1c8:	270b390b 	strcs	r3, [fp, -fp, lsl #18]
     1cc:	11134919 	tstne	r3, r9, lsl r9
     1d0:	40061201 	andmi	r1, r6, r1, lsl #4
     1d4:	19429718 	stmdbne	r2, {r3, r4, r8, r9, sl, ip, pc}^
     1d8:	00001301 	andeq	r1, r0, r1, lsl #6
     1dc:	0300340e 	movweq	r3, #1038	; 0x40e
     1e0:	3b0b3a08 	blcc	2cea08 <__bss_end__+0x2c4ea8>
     1e4:	490b390b 	stmdbmi	fp, {r0, r1, r3, r8, fp, ip, sp}
     1e8:	b7170213 			; <UNDEFINED> instruction: 0xb7170213
     1ec:	00001742 	andeq	r1, r0, r2, asr #14
     1f0:	0300340f 	movweq	r3, #1039	; 0x40f
     1f4:	3413490e 	ldrcc	r4, [r3], #-2318	; 0xfffff6f2
     1f8:	00180219 	andseq	r0, r8, r9, lsl r2
     1fc:	00341000 	eorseq	r1, r4, r0
     200:	0b3a0e03 	bleq	e83a14 <__bss_end__+0xe79eb4>
     204:	0b390b3b 	bleq	e42ef8 <__bss_end__+0xe39398>
     208:	17021349 	strne	r1, [r2, -r9, asr #6]
     20c:	001742b7 			; <UNDEFINED> instruction: 0x001742b7
     210:	82891100 	addhi	r1, r9, #0
     214:	01110101 	tsteq	r1, r1, lsl #2
     218:	13011331 	movwne	r1, #4913	; 0x1331
     21c:	8a120000 	bhi	480224 <__bss_end__+0x4766c4>
     220:	02000182 	andeq	r0, r0, #-2147483616	; 0x80000020
     224:	18429118 	stmdane	r2, {r3, r4, r8, ip, pc}^
     228:	89130000 	ldmdbhi	r3, {}	; <UNPREDICTABLE>
     22c:	11000182 	smlabbne	r0, r2, r1, r0
     230:	00133101 	andseq	r3, r3, r1, lsl #2
     234:	01011400 	tsteq	r1, r0, lsl #8
     238:	13011349 	movwne	r1, #4937	; 0x1349
     23c:	21150000 	tstcs	r5, r0
     240:	2f134900 	svccs	0x00134900
     244:	1600000b 	strne	r0, [r0], -fp
     248:	0e030005 	cdpeq	0, 0, cr0, cr3, cr5, {0}
     24c:	0b3b0b3a 	bleq	ec2f3c <__bss_end__+0xeb93dc>
     250:	13490b39 	movtne	r0, #39737	; 0x9b39
     254:	42b71702 	adcsmi	r1, r7, #524288	; 0x80000
     258:	17000017 	smladne	r0, r7, r0, r0
     25c:	08030005 	stmdaeq	r3, {r0, r2}
     260:	0b3b0b3a 	bleq	ec2f50 <__bss_end__+0xeb93f0>
     264:	13490b39 	movtne	r0, #39737	; 0x9b39
     268:	42b71702 	adcsmi	r1, r7, #524288	; 0x80000
     26c:	18000017 	stmdane	r0, {r0, r1, r2, r4}
     270:	0e030034 	mcreq	0, 0, r0, cr3, cr4, {1}
     274:	0b3b0b3a 	bleq	ec2f64 <__bss_end__+0xeb9404>
     278:	13490b39 	movtne	r0, #39737	; 0x9b39
     27c:	00001802 	andeq	r1, r0, r2, lsl #16
     280:	03003419 	movweq	r3, #1049	; 0x419
     284:	3b0b3a08 	blcc	2ceaac <__bss_end__+0x2c4f4c>
     288:	490b390b 	stmdbmi	fp, {r0, r1, r3, r8, fp, ip, sp}
     28c:	00180213 	andseq	r0, r8, r3, lsl r2
     290:	82891a00 	addhi	r1, r9, #0, 20
     294:	01110101 	tsteq	r1, r1, lsl #2
     298:	00001331 	andeq	r1, r0, r1, lsr r3
     29c:	3f012e1b 	svccc	0x00012e1b
     2a0:	3a0e0319 	bcc	380f0c <__bss_end__+0x3773ac>
     2a4:	390b3b0b 	stmdbcc	fp, {r0, r1, r3, r8, r9, fp, ip, sp}
     2a8:	1119270b 	tstne	r9, fp, lsl #14
     2ac:	40061201 	andmi	r1, r6, r1, lsl #4
     2b0:	19429718 	stmdbne	r2, {r3, r4, r8, r9, sl, ip, pc}^
     2b4:	00001301 	andeq	r1, r0, r1, lsl #6
     2b8:	3f002e1c 	svccc	0x00002e1c
     2bc:	6e193c19 	mrcvs	12, 0, r3, cr9, cr9, {0}
     2c0:	3a0e030e 	bcc	380f00 <__bss_end__+0x3773a0>
     2c4:	390b3b0b 	stmdbcc	fp, {r0, r1, r3, r8, r9, fp, ip, sp}
     2c8:	0000000b 	andeq	r0, r0, fp
     2cc:	25011101 	strcs	r1, [r1, #-257]	; 0xfffffeff
     2d0:	030b130e 	movweq	r1, #45838	; 0xb30e
     2d4:	110e1b0e 	tstne	lr, lr, lsl #22
     2d8:	10061201 	andne	r1, r6, r1, lsl #4
     2dc:	02000017 	andeq	r0, r0, #23, 0
     2e0:	0b0b0024 	bleq	2c0378 <__bss_end__+0x2b6818>
     2e4:	08030b3e 	stmdaeq	r3, {r1, r2, r3, r4, r5, r8, r9, fp}
     2e8:	24030000 	strcs	r0, [r3], #-0
     2ec:	3e0b0b00 	vmlacc.f64	d0, d11, d0
     2f0:	000e030b 	andeq	r0, lr, fp, lsl #6
     2f4:	00160400 	andseq	r0, r6, r0, lsl #8
     2f8:	0b3a0e03 	bleq	e83b0c <__bss_end__+0xe79fac>
     2fc:	0b390b3b 	bleq	e42ff0 <__bss_end__+0xe39490>
     300:	00001349 	andeq	r1, r0, r9, asr #6
     304:	27011505 	strcs	r1, [r1, -r5, lsl #10]
     308:	01134919 	tsteq	r3, r9, lsl r9
     30c:	06000013 			; <UNDEFINED> instruction: 0x06000013
     310:	13490005 	movtne	r0, #36869	; 0x9005
     314:	34070000 	strcc	r0, [r7], #-0
     318:	3a0e0300 	bcc	380f20 <__bss_end__+0x3773c0>
     31c:	390b3b0b 	stmdbcc	fp, {r0, r1, r3, r8, r9, fp, ip, sp}
     320:	3f13490b 	svccc	0x0013490b
     324:	00193c19 	andseq	r3, r9, r9, lsl ip
     328:	000f0800 	andeq	r0, pc, r0, lsl #16
     32c:	13490b0b 	movtne	r0, #39691	; 0x9b0b
     330:	26090000 	strcs	r0, [r9], -r0
     334:	00134900 	andseq	r4, r3, r0, lsl #18
     338:	01040a00 	tsteq	r4, r0, lsl #20
     33c:	0b0b0b3e 	bleq	2c303c <__bss_end__+0x2b94dc>
     340:	0b3a1349 	bleq	e8506c <__bss_end__+0xe7b50c>
     344:	0b390b3b 	bleq	e43038 <__bss_end__+0xe394d8>
     348:	00001301 	andeq	r1, r0, r1, lsl #6
     34c:	0300280b 	movweq	r2, #2059	; 0x80b
     350:	000b1c0e 	andeq	r1, fp, lr, lsl #24
     354:	01130c00 	tsteq	r3, r0, lsl #24
     358:	0b3a0b0b 	bleq	e82f8c <__bss_end__+0xe7942c>
     35c:	0b390b3b 	bleq	e43050 <__bss_end__+0xe394f0>
     360:	00001301 	andeq	r1, r0, r1, lsl #6
     364:	03000d0d 	movweq	r0, #3341	; 0xd0d
     368:	3b0b3a0e 	blcc	2ceba8 <__bss_end__+0x2c5048>
     36c:	490b390b 	stmdbmi	fp, {r0, r1, r3, r8, fp, ip, sp}
     370:	0d0b0b13 	vstreq	d0, [fp, #-76]	; 0xffffffb4
     374:	380b0c0b 	stmdacc	fp, {r0, r1, r3, sl, fp}
     378:	0e00000b 	cdpeq	0, 0, cr0, cr0, cr11, {0}
     37c:	0803000d 	stmdaeq	r3, {r0, r2, r3}
     380:	0b3b0b3a 	bleq	ec3070 <__bss_end__+0xeb9510>
     384:	13490b39 	movtne	r0, #39737	; 0x9b39
     388:	0b0d0b0b 	bleq	342fbc <__bss_end__+0x33945c>
     38c:	0b380b0c 	bleq	e02fc4 <__bss_end__+0xdf9464>
     390:	350f0000 	strcc	r0, [pc, #-0]	; 398 <__code_start__-0x7c68>
     394:	00134900 	andseq	r4, r3, r0, lsl #18
     398:	01131000 	tsteq	r3, r0
     39c:	0b0b0e03 	bleq	2c3bb0 <__bss_end__+0x2ba050>
     3a0:	0b3b0b3a 	bleq	ec3090 <__bss_end__+0xeb9530>
     3a4:	13010b39 	movwne	r0, #6969	; 0x1b39
     3a8:	0d110000 	ldceq	0, cr0, [r1, #-0]
     3ac:	3a0e0300 	bcc	380fb4 <__bss_end__+0x377454>
     3b0:	390b3b0b 	stmdbcc	fp, {r0, r1, r3, r8, r9, fp, ip, sp}
     3b4:	3813490b 	ldmdacc	r3, {r0, r1, r3, r8, fp, lr}
     3b8:	1200000b 	andne	r0, r0, #11, 0
     3bc:	08030034 	stmdaeq	r3, {r2, r4, r5}
     3c0:	0b3b0b3a 	bleq	ec30b0 <__bss_end__+0xeb9550>
     3c4:	13490b39 	movtne	r0, #39737	; 0x9b39
     3c8:	2e130000 	cdpcs	0, 1, cr0, cr3, cr0, {0}
     3cc:	3a0e0301 	bcc	380fd8 <__bss_end__+0x377478>
     3d0:	39053b0b 	stmdbcc	r5, {r0, r1, r3, r8, r9, fp, ip, sp}
     3d4:	1119270b 	tstne	r9, fp, lsl #14
     3d8:	40061201 	andmi	r1, r6, r1, lsl #4
     3dc:	19429718 	stmdbne	r2, {r3, r4, r8, r9, sl, ip, pc}^
     3e0:	00001301 	andeq	r1, r0, r1, lsl #6
     3e4:	03003414 	movweq	r3, #1044	; 0x414
     3e8:	3413490e 	ldrcc	r4, [r3], #-2318	; 0xfffff6f2
     3ec:	00180219 	andseq	r0, r8, r9, lsl r2
     3f0:	010b1500 	tsteq	fp, r0, lsl #10
     3f4:	06120111 			; <UNDEFINED> instruction: 0x06120111
     3f8:	00001301 	andeq	r1, r0, r1, lsl #6
     3fc:	03011716 	movweq	r1, #5910	; 0x1716
     400:	3a0b0b08 	bcc	2c3028 <__bss_end__+0x2b94c8>
     404:	39053b0b 	stmdbcc	r5, {r0, r1, r3, r8, r9, fp, ip, sp}
     408:	0013010b 	andseq	r0, r3, fp, lsl #2
     40c:	000d1700 	andeq	r1, sp, r0, lsl #14
     410:	0b3a0803 	bleq	e82424 <__bss_end__+0xe788c4>
     414:	0b39053b 	bleq	e41908 <__bss_end__+0xe37da8>
     418:	00001349 	andeq	r1, r0, r9, asr #6
     41c:	03003418 	movweq	r3, #1048	; 0x418
     420:	3b0b3a08 	blcc	2cec48 <__bss_end__+0x2c50e8>
     424:	490b3905 	stmdbmi	fp, {r0, r2, r8, fp, ip, sp}
     428:	19000013 	stmdbne	r0, {r0, r1, r4}
     42c:	08030034 	stmdaeq	r3, {r2, r4, r5}
     430:	053b0b3a 	ldreq	r0, [fp, #-2874]!	; 0xfffff4c6
     434:	13490b39 	movtne	r0, #39737	; 0x9b39
     438:	00000b1c 	andeq	r0, r0, ip, lsl fp
     43c:	0300341a 	movweq	r3, #1050	; 0x41a
     440:	3b0b3a0e 	blcc	2cec80 <__bss_end__+0x2c5120>
     444:	490b3905 	stmdbmi	fp, {r0, r2, r8, fp, ip, sp}
     448:	000b1c13 	andeq	r1, fp, r3, lsl ip
     44c:	00341b00 	eorseq	r1, r4, r0, lsl #22
     450:	0b3a0803 	bleq	e82464 <__bss_end__+0xe78904>
     454:	0b39053b 	bleq	e41948 <__bss_end__+0xe37de8>
     458:	18021349 	stmdane	r2, {r0, r3, r6, r8, r9, ip}
     45c:	341c0000 	ldrcc	r0, [ip], #-0
     460:	3a080300 	bcc	201068 <__bss_end__+0x1f7508>
     464:	39053b0b 	stmdbcc	r5, {r0, r1, r3, r8, r9, fp, ip, sp}
     468:	0213490b 	andseq	r4, r3, #180224	; 0x2c000
     46c:	1742b717 	smlaldne	fp, r2, r7, r7
     470:	341d0000 	ldrcc	r0, [sp], #-0
     474:	3a080300 	bcc	20107c <__bss_end__+0x1f751c>
     478:	39053b0b 	stmdbcc	r5, {r0, r1, r3, r8, r9, fp, ip, sp}
     47c:	1c13490b 			; <UNDEFINED> instruction: 0x1c13490b
     480:	1e000005 	cdpne	0, 0, cr0, cr0, cr5, {0}
     484:	0111010b 	tsteq	r1, fp, lsl #2
     488:	00000612 	andeq	r0, r0, r2, lsl r6
     48c:	0300341f 	movweq	r3, #1055	; 0x41f
     490:	3b0b3a0e 	blcc	2cecd0 <__bss_end__+0x2c5170>
     494:	490b3905 	stmdbmi	fp, {r0, r2, r8, fp, ip, sp}
     498:	20000013 	andcs	r0, r0, r3, lsl r0
     49c:	13490101 	movtne	r0, #37121	; 0x9101
     4a0:	00001301 	andeq	r1, r0, r1, lsl #6
     4a4:	49002121 	stmdbmi	r0, {r0, r5, r8, sp}
     4a8:	000b2f13 	andeq	r2, fp, r3, lsl pc
     4ac:	012e2200 			; <UNDEFINED> instruction: 0x012e2200
     4b0:	0e03193f 			; <UNDEFINED> instruction: 0x0e03193f
     4b4:	053b0b3a 	ldreq	r0, [fp, #-2874]!	; 0xfffff4c6
     4b8:	19270b39 	stmdbne	r7!, {r0, r3, r4, r5, r8, r9, fp}
     4bc:	06120111 			; <UNDEFINED> instruction: 0x06120111
     4c0:	42971840 	addsmi	r1, r7, #64, 16	; 0x400000
     4c4:	00130119 	andseq	r0, r3, r9, lsl r1
     4c8:	00342300 	eorseq	r2, r4, r0, lsl #6
     4cc:	0b3a0e03 	bleq	e83ce0 <__bss_end__+0xe7a180>
     4d0:	0b39053b 	bleq	e419c4 <__bss_end__+0xe37e64>
     4d4:	061c1349 	ldreq	r1, [ip], -r9, asr #6
     4d8:	34240000 	strtcc	r0, [r4], #-0
     4dc:	3a0e0300 	bcc	3810e4 <__bss_end__+0x377584>
     4e0:	39053b0b 	stmdbcc	r5, {r0, r1, r3, r8, r9, fp, ip, sp}
     4e4:	0213490b 	andseq	r4, r3, #180224	; 0x2c000
     4e8:	1742b717 	smlaldne	fp, r2, r7, r7
     4ec:	89250000 	stmdbhi	r5!, {}	; <UNPREDICTABLE>
     4f0:	11000182 	smlabbne	r0, r2, r1, r0
     4f4:	00133101 	andseq	r3, r3, r1, lsl #2
     4f8:	82892600 	addhi	r2, r9, #0, 12
     4fc:	01110101 	tsteq	r1, r1, lsl #2
     500:	13011331 	movwne	r1, #4913	; 0x1331
     504:	8a270000 	bhi	9c050c <__bss_end__+0x9b69ac>
     508:	02000182 	andeq	r0, r0, #-2147483616	; 0x80000020
     50c:	18429118 	stmdane	r2, {r3, r4, r8, ip, pc}^
     510:	2e280000 	cdpcs	0, 2, cr0, cr8, cr0, {0}
     514:	03193f01 	tsteq	r9, #1, 30
     518:	3b0b3a0e 	blcc	2ced58 <__bss_end__+0x2c51f8>
     51c:	270b390b 	strcs	r3, [fp, -fp, lsl #18]
     520:	11134919 	tstne	r3, r9, lsl r9
     524:	40061201 	andmi	r1, r6, r1, lsl #4
     528:	19429718 	stmdbne	r2, {r3, r4, r8, r9, sl, ip, pc}^
     52c:	00001301 	andeq	r1, r0, r1, lsl #6
     530:	03000529 	movweq	r0, #1321	; 0x529
     534:	3b0b3a0e 	blcc	2ced74 <__bss_end__+0x2c5214>
     538:	490b390b 	stmdbmi	fp, {r0, r1, r3, r8, fp, ip, sp}
     53c:	b7170213 			; <UNDEFINED> instruction: 0xb7170213
     540:	00001742 	andeq	r1, r0, r2, asr #14
     544:	0300342a 	movweq	r3, #1066	; 0x42a
     548:	3b0b3a0e 	blcc	2ced88 <__bss_end__+0x2c5228>
     54c:	490b390b 	stmdbmi	fp, {r0, r1, r3, r8, fp, ip, sp}
     550:	00061c13 	andeq	r1, r6, r3, lsl ip
     554:	00342b00 	eorseq	r2, r4, r0, lsl #22
     558:	0b3a0e03 	bleq	e83d6c <__bss_end__+0xe7a20c>
     55c:	0b390b3b 	bleq	e43250 <__bss_end__+0xe396f0>
     560:	00001349 	andeq	r1, r0, r9, asr #6
     564:	0301172c 	movweq	r1, #5932	; 0x172c
     568:	3a0b0b08 	bcc	2c3190 <__bss_end__+0x2b9630>
     56c:	390b3b0b 	stmdbcc	fp, {r0, r1, r3, r8, r9, fp, ip, sp}
     570:	0013010b 	andseq	r0, r3, fp, lsl #2
     574:	000d2d00 	andeq	r2, sp, r0, lsl #26
     578:	0b3a0803 	bleq	e8258c <__bss_end__+0xe78a2c>
     57c:	0b390b3b 	bleq	e43270 <__bss_end__+0xe39710>
     580:	00001349 	andeq	r1, r0, r9, asr #6
     584:	0300342e 	movweq	r3, #1070	; 0x42e
     588:	3b0b3a08 	blcc	2cedb0 <__bss_end__+0x2c5250>
     58c:	490b390b 	stmdbmi	fp, {r0, r1, r3, r8, fp, ip, sp}
     590:	b7170213 			; <UNDEFINED> instruction: 0xb7170213
     594:	00001742 	andeq	r1, r0, r2, asr #14
     598:	0300342f 	movweq	r3, #1071	; 0x42f
     59c:	3b0b3a0e 	blcc	2ceddc <__bss_end__+0x2c527c>
     5a0:	490b390b 	stmdbmi	fp, {r0, r1, r3, r8, fp, ip, sp}
     5a4:	b7170213 			; <UNDEFINED> instruction: 0xb7170213
     5a8:	00001742 	andeq	r1, r0, r2, asr #14
     5ac:	03012e30 	movweq	r2, #7728	; 0x1e30
     5b0:	3b0b3a0e 	blcc	2cedf0 <__bss_end__+0x2c5290>
     5b4:	270b390b 	strcs	r3, [fp, -fp, lsl #18]
     5b8:	11134919 	tstne	r3, r9, lsl r9
     5bc:	40061201 	andmi	r1, r6, r1, lsl #4
     5c0:	19429718 	stmdbne	r2, {r3, r4, r8, r9, sl, ip, pc}^
     5c4:	00001301 	andeq	r1, r0, r1, lsl #6
     5c8:	03000531 	movweq	r0, #1329	; 0x531
     5cc:	3b0b3a08 	blcc	2cedf4 <__bss_end__+0x2c5294>
     5d0:	490b390b 	stmdbmi	fp, {r0, r1, r3, r8, fp, ip, sp}
     5d4:	b7170213 			; <UNDEFINED> instruction: 0xb7170213
     5d8:	00001742 	andeq	r1, r0, r2, asr #14
     5dc:	01828932 	orreq	r8, r2, r2, lsr r9
     5e0:	31011101 	tstcc	r1, r1, lsl #2
     5e4:	33000013 	movwcc	r0, #19
     5e8:	193f002e 	ldmdbne	pc!, {r1, r2, r3, r5}	; <UNPREDICTABLE>
     5ec:	0e6e193c 			; <UNDEFINED> instruction: 0x0e6e193c
     5f0:	0b3a0e03 	bleq	e83e04 <__bss_end__+0xe7a2a4>
     5f4:	0b390b3b 	bleq	e432e8 <__bss_end__+0xe39788>
     5f8:	01000000 	mrseq	r0, (UNDEF: 0)
     5fc:	0e250111 	mcreq	1, 1, r0, cr5, cr1, {0}
     600:	0e030b13 	vmoveq.32	d3[0], r0
     604:	01110e1b 	tsteq	r1, fp, lsl lr
     608:	17100612 			; <UNDEFINED> instruction: 0x17100612
     60c:	24020000 	strcs	r0, [r2], #-0
     610:	3e0b0b00 	vmlacc.f64	d0, d11, d0
     614:	0008030b 	andeq	r0, r8, fp, lsl #6
     618:	00240300 	eoreq	r0, r4, r0, lsl #6
     61c:	0b3e0b0b 	bleq	f83250 <__bss_end__+0xf796f0>
     620:	00000e03 	andeq	r0, r0, r3, lsl #28
     624:	49002604 	stmdbmi	r0, {r2, r9, sl, sp}
     628:	05000013 	streq	r0, [r0, #-19]	; 0xffffffed
     62c:	0e030016 	mcreq	0, 0, r0, cr3, cr6, {0}
     630:	0b3b0b3a 	bleq	ec3320 <__bss_end__+0xeb97c0>
     634:	13490b39 	movtne	r0, #39737	; 0x9b39
     638:	15060000 	strne	r0, [r6, #-0]
     63c:	49192701 	ldmdbmi	r9, {r0, r8, r9, sl, sp}
     640:	00130113 	andseq	r0, r3, r3, lsl r1
     644:	00050700 	andeq	r0, r5, r0, lsl #14
     648:	00001349 	andeq	r1, r0, r9, asr #6
     64c:	03003408 	movweq	r3, #1032	; 0x408
     650:	3b0b3a0e 	blcc	2cee90 <__bss_end__+0x2c5330>
     654:	490b390b 	stmdbmi	fp, {r0, r1, r3, r8, fp, ip, sp}
     658:	3c193f13 	ldccc	15, cr3, [r9], {19}
     65c:	09000019 	stmdbeq	r0, {r0, r3, r4}
     660:	0b0b000f 	bleq	2c06a4 <__bss_end__+0x2b6b44>
     664:	00001349 	andeq	r1, r0, r9, asr #6
     668:	3e01040a 	cdpcc	4, 0, cr0, cr1, cr10, {0}
     66c:	490b0b0b 	stmdbmi	fp, {r0, r1, r3, r8, r9, fp}
     670:	3b0b3a13 	blcc	2ceec4 <__bss_end__+0x2c5364>
     674:	010b390b 	tsteq	fp, fp, lsl #18
     678:	0b000013 	bleq	6cc <__code_start__-0x7934>
     67c:	0e030028 	cdpeq	0, 0, cr0, cr3, cr8, {1}
     680:	00000b1c 	andeq	r0, r0, ip, lsl fp
     684:	0300340c 	movweq	r3, #1036	; 0x40c
     688:	3b0b3a0e 	blcc	2ceec8 <__bss_end__+0x2c5368>
     68c:	490b390b 	stmdbmi	fp, {r0, r1, r3, r8, fp, ip, sp}
     690:	00061c13 	andeq	r1, r6, r3, lsl ip
     694:	012e0d00 			; <UNDEFINED> instruction: 0x012e0d00
     698:	0e03193f 			; <UNDEFINED> instruction: 0x0e03193f
     69c:	0b3b0b3a 	bleq	ec338c <__bss_end__+0xeb982c>
     6a0:	19270b39 	stmdbne	r7!, {r0, r3, r4, r5, r8, r9, fp}
     6a4:	01111349 	tsteq	r1, r9, asr #6
     6a8:	18400612 	stmdane	r0, {r1, r4, r9, sl}^
     6ac:	01194297 			; <UNDEFINED> instruction: 0x01194297
     6b0:	0e000013 	mcreq	0, 0, r0, cr0, cr3, {0}
     6b4:	08030005 	stmdaeq	r3, {r0, r2}
     6b8:	0b3b0b3a 	bleq	ec33a8 <__bss_end__+0xeb9848>
     6bc:	13490b39 	movtne	r0, #39737	; 0x9b39
     6c0:	42b71702 	adcsmi	r1, r7, #524288	; 0x80000
     6c4:	0f000017 	svceq	0x00000017
     6c8:	0e030034 	mcreq	0, 0, r0, cr3, cr4, {1}
     6cc:	0b3b0b3a 	bleq	ec33bc <__bss_end__+0xeb985c>
     6d0:	13490b39 	movtne	r0, #39737	; 0x9b39
     6d4:	42b71702 	adcsmi	r1, r7, #524288	; 0x80000
     6d8:	10000017 	andne	r0, r0, r7, lsl r0
     6dc:	08030034 	stmdaeq	r3, {r2, r4, r5}
     6e0:	0b3b0b3a 	bleq	ec33d0 <__bss_end__+0xeb9870>
     6e4:	13490b39 	movtne	r0, #39737	; 0x9b39
     6e8:	42b71702 	adcsmi	r1, r7, #524288	; 0x80000
     6ec:	11000017 	tstne	r0, r7, lsl r0
     6f0:	01018289 	smlabbeq	r1, r9, r2, r8
     6f4:	13310111 	teqne	r1, #1073741828	; 0x40000004
     6f8:	8a120000 	bhi	480700 <__bss_end__+0x476ba0>
     6fc:	02000182 	andeq	r0, r0, #-2147483616	; 0x80000020
     700:	18429118 	stmdane	r2, {r3, r4, r8, ip, pc}^
     704:	2e130000 	cdpcs	0, 1, cr0, cr3, cr0, {0}
     708:	03193f01 	tsteq	r9, #1, 30
     70c:	3b0b3a0e 	blcc	2cef4c <__bss_end__+0x2c53ec>
     710:	270b390b 	strcs	r3, [fp, -fp, lsl #18]
     714:	12011119 	andne	r1, r1, #1073741830	; 0x40000006
     718:	97184006 	ldrls	r4, [r8, -r6]
     71c:	13011942 	movwne	r1, #6466	; 0x1942
     720:	89140000 	ldmdbhi	r4, {}	; <UNPREDICTABLE>
     724:	11010182 	smlabbne	r1, r2, r1, r0
     728:	01133101 	tsteq	r3, r1, lsl #2
     72c:	15000013 	strne	r0, [r0, #-19]	; 0xffffffed
     730:	00018289 	andeq	r8, r1, r9, lsl #5
     734:	13310111 	teqne	r1, #1073741828	; 0x40000004
     738:	05160000 	ldreq	r0, [r6, #-0]
     73c:	3a0e0300 	bcc	381344 <__bss_end__+0x3777e4>
     740:	390b3b0b 	stmdbcc	fp, {r0, r1, r3, r8, r9, fp, ip, sp}
     744:	0213490b 	andseq	r4, r3, #180224	; 0x2c000
     748:	1742b717 	smlaldne	fp, r2, r7, r7
     74c:	2e170000 	cdpcs	0, 1, cr0, cr7, cr0, {0}
     750:	3a0e0301 	bcc	38135c <__bss_end__+0x3777fc>
     754:	390b3b0b 	stmdbcc	fp, {r0, r1, r3, r8, r9, fp, ip, sp}
     758:	4919270b 	ldmdbmi	r9, {r0, r1, r3, r8, r9, sl, sp}
     75c:	010b2013 	tsteq	fp, r3, lsl r0
     760:	18000013 	stmdane	r0, {r0, r1, r4}
     764:	08030005 	stmdaeq	r3, {r0, r2}
     768:	0b3b0b3a 	bleq	ec3458 <__bss_end__+0xeb98f8>
     76c:	13490b39 	movtne	r0, #39737	; 0x9b39
     770:	2e190000 	cdpcs	0, 1, cr0, cr9, cr0, {0}
     774:	3c193f00 	ldccc	15, cr3, [r9], {-0}
     778:	030e6e19 	movweq	r6, #60953	; 0xee19
     77c:	3b0b3a0e 	blcc	2cefbc <__bss_end__+0x2c545c>
     780:	000b390b 	andeq	r3, fp, fp, lsl #18
     784:	11010000 	mrsne	r0, (UNDEF: 1)
     788:	130e2501 	movwne	r2, #58625	; 0xe501
     78c:	1b0e030b 	blne	3813c0 <__bss_end__+0x377860>
     790:	1201110e 	andne	r1, r1, #-2147483645	; 0x80000003
     794:	00171006 	andseq	r1, r7, r6
     798:	00160200 	andseq	r0, r6, r0, lsl #4
     79c:	0b3a0e03 	bleq	e83fb0 <__bss_end__+0xe7a450>
     7a0:	0b390b3b 	bleq	e43494 <__bss_end__+0xe39934>
     7a4:	00001349 	andeq	r1, r0, r9, asr #6
     7a8:	03011303 	movweq	r1, #4867	; 0x1303
     7ac:	3a0b0b0e 	bcc	2c33ec <__bss_end__+0x2b988c>
     7b0:	010b3b0b 	tsteq	fp, fp, lsl #22
     7b4:	04000013 	streq	r0, [r0], #-19	; 0xffffffed
     7b8:	0e03000d 	cdpeq	0, 0, cr0, cr3, cr13, {0}
     7bc:	0b381349 	bleq	e054e8 <__bss_end__+0xdfb988>
     7c0:	00001934 	andeq	r1, r0, r4, lsr r9
     7c4:	0b000f05 	bleq	43e0 <__code_start__-0x3c20>
     7c8:	0600000b 	streq	r0, [r0], -fp
     7cc:	0b0b0024 	bleq	2c0864 <__bss_end__+0x2b6d04>
     7d0:	08030b3e 	stmdaeq	r3, {r1, r2, r3, r4, r5, r8, r9, fp}
     7d4:	24070000 	strcs	r0, [r7], #-0
     7d8:	3e0b0b00 	vmlacc.f64	d0, d11, d0
     7dc:	000e030b 	andeq	r0, lr, fp, lsl #6
     7e0:	01150800 	tsteq	r5, r0, lsl #16
     7e4:	13491927 	movtne	r1, #39207	; 0x9927
     7e8:	00001301 	andeq	r1, r0, r1, lsl #6
     7ec:	49000509 	stmdbmi	r0, {r0, r3, r8, sl}
     7f0:	0a000013 	beq	844 <__code_start__-0x77bc>
     7f4:	0e030034 	mcreq	0, 0, r0, cr3, cr4, {1}
     7f8:	0b3b0b3a 	bleq	ec34e8 <__bss_end__+0xeb9988>
     7fc:	13490b39 	movtne	r0, #39737	; 0x9b39
     800:	193c193f 	ldmdbne	ip!, {r0, r1, r2, r3, r4, r5, r8, fp, ip}
     804:	0f0b0000 	svceq	0x000b0000
     808:	490b0b00 	stmdbmi	fp, {r8, r9, fp}
     80c:	0c000013 	stceq	0, cr0, [r0], {19}
     810:	13490026 	movtne	r0, #36902	; 0x9026
     814:	2e0d0000 	cdpcs	0, 0, cr0, cr13, cr0, {0}
     818:	03193f01 	tsteq	r9, #1, 30
     81c:	3b0b3a0e 	blcc	2cf05c <__bss_end__+0x2c54fc>
     820:	270b390b 	strcs	r3, [fp, -fp, lsl #18]
     824:	11134919 	tstne	r3, r9, lsl r9
     828:	40061201 	andmi	r1, r6, r1, lsl #4
     82c:	19429718 	stmdbne	r2, {r3, r4, r8, r9, sl, ip, pc}^
     830:	00001301 	andeq	r1, r0, r1, lsl #6
     834:	0300050e 	movweq	r0, #1294	; 0x50e
     838:	3b0b3a08 	blcc	2cf060 <__bss_end__+0x2c5500>
     83c:	490b390b 	stmdbmi	fp, {r0, r1, r3, r8, fp, ip, sp}
     840:	00180213 	andseq	r0, r8, r3, lsl r2
     844:	00180f00 	andseq	r0, r8, r0, lsl #30
     848:	34100000 	ldrcc	r0, [r0], #-0
     84c:	3a080300 	bcc	201454 <__bss_end__+0x1f78f4>
     850:	390b3b0b 	stmdbcc	fp, {r0, r1, r3, r8, r9, fp, ip, sp}
     854:	0213490b 	andseq	r4, r3, #180224	; 0x2c000
     858:	11000018 	tstne	r0, r8, lsl r0
     85c:	0e030034 	mcreq	0, 0, r0, cr3, cr4, {1}
     860:	0b3b0b3a 	bleq	ec3550 <__bss_end__+0xeb99f0>
     864:	13490b39 	movtne	r0, #39737	; 0x9b39
     868:	00001802 	andeq	r1, r0, r2, lsl #16
     86c:	03003412 	movweq	r3, #1042	; 0x412
     870:	3b0b3a08 	blcc	2cf098 <__bss_end__+0x2c5538>
     874:	490b390b 	stmdbmi	fp, {r0, r1, r3, r8, fp, ip, sp}
     878:	b7170213 			; <UNDEFINED> instruction: 0xb7170213
     87c:	00001742 	andeq	r1, r0, r2, asr #14
     880:	01828913 	orreq	r8, r2, r3, lsl r9
     884:	31011101 	tstcc	r1, r1, lsl #2
     888:	00130113 	andseq	r0, r3, r3, lsl r1
     88c:	828a1400 	addhi	r1, sl, #0, 8
     890:	18020001 	stmdane	r2, {r0}
     894:	00184291 	mulseq	r8, r1, r2
     898:	82891500 	addhi	r1, r9, #0, 10
     89c:	01110101 	tsteq	r1, r1, lsl #2
     8a0:	01160000 	tsteq	r6, r0
     8a4:	01134901 	tsteq	r3, r1, lsl #18
     8a8:	17000013 	smladne	r0, r3, r0, r0
     8ac:	13490021 	movtne	r0, #36897	; 0x9021
     8b0:	0000052f 	andeq	r0, r0, pc, lsr #10
     8b4:	3f002e18 	svccc	0x00002e18
     8b8:	6e193c19 	mrcvs	12, 0, r3, cr9, cr9, {0}
     8bc:	3a0e030e 	bcc	3814fc <__bss_end__+0x37799c>
     8c0:	390b3b0b 	stmdbcc	fp, {r0, r1, r3, r8, r9, fp, ip, sp}
     8c4:	0000000b 	andeq	r0, r0, fp
     8c8:	25011101 	strcs	r1, [r1, #-257]	; 0xfffffeff
     8cc:	030b130e 	movweq	r1, #45838	; 0xb30e
     8d0:	110e1b0e 	tstne	lr, lr, lsl #22
     8d4:	10061201 	andne	r1, r6, r1, lsl #4
     8d8:	02000017 	andeq	r0, r0, #23, 0
     8dc:	0b0b0024 	bleq	2c0974 <__bss_end__+0x2b6e14>
     8e0:	08030b3e 	stmdaeq	r3, {r1, r2, r3, r4, r5, r8, r9, fp}
     8e4:	24030000 	strcs	r0, [r3], #-0
     8e8:	3e0b0b00 	vmlacc.f64	d0, d11, d0
     8ec:	000e030b 	andeq	r0, lr, fp, lsl #6
     8f0:	01150400 	tsteq	r5, r0, lsl #8
     8f4:	13491927 	movtne	r1, #39207	; 0x9927
     8f8:	00001301 	andeq	r1, r0, r1, lsl #6
     8fc:	49000505 	stmdbmi	r0, {r0, r2, r8, sl}
     900:	06000013 			; <UNDEFINED> instruction: 0x06000013
     904:	0e030034 	mcreq	0, 0, r0, cr3, cr4, {1}
     908:	0b3b0b3a 	bleq	ec35f8 <__bss_end__+0xeb9a98>
     90c:	13490b39 	movtne	r0, #39737	; 0x9b39
     910:	193c193f 	ldmdbne	ip!, {r0, r1, r2, r3, r4, r5, r8, fp, ip}
     914:	0f070000 	svceq	0x00070000
     918:	490b0b00 	stmdbmi	fp, {r8, r9, fp}
     91c:	08000013 	stmdaeq	r0, {r0, r1, r4}
     920:	13490026 	movtne	r0, #36902	; 0x9026
     924:	34090000 	strcc	r0, [r9], #-0
     928:	3a134700 	bcc	4d2530 <__bss_end__+0x4c89d0>
     92c:	390b3b0b 	stmdbcc	fp, {r0, r1, r3, r8, r9, fp, ip, sp}
     930:	0018020b 	andseq	r0, r8, fp, lsl #4
     934:	012e0a00 			; <UNDEFINED> instruction: 0x012e0a00
     938:	0e03193f 			; <UNDEFINED> instruction: 0x0e03193f
     93c:	0b3b0b3a 	bleq	ec362c <__bss_end__+0xeb9acc>
     940:	19270b39 	stmdbne	r7!, {r0, r3, r4, r5, r8, r9, fp}
     944:	06120111 			; <UNDEFINED> instruction: 0x06120111
     948:	42971840 	addsmi	r1, r7, #64, 16	; 0x400000
     94c:	00130119 	andseq	r0, r3, r9, lsl r1
     950:	00050b00 	andeq	r0, r5, r0, lsl #22
     954:	0b3a0803 	bleq	e82968 <__bss_end__+0xe78e08>
     958:	0b390b3b 	bleq	e4364c <__bss_end__+0xe39aec>
     95c:	18021349 	stmdane	r2, {r0, r3, r6, r8, r9, ip}
     960:	2e0c0000 	cdpcs	0, 0, cr0, cr12, cr0, {0}
     964:	03193f00 	tsteq	r9, #0, 30
     968:	3b0b3a0e 	blcc	2cf1a8 <__bss_end__+0x2c5648>
     96c:	270b390b 	strcs	r3, [fp, -fp, lsl #18]
     970:	12011119 	andne	r1, r1, #1073741830	; 0x40000006
     974:	97184006 	ldrls	r4, [r8, -r6]
     978:	00001942 	andeq	r1, r0, r2, asr #18
     97c:	03012e0d 	movweq	r2, #7693	; 0x1e0d
     980:	3b0b3a0e 	blcc	2cf1c0 <__bss_end__+0x2c5660>
     984:	270b390b 	strcs	r3, [fp, -fp, lsl #18]
     988:	11134919 	tstne	r3, r9, lsl r9
     98c:	40061201 	andmi	r1, r6, r1, lsl #4
     990:	19429718 	stmdbne	r2, {r3, r4, r8, r9, sl, ip, pc}^
     994:	00001301 	andeq	r1, r0, r1, lsl #6
     998:	0300050e 	movweq	r0, #1294	; 0x50e
     99c:	3b0b3a08 	blcc	2cf1c4 <__bss_end__+0x2c5664>
     9a0:	490b390b 	stmdbmi	fp, {r0, r1, r3, r8, fp, ip, sp}
     9a4:	b7170213 			; <UNDEFINED> instruction: 0xb7170213
     9a8:	00001742 	andeq	r1, r0, r2, asr #14
     9ac:	0182890f 	orreq	r8, r2, pc, lsl #18
     9b0:	31011101 	tstcc	r1, r1, lsl #2
     9b4:	10000013 	andne	r0, r0, r3, lsl r0
     9b8:	0001828a 	andeq	r8, r1, sl, lsl #5
     9bc:	42911802 	addsmi	r1, r1, #131072	; 0x20000
     9c0:	11000018 	tstne	r0, r8, lsl r0
     9c4:	193f002e 	ldmdbne	pc!, {r1, r2, r3, r5}	; <UNPREDICTABLE>
     9c8:	0e6e193c 			; <UNDEFINED> instruction: 0x0e6e193c
     9cc:	0b3a0e03 	bleq	e841e0 <__bss_end__+0xe7a680>
     9d0:	0b390b3b 	bleq	e436c4 <__bss_end__+0xe39b64>
     9d4:	01000000 	mrseq	r0, (UNDEF: 0)
     9d8:	0e250111 	mcreq	1, 1, r0, cr5, cr1, {0}
     9dc:	0e030b13 	vmoveq.32	d3[0], r0
     9e0:	01110e1b 	tsteq	r1, fp, lsl lr
     9e4:	17100612 			; <UNDEFINED> instruction: 0x17100612
     9e8:	24020000 	strcs	r0, [r2], #-0
     9ec:	3e0b0b00 	vmlacc.f64	d0, d11, d0
     9f0:	0008030b 	andeq	r0, r8, fp, lsl #6
     9f4:	00240300 	eoreq	r0, r4, r0, lsl #6
     9f8:	0b3e0b0b 	bleq	f8362c <__bss_end__+0xf79acc>
     9fc:	00000e03 	andeq	r0, r0, r3, lsl #28
     a00:	27011504 	strcs	r1, [r1, -r4, lsl #10]
     a04:	01134919 	tsteq	r3, r9, lsl r9
     a08:	05000013 	streq	r0, [r0, #-19]	; 0xffffffed
     a0c:	13490005 	movtne	r0, #36869	; 0x9005
     a10:	34060000 	strcc	r0, [r6], #-0
     a14:	3a0e0300 	bcc	38161c <__bss_end__+0x377abc>
     a18:	390b3b0b 	stmdbcc	fp, {r0, r1, r3, r8, r9, fp, ip, sp}
     a1c:	3f13490b 	svccc	0x0013490b
     a20:	00193c19 	andseq	r3, r9, r9, lsl ip
     a24:	000f0700 	andeq	r0, pc, r0, lsl #14
     a28:	13490b0b 	movtne	r0, #39691	; 0x9b0b
     a2c:	26080000 	strcs	r0, [r8], -r0
     a30:	00134900 	andseq	r4, r3, r0, lsl #18
     a34:	00340900 	eorseq	r0, r4, r0, lsl #18
     a38:	0b3a1347 	bleq	e8575c <__bss_end__+0xe7bbfc>
     a3c:	0b390b3b 	bleq	e43730 <__bss_end__+0xe39bd0>
     a40:	00001802 	andeq	r1, r0, r2, lsl #16
     a44:	3f012e0a 	svccc	0x00012e0a
     a48:	3a0e0319 	bcc	3816b4 <__bss_end__+0x377b54>
     a4c:	390b3b0b 	stmdbcc	fp, {r0, r1, r3, r8, r9, fp, ip, sp}
     a50:	4919270b 	ldmdbmi	r9, {r0, r1, r3, r8, r9, sl, sp}
     a54:	12011113 	andne	r1, r1, #-1073741820	; 0xc0000004
     a58:	96184006 	ldrls	r4, [r8], -r6
     a5c:	00001942 	andeq	r1, r0, r2, asr #18
     a60:	0300050b 	movweq	r0, #1291	; 0x50b
     a64:	3b0b3a08 	blcc	2cf28c <__bss_end__+0x2c572c>
     a68:	490b390b 	stmdbmi	fp, {r0, r1, r3, r8, fp, ip, sp}
     a6c:	b7170213 			; <UNDEFINED> instruction: 0xb7170213
     a70:	00001742 	andeq	r1, r0, r2, asr #14
     a74:	01110100 	tsteq	r1, r0, lsl #2
     a78:	0b130e25 	bleq	4c4314 <__bss_end__+0x4ba7b4>
     a7c:	0e1b0e03 	cdpeq	14, 1, cr0, cr11, cr3, {0}
     a80:	06120111 			; <UNDEFINED> instruction: 0x06120111
     a84:	00001710 	andeq	r1, r0, r0, lsl r7
     a88:	0b002402 	bleq	9a98 <__data_end__+0x33c>
     a8c:	030b3e0b 	movweq	r3, #48651	; 0xbe0b
     a90:	0300000e 	movweq	r0, #14
     a94:	0b0b0024 	bleq	2c0b2c <__bss_end__+0x2b6fcc>
     a98:	08030b3e 	stmdaeq	r3, {r1, r2, r3, r4, r5, r8, r9, fp}
     a9c:	26040000 	strcs	r0, [r4], -r0
     aa0:	00134900 	andseq	r4, r3, r0, lsl #18
     aa4:	00160500 	andseq	r0, r6, r0, lsl #10
     aa8:	0b3a0e03 	bleq	e842bc <__bss_end__+0xe7a75c>
     aac:	0b390b3b 	bleq	e437a0 <__bss_end__+0xe39c40>
     ab0:	00001349 	andeq	r1, r0, r9, asr #6
     ab4:	27011506 	strcs	r1, [r1, -r6, lsl #10]
     ab8:	01134919 	tsteq	r3, r9, lsl r9
     abc:	07000013 	smladeq	r0, r3, r0, r0
     ac0:	13490005 	movtne	r0, #36869	; 0x9005
     ac4:	34080000 	strcc	r0, [r8], #-0
     ac8:	3a0e0300 	bcc	3816d0 <__bss_end__+0x377b70>
     acc:	390b3b0b 	stmdbcc	fp, {r0, r1, r3, r8, r9, fp, ip, sp}
     ad0:	3f13490b 	svccc	0x0013490b
     ad4:	00193c19 	andseq	r3, r9, r9, lsl ip
     ad8:	000f0900 	andeq	r0, pc, r0, lsl #18
     adc:	13490b0b 	movtne	r0, #39691	; 0x9b0b
     ae0:	130a0000 	movwne	r0, #40960	; 0xa000
     ae4:	0b0e0301 	bleq	3816f0 <__bss_end__+0x377b90>
     ae8:	3b0b3a0b 	blcc	2cf31c <__bss_end__+0x2c57bc>
     aec:	0013010b 	andseq	r0, r3, fp, lsl #2
     af0:	000d0b00 	andeq	r0, sp, r0, lsl #22
     af4:	13490e03 	movtne	r0, #40451	; 0x9e03
     af8:	19340b38 	ldmdbne	r4!, {r3, r4, r5, r8, r9, fp}
     afc:	0f0c0000 	svceq	0x000c0000
     b00:	000b0b00 	andeq	r0, fp, r0, lsl #22
     b04:	012e0d00 			; <UNDEFINED> instruction: 0x012e0d00
     b08:	0e03193f 			; <UNDEFINED> instruction: 0x0e03193f
     b0c:	053b0b3a 	ldreq	r0, [fp, #-2874]!	; 0xfffff4c6
     b10:	19270b39 	stmdbne	r7!, {r0, r3, r4, r5, r8, r9, fp}
     b14:	01111349 	tsteq	r1, r9, asr #6
     b18:	18400612 	stmdane	r0, {r1, r4, r9, sl}^
     b1c:	01194297 			; <UNDEFINED> instruction: 0x01194297
     b20:	0e000013 	mcreq	0, 0, r0, cr0, cr3, {0}
     b24:	08030005 	stmdaeq	r3, {r0, r2}
     b28:	053b0b3a 	ldreq	r0, [fp, #-2874]!	; 0xfffff4c6
     b2c:	13490b39 	movtne	r0, #39737	; 0x9b39
     b30:	42b71702 	adcsmi	r1, r7, #524288	; 0x80000
     b34:	0f000017 	svceq	0x00000017
     b38:	0e030005 	cdpeq	0, 0, cr0, cr3, cr5, {0}
     b3c:	053b0b3a 	ldreq	r0, [fp, #-2874]!	; 0xfffff4c6
     b40:	13490b39 	movtne	r0, #39737	; 0x9b39
     b44:	42b71702 	adcsmi	r1, r7, #524288	; 0x80000
     b48:	10000017 	andne	r0, r0, r7, lsl r0
     b4c:	08030034 	stmdaeq	r3, {r2, r4, r5}
     b50:	053b0b3a 	ldreq	r0, [fp, #-2874]!	; 0xfffff4c6
     b54:	13490b39 	movtne	r0, #39737	; 0x9b39
     b58:	42b71702 	adcsmi	r1, r7, #524288	; 0x80000
     b5c:	11000017 	tstne	r0, r7, lsl r0
     b60:	0e030034 	mcreq	0, 0, r0, cr3, cr4, {1}
     b64:	053b0b3a 	ldreq	r0, [fp, #-2874]!	; 0xfffff4c6
     b68:	13490b39 	movtne	r0, #39737	; 0x9b39
     b6c:	42b71702 	adcsmi	r1, r7, #524288	; 0x80000
     b70:	12000017 	andne	r0, r0, #23, 0
     b74:	08030034 	stmdaeq	r3, {r2, r4, r5}
     b78:	053b0b3a 	ldreq	r0, [fp, #-2874]!	; 0xfffff4c6
     b7c:	13490b39 	movtne	r0, #39737	; 0x9b39
     b80:	00001802 	andeq	r1, r0, r2, lsl #16
     b84:	55010b13 	strpl	r0, [r1, #-2835]	; 0xfffff4ed
     b88:	00130117 	andseq	r0, r3, r7, lsl r1
     b8c:	82891400 	addhi	r1, r9, #0, 8
     b90:	01110101 	tsteq	r1, r1, lsl #2
     b94:	13011331 	movwne	r1, #4913	; 0x1331
     b98:	8a150000 	bhi	540ba0 <__bss_end__+0x537040>
     b9c:	02000182 	andeq	r0, r0, #-2147483616	; 0x80000020
     ba0:	18429118 	stmdane	r2, {r3, r4, r8, ip, pc}^
     ba4:	89160000 	ldmdbhi	r6, {}	; <UNPREDICTABLE>
     ba8:	11010182 	smlabbne	r1, r2, r1, r0
     bac:	00133101 	andseq	r3, r3, r1, lsl #2
     bb0:	01011700 	tsteq	r1, r0, lsl #14
     bb4:	13011349 	movwne	r1, #4937	; 0x1349
     bb8:	21180000 	tstcs	r8, r0
     bbc:	2f134900 	svccs	0x00134900
     bc0:	1900000b 	stmdbne	r0, {r0, r1, r3}
     bc4:	0e03012e 	adfeqsp	f0, f3, #0.5
     bc8:	0b3b0b3a 	bleq	ec38b8 <__bss_end__+0xeb9d58>
     bcc:	19270b39 	stmdbne	r7!, {r0, r3, r4, r5, r8, r9, fp}
     bd0:	01111349 	tsteq	r1, r9, asr #6
     bd4:	18400612 	stmdane	r0, {r1, r4, r9, sl}^
     bd8:	01194297 			; <UNDEFINED> instruction: 0x01194297
     bdc:	1a000013 	bne	c30 <__code_start__-0x73d0>
     be0:	08030005 	stmdaeq	r3, {r0, r2}
     be4:	0b3b0b3a 	bleq	ec38d4 <__bss_end__+0xeb9d74>
     be8:	13490b39 	movtne	r0, #39737	; 0x9b39
     bec:	42b71702 	adcsmi	r1, r7, #524288	; 0x80000
     bf0:	1b000017 	blne	c54 <__code_start__-0x73ac>
     bf4:	00018289 	andeq	r8, r1, r9, lsl #5
     bf8:	13310111 	teqne	r1, #1073741828	; 0x40000004
     bfc:	051c0000 	ldreq	r0, [ip, #-0]
     c00:	3a080300 	bcc	201808 <__bss_end__+0x1f7ca8>
     c04:	390b3b0b 	stmdbcc	fp, {r0, r1, r3, r8, r9, fp, ip, sp}
     c08:	0213490b 	andseq	r4, r3, #180224	; 0x2c000
     c0c:	1d000018 	stcne	0, cr0, [r0, #-96]	; 0xffffffa0
     c10:	193f012e 	ldmdbne	pc!, {r1, r2, r3, r5, r8}	; <UNPREDICTABLE>
     c14:	0b3a0e03 	bleq	e84428 <__bss_end__+0xe7a8c8>
     c18:	0b390b3b 	bleq	e4390c <__bss_end__+0xe39dac>
     c1c:	13491927 	movtne	r1, #39207	; 0x9927
     c20:	06120111 			; <UNDEFINED> instruction: 0x06120111
     c24:	42971840 	addsmi	r1, r7, #64, 16	; 0x400000
     c28:	00130119 	andseq	r0, r3, r9, lsl r1
     c2c:	00051e00 	andeq	r1, r5, r0, lsl #28
     c30:	0b3a0e03 	bleq	e84444 <__bss_end__+0xe7a8e4>
     c34:	0b390b3b 	bleq	e43928 <__bss_end__+0xe39dc8>
     c38:	18021349 	stmdane	r2, {r0, r3, r6, r8, r9, ip}
     c3c:	341f0000 	ldrcc	r0, [pc], #-0	; c44 <__code_start__-0x73bc>
     c40:	3a080300 	bcc	201848 <__bss_end__+0x1f7ce8>
     c44:	390b3b0b 	stmdbcc	fp, {r0, r1, r3, r8, r9, fp, ip, sp}
     c48:	0213490b 	andseq	r4, r3, #180224	; 0x2c000
     c4c:	1742b717 	smlaldne	fp, r2, r7, r7
     c50:	34200000 	strtcc	r0, [r0], #-0
     c54:	3a0e0300 	bcc	38185c <__bss_end__+0x377cfc>
     c58:	390b3b0b 	stmdbcc	fp, {r0, r1, r3, r8, r9, fp, ip, sp}
     c5c:	0213490b 	andseq	r4, r3, #180224	; 0x2c000
     c60:	1742b717 	smlaldne	fp, r2, r7, r7
     c64:	34210000 	strtcc	r0, [r1], #-0
     c68:	490e0300 	stmdbmi	lr, {r8, r9}
     c6c:	02193413 	andseq	r3, r9, #318767104	; 0x13000000
     c70:	22000018 	andcs	r0, r0, #24, 0
     c74:	0111010b 	tsteq	r1, fp, lsl #2
     c78:	00000612 	andeq	r0, r0, r2, lsl r6
     c7c:	03003423 	movweq	r3, #1059	; 0x423
     c80:	3b0b3a08 	blcc	2cf4a8 <__bss_end__+0x2c5948>
     c84:	490b390b 	stmdbmi	fp, {r0, r1, r3, r8, fp, ip, sp}
     c88:	00180213 	andseq	r0, r8, r3, lsl r2
     c8c:	00342400 	eorseq	r2, r4, r0, lsl #8
     c90:	0b3a0e03 	bleq	e844a4 <__bss_end__+0xe7a944>
     c94:	0b390b3b 	bleq	e43988 <__bss_end__+0xe39e28>
     c98:	18021349 	stmdane	r2, {r0, r3, r6, r8, r9, ip}
     c9c:	0b250000 	bleq	940ca4 <__bss_end__+0x937144>
     ca0:	12011101 	andne	r1, r1, #1073741824	; 0x40000000
     ca4:	00130106 	andseq	r0, r3, r6, lsl #2
     ca8:	00342600 	eorseq	r2, r4, r0, lsl #12
     cac:	0b3a0803 	bleq	e82cc0 <__bss_end__+0xe79160>
     cb0:	0b390b3b 	bleq	e439a4 <__bss_end__+0xe39e44>
     cb4:	00001349 	andeq	r1, r0, r9, asr #6
     cb8:	01828927 	orreq	r8, r2, r7, lsr #18
     cbc:	01011101 	tsteq	r1, r1, lsl #2
     cc0:	28000013 	stmdacs	r0, {r0, r1, r4}
     cc4:	0e030005 	cdpeq	0, 0, cr0, cr3, cr5, {0}
     cc8:	0b3b0b3a 	bleq	ec39b8 <__bss_end__+0xeb9e58>
     ccc:	13490b39 	movtne	r0, #39737	; 0x9b39
     cd0:	42b71702 	adcsmi	r1, r7, #524288	; 0x80000
     cd4:	29000017 	stmdbcs	r0, {r0, r1, r2, r4}
     cd8:	0803012e 	stmdaeq	r3, {r1, r2, r3, r5, r8}
     cdc:	0b3b0b3a 	bleq	ec39cc <__bss_end__+0xeb9e6c>
     ce0:	19270b39 	stmdbne	r7!, {r0, r3, r4, r5, r8, r9, fp}
     ce4:	01111349 	tsteq	r1, r9, asr #6
     ce8:	18400612 	stmdane	r0, {r1, r4, r9, sl}^
     cec:	01194297 			; <UNDEFINED> instruction: 0x01194297
     cf0:	2a000013 	bcs	d44 <__code_start__-0x72bc>
     cf4:	193f012e 	ldmdbne	pc!, {r1, r2, r3, r5, r8}	; <UNPREDICTABLE>
     cf8:	0b3a0e03 	bleq	e8450c <__bss_end__+0xe7a9ac>
     cfc:	0b390b3b 	bleq	e439f0 <__bss_end__+0xe39e90>
     d00:	01111927 	tsteq	r1, r7, lsr #18
     d04:	18400612 	stmdane	r0, {r1, r4, r9, sl}^
     d08:	01194297 			; <UNDEFINED> instruction: 0x01194297
     d0c:	2b000013 	blcs	d60 <__code_start__-0x72a0>
     d10:	193f002e 	ldmdbne	pc!, {r1, r2, r3, r5}	; <UNPREDICTABLE>
     d14:	0e6e193c 			; <UNDEFINED> instruction: 0x0e6e193c
     d18:	0b3a0e03 	bleq	e8452c <__bss_end__+0xe7a9cc>
     d1c:	0b390b3b 	bleq	e43a10 <__bss_end__+0xe39eb0>
     d20:	01000000 	mrseq	r0, (UNDEF: 0)
     d24:	0e250111 	mcreq	1, 1, r0, cr5, cr1, {0}
     d28:	0e030b13 	vmoveq.32	d3[0], r0
     d2c:	01110e1b 	tsteq	r1, fp, lsl lr
     d30:	17100612 			; <UNDEFINED> instruction: 0x17100612
     d34:	24020000 	strcs	r0, [r2], #-0
     d38:	3e0b0b00 	vmlacc.f64	d0, d11, d0
     d3c:	0008030b 	andeq	r0, r8, fp, lsl #6
     d40:	00240300 	eoreq	r0, r4, r0, lsl #6
     d44:	0b3e0b0b 	bleq	f83978 <__bss_end__+0xf79e18>
     d48:	00000e03 	andeq	r0, r0, r3, lsl #28
     d4c:	27011504 	strcs	r1, [r1, -r4, lsl #10]
     d50:	01134919 	tsteq	r3, r9, lsl r9
     d54:	05000013 	streq	r0, [r0, #-19]	; 0xffffffed
     d58:	13490005 	movtne	r0, #36869	; 0x9005
     d5c:	34060000 	strcc	r0, [r6], #-0
     d60:	3a0e0300 	bcc	381968 <__bss_end__+0x377e08>
     d64:	390b3b0b 	stmdbcc	fp, {r0, r1, r3, r8, r9, fp, ip, sp}
     d68:	3f13490b 	svccc	0x0013490b
     d6c:	00193c19 	andseq	r3, r9, r9, lsl ip
     d70:	000f0700 	andeq	r0, pc, r0, lsl #14
     d74:	13490b0b 	movtne	r0, #39691	; 0x9b0b
     d78:	26080000 	strcs	r0, [r8], -r0
     d7c:	00134900 	andseq	r4, r3, r0, lsl #18
     d80:	012e0900 			; <UNDEFINED> instruction: 0x012e0900
     d84:	0e03193f 			; <UNDEFINED> instruction: 0x0e03193f
     d88:	0b3b0b3a 	bleq	ec3a78 <__bss_end__+0xeb9f18>
     d8c:	19270b39 	stmdbne	r7!, {r0, r3, r4, r5, r8, r9, fp}
     d90:	11190187 	tstne	r9, r7, lsl #3
     d94:	40061201 	andmi	r1, r6, r1, lsl #4
     d98:	19429718 	stmdbne	r2, {r3, r4, r8, r9, sl, ip, pc}^
     d9c:	00001301 	andeq	r1, r0, r1, lsl #6
     da0:	0182890a 	orreq	r8, r2, sl, lsl #18
     da4:	01011101 	tsteq	r1, r1, lsl #2
     da8:	0b000013 	bleq	dfc <__code_start__-0x7204>
     dac:	0001828a 	andeq	r8, r1, sl, lsl #5
     db0:	42911802 	addsmi	r1, r1, #131072	; 0x20000
     db4:	0c000018 	stceq	0, cr0, [r0], {24}
     db8:	00018289 	andeq	r8, r1, r9, lsl #5
     dbc:	13310111 	teqne	r1, #1073741828	; 0x40000004
     dc0:	890d0000 	stmdbhi	sp, {}	; <UNPREDICTABLE>
     dc4:	11010182 	smlabbne	r1, r2, r1, r0
     dc8:	01133101 	tsteq	r3, r1, lsl #2
     dcc:	0e000013 	mcreq	0, 0, r0, cr0, cr3, {0}
     dd0:	193f002e 	ldmdbne	pc!, {r1, r2, r3, r5}	; <UNPREDICTABLE>
     dd4:	0e6e193c 			; <UNDEFINED> instruction: 0x0e6e193c
     dd8:	0b3a0e03 	bleq	e845ec <__bss_end__+0xe7aa8c>
     ddc:	0b390b3b 	bleq	e43ad0 <__bss_end__+0xe39f70>
     de0:	01000000 	mrseq	r0, (UNDEF: 0)
     de4:	0e250111 	mcreq	1, 1, r0, cr5, cr1, {0}
     de8:	0e030b13 	vmoveq.32	d3[0], r0
     dec:	01110e1b 	tsteq	r1, fp, lsl lr
     df0:	17100612 			; <UNDEFINED> instruction: 0x17100612
     df4:	24020000 	strcs	r0, [r2], #-0
     df8:	3e0b0b00 	vmlacc.f64	d0, d11, d0
     dfc:	0008030b 	andeq	r0, r8, fp, lsl #6
     e00:	00240300 	eoreq	r0, r4, r0, lsl #6
     e04:	0b3e0b0b 	bleq	f83a38 <__bss_end__+0xf79ed8>
     e08:	00000e03 	andeq	r0, r0, r3, lsl #28
     e0c:	27011504 	strcs	r1, [r1, -r4, lsl #10]
     e10:	01134919 	tsteq	r3, r9, lsl r9
     e14:	05000013 	streq	r0, [r0, #-19]	; 0xffffffed
     e18:	13490005 	movtne	r0, #36869	; 0x9005
     e1c:	34060000 	strcc	r0, [r6], #-0
     e20:	3a0e0300 	bcc	381a28 <__bss_end__+0x377ec8>
     e24:	390b3b0b 	stmdbcc	fp, {r0, r1, r3, r8, r9, fp, ip, sp}
     e28:	3f13490b 	svccc	0x0013490b
     e2c:	00193c19 	andseq	r3, r9, r9, lsl ip
     e30:	000f0700 	andeq	r0, pc, r0, lsl #14
     e34:	13490b0b 	movtne	r0, #39691	; 0x9b0b
     e38:	26080000 	strcs	r0, [r8], -r0
     e3c:	00134900 	andseq	r4, r3, r0, lsl #18
     e40:	012e0900 			; <UNDEFINED> instruction: 0x012e0900
     e44:	0e03193f 			; <UNDEFINED> instruction: 0x0e03193f
     e48:	0b3b0b3a 	bleq	ec3b38 <__bss_end__+0xeb9fd8>
     e4c:	01110b39 	tsteq	r1, r9, lsr fp
     e50:	18400612 	stmdane	r0, {r1, r4, r9, sl}^
     e54:	01194297 			; <UNDEFINED> instruction: 0x01194297
     e58:	0a000013 	beq	eac <__code_start__-0x7154>
     e5c:	193f002e 	ldmdbne	pc!, {r1, r2, r3, r5}	; <UNPREDICTABLE>
     e60:	0b3a0e03 	bleq	e84674 <__bss_end__+0xe7ab14>
     e64:	0b390b3b 	bleq	e43b58 <__bss_end__+0xe39ff8>
     e68:	193c1927 	ldmdbne	ip!, {r0, r1, r2, r5, r8, fp, ip}
     e6c:	340b0000 	strcc	r0, [fp], #-0
     e70:	3a080300 	bcc	201a78 <__bss_end__+0x1f7f18>
     e74:	390b3b0b 	stmdbcc	fp, {r0, r1, r3, r8, r9, fp, ip, sp}
     e78:	0213490b 	andseq	r4, r3, #180224	; 0x2c000
     e7c:	1742b717 	smlaldne	fp, r2, r7, r7
     e80:	340c0000 	strcc	r0, [ip], #-0
     e84:	3a0e0300 	bcc	381a8c <__bss_end__+0x377f2c>
     e88:	390b3b0b 	stmdbcc	fp, {r0, r1, r3, r8, r9, fp, ip, sp}
     e8c:	0013490b 	andseq	r4, r3, fp, lsl #18
     e90:	010b0d00 	tsteq	fp, r0, lsl #26
     e94:	06120111 			; <UNDEFINED> instruction: 0x06120111
     e98:	00001301 	andeq	r1, r0, r1, lsl #6
     e9c:	0300340e 	movweq	r3, #1038	; 0x40e
     ea0:	3b0b3a08 	blcc	2cf6c8 <__bss_end__+0x2c5b68>
     ea4:	490b390b 	stmdbmi	fp, {r0, r1, r3, r8, fp, ip, sp}
     ea8:	000b1c13 	andeq	r1, fp, r3, lsl ip
     eac:	82890f00 	addhi	r0, r9, #0, 30
     eb0:	01110001 	tsteq	r1, r1
     eb4:	00001331 	andeq	r1, r0, r1, lsr r3
     eb8:	3f002e10 	svccc	0x00002e10
     ebc:	6e193c19 	mrcvs	12, 0, r3, cr9, cr9, {0}
     ec0:	3a0e030e 	bcc	381b00 <__bss_end__+0x377fa0>
     ec4:	39053b0b 	stmdbcc	r5, {r0, r1, r3, r8, r9, fp, ip, sp}
     ec8:	1100000b 	tstne	r0, fp
     ecc:	193f002e 	ldmdbne	pc!, {r1, r2, r3, r5}	; <UNPREDICTABLE>
     ed0:	0e6e193c 			; <UNDEFINED> instruction: 0x0e6e193c
     ed4:	0b3a0e03 	bleq	e846e8 <__bss_end__+0xe7ab88>
     ed8:	0b390b3b 	bleq	e43bcc <__bss_end__+0xe3a06c>
     edc:	01000000 	mrseq	r0, (UNDEF: 0)
     ee0:	0e250111 	mcreq	1, 1, r0, cr5, cr1, {0}
     ee4:	0e030b13 	vmoveq.32	d3[0], r0
     ee8:	01110e1b 	tsteq	r1, fp, lsl lr
     eec:	17100612 			; <UNDEFINED> instruction: 0x17100612
     ef0:	24020000 	strcs	r0, [r2], #-0
     ef4:	3e0b0b00 	vmlacc.f64	d0, d11, d0
     ef8:	0008030b 	andeq	r0, r8, fp, lsl #6
     efc:	00240300 	eoreq	r0, r4, r0, lsl #6
     f00:	0b3e0b0b 	bleq	f83b34 <__bss_end__+0xf79fd4>
     f04:	00000e03 	andeq	r0, r0, r3, lsl #28
     f08:	27011504 	strcs	r1, [r1, -r4, lsl #10]
     f0c:	01134919 	tsteq	r3, r9, lsl r9
     f10:	05000013 	streq	r0, [r0, #-19]	; 0xffffffed
     f14:	13490005 	movtne	r0, #36869	; 0x9005
     f18:	34060000 	strcc	r0, [r6], #-0
     f1c:	3a0e0300 	bcc	381b24 <__bss_end__+0x377fc4>
     f20:	390b3b0b 	stmdbcc	fp, {r0, r1, r3, r8, r9, fp, ip, sp}
     f24:	3f13490b 	svccc	0x0013490b
     f28:	00193c19 	andseq	r3, r9, r9, lsl ip
     f2c:	000f0700 	andeq	r0, pc, r0, lsl #14
     f30:	13490b0b 	movtne	r0, #39691	; 0x9b0b
     f34:	26080000 	strcs	r0, [r8], -r0
     f38:	00134900 	andseq	r4, r3, r0, lsl #18
     f3c:	002e0900 	eoreq	r0, lr, r0, lsl #18
     f40:	0e03193f 			; <UNDEFINED> instruction: 0x0e03193f
     f44:	0b3b0b3a 	bleq	ec3c34 <__bss_end__+0xeba0d4>
     f48:	19270b39 	stmdbne	r7!, {r0, r3, r4, r5, r8, r9, fp}
     f4c:	06120111 			; <UNDEFINED> instruction: 0x06120111
     f50:	42971840 	addsmi	r1, r7, #64, 16	; 0x400000
     f54:	00000019 	andeq	r0, r0, r9, lsl r0
     f58:	25011101 	strcs	r1, [r1, #-257]	; 0xfffffeff
     f5c:	030b130e 	movweq	r1, #45838	; 0xb30e
     f60:	550e1b0e 	strpl	r1, [lr, #-2830]	; 0xfffff4f2
     f64:	10011117 	andne	r1, r1, r7, lsl r1
     f68:	02000017 	andeq	r0, r0, #23, 0
     f6c:	0b0b0024 	bleq	2c1004 <__bss_end__+0x2b74a4>
     f70:	08030b3e 	stmdaeq	r3, {r1, r2, r3, r4, r5, r8, r9, fp}
     f74:	26030000 	strcs	r0, [r3], -r0
     f78:	00134900 	andseq	r4, r3, r0, lsl #18
     f7c:	00240400 	eoreq	r0, r4, r0, lsl #8
     f80:	0b3e0b0b 	bleq	f83bb4 <__bss_end__+0xf7a054>
     f84:	00000e03 	andeq	r0, r0, r3, lsl #28
     f88:	27011505 	strcs	r1, [r1, -r5, lsl #10]
     f8c:	01134919 	tsteq	r3, r9, lsl r9
     f90:	06000013 			; <UNDEFINED> instruction: 0x06000013
     f94:	13490005 	movtne	r0, #36869	; 0x9005
     f98:	34070000 	strcc	r0, [r7], #-0
     f9c:	3a0e0300 	bcc	381ba4 <__bss_end__+0x378044>
     fa0:	390b3b0b 	stmdbcc	fp, {r0, r1, r3, r8, r9, fp, ip, sp}
     fa4:	3f13490b 	svccc	0x0013490b
     fa8:	00193c19 	andseq	r3, r9, r9, lsl ip
     fac:	000f0800 	andeq	r0, pc, r0, lsl #16
     fb0:	13490b0b 	movtne	r0, #39691	; 0x9b0b
     fb4:	34090000 	strcc	r0, [r9], #-0
     fb8:	3a0e0300 	bcc	381bc0 <__bss_end__+0x378060>
     fbc:	390b3b0b 	stmdbcc	fp, {r0, r1, r3, r8, r9, fp, ip, sp}
     fc0:	0013490b 	andseq	r4, r3, fp, lsl #18
     fc4:	012e0a00 			; <UNDEFINED> instruction: 0x012e0a00
     fc8:	0e03193f 			; <UNDEFINED> instruction: 0x0e03193f
     fcc:	0b3b0b3a 	bleq	ec3cbc <__bss_end__+0xeba15c>
     fd0:	19270b39 	stmdbne	r7!, {r0, r3, r4, r5, r8, r9, fp}
     fd4:	11190187 	tstne	r9, r7, lsl #3
     fd8:	40061201 	andmi	r1, r6, r1, lsl #4
     fdc:	19429718 	stmdbne	r2, {r3, r4, r8, r9, sl, ip, pc}^
     fe0:	00001301 	andeq	r1, r0, r1, lsl #6
     fe4:	0300340b 	movweq	r3, #1035	; 0x40b
     fe8:	3b0b3a0e 	blcc	2cf828 <__bss_end__+0x2c5cc8>
     fec:	490b390b 	stmdbmi	fp, {r0, r1, r3, r8, fp, ip, sp}
     ff0:	b7170213 			; <UNDEFINED> instruction: 0xb7170213
     ff4:	00001742 	andeq	r1, r0, r2, asr #14
     ff8:	0182890c 	orreq	r8, r2, ip, lsl #18
     ffc:	31011100 	mrscc	r1, (UNDEF: 17)
    1000:	0d000013 	stceq	0, cr0, [r0, #-76]	; 0xffffffb4
    1004:	01018289 	smlabbeq	r1, r9, r2, r8
    1008:	13310111 	teqne	r1, #1073741828	; 0x40000004
    100c:	00001301 	andeq	r1, r0, r1, lsl #6
    1010:	01828a0e 	orreq	r8, r2, lr, lsl #20
    1014:	91180200 	tstls	r8, r0, lsl #4
    1018:	00001842 	andeq	r1, r0, r2, asr #16
    101c:	3f012e0f 	svccc	0x00012e0f
    1020:	3a0e0319 	bcc	381c8c <__bss_end__+0x37812c>
    1024:	390b3b0b 	stmdbcc	fp, {r0, r1, r3, r8, r9, fp, ip, sp}
    1028:	1119270b 	tstne	r9, fp, lsl #14
    102c:	40061201 	andmi	r1, r6, r1, lsl #4
    1030:	19429718 	stmdbne	r2, {r3, r4, r8, r9, sl, ip, pc}^
    1034:	00001301 	andeq	r1, r0, r1, lsl #6
    1038:	3f012e10 	svccc	0x00012e10
    103c:	3a0e0319 	bcc	381ca8 <__bss_end__+0x378148>
    1040:	390b3b0b 	stmdbcc	fp, {r0, r1, r3, r8, r9, fp, ip, sp}
    1044:	4919270b 	ldmdbmi	r9, {r0, r1, r3, r8, r9, sl, sp}
    1048:	12011113 	andne	r1, r1, #-1073741820	; 0xc0000004
    104c:	97184006 	ldrls	r4, [r8, -r6]
    1050:	13011942 	movwne	r1, #6466	; 0x1942
    1054:	2e110000 	cdpcs	0, 1, cr0, cr1, cr0, {0}
    1058:	3c193f00 	ldccc	15, cr3, [r9], {-0}
    105c:	030e6e19 	movweq	r6, #60953	; 0xee19
    1060:	3b0b3a0e 	blcc	2cf8a0 <__bss_end__+0x2c5d40>
    1064:	000b3905 	andeq	r3, fp, r5, lsl #18
    1068:	002e1200 	eoreq	r1, lr, r0, lsl #4
    106c:	193c193f 	ldmdbne	ip!, {r0, r1, r2, r3, r4, r5, r8, fp, ip}
    1070:	0e030e6e 	cdpeq	14, 0, cr0, cr3, cr14, {3}
    1074:	0b3b0b3a 	bleq	ec3d64 <__bss_end__+0xeba204>
    1078:	00000b39 	andeq	r0, r0, r9, lsr fp
    107c:	01110100 	tsteq	r1, r0, lsl #2
    1080:	0b130e25 	bleq	4c491c <__bss_end__+0x4badbc>
    1084:	0e1b0e03 	cdpeq	14, 1, cr0, cr11, cr3, {0}
    1088:	06120111 			; <UNDEFINED> instruction: 0x06120111
    108c:	00001710 	andeq	r1, r0, r0, lsl r7
    1090:	0b002402 	bleq	a0a0 <__bss_end__+0x540>
    1094:	030b3e0b 	movweq	r3, #48651	; 0xbe0b
    1098:	03000008 	movweq	r0, #8
    109c:	0b0b0024 	bleq	2c1134 <__bss_end__+0x2b75d4>
    10a0:	0e030b3e 	vmoveq.16	d3[0], r0
    10a4:	15040000 	strne	r0, [r4, #-0]
    10a8:	49192701 	ldmdbmi	r9, {r0, r8, r9, sl, sp}
    10ac:	00130113 	andseq	r0, r3, r3, lsl r1
    10b0:	00050500 	andeq	r0, r5, r0, lsl #10
    10b4:	00001349 	andeq	r1, r0, r9, asr #6
    10b8:	03003406 	movweq	r3, #1030	; 0x406
    10bc:	3b0b3a0e 	blcc	2cf8fc <__bss_end__+0x2c5d9c>
    10c0:	490b390b 	stmdbmi	fp, {r0, r1, r3, r8, fp, ip, sp}
    10c4:	3c193f13 	ldccc	15, cr3, [r9], {19}
    10c8:	07000019 	smladeq	r0, r9, r0, r0
    10cc:	0b0b000f 	bleq	2c1110 <__bss_end__+0x2b75b0>
    10d0:	00001349 	andeq	r1, r0, r9, asr #6
    10d4:	49002608 	stmdbmi	r0, {r3, r9, sl, sp}
    10d8:	09000013 	stmdbeq	r0, {r0, r1, r4}
    10dc:	193f012e 	ldmdbne	pc!, {r1, r2, r3, r5, r8}	; <UNPREDICTABLE>
    10e0:	0b3a0e03 	bleq	e848f4 <__bss_end__+0xe7ad94>
    10e4:	0b390b3b 	bleq	e43dd8 <__bss_end__+0xe3a278>
    10e8:	01111927 	tsteq	r1, r7, lsr #18
    10ec:	18400612 	stmdane	r0, {r1, r4, r9, sl}^
    10f0:	01194297 			; <UNDEFINED> instruction: 0x01194297
    10f4:	0a000013 	beq	1148 <__code_start__-0x6eb8>
    10f8:	08030005 	stmdaeq	r3, {r0, r2}
    10fc:	0b3b0b3a 	bleq	ec3dec <__bss_end__+0xeba28c>
    1100:	13490b39 	movtne	r0, #39737	; 0x9b39
    1104:	42b71702 	adcsmi	r1, r7, #524288	; 0x80000
    1108:	0b000017 	bleq	116c <__code_start__-0x6e94>
    110c:	01018289 	smlabbeq	r1, r9, r2, r8
    1110:	13310111 	teqne	r1, #1073741828	; 0x40000004
    1114:	8a0c0000 	bhi	30111c <__bss_end__+0x2f75bc>
    1118:	02000182 	andeq	r0, r0, #-2147483616	; 0x80000020
    111c:	18429118 	stmdane	r2, {r3, r4, r8, ip, pc}^
    1120:	340d0000 	strcc	r0, [sp], #-0
    1124:	3a080300 	bcc	201d2c <__bss_end__+0x1f81cc>
    1128:	390b3b0b 	stmdbcc	fp, {r0, r1, r3, r8, r9, fp, ip, sp}
    112c:	0213490b 	andseq	r4, r3, #180224	; 0x2c000
    1130:	1742b717 	smlaldne	fp, r2, r7, r7
    1134:	0b0e0000 	bleq	38113c <__bss_end__+0x3775dc>
    1138:	12011101 	andne	r1, r1, #1073741824	; 0x40000000
    113c:	00130106 	andseq	r0, r3, r6, lsl #2
    1140:	82890f00 	addhi	r0, r9, #0, 30
    1144:	01110001 	tsteq	r1, r1
    1148:	00001331 	andeq	r1, r0, r1, lsr r3
    114c:	3f012e10 	svccc	0x00012e10
    1150:	3a0e0319 	bcc	381dbc <__bss_end__+0x37825c>
    1154:	390b3b0b 	stmdbcc	fp, {r0, r1, r3, r8, r9, fp, ip, sp}
    1158:	4919270b 	ldmdbmi	r9, {r0, r1, r3, r8, r9, sl, sp}
    115c:	12011113 	andne	r1, r1, #-1073741820	; 0xc0000004
    1160:	97184006 	ldrls	r4, [r8, -r6]
    1164:	13011942 	movwne	r1, #6466	; 0x1942
    1168:	2e110000 	cdpcs	0, 1, cr0, cr1, cr0, {0}
    116c:	3c193f00 	ldccc	15, cr3, [r9], {-0}
    1170:	030e6e19 	movweq	r6, #60953	; 0xee19
    1174:	3b0b3a0e 	blcc	2cf9b4 <__bss_end__+0x2c5e54>
    1178:	000b390b 	andeq	r3, fp, fp, lsl #18
    117c:	11010000 	mrsne	r0, (UNDEF: 1)
    1180:	130e2501 	movwne	r2, #58625	; 0xe501
    1184:	1b0e030b 	blne	381db8 <__bss_end__+0x378258>
    1188:	1201110e 	andne	r1, r1, #-2147483645	; 0x80000003
    118c:	00171006 	andseq	r1, r7, r6
    1190:	00240200 	eoreq	r0, r4, r0, lsl #4
    1194:	0b3e0b0b 	bleq	f83dc8 <__bss_end__+0xf7a268>
    1198:	00000803 	andeq	r0, r0, r3, lsl #16
    119c:	0b002403 	bleq	a1b0 <__bss_end__+0x650>
    11a0:	030b3e0b 	movweq	r3, #48651	; 0xbe0b
    11a4:	0400000e 	streq	r0, [r0], #-14
    11a8:	13490035 	movtne	r0, #36917	; 0x9035
    11ac:	16050000 	strne	r0, [r5], -r0
    11b0:	3a0e0300 	bcc	381db8 <__bss_end__+0x378258>
    11b4:	390b3b0b 	stmdbcc	fp, {r0, r1, r3, r8, r9, fp, ip, sp}
    11b8:	0013490b 	andseq	r4, r3, fp, lsl #18
    11bc:	01040600 	tsteq	r4, r0, lsl #12
    11c0:	0b0b0b3e 	bleq	2c3ec0 <__bss_end__+0x2ba360>
    11c4:	0b3a1349 	bleq	e85ef0 <__bss_end__+0xe7c390>
    11c8:	0b390b3b 	bleq	e43ebc <__bss_end__+0xe3a35c>
    11cc:	00001301 	andeq	r1, r0, r1, lsl #6
    11d0:	03002807 	movweq	r2, #2055	; 0x807
    11d4:	000b1c0e 	andeq	r1, fp, lr, lsl #24
    11d8:	01130800 	tsteq	r3, r0, lsl #16
    11dc:	0b0b0e03 	bleq	2c49f0 <__bss_end__+0x2bae90>
    11e0:	0b3b0b3a 	bleq	ec3ed0 <__bss_end__+0xeba370>
    11e4:	13010b39 	movwne	r0, #6969	; 0x1b39
    11e8:	0d090000 	stceq	0, cr0, [r9, #-0]
    11ec:	3a080300 	bcc	201df4 <__bss_end__+0x1f8294>
    11f0:	390b3b0b 	stmdbcc	fp, {r0, r1, r3, r8, r9, fp, ip, sp}
    11f4:	3813490b 	ldmdacc	r3, {r0, r1, r3, r8, fp, lr}
    11f8:	0a00000b 	beq	122c <__code_start__-0x6dd4>
    11fc:	0e03000d 	cdpeq	0, 0, cr0, cr3, cr13, {0}
    1200:	0b3b0b3a 	bleq	ec3ef0 <__bss_end__+0xeba390>
    1204:	13490b39 	movtne	r0, #39737	; 0x9b39
    1208:	00000b38 	andeq	r0, r0, r8, lsr fp
    120c:	0300340b 	movweq	r3, #1035	; 0x40b
    1210:	3b0b3a0e 	blcc	2cfa50 <__bss_end__+0x2c5ef0>
    1214:	490b390b 	stmdbmi	fp, {r0, r1, r3, r8, fp, ip, sp}
    1218:	00061c13 	andeq	r1, r6, r3, lsl ip
    121c:	000f0c00 	andeq	r0, pc, r0, lsl #24
    1220:	13490b0b 	movtne	r0, #39691	; 0x9b0b
    1224:	260d0000 	strcs	r0, [sp], -r0
    1228:	00134900 	andseq	r4, r3, r0, lsl #18
    122c:	012e0e00 			; <UNDEFINED> instruction: 0x012e0e00
    1230:	0e03193f 			; <UNDEFINED> instruction: 0x0e03193f
    1234:	0b3b0b3a 	bleq	ec3f24 <__bss_end__+0xeba3c4>
    1238:	19270b39 	stmdbne	r7!, {r0, r3, r4, r5, r8, r9, fp}
    123c:	06120111 			; <UNDEFINED> instruction: 0x06120111
    1240:	42971840 	addsmi	r1, r7, #64, 16	; 0x400000
    1244:	00130119 	andseq	r0, r3, r9, lsl r1
    1248:	82890f00 	addhi	r0, r9, #0, 30
    124c:	01110001 	tsteq	r1, r1
    1250:	00001331 	andeq	r1, r0, r1, lsr r3
    1254:	3f012e10 	svccc	0x00012e10
    1258:	3a0e0319 	bcc	381ec4 <__bss_end__+0x378364>
    125c:	390b3b0b 	stmdbcc	fp, {r0, r1, r3, r8, r9, fp, ip, sp}
    1260:	4919270b 	ldmdbmi	r9, {r0, r1, r3, r8, r9, sl, sp}
    1264:	12011113 	andne	r1, r1, #-1073741820	; 0xc0000004
    1268:	97184006 	ldrls	r4, [r8, -r6]
    126c:	13011942 	movwne	r1, #6466	; 0x1942
    1270:	89110000 	ldmdbhi	r1, {}	; <UNPREDICTABLE>
    1274:	11010182 	smlabbne	r1, r2, r1, r0
    1278:	00133101 	andseq	r3, r3, r1, lsl #2
    127c:	828a1200 	addhi	r1, sl, #0, 4
    1280:	18020001 	stmdane	r2, {r0}
    1284:	00184291 	mulseq	r8, r1, r2
    1288:	00051300 	andeq	r1, r5, r0, lsl #6
    128c:	0b3a0803 	bleq	e832a0 <__bss_end__+0xe79740>
    1290:	0b390b3b 	bleq	e43f84 <__bss_end__+0xe3a424>
    1294:	17021349 	strne	r1, [r2, -r9, asr #6]
    1298:	001742b7 			; <UNDEFINED> instruction: 0x001742b7
    129c:	82891400 	addhi	r1, r9, #0, 8
    12a0:	01110101 	tsteq	r1, r1, lsl #2
    12a4:	13011331 	movwne	r1, #4913	; 0x1331
    12a8:	34150000 	ldrcc	r0, [r5], #-0
    12ac:	3a080300 	bcc	201eb4 <__bss_end__+0x1f8354>
    12b0:	390b3b0b 	stmdbcc	fp, {r0, r1, r3, r8, r9, fp, ip, sp}
    12b4:	0213490b 	andseq	r4, r3, #180224	; 0x2c000
    12b8:	1742b717 	smlaldne	fp, r2, r7, r7
    12bc:	34160000 	ldrcc	r0, [r6], #-0
    12c0:	3a0e0300 	bcc	381ec8 <__bss_end__+0x378368>
    12c4:	390b3b0b 	stmdbcc	fp, {r0, r1, r3, r8, r9, fp, ip, sp}
    12c8:	1c13490b 			; <UNDEFINED> instruction: 0x1c13490b
    12cc:	17000005 	strne	r0, [r0, -r5]
    12d0:	0e03012e 	adfeqsp	f0, f3, #0.5
    12d4:	0b3b0b3a 	bleq	ec3fc4 <__bss_end__+0xeba464>
    12d8:	19270b39 	stmdbne	r7!, {r0, r3, r4, r5, r8, r9, fp}
    12dc:	06120111 			; <UNDEFINED> instruction: 0x06120111
    12e0:	42971840 	addsmi	r1, r7, #64, 16	; 0x400000
    12e4:	00130119 	andseq	r0, r3, r9, lsl r1
    12e8:	00051800 	andeq	r1, r5, r0, lsl #16
    12ec:	0b3a0e03 	bleq	e84b00 <__bss_end__+0xe7afa0>
    12f0:	0b390b3b 	bleq	e43fe4 <__bss_end__+0xe3a484>
    12f4:	17021349 	strne	r1, [r2, -r9, asr #6]
    12f8:	001742b7 			; <UNDEFINED> instruction: 0x001742b7
    12fc:	00351900 	eorseq	r1, r5, r0, lsl #18
    1300:	2e1a0000 	cdpcs	0, 1, cr0, cr10, cr0, {0}
    1304:	3c193f00 	ldccc	15, cr3, [r9], {-0}
    1308:	030e6e19 	movweq	r6, #60953	; 0xee19
    130c:	3b0b3a0e 	blcc	2cfb4c <__bss_end__+0x2c5fec>
    1310:	000b390b 	andeq	r3, fp, fp, lsl #18
    1314:	11010000 	mrsne	r0, (UNDEF: 1)
    1318:	130e2501 	movwne	r2, #58625	; 0xe501
    131c:	1b0e030b 	blne	381f50 <__bss_end__+0x3783f0>
    1320:	1201110e 	andne	r1, r1, #-2147483645	; 0x80000003
    1324:	00171006 	andseq	r1, r7, r6
    1328:	00240200 	eoreq	r0, r4, r0, lsl #4
    132c:	0b3e0b0b 	bleq	f83f60 <__bss_end__+0xf7a400>
    1330:	00000803 	andeq	r0, r0, r3, lsl #16
    1334:	0b002403 	bleq	a348 <__bss_end__+0x7e8>
    1338:	030b3e0b 	movweq	r3, #48651	; 0xbe0b
    133c:	0400000e 	streq	r0, [r0], #-14
    1340:	19270115 	stmdbne	r7!, {r0, r2, r4, r8}
    1344:	13011349 	movwne	r1, #4937	; 0x1349
    1348:	05050000 	streq	r0, [r5, #-0]
    134c:	00134900 	andseq	r4, r3, r0, lsl #18
    1350:	00340600 	eorseq	r0, r4, r0, lsl #12
    1354:	0b3a0e03 	bleq	e84b68 <__bss_end__+0xe7b008>
    1358:	0b390b3b 	bleq	e4404c <__bss_end__+0xe3a4ec>
    135c:	193f1349 	ldmdbne	pc!, {r0, r3, r6, r8, r9, ip}	; <UNPREDICTABLE>
    1360:	0000193c 	andeq	r1, r0, ip, lsr r9
    1364:	0b000f07 	bleq	4f88 <__code_start__-0x3078>
    1368:	0013490b 	andseq	r4, r3, fp, lsl #18
    136c:	00260800 	eoreq	r0, r6, r0, lsl #16
    1370:	00001349 	andeq	r1, r0, r9, asr #6
    1374:	3f012e09 	svccc	0x00012e09
    1378:	3a0e0319 	bcc	381fe4 <__bss_end__+0x378484>
    137c:	390b3b0b 	stmdbcc	fp, {r0, r1, r3, r8, r9, fp, ip, sp}
    1380:	4919270b 	ldmdbmi	r9, {r0, r1, r3, r8, r9, sl, sp}
    1384:	12011113 	andne	r1, r1, #-1073741820	; 0xc0000004
    1388:	97184006 	ldrls	r4, [r8, -r6]
    138c:	13011942 	movwne	r1, #6466	; 0x1942
    1390:	050a0000 	streq	r0, [sl, #-0]
    1394:	3a0e0300 	bcc	381f9c <__bss_end__+0x37843c>
    1398:	390b3b0b 	stmdbcc	fp, {r0, r1, r3, r8, r9, fp, ip, sp}
    139c:	0213490b 	andseq	r4, r3, #180224	; 0x2c000
    13a0:	0b000018 	bleq	1408 <__code_start__-0x6bf8>
    13a4:	08030005 	stmdaeq	r3, {r0, r2}
    13a8:	0b3b0b3a 	bleq	ec4098 <__bss_end__+0xeba538>
    13ac:	13490b39 	movtne	r0, #39737	; 0x9b39
    13b0:	42b71702 	adcsmi	r1, r7, #524288	; 0x80000
    13b4:	0c000017 	stceq	0, cr0, [r0], {23}
    13b8:	08030034 	stmdaeq	r3, {r2, r4, r5}
    13bc:	0b3b0b3a 	bleq	ec40ac <__bss_end__+0xeba54c>
    13c0:	13490b39 	movtne	r0, #39737	; 0x9b39
    13c4:	42b71702 	adcsmi	r1, r7, #524288	; 0x80000
    13c8:	00000017 	andeq	r0, r0, r7, lsl r0
    13cc:	25011101 	strcs	r1, [r1, #-257]	; 0xfffffeff
    13d0:	030b130e 	movweq	r1, #45838	; 0xb30e
    13d4:	110e1b0e 	tstne	lr, lr, lsl #22
    13d8:	10061201 	andne	r1, r6, r1, lsl #4
    13dc:	02000017 	andeq	r0, r0, #23, 0
    13e0:	0b0b0024 	bleq	2c1478 <__bss_end__+0x2b7918>
    13e4:	08030b3e 	stmdaeq	r3, {r1, r2, r3, r4, r5, r8, r9, fp}
    13e8:	24030000 	strcs	r0, [r3], #-0
    13ec:	3e0b0b00 	vmlacc.f64	d0, d11, d0
    13f0:	000e030b 	andeq	r0, lr, fp, lsl #6
    13f4:	01150400 	tsteq	r5, r0, lsl #8
    13f8:	13491927 	movtne	r1, #39207	; 0x9927
    13fc:	00001301 	andeq	r1, r0, r1, lsl #6
    1400:	49000505 	stmdbmi	r0, {r0, r2, r8, sl}
    1404:	06000013 			; <UNDEFINED> instruction: 0x06000013
    1408:	0e030034 	mcreq	0, 0, r0, cr3, cr4, {1}
    140c:	0b3b0b3a 	bleq	ec40fc <__bss_end__+0xeba59c>
    1410:	13490b39 	movtne	r0, #39737	; 0x9b39
    1414:	193c193f 	ldmdbne	ip!, {r0, r1, r2, r3, r4, r5, r8, fp, ip}
    1418:	0f070000 	svceq	0x00070000
    141c:	490b0b00 	stmdbmi	fp, {r8, r9, fp}
    1420:	08000013 	stmdaeq	r0, {r0, r1, r4}
    1424:	13490026 	movtne	r0, #36902	; 0x9026
    1428:	2e090000 	cdpcs	0, 0, cr0, cr9, cr0, {0}
    142c:	03193f01 	tsteq	r9, #1, 30
    1430:	3b0b3a0e 	blcc	2cfc70 <__bss_end__+0x2c6110>
    1434:	270b390b 	strcs	r3, [fp, -fp, lsl #18]
    1438:	11134919 	tstne	r3, r9, lsl r9
    143c:	40061201 	andmi	r1, r6, r1, lsl #4
    1440:	19429718 	stmdbne	r2, {r3, r4, r8, r9, sl, ip, pc}^
    1444:	050a0000 	streq	r0, [sl, #-0]
    1448:	3a080300 	bcc	202050 <__bss_end__+0x1f84f0>
    144c:	390b3b0b 	stmdbcc	fp, {r0, r1, r3, r8, r9, fp, ip, sp}
    1450:	0213490b 	andseq	r4, r3, #180224	; 0x2c000
    1454:	1742b717 	smlaldne	fp, r2, r7, r7
    1458:	01000000 	mrseq	r0, (UNDEF: 0)
    145c:	0e250111 	mcreq	1, 1, r0, cr5, cr1, {0}
    1460:	0e030b13 	vmoveq.32	d3[0], r0
    1464:	01110e1b 	tsteq	r1, fp, lsl lr
    1468:	17100612 			; <UNDEFINED> instruction: 0x17100612
    146c:	24020000 	strcs	r0, [r2], #-0
    1470:	3e0b0b00 	vmlacc.f64	d0, d11, d0
    1474:	0008030b 	andeq	r0, r8, fp, lsl #6
    1478:	00240300 	eoreq	r0, r4, r0, lsl #6
    147c:	0b3e0b0b 	bleq	f840b0 <__bss_end__+0xf7a550>
    1480:	00000e03 	andeq	r0, r0, r3, lsl #28
    1484:	27011504 	strcs	r1, [r1, -r4, lsl #10]
    1488:	01134919 	tsteq	r3, r9, lsl r9
    148c:	05000013 	streq	r0, [r0, #-19]	; 0xffffffed
    1490:	13490005 	movtne	r0, #36869	; 0x9005
    1494:	34060000 	strcc	r0, [r6], #-0
    1498:	3a0e0300 	bcc	3820a0 <__bss_end__+0x378540>
    149c:	390b3b0b 	stmdbcc	fp, {r0, r1, r3, r8, r9, fp, ip, sp}
    14a0:	3f13490b 	svccc	0x0013490b
    14a4:	00193c19 	andseq	r3, r9, r9, lsl ip
    14a8:	000f0700 	andeq	r0, pc, r0, lsl #14
    14ac:	13490b0b 	movtne	r0, #39691	; 0x9b0b
    14b0:	26080000 	strcs	r0, [r8], -r0
    14b4:	00134900 	andseq	r4, r3, r0, lsl #18
    14b8:	012e0900 			; <UNDEFINED> instruction: 0x012e0900
    14bc:	0e03193f 			; <UNDEFINED> instruction: 0x0e03193f
    14c0:	0b3b0b3a 	bleq	ec41b0 <__bss_end__+0xeba650>
    14c4:	19270b39 	stmdbne	r7!, {r0, r3, r4, r5, r8, r9, fp}
    14c8:	01111349 	tsteq	r1, r9, asr #6
    14cc:	18400612 	stmdane	r0, {r1, r4, r9, sl}^
    14d0:	01194297 			; <UNDEFINED> instruction: 0x01194297
    14d4:	0a000013 	beq	1528 <__code_start__-0x6ad8>
    14d8:	08030005 	stmdaeq	r3, {r0, r2}
    14dc:	0b3b0b3a 	bleq	ec41cc <__bss_end__+0xeba66c>
    14e0:	13490b39 	movtne	r0, #39737	; 0x9b39
    14e4:	00001802 	andeq	r1, r0, r2, lsl #16
    14e8:	0300050b 	movweq	r0, #1291	; 0x50b
    14ec:	3b0b3a08 	blcc	2cfd14 <__bss_end__+0x2c61b4>
    14f0:	490b390b 	stmdbmi	fp, {r0, r1, r3, r8, fp, ip, sp}
    14f4:	b7170213 			; <UNDEFINED> instruction: 0xb7170213
    14f8:	00001742 	andeq	r1, r0, r2, asr #14
    14fc:	0300340c 	movweq	r3, #1036	; 0x40c
    1500:	3b0b3a08 	blcc	2cfd28 <__bss_end__+0x2c61c8>
    1504:	490b390b 	stmdbmi	fp, {r0, r1, r3, r8, fp, ip, sp}
    1508:	b7170213 			; <UNDEFINED> instruction: 0xb7170213
    150c:	00001742 	andeq	r1, r0, r2, asr #14
    1510:	01110100 	tsteq	r1, r0, lsl #2
    1514:	0b130e25 	bleq	4c4db0 <__bss_end__+0x4bb250>
    1518:	0e1b0e03 	cdpeq	14, 1, cr0, cr11, cr3, {0}
    151c:	01111755 	tsteq	r1, r5, asr r7
    1520:	00001710 	andeq	r1, r0, r0, lsl r7
    1524:	0b002402 	bleq	a534 <__bss_end__+0x9d4>
    1528:	030b3e0b 	movweq	r3, #48651	; 0xbe0b
    152c:	03000008 	movweq	r0, #8
    1530:	0e030016 	mcreq	0, 0, r0, cr3, cr6, {0}
    1534:	0b3b0b3a 	bleq	ec4224 <__bss_end__+0xeba6c4>
    1538:	13490b39 	movtne	r0, #39737	; 0x9b39
    153c:	24040000 	strcs	r0, [r4], #-0
    1540:	3e0b0b00 	vmlacc.f64	d0, d11, d0
    1544:	000e030b 	andeq	r0, lr, fp, lsl #6
    1548:	00260500 	eoreq	r0, r6, r0, lsl #10
    154c:	00001349 	andeq	r1, r0, r9, asr #6
    1550:	27011506 	strcs	r1, [r1, -r6, lsl #10]
    1554:	01134919 	tsteq	r3, r9, lsl r9
    1558:	07000013 	smladeq	r0, r3, r0, r0
    155c:	13490005 	movtne	r0, #36869	; 0x9005
    1560:	34080000 	strcc	r0, [r8], #-0
    1564:	3a0e0300 	bcc	38216c <__bss_end__+0x37860c>
    1568:	390b3b0b 	stmdbcc	fp, {r0, r1, r3, r8, r9, fp, ip, sp}
    156c:	3f13490b 	svccc	0x0013490b
    1570:	00193c19 	andseq	r3, r9, r9, lsl ip
    1574:	000f0900 	andeq	r0, pc, r0, lsl #18
    1578:	13490b0b 	movtne	r0, #39691	; 0x9b0b
    157c:	2e0a0000 	cdpcs	0, 0, cr0, cr10, cr0, {0}
    1580:	03193f01 	tsteq	r9, #1, 30
    1584:	3b0b3a0e 	blcc	2cfdc4 <__bss_end__+0x2c6264>
    1588:	270b390b 	strcs	r3, [fp, -fp, lsl #18]
    158c:	11134919 	tstne	r3, r9, lsl r9
    1590:	40061201 	andmi	r1, r6, r1, lsl #4
    1594:	19429718 	stmdbne	r2, {r3, r4, r8, r9, sl, ip, pc}^
    1598:	00001301 	andeq	r1, r0, r1, lsl #6
    159c:	0300050b 	movweq	r0, #1291	; 0x50b
    15a0:	3b0b3a08 	blcc	2cfdc8 <__bss_end__+0x2c6268>
    15a4:	490b390b 	stmdbmi	fp, {r0, r1, r3, r8, fp, ip, sp}
    15a8:	b7170213 			; <UNDEFINED> instruction: 0xb7170213
    15ac:	00001742 	andeq	r1, r0, r2, asr #14
    15b0:	0300340c 	movweq	r3, #1036	; 0x40c
    15b4:	3b0b3a08 	blcc	2cfddc <__bss_end__+0x2c627c>
    15b8:	490b390b 	stmdbmi	fp, {r0, r1, r3, r8, fp, ip, sp}
    15bc:	b7170213 			; <UNDEFINED> instruction: 0xb7170213
    15c0:	00001742 	andeq	r1, r0, r2, asr #14
    15c4:	01110100 	tsteq	r1, r0, lsl #2
    15c8:	0b130e25 	bleq	4c4e64 <__bss_end__+0x4bb304>
    15cc:	0e1b0e03 	cdpeq	14, 1, cr0, cr11, cr3, {0}
    15d0:	06120111 			; <UNDEFINED> instruction: 0x06120111
    15d4:	00001710 	andeq	r1, r0, r0, lsl r7
    15d8:	0b002402 	bleq	a5e8 <__bss_end__+0xa88>
    15dc:	030b3e0b 	movweq	r3, #48651	; 0xbe0b
    15e0:	03000008 	movweq	r0, #8
    15e4:	0b0b0024 	bleq	2c167c <__bss_end__+0x2b7b1c>
    15e8:	0e030b3e 	vmoveq.16	d3[0], r0
    15ec:	15040000 	strne	r0, [r4, #-0]
    15f0:	49192701 	ldmdbmi	r9, {r0, r8, r9, sl, sp}
    15f4:	00130113 	andseq	r0, r3, r3, lsl r1
    15f8:	00050500 	andeq	r0, r5, r0, lsl #10
    15fc:	00001349 	andeq	r1, r0, r9, asr #6
    1600:	03003406 	movweq	r3, #1030	; 0x406
    1604:	3b0b3a0e 	blcc	2cfe44 <__bss_end__+0x2c62e4>
    1608:	490b390b 	stmdbmi	fp, {r0, r1, r3, r8, fp, ip, sp}
    160c:	3c193f13 	ldccc	15, cr3, [r9], {19}
    1610:	07000019 	smladeq	r0, r9, r0, r0
    1614:	0b0b000f 	bleq	2c1658 <__bss_end__+0x2b7af8>
    1618:	00001349 	andeq	r1, r0, r9, asr #6
    161c:	49002608 	stmdbmi	r0, {r3, r9, sl, sp}
    1620:	09000013 	stmdbeq	r0, {r0, r1, r4}
    1624:	193f002e 	ldmdbne	pc!, {r1, r2, r3, r5}	; <UNPREDICTABLE>
    1628:	0b3a0e03 	bleq	e84e3c <__bss_end__+0xe7b2dc>
    162c:	0b390b3b 	bleq	e44320 <__bss_end__+0xe3a7c0>
    1630:	01111927 	tsteq	r1, r7, lsr #18
    1634:	18400612 	stmdane	r0, {r1, r4, r9, sl}^
    1638:	00194297 	mulseq	r9, r7, r2
	...

Disassembly of section .debug_loc:

00000000 <.debug_loc>:
       0:	000c0000 	andeq	r0, ip, r0
       4:	00480000 	subeq	r0, r8, r0
       8:	00010000 	andeq	r0, r1, r0
       c:	00000055 	andeq	r0, r0, r5, asr r0
      10:	00000000 	andeq	r0, r0, r0
      14:	00000200 	andeq	r0, r0, r0, lsl #4
      18:	00000c00 	andeq	r0, r0, r0, lsl #24
      1c:	00001000 	andeq	r1, r0, r0
      20:	30000200 	andcc	r0, r0, r0, lsl #4
      24:	0000109f 	muleq	r0, pc, r0	; <UNPREDICTABLE>
      28:	00004800 	andeq	r4, r0, r0, lsl #16
      2c:	54000100 	strpl	r0, [r0], #-256	; 0xffffff00
	...
      3c:	00000024 	andeq	r0, r0, r4, lsr #32
      40:	0000002c 	andeq	r0, r0, ip, lsr #32
      44:	2c500001 	mrrccs	0, 0, r0, r0, cr1	; <UNPREDICTABLE>
      48:	2f000000 	svccs	0x00000000
      4c:	01000000 	mrseq	r0, (UNDEF: 0)
      50:	00005100 	andeq	r5, r0, r0, lsl #2
	...
      5c:	000000d8 	ldrdeq	r0, [r0], -r8
      60:	000000ec 	andeq	r0, r0, ip, ror #1
      64:	00500001 	subseq	r0, r0, r1
      68:	00000000 	andeq	r0, r0, r0
      6c:	02000000 	andeq	r0, r0, #0, 0
      70:	08000000 	stmdaeq	r0, {}	; <UNPREDICTABLE>
      74:	14000001 	strne	r0, [r0], #-1
      78:	01000001 	tsteq	r0, r1
      7c:	01145400 	tsteq	r4, r0, lsl #8
      80:	011c0000 	tsteq	ip, r0
      84:	00010000 	andeq	r0, r1, r0
      88:	00000050 	andeq	r0, r0, r0, asr r0
	...
      94:	00013c00 	andeq	r3, r1, r0, lsl #24
      98:	00014c00 	andeq	r4, r1, r0, lsl #24
      9c:	50000100 	andpl	r0, r0, r0, lsl #2
      a0:	00000178 	andeq	r0, r0, r8, ror r1
      a4:	0000017b 	andeq	r0, r0, fp, ror r1
      a8:	00500001 	subseq	r0, r0, r1
	...
      b4:	03030202 	movweq	r0, #12802	; 0x3202
      b8:	01010000 	mrseq	r0, (UNDEF: 1)
      bc:	00009400 	andeq	r9, r0, r0, lsl #8
      c0:	00009400 	andeq	r9, r0, r0, lsl #8
      c4:	50000100 	andpl	r0, r0, r0, lsl #2
      c8:	00000094 	muleq	r0, r4, r0
      cc:	00000094 	muleq	r0, r4, r0
      d0:	00700007 	rsbseq	r0, r0, r7
      d4:	1af1ff0b 	bne	ffc7fd08 <__bss_end__+0xffc761a8>
      d8:	0000949f 	muleq	r0, pc, r4	; <UNPREDICTABLE>
      dc:	00009800 	andeq	r9, r0, r0, lsl #16
      e0:	70000b00 	andvc	r0, r0, r0, lsl #22
      e4:	f1ff0b00 			; <UNDEFINED> instruction: 0xf1ff0b00
      e8:	02000a1a 	andeq	r0, r0, #106496	; 0x1a000
      ec:	00989f21 	addseq	r9, r8, r1, lsr #30
      f0:	00980000 	addseq	r0, r8, r0
      f4:	00070000 	andeq	r0, r7, r0
      f8:	000a0070 	andeq	r0, sl, r0, ror r0
      fc:	989f2102 	ldmls	pc, {r1, r8, sp}	; <UNPREDICTABLE>
     100:	9c000000 	stcls	0, cr0, [r0], {-0}
     104:	07000000 	streq	r0, [r0, -r0]
     108:	0a007000 	beq	1c110 <__bss_end__+0x125b0>
     10c:	9f2102e0 	svcls	0x002102e0
	...
     11c:	00000054 	andeq	r0, r0, r4, asr r0
     120:	0000006f 	andeq	r0, r0, pc, rrx
     124:	6f500001 	svcvs	0x00500001
     128:	94000000 	strls	r0, [r0], #-0
     12c:	04000000 	streq	r0, [r0], #-0
     130:	5001f300 	andpl	pc, r1, r0, lsl #6
     134:	0000009f 	muleq	r0, pc, r0	; <UNPREDICTABLE>
	...
     140:	54000000 	strpl	r0, [r0], #-0
     144:	6c000000 	stcvs	0, cr0, [r0], {-0}
     148:	01000000 	mrseq	r0, (UNDEF: 0)
     14c:	006c5100 	rsbeq	r5, ip, r0, lsl #2
     150:	006f0000 	rsbeq	r0, pc, r0
     154:	00020000 	andeq	r0, r2, r0
     158:	006f0071 	rsbeq	r0, pc, r1, ror r0	; <UNPREDICTABLE>
     15c:	00940000 	addseq	r0, r4, r0
     160:	00040000 	andeq	r0, r4, r0
     164:	9f5101f3 	svcls	0x005101f3
	...
     174:	00000088 	andeq	r0, r0, r8, lsl #1
     178:	0000008c 	andeq	r0, r0, ip, lsl #1
     17c:	00700008 	rsbseq	r0, r0, r8
     180:	00732438 	rsbseq	r2, r3, r8, lsr r4
     184:	008c9f21 	addeq	r9, ip, r1, lsr #30
     188:	00940000 	addseq	r0, r4, r0
     18c:	00010000 	andeq	r0, r1, r0
     190:	00000050 	andeq	r0, r0, r0, asr r0
	...
     19c:	00002800 	andeq	r2, r0, r0, lsl #16
     1a0:	00004b00 	andeq	r4, r0, r0, lsl #22
     1a4:	50000100 	andpl	r0, r0, r0, lsl #2
     1a8:	0000004b 	andeq	r0, r0, fp, asr #32
     1ac:	00000054 	andeq	r0, r0, r4, asr r0
     1b0:	01f30004 	mvnseq	r0, r4
     1b4:	00009f50 	andeq	r9, r0, r0, asr pc
	...
     1c4:	00000028 	andeq	r0, r0, r8, lsr #32
     1c8:	00000048 	andeq	r0, r0, r8, asr #32
     1cc:	48510001 	ldmdami	r1, {r0}^
     1d0:	4b000000 	blmi	1d8 <__code_start__-0x7e28>
     1d4:	02000000 	andeq	r0, r0, #0, 0
     1d8:	4b007100 	blmi	1c5e0 <__bss_end__+0x12a80>
     1dc:	54000000 	strpl	r0, [r0], #-0
     1e0:	04000000 	streq	r0, [r0], #-0
     1e4:	5101f300 	mrspl	pc, SP_irq	; <UNPREDICTABLE>
     1e8:	0000009f 	muleq	r0, pc, r0	; <UNPREDICTABLE>
	...
     1f4:	00002800 	andeq	r2, r0, r0, lsl #16
     1f8:	00004400 	andeq	r4, r0, r0, lsl #8
     1fc:	52000100 	andpl	r0, r0, #0
     200:	00000044 	andeq	r0, r0, r4, asr #32
     204:	00000054 	andeq	r0, r0, r4, asr r0
     208:	01f30004 	mvnseq	r0, r4
     20c:	00009f52 	andeq	r9, r0, r2, asr pc
     210:	00000000 	andeq	r0, r0, r0
     214:	3b320000 	blcc	c8021c <__bss_end__+0xc766bc>
     218:	001c003b 	andseq	r0, ip, fp, lsr r0
     21c:	001c0000 	andseq	r0, ip, r0
     220:	00020000 	andeq	r0, r2, r0
     224:	001c9f40 	andseq	r9, ip, r0, asr #30
     228:	00200000 	eoreq	r0, r0, r0
     22c:	00030000 	andeq	r0, r3, r0
     230:	009f3008 	addseq	r3, pc, r8
     234:	00000000 	andeq	r0, r0, r0
     238:	0c000000 	stceq	0, cr0, [r0], {-0}
     23c:	00020800 	andeq	r0, r2, r0, lsl #16
     240:	00023400 	andeq	r3, r2, r0, lsl #8
     244:	55000100 	strpl	r0, [r0, #-256]	; 0xffffff00
	...
     250:	02180009 	andseq	r0, r8, #9, 0
     254:	02340000 	eorseq	r0, r4, #0, 0
     258:	00010000 	andeq	r0, r1, r0
     25c:	00000054 	andeq	r0, r0, r4, asr r0
	...
     268:	0000f400 	andeq	pc, r0, r0, lsl #8
     26c:	00010700 	andeq	r0, r1, r0, lsl #14
     270:	50000100 	andpl	r0, r0, r0, lsl #2
     274:	00000107 	andeq	r0, r0, r7, lsl #2
     278:	000001c0 	andeq	r0, r0, r0, asr #3
     27c:	00580001 	subseq	r0, r8, r1
	...
     288:	f4000000 	vst4.8	{d0-d3}, [r0], r0
     28c:	07000000 	streq	r0, [r0, -r0]
     290:	01000001 	tsteq	r0, r1
     294:	01075100 	mrseq	r5, (UNDEF: 23)
     298:	01c00000 	biceq	r0, r0, r0
     29c:	00010000 	andeq	r0, r1, r0
     2a0:	00000056 	andeq	r0, r0, r6, asr r0
	...
     2ac:	0000f400 	andeq	pc, r0, r0, lsl #8
     2b0:	00010700 	andeq	r0, r1, r0, lsl #14
     2b4:	52000100 	andpl	r0, r0, #0
     2b8:	00000107 	andeq	r0, r0, r7, lsl #2
     2bc:	000001c0 	andeq	r0, r0, r0, asr #3
     2c0:	00550001 	subseq	r0, r5, r1
     2c4:	00000000 	andeq	r0, r0, r0
     2c8:	02000000 	andeq	r0, r0, #0, 0
     2cc:	58000000 	stmdapl	r0, {}	; <UNPREDICTABLE>
     2d0:	60000001 	andvs	r0, r0, r1
     2d4:	02000001 	andeq	r0, r0, #1, 0
     2d8:	609f3000 	addsvs	r3, pc, r0
     2dc:	9c000001 	stcls	0, cr0, [r0], {1}
     2e0:	01000001 	tsteq	r0, r1
     2e4:	00005000 	andeq	r5, r0, r0
	...
     2f0:	00200000 	eoreq	r0, r0, r0
     2f4:	00330000 	eorseq	r0, r3, r0
     2f8:	00010000 	andeq	r0, r1, r0
     2fc:	00003350 	andeq	r3, r0, r0, asr r3
     300:	0000f400 	andeq	pc, r0, r0, lsl #8
     304:	57000100 	strpl	r0, [r0, -r0, lsl #2]
	...
     314:	00000020 	andeq	r0, r0, r0, lsr #32
     318:	00000033 	andeq	r0, r0, r3, lsr r0
     31c:	33510001 	cmpcc	r1, #1, 0
     320:	f4000000 	vst4.8	{d0-d3}, [r0], r0
     324:	01000000 	mrseq	r0, (UNDEF: 0)
     328:	00005600 	andeq	r5, r0, r0, lsl #12
	...
     334:	00200000 	eoreq	r0, r0, r0
     338:	00330000 	eorseq	r0, r3, r0
     33c:	00010000 	andeq	r0, r1, r0
     340:	00003352 	andeq	r3, r0, r2, asr r3
     344:	0000f400 	andeq	pc, r0, r0, lsl #8
     348:	55000100 	strpl	r0, [r0, #-256]	; 0xffffff00
	...
     354:	00740001 	rsbseq	r0, r4, r1
     358:	00780000 	rsbseq	r0, r8, r0
     35c:	00010000 	andeq	r0, r1, r0
     360:	00000051 	andeq	r0, r0, r1, asr r0
     364:	00000000 	andeq	r0, r0, r0
     368:	00000200 	andeq	r0, r0, r0, lsl #4
     36c:	00008c00 	andeq	r8, r0, r0, lsl #24
     370:	00009400 	andeq	r9, r0, r0, lsl #8
     374:	30000200 	andcc	r0, r0, r0, lsl #4
     378:	0000949f 	muleq	r0, pc, r4	; <UNPREDICTABLE>
     37c:	0000d000 	andeq	sp, r0, r0
     380:	50000100 	andpl	r0, r0, r0, lsl #2
	...
     390:	0000000c 	andeq	r0, r0, ip
     394:	00000013 	andeq	r0, r0, r3, lsl r0
     398:	13500001 	cmpne	r0, #1, 0
     39c:	18000000 	stmdane	r0, {}	; <UNPREDICTABLE>
     3a0:	04000000 	streq	r0, [r0], #-0
     3a4:	5001f300 	andpl	pc, r1, r0, lsl #6
     3a8:	0000009f 	muleq	r0, pc, r0	; <UNPREDICTABLE>
	...
     3b8:	00000700 	andeq	r0, r0, r0, lsl #14
     3bc:	50000100 	andpl	r0, r0, r0, lsl #2
     3c0:	00000007 	andeq	r0, r0, r7
     3c4:	0000000c 	andeq	r0, r0, ip
     3c8:	01f30004 	mvnseq	r0, r4
     3cc:	00009f50 	andeq	r9, r0, r0, asr pc
	...
     3dc:	00e80000 	rsceq	r0, r8, r0
     3e0:	01000000 	mrseq	r0, (UNDEF: 0)
     3e4:	00010000 	andeq	r0, r1, r0
     3e8:	00010050 	andeq	r0, r1, r0, asr r0
     3ec:	00011000 	andeq	r1, r1, r0
     3f0:	f3000400 	vshl.u8	d0, d0, d0
     3f4:	109f5001 	addsne	r5, pc, r1
     3f8:	14000001 	strne	r0, [r0], #-1
     3fc:	01000001 	tsteq	r0, r1
     400:	01145000 	tsteq	r4, r0
     404:	011c0000 	tsteq	ip, r0
     408:	00040000 	andeq	r0, r4, r0
     40c:	9f5001f3 	svcls	0x005001f3
	...
     418:	00000001 	andeq	r0, r0, r1
     41c:	00f40000 	rscseq	r0, r4, r0
     420:	01000000 	mrseq	r0, (UNDEF: 0)
     424:	000b0000 	andeq	r0, fp, r0
     428:	25350070 	ldrcs	r0, [r5, #-112]!	; 0xffffff90
     42c:	8080b423 	addhi	fp, r0, r3, lsr #8
     430:	009f0281 	addseq	r0, pc, r1, lsl #5
     434:	03000001 	movweq	r0, #1
     438:	01000001 	tsteq	r0, r1
     43c:	01035000 	mrseq	r5, (UNDEF: 3)
     440:	01100000 	tsteq	r0, r0
     444:	000c0000 	andeq	r0, ip, r0
     448:	355001f3 	ldrbcc	r0, [r0, #-499]	; 0xfffffe0d
     44c:	80b42325 	adcshi	r2, r4, r5, lsr #6
     450:	9f028180 	svcls	0x00028180
	...
     45c:	00f80000 	rscseq	r0, r8, r0
     460:	01100000 	tsteq	r0, r0
     464:	00010000 	andeq	r0, r1, r0
     468:	00000054 	andeq	r0, r0, r4, asr r0
	...
     478:	0000cc00 	andeq	ip, r0, r0, lsl #24
     47c:	0000db00 	andeq	sp, r0, r0, lsl #22
     480:	50000100 	andpl	r0, r0, r0, lsl #2
     484:	000000db 	ldrdeq	r0, [r0], -fp
     488:	000000e0 	andeq	r0, r0, r0, ror #1
     48c:	01f30004 	mvnseq	r0, r4
     490:	00e09f50 	rsceq	r9, r0, r0, asr pc
     494:	00e30000 	rsceq	r0, r3, r0
     498:	00010000 	andeq	r0, r1, r0
     49c:	0000e350 	andeq	lr, r0, r0, asr r3
     4a0:	0000e800 	andeq	lr, r0, r0, lsl #16
     4a4:	f3000400 	vshl.u8	d0, d0, d0
     4a8:	009f5001 	addseq	r5, pc, r1
	...
     4b8:	cc000000 	stcgt	0, cr0, [r0], {-0}
     4bc:	db000000 	blle	4c4 <__code_start__-0x7b3c>
     4c0:	01000000 	mrseq	r0, (UNDEF: 0)
     4c4:	00db5100 	sbcseq	r5, fp, r0, lsl #2
     4c8:	00e00000 	rsceq	r0, r0, r0
     4cc:	00040000 	andeq	r0, r4, r0
     4d0:	9f5101f3 	svcls	0x005101f3
     4d4:	000000e0 	andeq	r0, r0, r0, ror #1
     4d8:	000000e3 	andeq	r0, r0, r3, ror #1
     4dc:	e3510001 	cmp	r1, #1, 0
     4e0:	e8000000 	stmda	r0, {}	; <UNPREDICTABLE>
     4e4:	04000000 	streq	r0, [r0], #-0
     4e8:	5101f300 	mrspl	pc, SP_irq	; <UNPREDICTABLE>
     4ec:	0000009f 	muleq	r0, pc, r0	; <UNPREDICTABLE>
	...
     4f8:	0000bc00 	andeq	fp, r0, r0, lsl #24
     4fc:	0000c700 	andeq	ip, r0, r0, lsl #14
     500:	50000100 	andpl	r0, r0, r0, lsl #2
     504:	000000c7 	andeq	r0, r0, r7, asr #1
     508:	000000cc 	andeq	r0, r0, ip, asr #1
     50c:	01f30004 	mvnseq	r0, r4
     510:	00009f50 	andeq	r9, r0, r0, asr pc
	...
     51c:	00980000 	addseq	r0, r8, r0
     520:	00b00000 	adcseq	r0, r0, r0
     524:	00010000 	andeq	r0, r1, r0
     528:	0000b050 	andeq	fp, r0, r0, asr r0
     52c:	0000bc00 	andeq	fp, r0, r0, lsl #24
     530:	f3000400 	vshl.u8	d0, d0, d0
     534:	009f5001 	addseq	r5, pc, r1
	...
     540:	74000000 	strvc	r0, [r0], #-0
     544:	8c000000 	stchi	0, cr0, [r0], {-0}
     548:	01000000 	mrseq	r0, (UNDEF: 0)
     54c:	008c5000 	addeq	r5, ip, r0
     550:	00980000 	addseq	r0, r8, r0
     554:	00040000 	andeq	r0, r4, r0
     558:	9f5001f3 	svcls	0x005001f3
	...
     568:	00000064 	andeq	r0, r0, r4, rrx
     56c:	0000006f 	andeq	r0, r0, pc, rrx
     570:	6f500001 	svcvs	0x00500001
     574:	74000000 	strvc	r0, [r0], #-0
     578:	04000000 	streq	r0, [r0], #-0
     57c:	5001f300 	andpl	pc, r1, r0, lsl #6
     580:	0000009f 	muleq	r0, pc, r0	; <UNPREDICTABLE>
	...
     590:	00003800 	andeq	r3, r0, r0, lsl #16
     594:	50000100 	andpl	r0, r0, r0, lsl #2
     598:	00000038 	andeq	r0, r0, r8, lsr r0
     59c:	00000064 	andeq	r0, r0, r4, rrx
     5a0:	01f30004 	mvnseq	r0, r4
     5a4:	00009f50 	andeq	r9, r0, r0, asr pc
	...
     5b4:	00470000 	subeq	r0, r7, r0
     5b8:	00010000 	andeq	r0, r1, r0
     5bc:	00004751 	andeq	r4, r0, r1, asr r7
     5c0:	00006400 	andeq	r6, r0, r0, lsl #8
     5c4:	f3000400 	vshl.u8	d0, d0, d0
     5c8:	009f5101 	addseq	r5, pc, r1, lsl #2
	...
     5d4:	00003400 	andeq	r3, r0, r0, lsl #8
     5d8:	00006400 	andeq	r6, r0, r0, lsl #8
     5dc:	54000100 	strpl	r0, [r0], #-256	; 0xffffff00
	...
     5e8:	00400000 	subeq	r0, r0, r0
     5ec:	00640000 	rsbeq	r0, r4, r0
     5f0:	00010000 	andeq	r0, r1, r0
     5f4:	00000056 	andeq	r0, r0, r6, asr r0
	...
     600:	00000101 	andeq	r0, r0, r1, lsl #2
     604:	00004800 	andeq	r4, r0, r0, lsl #16
     608:	00005000 	andeq	r5, r0, r0
     60c:	50000100 	andpl	r0, r0, r0, lsl #2
     610:	00000050 	andeq	r0, r0, r0, asr r0
     614:	00000050 	andeq	r0, r0, r0, asr r0
     618:	50510001 	subspl	r0, r1, r1
     61c:	54000000 	strpl	r0, [r0], #-0
     620:	09000000 	stmdbeq	r0, {}	; <UNPREDICTABLE>
     624:	74007500 	strvc	r7, [r0], #-1280	; 0xfffffb00
     628:	00712400 	rsbseq	r2, r1, r0, lsl #8
     62c:	00549f21 	subseq	r9, r4, r1, lsr #30
     630:	005b0000 	subseq	r0, fp, r0
     634:	00010000 	andeq	r0, r1, r0
     638:	00000051 	andeq	r0, r0, r1, asr r0
	...
     644:	2c000000 	stccs	0, cr0, [r0], {-0}
     648:	38000000 	stmdacc	r0, {}	; <UNPREDICTABLE>
     64c:	01000000 	mrseq	r0, (UNDEF: 0)
     650:	00385000 	eorseq	r5, r8, r0
     654:	00480000 	subeq	r0, r8, r0
     658:	00010000 	andeq	r0, r1, r0
     65c:	00004854 	andeq	r4, r0, r4, asr r8
     660:	00005800 	andeq	r5, r0, r0, lsl #16
     664:	50000100 	andpl	r0, r0, r0, lsl #2
	...
     678:	0000000b 	andeq	r0, r0, fp
     67c:	0b500001 	bleq	1400688 <__bss_end__+0x13f6b28>
     680:	14000000 	strne	r0, [r0], #-0
     684:	01000000 	mrseq	r0, (UNDEF: 0)
     688:	00005400 	andeq	r5, r0, r0, lsl #8
     68c:	00000000 	andeq	r0, r0, r0
     690:	01000000 	mrseq	r0, (UNDEF: 0)
     694:	00000001 	andeq	r0, r0, r1
     698:	00080000 	andeq	r0, r8, r0
     69c:	00010000 	andeq	r0, r1, r0
     6a0:	00000850 	andeq	r0, r0, r0, asr r8
     6a4:	00003400 	andeq	r3, r0, r0, lsl #8
     6a8:	54000100 	strpl	r0, [r0], #-256	; 0xffffff00
	...
     6bc:	02f80000 	rscseq	r0, r8, #0, 0
     6c0:	032f0000 			; <UNDEFINED> instruction: 0x032f0000
     6c4:	00010000 	andeq	r0, r1, r0
     6c8:	00032f50 	andeq	r2, r3, r0, asr pc
     6cc:	00039c00 	andeq	r9, r3, r0, lsl #24
     6d0:	56000100 	strpl	r0, [r0], -r0, lsl #2
     6d4:	0000039c 	muleq	r0, ip, r3
     6d8:	000003b0 			; <UNDEFINED> instruction: 0x000003b0
     6dc:	b0500001 	subslt	r0, r0, r1
     6e0:	fc000003 	stc2	0, cr0, [r0], {3}
     6e4:	01000003 	tsteq	r0, r3
     6e8:	03fc5600 	mvnseq	r5, #0, 12
     6ec:	04000000 	streq	r0, [r0], #-0
     6f0:	00010000 	andeq	r0, r1, r0
     6f4:	00000050 	andeq	r0, r0, r0, asr r0
	...
     704:	0002f800 	andeq	pc, r2, r0, lsl #16
     708:	00032000 	andeq	r2, r3, r0
     70c:	90000800 	andls	r0, r0, r0, lsl #16
     710:	90049340 	andls	r9, r4, r0, asr #6
     714:	20049341 	andcs	r9, r4, r1, asr #6
     718:	9c000003 	stcls	0, cr0, [r0], {3}
     71c:	08000003 	stmdaeq	r0, {r0, r1}
     720:	93509000 	cmpls	r0, #0, 0
     724:	93519004 	cmpls	r1, #4, 0
     728:	00039c04 	andeq	r9, r3, r4, lsl #24
     72c:	0003ac00 	andeq	sl, r3, r0, lsl #24
     730:	90000800 	andls	r0, r0, r0, lsl #16
     734:	90049340 	andls	r9, r4, r0, asr #6
     738:	ac049341 	stcge	3, cr9, [r4], {65}	; 0x41
     73c:	f8000003 			; <UNDEFINED> instruction: 0xf8000003
     740:	08000003 	stmdaeq	r0, {r0, r1}
     744:	93509000 	cmpls	r0, #0, 0
     748:	93519004 	cmpls	r1, #4, 0
     74c:	00000004 	andeq	r0, r0, r4
	...
     75c:	f8000000 			; <UNDEFINED> instruction: 0xf8000000
     760:	2f000002 	svccs	0x00000002
     764:	01000003 	tsteq	r0, r3
     768:	032f5100 			; <UNDEFINED> instruction: 0x032f5100
     76c:	039c0000 	orrseq	r0, ip, #0, 0
     770:	00010000 	andeq	r0, r1, r0
     774:	00039c58 	andeq	r9, r3, r8, asr ip
     778:	0003b000 	andeq	fp, r3, r0
     77c:	51000100 	mrspl	r0, (UNDEF: 16)
     780:	000003b0 			; <UNDEFINED> instruction: 0x000003b0
     784:	000003fc 	strdeq	r0, [r0], -ip
     788:	fc580001 	mrrc2	0, 0, r0, r8, cr1
     78c:	00000003 	andeq	r0, r0, r3
     790:	04000004 	streq	r0, [r0], #-4
     794:	5101f300 	mrspl	pc, SP_irq	; <UNPREDICTABLE>
     798:	0000009f 	muleq	r0, pc, r0	; <UNPREDICTABLE>
     79c:	00000000 	andeq	r0, r0, r0
     7a0:	00000100 	andeq	r0, r0, r0, lsl #2
     7a4:	00000000 	andeq	r0, r0, r0
     7a8:	10000000 	andne	r0, r0, r0
     7ac:	20000003 	andcs	r0, r0, r3
     7b0:	01000003 	tsteq	r0, r3
     7b4:	03205000 	nopeq	{0}	; <UNPREDICTABLE>
     7b8:	039c0000 	orrseq	r0, ip, #0, 0
     7bc:	00010000 	andeq	r0, r1, r0
     7c0:	00039c55 	andeq	r9, r3, r5, asr ip
     7c4:	0003a000 	andeq	sl, r3, r0
     7c8:	50000100 	andpl	r0, r0, r0, lsl #2
     7cc:	000003a0 	andeq	r0, r0, r0, lsr #7
     7d0:	000003a8 	andeq	r0, r0, r8, lsr #7
     7d4:	01750003 	cmneq	r5, r3
     7d8:	0003a89f 	muleq	r3, pc, r8	; <UNPREDICTABLE>
     7dc:	0003fc00 	andeq	pc, r3, r0, lsl #24
     7e0:	55000100 	strpl	r0, [r0, #-256]	; 0xffffff00
	...
     7f0:	03340000 	teqeq	r4, #0, 0
     7f4:	033b0000 	teqeq	fp, #0, 0
     7f8:	00010000 	andeq	r0, r1, r0
     7fc:	00033b50 	andeq	r3, r3, r0, asr fp
     800:	00039c00 	andeq	r9, r3, r0, lsl #24
     804:	57000100 	strpl	r0, [r0, -r0, lsl #2]
     808:	000003b0 			; <UNDEFINED> instruction: 0x000003b0
     80c:	000003fc 	strdeq	r0, [r0], -ip
     810:	00570001 	subseq	r0, r7, r1
	...
     81c:	40000000 	andmi	r0, r0, r0
     820:	58000003 	stmdapl	r0, {r0, r1}
     824:	01000003 	tsteq	r0, r3
     828:	03585000 	cmpeq	r8, #0, 0
     82c:	035b0000 	cmpeq	fp, #0, 0
     830:	00010000 	andeq	r0, r1, r0
     834:	00000053 	andeq	r0, r0, r3, asr r0
     838:	00000000 	andeq	r0, r0, r0
     83c:	00000100 	andeq	r0, r0, r0, lsl #2
     840:	00037400 	andeq	r7, r3, r0, lsl #8
     844:	00039c00 	andeq	r9, r3, r0, lsl #24
     848:	34000200 	strcc	r0, [r0], #-512	; 0xfffffe00
     84c:	0003b09f 	muleq	r3, pc, r0	; <UNPREDICTABLE>
     850:	00040000 	andeq	r0, r4, r0
     854:	34000200 	strcc	r0, [r0], #-512	; 0xfffffe00
     858:	0000009f 	muleq	r0, pc, r0	; <UNPREDICTABLE>
     85c:	00000000 	andeq	r0, r0, r0
     860:	00000200 	andeq	r0, r0, r0, lsl #4
     864:	00039400 	andeq	r9, r3, r0, lsl #8
     868:	00039c00 	andeq	r9, r3, r0, lsl #24
     86c:	30000200 	andcc	r0, r0, r0, lsl #4
     870:	0003b09f 	muleq	r3, pc, r0	; <UNPREDICTABLE>
     874:	0003eb00 	andeq	lr, r3, r0, lsl #22
     878:	53000100 	movwpl	r0, #256	; 0x100
	...
     888:	000000d4 	ldrdeq	r0, [r0], -r4
     88c:	000000db 	ldrdeq	r0, [r0], -fp
     890:	40900008 	addsmi	r0, r0, r8
     894:	41900493 			; <UNDEFINED> instruction: 0x41900493
     898:	00db0493 	smullseq	r0, fp, r3, r4
     89c:	00e00000 	rsceq	r0, r0, r0
     8a0:	00060000 	andeq	r0, r6, r0
     8a4:	40f503f3 	ldrshtmi	r0, [r5], #51	; 0x33
     8a8:	00009f25 	andeq	r9, r0, r5, lsr #30
	...
     8b4:	007c0000 	rsbseq	r0, ip, r0
     8b8:	00940000 	addseq	r0, r4, r0
     8bc:	00080000 	andeq	r0, r8, r0
     8c0:	04934090 	ldreq	r4, [r3], #144	; 0x90
     8c4:	04934190 	ldreq	r4, [r3], #400	; 0x190
     8c8:	000000bc 	strheq	r0, [r0], -ip
     8cc:	000000d4 	ldrdeq	r0, [r0], -r4
     8d0:	40900008 	addsmi	r0, r0, r8
     8d4:	41900493 			; <UNDEFINED> instruction: 0x41900493
     8d8:	00000493 	muleq	r0, r3, r4
	...
     8e8:	00000400 	andeq	r0, r0, r0, lsl #8
     8ec:	00000430 	andeq	r0, r0, r0, lsr r4
     8f0:	30500001 	subscc	r0, r0, r1
     8f4:	90000004 	andls	r0, r0, r4
     8f8:	01000008 	tsteq	r0, r8
     8fc:	08905900 	ldmeq	r0, {r8, fp, ip, lr}
     900:	08c80000 	stmiaeq	r8, {}^	; <UNPREDICTABLE>
     904:	00040000 	andeq	r0, r4, r0
     908:	9f5001f3 	svcls	0x005001f3
	...
     918:	04000000 	streq	r0, [r0], #-0
     91c:	04180000 	ldreq	r0, [r8], #-0
     920:	00010000 	andeq	r0, r1, r0
     924:	00041851 	andeq	r1, r4, r1, asr r8
     928:	00043000 	andeq	r3, r4, r0
     92c:	71000300 	mrsvc	r0, LR_irq
     930:	04309f01 	ldrteq	r9, [r0], #-3841	; 0xfffff0ff
     934:	08c80000 	stmiaeq	r8, {}^	; <UNPREDICTABLE>
     938:	00040000 	andeq	r0, r4, r0
     93c:	9f5101f3 	svcls	0x005101f3
	...
     954:	00000400 	andeq	r0, r0, r0, lsl #8
     958:	00000430 	andeq	r0, r0, r0, lsr r4
     95c:	30520001 	subscc	r0, r2, r1
     960:	64000004 	strvs	r0, [r0], #-4
     964:	01000005 	tsteq	r0, r5
     968:	05645600 	strbeq	r5, [r4, #-1536]!	; 0xfffffa00
     96c:	06300000 	ldrteq	r0, [r0], -r0
     970:	00010000 	andeq	r0, r1, r0
     974:	0006305b 	andeq	r3, r6, fp, asr r0
     978:	00065000 	andeq	r5, r6, r0
     97c:	56000100 	strpl	r0, [r0], -r0, lsl #2
     980:	00000650 	andeq	r0, r0, r0, asr r6
     984:	000006d4 	ldrdeq	r0, [r0], -r4
     988:	d45b0001 	ldrble	r0, [fp], #-1
     98c:	90000006 	andls	r0, r0, r6
     990:	01000008 	tsteq	r0, r8
     994:	00005600 	andeq	r5, r0, r0, lsl #12
     998:	00000000 	andeq	r0, r0, r0
     99c:	00010000 	andeq	r0, r1, r0
     9a0:	00000000 	andeq	r0, r0, r0
     9a4:	00010100 	andeq	r0, r1, r0, lsl #2
     9a8:	00000000 	andeq	r0, r0, r0
     9ac:	00020200 	andeq	r0, r2, r0, lsl #4
     9b0:	04140000 	ldreq	r0, [r4], #-0
     9b4:	04300000 	ldrteq	r0, [r0], #-0
     9b8:	00010000 	andeq	r0, r1, r0
     9bc:	00043050 	andeq	r3, r4, r0, asr r0
     9c0:	00043400 	andeq	r3, r4, r0, lsl #8
     9c4:	54000100 	strpl	r0, [r0], #-256	; 0xffffff00
     9c8:	00000434 	andeq	r0, r0, r4, lsr r4
     9cc:	00000438 	andeq	r0, r0, r8, lsr r4
     9d0:	01740003 	cmneq	r4, r3
     9d4:	0004389f 	muleq	r4, pc, r8	; <UNPREDICTABLE>
     9d8:	00045c00 	andeq	r5, r4, r0, lsl #24
     9dc:	54000100 	strpl	r0, [r0], #-256	; 0xffffff00
     9e0:	0000045c 	andeq	r0, r0, ip, asr r4
     9e4:	00000460 	andeq	r0, r0, r0, ror #8
     9e8:	01740003 	cmneq	r4, r3
     9ec:	0004609f 	muleq	r4, pc, r0	; <UNPREDICTABLE>
     9f0:	00086000 	andeq	r6, r8, r0
     9f4:	54000100 	strpl	r0, [r0], #-256	; 0xffffff00
     9f8:	00000860 	andeq	r0, r0, r0, ror #16
     9fc:	00000864 	andeq	r0, r0, r4, ror #16
     a00:	01740003 	cmneq	r4, r3
     a04:	0008649f 	muleq	r8, pc, r4	; <UNPREDICTABLE>
     a08:	00087c00 	andeq	r7, r8, r0, lsl #24
     a0c:	54000100 	strpl	r0, [r0], #-256	; 0xffffff00
     a10:	0000087c 	andeq	r0, r0, ip, ror r8
     a14:	00000884 	andeq	r0, r0, r4, lsl #17
     a18:	01740003 	cmneq	r4, r3
     a1c:	0008849f 	muleq	r8, pc, r4	; <UNPREDICTABLE>
     a20:	00089000 	andeq	r9, r8, r0
     a24:	54000100 	strpl	r0, [r0], #-256	; 0xffffff00
	...
     a34:	0000041c 	andeq	r0, r0, ip, lsl r4
     a38:	00000890 	muleq	r0, r0, r8
     a3c:	90580001 	subsls	r0, r8, r1
     a40:	c8000008 	stmdagt	r0, {r3}
     a44:	0a000008 	beq	a6c <__code_start__-0x7594>
     a48:	5101f300 	mrspl	pc, SP_irq	; <UNPREDICTABLE>
     a4c:	225001f3 	subscs	r0, r0, #-1073741764	; 0xc000003c
     a50:	009f1c31 	addseq	r1, pc, r1, lsr ip	; <UNPREDICTABLE>
     a54:	00000000 	andeq	r0, r0, r0
     a58:	01000000 	mrseq	r0, (UNDEF: 0)
     a5c:	00000000 	andeq	r0, r0, r0
     a60:	00058000 	andeq	r8, r5, r0
     a64:	0005ec00 	andeq	lr, r5, r0, lsl #24
     a68:	57000100 	strpl	r0, [r0, -r0, lsl #2]
     a6c:	00000650 	andeq	r0, r0, r0, asr r6
     a70:	00000674 	andeq	r0, r0, r4, ror r6
     a74:	b8570001 	ldmdalt	r7, {r0}^
     a78:	d4000006 	strle	r0, [r0], #-6
     a7c:	01000006 	tsteq	r0, r6
     a80:	00005700 	andeq	r5, r0, r0, lsl #14
     a84:	00000000 	andeq	r0, r0, r0
     a88:	00020000 	andeq	r0, r2, r0
     a8c:	05800000 	streq	r0, [r0]
     a90:	06300000 	ldrteq	r0, [r0], -r0
     a94:	00010000 	andeq	r0, r1, r0
     a98:	0006505a 	andeq	r5, r6, sl, asr r0
     a9c:	0006d400 	andeq	sp, r6, r0, lsl #8
     aa0:	5a000100 	bpl	ea8 <__code_start__-0x7158>
	...
     aac:	00000001 	andeq	r0, r0, r1
     ab0:	00000424 	andeq	r0, r0, r4, lsr #8
     ab4:	00000430 	andeq	r0, r0, r0, lsr r4
     ab8:	30520001 	subscc	r0, r2, r1
     abc:	c8000004 	stmdagt	r0, {r2}
     ac0:	03000008 	movweq	r0, #8
     ac4:	7dc89100 	stfvcp	f1, [r8]
	...
     ad8:	00010100 	andeq	r0, r1, r0, lsl #2
	...
     ae8:	000005ec 	andeq	r0, r0, ip, ror #11
     aec:	00000604 	andeq	r0, r0, r4, lsl #12
     af0:	04500001 	ldrbeq	r0, [r0], #-1
     af4:	30000006 	andcc	r0, r0, r6
     af8:	01000006 	tsteq	r0, r6
     afc:	06745700 	ldrbteq	r5, [r4], -r0, lsl #14
     b00:	068c0000 	streq	r0, [ip], r0
     b04:	00010000 	andeq	r0, r1, r0
     b08:	00068c50 	andeq	r8, r6, r0, asr ip
     b0c:	0006b800 	andeq	fp, r6, r0, lsl #16
     b10:	57000100 	strpl	r0, [r0, -r0, lsl #2]
     b14:	000006fc 	strdeq	r0, [r0], -ip
     b18:	000006fc 	strdeq	r0, [r0], -ip
     b1c:	fc500001 	mrrc2	0, 0, r0, r0, cr1	; <UNPREDICTABLE>
     b20:	04000006 	streq	r0, [r0], #-6
     b24:	01000007 	tsteq	r0, r7
     b28:	07345700 	ldreq	r5, [r4, -r0, lsl #14]!
     b2c:	07380000 	ldreq	r0, [r8, -r0]!
     b30:	00010000 	andeq	r0, r1, r0
     b34:	00076850 	andeq	r6, r7, r0, asr r8
     b38:	00076c00 	andeq	r6, r7, r0, lsl #24
     b3c:	50000100 	andpl	r0, r0, r0, lsl #2
     b40:	0000079c 	muleq	r0, ip, r7
     b44:	000007a0 	andeq	r0, r0, r0, lsr #15
     b48:	d0500001 	subsle	r0, r0, r1
     b4c:	d4000007 	strle	r0, [r0], #-7
     b50:	01000007 	tsteq	r0, r7
     b54:	08185000 	ldmdaeq	r8, {ip, lr}
     b58:	081c0000 	ldmdaeq	ip, {}	; <UNPREDICTABLE>
     b5c:	00010000 	andeq	r0, r1, r0
     b60:	00085c50 	andeq	r5, r8, r0, asr ip
     b64:	00087c00 	andeq	r7, r8, r0, lsl #24
     b68:	57000100 	strpl	r0, [r0, -r0, lsl #2]
	...
     b74:	00000002 	andeq	r0, r0, r2
     b78:	046c0000 	strbteq	r0, [ip], #-0
     b7c:	04700000 	ldrbteq	r0, [r0], #-0
     b80:	00020000 	andeq	r0, r2, r0
     b84:	04709f30 	ldrbteq	r9, [r0], #-3888	; 0xfffff0d0
     b88:	048c0000 	streq	r0, [ip], #0
     b8c:	00010000 	andeq	r0, r1, r0
     b90:	00049455 	andeq	r9, r4, r5, asr r4
     b94:	00087c00 	andeq	r7, r8, r0, lsl #24
     b98:	55000100 	strpl	r0, [r0, #-256]	; 0xffffff00
	...
     ba4:	00000001 	andeq	r0, r0, r1
     ba8:	00000000 	andeq	r0, r0, r0
     bac:	05300000 	ldreq	r0, [r0, #-0]!
     bb0:	05cc0000 	strbeq	r0, [ip]
     bb4:	00010000 	andeq	r0, r1, r0
     bb8:	0005cc56 	andeq	ip, r5, r6, asr ip
     bbc:	00063000 	andeq	r3, r6, r0
     bc0:	7b000300 	blvc	17c8 <__code_start__-0x6838>
     bc4:	06309f7e 	shsub16eq	r9, r0, lr
     bc8:	06540000 	ldrbeq	r0, [r4], -r0
     bcc:	00010000 	andeq	r0, r1, r0
     bd0:	00065456 	andeq	r5, r6, r6, asr r4
     bd4:	0006b800 	andeq	fp, r6, r0, lsl #16
     bd8:	7b000300 	blvc	17e0 <__code_start__-0x6820>
     bdc:	06b89f7e 			; <UNDEFINED> instruction: 0x06b89f7e
     be0:	06d40000 	ldrbeq	r0, [r4], r0
     be4:	00010000 	andeq	r0, r1, r0
     be8:	00000056 	andeq	r0, r0, r6, asr r0
	...
     bf4:	e0000000 	and	r0, r0, r0
     bf8:	04000000 	streq	r0, [r0], #-0
     bfc:	01000001 	tsteq	r0, r1
     c00:	01045000 	mrseq	r5, (UNDEF: 4)
     c04:	016c0000 	cmneq	ip, r0
     c08:	00030000 	andeq	r0, r3, r0
     c0c:	6c9f0270 	lfmvs	f0, 4, [pc], {112}	; 0x70
     c10:	94000001 	strls	r0, [r0], #-1
     c14:	04000002 	streq	r0, [r0], #-2
     c18:	5001f300 	andpl	pc, r1, r0, lsl #6
     c1c:	0000009f 	muleq	r0, pc, r0	; <UNPREDICTABLE>
	...
     c34:	0000e000 	andeq	lr, r0, r0
     c38:	00015000 	andeq	r5, r1, r0
     c3c:	51000100 	mrspl	r0, (UNDEF: 16)
     c40:	00000150 	andeq	r0, r0, r0, asr r1
     c44:	000001c4 	andeq	r0, r0, r4, asr #3
     c48:	c4550001 	ldrbgt	r0, [r5], #-1
     c4c:	c8000001 	stmdagt	r0, {r0}
     c50:	01000001 	tsteq	r0, r1
     c54:	01c85100 	biceq	r5, r8, r0, lsl #2
     c58:	02200000 	eoreq	r0, r0, #0, 0
     c5c:	00010000 	andeq	r0, r1, r0
     c60:	00022055 	andeq	r2, r2, r5, asr r0
     c64:	00023000 	andeq	r3, r2, r0
     c68:	51000100 	mrspl	r0, (UNDEF: 16)
     c6c:	00000230 	andeq	r0, r0, r0, lsr r2
     c70:	00000254 	andeq	r0, r0, r4, asr r2
     c74:	54550001 	ldrbpl	r0, [r5], #-1
     c78:	68000002 	stmdavs	r0, {r1}
     c7c:	01000002 	tsteq	r0, r2
     c80:	02685100 	rsbeq	r5, r8, #0
     c84:	02940000 	addseq	r0, r4, #0, 0
     c88:	00010000 	andeq	r0, r1, r0
     c8c:	00000055 	andeq	r0, r0, r5, asr r0
	...
     c98:	0000e000 	andeq	lr, r0, r0
     c9c:	0000f400 	andeq	pc, r0, r0, lsl #8
     ca0:	52000100 	andpl	r0, r0, #0
     ca4:	000000f4 	strdeq	r0, [r0], -r4
     ca8:	00000294 	muleq	r0, r4, r2
     cac:	00540001 	subseq	r0, r4, r1
	...
     cbc:	00000001 	andeq	r0, r0, r1
     cc0:	e0000000 	and	r0, r0, r0
     cc4:	64000000 	strvs	r0, [r0], #-0
     cc8:	01000001 	tsteq	r0, r1
     ccc:	01bc5300 			; <UNDEFINED> instruction: 0x01bc5300
     cd0:	01f00000 	mvnseq	r0, r0
     cd4:	00010000 	andeq	r0, r1, r0
     cd8:	0001f053 	andeq	pc, r1, r3, asr r0	; <UNPREDICTABLE>
     cdc:	0001fc00 	andeq	pc, r1, r0, lsl #24
     ce0:	f3000400 	vshl.u8	d0, d0, d0
     ce4:	209f5301 	addscs	r5, pc, r1, lsl #6
     ce8:	58000002 	stmdapl	r0, {r1}
     cec:	01000002 	tsteq	r0, r2
     cf0:	02585300 	subseq	r5, r8, #0, 6
     cf4:	026f0000 	rsbeq	r0, pc, #0, 0
     cf8:	00010000 	andeq	r0, r1, r0
     cfc:	00026f5c 	andeq	r6, r2, ip, asr pc
     d00:	00029400 	andeq	r9, r2, r0, lsl #8
     d04:	f3000400 	vshl.u8	d0, d0, d0
     d08:	009f5301 	addseq	r5, pc, r1, lsl #6
	...
     d18:	0000e000 	andeq	lr, r0, r0
     d1c:	0000fc00 	andeq	pc, r0, r0, lsl #24
     d20:	91000200 	mrsls	r0, R8_usr
     d24:	0000fc00 	andeq	pc, r0, r0, lsl #24
     d28:	00020300 	andeq	r0, r2, r0, lsl #6
     d2c:	52000100 	andpl	r0, r0, #0
     d30:	00000220 	andeq	r0, r0, r0, lsr #4
     d34:	00000264 	andeq	r0, r0, r4, ror #4
     d38:	00520001 	subseq	r0, r2, r1
     d3c:	00000000 	andeq	r0, r0, r0
     d40:	01000000 	mrseq	r0, (UNDEF: 0)
     d44:	01010000 	mrseq	r0, (UNDEF: 1)
	...
     d50:	01010101 	tsteq	r1, r1, lsl #2
     d54:	01010000 	mrseq	r0, (UNDEF: 1)
	...
     d60:	fc000000 	stc2	0, cr0, [r0], {-0}
     d64:	6c000000 	stcvs	0, cr0, [r0], {-0}
     d68:	04000001 	streq	r0, [r0], #-1
     d6c:	7fa09100 	svcvc	0x00a09100
     d70:	00016c9f 	muleq	r1, pc, ip	; <UNPREDICTABLE>
     d74:	0001ac00 	andeq	sl, r1, r0, lsl #24
     d78:	50000100 	andpl	r0, r0, r0, lsl #2
     d7c:	000001ac 	andeq	r0, r0, ip, lsr #3
     d80:	000001b8 			; <UNDEFINED> instruction: 0x000001b8
     d84:	02710003 	rsbseq	r0, r1, #3, 0
     d88:	0001b89f 	muleq	r1, pc, r8	; <UNPREDICTABLE>
     d8c:	0001bc00 	andeq	fp, r1, r0, lsl #24
     d90:	50000100 	andpl	r0, r0, r0, lsl #2
     d94:	000001bc 			; <UNDEFINED> instruction: 0x000001bc
     d98:	000001c8 	andeq	r0, r0, r8, asr #3
     d9c:	a0910004 	addsge	r0, r1, r4
     da0:	01c89f7f 	biceq	r9, r8, pc, ror pc
     da4:	01dc0000 	bicseq	r0, ip, r0
     da8:	00010000 	andeq	r0, r1, r0
     dac:	0001dc51 	andeq	sp, r1, r1, asr ip
     db0:	0001e800 	andeq	lr, r1, r0, lsl #16
     db4:	71000300 	mrsvc	r0, LR_irq
     db8:	01e89f7f 	mvneq	r9, pc, ror pc
     dbc:	01f40000 	mvnseq	r0, r0
     dc0:	00030000 	andeq	r0, r3, r0
     dc4:	f49f0171 			; <UNDEFINED> instruction: 0xf49f0171
     dc8:	03000001 	movweq	r0, #1
     dcc:	01000002 	tsteq	r0, r2
     dd0:	02205000 	eoreq	r5, r0, #0, 0
     dd4:	02200000 	eoreq	r0, r0, #0, 0
     dd8:	00040000 	andeq	r0, r4, r0
     ddc:	9f7fa091 	svcls	0x007fa091
     de0:	00000220 	andeq	r0, r0, r0, lsr #4
     de4:	00000228 	andeq	r0, r0, r8, lsr #4
     de8:	a1910004 	orrsge	r0, r1, r4
     dec:	02289f7f 	eoreq	r9, r8, #508	; 0x1fc
     df0:	022c0000 	eoreq	r0, ip, #0, 0
     df4:	00010000 	andeq	r0, r1, r0
     df8:	00022c50 	andeq	r2, r2, r0, asr ip
     dfc:	00023000 	andeq	r3, r2, r0
     e00:	91000400 	tstls	r0, r0, lsl #8
     e04:	309f7fa0 	addscc	r7, pc, r0, lsr #31
     e08:	44000002 	strmi	r0, [r0], #-2
     e0c:	01000002 	tsteq	r0, r2
     e10:	02445000 	subeq	r5, r4, #0, 0
     e14:	02540000 	subseq	r0, r4, #0, 0
     e18:	00030000 	andeq	r0, r3, r0
     e1c:	549f7f70 	ldrpl	r7, [pc], #3952	; e24 <__code_start__-0x71dc>
     e20:	94000002 	strls	r0, [r0], #-2
     e24:	04000002 	streq	r0, [r0], #-2
     e28:	7fa09100 	svcvc	0x00a09100
     e2c:	0000009f 	muleq	r0, pc, r0	; <UNPREDICTABLE>
	...
     e38:	00000101 	andeq	r0, r0, r1, lsl #2
	...
     e48:	00010000 	andeq	r0, r1, r0
     e4c:	00014c00 	andeq	r4, r1, r0, lsl #24
     e50:	5c000100 	stfpls	f0, [r0], {-0}
     e54:	0000014c 	andeq	r0, r0, ip, asr #2
     e58:	00000164 	andeq	r0, r0, r4, ror #2
     e5c:	64530001 	ldrbvs	r0, [r3], #-1
     e60:	bc000001 	stclt	0, cr0, [r0], {1}
     e64:	01000001 	tsteq	r0, r1
     e68:	01bc5c00 			; <UNDEFINED> instruction: 0x01bc5c00
     e6c:	01c80000 	biceq	r0, r8, r0
     e70:	00010000 	andeq	r0, r1, r0
     e74:	0001c853 	andeq	ip, r1, r3, asr r8
     e78:	0001e400 	andeq	lr, r1, r0, lsl #8
     e7c:	5c000100 	stfpls	f0, [r0], {-0}
     e80:	00000220 	andeq	r0, r0, r0, lsr #4
     e84:	00000230 	andeq	r0, r0, r0, lsr r2
     e88:	30530001 	subscc	r0, r3, r1
     e8c:	4c000002 	stcmi	0, cr0, [r0], {2}
     e90:	01000002 	tsteq	r0, r2
     e94:	02545c00 	subseq	r5, r4, #0, 24
     e98:	02580000 	subseq	r0, r8, #0, 0
     e9c:	00010000 	andeq	r0, r1, r0
     ea0:	00025853 	andeq	r5, r2, r3, asr r8
     ea4:	00026f00 	andeq	r6, r2, r0, lsl #30
     ea8:	5c000100 	stfpls	f0, [r0], {-0}
     eac:	0000026f 	andeq	r0, r0, pc, ror #4
     eb0:	00000294 	muleq	r0, r4, r2
     eb4:	01f30004 	mvnseq	r0, r4
     eb8:	00009f53 	andeq	r9, r0, r3, asr pc
     ebc:	00000000 	andeq	r0, r0, r0
     ec0:	01010000 	mrseq	r0, (UNDEF: 1)
     ec4:	00000001 	andeq	r0, r0, r1
     ec8:	014c0000 	mrseq	r0, (UNDEF: 76)
     ecc:	01600000 	cmneq	r0, r0
     ed0:	00020000 	andeq	r0, r2, r0
     ed4:	01609f30 	cmneq	r0, r0, lsr pc
     ed8:	01680000 	cmneq	r8, r0
     edc:	00020000 	andeq	r0, r2, r0
     ee0:	016c9f31 	cmneq	ip, r1, lsr pc
     ee4:	01bc0000 			; <UNDEFINED> instruction: 0x01bc0000
     ee8:	00010000 	andeq	r0, r1, r0
     eec:	0001bc56 	andeq	fp, r1, r6, asr ip
     ef0:	0001c400 	andeq	ip, r1, r0, lsl #8
     ef4:	30000200 	andcc	r0, r0, r0, lsl #4
     ef8:	0000009f 	muleq	r0, pc, r0	; <UNPREDICTABLE>
	...
     f04:	00000101 	andeq	r0, r0, r1, lsl #2
     f08:	38000101 	stmdacc	r0, {r0, r8}
     f0c:	54000000 	strpl	r0, [r0], #-0
     f10:	01000000 	mrseq	r0, (UNDEF: 0)
     f14:	00545000 	subseq	r5, r4, r0
     f18:	00580000 	subseq	r0, r8, r0
     f1c:	00010000 	andeq	r0, r1, r0
     f20:	00005852 	andeq	r5, r0, r2, asr r8
     f24:	00006000 	andeq	r6, r0, r0
     f28:	72000300 	andvc	r0, r0, #0, 6
     f2c:	00609f01 	rsbeq	r9, r0, r1, lsl #30
     f30:	00640000 	rsbeq	r0, r4, r0
     f34:	00010000 	andeq	r0, r1, r0
     f38:	00006452 	andeq	r6, r0, r2, asr r4
     f3c:	00007000 	andeq	r7, r0, r0
     f40:	72000300 	andvc	r0, r0, #0, 6
     f44:	00009f01 	andeq	r9, r0, r1, lsl #30
	...
     f50:	00380000 	eorseq	r0, r8, r0
     f54:	00500000 	subseq	r0, r0, r0
     f58:	00010000 	andeq	r0, r1, r0
     f5c:	00005051 	andeq	r5, r0, r1, asr r0
     f60:	00007000 	andeq	r7, r0, r0
     f64:	f3000400 	vshl.u8	d0, d0, d0
     f68:	009f5101 	addseq	r5, pc, r1, lsl #2
	...
     f78:	38000101 	stmdacc	r0, {r0, r8}
     f7c:	50000000 	andpl	r0, r0, r0
     f80:	01000000 	mrseq	r0, (UNDEF: 0)
     f84:	00505200 	subseq	r5, r0, r0, lsl #4
     f88:	005c0000 	subseq	r0, ip, r0
     f8c:	00010000 	andeq	r0, r1, r0
     f90:	00005c51 	andeq	r5, r0, r1, asr ip
     f94:	00006000 	andeq	r6, r0, r0
     f98:	71000300 	mrsvc	r0, LR_irq
     f9c:	00609f01 	rsbeq	r9, r0, r1, lsl #30
     fa0:	00700000 	rsbseq	r0, r0, r0
     fa4:	00010000 	andeq	r0, r1, r0
     fa8:	00000051 	andeq	r0, r0, r1, asr r0
	...
     fb4:	00003800 	andeq	r3, r0, r0, lsl #16
     fb8:	00004c00 	andeq	r4, r0, r0, lsl #24
     fbc:	53000100 	movwpl	r0, #256	; 0x100
     fc0:	0000004c 	andeq	r0, r0, ip, asr #32
     fc4:	00000068 	andeq	r0, r0, r8, rrx
     fc8:	00530001 	subseq	r0, r3, r1
	...
     fd8:	40000000 	andmi	r0, r0, r0
     fdc:	48000000 	stmdami	r0, {}	; <UNPREDICTABLE>
     fe0:	01000000 	mrseq	r0, (UNDEF: 0)
     fe4:	00485c00 	subeq	r5, r8, r0, lsl #24
     fe8:	004c0000 	subeq	r0, ip, r0
     fec:	00080000 	andeq	r0, r8, r0
     ff0:	00730072 	rsbseq	r0, r3, r2, ror r0
     ff4:	9f01231c 	svcls	0x0001231c
     ff8:	0000004c 	andeq	r0, r0, ip, asr #32
     ffc:	00000054 	andeq	r0, r0, r4, asr r0
    1000:	00720009 	rsbseq	r0, r2, r9
    1004:	1c5301f3 	ldfnee	f0, [r3], {243}	; 0xf3
    1008:	549f0123 	ldrpl	r0, [pc], #291	; 1010 <__code_start__-0x6ff0>
    100c:	70000000 	andvc	r0, r0, r0
    1010:	0a000000 	beq	1018 <__code_start__-0x6fe8>
    1014:	5201f300 	andpl	pc, r1, #0, 6
    1018:	1c5301f3 	ldfnee	f0, [r3], {243}	; 0xf3
    101c:	009f0123 	addseq	r0, pc, r3, lsr #2
    1020:	00000000 	andeq	r0, r0, r0
    1024:	01000000 	mrseq	r0, (UNDEF: 0)
    1028:	00004c00 	andeq	r4, r0, r0, lsl #24
    102c:	00007000 	andeq	r7, r0, r0
    1030:	50000100 	andpl	r0, r0, r0, lsl #2
	...
    103c:	00010100 	andeq	r0, r1, r0, lsl #2
    1040:	00140000 	andseq	r0, r4, r0
    1044:	001c0000 	andseq	r0, ip, r0
    1048:	00010000 	andeq	r0, r1, r0
    104c:	00001c50 	andeq	r1, r0, r0, asr ip
    1050:	00002400 	andeq	r2, r0, r0, lsl #8
    1054:	70000300 	andvc	r0, r0, r0, lsl #6
    1058:	00249f01 	eoreq	r9, r4, r1, lsl #30
    105c:	00380000 	eorseq	r0, r8, r0
    1060:	00010000 	andeq	r0, r1, r0
    1064:	00000050 	andeq	r0, r0, r0, asr r0
	...
    1070:	00001400 	andeq	r1, r0, r0, lsl #8
    1074:	00001800 	andeq	r1, r0, r0, lsl #16
    1078:	51000100 	mrspl	r0, (UNDEF: 16)
    107c:	00000018 	andeq	r0, r0, r8, lsl r0
    1080:	00000038 	andeq	r0, r0, r8, lsr r0
    1084:	01f30004 	mvnseq	r0, r4
    1088:	00009f51 	andeq	r9, r0, r1, asr pc
	...
    1094:	00000018 	andeq	r0, r0, r8, lsl r0
    1098:	00000038 	andeq	r0, r0, r8, lsr r0
    109c:	00510001 	subseq	r0, r1, r1
	...
    10b0:	00000400 	andeq	r0, r0, r0, lsl #8
    10b4:	50000100 	andpl	r0, r0, r0, lsl #2
    10b8:	00000004 	andeq	r0, r0, r4
    10bc:	0000000c 	andeq	r0, r0, ip
    10c0:	30700003 	rsbscc	r0, r0, r3
    10c4:	00000c9f 	muleq	r0, pc, ip	; <UNPREDICTABLE>
    10c8:	00001400 	andeq	r1, r0, r0, lsl #8
    10cc:	f3000400 	vshl.u8	d0, d0, d0
    10d0:	009f5001 	addseq	r5, pc, r1
	...
    10dc:	94000000 	strls	r0, [r0], #-0
    10e0:	d8000002 	stmdale	r0, {r1}
    10e4:	01000002 	tsteq	r0, r2
    10e8:	02d85000 	sbcseq	r5, r8, #0, 0
    10ec:	02f80000 	rscseq	r0, r8, #0, 0
    10f0:	00040000 	andeq	r0, r4, r0
    10f4:	9f5001f3 	svcls	0x005001f3
	...
    1104:	00000294 	muleq	r0, r4, r2
    1108:	000002d4 	ldrdeq	r0, [r0], -r4
    110c:	d4510001 	ldrble	r0, [r1], #-1
    1110:	f8000002 			; <UNDEFINED> instruction: 0xf8000002
    1114:	04000002 	streq	r0, [r0], #-2
    1118:	5101f300 	mrspl	pc, SP_irq	; <UNPREDICTABLE>
    111c:	0000009f 	muleq	r0, pc, r0	; <UNPREDICTABLE>
    1120:	00000000 	andeq	r0, r0, r0
    1124:	01010000 	mrseq	r0, (UNDEF: 1)
    1128:	0c000000 	stceq	0, cr0, [r0], {-0}
    112c:	14000000 	strne	r0, [r0], #-0
    1130:	01000000 	mrseq	r0, (UNDEF: 0)
    1134:	00145300 	andseq	r5, r4, r0, lsl #6
    1138:	001c0000 	andseq	r0, ip, r0
    113c:	00030000 	andeq	r0, r3, r0
    1140:	1c9f0473 	cfldrsne	mvf0, [pc], {115}	; 0x73
    1144:	23000000 	movwcs	r0, #0
    1148:	01000000 	mrseq	r0, (UNDEF: 0)
    114c:	00005300 	andeq	r5, r0, r0, lsl #6
    1150:	00000000 	andeq	r0, r0, r0
    1154:	00010000 	andeq	r0, r1, r0
    1158:	00009068 	andeq	r9, r0, r8, rrx
    115c:	00009084 	andeq	r9, r0, r4, lsl #1
    1160:	1c0c0006 	stcne	0, cr0, [ip], {6}
    1164:	9f201000 	svcls	0x00201000
	...
    1170:	90680002 	rsbls	r0, r8, r2
    1174:	90840000 	addls	r0, r4, r0
    1178:	00060000 	andeq	r0, r6, r0
    117c:	1000240c 	andne	r2, r0, ip, lsl #8
    1180:	00009f20 	andeq	r9, r0, r0, lsr #30
    1184:	00000000 	andeq	r0, r0, r0
    1188:	00030000 	andeq	r0, r3, r0
    118c:	00009068 	andeq	r9, r0, r8, rrx
    1190:	00009084 	andeq	r9, r0, r4, lsl #1
    1194:	b4080005 	strlt	r0, [r8], #-5
    1198:	009f2447 	addseq	r2, pc, r7, asr #8
    119c:	00000000 	andeq	r0, r0, r0
    11a0:	04000000 	streq	r0, [r0], #-0
    11a4:	00906800 	addseq	r6, r0, r0, lsl #16
    11a8:	00908400 	addseq	r8, r0, r0, lsl #8
    11ac:	08000300 	stmdaeq	r0, {r8, r9}
    11b0:	00009f20 	andeq	r9, r0, r0, lsr #30
    11b4:	00000000 	andeq	r0, r0, r0
    11b8:	00020000 	andeq	r0, r2, r0
    11bc:	00000000 	andeq	r0, r0, r0
    11c0:	00009034 	andeq	r9, r0, r4, lsr r0
    11c4:	00009038 	andeq	r9, r0, r8, lsr r0
    11c8:	9f300002 	svcls	0x00300002
    11cc:	00009038 	andeq	r9, r0, r8, lsr r0
    11d0:	0000903c 	andeq	r9, r0, ip, lsr r0
    11d4:	40530001 	subsmi	r0, r3, r1
    11d8:	48000090 	stmdami	r0, {r4, r7}
    11dc:	01000090 	swpeq	r0, r0, [r0]	; <UNPREDICTABLE>
    11e0:	00005300 	andeq	r5, r0, r0, lsl #6
    11e4:	00000000 	andeq	r0, r0, r0
    11e8:	00020000 	andeq	r0, r2, r0
    11ec:	901c0000 	andsls	r0, ip, r0
    11f0:	90200000 	eorls	r0, r0, r0
    11f4:	00020000 	andeq	r0, r2, r0
    11f8:	90209f30 	eorls	r9, r0, r0, lsr pc
    11fc:	90240000 	eorls	r0, r4, r0
    1200:	00010000 	andeq	r0, r1, r0
    1204:	00000050 	andeq	r0, r0, r0, asr r0
	...
    1210:	00006c00 	andeq	r6, r0, r0, lsl #24
    1214:	00007800 	andeq	r7, r0, r0, lsl #16
    1218:	50000100 	andpl	r0, r0, r0, lsl #2
    121c:	00000078 	andeq	r0, r0, r8, ror r0
    1220:	00000084 	andeq	r0, r0, r4, lsl #1
    1224:	01f30004 	mvnseq	r0, r4
    1228:	00009f50 	andeq	r9, r0, r0, asr pc
	...
    1234:	00540000 	subseq	r0, r4, r0
    1238:	00600000 	rsbeq	r0, r0, r0
    123c:	00010000 	andeq	r0, r1, r0
    1240:	00006050 	andeq	r6, r0, r0, asr r0
    1244:	00006c00 	andeq	r6, r0, r0, lsl #24
    1248:	f3000400 	vshl.u8	d0, d0, d0
    124c:	009f5001 	addseq	r5, pc, r1
	...
    1258:	30000000 	andcc	r0, r0, r0
    125c:	3b000000 	blcc	1264 <__code_start__-0x6d9c>
    1260:	01000000 	mrseq	r0, (UNDEF: 0)
    1264:	003b5000 	eorseq	r5, fp, r0
    1268:	00540000 	subseq	r0, r4, r0
    126c:	00010000 	andeq	r0, r1, r0
    1270:	00000055 	andeq	r0, r0, r5, asr r0
    1274:	00000000 	andeq	r0, r0, r0
    1278:	40000000 	andmi	r0, r0, r0
    127c:	54000000 	strpl	r0, [r0], #-0
    1280:	01000000 	mrseq	r0, (UNDEF: 0)
    1284:	00005400 	andeq	r5, r0, r0, lsl #8
	...
    1290:	00000044 	andeq	r0, r0, r4, asr #32
    1294:	00000048 	andeq	r0, r0, r8, asr #32
    1298:	00500001 	subseq	r0, r0, r1
	...
    12a4:	24000000 	strcs	r0, [r0], #-0
    12a8:	27000000 	strcs	r0, [r0, -r0]
    12ac:	01000000 	mrseq	r0, (UNDEF: 0)
    12b0:	00275000 	eoreq	r5, r7, r0
    12b4:	00300000 	eorseq	r0, r0, r0
    12b8:	00010000 	andeq	r0, r1, r0
    12bc:	00000054 	andeq	r0, r0, r4, asr r0
	...
    12c8:	00015800 	andeq	r5, r1, r0, lsl #16
    12cc:	00016300 	andeq	r6, r1, r0, lsl #6
    12d0:	50000100 	andpl	r0, r0, r0, lsl #2
    12d4:	00000163 	andeq	r0, r0, r3, ror #2
    12d8:	00000188 	andeq	r0, r0, r8, lsl #3
    12dc:	00540001 	subseq	r0, r4, r1
	...
    12e8:	00014800 	andeq	r4, r1, r0, lsl #16
    12ec:	00015800 	andeq	r5, r1, r0, lsl #16
    12f0:	54000100 	strpl	r0, [r0], #-256	; 0xffffff00
	...
    1304:	0000000f 	andeq	r0, r0, pc
    1308:	0f500001 	svceq	0x00500001
    130c:	20000000 	andcs	r0, r0, r0
    1310:	01000000 	mrseq	r0, (UNDEF: 0)
    1314:	00005400 	andeq	r5, r0, r0, lsl #8
	...
    1324:	000f0000 	andeq	r0, pc, r0
    1328:	00010000 	andeq	r0, r1, r0
    132c:	00000f51 	andeq	r0, r0, r1, asr pc
    1330:	00002000 	andeq	r2, r0, r0
    1334:	55000100 	strpl	r0, [r0, #-256]	; 0xffffff00
	...
    1344:	00000020 	andeq	r0, r0, r0, lsr #32
    1348:	0000002f 	andeq	r0, r0, pc, lsr #32
    134c:	2f500001 	svccs	0x00500001
    1350:	40000000 	andmi	r0, r0, r0
    1354:	01000000 	mrseq	r0, (UNDEF: 0)
    1358:	00005400 	andeq	r5, r0, r0, lsl #8
	...
    1364:	00200000 	eoreq	r0, r0, r0
    1368:	002f0000 	eoreq	r0, pc, r0
    136c:	00010000 	andeq	r0, r1, r0
    1370:	00002f51 	andeq	r2, r0, r1, asr pc
    1374:	00004000 	andeq	r4, r0, r0
    1378:	55000100 	strpl	r0, [r0, #-256]	; 0xffffff00
	...
    138c:	0000001c 	andeq	r0, r0, ip, lsl r0
    1390:	1c510001 	mrrcne	0, 0, r0, r1, cr1
    1394:	34000000 	strcc	r0, [r0], #-0
    1398:	04000000 	streq	r0, [r0], #-0
    139c:	5101f300 	mrspl	pc, SP_irq	; <UNPREDICTABLE>
    13a0:	0000009f 	muleq	r0, pc, r0	; <UNPREDICTABLE>
    13a4:	00000000 	andeq	r0, r0, r0
    13a8:	00000200 	andeq	r0, r0, r0, lsl #4
    13ac:	01010000 	mrseq	r0, (UNDEF: 1)
    13b0:	00000000 	andeq	r0, r0, r0
    13b4:	04000000 	streq	r0, [r0], #-0
    13b8:	01000000 	mrseq	r0, (UNDEF: 0)
    13bc:	00045000 	andeq	r5, r4, r0
    13c0:	001c0000 	andseq	r0, ip, r0
    13c4:	00010000 	andeq	r0, r1, r0
    13c8:	00001c52 	andeq	r1, r0, r2, asr ip
    13cc:	00002400 	andeq	r2, r0, r0, lsl #8
    13d0:	53000100 	movwpl	r0, #256	; 0x100
    13d4:	00000024 	andeq	r0, r0, r4, lsr #32
    13d8:	00000028 	andeq	r0, r0, r8, lsr #32
    13dc:	01730003 	cmneq	r3, r3
    13e0:	0000289f 	muleq	r0, pc, r8	; <UNPREDICTABLE>
    13e4:	00003400 	andeq	r3, r0, r0, lsl #8
    13e8:	53000100 	movwpl	r0, #256	; 0x100
	...
    13f4:	00000003 	andeq	r0, r0, r3
    13f8:	00000000 	andeq	r0, r0, r0
    13fc:	00000024 	andeq	r0, r0, r4, lsr #32
    1400:	24510001 	ldrbcs	r0, [r1], #-1
    1404:	34000000 	strcc	r0, [r0], #-0
    1408:	03000000 	movweq	r0, #0
    140c:	9f7f7100 	svcls	0x007f7100
	...
    141c:	00000010 	andeq	r0, r0, r0, lsl r0
    1420:	0000001c 	andeq	r0, r0, ip, lsl r0
    1424:	245c0001 	ldrbcs	r0, [ip], #-1
    1428:	34000000 	strcc	r0, [r0], #-0
    142c:	01000000 	mrseq	r0, (UNDEF: 0)
    1430:	00005200 	andeq	r5, r0, r0, lsl #4
	...
    1440:	00180000 	andseq	r0, r8, r0
    1444:	00010000 	andeq	r0, r1, r0
    1448:	00001850 	andeq	r1, r0, r0, asr r8
    144c:	00002400 	andeq	r2, r0, r0, lsl #8
    1450:	50000100 	andpl	r0, r0, r0, lsl #2
	...
    1464:	0000001c 	andeq	r0, r0, ip, lsl r0
    1468:	1c510001 	mrrcne	0, 0, r0, r1, cr1
    146c:	2c000000 	stccs	0, cr0, [r0], {-0}
    1470:	01000000 	mrseq	r0, (UNDEF: 0)
    1474:	00005100 	andeq	r5, r0, r0, lsl #2
	...
    1488:	00000004 	andeq	r0, r0, r4
    148c:	04510001 	ldrbeq	r0, [r1], #-1
    1490:	0c000000 	stceq	0, cr0, [r0], {-0}
    1494:	01000000 	mrseq	r0, (UNDEF: 0)
    1498:	000c5100 	andeq	r5, ip, r0, lsl #2
    149c:	00200000 	eoreq	r0, r0, r0
    14a0:	00030000 	andeq	r0, r3, r0
    14a4:	009f7f71 	addseq	r7, pc, r1, ror pc	; <UNPREDICTABLE>
    14a8:	00000000 	andeq	r0, r0, r0
    14ac:	02000000 	andeq	r0, r0, #0, 0
	...
    14b8:	00000400 	andeq	r0, r0, r0, lsl #8
    14bc:	50000100 	andpl	r0, r0, r0, lsl #2
    14c0:	00000004 	andeq	r0, r0, r4
    14c4:	00000014 	andeq	r0, r0, r4, lsl r0
    14c8:	145c0001 	ldrbne	r0, [ip], #-1
    14cc:	20000000 	andcs	r0, r0, r0
    14d0:	03000000 	movweq	r0, #0
    14d4:	9f7f7c00 	svcls	0x007f7c00
	...
    14e0:	00030300 	andeq	r0, r3, r0, lsl #6
    14e4:	00009390 	muleq	r0, r0, r3
    14e8:	00009390 	muleq	r0, r0, r3
    14ec:	90500001 	subsls	r0, r0, r1
    14f0:	bc000093 	stclt	0, cr0, [r0], {147}	; 0x93
    14f4:	04000093 	streq	r0, [r0], #-147	; 0xffffff6d
    14f8:	5001f300 	andpl	pc, r1, r0, lsl #6
    14fc:	0000009f 	muleq	r0, pc, r0	; <UNPREDICTABLE>
    1500:	00000000 	andeq	r0, r0, r0
    1504:	03030000 	movweq	r0, #12288	; 0x3000
    1508:	00939000 	addseq	r9, r3, r0
    150c:	00939000 	addseq	r9, r3, r0
    1510:	51000100 	mrspl	r0, (UNDEF: 16)
    1514:	00009390 	muleq	r0, r0, r3
    1518:	000093bc 			; <UNDEFINED> instruction: 0x000093bc
    151c:	01f30004 	mvnseq	r0, r4
    1520:	00009f51 	andeq	r9, r0, r1, asr pc
    1524:	00000000 	andeq	r0, r0, r0
    1528:	03000000 	movweq	r0, #0
    152c:	00000003 	andeq	r0, r0, r3
    1530:	00009390 	muleq	r0, r0, r3
    1534:	00009390 	muleq	r0, r0, r3
    1538:	90520001 	subsls	r0, r2, r1
    153c:	98000093 	stmdals	r0, {r0, r1, r4, r7}
    1540:	01000093 	swpeq	r0, r3, [r0]	; <UNPREDICTABLE>
    1544:	93985200 	orrsls	r5, r8, #0, 4
    1548:	93bc0000 			; <UNDEFINED> instruction: 0x93bc0000
    154c:	00030000 	andeq	r0, r3, r0
    1550:	009f0172 	addseq	r0, pc, r2, ror r1	; <UNPREDICTABLE>
    1554:	00000000 	andeq	r0, r0, r0
    1558:	02000000 	andeq	r0, r0, #0, 0
    155c:	00000101 	andeq	r0, r0, r1, lsl #2
    1560:	90000000 	andls	r0, r0, r0
    1564:	9c000093 	stcls	0, cr0, [r0], {147}	; 0x93
    1568:	01000093 	swpeq	r0, r3, [r0]	; <UNPREDICTABLE>
    156c:	939c5000 	orrsls	r5, ip, #0, 0
    1570:	93a00000 	movls	r0, #0, 0
    1574:	00030000 	andeq	r0, r3, r0
    1578:	a09f0170 	addsge	r0, pc, r0, ror r1	; <UNPREDICTABLE>
    157c:	b0000093 	mullt	r0, r3, r0
    1580:	01000093 	swpeq	r0, r3, [r0]	; <UNPREDICTABLE>
    1584:	93b45000 			; <UNDEFINED> instruction: 0x93b45000
    1588:	93b80000 			; <UNDEFINED> instruction: 0x93b80000
    158c:	00010000 	andeq	r0, r1, r0
    1590:	00000050 	andeq	r0, r0, r0, asr r0
    1594:	00000000 	andeq	r0, r0, r0
    1598:	00000200 	andeq	r0, r0, r0, lsl #4
    159c:	90000000 	andls	r0, r0, r0
    15a0:	a0000093 	mulge	r0, r3, r0
    15a4:	01000093 	swpeq	r0, r3, [r0]	; <UNPREDICTABLE>
    15a8:	93a05100 	movls	r5, #0
    15ac:	93a40000 			; <UNDEFINED> instruction: 0x93a40000
    15b0:	00030000 	andeq	r0, r3, r0
    15b4:	a49f0171 	ldrge	r0, [pc], #369	; 15bc <__code_start__-0x6a44>
    15b8:	bc000093 	stclt	0, cr0, [r0], {147}	; 0x93
    15bc:	01000093 	swpeq	r0, r3, [r0]	; <UNPREDICTABLE>
    15c0:	00005100 	andeq	r5, r0, r0, lsl #2
    15c4:	00000000 	andeq	r0, r0, r0
	...

Disassembly of section .debug_aranges:

00000000 <.debug_aranges>:
   0:	0000001c 	andeq	r0, r0, ip, lsl r0
   4:	00000002 	andeq	r0, r0, r2
   8:	00040000 	andeq	r0, r4, r0
   c:	00000000 	andeq	r0, r0, r0
  10:	000080ac 	andeq	r8, r0, ip, lsr #1
  14:	00000048 	andeq	r0, r0, r8, asr #32
	...
  20:	0000001c 	andeq	r0, r0, ip, lsl r0
  24:	01dd0002 	bicseq	r0, sp, r2
  28:	00040000 	andeq	r0, r4, r0
  2c:	00000000 	andeq	r0, r0, r0
  30:	000080f4 	strdeq	r8, [r0], -r4
  34:	000001c4 	andeq	r0, r0, r4, asr #3
	...
  40:	0000001c 	andeq	r0, r0, ip, lsl r0
  44:	072e0002 	streq	r0, [lr, -r2]!
  48:	00040000 	andeq	r0, r4, r0
  4c:	00000000 	andeq	r0, r0, r0
  50:	000082b8 			; <UNDEFINED> instruction: 0x000082b8
  54:	00000234 	andeq	r0, r0, r4, lsr r2
	...
  60:	0000001c 	andeq	r0, r0, ip, lsl r0
  64:	18280002 	stmdane	r8!, {r1}
  68:	00040000 	andeq	r0, r4, r0
  6c:	00000000 	andeq	r0, r0, r0
  70:	000084ec 	andeq	r8, r0, ip, ror #9
  74:	0000011c 	andeq	r0, r0, ip, lsl r1
	...
  80:	0000001c 	andeq	r0, r0, ip, lsl r0
  84:	1c1e0002 	ldcne	0, cr0, [lr], {2}
  88:	00040000 	andeq	r0, r4, r0
  8c:	00000000 	andeq	r0, r0, r0
  90:	00008608 	andeq	r8, r0, r8, lsl #12
  94:	00000058 	andeq	r0, r0, r8, asr r0
	...
  a0:	0000001c 	andeq	r0, r0, ip, lsl r0
  a4:	1dbf0002 	ldcne	0, cr0, [pc, #8]!	; b4 <__code_start__-0x7f4c>
  a8:	00040000 	andeq	r0, r4, r0
  ac:	00000000 	andeq	r0, r0, r0
  b0:	00008660 	andeq	r8, r0, r0, ror #12
  b4:	0000003c 	andeq	r0, r0, ip, lsr r0
	...
  c0:	0000001c 	andeq	r0, r0, ip, lsl r0
  c4:	1f0c0002 	svcne	0x000c0002
  c8:	00040000 	andeq	r0, r4, r0
  cc:	00000000 	andeq	r0, r0, r0
  d0:	0000869c 	muleq	r0, ip, r6
  d4:	00000034 	andeq	r0, r0, r4, lsr r0
	...
  e0:	0000001c 	andeq	r0, r0, ip, lsl r0
  e4:	20030002 	andcs	r0, r3, r2
  e8:	00040000 	andeq	r0, r4, r0
  ec:	00000000 	andeq	r0, r0, r0
  f0:	000086d0 	ldrdeq	r8, [r0], -r0
  f4:	000008c8 	andeq	r0, r0, r8, asr #17
	...
 100:	0000001c 	andeq	r0, r0, ip, lsl r0
 104:	2d4c0002 	stclcs	0, cr0, [ip, #-8]
 108:	00040000 	andeq	r0, r4, r0
 10c:	00000000 	andeq	r0, r0, r0
 110:	00008f98 	muleq	r0, r8, pc	; <UNPREDICTABLE>
 114:	0000002c 	andeq	r0, r0, ip, lsr #32
	...
 120:	0000001c 	andeq	r0, r0, ip, lsl r0
 124:	2e7f0002 	cdpcs	0, 7, cr0, cr15, cr2, {0}
 128:	00040000 	andeq	r0, r4, r0
 12c:	00000000 	andeq	r0, r0, r0
 130:	00008fc4 	andeq	r8, r0, r4, asr #31
 134:	0000003c 	andeq	r0, r0, ip, lsr r0
	...
 140:	0000001c 	andeq	r0, r0, ip, lsl r0
 144:	300c0002 	andcc	r0, ip, r2
 148:	00040000 	andeq	r0, r4, r0
 14c:	00000000 	andeq	r0, r0, r0
 150:	00009000 	andeq	r9, r0, r0
 154:	00000004 	andeq	r0, r0, r4
	...
 160:	0000001c 	andeq	r0, r0, ip, lsl r0
 164:	30de0002 	sbcscc	r0, lr, r2
 168:	00040000 	andeq	r0, r4, r0
 16c:	00000000 	andeq	r0, r0, r0
 170:	0000901c 	andeq	r9, r0, ip, lsl r0
 174:	00000080 	andeq	r0, r0, r0, lsl #1
	...
 180:	0000001c 	andeq	r0, r0, ip, lsl r0
 184:	33180002 	tstcc	r8, #2, 0
 188:	00040000 	andeq	r0, r4, r0
 18c:	00000000 	andeq	r0, r0, r0
 190:	0000909c 	muleq	r0, ip, r0
 194:	00000084 	andeq	r0, r0, r4, lsl #1
	...
 1a0:	0000001c 	andeq	r0, r0, ip, lsl r0
 1a4:	35690002 	strbcc	r0, [r9, #-2]!
 1a8:	00040000 	andeq	r0, r4, r0
 1ac:	00000000 	andeq	r0, r0, r0
 1b0:	00009120 	andeq	r9, r0, r0, lsr #2
 1b4:	000001f0 	strdeq	r0, [r0], -r0	; <UNPREDICTABLE>
	...
 1c0:	0000001c 	andeq	r0, r0, ip, lsl r0
 1c4:	3b3a0002 	blcc	e801d4 <__bss_end__+0xe76674>
 1c8:	00040000 	andeq	r0, r4, r0
 1cc:	00000000 	andeq	r0, r0, r0
 1d0:	00009310 	andeq	r9, r0, r0, lsl r3
 1d4:	00000034 	andeq	r0, r0, r4, lsr r0
	...
 1e0:	0000001c 	andeq	r0, r0, ip, lsl r0
 1e4:	3c750002 	ldclcc	0, cr0, [r5], #-8
 1e8:	00040000 	andeq	r0, r4, r0
 1ec:	00000000 	andeq	r0, r0, r0
 1f0:	00009344 	andeq	r9, r0, r4, asr #6
 1f4:	0000002c 	andeq	r0, r0, ip, lsr #32
	...
 200:	0000001c 	andeq	r0, r0, ip, lsl r0
 204:	3d700002 	ldclcc	0, cr0, [r0, #-8]!
 208:	00040000 	andeq	r0, r4, r0
 20c:	00000000 	andeq	r0, r0, r0
 210:	00009370 	andeq	r9, r0, r0, ror r3
 214:	00000020 	andeq	r0, r0, r0, lsr #32
	...
 220:	0000001c 	andeq	r0, r0, ip, lsl r0
 224:	3e830002 	cdpcc	0, 8, cr0, cr3, cr2, {0}
 228:	00040000 	andeq	r0, r4, r0
 22c:	00000000 	andeq	r0, r0, r0
 230:	00009390 	muleq	r0, r0, r3
 234:	0000002c 	andeq	r0, r0, ip, lsr #32
	...
 240:	0000001c 	andeq	r0, r0, ip, lsl r0
 244:	3fd50002 	svccc	0x00d50002
 248:	00040000 	andeq	r0, r4, r0
 24c:	00000000 	andeq	r0, r0, r0
 250:	000093bc 			; <UNDEFINED> instruction: 0x000093bc
 254:	00000004 	andeq	r0, r0, r4
	...

Disassembly of section .debug_line:

00000000 <.debug_line>:
       0:	0000016c 	andeq	r0, r0, ip, ror #2
       4:	00ee0003 	rsceq	r0, lr, r3
       8:	01020000 	mrseq	r0, (UNDEF: 2)
       c:	000d0efb 	strdeq	r0, [sp], -fp
      10:	01010101 	tsteq	r1, r1, lsl #2
      14:	01000000 	mrseq	r0, (UNDEF: 0)
      18:	2f010000 	svccs	0x00010000
      1c:	72657355 	rsbvc	r7, r5, #1409286145	; 0x54000001
      20:	72742f73 	rsbsvc	r2, r4, #460	; 0x1cc
      24:	65747369 	ldrbvs	r7, [r4, #-873]!	; 0xfffffc97
      28:	6c6f6e6e 	stclvs	14, cr6, [pc], #-440	; fffffe78 <__bss_end__+0xffff6318>
      2c:	6e616d6c 	cdpvs	13, 6, cr6, cr1, cr12, {3}
      30:	636f442f 	cmnvs	pc, #788529152	; 0x2f000000
      34:	6e656d75 	mcrvs	13, 3, r6, cr5, cr5, {3}
      38:	532f7374 			; <UNDEFINED> instruction: 0x532f7374
      3c:	6e697270 	mcrvs	2, 3, r7, cr9, cr0, {3}
      40:	75515f67 	ldrbvc	r5, [r1, #-3943]	; 0xfffff099
      44:	65747261 	ldrbvs	r7, [r4, #-609]!	; 0xfffffd9f
      48:	30325f72 	eorscc	r5, r2, r2, ror pc
      4c:	432f3232 			; <UNDEFINED> instruction: 0x432f3232
      50:	30343253 	eorscc	r3, r4, r3, asr r2
      54:	732d584c 			; <UNDEFINED> instruction: 0x732d584c
      58:	32327270 	eorscc	r7, r2, #112, 4
      5c:	62696c2f 	rsbvs	r6, r9, #12032	; 0x2f00
      60:	692f6970 	stmdbvs	pc!, {r4, r5, r6, r8, fp, sp, lr}	; <UNPREDICTABLE>
      64:	756c636e 	strbvc	r6, [ip, #-878]!	; 0xfffffc92
      68:	2f006564 	svccs	0x00006564
      6c:	2f727375 	svccs	0x00727375
      70:	61636f6c 	cmnvs	r3, ip, ror #30
      74:	65432f6c 	strbvs	r2, [r3, #-3948]	; 0xfffff094
      78:	72616c6c 	rsbvc	r6, r1, #108, 24	; 0x6c00
      7c:	6d72612f 	ldfvse	f6, [r2, #-188]!	; 0xffffff44
      80:	6e6f6e2d 	cdpvs	14, 6, cr6, cr15, cr13, {1}
      84:	61652d65 	cmnvs	r5, r5, ror #26
      88:	742d6962 	strtvc	r6, [sp], #-2402	; 0xfffff69e
      8c:	2f747365 	svccs	0x00747365
      90:	30322d39 	eorscc	r2, r2, r9, lsr sp
      94:	34713931 	ldrbtcc	r3, [r1], #-2353	; 0xfffff6cf
      98:	3173632d 	cmncc	r3, sp, lsr #6
      9c:	2f653730 	svccs	0x00653730
      a0:	2f62696c 	svccs	0x0062696c
      a4:	2f636367 	svccs	0x00636367
      a8:	2d6d7261 	sfmcs	f7, 2, [sp, #-388]!	; 0xfffffe7c
      ac:	656e6f6e 	strbvs	r6, [lr, #-3950]!	; 0xfffff092
      b0:	6261652d 	rsbvs	r6, r1, #188743680	; 0xb400000
      b4:	2e392f69 	cdpcs	15, 3, cr2, cr9, cr9, {3}
      b8:	2f312e32 	svccs	0x00312e32
      bc:	6c636e69 	stclvs	14, cr6, [r3], #-420	; 0xfffffe5c
      c0:	00656475 	rsbeq	r6, r5, r5, ror r4
      c4:	69726400 	ldmdbvs	r2!, {sl, sp, lr}^
      c8:	2e726576 	mrccs	5, 3, r6, cr2, cr6, {3}
      cc:	00000063 	andeq	r0, r0, r3, rrx
      d0:	69707200 	ldmdbvs	r0!, {r9, ip, sp, lr}^
      d4:	0100682e 	tsteq	r0, lr, lsr #16
      d8:	64610000 	strbtvs	r0, [r1], #-0
      dc:	31313173 	teqcc	r1, r3, ror r1
      e0:	00682e35 	rsbeq	r2, r8, r5, lsr lr
      e4:	73000000 	movwvc	r0, #0
      e8:	6e696474 	mcrvs	4, 3, r6, cr9, cr4, {3}
      ec:	63672d74 	cmnvs	r7, #116, 26	; 0x1d00
      f0:	00682e63 	rsbeq	r2, r8, r3, ror #28
      f4:	00000002 	andeq	r0, r0, r2
      f8:	05001405 	streq	r1, [r0, #-1029]	; 0xfffffbfb
      fc:	0080ac02 	addeq	sl, r0, r2, lsl #24
     100:	01110300 	tsteq	r1, r0, lsl #6
     104:	052f0505 	streq	r0, [pc, #-1285]!	; fffffc07 <__bss_end__+0xffff60a7>
     108:	05010618 	streq	r0, [r1, #-1560]	; 0xfffff9e8
     10c:	0a030602 	beq	c191c <__bss_end__+0xb7dbc>
     110:	0106054a 	tsteq	r6, sl, asr #10
     114:	01060a05 	tsteq	r6, r5, lsl #20
     118:	02001105 	andeq	r1, r0, #1073741825	; 0x40000001
     11c:	2e060104 	adfcss	f0, f6, f4
     120:	02000205 	andeq	r0, r0, #1342177280	; 0x50000000
     124:	01060104 	tsteq	r6, r4, lsl #2
     128:	02000905 	andeq	r0, r0, #81920	; 0x14000
     12c:	4b060304 	blmi	180d44 <__bss_end__+0x1771e4>
     130:	02001305 	andeq	r1, r0, #335544320	; 0x14000000
     134:	01060304 	tsteq	r6, r4, lsl #6
     138:	02000905 	andeq	r0, r0, #81920	; 0x14000
     13c:	67060304 	strvs	r0, [r6, -r4, lsl #6]
     140:	03040200 	movweq	r0, #16896	; 0x4200
     144:	03054a06 	movweq	r4, #23046	; 0x5a06
     148:	03040200 	movweq	r0, #16896	; 0x4200
     14c:	1a052f06 	bne	14bd6c <__bss_end__+0x14220c>
     150:	03040200 	movweq	r0, #16896	; 0x4200
     154:	001b0547 	andseq	r0, fp, r7, asr #10
     158:	06030402 	streq	r0, [r3], -r2, lsl #8
     15c:	04020001 	streq	r0, [r2], #-1
     160:	02002e03 	andeq	r2, r0, #3, 28	; 0x30
     164:	052e0304 	streq	r0, [lr, #-772]!	; 0xfffffcfc
     168:	02170602 	andseq	r0, r7, #2097152	; 0x200000
     16c:	01010004 	tsteq	r1, r4
     170:	00000228 	andeq	r0, r0, r8, lsr #4
     174:	00f80003 	rscseq	r0, r8, r3
     178:	01020000 	mrseq	r0, (UNDEF: 2)
     17c:	000d0efb 	strdeq	r0, [sp], -fp
     180:	01010101 	tsteq	r1, r1, lsl #2
     184:	01000000 	mrseq	r0, (UNDEF: 0)
     188:	2f010000 	svccs	0x00010000
     18c:	2f727375 	svccs	0x00727375
     190:	61636f6c 	cmnvs	r3, ip, ror #30
     194:	65432f6c 	strbvs	r2, [r3, #-3948]	; 0xfffff094
     198:	72616c6c 	rsbvc	r6, r1, #108, 24	; 0x6c00
     19c:	6d72612f 	ldfvse	f6, [r2, #-188]!	; 0xffffff44
     1a0:	6e6f6e2d 	cdpvs	14, 6, cr6, cr15, cr13, {1}
     1a4:	61652d65 	cmnvs	r5, r5, ror #26
     1a8:	742d6962 	strtvc	r6, [sp], #-2402	; 0xfffff69e
     1ac:	2f747365 	svccs	0x00747365
     1b0:	30322d39 	eorscc	r2, r2, r9, lsr sp
     1b4:	34713931 	ldrbtcc	r3, [r1], #-2353	; 0xfffff6cf
     1b8:	3173632d 	cmncc	r3, sp, lsr #6
     1bc:	2f653730 	svccs	0x00653730
     1c0:	2f62696c 	svccs	0x0062696c
     1c4:	2f636367 	svccs	0x00636367
     1c8:	2d6d7261 	sfmcs	f7, 2, [sp, #-388]!	; 0xfffffe7c
     1cc:	656e6f6e 	strbvs	r6, [lr, #-3950]!	; 0xfffff092
     1d0:	6261652d 	rsbvs	r6, r1, #188743680	; 0xb400000
     1d4:	2e392f69 	cdpcs	15, 3, cr2, cr9, cr9, {3}
     1d8:	2f312e32 	svccs	0x00312e32
     1dc:	6c636e69 	stclvs	14, cr6, [r3], #-420	; 0xfffffe5c
     1e0:	00656475 	rsbeq	r6, r5, r5, ror r4
     1e4:	6573552f 	ldrbvs	r5, [r3, #-1327]!	; 0xfffffad1
     1e8:	742f7372 	strtvc	r7, [pc], #-882	; 1f0 <__code_start__-0x7e10>
     1ec:	74736972 	ldrbtvc	r6, [r3], #-2418	; 0xfffff68e
     1f0:	6f6e6e65 	svcvs	0x006e6e65
     1f4:	616d6c6c 	cmnvs	sp, ip, ror #24
     1f8:	6f442f6e 	svcvs	0x00442f6e
     1fc:	656d7563 	strbvs	r7, [sp, #-1379]!	; 0xfffffa9d
     200:	2f73746e 	svccs	0x0073746e
     204:	69727053 	ldmdbvs	r2!, {r0, r1, r4, r6, ip, sp, lr}^
     208:	515f676e 	cmppl	pc, lr, ror #14
     20c:	74726175 	ldrbtvc	r6, [r2], #-373	; 0xfffffe8b
     210:	325f7265 	subscc	r7, pc, #1342177286	; 0x50000006
     214:	2f323230 	svccs	0x00323230
     218:	34325343 	ldrtcc	r5, [r2], #-835	; 0xfffffcbd
     21c:	2d584c30 	ldclcs	12, cr4, [r8, #-192]	; 0xffffff40
     220:	32727073 	rsbscc	r7, r2, #115, 0	; 0x73
     224:	696c2f32 	stmdbvs	ip!, {r1, r4, r5, r8, r9, sl, fp, sp}^
     228:	2f697062 	svccs	0x00697062
     22c:	6c636e69 	stclvs	14, cr6, [r3], #-420	; 0xfffffe5c
     230:	00656475 	rsbeq	r6, r5, r5, ror r4
     234:	73646100 	cmnvc	r4, #0
     238:	35313131 	ldrcc	r3, [r1, #-305]!	; 0xfffffecf
     23c:	0000632e 	andeq	r6, r0, lr, lsr #6
     240:	74730000 	ldrbtvc	r0, [r3], #-0
     244:	746e6964 	strbtvc	r6, [lr], #-2404	; 0xfffff69c
     248:	6363672d 	cmnvs	r3, #11796480	; 0xb40000
     24c:	0100682e 	tsteq	r0, lr, lsr #16
     250:	70720000 	rsbsvc	r0, r2, r0
     254:	00682e69 	rsbeq	r2, r8, r9, ror #28
     258:	61000002 	tstvs	r0, r2
     25c:	31317364 	teqcc	r1, r4, ror #6
     260:	682e3531 	stmdavs	lr!, {r0, r4, r5, r8, sl, ip, sp}
     264:	00000000 	andeq	r0, r0, r0
     268:	2e633269 	cdpcs	2, 6, cr3, cr3, cr9, {3}
     26c:	00000068 	andeq	r0, r0, r8, rrx
     270:	1a050000 	bne	140278 <__bss_end__+0x136718>
     274:	f4020500 	vst3.8	{d0,d2,d4}, [r2], r0
     278:	03000080 	movweq	r0, #128	; 0x80
     27c:	05050124 	streq	r0, [r5, #-292]	; 0xfffffedc
     280:	060d054b 	streq	r0, [sp], -fp, asr #10
     284:	06050501 	streq	r0, [r5], -r1, lsl #10
     288:	0601054b 	streq	r0, [r1], -fp, asr #10
     28c:	06410583 	strbeq	r0, [r1], -r3, lsl #11
     290:	05010652 	streq	r0, [r1, #-1618]	; 0xfffff9ae
     294:	134b0602 	movtne	r0, #46594	; 0xb602
     298:	01060a05 	tsteq	r6, r5, lsl #20
     29c:	2f060205 	svccs	0x00060205
     2a0:	01060c05 	tsteq	r6, r5, lsl #24
     2a4:	052e0a05 	streq	r0, [lr, #-2565]!	; 0xfffff5fb
     2a8:	052f0602 	streq	r0, [pc, #-1538]!	; fffffcae <__bss_end__+0xffff614e>
     2ac:	0501060a 	streq	r0, [r1, #-1546]	; 0xfffff9f6
     2b0:	062f0602 	strteq	r0, [pc], -r2, lsl #12
     2b4:	01052e2e 	tsteq	r5, lr, lsr #28
     2b8:	0638052f 	ldrteq	r0, [r8], -pc, lsr #10
     2bc:	05010650 	streq	r0, [r1, #-1616]	; 0xfffff9b0
     2c0:	13670602 	cmnne	r7, #2097152	; 0x200000
     2c4:	01060a05 	tsteq	r6, r5, lsl #20
     2c8:	2f060205 	svccs	0x00060205
     2cc:	30064a06 	andcc	r4, r6, r6, lsl #20
     2d0:	1f058413 	svcne	0x00058413
     2d4:	38050106 	stmdacc	r5, {r1, r2, r8}
     2d8:	0602052e 	streq	r0, [r2], -lr, lsr #10
     2dc:	0601052f 	streq	r0, [r1], -pc, lsr #10
     2e0:	2b052e13 	blcs	14bb34 <__bss_end__+0x141fd4>
     2e4:	02054d06 	andeq	r4, r5, #384	; 0x180
     2e8:	31151314 	tstcc	r5, r4, lsl r3
     2ec:	06010514 			; <UNDEFINED> instruction: 0x06010514
     2f0:	1e052e13 	mcrne	14, 0, r2, cr5, cr3, {0}
     2f4:	05053106 	streq	r3, [r5, #-262]	; 0xfffffefa
     2f8:	4d2f4b4b 	fstmdbxmi	pc!, {d4-d40}	;@ Deprecated
     2fc:	31011103 	tstcc	r1, r3, lsl #2
     300:	054d0205 	strbeq	r0, [sp, #-517]	; 0xfffffdfb
     304:	0501060f 	streq	r0, [r1, #-1551]	; 0xfffff9f1
     308:	06830602 	streq	r0, [r3], r2, lsl #12
     30c:	0134069e 	teqeq	r4, lr	; <illegal shifter operand>
     310:	02040200 	andeq	r0, r4, #0, 4
     314:	040200ba 	streq	r0, [r2], #-186	; 0xffffff46
     318:	02001a02 	andeq	r1, r0, #8192	; 0x2000
     31c:	05130204 	ldreq	r0, [r3, #-516]	; 0xfffffdfc
     320:	0402000d 	streq	r0, [r2], #-13
     324:	05010602 	streq	r0, [r1, #-1538]	; 0xfffff9fe
     328:	04020002 	streq	r0, [r2], #-2
     32c:	00690602 	rsbeq	r0, r9, r2, lsl #12
     330:	06020402 	streq	r0, [r2], -r2, lsl #8
     334:	0005054a 	andeq	r0, r5, sl, asr #10
     338:	06020402 	streq	r0, [r2], -r2, lsl #8
     33c:	0002052f 	andeq	r0, r2, pc, lsr #10
     340:	86020402 	strhi	r0, [r2], -r2, lsl #8
     344:	02001205 	andeq	r1, r0, #1342177280	; 0x50000000
     348:	01060204 	tsteq	r6, r4, lsl #4
     34c:	02000205 	andeq	r0, r0, #1342177280	; 0x50000000
     350:	67060204 	strvs	r0, [r6, -r4, lsl #4]
     354:	02040200 	andeq	r0, r4, #0, 4
     358:	04020001 	streq	r0, [r2], #-1
     35c:	05056602 	streq	r6, [r5, #-1538]	; 0xfffff9fe
     360:	02040200 	andeq	r0, r4, #0, 4
     364:	00010514 	andeq	r0, r1, r4, lsl r5
     368:	06020402 	streq	r0, [r2], -r2, lsl #8
     36c:	04020013 	streq	r0, [r2], #-19	; 0xffffffed
     370:	02052e02 	andeq	r2, r5, #2, 28
     374:	01040200 	mrseq	r0, R12_usr
     378:	4a6b0306 	bmi	1ac0f98 <__bss_end__+0x1ab7438>
     37c:	01040200 	mrseq	r0, R12_usr
     380:	0402002e 	streq	r0, [r2], #-46	; 0xffffffd2
     384:	0200d601 	andeq	sp, r0, #1048576	; 0x100000
     388:	12030104 	andne	r0, r3, #1
     38c:	0402002e 	streq	r0, [r2], #-46	; 0xffffffd2
     390:	02002e01 	andeq	r2, r0, #1, 28
     394:	02d60104 	sbcseq	r0, r6, #1
     398:	01010016 	tsteq	r1, r6, lsl r0
     39c:	00000560 	andeq	r0, r0, r0, ror #10
     3a0:	00e80003 	rsceq	r0, r8, r3
     3a4:	01020000 	mrseq	r0, (UNDEF: 2)
     3a8:	000d0efb 	strdeq	r0, [sp], -fp
     3ac:	01010101 	tsteq	r1, r1, lsl #2
     3b0:	01000000 	mrseq	r0, (UNDEF: 0)
     3b4:	2f010000 	svccs	0x00010000
     3b8:	2f727375 	svccs	0x00727375
     3bc:	61636f6c 	cmnvs	r3, ip, ror #30
     3c0:	65432f6c 	strbvs	r2, [r3, #-3948]	; 0xfffff094
     3c4:	72616c6c 	rsbvc	r6, r1, #108, 24	; 0x6c00
     3c8:	6d72612f 	ldfvse	f6, [r2, #-188]!	; 0xffffff44
     3cc:	6e6f6e2d 	cdpvs	14, 6, cr6, cr15, cr13, {1}
     3d0:	61652d65 	cmnvs	r5, r5, ror #26
     3d4:	742d6962 	strtvc	r6, [sp], #-2402	; 0xfffff69e
     3d8:	2f747365 	svccs	0x00747365
     3dc:	30322d39 	eorscc	r2, r2, r9, lsr sp
     3e0:	34713931 	ldrbtcc	r3, [r1], #-2353	; 0xfffff6cf
     3e4:	3173632d 	cmncc	r3, sp, lsr #6
     3e8:	2f653730 	svccs	0x00653730
     3ec:	2f62696c 	svccs	0x0062696c
     3f0:	2f636367 	svccs	0x00636367
     3f4:	2d6d7261 	sfmcs	f7, 2, [sp, #-388]!	; 0xfffffe7c
     3f8:	656e6f6e 	strbvs	r6, [lr, #-3950]!	; 0xfffff092
     3fc:	6261652d 	rsbvs	r6, r1, #188743680	; 0xb400000
     400:	2e392f69 	cdpcs	15, 3, cr2, cr9, cr9, {3}
     404:	2f312e32 	svccs	0x00312e32
     408:	6c636e69 	stclvs	14, cr6, [r3], #-420	; 0xfffffe5c
     40c:	00656475 	rsbeq	r6, r5, r5, ror r4
     410:	6573552f 	ldrbvs	r5, [r3, #-1327]!	; 0xfffffad1
     414:	742f7372 	strtvc	r7, [pc], #-882	; 41c <__code_start__-0x7be4>
     418:	74736972 	ldrbtvc	r6, [r3], #-2418	; 0xfffff68e
     41c:	6f6e6e65 	svcvs	0x006e6e65
     420:	616d6c6c 	cmnvs	sp, ip, ror #24
     424:	6f442f6e 	svcvs	0x00442f6e
     428:	656d7563 	strbvs	r7, [sp, #-1379]!	; 0xfffffa9d
     42c:	2f73746e 	svccs	0x0073746e
     430:	69727053 	ldmdbvs	r2!, {r0, r1, r4, r6, ip, sp, lr}^
     434:	515f676e 	cmppl	pc, lr, ror #14
     438:	74726175 	ldrbtvc	r6, [r2], #-373	; 0xfffffe8b
     43c:	325f7265 	subscc	r7, pc, #1342177286	; 0x50000006
     440:	2f323230 	svccs	0x00323230
     444:	34325343 	ldrtcc	r5, [r2], #-835	; 0xfffffcbd
     448:	2d584c30 	ldclcs	12, cr4, [r8, #-192]	; 0xffffff40
     44c:	32727073 	rsbscc	r7, r2, #115, 0	; 0x73
     450:	696c2f32 	stmdbvs	ip!, {r1, r4, r5, r8, r9, sl, fp, sp}^
     454:	2f697062 	svccs	0x00697062
     458:	6c636e69 	stclvs	14, cr6, [r3], #-420	; 0xfffffe5c
     45c:	00656475 	rsbeq	r6, r5, r5, ror r4
     460:	63326900 	teqvs	r2, #0, 18
     464:	0000632e 	andeq	r6, r0, lr, lsr #6
     468:	74730000 	ldrbtvc	r0, [r3], #-0
     46c:	746e6964 	strbtvc	r6, [lr], #-2404	; 0xfffff69c
     470:	6363672d 	cmnvs	r3, #11796480	; 0xb40000
     474:	0100682e 	tsteq	r0, lr, lsr #16
     478:	70720000 	rsbsvc	r0, r2, r0
     47c:	00682e69 	rsbeq	r2, r8, r9, ror #28
     480:	67000002 	strvs	r0, [r0, -r2]
     484:	2e6f6970 			; <UNDEFINED> instruction: 0x2e6f6970
     488:	00020068 	andeq	r0, r2, r8, rrx
     48c:	32050000 	andcc	r0, r5, #0, 0
     490:	b8020500 	stmdalt	r2, {r8, sl}
     494:	03000082 	movweq	r0, #130	; 0x82
     498:	060100c8 	streq	r0, [r1], -r8, asr #1
     49c:	06020501 	streq	r0, [r2], -r1, lsl #10
     4a0:	0109052f 	tsteq	r9, pc, lsr #10
     4a4:	01010101 	tsteq	r1, r1, lsl #2
     4a8:	052e0101 	streq	r0, [lr, #-257]!	; 0xfffffeff
     4ac:	05130601 	ldreq	r0, [r3, #-1537]	; 0xfffff9ff
     4b0:	34030632 	strcc	r0, [r3], #-1586	; 0xfffff9ce
     4b4:	0501062e 	streq	r0, [r1, #-1582]	; 0xfffff9d2
     4b8:	052f0602 	streq	r0, [pc, #-1538]!	; fffffebe <__bss_end__+0xffff635e>
     4bc:	01010109 	tsteq	r1, r9, lsl #2
     4c0:	01010101 	tsteq	r1, r1, lsl #2
     4c4:	0601052e 	streq	r0, [r1], -lr, lsr #10
     4c8:	06200513 			; <UNDEFINED> instruction: 0x06200513
     4cc:	2e01ae03 	cdpcs	14, 0, cr10, cr1, cr3, {0}
     4d0:	012f0505 			; <UNDEFINED> instruction: 0x012f0505
     4d4:	05013105 	streq	r3, [r1, #-261]	; 0xfffffefb
     4d8:	05011305 	streq	r1, [r1, #-773]	; 0xfffffcfb
     4dc:	05050130 	streq	r0, [r5, #-304]	; 0xfffffed0
     4e0:	2e050113 	mcrcs	1, 0, r0, cr5, cr3, {0}
     4e4:	13050501 	movwne	r0, #21761	; 0x5501
     4e8:	01320501 	teqeq	r2, r1, lsl #10
     4ec:	01130505 	tsteq	r3, r5, lsl #10
     4f0:	05012f05 	streq	r2, [r1, #-3845]	; 0xfffff0fb
     4f4:	05011305 	streq	r1, [r1, #-773]	; 0xfffffcfb
     4f8:	05050134 	streq	r0, [r5, #-308]	; 0xfffffecc
     4fc:	36050113 			; <UNDEFINED> instruction: 0x36050113
     500:	13050501 	movwne	r0, #21761	; 0x5501
     504:	01400501 	cmpeq	r0, r1, lsl #10
     508:	01140505 	tsteq	r4, r5, lsl #10
     50c:	05012705 	streq	r2, [r1, #-1797]	; 0xfffff8fb
     510:	01011302 	tsteq	r1, r2, lsl #6
     514:	01010101 	tsteq	r1, r1, lsl #2
     518:	01010101 	tsteq	r1, r1, lsl #2
     51c:	01010101 	tsteq	r1, r1, lsl #2
     520:	01010101 	tsteq	r1, r1, lsl #2
     524:	01011301 	tsteq	r1, r1, lsl #6
     528:	01010101 	tsteq	r1, r1, lsl #2
     52c:	01010101 	tsteq	r1, r1, lsl #2
     530:	01010101 	tsteq	r1, r1, lsl #2
     534:	01010101 	tsteq	r1, r1, lsl #2
     538:	01011301 	tsteq	r1, r1, lsl #6
     53c:	01010101 	tsteq	r1, r1, lsl #2
     540:	01010101 	tsteq	r1, r1, lsl #2
     544:	01010101 	tsteq	r1, r1, lsl #2
     548:	01010101 	tsteq	r1, r1, lsl #2
     54c:	01011301 	tsteq	r1, r1, lsl #6
     550:	01010101 	tsteq	r1, r1, lsl #2
     554:	01010101 	tsteq	r1, r1, lsl #2
     558:	01010101 	tsteq	r1, r1, lsl #2
     55c:	01010101 	tsteq	r1, r1, lsl #2
     560:	01011301 	tsteq	r1, r1, lsl #6
     564:	01010101 	tsteq	r1, r1, lsl #2
     568:	01010101 	tsteq	r1, r1, lsl #2
     56c:	01010101 	tsteq	r1, r1, lsl #2
     570:	01010101 	tsteq	r1, r1, lsl #2
     574:	01011301 	tsteq	r1, r1, lsl #6
     578:	01010101 	tsteq	r1, r1, lsl #2
     57c:	01010101 	tsteq	r1, r1, lsl #2
     580:	01010101 	tsteq	r1, r1, lsl #2
     584:	01010101 	tsteq	r1, r1, lsl #2
     588:	01011301 	tsteq	r1, r1, lsl #6
     58c:	01010101 	tsteq	r1, r1, lsl #2
     590:	01010101 	tsteq	r1, r1, lsl #2
     594:	01010101 	tsteq	r1, r1, lsl #2
     598:	01010101 	tsteq	r1, r1, lsl #2
     59c:	14050501 	strne	r0, [r5], #-1281	; 0xfffffaff
     5a0:	01270501 			; <UNDEFINED> instruction: 0x01270501
     5a4:	01130205 	tsteq	r3, r5, lsl #4
     5a8:	01010101 	tsteq	r1, r1, lsl #2
     5ac:	01010101 	tsteq	r1, r1, lsl #2
     5b0:	01010101 	tsteq	r1, r1, lsl #2
     5b4:	01010101 	tsteq	r1, r1, lsl #2
     5b8:	01130101 	tsteq	r3, r1, lsl #2
     5bc:	01010101 	tsteq	r1, r1, lsl #2
     5c0:	01010101 	tsteq	r1, r1, lsl #2
     5c4:	01010101 	tsteq	r1, r1, lsl #2
     5c8:	01010101 	tsteq	r1, r1, lsl #2
     5cc:	01130101 	tsteq	r3, r1, lsl #2
     5d0:	01010101 	tsteq	r1, r1, lsl #2
     5d4:	01010101 	tsteq	r1, r1, lsl #2
     5d8:	01010101 	tsteq	r1, r1, lsl #2
     5dc:	01010101 	tsteq	r1, r1, lsl #2
     5e0:	01130101 	tsteq	r3, r1, lsl #2
     5e4:	01010101 	tsteq	r1, r1, lsl #2
     5e8:	01010101 	tsteq	r1, r1, lsl #2
     5ec:	01010101 	tsteq	r1, r1, lsl #2
     5f0:	01010101 	tsteq	r1, r1, lsl #2
     5f4:	01130101 	tsteq	r3, r1, lsl #2
     5f8:	01010101 	tsteq	r1, r1, lsl #2
     5fc:	01010101 	tsteq	r1, r1, lsl #2
     600:	01010101 	tsteq	r1, r1, lsl #2
     604:	01010101 	tsteq	r1, r1, lsl #2
     608:	01130101 	tsteq	r3, r1, lsl #2
     60c:	01010101 	tsteq	r1, r1, lsl #2
     610:	01010101 	tsteq	r1, r1, lsl #2
     614:	01010101 	tsteq	r1, r1, lsl #2
     618:	01010101 	tsteq	r1, r1, lsl #2
     61c:	01130101 	tsteq	r3, r1, lsl #2
     620:	01010101 	tsteq	r1, r1, lsl #2
     624:	01010101 	tsteq	r1, r1, lsl #2
     628:	01010101 	tsteq	r1, r1, lsl #2
     62c:	01010101 	tsteq	r1, r1, lsl #2
     630:	01130101 	tsteq	r3, r1, lsl #2
     634:	01010101 	tsteq	r1, r1, lsl #2
     638:	01010101 	tsteq	r1, r1, lsl #2
     63c:	01010101 	tsteq	r1, r1, lsl #2
     640:	01010101 	tsteq	r1, r1, lsl #2
     644:	01130101 	tsteq	r3, r1, lsl #2
     648:	01010101 	tsteq	r1, r1, lsl #2
     64c:	01010101 	tsteq	r1, r1, lsl #2
     650:	01010101 	tsteq	r1, r1, lsl #2
     654:	01010101 	tsteq	r1, r1, lsl #2
     658:	01130101 	tsteq	r3, r1, lsl #2
     65c:	01050101 	tsteq	r5, r1, lsl #2
     660:	3f051306 	svccc	0x00051306
     664:	7ed60306 	cdpvc	3, 13, cr0, cr6, cr6, {0}
     668:	0501062e 	streq	r0, [r1, #-1582]	; 0xfffff9d2
     66c:	05840605 	streq	r0, [r4, #1541]	; 0x605
     670:	17053102 	strne	r3, [r5, -r2, lsl #2]
     674:	05050106 	streq	r0, [r5, #-262]	; 0xfffffefa
     678:	1d052f06 	stcne	15, cr2, [r5, #-24]	; 0xffffffe8
     67c:	05050106 	streq	r0, [r5, #-262]	; 0xfffffefa
     680:	13134b06 	tstne	r3, #6144	; 0x1800
     684:	01140205 	tsteq	r4, r5, lsl #4
     688:	01010101 	tsteq	r1, r1, lsl #2
     68c:	87010101 	strhi	r0, [r1, -r1, lsl #2]
     690:	02001d05 	andeq	r1, r0, #320	; 0x140
     694:	05010104 	streq	r0, [r1, #-260]	; 0xfffffefc
     698:	04020008 	streq	r0, [r2], #-8
     69c:	14050101 	strne	r0, [r5], #-257	; 0xfffffeff
     6a0:	01040200 	mrseq	r0, R12_usr
     6a4:	08050106 	stmdaeq	r5, {r1, r2, r8}
     6a8:	01040200 	mrseq	r0, R12_usr
     6ac:	0602054a 	streq	r0, [r2], -sl, asr #10
     6b0:	06170551 			; <UNDEFINED> instruction: 0x06170551
     6b4:	06050501 	streq	r0, [r5], -r1, lsl #10
     6b8:	061e052f 	ldreq	r0, [lr], -pc, lsr #10
     6bc:	06020501 	streq	r0, [r2], -r1, lsl #10
     6c0:	0614054c 	ldreq	r0, [r4], -ip, asr #10
     6c4:	06020501 	streq	r0, [r2], -r1, lsl #10
     6c8:	0613054b 	ldreq	r0, [r3], -fp, asr #10
     6cc:	06020501 	streq	r0, [r2], -r1, lsl #10
     6d0:	0101142f 	tsteq	r1, pc, lsr #8
     6d4:	01010101 	tsteq	r1, r1, lsl #2
     6d8:	05680101 	strbeq	r0, [r8, #-257]!	; 0xfffffeff
     6dc:	0501060c 	streq	r0, [r1, #-1548]	; 0xfffff9f4
     6e0:	052f0602 	streq	r0, [pc, #-1538]!	; e6 <__code_start__-0x7f1a>
     6e4:	05010610 	streq	r0, [r1, #-1552]	; 0xfffff9f0
     6e8:	05300602 	ldreq	r0, [r0, #-1538]!	; 0xfffff9fe
     6ec:	10050107 	andne	r0, r5, r7, lsl #2
     6f0:	02050106 	andeq	r0, r5, #-2147483647	; 0x80000001
     6f4:	001f052e 	andseq	r0, pc, lr, lsr #10
     6f8:	06010402 	streq	r0, [r1], -r2, lsl #8
     6fc:	0009052f 	andeq	r0, r9, pc, lsr #10
     700:	01010402 	tsteq	r1, r2, lsl #8
     704:	02001505 	andeq	r1, r0, #20971520	; 0x1400000
     708:	01060104 	tsteq	r6, r4, lsl #2
     70c:	02000905 	andeq	r0, r0, #81920	; 0x14000
     710:	054a0104 	strbeq	r0, [sl, #-260]	; 0xfffffefc
     714:	04020003 	streq	r0, [r2], #-3
     718:	054b0602 	strbeq	r0, [fp, #-1538]	; 0xfffff9fe
     71c:	04020013 	streq	r0, [r2], #-19	; 0xffffffed
     720:	05010602 	streq	r0, [r1, #-1538]	; 0xfffff9fe
     724:	0402000d 	streq	r0, [r2], #-13
     728:	23052e02 	movwcs	r2, #24066	; 0x5e02
     72c:	02040200 	andeq	r0, r4, #0, 4
     730:	24054806 	strcs	r4, [r5], #-2054	; 0xfffff7fa
     734:	02040200 	andeq	r0, r4, #0, 4
     738:	17050106 	strne	r0, [r5, -r6, lsl #2]
     73c:	01040200 	mrseq	r0, R12_usr
     740:	02052e06 	andeq	r2, r5, #96	; 0x60
     744:	01040200 	mrseq	r0, R12_usr
     748:	1f050106 	svcne	0x00050106
     74c:	01040200 	mrseq	r0, R12_usr
     750:	08055006 	stmdaeq	r5, {r1, r2, ip, lr}
     754:	01040200 	mrseq	r0, R12_usr
     758:	00140501 	andseq	r0, r4, r1, lsl #10
     75c:	06010402 	streq	r0, [r1], -r2, lsl #8
     760:	00080501 	andeq	r0, r8, r1, lsl #10
     764:	4a010402 	bmi	41774 <__bss_end__+0x37c14>
     768:	4c060205 	sfmmi	f0, 4, [r6], {5}
     76c:	01060f05 	tsteq	r6, r5, lsl #30
     770:	0602052e 	streq	r0, [r2], -lr, lsr #10
     774:	0101132f 	tsteq	r1, pc, lsr #6
     778:	01010101 	tsteq	r1, r1, lsl #2
     77c:	05050101 	streq	r0, [r5, #-257]	; 0xfffffeff
     780:	2f020568 	svccs	0x00020568
     784:	13060105 	movwne	r0, #24837	; 0x6105
     788:	85063e05 	strhi	r3, [r6, #-3589]	; 0xfffff1fb
     78c:	02050106 	andeq	r0, r5, #-2147483647	; 0x80000001
     790:	05318406 	ldreq	r8, [r1, #-1030]!	; 0xfffffbfa
     794:	05010617 	streq	r0, [r1, #-1559]	; 0xfffff9e9
     798:	052f0605 	streq	r0, [pc, #-1541]!	; 19b <__code_start__-0x7e65>
     79c:	0501061d 	streq	r0, [r1, #-1565]	; 0xfffff9e3
     7a0:	134b0605 	movtne	r0, #46597	; 0xb605
     7a4:	14020513 	strne	r0, [r2], #-1299	; 0xfffffaed
     7a8:	01010101 	tsteq	r1, r1, lsl #2
     7ac:	01010101 	tsteq	r1, r1, lsl #2
     7b0:	001c0585 	andseq	r0, ip, r5, lsl #11
     7b4:	01010402 	tsteq	r1, r2, lsl #8
     7b8:	02000705 	andeq	r0, r0, #1310720	; 0x140000
     7bc:	05010104 	streq	r0, [r1, #-260]	; 0xfffffefc
     7c0:	04020013 	streq	r0, [r2], #-19	; 0xffffffed
     7c4:	05010601 	streq	r0, [r1, #-1537]	; 0xfffff9ff
     7c8:	04020007 	streq	r0, [r2], #-7
     7cc:	02054a01 	andeq	r4, r5, #4096	; 0x1000
     7d0:	17054c06 	strne	r4, [r5, -r6, lsl #24]
     7d4:	05050106 	streq	r0, [r5, #-262]	; 0xfffffefa
     7d8:	1e052f06 	cdpne	15, 0, cr2, cr5, cr6, {0}
     7dc:	02050106 	andeq	r0, r5, #-2147483647	; 0x80000001
     7e0:	14054c06 	strne	r4, [r5], #-3078	; 0xfffff3fa
     7e4:	02050106 	andeq	r0, r5, #-2147483647	; 0x80000001
     7e8:	13132f06 	tstne	r3, #6, 30
     7ec:	01061005 	tsteq	r6, r5
     7f0:	2f060205 	svccs	0x00060205
     7f4:	01060c05 	tsteq	r6, r5, lsl #24
     7f8:	2f060205 	svccs	0x00060205
     7fc:	01010101 	tsteq	r1, r1, lsl #2
     800:	01010101 	tsteq	r1, r1, lsl #2
     804:	01060568 	tsteq	r6, r8, ror #10
     808:	01060f05 	tsteq	r6, r5, lsl #30
     80c:	052e0205 	streq	r0, [lr, #-517]!	; 0xfffffdfb
     810:	0402001f 	streq	r0, [r2], #-31	; 0xffffffe1
     814:	052f0601 	streq	r0, [pc, #-1537]!	; 21b <__code_start__-0x7de5>
     818:	04020009 	streq	r0, [r2], #-9
     81c:	15050101 	strne	r0, [r5, #-257]	; 0xfffffeff
     820:	01040200 	mrseq	r0, R12_usr
     824:	09050106 	stmdbeq	r5, {r1, r2, r8}
     828:	01040200 	mrseq	r0, R12_usr
     82c:	0003054a 	andeq	r0, r3, sl, asr #10
     830:	06020402 	streq	r0, [r2], -r2, lsl #8
     834:	0010054b 	andseq	r0, r0, fp, asr #10
     838:	06020402 	streq	r0, [r2], -r2, lsl #8
     83c:	000b0501 	andeq	r0, fp, r1, lsl #10
     840:	4a020402 	bmi	81850 <__bss_end__+0x77cf0>
     844:	02002205 	andeq	r2, r0, #1342177280	; 0x50000000
     848:	2c060204 	sfmcs	f0, 4, [r6], {4}
     84c:	02002305 	andeq	r2, r0, #335544320	; 0x14000000
     850:	01060204 	tsteq	r6, r4, lsl #4
     854:	02001605 	andeq	r1, r0, #5242880	; 0x500000
     858:	2e060104 	adfcss	f0, f6, f4
     85c:	02000205 	andeq	r0, r0, #1342177280	; 0x50000000
     860:	01060104 	tsteq	r6, r4, lsl #2
     864:	02001f05 	andeq	r1, r0, #5, 30
     868:	51060104 	tstpl	r6, r4, lsl #2
     86c:	02000805 	andeq	r0, r0, #327680	; 0x50000
     870:	05010104 	streq	r0, [r1, #-260]	; 0xfffffefc
     874:	04020014 	streq	r0, [r2], #-20	; 0xffffffec
     878:	05010601 	streq	r0, [r1, #-1537]	; 0xfffff9ff
     87c:	04020008 	streq	r0, [r2], #-8
     880:	02054a01 	andeq	r4, r5, #4096	; 0x1000
     884:	0f054c06 	svceq	0x00054c06
     888:	052e0106 	streq	r0, [lr, #-262]!	; 0xfffffefa
     88c:	132f0602 			; <UNDEFINED> instruction: 0x132f0602
     890:	01010101 	tsteq	r1, r1, lsl #2
     894:	01010101 	tsteq	r1, r1, lsl #2
     898:	05680505 	strbeq	r0, [r8, #-1285]!	; 0xfffffafb
     89c:	01052f02 	tsteq	r5, r2, lsl #30
     8a0:	15051306 	strne	r1, [r5, #-774]	; 0xfffffcfa
     8a4:	02058a06 	andeq	r8, r5, #24576	; 0x6000
     8a8:	0505312f 	streq	r3, [r5, #-303]	; 0xfffffed1
     8ac:	05696733 	strbeq	r6, [r9, #-1843]!	; 0xfffff8cd
     8b0:	17053202 	strne	r3, [r5, -r2, lsl #4]
     8b4:	05050106 	streq	r0, [r5, #-262]	; 0xfffffefa
     8b8:	1d052f06 	stcne	15, cr2, [r5, #-24]	; 0xffffffe8
     8bc:	02050106 	andeq	r0, r5, #-2147483647	; 0x80000001
     8c0:	17056706 	strne	r6, [r5, -r6, lsl #14]
     8c4:	05050106 	streq	r0, [r5, #-262]	; 0xfffffefa
     8c8:	1e052f06 	cdpne	15, 0, cr2, cr5, cr6, {0}
     8cc:	05050106 	streq	r0, [r5, #-262]	; 0xfffffefa
     8d0:	17054c06 	strne	r4, [r5, -r6, lsl #24]
     8d4:	05050106 	streq	r0, [r5, #-262]	; 0xfffffefa
     8d8:	13132f06 	tstne	r3, #6, 30
     8dc:	01010114 	tsteq	r1, r4, lsl r1
     8e0:	01010101 	tsteq	r1, r1, lsl #2
     8e4:	06010601 	streq	r0, [r1], -r1, lsl #12
     8e8:	01010183 	smlabbeq	r1, r3, r1, r0
     8ec:	01010101 	tsteq	r1, r1, lsl #2
     8f0:	05010601 	streq	r0, [r1, #-1537]	; 0xfffff9ff
     8f4:	056c0602 	strbeq	r0, [ip, #-1538]!	; 0xfffff9fe
     8f8:	022f0601 	eoreq	r0, pc, #1048576	; 0x100000
     8fc:	01010006 	tsteq	r1, r6
     900:	000001eb 	andeq	r0, r0, fp, ror #3
     904:	00ef0003 	rsceq	r0, pc, r3
     908:	01020000 	mrseq	r0, (UNDEF: 2)
     90c:	000d0efb 	strdeq	r0, [sp], -fp
     910:	01010101 	tsteq	r1, r1, lsl #2
     914:	01000000 	mrseq	r0, (UNDEF: 0)
     918:	2e010000 	cdpcs	0, 0, cr0, cr1, cr0, {0}
     91c:	6372732f 	cmnvs	r2, #-1140850688	; 0xbc000000
     920:	73552f00 	cmpvc	r5, #0, 30
     924:	2f737265 	svccs	0x00737265
     928:	73697274 	cmnvc	r9, #116, 4	; 0x40000007
     92c:	6e6e6574 	mcrvs	5, 3, r6, cr14, cr4, {3}
     930:	6d6c6c6f 	stclvs	12, cr6, [ip, #-444]!	; 0xfffffe44
     934:	442f6e61 	strtmi	r6, [pc], #-3681	; 93c <__code_start__-0x76c4>
     938:	6d75636f 	ldclvs	3, cr6, [r5, #-444]!	; 0xfffffe44
     93c:	73746e65 	cmnvc	r4, #1616	; 0x650
     940:	7270532f 	rsbsvc	r5, r0, #-1140850688	; 0xbc000000
     944:	5f676e69 	svcpl	0x00676e69
     948:	72617551 	rsbvc	r7, r1, #339738624	; 0x14400000
     94c:	5f726574 	svcpl	0x00726574
     950:	32323032 	eorscc	r3, r2, #50, 0	; 0x32
     954:	3253432f 	subscc	r4, r3, #-1140850688	; 0xbc000000
     958:	584c3034 	stmdapl	ip, {r2, r4, r5, ip, sp}^
     95c:	7270732d 	rsbsvc	r7, r0, #-1275068416	; 0xb4000000
     960:	6c2f3232 	sfmvs	f3, 4, [pc], #-200	; 8a0 <__code_start__-0x7760>
     964:	69706269 	ldmdbvs	r0!, {r0, r3, r5, r6, r9, sp, lr}^
     968:	636e692f 	cmnvs	lr, #770048	; 0xbc000
     96c:	6564756c 	strbvs	r7, [r4, #-1388]!	; 0xfffffa94
     970:	73752f00 	cmnvc	r5, #0, 30
     974:	6f6c2f72 	svcvs	0x006c2f72
     978:	2f6c6163 	svccs	0x006c6163
     97c:	6c6c6543 	cfstr64vs	mvdx6, [ip], #-268	; 0xfffffef4
     980:	612f7261 			; <UNDEFINED> instruction: 0x612f7261
     984:	6e2d6d72 	mcrvs	13, 1, r6, cr13, cr2, {3}
     988:	2d656e6f 	stclcs	14, cr6, [r5, #-444]!	; 0xfffffe44
     98c:	69626165 	stmdbvs	r2!, {r0, r2, r5, r6, r8, sp, lr}^
     990:	7365742d 	cmnvc	r5, #754974720	; 0x2d000000
     994:	2d392f74 	ldccs	15, cr2, [r9, #-464]!	; 0xfffffe30
     998:	39313032 	ldmdbcc	r1!, {r1, r4, r5, ip, sp}
     99c:	632d3471 			; <UNDEFINED> instruction: 0x632d3471
     9a0:	37303173 			; <UNDEFINED> instruction: 0x37303173
     9a4:	696c2f65 	stmdbvs	ip!, {r0, r2, r5, r6, r8, r9, sl, fp, sp}^
     9a8:	63672f62 	cmnvs	r7, #392	; 0x188
     9ac:	72612f63 	rsbvc	r2, r1, #396	; 0x18c
     9b0:	6f6e2d6d 	svcvs	0x006e2d6d
     9b4:	652d656e 	strvs	r6, [sp, #-1390]!	; 0xfffffa92
     9b8:	2f696261 	svccs	0x00696261
     9bc:	2e322e39 	mrccs	14, 1, r2, cr2, cr9, {1}
     9c0:	6e692f31 	mcrvs	15, 3, r2, cr9, cr1, {1}
     9c4:	64756c63 	ldrbtvs	r6, [r5], #-3171	; 0xfffff39d
     9c8:	67000065 	strvs	r0, [r0, -r5, rrx]
     9cc:	2e6f6970 			; <UNDEFINED> instruction: 0x2e6f6970
     9d0:	00010063 	andeq	r0, r1, r3, rrx
     9d4:	69707200 	ldmdbvs	r0!, {r9, ip, sp, lr}^
     9d8:	0200682e 	andeq	r6, r0, #3014656	; 0x2e0000
     9dc:	74730000 	ldrbtvc	r0, [r3], #-0
     9e0:	746e6964 	strbtvc	r6, [lr], #-2404	; 0xfffff69c
     9e4:	6363672d 	cmnvs	r3, #11796480	; 0xb40000
     9e8:	0300682e 	movweq	r6, #2094	; 0x82e
     9ec:	70670000 	rsbvc	r0, r7, r0
     9f0:	682e6f69 	stmdavs	lr!, {r0, r3, r5, r6, r8, r9, sl, fp, sp, lr}
     9f4:	00000200 	andeq	r0, r0, r0, lsl #4
     9f8:	00380500 	eorseq	r0, r8, r0, lsl #10
     9fc:	84ec0205 	strbthi	r0, [ip], #517	; 0x205
     a00:	27030000 	strcs	r0, [r3, -r0]
     a04:	13050501 	movwne	r0, #21761	; 0x5501
     a08:	01060705 	tsteq	r6, r5, lsl #14
     a0c:	05493805 	strbeq	r3, [r9, #-2053]	; 0xfffff7fb
     a10:	054d0605 	strbeq	r0, [sp, #-1541]	; 0xfffff9fb
     a14:	05010607 	streq	r0, [r1, #-1543]	; 0xfffff9f9
     a18:	054c0605 	strbeq	r0, [ip, #-1541]	; 0xfffff9fb
     a1c:	05010618 	streq	r0, [r1, #-1560]	; 0xfffff9e8
     a20:	0505ba0e 	streq	fp, [r5, #-2574]	; 0xfffff5f2
     a24:	1c052f06 	stcne	15, cr2, [r5], {6}
     a28:	052e0106 	streq	r0, [lr, #-262]!	; 0xfffffefa
     a2c:	05052e0e 	streq	r2, [r5, #-3598]	; 0xfffff1f2
     a30:	12053006 	andne	r3, r5, #6, 0
     a34:	05050106 	streq	r0, [r5, #-262]	; 0xfffffefa
     a38:	07054b06 	streq	r4, [r5, -r6, lsl #22]
     a3c:	05050106 	streq	r0, [r5, #-262]	; 0xfffffefa
     a40:	06134b06 	ldreq	r4, [r3], -r6, lsl #22
     a44:	4b01052e 	blmi	41f04 <__bss_end__+0x383a4>
     a48:	4c062405 	cfstrsmi	mvf2, [r6], {5}
     a4c:	05050106 	streq	r0, [r5, #-262]	; 0xfffffefa
     a50:	01052f06 	tsteq	r5, r6, lsl #30
     a54:	20054b06 	andcs	r4, r5, r6, lsl #22
     a58:	05053106 	streq	r3, [r5, #-262]	; 0xfffffefa
     a5c:	06070513 			; <UNDEFINED> instruction: 0x06070513
     a60:	49200501 	stmdbmi	r0!, {r0, r8, sl}
     a64:	31060505 	tstcc	r6, r5, lsl #10
     a68:	01056606 	tsteq	r5, r6, lsl #12
     a6c:	0621052f 	strteq	r0, [r1], -pc, lsr #10
     a70:	1305054d 	movwne	r0, #21837	; 0x554d
     a74:	01060705 	tsteq	r6, r5, lsl #14
     a78:	05492105 	strbeq	r2, [r9, #-261]	; 0xfffffefb
     a7c:	06310605 	ldrteq	r0, [r1], -r5, lsl #12
     a80:	2f010566 	svccs	0x00010566
     a84:	4d062305 	stcmi	3, cr2, [r6, #-20]	; 0xffffffec
     a88:	05050106 	streq	r0, [r5, #-262]	; 0xfffffefa
     a8c:	01052f06 	tsteq	r5, r6, lsl #30
     a90:	2b054b06 	blcs	1536b0 <__bss_end__+0x149b50>
     a94:	01063106 	tsteq	r6, r6, lsl #2
     a98:	2f060505 	svccs	0x00060505
     a9c:	01060705 	tsteq	r6, r5, lsl #14
     aa0:	4b060905 	blmi	182ebc <__bss_end__+0x17935c>
     aa4:	30062e06 	andcc	r2, r6, r6, lsl #28
     aa8:	2f060105 	svccs	0x00060105
     aac:	30061d05 	andcc	r1, r6, r5, lsl #26
     ab0:	05130505 	ldreq	r0, [r3, #-1285]	; 0xfffffafb
     ab4:	05010607 	streq	r0, [r1, #-1543]	; 0xfffff9f9
     ab8:	0505491d 	streq	r4, [r5, #-2333]	; 0xfffff6e3
     abc:	05133106 	ldreq	r3, [r3, #-262]	; 0xfffffefa
     ac0:	0501060e 	streq	r0, [r1, #-1550]	; 0xfffff9f2
     ac4:	052f0605 	streq	r0, [pc, #-1541]!	; 4c7 <__code_start__-0x7b39>
     ac8:	4a010617 	bmi	4232c <__bss_end__+0x387cc>
     acc:	042e2305 	strteq	r2, [lr], #-773	; 0xfffffcfb
     ad0:	06300502 	ldrteq	r0, [r0], -r2, lsl #10
     ad4:	2e00dc03 	cdpcs	12, 0, cr13, cr0, cr3, {0}
     ad8:	0c050104 	stfeqs	f0, [r5], {4}
     adc:	7fa40306 	svcvc	0x00a40306
     ae0:	2f010501 	svccs	0x00010501
     ae4:	052a1005 	streq	r1, [sl, #-5]!
     ae8:	04023201 	streq	r3, [r2], #-513	; 0xfffffdff
     aec:	33010100 	movwcc	r0, #4352	; 0x1100
     af0:	03000001 	movweq	r0, #1
     af4:	00010100 	andeq	r0, r1, r0, lsl #2
     af8:	fb010200 	blx	41302 <__bss_end__+0x377a2>
     afc:	01000d0e 	tsteq	r0, lr, lsl #26
     b00:	00010101 	andeq	r0, r1, r1, lsl #2
     b04:	00010000 	andeq	r0, r1, r0
     b08:	2f2e0100 	svccs	0x002e0100
     b0c:	6362696c 	cmnvs	r2, #108, 18	; 0x1b0000
     b10:	73752f00 	cmnvc	r5, #0, 30
     b14:	6f6c2f72 	svcvs	0x006c2f72
     b18:	2f6c6163 	svccs	0x006c6163
     b1c:	6c6c6543 	cfstr64vs	mvdx6, [ip], #-268	; 0xfffffef4
     b20:	612f7261 			; <UNDEFINED> instruction: 0x612f7261
     b24:	6e2d6d72 	mcrvs	13, 1, r6, cr13, cr2, {3}
     b28:	2d656e6f 	stclcs	14, cr6, [r5, #-444]!	; 0xfffffe44
     b2c:	69626165 	stmdbvs	r2!, {r0, r2, r5, r6, r8, sp, lr}^
     b30:	7365742d 	cmnvc	r5, #754974720	; 0x2d000000
     b34:	2d392f74 	ldccs	15, cr2, [r9, #-464]!	; 0xfffffe30
     b38:	39313032 	ldmdbcc	r1!, {r1, r4, r5, ip, sp}
     b3c:	632d3471 			; <UNDEFINED> instruction: 0x632d3471
     b40:	37303173 			; <UNDEFINED> instruction: 0x37303173
     b44:	696c2f65 	stmdbvs	ip!, {r0, r2, r5, r6, r8, r9, sl, fp, sp}^
     b48:	63672f62 	cmnvs	r7, #392	; 0x188
     b4c:	72612f63 	rsbvc	r2, r1, #396	; 0x18c
     b50:	6f6e2d6d 	svcvs	0x006e2d6d
     b54:	652d656e 	strvs	r6, [sp, #-1390]!	; 0xfffffa92
     b58:	2f696261 	svccs	0x00696261
     b5c:	2e322e39 	mrccs	14, 1, r2, cr2, cr9, {1}
     b60:	6e692f31 	mcrvs	15, 3, r2, cr9, cr1, {1}
     b64:	64756c63 	ldrbtvs	r6, [r5], #-3171	; 0xfffff39d
     b68:	552f0065 	strpl	r0, [pc, #-101]!	; b0b <__code_start__-0x74f5>
     b6c:	73726573 	cmnvc	r2, #482344960	; 0x1cc00000
     b70:	6972742f 	ldmdbvs	r2!, {r0, r1, r2, r3, r5, sl, ip, sp, lr}^
     b74:	6e657473 	mcrvs	4, 3, r7, cr5, cr3, {3}
     b78:	6c6c6f6e 	stclvs	15, cr6, [ip], #-440	; 0xfffffe48
     b7c:	2f6e616d 	svccs	0x006e616d
     b80:	75636f44 	strbvc	r6, [r3, #-3908]!	; 0xfffff0bc
     b84:	746e656d 	strbtvc	r6, [lr], #-1389	; 0xfffffa93
     b88:	70532f73 	subsvc	r2, r3, r3, ror pc
     b8c:	676e6972 			; <UNDEFINED> instruction: 0x676e6972
     b90:	6175515f 	cmnvs	r5, pc, asr r1
     b94:	72657472 	rsbvc	r7, r5, #1912602624	; 0x72000000
     b98:	3230325f 	eorscc	r3, r0, #-268435451	; 0xf0000005
     b9c:	53432f32 	movtpl	r2, #16178	; 0x3f32
     ba0:	4c303432 	cfldrsmi	mvf3, [r0], #-200	; 0xffffff38
     ba4:	70732d58 	rsbsvc	r2, r3, r8, asr sp
     ba8:	2f323272 	svccs	0x00323272
     bac:	7062696c 	rsbvc	r6, r2, ip, ror #18
     bb0:	6e692f69 	cdpvs	15, 6, cr2, cr9, cr9, {3}
     bb4:	64756c63 	ldrbtvs	r6, [r5], #-3171	; 0xfffff39d
     bb8:	70000065 	andvc	r0, r0, r5, rrx
     bbc:	746e6972 	strbtvc	r6, [lr], #-2418	; 0xfffff68e
     bc0:	00632e6b 	rsbeq	r2, r3, fp, ror #28
     bc4:	73000001 	movwvc	r0, #1
     bc8:	72616474 	rsbvc	r6, r1, #116, 8	; 0x74000000
     bcc:	00682e67 	rsbeq	r2, r8, r7, ror #28
     bd0:	72000002 	andvc	r0, r0, #2, 0
     bd4:	682e6970 	stmdavs	lr!, {r4, r5, r6, r8, fp, sp, lr}
     bd8:	00000300 	andeq	r0, r0, r0, lsl #6
     bdc:	6975623c 	ldmdbvs	r5!, {r2, r3, r4, r5, r9, sp, lr}^
     be0:	692d746c 	pushvs	{r2, r3, r5, r6, sl, ip, sp, lr}
     be4:	00003e6e 	andeq	r3, r0, lr, ror #28
     be8:	61760000 	cmnvs	r6, r0
     bec:	6972702d 	ldmdbvs	r2!, {r0, r2, r3, r5, ip, sp, lr}^
     bf0:	2e6b746e 	cdpcs	4, 6, cr7, cr11, cr14, {3}
     bf4:	00010068 	andeq	r0, r1, r8, rrx
     bf8:	22050000 	andcs	r0, r5, #0, 0
     bfc:	08020500 	stmdaeq	r2, {r8, sl}
     c00:	17000086 	strne	r0, [r0, -r6, lsl #1]
     c04:	05050106 	streq	r0, [r5, #-262]	; 0xfffffefa
     c08:	14136806 	ldrne	r6, [r3], #-2054	; 0xfffff7fa
     c0c:	054b0905 	strbeq	r0, [fp, #-2309]	; 0xfffff6fb
     c10:	05010612 	streq	r0, [r1, #-1554]	; 0xfffff9ee
     c14:	16bb0605 	ldrtne	r0, [fp], r5, lsl #12
     c18:	34066606 	strcc	r6, [r6], #-1542	; 0xfffff9fa
     c1c:	13060105 	movwne	r0, #24837	; 0x6105
     c20:	00080266 	andeq	r0, r8, r6, ror #4
     c24:	00be0101 	adcseq	r0, lr, r1, lsl #2
     c28:	00030000 	andeq	r0, r3, r0
     c2c:	00000080 	andeq	r0, r0, r0, lsl #1
     c30:	0efb0102 	cdpeq	1, 15, cr0, cr11, cr2, {0}
     c34:	0101000d 	tsteq	r1, sp
     c38:	00000101 	andeq	r0, r0, r1, lsl #2
     c3c:	00000100 	andeq	r0, r0, r0, lsl #2
     c40:	6c2f2e01 	stcvs	14, cr2, [pc], #-4	; c44 <__code_start__-0x73bc>
     c44:	00636269 	rsbeq	r6, r3, r9, ror #4
     c48:	6573552f 	ldrbvs	r5, [r3, #-1327]!	; 0xfffffad1
     c4c:	742f7372 	strtvc	r7, [pc], #-882	; c54 <__code_start__-0x73ac>
     c50:	74736972 	ldrbtvc	r6, [r3], #-2418	; 0xfffff68e
     c54:	6f6e6e65 	svcvs	0x006e6e65
     c58:	616d6c6c 	cmnvs	sp, ip, ror #24
     c5c:	6f442f6e 	svcvs	0x00442f6e
     c60:	656d7563 	strbvs	r7, [sp, #-1379]!	; 0xfffffa9d
     c64:	2f73746e 	svccs	0x0073746e
     c68:	69727053 	ldmdbvs	r2!, {r0, r1, r4, r6, ip, sp, lr}^
     c6c:	515f676e 	cmppl	pc, lr, ror #14
     c70:	74726175 	ldrbtvc	r6, [r2], #-373	; 0xfffffe8b
     c74:	325f7265 	subscc	r7, pc, #1342177286	; 0x50000006
     c78:	2f323230 	svccs	0x00323230
     c7c:	34325343 	ldrtcc	r5, [r2], #-835	; 0xfffffcbd
     c80:	2d584c30 	ldclcs	12, cr4, [r8, #-192]	; 0xffffff40
     c84:	32727073 	rsbscc	r7, r2, #115, 0	; 0x73
     c88:	696c2f32 	stmdbvs	ip!, {r1, r4, r5, r8, r9, sl, fp, sp}^
     c8c:	2f697062 	svccs	0x00697062
     c90:	6c636e69 	stclvs	14, cr6, [r3], #-420	; 0xfffffe5c
     c94:	00656475 	rsbeq	r6, r5, r5, ror r4
     c98:	74757000 	ldrbtvc	r7, [r5], #-0
     c9c:	72616863 	rsbvc	r6, r1, #6488064	; 0x630000
     ca0:	0100632e 	tsteq	r0, lr, lsr #6
     ca4:	70720000 	rsbsvc	r0, r2, r0
     ca8:	00682e69 	rsbeq	r2, r8, r9, ror #28
     cac:	00000002 	andeq	r0, r0, r2
     cb0:	05002405 	streq	r2, [r0, #-1029]	; 0xfffffbfb
     cb4:	00866002 	addeq	r6, r6, r2
     cb8:	01061400 	tsteq	r6, r0, lsl #8
     cbc:	4a062605 	bmi	18a4d8 <__bss_end__+0x180978>
     cc0:	052e3405 	streq	r3, [lr, #-1029]!	; 0xfffffbfb
     cc4:	05010601 	streq	r0, [r1, #-1537]	; 0xfffff9ff
     cc8:	054f061b 	strbeq	r0, [pc, #-1563]	; 6b5 <__code_start__-0x794b>
     ccc:	11051305 	tstne	r5, r5, lsl #6
     cd0:	01050106 	tsteq	r5, r6, lsl #2
     cd4:	06230567 	strteq	r0, [r3], -r7, ror #10
     cd8:	13050567 	movwne	r0, #21863	; 0x5567
     cdc:	01061105 	tsteq	r6, r5, lsl #2
     ce0:	024b0105 	subeq	r0, fp, #1073741825	; 0x40000001
     ce4:	01010004 	tsteq	r1, r4
     ce8:	000000cb 	andeq	r0, r0, fp, asr #1
     cec:	007d0003 	rsbseq	r0, sp, r3
     cf0:	01020000 	mrseq	r0, (UNDEF: 2)
     cf4:	000d0efb 	strdeq	r0, [sp], -fp
     cf8:	01010101 	tsteq	r1, r1, lsl #2
     cfc:	01000000 	mrseq	r0, (UNDEF: 0)
     d00:	2e010000 	cdpcs	0, 0, cr0, cr1, cr0, {0}
     d04:	62696c2f 	rsbvs	r6, r9, #12032	; 0x2f00
     d08:	552f0063 	strpl	r0, [pc, #-99]!	; cad <__code_start__-0x7353>
     d0c:	73726573 	cmnvc	r2, #482344960	; 0x1cc00000
     d10:	6972742f 	ldmdbvs	r2!, {r0, r1, r2, r3, r5, sl, ip, sp, lr}^
     d14:	6e657473 	mcrvs	4, 3, r7, cr5, cr3, {3}
     d18:	6c6c6f6e 	stclvs	15, cr6, [ip], #-440	; 0xfffffe48
     d1c:	2f6e616d 	svccs	0x006e616d
     d20:	75636f44 	strbvc	r6, [r3, #-3908]!	; 0xfffff0bc
     d24:	746e656d 	strbtvc	r6, [lr], #-1389	; 0xfffffa93
     d28:	70532f73 	subsvc	r2, r3, r3, ror pc
     d2c:	676e6972 			; <UNDEFINED> instruction: 0x676e6972
     d30:	6175515f 	cmnvs	r5, pc, asr r1
     d34:	72657472 	rsbvc	r7, r5, #1912602624	; 0x72000000
     d38:	3230325f 	eorscc	r3, r0, #-268435451	; 0xf0000005
     d3c:	53432f32 	movtpl	r2, #16178	; 0x3f32
     d40:	4c303432 	cfldrsmi	mvf3, [r0], #-200	; 0xffffff38
     d44:	70732d58 	rsbsvc	r2, r3, r8, asr sp
     d48:	2f323272 	svccs	0x00323272
     d4c:	7062696c 	rsbvc	r6, r2, ip, ror #18
     d50:	6e692f69 	cdpvs	15, 6, cr2, cr9, cr9, {3}
     d54:	64756c63 	ldrbtvs	r6, [r5], #-3171	; 0xfffff39d
     d58:	70000065 	andvc	r0, r0, r5, rrx
     d5c:	2e6b7475 	mcrcs	4, 3, r7, cr11, cr5, {3}
     d60:	00010063 	andeq	r0, r1, r3, rrx
     d64:	69707200 	ldmdbvs	r0!, {r9, ip, sp, lr}^
     d68:	0200682e 	andeq	r6, r0, #3014656	; 0x2e0000
     d6c:	05000000 	streq	r0, [r0, #-0]
     d70:	02050022 	andeq	r0, r5, #34, 0	; 0x22
     d74:	0000869c 	muleq	r0, ip, r6
     d78:	05010615 	streq	r0, [r1, #-1557]	; 0xfffff9eb
     d7c:	054b0605 	strbeq	r0, [fp, #-1541]	; 0xfffff9fb
     d80:	0402000b 	streq	r0, [r2], #-11
     d84:	05050101 	streq	r0, [r5, #-257]	; 0xfffffeff
     d88:	01040200 	mrseq	r0, R12_usr
     d8c:	09052e06 	stmdbeq	r5, {r1, r2, r9, sl, fp, sp}
     d90:	02040200 	andeq	r0, r4, #0, 4
     d94:	0f054b06 	svceq	0x00054b06
     d98:	02040200 	andeq	r0, r4, #0, 4
     d9c:	00100565 	andseq	r0, r0, r5, ror #10
     da0:	06020402 	streq	r0, [r2], -r2, lsl #8
     da4:	04020001 	streq	r0, [r2], #-1
     da8:	05052e02 	streq	r2, [r5, #-3586]	; 0xfffff1fe
     dac:	01053206 	tsteq	r5, r6, lsl #4
     db0:	06021306 	streq	r1, [r2], -r6, lsl #6
     db4:	19010100 	stmdbne	r1, {r8}
     db8:	03000007 	movweq	r0, #7
     dbc:	00011700 	andeq	r1, r1, r0, lsl #14
     dc0:	fb010200 	blx	415ca <__bss_end__+0x37a6a>
     dc4:	01000d0e 	tsteq	r0, lr, lsl #26
     dc8:	00010101 	andeq	r0, r1, r1, lsl #2
     dcc:	00010000 	andeq	r0, r1, r0
     dd0:	2f2e0100 	svccs	0x002e0100
     dd4:	6362696c 	cmnvs	r2, #108, 18	; 0x1b0000
     dd8:	73752f00 	cmnvc	r5, #0, 30
     ddc:	6f6c2f72 	svcvs	0x006c2f72
     de0:	2f6c6163 	svccs	0x006c6163
     de4:	6c6c6543 	cfstr64vs	mvdx6, [ip], #-268	; 0xfffffef4
     de8:	612f7261 			; <UNDEFINED> instruction: 0x612f7261
     dec:	6e2d6d72 	mcrvs	13, 1, r6, cr13, cr2, {3}
     df0:	2d656e6f 	stclcs	14, cr6, [r5, #-444]!	; 0xfffffe44
     df4:	69626165 	stmdbvs	r2!, {r0, r2, r5, r6, r8, sp, lr}^
     df8:	7365742d 	cmnvc	r5, #754974720	; 0x2d000000
     dfc:	2d392f74 	ldccs	15, cr2, [r9, #-464]!	; 0xfffffe30
     e00:	39313032 	ldmdbcc	r1!, {r1, r4, r5, ip, sp}
     e04:	632d3471 			; <UNDEFINED> instruction: 0x632d3471
     e08:	37303173 			; <UNDEFINED> instruction: 0x37303173
     e0c:	696c2f65 	stmdbvs	ip!, {r0, r2, r5, r6, r8, r9, sl, fp, sp}^
     e10:	63672f62 	cmnvs	r7, #392	; 0x188
     e14:	72612f63 	rsbvc	r2, r1, #396	; 0x18c
     e18:	6f6e2d6d 	svcvs	0x006e2d6d
     e1c:	652d656e 	strvs	r6, [sp, #-1390]!	; 0xfffffa92
     e20:	2f696261 	svccs	0x00696261
     e24:	2e322e39 	mrccs	14, 1, r2, cr2, cr9, {1}
     e28:	6e692f31 	mcrvs	15, 3, r2, cr9, cr1, {1}
     e2c:	64756c63 	ldrbtvs	r6, [r5], #-3171	; 0xfffff39d
     e30:	552f0065 	strpl	r0, [pc, #-101]!	; dd3 <__code_start__-0x722d>
     e34:	73726573 	cmnvc	r2, #482344960	; 0x1cc00000
     e38:	6972742f 	ldmdbvs	r2!, {r0, r1, r2, r3, r5, sl, ip, sp, lr}^
     e3c:	6e657473 	mcrvs	4, 3, r7, cr5, cr3, {3}
     e40:	6c6c6f6e 	stclvs	15, cr6, [ip], #-440	; 0xfffffe48
     e44:	2f6e616d 	svccs	0x006e616d
     e48:	75636f44 	strbvc	r6, [r3, #-3908]!	; 0xfffff0bc
     e4c:	746e656d 	strbtvc	r6, [lr], #-1389	; 0xfffffa93
     e50:	70532f73 	subsvc	r2, r3, r3, ror pc
     e54:	676e6972 			; <UNDEFINED> instruction: 0x676e6972
     e58:	6175515f 	cmnvs	r5, pc, asr r1
     e5c:	72657472 	rsbvc	r7, r5, #1912602624	; 0x72000000
     e60:	3230325f 	eorscc	r3, r0, #-268435451	; 0xf0000005
     e64:	53432f32 	movtpl	r2, #16178	; 0x3f32
     e68:	4c303432 	cfldrsmi	mvf3, [r0], #-200	; 0xffffff38
     e6c:	70732d58 	rsbsvc	r2, r3, r8, asr sp
     e70:	2f323272 	svccs	0x00323272
     e74:	7062696c 	rsbvc	r6, r2, ip, ror #18
     e78:	6e692f69 	cdpvs	15, 6, cr2, cr9, cr9, {3}
     e7c:	64756c63 	ldrbtvs	r6, [r5], #-3171	; 0xfffff39d
     e80:	76000065 	strvc	r0, [r0], -r5, rrx
     e84:	72702d61 	rsbsvc	r2, r0, #6208	; 0x1840
     e88:	6b746e69 	blvs	1d1c834 <__bss_end__+0x1d12cd4>
     e8c:	0100632e 	tsteq	r0, lr, lsr #6
     e90:	74730000 	ldrbtvc	r0, [r3], #-0
     e94:	746e6964 	strbtvc	r6, [lr], #-2404	; 0xfffff69c
     e98:	6363672d 	cmnvs	r3, #11796480	; 0xb40000
     e9c:	0200682e 	andeq	r6, r0, #3014656	; 0x2e0000
     ea0:	70720000 	rsbsvc	r0, r2, r0
     ea4:	00682e69 	rsbeq	r2, r8, r9, ror #28
     ea8:	72000003 	andvc	r0, r0, #3, 0
     eac:	692d6970 	pushvs	{r4, r5, r6, r8, fp, sp, lr}
     eb0:	7265746e 	rsbvc	r7, r5, #1845493760	; 0x6e000000
     eb4:	2e6c616e 	powcsez	f6, f4, #0.5
     eb8:	00030068 	andeq	r0, r3, r8, rrx
     ebc:	64747300 	ldrbtvs	r7, [r4], #-768	; 0xfffffd00
     ec0:	2e677261 	cdpcs	2, 6, cr7, cr7, cr1, {3}
     ec4:	00020068 	andeq	r0, r2, r8, rrx
     ec8:	75623c00 	strbvc	r3, [r2, #-3072]!	; 0xfffff400
     ecc:	2d746c69 	ldclcs	12, cr6, [r4, #-420]!	; 0xfffffe5c
     ed0:	003e6e69 	eorseq	r6, lr, r9, ror #28
     ed4:	00000000 	andeq	r0, r0, r0
     ed8:	05001b05 	streq	r1, [r0, #-2821]	; 0xfffff4fb
     edc:	0086d002 	addeq	sp, r6, r2
     ee0:	01260300 			; <UNDEFINED> instruction: 0x01260300
     ee4:	05011d05 	streq	r1, [r1, #-3333]	; 0xfffff2fb
     ee8:	0501062d 	streq	r0, [r1, #-1581]	; 0xfffff9d3
     eec:	054a2e01 	strbeq	r2, [sl, #-3585]	; 0xfffff1ff
     ef0:	05510633 	ldrbeq	r0, [r1, #-1587]	; 0xfffff9cd
     ef4:	06051302 	streq	r1, [r5], -r2, lsl #6
     ef8:	02050106 	andeq	r0, r5, #-2147483647	; 0x80000001
     efc:	08053006 	stmdaeq	r5, {r1, r2, ip, sp}
     f00:	01040200 	mrseq	r0, R12_usr
     f04:	00020501 	andeq	r0, r2, r1, lsl #10
     f08:	06010402 	streq	r0, [r1], -r2, lsl #8
     f0c:	00030501 	andeq	r0, r3, r1, lsl #10
     f10:	06020402 	streq	r0, [r2], -r2, lsl #8
     f14:	0008052f 	andeq	r0, r8, pc, lsr #10
     f18:	06020402 	streq	r0, [r2], -r2, lsl #8
     f1c:	00150501 	andseq	r0, r5, r1, lsl #10
     f20:	06020402 	streq	r0, [r2], -r2, lsl #8
     f24:	00180549 	andseq	r0, r8, r9, asr #10
     f28:	06020402 	streq	r0, [r2], -r2, lsl #8
     f2c:	04020001 	streq	r0, [r2], #-1
     f30:	02052e02 	andeq	r2, r5, #2, 28
     f34:	05053006 	streq	r3, [r5, #-6]
     f38:	02050106 	andeq	r0, r5, #-2147483647	; 0x80000001
     f3c:	01054b06 	tsteq	r5, r6, lsl #22
     f40:	3e051306 	cdpcc	3, 0, cr1, cr5, cr6, {0}
     f44:	02053106 	andeq	r3, r5, #-2147483647	; 0x80000001
     f48:	060e0514 			; <UNDEFINED> instruction: 0x060e0514
     f4c:	2e060501 	cfsh32cs	mvfx0, mvfx6, #1
     f50:	2f060205 	svccs	0x00060205
     f54:	01060405 	tsteq	r6, r5, lsl #8
     f58:	2f060305 	svccs	0x00060305
     f5c:	01061105 	tsteq	r6, r5, lsl #2
     f60:	052e0905 	streq	r0, [lr, #-2309]!	; 0xfffff6fb
     f64:	15300602 	ldrne	r0, [r0, #-1538]!	; 0xfffff9fe
     f68:	01060705 	tsteq	r6, r5, lsl #14
     f6c:	052e0205 	streq	r0, [lr, #-517]!	; 0xfffffdfb
     f70:	0402000b 	streq	r0, [r2], #-11
     f74:	052e0601 	streq	r0, [lr, #-1537]!	; 0xfffff9ff
     f78:	04020002 	streq	r0, [r2], #-2
     f7c:	05010601 	streq	r0, [r1, #-1537]	; 0xfffff9ff
     f80:	04020003 	streq	r0, [r2], #-3
     f84:	052f0603 	streq	r0, [pc, #-1539]!	; 989 <__code_start__-0x7677>
     f88:	0402000c 	streq	r0, [r2], #-12
     f8c:	05010603 	streq	r0, [r1, #-1539]	; 0xfffff9fd
     f90:	0402000a 	streq	r0, [r2], #-10
     f94:	17052e03 	strne	r2, [r5, -r3, lsl #28]
     f98:	03040200 	movweq	r0, #16896	; 0x4200
     f9c:	02002d06 	andeq	r2, r0, #384	; 0x180
     fa0:	01060304 	tsteq	r6, r4, lsl #6
     fa4:	30060205 	andcc	r0, r6, r5, lsl #4
     fa8:	01060905 	tsteq	r6, r5, lsl #18
     fac:	0602052e 	streq	r0, [r2], -lr, lsr #10
     fb0:	06010530 			; <UNDEFINED> instruction: 0x06010530
     fb4:	061d0513 			; <UNDEFINED> instruction: 0x061d0513
     fb8:	2e01ad03 	cdpcs	13, 0, cr10, cr1, cr3, {0}
     fbc:	05130905 	ldreq	r0, [r3, #-2309]	; 0xfffff6fb
     fc0:	05130601 	ldreq	r0, [r3, #-1537]	; 0xfffff9ff
     fc4:	06680627 	strbteq	r0, [r8], -r7, lsr #12
     fc8:	06020501 	streq	r0, [r2], -r1, lsl #10
     fcc:	0604052f 	streq	r0, [r4], -pc, lsr #10
     fd0:	06090501 	streq	r0, [r9], -r1, lsl #10
     fd4:	0610056a 	ldreq	r0, [r0], -sl, ror #10
     fd8:	22054a01 	andcs	r4, r5, #4096	; 0x1000
     fdc:	d701052e 	strle	r0, [r1, -lr, lsr #10]
     fe0:	46060305 	strmi	r0, [r6], -r5, lsl #6
     fe4:	01060505 	tsteq	r6, r5, lsl #10
     fe8:	0627052e 	strteq	r0, [r7], -lr, lsr #10
     fec:	050106a3 	streq	r0, [r1, #-1699]	; 0xfffff95d
     ff0:	052f0609 	streq	r0, [pc, #-1545]!	; 9ef <__code_start__-0x7611>
     ff4:	05010610 	streq	r0, [r1, #-1552]	; 0xfffff9f0
     ff8:	49052f01 	stmdbmi	r5, {r0, r8, r9, sl, fp, sp}
     ffc:	7ec90306 	cdpvc	3, 12, cr0, cr9, cr6, {0}
    1000:	0501062e 	streq	r0, [r1, #-1582]	; 0xfffff9d2
    1004:	05a00602 	streq	r0, [r0, #1538]!	; 0x602
    1008:	05010604 	streq	r0, [r1, #-1540]	; 0xfffff9fc
    100c:	052f0603 	streq	r0, [pc, #-1539]!	; a11 <__code_start__-0x75ef>
    1010:	05010609 	streq	r0, [r1, #-1545]	; 0xfffff9f7
    1014:	13300602 	teqne	r0, #2097152	; 0x200000
    1018:	01060b05 	tsteq	r6, r5, lsl #22
    101c:	30060205 	andcc	r0, r6, r5, lsl #4
    1020:	04052e06 	streq	r2, [r5], #-3590	; 0xfffff1fa
    1024:	15240206 	strne	r0, [r4, #-518]!	; 0xfffffdfa
    1028:	060f0513 			; <UNDEFINED> instruction: 0x060f0513
    102c:	06052e01 	streq	r2, [r5], -r1, lsl #28
    1030:	0605054a 	streq	r0, [r5], -sl, asr #10
    1034:	0905134b 	stmdbeq	r5, {r0, r1, r3, r6, r8, r9, ip}
    1038:	05050106 	streq	r0, [r5, #-262]	; 0xfffffefa
    103c:	0b052f06 	bleq	14cc5c <__bss_end__+0x1430fc>
    1040:	0d051006 	stceq	0, cr1, [r5, #-24]	; 0xffffffe8
    1044:	01040200 	mrseq	r0, R12_usr
    1048:	0004052c 	andeq	r0, r4, ip, lsr #10
    104c:	06010402 	streq	r0, [r1], -r2, lsl #8
    1050:	00050534 	andeq	r0, r5, r4, lsr r5
    1054:	13010402 	movwne	r0, #5122	; 0x1402
    1058:	02001b05 	andeq	r1, r0, #5120	; 0x1400
    105c:	01060104 	tsteq	r6, r4, lsl #2
    1060:	02000705 	andeq	r0, r0, #1310720	; 0x140000
    1064:	05d60104 	ldrbeq	r0, [r6, #260]	; 0x104
    1068:	04020018 	streq	r0, [r2], #-24	; 0xffffffe8
    106c:	0a052e01 	beq	14c878 <__bss_end__+0x142d18>
    1070:	01040200 	mrseq	r0, R12_usr
    1074:	000b054a 	andeq	r0, fp, sl, asr #10
    1078:	06010402 	streq	r0, [r1], -r2, lsl #8
    107c:	000e052f 	andeq	r0, lr, pc, lsr #10
    1080:	06010402 	streq	r0, [r1], -r2, lsl #8
    1084:	0004052e 	andeq	r0, r4, lr, lsr #10
    1088:	2e010402 	cdpcs	4, 0, cr0, cr1, cr2, {0}
    108c:	06054b06 	streq	r4, [r5], -r6, lsl #22
    1090:	05050106 	streq	r0, [r5, #-262]	; 0xfffffefa
    1094:	0a052f06 	beq	14ccb4 <__bss_end__+0x143154>
    1098:	07050106 	streq	r0, [r5, -r6, lsl #2]
    109c:	0d052e4a 	stceq	14, cr2, [r5, #-296]	; 0xfffffed8
    10a0:	4a2e7603 	bmi	b9e8b4 <__bss_end__+0xb94d54>
    10a4:	050d0b05 	streq	r0, [sp, #-2821]	; 0xfffff4fb
    10a8:	0402000d 	streq	r0, [r2], #-13
    10ac:	14030601 	strne	r0, [r3], #-1537	; 0xfffff9ff
    10b0:	0011052e 	andseq	r0, r1, lr, lsr #10
    10b4:	13010402 	movwne	r0, #5122	; 0x1402
    10b8:	02002d05 	andeq	r2, r0, #320	; 0x140
    10bc:	01060104 	tsteq	r6, r4, lsl #2
    10c0:	02002a05 	andeq	r2, r0, #20480	; 0x5000
    10c4:	052e0104 	streq	r0, [lr, #-260]!	; 0xfffffefc
    10c8:	04020016 	streq	r0, [r2], #-22	; 0xffffffea
    10cc:	14054a01 	strne	r4, [r5], #-2561	; 0xfffff5ff
    10d0:	01040200 	mrseq	r0, R12_usr
    10d4:	0d054b06 	vstreq	d4, [r5, #-24]	; 0xffffffe8
    10d8:	01040200 	mrseq	r0, R12_usr
    10dc:	02000106 	andeq	r0, r0, #-2147483647	; 0x80000001
    10e0:	064a0104 	strbeq	r0, [sl], -r4, lsl #2
    10e4:	0612052f 	ldreq	r0, [r2], -pc, lsr #10
    10e8:	0d054a01 	vstreq	s8, [r5, #-4]
    10ec:	12052f06 	andne	r2, r5, #6, 30
    10f0:	19050106 	stmdbne	r5, {r1, r2, r8}
    10f4:	04054b06 	streq	r4, [r5], #-2822	; 0xfffff4fa
    10f8:	02040200 	andeq	r0, r4, #0, 4
    10fc:	00011103 	andeq	r1, r1, r3, lsl #2
    1100:	01020402 	tsteq	r2, r2, lsl #8
    1104:	02000205 	andeq	r0, r0, #1342177280	; 0x50000000
    1108:	05150204 	ldreq	r0, [r5, #-516]	; 0xfffffdfc
    110c:	04020009 	streq	r0, [r2], #-9
    1110:	00010602 	andeq	r0, r1, r2, lsl #12
    1114:	4a020402 	bmi	82124 <__bss_end__+0x785c4>
    1118:	02000105 	andeq	r0, r0, #1073741825	; 0x40000001
    111c:	059f0204 	ldreq	r0, [pc, #516]	; 1328 <__code_start__-0x6cd8>
    1120:	6e030604 	cfmadd32vs	mvax0, mvfx0, mvfx3, mvfx4
    1124:	0609054a 	streq	r0, [r9], -sl, asr #10
    1128:	06040501 	streq	r0, [r4], -r1, lsl #10
    112c:	0606052f 	streq	r0, [r6], -pc, lsr #10
    1130:	2f040511 	svccs	0x00040511
    1134:	63030b05 	movwvs	r0, #15109	; 0x3b05
    1138:	0019052e 	andseq	r0, r9, lr, lsr #10
    113c:	06010402 	streq	r0, [r1], -r2, lsl #8
    1140:	052e2403 	streq	r2, [lr, #-1027]!	; 0xfffffbfd
    1144:	0402001a 	streq	r0, [r2], #-26	; 0xffffffe6
    1148:	28051301 	stmdacs	r5, {r0, r8, r9, ip}
    114c:	01040200 	mrseq	r0, R12_usr
    1150:	25050106 	strcs	r0, [r5, #-262]	; 0xfffffefa
    1154:	01040200 	mrseq	r0, R12_usr
    1158:	001f052e 	andseq	r0, pc, lr, lsr #10
    115c:	4a010402 	bmi	4216c <__bss_end__+0x3860c>
    1160:	02000b05 	andeq	r0, r0, #5120	; 0x1400
    1164:	4b060104 	blmi	18157c <__bss_end__+0x177a1c>
    1168:	02000405 	andeq	r0, r0, #83886080	; 0x5000000
    116c:	01060104 	tsteq	r6, r4, lsl #2
    1170:	01040200 	mrseq	r0, R12_usr
    1174:	0402004a 	streq	r0, [r2], #-74	; 0xffffffb6
    1178:	004e0601 	subeq	r0, lr, r1, lsl #12
    117c:	01010402 	tsteq	r1, r2, lsl #8
    1180:	01040200 	mrseq	r0, R12_usr
    1184:	04020001 	streq	r0, [r2], #-1
    1188:	02000101 	andeq	r0, r0, #1073741824	; 0x40000000
    118c:	2e060104 	adfcss	f0, f6, f4
    1190:	01040200 	mrseq	r0, R12_usr
    1194:	04020066 	streq	r0, [r2], #-102	; 0xffffff9a
    1198:	02002e01 	andeq	r2, r0, #1, 28
    119c:	4a060104 	bmi	1815b4 <__bss_end__+0x177a54>
    11a0:	a6034805 	strge	r4, [r3], -r5, lsl #16
    11a4:	0520087f 	streq	r0, [r0, #-2175]!	; 0xfffff781
    11a8:	06011305 	streq	r1, [r1], -r5, lsl #6
    11ac:	0402002e 	streq	r0, [r2], #-46	; 0xffffffd2
    11b0:	002e0602 	eoreq	r0, lr, r2, lsl #12
    11b4:	01020402 	tsteq	r2, r2, lsl #8
    11b8:	02040200 	andeq	r0, r4, #0, 4
    11bc:	00110513 	andseq	r0, r1, r3, lsl r5
    11c0:	06020402 	streq	r0, [r2], -r2, lsl #8
    11c4:	00050501 	andeq	r0, r5, r1, lsl #10
    11c8:	06020402 	streq	r0, [r2], -r2, lsl #8
    11cc:	0007054b 	andeq	r0, r7, fp, asr #10
    11d0:	06020402 	streq	r0, [r2], -r2, lsl #8
    11d4:	06090501 	streq	r0, [r9], -r1, lsl #10
    11d8:	060e054b 	streq	r0, [lr], -fp, asr #10
    11dc:	00480501 	subeq	r0, r8, r1, lsl #10
    11e0:	62010402 	andvs	r0, r1, #33554432	; 0x2000000
    11e4:	02000505 	andeq	r0, r0, #20971520	; 0x1400000
    11e8:	4b060104 	blmi	181600 <__bss_end__+0x177aa0>
    11ec:	01040200 	mrseq	r0, R12_usr
    11f0:	04020001 	streq	r0, [r2], #-1
    11f4:	009e0601 	addseq	r0, lr, r1, lsl #12
    11f8:	2e010402 	cdpcs	4, 0, cr0, cr1, cr2, {0}
    11fc:	01040200 	mrseq	r0, R12_usr
    1200:	3a052e06 	bcc	14ca20 <__bss_end__+0x142ec0>
    1204:	d601e303 	strle	lr, [r1], -r3, lsl #6
    1208:	02050106 	andeq	r0, r5, #-2147483647	; 0x80000001
    120c:	0514bb06 	ldreq	fp, [r4, #-2822]	; 0xfffff4fa
    1210:	05010604 	streq	r0, [r1, #-1540]	; 0xfffff9fc
    1214:	02056408 	andeq	r6, r5, #8, 8	; 0x8000000
    1218:	05053406 	streq	r3, [r5, #-1030]	; 0xfffffbfa
    121c:	02050106 	andeq	r0, r5, #-2147483647	; 0x80000001
    1220:	12054c06 	andne	r4, r5, #1536	; 0x600
    1224:	054a0106 	strbeq	r0, [sl, #-262]	; 0xfffffefa
    1228:	052f0602 	streq	r0, [pc, #-1538]!	; c2e <__code_start__-0x73d2>
    122c:	4a010611 	bmi	42a78 <__bss_end__+0x38f18>
    1230:	30060205 	andcc	r0, r6, r5, lsl #4
    1234:	06ba0613 	ssateq	r0, #27, r3, lsl #12
    1238:	1368682f 	cmnne	r8, #3080192	; 0x2f0000
    123c:	010605f5 	strdeq	r0, [r6, -r5]
    1240:	01060a05 	tsteq	r6, r5, lsl #20
    1244:	2e2e0205 	cdpcs	2, 2, cr0, cr14, cr5, {0}
    1248:	03060305 	movweq	r0, #25349	; 0x6305
    124c:	0505016e 	streq	r0, [r5, #-366]	; 0xfffffe92
    1250:	08050106 	stmdaeq	r5, {r1, r2, r8}
    1254:	0603052e 	streq	r0, [r3], -lr, lsr #10
    1258:	0605054b 	streq	r0, [r5], -fp, asr #10
    125c:	1f052e01 	svcne	0x00052e01
    1260:	02040200 	andeq	r0, r4, #0, 4
    1264:	2e110306 	cdpcs	3, 1, cr0, cr1, cr6, {0}
    1268:	02002005 	andeq	r2, r0, #5, 0
    126c:	01060204 	tsteq	r6, r4, lsl #4
    1270:	02001105 	andeq	r1, r0, #1073741825	; 0x40000001
    1274:	2e060104 	adfcss	f0, f6, f4
    1278:	02000205 	andeq	r0, r0, #1342177280	; 0x50000000
    127c:	01060104 	tsteq	r6, r4, lsl #2
    1280:	4b060305 	blmi	181e9c <__bss_end__+0x17833c>
    1284:	01060905 	tsteq	r6, r5, lsl #18
    1288:	05660505 	strbeq	r0, [r6, #-1285]!	; 0xfffffafb
    128c:	052f0604 	streq	r0, [pc, #-1540]!	; c90 <__code_start__-0x7370>
    1290:	0501060b 	streq	r0, [r1, #-1547]	; 0xfffff9f5
    1294:	679f0602 	ldrvs	r0, [pc, r2, lsl #12]
    1298:	13060105 	movwne	r0, #24837	; 0x6105
    129c:	40052e66 	andmi	r2, r5, r6, ror #28
    12a0:	02050006 	andeq	r0, r5, #6, 0
    12a4:	00008ad0 	ldrdeq	r8, [r0], -r0
    12a8:	017ee303 	cmneq	lr, r3, lsl #6
    12ac:	02050106 	andeq	r0, r5, #-2147483647	; 0x80000001
    12b0:	1e059f06 	cdpne	15, 0, cr9, cr5, cr6, {0}
    12b4:	12050106 	andne	r0, r5, #-2147483647	; 0x80000001
    12b8:	0605052e 	streq	r0, [r5], -lr, lsr #10
    12bc:	1402052f 	strne	r0, [r2], #-1327	; 0xfffffad1
    12c0:	01060905 	tsteq	r6, r5, lsl #18
    12c4:	4b060505 	blmi	1826e0 <__bss_end__+0x178b80>
    12c8:	05130205 	ldreq	r0, [r3, #-517]	; 0xfffffdfb
    12cc:	050d0608 	streq	r0, [sp, #-1544]	; 0xfffff9f8
    12d0:	04053302 	streq	r3, [r5], #-770	; 0xfffffcfe
    12d4:	0f054c06 	svceq	0x00054c06
    12d8:	09050106 	stmdbeq	r5, {r1, r2, r8}
    12dc:	0608052e 	streq	r0, [r8], -lr, lsr #10
    12e0:	0602052c 	streq	r0, [r2], -ip, lsr #10
    12e4:	000d052e 	andeq	r0, sp, lr, lsr #10
    12e8:	4a010402 	bmi	422f8 <__bss_end__+0x38798>
    12ec:	4b060305 	blmi	181f08 <__bss_end__+0x1783a8>
    12f0:	01060505 	tsteq	r6, r5, lsl #10
    12f4:	4d060805 	stcmi	8, cr0, [r6, #-20]	; 0xffffffec
    12f8:	01060e05 	tsteq	r6, r5, lsl #28
    12fc:	052e0a05 	streq	r0, [lr, #-2565]!	; 0xfffff5fb
    1300:	052f0604 	streq	r0, [pc, #-1540]!	; d04 <__code_start__-0x72fc>
    1304:	05010609 	streq	r0, [r1, #-1545]	; 0xfffff9f7
    1308:	052f0604 	streq	r0, [pc, #-1540]!	; d0c <__code_start__-0x72f4>
    130c:	2e010607 	cfmadd32cs	mvax0, mvfx0, mvfx1, mvfx7
    1310:	30060405 	andcc	r0, r6, r5, lsl #8
    1314:	01060705 	tsteq	r6, r5, lsl #14
    1318:	30060405 	andcc	r0, r6, r5, lsl #8
    131c:	0d051413 	cfstrseq	mvf1, [r5, #-76]	; 0xffffffb4
    1320:	09051006 	stmdbeq	r5, {r1, r2, ip}
    1324:	12053006 	andne	r3, r5, #6, 0
    1328:	0a050106 	beq	141748 <__bss_end__+0x137be8>
    132c:	6609052e 	strvs	r0, [r9], -lr, lsr #10
    1330:	4b060505 	blmi	18274c <__bss_end__+0x178bec>
    1334:	01061205 	tsteq	r6, r5, lsl #4
    1338:	052e1605 	streq	r1, [lr, #-1541]!	; 0xfffff9fb
    133c:	05052e0b 	streq	r2, [r5, #-3595]	; 0xfffff1f5
    1340:	08052f06 	stmdaeq	r5, {r1, r2, r8, r9, sl, fp, sp}
    1344:	052e0106 	streq	r0, [lr, #-262]!	; 0xfffffefa
    1348:	01300604 	teqeq	r0, r4, lsl #12
    134c:	0015014a 	andseq	r0, r5, sl, asr #2
    1350:	02010402 	andeq	r0, r1, #33554432	; 0x2000000
    1354:	02000f36 	andeq	r0, r0, #216	; 0xd8
    1358:	00010104 	andeq	r0, r1, r4, lsl #2
    135c:	d6010402 	strle	r0, [r1], -r2, lsl #8
    1360:	13341105 	teqne	r4, #1073741825	; 0x40000001
    1364:	04020001 	streq	r0, [r2], #-1
    1368:	00ba0602 	adcseq	r0, sl, r2, lsl #12
    136c:	06030402 	streq	r0, [r3], -r2, lsl #8
    1370:	040200ba 	streq	r0, [r2], #-186	; 0xffffff46
    1374:	02000103 	andeq	r0, r0, #-1073741824	; 0xc0000000
    1378:	05140304 	ldreq	r0, [r4, #-772]	; 0xfffffcfc
    137c:	04020015 	streq	r0, [r2], #-21	; 0xffffffeb
    1380:	05010603 	streq	r0, [r1, #-1539]	; 0xfffff9fd
    1384:	04020011 	streq	r0, [r2], #-17	; 0xffffffef
    1388:	052f0603 	streq	r0, [pc, #-1539]!	; d8d <__code_start__-0x7273>
    138c:	0402001a 	streq	r0, [r2], #-26	; 0xffffffe6
    1390:	05010603 	streq	r0, [r1, #-1539]	; 0xfffff9fd
    1394:	04020011 	streq	r0, [r2], #-17	; 0xffffffef
    1398:	00d70603 	sbcseq	r0, r7, r3, lsl #12
    139c:	13030402 	movwne	r0, #13314	; 0x3402
    13a0:	03040200 	movweq	r0, #16896	; 0x4200
    13a4:	04020014 	streq	r0, [r2], #-20	; 0xffffffec
    13a8:	02006703 	andeq	r6, r0, #786432	; 0xc0000
    13ac:	05680304 	strbeq	r0, [r8, #-772]!	; 0xfffffcfc
    13b0:	04020014 	streq	r0, [r2], #-20	; 0xffffffec
    13b4:	05010603 	streq	r0, [r1, #-1539]	; 0xfffff9fd
    13b8:	04020013 	streq	r0, [r2], #-19	; 0xffffffed
    13bc:	18058203 	stmdane	r5, {r0, r1, r9, pc}
    13c0:	1b054e06 	blne	154be0 <__bss_end__+0x14b080>
    13c4:	1a050106 	bne	1417e4 <__bss_end__+0x137c84>
    13c8:	06090582 	streq	r0, [r9], -r2, lsl #11
    13cc:	060d054b 	streq	r0, [sp], -fp, asr #10
    13d0:	09052e01 	stmdbeq	r5, {r0, r9, sl, fp, sp}
    13d4:	ba06f306 	blt	1bdff4 <__bss_end__+0x1b4494>
    13d8:	30061505 	andcc	r1, r6, r5, lsl #10
    13dc:	01061805 	tsteq	r6, r5, lsl #16
    13e0:	05661705 	strbeq	r1, [r6, #-1797]!	; 0xfffff8fb
    13e4:	054b0619 	strbeq	r0, [fp, #-1561]	; 0xfffff9e7
    13e8:	6f030615 	svcvs	0x00030615
    13ec:	06110566 	ldreq	r0, [r1], -r6, ror #10
    13f0:	05d60148 	ldrbeq	r0, [r6, #328]	; 0x148
    13f4:	2e0b0309 	cdpcs	3, 0, cr0, cr11, cr9, {0}
    13f8:	01060d05 	tsteq	r6, r5, lsl #26
    13fc:	0609052e 	streq	r0, [r9], -lr, lsr #10
    1400:	05ba06f3 	ldreq	r0, [sl, #1779]!	; 0x6f3
    1404:	062f0615 			; <UNDEFINED> instruction: 0x062f0615
    1408:	05667503 	strbeq	r7, [r6, #-1283]!	; 0xfffffafd
    140c:	13030619 	movwne	r0, #13849	; 0x3619
    1410:	0615054a 	ldreq	r0, [r5], -sl, asr #10
    1414:	06666d03 	strbteq	r6, [r6], -r3, lsl #26
    1418:	014a1503 	cmpeq	sl, r3, lsl #10
    141c:	052e06ba 	streq	r0, [lr, #-1722]!	; 0xfffff946
    1420:	0f030605 	svceq	0x00030605
    1424:	060c0501 	streq	r0, [ip], -r1, lsl #10
    1428:	06050501 	streq	r0, [r5], -r1, lsl #10
    142c:	0609059f 			; <UNDEFINED> instruction: 0x0609059f
    1430:	06050501 	streq	r0, [r5], -r1, lsl #10
    1434:	050106a0 	streq	r0, [r1, #-1696]	; 0xfffff960
    1438:	1d030604 	stcne	6, cr0, [r3, #-16]
    143c:	06070501 	streq	r0, [r7], -r1, lsl #10
    1440:	06040501 	streq	r0, [r4], -r1, lsl #10
    1444:	03050531 	movweq	r0, #21809	; 0x5531
    1448:	09052e64 	stmdbeq	r5, {r2, r5, r6, r9, sl, fp, sp}
    144c:	05050106 	streq	r0, [r5, #-262]	; 0xfffffefa
    1450:	30750806 	rsbscc	r0, r5, r6, lsl #16
    1454:	01061c05 	tsteq	r6, r5, lsl #24
    1458:	05820905 	streq	r0, [r2, #2309]	; 0x905
    145c:	31f30605 	mvnscc	r0, r5, lsl #12
    1460:	01061c05 	tsteq	r6, r5, lsl #24
    1464:	05820905 	streq	r0, [r2, #2309]	; 0x905
    1468:	30f30605 	rscscc	r0, r3, r5, lsl #12
    146c:	01061b05 	tsteq	r6, r5, lsl #22
    1470:	05820905 	streq	r0, [r2, #2309]	; 0x905
    1474:	30f30605 	rscscc	r0, r3, r5, lsl #12
    1478:	01060705 	tsteq	r6, r5, lsl #14
    147c:	83060505 	movwhi	r0, #25861	; 0x6505
    1480:	06090530 			; <UNDEFINED> instruction: 0x06090530
    1484:	06050501 	streq	r0, [r5], -r1, lsl #10
    1488:	11057508 	tstne	r5, r8, lsl #10
    148c:	06220530 			; <UNDEFINED> instruction: 0x06220530
    1490:	06050501 	streq	r0, [r5], -r1, lsl #10
    1494:	8311054b 	tsthi	r1, #314572800	; 0x12c00000
    1498:	01830505 	orreq	r0, r3, r5, lsl #10
    149c:	0e05359e 	mcreq	5, 0, r3, cr5, cr14, {4}
    14a0:	0a050106 	beq	1418c0 <__bss_end__+0x137d60>
    14a4:	052d062e 	streq	r0, [sp, #-1582]!	; 0xfffff9d2
    14a8:	05010604 	streq	r0, [r1, #-1540]	; 0xfffff9fc
    14ac:	04020013 	streq	r0, [r2], #-19	; 0xffffffed
    14b0:	10054a01 	andne	r4, r5, r1, lsl #20
    14b4:	01040200 	mrseq	r0, R12_usr
    14b8:	0402002e 	streq	r0, [r2], #-46	; 0xffffffd2
    14bc:	02056601 	andeq	r6, r5, #1048576	; 0x100000
    14c0:	07051606 	streq	r1, [r5, -r6, lsl #12]
    14c4:	02050106 	andeq	r0, r5, #-2147483647	; 0x80000001
    14c8:	01054b06 	tsteq	r5, r6, lsl #22
    14cc:	02661306 	rsbeq	r1, r6, #402653184	; 0x18000000
    14d0:	0101001c 	tsteq	r1, ip, lsl r0
    14d4:	000000a5 	andeq	r0, r0, r5, lsr #1
    14d8:	008a0003 	addeq	r0, sl, r3
    14dc:	01020000 	mrseq	r0, (UNDEF: 2)
    14e0:	000d0efb 	strdeq	r0, [sp], -fp
    14e4:	01010101 	tsteq	r1, r1, lsl #2
    14e8:	01000000 	mrseq	r0, (UNDEF: 0)
    14ec:	2e010000 	cdpcs	0, 0, cr0, cr1, cr0, {0}
    14f0:	6174732f 	cmnvs	r4, pc, lsr #6
    14f4:	732d6666 			; <UNDEFINED> instruction: 0x732d6666
    14f8:	2f006372 	svccs	0x00006372
    14fc:	72657355 	rsbvc	r7, r5, #1409286145	; 0x54000001
    1500:	72742f73 	rsbsvc	r2, r4, #460	; 0x1cc
    1504:	65747369 	ldrbvs	r7, [r4, #-873]!	; 0xfffffc97
    1508:	6c6f6e6e 	stclvs	14, cr6, [pc], #-440	; 1358 <__code_start__-0x6ca8>
    150c:	6e616d6c 	cdpvs	13, 6, cr6, cr1, cr12, {3}
    1510:	636f442f 	cmnvs	pc, #788529152	; 0x2f000000
    1514:	6e656d75 	mcrvs	13, 3, r6, cr5, cr5, {3}
    1518:	532f7374 			; <UNDEFINED> instruction: 0x532f7374
    151c:	6e697270 	mcrvs	2, 3, r7, cr9, cr0, {3}
    1520:	75515f67 	ldrbvc	r5, [r1, #-3943]	; 0xfffff099
    1524:	65747261 	ldrbvs	r7, [r4, #-609]!	; 0xfffffd9f
    1528:	30325f72 	eorscc	r5, r2, r2, ror pc
    152c:	432f3232 			; <UNDEFINED> instruction: 0x432f3232
    1530:	30343253 	eorscc	r3, r4, r3, asr r2
    1534:	732d584c 			; <UNDEFINED> instruction: 0x732d584c
    1538:	32327270 	eorscc	r7, r2, #112, 4
    153c:	62696c2f 	rsbvs	r6, r9, #12032	; 0x2f00
    1540:	692f6970 	stmdbvs	pc!, {r4, r5, r6, r8, fp, sp, lr}	; <UNPREDICTABLE>
    1544:	756c636e 	strbvc	r6, [ip, #-878]!	; 0xfffffc92
    1548:	00006564 	andeq	r6, r0, r4, ror #10
    154c:	61656c63 	cmnvs	r5, r3, ror #24
    1550:	65722d6e 	ldrbvs	r2, [r2, #-3438]!	; 0xfffff292
    1554:	746f6f62 	strbtvc	r6, [pc], #-3938	; 155c <__code_start__-0x6aa4>
    1558:	0100632e 	tsteq	r0, lr, lsr #6
    155c:	70720000 	rsbsvc	r0, r2, r0
    1560:	00682e69 	rsbeq	r2, r8, r9, ror #28
    1564:	00000002 	andeq	r0, r0, r2
    1568:	05001905 	streq	r1, [r0, #-2309]	; 0xfffff6fb
    156c:	008f9802 	addeq	r9, pc, r2, lsl #16
    1570:	05051500 	streq	r1, [r5, #-1280]	; 0xfffffb00
    1574:	4b2f832f 	blmi	be2238 <__bss_end__+0xbd86d8>
    1578:	01000602 	tsteq	r0, r2, lsl #12
    157c:	0000bf01 	andeq	fp, r0, r1, lsl #30
    1580:	84000300 	strhi	r0, [r0], #-768	; 0xfffffd00
    1584:	02000000 	andeq	r0, r0, #0, 0
    1588:	0d0efb01 	vstreq	d15, [lr, #-4]
    158c:	01010100 	mrseq	r0, (UNDEF: 17)
    1590:	00000001 	andeq	r0, r0, r1
    1594:	01000001 	tsteq	r0, r1
    1598:	74732f2e 	ldrbtvc	r2, [r3], #-3886	; 0xfffff0d2
    159c:	2d666661 	stclcs	6, cr6, [r6, #-388]!	; 0xfffffe7c
    15a0:	00637273 	rsbeq	r7, r3, r3, ror r2
    15a4:	6573552f 	ldrbvs	r5, [r3, #-1327]!	; 0xfffffad1
    15a8:	742f7372 	strtvc	r7, [pc], #-882	; 15b0 <__code_start__-0x6a50>
    15ac:	74736972 	ldrbtvc	r6, [r3], #-2418	; 0xfffff68e
    15b0:	6f6e6e65 	svcvs	0x006e6e65
    15b4:	616d6c6c 	cmnvs	sp, ip, ror #24
    15b8:	6f442f6e 	svcvs	0x00442f6e
    15bc:	656d7563 	strbvs	r7, [sp, #-1379]!	; 0xfffffa9d
    15c0:	2f73746e 	svccs	0x0073746e
    15c4:	69727053 	ldmdbvs	r2!, {r0, r1, r4, r6, ip, sp, lr}^
    15c8:	515f676e 	cmppl	pc, lr, ror #14
    15cc:	74726175 	ldrbtvc	r6, [r2], #-373	; 0xfffffe8b
    15d0:	325f7265 	subscc	r7, pc, #1342177286	; 0x50000006
    15d4:	2f323230 	svccs	0x00323230
    15d8:	34325343 	ldrtcc	r5, [r2], #-835	; 0xfffffcbd
    15dc:	2d584c30 	ldclcs	12, cr4, [r8, #-192]	; 0xffffff40
    15e0:	32727073 	rsbscc	r7, r2, #115, 0	; 0x73
    15e4:	696c2f32 	stmdbvs	ip!, {r1, r4, r5, r8, r9, sl, fp, sp}^
    15e8:	2f697062 	svccs	0x00697062
    15ec:	6c636e69 	stclvs	14, cr6, [r3], #-420	; 0xfffffe5c
    15f0:	00656475 	rsbeq	r6, r5, r5, ror r4
    15f4:	74736300 	ldrbtvc	r6, [r3], #-768	; 0xfffffd00
    15f8:	2e747261 	cdpcs	2, 7, cr7, cr4, cr1, {3}
    15fc:	00010063 	andeq	r0, r1, r3, rrx
    1600:	69707200 	ldmdbvs	r0!, {r9, ip, sp, lr}^
    1604:	0200682e 	andeq	r6, r0, #3014656	; 0x2e0000
    1608:	05000000 	streq	r0, [r0, #-0]
    160c:	02050010 	andeq	r0, r5, #16, 0
    1610:	00008fc4 	andeq	r8, r0, r4, asr #31
    1614:	2f050515 	svccs	0x00050515
    1618:	05130205 	ldreq	r0, [r3, #-517]	; 0xfffffdfb
    161c:	13301405 	teqne	r0, #83886080	; 0x5000000
    1620:	060a0514 			; <UNDEFINED> instruction: 0x060a0514
    1624:	0531060f 	ldreq	r0, [r1, #-1551]!	; 0xfffff9f1
    1628:	10054b09 	andne	r4, r5, r9, lsl #22
    162c:	054a0106 	strbeq	r0, [sl, #-262]	; 0xfffffefa
    1630:	32300605 	eorscc	r0, r0, #5242880	; 0x500000
    1634:	144a0101 	strbne	r0, [sl], #-257	; 0xfffffeff
    1638:	022f0205 	eoreq	r0, pc, #1342177280	; 0x50000000
    163c:	01010006 	tsteq	r1, r6
    1640:	000000a3 	andeq	r0, r0, r3, lsr #1
    1644:	008b0003 	addeq	r0, fp, r3
    1648:	01020000 	mrseq	r0, (UNDEF: 2)
    164c:	000d0efb 	strdeq	r0, [sp], -fp
    1650:	01010101 	tsteq	r1, r1, lsl #2
    1654:	01000000 	mrseq	r0, (UNDEF: 0)
    1658:	2e010000 	cdpcs	0, 0, cr0, cr1, cr0, {0}
    165c:	6174732f 	cmnvs	r4, pc, lsr #6
    1660:	732d6666 			; <UNDEFINED> instruction: 0x732d6666
    1664:	2f006372 	svccs	0x00006372
    1668:	72657355 	rsbvc	r7, r5, #1409286145	; 0x54000001
    166c:	72742f73 	rsbsvc	r2, r4, #460	; 0x1cc
    1670:	65747369 	ldrbvs	r7, [r4, #-873]!	; 0xfffffc97
    1674:	6c6f6e6e 	stclvs	14, cr6, [pc], #-440	; 14c4 <__code_start__-0x6b3c>
    1678:	6e616d6c 	cdpvs	13, 6, cr6, cr1, cr12, {3}
    167c:	636f442f 	cmnvs	pc, #788529152	; 0x2f000000
    1680:	6e656d75 	mcrvs	13, 3, r6, cr5, cr5, {3}
    1684:	532f7374 			; <UNDEFINED> instruction: 0x532f7374
    1688:	6e697270 	mcrvs	2, 3, r7, cr9, cr0, {3}
    168c:	75515f67 	ldrbvc	r5, [r1, #-3943]	; 0xfffff099
    1690:	65747261 	ldrbvs	r7, [r4, #-609]!	; 0xfffffd9f
    1694:	30325f72 	eorscc	r5, r2, r2, ror pc
    1698:	432f3232 			; <UNDEFINED> instruction: 0x432f3232
    169c:	30343253 	eorscc	r3, r4, r3, asr r2
    16a0:	732d584c 			; <UNDEFINED> instruction: 0x732d584c
    16a4:	32327270 	eorscc	r7, r2, #112, 4
    16a8:	62696c2f 	rsbvs	r6, r9, #12032	; 0x2f00
    16ac:	692f6970 	stmdbvs	pc!, {r4, r5, r6, r8, fp, sp, lr}	; <UNPREDICTABLE>
    16b0:	756c636e 	strbvc	r6, [ip, #-878]!	; 0xfffffc92
    16b4:	00006564 	andeq	r6, r0, r4, ror #10
    16b8:	74737563 	ldrbtvc	r7, [r3], #-1379	; 0xfffffa9d
    16bc:	6c2d6d6f 	stcvs	13, cr6, [sp], #-444	; 0xfffffe44
    16c0:	6564616f 	strbvs	r6, [r4, #-367]!	; 0xfffffe91
    16c4:	00632e72 	rsbeq	r2, r3, r2, ror lr
    16c8:	72000001 	andvc	r0, r0, #1, 0
    16cc:	682e6970 	stmdavs	lr!, {r4, r5, r6, r8, fp, sp, lr}
    16d0:	00000200 	andeq	r0, r0, r0, lsl #4
    16d4:	001a0500 	andseq	r0, sl, r0, lsl #10
    16d8:	90000205 	andls	r0, r0, r5, lsl #4
    16dc:	05150000 	ldreq	r0, [r5, #-0]
    16e0:	02021401 	andeq	r1, r2, #16777216	; 0x1000000
    16e4:	f3010100 	vrhadd.u8	d0, d1, d0
    16e8:	03000000 	movweq	r0, #0
    16ec:	00008400 	andeq	r8, r0, r0, lsl #8
    16f0:	fb010200 	blx	41efa <__bss_end__+0x3839a>
    16f4:	01000d0e 	tsteq	r0, lr, lsl #26
    16f8:	00010101 	andeq	r0, r1, r1, lsl #2
    16fc:	00010000 	andeq	r0, r1, r0
    1700:	2f2e0100 	svccs	0x002e0100
    1704:	66617473 			; <UNDEFINED> instruction: 0x66617473
    1708:	72732d66 	rsbsvc	r2, r3, #6528	; 0x1980
    170c:	552f0063 	strpl	r0, [pc, #-99]!	; 16b1 <__code_start__-0x694f>
    1710:	73726573 	cmnvc	r2, #482344960	; 0x1cc00000
    1714:	6972742f 	ldmdbvs	r2!, {r0, r1, r2, r3, r5, sl, ip, sp, lr}^
    1718:	6e657473 	mcrvs	4, 3, r7, cr5, cr3, {3}
    171c:	6c6c6f6e 	stclvs	15, cr6, [ip], #-440	; 0xfffffe48
    1720:	2f6e616d 	svccs	0x006e616d
    1724:	75636f44 	strbvc	r6, [r3, #-3908]!	; 0xfffff0bc
    1728:	746e656d 	strbtvc	r6, [lr], #-1389	; 0xfffffa93
    172c:	70532f73 	subsvc	r2, r3, r3, ror pc
    1730:	676e6972 			; <UNDEFINED> instruction: 0x676e6972
    1734:	6175515f 	cmnvs	r5, pc, asr r1
    1738:	72657472 	rsbvc	r7, r5, #1912602624	; 0x72000000
    173c:	3230325f 	eorscc	r3, r0, #-268435451	; 0xf0000005
    1740:	53432f32 	movtpl	r2, #16178	; 0x3f32
    1744:	4c303432 	cfldrsmi	mvf3, [r0], #-200	; 0xffffff38
    1748:	70732d58 	rsbsvc	r2, r3, r8, asr sp
    174c:	2f323272 	svccs	0x00323272
    1750:	7062696c 	rsbvc	r6, r2, ip, ror #18
    1754:	6e692f69 	cdpvs	15, 6, cr2, cr9, cr9, {3}
    1758:	64756c63 	ldrbtvs	r6, [r5], #-3171	; 0xfffff39d
    175c:	72000065 	andvc	r0, r0, #101, 0	; 0x65
    1760:	6f6f6265 	svcvs	0x006f6265
    1764:	00632e74 	rsbeq	r2, r3, r4, ror lr
    1768:	72000001 	andvc	r0, r0, #1, 0
    176c:	682e6970 	stmdavs	lr!, {r4, r5, r6, r8, fp, sp, lr}
    1770:	00000200 	andeq	r0, r0, r0, lsl #4
    1774:	00190500 	andseq	r0, r9, r0, lsl #10
    1778:	901c0205 	andsls	r0, ip, r5, lsl #4
    177c:	0d030000 	stceq	0, cr0, [r3, #-0]
    1780:	13050501 	movwne	r0, #21761	; 0x5501
    1784:	13053113 	movwne	r3, #20755	; 0x5113
    1788:	01050106 	tsteq	r5, r6, lsl #2
    178c:	061b052f 	ldreq	r0, [fp], -pc, lsr #10
    1790:	13050585 	movwne	r0, #21893	; 0x5585
    1794:	2f090514 	svccs	0x00090514
    1798:	01061605 	tsteq	r6, r5, lsl #12
    179c:	052e0e05 	streq	r0, [lr, #-3589]!	; 0xfffff1fb
    17a0:	052f0605 	streq	r0, [pc, #-1541]!	; 11a3 <__code_start__-0x6e5d>
    17a4:	052f0601 	streq	r0, [pc, #-1537]!	; 11ab <__code_start__-0x6e55>
    17a8:	05300617 	ldreq	r0, [r0, #-1559]!	; 0xfffff9e9
    17ac:	08052f05 	stmdaeq	r5, {r0, r2, r8, r9, sl, fp, sp}
    17b0:	07050106 	streq	r0, [r5, -r6, lsl #2]
    17b4:	0605052e 	streq	r0, [r5], -lr, lsr #10
    17b8:	4d2f3050 	stcmi	0, cr3, [pc, #-320]!	; 1680 <__code_start__-0x6980>
    17bc:	15131313 	ldrne	r1, [r3, #-787]	; 0xfffffced
    17c0:	04020067 	streq	r0, [r2], #-103	; 0xffffff99
    17c4:	0d056701 	stceq	7, cr6, [r5, #-4]
    17c8:	01040200 	mrseq	r0, R12_usr
    17cc:	000a0501 	andeq	r0, sl, r1, lsl #10
    17d0:	01010402 	tsteq	r1, r2, lsl #8
    17d4:	6d030905 	vstrvs.16	s0, [r3, #-10]	; <UNPREDICTABLE>
    17d8:	000c022e 	andeq	r0, ip, lr, lsr #4
    17dc:	00fa0101 	rscseq	r0, sl, r1, lsl #2
    17e0:	00030000 	andeq	r0, r3, r0
    17e4:	00000083 	andeq	r0, r0, r3, lsl #1
    17e8:	0efb0102 	cdpeq	1, 15, cr0, cr11, cr2, {0}
    17ec:	0101000d 	tsteq	r1, sp
    17f0:	00000101 	andeq	r0, r0, r1, lsl #2
    17f4:	00000100 	andeq	r0, r0, r0, lsl #2
    17f8:	732f2e01 			; <UNDEFINED> instruction: 0x732f2e01
    17fc:	66666174 			; <UNDEFINED> instruction: 0x66666174
    1800:	6372732d 	cmnvs	r2, #-1275068416	; 0xb4000000
    1804:	73552f00 	cmpvc	r5, #0, 30
    1808:	2f737265 	svccs	0x00737265
    180c:	73697274 	cmnvc	r9, #116, 4	; 0x40000007
    1810:	6e6e6574 	mcrvs	5, 3, r6, cr14, cr4, {3}
    1814:	6d6c6c6f 	stclvs	12, cr6, [ip, #-444]!	; 0xfffffe44
    1818:	442f6e61 	strtmi	r6, [pc], #-3681	; 1820 <__code_start__-0x67e0>
    181c:	6d75636f 	ldclvs	3, cr6, [r5, #-444]!	; 0xfffffe44
    1820:	73746e65 	cmnvc	r4, #1616	; 0x650
    1824:	7270532f 	rsbsvc	r5, r0, #-1140850688	; 0xbc000000
    1828:	5f676e69 	svcpl	0x00676e69
    182c:	72617551 	rsbvc	r7, r1, #339738624	; 0x14400000
    1830:	5f726574 	svcpl	0x00726574
    1834:	32323032 	eorscc	r3, r2, #50, 0	; 0x32
    1838:	3253432f 	subscc	r4, r3, #-1140850688	; 0xbc000000
    183c:	584c3034 	stmdapl	ip, {r2, r4, r5, ip, sp}^
    1840:	7270732d 	rsbsvc	r7, r0, #-1275068416	; 0xb4000000
    1844:	6c2f3232 	sfmvs	f3, 4, [pc], #-200	; 1784 <__code_start__-0x687c>
    1848:	69706269 	ldmdbvs	r0!, {r0, r3, r5, r6, r9, sp, lr}^
    184c:	636e692f 	cmnvs	lr, #770048	; 0xbc000
    1850:	6564756c 	strbvs	r7, [r4, #-1388]!	; 0xfffffa94
    1854:	69740000 	ldmdbvs	r4!, {}^	; <UNPREDICTABLE>
    1858:	2e72656d 	cdpcs	5, 7, cr6, cr2, cr13, {3}
    185c:	00010063 	andeq	r0, r1, r3, rrx
    1860:	69707200 	ldmdbvs	r0!, {r9, ip, sp, lr}^
    1864:	0200682e 	andeq	r6, r0, #3014656	; 0x2e0000
    1868:	05000000 	streq	r0, [r0, #-0]
    186c:	02050023 	andeq	r0, r5, #35, 0	; 0x23
    1870:	0000909c 	muleq	r0, ip, r0
    1874:	2f050515 	svccs	0x00050515
    1878:	01060c05 	tsteq	r6, r5, lsl #24
    187c:	054b0105 	strbeq	r0, [fp, #-261]	; 0xfffffefb
    1880:	054d061f 	strbeq	r0, [sp, #-1567]	; 0xfffff9e1
    1884:	052f3105 	streq	r3, [pc, #-261]!	; 1787 <__code_start__-0x6879>
    1888:	05010612 	streq	r0, [r1, #-1554]	; 0xfffff9ee
    188c:	2f4b0605 	svccs	0x004b0605
    1890:	13060105 	movwne	r0, #24837	; 0x6105
    1894:	4c061c05 	stcmi	12, cr1, [r6], {5}
    1898:	05050106 	streq	r0, [r5, #-262]	; 0xfffffefa
    189c:	13054b06 	movwne	r4, #23302	; 0x5b06
    18a0:	052e0106 	streq	r0, [lr, #-262]!	; 0xfffffefa
    18a4:	052f0605 	streq	r0, [pc, #-1541]!	; 12a7 <__code_start__-0x6d59>
    18a8:	17051309 	strne	r1, [r5, -r9, lsl #6]
    18ac:	09050106 	stmdbeq	r5, {r1, r2, r8}
    18b0:	11052f06 	tstne	r5, r6, lsl #30
    18b4:	0c050106 	stfeqs	f0, [r5], {6}
    18b8:	061c052e 	ldreq	r0, [ip], -lr, lsr #10
    18bc:	0501066b 	streq	r0, [r1, #-1643]	; 0xfffff995
    18c0:	062f0605 	strteq	r0, [pc], -r5, lsl #12
    18c4:	4b01054a 	blmi	42df4 <__bss_end__+0x39294>
    18c8:	2f061e05 	svccs	0x00061e05
    18cc:	05050106 	streq	r0, [r5, #-262]	; 0xfffffefa
    18d0:	4a062f06 	bmi	18d4f0 <__bss_end__+0x183990>
    18d4:	024b0105 	subeq	r0, fp, #1073741825	; 0x40000001
    18d8:	01010002 	tsteq	r1, r2
    18dc:	00000205 	andeq	r0, r0, r5, lsl #4
    18e0:	00c90003 	sbceq	r0, r9, r3
    18e4:	01020000 	mrseq	r0, (UNDEF: 2)
    18e8:	000d0efb 	strdeq	r0, [sp], -fp
    18ec:	01010101 	tsteq	r1, r1, lsl #2
    18f0:	01000000 	mrseq	r0, (UNDEF: 0)
    18f4:	2f010000 	svccs	0x00010000
    18f8:	656d6f68 	strbvs	r6, [sp, #-3944]!	; 0xfffff098
    18fc:	676e652f 	strbvs	r6, [lr, -pc, lsr #10]!
    1900:	2f72656c 	svccs	0x0072656c
    1904:	73616c63 	cmnvc	r1, #25344	; 0x6300
    1908:	73632f73 	cmnvc	r3, #460	; 0x1cc
    190c:	6c303432 	cfldrsvs	mvf3, [r0], #-200	; 0xffffff38
    1910:	32322d78 	eorscc	r2, r2, #120, 26	; 0x1e00
    1914:	2f727073 	svccs	0x00727073
    1918:	62696c2f 	rsbvs	r6, r9, #12032	; 0x2f00
    191c:	692f6970 	stmdbvs	pc!, {r4, r5, r6, r8, fp, sp, lr}	; <UNPREDICTABLE>
    1920:	756c636e 	strbvc	r6, [ip, #-878]!	; 0xfffffc92
    1924:	2f006564 	svccs	0x00006564
    1928:	2f727375 	svccs	0x00727375
    192c:	72616873 	rsbvc	r6, r1, #7536640	; 0x730000
    1930:	63672f65 	cmnvs	r7, #404	; 0x194
    1934:	72612d63 	rsbvc	r2, r1, #6336	; 0x18c0
    1938:	6f6e2d6d 	svcvs	0x006e2d6d
    193c:	652d656e 	strvs	r6, [sp, #-1390]!	; 0xfffffa92
    1940:	2d696261 	sfmcs	f6, 2, [r9, #-388]!	; 0xfffffe7c
    1944:	332e3031 			; <UNDEFINED> instruction: 0x332e3031
    1948:	3230322d 	eorscc	r3, r0, #-805306366	; 0xd0000002
    194c:	30312e31 	eorscc	r2, r1, r1, lsr lr
    1950:	62696c2f 	rsbvs	r6, r9, #12032	; 0x2f00
    1954:	6363672f 	cmnvs	r3, #12320768	; 0xbc0000
    1958:	6d72612f 	ldfvse	f6, [r2, #-188]!	; 0xffffff44
    195c:	6e6f6e2d 	cdpvs	14, 6, cr6, cr15, cr13, {1}
    1960:	61652d65 	cmnvs	r5, r5, ror #26
    1964:	312f6962 			; <UNDEFINED> instruction: 0x312f6962
    1968:	2e332e30 	mrccs	14, 1, r2, cr3, cr0, {1}
    196c:	6e692f31 	mcrvs	15, 3, r2, cr9, cr1, {1}
    1970:	64756c63 	ldrbtvs	r6, [r5], #-3171	; 0xfffff39d
    1974:	75000065 	strvc	r0, [r0, #-101]	; 0xffffff9b
    1978:	2e747261 	cdpcs	2, 7, cr7, cr4, cr1, {3}
    197c:	00000063 	andeq	r0, r0, r3, rrx
    1980:	72617500 	rsbvc	r7, r1, #0, 10
    1984:	00682e74 	rsbeq	r2, r8, r4, ror lr
    1988:	72000001 	andvc	r0, r0, #1, 0
    198c:	682e6970 	stmdavs	lr!, {r4, r5, r6, r8, fp, sp, lr}
    1990:	00000100 	andeq	r0, r0, r0, lsl #2
    1994:	6f697067 	svcvs	0x00697067
    1998:	0100682e 	tsteq	r0, lr, lsr #16
    199c:	74730000 	ldrbtvc	r0, [r3], #-0
    19a0:	746e6964 	strbtvc	r6, [lr], #-2404	; 0xfffff69c
    19a4:	6363672d 	cmnvs	r3, #11796480	; 0xb40000
    19a8:	0200682e 	andeq	r6, r0, #3014656	; 0x2e0000
    19ac:	05000000 	streq	r0, [r0, #-0]
    19b0:	02050039 	andeq	r0, r5, #57, 0	; 0x39
    19b4:	00009120 	andeq	r9, r0, r0, lsr #2
    19b8:	06013003 	streq	r3, [r1], -r3
    19bc:	06050501 	streq	r0, [r5], -r1, lsl #10
    19c0:	06110567 	ldreq	r0, [r1], -r7, ror #10
    19c4:	2e050501 	cfsh32cs	mvfx0, mvfx5, #1
    19c8:	05670105 	strbeq	r0, [r7, #-261]!	; 0xfffffefb
    19cc:	06290638 			; <UNDEFINED> instruction: 0x06290638
    19d0:	06050501 	streq	r0, [r5], -r1, lsl #10
    19d4:	06110567 	ldreq	r0, [r1], -r7, ror #10
    19d8:	2e050501 	cfsh32cs	mvfx0, mvfx5, #1
    19dc:	05670105 	strbeq	r0, [r7, #-261]!	; 0xfffffefb
    19e0:	15030616 	strne	r0, [r3, #-1558]	; 0xfffff9ea
    19e4:	3505052e 	strcc	r0, [r5, #-1326]	; 0xfffffad2
    19e8:	68356867 	ldmdavs	r5!, {r0, r1, r2, r5, r6, fp, sp, lr}
    19ec:	852e0c03 	strhi	r0, [lr, #-3075]!	; 0xfffff3fd
    19f0:	0369696b 	cmneq	r9, #1753088	; 0x1ac000
    19f4:	6b13660c 	blvs	4db22c <__bss_end__+0x4d16cc>
    19f8:	06010567 	streq	r0, [r1], -r7, ror #10
    19fc:	0619052f 	ldreq	r0, [r9], -pc, lsr #10
    1a00:	05052508 	streq	r2, [r5, #-1288]	; 0xfffffaf8
    1a04:	060d0534 			; <UNDEFINED> instruction: 0x060d0534
    1a08:	4c010501 	cfstr32mi	mvfx0, [r1], {1}
    1a0c:	67061905 	strvs	r1, [r6, -r5, lsl #18]
    1a10:	05360505 	ldreq	r0, [r6, #-1285]!	; 0xfffffafb
    1a14:	0501060d 	streq	r0, [r1, #-1549]	; 0xfffff9f3
    1a18:	01054a28 	tsteq	r5, r8, lsr #20
    1a1c:	06150530 			; <UNDEFINED> instruction: 0x06150530
    1a20:	2f050587 	svccs	0x00050587
    1a24:	0009052f 	andeq	r0, r9, pc, lsr #10
    1a28:	13010402 	movwne	r0, #5122	; 0x1402
    1a2c:	02000a05 	andeq	r0, r0, #20480	; 0x5000
    1a30:	05110104 	ldreq	r0, [r1, #-260]	; 0xfffffefc
    1a34:	0402000c 	streq	r0, [r2], #-12
    1a38:	05010601 	streq	r0, [r1, #-1537]	; 0xfffff9ff
    1a3c:	0402000a 	streq	r0, [r2], #-10
    1a40:	05052e01 	streq	r2, [r5, #-3585]	; 0xfffff1ff
    1a44:	0e054c06 	cdpeq	12, 0, cr4, cr5, cr6, {0}
    1a48:	09050106 	stmdbeq	r5, {r1, r2, r8}
    1a4c:	0605054a 	streq	r0, [r5], -sl, asr #10
    1a50:	01052f2f 	tsteq	r5, pc, lsr #30
    1a54:	1c051306 	stcne	3, cr1, [r5], {6}
    1a58:	01066706 	tsteq	r6, r6, lsl #14
    1a5c:	4b060505 	blmi	182e78 <__bss_end__+0x179318>
    1a60:	0009052f 	andeq	r0, r9, pc, lsr #10
    1a64:	13010402 	movwne	r0, #5122	; 0x1402
    1a68:	02000a05 	andeq	r0, r0, #20480	; 0x5000
    1a6c:	05110104 	ldreq	r0, [r1, #-260]	; 0xfffffefc
    1a70:	0402000c 	streq	r0, [r2], #-12
    1a74:	05010601 	streq	r0, [r1, #-1537]	; 0xfffff9ff
    1a78:	0402000a 	streq	r0, [r2], #-10
    1a7c:	05052e01 	streq	r2, [r5, #-3585]	; 0xfffff1ff
    1a80:	05674c06 	strbeq	r4, [r7, #-3078]!	; 0xfffff3fa
    1a84:	052f0601 	streq	r0, [pc, #-1537]!	; 148b <__code_start__-0x6b75>
    1a88:	054c0619 	strbeq	r0, [ip, #-1561]	; 0xfffff9e7
    1a8c:	2a052e1b 	bcs	14d300 <__bss_end__+0x1437a0>
    1a90:	0631052e 	ldrteq	r0, [r1], -lr, lsr #10
    1a94:	2e420501 	cdpcs	5, 4, cr0, cr2, cr1, {0}
    1a98:	31061c05 	tstcc	r6, r5, lsl #24
    1a9c:	032f0505 			; <UNDEFINED> instruction: 0x032f0505
    1aa0:	0e052e09 	cdpeq	14, 0, cr2, cr5, cr9, {0}
    1aa4:	21050106 	tstcs	r5, r6, lsl #2
    1aa8:	0301054a 	movweq	r0, #5450	; 0x154a
    1aac:	1a052e0a 	bne	14d2dc <__bss_end__+0x14377c>
    1ab0:	09056806 	stmdbeq	r5, {r1, r2, fp, sp, lr}
    1ab4:	01040200 	mrseq	r0, R12_usr
    1ab8:	000a0530 	andeq	r0, sl, r0, lsr r5
    1abc:	11010402 	tstne	r1, r2, lsl #8
    1ac0:	02000c05 	andeq	r0, r0, #1280	; 0x500
    1ac4:	01060104 	tsteq	r6, r4, lsl #2
    1ac8:	02000a05 	andeq	r0, r0, #20480	; 0x5000
    1acc:	052e0104 	streq	r0, [lr, #-260]!	; 0xfffffefc
    1ad0:	e8030619 	stmda	r3, {r0, r3, r4, r9, sl}
    1ad4:	0505667e 	streq	r6, [r5, #-1662]	; 0xfffff982
    1ad8:	672f2f2f 	strvs	r2, [pc, -pc, lsr #30]!
    1adc:	2f060105 	svccs	0x00060105
    1ae0:	01000402 	tsteq	r0, r2, lsl #8
    1ae4:	00010a01 	andeq	r0, r1, r1, lsl #20
    1ae8:	7f000300 	svcvc	0x00000300
    1aec:	02000000 	andeq	r0, r0, #0, 0
    1af0:	0d0efb01 	vstreq	d15, [lr, #-4]
    1af4:	01010100 	mrseq	r0, (UNDEF: 17)
    1af8:	00000001 	andeq	r0, r0, r1
    1afc:	01000001 	tsteq	r0, r1
    1b00:	696c2f2e 	stmdbvs	ip!, {r1, r2, r3, r5, r8, r9, sl, fp, sp}^
    1b04:	2f006362 	svccs	0x00006362
    1b08:	72657355 	rsbvc	r7, r5, #1409286145	; 0x54000001
    1b0c:	72742f73 	rsbsvc	r2, r4, #460	; 0x1cc
    1b10:	65747369 	ldrbvs	r7, [r4, #-873]!	; 0xfffffc97
    1b14:	6c6f6e6e 	stclvs	14, cr6, [pc], #-440	; 1964 <__code_start__-0x669c>
    1b18:	6e616d6c 	cdpvs	13, 6, cr6, cr1, cr12, {3}
    1b1c:	636f442f 	cmnvs	pc, #788529152	; 0x2f000000
    1b20:	6e656d75 	mcrvs	13, 3, r6, cr5, cr5, {3}
    1b24:	532f7374 			; <UNDEFINED> instruction: 0x532f7374
    1b28:	6e697270 	mcrvs	2, 3, r7, cr9, cr0, {3}
    1b2c:	75515f67 	ldrbvc	r5, [r1, #-3943]	; 0xfffff099
    1b30:	65747261 	ldrbvs	r7, [r4, #-609]!	; 0xfffffd9f
    1b34:	30325f72 	eorscc	r5, r2, r2, ror pc
    1b38:	432f3232 			; <UNDEFINED> instruction: 0x432f3232
    1b3c:	30343253 	eorscc	r3, r4, r3, asr r2
    1b40:	732d584c 			; <UNDEFINED> instruction: 0x732d584c
    1b44:	32327270 	eorscc	r7, r2, #112, 4
    1b48:	62696c2f 	rsbvs	r6, r9, #12032	; 0x2f00
    1b4c:	692f6970 	stmdbvs	pc!, {r4, r5, r6, r8, fp, sp, lr}	; <UNPREDICTABLE>
    1b50:	756c636e 	strbvc	r6, [ip, #-878]!	; 0xfffffc92
    1b54:	00006564 	andeq	r6, r0, r4, ror #10
    1b58:	63727473 	cmnvs	r2, #1929379840	; 0x73000000
    1b5c:	632e7461 			; <UNDEFINED> instruction: 0x632e7461
    1b60:	00000100 	andeq	r0, r0, r0, lsl #2
    1b64:	2e697072 	mcrcs	0, 3, r7, cr9, cr2, {3}
    1b68:	00020068 	andeq	r0, r2, r8, rrx
    1b6c:	2c050000 	stccs	0, cr0, [r5], {-0}
    1b70:	10020500 	andne	r0, r2, r0, lsl #10
    1b74:	15000093 	strne	r0, [r0, #-147]	; 0xffffff6d
    1b78:	13130505 	tstne	r3, #20971520	; 0x1400000
    1b7c:	11060b05 	tstne	r6, r5, lsl #22
    1b80:	02000505 	andeq	r0, r0, #20971520	; 0x1400000
    1b84:	30060104 	andcc	r0, r6, r4, lsl #2
    1b88:	01040200 	mrseq	r0, R12_usr
    1b8c:	00090515 	andeq	r0, r9, r5, lsl r5
    1b90:	13010402 	movwne	r0, #5122	; 0x1402
    1b94:	02001005 	andeq	r1, r0, #5, 0
    1b98:	2e060104 	adfcss	f0, f6, f4
    1b9c:	02000b05 	andeq	r0, r0, #5120	; 0x1400
    1ba0:	002e0104 	eoreq	r0, lr, r4, lsl #2
    1ba4:	06010402 	streq	r0, [r1], -r2, lsl #8
    1ba8:	0005052f 	andeq	r0, r5, pc, lsr #10
    1bac:	06010402 	streq	r0, [r1], -r2, lsl #8
    1bb0:	054e0601 	strbeq	r0, [lr, #-1537]	; 0xfffff9ff
    1bb4:	05010608 	streq	r0, [r1, #-1544]	; 0xfffff9f8
    1bb8:	04020005 	streq	r0, [r2], #-5
    1bbc:	052f0601 	streq	r0, [pc, #-1537]!	; 15c3 <__code_start__-0x6a3d>
    1bc0:	04020009 	streq	r0, [r2], #-9
    1bc4:	0b051301 	bleq	1467d0 <__bss_end__+0x13cc70>
    1bc8:	01040200 	mrseq	r0, R12_usr
    1bcc:	09050106 	stmdbeq	r5, {r1, r2, r8}
    1bd0:	01040200 	mrseq	r0, R12_usr
    1bd4:	0f054b06 	svceq	0x00054b06
    1bd8:	01040200 	mrseq	r0, R12_usr
    1bdc:	0d050106 	stfeqs	f0, [r5, #-24]	; 0xffffffe8
    1be0:	01040200 	mrseq	r0, R12_usr
    1be4:	05052f06 	streq	r2, [r5, #-3846]	; 0xfffff0fa
    1be8:	01040200 	mrseq	r0, R12_usr
    1bec:	06020106 	streq	r0, [r2], -r6, lsl #2
    1bf0:	c3010100 	movwgt	r0, #4352	; 0x1100
    1bf4:	03000000 	movweq	r0, #0
    1bf8:	00007f00 	andeq	r7, r0, r0, lsl #30
    1bfc:	fb010200 	blx	42406 <__bss_end__+0x388a6>
    1c00:	01000d0e 	tsteq	r0, lr, lsl #26
    1c04:	00010101 	andeq	r0, r1, r1, lsl #2
    1c08:	00010000 	andeq	r0, r1, r0
    1c0c:	2f2e0100 	svccs	0x002e0100
    1c10:	6362696c 	cmnvs	r2, #108, 18	; 0x1b0000
    1c14:	73552f00 	cmpvc	r5, #0, 30
    1c18:	2f737265 	svccs	0x00737265
    1c1c:	73697274 	cmnvc	r9, #116, 4	; 0x40000007
    1c20:	6e6e6574 	mcrvs	5, 3, r6, cr14, cr4, {3}
    1c24:	6d6c6c6f 	stclvs	12, cr6, [ip, #-444]!	; 0xfffffe44
    1c28:	442f6e61 	strtmi	r6, [pc], #-3681	; 1c30 <__code_start__-0x63d0>
    1c2c:	6d75636f 	ldclvs	3, cr6, [r5, #-444]!	; 0xfffffe44
    1c30:	73746e65 	cmnvc	r4, #1616	; 0x650
    1c34:	7270532f 	rsbsvc	r5, r0, #-1140850688	; 0xbc000000
    1c38:	5f676e69 	svcpl	0x00676e69
    1c3c:	72617551 	rsbvc	r7, r1, #339738624	; 0x14400000
    1c40:	5f726574 	svcpl	0x00726574
    1c44:	32323032 	eorscc	r3, r2, #50, 0	; 0x32
    1c48:	3253432f 	subscc	r4, r3, #-1140850688	; 0xbc000000
    1c4c:	584c3034 	stmdapl	ip, {r2, r4, r5, ip, sp}^
    1c50:	7270732d 	rsbsvc	r7, r0, #-1275068416	; 0xb4000000
    1c54:	6c2f3232 	sfmvs	f3, 4, [pc], #-200	; 1b94 <__code_start__-0x646c>
    1c58:	69706269 	ldmdbvs	r0!, {r0, r3, r5, r6, r9, sp, lr}^
    1c5c:	636e692f 	cmnvs	lr, #770048	; 0xbc000
    1c60:	6564756c 	strbvs	r7, [r4, #-1388]!	; 0xfffffa94
    1c64:	74730000 	ldrbtvc	r0, [r3], #-0
    1c68:	706d6372 	rsbvc	r6, sp, r2, ror r3
    1c6c:	0100632e 	tsteq	r0, lr, lsr #6
    1c70:	70720000 	rsbsvc	r0, r2, r0
    1c74:	00682e69 	rsbeq	r2, r8, r9, ror #28
    1c78:	00000002 	andeq	r0, r0, r2
    1c7c:	05002a05 	streq	r2, [r0, #-2565]	; 0xfffff5fb
    1c80:	00934402 	addseq	r4, r3, r2, lsl #8
    1c84:	09051400 	stmdbeq	r5, {sl, ip}
    1c88:	010f0513 	tsteq	pc, r3, lsl r5	; <UNPREDICTABLE>
    1c8c:	01061005 	tsteq	r6, r5
    1c90:	052e0f05 	streq	r0, [lr, #-3845]!	; 0xfffff0fb
    1c94:	0402001c 	streq	r0, [r2], #-28	; 0xffffffe4
    1c98:	13054a01 	movwne	r4, #23041	; 0x5a01
    1c9c:	01040200 	mrseq	r0, R12_usr
    1ca0:	0611052e 	ldreq	r0, [r1], -lr, lsr #10
    1ca4:	0616052f 	ldreq	r0, [r6], -pc, lsr #10
    1ca8:	09052e2e 	stmdbeq	r5, {r1, r2, r3, r5, r9, sl, fp, sp}
    1cac:	15052f06 	strne	r2, [r5, #-3846]	; 0xfffff0fa
    1cb0:	01050106 	tsteq	r5, r6, lsl #2
    1cb4:	0004022f 	andeq	r0, r4, pc, lsr #4
    1cb8:	00c10101 	sbceq	r0, r1, r1, lsl #2
    1cbc:	00030000 	andeq	r0, r3, r0
    1cc0:	0000007f 	andeq	r0, r0, pc, ror r0
    1cc4:	0efb0102 	cdpeq	1, 15, cr0, cr11, cr2, {0}
    1cc8:	0101000d 	tsteq	r1, sp
    1ccc:	00000101 	andeq	r0, r0, r1, lsl #2
    1cd0:	00000100 	andeq	r0, r0, r0, lsl #2
    1cd4:	6c2f2e01 	stcvs	14, cr2, [pc], #-4	; 1cd8 <__code_start__-0x6328>
    1cd8:	00636269 	rsbeq	r6, r3, r9, ror #4
    1cdc:	6573552f 	ldrbvs	r5, [r3, #-1327]!	; 0xfffffad1
    1ce0:	742f7372 	strtvc	r7, [pc], #-882	; 1ce8 <__code_start__-0x6318>
    1ce4:	74736972 	ldrbtvc	r6, [r3], #-2418	; 0xfffff68e
    1ce8:	6f6e6e65 	svcvs	0x006e6e65
    1cec:	616d6c6c 	cmnvs	sp, ip, ror #24
    1cf0:	6f442f6e 	svcvs	0x00442f6e
    1cf4:	656d7563 	strbvs	r7, [sp, #-1379]!	; 0xfffffa9d
    1cf8:	2f73746e 	svccs	0x0073746e
    1cfc:	69727053 	ldmdbvs	r2!, {r0, r1, r4, r6, ip, sp, lr}^
    1d00:	515f676e 	cmppl	pc, lr, ror #14
    1d04:	74726175 	ldrbtvc	r6, [r2], #-373	; 0xfffffe8b
    1d08:	325f7265 	subscc	r7, pc, #1342177286	; 0x50000006
    1d0c:	2f323230 	svccs	0x00323230
    1d10:	34325343 	ldrtcc	r5, [r2], #-835	; 0xfffffcbd
    1d14:	2d584c30 	ldclcs	12, cr4, [r8, #-192]	; 0xffffff40
    1d18:	32727073 	rsbscc	r7, r2, #115, 0	; 0x73
    1d1c:	696c2f32 	stmdbvs	ip!, {r1, r4, r5, r8, r9, sl, fp, sp}^
    1d20:	2f697062 	svccs	0x00697062
    1d24:	6c636e69 	stclvs	14, cr6, [r3], #-420	; 0xfffffe5c
    1d28:	00656475 	rsbeq	r6, r5, r5, ror r4
    1d2c:	72747300 	rsbsvc	r7, r4, #0, 6
    1d30:	2e797063 	cdpcs	0, 7, cr7, cr9, cr3, {3}
    1d34:	00010063 	andeq	r0, r1, r3, rrx
    1d38:	69707200 	ldmdbvs	r0!, {r9, ip, sp, lr}^
    1d3c:	0200682e 	andeq	r6, r0, #3014656	; 0x2e0000
    1d40:	05000000 	streq	r0, [r0, #-0]
    1d44:	0205002a 	andeq	r0, r5, #42, 0	; 0x2a
    1d48:	00009370 	andeq	r9, r0, r0, ror r3
    1d4c:	13050514 	movwne	r0, #21780	; 0x5514
    1d50:	06140513 			; <UNDEFINED> instruction: 0x06140513
    1d54:	00220511 	eoreq	r0, r2, r1, lsl r5
    1d58:	06010402 	streq	r0, [r1], -r2, lsl #8
    1d5c:	000b052f 	andeq	r0, fp, pc, lsr #10
    1d60:	01010402 	tsteq	r1, r2, lsl #8
    1d64:	02001505 	andeq	r1, r0, #20971520	; 0x1400000
    1d68:	01060104 	tsteq	r6, r4, lsl #2
    1d6c:	02001305 	andeq	r1, r0, #335544320	; 0x14000000
    1d70:	054a0104 	strbeq	r0, [sl, #-260]	; 0xfffffefc
    1d74:	0402000b 	streq	r0, [r2], #-11
    1d78:	06024a01 	streq	r4, [r2], -r1, lsl #20
    1d7c:	21010100 	mrscs	r0, (UNDEF: 17)
    1d80:	03000001 	movweq	r0, #1
    1d84:	0000e500 	andeq	lr, r0, r0, lsl #10
    1d88:	fb010200 	blx	42592 <__bss_end__+0x38a32>
    1d8c:	01000d0e 	tsteq	r0, lr, lsl #26
    1d90:	00010101 	andeq	r0, r1, r1, lsl #2
    1d94:	00010000 	andeq	r0, r1, r0
    1d98:	2f2e0100 	svccs	0x002e0100
    1d9c:	6362696c 	cmnvs	r2, #108, 18	; 0x1b0000
    1da0:	73552f00 	cmpvc	r5, #0, 30
    1da4:	2f737265 	svccs	0x00737265
    1da8:	73697274 	cmnvc	r9, #116, 4	; 0x40000007
    1dac:	6e6e6574 	mcrvs	5, 3, r6, cr14, cr4, {3}
    1db0:	6d6c6c6f 	stclvs	12, cr6, [ip, #-444]!	; 0xfffffe44
    1db4:	442f6e61 	strtmi	r6, [pc], #-3681	; 1dbc <__code_start__-0x6244>
    1db8:	6d75636f 	ldclvs	3, cr6, [r5, #-444]!	; 0xfffffe44
    1dbc:	73746e65 	cmnvc	r4, #1616	; 0x650
    1dc0:	7270532f 	rsbsvc	r5, r0, #-1140850688	; 0xbc000000
    1dc4:	5f676e69 	svcpl	0x00676e69
    1dc8:	72617551 	rsbvc	r7, r1, #339738624	; 0x14400000
    1dcc:	5f726574 	svcpl	0x00726574
    1dd0:	32323032 	eorscc	r3, r2, #50, 0	; 0x32
    1dd4:	3253432f 	subscc	r4, r3, #-1140850688	; 0xbc000000
    1dd8:	584c3034 	stmdapl	ip, {r2, r4, r5, ip, sp}^
    1ddc:	7270732d 	rsbsvc	r7, r0, #-1275068416	; 0xb4000000
    1de0:	6c2f3232 	sfmvs	f3, 4, [pc], #-200	; 1d20 <__code_start__-0x62e0>
    1de4:	69706269 	ldmdbvs	r0!, {r0, r3, r5, r6, r9, sp, lr}^
    1de8:	636e692f 	cmnvs	lr, #770048	; 0xbc000
    1dec:	6564756c 	strbvs	r7, [r4, #-1388]!	; 0xfffffa94
    1df0:	73752f00 	cmnvc	r5, #0, 30
    1df4:	6f6c2f72 	svcvs	0x006c2f72
    1df8:	2f6c6163 	svccs	0x006c6163
    1dfc:	6c6c6543 	cfstr64vs	mvdx6, [ip], #-268	; 0xfffffef4
    1e00:	612f7261 			; <UNDEFINED> instruction: 0x612f7261
    1e04:	6e2d6d72 	mcrvs	13, 1, r6, cr13, cr2, {3}
    1e08:	2d656e6f 	stclcs	14, cr6, [r5, #-444]!	; 0xfffffe44
    1e0c:	69626165 	stmdbvs	r2!, {r0, r2, r5, r6, r8, sp, lr}^
    1e10:	7365742d 	cmnvc	r5, #754974720	; 0x2d000000
    1e14:	2d392f74 	ldccs	15, cr2, [r9, #-464]!	; 0xfffffe30
    1e18:	39313032 	ldmdbcc	r1!, {r1, r4, r5, ip, sp}
    1e1c:	632d3471 			; <UNDEFINED> instruction: 0x632d3471
    1e20:	37303173 			; <UNDEFINED> instruction: 0x37303173
    1e24:	696c2f65 	stmdbvs	ip!, {r0, r2, r5, r6, r8, r9, sl, fp, sp}^
    1e28:	63672f62 	cmnvs	r7, #392	; 0x188
    1e2c:	72612f63 	rsbvc	r2, r1, #396	; 0x18c
    1e30:	6f6e2d6d 	svcvs	0x006e2d6d
    1e34:	652d656e 	strvs	r6, [sp, #-1390]!	; 0xfffffa92
    1e38:	2f696261 	svccs	0x00696261
    1e3c:	2e322e39 	mrccs	14, 1, r2, cr2, cr9, {1}
    1e40:	6e692f31 	mcrvs	15, 3, r2, cr9, cr1, {1}
    1e44:	64756c63 	ldrbtvs	r6, [r5], #-3171	; 0xfffff39d
    1e48:	73000065 	movwvc	r0, #101	; 0x65
    1e4c:	636e7274 	cmnvs	lr, #116, 4	; 0x40000007
    1e50:	632e706d 			; <UNDEFINED> instruction: 0x632e706d
    1e54:	00000100 	andeq	r0, r0, r0, lsl #2
    1e58:	2e697072 	mcrcs	0, 3, r7, cr9, cr2, {3}
    1e5c:	00020068 	andeq	r0, r2, r8, rrx
    1e60:	64747300 	ldrbtvs	r7, [r4], #-768	; 0xfffffd00
    1e64:	2e666564 	cdpcs	5, 6, cr6, cr6, cr4, {3}
    1e68:	00030068 	andeq	r0, r3, r8, rrx
    1e6c:	39050000 	stmdbcc	r5, {}	; <UNPREDICTABLE>
    1e70:	90020500 	andls	r0, r2, r0, lsl #10
    1e74:	15000093 	strne	r0, [r0, #-147]	; 0xffffff6d
    1e78:	13130505 	tstne	r3, #20971520	; 0x1400000
    1e7c:	06010a05 	streq	r0, [r1], -r5, lsl #20
    1e80:	09054a01 	stmdbeq	r5, {r0, r9, fp, lr}
    1e84:	0c052f06 	stceq	15, cr2, [r5], {6}
    1e88:	13050106 	movwne	r0, #20742	; 0x5106
    1e8c:	2e0b052e 	cfsh32cs	mvfx0, mvfx11, #30
    1e90:	4b060d05 	blmi	1852ac <__bss_end__+0x17b74c>
    1e94:	01061b05 	tsteq	r6, r5, lsl #22
    1e98:	300c052e 	andcc	r0, ip, lr, lsr #10
    1e9c:	022f0105 	eoreq	r0, pc, #1073741825	; 0x40000001
    1ea0:	01010002 	tsteq	r1, r2
    1ea4:	000000b0 	strheq	r0, [r0], -r0	; <UNPREDICTABLE>
    1ea8:	00940003 	addseq	r0, r4, r3
    1eac:	01020000 	mrseq	r0, (UNDEF: 2)
    1eb0:	000d0efb 	strdeq	r0, [sp], -fp
    1eb4:	01010101 	tsteq	r1, r1, lsl #2
    1eb8:	01000000 	mrseq	r0, (UNDEF: 0)
    1ebc:	2e010000 	cdpcs	0, 0, cr0, cr1, cr0, {0}
    1ec0:	6174732f 	cmnvs	r4, pc, lsr #6
    1ec4:	732d6666 			; <UNDEFINED> instruction: 0x732d6666
    1ec8:	2f006372 	svccs	0x00006372
    1ecc:	72657355 	rsbvc	r7, r5, #1409286145	; 0x54000001
    1ed0:	72742f73 	rsbsvc	r2, r4, #460	; 0x1cc
    1ed4:	65747369 	ldrbvs	r7, [r4, #-873]!	; 0xfffffc97
    1ed8:	6c6f6e6e 	stclvs	14, cr6, [pc], #-440	; 1d28 <__code_start__-0x62d8>
    1edc:	6e616d6c 	cdpvs	13, 6, cr6, cr1, cr12, {3}
    1ee0:	636f442f 	cmnvs	pc, #788529152	; 0x2f000000
    1ee4:	6e656d75 	mcrvs	13, 3, r6, cr5, cr5, {3}
    1ee8:	532f7374 			; <UNDEFINED> instruction: 0x532f7374
    1eec:	6e697270 	mcrvs	2, 3, r7, cr9, cr0, {3}
    1ef0:	75515f67 	ldrbvc	r5, [r1, #-3943]	; 0xfffff099
    1ef4:	65747261 	ldrbvs	r7, [r4, #-609]!	; 0xfffffd9f
    1ef8:	30325f72 	eorscc	r5, r2, r2, ror pc
    1efc:	432f3232 			; <UNDEFINED> instruction: 0x432f3232
    1f00:	30343253 	eorscc	r3, r4, r3, asr r2
    1f04:	732d584c 			; <UNDEFINED> instruction: 0x732d584c
    1f08:	32327270 	eorscc	r7, r2, #112, 4
    1f0c:	62696c2f 	rsbvs	r6, r9, #12032	; 0x2f00
    1f10:	692f6970 	stmdbvs	pc!, {r4, r5, r6, r8, fp, sp, lr}	; <UNPREDICTABLE>
    1f14:	756c636e 	strbvc	r6, [ip, #-878]!	; 0xfffffc92
    1f18:	00006564 	andeq	r6, r0, r4, ror #10
    1f1c:	61666564 	cmnvs	r6, r4, ror #10
    1f20:	2d746c75 	ldclcs	12, cr6, [r4, #-468]!	; 0xfffffe2c
    1f24:	6f626572 	svcvs	0x00626572
    1f28:	632d746f 			; <UNDEFINED> instruction: 0x632d746f
    1f2c:	6f6c6c61 	svcvs	0x006c6c61
    1f30:	632e7475 			; <UNDEFINED> instruction: 0x632e7475
    1f34:	00000100 	andeq	r0, r0, r0, lsl #2
    1f38:	2e697072 	mcrcs	0, 3, r7, cr9, cr2, {3}
    1f3c:	00020068 	andeq	r0, r2, r8, rrx
    1f40:	1b050000 	blne	141f48 <__bss_end__+0x1383e8>
    1f44:	bc020500 	cfstr32lt	mvfx0, [r2], {-0}
    1f48:	14000093 	strne	r0, [r0], #-147	; 0xffffff6d
    1f4c:	05011c05 	streq	r1, [r1, #-3077]	; 0xfffff3fb
    1f50:	02010601 	andeq	r0, r1, #1048576	; 0x100000
    1f54:	01010002 	tsteq	r1, r2

Disassembly of section .debug_str:

00000000 <.debug_str>:
   0:	666e6f63 	strbtvs	r6, [lr], -r3, ror #30
   4:	725f6769 	subsvc	r6, pc, #27525120	; 0x1a40000
   8:	63006765 	movwvs	r6, #1893	; 0x765
   c:	65766e6f 	ldrbvs	r6, [r6, #-3695]!	; 0xfffff191
  10:	6f697372 	svcvs	0x00697372
  14:	65725f6e 	ldrbvs	r5, [r2, #-3950]!	; 0xfffff092
  18:	6f6e0067 	svcvs	0x006e0067
  1c:	69616d74 	stmdbvs	r1!, {r2, r4, r5, r6, r8, sl, fp, sp, lr}^
  20:	6e75006e 	cdpvs	0, 7, cr0, cr5, cr14, {3}
  24:	6e676973 			; <UNDEFINED> instruction: 0x6e676973
  28:	63206465 			; <UNDEFINED> instruction: 0x63206465
  2c:	00726168 	rsbseq	r6, r2, r8, ror #2
  30:	616c6564 	cmnvs	ip, r4, ror #10
  34:	736d5f79 	cmnvc	sp, #484	; 0x1e4
  38:	656c6300 	strbvs	r6, [ip, #-768]!	; 0xfffffd00
  3c:	725f6e61 	subsvc	r6, pc, #1552	; 0x610
  40:	6f6f6265 	svcvs	0x006f6265
  44:	552f0074 	strpl	r0, [pc, #-116]!	; ffffffd8 <__bss_end__+0xffff6478>
  48:	73726573 	cmnvc	r2, #482344960	; 0x1cc00000
  4c:	6972742f 	ldmdbvs	r2!, {r0, r1, r2, r3, r5, sl, ip, sp, lr}^
  50:	6e657473 	mcrvs	4, 3, r7, cr5, cr3, {3}
  54:	6c6c6f6e 	stclvs	15, cr6, [ip], #-440	; 0xfffffe48
  58:	2f6e616d 	svccs	0x006e616d
  5c:	75636f44 	strbvc	r6, [r3, #-3908]!	; 0xfffff0bc
  60:	746e656d 	strbtvc	r6, [lr], #-1389	; 0xfffffa93
  64:	70532f73 	subsvc	r2, r3, r3, ror pc
  68:	676e6972 			; <UNDEFINED> instruction: 0x676e6972
  6c:	6175515f 	cmnvs	r5, pc, asr r1
  70:	72657472 	rsbvc	r7, r5, #1912602624	; 0x72000000
  74:	3230325f 	eorscc	r3, r0, #-268435451	; 0xf0000005
  78:	53432f32 	movtpl	r2, #16178	; 0x3f32
  7c:	4c303432 	cfldrsmi	mvf3, [r0], #-200	; 0xffffff38
  80:	70732d58 	rsbsvc	r2, r3, r8, asr sp
  84:	2f323272 	svccs	0x00323272
  88:	7362616c 	cmnvc	r2, #27
  8c:	692d382f 	pushvs	{r0, r1, r2, r3, r5, fp, ip, sp}
  90:	612d6332 			; <UNDEFINED> instruction: 0x612d6332
  94:	632f6364 			; <UNDEFINED> instruction: 0x632f6364
  98:	0065646f 	rsbeq	r6, r5, pc, ror #8
  9c:	726f6873 	rsbvc	r6, pc, #7536640	; 0x730000
  a0:	6e752074 	mrcvs	0, 3, r2, cr5, cr4, {3}
  a4:	6e676973 			; <UNDEFINED> instruction: 0x6e676973
  a8:	69206465 	stmdbvs	r0!, {r0, r2, r5, r6, sl, sp, lr}
  ac:	6100746e 	tstvs	r0, lr, ror #8
  b0:	31317364 	teqcc	r1, r4, ror #6
  b4:	725f3531 	subsvc	r3, pc, #205520896	; 0xc400000
  b8:	31646165 	cmncc	r4, r5, ror #2
  bc:	64610036 	strbtvs	r0, [r1], #-54	; 0xffffffca
  c0:	31313173 	teqcc	r1, r3, ror r1
  c4:	6f635f35 	svcvs	0x00635f35
  c8:	6769666e 	strbvs	r6, [r9, -lr, ror #12]!
  cc:	554e4700 	strbpl	r4, [lr, #-1792]	; 0xfffff900
  d0:	39394320 	ldmdbcc	r9!, {r5, r8, r9, lr}
  d4:	322e3920 	eorcc	r3, lr, #32, 18	; 0x80000
  d8:	3220312e 	eorcc	r3, r0, #-2147483637	; 0x8000000b
  dc:	31393130 	teqcc	r9, r0, lsr r1
  e0:	20353230 	eorscs	r3, r5, r0, lsr r2
  e4:	6c657228 	sfmvs	f7, 2, [r5], #-160	; 0xffffff60
  e8:	65736165 	ldrbvs	r6, [r3, #-357]!	; 0xfffffe9b
  ec:	415b2029 	cmpmi	fp, r9, lsr #32
  f0:	612f4d52 			; <UNDEFINED> instruction: 0x612f4d52
  f4:	392d6d72 	pushcc	{r1, r4, r5, r6, r8, sl, fp, sp, lr}
  f8:	6172622d 	cmnvs	r2, sp, lsr #4
  fc:	2068636e 	rsbcs	r6, r8, lr, ror #6
 100:	69766572 	ldmdbvs	r6!, {r1, r4, r5, r6, r8, sl, sp, lr}^
 104:	6e6f6973 			; <UNDEFINED> instruction: 0x6e6f6973
 108:	37373220 	ldrcc	r3, [r7, -r0, lsr #4]!
 10c:	5d393935 			; <UNDEFINED> instruction: 0x5d393935
 110:	636d2d20 	cmnvs	sp, #32, 26	; 0x800
 114:	613d7570 	teqvs	sp, r0, ror r5
 118:	31316d72 	teqcc	r1, r2, ror sp
 11c:	7a6a3637 	bvc	1a8da00 <__bss_end__+0x1a83ea0>
 120:	20732d66 	rsbscs	r2, r3, r6, ror #26
 124:	75746d2d 	ldrbvc	r6, [r4, #-3373]!	; 0xfffff2d3
 128:	613d656e 	teqvs	sp, lr, ror #10
 12c:	31316d72 	teqcc	r1, r2, ror sp
 130:	7a6a3637 	bvc	1a8da14 <__bss_end__+0x1a83eb4>
 134:	20732d66 	rsbscs	r2, r3, r6, ror #26
 138:	6c666d2d 	stclvs	13, cr6, [r6], #-180	; 0xffffff4c
 13c:	2d74616f 	ldfcse	f6, [r4, #-444]!	; 0xfffffe44
 140:	3d696261 	sfmcc	f6, 2, [r9, #-388]!	; 0xfffffe7c
 144:	64726168 	ldrbtvs	r6, [r2], #-360	; 0xfffffe98
 148:	666d2d20 	strbtvs	r2, [sp], -r0, lsr #26
 14c:	763d7570 			; <UNDEFINED> instruction: 0x763d7570
 150:	2d207066 	stccs	0, cr7, [r0, #-408]!	; 0xfffffe68
 154:	6d72616d 	ldfvse	f6, [r2, #-436]!	; 0xfffffe4c
 158:	616d2d20 	cmnvs	sp, r0, lsr #26
 15c:	3d686372 	stclcc	3, cr6, [r8, #-456]!	; 0xfffffe38
 160:	766d7261 	strbtvc	r7, [sp], -r1, ror #4
 164:	2b7a6b36 	blcs	1e9ae44 <__bss_end__+0x1e912e4>
 168:	2d207066 	stccs	0, cr7, [r0, #-408]!	; 0xfffffe68
 16c:	62646767 	rsbvs	r6, r4, #27000832	; 0x19c0000
 170:	674f2d20 	strbvs	r2, [pc, -r0, lsr #26]
 174:	74732d20 	ldrbtvc	r2, [r3], #-3360	; 0xfffff2e0
 178:	6e673d64 	cdpvs	13, 6, cr3, cr7, cr4, {3}
 17c:	20393975 	eorscs	r3, r9, r5, ror r9
 180:	7266662d 	rsbvc	r6, r6, #47185920	; 0x2d00000
 184:	74736565 	ldrbtvc	r6, [r3], #-1381	; 0xfffffa9b
 188:	69646e61 	stmdbvs	r4!, {r0, r5, r6, r9, sl, fp, sp, lr}^
 18c:	6400676e 	strvs	r6, [r0], #-1902	; 0xfffff892
 190:	65766972 	ldrbvs	r6, [r6, #-2418]!	; 0xfffff68e
 194:	00632e72 	rsbeq	r2, r3, r2, ror lr
 198:	676e6f6c 	strbvs	r6, [lr, -ip, ror #30]!
 19c:	6e6f6c20 	cdpvs	12, 6, cr6, cr15, cr0, {1}
 1a0:	6e752067 	cdpvs	0, 7, cr2, cr5, cr7, {3}
 1a4:	6e676973 			; <UNDEFINED> instruction: 0x6e676973
 1a8:	69206465 	stmdbvs	r0!, {r0, r2, r5, r6, sl, sp, lr}
 1ac:	7500746e 	strvc	r7, [r0, #-1134]	; 0xfffffb92
 1b0:	38746e69 	ldmdacc	r4!, {r0, r3, r5, r6, r9, sl, fp, sp, lr}^
 1b4:	6c00745f 	cfstrsvs	mvf7, [r0], {95}	; 0x5f
 1b8:	20676e6f 	rsbcs	r6, r7, pc, ror #28
 1bc:	676e6f6c 	strbvs	r6, [lr, -ip, ror #30]!
 1c0:	746e6920 	strbtvc	r6, [lr], #-2336	; 0xfffff6e0
 1c4:	69707200 	ldmdbvs	r0!, {r9, ip, sp, lr}^
 1c8:	7475705f 	ldrbtvc	r7, [r5], #-95	; 0xffffffa1
 1cc:	72616863 	rsbvc	r6, r1, #6488064	; 0x630000
 1d0:	6f687300 	svcvs	0x00687300
 1d4:	69207472 	stmdbvs	r0!, {r1, r4, r5, r6, sl, ip, sp, lr}
 1d8:	6400746e 	strvs	r7, [r0], #-1134	; 0xfffffb92
 1dc:	615f7665 	cmpvs	pc, r5, ror #12
 1e0:	00726464 	rsbseq	r6, r2, r4, ror #8
 1e4:	31736461 	cmncc	r3, r1, ror #8
 1e8:	5f353131 	svcpl	0x00353131
 1ec:	75746573 	ldrbvc	r6, [r4, #-1395]!	; 0xfffffa8d
 1f0:	6f630070 	svcvs	0x00630070
 1f4:	765f666e 	ldrbvc	r6, [pc], -lr, ror #12
 1f8:	43006c61 	movwmi	r6, #3169	; 0xc61
 1fc:	49464e4f 	stmdbmi	r6, {r0, r1, r2, r3, r6, r9, sl, fp, lr}^
 200:	45445f47 	strbmi	r5, [r4, #-3911]	; 0xfffff0b9
 204:	32690046 	rsbcc	r0, r9, #70, 0	; 0x46
 208:	6e695f63 	cdpvs	15, 6, cr5, cr9, cr3, {3}
 20c:	69007469 	stmdbvs	r0, {r0, r3, r5, r6, sl, ip, sp, lr}
 210:	775f6332 	smmlarvc	pc, r2, r3, r6	; <UNPREDICTABLE>
 214:	65746972 	ldrbvs	r6, [r4, #-2418]!	; 0xfffff68e
 218:	465f5f00 	ldrbmi	r5, [pc], -r0, lsl #30
 21c:	54434e55 	strbpl	r4, [r3], #-3669	; 0xfffff1ab
 220:	5f4e4f49 	svcpl	0x004e4f49
 224:	6564005f 	strbvs	r0, [r4, #-95]!	; 0xffffffa1
 228:	5f79616c 	svcpl	0x0079616c
 22c:	61007375 	tstvs	r0, r5, ror r3
 230:	31317364 	teqcc	r1, r4, ror #6
 234:	725f3531 	subsvc	r3, pc, #205520896	; 0xc400000
 238:	74657365 	strbtvc	r7, [r5], #-869	; 0xfffffc9b
 23c:	6e657300 	cdpvs	3, 6, cr7, cr5, cr0, {0}
 240:	45440064 	strbmi	r0, [r4, #-100]	; 0xffffff9c
 244:	45524953 	ldrbmi	r4, [r2, #-2387]	; 0xfffff6ad
 248:	4f435f44 	svcmi	0x00435f44
 24c:	4749464e 	strbmi	r4, [r9, -lr, asr #12]
 250:	0044525f 	subeq	r5, r4, pc, asr r2
 254:	5f77656e 	svcpl	0x0077656e
 258:	666e6f63 	strbtvs	r6, [lr], -r3, ror #30
 25c:	6e697500 	cdpvs	5, 6, cr7, cr9, cr0, {0}
 260:	5f363174 	svcpl	0x00363174
 264:	32690074 	rsbcc	r0, r9, #116, 0	; 0x74
 268:	65725f63 	ldrbvs	r5, [r2, #-3939]!	; 0xfffff09d
 26c:	61006461 	tstvs	r0, r1, ror #8
 270:	31317364 	teqcc	r1, r4, ror #6
 274:	632e3531 			; <UNDEFINED> instruction: 0x632e3531
 278:	69707200 	ldmdbvs	r0!, {r9, ip, sp, lr}^
 27c:	7365725f 	cmnvc	r5, #-268435451	; 0xf0000005
 280:	705f7465 	subsvc	r7, pc, r5, ror #8
 284:	00637475 	rsbeq	r7, r3, r5, ror r4
 288:	31736461 	cmncc	r3, r1, ror #8
 28c:	5f353131 	svcpl	0x00353131
 290:	74697277 	strbtvc	r7, [r9], #-631	; 0xfffffd89
 294:	00363165 	eorseq	r3, r6, r5, ror #2
 298:	5f746573 	svcpl	0x00746573
 29c:	006c6c61 	rsbeq	r6, ip, r1, ror #24
 2a0:	2e633269 	cdpcs	2, 6, cr3, cr3, cr9, {3}
 2a4:	6c630063 	stclvs	0, cr0, [r3], #-396	; 0xfffffe74
 2a8:	5f6b636f 	svcpl	0x006b636f
 2ac:	65727473 	ldrbvs	r7, [r2, #-1139]!	; 0xfffffb8d
 2b0:	5f686374 	svcpl	0x00686374
 2b4:	656d6974 	strbvs	r6, [sp, #-2420]!	; 0xfffff68c
 2b8:	0074756f 	rsbseq	r7, r4, pc, ror #10
 2bc:	5f633269 	svcpl	0x00633269
 2c0:	50470063 	subpl	r0, r7, r3, rrx
 2c4:	465f4f49 	ldrbmi	r4, [pc], -r9, asr #30
 2c8:	5f434e55 	svcpl	0x00434e55
 2cc:	5054554f 	subspl	r5, r4, pc, asr #10
 2d0:	69005455 	stmdbvs	r0, {r0, r2, r4, r6, sl, ip, lr}
 2d4:	735f6332 	cmpvc	pc, #-939524096	; 0xc8000000
 2d8:	49504700 	ldmdbmi	r0, {r8, r9, sl, lr}^
 2dc:	55465f4f 	strbpl	r5, [r6, #-3919]	; 0xfffff0b1
 2e0:	415f434e 	cmpmi	pc, lr, asr #6
 2e4:	0030544c 	eorseq	r5, r0, ip, asr #8
 2e8:	4f495047 	svcmi	0x00495047
 2ec:	4e55465f 	mrcmi	6, 2, r4, cr5, cr15, {2}
 2f0:	4c415f43 	mcrrmi	15, 4, r5, r1, cr3
 2f4:	47003154 	smlsdmi	r0, r4, r1, r3
 2f8:	5f4f4950 	svcpl	0x004f4950
 2fc:	434e5546 	movtmi	r5, #58694	; 0xe546
 300:	544c415f 	strbpl	r4, [ip], #-351	; 0xfffffea1
 304:	50470032 	subpl	r0, r7, r2, lsr r0
 308:	465f4f49 	ldrbmi	r4, [pc], -r9, asr #30
 30c:	5f434e55 	svcpl	0x00434e55
 310:	33544c41 	cmpcc	r4, #16640	; 0x4100
 314:	49504700 	ldmdbmi	r0, {r8, r9, sl, lr}^
 318:	55465f4f 	strbpl	r5, [r6, #-3919]	; 0xfffff0b1
 31c:	415f434e 	cmpmi	pc, lr, asr #6
 320:	0034544c 	eorseq	r5, r4, ip, asr #8
 324:	4f495047 	svcmi	0x00495047
 328:	4e55465f 	mrcmi	6, 2, r4, cr5, cr15, {2}
 32c:	4c415f43 	mcrrmi	15, 4, r5, r1, cr3
 330:	73003554 	movwvc	r3, #1364	; 0x554
 334:	6765725f 			; <UNDEFINED> instruction: 0x6765725f
 338:	65747369 	ldrbvs	r7, [r4, #-873]!	; 0xfffffc97
 33c:	6c640072 	stclvs	0, cr0, [r4], #-456	; 0xfffffe38
 340:	70006e65 	andvc	r6, r0, r5, ror #28
 344:	32337475 	eorscc	r7, r3, #1962934272	; 0x75000000
 348:	725f6300 	subsvc	r6, pc, #0, 6
 34c:	73696765 	cmnvc	r9, #26476544	; 0x1940000
 350:	00726574 	rsbseq	r6, r2, r4, ror r5
 354:	66696873 			; <UNDEFINED> instruction: 0x66696873
 358:	68630074 	stmdavs	r3!, {r2, r4, r5, r6}^
 35c:	5f6b6365 	svcpl	0x006b6365
 360:	6f79616c 	svcvs	0x0079616c
 364:	63007475 	movwvs	r7, #1141	; 0x475
 368:	6b636f6c 	blvs	18dc120 <__bss_end__+0x18d25c0>
 36c:	7669645f 			; <UNDEFINED> instruction: 0x7669645f
 370:	656c6300 	strbvs	r6, [ip, #-768]!	; 0xfffffd00
 374:	69007261 	stmdbvs	r0, {r0, r5, r6, r9, ip, sp, lr}
 378:	635f6332 	cmpvs	pc, #-939524096	; 0xc8000000
 37c:	72746e6f 	rsbsvc	r6, r4, #1776	; 0x6f0
 380:	64006c6f 	strvs	r6, [r0], #-3183	; 0xfffff391
 384:	00656e6f 	rsbeq	r6, r5, pc, ror #28
 388:	4f495047 	svcmi	0x00495047
 38c:	4e55465f 	mrcmi	6, 2, r4, cr5, cr15, {2}
 390:	4e495f43 	cdpmi	15, 4, cr5, cr9, cr3, {2}
 394:	00545550 	subseq	r5, r4, r0, asr r5
 398:	64746e69 	ldrbtvs	r6, [r4], #-3689	; 0xfffff197
 39c:	6e697500 	cdpvs	5, 6, cr7, cr9, cr0, {0}
 3a0:	5f323374 	svcpl	0x00323374
 3a4:	6e690074 	mcrvs	0, 3, r0, cr9, cr4, {3}
 3a8:	69007274 	stmdbvs	r0, {r2, r4, r5, r6, r9, ip, sp, lr}
 3ac:	0074746e 	rsbseq	r7, r4, lr, ror #8
 3b0:	6f666966 	svcvs	0x00666966
 3b4:	76656400 	strbtvc	r6, [r5], -r0, lsl #8
 3b8:	7261625f 	rsbvc	r6, r1, #-268435451	; 0xf0000005
 3bc:	72656972 	rsbvc	r6, r5, #1867776	; 0x1c8000
 3c0:	74656700 	strbtvc	r6, [r5], #-1792	; 0xfffff900
 3c4:	52003233 	andpl	r3, r0, #805306371	; 0x30000003
 3c8:	695f4950 	ldmdbvs	pc, {r4, r6, r8, fp, lr}^	; <UNPREDICTABLE>
 3cc:	69006332 	stmdbvs	r0, {r1, r4, r5, r8, r9, sp, lr}
 3d0:	6e656332 	mcrvs	3, 3, r6, cr5, cr2, {1}
 3d4:	79626e00 	stmdbvc	r2!, {r9, sl, fp, sp, lr}^
 3d8:	00736574 	rsbseq	r6, r3, r4, ror r5
 3dc:	5f633269 	svcpl	0x00633269
 3e0:	74617473 	strbtvc	r7, [r1], #-1139	; 0xfffffb8d
 3e4:	72007375 	andvc	r7, r0, #-738197503	; 0xd4000001
 3e8:	5f646165 	svcpl	0x00646165
 3ec:	6c630073 	stclvs	0, cr0, [r3], #-460	; 0xfffffe34
 3f0:	006b746b 	rsbeq	r7, fp, fp, ror #8
 3f4:	6f697067 	svcvs	0x00697067
 3f8:	7465735f 	strbtvc	r7, [r5], #-863	; 0xfffffca1
 3fc:	6e75665f 	mrcvs	6, 3, r6, cr5, cr15, {2}
 400:	6f697463 	svcvs	0x00697463
 404:	6572006e 	ldrbvs	r0, [r2, #-110]!	; 0xffffff92
 408:	635f6461 	cmpvs	pc, #1627389952	; 0x61000000
 40c:	755f5f00 	ldrbvc	r5, [pc, #-3840]	; fffff514 <__bss_end__+0xffff59b4>
 410:	6573756e 	ldrbvs	r7, [r3, #-1390]!	; 0xfffffa92
 414:	5f003064 	svcpl	0x00003064
 418:	756e755f 	strbvc	r7, [lr, #-1375]!	; 0xfffffaa1
 41c:	31646573 	smccc	18003	; 0x4653
 420:	755f5f00 	ldrbvc	r5, [pc, #-3840]	; fffff528 <__bss_end__+0xffff59c8>
 424:	6573756e 	ldrbvs	r7, [r3, #-1390]!	; 0xfffffa92
 428:	5f003264 	svcpl	0x00003264
 42c:	756e755f 	strbvc	r7, [lr, #-1375]!	; 0xfffffaa1
 430:	33646573 	cmncc	r4, #482344960	; 0x1cc00000
 434:	6f6c6300 	svcvs	0x006c6300
 438:	645f6b63 	ldrbvs	r6, [pc], #-2915	; 440 <__code_start__-0x7bc0>
 43c:	79616c65 	stmdbvc	r1!, {r0, r2, r5, r6, sl, fp, sp, lr}^
 440:	69706700 	ldmdbvs	r0!, {r8, r9, sl, sp, lr}^
 444:	6c635f6f 	stclvs	15, cr5, [r3], #-444	; 0xfffffe44
 448:	67003072 	smlsdxvs	r0, r2, r0, r3
 44c:	5f6f6970 	svcpl	0x006f6970
 450:	30746573 	rsbscc	r6, r4, r3, ror r5
 454:	69706700 	ldmdbvs	r0!, {r8, r9, sl, sp, lr}^
 458:	72775f6f 	rsbsvc	r5, r7, #444	; 0x1bc
 45c:	00657469 	rsbeq	r7, r5, r9, ror #8
 460:	5f564544 	svcpl	0x00564544
 464:	334c4156 	movtcc	r4, #49494	; 0xc156
 468:	55500032 	ldrbpl	r0, [r0, #-50]	; 0xffffffce
 46c:	00323354 	eorseq	r3, r2, r4, asr r3
 470:	6f697067 	svcvs	0x00697067
 474:	6165725f 	cmnvs	r5, pc, asr r2
 478:	70670064 	rsbvc	r0, r7, r4, rrx
 47c:	735f6f69 	cmpvc	pc, #420	; 0x1a4
 480:	6f5f7465 	svcvs	0x005f7465
 484:	75707475 	ldrbvc	r7, [r0, #-1141]!	; 0xfffffb8b
 488:	45470074 	strbmi	r0, [r7, #-116]	; 0xffffff8c
 48c:	00323354 	eorseq	r3, r2, r4, asr r3
 490:	72732f2e 	rsbsvc	r2, r3, #184	; 0xb8
 494:	70672f63 	rsbvc	r2, r7, r3, ror #30
 498:	632e6f69 			; <UNDEFINED> instruction: 0x632e6f69
 49c:	69706700 	ldmdbvs	r0!, {r8, r9, sl, sp, lr}^
 4a0:	65735f6f 	ldrbvs	r5, [r3, #-3951]!	; 0xfffff091
 4a4:	6e695f74 	mcrvs	15, 3, r5, cr9, cr4, {3}
 4a8:	00747570 	rsbseq	r7, r4, r0, ror r5
 4ac:	6f697067 	svcvs	0x00697067
 4b0:	7465735f 	strbtvc	r7, [r5], #-863	; 0xfffffca1
 4b4:	66666f5f 	uqsaxvs	r6, r6, pc	; <UNPREDICTABLE>
 4b8:	554e4700 	strbpl	r4, [lr, #-1792]	; 0xfffff900
 4bc:	39394320 	ldmdbcc	r9!, {r5, r8, r9, lr}
 4c0:	322e3920 	eorcc	r3, lr, #32, 18	; 0x80000
 4c4:	3220312e 	eorcc	r3, r0, #-2147483637	; 0x8000000b
 4c8:	31393130 	teqcc	r9, r0, lsr r1
 4cc:	20353230 	eorscs	r3, r5, r0, lsr r2
 4d0:	6c657228 	sfmvs	f7, 2, [r5], #-160	; 0xffffff60
 4d4:	65736165 	ldrbvs	r6, [r3, #-357]!	; 0xfffffe9b
 4d8:	415b2029 	cmpmi	fp, r9, lsr #32
 4dc:	612f4d52 			; <UNDEFINED> instruction: 0x612f4d52
 4e0:	392d6d72 	pushcc	{r1, r4, r5, r6, r8, sl, fp, sp, lr}
 4e4:	6172622d 	cmnvs	r2, sp, lsr #4
 4e8:	2068636e 	rsbcs	r6, r8, lr, ror #6
 4ec:	69766572 	ldmdbvs	r6!, {r1, r4, r5, r6, r8, sl, sp, lr}^
 4f0:	6e6f6973 			; <UNDEFINED> instruction: 0x6e6f6973
 4f4:	37373220 	ldrcc	r3, [r7, -r0, lsr #4]!
 4f8:	5d393935 			; <UNDEFINED> instruction: 0x5d393935
 4fc:	666d2d20 	strbtvs	r2, [sp], -r0, lsr #26
 500:	74616f6c 	strbtvc	r6, [r1], #-3948	; 0xfffff094
 504:	6962612d 	stmdbvs	r2!, {r0, r2, r3, r5, r8, sp, lr}^
 508:	7261683d 	rsbvc	r6, r1, #3997696	; 0x3d0000
 50c:	6d2d2064 	stcvs	0, cr2, [sp, #-400]!	; 0xfffffe70
 510:	3d757066 	ldclcc	0, cr7, [r5, #-408]!	; 0xfffffe68
 514:	20706676 	rsbscs	r6, r0, r6, ror r6
 518:	70636d2d 	rsbvc	r6, r3, sp, lsr #26
 51c:	72613d75 	rsbvc	r3, r1, #7488	; 0x1d40
 520:	3731316d 	ldrcc	r3, [r1, -sp, ror #2]!
 524:	667a6a36 			; <UNDEFINED> instruction: 0x667a6a36
 528:	2d20732d 	stccs	3, cr7, [r0, #-180]!	; 0xffffff4c
 52c:	6e75746d 	cdpvs	4, 7, cr7, cr5, cr13, {3}
 530:	72613d65 	rsbvc	r3, r1, #6464	; 0x1940
 534:	3731316d 	ldrcc	r3, [r1, -sp, ror #2]!
 538:	667a6a36 			; <UNDEFINED> instruction: 0x667a6a36
 53c:	2d20732d 	stccs	3, cr7, [r0, #-180]!	; 0xffffff4c
 540:	6f6c666d 	svcvs	0x006c666d
 544:	612d7461 			; <UNDEFINED> instruction: 0x612d7461
 548:	683d6962 	ldmdavs	sp!, {r1, r5, r6, r8, fp, sp, lr}
 54c:	20647261 	rsbcs	r7, r4, r1, ror #4
 550:	70666d2d 	rsbvc	r6, r6, sp, lsr #26
 554:	66763d75 			; <UNDEFINED> instruction: 0x66763d75
 558:	6d2d2070 	stcvs	0, cr2, [sp, #-448]!	; 0xfffffe40
 55c:	206d7261 	rsbcs	r7, sp, r1, ror #4
 560:	72616d2d 	rsbvc	r6, r1, #2880	; 0xb40
 564:	613d6863 	teqvs	sp, r3, ror #16
 568:	36766d72 			; <UNDEFINED> instruction: 0x36766d72
 56c:	662b7a6b 	strtvs	r7, [fp], -fp, ror #20
 570:	672d2070 			; <UNDEFINED> instruction: 0x672d2070
 574:	20626467 	rsbcs	r6, r2, r7, ror #8
 578:	6467672d 	strbtvs	r6, [r7], #-1837	; 0xfffff8d3
 57c:	4f2d2062 	svcmi	0x002d2062
 580:	4f2d2067 	svcmi	0x002d2067
 584:	732d2067 			; <UNDEFINED> instruction: 0x732d2067
 588:	673d6474 			; <UNDEFINED> instruction: 0x673d6474
 58c:	3939756e 	ldmdbcc	r9!, {r1, r2, r3, r5, r6, r8, sl, ip, sp, lr}
 590:	74732d20 	ldrbtvc	r2, [r3], #-3360	; 0xfffff2e0
 594:	6e673d64 	cdpvs	13, 6, cr3, cr7, cr4, {3}
 598:	20393975 	eorscs	r3, r9, r5, ror r9
 59c:	7266662d 	rsbvc	r6, r6, #47185920	; 0x2d00000
 5a0:	74736565 	ldrbtvc	r6, [r3], #-1381	; 0xfffffa9b
 5a4:	69646e61 	stmdbvs	r4!, {r0, r5, r6, r9, sl, fp, sp, lr}^
 5a8:	6600676e 	strvs	r6, [r0], -lr, ror #14
 5ac:	00636e75 	rsbeq	r6, r3, r5, ror lr
 5b0:	6f697067 	svcvs	0x00697067
 5b4:	6e75665f 	mrcvs	6, 3, r6, cr5, cr15, {2}
 5b8:	00745f63 	rsbseq	r5, r4, r3, ror #30
 5bc:	6f697067 	svcvs	0x00697067
 5c0:	76656c5f 			; <UNDEFINED> instruction: 0x76656c5f
 5c4:	552f0030 	strpl	r0, [pc, #-48]!	; 59c <__code_start__-0x7a64>
 5c8:	73726573 	cmnvc	r2, #482344960	; 0x1cc00000
 5cc:	6972742f 	ldmdbvs	r2!, {r0, r1, r2, r3, r5, sl, ip, sp, lr}^
 5d0:	6e657473 	mcrvs	4, 3, r7, cr5, cr3, {3}
 5d4:	6c6c6f6e 	stclvs	15, cr6, [ip], #-440	; 0xfffffe48
 5d8:	2f6e616d 	svccs	0x006e616d
 5dc:	75636f44 	strbvc	r6, [r3, #-3908]!	; 0xfffff0bc
 5e0:	746e656d 	strbtvc	r6, [lr], #-1389	; 0xfffffa93
 5e4:	70532f73 	subsvc	r2, r3, r3, ror pc
 5e8:	676e6972 			; <UNDEFINED> instruction: 0x676e6972
 5ec:	6175515f 	cmnvs	r5, pc, asr r1
 5f0:	72657472 	rsbvc	r7, r5, #1912602624	; 0x72000000
 5f4:	3230325f 	eorscc	r3, r0, #-268435451	; 0xf0000005
 5f8:	53432f32 	movtpl	r2, #16178	; 0x3f32
 5fc:	4c303432 	cfldrsmi	mvf3, [r0], #-200	; 0xffffff38
 600:	70732d58 	rsbsvc	r2, r3, r8, asr sp
 604:	2f323272 	svccs	0x00323272
 608:	7062696c 	rsbvc	r6, r2, ip, ror #18
 60c:	61620069 	cmnvs	r2, r9, rrx
 610:	67006b6e 	strvs	r6, [r0, -lr, ror #22]
 614:	5f6f6970 	svcpl	0x006f6970
 618:	5f746573 	svcpl	0x00746573
 61c:	61006e6f 	tstvs	r0, pc, ror #28
 620:	00736772 	rsbseq	r6, r3, r2, ror r7
 624:	705f6176 	subsvc	r6, pc, r6, ror r1	; <UNPREDICTABLE>
 628:	746e6972 	strbtvc	r6, [lr], #-2418	; 0xfffff68e
 62c:	5f5f006b 	svcpl	0x005f006b
 630:	63756e67 	cmnvs	r5, #1648	; 0x670
 634:	5f61765f 	svcpl	0x0061765f
 638:	7473696c 	ldrbtvc	r6, [r3], #-2412	; 0xfffff694
 63c:	765f5f00 	ldrbvc	r5, [pc], -r0, lsl #30
 640:	696c5f61 	stmdbvs	ip!, {r0, r5, r6, r8, r9, sl, fp, ip, lr}^
 644:	5f007473 	svcpl	0x00007473
 648:	0070615f 	rsbseq	r6, r0, pc, asr r1
 64c:	696c2f2e 	stmdbvs	ip!, {r1, r2, r3, r5, r8, r9, sl, fp, sp}^
 650:	702f6362 	eorvc	r6, pc, r2, ror #6
 654:	746e6972 	strbtvc	r6, [lr], #-2418	; 0xfffff68e
 658:	00632e6b 	rsbeq	r2, r3, fp, ror #28
 65c:	65746e69 	ldrbvs	r6, [r4, #-3689]!	; 0xfffff197
 660:	6c616e72 	stclvs	14, cr6, [r1], #-456	; 0xfffffe38
 664:	7475705f 	ldrbtvc	r7, [r5], #-95	; 0xffffffa1
 668:	72616863 	rsbvc	r6, r1, #6488064	; 0x630000
 66c:	69707200 	ldmdbvs	r0!, {r9, ip, sp, lr}^
 670:	7465735f 	strbtvc	r7, [r5], #-863	; 0xfffffca1
 674:	7475705f 	ldrbtvc	r7, [r5], #-95	; 0xffffffa1
 678:	2f2e0063 	svccs	0x002e0063
 67c:	6362696c 	cmnvs	r2, #108, 18	; 0x1b0000
 680:	7475702f 	ldrbtvc	r7, [r5], #-47	; 0xffffffd1
 684:	72616863 	rsbvc	r6, r1, #6488064	; 0x630000
 688:	7500632e 	strvc	r6, [r0, #-814]	; 0xfffffcd2
 68c:	5f747261 	svcpl	0x00747261
 690:	63747570 	cmnvs	r4, #112, 10	; 0x1c000000
 694:	746e6900 	strbtvc	r6, [lr], #-2304	; 0xfffff700
 698:	616e7265 	cmnvs	lr, r5, ror #4
 69c:	75705f6c 	ldrbvc	r5, [r0, #-3948]!	; 0xfffff094
 6a0:	2e006b74 	vmovcs.16	d0[1], r6
 6a4:	62696c2f 	rsbvs	r6, r9, #12032	; 0x2f00
 6a8:	75702f63 	ldrbvc	r2, [r0, #-3939]!	; 0xfffff09d
 6ac:	632e6b74 			; <UNDEFINED> instruction: 0x632e6b74
 6b0:	5f706600 	svcpl	0x00706600
 6b4:	5f746567 	svcpl	0x00746567
 6b8:	63617266 	cmnvs	r1, #1610612742	; 0x60000006
 6bc:	64736900 	ldrbtvs	r6, [r3], #-2304	; 0xfffff700
 6c0:	74696769 	strbtvc	r6, [r9], #-1897	; 0xfffff897
 6c4:	6e697500 	cdpvs	5, 6, cr7, cr9, cr0, {0}
 6c8:	5f343674 	svcpl	0x00343674
 6cc:	2f2e0074 	svccs	0x002e0074
 6d0:	6362696c 	cmnvs	r2, #108, 18	; 0x1b0000
 6d4:	2d61762f 	stclcs	6, cr7, [r1, #-188]!	; 0xffffff44
 6d8:	6e697270 	mcrvs	2, 3, r7, cr9, cr0, {3}
 6dc:	632e6b74 			; <UNDEFINED> instruction: 0x632e6b74
 6e0:	61726600 	cmnvs	r2, r0, lsl #12
 6e4:	656c5f63 	strbvs	r5, [ip, #-3939]!	; 0xfffff09d
 6e8:	5f5f006e 	svcpl	0x005f006e
 6ec:	65646f63 	strbvs	r6, [r4, #-3939]!	; 0xfffff09d
 6f0:	6174735f 	cmnvs	r4, pc, asr r3
 6f4:	5f5f7472 	svcpl	0x005f7472
 6f8:	625f5f00 	subsvs	r5, pc, #0, 30
 6fc:	735f7373 	cmpvc	pc, #-872415231	; 0xcc000001
 700:	74726174 	ldrbtvc	r6, [r2], #-372	; 0xfffffe8c
 704:	77005f5f 	smlsdvc	r0, pc, pc, r5	; <UNPREDICTABLE>
 708:	68746469 	ldmdavs	r4!, {r0, r3, r5, r6, sl, sp, lr}^
 70c:	5f706600 	svcpl	0x00706600
 710:	5f746567 	svcpl	0x00746567
 714:	65746e69 	ldrbvs	r6, [r4, #-3689]!	; 0xfffff197
 718:	6c617267 	sfmvs	f7, 2, [r1], #-412	; 0xfffffe64
 71c:	645f5f00 	ldrbvs	r5, [pc], #-3840	; 724 <__code_start__-0x78dc>
 720:	5f617461 	svcpl	0x00617461
 724:	5f646e65 	svcpl	0x00646e65
 728:	7570005f 	ldrbvc	r0, [r0, #-95]!	; 0xffffffa1
 72c:	665f6374 			; <UNDEFINED> instruction: 0x665f6374
 730:	5f5f0070 	svcpl	0x005f0070
 734:	5f737362 	svcpl	0x00737362
 738:	5f646e65 	svcpl	0x00646e65
 73c:	5f5f005f 	svcpl	0x005f005f
 740:	70616568 	rsbvc	r6, r1, r8, ror #10
 744:	6174735f 	cmnvs	r4, pc, asr r3
 748:	5f5f7472 	svcpl	0x005f7472
 74c:	69707200 	ldmdbvs	r0!, {r9, ip, sp, lr}^
 750:	7465735f 	strbtvc	r7, [r5], #-863	; 0xfffffca1
 754:	74756f5f 	ldrbtvc	r6, [r5], #-3935	; 0xfffff0a1
 758:	00747570 	rsbseq	r7, r4, r0, ror r5
 75c:	5f746d66 	svcpl	0x00746d66
 760:	72617473 	rsbvc	r7, r1, #1929379840	; 0x73000000
 764:	74730074 	ldrbtvc	r0, [r3], #-116	; 0xffffff8c
 768:	74616372 	strbtvc	r6, [r1], #-882	; 0xfffffc8e
 76c:	72747300 	rsbsvc	r7, r4, #0, 6
 770:	00797063 	rsbseq	r7, r9, r3, rrx
 774:	5f67656e 	svcpl	0x0067656e
 778:	5f5f0070 	svcpl	0x005f0070
 77c:	65646f63 	strbvs	r6, [r4, #-3939]!	; 0xfffff09d
 780:	646e655f 	strbtvs	r6, [lr], #-1375	; 0xfffffaa1
 784:	65005f5f 	strvs	r5, [r0, #-3935]	; 0xfffff0a1
 788:	0074696d 	rsbseq	r6, r4, sp, ror #18
 78c:	73747570 	cmnvc	r4, #112, 10	; 0x1c000000
 790:	0070665f 	rsbseq	r6, r0, pc, asr r6
 794:	62756f64 	rsbsvs	r6, r5, #100, 30	; 0x190
 798:	7200656c 	andvc	r6, r0, #108, 10	; 0x1b000000
 79c:	72657665 	rsbvc	r7, r5, #105906176	; 0x6500000
 7a0:	73006573 	movwvc	r6, #1395	; 0x573
 7a4:	6d637274 	sfmvs	f7, 2, [r3, #-464]!	; 0xfffffe30
 7a8:	5f5f0070 	svcpl	0x005f0070
 7ac:	61746164 	cmnvs	r4, r4, ror #2
 7b0:	6174735f 	cmnvs	r4, pc, asr r3
 7b4:	5f5f7472 	svcpl	0x005f7472
 7b8:	705f5f00 	subsvc	r5, pc, r0, lsl #30
 7bc:	5f676f72 	svcpl	0x00676f72
 7c0:	5f646e65 	svcpl	0x00646e65
 7c4:	756e005f 	strbvc	r0, [lr, #-95]!	; 0xffffffa1
 7c8:	7300316d 	movwvc	r3, #365	; 0x16d
 7cc:	636e7274 	cmnvs	lr, #116, 4	; 0x40000007
 7d0:	6200706d 	andvs	r7, r0, #109, 0	; 0x6d
 7d4:	00657361 	rsbeq	r7, r5, r1, ror #6
 7d8:	6e676973 			; <UNDEFINED> instruction: 0x6e676973
 7dc:	705f6465 	subsvc	r6, pc, r5, ror #8
 7e0:	655f5f00 	ldrbvs	r5, [pc, #-3840]	; fffff8e8 <__bss_end__+0xffff5d88>
 7e4:	5f74696d 	svcpl	0x0074696d
 7e8:	616f6c66 	cmnvs	pc, r6, ror #24
 7ec:	72740074 	rsbsvc	r0, r4, #116, 0	; 0x74
 7f0:	00636e75 	rsbeq	r6, r3, r5, ror lr
 7f4:	5f697072 	svcpl	0x00697072
 7f8:	6f626572 	svcvs	0x00626572
 7fc:	2e00746f 	cdpcs	4, 0, cr7, cr0, cr15, {3}
 800:	6174732f 	cmnvs	r4, pc, lsr #6
 804:	732d6666 			; <UNDEFINED> instruction: 0x732d6666
 808:	632f6372 			; <UNDEFINED> instruction: 0x632f6372
 80c:	6e61656c 	cdpvs	5, 6, cr6, cr1, cr12, {3}
 810:	6265722d 	rsbvs	r7, r5, #-805306366	; 0xd0000002
 814:	2e746f6f 	cdpcs	15, 7, cr6, cr4, cr15, {3}
 818:	61750063 	cmnvs	r5, r3, rrx
 81c:	665f7472 			; <UNDEFINED> instruction: 0x665f7472
 820:	6873756c 	ldmdavs	r3!, {r2, r3, r5, r6, r8, sl, ip, sp, lr}^
 824:	0078745f 	rsbseq	r7, r8, pc, asr r4
 828:	7473635f 	ldrbtvc	r6, [r3], #-863	; 0xfffffca1
 82c:	00747261 	rsbseq	r7, r4, r1, ror #4
 830:	5f737362 	svcpl	0x00737362
 834:	00646e65 	rsbeq	r6, r4, r5, ror #28
 838:	74726175 	ldrbtvc	r6, [r2], #-373	; 0xfffffe8b
 83c:	696e695f 	stmdbvs	lr!, {r0, r1, r2, r3, r4, r6, r8, fp, sp, lr}^
 840:	75630074 	strbvc	r0, [r3, #-116]!	; 0xffffff8c
 844:	6d6f7473 	cfstrdvs	mvd7, [pc, #-460]!	; 680 <__code_start__-0x7980>
 848:	616f6c5f 	cmnvs	pc, pc, asr ip	; <UNPREDICTABLE>
 84c:	00726564 	rsbseq	r6, r2, r4, ror #10
 850:	74732f2e 	ldrbtvc	r2, [r3], #-3886	; 0xfffff0d2
 854:	2d666661 	stclcs	6, cr6, [r6, #-388]!	; 0xfffffe7c
 858:	2f637273 	svccs	0x00637273
 85c:	61747363 	cmnvs	r4, r3, ror #6
 860:	632e7472 			; <UNDEFINED> instruction: 0x632e7472
 864:	732f2e00 			; <UNDEFINED> instruction: 0x732f2e00
 868:	66666174 			; <UNDEFINED> instruction: 0x66666174
 86c:	6372732d 	cmnvs	r2, #-1275068416	; 0xb4000000
 870:	7375632f 	cmnvc	r5, #-1140850688	; 0xbc000000
 874:	2d6d6f74 	stclcs	15, cr6, [sp, #-464]!	; 0xfffffe30
 878:	64616f6c 	strbtvs	r6, [r1], #-3948	; 0xfffff094
 87c:	632e7265 			; <UNDEFINED> instruction: 0x632e7265
 880:	62657200 	rsbvs	r7, r5, #0, 4
 884:	5f746f6f 	svcpl	0x00746f6f
 888:	6c6c6163 	stfvse	f6, [ip], #-396	; 0xfffffe74
 88c:	0074756f 	rsbseq	r7, r4, pc, ror #10
 890:	575f4d50 			; <UNDEFINED> instruction: 0x575f4d50
 894:	00474f44 	subeq	r4, r7, r4, asr #30
 898:	5f746573 	svcpl	0x00746573
 89c:	72657375 	rsbvc	r7, r5, #-738197503	; 0xd4000001
 8a0:	76656c5f 			; <UNDEFINED> instruction: 0x76656c5f
 8a4:	2e006c65 	cdpcs	12, 0, cr6, cr0, cr5, {3}
 8a8:	6174732f 	cmnvs	r4, pc, lsr #6
 8ac:	732d6666 			; <UNDEFINED> instruction: 0x732d6666
 8b0:	722f6372 	eorvc	r6, pc, #-939524095	; 0xc8000001
 8b4:	6f6f6265 	svcvs	0x006f6265
 8b8:	00632e74 	rsbeq	r2, r3, r4, ror lr
 8bc:	505f4d50 	subspl	r4, pc, r0, asr sp	; <UNPREDICTABLE>
 8c0:	57535341 	ldrbpl	r5, [r3, -r1, asr #6]
 8c4:	0044524f 	subeq	r5, r4, pc, asr #4
 8c8:	755f7461 	ldrbvc	r7, [pc, #-1121]	; 46f <__code_start__-0x7b91>
 8cc:	5f726573 	svcpl	0x00726573
 8d0:	6576656c 	ldrbvs	r6, [r6, #-1388]!	; 0xfffffa94
 8d4:	4d50006c 	ldclmi	0, cr0, [r0, #-432]	; 0xfffffe50
 8d8:	5453525f 	ldrbpl	r5, [r3], #-607	; 0xfffffda1
 8dc:	52575f43 	subspl	r5, r7, #268	; 0x10c
 8e0:	5f474643 	svcpl	0x00474643
 8e4:	4c4c5546 	cfstr64mi	mvdx5, [ip], {70}	; 0x46
 8e8:	5345525f 	movtpl	r5, #21087	; 0x525f
 8ec:	50005445 	andpl	r5, r0, r5, asr #8
 8f0:	53525f4d 	cmppl	r2, #308	; 0x134
 8f4:	63004354 	movwvs	r4, #852	; 0x354
 8f8:	00727370 	rsbseq	r7, r2, r0, ror r3
 8fc:	616c6564 	cmnvs	ip, r4, ror #10
 900:	65735f79 	ldrbvs	r5, [r3, #-3961]!	; 0xfffff087
 904:	2f2e0063 	svccs	0x002e0063
 908:	66617473 			; <UNDEFINED> instruction: 0x66617473
 90c:	72732d66 	rsbsvc	r2, r3, #6528	; 0x1980
 910:	69742f63 	ldmdbvs	r4!, {r0, r1, r5, r6, r8, r9, sl, fp, sp}^
 914:	2e72656d 	cdpcs	5, 7, cr6, cr2, cr13, {3}
 918:	69740063 	ldmdbvs	r4!, {r0, r1, r5, r6}^
 91c:	5f72656d 	svcpl	0x0072656d
 920:	5f746567 	svcpl	0x00746567
 924:	63657375 	cmnvs	r5, #-738197503	; 0xd4000001
 928:	6d697400 	cfstrdvs	mvd7, [r9, #-0]
 92c:	675f7265 	ldrbvs	r7, [pc, -r5, ror #4]
 930:	755f7465 	ldrbvc	r7, [pc, #-1125]	; 4d3 <__code_start__-0x7b2d>
 934:	5f636573 	svcpl	0x00636573
 938:	00776172 	rsbseq	r6, r7, r2, ror r1
 93c:	64756162 	ldrbtvs	r6, [r5], #-354	; 0xfffffe9e
 940:	6c61765f 	stclvs	6, cr7, [r1], #-380	; 0xfffffe84
 944:	61747300 	cmnvs	r4, r0, lsl #6
 948:	61750074 	cmnvs	r5, r4, ror r0
 94c:	635f7472 	cmpvs	pc, #1912602624	; 0x72000000
 950:	675f6e61 	ldrbvs	r6, [pc, -r1, ror #28]
 954:	00637465 	rsbeq	r7, r3, r5, ror #8
 958:	5f787561 	svcpl	0x00787561
 95c:	69726570 	ldmdbvs	r2!, {r4, r5, r6, r8, sl, sp, lr}^
 960:	00736870 	rsbseq	r6, r3, r0, ror r8
 964:	74726175 	ldrbtvc	r6, [r2], #-373	; 0xfffffe8b
 968:	7500632e 	strvc	r6, [r0, #-814]	; 0xfffffcd2
 96c:	5f747261 	svcpl	0x00747261
 970:	5f6e6163 	svcpl	0x006e6163
 974:	63747570 	cmnvs	r4, #112, 10	; 0x1c000000
 978:	72617500 	rsbvc	r7, r1, #0, 10
 97c:	78745f74 	ldmdavc	r4!, {r2, r4, r5, r6, r8, r9, sl, fp, ip, lr}^
 980:	5f73695f 	svcpl	0x0073695f
 984:	74706d65 	ldrbtvc	r6, [r0], #-3429	; 0xfffff29b
 988:	682f0079 	stmdavs	pc!, {r0, r3, r4, r5, r6}	; <UNPREDICTABLE>
 98c:	2f656d6f 	svccs	0x00656d6f
 990:	6c676e65 	stclvs	14, cr6, [r7], #-404	; 0xfffffe6c
 994:	632f7265 			; <UNDEFINED> instruction: 0x632f7265
 998:	7373616c 	cmnvc	r3, #27
 99c:	3273632f 	rsbscc	r6, r3, #-1140850688	; 0xbc000000
 9a0:	786c3034 	stmdavc	ip!, {r2, r4, r5, ip, sp}^
 9a4:	7332322d 	teqvc	r2, #-805306366	; 0xd0000002
 9a8:	6c2f7270 	sfmvs	f7, 4, [pc], #-448	; 7f0 <__code_start__-0x7810>
 9ac:	69706269 	ldmdbvs	r0!, {r0, r3, r5, r6, r9, sp, lr}^
 9b0:	6174732f 	cmnvs	r4, pc, lsr #6
 9b4:	702d6666 	eorvc	r6, sp, r6, ror #12
 9b8:	61766972 	cmnvs	r6, r2, ror r9
 9bc:	62006574 	andvs	r6, r0, #116, 10	; 0x1d000000
 9c0:	00647561 	rsbeq	r7, r4, r1, ror #10
 9c4:	5f787561 	svcpl	0x00787561
 9c8:	62616e65 	rsbvs	r6, r1, #1616	; 0x650
 9cc:	0073656c 	rsbseq	r6, r3, ip, ror #10
 9d0:	74726175 	ldrbtvc	r6, [r2], #-373	; 0xfffffe8b
 9d4:	7465675f 	strbtvc	r6, [r5], #-1887	; 0xfffff8a1
 9d8:	6e630063 	cdpvs	0, 6, cr0, cr3, cr3, {3}
 9dc:	75006c74 	strvc	r6, [r0, #-3188]	; 0xfffff38c
 9e0:	5f747261 	svcpl	0x00747261
 9e4:	61736964 	cmnvs	r3, r4, ror #18
 9e8:	00656c62 	rsbeq	r6, r5, r2, ror #24
 9ec:	74726175 	ldrbtvc	r6, [r2], #-373	; 0xfffffe8b
 9f0:	7361685f 	cmnvc	r1, #6225920	; 0x5f0000
 9f4:	7461645f 	strbtvc	r6, [r1], #-1119	; 0xfffffba1
 9f8:	4e470061 	cdpmi	0, 4, cr0, cr7, cr1, {3}
 9fc:	39432055 	stmdbcc	r3, {r0, r2, r4, r6, sp}^
 a00:	30312039 	eorscc	r2, r1, r9, lsr r0
 a04:	312e332e 			; <UNDEFINED> instruction: 0x312e332e
 a08:	32303220 	eorscc	r3, r0, #32, 4
 a0c:	32383031 	eorscc	r3, r8, #49, 0	; 0x31
 a10:	72282034 	eorvc	r2, r8, #52, 0	; 0x34
 a14:	61656c65 	cmnvs	r5, r5, ror #24
 a18:	20296573 	eorcs	r6, r9, r3, ror r5
 a1c:	70636d2d 	rsbvc	r6, r3, sp, lsr #26
 a20:	72613d75 	rsbvc	r3, r1, #7488	; 0x1d40
 a24:	3731316d 	ldrcc	r3, [r1, -sp, ror #2]!
 a28:	667a6a36 			; <UNDEFINED> instruction: 0x667a6a36
 a2c:	2d20732d 	stccs	3, cr7, [r0, #-180]!	; 0xffffff4c
 a30:	6e75746d 	cdpvs	4, 7, cr7, cr5, cr13, {3}
 a34:	72613d65 	rsbvc	r3, r1, #6464	; 0x1940
 a38:	3731316d 	ldrcc	r3, [r1, -sp, ror #2]!
 a3c:	667a6a36 			; <UNDEFINED> instruction: 0x667a6a36
 a40:	2d20732d 	stccs	3, cr7, [r0, #-180]!	; 0xffffff4c
 a44:	6f6c666d 	svcvs	0x006c666d
 a48:	612d7461 			; <UNDEFINED> instruction: 0x612d7461
 a4c:	683d6962 	ldmdavs	sp!, {r1, r5, r6, r8, fp, sp, lr}
 a50:	20647261 	rsbcs	r7, r4, r1, ror #4
 a54:	70666d2d 	rsbvc	r6, r6, sp, lsr #26
 a58:	66763d75 			; <UNDEFINED> instruction: 0x66763d75
 a5c:	6d2d2070 	stcvs	0, cr2, [sp, #-448]!	; 0xfffffe40
 a60:	206d7261 	rsbcs	r7, sp, r1, ror #4
 a64:	72616d2d 	rsbvc	r6, r1, #2880	; 0xb40
 a68:	613d6863 	teqvs	sp, r3, ror #16
 a6c:	36766d72 			; <UNDEFINED> instruction: 0x36766d72
 a70:	662b7a6b 	strtvs	r7, [fp], -fp, ror #20
 a74:	672d2070 			; <UNDEFINED> instruction: 0x672d2070
 a78:	20626467 	rsbcs	r6, r2, r7, ror #8
 a7c:	20674f2d 	rsbcs	r4, r7, sp, lsr #30
 a80:	6474732d 	ldrbtvs	r7, [r4], #-813	; 0xfffffcd3
 a84:	756e673d 	strbvc	r6, [lr, #-1853]!	; 0xfffff8c3
 a88:	2d203939 			; <UNDEFINED> instruction: 0x2d203939
 a8c:	65726666 	ldrbvs	r6, [r2, #-1638]!	; 0xfffff99a
 a90:	61747365 	cmnvs	r4, r5, ror #6
 a94:	6e69646e 	cdpvs	4, 6, cr6, cr9, cr14, {3}
 a98:	726f0067 	rsbvc	r0, pc, #103, 0	; 0x67
 a9c:	336e695f 	cmncc	lr, #1556480	; 0x17c000
 aa0:	63730032 	cmnvs	r3, #50, 0	; 0x32
 aa4:	63746172 	cmnvs	r4, #-2147483620	; 0x8000001c
 aa8:	61750068 	cmnvs	r5, r8, rrx
 aac:	61007472 	tstvs	r0, r2, ror r4
 ab0:	695f646e 	ldmdbvs	pc, {r1, r2, r3, r5, r6, sl, sp, lr}^	; <UNPREDICTABLE>
 ab4:	0032336e 	eorseq	r3, r2, lr, ror #6
 ab8:	74736564 	ldrbtvc	r6, [r3], #-1380	; 0xfffffa9c
 abc:	6c2f2e00 	stcvs	14, cr2, [pc], #-0	; ac4 <__code_start__-0x753c>
 ac0:	2f636269 	svccs	0x00636269
 ac4:	63727473 	cmnvs	r2, #1929379840	; 0x73000000
 ac8:	632e7461 			; <UNDEFINED> instruction: 0x632e7461
 acc:	6c2f2e00 	stcvs	14, cr2, [pc], #-0	; ad4 <__code_start__-0x752c>
 ad0:	2f636269 	svccs	0x00636269
 ad4:	63727473 	cmnvs	r2, #1929379840	; 0x73000000
 ad8:	632e706d 			; <UNDEFINED> instruction: 0x632e706d
 adc:	6c2f2e00 	stcvs	14, cr2, [pc], #-0	; ae4 <__code_start__-0x751c>
 ae0:	2f636269 	svccs	0x00636269
 ae4:	63727473 	cmnvs	r2, #1929379840	; 0x73000000
 ae8:	632e7970 			; <UNDEFINED> instruction: 0x632e7970
 aec:	7a697300 	bvc	1a5d6f4 <__bss_end__+0x1a53b94>
 af0:	00745f65 	rsbseq	r5, r4, r5, ror #30
 af4:	696c2f2e 	stmdbvs	ip!, {r1, r2, r3, r5, r8, r9, sl, fp, sp}^
 af8:	732f6362 			; <UNDEFINED> instruction: 0x732f6362
 afc:	636e7274 	cmnvs	lr, #116, 4	; 0x40000007
 b00:	632e706d 			; <UNDEFINED> instruction: 0x632e706d
 b04:	732f2e00 			; <UNDEFINED> instruction: 0x732f2e00
 b08:	66666174 			; <UNDEFINED> instruction: 0x66666174
 b0c:	6372732d 	cmnvs	r2, #-1275068416	; 0xb4000000
 b10:	6665642f 	strbtvs	r6, [r5], -pc, lsr #8
 b14:	746c7561 	strbtvc	r7, [ip], #-1377	; 0xfffffa9f
 b18:	6265722d 	rsbvs	r7, r5, #-805306366	; 0xd0000002
 b1c:	2d746f6f 	ldclcs	15, cr6, [r4, #-444]!	; 0xfffffe44
 b20:	6c6c6163 	stfvse	f6, [ip], #-396	; 0xfffffe74
 b24:	2e74756f 	cdpcs	5, 7, cr7, cr4, cr15, {3}
 b28:	Address 0x0000000000000b28 is out of bounds.


Disassembly of section .debug_frame:

00000000 <.debug_frame>:
   0:	0000000c 	andeq	r0, r0, ip
   4:	ffffffff 			; <UNDEFINED> instruction: 0xffffffff
   8:	7c020001 	stcvc	0, cr0, [r2], {1}
   c:	000d0c0e 	andeq	r0, sp, lr, lsl #24
  10:	00000018 	andeq	r0, r0, r8, lsl r0
  14:	00000000 	andeq	r0, r0, r0
  18:	000080ac 	andeq	r8, r0, ip, lsr #1
  1c:	00000048 	andeq	r0, r0, r8, asr #32
  20:	84100e42 	ldrhi	r0, [r0], #-3650	; 0xfffff1be
  24:	86038504 	strhi	r8, [r3], -r4, lsl #10
  28:	00018e02 	andeq	r8, r1, r2, lsl #28
  2c:	0000000c 	andeq	r0, r0, ip
  30:	ffffffff 			; <UNDEFINED> instruction: 0xffffffff
  34:	7c020001 	stcvc	0, cr0, [r2], {1}
  38:	000d0c0e 	andeq	r0, sp, lr, lsl #24
  3c:	00000018 	andeq	r0, r0, r8, lsl r0
  40:	0000002c 	andeq	r0, r0, ip, lsr #32
  44:	000080f4 	strdeq	r8, [r0], -r4
  48:	00000028 	andeq	r0, r0, r8, lsr #32
  4c:	8e040e42 	cdphi	14, 0, cr0, cr4, cr2, {2}
  50:	100e4201 	andne	r4, lr, r1, lsl #4
  54:	00040e4e 	andeq	r0, r4, lr, asr #28
  58:	00000018 	andeq	r0, r0, r8, lsl r0
  5c:	0000002c 	andeq	r0, r0, ip, lsr #32
  60:	0000811c 	andeq	r8, r0, ip, lsl r1
  64:	0000002c 	andeq	r0, r0, ip, lsr #32
  68:	8e040e42 	cdphi	14, 0, cr0, cr4, cr2, {2}
  6c:	100e4201 	andne	r4, lr, r1, lsl #4
  70:	00040e50 	andeq	r0, r4, r0, asr lr
  74:	0000001c 	andeq	r0, r0, ip, lsl r0
  78:	0000002c 	andeq	r0, r0, ip, lsr #32
  7c:	00008148 	andeq	r8, r0, r8, asr #2
  80:	00000040 	andeq	r0, r0, r0, asr #32
  84:	84080e42 	strhi	r0, [r8], #-3650	; 0xfffff1be
  88:	42018e02 	andmi	r8, r1, #2, 28
  8c:	0e5a100e 	cdpeq	0, 5, cr1, cr10, cr14, {0}
  90:	00000008 	andeq	r0, r0, r8
  94:	0000000c 	andeq	r0, r0, ip
  98:	0000002c 	andeq	r0, r0, ip, lsr #32
  9c:	00008188 	andeq	r8, r0, r8, lsl #3
  a0:	0000000c 	andeq	r0, r0, ip
  a4:	00000020 	andeq	r0, r0, r0, lsr #32
  a8:	0000002c 	andeq	r0, r0, ip, lsr #32
  ac:	00008194 	muleq	r0, r4, r1
  b0:	00000124 	andeq	r0, r0, r4, lsr #2
  b4:	84080e42 	strhi	r0, [r8], #-3650	; 0xfffff1be
  b8:	42018e02 	andmi	r8, r1, #2, 28
  bc:	5402100e 	strpl	r1, [r2], #-14
  c0:	42080e0a 	andmi	r0, r8, #160	; 0xa0
  c4:	0000000b 	andeq	r0, r0, fp
  c8:	0000000c 	andeq	r0, r0, ip
  cc:	ffffffff 			; <UNDEFINED> instruction: 0xffffffff
  d0:	7c020001 	stcvc	0, cr0, [r2], {1}
  d4:	000d0c0e 	andeq	r0, sp, lr, lsl #24
  d8:	00000014 	andeq	r0, r0, r4, lsl r0
  dc:	000000c8 	andeq	r0, r0, r8, asr #1
  e0:	000082b8 			; <UNDEFINED> instruction: 0x000082b8
  e4:	0000000c 	andeq	r0, r0, ip
  e8:	84080e42 	strhi	r0, [r8], #-3650	; 0xfffff1be
  ec:	00018e02 	andeq	r8, r1, r2, lsl #28
  f0:	00000014 	andeq	r0, r0, r4, lsl r0
  f4:	000000c8 	andeq	r0, r0, r8, asr #1
  f8:	000082c4 	andeq	r8, r0, r4, asr #5
  fc:	0000000c 	andeq	r0, r0, ip
 100:	84080e42 	strhi	r0, [r8], #-3650	; 0xfffff1be
 104:	00018e02 	andeq	r8, r1, r2, lsl #28
 108:	00000014 	andeq	r0, r0, r4, lsl r0
 10c:	000000c8 	andeq	r0, r0, r8, asr #1
 110:	000082d0 	ldrdeq	r8, [r0], -r0
 114:	00000008 	andeq	r0, r0, r8
 118:	8e040e42 	cdphi	14, 0, cr0, cr4, cr2, {2}
 11c:	00000001 	andeq	r0, r0, r1
 120:	0000001c 	andeq	r0, r0, ip, lsl r0
 124:	000000c8 	andeq	r0, r0, r8, asr #1
 128:	000082d8 	ldrdeq	r8, [r0], -r8	; <UNPREDICTABLE>
 12c:	000000d4 	ldrdeq	r0, [r0], -r4
 130:	84180e42 	ldrhi	r0, [r8], #-3650	; 0xfffff1be
 134:	86058506 	strhi	r8, [r5], -r6, lsl #10
 138:	88038704 	stmdahi	r3, {r2, r8, r9, sl, pc}
 13c:	00018e02 	andeq	r8, r1, r2, lsl #28
 140:	0000001c 	andeq	r0, r0, ip, lsl r0
 144:	000000c8 	andeq	r0, r0, r8, asr #1
 148:	000083ac 	andeq	r8, r0, ip, lsr #7
 14c:	000000cc 	andeq	r0, r0, ip, asr #1
 150:	84180e42 	ldrhi	r0, [r8], #-3650	; 0xfffff1be
 154:	86058506 	strhi	r8, [r5], -r6, lsl #10
 158:	88038704 	stmdahi	r3, {r2, r8, r9, sl, pc}
 15c:	00018e02 	andeq	r8, r1, r2, lsl #28
 160:	0000001c 	andeq	r0, r0, ip, lsl r0
 164:	000000c8 	andeq	r0, r0, r8, asr #1
 168:	00008478 	andeq	r8, r0, r8, ror r4
 16c:	00000074 	andeq	r0, r0, r4, ror r0
 170:	84180e42 	ldrhi	r0, [r8], #-3650	; 0xfffff1be
 174:	86058506 	strhi	r8, [r5], -r6, lsl #10
 178:	88038704 	stmdahi	r3, {r2, r8, r9, sl, pc}
 17c:	00018e02 	andeq	r8, r1, r2, lsl #28
 180:	0000000c 	andeq	r0, r0, ip
 184:	ffffffff 			; <UNDEFINED> instruction: 0xffffffff
 188:	7c020001 	stcvc	0, cr0, [r2], {1}
 18c:	000d0c0e 	andeq	r0, sp, lr, lsl #24
 190:	00000018 	andeq	r0, r0, r8, lsl r0
 194:	00000180 	andeq	r0, r0, r0, lsl #3
 198:	000084ec 	andeq	r8, r0, ip, ror #9
 19c:	00000064 	andeq	r0, r0, r4, rrx
 1a0:	84100e46 	ldrhi	r0, [r0], #-3654	; 0xfffff1ba
 1a4:	86038504 	strhi	r8, [r3], -r4, lsl #10
 1a8:	00018e02 	andeq	r8, r1, r2, lsl #28
 1ac:	00000014 	andeq	r0, r0, r4, lsl r0
 1b0:	00000180 	andeq	r0, r0, r0, lsl #3
 1b4:	00008550 	andeq	r8, r0, r0, asr r5
 1b8:	00000010 	andeq	r0, r0, r0, lsl r0
 1bc:	84080e42 	strhi	r0, [r8], #-3650	; 0xfffff1be
 1c0:	00018e02 	andeq	r8, r1, r2, lsl #28
 1c4:	00000014 	andeq	r0, r0, r4, lsl r0
 1c8:	00000180 	andeq	r0, r0, r0, lsl #3
 1cc:	00008560 	andeq	r8, r0, r0, ror #10
 1d0:	00000024 	andeq	r0, r0, r4, lsr #32
 1d4:	84080e46 	strhi	r0, [r8], #-3654	; 0xfffff1ba
 1d8:	00018e02 	andeq	r8, r1, r2, lsl #28
 1dc:	00000014 	andeq	r0, r0, r4, lsl r0
 1e0:	00000180 	andeq	r0, r0, r0, lsl #3
 1e4:	00008584 	andeq	r8, r0, r4, lsl #11
 1e8:	00000024 	andeq	r0, r0, r4, lsr #32
 1ec:	84080e46 	strhi	r0, [r8], #-3654	; 0xfffff1ba
 1f0:	00018e02 	andeq	r8, r1, r2, lsl #28
 1f4:	00000014 	andeq	r0, r0, r4, lsl r0
 1f8:	00000180 	andeq	r0, r0, r0, lsl #3
 1fc:	000085a8 	andeq	r8, r0, r8, lsr #11
 200:	00000010 	andeq	r0, r0, r0, lsl r0
 204:	84080e42 	strhi	r0, [r8], #-3650	; 0xfffff1be
 208:	00018e02 	andeq	r8, r1, r2, lsl #28
 20c:	00000014 	andeq	r0, r0, r4, lsl r0
 210:	00000180 	andeq	r0, r0, r0, lsl #3
 214:	000085b8 			; <UNDEFINED> instruction: 0x000085b8
 218:	0000001c 	andeq	r0, r0, ip, lsl r0
 21c:	84080e42 	strhi	r0, [r8], #-3650	; 0xfffff1be
 220:	00018e02 	andeq	r8, r1, r2, lsl #28
 224:	00000018 	andeq	r0, r0, r8, lsl r0
 228:	00000180 	andeq	r0, r0, r0, lsl #3
 22c:	000085d4 	ldrdeq	r8, [r0], -r4
 230:	00000034 	andeq	r0, r0, r4, lsr r0
 234:	84080e46 	strhi	r0, [r8], #-3654	; 0xfffff1ba
 238:	4e018e02 	cdpmi	14, 0, cr8, cr1, cr2, {0}
 23c:	cec4000e 	cdpgt	0, 12, cr0, cr4, cr14, {0}
 240:	0000000c 	andeq	r0, r0, ip
 244:	ffffffff 			; <UNDEFINED> instruction: 0xffffffff
 248:	7c020001 	stcvc	0, cr0, [r2], {1}
 24c:	000d0c0e 	andeq	r0, sp, lr, lsl #24
 250:	00000034 	andeq	r0, r0, r4, lsr r0
 254:	00000240 	andeq	r0, r0, r0, asr #4
 258:	00008608 	andeq	r8, r0, r8, lsl #12
 25c:	00000058 	andeq	r0, r0, r8, asr r0
 260:	80100e42 	andshi	r0, r0, r2, asr #28
 264:	82038104 	andhi	r8, r3, #1
 268:	42018302 	andmi	r8, r1, #134217728	; 0x8000000
 26c:	07841c0e 	streq	r1, [r4, lr, lsl #24]
 270:	058e0685 	streq	r0, [lr, #1669]	; 0x685
 274:	5c280e42 	stcpl	14, cr0, [r8], #-264	; 0xfffffef8
 278:	ce421c0e 	cdpgt	12, 4, cr1, cr2, cr14, {0}
 27c:	100ec4c5 	andne	ip, lr, r5, asr #9
 280:	c1c2c342 	bicgt	ip, r2, r2, asr #6
 284:	00000ec0 	andeq	r0, r0, r0, asr #29
 288:	0000000c 	andeq	r0, r0, ip
 28c:	ffffffff 			; <UNDEFINED> instruction: 0xffffffff
 290:	7c020001 	stcvc	0, cr0, [r2], {1}
 294:	000d0c0e 	andeq	r0, sp, lr, lsl #24
 298:	00000014 	andeq	r0, r0, r4, lsl r0
 29c:	00000288 	andeq	r0, r0, r8, lsl #5
 2a0:	00008660 	andeq	r8, r0, r0, ror #12
 2a4:	00000014 	andeq	r0, r0, r4, lsl r0
 2a8:	84080e42 	strhi	r0, [r8], #-3650	; 0xfffff1be
 2ac:	00018e02 	andeq	r8, r1, r2, lsl #28
 2b0:	0000000c 	andeq	r0, r0, ip
 2b4:	00000288 	andeq	r0, r0, r8, lsl #5
 2b8:	00008674 	andeq	r8, r0, r4, ror r6
 2bc:	00000018 	andeq	r0, r0, r8, lsl r0
 2c0:	0000000c 	andeq	r0, r0, ip
 2c4:	00000288 	andeq	r0, r0, r8, lsl #5
 2c8:	0000868c 	andeq	r8, r0, ip, lsl #13
 2cc:	00000010 	andeq	r0, r0, r0, lsl r0
 2d0:	0000000c 	andeq	r0, r0, ip
 2d4:	ffffffff 			; <UNDEFINED> instruction: 0xffffffff
 2d8:	7c020001 	stcvc	0, cr0, [r2], {1}
 2dc:	000d0c0e 	andeq	r0, sp, lr, lsl #24
 2e0:	00000014 	andeq	r0, r0, r4, lsl r0
 2e4:	000002d0 	ldrdeq	r0, [r0], -r0	; <UNPREDICTABLE>
 2e8:	0000869c 	muleq	r0, ip, r6
 2ec:	00000034 	andeq	r0, r0, r4, lsr r0
 2f0:	84080e42 	strhi	r0, [r8], #-3650	; 0xfffff1be
 2f4:	00018e02 	andeq	r8, r1, r2, lsl #28
 2f8:	0000000c 	andeq	r0, r0, ip
 2fc:	ffffffff 			; <UNDEFINED> instruction: 0xffffffff
 300:	7c020001 	stcvc	0, cr0, [r2], {1}
 304:	000d0c0e 	andeq	r0, sp, lr, lsl #24
 308:	0000000c 	andeq	r0, r0, ip
 30c:	000002f8 	strdeq	r0, [r0], -r8
 310:	000086d0 	ldrdeq	r8, [r0], -r0
 314:	00000014 	andeq	r0, r0, r4, lsl r0
 318:	0000000c 	andeq	r0, r0, ip
 31c:	000002f8 	strdeq	r0, [r0], -r8
 320:	000086e4 	andeq	r8, r0, r4, ror #13
 324:	00000024 	andeq	r0, r0, r4, lsr #32
 328:	0000000c 	andeq	r0, r0, ip
 32c:	000002f8 	strdeq	r0, [r0], -r8
 330:	00008708 	andeq	r8, r0, r8, lsl #14
 334:	00000038 	andeq	r0, r0, r8, lsr r0
 338:	0000000c 	andeq	r0, r0, ip
 33c:	000002f8 	strdeq	r0, [r0], -r8
 340:	00008740 	andeq	r8, r0, r0, asr #14
 344:	0000000c 	andeq	r0, r0, ip
 348:	00000014 	andeq	r0, r0, r4, lsl r0
 34c:	000002f8 	strdeq	r0, [r0], -r8
 350:	0000874c 	andeq	r8, r0, ip, asr #14
 354:	00000058 	andeq	r0, r0, r8, asr r0
 358:	84080e42 	strhi	r0, [r8], #-3650	; 0xfffff1be
 35c:	00018e02 	andeq	r8, r1, r2, lsl #28
 360:	00000014 	andeq	r0, r0, r4, lsl r0
 364:	000002f8 	strdeq	r0, [r0], -r8
 368:	000087a4 	andeq	r8, r0, r4, lsr #15
 36c:	0000000c 	andeq	r0, r0, ip
 370:	84080e42 	strhi	r0, [r8], #-3650	; 0xfffff1be
 374:	00018e02 	andeq	r8, r1, r2, lsl #28
 378:	00000024 	andeq	r0, r0, r4, lsr #32
 37c:	000002f8 	strdeq	r0, [r0], -r8
 380:	000087b0 			; <UNDEFINED> instruction: 0x000087b0
 384:	000001b4 			; <UNDEFINED> instruction: 0x000001b4
 388:	84140e42 	ldrhi	r0, [r4], #-3650	; 0xfffff1be
 38c:	86048505 	strhi	r8, [r4], -r5, lsl #10
 390:	8e028703 	cdphi	7, 0, cr8, cr2, cr3, {0}
 394:	600e4201 	andvs	r4, lr, r1, lsl #4
 398:	0e0a9a02 	vmlaeq.f32	s18, s20, s4
 39c:	000b4214 	andeq	r4, fp, r4, lsl r2
 3a0:	00000014 	andeq	r0, r0, r4, lsl r0
 3a4:	000002f8 	strdeq	r0, [r0], -r8
 3a8:	00008964 	andeq	r8, r0, r4, ror #18
 3ac:	00000064 	andeq	r0, r0, r4, rrx
 3b0:	8e040e54 	mcrhi	14, 0, r0, cr4, cr4, {2}
 3b4:	100e4201 	andne	r4, lr, r1, lsl #4
 3b8:	00000034 	andeq	r0, r0, r4, lsr r0
 3bc:	000002f8 	strdeq	r0, [r0], -r8
 3c0:	000089c8 	andeq	r8, r0, r8, asr #19
 3c4:	00000108 	andeq	r0, r0, r8, lsl #2
 3c8:	84180e42 	ldrhi	r0, [r8], #-3650	; 0xfffff1be
 3cc:	86058506 	strhi	r8, [r5], -r6, lsl #10
 3d0:	88038704 	stmdahi	r3, {r2, r8, r9, sl, pc}
 3d4:	42018e02 	andmi	r8, r1, #2, 28
 3d8:	5005200e 	andpl	r2, r5, lr
 3dc:	07510508 	ldrbeq	r0, [r1, -r8, lsl #10]
 3e0:	01a80e42 			; <UNDEFINED> instruction: 0x01a80e42
 3e4:	200e7802 	andcs	r7, lr, r2, lsl #16
 3e8:	06500642 	ldrbeq	r0, [r0], -r2, asr #12
 3ec:	00180e51 	andseq	r0, r8, r1, asr lr
 3f0:	0000002c 	andeq	r0, r0, ip, lsr #32
 3f4:	000002f8 	strdeq	r0, [r0], -r8
 3f8:	00008ad0 	ldrdeq	r8, [r0], -r0
 3fc:	000004c8 	andeq	r0, r0, r8, asr #9
 400:	84240e42 	strthi	r0, [r4], #-3650	; 0xfffff1be
 404:	86088509 	strhi	r8, [r8], -r9, lsl #10
 408:	88068707 	stmdahi	r6, {r0, r1, r2, r8, r9, sl, pc}
 40c:	8a048905 	bhi	122828 <__bss_end__+0x118cc8>
 410:	8e028b03 	vmlahi.f64	d8, d2, d3
 414:	b80e4201 	stmdalt	lr, {r0, r9, lr}
 418:	02420302 	subeq	r0, r2, #134217728	; 0x8000000
 41c:	0000240e 	andeq	r2, r0, lr, lsl #8
 420:	0000000c 	andeq	r0, r0, ip
 424:	ffffffff 			; <UNDEFINED> instruction: 0xffffffff
 428:	7c020001 	stcvc	0, cr0, [r2], {1}
 42c:	000d0c0e 	andeq	r0, sp, lr, lsl #24
 430:	00000014 	andeq	r0, r0, r4, lsl r0
 434:	00000420 	andeq	r0, r0, r0, lsr #8
 438:	00008f98 	muleq	r0, r8, pc	; <UNPREDICTABLE>
 43c:	0000002c 	andeq	r0, r0, ip, lsr #32
 440:	84080e42 	strhi	r0, [r8], #-3650	; 0xfffff1be
 444:	00018e02 	andeq	r8, r1, r2, lsl #28
 448:	0000000c 	andeq	r0, r0, ip
 44c:	ffffffff 			; <UNDEFINED> instruction: 0xffffffff
 450:	7c020001 	stcvc	0, cr0, [r2], {1}
 454:	000d0c0e 	andeq	r0, sp, lr, lsl #24
 458:	00000014 	andeq	r0, r0, r4, lsl r0
 45c:	00000448 	andeq	r0, r0, r8, asr #8
 460:	00008fc4 	andeq	r8, r0, r4, asr #31
 464:	0000003c 	andeq	r0, r0, ip, lsr r0
 468:	84080e42 	strhi	r0, [r8], #-3650	; 0xfffff1be
 46c:	00018e02 	andeq	r8, r1, r2, lsl #28
 470:	0000000c 	andeq	r0, r0, ip
 474:	ffffffff 			; <UNDEFINED> instruction: 0xffffffff
 478:	7c020001 	stcvc	0, cr0, [r2], {1}
 47c:	000d0c0e 	andeq	r0, sp, lr, lsl #24
 480:	0000000c 	andeq	r0, r0, ip
 484:	00000470 	andeq	r0, r0, r0, ror r4
 488:	00009000 	andeq	r9, r0, r0
 48c:	00000004 	andeq	r0, r0, r4
 490:	0000000c 	andeq	r0, r0, ip
 494:	ffffffff 			; <UNDEFINED> instruction: 0xffffffff
 498:	7c020001 	stcvc	0, cr0, [r2], {1}
 49c:	000d0c0e 	andeq	r0, sp, lr, lsl #24
 4a0:	0000000c 	andeq	r0, r0, ip
 4a4:	00000490 	muleq	r0, r0, r4
 4a8:	0000901c 	andeq	r9, r0, ip, lsl r0
 4ac:	00000018 	andeq	r0, r0, r8, lsl r0
 4b0:	0000000c 	andeq	r0, r0, ip
 4b4:	00000490 	muleq	r0, r0, r4
 4b8:	00009034 	andeq	r9, r0, r4, lsr r0
 4bc:	00000014 	andeq	r0, r0, r4, lsl r0
 4c0:	00000014 	andeq	r0, r0, r4, lsl r0
 4c4:	00000490 	muleq	r0, r0, r4
 4c8:	00009048 	andeq	r9, r0, r8, asr #32
 4cc:	00000054 	andeq	r0, r0, r4, asr r0
 4d0:	84080e42 	strhi	r0, [r8], #-3650	; 0xfffff1be
 4d4:	00018e02 	andeq	r8, r1, r2, lsl #28
 4d8:	0000000c 	andeq	r0, r0, ip
 4dc:	ffffffff 			; <UNDEFINED> instruction: 0xffffffff
 4e0:	7c020001 	stcvc	0, cr0, [r2], {1}
 4e4:	000d0c0e 	andeq	r0, sp, lr, lsl #24
 4e8:	00000014 	andeq	r0, r0, r4, lsl r0
 4ec:	000004d8 	ldrdeq	r0, [r0], -r8
 4f0:	0000909c 	muleq	r0, ip, r0
 4f4:	00000014 	andeq	r0, r0, r4, lsl r0
 4f8:	84080e42 	strhi	r0, [r8], #-3650	; 0xfffff1be
 4fc:	00018e02 	andeq	r8, r1, r2, lsl #28
 500:	00000014 	andeq	r0, r0, r4, lsl r0
 504:	000004d8 	ldrdeq	r0, [r0], -r8
 508:	000090b0 	strheq	r9, [r0], -r0
 50c:	0000001c 	andeq	r0, r0, ip, lsl r0
 510:	84080e42 	strhi	r0, [r8], #-3650	; 0xfffff1be
 514:	00018e02 	andeq	r8, r1, r2, lsl #28
 518:	00000018 	andeq	r0, r0, r8, lsl r0
 51c:	000004d8 	ldrdeq	r0, [r0], -r8
 520:	000090cc 	andeq	r9, r0, ip, asr #1
 524:	00000024 	andeq	r0, r0, r4, lsr #32
 528:	84100e42 	ldrhi	r0, [r0], #-3650	; 0xfffff1be
 52c:	86038504 	strhi	r8, [r3], -r4, lsl #10
 530:	00018e02 	andeq	r8, r1, r2, lsl #28
 534:	00000014 	andeq	r0, r0, r4, lsl r0
 538:	000004d8 	ldrdeq	r0, [r0], -r8
 53c:	000090f0 	strdeq	r9, [r0], -r0
 540:	00000018 	andeq	r0, r0, r8, lsl r0
 544:	84080e42 	strhi	r0, [r8], #-3650	; 0xfffff1be
 548:	00018e02 	andeq	r8, r1, r2, lsl #28
 54c:	00000014 	andeq	r0, r0, r4, lsl r0
 550:	000004d8 	ldrdeq	r0, [r0], -r8
 554:	00009108 	andeq	r9, r0, r8, lsl #2
 558:	00000018 	andeq	r0, r0, r8, lsl r0
 55c:	84080e42 	strhi	r0, [r8], #-3650	; 0xfffff1be
 560:	00018e02 	andeq	r8, r1, r2, lsl #28
 564:	0000000c 	andeq	r0, r0, ip
 568:	ffffffff 			; <UNDEFINED> instruction: 0xffffffff
 56c:	7c020001 	stcvc	0, cr0, [r2], {1}
 570:	000d0c0e 	andeq	r0, sp, lr, lsl #24
 574:	00000018 	andeq	r0, r0, r8, lsl r0
 578:	00000564 	andeq	r0, r0, r4, ror #10
 57c:	00009120 	andeq	r9, r0, r0, lsr #2
 580:	00000020 	andeq	r0, r0, r0, lsr #32
 584:	84100e42 	ldrhi	r0, [r0], #-3650	; 0xfffff1be
 588:	86038504 	strhi	r8, [r3], -r4, lsl #10
 58c:	00018e02 	andeq	r8, r1, r2, lsl #28
 590:	00000018 	andeq	r0, r0, r8, lsl r0
 594:	00000564 	andeq	r0, r0, r4, ror #10
 598:	00009140 	andeq	r9, r0, r0, asr #2
 59c:	00000020 	andeq	r0, r0, r0, lsr #32
 5a0:	84100e42 	ldrhi	r0, [r0], #-3650	; 0xfffff1be
 5a4:	86038504 	strhi	r8, [r3], -r4, lsl #10
 5a8:	00018e02 	andeq	r8, r1, r2, lsl #28
 5ac:	00000014 	andeq	r0, r0, r4, lsl r0
 5b0:	00000564 	andeq	r0, r0, r4, ror #10
 5b4:	00009160 	andeq	r9, r0, r0, ror #2
 5b8:	000000b0 	strheq	r0, [r0], -r0	; <UNPREDICTABLE>
 5bc:	84080e42 	strhi	r0, [r8], #-3650	; 0xfffff1be
 5c0:	00018e02 	andeq	r8, r1, r2, lsl #28
 5c4:	00000014 	andeq	r0, r0, r4, lsl r0
 5c8:	00000564 	andeq	r0, r0, r4, ror #10
 5cc:	00009210 	andeq	r9, r0, r0, lsl r2
 5d0:	00000018 	andeq	r0, r0, r8, lsl r0
 5d4:	84080e42 	strhi	r0, [r8], #-3650	; 0xfffff1be
 5d8:	00018e02 	andeq	r8, r1, r2, lsl #28
 5dc:	00000014 	andeq	r0, r0, r4, lsl r0
 5e0:	00000564 	andeq	r0, r0, r4, ror #10
 5e4:	00009228 	andeq	r9, r0, r8, lsr #4
 5e8:	00000020 	andeq	r0, r0, r0, lsr #32
 5ec:	84080e42 	strhi	r0, [r8], #-3650	; 0xfffff1be
 5f0:	00018e02 	andeq	r8, r1, r2, lsl #28
 5f4:	00000014 	andeq	r0, r0, r4, lsl r0
 5f8:	00000564 	andeq	r0, r0, r4, ror #10
 5fc:	00009248 	andeq	r9, r0, r8, asr #4
 600:	00000030 	andeq	r0, r0, r0, lsr r0
 604:	84080e42 	strhi	r0, [r8], #-3650	; 0xfffff1be
 608:	00018e02 	andeq	r8, r1, r2, lsl #28
 60c:	00000014 	andeq	r0, r0, r4, lsl r0
 610:	00000564 	andeq	r0, r0, r4, ror #10
 614:	00009278 	andeq	r9, r0, r8, ror r2
 618:	00000030 	andeq	r0, r0, r0, lsr r0
 61c:	84080e42 	strhi	r0, [r8], #-3650	; 0xfffff1be
 620:	00018e02 	andeq	r8, r1, r2, lsl #28
 624:	00000014 	andeq	r0, r0, r4, lsl r0
 628:	00000564 	andeq	r0, r0, r4, ror #10
 62c:	000092a8 	andeq	r9, r0, r8, lsr #5
 630:	00000010 	andeq	r0, r0, r0, lsl r0
 634:	84080e42 	strhi	r0, [r8], #-3650	; 0xfffff1be
 638:	00018e02 	andeq	r8, r1, r2, lsl #28
 63c:	00000014 	andeq	r0, r0, r4, lsl r0
 640:	00000564 	andeq	r0, r0, r4, ror #10
 644:	000092b8 			; <UNDEFINED> instruction: 0x000092b8
 648:	00000020 	andeq	r0, r0, r0, lsr #32
 64c:	84080e42 	strhi	r0, [r8], #-3650	; 0xfffff1be
 650:	00018e02 	andeq	r8, r1, r2, lsl #28
 654:	00000014 	andeq	r0, r0, r4, lsl r0
 658:	00000564 	andeq	r0, r0, r4, ror #10
 65c:	000092d8 	ldrdeq	r9, [r0], -r8
 660:	00000014 	andeq	r0, r0, r4, lsl r0
 664:	84080e42 	strhi	r0, [r8], #-3650	; 0xfffff1be
 668:	00018e02 	andeq	r8, r1, r2, lsl #28
 66c:	00000014 	andeq	r0, r0, r4, lsl r0
 670:	00000564 	andeq	r0, r0, r4, ror #10
 674:	000092ec 	andeq	r9, r0, ip, ror #5
 678:	00000024 	andeq	r0, r0, r4, lsr #32
 67c:	84080e42 	strhi	r0, [r8], #-3650	; 0xfffff1be
 680:	00018e02 	andeq	r8, r1, r2, lsl #28
 684:	0000000c 	andeq	r0, r0, ip
 688:	ffffffff 			; <UNDEFINED> instruction: 0xffffffff
 68c:	7c020001 	stcvc	0, cr0, [r2], {1}
 690:	000d0c0e 	andeq	r0, sp, lr, lsl #24
 694:	0000000c 	andeq	r0, r0, ip
 698:	00000684 	andeq	r0, r0, r4, lsl #13
 69c:	00009310 	andeq	r9, r0, r0, lsl r3
 6a0:	00000034 	andeq	r0, r0, r4, lsr r0
 6a4:	0000000c 	andeq	r0, r0, ip
 6a8:	ffffffff 			; <UNDEFINED> instruction: 0xffffffff
 6ac:	7c020001 	stcvc	0, cr0, [r2], {1}
 6b0:	000d0c0e 	andeq	r0, sp, lr, lsl #24
 6b4:	0000000c 	andeq	r0, r0, ip
 6b8:	000006a4 	andeq	r0, r0, r4, lsr #13
 6bc:	00009344 	andeq	r9, r0, r4, asr #6
 6c0:	0000002c 	andeq	r0, r0, ip, lsr #32
 6c4:	0000000c 	andeq	r0, r0, ip
 6c8:	ffffffff 			; <UNDEFINED> instruction: 0xffffffff
 6cc:	7c020001 	stcvc	0, cr0, [r2], {1}
 6d0:	000d0c0e 	andeq	r0, sp, lr, lsl #24
 6d4:	0000000c 	andeq	r0, r0, ip
 6d8:	000006c4 	andeq	r0, r0, r4, asr #13
 6dc:	00009370 	andeq	r9, r0, r0, ror r3
 6e0:	00000020 	andeq	r0, r0, r0, lsr #32
 6e4:	0000000c 	andeq	r0, r0, ip
 6e8:	ffffffff 			; <UNDEFINED> instruction: 0xffffffff
 6ec:	7c020001 	stcvc	0, cr0, [r2], {1}
 6f0:	000d0c0e 	andeq	r0, sp, lr, lsl #24
 6f4:	0000000c 	andeq	r0, r0, ip
 6f8:	000006e4 	andeq	r0, r0, r4, ror #13
 6fc:	00009390 	muleq	r0, r0, r3
 700:	0000002c 	andeq	r0, r0, ip, lsr #32
 704:	0000000c 	andeq	r0, r0, ip
 708:	ffffffff 			; <UNDEFINED> instruction: 0xffffffff
 70c:	7c020001 	stcvc	0, cr0, [r2], {1}
 710:	000d0c0e 	andeq	r0, sp, lr, lsl #24
 714:	0000000c 	andeq	r0, r0, ip
 718:	00000704 	andeq	r0, r0, r4, lsl #14
 71c:	000093bc 			; <UNDEFINED> instruction: 0x000093bc
 720:	00000004 	andeq	r0, r0, r4

Disassembly of section .debug_ranges:

00000000 <.debug_ranges>:
   0:	00000394 	muleq	r0, r4, r3
   4:	0000039c 	muleq	r0, ip, r3
   8:	000003b0 			; <UNDEFINED> instruction: 0x000003b0
   c:	000003e0 	andeq	r0, r0, r0, ror #7
	...
  18:	0000901c 	andeq	r9, r0, ip, lsl r0
  1c:	0000909c 	muleq	r0, ip, r0
	...
  28:	00009390 	muleq	r0, r0, r3
  2c:	000093bc 			; <UNDEFINED> instruction: 0x000093bc
	...
