
tsop.elf:     file format elf32-littlearm


Disassembly of section .text:

00008000 <__code_start__>:
    8000:	e3a00013 	mov	r0, #19, 0
    8004:	e3800080 	orr	r0, r0, #128, 0	; 0x80
    8008:	e129f000 	msr	CPSR_fc, r0
    800c:	e3a01000 	mov	r1, #0, 0
    8010:	ee071f95 	mcr	15, 0, r1, cr7, cr5, {4}
    8014:	e3a0d302 	mov	sp, #134217728	; 0x8000000
    8018:	e3a0b000 	mov	fp, #0, 0
    801c:	eb00040f 	bl	9060 <_cstart>
    8020:	eb000429 	bl	90cc <rpi_reboot>

00008024 <PUT32>:
    8024:	e5801000 	str	r1, [r0]
    8028:	e12fff1e 	bx	lr

0000802c <GET32>:
    802c:	e5900000 	ldr	r0, [r0]
    8030:	e12fff1e 	bx	lr

00008034 <BRANCHTO>:
    8034:	e12fff10 	bx	r0

00008038 <abs>:
    8038:	e3500000 	cmp	r0, #0, 0
    803c:	b2600000 	rsblt	r0, r0, #0, 0
    8040:	e12fff1e 	bx	lr

00008044 <within>:
    8044:	e92d4010 	push	{r4, lr}
    8048:	e1a04002 	mov	r4, r2
    804c:	e0400001 	sub	r0, r0, r1
    8050:	ebfffff8 	bl	8038 <abs>
    8054:	e1500004 	cmp	r0, r4
    8058:	23a00000 	movcs	r0, #0, 0
    805c:	33a00001 	movcc	r0, #1, 0
    8060:	e8bd8010 	pop	{r4, pc}

00008064 <is_skip>:
    8064:	e92d4010 	push	{r4, lr}
    8068:	e3a020c8 	mov	r2, #200, 0	; 0xc8
    806c:	e5901000 	ldr	r1, [r0]
    8070:	e3a00f96 	mov	r0, #600	; 0x258
    8074:	ebfffff2 	bl	8044 <within>
    8078:	e8bd8010 	pop	{r4, pc}

0000807c <pick>:
    807c:	e92d4070 	push	{r4, r5, r6, lr}
    8080:	e24dd010 	sub	sp, sp, #16, 0
    8084:	e1a04001 	mov	r4, r1
    8088:	e1a05002 	mov	r5, r2
    808c:	e5906000 	ldr	r6, [r0]
    8090:	e3a020c8 	mov	r2, #200, 0	; 0xc8
    8094:	e1a01006 	mov	r1, r6
    8098:	e1a00004 	mov	r0, r4
    809c:	ebffffe8 	bl	8044 <within>
    80a0:	e3500000 	cmp	r0, #0, 0
    80a4:	1a000011 	bne	80f0 <pick+0x74>
    80a8:	e3a020c8 	mov	r2, #200, 0	; 0xc8
    80ac:	e1a01006 	mov	r1, r6
    80b0:	e1a00005 	mov	r0, r5
    80b4:	ebffffe2 	bl	8044 <within>
    80b8:	e3500000 	cmp	r0, #0, 0
    80bc:	0a000002 	beq	80cc <pick+0x50>
    80c0:	e3a00001 	mov	r0, #1, 0
    80c4:	e28dd010 	add	sp, sp, #16, 0
    80c8:	e8bd8070 	pop	{r4, r5, r6, pc}
    80cc:	e58d5008 	str	r5, [sp, #8]
    80d0:	e58d4004 	str	r4, [sp, #4]
    80d4:	e58d6000 	str	r6, [sp]
    80d8:	e3a0305b 	mov	r3, #91, 0	; 0x5b
    80dc:	e59f2014 	ldr	r2, [pc, #20]	; 80f8 <pick+0x7c>
    80e0:	e59f1014 	ldr	r1, [pc, #20]	; 80fc <pick+0x80>
    80e4:	e59f0014 	ldr	r0, [pc, #20]	; 8100 <pick+0x84>
    80e8:	eb0001de 	bl	8868 <printk>
    80ec:	eb0003d0 	bl	9034 <clean_reboot>
    80f0:	e3a00000 	mov	r0, #0, 0
    80f4:	eafffff2 	b	80c4 <pick+0x48>
    80f8:	000098f0 	strdeq	r9, [r0], -r0
    80fc:	00009700 	andeq	r9, r0, r0, lsl #14
    8100:	00009708 	andeq	r9, r0, r8, lsl #14

00008104 <read_while_eq>:
    8104:	e92d41f0 	push	{r4, r5, r6, r7, r8, lr}
    8108:	e1a07000 	mov	r7, r0
    810c:	e1a06001 	mov	r6, r1
    8110:	e1a05002 	mov	r5, r2
    8114:	eb000406 	bl	9134 <timer_get_usec>
    8118:	e1a04000 	mov	r4, r0
    811c:	eb000404 	bl	9134 <timer_get_usec>
    8120:	e0400004 	sub	r0, r0, r4
    8124:	e1500005 	cmp	r0, r5
    8128:	8a000007 	bhi	814c <read_while_eq+0x48>
    812c:	e1a00007 	mov	r0, r7
    8130:	eb000455 	bl	928c <gpio_read>
    8134:	e1500006 	cmp	r0, r6
    8138:	0afffff7 	beq	811c <read_while_eq+0x18>
    813c:	eb0003fc 	bl	9134 <timer_get_usec>
    8140:	e0400004 	sub	r0, r0, r4
    8144:	e2800001 	add	r0, r0, #1, 0
    8148:	e8bd81f0 	pop	{r4, r5, r6, r7, r8, pc}
    814c:	e3a00000 	mov	r0, #0, 0
    8150:	e8bd81f0 	pop	{r4, r5, r6, r7, r8, pc}

00008154 <get_readings>:
    8154:	e92d47f0 	push	{r4, r5, r6, r7, r8, r9, sl, lr}
    8158:	e1a09000 	mov	r9, r0
    815c:	e1a07001 	mov	r7, r1
    8160:	e1a08002 	mov	r8, r2
    8164:	e3a04000 	mov	r4, #0, 0
    8168:	e1a05004 	mov	r5, r4
    816c:	e1a06004 	mov	r6, r4
    8170:	e1540008 	cmp	r4, r8
    8174:	2a00000d 	bcs	81b0 <get_readings+0x5c>
    8178:	e0873184 	add	r3, r7, r4, lsl #3
    817c:	e5835004 	str	r5, [r3, #4]
    8180:	e59f2030 	ldr	r2, [pc, #48]	; 81b8 <get_readings+0x64>
    8184:	e1a01005 	mov	r1, r5
    8188:	e1a00009 	mov	r0, r9
    818c:	ebffffdc 	bl	8104 <read_while_eq>
    8190:	e7870184 	str	r0, [r7, r4, lsl #3]
    8194:	e3500000 	cmp	r0, #0, 0
    8198:	12866001 	addne	r6, r6, #1, 0
    819c:	12655001 	rsbne	r5, r5, #1, 0
    81a0:	12844001 	addne	r4, r4, #1, 0
    81a4:	1afffff1 	bne	8170 <get_readings+0x1c>
    81a8:	e1a00006 	mov	r0, r6
    81ac:	e8bd87f0 	pop	{r4, r5, r6, r7, r8, r9, sl, pc}
    81b0:	e1a00006 	mov	r0, r6
    81b4:	e8bd87f0 	pop	{r4, r5, r6, r7, r8, r9, sl, pc}
    81b8:	00003a98 	muleq	r0, r8, sl

000081bc <key_to_str>:
    81bc:	e92d4070 	push	{r4, r5, r6, lr}
    81c0:	e1a04000 	mov	r4, r0
    81c4:	e1a05001 	mov	r5, r1
    81c8:	e59f0174 	ldr	r0, [pc, #372]	; 8344 <key_to_str+0x188>
    81cc:	eb0001a5 	bl	8868 <printk>
    81d0:	e3550000 	cmp	r5, #0, 0
    81d4:	0a000003 	beq	81e8 <key_to_str+0x2c>
    81d8:	e3550001 	cmp	r5, #1, 0
    81dc:	0a000017 	beq	8240 <key_to_str+0x84>
    81e0:	e3a00000 	mov	r0, #0, 0
    81e4:	e8bd8070 	pop	{r4, r5, r6, pc}
    81e8:	e59f3158 	ldr	r3, [pc, #344]	; 8348 <key_to_str+0x18c>
    81ec:	e1540003 	cmp	r4, r3
    81f0:	0a00003b 	beq	82e4 <key_to_str+0x128>
    81f4:	9a000008 	bls	821c <key_to_str+0x60>
    81f8:	e59f314c 	ldr	r3, [pc, #332]	; 834c <key_to_str+0x190>
    81fc:	e1540003 	cmp	r4, r3
    8200:	0a00003b 	beq	82f4 <key_to_str+0x138>
    8204:	e283377f 	add	r3, r3, #33292288	; 0x1fc0000
    8208:	e2833802 	add	r3, r3, #131072	; 0x20000
    820c:	e1540003 	cmp	r4, r3
    8210:	1a00000a 	bne	8240 <key_to_str+0x84>
    8214:	e59f0134 	ldr	r0, [pc, #308]	; 8350 <key_to_str+0x194>
    8218:	e8bd8070 	pop	{r4, r5, r6, pc}
    821c:	e24337ff 	sub	r3, r3, #66846720	; 0x3fc0000
    8220:	e1540003 	cmp	r4, r3
    8224:	0a000030 	beq	82ec <key_to_str+0x130>
    8228:	e283377f 	add	r3, r3, #33292288	; 0x1fc0000
    822c:	e2833802 	add	r3, r3, #131072	; 0x20000
    8230:	e1540003 	cmp	r4, r3
    8234:	1a000001 	bne	8240 <key_to_str+0x84>
    8238:	e59f0114 	ldr	r0, [pc, #276]	; 8354 <key_to_str+0x198>
    823c:	e8bd8070 	pop	{r4, r5, r6, pc}
    8240:	e59f3110 	ldr	r3, [pc, #272]	; 8358 <key_to_str+0x19c>
    8244:	e1540003 	cmp	r4, r3
    8248:	0a00002b 	beq	82fc <key_to_str+0x140>
    824c:	9a000008 	bls	8274 <key_to_str+0xb8>
    8250:	e59f3104 	ldr	r3, [pc, #260]	; 835c <key_to_str+0x1a0>
    8254:	e1540003 	cmp	r4, r3
    8258:	0a000031 	beq	8324 <key_to_str+0x168>
    825c:	9a000016 	bls	82bc <key_to_str+0x100>
    8260:	e59f30f8 	ldr	r3, [pc, #248]	; 8360 <key_to_str+0x1a4>
    8264:	e1540003 	cmp	r4, r3
    8268:	1a000033 	bne	833c <key_to_str+0x180>
    826c:	e59f00dc 	ldr	r0, [pc, #220]	; 8350 <key_to_str+0x194>
    8270:	e8bd8070 	pop	{r4, r5, r6, pc}
    8274:	e28334e1 	add	r3, r3, #-520093696	; 0xe1000000
    8278:	e2833602 	add	r3, r3, #2097152	; 0x200000
    827c:	e1540003 	cmp	r4, r3
    8280:	0a00001f 	beq	8304 <key_to_str+0x148>
    8284:	9a000004 	bls	829c <key_to_str+0xe0>
    8288:	e59f30d4 	ldr	r3, [pc, #212]	; 8364 <key_to_str+0x1a8>
    828c:	e1540003 	cmp	r4, r3
    8290:	1a000021 	bne	831c <key_to_str+0x160>
    8294:	e59f00cc 	ldr	r0, [pc, #204]	; 8368 <key_to_str+0x1ac>
    8298:	e8bd8070 	pop	{r4, r5, r6, pc}
    829c:	e59f30c8 	ldr	r3, [pc, #200]	; 836c <key_to_str+0x1b0>
    82a0:	e1540003 	cmp	r4, r3
    82a4:	0a000018 	beq	830c <key_to_str+0x150>
    82a8:	e28336ff 	add	r3, r3, #267386880	; 0xff00000
    82ac:	e1540003 	cmp	r4, r3
    82b0:	1a000017 	bne	8314 <key_to_str+0x158>
    82b4:	e59f00b4 	ldr	r0, [pc, #180]	; 8370 <key_to_str+0x1b4>
    82b8:	e8bd8070 	pop	{r4, r5, r6, pc}
    82bc:	e283320a 	add	r3, r3, #-1610612736	; 0xa0000000
    82c0:	e2833606 	add	r3, r3, #6291456	; 0x600000
    82c4:	e1540003 	cmp	r4, r3
    82c8:	0a000017 	beq	832c <key_to_str+0x170>
    82cc:	e283357f 	add	r3, r3, #532676608	; 0x1fc00000
    82d0:	e2833602 	add	r3, r3, #2097152	; 0x200000
    82d4:	e1540003 	cmp	r4, r3
    82d8:	1a000015 	bne	8334 <key_to_str+0x178>
    82dc:	e59f0090 	ldr	r0, [pc, #144]	; 8374 <key_to_str+0x1b8>
    82e0:	e8bd8070 	pop	{r4, r5, r6, pc}
    82e4:	e59f008c 	ldr	r0, [pc, #140]	; 8378 <key_to_str+0x1bc>
    82e8:	e8bd8070 	pop	{r4, r5, r6, pc}
    82ec:	e59f0088 	ldr	r0, [pc, #136]	; 837c <key_to_str+0x1c0>
    82f0:	e8bd8070 	pop	{r4, r5, r6, pc}
    82f4:	e59f0084 	ldr	r0, [pc, #132]	; 8380 <key_to_str+0x1c4>
    82f8:	e8bd8070 	pop	{r4, r5, r6, pc}
    82fc:	e59f0074 	ldr	r0, [pc, #116]	; 8378 <key_to_str+0x1bc>
    8300:	e8bd8070 	pop	{r4, r5, r6, pc}
    8304:	e59f0078 	ldr	r0, [pc, #120]	; 8384 <key_to_str+0x1c8>
    8308:	e8bd8070 	pop	{r4, r5, r6, pc}
    830c:	e59f0074 	ldr	r0, [pc, #116]	; 8388 <key_to_str+0x1cc>
    8310:	e8bd8070 	pop	{r4, r5, r6, pc}
    8314:	e3a00000 	mov	r0, #0, 0
    8318:	e8bd8070 	pop	{r4, r5, r6, pc}
    831c:	e3a00000 	mov	r0, #0, 0
    8320:	e8bd8070 	pop	{r4, r5, r6, pc}
    8324:	e59f0060 	ldr	r0, [pc, #96]	; 838c <key_to_str+0x1d0>
    8328:	e8bd8070 	pop	{r4, r5, r6, pc}
    832c:	e59f004c 	ldr	r0, [pc, #76]	; 8380 <key_to_str+0x1c4>
    8330:	e8bd8070 	pop	{r4, r5, r6, pc}
    8334:	e3a00000 	mov	r0, #0, 0
    8338:	e8bd8070 	pop	{r4, r5, r6, pc}
    833c:	e3a00000 	mov	r0, #0, 0
    8340:	e8bd8070 	pop	{r4, r5, r6, pc}
    8344:	000097c8 	andeq	r9, r0, r8, asr #15
    8348:	19e637e2 	stmibne	r6!, {r1, r5, r6, r7, r8, r9, sl, ip, sp}^
    834c:	1be437e2 	blne	ff9162dc <__bss_end__+0xff90bb9c>
    8350:	00009780 	andeq	r9, r0, r0, lsl #15
    8354:	0000974c 	andeq	r9, r0, ip, asr #14
    8358:	77800f30 			; <UNDEFINED> instruction: 0x77800f30
    835c:	e7100f30 			; <UNDEFINED> instruction: 0xe7100f30
    8360:	f7000f30 			; <UNDEFINED> instruction: 0xf7000f30
    8364:	68900f30 	ldmvs	r0, {r4, r5, r8, r9, sl, fp}
    8368:	0000978c 	andeq	r9, r0, ip, lsl #15
    836c:	38c00f30 	stmiacc	r0, {r4, r5, r8, r9, sl, fp}^
    8370:	00009798 	muleq	r0, r8, r7
    8374:	00009768 	andeq	r9, r0, r8, ror #14
    8378:	0000975c 	andeq	r9, r0, ip, asr r7
    837c:	00009754 	andeq	r9, r0, r4, asr r7
    8380:	00009740 	andeq	r9, r0, r0, asr #14
    8384:	000097b8 			; <UNDEFINED> instruction: 0x000097b8
    8388:	000097a4 	andeq	r9, r0, r4, lsr #15
    838c:	00009774 	andeq	r9, r0, r4, ror r7

00008390 <is_header>:
    8390:	e3510001 	cmp	r1, #1, 0
    8394:	9a000021 	bls	8420 <is_header+0x90>
    8398:	e92d4010 	push	{r4, lr}
    839c:	e1a04000 	mov	r4, r0
    83a0:	e3520000 	cmp	r2, #0, 0
    83a4:	0a000003 	beq	83b8 <is_header+0x28>
    83a8:	e3520001 	cmp	r2, #1, 0
    83ac:	0a00000d 	beq	83e8 <is_header+0x58>
    83b0:	e3a00000 	mov	r0, #0, 0
    83b4:	e8bd8010 	pop	{r4, pc}
    83b8:	e3a020c8 	mov	r2, #200, 0	; 0xc8
    83bc:	e5901000 	ldr	r1, [r0]
    83c0:	e59f0068 	ldr	r0, [pc, #104]	; 8430 <is_header+0xa0>
    83c4:	ebffff1e 	bl	8044 <within>
    83c8:	e3500000 	cmp	r0, #0, 0
    83cc:	0a000005 	beq	83e8 <is_header+0x58>
    83d0:	e3a020c8 	mov	r2, #200, 0	; 0xc8
    83d4:	e5941008 	ldr	r1, [r4, #8]
    83d8:	e59f0054 	ldr	r0, [pc, #84]	; 8434 <is_header+0xa4>
    83dc:	ebffff18 	bl	8044 <within>
    83e0:	e3500000 	cmp	r0, #0, 0
    83e4:	1a00000f 	bne	8428 <is_header+0x98>
    83e8:	e3a020c8 	mov	r2, #200, 0	; 0xc8
    83ec:	e5941000 	ldr	r1, [r4]
    83f0:	e59f003c 	ldr	r0, [pc, #60]	; 8434 <is_header+0xa4>
    83f4:	ebffff12 	bl	8044 <within>
    83f8:	e3500000 	cmp	r0, #0, 0
    83fc:	08bd8010 	popeq	{r4, pc}
    8400:	e3a020c8 	mov	r2, #200, 0	; 0xc8
    8404:	e5941008 	ldr	r1, [r4, #8]
    8408:	e59f0024 	ldr	r0, [pc, #36]	; 8434 <is_header+0xa4>
    840c:	ebffff0c 	bl	8044 <within>
    8410:	e3500000 	cmp	r0, #0, 0
    8414:	08bd8010 	popeq	{r4, pc}
    8418:	e3a00001 	mov	r0, #1, 0
    841c:	e8bd8010 	pop	{r4, pc}
    8420:	e3a00000 	mov	r0, #0, 0
    8424:	e12fff1e 	bx	lr
    8428:	e3a00001 	mov	r0, #1, 0
    842c:	e8bd8010 	pop	{r4, pc}
    8430:	00002328 	andeq	r2, r0, r8, lsr #6
    8434:	00001194 	muleq	r0, r4, r1

00008438 <print_readings>:
    8438:	e92d40f0 	push	{r4, r5, r6, r7, lr}
    843c:	e24dd00c 	sub	sp, sp, #12, 0
    8440:	e2516000 	subs	r6, r1, #0, 0
    8444:	0a000005 	beq	8460 <print_readings+0x28>
    8448:	e1a05000 	mov	r5, r0
    844c:	e1a07002 	mov	r7, r2
    8450:	e59f00b8 	ldr	r0, [pc, #184]	; 8510 <print_readings+0xd8>
    8454:	eb000103 	bl	8868 <printk>
    8458:	e3a04000 	mov	r4, #0, 0
    845c:	ea00000e 	b	849c <print_readings+0x64>
    8460:	e59f30ac 	ldr	r3, [pc, #172]	; 8514 <print_readings+0xdc>
    8464:	e58d3000 	str	r3, [sp]
    8468:	e3a030aa 	mov	r3, #170, 0	; 0xaa
    846c:	e59f20a4 	ldr	r2, [pc, #164]	; 8518 <print_readings+0xe0>
    8470:	e59f10a4 	ldr	r1, [pc, #164]	; 851c <print_readings+0xe4>
    8474:	e59f00a4 	ldr	r0, [pc, #164]	; 8520 <print_readings+0xe8>
    8478:	eb0000fa 	bl	8868 <printk>
    847c:	eb0002ec 	bl	9034 <clean_reboot>
    8480:	e0851184 	add	r1, r5, r4, lsl #3
    8484:	e7953184 	ldr	r3, [r5, r4, lsl #3]
    8488:	e5912004 	ldr	r2, [r1, #4]
    848c:	e1a01004 	mov	r1, r4
    8490:	e59f008c 	ldr	r0, [pc, #140]	; 8524 <print_readings+0xec>
    8494:	eb0000f3 	bl	8868 <printk>
    8498:	e2844001 	add	r4, r4, #1, 0
    849c:	e1540006 	cmp	r4, r6
    84a0:	aa00000f 	bge	84e4 <print_readings+0xac>
    84a4:	e3540000 	cmp	r4, #0, 0
    84a8:	0afffff4 	beq	8480 <print_readings+0x48>
    84ac:	e1a02007 	mov	r2, r7
    84b0:	e0461004 	sub	r1, r6, r4
    84b4:	e0850184 	add	r0, r5, r4, lsl #3
    84b8:	ebffffb4 	bl	8390 <is_header>
    84bc:	e3500000 	cmp	r0, #0, 0
    84c0:	0affffee 	beq	8480 <print_readings+0x48>
    84c4:	e59f305c 	ldr	r3, [pc, #92]	; 8528 <print_readings+0xf0>
    84c8:	e58d3000 	str	r3, [sp]
    84cc:	e3a030ae 	mov	r3, #174, 0	; 0xae
    84d0:	e59f2040 	ldr	r2, [pc, #64]	; 8518 <print_readings+0xe0>
    84d4:	e59f1040 	ldr	r1, [pc, #64]	; 851c <print_readings+0xe4>
    84d8:	e59f0040 	ldr	r0, [pc, #64]	; 8520 <print_readings+0xe8>
    84dc:	eb0000e1 	bl	8868 <printk>
    84e0:	eb0002d3 	bl	9034 <clean_reboot>
    84e4:	e1a02007 	mov	r2, r7
    84e8:	e1a01006 	mov	r1, r6
    84ec:	e1a00005 	mov	r0, r5
    84f0:	ebffffa6 	bl	8390 <is_header>
    84f4:	e3500000 	cmp	r0, #0, 0
    84f8:	0a000001 	beq	8504 <print_readings+0xcc>
    84fc:	e28dd00c 	add	sp, sp, #12, 0
    8500:	e8bd80f0 	pop	{r4, r5, r6, r7, pc}
    8504:	e59f0020 	ldr	r0, [pc, #32]	; 852c <print_readings+0xf4>
    8508:	eb0000d6 	bl	8868 <printk>
    850c:	eafffffa 	b	84fc <print_readings+0xc4>
    8510:	00009804 	andeq	r9, r0, r4, lsl #16
    8514:	00009800 	andeq	r9, r0, r0, lsl #16
    8518:	000098f8 	strdeq	r9, [r0], -r8
    851c:	00009700 	andeq	r9, r0, r0, lsl #14
    8520:	000097ec 	andeq	r9, r0, ip, ror #15
    8524:	00009864 	andeq	r9, r0, r4, ror #16
    8528:	00009840 	andeq	r9, r0, r0, asr #16
    852c:	00009878 	andeq	r9, r0, r8, ror r8

00008530 <convert_nec>:
    8530:	e92d40f0 	push	{r4, r5, r6, r7, lr}
    8534:	e24dd00c 	sub	sp, sp, #12, 0
    8538:	e1a06000 	mov	r6, r0
    853c:	e1a05001 	mov	r5, r1
    8540:	e3a02000 	mov	r2, #0, 0
    8544:	ebffff91 	bl	8390 <is_header>
    8548:	e3500000 	cmp	r0, #0, 0
    854c:	0a000033 	beq	8620 <convert_nec+0xf0>
    8550:	e3550004 	cmp	r5, #4, 0
    8554:	9a000006 	bls	8574 <convert_nec+0x44>
    8558:	e2860010 	add	r0, r6, #16, 0
    855c:	ebfffec0 	bl	8064 <is_skip>
    8560:	e3500000 	cmp	r0, #0, 0
    8564:	0a00000a 	beq	8594 <convert_nec+0x64>
    8568:	e3a04003 	mov	r4, #3, 0
    856c:	e3a07000 	mov	r7, #0, 0
    8570:	ea000019 	b	85dc <convert_nec+0xac>
    8574:	e59f30b4 	ldr	r3, [pc, #180]	; 8630 <convert_nec+0x100>
    8578:	e58d3000 	str	r3, [sp]
    857c:	e3a0307a 	mov	r3, #122, 0	; 0x7a
    8580:	e59f20ac 	ldr	r2, [pc, #172]	; 8634 <convert_nec+0x104>
    8584:	e59f10ac 	ldr	r1, [pc, #172]	; 8638 <convert_nec+0x108>
    8588:	e59f00ac 	ldr	r0, [pc, #172]	; 863c <convert_nec+0x10c>
    858c:	eb0000b5 	bl	8868 <printk>
    8590:	eb0002a7 	bl	9034 <clean_reboot>
    8594:	e59f30a4 	ldr	r3, [pc, #164]	; 8640 <convert_nec+0x110>
    8598:	e58d3000 	str	r3, [sp]
    859c:	e3a0307b 	mov	r3, #123, 0	; 0x7b
    85a0:	e59f208c 	ldr	r2, [pc, #140]	; 8634 <convert_nec+0x104>
    85a4:	e59f108c 	ldr	r1, [pc, #140]	; 8638 <convert_nec+0x108>
    85a8:	e59f008c 	ldr	r0, [pc, #140]	; 863c <convert_nec+0x10c>
    85ac:	eb0000ad 	bl	8868 <printk>
    85b0:	eb00029f 	bl	9034 <clean_reboot>
    85b4:	e3a02d19 	mov	r2, #1600	; 0x640
    85b8:	e3a01f96 	mov	r1, #600	; 0x258
    85bc:	e0860180 	add	r0, r6, r0, lsl #3
    85c0:	ebfffead 	bl	807c <pick>
    85c4:	e3500000 	cmp	r0, #0, 0
    85c8:	10843fa4 	addne	r3, r4, r4, lsr #31
    85cc:	11a030c3 	asrne	r3, r3, #1
    85d0:	13a02001 	movne	r2, #1, 0
    85d4:	11877312 	orrne	r7, r7, r2, lsl r3
    85d8:	e2844001 	add	r4, r4, #1, 0
    85dc:	e1a00004 	mov	r0, r4
    85e0:	e1540005 	cmp	r4, r5
    85e4:	2a00000e 	bcs	8624 <convert_nec+0xf4>
    85e8:	e3140001 	tst	r4, #1, 0
    85ec:	1afffff0 	bne	85b4 <convert_nec+0x84>
    85f0:	e0860180 	add	r0, r6, r0, lsl #3
    85f4:	ebfffe9a 	bl	8064 <is_skip>
    85f8:	e3500000 	cmp	r0, #0, 0
    85fc:	1afffff5 	bne	85d8 <convert_nec+0xa8>
    8600:	e59f303c 	ldr	r3, [pc, #60]	; 8644 <convert_nec+0x114>
    8604:	e58d3000 	str	r3, [sp]
    8608:	e3a03081 	mov	r3, #129, 0	; 0x81
    860c:	e59f2020 	ldr	r2, [pc, #32]	; 8634 <convert_nec+0x104>
    8610:	e59f1020 	ldr	r1, [pc, #32]	; 8638 <convert_nec+0x108>
    8614:	e59f0020 	ldr	r0, [pc, #32]	; 863c <convert_nec+0x10c>
    8618:	eb000092 	bl	8868 <printk>
    861c:	eb000284 	bl	9034 <clean_reboot>
    8620:	e3a07000 	mov	r7, #0, 0
    8624:	e1a00007 	mov	r0, r7
    8628:	e28dd00c 	add	sp, sp, #12, 0
    862c:	e8bd80f0 	pop	{r4, r5, r6, r7, pc}
    8630:	00009880 	andeq	r9, r0, r0, lsl #17
    8634:	00009908 	andeq	r9, r0, r8, lsl #18
    8638:	00009700 	andeq	r9, r0, r0, lsl #14
    863c:	000097ec 	andeq	r9, r0, ip, ror #15
    8640:	00009888 	andeq	r9, r0, r8, lsl #17
    8644:	00009898 	muleq	r0, r8, r8

00008648 <convert_generic>:
    8648:	e92d41f0 	push	{r4, r5, r6, r7, r8, lr}
    864c:	e24dd008 	sub	sp, sp, #8, 0
    8650:	e1a06000 	mov	r6, r0
    8654:	e1a05001 	mov	r5, r1
    8658:	e3a02001 	mov	r2, #1, 0
    865c:	ebffff4b 	bl	8390 <is_header>
    8660:	e3500000 	cmp	r0, #0, 0
    8664:	0a000035 	beq	8740 <convert_generic+0xf8>
    8668:	e3550004 	cmp	r5, #4, 0
    866c:	9a000007 	bls	8690 <convert_generic+0x48>
    8670:	e2860010 	add	r0, r6, #16, 0
    8674:	ebfffe7a 	bl	8064 <is_skip>
    8678:	e3500000 	cmp	r0, #0, 0
    867c:	0a00000b 	beq	86b0 <convert_generic+0x68>
    8680:	e3a04003 	mov	r4, #3, 0
    8684:	e3a07000 	mov	r7, #0, 0
    8688:	e1a08007 	mov	r8, r7
    868c:	ea000018 	b	86f4 <convert_generic+0xac>
    8690:	e59f30b8 	ldr	r3, [pc, #184]	; 8750 <convert_generic+0x108>
    8694:	e58d3000 	str	r3, [sp]
    8698:	e3a03090 	mov	r3, #144, 0	; 0x90
    869c:	e59f20b0 	ldr	r2, [pc, #176]	; 8754 <convert_generic+0x10c>
    86a0:	e59f10b0 	ldr	r1, [pc, #176]	; 8758 <convert_generic+0x110>
    86a4:	e59f00b0 	ldr	r0, [pc, #176]	; 875c <convert_generic+0x114>
    86a8:	eb00006e 	bl	8868 <printk>
    86ac:	eb000260 	bl	9034 <clean_reboot>
    86b0:	e59f30a8 	ldr	r3, [pc, #168]	; 8760 <convert_generic+0x118>
    86b4:	e58d3000 	str	r3, [sp]
    86b8:	e3a03091 	mov	r3, #145, 0	; 0x91
    86bc:	e59f2090 	ldr	r2, [pc, #144]	; 8754 <convert_generic+0x10c>
    86c0:	e59f1090 	ldr	r1, [pc, #144]	; 8758 <convert_generic+0x110>
    86c4:	e59f0090 	ldr	r0, [pc, #144]	; 875c <convert_generic+0x114>
    86c8:	eb000066 	bl	8868 <printk>
    86cc:	eb000258 	bl	9034 <clean_reboot>
    86d0:	e59f208c 	ldr	r2, [pc, #140]	; 8764 <convert_generic+0x11c>
    86d4:	e3a01e19 	mov	r1, #400	; 0x190
    86d8:	e0860180 	add	r0, r6, r0, lsl #3
    86dc:	ebfffe66 	bl	807c <pick>
    86e0:	e3500000 	cmp	r0, #0, 0
    86e4:	13a03001 	movne	r3, #1, 0
    86e8:	11888713 	orrne	r8, r8, r3, lsl r7
    86ec:	e2877001 	add	r7, r7, #1, 0
    86f0:	e2844001 	add	r4, r4, #1, 0
    86f4:	e1a00004 	mov	r0, r4
    86f8:	e1540005 	cmp	r4, r5
    86fc:	2a000010 	bcs	8744 <convert_generic+0xfc>
    8700:	e3540023 	cmp	r4, #35, 0	; 0x23
    8704:	0afffff9 	beq	86f0 <convert_generic+0xa8>
    8708:	e3100001 	tst	r0, #1, 0
    870c:	1affffef 	bne	86d0 <convert_generic+0x88>
    8710:	e0860180 	add	r0, r6, r0, lsl #3
    8714:	ebfffe52 	bl	8064 <is_skip>
    8718:	e3500000 	cmp	r0, #0, 0
    871c:	1afffff3 	bne	86f0 <convert_generic+0xa8>
    8720:	e59f3040 	ldr	r3, [pc, #64]	; 8768 <convert_generic+0x120>
    8724:	e58d3000 	str	r3, [sp]
    8728:	e3a0309b 	mov	r3, #155, 0	; 0x9b
    872c:	e59f2020 	ldr	r2, [pc, #32]	; 8754 <convert_generic+0x10c>
    8730:	e59f1020 	ldr	r1, [pc, #32]	; 8758 <convert_generic+0x110>
    8734:	e59f0020 	ldr	r0, [pc, #32]	; 875c <convert_generic+0x114>
    8738:	eb00004a 	bl	8868 <printk>
    873c:	eb00023c 	bl	9034 <clean_reboot>
    8740:	e3a08000 	mov	r8, #0, 0
    8744:	e1a00008 	mov	r0, r8
    8748:	e28dd008 	add	sp, sp, #8, 0
    874c:	e8bd81f0 	pop	{r4, r5, r6, r7, r8, pc}
    8750:	00009880 	andeq	r9, r0, r0, lsl #17
    8754:	00009914 	andeq	r9, r0, r4, lsl r9
    8758:	00009700 	andeq	r9, r0, r0, lsl #14
    875c:	000097ec 	andeq	r9, r0, ip, ror #15
    8760:	00009888 	andeq	r9, r0, r8, lsl #17
    8764:	00000578 	andeq	r0, r0, r8, ror r5
    8768:	00009898 	muleq	r0, r8, r8

0000876c <tsop_init>:
    876c:	e92d4010 	push	{r4, lr}
    8770:	eb00038e 	bl	95b0 <gpio_set_pullup>
    8774:	e3a00001 	mov	r0, #1, 0
    8778:	e8bd8010 	pop	{r4, pc}

0000877c <notmain>:
    877c:	e92d4070 	push	{r4, r5, r6, lr}
    8780:	e3a00015 	mov	r0, #21, 0
    8784:	ebfffff8 	bl	876c <tsop_init>
    8788:	e59f00bc 	ldr	r0, [pc, #188]	; 884c <notmain+0xd0>
    878c:	eb000035 	bl	8868 <printk>
    8790:	ea000009 	b	87bc <notmain+0x40>
    8794:	e1a01005 	mov	r1, r5
    8798:	e59f00b0 	ldr	r0, [pc, #176]	; 8850 <notmain+0xd4>
    879c:	ebffffa9 	bl	8648 <convert_generic>
    87a0:	e1a04000 	mov	r4, r0
    87a4:	ea000015 	b	8800 <notmain+0x84>
    87a8:	eb000221 	bl	9034 <clean_reboot>
    87ac:	e1a02006 	mov	r2, r6
    87b0:	e1a01005 	mov	r1, r5
    87b4:	e59f0094 	ldr	r0, [pc, #148]	; 8850 <notmain+0xd4>
    87b8:	ebffff1e 	bl	8438 <print_readings>
    87bc:	e3a00015 	mov	r0, #21, 0
    87c0:	eb0002b1 	bl	928c <gpio_read>
    87c4:	e3500000 	cmp	r0, #0, 0
    87c8:	1afffffb 	bne	87bc <notmain+0x40>
    87cc:	e3a02c01 	mov	r2, #256	; 0x100
    87d0:	e59f1078 	ldr	r1, [pc, #120]	; 8850 <notmain+0xd4>
    87d4:	e3a00015 	mov	r0, #21, 0
    87d8:	ebfffe5d 	bl	8154 <get_readings>
    87dc:	e1a05000 	mov	r5, r0
    87e0:	e59f006c 	ldr	r0, [pc, #108]	; 8854 <notmain+0xd8>
    87e4:	eb00001f 	bl	8868 <printk>
    87e8:	e355004d 	cmp	r5, #77, 0	; 0x4d
    87ec:	0affffe8 	beq	8794 <notmain+0x18>
    87f0:	e1a01005 	mov	r1, r5
    87f4:	e59f0054 	ldr	r0, [pc, #84]	; 8850 <notmain+0xd4>
    87f8:	ebffff4c 	bl	8530 <convert_nec>
    87fc:	e1a04000 	mov	r4, r0
    8800:	e355004d 	cmp	r5, #77, 0	; 0x4d
    8804:	13a06000 	movne	r6, #0, 0
    8808:	03a06001 	moveq	r6, #1, 0
    880c:	e1a01004 	mov	r1, r4
    8810:	e59f0040 	ldr	r0, [pc, #64]	; 8858 <notmain+0xdc>
    8814:	eb000013 	bl	8868 <printk>
    8818:	e59f203c 	ldr	r2, [pc, #60]	; 885c <notmain+0xe0>
    881c:	e59f303c 	ldr	r3, [pc, #60]	; 8860 <notmain+0xe4>
    8820:	e1540003 	cmp	r4, r3
    8824:	11540002 	cmpne	r4, r2
    8828:	0affffde 	beq	87a8 <notmain+0x2c>
    882c:	e1a01006 	mov	r1, r6
    8830:	e1a00004 	mov	r0, r4
    8834:	ebfffe60 	bl	81bc <key_to_str>
    8838:	e2501000 	subs	r1, r0, #0, 0
    883c:	0affffda 	beq	87ac <notmain+0x30>
    8840:	e59f001c 	ldr	r0, [pc, #28]	; 8864 <notmain+0xe8>
    8844:	eb000007 	bl	8868 <printk>
    8848:	eaffffdb 	b	87bc <notmain+0x40>
    884c:	000098a8 	andeq	r9, r0, r8, lsr #17
    8850:	00009b3c 	andeq	r9, r0, ip, lsr fp
    8854:	000098c0 	andeq	r9, r0, r0, asr #17
    8858:	000098d8 	ldrdeq	r9, [r0], -r8
    885c:	f7000f30 			; <UNDEFINED> instruction: 0xf7000f30
    8860:	1de237e2 	stclne	7, cr3, [r2, #904]!	; 0x388
    8864:	000098ec 	andeq	r9, r0, ip, ror #17

00008868 <printk>:
    8868:	e92d000f 	push	{r0, r1, r2, r3}
    886c:	e92d4030 	push	{r4, r5, lr}
    8870:	e24dd00c 	sub	sp, sp, #12, 0
    8874:	e28d301c 	add	r3, sp, #28, 0
    8878:	e58d3004 	str	r3, [sp, #4]
    887c:	e59f5034 	ldr	r5, [pc, #52]	; 88b8 <printk+0x50>
    8880:	e59d2018 	ldr	r2, [sp, #24]
    8884:	e3a01b01 	mov	r1, #1024	; 0x400
    8888:	e1a00005 	mov	r0, r5
    888c:	eb0000ba 	bl	8b7c <va_printk>
    8890:	e1a04000 	mov	r4, r0
    8894:	e59f3020 	ldr	r3, [pc, #32]	; 88bc <printk+0x54>
    8898:	e5933000 	ldr	r3, [r3]
    889c:	e1a00005 	mov	r0, r5
    88a0:	e12fff33 	blx	r3
    88a4:	e1a00004 	mov	r0, r4
    88a8:	e28dd00c 	add	sp, sp, #12, 0
    88ac:	e8bd4030 	pop	{r4, r5, lr}
    88b0:	e28dd010 	add	sp, sp, #16, 0
    88b4:	e12fff1e 	bx	lr
    88b8:	0000a33c 	andeq	sl, r0, ip, lsr r3
    88bc:	00009b34 	andeq	r9, r0, r4, lsr fp

000088c0 <internal_putk>:
    88c0:	e92d4010 	push	{r4, lr}
    88c4:	e1a04000 	mov	r4, r0
    88c8:	e5d40000 	ldrb	r0, [r4]
    88cc:	e3500000 	cmp	r0, #0, 0
    88d0:	0a000004 	beq	88e8 <internal_putk+0x28>
    88d4:	e59f3014 	ldr	r3, [pc, #20]	; 88f0 <internal_putk+0x30>
    88d8:	e5933000 	ldr	r3, [r3]
    88dc:	e12fff33 	blx	r3
    88e0:	e2844001 	add	r4, r4, #1, 0
    88e4:	eafffff7 	b	88c8 <internal_putk+0x8>
    88e8:	e3a00001 	mov	r0, #1, 0
    88ec:	e8bd8010 	pop	{r4, pc}
    88f0:	00009b38 	andeq	r9, r0, r8, lsr fp

000088f4 <isdigit>:
    88f4:	e2400030 	sub	r0, r0, #48, 0	; 0x30
    88f8:	e3500009 	cmp	r0, #9, 0
    88fc:	83a00000 	movhi	r0, #0, 0
    8900:	93a00001 	movls	r0, #1, 0
    8904:	e12fff1e 	bx	lr

00008908 <pad>:
    8908:	e0401001 	sub	r1, r0, r1
    890c:	e1510002 	cmp	r1, r2
    8910:	b3a03020 	movlt	r3, #32, 0
    8914:	b4c03001 	strblt	r3, [r0], #1
    8918:	b2811001 	addlt	r1, r1, #1, 0
    891c:	bafffffa 	blt	890c <pad+0x4>
    8920:	e3a03000 	mov	r3, #0, 0
    8924:	e5c03000 	strb	r3, [r0]
    8928:	e12fff1e 	bx	lr

0000892c <reverse>:
    892c:	e042c003 	sub	ip, r2, r3
    8930:	e28cc001 	add	ip, ip, #1, 0
    8934:	e15c0001 	cmp	ip, r1
    8938:	c04cc001 	subgt	ip, ip, r1
    893c:	c083300c 	addgt	r3, r3, ip
    8940:	e2421001 	sub	r1, r2, #1, 0
    8944:	e1a02000 	mov	r2, r0
    8948:	e1510003 	cmp	r1, r3
    894c:	2451c001 	ldrbcs	ip, [r1], #-1
    8950:	24c2c001 	strbcs	ip, [r2], #1
    8954:	2afffffb 	bcs	8948 <reverse+0x1c>
    8958:	e3a03000 	mov	r3, #0, 0
    895c:	e5c23000 	strb	r3, [r2]
    8960:	e12fff1e 	bx	lr

00008964 <emit>:
    8964:	e92d40f0 	push	{r4, r5, r6, r7, lr}
    8968:	e24dd04c 	sub	sp, sp, #76, 0	; 0x4c
    896c:	e1a05001 	mov	r5, r1
    8970:	e1a04002 	mov	r4, r2
    8974:	e59d2060 	ldr	r2, [sp, #96]	; 0x60
    8978:	e1520004 	cmp	r2, r4
    897c:	c2442001 	subgt	r2, r4, #1, 0
    8980:	e1a0c003 	mov	ip, r3
    8984:	e2400002 	sub	r0, r0, #2, 0
    8988:	e350000e 	cmp	r0, #14, 0
    898c:	979ff100 	ldrls	pc, [pc, r0, lsl #2]
    8990:	ea000050 	b	8ad8 <emit+0x174>
    8994:	00008ab0 			; <UNDEFINED> instruction: 0x00008ab0
    8998:	00008ad8 	ldrdeq	r8, [r0], -r8	; <UNPREDICTABLE>
    899c:	00008ad8 	ldrdeq	r8, [r0], -r8	; <UNPREDICTABLE>
    89a0:	00008ad8 	ldrdeq	r8, [r0], -r8	; <UNPREDICTABLE>
    89a4:	00008ad8 	ldrdeq	r8, [r0], -r8	; <UNPREDICTABLE>
    89a8:	00008ad8 	ldrdeq	r8, [r0], -r8	; <UNPREDICTABLE>
    89ac:	00008aa4 	andeq	r8, r0, r4, lsr #21
    89b0:	00008ad8 	ldrdeq	r8, [r0], -r8	; <UNPREDICTABLE>
    89b4:	000089d0 	ldrdeq	r8, [r0], -r0
    89b8:	00008ad8 	ldrdeq	r8, [r0], -r8	; <UNPREDICTABLE>
    89bc:	00008ad8 	ldrdeq	r8, [r0], -r8	; <UNPREDICTABLE>
    89c0:	00008ad8 	ldrdeq	r8, [r0], -r8	; <UNPREDICTABLE>
    89c4:	00008ad8 	ldrdeq	r8, [r0], -r8	; <UNPREDICTABLE>
    89c8:	00008ad8 	ldrdeq	r8, [r0], -r8	; <UNPREDICTABLE>
    89cc:	00008a48 	andeq	r8, r0, r8, asr #20
    89d0:	e59d1064 	ldr	r1, [sp, #100]	; 0x64
    89d4:	e2511000 	subs	r1, r1, #0, 0
    89d8:	13a01001 	movne	r1, #1, 0
    89dc:	e0111fa3 	ands	r1, r1, r3, lsr #31
    89e0:	0a000016 	beq	8a40 <emit+0xdc>
    89e4:	e263c000 	rsb	ip, r3, #0, 0
    89e8:	e3a06001 	mov	r6, #1, 0
    89ec:	e28d0008 	add	r0, sp, #8, 0
    89f0:	e59f3100 	ldr	r3, [pc, #256]	; 8af8 <emit+0x194>
    89f4:	e0831c93 	umull	r1, r3, r3, ip
    89f8:	e1a031a3 	lsr	r3, r3, #3
    89fc:	e1a0e003 	mov	lr, r3
    8a00:	e0833103 	add	r3, r3, r3, lsl #2
    8a04:	e04c3083 	sub	r3, ip, r3, lsl #1
    8a08:	e1a01000 	mov	r1, r0
    8a0c:	e2800001 	add	r0, r0, #1, 0
    8a10:	e59f70e4 	ldr	r7, [pc, #228]	; 8afc <emit+0x198>
    8a14:	e7d73003 	ldrb	r3, [r7, r3]
    8a18:	e5c13000 	strb	r3, [r1]
    8a1c:	e1a0300c 	mov	r3, ip
    8a20:	e1a0c00e 	mov	ip, lr
    8a24:	e3530009 	cmp	r3, #9, 0
    8a28:	8afffff0 	bhi	89f0 <emit+0x8c>
    8a2c:	e3560000 	cmp	r6, #0, 0
    8a30:	13a0302d 	movne	r3, #45, 0	; 0x2d
    8a34:	15c03000 	strbne	r3, [r0]
    8a38:	12810002 	addne	r0, r1, #2, 0
    8a3c:	ea00000f 	b	8a80 <emit+0x11c>
    8a40:	e3a06000 	mov	r6, #0, 0
    8a44:	eaffffe8 	b	89ec <emit+0x88>
    8a48:	e28d1008 	add	r1, sp, #8, 0
    8a4c:	e20c000f 	and	r0, ip, #15, 0
    8a50:	e59fe0a8 	ldr	lr, [pc, #168]	; 8b00 <emit+0x19c>
    8a54:	e7de0000 	ldrb	r0, [lr, r0]
    8a58:	e5c10000 	strb	r0, [r1]
    8a5c:	e2811001 	add	r1, r1, #1, 0
    8a60:	e35c000f 	cmp	ip, #15, 0
    8a64:	e1a0c22c 	lsr	ip, ip, #4
    8a68:	8afffff7 	bhi	8a4c <emit+0xe8>
    8a6c:	e1a00001 	mov	r0, r1
    8a70:	e3a03078 	mov	r3, #120, 0	; 0x78
    8a74:	e4c03002 	strb	r3, [r0], #2
    8a78:	e3a03030 	mov	r3, #48, 0	; 0x30
    8a7c:	e5c13001 	strb	r3, [r1, #1]
    8a80:	e28d1008 	add	r1, sp, #8, 0
    8a84:	ebffff9f 	bl	8908 <pad>
    8a88:	e1a02000 	mov	r2, r0
    8a8c:	e28d3008 	add	r3, sp, #8, 0
    8a90:	e1a01004 	mov	r1, r4
    8a94:	e1a00005 	mov	r0, r5
    8a98:	ebffffa3 	bl	892c <reverse>
    8a9c:	e28dd04c 	add	sp, sp, #76, 0	; 0x4c
    8aa0:	e8bd80f0 	pop	{r4, r5, r6, r7, pc}
    8aa4:	e5cd3008 	strb	r3, [sp, #8]
    8aa8:	e28d0009 	add	r0, sp, #9, 0
    8aac:	eafffff3 	b	8a80 <emit+0x11c>
    8ab0:	e28d0008 	add	r0, sp, #8, 0
    8ab4:	e20c1001 	and	r1, ip, #1, 0
    8ab8:	e59fe044 	ldr	lr, [pc, #68]	; 8b04 <emit+0x1a0>
    8abc:	e7de1001 	ldrb	r1, [lr, r1]
    8ac0:	e5c01000 	strb	r1, [r0]
    8ac4:	e2800001 	add	r0, r0, #1, 0
    8ac8:	e35c0001 	cmp	ip, #1, 0
    8acc:	e1a0c0ac 	lsr	ip, ip, #1
    8ad0:	8afffff7 	bhi	8ab4 <emit+0x150>
    8ad4:	eaffffe9 	b	8a80 <emit+0x11c>
    8ad8:	e59f3028 	ldr	r3, [pc, #40]	; 8b08 <emit+0x1a4>
    8adc:	e58d3000 	str	r3, [sp]
    8ae0:	e3a03079 	mov	r3, #121, 0	; 0x79
    8ae4:	e59f2020 	ldr	r2, [pc, #32]	; 8b0c <emit+0x1a8>
    8ae8:	e59f1020 	ldr	r1, [pc, #32]	; 8b10 <emit+0x1ac>
    8aec:	e59f0020 	ldr	r0, [pc, #32]	; 8b14 <emit+0x1b0>
    8af0:	ebffff5c 	bl	8868 <printk>
    8af4:	eb00014e 	bl	9034 <clean_reboot>
    8af8:	cccccccd 	stclgt	12, cr12, [ip], {205}	; 0xcd
    8afc:	00009950 	andeq	r9, r0, r0, asr r9
    8b00:	0000995c 	andeq	r9, r0, ip, asr r9
    8b04:	00009970 	andeq	r9, r0, r0, ror r9
    8b08:	0000994c 	andeq	r9, r0, ip, asr #18
    8b0c:	00009a7c 	andeq	r9, r0, ip, ror sl
    8b10:	00009938 	andeq	r9, r0, r8, lsr r9
    8b14:	000097ec 	andeq	r9, r0, ip, ror #15

00008b18 <rpi_set_output>:
    8b18:	e3500000 	cmp	r0, #0, 0
    8b1c:	0a000006 	beq	8b3c <rpi_set_output+0x24>
    8b20:	e59f303c 	ldr	r3, [pc, #60]	; 8b64 <rpi_set_output+0x4c>
    8b24:	e5830000 	str	r0, [r3]
    8b28:	e3510000 	cmp	r1, #0, 0
    8b2c:	012fff1e 	bxeq	lr
    8b30:	e59f3030 	ldr	r3, [pc, #48]	; 8b68 <rpi_set_output+0x50>
    8b34:	e5831000 	str	r1, [r3]
    8b38:	e12fff1e 	bx	lr
    8b3c:	e52de004 	push	{lr}		; (str lr, [sp, #-4]!)
    8b40:	e24dd00c 	sub	sp, sp, #12, 0
    8b44:	e59f3020 	ldr	r3, [pc, #32]	; 8b6c <rpi_set_output+0x54>
    8b48:	e58d3000 	str	r3, [sp]
    8b4c:	e3a03020 	mov	r3, #32, 0
    8b50:	e59f2018 	ldr	r2, [pc, #24]	; 8b70 <rpi_set_output+0x58>
    8b54:	e59f1018 	ldr	r1, [pc, #24]	; 8b74 <rpi_set_output+0x5c>
    8b58:	e59f0018 	ldr	r0, [pc, #24]	; 8b78 <rpi_set_output+0x60>
    8b5c:	ebffff41 	bl	8868 <printk>
    8b60:	eb000133 	bl	9034 <clean_reboot>
    8b64:	00009b38 	andeq	r9, r0, r8, lsr fp
    8b68:	00009b34 	andeq	r9, r0, r4, lsr fp
    8b6c:	00009974 	andeq	r9, r0, r4, ror r9
    8b70:	00009a84 	andeq	r9, r0, r4, lsl #21
    8b74:	00009938 	andeq	r9, r0, r8, lsr r9
    8b78:	000097ec 	andeq	r9, r0, ip, ror #15

00008b7c <va_printk>:
    8b7c:	e92d4ff0 	push	{r4, r5, r6, r7, r8, r9, sl, fp, lr}
    8b80:	e24ddf45 	sub	sp, sp, #276	; 0x114
    8b84:	e1a09000 	mov	r9, r0
    8b88:	e58d2008 	str	r2, [sp, #8]
    8b8c:	e58d300c 	str	r3, [sp, #12]
    8b90:	e2411001 	sub	r1, r1, #1, 0
    8b94:	e0808001 	add	r8, r0, r1
    8b98:	e3a03000 	mov	r3, #0, 0
    8b9c:	e5c03000 	strb	r3, [r0]
    8ba0:	e1a04000 	mov	r4, r0
    8ba4:	e1a06002 	mov	r6, r2
    8ba8:	ea000001 	b	8bb4 <va_printk+0x38>
    8bac:	e2866001 	add	r6, r6, #1, 0
    8bb0:	e4c43001 	strb	r3, [r4], #1
    8bb4:	e5d63000 	ldrb	r3, [r6]
    8bb8:	e3530000 	cmp	r3, #0, 0
    8bbc:	0a000108 	beq	8fe4 <va_printk+0x468>
    8bc0:	e1540008 	cmp	r4, r8
    8bc4:	2a000106 	bcs	8fe4 <va_printk+0x468>
    8bc8:	e3530025 	cmp	r3, #37, 0	; 0x25
    8bcc:	1afffff6 	bne	8bac <va_printk+0x30>
    8bd0:	e5d62001 	ldrb	r2, [r6, #1]
    8bd4:	e3520025 	cmp	r2, #37, 0	; 0x25
    8bd8:	04c43001 	strbeq	r3, [r4], #1
    8bdc:	02866002 	addeq	r6, r6, #2, 0
    8be0:	0afffff3 	beq	8bb4 <va_printk+0x38>
    8be4:	e2866001 	add	r6, r6, #1, 0
    8be8:	e3a05000 	mov	r5, #0, 0
    8bec:	e5d67000 	ldrb	r7, [r6]
    8bf0:	e1a0a007 	mov	sl, r7
    8bf4:	e1a00007 	mov	r0, r7
    8bf8:	ebffff3d 	bl	88f4 <isdigit>
    8bfc:	e3500000 	cmp	r0, #0, 0
    8c00:	0a000004 	beq	8c18 <va_printk+0x9c>
    8c04:	e0855105 	add	r5, r5, r5, lsl #2
    8c08:	e0875085 	add	r5, r7, r5, lsl #1
    8c0c:	e2455030 	sub	r5, r5, #48, 0	; 0x30
    8c10:	e2866001 	add	r6, r6, #1, 0
    8c14:	eafffff4 	b	8bec <va_printk+0x70>
    8c18:	e355001f 	cmp	r5, #31, 0
    8c1c:	8a00001a 	bhi	8c8c <va_printk+0x110>
    8c20:	e2477062 	sub	r7, r7, #98, 0	; 0x62
    8c24:	e3570016 	cmp	r7, #22, 0
    8c28:	979ff107 	ldrls	pc, [pc, r7, lsl #2]
    8c2c:	ea0000d4 	b	8f84 <va_printk+0x408>
    8c30:	00008f08 	andeq	r8, r0, r8, lsl #30
    8c34:	00008f50 	andeq	r8, r0, r0, asr pc
    8c38:	00008e68 	andeq	r8, r0, r8, ror #28
    8c3c:	00008f84 	andeq	r8, r0, r4, lsl #31
    8c40:	00008e50 	andeq	r8, r0, r0, asr lr
    8c44:	00008f84 	andeq	r8, r0, r4, lsl #31
    8c48:	00008f84 	andeq	r8, r0, r4, lsl #31
    8c4c:	00008f84 	andeq	r8, r0, r4, lsl #31
    8c50:	00008f84 	andeq	r8, r0, r4, lsl #31
    8c54:	00008f84 	andeq	r8, r0, r4, lsl #31
    8c58:	00008cac 	andeq	r8, r0, ip, lsr #25
    8c5c:	00008f84 	andeq	r8, r0, r4, lsl #31
    8c60:	00008f84 	andeq	r8, r0, r4, lsl #31
    8c64:	00008f84 	andeq	r8, r0, r4, lsl #31
    8c68:	00008ed4 	ldrdeq	r8, [r0], -r4
    8c6c:	00008f84 	andeq	r8, r0, r4, lsl #31
    8c70:	00008f84 	andeq	r8, r0, r4, lsl #31
    8c74:	00008f3c 	andeq	r8, r0, ip, lsr pc
    8c78:	00008f84 	andeq	r8, r0, r4, lsl #31
    8c7c:	00008ea0 	andeq	r8, r0, r0, lsr #29
    8c80:	00008f84 	andeq	r8, r0, r4, lsl #31
    8c84:	00008f84 	andeq	r8, r0, r4, lsl #31
    8c88:	00008ed4 	ldrdeq	r8, [r0], -r4
    8c8c:	e59f3364 	ldr	r3, [pc, #868]	; 8ff8 <va_printk+0x47c>
    8c90:	e58d3000 	str	r3, [sp]
    8c94:	e3a03098 	mov	r3, #152, 0	; 0x98
    8c98:	e59f235c 	ldr	r2, [pc, #860]	; 8ffc <va_printk+0x480>
    8c9c:	e59f135c 	ldr	r1, [pc, #860]	; 9000 <va_printk+0x484>
    8ca0:	e59f035c 	ldr	r0, [pc, #860]	; 9004 <va_printk+0x488>
    8ca4:	ebfffeef 	bl	8868 <printk>
    8ca8:	eb0000e1 	bl	9034 <clean_reboot>
    8cac:	e3a02003 	mov	r2, #3, 0
    8cb0:	e59f1350 	ldr	r1, [pc, #848]	; 9008 <va_printk+0x48c>
    8cb4:	e1a00006 	mov	r0, r6
    8cb8:	eb00027d 	bl	96b4 <strncmp>
    8cbc:	e3500000 	cmp	r0, #0, 0
    8cc0:	0a000005 	beq	8cdc <va_printk+0x160>
    8cc4:	e3a02003 	mov	r2, #3, 0
    8cc8:	e59f133c 	ldr	r1, [pc, #828]	; 900c <va_printk+0x490>
    8ccc:	e1a00006 	mov	r0, r6
    8cd0:	eb000277 	bl	96b4 <strncmp>
    8cd4:	e3500000 	cmp	r0, #0, 0
    8cd8:	1a000033 	bne	8dac <va_printk+0x230>
    8cdc:	e286b002 	add	fp, r6, #2, 0
    8ce0:	e59d300c 	ldr	r3, [sp, #12]
    8ce4:	e2833007 	add	r3, r3, #7, 0
    8ce8:	e3c33007 	bic	r3, r3, #7, 0
    8cec:	e2832008 	add	r2, r3, #8, 0
    8cf0:	e58d200c 	str	r2, [sp, #12]
    8cf4:	e593a000 	ldr	sl, [r3]
    8cf8:	e5937004 	ldr	r7, [r3, #4]
    8cfc:	e1a01007 	mov	r1, r7
    8d00:	e59f0308 	ldr	r0, [pc, #776]	; 9010 <va_printk+0x494>
    8d04:	ebfffed7 	bl	8868 <printk>
    8d08:	e1a0100a 	mov	r1, sl
    8d0c:	e59f0300 	ldr	r0, [pc, #768]	; 9014 <va_printk+0x498>
    8d10:	ebfffed4 	bl	8868 <printk>
    8d14:	e3a02003 	mov	r2, #3, 0
    8d18:	e59f12e8 	ldr	r1, [pc, #744]	; 9008 <va_printk+0x48c>
    8d1c:	e1a00006 	mov	r0, r6
    8d20:	eb000263 	bl	96b4 <strncmp>
    8d24:	e3500000 	cmp	r0, #0, 0
    8d28:	0a000027 	beq	8dcc <va_printk+0x250>
    8d2c:	e3a02003 	mov	r2, #3, 0
    8d30:	e59f12d4 	ldr	r1, [pc, #724]	; 900c <va_printk+0x490>
    8d34:	e1a00006 	mov	r0, r6
    8d38:	eb00025d 	bl	96b4 <strncmp>
    8d3c:	e3500000 	cmp	r0, #0, 0
    8d40:	1a00003b 	bne	8e34 <va_printk+0x2b8>
    8d44:	e3a06000 	mov	r6, #0, 0
    8d48:	e58d6004 	str	r6, [sp, #4]
    8d4c:	e58d5000 	str	r5, [sp]
    8d50:	e1a03007 	mov	r3, r7
    8d54:	e3a02080 	mov	r2, #128, 0	; 0x80
    8d58:	e28d1010 	add	r1, sp, #16, 0
    8d5c:	e3a0000a 	mov	r0, #10, 0
    8d60:	ebfffeff 	bl	8964 <emit>
    8d64:	e1a07000 	mov	r7, r0
    8d68:	e58d6004 	str	r6, [sp, #4]
    8d6c:	e58d5000 	str	r5, [sp]
    8d70:	e1a0300a 	mov	r3, sl
    8d74:	e3a02080 	mov	r2, #128, 0	; 0x80
    8d78:	e28d1090 	add	r1, sp, #144, 0	; 0x90
    8d7c:	e3a0000a 	mov	r0, #10, 0
    8d80:	ebfffef7 	bl	8964 <emit>
    8d84:	e59f128c 	ldr	r1, [pc, #652]	; 9018 <va_printk+0x49c>
    8d88:	e28d0010 	add	r0, sp, #16, 0
    8d8c:	eb000235 	bl	9668 <strcmp>
    8d90:	e1500006 	cmp	r0, r6
    8d94:	1a000021 	bne	8e20 <va_printk+0x2a4>
    8d98:	e28d1090 	add	r1, sp, #144, 0	; 0x90
    8d9c:	e28d0010 	add	r0, sp, #16, 0
    8da0:	eb00023b 	bl	9694 <strcpy>
    8da4:	e1a0600b 	mov	r6, fp
    8da8:	ea00003a 	b	8e98 <va_printk+0x31c>
    8dac:	e59f3268 	ldr	r3, [pc, #616]	; 901c <va_printk+0x4a0>
    8db0:	e58d3000 	str	r3, [sp]
    8db4:	e3a0309f 	mov	r3, #159, 0	; 0x9f
    8db8:	e59f223c 	ldr	r2, [pc, #572]	; 8ffc <va_printk+0x480>
    8dbc:	e59f123c 	ldr	r1, [pc, #572]	; 9000 <va_printk+0x484>
    8dc0:	e59f023c 	ldr	r0, [pc, #572]	; 9004 <va_printk+0x488>
    8dc4:	ebfffea7 	bl	8868 <printk>
    8dc8:	eb000099 	bl	9034 <clean_reboot>
    8dcc:	e3a06000 	mov	r6, #0, 0
    8dd0:	e58d6004 	str	r6, [sp, #4]
    8dd4:	e58d5000 	str	r5, [sp]
    8dd8:	e1a03007 	mov	r3, r7
    8ddc:	e3a02080 	mov	r2, #128, 0	; 0x80
    8de0:	e28d1010 	add	r1, sp, #16, 0
    8de4:	e3a00010 	mov	r0, #16, 0
    8de8:	ebfffedd 	bl	8964 <emit>
    8dec:	e1a07000 	mov	r7, r0
    8df0:	e58d6004 	str	r6, [sp, #4]
    8df4:	e58d5000 	str	r5, [sp]
    8df8:	e1a0300a 	mov	r3, sl
    8dfc:	e3a02080 	mov	r2, #128, 0	; 0x80
    8e00:	e28d1090 	add	r1, sp, #144, 0	; 0x90
    8e04:	e3a00010 	mov	r0, #16, 0
    8e08:	ebfffed5 	bl	8964 <emit>
    8e0c:	e28d1092 	add	r1, sp, #146, 0	; 0x92
    8e10:	e28d0010 	add	r0, sp, #16, 0
    8e14:	eb000206 	bl	9634 <strcat>
    8e18:	e1a0600b 	mov	r6, fp
    8e1c:	ea00001d 	b	8e98 <va_printk+0x31c>
    8e20:	e28d1090 	add	r1, sp, #144, 0	; 0x90
    8e24:	e28d0010 	add	r0, sp, #16, 0
    8e28:	eb000201 	bl	9634 <strcat>
    8e2c:	e1a0600b 	mov	r6, fp
    8e30:	ea000018 	b	8e98 <va_printk+0x31c>
    8e34:	e58d6000 	str	r6, [sp]
    8e38:	e3a030b6 	mov	r3, #182, 0	; 0xb6
    8e3c:	e59f21b8 	ldr	r2, [pc, #440]	; 8ffc <va_printk+0x480>
    8e40:	e59f11b8 	ldr	r1, [pc, #440]	; 9000 <va_printk+0x484>
    8e44:	e59f01d4 	ldr	r0, [pc, #468]	; 9020 <va_printk+0x4a4>
    8e48:	ebfffe86 	bl	8868 <printk>
    8e4c:	eb000078 	bl	9034 <clean_reboot>
    8e50:	e3a030be 	mov	r3, #190, 0	; 0xbe
    8e54:	e59f21a0 	ldr	r2, [pc, #416]	; 8ffc <va_printk+0x480>
    8e58:	e59f11a0 	ldr	r1, [pc, #416]	; 9000 <va_printk+0x484>
    8e5c:	e59f01c0 	ldr	r0, [pc, #448]	; 9024 <va_printk+0x4a8>
    8e60:	ebfffe80 	bl	8868 <printk>
    8e64:	eb000072 	bl	9034 <clean_reboot>
    8e68:	e59d300c 	ldr	r3, [sp, #12]
    8e6c:	e2832004 	add	r2, r3, #4, 0
    8e70:	e58d200c 	str	r2, [sp, #12]
    8e74:	e5933000 	ldr	r3, [r3]
    8e78:	e3a02001 	mov	r2, #1, 0
    8e7c:	e58d2004 	str	r2, [sp, #4]
    8e80:	e58d5000 	str	r5, [sp]
    8e84:	e3a02080 	mov	r2, #128, 0	; 0x80
    8e88:	e28d1010 	add	r1, sp, #16, 0
    8e8c:	e3a0000a 	mov	r0, #10, 0
    8e90:	ebfffeb3 	bl	8964 <emit>
    8e94:	e1a07000 	mov	r7, r0
    8e98:	e2866001 	add	r6, r6, #1, 0
    8e9c:	ea00004a 	b	8fcc <va_printk+0x450>
    8ea0:	e59d300c 	ldr	r3, [sp, #12]
    8ea4:	e2832004 	add	r2, r3, #4, 0
    8ea8:	e58d200c 	str	r2, [sp, #12]
    8eac:	e5933000 	ldr	r3, [r3]
    8eb0:	e3a02000 	mov	r2, #0, 0
    8eb4:	e58d2004 	str	r2, [sp, #4]
    8eb8:	e58d5000 	str	r5, [sp]
    8ebc:	e3a02080 	mov	r2, #128, 0	; 0x80
    8ec0:	e28d1010 	add	r1, sp, #16, 0
    8ec4:	e3a0000a 	mov	r0, #10, 0
    8ec8:	ebfffea5 	bl	8964 <emit>
    8ecc:	e1a07000 	mov	r7, r0
    8ed0:	eafffff0 	b	8e98 <va_printk+0x31c>
    8ed4:	e59d300c 	ldr	r3, [sp, #12]
    8ed8:	e2832004 	add	r2, r3, #4, 0
    8edc:	e58d200c 	str	r2, [sp, #12]
    8ee0:	e5933000 	ldr	r3, [r3]
    8ee4:	e3a02000 	mov	r2, #0, 0
    8ee8:	e58d2004 	str	r2, [sp, #4]
    8eec:	e58d5000 	str	r5, [sp]
    8ef0:	e3a02080 	mov	r2, #128, 0	; 0x80
    8ef4:	e28d1010 	add	r1, sp, #16, 0
    8ef8:	e3a00010 	mov	r0, #16, 0
    8efc:	ebfffe98 	bl	8964 <emit>
    8f00:	e1a07000 	mov	r7, r0
    8f04:	eaffffe3 	b	8e98 <va_printk+0x31c>
    8f08:	e59d300c 	ldr	r3, [sp, #12]
    8f0c:	e2832004 	add	r2, r3, #4, 0
    8f10:	e58d200c 	str	r2, [sp, #12]
    8f14:	e5933000 	ldr	r3, [r3]
    8f18:	e3a02000 	mov	r2, #0, 0
    8f1c:	e58d2004 	str	r2, [sp, #4]
    8f20:	e58d5000 	str	r5, [sp]
    8f24:	e3a02080 	mov	r2, #128, 0	; 0x80
    8f28:	e28d1010 	add	r1, sp, #16, 0
    8f2c:	e3a00002 	mov	r0, #2, 0
    8f30:	ebfffe8b 	bl	8964 <emit>
    8f34:	e1a07000 	mov	r7, r0
    8f38:	eaffffd6 	b	8e98 <va_printk+0x31c>
    8f3c:	e59d300c 	ldr	r3, [sp, #12]
    8f40:	e2832004 	add	r2, r3, #4, 0
    8f44:	e58d200c 	str	r2, [sp, #12]
    8f48:	e5937000 	ldr	r7, [r3]
    8f4c:	eaffffd1 	b	8e98 <va_printk+0x31c>
    8f50:	e59d300c 	ldr	r3, [sp, #12]
    8f54:	e2832004 	add	r2, r3, #4, 0
    8f58:	e58d200c 	str	r2, [sp, #12]
    8f5c:	e5933000 	ldr	r3, [r3]
    8f60:	e3a02000 	mov	r2, #0, 0
    8f64:	e58d2004 	str	r2, [sp, #4]
    8f68:	e58d5000 	str	r5, [sp]
    8f6c:	e3a02080 	mov	r2, #128, 0	; 0x80
    8f70:	e28d1010 	add	r1, sp, #16, 0
    8f74:	e3a00008 	mov	r0, #8, 0
    8f78:	ebfffe79 	bl	8964 <emit>
    8f7c:	e1a07000 	mov	r7, r0
    8f80:	eaffffc4 	b	8e98 <va_printk+0x31c>
    8f84:	e3a03000 	mov	r3, #0, 0
    8f88:	e5c63001 	strb	r3, [r6, #1]
    8f8c:	e1a0200a 	mov	r2, sl
    8f90:	e1a0100a 	mov	r1, sl
    8f94:	e59f008c 	ldr	r0, [pc, #140]	; 9028 <va_printk+0x4ac>
    8f98:	ebfffe32 	bl	8868 <printk>
    8f9c:	e59f3088 	ldr	r3, [pc, #136]	; 902c <va_printk+0x4b0>
    8fa0:	e5933000 	ldr	r3, [r3]
    8fa4:	e59d0008 	ldr	r0, [sp, #8]
    8fa8:	e12fff33 	blx	r3
    8fac:	e3a030e2 	mov	r3, #226, 0	; 0xe2
    8fb0:	e59f2044 	ldr	r2, [pc, #68]	; 8ffc <va_printk+0x480>
    8fb4:	e59f1044 	ldr	r1, [pc, #68]	; 9000 <va_printk+0x484>
    8fb8:	e59f0070 	ldr	r0, [pc, #112]	; 9030 <va_printk+0x4b4>
    8fbc:	ebfffe29 	bl	8868 <printk>
    8fc0:	eb00001b 	bl	9034 <clean_reboot>
    8fc4:	e2877001 	add	r7, r7, #1, 0
    8fc8:	e4c43001 	strb	r3, [r4], #1
    8fcc:	e1540008 	cmp	r4, r8
    8fd0:	2afffef7 	bcs	8bb4 <va_printk+0x38>
    8fd4:	e5d73000 	ldrb	r3, [r7]
    8fd8:	e3530000 	cmp	r3, #0, 0
    8fdc:	1afffff8 	bne	8fc4 <va_printk+0x448>
    8fe0:	eafffef3 	b	8bb4 <va_printk+0x38>
    8fe4:	e3a03000 	mov	r3, #0, 0
    8fe8:	e4c43001 	strb	r3, [r4], #1
    8fec:	e0440009 	sub	r0, r4, r9
    8ff0:	e28ddf45 	add	sp, sp, #276	; 0x114
    8ff4:	e8bd8ff0 	pop	{r4, r5, r6, r7, r8, r9, sl, fp, pc}
    8ff8:	0000997c 	andeq	r9, r0, ip, ror r9
    8ffc:	00009a94 	muleq	r0, r4, sl
    9000:	00009938 	andeq	r9, r0, r8, lsr r9
    9004:	000097ec 	andeq	r9, r0, ip, ror #15
    9008:	00009988 	andeq	r9, r0, r8, lsl #19
    900c:	0000998c 	andeq	r9, r0, ip, lsl #19
    9010:	00009990 	muleq	r0, r0, r9
    9014:	00009998 	muleq	r0, r8, r9
    9018:	0000994c 	andeq	r9, r0, ip, asr #18
    901c:	000099a0 	andeq	r9, r0, r0, lsr #19
    9020:	000099dc 	ldrdeq	r9, [r0], -ip
    9024:	00009a04 	andeq	r9, r0, r4, lsl #20
    9028:	00009a2c 	andeq	r9, r0, ip, lsr #20
    902c:	00009b34 	andeq	r9, r0, r4, lsr fp
    9030:	00009a5c 	andeq	r9, r0, ip, asr sl

00009034 <clean_reboot>:
    9034:	e92d4010 	push	{r4, lr}
    9038:	e59f3018 	ldr	r3, [pc, #24]	; 9058 <clean_reboot+0x24>
    903c:	e5933000 	ldr	r3, [r3]
    9040:	e59f0014 	ldr	r0, [pc, #20]	; 905c <clean_reboot+0x28>
    9044:	e12fff33 	blx	r3
    9048:	eb00010a 	bl	9478 <uart_flush_tx>
    904c:	e3a0000a 	mov	r0, #10, 0
    9050:	eb000047 	bl	9174 <delay_ms>
    9054:	eb00001c 	bl	90cc <rpi_reboot>
    9058:	00009b34 	andeq	r9, r0, r4, lsr fp
    905c:	00009aa0 	andeq	r9, r0, r0, lsr #21

00009060 <_cstart>:
    9060:	e92d4010 	push	{r4, lr}
    9064:	eb00000c 	bl	909c <custom_loader>
    9068:	e59f3024 	ldr	r3, [pc, #36]	; 9094 <_cstart+0x34>
    906c:	e59f2024 	ldr	r2, [pc, #36]	; 9098 <_cstart+0x38>
    9070:	e1530002 	cmp	r3, r2
    9074:	33a02000 	movcc	r2, #0, 0
    9078:	34832004 	strcc	r2, [r3], #4
    907c:	3afffffa 	bcc	906c <_cstart+0xc>
    9080:	eb00009e 	bl	9300 <uart_init>
    9084:	e3a03001 	mov	r3, #1, 0
    9088:	ee0f3f1c 	mcr	15, 0, r3, cr15, cr12, {0}
    908c:	ebfffdba 	bl	877c <notmain>
    9090:	ebffffe7 	bl	9034 <clean_reboot>
    9094:	00009b3c 	andeq	r9, r0, ip, lsr fp
    9098:	0000a740 	andeq	sl, r0, r0, asr #14

0000909c <custom_loader>:
    909c:	e12fff1e 	bx	lr

000090a0 <at_user_level>:
    90a0:	e10f0000 	mrs	r0, CPSR
    90a4:	e200001f 	and	r0, r0, #31, 0
    90a8:	e3500010 	cmp	r0, #16, 0
    90ac:	13a00000 	movne	r0, #0, 0
    90b0:	03a00001 	moveq	r0, #1, 0
    90b4:	e12fff1e 	bx	lr

000090b8 <set_user_level>:
    90b8:	e10f3000 	mrs	r3, CPSR
    90bc:	e3c3301f 	bic	r3, r3, #31, 0
    90c0:	e3833010 	orr	r3, r3, #16, 0
    90c4:	e129f003 	msr	CPSR_fc, r3
    90c8:	e12fff1e 	bx	lr

000090cc <rpi_reboot>:
    90cc:	e92d4010 	push	{r4, lr}
    90d0:	ebfffff2 	bl	90a0 <at_user_level>
    90d4:	e3500000 	cmp	r0, #0, 0
    90d8:	1a00000a 	bne	9108 <rpi_reboot+0x3c>
    90dc:	eb00017f 	bl	96e0 <reboot_callout>
    90e0:	eb0000e4 	bl	9478 <uart_flush_tx>
    90e4:	e3a0000a 	mov	r0, #10, 0
    90e8:	eb000021 	bl	9174 <delay_ms>
    90ec:	e59f101c 	ldr	r1, [pc, #28]	; 9110 <rpi_reboot+0x44>
    90f0:	e59f001c 	ldr	r0, [pc, #28]	; 9114 <rpi_reboot+0x48>
    90f4:	ebfffbca 	bl	8024 <PUT32>
    90f8:	e59f1018 	ldr	r1, [pc, #24]	; 9118 <rpi_reboot+0x4c>
    90fc:	e59f0018 	ldr	r0, [pc, #24]	; 911c <rpi_reboot+0x50>
    9100:	ebfffbc7 	bl	8024 <PUT32>
    9104:	eafffffe 	b	9104 <rpi_reboot+0x38>
    9108:	ebffffea 	bl	90b8 <set_user_level>
    910c:	eafffff2 	b	90dc <rpi_reboot+0x10>
    9110:	5a000001 	bpl	911c <rpi_reboot+0x50>
    9114:	20100024 	andscs	r0, r0, r4, lsr #32
    9118:	5a000020 	bpl	91a0 <delay_sec+0x14>
    911c:	2010001c 	andscs	r0, r0, ip, lsl r0

00009120 <timer_get_usec_raw>:
    9120:	e92d4010 	push	{r4, lr}
    9124:	e59f0004 	ldr	r0, [pc, #4]	; 9130 <timer_get_usec_raw+0x10>
    9128:	ebfffbbf 	bl	802c <GET32>
    912c:	e8bd8010 	pop	{r4, pc}
    9130:	20003004 	andcs	r3, r0, r4

00009134 <timer_get_usec>:
    9134:	e92d4010 	push	{r4, lr}
    9138:	eb000169 	bl	96e4 <dev_barrier>
    913c:	ebfffff7 	bl	9120 <timer_get_usec_raw>
    9140:	e1a04000 	mov	r4, r0
    9144:	eb000166 	bl	96e4 <dev_barrier>
    9148:	e1a00004 	mov	r0, r4
    914c:	e8bd8010 	pop	{r4, pc}

00009150 <delay_us>:
    9150:	e92d4070 	push	{r4, r5, r6, lr}
    9154:	e1a05000 	mov	r5, r0
    9158:	ebfffff5 	bl	9134 <timer_get_usec>
    915c:	e1a04000 	mov	r4, r0
    9160:	ebfffff3 	bl	9134 <timer_get_usec>
    9164:	e0400004 	sub	r0, r0, r4
    9168:	e1500005 	cmp	r0, r5
    916c:	3afffffb 	bcc	9160 <delay_us+0x10>
    9170:	e8bd8070 	pop	{r4, r5, r6, pc}

00009174 <delay_ms>:
    9174:	e92d4010 	push	{r4, lr}
    9178:	e0603280 	rsb	r3, r0, r0, lsl #5
    917c:	e0800103 	add	r0, r0, r3, lsl #2
    9180:	e1a00180 	lsl	r0, r0, #3
    9184:	ebfffff1 	bl	9150 <delay_us>
    9188:	e8bd8010 	pop	{r4, pc}

0000918c <delay_sec>:
    918c:	e92d4010 	push	{r4, lr}
    9190:	e0603280 	rsb	r3, r0, r0, lsl #5
    9194:	e0800103 	add	r0, r0, r3, lsl #2
    9198:	e1a00180 	lsl	r0, r0, #3
    919c:	ebfffff4 	bl	9174 <delay_ms>
    91a0:	e8bd8010 	pop	{r4, pc}

000091a4 <gpio_set_function>:
    91a4:	e350001f 	cmp	r0, #31, 0
    91a8:	812fff1e 	bxhi	lr
    91ac:	e92d4070 	push	{r4, r5, r6, lr}
    91b0:	e1a05001 	mov	r5, r1
    91b4:	e3d13007 	bics	r3, r1, #7, 0
    91b8:	18bd8070 	popne	{r4, r5, r6, pc}
    91bc:	e59f3040 	ldr	r3, [pc, #64]	; 9204 <gpio_set_function+0x60>
    91c0:	e0832093 	umull	r2, r3, r3, r0
    91c4:	e1a031a3 	lsr	r3, r3, #3
    91c8:	e1a02003 	mov	r2, r3
    91cc:	e0833103 	add	r3, r3, r3, lsl #2
    91d0:	e0403083 	sub	r3, r0, r3, lsl #1
    91d4:	e0834083 	add	r4, r3, r3, lsl #1
    91d8:	e2820302 	add	r0, r2, #134217728	; 0x8000000
    91dc:	e2800702 	add	r0, r0, #524288	; 0x80000
    91e0:	e1a06100 	lsl	r6, r0, #2
    91e4:	e1a00006 	mov	r0, r6
    91e8:	ebfffb8f 	bl	802c <GET32>
    91ec:	e3a01007 	mov	r1, #7, 0
    91f0:	e1c01411 	bic	r1, r0, r1, lsl r4
    91f4:	e1811415 	orr	r1, r1, r5, lsl r4
    91f8:	e1a00006 	mov	r0, r6
    91fc:	ebfffb88 	bl	8024 <PUT32>
    9200:	e8bd8070 	pop	{r4, r5, r6, pc}
    9204:	cccccccd 	stclgt	12, cr12, [ip], {205}	; 0xcd

00009208 <gpio_set_output>:
    9208:	e92d4010 	push	{r4, lr}
    920c:	e3a01001 	mov	r1, #1, 0
    9210:	ebffffe3 	bl	91a4 <gpio_set_function>
    9214:	e8bd8010 	pop	{r4, pc}

00009218 <gpio_set_on>:
    9218:	e350001f 	cmp	r0, #31, 0
    921c:	812fff1e 	bxhi	lr
    9220:	e92d4010 	push	{r4, lr}
    9224:	e3a01001 	mov	r1, #1, 0
    9228:	e1a01011 	lsl	r1, r1, r0
    922c:	e59f0004 	ldr	r0, [pc, #4]	; 9238 <gpio_set_on+0x20>
    9230:	ebfffb7b 	bl	8024 <PUT32>
    9234:	e8bd8010 	pop	{r4, pc}
    9238:	2020001c 	eorcs	r0, r0, ip, lsl r0

0000923c <gpio_set_off>:
    923c:	e350001f 	cmp	r0, #31, 0
    9240:	812fff1e 	bxhi	lr
    9244:	e92d4010 	push	{r4, lr}
    9248:	e3a01001 	mov	r1, #1, 0
    924c:	e1a01011 	lsl	r1, r1, r0
    9250:	e59f0004 	ldr	r0, [pc, #4]	; 925c <gpio_set_off+0x20>
    9254:	ebfffb72 	bl	8024 <PUT32>
    9258:	e8bd8010 	pop	{r4, pc}
    925c:	20200028 	eorcs	r0, r0, r8, lsr #32

00009260 <gpio_set_input>:
    9260:	e92d4010 	push	{r4, lr}
    9264:	e3a01000 	mov	r1, #0, 0
    9268:	ebffffcd 	bl	91a4 <gpio_set_function>
    926c:	e8bd8010 	pop	{r4, pc}

00009270 <gpio_write>:
    9270:	e92d4010 	push	{r4, lr}
    9274:	e3510000 	cmp	r1, #0, 0
    9278:	0a000001 	beq	9284 <gpio_write+0x14>
    927c:	ebffffe5 	bl	9218 <gpio_set_on>
    9280:	e8bd8010 	pop	{r4, pc}
    9284:	ebffffec 	bl	923c <gpio_set_off>
    9288:	e8bd8010 	pop	{r4, pc}

0000928c <gpio_read>:
    928c:	e350001f 	cmp	r0, #31, 0
    9290:	8a000007 	bhi	92b4 <gpio_read+0x28>
    9294:	e92d4010 	push	{r4, lr}
    9298:	e200401f 	and	r4, r0, #31, 0
    929c:	e59f3018 	ldr	r3, [pc, #24]	; 92bc <gpio_read+0x30>
    92a0:	e08302a0 	add	r0, r3, r0, lsr #5
    92a4:	ebfffb60 	bl	802c <GET32>
    92a8:	e1a00430 	lsr	r0, r0, r4
    92ac:	e2000001 	and	r0, r0, #1, 0
    92b0:	e8bd8010 	pop	{r4, pc}
    92b4:	e3e00000 	mvn	r0, #0, 0
    92b8:	e12fff1e 	bx	lr
    92bc:	20200034 	eorcs	r0, r0, r4, lsr r0

000092c0 <and_in32>:
    92c0:	e92d4070 	push	{r4, r5, r6, lr}
    92c4:	e1a04000 	mov	r4, r0
    92c8:	e1a05001 	mov	r5, r1
    92cc:	ebfffb56 	bl	802c <GET32>
    92d0:	e0001005 	and	r1, r0, r5
    92d4:	e1a00004 	mov	r0, r4
    92d8:	ebfffb51 	bl	8024 <PUT32>
    92dc:	e8bd8070 	pop	{r4, r5, r6, pc}

000092e0 <or_in32>:
    92e0:	e92d4070 	push	{r4, r5, r6, lr}
    92e4:	e1a04000 	mov	r4, r0
    92e8:	e1a05001 	mov	r5, r1
    92ec:	ebfffb4e 	bl	802c <GET32>
    92f0:	e1801005 	orr	r1, r0, r5
    92f4:	e1a00004 	mov	r0, r4
    92f8:	ebfffb49 	bl	8024 <PUT32>
    92fc:	e8bd8070 	pop	{r4, r5, r6, pc}

00009300 <uart_init>:
    9300:	e92d4010 	push	{r4, lr}
    9304:	e3a01002 	mov	r1, #2, 0
    9308:	e3a0000e 	mov	r0, #14, 0
    930c:	ebffffa4 	bl	91a4 <gpio_set_function>
    9310:	e3a01002 	mov	r1, #2, 0
    9314:	e3a0000f 	mov	r0, #15, 0
    9318:	ebffffa1 	bl	91a4 <gpio_set_function>
    931c:	eb0000f0 	bl	96e4 <dev_barrier>
    9320:	e3a01001 	mov	r1, #1, 0
    9324:	e59f0064 	ldr	r0, [pc, #100]	; 9390 <uart_init+0x90>
    9328:	ebffffec 	bl	92e0 <or_in32>
    932c:	eb0000ec 	bl	96e4 <dev_barrier>
    9330:	e59f405c 	ldr	r4, [pc, #92]	; 9394 <uart_init+0x94>
    9334:	e3a01000 	mov	r1, #0, 0
    9338:	e1a00004 	mov	r0, r4
    933c:	ebfffb38 	bl	8024 <PUT32>
    9340:	e3a01000 	mov	r1, #0, 0
    9344:	e59f004c 	ldr	r0, [pc, #76]	; 9398 <uart_init+0x98>
    9348:	ebfffb35 	bl	8024 <PUT32>
    934c:	e3a01003 	mov	r1, #3, 0
    9350:	e59f0044 	ldr	r0, [pc, #68]	; 939c <uart_init+0x9c>
    9354:	ebfffb32 	bl	8024 <PUT32>
    9358:	e3a01000 	mov	r1, #0, 0
    935c:	e59f003c 	ldr	r0, [pc, #60]	; 93a0 <uart_init+0xa0>
    9360:	ebfffb2f 	bl	8024 <PUT32>
    9364:	e3a010c7 	mov	r1, #199, 0	; 0xc7
    9368:	e59f0034 	ldr	r0, [pc, #52]	; 93a4 <uart_init+0xa4>
    936c:	ebfffb2c 	bl	8024 <PUT32>
    9370:	e59f1030 	ldr	r1, [pc, #48]	; 93a8 <uart_init+0xa8>
    9374:	e59f0030 	ldr	r0, [pc, #48]	; 93ac <uart_init+0xac>
    9378:	ebfffb29 	bl	8024 <PUT32>
    937c:	e3a01003 	mov	r1, #3, 0
    9380:	e1a00004 	mov	r0, r4
    9384:	ebfffb26 	bl	8024 <PUT32>
    9388:	eb0000d5 	bl	96e4 <dev_barrier>
    938c:	e8bd8010 	pop	{r4, pc}
    9390:	20215004 	eorcs	r5, r1, r4
    9394:	20215060 	eorcs	r5, r1, r0, rrx
    9398:	20215044 	eorcs	r5, r1, r4, asr #32
    939c:	2021504c 	eorcs	r5, r1, ip, asr #32
    93a0:	20215050 	eorcs	r5, r1, r0, asr r0
    93a4:	20215048 	eorcs	r5, r1, r8, asr #32
    93a8:	0000010e 	andeq	r0, r0, lr, lsl #2
    93ac:	20215068 	eorcs	r5, r1, r8, rrx

000093b0 <uart_can_getc>:
    93b0:	e92d4010 	push	{r4, lr}
    93b4:	e59f0008 	ldr	r0, [pc, #8]	; 93c4 <uart_can_getc+0x14>
    93b8:	ebfffb1b 	bl	802c <GET32>
    93bc:	e2000001 	and	r0, r0, #1, 0
    93c0:	e8bd8010 	pop	{r4, pc}
    93c4:	20215064 	eorcs	r5, r1, r4, rrx

000093c8 <uart_can_putc>:
    93c8:	e92d4010 	push	{r4, lr}
    93cc:	e59f0010 	ldr	r0, [pc, #16]	; 93e4 <uart_can_putc+0x1c>
    93d0:	ebfffb15 	bl	802c <GET32>
    93d4:	e3100002 	tst	r0, #2, 0
    93d8:	13a00001 	movne	r0, #1, 0
    93dc:	03a00000 	moveq	r0, #0, 0
    93e0:	e8bd8010 	pop	{r4, pc}
    93e4:	20215064 	eorcs	r5, r1, r4, rrx

000093e8 <uart_getc>:
    93e8:	e92d4010 	push	{r4, lr}
    93ec:	eb0000bc 	bl	96e4 <dev_barrier>
    93f0:	ebffffee 	bl	93b0 <uart_can_getc>
    93f4:	e3500000 	cmp	r0, #0, 0
    93f8:	0afffffc 	beq	93f0 <uart_getc+0x8>
    93fc:	e59f0010 	ldr	r0, [pc, #16]	; 9414 <uart_getc+0x2c>
    9400:	ebfffb09 	bl	802c <GET32>
    9404:	e6ef4070 	uxtb	r4, r0
    9408:	eb0000b5 	bl	96e4 <dev_barrier>
    940c:	e1a00004 	mov	r0, r4
    9410:	e8bd8010 	pop	{r4, pc}
    9414:	20215040 	eorcs	r5, r1, r0, asr #32

00009418 <uart_putc>:
    9418:	e92d4010 	push	{r4, lr}
    941c:	e1a04000 	mov	r4, r0
    9420:	eb0000af 	bl	96e4 <dev_barrier>
    9424:	ebffffe7 	bl	93c8 <uart_can_putc>
    9428:	e3500000 	cmp	r0, #0, 0
    942c:	0afffffc 	beq	9424 <uart_putc+0xc>
    9430:	e6ef1074 	uxtb	r1, r4
    9434:	e59f0008 	ldr	r0, [pc, #8]	; 9444 <uart_putc+0x2c>
    9438:	ebfffaf9 	bl	8024 <PUT32>
    943c:	eb0000a8 	bl	96e4 <dev_barrier>
    9440:	e8bd8010 	pop	{r4, pc}
    9444:	20215040 	eorcs	r5, r1, r0, asr #32

00009448 <uart_has_data>:
    9448:	e92d4010 	push	{r4, lr}
    944c:	eb0000a4 	bl	96e4 <dev_barrier>
    9450:	ebffffd6 	bl	93b0 <uart_can_getc>
    9454:	e8bd8010 	pop	{r4, pc}

00009458 <uart_tx_is_empty>:
    9458:	e92d4010 	push	{r4, lr}
    945c:	eb0000a0 	bl	96e4 <dev_barrier>
    9460:	e59f000c 	ldr	r0, [pc, #12]	; 9474 <uart_tx_is_empty+0x1c>
    9464:	ebfffaf0 	bl	802c <GET32>
    9468:	e1a004a0 	lsr	r0, r0, #9
    946c:	e2000001 	and	r0, r0, #1, 0
    9470:	e8bd8010 	pop	{r4, pc}
    9474:	20215064 	eorcs	r5, r1, r4, rrx

00009478 <uart_flush_tx>:
    9478:	e92d4010 	push	{r4, lr}
    947c:	ebfffff5 	bl	9458 <uart_tx_is_empty>
    9480:	e3500000 	cmp	r0, #0, 0
    9484:	0afffffc 	beq	947c <uart_flush_tx+0x4>
    9488:	e8bd8010 	pop	{r4, pc}

0000948c <uart_disable>:
    948c:	e92d4010 	push	{r4, lr}
    9490:	ebfffff8 	bl	9478 <uart_flush_tx>
    9494:	eb000092 	bl	96e4 <dev_barrier>
    9498:	e3e01001 	mvn	r1, #1, 0
    949c:	e59f0008 	ldr	r0, [pc, #8]	; 94ac <uart_disable+0x20>
    94a0:	ebffff86 	bl	92c0 <and_in32>
    94a4:	eb00008e 	bl	96e4 <dev_barrier>
    94a8:	e8bd8010 	pop	{r4, pc}
    94ac:	20215004 	eorcs	r5, r1, r4

000094b0 <gpio_set_pud>:
    94b0:	e92d4070 	push	{r4, r5, r6, lr}
    94b4:	e24dd008 	sub	sp, sp, #8, 0
    94b8:	e350001f 	cmp	r0, #31, 0
    94bc:	8a000007 	bhi	94e0 <gpio_set_pud+0x30>
    94c0:	e1a05000 	mov	r5, r0
    94c4:	e1a04001 	mov	r4, r1
    94c8:	e3510003 	cmp	r1, #3, 0
    94cc:	8a00000c 	bhi	9504 <gpio_set_pud+0x54>
    94d0:	e3510002 	cmp	r1, #2, 0
    94d4:	9a000013 	bls	9528 <gpio_set_pud+0x78>
    94d8:	e28dd008 	add	sp, sp, #8, 0
    94dc:	e8bd8070 	pop	{r4, r5, r6, pc}
    94e0:	eb000049 	bl	960c <rpi_reset_putc>
    94e4:	e59f30a4 	ldr	r3, [pc, #164]	; 9590 <gpio_set_pud+0xe0>
    94e8:	e58d3000 	str	r3, [sp]
    94ec:	e3a03012 	mov	r3, #18, 0
    94f0:	e59f209c 	ldr	r2, [pc, #156]	; 9594 <gpio_set_pud+0xe4>
    94f4:	e59f109c 	ldr	r1, [pc, #156]	; 9598 <gpio_set_pud+0xe8>
    94f8:	e59f009c 	ldr	r0, [pc, #156]	; 959c <gpio_set_pud+0xec>
    94fc:	ebfffcd9 	bl	8868 <printk>
    9500:	ebfffecb 	bl	9034 <clean_reboot>
    9504:	eb000040 	bl	960c <rpi_reset_putc>
    9508:	e59f3090 	ldr	r3, [pc, #144]	; 95a0 <gpio_set_pud+0xf0>
    950c:	e58d3000 	str	r3, [sp]
    9510:	e3a03013 	mov	r3, #19, 0
    9514:	e59f2078 	ldr	r2, [pc, #120]	; 9594 <gpio_set_pud+0xe4>
    9518:	e59f1078 	ldr	r1, [pc, #120]	; 9598 <gpio_set_pud+0xe8>
    951c:	e59f0080 	ldr	r0, [pc, #128]	; 95a4 <gpio_set_pud+0xf4>
    9520:	ebfffcd0 	bl	8868 <printk>
    9524:	ebfffec2 	bl	9034 <clean_reboot>
    9528:	eb00006d 	bl	96e4 <dev_barrier>
    952c:	e59f6074 	ldr	r6, [pc, #116]	; 95a8 <gpio_set_pud+0xf8>
    9530:	e1a01004 	mov	r1, r4
    9534:	e1a00006 	mov	r0, r6
    9538:	ebfffab9 	bl	8024 <PUT32>
    953c:	e3a00096 	mov	r0, #150, 0	; 0x96
    9540:	ebffff02 	bl	9150 <delay_us>
    9544:	e59f4060 	ldr	r4, [pc, #96]	; 95ac <gpio_set_pud+0xfc>
    9548:	e3a01001 	mov	r1, #1, 0
    954c:	e1a01511 	lsl	r1, r1, r5
    9550:	e1a00004 	mov	r0, r4
    9554:	ebfffab2 	bl	8024 <PUT32>
    9558:	e3a00096 	mov	r0, #150, 0	; 0x96
    955c:	ebfffefb 	bl	9150 <delay_us>
    9560:	e3a01000 	mov	r1, #0, 0
    9564:	e1a00006 	mov	r0, r6
    9568:	ebfffaad 	bl	8024 <PUT32>
    956c:	e3a00096 	mov	r0, #150, 0	; 0x96
    9570:	ebfffef6 	bl	9150 <delay_us>
    9574:	e3a01000 	mov	r1, #0, 0
    9578:	e1a00004 	mov	r0, r4
    957c:	ebfffaa8 	bl	8024 <PUT32>
    9580:	e3a00096 	mov	r0, #150, 0	; 0x96
    9584:	ebfffef1 	bl	9150 <delay_us>
    9588:	eb000055 	bl	96e4 <dev_barrier>
    958c:	eaffffd1 	b	94d8 <gpio_set_pud+0x28>
    9590:	00009ae4 	andeq	r9, r0, r4, ror #21
    9594:	00009b24 	andeq	r9, r0, r4, lsr #22
    9598:	00009aac 	andeq	r9, r0, ip, lsr #21
    959c:	00009ab8 			; <UNDEFINED> instruction: 0x00009ab8
    95a0:	00009b1c 	andeq	r9, r0, ip, lsl fp
    95a4:	00009af0 	strdeq	r9, [r0], -r0
    95a8:	20200094 	mlacs	r0, r4, r0, r0
    95ac:	20200098 	mlacs	r0, r8, r0, r0

000095b0 <gpio_set_pullup>:
    95b0:	e92d4010 	push	{r4, lr}
    95b4:	e3a01002 	mov	r1, #2, 0
    95b8:	ebffffbc 	bl	94b0 <gpio_set_pud>
    95bc:	e8bd8010 	pop	{r4, pc}

000095c0 <gpio_set_pulldown>:
    95c0:	e92d4010 	push	{r4, lr}
    95c4:	e3a01001 	mov	r1, #1, 0
    95c8:	ebffffb8 	bl	94b0 <gpio_set_pud>
    95cc:	e8bd8010 	pop	{r4, pc}

000095d0 <gpio_pud_off>:
    95d0:	e92d4010 	push	{r4, lr}
    95d4:	e3a01000 	mov	r1, #0, 0
    95d8:	ebffffb4 	bl	94b0 <gpio_set_pud>
    95dc:	e8bd8010 	pop	{r4, pc}

000095e0 <gpio_get_pud>:
    95e0:	e92d4010 	push	{r4, lr}
    95e4:	e59f0008 	ldr	r0, [pc, #8]	; 95f4 <gpio_get_pud+0x14>
    95e8:	ebfffa8f 	bl	802c <GET32>
    95ec:	e2000003 	and	r0, r0, #3, 0
    95f0:	e8bd8010 	pop	{r4, pc}
    95f4:	20200094 	mlacs	r0, r4, r0, r0

000095f8 <internal_putchar>:
    95f8:	e92d4010 	push	{r4, lr}
    95fc:	e1a04000 	mov	r4, r0
    9600:	ebffff84 	bl	9418 <uart_putc>
    9604:	e1a00004 	mov	r0, r4
    9608:	e8bd8010 	pop	{r4, pc}

0000960c <rpi_reset_putc>:
    960c:	e59f3008 	ldr	r3, [pc, #8]	; 961c <rpi_reset_putc+0x10>
    9610:	e59f2008 	ldr	r2, [pc, #8]	; 9620 <rpi_reset_putc+0x14>
    9614:	e5832000 	str	r2, [r3]
    9618:	e12fff1e 	bx	lr
    961c:	00009b38 	andeq	r9, r0, r8, lsr fp
    9620:	000095f8 	strdeq	r9, [r0], -r8

00009624 <rpi_set_putc>:
    9624:	e59f3004 	ldr	r3, [pc, #4]	; 9630 <rpi_set_putc+0xc>
    9628:	e5830000 	str	r0, [r3]
    962c:	e12fff1e 	bx	lr
    9630:	00009b38 	andeq	r9, r0, r8, lsr fp

00009634 <strcat>:
    9634:	e1a02000 	mov	r2, r0
    9638:	e1a03002 	mov	r3, r2
    963c:	e2822001 	add	r2, r2, #1, 0
    9640:	e5d3c000 	ldrb	ip, [r3]
    9644:	e35c0000 	cmp	ip, #0, 0
    9648:	1afffffa 	bne	9638 <strcat+0x4>
    964c:	e2433001 	sub	r3, r3, #1, 0
    9650:	e5d12000 	ldrb	r2, [r1]
    9654:	e2811001 	add	r1, r1, #1, 0
    9658:	e5e32001 	strb	r2, [r3, #1]!
    965c:	e3520000 	cmp	r2, #0, 0
    9660:	1afffffa 	bne	9650 <strcat+0x1c>
    9664:	e12fff1e 	bx	lr

00009668 <strcmp>:
    9668:	e5d03000 	ldrb	r3, [r0]
    966c:	e3530000 	cmp	r3, #0, 0
    9670:	0a000004 	beq	9688 <strcmp+0x20>
    9674:	e5d12000 	ldrb	r2, [r1]
    9678:	e1530002 	cmp	r3, r2
    967c:	02800001 	addeq	r0, r0, #1, 0
    9680:	02811001 	addeq	r1, r1, #1, 0
    9684:	0afffff7 	beq	9668 <strcmp>
    9688:	e5d10000 	ldrb	r0, [r1]
    968c:	e0430000 	sub	r0, r3, r0
    9690:	e12fff1e 	bx	lr

00009694 <strcpy>:
    9694:	e1a0c000 	mov	ip, r0
    9698:	e5d12000 	ldrb	r2, [r1]
    969c:	e2811001 	add	r1, r1, #1, 0
    96a0:	e5cc2000 	strb	r2, [ip]
    96a4:	e28cc001 	add	ip, ip, #1, 0
    96a8:	e3520000 	cmp	r2, #0, 0
    96ac:	1afffff9 	bne	9698 <strcpy+0x4>
    96b0:	e12fff1e 	bx	lr

000096b4 <strncmp>:
    96b4:	e3520000 	cmp	r2, #0, 0
    96b8:	e2422001 	sub	r2, r2, #1, 0
    96bc:	0a000005 	beq	96d8 <strncmp+0x24>
    96c0:	e4d03001 	ldrb	r3, [r0], #1
    96c4:	e4d1c001 	ldrb	ip, [r1], #1
    96c8:	e153000c 	cmp	r3, ip
    96cc:	0afffff8 	beq	96b4 <strncmp>
    96d0:	e043000c 	sub	r0, r3, ip
    96d4:	e12fff1e 	bx	lr
    96d8:	e3a00000 	mov	r0, #0, 0
    96dc:	e12fff1e 	bx	lr

000096e0 <reboot_callout>:
    96e0:	e12fff1e 	bx	lr

000096e4 <dev_barrier>:
    96e4:	ea000002 	b	96f4 <dsb>

000096e8 <dmb>:
    96e8:	e3a00000 	mov	r0, #0, 0
    96ec:	ee070fba 	mcr	15, 0, r0, cr7, cr10, {5}
    96f0:	e12fff1e 	bx	lr

000096f4 <dsb>:
    96f4:	ee070f9a 	mcr	15, 0, r0, cr7, cr10, {4}
    96f8:	e12fff1e 	bx	lr

000096fc <__code_end__>:
    96fc:	00000000 	andeq	r0, r0, r0

Disassembly of section .rodata:

00009700 <__FUNCTION__.3988-0x1f0>:
    9700:	706f7374 	rsbvc	r7, pc, r4, ror r3	; <UNPREDICTABLE>
    9704:	0000632e 	andeq	r6, r0, lr, lsr #6
    9708:	494e4150 	stmdbmi	lr, {r4, r6, r8, lr}^
    970c:	73253a43 			; <UNDEFINED> instruction: 0x73253a43
    9710:	3a73253a 	bcc	1cd2c00 <__bss_end__+0x1cc84c0>
    9714:	693a6425 	ldmdbvs	sl!, {r0, r2, r5, sl, sp, lr}
    9718:	6c61766e 	stclvs	6, cr7, [r1], #-440	; 0xfffffe48
    971c:	74206469 	strtvc	r6, [r0], #-1129	; 0xfffffb97
    9720:	3a656d69 	bcc	1964ccc <__bss_end__+0x195a58c>
    9724:	64253c20 	strtvs	r3, [r5], #-3104	; 0xfffff3e0
    9728:	7865203e 	stmdavc	r5!, {r1, r2, r3, r4, r5, sp}^
    972c:	74636570 	strbtvc	r6, [r3], #-1392	; 0xfffffa90
    9730:	25206465 	strcs	r6, [r0, #-1125]!	; 0xfffffb9b
    9734:	726f2064 	rsbvc	r2, pc, #100, 0	; 0x64
    9738:	0a642520 	beq	1912bc0 <__bss_end__+0x1908480>
    973c:	0000000a 	andeq	r0, r0, sl
    9740:	56203e2d 	strtpl	r3, [r0], -sp, lsr #28
    9744:	2b204c4f 	blcs	81c888 <__bss_end__+0x812148>
    9748:	0000000a 	andeq	r0, r0, sl
    974c:	4f203e2d 	svcmi	0x00203e2d
    9750:	0000000a 	andeq	r0, r0, sl
    9754:	58203e2d 	stmdapl	r0!, {r0, r2, r3, r5, r9, sl, fp, ip, sp}
    9758:	0000000a 	andeq	r0, r0, sl
    975c:	56203e2d 	strtpl	r3, [r0], -sp, lsr #28
    9760:	2d204c4f 	stccs	12, cr4, [r0, #-316]!	; 0xfffffec4
    9764:	0000000a 	andeq	r0, r0, sl
    9768:	53203e2d 			; <UNDEFINED> instruction: 0x53203e2d
    976c:	6372756f 	cmnvs	r2, #465567744	; 0x1bc00000
    9770:	00000a65 	andeq	r0, r0, r5, ror #20
    9774:	4d203e2d 	stcmi	14, cr3, [r0, #-180]!	; 0xffffff4c
    9778:	0a455455 	beq	115e8d4 <__bss_end__+0x1154194>
    977c:	00000000 	andeq	r0, r0, r0
    9780:	50203e2d 	eorpl	r3, r0, sp, lsr #28
    9784:	7265776f 	rsbvc	r7, r5, #29097984	; 0x1bc0000
    9788:	0000000a 	andeq	r0, r0, sl
    978c:	52203e2d 	eorpl	r3, r0, #720	; 0x2d0
    9790:	616c7065 	cmnvs	ip, r5, rrx
    9794:	00000a79 	andeq	r0, r0, r9, ror sl
    9798:	52203e2d 	eorpl	r3, r0, #720	; 0x2d0
    979c:	6e697765 	cdpvs	7, 6, cr7, cr9, cr5, {3}
    97a0:	00000a64 	andeq	r0, r0, r4, ror #20
    97a4:	46203e2d 	strtmi	r3, [r0], -sp, lsr #28
    97a8:	6177726f 	cmnvs	r7, pc, ror #4
    97ac:	53206472 			; <UNDEFINED> instruction: 0x53206472
    97b0:	0a70696b 	beq	1c23d64 <__bss_end__+0x1c19624>
    97b4:	00000000 	andeq	r0, r0, r0
    97b8:	50203e2d 	eorpl	r3, r0, sp, lsr #28
    97bc:	2f59414c 	svccs	0x0059414c
    97c0:	53554150 	cmppl	r5, #20
    97c4:	00000a45 	andeq	r0, r0, r5, asr #20
    97c8:	766e6f63 	strbtvc	r6, [lr], -r3, ror #30
    97cc:	20747265 	rsbscs	r7, r4, r5, ror #4
    97d0:	69206e61 	stmdbvs	r0!, {r0, r5, r6, r9, sl, fp, sp, lr}
    97d4:	7475706e 	ldrbtvc	r7, [r5], #-110	; 0xffffff92
    97d8:	6c617620 	stclvs	6, cr7, [r1], #-128	; 0xffffff80
    97dc:	74206575 	strtvc	r6, [r0], #-1397	; 0xfffffa8b
    97e0:	2061206f 	rsbcs	r2, r1, pc, rrx
    97e4:	69727473 	ldmdbvs	r2!, {r0, r1, r4, r5, r6, sl, ip, sp, lr}^
    97e8:	000a676e 	andeq	r6, sl, lr, ror #14
    97ec:	494e4150 	stmdbmi	lr, {r4, r6, r8, lr}^
    97f0:	73253a43 			; <UNDEFINED> instruction: 0x73253a43
    97f4:	3a73253a 	bcc	1cd2ce4 <__bss_end__+0x1cc85a4>
    97f8:	253a6425 	ldrcs	r6, [sl, #-1061]!	; 0xfffffbdb
    97fc:	00000a73 	andeq	r0, r0, r3, ror sl
    9800:	0000006e 	andeq	r0, r0, lr, rrx
    9804:	2d2d2d2d 	stccs	13, cr2, [sp, #-180]!	; 0xffffff4c
    9808:	2d2d2d2d 	stccs	13, cr2, [sp, #-180]!	; 0xffffff4c
    980c:	2d2d2d2d 	stccs	13, cr2, [sp, #-180]!	; 0xffffff4c
    9810:	2d2d2d2d 	stccs	13, cr2, [sp, #-180]!	; 0xffffff4c
    9814:	2d2d2d2d 	stccs	13, cr2, [sp, #-180]!	; 0xffffff4c
    9818:	2d2d2d2d 	stccs	13, cr2, [sp, #-180]!	; 0xffffff4c
    981c:	2d2d2d2d 	stccs	13, cr2, [sp, #-180]!	; 0xffffff4c
    9820:	2d2d2d2d 	stccs	13, cr2, [sp, #-180]!	; 0xffffff4c
    9824:	2d2d2d2d 	stccs	13, cr2, [sp, #-180]!	; 0xffffff4c
    9828:	2d2d2d2d 	stccs	13, cr2, [sp, #-180]!	; 0xffffff4c
    982c:	2d2d2d2d 	stccs	13, cr2, [sp, #-180]!	; 0xffffff4c
    9830:	2d2d2d2d 	stccs	13, cr2, [sp, #-180]!	; 0xffffff4c
    9834:	2d2d2d2d 	stccs	13, cr2, [sp, #-180]!	; 0xffffff4c
    9838:	0a2d2d2d 	beq	b54cf4 <__bss_end__+0xb4a5b4>
    983c:	00000000 	andeq	r0, r0, r0
    9840:	5f736921 	svcpl	0x00736921
    9844:	64616568 	strbtvs	r6, [r1], #-1384	; 0xfffffa98
    9848:	72287265 	eorvc	r7, r8, #1342177286	; 0x50000006
    984c:	6e2c692b 	vmulvs.f16	s12, s24, s23	; <UNPREDICTABLE>
    9850:	202c692d 	eorcs	r6, ip, sp, lsr #18
    9854:	6f6d6572 	svcvs	0x006d6572
    9858:	745f6574 	ldrbvc	r6, [pc], #-1396	; 9860 <__code_end__+0x164>
    985c:	29657079 	stmdbcs	r5!, {r0, r3, r4, r5, r6, ip, sp, lr}^
    9860:	00000000 	andeq	r0, r0, r0
    9864:	3a642509 	bcc	1912c90 <__bss_end__+0x1908550>
    9868:	20642520 	rsbcs	r2, r4, r0, lsr #10
    986c:	6425203d 	strtvs	r2, [r5], #-61	; 0xffffffc3
    9870:	65737520 	ldrbvs	r7, [r3, #-1312]!	; 0xfffffae0
    9874:	00000a63 	andeq	r0, r0, r3, ror #20
    9878:	53494f4e 	movtpl	r4, #40782	; 0x9f4e
    987c:	00000a45 	andeq	r0, r0, r5, asr #20
    9880:	203e206e 	eorscs	r2, lr, lr, rrx
    9884:	00000034 	andeq	r0, r0, r4, lsr r0
    9888:	735f7369 	cmpvc	pc, #-1543503871	; 0xa4000001
    988c:	2870696b 	ldmdacs	r0!, {r0, r1, r3, r5, r6, r8, fp, sp, lr}^
    9890:	325b7226 	subscc	r7, fp, #1610612738	; 0x60000002
    9894:	0000295d 	andeq	r2, r0, sp, asr r9
    9898:	735f7369 	cmpvc	pc, #-1543503871	; 0xa4000001
    989c:	2870696b 	ldmdacs	r0!, {r0, r1, r3, r5, r6, r8, fp, sp, lr}^
    98a0:	695b7226 	ldmdbvs	fp, {r1, r2, r5, r9, ip, sp, lr}^
    98a4:	0000295d 	andeq	r2, r0, sp, asr r9
    98a8:	756f6261 	strbvc	r6, [pc, #-609]!	; 964f <strcat+0x1b>
    98ac:	6f742074 	svcvs	0x00742074
    98b0:	61747320 	cmnvs	r4, r0, lsr #6
    98b4:	72207472 	eorvc	r7, r0, #1912602624	; 0x72000000
    98b8:	69646165 	stmdbvs	r4!, {r0, r2, r5, r6, r8, sp, lr}^
    98bc:	000a676e 	andeq	r6, sl, lr, ror #14
    98c0:	656e6f64 	strbvs	r6, [lr, #-3940]!	; 0xfffff09c
    98c4:	74656720 	strbtvc	r6, [r5], #-1824	; 0xfffff8e0
    98c8:	676e6974 			; <UNDEFINED> instruction: 0x676e6974
    98cc:	61657220 	cmnvs	r5, r0, lsr #4
    98d0:	676e6964 	strbvs	r6, [lr, -r4, ror #18]!
    98d4:	00000a73 	andeq	r0, r0, r3, ror sl
    98d8:	766e6f63 	strbtvc	r6, [lr], -r3, ror #30
    98dc:	65747265 	ldrbvs	r7, [r4, #-613]!	; 0xfffffd9b
    98e0:	6f742064 	svcvs	0x00742064
    98e4:	0a782520 	beq	1e12d6c <__bss_end__+0x1e0862c>
    98e8:	00000000 	andeq	r0, r0, r0
    98ec:	000a7325 	andeq	r7, sl, r5, lsr #6

000098f0 <__FUNCTION__.3988>:
    98f0:	6b636970 	blvs	18e3eb8 <__bss_end__+0x18d9778>
    98f4:	00000000 	andeq	r0, r0, r0

000098f8 <__FUNCTION__.4026>:
    98f8:	6e697270 	mcrvs	2, 3, r7, cr9, cr0, {3}
    98fc:	65725f74 	ldrbvs	r5, [r2, #-3956]!	; 0xfffff08c
    9900:	6e696461 	cdpvs	4, 6, cr6, cr9, cr1, {3}
    9904:	00007367 	andeq	r7, r0, r7, ror #6

00009908 <__FUNCTION__.4003>:
    9908:	766e6f63 	strbtvc	r6, [lr], -r3, ror #30
    990c:	5f747265 	svcpl	0x00747265
    9910:	0063656e 	rsbeq	r6, r3, lr, ror #10

00009914 <__FUNCTION__.4013>:
    9914:	766e6f63 	strbtvc	r6, [lr], -r3, ror #30
    9918:	5f747265 	svcpl	0x00747265
    991c:	656e6567 	strbvs	r6, [lr, #-1383]!	; 0xfffffa99
    9920:	00636972 	rsbeq	r6, r3, r2, ror r9

00009924 <power_btn>:
    9924:	1de237e2 	stclne	7, cr3, [r2, #904]!	; 0x388

00009928 <one_exp>:
    9928:	00000578 	andeq	r0, r0, r8, ror r5

0000992c <zero_exp>:
    992c:	00000190 	muleq	r0, r0, r1

00009930 <skip_exp>:
    9930:	00000258 	andeq	r0, r0, r8, asr r2

00009934 <header_exp>:
    9934:	00001194 	muleq	r0, r4, r1
    9938:	696c2f2e 	stmdbvs	ip!, {r1, r2, r3, r5, r8, r9, sl, fp, sp}^
    993c:	762f6362 	strtvc	r6, [pc], -r2, ror #6
    9940:	72702d61 	rsbsvc	r2, r0, #6208	; 0x1840
    9944:	6b746e69 	blvs	1d252f0 <__bss_end__+0x1d1abb0>
    9948:	0000632e 	andeq	r6, r0, lr, lsr #6
    994c:	00000030 	andeq	r0, r0, r0, lsr r0
    9950:	33323130 	teqcc	r2, #12
    9954:	37363534 			; <UNDEFINED> instruction: 0x37363534
    9958:	00003938 	andeq	r3, r0, r8, lsr r9
    995c:	33323130 	teqcc	r2, #12
    9960:	37363534 			; <UNDEFINED> instruction: 0x37363534
    9964:	62613938 	rsbvs	r3, r1, #56, 18	; 0xe0000
    9968:	66656463 	strbtvs	r6, [r5], -r3, ror #8
    996c:	00000000 	andeq	r0, r0, r0
    9970:	00003130 	andeq	r3, r0, r0, lsr r1
    9974:	63747570 	cmnvs	r4, #112, 10	; 0x1c000000
    9978:	0070665f 	rsbseq	r6, r0, pc, asr r6
    997c:	74646977 	strbtvc	r6, [r4], #-2423	; 0xfffff689
    9980:	203c2068 	eorscs	r2, ip, r8, rrx
    9984:	00003233 	andeq	r3, r0, r3, lsr r2
    9988:	00786c6c 	rsbseq	r6, r8, ip, ror #24
    998c:	00646c6c 	rsbeq	r6, r4, ip, ror #24
    9990:	253d3078 	ldrcs	r3, [sp, #-120]!	; 0xffffff88
    9994:	00000a78 	andeq	r0, r0, r8, ror sl
    9998:	253d3178 	ldrcs	r3, [sp, #-376]!	; 0xfffffe88
    999c:	00000a78 	andeq	r0, r0, r8, ror sl
    99a0:	6e727473 	mrcvs	4, 3, r7, cr2, cr3, {3}
    99a4:	28706d63 	ldmdacs	r0!, {r0, r1, r5, r6, r8, sl, fp, sp, lr}^
    99a8:	202c7974 	eorcs	r7, ip, r4, ror r9
    99ac:	786c6c22 	stmdavc	ip!, {r1, r5, sl, fp, sp, lr}^
    99b0:	33202c22 			; <UNDEFINED> instruction: 0x33202c22
    99b4:	3d3d2029 	ldccc	0, cr2, [sp, #-164]!	; 0xffffff5c
    99b8:	7c203020 	stcvc	0, cr3, [r0], #-128	; 0xffffff80
    99bc:	7473207c 	ldrbtvc	r2, [r3], #-124	; 0xffffff84
    99c0:	6d636e72 	stclvs	14, cr6, [r3, #-456]!	; 0xfffffe38
    99c4:	79742870 	ldmdbvc	r4!, {r4, r5, r6, fp, sp}^
    99c8:	6c22202c 	stcvs	0, cr2, [r2], #-176	; 0xffffff50
    99cc:	2c22646c 	cfstrscs	mvf6, [r2], #-432	; 0xfffffe50
    99d0:	20293320 	eorcs	r3, r9, r0, lsr #6
    99d4:	30203d3d 	eorcc	r3, r0, sp, lsr sp
    99d8:	00000000 	andeq	r0, r0, r0
    99dc:	494e4150 	stmdbmi	lr, {r4, r6, r8, lr}^
    99e0:	73253a43 			; <UNDEFINED> instruction: 0x73253a43
    99e4:	3a73253a 	bcc	1cd2ed4 <__bss_end__+0x1cc8794>
    99e8:	693a6425 	ldmdbvs	sl!, {r0, r2, r5, sl, sp, lr}
    99ec:	736f706d 	cmnvc	pc, #109, 0	; 0x6d
    99f0:	6c626973 			; <UNDEFINED> instruction: 0x6c626973
    99f4:	66203a65 	strtvs	r3, [r0], -r5, ror #20
    99f8:	3c3d746d 	cfldrscc	mvf7, [sp], #-436	; 0xfffffe4c
    99fc:	0a3e7325 	beq	fa6698 <__bss_end__+0xf9bf58>
    9a00:	0000000a 	andeq	r0, r0, sl
    9a04:	494e4150 	stmdbmi	lr, {r4, r6, r8, lr}^
    9a08:	73253a43 			; <UNDEFINED> instruction: 0x73253a43
    9a0c:	3a73253a 	bcc	1cd2efc <__bss_end__+0x1cc87bc>
    9a10:	663a6425 	ldrtvs	r6, [sl], -r5, lsr #8
    9a14:	74616f6c 	strbtvc	r6, [r1], #-3948	; 0xfffff094
    9a18:	746f6e20 	strbtvc	r6, [pc], #-3616	; 9a20 <header_exp+0xec>
    9a1c:	616e6520 	cmnvs	lr, r0, lsr #10
    9a20:	64656c62 	strbtvs	r6, [r5], #-3170	; 0xfffff39e
    9a24:	0a212121 	beq	851eb0 <__bss_end__+0x847770>
    9a28:	00000000 	andeq	r0, r0, r0
    9a2c:	6e697270 	mcrvs	2, 3, r7, cr9, cr0, {3}
    9a30:	203a6b74 	eorscs	r6, sl, r4, ror fp
    9a34:	20746f6e 	rsbscs	r6, r4, lr, ror #30
    9a38:	646e6168 	strbtvs	r6, [lr], #-360	; 0xfffffe98
    9a3c:	676e696c 	strbvs	r6, [lr, -ip, ror #18]!
    9a40:	65707320 	ldrbvs	r7, [r0, #-800]!	; 0xfffffce0
    9a44:	69666963 	stmdbvs	r6!, {r0, r1, r5, r6, r8, fp, sp, lr}^
    9a48:	27207265 	strcs	r7, [r0, -r5, ror #4]!
    9a4c:	20276325 	eorcs	r6, r7, r5, lsr #6
    9a50:	63736128 	cmnvs	r3, #10
    9a54:	253d6969 	ldrcs	r6, [sp, #-2409]!	; 0xfffff697
    9a58:	000a2964 	andeq	r2, sl, r4, ror #18
    9a5c:	494e4150 	stmdbmi	lr, {r4, r6, r8, lr}^
    9a60:	73253a43 			; <UNDEFINED> instruction: 0x73253a43
    9a64:	3a73253a 	bcc	1cd2f54 <__bss_end__+0x1cc8814>
    9a68:	703a6425 	eorsvc	r6, sl, r5, lsr #8
    9a6c:	746e6972 	strbtvc	r6, [lr], #-2418	; 0xfffff68e
    9a70:	7265206b 	rsbvc	r2, r5, #107, 0	; 0x6b
    9a74:	0a726f72 	beq	1ca5844 <__bss_end__+0x1c9b104>
    9a78:	0000000a 	andeq	r0, r0, sl

00009a7c <__FUNCTION__.4004>:
    9a7c:	74696d65 	strbtvc	r6, [r9], #-3429	; 0xfffff29b
    9a80:	00000000 	andeq	r0, r0, r0

00009a84 <__FUNCTION__.3952>:
    9a84:	5f697072 	svcpl	0x00697072
    9a88:	5f746573 	svcpl	0x00746573
    9a8c:	7074756f 	rsbsvc	r7, r4, pc, ror #10
    9a90:	00007475 	andeq	r7, r0, r5, ror r4

00009a94 <__FUNCTION__.4030>:
    9a94:	705f6176 	subsvc	r6, pc, r6, ror r1	; <UNPREDICTABLE>
    9a98:	746e6972 	strbtvc	r6, [lr], #-2418	; 0xfffff68e
    9a9c:	0000006b 	andeq	r0, r0, fp, rrx
    9aa0:	454e4f44 	strbmi	r4, [lr, #-3908]	; 0xfffff0bc
    9aa4:	0a212121 	beq	851f30 <__bss_end__+0x8477f0>
    9aa8:	00000000 	andeq	r0, r0, r0
    9aac:	6f697067 	svcvs	0x00697067
    9ab0:	6475702d 	ldrbtvs	r7, [r5], #-45	; 0xffffffd3
    9ab4:	0000632e 	andeq	r6, r0, lr, lsr #6
    9ab8:	4f525245 	svcmi	0x00525245
    9abc:	73253a52 			; <UNDEFINED> instruction: 0x73253a52
    9ac0:	3a73253a 	bcc	1cd2fb0 <__bss_end__+0x1cc8870>
    9ac4:	203a6425 	eorscs	r6, sl, r5, lsr #8
    9ac8:	534c4146 	movtpl	r4, #49478	; 0xc146
    9acc:	253c2845 	ldrcs	r2, [ip, #-2117]!	; 0xfffff7bb
    9ad0:	3a293e73 	bcc	a594a4 <__bss_end__+0xa4ed64>
    9ad4:	6e697020 	cdpvs	0, 6, cr7, cr9, cr0, {1}
    9ad8:	6f6f7420 	svcvs	0x006f7420
    9adc:	72616c20 	rsbvc	r6, r1, #32, 24	; 0x2000
    9ae0:	000a6567 	andeq	r6, sl, r7, ror #10
    9ae4:	206e6970 	rsbcs	r6, lr, r0, ror r9
    9ae8:	3233203c 	eorscc	r2, r3, #60, 0	; 0x3c
    9aec:	00000000 	andeq	r0, r0, r0
    9af0:	4f525245 	svcmi	0x00525245
    9af4:	73253a52 			; <UNDEFINED> instruction: 0x73253a52
    9af8:	3a73253a 	bcc	1cd2fe8 <__bss_end__+0x1cc88a8>
    9afc:	203a6425 	eorscs	r6, sl, r5, lsr #8
    9b00:	534c4146 	movtpl	r4, #49478	; 0xc146
    9b04:	253c2845 	ldrcs	r2, [ip, #-2117]!	; 0xfffff7bb
    9b08:	3a293e73 	bcc	a594dc <__bss_end__+0xa4ed9c>
    9b0c:	64757020 	ldrbtvs	r7, [r5], #-32	; 0xffffffe0
    9b10:	6f6f7420 	svcvs	0x006f7420
    9b14:	72616c20 	rsbvc	r6, r1, #32, 24	; 0x2000
    9b18:	000a6567 	andeq	r6, sl, r7, ror #10
    9b1c:	20647570 	rsbcs	r7, r4, r0, ror r5
    9b20:	0034203c 	eorseq	r2, r4, ip, lsr r0

00009b24 <__FUNCTION__.0>:
    9b24:	6f697067 	svcvs	0x00697067
    9b28:	7465735f 	strbtvc	r7, [r5], #-863	; 0xfffffca1
    9b2c:	6475705f 	ldrbtvs	r7, [r5], #-95	; 0xffffffa1
	...

Disassembly of section .data:

00009b34 <putk>:
    9b34:	000088c0 	andeq	r8, r0, r0, asr #17

00009b38 <rpi_putchar>:
    9b38:	000095f8 	strdeq	r9, [r0], -r8

Disassembly of section .bss:

00009b3c <__bss_start__>:
	...

0000a33c <buf.3944>:
	...

Disassembly of section .ARM.attributes:

00000000 <.ARM.attributes>:
   0:	00002a41 	andeq	r2, r0, r1, asr #20
   4:	61656100 	cmnvs	r5, r0, lsl #2
   8:	01006962 	tsteq	r0, r2, ror #18
   c:	00000020 	andeq	r0, r0, r0, lsr #32
  10:	4b5a3605 	blmi	168d82c <__bss_end__+0x16830ec>
  14:	08070600 	stmdaeq	r7, {r9, sl}
  18:	12010901 	andne	r0, r1, #16384	; 0x4000
  1c:	15011404 	strne	r1, [r1, #-1028]	; 0xfffffbfc
  20:	18031701 	stmdane	r3, {r0, r8, r9, sl, ip}
  24:	22011a01 	andcs	r1, r1, #4096	; 0x1000
  28:	Address 0x0000000000000028 is out of bounds.


Disassembly of section .comment:

00000000 <.comment>:
   0:	3a434347 	bcc	10d0d24 <__bss_end__+0x10c65e4>
   4:	4e472820 	cdpmi	8, 4, cr2, cr7, cr0, {1}
   8:	6f542055 	svcvs	0x00542055
   c:	20736c6f 	rsbscs	r6, r3, pc, ror #24
  10:	20726f66 	rsbscs	r6, r2, r6, ror #30
  14:	206d7241 	rsbcs	r7, sp, r1, asr #4
  18:	65626d45 	strbvs	r6, [r2, #-3397]!	; 0xfffff2bb
  1c:	64656464 	strbtvs	r6, [r5], #-1124	; 0xfffffb9c
  20:	6f725020 	svcvs	0x00725020
  24:	73736563 	cmnvc	r3, #415236096	; 0x18c00000
  28:	2073726f 	rsbscs	r7, r3, pc, ror #4
  2c:	30322d39 	eorscc	r2, r2, r9, lsr sp
  30:	712d3931 			; <UNDEFINED> instruction: 0x712d3931
  34:	616d2d34 	cmnvs	sp, r4, lsr sp
  38:	29726f6a 	ldmdbcs	r2!, {r1, r3, r5, r6, r8, r9, sl, fp, sp, lr}^
  3c:	322e3920 	eorcc	r3, lr, #32, 18	; 0x80000
  40:	3220312e 	eorcc	r3, r0, #-2147483637	; 0x8000000b
  44:	31393130 	teqcc	r9, r0, lsr r1
  48:	20353230 	eorscs	r3, r5, r0, lsr r2
  4c:	6c657228 	sfmvs	f7, 2, [r5], #-160	; 0xffffff60
  50:	65736165 	ldrbvs	r6, [r3, #-357]!	; 0xfffffe9b
  54:	415b2029 	cmpmi	fp, r9, lsr #32
  58:	612f4d52 			; <UNDEFINED> instruction: 0x612f4d52
  5c:	392d6d72 	pushcc	{r1, r4, r5, r6, r8, sl, fp, sp, lr}
  60:	6172622d 	cmnvs	r2, sp, lsr #4
  64:	2068636e 	rsbcs	r6, r8, lr, ror #6
  68:	69766572 	ldmdbvs	r6!, {r1, r4, r5, r6, r8, sl, sp, lr}^
  6c:	6e6f6973 			; <UNDEFINED> instruction: 0x6e6f6973
  70:	37373220 	ldrcc	r3, [r7, -r0, lsr #4]!
  74:	5d393935 			; <UNDEFINED> instruction: 0x5d393935
  78:	43434700 	movtmi	r4, #14080	; 0x3700
  7c:	4728203a 			; <UNDEFINED> instruction: 0x4728203a
  80:	4120554e 			; <UNDEFINED> instruction: 0x4120554e
  84:	45206d72 	strmi	r6, [r0, #-3442]!	; 0xfffff28e
  88:	6465626d 	strbtvs	r6, [r5], #-621	; 0xfffffd93
  8c:	20646564 	rsbcs	r6, r4, r4, ror #10
  90:	6c6f6f54 	stclvs	15, cr6, [pc], #-336	; ffffff48 <__bss_end__+0xffff5808>
  94:	69616863 	stmdbvs	r1!, {r0, r1, r5, r6, fp, sp, lr}^
  98:	3031206e 	eorscc	r2, r1, lr, rrx
  9c:	322d332e 	eorcc	r3, sp, #-1207959552	; 0xb8000000
  a0:	2e313230 	mrccs	2, 1, r3, cr1, cr0, {1}
  a4:	20293031 	eorcs	r3, r9, r1, lsr r0
  a8:	332e3031 			; <UNDEFINED> instruction: 0x332e3031
  ac:	3220312e 	eorcc	r3, r0, #-2147483637	; 0x8000000b
  b0:	30313230 	eorscc	r3, r1, r0, lsr r2
  b4:	20343238 	eorscs	r3, r4, r8, lsr r2
  b8:	6c657228 	sfmvs	f7, 2, [r5], #-160	; 0xffffff60
  bc:	65736165 	ldrbvs	r6, [r3, #-357]!	; 0xfffffe9b
  c0:	Address 0x00000000000000c0 is out of bounds.


Disassembly of section .debug_info:

00000000 <.debug_info>:
       0:	00000d3c 	andeq	r0, r0, ip, lsr sp
       4:	00000004 	andeq	r0, r0, r4
       8:	01040000 	mrseq	r0, (UNDEF: 4)
       c:	00000141 	andeq	r0, r0, r1, asr #2
      10:	0002810c 	andeq	r8, r2, ip, lsl #2
      14:	00021e00 	andeq	r1, r2, r0, lsl #28
      18:	00803800 	addeq	r3, r0, r0, lsl #16
      1c:	00083000 	andeq	r3, r8, r0
      20:	00000000 	andeq	r0, r0, r0
      24:	05040200 	streq	r0, [r4, #-512]	; 0xfffffe00
      28:	00746e69 	rsbseq	r6, r4, r9, ror #28
      2c:	01070403 	tsteq	r7, r3, lsl #8
      30:	04000001 	streq	r0, [r0], #-1
      34:	0000002c 	andeq	r0, r0, ip, lsr #32
      38:	da060103 	ble	18044c <__bss_end__+0x175d0c>
      3c:	03000000 	movweq	r0, #0
      40:	000b0502 	andeq	r0, fp, r2, lsl #10
      44:	04030000 	streq	r0, [r3], #-0
      48:	00008005 	andeq	r8, r0, r5
      4c:	05080300 	streq	r0, [r8, #-768]	; 0xfffffd00
      50:	0000007b 	andeq	r0, r0, fp, ror r0
      54:	d8080103 	stmdale	r8, {r0, r1, r8}
      58:	03000000 	movweq	r0, #0
      5c:	01160702 	tsteq	r6, r2, lsl #14
      60:	04030000 	streq	r0, [r3], #-0
      64:	0000fc07 	andeq	pc, r0, r7, lsl #24
      68:	07080300 	streq	r0, [r8, -r0, lsl #6]
      6c:	000000f7 	strdeq	r0, [r0], -r7
      70:	00002505 	andeq	r2, r0, r5, lsl #10
      74:	00007f00 	andeq	r7, r0, r0, lsl #30
      78:	00250600 	eoreq	r0, r5, r0, lsl #12
      7c:	07000000 	streq	r0, [r0, -r0]
      80:	00000028 	andeq	r0, r0, r8, lsr #32
      84:	8b0e1c02 	blhi	387094 <__bss_end__+0x37c954>
      88:	08000000 	stmdaeq	r0, {}	; <UNPREDICTABLE>
      8c:	00007004 	andeq	r7, r0, r4
      90:	00250500 	eoreq	r0, r5, r0, lsl #10
      94:	00a00000 	adceq	r0, r0, r0
      98:	a0060000 	andge	r0, r6, r0
      9c:	00000000 	andeq	r0, r0, r0
      a0:	00ad0408 	adceq	r0, sp, r8, lsl #8
      a4:	01030000 	mrseq	r0, (UNDEF: 3)
      a8:	0000e108 	andeq	lr, r0, r8, lsl #2
      ac:	00a60400 	adceq	r0, r6, r0, lsl #8
      b0:	3c070000 	stccc	0, cr0, [r7], {-0}
      b4:	02000003 	andeq	r0, r0, #3, 0
      b8:	00be0e21 	adcseq	r0, lr, r1, lsr #28
      bc:	04080000 	streq	r0, [r8], #-0
      c0:	00000091 	muleq	r0, r1, r0
      c4:	54010709 	strpl	r0, [r1], #-1801	; 0xfffff8f7
      c8:	01000000 	mrseq	r0, (UNDEF: 0)
      cc:	00d90608 	sbcseq	r0, r9, r8, lsl #12
      d0:	f00a0000 			; <UNDEFINED> instruction: 0xf00a0000
      d4:	c8000000 	stmdagt	r0, {}	; <UNPREDICTABLE>
      d8:	01070900 	tsteq	r7, r0, lsl #18
      dc:	00000054 	andeq	r0, r0, r4, asr r0
      e0:	ee060b01 	vmla.f64	d0, d6, d1
      e4:	0a000000 	beq	ec <__code_start__-0x7f14>
      e8:	00000288 	andeq	r0, r0, r8, lsl #5
      ec:	c00b0000 	andgt	r0, fp, r0
      f0:	01000000 	mrseq	r0, (UNDEF: 0)
      f4:	0033100d 	eorseq	r1, r3, sp
      f8:	03050000 	movweq	r0, #20480	; 0x5000
      fc:	00009934 	andeq	r9, r0, r4, lsr r9
     100:	0000530b 	andeq	r5, r0, fp, lsl #6
     104:	100e0100 	andne	r0, lr, r0, lsl #2
     108:	00000033 	andeq	r0, r0, r3, lsr r0
     10c:	99300305 	ldmdbls	r0!, {r0, r2, r8, r9}
     110:	8e0b0000 	cdphi	0, 0, cr0, cr11, cr0, {0}
     114:	01000002 	tsteq	r0, r2
     118:	00331011 	eorseq	r1, r3, r1, lsl r0
     11c:	03050000 	movweq	r0, #20480	; 0x5000
     120:	0000992c 	andeq	r9, r0, ip, lsr #18
     124:	00026f0b 	andeq	r6, r2, fp, lsl #30
     128:	10120100 	andsne	r0, r2, r0, lsl #2
     12c:	00000033 	andeq	r0, r0, r3, lsr r0
     130:	99280305 	stmdbls	r8!, {r0, r2, r8, r9}
     134:	770b0000 	strvc	r0, [fp, -r0]
     138:	01000002 	tsteq	r0, r2
     13c:	00331013 	eorseq	r1, r3, r3, lsl r0
     140:	03050000 	movweq	r0, #20480	; 0x5000
     144:	00009924 	andeq	r9, r0, r4, lsr #18
     148:	0000600c 	andeq	r6, r0, ip
     14c:	15010800 	strne	r0, [r1, #-2048]	; 0xfffff800
     150:	00016e08 	andeq	r6, r1, r8, lsl #28
     154:	02a10d00 	adceq	r0, r1, #0, 26
     158:	15010000 	strne	r0, [r1, #-0]
     15c:	00002c1c 	andeq	r2, r0, ip, lsl ip
     160:	760e0000 	strvc	r0, [lr], -r0
     164:	22150100 	andscs	r0, r5, #0
     168:	0000002c 	andeq	r0, r0, ip, lsr #32
     16c:	0e0f0004 	cdpeq	0, 0, cr0, cr15, cr4, {0}
     170:	01000001 	tsteq	r0, r1
     174:	877c06cf 	ldrbhi	r0, [ip, -pc, asr #13]!
     178:	00ec0000 	rsceq	r0, ip, r0
     17c:	9c010000 	stcls	0, cr0, [r1], {-0}
     180:	0000031e 	andeq	r0, r0, lr, lsl r3
     184:	006e6910 	rsbeq	r6, lr, r0, lsl r9
     188:	2509d001 	strcs	sp, [r9, #-1]
     18c:	15000000 	strne	r0, [r0, #-0]
     190:	00879411 	addeq	r9, r7, r1, lsl r4
     194:	0000d400 	andeq	sp, r0, r0, lsl #8
     198:	0002f700 	andeq	pc, r2, r0, lsl #14
     19c:	00721200 	rsbseq	r1, r2, r0, lsl #4
     1a0:	1e20da01 	vmulne.f32	s26, s0, s2
     1a4:	05000003 	streq	r0, [r0, #-3]
     1a8:	009b3c03 	addseq	r3, fp, r3, lsl #24
     1ac:	006e1300 	rsbeq	r1, lr, r0, lsl #6
     1b0:	250ddb01 	strcs	sp, [sp, #-2817]	; 0xfffff4ff
     1b4:	06000000 	streq	r0, [r0], -r0
     1b8:	00000000 	andeq	r0, r0, r0
     1bc:	13000000 	movwne	r0, #0
     1c0:	de010078 	mcrle	0, 0, r0, cr1, cr8, {3}
     1c4:	00002c12 	andeq	r2, r0, r2, lsl ip
     1c8:	00003300 	andeq	r3, r0, r0, lsl #6
     1cc:	00002f00 	andeq	r2, r0, r0, lsl #30
     1d0:	01351400 	teqeq	r5, r0, lsl #8
     1d4:	df010000 	svcle	0x00010000
     1d8:	00002c0c 	andeq	r2, r0, ip, lsl #24
     1dc:	00005500 	andeq	r5, r0, r0, lsl #10
     1e0:	00005100 	andeq	r5, r0, r0, lsl #2
     1e4:	656b1300 	strbvs	r1, [fp, #-768]!	; 0xfffffd00
     1e8:	e3010079 	movw	r0, #4217	; 0x1079
     1ec:	0000a015 	andeq	sl, r0, r5, lsl r0
     1f0:	00007900 	andeq	r7, r0, r0, lsl #18
     1f4:	00007300 	andeq	r7, r0, r0, lsl #6
     1f8:	87a01500 	strhi	r1, [r0, r0, lsl #10]!
     1fc:	05d30000 	ldrbeq	r0, [r3]
     200:	02160000 	andseq	r0, r6, #0, 0
     204:	01160000 	tsteq	r6, r0
     208:	3c030550 	cfstr32cc	mvfx0, [r3], {80}	; 0x50
     20c:	1600009b 			; <UNDEFINED> instruction: 0x1600009b
     210:	75025101 	strvc	r5, [r2, #-257]	; 0xfffffeff
     214:	ac170000 	ldcge	0, cr0, [r7], {-0}
     218:	03000087 	movweq	r0, #135	; 0x87
     21c:	1500000d 	strne	r0, [r0, #-13]
     220:	000087bc 			; <UNDEFINED> instruction: 0x000087bc
     224:	00000431 	andeq	r0, r0, r1, lsr r4
     228:	00000242 	andeq	r0, r0, r2, asr #4
     22c:	05500116 	ldrbeq	r0, [r0, #-278]	; 0xfffffeea
     230:	009b3c03 	addseq	r3, fp, r3, lsl #24
     234:	51011600 	tstpl	r1, r0, lsl #12
     238:	16007502 	strne	r7, [r0], -r2, lsl #10
     23c:	76025201 	strvc	r5, [r2], -r1, lsl #4
     240:	c4150000 	ldrgt	r0, [r5], #-0
     244:	0f000087 	svceq	0x00000087
     248:	5500000d 	strpl	r0, [r0, #-13]
     24c:	16000002 	strne	r0, [r0], -r2
     250:	45015001 	strmi	r5, [r1, #-1]
     254:	87dc1500 	ldrbhi	r1, [ip, r0, lsl #10]
     258:	036e0000 	cmneq	lr, #0, 0
     25c:	02780000 	rsbseq	r0, r8, #0, 0
     260:	01160000 	tsteq	r6, r0
     264:	16450150 			; <UNDEFINED> instruction: 0x16450150
     268:	03055101 	movweq	r5, #20737	; 0x5101
     26c:	00009b3c 	andeq	r9, r0, ip, lsr fp
     270:	03520116 	cmpeq	r2, #-2147483643	; 0x80000005
     274:	0001000a 	andeq	r0, r1, sl
     278:	0087e815 	addeq	lr, r7, r5, lsl r8
     27c:	000d1b00 	andeq	r1, sp, r0, lsl #22
     280:	00028f00 	andeq	r8, r2, r0, lsl #30
     284:	50011600 	andpl	r1, r1, r0, lsl #12
     288:	98c00305 	stmials	r0, {r0, r2, r8, r9}^
     28c:	15000000 	strne	r0, [r0, #-0]
     290:	000087fc 	strdeq	r8, [r0], -ip
     294:	000007b1 			; <UNDEFINED> instruction: 0x000007b1
     298:	000002ac 	andeq	r0, r0, ip, lsr #5
     29c:	05500116 	ldrbeq	r0, [r0, #-278]	; 0xfffffeea
     2a0:	009b3c03 	addseq	r3, fp, r3, lsl #24
     2a4:	51011600 	tstpl	r1, r0, lsl #12
     2a8:	00007502 	andeq	r7, r0, r2, lsl #10
     2ac:	00881815 	addeq	r1, r8, r5, lsl r8
     2b0:	000d1b00 	andeq	r1, sp, r0, lsl #22
     2b4:	0002c900 	andeq	ip, r2, r0, lsl #18
     2b8:	50011600 	andpl	r1, r1, r0, lsl #12
     2bc:	98d80305 	ldmls	r8, {r0, r2, r8, r9}^
     2c0:	01160000 	tsteq	r6, r0
     2c4:	00740251 	rsbseq	r0, r4, r1, asr r2
     2c8:	88381500 	ldmdahi	r8!, {r8, sl, ip}
     2cc:	0caf0000 	stceq	0, cr0, [pc]	; 2d4 <__code_start__-0x7d2c>
     2d0:	02e30000 	rsceq	r0, r3, #0, 0
     2d4:	01160000 	tsteq	r6, r0
     2d8:	00740250 	rsbseq	r0, r4, r0, asr r2
     2dc:	02510116 	subseq	r0, r1, #-2147483643	; 0x80000005
     2e0:	18000076 	stmdane	r0, {r1, r2, r4, r5, r6}
     2e4:	00008848 	andeq	r8, r0, r8, asr #16
     2e8:	00000d1b 	andeq	r0, r0, fp, lsl sp
     2ec:	05500116 	ldrbeq	r0, [r0, #-278]	; 0xfffffeea
     2f0:	0098ec03 	addseq	lr, r8, r3, lsl #24
     2f4:	15000000 	strne	r0, [r0, #-0]
     2f8:	00008788 	andeq	r8, r0, r8, lsl #15
     2fc:	0000032e 	andeq	r0, r0, lr, lsr #6
     300:	0000030a 	andeq	r0, r0, sl, lsl #6
     304:	01500116 	cmpeq	r0, r6, lsl r1
     308:	90180045 	andsls	r0, r8, r5, asr #32
     30c:	1b000087 	blne	530 <__code_start__-0x7ad0>
     310:	1600000d 	strne	r0, [r0], -sp
     314:	03055001 	movweq	r5, #20481	; 0x5001
     318:	000098a8 	andeq	r9, r0, r8, lsr #17
     31c:	48190000 	ldmdami	r9, {}	; <UNPREDICTABLE>
     320:	2e000001 	cdpcs	0, 0, cr0, cr0, cr1, {0}
     324:	1a000003 	bne	338 <__code_start__-0x7cc8>
     328:	0000002c 	andeq	r0, r0, ip, lsr #32
     32c:	341b00ff 	ldrcc	r0, [fp], #-255	; 0xffffff01
     330:	01000000 	mrseq	r0, (UNDEF: 0)
     334:	002505c9 	eoreq	r0, r5, r9, asr #11
     338:	876c0000 	strbhi	r0, [ip, -r0]!
     33c:	00100000 	andseq	r0, r0, r0
     340:	9c010000 	stcls	0, cr0, [r1], {-0}
     344:	0000036e 	andeq	r0, r0, lr, ror #6
     348:	00064d1c 	andeq	r4, r6, ip, lsl sp
     34c:	13c90100 	bicne	r0, r9, #0
     350:	00000025 	andeq	r0, r0, r5, lsr #32
     354:	000000a6 	andeq	r0, r0, r6, lsr #1
     358:	000000a2 	andeq	r0, r0, r2, lsr #1
     35c:	00877418 	addeq	r7, r7, r8, lsl r4
     360:	000d2700 	andeq	r2, sp, r0, lsl #14
     364:	50011600 	andpl	r1, r1, r0, lsl #12
     368:	5001f303 	andpl	pc, r1, r3, lsl #6
     36c:	891d0000 	ldmdbhi	sp, {}	; <UNPREDICTABLE>
     370:	01000000 	mrseq	r0, (UNDEF: 0)
     374:	00250cb7 	strhteq	r0, [r5], -r7
     378:	81540000 	cmphi	r4, r0
     37c:	00680000 	rsbeq	r0, r8, r0
     380:	9c010000 	stcls	0, cr0, [r1], {-0}
     384:	0000042b 	andeq	r0, r0, fp, lsr #8
     388:	006e691e 	rsbeq	r6, lr, lr, lsl r9
     38c:	251db701 	ldrcs	fp, [sp, #-1793]	; 0xfffff8ff
     390:	cb000000 	blgt	398 <__code_start__-0x7c68>
     394:	c7000000 	strgt	r0, [r0, -r0]
     398:	1e000000 	cdpne	0, 0, cr0, cr0, cr0, {0}
     39c:	b7010072 	smlsdxlt	r1, r2, r0, r0
     3a0:	00042b32 	andeq	r2, r4, r2, lsr fp
     3a4:	0000ed00 	andeq	lr, r0, r0, lsl #26
     3a8:	0000e900 	andeq	lr, r0, r0, lsl #18
     3ac:	004e1e00 	subeq	r1, lr, r0, lsl #28
     3b0:	2c3eb701 	ldccs	7, cr11, [lr], #-4
     3b4:	0f000000 	svceq	0x00000000
     3b8:	0b000001 	bleq	3c4 <__code_start__-0x7c3c>
     3bc:	1f000001 	svcne	0x00000001
     3c0:	000002a6 	andeq	r0, r0, r6, lsr #5
     3c4:	2c0bb901 			; <UNDEFINED> instruction: 0x2c0bb901
     3c8:	98000000 	stmdals	r0, {}	; <UNPREDICTABLE>
     3cc:	005c143a 	subseq	r1, ip, sl, lsr r4
     3d0:	ba010000 	blt	403d8 <__bss_end__+0x35c98>
     3d4:	00002c0b 	andeq	r2, r0, fp, lsl #24
     3d8:	00013100 	andeq	r3, r1, r0, lsl #2
     3dc:	00012d00 	andeq	r2, r1, r0, lsl #26
     3e0:	00691400 	rsbeq	r1, r9, r0, lsl #8
     3e4:	bc010000 	stclt	0, cr0, [r1], {-0}
     3e8:	00002c0b 	andeq	r2, r0, fp, lsl #24
     3ec:	00015400 	andeq	r5, r1, r0, lsl #8
     3f0:	00015000 	andeq	r5, r1, r0
     3f4:	00002000 	andeq	r2, r0, r0
     3f8:	69130000 	ldmdbvs	r3, {}	; <UNPREDICTABLE>
     3fc:	0bbd0100 	bleq	fef40804 <__bss_end__+0xfef360c4>
     400:	00000025 	andeq	r0, r0, r5, lsr #32
     404:	00000177 	andeq	r0, r0, r7, ror r1
     408:	00000173 	andeq	r0, r0, r3, ror r1
     40c:	00819018 	addeq	r9, r1, r8, lsl r0
     410:	000c1700 	andeq	r1, ip, r0, lsl #14
     414:	50011600 	andpl	r1, r1, r0, lsl #12
     418:	16007902 	strne	r7, [r0], -r2, lsl #18
     41c:	75025101 	strvc	r5, [r2, #-257]	; 0xfffffeff
     420:	52011600 	andpl	r1, r1, #0, 12
     424:	3a980a03 	bcc	fe602c38 <__bss_end__+0xfe5f84f8>
     428:	08000000 	stmdaeq	r0, {}	; <UNPREDICTABLE>
     42c:	00014804 	andeq	r4, r1, r4, lsl #16
     430:	01f62100 	mvnseq	r2, r0, lsl #2
     434:	a9010000 	stmdbge	r1, {}	; <UNPREDICTABLE>
     438:	0084380d 	addeq	r3, r4, sp, lsl #16
     43c:	0000f800 	andeq	pc, r0, r0, lsl #16
     440:	be9c0100 	fmllte	f0, f4, f0
     444:	1e000005 	cdpne	0, 0, cr0, cr0, cr5, {0}
     448:	a9010072 	stmdbge	r1, {r1, r4, r5, r6}
     44c:	00042b2d 	andeq	r2, r4, sp, lsr #22
     450:	0001a000 	andeq	sl, r1, r0
     454:	00019600 	andeq	r9, r1, r0, lsl #12
     458:	006e1e00 	rsbeq	r1, lr, r0, lsl #28
     45c:	2534a901 	ldrcs	sl, [r4, #-2305]!	; 0xfffff6ff
     460:	ea000000 	b	468 <__code_start__-0x7b98>
     464:	e2000001 	and	r0, r0, #1, 0
     468:	1c000001 	stcne	0, cr0, [r0], {1}
     46c:	00000135 	andeq	r0, r0, r5, lsr r1
     470:	2c40a901 	mcrrcs	9, 0, sl, r0, cr1	; <UNPREDICTABLE>
     474:	28000000 	stmdacs	r0, {}	; <UNPREDICTABLE>
     478:	1e000002 	cdpne	0, 0, cr0, cr0, cr2, {0}
     47c:	22000002 	andcs	r0, r0, #2, 0
     480:	000000ab 	andeq	r0, r0, fp, lsr #1
     484:	000005ce 	andeq	r0, r0, lr, asr #11
     488:	98f80305 	ldmls	r8!, {r0, r2, r8, r9}^
     48c:	18230000 	stmdane	r3!, {}	; <UNPREDICTABLE>
     490:	31000000 	mrscc	r0, (UNDEF: 0)
     494:	13000005 	movwne	r0, #5
     498:	ac010069 	stcge	0, cr0, [r1], {105}	; 0x69
     49c:	0000250d 	andeq	r2, r0, sp, lsl #10
     4a0:	00026e00 	andeq	r6, r2, r0, lsl #28
     4a4:	00026a00 	andeq	r6, r2, r0, lsl #20
     4a8:	84981500 	ldrhi	r1, [r8], #1280	; 0x500
     4ac:	0d1b0000 	ldceq	0, cr0, [fp, #-0]
     4b0:	04c60000 	strbeq	r0, [r6], #0
     4b4:	01160000 	tsteq	r6, r0
     4b8:	64030550 	strvs	r0, [r3], #-1360	; 0xfffffab0
     4bc:	16000098 			; <UNDEFINED> instruction: 0x16000098
     4c0:	74025101 	strvc	r5, [r2], #-257	; 0xfffffeff
     4c4:	bc150000 	ldclt	0, cr0, [r5], {-0}
     4c8:	7b000084 	blvc	6e0 <__code_start__-0x7920>
     4cc:	ee000009 	cdp	0, 0, cr0, cr0, cr9, {0}
     4d0:	16000004 	strne	r0, [r0], -r4
     4d4:	74075001 	strvc	r5, [r7], #-1
     4d8:	75243300 	strvc	r3, [r4, #-768]!	; 0xfffffd00
     4dc:	01162200 	tsteq	r6, r0, lsl #4
     4e0:	00760551 	rsbseq	r0, r6, r1, asr r5
     4e4:	161c0074 			; <UNDEFINED> instruction: 0x161c0074
     4e8:	77025201 	strvc	r5, [r2, -r1, lsl #4]
     4ec:	e0150000 	ands	r0, r5, r0
     4f0:	1b000084 	blne	708 <__code_start__-0x78f8>
     4f4:	2700000d 	strcs	r0, [r0, -sp]
     4f8:	16000005 	strne	r0, [r0], -r5
     4fc:	03055001 	movweq	r5, #20481	; 0x5001
     500:	000097ec 	andeq	r9, r0, ip, ror #15
     504:	05510116 	ldrbeq	r0, [r1, #-278]	; 0xfffffeea
     508:	00970003 	addseq	r0, r7, r3
     50c:	52011600 	andpl	r1, r1, #0, 12
     510:	98f80305 	ldmls	r8!, {r0, r2, r8, r9}^
     514:	01160000 	tsteq	r6, r0
     518:	ae080253 	mcrge	2, 0, r0, cr8, cr3, {2}
     51c:	007d0216 	rsbseq	r0, sp, r6, lsl r2
     520:	98400305 	stmdals	r0, {r0, r2, r8, r9}^
     524:	17000000 	strne	r0, [r0, -r0]
     528:	000084e4 	andeq	r8, r0, r4, ror #9
     52c:	00000d03 	andeq	r0, r0, r3, lsl #26
     530:	84581500 	ldrbhi	r1, [r8], #-1280	; 0xfffffb00
     534:	0d1b0000 	ldceq	0, cr0, [fp, #-0]
     538:	05480000 	strbeq	r0, [r8, #-0]
     53c:	01160000 	tsteq	r6, r0
     540:	04030550 	streq	r0, [r3], #-1360	; 0xfffffab0
     544:	00000098 	muleq	r0, r8, r0
     548:	00847c15 	addeq	r7, r4, r5, lsl ip
     54c:	000d1b00 	andeq	r1, sp, r0, lsl #22
     550:	00058100 	andeq	r8, r5, r0, lsl #2
     554:	50011600 	andpl	r1, r1, r0, lsl #12
     558:	97ec0305 	strbls	r0, [ip, r5, lsl #6]!
     55c:	01160000 	tsteq	r6, r0
     560:	00030551 	andeq	r0, r3, r1, asr r5
     564:	16000097 			; <UNDEFINED> instruction: 0x16000097
     568:	03055201 	movweq	r5, #20993	; 0x5201
     56c:	000098f8 	strdeq	r9, [r0], -r8
     570:	02530116 	subseq	r0, r3, #-2147483643	; 0x80000005
     574:	0216aa08 	andseq	sl, r6, #8, 20	; 0x8000
     578:	0305007d 	movweq	r0, #20605	; 0x507d
     57c:	00009800 	andeq	r9, r0, r0, lsl #16
     580:	84801700 	strhi	r1, [r0], #1792	; 0x700
     584:	0d030000 	stceq	0, cr0, [r3, #-0]
     588:	f4150000 			; <UNDEFINED> instruction: 0xf4150000
     58c:	7b000084 	blvc	7a4 <__code_start__-0x785c>
     590:	aa000009 	bge	5bc <__code_start__-0x7a44>
     594:	16000005 	strne	r0, [r0], -r5
     598:	75025001 	strvc	r5, [r2, #-1]
     59c:	51011600 	tstpl	r1, r0, lsl #12
     5a0:	16007602 	strne	r7, [r0], -r2, lsl #12
     5a4:	77025201 	strvc	r5, [r2, -r1, lsl #4]
     5a8:	0c180000 	ldceq	0, cr0, [r8], {-0}
     5ac:	1b000085 	blne	7c8 <__code_start__-0x7838>
     5b0:	1600000d 	strne	r0, [r0], -sp
     5b4:	03055001 	movweq	r5, #20481	; 0x5001
     5b8:	00009878 	andeq	r9, r0, r8, ror r8
     5bc:	ad190000 	ldcge	0, cr0, [r9, #-0]
     5c0:	ce000000 	cdpgt	0, 0, cr0, cr0, cr0, {0}
     5c4:	1a000005 	bne	5e0 <__code_start__-0x7a20>
     5c8:	0000002c 	andeq	r0, r0, ip, lsr #32
     5cc:	be04000e 	cdplt	0, 0, cr0, cr4, cr14, {0}
     5d0:	1b000005 	blne	5ec <__code_start__-0x7a14>
     5d4:	0000020e 	andeq	r0, r0, lr, lsl #4
     5d8:	2c0a8d01 	stccs	13, cr8, [sl], {1}
     5dc:	48000000 	stmdami	r0, {}	; <UNPREDICTABLE>
     5e0:	24000086 	strcs	r0, [r0], #-134	; 0xffffff7a
     5e4:	01000001 	tsteq	r0, r1
     5e8:	00079c9c 	muleq	r7, ip, ip
     5ec:	00721e00 	rsbseq	r1, r2, r0, lsl #28
     5f0:	2b2b8d01 	blcs	ae39fc <__bss_end__+0xad92bc>
     5f4:	93000004 	movwls	r0, #4
     5f8:	8d000002 	stchi	0, cr0, [r0, #-8]
     5fc:	1e000002 	cdpne	0, 0, cr0, cr0, cr2, {0}
     600:	8d01006e 	stchi	0, cr0, [r1, #-440]	; 0xfffffe48
     604:	00002c37 	andeq	r2, r0, r7, lsr ip
     608:	0002c500 	andeq	ip, r2, r0, lsl #10
     60c:	0002bf00 	andeq	fp, r2, r0, lsl #30
     610:	00ab2200 	adceq	r2, fp, r0, lsl #4
     614:	07ac0000 	streq	r0, [ip, r0]!
     618:	03050000 	movweq	r0, #20480	; 0x5000
     61c:	00009914 	andeq	r9, r0, r4, lsl r9
     620:	01007613 	tsteq	r0, r3, lsl r6
     624:	002c0b93 	mlaeq	ip, r3, fp, r0
     628:	02f30000 	rscseq	r0, r3, #0, 0
     62c:	02f10000 	rscseq	r0, r1, #0, 0
     630:	15140000 	ldrne	r0, [r4, #-0]
     634:	01000000 	mrseq	r0, (UNDEF: 0)
     638:	002c0b94 	mlaeq	ip, r4, fp, r0
     63c:	03080000 	movweq	r0, #32768	; 0x8000
     640:	03060000 	movweq	r0, #24576	; 0x6000
     644:	48230000 	stmdami	r3!, {}	; <UNPREDICTABLE>
     648:	e4000000 	str	r0, [r0], #-0
     64c:	13000006 	movwne	r0, #6
     650:	95010069 	strls	r0, [r1, #-105]	; 0xffffff97
     654:	0000250b 	andeq	r2, r0, fp, lsl #10
     658:	00031f00 	andeq	r1, r3, r0, lsl #30
     65c:	00031b00 	andeq	r1, r3, r0, lsl #22
     660:	86e01500 	strbthi	r1, [r0], r0, lsl #10
     664:	0a7a0000 	beq	1e8066c <__bss_end__+0x1e75f2c>
     668:	06880000 	streq	r0, [r8], r0
     66c:	01160000 	tsteq	r6, r0
     670:	00740750 	rsbseq	r0, r4, r0, asr r7
     674:	00762433 	rsbseq	r2, r6, r3, lsr r4
     678:	51011622 	tstpl	r1, r2, lsr #12
     67c:	01900a03 	orrseq	r0, r0, r3, lsl #20
     680:	03520116 	cmpeq	r2, #-2147483643	; 0x80000005
     684:	0005780a 	andeq	r7, r5, sl, lsl #16
     688:	00871815 	addeq	r1, r7, r5, lsl r8
     68c:	000a3600 	andeq	r3, sl, r0, lsl #12
     690:	0006a100 	andeq	sl, r6, r0, lsl #2
     694:	50011600 	andpl	r1, r1, r0, lsl #12
     698:	33007407 	movwcc	r7, #1031	; 0x407
     69c:	22007624 	andcs	r7, r0, #36, 12	; 0x2400000
     6a0:	873c1500 	ldrhi	r1, [ip, -r0, lsl #10]!
     6a4:	0d1b0000 	ldceq	0, cr0, [fp, #-0]
     6a8:	06da0000 	ldrbeq	r0, [sl], r0
     6ac:	01160000 	tsteq	r6, r0
     6b0:	ec030550 	cfstr32	mvfx0, [r3], {80}	; 0x50
     6b4:	16000097 			; <UNDEFINED> instruction: 0x16000097
     6b8:	03055101 	movweq	r5, #20737	; 0x5101
     6bc:	00009700 	andeq	r9, r0, r0, lsl #14
     6c0:	05520116 	ldrbeq	r0, [r2, #-278]	; 0xfffffeea
     6c4:	00991403 	addseq	r1, r9, r3, lsl #8
     6c8:	53011600 	movwpl	r1, #5632	; 0x1600
     6cc:	169b0802 	ldrne	r0, [fp], r2, lsl #16
     6d0:	05007d02 	streq	r7, [r0, #-3330]	; 0xfffff2fe
     6d4:	00989803 	addseq	r9, r8, r3, lsl #16
     6d8:	40170000 	andsmi	r0, r7, r0
     6dc:	03000087 	movweq	r0, #135	; 0x87
     6e0:	0000000d 	andeq	r0, r0, sp
     6e4:	00866015 	addeq	r6, r6, r5, lsl r0
     6e8:	00097b00 	andeq	r7, r9, r0, lsl #22
     6ec:	00070300 	andeq	r0, r7, r0, lsl #6
     6f0:	50011600 	andpl	r1, r1, r0, lsl #12
     6f4:	16007602 	strne	r7, [r0], -r2, lsl #12
     6f8:	75025101 	strvc	r5, [r2, #-257]	; 0xfffffeff
     6fc:	52011600 	andpl	r1, r1, #0, 12
     700:	15003101 	strne	r3, [r0, #-257]	; 0xfffffeff
     704:	00008678 	andeq	r8, r0, r8, ror r6
     708:	00000a36 	andeq	r0, r0, r6, lsr sl
     70c:	00000717 	andeq	r0, r0, r7, lsl r7
     710:	02500116 	subseq	r0, r0, #-2147483643	; 0x80000005
     714:	15001076 	strne	r1, [r0, #-118]	; 0xffffff8a
     718:	000086ac 	andeq	r8, r0, ip, lsr #13
     71c:	00000d1b 	andeq	r0, r0, fp, lsl sp
     720:	00000750 	andeq	r0, r0, r0, asr r7
     724:	05500116 	ldrbeq	r0, [r0, #-278]	; 0xfffffeea
     728:	0097ec03 	addseq	lr, r7, r3, lsl #24
     72c:	51011600 	tstpl	r1, r0, lsl #12
     730:	97000305 	strls	r0, [r0, -r5, lsl #6]
     734:	01160000 	tsteq	r6, r0
     738:	14030552 	strne	r0, [r3], #-1362	; 0xfffffaae
     73c:	16000099 			; <UNDEFINED> instruction: 0x16000099
     740:	08025301 	stmdaeq	r2, {r0, r8, r9, ip, lr}
     744:	7d021690 	stcvc	6, cr1, [r2, #-576]	; 0xfffffdc0
     748:	80030500 	andhi	r0, r3, r0, lsl #10
     74c:	00000098 	muleq	r0, r8, r0
     750:	0086b017 	addeq	fp, r6, r7, lsl r0
     754:	000d0300 	andeq	r0, sp, r0, lsl #6
     758:	86cc1500 	strbhi	r1, [ip], r0, lsl #10
     75c:	0d1b0000 	ldceq	0, cr0, [fp, #-0]
     760:	07920000 	ldreq	r0, [r2, r0]
     764:	01160000 	tsteq	r6, r0
     768:	ec030550 	cfstr32	mvfx0, [r3], {80}	; 0x50
     76c:	16000097 			; <UNDEFINED> instruction: 0x16000097
     770:	03055101 	movweq	r5, #20737	; 0x5101
     774:	00009700 	andeq	r9, r0, r0, lsl #14
     778:	05520116 	ldrbeq	r0, [r2, #-278]	; 0xfffffeea
     77c:	00991403 	addseq	r1, r9, r3, lsl #8
     780:	53011600 	movwpl	r1, #5632	; 0x1600
     784:	16910802 	ldrne	r0, [r1], r2, lsl #16
     788:	05007d02 	streq	r7, [r0, #-3330]	; 0xfffff2fe
     78c:	00988803 	addseq	r8, r8, r3, lsl #16
     790:	d0170000 	andsle	r0, r7, r0
     794:	03000086 	movweq	r0, #134	; 0x86
     798:	0000000d 	andeq	r0, r0, sp
     79c:	0000ad19 	andeq	sl, r0, r9, lsl sp
     7a0:	0007ac00 	andeq	sl, r7, r0, lsl #24
     7a4:	002c1a00 	eoreq	r1, ip, r0, lsl #20
     7a8:	000f0000 	andeq	r0, pc, r0
     7ac:	00079c04 	andeq	r9, r7, r4, lsl #24
     7b0:	01291b00 			; <UNDEFINED> instruction: 0x01291b00
     7b4:	77010000 	strvc	r0, [r1, -r0]
     7b8:	00002c0a 	andeq	r2, r0, sl, lsl #24
     7bc:	00853000 	addeq	r3, r5, r0
     7c0:	00011800 	andeq	r1, r1, r0, lsl #16
     7c4:	669c0100 	ldrvs	r0, [ip], r0, lsl #2
     7c8:	1e000009 	cdpne	0, 0, cr0, cr0, cr9, {0}
     7cc:	77010072 	smlsdxvc	r1, r2, r0, r0
     7d0:	00042b27 	andeq	r2, r4, r7, lsr #22
     7d4:	00034300 	andeq	r4, r3, r0, lsl #6
     7d8:	00033d00 	andeq	r3, r3, r0, lsl #26
     7dc:	006e1e00 	rsbeq	r1, lr, r0, lsl #28
     7e0:	2c337701 	ldccs	7, cr7, [r3], #-4
     7e4:	75000000 	strvc	r0, [r0, #-0]
     7e8:	6f000003 	svcvs	0x00000003
     7ec:	22000003 	andcs	r0, r0, #3, 0
     7f0:	000000ab 	andeq	r0, r0, fp, lsr #1
     7f4:	00000976 	andeq	r0, r0, r6, ror r9
     7f8:	99080305 	stmdbls	r8, {r0, r2, r8, r9}
     7fc:	76130000 	ldrvc	r0, [r3], -r0
     800:	0b7d0100 	bleq	1f40c08 <__bss_end__+0x1f364c8>
     804:	0000002c 	andeq	r0, r0, ip, lsr #32
     808:	000003a3 	andeq	r0, r0, r3, lsr #7
     80c:	000003a1 	andeq	r0, r0, r1, lsr #7
     810:	00003023 	andeq	r3, r0, r3, lsr #32
     814:	0008ae00 	andeq	sl, r8, r0, lsl #28
     818:	00691300 	rsbeq	r1, r9, r0, lsl #6
     81c:	250b7e01 	strcs	r7, [fp, #-3585]	; 0xfffff1ff
     820:	ba000000 	blt	828 <__code_start__-0x77d8>
     824:	b6000003 	strlt	r0, [r0], -r3
     828:	15000003 	strne	r0, [r0, #-3]
     82c:	000085c4 	andeq	r8, r0, r4, asr #11
     830:	00000a7a 	andeq	r0, r0, sl, ror sl
     834:	00000852 	andeq	r0, r0, r2, asr r8
     838:	07500116 	smmlaeq	r0, r6, r1, r0
     83c:	24330074 	ldrtcs	r0, [r3], #-116	; 0xffffff8c
     840:	16220076 			; <UNDEFINED> instruction: 0x16220076
     844:	0a035101 	beq	d4c50 <__bss_end__+0xca510>
     848:	01160258 	tsteq	r6, r8, asr r2
     84c:	400a0352 	andmi	r0, sl, r2, asr r3
     850:	f8150006 			; <UNDEFINED> instruction: 0xf8150006
     854:	36000085 	strcc	r0, [r0], -r5, lsl #1
     858:	6b00000a 	blvs	888 <__code_start__-0x7778>
     85c:	16000008 	strne	r0, [r0], -r8
     860:	74075001 	strvc	r5, [r7], #-1
     864:	76243300 	strtvc	r3, [r4], -r0, lsl #6
     868:	15002200 	strne	r2, [r0, #-512]	; 0xfffffe00
     86c:	0000861c 	andeq	r8, r0, ip, lsl r6
     870:	00000d1b 	andeq	r0, r0, fp, lsl sp
     874:	000008a4 	andeq	r0, r0, r4, lsr #17
     878:	05500116 	ldrbeq	r0, [r0, #-278]	; 0xfffffeea
     87c:	0097ec03 	addseq	lr, r7, r3, lsl #24
     880:	51011600 	tstpl	r1, r0, lsl #12
     884:	97000305 	strls	r0, [r0, -r5, lsl #6]
     888:	01160000 	tsteq	r6, r0
     88c:	08030552 	stmdaeq	r3, {r1, r4, r6, r8, sl}
     890:	16000099 			; <UNDEFINED> instruction: 0x16000099
     894:	08025301 	stmdaeq	r2, {r0, r8, r9, ip, lr}
     898:	7d021681 	stcvc	6, cr1, [r2, #-516]	; 0xfffffdfc
     89c:	98030500 	stmdals	r3, {r8, sl}
     8a0:	00000098 	muleq	r0, r8, r0
     8a4:	00862017 	addeq	r2, r6, r7, lsl r0
     8a8:	000d0300 	andeq	r0, sp, r0, lsl #6
     8ac:	48150000 	ldmdami	r5, {}	; <UNPREDICTABLE>
     8b0:	7b000085 	blvc	acc <__code_start__-0x7534>
     8b4:	cd000009 	stcgt	0, cr0, [r0, #-36]	; 0xffffffdc
     8b8:	16000008 	strne	r0, [r0], -r8
     8bc:	76025001 	strvc	r5, [r2], -r1
     8c0:	51011600 	tstpl	r1, r0, lsl #12
     8c4:	16007502 	strne	r7, [r0], -r2, lsl #10
     8c8:	30015201 	andcc	r5, r1, r1, lsl #4
     8cc:	85601500 	strbhi	r1, [r0, #-1280]!	; 0xfffffb00
     8d0:	0a360000 	beq	d808d8 <__bss_end__+0xd76198>
     8d4:	08e10000 	stmiaeq	r1!, {}^	; <UNPREDICTABLE>
     8d8:	01160000 	tsteq	r6, r0
     8dc:	10760250 	rsbsne	r0, r6, r0, asr r2
     8e0:	85901500 	ldrhi	r1, [r0, #1280]	; 0x500
     8e4:	0d1b0000 	ldceq	0, cr0, [fp, #-0]
     8e8:	091a0000 	ldmdbeq	sl, {}	; <UNPREDICTABLE>
     8ec:	01160000 	tsteq	r6, r0
     8f0:	ec030550 	cfstr32	mvfx0, [r3], {80}	; 0x50
     8f4:	16000097 			; <UNDEFINED> instruction: 0x16000097
     8f8:	03055101 	movweq	r5, #20737	; 0x5101
     8fc:	00009700 	andeq	r9, r0, r0, lsl #14
     900:	05520116 	ldrbeq	r0, [r2, #-278]	; 0xfffffeea
     904:	00990803 	addseq	r0, r9, r3, lsl #16
     908:	53011600 	movwpl	r1, #5632	; 0x1600
     90c:	167a0802 	ldrbtne	r0, [sl], -r2, lsl #16
     910:	05007d02 	streq	r7, [r0, #-3330]	; 0xfffff2fe
     914:	00988003 	addseq	r8, r8, r3
     918:	94170000 	ldrls	r0, [r7], #-0
     91c:	03000085 	movweq	r0, #133	; 0x85
     920:	1500000d 	strne	r0, [r0, #-13]
     924:	000085b0 			; <UNDEFINED> instruction: 0x000085b0
     928:	00000d1b 	andeq	r0, r0, fp, lsl sp
     92c:	0000095c 	andeq	r0, r0, ip, asr r9
     930:	05500116 	ldrbeq	r0, [r0, #-278]	; 0xfffffeea
     934:	0097ec03 	addseq	lr, r7, r3, lsl #24
     938:	51011600 	tstpl	r1, r0, lsl #12
     93c:	97000305 	strls	r0, [r0, -r5, lsl #6]
     940:	01160000 	tsteq	r6, r0
     944:	08030552 	stmdaeq	r3, {r1, r4, r6, r8, sl}
     948:	16000099 			; <UNDEFINED> instruction: 0x16000099
     94c:	08025301 	stmdaeq	r2, {r0, r8, r9, ip, lr}
     950:	7d02167b 	stcvc	6, cr1, [r2, #-492]	; 0xfffffe14
     954:	88030500 	stmdahi	r3, {r8, sl}
     958:	00000098 	muleq	r0, r8, r0
     95c:	0085b417 	addeq	fp, r5, r7, lsl r4
     960:	000d0300 	andeq	r0, sp, r0, lsl #6
     964:	ad190000 	ldcge	0, cr0, [r9, #-0]
     968:	76000000 	strvc	r0, [r0], -r0
     96c:	1a000009 	bne	998 <__code_start__-0x7668>
     970:	0000002c 	andeq	r0, r0, ip, lsr #32
     974:	6604000b 	strvs	r0, [r4], -fp
     978:	1b000009 	blne	9a4 <__code_start__-0x765c>
     97c:	0000001e 	andeq	r0, r0, lr, lsl r0
     980:	25056401 	strcs	r6, [r5, #-1025]	; 0xfffffbff
     984:	90000000 	andls	r0, r0, r0
     988:	a8000083 	stmdage	r0, {r0, r1, r7}
     98c:	01000000 	mrseq	r0, (UNDEF: 0)
     990:	000a369c 	muleq	sl, ip, r6
     994:	00721e00 	rsbseq	r1, r2, r0, lsl #28
     998:	2b206401 	blcs	8199a4 <__bss_end__+0x80f264>
     99c:	e6000004 	str	r0, [r0], -r4
     9a0:	d8000003 	stmdale	r0, {r0, r1}
     9a4:	1e000003 	cdpne	0, 0, cr0, cr0, cr3, {0}
     9a8:	6401006e 	strvs	r0, [r1], #-110	; 0xffffff92
     9ac:	00002c2c 	andeq	r2, r0, ip, lsr #24
     9b0:	00044600 	andeq	r4, r4, r0, lsl #12
     9b4:	00043e00 	andeq	r3, r4, r0, lsl #28
     9b8:	01351c00 	teqeq	r5, r0, lsl #24
     9bc:	64010000 	strvs	r0, [r1], #-0
     9c0:	00002c38 	andeq	r2, r0, r8, lsr ip
     9c4:	00048800 	andeq	r8, r4, r0, lsl #16
     9c8:	00048000 	andeq	r8, r4, r0
     9cc:	83c81500 	bichi	r1, r8, #0, 10
     9d0:	0b7e0000 	bleq	1f809d8 <__bss_end__+0x1f76298>
     9d4:	09e80000 	stmibeq	r8!, {}^	; <UNPREDICTABLE>
     9d8:	01160000 	tsteq	r6, r0
     9dc:	280a0350 	stmdacs	sl, {r4, r6, r8, r9}
     9e0:	52011623 	andpl	r1, r1, #36700160	; 0x2300000
     9e4:	00c80802 	sbceq	r0, r8, r2, lsl #16
     9e8:	0083e015 	addeq	lr, r3, r5, lsl r0
     9ec:	000b7e00 	andeq	r7, fp, r0, lsl #28
     9f0:	000a0300 	andeq	r0, sl, r0, lsl #6
     9f4:	50011600 	andpl	r1, r1, r0, lsl #12
     9f8:	11940a03 	orrsne	r0, r4, r3, lsl #20
     9fc:	02520116 	subseq	r0, r2, #-2147483643	; 0x80000005
     a00:	1500c808 	strne	ip, [r0, #-2056]	; 0xfffff7f8
     a04:	000083f8 	strdeq	r8, [r0], -r8	; <UNPREDICTABLE>
     a08:	00000b7e 	andeq	r0, r0, lr, ror fp
     a0c:	00000a1e 	andeq	r0, r0, lr, lsl sl
     a10:	03500116 	cmpeq	r0, #-2147483643	; 0x80000005
     a14:	1611940a 	ldrne	r9, [r1], -sl, lsl #8
     a18:	08025201 	stmdaeq	r2, {r0, r9, ip, lr}
     a1c:	101800c8 	andsne	r0, r8, r8, asr #1
     a20:	7e000084 	cdpvc	0, 0, cr0, cr0, cr4, {4}
     a24:	1600000b 	strne	r0, [r0], -fp
     a28:	0a035001 	beq	d4a34 <__bss_end__+0xca2f4>
     a2c:	01161194 			; <UNDEFINED> instruction: 0x01161194
     a30:	c8080252 	stmdagt	r8, {r1, r4, r6, r9}
     a34:	b81d0000 	ldmdalt	sp, {}	; <UNPREDICTABLE>
     a38:	01000000 	mrseq	r0, (UNDEF: 0)
     a3c:	00250c5f 	eoreq	r0, r5, pc, asr ip
     a40:	80640000 	rsbhi	r0, r4, r0
     a44:	00180000 	andseq	r0, r8, r0
     a48:	9c010000 	stcls	0, cr0, [r1], {-0}
     a4c:	00000a7a 	andeq	r0, r0, sl, ror sl
     a50:	0100651e 	tsteq	r0, lr, lsl r5
     a54:	042b255f 	strteq	r2, [fp], #-1375	; 0xfffffaa1
     a58:	04c60000 	strbeq	r0, [r6], #0
     a5c:	04c20000 	strbeq	r0, [r2], #0
     a60:	78180000 	ldmdavc	r8, {}	; <UNPREDICTABLE>
     a64:	7e000080 	cdpvc	0, 0, cr0, cr0, cr0, {4}
     a68:	1600000b 	strne	r0, [r0], -fp
     a6c:	0a035001 	beq	d4a78 <__bss_end__+0xca338>
     a70:	01160258 	tsteq	r6, r8, asr r2
     a74:	c8080252 	stmdagt	r8, {r1, r4, r6, r9}
     a78:	a61d0000 	ldrge	r0, [sp], -r0
     a7c:	01000000 	mrseq	r0, (UNDEF: 0)
     a80:	00250c56 	eoreq	r0, r5, r6, asr ip
     a84:	807c0000 	rsbshi	r0, ip, r0
     a88:	00880000 	addeq	r0, r8, r0
     a8c:	9c010000 	stcls	0, cr0, [r1], {-0}
     a90:	00000b69 	andeq	r0, r0, r9, ror #22
     a94:	0100651e 	tsteq	r0, lr, lsl r5
     a98:	042b2256 	strteq	r2, [fp], #-598	; 0xfffffdaa
     a9c:	04eb0000 	strbteq	r0, [fp], #0
     aa0:	04e70000 	strbteq	r0, [r7], #0
     aa4:	6c1e0000 	ldcvs	0, cr0, [lr], {-0}
     aa8:	56010062 	strpl	r0, [r1], -r2, rrx
     aac:	00002c2e 	andeq	r2, r0, lr, lsr #24
     ab0:	00051000 	andeq	r1, r5, r0
     ab4:	00050c00 	andeq	r0, r5, r0, lsl #24
     ab8:	62751e00 	rsbsvs	r1, r5, #0, 28
     abc:	3b560100 	blcc	1580ec4 <__bss_end__+0x1576784>
     ac0:	0000002c 	andeq	r0, r0, ip, lsr #32
     ac4:	00000532 	andeq	r0, r0, r2, lsr r5
     ac8:	0000052e 	andeq	r0, r0, lr, lsr #10
     acc:	0000ab22 	andeq	sl, r0, r2, lsr #22
     ad0:	000b7900 	andeq	r7, fp, r0, lsl #18
     ad4:	f0030500 			; <UNDEFINED> instruction: 0xf0030500
     ad8:	15000098 	strne	r0, [r0, #-152]	; 0xffffff68
     adc:	000080a0 	andeq	r8, r0, r0, lsr #1
     ae0:	00000b7e 	andeq	r0, r0, lr, ror fp
     ae4:	00000afb 	strdeq	r0, [r0], -fp
     ae8:	02500116 	subseq	r0, r0, #-2147483643	; 0x80000005
     aec:	01160074 	tsteq	r6, r4, ror r0
     af0:	00760251 	rsbseq	r0, r6, r1, asr r2
     af4:	02520116 	subseq	r0, r2, #-2147483643	; 0x80000005
     af8:	1500c808 	strne	ip, [r0, #-2056]	; 0xfffff7f8
     afc:	000080b8 	strheq	r8, [r0], -r8	; <UNPREDICTABLE>
     b00:	00000b7e 	andeq	r0, r0, lr, ror fp
     b04:	00000b1b 	andeq	r0, r0, fp, lsl fp
     b08:	02500116 	subseq	r0, r0, #-2147483643	; 0x80000005
     b0c:	01160075 	tsteq	r6, r5, ror r0
     b10:	00760251 	rsbseq	r0, r6, r1, asr r2
     b14:	02520116 	subseq	r0, r2, #-2147483643	; 0x80000005
     b18:	1500c808 	strne	ip, [r0, #-2056]	; 0xfffff7f8
     b1c:	000080ec 	andeq	r8, r0, ip, ror #1
     b20:	00000d1b 	andeq	r0, r0, fp, lsl sp
     b24:	00000b5f 	andeq	r0, r0, pc, asr fp
     b28:	05500116 	ldrbeq	r0, [r0, #-278]	; 0xfffffeea
     b2c:	00970803 	addseq	r0, r7, r3, lsl #16
     b30:	51011600 	tstpl	r1, r0, lsl #12
     b34:	97000305 	strls	r0, [r0, -r5, lsl #6]
     b38:	01160000 	tsteq	r6, r0
     b3c:	f0030552 			; <UNDEFINED> instruction: 0xf0030552
     b40:	16000098 			; <UNDEFINED> instruction: 0x16000098
     b44:	08025301 	stmdaeq	r2, {r0, r8, r9, ip, lr}
     b48:	7d02165b 	stcvc	6, cr1, [r2, #-364]	; 0xfffffe94
     b4c:	00760200 	rsbseq	r0, r6, r0, lsl #4
     b50:	047d0216 	ldrbteq	r0, [sp], #-534	; 0xfffffdea
     b54:	16007402 	strne	r7, [r0], -r2, lsl #8
     b58:	02087d02 	andeq	r7, r8, #128	; 0x80
     b5c:	17000075 	smlsdxne	r0, r5, r0, r0
     b60:	000080f0 	strdeq	r8, [r0], -r0
     b64:	00000d03 	andeq	r0, r0, r3, lsl #26
     b68:	00ad1900 	adceq	r1, sp, r0, lsl #18
     b6c:	0b790000 	bleq	1e40b74 <__bss_end__+0x1e36434>
     b70:	2c1a0000 	ldccs	0, cr0, [sl], {-0}
     b74:	04000000 	streq	r0, [r0], #-0
     b78:	0b690400 	bleq	1a41b80 <__bss_end__+0x1a37440>
     b7c:	741d0000 	ldrvc	r0, [sp], #-0
     b80:	01000000 	mrseq	r0, (UNDEF: 0)
     b84:	00250c51 	eoreq	r0, r5, r1, asr ip
     b88:	80440000 	subhi	r0, r4, r0
     b8c:	00200000 	eoreq	r0, r0, r0
     b90:	9c010000 	stcls	0, cr0, [r1], {-0}
     b94:	00000bea 	andeq	r0, r0, sl, ror #23
     b98:	0002051c 	andeq	r0, r2, ip, lsl r5
     b9c:	1c510100 	ldfnee	f0, [r1], {-0}
     ba0:	0000002c 	andeq	r0, r0, ip, lsr #32
     ba4:	00000554 	andeq	r0, r0, r4, asr r5
     ba8:	00000550 	andeq	r0, r0, r0, asr r5
     bac:	00004c1c 	andeq	r4, r0, ip, lsl ip
     bb0:	2f510100 	svccs	0x00510100
     bb4:	0000002c 	andeq	r0, r0, ip, lsr #32
     bb8:	00000579 	andeq	r0, r0, r9, ror r5
     bbc:	00000575 	andeq	r0, r0, r5, ror r5
     bc0:	7370651e 	cmnvc	r0, #125829120	; 0x7800000
     bc4:	40510100 	subsmi	r0, r1, r0, lsl #2
     bc8:	0000002c 	andeq	r0, r0, ip, lsr #32
     bcc:	0000059e 	muleq	r0, lr, r5
     bd0:	0000059a 	muleq	r0, sl, r5
     bd4:	00805418 	addeq	r5, r0, r8, lsl r4
     bd8:	000bea00 	andeq	lr, fp, r0, lsl #20
     bdc:	50011600 	andpl	r1, r1, r0, lsl #12
     be0:	5001f307 	andpl	pc, r1, r7, lsl #6
     be4:	1c5101f3 	ldfnee	f0, [r1], {243}	; 0xf3
     be8:	61240000 			; <UNDEFINED> instruction: 0x61240000
     bec:	01007362 	tsteq	r0, r2, ror #6
     bf0:	00250c4c 	eoreq	r0, r5, ip, asr #24
     bf4:	80380000 	eorshi	r0, r8, r0
     bf8:	000c0000 	andeq	r0, ip, r0
     bfc:	9c010000 	stcls	0, cr0, [r1], {-0}
     c00:	00000c17 	andeq	r0, r0, r7, lsl ip
     c04:	0100781e 	tsteq	r0, lr, lsl r8
     c08:	0025144c 	eoreq	r1, r5, ip, asr #8
     c0c:	05c00000 	strbeq	r0, [r0]
     c10:	05bc0000 	ldreq	r0, [ip, #0]!
     c14:	1d000000 	stcne	0, cr0, [r0, #-0]
     c18:	0000003e 	andeq	r0, r0, lr, lsr r0
     c1c:	250c4201 	strcs	r4, [ip, #-513]	; 0xfffffdff
     c20:	04000000 	streq	r0, [r0], #-0
     c24:	50000081 	andpl	r0, r0, r1, lsl #1
     c28:	01000000 	mrseq	r0, (UNDEF: 0)
     c2c:	000caf9c 	muleq	ip, ip, pc	; <UNPREDICTABLE>
     c30:	69701e00 	ldmdbvs	r0!, {r9, sl, fp, ip}^
     c34:	4201006e 	andmi	r0, r1, #110, 0	; 0x6e
     c38:	0000251e 	andeq	r2, r0, lr, lsl r5
     c3c:	0005e500 	andeq	lr, r5, r0, lsl #10
     c40:	0005e100 	andeq	lr, r5, r0, lsl #2
     c44:	00761e00 	rsbseq	r1, r6, r0, lsl #28
     c48:	25274201 	strcs	r4, [r7, #-513]!	; 0xfffffdff
     c4c:	07000000 	streq	r0, [r0, -r0]
     c50:	03000006 	movweq	r0, #6
     c54:	1c000006 	stcne	0, cr0, [r0], {6}
     c58:	000002a6 	andeq	r0, r0, r6, lsr #5
     c5c:	2c334201 	lfmcs	f4, 4, [r3], #-4
     c60:	29000000 	stmdbcs	r0, {}	; <UNPREDICTABLE>
     c64:	25000006 	strcs	r0, [r0, #-6]
     c68:	14000006 	strne	r0, [r0], #-6
     c6c:	000003e2 	andeq	r0, r0, r2, ror #7
     c70:	2c0b4301 	stccs	3, cr4, [fp], {1}
     c74:	4b000000 	blmi	c7c <__code_start__-0x7384>
     c78:	47000006 	strmi	r0, [r0, -r6]
     c7c:	17000006 	strne	r0, [r0, -r6]
     c80:	00008118 	andeq	r8, r0, r8, lsl r1
     c84:	00000d33 	andeq	r0, r0, r3, lsr sp
     c88:	00812017 	addeq	r2, r1, r7, lsl r0
     c8c:	000d3300 	andeq	r3, sp, r0, lsl #6
     c90:	81341500 	teqhi	r4, r0, lsl #10
     c94:	0d0f0000 	stceq	0, cr0, [pc, #-0]	; c9c <__code_start__-0x7364>
     c98:	0ca50000 	stceq	0, cr0, [r5]
     c9c:	01160000 	tsteq	r6, r0
     ca0:	00770250 	rsbseq	r0, r7, r0, asr r2
     ca4:	81401700 	cmphi	r0, r0, lsl #14
     ca8:	0d330000 	ldceq	0, cr0, [r3, #-0]
     cac:	1b000000 	blne	cb4 <__code_start__-0x734c>
     cb0:	00000000 	andeq	r0, r0, r0
     cb4:	a00d1701 	andge	r1, sp, r1, lsl #14
     cb8:	bc000000 	stclt	0, cr0, [r0], {-0}
     cbc:	d4000081 	strle	r0, [r0], #-129	; 0xffffff7f
     cc0:	01000001 	tsteq	r0, r1
     cc4:	000d039c 	muleq	sp, ip, r3
     cc8:	00781e00 	rsbseq	r1, r8, r0, lsl #28
     ccc:	2c211701 	stccs	7, cr1, [r1], #-4
     cd0:	6d000000 	stcvs	0, cr0, [r0, #-0]
     cd4:	69000006 	stmdbvs	r0, {r1, r2}
     cd8:	1c000006 	stcne	0, cr0, [r0], {6}
     cdc:	00000135 	andeq	r0, r0, r5, lsr r1
     ce0:	2c2d1701 	stccs	7, cr1, [sp], #-4
     ce4:	8f000000 	svchi	0x00000000
     ce8:	8b000006 	blhi	d08 <__code_start__-0x72f8>
     cec:	18000006 	stmdane	r0, {r1, r2}
     cf0:	000081d0 	ldrdeq	r8, [r0], -r0
     cf4:	00000d1b 	andeq	r0, r0, fp, lsl sp
     cf8:	05500116 	ldrbeq	r0, [r0, #-278]	; 0xfffffeea
     cfc:	0097c803 	addseq	ip, r7, r3, lsl #16
     d00:	25000000 	strcs	r0, [r0, #-0]
     d04:	000000cb 	andeq	r0, r0, fp, asr #1
     d08:	000000cb 	andeq	r0, r0, fp, asr #1
     d0c:	25066e02 	strcs	r6, [r6, #-3586]	; 0xfffff1fe
     d10:	000000e6 	andeq	r0, r0, r6, ror #1
     d14:	000000e6 	andeq	r0, r0, r6, ror #1
     d18:	25052403 	strcs	r2, [r5, #-1027]	; 0xfffffbfd
     d1c:	000002b6 			; <UNDEFINED> instruction: 0x000002b6
     d20:	000002b6 			; <UNDEFINED> instruction: 0x000002b6
     d24:	25062802 	strcs	r2, [r6, #-2050]	; 0xfffff7fe
     d28:	00000096 	muleq	r0, r6, r0
     d2c:	00000096 	muleq	r0, r6, r0
     d30:	25063003 	strcs	r3, [r6, #-3]
     d34:	00000297 	muleq	r0, r7, r2
     d38:	00000297 	muleq	r0, r7, r2
     d3c:	000a5d02 	andeq	r5, sl, r2, lsl #26
     d40:	0000019d 	muleq	r0, sp, r1
     d44:	024c0004 	subeq	r0, ip, #4, 0
     d48:	01040000 	mrseq	r0, (UNDEF: 4)
     d4c:	00000141 	andeq	r0, r0, r1, asr #2
     d50:	0002db0c 	andeq	sp, r2, ip, lsl #22
     d54:	0002eb00 	andeq	lr, r2, r0, lsl #22
     d58:	00886800 	addeq	r6, r8, r0, lsl #16
     d5c:	00005800 	andeq	r5, r0, r0, lsl #16
     d60:	0005a700 	andeq	sl, r5, r0, lsl #14
     d64:	02bd0200 	adcseq	r0, sp, #0, 4
     d68:	28020000 	stmdacs	r2, {}	; <UNPREDICTABLE>
     d6c:	0000311b 	andeq	r3, r0, fp, lsl r1
     d70:	02cc0300 	sbceq	r0, ip, #0, 6
     d74:	04040000 	streq	r0, [r4], #-0
     d78:	00004800 	andeq	r4, r0, r0, lsl #16
     d7c:	02d60400 	sbcseq	r0, r6, #0, 8
     d80:	00480000 	subeq	r0, r8, r0
     d84:	00000000 	andeq	r0, r0, r0
     d88:	ce020405 	cdpgt	4, 0, cr0, cr2, cr5, {0}
     d8c:	02000002 	andeq	r0, r0, #2, 0
     d90:	00251863 	eoreq	r1, r5, r3, ror #16
     d94:	04060000 	streq	r0, [r6], #-0
     d98:	746e6905 	strbtvc	r6, [lr], #-2309	; 0xfffff6fb
     d9c:	07040700 	streq	r0, [r4, -r0, lsl #14]
     da0:	00000101 	andeq	r0, r0, r1, lsl #2
     da4:	da060107 	ble	1811c8 <__bss_end__+0x176a88>
     da8:	07000000 	streq	r0, [r0, -r0]
     dac:	000b0502 	andeq	r0, fp, r2, lsl #10
     db0:	04070000 	streq	r0, [r7], #-0
     db4:	00008005 	andeq	r8, r0, r5
     db8:	05080700 	streq	r0, [r8, #-1792]	; 0xfffff900
     dbc:	0000007b 	andeq	r0, r0, fp, ror r0
     dc0:	d8080107 	stmdale	r8, {r0, r1, r2, r8}
     dc4:	07000000 	streq	r0, [r0, -r0]
     dc8:	01160702 	tsteq	r6, r2, lsl #14
     dcc:	04070000 	streq	r0, [r7], #-0
     dd0:	0000fc07 	andeq	pc, r0, r7, lsl #24
     dd4:	07080700 	streq	r0, [r8, -r0, lsl #14]
     dd8:	000000f7 	strdeq	r0, [r0], -r7
     ddc:	00005608 	andeq	r5, r0, r8, lsl #12
     de0:	0000ab00 	andeq	sl, r0, r0, lsl #22
     de4:	00560900 	subseq	r0, r6, r0, lsl #18
     de8:	0a000000 	beq	df0 <__code_start__-0x7210>
     dec:	00000028 	andeq	r0, r0, r8, lsr #32
     df0:	b70e1c03 	strlt	r1, [lr, -r3, lsl #24]
     df4:	0b000000 	bleq	dfc <__code_start__-0x7204>
     df8:	00009c04 	andeq	r9, r0, r4, lsl #24
     dfc:	00560800 	subseq	r0, r6, r0, lsl #16
     e00:	00cc0000 	sbceq	r0, ip, r0
     e04:	cc090000 	stcgt	0, cr0, [r9], {-0}
     e08:	00000000 	andeq	r0, r0, r0
     e0c:	00d9040b 	sbcseq	r0, r9, fp, lsl #8
     e10:	01070000 	mrseq	r0, (UNDEF: 7)
     e14:	0000e108 	andeq	lr, r0, r8, lsl #2
     e18:	00d20c00 	sbcseq	r0, r2, r0, lsl #24
     e1c:	3c0a0000 	stccc	0, cr0, [sl], {-0}
     e20:	03000003 	movweq	r0, #3
     e24:	00ea0e21 	rsceq	r0, sl, r1, lsr #28
     e28:	040b0000 	streq	r0, [fp], #-0
     e2c:	000000bd 	strheq	r0, [r0], -sp
     e30:	0002b60d 	andeq	fp, r2, sp, lsl #12
     e34:	05060100 	streq	r0, [r6, #-256]	; 0xffffff00
     e38:	00000056 	andeq	r0, r0, r6, asr r0
     e3c:	00008868 	andeq	r8, r0, r8, ror #16
     e40:	00000058 	andeq	r0, r0, r8, asr r0
     e44:	01839c01 	orreq	r9, r3, r1, lsl #24
     e48:	660e0000 	strvs	r0, [lr], -r0
     e4c:	0100746d 	tsteq	r0, sp, ror #8
     e50:	00cc1806 	sbceq	r1, ip, r6, lsl #16
     e54:	91020000 	mrsls	r0, (UNDEF: 2)
     e58:	62100f70 	andsvs	r0, r0, #112, 30	; 0x1c0
     e5c:	01006675 	tsteq	r0, r5, ror r6
     e60:	01831108 	orreq	r1, r3, r8, lsl #2
     e64:	03050000 	movweq	r0, #20480	; 0x5000
     e68:	0000a33c 	andeq	sl, r0, ip, lsr r3
     e6c:	0002ae11 	andeq	sl, r2, r1, lsl lr
     e70:	0d090100 	stfeqs	f0, [r9, #-0]
     e74:	0000004a 	andeq	r0, r0, sl, asr #32
     e78:	125c9102 	subsne	r9, ip, #-2147483648	; 0x80000000
     e7c:	01007a73 	tsteq	r0, r3, ror sl
     e80:	00560d0c 	subseq	r0, r6, ip, lsl #26
     e84:	06b30000 	ldrteq	r0, [r3], r0
     e88:	06ad0000 	strteq	r0, [sp], r0
     e8c:	90130000 	andsls	r0, r3, r0
     e90:	94000088 	strls	r0, [r0], #-136	; 0xffffff78
     e94:	76000001 	strvc	r0, [r0], -r1
     e98:	14000001 	strne	r0, [r0], #-1
     e9c:	75025001 	strvc	r5, [r2, #-1]
     ea0:	51011400 	tstpl	r1, r0, lsl #8
     ea4:	04000a03 	streq	r0, [r0], #-2563	; 0xfffff5fd
     ea8:	03520114 	cmpeq	r2, #5
     eac:	14064891 	strne	r4, [r6], #-2193	; 0xfffff76f
     eb0:	91025301 	tstls	r2, r1, lsl #6
     eb4:	a415004c 	ldrge	r0, [r5], #-76	; 0xffffffb4
     eb8:	14000088 	strne	r0, [r0], #-136	; 0xffffff78
     ebc:	75025001 	strvc	r5, [r2, #-1]
     ec0:	16000000 	strne	r0, [r0], -r0
     ec4:	000000d2 	ldrdeq	r0, [r0], -r2
     ec8:	00000194 	muleq	r0, r4, r1
     ecc:	00005d17 	andeq	r5, r0, r7, lsl sp
     ed0:	0003ff00 	andeq	pc, r3, r0, lsl #30
     ed4:	0002b318 	andeq	fp, r2, r8, lsl r3
     ed8:	0002b300 	andeq	fp, r2, r0, lsl #6
     edc:	05020500 	streq	r0, [r2, #-1280]	; 0xfffffb00
     ee0:	0000f300 	andeq	pc, r0, r0, lsl #6
     ee4:	8e000400 	cfcpyshi	mvf0, mvf0
     ee8:	04000003 	streq	r0, [r0], #-3
     eec:	00014101 	andeq	r4, r1, r1, lsl #2
     ef0:	03410c00 	movteq	r0, #7168	; 0x1c00
     ef4:	02eb0000 	rsceq	r0, fp, #0, 0
     ef8:	88c00000 	stmiahi	r0, {}^	; <UNPREDICTABLE>
     efc:	00340000 	eorseq	r0, r4, r0
     f00:	06df0000 	ldrbeq	r0, [pc], r0
     f04:	04020000 	streq	r0, [r2], #-0
     f08:	746e6905 	strbtvc	r6, [lr], #-2309	; 0xfffff6fb
     f0c:	07040300 	streq	r0, [r4, -r0, lsl #6]
     f10:	00000101 	andeq	r0, r0, r1, lsl #2
     f14:	da060103 	ble	181328 <__bss_end__+0x176be8>
     f18:	03000000 	movweq	r0, #0
     f1c:	000b0502 	andeq	r0, fp, r2, lsl #10
     f20:	04030000 	streq	r0, [r3], #-0
     f24:	00008005 	andeq	r8, r0, r5
     f28:	05080300 	streq	r0, [r8, #-768]	; 0xfffffd00
     f2c:	0000007b 	andeq	r0, r0, fp, ror r0
     f30:	d8080103 	stmdale	r8, {r0, r1, r8}
     f34:	03000000 	movweq	r0, #0
     f38:	01160702 	tsteq	r6, r2, lsl #14
     f3c:	04030000 	streq	r0, [r3], #-0
     f40:	0000fc07 	andeq	pc, r0, r7, lsl #24
     f44:	07080300 	streq	r0, [r8, -r0, lsl #6]
     f48:	000000f7 	strdeq	r0, [r0], -r7
     f4c:	00002504 	andeq	r2, r0, r4, lsl #10
     f50:	00007a00 	andeq	r7, r0, r0, lsl #20
     f54:	00250500 	eoreq	r0, r5, r0, lsl #10
     f58:	06000000 	streq	r0, [r0], -r0
     f5c:	00000028 	andeq	r0, r0, r8, lsr #32
     f60:	860e1c02 	strhi	r1, [lr], -r2, lsl #24
     f64:	07000000 	streq	r0, [r0, -r0]
     f68:	00006b04 	andeq	r6, r0, r4, lsl #22
     f6c:	00250400 	eoreq	r0, r5, r0, lsl #8
     f70:	009b0000 	addseq	r0, fp, r0
     f74:	9b050000 	blls	140f7c <__bss_end__+0x13683c>
     f78:	00000000 	andeq	r0, r0, r0
     f7c:	00a80407 	adceq	r0, r8, r7, lsl #8
     f80:	01030000 	mrseq	r0, (UNDEF: 3)
     f84:	0000e108 	andeq	lr, r0, r8, lsl #2
     f88:	00a10800 	adceq	r0, r1, r0, lsl #16
     f8c:	3c060000 	stccc	0, cr0, [r6], {-0}
     f90:	02000003 	andeq	r0, r0, #3, 0
     f94:	00b90e21 	adcseq	r0, r9, r1, lsr #28
     f98:	04070000 	streq	r0, [r7], #-0
     f9c:	0000008c 	andeq	r0, r0, ip, lsl #1
     fa0:	0000ad09 	andeq	sl, r0, r9, lsl #26
     fa4:	070c0100 	streq	r0, [ip, -r0, lsl #2]
     fa8:	9b340305 	blls	d01bc4 <__bss_end__+0xcf7484>
     fac:	330a0000 	movwcc	r0, #40960	; 0xa000
     fb0:	01000003 	tsteq	r0, r3
     fb4:	00250504 	eoreq	r0, r5, r4, lsl #10
     fb8:	88c00000 	stmiahi	r0, {}^	; <UNPREDICTABLE>
     fbc:	00340000 	eorseq	r0, r4, r0
     fc0:	9c010000 	stcls	0, cr0, [r1], {-0}
     fc4:	0100700b 	tsteq	r0, fp
     fc8:	009b1f04 	addseq	r1, fp, r4, lsl #30
     fcc:	06e00000 	strbteq	r0, [r0], r0
     fd0:	06dc0000 	ldrbeq	r0, [ip], r0
     fd4:	00000000 	andeq	r0, r0, r0
     fd8:	00000ad7 	ldrdeq	r0, [r0], -r7
     fdc:	042c0004 	strteq	r0, [ip], #-4
     fe0:	01040000 	mrseq	r0, (UNDEF: 4)
     fe4:	00000141 	andeq	r0, r0, r1, asr #2
     fe8:	0003600c 	andeq	r6, r3, ip
     fec:	0002eb00 	andeq	lr, r2, r0, lsl #22
     ff0:	0088f400 	addeq	pc, r8, r0, lsl #8
     ff4:	00074000 	andeq	r4, r7, r0
     ff8:	0007af00 	andeq	sl, r7, r0, lsl #30
     ffc:	05040200 	streq	r0, [r4, #-512]	; 0xfffffe00
    1000:	00746e69 	rsbseq	r6, r4, r9, ror #28
    1004:	01070403 	tsteq	r7, r3, lsl #8
    1008:	03000001 	movweq	r0, #1
    100c:	00da0601 	sbcseq	r0, sl, r1, lsl #12
    1010:	02030000 	andeq	r0, r3, #0, 0
    1014:	00000b05 	andeq	r0, r0, r5, lsl #22
    1018:	05040300 	streq	r0, [r4, #-768]	; 0xfffffd00
    101c:	00000080 	andeq	r0, r0, r0, lsl #1
    1020:	7b050803 	blvc	143034 <__bss_end__+0x1388f4>
    1024:	03000000 	movweq	r0, #0
    1028:	00d80801 	sbcseq	r0, r8, r1, lsl #16
    102c:	02030000 	andeq	r0, r3, #0, 0
    1030:	00011607 	andeq	r1, r1, r7, lsl #12
    1034:	03c60400 	biceq	r0, r6, #0, 8
    1038:	34020000 	strcc	r0, [r2], #-0
    103c:	00006919 	andeq	r6, r0, r9, lsl r9
    1040:	07040300 	streq	r0, [r4, -r0, lsl #6]
    1044:	000000fc 	strdeq	r0, [r0], -ip
    1048:	00035704 	andeq	r5, r3, r4, lsl #14
    104c:	19370200 	ldmdbne	r7!, {r9}
    1050:	0000007c 	andeq	r0, r0, ip, ror r0
    1054:	f7070803 			; <UNDEFINED> instruction: 0xf7070803
    1058:	05000000 	streq	r0, [r0, #-0]
    105c:	00000025 	andeq	r0, r0, r5, lsr #32
    1060:	00000092 	muleq	r0, r2, r0
    1064:	00002506 	andeq	r2, r0, r6, lsl #10
    1068:	28070000 	stmdacs	r7, {}	; <UNPREDICTABLE>
    106c:	03000000 	movweq	r0, #0
    1070:	009e0e1c 	addseq	r0, lr, ip, lsl lr
    1074:	04080000 	streq	r0, [r8], #-0
    1078:	00000083 	andeq	r0, r0, r3, lsl #1
    107c:	00002505 	andeq	r2, r0, r5, lsl #10
    1080:	0000b300 	andeq	fp, r0, r0, lsl #6
    1084:	00b30600 	adcseq	r0, r3, r0, lsl #12
    1088:	08000000 	stmdaeq	r0, {}	; <UNPREDICTABLE>
    108c:	0000c004 	andeq	ip, r0, r4
    1090:	08010300 	stmdaeq	r1, {r8, r9}
    1094:	000000e1 	andeq	r0, r0, r1, ror #1
    1098:	0000b909 	andeq	fp, r0, r9, lsl #18
    109c:	033c0700 	teqeq	ip, #0, 14
    10a0:	21030000 	mrscs	r0, (UNDEF: 3)
    10a4:	0000d10e 	andeq	sp, r0, lr, lsl #2
    10a8:	a4040800 	strge	r0, [r4], #-2048	; 0xfffff800
    10ac:	07000000 	streq	r0, [r0, -r0]
    10b0:	00000373 	andeq	r0, r0, r3, ror r3
    10b4:	b90d0b04 	stmdblt	sp, {r2, r8, r9, fp}
    10b8:	07000000 	streq	r0, [r0, -r0]
    10bc:	000003fc 	strdeq	r0, [r0], -ip
    10c0:	b90d0c04 	stmdblt	sp, {r2, sl, fp}
    10c4:	07000000 	streq	r0, [r0, -r0]
    10c8:	00000382 	andeq	r0, r0, r2, lsl #7
    10cc:	b90d0d04 	stmdblt	sp, {r2, r8, sl, fp}
    10d0:	07000000 	streq	r0, [r0, -r0]
    10d4:	000003ab 	andeq	r0, r0, fp, lsr #7
    10d8:	b90d0e04 	stmdblt	sp, {r2, r9, sl, fp}
    10dc:	07000000 	streq	r0, [r0, -r0]
    10e0:	00000425 	andeq	r0, r0, r5, lsr #8
    10e4:	b90d0f04 	stmdblt	sp, {r2, r8, r9, sl, fp}
    10e8:	07000000 	streq	r0, [r0, -r0]
    10ec:	00000396 	muleq	r0, r6, r3
    10f0:	b90d1004 	stmdblt	sp, {r2, ip}
    10f4:	07000000 	streq	r0, [r0, -r0]
    10f8:	00000434 	andeq	r0, r0, r4, lsr r4
    10fc:	b90d1104 	stmdblt	sp, {r2, r8, ip}
    1100:	07000000 	streq	r0, [r0, -r0]
    1104:	000003b7 			; <UNDEFINED> instruction: 0x000003b7
    1108:	b90d1204 	stmdblt	sp, {r2, r9, ip}
    110c:	04000000 	streq	r0, [r0], #-0
    1110:	000002bd 			; <UNDEFINED> instruction: 0x000002bd
    1114:	431b2805 	tstmi	fp, #327680	; 0x50000
    1118:	0a000001 	beq	1124 <__code_start__-0x6edc>
    111c:	000002cc 	andeq	r0, r0, ip, asr #5
    1120:	5a000604 	bpl	2938 <__code_start__-0x56c8>
    1124:	0b000001 	bleq	1130 <__code_start__-0x6ed0>
    1128:	000002d6 	ldrdeq	r0, [r0], -r6
    112c:	0000015a 	andeq	r0, r0, sl, asr r1
    1130:	040c0000 	streq	r0, [ip], #-0
    1134:	0002ce04 	andeq	ip, r2, r4, lsl #28
    1138:	18630500 	stmdane	r3!, {r8, sl}^
    113c:	00000137 	andeq	r0, r0, r7, lsr r1
    1140:	0002b30d 	andeq	fp, r2, sp, lsl #6
    1144:	05810100 	streq	r0, [r1, #256]	; 0x100
    1148:	00000025 	andeq	r0, r0, r5, lsr #32
    114c:	00008b7c 	andeq	r8, r0, ip, ror fp
    1150:	000004b8 			; <UNDEFINED> instruction: 0x000004b8
    1154:	07179c01 	ldreq	r9, [r7, -r1, lsl #24]
    1158:	620e0000 	andvs	r0, lr, #0, 0
    115c:	01006675 	tsteq	r0, r5, ror r6
    1160:	07171581 	ldreq	r1, [r7, -r1, lsl #11]
    1164:	07040000 	streq	r0, [r4, -r0]
    1168:	06fe0000 	ldrbteq	r0, [lr], r0
    116c:	6e0e0000 	cdpvs	0, 0, cr0, cr14, cr0, {0}
    1170:	1e810100 	rmfnes	f0, f1, f0
    1174:	00000025 	andeq	r0, r0, r5, lsr #32
    1178:	00000736 	andeq	r0, r0, r6, lsr r7
    117c:	00000730 	andeq	r0, r0, r0, lsr r7
    1180:	746d660e 	strbtvc	r6, [sp], #-1550	; 0xfffff9f2
    1184:	2d810100 	stfcss	f0, [r1]
    1188:	000000b3 	strheq	r0, [r0], -r3
    118c:	00000770 	andeq	r0, r0, r0, ror r7
    1190:	00000764 	andeq	r0, r0, r4, ror #14
    1194:	0002ae0f 	andeq	sl, r2, pc, lsl #28
    1198:	3a810100 	bcc	fe0415a0 <__bss_end__+0xfe036e60>
    119c:	0000015c 	andeq	r0, r0, ip, asr r1
    11a0:	7dd49103 	ldfvcp	f1, [r4, #12]
    11a4:	01007010 	tsteq	r0, r0, lsl r0
    11a8:	07170882 	ldreq	r0, [r7, -r2, lsl #17]
    11ac:	07ce0000 	strbeq	r0, [lr, r0]
    11b0:	07ba0000 	ldreq	r0, [sl, r0]!
    11b4:	65100000 	ldrvs	r0, [r0, #-0]
    11b8:	12820100 	addne	r0, r2, #0
    11bc:	00000717 	andeq	r0, r0, r7, lsl r7
    11c0:	00000850 	andeq	r0, r0, r0, asr r8
    11c4:	0000084c 	andeq	r0, r0, ip, asr #16
    11c8:	00307810 	eorseq	r7, r0, r0, lsl r8
    11cc:	5d0e8301 	stcpl	3, cr8, [lr, #-4]
    11d0:	7d000000 	stcvc	0, cr0, [r0, #-0]
    11d4:	77000008 	strvc	r0, [r0, -r8]
    11d8:	10000008 	andne	r0, r0, r8
    11dc:	01003178 	tsteq	r0, r8, ror r1
    11e0:	005d1183 	subseq	r1, sp, r3, lsl #3
    11e4:	08aa0000 	stmiaeq	sl!, {}	; <UNPREDICTABLE>
    11e8:	08a60000 	stmiaeq	r6!, {}	; <UNPREDICTABLE>
    11ec:	de110000 	cdple	0, 1, cr0, cr1, cr0, {0}
    11f0:	01000003 	tsteq	r0, r3
    11f4:	00b31186 	adcseq	r1, r3, r6, lsl #3
    11f8:	08cc0000 	stmiaeq	ip, {}^	; <UNPREDICTABLE>
    11fc:	08c80000 	stmiaeq	r8, {}^	; <UNPREDICTABLE>
    1200:	ab120000 	blge	481208 <__bss_end__+0x476ac8>
    1204:	2d000000 	stccs	0, cr0, [r0, #-0]
    1208:	05000007 	streq	r0, [r0, #-7]
    120c:	009a9403 	addseq	r9, sl, r3, lsl #8
    1210:	8be41300 	blhi	ff905e18 <__bss_end__+0xff8fb6d8>
    1214:	04000000 	streq	r0, [r0], #-0
    1218:	73100000 	tstvc	r0, #0, 0
    121c:	0a910100 	beq	fe441624 <__bss_end__+0xfe436ee4>
    1220:	00000717 	andeq	r0, r0, r7, lsl r7
    1224:	00000902 	andeq	r0, r0, r2, lsl #18
    1228:	000008ec 	andeq	r0, r0, ip, ror #17
    122c:	6d756e14 	ldclvs	14, cr6, [r5, #-80]!	; 0xffffffb0
    1230:	0d910100 	ldfeqs	f0, [r1]
    1234:	00000732 	andeq	r0, r0, r2, lsr r7
    1238:	7dd89103 	ldfvcp	f1, [r8, #12]
    123c:	00044115 	andeq	r4, r4, r5, lsl r1
    1240:	17910100 	ldrne	r0, [r1, r0, lsl #2]
    1244:	00000732 	andeq	r0, r0, r2, lsr r7
    1248:	7ed89103 	atnvce	f1, f3
    124c:	00039011 	andeq	r9, r3, r1, lsl r0
    1250:	0d920100 	ldfeqs	f0, [r2]
    1254:	0000002c 	andeq	r0, r0, ip, lsr #32
    1258:	00000989 	andeq	r0, r0, r9, lsl #19
    125c:	00000983 	andeq	r0, r0, r3, lsl #19
    1260:	008cac16 	addeq	sl, ip, r6, lsl ip
    1264:	0001a400 	andeq	sl, r1, r0, lsl #8
    1268:	00053900 	andeq	r3, r5, r0, lsl #18
    126c:	79741000 	ldmdbvc	r4!, {ip}^
    1270:	1d9e0100 	ldfnes	f0, [lr]
    1274:	000000b3 	strheq	r0, [r0], -r3
    1278:	000009bd 			; <UNDEFINED> instruction: 0x000009bd
    127c:	000009b3 			; <UNDEFINED> instruction: 0x000009b3
    1280:	00787817 	rsbseq	r7, r8, r7, lsl r8
    1284:	701aa201 	andsvc	sl, sl, r1, lsl #4
    1288:	18000000 	stmdane	r0, {}	; <UNPREDICTABLE>
    128c:	00008cbc 			; <UNDEFINED> instruction: 0x00008cbc
    1290:	00000a92 	muleq	r0, r2, sl
    1294:	000002d5 	ldrdeq	r0, [r0], -r5
    1298:	02500119 	subseq	r0, r0, #1073741830	; 0x40000006
    129c:	01190076 	tsteq	r9, r6, ror r0
    12a0:	88030551 	stmdahi	r3, {r0, r4, r6, r8, sl}
    12a4:	19000099 	stmdbne	r0, {r0, r3, r4, r7}
    12a8:	33015201 	movwcc	r5, #4609	; 0x1201
    12ac:	8cd41800 	ldclhi	8, cr1, [r4], {0}
    12b0:	0a920000 	beq	fe4812b8 <__bss_end__+0xfe476b78>
    12b4:	02f70000 	rscseq	r0, r7, #0, 0
    12b8:	01190000 	tsteq	r9, r0
    12bc:	00760250 	rsbseq	r0, r6, r0, asr r2
    12c0:	05510119 	ldrbeq	r0, [r1, #-281]	; 0xfffffee7
    12c4:	00998c03 	addseq	r8, r9, r3, lsl #24
    12c8:	52011900 	andpl	r1, r1, #0, 18
    12cc:	18003301 	stmdane	r0, {r0, r8, r9, ip, sp}
    12d0:	00008d08 	andeq	r8, r0, r8, lsl #26
    12d4:	00000a9e 	muleq	r0, lr, sl
    12d8:	00000314 	andeq	r0, r0, r4, lsl r3
    12dc:	05500119 	ldrbeq	r0, [r0, #-281]	; 0xfffffee7
    12e0:	00999003 	addseq	r9, r9, r3
    12e4:	51011900 	tstpl	r1, r0, lsl #18
    12e8:	00007702 	andeq	r7, r0, r2, lsl #14
    12ec:	008d1418 	addeq	r1, sp, r8, lsl r4
    12f0:	000a9e00 	andeq	r9, sl, r0, lsl #28
    12f4:	00033100 	andeq	r3, r3, r0, lsl #2
    12f8:	50011900 	andpl	r1, r1, r0, lsl #18
    12fc:	99980305 	ldmibls	r8, {r0, r2, r8, r9}
    1300:	01190000 	tsteq	r9, r0
    1304:	007a0251 	rsbseq	r0, sl, r1, asr r2
    1308:	8d241800 	stchi	8, cr1, [r4, #-0]
    130c:	0a920000 	beq	fe481314 <__bss_end__+0xfe476bd4>
    1310:	03530000 	cmpeq	r3, #0, 0
    1314:	01190000 	tsteq	r9, r0
    1318:	00760250 	rsbseq	r0, r6, r0, asr r2
    131c:	05510119 	ldrbeq	r0, [r1, #-281]	; 0xfffffee7
    1320:	00998803 	addseq	r8, r9, r3, lsl #16
    1324:	52011900 	andpl	r1, r1, #0, 18
    1328:	18003301 	stmdane	r0, {r0, r8, r9, ip, sp}
    132c:	00008d3c 	andeq	r8, r0, ip, lsr sp
    1330:	00000a92 	muleq	r0, r2, sl
    1334:	00000375 	andeq	r0, r0, r5, ror r3
    1338:	02500119 	subseq	r0, r0, #1073741830	; 0x40000006
    133c:	01190076 	tsteq	r9, r6, ror r0
    1340:	8c030551 	cfstr32hi	mvfx0, [r3], {81}	; 0x51
    1344:	19000099 	stmdbne	r0, {r0, r3, r4, r7}
    1348:	33015201 	movwcc	r5, #4609	; 0x1201
    134c:	8d641800 	stclhi	8, cr1, [r4, #-0]
    1350:	07420000 	strbeq	r0, [r2, -r0]
    1354:	03a90000 			; <UNDEFINED> instruction: 0x03a90000
    1358:	01190000 	tsteq	r9, r0
    135c:	193a0150 	ldmdbne	sl!, {r4, r6, r8}
    1360:	91035101 	tstls	r3, r1, lsl #2
    1364:	01197dd0 			; <UNDEFINED> instruction: 0x01197dd0
    1368:	80080252 	andhi	r0, r8, r2, asr r2
    136c:	02530119 	subseq	r0, r3, #1073741830	; 0x40000006
    1370:	02190077 	andseq	r0, r9, #119, 0	; 0x77
    1374:	7502007d 	strvc	r0, [r2, #-125]	; 0xffffff83
    1378:	7d021900 	vstrvc.16	s2, [r2, #-0]	; <UNPREDICTABLE>
    137c:	00760204 	rsbseq	r0, r6, r4, lsl #4
    1380:	8d841800 	stchi	8, cr1, [r4]
    1384:	07420000 	strbeq	r0, [r2, -r0]
    1388:	03dd0000 	bicseq	r0, sp, #0, 0
    138c:	01190000 	tsteq	r9, r0
    1390:	193a0150 	ldmdbne	sl!, {r4, r6, r8}
    1394:	91035101 	tstls	r3, r1, lsl #2
    1398:	01197ed0 			; <UNDEFINED> instruction: 0x01197ed0
    139c:	80080252 	andhi	r0, r8, r2, asr r2
    13a0:	02530119 	subseq	r0, r3, #1073741830	; 0x40000006
    13a4:	0219007a 	andseq	r0, r9, #122, 0	; 0x7a
    13a8:	7502007d 	strvc	r0, [r2, #-125]	; 0xffffff83
    13ac:	7d021900 	vstrvc.16	s2, [r2, #-0]	; <UNPREDICTABLE>
    13b0:	00760204 	rsbseq	r0, r6, r4, lsl #4
    13b4:	8d901800 	ldchi	8, cr1, [r0]
    13b8:	0aaa0000 	beq	fea813c0 <__bss_end__+0xfea76c80>
    13bc:	03fb0000 	mvnseq	r0, #0, 0
    13c0:	01190000 	tsteq	r9, r0
    13c4:	d0910350 	addsle	r0, r1, r0, asr r3
    13c8:	5101197d 	tstpl	r1, sp, ror r9
    13cc:	994c0305 	stmdbls	ip, {r0, r2, r8, r9}^
    13d0:	18000000 	stmdane	r0, {}	; <UNPREDICTABLE>
    13d4:	00008da4 	andeq	r8, r0, r4, lsr #27
    13d8:	00000ab6 			; <UNDEFINED> instruction: 0x00000ab6
    13dc:	00000417 	andeq	r0, r0, r7, lsl r4
    13e0:	03500119 	cmpeq	r0, #1073741830	; 0x40000006
    13e4:	197dd091 	ldmdbne	sp!, {r0, r4, r7, ip, lr, pc}^
    13e8:	91035101 	tstls	r3, r1, lsl #2
    13ec:	18007ed0 	stmdane	r0, {r4, r6, r7, r9, sl, fp, ip, sp, lr}
    13f0:	00008dc8 	andeq	r8, r0, r8, asr #27
    13f4:	00000a9e 	muleq	r0, lr, sl
    13f8:	00000450 	andeq	r0, r0, r0, asr r4
    13fc:	05500119 	ldrbeq	r0, [r0, #-281]	; 0xfffffee7
    1400:	0097ec03 	addseq	lr, r7, r3, lsl #24
    1404:	51011900 	tstpl	r1, r0, lsl #18
    1408:	99380305 	ldmdbls	r8!, {r0, r2, r8, r9}
    140c:	01190000 	tsteq	r9, r0
    1410:	94030552 	strls	r0, [r3], #-1362	; 0xfffffaae
    1414:	1900009a 	stmdbne	r0, {r1, r3, r4, r7}
    1418:	08025301 	stmdaeq	r2, {r0, r8, r9, ip, lr}
    141c:	7d02199f 	vstrvc.16	s2, [r2, #-318]	; 0xfffffec2	; <UNPREDICTABLE>
    1420:	a0030500 	andge	r0, r3, r0, lsl #10
    1424:	00000099 	muleq	r0, r9, r0
    1428:	008dcc1a 	addeq	ip, sp, sl, lsl ip
    142c:	000ac200 	andeq	ip, sl, r0, lsl #4
    1430:	8dec1800 	stclhi	8, cr1, [ip]
    1434:	07420000 	strbeq	r0, [r2, -r0]
    1438:	048d0000 	streq	r0, [sp], #0
    143c:	01190000 	tsteq	r9, r0
    1440:	19400150 	stmdbne	r0, {r4, r6, r8}^
    1444:	91035101 	tstls	r3, r1, lsl #2
    1448:	01197dd0 			; <UNDEFINED> instruction: 0x01197dd0
    144c:	80080252 	andhi	r0, r8, r2, asr r2
    1450:	02530119 	subseq	r0, r3, #1073741830	; 0x40000006
    1454:	02190077 	andseq	r0, r9, #119, 0	; 0x77
    1458:	7502007d 	strvc	r0, [r2, #-125]	; 0xffffff83
    145c:	7d021900 	vstrvc.16	s2, [r2, #-0]	; <UNPREDICTABLE>
    1460:	00760204 	rsbseq	r0, r6, r4, lsl #4
    1464:	8e0c1800 	cdphi	8, 0, cr1, cr12, cr0, {0}
    1468:	07420000 	strbeq	r0, [r2, -r0]
    146c:	04c10000 	strbeq	r0, [r1], #0
    1470:	01190000 	tsteq	r9, r0
    1474:	19400150 	stmdbne	r0, {r4, r6, r8}^
    1478:	91035101 	tstls	r3, r1, lsl #2
    147c:	01197ed0 			; <UNDEFINED> instruction: 0x01197ed0
    1480:	80080252 	andhi	r0, r8, r2, asr r2
    1484:	02530119 	subseq	r0, r3, #1073741830	; 0x40000006
    1488:	0219007a 	andseq	r0, r9, #122, 0	; 0x7a
    148c:	7502007d 	strvc	r0, [r2, #-125]	; 0xffffff83
    1490:	7d021900 	vstrvc.16	s2, [r2, #-0]	; <UNPREDICTABLE>
    1494:	00760204 	rsbseq	r0, r6, r4, lsl #4
    1498:	8e181800 	cdphi	8, 1, cr1, cr8, cr0, {0}
    149c:	0ace0000 	beq	ff3814a4 <__bss_end__+0xff376d64>
    14a0:	04dd0000 	ldrbeq	r0, [sp], #0
    14a4:	01190000 	tsteq	r9, r0
    14a8:	d0910350 	addsle	r0, r1, r0, asr r3
    14ac:	5101197d 	tstpl	r1, sp, ror r9
    14b0:	7ed29103 	atnvcs	f1, f3
    14b4:	8e2c1800 	cdphi	8, 2, cr1, cr12, cr0, {0}
    14b8:	0ace0000 	beq	ff3814c0 <__bss_end__+0xff376d80>
    14bc:	04f90000 	ldrbteq	r0, [r9], #0
    14c0:	01190000 	tsteq	r9, r0
    14c4:	d0910350 	addsle	r0, r1, r0, asr r3
    14c8:	5101197d 	tstpl	r1, sp, ror r9
    14cc:	7ed09103 	atnvcs	f1, f3
    14d0:	8e4c1800 	cdphi	8, 4, cr1, cr12, cr0, {0}
    14d4:	0a9e0000 	beq	fe7814dc <__bss_end__+0xfe776d9c>
    14d8:	052f0000 	streq	r0, [pc, #-0]!	; 14e0 <__code_start__-0x6b20>
    14dc:	01190000 	tsteq	r9, r0
    14e0:	dc030550 	cfstr32le	mvfx0, [r3], {80}	; 0x50
    14e4:	19000099 	stmdbne	r0, {r0, r3, r4, r7}
    14e8:	03055101 	movweq	r5, #20737	; 0x5101
    14ec:	00009938 	andeq	r9, r0, r8, lsr r9
    14f0:	05520119 	ldrbeq	r0, [r2, #-281]	; 0xfffffee7
    14f4:	009a9403 	addseq	r9, sl, r3, lsl #8
    14f8:	53011900 	movwpl	r1, #6400	; 0x1900
    14fc:	19b60802 	ldmibne	r6!, {r1, fp}
    1500:	02007d02 	andeq	r7, r0, #128	; 0x80
    1504:	1a000076 	bne	16e4 <__code_start__-0x691c>
    1508:	00008e50 	andeq	r8, r0, r0, asr lr
    150c:	00000ac2 	andeq	r0, r0, r2, asr #21
    1510:	8bfc1800 	blhi	fff07518 <__bss_end__+0xffefcdd8>
    1514:	09c00000 	stmibeq	r0, {}^	; <UNPREDICTABLE>
    1518:	054d0000 	strbeq	r0, [sp, #-0]
    151c:	01190000 	tsteq	r9, r0
    1520:	00770250 	rsbseq	r0, r7, r0, asr r2
    1524:	8ca81800 	stchi	8, cr1, [r8]
    1528:	0a9e0000 	beq	fe781530 <__bss_end__+0xfe776df0>
    152c:	05860000 	streq	r0, [r6]
    1530:	01190000 	tsteq	r9, r0
    1534:	ec030550 	cfstr32	mvfx0, [r3], {80}	; 0x50
    1538:	19000097 	stmdbne	r0, {r0, r1, r2, r4, r7}
    153c:	03055101 	movweq	r5, #20737	; 0x5101
    1540:	00009938 	andeq	r9, r0, r8, lsr r9
    1544:	05520119 	ldrbeq	r0, [r2, #-281]	; 0xfffffee7
    1548:	009a9403 	addseq	r9, sl, r3, lsl #8
    154c:	53011900 	movwpl	r1, #6400	; 0x1900
    1550:	19980802 	ldmibne	r8, {r1, fp}
    1554:	05007d02 	streq	r7, [r0, #-3330]	; 0xfffff2fe
    1558:	00997c03 	addseq	r7, r9, r3, lsl #24
    155c:	ac1a0000 	ldcge	0, cr0, [sl], {-0}
    1560:	c200008c 	andgt	r0, r0, #140, 0	; 0x8c
    1564:	1800000a 	stmdane	r0, {r1, r3}
    1568:	00008e64 	andeq	r8, r0, r4, ror #28
    156c:	00000a9e 	muleq	r0, lr, sl
    1570:	000005be 			; <UNDEFINED> instruction: 0x000005be
    1574:	05500119 	ldrbeq	r0, [r0, #-281]	; 0xfffffee7
    1578:	009a0403 	addseq	r0, sl, r3, lsl #8
    157c:	51011900 	tstpl	r1, r0, lsl #18
    1580:	99380305 	ldmdbls	r8!, {r0, r2, r8, r9}
    1584:	01190000 	tsteq	r9, r0
    1588:	94030552 	strls	r0, [r3], #-1362	; 0xfffffaae
    158c:	1900009a 	stmdbne	r0, {r1, r3, r4, r7}
    1590:	08025301 	stmdaeq	r2, {r0, r8, r9, ip, lr}
    1594:	681a00be 	ldmdavs	sl, {r1, r2, r3, r4, r5, r7}
    1598:	c200008e 	andgt	r0, r0, #142, 0	; 0x8e
    159c:	1800000a 	stmdane	r0, {r1, r3}
    15a0:	00008e94 	muleq	r0, r4, lr
    15a4:	00000742 	andeq	r0, r0, r2, asr #14
    15a8:	000005f4 	strdeq	r0, [r0], -r4
    15ac:	01500119 	cmpeq	r0, r9, lsl r1
    15b0:	5101193a 	tstpl	r1, sl, lsr r9
    15b4:	7dd09103 	ldfvcp	f1, [r0, #12]
    15b8:	02520119 	subseq	r0, r2, #1073741830	; 0x40000006
    15bc:	02198008 	andseq	r8, r9, #8, 0
    15c0:	7502007d 	strvc	r0, [r2, #-125]	; 0xffffff83
    15c4:	7d021900 	vstrvc.16	s2, [r2, #-0]	; <UNPREDICTABLE>
    15c8:	00310104 	eorseq	r0, r1, r4, lsl #2
    15cc:	008ecc18 	addeq	ip, lr, r8, lsl ip
    15d0:	00074200 	andeq	r4, r7, r0, lsl #4
    15d4:	00062100 	andeq	r2, r6, r0, lsl #2
    15d8:	50011900 	andpl	r1, r1, r0, lsl #18
    15dc:	01193a01 	tsteq	r9, r1, lsl #20
    15e0:	d0910351 	addsle	r0, r1, r1, asr r3
    15e4:	5201197d 	andpl	r1, r1, #2048000	; 0x1f4000
    15e8:	19800802 	stmibne	r0, {r1, fp}
    15ec:	02007d02 	andeq	r7, r0, #128	; 0x80
    15f0:	02190075 	andseq	r0, r9, #117, 0	; 0x75
    15f4:	3001047d 	andcc	r0, r1, sp, ror r4
    15f8:	8f001800 	svchi	0x00001800
    15fc:	07420000 	strbeq	r0, [r2, -r0]
    1600:	064e0000 	strbeq	r0, [lr], -r0
    1604:	01190000 	tsteq	r9, r0
    1608:	19400150 	stmdbne	r0, {r4, r6, r8}^
    160c:	91035101 	tstls	r3, r1, lsl #2
    1610:	01197dd0 			; <UNDEFINED> instruction: 0x01197dd0
    1614:	80080252 	andhi	r0, r8, r2, asr r2
    1618:	007d0219 	rsbseq	r0, sp, r9, lsl r2
    161c:	19007502 	stmdbne	r0, {r1, r8, sl, ip, sp, lr}
    1620:	01047d02 	tsteq	r4, r2, lsl #26
    1624:	34180030 	ldrcc	r0, [r8], #-48	; 0xffffffd0
    1628:	4200008f 	andmi	r0, r0, #143, 0	; 0x8f
    162c:	7b000007 	blvc	1650 <__code_start__-0x69b0>
    1630:	19000006 	stmdbne	r0, {r1, r2}
    1634:	32015001 	andcc	r5, r1, #1, 0
    1638:	03510119 	cmpeq	r1, #1073741830	; 0x40000006
    163c:	197dd091 	ldmdbne	sp!, {r0, r4, r7, ip, lr, pc}^
    1640:	08025201 	stmdaeq	r2, {r0, r9, ip, lr}
    1644:	7d021980 	vstrvc.16	s2, [r2, #-256]	; 0xffffff00	; <UNPREDICTABLE>
    1648:	00750200 	rsbseq	r0, r5, r0, lsl #4
    164c:	047d0219 	ldrbteq	r0, [sp], #-537	; 0xfffffde7
    1650:	18003001 	stmdane	r0, {r0, ip, sp}
    1654:	00008f7c 	andeq	r8, r0, ip, ror pc
    1658:	00000742 	andeq	r0, r0, r2, asr #14
    165c:	000006a8 	andeq	r0, r0, r8, lsr #13
    1660:	01500119 	cmpeq	r0, r9, lsl r1
    1664:	51011938 	tstpl	r1, r8, lsr r9
    1668:	7dd09103 	ldfvcp	f1, [r0, #12]
    166c:	02520119 	subseq	r0, r2, #1073741830	; 0x40000006
    1670:	02198008 	andseq	r8, r9, #8, 0
    1674:	7502007d 	strvc	r0, [r2, #-125]	; 0xffffff83
    1678:	7d021900 	vstrvc.16	s2, [r2, #-0]	; <UNPREDICTABLE>
    167c:	00300104 	eorseq	r0, r0, r4, lsl #2
    1680:	008f9c18 	addeq	r9, pc, r8, lsl ip	; <UNPREDICTABLE>
    1684:	000a9e00 	andeq	r9, sl, r0, lsl #28
    1688:	0006cb00 	andeq	ip, r6, r0, lsl #22
    168c:	50011900 	andpl	r1, r1, r0, lsl #18
    1690:	9a2c0305 	bls	b022ac <__bss_end__+0xaf7b6c>
    1694:	01190000 	tsteq	r9, r0
    1698:	007a0251 	rsbseq	r0, sl, r1, asr r2
    169c:	02520119 	subseq	r0, r2, #1073741830	; 0x40000006
    16a0:	1b00007a 	blne	1890 <__code_start__-0x6770>
    16a4:	00008fac 	andeq	r8, r0, ip, lsr #31
    16a8:	000006dd 	ldrdeq	r0, [r0], -sp
    16ac:	04500119 	ldrbeq	r0, [r0], #-281	; 0xfffffee7
    16b0:	067dc891 			; <UNDEFINED> instruction: 0x067dc891
    16b4:	8fc01800 	svchi	0x00c01800
    16b8:	0a9e0000 	beq	fe7816c0 <__bss_end__+0xfe776f80>
    16bc:	070c0000 	streq	r0, [ip, -r0]
    16c0:	01190000 	tsteq	r9, r0
    16c4:	5c030550 	cfstr32pl	mvfx0, [r3], {80}	; 0x50
    16c8:	1900009a 	stmdbne	r0, {r1, r3, r4, r7}
    16cc:	03055101 	movweq	r5, #20737	; 0x5101
    16d0:	00009938 	andeq	r9, r0, r8, lsr r9
    16d4:	05520119 	ldrbeq	r0, [r2, #-281]	; 0xfffffee7
    16d8:	009a9403 	addseq	r9, sl, r3, lsl #8
    16dc:	53011900 	movwpl	r1, #6400	; 0x1900
    16e0:	00e20802 	rsceq	r0, r2, r2, lsl #16
    16e4:	008fc41a 	addeq	ip, pc, sl, lsl r4	; <UNPREDICTABLE>
    16e8:	000ac200 	andeq	ip, sl, r0, lsl #4
    16ec:	08000000 	stmdaeq	r0, {}	; <UNPREDICTABLE>
    16f0:	0000b904 	andeq	fp, r0, r4, lsl #18
    16f4:	00c01c00 	sbceq	r1, r0, r0, lsl #24
    16f8:	072d0000 	streq	r0, [sp, -r0]!
    16fc:	2c1d0000 	ldccs	0, cr0, [sp], {-0}
    1700:	09000000 	stmdbeq	r0, {}	; <UNPREDICTABLE>
    1704:	071d0900 	ldreq	r0, [sp, -r0, lsl #18]
    1708:	b91c0000 	ldmdblt	ip, {}	; <UNPREDICTABLE>
    170c:	42000000 	andmi	r0, r0, #0, 0
    1710:	1d000007 	stcne	0, cr0, [r0, #-28]	; 0xffffffe4
    1714:	0000002c 	andeq	r0, r0, ip, lsr #32
    1718:	091e007f 	ldmdbeq	lr, {r0, r1, r2, r3, r4, r5, r6}
    171c:	01000004 	tsteq	r0, r4
    1720:	07170149 	ldreq	r0, [r7, -r9, asr #2]
    1724:	89640000 	stmdbhi	r4!, {}^	; <UNPREDICTABLE>
    1728:	01b40000 			; <UNDEFINED> instruction: 0x01b40000
    172c:	9c010000 	stcls	0, cr0, [r1], {-0}
    1730:	000008ab 	andeq	r0, r0, fp, lsr #17
    1734:	00044e1f 	andeq	r4, r4, pc, lsl lr
    1738:	0f490100 	svceq	0x00490100
    173c:	0000002c 	andeq	r0, r0, ip, lsr #32
    1740:	00000a06 	andeq	r0, r0, r6, lsl #20
    1744:	00000a00 	andeq	r0, r0, r0, lsl #20
    1748:	7473640e 	ldrbtvc	r6, [r3], #-1038	; 0xfffffbf2
    174c:	1b490100 	blne	1241b54 <__bss_end__+0x1237414>
    1750:	00000717 	andeq	r0, r0, r7, lsl r7
    1754:	00000a44 	andeq	r0, r0, r4, asr #20
    1758:	00000a34 	andeq	r0, r0, r4, lsr sl
    175c:	01006e0e 	tsteq	r0, lr, lsl #28
    1760:	00252449 	eoreq	r2, r5, r9, asr #8
    1764:	0aa80000 	beq	fea0176c <__bss_end__+0xfe9f702c>
    1768:	0aa40000 	beq	fe901770 <__bss_end__+0xfe8f7030>
    176c:	760e0000 	strvc	r0, [lr], -r0
    1770:	01006c61 	tsteq	r0, r1, ror #24
    1774:	00252b49 	eoreq	r2, r5, r9, asr #22
    1778:	0ad20000 	beq	ff481780 <__bss_end__+0xff477040>
    177c:	0ac60000 	beq	ff181784 <__bss_end__+0xff177044>
    1780:	901f0000 	andsls	r0, pc, r0
    1784:	01000003 	tsteq	r0, r3
    1788:	00253449 	eoreq	r3, r5, r9, asr #8
    178c:	0b280000 	bleq	a01794 <__bss_end__+0x9f7054>
    1790:	0b220000 	bleq	881798 <__bss_end__+0x877058>
    1794:	530f0000 	movwpl	r0, #61440	; 0xf000
    1798:	01000004 	tsteq	r0, r4
    179c:	00253f49 	eoreq	r3, r5, r9, asr #30
    17a0:	91020000 	mrsls	r0, (UNDEF: 2)
    17a4:	75621404 	strbvc	r1, [r2, #-1028]!	; 0xfffffbfc
    17a8:	4e010066 	cdpmi	0, 0, cr0, cr1, cr6, {3}
    17ac:	0008ab07 	andeq	sl, r8, r7, lsl #22
    17b0:	a8910300 	ldmge	r1, {r8, r9}
    17b4:	0070107f 	rsbseq	r1, r0, pc, ror r0
    17b8:	17114e01 	ldrne	r4, [r1, -r1, lsl #28]
    17bc:	72000007 	andvc	r0, r0, #7, 0
    17c0:	5200000b 	andpl	r0, r0, #11, 0
    17c4:	1000000b 	andne	r0, r0, fp
    17c8:	4f010075 	svcmi	0x00010075
    17cc:	00002c0b 	andeq	r2, r0, fp, lsl #24
    17d0:	000c5800 	andeq	r5, ip, r0, lsl #16
    17d4:	000c4400 	andeq	r4, ip, r0, lsl #8
    17d8:	00ab1200 	adceq	r1, fp, r0, lsl #4
    17dc:	08cb0000 	stmiaeq	fp, {}^	; <UNPREDICTABLE>
    17e0:	03050000 	movweq	r0, #20480	; 0x5000
    17e4:	00009a7c 	andeq	r9, r0, ip, ror sl
    17e8:	0089d016 	addeq	sp, r9, r6, lsl r0
    17ec:	00007800 	andeq	r7, r0, r0, lsl #16
    17f0:	00083200 	andeq	r3, r8, r0, lsl #4
    17f4:	03f61100 	mvnseq	r1, #0
    17f8:	54010000 	strpl	r0, [r1], #-0
    17fc:	00002c0d 	andeq	r2, r0, sp, lsl #24
    1800:	000cd900 	andeq	sp, ip, r0, lsl #18
    1804:	000cd100 	andeq	sp, ip, r0, lsl #2
    1808:	88180000 	ldmdahi	r8, {}	; <UNPREDICTABLE>
    180c:	5d00008a 	stcpl	0, cr0, [r0, #-552]	; 0xfffffdd8
    1810:	47000009 	strmi	r0, [r0, -r9]
    1814:	19000008 	stmdbne	r0, {r3}
    1818:	91035101 	tstls	r3, r1, lsl #2
    181c:	18007fa0 	stmdane	r0, {r5, r7, r8, r9, sl, fp, ip, sp, lr}
    1820:	00008a9c 	muleq	r0, ip, sl
    1824:	000008d0 	ldrdeq	r0, [r0], -r0	; <UNPREDICTABLE>
    1828:	00000868 	andeq	r0, r0, r8, ror #16
    182c:	02500119 	subseq	r0, r0, #1073741830	; 0x40000006
    1830:	01190075 	tsteq	r9, r5, ror r0
    1834:	00740251 	rsbseq	r0, r4, r1, asr r2
    1838:	03530119 	cmpeq	r3, #1073741830	; 0x40000006
    183c:	007fa091 			; <UNDEFINED> instruction: 0x007fa091
    1840:	008af418 	addeq	pc, sl, r8, lsl r4	; <UNPREDICTABLE>
    1844:	000a9e00 	andeq	r9, sl, r0, lsl #28
    1848:	0008a100 	andeq	sl, r8, r0, lsl #2
    184c:	50011900 	andpl	r1, r1, r0, lsl #18
    1850:	97ec0305 	strbls	r0, [ip, r5, lsl #6]!
    1854:	01190000 	tsteq	r9, r0
    1858:	38030551 	stmdacc	r3, {r0, r4, r6, r8, sl}
    185c:	19000099 	stmdbne	r0, {r0, r3, r4, r7}
    1860:	03055201 	movweq	r5, #20993	; 0x5201
    1864:	00009a7c 	andeq	r9, r0, ip, ror sl
    1868:	02530119 	subseq	r0, r3, #1073741830	; 0x40000006
    186c:	02197908 	andseq	r7, r9, #8, 18	; 0x20000
    1870:	0305007d 	movweq	r0, #20605	; 0x507d
    1874:	0000994c 	andeq	r9, r0, ip, asr #18
    1878:	8af81a00 	bhi	ffe08080 <__bss_end__+0xffdfd940>
    187c:	0ac20000 	beq	ff081884 <__bss_end__+0xff077144>
    1880:	1c000000 	stcne	0, cr0, [r0], {-0}
    1884:	000000b9 	strheq	r0, [r0], -r9
    1888:	000008bb 			; <UNDEFINED> instruction: 0x000008bb
    188c:	00002c1d 	andeq	r2, r0, sp, lsl ip
    1890:	1c003f00 	stcne	15, cr3, [r0], {-0}
    1894:	000000c0 	andeq	r0, r0, r0, asr #1
    1898:	000008cb 	andeq	r0, r0, fp, asr #17
    189c:	00002c1d 	andeq	r2, r0, sp, lsl ip
    18a0:	09000400 	stmdbeq	r0, {sl}
    18a4:	000008bb 			; <UNDEFINED> instruction: 0x000008bb
    18a8:	0004161e 	andeq	r1, r4, lr, lsl r6
    18ac:	0e380100 	rsfeqe	f0, f0, f0
    18b0:	00000717 	andeq	r0, r0, r7, lsl r7
    18b4:	0000892c 	andeq	r8, r0, ip, lsr #18
    18b8:	00000038 	andeq	r0, r0, r8, lsr r0
    18bc:	095d9c01 	ldmdbeq	sp, {r0, sl, fp, ip, pc}^
    18c0:	640e0000 	strvs	r0, [lr], #-0
    18c4:	01007473 	tsteq	r0, r3, ror r4
    18c8:	07171c38 			; <UNDEFINED> instruction: 0x07171c38
    18cc:	0d1a0000 	ldceq	0, cr0, [sl, #-0]
    18d0:	0d100000 	ldceq	0, cr0, [r0, #-0]
    18d4:	6e0e0000 	cdpvs	0, 0, cr0, cr14, cr0, {0}
    18d8:	25380100 	ldrcs	r0, [r8, #-256]!	; 0xffffff00
    18dc:	00000025 	andeq	r0, r0, r5, lsr #32
    18e0:	00000d61 	andeq	r0, r0, r1, ror #26
    18e4:	00000d5d 	andeq	r0, r0, sp, asr sp
    18e8:	0100700e 	tsteq	r0, lr
    18ec:	07172e38 			; <UNDEFINED> instruction: 0x07172e38
    18f0:	0d8a0000 	stceq	0, cr0, [sl]
    18f4:	0d820000 	stceq	0, cr0, [r2]
    18f8:	e21f0000 	ands	r0, pc, #0, 0
    18fc:	01000003 	tsteq	r0, r3
    1900:	07173738 			; <UNDEFINED> instruction: 0x07173738
    1904:	0dc40000 	stcleq	0, cr0, [r4]
    1908:	0dc00000 	stcleq	0, cr0, [r0]
    190c:	6c100000 	ldcvs	0, cr0, [r0], {-0}
    1910:	01006e65 	tsteq	r0, r5, ror #28
    1914:	0025063a 	eoreq	r0, r5, sl, lsr r6
    1918:	0dea0000 	stcleq	0, cr0, [sl]
    191c:	0de20000 	stcleq	0, cr0, [r2]
    1920:	73100000 	tstvc	r0, #0, 0
    1924:	083e0100 	ldmdaeq	lr!, {r8}
    1928:	00000717 	andeq	r0, r0, r7, lsl r7
    192c:	00000e38 	andeq	r0, r0, r8, lsr lr
    1930:	00000e36 	andeq	r0, r0, r6, lsr lr
    1934:	61702000 	cmnvs	r0, r0
    1938:	2e010064 	cdpcs	0, 0, cr0, cr1, cr4, {3}
    193c:	0007170e 	andeq	r1, r7, lr, lsl #14
    1940:	00890800 	addeq	r0, r9, r0, lsl #16
    1944:	00002400 	andeq	r2, r0, r0, lsl #8
    1948:	c09c0100 	addsgt	r0, ip, r0, lsl #2
    194c:	0e000009 	cdpeq	0, 0, cr0, cr0, cr9, {0}
    1950:	2e010070 	mcrcs	0, 0, r0, cr1, cr0, {3}
    1954:	00071718 	andeq	r1, r7, r8, lsl r7
    1958:	000e5100 	andeq	r5, lr, r0, lsl #2
    195c:	000e4b00 	andeq	r4, lr, r0, lsl #22
    1960:	044e1f00 	strbeq	r1, [lr], #-3840	; 0xfffff100
    1964:	2e010000 	cdpcs	0, 0, cr0, cr1, cr0, {0}
    1968:	00071722 	andeq	r1, r7, r2, lsr #14
    196c:	000e8000 	andeq	r8, lr, r0
    1970:	000e7c00 	andeq	r7, lr, r0, lsl #24
    1974:	03900f00 	orrseq	r0, r0, #0, 30
    1978:	2e010000 	cdpcs	0, 0, cr0, cr1, cr0, {0}
    197c:	0000252c 	andeq	r2, r0, ip, lsr #10
    1980:	10520100 	subsne	r0, r2, r0, lsl #2
    1984:	006e656c 	rsbeq	r6, lr, ip, ror #10
    1988:	25062f01 	strcs	r2, [r6, #-3841]	; 0xfffff0ff
    198c:	a3000000 	movwge	r0, #0
    1990:	a100000e 	tstge	r0, lr
    1994:	0000000e 	andeq	r0, r0, lr
    1998:	00034f1e 	andeq	r4, r3, lr, lsl pc
    199c:	0c270100 	stfeqs	f0, [r7], #-0
    19a0:	00000025 	andeq	r0, r0, r5, lsr #32
    19a4:	000088f4 	strdeq	r8, [r0], -r4
    19a8:	00000014 	andeq	r0, r0, r4, lsl r0
    19ac:	09ed9c01 	stmibeq	sp!, {r0, sl, fp, ip, pc}^
    19b0:	630e0000 	movwvs	r0, #57344	; 0xe000
    19b4:	18270100 	stmdane	r7!, {r8}
    19b8:	00000025 	andeq	r0, r0, r5, lsr #32
    19bc:	00000ebc 			; <UNDEFINED> instruction: 0x00000ebc
    19c0:	00000eb6 			; <UNDEFINED> instruction: 0x00000eb6
    19c4:	03cf2100 	biceq	r2, pc, #0
    19c8:	1f010000 	svcne	0x00010000
    19cc:	008b1806 	addeq	r1, fp, r6, lsl #16
    19d0:	00006400 	andeq	r6, r0, r0, lsl #8
    19d4:	7d9c0100 	ldfvcs	f0, [ip]
    19d8:	1f00000a 	svcne	0x0000000a
    19dc:	000003a3 	andeq	r0, r0, r3, lsr #7
    19e0:	9e1b1f01 	cdpls	15, 1, cr1, cr11, cr1, {0}
    19e4:	ee000000 	cdp	0, 0, cr0, cr0, cr0, {0}
    19e8:	ea00000e 	b	1a28 <__code_start__-0x65d8>
    19ec:	1f00000e 	svcne	0x0000000e
    19f0:	0000040e 	andeq	r0, r0, lr, lsl #8
    19f4:	d1301f01 	teqle	r0, r1, lsl #30
    19f8:	13000000 	movwne	r0, #0
    19fc:	0f00000f 	svceq	0x0000000f
    1a00:	1200000f 	andne	r0, r0, #15, 0
    1a04:	000000ab 	andeq	r0, r0, fp, lsr #1
    1a08:	00000a8d 	andeq	r0, r0, sp, lsl #21
    1a0c:	9a840305 	bls	fe102628 <__bss_end__+0xfe0f7ee8>
    1a10:	60180000 	andsvs	r0, r8, r0
    1a14:	9e00008b 	cdpls	0, 0, cr0, cr0, cr11, {4}
    1a18:	7300000a 	movwvc	r0, #10
    1a1c:	1900000a 	stmdbne	r0, {r1, r3}
    1a20:	03055001 	movweq	r5, #20481	; 0x5001
    1a24:	000097ec 	andeq	r9, r0, ip, ror #15
    1a28:	05510119 	ldrbeq	r0, [r1, #-281]	; 0xfffffee7
    1a2c:	00993803 	addseq	r3, r9, r3, lsl #16
    1a30:	52011900 	andpl	r1, r1, #0, 18
    1a34:	9a840305 	bls	fe102650 <__bss_end__+0xfe0f7f10>
    1a38:	01190000 	tsteq	r9, r0
    1a3c:	20080253 	andcs	r0, r8, r3, asr r2
    1a40:	007d0219 	rsbseq	r0, sp, r9, lsl r2
    1a44:	99740305 	ldmdbls	r4!, {r0, r2, r8, r9}^
    1a48:	1a000000 	bne	1a50 <__code_start__-0x65b0>
    1a4c:	00008b64 	andeq	r8, r0, r4, ror #22
    1a50:	00000ac2 	andeq	r0, r0, r2, asr #21
    1a54:	00c01c00 	sbceq	r1, r0, r0, lsl #24
    1a58:	0a8d0000 	beq	fe341a60 <__bss_end__+0xfe337320>
    1a5c:	2c1d0000 	ldccs	0, cr0, [sp], {-0}
    1a60:	0e000000 	cdpeq	0, 0, cr0, cr0, cr0, {0}
    1a64:	0a7d0900 	beq	1f43e6c <__bss_end__+0x1f3972c>
    1a68:	46220000 	strtmi	r0, [r2], -r0
    1a6c:	46000004 	strmi	r0, [r0], -r4
    1a70:	03000004 	movweq	r0, #4
    1a74:	b62205eb 	strtlt	r0, [r2], -fp, ror #11
    1a78:	b6000002 	strlt	r0, [r0], -r2
    1a7c:	03000002 	movweq	r0, #2
    1a80:	1e220628 	cfmadda32ne	mvax1, mvax0, mvfx2, mvfx8
    1a84:	1e000004 	cdpne	0, 0, cr0, cr0, cr4, {0}
    1a88:	03000004 	movweq	r0, #4
    1a8c:	ef2205ea 	svc	0x002205ea
    1a90:	ef000003 	svc	0x00000003
    1a94:	03000003 	movweq	r0, #3
    1a98:	cb2207ed 	blgt	883a54 <__bss_end__+0x879314>
    1a9c:	cb000000 	blgt	1aa4 <__code_start__-0x655c>
    1aa0:	03000000 	movweq	r0, #0
    1aa4:	e822066e 	stmda	r2!, {r1, r2, r3, r5, r6, r9, sl}
    1aa8:	e8000003 	stmda	r0, {r0, r1}
    1aac:	03000003 	movweq	r0, #3
    1ab0:	2f0007ee 	svccs	0x000007ee
    1ab4:	04000001 	streq	r0, [r0], #-1
    1ab8:	00063600 	andeq	r3, r6, r0, lsl #12
    1abc:	41010400 	tstmi	r1, r0, lsl #8
    1ac0:	0c000001 	stceq	0, cr0, [r0], {1}
    1ac4:	00000470 	andeq	r0, r0, r0, ror r4
    1ac8:	000002eb 	andeq	r0, r0, fp, ror #5
    1acc:	00009034 	andeq	r9, r0, r4, lsr r0
    1ad0:	0000002c 	andeq	r0, r0, ip, lsr #32
    1ad4:	00000dd1 	ldrdeq	r0, [r0], -r1
    1ad8:	69050402 	stmdbvs	r5, {r1, sl}
    1adc:	0300746e 	movweq	r7, #1134	; 0x46e
    1ae0:	01010704 	tsteq	r1, r4, lsl #14
    1ae4:	01030000 	mrseq	r0, (UNDEF: 3)
    1ae8:	0000da06 	andeq	sp, r0, r6, lsl #20
    1aec:	05020300 	streq	r0, [r2, #-768]	; 0xfffffd00
    1af0:	0000000b 	andeq	r0, r0, fp
    1af4:	80050403 	andhi	r0, r5, r3, lsl #8
    1af8:	03000000 	movweq	r0, #0
    1afc:	007b0508 	rsbseq	r0, fp, r8, lsl #10
    1b00:	01030000 	mrseq	r0, (UNDEF: 3)
    1b04:	0000d808 	andeq	sp, r0, r8, lsl #16
    1b08:	07020300 	streq	r0, [r2, -r0, lsl #6]
    1b0c:	00000116 	andeq	r0, r0, r6, lsl r1
    1b10:	fc070403 	stc2	4, cr0, [r7], {3}
    1b14:	03000000 	movweq	r0, #0
    1b18:	00f70708 	rscseq	r0, r7, r8, lsl #14
    1b1c:	25040000 	strcs	r0, [r4, #-0]
    1b20:	7a000000 	bvc	1b28 <__code_start__-0x64d8>
    1b24:	05000000 	streq	r0, [r0, #-0]
    1b28:	00000025 	andeq	r0, r0, r5, lsr #32
    1b2c:	00280600 	eoreq	r0, r8, r0, lsl #12
    1b30:	1c020000 	stcne	0, cr0, [r2], {-0}
    1b34:	0000860e 	andeq	r8, r0, lr, lsl #12
    1b38:	6b040700 	blvs	103740 <__bss_end__+0xf9000>
    1b3c:	04000000 	streq	r0, [r0], #-0
    1b40:	00000025 	andeq	r0, r0, r5, lsr #32
    1b44:	0000009b 	muleq	r0, fp, r0
    1b48:	00009b05 	andeq	r9, r0, r5, lsl #22
    1b4c:	04070000 	streq	r0, [r7], #-0
    1b50:	000000a8 	andeq	r0, r0, r8, lsr #1
    1b54:	e1080103 	tst	r8, r3, lsl #2
    1b58:	08000000 	stmdaeq	r0, {}	; <UNPREDICTABLE>
    1b5c:	000000a1 	andeq	r0, r0, r1, lsr #1
    1b60:	00033c06 	andeq	r3, r3, r6, lsl #24
    1b64:	0e210200 	cdpeq	2, 2, cr0, cr1, cr0, {0}
    1b68:	000000b9 	strheq	r0, [r0], -r9
    1b6c:	008c0407 	addeq	r0, ip, r7, lsl #8
    1b70:	cb090000 	blgt	241b78 <__bss_end__+0x237438>
    1b74:	01000000 	mrseq	r0, (UNDEF: 0)
    1b78:	90340604 	eorsls	r0, r4, r4, lsl #12
    1b7c:	002c0000 	eoreq	r0, ip, r0
    1b80:	9c010000 	stcls	0, cr0, [r1], {-0}
    1b84:	0000010e 	andeq	r0, r0, lr, lsl #2
    1b88:	0090480a 	addseq	r4, r0, sl, lsl #16
    1b8c:	0000e800 	andeq	lr, r0, r0, lsl #16
    1b90:	50010b00 	andpl	r0, r1, r0, lsl #22
    1b94:	9aa00305 	bls	fe8027b0 <__bss_end__+0xfe7f8070>
    1b98:	0c000000 	stceq	0, cr0, [r0], {-0}
    1b9c:	0000904c 	andeq	r9, r0, ip, asr #32
    1ba0:	0000010e 	andeq	r0, r0, lr, lsl #2
    1ba4:	0090540d 	addseq	r5, r0, sp, lsl #8
    1ba8:	00011a00 	andeq	r1, r1, r0, lsl #20
    1bac:	00010400 	andeq	r0, r1, r0, lsl #8
    1bb0:	50010b00 	andpl	r0, r1, r0, lsl #22
    1bb4:	0c003a01 			; <UNDEFINED> instruction: 0x0c003a01
    1bb8:	00009058 	andeq	r9, r0, r8, asr r0
    1bbc:	00000126 	andeq	r0, r0, r6, lsr #2
    1bc0:	048b0e00 	streq	r0, [fp], #3584	; 0xe00
    1bc4:	048b0000 	streq	r0, [fp], #0
    1bc8:	4d020000 	stcmi	0, cr0, [r2, #-0]
    1bcc:	04670e06 	strbteq	r0, [r7], #-3590	; 0xfffff1fa
    1bd0:	04670000 	strbteq	r0, [r7], #-0
    1bd4:	58020000 	stmdapl	r2, {}	; <UNPREDICTABLE>
    1bd8:	045c0e06 	ldrbeq	r0, [ip], #-3590	; 0xfffff1fa
    1bdc:	045c0000 	ldrbeq	r0, [ip], #-0
    1be0:	6b020000 	blvs	81be8 <__bss_end__+0x774a8>
    1be4:	01890006 	orreq	r0, r9, r6
    1be8:	00040000 	andeq	r0, r4, r0
    1bec:	000006f6 	strdeq	r0, [r0], -r6
    1bf0:	01410104 	cmpeq	r1, r4, lsl #2
    1bf4:	c10c0000 	mrsgt	r0, (UNDEF: 12)
    1bf8:	eb000004 	bl	1c10 <__code_start__-0x63f0>
    1bfc:	60000002 	andvs	r0, r0, r2
    1c00:	3c000090 	stccc	0, cr0, [r0], {144}	; 0x90
    1c04:	7b000000 	blvc	1c0c <__code_start__-0x63f4>
    1c08:	0200000e 	andeq	r0, r0, #14, 0
    1c0c:	6e690504 	cdpvs	5, 6, cr0, cr9, cr4, {0}
    1c10:	04030074 	streq	r0, [r3], #-116	; 0xffffff8c
    1c14:	00010107 	andeq	r0, r1, r7, lsl #2
    1c18:	06010300 	streq	r0, [r1], -r0, lsl #6
    1c1c:	000000da 	ldrdeq	r0, [r0], -sl
    1c20:	0b050203 	bleq	142434 <__bss_end__+0x137cf4>
    1c24:	03000000 	movweq	r0, #0
    1c28:	00800504 	addeq	r0, r0, r4, lsl #10
    1c2c:	08030000 	stmdaeq	r3, {}	; <UNPREDICTABLE>
    1c30:	00007b05 	andeq	r7, r0, r5, lsl #22
    1c34:	08010300 	stmdaeq	r1, {r8, r9}
    1c38:	000000d8 	ldrdeq	r0, [r0], -r8
    1c3c:	16070203 	strne	r0, [r7], -r3, lsl #4
    1c40:	03000001 	movweq	r0, #1
    1c44:	00fc0704 	rscseq	r0, ip, r4, lsl #14
    1c48:	08030000 	stmdaeq	r3, {}	; <UNPREDICTABLE>
    1c4c:	0000f707 	andeq	pc, r0, r7, lsl #14
    1c50:	00250400 	eoreq	r0, r5, r0, lsl #8
    1c54:	007a0000 	rsbseq	r0, sl, r0
    1c58:	25050000 	strcs	r0, [r5, #-0]
    1c5c:	00000000 	andeq	r0, r0, r0
    1c60:	00002806 	andeq	r2, r0, r6, lsl #16
    1c64:	0e1c0200 	cdpeq	2, 1, cr0, cr12, cr0, {0}
    1c68:	00000086 	andeq	r0, r0, r6, lsl #1
    1c6c:	006b0407 	rsbeq	r0, fp, r7, lsl #8
    1c70:	25040000 	strcs	r0, [r4, #-0]
    1c74:	9b000000 	blls	1c7c <__code_start__-0x6384>
    1c78:	05000000 	streq	r0, [r0, #-0]
    1c7c:	0000009b 	muleq	r0, fp, r0
    1c80:	a8040700 	stmdage	r4, {r8, r9, sl}
    1c84:	03000000 	movweq	r0, #0
    1c88:	00e10801 	rsceq	r0, r1, r1, lsl #16
    1c8c:	a1080000 	mrsge	r0, (UNDEF: 8)
    1c90:	06000000 	streq	r0, [r0], -r0
    1c94:	0000033c 	andeq	r0, r0, ip, lsr r3
    1c98:	b90e2102 	stmdblt	lr, {r1, r8, sp}
    1c9c:	07000000 	streq	r0, [r0, -r0]
    1ca0:	00008c04 	andeq	r8, r0, r4, lsl #24
    1ca4:	04990900 	ldreq	r0, [r9], #2304	; 0x900
    1ca8:	04010000 	streq	r0, [r1], #-0
    1cac:	00906006 	addseq	r6, r0, r6
    1cb0:	00003c00 	andeq	r3, r0, r0, lsl #24
    1cb4:	549c0100 	ldrpl	r0, [ip], #256	; 0x100
    1cb8:	06000001 	streq	r0, [r0], -r1
    1cbc:	00000382 	andeq	r0, r0, r2, lsl #7
    1cc0:	25100501 	ldrcs	r0, [r0, #-1281]	; 0xfffffaff
    1cc4:	06000000 	streq	r0, [r0], -r0
    1cc8:	000003ab 	andeq	r0, r0, fp, lsr #7
    1ccc:	251f0501 	ldrcs	r0, [pc, #-1281]	; 17d3 <__code_start__-0x682d>
    1cd0:	0a000000 	beq	1cd8 <__code_start__-0x6328>
    1cd4:	0000010e 	andeq	r0, r0, lr, lsl #2
    1cd8:	0b070601 	bleq	1c34e4 <__bss_end__+0x1b8da4>
    1cdc:	00737362 	rsbseq	r7, r3, r2, ror #6
    1ce0:	540a0a01 	strpl	r0, [sl], #-2561	; 0xfffff5ff
    1ce4:	3a000001 	bcc	1cf0 <__code_start__-0x6310>
    1ce8:	3400000f 	strcc	r0, [r0], #-15
    1cec:	0c00000f 	stceq	0, cr0, [r0], {15}
    1cf0:	000004a1 	andeq	r0, r0, r1, lsr #9
    1cf4:	540a0b01 	strpl	r0, [sl], #-2817	; 0xfffff4ff
    1cf8:	0d000001 	stceq	0, cr0, [r0, #-4]
    1cfc:	00009084 	andeq	r9, r0, r4, lsl #1
    1d00:	00000008 	andeq	r0, r0, r8
    1d04:	0000012f 	andeq	r0, r0, pc, lsr #2
    1d08:	006e690e 	rsbeq	r6, lr, lr, lsl #18
    1d0c:	2c051401 	cfstrscs	mvf1, [r5], {1}
    1d10:	01000000 	mrseq	r0, (UNDEF: 0)
    1d14:	90680f00 	rsbls	r0, r8, r0, lsl #30
    1d18:	015a0000 	cmpeq	sl, r0
    1d1c:	840f0000 	strhi	r0, [pc], #-0	; 1d24 <__code_start__-0x62dc>
    1d20:	67000090 			; <UNDEFINED> instruction: 0x67000090
    1d24:	0f000001 	svceq	0x00000001
    1d28:	00009090 	muleq	r0, r0, r0
    1d2c:	00000173 	andeq	r0, r0, r3, ror r1
    1d30:	0090940f 	addseq	r9, r0, pc, lsl #8
    1d34:	00018000 	andeq	r8, r1, r0
    1d38:	04070000 	streq	r0, [r7], #-0
    1d3c:	00000025 	andeq	r0, r0, r5, lsr #32
    1d40:	0004b310 	andeq	fp, r4, r0, lsl r3
    1d44:	0004b300 	andeq	fp, r4, r0, lsl #6
    1d48:	01310200 	teqeq	r1, r0, lsl #4
    1d4c:	04a91106 	strteq	r1, [r9], #262	; 0x106
    1d50:	04a90000 	strteq	r0, [r9], #0
    1d54:	3b020000 	blcc	81d5c <__bss_end__+0x7761c>
    1d58:	010e1006 	tsteq	lr, r6
    1d5c:	010e0000 	mrseq	r0, (UNDEF: 14)
    1d60:	05020000 	streq	r0, [r2, #-0]
    1d64:	cb110601 	blgt	443570 <__bss_end__+0x438e30>
    1d68:	cb000000 	blgt	1d70 <__code_start__-0x6290>
    1d6c:	02000000 	andeq	r0, r0, #0, 0
    1d70:	ce00066e 	cfmadd32gt	mvax3, mvfx0, mvfx0, mvfx14
    1d74:	04000000 	streq	r0, [r0], #-0
    1d78:	0007f200 	andeq	pc, r7, r0, lsl #4
    1d7c:	41010400 	tstmi	r1, r0, lsl #8
    1d80:	0c000001 	stceq	0, cr0, [r0], {1}
    1d84:	000004d6 	ldrdeq	r0, [r0], -r6
    1d88:	000002eb 	andeq	r0, r0, fp, ror #5
    1d8c:	0000909c 	muleq	r0, ip, r0
    1d90:	00000004 	andeq	r0, r0, r4
    1d94:	00000f3f 	andeq	r0, r0, pc, lsr pc
    1d98:	69050402 	stmdbvs	r5, {r1, sl}
    1d9c:	0300746e 	movweq	r7, #1134	; 0x46e
    1da0:	01010704 	tsteq	r1, r4, lsl #14
    1da4:	01030000 	mrseq	r0, (UNDEF: 3)
    1da8:	0000da06 	andeq	sp, r0, r6, lsl #20
    1dac:	05020300 	streq	r0, [r2, #-768]	; 0xfffffd00
    1db0:	0000000b 	andeq	r0, r0, fp
    1db4:	80050403 	andhi	r0, r5, r3, lsl #8
    1db8:	03000000 	movweq	r0, #0
    1dbc:	007b0508 	rsbseq	r0, fp, r8, lsl #10
    1dc0:	01030000 	mrseq	r0, (UNDEF: 3)
    1dc4:	0000d808 	andeq	sp, r0, r8, lsl #16
    1dc8:	07020300 	streq	r0, [r2, -r0, lsl #6]
    1dcc:	00000116 	andeq	r0, r0, r6, lsl r1
    1dd0:	fc070403 	stc2	4, cr0, [r7], {3}
    1dd4:	03000000 	movweq	r0, #0
    1dd8:	00f70708 	rscseq	r0, r7, r8, lsl #14
    1ddc:	25040000 	strcs	r0, [r4, #-0]
    1de0:	7a000000 	bvc	1de8 <__code_start__-0x6218>
    1de4:	05000000 	streq	r0, [r0, #-0]
    1de8:	00000025 	andeq	r0, r0, r5, lsr #32
    1dec:	00280600 	eoreq	r0, r8, r0, lsl #12
    1df0:	1c020000 	stcne	0, cr0, [r2], {-0}
    1df4:	0000860e 	andeq	r8, r0, lr, lsl #12
    1df8:	6b040700 	blvs	103a00 <__bss_end__+0xf92c0>
    1dfc:	04000000 	streq	r0, [r0], #-0
    1e00:	00000025 	andeq	r0, r0, r5, lsr #32
    1e04:	0000009b 	muleq	r0, fp, r0
    1e08:	00009b05 	andeq	r9, r0, r5, lsl #22
    1e0c:	04070000 	streq	r0, [r7], #-0
    1e10:	000000a8 	andeq	r0, r0, r8, lsr #1
    1e14:	e1080103 	tst	r8, r3, lsl #2
    1e18:	08000000 	stmdaeq	r0, {}	; <UNPREDICTABLE>
    1e1c:	000000a1 	andeq	r0, r0, r1, lsr #1
    1e20:	00033c06 	andeq	r3, r3, r6, lsl #24
    1e24:	0e210200 	cdpeq	2, 2, cr0, cr1, cr0, {0}
    1e28:	000000b9 	strheq	r0, [r0], -r9
    1e2c:	008c0407 	addeq	r0, ip, r7, lsl #8
    1e30:	b3090000 	movwlt	r0, #36864	; 0x9000
    1e34:	01000004 	tsteq	r0, r4
    1e38:	909c0604 	addsls	r0, ip, r4, lsl #12
    1e3c:	00040000 	andeq	r0, r4, r0
    1e40:	9c010000 	stcls	0, cr0, [r1], {-0}
    1e44:	00023600 	andeq	r3, r2, r0, lsl #12
    1e48:	6b000400 	blvs	2e50 <__code_start__-0x51b0>
    1e4c:	04000008 	streq	r0, [r0], #-8
    1e50:	00014101 	andeq	r4, r1, r1, lsl #2
    1e54:	051e0c00 	ldreq	r0, [lr, #-3072]	; 0xfffff400
    1e58:	02eb0000 	rsceq	r0, fp, #0, 0
    1e5c:	00600000 	rsbeq	r0, r0, r0
    1e60:	00000000 	andeq	r0, r0, r0
    1e64:	0fe70000 	svceq	0x00e70000
    1e68:	04020000 	streq	r0, [r2], #-0
    1e6c:	746e6905 	strbtvc	r6, [lr], #-2309	; 0xfffff6fb
    1e70:	00250300 	eoreq	r0, r5, r0, lsl #6
    1e74:	04040000 	streq	r0, [r4], #-0
    1e78:	00010107 	andeq	r0, r1, r7, lsl #2
    1e7c:	06010400 	streq	r0, [r1], -r0, lsl #8
    1e80:	000000da 	ldrdeq	r0, [r0], -sl
    1e84:	0b050204 	bleq	14269c <__bss_end__+0x137f5c>
    1e88:	04000000 	streq	r0, [r0], #-0
    1e8c:	00800504 	addeq	r0, r0, r4, lsl #10
    1e90:	08040000 	stmdaeq	r4, {}	; <UNPREDICTABLE>
    1e94:	00007b05 	andeq	r7, r0, r5, lsl #22
    1e98:	08010400 	stmdaeq	r1, {sl}
    1e9c:	000000d8 	ldrdeq	r0, [r0], -r8
    1ea0:	16070204 	strne	r0, [r7], -r4, lsl #4
    1ea4:	04000001 	streq	r0, [r0], #-1
    1ea8:	00fc0704 	rscseq	r0, ip, r4, lsl #14
    1eac:	08040000 	stmdaeq	r4, {}	; <UNPREDICTABLE>
    1eb0:	0000f707 	andeq	pc, r0, r7, lsl #14
    1eb4:	00250500 	eoreq	r0, r5, r0, lsl #10
    1eb8:	007f0000 	rsbseq	r0, pc, r0
    1ebc:	25060000 	strcs	r0, [r6, #-0]
    1ec0:	00000000 	andeq	r0, r0, r0
    1ec4:	00002807 	andeq	r2, r0, r7, lsl #16
    1ec8:	0e1c0200 	cdpeq	2, 1, cr0, cr12, cr0, {0}
    1ecc:	0000008b 	andeq	r0, r0, fp, lsl #1
    1ed0:	00700408 	rsbseq	r0, r0, r8, lsl #8
    1ed4:	25050000 	strcs	r0, [r5, #-0]
    1ed8:	a0000000 	andge	r0, r0, r0
    1edc:	06000000 	streq	r0, [r0], -r0
    1ee0:	000000a0 	andeq	r0, r0, r0, lsr #1
    1ee4:	ad040800 	stcge	8, cr0, [r4, #-0]
    1ee8:	04000000 	streq	r0, [r0], #-0
    1eec:	00e10801 	rsceq	r0, r1, r1, lsl #16
    1ef0:	a6030000 	strge	r0, [r3], -r0
    1ef4:	07000000 	streq	r0, [r0, -r0]
    1ef8:	0000033c 	andeq	r0, r0, ip, lsr r3
    1efc:	be0e2102 	adflte	f2, f6, f2
    1f00:	08000000 	stmdaeq	r0, {}	; <UNPREDICTABLE>
    1f04:	00009104 	andeq	r9, r0, r4, lsl #2
    1f08:	05420900 	strbeq	r0, [r2, #-2304]	; 0xfffff700
    1f0c:	0d010000 	stceq	0, cr0, [r1, #-0]
    1f10:	00003111 	andeq	r3, r0, r1, lsl r1
    1f14:	045c0a00 	ldrbeq	r0, [ip], #-2560	; 0xfffff600
    1f18:	1f010000 	svcne	0x00010000
    1f1c:	0090cc06 	addseq	ip, r0, r6, lsl #24
    1f20:	00005400 	andeq	r5, r0, r0, lsl #8
    1f24:	ae9c0100 	fmlgee	f0, f4, f0
    1f28:	0b000001 	bleq	1f34 <__code_start__-0x60cc>
    1f2c:	00000566 	andeq	r0, r0, r6, ror #10
    1f30:	2c0f2c01 	stccs	12, cr2, [pc], {1}
    1f34:	67000000 	strvs	r0, [r0, -r0]
    1f38:	6500000f 	strvs	r0, [r0, #-15]
    1f3c:	0b00000f 	bleq	1f80 <__code_start__-0x6080>
    1f40:	00000501 	andeq	r0, r0, r1, lsl #10
    1f44:	2c0f2d01 	stccs	13, cr2, [pc], {1}
    1f48:	81000000 	mrshi	r0, (UNDEF: 0)
    1f4c:	7f00000f 	svcvc	0x0000000f
    1f50:	0b00000f 	bleq	1f94 <__code_start__-0x606c>
    1f54:	00000533 	andeq	r0, r0, r3, lsr r5
    1f58:	2c0f2e01 	stccs	14, cr2, [pc], {1}
    1f5c:	9b000000 	blls	1f64 <__code_start__-0x609c>
    1f60:	9900000f 	stmdbls	r0, {r0, r1, r2, r3}
    1f64:	0b00000f 	bleq	1fa8 <__code_start__-0x6058>
    1f68:	0000054d 	andeq	r0, r0, sp, asr #10
    1f6c:	2c0f2f01 	stccs	15, cr2, [pc], {1}
    1f70:	b4000000 	strlt	r0, [r0], #-0
    1f74:	b200000f 	andlt	r0, r0, #15, 0
    1f78:	0c00000f 	stceq	0, cr0, [r0], {15}
    1f7c:	000090d4 	ldrdeq	r9, [r0], -r4
    1f80:	000001d9 	ldrdeq	r0, [r0], -r9
    1f84:	0090e00c 	addseq	lr, r0, ip
    1f88:	00020800 	andeq	r0, r2, r0, lsl #16
    1f8c:	90e40c00 	rscls	r0, r4, r0, lsl #24
    1f90:	02150000 	andseq	r0, r5, #0, 0
    1f94:	ec0d0000 	stc	0, cr0, [sp], {-0}
    1f98:	21000090 	swpcs	r0, r0, [r0]	; <UNPREDICTABLE>
    1f9c:	64000002 	strvs	r0, [r0], #-2
    1fa0:	0e000001 	cdpeq	0, 0, cr0, cr0, cr1, {0}
    1fa4:	3a015001 	bcc	55fb0 <__bss_end__+0x4b870>
    1fa8:	90f80d00 	rscsls	r0, r8, r0, lsl #26
    1fac:	022d0000 	eoreq	r0, sp, #0, 0
    1fb0:	01840000 	orreq	r0, r4, r0
    1fb4:	010e0000 	mrseq	r0, (UNDEF: 14)
    1fb8:	240c0550 	strcs	r0, [ip], #-1360	; 0xfffffab0
    1fbc:	0e201000 	cdpeq	0, 2, cr1, cr0, cr0, {0}
    1fc0:	0c055101 	stfeqs	f5, [r5], {1}
    1fc4:	5a000001 	bpl	1fd0 <__code_start__-0x6030>
    1fc8:	91040d00 	tstls	r4, r0, lsl #26
    1fcc:	022d0000 	eoreq	r0, sp, #0, 0
    1fd0:	01a40000 			; <UNDEFINED> instruction: 0x01a40000
    1fd4:	010e0000 	mrseq	r0, (UNDEF: 14)
    1fd8:	1c0c0550 	cfstr32ne	mvfx0, [ip], {80}	; 0x50
    1fdc:	0e201000 	cdpeq	0, 2, cr1, cr0, cr0, {0}
    1fe0:	0c055101 	stfeqs	f5, [r5], {1}
    1fe4:	5a000020 	bpl	206c <__code_start__-0x5f94>
    1fe8:	910c0c00 	tstls	ip, r0, lsl #24
    1fec:	01ae0000 			; <UNDEFINED> instruction: 0x01ae0000
    1ff0:	0f000000 	svceq	0x00000000
    1ff4:	0000050f 	andeq	r0, r0, pc, lsl #10
    1ff8:	b8061701 	stmdalt	r6, {r0, r8, r9, sl, ip}
    1ffc:	14000090 	strne	r0, [r0], #-144	; 0xffffff70
    2000:	01000000 	mrseq	r0, (UNDEF: 0)
    2004:	0001d99c 	muleq	r1, ip, r9
    2008:	056e0b00 	strbeq	r0, [lr, #-2816]!	; 0xfffff500
    200c:	18010000 	stmdane	r1, {}	; <UNPREDICTABLE>
    2010:	0000310e 	andeq	r3, r0, lr, lsl #2
    2014:	000fcf00 	andeq	ip, pc, r0, lsl #30
    2018:	000fc900 	andeq	ip, pc, r0, lsl #18
    201c:	3f100000 	svccc	0x00100000
    2020:	01000005 	tsteq	r0, r5
    2024:	0025050e 	eoreq	r0, r5, lr, lsl #10
    2028:	90a00000 	adcls	r0, r0, r0
    202c:	00180000 	andseq	r0, r8, r0
    2030:	9c010000 	stcls	0, cr0, [r1], {-0}
    2034:	00000208 	andeq	r0, r0, r8, lsl #4
    2038:	00056e0b 	andeq	r6, r5, fp, lsl #28
    203c:	0e0f0100 	adfeqe	f0, f7, f0
    2040:	00000031 	andeq	r0, r0, r1, lsr r0
    2044:	00000ffd 	strdeq	r0, [r0], -sp
    2048:	00000ff9 	strdeq	r0, [r0], -r9
    204c:	04f21100 	ldrbteq	r1, [r2], #256	; 0x100
    2050:	04f20000 	ldrbteq	r0, [r2], #0
    2054:	36020000 	strcc	r0, [r2], -r0
    2058:	8b120601 	blhi	483864 <__bss_end__+0x479124>
    205c:	8b000004 	blhi	2074 <__code_start__-0x5f8c>
    2060:	02000004 	andeq	r0, r0, #4, 0
    2064:	6712064d 	ldrvs	r0, [r2, -sp, asr #12]
    2068:	67000004 	strvs	r0, [r0, -r4]
    206c:	02000004 	andeq	r0, r0, #4, 0
    2070:	09120658 	ldmdbeq	r2, {r3, r4, r6, r9, sl}
    2074:	09000005 	stmdbeq	r0, {r0, r2}
    2078:	02000005 	andeq	r0, r0, #5, 0
    207c:	4d0006ad 	stcmi	6, cr0, [r0, #-692]	; 0xfffffd4c
    2080:	04000002 	streq	r0, [r0], #-2
    2084:	00099000 	andeq	r9, r9, r0
    2088:	41010400 	tstmi	r1, r0, lsl #8
    208c:	0c000001 	stceq	0, cr0, [r0], {1}
    2090:	00000589 	andeq	r0, r0, r9, lsl #11
    2094:	000002eb 	andeq	r0, r0, fp, ror #5
    2098:	00009120 	andeq	r9, r0, r0, lsr #2
    209c:	00000084 	andeq	r0, r0, r4, lsl #1
    20a0:	000010df 	ldrdeq	r1, [r0], -pc	; <UNPREDICTABLE>
    20a4:	69050402 	stmdbvs	r5, {r1, sl}
    20a8:	0300746e 	movweq	r7, #1134	; 0x46e
    20ac:	01010704 	tsteq	r1, r4, lsl #14
    20b0:	01030000 	mrseq	r0, (UNDEF: 3)
    20b4:	0000da06 	andeq	sp, r0, r6, lsl #20
    20b8:	05020300 	streq	r0, [r2, #-768]	; 0xfffffd00
    20bc:	0000000b 	andeq	r0, r0, fp
    20c0:	80050403 	andhi	r0, r5, r3, lsl #8
    20c4:	03000000 	movweq	r0, #0
    20c8:	007b0508 	rsbseq	r0, fp, r8, lsl #10
    20cc:	01030000 	mrseq	r0, (UNDEF: 3)
    20d0:	0000d808 	andeq	sp, r0, r8, lsl #16
    20d4:	07020300 	streq	r0, [r2, -r0, lsl #6]
    20d8:	00000116 	andeq	r0, r0, r6, lsl r1
    20dc:	fc070403 	stc2	4, cr0, [r7], {3}
    20e0:	03000000 	movweq	r0, #0
    20e4:	00f70708 	rscseq	r0, r7, r8, lsl #14
    20e8:	25040000 	strcs	r0, [r4, #-0]
    20ec:	7a000000 	bvc	20f4 <__code_start__-0x5f0c>
    20f0:	05000000 	streq	r0, [r0, #-0]
    20f4:	00000025 	andeq	r0, r0, r5, lsr #32
    20f8:	00280600 	eoreq	r0, r8, r0, lsl #12
    20fc:	1c020000 	stcne	0, cr0, [r2], {-0}
    2100:	0000860e 	andeq	r8, r0, lr, lsl #12
    2104:	6b040700 	blvs	103d0c <__bss_end__+0xf95cc>
    2108:	04000000 	streq	r0, [r0], #-0
    210c:	00000025 	andeq	r0, r0, r5, lsr #32
    2110:	0000009b 	muleq	r0, fp, r0
    2114:	00009b05 	andeq	r9, r0, r5, lsl #22
    2118:	04070000 	streq	r0, [r7], #-0
    211c:	000000a8 	andeq	r0, r0, r8, lsr #1
    2120:	e1080103 	tst	r8, r3, lsl #2
    2124:	08000000 	stmdaeq	r0, {}	; <UNPREDICTABLE>
    2128:	000000a1 	andeq	r0, r0, r1, lsr #1
    212c:	00033c06 	andeq	r3, r3, r6, lsl #24
    2130:	0e210200 	cdpeq	2, 2, cr0, cr1, cr0, {0}
    2134:	000000b9 	strheq	r0, [r0], -r9
    2138:	008c0407 	addeq	r0, ip, r7, lsl #8
    213c:	7f090000 	svcvc	0x00090000
    2140:	01000005 	tsteq	r0, r5
    2144:	918c061e 	orrls	r0, ip, lr, lsl r6
    2148:	00180000 	andseq	r0, r8, r0
    214c:	9c010000 	stcls	0, cr0, [r1], {-0}
    2150:	00000109 	andeq	r0, r0, r9, lsl #2
    2154:	6365730a 	cmnvs	r5, #671088640	; 0x28000000
    2158:	191e0100 	ldmdbne	lr, {r8}
    215c:	0000002c 	andeq	r0, r0, ip, lsr #32
    2160:	00001020 	andeq	r1, r0, r0, lsr #32
    2164:	0000101c 	andeq	r1, r0, ip, lsl r0
    2168:	0091a00b 	addseq	sl, r1, fp
    216c:	00010900 	andeq	r0, r1, r0, lsl #18
    2170:	50010c00 	andpl	r0, r1, r0, lsl #24
    2174:	5001f311 	andpl	pc, r1, r1, lsl r3	; <UNPREDICTABLE>
    2178:	01f32435 	mvnseq	r2, r5, lsr r4
    217c:	24321c50 	ldrtcs	r1, [r2], #-3152	; 0xfffff3b0
    2180:	225001f3 	subscs	r0, r0, #-1073741764	; 0xc000003c
    2184:	00002433 	andeq	r2, r0, r3, lsr r4
    2188:	00046709 	andeq	r6, r4, r9, lsl #14
    218c:	061b0100 	ldreq	r0, [fp], -r0, lsl #2
    2190:	00009174 	andeq	r9, r0, r4, ror r1
    2194:	00000018 	andeq	r0, r0, r8, lsl r0
    2198:	01529c01 	cmpeq	r2, r1, lsl #24
    219c:	6d0a0000 	stcvs	0, cr0, [sl, #-0]
    21a0:	1b010073 	blne	42374 <__bss_end__+0x37c34>
    21a4:	00002c18 	andeq	r2, r0, r8, lsl ip
    21a8:	00104500 	andseq	r4, r0, r0, lsl #10
    21ac:	00104100 	andseq	r4, r0, r0, lsl #2
    21b0:	91880b00 	orrls	r0, r8, r0, lsl #22
    21b4:	01520000 	cmpeq	r2, r0
    21b8:	010c0000 	mrseq	r0, (UNDEF: 12)
    21bc:	01f31150 	mvnseq	r1, r0, asr r1
    21c0:	f3243550 	vqrshl.u32	<illegal reg q1.5>, q0, q2
    21c4:	321c5001 	andscc	r5, ip, #1, 0
    21c8:	5001f324 	andpl	pc, r1, r4, lsr #6
    21cc:	00243322 	eoreq	r3, r4, r2, lsr #6
    21d0:	05a30900 	streq	r0, [r3, #2304]!	; 0x900
    21d4:	12010000 	andne	r0, r1, #0, 0
    21d8:	00915006 	addseq	r5, r1, r6
    21dc:	00002400 	andeq	r2, r0, r0, lsl #8
    21e0:	c29c0100 	addsgt	r0, ip, #0
    21e4:	0a000001 	beq	21f0 <__code_start__-0x5e10>
    21e8:	01007375 	tsteq	r0, r5, ror r3
    21ec:	002c1812 	eoreq	r1, ip, r2, lsl r8
    21f0:	106a0000 	rsbne	r0, sl, r0
    21f4:	10660000 	rsbne	r0, r6, r0
    21f8:	720d0000 	andvc	r0, sp, #0, 0
    21fc:	13010062 	movwne	r0, #4194	; 0x1062
    2200:	00002c0e 	andeq	r2, r0, lr, lsl #24
    2204:	00108a00 	andseq	r8, r0, r0, lsl #20
    2208:	00108800 	andseq	r8, r0, r0, lsl #16
    220c:	91600e00 	cmnls	r0, r0, lsl #28
    2210:	00140000 	andseq	r0, r4, r0
    2214:	01b80000 			; <UNDEFINED> instruction: 0x01b80000
    2218:	720d0000 	andvc	r0, sp, #0, 0
    221c:	15010061 	strne	r0, [r1, #-97]	; 0xffffff9f
    2220:	00002c12 	andeq	r2, r0, r2, lsl ip
    2224:	00109f00 	andseq	r9, r0, r0, lsl #30
    2228:	00109d00 	andseq	r9, r0, r0, lsl #26
    222c:	91640f00 	cmnls	r4, r0, lsl #30
    2230:	01c20000 	biceq	r0, r2, r0
    2234:	0f000000 	svceq	0x00000000
    2238:	0000915c 	andeq	r9, r0, ip, asr r1
    223c:	000001c2 	andeq	r0, r0, r2, asr #3
    2240:	02971000 	addseq	r1, r7, #0, 0
    2244:	09010000 	stmdbeq	r1, {}	; <UNPREDICTABLE>
    2248:	00002c0a 	andeq	r2, r0, sl, lsl #24
    224c:	00913400 	addseq	r3, r1, r0, lsl #8
    2250:	00001c00 	andeq	r1, r0, r0, lsl #24
    2254:	0a9c0100 	beq	fe70265c <__bss_end__+0xfe6f7f1c>
    2258:	0d000002 	stceq	0, cr0, [r0, #-8]
    225c:	0d010075 	stceq	0, cr0, [r1, #-468]	; 0xfffffe2c
    2260:	00002c0e 	andeq	r2, r0, lr, lsl #24
    2264:	0010b600 	andseq	fp, r0, r0, lsl #12
    2268:	0010b200 	andseq	fp, r0, r0, lsl #4
    226c:	913c0f00 	teqls	ip, r0, lsl #30
    2270:	02380000 	eorseq	r0, r8, #0, 0
    2274:	400f0000 	andmi	r0, pc, r0
    2278:	0a000091 	beq	24c4 <__code_start__-0x5b3c>
    227c:	0f000002 	svceq	0x00000002
    2280:	00009148 	andeq	r9, r0, r8, asr #2
    2284:	00000238 	andeq	r0, r0, r8, lsr r2
    2288:	05ac1000 	streq	r1, [ip, #0]!
    228c:	04010000 	streq	r0, [r1], #-0
    2290:	00002c0a 	andeq	r2, r0, sl, lsl #24
    2294:	00912000 	addseq	r2, r1, r0
    2298:	00001400 	andeq	r1, r0, r0, lsl #8
    229c:	389c0100 	ldmcc	ip, {r8}
    22a0:	0b000002 	bleq	22b0 <__code_start__-0x5d50>
    22a4:	0000912c 	andeq	r9, r0, ip, lsr #2
    22a8:	00000244 	andeq	r0, r0, r4, asr #4
    22ac:	0550010c 	ldrbeq	r0, [r0, #-268]	; 0xfffffef4
    22b0:	0030040c 	eorseq	r0, r0, ip, lsl #8
    22b4:	11000020 	tstne	r0, r0, lsr #32
    22b8:	00000573 	andeq	r0, r0, r3, ror r5
    22bc:	00000573 	andeq	r0, r0, r3, ror r5
    22c0:	11069c02 	tstne	r6, r2, lsl #24
    22c4:	0000059d 	muleq	r0, sp, r5
    22c8:	0000059d 	muleq	r0, sp, r5
    22cc:	000ac202 	andeq	ip, sl, r2, lsl #4
    22d0:	000003a5 	andeq	r0, r0, r5, lsr #7
    22d4:	0a910004 	beq	fe4422ec <__bss_end__+0xfe437bac>
    22d8:	01040000 	mrseq	r0, (UNDEF: 4)
    22dc:	000006b6 			; <UNDEFINED> instruction: 0x000006b6
    22e0:	0007670c 	andeq	r6, r7, ip, lsl #14
    22e4:	00065300 	andeq	r5, r6, r0, lsl #6
    22e8:	0091a400 	addseq	sl, r1, r0, lsl #8
    22ec:	00011c00 	andeq	r1, r1, r0, lsl #24
    22f0:	0011de00 	andseq	sp, r1, r0, lsl #28
    22f4:	05040200 	streq	r0, [r4, #-512]	; 0xfffffe00
    22f8:	00746e69 	rsbseq	r6, r4, r9, ror #28
    22fc:	01070403 	tsteq	r7, r3, lsl #8
    2300:	04000001 	streq	r0, [r0], #-1
    2304:	0000002c 	andeq	r0, r0, ip, lsr #32
    2308:	da060103 	ble	18271c <__bss_end__+0x177fdc>
    230c:	03000000 	movweq	r0, #0
    2310:	000b0502 	andeq	r0, fp, r2, lsl #10
    2314:	04030000 	streq	r0, [r3], #-0
    2318:	00008005 	andeq	r8, r0, r5
    231c:	05080300 	streq	r0, [r8, #-768]	; 0xfffffd00
    2320:	0000007b 	andeq	r0, r0, fp, ror r0
    2324:	d8080103 	stmdale	r8, {r0, r1, r8}
    2328:	03000000 	movweq	r0, #0
    232c:	01160702 	tsteq	r6, r2, lsl #14
    2330:	c6050000 	strgt	r0, [r5], -r0
    2334:	03000003 	movweq	r0, #3
    2338:	006e1934 	rsbeq	r1, lr, r4, lsr r9
    233c:	04030000 	streq	r0, [r3], #-0
    2340:	0000fc07 	andeq	pc, r0, r7, lsl #24
    2344:	07080300 	streq	r0, [r8, -r0, lsl #6]
    2348:	000000f7 	strdeq	r0, [r0], -r7
    234c:	e1080103 	tst	r8, r3, lsl #2
    2350:	06000000 	streq	r0, [r0], -r0
    2354:	00540107 	subseq	r0, r4, r7, lsl #2
    2358:	0c040000 	stceq	0, cr0, [r4], {-0}
    235c:	0000c20e 	andeq	ip, r0, lr, lsl #4
    2360:	076e0700 	strbeq	r0, [lr, -r0, lsl #14]!
    2364:	07000000 	streq	r0, [r0, -r0]
    2368:	000005de 	ldrdeq	r0, [r0], -lr
    236c:	05f90701 	ldrbeq	r0, [r9, #1793]!	; 0x701
    2370:	07040000 	streq	r0, [r4, -r0]
    2374:	00000608 	andeq	r0, r0, r8, lsl #12
    2378:	06170705 	ldreq	r0, [r7], -r5, lsl #14
    237c:	07060000 	streq	r0, [r6, -r0]
    2380:	00000626 	andeq	r0, r0, r6, lsr #12
    2384:	07530707 	ldrbeq	r0, [r3, -r7, lsl #14]
    2388:	07030000 	streq	r0, [r3, -r0]
    238c:	00000635 	andeq	r0, r0, r5, lsr r6
    2390:	aa050002 	bge	1423a0 <__bss_end__+0x137c60>
    2394:	04000006 	streq	r0, [r0], #-6
    2398:	00830315 	addeq	r0, r3, r5, lsl r3
    239c:	c9080000 	stmdbgt	r8, {}	; <UNPREDICTABLE>
    23a0:	01000005 	tsteq	r0, r5
    23a4:	0033171d 	eorseq	r1, r3, sp, lsl r7
    23a8:	001c0000 	andseq	r0, ip, r0
    23ac:	bf082020 	svclt	0x00082020
    23b0:	01000005 	tsteq	r0, r5
    23b4:	0033171e 	eorseq	r1, r3, lr, lsl r7
    23b8:	00280000 	eoreq	r0, r8, r0
    23bc:	49082020 	stmdbmi	r8, {r5, sp}
    23c0:	01000007 	tsteq	r0, r7
    23c4:	0033171f 	eorseq	r1, r3, pc, lsl r7
    23c8:	00340000 	eorseq	r0, r4, r0
    23cc:	e6092020 	str	r2, [r9], -r0, lsr #32
    23d0:	01000000 	mrseq	r0, (UNDEF: 0)
    23d4:	00250555 	eoreq	r0, r5, r5, asr r5
    23d8:	928c0000 	addls	r0, ip, #0, 0
    23dc:	00340000 	eorseq	r0, r4, r0
    23e0:	9c010000 	stcls	0, cr0, [r1], {-0}
    23e4:	0000016e 	andeq	r0, r0, lr, ror #2
    23e8:	6e69700a 	cdpvs	0, 6, cr7, cr9, cr10, {0}
    23ec:	18550100 	ldmdane	r5, {r8}^
    23f0:	0000002c 	andeq	r0, r0, ip, lsr #32
    23f4:	000010dc 	ldrdeq	r1, [r0], -ip
    23f8:	000010d4 	ldrdeq	r1, [r0], -r4
    23fc:	0007620b 	andeq	r6, r7, fp, lsl #4
    2400:	0e580100 	rdfeqe	f0, f0, f0
    2404:	0000002c 	andeq	r0, r0, ip, lsr #32
    2408:	0000111c 	andeq	r1, r0, ip, lsl r1
    240c:	00001116 	andeq	r1, r0, r6, lsl r1
    2410:	66666f0c 	strbtvs	r6, [r6], -ip, lsl #30
    2414:	0e590100 	rdfeqe	f0, f1, f0
    2418:	0000002c 	andeq	r0, r0, ip, lsr #32
    241c:	0000115c 	andeq	r1, r0, ip, asr r1
    2420:	0000115a 	andeq	r1, r0, sl, asr r1
    2424:	0092a80d 	addseq	sl, r2, sp, lsl #16
    2428:	00039000 	andeq	r9, r3, r0
    242c:	50010e00 	andpl	r0, r1, r0, lsl #28
    2430:	5001f30b 	andpl	pc, r1, fp, lsl #6
    2434:	b4232535 	strtlt	r2, [r3], #-1333	; 0xfffffacb
    2438:	02818080 	addeq	r8, r1, #128, 0	; 0x80
    243c:	d30f0000 	movwle	r0, #61440	; 0xf000
    2440:	01000005 	tsteq	r0, r5
    2444:	9270064e 	rsbsls	r0, r0, #81788928	; 0x4e00000
    2448:	001c0000 	andseq	r0, ip, r0
    244c:	9c010000 	stcls	0, cr0, [r1], {-0}
    2450:	000001c9 	andeq	r0, r0, r9, asr #3
    2454:	6e69700a 	cdpvs	0, 6, cr7, cr9, cr10, {0}
    2458:	1a4e0100 	bne	1382860 <__bss_end__+0x1378120>
    245c:	0000002c 	andeq	r0, r0, ip, lsr #32
    2460:	00001177 	andeq	r1, r0, r7, ror r1
    2464:	0000116f 	andeq	r1, r0, pc, ror #2
    2468:	0100760a 	tsteq	r0, sl, lsl #12
    246c:	002c284e 	eoreq	r2, ip, lr, asr #16
    2470:	11b90000 			; <UNDEFINED> instruction: 0x11b90000
    2474:	11b10000 			; <UNDEFINED> instruction: 0x11b10000
    2478:	80100000 	andshi	r0, r0, r0
    247c:	51000092 	swppl	r0, r2, [r0]	; <UNPREDICTABLE>
    2480:	bf000002 	svclt	0x00000002
    2484:	0e000001 	cdpeq	0, 0, cr0, cr0, cr1, {0}
    2488:	f3035001 	vhadd.u8	d5, d3, d1
    248c:	11005001 	tstne	r0, r1
    2490:	00009288 	andeq	r9, r0, r8, lsl #5
    2494:	0000020a 	andeq	r0, r0, sl, lsl #4
    2498:	06440f00 	strbeq	r0, [r4], -r0, lsl #30
    249c:	49010000 	stmdbmi	r1, {}	; <UNPREDICTABLE>
    24a0:	00926006 	addseq	r6, r2, r6
    24a4:	00001000 	andeq	r1, r0, r0
    24a8:	0a9c0100 	beq	fe7028b0 <__bss_end__+0xfe6f8170>
    24ac:	0a000002 	beq	24bc <__code_start__-0x5b44>
    24b0:	006e6970 	rsbeq	r6, lr, r0, ror r9
    24b4:	2c1e4901 			; <UNDEFINED> instruction: 0x2c1e4901
    24b8:	f7000000 			; <UNDEFINED> instruction: 0xf7000000
    24bc:	f3000011 	vqadd.u8	d0, d0, d1
    24c0:	0d000011 	stceq	0, cr0, [r0, #-68]	; 0xffffffbc
    24c4:	0000926c 	andeq	r9, r0, ip, ror #4
    24c8:	000002d9 	ldrdeq	r0, [r0], -r9
    24cc:	0350010e 	cmpeq	r0, #-2147483645	; 0x80000003
    24d0:	0e5001f3 	mrceq	1, 2, r0, cr0, cr3, {7}
    24d4:	30015101 	andcc	r5, r1, r1, lsl #2
    24d8:	880f0000 	stmdahi	pc, {}	; <UNPREDICTABLE>
    24dc:	01000006 	tsteq	r0, r6
    24e0:	923c0642 	eorsls	r0, ip, #69206016	; 0x4200000
    24e4:	00240000 	eoreq	r0, r4, r0
    24e8:	9c010000 	stcls	0, cr0, [r1], {-0}
    24ec:	00000251 	andeq	r0, r0, r1, asr r2
    24f0:	6e69700a 	cdpvs	0, 6, cr7, cr9, cr10, {0}
    24f4:	1c420100 	stfnee	f0, [r2], {-0}
    24f8:	0000002c 	andeq	r0, r0, ip, lsr #32
    24fc:	0000121c 	andeq	r1, r0, ip, lsl r2
    2500:	00001218 	andeq	r1, r0, r8, lsl r2
    2504:	0092580d 	addseq	r5, r2, sp, lsl #16
    2508:	00039c00 	andeq	r9, r3, r0, lsl #24
    250c:	50010e00 	andpl	r0, r1, r0, lsl #28
    2510:	00280c05 	eoreq	r0, r8, r5, lsl #24
    2514:	010e2020 	tsteq	lr, r0, lsr #32
    2518:	f3310551 	vqrshl.u64	q0, <illegal reg q0.5>, <illegal reg q0.5>
    251c:	00245001 	eoreq	r5, r4, r1
    2520:	07900f00 	ldreq	r0, [r0, r0, lsl #30]
    2524:	3b010000 	blcc	4252c <__bss_end__+0x37dec>
    2528:	00921806 	addseq	r1, r2, r6, lsl #16
    252c:	00002400 	andeq	r2, r0, r0, lsl #8
    2530:	989c0100 	ldmls	ip, {r8}
    2534:	0a000002 	beq	2544 <__code_start__-0x5abc>
    2538:	006e6970 	rsbeq	r6, lr, r0, ror r9
    253c:	2c1b3b01 			; <UNDEFINED> instruction: 0x2c1b3b01
    2540:	41000000 	mrsmi	r0, (UNDEF: 0)
    2544:	3d000012 	stccc	0, cr0, [r0, #-72]	; 0xffffffb8
    2548:	0d000012 	stceq	0, cr0, [r0, #-72]	; 0xffffffb8
    254c:	00009234 	andeq	r9, r0, r4, lsr r2
    2550:	0000039c 	muleq	r0, ip, r3
    2554:	0550010e 	ldrbeq	r0, [r0, #-270]	; 0xfffffef2
    2558:	20001c0c 	andcs	r1, r0, ip, lsl #24
    255c:	51010e20 	tstpl	r1, r0, lsr #28
    2560:	01f33105 	mvnseq	r3, r5, lsl #2
    2564:	00002450 	andeq	r2, r0, r0, asr r4
    2568:	0006950f 	andeq	r9, r6, pc, lsl #10
    256c:	06360100 	ldrteq	r0, [r6], -r0, lsl #2
    2570:	00009208 	andeq	r9, r0, r8, lsl #4
    2574:	00000010 	andeq	r0, r0, r0, lsl r0
    2578:	02d99c01 	sbcseq	r9, r9, #256	; 0x100
    257c:	700a0000 	andvc	r0, sl, r0
    2580:	01006e69 	tsteq	r0, r9, ror #28
    2584:	002c1f36 	eoreq	r1, ip, r6, lsr pc
    2588:	12660000 	rsbne	r0, r6, #0, 0
    258c:	12620000 	rsbne	r0, r2, #0, 0
    2590:	140d0000 	strne	r0, [sp], #-0
    2594:	d9000092 	stmdble	r0, {r1, r4, r7}
    2598:	0e000002 	cdpeq	0, 0, cr0, cr0, cr2, {0}
    259c:	f3035001 	vhadd.u8	d5, d3, d1
    25a0:	010e5001 	tsteq	lr, r1
    25a4:	00310151 	eorseq	r0, r1, r1, asr r1
    25a8:	077e0f00 	ldrbeq	r0, [lr, -r0, lsl #30]!
    25ac:	28010000 	stmdacs	r1, {}	; <UNPREDICTABLE>
    25b0:	0091a406 	addseq	sl, r1, r6, lsl #8
    25b4:	00006400 	andeq	r6, r0, r0, lsl #8
    25b8:	749c0100 	ldrvc	r0, [ip], #256	; 0x100
    25bc:	0a000003 	beq	25d0 <__code_start__-0x5a30>
    25c0:	006e6970 	rsbeq	r6, lr, r0, ror r9
    25c4:	2c212801 	stccs	8, cr2, [r1], #-4
    25c8:	8b000000 	blhi	25d0 <__code_start__-0x5a30>
    25cc:	87000012 	smladhi	r0, r2, r0, r0
    25d0:	12000012 	andne	r0, r0, #18, 0
    25d4:	000006a5 	andeq	r0, r0, r5, lsr #13
    25d8:	c2322801 	eorsgt	r2, r2, #65536	; 0x10000
    25dc:	b0000000 	andlt	r0, r0, r0
    25e0:	ac000012 	stcge	0, cr0, [r0], {18}
    25e4:	0c000012 	stceq	0, cr0, [r0], {18}
    25e8:	0066666f 	rsbeq	r6, r6, pc, ror #12
    25ec:	2c0e2d01 	stccs	13, cr2, [lr], {1}
    25f0:	d3000000 	movwle	r0, #0
    25f4:	d1000012 	tstle	r0, r2, lsl r0
    25f8:	0c000012 	stceq	0, cr0, [r0], {18}
    25fc:	2e010067 	cdpcs	0, 0, cr0, cr1, cr7, {3}
    2600:	00002c0e 	andeq	r2, r0, lr, lsl #24
    2604:	0012e800 	andseq	lr, r2, r0, lsl #16
    2608:	0012e600 	andseq	lr, r2, r0, lsl #12
    260c:	00760c00 	rsbseq	r0, r6, r0, lsl #24
    2610:	2c0e3001 	stccs	0, cr3, [lr], {1}
    2614:	03000000 	movweq	r0, #0
    2618:	fb000013 	blx	266e <__code_start__-0x5992>
    261c:	10000012 	andne	r0, r0, r2, lsl r0
    2620:	000091ec 	andeq	r9, r0, ip, ror #3
    2624:	00000390 	muleq	r0, r0, r3
    2628:	00000363 	andeq	r0, r0, r3, ror #6
    262c:	0250010e 	subseq	r0, r0, #-2147483645	; 0x80000003
    2630:	0d000076 	stceq	0, cr0, [r0, #-472]	; 0xfffffe28
    2634:	00009200 	andeq	r9, r0, r0, lsl #4
    2638:	0000039c 	muleq	r0, ip, r3
    263c:	0250010e 	subseq	r0, r0, #-2147483645	; 0x80000003
    2640:	00000076 	andeq	r0, r0, r6, ror r0
    2644:	0005ef13 	andeq	lr, r5, r3, lsl pc
    2648:	18b10200 	ldmne	r1!, {r9}
    264c:	00000062 	andeq	r0, r0, r2, rrx
    2650:	00039003 	andeq	r9, r3, r3
    2654:	00781400 	rsbseq	r1, r8, r0, lsl #8
    2658:	622bb102 	eorvs	fp, fp, #-2147483648	; 0x80000000
    265c:	00000000 	andeq	r0, r0, r0
    2660:	00059d15 	andeq	r9, r5, r5, lsl sp
    2664:	00059d00 	andeq	r9, r5, r0, lsl #26
    2668:	0ac20200 	beq	ff082e70 <__bss_end__+0xff078730>
    266c:	00050915 	andeq	r0, r5, r5, lsl r9
    2670:	00050900 	andeq	r0, r5, r0, lsl #18
    2674:	06ad0200 	strteq	r0, [sp], r0, lsl #4
    2678:	0005cd00 	andeq	ip, r5, r0, lsl #26
    267c:	ee000400 	cfcpys	mvf0, mvf0
    2680:	0400000b 	streq	r0, [r0], #-11
    2684:	0006b601 	andeq	fp, r6, r1, lsl #12
    2688:	07ca0c00 	strbeq	r0, [sl, r0, lsl #24]
    268c:	06530000 	ldrbeq	r0, [r3], -r0
    2690:	92c00000 	sbcls	r0, r0, #0, 0
    2694:	01f00000 	mvnseq	r0, r0
    2698:	139c0000 	orrsne	r0, ip, #0, 0
    269c:	04020000 	streq	r0, [r2], #-0
    26a0:	746e6905 	strbtvc	r6, [lr], #-2309	; 0xfffff6fb
    26a4:	07040300 	streq	r0, [r4, -r0, lsl #6]
    26a8:	00000101 	andeq	r0, r0, r1, lsl #2
    26ac:	00002c04 	andeq	r2, r0, r4, lsl #24
    26b0:	06010300 	streq	r0, [r1], -r0, lsl #6
    26b4:	000000da 	ldrdeq	r0, [r0], -sl
    26b8:	0b050203 	bleq	142ecc <__bss_end__+0x13878c>
    26bc:	03000000 	movweq	r0, #0
    26c0:	00800504 	addeq	r0, r0, r4, lsl #10
    26c4:	08030000 	stmdaeq	r3, {}	; <UNPREDICTABLE>
    26c8:	00007b05 	andeq	r7, r0, r5, lsl #22
    26cc:	08010300 	stmdaeq	r1, {r8, r9}
    26d0:	000000d8 	ldrdeq	r0, [r0], -r8
    26d4:	16070203 	strne	r0, [r7], -r3, lsl #4
    26d8:	05000001 	streq	r0, [r0, #-1]
    26dc:	000003c6 	andeq	r0, r0, r6, asr #7
    26e0:	6e193405 	cfmulsvs	mvf3, mvf9, mvf5
    26e4:	03000000 	movweq	r0, #0
    26e8:	00fc0704 	rscseq	r0, ip, r4, lsl #14
    26ec:	08030000 	stmdaeq	r3, {}	; <UNPREDICTABLE>
    26f0:	0000f707 	andeq	pc, r0, r7, lsl #14
    26f4:	08010300 	stmdaeq	r1, {r8, r9}
    26f8:	000000e1 	andeq	r0, r0, r1, ror #1
    26fc:	54010706 	strpl	r0, [r1], #-1798	; 0xfffff8fa
    2700:	04000000 	streq	r0, [r0], #-0
    2704:	00c20e0c 	sbceq	r0, r2, ip, lsl #28
    2708:	6e070000 	cdpvs	0, 0, cr0, cr7, cr0, {0}
    270c:	00000007 	andeq	r0, r0, r7
    2710:	0005de07 	andeq	sp, r5, r7, lsl #28
    2714:	f9070100 			; <UNDEFINED> instruction: 0xf9070100
    2718:	04000005 	streq	r0, [r0], #-5
    271c:	00060807 	andeq	r0, r6, r7, lsl #16
    2720:	17070500 	strne	r0, [r7, -r0, lsl #10]
    2724:	06000006 	streq	r0, [r0], -r6
    2728:	00062607 	andeq	r2, r6, r7, lsl #12
    272c:	53070700 	movwpl	r0, #30464	; 0x7700
    2730:	03000007 	movweq	r0, #7
    2734:	00063507 	andeq	r3, r6, r7, lsl #10
    2738:	08000200 	stmdaeq	r0, {r9}
    273c:	000007be 			; <UNDEFINED> instruction: 0x000007be
    2740:	0806022c 	stmdaeq	r6, {r2, r3, r5, r9}
    2744:	0000015e 	andeq	r0, r0, lr, asr r1
    2748:	006f6909 	rsbeq	r6, pc, r9, lsl #18
    274c:	33090902 	movwcc	r0, #39170	; 0x9902
    2750:	00000000 	andeq	r0, r0, r0
    2754:	72656909 	rsbvc	r6, r5, #147456	; 0x24000
    2758:	090a0200 	stmdbeq	sl, {r9}
    275c:	00000033 	andeq	r0, r0, r3, lsr r0
    2760:	69690904 	stmdbvs	r9!, {r2, r8, fp}^
    2764:	11020072 	tstne	r2, r2, ror r0
    2768:	00003309 	andeq	r3, r0, r9, lsl #6
    276c:	6c090800 	stcvs	8, cr0, [r9], {-0}
    2770:	02007263 	andeq	r7, r0, #805306374	; 0x30000006
    2774:	00330913 	eorseq	r0, r3, r3, lsl r9
    2778:	090c0000 	stmdbeq	ip, {}	; <UNPREDICTABLE>
    277c:	0072636d 	rsbseq	r6, r2, sp, ror #6
    2780:	33091402 	movwcc	r1, #37890	; 0x9402
    2784:	10000000 	andne	r0, r0, r0
    2788:	72736c09 	rsbsvc	r6, r3, #2304	; 0x900
    278c:	09150200 	ldmdbeq	r5, {r9}
    2790:	00000033 	andeq	r0, r0, r3, lsr r0
    2794:	736d0914 	cmnvc	sp, #20, 18	; 0x50000
    2798:	16020072 			; <UNDEFINED> instruction: 0x16020072
    279c:	00003309 	andeq	r3, r0, r9, lsl #6
    27a0:	380a1800 	stmdacc	sl, {fp, ip}
    27a4:	02000008 	andeq	r0, r0, #8, 0
    27a8:	00330917 	eorseq	r0, r3, r7, lsl r9
    27ac:	0a1c0000 	beq	7027b4 <__bss_end__+0x6f8074>
    27b0:	00000810 	andeq	r0, r0, r0, lsl r8
    27b4:	33091b02 	movwcc	r1, #39682	; 0x9b02
    27b8:	20000000 	andcs	r0, r0, r0
    27bc:	0007ab0a 	andeq	sl, r7, sl, lsl #22
    27c0:	091d0200 	ldmdbeq	sp, {r9}
    27c4:	00000033 	andeq	r0, r0, r3, lsr r0
    27c8:	07f50a24 	ldrbeq	r0, [r5, r4, lsr #20]!
    27cc:	1e020000 	cdpne	0, 0, cr0, cr2, cr0, {0}
    27d0:	00003309 	andeq	r3, r0, r9, lsl #6
    27d4:	0b002800 	bleq	c7dc <__bss_end__+0x209c>
    27d8:	000007fa 	strdeq	r0, [r0], -sl
    27dc:	74090801 	strvc	r0, [r9], #-2049	; 0xfffff7ff
    27e0:	04000001 	streq	r0, [r0], #-1
    27e4:	0c202150 	stfeqs	f2, [r0], #-320	; 0xfffffec0
    27e8:	00003304 	andeq	r3, r0, r4, lsl #6
    27ec:	016e0d00 	cmneq	lr, r0, lsl #26
    27f0:	400b0000 	andmi	r0, fp, r0
    27f4:	01000008 	tsteq	r0, r8
    27f8:	018f2329 	orreq	r2, pc, r9, lsr #6
    27fc:	50400000 	subpl	r0, r0, r0
    2800:	040c2021 	streq	r2, [ip], #-33	; 0xffffffdf
    2804:	000000c2 	andeq	r0, r0, r2, asr #1
    2808:	0001890d 	andeq	r8, r1, sp, lsl #18
    280c:	048b0e00 	streq	r0, [fp], #3584	; 0xe00
    2810:	cc010000 	stcgt	0, cr0, [r1], {-0}
    2814:	00947806 	addseq	r7, r4, r6, lsl #16
    2818:	00001400 	andeq	r1, r0, r0, lsl #8
    281c:	b49c0100 	ldrlt	r0, [ip], #256	; 0x100
    2820:	0f000001 	svceq	0x00000001
    2824:	00009480 	andeq	r9, r0, r0, lsl #9
    2828:	000001b4 			; <UNDEFINED> instruction: 0x000001b4
    282c:	07e41000 	strbeq	r1, [r4, r0]!
    2830:	b6010000 	strlt	r0, [r1], -r0
    2834:	00002505 	andeq	r2, r0, r5, lsl #10
    2838:	00945800 	addseq	r5, r4, r0, lsl #16
    283c:	00002000 	andeq	r2, r0, r0
    2840:	eb9c0100 	bl	fe702c48 <__bss_end__+0xfe6f8508>
    2844:	0f000001 	svceq	0x00000001
    2848:	00009460 	andeq	r9, r0, r0, ror #8
    284c:	000005a0 	andeq	r0, r0, r0, lsr #11
    2850:	00946811 	addseq	r6, r4, r1, lsl r8
    2854:	0005ac00 	andeq	sl, r5, r0, lsl #24
    2858:	50011200 	andpl	r1, r1, r0, lsl #4
    285c:	50640c05 	rsbpl	r0, r4, r5, lsl #24
    2860:	00002021 	andeq	r2, r0, r1, lsr #32
    2864:	00082210 	andeq	r2, r8, r0, lsl r2
    2868:	05b30100 	ldreq	r0, [r3, #256]!	; 0x100
    286c:	00000025 	andeq	r0, r0, r5, lsr #32
    2870:	00009448 	andeq	r9, r0, r8, asr #8
    2874:	00000010 	andeq	r0, r0, r0, lsl r0
    2878:	02189c01 	andseq	r9, r8, #256	; 0x100
    287c:	500f0000 	andpl	r0, pc, r0
    2880:	a0000094 	mulge	r0, r4, r0
    2884:	0f000005 	svceq	0x00000005
    2888:	00009454 	andeq	r9, r0, r4, asr r4
    288c:	00000309 	andeq	r0, r0, r9, lsl #6
    2890:	084e0e00 	stmdaeq	lr, {r9, sl, fp}^
    2894:	ab010000 	blge	4289c <__bss_end__+0x3815c>
    2898:	00941806 	addseq	r1, r4, r6, lsl #16
    289c:	00003000 	andeq	r3, r0, r0
    28a0:	7c9c0100 	ldfvcs	f0, [ip], {0}
    28a4:	13000002 	movwne	r0, #2
    28a8:	ab010063 	blge	42a3c <__bss_end__+0x382fc>
    28ac:	00002c19 	andeq	r2, r0, r9, lsl ip
    28b0:	00134300 	andseq	r4, r3, r0, lsl #6
    28b4:	00133f00 	andseq	r3, r3, r0, lsl #30
    28b8:	94240f00 	strtls	r0, [r4], #-3840	; 0xfffff100
    28bc:	05a00000 	streq	r0, [r0, #0]!
    28c0:	280f0000 	stmdacs	pc, {}	; <UNPREDICTABLE>
    28c4:	db000094 	blle	2b1c <__code_start__-0x54e4>
    28c8:	14000002 	strne	r0, [r0], #-2
    28cc:	0000943c 	andeq	r9, r0, ip, lsr r4
    28d0:	000005b8 			; <UNDEFINED> instruction: 0x000005b8
    28d4:	00000272 	andeq	r0, r0, r2, ror r2
    28d8:	05500112 	ldrbeq	r0, [r0, #-274]	; 0xfffffeee
    28dc:	2150400c 	cmpcs	r0, ip
    28e0:	51011220 	tstpl	r1, r0, lsr #4
    28e4:	08007405 	stmdaeq	r0, {r0, r2, sl, ip, sp, lr}
    28e8:	0f001aff 	svceq	0x00001aff
    28ec:	00009440 	andeq	r9, r0, r0, asr #8
    28f0:	000005a0 	andeq	r0, r0, r0, lsr #11
    28f4:	08061000 	stmdaeq	r6, {ip}
    28f8:	a3010000 	movwge	r0, #4096	; 0x1000
    28fc:	00002505 	andeq	r2, r0, r5, lsl #10
    2900:	0093e800 	addseq	lr, r3, r0, lsl #16
    2904:	00003000 	andeq	r3, r0, r0
    2908:	db9c0100 	blle	fe702d10 <__bss_end__+0xfe6f85d0>
    290c:	15000002 	strne	r0, [r0, #-2]
    2910:	a7010063 	strge	r0, [r1, -r3, rrx]
    2914:	00002509 	andeq	r2, r0, r9, lsl #10
    2918:	00136300 	andseq	r6, r3, r0, lsl #6
    291c:	00136100 	andseq	r6, r3, r0, lsl #2
    2920:	93f00f00 	mvnsls	r0, #0, 30
    2924:	05a00000 	streq	r0, [r0, #0]!
    2928:	f40f0000 	vst4.8	{d0-d3}, [pc], r0
    292c:	09000093 	stmdbeq	r0, {r0, r1, r4, r7}
    2930:	14000003 	strne	r0, [r0], #-3
    2934:	00009404 	andeq	r9, r0, r4, lsl #8
    2938:	000005ac 	andeq	r0, r0, ip, lsr #11
    293c:	000002d1 	ldrdeq	r0, [r0], -r1
    2940:	05500112 	ldrbeq	r0, [r0, #-274]	; 0xfffffeee
    2944:	2150400c 	cmpcs	r0, ip
    2948:	0c0f0020 	stceq	0, cr0, [pc], {32}
    294c:	a0000094 	mulge	r0, r4, r0
    2950:	00000005 	andeq	r0, r0, r5
    2954:	0007d110 	andeq	sp, r7, r0, lsl r1
    2958:	05940100 	ldreq	r0, [r4, #256]	; 0x100
    295c:	00000025 	andeq	r0, r0, r5, lsr #32
    2960:	000093c8 	andeq	r9, r0, r8, asr #7
    2964:	00000020 	andeq	r0, r0, r0, lsr #32
    2968:	03099c01 	movweq	r9, #39937	; 0x9c01
    296c:	d4110000 	ldrle	r0, [r1], #-0
    2970:	ac000093 	stcge	0, cr0, [r0], {147}	; 0x93
    2974:	12000005 	andne	r0, r0, #5, 0
    2978:	0c055001 	stceq	0, cr5, [r5], {1}
    297c:	20215064 	eorcs	r5, r1, r4, rrx
    2980:	b0100000 	andslt	r0, r0, r0
    2984:	01000007 	tsteq	r0, r7
    2988:	0025058b 	eoreq	r0, r5, fp, lsl #11
    298c:	93b00000 	movsls	r0, #0, 0
    2990:	00180000 	andseq	r0, r8, r0
    2994:	9c010000 	stcls	0, cr0, [r1], {-0}
    2998:	00000337 	andeq	r0, r0, r7, lsr r3
    299c:	0093bc11 	addseq	fp, r3, r1, lsl ip
    29a0:	0005ac00 	andeq	sl, r5, r0, lsl #24
    29a4:	50011200 	andpl	r1, r1, r0, lsl #4
    29a8:	50640c05 	rsbpl	r0, r4, r5, lsl #24
    29ac:	00002021 	andeq	r2, r0, r1, lsr #32
    29b0:	0004a90e 	andeq	sl, r4, lr, lsl #18
    29b4:	06450100 	strbeq	r0, [r5], -r0, lsl #2
    29b8:	00009300 	andeq	r9, r0, r0, lsl #6
    29bc:	000000b0 	strheq	r0, [r0], -r0	; <UNPREDICTABLE>
    29c0:	04849c01 	streq	r9, [r4], #3073	; 0xc01
    29c4:	a2160000 	andsge	r0, r6, #0, 0
    29c8:	01000007 	tsteq	r0, r7
    29cc:	00620e7e 	rsbeq	r0, r2, lr, ror lr
    29d0:	010e0000 	mrseq	r0, (UNDEF: 14)
    29d4:	00931014 	addseq	r1, r3, r4, lsl r0
    29d8:	0005c400 	andeq	ip, r5, r0, lsl #8
    29dc:	00037300 	andeq	r7, r3, r0, lsl #6
    29e0:	50011200 	andpl	r1, r1, r0, lsl #4
    29e4:	01123e01 	tsteq	r2, r1, lsl #28
    29e8:	00320151 	eorseq	r0, r2, r1, asr r1
    29ec:	00931c14 	addseq	r1, r3, r4, lsl ip
    29f0:	0005c400 	andeq	ip, r5, r0, lsl #8
    29f4:	00038b00 	andeq	r8, r3, r0, lsl #22
    29f8:	50011200 	andpl	r1, r1, r0, lsl #4
    29fc:	01123f01 	tsteq	r2, r1, lsl #30
    2a00:	00320151 	eorseq	r0, r2, r1, asr r1
    2a04:	0093200f 	addseq	r2, r3, pc
    2a08:	0005a000 	andeq	sl, r5, r0
    2a0c:	932c1400 			; <UNDEFINED> instruction: 0x932c1400
    2a10:	053d0000 	ldreq	r0, [sp, #-0]!
    2a14:	03b00000 	movseq	r0, #0, 0
    2a18:	01120000 	tsteq	r2, r0
    2a1c:	040c0550 	streq	r0, [ip], #-1360	; 0xfffffab0
    2a20:	12202150 	eorne	r2, r0, #20
    2a24:	31015101 	tstcc	r1, r1, lsl #2
    2a28:	93300f00 	teqls	r0, #0, 30
    2a2c:	05a00000 	streq	r0, [r0, #0]!
    2a30:	40140000 	andsmi	r0, r4, r0
    2a34:	b8000093 	stmdalt	r0, {r0, r1, r4, r7}
    2a38:	d2000005 	andle	r0, r0, #5, 0
    2a3c:	12000003 	andne	r0, r0, #3, 0
    2a40:	74025001 	strvc	r5, [r2], #-1
    2a44:	51011200 	mrspl	r1, R9_usr
    2a48:	14003001 	strne	r3, [r0], #-1
    2a4c:	0000934c 	andeq	r9, r0, ip, asr #6
    2a50:	000005b8 			; <UNDEFINED> instruction: 0x000005b8
    2a54:	000003ee 	andeq	r0, r0, lr, ror #7
    2a58:	05500112 	ldrbeq	r0, [r0, #-274]	; 0xfffffeee
    2a5c:	2150440c 	cmpcs	r0, ip, lsl #8
    2a60:	51011220 	tstpl	r1, r0, lsr #4
    2a64:	14003001 	strne	r3, [r0], #-1
    2a68:	00009358 	andeq	r9, r0, r8, asr r3
    2a6c:	000005b8 			; <UNDEFINED> instruction: 0x000005b8
    2a70:	0000040a 	andeq	r0, r0, sl, lsl #8
    2a74:	05500112 	ldrbeq	r0, [r0, #-274]	; 0xfffffeee
    2a78:	21504c0c 	cmpcs	r0, ip, lsl #24
    2a7c:	51011220 	tstpl	r1, r0, lsr #4
    2a80:	14003301 	strne	r3, [r0], #-769	; 0xfffffcff
    2a84:	00009364 	andeq	r9, r0, r4, ror #6
    2a88:	000005b8 			; <UNDEFINED> instruction: 0x000005b8
    2a8c:	00000426 	andeq	r0, r0, r6, lsr #8
    2a90:	05500112 	ldrbeq	r0, [r0, #-274]	; 0xfffffeee
    2a94:	2150500c 	cmpcs	r0, ip
    2a98:	51011220 	tstpl	r1, r0, lsr #4
    2a9c:	14003001 	strne	r3, [r0], #-1
    2aa0:	00009370 	andeq	r9, r0, r0, ror r3
    2aa4:	000005b8 			; <UNDEFINED> instruction: 0x000005b8
    2aa8:	00000443 	andeq	r0, r0, r3, asr #8
    2aac:	05500112 	ldrbeq	r0, [r0, #-274]	; 0xfffffeee
    2ab0:	2150480c 	cmpcs	r0, ip, lsl #16
    2ab4:	51011220 	tstpl	r1, r0, lsr #4
    2ab8:	00c70802 	sbceq	r0, r7, r2, lsl #16
    2abc:	00937c14 	addseq	r7, r3, r4, lsl ip
    2ac0:	0005b800 	andeq	fp, r5, r0, lsl #16
    2ac4:	00046100 	andeq	r6, r4, r0, lsl #2
    2ac8:	50011200 	andpl	r1, r1, r0, lsl #4
    2acc:	50680c05 	rsbpl	r0, r8, r5, lsl #24
    2ad0:	01122021 	tsteq	r2, r1, lsr #32
    2ad4:	0e0a0351 	mcreq	3, 0, r0, cr10, cr1, {2}
    2ad8:	88140001 	ldmdahi	r4, {r0}
    2adc:	b8000093 	stmdalt	r0, {r0, r1, r4, r7}
    2ae0:	7a000005 	bvc	2afc <__code_start__-0x5504>
    2ae4:	12000004 	andne	r0, r0, #4, 0
    2ae8:	74025001 	strvc	r5, [r2], #-1
    2aec:	51011200 	mrspl	r1, R9_usr
    2af0:	0f003301 	svceq	0x00003301
    2af4:	0000938c 	andeq	r9, r0, ip, lsl #7
    2af8:	000005a0 	andeq	r0, r0, r0, lsr #11
    2afc:	08150e00 	ldmdaeq	r5, {r9, sl, fp}
    2b00:	35010000 	strcc	r0, [r1, #-0]
    2b04:	00948c06 	addseq	r8, r4, r6, lsl #24
    2b08:	00002400 	andeq	r2, r0, r0, lsl #8
    2b0c:	d39c0100 	orrsle	r0, ip, #0
    2b10:	0f000004 	svceq	0x00000004
    2b14:	00009494 	muleq	r0, r4, r4
    2b18:	00000194 	muleq	r0, r4, r1
    2b1c:	0094980f 	addseq	r9, r4, pc, lsl #16
    2b20:	0005a000 	andeq	sl, r5, r0
    2b24:	94a41400 	strtls	r1, [r4], #1024	; 0x400
    2b28:	04d30000 	ldrbeq	r0, [r3], #0
    2b2c:	04c90000 	strbeq	r0, [r9], #0
    2b30:	01120000 	tsteq	r2, r0
    2b34:	040c0550 	streq	r0, [ip], #-1360	; 0xfffffab0
    2b38:	12202150 	eorne	r2, r0, #20
    2b3c:	09025101 	stmdbeq	r2, {r0, r8, ip, lr}
    2b40:	a80f00fe 	stmdage	pc, {r1, r2, r3, r4, r5, r6, r7}	; <UNPREDICTABLE>
    2b44:	a0000094 	mulge	r0, r4, r0
    2b48:	00000005 	andeq	r0, r0, r5
    2b4c:	00084517 	andeq	r4, r8, r7, lsl r5
    2b50:	0d310100 	ldfeqs	f0, [r1, #-0]
    2b54:	000092c0 	andeq	r9, r0, r0, asr #5
    2b58:	00000020 	andeq	r0, r0, r0, lsr #32
    2b5c:	05369c01 	ldreq	r9, [r6, #-3073]!	; 0xfffff3ff
    2b60:	df180000 	svcle	0x00180000
    2b64:	01000007 	tsteq	r0, r7
    2b68:	05362531 	ldreq	r2, [r6, #-1329]!	; 0xfffffacf
    2b6c:	137a0000 	cmnne	sl, #0, 0
    2b70:	13760000 	cmnne	r6, #0, 0
    2b74:	76130000 	ldrvc	r0, [r3], -r0
    2b78:	01006c61 	tsteq	r0, r1, ror #24
    2b7c:	002c3431 	eoreq	r3, ip, r1, lsr r4
    2b80:	139c0000 	orrsne	r0, ip, #0, 0
    2b84:	13980000 	orrsne	r0, r8, #0, 0
    2b88:	d0140000 	andsle	r0, r4, r0
    2b8c:	ac000092 	stcge	0, cr0, [r0], {146}	; 0x92
    2b90:	25000005 	strcs	r0, [r0, #-5]
    2b94:	12000005 	andne	r0, r0, #5, 0
    2b98:	74025001 	strvc	r5, [r2], #-1
    2b9c:	dc110000 	ldcle	0, cr0, [r1], {-0}
    2ba0:	b8000092 	stmdalt	r0, {r1, r4, r7}
    2ba4:	12000005 	andne	r0, r0, #5, 0
    2ba8:	74025001 	strvc	r5, [r2], #-1
    2bac:	0c000000 	stceq	0, cr0, [r0], {-0}
    2bb0:	00053c04 	andeq	r3, r5, r4, lsl #24
    2bb4:	30171900 	andscc	r1, r7, r0, lsl #18
    2bb8:	01000008 	tsteq	r0, r8
    2bbc:	92e00d2e 	rscls	r0, r0, #2944	; 0xb80
    2bc0:	00200000 	eoreq	r0, r0, r0
    2bc4:	9c010000 	stcls	0, cr0, [r1], {-0}
    2bc8:	000005a0 	andeq	r0, r0, r0, lsr #11
    2bcc:	0007df18 	andeq	sp, r7, r8, lsl pc
    2bd0:	242e0100 	strtcs	r0, [lr], #-256	; 0xffffff00
    2bd4:	00000536 	andeq	r0, r0, r6, lsr r5
    2bd8:	000013be 			; <UNDEFINED> instruction: 0x000013be
    2bdc:	000013ba 			; <UNDEFINED> instruction: 0x000013ba
    2be0:	6c617613 	stclvs	6, cr7, [r1], #-76	; 0xffffffb4
    2be4:	332e0100 			; <UNDEFINED> instruction: 0x332e0100
    2be8:	0000002c 	andeq	r0, r0, ip, lsr #32
    2bec:	000013e0 	andeq	r1, r0, r0, ror #7
    2bf0:	000013dc 	ldrdeq	r1, [r0], -ip
    2bf4:	0092f014 	addseq	pc, r2, r4, lsl r0	; <UNPREDICTABLE>
    2bf8:	0005ac00 	andeq	sl, r5, r0, lsl #24
    2bfc:	00058f00 	andeq	r8, r5, r0, lsl #30
    2c00:	50011200 	andpl	r1, r1, r0, lsl #4
    2c04:	00007402 	andeq	r7, r0, r2, lsl #8
    2c08:	0092fc11 	addseq	pc, r2, r1, lsl ip	; <UNPREDICTABLE>
    2c0c:	0005b800 	andeq	fp, r5, r0, lsl #16
    2c10:	50011200 	andpl	r1, r1, r0, lsl #4
    2c14:	00007402 	andeq	r7, r0, r2, lsl #8
    2c18:	05731a00 	ldrbeq	r1, [r3, #-2560]!	; 0xfffff600
    2c1c:	05730000 	ldrbeq	r0, [r3, #-0]!
    2c20:	9c030000 	stcls	0, cr0, [r3], {-0}
    2c24:	08581a06 	ldmdaeq	r8, {r1, r2, r9, fp, ip}^
    2c28:	08580000 	ldmdaeq	r8, {}^	; <UNPREDICTABLE>
    2c2c:	c3030000 	movwgt	r0, #12288	; 0x3000
    2c30:	079c1a0b 	ldreq	r1, [ip, fp, lsl #20]
    2c34:	079c0000 	ldreq	r0, [ip, r0]
    2c38:	ae030000 	cdpge	0, 0, cr0, cr3, cr0, {0}
    2c3c:	077e1a06 	ldrbeq	r1, [lr, -r6, lsl #20]!
    2c40:	077e0000 	ldrbeq	r0, [lr, -r0]!
    2c44:	19040000 	stmdbne	r4, {}	; <UNPREDICTABLE>
    2c48:	03a60006 			; <UNDEFINED> instruction: 0x03a60006
    2c4c:	00040000 	andeq	r0, r4, r0
    2c50:	00000d86 	andeq	r0, r0, r6, lsl #27
    2c54:	06b60104 	ldrteq	r0, [r6], r4, lsl #2
    2c58:	870c0000 	strhi	r0, [ip, -r0]
    2c5c:	53000008 	movwpl	r0, #8
    2c60:	b0000006 	andlt	r0, r0, r6
    2c64:	48000094 	stmdami	r0, {r2, r4, r7}
    2c68:	a4000001 	strge	r0, [r0], #-1
    2c6c:	02000015 	andeq	r0, r0, #21, 0
    2c70:	6e690504 	cdpvs	5, 6, cr0, cr9, cr4, {0}
    2c74:	04030074 	streq	r0, [r3], #-116	; 0xffffff8c
    2c78:	00010107 	andeq	r0, r1, r7, lsl #2
    2c7c:	06010300 	streq	r0, [r1], -r0, lsl #6
    2c80:	000000da 	ldrdeq	r0, [r0], -sl
    2c84:	0b050203 	bleq	143498 <__bss_end__+0x138d58>
    2c88:	03000000 	movweq	r0, #0
    2c8c:	00800504 	addeq	r0, r0, r4, lsl #10
    2c90:	08030000 	stmdaeq	r3, {}	; <UNPREDICTABLE>
    2c94:	00007b05 	andeq	r7, r0, r5, lsl #22
    2c98:	08010300 	stmdaeq	r1, {r8, r9}
    2c9c:	000000d8 	ldrdeq	r0, [r0], -r8
    2ca0:	16070203 	strne	r0, [r7], -r3, lsl #4
    2ca4:	03000001 	movweq	r0, #1
    2ca8:	00fc0704 	rscseq	r0, ip, r4, lsl #14
    2cac:	08030000 	stmdaeq	r3, {}	; <UNPREDICTABLE>
    2cb0:	0000f707 	andeq	pc, r0, r7, lsl #14
    2cb4:	08010300 	stmdaeq	r1, {r8, r9}
    2cb8:	000000e1 	andeq	r0, r0, r1, ror #1
    2cbc:	00006b04 	andeq	r6, r0, r4, lsl #22
    2cc0:	08ac0500 	stmiaeq	ip!, {r8, sl}
    2cc4:	05010000 	streq	r0, [r1, #-0]
    2cc8:	00002c11 	andeq	r2, r0, r1, lsl ip
    2ccc:	086b0500 	stmdaeq	fp!, {r8, sl}^
    2cd0:	06010000 	streq	r0, [r1], -r0
    2cd4:	00002c11 	andeq	r2, r0, r1, lsl ip
    2cd8:	08920600 	ldmeq	r2, {r9, sl}
    2cdc:	38010000 	stmdacc	r1, {}	; <UNPREDICTABLE>
    2ce0:	00002505 	andeq	r2, r0, r5, lsl #10
    2ce4:	0095e000 	addseq	lr, r5, r0
    2ce8:	00001800 	andeq	r1, r0, r0, lsl #16
    2cec:	d19c0100 	orrsle	r0, ip, r0, lsl #2
    2cf0:	07000000 	streq	r0, [r0, -r0]
    2cf4:	006e6970 	rsbeq	r6, lr, r0, ror r9
    2cf8:	2c1b3801 	ldccs	8, cr3, [fp], {1}
    2cfc:	02000000 	andeq	r0, r0, #0, 0
    2d00:	fe000014 	mcr2	0, 0, r0, cr0, cr4, {0}
    2d04:	08000013 	stmdaeq	r0, {r0, r1, r4}
    2d08:	000095ec 	andeq	r9, r0, ip, ror #11
    2d0c:	00000355 	andeq	r0, r0, r5, asr r3
    2d10:	05500109 	ldrbeq	r0, [r0, #-265]	; 0xfffffef7
    2d14:	2000940c 	andcs	r9, r0, ip, lsl #8
    2d18:	0a000020 	beq	2da0 <__code_start__-0x5260>
    2d1c:	0000085e 	andeq	r0, r0, lr, asr r8
    2d20:	d0063601 	andle	r3, r6, r1, lsl #12
    2d24:	10000095 	mulne	r0, r5, r0
    2d28:	01000000 	mrseq	r0, (UNDEF: 0)
    2d2c:	0001129c 	muleq	r1, ip, r2
    2d30:	69700700 	ldmdbvs	r0!, {r8, r9, sl}^
    2d34:	3601006e 	strcc	r0, [r1], -lr, rrx
    2d38:	00002c1c 	andeq	r2, r0, ip, lsl ip
    2d3c:	00142700 	andseq	r2, r4, r0, lsl #14
    2d40:	00142300 	andseq	r2, r4, r0, lsl #6
    2d44:	95dc0800 	ldrbls	r0, [ip, #2048]	; 0x800
    2d48:	01940000 	orrseq	r0, r4, r0
    2d4c:	01090000 	mrseq	r0, (UNDEF: 9)
    2d50:	01f30350 	mvnseq	r0, r0, asr r3
    2d54:	51010950 	tstpl	r1, r0, asr r9
    2d58:	00003001 	andeq	r3, r0, r1
    2d5c:	0008750a 	andeq	r7, r8, sl, lsl #10
    2d60:	06350100 	ldrteq	r0, [r5], -r0, lsl #2
    2d64:	000095c0 	andeq	r9, r0, r0, asr #11
    2d68:	00000010 	andeq	r0, r0, r0, lsl r0
    2d6c:	01539c01 	cmpeq	r3, r1, lsl #24
    2d70:	70070000 	andvc	r0, r7, r0
    2d74:	01006e69 	tsteq	r0, r9, ror #28
    2d78:	002c2135 	eoreq	r2, ip, r5, lsr r1
    2d7c:	144c0000 	strbne	r0, [ip], #-0
    2d80:	14480000 	strbne	r0, [r8], #-0
    2d84:	cc080000 	stcgt	0, cr0, [r8], {-0}
    2d88:	94000095 	strls	r0, [r0], #-149	; 0xffffff6b
    2d8c:	09000001 	stmdbeq	r0, {r0}
    2d90:	f3035001 	vhadd.u8	d5, d3, d1
    2d94:	01095001 	tsteq	r9, r1
    2d98:	00310151 	eorseq	r0, r1, r1, asr r1
    2d9c:	00960a00 	addseq	r0, r6, r0, lsl #20
    2da0:	34010000 	strcc	r0, [r1], #-0
    2da4:	0095b006 	addseq	fp, r5, r6
    2da8:	00001000 	andeq	r1, r0, r0
    2dac:	949c0100 	ldrls	r0, [ip], #256	; 0x100
    2db0:	07000001 	streq	r0, [r0, -r1]
    2db4:	006e6970 	rsbeq	r6, lr, r0, ror r9
    2db8:	2c1f3401 	cfldrscs	mvf3, [pc], {1}
    2dbc:	71000000 	mrsvc	r0, (UNDEF: 0)
    2dc0:	6d000014 	stcvs	0, cr0, [r0, #-80]	; 0xffffffb0
    2dc4:	08000014 	stmdaeq	r0, {r2, r4}
    2dc8:	000095bc 			; <UNDEFINED> instruction: 0x000095bc
    2dcc:	00000194 	muleq	r0, r4, r1
    2dd0:	03500109 	cmpeq	r0, #1073741826	; 0x40000002
    2dd4:	095001f3 	ldmdbeq	r0, {r0, r1, r4, r5, r6, r7, r8}^
    2dd8:	32015101 	andcc	r5, r1, #1073741824	; 0x40000000
    2ddc:	9f0a0000 	svcls	0x000a0000
    2de0:	01000008 	tsteq	r0, r8
    2de4:	94b00611 	ldrtls	r0, [r0], #1553	; 0x611
    2de8:	01000000 	mrseq	r0, (UNDEF: 0)
    2dec:	9c010000 	stcls	0, cr0, [r1], {-0}
    2df0:	00000340 	andeq	r0, r0, r0, asr #6
    2df4:	6e697007 	cdpvs	0, 6, cr7, cr9, cr7, {0}
    2df8:	1c110100 	ldfnes	f0, [r1], {-0}
    2dfc:	0000002c 	andeq	r0, r0, ip, lsr #32
    2e00:	000014a2 	andeq	r1, r0, r2, lsr #9
    2e04:	00001492 	muleq	r0, r2, r4
    2e08:	64757007 	ldrbtvs	r7, [r5], #-7
    2e0c:	2a110100 	bcs	443214 <__bss_end__+0x438ad4>
    2e10:	0000002c 	andeq	r0, r0, ip, lsr #32
    2e14:	00001517 	andeq	r1, r0, r7, lsl r5
    2e18:	00001505 	andeq	r1, r0, r5, lsl #10
    2e1c:	0000ab0b 	andeq	sl, r0, fp, lsl #22
    2e20:	00035000 	andeq	r5, r3, r0
    2e24:	24030500 	strcs	r0, [r3], #-1280	; 0xfffffb00
    2e28:	0c00009b 	stceq	0, cr0, [r0], {155}	; 0x9b
    2e2c:	000094e4 	andeq	r9, r0, r4, ror #9
    2e30:	00000361 	andeq	r0, r0, r1, ror #6
    2e34:	0095000d 	addseq	r0, r5, sp
    2e38:	00036d00 	andeq	r6, r3, r0, lsl #26
    2e3c:	00022200 	andeq	r2, r2, r0, lsl #4
    2e40:	50010900 	andpl	r0, r1, r0, lsl #18
    2e44:	9ab80305 	bls	fee03a60 <__bss_end__+0xfedf9320>
    2e48:	01090000 	mrseq	r0, (UNDEF: 9)
    2e4c:	ac030551 	cfstr32ge	mvfx0, [r3], {81}	; 0x51
    2e50:	0900009a 	stmdbeq	r0, {r1, r3, r4, r7}
    2e54:	03055201 	movweq	r5, #20993	; 0x5201
    2e58:	00009b24 	andeq	r9, r0, r4, lsr #22
    2e5c:	01530109 	cmpeq	r3, r9, lsl #2
    2e60:	7d020942 	vstrvc.16	s0, [r2, #-132]	; 0xffffff7c	; <UNPREDICTABLE>
    2e64:	e4030500 	str	r0, [r3], #-1280	; 0xfffffb00
    2e68:	0000009a 	muleq	r0, sl, r0
    2e6c:	0095040c 	addseq	r0, r5, ip, lsl #8
    2e70:	00037900 	andeq	r7, r3, r0, lsl #18
    2e74:	95080c00 	strls	r0, [r8, #-3072]	; 0xfffff400
    2e78:	03610000 	cmneq	r1, #0, 0
    2e7c:	240d0000 	strcs	r0, [sp], #-0
    2e80:	6d000095 	stcvs	0, cr0, [r0, #-596]	; 0xfffffdac
    2e84:	6c000003 	stcvs	0, cr0, [r0], {3}
    2e88:	09000002 	stmdbeq	r0, {r1}
    2e8c:	03055001 	movweq	r5, #20481	; 0x5001
    2e90:	00009af0 	strdeq	r9, [r0], -r0
    2e94:	05510109 	ldrbeq	r0, [r1, #-265]	; 0xfffffef7
    2e98:	009aac03 	addseq	sl, sl, r3, lsl #24
    2e9c:	52010900 	andpl	r0, r1, #0, 18
    2ea0:	9b240305 	blls	903abc <__bss_end__+0x8f937c>
    2ea4:	01090000 	mrseq	r0, (UNDEF: 9)
    2ea8:	09430153 	stmdbeq	r3, {r0, r1, r4, r6, r8}^
    2eac:	05007d02 	streq	r7, [r0, #-3330]	; 0xfffff2fe
    2eb0:	009b1c03 	addseq	r1, fp, r3, lsl #24
    2eb4:	280c0000 	stmdacs	ip, {}	; <UNPREDICTABLE>
    2eb8:	79000095 	stmdbvc	r0, {r0, r2, r4, r7}
    2ebc:	0c000003 	stceq	0, cr0, [r0], {3}
    2ec0:	0000952c 	andeq	r9, r0, ip, lsr #10
    2ec4:	00000385 	andeq	r0, r0, r5, lsl #7
    2ec8:	00953c0d 	addseq	r3, r5, sp, lsl #24
    2ecc:	00039100 	andeq	r9, r3, r0, lsl #2
    2ed0:	00029800 	andeq	r9, r2, r0, lsl #16
    2ed4:	50010900 	andpl	r0, r1, r0, lsl #18
    2ed8:	09007602 	stmdbeq	r0, {r1, r9, sl, ip, sp, lr}
    2edc:	74025101 	strvc	r5, [r2], #-257	; 0xfffffeff
    2ee0:	440d0000 	strmi	r0, [sp], #-0
    2ee4:	9d000095 	stcls	0, cr0, [r0, #-596]	; 0xfffffdac
    2ee8:	ac000003 	stcge	0, cr0, [r0], {3}
    2eec:	09000002 	stmdbeq	r0, {r1}
    2ef0:	08025001 	stmdaeq	r2, {r0, ip, lr}
    2ef4:	580d0096 	stmdapl	sp, {r1, r2, r4, r7}
    2ef8:	91000095 	swpls	r0, r5, [r0]	; <UNPREDICTABLE>
    2efc:	c8000003 	stmdagt	r0, {r0, r1}
    2f00:	09000002 	stmdbeq	r0, {r1}
    2f04:	74025001 	strvc	r5, [r2], #-1
    2f08:	51010900 	tstpl	r1, r0, lsl #18
    2f0c:	00753104 	rsbseq	r3, r5, r4, lsl #2
    2f10:	600d0024 	andvs	r0, sp, r4, lsr #32
    2f14:	9d000095 	stcls	0, cr0, [r0, #-596]	; 0xfffffdac
    2f18:	dc000003 	stcle	0, cr0, [r0], {3}
    2f1c:	09000002 	stmdbeq	r0, {r1}
    2f20:	08025001 	stmdaeq	r2, {r0, ip, lr}
    2f24:	6c0d0096 	stcvs	0, cr0, [sp], {150}	; 0x96
    2f28:	91000095 	swpls	r0, r5, [r0]	; <UNPREDICTABLE>
    2f2c:	f5000003 			; <UNDEFINED> instruction: 0xf5000003
    2f30:	09000002 	stmdbeq	r0, {r1}
    2f34:	76025001 	strvc	r5, [r2], -r1
    2f38:	51010900 	tstpl	r1, r0, lsl #18
    2f3c:	0d003001 	stceq	0, cr3, [r0, #-4]
    2f40:	00009574 	andeq	r9, r0, r4, ror r5
    2f44:	0000039d 	muleq	r0, sp, r3
    2f48:	00000309 	andeq	r0, r0, r9, lsl #6
    2f4c:	02500109 	subseq	r0, r0, #1073741826	; 0x40000002
    2f50:	0d009608 	stceq	6, cr9, [r0, #-32]	; 0xffffffe0
    2f54:	00009580 	andeq	r9, r0, r0, lsl #11
    2f58:	00000391 	muleq	r0, r1, r3
    2f5c:	00000322 	andeq	r0, r0, r2, lsr #6
    2f60:	02500109 	subseq	r0, r0, #1073741826	; 0x40000002
    2f64:	01090074 	tsteq	r9, r4, ror r0
    2f68:	00300151 	eorseq	r0, r0, r1, asr r1
    2f6c:	0095880d 	addseq	r8, r5, sp, lsl #16
    2f70:	00039d00 	andeq	r9, r3, r0, lsl #26
    2f74:	00033600 	andeq	r3, r3, r0, lsl #12
    2f78:	50010900 	andpl	r0, r1, r0, lsl #18
    2f7c:	00960802 	addseq	r0, r6, r2, lsl #16
    2f80:	00958c0c 	addseq	r8, r5, ip, lsl #24
    2f84:	00038500 	andeq	r8, r3, r0, lsl #10
    2f88:	720e0000 	andvc	r0, lr, #0, 0
    2f8c:	50000000 	andpl	r0, r0, r0
    2f90:	0f000003 	svceq	0x00000003
    2f94:	0000002c 	andeq	r0, r0, ip, lsr #32
    2f98:	4004000c 	andmi	r0, r4, ip
    2f9c:	10000003 	andne	r0, r0, r3
    2fa0:	0000059d 	muleq	r0, sp, r5
    2fa4:	0000059d 	muleq	r0, sp, r5
    2fa8:	100ac202 	andne	ip, sl, r2, lsl #4
    2fac:	000008b5 			; <UNDEFINED> instruction: 0x000008b5
    2fb0:	000008b5 			; <UNDEFINED> instruction: 0x000008b5
    2fb4:	10061d02 	andne	r1, r6, r2, lsl #26
    2fb8:	000002b6 			; <UNDEFINED> instruction: 0x000002b6
    2fbc:	000002b6 			; <UNDEFINED> instruction: 0x000002b6
    2fc0:	10062802 	andne	r2, r6, r2, lsl #16
    2fc4:	000000cb 	andeq	r0, r0, fp, asr #1
    2fc8:	000000cb 	andeq	r0, r0, fp, asr #1
    2fcc:	10066e02 	andne	r6, r6, r2, lsl #28
    2fd0:	00000573 	andeq	r0, r0, r3, ror r5
    2fd4:	00000573 	andeq	r0, r0, r3, ror r5
    2fd8:	10069c02 	andne	r9, r6, r2, lsl #24
    2fdc:	00000509 	andeq	r0, r0, r9, lsl #10
    2fe0:	00000509 	andeq	r0, r0, r9, lsl #10
    2fe4:	1006ad02 	andne	sl, r6, r2, lsl #26
    2fe8:	000005a3 	andeq	r0, r0, r3, lsr #11
    2fec:	000005a3 	andeq	r0, r0, r3, lsr #11
    2ff0:	00065602 	andeq	r5, r6, r2, lsl #12
    2ff4:	00000149 	andeq	r0, r0, r9, asr #2
    2ff8:	0e750004 	cdpeq	0, 7, cr0, cr5, cr4, {0}
    2ffc:	01040000 	mrseq	r0, (UNDEF: 4)
    3000:	00000141 	andeq	r0, r0, r1, asr #2
    3004:	0008e20c 	andeq	lr, r8, ip, lsl #4
    3008:	0002eb00 	andeq	lr, r2, r0, lsl #22
    300c:	0095f800 	addseq	pc, r5, r0, lsl #16
    3010:	00003c00 	andeq	r3, r0, r0, lsl #24
    3014:	0016a600 	andseq	sl, r6, r0, lsl #12
    3018:	05040200 	streq	r0, [r4, #-512]	; 0xfffffe00
    301c:	00746e69 	rsbseq	r6, r4, r9, ror #28
    3020:	01070403 	tsteq	r7, r3, lsl #8
    3024:	03000001 	movweq	r0, #1
    3028:	00da0601 	sbcseq	r0, sl, r1, lsl #12
    302c:	02030000 	andeq	r0, r3, #0, 0
    3030:	00000b05 	andeq	r0, r0, r5, lsl #22
    3034:	05040300 	streq	r0, [r4, #-768]	; 0xfffffd00
    3038:	00000080 	andeq	r0, r0, r0, lsl #1
    303c:	7b050803 	blvc	145050 <__bss_end__+0x13a910>
    3040:	03000000 	movweq	r0, #0
    3044:	00d80801 	sbcseq	r0, r8, r1, lsl #16
    3048:	02030000 	andeq	r0, r3, #0, 0
    304c:	00011607 	andeq	r1, r1, r7, lsl #12
    3050:	07040300 	streq	r0, [r4, -r0, lsl #6]
    3054:	000000fc 	strdeq	r0, [r0], -ip
    3058:	f7070803 			; <UNDEFINED> instruction: 0xf7070803
    305c:	04000000 	streq	r0, [r0], #-0
    3060:	00000025 	andeq	r0, r0, r5, lsr #32
    3064:	0000007a 	andeq	r0, r0, sl, ror r0
    3068:	00002505 	andeq	r2, r0, r5, lsl #10
    306c:	28060000 	stmdacs	r6, {}	; <UNPREDICTABLE>
    3070:	02000000 	andeq	r0, r0, #0, 0
    3074:	00860e1c 	addeq	r0, r6, ip, lsl lr
    3078:	04070000 	streq	r0, [r7], #-0
    307c:	0000006b 	andeq	r0, r0, fp, rrx
    3080:	00002504 	andeq	r2, r0, r4, lsl #10
    3084:	00009b00 	andeq	r9, r0, r0, lsl #22
    3088:	009b0500 	addseq	r0, fp, r0, lsl #10
    308c:	07000000 	streq	r0, [r0, -r0]
    3090:	0000a804 	andeq	sl, r0, r4, lsl #16
    3094:	08010300 	stmdaeq	r1, {r8, r9}
    3098:	000000e1 	andeq	r0, r0, r1, ror #1
    309c:	0000a108 	andeq	sl, r0, r8, lsl #2
    30a0:	033c0600 	teqeq	ip, #0, 12
    30a4:	21020000 	mrscs	r0, (UNDEF: 2)
    30a8:	0000b90e 	andeq	fp, r0, lr, lsl #18
    30ac:	8c040700 	stchi	7, cr0, [r4], {-0}
    30b0:	09000000 	stmdbeq	r0, {}	; <UNPREDICTABLE>
    30b4:	0000007a 	andeq	r0, r0, sl, ror r0
    30b8:	05070601 	streq	r0, [r7, #-1537]	; 0xfffff9ff
    30bc:	009b3803 	addseq	r3, fp, r3, lsl #16
    30c0:	08d50a00 	ldmeq	r5, {r9, fp}^
    30c4:	0b010000 	bleq	430cc <__bss_end__+0x3898c>
    30c8:	00962406 	addseq	r2, r6, r6, lsl #8
    30cc:	00001000 	andeq	r1, r0, r0
    30d0:	f19c0100 			; <UNDEFINED> instruction: 0xf19c0100
    30d4:	0b000000 	bleq	30dc <__code_start__-0x4f24>
    30d8:	01007066 	tsteq	r0, r6, rrx
    30dc:	0086190b 	addeq	r1, r6, fp, lsl #18
    30e0:	50010000 	andpl	r0, r1, r0
    30e4:	08b50c00 	ldmeq	r5!, {sl, fp}
    30e8:	08010000 	stmdaeq	r1, {}	; <UNPREDICTABLE>
    30ec:	00960c06 	addseq	r0, r6, r6, lsl #24
    30f0:	00001800 	andeq	r1, r0, r0, lsl #16
    30f4:	0d9c0100 	ldfeqs	f0, [ip]
    30f8:	000008c4 	andeq	r0, r0, r4, asr #17
    30fc:	250c0301 	strcs	r0, [ip, #-769]	; 0xfffffcff
    3100:	f8000000 			; <UNDEFINED> instruction: 0xf8000000
    3104:	14000095 	strne	r0, [r0], #-149	; 0xffffff6b
    3108:	01000000 	mrseq	r0, (UNDEF: 0)
    310c:	0001409c 	muleq	r1, ip, r0
    3110:	00630e00 	rsbeq	r0, r3, r0, lsl #28
    3114:	25210301 	strcs	r0, [r1, #-769]!	; 0xfffffcff
    3118:	8f000000 	svchi	0x00000000
    311c:	8b000015 	blhi	3178 <__code_start__-0x4e88>
    3120:	0f000015 	svceq	0x00000015
    3124:	00009604 	andeq	r9, r0, r4, lsl #12
    3128:	00000140 	andeq	r0, r0, r0, asr #2
    312c:	02500110 	subseq	r0, r0, #4
    3130:	00000074 	andeq	r0, r0, r4, ror r0
    3134:	00084e11 	andeq	r4, r8, r1, lsl lr
    3138:	00084e00 	andeq	r4, r8, r0, lsl #28
    313c:	06420200 	strbeq	r0, [r2], -r0, lsl #4
    3140:	00013700 	andeq	r3, r1, r0, lsl #14
    3144:	84000400 	strhi	r0, [r0], #-1024	; 0xfffffc00
    3148:	0400000f 	streq	r0, [r0], #-15
    314c:	00014101 	andeq	r4, r1, r1, lsl #2
    3150:	08f80c00 	ldmeq	r8!, {sl, fp}^
    3154:	02eb0000 	rsceq	r0, fp, #0, 0
    3158:	96340000 	ldrtls	r0, [r4], -r0
    315c:	00340000 	eorseq	r0, r4, r0
    3160:	17690000 	strbne	r0, [r9, -r0]!
    3164:	04020000 	streq	r0, [r2], #-0
    3168:	746e6905 	strbtvc	r6, [lr], #-2309	; 0xfffff6fb
    316c:	07040300 	streq	r0, [r4, -r0, lsl #6]
    3170:	00000101 	andeq	r0, r0, r1, lsl #2
    3174:	da060103 	ble	183588 <__bss_end__+0x178e48>
    3178:	03000000 	movweq	r0, #0
    317c:	000b0502 	andeq	r0, fp, r2, lsl #10
    3180:	04030000 	streq	r0, [r3], #-0
    3184:	00008005 	andeq	r8, r0, r5
    3188:	05080300 	streq	r0, [r8, #-768]	; 0xfffffd00
    318c:	0000007b 	andeq	r0, r0, fp, ror r0
    3190:	d8080103 	stmdale	r8, {r0, r1, r8}
    3194:	03000000 	movweq	r0, #0
    3198:	01160702 	tsteq	r6, r2, lsl #14
    319c:	04030000 	streq	r0, [r3], #-0
    31a0:	0000fc07 	andeq	pc, r0, r7, lsl #24
    31a4:	07080300 	streq	r0, [r8, -r0, lsl #6]
    31a8:	000000f7 	strdeq	r0, [r0], -r7
    31ac:	00002504 	andeq	r2, r0, r4, lsl #10
    31b0:	00007a00 	andeq	r7, r0, r0, lsl #20
    31b4:	00250500 	eoreq	r0, r5, r0, lsl #10
    31b8:	06000000 	streq	r0, [r0], -r0
    31bc:	00000028 	andeq	r0, r0, r8, lsr #32
    31c0:	860e1c02 	strhi	r1, [lr], -r2, lsl #24
    31c4:	07000000 	streq	r0, [r0, -r0]
    31c8:	00006b04 	andeq	r6, r0, r4, lsl #22
    31cc:	00250400 	eoreq	r0, r5, r0, lsl #8
    31d0:	009b0000 	addseq	r0, fp, r0
    31d4:	9b050000 	blls	1431dc <__bss_end__+0x138a9c>
    31d8:	00000000 	andeq	r0, r0, r0
    31dc:	00a80407 	adceq	r0, r8, r7, lsl #8
    31e0:	01030000 	mrseq	r0, (UNDEF: 3)
    31e4:	0000e108 	andeq	lr, r0, r8, lsl #2
    31e8:	00a10800 	adceq	r0, r1, r0, lsl #16
    31ec:	3c060000 	stccc	0, cr0, [r6], {-0}
    31f0:	02000003 	andeq	r0, r0, #3, 0
    31f4:	00b90e21 	adcseq	r0, r9, r1, lsr #28
    31f8:	04070000 	streq	r0, [r7], #-0
    31fc:	0000008c 	andeq	r0, r0, ip, lsl #1
    3200:	0003e809 	andeq	lr, r3, r9, lsl #16
    3204:	07040100 	streq	r0, [r4, -r0, lsl #2]
    3208:	00000134 	andeq	r0, r0, r4, lsr r1
    320c:	00009634 	andeq	r9, r0, r4, lsr r6
    3210:	00000034 	andeq	r0, r0, r4, lsr r0
    3214:	01349c01 	teqeq	r4, r1, lsl #24
    3218:	f30a0000 	vhadd.u8	d0, d10, d0
    321c:	01000008 	tsteq	r0, r8
    3220:	01341504 	teqeq	r4, r4, lsl #10
    3224:	50010000 	andpl	r0, r1, r0
    3228:	6372730b 	cmnvs	r2, #738197504	; 0x2c000000
    322c:	27040100 	strcs	r0, [r4, -r0, lsl #2]
    3230:	0000009b 	muleq	r0, fp, r0
    3234:	000015b1 			; <UNDEFINED> instruction: 0x000015b1
    3238:	000015ad 	andeq	r1, r0, sp, lsr #11
    323c:	0031730c 	eorseq	r7, r1, ip, lsl #6
    3240:	340b0501 	strcc	r0, [fp], #-1281	; 0xfffffaff
    3244:	dc000001 	stcle	0, cr0, [r0], {1}
    3248:	d2000015 	andle	r0, r0, #21, 0
    324c:	0c000015 	stceq	0, cr0, [r0], {21}
    3250:	01003273 	tsteq	r0, r3, ror r2
    3254:	009b1106 	addseq	r1, fp, r6, lsl #2
    3258:	16210000 	strtne	r0, [r1], -r0
    325c:	161d0000 	ldrne	r0, [sp], -r0
    3260:	630c0000 	movwvs	r0, #49152	; 0xc000
    3264:	0a070100 	beq	1c366c <__bss_end__+0x1b8f2c>
    3268:	000000a1 	andeq	r0, r0, r1, lsr #1
    326c:	00001645 	andeq	r1, r0, r5, asr #12
    3270:	00001641 	andeq	r1, r0, r1, asr #12
    3274:	a1040700 	tstge	r4, r0, lsl #14
    3278:	00000000 	andeq	r0, r0, r0
    327c:	000000f7 	strdeq	r0, [r0], -r7
    3280:	103a0004 	eorsne	r0, sl, r4
    3284:	01040000 	mrseq	r0, (UNDEF: 4)
    3288:	00000141 	andeq	r0, r0, r1, asr #2
    328c:	0009080c 	andeq	r0, r9, ip, lsl #16
    3290:	0002eb00 	andeq	lr, r2, r0, lsl #22
    3294:	00966800 	addseq	r6, r6, r0, lsl #16
    3298:	00002c00 	andeq	r2, r0, r0, lsl #24
    329c:	00187800 	andseq	r7, r8, r0, lsl #16
    32a0:	05040200 	streq	r0, [r4, #-512]	; 0xfffffe00
    32a4:	00746e69 	rsbseq	r6, r4, r9, ror #28
    32a8:	01070403 	tsteq	r7, r3, lsl #8
    32ac:	03000001 	movweq	r0, #1
    32b0:	00da0601 	sbcseq	r0, sl, r1, lsl #12
    32b4:	02030000 	andeq	r0, r3, #0, 0
    32b8:	00000b05 	andeq	r0, r0, r5, lsl #22
    32bc:	05040300 	streq	r0, [r4, #-768]	; 0xfffffd00
    32c0:	00000080 	andeq	r0, r0, r0, lsl #1
    32c4:	7b050803 	blvc	1452d8 <__bss_end__+0x13ab98>
    32c8:	03000000 	movweq	r0, #0
    32cc:	00d80801 	sbcseq	r0, r8, r1, lsl #16
    32d0:	02030000 	andeq	r0, r3, #0, 0
    32d4:	00011607 	andeq	r1, r1, r7, lsl #12
    32d8:	07040300 	streq	r0, [r4, -r0, lsl #6]
    32dc:	000000fc 	strdeq	r0, [r0], -ip
    32e0:	f7070803 			; <UNDEFINED> instruction: 0xf7070803
    32e4:	04000000 	streq	r0, [r0], #-0
    32e8:	00000025 	andeq	r0, r0, r5, lsr #32
    32ec:	0000007a 	andeq	r0, r0, sl, ror r0
    32f0:	00002505 	andeq	r2, r0, r5, lsl #10
    32f4:	28060000 	stmdacs	r6, {}	; <UNPREDICTABLE>
    32f8:	02000000 	andeq	r0, r0, #0, 0
    32fc:	00860e1c 	addeq	r0, r6, ip, lsl lr
    3300:	04070000 	streq	r0, [r7], #-0
    3304:	0000006b 	andeq	r0, r0, fp, rrx
    3308:	00002504 	andeq	r2, r0, r4, lsl #10
    330c:	00009b00 	andeq	r9, r0, r0, lsl #22
    3310:	009b0500 	addseq	r0, fp, r0, lsl #10
    3314:	07000000 	streq	r0, [r0, -r0]
    3318:	0000a804 	andeq	sl, r0, r4, lsl #16
    331c:	08010300 	stmdaeq	r1, {r8, r9}
    3320:	000000e1 	andeq	r0, r0, r1, ror #1
    3324:	0000a108 	andeq	sl, r0, r8, lsl #2
    3328:	033c0600 	teqeq	ip, #0, 12
    332c:	21020000 	mrscs	r0, (UNDEF: 2)
    3330:	0000b90e 	andeq	fp, r0, lr, lsl #18
    3334:	8c040700 	stchi	7, cr0, [r4], {-0}
    3338:	09000000 	stmdbeq	r0, {}	; <UNPREDICTABLE>
    333c:	0000041e 	andeq	r0, r0, lr, lsl r4
    3340:	25050301 	strcs	r0, [r5, #-769]	; 0xfffffcff
    3344:	68000000 	stmdavs	r0, {}	; <UNPREDICTABLE>
    3348:	2c000096 	stccs	0, cr0, [r0], {150}	; 0x96
    334c:	01000000 	mrseq	r0, (UNDEF: 0)
    3350:	00610a9c 	mlseq	r1, ip, sl, r0
    3354:	9b180301 	blls	603f60 <__bss_end__+0x5f9820>
    3358:	67000000 	strvs	r0, [r0, -r0]
    335c:	63000016 	movwvs	r0, #22
    3360:	0a000016 	beq	33c0 <__code_start__-0x4c40>
    3364:	03010062 	movweq	r0, #4194	; 0x1062
    3368:	00009b27 	andeq	r9, r0, r7, lsr #22
    336c:	00168900 	andseq	r8, r6, r0, lsl #18
    3370:	00168500 	andseq	r8, r6, r0, lsl #10
    3374:	0f000000 	svceq	0x00000000
    3378:	04000001 	streq	r0, [r0], #-1
    337c:	0010c900 	andseq	ip, r0, r0, lsl #18
    3380:	41010400 	tstmi	r1, r0, lsl #8
    3384:	0c000001 	stceq	0, cr0, [r0], {1}
    3388:	00000918 	andeq	r0, r0, r8, lsl r9
    338c:	000002eb 	andeq	r0, r0, fp, ror #5
    3390:	00009694 	muleq	r0, r4, r6
    3394:	00000020 	andeq	r0, r0, r0, lsr #32
    3398:	00001940 	andeq	r1, r0, r0, asr #18
    339c:	69050402 	stmdbvs	r5, {r1, sl}
    33a0:	0300746e 	movweq	r7, #1134	; 0x46e
    33a4:	01010704 	tsteq	r1, r4, lsl #14
    33a8:	01030000 	mrseq	r0, (UNDEF: 3)
    33ac:	0000da06 	andeq	sp, r0, r6, lsl #20
    33b0:	05020300 	streq	r0, [r2, #-768]	; 0xfffffd00
    33b4:	0000000b 	andeq	r0, r0, fp
    33b8:	80050403 	andhi	r0, r5, r3, lsl #8
    33bc:	03000000 	movweq	r0, #0
    33c0:	007b0508 	rsbseq	r0, fp, r8, lsl #10
    33c4:	01030000 	mrseq	r0, (UNDEF: 3)
    33c8:	0000d808 	andeq	sp, r0, r8, lsl #16
    33cc:	07020300 	streq	r0, [r2, -r0, lsl #6]
    33d0:	00000116 	andeq	r0, r0, r6, lsl r1
    33d4:	fc070403 	stc2	4, cr0, [r7], {3}
    33d8:	03000000 	movweq	r0, #0
    33dc:	00f70708 	rscseq	r0, r7, r8, lsl #14
    33e0:	25040000 	strcs	r0, [r4, #-0]
    33e4:	7a000000 	bvc	33ec <__code_start__-0x4c14>
    33e8:	05000000 	streq	r0, [r0, #-0]
    33ec:	00000025 	andeq	r0, r0, r5, lsr #32
    33f0:	00280600 	eoreq	r0, r8, r0, lsl #12
    33f4:	1c020000 	stcne	0, cr0, [r2], {-0}
    33f8:	0000860e 	andeq	r8, r0, lr, lsl #12
    33fc:	6b040700 	blvs	105004 <__bss_end__+0xfa8c4>
    3400:	04000000 	streq	r0, [r0], #-0
    3404:	00000025 	andeq	r0, r0, r5, lsr #32
    3408:	0000009b 	muleq	r0, fp, r0
    340c:	00009b05 	andeq	r9, r0, r5, lsl #22
    3410:	04070000 	streq	r0, [r7], #-0
    3414:	000000a8 	andeq	r0, r0, r8, lsr #1
    3418:	e1080103 	tst	r8, r3, lsl #2
    341c:	08000000 	stmdaeq	r0, {}	; <UNPREDICTABLE>
    3420:	000000a1 	andeq	r0, r0, r1, lsr #1
    3424:	00033c06 	andeq	r3, r3, r6, lsl #24
    3428:	0e210200 	cdpeq	2, 2, cr0, cr1, cr0, {0}
    342c:	000000b9 	strheq	r0, [r0], -r9
    3430:	008c0407 	addeq	r0, ip, r7, lsl #8
    3434:	ef090000 	svc	0x00090000
    3438:	01000003 	tsteq	r0, r3
    343c:	010c0703 	tsteq	ip, r3, lsl #14
    3440:	96940000 	ldrls	r0, [r4], r0
    3444:	00200000 	eoreq	r0, r0, r0
    3448:	9c010000 	stcls	0, cr0, [r1], {-0}
    344c:	0000010c 	andeq	r0, r0, ip, lsl #2
    3450:	0031730a 	eorseq	r7, r1, sl, lsl #6
    3454:	0c150301 	ldceq	3, cr0, [r5], {1}
    3458:	01000001 	tsteq	r0, r1
    345c:	32730b50 	rsbscc	r0, r3, #80, 22	; 0x14000
    3460:	26030100 	strcs	r0, [r3], -r0, lsl #2
    3464:	0000009b 	muleq	r0, fp, r0
    3468:	000016ad 	andeq	r1, r0, sp, lsr #13
    346c:	000016a7 	andeq	r1, r0, r7, lsr #13
    3470:	0100730c 	tsteq	r0, ip, lsl #6
    3474:	010c1404 	tsteq	ip, r4, lsl #8
    3478:	16de0000 	ldrbne	r0, [lr], r0
    347c:	16d80000 	ldrbne	r0, [r8], r0
    3480:	07000000 	streq	r0, [r0, -r0]
    3484:	0000a104 	andeq	sl, r0, r4, lsl #2
    3488:	014e0000 	mrseq	r0, (UNDEF: 78)
    348c:	00040000 	andeq	r0, r4, r0
    3490:	0000117f 	andeq	r1, r0, pc, ror r1
    3494:	01410104 	cmpeq	r1, r4, lsl #2
    3498:	2f0c0000 	svccs	0x000c0000
    349c:	eb000009 	bl	34c8 <__code_start__-0x4b38>
    34a0:	70000002 	andvc	r0, r0, r2
    34a4:	00000000 	andeq	r0, r0, r0
    34a8:	06000000 	streq	r0, [r0], -r0
    34ac:	0200001a 	andeq	r0, r0, #26, 0
    34b0:	6e690504 	cdpvs	5, 6, cr0, cr9, cr4, {0}
    34b4:	28030074 	stmdacs	r3, {r2, r4, r5, r6}
    34b8:	03000009 	movweq	r0, #9
    34bc:	003817d1 	ldrsbteq	r1, [r8], -r1
    34c0:	04040000 	streq	r0, [r4], #-0
    34c4:	00010107 	andeq	r0, r1, r7, lsl #2
    34c8:	06010400 	streq	r0, [r1], -r0, lsl #8
    34cc:	000000da 	ldrdeq	r0, [r0], -sl
    34d0:	0b050204 	bleq	143ce8 <__bss_end__+0x1395a8>
    34d4:	04000000 	streq	r0, [r0], #-0
    34d8:	00800504 	addeq	r0, r0, r4, lsl #10
    34dc:	08040000 	stmdaeq	r4, {}	; <UNPREDICTABLE>
    34e0:	00007b05 	andeq	r7, r0, r5, lsl #22
    34e4:	08010400 	stmdaeq	r1, {sl}
    34e8:	000000d8 	ldrdeq	r0, [r0], -r8
    34ec:	00005b05 	andeq	r5, r0, r5, lsl #22
    34f0:	07020400 	streq	r0, [r2, -r0, lsl #8]
    34f4:	00000116 	andeq	r0, r0, r6, lsl r1
    34f8:	fc070404 	stc2	4, cr0, [r7], {4}
    34fc:	04000000 	streq	r0, [r0], #-0
    3500:	00f70708 	rscseq	r0, r7, r8, lsl #14
    3504:	25060000 	strcs	r0, [r6, #-0]
    3508:	8b000000 	blhi	3510 <__code_start__-0x4af0>
    350c:	07000000 	streq	r0, [r0, -r0]
    3510:	00000025 	andeq	r0, r0, r5, lsr #32
    3514:	00280800 	eoreq	r0, r8, r0, lsl #16
    3518:	1c020000 	stcne	0, cr0, [r2], {-0}
    351c:	0000970e 	andeq	r9, r0, lr, lsl #14
    3520:	7c040900 			; <UNDEFINED> instruction: 0x7c040900
    3524:	06000000 	streq	r0, [r0], -r0
    3528:	00000025 	andeq	r0, r0, r5, lsr #32
    352c:	000000ac 	andeq	r0, r0, ip, lsr #1
    3530:	0000ac07 	andeq	sl, r0, r7, lsl #24
    3534:	04090000 	streq	r0, [r9], #-0
    3538:	000000b9 	strheq	r0, [r0], -r9
    353c:	e1080104 	tst	r8, r4, lsl #2
    3540:	05000000 	streq	r0, [r0, #-0]
    3544:	000000b2 	strheq	r0, [r0], -r2
    3548:	00033c08 	andeq	r3, r3, r8, lsl #24
    354c:	0e210200 	cdpeq	2, 2, cr0, cr1, cr0, {0}
    3550:	000000ca 	andeq	r0, r0, sl, asr #1
    3554:	009d0409 	addseq	r0, sp, r9, lsl #8
    3558:	460a0000 	strmi	r0, [sl], -r0
    355c:	01000004 	tsteq	r0, r4
    3560:	00250504 	eoreq	r0, r5, r4, lsl #10
    3564:	96b40000 	ldrtls	r0, [r4], r0
    3568:	002c0000 	eoreq	r0, ip, r0
    356c:	9c010000 	stcls	0, cr0, [r1], {-0}
    3570:	0000014b 	andeq	r0, r0, fp, asr #2
    3574:	31735f0b 	cmncc	r3, fp, lsl #30
    3578:	19040100 	stmdbne	r4, {r8}
    357c:	000000ac 	andeq	r0, r0, ip, lsr #1
    3580:	0000170d 	andeq	r1, r0, sp, lsl #14
    3584:	00001709 	andeq	r1, r0, r9, lsl #14
    3588:	32735f0b 	rsbscc	r5, r3, #11, 30	; 0x2c
    358c:	2a040100 	bcs	103994 <__bss_end__+0xf9254>
    3590:	000000ac 	andeq	r0, r0, ip, lsr #1
    3594:	00001732 	andeq	r1, r0, r2, lsr r7
    3598:	0000172e 	andeq	r1, r0, lr, lsr #14
    359c:	01006e0b 	tsteq	r0, fp, lsl #28
    35a0:	002c3604 	eoreq	r3, ip, r4, lsl #12
    35a4:	17590000 	ldrbne	r0, [r9, -r0]
    35a8:	17530000 	ldrbne	r0, [r3, -r0]
    35ac:	730c0000 	movwvc	r0, #49152	; 0xc000
    35b0:	05010031 	streq	r0, [r1, #-49]	; 0xffffffcf
    35b4:	00014b1a 	andeq	r4, r1, sl, lsl fp
    35b8:	00178c00 	andseq	r8, r7, r0, lsl #24
    35bc:	00178400 	andseq	r8, r7, r0, lsl #8
    35c0:	32730c00 	rsbscc	r0, r3, #0, 24
    35c4:	2c050100 	stfcss	f0, [r5], {-0}
    35c8:	0000014b 	andeq	r0, r0, fp, asr #2
    35cc:	000017c8 	andeq	r1, r0, r8, asr #15
    35d0:	000017c2 	andeq	r1, r0, r2, asr #15
    35d4:	62040900 	andvs	r0, r4, #0, 18
    35d8:	00000000 	andeq	r0, r0, r0
    35dc:	000000ce 	andeq	r0, r0, lr, asr #1
    35e0:	12330004 	eorsne	r0, r3, #4, 0
    35e4:	01040000 	mrseq	r0, (UNDEF: 4)
    35e8:	00000141 	andeq	r0, r0, r1, asr #2
    35ec:	0009400c 	andeq	r4, r9, ip
    35f0:	0002eb00 	andeq	lr, r2, r0, lsl #22
    35f4:	0096e000 	addseq	lr, r6, r0
    35f8:	00000400 	andeq	r0, r0, r0, lsl #8
    35fc:	001b2c00 	andseq	r2, fp, r0, lsl #24
    3600:	05040200 	streq	r0, [r4, #-512]	; 0xfffffe00
    3604:	00746e69 	rsbseq	r6, r4, r9, ror #28
    3608:	01070403 	tsteq	r7, r3, lsl #8
    360c:	03000001 	movweq	r0, #1
    3610:	00da0601 	sbcseq	r0, sl, r1, lsl #12
    3614:	02030000 	andeq	r0, r3, #0, 0
    3618:	00000b05 	andeq	r0, r0, r5, lsl #22
    361c:	05040300 	streq	r0, [r4, #-768]	; 0xfffffd00
    3620:	00000080 	andeq	r0, r0, r0, lsl #1
    3624:	7b050803 	blvc	145638 <__bss_end__+0x13aef8>
    3628:	03000000 	movweq	r0, #0
    362c:	00d80801 	sbcseq	r0, r8, r1, lsl #16
    3630:	02030000 	andeq	r0, r3, #0, 0
    3634:	00011607 	andeq	r1, r1, r7, lsl #12
    3638:	07040300 	streq	r0, [r4, -r0, lsl #6]
    363c:	000000fc 	strdeq	r0, [r0], -ip
    3640:	f7070803 			; <UNDEFINED> instruction: 0xf7070803
    3644:	04000000 	streq	r0, [r0], #-0
    3648:	00000025 	andeq	r0, r0, r5, lsr #32
    364c:	0000007a 	andeq	r0, r0, sl, ror r0
    3650:	00002505 	andeq	r2, r0, r5, lsl #10
    3654:	28060000 	stmdacs	r6, {}	; <UNPREDICTABLE>
    3658:	02000000 	andeq	r0, r0, #0, 0
    365c:	00860e1c 	addeq	r0, r6, ip, lsl lr
    3660:	04070000 	streq	r0, [r7], #-0
    3664:	0000006b 	andeq	r0, r0, fp, rrx
    3668:	00002504 	andeq	r2, r0, r4, lsl #10
    366c:	00009b00 	andeq	r9, r0, r0, lsl #22
    3670:	009b0500 	addseq	r0, fp, r0, lsl #10
    3674:	07000000 	streq	r0, [r0, -r0]
    3678:	0000a804 	andeq	sl, r0, r4, lsl #16
    367c:	08010300 	stmdaeq	r1, {r8, r9}
    3680:	000000e1 	andeq	r0, r0, r1, ror #1
    3684:	0000a108 	andeq	sl, r0, r8, lsl #2
    3688:	033c0600 	teqeq	ip, #0, 12
    368c:	21020000 	mrscs	r0, (UNDEF: 2)
    3690:	0000b90e 	andeq	fp, r0, lr, lsl #18
    3694:	8c040700 	stchi	7, cr0, [r4], {-0}
    3698:	09000000 	stmdbeq	r0, {}	; <UNPREDICTABLE>
    369c:	000004f2 	strdeq	r0, [r0], -r2
    36a0:	e0060301 	and	r0, r6, r1, lsl #6
    36a4:	04000096 	streq	r0, [r0], #-150	; 0xffffff6a
    36a8:	01000000 	mrseq	r0, (UNDEF: 0)
    36ac:	Address 0x00000000000036ac is out of bounds.


Disassembly of section .debug_abbrev:

00000000 <.debug_abbrev>:
       0:	25011101 	strcs	r1, [r1, #-257]	; 0xfffffeff
       4:	030b130e 	movweq	r1, #45838	; 0xb30e
       8:	110e1b0e 	tstne	lr, lr, lsl #22
       c:	10061201 	andne	r1, r6, r1, lsl #4
      10:	02000017 	andeq	r0, r0, #23, 0
      14:	0b0b0024 	bleq	2c00ac <__bss_end__+0x2b596c>
      18:	08030b3e 	stmdaeq	r3, {r1, r2, r3, r4, r5, r8, r9, fp}
      1c:	24030000 	strcs	r0, [r3], #-0
      20:	3e0b0b00 	vmlacc.f64	d0, d11, d0
      24:	000e030b 	andeq	r0, lr, fp, lsl #6
      28:	00260400 	eoreq	r0, r6, r0, lsl #8
      2c:	00001349 	andeq	r1, r0, r9, asr #6
      30:	27011505 	strcs	r1, [r1, -r5, lsl #10]
      34:	01134919 	tsteq	r3, r9, lsl r9
      38:	06000013 			; <UNDEFINED> instruction: 0x06000013
      3c:	13490005 	movtne	r0, #36869	; 0x9005
      40:	34070000 	strcc	r0, [r7], #-0
      44:	3a0e0300 	bcc	380c4c <__bss_end__+0x37650c>
      48:	390b3b0b 	stmdbcc	fp, {r0, r1, r3, r8, r9, fp, ip, sp}
      4c:	3f13490b 	svccc	0x0013490b
      50:	00193c19 	andseq	r3, r9, r9, lsl ip
      54:	000f0800 	andeq	r0, pc, r0, lsl #16
      58:	13490b0b 	movtne	r0, #39691	; 0x9b0b
      5c:	04090000 	streq	r0, [r9], #-0
      60:	0b0b3e01 	bleq	2cf86c <__bss_end__+0x2c512c>
      64:	3a13490b 	bcc	4d2498 <__bss_end__+0x4c7d58>
      68:	390b3b0b 	stmdbcc	fp, {r0, r1, r3, r8, r9, fp, ip, sp}
      6c:	0013010b 	andseq	r0, r3, fp, lsl #2
      70:	00280a00 	eoreq	r0, r8, r0, lsl #20
      74:	0b1c0e03 	bleq	703888 <__bss_end__+0x6f9148>
      78:	340b0000 	strcc	r0, [fp], #-0
      7c:	3a0e0300 	bcc	380c84 <__bss_end__+0x376544>
      80:	390b3b0b 	stmdbcc	fp, {r0, r1, r3, r8, r9, fp, ip, sp}
      84:	3f13490b 	svccc	0x0013490b
      88:	00180219 	andseq	r0, r8, r9, lsl r2
      8c:	01130c00 	tsteq	r3, r0, lsl #24
      90:	0b0b0e03 	bleq	2c38a4 <__bss_end__+0x2b9164>
      94:	0b3b0b3a 	bleq	ec2d84 <__bss_end__+0xeb8644>
      98:	13010b39 	movwne	r0, #6969	; 0x1b39
      9c:	0d0d0000 	stceq	0, cr0, [sp, #-0]
      a0:	3a0e0300 	bcc	380ca8 <__bss_end__+0x376568>
      a4:	390b3b0b 	stmdbcc	fp, {r0, r1, r3, r8, r9, fp, ip, sp}
      a8:	3813490b 	ldmdacc	r3, {r0, r1, r3, r8, fp, lr}
      ac:	0e00000b 	cdpeq	0, 0, cr0, cr0, cr11, {0}
      b0:	0803000d 	stmdaeq	r3, {r0, r2, r3}
      b4:	0b3b0b3a 	bleq	ec2da4 <__bss_end__+0xeb8664>
      b8:	13490b39 	movtne	r0, #39737	; 0x9b39
      bc:	00000b38 	andeq	r0, r0, r8, lsr fp
      c0:	3f012e0f 	svccc	0x00012e0f
      c4:	3a0e0319 	bcc	380d30 <__bss_end__+0x3765f0>
      c8:	390b3b0b 	stmdbcc	fp, {r0, r1, r3, r8, r9, fp, ip, sp}
      cc:	1119270b 	tstne	r9, fp, lsl #14
      d0:	40061201 	andmi	r1, r6, r1, lsl #4
      d4:	19429718 	stmdbne	r2, {r3, r4, r8, r9, sl, ip, pc}^
      d8:	00001301 	andeq	r1, r0, r1, lsl #6
      dc:	03003410 	movweq	r3, #1040	; 0x410
      e0:	3b0b3a08 	blcc	2ce908 <__bss_end__+0x2c41c8>
      e4:	490b390b 	stmdbmi	fp, {r0, r1, r3, r8, fp, ip, sp}
      e8:	000b1c13 	andeq	r1, fp, r3, lsl ip
      ec:	010b1100 	mrseq	r1, (UNDEF: 27)
      f0:	06120111 			; <UNDEFINED> instruction: 0x06120111
      f4:	00001301 	andeq	r1, r0, r1, lsl #6
      f8:	03003412 	movweq	r3, #1042	; 0x412
      fc:	3b0b3a08 	blcc	2ce924 <__bss_end__+0x2c41e4>
     100:	490b390b 	stmdbmi	fp, {r0, r1, r3, r8, fp, ip, sp}
     104:	00180213 	andseq	r0, r8, r3, lsl r2
     108:	00341300 	eorseq	r1, r4, r0, lsl #6
     10c:	0b3a0803 	bleq	e82120 <__bss_end__+0xe779e0>
     110:	0b390b3b 	bleq	e42e04 <__bss_end__+0xe386c4>
     114:	17021349 	strne	r1, [r2, -r9, asr #6]
     118:	001742b7 			; <UNDEFINED> instruction: 0x001742b7
     11c:	00341400 	eorseq	r1, r4, r0, lsl #8
     120:	0b3a0e03 	bleq	e83934 <__bss_end__+0xe791f4>
     124:	0b390b3b 	bleq	e42e18 <__bss_end__+0xe386d8>
     128:	17021349 	strne	r1, [r2, -r9, asr #6]
     12c:	001742b7 			; <UNDEFINED> instruction: 0x001742b7
     130:	82891500 	addhi	r1, r9, #0, 10
     134:	01110101 	tsteq	r1, r1, lsl #2
     138:	13011331 	movwne	r1, #4913	; 0x1331
     13c:	8a160000 	bhi	580144 <__bss_end__+0x575a04>
     140:	02000182 	andeq	r0, r0, #-2147483616	; 0x80000020
     144:	18429118 	stmdane	r2, {r3, r4, r8, ip, pc}^
     148:	89170000 	ldmdbhi	r7, {}	; <UNPREDICTABLE>
     14c:	11000182 	smlabbne	r0, r2, r1, r0
     150:	00133101 	andseq	r3, r3, r1, lsl #2
     154:	82891800 	addhi	r1, r9, #0, 16
     158:	01110101 	tsteq	r1, r1, lsl #2
     15c:	00001331 	andeq	r1, r0, r1, lsr r3
     160:	49010119 	stmdbmi	r1, {r0, r3, r4, r8}
     164:	00130113 	andseq	r0, r3, r3, lsl r1
     168:	00211a00 	eoreq	r1, r1, r0, lsl #20
     16c:	0b2f1349 	bleq	bc4e98 <__bss_end__+0xbba758>
     170:	2e1b0000 	cdpcs	0, 1, cr0, cr11, cr0, {0}
     174:	03193f01 	tsteq	r9, #1, 30
     178:	3b0b3a0e 	blcc	2ce9b8 <__bss_end__+0x2c4278>
     17c:	270b390b 	strcs	r3, [fp, -fp, lsl #18]
     180:	11134919 	tstne	r3, r9, lsl r9
     184:	40061201 	andmi	r1, r6, r1, lsl #4
     188:	19429718 	stmdbne	r2, {r3, r4, r8, r9, sl, ip, pc}^
     18c:	00001301 	andeq	r1, r0, r1, lsl #6
     190:	0300051c 	movweq	r0, #1308	; 0x51c
     194:	3b0b3a0e 	blcc	2ce9d4 <__bss_end__+0x2c4294>
     198:	490b390b 	stmdbmi	fp, {r0, r1, r3, r8, fp, ip, sp}
     19c:	b7170213 			; <UNDEFINED> instruction: 0xb7170213
     1a0:	00001742 	andeq	r1, r0, r2, asr #14
     1a4:	03012e1d 	movweq	r2, #7709	; 0x1e1d
     1a8:	3b0b3a0e 	blcc	2ce9e8 <__bss_end__+0x2c42a8>
     1ac:	270b390b 	strcs	r3, [fp, -fp, lsl #18]
     1b0:	11134919 	tstne	r3, r9, lsl r9
     1b4:	40061201 	andmi	r1, r6, r1, lsl #4
     1b8:	19429718 	stmdbne	r2, {r3, r4, r8, r9, sl, ip, pc}^
     1bc:	00001301 	andeq	r1, r0, r1, lsl #6
     1c0:	0300051e 	movweq	r0, #1310	; 0x51e
     1c4:	3b0b3a08 	blcc	2ce9ec <__bss_end__+0x2c42ac>
     1c8:	490b390b 	stmdbmi	fp, {r0, r1, r3, r8, fp, ip, sp}
     1cc:	b7170213 			; <UNDEFINED> instruction: 0xb7170213
     1d0:	00001742 	andeq	r1, r0, r2, asr #14
     1d4:	0300341f 	movweq	r3, #1055	; 0x41f
     1d8:	3b0b3a0e 	blcc	2cea18 <__bss_end__+0x2c42d8>
     1dc:	490b390b 	stmdbmi	fp, {r0, r1, r3, r8, fp, ip, sp}
     1e0:	00051c13 	andeq	r1, r5, r3, lsl ip
     1e4:	010b2000 	mrseq	r2, (UNDEF: 11)
     1e8:	00001755 	andeq	r1, r0, r5, asr r7
     1ec:	03012e21 	movweq	r2, #7713	; 0x1e21
     1f0:	3b0b3a0e 	blcc	2cea30 <__bss_end__+0x2c42f0>
     1f4:	270b390b 	strcs	r3, [fp, -fp, lsl #18]
     1f8:	12011119 	andne	r1, r1, #1073741830	; 0x40000006
     1fc:	97184006 	ldrls	r4, [r8, -r6]
     200:	13011942 	movwne	r1, #6466	; 0x1942
     204:	34220000 	strtcc	r0, [r2], #-0
     208:	490e0300 	stmdbmi	lr, {r8, r9}
     20c:	02193413 	andseq	r3, r9, #318767104	; 0x13000000
     210:	23000018 	movwcs	r0, #24
     214:	1755010b 	ldrbne	r0, [r5, -fp, lsl #2]
     218:	00001301 	andeq	r1, r0, r1, lsl #6
     21c:	03012e24 	movweq	r2, #7716	; 0x1e24
     220:	3b0b3a08 	blcc	2cea48 <__bss_end__+0x2c4308>
     224:	270b390b 	strcs	r3, [fp, -fp, lsl #18]
     228:	11134919 	tstne	r3, r9, lsl r9
     22c:	40061201 	andmi	r1, r6, r1, lsl #4
     230:	19429718 	stmdbne	r2, {r3, r4, r8, r9, sl, ip, pc}^
     234:	00001301 	andeq	r1, r0, r1, lsl #6
     238:	3f002e25 	svccc	0x00002e25
     23c:	6e193c19 	mrcvs	12, 0, r3, cr9, cr9, {0}
     240:	3a0e030e 	bcc	380e80 <__bss_end__+0x376740>
     244:	390b3b0b 	stmdbcc	fp, {r0, r1, r3, r8, r9, fp, ip, sp}
     248:	0000000b 	andeq	r0, r0, fp
     24c:	25011101 	strcs	r1, [r1, #-257]	; 0xfffffeff
     250:	030b130e 	movweq	r1, #45838	; 0xb30e
     254:	110e1b0e 	tstne	lr, lr, lsl #22
     258:	10061201 	andne	r1, r6, r1, lsl #4
     25c:	02000017 	andeq	r0, r0, #23, 0
     260:	0e030016 	mcreq	0, 0, r0, cr3, cr6, {0}
     264:	0b3b0b3a 	bleq	ec2f54 <__bss_end__+0xeb8814>
     268:	13490b39 	movtne	r0, #39737	; 0x9b39
     26c:	13030000 	movwne	r0, #12288	; 0x3000
     270:	0b0e0301 	bleq	380e7c <__bss_end__+0x37673c>
     274:	3b0b3a0b 	blcc	2ceaa8 <__bss_end__+0x2c4368>
     278:	0013010b 	andseq	r0, r3, fp, lsl #2
     27c:	000d0400 	andeq	r0, sp, r0, lsl #8
     280:	13490e03 	movtne	r0, #40451	; 0x9e03
     284:	19340b38 	ldmdbne	r4!, {r3, r4, r5, r8, r9, fp}
     288:	0f050000 	svceq	0x00050000
     28c:	000b0b00 	andeq	r0, fp, r0, lsl #22
     290:	00240600 	eoreq	r0, r4, r0, lsl #12
     294:	0b3e0b0b 	bleq	f82ec8 <__bss_end__+0xf78788>
     298:	00000803 	andeq	r0, r0, r3, lsl #16
     29c:	0b002407 	bleq	92c0 <and_in32>
     2a0:	030b3e0b 	movweq	r3, #48651	; 0xbe0b
     2a4:	0800000e 	stmdaeq	r0, {r1, r2, r3}
     2a8:	19270115 	stmdbne	r7!, {r0, r2, r4, r8}
     2ac:	13011349 	movwne	r1, #4937	; 0x1349
     2b0:	05090000 	streq	r0, [r9, #-0]
     2b4:	00134900 	andseq	r4, r3, r0, lsl #18
     2b8:	00340a00 	eorseq	r0, r4, r0, lsl #20
     2bc:	0b3a0e03 	bleq	e83ad0 <__bss_end__+0xe79390>
     2c0:	0b390b3b 	bleq	e42fb4 <__bss_end__+0xe38874>
     2c4:	193f1349 	ldmdbne	pc!, {r0, r3, r6, r8, r9, ip}	; <UNPREDICTABLE>
     2c8:	0000193c 	andeq	r1, r0, ip, lsr r9
     2cc:	0b000f0b 	bleq	3f00 <__code_start__-0x4100>
     2d0:	0013490b 	andseq	r4, r3, fp, lsl #18
     2d4:	00260c00 	eoreq	r0, r6, r0, lsl #24
     2d8:	00001349 	andeq	r1, r0, r9, asr #6
     2dc:	3f012e0d 	svccc	0x00012e0d
     2e0:	3a0e0319 	bcc	380f4c <__bss_end__+0x37680c>
     2e4:	390b3b0b 	stmdbcc	fp, {r0, r1, r3, r8, r9, fp, ip, sp}
     2e8:	4919270b 	ldmdbmi	r9, {r0, r1, r3, r8, r9, sl, sp}
     2ec:	12011113 	andne	r1, r1, #-1073741820	; 0xc0000004
     2f0:	97184006 	ldrls	r4, [r8, -r6]
     2f4:	13011942 	movwne	r1, #6466	; 0x1942
     2f8:	050e0000 	streq	r0, [lr, #-0]
     2fc:	3a080300 	bcc	200f04 <__bss_end__+0x1f67c4>
     300:	390b3b0b 	stmdbcc	fp, {r0, r1, r3, r8, r9, fp, ip, sp}
     304:	0213490b 	andseq	r4, r3, #180224	; 0x2c000
     308:	0f000018 	svceq	0x00000018
     30c:	00000018 	andeq	r0, r0, r8, lsl r0
     310:	03003410 	movweq	r3, #1040	; 0x410
     314:	3b0b3a08 	blcc	2ceb3c <__bss_end__+0x2c43fc>
     318:	490b390b 	stmdbmi	fp, {r0, r1, r3, r8, fp, ip, sp}
     31c:	00180213 	andseq	r0, r8, r3, lsl r2
     320:	00341100 	eorseq	r1, r4, r0, lsl #2
     324:	0b3a0e03 	bleq	e83b38 <__bss_end__+0xe793f8>
     328:	0b390b3b 	bleq	e4301c <__bss_end__+0xe388dc>
     32c:	18021349 	stmdane	r2, {r0, r3, r6, r8, r9, ip}
     330:	34120000 	ldrcc	r0, [r2], #-0
     334:	3a080300 	bcc	200f3c <__bss_end__+0x1f67fc>
     338:	390b3b0b 	stmdbcc	fp, {r0, r1, r3, r8, r9, fp, ip, sp}
     33c:	0213490b 	andseq	r4, r3, #180224	; 0x2c000
     340:	1742b717 	smlaldne	fp, r2, r7, r7
     344:	89130000 	ldmdbhi	r3, {}	; <UNPREDICTABLE>
     348:	11010182 	smlabbne	r1, r2, r1, r0
     34c:	01133101 	tsteq	r3, r1, lsl #2
     350:	14000013 	strne	r0, [r0], #-19	; 0xffffffed
     354:	0001828a 	andeq	r8, r1, sl, lsl #5
     358:	42911802 	addsmi	r1, r1, #131072	; 0x20000
     35c:	15000018 	strne	r0, [r0, #-24]	; 0xffffffe8
     360:	01018289 	smlabbeq	r1, r9, r2, r8
     364:	00000111 	andeq	r0, r0, r1, lsl r1
     368:	49010116 	stmdbmi	r1, {r1, r2, r4, r8}
     36c:	00130113 	andseq	r0, r3, r3, lsl r1
     370:	00211700 	eoreq	r1, r1, r0, lsl #14
     374:	052f1349 	streq	r1, [pc, #-841]!	; 33 <__code_start__-0x7fcd>
     378:	2e180000 	cdpcs	0, 1, cr0, cr8, cr0, {0}
     37c:	3c193f00 	ldccc	15, cr3, [r9], {-0}
     380:	030e6e19 	movweq	r6, #60953	; 0xee19
     384:	3b0b3a0e 	blcc	2cebc4 <__bss_end__+0x2c4484>
     388:	000b390b 	andeq	r3, fp, fp, lsl #18
     38c:	11010000 	mrsne	r0, (UNDEF: 1)
     390:	130e2501 	movwne	r2, #58625	; 0xe501
     394:	1b0e030b 	blne	380fc8 <__bss_end__+0x376888>
     398:	1201110e 	andne	r1, r1, #-2147483645	; 0x80000003
     39c:	00171006 	andseq	r1, r7, r6
     3a0:	00240200 	eoreq	r0, r4, r0, lsl #4
     3a4:	0b3e0b0b 	bleq	f82fd8 <__bss_end__+0xf78898>
     3a8:	00000803 	andeq	r0, r0, r3, lsl #16
     3ac:	0b002403 	bleq	93c0 <uart_can_getc+0x10>
     3b0:	030b3e0b 	movweq	r3, #48651	; 0xbe0b
     3b4:	0400000e 	streq	r0, [r0], #-14
     3b8:	19270115 	stmdbne	r7!, {r0, r2, r4, r8}
     3bc:	13011349 	movwne	r1, #4937	; 0x1349
     3c0:	05050000 	streq	r0, [r5, #-0]
     3c4:	00134900 	andseq	r4, r3, r0, lsl #18
     3c8:	00340600 	eorseq	r0, r4, r0, lsl #12
     3cc:	0b3a0e03 	bleq	e83be0 <__bss_end__+0xe794a0>
     3d0:	0b390b3b 	bleq	e430c4 <__bss_end__+0xe38984>
     3d4:	193f1349 	ldmdbne	pc!, {r0, r3, r6, r8, r9, ip}	; <UNPREDICTABLE>
     3d8:	0000193c 	andeq	r1, r0, ip, lsr r9
     3dc:	0b000f07 	bleq	4000 <__code_start__-0x4000>
     3e0:	0013490b 	andseq	r4, r3, fp, lsl #18
     3e4:	00260800 	eoreq	r0, r6, r0, lsl #16
     3e8:	00001349 	andeq	r1, r0, r9, asr #6
     3ec:	47003409 	strmi	r3, [r0, -r9, lsl #8]
     3f0:	3b0b3a13 	blcc	2cec44 <__bss_end__+0x2c4504>
     3f4:	020b390b 	andeq	r3, fp, #180224	; 0x2c000
     3f8:	0a000018 	beq	460 <__code_start__-0x7ba0>
     3fc:	193f012e 	ldmdbne	pc!, {r1, r2, r3, r5, r8}	; <UNPREDICTABLE>
     400:	0b3a0e03 	bleq	e83c14 <__bss_end__+0xe794d4>
     404:	0b390b3b 	bleq	e430f8 <__bss_end__+0xe389b8>
     408:	13491927 	movtne	r1, #39207	; 0x9927
     40c:	06120111 			; <UNDEFINED> instruction: 0x06120111
     410:	42961840 	addsmi	r1, r6, #64, 16	; 0x400000
     414:	0b000019 	bleq	480 <__code_start__-0x7b80>
     418:	08030005 	stmdaeq	r3, {r0, r2}
     41c:	0b3b0b3a 	bleq	ec310c <__bss_end__+0xeb89cc>
     420:	13490b39 	movtne	r0, #39737	; 0x9b39
     424:	42b71702 	adcsmi	r1, r7, #524288	; 0x80000
     428:	00000017 	andeq	r0, r0, r7, lsl r0
     42c:	25011101 	strcs	r1, [r1, #-257]	; 0xfffffeff
     430:	030b130e 	movweq	r1, #45838	; 0xb30e
     434:	110e1b0e 	tstne	lr, lr, lsl #22
     438:	10061201 	andne	r1, r6, r1, lsl #4
     43c:	02000017 	andeq	r0, r0, #23, 0
     440:	0b0b0024 	bleq	2c04d8 <__bss_end__+0x2b5d98>
     444:	08030b3e 	stmdaeq	r3, {r1, r2, r3, r4, r5, r8, r9, fp}
     448:	24030000 	strcs	r0, [r3], #-0
     44c:	3e0b0b00 	vmlacc.f64	d0, d11, d0
     450:	000e030b 	andeq	r0, lr, fp, lsl #6
     454:	00160400 	andseq	r0, r6, r0, lsl #8
     458:	0b3a0e03 	bleq	e83c6c <__bss_end__+0xe7952c>
     45c:	0b390b3b 	bleq	e43150 <__bss_end__+0xe38a10>
     460:	00001349 	andeq	r1, r0, r9, asr #6
     464:	27011505 	strcs	r1, [r1, -r5, lsl #10]
     468:	01134919 	tsteq	r3, r9, lsl r9
     46c:	06000013 			; <UNDEFINED> instruction: 0x06000013
     470:	13490005 	movtne	r0, #36869	; 0x9005
     474:	34070000 	strcc	r0, [r7], #-0
     478:	3a0e0300 	bcc	381080 <__bss_end__+0x376940>
     47c:	390b3b0b 	stmdbcc	fp, {r0, r1, r3, r8, r9, fp, ip, sp}
     480:	3f13490b 	svccc	0x0013490b
     484:	00193c19 	andseq	r3, r9, r9, lsl ip
     488:	000f0800 	andeq	r0, pc, r0, lsl #16
     48c:	13490b0b 	movtne	r0, #39691	; 0x9b0b
     490:	26090000 	strcs	r0, [r9], -r0
     494:	00134900 	andseq	r4, r3, r0, lsl #18
     498:	01130a00 	tsteq	r3, r0, lsl #20
     49c:	0b0b0e03 	bleq	2c3cb0 <__bss_end__+0x2b9570>
     4a0:	0b3b0b3a 	bleq	ec3190 <__bss_end__+0xeb8a50>
     4a4:	00001301 	andeq	r1, r0, r1, lsl #6
     4a8:	03000d0b 	movweq	r0, #3339	; 0xd0b
     4ac:	3813490e 	ldmdacc	r3, {r1, r2, r3, r8, fp, lr}
     4b0:	0019340b 	andseq	r3, r9, fp, lsl #8
     4b4:	000f0c00 	andeq	r0, pc, r0, lsl #24
     4b8:	00000b0b 	andeq	r0, r0, fp, lsl #22
     4bc:	3f012e0d 	svccc	0x00012e0d
     4c0:	3a0e0319 	bcc	38112c <__bss_end__+0x3769ec>
     4c4:	390b3b0b 	stmdbcc	fp, {r0, r1, r3, r8, r9, fp, ip, sp}
     4c8:	4919270b 	ldmdbmi	r9, {r0, r1, r3, r8, r9, sl, sp}
     4cc:	12011113 	andne	r1, r1, #-1073741820	; 0xc0000004
     4d0:	97184006 	ldrls	r4, [r8, -r6]
     4d4:	13011942 	movwne	r1, #6466	; 0x1942
     4d8:	050e0000 	streq	r0, [lr, #-0]
     4dc:	3a080300 	bcc	2010e4 <__bss_end__+0x1f69a4>
     4e0:	390b3b0b 	stmdbcc	fp, {r0, r1, r3, r8, r9, fp, ip, sp}
     4e4:	0213490b 	andseq	r4, r3, #180224	; 0x2c000
     4e8:	1742b717 	smlaldne	fp, r2, r7, r7
     4ec:	050f0000 	streq	r0, [pc, #-0]	; 4f4 <__code_start__-0x7b0c>
     4f0:	3a0e0300 	bcc	3810f8 <__bss_end__+0x3769b8>
     4f4:	390b3b0b 	stmdbcc	fp, {r0, r1, r3, r8, r9, fp, ip, sp}
     4f8:	0213490b 	andseq	r4, r3, #180224	; 0x2c000
     4fc:	10000018 	andne	r0, r0, r8, lsl r0
     500:	08030034 	stmdaeq	r3, {r2, r4, r5}
     504:	0b3b0b3a 	bleq	ec31f4 <__bss_end__+0xeb8ab4>
     508:	13490b39 	movtne	r0, #39737	; 0x9b39
     50c:	42b71702 	adcsmi	r1, r7, #524288	; 0x80000
     510:	11000017 	tstne	r0, r7, lsl r0
     514:	0e030034 	mcreq	0, 0, r0, cr3, cr4, {1}
     518:	0b3b0b3a 	bleq	ec3208 <__bss_end__+0xeb8ac8>
     51c:	13490b39 	movtne	r0, #39737	; 0x9b39
     520:	42b71702 	adcsmi	r1, r7, #524288	; 0x80000
     524:	12000017 	andne	r0, r0, #23, 0
     528:	0e030034 	mcreq	0, 0, r0, cr3, cr4, {1}
     52c:	19341349 	ldmdbne	r4!, {r0, r3, r6, r8, r9, ip}
     530:	00001802 	andeq	r1, r0, r2, lsl #16
     534:	11010b13 	tstne	r1, r3, lsl fp
     538:	00061201 	andeq	r1, r6, r1, lsl #4
     53c:	00341400 	eorseq	r1, r4, r0, lsl #8
     540:	0b3a0803 	bleq	e82554 <__bss_end__+0xe77e14>
     544:	0b390b3b 	bleq	e43238 <__bss_end__+0xe38af8>
     548:	18021349 	stmdane	r2, {r0, r3, r6, r8, r9, ip}
     54c:	34150000 	ldrcc	r0, [r5], #-0
     550:	3a0e0300 	bcc	381158 <__bss_end__+0x376a18>
     554:	390b3b0b 	stmdbcc	fp, {r0, r1, r3, r8, r9, fp, ip, sp}
     558:	0213490b 	andseq	r4, r3, #180224	; 0x2c000
     55c:	16000018 			; <UNDEFINED> instruction: 0x16000018
     560:	0111010b 	tsteq	r1, fp, lsl #2
     564:	13010612 	movwne	r0, #5650	; 0x1612
     568:	34170000 	ldrcc	r0, [r7], #-0
     56c:	3a080300 	bcc	201174 <__bss_end__+0x1f6a34>
     570:	390b3b0b 	stmdbcc	fp, {r0, r1, r3, r8, r9, fp, ip, sp}
     574:	0013490b 	andseq	r4, r3, fp, lsl #18
     578:	82891800 	addhi	r1, r9, #0, 16
     57c:	01110101 	tsteq	r1, r1, lsl #2
     580:	13011331 	movwne	r1, #4913	; 0x1331
     584:	8a190000 	bhi	64058c <__bss_end__+0x635e4c>
     588:	02000182 	andeq	r0, r0, #-2147483616	; 0x80000020
     58c:	18429118 	stmdane	r2, {r3, r4, r8, ip, pc}^
     590:	891a0000 	ldmdbhi	sl, {}	; <UNPREDICTABLE>
     594:	11000182 	smlabbne	r0, r2, r1, r0
     598:	00133101 	andseq	r3, r3, r1, lsl #2
     59c:	82891b00 	addhi	r1, r9, #0, 22
     5a0:	01110101 	tsteq	r1, r1, lsl #2
     5a4:	00001301 	andeq	r1, r0, r1, lsl #6
     5a8:	4901011c 	stmdbmi	r1, {r2, r3, r4, r8}
     5ac:	00130113 	andseq	r0, r3, r3, lsl r1
     5b0:	00211d00 	eoreq	r1, r1, r0, lsl #26
     5b4:	0b2f1349 	bleq	bc52e0 <__bss_end__+0xbbaba0>
     5b8:	2e1e0000 	cdpcs	0, 1, cr0, cr14, cr0, {0}
     5bc:	3a0e0301 	bcc	3811c8 <__bss_end__+0x376a88>
     5c0:	390b3b0b 	stmdbcc	fp, {r0, r1, r3, r8, r9, fp, ip, sp}
     5c4:	4919270b 	ldmdbmi	r9, {r0, r1, r3, r8, r9, sl, sp}
     5c8:	12011113 	andne	r1, r1, #-1073741820	; 0xc0000004
     5cc:	97184006 	ldrls	r4, [r8, -r6]
     5d0:	13011942 	movwne	r1, #6466	; 0x1942
     5d4:	051f0000 	ldreq	r0, [pc, #-0]	; 5dc <__code_start__-0x7a24>
     5d8:	3a0e0300 	bcc	3811e0 <__bss_end__+0x376aa0>
     5dc:	390b3b0b 	stmdbcc	fp, {r0, r1, r3, r8, r9, fp, ip, sp}
     5e0:	0213490b 	andseq	r4, r3, #180224	; 0x2c000
     5e4:	1742b717 	smlaldne	fp, r2, r7, r7
     5e8:	2e200000 	cdpcs	0, 2, cr0, cr0, cr0, {0}
     5ec:	3a080301 	bcc	2011f8 <__bss_end__+0x1f6ab8>
     5f0:	390b3b0b 	stmdbcc	fp, {r0, r1, r3, r8, r9, fp, ip, sp}
     5f4:	4919270b 	ldmdbmi	r9, {r0, r1, r3, r8, r9, sl, sp}
     5f8:	12011113 	andne	r1, r1, #-1073741820	; 0xc0000004
     5fc:	97184006 	ldrls	r4, [r8, -r6]
     600:	13011942 	movwne	r1, #6466	; 0x1942
     604:	2e210000 	cdpcs	0, 2, cr0, cr1, cr0, {0}
     608:	03193f01 	tsteq	r9, #1, 30
     60c:	3b0b3a0e 	blcc	2cee4c <__bss_end__+0x2c470c>
     610:	270b390b 	strcs	r3, [fp, -fp, lsl #18]
     614:	12011119 	andne	r1, r1, #1073741830	; 0x40000006
     618:	97184006 	ldrls	r4, [r8, -r6]
     61c:	13011942 	movwne	r1, #6466	; 0x1942
     620:	2e220000 	cdpcs	0, 2, cr0, cr2, cr0, {0}
     624:	3c193f00 	ldccc	15, cr3, [r9], {-0}
     628:	030e6e19 	movweq	r6, #60953	; 0xee19
     62c:	3b0b3a0e 	blcc	2cee6c <__bss_end__+0x2c472c>
     630:	000b390b 	andeq	r3, fp, fp, lsl #18
     634:	11010000 	mrsne	r0, (UNDEF: 1)
     638:	130e2501 	movwne	r2, #58625	; 0xe501
     63c:	1b0e030b 	blne	381270 <__bss_end__+0x376b30>
     640:	1201110e 	andne	r1, r1, #-2147483645	; 0x80000003
     644:	00171006 	andseq	r1, r7, r6
     648:	00240200 	eoreq	r0, r4, r0, lsl #4
     64c:	0b3e0b0b 	bleq	f83280 <__bss_end__+0xf78b40>
     650:	00000803 	andeq	r0, r0, r3, lsl #16
     654:	0b002403 	bleq	9668 <strcmp>
     658:	030b3e0b 	movweq	r3, #48651	; 0xbe0b
     65c:	0400000e 	streq	r0, [r0], #-14
     660:	19270115 	stmdbne	r7!, {r0, r2, r4, r8}
     664:	13011349 	movwne	r1, #4937	; 0x1349
     668:	05050000 	streq	r0, [r5, #-0]
     66c:	00134900 	andseq	r4, r3, r0, lsl #18
     670:	00340600 	eorseq	r0, r4, r0, lsl #12
     674:	0b3a0e03 	bleq	e83e88 <__bss_end__+0xe79748>
     678:	0b390b3b 	bleq	e4336c <__bss_end__+0xe38c2c>
     67c:	193f1349 	ldmdbne	pc!, {r0, r3, r6, r8, r9, ip}	; <UNPREDICTABLE>
     680:	0000193c 	andeq	r1, r0, ip, lsr r9
     684:	0b000f07 	bleq	42a8 <__code_start__-0x3d58>
     688:	0013490b 	andseq	r4, r3, fp, lsl #18
     68c:	00260800 	eoreq	r0, r6, r0, lsl #16
     690:	00001349 	andeq	r1, r0, r9, asr #6
     694:	3f012e09 	svccc	0x00012e09
     698:	3a0e0319 	bcc	381304 <__bss_end__+0x376bc4>
     69c:	390b3b0b 	stmdbcc	fp, {r0, r1, r3, r8, r9, fp, ip, sp}
     6a0:	8719270b 	ldrhi	r2, [r9, -fp, lsl #14]
     6a4:	01111901 	tsteq	r1, r1, lsl #18
     6a8:	18400612 	stmdane	r0, {r1, r4, r9, sl}^
     6ac:	01194297 			; <UNDEFINED> instruction: 0x01194297
     6b0:	0a000013 	beq	704 <__code_start__-0x78fc>
     6b4:	01018289 	smlabbeq	r1, r9, r2, r8
     6b8:	13010111 	movwne	r0, #4369	; 0x1111
     6bc:	8a0b0000 	bhi	2c06c4 <__bss_end__+0x2b5f84>
     6c0:	02000182 	andeq	r0, r0, #-2147483616	; 0x80000020
     6c4:	18429118 	stmdane	r2, {r3, r4, r8, ip, pc}^
     6c8:	890c0000 	stmdbhi	ip, {}	; <UNPREDICTABLE>
     6cc:	11000182 	smlabbne	r0, r2, r1, r0
     6d0:	00133101 	andseq	r3, r3, r1, lsl #2
     6d4:	82890d00 	addhi	r0, r9, #0, 26
     6d8:	01110101 	tsteq	r1, r1, lsl #2
     6dc:	13011331 	movwne	r1, #4913	; 0x1331
     6e0:	2e0e0000 	cdpcs	0, 0, cr0, cr14, cr0, {0}
     6e4:	3c193f00 	ldccc	15, cr3, [r9], {-0}
     6e8:	030e6e19 	movweq	r6, #60953	; 0xee19
     6ec:	3b0b3a0e 	blcc	2cef2c <__bss_end__+0x2c47ec>
     6f0:	000b390b 	andeq	r3, fp, fp, lsl #18
     6f4:	11010000 	mrsne	r0, (UNDEF: 1)
     6f8:	130e2501 	movwne	r2, #58625	; 0xe501
     6fc:	1b0e030b 	blne	381330 <__bss_end__+0x376bf0>
     700:	1201110e 	andne	r1, r1, #-2147483645	; 0x80000003
     704:	00171006 	andseq	r1, r7, r6
     708:	00240200 	eoreq	r0, r4, r0, lsl #4
     70c:	0b3e0b0b 	bleq	f83340 <__bss_end__+0xf78c00>
     710:	00000803 	andeq	r0, r0, r3, lsl #16
     714:	0b002403 	bleq	9728 <__code_end__+0x2c>
     718:	030b3e0b 	movweq	r3, #48651	; 0xbe0b
     71c:	0400000e 	streq	r0, [r0], #-14
     720:	19270115 	stmdbne	r7!, {r0, r2, r4, r8}
     724:	13011349 	movwne	r1, #4937	; 0x1349
     728:	05050000 	streq	r0, [r5, #-0]
     72c:	00134900 	andseq	r4, r3, r0, lsl #18
     730:	00340600 	eorseq	r0, r4, r0, lsl #12
     734:	0b3a0e03 	bleq	e83f48 <__bss_end__+0xe79808>
     738:	0b390b3b 	bleq	e4342c <__bss_end__+0xe38cec>
     73c:	193f1349 	ldmdbne	pc!, {r0, r3, r6, r8, r9, ip}	; <UNPREDICTABLE>
     740:	0000193c 	andeq	r1, r0, ip, lsr r9
     744:	0b000f07 	bleq	4368 <__code_start__-0x3c98>
     748:	0013490b 	andseq	r4, r3, fp, lsl #18
     74c:	00260800 	eoreq	r0, r6, r0, lsl #16
     750:	00001349 	andeq	r1, r0, r9, asr #6
     754:	3f012e09 	svccc	0x00012e09
     758:	3a0e0319 	bcc	3813c4 <__bss_end__+0x376c84>
     75c:	390b3b0b 	stmdbcc	fp, {r0, r1, r3, r8, r9, fp, ip, sp}
     760:	1201110b 	andne	r1, r1, #-1073741822	; 0xc0000002
     764:	97184006 	ldrls	r4, [r8, -r6]
     768:	13011942 	movwne	r1, #6466	; 0x1942
     76c:	2e0a0000 	cdpcs	0, 0, cr0, cr10, cr0, {0}
     770:	03193f00 	tsteq	r9, #0, 30
     774:	3b0b3a0e 	blcc	2cefb4 <__bss_end__+0x2c4874>
     778:	270b390b 	strcs	r3, [fp, -fp, lsl #18]
     77c:	00193c19 	andseq	r3, r9, r9, lsl ip
     780:	00340b00 	eorseq	r0, r4, r0, lsl #22
     784:	0b3a0803 	bleq	e82798 <__bss_end__+0xe78058>
     788:	0b390b3b 	bleq	e4347c <__bss_end__+0xe38d3c>
     78c:	17021349 	strne	r1, [r2, -r9, asr #6]
     790:	001742b7 			; <UNDEFINED> instruction: 0x001742b7
     794:	00340c00 	eorseq	r0, r4, r0, lsl #24
     798:	0b3a0e03 	bleq	e83fac <__bss_end__+0xe7986c>
     79c:	0b390b3b 	bleq	e43490 <__bss_end__+0xe38d50>
     7a0:	00001349 	andeq	r1, r0, r9, asr #6
     7a4:	11010b0d 	tstne	r1, sp, lsl #22
     7a8:	01061201 	tsteq	r6, r1, lsl #4
     7ac:	0e000013 	mcreq	0, 0, r0, cr0, cr3, {0}
     7b0:	08030034 	stmdaeq	r3, {r2, r4, r5}
     7b4:	0b3b0b3a 	bleq	ec34a4 <__bss_end__+0xeb8d64>
     7b8:	13490b39 	movtne	r0, #39737	; 0x9b39
     7bc:	00000b1c 	andeq	r0, r0, ip, lsl fp
     7c0:	0182890f 	orreq	r8, r2, pc, lsl #18
     7c4:	31011100 	mrscc	r1, (UNDEF: 17)
     7c8:	10000013 	andne	r0, r0, r3, lsl r0
     7cc:	193f002e 	ldmdbne	pc!, {r1, r2, r3, r5}	; <UNPREDICTABLE>
     7d0:	0e6e193c 			; <UNDEFINED> instruction: 0x0e6e193c
     7d4:	0b3a0e03 	bleq	e83fe8 <__bss_end__+0xe798a8>
     7d8:	0b39053b 	bleq	e41ccc <__bss_end__+0xe3758c>
     7dc:	2e110000 	cdpcs	0, 1, cr0, cr1, cr0, {0}
     7e0:	3c193f00 	ldccc	15, cr3, [r9], {-0}
     7e4:	030e6e19 	movweq	r6, #60953	; 0xee19
     7e8:	3b0b3a0e 	blcc	2cf028 <__bss_end__+0x2c48e8>
     7ec:	000b390b 	andeq	r3, fp, fp, lsl #18
     7f0:	11010000 	mrsne	r0, (UNDEF: 1)
     7f4:	130e2501 	movwne	r2, #58625	; 0xe501
     7f8:	1b0e030b 	blne	38142c <__bss_end__+0x376cec>
     7fc:	1201110e 	andne	r1, r1, #-2147483645	; 0x80000003
     800:	00171006 	andseq	r1, r7, r6
     804:	00240200 	eoreq	r0, r4, r0, lsl #4
     808:	0b3e0b0b 	bleq	f8343c <__bss_end__+0xf78cfc>
     80c:	00000803 	andeq	r0, r0, r3, lsl #16
     810:	0b002403 	bleq	9824 <__code_end__+0x128>
     814:	030b3e0b 	movweq	r3, #48651	; 0xbe0b
     818:	0400000e 	streq	r0, [r0], #-14
     81c:	19270115 	stmdbne	r7!, {r0, r2, r4, r8}
     820:	13011349 	movwne	r1, #4937	; 0x1349
     824:	05050000 	streq	r0, [r5, #-0]
     828:	00134900 	andseq	r4, r3, r0, lsl #18
     82c:	00340600 	eorseq	r0, r4, r0, lsl #12
     830:	0b3a0e03 	bleq	e84044 <__bss_end__+0xe79904>
     834:	0b390b3b 	bleq	e43528 <__bss_end__+0xe38de8>
     838:	193f1349 	ldmdbne	pc!, {r0, r3, r6, r8, r9, ip}	; <UNPREDICTABLE>
     83c:	0000193c 	andeq	r1, r0, ip, lsr r9
     840:	0b000f07 	bleq	4464 <__code_start__-0x3b9c>
     844:	0013490b 	andseq	r4, r3, fp, lsl #18
     848:	00260800 	eoreq	r0, r6, r0, lsl #16
     84c:	00001349 	andeq	r1, r0, r9, asr #6
     850:	3f002e09 	svccc	0x00002e09
     854:	3a0e0319 	bcc	3814c0 <__bss_end__+0x376d80>
     858:	390b3b0b 	stmdbcc	fp, {r0, r1, r3, r8, r9, fp, ip, sp}
     85c:	1119270b 	tstne	r9, fp, lsl #14
     860:	40061201 	andmi	r1, r6, r1, lsl #4
     864:	19429718 	stmdbne	r2, {r3, r4, r8, r9, sl, ip, pc}^
     868:	01000000 	mrseq	r0, (UNDEF: 0)
     86c:	0e250111 	mcreq	1, 1, r0, cr5, cr1, {0}
     870:	0e030b13 	vmoveq.32	d3[0], r0
     874:	17550e1b 	smmlane	r5, fp, lr, r0
     878:	17100111 			; <UNDEFINED> instruction: 0x17100111
     87c:	24020000 	strcs	r0, [r2], #-0
     880:	3e0b0b00 	vmlacc.f64	d0, d11, d0
     884:	0008030b 	andeq	r0, r8, fp, lsl #6
     888:	00260300 	eoreq	r0, r6, r0, lsl #6
     88c:	00001349 	andeq	r1, r0, r9, asr #6
     890:	0b002404 	bleq	98a8 <__code_end__+0x1ac>
     894:	030b3e0b 	movweq	r3, #48651	; 0xbe0b
     898:	0500000e 	streq	r0, [r0, #-14]
     89c:	19270115 	stmdbne	r7!, {r0, r2, r4, r8}
     8a0:	13011349 	movwne	r1, #4937	; 0x1349
     8a4:	05060000 	streq	r0, [r6, #-0]
     8a8:	00134900 	andseq	r4, r3, r0, lsl #18
     8ac:	00340700 	eorseq	r0, r4, r0, lsl #14
     8b0:	0b3a0e03 	bleq	e840c4 <__bss_end__+0xe79984>
     8b4:	0b390b3b 	bleq	e435a8 <__bss_end__+0xe38e68>
     8b8:	193f1349 	ldmdbne	pc!, {r0, r3, r6, r8, r9, ip}	; <UNPREDICTABLE>
     8bc:	0000193c 	andeq	r1, r0, ip, lsr r9
     8c0:	0b000f08 	bleq	44e8 <__code_start__-0x3b18>
     8c4:	0013490b 	andseq	r4, r3, fp, lsl #18
     8c8:	00340900 	eorseq	r0, r4, r0, lsl #18
     8cc:	0b3a0e03 	bleq	e840e0 <__bss_end__+0xe799a0>
     8d0:	0b390b3b 	bleq	e435c4 <__bss_end__+0xe38e84>
     8d4:	00001349 	andeq	r1, r0, r9, asr #6
     8d8:	3f012e0a 	svccc	0x00012e0a
     8dc:	3a0e0319 	bcc	381548 <__bss_end__+0x376e08>
     8e0:	390b3b0b 	stmdbcc	fp, {r0, r1, r3, r8, r9, fp, ip, sp}
     8e4:	8719270b 	ldrhi	r2, [r9, -fp, lsl #14]
     8e8:	01111901 	tsteq	r1, r1, lsl #18
     8ec:	18400612 	stmdane	r0, {r1, r4, r9, sl}^
     8f0:	01194297 			; <UNDEFINED> instruction: 0x01194297
     8f4:	0b000013 	bleq	948 <__code_start__-0x76b8>
     8f8:	0e030034 	mcreq	0, 0, r0, cr3, cr4, {1}
     8fc:	0b3b0b3a 	bleq	ec35ec <__bss_end__+0xeb8eac>
     900:	13490b39 	movtne	r0, #39737	; 0x9b39
     904:	42b71702 	adcsmi	r1, r7, #524288	; 0x80000
     908:	0c000017 	stceq	0, cr0, [r0], {23}
     90c:	00018289 	andeq	r8, r1, r9, lsl #5
     910:	13310111 	teqne	r1, #1073741828	; 0x40000004
     914:	890d0000 	stmdbhi	sp, {}	; <UNPREDICTABLE>
     918:	11010182 	smlabbne	r1, r2, r1, r0
     91c:	01133101 	tsteq	r3, r1, lsl #2
     920:	0e000013 	mcreq	0, 0, r0, cr0, cr3, {0}
     924:	0001828a 	andeq	r8, r1, sl, lsl #5
     928:	42911802 	addsmi	r1, r1, #131072	; 0x20000
     92c:	0f000018 	svceq	0x00000018
     930:	193f012e 	ldmdbne	pc!, {r1, r2, r3, r5, r8}	; <UNPREDICTABLE>
     934:	0b3a0e03 	bleq	e84148 <__bss_end__+0xe79a08>
     938:	0b390b3b 	bleq	e4362c <__bss_end__+0xe38eec>
     93c:	01111927 	tsteq	r1, r7, lsr #18
     940:	18400612 	stmdane	r0, {r1, r4, r9, sl}^
     944:	01194297 			; <UNDEFINED> instruction: 0x01194297
     948:	10000013 	andne	r0, r0, r3, lsl r0
     94c:	193f012e 	ldmdbne	pc!, {r1, r2, r3, r5, r8}	; <UNPREDICTABLE>
     950:	0b3a0e03 	bleq	e84164 <__bss_end__+0xe79a24>
     954:	0b390b3b 	bleq	e43648 <__bss_end__+0xe38f08>
     958:	13491927 	movtne	r1, #39207	; 0x9927
     95c:	06120111 			; <UNDEFINED> instruction: 0x06120111
     960:	42971840 	addsmi	r1, r7, #64, 16	; 0x400000
     964:	00130119 	andseq	r0, r3, r9, lsl r1
     968:	002e1100 	eoreq	r1, lr, r0, lsl #2
     96c:	193c193f 	ldmdbne	ip!, {r0, r1, r2, r3, r4, r5, r8, fp, ip}
     970:	0e030e6e 	cdpeq	14, 0, cr0, cr3, cr14, {3}
     974:	053b0b3a 	ldreq	r0, [fp, #-2874]!	; 0xfffff4c6
     978:	00000b39 	andeq	r0, r0, r9, lsr fp
     97c:	3f002e12 	svccc	0x00002e12
     980:	6e193c19 	mrcvs	12, 0, r3, cr9, cr9, {0}
     984:	3a0e030e 	bcc	3815c4 <__bss_end__+0x376e84>
     988:	390b3b0b 	stmdbcc	fp, {r0, r1, r3, r8, r9, fp, ip, sp}
     98c:	0000000b 	andeq	r0, r0, fp
     990:	25011101 	strcs	r1, [r1, #-257]	; 0xfffffeff
     994:	030b130e 	movweq	r1, #45838	; 0xb30e
     998:	110e1b0e 	tstne	lr, lr, lsl #22
     99c:	10061201 	andne	r1, r6, r1, lsl #4
     9a0:	02000017 	andeq	r0, r0, #23, 0
     9a4:	0b0b0024 	bleq	2c0a3c <__bss_end__+0x2b62fc>
     9a8:	08030b3e 	stmdaeq	r3, {r1, r2, r3, r4, r5, r8, r9, fp}
     9ac:	24030000 	strcs	r0, [r3], #-0
     9b0:	3e0b0b00 	vmlacc.f64	d0, d11, d0
     9b4:	000e030b 	andeq	r0, lr, fp, lsl #6
     9b8:	01150400 	tsteq	r5, r0, lsl #8
     9bc:	13491927 	movtne	r1, #39207	; 0x9927
     9c0:	00001301 	andeq	r1, r0, r1, lsl #6
     9c4:	49000505 	stmdbmi	r0, {r0, r2, r8, sl}
     9c8:	06000013 			; <UNDEFINED> instruction: 0x06000013
     9cc:	0e030034 	mcreq	0, 0, r0, cr3, cr4, {1}
     9d0:	0b3b0b3a 	bleq	ec36c0 <__bss_end__+0xeb8f80>
     9d4:	13490b39 	movtne	r0, #39737	; 0x9b39
     9d8:	193c193f 	ldmdbne	ip!, {r0, r1, r2, r3, r4, r5, r8, fp, ip}
     9dc:	0f070000 	svceq	0x00070000
     9e0:	490b0b00 	stmdbmi	fp, {r8, r9, fp}
     9e4:	08000013 	stmdaeq	r0, {r0, r1, r4}
     9e8:	13490026 	movtne	r0, #36902	; 0x9026
     9ec:	2e090000 	cdpcs	0, 0, cr0, cr9, cr0, {0}
     9f0:	03193f01 	tsteq	r9, #1, 30
     9f4:	3b0b3a0e 	blcc	2cf234 <__bss_end__+0x2c4af4>
     9f8:	270b390b 	strcs	r3, [fp, -fp, lsl #18]
     9fc:	12011119 	andne	r1, r1, #1073741830	; 0x40000006
     a00:	97184006 	ldrls	r4, [r8, -r6]
     a04:	13011942 	movwne	r1, #6466	; 0x1942
     a08:	050a0000 	streq	r0, [sl, #-0]
     a0c:	3a080300 	bcc	201614 <__bss_end__+0x1f6ed4>
     a10:	390b3b0b 	stmdbcc	fp, {r0, r1, r3, r8, r9, fp, ip, sp}
     a14:	0213490b 	andseq	r4, r3, #180224	; 0x2c000
     a18:	1742b717 	smlaldne	fp, r2, r7, r7
     a1c:	890b0000 	stmdbhi	fp, {}	; <UNPREDICTABLE>
     a20:	11010182 	smlabbne	r1, r2, r1, r0
     a24:	00133101 	andseq	r3, r3, r1, lsl #2
     a28:	828a0c00 	addhi	r0, sl, #0, 24
     a2c:	18020001 	stmdane	r2, {r0}
     a30:	00184291 	mulseq	r8, r1, r2
     a34:	00340d00 	eorseq	r0, r4, r0, lsl #26
     a38:	0b3a0803 	bleq	e82a4c <__bss_end__+0xe7830c>
     a3c:	0b390b3b 	bleq	e43730 <__bss_end__+0xe38ff0>
     a40:	17021349 	strne	r1, [r2, -r9, asr #6]
     a44:	001742b7 			; <UNDEFINED> instruction: 0x001742b7
     a48:	010b0e00 	tsteq	fp, r0, lsl #28
     a4c:	06120111 			; <UNDEFINED> instruction: 0x06120111
     a50:	00001301 	andeq	r1, r0, r1, lsl #6
     a54:	0182890f 	orreq	r8, r2, pc, lsl #18
     a58:	31011100 	mrscc	r1, (UNDEF: 17)
     a5c:	10000013 	andne	r0, r0, r3, lsl r0
     a60:	193f012e 	ldmdbne	pc!, {r1, r2, r3, r5, r8}	; <UNPREDICTABLE>
     a64:	0b3a0e03 	bleq	e84278 <__bss_end__+0xe79b38>
     a68:	0b390b3b 	bleq	e4375c <__bss_end__+0xe3901c>
     a6c:	13491927 	movtne	r1, #39207	; 0x9927
     a70:	06120111 			; <UNDEFINED> instruction: 0x06120111
     a74:	42971840 	addsmi	r1, r7, #64, 16	; 0x400000
     a78:	00130119 	andseq	r0, r3, r9, lsl r1
     a7c:	002e1100 	eoreq	r1, lr, r0, lsl #2
     a80:	193c193f 	ldmdbne	ip!, {r0, r1, r2, r3, r4, r5, r8, fp, ip}
     a84:	0e030e6e 	cdpeq	14, 0, cr0, cr3, cr14, {3}
     a88:	0b3b0b3a 	bleq	ec3778 <__bss_end__+0xeb9038>
     a8c:	00000b39 	andeq	r0, r0, r9, lsr fp
     a90:	01110100 	tsteq	r1, r0, lsl #2
     a94:	0b130e25 	bleq	4c4330 <__bss_end__+0x4b9bf0>
     a98:	0e1b0e03 	cdpeq	14, 1, cr0, cr11, cr3, {0}
     a9c:	06120111 			; <UNDEFINED> instruction: 0x06120111
     aa0:	00001710 	andeq	r1, r0, r0, lsl r7
     aa4:	0b002402 	bleq	9ab4 <__FUNCTION__.4030+0x20>
     aa8:	030b3e0b 	movweq	r3, #48651	; 0xbe0b
     aac:	03000008 	movweq	r0, #8
     ab0:	0b0b0024 	bleq	2c0b48 <__bss_end__+0x2b6408>
     ab4:	0e030b3e 	vmoveq.16	d3[0], r0
     ab8:	26040000 	strcs	r0, [r4], -r0
     abc:	00134900 	andseq	r4, r3, r0, lsl #18
     ac0:	00160500 	andseq	r0, r6, r0, lsl #10
     ac4:	0b3a0e03 	bleq	e842d8 <__bss_end__+0xe79b98>
     ac8:	0b390b3b 	bleq	e437bc <__bss_end__+0xe3907c>
     acc:	00001349 	andeq	r1, r0, r9, asr #6
     ad0:	3e010406 	cdpcc	4, 0, cr0, cr1, cr6, {0}
     ad4:	490b0b0b 	stmdbmi	fp, {r0, r1, r3, r8, r9, fp}
     ad8:	3b0b3a13 	blcc	2cf32c <__bss_end__+0x2c4bec>
     adc:	010b390b 	tsteq	fp, fp, lsl #18
     ae0:	07000013 	smladeq	r0, r3, r0, r0
     ae4:	0e030028 	cdpeq	0, 0, cr0, cr3, cr8, {1}
     ae8:	00000b1c 	andeq	r0, r0, ip, lsl fp
     aec:	03003408 	movweq	r3, #1032	; 0x408
     af0:	3b0b3a0e 	blcc	2cf330 <__bss_end__+0x2c4bf0>
     af4:	490b390b 	stmdbmi	fp, {r0, r1, r3, r8, fp, ip, sp}
     af8:	00061c13 	andeq	r1, r6, r3, lsl ip
     afc:	012e0900 			; <UNDEFINED> instruction: 0x012e0900
     b00:	0e03193f 			; <UNDEFINED> instruction: 0x0e03193f
     b04:	0b3b0b3a 	bleq	ec37f4 <__bss_end__+0xeb90b4>
     b08:	19270b39 	stmdbne	r7!, {r0, r3, r4, r5, r8, r9, fp}
     b0c:	01111349 	tsteq	r1, r9, asr #6
     b10:	18400612 	stmdane	r0, {r1, r4, r9, sl}^
     b14:	01194297 			; <UNDEFINED> instruction: 0x01194297
     b18:	0a000013 	beq	b6c <__code_start__-0x7494>
     b1c:	08030005 	stmdaeq	r3, {r0, r2}
     b20:	0b3b0b3a 	bleq	ec3810 <__bss_end__+0xeb90d0>
     b24:	13490b39 	movtne	r0, #39737	; 0x9b39
     b28:	42b71702 	adcsmi	r1, r7, #524288	; 0x80000
     b2c:	0b000017 	bleq	b90 <__code_start__-0x7470>
     b30:	0e030034 	mcreq	0, 0, r0, cr3, cr4, {1}
     b34:	0b3b0b3a 	bleq	ec3824 <__bss_end__+0xeb90e4>
     b38:	13490b39 	movtne	r0, #39737	; 0x9b39
     b3c:	42b71702 	adcsmi	r1, r7, #524288	; 0x80000
     b40:	0c000017 	stceq	0, cr0, [r0], {23}
     b44:	08030034 	stmdaeq	r3, {r2, r4, r5}
     b48:	0b3b0b3a 	bleq	ec3838 <__bss_end__+0xeb90f8>
     b4c:	13490b39 	movtne	r0, #39737	; 0x9b39
     b50:	42b71702 	adcsmi	r1, r7, #524288	; 0x80000
     b54:	0d000017 	stceq	0, cr0, [r0, #-92]	; 0xffffffa4
     b58:	01018289 	smlabbeq	r1, r9, r2, r8
     b5c:	13310111 	teqne	r1, #1073741828	; 0x40000004
     b60:	8a0e0000 	bhi	380b68 <__bss_end__+0x376428>
     b64:	02000182 	andeq	r0, r0, #-2147483616	; 0x80000020
     b68:	18429118 	stmdane	r2, {r3, r4, r8, ip, pc}^
     b6c:	2e0f0000 	cdpcs	0, 0, cr0, cr15, cr0, {0}
     b70:	03193f01 	tsteq	r9, #1, 30
     b74:	3b0b3a0e 	blcc	2cf3b4 <__bss_end__+0x2c4c74>
     b78:	270b390b 	strcs	r3, [fp, -fp, lsl #18]
     b7c:	12011119 	andne	r1, r1, #1073741830	; 0x40000006
     b80:	97184006 	ldrls	r4, [r8, -r6]
     b84:	13011942 	movwne	r1, #6466	; 0x1942
     b88:	89100000 	ldmdbhi	r0, {}	; <UNPREDICTABLE>
     b8c:	11010182 	smlabbne	r1, r2, r1, r0
     b90:	01133101 	tsteq	r3, r1, lsl #2
     b94:	11000013 	tstne	r0, r3, lsl r0
     b98:	00018289 	andeq	r8, r1, r9, lsl #5
     b9c:	13310111 	teqne	r1, #1073741828	; 0x40000004
     ba0:	05120000 	ldreq	r0, [r2, #-0]
     ba4:	3a0e0300 	bcc	3817ac <__bss_end__+0x37706c>
     ba8:	390b3b0b 	stmdbcc	fp, {r0, r1, r3, r8, r9, fp, ip, sp}
     bac:	0213490b 	andseq	r4, r3, #180224	; 0x2c000
     bb0:	1742b717 	smlaldne	fp, r2, r7, r7
     bb4:	2e130000 	cdpcs	0, 1, cr0, cr3, cr0, {0}
     bb8:	3a0e0301 	bcc	3817c4 <__bss_end__+0x377084>
     bbc:	390b3b0b 	stmdbcc	fp, {r0, r1, r3, r8, r9, fp, ip, sp}
     bc0:	4919270b 	ldmdbmi	r9, {r0, r1, r3, r8, r9, sl, sp}
     bc4:	010b2013 	tsteq	fp, r3, lsl r0
     bc8:	14000013 	strne	r0, [r0], #-19	; 0xffffffed
     bcc:	08030005 	stmdaeq	r3, {r0, r2}
     bd0:	0b3b0b3a 	bleq	ec38c0 <__bss_end__+0xeb9180>
     bd4:	13490b39 	movtne	r0, #39737	; 0x9b39
     bd8:	2e150000 	cdpcs	0, 1, cr0, cr5, cr0, {0}
     bdc:	3c193f00 	ldccc	15, cr3, [r9], {-0}
     be0:	030e6e19 	movweq	r6, #60953	; 0xee19
     be4:	3b0b3a0e 	blcc	2cf424 <__bss_end__+0x2c4ce4>
     be8:	000b390b 	andeq	r3, fp, fp, lsl #18
     bec:	11010000 	mrsne	r0, (UNDEF: 1)
     bf0:	130e2501 	movwne	r2, #58625	; 0xe501
     bf4:	1b0e030b 	blne	381828 <__bss_end__+0x3770e8>
     bf8:	1201110e 	andne	r1, r1, #-2147483645	; 0x80000003
     bfc:	00171006 	andseq	r1, r7, r6
     c00:	00240200 	eoreq	r0, r4, r0, lsl #4
     c04:	0b3e0b0b 	bleq	f83838 <__bss_end__+0xf790f8>
     c08:	00000803 	andeq	r0, r0, r3, lsl #16
     c0c:	0b002403 	bleq	9c20 <__data_end__+0xe4>
     c10:	030b3e0b 	movweq	r3, #48651	; 0xbe0b
     c14:	0400000e 	streq	r0, [r0], #-14
     c18:	13490035 	movtne	r0, #36917	; 0x9035
     c1c:	16050000 	strne	r0, [r5], -r0
     c20:	3a0e0300 	bcc	381828 <__bss_end__+0x3770e8>
     c24:	390b3b0b 	stmdbcc	fp, {r0, r1, r3, r8, r9, fp, ip, sp}
     c28:	0013490b 	andseq	r4, r3, fp, lsl #18
     c2c:	01040600 	tsteq	r4, r0, lsl #12
     c30:	0b0b0b3e 	bleq	2c3930 <__bss_end__+0x2b91f0>
     c34:	0b3a1349 	bleq	e85960 <__bss_end__+0xe7b220>
     c38:	0b390b3b 	bleq	e4392c <__bss_end__+0xe391ec>
     c3c:	00001301 	andeq	r1, r0, r1, lsl #6
     c40:	03002807 	movweq	r2, #2055	; 0x807
     c44:	000b1c0e 	andeq	r1, fp, lr, lsl #24
     c48:	01130800 	tsteq	r3, r0, lsl #16
     c4c:	0b0b0e03 	bleq	2c4460 <__bss_end__+0x2b9d20>
     c50:	0b3b0b3a 	bleq	ec3940 <__bss_end__+0xeb9200>
     c54:	13010b39 	movwne	r0, #6969	; 0x1b39
     c58:	0d090000 	stceq	0, cr0, [r9, #-0]
     c5c:	3a080300 	bcc	201864 <__bss_end__+0x1f7124>
     c60:	390b3b0b 	stmdbcc	fp, {r0, r1, r3, r8, r9, fp, ip, sp}
     c64:	3813490b 	ldmdacc	r3, {r0, r1, r3, r8, fp, lr}
     c68:	0a00000b 	beq	c9c <__code_start__-0x7364>
     c6c:	0e03000d 	cdpeq	0, 0, cr0, cr3, cr13, {0}
     c70:	0b3b0b3a 	bleq	ec3960 <__bss_end__+0xeb9220>
     c74:	13490b39 	movtne	r0, #39737	; 0x9b39
     c78:	00000b38 	andeq	r0, r0, r8, lsr fp
     c7c:	0300340b 	movweq	r3, #1035	; 0x40b
     c80:	3b0b3a0e 	blcc	2cf4c0 <__bss_end__+0x2c4d80>
     c84:	490b390b 	stmdbmi	fp, {r0, r1, r3, r8, fp, ip, sp}
     c88:	00061c13 	andeq	r1, r6, r3, lsl ip
     c8c:	000f0c00 	andeq	r0, pc, r0, lsl #24
     c90:	13490b0b 	movtne	r0, #39691	; 0x9b0b
     c94:	260d0000 	strcs	r0, [sp], -r0
     c98:	00134900 	andseq	r4, r3, r0, lsl #18
     c9c:	012e0e00 			; <UNDEFINED> instruction: 0x012e0e00
     ca0:	0e03193f 			; <UNDEFINED> instruction: 0x0e03193f
     ca4:	0b3b0b3a 	bleq	ec3994 <__bss_end__+0xeb9254>
     ca8:	19270b39 	stmdbne	r7!, {r0, r3, r4, r5, r8, r9, fp}
     cac:	06120111 			; <UNDEFINED> instruction: 0x06120111
     cb0:	42971840 	addsmi	r1, r7, #64, 16	; 0x400000
     cb4:	00130119 	andseq	r0, r3, r9, lsl r1
     cb8:	82890f00 	addhi	r0, r9, #0, 30
     cbc:	01110001 	tsteq	r1, r1
     cc0:	00001331 	andeq	r1, r0, r1, lsr r3
     cc4:	3f012e10 	svccc	0x00012e10
     cc8:	3a0e0319 	bcc	381934 <__bss_end__+0x3771f4>
     ccc:	390b3b0b 	stmdbcc	fp, {r0, r1, r3, r8, r9, fp, ip, sp}
     cd0:	4919270b 	ldmdbmi	r9, {r0, r1, r3, r8, r9, sl, sp}
     cd4:	12011113 	andne	r1, r1, #-1073741820	; 0xc0000004
     cd8:	97184006 	ldrls	r4, [r8, -r6]
     cdc:	13011942 	movwne	r1, #6466	; 0x1942
     ce0:	89110000 	ldmdbhi	r1, {}	; <UNPREDICTABLE>
     ce4:	11010182 	smlabbne	r1, r2, r1, r0
     ce8:	00133101 	andseq	r3, r3, r1, lsl #2
     cec:	828a1200 	addhi	r1, sl, #0, 4
     cf0:	18020001 	stmdane	r2, {r0}
     cf4:	00184291 	mulseq	r8, r1, r2
     cf8:	00051300 	andeq	r1, r5, r0, lsl #6
     cfc:	0b3a0803 	bleq	e82d10 <__bss_end__+0xe785d0>
     d00:	0b390b3b 	bleq	e439f4 <__bss_end__+0xe392b4>
     d04:	17021349 	strne	r1, [r2, -r9, asr #6]
     d08:	001742b7 			; <UNDEFINED> instruction: 0x001742b7
     d0c:	82891400 	addhi	r1, r9, #0, 8
     d10:	01110101 	tsteq	r1, r1, lsl #2
     d14:	13011331 	movwne	r1, #4913	; 0x1331
     d18:	34150000 	ldrcc	r0, [r5], #-0
     d1c:	3a080300 	bcc	201924 <__bss_end__+0x1f71e4>
     d20:	390b3b0b 	stmdbcc	fp, {r0, r1, r3, r8, r9, fp, ip, sp}
     d24:	0213490b 	andseq	r4, r3, #180224	; 0x2c000
     d28:	1742b717 	smlaldne	fp, r2, r7, r7
     d2c:	34160000 	ldrcc	r0, [r6], #-0
     d30:	3a0e0300 	bcc	381938 <__bss_end__+0x3771f8>
     d34:	390b3b0b 	stmdbcc	fp, {r0, r1, r3, r8, r9, fp, ip, sp}
     d38:	1c13490b 			; <UNDEFINED> instruction: 0x1c13490b
     d3c:	17000005 	strne	r0, [r0, -r5]
     d40:	0e03012e 	adfeqsp	f0, f3, #0.5
     d44:	0b3b0b3a 	bleq	ec3a34 <__bss_end__+0xeb92f4>
     d48:	19270b39 	stmdbne	r7!, {r0, r3, r4, r5, r8, r9, fp}
     d4c:	06120111 			; <UNDEFINED> instruction: 0x06120111
     d50:	42971840 	addsmi	r1, r7, #64, 16	; 0x400000
     d54:	00130119 	andseq	r0, r3, r9, lsl r1
     d58:	00051800 	andeq	r1, r5, r0, lsl #16
     d5c:	0b3a0e03 	bleq	e84570 <__bss_end__+0xe79e30>
     d60:	0b390b3b 	bleq	e43a54 <__bss_end__+0xe39314>
     d64:	17021349 	strne	r1, [r2, -r9, asr #6]
     d68:	001742b7 			; <UNDEFINED> instruction: 0x001742b7
     d6c:	00351900 	eorseq	r1, r5, r0, lsl #18
     d70:	2e1a0000 	cdpcs	0, 1, cr0, cr10, cr0, {0}
     d74:	3c193f00 	ldccc	15, cr3, [r9], {-0}
     d78:	030e6e19 	movweq	r6, #60953	; 0xee19
     d7c:	3b0b3a0e 	blcc	2cf5bc <__bss_end__+0x2c4e7c>
     d80:	000b390b 	andeq	r3, fp, fp, lsl #18
     d84:	11010000 	mrsne	r0, (UNDEF: 1)
     d88:	130e2501 	movwne	r2, #58625	; 0xe501
     d8c:	1b0e030b 	blne	3819c0 <__bss_end__+0x377280>
     d90:	1201110e 	andne	r1, r1, #-2147483645	; 0x80000003
     d94:	00171006 	andseq	r1, r7, r6
     d98:	00240200 	eoreq	r0, r4, r0, lsl #4
     d9c:	0b3e0b0b 	bleq	f839d0 <__bss_end__+0xf79290>
     da0:	00000803 	andeq	r0, r0, r3, lsl #16
     da4:	0b002403 	bleq	9db8 <__data_end__+0x27c>
     da8:	030b3e0b 	movweq	r3, #48651	; 0xbe0b
     dac:	0400000e 	streq	r0, [r0], #-14
     db0:	13490026 	movtne	r0, #36902	; 0x9026
     db4:	34050000 	strcc	r0, [r5], #-0
     db8:	3a0e0300 	bcc	3819c0 <__bss_end__+0x377280>
     dbc:	390b3b0b 	stmdbcc	fp, {r0, r1, r3, r8, r9, fp, ip, sp}
     dc0:	0013490b 	andseq	r4, r3, fp, lsl #18
     dc4:	012e0600 			; <UNDEFINED> instruction: 0x012e0600
     dc8:	0e03193f 			; <UNDEFINED> instruction: 0x0e03193f
     dcc:	0b3b0b3a 	bleq	ec3abc <__bss_end__+0xeb937c>
     dd0:	19270b39 	stmdbne	r7!, {r0, r3, r4, r5, r8, r9, fp}
     dd4:	01111349 	tsteq	r1, r9, asr #6
     dd8:	18400612 	stmdane	r0, {r1, r4, r9, sl}^
     ddc:	01194297 			; <UNDEFINED> instruction: 0x01194297
     de0:	07000013 	smladeq	r0, r3, r0, r0
     de4:	08030005 	stmdaeq	r3, {r0, r2}
     de8:	0b3b0b3a 	bleq	ec3ad8 <__bss_end__+0xeb9398>
     dec:	13490b39 	movtne	r0, #39737	; 0x9b39
     df0:	42b71702 	adcsmi	r1, r7, #524288	; 0x80000
     df4:	08000017 	stmdaeq	r0, {r0, r1, r2, r4}
     df8:	01018289 	smlabbeq	r1, r9, r2, r8
     dfc:	13310111 	teqne	r1, #1073741828	; 0x40000004
     e00:	8a090000 	bhi	240e08 <__bss_end__+0x2366c8>
     e04:	02000182 	andeq	r0, r0, #-2147483616	; 0x80000020
     e08:	18429118 	stmdane	r2, {r3, r4, r8, ip, pc}^
     e0c:	2e0a0000 	cdpcs	0, 0, cr0, cr10, cr0, {0}
     e10:	03193f01 	tsteq	r9, #1, 30
     e14:	3b0b3a0e 	blcc	2cf654 <__bss_end__+0x2c4f14>
     e18:	270b390b 	strcs	r3, [fp, -fp, lsl #18]
     e1c:	12011119 	andne	r1, r1, #1073741830	; 0x40000006
     e20:	97184006 	ldrls	r4, [r8, -r6]
     e24:	13011942 	movwne	r1, #6466	; 0x1942
     e28:	340b0000 	strcc	r0, [fp], #-0
     e2c:	490e0300 	stmdbmi	lr, {r8, r9}
     e30:	02193413 	andseq	r3, r9, #318767104	; 0x13000000
     e34:	0c000018 	stceq	0, cr0, [r0], {24}
     e38:	00018289 	andeq	r8, r1, r9, lsl #5
     e3c:	13310111 	teqne	r1, #1073741828	; 0x40000004
     e40:	890d0000 	stmdbhi	sp, {}	; <UNPREDICTABLE>
     e44:	11010182 	smlabbne	r1, r2, r1, r0
     e48:	01133101 	tsteq	r3, r1, lsl #2
     e4c:	0e000013 	mcreq	0, 0, r0, cr0, cr3, {0}
     e50:	13490101 	movtne	r0, #37121	; 0x9101
     e54:	00001301 	andeq	r1, r0, r1, lsl #6
     e58:	4900210f 	stmdbmi	r0, {r0, r1, r2, r3, r8, sp}
     e5c:	000b2f13 	andeq	r2, fp, r3, lsl pc
     e60:	002e1000 	eoreq	r1, lr, r0
     e64:	193c193f 	ldmdbne	ip!, {r0, r1, r2, r3, r4, r5, r8, fp, ip}
     e68:	0e030e6e 	cdpeq	14, 0, cr0, cr3, cr14, {3}
     e6c:	0b3b0b3a 	bleq	ec3b5c <__bss_end__+0xeb941c>
     e70:	00000b39 	andeq	r0, r0, r9, lsr fp
     e74:	01110100 	tsteq	r1, r0, lsl #2
     e78:	0b130e25 	bleq	4c4714 <__bss_end__+0x4b9fd4>
     e7c:	0e1b0e03 	cdpeq	14, 1, cr0, cr11, cr3, {0}
     e80:	06120111 			; <UNDEFINED> instruction: 0x06120111
     e84:	00001710 	andeq	r1, r0, r0, lsl r7
     e88:	0b002402 	bleq	9e98 <__data_end__+0x35c>
     e8c:	030b3e0b 	movweq	r3, #48651	; 0xbe0b
     e90:	03000008 	movweq	r0, #8
     e94:	0b0b0024 	bleq	2c0f2c <__bss_end__+0x2b67ec>
     e98:	0e030b3e 	vmoveq.16	d3[0], r0
     e9c:	15040000 	strne	r0, [r4, #-0]
     ea0:	49192701 	ldmdbmi	r9, {r0, r8, r9, sl, sp}
     ea4:	00130113 	andseq	r0, r3, r3, lsl r1
     ea8:	00050500 	andeq	r0, r5, r0, lsl #10
     eac:	00001349 	andeq	r1, r0, r9, asr #6
     eb0:	03003406 	movweq	r3, #1030	; 0x406
     eb4:	3b0b3a0e 	blcc	2cf6f4 <__bss_end__+0x2c4fb4>
     eb8:	490b390b 	stmdbmi	fp, {r0, r1, r3, r8, fp, ip, sp}
     ebc:	3c193f13 	ldccc	15, cr3, [r9], {19}
     ec0:	07000019 	smladeq	r0, r9, r0, r0
     ec4:	0b0b000f 	bleq	2c0f08 <__bss_end__+0x2b67c8>
     ec8:	00001349 	andeq	r1, r0, r9, asr #6
     ecc:	49002608 	stmdbmi	r0, {r3, r9, sl, sp}
     ed0:	09000013 	stmdbeq	r0, {r0, r1, r4}
     ed4:	13470034 	movtne	r0, #28724	; 0x7034
     ed8:	0b3b0b3a 	bleq	ec3bc8 <__bss_end__+0xeb9488>
     edc:	18020b39 	stmdane	r2, {r0, r3, r4, r5, r8, r9, fp}
     ee0:	2e0a0000 	cdpcs	0, 0, cr0, cr10, cr0, {0}
     ee4:	03193f01 	tsteq	r9, #1, 30
     ee8:	3b0b3a0e 	blcc	2cf728 <__bss_end__+0x2c4fe8>
     eec:	270b390b 	strcs	r3, [fp, -fp, lsl #18]
     ef0:	12011119 	andne	r1, r1, #1073741830	; 0x40000006
     ef4:	97184006 	ldrls	r4, [r8, -r6]
     ef8:	13011942 	movwne	r1, #6466	; 0x1942
     efc:	050b0000 	streq	r0, [fp, #-0]
     f00:	3a080300 	bcc	201b08 <__bss_end__+0x1f73c8>
     f04:	390b3b0b 	stmdbcc	fp, {r0, r1, r3, r8, r9, fp, ip, sp}
     f08:	0213490b 	andseq	r4, r3, #180224	; 0x2c000
     f0c:	0c000018 	stceq	0, cr0, [r0], {24}
     f10:	193f002e 	ldmdbne	pc!, {r1, r2, r3, r5}	; <UNPREDICTABLE>
     f14:	0b3a0e03 	bleq	e84728 <__bss_end__+0xe79fe8>
     f18:	0b390b3b 	bleq	e43c0c <__bss_end__+0xe394cc>
     f1c:	01111927 	tsteq	r1, r7, lsr #18
     f20:	18400612 	stmdane	r0, {r1, r4, r9, sl}^
     f24:	00194297 	mulseq	r9, r7, r2
     f28:	012e0d00 			; <UNDEFINED> instruction: 0x012e0d00
     f2c:	0b3a0e03 	bleq	e84740 <__bss_end__+0xe7a000>
     f30:	0b390b3b 	bleq	e43c24 <__bss_end__+0xe394e4>
     f34:	13491927 	movtne	r1, #39207	; 0x9927
     f38:	06120111 			; <UNDEFINED> instruction: 0x06120111
     f3c:	42971840 	addsmi	r1, r7, #64, 16	; 0x400000
     f40:	00130119 	andseq	r0, r3, r9, lsl r1
     f44:	00050e00 	andeq	r0, r5, r0, lsl #28
     f48:	0b3a0803 	bleq	e82f5c <__bss_end__+0xe7881c>
     f4c:	0b390b3b 	bleq	e43c40 <__bss_end__+0xe39500>
     f50:	17021349 	strne	r1, [r2, -r9, asr #6]
     f54:	001742b7 			; <UNDEFINED> instruction: 0x001742b7
     f58:	82890f00 	addhi	r0, r9, #0, 30
     f5c:	01110101 	tsteq	r1, r1, lsl #2
     f60:	00001331 	andeq	r1, r0, r1, lsr r3
     f64:	01828a10 	orreq	r8, r2, r0, lsl sl
     f68:	91180200 	tstls	r8, r0, lsl #4
     f6c:	00001842 	andeq	r1, r0, r2, asr #16
     f70:	3f002e11 	svccc	0x00002e11
     f74:	6e193c19 	mrcvs	12, 0, r3, cr9, cr9, {0}
     f78:	3a0e030e 	bcc	381bb8 <__bss_end__+0x377478>
     f7c:	390b3b0b 	stmdbcc	fp, {r0, r1, r3, r8, r9, fp, ip, sp}
     f80:	0000000b 	andeq	r0, r0, fp
     f84:	25011101 	strcs	r1, [r1, #-257]	; 0xfffffeff
     f88:	030b130e 	movweq	r1, #45838	; 0xb30e
     f8c:	110e1b0e 	tstne	lr, lr, lsl #22
     f90:	10061201 	andne	r1, r6, r1, lsl #4
     f94:	02000017 	andeq	r0, r0, #23, 0
     f98:	0b0b0024 	bleq	2c1030 <__bss_end__+0x2b68f0>
     f9c:	08030b3e 	stmdaeq	r3, {r1, r2, r3, r4, r5, r8, r9, fp}
     fa0:	24030000 	strcs	r0, [r3], #-0
     fa4:	3e0b0b00 	vmlacc.f64	d0, d11, d0
     fa8:	000e030b 	andeq	r0, lr, fp, lsl #6
     fac:	01150400 	tsteq	r5, r0, lsl #8
     fb0:	13491927 	movtne	r1, #39207	; 0x9927
     fb4:	00001301 	andeq	r1, r0, r1, lsl #6
     fb8:	49000505 	stmdbmi	r0, {r0, r2, r8, sl}
     fbc:	06000013 			; <UNDEFINED> instruction: 0x06000013
     fc0:	0e030034 	mcreq	0, 0, r0, cr3, cr4, {1}
     fc4:	0b3b0b3a 	bleq	ec3cb4 <__bss_end__+0xeb9574>
     fc8:	13490b39 	movtne	r0, #39737	; 0x9b39
     fcc:	193c193f 	ldmdbne	ip!, {r0, r1, r2, r3, r4, r5, r8, fp, ip}
     fd0:	0f070000 	svceq	0x00070000
     fd4:	490b0b00 	stmdbmi	fp, {r8, r9, fp}
     fd8:	08000013 	stmdaeq	r0, {r0, r1, r4}
     fdc:	13490026 	movtne	r0, #36902	; 0x9026
     fe0:	2e090000 	cdpcs	0, 0, cr0, cr9, cr0, {0}
     fe4:	03193f01 	tsteq	r9, #1, 30
     fe8:	3b0b3a0e 	blcc	2cf828 <__bss_end__+0x2c50e8>
     fec:	270b390b 	strcs	r3, [fp, -fp, lsl #18]
     ff0:	11134919 	tstne	r3, r9, lsl r9
     ff4:	40061201 	andmi	r1, r6, r1, lsl #4
     ff8:	19429718 	stmdbne	r2, {r3, r4, r8, r9, sl, ip, pc}^
     ffc:	00001301 	andeq	r1, r0, r1, lsl #6
    1000:	0300050a 	movweq	r0, #1290	; 0x50a
    1004:	3b0b3a0e 	blcc	2cf844 <__bss_end__+0x2c5104>
    1008:	490b390b 	stmdbmi	fp, {r0, r1, r3, r8, fp, ip, sp}
    100c:	00180213 	andseq	r0, r8, r3, lsl r2
    1010:	00050b00 	andeq	r0, r5, r0, lsl #22
    1014:	0b3a0803 	bleq	e83028 <__bss_end__+0xe788e8>
    1018:	0b390b3b 	bleq	e43d0c <__bss_end__+0xe395cc>
    101c:	17021349 	strne	r1, [r2, -r9, asr #6]
    1020:	001742b7 			; <UNDEFINED> instruction: 0x001742b7
    1024:	00340c00 	eorseq	r0, r4, r0, lsl #24
    1028:	0b3a0803 	bleq	e8303c <__bss_end__+0xe788fc>
    102c:	0b390b3b 	bleq	e43d20 <__bss_end__+0xe395e0>
    1030:	17021349 	strne	r1, [r2, -r9, asr #6]
    1034:	001742b7 			; <UNDEFINED> instruction: 0x001742b7
    1038:	11010000 	mrsne	r0, (UNDEF: 1)
    103c:	130e2501 	movwne	r2, #58625	; 0xe501
    1040:	1b0e030b 	blne	381c74 <__bss_end__+0x377534>
    1044:	1201110e 	andne	r1, r1, #-2147483645	; 0x80000003
    1048:	00171006 	andseq	r1, r7, r6
    104c:	00240200 	eoreq	r0, r4, r0, lsl #4
    1050:	0b3e0b0b 	bleq	f83c84 <__bss_end__+0xf79544>
    1054:	00000803 	andeq	r0, r0, r3, lsl #16
    1058:	0b002403 	bleq	a06c <__data_end__+0x530>
    105c:	030b3e0b 	movweq	r3, #48651	; 0xbe0b
    1060:	0400000e 	streq	r0, [r0], #-14
    1064:	19270115 	stmdbne	r7!, {r0, r2, r4, r8}
    1068:	13011349 	movwne	r1, #4937	; 0x1349
    106c:	05050000 	streq	r0, [r5, #-0]
    1070:	00134900 	andseq	r4, r3, r0, lsl #18
    1074:	00340600 	eorseq	r0, r4, r0, lsl #12
    1078:	0b3a0e03 	bleq	e8488c <__bss_end__+0xe7a14c>
    107c:	0b390b3b 	bleq	e43d70 <__bss_end__+0xe39630>
    1080:	193f1349 	ldmdbne	pc!, {r0, r3, r6, r8, r9, ip}	; <UNPREDICTABLE>
    1084:	0000193c 	andeq	r1, r0, ip, lsr r9
    1088:	0b000f07 	bleq	4cac <__code_start__-0x3354>
    108c:	0013490b 	andseq	r4, r3, fp, lsl #18
    1090:	00260800 	eoreq	r0, r6, r0, lsl #16
    1094:	00001349 	andeq	r1, r0, r9, asr #6
    1098:	3f012e09 	svccc	0x00012e09
    109c:	3a0e0319 	bcc	381d08 <__bss_end__+0x3775c8>
    10a0:	390b3b0b 	stmdbcc	fp, {r0, r1, r3, r8, r9, fp, ip, sp}
    10a4:	4919270b 	ldmdbmi	r9, {r0, r1, r3, r8, r9, sl, sp}
    10a8:	12011113 	andne	r1, r1, #-1073741820	; 0xc0000004
    10ac:	97184006 	ldrls	r4, [r8, -r6]
    10b0:	00001942 	andeq	r1, r0, r2, asr #18
    10b4:	0300050a 	movweq	r0, #1290	; 0x50a
    10b8:	3b0b3a08 	blcc	2cf8e0 <__bss_end__+0x2c51a0>
    10bc:	490b390b 	stmdbmi	fp, {r0, r1, r3, r8, fp, ip, sp}
    10c0:	b7170213 			; <UNDEFINED> instruction: 0xb7170213
    10c4:	00001742 	andeq	r1, r0, r2, asr #14
    10c8:	01110100 	tsteq	r1, r0, lsl #2
    10cc:	0b130e25 	bleq	4c4968 <__bss_end__+0x4ba228>
    10d0:	0e1b0e03 	cdpeq	14, 1, cr0, cr11, cr3, {0}
    10d4:	06120111 			; <UNDEFINED> instruction: 0x06120111
    10d8:	00001710 	andeq	r1, r0, r0, lsl r7
    10dc:	0b002402 	bleq	a0ec <__data_end__+0x5b0>
    10e0:	030b3e0b 	movweq	r3, #48651	; 0xbe0b
    10e4:	03000008 	movweq	r0, #8
    10e8:	0b0b0024 	bleq	2c1180 <__bss_end__+0x2b6a40>
    10ec:	0e030b3e 	vmoveq.16	d3[0], r0
    10f0:	15040000 	strne	r0, [r4, #-0]
    10f4:	49192701 	ldmdbmi	r9, {r0, r8, r9, sl, sp}
    10f8:	00130113 	andseq	r0, r3, r3, lsl r1
    10fc:	00050500 	andeq	r0, r5, r0, lsl #10
    1100:	00001349 	andeq	r1, r0, r9, asr #6
    1104:	03003406 	movweq	r3, #1030	; 0x406
    1108:	3b0b3a0e 	blcc	2cf948 <__bss_end__+0x2c5208>
    110c:	490b390b 	stmdbmi	fp, {r0, r1, r3, r8, fp, ip, sp}
    1110:	3c193f13 	ldccc	15, cr3, [r9], {19}
    1114:	07000019 	smladeq	r0, r9, r0, r0
    1118:	0b0b000f 	bleq	2c115c <__bss_end__+0x2b6a1c>
    111c:	00001349 	andeq	r1, r0, r9, asr #6
    1120:	49002608 	stmdbmi	r0, {r3, r9, sl, sp}
    1124:	09000013 	stmdbeq	r0, {r0, r1, r4}
    1128:	193f012e 	ldmdbne	pc!, {r1, r2, r3, r5, r8}	; <UNPREDICTABLE>
    112c:	0b3a0e03 	bleq	e84940 <__bss_end__+0xe7a200>
    1130:	0b390b3b 	bleq	e43e24 <__bss_end__+0xe396e4>
    1134:	13491927 	movtne	r1, #39207	; 0x9927
    1138:	06120111 			; <UNDEFINED> instruction: 0x06120111
    113c:	42971840 	addsmi	r1, r7, #64, 16	; 0x400000
    1140:	00130119 	andseq	r0, r3, r9, lsl r1
    1144:	00050a00 	andeq	r0, r5, r0, lsl #20
    1148:	0b3a0803 	bleq	e8315c <__bss_end__+0xe78a1c>
    114c:	0b390b3b 	bleq	e43e40 <__bss_end__+0xe39700>
    1150:	18021349 	stmdane	r2, {r0, r3, r6, r8, r9, ip}
    1154:	050b0000 	streq	r0, [fp, #-0]
    1158:	3a080300 	bcc	201d60 <__bss_end__+0x1f7620>
    115c:	390b3b0b 	stmdbcc	fp, {r0, r1, r3, r8, r9, fp, ip, sp}
    1160:	0213490b 	andseq	r4, r3, #180224	; 0x2c000
    1164:	1742b717 	smlaldne	fp, r2, r7, r7
    1168:	340c0000 	strcc	r0, [ip], #-0
    116c:	3a080300 	bcc	201d74 <__bss_end__+0x1f7634>
    1170:	390b3b0b 	stmdbcc	fp, {r0, r1, r3, r8, r9, fp, ip, sp}
    1174:	0213490b 	andseq	r4, r3, #180224	; 0x2c000
    1178:	1742b717 	smlaldne	fp, r2, r7, r7
    117c:	01000000 	mrseq	r0, (UNDEF: 0)
    1180:	0e250111 	mcreq	1, 1, r0, cr5, cr1, {0}
    1184:	0e030b13 	vmoveq.32	d3[0], r0
    1188:	17550e1b 	smmlane	r5, fp, lr, r0
    118c:	17100111 			; <UNDEFINED> instruction: 0x17100111
    1190:	24020000 	strcs	r0, [r2], #-0
    1194:	3e0b0b00 	vmlacc.f64	d0, d11, d0
    1198:	0008030b 	andeq	r0, r8, fp, lsl #6
    119c:	00160300 	andseq	r0, r6, r0, lsl #6
    11a0:	0b3a0e03 	bleq	e849b4 <__bss_end__+0xe7a274>
    11a4:	0b390b3b 	bleq	e43e98 <__bss_end__+0xe39758>
    11a8:	00001349 	andeq	r1, r0, r9, asr #6
    11ac:	0b002404 	bleq	a1c4 <__data_end__+0x688>
    11b0:	030b3e0b 	movweq	r3, #48651	; 0xbe0b
    11b4:	0500000e 	streq	r0, [r0, #-14]
    11b8:	13490026 	movtne	r0, #36902	; 0x9026
    11bc:	15060000 	strne	r0, [r6, #-0]
    11c0:	49192701 	ldmdbmi	r9, {r0, r8, r9, sl, sp}
    11c4:	00130113 	andseq	r0, r3, r3, lsl r1
    11c8:	00050700 	andeq	r0, r5, r0, lsl #14
    11cc:	00001349 	andeq	r1, r0, r9, asr #6
    11d0:	03003408 	movweq	r3, #1032	; 0x408
    11d4:	3b0b3a0e 	blcc	2cfa14 <__bss_end__+0x2c52d4>
    11d8:	490b390b 	stmdbmi	fp, {r0, r1, r3, r8, fp, ip, sp}
    11dc:	3c193f13 	ldccc	15, cr3, [r9], {19}
    11e0:	09000019 	stmdbeq	r0, {r0, r3, r4}
    11e4:	0b0b000f 	bleq	2c1228 <__bss_end__+0x2b6ae8>
    11e8:	00001349 	andeq	r1, r0, r9, asr #6
    11ec:	3f012e0a 	svccc	0x00012e0a
    11f0:	3a0e0319 	bcc	381e5c <__bss_end__+0x37771c>
    11f4:	390b3b0b 	stmdbcc	fp, {r0, r1, r3, r8, r9, fp, ip, sp}
    11f8:	4919270b 	ldmdbmi	r9, {r0, r1, r3, r8, r9, sl, sp}
    11fc:	12011113 	andne	r1, r1, #-1073741820	; 0xc0000004
    1200:	97184006 	ldrls	r4, [r8, -r6]
    1204:	13011942 	movwne	r1, #6466	; 0x1942
    1208:	050b0000 	streq	r0, [fp, #-0]
    120c:	3a080300 	bcc	201e14 <__bss_end__+0x1f76d4>
    1210:	390b3b0b 	stmdbcc	fp, {r0, r1, r3, r8, r9, fp, ip, sp}
    1214:	0213490b 	andseq	r4, r3, #180224	; 0x2c000
    1218:	1742b717 	smlaldne	fp, r2, r7, r7
    121c:	340c0000 	strcc	r0, [ip], #-0
    1220:	3a080300 	bcc	201e28 <__bss_end__+0x1f76e8>
    1224:	390b3b0b 	stmdbcc	fp, {r0, r1, r3, r8, r9, fp, ip, sp}
    1228:	0213490b 	andseq	r4, r3, #180224	; 0x2c000
    122c:	1742b717 	smlaldne	fp, r2, r7, r7
    1230:	01000000 	mrseq	r0, (UNDEF: 0)
    1234:	0e250111 	mcreq	1, 1, r0, cr5, cr1, {0}
    1238:	0e030b13 	vmoveq.32	d3[0], r0
    123c:	01110e1b 	tsteq	r1, fp, lsl lr
    1240:	17100612 			; <UNDEFINED> instruction: 0x17100612
    1244:	24020000 	strcs	r0, [r2], #-0
    1248:	3e0b0b00 	vmlacc.f64	d0, d11, d0
    124c:	0008030b 	andeq	r0, r8, fp, lsl #6
    1250:	00240300 	eoreq	r0, r4, r0, lsl #6
    1254:	0b3e0b0b 	bleq	f83e88 <__bss_end__+0xf79748>
    1258:	00000e03 	andeq	r0, r0, r3, lsl #28
    125c:	27011504 	strcs	r1, [r1, -r4, lsl #10]
    1260:	01134919 	tsteq	r3, r9, lsl r9
    1264:	05000013 	streq	r0, [r0, #-19]	; 0xffffffed
    1268:	13490005 	movtne	r0, #36869	; 0x9005
    126c:	34060000 	strcc	r0, [r6], #-0
    1270:	3a0e0300 	bcc	381e78 <__bss_end__+0x377738>
    1274:	390b3b0b 	stmdbcc	fp, {r0, r1, r3, r8, r9, fp, ip, sp}
    1278:	3f13490b 	svccc	0x0013490b
    127c:	00193c19 	andseq	r3, r9, r9, lsl ip
    1280:	000f0700 	andeq	r0, pc, r0, lsl #14
    1284:	13490b0b 	movtne	r0, #39691	; 0x9b0b
    1288:	26080000 	strcs	r0, [r8], -r0
    128c:	00134900 	andseq	r4, r3, r0, lsl #18
    1290:	002e0900 	eoreq	r0, lr, r0, lsl #18
    1294:	0e03193f 			; <UNDEFINED> instruction: 0x0e03193f
    1298:	0b3b0b3a 	bleq	ec3f88 <__bss_end__+0xeb9848>
    129c:	19270b39 	stmdbne	r7!, {r0, r3, r4, r5, r8, r9, fp}
    12a0:	06120111 			; <UNDEFINED> instruction: 0x06120111
    12a4:	42971840 	addsmi	r1, r7, #64, 16	; 0x400000
    12a8:	00000019 	andeq	r0, r0, r9, lsl r0

Disassembly of section .debug_loc:

00000000 <.debug_loc>:
       0:	00000000 	andeq	r0, r0, r0
       4:	075c0000 	ldrbeq	r0, [ip, -r0]
       8:	07840000 	streq	r0, [r4, r0]
       c:	00010000 	andeq	r0, r1, r0
      10:	0007a855 	andeq	sl, r7, r5, asr r8
      14:	0007ac00 	andeq	sl, r7, r0, lsl #24
      18:	50000100 	andpl	r0, r0, r0, lsl #2
      1c:	000007ac 	andeq	r0, r0, ip, lsr #15
      20:	00000830 	andeq	r0, r0, r0, lsr r8
      24:	00550001 	subseq	r0, r5, r1
	...
      30:	70000000 	andvc	r0, r0, r0
      34:	84000007 	strhi	r0, [r0], #-7
      38:	01000007 	tsteq	r0, r7
      3c:	07c85400 	strbeq	r5, [r8, r0, lsl #8]
      40:	08300000 	ldmdaeq	r0!, {}	; <UNPREDICTABLE>
      44:	00010000 	andeq	r0, r1, r0
      48:	00000054 	andeq	r0, r0, r4, asr r0
	...
      54:	00077000 	andeq	r7, r7, r0
      58:	00078400 	andeq	r8, r7, r0, lsl #8
      5c:	56000100 	strpl	r0, [r0], -r0, lsl #2
      60:	000007d4 	ldrdeq	r0, [r0], -r4
      64:	00000830 	andeq	r0, r0, r0, lsr r8
      68:	00560001 	subseq	r0, r6, r1
	...
      78:	00077400 	andeq	r7, r7, r0, lsl #8
      7c:	00078000 	andeq	r8, r7, r0
      80:	50000100 	andpl	r0, r0, r0, lsl #2
      84:	00000800 	andeq	r0, r0, r0, lsl #16
      88:	0000080c 	andeq	r0, r0, ip, lsl #16
      8c:	0c500001 	mrrceq	0, 0, r0, r0, cr1	; <UNPREDICTABLE>
      90:	0f000008 	svceq	0x00000008
      94:	01000008 	tsteq	r0, r8
      98:	00005100 	andeq	r5, r0, r0, lsl #2
	...
      a4:	07340000 	ldreq	r0, [r4, -r0]!
      a8:	073b0000 	ldreq	r0, [fp, -r0]!
      ac:	00010000 	andeq	r0, r1, r0
      b0:	00073b50 	andeq	r3, r7, r0, asr fp
      b4:	00074400 	andeq	r4, r7, r0, lsl #8
      b8:	f3000400 	vshl.u8	d0, d0, d0
      bc:	009f5001 	addseq	r5, pc, r1
	...
      c8:	1c000000 	stcne	0, cr0, [r0], {-0}
      cc:	38000001 	stmdacc	r0, {r0}
      d0:	01000001 	tsteq	r0, r1
      d4:	01385000 	teqeq	r8, r0
      d8:	01840000 	orreq	r0, r4, r0
      dc:	00010000 	andeq	r0, r1, r0
      e0:	00000059 	andeq	r0, r0, r9, asr r0
	...
      ec:	00011c00 	andeq	r1, r1, r0, lsl #24
      f0:	00013800 	andeq	r3, r1, r0, lsl #16
      f4:	51000100 	mrspl	r0, (UNDEF: 16)
      f8:	00000138 	andeq	r0, r0, r8, lsr r1
      fc:	00000184 	andeq	r0, r0, r4, lsl #3
     100:	00570001 	subseq	r0, r7, r1
	...
     10c:	1c000000 	stcne	0, cr0, [r0], {-0}
     110:	38000001 	stmdacc	r0, {r0}
     114:	01000001 	tsteq	r0, r1
     118:	01385200 	teqeq	r8, r0, lsl #4
     11c:	01840000 	orreq	r0, r4, r0
     120:	00010000 	andeq	r0, r1, r0
     124:	00000058 	andeq	r0, r0, r8, asr r0
     128:	00000000 	andeq	r0, r0, r0
     12c:	00000200 	andeq	r0, r0, r0, lsl #4
     130:	00012c00 	andeq	r2, r1, r0, lsl #24
     134:	00013800 	andeq	r3, r1, r0, lsl #16
     138:	30000200 	andcc	r0, r0, r0, lsl #4
     13c:	0001389f 	muleq	r1, pc, r8	; <UNPREDICTABLE>
     140:	00018400 	andeq	r8, r1, r0, lsl #8
     144:	56000100 	strpl	r0, [r0], -r0, lsl #2
	...
     150:	00000003 	andeq	r0, r0, r3
     154:	0000012c 	andeq	r0, r0, ip, lsr #2
     158:	00000138 	andeq	r0, r0, r8, lsr r1
     15c:	9f300002 	svcls	0x00300002
     160:	00000138 	andeq	r0, r0, r8, lsr r1
     164:	00000184 	andeq	r0, r0, r4, lsl #3
     168:	00550001 	subseq	r0, r5, r1
     16c:	00000000 	andeq	r0, r0, r0
     170:	05000000 	streq	r0, [r0, #-0]
     174:	2c000000 	stccs	0, cr0, [r0], {-0}
     178:	38000001 	stmdacc	r0, {r0}
     17c:	02000001 	andeq	r0, r0, #1, 0
     180:	389f3000 	ldmcc	pc, {ip, sp}	; <UNPREDICTABLE>
     184:	84000001 	strhi	r0, [r0], #-1
     188:	01000001 	tsteq	r0, r1
     18c:	00005400 	andeq	r5, r0, r0, lsl #8
	...
     1a0:	00000400 	andeq	r0, r0, r0, lsl #8
     1a4:	0000041c 	andeq	r0, r0, ip, lsl r4
     1a8:	1c500001 	mrrcne	0, 0, r0, r0, cr1	; <UNPREDICTABLE>
     1ac:	28000004 	stmdacs	r0, {r2}
     1b0:	01000004 	tsteq	r0, r4
     1b4:	04285500 	strteq	r5, [r8], #-1280	; 0xfffffb00
     1b8:	04400000 	strbeq	r0, [r0], #-0
     1bc:	00010000 	andeq	r0, r1, r0
     1c0:	00044050 	andeq	r4, r4, r0, asr r0
     1c4:	00044800 	andeq	r4, r4, r0, lsl #16
     1c8:	f3000400 	vshl.u8	d0, d0, d0
     1cc:	489f5001 	ldmmi	pc, {r0, ip, lr}	; <UNPREDICTABLE>
     1d0:	f8000004 			; <UNDEFINED> instruction: 0xf8000004
     1d4:	01000004 	tsteq	r0, r4
     1d8:	00005500 	andeq	r5, r0, r0, lsl #10
	...
     1e8:	04000000 	streq	r0, [r0], #-0
     1ec:	041f0000 	ldreq	r0, [pc], #-0	; 1f4 <__code_start__-0x7e0c>
     1f0:	00010000 	andeq	r0, r1, r0
     1f4:	00041f51 	andeq	r1, r4, r1, asr pc
     1f8:	00042800 	andeq	r2, r4, r0, lsl #16
     1fc:	56000100 	strpl	r0, [r0], -r0, lsl #2
     200:	00000428 	andeq	r0, r0, r8, lsr #8
     204:	0000043c 	andeq	r0, r0, ip, lsr r4
     208:	3c510001 	mrrccc	0, 0, r0, r1, cr1
     20c:	f8000004 			; <UNDEFINED> instruction: 0xf8000004
     210:	01000004 	tsteq	r0, r4
     214:	00005600 	andeq	r5, r0, r0, lsl #12
	...
     228:	00000400 	andeq	r0, r0, r0, lsl #8
     22c:	0000041f 	andeq	r0, r0, pc, lsl r4
     230:	1f520001 	svcne	0x00520001
     234:	28000004 	stmdacs	r0, {r2}
     238:	01000004 	tsteq	r0, r4
     23c:	04285700 	strteq	r5, [r8], #-1792	; 0xfffff900
     240:	04380000 	ldrteq	r0, [r8], #-0
     244:	00010000 	andeq	r0, r1, r0
     248:	00043852 	andeq	r3, r4, r2, asr r8
     24c:	00044800 	andeq	r4, r4, r0, lsl #16
     250:	f3000400 	vshl.u8	d0, d0, d0
     254:	489f5201 	ldmmi	pc, {r0, r9, ip, lr}	; <UNPREDICTABLE>
     258:	f8000004 			; <UNDEFINED> instruction: 0xf8000004
     25c:	01000004 	tsteq	r0, r4
     260:	00005700 	andeq	r5, r0, r0, lsl #14
     264:	00000000 	andeq	r0, r0, r0
     268:	00020000 	andeq	r0, r2, r0
     26c:	04200000 	strteq	r0, [r0], #-0
     270:	04280000 	strteq	r0, [r8], #-0
     274:	00020000 	andeq	r0, r2, r0
     278:	04489f30 	strbeq	r9, [r8], #-3888	; 0xfffff0d0
     27c:	04f80000 	ldrbteq	r0, [r8], #0
     280:	00010000 	andeq	r0, r1, r0
     284:	00000054 	andeq	r0, r0, r4, asr r0
	...
     290:	10000000 	andne	r0, r0, r0
     294:	27000006 	strcs	r0, [r0, -r6]
     298:	01000006 	tsteq	r0, r6
     29c:	06275000 	strteq	r5, [r7], -r0
     2a0:	07180000 	ldreq	r0, [r8, -r0]
     2a4:	00010000 	andeq	r0, r1, r0
     2a8:	00071856 	andeq	r1, r7, r6, asr r8
     2ac:	00073400 	andeq	r3, r7, r0, lsl #8
     2b0:	f3000400 	vshl.u8	d0, d0, d0
     2b4:	009f5001 	addseq	r5, pc, r1
	...
     2c4:	00061000 	andeq	r1, r6, r0
     2c8:	00062700 	andeq	r2, r6, r0, lsl #14
     2cc:	51000100 	mrspl	r0, (UNDEF: 16)
     2d0:	00000627 	andeq	r0, r0, r7, lsr #12
     2d4:	00000718 	andeq	r0, r0, r8, lsl r7
     2d8:	18550001 	ldmdane	r5, {r0}^
     2dc:	34000007 	strcc	r0, [r0], #-7
     2e0:	04000007 	streq	r0, [r0], #-7
     2e4:	5101f300 	mrspl	pc, SP_irq	; <UNPREDICTABLE>
     2e8:	0000009f 	muleq	r0, pc, r0	; <UNPREDICTABLE>
     2ec:	00000000 	andeq	r0, r0, r0
     2f0:	98000000 	stmdals	r0, {}	; <UNPREDICTABLE>
     2f4:	08000006 	stmdaeq	r0, {r1, r2}
     2f8:	01000007 	tsteq	r0, r7
     2fc:	00005800 	andeq	r5, r0, r0, lsl #16
	...
     308:	00000698 	muleq	r0, r8, r6
     30c:	00000708 	andeq	r0, r0, r8, lsl #14
     310:	00570001 	subseq	r0, r7, r1
	...
     31c:	98000000 	stmdals	r0, {}	; <UNPREDICTABLE>
     320:	a4000006 	strge	r0, [r0], #-6
     324:	01000006 	tsteq	r0, r6
     328:	06a45000 	strteq	r5, [r4], r0
     32c:	07080000 	streq	r0, [r8, -r0]
     330:	00010000 	andeq	r0, r1, r0
     334:	00000054 	andeq	r0, r0, r4, asr r0
	...
     340:	f8000000 			; <UNDEFINED> instruction: 0xf8000000
     344:	0f000004 	svceq	0x00000004
     348:	01000005 	tsteq	r0, r5
     34c:	050f5000 	streq	r5, [pc, #-0]	; 354 <__code_start__-0x7cac>
     350:	05f80000 	ldrbeq	r0, [r8, #0]!
     354:	00010000 	andeq	r0, r1, r0
     358:	0005f856 	andeq	pc, r5, r6, asr r8	; <UNPREDICTABLE>
     35c:	00061000 	andeq	r1, r6, r0
     360:	f3000400 	vshl.u8	d0, d0, d0
     364:	009f5001 	addseq	r5, pc, r1
	...
     374:	0004f800 	andeq	pc, r4, r0, lsl #16
     378:	00050f00 	andeq	r0, r5, r0, lsl #30
     37c:	51000100 	mrspl	r0, (UNDEF: 16)
     380:	0000050f 	andeq	r0, r0, pc, lsl #10
     384:	000005f8 	strdeq	r0, [r0], -r8
     388:	f8550001 			; <UNDEFINED> instruction: 0xf8550001
     38c:	10000005 	andne	r0, r0, r5
     390:	04000006 	streq	r0, [r0], #-6
     394:	5101f300 	mrspl	pc, SP_irq	; <UNPREDICTABLE>
     398:	0000009f 	muleq	r0, pc, r0	; <UNPREDICTABLE>
     39c:	00000000 	andeq	r0, r0, r0
     3a0:	7c000000 	stcvc	0, cr0, [r0], {-0}
     3a4:	e8000005 	stmda	r0, {r0, r2}
     3a8:	01000005 	tsteq	r0, r5
     3ac:	00005700 	andeq	r5, r0, r0, lsl #14
	...
     3b8:	057c0000 	ldrbeq	r0, [ip, #-0]!
     3bc:	05880000 	streq	r0, [r8]
     3c0:	00010000 	andeq	r0, r1, r0
     3c4:	00058850 	andeq	r8, r5, r0, asr r8
     3c8:	0005e800 	andeq	lr, r5, r0, lsl #16
     3cc:	54000100 	strpl	r0, [r0], #-256	; 0xffffff00
	...
     3e4:	03580000 	cmpeq	r8, #0, 0
     3e8:	037c0000 	cmneq	ip, #0, 0
     3ec:	00010000 	andeq	r0, r1, r0
     3f0:	00037c50 	andeq	r7, r3, r0, asr ip
     3f4:	00038000 	andeq	r8, r3, r0
     3f8:	54000100 	strpl	r0, [r0], #-256	; 0xffffff00
     3fc:	00000380 	andeq	r0, r0, r0, lsl #7
     400:	0000038c 	andeq	r0, r0, ip, lsl #7
     404:	8c500001 	mrrchi	0, 0, r0, r0, cr1	; <UNPREDICTABLE>
     408:	e8000003 	stmda	r0, {r0, r1}
     40c:	01000003 	tsteq	r0, r3
     410:	03e85400 	mvneq	r5, #0, 8
     414:	03ec0000 	mvneq	r0, #0, 0
     418:	00010000 	andeq	r0, r1, r0
     41c:	0003ec50 	andeq	lr, r3, r0, asr ip
     420:	0003f000 	andeq	pc, r3, r0
     424:	f3000400 	vshl.u8	d0, d0, d0
     428:	f09f5001 			; <UNDEFINED> instruction: 0xf09f5001
     42c:	00000003 	andeq	r0, r0, r3
     430:	01000004 	tsteq	r0, r4
     434:	00005400 	andeq	r5, r0, r0, lsl #8
	...
     444:	03580000 	cmpeq	r8, #0, 0
     448:	03880000 	orreq	r0, r8, #0, 0
     44c:	00010000 	andeq	r0, r1, r0
     450:	00038851 	andeq	r8, r3, r1, asr r8
     454:	0003e800 	andeq	lr, r3, r0, lsl #16
     458:	f3000400 	vshl.u8	d0, d0, d0
     45c:	e89f5101 	ldm	pc, {r0, r8, ip, lr}	; <UNPREDICTABLE>
     460:	f0000003 			; <UNDEFINED> instruction: 0xf0000003
     464:	01000003 	tsteq	r0, r3
     468:	03f05100 	mvnseq	r5, #0
     46c:	04000000 	streq	r0, [r0], #-0
     470:	00040000 	andeq	r0, r4, r0
     474:	9f5101f3 	svcls	0x005101f3
	...
     488:	00000358 	andeq	r0, r0, r8, asr r3
     48c:	00000384 	andeq	r0, r0, r4, lsl #7
     490:	84520001 	ldrbhi	r0, [r2], #-1
     494:	e8000003 	stmda	r0, {r0, r1}
     498:	04000003 	streq	r0, [r0], #-3
     49c:	5201f300 	andpl	pc, r1, #0, 6
     4a0:	0003e89f 	muleq	r3, pc, r8	; <UNPREDICTABLE>
     4a4:	0003f000 	andeq	pc, r3, r0
     4a8:	52000100 	andpl	r0, r0, #0
     4ac:	000003f0 	strdeq	r0, [r0], -r0	; <UNPREDICTABLE>
     4b0:	00000400 	andeq	r0, r0, r0, lsl #8
     4b4:	01f30004 	mvnseq	r0, r4
     4b8:	00009f52 	andeq	r9, r0, r2, asr pc
	...
     4c4:	002c0000 	eoreq	r0, ip, r0
     4c8:	003c0000 	eorseq	r0, ip, r0
     4cc:	00010000 	andeq	r0, r1, r0
     4d0:	00003c50 	andeq	r3, r0, r0, asr ip
     4d4:	00004400 	andeq	r4, r0, r0, lsl #8
     4d8:	f3000400 	vshl.u8	d0, d0, d0
     4dc:	009f5001 	addseq	r5, pc, r1
	...
     4e8:	44000000 	strmi	r0, [r0], #-0
     4ec:	64000000 	strvs	r0, [r0], #-0
     4f0:	01000000 	mrseq	r0, (UNDEF: 0)
     4f4:	00645000 	rsbeq	r5, r4, r0
     4f8:	00cc0000 	sbceq	r0, ip, r0
     4fc:	00040000 	andeq	r0, r4, r0
     500:	9f5001f3 	svcls	0x005001f3
	...
     510:	00000044 	andeq	r0, r0, r4, asr #32
     514:	00000060 	andeq	r0, r0, r0, rrx
     518:	60510001 	subsvs	r0, r1, r1
     51c:	cc000000 	stcgt	0, cr0, [r0], {-0}
     520:	01000000 	mrseq	r0, (UNDEF: 0)
     524:	00005400 	andeq	r5, r0, r0, lsl #8
	...
     530:	00440000 	subeq	r0, r4, r0
     534:	005c0000 	subseq	r0, ip, r0
     538:	00010000 	andeq	r0, r1, r0
     53c:	00005c52 	andeq	r5, r0, r2, asr ip
     540:	0000cc00 	andeq	ip, r0, r0, lsl #24
     544:	55000100 	strpl	r0, [r0, #-256]	; 0xffffff00
	...
     554:	0000000c 	andeq	r0, r0, ip
     558:	00000018 	andeq	r0, r0, r8, lsl r0
     55c:	18500001 	ldmdane	r0, {r0}^
     560:	2c000000 	stccs	0, cr0, [r0], {-0}
     564:	04000000 	streq	r0, [r0], #-0
     568:	5001f300 	andpl	pc, r1, r0, lsl #6
     56c:	0000009f 	muleq	r0, pc, r0	; <UNPREDICTABLE>
	...
     578:	00000c00 	andeq	r0, r0, r0, lsl #24
     57c:	00001b00 	andeq	r1, r0, r0, lsl #22
     580:	51000100 	mrspl	r0, (UNDEF: 16)
     584:	0000001b 	andeq	r0, r0, fp, lsl r0
     588:	0000002c 	andeq	r0, r0, ip, lsr #32
     58c:	01f30004 	mvnseq	r0, r4
     590:	00009f51 	andeq	r9, r0, r1, asr pc
	...
     59c:	000c0000 	andeq	r0, ip, r0
     5a0:	001b0000 	andseq	r0, fp, r0
     5a4:	00010000 	andeq	r0, r1, r0
     5a8:	00001b52 	andeq	r1, r0, r2, asr fp
     5ac:	00002c00 	andeq	r2, r0, r0, lsl #24
     5b0:	54000100 	strpl	r0, [r0], #-256	; 0xffffff00
	...
     5c4:	00000008 	andeq	r0, r0, r8
     5c8:	08500001 	ldmdaeq	r0, {r0}^
     5cc:	0c000000 	stceq	0, cr0, [r0], {-0}
     5d0:	04000000 	streq	r0, [r0], #-0
     5d4:	5001f300 	andpl	pc, r1, r0, lsl #6
     5d8:	0000009f 	muleq	r0, pc, r0	; <UNPREDICTABLE>
	...
     5e4:	0000cc00 	andeq	ip, r0, r0, lsl #24
     5e8:	0000df00 	andeq	sp, r0, r0, lsl #30
     5ec:	50000100 	andpl	r0, r0, r0, lsl #2
     5f0:	000000df 	ldrdeq	r0, [r0], -pc	; <UNPREDICTABLE>
     5f4:	0000011c 	andeq	r0, r0, ip, lsl r1
     5f8:	00570001 	subseq	r0, r7, r1
	...
     604:	cc000000 	stcgt	0, cr0, [r0], {-0}
     608:	df000000 	svcle	0x00000000
     60c:	01000000 	mrseq	r0, (UNDEF: 0)
     610:	00df5100 	sbcseq	r5, pc, r0, lsl #2
     614:	011c0000 	tsteq	ip, r0
     618:	00010000 	andeq	r0, r1, r0
     61c:	00000056 	andeq	r0, r0, r6, asr r0
	...
     628:	0000cc00 	andeq	ip, r0, r0, lsl #24
     62c:	0000df00 	andeq	sp, r0, r0, lsl #30
     630:	52000100 	andpl	r0, r0, #0
     634:	000000df 	ldrdeq	r0, [r0], -pc	; <UNPREDICTABLE>
     638:	0000011c 	andeq	r0, r0, ip, lsl r1
     63c:	00550001 	subseq	r0, r5, r1
	...
     648:	e4000101 	str	r0, [r0], #-257	; 0xfffffeff
     64c:	e4000000 	str	r0, [r0], #-0
     650:	01000000 	mrseq	r0, (UNDEF: 0)
     654:	00e45000 	rsceq	r5, r4, r0
     658:	011c0000 	tsteq	ip, r0
     65c:	00010000 	andeq	r0, r1, r0
     660:	00000054 	andeq	r0, r0, r4, asr r0
	...
     66c:	00018400 	andeq	r8, r1, r0, lsl #8
     670:	00019400 	andeq	r9, r1, r0, lsl #8
     674:	50000100 	andpl	r0, r0, r0, lsl #2
     678:	00000194 	muleq	r0, r4, r1
     67c:	00000358 	andeq	r0, r0, r8, asr r3
     680:	00540001 	subseq	r0, r4, r1
	...
     68c:	84000000 	strhi	r0, [r0], #-0
     690:	97000001 	strls	r0, [r0, -r1]
     694:	01000001 	tsteq	r0, r1
     698:	01975100 	orrseq	r5, r7, r0, lsl #2
     69c:	03580000 	cmpeq	r8, #0, 0
     6a0:	00010000 	andeq	r0, r1, r0
     6a4:	00000055 	andeq	r0, r0, r5, asr r0
	...
     6b0:	2c000000 	stccs	0, cr0, [r0], {-0}
     6b4:	38000000 	stmdacc	r0, {}	; <UNPREDICTABLE>
     6b8:	01000000 	mrseq	r0, (UNDEF: 0)
     6bc:	00385000 	eorseq	r5, r8, r0
     6c0:	00480000 	subeq	r0, r8, r0
     6c4:	00010000 	andeq	r0, r1, r0
     6c8:	00004854 	andeq	r4, r0, r4, asr r8
     6cc:	00005800 	andeq	r5, r0, r0, lsl #16
     6d0:	50000100 	andpl	r0, r0, r0, lsl #2
	...
     6dc:	00010100 	andeq	r0, r1, r0, lsl #2
     6e0:	00000000 	andeq	r0, r0, r0
     6e4:	00000008 	andeq	r0, r0, r8
     6e8:	08500001 	ldmdaeq	r0, {r0}^
     6ec:	34000000 	strcc	r0, [r0], #-0
     6f0:	01000000 	mrseq	r0, (UNDEF: 0)
     6f4:	00005400 	andeq	r5, r0, r0, lsl #8
	...
     704:	00000288 	andeq	r0, r0, r8, lsl #5
     708:	000002b8 			; <UNDEFINED> instruction: 0x000002b8
     70c:	b8500001 	ldmdalt	r0, {r0}^
     710:	04000002 	streq	r0, [r0], #-2
     714:	01000007 	tsteq	r0, r7
     718:	07045900 	streq	r5, [r4, -r0, lsl #18]
     71c:	07400000 	strbeq	r0, [r0, -r0]
     720:	00040000 	andeq	r0, r4, r0
     724:	9f5001f3 	svcls	0x005001f3
	...
     734:	02880000 	addeq	r0, r8, #0, 0
     738:	02a00000 	adceq	r0, r0, #0, 0
     73c:	00010000 	andeq	r0, r1, r0
     740:	0002a051 	andeq	sl, r2, r1, asr r0
     744:	0002b800 	andeq	fp, r2, r0, lsl #16
     748:	71000300 	mrsvc	r0, LR_irq
     74c:	02b89f01 	adcseq	r9, r8, #1, 30
     750:	07400000 	strbeq	r0, [r0, -r0]
     754:	00040000 	andeq	r0, r4, r0
     758:	9f5101f3 	svcls	0x005101f3
	...
     770:	00000288 	andeq	r0, r0, r8, lsl #5
     774:	000002b8 			; <UNDEFINED> instruction: 0x000002b8
     778:	b8520001 	ldmdalt	r2, {r0}^
     77c:	ec000002 	stc	0, cr0, [r0], {2}
     780:	01000003 	tsteq	r0, r3
     784:	03ec5600 	mvneq	r5, #0, 12
     788:	04b80000 	ldrteq	r0, [r8], #0
     78c:	00010000 	andeq	r0, r1, r0
     790:	0004b85b 	andeq	fp, r4, fp, asr r8
     794:	0004d800 	andeq	sp, r4, r0, lsl #16
     798:	56000100 	strpl	r0, [r0], -r0, lsl #2
     79c:	000004d8 	ldrdeq	r0, [r0], -r8
     7a0:	0000055c 	andeq	r0, r0, ip, asr r5
     7a4:	5c5b0001 	mrrcpl	0, 0, r0, fp, cr1
     7a8:	04000005 	streq	r0, [r0], #-5
     7ac:	01000007 	tsteq	r0, r7
     7b0:	00005600 	andeq	r5, r0, r0, lsl #12
     7b4:	00000000 	andeq	r0, r0, r0
     7b8:	00010000 	andeq	r0, r1, r0
     7bc:	00000000 	andeq	r0, r0, r0
     7c0:	00010100 	andeq	r0, r1, r0, lsl #2
     7c4:	00000000 	andeq	r0, r0, r0
     7c8:	00020200 	andeq	r0, r2, r0, lsl #4
     7cc:	029c0000 	addseq	r0, ip, #0, 0
     7d0:	02b80000 	adcseq	r0, r8, #0, 0
     7d4:	00010000 	andeq	r0, r1, r0
     7d8:	0002b850 	andeq	fp, r2, r0, asr r8
     7dc:	0002bc00 	andeq	fp, r2, r0, lsl #24
     7e0:	54000100 	strpl	r0, [r0], #-256	; 0xffffff00
     7e4:	000002bc 			; <UNDEFINED> instruction: 0x000002bc
     7e8:	000002c0 	andeq	r0, r0, r0, asr #5
     7ec:	01740003 	cmneq	r4, r3
     7f0:	0002c09f 	muleq	r2, pc, r0	; <UNPREDICTABLE>
     7f4:	0002e400 	andeq	lr, r2, r0, lsl #8
     7f8:	54000100 	strpl	r0, [r0], #-256	; 0xffffff00
     7fc:	000002e4 	andeq	r0, r0, r4, ror #5
     800:	000002e8 	andeq	r0, r0, r8, ror #5
     804:	01740003 	cmneq	r4, r3
     808:	0002e89f 	muleq	r2, pc, r8	; <UNPREDICTABLE>
     80c:	0006d400 	andeq	sp, r6, r0, lsl #8
     810:	54000100 	strpl	r0, [r0], #-256	; 0xffffff00
     814:	000006d4 	ldrdeq	r0, [r0], -r4
     818:	000006d8 	ldrdeq	r0, [r0], -r8
     81c:	01740003 	cmneq	r4, r3
     820:	0006d89f 	muleq	r6, pc, r8	; <UNPREDICTABLE>
     824:	0006f000 	andeq	pc, r6, r0
     828:	54000100 	strpl	r0, [r0], #-256	; 0xffffff00
     82c:	000006f0 	strdeq	r0, [r0], -r0	; <UNPREDICTABLE>
     830:	000006f8 	strdeq	r0, [r0], -r8
     834:	01740003 	cmneq	r4, r3
     838:	0006f89f 	muleq	r6, pc, r8	; <UNPREDICTABLE>
     83c:	00070400 	andeq	r0, r7, r0, lsl #8
     840:	54000100 	strpl	r0, [r0], #-256	; 0xffffff00
	...
     850:	000002a4 	andeq	r0, r0, r4, lsr #5
     854:	00000704 	andeq	r0, r0, r4, lsl #14
     858:	04580001 	ldrbeq	r0, [r8], #-1
     85c:	40000007 	andmi	r0, r0, r7
     860:	0a000007 	beq	884 <__code_start__-0x777c>
     864:	5101f300 	mrspl	pc, SP_irq	; <UNPREDICTABLE>
     868:	225001f3 	subscs	r0, r0, #-1073741764	; 0xc000003c
     86c:	009f1c31 	addseq	r1, pc, r1, lsr ip	; <UNPREDICTABLE>
     870:	00000000 	andeq	r0, r0, r0
     874:	01000000 	mrseq	r0, (UNDEF: 0)
     878:	00000000 	andeq	r0, r0, r0
     87c:	00040800 	andeq	r0, r4, r0, lsl #16
     880:	00047400 	andeq	r7, r4, r0, lsl #8
     884:	57000100 	strpl	r0, [r0, -r0, lsl #2]
     888:	000004d8 	ldrdeq	r0, [r0], -r8
     88c:	000004fc 	strdeq	r0, [r0], -ip
     890:	40570001 	subsmi	r0, r7, r1
     894:	5c000005 	stcpl	0, cr0, [r0], {5}
     898:	01000005 	tsteq	r0, r5
     89c:	00005700 	andeq	r5, r0, r0, lsl #14
     8a0:	00000000 	andeq	r0, r0, r0
     8a4:	00020000 	andeq	r0, r2, r0
     8a8:	04080000 	streq	r0, [r8], #-0
     8ac:	04b80000 	ldrteq	r0, [r8], #0
     8b0:	00010000 	andeq	r0, r1, r0
     8b4:	0004d85a 	andeq	sp, r4, sl, asr r8
     8b8:	00055c00 	andeq	r5, r5, r0, lsl #24
     8bc:	5a000100 	bpl	cc4 <__code_start__-0x733c>
	...
     8c8:	00000001 	andeq	r0, r0, r1
     8cc:	000002ac 	andeq	r0, r0, ip, lsr #5
     8d0:	000002b8 			; <UNDEFINED> instruction: 0x000002b8
     8d4:	b8520001 	ldmdalt	r2, {r0}^
     8d8:	40000002 	andmi	r0, r0, r2
     8dc:	03000007 	movweq	r0, #7
     8e0:	7dc89100 	stfvcp	f1, [r8]
	...
     8f4:	00010100 	andeq	r0, r1, r0, lsl #2
	...
     900:	04740000 	ldrbteq	r0, [r4], #-0
     904:	048c0000 	streq	r0, [ip], #0
     908:	00010000 	andeq	r0, r1, r0
     90c:	00048c50 	andeq	r8, r4, r0, asr ip
     910:	0004b800 	andeq	fp, r4, r0, lsl #16
     914:	57000100 	strpl	r0, [r0, -r0, lsl #2]
     918:	000004fc 	strdeq	r0, [r0], -ip
     91c:	00000514 	andeq	r0, r0, r4, lsl r5
     920:	14500001 	ldrbne	r0, [r0], #-1
     924:	40000005 	andmi	r0, r0, r5
     928:	01000005 	tsteq	r0, r5
     92c:	05a45700 	streq	r5, [r4, #1792]!	; 0x700
     930:	05a40000 	streq	r0, [r4, #0]!
     934:	00010000 	andeq	r0, r1, r0
     938:	0005a450 	andeq	sl, r5, r0, asr r4
     93c:	0005ac00 	andeq	sl, r5, r0, lsl #24
     940:	57000100 	strpl	r0, [r0, -r0, lsl #2]
     944:	000005dc 	ldrdeq	r0, [r0], -ip
     948:	000005e0 	andeq	r0, r0, r0, ror #11
     94c:	10500001 	subsne	r0, r0, r1
     950:	14000006 	strne	r0, [r0], #-6
     954:	01000006 	tsteq	r0, r6
     958:	06445000 	strbeq	r5, [r4], -r0
     95c:	06480000 	strbeq	r0, [r8], -r0
     960:	00010000 	andeq	r0, r1, r0
     964:	00068c50 	andeq	r8, r6, r0, asr ip
     968:	00069000 	andeq	r9, r6, r0
     96c:	50000100 	andpl	r0, r0, r0, lsl #2
     970:	000006d0 	ldrdeq	r0, [r0], -r0	; <UNPREDICTABLE>
     974:	000006f0 	strdeq	r0, [r0], -r0	; <UNPREDICTABLE>
     978:	00570001 	subseq	r0, r7, r1
     97c:	00000000 	andeq	r0, r0, r0
     980:	02000000 	andeq	r0, r0, #0, 0
     984:	00000000 	andeq	r0, r0, r0
     988:	0002f400 	andeq	pc, r2, r0, lsl #8
     98c:	0002f800 	andeq	pc, r2, r0, lsl #16
     990:	30000200 	andcc	r0, r0, r0, lsl #4
     994:	0002f89f 	muleq	r2, pc, r8	; <UNPREDICTABLE>
     998:	00031400 	andeq	r1, r3, r0, lsl #8
     99c:	55000100 	strpl	r0, [r0, #-256]	; 0xffffff00
     9a0:	0000031c 	andeq	r0, r0, ip, lsl r3
     9a4:	000006f0 	strdeq	r0, [r0], -r0	; <UNPREDICTABLE>
     9a8:	00550001 	subseq	r0, r5, r1
     9ac:	00000000 	andeq	r0, r0, r0
     9b0:	01000000 	mrseq	r0, (UNDEF: 0)
	...
     9bc:	0003b800 	andeq	fp, r3, r0, lsl #16
     9c0:	00045400 	andeq	r5, r4, r0, lsl #8
     9c4:	56000100 	strpl	r0, [r0], -r0, lsl #2
     9c8:	00000454 	andeq	r0, r0, r4, asr r4
     9cc:	000004b8 			; <UNDEFINED> instruction: 0x000004b8
     9d0:	7e7b0003 	cdpvc	0, 7, cr0, cr11, cr3, {0}
     9d4:	0004b89f 	muleq	r4, pc, r8	; <UNPREDICTABLE>
     9d8:	0004dc00 	andeq	sp, r4, r0, lsl #24
     9dc:	56000100 	strpl	r0, [r0], -r0, lsl #2
     9e0:	000004dc 	ldrdeq	r0, [r0], -ip
     9e4:	00000540 	andeq	r0, r0, r0, asr #10
     9e8:	7e7b0003 	cdpvc	0, 7, cr0, cr11, cr3, {0}
     9ec:	0005409f 	muleq	r5, pc, r0	; <UNPREDICTABLE>
     9f0:	00055c00 	andeq	r5, r5, r0, lsl #24
     9f4:	56000100 	strpl	r0, [r0], -r0, lsl #2
	...
     a04:	00700000 	rsbseq	r0, r0, r0
     a08:	00940000 	addseq	r0, r4, r0
     a0c:	00010000 	andeq	r0, r1, r0
     a10:	00009450 	andeq	r9, r0, r0, asr r4
     a14:	0000fc00 	andeq	pc, r0, r0, lsl #24
     a18:	70000300 	andvc	r0, r0, r0, lsl #6
     a1c:	00fc9f02 	rscseq	r9, ip, r2, lsl #30
     a20:	02240000 	eoreq	r0, r4, #0, 0
     a24:	00040000 	andeq	r0, r4, r0
     a28:	9f5001f3 	svcls	0x005001f3
	...
     a44:	00000070 	andeq	r0, r0, r0, ror r0
     a48:	000000e0 	andeq	r0, r0, r0, ror #1
     a4c:	e0510001 	subs	r0, r1, r1
     a50:	54000000 	strpl	r0, [r0], #-0
     a54:	01000001 	tsteq	r0, r1
     a58:	01545500 	cmpeq	r4, r0, lsl #10
     a5c:	01580000 	cmpeq	r8, r0
     a60:	00010000 	andeq	r0, r1, r0
     a64:	00015851 	andeq	r5, r1, r1, asr r8
     a68:	0001b000 	andeq	fp, r1, r0
     a6c:	55000100 	strpl	r0, [r0, #-256]	; 0xffffff00
     a70:	000001b0 			; <UNDEFINED> instruction: 0x000001b0
     a74:	000001c0 	andeq	r0, r0, r0, asr #3
     a78:	c0510001 	subsgt	r0, r1, r1
     a7c:	e4000001 	str	r0, [r0], #-1
     a80:	01000001 	tsteq	r0, r1
     a84:	01e45500 	mvneq	r5, r0, lsl #10
     a88:	01f80000 	mvnseq	r0, r0
     a8c:	00010000 	andeq	r0, r1, r0
     a90:	0001f851 	andeq	pc, r1, r1, asr r8	; <UNPREDICTABLE>
     a94:	00022400 	andeq	r2, r2, r0, lsl #8
     a98:	55000100 	strpl	r0, [r0, #-256]	; 0xffffff00
	...
     aa8:	00000070 	andeq	r0, r0, r0, ror r0
     aac:	00000084 	andeq	r0, r0, r4, lsl #1
     ab0:	84520001 	ldrbhi	r0, [r2], #-1
     ab4:	24000000 	strcs	r0, [r0], #-0
     ab8:	01000002 	tsteq	r0, r2
     abc:	00005400 	andeq	r5, r0, r0, lsl #8
	...
     ac8:	01000000 	mrseq	r0, (UNDEF: 0)
     acc:	00000000 	andeq	r0, r0, r0
     ad0:	00700000 	rsbseq	r0, r0, r0
     ad4:	00f40000 	rscseq	r0, r4, r0
     ad8:	00010000 	andeq	r0, r1, r0
     adc:	00014c53 	andeq	r4, r1, r3, asr ip
     ae0:	00018000 	andeq	r8, r1, r0
     ae4:	53000100 	movwpl	r0, #256	; 0x100
     ae8:	00000180 	andeq	r0, r0, r0, lsl #3
     aec:	0000018c 	andeq	r0, r0, ip, lsl #3
     af0:	01f30004 	mvnseq	r0, r4
     af4:	01b09f53 	asrseq	r9, r3, pc
     af8:	01e80000 	mvneq	r0, r0
     afc:	00010000 	andeq	r0, r1, r0
     b00:	0001e853 	andeq	lr, r1, r3, asr r8
     b04:	0001ff00 	andeq	pc, r1, r0, lsl #30
     b08:	5c000100 	stfpls	f0, [r0], {-0}
     b0c:	000001ff 	strdeq	r0, [r0], -pc	; <UNPREDICTABLE>
     b10:	00000224 	andeq	r0, r0, r4, lsr #4
     b14:	01f30004 	mvnseq	r0, r4
     b18:	00009f53 	andeq	r9, r0, r3, asr pc
	...
     b28:	00000070 	andeq	r0, r0, r0, ror r0
     b2c:	0000008c 	andeq	r0, r0, ip, lsl #1
     b30:	00910002 	addseq	r0, r1, r2
     b34:	0000008c 	andeq	r0, r0, ip, lsl #1
     b38:	00000193 	muleq	r0, r3, r1
     b3c:	b0520001 	subslt	r0, r2, r1
     b40:	f4000001 	vst4.8	{d0-d3}, [r0], r1
     b44:	01000001 	tsteq	r0, r1
     b48:	00005200 	andeq	r5, r0, r0, lsl #4
     b4c:	00000000 	andeq	r0, r0, r0
     b50:	00010000 	andeq	r0, r1, r0
     b54:	00010100 	andeq	r0, r1, r0, lsl #2
     b58:	00000000 	andeq	r0, r0, r0
     b5c:	01000000 	mrseq	r0, (UNDEF: 0)
     b60:	00010101 	andeq	r0, r1, r1, lsl #2
     b64:	00010100 	andeq	r0, r1, r0, lsl #2
	...
     b70:	008c0000 	addeq	r0, ip, r0
     b74:	00fc0000 	rscseq	r0, ip, r0
     b78:	00040000 	andeq	r0, r4, r0
     b7c:	9f7fa091 	svcls	0x007fa091
     b80:	000000fc 	strdeq	r0, [r0], -ip
     b84:	0000013c 	andeq	r0, r0, ip, lsr r1
     b88:	3c500001 	mrrccc	0, 0, r0, r0, cr1	; <UNPREDICTABLE>
     b8c:	48000001 	stmdami	r0, {r0}
     b90:	03000001 	movweq	r0, #1
     b94:	9f027100 	svcls	0x00027100
     b98:	00000148 	andeq	r0, r0, r8, asr #2
     b9c:	0000014c 	andeq	r0, r0, ip, asr #2
     ba0:	4c500001 	mrrcmi	0, 0, r0, r0, cr1	; <UNPREDICTABLE>
     ba4:	58000001 	stmdapl	r0, {r0}
     ba8:	04000001 	streq	r0, [r0], #-1
     bac:	7fa09100 	svcvc	0x00a09100
     bb0:	0001589f 	muleq	r1, pc, r8	; <UNPREDICTABLE>
     bb4:	00016c00 	andeq	r6, r1, r0, lsl #24
     bb8:	51000100 	mrspl	r0, (UNDEF: 16)
     bbc:	0000016c 	andeq	r0, r0, ip, ror #2
     bc0:	00000178 	andeq	r0, r0, r8, ror r1
     bc4:	7f710003 	svcvc	0x00710003
     bc8:	0001789f 	muleq	r1, pc, r8	; <UNPREDICTABLE>
     bcc:	00018400 	andeq	r8, r1, r0, lsl #8
     bd0:	71000300 	mrsvc	r0, LR_irq
     bd4:	01849f01 	orreq	r9, r4, r1, lsl #30
     bd8:	01930000 	orrseq	r0, r3, r0
     bdc:	00010000 	andeq	r0, r1, r0
     be0:	0001b050 	andeq	fp, r1, r0, asr r0
     be4:	0001b000 	andeq	fp, r1, r0
     be8:	91000400 	tstls	r0, r0, lsl #8
     bec:	b09f7fa0 	addslt	r7, pc, r0, lsr #31
     bf0:	b8000001 	stmdalt	r0, {r0}
     bf4:	04000001 	streq	r0, [r0], #-1
     bf8:	7fa19100 	svcvc	0x00a19100
     bfc:	0001b89f 	muleq	r1, pc, r8	; <UNPREDICTABLE>
     c00:	0001bc00 	andeq	fp, r1, r0, lsl #24
     c04:	50000100 	andpl	r0, r0, r0, lsl #2
     c08:	000001bc 			; <UNDEFINED> instruction: 0x000001bc
     c0c:	000001c0 	andeq	r0, r0, r0, asr #3
     c10:	a0910004 	addsge	r0, r1, r4
     c14:	01c09f7f 	biceq	r9, r0, pc, ror pc
     c18:	01d40000 	bicseq	r0, r4, r0
     c1c:	00010000 	andeq	r0, r1, r0
     c20:	0001d450 	andeq	sp, r1, r0, asr r4
     c24:	0001e400 	andeq	lr, r1, r0, lsl #8
     c28:	70000300 	andvc	r0, r0, r0, lsl #6
     c2c:	01e49f7f 	mvneq	r9, pc, ror pc
     c30:	02240000 	eoreq	r0, r4, #0, 0
     c34:	00040000 	andeq	r0, r4, r0
     c38:	9f7fa091 	svcls	0x007fa091
	...
     c44:	01000000 	mrseq	r0, (UNDEF: 0)
     c48:	00000001 	andeq	r0, r0, r1
	...
     c58:	00000090 	muleq	r0, r0, r0
     c5c:	000000dc 	ldrdeq	r0, [r0], -ip
     c60:	dc5c0001 	mrrcle	0, 0, r0, ip, cr1
     c64:	f4000000 	vst4.8	{d0-d3}, [r0], r0
     c68:	01000000 	mrseq	r0, (UNDEF: 0)
     c6c:	00f45300 	rscseq	r5, r4, r0, lsl #6
     c70:	014c0000 	mrseq	r0, (UNDEF: 76)
     c74:	00010000 	andeq	r0, r1, r0
     c78:	00014c5c 	andeq	r4, r1, ip, asr ip
     c7c:	00015800 	andeq	r5, r1, r0, lsl #16
     c80:	53000100 	movwpl	r0, #256	; 0x100
     c84:	00000158 	andeq	r0, r0, r8, asr r1
     c88:	00000174 	andeq	r0, r0, r4, ror r1
     c8c:	b05c0001 	subslt	r0, ip, r1
     c90:	c0000001 	andgt	r0, r0, r1
     c94:	01000001 	tsteq	r0, r1
     c98:	01c05300 	biceq	r5, r0, r0, lsl #6
     c9c:	01dc0000 	bicseq	r0, ip, r0
     ca0:	00010000 	andeq	r0, r1, r0
     ca4:	0001e45c 	andeq	lr, r1, ip, asr r4
     ca8:	0001e800 	andeq	lr, r1, r0, lsl #16
     cac:	53000100 	movwpl	r0, #256	; 0x100
     cb0:	000001e8 	andeq	r0, r0, r8, ror #3
     cb4:	000001ff 	strdeq	r0, [r0], -pc	; <UNPREDICTABLE>
     cb8:	ff5c0001 			; <UNDEFINED> instruction: 0xff5c0001
     cbc:	24000001 	strcs	r0, [r0], #-1
     cc0:	04000002 	streq	r0, [r0], #-2
     cc4:	5301f300 	movwpl	pc, #4864	; 0x1300	; <UNPREDICTABLE>
     cc8:	0000009f 	muleq	r0, pc, r0	; <UNPREDICTABLE>
     ccc:	00000000 	andeq	r0, r0, r0
     cd0:	01010100 	mrseq	r0, (UNDEF: 17)
     cd4:	00000000 	andeq	r0, r0, r0
     cd8:	0000dc00 	andeq	sp, r0, r0, lsl #24
     cdc:	0000f000 	andeq	pc, r0, r0
     ce0:	30000200 	andcc	r0, r0, r0, lsl #4
     ce4:	0000f09f 	muleq	r0, pc, r0	; <UNPREDICTABLE>
     ce8:	0000f800 	andeq	pc, r0, r0, lsl #16
     cec:	31000200 	mrscc	r0, R8_usr
     cf0:	0000fc9f 	muleq	r0, pc, ip	; <UNPREDICTABLE>
     cf4:	00014c00 	andeq	r4, r1, r0, lsl #24
     cf8:	56000100 	strpl	r0, [r0], -r0, lsl #2
     cfc:	0000014c 	andeq	r0, r0, ip, asr #2
     d00:	00000154 	andeq	r0, r0, r4, asr r1
     d04:	9f300002 	svcls	0x00300002
	...
     d10:	01000000 	mrseq	r0, (UNDEF: 0)
     d14:	01000001 	tsteq	r0, r1
     d18:	00380001 	eorseq	r0, r8, r1
     d1c:	00540000 	subseq	r0, r4, r0
     d20:	00010000 	andeq	r0, r1, r0
     d24:	00005450 	andeq	r5, r0, r0, asr r4
     d28:	00005800 	andeq	r5, r0, r0, lsl #16
     d2c:	52000100 	andpl	r0, r0, #0
     d30:	00000058 	andeq	r0, r0, r8, asr r0
     d34:	00000060 	andeq	r0, r0, r0, rrx
     d38:	01720003 	cmneq	r2, r3
     d3c:	0000609f 	muleq	r0, pc, r0	; <UNPREDICTABLE>
     d40:	00006400 	andeq	r6, r0, r0, lsl #8
     d44:	52000100 	andpl	r0, r0, #0
     d48:	00000064 	andeq	r0, r0, r4, rrx
     d4c:	00000070 	andeq	r0, r0, r0, ror r0
     d50:	01720003 	cmneq	r2, r3
     d54:	0000009f 	muleq	r0, pc, r0	; <UNPREDICTABLE>
	...
     d60:	00003800 	andeq	r3, r0, r0, lsl #16
     d64:	00005000 	andeq	r5, r0, r0
     d68:	51000100 	mrspl	r0, (UNDEF: 16)
     d6c:	00000050 	andeq	r0, r0, r0, asr r0
     d70:	00000070 	andeq	r0, r0, r0, ror r0
     d74:	01f30004 	mvnseq	r0, r4
     d78:	00009f51 	andeq	r9, r0, r1, asr pc
	...
     d84:	01000000 	mrseq	r0, (UNDEF: 0)
     d88:	00380001 	eorseq	r0, r8, r1
     d8c:	00500000 	subseq	r0, r0, r0
     d90:	00010000 	andeq	r0, r1, r0
     d94:	00005052 	andeq	r5, r0, r2, asr r0
     d98:	00005c00 	andeq	r5, r0, r0, lsl #24
     d9c:	51000100 	mrspl	r0, (UNDEF: 16)
     da0:	0000005c 	andeq	r0, r0, ip, asr r0
     da4:	00000060 	andeq	r0, r0, r0, rrx
     da8:	01710003 	cmneq	r1, r3
     dac:	0000609f 	muleq	r0, pc, r0	; <UNPREDICTABLE>
     db0:	00007000 	andeq	r7, r0, r0
     db4:	51000100 	mrspl	r0, (UNDEF: 16)
	...
     dc4:	00000038 	andeq	r0, r0, r8, lsr r0
     dc8:	0000004c 	andeq	r0, r0, ip, asr #32
     dcc:	4c530001 	mrrcmi	0, 0, r0, r3, cr1
     dd0:	68000000 	stmdavs	r0, {}	; <UNPREDICTABLE>
     dd4:	01000000 	mrseq	r0, (UNDEF: 0)
     dd8:	00005300 	andeq	r5, r0, r0, lsl #6
	...
     de8:	00400000 	subeq	r0, r0, r0
     dec:	00480000 	subeq	r0, r8, r0
     df0:	00010000 	andeq	r0, r1, r0
     df4:	0000485c 	andeq	r4, r0, ip, asr r8
     df8:	00004c00 	andeq	r4, r0, r0, lsl #24
     dfc:	72000800 	andvc	r0, r0, #0, 16
     e00:	1c007300 	stcne	3, cr7, [r0], {-0}
     e04:	4c9f0123 	ldfmis	f0, [pc], {35}	; 0x23
     e08:	54000000 	strpl	r0, [r0], #-0
     e0c:	09000000 	stmdbeq	r0, {}	; <UNPREDICTABLE>
     e10:	f3007200 	vhsub.u8	d7, d0, d0
     e14:	231c5301 	tstcs	ip, #67108864	; 0x4000000
     e18:	00549f01 	subseq	r9, r4, r1, lsl #30
     e1c:	00700000 	rsbseq	r0, r0, r0
     e20:	000a0000 	andeq	r0, sl, r0
     e24:	f35201f3 	vbsl	q8, q9, <illegal reg q9.5>
     e28:	231c5301 	tstcs	ip, #67108864	; 0x4000000
     e2c:	00009f01 	andeq	r9, r0, r1, lsl #30
     e30:	00000000 	andeq	r0, r0, r0
     e34:	00010000 	andeq	r0, r1, r0
     e38:	0000004c 	andeq	r0, r0, ip, asr #32
     e3c:	00000070 	andeq	r0, r0, r0, ror r0
     e40:	00500001 	subseq	r0, r0, r1
	...
     e4c:	00000101 	andeq	r0, r0, r1, lsl #2
     e50:	00001400 	andeq	r1, r0, r0, lsl #8
     e54:	00001c00 	andeq	r1, r0, r0, lsl #24
     e58:	50000100 	andpl	r0, r0, r0, lsl #2
     e5c:	0000001c 	andeq	r0, r0, ip, lsl r0
     e60:	00000024 	andeq	r0, r0, r4, lsr #32
     e64:	01700003 	cmneq	r0, r3
     e68:	0000249f 	muleq	r0, pc, r4	; <UNPREDICTABLE>
     e6c:	00003800 	andeq	r3, r0, r0, lsl #16
     e70:	50000100 	andpl	r0, r0, r0, lsl #2
	...
     e80:	00000014 	andeq	r0, r0, r4, lsl r0
     e84:	00000018 	andeq	r0, r0, r8, lsl r0
     e88:	18510001 	ldmdane	r1, {r0}^
     e8c:	38000000 	stmdacc	r0, {}	; <UNPREDICTABLE>
     e90:	04000000 	streq	r0, [r0], #-0
     e94:	5101f300 	mrspl	pc, SP_irq	; <UNPREDICTABLE>
     e98:	0000009f 	muleq	r0, pc, r0	; <UNPREDICTABLE>
     e9c:	00000000 	andeq	r0, r0, r0
     ea0:	18000000 	stmdane	r0, {}	; <UNPREDICTABLE>
     ea4:	38000000 	stmdacc	r0, {}	; <UNPREDICTABLE>
     ea8:	01000000 	mrseq	r0, (UNDEF: 0)
     eac:	00005100 	andeq	r5, r0, r0, lsl #2
	...
     ec0:	00000004 	andeq	r0, r0, r4
     ec4:	04500001 	ldrbeq	r0, [r0], #-1
     ec8:	0c000000 	stceq	0, cr0, [r0], {-0}
     ecc:	03000000 	movweq	r0, #0
     ed0:	9f307000 	svcls	0x00307000
     ed4:	0000000c 	andeq	r0, r0, ip
     ed8:	00000014 	andeq	r0, r0, r4, lsl r0
     edc:	01f30004 	mvnseq	r0, r4
     ee0:	00009f50 	andeq	r9, r0, r0, asr pc
	...
     eec:	02240000 	eoreq	r0, r4, #0, 0
     ef0:	02680000 	rsbeq	r0, r8, #0, 0
     ef4:	00010000 	andeq	r0, r1, r0
     ef8:	00026850 	andeq	r6, r2, r0, asr r8
     efc:	00028800 	andeq	r8, r2, r0, lsl #16
     f00:	f3000400 	vshl.u8	d0, d0, d0
     f04:	009f5001 	addseq	r5, pc, r1
	...
     f10:	24000000 	strcs	r0, [r0], #-0
     f14:	64000002 	strvs	r0, [r0], #-2
     f18:	01000002 	tsteq	r0, r2
     f1c:	02645100 	rsbeq	r5, r4, #0
     f20:	02880000 	addeq	r0, r8, #0, 0
     f24:	00040000 	andeq	r0, r4, r0
     f28:	9f5101f3 	svcls	0x005101f3
	...
     f34:	00010100 	andeq	r0, r1, r0, lsl #2
     f38:	000c0000 	andeq	r0, ip, r0
     f3c:	00140000 	andseq	r0, r4, r0
     f40:	00010000 	andeq	r0, r1, r0
     f44:	00001453 	andeq	r1, r0, r3, asr r4
     f48:	00001c00 	andeq	r1, r0, r0, lsl #24
     f4c:	73000300 	movwvc	r0, #768	; 0x300
     f50:	001c9f04 	andseq	r9, ip, r4, lsl #30
     f54:	00230000 	eoreq	r0, r3, r0
     f58:	00010000 	andeq	r0, r1, r0
     f5c:	00000053 	andeq	r0, r0, r3, asr r0
     f60:	00000000 	andeq	r0, r0, r0
     f64:	ec000100 	stfs	f0, [r0], {-0}
     f68:	08000090 	stmdaeq	r0, {r4, r7}
     f6c:	06000091 			; <UNDEFINED> instruction: 0x06000091
     f70:	001c0c00 	andseq	r0, ip, r0, lsl #24
     f74:	009f2010 	addseq	r2, pc, r0, lsl r0	; <UNPREDICTABLE>
     f78:	00000000 	andeq	r0, r0, r0
     f7c:	02000000 	andeq	r0, r0, #0, 0
     f80:	0090ec00 	addseq	lr, r0, r0, lsl #24
     f84:	00910800 	addseq	r0, r1, r0, lsl #16
     f88:	0c000600 	stceq	6, cr0, [r0], {-0}
     f8c:	20100024 	andscs	r0, r0, r4, lsr #32
     f90:	0000009f 	muleq	r0, pc, r0	; <UNPREDICTABLE>
     f94:	00000000 	andeq	r0, r0, r0
     f98:	ec000300 	stc	3, cr0, [r0], {-0}
     f9c:	08000090 	stmdaeq	r0, {r4, r7}
     fa0:	05000091 	streq	r0, [r0, #-145]	; 0xffffff6f
     fa4:	47b40800 	ldrmi	r0, [r4, r0, lsl #16]!
     fa8:	00009f24 	andeq	r9, r0, r4, lsr #30
     fac:	00000000 	andeq	r0, r0, r0
     fb0:	00040000 	andeq	r0, r4, r0
     fb4:	000090ec 	andeq	r9, r0, ip, ror #1
     fb8:	00009108 	andeq	r9, r0, r8, lsl #2
     fbc:	20080003 	andcs	r0, r8, r3
     fc0:	0000009f 	muleq	r0, pc, r0	; <UNPREDICTABLE>
     fc4:	00000000 	andeq	r0, r0, r0
     fc8:	00000200 	andeq	r0, r0, r0, lsl #4
     fcc:	b8000000 	stmdalt	r0, {}	; <UNPREDICTABLE>
     fd0:	bc000090 	stclt	0, cr0, [r0], {144}	; 0x90
     fd4:	02000090 	andeq	r0, r0, #144, 0	; 0x90
     fd8:	bc9f3000 	ldclt	0, cr3, [pc], {0}
     fdc:	c0000090 	mulgt	r0, r0, r0
     fe0:	01000090 	swpeq	r0, r0, [r0]	; <UNPREDICTABLE>
     fe4:	90c45300 	sbcls	r5, r4, r0, lsl #6
     fe8:	90cc0000 	sbcls	r0, ip, r0
     fec:	00010000 	andeq	r0, r1, r0
     ff0:	00000053 	andeq	r0, r0, r3, asr r0
     ff4:	00000000 	andeq	r0, r0, r0
     ff8:	00000200 	andeq	r0, r0, r0, lsl #4
     ffc:	0090a000 	addseq	sl, r0, r0
    1000:	0090a400 	addseq	sl, r0, r0, lsl #8
    1004:	30000200 	andcc	r0, r0, r0, lsl #4
    1008:	0090a49f 	umullseq	sl, r0, pc, r4	; <UNPREDICTABLE>
    100c:	0090a800 	addseq	sl, r0, r0, lsl #16
    1010:	50000100 	andpl	r0, r0, r0, lsl #2
	...
    1020:	0000006c 	andeq	r0, r0, ip, rrx
    1024:	00000078 	andeq	r0, r0, r8, ror r0
    1028:	78500001 	ldmdavc	r0, {r0}^
    102c:	84000000 	strhi	r0, [r0], #-0
    1030:	04000000 	streq	r0, [r0], #-0
    1034:	5001f300 	andpl	pc, r1, r0, lsl #6
    1038:	0000009f 	muleq	r0, pc, r0	; <UNPREDICTABLE>
	...
    1044:	00005400 	andeq	r5, r0, r0, lsl #8
    1048:	00006000 	andeq	r6, r0, r0
    104c:	50000100 	andpl	r0, r0, r0, lsl #2
    1050:	00000060 	andeq	r0, r0, r0, rrx
    1054:	0000006c 	andeq	r0, r0, ip, rrx
    1058:	01f30004 	mvnseq	r0, r4
    105c:	00009f50 	andeq	r9, r0, r0, asr pc
	...
    1068:	00300000 	eorseq	r0, r0, r0
    106c:	003b0000 	eorseq	r0, fp, r0
    1070:	00010000 	andeq	r0, r1, r0
    1074:	00003b50 	andeq	r3, r0, r0, asr fp
    1078:	00005400 	andeq	r5, r0, r0, lsl #8
    107c:	55000100 	strpl	r0, [r0, #-256]	; 0xffffff00
	...
    1088:	00400000 	subeq	r0, r0, r0
    108c:	00540000 	subseq	r0, r4, r0
    1090:	00010000 	andeq	r0, r1, r0
    1094:	00000054 	andeq	r0, r0, r4, asr r0
    1098:	00000000 	andeq	r0, r0, r0
    109c:	44000000 	strmi	r0, [r0], #-0
    10a0:	48000000 	stmdami	r0, {}	; <UNPREDICTABLE>
    10a4:	01000000 	mrseq	r0, (UNDEF: 0)
    10a8:	00005000 	andeq	r5, r0, r0
	...
    10b4:	00240000 	eoreq	r0, r4, r0
    10b8:	00270000 	eoreq	r0, r7, r0
    10bc:	00010000 	andeq	r0, r1, r0
    10c0:	00002750 	andeq	r2, r0, r0, asr r7
    10c4:	00003000 	andeq	r3, r0, r0
    10c8:	54000100 	strpl	r0, [r0], #-256	; 0xffffff00
	...
    10dc:	000000e8 	andeq	r0, r0, r8, ror #1
    10e0:	00000100 	andeq	r0, r0, r0, lsl #2
    10e4:	00500001 	subseq	r0, r0, r1
    10e8:	10000001 	andne	r0, r0, r1
    10ec:	04000001 	streq	r0, [r0], #-1
    10f0:	5001f300 	andpl	pc, r1, r0, lsl #6
    10f4:	0001109f 	muleq	r1, pc, r0	; <UNPREDICTABLE>
    10f8:	00011400 	andeq	r1, r1, r0, lsl #8
    10fc:	50000100 	andpl	r0, r0, r0, lsl #2
    1100:	00000114 	andeq	r0, r0, r4, lsl r1
    1104:	0000011c 	andeq	r0, r0, ip, lsl r1
    1108:	01f30004 	mvnseq	r0, r4
    110c:	00009f50 	andeq	r9, r0, r0, asr pc
    1110:	00000000 	andeq	r0, r0, r0
    1114:	00010000 	andeq	r0, r1, r0
    1118:	00000000 	andeq	r0, r0, r0
    111c:	000000f4 	strdeq	r0, [r0], -r4
    1120:	00000100 	andeq	r0, r0, r0, lsl #2
    1124:	0070000b 	rsbseq	r0, r0, fp
    1128:	b4232535 	strtlt	r2, [r3], #-1333	; 0xfffffacb
    112c:	02818080 	addeq	r8, r1, #128, 0	; 0x80
    1130:	0001009f 	muleq	r1, pc, r0	; <UNPREDICTABLE>
    1134:	00010300 	andeq	r0, r1, r0, lsl #6
    1138:	50000100 	andpl	r0, r0, r0, lsl #2
    113c:	00000103 	andeq	r0, r0, r3, lsl #2
    1140:	00000110 	andeq	r0, r0, r0, lsl r1
    1144:	01f3000c 	mvnseq	r0, ip
    1148:	23253550 			; <UNDEFINED> instruction: 0x23253550
    114c:	818080b4 	strhhi	r8, [r0, r4]
    1150:	00009f02 	andeq	r9, r0, r2, lsl #30
	...
    115c:	000000f8 	strdeq	r0, [r0], -r8
    1160:	00000110 	andeq	r0, r0, r0, lsl r1
    1164:	00540001 	subseq	r0, r4, r1
	...
    1174:	cc000000 	stcgt	0, cr0, [r0], {-0}
    1178:	db000000 	blle	1180 <__code_start__-0x6e80>
    117c:	01000000 	mrseq	r0, (UNDEF: 0)
    1180:	00db5000 	sbcseq	r5, fp, r0
    1184:	00e00000 	rsceq	r0, r0, r0
    1188:	00040000 	andeq	r0, r4, r0
    118c:	9f5001f3 	svcls	0x005001f3
    1190:	000000e0 	andeq	r0, r0, r0, ror #1
    1194:	000000e3 	andeq	r0, r0, r3, ror #1
    1198:	e3500001 	cmp	r0, #1, 0
    119c:	e8000000 	stmda	r0, {}	; <UNPREDICTABLE>
    11a0:	04000000 	streq	r0, [r0], #-0
    11a4:	5001f300 	andpl	pc, r1, r0, lsl #6
    11a8:	0000009f 	muleq	r0, pc, r0	; <UNPREDICTABLE>
	...
    11b8:	0000cc00 	andeq	ip, r0, r0, lsl #24
    11bc:	0000db00 	andeq	sp, r0, r0, lsl #22
    11c0:	51000100 	mrspl	r0, (UNDEF: 16)
    11c4:	000000db 	ldrdeq	r0, [r0], -fp
    11c8:	000000e0 	andeq	r0, r0, r0, ror #1
    11cc:	01f30004 	mvnseq	r0, r4
    11d0:	00e09f51 	rsceq	r9, r0, r1, asr pc
    11d4:	00e30000 	rsceq	r0, r3, r0
    11d8:	00010000 	andeq	r0, r1, r0
    11dc:	0000e351 	andeq	lr, r0, r1, asr r3
    11e0:	0000e800 	andeq	lr, r0, r0, lsl #16
    11e4:	f3000400 	vshl.u8	d0, d0, d0
    11e8:	009f5101 	addseq	r5, pc, r1, lsl #2
	...
    11f4:	bc000000 	stclt	0, cr0, [r0], {-0}
    11f8:	c7000000 	strgt	r0, [r0, -r0]
    11fc:	01000000 	mrseq	r0, (UNDEF: 0)
    1200:	00c75000 	sbceq	r5, r7, r0
    1204:	00cc0000 	sbceq	r0, ip, r0
    1208:	00040000 	andeq	r0, r4, r0
    120c:	9f5001f3 	svcls	0x005001f3
	...
    121c:	00000098 	muleq	r0, r8, r0
    1220:	000000b0 	strheq	r0, [r0], -r0	; <UNPREDICTABLE>
    1224:	b0500001 	subslt	r0, r0, r1
    1228:	bc000000 	stclt	0, cr0, [r0], {-0}
    122c:	04000000 	streq	r0, [r0], #-0
    1230:	5001f300 	andpl	pc, r1, r0, lsl #6
    1234:	0000009f 	muleq	r0, pc, r0	; <UNPREDICTABLE>
	...
    1240:	00007400 	andeq	r7, r0, r0, lsl #8
    1244:	00008c00 	andeq	r8, r0, r0, lsl #24
    1248:	50000100 	andpl	r0, r0, r0, lsl #2
    124c:	0000008c 	andeq	r0, r0, ip, lsl #1
    1250:	00000098 	muleq	r0, r8, r0
    1254:	01f30004 	mvnseq	r0, r4
    1258:	00009f50 	andeq	r9, r0, r0, asr pc
	...
    1264:	00640000 	rsbeq	r0, r4, r0
    1268:	006f0000 	rsbeq	r0, pc, r0
    126c:	00010000 	andeq	r0, r1, r0
    1270:	00006f50 	andeq	r6, r0, r0, asr pc
    1274:	00007400 	andeq	r7, r0, r0, lsl #8
    1278:	f3000400 	vshl.u8	d0, d0, d0
    127c:	009f5001 	addseq	r5, pc, r1
	...
    128c:	38000000 	stmdacc	r0, {}	; <UNPREDICTABLE>
    1290:	01000000 	mrseq	r0, (UNDEF: 0)
    1294:	00385000 	eorseq	r5, r8, r0
    1298:	00640000 	rsbeq	r0, r4, r0
    129c:	00040000 	andeq	r0, r4, r0
    12a0:	9f5001f3 	svcls	0x005001f3
	...
    12b4:	00000047 	andeq	r0, r0, r7, asr #32
    12b8:	47510001 	ldrbmi	r0, [r1, -r1]
    12bc:	64000000 	strvs	r0, [r0], #-0
    12c0:	04000000 	streq	r0, [r0], #-0
    12c4:	5101f300 	mrspl	pc, SP_irq	; <UNPREDICTABLE>
    12c8:	0000009f 	muleq	r0, pc, r0	; <UNPREDICTABLE>
    12cc:	00000000 	andeq	r0, r0, r0
    12d0:	34000000 	strcc	r0, [r0], #-0
    12d4:	64000000 	strvs	r0, [r0], #-0
    12d8:	01000000 	mrseq	r0, (UNDEF: 0)
    12dc:	00005400 	andeq	r5, r0, r0, lsl #8
	...
    12e8:	00000040 	andeq	r0, r0, r0, asr #32
    12ec:	00000064 	andeq	r0, r0, r4, rrx
    12f0:	00560001 	subseq	r0, r6, r1
	...
    12fc:	01010000 	mrseq	r0, (UNDEF: 1)
    1300:	48000000 	stmdami	r0, {}	; <UNPREDICTABLE>
    1304:	50000000 	andpl	r0, r0, r0
    1308:	01000000 	mrseq	r0, (UNDEF: 0)
    130c:	00505000 	subseq	r5, r0, r0
    1310:	00500000 	subseq	r0, r0, r0
    1314:	00010000 	andeq	r0, r1, r0
    1318:	00005051 	andeq	r5, r0, r1, asr r0
    131c:	00005400 	andeq	r5, r0, r0, lsl #8
    1320:	75000900 	strvc	r0, [r0, #-2304]	; 0xfffff700
    1324:	24007400 	strcs	r7, [r0], #-1024	; 0xfffffc00
    1328:	9f210071 	svcls	0x00210071
    132c:	00000054 	andeq	r0, r0, r4, asr r0
    1330:	0000005b 	andeq	r0, r0, fp, asr r0
    1334:	00510001 	subseq	r0, r1, r1
	...
    1340:	58000000 	stmdapl	r0, {}	; <UNPREDICTABLE>
    1344:	63000001 	movwvs	r0, #1
    1348:	01000001 	tsteq	r0, r1
    134c:	01635000 	cmneq	r3, r0
    1350:	01880000 	orreq	r0, r8, r0
    1354:	00010000 	andeq	r0, r1, r0
    1358:	00000054 	andeq	r0, r0, r4, asr r0
    135c:	00000000 	andeq	r0, r0, r0
    1360:	48000000 	stmdami	r0, {}	; <UNPREDICTABLE>
    1364:	58000001 	stmdapl	r0, {r0}
    1368:	01000001 	tsteq	r0, r1
    136c:	00005400 	andeq	r5, r0, r0, lsl #8
	...
    137c:	000f0000 	andeq	r0, pc, r0
    1380:	00010000 	andeq	r0, r1, r0
    1384:	00000f50 	andeq	r0, r0, r0, asr pc
    1388:	00002000 	andeq	r2, r0, r0
    138c:	54000100 	strpl	r0, [r0], #-256	; 0xffffff00
	...
    13a0:	0000000f 	andeq	r0, r0, pc
    13a4:	0f510001 	svceq	0x00510001
    13a8:	20000000 	andcs	r0, r0, r0
    13ac:	01000000 	mrseq	r0, (UNDEF: 0)
    13b0:	00005500 	andeq	r5, r0, r0, lsl #10
	...
    13bc:	00200000 	eoreq	r0, r0, r0
    13c0:	002f0000 	eoreq	r0, pc, r0
    13c4:	00010000 	andeq	r0, r1, r0
    13c8:	00002f50 	andeq	r2, r0, r0, asr pc
    13cc:	00004000 	andeq	r4, r0, r0
    13d0:	54000100 	strpl	r0, [r0], #-256	; 0xffffff00
	...
    13e0:	00000020 	andeq	r0, r0, r0, lsr #32
    13e4:	0000002f 	andeq	r0, r0, pc, lsr #32
    13e8:	2f510001 	svccs	0x00510001
    13ec:	40000000 	andmi	r0, r0, r0
    13f0:	01000000 	mrseq	r0, (UNDEF: 0)
    13f4:	00005500 	andeq	r5, r0, r0, lsl #10
	...
    1400:	01300000 	teqeq	r0, r0
    1404:	01380000 	teqeq	r8, r0
    1408:	00010000 	andeq	r0, r1, r0
    140c:	00013850 	andeq	r3, r1, r0, asr r8
    1410:	00014800 	andeq	r4, r1, r0, lsl #16
    1414:	f3000400 	vshl.u8	d0, d0, d0
    1418:	009f5001 	addseq	r5, pc, r1
	...
    1424:	20000000 	andcs	r0, r0, r0
    1428:	2b000001 	blcs	1434 <__code_start__-0x6bcc>
    142c:	01000001 	tsteq	r0, r1
    1430:	012b5000 			; <UNDEFINED> instruction: 0x012b5000
    1434:	01300000 	teqeq	r0, r0
    1438:	00040000 	andeq	r0, r4, r0
    143c:	9f5001f3 	svcls	0x005001f3
	...
    144c:	00000110 	andeq	r0, r0, r0, lsl r1
    1450:	0000011b 	andeq	r0, r0, fp, lsl r1
    1454:	1b500001 	blne	1401460 <__bss_end__+0x13f6d20>
    1458:	20000001 	andcs	r0, r0, r1
    145c:	04000001 	streq	r0, [r0], #-1
    1460:	5001f300 	andpl	pc, r1, r0, lsl #6
    1464:	0000009f 	muleq	r0, pc, r0	; <UNPREDICTABLE>
	...
    1470:	00010000 	andeq	r0, r1, r0
    1474:	00010b00 	andeq	r0, r1, r0, lsl #22
    1478:	50000100 	andpl	r0, r0, r0, lsl #2
    147c:	0000010b 	andeq	r0, r0, fp, lsl #2
    1480:	00000110 	andeq	r0, r0, r0, lsl r1
    1484:	01f30004 	mvnseq	r0, r4
    1488:	00009f50 	andeq	r9, r0, r0, asr pc
	...
    14a4:	00280000 	eoreq	r0, r8, r0
    14a8:	00010000 	andeq	r0, r1, r0
    14ac:	00002850 	andeq	r2, r0, r0, asr r8
    14b0:	00003000 	andeq	r3, r0, r0
    14b4:	55000100 	strpl	r0, [r0, #-256]	; 0xffffff00
    14b8:	00000030 	andeq	r0, r0, r0, lsr r0
    14bc:	00000033 	andeq	r0, r0, r3, lsr r0
    14c0:	33500001 	cmpcc	r0, #1, 0
    14c4:	54000000 	strpl	r0, [r0], #-0
    14c8:	04000000 	streq	r0, [r0], #-0
    14cc:	5001f300 	andpl	pc, r1, r0, lsl #6
    14d0:	0000549f 	muleq	r0, pc, r4	; <UNPREDICTABLE>
    14d4:	00005700 	andeq	r5, r0, r0, lsl #14
    14d8:	50000100 	andpl	r0, r0, r0, lsl #2
    14dc:	00000057 	andeq	r0, r0, r7, asr r0
    14e0:	00000078 	andeq	r0, r0, r8, ror r0
    14e4:	78550001 	ldmdavc	r5, {r0}^
    14e8:	7b000000 	blvc	14f0 <__code_start__-0x6b10>
    14ec:	01000000 	mrseq	r0, (UNDEF: 0)
    14f0:	007b5000 	rsbseq	r5, fp, r0
    14f4:	01000000 	mrseq	r0, (UNDEF: 0)
    14f8:	00010000 	andeq	r0, r1, r0
    14fc:	00000055 	andeq	r0, r0, r5, asr r0
	...
    1518:	28000000 	stmdacs	r0, {}	; <UNPREDICTABLE>
    151c:	01000000 	mrseq	r0, (UNDEF: 0)
    1520:	00285100 	eoreq	r5, r8, r0, lsl #2
    1524:	00300000 	eorseq	r0, r0, r0
    1528:	00040000 	andeq	r0, r4, r0
    152c:	9f5101f3 	svcls	0x005101f3
    1530:	00000030 	andeq	r0, r0, r0, lsr r0
    1534:	00000033 	andeq	r0, r0, r3, lsr r0
    1538:	33510001 	cmpcc	r1, #1, 0
    153c:	54000000 	strpl	r0, [r0], #-0
    1540:	04000000 	streq	r0, [r0], #-0
    1544:	5101f300 	mrspl	pc, SP_irq	; <UNPREDICTABLE>
    1548:	0000549f 	muleq	r0, pc, r4	; <UNPREDICTABLE>
    154c:	00005700 	andeq	r5, r0, r0, lsl #14
    1550:	51000100 	mrspl	r0, (UNDEF: 16)
    1554:	00000057 	andeq	r0, r0, r7, asr r0
    1558:	00000078 	andeq	r0, r0, r8, ror r0
    155c:	78540001 	ldmdavc	r4, {r0}^
    1560:	7b000000 	blvc	1568 <__code_start__-0x6a98>
    1564:	01000000 	mrseq	r0, (UNDEF: 0)
    1568:	007b5100 	rsbseq	r5, fp, r0, lsl #2
    156c:	00980000 	addseq	r0, r8, r0
    1570:	00010000 	andeq	r0, r1, r0
    1574:	00009854 	andeq	r9, r0, r4, asr r8
    1578:	00010000 	andeq	r0, r1, r0
    157c:	f3000400 	vshl.u8	d0, d0, d0
    1580:	009f5101 	addseq	r5, pc, r1, lsl #2
	...
    1590:	0b000000 	bleq	1598 <__code_start__-0x6a68>
    1594:	01000000 	mrseq	r0, (UNDEF: 0)
    1598:	000b5000 	andeq	r5, fp, r0
    159c:	00140000 	andseq	r0, r4, r0
    15a0:	00010000 	andeq	r0, r1, r0
    15a4:	00000054 	andeq	r0, r0, r4, asr r0
	...
    15b4:	00001c00 	andeq	r1, r0, r0, lsl #24
    15b8:	51000100 	mrspl	r0, (UNDEF: 16)
    15bc:	0000001c 	andeq	r0, r0, ip, lsl r0
    15c0:	00000034 	andeq	r0, r0, r4, lsr r0
    15c4:	01f30004 	mvnseq	r0, r4
    15c8:	00009f51 	andeq	r9, r0, r1, asr pc
    15cc:	00000000 	andeq	r0, r0, r0
    15d0:	00020000 	andeq	r0, r2, r0
    15d4:	01000000 	mrseq	r0, (UNDEF: 0)
    15d8:	00000001 	andeq	r0, r0, r1
    15dc:	00000000 	andeq	r0, r0, r0
    15e0:	00000004 	andeq	r0, r0, r4
    15e4:	04500001 	ldrbeq	r0, [r0], #-1
    15e8:	1c000000 	stcne	0, cr0, [r0], {-0}
    15ec:	01000000 	mrseq	r0, (UNDEF: 0)
    15f0:	001c5200 	andseq	r5, ip, r0, lsl #4
    15f4:	00240000 	eoreq	r0, r4, r0
    15f8:	00010000 	andeq	r0, r1, r0
    15fc:	00002453 	andeq	r2, r0, r3, asr r4
    1600:	00002800 	andeq	r2, r0, r0, lsl #16
    1604:	73000300 	movwvc	r0, #768	; 0x300
    1608:	00289f01 	eoreq	r9, r8, r1, lsl #30
    160c:	00340000 	eorseq	r0, r4, r0
    1610:	00010000 	andeq	r0, r1, r0
    1614:	00000053 	andeq	r0, r0, r3, asr r0
    1618:	00000000 	andeq	r0, r0, r0
    161c:	00000300 	andeq	r0, r0, r0, lsl #6
    1620:	00000000 	andeq	r0, r0, r0
    1624:	00002400 	andeq	r2, r0, r0, lsl #8
    1628:	51000100 	mrspl	r0, (UNDEF: 16)
    162c:	00000024 	andeq	r0, r0, r4, lsr #32
    1630:	00000034 	andeq	r0, r0, r4, lsr r0
    1634:	7f710003 	svcvc	0x00710003
    1638:	0000009f 	muleq	r0, pc, r0	; <UNPREDICTABLE>
	...
    1644:	00001000 	andeq	r1, r0, r0
    1648:	00001c00 	andeq	r1, r0, r0, lsl #24
    164c:	5c000100 	stfpls	f0, [r0], {-0}
    1650:	00000024 	andeq	r0, r0, r4, lsr #32
    1654:	00000034 	andeq	r0, r0, r4, lsr r0
    1658:	00520001 	subseq	r0, r2, r1
	...
    1668:	18000000 	stmdane	r0, {}	; <UNPREDICTABLE>
    166c:	01000000 	mrseq	r0, (UNDEF: 0)
    1670:	00185000 	andseq	r5, r8, r0
    1674:	00240000 	eoreq	r0, r4, r0
    1678:	00010000 	andeq	r0, r1, r0
    167c:	00000050 	andeq	r0, r0, r0, asr r0
	...
    168c:	00001c00 	andeq	r1, r0, r0, lsl #24
    1690:	51000100 	mrspl	r0, (UNDEF: 16)
    1694:	0000001c 	andeq	r0, r0, ip, lsl r0
    1698:	0000002c 	andeq	r0, r0, ip, lsr #32
    169c:	00510001 	subseq	r0, r1, r1
	...
    16b0:	00000400 	andeq	r0, r0, r0, lsl #8
    16b4:	51000100 	mrspl	r0, (UNDEF: 16)
    16b8:	00000004 	andeq	r0, r0, r4
    16bc:	0000000c 	andeq	r0, r0, ip
    16c0:	0c510001 	mrrceq	0, 0, r0, r1, cr1
    16c4:	20000000 	andcs	r0, r0, r0
    16c8:	03000000 	movweq	r0, #0
    16cc:	9f7f7100 	svcls	0x007f7100
	...
    16d8:	00000002 	andeq	r0, r0, r2
    16dc:	00000000 	andeq	r0, r0, r0
    16e0:	00040000 	andeq	r0, r4, r0
    16e4:	00010000 	andeq	r0, r1, r0
    16e8:	00000450 	andeq	r0, r0, r0, asr r4
    16ec:	00001400 	andeq	r1, r0, r0, lsl #8
    16f0:	5c000100 	stfpls	f0, [r0], {-0}
    16f4:	00000014 	andeq	r0, r0, r4, lsl r0
    16f8:	00000020 	andeq	r0, r0, r0, lsr #32
    16fc:	7f7c0003 	svcvc	0x007c0003
    1700:	0000009f 	muleq	r0, pc, r0	; <UNPREDICTABLE>
    1704:	00000000 	andeq	r0, r0, r0
    1708:	03030000 	movweq	r0, #12288	; 0x3000
    170c:	0096b400 	addseq	fp, r6, r0, lsl #8
    1710:	0096b400 	addseq	fp, r6, r0, lsl #8
    1714:	50000100 	andpl	r0, r0, r0, lsl #2
    1718:	000096b4 			; <UNDEFINED> instruction: 0x000096b4
    171c:	000096e0 	andeq	r9, r0, r0, ror #13
    1720:	01f30004 	mvnseq	r0, r4
    1724:	00009f50 	andeq	r9, r0, r0, asr pc
    1728:	00000000 	andeq	r0, r0, r0
    172c:	03000000 	movweq	r0, #0
    1730:	96b40003 	ldrtls	r0, [r4], r3
    1734:	96b40000 	ldrtls	r0, [r4], r0
    1738:	00010000 	andeq	r0, r1, r0
    173c:	0096b451 	addseq	fp, r6, r1, asr r4
    1740:	0096e000 	addseq	lr, r6, r0
    1744:	f3000400 	vshl.u8	d0, d0, d0
    1748:	009f5101 	addseq	r5, pc, r1, lsl #2
	...
    1754:	00000303 	andeq	r0, r0, r3, lsl #6
    1758:	0096b400 	addseq	fp, r6, r0, lsl #8
    175c:	0096b400 	addseq	fp, r6, r0, lsl #8
    1760:	52000100 	andpl	r0, r0, #0
    1764:	000096b4 			; <UNDEFINED> instruction: 0x000096b4
    1768:	000096bc 			; <UNDEFINED> instruction: 0x000096bc
    176c:	bc520001 	mrrclt	0, 0, r0, r2, cr1
    1770:	e0000096 	mul	r0, r6, r0
    1774:	03000096 	movweq	r0, #150	; 0x96
    1778:	9f017200 	svcls	0x00017200
	...
    1784:	00010102 	andeq	r0, r1, r2, lsl #2
    1788:	00000000 	andeq	r0, r0, r0
    178c:	000096b4 			; <UNDEFINED> instruction: 0x000096b4
    1790:	000096c0 	andeq	r9, r0, r0, asr #13
    1794:	c0500001 	subsgt	r0, r0, r1
    1798:	c4000096 	strgt	r0, [r0], #-150	; 0xffffff6a
    179c:	03000096 	movweq	r0, #150	; 0x96
    17a0:	9f017000 	svcls	0x00017000
    17a4:	000096c4 	andeq	r9, r0, r4, asr #13
    17a8:	000096d4 	ldrdeq	r9, [r0], -r4
    17ac:	d8500001 	ldmdale	r0, {r0}^
    17b0:	dc000096 	stcle	0, cr0, [r0], {150}	; 0x96
    17b4:	01000096 	swpeq	r0, r6, [r0]	; <UNPREDICTABLE>
    17b8:	00005000 	andeq	r5, r0, r0
    17bc:	00000000 	andeq	r0, r0, r0
    17c0:	00020000 	andeq	r0, r2, r0
    17c4:	00000000 	andeq	r0, r0, r0
    17c8:	000096b4 			; <UNDEFINED> instruction: 0x000096b4
    17cc:	000096c4 	andeq	r9, r0, r4, asr #13
    17d0:	c4510001 	ldrbgt	r0, [r1], #-1
    17d4:	c8000096 	stmdagt	r0, {r1, r2, r4, r7}
    17d8:	03000096 	movweq	r0, #150	; 0x96
    17dc:	9f017100 	svcls	0x00017100
    17e0:	000096c8 	andeq	r9, r0, r8, asr #13
    17e4:	000096e0 	andeq	r9, r0, r0, ror #13
    17e8:	00510001 	subseq	r0, r1, r1
    17ec:	00000000 	andeq	r0, r0, r0
    17f0:	Address 0x00000000000017f0 is out of bounds.


Disassembly of section .debug_aranges:

00000000 <.debug_aranges>:
   0:	0000001c 	andeq	r0, r0, ip, lsl r0
   4:	00000002 	andeq	r0, r0, r2
   8:	00040000 	andeq	r0, r4, r0
   c:	00000000 	andeq	r0, r0, r0
  10:	00008038 	andeq	r8, r0, r8, lsr r0
  14:	00000830 	andeq	r0, r0, r0, lsr r8
	...
  20:	0000001c 	andeq	r0, r0, ip, lsl r0
  24:	0d400002 	stcleq	0, cr0, [r0, #-8]
  28:	00040000 	andeq	r0, r4, r0
  2c:	00000000 	andeq	r0, r0, r0
  30:	00008868 	andeq	r8, r0, r8, ror #16
  34:	00000058 	andeq	r0, r0, r8, asr r0
	...
  40:	0000001c 	andeq	r0, r0, ip, lsl r0
  44:	0ee10002 	cdpeq	0, 14, cr0, cr1, cr2, {0}
  48:	00040000 	andeq	r0, r4, r0
  4c:	00000000 	andeq	r0, r0, r0
  50:	000088c0 	andeq	r8, r0, r0, asr #17
  54:	00000034 	andeq	r0, r0, r4, lsr r0
	...
  60:	0000001c 	andeq	r0, r0, ip, lsl r0
  64:	0fd80002 	svceq	0x00d80002
  68:	00040000 	andeq	r0, r4, r0
  6c:	00000000 	andeq	r0, r0, r0
  70:	000088f4 	strdeq	r8, [r0], -r4
  74:	00000740 	andeq	r0, r0, r0, asr #14
	...
  80:	0000001c 	andeq	r0, r0, ip, lsl r0
  84:	1ab30002 	bne	fecc0094 <__bss_end__+0xfecb5954>
  88:	00040000 	andeq	r0, r4, r0
  8c:	00000000 	andeq	r0, r0, r0
  90:	00009034 	andeq	r9, r0, r4, lsr r0
  94:	0000002c 	andeq	r0, r0, ip, lsr #32
	...
  a0:	0000001c 	andeq	r0, r0, ip, lsl r0
  a4:	1be60002 	blne	ff9800b4 <__bss_end__+0xff975974>
  a8:	00040000 	andeq	r0, r4, r0
  ac:	00000000 	andeq	r0, r0, r0
  b0:	00009060 	andeq	r9, r0, r0, rrx
  b4:	0000003c 	andeq	r0, r0, ip, lsr r0
	...
  c0:	0000001c 	andeq	r0, r0, ip, lsl r0
  c4:	1d730002 	ldclne	0, cr0, [r3, #-8]!
  c8:	00040000 	andeq	r0, r4, r0
  cc:	00000000 	andeq	r0, r0, r0
  d0:	0000909c 	muleq	r0, ip, r0
  d4:	00000004 	andeq	r0, r0, r4
	...
  e0:	0000001c 	andeq	r0, r0, ip, lsl r0
  e4:	1e450002 	cdpne	0, 4, cr0, cr5, cr2, {0}
  e8:	00040000 	andeq	r0, r4, r0
  ec:	00000000 	andeq	r0, r0, r0
  f0:	000090a0 	andeq	r9, r0, r0, lsr #1
  f4:	00000080 	andeq	r0, r0, r0, lsl #1
	...
 100:	0000001c 	andeq	r0, r0, ip, lsl r0
 104:	207f0002 	rsbscs	r0, pc, r2
 108:	00040000 	andeq	r0, r4, r0
 10c:	00000000 	andeq	r0, r0, r0
 110:	00009120 	andeq	r9, r0, r0, lsr #2
 114:	00000084 	andeq	r0, r0, r4, lsl #1
	...
 120:	0000001c 	andeq	r0, r0, ip, lsl r0
 124:	22d00002 	sbcscs	r0, r0, #2, 0
 128:	00040000 	andeq	r0, r4, r0
 12c:	00000000 	andeq	r0, r0, r0
 130:	000091a4 	andeq	r9, r0, r4, lsr #3
 134:	0000011c 	andeq	r0, r0, ip, lsl r1
	...
 140:	0000001c 	andeq	r0, r0, ip, lsl r0
 144:	26790002 	ldrbtcs	r0, [r9], -r2
 148:	00040000 	andeq	r0, r4, r0
 14c:	00000000 	andeq	r0, r0, r0
 150:	000092c0 	andeq	r9, r0, r0, asr #5
 154:	000001f0 	strdeq	r0, [r0], -r0	; <UNPREDICTABLE>
	...
 160:	0000001c 	andeq	r0, r0, ip, lsl r0
 164:	2c4a0002 	mcrrcs	0, 0, r0, sl, cr2
 168:	00040000 	andeq	r0, r4, r0
 16c:	00000000 	andeq	r0, r0, r0
 170:	000094b0 			; <UNDEFINED> instruction: 0x000094b0
 174:	00000148 	andeq	r0, r0, r8, asr #2
	...
 180:	0000001c 	andeq	r0, r0, ip, lsl r0
 184:	2ff40002 	svccs	0x00f40002
 188:	00040000 	andeq	r0, r4, r0
 18c:	00000000 	andeq	r0, r0, r0
 190:	000095f8 	strdeq	r9, [r0], -r8
 194:	0000003c 	andeq	r0, r0, ip, lsr r0
	...
 1a0:	0000001c 	andeq	r0, r0, ip, lsl r0
 1a4:	31410002 	cmpcc	r1, r2
 1a8:	00040000 	andeq	r0, r4, r0
 1ac:	00000000 	andeq	r0, r0, r0
 1b0:	00009634 	andeq	r9, r0, r4, lsr r6
 1b4:	00000034 	andeq	r0, r0, r4, lsr r0
	...
 1c0:	0000001c 	andeq	r0, r0, ip, lsl r0
 1c4:	327c0002 	rsbscc	r0, ip, #2, 0
 1c8:	00040000 	andeq	r0, r4, r0
 1cc:	00000000 	andeq	r0, r0, r0
 1d0:	00009668 	andeq	r9, r0, r8, ror #12
 1d4:	0000002c 	andeq	r0, r0, ip, lsr #32
	...
 1e0:	0000001c 	andeq	r0, r0, ip, lsl r0
 1e4:	33770002 	cmncc	r7, #2, 0
 1e8:	00040000 	andeq	r0, r4, r0
 1ec:	00000000 	andeq	r0, r0, r0
 1f0:	00009694 	muleq	r0, r4, r6
 1f4:	00000020 	andeq	r0, r0, r0, lsr #32
	...
 200:	0000001c 	andeq	r0, r0, ip, lsl r0
 204:	348a0002 	strcc	r0, [sl], #2
 208:	00040000 	andeq	r0, r4, r0
 20c:	00000000 	andeq	r0, r0, r0
 210:	000096b4 			; <UNDEFINED> instruction: 0x000096b4
 214:	0000002c 	andeq	r0, r0, ip, lsr #32
	...
 220:	0000001c 	andeq	r0, r0, ip, lsl r0
 224:	35dc0002 	ldrbcc	r0, [ip, #2]
 228:	00040000 	andeq	r0, r4, r0
 22c:	00000000 	andeq	r0, r0, r0
 230:	000096e0 	andeq	r9, r0, r0, ror #13
 234:	00000004 	andeq	r0, r0, r4
	...

Disassembly of section .debug_ranges:

00000000 <.debug_ranges>:
   0:	0000012c 	andeq	r0, r0, ip, lsr #2
   4:	00000130 	andeq	r0, r0, r0, lsr r1
   8:	00000138 	andeq	r0, r0, r8, lsr r1
   c:	00000178 	andeq	r0, r0, r8, ror r1
	...
  18:	00000420 	andeq	r0, r0, r0, lsr #8
  1c:	00000428 	andeq	r0, r0, r8, lsr #8
  20:	00000448 	andeq	r0, r0, r8, asr #8
  24:	000004ac 	andeq	r0, r0, ip, lsr #9
	...
  30:	00000530 	andeq	r0, r0, r0, lsr r5
  34:	00000534 	andeq	r0, r0, r4, lsr r5
  38:	0000057c 	andeq	r0, r0, ip, ror r5
  3c:	000005e8 	andeq	r0, r0, r8, ror #11
	...
  48:	00000648 	andeq	r0, r0, r8, asr #12
  4c:	0000064c 	andeq	r0, r0, ip, asr #12
  50:	00000698 	muleq	r0, r8, r6
  54:	00000708 	andeq	r0, r0, r8, lsl #14
	...
  60:	000090a0 	andeq	r9, r0, r0, lsr #1
  64:	00009120 	andeq	r9, r0, r0, lsr #2
	...
  70:	000096b4 			; <UNDEFINED> instruction: 0x000096b4
  74:	000096e0 	andeq	r9, r0, r0, ror #13
	...

Disassembly of section .debug_line:

00000000 <.debug_line>:
       0:	000005a3 	andeq	r0, r0, r3, lsr #11
       4:	00810003 	addeq	r0, r1, r3
       8:	01020000 	mrseq	r0, (UNDEF: 2)
       c:	000d0efb 	strdeq	r0, [sp], -fp
      10:	01010101 	tsteq	r1, r1, lsl #2
      14:	01000000 	mrseq	r0, (UNDEF: 0)
      18:	2f010000 	svccs	0x00010000
      1c:	72657355 	rsbvc	r7, r5, #1409286145	; 0x54000001
      20:	72742f73 	rsbsvc	r2, r4, #460	; 0x1cc
      24:	65747369 	ldrbvs	r7, [r4, #-873]!	; 0xfffffc97
      28:	6c6f6e6e 	stclvs	14, cr6, [pc], #-440	; fffffe78 <__bss_end__+0xffff5738>
      2c:	6e616d6c 	cdpvs	13, 6, cr6, cr1, cr12, {3}
      30:	636f442f 	cmnvs	pc, #788529152	; 0x2f000000
      34:	6e656d75 	mcrvs	13, 3, r6, cr5, cr5, {3}
      38:	532f7374 			; <UNDEFINED> instruction: 0x532f7374
      3c:	6e697270 	mcrvs	2, 3, r7, cr9, cr0, {3}
      40:	75515f67 	ldrbvc	r5, [r1, #-3943]	; 0xfffff099
      44:	65747261 	ldrbvs	r7, [r4, #-609]!	; 0xfffffd9f
      48:	30325f72 	eorscc	r5, r2, r2, ror pc
      4c:	432f3232 			; <UNDEFINED> instruction: 0x432f3232
      50:	30343253 	eorscc	r3, r4, r3, asr r2
      54:	732d584c 			; <UNDEFINED> instruction: 0x732d584c
      58:	32327270 	eorscc	r7, r2, #112, 4
      5c:	696c2f2f 	stmdbvs	ip!, {r0, r1, r2, r3, r5, r8, r9, sl, fp, sp}^
      60:	2f697062 	svccs	0x00697062
      64:	6c636e69 	stclvs	14, cr6, [r3], #-420	; 0xfffffe5c
      68:	00656475 	rsbeq	r6, r5, r5, ror r4
      6c:	6f737400 	svcvs	0x00737400
      70:	00632e70 	rsbeq	r2, r3, r0, ror lr
      74:	72000000 	andvc	r0, r0, #0, 0
      78:	682e6970 	stmdavs	lr!, {r4, r5, r6, r8, fp, sp, lr}
      7c:	00000100 	andeq	r0, r0, r0, lsl #2
      80:	6f697067 	svcvs	0x00697067
      84:	0100682e 	tsteq	r0, lr, lsr #16
      88:	05000000 	streq	r0, [r0, #-0]
      8c:	02050017 	andeq	r0, r5, #23, 0
      90:	00008038 	andeq	r8, r0, r8, lsr r0
      94:	0100cb03 	tsteq	r0, r3, lsl #22
      98:	05130505 	ldreq	r0, [r3, #-1285]	; 0xfffffafb
      9c:	4a130601 	bmi	4c18a8 <__bss_end__+0x4b7168>
      a0:	31064505 	tstcc	r6, r5, lsl #10
      a4:	02050106 	andeq	r0, r5, #-2147483647	; 0x80000001
      a8:	09054b06 	stmdbeq	r5, {r1, r2, r8, r9, fp, lr}
      ac:	052e0106 	streq	r0, [lr, #-262]!	; 0xfffffefa
      b0:	28052f01 	stmdacs	r5, {r0, r8, r9, sl, fp, sp}
      b4:	820c0306 	andhi	r0, ip, #402653184	; 0x18000000
      b8:	05050106 	streq	r0, [r5, #-262]	; 0xfffffefa
      bc:	0c052f06 	stceq	15, cr2, [r5], {6}
      c0:	05660106 	strbeq	r0, [r6, #-262]!	; 0xfffffefa
      c4:	3f052f01 	svccc	0x00052f01
      c8:	2e750306 	cdpcs	3, 7, cr0, cr5, cr6, {0}
      cc:	02050106 	andeq	r0, r5, #-2147483647	; 0x80000001
      d0:	06058306 	streq	r8, [r5], -r6, lsl #6
      d4:	2e4a0106 	dvfcse	f0, f2, f6
      d8:	2e05052e 	cfsh32cs	mvfx0, mvfx5, #30
      dc:	4c060205 	sfmmi	f0, 4, [r6], {5}
      e0:	01060605 	tsteq	r6, r5, lsl #12
      e4:	05820505 	streq	r0, [r2, #1285]	; 0x505
      e8:	05054b0a 	streq	r4, [r5, #-2826]	; 0xfffff4f6
      ec:	01052f06 	tsteq	r5, r6, lsl #30
      f0:	05051306 	streq	r1, [r5, #-774]	; 0xfffffcfa
      f4:	f2014906 	vmla.i8	d4, d1, d6
      f8:	2b060a05 	blcs	182914 <__bss_end__+0x1781d4>
      fc:	03063c05 	movweq	r3, #27653	; 0x6c05
     100:	01069e6a 	tsteq	r6, sl, ror #28
     104:	83060205 	movwhi	r0, #25093	; 0x6205
     108:	01061305 	tsteq	r6, r5, lsl #6
     10c:	0602052e 	streq	r0, [r2], -lr, lsr #10
     110:	0108052f 	tsteq	r8, pc, lsr #10
     114:	01060905 	tsteq	r6, r5, lsl #18
     118:	052e1a05 	streq	r1, [lr, #-2565]!	; 0xfffff5fb
     11c:	03052e08 	movweq	r2, #24072	; 0x5e08
     120:	07054b06 	streq	r4, [r5, -r6, lsl #22]
     124:	06050106 	streq	r0, [r5], -r6, lsl #2
     128:	0604054a 	streq	r0, [r4], -sl, asr #10
     12c:	060c054b 	streq	r0, [ip], -fp, asr #10
     130:	2e1d0501 	cfmul32cs	mvfx0, mvfx13, mvfx1
     134:	052e2505 	streq	r2, [lr, #-1285]!	; 0xfffffafb
     138:	01054c09 	tsteq	r5, r9, lsl #24
     13c:	0641052f 	strbeq	r0, [r1], -pc, lsr #10
     140:	2e00ee03 	cdpcs	14, 0, cr14, cr0, cr3, {0}
     144:	02050106 	andeq	r0, r5, #-2147483647	; 0x80000001
     148:	14138406 	ldrne	r8, [r3], #-1030	; 0xfffffbfa
     14c:	01070513 	tsteq	r7, r3, lsl r5
     150:	01060b05 	tsteq	r6, r5, lsl #22
     154:	12052c2d 	andne	r2, r5, #11520	; 0x2d00
     158:	01040200 	mrseq	r0, R12_usr
     15c:	02053106 	andeq	r3, r5, #-2147483647	; 0x80000001
     160:	01040200 	mrseq	r0, R12_usr
     164:	03050106 	movweq	r0, #20742	; 0x5106
     168:	04054b06 	streq	r4, [r5], #-2822	; 0xfffff4fa
     16c:	0a050106 	beq	14058c <__bss_end__+0x135e4c>
     170:	0603052e 	streq	r0, [r3], -lr, lsr #10
     174:	060f052f 	streq	r0, [pc], -pc, lsr #10
     178:	820d0501 	andhi	r0, sp, #4194304	; 0x400000
     17c:	2f060305 	svccs	0x00060305
     180:	01060605 	tsteq	r6, r5, lsl #12
     184:	02000305 	andeq	r0, r0, #335544320	; 0x14000000
     188:	30060204 	andcc	r0, r6, r4, lsl #4
     18c:	02000f05 	andeq	r0, r0, #5, 30
     190:	01060204 	tsteq	r6, r4, lsl #4
     194:	02000305 	andeq	r0, r0, #335544320	; 0x14000000
     198:	2f060204 	svccs	0x00060204
     19c:	02000e05 	andeq	r0, r0, #80	; 0x50
     1a0:	01060204 	tsteq	r6, r4, lsl #4
     1a4:	02001905 	andeq	r1, r0, #81920	; 0x14000
     1a8:	03060204 	movweq	r0, #25092	; 0x6204
     1ac:	1a052e7a 	bne	14bb9c <__bss_end__+0x14145c>
     1b0:	02040200 	andeq	r0, r4, #0, 4
     1b4:	02000106 	andeq	r0, r0, #-2147483647	; 0x80000001
     1b8:	052e0204 	streq	r0, [lr, #-516]!	; 0xfffffdfc
     1bc:	05320604 	ldreq	r0, [r2, #-1540]!	; 0xfffff9fc
     1c0:	4a01060b 	bmi	419f4 <__bss_end__+0x372b4>
     1c4:	16060205 	strne	r0, [r6], -r5, lsl #4
     1c8:	01060905 	tsteq	r6, r5, lsl #18
     1cc:	052f0105 	streq	r0, [pc, #-261]!	; cf <__code_start__-0x7f31>
     1d0:	d103063a 	tstle	r3, sl, lsr r6
     1d4:	01064a7e 	tsteq	r6, lr, ror sl
     1d8:	67060505 	strvs	r0, [r6, -r5, lsl #10]
     1dc:	02052e06 	andeq	r2, r5, #96	; 0x60
     1e0:	09052f06 	stmdbeq	r5, {r1, r2, r8, r9, sl, fp, sp}
     1e4:	82240306 	eorhi	r0, r4, #402653184	; 0x18000000
     1e8:	03060405 	movweq	r0, #25605	; 0x6405
     1ec:	0d054a5e 	vstreq	s8, [r5, #-376]	; 0xfffffe88
     1f0:	1a280206 	bne	a00a10 <__bss_end__+0x9f62d0>
     1f4:	4f060405 	svcmi	0x00060405
     1f8:	03060d05 	movweq	r0, #27909	; 0x6d05
     1fc:	012a020c 			; <UNDEFINED> instruction: 0x012a020c
     200:	76034af4 			; <UNDEFINED> instruction: 0x76034af4
     204:	4a7503f2 	bmi	1d411d4 <__bss_end__+0x1d36a94>
     208:	4a7a034e 	bmi	1e80f48 <__bss_end__+0x1e76808>
     20c:	524a1103 	subpl	r1, sl, #-1073741824	; 0xc0000000
     210:	4d09054c 	cfstr32mi	mvfx0, [r9, #-304]	; 0xfffffed0
     214:	030d054a 	movweq	r0, #54602	; 0xd54a
     218:	05464a75 	strbeq	r4, [r6, #-2677]	; 0xfffff58b
     21c:	4a0f0309 	bmi	3c0e48 <__bss_end__+0x3b6708>
     220:	2f01054a 	svccs	0x0001054a
     224:	03064505 	movweq	r4, #25861	; 0x6505
     228:	01280226 			; <UNDEFINED> instruction: 0x01280226
     22c:	05130505 	ldreq	r0, [r3, #-1285]	; 0xfffffafb
     230:	05010607 	streq	r0, [r1, #-1543]	; 0xfffff9f9
     234:	02054945 	andeq	r4, r5, #1130496	; 0x114000
     238:	9e064e06 	cdpls	14, 0, cr4, cr6, cr6, {0}
     23c:	30060405 	andcc	r0, r6, r5, lsl #8
     240:	01060805 	tsteq	r6, r5, lsl #16
     244:	052e2e2e 	streq	r2, [lr, #-3630]!	; 0xfffff1d2
     248:	37052e07 	strcc	r2, [r5, -r7, lsl #28]
     24c:	01040200 	mrseq	r0, R12_usr
     250:	0034054a 	eorseq	r0, r4, sl, asr #10
     254:	82010402 	andhi	r0, r1, #33554432	; 0x2000000
     258:	4d060405 	cfstrsmi	mvf0, [r6, #-20]	; 0xffffffec
     25c:	01060805 	tsteq	r6, r5, lsl #16
     260:	05820705 	streq	r0, [r2, #1797]	; 0x705
     264:	04020031 	streq	r0, [r2], #-49	; 0xffffffcf
     268:	2e054a01 	vmlacs.f32	s8, s10, s2
     26c:	01040200 	mrseq	r0, R12_usr
     270:	4b0c0582 	blmi	301880 <__bss_end__+0x2f7140>
     274:	05310105 	ldreq	r0, [r1, #-261]!	; 0xfffffefb
     278:	2e750310 	mrccs	3, 3, r0, cr5, cr0, {0}
     27c:	0b030105 	bleq	c0698 <__bss_end__+0xb5f58>
     280:	030c052e 	movweq	r0, #50478	; 0xc52e
     284:	4d052e7a 	stcmi	14, cr2, [r5, #-488]	; 0xfffffe18
     288:	823e0306 	eorshi	r0, lr, #402653184	; 0x18000000
     28c:	05050106 	streq	r0, [r5, #-262]	; 0xfffffefa
     290:	00014b06 	andeq	r4, r1, r6, lsl #22
     294:	82020402 	andhi	r0, r2, #33554432	; 0x2000000
     298:	02040200 	andeq	r0, r4, #0, 4
     29c:	04020001 	streq	r0, [r2], #-1
     2a0:	02001302 	andeq	r1, r0, #134217728	; 0x8000000
     2a4:	2e060204 	cdpcs	2, 0, cr0, cr6, cr4, {0}
     2a8:	02040200 	andeq	r0, r4, #0, 4
     2ac:	09052f06 	stmdbeq	r5, {r1, r2, r8, r9, sl, fp, sp}
     2b0:	02040200 	andeq	r0, r4, #0, 4
     2b4:	000d0501 	andeq	r0, sp, r1, lsl #10
     2b8:	06020402 	streq	r0, [r2], -r2, lsl #8
     2bc:	00050501 	andeq	r0, r5, r1, lsl #10
     2c0:	2e020402 	cdpcs	4, 0, cr0, cr2, cr2, {0}
     2c4:	02040200 	andeq	r0, r4, #0, 4
     2c8:	0402002e 	streq	r0, [r2], #-46	; 0xffffffd2
     2cc:	00100601 	andseq	r0, r0, r1, lsl #12
     2d0:	01010402 	tsteq	r1, r2, lsl #8
     2d4:	01040200 	mrseq	r0, R12_usr
     2d8:	02008206 	andeq	r8, r0, #1610612736	; 0x60000000
     2dc:	002e0104 	eoreq	r0, lr, r4, lsl #2
     2e0:	2e010402 	cdpcs	4, 0, cr0, cr1, cr2, {0}
     2e4:	01040200 	mrseq	r0, R12_usr
     2e8:	0d052e06 	stceq	14, cr2, [r5, #-24]	; 0xffffffe8
     2ec:	02040200 	andeq	r0, r4, #0, 4
     2f0:	04020032 	streq	r0, [r2], #-50	; 0xffffffce
     2f4:	09050102 	stmdbeq	r5, {r1, r8}
     2f8:	02040200 	andeq	r0, r4, #0, 4
     2fc:	002c0513 	eoreq	r0, ip, r3, lsl r5
     300:	06020402 	streq	r0, [r2], -r2, lsl #8
     304:	00090501 	andeq	r0, r9, r1, lsl #10
     308:	2e020402 	cdpcs	4, 0, cr0, cr2, cr2, {0}
     30c:	02001b05 	andeq	r1, r0, #5120	; 0x1400
     310:	9b060204 	blls	180b28 <__bss_end__+0x1763e8>
     314:	02001c05 	andeq	r1, r0, #1280	; 0x500
     318:	01060204 	tsteq	r6, r4, lsl #4
     31c:	02001405 	andeq	r1, r0, #83886080	; 0x5000000
     320:	2e060204 	cdpcs	2, 0, cr0, cr6, cr4, {0}
     324:	02000505 	andeq	r0, r0, #20971520	; 0x1400000
     328:	01060204 	tsteq	r6, r4, lsl #4
     32c:	4b060905 	blmi	182748 <__bss_end__+0x178008>
     330:	01060b05 	tsteq	r6, r5, lsl #22
     334:	4b060d05 	blmi	183750 <__bss_end__+0x179010>
     338:	04020001 	streq	r0, [r2], #-1
     33c:	0200ba01 	andeq	fp, r0, #4096	; 0x1000
     340:	00010104 	andeq	r0, r1, r4, lsl #2
     344:	d6010402 	strle	r0, [r1], -r2, lsl #8
     348:	01040200 	mrseq	r0, R12_usr
     34c:	05052e06 	streq	r2, [r5, #-3590]	; 0xfffff1fa
     350:	09051506 	stmdbeq	r5, {r1, r2, r8, sl, ip}
     354:	07050106 	streq	r0, [r5, -r6, lsl #2]
     358:	4d010582 	cfstr32mi	mvfx0, [r1, #-520]	; 0xfffffdf8
     35c:	48060905 	stmdami	r6, {r0, r2, r8, fp}
     360:	4c060105 	stfmis	f0, [r6], {5}
     364:	03063605 	movweq	r3, #26117	; 0x6605
     368:	06200843 	strteq	r0, [r0], -r3, asr #16
     36c:	06020501 	streq	r0, [r2], -r1, lsl #10
     370:	06060583 	streq	r0, [r6], -r3, lsl #11
     374:	4a040501 	bmi	101780 <__bss_end__+0xf7040>
     378:	4c060205 	sfmmi	f0, 4, [r6], {5}
     37c:	04020001 	streq	r0, [r2], #-1
     380:	02004a02 	andeq	r4, r0, #8192	; 0x2000
     384:	00010204 	andeq	r0, r1, r4, lsl #4
     388:	13020402 	movwne	r0, #9218	; 0x2402
     38c:	02040200 	andeq	r0, r4, #0, 4
     390:	060b0501 	streq	r0, [fp], -r1, lsl #10
     394:	02052d85 	andeq	r2, r5, #8512	; 0x2140
     398:	01040200 	mrseq	r0, R12_usr
     39c:	02004706 	andeq	r4, r0, #1572864	; 0x180000
     3a0:	00010104 	andeq	r0, r1, r4, lsl #2
     3a4:	d6010402 	strle	r0, [r1], -r2, lsl #8
     3a8:	01040200 	mrseq	r0, R12_usr
     3ac:	0402002f 	streq	r0, [r2], #-47	; 0xffffffd1
     3b0:	02000101 	andeq	r0, r0, #1073741824	; 0x40000000
     3b4:	05d60104 	ldrbeq	r0, [r6, #260]	; 0x104
     3b8:	0c053508 	cfstr32eq	mvfx3, [r5], {8}
     3bc:	05660106 	strbeq	r0, [r6, #-262]!	; 0xfffffefa
     3c0:	04052e0b 	streq	r2, [r5], #-3595	; 0xfffff1f5
     3c4:	0f052f06 	svceq	0x00052f06
     3c8:	06050106 	streq	r0, [r5], -r6, lsl #2
     3cc:	0019054a 	andseq	r0, r9, sl, asr #10
     3d0:	06020402 	streq	r0, [r2], -r2, lsl #8
     3d4:	001a0545 	andseq	r0, sl, r5, asr #10
     3d8:	06020402 	streq	r0, [r2], -r2, lsl #8
     3dc:	00120501 	andseq	r0, r2, r1, lsl #10
     3e0:	06010402 	streq	r0, [r1], -r2, lsl #8
     3e4:	0014052e 	andseq	r0, r4, lr, lsr #10
     3e8:	06010402 	streq	r0, [r1], -r2, lsl #8
     3ec:	00020501 	andeq	r0, r2, r1, lsl #10
     3f0:	2e010402 	cdpcs	4, 0, cr0, cr1, cr2, {0}
     3f4:	4c060305 	stcmi	3, cr0, [r6], {5}
     3f8:	01060605 	tsteq	r6, r5, lsl #12
     3fc:	4b060405 	blmi	181418 <__bss_end__+0x176cd8>
     400:	04020001 	streq	r0, [r2], #-1
     404:	02008201 	andeq	r8, r0, #268435456	; 0x10000000
     408:	00010104 	andeq	r0, r1, r4, lsl #2
     40c:	d6010402 	strle	r0, [r1], -r2, lsl #8
     410:	01040200 	mrseq	r0, R12_usr
     414:	0a052e06 	beq	14bc34 <__bss_end__+0x1414f4>
     418:	05017803 	streq	r7, [r1, #-2051]	; 0xfffff7fd
     41c:	2e0e0301 	cdpcs	3, 0, cr0, cr14, cr1, {0}
     420:	063a0566 	ldrteq	r0, [sl], -r6, ror #10
     424:	48020500 	stmdami	r2, {r8, sl}
     428:	18000086 	stmdane	r0, {r1, r2, r7}
     42c:	02050106 	andeq	r0, r5, #-2147483647	; 0x80000001
     430:	06058306 	streq	r8, [r5], -r6, lsl #6
     434:	04050106 	streq	r0, [r5], #-262	; 0xfffffefa
     438:	0602054a 	streq	r0, [r2], -sl, asr #10
     43c:	0200014c 	andeq	r0, r0, #19
     440:	004a0204 	subeq	r0, sl, r4, lsl #4
     444:	01020402 	tsteq	r2, r2, lsl #8
     448:	02040200 	andeq	r0, r4, #0, 4
     44c:	04020013 	streq	r0, [r2], #-19	; 0xffffffed
     450:	0b050102 	bleq	140860 <__bss_end__+0x136120>
     454:	2d2d8606 	stccs	6, cr8, [sp, #-24]!	; 0xffffffe8
     458:	02000205 	andeq	r0, r0, #1342177280	; 0x50000000
     45c:	47060104 	strmi	r0, [r6, -r4, lsl #2]
     460:	01040200 	mrseq	r0, R12_usr
     464:	04020001 	streq	r0, [r2], #-1
     468:	0200d601 	andeq	sp, r0, #1048576	; 0x100000
     46c:	002f0104 	eoreq	r0, pc, r4, lsl #2
     470:	01010402 	tsteq	r1, r2, lsl #8
     474:	01040200 	mrseq	r0, R12_usr
     478:	030405d6 	movweq	r0, #17878	; 0x45d6
     47c:	08052e0d 	stmdaeq	r5, {r0, r2, r3, r9, sl, fp, sp}
     480:	05660106 	strbeq	r0, [r6, #-262]!	; 0xfffffefa
     484:	05052e07 	streq	r2, [r5, #-3591]	; 0xfffff1f9
     488:	07052f06 	streq	r2, [r5, -r6, lsl #30]
     48c:	04050106 	streq	r0, [r5], #-262	; 0xfffffefa
     490:	0c054c06 	stceq	12, cr4, [r5], {6}
     494:	19050106 	stmdbne	r5, {r1, r2, r8}
     498:	02040200 	andeq	r0, r4, #0, 4
     49c:	2e740306 	cdpcs	3, 7, cr0, cr4, cr6, {0}
     4a0:	02001a05 	andeq	r1, r0, #20480	; 0x5000
     4a4:	01060204 	tsteq	r6, r4, lsl #4
     4a8:	02001205 	andeq	r1, r0, #1342177280	; 0x50000000
     4ac:	2e060104 	adfcss	f0, f6, f4
     4b0:	02001405 	andeq	r1, r0, #83886080	; 0x5000000
     4b4:	01060104 	tsteq	r6, r4, lsl #2
     4b8:	02000205 	andeq	r0, r0, #1342177280	; 0x50000000
     4bc:	052e0104 	streq	r0, [lr, #-260]!	; 0xfffffefc
     4c0:	054c0603 	strbeq	r0, [ip, #-1539]	; 0xfffff9fd
     4c4:	05010606 	streq	r0, [r1, #-1542]	; 0xfffff9fa
     4c8:	054d0603 	strbeq	r0, [sp, #-1539]	; 0xfffff9fd
     4cc:	05010606 	streq	r0, [r1, #-1542]	; 0xfffff9fa
     4d0:	014b0604 	cmpeq	fp, r4, lsl #12
     4d4:	01040200 	mrseq	r0, R12_usr
     4d8:	04020082 	streq	r0, [r2], #-130	; 0xffffff7e
     4dc:	02000101 	andeq	r0, r0, #1073741824	; 0x40000000
     4e0:	00d60104 	sbcseq	r0, r6, r4, lsl #2
     4e4:	06010402 	streq	r0, [r1], -r2, lsl #8
     4e8:	030a052e 	movweq	r0, #42286	; 0xa52e
     4ec:	01050174 	tsteq	r5, r4, ror r1
     4f0:	662e1803 	strtvs	r1, [lr], -r3, lsl #16
     4f4:	00061a05 	andeq	r1, r6, r5, lsl #20
     4f8:	876c0205 	strbhi	r0, [ip, -r5, lsl #4]!
     4fc:	22030000 	andcs	r0, r3, #0, 0
     500:	05010601 	streq	r0, [r1, #-1537]	; 0xfffff9ff
     504:	05300602 	ldreq	r0, [r0, #-1538]!	; 0xfffff9fe
     508:	01052f05 	tsteq	r5, r5, lsl #30
     50c:	14051306 	strne	r1, [r5], #-774	; 0xfffffcfa
     510:	05054c06 	streq	r4, [r5, #-3078]	; 0xfffff3fa
     514:	054b132f 	strbeq	r1, [fp, #-815]	; 0xfffffcd1
     518:	04020030 	streq	r0, [r2], #-48	; 0xffffffd0
     51c:	0c030601 	stceq	6, cr0, [r3], {1}
     520:	06040566 	streq	r0, [r4], -r6, ror #10
     524:	340d05a2 	strcc	r0, [sp], #-1442	; 0xfffffa5e
     528:	02006606 	andeq	r6, r0, #6291456	; 0x600000
     52c:	03060104 	movweq	r0, #24836	; 0x6104
     530:	0e052e70 	mcreq	14, 0, r2, cr5, cr0, {3}
     534:	01040200 	mrseq	r0, R12_usr
     538:	000f0511 	andeq	r0, pc, r1, lsl r5	; <UNPREDICTABLE>
     53c:	06010402 	streq	r0, [r1], -r2, lsl #8
     540:	000e0501 	andeq	r0, lr, r1, lsl #10
     544:	4a010402 	bmi	41554 <__bss_end__+0x36e14>
     548:	4d060905 	vstrmi.16	s0, [r6, #-10]	; <UNPREDICTABLE>
     54c:	06110513 			; <UNDEFINED> instruction: 0x06110513
     550:	06090501 	streq	r0, [r9], -r1, lsl #10
     554:	062e069f 			; <UNDEFINED> instruction: 0x062e069f
     558:	06450530 			; <UNDEFINED> instruction: 0x06450530
     55c:	00470501 	subeq	r0, r7, r1, lsl #10
     560:	4a020402 	bmi	81570 <__bss_end__+0x76e30>
     564:	02000305 	andeq	r0, r0, #335544320	; 0x14000000
     568:	83060404 	movwhi	r0, #25604	; 0x6404
     56c:	02003f05 	andeq	r3, r0, #5, 30
     570:	01060404 	tsteq	r6, r4, lsl #8
     574:	02000905 	andeq	r0, r0, #81920	; 0x14000
     578:	67060404 	strvs	r0, [r6, -r4, lsl #8]
     57c:	02000305 	andeq	r0, r0, #335544320	; 0x14000000
     580:	05670404 	strbeq	r0, [r7, #-1028]!	; 0xfffffbfc
     584:	04020006 	streq	r0, [r2], #-6
     588:	05010604 	streq	r0, [r1, #-1540]	; 0xfffff9fc
     58c:	05a00609 	streq	r0, [r0, #1545]!	; 0x609
     590:	0501061b 	streq	r0, [r1, #-1563]	; 0xfffff9e5
     594:	05670609 	strbeq	r0, [r7, #-1545]!	; 0xfffff9f7
     598:	0501060b 	streq	r0, [r1, #-1547]	; 0xfffff9f5
     59c:	064b060d 	strbeq	r0, [fp], -sp, lsl #12
     5a0:	10022e2e 	andne	r2, r2, lr, lsr #28
     5a4:	34010100 	strcc	r0, [r1], #-256	; 0xffffff00
     5a8:	03000001 	movweq	r0, #1
     5ac:	00010200 	andeq	r0, r1, r0, lsl #4
     5b0:	fb010200 	blx	40dba <__bss_end__+0x3667a>
     5b4:	01000d0e 	tsteq	r0, lr, lsl #26
     5b8:	00010101 	andeq	r0, r1, r1, lsl #2
     5bc:	00010000 	andeq	r0, r1, r0
     5c0:	2f2e0100 	svccs	0x002e0100
     5c4:	6362696c 	cmnvs	r2, #108, 18	; 0x1b0000
     5c8:	73752f00 	cmnvc	r5, #0, 30
     5cc:	6f6c2f72 	svcvs	0x006c2f72
     5d0:	2f6c6163 	svccs	0x006c6163
     5d4:	6c6c6543 	cfstr64vs	mvdx6, [ip], #-268	; 0xfffffef4
     5d8:	612f7261 			; <UNDEFINED> instruction: 0x612f7261
     5dc:	6e2d6d72 	mcrvs	13, 1, r6, cr13, cr2, {3}
     5e0:	2d656e6f 	stclcs	14, cr6, [r5, #-444]!	; 0xfffffe44
     5e4:	69626165 	stmdbvs	r2!, {r0, r2, r5, r6, r8, sp, lr}^
     5e8:	7365742d 	cmnvc	r5, #754974720	; 0x2d000000
     5ec:	2d392f74 	ldccs	15, cr2, [r9, #-464]!	; 0xfffffe30
     5f0:	39313032 	ldmdbcc	r1!, {r1, r4, r5, ip, sp}
     5f4:	632d3471 			; <UNDEFINED> instruction: 0x632d3471
     5f8:	37303173 			; <UNDEFINED> instruction: 0x37303173
     5fc:	696c2f65 	stmdbvs	ip!, {r0, r2, r5, r6, r8, r9, sl, fp, sp}^
     600:	63672f62 	cmnvs	r7, #392	; 0x188
     604:	72612f63 	rsbvc	r2, r1, #396	; 0x18c
     608:	6f6e2d6d 	svcvs	0x006e2d6d
     60c:	652d656e 	strvs	r6, [sp, #-1390]!	; 0xfffffa92
     610:	2f696261 	svccs	0x00696261
     614:	2e322e39 	mrccs	14, 1, r2, cr2, cr9, {1}
     618:	6e692f31 	mcrvs	15, 3, r2, cr9, cr1, {1}
     61c:	64756c63 	ldrbtvs	r6, [r5], #-3171	; 0xfffff39d
     620:	552f0065 	strpl	r0, [pc, #-101]!	; 5c3 <__code_start__-0x7a3d>
     624:	73726573 	cmnvc	r2, #482344960	; 0x1cc00000
     628:	6972742f 	ldmdbvs	r2!, {r0, r1, r2, r3, r5, sl, ip, sp, lr}^
     62c:	6e657473 	mcrvs	4, 3, r7, cr5, cr3, {3}
     630:	6c6c6f6e 	stclvs	15, cr6, [ip], #-440	; 0xfffffe48
     634:	2f6e616d 	svccs	0x006e616d
     638:	75636f44 	strbvc	r6, [r3, #-3908]!	; 0xfffff0bc
     63c:	746e656d 	strbtvc	r6, [lr], #-1389	; 0xfffffa93
     640:	70532f73 	subsvc	r2, r3, r3, ror pc
     644:	676e6972 			; <UNDEFINED> instruction: 0x676e6972
     648:	6175515f 	cmnvs	r5, pc, asr r1
     64c:	72657472 	rsbvc	r7, r5, #1912602624	; 0x72000000
     650:	3230325f 	eorscc	r3, r0, #-268435451	; 0xf0000005
     654:	53432f32 	movtpl	r2, #16178	; 0x3f32
     658:	4c303432 	cfldrsmi	mvf3, [r0], #-200	; 0xffffff38
     65c:	70732d58 	rsbsvc	r2, r3, r8, asr sp
     660:	2f323272 	svccs	0x00323272
     664:	62696c2f 	rsbvs	r6, r9, #12032	; 0x2f00
     668:	692f6970 	stmdbvs	pc!, {r4, r5, r6, r8, fp, sp, lr}	; <UNPREDICTABLE>
     66c:	756c636e 	strbvc	r6, [ip, #-878]!	; 0xfffffc92
     670:	00006564 	andeq	r6, r0, r4, ror #10
     674:	6e697270 	mcrvs	2, 3, r7, cr9, cr0, {3}
     678:	632e6b74 			; <UNDEFINED> instruction: 0x632e6b74
     67c:	00000100 	andeq	r0, r0, r0, lsl #2
     680:	61647473 	smcvs	18243	; 0x4743
     684:	682e6772 	stmdavs	lr!, {r1, r4, r5, r6, r8, r9, sl, sp, lr}
     688:	00000200 	andeq	r0, r0, r0, lsl #4
     68c:	2e697072 	mcrcs	0, 3, r7, cr9, cr2, {3}
     690:	00030068 	andeq	r0, r3, r8, rrx
     694:	75623c00 	strbvc	r3, [r2, #-3072]!	; 0xfffff400
     698:	2d746c69 	ldclcs	12, cr6, [r4, #-420]!	; 0xfffffe5c
     69c:	003e6e69 	eorseq	r6, lr, r9, ror #28
     6a0:	76000000 	strvc	r0, [r0], -r0
     6a4:	72702d61 	rsbsvc	r2, r0, #6208	; 0x1840
     6a8:	6b746e69 	blvs	1d1c054 <__bss_end__+0x1d11914>
     6ac:	0100682e 	tsteq	r0, lr, lsr #16
     6b0:	05000000 	streq	r0, [r0, #-0]
     6b4:	02050022 	andeq	r0, r5, #34, 0	; 0x22
     6b8:	00008868 	andeq	r8, r0, r8, ror #16
     6bc:	05010617 	streq	r0, [r1, #-1559]	; 0xfffff9e9
     6c0:	13680605 	cmnne	r8, #5242880	; 0x500000
     6c4:	4b090514 	blmi	241b1c <__bss_end__+0x2373dc>
     6c8:	01061205 	tsteq	r6, r5, lsl #4
     6cc:	bb060505 	bllt	181ae8 <__bss_end__+0x1773a8>
     6d0:	06660616 			; <UNDEFINED> instruction: 0x06660616
     6d4:	06010534 			; <UNDEFINED> instruction: 0x06010534
     6d8:	08026613 	stmdaeq	r2, {r0, r1, r4, r9, sl, sp, lr}
     6dc:	cc010100 	stfgts	f0, [r1], {-0}
     6e0:	03000000 	movweq	r0, #0
     6e4:	00007e00 	andeq	r7, r0, r0, lsl #28
     6e8:	fb010200 	blx	40ef2 <__bss_end__+0x367b2>
     6ec:	01000d0e 	tsteq	r0, lr, lsl #26
     6f0:	00010101 	andeq	r0, r1, r1, lsl #2
     6f4:	00010000 	andeq	r0, r1, r0
     6f8:	2f2e0100 	svccs	0x002e0100
     6fc:	6362696c 	cmnvs	r2, #108, 18	; 0x1b0000
     700:	73552f00 	cmpvc	r5, #0, 30
     704:	2f737265 	svccs	0x00737265
     708:	73697274 	cmnvc	r9, #116, 4	; 0x40000007
     70c:	6e6e6574 	mcrvs	5, 3, r6, cr14, cr4, {3}
     710:	6d6c6c6f 	stclvs	12, cr6, [ip, #-444]!	; 0xfffffe44
     714:	442f6e61 	strtmi	r6, [pc], #-3681	; 71c <__code_start__-0x78e4>
     718:	6d75636f 	ldclvs	3, cr6, [r5, #-444]!	; 0xfffffe44
     71c:	73746e65 	cmnvc	r4, #1616	; 0x650
     720:	7270532f 	rsbsvc	r5, r0, #-1140850688	; 0xbc000000
     724:	5f676e69 	svcpl	0x00676e69
     728:	72617551 	rsbvc	r7, r1, #339738624	; 0x14400000
     72c:	5f726574 	svcpl	0x00726574
     730:	32323032 	eorscc	r3, r2, #50, 0	; 0x32
     734:	3253432f 	subscc	r4, r3, #-1140850688	; 0xbc000000
     738:	584c3034 	stmdapl	ip, {r2, r4, r5, ip, sp}^
     73c:	7270732d 	rsbsvc	r7, r0, #-1275068416	; 0xb4000000
     740:	2f2f3232 	svccs	0x002f3232
     744:	7062696c 	rsbvc	r6, r2, ip, ror #18
     748:	6e692f69 	cdpvs	15, 6, cr2, cr9, cr9, {3}
     74c:	64756c63 	ldrbtvs	r6, [r5], #-3171	; 0xfffff39d
     750:	70000065 	andvc	r0, r0, r5, rrx
     754:	2e6b7475 	mcrcs	4, 3, r7, cr11, cr5, {3}
     758:	00010063 	andeq	r0, r1, r3, rrx
     75c:	69707200 	ldmdbvs	r0!, {r9, ip, sp, lr}^
     760:	0200682e 	andeq	r6, r0, #3014656	; 0x2e0000
     764:	05000000 	streq	r0, [r0, #-0]
     768:	02050022 	andeq	r0, r5, #34, 0	; 0x22
     76c:	000088c0 	andeq	r8, r0, r0, asr #17
     770:	05010615 	streq	r0, [r1, #-1557]	; 0xfffff9eb
     774:	054b0605 	strbeq	r0, [fp, #-1541]	; 0xfffff9fb
     778:	0402000b 	streq	r0, [r2], #-11
     77c:	05050101 	streq	r0, [r5, #-257]	; 0xfffffeff
     780:	01040200 	mrseq	r0, R12_usr
     784:	09052e06 	stmdbeq	r5, {r1, r2, r9, sl, fp, sp}
     788:	02040200 	andeq	r0, r4, #0, 4
     78c:	0f054b06 	svceq	0x00054b06
     790:	02040200 	andeq	r0, r4, #0, 4
     794:	00100565 	andseq	r0, r0, r5, ror #10
     798:	06020402 	streq	r0, [r2], -r2, lsl #8
     79c:	04020001 	streq	r0, [r2], #-1
     7a0:	05052e02 	streq	r2, [r5, #-3586]	; 0xfffff1fe
     7a4:	01053206 	tsteq	r5, r6, lsl #4
     7a8:	06021306 	streq	r1, [r2], -r6, lsl #6
     7ac:	1e010100 	adfnes	f0, f1, f0
     7b0:	03000006 	movweq	r0, #6
     7b4:	00011800 	andeq	r1, r1, r0, lsl #16
     7b8:	fb010200 	blx	40fc2 <__bss_end__+0x36882>
     7bc:	01000d0e 	tsteq	r0, lr, lsl #26
     7c0:	00010101 	andeq	r0, r1, r1, lsl #2
     7c4:	00010000 	andeq	r0, r1, r0
     7c8:	2f2e0100 	svccs	0x002e0100
     7cc:	6362696c 	cmnvs	r2, #108, 18	; 0x1b0000
     7d0:	73752f00 	cmnvc	r5, #0, 30
     7d4:	6f6c2f72 	svcvs	0x006c2f72
     7d8:	2f6c6163 	svccs	0x006c6163
     7dc:	6c6c6543 	cfstr64vs	mvdx6, [ip], #-268	; 0xfffffef4
     7e0:	612f7261 			; <UNDEFINED> instruction: 0x612f7261
     7e4:	6e2d6d72 	mcrvs	13, 1, r6, cr13, cr2, {3}
     7e8:	2d656e6f 	stclcs	14, cr6, [r5, #-444]!	; 0xfffffe44
     7ec:	69626165 	stmdbvs	r2!, {r0, r2, r5, r6, r8, sp, lr}^
     7f0:	7365742d 	cmnvc	r5, #754974720	; 0x2d000000
     7f4:	2d392f74 	ldccs	15, cr2, [r9, #-464]!	; 0xfffffe30
     7f8:	39313032 	ldmdbcc	r1!, {r1, r4, r5, ip, sp}
     7fc:	632d3471 			; <UNDEFINED> instruction: 0x632d3471
     800:	37303173 			; <UNDEFINED> instruction: 0x37303173
     804:	696c2f65 	stmdbvs	ip!, {r0, r2, r5, r6, r8, r9, sl, fp, sp}^
     808:	63672f62 	cmnvs	r7, #392	; 0x188
     80c:	72612f63 	rsbvc	r2, r1, #396	; 0x18c
     810:	6f6e2d6d 	svcvs	0x006e2d6d
     814:	652d656e 	strvs	r6, [sp, #-1390]!	; 0xfffffa92
     818:	2f696261 	svccs	0x00696261
     81c:	2e322e39 	mrccs	14, 1, r2, cr2, cr9, {1}
     820:	6e692f31 	mcrvs	15, 3, r2, cr9, cr1, {1}
     824:	64756c63 	ldrbtvs	r6, [r5], #-3171	; 0xfffff39d
     828:	552f0065 	strpl	r0, [pc, #-101]!	; 7cb <__code_start__-0x7835>
     82c:	73726573 	cmnvc	r2, #482344960	; 0x1cc00000
     830:	6972742f 	ldmdbvs	r2!, {r0, r1, r2, r3, r5, sl, ip, sp, lr}^
     834:	6e657473 	mcrvs	4, 3, r7, cr5, cr3, {3}
     838:	6c6c6f6e 	stclvs	15, cr6, [ip], #-440	; 0xfffffe48
     83c:	2f6e616d 	svccs	0x006e616d
     840:	75636f44 	strbvc	r6, [r3, #-3908]!	; 0xfffff0bc
     844:	746e656d 	strbtvc	r6, [lr], #-1389	; 0xfffffa93
     848:	70532f73 	subsvc	r2, r3, r3, ror pc
     84c:	676e6972 			; <UNDEFINED> instruction: 0x676e6972
     850:	6175515f 	cmnvs	r5, pc, asr r1
     854:	72657472 	rsbvc	r7, r5, #1912602624	; 0x72000000
     858:	3230325f 	eorscc	r3, r0, #-268435451	; 0xf0000005
     85c:	53432f32 	movtpl	r2, #16178	; 0x3f32
     860:	4c303432 	cfldrsmi	mvf3, [r0], #-200	; 0xffffff38
     864:	70732d58 	rsbsvc	r2, r3, r8, asr sp
     868:	2f323272 	svccs	0x00323272
     86c:	62696c2f 	rsbvs	r6, r9, #12032	; 0x2f00
     870:	692f6970 	stmdbvs	pc!, {r4, r5, r6, r8, fp, sp, lr}	; <UNPREDICTABLE>
     874:	756c636e 	strbvc	r6, [ip, #-878]!	; 0xfffffc92
     878:	00006564 	andeq	r6, r0, r4, ror #10
     87c:	702d6176 	eorvc	r6, sp, r6, ror r1
     880:	746e6972 	strbtvc	r6, [lr], #-2418	; 0xfffff68e
     884:	00632e6b 	rsbeq	r2, r3, fp, ror #28
     888:	73000001 	movwvc	r0, #1
     88c:	6e696474 	mcrvs	4, 3, r6, cr9, cr4, {3}
     890:	63672d74 	cmnvs	r7, #116, 26	; 0x1d00
     894:	00682e63 	rsbeq	r2, r8, r3, ror #28
     898:	72000002 	andvc	r0, r0, #2, 0
     89c:	682e6970 	stmdavs	lr!, {r4, r5, r6, r8, fp, sp, lr}
     8a0:	00000300 	andeq	r0, r0, r0, lsl #6
     8a4:	2d697072 	stclcs	0, cr7, [r9, #-456]!	; 0xfffffe38
     8a8:	65746e69 	ldrbvs	r6, [r4, #-3689]!	; 0xfffff197
     8ac:	6c616e72 	stclvs	14, cr6, [r1], #-456	; 0xfffffe38
     8b0:	0300682e 	movweq	r6, #2094	; 0x82e
     8b4:	74730000 	ldrbtvc	r0, [r3], #-0
     8b8:	67726164 	ldrbvs	r6, [r2, -r4, ror #2]!
     8bc:	0200682e 	andeq	r6, r0, #3014656	; 0x2e0000
     8c0:	623c0000 	eorsvs	r0, ip, #0, 0
     8c4:	746c6975 	strbtvc	r6, [ip], #-2421	; 0xfffff68b
     8c8:	3e6e692d 	vmulcc.f16	s13, s28, s27	; <UNPREDICTABLE>
     8cc:	00000000 	andeq	r0, r0, r0
     8d0:	001b0500 	andseq	r0, fp, r0, lsl #10
     8d4:	88f40205 	ldmhi	r4!, {r0, r2, r9}^
     8d8:	26030000 	strcs	r0, [r3], -r0
     8dc:	011d0501 	tsteq	sp, r1, lsl #10
     8e0:	01062d05 	tsteq	r6, r5, lsl #26
     8e4:	4a2e0105 	bmi	b80d00 <__bss_end__+0xb765c0>
     8e8:	51063305 	tstpl	r6, r5, lsl #6
     8ec:	05130205 	ldreq	r0, [r3, #-517]	; 0xfffffdfb
     8f0:	05010606 	streq	r0, [r1, #-1542]	; 0xfffff9fa
     8f4:	05300602 	ldreq	r0, [r0, #-1538]!	; 0xfffff9fe
     8f8:	04020008 	streq	r0, [r2], #-8
     8fc:	02050101 	andeq	r0, r5, #1073741824	; 0x40000000
     900:	01040200 	mrseq	r0, R12_usr
     904:	03050106 	movweq	r0, #20742	; 0x5106
     908:	02040200 	andeq	r0, r4, #0, 4
     90c:	08052f06 	stmdaeq	r5, {r1, r2, r8, r9, sl, fp, sp}
     910:	02040200 	andeq	r0, r4, #0, 4
     914:	15050106 	strne	r0, [r5, #-262]	; 0xfffffefa
     918:	02040200 	andeq	r0, r4, #0, 4
     91c:	18054906 	stmdane	r5, {r1, r2, r8, fp, lr}
     920:	02040200 	andeq	r0, r4, #0, 4
     924:	02000106 	andeq	r0, r0, #-2147483647	; 0x80000001
     928:	052e0204 	streq	r0, [lr, #-516]!	; 0xfffffdfc
     92c:	05300602 	ldreq	r0, [r0, #-1538]!	; 0xfffff9fe
     930:	05010605 	streq	r0, [r1, #-1541]	; 0xfffff9fb
     934:	054b0602 	strbeq	r0, [fp, #-1538]	; 0xfffff9fe
     938:	05130601 	ldreq	r0, [r3, #-1537]	; 0xfffff9ff
     93c:	0531063e 	ldreq	r0, [r1, #-1598]!	; 0xfffff9c2
     940:	0e051402 	cdpeq	4, 0, cr1, cr5, cr2, {0}
     944:	06050106 	streq	r0, [r5], -r6, lsl #2
     948:	0602052e 	streq	r0, [r2], -lr, lsr #10
     94c:	0604052f 	streq	r0, [r4], -pc, lsr #10
     950:	06030501 	streq	r0, [r3], -r1, lsl #10
     954:	0611052f 	ldreq	r0, [r1], -pc, lsr #10
     958:	2e090501 	cfsh32cs	mvfx0, mvfx9, #1
     95c:	30060205 	andcc	r0, r6, r5, lsl #4
     960:	06070515 			; <UNDEFINED> instruction: 0x06070515
     964:	2e020501 	cfsh32cs	mvfx0, mvfx2, #1
     968:	02000b05 	andeq	r0, r0, #5120	; 0x1400
     96c:	2e060104 	adfcss	f0, f6, f4
     970:	02000205 	andeq	r0, r0, #1342177280	; 0x50000000
     974:	01060104 	tsteq	r6, r4, lsl #2
     978:	02000305 	andeq	r0, r0, #335544320	; 0x14000000
     97c:	2f060304 	svccs	0x00060304
     980:	02000c05 	andeq	r0, r0, #1280	; 0x500
     984:	01060304 	tsteq	r6, r4, lsl #6
     988:	02000a05 	andeq	r0, r0, #20480	; 0x5000
     98c:	052e0304 	streq	r0, [lr, #-772]!	; 0xfffffcfc
     990:	04020017 	streq	r0, [r2], #-23	; 0xffffffe9
     994:	002d0603 	eoreq	r0, sp, r3, lsl #12
     998:	06030402 	streq	r0, [r3], -r2, lsl #8
     99c:	06020501 	streq	r0, [r2], -r1, lsl #10
     9a0:	06090530 			; <UNDEFINED> instruction: 0x06090530
     9a4:	02052e01 	andeq	r2, r5, #1, 28
     9a8:	01053006 	tsteq	r5, r6
     9ac:	49051306 	stmdbmi	r5, {r1, r2, r8, r9, ip}
     9b0:	01063106 	tsteq	r6, r6, lsl #2
     9b4:	a0060205 	andge	r0, r6, r5, lsl #4
     9b8:	01060405 	tsteq	r6, r5, lsl #8
     9bc:	2f060305 	svccs	0x00060305
     9c0:	01060905 	tsteq	r6, r5, lsl #18
     9c4:	30060205 	andcc	r0, r6, r5, lsl #4
     9c8:	060b0513 			; <UNDEFINED> instruction: 0x060b0513
     9cc:	06020501 	streq	r0, [r2], -r1, lsl #10
     9d0:	052e0630 	streq	r0, [lr, #-1584]!	; 0xfffff9d0
     9d4:	24020604 	strcs	r0, [r2], #-1540	; 0xfffff9fc
     9d8:	0f051315 	svceq	0x00051315
     9dc:	052e0106 	streq	r0, [lr, #-262]!	; 0xfffffefa
     9e0:	05054a06 	streq	r4, [r5, #-2566]	; 0xfffff5fa
     9e4:	05134b06 	ldreq	r4, [r3, #-2822]	; 0xfffff4fa
     9e8:	05010609 	streq	r0, [r1, #-1545]	; 0xfffff9f7
     9ec:	052f0605 	streq	r0, [pc, #-1541]!	; 3ef <__code_start__-0x7c11>
     9f0:	0510060b 	ldreq	r0, [r0, #-1547]	; 0xfffff9f5
     9f4:	0402000d 	streq	r0, [r2], #-13
     9f8:	04052c01 	streq	r2, [r5], #-3073	; 0xfffff3ff
     9fc:	01040200 	mrseq	r0, R12_usr
     a00:	05053406 	streq	r3, [r5, #-1030]	; 0xfffffbfa
     a04:	01040200 	mrseq	r0, R12_usr
     a08:	001b0513 	andseq	r0, fp, r3, lsl r5
     a0c:	06010402 	streq	r0, [r1], -r2, lsl #8
     a10:	00070501 	andeq	r0, r7, r1, lsl #10
     a14:	d6010402 	strle	r0, [r1], -r2, lsl #8
     a18:	02001805 	andeq	r1, r0, #327680	; 0x50000
     a1c:	052e0104 	streq	r0, [lr, #-260]!	; 0xfffffefc
     a20:	0402000a 	streq	r0, [r2], #-10
     a24:	0b054a01 	bleq	153230 <__bss_end__+0x148af0>
     a28:	01040200 	mrseq	r0, R12_usr
     a2c:	0e052f06 	cdpeq	15, 0, cr2, cr5, cr6, {0}
     a30:	01040200 	mrseq	r0, R12_usr
     a34:	04052e06 	streq	r2, [r5], #-3590	; 0xfffff1fa
     a38:	01040200 	mrseq	r0, R12_usr
     a3c:	054b062e 	strbeq	r0, [fp, #-1582]	; 0xfffff9d2
     a40:	05010606 	streq	r0, [r1, #-1542]	; 0xfffff9fa
     a44:	052f0605 	streq	r0, [pc, #-1541]!	; 447 <__code_start__-0x7bb9>
     a48:	0501060a 	streq	r0, [r1, #-1546]	; 0xfffff9f6
     a4c:	052e4a07 	streq	r4, [lr, #-2567]!	; 0xfffff5f9
     a50:	2e76030d 	cdpcs	3, 7, cr0, cr6, cr13, {0}
     a54:	0d0b054a 	cfstr32eq	mvfx0, [fp, #-296]	; 0xfffffed8
     a58:	02000d05 	andeq	r0, r0, #320	; 0x140
     a5c:	03060104 	movweq	r0, #24836	; 0x6104
     a60:	11052e14 	tstne	r5, r4, lsl lr
     a64:	01040200 	mrseq	r0, R12_usr
     a68:	002d0513 	eoreq	r0, sp, r3, lsl r5
     a6c:	06010402 	streq	r0, [r1], -r2, lsl #8
     a70:	002a0501 	eoreq	r0, sl, r1, lsl #10
     a74:	2e010402 	cdpcs	4, 0, cr0, cr1, cr2, {0}
     a78:	02001605 	andeq	r1, r0, #5242880	; 0x500000
     a7c:	054a0104 	strbeq	r0, [sl, #-260]	; 0xfffffefc
     a80:	04020014 	streq	r0, [r2], #-20	; 0xffffffec
     a84:	054b0601 	strbeq	r0, [fp, #-1537]	; 0xfffff9ff
     a88:	0402000d 	streq	r0, [r2], #-13
     a8c:	00010601 	andeq	r0, r1, r1, lsl #12
     a90:	4a010402 	bmi	41aa0 <__bss_end__+0x37360>
     a94:	12052f06 	andne	r2, r5, #6, 30
     a98:	054a0106 	strbeq	r0, [sl, #-262]	; 0xfffffefa
     a9c:	052f060d 	streq	r0, [pc, #-1549]!	; 497 <__code_start__-0x7b69>
     aa0:	05010612 	streq	r0, [r1, #-1554]	; 0xfffff9ee
     aa4:	054b0619 	strbeq	r0, [fp, #-1561]	; 0xfffff9e7
     aa8:	04020004 	streq	r0, [r2], #-4
     aac:	01110302 	tsteq	r1, r2, lsl #6
     ab0:	02040200 	andeq	r0, r4, #0, 4
     ab4:	00020501 	andeq	r0, r2, r1, lsl #10
     ab8:	15020402 	strne	r0, [r2, #-1026]	; 0xfffffbfe
     abc:	02000905 	andeq	r0, r0, #81920	; 0x14000
     ac0:	01060204 	tsteq	r6, r4, lsl #4
     ac4:	02040200 	andeq	r0, r4, #0, 4
     ac8:	0001054a 	andeq	r0, r1, sl, asr #10
     acc:	9f020402 	svcls	0x00020402
     ad0:	03060405 	movweq	r0, #25605	; 0x6405
     ad4:	09054a6e 	stmdbeq	r5, {r1, r2, r3, r5, r6, r9, fp, lr}
     ad8:	04050106 	streq	r0, [r5], #-262	; 0xfffffefa
     adc:	06052f06 	streq	r2, [r5], -r6, lsl #30
     ae0:	04051106 	streq	r1, [r5], #-262	; 0xfffffefa
     ae4:	030b052f 	movweq	r0, #46383	; 0xb52f
     ae8:	19052e63 	stmdbne	r5, {r0, r1, r5, r6, r9, sl, fp, sp}
     aec:	01040200 	mrseq	r0, R12_usr
     af0:	2e240306 	cdpcs	3, 2, cr0, cr4, cr6, {0}
     af4:	02001a05 	andeq	r1, r0, #20480	; 0x5000
     af8:	05130104 	ldreq	r0, [r3, #-260]	; 0xfffffefc
     afc:	04020028 	streq	r0, [r2], #-40	; 0xffffffd8
     b00:	05010601 	streq	r0, [r1, #-1537]	; 0xfffff9ff
     b04:	04020025 	streq	r0, [r2], #-37	; 0xffffffdb
     b08:	1f052e01 	svcne	0x00052e01
     b0c:	01040200 	mrseq	r0, R12_usr
     b10:	000b054a 	andeq	r0, fp, sl, asr #10
     b14:	06010402 	streq	r0, [r1], -r2, lsl #8
     b18:	0004054b 	andeq	r0, r4, fp, asr #10
     b1c:	06010402 	streq	r0, [r1], -r2, lsl #8
     b20:	04020001 	streq	r0, [r2], #-1
     b24:	02004a01 	andeq	r4, r0, #4096	; 0x1000
     b28:	4e060104 	adfmis	f0, f6, f4
     b2c:	01040200 	mrseq	r0, R12_usr
     b30:	04020001 	streq	r0, [r2], #-1
     b34:	02000101 	andeq	r0, r0, #1073741824	; 0x40000000
     b38:	00010104 	andeq	r0, r1, r4, lsl #2
     b3c:	06010402 	streq	r0, [r1], -r2, lsl #8
     b40:	0402002e 	streq	r0, [r2], #-46	; 0xffffffd2
     b44:	02006601 	andeq	r6, r0, #1048576	; 0x100000
     b48:	002e0104 	eoreq	r0, lr, r4, lsl #2
     b4c:	06010402 	streq	r0, [r1], -r2, lsl #8
     b50:	0348054a 	movteq	r0, #34122	; 0x854a
     b54:	20087fa6 	andcs	r7, r8, r6, lsr #31
     b58:	01130505 	tsteq	r3, r5, lsl #10
     b5c:	02002e06 	andeq	r2, r0, #96	; 0x60
     b60:	2e060204 	cdpcs	2, 0, cr0, cr6, cr4, {0}
     b64:	02040200 	andeq	r0, r4, #0, 4
     b68:	04020001 	streq	r0, [r2], #-1
     b6c:	11051302 	tstne	r5, r2, lsl #6
     b70:	02040200 	andeq	r0, r4, #0, 4
     b74:	05050106 	streq	r0, [r5, #-262]	; 0xfffffefa
     b78:	02040200 	andeq	r0, r4, #0, 4
     b7c:	07054b06 	streq	r4, [r5, -r6, lsl #22]
     b80:	02040200 	andeq	r0, r4, #0, 4
     b84:	09050106 	stmdbeq	r5, {r1, r2, r8}
     b88:	0e054b06 	vmlaeq.f64	d4, d5, d6
     b8c:	48050106 	stmdami	r5, {r1, r2, r8}
     b90:	01040200 	mrseq	r0, R12_usr
     b94:	00050562 	andeq	r0, r5, r2, ror #10
     b98:	06010402 	streq	r0, [r1], -r2, lsl #8
     b9c:	0402004b 	streq	r0, [r2], #-75	; 0xffffffb5
     ba0:	02000101 	andeq	r0, r0, #1073741824	; 0x40000000
     ba4:	9e060104 	adflss	f0, f6, f4
     ba8:	01040200 	mrseq	r0, R12_usr
     bac:	0402002e 	streq	r0, [r2], #-46	; 0xffffffd2
     bb0:	052e0601 	streq	r0, [lr, #-1537]!	; 0xfffff9ff
     bb4:	00e10340 	rsceq	r0, r1, r0, asr #6
     bb8:	050106d6 	streq	r0, [r1, #-1750]	; 0xfffff92a
     bbc:	059f0602 	ldreq	r0, [pc, #1538]	; 11c6 <__code_start__-0x6e3a>
     bc0:	0501061e 	streq	r0, [r1, #-1566]	; 0xfffff9e2
     bc4:	05052e12 	streq	r2, [r5, #-3602]	; 0xfffff1ee
     bc8:	02052f06 	andeq	r2, r5, #6, 30
     bcc:	06090514 			; <UNDEFINED> instruction: 0x06090514
     bd0:	06050501 	streq	r0, [r5], -r1, lsl #10
     bd4:	1302054b 	movwne	r0, #9547	; 0x254b
     bd8:	0d060805 	stceq	8, cr0, [r6, #-20]	; 0xffffffec
     bdc:	05330205 	ldreq	r0, [r3, #-517]!	; 0xfffffdfb
     be0:	054c0604 	strbeq	r0, [ip, #-1540]	; 0xfffff9fc
     be4:	0501060f 	streq	r0, [r1, #-1551]	; 0xfffff9f1
     be8:	08052e09 	stmdaeq	r5, {r0, r3, r9, sl, fp, sp}
     bec:	02052c06 	andeq	r2, r5, #1536	; 0x600
     bf0:	0d052e06 	stceq	14, cr2, [r5, #-24]	; 0xffffffe8
     bf4:	01040200 	mrseq	r0, R12_usr
     bf8:	0603054a 	streq	r0, [r3], -sl, asr #10
     bfc:	0605054b 	streq	r0, [r5], -fp, asr #10
     c00:	06080501 	streq	r0, [r8], -r1, lsl #10
     c04:	060e054d 	streq	r0, [lr], -sp, asr #10
     c08:	2e0a0501 	cfsh32cs	mvfx0, mvfx10, #1
     c0c:	2f060405 	svccs	0x00060405
     c10:	01060905 	tsteq	r6, r5, lsl #18
     c14:	2f060405 	svccs	0x00060405
     c18:	01060705 	tsteq	r6, r5, lsl #14
     c1c:	0604052e 	streq	r0, [r4], -lr, lsr #10
     c20:	06070530 			; <UNDEFINED> instruction: 0x06070530
     c24:	06040501 	streq	r0, [r4], -r1, lsl #10
     c28:	05141330 	ldreq	r1, [r4, #-816]	; 0xfffffcd0
     c2c:	0510060d 	ldreq	r0, [r0, #-1549]	; 0xfffff9f3
     c30:	05300609 	ldreq	r0, [r0, #-1545]!	; 0xfffff9f7
     c34:	05010612 	streq	r0, [r1, #-1554]	; 0xfffff9ee
     c38:	09052e0a 	stmdbeq	r5, {r1, r3, r9, sl, fp, sp}
     c3c:	06050566 	streq	r0, [r5], -r6, ror #10
     c40:	0612054b 	ldreq	r0, [r2], -fp, asr #10
     c44:	2e160501 	cfmul32cs	mvfx0, mvfx6, mvfx1
     c48:	052e0b05 	streq	r0, [lr, #-2821]!	; 0xfffff4fb
     c4c:	052f0605 	streq	r0, [pc, #-1541]!	; 64f <__code_start__-0x79b1>
     c50:	2e010608 	cfmadd32cs	mvax0, mvfx0, mvfx1, mvfx8
     c54:	30060405 	andcc	r0, r6, r5, lsl #8
     c58:	15014a01 	strne	r4, [r1, #-2561]	; 0xfffff5ff
     c5c:	01040200 	mrseq	r0, R12_usr
     c60:	000f3602 	andeq	r3, pc, r2, lsl #12
     c64:	01010402 	tsteq	r1, r2, lsl #8
     c68:	01040200 	mrseq	r0, R12_usr
     c6c:	341105d6 	ldrcc	r0, [r1], #-1494	; 0xfffffa2a
     c70:	02000113 	andeq	r0, r0, #-1073741820	; 0xc0000004
     c74:	ba060204 	blt	18148c <__bss_end__+0x176d4c>
     c78:	03040200 	movweq	r0, #16896	; 0x4200
     c7c:	0200ba06 	andeq	fp, r0, #24576	; 0x6000
     c80:	00010304 	andeq	r0, r1, r4, lsl #6
     c84:	14030402 	strne	r0, [r3], #-1026	; 0xfffffbfe
     c88:	02001505 	andeq	r1, r0, #20971520	; 0x1400000
     c8c:	01060304 	tsteq	r6, r4, lsl #6
     c90:	02001105 	andeq	r1, r0, #1073741825	; 0x40000001
     c94:	2f060304 	svccs	0x00060304
     c98:	02001a05 	andeq	r1, r0, #20480	; 0x5000
     c9c:	01060304 	tsteq	r6, r4, lsl #6
     ca0:	02001105 	andeq	r1, r0, #1073741825	; 0x40000001
     ca4:	d7060304 	strle	r0, [r6, -r4, lsl #6]
     ca8:	03040200 	movweq	r0, #16896	; 0x4200
     cac:	04020013 	streq	r0, [r2], #-19	; 0xffffffed
     cb0:	02001403 	andeq	r1, r0, #50331648	; 0x3000000
     cb4:	00670304 	rsbeq	r0, r7, r4, lsl #6
     cb8:	68030402 	stmdavs	r3, {r1, sl}
     cbc:	02001405 	andeq	r1, r0, #83886080	; 0x5000000
     cc0:	01060304 	tsteq	r6, r4, lsl #6
     cc4:	02001305 	andeq	r1, r0, #335544320	; 0x14000000
     cc8:	05820304 	streq	r0, [r2, #772]	; 0x304
     ccc:	054e0618 	strbeq	r0, [lr, #-1560]	; 0xfffff9e8
     cd0:	0501061b 	streq	r0, [r1, #-1563]	; 0xfffff9e5
     cd4:	0905821a 	stmdbeq	r5, {r1, r3, r4, r9, pc}
     cd8:	0d054b06 	vstreq	d4, [r5, #-24]	; 0xffffffe8
     cdc:	052e0106 	streq	r0, [lr, #-262]!	; 0xfffffefa
     ce0:	06f30609 	ldrbteq	r0, [r3], r9, lsl #12
     ce4:	061505ba 			; <UNDEFINED> instruction: 0x061505ba
     ce8:	06180530 			; <UNDEFINED> instruction: 0x06180530
     cec:	66170501 	ldrvs	r0, [r7], -r1, lsl #10
     cf0:	4b061905 	blmi	18710c <__bss_end__+0x17c9cc>
     cf4:	03061505 	movweq	r1, #25861	; 0x6505
     cf8:	1105666f 	tstne	r5, pc, ror #12
     cfc:	d6014806 	strle	r4, [r1], -r6, lsl #16
     d00:	0b030905 	bleq	c311c <__bss_end__+0xb89dc>
     d04:	060d052e 	streq	r0, [sp], -lr, lsr #10
     d08:	09052e01 	stmdbeq	r5, {r0, r9, sl, fp, sp}
     d0c:	ba06f306 	blt	1bd92c <__bss_end__+0x1b31ec>
     d10:	2f061505 	svccs	0x00061505
     d14:	66750306 	ldrbtvs	r0, [r5], -r6, lsl #6
     d18:	03061905 	movweq	r1, #26885	; 0x6905
     d1c:	15054a13 	strne	r4, [r5, #-2579]	; 0xfffff5ed
     d20:	666d0306 	strbtvs	r0, [sp], -r6, lsl #6
     d24:	4a150306 	bmi	541944 <__bss_end__+0x537204>
     d28:	2e06ba01 	vmlacs.f32	s22, s12, s2
     d2c:	1a060505 	bne	182148 <__bss_end__+0x177a08>
     d30:	032e9e01 			; <UNDEFINED> instruction: 0x032e9e01
     d34:	0905010e 	stmdbeq	r5, {r1, r2, r3, r8}
     d38:	05050106 	streq	r0, [r5, #-262]	; 0xfffffefa
     d3c:	05750806 	ldrbeq	r0, [r5, #-2054]!	; 0xfffff7fa
     d40:	01180304 	tsteq	r8, r4, lsl #6
     d44:	01060705 	tsteq	r6, r5, lsl #14
     d48:	31060405 	tstcc	r6, r5, lsl #8
     d4c:	67030505 	strvs	r0, [r3, -r5, lsl #10]
     d50:	061c052e 	ldreq	r0, [ip], -lr, lsr #10
     d54:	82090501 	andhi	r0, r9, #4194304	; 0x400000
     d58:	f3060505 	vrshl.u8	d0, d5, d6
     d5c:	061c0531 			; <UNDEFINED> instruction: 0x061c0531
     d60:	82090501 	andhi	r0, r9, #4194304	; 0x400000
     d64:	f3060505 	vrshl.u8	d0, d5, d6
     d68:	061b0530 			; <UNDEFINED> instruction: 0x061b0530
     d6c:	82090501 	andhi	r0, r9, #4194304	; 0x400000
     d70:	f3060505 	vrshl.u8	d0, d5, d6
     d74:	06070530 			; <UNDEFINED> instruction: 0x06070530
     d78:	06050501 	streq	r0, [r5], -r1, lsl #10
     d7c:	09053083 	stmdbeq	r5, {r0, r1, r7, ip, sp}
     d80:	05050106 	streq	r0, [r5, #-262]	; 0xfffffefa
     d84:	05750806 	ldrbeq	r0, [r5, #-2054]!	; 0xfffff7fa
     d88:	22053011 	andcs	r3, r5, #17, 0
     d8c:	05050106 	streq	r0, [r5, #-262]	; 0xfffffefa
     d90:	11054b06 	tstne	r5, r6, lsl #22
     d94:	83050583 	movwhi	r0, #21891	; 0x5583
     d98:	05359e01 	ldreq	r9, [r5, #-3585]!	; 0xfffff1ff
     d9c:	0501060e 	streq	r0, [r1, #-1550]	; 0xfffff9f2
     da0:	2d062e0a 	stccs	14, cr2, [r6, #-40]	; 0xffffffd8
     da4:	01060405 	tsteq	r6, r5, lsl #8
     da8:	02001305 	andeq	r1, r0, #335544320	; 0x14000000
     dac:	054a0104 	strbeq	r0, [sl, #-260]	; 0xfffffefc
     db0:	04020010 	streq	r0, [r2], #-16
     db4:	02002e01 	andeq	r2, r0, #1, 28
     db8:	05660104 	strbeq	r0, [r6, #-260]!	; 0xfffffefc
     dbc:	05160602 	ldreq	r0, [r6, #-1538]	; 0xfffff9fe
     dc0:	05010607 	streq	r0, [r1, #-1543]	; 0xfffff9f9
     dc4:	054b0602 	strbeq	r0, [fp, #-1538]	; 0xfffff9fe
     dc8:	66130601 	ldrvs	r0, [r3], -r1, lsl #12
     dcc:	01001e02 	tsteq	r0, r2, lsl #28
     dd0:	0000a601 	andeq	sl, r0, r1, lsl #12
     dd4:	8b000300 	blhi	19dc <__code_start__-0x6624>
     dd8:	02000000 	andeq	r0, r0, #0, 0
     ddc:	0d0efb01 	vstreq	d15, [lr, #-4]
     de0:	01010100 	mrseq	r0, (UNDEF: 17)
     de4:	00000001 	andeq	r0, r0, r1
     de8:	01000001 	tsteq	r0, r1
     dec:	74732f2e 	ldrbtvc	r2, [r3], #-3886	; 0xfffff0d2
     df0:	2d666661 	stclcs	6, cr6, [r6, #-388]!	; 0xfffffe7c
     df4:	00637273 	rsbeq	r7, r3, r3, ror r2
     df8:	6573552f 	ldrbvs	r5, [r3, #-1327]!	; 0xfffffad1
     dfc:	742f7372 	strtvc	r7, [pc], #-882	; e04 <__code_start__-0x71fc>
     e00:	74736972 	ldrbtvc	r6, [r3], #-2418	; 0xfffff68e
     e04:	6f6e6e65 	svcvs	0x006e6e65
     e08:	616d6c6c 	cmnvs	sp, ip, ror #24
     e0c:	6f442f6e 	svcvs	0x00442f6e
     e10:	656d7563 	strbvs	r7, [sp, #-1379]!	; 0xfffffa9d
     e14:	2f73746e 	svccs	0x0073746e
     e18:	69727053 	ldmdbvs	r2!, {r0, r1, r4, r6, ip, sp, lr}^
     e1c:	515f676e 	cmppl	pc, lr, ror #14
     e20:	74726175 	ldrbtvc	r6, [r2], #-373	; 0xfffffe8b
     e24:	325f7265 	subscc	r7, pc, #1342177286	; 0x50000006
     e28:	2f323230 	svccs	0x00323230
     e2c:	34325343 	ldrtcc	r5, [r2], #-835	; 0xfffffcbd
     e30:	2d584c30 	ldclcs	12, cr4, [r8, #-192]	; 0xffffff40
     e34:	32727073 	rsbscc	r7, r2, #115, 0	; 0x73
     e38:	6c2f2f32 	stcvs	15, cr2, [pc], #-200	; d78 <__code_start__-0x7288>
     e3c:	69706269 	ldmdbvs	r0!, {r0, r3, r5, r6, r9, sp, lr}^
     e40:	636e692f 	cmnvs	lr, #770048	; 0xbc000
     e44:	6564756c 	strbvs	r7, [r4, #-1388]!	; 0xfffffa94
     e48:	6c630000 	stclvs	0, cr0, [r3], #-0
     e4c:	2d6e6165 	stfcse	f6, [lr, #-404]!	; 0xfffffe6c
     e50:	6f626572 	svcvs	0x00626572
     e54:	632e746f 			; <UNDEFINED> instruction: 0x632e746f
     e58:	00000100 	andeq	r0, r0, r0, lsl #2
     e5c:	2e697072 	mcrcs	0, 3, r7, cr9, cr2, {3}
     e60:	00020068 	andeq	r0, r2, r8, rrx
     e64:	19050000 	stmdbne	r5, {}	; <UNPREDICTABLE>
     e68:	34020500 	strcc	r0, [r2], #-1280	; 0xfffffb00
     e6c:	15000090 	strne	r0, [r0, #-144]	; 0xffffff70
     e70:	832f0505 			; <UNDEFINED> instruction: 0x832f0505
     e74:	06024b2f 	streq	r4, [r2], -pc, lsr #22
     e78:	c0010100 	andgt	r0, r1, r0, lsl #2
     e7c:	03000000 	movweq	r0, #0
     e80:	00008500 	andeq	r8, r0, r0, lsl #10
     e84:	fb010200 	blx	4168e <__bss_end__+0x36f4e>
     e88:	01000d0e 	tsteq	r0, lr, lsl #26
     e8c:	00010101 	andeq	r0, r1, r1, lsl #2
     e90:	00010000 	andeq	r0, r1, r0
     e94:	2f2e0100 	svccs	0x002e0100
     e98:	66617473 			; <UNDEFINED> instruction: 0x66617473
     e9c:	72732d66 	rsbsvc	r2, r3, #6528	; 0x1980
     ea0:	552f0063 	strpl	r0, [pc, #-99]!	; e45 <__code_start__-0x71bb>
     ea4:	73726573 	cmnvc	r2, #482344960	; 0x1cc00000
     ea8:	6972742f 	ldmdbvs	r2!, {r0, r1, r2, r3, r5, sl, ip, sp, lr}^
     eac:	6e657473 	mcrvs	4, 3, r7, cr5, cr3, {3}
     eb0:	6c6c6f6e 	stclvs	15, cr6, [ip], #-440	; 0xfffffe48
     eb4:	2f6e616d 	svccs	0x006e616d
     eb8:	75636f44 	strbvc	r6, [r3, #-3908]!	; 0xfffff0bc
     ebc:	746e656d 	strbtvc	r6, [lr], #-1389	; 0xfffffa93
     ec0:	70532f73 	subsvc	r2, r3, r3, ror pc
     ec4:	676e6972 			; <UNDEFINED> instruction: 0x676e6972
     ec8:	6175515f 	cmnvs	r5, pc, asr r1
     ecc:	72657472 	rsbvc	r7, r5, #1912602624	; 0x72000000
     ed0:	3230325f 	eorscc	r3, r0, #-268435451	; 0xf0000005
     ed4:	53432f32 	movtpl	r2, #16178	; 0x3f32
     ed8:	4c303432 	cfldrsmi	mvf3, [r0], #-200	; 0xffffff38
     edc:	70732d58 	rsbsvc	r2, r3, r8, asr sp
     ee0:	2f323272 	svccs	0x00323272
     ee4:	62696c2f 	rsbvs	r6, r9, #12032	; 0x2f00
     ee8:	692f6970 	stmdbvs	pc!, {r4, r5, r6, r8, fp, sp, lr}	; <UNPREDICTABLE>
     eec:	756c636e 	strbvc	r6, [ip, #-878]!	; 0xfffffc92
     ef0:	00006564 	andeq	r6, r0, r4, ror #10
     ef4:	61747363 	cmnvs	r4, r3, ror #6
     ef8:	632e7472 			; <UNDEFINED> instruction: 0x632e7472
     efc:	00000100 	andeq	r0, r0, r0, lsl #2
     f00:	2e697072 	mcrcs	0, 3, r7, cr9, cr2, {3}
     f04:	00020068 	andeq	r0, r2, r8, rrx
     f08:	10050000 	andne	r0, r5, r0
     f0c:	60020500 	andvs	r0, r2, r0, lsl #10
     f10:	15000090 	strne	r0, [r0, #-144]	; 0xffffff70
     f14:	052f0505 	streq	r0, [pc, #-1285]!	; a17 <__code_start__-0x75e9>
     f18:	05051302 	streq	r1, [r5, #-770]	; 0xfffffcfe
     f1c:	14133014 	ldrne	r3, [r3], #-20	; 0xffffffec
     f20:	0f060a05 	svceq	0x00060a05
     f24:	09053106 	stmdbeq	r5, {r1, r2, r8, ip, sp}
     f28:	0610054b 	ldreq	r0, [r0], -fp, asr #10
     f2c:	05054a01 	streq	r4, [r5, #-2561]	; 0xfffff5ff
     f30:	01323006 	teqeq	r2, r6
     f34:	05144a01 	ldreq	r4, [r4, #-2561]	; 0xfffff5ff
     f38:	06022f02 	streq	r2, [r2], -r2, lsl #30
     f3c:	a4010100 	strge	r0, [r1], #-256	; 0xffffff00
     f40:	03000000 	movweq	r0, #0
     f44:	00008c00 	andeq	r8, r0, r0, lsl #24
     f48:	fb010200 	blx	41752 <__bss_end__+0x37012>
     f4c:	01000d0e 	tsteq	r0, lr, lsl #26
     f50:	00010101 	andeq	r0, r1, r1, lsl #2
     f54:	00010000 	andeq	r0, r1, r0
     f58:	2f2e0100 	svccs	0x002e0100
     f5c:	66617473 			; <UNDEFINED> instruction: 0x66617473
     f60:	72732d66 	rsbsvc	r2, r3, #6528	; 0x1980
     f64:	552f0063 	strpl	r0, [pc, #-99]!	; f09 <__code_start__-0x70f7>
     f68:	73726573 	cmnvc	r2, #482344960	; 0x1cc00000
     f6c:	6972742f 	ldmdbvs	r2!, {r0, r1, r2, r3, r5, sl, ip, sp, lr}^
     f70:	6e657473 	mcrvs	4, 3, r7, cr5, cr3, {3}
     f74:	6c6c6f6e 	stclvs	15, cr6, [ip], #-440	; 0xfffffe48
     f78:	2f6e616d 	svccs	0x006e616d
     f7c:	75636f44 	strbvc	r6, [r3, #-3908]!	; 0xfffff0bc
     f80:	746e656d 	strbtvc	r6, [lr], #-1389	; 0xfffffa93
     f84:	70532f73 	subsvc	r2, r3, r3, ror pc
     f88:	676e6972 			; <UNDEFINED> instruction: 0x676e6972
     f8c:	6175515f 	cmnvs	r5, pc, asr r1
     f90:	72657472 	rsbvc	r7, r5, #1912602624	; 0x72000000
     f94:	3230325f 	eorscc	r3, r0, #-268435451	; 0xf0000005
     f98:	53432f32 	movtpl	r2, #16178	; 0x3f32
     f9c:	4c303432 	cfldrsmi	mvf3, [r0], #-200	; 0xffffff38
     fa0:	70732d58 	rsbsvc	r2, r3, r8, asr sp
     fa4:	2f323272 	svccs	0x00323272
     fa8:	62696c2f 	rsbvs	r6, r9, #12032	; 0x2f00
     fac:	692f6970 	stmdbvs	pc!, {r4, r5, r6, r8, fp, sp, lr}	; <UNPREDICTABLE>
     fb0:	756c636e 	strbvc	r6, [ip, #-878]!	; 0xfffffc92
     fb4:	00006564 	andeq	r6, r0, r4, ror #10
     fb8:	74737563 	ldrbtvc	r7, [r3], #-1379	; 0xfffffa9d
     fbc:	6c2d6d6f 	stcvs	13, cr6, [sp], #-444	; 0xfffffe44
     fc0:	6564616f 	strbvs	r6, [r4, #-367]!	; 0xfffffe91
     fc4:	00632e72 	rsbeq	r2, r3, r2, ror lr
     fc8:	72000001 	andvc	r0, r0, #1, 0
     fcc:	682e6970 	stmdavs	lr!, {r4, r5, r6, r8, fp, sp, lr}
     fd0:	00000200 	andeq	r0, r0, r0, lsl #4
     fd4:	001a0500 	andseq	r0, sl, r0, lsl #10
     fd8:	909c0205 	addsls	r0, ip, r5, lsl #4
     fdc:	05150000 	ldreq	r0, [r5, #-0]
     fe0:	02021401 	andeq	r1, r2, #16777216	; 0x1000000
     fe4:	f4010100 	vst4.8	{d0,d2,d4,d6}, [r1], r0
     fe8:	03000000 	movweq	r0, #0
     fec:	00008500 	andeq	r8, r0, r0, lsl #10
     ff0:	fb010200 	blx	417fa <__bss_end__+0x370ba>
     ff4:	01000d0e 	tsteq	r0, lr, lsl #26
     ff8:	00010101 	andeq	r0, r1, r1, lsl #2
     ffc:	00010000 	andeq	r0, r1, r0
    1000:	2f2e0100 	svccs	0x002e0100
    1004:	66617473 			; <UNDEFINED> instruction: 0x66617473
    1008:	72732d66 	rsbsvc	r2, r3, #6528	; 0x1980
    100c:	552f0063 	strpl	r0, [pc, #-99]!	; fb1 <__code_start__-0x704f>
    1010:	73726573 	cmnvc	r2, #482344960	; 0x1cc00000
    1014:	6972742f 	ldmdbvs	r2!, {r0, r1, r2, r3, r5, sl, ip, sp, lr}^
    1018:	6e657473 	mcrvs	4, 3, r7, cr5, cr3, {3}
    101c:	6c6c6f6e 	stclvs	15, cr6, [ip], #-440	; 0xfffffe48
    1020:	2f6e616d 	svccs	0x006e616d
    1024:	75636f44 	strbvc	r6, [r3, #-3908]!	; 0xfffff0bc
    1028:	746e656d 	strbtvc	r6, [lr], #-1389	; 0xfffffa93
    102c:	70532f73 	subsvc	r2, r3, r3, ror pc
    1030:	676e6972 			; <UNDEFINED> instruction: 0x676e6972
    1034:	6175515f 	cmnvs	r5, pc, asr r1
    1038:	72657472 	rsbvc	r7, r5, #1912602624	; 0x72000000
    103c:	3230325f 	eorscc	r3, r0, #-268435451	; 0xf0000005
    1040:	53432f32 	movtpl	r2, #16178	; 0x3f32
    1044:	4c303432 	cfldrsmi	mvf3, [r0], #-200	; 0xffffff38
    1048:	70732d58 	rsbsvc	r2, r3, r8, asr sp
    104c:	2f323272 	svccs	0x00323272
    1050:	62696c2f 	rsbvs	r6, r9, #12032	; 0x2f00
    1054:	692f6970 	stmdbvs	pc!, {r4, r5, r6, r8, fp, sp, lr}	; <UNPREDICTABLE>
    1058:	756c636e 	strbvc	r6, [ip, #-878]!	; 0xfffffc92
    105c:	00006564 	andeq	r6, r0, r4, ror #10
    1060:	6f626572 	svcvs	0x00626572
    1064:	632e746f 			; <UNDEFINED> instruction: 0x632e746f
    1068:	00000100 	andeq	r0, r0, r0, lsl #2
    106c:	2e697072 	mcrcs	0, 3, r7, cr9, cr2, {3}
    1070:	00020068 	andeq	r0, r2, r8, rrx
    1074:	19050000 	stmdbne	r5, {}	; <UNPREDICTABLE>
    1078:	a0020500 	andge	r0, r2, r0, lsl #10
    107c:	03000090 	movweq	r0, #144	; 0x90
    1080:	0505010d 	streq	r0, [r5, #-269]	; 0xfffffef3
    1084:	05311313 	ldreq	r1, [r1, #-787]!	; 0xfffffced
    1088:	05010613 	streq	r0, [r1, #-1555]	; 0xfffff9ed
    108c:	1b052f01 	blne	14cc98 <__bss_end__+0x142558>
    1090:	05058506 	streq	r8, [r5, #-1286]	; 0xfffffafa
    1094:	09051413 	stmdbeq	r5, {r0, r1, r4, sl, ip}
    1098:	0616052f 	ldreq	r0, [r6], -pc, lsr #10
    109c:	2e0e0501 	cfsh32cs	mvfx0, mvfx14, #1
    10a0:	2f060505 	svccs	0x00060505
    10a4:	2f060105 	svccs	0x00060105
    10a8:	30061705 	andcc	r1, r6, r5, lsl #14
    10ac:	052f0505 	streq	r0, [pc, #-1285]!	; baf <__code_start__-0x7451>
    10b0:	05010608 	streq	r0, [r1, #-1544]	; 0xfffff9f8
    10b4:	05052e07 	streq	r2, [r5, #-3591]	; 0xfffff1f9
    10b8:	2f305006 	svccs	0x00305006
    10bc:	1313134d 	tstne	r3, #872415233	; 0x34000001
    10c0:	02006715 	andeq	r6, r0, #5505024	; 0x540000
    10c4:	05670104 	strbeq	r0, [r7, #-260]!	; 0xfffffefc
    10c8:	0402000d 	streq	r0, [r2], #-13
    10cc:	0a050101 	beq	1414d8 <__bss_end__+0x136d98>
    10d0:	01040200 	mrseq	r0, R12_usr
    10d4:	03090501 	movweq	r0, #38145	; 0x9501
    10d8:	0c022e6d 	stceq	14, cr2, [r2], {109}	; 0x6d
    10dc:	fb010100 	blx	414e6 <__bss_end__+0x36da6>
    10e0:	03000000 	movweq	r0, #0
    10e4:	00008400 	andeq	r8, r0, r0, lsl #8
    10e8:	fb010200 	blx	418f2 <__bss_end__+0x371b2>
    10ec:	01000d0e 	tsteq	r0, lr, lsl #26
    10f0:	00010101 	andeq	r0, r1, r1, lsl #2
    10f4:	00010000 	andeq	r0, r1, r0
    10f8:	2f2e0100 	svccs	0x002e0100
    10fc:	66617473 			; <UNDEFINED> instruction: 0x66617473
    1100:	72732d66 	rsbsvc	r2, r3, #6528	; 0x1980
    1104:	552f0063 	strpl	r0, [pc, #-99]!	; 10a9 <__code_start__-0x6f57>
    1108:	73726573 	cmnvc	r2, #482344960	; 0x1cc00000
    110c:	6972742f 	ldmdbvs	r2!, {r0, r1, r2, r3, r5, sl, ip, sp, lr}^
    1110:	6e657473 	mcrvs	4, 3, r7, cr5, cr3, {3}
    1114:	6c6c6f6e 	stclvs	15, cr6, [ip], #-440	; 0xfffffe48
    1118:	2f6e616d 	svccs	0x006e616d
    111c:	75636f44 	strbvc	r6, [r3, #-3908]!	; 0xfffff0bc
    1120:	746e656d 	strbtvc	r6, [lr], #-1389	; 0xfffffa93
    1124:	70532f73 	subsvc	r2, r3, r3, ror pc
    1128:	676e6972 			; <UNDEFINED> instruction: 0x676e6972
    112c:	6175515f 	cmnvs	r5, pc, asr r1
    1130:	72657472 	rsbvc	r7, r5, #1912602624	; 0x72000000
    1134:	3230325f 	eorscc	r3, r0, #-268435451	; 0xf0000005
    1138:	53432f32 	movtpl	r2, #16178	; 0x3f32
    113c:	4c303432 	cfldrsmi	mvf3, [r0], #-200	; 0xffffff38
    1140:	70732d58 	rsbsvc	r2, r3, r8, asr sp
    1144:	2f323272 	svccs	0x00323272
    1148:	62696c2f 	rsbvs	r6, r9, #12032	; 0x2f00
    114c:	692f6970 	stmdbvs	pc!, {r4, r5, r6, r8, fp, sp, lr}	; <UNPREDICTABLE>
    1150:	756c636e 	strbvc	r6, [ip, #-878]!	; 0xfffffc92
    1154:	00006564 	andeq	r6, r0, r4, ror #10
    1158:	656d6974 	strbvs	r6, [sp, #-2420]!	; 0xfffff68c
    115c:	00632e72 	rsbeq	r2, r3, r2, ror lr
    1160:	72000001 	andvc	r0, r0, #1, 0
    1164:	682e6970 	stmdavs	lr!, {r4, r5, r6, r8, fp, sp, lr}
    1168:	00000200 	andeq	r0, r0, r0, lsl #4
    116c:	00230500 	eoreq	r0, r3, r0, lsl #10
    1170:	91200205 			; <UNDEFINED> instruction: 0x91200205
    1174:	05150000 	ldreq	r0, [r5, #-0]
    1178:	0c052f05 	stceq	15, cr2, [r5], {5}
    117c:	01050106 	tsteq	r5, r6, lsl #2
    1180:	061f054b 	ldreq	r0, [pc], -fp, asr #10
    1184:	3105054d 	tstcc	r5, sp, asr #10
    1188:	0612052f 	ldreq	r0, [r2], -pc, lsr #10
    118c:	06050501 	streq	r0, [r5], -r1, lsl #10
    1190:	01052f4b 	tsteq	r5, fp, asr #30
    1194:	1c051306 	stcne	3, cr1, [r5], {6}
    1198:	01064c06 	tsteq	r6, r6, lsl #24
    119c:	4b060505 	blmi	1825b8 <__bss_end__+0x177e78>
    11a0:	01061305 	tsteq	r6, r5, lsl #6
    11a4:	0605052e 	streq	r0, [r5], -lr, lsr #10
    11a8:	1309052f 	movwne	r0, #38191	; 0x952f
    11ac:	01061705 	tsteq	r6, r5, lsl #14
    11b0:	2f060905 	svccs	0x00060905
    11b4:	01061105 	tsteq	r6, r5, lsl #2
    11b8:	052e0c05 	streq	r0, [lr, #-3077]!	; 0xfffff3fb
    11bc:	066b061c 			; <UNDEFINED> instruction: 0x066b061c
    11c0:	06050501 	streq	r0, [r5], -r1, lsl #10
    11c4:	054a062f 	strbeq	r0, [sl, #-1583]	; 0xfffff9d1
    11c8:	1e054b01 	vmlane.f64	d4, d5, d1
    11cc:	01062f06 	tsteq	r6, r6, lsl #30
    11d0:	2f060505 	svccs	0x00060505
    11d4:	01054a06 	tsteq	r5, r6, lsl #20
    11d8:	0002024b 	andeq	r0, r2, fp, asr #4
    11dc:	01ba0101 			; <UNDEFINED> instruction: 0x01ba0101
    11e0:	00030000 	andeq	r0, r3, r0
    11e4:	000000be 	strheq	r0, [r0], -lr
    11e8:	0efb0102 	cdpeq	1, 15, cr0, cr11, cr2, {0}
    11ec:	0101000d 	tsteq	r1, sp
    11f0:	00000101 	andeq	r0, r0, r1, lsl #2
    11f4:	00000100 	andeq	r0, r0, r0, lsl #2
    11f8:	6f682f01 	svcvs	0x00682f01
    11fc:	652f656d 	strvs	r6, [pc, #-1389]!	; c97 <__code_start__-0x7369>
    1200:	656c676e 	strbvs	r6, [ip, #-1902]!	; 0xfffff892
    1204:	6c632f72 	stclvs	15, cr2, [r3], #-456	; 0xfffffe38
    1208:	2f737361 	svccs	0x00737361
    120c:	34317363 	ldrtcc	r7, [r1], #-867	; 0xfffffc9d
    1210:	322d6530 	eorcc	r6, sp, #48, 10	; 0xc000000
    1214:	6e697732 	mcrvs	7, 3, r7, cr9, cr2, {1}
    1218:	696c2f2f 	stmdbvs	ip!, {r0, r1, r2, r3, r5, r8, r9, sl, fp, sp}^
    121c:	2f697062 	svccs	0x00697062
    1220:	6c636e69 	stclvs	14, cr6, [r3], #-420	; 0xfffffe5c
    1224:	00656475 	rsbeq	r6, r5, r5, ror r4
    1228:	7273752f 	rsbsvc	r7, r3, #197132288	; 0xbc00000
    122c:	6168732f 	cmnvs	r8, pc, lsr #6
    1230:	672f6572 			; <UNDEFINED> instruction: 0x672f6572
    1234:	612d6363 			; <UNDEFINED> instruction: 0x612d6363
    1238:	6e2d6d72 	mcrvs	13, 1, r6, cr13, cr2, {3}
    123c:	2d656e6f 	stclcs	14, cr6, [r5, #-444]!	; 0xfffffe44
    1240:	69626165 	stmdbvs	r2!, {r0, r2, r5, r6, r8, sp, lr}^
    1244:	2e30312d 	rsfcssp	f3, f0, #5.0
    1248:	30322d33 	eorscc	r2, r2, r3, lsr sp
    124c:	312e3132 			; <UNDEFINED> instruction: 0x312e3132
    1250:	696c2f30 	stmdbvs	ip!, {r4, r5, r8, r9, sl, fp, sp}^
    1254:	63672f62 	cmnvs	r7, #392	; 0x188
    1258:	72612f63 	rsbvc	r2, r1, #396	; 0x18c
    125c:	6f6e2d6d 	svcvs	0x006e2d6d
    1260:	652d656e 	strvs	r6, [sp, #-1390]!	; 0xfffffa92
    1264:	2f696261 	svccs	0x00696261
    1268:	332e3031 			; <UNDEFINED> instruction: 0x332e3031
    126c:	692f312e 	stmdbvs	pc!, {r1, r2, r3, r5, r8, ip, sp}	; <UNPREDICTABLE>
    1270:	756c636e 	strbvc	r6, [ip, #-878]!	; 0xfffffc92
    1274:	00006564 	andeq	r6, r0, r4, ror #10
    1278:	6f697067 	svcvs	0x00697067
    127c:	0000632e 	andeq	r6, r0, lr, lsr #6
    1280:	70720000 	rsbsvc	r0, r2, r0
    1284:	00682e69 	rsbeq	r2, r8, r9, ror #28
    1288:	73000001 	movwvc	r0, #1
    128c:	6e696474 	mcrvs	4, 3, r6, cr9, cr4, {3}
    1290:	63672d74 	cmnvs	r7, #116, 26	; 0x1d00
    1294:	00682e63 	rsbeq	r2, r8, r3, ror #28
    1298:	67000002 	strvs	r0, [r0, -r2]
    129c:	2e6f6970 			; <UNDEFINED> instruction: 0x2e6f6970
    12a0:	00010068 	andeq	r0, r1, r8, rrx
    12a4:	38050000 	stmdacc	r5, {}	; <UNPREDICTABLE>
    12a8:	a4020500 	strge	r0, [r2], #-1280	; 0xfffffb00
    12ac:	03000091 	movweq	r0, #145	; 0x91
    12b0:	05050127 	streq	r0, [r5, #-295]	; 0xfffffed9
    12b4:	06070513 			; <UNDEFINED> instruction: 0x06070513
    12b8:	49380501 	ldmdbmi	r8!, {r0, r8, sl}
    12bc:	4d060505 	cfstr32mi	mvfx0, [r6, #-20]	; 0xffffffec
    12c0:	01060705 	tsteq	r6, r5, lsl #14
    12c4:	4c060505 	cfstr32mi	mvfx0, [r6], {5}
    12c8:	01061805 	tsteq	r6, r5, lsl #16
    12cc:	05ba0e05 	ldreq	r0, [sl, #3589]!	; 0xe05
    12d0:	052f0605 	streq	r0, [pc, #-1541]!	; cd3 <__code_start__-0x732d>
    12d4:	2e01061c 	mcrcs	6, 0, r0, cr1, cr12, {0}
    12d8:	052e0e05 	streq	r0, [lr, #-3589]!	; 0xfffff1fb
    12dc:	05300605 	ldreq	r0, [r0, #-1541]!	; 0xfffff9fb
    12e0:	05010612 	streq	r0, [r1, #-1554]	; 0xfffff9ee
    12e4:	054b0605 	strbeq	r0, [fp, #-1541]	; 0xfffff9fb
    12e8:	05010607 	streq	r0, [r1, #-1543]	; 0xfffff9f9
    12ec:	134b0605 	movtne	r0, #46597	; 0xb605
    12f0:	01052e06 	tsteq	r5, r6, lsl #28
    12f4:	0624054b 	strteq	r0, [r4], -fp, asr #10
    12f8:	0501064c 	streq	r0, [r1, #-1612]	; 0xfffff9b4
    12fc:	052f0605 	streq	r0, [pc, #-1541]!	; cff <__code_start__-0x7301>
    1300:	054b0601 	strbeq	r0, [fp, #-1537]	; 0xfffff9ff
    1304:	05310620 	ldreq	r0, [r1, #-1568]!	; 0xfffff9e0
    1308:	07051305 	streq	r1, [r5, -r5, lsl #6]
    130c:	20050106 	andcs	r0, r5, r6, lsl #2
    1310:	06050549 	streq	r0, [r5], -r9, asr #10
    1314:	05660631 	strbeq	r0, [r6, #-1585]!	; 0xfffff9cf
    1318:	21052f01 	tstcs	r5, r1, lsl #30
    131c:	05054d06 	streq	r4, [r5, #-3334]	; 0xfffff2fa
    1320:	06070513 			; <UNDEFINED> instruction: 0x06070513
    1324:	49210501 	stmdbmi	r1!, {r0, r8, sl}
    1328:	31060505 	tstcc	r6, r5, lsl #10
    132c:	01056606 	tsteq	r5, r6, lsl #12
    1330:	0623052f 	strteq	r0, [r3], -pc, lsr #10
    1334:	0501064d 	streq	r0, [r1, #-1613]	; 0xfffff9b3
    1338:	052f0605 	streq	r0, [pc, #-1541]!	; d3b <__code_start__-0x72c5>
    133c:	054b0601 	strbeq	r0, [fp, #-1537]	; 0xfffff9ff
    1340:	0631062b 	ldrteq	r0, [r1], -fp, lsr #12
    1344:	06050501 	streq	r0, [r5], -r1, lsl #10
    1348:	0607052f 	streq	r0, [r7], -pc, lsr #10
    134c:	06090501 	streq	r0, [r9], -r1, lsl #10
    1350:	062e064b 	strteq	r0, [lr], -fp, asr #12
    1354:	06010530 			; <UNDEFINED> instruction: 0x06010530
    1358:	061d052f 	ldreq	r0, [sp], -pc, lsr #10
    135c:	13050530 	movwne	r0, #21808	; 0x5530
    1360:	01060705 	tsteq	r6, r5, lsl #14
    1364:	05491d05 	strbeq	r1, [r9, #-3333]	; 0xfffff2fb
    1368:	13310605 	teqne	r1, #5242880	; 0x500000
    136c:	01060e05 	tsteq	r6, r5, lsl #28
    1370:	2f060505 	svccs	0x00060505
    1374:	01061705 	tsteq	r6, r5, lsl #14
    1378:	2e23054a 	cfsh64cs	mvdx0, mvdx3, #42
    137c:	30050204 	andcc	r0, r5, r4, lsl #4
    1380:	00d70306 	sbcseq	r0, r7, r6, lsl #6
    1384:	0501042e 	streq	r0, [r1, #-1070]	; 0xfffffbd2
    1388:	a903060c 	stmdbge	r3, {r2, r3, r9, sl}
    138c:	0105017f 	tsteq	r5, pc, ror r1
    1390:	2a10052f 	bcs	402854 <__bss_end__+0x3f8114>
    1394:	02320105 	eorseq	r0, r2, #1073741825	; 0x40000001
    1398:	01010004 	tsteq	r1, r4
    139c:	00000204 	andeq	r0, r0, r4, lsl #4
    13a0:	00c80003 	sbceq	r0, r8, r3
    13a4:	01020000 	mrseq	r0, (UNDEF: 2)
    13a8:	000d0efb 	strdeq	r0, [sp], -fp
    13ac:	01010101 	tsteq	r1, r1, lsl #2
    13b0:	01000000 	mrseq	r0, (UNDEF: 0)
    13b4:	2f010000 	svccs	0x00010000
    13b8:	656d6f68 	strbvs	r6, [sp, #-3944]!	; 0xfffff098
    13bc:	676e652f 	strbvs	r6, [lr, -pc, lsr #10]!
    13c0:	2f72656c 	svccs	0x0072656c
    13c4:	73616c63 	cmnvc	r1, #25344	; 0x6300
    13c8:	73632f73 	cmnvc	r3, #460	; 0x1cc
    13cc:	65303431 	ldrvs	r3, [r0, #-1073]!	; 0xfffffbcf
    13d0:	7732322d 	ldrvc	r3, [r2, -sp, lsr #4]!
    13d4:	2f2f6e69 	svccs	0x002f6e69
    13d8:	7062696c 	rsbvc	r6, r2, ip, ror #18
    13dc:	6e692f69 	cdpvs	15, 6, cr2, cr9, cr9, {3}
    13e0:	64756c63 	ldrbtvs	r6, [r5], #-3171	; 0xfffff39d
    13e4:	752f0065 	strvc	r0, [pc, #-101]!	; 1387 <__code_start__-0x6c79>
    13e8:	732f7273 			; <UNDEFINED> instruction: 0x732f7273
    13ec:	65726168 	ldrbvs	r6, [r2, #-360]!	; 0xfffffe98
    13f0:	6363672f 	cmnvs	r3, #12320768	; 0xbc0000
    13f4:	6d72612d 	ldfvse	f6, [r2, #-180]!	; 0xffffff4c
    13f8:	6e6f6e2d 	cdpvs	14, 6, cr6, cr15, cr13, {1}
    13fc:	61652d65 	cmnvs	r5, r5, ror #26
    1400:	312d6962 			; <UNDEFINED> instruction: 0x312d6962
    1404:	2d332e30 	ldccs	14, cr2, [r3, #-192]!	; 0xffffff40
    1408:	31323032 	teqcc	r2, r2, lsr r0
    140c:	2f30312e 	svccs	0x0030312e
    1410:	2f62696c 	svccs	0x0062696c
    1414:	2f636367 	svccs	0x00636367
    1418:	2d6d7261 	sfmcs	f7, 2, [sp, #-388]!	; 0xfffffe7c
    141c:	656e6f6e 	strbvs	r6, [lr, #-3950]!	; 0xfffff092
    1420:	6261652d 	rsbvs	r6, r1, #188743680	; 0xb400000
    1424:	30312f69 	eorscc	r2, r1, r9, ror #30
    1428:	312e332e 			; <UNDEFINED> instruction: 0x312e332e
    142c:	636e692f 	cmnvs	lr, #770048	; 0xbc000
    1430:	6564756c 	strbvs	r7, [r4, #-1388]!	; 0xfffffa94
    1434:	61750000 	cmnvs	r5, r0
    1438:	632e7472 			; <UNDEFINED> instruction: 0x632e7472
    143c:	00000000 	andeq	r0, r0, r0
    1440:	74726175 	ldrbtvc	r6, [r2], #-373	; 0xfffffe8b
    1444:	0100682e 	tsteq	r0, lr, lsr #16
    1448:	70720000 	rsbsvc	r0, r2, r0
    144c:	00682e69 	rsbeq	r2, r8, r9, ror #28
    1450:	67000001 	strvs	r0, [r0, -r1]
    1454:	2e6f6970 			; <UNDEFINED> instruction: 0x2e6f6970
    1458:	00010068 	andeq	r0, r1, r8, rrx
    145c:	64747300 	ldrbtvs	r7, [r4], #-768	; 0xfffffd00
    1460:	2d746e69 	ldclcs	14, cr6, [r4, #-420]!	; 0xfffffe5c
    1464:	2e636367 	cdpcs	3, 6, cr6, cr3, cr7, {3}
    1468:	00020068 	andeq	r0, r2, r8, rrx
    146c:	39050000 	stmdbcc	r5, {}	; <UNPREDICTABLE>
    1470:	c0020500 	andgt	r0, r2, r0, lsl #10
    1474:	03000092 	movweq	r0, #146	; 0x92
    1478:	01060130 	tsteq	r6, r0, lsr r1
    147c:	67060505 	strvs	r0, [r6, -r5, lsl #10]
    1480:	01061105 	tsteq	r6, r5, lsl #2
    1484:	052e0505 	streq	r0, [lr, #-1285]!	; 0xfffffafb
    1488:	38056701 	stmdacc	r5, {r0, r8, r9, sl, sp, lr}
    148c:	01062906 	tsteq	r6, r6, lsl #18
    1490:	67060505 	strvs	r0, [r6, -r5, lsl #10]
    1494:	01061105 	tsteq	r6, r5, lsl #2
    1498:	052e0505 	streq	r0, [lr, #-1285]!	; 0xfffffafb
    149c:	16056701 	strne	r6, [r5], -r1, lsl #14
    14a0:	2e150306 	cdpcs	3, 1, cr0, cr5, cr6, {0}
    14a4:	67350505 	ldrvs	r0, [r5, -r5, lsl #10]!
    14a8:	03683568 	cmneq	r8, #104, 10	; 0x1a000000
    14ac:	6b852e0c 	blvs	fe14cce4 <__bss_end__+0xfe1425a4>
    14b0:	0c036969 			; <UNDEFINED> instruction: 0x0c036969
    14b4:	676b1366 	strbvs	r1, [fp, -r6, ror #6]!
    14b8:	2f060105 	svccs	0x00060105
    14bc:	08061905 	stmdaeq	r6, {r0, r2, r8, fp, ip}
    14c0:	34050525 	strcc	r0, [r5], #-1317	; 0xfffffadb
    14c4:	01060d05 	tsteq	r6, r5, lsl #26
    14c8:	054c0105 	strbeq	r0, [ip, #-261]	; 0xfffffefb
    14cc:	05670619 	strbeq	r0, [r7, #-1561]!	; 0xfffff9e7
    14d0:	0d053605 	stceq	6, cr3, [r5, #-20]	; 0xffffffec
    14d4:	28050106 	stmdacs	r5, {r1, r2, r8}
    14d8:	3001054a 	andcc	r0, r1, sl, asr #10
    14dc:	87061505 	strhi	r1, [r6, -r5, lsl #10]
    14e0:	2f2f0505 	svccs	0x002f0505
    14e4:	02000905 	andeq	r0, r0, #81920	; 0x14000
    14e8:	05130104 	ldreq	r0, [r3, #-260]	; 0xfffffefc
    14ec:	0402000a 	streq	r0, [r2], #-10
    14f0:	0c051101 	stfeqs	f1, [r5], {1}
    14f4:	01040200 	mrseq	r0, R12_usr
    14f8:	0a050106 	beq	141918 <__bss_end__+0x1371d8>
    14fc:	01040200 	mrseq	r0, R12_usr
    1500:	0605052e 	streq	r0, [r5], -lr, lsr #10
    1504:	060e054c 	streq	r0, [lr], -ip, asr #10
    1508:	4a090501 	bmi	242914 <__bss_end__+0x2381d4>
    150c:	2f060505 	svccs	0x00060505
    1510:	0601052f 	streq	r0, [r1], -pc, lsr #10
    1514:	061c0513 			; <UNDEFINED> instruction: 0x061c0513
    1518:	05010667 	streq	r0, [r1, #-1639]	; 0xfffff999
    151c:	2f4b0605 	svccs	0x004b0605
    1520:	02000905 	andeq	r0, r0, #81920	; 0x14000
    1524:	05130104 	ldreq	r0, [r3, #-260]	; 0xfffffefc
    1528:	0402000a 	streq	r0, [r2], #-10
    152c:	0c051101 	stfeqs	f1, [r5], {1}
    1530:	01040200 	mrseq	r0, R12_usr
    1534:	0a050106 	beq	141954 <__bss_end__+0x137214>
    1538:	01040200 	mrseq	r0, R12_usr
    153c:	0605052e 	streq	r0, [r5], -lr, lsr #10
    1540:	0105674c 	tsteq	r5, ip, asr #14
    1544:	19052f06 	stmdbne	r5, {r1, r2, r8, r9, sl, fp, sp}
    1548:	1b054c06 	blne	154568 <__bss_end__+0x149e28>
    154c:	2e2a052e 	cfsh64cs	mvdx0, mvdx10, #30
    1550:	01063105 	tsteq	r6, r5, lsl #2
    1554:	052e4205 	streq	r4, [lr, #-517]!	; 0xfffffdfb
    1558:	0531061c 	ldreq	r0, [r1, #-1564]!	; 0xfffff9e4
    155c:	09032f05 	stmdbeq	r3, {r0, r2, r8, r9, sl, fp, sp}
    1560:	060e052e 	streq	r0, [lr], -lr, lsr #10
    1564:	4a210501 	bmi	842970 <__bss_end__+0x838230>
    1568:	0a030105 	beq	c1984 <__bss_end__+0xb7244>
    156c:	061a052e 	ldreq	r0, [sl], -lr, lsr #10
    1570:	00090568 	andeq	r0, r9, r8, ror #10
    1574:	30010402 	andcc	r0, r1, r2, lsl #8
    1578:	02000a05 	andeq	r0, r0, #20480	; 0x5000
    157c:	05110104 	ldreq	r0, [r1, #-260]	; 0xfffffefc
    1580:	0402000c 	streq	r0, [r2], #-12
    1584:	05010601 	streq	r0, [r1, #-1537]	; 0xfffff9ff
    1588:	0402000a 	streq	r0, [r2], #-10
    158c:	19052e01 	stmdbne	r5, {r0, r9, sl, fp, sp}
    1590:	7ee80306 	cdpvc	3, 14, cr0, cr8, cr6, {0}
    1594:	2f050566 	svccs	0x00050566
    1598:	05672f2f 	strbeq	r2, [r7, #-3887]!	; 0xfffff0d1
    159c:	022f0601 	eoreq	r0, pc, #1048576	; 0x100000
    15a0:	01010004 	tsteq	r1, r4
    15a4:	000000fe 	strdeq	r0, [r0], -lr
    15a8:	00590003 	subseq	r0, r9, r3
    15ac:	01020000 	mrseq	r0, (UNDEF: 2)
    15b0:	000d0efb 	strdeq	r0, [sp], -fp
    15b4:	01010101 	tsteq	r1, r1, lsl #2
    15b8:	01000000 	mrseq	r0, (UNDEF: 0)
    15bc:	2f010000 	svccs	0x00010000
    15c0:	656d6f68 	strbvs	r6, [sp, #-3944]!	; 0xfffff098
    15c4:	676e652f 	strbvs	r6, [lr, -pc, lsr #10]!
    15c8:	2f72656c 	svccs	0x0072656c
    15cc:	73616c63 	cmnvc	r1, #25344	; 0x6300
    15d0:	73632f73 	cmnvc	r3, #460	; 0x1cc
    15d4:	65303431 	ldrvs	r3, [r0, #-1073]!	; 0xfffffbcf
    15d8:	7732322d 	ldrvc	r3, [r2, -sp, lsr #4]!
    15dc:	2f2f6e69 	svccs	0x002f6e69
    15e0:	7062696c 	rsbvc	r6, r2, ip, ror #18
    15e4:	6e692f69 	cdpvs	15, 6, cr2, cr9, cr9, {3}
    15e8:	64756c63 	ldrbtvs	r6, [r5], #-3171	; 0xfffff39d
    15ec:	67000065 	strvs	r0, [r0, -r5, rrx]
    15f0:	2d6f6970 			; <UNDEFINED> instruction: 0x2d6f6970
    15f4:	2e647570 	mcrcs	5, 3, r7, cr4, cr0, {3}
    15f8:	00000063 	andeq	r0, r0, r3, rrx
    15fc:	69707200 	ldmdbvs	r0!, {r9, ip, sp, lr}^
    1600:	0100682e 	tsteq	r0, lr, lsr #16
    1604:	05000000 	streq	r0, [r0, #-0]
    1608:	0205002f 	andeq	r0, r5, #47, 0	; 0x2f
    160c:	000094b0 			; <UNDEFINED> instruction: 0x000094b0
    1610:	06011003 	streq	r1, [r1], -r3
    1614:	06050501 	streq	r0, [r5], -r1, lsl #10
    1618:	0200014b 	andeq	r0, r0, #-1073741806	; 0xc0000012
    161c:	00820204 	addeq	r0, r2, r4, lsl #4
    1620:	13020402 	movwne	r0, #9218	; 0x2402
    1624:	02040200 	andeq	r0, r4, #0, 4
    1628:	14144a01 	ldrne	r4, [r4], #-2561	; 0xfffff5ff
    162c:	01060705 	tsteq	r6, r5, lsl #14
    1630:	1b030105 	blne	c1a4c <__bss_end__+0xb730c>
    1634:	0005054a 	andeq	r0, r5, sl, asr #10
    1638:	06010402 	streq	r0, [r1], -r2, lsl #8
    163c:	004a6003 	subeq	r6, sl, r3
    1640:	2e010402 	cdpcs	4, 0, cr0, cr1, cr2, {0}
    1644:	01040200 	mrseq	r0, R12_usr
    1648:	040200d6 	streq	r0, [r2], #-214	; 0xffffff2a
    164c:	02002f01 	andeq	r2, r0, #1, 30
    1650:	002e0104 	eoreq	r0, lr, r4, lsl #2
    1654:	d6010402 	strle	r0, [r1], -r2, lsl #8
    1658:	4e843135 	mcrmi	1, 4, r3, cr4, cr5, {1}
    165c:	84062e06 	strhi	r2, [r6], #-3590	; 0xfffff1fa
    1660:	674e674e 	strbvs	r6, [lr, -lr, asr #14]
    1664:	0824054c 	stmdaeq	r4!, {r2, r3, r6, r8, sl}
    1668:	0501063f 	streq	r0, [r1, #-1599]	; 0xfffff9c1
    166c:	052e0626 	streq	r0, [lr, #-1574]!	; 0xfffff9da
    1670:	054a063f 	strbeq	r0, [sl, #-1599]	; 0xfffff9c1
    1674:	062f0626 	strteq	r0, [pc], -r6, lsr #12
    1678:	06280501 	strteq	r0, [r8], -r1, lsl #10
    167c:	0641052e 	strbeq	r0, [r1], -lr, lsr #10
    1680:	0621054a 	strteq	r0, [r1], -sl, asr #10
    1684:	0501062f 	streq	r0, [r1, #-1583]	; 0xfffff9d1
    1688:	052e0623 	streq	r0, [lr, #-1571]!	; 0xfffff9dd
    168c:	054a063c 	strbeq	r0, [sl, #-1596]	; 0xfffff9c4
    1690:	06300620 	ldrteq	r0, [r0], -r0, lsr #12
    1694:	06050501 	streq	r0, [r5], -r1, lsl #10
    1698:	060d052f 	streq	r0, [sp], -pc, lsr #10
    169c:	01052e01 	tsteq	r5, r1, lsl #28
    16a0:	0006022f 	andeq	r0, r6, pc, lsr #4
    16a4:	00bf0101 	adcseq	r0, pc, r1, lsl #2
    16a8:	00030000 	andeq	r0, r3, r0
    16ac:	00000081 	andeq	r0, r0, r1, lsl #1
    16b0:	0efb0102 	cdpeq	1, 15, cr0, cr11, cr2, {0}
    16b4:	0101000d 	tsteq	r1, sp
    16b8:	00000101 	andeq	r0, r0, r1, lsl #2
    16bc:	00000100 	andeq	r0, r0, r0, lsl #2
    16c0:	6c2f2e01 	stcvs	14, cr2, [pc], #-4	; 16c4 <__code_start__-0x693c>
    16c4:	00636269 	rsbeq	r6, r3, r9, ror #4
    16c8:	6573552f 	ldrbvs	r5, [r3, #-1327]!	; 0xfffffad1
    16cc:	742f7372 	strtvc	r7, [pc], #-882	; 16d4 <__code_start__-0x692c>
    16d0:	74736972 	ldrbtvc	r6, [r3], #-2418	; 0xfffff68e
    16d4:	6f6e6e65 	svcvs	0x006e6e65
    16d8:	616d6c6c 	cmnvs	sp, ip, ror #24
    16dc:	6f442f6e 	svcvs	0x00442f6e
    16e0:	656d7563 	strbvs	r7, [sp, #-1379]!	; 0xfffffa9d
    16e4:	2f73746e 	svccs	0x0073746e
    16e8:	69727053 	ldmdbvs	r2!, {r0, r1, r4, r6, ip, sp, lr}^
    16ec:	515f676e 	cmppl	pc, lr, ror #14
    16f0:	74726175 	ldrbtvc	r6, [r2], #-373	; 0xfffffe8b
    16f4:	325f7265 	subscc	r7, pc, #1342177286	; 0x50000006
    16f8:	2f323230 	svccs	0x00323230
    16fc:	34325343 	ldrtcc	r5, [r2], #-835	; 0xfffffcbd
    1700:	2d584c30 	ldclcs	12, cr4, [r8, #-192]	; 0xffffff40
    1704:	32727073 	rsbscc	r7, r2, #115, 0	; 0x73
    1708:	6c2f2f32 	stcvs	15, cr2, [pc], #-200	; 1648 <__code_start__-0x69b8>
    170c:	69706269 	ldmdbvs	r0!, {r0, r3, r5, r6, r9, sp, lr}^
    1710:	636e692f 	cmnvs	lr, #770048	; 0xbc000
    1714:	6564756c 	strbvs	r7, [r4, #-1388]!	; 0xfffffa94
    1718:	75700000 	ldrbvc	r0, [r0, #-0]!
    171c:	61686374 	smcvs	34356	; 0x8634
    1720:	00632e72 	rsbeq	r2, r3, r2, ror lr
    1724:	72000001 	andvc	r0, r0, #1, 0
    1728:	682e6970 	stmdavs	lr!, {r4, r5, r6, r8, fp, sp, lr}
    172c:	00000200 	andeq	r0, r0, r0, lsl #4
    1730:	00240500 	eoreq	r0, r4, r0, lsl #10
    1734:	95f80205 	ldrbls	r0, [r8, #517]!	; 0x205
    1738:	06140000 	ldreq	r0, [r4], -r0
    173c:	06260501 	strteq	r0, [r6], -r1, lsl #10
    1740:	2e34054a 	cdpcs	5, 3, cr0, cr4, cr10, {2}
    1744:	01060105 	tsteq	r6, r5, lsl #2
    1748:	4f061b05 	svcmi	0x00061b05
    174c:	05130505 	ldreq	r0, [r3, #-1285]	; 0xfffffafb
    1750:	05010611 	streq	r0, [r1, #-1553]	; 0xfffff9ef
    1754:	23056701 	movwcs	r6, #22273	; 0x5701
    1758:	05056706 	streq	r6, [r5, #-1798]	; 0xfffff8fa
    175c:	06110513 			; <UNDEFINED> instruction: 0x06110513
    1760:	4b010501 	blmi	42b6c <__bss_end__+0x3842c>
    1764:	01000402 	tsteq	r0, r2, lsl #8
    1768:	00010b01 	andeq	r0, r1, r1, lsl #22
    176c:	80000300 	andhi	r0, r0, r0, lsl #6
    1770:	02000000 	andeq	r0, r0, #0, 0
    1774:	0d0efb01 	vstreq	d15, [lr, #-4]
    1778:	01010100 	mrseq	r0, (UNDEF: 17)
    177c:	00000001 	andeq	r0, r0, r1
    1780:	01000001 	tsteq	r0, r1
    1784:	696c2f2e 	stmdbvs	ip!, {r1, r2, r3, r5, r8, r9, sl, fp, sp}^
    1788:	2f006362 	svccs	0x00006362
    178c:	72657355 	rsbvc	r7, r5, #1409286145	; 0x54000001
    1790:	72742f73 	rsbsvc	r2, r4, #460	; 0x1cc
    1794:	65747369 	ldrbvs	r7, [r4, #-873]!	; 0xfffffc97
    1798:	6c6f6e6e 	stclvs	14, cr6, [pc], #-440	; 15e8 <__code_start__-0x6a18>
    179c:	6e616d6c 	cdpvs	13, 6, cr6, cr1, cr12, {3}
    17a0:	636f442f 	cmnvs	pc, #788529152	; 0x2f000000
    17a4:	6e656d75 	mcrvs	13, 3, r6, cr5, cr5, {3}
    17a8:	532f7374 			; <UNDEFINED> instruction: 0x532f7374
    17ac:	6e697270 	mcrvs	2, 3, r7, cr9, cr0, {3}
    17b0:	75515f67 	ldrbvc	r5, [r1, #-3943]	; 0xfffff099
    17b4:	65747261 	ldrbvs	r7, [r4, #-609]!	; 0xfffffd9f
    17b8:	30325f72 	eorscc	r5, r2, r2, ror pc
    17bc:	432f3232 			; <UNDEFINED> instruction: 0x432f3232
    17c0:	30343253 	eorscc	r3, r4, r3, asr r2
    17c4:	732d584c 			; <UNDEFINED> instruction: 0x732d584c
    17c8:	32327270 	eorscc	r7, r2, #112, 4
    17cc:	696c2f2f 	stmdbvs	ip!, {r0, r1, r2, r3, r5, r8, r9, sl, fp, sp}^
    17d0:	2f697062 	svccs	0x00697062
    17d4:	6c636e69 	stclvs	14, cr6, [r3], #-420	; 0xfffffe5c
    17d8:	00656475 	rsbeq	r6, r5, r5, ror r4
    17dc:	72747300 	rsbsvc	r7, r4, #0, 6
    17e0:	2e746163 	rpwcssz	f6, f4, f3
    17e4:	00010063 	andeq	r0, r1, r3, rrx
    17e8:	69707200 	ldmdbvs	r0!, {r9, ip, sp, lr}^
    17ec:	0200682e 	andeq	r6, r0, #3014656	; 0x2e0000
    17f0:	05000000 	streq	r0, [r0, #-0]
    17f4:	0205002c 	andeq	r0, r5, #44, 0	; 0x2c
    17f8:	00009634 	andeq	r9, r0, r4, lsr r6
    17fc:	13050515 	movwne	r0, #21781	; 0x5515
    1800:	060b0513 			; <UNDEFINED> instruction: 0x060b0513
    1804:	00050511 	andeq	r0, r5, r1, lsl r5
    1808:	06010402 	streq	r0, [r1], -r2, lsl #8
    180c:	04020030 	streq	r0, [r2], #-48	; 0xffffffd0
    1810:	09051501 	stmdbeq	r5, {r0, r8, sl, ip}
    1814:	01040200 	mrseq	r0, R12_usr
    1818:	00100513 	andseq	r0, r0, r3, lsl r5
    181c:	06010402 	streq	r0, [r1], -r2, lsl #8
    1820:	000b052e 	andeq	r0, fp, lr, lsr #10
    1824:	2e010402 	cdpcs	4, 0, cr0, cr1, cr2, {0}
    1828:	01040200 	mrseq	r0, R12_usr
    182c:	05052f06 	streq	r2, [r5, #-3846]	; 0xfffff0fa
    1830:	01040200 	mrseq	r0, R12_usr
    1834:	4e060106 	adfmis	f0, f6, f6
    1838:	01060805 	tsteq	r6, r5, lsl #16
    183c:	02000505 	andeq	r0, r0, #20971520	; 0x1400000
    1840:	2f060104 	svccs	0x00060104
    1844:	02000905 	andeq	r0, r0, #81920	; 0x14000
    1848:	05130104 	ldreq	r0, [r3, #-260]	; 0xfffffefc
    184c:	0402000b 	streq	r0, [r2], #-11
    1850:	05010601 	streq	r0, [r1, #-1537]	; 0xfffff9ff
    1854:	04020009 	streq	r0, [r2], #-9
    1858:	054b0601 	strbeq	r0, [fp, #-1537]	; 0xfffff9ff
    185c:	0402000f 	streq	r0, [r2], #-15
    1860:	05010601 	streq	r0, [r1, #-1537]	; 0xfffff9ff
    1864:	0402000d 	streq	r0, [r2], #-13
    1868:	052f0601 	streq	r0, [pc, #-1537]!	; 126f <__code_start__-0x6d91>
    186c:	04020005 	streq	r0, [r2], #-5
    1870:	02010601 	andeq	r0, r1, #1048576	; 0x100000
    1874:	01010006 	tsteq	r1, r6
    1878:	000000c4 	andeq	r0, r0, r4, asr #1
    187c:	00800003 	addeq	r0, r0, r3
    1880:	01020000 	mrseq	r0, (UNDEF: 2)
    1884:	000d0efb 	strdeq	r0, [sp], -fp
    1888:	01010101 	tsteq	r1, r1, lsl #2
    188c:	01000000 	mrseq	r0, (UNDEF: 0)
    1890:	2e010000 	cdpcs	0, 0, cr0, cr1, cr0, {0}
    1894:	62696c2f 	rsbvs	r6, r9, #12032	; 0x2f00
    1898:	552f0063 	strpl	r0, [pc, #-99]!	; 183d <__code_start__-0x67c3>
    189c:	73726573 	cmnvc	r2, #482344960	; 0x1cc00000
    18a0:	6972742f 	ldmdbvs	r2!, {r0, r1, r2, r3, r5, sl, ip, sp, lr}^
    18a4:	6e657473 	mcrvs	4, 3, r7, cr5, cr3, {3}
    18a8:	6c6c6f6e 	stclvs	15, cr6, [ip], #-440	; 0xfffffe48
    18ac:	2f6e616d 	svccs	0x006e616d
    18b0:	75636f44 	strbvc	r6, [r3, #-3908]!	; 0xfffff0bc
    18b4:	746e656d 	strbtvc	r6, [lr], #-1389	; 0xfffffa93
    18b8:	70532f73 	subsvc	r2, r3, r3, ror pc
    18bc:	676e6972 			; <UNDEFINED> instruction: 0x676e6972
    18c0:	6175515f 	cmnvs	r5, pc, asr r1
    18c4:	72657472 	rsbvc	r7, r5, #1912602624	; 0x72000000
    18c8:	3230325f 	eorscc	r3, r0, #-268435451	; 0xf0000005
    18cc:	53432f32 	movtpl	r2, #16178	; 0x3f32
    18d0:	4c303432 	cfldrsmi	mvf3, [r0], #-200	; 0xffffff38
    18d4:	70732d58 	rsbsvc	r2, r3, r8, asr sp
    18d8:	2f323272 	svccs	0x00323272
    18dc:	62696c2f 	rsbvs	r6, r9, #12032	; 0x2f00
    18e0:	692f6970 	stmdbvs	pc!, {r4, r5, r6, r8, fp, sp, lr}	; <UNPREDICTABLE>
    18e4:	756c636e 	strbvc	r6, [ip, #-878]!	; 0xfffffc92
    18e8:	00006564 	andeq	r6, r0, r4, ror #10
    18ec:	63727473 	cmnvs	r2, #1929379840	; 0x73000000
    18f0:	632e706d 			; <UNDEFINED> instruction: 0x632e706d
    18f4:	00000100 	andeq	r0, r0, r0, lsl #2
    18f8:	2e697072 	mcrcs	0, 3, r7, cr9, cr2, {3}
    18fc:	00020068 	andeq	r0, r2, r8, rrx
    1900:	2a050000 	bcs	141908 <__bss_end__+0x1371c8>
    1904:	68020500 	stmdavs	r2, {r8, sl}
    1908:	14000096 	strne	r0, [r0], #-150	; 0xffffff6a
    190c:	05130905 	ldreq	r0, [r3, #-2309]	; 0xfffff6fb
    1910:	1005010f 	andne	r0, r5, pc, lsl #2
    1914:	0f050106 	svceq	0x00050106
    1918:	001c052e 	andseq	r0, ip, lr, lsr #10
    191c:	4a010402 	bmi	4292c <__bss_end__+0x381ec>
    1920:	02001305 	andeq	r1, r0, #335544320	; 0x14000000
    1924:	052e0104 	streq	r0, [lr, #-260]!	; 0xfffffefc
    1928:	052f0611 	streq	r0, [pc, #-1553]!	; 131f <__code_start__-0x6ce1>
    192c:	2e2e0616 	mcrcs	6, 1, r0, cr14, cr6, {0}
    1930:	2f060905 	svccs	0x00060905
    1934:	01061505 	tsteq	r6, r5, lsl #10
    1938:	022f0105 	eoreq	r0, pc, #1073741825	; 0x40000001
    193c:	01010004 	tsteq	r1, r4
    1940:	000000c2 	andeq	r0, r0, r2, asr #1
    1944:	00800003 	addeq	r0, r0, r3
    1948:	01020000 	mrseq	r0, (UNDEF: 2)
    194c:	000d0efb 	strdeq	r0, [sp], -fp
    1950:	01010101 	tsteq	r1, r1, lsl #2
    1954:	01000000 	mrseq	r0, (UNDEF: 0)
    1958:	2e010000 	cdpcs	0, 0, cr0, cr1, cr0, {0}
    195c:	62696c2f 	rsbvs	r6, r9, #12032	; 0x2f00
    1960:	552f0063 	strpl	r0, [pc, #-99]!	; 1905 <__code_start__-0x66fb>
    1964:	73726573 	cmnvc	r2, #482344960	; 0x1cc00000
    1968:	6972742f 	ldmdbvs	r2!, {r0, r1, r2, r3, r5, sl, ip, sp, lr}^
    196c:	6e657473 	mcrvs	4, 3, r7, cr5, cr3, {3}
    1970:	6c6c6f6e 	stclvs	15, cr6, [ip], #-440	; 0xfffffe48
    1974:	2f6e616d 	svccs	0x006e616d
    1978:	75636f44 	strbvc	r6, [r3, #-3908]!	; 0xfffff0bc
    197c:	746e656d 	strbtvc	r6, [lr], #-1389	; 0xfffffa93
    1980:	70532f73 	subsvc	r2, r3, r3, ror pc
    1984:	676e6972 			; <UNDEFINED> instruction: 0x676e6972
    1988:	6175515f 	cmnvs	r5, pc, asr r1
    198c:	72657472 	rsbvc	r7, r5, #1912602624	; 0x72000000
    1990:	3230325f 	eorscc	r3, r0, #-268435451	; 0xf0000005
    1994:	53432f32 	movtpl	r2, #16178	; 0x3f32
    1998:	4c303432 	cfldrsmi	mvf3, [r0], #-200	; 0xffffff38
    199c:	70732d58 	rsbsvc	r2, r3, r8, asr sp
    19a0:	2f323272 	svccs	0x00323272
    19a4:	62696c2f 	rsbvs	r6, r9, #12032	; 0x2f00
    19a8:	692f6970 	stmdbvs	pc!, {r4, r5, r6, r8, fp, sp, lr}	; <UNPREDICTABLE>
    19ac:	756c636e 	strbvc	r6, [ip, #-878]!	; 0xfffffc92
    19b0:	00006564 	andeq	r6, r0, r4, ror #10
    19b4:	63727473 	cmnvs	r2, #1929379840	; 0x73000000
    19b8:	632e7970 			; <UNDEFINED> instruction: 0x632e7970
    19bc:	00000100 	andeq	r0, r0, r0, lsl #2
    19c0:	2e697072 	mcrcs	0, 3, r7, cr9, cr2, {3}
    19c4:	00020068 	andeq	r0, r2, r8, rrx
    19c8:	2a050000 	bcs	1419d0 <__bss_end__+0x137290>
    19cc:	94020500 	strls	r0, [r2], #-1280	; 0xfffffb00
    19d0:	14000096 	strne	r0, [r0], #-150	; 0xffffff6a
    19d4:	13130505 	tstne	r3, #20971520	; 0x1400000
    19d8:	11061405 	tstne	r6, r5, lsl #8
    19dc:	02002205 	andeq	r2, r0, #1342177280	; 0x50000000
    19e0:	2f060104 	svccs	0x00060104
    19e4:	02000b05 	andeq	r0, r0, #5120	; 0x1400
    19e8:	05010104 	streq	r0, [r1, #-260]	; 0xfffffefc
    19ec:	04020015 	streq	r0, [r2], #-21	; 0xffffffeb
    19f0:	05010601 	streq	r0, [r1, #-1537]	; 0xfffff9ff
    19f4:	04020013 	streq	r0, [r2], #-19	; 0xffffffed
    19f8:	0b054a01 	bleq	154204 <__bss_end__+0x149ac4>
    19fc:	01040200 	mrseq	r0, R12_usr
    1a00:	0006024a 	andeq	r0, r6, sl, asr #4
    1a04:	01220101 			; <UNDEFINED> instruction: 0x01220101
    1a08:	00030000 	andeq	r0, r3, r0
    1a0c:	000000e6 	andeq	r0, r0, r6, ror #1
    1a10:	0efb0102 	cdpeq	1, 15, cr0, cr11, cr2, {0}
    1a14:	0101000d 	tsteq	r1, sp
    1a18:	00000101 	andeq	r0, r0, r1, lsl #2
    1a1c:	00000100 	andeq	r0, r0, r0, lsl #2
    1a20:	6c2f2e01 	stcvs	14, cr2, [pc], #-4	; 1a24 <__code_start__-0x65dc>
    1a24:	00636269 	rsbeq	r6, r3, r9, ror #4
    1a28:	6573552f 	ldrbvs	r5, [r3, #-1327]!	; 0xfffffad1
    1a2c:	742f7372 	strtvc	r7, [pc], #-882	; 1a34 <__code_start__-0x65cc>
    1a30:	74736972 	ldrbtvc	r6, [r3], #-2418	; 0xfffff68e
    1a34:	6f6e6e65 	svcvs	0x006e6e65
    1a38:	616d6c6c 	cmnvs	sp, ip, ror #24
    1a3c:	6f442f6e 	svcvs	0x00442f6e
    1a40:	656d7563 	strbvs	r7, [sp, #-1379]!	; 0xfffffa9d
    1a44:	2f73746e 	svccs	0x0073746e
    1a48:	69727053 	ldmdbvs	r2!, {r0, r1, r4, r6, ip, sp, lr}^
    1a4c:	515f676e 	cmppl	pc, lr, ror #14
    1a50:	74726175 	ldrbtvc	r6, [r2], #-373	; 0xfffffe8b
    1a54:	325f7265 	subscc	r7, pc, #1342177286	; 0x50000006
    1a58:	2f323230 	svccs	0x00323230
    1a5c:	34325343 	ldrtcc	r5, [r2], #-835	; 0xfffffcbd
    1a60:	2d584c30 	ldclcs	12, cr4, [r8, #-192]	; 0xffffff40
    1a64:	32727073 	rsbscc	r7, r2, #115, 0	; 0x73
    1a68:	6c2f2f32 	stcvs	15, cr2, [pc], #-200	; 19a8 <__code_start__-0x6658>
    1a6c:	69706269 	ldmdbvs	r0!, {r0, r3, r5, r6, r9, sp, lr}^
    1a70:	636e692f 	cmnvs	lr, #770048	; 0xbc000
    1a74:	6564756c 	strbvs	r7, [r4, #-1388]!	; 0xfffffa94
    1a78:	73752f00 	cmnvc	r5, #0, 30
    1a7c:	6f6c2f72 	svcvs	0x006c2f72
    1a80:	2f6c6163 	svccs	0x006c6163
    1a84:	6c6c6543 	cfstr64vs	mvdx6, [ip], #-268	; 0xfffffef4
    1a88:	612f7261 			; <UNDEFINED> instruction: 0x612f7261
    1a8c:	6e2d6d72 	mcrvs	13, 1, r6, cr13, cr2, {3}
    1a90:	2d656e6f 	stclcs	14, cr6, [r5, #-444]!	; 0xfffffe44
    1a94:	69626165 	stmdbvs	r2!, {r0, r2, r5, r6, r8, sp, lr}^
    1a98:	7365742d 	cmnvc	r5, #754974720	; 0x2d000000
    1a9c:	2d392f74 	ldccs	15, cr2, [r9, #-464]!	; 0xfffffe30
    1aa0:	39313032 	ldmdbcc	r1!, {r1, r4, r5, ip, sp}
    1aa4:	632d3471 			; <UNDEFINED> instruction: 0x632d3471
    1aa8:	37303173 			; <UNDEFINED> instruction: 0x37303173
    1aac:	696c2f65 	stmdbvs	ip!, {r0, r2, r5, r6, r8, r9, sl, fp, sp}^
    1ab0:	63672f62 	cmnvs	r7, #392	; 0x188
    1ab4:	72612f63 	rsbvc	r2, r1, #396	; 0x18c
    1ab8:	6f6e2d6d 	svcvs	0x006e2d6d
    1abc:	652d656e 	strvs	r6, [sp, #-1390]!	; 0xfffffa92
    1ac0:	2f696261 	svccs	0x00696261
    1ac4:	2e322e39 	mrccs	14, 1, r2, cr2, cr9, {1}
    1ac8:	6e692f31 	mcrvs	15, 3, r2, cr9, cr1, {1}
    1acc:	64756c63 	ldrbtvs	r6, [r5], #-3171	; 0xfffff39d
    1ad0:	73000065 	movwvc	r0, #101	; 0x65
    1ad4:	636e7274 	cmnvs	lr, #116, 4	; 0x40000007
    1ad8:	632e706d 			; <UNDEFINED> instruction: 0x632e706d
    1adc:	00000100 	andeq	r0, r0, r0, lsl #2
    1ae0:	2e697072 	mcrcs	0, 3, r7, cr9, cr2, {3}
    1ae4:	00020068 	andeq	r0, r2, r8, rrx
    1ae8:	64747300 	ldrbtvs	r7, [r4], #-768	; 0xfffffd00
    1aec:	2e666564 	cdpcs	5, 6, cr6, cr6, cr4, {3}
    1af0:	00030068 	andeq	r0, r3, r8, rrx
    1af4:	39050000 	stmdbcc	r5, {}	; <UNPREDICTABLE>
    1af8:	b4020500 	strlt	r0, [r2], #-1280	; 0xfffffb00
    1afc:	15000096 	strne	r0, [r0, #-150]	; 0xffffff6a
    1b00:	13130505 	tstne	r3, #20971520	; 0x1400000
    1b04:	06010a05 	streq	r0, [r1], -r5, lsl #20
    1b08:	09054a01 	stmdbeq	r5, {r0, r9, fp, lr}
    1b0c:	0c052f06 	stceq	15, cr2, [r5], {6}
    1b10:	13050106 	movwne	r0, #20742	; 0x5106
    1b14:	2e0b052e 	cfsh32cs	mvfx0, mvfx11, #30
    1b18:	4b060d05 	blmi	184f34 <__bss_end__+0x17a7f4>
    1b1c:	01061b05 	tsteq	r6, r5, lsl #22
    1b20:	300c052e 	andcc	r0, ip, lr, lsr #10
    1b24:	022f0105 	eoreq	r0, pc, #1073741825	; 0x40000001
    1b28:	01010002 	tsteq	r1, r2
    1b2c:	000000b1 	strheq	r0, [r0], -r1
    1b30:	00950003 	addseq	r0, r5, r3
    1b34:	01020000 	mrseq	r0, (UNDEF: 2)
    1b38:	000d0efb 	strdeq	r0, [sp], -fp
    1b3c:	01010101 	tsteq	r1, r1, lsl #2
    1b40:	01000000 	mrseq	r0, (UNDEF: 0)
    1b44:	2e010000 	cdpcs	0, 0, cr0, cr1, cr0, {0}
    1b48:	6174732f 	cmnvs	r4, pc, lsr #6
    1b4c:	732d6666 			; <UNDEFINED> instruction: 0x732d6666
    1b50:	2f006372 	svccs	0x00006372
    1b54:	72657355 	rsbvc	r7, r5, #1409286145	; 0x54000001
    1b58:	72742f73 	rsbsvc	r2, r4, #460	; 0x1cc
    1b5c:	65747369 	ldrbvs	r7, [r4, #-873]!	; 0xfffffc97
    1b60:	6c6f6e6e 	stclvs	14, cr6, [pc], #-440	; 19b0 <__code_start__-0x6650>
    1b64:	6e616d6c 	cdpvs	13, 6, cr6, cr1, cr12, {3}
    1b68:	636f442f 	cmnvs	pc, #788529152	; 0x2f000000
    1b6c:	6e656d75 	mcrvs	13, 3, r6, cr5, cr5, {3}
    1b70:	532f7374 			; <UNDEFINED> instruction: 0x532f7374
    1b74:	6e697270 	mcrvs	2, 3, r7, cr9, cr0, {3}
    1b78:	75515f67 	ldrbvc	r5, [r1, #-3943]	; 0xfffff099
    1b7c:	65747261 	ldrbvs	r7, [r4, #-609]!	; 0xfffffd9f
    1b80:	30325f72 	eorscc	r5, r2, r2, ror pc
    1b84:	432f3232 			; <UNDEFINED> instruction: 0x432f3232
    1b88:	30343253 	eorscc	r3, r4, r3, asr r2
    1b8c:	732d584c 			; <UNDEFINED> instruction: 0x732d584c
    1b90:	32327270 	eorscc	r7, r2, #112, 4
    1b94:	696c2f2f 	stmdbvs	ip!, {r0, r1, r2, r3, r5, r8, r9, sl, fp, sp}^
    1b98:	2f697062 	svccs	0x00697062
    1b9c:	6c636e69 	stclvs	14, cr6, [r3], #-420	; 0xfffffe5c
    1ba0:	00656475 	rsbeq	r6, r5, r5, ror r4
    1ba4:	66656400 	strbtvs	r6, [r5], -r0, lsl #8
    1ba8:	746c7561 	strbtvc	r7, [ip], #-1377	; 0xfffffa9f
    1bac:	6265722d 	rsbvs	r7, r5, #-805306366	; 0xd0000002
    1bb0:	2d746f6f 	ldclcs	15, cr6, [r4, #-444]!	; 0xfffffe44
    1bb4:	6c6c6163 	stfvse	f6, [ip], #-396	; 0xfffffe74
    1bb8:	2e74756f 	cdpcs	5, 7, cr7, cr4, cr15, {3}
    1bbc:	00010063 	andeq	r0, r1, r3, rrx
    1bc0:	69707200 	ldmdbvs	r0!, {r9, ip, sp, lr}^
    1bc4:	0200682e 	andeq	r6, r0, #3014656	; 0x2e0000
    1bc8:	05000000 	streq	r0, [r0, #-0]
    1bcc:	0205001b 	andeq	r0, r5, #27, 0
    1bd0:	000096e0 	andeq	r9, r0, r0, ror #13
    1bd4:	011c0514 	tsteq	ip, r4, lsl r5
    1bd8:	01060105 	tsteq	r6, r5, lsl #2
    1bdc:	01000202 	tsteq	r0, r2, lsl #4
    1be0:	Address 0x0000000000001be0 is out of bounds.


Disassembly of section .debug_str:

00000000 <.debug_str>:
   0:	5f79656b 	svcpl	0x0079656b
   4:	735f6f74 	cmpvc	pc, #116, 30	; 0x1d0
   8:	73007274 	movwvc	r7, #628	; 0x274
   c:	74726f68 	ldrbtvc	r6, [r2], #-3944	; 0xfffff098
  10:	746e6920 	strbtvc	r6, [lr], #-2336	; 0xfffff6e0
  14:	72756300 	rsbsvc	r6, r5, #0, 6
  18:	69625f72 	stmdbvs	r2!, {r1, r4, r5, r6, r8, r9, sl, fp, ip, lr}^
  1c:	73690074 	cmnvc	r9, #116, 0	; 0x74
  20:	6165685f 	cmnvs	r5, pc, asr r8
  24:	00726564 	rsbseq	r6, r2, r4, ror #10
  28:	5f697072 	svcpl	0x00697072
  2c:	63747570 	cmnvs	r4, #112, 10	; 0x1c000000
  30:	00726168 	rsbseq	r6, r2, r8, ror #2
  34:	706f7374 	rsbvc	r7, pc, r4, ror r3	; <UNPREDICTABLE>
  38:	696e695f 	stmdbvs	lr!, {r0, r1, r2, r3, r4, r6, r8, fp, sp, lr}^
  3c:	65720074 	ldrbvs	r0, [r2, #-116]!	; 0xffffff8c
  40:	775f6461 	ldrbvc	r6, [pc, -r1, ror #8]
  44:	656c6968 	strbvs	r6, [ip, #-2408]!	; 0xfffff698
  48:	0071655f 	rsbseq	r6, r1, pc, asr r5
  4c:	75746361 	ldrbvc	r6, [r4, #-865]!	; 0xfffffc9f
  50:	73006c61 	movwvc	r6, #3169	; 0xc61
  54:	5f70696b 	svcpl	0x0070696b
  58:	00707865 	rsbseq	r7, r0, r5, ror #16
  5c:	5f6d756e 	svcpl	0x006d756e
  60:	64616572 	strbtvs	r6, [r1], #-1394	; 0xfffffa8e
  64:	73676e69 	cmnvc	r7, #1680	; 0x690
  68:	70786500 	rsbsvc	r6, r8, r0, lsl #10
  6c:	65746365 	ldrbvs	r6, [r4, #-869]!	; 0xfffffc9b
  70:	00765f64 	rsbseq	r5, r6, r4, ror #30
  74:	68746977 	ldmdavs	r4!, {r0, r1, r2, r4, r5, r6, r8, fp, sp, lr}^
  78:	6c006e69 	stcvs	14, cr6, [r0], {105}	; 0x69
  7c:	20676e6f 	rsbcs	r6, r7, pc, ror #28
  80:	676e6f6c 	strbvs	r6, [lr, -ip, ror #30]!
  84:	746e6920 	strbtvc	r6, [lr], #-2336	; 0xfffff6e0
  88:	74656700 	strbtvc	r6, [r5], #-1792	; 0xfffff900
  8c:	6165725f 	cmnvs	r5, pc, asr r2
  90:	676e6964 	strbvs	r6, [lr, -r4, ror #18]!
  94:	70670073 	rsbvc	r0, r7, r3, ror r0
  98:	735f6f69 	cmpvc	pc, #420	; 0x1a4
  9c:	705f7465 	subsvc	r7, pc, r5, ror #8
  a0:	756c6c75 	strbvc	r6, [ip, #-3189]!	; 0xfffff38b
  a4:	69700070 	ldmdbvs	r0!, {r4, r5, r6}^
  a8:	5f006b63 	svcpl	0x00006b63
  ac:	4e55465f 	mrcmi	6, 2, r4, cr5, cr15, {2}
  b0:	4f495443 	svcmi	0x00495443
  b4:	005f5f4e 	subseq	r5, pc, lr, asr #30
  b8:	735f7369 	cmpvc	pc, #-1543503871	; 0xa4000001
  bc:	0070696b 	rsbseq	r6, r0, fp, ror #18
  c0:	64616568 	strbtvs	r6, [r1], #-1384	; 0xfffffa98
  c4:	655f7265 	ldrbvs	r7, [pc, #-613]	; fffffe67 <__bss_end__+0xffff5727>
  c8:	63007078 	movwvs	r7, #120	; 0x78
  cc:	6e61656c 	cdpvs	5, 6, cr6, cr1, cr12, {3}
  d0:	6265725f 	rsbvs	r7, r5, #-268435451	; 0xf0000005
  d4:	00746f6f 	rsbseq	r6, r4, pc, ror #30
  d8:	69736e75 	ldmdbvs	r3!, {r0, r2, r4, r5, r6, r9, sl, fp, sp, lr}^
  dc:	64656e67 	strbtvs	r6, [r5], #-3687	; 0xfffff199
  e0:	61686320 	cmnvs	r8, r0, lsr #6
  e4:	70670072 	rsbvc	r0, r7, r2, ror r0
  e8:	725f6f69 	subsvc	r6, pc, #420	; 0x1a4
  ec:	00646165 	rsbeq	r6, r4, r5, ror #2
  f0:	655f7269 	ldrbvs	r7, [pc, #-617]	; fffffe8f <__bss_end__+0xffff574f>
  f4:	6c007370 	stcvs	3, cr7, [r0], {112}	; 0x70
  f8:	20676e6f 	rsbcs	r6, r7, pc, ror #28
  fc:	676e6f6c 	strbvs	r6, [lr, -ip, ror #30]!
 100:	736e7520 	cmnvc	lr, #32, 10	; 0x8000000
 104:	656e6769 	strbvs	r6, [lr, #-1897]!	; 0xfffff897
 108:	6e692064 	cdpvs	0, 6, cr2, cr9, cr4, {3}
 10c:	6f6e0074 	svcvs	0x006e0074
 110:	69616d74 	stmdbvs	r1!, {r2, r4, r5, r6, r8, sl, fp, sp, lr}^
 114:	6873006e 	ldmdavs	r3!, {r1, r2, r3, r5, r6}^
 118:	2074726f 	rsbscs	r7, r4, pc, ror #4
 11c:	69736e75 	ldmdbvs	r3!, {r0, r2, r4, r5, r6, r9, sl, fp, sp, lr}^
 120:	64656e67 	strbtvs	r6, [r5], #-3687	; 0xfffff199
 124:	746e6920 	strbtvc	r6, [lr], #-2336	; 0xfffff6e0
 128:	6e6f6300 	cdpvs	3, 6, cr6, cr15, cr0, {0}
 12c:	74726576 	ldrbtvc	r6, [r2], #-1398	; 0xfffffa8a
 130:	63656e5f 	cmnvs	r5, #1520	; 0x5f0
 134:	6d657200 	sfmvs	f7, 2, [r5, #-0]
 138:	5f65746f 	svcpl	0x0065746f
 13c:	65707974 	ldrbvs	r7, [r0, #-2420]!	; 0xfffff68c
 140:	554e4700 	strbpl	r4, [lr, #-1792]	; 0xfffff900
 144:	39394320 	ldmdbcc	r9!, {r5, r8, r9, lr}
 148:	322e3920 	eorcc	r3, lr, #32, 18	; 0x80000
 14c:	3220312e 	eorcc	r3, r0, #-2147483637	; 0x8000000b
 150:	31393130 	teqcc	r9, r0, lsr r1
 154:	20353230 	eorscs	r3, r5, r0, lsr r2
 158:	6c657228 	sfmvs	f7, 2, [r5], #-160	; 0xffffff60
 15c:	65736165 	ldrbvs	r6, [r3, #-357]!	; 0xfffffe9b
 160:	415b2029 	cmpmi	fp, r9, lsr #32
 164:	612f4d52 			; <UNDEFINED> instruction: 0x612f4d52
 168:	392d6d72 	pushcc	{r1, r4, r5, r6, r8, sl, fp, sp, lr}
 16c:	6172622d 	cmnvs	r2, sp, lsr #4
 170:	2068636e 	rsbcs	r6, r8, lr, ror #6
 174:	69766572 	ldmdbvs	r6!, {r1, r4, r5, r6, r8, sl, sp, lr}^
 178:	6e6f6973 			; <UNDEFINED> instruction: 0x6e6f6973
 17c:	37373220 	ldrcc	r3, [r7, -r0, lsr #4]!
 180:	5d393935 			; <UNDEFINED> instruction: 0x5d393935
 184:	636d2d20 	cmnvs	sp, #32, 26	; 0x800
 188:	613d7570 	teqvs	sp, r0, ror r5
 18c:	31316d72 	teqcc	r1, r2, ror sp
 190:	7a6a3637 	bvc	1a8da74 <__bss_end__+0x1a83334>
 194:	20732d66 	rsbscs	r2, r3, r6, ror #26
 198:	75746d2d 	ldrbvc	r6, [r4, #-3373]!	; 0xfffff2d3
 19c:	613d656e 	teqvs	sp, lr, ror #10
 1a0:	31316d72 	teqcc	r1, r2, ror sp
 1a4:	7a6a3637 	bvc	1a8da88 <__bss_end__+0x1a83348>
 1a8:	20732d66 	rsbscs	r2, r3, r6, ror #26
 1ac:	6c666d2d 	stclvs	13, cr6, [r6], #-180	; 0xffffff4c
 1b0:	2d74616f 	ldfcse	f6, [r4, #-444]!	; 0xfffffe44
 1b4:	3d696261 	sfmcc	f6, 2, [r9, #-388]!	; 0xfffffe7c
 1b8:	74666f73 	strbtvc	r6, [r6], #-3955	; 0xfffff08d
 1bc:	616d2d20 	cmnvs	sp, r0, lsr #26
 1c0:	2d206d72 	stccs	13, cr6, [r0, #-456]!	; 0xfffffe38
 1c4:	6372616d 	cmnvs	r2, #1073741851	; 0x4000001b
 1c8:	72613d68 	rsbvc	r3, r1, #104, 26	; 0x1a00
 1cc:	6b36766d 	blvs	d9db88 <__bss_end__+0xd93448>
 1d0:	672d207a 			; <UNDEFINED> instruction: 0x672d207a
 1d4:	20626467 	rsbcs	r6, r2, r7, ror #8
 1d8:	20674f2d 	rsbcs	r4, r7, sp, lsr #30
 1dc:	6474732d 	ldrbtvs	r7, [r4], #-813	; 0xfffffcd3
 1e0:	756e673d 	strbvc	r6, [lr, #-1853]!	; 0xfffff8c3
 1e4:	2d203939 			; <UNDEFINED> instruction: 0x2d203939
 1e8:	65726666 	ldrbvs	r6, [r2, #-1638]!	; 0xfffff99a
 1ec:	61747365 	cmnvs	r4, r5, ror #6
 1f0:	6e69646e 	cdpvs	4, 6, cr6, cr9, cr14, {3}
 1f4:	72700067 	rsbsvc	r0, r0, #103, 0	; 0x67
 1f8:	5f746e69 	svcpl	0x00746e69
 1fc:	64616572 	strbtvs	r6, [r1], #-1394	; 0xfffffa8e
 200:	73676e69 	cmnvc	r7, #1680	; 0x690
 204:	70786500 	rsbsvc	r6, r8, r0, lsl #10
 208:	65746365 	ldrbvs	r6, [r4, #-869]!	; 0xfffffc9b
 20c:	6f630064 	svcvs	0x00630064
 210:	7265766e 	rsbvc	r7, r5, #115343360	; 0x6e00000
 214:	65675f74 	strbvs	r5, [r7, #-3956]!	; 0xfffff08c
 218:	6972656e 	ldmdbvs	r2!, {r1, r2, r3, r5, r6, r8, sl, sp, lr}^
 21c:	552f0063 	strpl	r0, [pc, #-99]!	; 1c1 <__code_start__-0x7e3f>
 220:	73726573 	cmnvc	r2, #482344960	; 0x1cc00000
 224:	6972742f 	ldmdbvs	r2!, {r0, r1, r2, r3, r5, sl, ip, sp, lr}^
 228:	6e657473 	mcrvs	4, 3, r7, cr5, cr3, {3}
 22c:	6c6c6f6e 	stclvs	15, cr6, [ip], #-440	; 0xfffffe48
 230:	2f6e616d 	svccs	0x006e616d
 234:	75636f44 	strbvc	r6, [r3, #-3908]!	; 0xfffff0bc
 238:	746e656d 	strbtvc	r6, [lr], #-1389	; 0xfffffa93
 23c:	70532f73 	subsvc	r2, r3, r3, ror pc
 240:	676e6972 			; <UNDEFINED> instruction: 0x676e6972
 244:	6175515f 	cmnvs	r5, pc, asr r1
 248:	72657472 	rsbvc	r7, r5, #1912602624	; 0x72000000
 24c:	3230325f 	eorscc	r3, r0, #-268435451	; 0xf0000005
 250:	53432f32 	movtpl	r2, #16178	; 0x3f32
 254:	4c303432 	cfldrsmi	mvf3, [r0], #-200	; 0xffffff38
 258:	70732d58 	rsbsvc	r2, r3, r8, asr sp
 25c:	2f323272 	svccs	0x00323272
 260:	7362616c 	cmnvc	r2, #27
 264:	692d322f 	pushvs	{r0, r1, r2, r3, r5, r9, ip, sp}
 268:	6f632f72 	svcvs	0x00632f72
 26c:	6f006564 	svcvs	0x00006564
 270:	655f656e 	ldrbvs	r6, [pc, #-1390]	; fffffd0a <__bss_end__+0xffff55ca>
 274:	70007078 	andvc	r7, r0, r8, ror r0
 278:	7265776f 	rsbvc	r7, r5, #29097984	; 0x1bc0000
 27c:	6e74625f 	mrcvs	2, 3, r6, cr4, cr15, {2}
 280:	6f737400 	svcvs	0x00737400
 284:	00632e70 	rsbeq	r2, r3, r0, ror lr
 288:	53494f4e 	movtpl	r4, #40782	; 0x9f4e
 28c:	657a0045 	ldrbvs	r0, [sl, #-69]!	; 0xffffffbb
 290:	655f6f72 	ldrbvs	r6, [pc, #-3954]	; fffff326 <__bss_end__+0xffff4be6>
 294:	74007078 	strvc	r7, [r0], #-120	; 0xffffff88
 298:	72656d69 	rsbvc	r6, r5, #6720	; 0x1a40
 29c:	7465675f 	strbtvc	r6, [r5], #-1887	; 0xfffff8a1
 2a0:	6573755f 	ldrbvs	r7, [r3, #-1375]!	; 0xfffffaa1
 2a4:	69740063 	ldmdbvs	r4!, {r0, r1, r5, r6}^
 2a8:	756f656d 	strbvc	r6, [pc, #-1389]!	; fffffd43 <__bss_end__+0xffff5603>
 2ac:	72610074 	rsbvc	r0, r1, #116, 0	; 0x74
 2b0:	76007367 	strvc	r7, [r0], -r7, ror #6
 2b4:	72705f61 	rsbsvc	r5, r0, #388	; 0x184
 2b8:	6b746e69 	blvs	1d1bc64 <__bss_end__+0x1d11524>
 2bc:	675f5f00 	ldrbvs	r5, [pc, -r0, lsl #30]
 2c0:	5f63756e 	svcpl	0x0063756e
 2c4:	6c5f6176 	ldfvse	f6, [pc], {118}	; 0x76
 2c8:	00747369 	rsbseq	r7, r4, r9, ror #6
 2cc:	61765f5f 	cmnvs	r6, pc, asr pc
 2d0:	73696c5f 	cmnvc	r9, #24320	; 0x5f00
 2d4:	5f5f0074 	svcpl	0x005f0074
 2d8:	2e007061 	cdpcs	0, 0, cr7, cr0, cr1, {3}
 2dc:	62696c2f 	rsbvs	r6, r9, #12032	; 0x2f00
 2e0:	72702f63 	rsbsvc	r2, r0, #396	; 0x18c
 2e4:	6b746e69 	blvs	1d1bc90 <__bss_end__+0x1d11550>
 2e8:	2f00632e 	svccs	0x0000632e
 2ec:	72657355 	rsbvc	r7, r5, #1409286145	; 0x54000001
 2f0:	72742f73 	rsbsvc	r2, r4, #460	; 0x1cc
 2f4:	65747369 	ldrbvs	r7, [r4, #-873]!	; 0xfffffc97
 2f8:	6c6f6e6e 	stclvs	14, cr6, [pc], #-440	; 148 <__code_start__-0x7eb8>
 2fc:	6e616d6c 	cdpvs	13, 6, cr6, cr1, cr12, {3}
 300:	636f442f 	cmnvs	pc, #788529152	; 0x2f000000
 304:	6e656d75 	mcrvs	13, 3, r6, cr5, cr5, {3}
 308:	532f7374 			; <UNDEFINED> instruction: 0x532f7374
 30c:	6e697270 	mcrvs	2, 3, r7, cr9, cr0, {3}
 310:	75515f67 	ldrbvc	r5, [r1, #-3943]	; 0xfffff099
 314:	65747261 	ldrbvs	r7, [r4, #-609]!	; 0xfffffd9f
 318:	30325f72 	eorscc	r5, r2, r2, ror pc
 31c:	432f3232 			; <UNDEFINED> instruction: 0x432f3232
 320:	30343253 	eorscc	r3, r4, r3, asr r2
 324:	732d584c 			; <UNDEFINED> instruction: 0x732d584c
 328:	32327270 	eorscc	r7, r2, #112, 4
 32c:	62696c2f 	rsbvs	r6, r9, #12032	; 0x2f00
 330:	69006970 	stmdbvs	r0, {r4, r5, r6, r8, fp, sp, lr}
 334:	7265746e 	rsbvc	r7, r5, #1845493760	; 0x6e000000
 338:	5f6c616e 	svcpl	0x006c616e
 33c:	6b747570 	blvs	1d1d904 <__bss_end__+0x1d131c4>
 340:	6c2f2e00 	stcvs	14, cr2, [pc], #-0	; 348 <__code_start__-0x7cb8>
 344:	2f636269 	svccs	0x00636269
 348:	6b747570 	blvs	1d1d910 <__bss_end__+0x1d131d0>
 34c:	6900632e 	stmdbvs	r0, {r1, r2, r3, r5, r8, r9, sp, lr}
 350:	67696473 			; <UNDEFINED> instruction: 0x67696473
 354:	75007469 	strvc	r7, [r0, #-1129]	; 0xfffffb97
 358:	36746e69 	ldrbtcc	r6, [r4], -r9, ror #28
 35c:	00745f34 	rsbseq	r5, r4, r4, lsr pc
 360:	696c2f2e 	stmdbvs	ip!, {r1, r2, r3, r5, r8, r9, sl, fp, sp}^
 364:	762f6362 	strtvc	r6, [pc], -r2, ror #6
 368:	72702d61 	rsbsvc	r2, r0, #6208	; 0x1840
 36c:	6b746e69 	blvs	1d1bd18 <__bss_end__+0x1d115d8>
 370:	5f00632e 	svcpl	0x0000632e
 374:	646f635f 	strbtvs	r6, [pc], #-863	; 37c <__code_start__-0x7c84>
 378:	74735f65 	ldrbtvc	r5, [r3], #-3941	; 0xfffff09b
 37c:	5f747261 	svcpl	0x00747261
 380:	5f5f005f 	svcpl	0x005f005f
 384:	5f737362 	svcpl	0x00737362
 388:	72617473 	rsbvc	r7, r1, #1929379840	; 0x73000000
 38c:	005f5f74 	subseq	r5, pc, r4, ror pc	; <UNPREDICTABLE>
 390:	74646977 	strbtvc	r6, [r4], #-2423	; 0xfffff689
 394:	5f5f0068 	svcpl	0x005f0068
 398:	61746164 	cmnvs	r4, r4, ror #2
 39c:	646e655f 	strbtvs	r6, [lr], #-1375	; 0xfffffaa1
 3a0:	70005f5f 	andvc	r5, r0, pc, asr pc
 3a4:	5f637475 	svcpl	0x00637475
 3a8:	5f007066 	svcpl	0x00007066
 3ac:	7373625f 	cmnvc	r3, #-268435451	; 0xf0000005
 3b0:	646e655f 	strbtvs	r6, [lr], #-1375	; 0xfffffaa1
 3b4:	5f005f5f 	svcpl	0x00005f5f
 3b8:	6165685f 	cmnvs	r5, pc, asr r8
 3bc:	74735f70 	ldrbtvc	r5, [r3], #-3952	; 0xfffff090
 3c0:	5f747261 	svcpl	0x00747261
 3c4:	6975005f 	ldmdbvs	r5!, {r0, r1, r2, r3, r4, r6}^
 3c8:	3233746e 	eorscc	r7, r3, #1845493760	; 0x6e000000
 3cc:	7200745f 	andvc	r7, r0, #1593835520	; 0x5f000000
 3d0:	735f6970 	cmpvc	pc, #112, 18	; 0x1c0000
 3d4:	6f5f7465 	svcvs	0x005f7465
 3d8:	75707475 	ldrbvc	r7, [r0, #-1141]!	; 0xfffffb8b
 3dc:	6d660074 	stclvs	0, cr0, [r6, #-464]!	; 0xfffffe30
 3e0:	74735f74 	ldrbtvc	r5, [r3], #-3956	; 0xfffff08c
 3e4:	00747261 	rsbseq	r7, r4, r1, ror #4
 3e8:	63727473 	cmnvs	r2, #1929379840	; 0x73000000
 3ec:	73007461 	movwvc	r7, #1121	; 0x461
 3f0:	70637274 	rsbvc	r7, r3, r4, ror r2
 3f4:	656e0079 	strbvs	r0, [lr, #-121]!	; 0xffffff87
 3f8:	00705f67 	rsbseq	r5, r0, r7, ror #30
 3fc:	6f635f5f 	svcvs	0x00635f5f
 400:	655f6564 	ldrbvs	r6, [pc, #-1380]	; fffffea4 <__bss_end__+0xffff5764>
 404:	5f5f646e 	svcpl	0x005f646e
 408:	696d6500 	stmdbvs	sp!, {r8, sl, sp, lr}^
 40c:	75700074 	ldrbvc	r0, [r0, #-116]!	; 0xffffff8c
 410:	665f7374 			; <UNDEFINED> instruction: 0x665f7374
 414:	65720070 	ldrbvs	r0, [r2, #-112]!	; 0xffffff90
 418:	73726576 	cmnvc	r2, #494927872	; 0x1d800000
 41c:	74730065 	ldrbtvc	r0, [r3], #-101	; 0xffffff9b
 420:	706d6372 	rsbvc	r6, sp, r2, ror r3
 424:	645f5f00 	ldrbvs	r5, [pc], #-3840	; 42c <__code_start__-0x7bd4>
 428:	5f617461 	svcpl	0x00617461
 42c:	72617473 	rsbvc	r7, r1, #1929379840	; 0x73000000
 430:	005f5f74 	subseq	r5, pc, r4, ror pc	; <UNPREDICTABLE>
 434:	72705f5f 	rsbsvc	r5, r0, #380	; 0x17c
 438:	655f676f 	ldrbvs	r6, [pc, #-1903]	; fffffcd1 <__bss_end__+0xffff5591>
 43c:	5f5f646e 	svcpl	0x005f646e
 440:	6d756e00 	ldclvs	14, cr6, [r5, #-0]
 444:	74730031 	ldrbtvc	r0, [r3], #-49	; 0xffffffcf
 448:	6d636e72 	stclvs	14, cr6, [r3, #-456]!	; 0xfffffe38
 44c:	61620070 	smcvs	8192	; 0x2000
 450:	73006573 	movwvc	r6, #1395	; 0x573
 454:	656e6769 	strbvs	r6, [lr, #-1897]!	; 0xfffff897
 458:	00705f64 	rsbseq	r5, r0, r4, ror #30
 45c:	5f697072 	svcpl	0x00697072
 460:	6f626572 	svcvs	0x00626572
 464:	6400746f 	strvs	r7, [r0], #-1135	; 0xfffffb91
 468:	79616c65 	stmdbvc	r1!, {r0, r2, r5, r6, sl, fp, sp, lr}^
 46c:	00736d5f 	rsbseq	r6, r3, pc, asr sp
 470:	74732f2e 	ldrbtvc	r2, [r3], #-3886	; 0xfffff0d2
 474:	2d666661 	stclcs	6, cr6, [r6, #-388]!	; 0xfffffe7c
 478:	2f637273 	svccs	0x00637273
 47c:	61656c63 	cmnvs	r5, r3, ror #24
 480:	65722d6e 	ldrbvs	r2, [r2, #-3438]!	; 0xfffff292
 484:	746f6f62 	strbtvc	r6, [pc], #-3938	; 48c <__code_start__-0x7b74>
 488:	7500632e 	strvc	r6, [r0, #-814]	; 0xfffffcd2
 48c:	5f747261 	svcpl	0x00747261
 490:	73756c66 	cmnvc	r5, #26112	; 0x6600
 494:	78745f68 	ldmdavc	r4!, {r3, r5, r6, r8, r9, sl, fp, ip, lr}^
 498:	73635f00 	cmnvc	r3, #0, 30
 49c:	74726174 	ldrbtvc	r6, [r2], #-372	; 0xfffffe8c
 4a0:	73736200 	cmnvc	r3, #0, 4
 4a4:	646e655f 	strbtvs	r6, [lr], #-1375	; 0xfffffaa1
 4a8:	72617500 	rsbvc	r7, r1, #0, 10
 4ac:	6e695f74 	mcrvs	15, 3, r5, cr9, cr4, {3}
 4b0:	63007469 	movwvs	r7, #1129	; 0x469
 4b4:	6f747375 	svcvs	0x00747375
 4b8:	6f6c5f6d 	svcvs	0x006c5f6d
 4bc:	72656461 	rsbvc	r6, r5, #1627389952	; 0x61000000
 4c0:	732f2e00 			; <UNDEFINED> instruction: 0x732f2e00
 4c4:	66666174 			; <UNDEFINED> instruction: 0x66666174
 4c8:	6372732d 	cmnvs	r2, #-1275068416	; 0xb4000000
 4cc:	7473632f 	ldrbtvc	r6, [r3], #-815	; 0xfffffcd1
 4d0:	2e747261 	cdpcs	2, 7, cr7, cr4, cr1, {3}
 4d4:	2f2e0063 	svccs	0x002e0063
 4d8:	66617473 			; <UNDEFINED> instruction: 0x66617473
 4dc:	72732d66 	rsbsvc	r2, r3, #6528	; 0x1980
 4e0:	75632f63 	strbvc	r2, [r3, #-3939]!	; 0xfffff09d
 4e4:	6d6f7473 	cfstrdvs	mvd7, [pc, #-460]!	; 320 <__code_start__-0x7ce0>
 4e8:	616f6c2d 	cmnvs	pc, sp, lsr #24
 4ec:	2e726564 	cdpcs	5, 7, cr6, cr2, cr4, {3}
 4f0:	65720063 	ldrbvs	r0, [r2, #-99]!	; 0xffffff9d
 4f4:	746f6f62 	strbtvc	r6, [pc], #-3938	; 4fc <__code_start__-0x7b04>
 4f8:	6c61635f 	stclvs	3, cr6, [r1], #-380	; 0xfffffe84
 4fc:	74756f6c 	ldrbtvc	r6, [r5], #-3948	; 0xfffff094
 500:	5f4d5000 	svcpl	0x004d5000
 504:	474f4457 	smlsldmi	r4, pc, r7, r4	; <UNPREDICTABLE>
 508:	54555000 	ldrbpl	r5, [r5], #-0
 50c:	73003233 	movwvc	r3, #563	; 0x233
 510:	755f7465 	ldrbvc	r7, [pc, #-1125]	; b3 <__code_start__-0x7f4d>
 514:	5f726573 	svcpl	0x00726573
 518:	6576656c 	ldrbvs	r6, [r6, #-1388]!	; 0xfffffa94
 51c:	2f2e006c 	svccs	0x002e006c
 520:	66617473 			; <UNDEFINED> instruction: 0x66617473
 524:	72732d66 	rsbsvc	r2, r3, #6528	; 0x1980
 528:	65722f63 	ldrbvs	r2, [r2, #-3939]!	; 0xfffff09d
 52c:	746f6f62 	strbtvc	r6, [pc], #-3938	; 534 <__code_start__-0x7acc>
 530:	5000632e 	andpl	r6, r0, lr, lsr #6
 534:	41505f4d 	cmpmi	r0, sp, asr #30
 538:	4f575353 	svcmi	0x00575353
 53c:	61004452 	tstvs	r0, r2, asr r4
 540:	73755f74 	cmnvc	r5, #116, 30	; 0x1d0
 544:	6c5f7265 	lfmvs	f7, 2, [pc], {101}	; 0x65
 548:	6c657665 	stclvs	6, cr7, [r5], #-404	; 0xfffffe6c
 54c:	5f4d5000 	svcpl	0x004d5000
 550:	43545352 	cmpmi	r4, #1207959553	; 0x48000001
 554:	4352575f 	cmpmi	r2, #24903680	; 0x17c0000
 558:	465f4746 	ldrbmi	r4, [pc], -r6, asr #14
 55c:	5f4c4c55 	svcpl	0x004c4c55
 560:	45534552 	ldrbmi	r4, [r3, #-1362]	; 0xfffffaae
 564:	4d500054 	ldclmi	0, cr0, [r0, #-336]	; 0xfffffeb0
 568:	5453525f 	ldrbpl	r5, [r3], #-607	; 0xfffffda1
 56c:	70630043 	rsbvc	r0, r3, r3, asr #32
 570:	64007273 	strvs	r7, [r0], #-627	; 0xfffffd8d
 574:	625f7665 	subsvs	r7, pc, #105906176	; 0x6500000
 578:	69727261 	ldmdbvs	r2!, {r0, r5, r6, r9, ip, sp, lr}^
 57c:	64007265 	strvs	r7, [r0], #-613	; 0xfffffd9b
 580:	79616c65 	stmdbvc	r1!, {r0, r2, r5, r6, sl, fp, sp, lr}^
 584:	6365735f 	cmnvs	r5, #2080374785	; 0x7c000001
 588:	732f2e00 			; <UNDEFINED> instruction: 0x732f2e00
 58c:	66666174 			; <UNDEFINED> instruction: 0x66666174
 590:	6372732d 	cmnvs	r2, #-1275068416	; 0xb4000000
 594:	6d69742f 	cfstrdvs	mvd7, [r9, #-188]!	; 0xffffff44
 598:	632e7265 			; <UNDEFINED> instruction: 0x632e7265
 59c:	54454700 	strbpl	r4, [r5], #-1792	; 0xfffff900
 5a0:	64003233 	strvs	r3, [r0], #-563	; 0xfffffdcd
 5a4:	79616c65 	stmdbvc	r1!, {r0, r2, r5, r6, sl, fp, sp, lr}^
 5a8:	0073755f 	rsbseq	r7, r3, pc, asr r5
 5ac:	656d6974 	strbvs	r6, [sp, #-2420]!	; 0xfffff68c
 5b0:	65675f72 	strbvs	r5, [r7, #-3954]!	; 0xfffff08e
 5b4:	73755f74 	cmnvc	r5, #116, 30	; 0x1d0
 5b8:	725f6365 	subsvc	r6, pc, #-1811939327	; 0x94000001
 5bc:	67007761 	strvs	r7, [r0, -r1, ror #14]
 5c0:	5f6f6970 	svcpl	0x006f6970
 5c4:	30726c63 	rsbscc	r6, r2, r3, ror #24
 5c8:	69706700 	ldmdbvs	r0!, {r8, r9, sl, sp, lr}^
 5cc:	65735f6f 	ldrbvs	r5, [r3, #-3951]!	; 0xfffff091
 5d0:	67003074 	smlsdxvs	r0, r4, r0, r3
 5d4:	5f6f6970 	svcpl	0x006f6970
 5d8:	74697277 	strbtvc	r7, [r9], #-631	; 0xfffffd89
 5dc:	50470065 	subpl	r0, r7, r5, rrx
 5e0:	465f4f49 	ldrbmi	r4, [pc], -r9, asr #30
 5e4:	5f434e55 	svcpl	0x00434e55
 5e8:	5054554f 	subspl	r5, r4, pc, asr #10
 5ec:	44005455 	strmi	r5, [r0], #-1109	; 0xfffffbab
 5f0:	565f5645 	ldrbpl	r5, [pc], -r5, asr #12
 5f4:	32334c41 	eorscc	r4, r3, #16640	; 0x4100
 5f8:	49504700 	ldmdbmi	r0, {r8, r9, sl, lr}^
 5fc:	55465f4f 	strbpl	r5, [r6, #-3919]	; 0xfffff0b1
 600:	415f434e 	cmpmi	pc, lr, asr #6
 604:	0030544c 	eorseq	r5, r0, ip, asr #8
 608:	4f495047 	svcmi	0x00495047
 60c:	4e55465f 	mrcmi	6, 2, r4, cr5, cr15, {2}
 610:	4c415f43 	mcrrmi	15, 4, r5, r1, cr3
 614:	47003154 	smlsdmi	r0, r4, r1, r3
 618:	5f4f4950 	svcpl	0x004f4950
 61c:	434e5546 	movtmi	r5, #58694	; 0xe546
 620:	544c415f 	strbpl	r4, [ip], #-351	; 0xfffffea1
 624:	50470032 	subpl	r0, r7, r2, lsr r0
 628:	465f4f49 	ldrbmi	r4, [pc], -r9, asr #30
 62c:	5f434e55 	svcpl	0x00434e55
 630:	33544c41 	cmpcc	r4, #16640	; 0x4100
 634:	49504700 	ldmdbmi	r0, {r8, r9, sl, lr}^
 638:	55465f4f 	strbpl	r5, [r6, #-3919]	; 0xfffff0b1
 63c:	415f434e 	cmpmi	pc, lr, asr #6
 640:	0035544c 	eorseq	r5, r5, ip, asr #8
 644:	6f697067 	svcvs	0x00697067
 648:	7465735f 	strbtvc	r7, [r5], #-863	; 0xfffffca1
 64c:	706e695f 	rsbvc	r6, lr, pc, asr r9
 650:	2f007475 	svccs	0x00007475
 654:	656d6f68 	strbvs	r6, [sp, #-3944]!	; 0xfffff098
 658:	676e652f 	strbvs	r6, [lr, -pc, lsr #10]!
 65c:	2f72656c 	svccs	0x0072656c
 660:	73616c63 	cmnvc	r1, #25344	; 0x6300
 664:	73632f73 	cmnvc	r3, #460	; 0x1cc
 668:	6c303432 	cfldrsvs	mvf3, [r0], #-200	; 0xffffff38
 66c:	32322d78 	eorscc	r2, r2, #120, 26	; 0x1e00
 670:	2f727073 	svccs	0x00727073
 674:	7062696c 	rsbvc	r6, r2, ip, ror #18
 678:	74732f69 	ldrbtvc	r2, [r3], #-3945	; 0xfffff097
 67c:	2d666661 	stclcs	6, cr6, [r6, #-388]!	; 0xfffffe7c
 680:	76697270 			; <UNDEFINED> instruction: 0x76697270
 684:	00657461 	rsbeq	r7, r5, r1, ror #8
 688:	6f697067 	svcvs	0x00697067
 68c:	7465735f 	strbtvc	r7, [r5], #-863	; 0xfffffca1
 690:	66666f5f 	uqsaxvs	r6, r6, pc	; <UNPREDICTABLE>
 694:	69706700 	ldmdbvs	r0!, {r8, r9, sl, sp, lr}^
 698:	65735f6f 	ldrbvs	r5, [r3, #-3951]!	; 0xfffff091
 69c:	756f5f74 	strbvc	r5, [pc, #-3956]!	; fffff730 <__bss_end__+0xffff4ff0>
 6a0:	74757074 	ldrbtvc	r7, [r5], #-116	; 0xffffff8c
 6a4:	6e756600 	cdpvs	6, 7, cr6, cr5, cr0, {0}
 6a8:	70670063 	rsbvc	r0, r7, r3, rrx
 6ac:	665f6f69 	ldrbvs	r6, [pc], -r9, ror #30
 6b0:	5f636e75 	svcpl	0x00636e75
 6b4:	4e470074 	mcrmi	0, 2, r0, cr7, cr4, {3}
 6b8:	39432055 	stmdbcc	r3, {r0, r2, r4, r6, sp}^
 6bc:	30312039 	eorscc	r2, r1, r9, lsr r0
 6c0:	312e332e 			; <UNDEFINED> instruction: 0x312e332e
 6c4:	32303220 	eorscc	r3, r0, #32, 4
 6c8:	32383031 	eorscc	r3, r8, #49, 0	; 0x31
 6cc:	72282034 	eorvc	r2, r8, #52, 0	; 0x34
 6d0:	61656c65 	cmnvs	r5, r5, ror #24
 6d4:	20296573 	eorcs	r6, r9, r3, ror r5
 6d8:	70636d2d 	rsbvc	r6, r3, sp, lsr #26
 6dc:	72613d75 	rsbvc	r3, r1, #7488	; 0x1d40
 6e0:	3731316d 	ldrcc	r3, [r1, -sp, ror #2]!
 6e4:	667a6a36 			; <UNDEFINED> instruction: 0x667a6a36
 6e8:	2d20732d 	stccs	3, cr7, [r0, #-180]!	; 0xffffff4c
 6ec:	6e75746d 	cdpvs	4, 7, cr7, cr5, cr13, {3}
 6f0:	72613d65 	rsbvc	r3, r1, #6464	; 0x1940
 6f4:	3731316d 	ldrcc	r3, [r1, -sp, ror #2]!
 6f8:	667a6a36 			; <UNDEFINED> instruction: 0x667a6a36
 6fc:	2d20732d 	stccs	3, cr7, [r0, #-180]!	; 0xffffff4c
 700:	6f6c666d 	svcvs	0x006c666d
 704:	612d7461 			; <UNDEFINED> instruction: 0x612d7461
 708:	733d6962 	teqvc	sp, #1605632	; 0x188000
 70c:	2074666f 	rsbscs	r6, r4, pc, ror #12
 710:	72616d2d 	rsbvc	r6, r1, #2880	; 0xb40
 714:	6d2d206d 	stcvs	0, cr2, [sp, #-436]!	; 0xfffffe4c
 718:	68637261 	stmdavs	r3!, {r0, r5, r6, r9, ip, sp, lr}^
 71c:	6d72613d 	ldfvse	f6, [r2, #-244]!	; 0xffffff0c
 720:	7a6b3676 	bvc	1ace100 <__bss_end__+0x1ac39c0>
 724:	67672d20 	strbvs	r2, [r7, -r0, lsr #26]!
 728:	2d206264 	sfmcs	f6, 4, [r0, #-400]!	; 0xfffffe70
 72c:	2d20674f 	stccs	7, cr6, [r0, #-316]!	; 0xfffffec4
 730:	3d647473 	cfstrdcc	mvd7, [r4, #-460]!	; 0xfffffe34
 734:	39756e67 	ldmdbcc	r5!, {r0, r1, r2, r5, r6, r9, sl, fp, sp, lr}^
 738:	662d2039 			; <UNDEFINED> instruction: 0x662d2039
 73c:	65657266 	strbvs	r7, [r5, #-614]!	; 0xfffffd9a
 740:	6e617473 	mcrvs	4, 3, r7, cr1, cr3, {3}
 744:	676e6964 	strbvs	r6, [lr, -r4, ror #18]!
 748:	69706700 	ldmdbvs	r0!, {r8, r9, sl, sp, lr}^
 74c:	656c5f6f 	strbvs	r5, [ip, #-3951]!	; 0xfffff091
 750:	47003076 	smlsdxmi	r0, r6, r0, r3
 754:	5f4f4950 	svcpl	0x004f4950
 758:	434e5546 	movtmi	r5, #58694	; 0xe546
 75c:	544c415f 	strbpl	r4, [ip], #-351	; 0xfffffea1
 760:	61620034 	cmnvs	r2, r4, lsr r0
 764:	67006b6e 	strvs	r6, [r0, -lr, ror #22]
 768:	2e6f6970 			; <UNDEFINED> instruction: 0x2e6f6970
 76c:	50470063 	subpl	r0, r7, r3, rrx
 770:	465f4f49 	ldrbmi	r4, [pc], -r9, asr #30
 774:	5f434e55 	svcpl	0x00434e55
 778:	55504e49 	ldrbpl	r4, [r0, #-3657]	; 0xfffff1b7
 77c:	70670054 	rsbvc	r0, r7, r4, asr r0
 780:	735f6f69 	cmpvc	pc, #420	; 0x1a4
 784:	665f7465 	ldrbvs	r7, [pc], -r5, ror #8
 788:	74636e75 	strbtvc	r6, [r3], #-3701	; 0xfffff18b
 78c:	006e6f69 	rsbeq	r6, lr, r9, ror #30
 790:	6f697067 	svcvs	0x00697067
 794:	7465735f 	strbtvc	r7, [r5], #-863	; 0xfffffca1
 798:	006e6f5f 	rsbeq	r6, lr, pc, asr pc
 79c:	33747570 	cmncc	r4, #112, 10	; 0x1c000000
 7a0:	61620032 	cmnvs	r2, r2, lsr r0
 7a4:	765f6475 			; <UNDEFINED> instruction: 0x765f6475
 7a8:	73006c61 	movwvc	r6, #3169	; 0xc61
 7ac:	00746174 	rsbseq	r6, r4, r4, ror r1
 7b0:	74726175 	ldrbtvc	r6, [r2], #-373	; 0xfffffe8b
 7b4:	6e61635f 	mcrvs	3, 3, r6, cr1, cr15, {2}
 7b8:	7465675f 	strbtvc	r6, [r5], #-1887	; 0xfffff8a1
 7bc:	75610063 	strbvc	r0, [r1, #-99]!	; 0xffffff9d
 7c0:	65705f78 	ldrbvs	r5, [r0, #-3960]!	; 0xfffff088
 7c4:	68706972 	ldmdavs	r0!, {r1, r4, r5, r6, r8, fp, sp, lr}^
 7c8:	61750073 	cmnvs	r5, r3, ror r0
 7cc:	632e7472 			; <UNDEFINED> instruction: 0x632e7472
 7d0:	72617500 	rsbvc	r7, r1, #0, 10
 7d4:	61635f74 	smcvs	13812	; 0x35f4
 7d8:	75705f6e 	ldrbvc	r5, [r0, #-3950]!	; 0xfffff092
 7dc:	61006374 	tstvs	r0, r4, ror r3
 7e0:	00726464 	rsbseq	r6, r2, r4, ror #8
 7e4:	74726175 	ldrbtvc	r6, [r2], #-373	; 0xfffffe8b
 7e8:	5f78745f 	svcpl	0x0078745f
 7ec:	655f7369 	ldrbvs	r7, [pc, #-873]	; 48b <__code_start__-0x7b75>
 7f0:	7974706d 	ldmdbvc	r4!, {r0, r2, r3, r5, r6, ip, sp, lr}^
 7f4:	75616200 	strbvc	r6, [r1, #-512]!	; 0xfffffe00
 7f8:	75610064 	strbvc	r0, [r1, #-100]!	; 0xffffff9c
 7fc:	6e655f78 	mcrvs	15, 3, r5, cr5, cr8, {3}
 800:	656c6261 	strbvs	r6, [ip, #-609]!	; 0xfffffd9f
 804:	61750073 	cmnvs	r5, r3, ror r0
 808:	675f7472 			; <UNDEFINED> instruction: 0x675f7472
 80c:	00637465 	rsbeq	r7, r3, r5, ror #8
 810:	6c746e63 	ldclvs	14, cr6, [r4], #-396	; 0xfffffe74
 814:	72617500 	rsbvc	r7, r1, #0, 10
 818:	69645f74 	stmdbvs	r4!, {r2, r4, r5, r6, r8, r9, sl, fp, ip, lr}^
 81c:	6c626173 	stfvse	f6, [r2], #-460	; 0xfffffe34
 820:	61750065 	cmnvs	r5, r5, rrx
 824:	685f7472 	ldmdavs	pc, {r1, r4, r5, r6, sl, ip, sp, lr}^	; <UNPREDICTABLE>
 828:	645f7361 	ldrbvs	r7, [pc], #-865	; 830 <__code_start__-0x77d0>
 82c:	00617461 	rsbeq	r7, r1, r1, ror #8
 830:	695f726f 	ldmdbvs	pc, {r0, r1, r2, r3, r5, r6, r9, ip, sp, lr}^	; <UNPREDICTABLE>
 834:	0032336e 	eorseq	r3, r2, lr, ror #6
 838:	61726373 	cmnvs	r2, r3, ror r3
 83c:	00686374 	rsbeq	r6, r8, r4, ror r3
 840:	74726175 	ldrbtvc	r6, [r2], #-373	; 0xfffffe8b
 844:	646e6100 	strbtvs	r6, [lr], #-256	; 0xffffff00
 848:	336e695f 	cmncc	lr, #1556480	; 0x17c000
 84c:	61750032 	cmnvs	r5, r2, lsr r0
 850:	705f7472 	subsvc	r7, pc, r2, ror r4	; <UNPREDICTABLE>
 854:	00637475 	rsbeq	r7, r3, r5, ror r4
 858:	33746567 	cmncc	r4, #432013312	; 0x19c00000
 85c:	70670032 	rsbvc	r0, r7, r2, lsr r0
 860:	705f6f69 	subsvc	r6, pc, r9, ror #30
 864:	6f5f6475 	svcvs	0x005f6475
 868:	67006666 	strvs	r6, [r0, -r6, ror #12]
 86c:	5f6f6970 	svcpl	0x006f6970
 870:	306b6c63 	rsbcc	r6, fp, r3, ror #24
 874:	69706700 	ldmdbvs	r0!, {r8, r9, sl, sp, lr}^
 878:	65735f6f 	ldrbvs	r5, [r3, #-3951]!	; 0xfffff091
 87c:	75705f74 	ldrbvc	r5, [r0, #-3956]!	; 0xfffff08c
 880:	6f646c6c 	svcvs	0x00646c6c
 884:	67006e77 	smlsdxvs	r0, r7, lr, r6
 888:	2d6f6970 			; <UNDEFINED> instruction: 0x2d6f6970
 88c:	2e647570 	mcrcs	5, 3, r7, cr4, cr0, {3}
 890:	70670063 	rsbvc	r0, r7, r3, rrx
 894:	675f6f69 	ldrbvs	r6, [pc, -r9, ror #30]
 898:	705f7465 	subsvc	r7, pc, r5, ror #8
 89c:	67006475 	smlsdxvs	r0, r5, r4, r6
 8a0:	5f6f6970 	svcpl	0x006f6970
 8a4:	5f746573 	svcpl	0x00746573
 8a8:	00647570 	rsbeq	r7, r4, r0, ror r5
 8ac:	6f697067 	svcvs	0x00697067
 8b0:	6475705f 	ldrbtvs	r7, [r5], #-95	; 0xffffffa1
 8b4:	69707200 	ldmdbvs	r0!, {r9, ip, sp, lr}^
 8b8:	7365725f 	cmnvc	r5, #-268435451	; 0xf0000005
 8bc:	705f7465 	subsvc	r7, pc, r5, ror #8
 8c0:	00637475 	rsbeq	r7, r3, r5, ror r4
 8c4:	65746e69 	ldrbvs	r6, [r4, #-3689]!	; 0xfffff197
 8c8:	6c616e72 	stclvs	14, cr6, [r1], #-456	; 0xfffffe38
 8cc:	7475705f 	ldrbtvc	r7, [r5], #-95	; 0xffffffa1
 8d0:	72616863 	rsbvc	r6, r1, #6488064	; 0x630000
 8d4:	69707200 	ldmdbvs	r0!, {r9, ip, sp, lr}^
 8d8:	7465735f 	strbtvc	r7, [r5], #-863	; 0xfffffca1
 8dc:	7475705f 	ldrbtvc	r7, [r5], #-95	; 0xffffffa1
 8e0:	2f2e0063 	svccs	0x002e0063
 8e4:	6362696c 	cmnvs	r2, #108, 18	; 0x1b0000
 8e8:	7475702f 	ldrbtvc	r7, [r5], #-47	; 0xffffffd1
 8ec:	72616863 	rsbvc	r6, r1, #6488064	; 0x630000
 8f0:	6400632e 	strvs	r6, [r0], #-814	; 0xfffffcd2
 8f4:	00747365 	rsbseq	r7, r4, r5, ror #6
 8f8:	696c2f2e 	stmdbvs	ip!, {r1, r2, r3, r5, r8, r9, sl, fp, sp}^
 8fc:	732f6362 			; <UNDEFINED> instruction: 0x732f6362
 900:	61637274 	smcvs	14116	; 0x3724
 904:	00632e74 	rsbeq	r2, r3, r4, ror lr
 908:	696c2f2e 	stmdbvs	ip!, {r1, r2, r3, r5, r8, r9, sl, fp, sp}^
 90c:	732f6362 			; <UNDEFINED> instruction: 0x732f6362
 910:	6d637274 	sfmvs	f7, 2, [r3, #-464]!	; 0xfffffe30
 914:	00632e70 	rsbeq	r2, r3, r0, ror lr
 918:	696c2f2e 	stmdbvs	ip!, {r1, r2, r3, r5, r8, r9, sl, fp, sp}^
 91c:	732f6362 			; <UNDEFINED> instruction: 0x732f6362
 920:	70637274 	rsbvc	r7, r3, r4, ror r2
 924:	00632e79 	rsbeq	r2, r3, r9, ror lr
 928:	657a6973 	ldrbvs	r6, [sl, #-2419]!	; 0xfffff68d
 92c:	2e00745f 	cfmvsrcs	mvf0, r7
 930:	62696c2f 	rsbvs	r6, r9, #12032	; 0x2f00
 934:	74732f63 	ldrbtvc	r2, [r3], #-3939	; 0xfffff09d
 938:	6d636e72 	stclvs	14, cr6, [r3, #-456]!	; 0xfffffe38
 93c:	00632e70 	rsbeq	r2, r3, r0, ror lr
 940:	74732f2e 	ldrbtvc	r2, [r3], #-3886	; 0xfffff0d2
 944:	2d666661 	stclcs	6, cr6, [r6, #-388]!	; 0xfffffe7c
 948:	2f637273 	svccs	0x00637273
 94c:	61666564 	cmnvs	r6, r4, ror #10
 950:	2d746c75 	ldclcs	12, cr6, [r4, #-468]!	; 0xfffffe2c
 954:	6f626572 	svcvs	0x00626572
 958:	632d746f 			; <UNDEFINED> instruction: 0x632d746f
 95c:	6f6c6c61 	svcvs	0x006c6c61
 960:	632e7475 			; <UNDEFINED> instruction: 0x632e7475
	...

Disassembly of section .debug_frame:

00000000 <.debug_frame>:
   0:	0000000c 	andeq	r0, r0, ip
   4:	ffffffff 			; <UNDEFINED> instruction: 0xffffffff
   8:	7c020001 	stcvc	0, cr0, [r2], {1}
   c:	000d0c0e 	andeq	r0, sp, lr, lsl #24
  10:	0000000c 	andeq	r0, r0, ip
  14:	00000000 	andeq	r0, r0, r0
  18:	00008038 	andeq	r8, r0, r8, lsr r0
  1c:	0000000c 	andeq	r0, r0, ip
  20:	00000014 	andeq	r0, r0, r4, lsl r0
  24:	00000000 	andeq	r0, r0, r0
  28:	00008044 	andeq	r8, r0, r4, asr #32
  2c:	00000020 	andeq	r0, r0, r0, lsr #32
  30:	84080e42 	strhi	r0, [r8], #-3650	; 0xfffff1be
  34:	00018e02 	andeq	r8, r1, r2, lsl #28
  38:	00000014 	andeq	r0, r0, r4, lsl r0
  3c:	00000000 	andeq	r0, r0, r0
  40:	00008064 	andeq	r8, r0, r4, rrx
  44:	00000018 	andeq	r0, r0, r8, lsl r0
  48:	84080e42 	strhi	r0, [r8], #-3650	; 0xfffff1be
  4c:	00018e02 	andeq	r8, r1, r2, lsl #28
  50:	00000020 	andeq	r0, r0, r0, lsr #32
  54:	00000000 	andeq	r0, r0, r0
  58:	0000807c 	andeq	r8, r0, ip, ror r0
  5c:	00000088 	andeq	r0, r0, r8, lsl #1
  60:	84100e42 	ldrhi	r0, [r0], #-3650	; 0xfffff1be
  64:	86038504 	strhi	r8, [r3], -r4, lsl #10
  68:	42018e02 	andmi	r8, r1, #2, 28
  6c:	0a62200e 	beq	18880ac <__bss_end__+0x187d96c>
  70:	0b42100e 	bleq	10840b0 <__bss_end__+0x1079970>
  74:	0000001c 	andeq	r0, r0, ip, lsl r0
  78:	00000000 	andeq	r0, r0, r0
  7c:	00008104 	andeq	r8, r0, r4, lsl #2
  80:	00000050 	andeq	r0, r0, r0, asr r0
  84:	84180e42 	ldrhi	r0, [r8], #-3650	; 0xfffff1be
  88:	86058506 	strhi	r8, [r5], -r6, lsl #10
  8c:	88038704 	stmdahi	r3, {r2, r8, r9, sl, pc}
  90:	00018e02 	andeq	r8, r1, r2, lsl #28
  94:	00000020 	andeq	r0, r0, r0, lsr #32
  98:	00000000 	andeq	r0, r0, r0
  9c:	00008154 	andeq	r8, r0, r4, asr r1
  a0:	00000068 	andeq	r0, r0, r8, rrx
  a4:	84200e42 	strthi	r0, [r0], #-3650	; 0xfffff1be
  a8:	86078508 	strhi	r8, [r7], -r8, lsl #10
  ac:	88058706 	stmdahi	r5, {r1, r2, r8, r9, sl, pc}
  b0:	8a038904 	bhi	e24c8 <__bss_end__+0xd7d88>
  b4:	00018e02 	andeq	r8, r1, r2, lsl #28
  b8:	00000018 	andeq	r0, r0, r8, lsl r0
  bc:	00000000 	andeq	r0, r0, r0
  c0:	000081bc 			; <UNDEFINED> instruction: 0x000081bc
  c4:	000001d4 	ldrdeq	r0, [r0], -r4
  c8:	84100e42 	ldrhi	r0, [r0], #-3650	; 0xfffff1be
  cc:	86038504 	strhi	r8, [r3], -r4, lsl #10
  d0:	00018e02 	andeq	r8, r1, r2, lsl #28
  d4:	00000020 	andeq	r0, r0, r0, lsr #32
  d8:	00000000 	andeq	r0, r0, r0
  dc:	00008390 	muleq	r0, r0, r3
  e0:	000000a8 	andeq	r0, r0, r8, lsr #1
  e4:	84080e46 	strhi	r0, [r8], #-3654	; 0xfffff1ba
  e8:	02018e02 	andeq	r8, r1, #2, 28
  ec:	c4000e42 	strgt	r0, [r0], #-3650	; 0xfffff1be
  f0:	080e44ce 	stmdaeq	lr, {r1, r2, r3, r6, r7, sl, lr}
  f4:	018e0284 	orreq	r0, lr, r4, lsl #5
  f8:	00000024 	andeq	r0, r0, r4, lsr #32
  fc:	00000000 	andeq	r0, r0, r0
 100:	00008438 	andeq	r8, r0, r8, lsr r4
 104:	000000f8 	strdeq	r0, [r0], -r8
 108:	84140e42 	ldrhi	r0, [r4], #-3650	; 0xfffff1be
 10c:	86048505 	strhi	r8, [r4], -r5, lsl #10
 110:	8e028703 	cdphi	7, 0, cr8, cr2, cr3, {0}
 114:	200e4201 	andcs	r4, lr, r1, lsl #4
 118:	0e0a6002 	cdpeq	0, 0, cr6, cr10, cr2, {0}
 11c:	000b4214 	andeq	r4, fp, r4, lsl r2
 120:	00000020 	andeq	r0, r0, r0, lsr #32
 124:	00000000 	andeq	r0, r0, r0
 128:	00008530 	andeq	r8, r0, r0, lsr r5
 12c:	00000118 	andeq	r0, r0, r8, lsl r1
 130:	84140e42 	ldrhi	r0, [r4], #-3650	; 0xfffff1be
 134:	86048505 	strhi	r8, [r4], -r5, lsl #10
 138:	8e028703 	cdphi	7, 0, cr8, cr2, cr3, {0}
 13c:	200e4201 	andcs	r4, lr, r1, lsl #4
 140:	140e7a02 	strne	r7, [lr], #-2562	; 0xfffff5fe
 144:	00000024 	andeq	r0, r0, r4, lsr #32
 148:	00000000 	andeq	r0, r0, r0
 14c:	00008648 	andeq	r8, r0, r8, asr #12
 150:	00000124 	andeq	r0, r0, r4, lsr #2
 154:	84180e42 	ldrhi	r0, [r8], #-3650	; 0xfffff1be
 158:	86058506 	strhi	r8, [r5], -r6, lsl #10
 15c:	88038704 	stmdahi	r3, {r2, r8, r9, sl, pc}
 160:	42018e02 	andmi	r8, r1, #2, 28
 164:	7e02200e 	cdpvc	0, 0, cr2, cr2, cr14, {0}
 168:	0000180e 	andeq	r1, r0, lr, lsl #16
 16c:	00000014 	andeq	r0, r0, r4, lsl r0
 170:	00000000 	andeq	r0, r0, r0
 174:	0000876c 	andeq	r8, r0, ip, ror #14
 178:	00000010 	andeq	r0, r0, r0, lsl r0
 17c:	84080e42 	strhi	r0, [r8], #-3650	; 0xfffff1be
 180:	00018e02 	andeq	r8, r1, r2, lsl #28
 184:	00000018 	andeq	r0, r0, r8, lsl r0
 188:	00000000 	andeq	r0, r0, r0
 18c:	0000877c 	andeq	r8, r0, ip, ror r7
 190:	000000ec 	andeq	r0, r0, ip, ror #1
 194:	84100e42 	ldrhi	r0, [r0], #-3650	; 0xfffff1be
 198:	86038504 	strhi	r8, [r3], -r4, lsl #10
 19c:	00018e02 	andeq	r8, r1, r2, lsl #28
 1a0:	0000000c 	andeq	r0, r0, ip
 1a4:	ffffffff 			; <UNDEFINED> instruction: 0xffffffff
 1a8:	7c020001 	stcvc	0, cr0, [r2], {1}
 1ac:	000d0c0e 	andeq	r0, sp, lr, lsl #24
 1b0:	00000034 	andeq	r0, r0, r4, lsr r0
 1b4:	000001a0 	andeq	r0, r0, r0, lsr #3
 1b8:	00008868 	andeq	r8, r0, r8, ror #16
 1bc:	00000058 	andeq	r0, r0, r8, asr r0
 1c0:	80100e42 	andshi	r0, r0, r2, asr #28
 1c4:	82038104 	andhi	r8, r3, #1
 1c8:	42018302 	andmi	r8, r1, #134217728	; 0x8000000
 1cc:	07841c0e 	streq	r1, [r4, lr, lsl #24]
 1d0:	058e0685 	streq	r0, [lr, #1669]	; 0x685
 1d4:	5c280e42 	stcpl	14, cr0, [r8], #-264	; 0xfffffef8
 1d8:	ce421c0e 	cdpgt	12, 4, cr1, cr2, cr14, {0}
 1dc:	100ec4c5 	andne	ip, lr, r5, asr #9
 1e0:	c1c2c342 	bicgt	ip, r2, r2, asr #6
 1e4:	00000ec0 	andeq	r0, r0, r0, asr #29
 1e8:	0000000c 	andeq	r0, r0, ip
 1ec:	ffffffff 			; <UNDEFINED> instruction: 0xffffffff
 1f0:	7c020001 	stcvc	0, cr0, [r2], {1}
 1f4:	000d0c0e 	andeq	r0, sp, lr, lsl #24
 1f8:	00000014 	andeq	r0, r0, r4, lsl r0
 1fc:	000001e8 	andeq	r0, r0, r8, ror #3
 200:	000088c0 	andeq	r8, r0, r0, asr #17
 204:	00000034 	andeq	r0, r0, r4, lsr r0
 208:	84080e42 	strhi	r0, [r8], #-3650	; 0xfffff1be
 20c:	00018e02 	andeq	r8, r1, r2, lsl #28
 210:	0000000c 	andeq	r0, r0, ip
 214:	ffffffff 			; <UNDEFINED> instruction: 0xffffffff
 218:	7c020001 	stcvc	0, cr0, [r2], {1}
 21c:	000d0c0e 	andeq	r0, sp, lr, lsl #24
 220:	0000000c 	andeq	r0, r0, ip
 224:	00000210 	andeq	r0, r0, r0, lsl r2
 228:	000088f4 	strdeq	r8, [r0], -r4
 22c:	00000014 	andeq	r0, r0, r4, lsl r0
 230:	0000000c 	andeq	r0, r0, ip
 234:	00000210 	andeq	r0, r0, r0, lsl r2
 238:	00008908 	andeq	r8, r0, r8, lsl #18
 23c:	00000024 	andeq	r0, r0, r4, lsr #32
 240:	0000000c 	andeq	r0, r0, ip
 244:	00000210 	andeq	r0, r0, r0, lsl r2
 248:	0000892c 	andeq	r8, r0, ip, lsr #18
 24c:	00000038 	andeq	r0, r0, r8, lsr r0
 250:	00000024 	andeq	r0, r0, r4, lsr #32
 254:	00000210 	andeq	r0, r0, r0, lsl r2
 258:	00008964 	andeq	r8, r0, r4, ror #18
 25c:	000001b4 			; <UNDEFINED> instruction: 0x000001b4
 260:	84140e42 	ldrhi	r0, [r4], #-3650	; 0xfffff1be
 264:	86048505 	strhi	r8, [r4], -r5, lsl #10
 268:	8e028703 	cdphi	7, 0, cr8, cr2, cr3, {0}
 26c:	600e4201 	andvs	r4, lr, r1, lsl #4
 270:	0e0a9a02 	vmlaeq.f32	s18, s20, s4
 274:	000b4214 	andeq	r4, fp, r4, lsl r2
 278:	00000014 	andeq	r0, r0, r4, lsl r0
 27c:	00000210 	andeq	r0, r0, r0, lsl r2
 280:	00008b18 	andeq	r8, r0, r8, lsl fp
 284:	00000064 	andeq	r0, r0, r4, rrx
 288:	8e040e54 	mcrhi	14, 0, r0, cr4, cr4, {2}
 28c:	100e4201 	andne	r4, lr, r1, lsl #4
 290:	0000002c 	andeq	r0, r0, ip, lsr #32
 294:	00000210 	andeq	r0, r0, r0, lsl r2
 298:	00008b7c 	andeq	r8, r0, ip, ror fp
 29c:	000004b8 			; <UNDEFINED> instruction: 0x000004b8
 2a0:	84240e42 	strthi	r0, [r4], #-3650	; 0xfffff1be
 2a4:	86088509 	strhi	r8, [r8], -r9, lsl #10
 2a8:	88068707 	stmdahi	r6, {r0, r1, r2, r8, r9, sl, pc}
 2ac:	8a048905 	bhi	1226c8 <__bss_end__+0x117f88>
 2b0:	8e028b03 	vmlahi.f64	d8, d2, d3
 2b4:	b80e4201 	stmdalt	lr, {r0, r9, lr}
 2b8:	02380302 	eorseq	r0, r8, #134217728	; 0x8000000
 2bc:	0000240e 	andeq	r2, r0, lr, lsl #8
 2c0:	0000000c 	andeq	r0, r0, ip
 2c4:	ffffffff 			; <UNDEFINED> instruction: 0xffffffff
 2c8:	7c020001 	stcvc	0, cr0, [r2], {1}
 2cc:	000d0c0e 	andeq	r0, sp, lr, lsl #24
 2d0:	00000014 	andeq	r0, r0, r4, lsl r0
 2d4:	000002c0 	andeq	r0, r0, r0, asr #5
 2d8:	00009034 	andeq	r9, r0, r4, lsr r0
 2dc:	0000002c 	andeq	r0, r0, ip, lsr #32
 2e0:	84080e42 	strhi	r0, [r8], #-3650	; 0xfffff1be
 2e4:	00018e02 	andeq	r8, r1, r2, lsl #28
 2e8:	0000000c 	andeq	r0, r0, ip
 2ec:	ffffffff 			; <UNDEFINED> instruction: 0xffffffff
 2f0:	7c020001 	stcvc	0, cr0, [r2], {1}
 2f4:	000d0c0e 	andeq	r0, sp, lr, lsl #24
 2f8:	00000014 	andeq	r0, r0, r4, lsl r0
 2fc:	000002e8 	andeq	r0, r0, r8, ror #5
 300:	00009060 	andeq	r9, r0, r0, rrx
 304:	0000003c 	andeq	r0, r0, ip, lsr r0
 308:	84080e42 	strhi	r0, [r8], #-3650	; 0xfffff1be
 30c:	00018e02 	andeq	r8, r1, r2, lsl #28
 310:	0000000c 	andeq	r0, r0, ip
 314:	ffffffff 			; <UNDEFINED> instruction: 0xffffffff
 318:	7c020001 	stcvc	0, cr0, [r2], {1}
 31c:	000d0c0e 	andeq	r0, sp, lr, lsl #24
 320:	0000000c 	andeq	r0, r0, ip
 324:	00000310 	andeq	r0, r0, r0, lsl r3
 328:	0000909c 	muleq	r0, ip, r0
 32c:	00000004 	andeq	r0, r0, r4
 330:	0000000c 	andeq	r0, r0, ip
 334:	ffffffff 			; <UNDEFINED> instruction: 0xffffffff
 338:	7c020001 	stcvc	0, cr0, [r2], {1}
 33c:	000d0c0e 	andeq	r0, sp, lr, lsl #24
 340:	0000000c 	andeq	r0, r0, ip
 344:	00000330 	andeq	r0, r0, r0, lsr r3
 348:	000090a0 	andeq	r9, r0, r0, lsr #1
 34c:	00000018 	andeq	r0, r0, r8, lsl r0
 350:	0000000c 	andeq	r0, r0, ip
 354:	00000330 	andeq	r0, r0, r0, lsr r3
 358:	000090b8 	strheq	r9, [r0], -r8
 35c:	00000014 	andeq	r0, r0, r4, lsl r0
 360:	00000014 	andeq	r0, r0, r4, lsl r0
 364:	00000330 	andeq	r0, r0, r0, lsr r3
 368:	000090cc 	andeq	r9, r0, ip, asr #1
 36c:	00000054 	andeq	r0, r0, r4, asr r0
 370:	84080e42 	strhi	r0, [r8], #-3650	; 0xfffff1be
 374:	00018e02 	andeq	r8, r1, r2, lsl #28
 378:	0000000c 	andeq	r0, r0, ip
 37c:	ffffffff 			; <UNDEFINED> instruction: 0xffffffff
 380:	7c020001 	stcvc	0, cr0, [r2], {1}
 384:	000d0c0e 	andeq	r0, sp, lr, lsl #24
 388:	00000014 	andeq	r0, r0, r4, lsl r0
 38c:	00000378 	andeq	r0, r0, r8, ror r3
 390:	00009120 	andeq	r9, r0, r0, lsr #2
 394:	00000014 	andeq	r0, r0, r4, lsl r0
 398:	84080e42 	strhi	r0, [r8], #-3650	; 0xfffff1be
 39c:	00018e02 	andeq	r8, r1, r2, lsl #28
 3a0:	00000014 	andeq	r0, r0, r4, lsl r0
 3a4:	00000378 	andeq	r0, r0, r8, ror r3
 3a8:	00009134 	andeq	r9, r0, r4, lsr r1
 3ac:	0000001c 	andeq	r0, r0, ip, lsl r0
 3b0:	84080e42 	strhi	r0, [r8], #-3650	; 0xfffff1be
 3b4:	00018e02 	andeq	r8, r1, r2, lsl #28
 3b8:	00000018 	andeq	r0, r0, r8, lsl r0
 3bc:	00000378 	andeq	r0, r0, r8, ror r3
 3c0:	00009150 	andeq	r9, r0, r0, asr r1
 3c4:	00000024 	andeq	r0, r0, r4, lsr #32
 3c8:	84100e42 	ldrhi	r0, [r0], #-3650	; 0xfffff1be
 3cc:	86038504 	strhi	r8, [r3], -r4, lsl #10
 3d0:	00018e02 	andeq	r8, r1, r2, lsl #28
 3d4:	00000014 	andeq	r0, r0, r4, lsl r0
 3d8:	00000378 	andeq	r0, r0, r8, ror r3
 3dc:	00009174 	andeq	r9, r0, r4, ror r1
 3e0:	00000018 	andeq	r0, r0, r8, lsl r0
 3e4:	84080e42 	strhi	r0, [r8], #-3650	; 0xfffff1be
 3e8:	00018e02 	andeq	r8, r1, r2, lsl #28
 3ec:	00000014 	andeq	r0, r0, r4, lsl r0
 3f0:	00000378 	andeq	r0, r0, r8, ror r3
 3f4:	0000918c 	andeq	r9, r0, ip, lsl #3
 3f8:	00000018 	andeq	r0, r0, r8, lsl r0
 3fc:	84080e42 	strhi	r0, [r8], #-3650	; 0xfffff1be
 400:	00018e02 	andeq	r8, r1, r2, lsl #28
 404:	0000000c 	andeq	r0, r0, ip
 408:	ffffffff 			; <UNDEFINED> instruction: 0xffffffff
 40c:	7c020001 	stcvc	0, cr0, [r2], {1}
 410:	000d0c0e 	andeq	r0, sp, lr, lsl #24
 414:	00000018 	andeq	r0, r0, r8, lsl r0
 418:	00000404 	andeq	r0, r0, r4, lsl #8
 41c:	000091a4 	andeq	r9, r0, r4, lsr #3
 420:	00000064 	andeq	r0, r0, r4, rrx
 424:	84100e46 	ldrhi	r0, [r0], #-3654	; 0xfffff1ba
 428:	86038504 	strhi	r8, [r3], -r4, lsl #10
 42c:	00018e02 	andeq	r8, r1, r2, lsl #28
 430:	00000014 	andeq	r0, r0, r4, lsl r0
 434:	00000404 	andeq	r0, r0, r4, lsl #8
 438:	00009208 	andeq	r9, r0, r8, lsl #4
 43c:	00000010 	andeq	r0, r0, r0, lsl r0
 440:	84080e42 	strhi	r0, [r8], #-3650	; 0xfffff1be
 444:	00018e02 	andeq	r8, r1, r2, lsl #28
 448:	00000014 	andeq	r0, r0, r4, lsl r0
 44c:	00000404 	andeq	r0, r0, r4, lsl #8
 450:	00009218 	andeq	r9, r0, r8, lsl r2
 454:	00000024 	andeq	r0, r0, r4, lsr #32
 458:	84080e46 	strhi	r0, [r8], #-3654	; 0xfffff1ba
 45c:	00018e02 	andeq	r8, r1, r2, lsl #28
 460:	00000014 	andeq	r0, r0, r4, lsl r0
 464:	00000404 	andeq	r0, r0, r4, lsl #8
 468:	0000923c 	andeq	r9, r0, ip, lsr r2
 46c:	00000024 	andeq	r0, r0, r4, lsr #32
 470:	84080e46 	strhi	r0, [r8], #-3654	; 0xfffff1ba
 474:	00018e02 	andeq	r8, r1, r2, lsl #28
 478:	00000014 	andeq	r0, r0, r4, lsl r0
 47c:	00000404 	andeq	r0, r0, r4, lsl #8
 480:	00009260 	andeq	r9, r0, r0, ror #4
 484:	00000010 	andeq	r0, r0, r0, lsl r0
 488:	84080e42 	strhi	r0, [r8], #-3650	; 0xfffff1be
 48c:	00018e02 	andeq	r8, r1, r2, lsl #28
 490:	00000014 	andeq	r0, r0, r4, lsl r0
 494:	00000404 	andeq	r0, r0, r4, lsl #8
 498:	00009270 	andeq	r9, r0, r0, ror r2
 49c:	0000001c 	andeq	r0, r0, ip, lsl r0
 4a0:	84080e42 	strhi	r0, [r8], #-3650	; 0xfffff1be
 4a4:	00018e02 	andeq	r8, r1, r2, lsl #28
 4a8:	00000018 	andeq	r0, r0, r8, lsl r0
 4ac:	00000404 	andeq	r0, r0, r4, lsl #8
 4b0:	0000928c 	andeq	r9, r0, ip, lsl #5
 4b4:	00000034 	andeq	r0, r0, r4, lsr r0
 4b8:	84080e46 	strhi	r0, [r8], #-3654	; 0xfffff1ba
 4bc:	4e018e02 	cdpmi	14, 0, cr8, cr1, cr2, {0}
 4c0:	cec4000e 	cdpgt	0, 12, cr0, cr4, cr14, {0}
 4c4:	0000000c 	andeq	r0, r0, ip
 4c8:	ffffffff 			; <UNDEFINED> instruction: 0xffffffff
 4cc:	7c020001 	stcvc	0, cr0, [r2], {1}
 4d0:	000d0c0e 	andeq	r0, sp, lr, lsl #24
 4d4:	00000018 	andeq	r0, r0, r8, lsl r0
 4d8:	000004c4 	andeq	r0, r0, r4, asr #9
 4dc:	000092c0 	andeq	r9, r0, r0, asr #5
 4e0:	00000020 	andeq	r0, r0, r0, lsr #32
 4e4:	84100e42 	ldrhi	r0, [r0], #-3650	; 0xfffff1be
 4e8:	86038504 	strhi	r8, [r3], -r4, lsl #10
 4ec:	00018e02 	andeq	r8, r1, r2, lsl #28
 4f0:	00000018 	andeq	r0, r0, r8, lsl r0
 4f4:	000004c4 	andeq	r0, r0, r4, asr #9
 4f8:	000092e0 	andeq	r9, r0, r0, ror #5
 4fc:	00000020 	andeq	r0, r0, r0, lsr #32
 500:	84100e42 	ldrhi	r0, [r0], #-3650	; 0xfffff1be
 504:	86038504 	strhi	r8, [r3], -r4, lsl #10
 508:	00018e02 	andeq	r8, r1, r2, lsl #28
 50c:	00000014 	andeq	r0, r0, r4, lsl r0
 510:	000004c4 	andeq	r0, r0, r4, asr #9
 514:	00009300 	andeq	r9, r0, r0, lsl #6
 518:	000000b0 	strheq	r0, [r0], -r0	; <UNPREDICTABLE>
 51c:	84080e42 	strhi	r0, [r8], #-3650	; 0xfffff1be
 520:	00018e02 	andeq	r8, r1, r2, lsl #28
 524:	00000014 	andeq	r0, r0, r4, lsl r0
 528:	000004c4 	andeq	r0, r0, r4, asr #9
 52c:	000093b0 			; <UNDEFINED> instruction: 0x000093b0
 530:	00000018 	andeq	r0, r0, r8, lsl r0
 534:	84080e42 	strhi	r0, [r8], #-3650	; 0xfffff1be
 538:	00018e02 	andeq	r8, r1, r2, lsl #28
 53c:	00000014 	andeq	r0, r0, r4, lsl r0
 540:	000004c4 	andeq	r0, r0, r4, asr #9
 544:	000093c8 	andeq	r9, r0, r8, asr #7
 548:	00000020 	andeq	r0, r0, r0, lsr #32
 54c:	84080e42 	strhi	r0, [r8], #-3650	; 0xfffff1be
 550:	00018e02 	andeq	r8, r1, r2, lsl #28
 554:	00000014 	andeq	r0, r0, r4, lsl r0
 558:	000004c4 	andeq	r0, r0, r4, asr #9
 55c:	000093e8 	andeq	r9, r0, r8, ror #7
 560:	00000030 	andeq	r0, r0, r0, lsr r0
 564:	84080e42 	strhi	r0, [r8], #-3650	; 0xfffff1be
 568:	00018e02 	andeq	r8, r1, r2, lsl #28
 56c:	00000014 	andeq	r0, r0, r4, lsl r0
 570:	000004c4 	andeq	r0, r0, r4, asr #9
 574:	00009418 	andeq	r9, r0, r8, lsl r4
 578:	00000030 	andeq	r0, r0, r0, lsr r0
 57c:	84080e42 	strhi	r0, [r8], #-3650	; 0xfffff1be
 580:	00018e02 	andeq	r8, r1, r2, lsl #28
 584:	00000014 	andeq	r0, r0, r4, lsl r0
 588:	000004c4 	andeq	r0, r0, r4, asr #9
 58c:	00009448 	andeq	r9, r0, r8, asr #8
 590:	00000010 	andeq	r0, r0, r0, lsl r0
 594:	84080e42 	strhi	r0, [r8], #-3650	; 0xfffff1be
 598:	00018e02 	andeq	r8, r1, r2, lsl #28
 59c:	00000014 	andeq	r0, r0, r4, lsl r0
 5a0:	000004c4 	andeq	r0, r0, r4, asr #9
 5a4:	00009458 	andeq	r9, r0, r8, asr r4
 5a8:	00000020 	andeq	r0, r0, r0, lsr #32
 5ac:	84080e42 	strhi	r0, [r8], #-3650	; 0xfffff1be
 5b0:	00018e02 	andeq	r8, r1, r2, lsl #28
 5b4:	00000014 	andeq	r0, r0, r4, lsl r0
 5b8:	000004c4 	andeq	r0, r0, r4, asr #9
 5bc:	00009478 	andeq	r9, r0, r8, ror r4
 5c0:	00000014 	andeq	r0, r0, r4, lsl r0
 5c4:	84080e42 	strhi	r0, [r8], #-3650	; 0xfffff1be
 5c8:	00018e02 	andeq	r8, r1, r2, lsl #28
 5cc:	00000014 	andeq	r0, r0, r4, lsl r0
 5d0:	000004c4 	andeq	r0, r0, r4, asr #9
 5d4:	0000948c 	andeq	r9, r0, ip, lsl #9
 5d8:	00000024 	andeq	r0, r0, r4, lsr #32
 5dc:	84080e42 	strhi	r0, [r8], #-3650	; 0xfffff1be
 5e0:	00018e02 	andeq	r8, r1, r2, lsl #28
 5e4:	0000000c 	andeq	r0, r0, ip
 5e8:	ffffffff 			; <UNDEFINED> instruction: 0xffffffff
 5ec:	7c020001 	stcvc	0, cr0, [r2], {1}
 5f0:	000d0c0e 	andeq	r0, sp, lr, lsl #24
 5f4:	00000020 	andeq	r0, r0, r0, lsr #32
 5f8:	000005e4 	andeq	r0, r0, r4, ror #11
 5fc:	000094b0 			; <UNDEFINED> instruction: 0x000094b0
 600:	00000100 	andeq	r0, r0, r0, lsl #2
 604:	84100e42 	ldrhi	r0, [r0], #-3650	; 0xfffff1be
 608:	86038504 	strhi	r8, [r3], -r4, lsl #10
 60c:	42018e02 	andmi	r8, r1, #2, 28
 610:	0a52180e 	beq	1486650 <__bss_end__+0x147bf10>
 614:	0b42100e 	bleq	1084654 <__bss_end__+0x1079f14>
 618:	00000014 	andeq	r0, r0, r4, lsl r0
 61c:	000005e4 	andeq	r0, r0, r4, ror #11
 620:	000095b0 			; <UNDEFINED> instruction: 0x000095b0
 624:	00000010 	andeq	r0, r0, r0, lsl r0
 628:	84080e42 	strhi	r0, [r8], #-3650	; 0xfffff1be
 62c:	00018e02 	andeq	r8, r1, r2, lsl #28
 630:	00000014 	andeq	r0, r0, r4, lsl r0
 634:	000005e4 	andeq	r0, r0, r4, ror #11
 638:	000095c0 	andeq	r9, r0, r0, asr #11
 63c:	00000010 	andeq	r0, r0, r0, lsl r0
 640:	84080e42 	strhi	r0, [r8], #-3650	; 0xfffff1be
 644:	00018e02 	andeq	r8, r1, r2, lsl #28
 648:	00000014 	andeq	r0, r0, r4, lsl r0
 64c:	000005e4 	andeq	r0, r0, r4, ror #11
 650:	000095d0 	ldrdeq	r9, [r0], -r0
 654:	00000010 	andeq	r0, r0, r0, lsl r0
 658:	84080e42 	strhi	r0, [r8], #-3650	; 0xfffff1be
 65c:	00018e02 	andeq	r8, r1, r2, lsl #28
 660:	00000014 	andeq	r0, r0, r4, lsl r0
 664:	000005e4 	andeq	r0, r0, r4, ror #11
 668:	000095e0 	andeq	r9, r0, r0, ror #11
 66c:	00000018 	andeq	r0, r0, r8, lsl r0
 670:	84080e42 	strhi	r0, [r8], #-3650	; 0xfffff1be
 674:	00018e02 	andeq	r8, r1, r2, lsl #28
 678:	0000000c 	andeq	r0, r0, ip
 67c:	ffffffff 			; <UNDEFINED> instruction: 0xffffffff
 680:	7c020001 	stcvc	0, cr0, [r2], {1}
 684:	000d0c0e 	andeq	r0, sp, lr, lsl #24
 688:	00000014 	andeq	r0, r0, r4, lsl r0
 68c:	00000678 	andeq	r0, r0, r8, ror r6
 690:	000095f8 	strdeq	r9, [r0], -r8
 694:	00000014 	andeq	r0, r0, r4, lsl r0
 698:	84080e42 	strhi	r0, [r8], #-3650	; 0xfffff1be
 69c:	00018e02 	andeq	r8, r1, r2, lsl #28
 6a0:	0000000c 	andeq	r0, r0, ip
 6a4:	00000678 	andeq	r0, r0, r8, ror r6
 6a8:	0000960c 	andeq	r9, r0, ip, lsl #12
 6ac:	00000018 	andeq	r0, r0, r8, lsl r0
 6b0:	0000000c 	andeq	r0, r0, ip
 6b4:	00000678 	andeq	r0, r0, r8, ror r6
 6b8:	00009624 	andeq	r9, r0, r4, lsr #12
 6bc:	00000010 	andeq	r0, r0, r0, lsl r0
 6c0:	0000000c 	andeq	r0, r0, ip
 6c4:	ffffffff 			; <UNDEFINED> instruction: 0xffffffff
 6c8:	7c020001 	stcvc	0, cr0, [r2], {1}
 6cc:	000d0c0e 	andeq	r0, sp, lr, lsl #24
 6d0:	0000000c 	andeq	r0, r0, ip
 6d4:	000006c0 	andeq	r0, r0, r0, asr #13
 6d8:	00009634 	andeq	r9, r0, r4, lsr r6
 6dc:	00000034 	andeq	r0, r0, r4, lsr r0
 6e0:	0000000c 	andeq	r0, r0, ip
 6e4:	ffffffff 			; <UNDEFINED> instruction: 0xffffffff
 6e8:	7c020001 	stcvc	0, cr0, [r2], {1}
 6ec:	000d0c0e 	andeq	r0, sp, lr, lsl #24
 6f0:	0000000c 	andeq	r0, r0, ip
 6f4:	000006e0 	andeq	r0, r0, r0, ror #13
 6f8:	00009668 	andeq	r9, r0, r8, ror #12
 6fc:	0000002c 	andeq	r0, r0, ip, lsr #32
 700:	0000000c 	andeq	r0, r0, ip
 704:	ffffffff 			; <UNDEFINED> instruction: 0xffffffff
 708:	7c020001 	stcvc	0, cr0, [r2], {1}
 70c:	000d0c0e 	andeq	r0, sp, lr, lsl #24
 710:	0000000c 	andeq	r0, r0, ip
 714:	00000700 	andeq	r0, r0, r0, lsl #14
 718:	00009694 	muleq	r0, r4, r6
 71c:	00000020 	andeq	r0, r0, r0, lsr #32
 720:	0000000c 	andeq	r0, r0, ip
 724:	ffffffff 			; <UNDEFINED> instruction: 0xffffffff
 728:	7c020001 	stcvc	0, cr0, [r2], {1}
 72c:	000d0c0e 	andeq	r0, sp, lr, lsl #24
 730:	0000000c 	andeq	r0, r0, ip
 734:	00000720 	andeq	r0, r0, r0, lsr #14
 738:	000096b4 			; <UNDEFINED> instruction: 0x000096b4
 73c:	0000002c 	andeq	r0, r0, ip, lsr #32
 740:	0000000c 	andeq	r0, r0, ip
 744:	ffffffff 			; <UNDEFINED> instruction: 0xffffffff
 748:	7c020001 	stcvc	0, cr0, [r2], {1}
 74c:	000d0c0e 	andeq	r0, sp, lr, lsl #24
 750:	0000000c 	andeq	r0, r0, ip
 754:	00000740 	andeq	r0, r0, r0, asr #14
 758:	000096e0 	andeq	r9, r0, r0, ror #13
 75c:	00000004 	andeq	r0, r0, r4
