
header.elf:     file format elf32-littlearm


Disassembly of section .crt0_header:

00008000 <.crt0_header>:
    8000:	ea00000e 	b	8040 <_start>
    8004:	6c6c6568 	cfstr64vs	mvdx6, [ip], #-416	; 0xfffffe60
    8008:	0000006f 	andeq	r0, r0, pc, rrx
    800c:	00000040 	andeq	r0, r0, r0, asr #32
    8010:	00008000 	andeq	r8, r0, r0
    8014:	00000f70 	andeq	r0, r0, r0, ror pc
	...

Disassembly of section .text:

00008040 <_start>:
    8040:	e3a00013 	mov	r0, #19, 0
    8044:	e3800080 	orr	r0, r0, #128, 0	; 0x80
    8048:	e129f000 	msr	CPSR_fc, r0
    804c:	e3a01000 	mov	r1, #0, 0
    8050:	ee071f95 	mcr	15, 0, r1, cr7, cr5, {4}
    8054:	e3a0d302 	mov	sp, #134217728	; 0x8000000
    8058:	e3a0b000 	mov	fp, #0, 0
    805c:	eb000213 	bl	88b0 <_cstart>
    8060:	eb00022d 	bl	891c <rpi_reboot>

00008064 <PUT32>:
    8064:	e5801000 	str	r1, [r0]
    8068:	e12fff1e 	bx	lr

0000806c <GET32>:
    806c:	e5900000 	ldr	r0, [r0]
    8070:	e12fff1e 	bx	lr

00008074 <BRANCHTO>:
    8074:	e12fff10 	bx	r0

00008078 <notmain>:
    8078:	e92d4010 	push	{r4, lr}
    807c:	e3a03902 	mov	r3, #32768	; 0x8000
    8080:	e5934020 	ldr	r4, [r3, #32]
    8084:	e59f101c 	ldr	r1, [pc, #28]	; 80a8 <notmain+0x30>
    8088:	e59f001c 	ldr	r0, [pc, #28]	; 80ac <notmain+0x34>
    808c:	eb000009 	bl	80b8 <printk>
    8090:	e1a01004 	mov	r1, r4
    8094:	e59f0014 	ldr	r0, [pc, #20]	; 80b0 <notmain+0x38>
    8098:	eb000006 	bl	80b8 <printk>
    809c:	e59f0010 	ldr	r0, [pc, #16]	; 80b4 <notmain+0x3c>
    80a0:	eb000004 	bl	80b8 <printk>
    80a4:	eb0001f6 	bl	8884 <clean_reboot>
    80a8:	00008004 	andeq	r8, r0, r4
    80ac:	00008e0c 	andeq	r8, r0, ip, lsl #28
    80b0:	00008e14 	andeq	r8, r0, r4, lsl lr
    80b4:	00008e1c 	andeq	r8, r0, ip, lsl lr

000080b8 <printk>:
    80b8:	e92d000f 	push	{r0, r1, r2, r3}
    80bc:	e92d4030 	push	{r4, r5, lr}
    80c0:	e24dd00c 	sub	sp, sp, #12, 0
    80c4:	e28d301c 	add	r3, sp, #28, 0
    80c8:	e58d3004 	str	r3, [sp, #4]
    80cc:	e59f5034 	ldr	r5, [pc, #52]	; 8108 <printk+0x50>
    80d0:	e59d2018 	ldr	r2, [sp, #24]
    80d4:	e3a01b01 	mov	r1, #1024	; 0x400
    80d8:	e1a00005 	mov	r0, r5
    80dc:	eb0000ba 	bl	83cc <va_printk>
    80e0:	e1a04000 	mov	r4, r0
    80e4:	e59f3020 	ldr	r3, [pc, #32]	; 810c <printk+0x54>
    80e8:	e5933000 	ldr	r3, [r3]
    80ec:	e1a00005 	mov	r0, r5
    80f0:	e12fff33 	blx	r3
    80f4:	e1a00004 	mov	r0, r4
    80f8:	e28dd00c 	add	sp, sp, #12, 0
    80fc:	e8bd4030 	pop	{r4, r5, lr}
    8100:	e28dd010 	add	sp, sp, #16, 0
    8104:	e12fff1e 	bx	lr
    8108:	00008fb0 			; <UNDEFINED> instruction: 0x00008fb0
    810c:	00008e04 	andeq	r8, r0, r4, lsl #28

00008110 <internal_putk>:
    8110:	e92d4010 	push	{r4, lr}
    8114:	e1a04000 	mov	r4, r0
    8118:	e5d40000 	ldrb	r0, [r4]
    811c:	e3500000 	cmp	r0, #0, 0
    8120:	0a000004 	beq	8138 <internal_putk+0x28>
    8124:	e59f3014 	ldr	r3, [pc, #20]	; 8140 <internal_putk+0x30>
    8128:	e5933000 	ldr	r3, [r3]
    812c:	e12fff33 	blx	r3
    8130:	e2844001 	add	r4, r4, #1, 0
    8134:	eafffff7 	b	8118 <internal_putk+0x8>
    8138:	e3a00001 	mov	r0, #1, 0
    813c:	e8bd8010 	pop	{r4, pc}
    8140:	00008e08 	andeq	r8, r0, r8, lsl #28

00008144 <isdigit>:
    8144:	e2400030 	sub	r0, r0, #48, 0	; 0x30
    8148:	e3500009 	cmp	r0, #9, 0
    814c:	83a00000 	movhi	r0, #0, 0
    8150:	93a00001 	movls	r0, #1, 0
    8154:	e12fff1e 	bx	lr

00008158 <pad>:
    8158:	e0401001 	sub	r1, r0, r1
    815c:	e1510002 	cmp	r1, r2
    8160:	b3a03020 	movlt	r3, #32, 0
    8164:	b4c03001 	strblt	r3, [r0], #1
    8168:	b2811001 	addlt	r1, r1, #1, 0
    816c:	bafffffa 	blt	815c <pad+0x4>
    8170:	e3a03000 	mov	r3, #0, 0
    8174:	e5c03000 	strb	r3, [r0]
    8178:	e12fff1e 	bx	lr

0000817c <reverse>:
    817c:	e042c003 	sub	ip, r2, r3
    8180:	e28cc001 	add	ip, ip, #1, 0
    8184:	e15c0001 	cmp	ip, r1
    8188:	c04cc001 	subgt	ip, ip, r1
    818c:	c083300c 	addgt	r3, r3, ip
    8190:	e2421001 	sub	r1, r2, #1, 0
    8194:	e1a02000 	mov	r2, r0
    8198:	e1510003 	cmp	r1, r3
    819c:	2451c001 	ldrbcs	ip, [r1], #-1
    81a0:	24c2c001 	strbcs	ip, [r2], #1
    81a4:	2afffffb 	bcs	8198 <reverse+0x1c>
    81a8:	e3a03000 	mov	r3, #0, 0
    81ac:	e5c23000 	strb	r3, [r2]
    81b0:	e12fff1e 	bx	lr

000081b4 <emit>:
    81b4:	e92d40f0 	push	{r4, r5, r6, r7, lr}
    81b8:	e24dd04c 	sub	sp, sp, #76, 0	; 0x4c
    81bc:	e1a05001 	mov	r5, r1
    81c0:	e1a04002 	mov	r4, r2
    81c4:	e59d2060 	ldr	r2, [sp, #96]	; 0x60
    81c8:	e1520004 	cmp	r2, r4
    81cc:	c2442001 	subgt	r2, r4, #1, 0
    81d0:	e1a0c003 	mov	ip, r3
    81d4:	e2400002 	sub	r0, r0, #2, 0
    81d8:	e350000e 	cmp	r0, #14, 0
    81dc:	979ff100 	ldrls	pc, [pc, r0, lsl #2]
    81e0:	ea000050 	b	8328 <emit+0x174>
    81e4:	00008300 	andeq	r8, r0, r0, lsl #6
    81e8:	00008328 	andeq	r8, r0, r8, lsr #6
    81ec:	00008328 	andeq	r8, r0, r8, lsr #6
    81f0:	00008328 	andeq	r8, r0, r8, lsr #6
    81f4:	00008328 	andeq	r8, r0, r8, lsr #6
    81f8:	00008328 	andeq	r8, r0, r8, lsr #6
    81fc:	000082f4 	strdeq	r8, [r0], -r4
    8200:	00008328 	andeq	r8, r0, r8, lsr #6
    8204:	00008220 	andeq	r8, r0, r0, lsr #4
    8208:	00008328 	andeq	r8, r0, r8, lsr #6
    820c:	00008328 	andeq	r8, r0, r8, lsr #6
    8210:	00008328 	andeq	r8, r0, r8, lsr #6
    8214:	00008328 	andeq	r8, r0, r8, lsr #6
    8218:	00008328 	andeq	r8, r0, r8, lsr #6
    821c:	00008298 	muleq	r0, r8, r2
    8220:	e59d1064 	ldr	r1, [sp, #100]	; 0x64
    8224:	e2511000 	subs	r1, r1, #0, 0
    8228:	13a01001 	movne	r1, #1, 0
    822c:	e0111fa3 	ands	r1, r1, r3, lsr #31
    8230:	0a000016 	beq	8290 <emit+0xdc>
    8234:	e263c000 	rsb	ip, r3, #0, 0
    8238:	e3a06001 	mov	r6, #1, 0
    823c:	e28d0008 	add	r0, sp, #8, 0
    8240:	e59f3100 	ldr	r3, [pc, #256]	; 8348 <emit+0x194>
    8244:	e0831c93 	umull	r1, r3, r3, ip
    8248:	e1a031a3 	lsr	r3, r3, #3
    824c:	e1a0e003 	mov	lr, r3
    8250:	e0833103 	add	r3, r3, r3, lsl #2
    8254:	e04c3083 	sub	r3, ip, r3, lsl #1
    8258:	e1a01000 	mov	r1, r0
    825c:	e2800001 	add	r0, r0, #1, 0
    8260:	e59f70e4 	ldr	r7, [pc, #228]	; 834c <emit+0x198>
    8264:	e7d73003 	ldrb	r3, [r7, r3]
    8268:	e5c13000 	strb	r3, [r1]
    826c:	e1a0300c 	mov	r3, ip
    8270:	e1a0c00e 	mov	ip, lr
    8274:	e3530009 	cmp	r3, #9, 0
    8278:	8afffff0 	bhi	8240 <emit+0x8c>
    827c:	e3560000 	cmp	r6, #0, 0
    8280:	13a0302d 	movne	r3, #45, 0	; 0x2d
    8284:	15c03000 	strbne	r3, [r0]
    8288:	12810002 	addne	r0, r1, #2, 0
    828c:	ea00000f 	b	82d0 <emit+0x11c>
    8290:	e3a06000 	mov	r6, #0, 0
    8294:	eaffffe8 	b	823c <emit+0x88>
    8298:	e28d1008 	add	r1, sp, #8, 0
    829c:	e20c000f 	and	r0, ip, #15, 0
    82a0:	e59fe0a8 	ldr	lr, [pc, #168]	; 8350 <emit+0x19c>
    82a4:	e7de0000 	ldrb	r0, [lr, r0]
    82a8:	e5c10000 	strb	r0, [r1]
    82ac:	e2811001 	add	r1, r1, #1, 0
    82b0:	e35c000f 	cmp	ip, #15, 0
    82b4:	e1a0c22c 	lsr	ip, ip, #4
    82b8:	8afffff7 	bhi	829c <emit+0xe8>
    82bc:	e1a00001 	mov	r0, r1
    82c0:	e3a03078 	mov	r3, #120, 0	; 0x78
    82c4:	e4c03002 	strb	r3, [r0], #2
    82c8:	e3a03030 	mov	r3, #48, 0	; 0x30
    82cc:	e5c13001 	strb	r3, [r1, #1]
    82d0:	e28d1008 	add	r1, sp, #8, 0
    82d4:	ebffff9f 	bl	8158 <pad>
    82d8:	e1a02000 	mov	r2, r0
    82dc:	e28d3008 	add	r3, sp, #8, 0
    82e0:	e1a01004 	mov	r1, r4
    82e4:	e1a00005 	mov	r0, r5
    82e8:	ebffffa3 	bl	817c <reverse>
    82ec:	e28dd04c 	add	sp, sp, #76, 0	; 0x4c
    82f0:	e8bd80f0 	pop	{r4, r5, r6, r7, pc}
    82f4:	e5cd3008 	strb	r3, [sp, #8]
    82f8:	e28d0009 	add	r0, sp, #9, 0
    82fc:	eafffff3 	b	82d0 <emit+0x11c>
    8300:	e28d0008 	add	r0, sp, #8, 0
    8304:	e20c1001 	and	r1, ip, #1, 0
    8308:	e59fe044 	ldr	lr, [pc, #68]	; 8354 <emit+0x1a0>
    830c:	e7de1001 	ldrb	r1, [lr, r1]
    8310:	e5c01000 	strb	r1, [r0]
    8314:	e2800001 	add	r0, r0, #1, 0
    8318:	e35c0001 	cmp	ip, #1, 0
    831c:	e1a0c0ac 	lsr	ip, ip, #1
    8320:	8afffff7 	bhi	8304 <emit+0x150>
    8324:	eaffffe9 	b	82d0 <emit+0x11c>
    8328:	e59f3028 	ldr	r3, [pc, #40]	; 8358 <emit+0x1a4>
    832c:	e58d3000 	str	r3, [sp]
    8330:	e3a03079 	mov	r3, #121, 0	; 0x79
    8334:	e59f2020 	ldr	r2, [pc, #32]	; 835c <emit+0x1a8>
    8338:	e59f1020 	ldr	r1, [pc, #32]	; 8360 <emit+0x1ac>
    833c:	e59f0020 	ldr	r0, [pc, #32]	; 8364 <emit+0x1b0>
    8340:	ebffff5c 	bl	80b8 <printk>
    8344:	eb00014e 	bl	8884 <clean_reboot>
    8348:	cccccccd 	stclgt	12, cr12, [ip], {205}	; 0xcd
    834c:	00008e54 	andeq	r8, r0, r4, asr lr
    8350:	00008e60 	andeq	r8, r0, r0, ror #28
    8354:	00008e74 	andeq	r8, r0, r4, ror lr
    8358:	00008e50 	andeq	r8, r0, r0, asr lr
    835c:	00008f80 	andeq	r8, r0, r0, lsl #31
    8360:	00008e28 	andeq	r8, r0, r8, lsr #28
    8364:	00008e3c 	andeq	r8, r0, ip, lsr lr

00008368 <rpi_set_output>:
    8368:	e3500000 	cmp	r0, #0, 0
    836c:	0a000006 	beq	838c <rpi_set_output+0x24>
    8370:	e59f303c 	ldr	r3, [pc, #60]	; 83b4 <rpi_set_output+0x4c>
    8374:	e5830000 	str	r0, [r3]
    8378:	e3510000 	cmp	r1, #0, 0
    837c:	012fff1e 	bxeq	lr
    8380:	e59f3030 	ldr	r3, [pc, #48]	; 83b8 <rpi_set_output+0x50>
    8384:	e5831000 	str	r1, [r3]
    8388:	e12fff1e 	bx	lr
    838c:	e52de004 	push	{lr}		; (str lr, [sp, #-4]!)
    8390:	e24dd00c 	sub	sp, sp, #12, 0
    8394:	e59f3020 	ldr	r3, [pc, #32]	; 83bc <rpi_set_output+0x54>
    8398:	e58d3000 	str	r3, [sp]
    839c:	e3a03020 	mov	r3, #32, 0
    83a0:	e59f2018 	ldr	r2, [pc, #24]	; 83c0 <rpi_set_output+0x58>
    83a4:	e59f1018 	ldr	r1, [pc, #24]	; 83c4 <rpi_set_output+0x5c>
    83a8:	e59f0018 	ldr	r0, [pc, #24]	; 83c8 <rpi_set_output+0x60>
    83ac:	ebffff41 	bl	80b8 <printk>
    83b0:	eb000133 	bl	8884 <clean_reboot>
    83b4:	00008e08 	andeq	r8, r0, r8, lsl #28
    83b8:	00008e04 	andeq	r8, r0, r4, lsl #28
    83bc:	00008e78 	andeq	r8, r0, r8, ror lr
    83c0:	00008f88 	andeq	r8, r0, r8, lsl #31
    83c4:	00008e28 	andeq	r8, r0, r8, lsr #28
    83c8:	00008e3c 	andeq	r8, r0, ip, lsr lr

000083cc <va_printk>:
    83cc:	e92d4ff0 	push	{r4, r5, r6, r7, r8, r9, sl, fp, lr}
    83d0:	e24ddf45 	sub	sp, sp, #276	; 0x114
    83d4:	e1a09000 	mov	r9, r0
    83d8:	e58d2008 	str	r2, [sp, #8]
    83dc:	e58d300c 	str	r3, [sp, #12]
    83e0:	e2411001 	sub	r1, r1, #1, 0
    83e4:	e0808001 	add	r8, r0, r1
    83e8:	e3a03000 	mov	r3, #0, 0
    83ec:	e5c03000 	strb	r3, [r0]
    83f0:	e1a04000 	mov	r4, r0
    83f4:	e1a06002 	mov	r6, r2
    83f8:	ea000001 	b	8404 <va_printk+0x38>
    83fc:	e2866001 	add	r6, r6, #1, 0
    8400:	e4c43001 	strb	r3, [r4], #1
    8404:	e5d63000 	ldrb	r3, [r6]
    8408:	e3530000 	cmp	r3, #0, 0
    840c:	0a000108 	beq	8834 <va_printk+0x468>
    8410:	e1540008 	cmp	r4, r8
    8414:	2a000106 	bcs	8834 <va_printk+0x468>
    8418:	e3530025 	cmp	r3, #37, 0	; 0x25
    841c:	1afffff6 	bne	83fc <va_printk+0x30>
    8420:	e5d62001 	ldrb	r2, [r6, #1]
    8424:	e3520025 	cmp	r2, #37, 0	; 0x25
    8428:	04c43001 	strbeq	r3, [r4], #1
    842c:	02866002 	addeq	r6, r6, #2, 0
    8430:	0afffff3 	beq	8404 <va_printk+0x38>
    8434:	e2866001 	add	r6, r6, #1, 0
    8438:	e3a05000 	mov	r5, #0, 0
    843c:	e5d67000 	ldrb	r7, [r6]
    8440:	e1a0a007 	mov	sl, r7
    8444:	e1a00007 	mov	r0, r7
    8448:	ebffff3d 	bl	8144 <isdigit>
    844c:	e3500000 	cmp	r0, #0, 0
    8450:	0a000004 	beq	8468 <va_printk+0x9c>
    8454:	e0855105 	add	r5, r5, r5, lsl #2
    8458:	e0875085 	add	r5, r7, r5, lsl #1
    845c:	e2455030 	sub	r5, r5, #48, 0	; 0x30
    8460:	e2866001 	add	r6, r6, #1, 0
    8464:	eafffff4 	b	843c <va_printk+0x70>
    8468:	e355001f 	cmp	r5, #31, 0
    846c:	8a00001a 	bhi	84dc <va_printk+0x110>
    8470:	e2477062 	sub	r7, r7, #98, 0	; 0x62
    8474:	e3570016 	cmp	r7, #22, 0
    8478:	979ff107 	ldrls	pc, [pc, r7, lsl #2]
    847c:	ea0000d4 	b	87d4 <va_printk+0x408>
    8480:	00008758 	andeq	r8, r0, r8, asr r7
    8484:	000087a0 	andeq	r8, r0, r0, lsr #15
    8488:	000086b8 			; <UNDEFINED> instruction: 0x000086b8
    848c:	000087d4 	ldrdeq	r8, [r0], -r4
    8490:	000086a0 	andeq	r8, r0, r0, lsr #13
    8494:	000087d4 	ldrdeq	r8, [r0], -r4
    8498:	000087d4 	ldrdeq	r8, [r0], -r4
    849c:	000087d4 	ldrdeq	r8, [r0], -r4
    84a0:	000087d4 	ldrdeq	r8, [r0], -r4
    84a4:	000087d4 	ldrdeq	r8, [r0], -r4
    84a8:	000084fc 	strdeq	r8, [r0], -ip
    84ac:	000087d4 	ldrdeq	r8, [r0], -r4
    84b0:	000087d4 	ldrdeq	r8, [r0], -r4
    84b4:	000087d4 	ldrdeq	r8, [r0], -r4
    84b8:	00008724 	andeq	r8, r0, r4, lsr #14
    84bc:	000087d4 	ldrdeq	r8, [r0], -r4
    84c0:	000087d4 	ldrdeq	r8, [r0], -r4
    84c4:	0000878c 	andeq	r8, r0, ip, lsl #15
    84c8:	000087d4 	ldrdeq	r8, [r0], -r4
    84cc:	000086f0 	strdeq	r8, [r0], -r0
    84d0:	000087d4 	ldrdeq	r8, [r0], -r4
    84d4:	000087d4 	ldrdeq	r8, [r0], -r4
    84d8:	00008724 	andeq	r8, r0, r4, lsr #14
    84dc:	e59f3364 	ldr	r3, [pc, #868]	; 8848 <va_printk+0x47c>
    84e0:	e58d3000 	str	r3, [sp]
    84e4:	e3a03098 	mov	r3, #152, 0	; 0x98
    84e8:	e59f235c 	ldr	r2, [pc, #860]	; 884c <va_printk+0x480>
    84ec:	e59f135c 	ldr	r1, [pc, #860]	; 8850 <va_printk+0x484>
    84f0:	e59f035c 	ldr	r0, [pc, #860]	; 8854 <va_printk+0x488>
    84f4:	ebfffeef 	bl	80b8 <printk>
    84f8:	eb0000e1 	bl	8884 <clean_reboot>
    84fc:	e3a02003 	mov	r2, #3, 0
    8500:	e59f1350 	ldr	r1, [pc, #848]	; 8858 <va_printk+0x48c>
    8504:	e1a00006 	mov	r0, r6
    8508:	eb0001e4 	bl	8ca0 <strncmp>
    850c:	e3500000 	cmp	r0, #0, 0
    8510:	0a000005 	beq	852c <va_printk+0x160>
    8514:	e3a02003 	mov	r2, #3, 0
    8518:	e59f133c 	ldr	r1, [pc, #828]	; 885c <va_printk+0x490>
    851c:	e1a00006 	mov	r0, r6
    8520:	eb0001de 	bl	8ca0 <strncmp>
    8524:	e3500000 	cmp	r0, #0, 0
    8528:	1a000033 	bne	85fc <va_printk+0x230>
    852c:	e286b002 	add	fp, r6, #2, 0
    8530:	e59d300c 	ldr	r3, [sp, #12]
    8534:	e2833007 	add	r3, r3, #7, 0
    8538:	e3c33007 	bic	r3, r3, #7, 0
    853c:	e2832008 	add	r2, r3, #8, 0
    8540:	e58d200c 	str	r2, [sp, #12]
    8544:	e593a000 	ldr	sl, [r3]
    8548:	e5937004 	ldr	r7, [r3, #4]
    854c:	e1a01007 	mov	r1, r7
    8550:	e59f0308 	ldr	r0, [pc, #776]	; 8860 <va_printk+0x494>
    8554:	ebfffed7 	bl	80b8 <printk>
    8558:	e1a0100a 	mov	r1, sl
    855c:	e59f0300 	ldr	r0, [pc, #768]	; 8864 <va_printk+0x498>
    8560:	ebfffed4 	bl	80b8 <printk>
    8564:	e3a02003 	mov	r2, #3, 0
    8568:	e59f12e8 	ldr	r1, [pc, #744]	; 8858 <va_printk+0x48c>
    856c:	e1a00006 	mov	r0, r6
    8570:	eb0001ca 	bl	8ca0 <strncmp>
    8574:	e3500000 	cmp	r0, #0, 0
    8578:	0a000027 	beq	861c <va_printk+0x250>
    857c:	e3a02003 	mov	r2, #3, 0
    8580:	e59f12d4 	ldr	r1, [pc, #724]	; 885c <va_printk+0x490>
    8584:	e1a00006 	mov	r0, r6
    8588:	eb0001c4 	bl	8ca0 <strncmp>
    858c:	e3500000 	cmp	r0, #0, 0
    8590:	1a00003b 	bne	8684 <va_printk+0x2b8>
    8594:	e3a06000 	mov	r6, #0, 0
    8598:	e58d6004 	str	r6, [sp, #4]
    859c:	e58d5000 	str	r5, [sp]
    85a0:	e1a03007 	mov	r3, r7
    85a4:	e3a02080 	mov	r2, #128, 0	; 0x80
    85a8:	e28d1010 	add	r1, sp, #16, 0
    85ac:	e3a0000a 	mov	r0, #10, 0
    85b0:	ebfffeff 	bl	81b4 <emit>
    85b4:	e1a07000 	mov	r7, r0
    85b8:	e58d6004 	str	r6, [sp, #4]
    85bc:	e58d5000 	str	r5, [sp]
    85c0:	e1a0300a 	mov	r3, sl
    85c4:	e3a02080 	mov	r2, #128, 0	; 0x80
    85c8:	e28d1090 	add	r1, sp, #144, 0	; 0x90
    85cc:	e3a0000a 	mov	r0, #10, 0
    85d0:	ebfffef7 	bl	81b4 <emit>
    85d4:	e59f128c 	ldr	r1, [pc, #652]	; 8868 <va_printk+0x49c>
    85d8:	e28d0010 	add	r0, sp, #16, 0
    85dc:	eb00019c 	bl	8c54 <strcmp>
    85e0:	e1500006 	cmp	r0, r6
    85e4:	1a000021 	bne	8670 <va_printk+0x2a4>
    85e8:	e28d1090 	add	r1, sp, #144, 0	; 0x90
    85ec:	e28d0010 	add	r0, sp, #16, 0
    85f0:	eb0001a2 	bl	8c80 <strcpy>
    85f4:	e1a0600b 	mov	r6, fp
    85f8:	ea00003a 	b	86e8 <va_printk+0x31c>
    85fc:	e59f3268 	ldr	r3, [pc, #616]	; 886c <va_printk+0x4a0>
    8600:	e58d3000 	str	r3, [sp]
    8604:	e3a0309f 	mov	r3, #159, 0	; 0x9f
    8608:	e59f223c 	ldr	r2, [pc, #572]	; 884c <va_printk+0x480>
    860c:	e59f123c 	ldr	r1, [pc, #572]	; 8850 <va_printk+0x484>
    8610:	e59f023c 	ldr	r0, [pc, #572]	; 8854 <va_printk+0x488>
    8614:	ebfffea7 	bl	80b8 <printk>
    8618:	eb000099 	bl	8884 <clean_reboot>
    861c:	e3a06000 	mov	r6, #0, 0
    8620:	e58d6004 	str	r6, [sp, #4]
    8624:	e58d5000 	str	r5, [sp]
    8628:	e1a03007 	mov	r3, r7
    862c:	e3a02080 	mov	r2, #128, 0	; 0x80
    8630:	e28d1010 	add	r1, sp, #16, 0
    8634:	e3a00010 	mov	r0, #16, 0
    8638:	ebfffedd 	bl	81b4 <emit>
    863c:	e1a07000 	mov	r7, r0
    8640:	e58d6004 	str	r6, [sp, #4]
    8644:	e58d5000 	str	r5, [sp]
    8648:	e1a0300a 	mov	r3, sl
    864c:	e3a02080 	mov	r2, #128, 0	; 0x80
    8650:	e28d1090 	add	r1, sp, #144, 0	; 0x90
    8654:	e3a00010 	mov	r0, #16, 0
    8658:	ebfffed5 	bl	81b4 <emit>
    865c:	e28d1092 	add	r1, sp, #146, 0	; 0x92
    8660:	e28d0010 	add	r0, sp, #16, 0
    8664:	eb00016d 	bl	8c20 <strcat>
    8668:	e1a0600b 	mov	r6, fp
    866c:	ea00001d 	b	86e8 <va_printk+0x31c>
    8670:	e28d1090 	add	r1, sp, #144, 0	; 0x90
    8674:	e28d0010 	add	r0, sp, #16, 0
    8678:	eb000168 	bl	8c20 <strcat>
    867c:	e1a0600b 	mov	r6, fp
    8680:	ea000018 	b	86e8 <va_printk+0x31c>
    8684:	e58d6000 	str	r6, [sp]
    8688:	e3a030b6 	mov	r3, #182, 0	; 0xb6
    868c:	e59f21b8 	ldr	r2, [pc, #440]	; 884c <va_printk+0x480>
    8690:	e59f11b8 	ldr	r1, [pc, #440]	; 8850 <va_printk+0x484>
    8694:	e59f01d4 	ldr	r0, [pc, #468]	; 8870 <va_printk+0x4a4>
    8698:	ebfffe86 	bl	80b8 <printk>
    869c:	eb000078 	bl	8884 <clean_reboot>
    86a0:	e3a030be 	mov	r3, #190, 0	; 0xbe
    86a4:	e59f21a0 	ldr	r2, [pc, #416]	; 884c <va_printk+0x480>
    86a8:	e59f11a0 	ldr	r1, [pc, #416]	; 8850 <va_printk+0x484>
    86ac:	e59f01c0 	ldr	r0, [pc, #448]	; 8874 <va_printk+0x4a8>
    86b0:	ebfffe80 	bl	80b8 <printk>
    86b4:	eb000072 	bl	8884 <clean_reboot>
    86b8:	e59d300c 	ldr	r3, [sp, #12]
    86bc:	e2832004 	add	r2, r3, #4, 0
    86c0:	e58d200c 	str	r2, [sp, #12]
    86c4:	e5933000 	ldr	r3, [r3]
    86c8:	e3a02001 	mov	r2, #1, 0
    86cc:	e58d2004 	str	r2, [sp, #4]
    86d0:	e58d5000 	str	r5, [sp]
    86d4:	e3a02080 	mov	r2, #128, 0	; 0x80
    86d8:	e28d1010 	add	r1, sp, #16, 0
    86dc:	e3a0000a 	mov	r0, #10, 0
    86e0:	ebfffeb3 	bl	81b4 <emit>
    86e4:	e1a07000 	mov	r7, r0
    86e8:	e2866001 	add	r6, r6, #1, 0
    86ec:	ea00004a 	b	881c <va_printk+0x450>
    86f0:	e59d300c 	ldr	r3, [sp, #12]
    86f4:	e2832004 	add	r2, r3, #4, 0
    86f8:	e58d200c 	str	r2, [sp, #12]
    86fc:	e5933000 	ldr	r3, [r3]
    8700:	e3a02000 	mov	r2, #0, 0
    8704:	e58d2004 	str	r2, [sp, #4]
    8708:	e58d5000 	str	r5, [sp]
    870c:	e3a02080 	mov	r2, #128, 0	; 0x80
    8710:	e28d1010 	add	r1, sp, #16, 0
    8714:	e3a0000a 	mov	r0, #10, 0
    8718:	ebfffea5 	bl	81b4 <emit>
    871c:	e1a07000 	mov	r7, r0
    8720:	eafffff0 	b	86e8 <va_printk+0x31c>
    8724:	e59d300c 	ldr	r3, [sp, #12]
    8728:	e2832004 	add	r2, r3, #4, 0
    872c:	e58d200c 	str	r2, [sp, #12]
    8730:	e5933000 	ldr	r3, [r3]
    8734:	e3a02000 	mov	r2, #0, 0
    8738:	e58d2004 	str	r2, [sp, #4]
    873c:	e58d5000 	str	r5, [sp]
    8740:	e3a02080 	mov	r2, #128, 0	; 0x80
    8744:	e28d1010 	add	r1, sp, #16, 0
    8748:	e3a00010 	mov	r0, #16, 0
    874c:	ebfffe98 	bl	81b4 <emit>
    8750:	e1a07000 	mov	r7, r0
    8754:	eaffffe3 	b	86e8 <va_printk+0x31c>
    8758:	e59d300c 	ldr	r3, [sp, #12]
    875c:	e2832004 	add	r2, r3, #4, 0
    8760:	e58d200c 	str	r2, [sp, #12]
    8764:	e5933000 	ldr	r3, [r3]
    8768:	e3a02000 	mov	r2, #0, 0
    876c:	e58d2004 	str	r2, [sp, #4]
    8770:	e58d5000 	str	r5, [sp]
    8774:	e3a02080 	mov	r2, #128, 0	; 0x80
    8778:	e28d1010 	add	r1, sp, #16, 0
    877c:	e3a00002 	mov	r0, #2, 0
    8780:	ebfffe8b 	bl	81b4 <emit>
    8784:	e1a07000 	mov	r7, r0
    8788:	eaffffd6 	b	86e8 <va_printk+0x31c>
    878c:	e59d300c 	ldr	r3, [sp, #12]
    8790:	e2832004 	add	r2, r3, #4, 0
    8794:	e58d200c 	str	r2, [sp, #12]
    8798:	e5937000 	ldr	r7, [r3]
    879c:	eaffffd1 	b	86e8 <va_printk+0x31c>
    87a0:	e59d300c 	ldr	r3, [sp, #12]
    87a4:	e2832004 	add	r2, r3, #4, 0
    87a8:	e58d200c 	str	r2, [sp, #12]
    87ac:	e5933000 	ldr	r3, [r3]
    87b0:	e3a02000 	mov	r2, #0, 0
    87b4:	e58d2004 	str	r2, [sp, #4]
    87b8:	e58d5000 	str	r5, [sp]
    87bc:	e3a02080 	mov	r2, #128, 0	; 0x80
    87c0:	e28d1010 	add	r1, sp, #16, 0
    87c4:	e3a00008 	mov	r0, #8, 0
    87c8:	ebfffe79 	bl	81b4 <emit>
    87cc:	e1a07000 	mov	r7, r0
    87d0:	eaffffc4 	b	86e8 <va_printk+0x31c>
    87d4:	e3a03000 	mov	r3, #0, 0
    87d8:	e5c63001 	strb	r3, [r6, #1]
    87dc:	e1a0200a 	mov	r2, sl
    87e0:	e1a0100a 	mov	r1, sl
    87e4:	e59f008c 	ldr	r0, [pc, #140]	; 8878 <va_printk+0x4ac>
    87e8:	ebfffe32 	bl	80b8 <printk>
    87ec:	e59f3088 	ldr	r3, [pc, #136]	; 887c <va_printk+0x4b0>
    87f0:	e5933000 	ldr	r3, [r3]
    87f4:	e59d0008 	ldr	r0, [sp, #8]
    87f8:	e12fff33 	blx	r3
    87fc:	e3a030e2 	mov	r3, #226, 0	; 0xe2
    8800:	e59f2044 	ldr	r2, [pc, #68]	; 884c <va_printk+0x480>
    8804:	e59f1044 	ldr	r1, [pc, #68]	; 8850 <va_printk+0x484>
    8808:	e59f0070 	ldr	r0, [pc, #112]	; 8880 <va_printk+0x4b4>
    880c:	ebfffe29 	bl	80b8 <printk>
    8810:	eb00001b 	bl	8884 <clean_reboot>
    8814:	e2877001 	add	r7, r7, #1, 0
    8818:	e4c43001 	strb	r3, [r4], #1
    881c:	e1540008 	cmp	r4, r8
    8820:	2afffef7 	bcs	8404 <va_printk+0x38>
    8824:	e5d73000 	ldrb	r3, [r7]
    8828:	e3530000 	cmp	r3, #0, 0
    882c:	1afffff8 	bne	8814 <va_printk+0x448>
    8830:	eafffef3 	b	8404 <va_printk+0x38>
    8834:	e3a03000 	mov	r3, #0, 0
    8838:	e4c43001 	strb	r3, [r4], #1
    883c:	e0440009 	sub	r0, r4, r9
    8840:	e28ddf45 	add	sp, sp, #276	; 0x114
    8844:	e8bd8ff0 	pop	{r4, r5, r6, r7, r8, r9, sl, fp, pc}
    8848:	00008e80 	andeq	r8, r0, r0, lsl #29
    884c:	00008f98 	muleq	r0, r8, pc	; <UNPREDICTABLE>
    8850:	00008e28 	andeq	r8, r0, r8, lsr #28
    8854:	00008e3c 	andeq	r8, r0, ip, lsr lr
    8858:	00008e8c 	andeq	r8, r0, ip, lsl #29
    885c:	00008e90 	muleq	r0, r0, lr
    8860:	00008e94 	muleq	r0, r4, lr
    8864:	00008e9c 	muleq	r0, ip, lr
    8868:	00008e50 	andeq	r8, r0, r0, asr lr
    886c:	00008ea4 	andeq	r8, r0, r4, lsr #29
    8870:	00008ee0 	andeq	r8, r0, r0, ror #29
    8874:	00008f08 	andeq	r8, r0, r8, lsl #30
    8878:	00008f30 	andeq	r8, r0, r0, lsr pc
    887c:	00008e04 	andeq	r8, r0, r4, lsl #28
    8880:	00008f60 	andeq	r8, r0, r0, ror #30

00008884 <clean_reboot>:
    8884:	e92d4010 	push	{r4, lr}
    8888:	e59f3018 	ldr	r3, [pc, #24]	; 88a8 <clean_reboot+0x24>
    888c:	e5933000 	ldr	r3, [r3]
    8890:	e59f0014 	ldr	r0, [pc, #20]	; 88ac <clean_reboot+0x28>
    8894:	e12fff33 	blx	r3
    8898:	eb0000c3 	bl	8bac <uart_flush_tx>
    889c:	e3a0000a 	mov	r0, #10, 0
    88a0:	eb000047 	bl	89c4 <delay_ms>
    88a4:	eb00001c 	bl	891c <rpi_reboot>
    88a8:	00008e04 	andeq	r8, r0, r4, lsl #28
    88ac:	00008fa4 	andeq	r8, r0, r4, lsr #31

000088b0 <_cstart>:
    88b0:	e92d4010 	push	{r4, lr}
    88b4:	eb00000c 	bl	88ec <custom_loader>
    88b8:	e59f3024 	ldr	r3, [pc, #36]	; 88e4 <_cstart+0x34>
    88bc:	e59f2024 	ldr	r2, [pc, #36]	; 88e8 <_cstart+0x38>
    88c0:	e1530002 	cmp	r3, r2
    88c4:	33a02000 	movcc	r2, #0, 0
    88c8:	34832004 	strcc	r2, [r3], #4
    88cc:	3afffffa 	bcc	88bc <_cstart+0xc>
    88d0:	eb000057 	bl	8a34 <uart_init>
    88d4:	e3a03001 	mov	r3, #1, 0
    88d8:	ee0f3f1c 	mcr	15, 0, r3, cr15, cr12, {0}
    88dc:	ebfffde5 	bl	8078 <notmain>
    88e0:	ebffffe7 	bl	8884 <clean_reboot>
    88e4:	00008fb0 			; <UNDEFINED> instruction: 0x00008fb0
    88e8:	000093b0 			; <UNDEFINED> instruction: 0x000093b0

000088ec <custom_loader>:
    88ec:	e12fff1e 	bx	lr

000088f0 <at_user_level>:
    88f0:	e10f0000 	mrs	r0, CPSR
    88f4:	e200001f 	and	r0, r0, #31, 0
    88f8:	e3500010 	cmp	r0, #16, 0
    88fc:	13a00000 	movne	r0, #0, 0
    8900:	03a00001 	moveq	r0, #1, 0
    8904:	e12fff1e 	bx	lr

00008908 <set_user_level>:
    8908:	e10f3000 	mrs	r3, CPSR
    890c:	e3c3301f 	bic	r3, r3, #31, 0
    8910:	e3833010 	orr	r3, r3, #16, 0
    8914:	e129f003 	msr	CPSR_fc, r3
    8918:	e12fff1e 	bx	lr

0000891c <rpi_reboot>:
    891c:	e92d4010 	push	{r4, lr}
    8920:	ebfffff2 	bl	88f0 <at_user_level>
    8924:	e3500000 	cmp	r0, #0, 0
    8928:	1a00000a 	bne	8958 <rpi_reboot+0x3c>
    892c:	eb0000e6 	bl	8ccc <reboot_callout>
    8930:	eb00009d 	bl	8bac <uart_flush_tx>
    8934:	e3a0000a 	mov	r0, #10, 0
    8938:	eb000021 	bl	89c4 <delay_ms>
    893c:	e59f101c 	ldr	r1, [pc, #28]	; 8960 <rpi_reboot+0x44>
    8940:	e59f001c 	ldr	r0, [pc, #28]	; 8964 <rpi_reboot+0x48>
    8944:	ebfffdc6 	bl	8064 <PUT32>
    8948:	e59f1018 	ldr	r1, [pc, #24]	; 8968 <rpi_reboot+0x4c>
    894c:	e59f0018 	ldr	r0, [pc, #24]	; 896c <rpi_reboot+0x50>
    8950:	ebfffdc3 	bl	8064 <PUT32>
    8954:	eafffffe 	b	8954 <rpi_reboot+0x38>
    8958:	ebffffea 	bl	8908 <set_user_level>
    895c:	eafffff2 	b	892c <rpi_reboot+0x10>
    8960:	5a000001 	bpl	896c <rpi_reboot+0x50>
    8964:	20100024 	andscs	r0, r0, r4, lsr #32
    8968:	5a000020 	bpl	89f0 <delay_sec+0x14>
    896c:	2010001c 	andscs	r0, r0, ip, lsl r0

00008970 <timer_get_usec_raw>:
    8970:	e92d4010 	push	{r4, lr}
    8974:	e59f0004 	ldr	r0, [pc, #4]	; 8980 <timer_get_usec_raw+0x10>
    8978:	ebfffdbb 	bl	806c <GET32>
    897c:	e8bd8010 	pop	{r4, pc}
    8980:	20003004 	andcs	r3, r0, r4

00008984 <timer_get_usec>:
    8984:	e92d4010 	push	{r4, lr}
    8988:	eb0000d0 	bl	8cd0 <dev_barrier>
    898c:	ebfffff7 	bl	8970 <timer_get_usec_raw>
    8990:	e1a04000 	mov	r4, r0
    8994:	eb0000cd 	bl	8cd0 <dev_barrier>
    8998:	e1a00004 	mov	r0, r4
    899c:	e8bd8010 	pop	{r4, pc}

000089a0 <delay_us>:
    89a0:	e92d4070 	push	{r4, r5, r6, lr}
    89a4:	e1a05000 	mov	r5, r0
    89a8:	ebfffff5 	bl	8984 <timer_get_usec>
    89ac:	e1a04000 	mov	r4, r0
    89b0:	ebfffff3 	bl	8984 <timer_get_usec>
    89b4:	e0400004 	sub	r0, r0, r4
    89b8:	e1500005 	cmp	r0, r5
    89bc:	3afffffb 	bcc	89b0 <delay_us+0x10>
    89c0:	e8bd8070 	pop	{r4, r5, r6, pc}

000089c4 <delay_ms>:
    89c4:	e92d4010 	push	{r4, lr}
    89c8:	e0603280 	rsb	r3, r0, r0, lsl #5
    89cc:	e0800103 	add	r0, r0, r3, lsl #2
    89d0:	e1a00180 	lsl	r0, r0, #3
    89d4:	ebfffff1 	bl	89a0 <delay_us>
    89d8:	e8bd8010 	pop	{r4, pc}

000089dc <delay_sec>:
    89dc:	e92d4010 	push	{r4, lr}
    89e0:	e0603280 	rsb	r3, r0, r0, lsl #5
    89e4:	e0800103 	add	r0, r0, r3, lsl #2
    89e8:	e1a00180 	lsl	r0, r0, #3
    89ec:	ebfffff4 	bl	89c4 <delay_ms>
    89f0:	e8bd8010 	pop	{r4, pc}

000089f4 <and_in32>:
    89f4:	e92d4070 	push	{r4, r5, r6, lr}
    89f8:	e1a04000 	mov	r4, r0
    89fc:	e1a05001 	mov	r5, r1
    8a00:	ebfffd99 	bl	806c <GET32>
    8a04:	e0001005 	and	r1, r0, r5
    8a08:	e1a00004 	mov	r0, r4
    8a0c:	ebfffd94 	bl	8064 <PUT32>
    8a10:	e8bd8070 	pop	{r4, r5, r6, pc}

00008a14 <or_in32>:
    8a14:	e92d4070 	push	{r4, r5, r6, lr}
    8a18:	e1a04000 	mov	r4, r0
    8a1c:	e1a05001 	mov	r5, r1
    8a20:	ebfffd91 	bl	806c <GET32>
    8a24:	e1801005 	orr	r1, r0, r5
    8a28:	e1a00004 	mov	r0, r4
    8a2c:	ebfffd8c 	bl	8064 <PUT32>
    8a30:	e8bd8070 	pop	{r4, r5, r6, pc}

00008a34 <uart_init>:
    8a34:	e92d4010 	push	{r4, lr}
    8a38:	e3a01002 	mov	r1, #2, 0
    8a3c:	e3a0000e 	mov	r0, #14, 0
    8a40:	eb0000a8 	bl	8ce8 <gpio_set_function>
    8a44:	e3a01002 	mov	r1, #2, 0
    8a48:	e3a0000f 	mov	r0, #15, 0
    8a4c:	eb0000a5 	bl	8ce8 <gpio_set_function>
    8a50:	eb00009e 	bl	8cd0 <dev_barrier>
    8a54:	e3a01001 	mov	r1, #1, 0
    8a58:	e59f0064 	ldr	r0, [pc, #100]	; 8ac4 <uart_init+0x90>
    8a5c:	ebffffec 	bl	8a14 <or_in32>
    8a60:	eb00009a 	bl	8cd0 <dev_barrier>
    8a64:	e59f405c 	ldr	r4, [pc, #92]	; 8ac8 <uart_init+0x94>
    8a68:	e3a01000 	mov	r1, #0, 0
    8a6c:	e1a00004 	mov	r0, r4
    8a70:	ebfffd7b 	bl	8064 <PUT32>
    8a74:	e3a01000 	mov	r1, #0, 0
    8a78:	e59f004c 	ldr	r0, [pc, #76]	; 8acc <uart_init+0x98>
    8a7c:	ebfffd78 	bl	8064 <PUT32>
    8a80:	e3a01003 	mov	r1, #3, 0
    8a84:	e59f0044 	ldr	r0, [pc, #68]	; 8ad0 <uart_init+0x9c>
    8a88:	ebfffd75 	bl	8064 <PUT32>
    8a8c:	e3a01000 	mov	r1, #0, 0
    8a90:	e59f003c 	ldr	r0, [pc, #60]	; 8ad4 <uart_init+0xa0>
    8a94:	ebfffd72 	bl	8064 <PUT32>
    8a98:	e3a010c7 	mov	r1, #199, 0	; 0xc7
    8a9c:	e59f0034 	ldr	r0, [pc, #52]	; 8ad8 <uart_init+0xa4>
    8aa0:	ebfffd6f 	bl	8064 <PUT32>
    8aa4:	e59f1030 	ldr	r1, [pc, #48]	; 8adc <uart_init+0xa8>
    8aa8:	e59f0030 	ldr	r0, [pc, #48]	; 8ae0 <uart_init+0xac>
    8aac:	ebfffd6c 	bl	8064 <PUT32>
    8ab0:	e3a01003 	mov	r1, #3, 0
    8ab4:	e1a00004 	mov	r0, r4
    8ab8:	ebfffd69 	bl	8064 <PUT32>
    8abc:	eb000083 	bl	8cd0 <dev_barrier>
    8ac0:	e8bd8010 	pop	{r4, pc}
    8ac4:	20215004 	eorcs	r5, r1, r4
    8ac8:	20215060 	eorcs	r5, r1, r0, rrx
    8acc:	20215044 	eorcs	r5, r1, r4, asr #32
    8ad0:	2021504c 	eorcs	r5, r1, ip, asr #32
    8ad4:	20215050 	eorcs	r5, r1, r0, asr r0
    8ad8:	20215048 	eorcs	r5, r1, r8, asr #32
    8adc:	0000010e 	andeq	r0, r0, lr, lsl #2
    8ae0:	20215068 	eorcs	r5, r1, r8, rrx

00008ae4 <uart_can_getc>:
    8ae4:	e92d4010 	push	{r4, lr}
    8ae8:	e59f0008 	ldr	r0, [pc, #8]	; 8af8 <uart_can_getc+0x14>
    8aec:	ebfffd5e 	bl	806c <GET32>
    8af0:	e2000001 	and	r0, r0, #1, 0
    8af4:	e8bd8010 	pop	{r4, pc}
    8af8:	20215064 	eorcs	r5, r1, r4, rrx

00008afc <uart_can_putc>:
    8afc:	e92d4010 	push	{r4, lr}
    8b00:	e59f0010 	ldr	r0, [pc, #16]	; 8b18 <uart_can_putc+0x1c>
    8b04:	ebfffd58 	bl	806c <GET32>
    8b08:	e3100002 	tst	r0, #2, 0
    8b0c:	13a00001 	movne	r0, #1, 0
    8b10:	03a00000 	moveq	r0, #0, 0
    8b14:	e8bd8010 	pop	{r4, pc}
    8b18:	20215064 	eorcs	r5, r1, r4, rrx

00008b1c <uart_getc>:
    8b1c:	e92d4010 	push	{r4, lr}
    8b20:	eb00006a 	bl	8cd0 <dev_barrier>
    8b24:	ebffffee 	bl	8ae4 <uart_can_getc>
    8b28:	e3500000 	cmp	r0, #0, 0
    8b2c:	0afffffc 	beq	8b24 <uart_getc+0x8>
    8b30:	e59f0010 	ldr	r0, [pc, #16]	; 8b48 <uart_getc+0x2c>
    8b34:	ebfffd4c 	bl	806c <GET32>
    8b38:	e6ef4070 	uxtb	r4, r0
    8b3c:	eb000063 	bl	8cd0 <dev_barrier>
    8b40:	e1a00004 	mov	r0, r4
    8b44:	e8bd8010 	pop	{r4, pc}
    8b48:	20215040 	eorcs	r5, r1, r0, asr #32

00008b4c <uart_putc>:
    8b4c:	e92d4010 	push	{r4, lr}
    8b50:	e1a04000 	mov	r4, r0
    8b54:	eb00005d 	bl	8cd0 <dev_barrier>
    8b58:	ebffffe7 	bl	8afc <uart_can_putc>
    8b5c:	e3500000 	cmp	r0, #0, 0
    8b60:	0afffffc 	beq	8b58 <uart_putc+0xc>
    8b64:	e6ef1074 	uxtb	r1, r4
    8b68:	e59f0008 	ldr	r0, [pc, #8]	; 8b78 <uart_putc+0x2c>
    8b6c:	ebfffd3c 	bl	8064 <PUT32>
    8b70:	eb000056 	bl	8cd0 <dev_barrier>
    8b74:	e8bd8010 	pop	{r4, pc}
    8b78:	20215040 	eorcs	r5, r1, r0, asr #32

00008b7c <uart_has_data>:
    8b7c:	e92d4010 	push	{r4, lr}
    8b80:	eb000052 	bl	8cd0 <dev_barrier>
    8b84:	ebffffd6 	bl	8ae4 <uart_can_getc>
    8b88:	e8bd8010 	pop	{r4, pc}

00008b8c <uart_tx_is_empty>:
    8b8c:	e92d4010 	push	{r4, lr}
    8b90:	eb00004e 	bl	8cd0 <dev_barrier>
    8b94:	e59f000c 	ldr	r0, [pc, #12]	; 8ba8 <uart_tx_is_empty+0x1c>
    8b98:	ebfffd33 	bl	806c <GET32>
    8b9c:	e1a004a0 	lsr	r0, r0, #9
    8ba0:	e2000001 	and	r0, r0, #1, 0
    8ba4:	e8bd8010 	pop	{r4, pc}
    8ba8:	20215064 	eorcs	r5, r1, r4, rrx

00008bac <uart_flush_tx>:
    8bac:	e92d4010 	push	{r4, lr}
    8bb0:	ebfffff5 	bl	8b8c <uart_tx_is_empty>
    8bb4:	e3500000 	cmp	r0, #0, 0
    8bb8:	0afffffc 	beq	8bb0 <uart_flush_tx+0x4>
    8bbc:	e8bd8010 	pop	{r4, pc}

00008bc0 <uart_disable>:
    8bc0:	e92d4010 	push	{r4, lr}
    8bc4:	ebfffff8 	bl	8bac <uart_flush_tx>
    8bc8:	eb000040 	bl	8cd0 <dev_barrier>
    8bcc:	e3e01001 	mvn	r1, #1, 0
    8bd0:	e59f0008 	ldr	r0, [pc, #8]	; 8be0 <uart_disable+0x20>
    8bd4:	ebffff86 	bl	89f4 <and_in32>
    8bd8:	eb00003c 	bl	8cd0 <dev_barrier>
    8bdc:	e8bd8010 	pop	{r4, pc}
    8be0:	20215004 	eorcs	r5, r1, r4

00008be4 <internal_putchar>:
    8be4:	e92d4010 	push	{r4, lr}
    8be8:	e1a04000 	mov	r4, r0
    8bec:	ebffffd6 	bl	8b4c <uart_putc>
    8bf0:	e1a00004 	mov	r0, r4
    8bf4:	e8bd8010 	pop	{r4, pc}

00008bf8 <rpi_reset_putc>:
    8bf8:	e59f3008 	ldr	r3, [pc, #8]	; 8c08 <rpi_reset_putc+0x10>
    8bfc:	e59f2008 	ldr	r2, [pc, #8]	; 8c0c <rpi_reset_putc+0x14>
    8c00:	e5832000 	str	r2, [r3]
    8c04:	e12fff1e 	bx	lr
    8c08:	00008e08 	andeq	r8, r0, r8, lsl #28
    8c0c:	00008be4 	andeq	r8, r0, r4, ror #23

00008c10 <rpi_set_putc>:
    8c10:	e59f3004 	ldr	r3, [pc, #4]	; 8c1c <rpi_set_putc+0xc>
    8c14:	e5830000 	str	r0, [r3]
    8c18:	e12fff1e 	bx	lr
    8c1c:	00008e08 	andeq	r8, r0, r8, lsl #28

00008c20 <strcat>:
    8c20:	e1a02000 	mov	r2, r0
    8c24:	e1a03002 	mov	r3, r2
    8c28:	e2822001 	add	r2, r2, #1, 0
    8c2c:	e5d3c000 	ldrb	ip, [r3]
    8c30:	e35c0000 	cmp	ip, #0, 0
    8c34:	1afffffa 	bne	8c24 <strcat+0x4>
    8c38:	e2433001 	sub	r3, r3, #1, 0
    8c3c:	e5d12000 	ldrb	r2, [r1]
    8c40:	e2811001 	add	r1, r1, #1, 0
    8c44:	e5e32001 	strb	r2, [r3, #1]!
    8c48:	e3520000 	cmp	r2, #0, 0
    8c4c:	1afffffa 	bne	8c3c <strcat+0x1c>
    8c50:	e12fff1e 	bx	lr

00008c54 <strcmp>:
    8c54:	e5d03000 	ldrb	r3, [r0]
    8c58:	e3530000 	cmp	r3, #0, 0
    8c5c:	0a000004 	beq	8c74 <strcmp+0x20>
    8c60:	e5d12000 	ldrb	r2, [r1]
    8c64:	e1530002 	cmp	r3, r2
    8c68:	02800001 	addeq	r0, r0, #1, 0
    8c6c:	02811001 	addeq	r1, r1, #1, 0
    8c70:	0afffff7 	beq	8c54 <strcmp>
    8c74:	e5d10000 	ldrb	r0, [r1]
    8c78:	e0430000 	sub	r0, r3, r0
    8c7c:	e12fff1e 	bx	lr

00008c80 <strcpy>:
    8c80:	e1a0c000 	mov	ip, r0
    8c84:	e5d12000 	ldrb	r2, [r1]
    8c88:	e2811001 	add	r1, r1, #1, 0
    8c8c:	e5cc2000 	strb	r2, [ip]
    8c90:	e28cc001 	add	ip, ip, #1, 0
    8c94:	e3520000 	cmp	r2, #0, 0
    8c98:	1afffff9 	bne	8c84 <strcpy+0x4>
    8c9c:	e12fff1e 	bx	lr

00008ca0 <strncmp>:
    8ca0:	e3520000 	cmp	r2, #0, 0
    8ca4:	e2422001 	sub	r2, r2, #1, 0
    8ca8:	0a000005 	beq	8cc4 <strncmp+0x24>
    8cac:	e4d03001 	ldrb	r3, [r0], #1
    8cb0:	e4d1c001 	ldrb	ip, [r1], #1
    8cb4:	e153000c 	cmp	r3, ip
    8cb8:	0afffff8 	beq	8ca0 <strncmp>
    8cbc:	e043000c 	sub	r0, r3, ip
    8cc0:	e12fff1e 	bx	lr
    8cc4:	e3a00000 	mov	r0, #0, 0
    8cc8:	e12fff1e 	bx	lr

00008ccc <reboot_callout>:
    8ccc:	e12fff1e 	bx	lr

00008cd0 <dev_barrier>:
    8cd0:	ea000002 	b	8ce0 <dsb>

00008cd4 <dmb>:
    8cd4:	e3a00000 	mov	r0, #0, 0
    8cd8:	ee070fba 	mcr	15, 0, r0, cr7, cr10, {5}
    8cdc:	e12fff1e 	bx	lr

00008ce0 <dsb>:
    8ce0:	ee070f9a 	mcr	15, 0, r0, cr7, cr10, {4}
    8ce4:	e12fff1e 	bx	lr

00008ce8 <gpio_set_function>:
    8ce8:	e350001f 	cmp	r0, #31, 0
    8cec:	812fff1e 	bxhi	lr
    8cf0:	e92d4070 	push	{r4, r5, r6, lr}
    8cf4:	e1a05001 	mov	r5, r1
    8cf8:	e3d13007 	bics	r3, r1, #7, 0
    8cfc:	18bd8070 	popne	{r4, r5, r6, pc}
    8d00:	e59f3040 	ldr	r3, [pc, #64]	; 8d48 <gpio_set_function+0x60>
    8d04:	e0832093 	umull	r2, r3, r3, r0
    8d08:	e1a031a3 	lsr	r3, r3, #3
    8d0c:	e1a02003 	mov	r2, r3
    8d10:	e0833103 	add	r3, r3, r3, lsl #2
    8d14:	e0403083 	sub	r3, r0, r3, lsl #1
    8d18:	e0834083 	add	r4, r3, r3, lsl #1
    8d1c:	e2820302 	add	r0, r2, #134217728	; 0x8000000
    8d20:	e2800702 	add	r0, r0, #524288	; 0x80000
    8d24:	e1a06100 	lsl	r6, r0, #2
    8d28:	e1a00006 	mov	r0, r6
    8d2c:	ebfffcce 	bl	806c <GET32>
    8d30:	e3a01007 	mov	r1, #7, 0
    8d34:	e1c01411 	bic	r1, r0, r1, lsl r4
    8d38:	e1811415 	orr	r1, r1, r5, lsl r4
    8d3c:	e1a00006 	mov	r0, r6
    8d40:	ebfffcc7 	bl	8064 <PUT32>
    8d44:	e8bd8070 	pop	{r4, r5, r6, pc}
    8d48:	cccccccd 	stclgt	12, cr12, [ip], {205}	; 0xcd

00008d4c <gpio_set_output>:
    8d4c:	e92d4010 	push	{r4, lr}
    8d50:	e3a01001 	mov	r1, #1, 0
    8d54:	ebffffe3 	bl	8ce8 <gpio_set_function>
    8d58:	e8bd8010 	pop	{r4, pc}

00008d5c <gpio_set_on>:
    8d5c:	e350001f 	cmp	r0, #31, 0
    8d60:	812fff1e 	bxhi	lr
    8d64:	e92d4010 	push	{r4, lr}
    8d68:	e3a01001 	mov	r1, #1, 0
    8d6c:	e1a01011 	lsl	r1, r1, r0
    8d70:	e59f0004 	ldr	r0, [pc, #4]	; 8d7c <gpio_set_on+0x20>
    8d74:	ebfffcba 	bl	8064 <PUT32>
    8d78:	e8bd8010 	pop	{r4, pc}
    8d7c:	2020001c 	eorcs	r0, r0, ip, lsl r0

00008d80 <gpio_set_off>:
    8d80:	e350001f 	cmp	r0, #31, 0
    8d84:	812fff1e 	bxhi	lr
    8d88:	e92d4010 	push	{r4, lr}
    8d8c:	e3a01001 	mov	r1, #1, 0
    8d90:	e1a01011 	lsl	r1, r1, r0
    8d94:	e59f0004 	ldr	r0, [pc, #4]	; 8da0 <gpio_set_off+0x20>
    8d98:	ebfffcb1 	bl	8064 <PUT32>
    8d9c:	e8bd8010 	pop	{r4, pc}
    8da0:	20200028 	eorcs	r0, r0, r8, lsr #32

00008da4 <gpio_set_input>:
    8da4:	e92d4010 	push	{r4, lr}
    8da8:	e3a01000 	mov	r1, #0, 0
    8dac:	ebffffcd 	bl	8ce8 <gpio_set_function>
    8db0:	e8bd8010 	pop	{r4, pc}

00008db4 <gpio_write>:
    8db4:	e92d4010 	push	{r4, lr}
    8db8:	e3510000 	cmp	r1, #0, 0
    8dbc:	0a000001 	beq	8dc8 <gpio_write+0x14>
    8dc0:	ebffffe5 	bl	8d5c <gpio_set_on>
    8dc4:	e8bd8010 	pop	{r4, pc}
    8dc8:	ebffffec 	bl	8d80 <gpio_set_off>
    8dcc:	e8bd8010 	pop	{r4, pc}

00008dd0 <gpio_read>:
    8dd0:	e350001f 	cmp	r0, #31, 0
    8dd4:	8a000007 	bhi	8df8 <gpio_read+0x28>
    8dd8:	e92d4010 	push	{r4, lr}
    8ddc:	e200401f 	and	r4, r0, #31, 0
    8de0:	e59f3018 	ldr	r3, [pc, #24]	; 8e00 <gpio_read+0x30>
    8de4:	e08302a0 	add	r0, r3, r0, lsr #5
    8de8:	ebfffc9f 	bl	806c <GET32>
    8dec:	e1a00430 	lsr	r0, r0, r4
    8df0:	e2000001 	and	r0, r0, #1, 0
    8df4:	e8bd8010 	pop	{r4, pc}
    8df8:	e3e00000 	mvn	r0, #0, 0
    8dfc:	e12fff1e 	bx	lr
    8e00:	20200034 	eorcs	r0, r0, r4, lsr r0

Disassembly of section .data:

00008e04 <putk>:
    8e04:	00008110 	andeq	r8, r0, r0, lsl r1

00008e08 <rpi_putchar>:
    8e08:	00008be4 	andeq	r8, r0, r4, ror #23

Disassembly of section .rodata:

00008e0c <__FUNCTION__.4004-0x174>:
    8e0c:	3e73253c 	mrccc	5, 3, r2, cr3, cr12, {1}
    8e10:	0000000a 	andeq	r0, r0, sl
    8e14:	3e78253c 	mrccc	5, 3, r2, cr8, cr12, {1}
    8e18:	0000000a 	andeq	r0, r0, sl
    8e1c:	63637573 	cmnvs	r3, #482344960	; 0x1cc00000
    8e20:	21737365 	cmncs	r3, r5, ror #6
    8e24:	0000000a 	andeq	r0, r0, sl
    8e28:	696c2f2e 	stmdbvs	ip!, {r1, r2, r3, r5, r8, r9, sl, fp, sp}^
    8e2c:	762f6362 	strtvc	r6, [pc], -r2, ror #6
    8e30:	72702d61 	rsbsvc	r2, r0, #6208	; 0x1840
    8e34:	6b746e69 	blvs	1d247e0 <__bss_end__+0x1d1b430>
    8e38:	0000632e 	andeq	r6, r0, lr, lsr #6
    8e3c:	494e4150 	stmdbmi	lr, {r4, r6, r8, lr}^
    8e40:	73253a43 			; <UNDEFINED> instruction: 0x73253a43
    8e44:	3a73253a 	bcc	1cd2334 <__bss_end__+0x1cc8f84>
    8e48:	253a6425 	ldrcs	r6, [sl, #-1061]!	; 0xfffffbdb
    8e4c:	00000a73 	andeq	r0, r0, r3, ror sl
    8e50:	00000030 	andeq	r0, r0, r0, lsr r0
    8e54:	33323130 	teqcc	r2, #12
    8e58:	37363534 			; <UNDEFINED> instruction: 0x37363534
    8e5c:	00003938 	andeq	r3, r0, r8, lsr r9
    8e60:	33323130 	teqcc	r2, #12
    8e64:	37363534 			; <UNDEFINED> instruction: 0x37363534
    8e68:	62613938 	rsbvs	r3, r1, #56, 18	; 0xe0000
    8e6c:	66656463 	strbtvs	r6, [r5], -r3, ror #8
    8e70:	00000000 	andeq	r0, r0, r0
    8e74:	00003130 	andeq	r3, r0, r0, lsr r1
    8e78:	63747570 	cmnvs	r4, #112, 10	; 0x1c000000
    8e7c:	0070665f 	rsbseq	r6, r0, pc, asr r6
    8e80:	74646977 	strbtvc	r6, [r4], #-2423	; 0xfffff689
    8e84:	203c2068 	eorscs	r2, ip, r8, rrx
    8e88:	00003233 	andeq	r3, r0, r3, lsr r2
    8e8c:	00786c6c 	rsbseq	r6, r8, ip, ror #24
    8e90:	00646c6c 	rsbeq	r6, r4, ip, ror #24
    8e94:	253d3078 	ldrcs	r3, [sp, #-120]!	; 0xffffff88
    8e98:	00000a78 	andeq	r0, r0, r8, ror sl
    8e9c:	253d3178 	ldrcs	r3, [sp, #-376]!	; 0xfffffe88
    8ea0:	00000a78 	andeq	r0, r0, r8, ror sl
    8ea4:	6e727473 	mrcvs	4, 3, r7, cr2, cr3, {3}
    8ea8:	28706d63 	ldmdacs	r0!, {r0, r1, r5, r6, r8, sl, fp, sp, lr}^
    8eac:	202c7974 	eorcs	r7, ip, r4, ror r9
    8eb0:	786c6c22 	stmdavc	ip!, {r1, r5, sl, fp, sp, lr}^
    8eb4:	33202c22 			; <UNDEFINED> instruction: 0x33202c22
    8eb8:	3d3d2029 	ldccc	0, cr2, [sp, #-164]!	; 0xffffff5c
    8ebc:	7c203020 	stcvc	0, cr3, [r0], #-128	; 0xffffff80
    8ec0:	7473207c 	ldrbtvc	r2, [r3], #-124	; 0xffffff84
    8ec4:	6d636e72 	stclvs	14, cr6, [r3, #-456]!	; 0xfffffe38
    8ec8:	79742870 	ldmdbvc	r4!, {r4, r5, r6, fp, sp}^
    8ecc:	6c22202c 	stcvs	0, cr2, [r2], #-176	; 0xffffff50
    8ed0:	2c22646c 	cfstrscs	mvf6, [r2], #-432	; 0xfffffe50
    8ed4:	20293320 	eorcs	r3, r9, r0, lsr #6
    8ed8:	30203d3d 	eorcc	r3, r0, sp, lsr sp
    8edc:	00000000 	andeq	r0, r0, r0
    8ee0:	494e4150 	stmdbmi	lr, {r4, r6, r8, lr}^
    8ee4:	73253a43 			; <UNDEFINED> instruction: 0x73253a43
    8ee8:	3a73253a 	bcc	1cd23d8 <__bss_end__+0x1cc9028>
    8eec:	693a6425 	ldmdbvs	sl!, {r0, r2, r5, sl, sp, lr}
    8ef0:	736f706d 	cmnvc	pc, #109, 0	; 0x6d
    8ef4:	6c626973 			; <UNDEFINED> instruction: 0x6c626973
    8ef8:	66203a65 	strtvs	r3, [r0], -r5, ror #20
    8efc:	3c3d746d 	cfldrscc	mvf7, [sp], #-436	; 0xfffffe4c
    8f00:	0a3e7325 	beq	fa5b9c <__bss_end__+0xf9c7ec>
    8f04:	0000000a 	andeq	r0, r0, sl
    8f08:	494e4150 	stmdbmi	lr, {r4, r6, r8, lr}^
    8f0c:	73253a43 			; <UNDEFINED> instruction: 0x73253a43
    8f10:	3a73253a 	bcc	1cd2400 <__bss_end__+0x1cc9050>
    8f14:	663a6425 	ldrtvs	r6, [sl], -r5, lsr #8
    8f18:	74616f6c 	strbtvc	r6, [r1], #-3948	; 0xfffff094
    8f1c:	746f6e20 	strbtvc	r6, [pc], #-3616	; 8f24 <rpi_putchar+0x11c>
    8f20:	616e6520 	cmnvs	lr, r0, lsr #10
    8f24:	64656c62 	strbtvs	r6, [r5], #-3170	; 0xfffff39e
    8f28:	0a212121 	beq	8513b4 <__bss_end__+0x848004>
    8f2c:	00000000 	andeq	r0, r0, r0
    8f30:	6e697270 	mcrvs	2, 3, r7, cr9, cr0, {3}
    8f34:	203a6b74 	eorscs	r6, sl, r4, ror fp
    8f38:	20746f6e 	rsbscs	r6, r4, lr, ror #30
    8f3c:	646e6168 	strbtvs	r6, [lr], #-360	; 0xfffffe98
    8f40:	676e696c 	strbvs	r6, [lr, -ip, ror #18]!
    8f44:	65707320 	ldrbvs	r7, [r0, #-800]!	; 0xfffffce0
    8f48:	69666963 	stmdbvs	r6!, {r0, r1, r5, r6, r8, fp, sp, lr}^
    8f4c:	27207265 	strcs	r7, [r0, -r5, ror #4]!
    8f50:	20276325 	eorcs	r6, r7, r5, lsr #6
    8f54:	63736128 	cmnvs	r3, #10
    8f58:	253d6969 	ldrcs	r6, [sp, #-2409]!	; 0xfffff697
    8f5c:	000a2964 	andeq	r2, sl, r4, ror #18
    8f60:	494e4150 	stmdbmi	lr, {r4, r6, r8, lr}^
    8f64:	73253a43 			; <UNDEFINED> instruction: 0x73253a43
    8f68:	3a73253a 	bcc	1cd2458 <__bss_end__+0x1cc90a8>
    8f6c:	703a6425 	eorsvc	r6, sl, r5, lsr #8
    8f70:	746e6972 	strbtvc	r6, [lr], #-2418	; 0xfffff68e
    8f74:	7265206b 	rsbvc	r2, r5, #107, 0	; 0x6b
    8f78:	0a726f72 	beq	1ca4d48 <__bss_end__+0x1c9b998>
    8f7c:	0000000a 	andeq	r0, r0, sl

00008f80 <__FUNCTION__.4004>:
    8f80:	74696d65 	strbtvc	r6, [r9], #-3429	; 0xfffff29b
    8f84:	00000000 	andeq	r0, r0, r0

00008f88 <__FUNCTION__.3952>:
    8f88:	5f697072 	svcpl	0x00697072
    8f8c:	5f746573 	svcpl	0x00746573
    8f90:	7074756f 	rsbsvc	r7, r4, pc, ror #10
    8f94:	00007475 	andeq	r7, r0, r5, ror r4

00008f98 <__FUNCTION__.4030>:
    8f98:	705f6176 	subsvc	r6, pc, r6, ror r1	; <UNPREDICTABLE>
    8f9c:	746e6972 	strbtvc	r6, [lr], #-2418	; 0xfffff68e
    8fa0:	0000006b 	andeq	r0, r0, fp, rrx
    8fa4:	454e4f44 	strbmi	r4, [lr, #-3908]	; 0xfffff0bc
    8fa8:	0a212121 	beq	851434 <__bss_end__+0x848084>
    8fac:	00000000 	andeq	r0, r0, r0

Disassembly of section .bss:

00008fb0 <__bss_start__>:
	...

Disassembly of section .ARM.attributes:

00000000 <.ARM.attributes>:
   0:	00002a41 	andeq	r2, r0, r1, asr #20
   4:	61656100 	cmnvs	r5, r0, lsl #2
   8:	01006962 	tsteq	r0, r2, ror #18
   c:	00000020 	andeq	r0, r0, r0, lsr #32
  10:	4b5a3605 	blmi	168d82c <__bss_end__+0x168447c>
  14:	08070600 	stmdaeq	r7, {r9, sl}
  18:	12010901 	andne	r0, r1, #16384	; 0x4000
  1c:	15011404 	strne	r1, [r1, #-1028]	; 0xfffffbfc
  20:	18031701 	stmdane	r3, {r0, r8, r9, sl, ip}
  24:	22011a01 	andcs	r1, r1, #4096	; 0x1000
  28:	Address 0x0000000000000028 is out of bounds.


Disassembly of section .comment:

00000000 <.comment>:
   0:	3a434347 	bcc	10d0d24 <__bss_end__+0x10c7974>
   4:	4e472820 	cdpmi	8, 4, cr2, cr7, cr0, {1}
   8:	6f542055 	svcvs	0x00542055
   c:	20736c6f 	rsbscs	r6, r3, pc, ror #24
  10:	20726f66 	rsbscs	r6, r2, r6, ror #30
  14:	206d7241 	rsbcs	r7, sp, r1, asr #4
  18:	65626d45 	strbvs	r6, [r2, #-3397]!	; 0xfffff2bb
  1c:	64656464 	strbtvs	r6, [r5], #-1124	; 0xfffffb9c
  20:	6f725020 	svcvs	0x00725020
  24:	73736563 	cmnvc	r3, #415236096	; 0x18c00000
  28:	2073726f 	rsbscs	r7, r3, pc, ror #4
  2c:	30322d39 	eorscc	r2, r2, r9, lsr sp
  30:	712d3931 			; <UNDEFINED> instruction: 0x712d3931
  34:	616d2d34 	cmnvs	sp, r4, lsr sp
  38:	29726f6a 	ldmdbcs	r2!, {r1, r3, r5, r6, r8, r9, sl, fp, sp, lr}^
  3c:	322e3920 	eorcc	r3, lr, #32, 18	; 0x80000
  40:	3220312e 	eorcc	r3, r0, #-2147483637	; 0x8000000b
  44:	31393130 	teqcc	r9, r0, lsr r1
  48:	20353230 	eorscs	r3, r5, r0, lsr r2
  4c:	6c657228 	sfmvs	f7, 2, [r5], #-160	; 0xffffff60
  50:	65736165 	ldrbvs	r6, [r3, #-357]!	; 0xfffffe9b
  54:	415b2029 	cmpmi	fp, r9, lsr #32
  58:	612f4d52 			; <UNDEFINED> instruction: 0x612f4d52
  5c:	392d6d72 	pushcc	{r1, r4, r5, r6, r8, sl, fp, sp, lr}
  60:	6172622d 	cmnvs	r2, sp, lsr #4
  64:	2068636e 	rsbcs	r6, r8, lr, ror #6
  68:	69766572 	ldmdbvs	r6!, {r1, r4, r5, r6, r8, sl, sp, lr}^
  6c:	6e6f6973 			; <UNDEFINED> instruction: 0x6e6f6973
  70:	37373220 	ldrcc	r3, [r7, -r0, lsr #4]!
  74:	5d393935 			; <UNDEFINED> instruction: 0x5d393935
  78:	43434700 	movtmi	r4, #14080	; 0x3700
  7c:	4728203a 			; <UNDEFINED> instruction: 0x4728203a
  80:	4120554e 			; <UNDEFINED> instruction: 0x4120554e
  84:	45206d72 	strmi	r6, [r0, #-3442]!	; 0xfffff28e
  88:	6465626d 	strbtvs	r6, [r5], #-621	; 0xfffffd93
  8c:	20646564 	rsbcs	r6, r4, r4, ror #10
  90:	6c6f6f54 	stclvs	15, cr6, [pc], #-336	; ffffff48 <__bss_end__+0xffff6b98>
  94:	69616863 	stmdbvs	r1!, {r0, r1, r5, r6, fp, sp, lr}^
  98:	3031206e 	eorscc	r2, r1, lr, rrx
  9c:	322d332e 	eorcc	r3, sp, #-1207959552	; 0xb8000000
  a0:	2e313230 	mrccs	2, 1, r3, cr1, cr0, {1}
  a4:	20293031 	eorcs	r3, r9, r1, lsr r0
  a8:	332e3031 			; <UNDEFINED> instruction: 0x332e3031
  ac:	3220312e 	eorcc	r3, r0, #-2147483637	; 0x8000000b
  b0:	30313230 	eorscc	r3, r1, r0, lsr r2
  b4:	20343238 	eorscs	r3, r4, r8, lsr r2
  b8:	6c657228 	sfmvs	f7, 2, [r5], #-160	; 0xffffff60
  bc:	65736165 	ldrbvs	r6, [r3, #-357]!	; 0xfffffe9b
  c0:	Address 0x00000000000000c0 is out of bounds.


Disassembly of section .debug_info:

00000000 <.debug_info>:
       0:	0000019d 	muleq	r0, sp, r1
       4:	00000004 	andeq	r0, r0, r4
       8:	01040000 	mrseq	r0, (UNDEF: 4)
       c:	00000107 	andeq	r0, r0, r7, lsl #2
      10:	0000c70c 	andeq	ip, r0, ip, lsl #14
      14:	00004000 	andeq	r4, r0, r0
      18:	00807800 	addeq	r7, r0, r0, lsl #16
      1c:	00004000 	andeq	r4, r0, r0
      20:	00000000 	andeq	r0, r0, r0
      24:	05040200 	streq	r0, [r4, #-512]	; 0xfffffe00
      28:	00746e69 	rsbseq	r6, r4, r9, ror #28
      2c:	33070403 	movwcc	r0, #29699	; 0x7403
      30:	04000000 	streq	r0, [r0], #-0
      34:	0000002c 	andeq	r0, r0, ip, lsr #32
      38:	a8060103 	stmdage	r6, {r0, r1, r8}
      3c:	03000000 	movweq	r0, #0
      40:	00fd0502 	rscseq	r0, sp, r2, lsl #10
      44:	04030000 	streq	r0, [r3], #-0
      48:	00000505 	andeq	r0, r0, r5, lsl #10
      4c:	05080300 	streq	r0, [r8, #-768]	; 0xfffffd00
      50:	00000000 	andeq	r0, r0, r0
      54:	a6080103 	strge	r0, [r8], -r3, lsl #2
      58:	03000000 	movweq	r0, #0
      5c:	00ea0702 	rsceq	r0, sl, r2, lsl #14
      60:	04030000 	streq	r0, [r3], #-0
      64:	00002e07 	andeq	r2, r0, r7, lsl #28
      68:	07080300 	streq	r0, [r8, -r0, lsl #6]
      6c:	00000029 	andeq	r0, r0, r9, lsr #32
      70:	00002505 	andeq	r2, r0, r5, lsl #10
      74:	00007f00 	andeq	r7, r0, r0, lsl #30
      78:	00250600 	eoreq	r0, r5, r0, lsl #12
      7c:	07000000 	streq	r0, [r0, -r0]
      80:	000001bc 			; <UNDEFINED> instruction: 0x000001bc
      84:	8b0e1c02 	blhi	387094 <__bss_end__+0x37dce4>
      88:	08000000 	stmdaeq	r0, {}	; <UNPREDICTABLE>
      8c:	00007004 	andeq	r7, r0, r4
      90:	00250500 	eoreq	r0, r5, r0, lsl #10
      94:	00a00000 	adceq	r0, r0, r0
      98:	a0060000 	andge	r0, r6, r0
      9c:	00000000 	andeq	r0, r0, r0
      a0:	00ad0408 	adceq	r0, sp, r8, lsl #8
      a4:	01030000 	mrseq	r0, (UNDEF: 3)
      a8:	0000af08 	andeq	sl, r0, r8, lsl #30
      ac:	00a60400 	adceq	r0, r6, r0, lsl #8
      b0:	56070000 	strpl	r0, [r7], -r0
      b4:	02000002 	andeq	r0, r0, #2, 0
      b8:	00be0e21 	adcseq	r0, lr, r1, lsr #28
      bc:	04080000 	streq	r0, [r8], #-0
      c0:	00000091 	muleq	r0, r1, r0
      c4:	0000dd09 	andeq	sp, r0, r9, lsl #26
      c8:	06040100 	streq	r0, [r4], -r0, lsl #2
      cc:	00008078 	andeq	r8, r0, r8, ror r0
      d0:	00000040 	andeq	r0, r0, r0, asr #32
      d4:	01739c01 	cmneq	r3, r1, lsl #24
      d8:	b40a0000 	strlt	r0, [sl], #-0
      dc:	01000000 	mrseq	r0, (UNDEF: 0)
      e0:	00331108 	eorseq	r1, r3, r8, lsl #2
      e4:	80040000 	andhi	r0, r4, r0
      e8:	00001b0a 	andeq	r1, r0, sl, lsl #22
      ec:	11090100 	mrsne	r0, (UNDEF: 25)
      f0:	000000a0 	andeq	r0, r0, r0, lsr #1
      f4:	e50b8004 	str	r8, [fp, #-4]
      f8:	01000000 	mrseq	r0, (UNDEF: 0)
      fc:	0033110a 	eorseq	r1, r3, sl, lsl #2
     100:	00020000 	andeq	r0, r2, r0
     104:	00000000 	andeq	r0, r0, r0
     108:	0e0c0000 	cdpeq	0, 0, cr0, cr12, cr0, {0}
     10c:	83000000 	movwhi	r0, #0
     110:	dd000001 	stcle	0, cr0, [r0, #-4]
     114:	0d000000 	stceq	0, cr0, [r0, #-0]
     118:	00008090 	muleq	r0, r0, r0
     11c:	00000188 	andeq	r0, r0, r8, lsl #3
     120:	00000135 	andeq	r0, r0, r5, lsr r1
     124:	0550010e 	ldrbeq	r0, [r0, #-270]	; 0xfffffef2
     128:	008e0c03 	addeq	r0, lr, r3, lsl #24
     12c:	51010e00 	tstpl	r1, r0, lsl #28
     130:	80040a03 	andhi	r0, r4, r3, lsl #20
     134:	809c0d00 	addshi	r0, ip, r0, lsl #26
     138:	01880000 	orreq	r0, r8, r0
     13c:	01520000 	cmpeq	r2, r0
     140:	010e0000 	mrseq	r0, (UNDEF: 14)
     144:	14030550 	strne	r0, [r3], #-1360	; 0xfffffab0
     148:	0e00008e 	cdpeq	0, 0, cr0, cr0, cr14, {4}
     14c:	74025101 	strvc	r5, [r2], #-257	; 0xfffffeff
     150:	a40d0000 	strge	r0, [sp], #-0
     154:	88000080 	stmdahi	r0, {r7}
     158:	69000001 	stmdbvs	r0, {r0}
     15c:	0e000001 	cdpeq	0, 0, cr0, cr0, cr1, {0}
     160:	03055001 	movweq	r5, #20481	; 0x5001
     164:	00008e1c 	andeq	r8, r0, ip, lsl lr
     168:	80a80f00 	adchi	r0, r8, r0, lsl #30
     16c:	01940000 	orrseq	r0, r4, r0
     170:	10000000 	andne	r0, r0, r0
     174:	000000ad 	andeq	r0, r0, sp, lsr #1
     178:	00000183 	andeq	r0, r0, r3, lsl #3
     17c:	00002c11 	andeq	r2, r0, r1, lsl ip
     180:	04000700 	streq	r0, [r0], #-1792	; 0xfffff900
     184:	00000173 	andeq	r0, r0, r3, ror r1
     188:	0001d012 	andeq	sp, r1, r2, lsl r0
     18c:	0001d000 	andeq	sp, r1, r0
     190:	06280200 	strteq	r0, [r8], -r0, lsl #4
     194:	0000d012 	andeq	sp, r0, r2, lsl r0
     198:	0000d000 	andeq	sp, r0, r0
     19c:	066e0200 	strbteq	r0, [lr], -r0, lsl #4
     1a0:	00019d00 	andeq	r9, r1, r0, lsl #26
     1a4:	f6000400 			; <UNDEFINED> instruction: 0xf6000400
     1a8:	04000000 	streq	r0, [r0], #-0
     1ac:	00010701 	andeq	r0, r1, r1, lsl #14
     1b0:	01f50c00 	mvnseq	r0, r0, lsl #24
     1b4:	02050000 	andeq	r0, r5, #0, 0
     1b8:	80b80000 	adcshi	r0, r8, r0
     1bc:	00580000 	subseq	r0, r8, r0
     1c0:	00ae0000 	adceq	r0, lr, r0
     1c4:	d7020000 	strle	r0, [r2, -r0]
     1c8:	02000001 	andeq	r0, r0, #1, 0
     1cc:	00311b28 	eorseq	r1, r1, r8, lsr #22
     1d0:	e6030000 	str	r0, [r3], -r0
     1d4:	04000001 	streq	r0, [r0], #-1
     1d8:	00480004 	subeq	r0, r8, r4
     1dc:	f0040000 			; <UNDEFINED> instruction: 0xf0040000
     1e0:	48000001 	stmdami	r0, {r0}
     1e4:	00000000 	andeq	r0, r0, r0
     1e8:	02040500 	andeq	r0, r4, #0, 10
     1ec:	000001e8 	andeq	r0, r0, r8, ror #3
     1f0:	25186302 	ldrcs	r6, [r8, #-770]	; 0xfffffcfe
     1f4:	06000000 	streq	r0, [r0], -r0
     1f8:	6e690504 	cdpvs	5, 6, cr0, cr9, cr4, {0}
     1fc:	04070074 	streq	r0, [r7], #-116	; 0xffffff8c
     200:	00003307 	andeq	r3, r0, r7, lsl #6
     204:	06010700 	streq	r0, [r1], -r0, lsl #14
     208:	000000a8 	andeq	r0, r0, r8, lsr #1
     20c:	fd050207 	stc2	2, cr0, [r5, #-28]	; 0xffffffe4
     210:	07000000 	streq	r0, [r0, -r0]
     214:	00050504 	andeq	r0, r5, r4, lsl #10
     218:	08070000 	stmdaeq	r7, {}	; <UNPREDICTABLE>
     21c:	00000005 	andeq	r0, r0, r5
     220:	08010700 	stmdaeq	r1, {r8, r9, sl}
     224:	000000a6 	andeq	r0, r0, r6, lsr #1
     228:	ea070207 	b	1c0a4c <__bss_end__+0x1b769c>
     22c:	07000000 	streq	r0, [r0, -r0]
     230:	002e0704 	eoreq	r0, lr, r4, lsl #14
     234:	08070000 	stmdaeq	r7, {}	; <UNPREDICTABLE>
     238:	00002907 	andeq	r2, r0, r7, lsl #18
     23c:	00560800 	subseq	r0, r6, r0, lsl #16
     240:	00ab0000 	adceq	r0, fp, r0
     244:	56090000 	strpl	r0, [r9], -r0
     248:	00000000 	andeq	r0, r0, r0
     24c:	0001bc0a 	andeq	fp, r1, sl, lsl #24
     250:	0e1c0300 	cdpeq	3, 1, cr0, cr12, cr0, {0}
     254:	000000b7 	strheq	r0, [r0], -r7
     258:	009c040b 	addseq	r0, ip, fp, lsl #8
     25c:	56080000 	strpl	r0, [r8], -r0
     260:	cc000000 	stcgt	0, cr0, [r0], {-0}
     264:	09000000 	stmdbeq	r0, {}	; <UNPREDICTABLE>
     268:	000000cc 	andeq	r0, r0, ip, asr #1
     26c:	d9040b00 	stmdble	r4, {r8, r9, fp}
     270:	07000000 	streq	r0, [r0, -r0]
     274:	00af0801 	adceq	r0, pc, r1, lsl #16
     278:	d20c0000 	andle	r0, ip, #0, 0
     27c:	0a000000 	beq	284 <LINK_ADDR-0x7d7c>
     280:	00000256 	andeq	r0, r0, r6, asr r2
     284:	ea0e2103 	b	388698 <__bss_end__+0x37f2e8>
     288:	0b000000 	bleq	290 <LINK_ADDR-0x7d70>
     28c:	0000bd04 	andeq	fp, r0, r4, lsl #26
     290:	01d00d00 	bicseq	r0, r0, r0, lsl #26
     294:	06010000 	streq	r0, [r1], -r0
     298:	00005605 	andeq	r5, r0, r5, lsl #12
     29c:	0080b800 	addeq	fp, r0, r0, lsl #16
     2a0:	00005800 	andeq	r5, r0, r0, lsl #16
     2a4:	839c0100 	orrshi	r0, ip, #0
     2a8:	0e000001 	cdpeq	0, 0, cr0, cr0, cr1, {0}
     2ac:	00746d66 	rsbseq	r6, r4, r6, ror #26
     2b0:	cc180601 	ldcgt	6, cr0, [r8], {1}
     2b4:	02000000 	andeq	r0, r0, #0, 0
     2b8:	100f7091 	mulne	pc, r1, r0	; <UNPREDICTABLE>
     2bc:	00667562 	rsbeq	r7, r6, r2, ror #10
     2c0:	83110801 	tsthi	r1, #65536	; 0x10000
     2c4:	05000001 	streq	r0, [r0, #-1]
     2c8:	008fb003 	addeq	fp, pc, r3
     2cc:	01c81100 	biceq	r1, r8, r0, lsl #2
     2d0:	09010000 	stmdbeq	r1, {}	; <UNPREDICTABLE>
     2d4:	00004a0d 	andeq	r4, r0, sp, lsl #20
     2d8:	5c910200 	lfmpl	f0, 4, [r1], {0}
     2dc:	007a7312 	rsbseq	r7, sl, r2, lsl r3
     2e0:	560d0c01 	strpl	r0, [sp], -r1, lsl #24
     2e4:	1b000000 	blne	2ec <LINK_ADDR-0x7d14>
     2e8:	15000000 	strne	r0, [r0, #-0]
     2ec:	13000000 	movwne	r0, #0
     2f0:	000080e0 	andeq	r8, r0, r0, ror #1
     2f4:	00000194 	muleq	r0, r4, r1
     2f8:	00000176 	andeq	r0, r0, r6, ror r1
     2fc:	02500114 	subseq	r0, r0, #5
     300:	01140075 	tsteq	r4, r5, ror r0
     304:	000a0351 	andeq	r0, sl, r1, asr r3
     308:	52011404 	andpl	r1, r1, #4, 8	; 0x4000000
     30c:	06489103 	strbeq	r9, [r8], -r3, lsl #2
     310:	02530114 	subseq	r0, r3, #5
     314:	15004c91 	strne	r4, [r0, #-3217]	; 0xfffff36f
     318:	000080f4 	strdeq	r8, [r0], -r4
     31c:	02500114 	subseq	r0, r0, #5
     320:	00000075 	andeq	r0, r0, r5, ror r0
     324:	0000d216 	andeq	sp, r0, r6, lsl r2
     328:	00019400 	andeq	r9, r1, r0, lsl #8
     32c:	005d1700 	subseq	r1, sp, r0, lsl #14
     330:	03ff0000 	mvnseq	r0, #0, 0
     334:	01cd1800 	biceq	r1, sp, r0, lsl #16
     338:	01cd0000 	biceq	r0, sp, r0
     33c:	02050000 	andeq	r0, r5, #0, 0
     340:	00f30005 	rscseq	r0, r3, r5
     344:	00040000 	andeq	r0, r4, r0
     348:	00000238 	andeq	r0, r0, r8, lsr r2
     34c:	01070104 	tsteq	r7, r4, lsl #2
     350:	5b0c0000 	blpl	300358 <__bss_end__+0x2f6fa8>
     354:	05000002 	streq	r0, [r0, #-2]
     358:	10000002 	andne	r0, r0, r2
     35c:	34000081 	strcc	r0, [r0], #-129	; 0xffffff7f
     360:	e6000000 	str	r0, [r0], -r0
     364:	02000001 	andeq	r0, r0, #1, 0
     368:	6e690504 	cdpvs	5, 6, cr0, cr9, cr4, {0}
     36c:	04030074 	streq	r0, [r3], #-116	; 0xffffff8c
     370:	00003307 	andeq	r3, r0, r7, lsl #6
     374:	06010300 	streq	r0, [r1], -r0, lsl #6
     378:	000000a8 	andeq	r0, r0, r8, lsr #1
     37c:	fd050203 	stc2	2, cr0, [r5, #-12]
     380:	03000000 	movweq	r0, #0
     384:	00050504 	andeq	r0, r5, r4, lsl #10
     388:	08030000 	stmdaeq	r3, {}	; <UNPREDICTABLE>
     38c:	00000005 	andeq	r0, r0, r5
     390:	08010300 	stmdaeq	r1, {r8, r9}
     394:	000000a6 	andeq	r0, r0, r6, lsr #1
     398:	ea070203 	b	1c0bac <__bss_end__+0x1b77fc>
     39c:	03000000 	movweq	r0, #0
     3a0:	002e0704 	eoreq	r0, lr, r4, lsl #14
     3a4:	08030000 	stmdaeq	r3, {}	; <UNPREDICTABLE>
     3a8:	00002907 	andeq	r2, r0, r7, lsl #18
     3ac:	00250400 	eoreq	r0, r5, r0, lsl #8
     3b0:	007a0000 	rsbseq	r0, sl, r0
     3b4:	25050000 	strcs	r0, [r5, #-0]
     3b8:	00000000 	andeq	r0, r0, r0
     3bc:	0001bc06 	andeq	fp, r1, r6, lsl #24
     3c0:	0e1c0200 	cdpeq	2, 1, cr0, cr12, cr0, {0}
     3c4:	00000086 	andeq	r0, r0, r6, lsl #1
     3c8:	006b0407 	rsbeq	r0, fp, r7, lsl #8
     3cc:	25040000 	strcs	r0, [r4, #-0]
     3d0:	9b000000 	blls	3d8 <LINK_ADDR-0x7c28>
     3d4:	05000000 	streq	r0, [r0, #-0]
     3d8:	0000009b 	muleq	r0, fp, r0
     3dc:	a8040700 	stmdage	r4, {r8, r9, sl}
     3e0:	03000000 	movweq	r0, #0
     3e4:	00af0801 	adceq	r0, pc, r1, lsl #16
     3e8:	a1080000 	mrsge	r0, (UNDEF: 8)
     3ec:	06000000 	streq	r0, [r0], -r0
     3f0:	00000256 	andeq	r0, r0, r6, asr r2
     3f4:	b90e2102 	stmdblt	lr, {r1, r8, sp}
     3f8:	07000000 	streq	r0, [r0, -r0]
     3fc:	00008c04 	andeq	r8, r0, r4, lsl #24
     400:	00ad0900 	adceq	r0, sp, r0, lsl #18
     404:	0c010000 	stceq	0, cr0, [r1], {-0}
     408:	04030507 	streq	r0, [r3], #-1287	; 0xfffffaf9
     40c:	0a00008e 	beq	64c <LINK_ADDR-0x79b4>
     410:	0000024d 	andeq	r0, r0, sp, asr #4
     414:	25050401 	strcs	r0, [r5, #-1025]	; 0xfffffbff
     418:	10000000 	andne	r0, r0, r0
     41c:	34000081 	strcc	r0, [r0], #-129	; 0xffffff7f
     420:	01000000 	mrseq	r0, (UNDEF: 0)
     424:	00700b9c 			; <UNDEFINED> instruction: 0x00700b9c
     428:	9b1f0401 	blls	7c1434 <__bss_end__+0x7b8084>
     42c:	48000000 	stmdami	r0, {}	; <UNPREDICTABLE>
     430:	44000000 	strmi	r0, [r0], #-0
     434:	00000000 	andeq	r0, r0, r0
     438:	000ad700 	andeq	sp, sl, r0, lsl #14
     43c:	d6000400 	strle	r0, [r0], -r0, lsl #8
     440:	04000002 	streq	r0, [r0], #-2
     444:	00010701 	andeq	r0, r1, r1, lsl #14
     448:	027a0c00 	rsbseq	r0, sl, #0, 24
     44c:	02050000 	andeq	r0, r5, #0, 0
     450:	81440000 	mrshi	r0, (UNDEF: 68)
     454:	07400000 	strbeq	r0, [r0, -r0]
     458:	02b60000 	adcseq	r0, r6, #0, 0
     45c:	04020000 	streq	r0, [r2], #-0
     460:	746e6905 	strbtvc	r6, [lr], #-2309	; 0xfffff6fb
     464:	07040300 	streq	r0, [r4, -r0, lsl #6]
     468:	00000033 	andeq	r0, r0, r3, lsr r0
     46c:	a8060103 	stmdage	r6, {r0, r1, r8}
     470:	03000000 	movweq	r0, #0
     474:	00fd0502 	rscseq	r0, sp, r2, lsl #10
     478:	04030000 	streq	r0, [r3], #-0
     47c:	00000505 	andeq	r0, r0, r5, lsl #10
     480:	05080300 	streq	r0, [r8, #-768]	; 0xfffffd00
     484:	00000000 	andeq	r0, r0, r0
     488:	a6080103 	strge	r0, [r8], -r3, lsl #2
     48c:	03000000 	movweq	r0, #0
     490:	00ea0702 	rsceq	r0, sl, r2, lsl #14
     494:	e0040000 	and	r0, r4, r0
     498:	02000002 	andeq	r0, r0, #2, 0
     49c:	00691934 	rsbeq	r1, r9, r4, lsr r9
     4a0:	04030000 	streq	r0, [r3], #-0
     4a4:	00002e07 	andeq	r2, r0, r7, lsl #28
     4a8:	02710400 	rsbseq	r0, r1, #0, 8
     4ac:	37020000 	strcc	r0, [r2, -r0]
     4b0:	00007c19 	andeq	r7, r0, r9, lsl ip
     4b4:	07080300 	streq	r0, [r8, -r0, lsl #6]
     4b8:	00000029 	andeq	r0, r0, r9, lsr #32
     4bc:	00002505 	andeq	r2, r0, r5, lsl #10
     4c0:	00009200 	andeq	r9, r0, r0, lsl #4
     4c4:	00250600 	eoreq	r0, r5, r0, lsl #12
     4c8:	07000000 	streq	r0, [r0, -r0]
     4cc:	000001bc 			; <UNDEFINED> instruction: 0x000001bc
     4d0:	9e0e1c03 	cdpls	12, 0, cr1, cr14, cr3, {0}
     4d4:	08000000 	stmdaeq	r0, {}	; <UNPREDICTABLE>
     4d8:	00008304 	andeq	r8, r0, r4, lsl #6
     4dc:	00250500 	eoreq	r0, r5, r0, lsl #10
     4e0:	00b30000 	adcseq	r0, r3, r0
     4e4:	b3060000 	movwlt	r0, #24576	; 0x6000
     4e8:	00000000 	andeq	r0, r0, r0
     4ec:	00c00408 	sbceq	r0, r0, r8, lsl #8
     4f0:	01030000 	mrseq	r0, (UNDEF: 3)
     4f4:	0000af08 	andeq	sl, r0, r8, lsl #30
     4f8:	00b90900 	adcseq	r0, r9, r0, lsl #18
     4fc:	56070000 	strpl	r0, [r7], -r0
     500:	03000002 	movweq	r0, #2
     504:	00d10e21 	sbcseq	r0, r1, r1, lsr #28
     508:	04080000 	streq	r0, [r8], #-0
     50c:	000000a4 	andeq	r0, r0, r4, lsr #1
     510:	00028d07 	andeq	r8, r2, r7, lsl #26
     514:	0d0b0400 	cfstrseq	mvf0, [fp, #-0]
     518:	000000b9 	strheq	r0, [r0], -r9
     51c:	00031607 	andeq	r1, r3, r7, lsl #12
     520:	0d0c0400 	cfstrseq	mvf0, [ip, #-0]
     524:	000000b9 	strheq	r0, [r0], -r9
     528:	00029c07 	andeq	r9, r2, r7, lsl #24
     52c:	0d0d0400 	cfstrseq	mvf0, [sp, #-0]
     530:	000000b9 	strheq	r0, [r0], -r9
     534:	0002c507 	andeq	ip, r2, r7, lsl #10
     538:	0d0e0400 	cfstrseq	mvf0, [lr, #-0]
     53c:	000000b9 	strheq	r0, [r0], -r9
     540:	00033f07 	andeq	r3, r3, r7, lsl #30
     544:	0d0f0400 	cfstrseq	mvf0, [pc, #-0]	; 54c <LINK_ADDR-0x7ab4>
     548:	000000b9 	strheq	r0, [r0], -r9
     54c:	0002b007 	andeq	fp, r2, r7
     550:	0d100400 	cfldrseq	mvf0, [r0, #-0]
     554:	000000b9 	strheq	r0, [r0], -r9
     558:	00034e07 	andeq	r4, r3, r7, lsl #28
     55c:	0d110400 	cfldrseq	mvf0, [r1, #-0]
     560:	000000b9 	strheq	r0, [r0], -r9
     564:	0002d107 	andeq	sp, r2, r7, lsl #2
     568:	0d120400 	cfldrseq	mvf0, [r2, #-0]
     56c:	000000b9 	strheq	r0, [r0], -r9
     570:	0001d704 	andeq	sp, r1, r4, lsl #14
     574:	1b280500 	blne	a0197c <__bss_end__+0x9f85cc>
     578:	00000143 	andeq	r0, r0, r3, asr #2
     57c:	0001e60a 	andeq	lr, r1, sl, lsl #12
     580:	00060400 	andeq	r0, r6, r0, lsl #8
     584:	0000015a 	andeq	r0, r0, sl, asr r1
     588:	0001f00b 	andeq	pc, r1, fp
     58c:	00015a00 	andeq	r5, r1, r0, lsl #20
     590:	0c000000 	stceq	0, cr0, [r0], {-0}
     594:	01e80404 	mvneq	r0, r4, lsl #8
     598:	63050000 	movwvs	r0, #20480	; 0x5000
     59c:	00013718 	andeq	r3, r1, r8, lsl r7
     5a0:	01cd0d00 	biceq	r0, sp, r0, lsl #26
     5a4:	81010000 	mrshi	r0, (UNDEF: 1)
     5a8:	00002505 	andeq	r2, r0, r5, lsl #10
     5ac:	0083cc00 	addeq	ip, r3, r0, lsl #24
     5b0:	0004b800 	andeq	fp, r4, r0, lsl #16
     5b4:	179c0100 	ldrne	r0, [ip, r0, lsl #2]
     5b8:	0e000007 	cdpeq	0, 0, cr0, cr0, cr7, {0}
     5bc:	00667562 	rsbeq	r7, r6, r2, ror #10
     5c0:	17158101 	ldrne	r8, [r5, -r1, lsl #2]
     5c4:	6c000007 	stcvs	0, cr0, [r0], {7}
     5c8:	66000000 	strvs	r0, [r0], -r0
     5cc:	0e000000 	cdpeq	0, 0, cr0, cr0, cr0, {0}
     5d0:	8101006e 	tsthi	r1, lr, rrx
     5d4:	0000251e 	andeq	r2, r0, lr, lsl r5
     5d8:	00009e00 	andeq	r9, r0, r0, lsl #28
     5dc:	00009800 	andeq	r9, r0, r0, lsl #16
     5e0:	6d660e00 	stclvs	14, cr0, [r6, #-0]
     5e4:	81010074 	tsthi	r1, r4, ror r0
     5e8:	0000b32d 	andeq	fp, r0, sp, lsr #6
     5ec:	0000d800 	andeq	sp, r0, r0, lsl #16
     5f0:	0000cc00 	andeq	ip, r0, r0, lsl #24
     5f4:	01c80f00 	biceq	r0, r8, r0, lsl #30
     5f8:	81010000 	mrshi	r0, (UNDEF: 1)
     5fc:	00015c3a 	andeq	r5, r1, sl, lsr ip
     600:	d4910300 	ldrle	r0, [r1], #768	; 0x300
     604:	0070107d 	rsbseq	r1, r0, sp, ror r0
     608:	17088201 	strne	r8, [r8, -r1, lsl #4]
     60c:	36000007 	strcc	r0, [r0], -r7
     610:	22000001 	andcs	r0, r0, #1, 0
     614:	10000001 	andne	r0, r0, r1
     618:	82010065 	andhi	r0, r1, #101, 0	; 0x65
     61c:	00071712 	andeq	r1, r7, r2, lsl r7
     620:	0001b800 	andeq	fp, r1, r0, lsl #16
     624:	0001b400 	andeq	fp, r1, r0, lsl #8
     628:	30781000 	rsbscc	r1, r8, r0
     62c:	0e830100 	rmfeqs	f0, f3, f0
     630:	0000005d 	andeq	r0, r0, sp, asr r0
     634:	000001e5 	andeq	r0, r0, r5, ror #3
     638:	000001df 	ldrdeq	r0, [r0], -pc	; <UNPREDICTABLE>
     63c:	00317810 	eorseq	r7, r1, r0, lsl r8
     640:	5d118301 	ldcpl	3, cr8, [r1, #-4]
     644:	12000000 	andne	r0, r0, #0, 0
     648:	0e000002 	cdpeq	0, 0, cr0, cr0, cr2, {0}
     64c:	11000002 	tstne	r0, r2
     650:	000002f8 	strdeq	r0, [r0], -r8
     654:	b3118601 	tstlt	r1, #1048576	; 0x100000
     658:	34000000 	strcc	r0, [r0], #-0
     65c:	30000002 	andcc	r0, r0, r2
     660:	12000002 	andne	r0, r0, #2, 0
     664:	0000000e 	andeq	r0, r0, lr
     668:	0000072d 	andeq	r0, r0, sp, lsr #14
     66c:	8f980305 	svchi	0x00980305
     670:	34130000 	ldrcc	r0, [r3], #-0
     674:	00000084 	andeq	r0, r0, r4, lsl #1
     678:	10000004 	andne	r0, r0, r4
     67c:	91010073 	tstls	r1, r3, ror r0
     680:	0007170a 	andeq	r1, r7, sl, lsl #14
     684:	00026a00 	andeq	r6, r2, r0, lsl #20
     688:	00025400 	andeq	r5, r2, r0, lsl #8
     68c:	756e1400 	strbvc	r1, [lr, #-1024]!	; 0xfffffc00
     690:	9101006d 	tstls	r1, sp, rrx
     694:	0007320d 	andeq	r3, r7, sp, lsl #4
     698:	d8910300 	ldmle	r1, {r8, r9}
     69c:	035b157d 	cmpeq	fp, #524288000	; 0x1f400000
     6a0:	91010000 	mrsls	r0, (UNDEF: 1)
     6a4:	00073217 	andeq	r3, r7, r7, lsl r2
     6a8:	d8910300 	ldmle	r1, {r8, r9}
     6ac:	02aa117e 	adceq	r1, sl, #-2147483617	; 0x8000001f
     6b0:	92010000 	andls	r0, r1, #0, 0
     6b4:	00002c0d 	andeq	r2, r0, sp, lsl #24
     6b8:	0002f100 	andeq	pc, r2, r0, lsl #2
     6bc:	0002eb00 	andeq	lr, r2, r0, lsl #22
     6c0:	84fc1600 	ldrbthi	r1, [ip], #1536	; 0x600
     6c4:	01a40000 			; <UNDEFINED> instruction: 0x01a40000
     6c8:	05390000 	ldreq	r0, [r9, #-0]!
     6cc:	74100000 	ldrvc	r0, [r0], #-0
     6d0:	9e010079 	mcrls	0, 0, r0, cr1, cr9, {3}
     6d4:	0000b31d 	andeq	fp, r0, sp, lsl r3
     6d8:	00032500 	andeq	r2, r3, r0, lsl #10
     6dc:	00031b00 	andeq	r1, r3, r0, lsl #22
     6e0:	78781700 	ldmdavc	r8!, {r8, r9, sl, ip}^
     6e4:	1aa20100 	bne	fe880aec <__bss_end__+0xfe87773c>
     6e8:	00000070 	andeq	r0, r0, r0, ror r0
     6ec:	00850c18 	addeq	r0, r5, r8, lsl ip
     6f0:	000a9200 	andeq	r9, sl, r0, lsl #4
     6f4:	0002d500 	andeq	sp, r2, r0, lsl #10
     6f8:	50011900 	andpl	r1, r1, r0, lsl #18
     6fc:	19007602 	stmdbne	r0, {r1, r9, sl, ip, sp, lr}
     700:	03055101 	movweq	r5, #20737	; 0x5101
     704:	00008e8c 	andeq	r8, r0, ip, lsl #29
     708:	01520119 	cmpeq	r2, r9, lsl r1
     70c:	24180033 	ldrcs	r0, [r8], #-51	; 0xffffffcd
     710:	92000085 	andls	r0, r0, #133, 0	; 0x85
     714:	f700000a 			; <UNDEFINED> instruction: 0xf700000a
     718:	19000002 	stmdbne	r0, {r1}
     71c:	76025001 	strvc	r5, [r2], -r1
     720:	51011900 	tstpl	r1, r0, lsl #18
     724:	8e900305 	cdphi	3, 9, cr0, cr0, cr5, {0}
     728:	01190000 	tsteq	r9, r0
     72c:	00330152 	eorseq	r0, r3, r2, asr r1
     730:	00855818 	addeq	r5, r5, r8, lsl r8
     734:	000a9e00 	andeq	r9, sl, r0, lsl #28
     738:	00031400 	andeq	r1, r3, r0, lsl #8
     73c:	50011900 	andpl	r1, r1, r0, lsl #18
     740:	8e940305 	cdphi	3, 9, cr0, cr4, cr5, {0}
     744:	01190000 	tsteq	r9, r0
     748:	00770251 	rsbseq	r0, r7, r1, asr r2
     74c:	85641800 	strbhi	r1, [r4, #-2048]!	; 0xfffff800
     750:	0a9e0000 	beq	fe780758 <__bss_end__+0xfe7773a8>
     754:	03310000 	teqeq	r1, #0, 0
     758:	01190000 	tsteq	r9, r0
     75c:	9c030550 	cfstr32ls	mvfx0, [r3], {80}	; 0x50
     760:	1900008e 	stmdbne	r0, {r1, r2, r3, r7}
     764:	7a025101 	bvc	94b70 <__bss_end__+0x8b7c0>
     768:	74180000 	ldrvc	r0, [r8], #-0
     76c:	92000085 	andls	r0, r0, #133, 0	; 0x85
     770:	5300000a 	movwpl	r0, #10
     774:	19000003 	stmdbne	r0, {r0, r1}
     778:	76025001 	strvc	r5, [r2], -r1
     77c:	51011900 	tstpl	r1, r0, lsl #18
     780:	8e8c0305 	cdphi	3, 8, cr0, cr12, cr5, {0}
     784:	01190000 	tsteq	r9, r0
     788:	00330152 	eorseq	r0, r3, r2, asr r1
     78c:	00858c18 	addeq	r8, r5, r8, lsl ip
     790:	000a9200 	andeq	r9, sl, r0, lsl #4
     794:	00037500 	andeq	r7, r3, r0, lsl #10
     798:	50011900 	andpl	r1, r1, r0, lsl #18
     79c:	19007602 	stmdbne	r0, {r1, r9, sl, ip, sp, lr}
     7a0:	03055101 	movweq	r5, #20737	; 0x5101
     7a4:	00008e90 	muleq	r0, r0, lr
     7a8:	01520119 	cmpeq	r2, r9, lsl r1
     7ac:	b4180033 	ldrlt	r0, [r8], #-51	; 0xffffffcd
     7b0:	42000085 	andmi	r0, r0, #133, 0	; 0x85
     7b4:	a9000007 	stmdbge	r0, {r0, r1, r2}
     7b8:	19000003 	stmdbne	r0, {r0, r1}
     7bc:	3a015001 	bcc	547c8 <__bss_end__+0x4b418>
     7c0:	03510119 	cmpeq	r1, #1073741830	; 0x40000006
     7c4:	197dd091 	ldmdbne	sp!, {r0, r4, r7, ip, lr, pc}^
     7c8:	08025201 	stmdaeq	r2, {r0, r9, ip, lr}
     7cc:	53011980 	movwpl	r1, #6528	; 0x1980
     7d0:	19007702 	stmdbne	r0, {r1, r8, r9, sl, ip, sp, lr}
     7d4:	02007d02 	andeq	r7, r0, #128	; 0x80
     7d8:	02190075 	andseq	r0, r9, #117, 0	; 0x75
     7dc:	7602047d 			; <UNDEFINED> instruction: 0x7602047d
     7e0:	d4180000 	ldrle	r0, [r8], #-0
     7e4:	42000085 	andmi	r0, r0, #133, 0	; 0x85
     7e8:	dd000007 	stcle	0, cr0, [r0, #-28]	; 0xffffffe4
     7ec:	19000003 	stmdbne	r0, {r0, r1}
     7f0:	3a015001 	bcc	547fc <__bss_end__+0x4b44c>
     7f4:	03510119 	cmpeq	r1, #1073741830	; 0x40000006
     7f8:	197ed091 	ldmdbne	lr!, {r0, r4, r7, ip, lr, pc}^
     7fc:	08025201 	stmdaeq	r2, {r0, r9, ip, lr}
     800:	53011980 	movwpl	r1, #6528	; 0x1980
     804:	19007a02 	stmdbne	r0, {r1, r9, fp, ip, sp, lr}
     808:	02007d02 	andeq	r7, r0, #128	; 0x80
     80c:	02190075 	andseq	r0, r9, #117, 0	; 0x75
     810:	7602047d 			; <UNDEFINED> instruction: 0x7602047d
     814:	e0180000 	ands	r0, r8, r0
     818:	aa000085 	bge	a34 <LINK_ADDR-0x75cc>
     81c:	fb00000a 	blx	84e <LINK_ADDR-0x77b2>
     820:	19000003 	stmdbne	r0, {r0, r1}
     824:	91035001 	tstls	r3, r1
     828:	01197dd0 			; <UNDEFINED> instruction: 0x01197dd0
     82c:	50030551 	andpl	r0, r3, r1, asr r5
     830:	0000008e 	andeq	r0, r0, lr, lsl #1
     834:	0085f418 	addeq	pc, r5, r8, lsl r4	; <UNPREDICTABLE>
     838:	000ab600 	andeq	fp, sl, r0, lsl #12
     83c:	00041700 	andeq	r1, r4, r0, lsl #14
     840:	50011900 	andpl	r1, r1, r0, lsl #18
     844:	7dd09103 	ldfvcp	f1, [r0, #12]
     848:	03510119 	cmpeq	r1, #1073741830	; 0x40000006
     84c:	007ed091 			; <UNDEFINED> instruction: 0x007ed091
     850:	00861818 	addeq	r1, r6, r8, lsl r8
     854:	000a9e00 	andeq	r9, sl, r0, lsl #28
     858:	00045000 	andeq	r5, r4, r0
     85c:	50011900 	andpl	r1, r1, r0, lsl #18
     860:	8e3c0305 	cdphi	3, 3, cr0, cr12, cr5, {0}
     864:	01190000 	tsteq	r9, r0
     868:	28030551 	stmdacs	r3, {r0, r4, r6, r8, sl}
     86c:	1900008e 	stmdbne	r0, {r1, r2, r3, r7}
     870:	03055201 	movweq	r5, #20993	; 0x5201
     874:	00008f98 	muleq	r0, r8, pc	; <UNPREDICTABLE>
     878:	02530119 	subseq	r0, r3, #1073741830	; 0x40000006
     87c:	02199f08 	andseq	r9, r9, #8, 30
     880:	0305007d 	movweq	r0, #20605	; 0x507d
     884:	00008ea4 	andeq	r8, r0, r4, lsr #29
     888:	861c1a00 	ldrhi	r1, [ip], -r0, lsl #20
     88c:	0ac20000 	beq	ff080894 <__bss_end__+0xff0774e4>
     890:	3c180000 	ldccc	0, cr0, [r8], {-0}
     894:	42000086 	andmi	r0, r0, #134, 0	; 0x86
     898:	8d000007 	stchi	0, cr0, [r0, #-28]	; 0xffffffe4
     89c:	19000004 	stmdbne	r0, {r2}
     8a0:	40015001 	andmi	r5, r1, r1
     8a4:	03510119 	cmpeq	r1, #1073741830	; 0x40000006
     8a8:	197dd091 	ldmdbne	sp!, {r0, r4, r7, ip, lr, pc}^
     8ac:	08025201 	stmdaeq	r2, {r0, r9, ip, lr}
     8b0:	53011980 	movwpl	r1, #6528	; 0x1980
     8b4:	19007702 	stmdbne	r0, {r1, r8, r9, sl, ip, sp, lr}
     8b8:	02007d02 	andeq	r7, r0, #128	; 0x80
     8bc:	02190075 	andseq	r0, r9, #117, 0	; 0x75
     8c0:	7602047d 			; <UNDEFINED> instruction: 0x7602047d
     8c4:	5c180000 	ldcpl	0, cr0, [r8], {-0}
     8c8:	42000086 	andmi	r0, r0, #134, 0	; 0x86
     8cc:	c1000007 	tstgt	r0, r7
     8d0:	19000004 	stmdbne	r0, {r2}
     8d4:	40015001 	andmi	r5, r1, r1
     8d8:	03510119 	cmpeq	r1, #1073741830	; 0x40000006
     8dc:	197ed091 	ldmdbne	lr!, {r0, r4, r7, ip, lr, pc}^
     8e0:	08025201 	stmdaeq	r2, {r0, r9, ip, lr}
     8e4:	53011980 	movwpl	r1, #6528	; 0x1980
     8e8:	19007a02 	stmdbne	r0, {r1, r9, fp, ip, sp, lr}
     8ec:	02007d02 	andeq	r7, r0, #128	; 0x80
     8f0:	02190075 	andseq	r0, r9, #117, 0	; 0x75
     8f4:	7602047d 			; <UNDEFINED> instruction: 0x7602047d
     8f8:	68180000 	ldmdavs	r8, {}	; <UNPREDICTABLE>
     8fc:	ce000086 	cdpgt	0, 0, cr0, cr0, cr6, {4}
     900:	dd00000a 	stcle	0, cr0, [r0, #-40]	; 0xffffffd8
     904:	19000004 	stmdbne	r0, {r2}
     908:	91035001 	tstls	r3, r1
     90c:	01197dd0 			; <UNDEFINED> instruction: 0x01197dd0
     910:	d2910351 	addsle	r0, r1, #1140850689	; 0x44000001
     914:	7c18007e 	ldcvc	0, cr0, [r8], {126}	; 0x7e
     918:	ce000086 	cdpgt	0, 0, cr0, cr0, cr6, {4}
     91c:	f900000a 			; <UNDEFINED> instruction: 0xf900000a
     920:	19000004 	stmdbne	r0, {r2}
     924:	91035001 	tstls	r3, r1
     928:	01197dd0 			; <UNDEFINED> instruction: 0x01197dd0
     92c:	d0910351 	addsle	r0, r1, r1, asr r3
     930:	9c18007e 	ldcls	0, cr0, [r8], {126}	; 0x7e
     934:	9e000086 	cdpls	0, 0, cr0, cr0, cr6, {4}
     938:	2f00000a 	svccs	0x0000000a
     93c:	19000005 	stmdbne	r0, {r0, r2}
     940:	03055001 	movweq	r5, #20481	; 0x5001
     944:	00008ee0 	andeq	r8, r0, r0, ror #29
     948:	05510119 	ldrbeq	r0, [r1, #-281]	; 0xfffffee7
     94c:	008e2803 	addeq	r2, lr, r3, lsl #16
     950:	52011900 	andpl	r1, r1, #0, 18
     954:	8f980305 	svchi	0x00980305
     958:	01190000 	tsteq	r9, r0
     95c:	b6080253 			; <UNDEFINED> instruction: 0xb6080253
     960:	007d0219 	rsbseq	r0, sp, r9, lsl r2
     964:	00007602 	andeq	r7, r0, r2, lsl #12
     968:	0086a01a 	addeq	sl, r6, sl, lsl r0
     96c:	000ac200 	andeq	ip, sl, r0, lsl #4
     970:	4c180000 	ldcmi	0, cr0, [r8], {-0}
     974:	c0000084 	andgt	r0, r0, r4, lsl #1
     978:	4d000009 	stcmi	0, cr0, [r0, #-36]	; 0xffffffdc
     97c:	19000005 	stmdbne	r0, {r0, r2}
     980:	77025001 	strvc	r5, [r2, -r1]
     984:	f8180000 			; <UNDEFINED> instruction: 0xf8180000
     988:	9e000084 	cdpls	0, 0, cr0, cr0, cr4, {4}
     98c:	8600000a 	strhi	r0, [r0], -sl
     990:	19000005 	stmdbne	r0, {r0, r2}
     994:	03055001 	movweq	r5, #20481	; 0x5001
     998:	00008e3c 	andeq	r8, r0, ip, lsr lr
     99c:	05510119 	ldrbeq	r0, [r1, #-281]	; 0xfffffee7
     9a0:	008e2803 	addeq	r2, lr, r3, lsl #16
     9a4:	52011900 	andpl	r1, r1, #0, 18
     9a8:	8f980305 	svchi	0x00980305
     9ac:	01190000 	tsteq	r9, r0
     9b0:	98080253 	stmdals	r8, {r0, r1, r4, r6, r9}
     9b4:	007d0219 	rsbseq	r0, sp, r9, lsl r2
     9b8:	8e800305 	cdphi	3, 8, cr0, cr0, cr5, {0}
     9bc:	1a000000 	bne	9c4 <LINK_ADDR-0x763c>
     9c0:	000084fc 	strdeq	r8, [r0], -ip
     9c4:	00000ac2 	andeq	r0, r0, r2, asr #21
     9c8:	0086b418 	addeq	fp, r6, r8, lsl r4
     9cc:	000a9e00 	andeq	r9, sl, r0, lsl #28
     9d0:	0005be00 	andeq	fp, r5, r0, lsl #28
     9d4:	50011900 	andpl	r1, r1, r0, lsl #18
     9d8:	8f080305 	svchi	0x00080305
     9dc:	01190000 	tsteq	r9, r0
     9e0:	28030551 	stmdacs	r3, {r0, r4, r6, r8, sl}
     9e4:	1900008e 	stmdbne	r0, {r1, r2, r3, r7}
     9e8:	03055201 	movweq	r5, #20993	; 0x5201
     9ec:	00008f98 	muleq	r0, r8, pc	; <UNPREDICTABLE>
     9f0:	02530119 	subseq	r0, r3, #1073741830	; 0x40000006
     9f4:	1a00be08 	bne	3021c <__bss_end__+0x26e6c>
     9f8:	000086b8 			; <UNDEFINED> instruction: 0x000086b8
     9fc:	00000ac2 	andeq	r0, r0, r2, asr #21
     a00:	0086e418 	addeq	lr, r6, r8, lsl r4
     a04:	00074200 	andeq	r4, r7, r0, lsl #4
     a08:	0005f400 	andeq	pc, r5, r0, lsl #8
     a0c:	50011900 	andpl	r1, r1, r0, lsl #18
     a10:	01193a01 	tsteq	r9, r1, lsl #20
     a14:	d0910351 	addsle	r0, r1, r1, asr r3
     a18:	5201197d 	andpl	r1, r1, #2048000	; 0x1f4000
     a1c:	19800802 	stmibne	r0, {r1, fp}
     a20:	02007d02 	andeq	r7, r0, #128	; 0x80
     a24:	02190075 	andseq	r0, r9, #117, 0	; 0x75
     a28:	3101047d 	tstcc	r1, sp, ror r4
     a2c:	871c1800 	ldrhi	r1, [ip, -r0, lsl #16]
     a30:	07420000 	strbeq	r0, [r2, -r0]
     a34:	06210000 	strteq	r0, [r1], -r0
     a38:	01190000 	tsteq	r9, r0
     a3c:	193a0150 	ldmdbne	sl!, {r4, r6, r8}
     a40:	91035101 	tstls	r3, r1, lsl #2
     a44:	01197dd0 			; <UNDEFINED> instruction: 0x01197dd0
     a48:	80080252 	andhi	r0, r8, r2, asr r2
     a4c:	007d0219 	rsbseq	r0, sp, r9, lsl r2
     a50:	19007502 	stmdbne	r0, {r1, r8, sl, ip, sp, lr}
     a54:	01047d02 	tsteq	r4, r2, lsl #26
     a58:	50180030 	andspl	r0, r8, r0, lsr r0
     a5c:	42000087 	andmi	r0, r0, #135, 0	; 0x87
     a60:	4e000007 	cdpmi	0, 0, cr0, cr0, cr7, {0}
     a64:	19000006 	stmdbne	r0, {r1, r2}
     a68:	40015001 	andmi	r5, r1, r1
     a6c:	03510119 	cmpeq	r1, #1073741830	; 0x40000006
     a70:	197dd091 	ldmdbne	sp!, {r0, r4, r7, ip, lr, pc}^
     a74:	08025201 	stmdaeq	r2, {r0, r9, ip, lr}
     a78:	7d021980 	vstrvc.16	s2, [r2, #-256]	; 0xffffff00	; <UNPREDICTABLE>
     a7c:	00750200 	rsbseq	r0, r5, r0, lsl #4
     a80:	047d0219 	ldrbteq	r0, [sp], #-537	; 0xfffffde7
     a84:	18003001 	stmdane	r0, {r0, ip, sp}
     a88:	00008784 	andeq	r8, r0, r4, lsl #15
     a8c:	00000742 	andeq	r0, r0, r2, asr #14
     a90:	0000067b 	andeq	r0, r0, fp, ror r6
     a94:	01500119 	cmpeq	r0, r9, lsl r1
     a98:	51011932 	tstpl	r1, r2, lsr r9
     a9c:	7dd09103 	ldfvcp	f1, [r0, #12]
     aa0:	02520119 	subseq	r0, r2, #1073741830	; 0x40000006
     aa4:	02198008 	andseq	r8, r9, #8, 0
     aa8:	7502007d 	strvc	r0, [r2, #-125]	; 0xffffff83
     aac:	7d021900 	vstrvc.16	s2, [r2, #-0]	; <UNPREDICTABLE>
     ab0:	00300104 	eorseq	r0, r0, r4, lsl #2
     ab4:	0087cc18 	addeq	ip, r7, r8, lsl ip
     ab8:	00074200 	andeq	r4, r7, r0, lsl #4
     abc:	0006a800 	andeq	sl, r6, r0, lsl #16
     ac0:	50011900 	andpl	r1, r1, r0, lsl #18
     ac4:	01193801 	tsteq	r9, r1, lsl #16
     ac8:	d0910351 	addsle	r0, r1, r1, asr r3
     acc:	5201197d 	andpl	r1, r1, #2048000	; 0x1f4000
     ad0:	19800802 	stmibne	r0, {r1, fp}
     ad4:	02007d02 	andeq	r7, r0, #128	; 0x80
     ad8:	02190075 	andseq	r0, r9, #117, 0	; 0x75
     adc:	3001047d 	andcc	r0, r1, sp, ror r4
     ae0:	87ec1800 	strbhi	r1, [ip, r0, lsl #16]!
     ae4:	0a9e0000 	beq	fe780aec <__bss_end__+0xfe77773c>
     ae8:	06cb0000 	strbeq	r0, [fp], r0
     aec:	01190000 	tsteq	r9, r0
     af0:	30030550 	andcc	r0, r3, r0, asr r5
     af4:	1900008f 	stmdbne	r0, {r0, r1, r2, r3, r7}
     af8:	7a025101 	bvc	94f04 <__bss_end__+0x8bb54>
     afc:	52011900 	andpl	r1, r1, #0, 18
     b00:	00007a02 	andeq	r7, r0, r2, lsl #20
     b04:	0087fc1b 	addeq	pc, r7, fp, lsl ip	; <UNPREDICTABLE>
     b08:	0006dd00 	andeq	sp, r6, r0, lsl #26
     b0c:	50011900 	andpl	r1, r1, r0, lsl #18
     b10:	7dc89104 	stfvcp	f1, [r8, #16]
     b14:	10180006 	andsne	r0, r8, r6
     b18:	9e000088 	cdpls	0, 0, cr0, cr0, cr8, {4}
     b1c:	0c00000a 	stceq	0, cr0, [r0], {10}
     b20:	19000007 	stmdbne	r0, {r0, r1, r2}
     b24:	03055001 	movweq	r5, #20481	; 0x5001
     b28:	00008f60 	andeq	r8, r0, r0, ror #30
     b2c:	05510119 	ldrbeq	r0, [r1, #-281]	; 0xfffffee7
     b30:	008e2803 	addeq	r2, lr, r3, lsl #16
     b34:	52011900 	andpl	r1, r1, #0, 18
     b38:	8f980305 	svchi	0x00980305
     b3c:	01190000 	tsteq	r9, r0
     b40:	e2080253 	and	r0, r8, #805306373	; 0x30000005
     b44:	88141a00 	ldmdahi	r4, {r9, fp, ip}
     b48:	0ac20000 	beq	ff080b50 <__bss_end__+0xff0777a0>
     b4c:	00000000 	andeq	r0, r0, r0
     b50:	00b90408 	adcseq	r0, r9, r8, lsl #8
     b54:	c01c0000 	andsgt	r0, ip, r0
     b58:	2d000000 	stccs	0, cr0, [r0, #-0]
     b5c:	1d000007 	stcne	0, cr0, [r0, #-28]	; 0xffffffe4
     b60:	0000002c 	andeq	r0, r0, ip, lsr #32
     b64:	1d090009 	stcne	0, cr0, [r9, #-36]	; 0xffffffdc
     b68:	1c000007 	stcne	0, cr0, [r0], {7}
     b6c:	000000b9 	strheq	r0, [r0], -r9
     b70:	00000742 	andeq	r0, r0, r2, asr #14
     b74:	00002c1d 	andeq	r2, r0, sp, lsl ip
     b78:	1e007f00 	cdpne	15, 0, cr7, cr0, cr0, {0}
     b7c:	00000323 	andeq	r0, r0, r3, lsr #6
     b80:	17014901 	strne	r4, [r1, -r1, lsl #18]
     b84:	b4000007 	strlt	r0, [r0], #-7
     b88:	b4000081 	strlt	r0, [r0], #-129	; 0xffffff7f
     b8c:	01000001 	tsteq	r0, r1
     b90:	0008ab9c 	muleq	r8, ip, fp
     b94:	03681f00 	cmneq	r8, #0, 30
     b98:	49010000 	stmdbmi	r1, {}	; <UNPREDICTABLE>
     b9c:	00002c0f 	andeq	r2, r0, pc, lsl #24
     ba0:	00036e00 	andeq	r6, r3, r0, lsl #28
     ba4:	00036800 	andeq	r6, r3, r0, lsl #16
     ba8:	73640e00 	cmnvc	r4, #0, 28
     bac:	49010074 	stmdbmi	r1, {r2, r4, r5, r6}
     bb0:	0007171b 	andeq	r1, r7, fp, lsl r7
     bb4:	0003ac00 	andeq	sl, r3, r0, lsl #24
     bb8:	00039c00 	andeq	r9, r3, r0, lsl #24
     bbc:	006e0e00 	rsbeq	r0, lr, r0, lsl #28
     bc0:	25244901 	strcs	r4, [r4, #-2305]!	; 0xfffff6ff
     bc4:	10000000 	andne	r0, r0, r0
     bc8:	0c000004 	stceq	0, cr0, [r0], {4}
     bcc:	0e000004 	cdpeq	0, 0, cr0, cr0, cr4, {0}
     bd0:	006c6176 	rsbeq	r6, ip, r6, ror r1
     bd4:	252b4901 	strcs	r4, [fp, #-2305]!	; 0xfffff6ff
     bd8:	3a000000 	bcc	be0 <LINK_ADDR-0x7420>
     bdc:	2e000004 	cdpcs	0, 0, cr0, cr0, cr4, {0}
     be0:	1f000004 	svcne	0x00000004
     be4:	000002aa 	andeq	r0, r0, sl, lsr #5
     be8:	25344901 	ldrcs	r4, [r4, #-2305]!	; 0xfffff6ff
     bec:	90000000 	andls	r0, r0, r0
     bf0:	8a000004 	bhi	c08 <LINK_ADDR-0x73f8>
     bf4:	0f000004 	svceq	0x00000004
     bf8:	0000036d 	andeq	r0, r0, sp, ror #6
     bfc:	253f4901 	ldrcs	r4, [pc, #-2305]!	; 303 <LINK_ADDR-0x7cfd>
     c00:	02000000 	andeq	r0, r0, #0, 0
     c04:	62140491 	andsvs	r0, r4, #-1862270976	; 0x91000000
     c08:	01006675 	tsteq	r0, r5, ror r6
     c0c:	08ab074e 	stmiaeq	fp!, {r1, r2, r3, r6, r8, r9, sl}
     c10:	91030000 	mrsls	r0, (UNDEF: 3)
     c14:	70107fa8 	andsvc	r7, r0, r8, lsr #31
     c18:	114e0100 	mrsne	r0, (UNDEF: 94)
     c1c:	00000717 	andeq	r0, r0, r7, lsl r7
     c20:	000004da 	ldrdeq	r0, [r0], -sl
     c24:	000004ba 			; <UNDEFINED> instruction: 0x000004ba
     c28:	01007510 	tsteq	r0, r0, lsl r5
     c2c:	002c0b4f 	eoreq	r0, ip, pc, asr #22
     c30:	05c00000 	strbeq	r0, [r0]
     c34:	05ac0000 	streq	r0, [ip, #0]!
     c38:	0e120000 	cdpeq	0, 1, cr0, cr2, cr0, {0}
     c3c:	cb000000 	blgt	c44 <LINK_ADDR-0x73bc>
     c40:	05000008 	streq	r0, [r0, #-8]
     c44:	008f8003 	addeq	r8, pc, r3
     c48:	82201600 	eorhi	r1, r0, #0, 12
     c4c:	00780000 	rsbseq	r0, r8, r0
     c50:	08320000 	ldmdaeq	r2!, {}	; <UNPREDICTABLE>
     c54:	10110000 	andsne	r0, r1, r0
     c58:	01000003 	tsteq	r0, r3
     c5c:	002c0d54 	eoreq	r0, ip, r4, asr sp
     c60:	06410000 	strbeq	r0, [r1], -r0
     c64:	06390000 	ldrteq	r0, [r9], -r0
     c68:	18000000 	stmdane	r0, {}	; <UNPREDICTABLE>
     c6c:	000082d8 	ldrdeq	r8, [r0], -r8	; <UNPREDICTABLE>
     c70:	0000095d 	andeq	r0, r0, sp, asr r9
     c74:	00000847 	andeq	r0, r0, r7, asr #16
     c78:	03510119 	cmpeq	r1, #1073741830	; 0x40000006
     c7c:	007fa091 			; <UNDEFINED> instruction: 0x007fa091
     c80:	0082ec18 	addeq	lr, r2, r8, lsl ip
     c84:	0008d000 	andeq	sp, r8, r0
     c88:	00086800 	andeq	r6, r8, r0, lsl #16
     c8c:	50011900 	andpl	r1, r1, r0, lsl #18
     c90:	19007502 	stmdbne	r0, {r1, r8, sl, ip, sp, lr}
     c94:	74025101 	strvc	r5, [r2], #-257	; 0xfffffeff
     c98:	53011900 	movwpl	r1, #6400	; 0x1900
     c9c:	7fa09103 	svcvc	0x00a09103
     ca0:	83441800 	movthi	r1, #18432	; 0x4800
     ca4:	0a9e0000 	beq	fe780cac <__bss_end__+0xfe7778fc>
     ca8:	08a10000 	stmiaeq	r1!, {}	; <UNPREDICTABLE>
     cac:	01190000 	tsteq	r9, r0
     cb0:	3c030550 	cfstr32cc	mvfx0, [r3], {80}	; 0x50
     cb4:	1900008e 	stmdbne	r0, {r1, r2, r3, r7}
     cb8:	03055101 	movweq	r5, #20737	; 0x5101
     cbc:	00008e28 	andeq	r8, r0, r8, lsr #28
     cc0:	05520119 	ldrbeq	r0, [r2, #-281]	; 0xfffffee7
     cc4:	008f8003 	addeq	r8, pc, r3
     cc8:	53011900 	movwpl	r1, #6400	; 0x1900
     ccc:	19790802 	ldmdbne	r9!, {r1, fp}^
     cd0:	05007d02 	streq	r7, [r0, #-3330]	; 0xfffff2fe
     cd4:	008e5003 	addeq	r5, lr, r3
     cd8:	481a0000 	ldmdami	sl, {}	; <UNPREDICTABLE>
     cdc:	c2000083 	andgt	r0, r0, #131, 0	; 0x83
     ce0:	0000000a 	andeq	r0, r0, sl
     ce4:	0000b91c 	andeq	fp, r0, ip, lsl r9
     ce8:	0008bb00 	andeq	fp, r8, r0, lsl #22
     cec:	002c1d00 	eoreq	r1, ip, r0, lsl #26
     cf0:	003f0000 	eorseq	r0, pc, r0
     cf4:	0000c01c 	andeq	ip, r0, ip, lsl r0
     cf8:	0008cb00 	andeq	ip, r8, r0, lsl #22
     cfc:	002c1d00 	eoreq	r1, ip, r0, lsl #26
     d00:	00040000 	andeq	r0, r4, r0
     d04:	0008bb09 	andeq	fp, r8, r9, lsl #22
     d08:	03301e00 	teqeq	r0, #0, 28
     d0c:	38010000 	stmdacc	r1, {}	; <UNPREDICTABLE>
     d10:	0007170e 	andeq	r1, r7, lr, lsl #14
     d14:	00817c00 	addeq	r7, r1, r0, lsl #24
     d18:	00003800 	andeq	r3, r0, r0, lsl #16
     d1c:	5d9c0100 	ldfpls	f0, [ip]
     d20:	0e000009 	cdpeq	0, 0, cr0, cr0, cr9, {0}
     d24:	00747364 	rsbseq	r7, r4, r4, ror #6
     d28:	171c3801 	ldrne	r3, [ip, -r1, lsl #16]
     d2c:	82000007 	andhi	r0, r0, #7, 0
     d30:	78000006 	stmdavc	r0, {r1, r2}
     d34:	0e000006 	cdpeq	0, 0, cr0, cr0, cr6, {0}
     d38:	3801006e 	stmdacc	r1, {r1, r2, r3, r5, r6}
     d3c:	00002525 	andeq	r2, r0, r5, lsr #10
     d40:	0006c900 	andeq	ip, r6, r0, lsl #18
     d44:	0006c500 	andeq	ip, r6, r0, lsl #10
     d48:	00700e00 	rsbseq	r0, r0, r0, lsl #28
     d4c:	172e3801 	strne	r3, [lr, -r1, lsl #16]!
     d50:	f2000007 	vhadd.s8	d0, d0, d7
     d54:	ea000006 	b	d74 <LINK_ADDR-0x728c>
     d58:	1f000006 	svcne	0x00000006
     d5c:	000002fc 	strdeq	r0, [r0], -ip
     d60:	17373801 	ldrne	r3, [r7, -r1, lsl #16]!
     d64:	2c000007 	stccs	0, cr0, [r0], {7}
     d68:	28000007 	stmdacs	r0, {r0, r1, r2}
     d6c:	10000007 	andne	r0, r0, r7
     d70:	006e656c 	rsbeq	r6, lr, ip, ror #10
     d74:	25063a01 	strcs	r3, [r6, #-2561]	; 0xfffff5ff
     d78:	52000000 	andpl	r0, r0, #0, 0
     d7c:	4a000007 	bmi	da0 <LINK_ADDR-0x7260>
     d80:	10000007 	andne	r0, r0, r7
     d84:	3e010073 	mcrcc	0, 0, r0, cr1, cr3, {3}
     d88:	00071708 	andeq	r1, r7, r8, lsl #14
     d8c:	0007a000 	andeq	sl, r7, r0
     d90:	00079e00 	andeq	r9, r7, r0, lsl #28
     d94:	70200000 	eorvc	r0, r0, r0
     d98:	01006461 	tsteq	r0, r1, ror #8
     d9c:	07170e2e 	ldreq	r0, [r7, -lr, lsr #28]
     da0:	81580000 	cmphi	r8, r0
     da4:	00240000 	eoreq	r0, r4, r0
     da8:	9c010000 	stcls	0, cr0, [r1], {-0}
     dac:	000009c0 	andeq	r0, r0, r0, asr #19
     db0:	0100700e 	tsteq	r0, lr
     db4:	0717182e 	ldreq	r1, [r7, -lr, lsr #16]
     db8:	07b90000 	ldreq	r0, [r9, r0]!
     dbc:	07b30000 	ldreq	r0, [r3, r0]!
     dc0:	681f0000 	ldmdavs	pc, {}	; <UNPREDICTABLE>
     dc4:	01000003 	tsteq	r0, r3
     dc8:	0717222e 	ldreq	r2, [r7, -lr, lsr #4]
     dcc:	07e80000 	strbeq	r0, [r8, r0]!
     dd0:	07e40000 	strbeq	r0, [r4, r0]!
     dd4:	aa0f0000 	bge	3c0ddc <__bss_end__+0x3b7a2c>
     dd8:	01000002 	tsteq	r0, r2
     ddc:	00252c2e 	eoreq	r2, r5, lr, lsr #24
     de0:	52010000 	andpl	r0, r1, #0, 0
     de4:	6e656c10 	mcrvs	12, 3, r6, cr5, cr0, {0}
     de8:	062f0100 	strteq	r0, [pc], -r0, lsl #2
     dec:	00000025 	andeq	r0, r0, r5, lsr #32
     df0:	0000080b 	andeq	r0, r0, fp, lsl #16
     df4:	00000809 	andeq	r0, r0, r9, lsl #16
     df8:	02691e00 	rsbeq	r1, r9, #0, 28
     dfc:	27010000 	strcs	r0, [r1, -r0]
     e00:	0000250c 	andeq	r2, r0, ip, lsl #10
     e04:	00814400 	addeq	r4, r1, r0, lsl #8
     e08:	00001400 	andeq	r1, r0, r0, lsl #8
     e0c:	ed9c0100 	ldfs	f0, [ip]
     e10:	0e000009 	cdpeq	0, 0, cr0, cr0, cr9, {0}
     e14:	27010063 	strcs	r0, [r1, -r3, rrx]
     e18:	00002518 	andeq	r2, r0, r8, lsl r5
     e1c:	00082400 	andeq	r2, r8, r0, lsl #8
     e20:	00081e00 	andeq	r1, r8, r0, lsl #28
     e24:	e9210000 	stmdb	r1!, {}	; <UNPREDICTABLE>
     e28:	01000002 	tsteq	r0, r2
     e2c:	8368061f 	cmnhi	r8, #32505856	; 0x1f00000
     e30:	00640000 	rsbeq	r0, r4, r0
     e34:	9c010000 	stcls	0, cr0, [r1], {-0}
     e38:	00000a7d 	andeq	r0, r0, sp, ror sl
     e3c:	0002bd1f 	andeq	fp, r2, pc, lsl sp
     e40:	1b1f0100 	blne	7c1248 <__bss_end__+0x7b7e98>
     e44:	0000009e 	muleq	r0, lr, r0
     e48:	00000856 	andeq	r0, r0, r6, asr r8
     e4c:	00000852 	andeq	r0, r0, r2, asr r8
     e50:	0003281f 	andeq	r2, r3, pc, lsl r8
     e54:	301f0100 	andscc	r0, pc, r0, lsl #2
     e58:	000000d1 	ldrdeq	r0, [r0], -r1
     e5c:	0000087b 	andeq	r0, r0, fp, ror r8
     e60:	00000877 	andeq	r0, r0, r7, ror r8
     e64:	00000e12 	andeq	r0, r0, r2, lsl lr
     e68:	000a8d00 	andeq	r8, sl, r0, lsl #26
     e6c:	88030500 	stmdahi	r3, {r8, sl}
     e70:	1800008f 	stmdane	r0, {r0, r1, r2, r3, r7}
     e74:	000083b0 			; <UNDEFINED> instruction: 0x000083b0
     e78:	00000a9e 	muleq	r0, lr, sl
     e7c:	00000a73 	andeq	r0, r0, r3, ror sl
     e80:	05500119 	ldrbeq	r0, [r0, #-281]	; 0xfffffee7
     e84:	008e3c03 	addeq	r3, lr, r3, lsl #24
     e88:	51011900 	tstpl	r1, r0, lsl #18
     e8c:	8e280305 	cdphi	3, 2, cr0, cr8, cr5, {0}
     e90:	01190000 	tsteq	r9, r0
     e94:	88030552 	stmdahi	r3, {r1, r4, r6, r8, sl}
     e98:	1900008f 	stmdbne	r0, {r0, r1, r2, r3, r7}
     e9c:	08025301 	stmdaeq	r2, {r0, r8, r9, ip, lr}
     ea0:	7d021920 	vstrvc.16	s2, [r2, #-64]	; 0xffffffc0	; <UNPREDICTABLE>
     ea4:	78030500 	stmdavc	r3, {r8, sl}
     ea8:	0000008e 	andeq	r0, r0, lr, lsl #1
     eac:	0083b41a 	addeq	fp, r3, sl, lsl r4
     eb0:	000ac200 	andeq	ip, sl, r0, lsl #4
     eb4:	c01c0000 	andsgt	r0, ip, r0
     eb8:	8d000000 	stchi	0, cr0, [r0, #-0]
     ebc:	1d00000a 	stcne	0, cr0, [r0, #-40]	; 0xffffffd8
     ec0:	0000002c 	andeq	r0, r0, ip, lsr #32
     ec4:	7d09000e 	stcvc	0, cr0, [r9, #-56]	; 0xffffffc8
     ec8:	2200000a 	andcs	r0, r0, #10, 0
     ecc:	00000360 	andeq	r0, r0, r0, ror #6
     ed0:	00000360 	andeq	r0, r0, r0, ror #6
     ed4:	2205eb03 	andcs	lr, r5, #3072	; 0xc00
     ed8:	000001d0 	ldrdeq	r0, [r0], -r0	; <UNPREDICTABLE>
     edc:	000001d0 	ldrdeq	r0, [r0], -r0	; <UNPREDICTABLE>
     ee0:	22062803 	andcs	r2, r6, #196608	; 0x30000
     ee4:	00000338 	andeq	r0, r0, r8, lsr r3
     ee8:	00000338 	andeq	r0, r0, r8, lsr r3
     eec:	2205ea03 	andcs	lr, r5, #12288	; 0x3000
     ef0:	00000309 	andeq	r0, r0, r9, lsl #6
     ef4:	00000309 	andeq	r0, r0, r9, lsl #6
     ef8:	2207ed03 	andcs	lr, r7, #192	; 0xc0
     efc:	000000d0 	ldrdeq	r0, [r0], -r0	; <UNPREDICTABLE>
     f00:	000000d0 	ldrdeq	r0, [r0], -r0	; <UNPREDICTABLE>
     f04:	22066e03 	andcs	r6, r6, #3, 28	; 0x30
     f08:	00000302 	andeq	r0, r0, r2, lsl #6
     f0c:	00000302 	andeq	r0, r0, r2, lsl #6
     f10:	0007ee03 	andeq	lr, r7, r3, lsl #28
     f14:	0000012f 	andeq	r0, r0, pc, lsr #2
     f18:	04e00004 	strbteq	r0, [r0], #4
     f1c:	01040000 	mrseq	r0, (UNDEF: 4)
     f20:	00000107 	andeq	r0, r0, r7, lsl #2
     f24:	00038a0c 	andeq	r8, r3, ip, lsl #20
     f28:	00020500 	andeq	r0, r2, r0, lsl #10
     f2c:	00888400 	addeq	r8, r8, r0, lsl #8
     f30:	00002c00 	andeq	r2, r0, r0, lsl #24
     f34:	0008d800 	andeq	sp, r8, r0, lsl #16
     f38:	05040200 	streq	r0, [r4, #-512]	; 0xfffffe00
     f3c:	00746e69 	rsbseq	r6, r4, r9, ror #28
     f40:	33070403 	movwcc	r0, #29699	; 0x7403
     f44:	03000000 	movweq	r0, #0
     f48:	00a80601 	adceq	r0, r8, r1, lsl #12
     f4c:	02030000 	andeq	r0, r3, #0, 0
     f50:	0000fd05 	andeq	pc, r0, r5, lsl #26
     f54:	05040300 	streq	r0, [r4, #-768]	; 0xfffffd00
     f58:	00000005 	andeq	r0, r0, r5
     f5c:	00050803 	andeq	r0, r5, r3, lsl #16
     f60:	03000000 	movweq	r0, #0
     f64:	00a60801 	adceq	r0, r6, r1, lsl #16
     f68:	02030000 	andeq	r0, r3, #0, 0
     f6c:	0000ea07 	andeq	lr, r0, r7, lsl #20
     f70:	07040300 	streq	r0, [r4, -r0, lsl #6]
     f74:	0000002e 	andeq	r0, r0, lr, lsr #32
     f78:	29070803 	stmdbcs	r7, {r0, r1, fp}
     f7c:	04000000 	streq	r0, [r0], #-0
     f80:	00000025 	andeq	r0, r0, r5, lsr #32
     f84:	0000007a 	andeq	r0, r0, sl, ror r0
     f88:	00002505 	andeq	r2, r0, r5, lsl #10
     f8c:	bc060000 	stclt	0, cr0, [r6], {-0}
     f90:	02000001 	andeq	r0, r0, #1, 0
     f94:	00860e1c 	addeq	r0, r6, ip, lsl lr
     f98:	04070000 	streq	r0, [r7], #-0
     f9c:	0000006b 	andeq	r0, r0, fp, rrx
     fa0:	00002504 	andeq	r2, r0, r4, lsl #10
     fa4:	00009b00 	andeq	r9, r0, r0, lsl #22
     fa8:	009b0500 	addseq	r0, fp, r0, lsl #10
     fac:	07000000 	streq	r0, [r0, -r0]
     fb0:	0000a804 	andeq	sl, r0, r4, lsl #16
     fb4:	08010300 	stmdaeq	r1, {r8, r9}
     fb8:	000000af 	andeq	r0, r0, pc, lsr #1
     fbc:	0000a108 	andeq	sl, r0, r8, lsl #2
     fc0:	02560600 	subseq	r0, r6, #0, 12
     fc4:	21020000 	mrscs	r0, (UNDEF: 2)
     fc8:	0000b90e 	andeq	fp, r0, lr, lsl #18
     fcc:	8c040700 	stchi	7, cr0, [r4], {-0}
     fd0:	09000000 	stmdbeq	r0, {}	; <UNPREDICTABLE>
     fd4:	000000d0 	ldrdeq	r0, [r0], -r0	; <UNPREDICTABLE>
     fd8:	84060401 	strhi	r0, [r6], #-1025	; 0xfffffbff
     fdc:	2c000088 	stccs	0, cr0, [r0], {136}	; 0x88
     fe0:	01000000 	mrseq	r0, (UNDEF: 0)
     fe4:	00010e9c 	muleq	r1, ip, lr
     fe8:	88980a00 	ldmhi	r8, {r9, fp}
     fec:	00e80000 	rsceq	r0, r8, r0
     ff0:	010b0000 	mrseq	r0, (UNDEF: 11)
     ff4:	a4030550 	strge	r0, [r3], #-1360	; 0xfffffab0
     ff8:	0000008f 	andeq	r0, r0, pc, lsl #1
     ffc:	00889c0c 	addeq	r9, r8, ip, lsl #24
    1000:	00010e00 	andeq	r0, r1, r0, lsl #28
    1004:	88a40d00 	stmiahi	r4!, {r8, sl, fp}
    1008:	011a0000 	tsteq	sl, r0
    100c:	01040000 	mrseq	r0, (UNDEF: 4)
    1010:	010b0000 	mrseq	r0, (UNDEF: 11)
    1014:	003a0150 	eorseq	r0, sl, r0, asr r1
    1018:	0088a80c 	addeq	sl, r8, ip, lsl #16
    101c:	00012600 	andeq	r2, r1, r0, lsl #12
    1020:	a50e0000 	strge	r0, [lr, #-0]
    1024:	a5000003 	strge	r0, [r0, #-3]
    1028:	02000003 	andeq	r0, r0, #3, 0
    102c:	810e064d 	tsthi	lr, sp, asr #12
    1030:	81000003 	tsthi	r0, r3
    1034:	02000003 	andeq	r0, r0, #3, 0
    1038:	760e0658 			; <UNDEFINED> instruction: 0x760e0658
    103c:	76000003 	strvc	r0, [r0], -r3
    1040:	02000003 	andeq	r0, r0, #3, 0
    1044:	8900066b 	stmdbhi	r0, {r0, r1, r3, r5, r6, r9, sl}
    1048:	04000001 	streq	r0, [r0], #-1
    104c:	0005a000 	andeq	sl, r5, r0
    1050:	07010400 	streq	r0, [r1, -r0, lsl #8]
    1054:	0c000001 	stceq	0, cr0, [r0], {1}
    1058:	000003db 	ldrdeq	r0, [r0], -fp
    105c:	00000205 	andeq	r0, r0, r5, lsl #4
    1060:	000088b0 			; <UNDEFINED> instruction: 0x000088b0
    1064:	0000003c 	andeq	r0, r0, ip, lsr r0
    1068:	00000982 	andeq	r0, r0, r2, lsl #19
    106c:	69050402 	stmdbvs	r5, {r1, sl}
    1070:	0300746e 	movweq	r7, #1134	; 0x46e
    1074:	00330704 	eorseq	r0, r3, r4, lsl #14
    1078:	01030000 	mrseq	r0, (UNDEF: 3)
    107c:	0000a806 	andeq	sl, r0, r6, lsl #16
    1080:	05020300 	streq	r0, [r2, #-768]	; 0xfffffd00
    1084:	000000fd 	strdeq	r0, [r0], -sp
    1088:	05050403 	streq	r0, [r5, #-1027]	; 0xfffffbfd
    108c:	03000000 	movweq	r0, #0
    1090:	00000508 	andeq	r0, r0, r8, lsl #10
    1094:	01030000 	mrseq	r0, (UNDEF: 3)
    1098:	0000a608 	andeq	sl, r0, r8, lsl #12
    109c:	07020300 	streq	r0, [r2, -r0, lsl #6]
    10a0:	000000ea 	andeq	r0, r0, sl, ror #1
    10a4:	2e070403 	cdpcs	4, 0, cr0, cr7, cr3, {0}
    10a8:	03000000 	movweq	r0, #0
    10ac:	00290708 	eoreq	r0, r9, r8, lsl #14
    10b0:	25040000 	strcs	r0, [r4, #-0]
    10b4:	7a000000 	bvc	10bc <LINK_ADDR-0x6f44>
    10b8:	05000000 	streq	r0, [r0, #-0]
    10bc:	00000025 	andeq	r0, r0, r5, lsr #32
    10c0:	01bc0600 			; <UNDEFINED> instruction: 0x01bc0600
    10c4:	1c020000 	stcne	0, cr0, [r2], {-0}
    10c8:	0000860e 	andeq	r8, r0, lr, lsl #12
    10cc:	6b040700 	blvs	102cd4 <__bss_end__+0xf9924>
    10d0:	04000000 	streq	r0, [r0], #-0
    10d4:	00000025 	andeq	r0, r0, r5, lsr #32
    10d8:	0000009b 	muleq	r0, fp, r0
    10dc:	00009b05 	andeq	r9, r0, r5, lsl #22
    10e0:	04070000 	streq	r0, [r7], #-0
    10e4:	000000a8 	andeq	r0, r0, r8, lsr #1
    10e8:	af080103 	svcge	0x00080103
    10ec:	08000000 	stmdaeq	r0, {}	; <UNPREDICTABLE>
    10f0:	000000a1 	andeq	r0, r0, r1, lsr #1
    10f4:	00025606 	andeq	r5, r2, r6, lsl #12
    10f8:	0e210200 	cdpeq	2, 2, cr0, cr1, cr0, {0}
    10fc:	000000b9 	strheq	r0, [r0], -r9
    1100:	008c0407 	addeq	r0, ip, r7, lsl #8
    1104:	b3090000 	movwlt	r0, #36864	; 0x9000
    1108:	01000003 	tsteq	r0, r3
    110c:	88b00604 	ldmhi	r0!, {r2, r9, sl}
    1110:	003c0000 	eorseq	r0, ip, r0
    1114:	9c010000 	stcls	0, cr0, [r1], {-0}
    1118:	00000154 	andeq	r0, r0, r4, asr r1
    111c:	00029c06 	andeq	r9, r2, r6, lsl #24
    1120:	10050100 	andne	r0, r5, r0, lsl #2
    1124:	00000025 	andeq	r0, r0, r5, lsr #32
    1128:	0002c506 	andeq	ip, r2, r6, lsl #10
    112c:	1f050100 	svcne	0x00050100
    1130:	00000025 	andeq	r0, r0, r5, lsr #32
    1134:	0000dd0a 	andeq	sp, r0, sl, lsl #26
    1138:	07060100 	streq	r0, [r6, -r0, lsl #2]
    113c:	7373620b 	cmnvc	r3, #-1342177280	; 0xb0000000
    1140:	0a0a0100 	beq	281548 <__bss_end__+0x278198>
    1144:	00000154 	andeq	r0, r0, r4, asr r1
    1148:	000008a2 	andeq	r0, r0, r2, lsr #17
    114c:	0000089c 	muleq	r0, ip, r8
    1150:	0003bb0c 	andeq	fp, r3, ip, lsl #22
    1154:	0a0b0100 	beq	2c155c <__bss_end__+0x2b81ac>
    1158:	00000154 	andeq	r0, r0, r4, asr r1
    115c:	0088d40d 	addeq	sp, r8, sp, lsl #8
    1160:	00000800 	andeq	r0, r0, r0, lsl #16
    1164:	00012f00 	andeq	r2, r1, r0, lsl #30
    1168:	6e690e00 	cdpvs	14, 6, cr0, cr9, cr0, {0}
    116c:	05140100 	ldreq	r0, [r4, #-256]	; 0xffffff00
    1170:	0000002c 	andeq	r0, r0, ip, lsr #32
    1174:	b80f0001 	stmdalt	pc, {r0}	; <UNPREDICTABLE>
    1178:	5a000088 	bpl	13a0 <LINK_ADDR-0x6c60>
    117c:	0f000001 	svceq	0x00000001
    1180:	000088d4 	ldrdeq	r8, [r0], -r4
    1184:	00000167 	andeq	r0, r0, r7, ror #2
    1188:	0088e00f 	addeq	lr, r8, pc
    118c:	00017300 	andeq	r7, r1, r0, lsl #6
    1190:	88e40f00 	stmiahi	r4!, {r8, r9, sl, fp}^
    1194:	01800000 	orreq	r0, r0, r0
    1198:	07000000 	streq	r0, [r0, -r0]
    119c:	00002504 	andeq	r2, r0, r4, lsl #10
    11a0:	03cd1000 	biceq	r1, sp, #0, 0
    11a4:	03cd0000 	biceq	r0, sp, #0, 0
    11a8:	31020000 	mrscc	r0, (UNDEF: 2)
    11ac:	c3110601 	tstgt	r1, #1048576	; 0x100000
    11b0:	c3000003 	movwgt	r0, #3
    11b4:	02000003 	andeq	r0, r0, #3, 0
    11b8:	dd10063b 	ldcle	6, cr0, [r0, #-236]	; 0xffffff14
    11bc:	dd000000 	stcle	0, cr0, [r0, #-0]
    11c0:	02000000 	andeq	r0, r0, #0, 0
    11c4:	11060105 	tstne	r6, r5, lsl #2
    11c8:	000000d0 	ldrdeq	r0, [r0], -r0	; <UNPREDICTABLE>
    11cc:	000000d0 	ldrdeq	r0, [r0], -r0	; <UNPREDICTABLE>
    11d0:	00066e02 	andeq	r6, r6, r2, lsl #28
    11d4:	000000ce 	andeq	r0, r0, lr, asr #1
    11d8:	069c0004 	ldreq	r0, [ip], r4
    11dc:	01040000 	mrseq	r0, (UNDEF: 4)
    11e0:	00000107 	andeq	r0, r0, r7, lsl #2
    11e4:	0003f00c 	andeq	pc, r3, ip
    11e8:	00020500 	andeq	r0, r2, r0, lsl #10
    11ec:	0088ec00 	addeq	lr, r8, r0, lsl #24
    11f0:	00000400 	andeq	r0, r0, r0, lsl #8
    11f4:	000a4600 	andeq	r4, sl, r0, lsl #12
    11f8:	05040200 	streq	r0, [r4, #-512]	; 0xfffffe00
    11fc:	00746e69 	rsbseq	r6, r4, r9, ror #28
    1200:	33070403 	movwcc	r0, #29699	; 0x7403
    1204:	03000000 	movweq	r0, #0
    1208:	00a80601 	adceq	r0, r8, r1, lsl #12
    120c:	02030000 	andeq	r0, r3, #0, 0
    1210:	0000fd05 	andeq	pc, r0, r5, lsl #26
    1214:	05040300 	streq	r0, [r4, #-768]	; 0xfffffd00
    1218:	00000005 	andeq	r0, r0, r5
    121c:	00050803 	andeq	r0, r5, r3, lsl #16
    1220:	03000000 	movweq	r0, #0
    1224:	00a60801 	adceq	r0, r6, r1, lsl #16
    1228:	02030000 	andeq	r0, r3, #0, 0
    122c:	0000ea07 	andeq	lr, r0, r7, lsl #20
    1230:	07040300 	streq	r0, [r4, -r0, lsl #6]
    1234:	0000002e 	andeq	r0, r0, lr, lsr #32
    1238:	29070803 	stmdbcs	r7, {r0, r1, fp}
    123c:	04000000 	streq	r0, [r0], #-0
    1240:	00000025 	andeq	r0, r0, r5, lsr #32
    1244:	0000007a 	andeq	r0, r0, sl, ror r0
    1248:	00002505 	andeq	r2, r0, r5, lsl #10
    124c:	bc060000 	stclt	0, cr0, [r6], {-0}
    1250:	02000001 	andeq	r0, r0, #1, 0
    1254:	00860e1c 	addeq	r0, r6, ip, lsl lr
    1258:	04070000 	streq	r0, [r7], #-0
    125c:	0000006b 	andeq	r0, r0, fp, rrx
    1260:	00002504 	andeq	r2, r0, r4, lsl #10
    1264:	00009b00 	andeq	r9, r0, r0, lsl #22
    1268:	009b0500 	addseq	r0, fp, r0, lsl #10
    126c:	07000000 	streq	r0, [r0, -r0]
    1270:	0000a804 	andeq	sl, r0, r4, lsl #16
    1274:	08010300 	stmdaeq	r1, {r8, r9}
    1278:	000000af 	andeq	r0, r0, pc, lsr #1
    127c:	0000a108 	andeq	sl, r0, r8, lsl #2
    1280:	02560600 	subseq	r0, r6, #0, 12
    1284:	21020000 	mrscs	r0, (UNDEF: 2)
    1288:	0000b90e 	andeq	fp, r0, lr, lsl #18
    128c:	8c040700 	stchi	7, cr0, [r4], {-0}
    1290:	09000000 	stmdbeq	r0, {}	; <UNPREDICTABLE>
    1294:	000003cd 	andeq	r0, r0, sp, asr #7
    1298:	ec060401 	cfstrs	mvf0, [r6], {1}
    129c:	04000088 	streq	r0, [r0], #-136	; 0xffffff78
    12a0:	01000000 	mrseq	r0, (UNDEF: 0)
    12a4:	0236009c 	eorseq	r0, r6, #156, 0	; 0x9c
    12a8:	00040000 	andeq	r0, r4, r0
    12ac:	00000715 	andeq	r0, r0, r5, lsl r7
    12b0:	01070104 	tsteq	r7, r4, lsl #2
    12b4:	380c0000 	stmdacc	ip, {}	; <UNPREDICTABLE>
    12b8:	05000004 	streq	r0, [r0, #-4]
    12bc:	00000002 	andeq	r0, r0, r2
    12c0:	00000000 	andeq	r0, r0, r0
    12c4:	ee000000 	cdp	0, 0, cr0, cr0, cr0, {0}
    12c8:	0200000a 	andeq	r0, r0, #10, 0
    12cc:	6e690504 	cdpvs	5, 6, cr0, cr9, cr4, {0}
    12d0:	25030074 	strcs	r0, [r3, #-116]	; 0xffffff8c
    12d4:	04000000 	streq	r0, [r0], #-0
    12d8:	00330704 	eorseq	r0, r3, r4, lsl #14
    12dc:	01040000 	mrseq	r0, (UNDEF: 4)
    12e0:	0000a806 	andeq	sl, r0, r6, lsl #16
    12e4:	05020400 	streq	r0, [r2, #-1024]	; 0xfffffc00
    12e8:	000000fd 	strdeq	r0, [r0], -sp
    12ec:	05050404 	streq	r0, [r5, #-1028]	; 0xfffffbfc
    12f0:	04000000 	streq	r0, [r0], #-0
    12f4:	00000508 	andeq	r0, r0, r8, lsl #10
    12f8:	01040000 	mrseq	r0, (UNDEF: 4)
    12fc:	0000a608 	andeq	sl, r0, r8, lsl #12
    1300:	07020400 	streq	r0, [r2, -r0, lsl #8]
    1304:	000000ea 	andeq	r0, r0, sl, ror #1
    1308:	2e070404 	cdpcs	4, 0, cr0, cr7, cr4, {0}
    130c:	04000000 	streq	r0, [r0], #-0
    1310:	00290708 	eoreq	r0, r9, r8, lsl #14
    1314:	25050000 	strcs	r0, [r5, #-0]
    1318:	7f000000 	svcvc	0x00000000
    131c:	06000000 	streq	r0, [r0], -r0
    1320:	00000025 	andeq	r0, r0, r5, lsr #32
    1324:	01bc0700 			; <UNDEFINED> instruction: 0x01bc0700
    1328:	1c020000 	stcne	0, cr0, [r2], {-0}
    132c:	00008b0e 	andeq	r8, r0, lr, lsl #22
    1330:	70040800 	andvc	r0, r4, r0, lsl #16
    1334:	05000000 	streq	r0, [r0, #-0]
    1338:	00000025 	andeq	r0, r0, r5, lsr #32
    133c:	000000a0 	andeq	r0, r0, r0, lsr #1
    1340:	0000a006 	andeq	sl, r0, r6
    1344:	04080000 	streq	r0, [r8], #-0
    1348:	000000ad 	andeq	r0, r0, sp, lsr #1
    134c:	af080104 	svcge	0x00080104
    1350:	03000000 	movweq	r0, #0
    1354:	000000a6 	andeq	r0, r0, r6, lsr #1
    1358:	00025607 	andeq	r5, r2, r7, lsl #12
    135c:	0e210200 	cdpeq	2, 2, cr0, cr1, cr0, {0}
    1360:	000000be 	strheq	r0, [r0], -lr
    1364:	00910408 	addseq	r0, r1, r8, lsl #8
    1368:	5c090000 	stcpl	0, cr0, [r9], {-0}
    136c:	01000004 	tsteq	r0, r4
    1370:	0031110d 	eorseq	r1, r1, sp, lsl #2
    1374:	760a0000 	strvc	r0, [sl], -r0
    1378:	01000003 	tsteq	r0, r3
    137c:	891c061f 	ldmdbhi	ip, {r0, r1, r2, r3, r4, r9, sl}
    1380:	00540000 	subseq	r0, r4, r0
    1384:	9c010000 	stcls	0, cr0, [r1], {-0}
    1388:	000001ae 	andeq	r0, r0, lr, lsr #3
    138c:	0004800b 	andeq	r8, r4, fp
    1390:	0f2c0100 	svceq	0x002c0100
    1394:	0000002c 	andeq	r0, r0, ip, lsr #32
    1398:	000008cf 	andeq	r0, r0, pc, asr #17
    139c:	000008cd 	andeq	r0, r0, sp, asr #17
    13a0:	00041b0b 	andeq	r1, r4, fp, lsl #22
    13a4:	0f2d0100 	svceq	0x002d0100
    13a8:	0000002c 	andeq	r0, r0, ip, lsr #32
    13ac:	000008e9 	andeq	r0, r0, r9, ror #17
    13b0:	000008e7 	andeq	r0, r0, r7, ror #17
    13b4:	00044d0b 	andeq	r4, r4, fp, lsl #26
    13b8:	0f2e0100 	svceq	0x002e0100
    13bc:	0000002c 	andeq	r0, r0, ip, lsr #32
    13c0:	00000903 	andeq	r0, r0, r3, lsl #18
    13c4:	00000901 	andeq	r0, r0, r1, lsl #18
    13c8:	0004670b 	andeq	r6, r4, fp, lsl #14
    13cc:	0f2f0100 	svceq	0x002f0100
    13d0:	0000002c 	andeq	r0, r0, ip, lsr #32
    13d4:	0000091c 	andeq	r0, r0, ip, lsl r9
    13d8:	0000091a 	andeq	r0, r0, sl, lsl r9
    13dc:	0089240c 	addeq	r2, r9, ip, lsl #8
    13e0:	0001d900 	andeq	sp, r1, r0, lsl #18
    13e4:	89300c00 	ldmdbhi	r0!, {sl, fp}
    13e8:	02080000 	andeq	r0, r8, #0, 0
    13ec:	340c0000 	strcc	r0, [ip], #-0
    13f0:	15000089 	strne	r0, [r0, #-137]	; 0xffffff77
    13f4:	0d000002 	stceq	0, cr0, [r0, #-8]
    13f8:	0000893c 	andeq	r8, r0, ip, lsr r9
    13fc:	00000221 	andeq	r0, r0, r1, lsr #4
    1400:	00000164 	andeq	r0, r0, r4, ror #2
    1404:	0150010e 	cmpeq	r0, lr, lsl #2
    1408:	480d003a 	stmdami	sp, {r1, r3, r4, r5}
    140c:	2d000089 	stccs	0, cr0, [r0, #-548]	; 0xfffffddc
    1410:	84000002 	strhi	r0, [r0], #-2
    1414:	0e000001 	cdpeq	0, 0, cr0, cr0, cr1, {0}
    1418:	0c055001 	stceq	0, cr5, [r5], {1}
    141c:	20100024 	andscs	r0, r0, r4, lsr #32
    1420:	0551010e 	ldrbeq	r0, [r1, #-270]	; 0xfffffef2
    1424:	0000010c 	andeq	r0, r0, ip, lsl #2
    1428:	540d005a 	strpl	r0, [sp], #-90	; 0xffffffa6
    142c:	2d000089 	stccs	0, cr0, [r0, #-548]	; 0xfffffddc
    1430:	a4000002 	strge	r0, [r0], #-2
    1434:	0e000001 	cdpeq	0, 0, cr0, cr0, cr1, {0}
    1438:	0c055001 	stceq	0, cr5, [r5], {1}
    143c:	2010001c 	andscs	r0, r0, ip, lsl r0
    1440:	0551010e 	ldrbeq	r0, [r1, #-270]	; 0xfffffef2
    1444:	0000200c 	andeq	r2, r0, ip
    1448:	5c0c005a 	stcpl	0, cr0, [ip], {90}	; 0x5a
    144c:	ae000089 	cdpge	0, 0, cr0, cr0, cr9, {4}
    1450:	00000001 	andeq	r0, r0, r1
    1454:	0004290f 	andeq	r2, r4, pc, lsl #18
    1458:	06170100 	ldreq	r0, [r7], -r0, lsl #2
    145c:	00008908 	andeq	r8, r0, r8, lsl #18
    1460:	00000014 	andeq	r0, r0, r4, lsl r0
    1464:	01d99c01 	bicseq	r9, r9, r1, lsl #24
    1468:	880b0000 	stmdahi	fp, {}	; <UNPREDICTABLE>
    146c:	01000004 	tsteq	r0, r4
    1470:	00310e18 	eorseq	r0, r1, r8, lsl lr
    1474:	09370000 	ldmdbeq	r7!, {}	; <UNPREDICTABLE>
    1478:	09310000 	ldmdbeq	r1!, {}	; <UNPREDICTABLE>
    147c:	10000000 	andne	r0, r0, r0
    1480:	00000459 	andeq	r0, r0, r9, asr r4
    1484:	25050e01 	strcs	r0, [r5, #-3585]	; 0xfffff1ff
    1488:	f0000000 			; <UNDEFINED> instruction: 0xf0000000
    148c:	18000088 	stmdane	r0, {r3, r7}
    1490:	01000000 	mrseq	r0, (UNDEF: 0)
    1494:	0002089c 	muleq	r2, ip, r8
    1498:	04880b00 	streq	r0, [r8], #2816	; 0xb00
    149c:	0f010000 	svceq	0x00010000
    14a0:	0000310e 	andeq	r3, r0, lr, lsl #2
    14a4:	00096500 	andeq	r6, r9, r0, lsl #10
    14a8:	00096100 	andeq	r6, r9, r0, lsl #2
    14ac:	0c110000 	ldceq	0, cr0, [r1], {-0}
    14b0:	0c000004 	stceq	0, cr0, [r0], {4}
    14b4:	02000004 	andeq	r0, r0, #4, 0
    14b8:	12060136 	andne	r0, r6, #-2147483635	; 0x8000000d
    14bc:	000003a5 	andeq	r0, r0, r5, lsr #7
    14c0:	000003a5 	andeq	r0, r0, r5, lsr #7
    14c4:	12064d02 	andne	r4, r6, #128	; 0x80
    14c8:	00000381 	andeq	r0, r0, r1, lsl #7
    14cc:	00000381 	andeq	r0, r0, r1, lsl #7
    14d0:	12065802 	andne	r5, r6, #131072	; 0x20000
    14d4:	00000423 	andeq	r0, r0, r3, lsr #8
    14d8:	00000423 	andeq	r0, r0, r3, lsr #8
    14dc:	0006ad02 	andeq	sl, r6, r2, lsl #26
    14e0:	0000024d 	andeq	r0, r0, sp, asr #4
    14e4:	083a0004 	ldmdaeq	sl!, {r2}
    14e8:	01040000 	mrseq	r0, (UNDEF: 4)
    14ec:	00000107 	andeq	r0, r0, r7, lsl #2
    14f0:	0004a30c 	andeq	sl, r4, ip, lsl #6
    14f4:	00020500 	andeq	r0, r2, r0, lsl #10
    14f8:	00897000 	addeq	r7, r9, r0
    14fc:	00008400 	andeq	r8, r0, r0, lsl #8
    1500:	000be600 	andeq	lr, fp, r0, lsl #12
    1504:	05040200 	streq	r0, [r4, #-512]	; 0xfffffe00
    1508:	00746e69 	rsbseq	r6, r4, r9, ror #28
    150c:	33070403 	movwcc	r0, #29699	; 0x7403
    1510:	03000000 	movweq	r0, #0
    1514:	00a80601 	adceq	r0, r8, r1, lsl #12
    1518:	02030000 	andeq	r0, r3, #0, 0
    151c:	0000fd05 	andeq	pc, r0, r5, lsl #26
    1520:	05040300 	streq	r0, [r4, #-768]	; 0xfffffd00
    1524:	00000005 	andeq	r0, r0, r5
    1528:	00050803 	andeq	r0, r5, r3, lsl #16
    152c:	03000000 	movweq	r0, #0
    1530:	00a60801 	adceq	r0, r6, r1, lsl #16
    1534:	02030000 	andeq	r0, r3, #0, 0
    1538:	0000ea07 	andeq	lr, r0, r7, lsl #20
    153c:	07040300 	streq	r0, [r4, -r0, lsl #6]
    1540:	0000002e 	andeq	r0, r0, lr, lsr #32
    1544:	29070803 	stmdbcs	r7, {r0, r1, fp}
    1548:	04000000 	streq	r0, [r0], #-0
    154c:	00000025 	andeq	r0, r0, r5, lsr #32
    1550:	0000007a 	andeq	r0, r0, sl, ror r0
    1554:	00002505 	andeq	r2, r0, r5, lsl #10
    1558:	bc060000 	stclt	0, cr0, [r6], {-0}
    155c:	02000001 	andeq	r0, r0, #1, 0
    1560:	00860e1c 	addeq	r0, r6, ip, lsl lr
    1564:	04070000 	streq	r0, [r7], #-0
    1568:	0000006b 	andeq	r0, r0, fp, rrx
    156c:	00002504 	andeq	r2, r0, r4, lsl #10
    1570:	00009b00 	andeq	r9, r0, r0, lsl #22
    1574:	009b0500 	addseq	r0, fp, r0, lsl #10
    1578:	07000000 	streq	r0, [r0, -r0]
    157c:	0000a804 	andeq	sl, r0, r4, lsl #16
    1580:	08010300 	stmdaeq	r1, {r8, r9}
    1584:	000000af 	andeq	r0, r0, pc, lsr #1
    1588:	0000a108 	andeq	sl, r0, r8, lsl #2
    158c:	02560600 	subseq	r0, r6, #0, 12
    1590:	21020000 	mrscs	r0, (UNDEF: 2)
    1594:	0000b90e 	andeq	fp, r0, lr, lsl #18
    1598:	8c040700 	stchi	7, cr0, [r4], {-0}
    159c:	09000000 	stmdbeq	r0, {}	; <UNPREDICTABLE>
    15a0:	00000499 	muleq	r0, r9, r4
    15a4:	dc061e01 	stcle	14, cr1, [r6], {1}
    15a8:	18000089 	stmdane	r0, {r0, r3, r7}
    15ac:	01000000 	mrseq	r0, (UNDEF: 0)
    15b0:	0001099c 	muleq	r1, ip, r9
    15b4:	65730a00 	ldrbvs	r0, [r3, #-2560]!	; 0xfffff600
    15b8:	1e010063 	cdpne	0, 0, cr0, cr1, cr3, {3}
    15bc:	00002c19 	andeq	r2, r0, r9, lsl ip
    15c0:	00098800 	andeq	r8, r9, r0, lsl #16
    15c4:	00098400 	andeq	r8, r9, r0, lsl #8
    15c8:	89f00b00 	ldmibhi	r0!, {r8, r9, fp}^
    15cc:	01090000 	mrseq	r0, (UNDEF: 9)
    15d0:	010c0000 	mrseq	r0, (UNDEF: 12)
    15d4:	01f31150 	mvnseq	r1, r0, asr r1
    15d8:	f3243550 	vqrshl.u32	<illegal reg q1.5>, q0, q2
    15dc:	321c5001 	andscc	r5, ip, #1, 0
    15e0:	5001f324 	andpl	pc, r1, r4, lsr #6
    15e4:	00243322 	eoreq	r3, r4, r2, lsr #6
    15e8:	03810900 	orreq	r0, r1, #0, 18
    15ec:	1b010000 	blne	415f4 <__bss_end__+0x38244>
    15f0:	0089c406 	addeq	ip, r9, r6, lsl #8
    15f4:	00001800 	andeq	r1, r0, r0, lsl #16
    15f8:	529c0100 	addspl	r0, ip, #0
    15fc:	0a000001 	beq	1608 <LINK_ADDR-0x69f8>
    1600:	0100736d 	tsteq	r0, sp, ror #6
    1604:	002c181b 	eoreq	r1, ip, fp, lsl r8
    1608:	09ad0000 	stmibeq	sp!, {}	; <UNPREDICTABLE>
    160c:	09a90000 	stmibeq	r9!, {}	; <UNPREDICTABLE>
    1610:	d80b0000 	stmdale	fp, {}	; <UNPREDICTABLE>
    1614:	52000089 	andpl	r0, r0, #137, 0	; 0x89
    1618:	0c000001 	stceq	0, cr0, [r0], {1}
    161c:	f3115001 	vhadd.u16	d5, d1, d1
    1620:	24355001 	ldrtcs	r5, [r5], #-1
    1624:	1c5001f3 	ldfnee	f0, [r0], {243}	; 0xf3
    1628:	01f32432 	mvnseq	r2, r2, lsr r4
    162c:	24332250 	ldrtcs	r2, [r3], #-592	; 0xfffffdb0
    1630:	cc090000 	stcgt	0, cr0, [r9], {-0}
    1634:	01000004 	tsteq	r0, r4
    1638:	89a00612 	stmibhi	r0!, {r1, r4, r9, sl}
    163c:	00240000 	eoreq	r0, r4, r0
    1640:	9c010000 	stcls	0, cr0, [r1], {-0}
    1644:	000001c2 	andeq	r0, r0, r2, asr #3
    1648:	0073750a 	rsbseq	r7, r3, sl, lsl #10
    164c:	2c181201 	lfmcs	f1, 4, [r8], {1}
    1650:	d2000000 	andle	r0, r0, #0, 0
    1654:	ce000009 	cdpgt	0, 0, cr0, cr0, cr9, {0}
    1658:	0d000009 	stceq	0, cr0, [r0, #-36]	; 0xffffffdc
    165c:	01006272 	tsteq	r0, r2, ror r2
    1660:	002c0e13 	eoreq	r0, ip, r3, lsl lr
    1664:	09f20000 	ldmibeq	r2!, {}^	; <UNPREDICTABLE>
    1668:	09f00000 	ldmibeq	r0!, {}^	; <UNPREDICTABLE>
    166c:	b00e0000 	andlt	r0, lr, r0
    1670:	14000089 	strne	r0, [r0], #-137	; 0xffffff77
    1674:	b8000000 	stmdalt	r0, {}	; <UNPREDICTABLE>
    1678:	0d000001 	stceq	0, cr0, [r0, #-4]
    167c:	01006172 	tsteq	r0, r2, ror r1
    1680:	002c1215 	eoreq	r1, ip, r5, lsl r2
    1684:	0a070000 	beq	1c168c <__bss_end__+0x1b82dc>
    1688:	0a050000 	beq	141690 <__bss_end__+0x1382e0>
    168c:	b40f0000 	strlt	r0, [pc], #-0	; 1694 <LINK_ADDR-0x696c>
    1690:	c2000089 	andgt	r0, r0, #137, 0	; 0x89
    1694:	00000001 	andeq	r0, r0, r1
    1698:	0089ac0f 	addeq	sl, r9, pc, lsl #24
    169c:	0001c200 	andeq	ip, r1, r0, lsl #4
    16a0:	bd100000 	ldclt	0, cr0, [r0, #-0]
    16a4:	01000004 	tsteq	r0, r4
    16a8:	002c0a09 	eoreq	r0, ip, r9, lsl #20
    16ac:	89840000 	stmibhi	r4, {}	; <UNPREDICTABLE>
    16b0:	001c0000 	andseq	r0, ip, r0
    16b4:	9c010000 	stcls	0, cr0, [r1], {-0}
    16b8:	0000020a 	andeq	r0, r0, sl, lsl #4
    16bc:	0100750d 	tsteq	r0, sp, lsl #10
    16c0:	002c0e0d 	eoreq	r0, ip, sp, lsl #28
    16c4:	0a1e0000 	beq	7816cc <__bss_end__+0x77831c>
    16c8:	0a1a0000 	beq	6816d0 <__bss_end__+0x678320>
    16cc:	8c0f0000 	stchi	0, cr0, [pc], {-0}
    16d0:	38000089 	stmdacc	r0, {r0, r3, r7}
    16d4:	0f000002 	svceq	0x00000002
    16d8:	00008990 	muleq	r0, r0, r9
    16dc:	0000020a 	andeq	r0, r0, sl, lsl #4
    16e0:	0089980f 	addeq	r9, r9, pc, lsl #16
    16e4:	00023800 	andeq	r3, r2, r0, lsl #16
    16e8:	d5100000 	ldrle	r0, [r0, #-0]
    16ec:	01000004 	tsteq	r0, r4
    16f0:	002c0a04 	eoreq	r0, ip, r4, lsl #20
    16f4:	89700000 	ldmdbhi	r0!, {}^	; <UNPREDICTABLE>
    16f8:	00140000 	andseq	r0, r4, r0
    16fc:	9c010000 	stcls	0, cr0, [r1], {-0}
    1700:	00000238 	andeq	r0, r0, r8, lsr r2
    1704:	00897c0b 	addeq	r7, r9, fp, lsl #24
    1708:	00024400 	andeq	r4, r2, r0, lsl #8
    170c:	50010c00 	andpl	r0, r1, r0, lsl #24
    1710:	30040c05 	andcc	r0, r4, r5, lsl #24
    1714:	00002000 	andeq	r2, r0, r0
    1718:	00048d11 	andeq	r8, r4, r1, lsl sp
    171c:	00048d00 	andeq	r8, r4, r0, lsl #26
    1720:	069c0200 	ldreq	r0, [ip], r0, lsl #4
    1724:	0004b711 	andeq	fp, r4, r1, lsl r7
    1728:	0004b700 	andeq	fp, r4, r0, lsl #14
    172c:	0ac20200 	beq	ff081f34 <__bss_end__+0xff078b84>
    1730:	0005cd00 	andeq	ip, r5, r0, lsl #26
    1734:	3b000400 	blcc	273c <LINK_ADDR-0x58c4>
    1738:	04000009 	streq	r0, [r0], #-9
    173c:	0005e801 	andeq	lr, r5, r1, lsl #16
    1740:	05270c00 	streq	r0, [r7, #-3072]!	; 0xfffff400
    1744:	05980000 	ldreq	r0, [r8]
    1748:	89f40000 	ldmibhi	r4!, {}^	; <UNPREDICTABLE>
    174c:	01f00000 	mvnseq	r0, r0
    1750:	0ce50000 	stcleq	0, cr0, [r5]
    1754:	04020000 	streq	r0, [r2], #-0
    1758:	746e6905 	strbtvc	r6, [lr], #-2309	; 0xfffff6fb
    175c:	07040300 	streq	r0, [r4, -r0, lsl #6]
    1760:	00000033 	andeq	r0, r0, r3, lsr r0
    1764:	00002c04 	andeq	r2, r0, r4, lsl #24
    1768:	06010300 	streq	r0, [r1], -r0, lsl #6
    176c:	000000a8 	andeq	r0, r0, r8, lsr #1
    1770:	fd050203 	stc2	2, cr0, [r5, #-12]
    1774:	03000000 	movweq	r0, #0
    1778:	00050504 	andeq	r0, r5, r4, lsl #10
    177c:	08030000 	stmdaeq	r3, {}	; <UNPREDICTABLE>
    1780:	00000005 	andeq	r0, r0, r5
    1784:	08010300 	stmdaeq	r1, {r8, r9}
    1788:	000000a6 	andeq	r0, r0, r6, lsr #1
    178c:	ea070203 	b	1c1fa0 <__bss_end__+0x1b8bf0>
    1790:	05000000 	streq	r0, [r0, #-0]
    1794:	000002e0 	andeq	r0, r0, r0, ror #5
    1798:	6e193405 	cfmulsvs	mvf3, mvf9, mvf5
    179c:	03000000 	movweq	r0, #0
    17a0:	002e0704 	eoreq	r0, lr, r4, lsl #14
    17a4:	08030000 	stmdaeq	r3, {}	; <UNPREDICTABLE>
    17a8:	00002907 	andeq	r2, r0, r7, lsl #18
    17ac:	08010300 	stmdaeq	r1, {r8, r9}
    17b0:	000000af 	andeq	r0, r0, pc, lsr #1
    17b4:	54010706 	strpl	r0, [r1], #-1798	; 0xfffff8fa
    17b8:	04000000 	streq	r0, [r0], #-0
    17bc:	00c20e0c 	sbceq	r0, r2, ip, lsl #28
    17c0:	d2070000 	andle	r0, r7, #0, 0
    17c4:	00000006 	andeq	r0, r0, r6
    17c8:	00050a07 	andeq	r0, r5, r7, lsl #20
    17cc:	4d070100 	stfmis	f0, [r7, #-0]
    17d0:	04000005 	streq	r0, [r0], #-5
    17d4:	00055c07 	andeq	r5, r5, r7, lsl #24
    17d8:	6b070500 	blvs	1c2be0 <__bss_end__+0x1b9830>
    17dc:	06000005 	streq	r0, [r0], -r5
    17e0:	00057a07 	andeq	r7, r5, r7, lsl #20
    17e4:	9b070700 	blls	1c33ec <__bss_end__+0x1ba03c>
    17e8:	03000006 	movweq	r0, #6
    17ec:	00058907 	andeq	r8, r5, r7, lsl #18
    17f0:	08000200 	stmdaeq	r0, {r9}
    17f4:	0000051b 	andeq	r0, r0, fp, lsl r5
    17f8:	0806022c 	stmdaeq	r6, {r2, r3, r5, r9}
    17fc:	0000015e 	andeq	r0, r0, lr, asr r1
    1800:	006f6909 	rsbeq	r6, pc, r9, lsl #18
    1804:	33090902 	movwcc	r0, #39170	; 0x9902
    1808:	00000000 	andeq	r0, r0, r0
    180c:	72656909 	rsbvc	r6, r5, #147456	; 0x24000
    1810:	090a0200 	stmdbeq	sl, {r9}
    1814:	00000033 	andeq	r0, r0, r3, lsr r0
    1818:	69690904 	stmdbvs	r9!, {r2, r8, fp}^
    181c:	11020072 	tstne	r2, r2, ror r0
    1820:	00003309 	andeq	r3, r0, r9, lsl #6
    1824:	6c090800 	stcvs	8, cr0, [r9], {-0}
    1828:	02007263 	andeq	r7, r0, #805306374	; 0x30000006
    182c:	00330913 	eorseq	r0, r3, r3, lsl r9
    1830:	090c0000 	stmdbeq	ip, {}	; <UNPREDICTABLE>
    1834:	0072636d 	rsbseq	r6, r2, sp, ror #6
    1838:	33091402 	movwcc	r1, #37890	; 0x9402
    183c:	10000000 	andne	r0, r0, r0
    1840:	72736c09 	rsbsvc	r6, r3, #2304	; 0x900
    1844:	09150200 	ldmdbeq	r5, {r9}
    1848:	00000033 	andeq	r0, r0, r3, lsr r0
    184c:	736d0914 	cmnvc	sp, #20, 18	; 0x50000
    1850:	16020072 			; <UNDEFINED> instruction: 0x16020072
    1854:	00003309 	andeq	r3, r0, r9, lsl #6
    1858:	b20a1800 	andlt	r1, sl, #0, 16
    185c:	02000006 	andeq	r0, r0, #6, 0
    1860:	00330917 	eorseq	r0, r3, r7, lsl r9
    1864:	0a1c0000 	beq	70186c <__bss_end__+0x6f84bc>
    1868:	0000067b 	andeq	r0, r0, fp, ror r6
    186c:	33091b02 	movwcc	r1, #39682	; 0x9b02
    1870:	20000000 	andcs	r0, r0, r0
    1874:	0004f70a 	andeq	pc, r4, sl, lsl #14
    1878:	091d0200 	ldmdbeq	sp, {r9}
    187c:	00000033 	andeq	r0, r0, r3, lsr r0
    1880:	05cd0a24 	strbeq	r0, [sp, #2596]	; 0xa24
    1884:	1e020000 	cdpne	0, 0, cr0, cr2, cr0, {0}
    1888:	00003309 	andeq	r3, r0, r9, lsl #6
    188c:	0b002800 	bleq	b894 <__bss_end__+0x24e4>
    1890:	000005d2 	ldrdeq	r0, [r0], -r2
    1894:	74090801 	strvc	r0, [r9], #-2049	; 0xfffff7ff
    1898:	04000001 	streq	r0, [r0], #-1
    189c:	0c202150 	stfeqs	f2, [r0], #-320	; 0xfffffec0
    18a0:	00003304 	andeq	r3, r0, r4, lsl #6
    18a4:	016e0d00 	cmneq	lr, r0, lsl #26
    18a8:	ba0b0000 	blt	2c18b0 <__bss_end__+0x2b8500>
    18ac:	01000006 	tsteq	r0, r6
    18b0:	018f2329 	orreq	r2, pc, r9, lsr #6
    18b4:	50400000 	subpl	r0, r0, r0
    18b8:	040c2021 	streq	r2, [ip], #-33	; 0xffffffdf
    18bc:	000000c2 	andeq	r0, r0, r2, asr #1
    18c0:	0001890d 	andeq	r8, r1, sp, lsl #18
    18c4:	03a50e00 			; <UNDEFINED> instruction: 0x03a50e00
    18c8:	cc010000 	stcgt	0, cr0, [r1], {-0}
    18cc:	008bac06 	addeq	sl, fp, r6, lsl #24
    18d0:	00001400 	andeq	r1, r0, r0, lsl #8
    18d4:	b49c0100 	ldrlt	r0, [ip], #256	; 0x100
    18d8:	0f000001 	svceq	0x00000001
    18dc:	00008bb4 			; <UNDEFINED> instruction: 0x00008bb4
    18e0:	000001b4 			; <UNDEFINED> instruction: 0x000001b4
    18e4:	053c1000 	ldreq	r1, [ip, #-0]!
    18e8:	b6010000 	strlt	r0, [r1], -r0
    18ec:	00002505 	andeq	r2, r0, r5, lsl #10
    18f0:	008b8c00 	addeq	r8, fp, r0, lsl #24
    18f4:	00002000 	andeq	r2, r0, r0
    18f8:	eb9c0100 	bl	fe701d00 <__bss_end__+0xfe6f8950>
    18fc:	0f000001 	svceq	0x00000001
    1900:	00008b94 	muleq	r0, r4, fp
    1904:	000005a0 	andeq	r0, r0, r0, lsr #11
    1908:	008b9c11 	addeq	r9, fp, r1, lsl ip
    190c:	0005ac00 	andeq	sl, r5, r0, lsl #24
    1910:	50011200 	andpl	r1, r1, r0, lsl #4
    1914:	50640c05 	rsbpl	r0, r4, r5, lsl #24
    1918:	00002021 	andeq	r2, r0, r1, lsr #32
    191c:	00068d10 	andeq	r8, r6, r0, lsl sp
    1920:	05b30100 	ldreq	r0, [r3, #256]!	; 0x100
    1924:	00000025 	andeq	r0, r0, r5, lsr #32
    1928:	00008b7c 	andeq	r8, r0, ip, ror fp
    192c:	00000010 	andeq	r0, r0, r0, lsl r0
    1930:	02189c01 	andseq	r9, r8, #256	; 0x100
    1934:	840f0000 	strhi	r0, [pc], #-0	; 193c <LINK_ADDR-0x66c4>
    1938:	a000008b 	andge	r0, r0, fp, lsl #1
    193c:	0f000005 	svceq	0x00000005
    1940:	00008b88 	andeq	r8, r0, r8, lsl #23
    1944:	00000309 	andeq	r0, r0, r9, lsl #6
    1948:	06c80e00 	strbeq	r0, [r8], r0, lsl #28
    194c:	ab010000 	blge	41954 <__bss_end__+0x385a4>
    1950:	008b4c06 	addeq	r4, fp, r6, lsl #24
    1954:	00003000 	andeq	r3, r0, r0
    1958:	7c9c0100 	ldfvcs	f0, [ip], {0}
    195c:	13000002 	movwne	r0, #2
    1960:	ab010063 	blge	41af4 <__bss_end__+0x38744>
    1964:	00002c19 	andeq	r2, r0, r9, lsl ip
    1968:	000a4000 	andeq	r4, sl, r0
    196c:	000a3c00 	andeq	r3, sl, r0, lsl #24
    1970:	8b580f00 	blhi	1605578 <__bss_end__+0x15fc1c8>
    1974:	05a00000 	streq	r0, [r0, #0]!
    1978:	5c0f0000 	stcpl	0, cr0, [pc], {-0}
    197c:	db00008b 	blle	1bb0 <LINK_ADDR-0x6450>
    1980:	14000002 	strne	r0, [r0], #-2
    1984:	00008b70 	andeq	r8, r0, r0, ror fp
    1988:	000005b8 			; <UNDEFINED> instruction: 0x000005b8
    198c:	00000272 	andeq	r0, r0, r2, ror r2
    1990:	05500112 	ldrbeq	r0, [r0, #-274]	; 0xfffffeee
    1994:	2150400c 	cmpcs	r0, ip
    1998:	51011220 	tstpl	r1, r0, lsr #4
    199c:	08007405 	stmdaeq	r0, {r0, r2, sl, ip, sp, lr}
    19a0:	0f001aff 	svceq	0x00001aff
    19a4:	00008b74 	andeq	r8, r0, r4, ror fp
    19a8:	000005a0 	andeq	r0, r0, r0, lsr #11
    19ac:	05de1000 	ldrbeq	r1, [lr]
    19b0:	a3010000 	movwge	r0, #4096	; 0x1000
    19b4:	00002505 	andeq	r2, r0, r5, lsl #10
    19b8:	008b1c00 	addeq	r1, fp, r0, lsl #24
    19bc:	00003000 	andeq	r3, r0, r0
    19c0:	db9c0100 	blle	fe701dc8 <__bss_end__+0xfe6f8a18>
    19c4:	15000002 	strne	r0, [r0, #-2]
    19c8:	a7010063 	strge	r0, [r1, -r3, rrx]
    19cc:	00002509 	andeq	r2, r0, r9, lsl #10
    19d0:	000a6000 	andeq	r6, sl, r0
    19d4:	000a5e00 	andeq	r5, sl, r0, lsl #28
    19d8:	8b240f00 	blhi	9055e0 <__bss_end__+0x8fc230>
    19dc:	05a00000 	streq	r0, [r0, #0]!
    19e0:	280f0000 	stmdacs	pc, {}	; <UNPREDICTABLE>
    19e4:	0900008b 	stmdbeq	r0, {r0, r1, r3, r7}
    19e8:	14000003 	strne	r0, [r0], #-3
    19ec:	00008b38 	andeq	r8, r0, r8, lsr fp
    19f0:	000005ac 	andeq	r0, r0, ip, lsr #11
    19f4:	000002d1 	ldrdeq	r0, [r0], -r1
    19f8:	05500112 	ldrbeq	r0, [r0, #-274]	; 0xfffffeee
    19fc:	2150400c 	cmpcs	r0, ip
    1a00:	400f0020 	andmi	r0, pc, r0, lsr #32
    1a04:	a000008b 	andge	r0, r0, fp, lsl #1
    1a08:	00000005 	andeq	r0, r0, r5
    1a0c:	00052e10 	andeq	r2, r5, r0, lsl lr
    1a10:	05940100 	ldreq	r0, [r4, #256]	; 0x100
    1a14:	00000025 	andeq	r0, r0, r5, lsr #32
    1a18:	00008afc 	strdeq	r8, [r0], -ip
    1a1c:	00000020 	andeq	r0, r0, r0, lsr #32
    1a20:	03099c01 	movweq	r9, #39937	; 0x9c01
    1a24:	08110000 	ldmdaeq	r1, {}	; <UNPREDICTABLE>
    1a28:	ac00008b 	stcge	0, cr0, [r0], {139}	; 0x8b
    1a2c:	12000005 	andne	r0, r0, #5, 0
    1a30:	0c055001 	stceq	0, cr5, [r5], {1}
    1a34:	20215064 	eorcs	r5, r1, r4, rrx
    1a38:	fc100000 	ldc2	0, cr0, [r0], {-0}
    1a3c:	01000004 	tsteq	r0, r4
    1a40:	0025058b 	eoreq	r0, r5, fp, lsl #11
    1a44:	8ae40000 	bhi	ff901a4c <__bss_end__+0xff8f869c>
    1a48:	00180000 	andseq	r0, r8, r0
    1a4c:	9c010000 	stcls	0, cr0, [r1], {-0}
    1a50:	00000337 	andeq	r0, r0, r7, lsr r3
    1a54:	008af011 	addeq	pc, sl, r1, lsl r0	; <UNPREDICTABLE>
    1a58:	0005ac00 	andeq	sl, r5, r0, lsl #24
    1a5c:	50011200 	andpl	r1, r1, r0, lsl #4
    1a60:	50640c05 	rsbpl	r0, r4, r5, lsl #24
    1a64:	00002021 	andeq	r2, r0, r1, lsr #32
    1a68:	0003c30e 	andeq	ip, r3, lr, lsl #6
    1a6c:	06450100 	strbeq	r0, [r5], -r0, lsl #2
    1a70:	00008a34 	andeq	r8, r0, r4, lsr sl
    1a74:	000000b0 	strheq	r0, [r0], -r0	; <UNPREDICTABLE>
    1a78:	04849c01 	streq	r9, [r4], #3073	; 0xc01
    1a7c:	ee160000 	cdp	0, 1, cr0, cr6, cr0, {0}
    1a80:	01000004 	tsteq	r0, r4
    1a84:	00620e7e 	rsbeq	r0, r2, lr, ror lr
    1a88:	010e0000 	mrseq	r0, (UNDEF: 14)
    1a8c:	008a4414 	addeq	r4, sl, r4, lsl r4
    1a90:	0005c400 	andeq	ip, r5, r0, lsl #8
    1a94:	00037300 	andeq	r7, r3, r0, lsl #6
    1a98:	50011200 	andpl	r1, r1, r0, lsl #4
    1a9c:	01123e01 	tsteq	r2, r1, lsl #28
    1aa0:	00320151 	eorseq	r0, r2, r1, asr r1
    1aa4:	008a5014 	addeq	r5, sl, r4, lsl r0
    1aa8:	0005c400 	andeq	ip, r5, r0, lsl #8
    1aac:	00038b00 	andeq	r8, r3, r0, lsl #22
    1ab0:	50011200 	andpl	r1, r1, r0, lsl #4
    1ab4:	01123f01 	tsteq	r2, r1, lsl #30
    1ab8:	00320151 	eorseq	r0, r2, r1, asr r1
    1abc:	008a540f 	addeq	r5, sl, pc, lsl #8
    1ac0:	0005a000 	andeq	sl, r5, r0
    1ac4:	8a601400 	bhi	1806acc <__bss_end__+0x17fd71c>
    1ac8:	053d0000 	ldreq	r0, [sp, #-0]!
    1acc:	03b00000 	movseq	r0, #0, 0
    1ad0:	01120000 	tsteq	r2, r0
    1ad4:	040c0550 	streq	r0, [ip], #-1360	; 0xfffffab0
    1ad8:	12202150 	eorne	r2, r0, #20
    1adc:	31015101 	tstcc	r1, r1, lsl #2
    1ae0:	8a640f00 	bhi	19056e8 <__bss_end__+0x18fc338>
    1ae4:	05a00000 	streq	r0, [r0, #0]!
    1ae8:	74140000 	ldrvc	r0, [r4], #-0
    1aec:	b800008a 	stmdalt	r0, {r1, r3, r7}
    1af0:	d2000005 	andle	r0, r0, #5, 0
    1af4:	12000003 	andne	r0, r0, #3, 0
    1af8:	74025001 	strvc	r5, [r2], #-1
    1afc:	51011200 	mrspl	r1, R9_usr
    1b00:	14003001 	strne	r3, [r0], #-1
    1b04:	00008a80 	andeq	r8, r0, r0, lsl #21
    1b08:	000005b8 			; <UNDEFINED> instruction: 0x000005b8
    1b0c:	000003ee 	andeq	r0, r0, lr, ror #7
    1b10:	05500112 	ldrbeq	r0, [r0, #-274]	; 0xfffffeee
    1b14:	2150440c 	cmpcs	r0, ip, lsl #8
    1b18:	51011220 	tstpl	r1, r0, lsr #4
    1b1c:	14003001 	strne	r3, [r0], #-1
    1b20:	00008a8c 	andeq	r8, r0, ip, lsl #21
    1b24:	000005b8 			; <UNDEFINED> instruction: 0x000005b8
    1b28:	0000040a 	andeq	r0, r0, sl, lsl #8
    1b2c:	05500112 	ldrbeq	r0, [r0, #-274]	; 0xfffffeee
    1b30:	21504c0c 	cmpcs	r0, ip, lsl #24
    1b34:	51011220 	tstpl	r1, r0, lsr #4
    1b38:	14003301 	strne	r3, [r0], #-769	; 0xfffffcff
    1b3c:	00008a98 	muleq	r0, r8, sl
    1b40:	000005b8 			; <UNDEFINED> instruction: 0x000005b8
    1b44:	00000426 	andeq	r0, r0, r6, lsr #8
    1b48:	05500112 	ldrbeq	r0, [r0, #-274]	; 0xfffffeee
    1b4c:	2150500c 	cmpcs	r0, ip
    1b50:	51011220 	tstpl	r1, r0, lsr #4
    1b54:	14003001 	strne	r3, [r0], #-1
    1b58:	00008aa4 	andeq	r8, r0, r4, lsr #21
    1b5c:	000005b8 			; <UNDEFINED> instruction: 0x000005b8
    1b60:	00000443 	andeq	r0, r0, r3, asr #8
    1b64:	05500112 	ldrbeq	r0, [r0, #-274]	; 0xfffffeee
    1b68:	2150480c 	cmpcs	r0, ip, lsl #16
    1b6c:	51011220 	tstpl	r1, r0, lsr #4
    1b70:	00c70802 	sbceq	r0, r7, r2, lsl #16
    1b74:	008ab014 	addeq	fp, sl, r4, lsl r0
    1b78:	0005b800 	andeq	fp, r5, r0, lsl #16
    1b7c:	00046100 	andeq	r6, r4, r0, lsl #2
    1b80:	50011200 	andpl	r1, r1, r0, lsl #4
    1b84:	50680c05 	rsbpl	r0, r8, r5, lsl #24
    1b88:	01122021 	tsteq	r2, r1, lsr #32
    1b8c:	0e0a0351 	mcreq	3, 0, r0, cr10, cr1, {2}
    1b90:	bc140001 	ldclt	0, cr0, [r4], {1}
    1b94:	b800008a 	stmdalt	r0, {r1, r3, r7}
    1b98:	7a000005 	bvc	1bb4 <LINK_ADDR-0x644c>
    1b9c:	12000004 	andne	r0, r0, #4, 0
    1ba0:	74025001 	strvc	r5, [r2], #-1
    1ba4:	51011200 	mrspl	r1, R9_usr
    1ba8:	0f003301 	svceq	0x00003301
    1bac:	00008ac0 	andeq	r8, r0, r0, asr #21
    1bb0:	000005a0 	andeq	r0, r0, r0, lsr #11
    1bb4:	06800e00 	streq	r0, [r0], r0, lsl #28
    1bb8:	35010000 	strcc	r0, [r1, #-0]
    1bbc:	008bc006 	addeq	ip, fp, r6
    1bc0:	00002400 	andeq	r2, r0, r0, lsl #8
    1bc4:	d39c0100 	orrsle	r0, ip, #0
    1bc8:	0f000004 	svceq	0x00000004
    1bcc:	00008bc8 	andeq	r8, r0, r8, asr #23
    1bd0:	00000194 	muleq	r0, r4, r1
    1bd4:	008bcc0f 	addeq	ip, fp, pc, lsl #24
    1bd8:	0005a000 	andeq	sl, r5, r0
    1bdc:	8bd81400 	blhi	ff606be4 <__bss_end__+0xff5fd834>
    1be0:	04d30000 	ldrbeq	r0, [r3], #0
    1be4:	04c90000 	strbeq	r0, [r9], #0
    1be8:	01120000 	tsteq	r2, r0
    1bec:	040c0550 	streq	r0, [ip], #-1360	; 0xfffffab0
    1bf0:	12202150 	eorne	r2, r0, #20
    1bf4:	09025101 	stmdbeq	r2, {r0, r8, ip, lr}
    1bf8:	dc0f00fe 	stcle	0, cr0, [pc], {254}	; 0xfe
    1bfc:	a000008b 	andge	r0, r0, fp, lsl #1
    1c00:	00000005 	andeq	r0, r0, r5
    1c04:	0006bf17 	andeq	fp, r6, r7, lsl pc
    1c08:	0d310100 	ldfeqs	f0, [r1, #-0]
    1c0c:	000089f4 	strdeq	r8, [r0], -r4
    1c10:	00000020 	andeq	r0, r0, r0, lsr #32
    1c14:	05369c01 	ldreq	r9, [r6, #-3073]!	; 0xfffff3ff
    1c18:	c2180000 	andsgt	r0, r8, #0, 0
    1c1c:	01000000 	mrseq	r0, (UNDEF: 0)
    1c20:	05362531 	ldreq	r2, [r6, #-1329]!	; 0xfffffacf
    1c24:	0a770000 	beq	1dc1c2c <__bss_end__+0x1db887c>
    1c28:	0a730000 	beq	1cc1c30 <__bss_end__+0x1cb8880>
    1c2c:	76130000 	ldrvc	r0, [r3], -r0
    1c30:	01006c61 	tsteq	r0, r1, ror #24
    1c34:	002c3431 	eoreq	r3, ip, r1, lsr r4
    1c38:	0a990000 	beq	fe641c40 <__bss_end__+0xfe638890>
    1c3c:	0a950000 	beq	fe541c44 <__bss_end__+0xfe538894>
    1c40:	04140000 	ldreq	r0, [r4], #-0
    1c44:	ac00008a 	stcge	0, cr0, [r0], {138}	; 0x8a
    1c48:	25000005 	strcs	r0, [r0, #-5]
    1c4c:	12000005 	andne	r0, r0, #5, 0
    1c50:	74025001 	strvc	r5, [r2], #-1
    1c54:	10110000 	andsne	r0, r1, r0
    1c58:	b800008a 	stmdalt	r0, {r1, r3, r7}
    1c5c:	12000005 	andne	r0, r0, #5, 0
    1c60:	74025001 	strvc	r5, [r2], #-1
    1c64:	0c000000 	stceq	0, cr0, [r0], {-0}
    1c68:	00053c04 	andeq	r3, r5, r4, lsl #24
    1c6c:	aa171900 	bge	5c8074 <__bss_end__+0x5becc4>
    1c70:	01000006 	tsteq	r0, r6
    1c74:	8a140d2e 	bhi	505134 <__bss_end__+0x4fbd84>
    1c78:	00200000 	eoreq	r0, r0, r0
    1c7c:	9c010000 	stcls	0, cr0, [r1], {-0}
    1c80:	000005a0 	andeq	r0, r0, r0, lsr #11
    1c84:	0000c218 	andeq	ip, r0, r8, lsl r2
    1c88:	242e0100 	strtcs	r0, [lr], #-256	; 0xffffff00
    1c8c:	00000536 	andeq	r0, r0, r6, lsr r5
    1c90:	00000abb 			; <UNDEFINED> instruction: 0x00000abb
    1c94:	00000ab7 			; <UNDEFINED> instruction: 0x00000ab7
    1c98:	6c617613 	stclvs	6, cr7, [r1], #-76	; 0xffffffb4
    1c9c:	332e0100 			; <UNDEFINED> instruction: 0x332e0100
    1ca0:	0000002c 	andeq	r0, r0, ip, lsr #32
    1ca4:	00000add 	ldrdeq	r0, [r0], -sp
    1ca8:	00000ad9 	ldrdeq	r0, [r0], -r9
    1cac:	008a2414 	addeq	r2, sl, r4, lsl r4
    1cb0:	0005ac00 	andeq	sl, r5, r0, lsl #24
    1cb4:	00058f00 	andeq	r8, r5, r0, lsl #30
    1cb8:	50011200 	andpl	r1, r1, r0, lsl #4
    1cbc:	00007402 	andeq	r7, r0, r2, lsl #8
    1cc0:	008a3011 	addeq	r3, sl, r1, lsl r0
    1cc4:	0005b800 	andeq	fp, r5, r0, lsl #16
    1cc8:	50011200 	andpl	r1, r1, r0, lsl #4
    1ccc:	00007402 	andeq	r7, r0, r2, lsl #8
    1cd0:	048d1a00 	streq	r1, [sp], #2560	; 0xa00
    1cd4:	048d0000 	streq	r0, [sp], #0
    1cd8:	9c030000 	stcls	0, cr0, [r3], {-0}
    1cdc:	06f41a06 	ldrbteq	r1, [r4], r6, lsl #20
    1ce0:	06f40000 	ldrbteq	r0, [r4], r0
    1ce4:	c3030000 	movwgt	r0, #12288	; 0x3000
    1ce8:	04e81a0b 	strbteq	r1, [r8], #2571	; 0xa0b
    1cec:	04e80000 	strbteq	r0, [r8], #0
    1cf0:	ae030000 	cdpge	0, 0, cr0, cr3, cr0, {0}
    1cf4:	06e21a06 	strbteq	r1, [r2], r6, lsl #20
    1cf8:	06e20000 	strbteq	r0, [r2], r0
    1cfc:	19040000 	stmdbne	r4, {}	; <UNPREDICTABLE>
    1d00:	01490006 	cmpeq	r9, r6
    1d04:	00040000 	andeq	r0, r4, r0
    1d08:	00000ad3 	ldrdeq	r0, [r0], -r3
    1d0c:	01070104 	tsteq	r7, r4, lsl #2
    1d10:	180c0000 	stmdane	ip, {}	; <UNPREDICTABLE>
    1d14:	05000007 	streq	r0, [r0, #-7]
    1d18:	e4000002 	str	r0, [r0], #-2
    1d1c:	3c00008b 	stccc	0, cr0, [r0], {139}	; 0x8b
    1d20:	ed000000 	stc	0, cr0, [r0, #-0]
    1d24:	0200000e 	andeq	r0, r0, #14, 0
    1d28:	6e690504 	cdpvs	5, 6, cr0, cr9, cr4, {0}
    1d2c:	04030074 	streq	r0, [r3], #-116	; 0xffffff8c
    1d30:	00003307 	andeq	r3, r0, r7, lsl #6
    1d34:	06010300 	streq	r0, [r1], -r0, lsl #6
    1d38:	000000a8 	andeq	r0, r0, r8, lsr #1
    1d3c:	fd050203 	stc2	2, cr0, [r5, #-12]
    1d40:	03000000 	movweq	r0, #0
    1d44:	00050504 	andeq	r0, r5, r4, lsl #10
    1d48:	08030000 	stmdaeq	r3, {}	; <UNPREDICTABLE>
    1d4c:	00000005 	andeq	r0, r0, r5
    1d50:	08010300 	stmdaeq	r1, {r8, r9}
    1d54:	000000a6 	andeq	r0, r0, r6, lsr #1
    1d58:	ea070203 	b	1c256c <__bss_end__+0x1b91bc>
    1d5c:	03000000 	movweq	r0, #0
    1d60:	002e0704 	eoreq	r0, lr, r4, lsl #14
    1d64:	08030000 	stmdaeq	r3, {}	; <UNPREDICTABLE>
    1d68:	00002907 	andeq	r2, r0, r7, lsl #18
    1d6c:	00250400 	eoreq	r0, r5, r0, lsl #8
    1d70:	007a0000 	rsbseq	r0, sl, r0
    1d74:	25050000 	strcs	r0, [r5, #-0]
    1d78:	00000000 	andeq	r0, r0, r0
    1d7c:	0001bc06 	andeq	fp, r1, r6, lsl #24
    1d80:	0e1c0200 	cdpeq	2, 1, cr0, cr12, cr0, {0}
    1d84:	00000086 	andeq	r0, r0, r6, lsl #1
    1d88:	006b0407 	rsbeq	r0, fp, r7, lsl #8
    1d8c:	25040000 	strcs	r0, [r4, #-0]
    1d90:	9b000000 	blls	1d98 <LINK_ADDR-0x6268>
    1d94:	05000000 	streq	r0, [r0, #-0]
    1d98:	0000009b 	muleq	r0, fp, r0
    1d9c:	a8040700 	stmdage	r4, {r8, r9, sl}
    1da0:	03000000 	movweq	r0, #0
    1da4:	00af0801 	adceq	r0, pc, r1, lsl #16
    1da8:	a1080000 	mrsge	r0, (UNDEF: 8)
    1dac:	06000000 	streq	r0, [r0], -r0
    1db0:	00000256 	andeq	r0, r0, r6, asr r2
    1db4:	b90e2102 	stmdblt	lr, {r1, r8, sp}
    1db8:	07000000 	streq	r0, [r0, -r0]
    1dbc:	00008c04 	andeq	r8, r0, r4, lsl #24
    1dc0:	007a0900 	rsbseq	r0, sl, r0, lsl #18
    1dc4:	06010000 	streq	r0, [r1], -r0
    1dc8:	08030507 	stmdaeq	r3, {r0, r1, r2, r8, sl}
    1dcc:	0a00008e 	beq	200c <LINK_ADDR-0x5ff4>
    1dd0:	0000070b 	andeq	r0, r0, fp, lsl #14
    1dd4:	10060b01 	andne	r0, r6, r1, lsl #22
    1dd8:	1000008c 	andne	r0, r0, ip, lsl #1
    1ddc:	01000000 	mrseq	r0, (UNDEF: 0)
    1de0:	0000f19c 	muleq	r0, ip, r1
    1de4:	70660b00 	rsbvc	r0, r6, r0, lsl #22
    1de8:	190b0100 	stmdbne	fp, {r8}
    1dec:	00000086 	andeq	r0, r0, r6, lsl #1
    1df0:	0c005001 	stceq	0, cr5, [r0], {1}
    1df4:	00000729 	andeq	r0, r0, r9, lsr #14
    1df8:	f8060801 			; <UNDEFINED> instruction: 0xf8060801
    1dfc:	1800008b 	stmdane	r0, {r0, r1, r3, r7}
    1e00:	01000000 	mrseq	r0, (UNDEF: 0)
    1e04:	06fa0d9c 	usateq	r0, #26, ip, lsl #27
    1e08:	03010000 	movweq	r0, #4096	; 0x1000
    1e0c:	0000250c 	andeq	r2, r0, ip, lsl #10
    1e10:	008be400 	addeq	lr, fp, r0, lsl #8
    1e14:	00001400 	andeq	r1, r0, r0, lsl #8
    1e18:	409c0100 	addsmi	r0, ip, r0, lsl #2
    1e1c:	0e000001 	cdpeq	0, 0, cr0, cr0, cr1, {0}
    1e20:	03010063 	movweq	r0, #4195	; 0x1063
    1e24:	00002521 	andeq	r2, r0, r1, lsr #10
    1e28:	000aff00 	andeq	pc, sl, r0, lsl #30
    1e2c:	000afb00 	andeq	pc, sl, r0, lsl #22
    1e30:	8bf00f00 	blhi	ffc05a38 <__bss_end__+0xffbfc688>
    1e34:	01400000 	mrseq	r0, (UNDEF: 64)
    1e38:	01100000 	tsteq	r0, r0
    1e3c:	00740250 	rsbseq	r0, r4, r0, asr r2
    1e40:	c8110000 	ldmdagt	r1, {}	; <UNPREDICTABLE>
    1e44:	c8000006 	stmdagt	r0, {r1, r2}
    1e48:	02000006 	andeq	r0, r0, #6, 0
    1e4c:	37000642 	strcc	r0, [r0, -r2, asr #12]
    1e50:	04000001 	streq	r0, [r0], #-1
    1e54:	000be200 	andeq	lr, fp, r0, lsl #4
    1e58:	07010400 	streq	r0, [r1, -r0, lsl #8]
    1e5c:	0c000001 	stceq	0, cr0, [r0], {1}
    1e60:	0000073d 	andeq	r0, r0, sp, lsr r7
    1e64:	00000205 	andeq	r0, r0, r5, lsl #4
    1e68:	00008c20 	andeq	r8, r0, r0, lsr #24
    1e6c:	00000034 	andeq	r0, r0, r4, lsr r0
    1e70:	00000fb0 			; <UNDEFINED> instruction: 0x00000fb0
    1e74:	69050402 	stmdbvs	r5, {r1, sl}
    1e78:	0300746e 	movweq	r7, #1134	; 0x46e
    1e7c:	00330704 	eorseq	r0, r3, r4, lsl #14
    1e80:	01030000 	mrseq	r0, (UNDEF: 3)
    1e84:	0000a806 	andeq	sl, r0, r6, lsl #16
    1e88:	05020300 	streq	r0, [r2, #-768]	; 0xfffffd00
    1e8c:	000000fd 	strdeq	r0, [r0], -sp
    1e90:	05050403 	streq	r0, [r5, #-1027]	; 0xfffffbfd
    1e94:	03000000 	movweq	r0, #0
    1e98:	00000508 	andeq	r0, r0, r8, lsl #10
    1e9c:	01030000 	mrseq	r0, (UNDEF: 3)
    1ea0:	0000a608 	andeq	sl, r0, r8, lsl #12
    1ea4:	07020300 	streq	r0, [r2, -r0, lsl #6]
    1ea8:	000000ea 	andeq	r0, r0, sl, ror #1
    1eac:	2e070403 	cdpcs	4, 0, cr0, cr7, cr3, {0}
    1eb0:	03000000 	movweq	r0, #0
    1eb4:	00290708 	eoreq	r0, r9, r8, lsl #14
    1eb8:	25040000 	strcs	r0, [r4, #-0]
    1ebc:	7a000000 	bvc	1ec4 <LINK_ADDR-0x613c>
    1ec0:	05000000 	streq	r0, [r0, #-0]
    1ec4:	00000025 	andeq	r0, r0, r5, lsr #32
    1ec8:	01bc0600 			; <UNDEFINED> instruction: 0x01bc0600
    1ecc:	1c020000 	stcne	0, cr0, [r2], {-0}
    1ed0:	0000860e 	andeq	r8, r0, lr, lsl #12
    1ed4:	6b040700 	blvs	103adc <__bss_end__+0xfa72c>
    1ed8:	04000000 	streq	r0, [r0], #-0
    1edc:	00000025 	andeq	r0, r0, r5, lsr #32
    1ee0:	0000009b 	muleq	r0, fp, r0
    1ee4:	00009b05 	andeq	r9, r0, r5, lsl #22
    1ee8:	04070000 	streq	r0, [r7], #-0
    1eec:	000000a8 	andeq	r0, r0, r8, lsr #1
    1ef0:	af080103 	svcge	0x00080103
    1ef4:	08000000 	stmdaeq	r0, {}	; <UNPREDICTABLE>
    1ef8:	000000a1 	andeq	r0, r0, r1, lsr #1
    1efc:	00025606 	andeq	r5, r2, r6, lsl #12
    1f00:	0e210200 	cdpeq	2, 2, cr0, cr1, cr0, {0}
    1f04:	000000b9 	strheq	r0, [r0], -r9
    1f08:	008c0407 	addeq	r0, ip, r7, lsl #8
    1f0c:	02090000 	andeq	r0, r9, #0, 0
    1f10:	01000003 	tsteq	r0, r3
    1f14:	01340704 	teqeq	r4, r4, lsl #14
    1f18:	8c200000 	stchi	0, cr0, [r0], #-0
    1f1c:	00340000 	eorseq	r0, r4, r0
    1f20:	9c010000 	stcls	0, cr0, [r1], {-0}
    1f24:	00000134 	andeq	r0, r0, r4, lsr r1
    1f28:	0007380a 	andeq	r3, r7, sl, lsl #16
    1f2c:	15040100 	strne	r0, [r4, #-256]	; 0xffffff00
    1f30:	00000134 	andeq	r0, r0, r4, lsr r1
    1f34:	730b5001 	movwvc	r5, #45057	; 0xb001
    1f38:	01006372 	tsteq	r0, r2, ror r3
    1f3c:	009b2704 	addseq	r2, fp, r4, lsl #14
    1f40:	0b210000 	bleq	841f48 <__bss_end__+0x838b98>
    1f44:	0b1d0000 	bleq	741f4c <__bss_end__+0x738b9c>
    1f48:	730c0000 	movwvc	r0, #49152	; 0xc000
    1f4c:	05010031 	streq	r0, [r1, #-49]	; 0xffffffcf
    1f50:	0001340b 	andeq	r3, r1, fp, lsl #8
    1f54:	000b4c00 	andeq	r4, fp, r0, lsl #24
    1f58:	000b4200 	andeq	r4, fp, r0, lsl #4
    1f5c:	32730c00 	rsbscc	r0, r3, #0, 24
    1f60:	11060100 	mrsne	r0, (UNDEF: 22)
    1f64:	0000009b 	muleq	r0, fp, r0
    1f68:	00000b91 	muleq	r0, r1, fp
    1f6c:	00000b8d 	andeq	r0, r0, sp, lsl #23
    1f70:	0100630c 	tsteq	r0, ip, lsl #6
    1f74:	00a10a07 	adceq	r0, r1, r7, lsl #20
    1f78:	0bb50000 	bleq	fed41f80 <__bss_end__+0xfed38bd0>
    1f7c:	0bb10000 	bleq	fec41f84 <__bss_end__+0xfec38bd4>
    1f80:	07000000 	streq	r0, [r0, -r0]
    1f84:	0000a104 	andeq	sl, r0, r4, lsl #2
    1f88:	00f70000 	rscseq	r0, r7, r0
    1f8c:	00040000 	andeq	r0, r4, r0
    1f90:	00000c98 	muleq	r0, r8, ip
    1f94:	01070104 	tsteq	r7, r4, lsl #2
    1f98:	4d0c0000 	stcmi	0, cr0, [ip, #-0]
    1f9c:	05000007 	streq	r0, [r0, #-7]
    1fa0:	54000002 	strpl	r0, [r0], #-2
    1fa4:	2c00008c 	stccs	0, cr0, [r0], {140}	; 0x8c
    1fa8:	bf000000 	svclt	0x00000000
    1fac:	02000010 	andeq	r0, r0, #16, 0
    1fb0:	6e690504 	cdpvs	5, 6, cr0, cr9, cr4, {0}
    1fb4:	04030074 	streq	r0, [r3], #-116	; 0xffffff8c
    1fb8:	00003307 	andeq	r3, r0, r7, lsl #6
    1fbc:	06010300 	streq	r0, [r1], -r0, lsl #6
    1fc0:	000000a8 	andeq	r0, r0, r8, lsr #1
    1fc4:	fd050203 	stc2	2, cr0, [r5, #-12]
    1fc8:	03000000 	movweq	r0, #0
    1fcc:	00050504 	andeq	r0, r5, r4, lsl #10
    1fd0:	08030000 	stmdaeq	r3, {}	; <UNPREDICTABLE>
    1fd4:	00000005 	andeq	r0, r0, r5
    1fd8:	08010300 	stmdaeq	r1, {r8, r9}
    1fdc:	000000a6 	andeq	r0, r0, r6, lsr #1
    1fe0:	ea070203 	b	1c27f4 <__bss_end__+0x1b9444>
    1fe4:	03000000 	movweq	r0, #0
    1fe8:	002e0704 	eoreq	r0, lr, r4, lsl #14
    1fec:	08030000 	stmdaeq	r3, {}	; <UNPREDICTABLE>
    1ff0:	00002907 	andeq	r2, r0, r7, lsl #18
    1ff4:	00250400 	eoreq	r0, r5, r0, lsl #8
    1ff8:	007a0000 	rsbseq	r0, sl, r0
    1ffc:	25050000 	strcs	r0, [r5, #-0]
    2000:	00000000 	andeq	r0, r0, r0
    2004:	0001bc06 	andeq	fp, r1, r6, lsl #24
    2008:	0e1c0200 	cdpeq	2, 1, cr0, cr12, cr0, {0}
    200c:	00000086 	andeq	r0, r0, r6, lsl #1
    2010:	006b0407 	rsbeq	r0, fp, r7, lsl #8
    2014:	25040000 	strcs	r0, [r4, #-0]
    2018:	9b000000 	blls	2020 <LINK_ADDR-0x5fe0>
    201c:	05000000 	streq	r0, [r0, #-0]
    2020:	0000009b 	muleq	r0, fp, r0
    2024:	a8040700 	stmdage	r4, {r8, r9, sl}
    2028:	03000000 	movweq	r0, #0
    202c:	00af0801 	adceq	r0, pc, r1, lsl #16
    2030:	a1080000 	mrsge	r0, (UNDEF: 8)
    2034:	06000000 	streq	r0, [r0], -r0
    2038:	00000256 	andeq	r0, r0, r6, asr r2
    203c:	b90e2102 	stmdblt	lr, {r1, r8, sp}
    2040:	07000000 	streq	r0, [r0, -r0]
    2044:	00008c04 	andeq	r8, r0, r4, lsl #24
    2048:	03380900 	teqeq	r8, #0, 18
    204c:	03010000 	movweq	r0, #4096	; 0x1000
    2050:	00002505 	andeq	r2, r0, r5, lsl #10
    2054:	008c5400 	addeq	r5, ip, r0, lsl #8
    2058:	00002c00 	andeq	r2, r0, r0, lsl #24
    205c:	0a9c0100 	beq	fe702464 <__bss_end__+0xfe6f90b4>
    2060:	03010061 	movweq	r0, #4193	; 0x1061
    2064:	00009b18 	andeq	r9, r0, r8, lsl fp
    2068:	000bd700 	andeq	sp, fp, r0, lsl #14
    206c:	000bd300 	andeq	sp, fp, r0, lsl #6
    2070:	00620a00 	rsbeq	r0, r2, r0, lsl #20
    2074:	9b270301 	blls	9c2c80 <__bss_end__+0x9b98d0>
    2078:	f9000000 			; <UNDEFINED> instruction: 0xf9000000
    207c:	f500000b 			; <UNDEFINED> instruction: 0xf500000b
    2080:	0000000b 	andeq	r0, r0, fp
    2084:	00010f00 	andeq	r0, r1, r0, lsl #30
    2088:	27000400 	strcs	r0, [r0, -r0, lsl #8]
    208c:	0400000d 	streq	r0, [r0], #-13
    2090:	00010701 	andeq	r0, r1, r1, lsl #14
    2094:	075d0c00 	ldrbeq	r0, [sp, -r0, lsl #24]
    2098:	02050000 	andeq	r0, r5, #0, 0
    209c:	8c800000 	stchi	0, cr0, [r0], {0}
    20a0:	00200000 	eoreq	r0, r0, r0
    20a4:	11870000 	orrne	r0, r7, r0
    20a8:	04020000 	streq	r0, [r2], #-0
    20ac:	746e6905 	strbtvc	r6, [lr], #-2309	; 0xfffff6fb
    20b0:	07040300 	streq	r0, [r4, -r0, lsl #6]
    20b4:	00000033 	andeq	r0, r0, r3, lsr r0
    20b8:	a8060103 	stmdage	r6, {r0, r1, r8}
    20bc:	03000000 	movweq	r0, #0
    20c0:	00fd0502 	rscseq	r0, sp, r2, lsl #10
    20c4:	04030000 	streq	r0, [r3], #-0
    20c8:	00000505 	andeq	r0, r0, r5, lsl #10
    20cc:	05080300 	streq	r0, [r8, #-768]	; 0xfffffd00
    20d0:	00000000 	andeq	r0, r0, r0
    20d4:	a6080103 	strge	r0, [r8], -r3, lsl #2
    20d8:	03000000 	movweq	r0, #0
    20dc:	00ea0702 	rsceq	r0, sl, r2, lsl #14
    20e0:	04030000 	streq	r0, [r3], #-0
    20e4:	00002e07 	andeq	r2, r0, r7, lsl #28
    20e8:	07080300 	streq	r0, [r8, -r0, lsl #6]
    20ec:	00000029 	andeq	r0, r0, r9, lsr #32
    20f0:	00002504 	andeq	r2, r0, r4, lsl #10
    20f4:	00007a00 	andeq	r7, r0, r0, lsl #20
    20f8:	00250500 	eoreq	r0, r5, r0, lsl #10
    20fc:	06000000 	streq	r0, [r0], -r0
    2100:	000001bc 			; <UNDEFINED> instruction: 0x000001bc
    2104:	860e1c02 	strhi	r1, [lr], -r2, lsl #24
    2108:	07000000 	streq	r0, [r0, -r0]
    210c:	00006b04 	andeq	r6, r0, r4, lsl #22
    2110:	00250400 	eoreq	r0, r5, r0, lsl #8
    2114:	009b0000 	addseq	r0, fp, r0
    2118:	9b050000 	blls	142120 <__bss_end__+0x138d70>
    211c:	00000000 	andeq	r0, r0, r0
    2120:	00a80407 	adceq	r0, r8, r7, lsl #8
    2124:	01030000 	mrseq	r0, (UNDEF: 3)
    2128:	0000af08 	andeq	sl, r0, r8, lsl #30
    212c:	00a10800 	adceq	r0, r1, r0, lsl #16
    2130:	56060000 	strpl	r0, [r6], -r0
    2134:	02000002 	andeq	r0, r0, #2, 0
    2138:	00b90e21 	adcseq	r0, r9, r1, lsr #28
    213c:	04070000 	streq	r0, [r7], #-0
    2140:	0000008c 	andeq	r0, r0, ip, lsl #1
    2144:	00030909 	andeq	r0, r3, r9, lsl #18
    2148:	07030100 	streq	r0, [r3, -r0, lsl #2]
    214c:	0000010c 	andeq	r0, r0, ip, lsl #2
    2150:	00008c80 	andeq	r8, r0, r0, lsl #25
    2154:	00000020 	andeq	r0, r0, r0, lsr #32
    2158:	010c9c01 	tsteq	ip, r1, lsl #24
    215c:	730a0000 	movwvc	r0, #40960	; 0xa000
    2160:	03010031 	movweq	r0, #4145	; 0x1031
    2164:	00010c15 	andeq	r0, r1, r5, lsl ip
    2168:	0b500100 	bleq	1402570 <__bss_end__+0x13f91c0>
    216c:	01003273 	tsteq	r0, r3, ror r2
    2170:	009b2603 	addseq	r2, fp, r3, lsl #12
    2174:	0c1d0000 	ldceq	0, cr0, [sp], {-0}
    2178:	0c170000 	ldceq	0, cr0, [r7], {-0}
    217c:	730c0000 	movwvc	r0, #49152	; 0xc000
    2180:	14040100 	strne	r0, [r4], #-256	; 0xffffff00
    2184:	0000010c 	andeq	r0, r0, ip, lsl #2
    2188:	00000c4e 	andeq	r0, r0, lr, asr #24
    218c:	00000c48 	andeq	r0, r0, r8, asr #24
    2190:	a1040700 	tstge	r4, r0, lsl #14
    2194:	00000000 	andeq	r0, r0, r0
    2198:	0000014e 	andeq	r0, r0, lr, asr #2
    219c:	0ddd0004 	ldcleq	0, cr0, [sp, #16]
    21a0:	01040000 	mrseq	r0, (UNDEF: 4)
    21a4:	00000107 	andeq	r0, r0, r7, lsl #2
    21a8:	0007740c 	andeq	r7, r7, ip, lsl #8
    21ac:	00020500 	andeq	r0, r2, r0, lsl #10
    21b0:	00001000 	andeq	r1, r0, r0
    21b4:	00000000 	andeq	r0, r0, r0
    21b8:	00124d00 	andseq	r4, r2, r0, lsl #26
    21bc:	05040200 	streq	r0, [r4, #-512]	; 0xfffffe00
    21c0:	00746e69 	rsbseq	r6, r4, r9, ror #28
    21c4:	00076d03 	andeq	r6, r7, r3, lsl #26
    21c8:	17d10300 	ldrbne	r0, [r1, r0, lsl #6]
    21cc:	00000038 	andeq	r0, r0, r8, lsr r0
    21d0:	33070404 	movwcc	r0, #29700	; 0x7404
    21d4:	04000000 	streq	r0, [r0], #-0
    21d8:	00a80601 	adceq	r0, r8, r1, lsl #12
    21dc:	02040000 	andeq	r0, r4, #0, 0
    21e0:	0000fd05 	andeq	pc, r0, r5, lsl #26
    21e4:	05040400 	streq	r0, [r4, #-1024]	; 0xfffffc00
    21e8:	00000005 	andeq	r0, r0, r5
    21ec:	00050804 	andeq	r0, r5, r4, lsl #16
    21f0:	04000000 	streq	r0, [r0], #-0
    21f4:	00a60801 	adceq	r0, r6, r1, lsl #16
    21f8:	5b050000 	blpl	142200 <__bss_end__+0x138e50>
    21fc:	04000000 	streq	r0, [r0], #-0
    2200:	00ea0702 	rsceq	r0, sl, r2, lsl #14
    2204:	04040000 	streq	r0, [r4], #-0
    2208:	00002e07 	andeq	r2, r0, r7, lsl #28
    220c:	07080400 	streq	r0, [r8, -r0, lsl #8]
    2210:	00000029 	andeq	r0, r0, r9, lsr #32
    2214:	00002506 	andeq	r2, r0, r6, lsl #10
    2218:	00008b00 	andeq	r8, r0, r0, lsl #22
    221c:	00250700 	eoreq	r0, r5, r0, lsl #14
    2220:	08000000 	stmdaeq	r0, {}	; <UNPREDICTABLE>
    2224:	000001bc 			; <UNDEFINED> instruction: 0x000001bc
    2228:	970e1c02 	strls	r1, [lr, -r2, lsl #24]
    222c:	09000000 	stmdbeq	r0, {}	; <UNPREDICTABLE>
    2230:	00007c04 	andeq	r7, r0, r4, lsl #24
    2234:	00250600 	eoreq	r0, r5, r0, lsl #12
    2238:	00ac0000 	adceq	r0, ip, r0
    223c:	ac070000 	stcge	0, cr0, [r7], {-0}
    2240:	00000000 	andeq	r0, r0, r0
    2244:	00b90409 	adcseq	r0, r9, r9, lsl #8
    2248:	01040000 	mrseq	r0, (UNDEF: 4)
    224c:	0000af08 	andeq	sl, r0, r8, lsl #30
    2250:	00b20500 	adcseq	r0, r2, r0, lsl #10
    2254:	56080000 	strpl	r0, [r8], -r0
    2258:	02000002 	andeq	r0, r0, #2, 0
    225c:	00ca0e21 	sbceq	r0, sl, r1, lsr #28
    2260:	04090000 	streq	r0, [r9], #-0
    2264:	0000009d 	muleq	r0, sp, r0
    2268:	0003600a 	andeq	r6, r3, sl
    226c:	05040100 	streq	r0, [r4, #-256]	; 0xffffff00
    2270:	00000025 	andeq	r0, r0, r5, lsr #32
    2274:	00008ca0 	andeq	r8, r0, r0, lsr #25
    2278:	0000002c 	andeq	r0, r0, ip, lsr #32
    227c:	014b9c01 	cmpeq	fp, r1, lsl #24
    2280:	5f0b0000 	svcpl	0x000b0000
    2284:	01003173 	tsteq	r0, r3, ror r1
    2288:	00ac1904 	adceq	r1, ip, r4, lsl #18
    228c:	0c7d0000 	ldcleq	0, cr0, [sp], #-0
    2290:	0c790000 	ldcleq	0, cr0, [r9], #-0
    2294:	5f0b0000 	svcpl	0x000b0000
    2298:	01003273 	tsteq	r0, r3, ror r2
    229c:	00ac2a04 	adceq	r2, ip, r4, lsl #20
    22a0:	0ca20000 	stceq	0, cr0, [r2]
    22a4:	0c9e0000 	ldceq	0, cr0, [lr], {0}
    22a8:	6e0b0000 	cdpvs	0, 0, cr0, cr11, cr0, {0}
    22ac:	36040100 	strcc	r0, [r4], -r0, lsl #2
    22b0:	0000002c 	andeq	r0, r0, ip, lsr #32
    22b4:	00000cc9 	andeq	r0, r0, r9, asr #25
    22b8:	00000cc3 	andeq	r0, r0, r3, asr #25
    22bc:	0031730c 	eorseq	r7, r1, ip, lsl #6
    22c0:	4b1a0501 	blmi	6836cc <__bss_end__+0x67a31c>
    22c4:	fc000001 	stc2	0, cr0, [r0], {1}
    22c8:	f400000c 	vst4.8	{d0-d3}, [r0], ip
    22cc:	0c00000c 	stceq	0, cr0, [r0], {12}
    22d0:	01003273 	tsteq	r0, r3, ror r2
    22d4:	014b2c05 	cmpeq	fp, r5, lsl #24
    22d8:	0d380000 	ldceq	0, cr0, [r8, #-0]
    22dc:	0d320000 	ldceq	0, cr0, [r2, #-0]
    22e0:	09000000 	stmdbeq	r0, {}	; <UNPREDICTABLE>
    22e4:	00006204 	andeq	r6, r0, r4, lsl #4
    22e8:	00ce0000 	sbceq	r0, lr, r0
    22ec:	00040000 	andeq	r0, r4, r0
    22f0:	00000e91 	muleq	r0, r1, lr
    22f4:	01070104 	tsteq	r7, r4, lsl #2
    22f8:	850c0000 	strhi	r0, [ip, #-0]
    22fc:	05000007 	streq	r0, [r0, #-7]
    2300:	cc000002 	stcgt	0, cr0, [r0], {2}
    2304:	0400008c 	streq	r0, [r0], #-140	; 0xffffff74
    2308:	73000000 	movwvc	r0, #0
    230c:	02000013 	andeq	r0, r0, #19, 0
    2310:	6e690504 	cdpvs	5, 6, cr0, cr9, cr4, {0}
    2314:	04030074 	streq	r0, [r3], #-116	; 0xffffff8c
    2318:	00003307 	andeq	r3, r0, r7, lsl #6
    231c:	06010300 	streq	r0, [r1], -r0, lsl #6
    2320:	000000a8 	andeq	r0, r0, r8, lsr #1
    2324:	fd050203 	stc2	2, cr0, [r5, #-12]
    2328:	03000000 	movweq	r0, #0
    232c:	00050504 	andeq	r0, r5, r4, lsl #10
    2330:	08030000 	stmdaeq	r3, {}	; <UNPREDICTABLE>
    2334:	00000005 	andeq	r0, r0, r5
    2338:	08010300 	stmdaeq	r1, {r8, r9}
    233c:	000000a6 	andeq	r0, r0, r6, lsr #1
    2340:	ea070203 	b	1c2b54 <__bss_end__+0x1b97a4>
    2344:	03000000 	movweq	r0, #0
    2348:	002e0704 	eoreq	r0, lr, r4, lsl #14
    234c:	08030000 	stmdaeq	r3, {}	; <UNPREDICTABLE>
    2350:	00002907 	andeq	r2, r0, r7, lsl #18
    2354:	00250400 	eoreq	r0, r5, r0, lsl #8
    2358:	007a0000 	rsbseq	r0, sl, r0
    235c:	25050000 	strcs	r0, [r5, #-0]
    2360:	00000000 	andeq	r0, r0, r0
    2364:	0001bc06 	andeq	fp, r1, r6, lsl #24
    2368:	0e1c0200 	cdpeq	2, 1, cr0, cr12, cr0, {0}
    236c:	00000086 	andeq	r0, r0, r6, lsl #1
    2370:	006b0407 	rsbeq	r0, fp, r7, lsl #8
    2374:	25040000 	strcs	r0, [r4, #-0]
    2378:	9b000000 	blls	2380 <LINK_ADDR-0x5c80>
    237c:	05000000 	streq	r0, [r0, #-0]
    2380:	0000009b 	muleq	r0, fp, r0
    2384:	a8040700 	stmdage	r4, {r8, r9, sl}
    2388:	03000000 	movweq	r0, #0
    238c:	00af0801 	adceq	r0, pc, r1, lsl #16
    2390:	a1080000 	mrsge	r0, (UNDEF: 8)
    2394:	06000000 	streq	r0, [r0], -r0
    2398:	00000256 	andeq	r0, r0, r6, asr r2
    239c:	b90e2102 	stmdblt	lr, {r1, r8, sp}
    23a0:	07000000 	streq	r0, [r0, -r0]
    23a4:	00008c04 	andeq	r8, r0, r4, lsl #24
    23a8:	040c0900 	streq	r0, [ip], #-2304	; 0xfffff700
    23ac:	03010000 	movweq	r0, #4096	; 0x1000
    23b0:	008ccc06 	addeq	ip, ip, r6, lsl #24
    23b4:	00000400 	andeq	r0, r0, r0, lsl #8
    23b8:	009c0100 	addseq	r0, ip, r0, lsl #2
    23bc:	000003a5 	andeq	r0, r0, r5, lsr #7
    23c0:	0f0a0004 	svceq	0x000a0004
    23c4:	01040000 	mrseq	r0, (UNDEF: 4)
    23c8:	000005e8 	andeq	r0, r0, r8, ror #11
    23cc:	0008290c 	andeq	r2, r8, ip, lsl #18
    23d0:	00059800 	andeq	r9, r5, r0, lsl #16
    23d4:	008ce800 	addeq	lr, ip, r0, lsl #16
    23d8:	00011c00 	andeq	r1, r1, r0, lsl #24
    23dc:	00142800 	andseq	r2, r4, r0, lsl #16
    23e0:	05040200 	streq	r0, [r4, #-512]	; 0xfffffe00
    23e4:	00746e69 	rsbseq	r6, r4, r9, ror #28
    23e8:	33070403 	movwcc	r0, #29699	; 0x7403
    23ec:	04000000 	streq	r0, [r0], #-0
    23f0:	0000002c 	andeq	r0, r0, ip, lsr #32
    23f4:	a8060103 	stmdage	r6, {r0, r1, r8}
    23f8:	03000000 	movweq	r0, #0
    23fc:	00fd0502 	rscseq	r0, sp, r2, lsl #10
    2400:	04030000 	streq	r0, [r3], #-0
    2404:	00000505 	andeq	r0, r0, r5, lsl #10
    2408:	05080300 	streq	r0, [r8, #-768]	; 0xfffffd00
    240c:	00000000 	andeq	r0, r0, r0
    2410:	a6080103 	strge	r0, [r8], -r3, lsl #2
    2414:	03000000 	movweq	r0, #0
    2418:	00ea0702 	rsceq	r0, sl, r2, lsl #14
    241c:	e0050000 	and	r0, r5, r0
    2420:	03000002 	movweq	r0, #2
    2424:	006e1934 	rsbeq	r1, lr, r4, lsr r9
    2428:	04030000 	streq	r0, [r3], #-0
    242c:	00002e07 	andeq	r2, r0, r7, lsl #28
    2430:	07080300 	streq	r0, [r8, -r0, lsl #6]
    2434:	00000029 	andeq	r0, r0, r9, lsr #32
    2438:	af080103 	svcge	0x00080103
    243c:	06000000 	streq	r0, [r0], -r0
    2440:	00540107 	subseq	r0, r4, r7, lsl #2
    2444:	0c040000 	stceq	0, cr0, [r4], {-0}
    2448:	0000c20e 	andeq	ip, r0, lr, lsl #4
    244c:	06d20700 	ldrbeq	r0, [r2], r0, lsl #14
    2450:	07000000 	streq	r0, [r0, -r0]
    2454:	0000050a 	andeq	r0, r0, sl, lsl #10
    2458:	054d0701 	strbeq	r0, [sp, #-1793]	; 0xfffff8ff
    245c:	07040000 	streq	r0, [r4, -r0]
    2460:	0000055c 	andeq	r0, r0, ip, asr r5
    2464:	056b0705 	strbeq	r0, [fp, #-1797]!	; 0xfffff8fb
    2468:	07060000 	streq	r0, [r6, -r0]
    246c:	0000057a 	andeq	r0, r0, sl, ror r5
    2470:	069b0707 	ldreq	r0, [fp], r7, lsl #14
    2474:	07030000 	streq	r0, [r3, -r0]
    2478:	00000589 	andeq	r0, r0, r9, lsl #11
    247c:	0e050002 	cdpeq	0, 0, cr0, cr5, cr2, {0}
    2480:	04000008 	streq	r0, [r0], #-8
    2484:	00830315 	addeq	r0, r3, r5, lsl r3
    2488:	b4080000 	strlt	r0, [r8], #-0
    248c:	01000007 	tsteq	r0, r7
    2490:	0033171d 	eorseq	r1, r3, sp, lsl r7
    2494:	001c0000 	andseq	r0, ip, r0
    2498:	aa082020 	bge	20a520 <__bss_end__+0x201170>
    249c:	01000007 	tsteq	r0, r7
    24a0:	0033171e 	eorseq	r1, r3, lr, lsl r7
    24a4:	00280000 	eoreq	r0, r8, r0
    24a8:	1a082020 	bne	20a530 <__bss_end__+0x201180>
    24ac:	01000008 	tsteq	r0, r8
    24b0:	0033171f 	eorseq	r1, r3, pc, lsl r7
    24b4:	00340000 	eorseq	r0, r4, r0
    24b8:	d3092020 	movwle	r2, #36896	; 0x9020
    24bc:	01000007 	tsteq	r0, r7
    24c0:	00250555 	eoreq	r0, r5, r5, asr r5
    24c4:	8dd00000 	ldclhi	0, cr0, [r0]
    24c8:	00340000 	eorseq	r0, r4, r0
    24cc:	9c010000 	stcls	0, cr0, [r1], {-0}
    24d0:	0000016e 	andeq	r0, r0, lr, ror #2
    24d4:	6e69700a 	cdpvs	0, 6, cr7, cr9, cr10, {0}
    24d8:	18550100 	ldmdane	r5, {r8}^
    24dc:	0000002c 	andeq	r0, r0, ip, lsr #32
    24e0:	00000d6b 	andeq	r0, r0, fp, ror #26
    24e4:	00000d63 	andeq	r0, r0, r3, ror #26
    24e8:	0008240b 	andeq	r2, r8, fp, lsl #8
    24ec:	0e580100 	rdfeqe	f0, f0, f0
    24f0:	0000002c 	andeq	r0, r0, ip, lsr #32
    24f4:	00000dab 	andeq	r0, r0, fp, lsr #27
    24f8:	00000da5 	andeq	r0, r0, r5, lsr #27
    24fc:	66666f0c 	strbtvs	r6, [r6], -ip, lsl #30
    2500:	0e590100 	rdfeqe	f0, f1, f0
    2504:	0000002c 	andeq	r0, r0, ip, lsr #32
    2508:	00000deb 	andeq	r0, r0, fp, ror #27
    250c:	00000de9 	andeq	r0, r0, r9, ror #27
    2510:	008dec0d 	addeq	lr, sp, sp, lsl #24
    2514:	00039000 	andeq	r9, r3, r0
    2518:	50010e00 	andpl	r0, r1, r0, lsl #28
    251c:	5001f30b 	andpl	pc, r1, fp, lsl #6
    2520:	b4232535 	strtlt	r2, [r3], #-1333	; 0xfffffacb
    2524:	02818080 	addeq	r8, r1, #128, 0	; 0x80
    2528:	be0f0000 	cdplt	0, 0, cr0, cr15, cr0, {0}
    252c:	01000007 	tsteq	r0, r7
    2530:	8db4064e 	ldchi	6, cr0, [r4, #312]!	; 0x138
    2534:	001c0000 	andseq	r0, ip, r0
    2538:	9c010000 	stcls	0, cr0, [r1], {-0}
    253c:	000001c9 	andeq	r0, r0, r9, asr #3
    2540:	6e69700a 	cdpvs	0, 6, cr7, cr9, cr10, {0}
    2544:	1a4e0100 	bne	138294c <__bss_end__+0x137959c>
    2548:	0000002c 	andeq	r0, r0, ip, lsr #32
    254c:	00000e06 	andeq	r0, r0, r6, lsl #28
    2550:	00000dfe 	strdeq	r0, [r0], -lr
    2554:	0100760a 	tsteq	r0, sl, lsl #12
    2558:	002c284e 	eoreq	r2, ip, lr, asr #16
    255c:	0e480000 	cdpeq	0, 4, cr0, cr8, cr0, {0}
    2560:	0e400000 	cdpeq	0, 4, cr0, cr0, cr0, {0}
    2564:	c4100000 	ldrgt	r0, [r0], #-0
    2568:	5100008d 	smlabbpl	r0, sp, r0, r0
    256c:	bf000002 	svclt	0x00000002
    2570:	0e000001 	cdpeq	0, 0, cr0, cr0, cr1, {0}
    2574:	f3035001 	vhadd.u8	d5, d3, d1
    2578:	11005001 	tstne	r0, r1
    257c:	00008dcc 	andeq	r8, r0, ip, asr #27
    2580:	0000020a 	andeq	r0, r0, sl, lsl #4
    2584:	07dd0f00 	ldrbeq	r0, [sp, r0, lsl #30]
    2588:	49010000 	stmdbmi	r1, {}	; <UNPREDICTABLE>
    258c:	008da406 	addeq	sl, sp, r6, lsl #8
    2590:	00001000 	andeq	r1, r0, r0
    2594:	0a9c0100 	beq	fe70299c <__bss_end__+0xfe6f95ec>
    2598:	0a000002 	beq	25a8 <LINK_ADDR-0x5a58>
    259c:	006e6970 	rsbeq	r6, lr, r0, ror r9
    25a0:	2c1e4901 			; <UNDEFINED> instruction: 0x2c1e4901
    25a4:	86000000 	strhi	r0, [r0], -r0
    25a8:	8200000e 	andhi	r0, r0, #14, 0
    25ac:	0d00000e 	stceq	0, cr0, [r0, #-56]	; 0xffffffc8
    25b0:	00008db0 			; <UNDEFINED> instruction: 0x00008db0
    25b4:	000002d9 	ldrdeq	r0, [r0], -r9
    25b8:	0350010e 	cmpeq	r0, #-2147483645	; 0x80000003
    25bc:	0e5001f3 	mrceq	1, 2, r0, cr0, cr3, {7}
    25c0:	30015101 	andcc	r5, r1, r1, lsl #2
    25c4:	ec0f0000 	stc	0, cr0, [pc], {-0}
    25c8:	01000007 	tsteq	r0, r7
    25cc:	8d800642 	stchi	6, cr0, [r0, #264]	; 0x108
    25d0:	00240000 	eoreq	r0, r4, r0
    25d4:	9c010000 	stcls	0, cr0, [r1], {-0}
    25d8:	00000251 	andeq	r0, r0, r1, asr r2
    25dc:	6e69700a 	cdpvs	0, 6, cr7, cr9, cr10, {0}
    25e0:	1c420100 	stfnee	f0, [r2], {-0}
    25e4:	0000002c 	andeq	r0, r0, ip, lsr #32
    25e8:	00000eab 	andeq	r0, r0, fp, lsr #29
    25ec:	00000ea7 	andeq	r0, r0, r7, lsr #29
    25f0:	008d9c0d 	addeq	r9, sp, sp, lsl #24
    25f4:	00039c00 	andeq	r9, r3, r0, lsl #24
    25f8:	50010e00 	andpl	r0, r1, r0, lsl #28
    25fc:	00280c05 	eoreq	r0, r8, r5, lsl #24
    2600:	010e2020 	tsteq	lr, r0, lsr #32
    2604:	f3310551 	vqrshl.u64	q0, <illegal reg q0.5>, <illegal reg q0.5>
    2608:	00245001 	eoreq	r5, r4, r1
    260c:	08300f00 	ldmdaeq	r0!, {r8, r9, sl, fp}
    2610:	3b010000 	blcc	42618 <__bss_end__+0x39268>
    2614:	008d5c06 	addeq	r5, sp, r6, lsl #24
    2618:	00002400 	andeq	r2, r0, r0, lsl #8
    261c:	989c0100 	ldmls	ip, {r8}
    2620:	0a000002 	beq	2630 <LINK_ADDR-0x59d0>
    2624:	006e6970 	rsbeq	r6, lr, r0, ror r9
    2628:	2c1b3b01 			; <UNDEFINED> instruction: 0x2c1b3b01
    262c:	d0000000 	andle	r0, r0, r0
    2630:	cc00000e 	stcgt	0, cr0, [r0], {14}
    2634:	0d00000e 	stceq	0, cr0, [r0, #-56]	; 0xffffffc8
    2638:	00008d78 	andeq	r8, r0, r8, ror sp
    263c:	0000039c 	muleq	r0, ip, r3
    2640:	0550010e 	ldrbeq	r0, [r0, #-270]	; 0xfffffef2
    2644:	20001c0c 	andcs	r1, r0, ip, lsl #24
    2648:	51010e20 	tstpl	r1, r0, lsr #28
    264c:	01f33105 	mvnseq	r3, r5, lsl #2
    2650:	00002450 	andeq	r2, r0, r0, asr r4
    2654:	0007f90f 	andeq	pc, r7, pc, lsl #18
    2658:	06360100 	ldrteq	r0, [r6], -r0, lsl #2
    265c:	00008d4c 	andeq	r8, r0, ip, asr #26
    2660:	00000010 	andeq	r0, r0, r0, lsl r0
    2664:	02d99c01 	sbcseq	r9, r9, #256	; 0x100
    2668:	700a0000 	andvc	r0, sl, r0
    266c:	01006e69 	tsteq	r0, r9, ror #28
    2670:	002c1f36 	eoreq	r1, ip, r6, lsr pc
    2674:	0ef50000 	cdpeq	0, 15, cr0, cr5, cr0, {0}
    2678:	0ef10000 	cdpeq	0, 15, cr0, cr1, cr0, {0}
    267c:	580d0000 	stmdapl	sp, {}	; <UNPREDICTABLE>
    2680:	d900008d 	stmdble	r0, {r0, r2, r3, r7}
    2684:	0e000002 	cdpeq	0, 0, cr0, cr0, cr2, {0}
    2688:	f3035001 	vhadd.u8	d5, d3, d1
    268c:	010e5001 	tsteq	lr, r1
    2690:	00310151 	eorseq	r0, r1, r1, asr r1
    2694:	06e20f00 	strbteq	r0, [r2], r0, lsl #30
    2698:	28010000 	stmdacs	r1, {}	; <UNPREDICTABLE>
    269c:	008ce806 	addeq	lr, ip, r6, lsl #16
    26a0:	00006400 	andeq	r6, r0, r0, lsl #8
    26a4:	749c0100 	ldrvc	r0, [ip], #256	; 0x100
    26a8:	0a000003 	beq	26bc <LINK_ADDR-0x5944>
    26ac:	006e6970 	rsbeq	r6, lr, r0, ror r9
    26b0:	2c212801 	stccs	8, cr2, [r1], #-4
    26b4:	1a000000 	bne	26bc <LINK_ADDR-0x5944>
    26b8:	1600000f 	strne	r0, [r0], -pc
    26bc:	1200000f 	andne	r0, r0, #15, 0
    26c0:	00000809 	andeq	r0, r0, r9, lsl #16
    26c4:	c2322801 	eorsgt	r2, r2, #65536	; 0x10000
    26c8:	3f000000 	svccc	0x00000000
    26cc:	3b00000f 	blcc	2710 <LINK_ADDR-0x58f0>
    26d0:	0c00000f 	stceq	0, cr0, [r0], {15}
    26d4:	0066666f 	rsbeq	r6, r6, pc, ror #12
    26d8:	2c0e2d01 	stccs	13, cr2, [lr], {1}
    26dc:	62000000 	andvs	r0, r0, #0, 0
    26e0:	6000000f 	andvs	r0, r0, pc
    26e4:	0c00000f 	stceq	0, cr0, [r0], {15}
    26e8:	2e010067 	cdpcs	0, 0, cr0, cr1, cr7, {3}
    26ec:	00002c0e 	andeq	r2, r0, lr, lsl #24
    26f0:	000f7700 	andeq	r7, pc, r0, lsl #14
    26f4:	000f7500 	andeq	r7, pc, r0, lsl #10
    26f8:	00760c00 	rsbseq	r0, r6, r0, lsl #24
    26fc:	2c0e3001 	stccs	0, cr3, [lr], {1}
    2700:	92000000 	andls	r0, r0, #0, 0
    2704:	8a00000f 	bhi	2748 <LINK_ADDR-0x58b8>
    2708:	1000000f 	andne	r0, r0, pc
    270c:	00008d30 	andeq	r8, r0, r0, lsr sp
    2710:	00000390 	muleq	r0, r0, r3
    2714:	00000363 	andeq	r0, r0, r3, ror #6
    2718:	0250010e 	subseq	r0, r0, #-2147483645	; 0x80000003
    271c:	0d000076 	stceq	0, cr0, [r0, #-472]	; 0xfffffe28
    2720:	00008d44 	andeq	r8, r0, r4, asr #26
    2724:	0000039c 	muleq	r0, ip, r3
    2728:	0250010e 	subseq	r0, r0, #-2147483645	; 0x80000003
    272c:	00000076 	andeq	r0, r0, r6, ror r0
    2730:	0007c913 	andeq	ip, r7, r3, lsl r9
    2734:	18b10200 	ldmne	r1!, {r9}
    2738:	00000062 	andeq	r0, r0, r2, rrx
    273c:	00039003 	andeq	r9, r3, r3
    2740:	00781400 	rsbseq	r1, r8, r0, lsl #8
    2744:	622bb102 	eorvs	fp, fp, #-2147483648	; 0x80000000
    2748:	00000000 	andeq	r0, r0, r0
    274c:	0004b715 	andeq	fp, r4, r5, lsl r7
    2750:	0004b700 	andeq	fp, r4, r0, lsl #14
    2754:	0ac20200 	beq	ff082f5c <__bss_end__+0xff079bac>
    2758:	00042315 	andeq	r2, r4, r5, lsl r3
    275c:	00042300 	andeq	r2, r4, r0, lsl #6
    2760:	06ad0200 	strteq	r0, [sp], r0, lsl #4
	...

Disassembly of section .debug_abbrev:

00000000 <.debug_abbrev>:
       0:	25011101 	strcs	r1, [r1, #-257]	; 0xfffffeff
       4:	030b130e 	movweq	r1, #45838	; 0xb30e
       8:	110e1b0e 	tstne	lr, lr, lsl #22
       c:	10061201 	andne	r1, r6, r1, lsl #4
      10:	02000017 	andeq	r0, r0, #23, 0
      14:	0b0b0024 	bleq	2c00ac <__bss_end__+0x2b6cfc>
      18:	08030b3e 	stmdaeq	r3, {r1, r2, r3, r4, r5, r8, r9, fp}
      1c:	24030000 	strcs	r0, [r3], #-0
      20:	3e0b0b00 	vmlacc.f64	d0, d11, d0
      24:	000e030b 	andeq	r0, lr, fp, lsl #6
      28:	00260400 	eoreq	r0, r6, r0, lsl #8
      2c:	00001349 	andeq	r1, r0, r9, asr #6
      30:	27011505 	strcs	r1, [r1, -r5, lsl #10]
      34:	01134919 	tsteq	r3, r9, lsl r9
      38:	06000013 			; <UNDEFINED> instruction: 0x06000013
      3c:	13490005 	movtne	r0, #36869	; 0x9005
      40:	34070000 	strcc	r0, [r7], #-0
      44:	3a0e0300 	bcc	380c4c <__bss_end__+0x37789c>
      48:	390b3b0b 	stmdbcc	fp, {r0, r1, r3, r8, r9, fp, ip, sp}
      4c:	3f13490b 	svccc	0x0013490b
      50:	00193c19 	andseq	r3, r9, r9, lsl ip
      54:	000f0800 	andeq	r0, pc, r0, lsl #16
      58:	13490b0b 	movtne	r0, #39691	; 0x9b0b
      5c:	2e090000 	cdpcs	0, 0, cr0, cr9, cr0, {0}
      60:	03193f01 	tsteq	r9, #1, 30
      64:	3b0b3a0e 	blcc	2ce8a4 <__bss_end__+0x2c54f4>
      68:	270b390b 	strcs	r3, [fp, -fp, lsl #18]
      6c:	12011119 	andne	r1, r1, #1073741830	; 0x40000006
      70:	97184006 	ldrls	r4, [r8, -r6]
      74:	13011942 	movwne	r1, #6466	; 0x1942
      78:	340a0000 	strcc	r0, [sl], #-0
      7c:	3a0e0300 	bcc	380c84 <__bss_end__+0x3778d4>
      80:	390b3b0b 	stmdbcc	fp, {r0, r1, r3, r8, r9, fp, ip, sp}
      84:	1c13490b 			; <UNDEFINED> instruction: 0x1c13490b
      88:	0b000005 	bleq	a4 <LINK_ADDR-0x7f5c>
      8c:	0e030034 	mcreq	0, 0, r0, cr3, cr4, {1}
      90:	0b3b0b3a 	bleq	ec2d80 <__bss_end__+0xeb99d0>
      94:	13490b39 	movtne	r0, #39737	; 0x9b39
      98:	42b71702 	adcsmi	r1, r7, #524288	; 0x80000
      9c:	0c000017 	stceq	0, cr0, [r0], {23}
      a0:	0e030034 	mcreq	0, 0, r0, cr3, cr4, {1}
      a4:	19341349 	ldmdbne	r4!, {r0, r3, r6, r8, r9, ip}
      a8:	00000e1c 	andeq	r0, r0, ip, lsl lr
      ac:	0182890d 	orreq	r8, r2, sp, lsl #18
      b0:	31011101 	tstcc	r1, r1, lsl #2
      b4:	00130113 	andseq	r0, r3, r3, lsl r1
      b8:	828a0e00 	addhi	r0, sl, #0, 28
      bc:	18020001 	stmdane	r2, {r0}
      c0:	00184291 	mulseq	r8, r1, r2
      c4:	82890f00 	addhi	r0, r9, #0, 30
      c8:	01110001 	tsteq	r1, r1
      cc:	00001331 	andeq	r1, r0, r1, lsr r3
      d0:	49010110 	stmdbmi	r1, {r4, r8}
      d4:	00130113 	andseq	r0, r3, r3, lsl r1
      d8:	00211100 	eoreq	r1, r1, r0, lsl #2
      dc:	0b2f1349 	bleq	bc4e08 <__bss_end__+0xbbba58>
      e0:	2e120000 	cdpcs	0, 1, cr0, cr2, cr0, {0}
      e4:	3c193f00 	ldccc	15, cr3, [r9], {-0}
      e8:	030e6e19 	movweq	r6, #60953	; 0xee19
      ec:	3b0b3a0e 	blcc	2ce92c <__bss_end__+0x2c557c>
      f0:	000b390b 	andeq	r3, fp, fp, lsl #18
      f4:	11010000 	mrsne	r0, (UNDEF: 1)
      f8:	130e2501 	movwne	r2, #58625	; 0xe501
      fc:	1b0e030b 	blne	380d30 <__bss_end__+0x377980>
     100:	1201110e 	andne	r1, r1, #-2147483645	; 0x80000003
     104:	00171006 	andseq	r1, r7, r6
     108:	00160200 	andseq	r0, r6, r0, lsl #4
     10c:	0b3a0e03 	bleq	e83920 <__bss_end__+0xe7a570>
     110:	0b390b3b 	bleq	e42e04 <__bss_end__+0xe39a54>
     114:	00001349 	andeq	r1, r0, r9, asr #6
     118:	03011303 	movweq	r1, #4867	; 0x1303
     11c:	3a0b0b0e 	bcc	2c2d5c <__bss_end__+0x2b99ac>
     120:	010b3b0b 	tsteq	fp, fp, lsl #22
     124:	04000013 	streq	r0, [r0], #-19	; 0xffffffed
     128:	0e03000d 	cdpeq	0, 0, cr0, cr3, cr13, {0}
     12c:	0b381349 	bleq	e04e58 <__bss_end__+0xdfbaa8>
     130:	00001934 	andeq	r1, r0, r4, lsr r9
     134:	0b000f05 	bleq	3d50 <LINK_ADDR-0x42b0>
     138:	0600000b 	streq	r0, [r0], -fp
     13c:	0b0b0024 	bleq	2c01d4 <__bss_end__+0x2b6e24>
     140:	08030b3e 	stmdaeq	r3, {r1, r2, r3, r4, r5, r8, r9, fp}
     144:	24070000 	strcs	r0, [r7], #-0
     148:	3e0b0b00 	vmlacc.f64	d0, d11, d0
     14c:	000e030b 	andeq	r0, lr, fp, lsl #6
     150:	01150800 	tsteq	r5, r0, lsl #16
     154:	13491927 	movtne	r1, #39207	; 0x9927
     158:	00001301 	andeq	r1, r0, r1, lsl #6
     15c:	49000509 	stmdbmi	r0, {r0, r3, r8, sl}
     160:	0a000013 	beq	1b4 <LINK_ADDR-0x7e4c>
     164:	0e030034 	mcreq	0, 0, r0, cr3, cr4, {1}
     168:	0b3b0b3a 	bleq	ec2e58 <__bss_end__+0xeb9aa8>
     16c:	13490b39 	movtne	r0, #39737	; 0x9b39
     170:	193c193f 	ldmdbne	ip!, {r0, r1, r2, r3, r4, r5, r8, fp, ip}
     174:	0f0b0000 	svceq	0x000b0000
     178:	490b0b00 	stmdbmi	fp, {r8, r9, fp}
     17c:	0c000013 	stceq	0, cr0, [r0], {19}
     180:	13490026 	movtne	r0, #36902	; 0x9026
     184:	2e0d0000 	cdpcs	0, 0, cr0, cr13, cr0, {0}
     188:	03193f01 	tsteq	r9, #1, 30
     18c:	3b0b3a0e 	blcc	2ce9cc <__bss_end__+0x2c561c>
     190:	270b390b 	strcs	r3, [fp, -fp, lsl #18]
     194:	11134919 	tstne	r3, r9, lsl r9
     198:	40061201 	andmi	r1, r6, r1, lsl #4
     19c:	19429718 	stmdbne	r2, {r3, r4, r8, r9, sl, ip, pc}^
     1a0:	00001301 	andeq	r1, r0, r1, lsl #6
     1a4:	0300050e 	movweq	r0, #1294	; 0x50e
     1a8:	3b0b3a08 	blcc	2ce9d0 <__bss_end__+0x2c5620>
     1ac:	490b390b 	stmdbmi	fp, {r0, r1, r3, r8, fp, ip, sp}
     1b0:	00180213 	andseq	r0, r8, r3, lsl r2
     1b4:	00180f00 	andseq	r0, r8, r0, lsl #30
     1b8:	34100000 	ldrcc	r0, [r0], #-0
     1bc:	3a080300 	bcc	200dc4 <__bss_end__+0x1f7a14>
     1c0:	390b3b0b 	stmdbcc	fp, {r0, r1, r3, r8, r9, fp, ip, sp}
     1c4:	0213490b 	andseq	r4, r3, #180224	; 0x2c000
     1c8:	11000018 	tstne	r0, r8, lsl r0
     1cc:	0e030034 	mcreq	0, 0, r0, cr3, cr4, {1}
     1d0:	0b3b0b3a 	bleq	ec2ec0 <__bss_end__+0xeb9b10>
     1d4:	13490b39 	movtne	r0, #39737	; 0x9b39
     1d8:	00001802 	andeq	r1, r0, r2, lsl #16
     1dc:	03003412 	movweq	r3, #1042	; 0x412
     1e0:	3b0b3a08 	blcc	2cea08 <__bss_end__+0x2c5658>
     1e4:	490b390b 	stmdbmi	fp, {r0, r1, r3, r8, fp, ip, sp}
     1e8:	b7170213 			; <UNDEFINED> instruction: 0xb7170213
     1ec:	00001742 	andeq	r1, r0, r2, asr #14
     1f0:	01828913 	orreq	r8, r2, r3, lsl r9
     1f4:	31011101 	tstcc	r1, r1, lsl #2
     1f8:	00130113 	andseq	r0, r3, r3, lsl r1
     1fc:	828a1400 	addhi	r1, sl, #0, 8
     200:	18020001 	stmdane	r2, {r0}
     204:	00184291 	mulseq	r8, r1, r2
     208:	82891500 	addhi	r1, r9, #0, 10
     20c:	01110101 	tsteq	r1, r1, lsl #2
     210:	01160000 	tsteq	r6, r0
     214:	01134901 	tsteq	r3, r1, lsl #18
     218:	17000013 	smladne	r0, r3, r0, r0
     21c:	13490021 	movtne	r0, #36897	; 0x9021
     220:	0000052f 	andeq	r0, r0, pc, lsr #10
     224:	3f002e18 	svccc	0x00002e18
     228:	6e193c19 	mrcvs	12, 0, r3, cr9, cr9, {0}
     22c:	3a0e030e 	bcc	380e6c <__bss_end__+0x377abc>
     230:	390b3b0b 	stmdbcc	fp, {r0, r1, r3, r8, r9, fp, ip, sp}
     234:	0000000b 	andeq	r0, r0, fp
     238:	25011101 	strcs	r1, [r1, #-257]	; 0xfffffeff
     23c:	030b130e 	movweq	r1, #45838	; 0xb30e
     240:	110e1b0e 	tstne	lr, lr, lsl #22
     244:	10061201 	andne	r1, r6, r1, lsl #4
     248:	02000017 	andeq	r0, r0, #23, 0
     24c:	0b0b0024 	bleq	2c02e4 <__bss_end__+0x2b6f34>
     250:	08030b3e 	stmdaeq	r3, {r1, r2, r3, r4, r5, r8, r9, fp}
     254:	24030000 	strcs	r0, [r3], #-0
     258:	3e0b0b00 	vmlacc.f64	d0, d11, d0
     25c:	000e030b 	andeq	r0, lr, fp, lsl #6
     260:	01150400 	tsteq	r5, r0, lsl #8
     264:	13491927 	movtne	r1, #39207	; 0x9927
     268:	00001301 	andeq	r1, r0, r1, lsl #6
     26c:	49000505 	stmdbmi	r0, {r0, r2, r8, sl}
     270:	06000013 			; <UNDEFINED> instruction: 0x06000013
     274:	0e030034 	mcreq	0, 0, r0, cr3, cr4, {1}
     278:	0b3b0b3a 	bleq	ec2f68 <__bss_end__+0xeb9bb8>
     27c:	13490b39 	movtne	r0, #39737	; 0x9b39
     280:	193c193f 	ldmdbne	ip!, {r0, r1, r2, r3, r4, r5, r8, fp, ip}
     284:	0f070000 	svceq	0x00070000
     288:	490b0b00 	stmdbmi	fp, {r8, r9, fp}
     28c:	08000013 	stmdaeq	r0, {r0, r1, r4}
     290:	13490026 	movtne	r0, #36902	; 0x9026
     294:	34090000 	strcc	r0, [r9], #-0
     298:	3a134700 	bcc	4d1ea0 <__bss_end__+0x4c8af0>
     29c:	390b3b0b 	stmdbcc	fp, {r0, r1, r3, r8, r9, fp, ip, sp}
     2a0:	0018020b 	andseq	r0, r8, fp, lsl #4
     2a4:	012e0a00 			; <UNDEFINED> instruction: 0x012e0a00
     2a8:	0e03193f 			; <UNDEFINED> instruction: 0x0e03193f
     2ac:	0b3b0b3a 	bleq	ec2f9c <__bss_end__+0xeb9bec>
     2b0:	19270b39 	stmdbne	r7!, {r0, r3, r4, r5, r8, r9, fp}
     2b4:	01111349 	tsteq	r1, r9, asr #6
     2b8:	18400612 	stmdane	r0, {r1, r4, r9, sl}^
     2bc:	00194296 	mulseq	r9, r6, r2
     2c0:	00050b00 	andeq	r0, r5, r0, lsl #22
     2c4:	0b3a0803 	bleq	e822d8 <__bss_end__+0xe78f28>
     2c8:	0b390b3b 	bleq	e42fbc <__bss_end__+0xe39c0c>
     2cc:	17021349 	strne	r1, [r2, -r9, asr #6]
     2d0:	001742b7 			; <UNDEFINED> instruction: 0x001742b7
     2d4:	11010000 	mrsne	r0, (UNDEF: 1)
     2d8:	130e2501 	movwne	r2, #58625	; 0xe501
     2dc:	1b0e030b 	blne	380f10 <__bss_end__+0x377b60>
     2e0:	1201110e 	andne	r1, r1, #-2147483645	; 0x80000003
     2e4:	00171006 	andseq	r1, r7, r6
     2e8:	00240200 	eoreq	r0, r4, r0, lsl #4
     2ec:	0b3e0b0b 	bleq	f82f20 <__bss_end__+0xf79b70>
     2f0:	00000803 	andeq	r0, r0, r3, lsl #16
     2f4:	0b002403 	bleq	9308 <__bss_start__+0x358>
     2f8:	030b3e0b 	movweq	r3, #48651	; 0xbe0b
     2fc:	0400000e 	streq	r0, [r0], #-14
     300:	0e030016 	mcreq	0, 0, r0, cr3, cr6, {0}
     304:	0b3b0b3a 	bleq	ec2ff4 <__bss_end__+0xeb9c44>
     308:	13490b39 	movtne	r0, #39737	; 0x9b39
     30c:	15050000 	strne	r0, [r5, #-0]
     310:	49192701 	ldmdbmi	r9, {r0, r8, r9, sl, sp}
     314:	00130113 	andseq	r0, r3, r3, lsl r1
     318:	00050600 	andeq	r0, r5, r0, lsl #12
     31c:	00001349 	andeq	r1, r0, r9, asr #6
     320:	03003407 	movweq	r3, #1031	; 0x407
     324:	3b0b3a0e 	blcc	2ceb64 <__bss_end__+0x2c57b4>
     328:	490b390b 	stmdbmi	fp, {r0, r1, r3, r8, fp, ip, sp}
     32c:	3c193f13 	ldccc	15, cr3, [r9], {19}
     330:	08000019 	stmdaeq	r0, {r0, r3, r4}
     334:	0b0b000f 	bleq	2c0378 <__bss_end__+0x2b6fc8>
     338:	00001349 	andeq	r1, r0, r9, asr #6
     33c:	49002609 	stmdbmi	r0, {r0, r3, r9, sl, sp}
     340:	0a000013 	beq	394 <LINK_ADDR-0x7c6c>
     344:	0e030113 	mcreq	1, 0, r0, cr3, cr3, {0}
     348:	0b3a0b0b 	bleq	e82f7c <__bss_end__+0xe79bcc>
     34c:	13010b3b 	movwne	r0, #6971	; 0x1b3b
     350:	0d0b0000 	stceq	0, cr0, [fp, #-0]
     354:	490e0300 	stmdbmi	lr, {r8, r9}
     358:	340b3813 	strcc	r3, [fp], #-2067	; 0xfffff7ed
     35c:	0c000019 	stceq	0, cr0, [r0], {25}
     360:	0b0b000f 	bleq	2c03a4 <__bss_end__+0x2b6ff4>
     364:	2e0d0000 	cdpcs	0, 0, cr0, cr13, cr0, {0}
     368:	03193f01 	tsteq	r9, #1, 30
     36c:	3b0b3a0e 	blcc	2cebac <__bss_end__+0x2c57fc>
     370:	270b390b 	strcs	r3, [fp, -fp, lsl #18]
     374:	11134919 	tstne	r3, r9, lsl r9
     378:	40061201 	andmi	r1, r6, r1, lsl #4
     37c:	19429718 	stmdbne	r2, {r3, r4, r8, r9, sl, ip, pc}^
     380:	00001301 	andeq	r1, r0, r1, lsl #6
     384:	0300050e 	movweq	r0, #1294	; 0x50e
     388:	3b0b3a08 	blcc	2cebb0 <__bss_end__+0x2c5800>
     38c:	490b390b 	stmdbmi	fp, {r0, r1, r3, r8, fp, ip, sp}
     390:	b7170213 			; <UNDEFINED> instruction: 0xb7170213
     394:	00001742 	andeq	r1, r0, r2, asr #14
     398:	0300050f 	movweq	r0, #1295	; 0x50f
     39c:	3b0b3a0e 	blcc	2cebdc <__bss_end__+0x2c582c>
     3a0:	490b390b 	stmdbmi	fp, {r0, r1, r3, r8, fp, ip, sp}
     3a4:	00180213 	andseq	r0, r8, r3, lsl r2
     3a8:	00341000 	eorseq	r1, r4, r0
     3ac:	0b3a0803 	bleq	e823c0 <__bss_end__+0xe79010>
     3b0:	0b390b3b 	bleq	e430a4 <__bss_end__+0xe39cf4>
     3b4:	17021349 	strne	r1, [r2, -r9, asr #6]
     3b8:	001742b7 			; <UNDEFINED> instruction: 0x001742b7
     3bc:	00341100 	eorseq	r1, r4, r0, lsl #2
     3c0:	0b3a0e03 	bleq	e83bd4 <__bss_end__+0xe7a824>
     3c4:	0b390b3b 	bleq	e430b8 <__bss_end__+0xe39d08>
     3c8:	17021349 	strne	r1, [r2, -r9, asr #6]
     3cc:	001742b7 			; <UNDEFINED> instruction: 0x001742b7
     3d0:	00341200 	eorseq	r1, r4, r0, lsl #4
     3d4:	13490e03 	movtne	r0, #40451	; 0x9e03
     3d8:	18021934 	stmdane	r2, {r2, r4, r5, r8, fp, ip}
     3dc:	0b130000 	bleq	4c03e4 <__bss_end__+0x4b7034>
     3e0:	12011101 	andne	r1, r1, #1073741824	; 0x40000000
     3e4:	14000006 	strne	r0, [r0], #-6
     3e8:	08030034 	stmdaeq	r3, {r2, r4, r5}
     3ec:	0b3b0b3a 	bleq	ec30dc <__bss_end__+0xeb9d2c>
     3f0:	13490b39 	movtne	r0, #39737	; 0x9b39
     3f4:	00001802 	andeq	r1, r0, r2, lsl #16
     3f8:	03003415 	movweq	r3, #1045	; 0x415
     3fc:	3b0b3a0e 	blcc	2cec3c <__bss_end__+0x2c588c>
     400:	490b390b 	stmdbmi	fp, {r0, r1, r3, r8, fp, ip, sp}
     404:	00180213 	andseq	r0, r8, r3, lsl r2
     408:	010b1600 	tsteq	fp, r0, lsl #12
     40c:	06120111 			; <UNDEFINED> instruction: 0x06120111
     410:	00001301 	andeq	r1, r0, r1, lsl #6
     414:	03003417 	movweq	r3, #1047	; 0x417
     418:	3b0b3a08 	blcc	2cec40 <__bss_end__+0x2c5890>
     41c:	490b390b 	stmdbmi	fp, {r0, r1, r3, r8, fp, ip, sp}
     420:	18000013 	stmdane	r0, {r0, r1, r4}
     424:	01018289 	smlabbeq	r1, r9, r2, r8
     428:	13310111 	teqne	r1, #1073741828	; 0x40000004
     42c:	00001301 	andeq	r1, r0, r1, lsl #6
     430:	01828a19 	orreq	r8, r2, r9, lsl sl
     434:	91180200 	tstls	r8, r0, lsl #4
     438:	00001842 	andeq	r1, r0, r2, asr #16
     43c:	0182891a 	orreq	r8, r2, sl, lsl r9
     440:	31011100 	mrscc	r1, (UNDEF: 17)
     444:	1b000013 	blne	498 <LINK_ADDR-0x7b68>
     448:	01018289 	smlabbeq	r1, r9, r2, r8
     44c:	13010111 	movwne	r0, #4369	; 0x1111
     450:	011c0000 	tsteq	ip, r0
     454:	01134901 	tsteq	r3, r1, lsl #18
     458:	1d000013 	stcne	0, cr0, [r0, #-76]	; 0xffffffb4
     45c:	13490021 	movtne	r0, #36897	; 0x9021
     460:	00000b2f 	andeq	r0, r0, pc, lsr #22
     464:	03012e1e 	movweq	r2, #7710	; 0x1e1e
     468:	3b0b3a0e 	blcc	2ceca8 <__bss_end__+0x2c58f8>
     46c:	270b390b 	strcs	r3, [fp, -fp, lsl #18]
     470:	11134919 	tstne	r3, r9, lsl r9
     474:	40061201 	andmi	r1, r6, r1, lsl #4
     478:	19429718 	stmdbne	r2, {r3, r4, r8, r9, sl, ip, pc}^
     47c:	00001301 	andeq	r1, r0, r1, lsl #6
     480:	0300051f 	movweq	r0, #1311	; 0x51f
     484:	3b0b3a0e 	blcc	2cecc4 <__bss_end__+0x2c5914>
     488:	490b390b 	stmdbmi	fp, {r0, r1, r3, r8, fp, ip, sp}
     48c:	b7170213 			; <UNDEFINED> instruction: 0xb7170213
     490:	00001742 	andeq	r1, r0, r2, asr #14
     494:	03012e20 	movweq	r2, #7712	; 0x1e20
     498:	3b0b3a08 	blcc	2cecc0 <__bss_end__+0x2c5910>
     49c:	270b390b 	strcs	r3, [fp, -fp, lsl #18]
     4a0:	11134919 	tstne	r3, r9, lsl r9
     4a4:	40061201 	andmi	r1, r6, r1, lsl #4
     4a8:	19429718 	stmdbne	r2, {r3, r4, r8, r9, sl, ip, pc}^
     4ac:	00001301 	andeq	r1, r0, r1, lsl #6
     4b0:	3f012e21 	svccc	0x00012e21
     4b4:	3a0e0319 	bcc	381120 <__bss_end__+0x377d70>
     4b8:	390b3b0b 	stmdbcc	fp, {r0, r1, r3, r8, r9, fp, ip, sp}
     4bc:	1119270b 	tstne	r9, fp, lsl #14
     4c0:	40061201 	andmi	r1, r6, r1, lsl #4
     4c4:	19429718 	stmdbne	r2, {r3, r4, r8, r9, sl, ip, pc}^
     4c8:	00001301 	andeq	r1, r0, r1, lsl #6
     4cc:	3f002e22 	svccc	0x00002e22
     4d0:	6e193c19 	mrcvs	12, 0, r3, cr9, cr9, {0}
     4d4:	3a0e030e 	bcc	381114 <__bss_end__+0x377d64>
     4d8:	390b3b0b 	stmdbcc	fp, {r0, r1, r3, r8, r9, fp, ip, sp}
     4dc:	0000000b 	andeq	r0, r0, fp
     4e0:	25011101 	strcs	r1, [r1, #-257]	; 0xfffffeff
     4e4:	030b130e 	movweq	r1, #45838	; 0xb30e
     4e8:	110e1b0e 	tstne	lr, lr, lsl #22
     4ec:	10061201 	andne	r1, r6, r1, lsl #4
     4f0:	02000017 	andeq	r0, r0, #23, 0
     4f4:	0b0b0024 	bleq	2c058c <__bss_end__+0x2b71dc>
     4f8:	08030b3e 	stmdaeq	r3, {r1, r2, r3, r4, r5, r8, r9, fp}
     4fc:	24030000 	strcs	r0, [r3], #-0
     500:	3e0b0b00 	vmlacc.f64	d0, d11, d0
     504:	000e030b 	andeq	r0, lr, fp, lsl #6
     508:	01150400 	tsteq	r5, r0, lsl #8
     50c:	13491927 	movtne	r1, #39207	; 0x9927
     510:	00001301 	andeq	r1, r0, r1, lsl #6
     514:	49000505 	stmdbmi	r0, {r0, r2, r8, sl}
     518:	06000013 			; <UNDEFINED> instruction: 0x06000013
     51c:	0e030034 	mcreq	0, 0, r0, cr3, cr4, {1}
     520:	0b3b0b3a 	bleq	ec3210 <__bss_end__+0xeb9e60>
     524:	13490b39 	movtne	r0, #39737	; 0x9b39
     528:	193c193f 	ldmdbne	ip!, {r0, r1, r2, r3, r4, r5, r8, fp, ip}
     52c:	0f070000 	svceq	0x00070000
     530:	490b0b00 	stmdbmi	fp, {r8, r9, fp}
     534:	08000013 	stmdaeq	r0, {r0, r1, r4}
     538:	13490026 	movtne	r0, #36902	; 0x9026
     53c:	2e090000 	cdpcs	0, 0, cr0, cr9, cr0, {0}
     540:	03193f01 	tsteq	r9, #1, 30
     544:	3b0b3a0e 	blcc	2ced84 <__bss_end__+0x2c59d4>
     548:	270b390b 	strcs	r3, [fp, -fp, lsl #18]
     54c:	19018719 	stmdbne	r1, {r0, r3, r4, r8, r9, sl, pc}
     550:	06120111 			; <UNDEFINED> instruction: 0x06120111
     554:	42971840 	addsmi	r1, r7, #64, 16	; 0x400000
     558:	00130119 	andseq	r0, r3, r9, lsl r1
     55c:	82890a00 	addhi	r0, r9, #0, 20
     560:	01110101 	tsteq	r1, r1, lsl #2
     564:	00001301 	andeq	r1, r0, r1, lsl #6
     568:	01828a0b 	orreq	r8, r2, fp, lsl #20
     56c:	91180200 	tstls	r8, r0, lsl #4
     570:	00001842 	andeq	r1, r0, r2, asr #16
     574:	0182890c 	orreq	r8, r2, ip, lsl #18
     578:	31011100 	mrscc	r1, (UNDEF: 17)
     57c:	0d000013 	stceq	0, cr0, [r0, #-76]	; 0xffffffb4
     580:	01018289 	smlabbeq	r1, r9, r2, r8
     584:	13310111 	teqne	r1, #1073741828	; 0x40000004
     588:	00001301 	andeq	r1, r0, r1, lsl #6
     58c:	3f002e0e 	svccc	0x00002e0e
     590:	6e193c19 	mrcvs	12, 0, r3, cr9, cr9, {0}
     594:	3a0e030e 	bcc	3811d4 <__bss_end__+0x377e24>
     598:	390b3b0b 	stmdbcc	fp, {r0, r1, r3, r8, r9, fp, ip, sp}
     59c:	0000000b 	andeq	r0, r0, fp
     5a0:	25011101 	strcs	r1, [r1, #-257]	; 0xfffffeff
     5a4:	030b130e 	movweq	r1, #45838	; 0xb30e
     5a8:	110e1b0e 	tstne	lr, lr, lsl #22
     5ac:	10061201 	andne	r1, r6, r1, lsl #4
     5b0:	02000017 	andeq	r0, r0, #23, 0
     5b4:	0b0b0024 	bleq	2c064c <__bss_end__+0x2b729c>
     5b8:	08030b3e 	stmdaeq	r3, {r1, r2, r3, r4, r5, r8, r9, fp}
     5bc:	24030000 	strcs	r0, [r3], #-0
     5c0:	3e0b0b00 	vmlacc.f64	d0, d11, d0
     5c4:	000e030b 	andeq	r0, lr, fp, lsl #6
     5c8:	01150400 	tsteq	r5, r0, lsl #8
     5cc:	13491927 	movtne	r1, #39207	; 0x9927
     5d0:	00001301 	andeq	r1, r0, r1, lsl #6
     5d4:	49000505 	stmdbmi	r0, {r0, r2, r8, sl}
     5d8:	06000013 			; <UNDEFINED> instruction: 0x06000013
     5dc:	0e030034 	mcreq	0, 0, r0, cr3, cr4, {1}
     5e0:	0b3b0b3a 	bleq	ec32d0 <__bss_end__+0xeb9f20>
     5e4:	13490b39 	movtne	r0, #39737	; 0x9b39
     5e8:	193c193f 	ldmdbne	ip!, {r0, r1, r2, r3, r4, r5, r8, fp, ip}
     5ec:	0f070000 	svceq	0x00070000
     5f0:	490b0b00 	stmdbmi	fp, {r8, r9, fp}
     5f4:	08000013 	stmdaeq	r0, {r0, r1, r4}
     5f8:	13490026 	movtne	r0, #36902	; 0x9026
     5fc:	2e090000 	cdpcs	0, 0, cr0, cr9, cr0, {0}
     600:	03193f01 	tsteq	r9, #1, 30
     604:	3b0b3a0e 	blcc	2cee44 <__bss_end__+0x2c5a94>
     608:	110b390b 	tstne	fp, fp, lsl #18
     60c:	40061201 	andmi	r1, r6, r1, lsl #4
     610:	19429718 	stmdbne	r2, {r3, r4, r8, r9, sl, ip, pc}^
     614:	00001301 	andeq	r1, r0, r1, lsl #6
     618:	3f002e0a 	svccc	0x00002e0a
     61c:	3a0e0319 	bcc	381288 <__bss_end__+0x377ed8>
     620:	390b3b0b 	stmdbcc	fp, {r0, r1, r3, r8, r9, fp, ip, sp}
     624:	3c19270b 	ldccc	7, cr2, [r9], {11}
     628:	0b000019 	bleq	694 <LINK_ADDR-0x796c>
     62c:	08030034 	stmdaeq	r3, {r2, r4, r5}
     630:	0b3b0b3a 	bleq	ec3320 <__bss_end__+0xeb9f70>
     634:	13490b39 	movtne	r0, #39737	; 0x9b39
     638:	42b71702 	adcsmi	r1, r7, #524288	; 0x80000
     63c:	0c000017 	stceq	0, cr0, [r0], {23}
     640:	0e030034 	mcreq	0, 0, r0, cr3, cr4, {1}
     644:	0b3b0b3a 	bleq	ec3334 <__bss_end__+0xeb9f84>
     648:	13490b39 	movtne	r0, #39737	; 0x9b39
     64c:	0b0d0000 	bleq	340654 <__bss_end__+0x3372a4>
     650:	12011101 	andne	r1, r1, #1073741824	; 0x40000000
     654:	00130106 	andseq	r0, r3, r6, lsl #2
     658:	00340e00 	eorseq	r0, r4, r0, lsl #28
     65c:	0b3a0803 	bleq	e82670 <__bss_end__+0xe792c0>
     660:	0b390b3b 	bleq	e43354 <__bss_end__+0xe39fa4>
     664:	0b1c1349 	bleq	705390 <__bss_end__+0x6fbfe0>
     668:	890f0000 	stmdbhi	pc, {}	; <UNPREDICTABLE>
     66c:	11000182 	smlabbne	r0, r2, r1, r0
     670:	00133101 	andseq	r3, r3, r1, lsl #2
     674:	002e1000 	eoreq	r1, lr, r0
     678:	193c193f 	ldmdbne	ip!, {r0, r1, r2, r3, r4, r5, r8, fp, ip}
     67c:	0e030e6e 	cdpeq	14, 0, cr0, cr3, cr14, {3}
     680:	053b0b3a 	ldreq	r0, [fp, #-2874]!	; 0xfffff4c6
     684:	00000b39 	andeq	r0, r0, r9, lsr fp
     688:	3f002e11 	svccc	0x00002e11
     68c:	6e193c19 	mrcvs	12, 0, r3, cr9, cr9, {0}
     690:	3a0e030e 	bcc	3812d0 <__bss_end__+0x377f20>
     694:	390b3b0b 	stmdbcc	fp, {r0, r1, r3, r8, r9, fp, ip, sp}
     698:	0000000b 	andeq	r0, r0, fp
     69c:	25011101 	strcs	r1, [r1, #-257]	; 0xfffffeff
     6a0:	030b130e 	movweq	r1, #45838	; 0xb30e
     6a4:	110e1b0e 	tstne	lr, lr, lsl #22
     6a8:	10061201 	andne	r1, r6, r1, lsl #4
     6ac:	02000017 	andeq	r0, r0, #23, 0
     6b0:	0b0b0024 	bleq	2c0748 <__bss_end__+0x2b7398>
     6b4:	08030b3e 	stmdaeq	r3, {r1, r2, r3, r4, r5, r8, r9, fp}
     6b8:	24030000 	strcs	r0, [r3], #-0
     6bc:	3e0b0b00 	vmlacc.f64	d0, d11, d0
     6c0:	000e030b 	andeq	r0, lr, fp, lsl #6
     6c4:	01150400 	tsteq	r5, r0, lsl #8
     6c8:	13491927 	movtne	r1, #39207	; 0x9927
     6cc:	00001301 	andeq	r1, r0, r1, lsl #6
     6d0:	49000505 	stmdbmi	r0, {r0, r2, r8, sl}
     6d4:	06000013 			; <UNDEFINED> instruction: 0x06000013
     6d8:	0e030034 	mcreq	0, 0, r0, cr3, cr4, {1}
     6dc:	0b3b0b3a 	bleq	ec33cc <__bss_end__+0xeba01c>
     6e0:	13490b39 	movtne	r0, #39737	; 0x9b39
     6e4:	193c193f 	ldmdbne	ip!, {r0, r1, r2, r3, r4, r5, r8, fp, ip}
     6e8:	0f070000 	svceq	0x00070000
     6ec:	490b0b00 	stmdbmi	fp, {r8, r9, fp}
     6f0:	08000013 	stmdaeq	r0, {r0, r1, r4}
     6f4:	13490026 	movtne	r0, #36902	; 0x9026
     6f8:	2e090000 	cdpcs	0, 0, cr0, cr9, cr0, {0}
     6fc:	03193f00 	tsteq	r9, #0, 30
     700:	3b0b3a0e 	blcc	2cef40 <__bss_end__+0x2c5b90>
     704:	270b390b 	strcs	r3, [fp, -fp, lsl #18]
     708:	12011119 	andne	r1, r1, #1073741830	; 0x40000006
     70c:	97184006 	ldrls	r4, [r8, -r6]
     710:	00001942 	andeq	r1, r0, r2, asr #18
     714:	01110100 	tsteq	r1, r0, lsl #2
     718:	0b130e25 	bleq	4c3fb4 <__bss_end__+0x4bac04>
     71c:	0e1b0e03 	cdpeq	14, 1, cr0, cr11, cr3, {0}
     720:	01111755 	tsteq	r1, r5, asr r7
     724:	00001710 	andeq	r1, r0, r0, lsl r7
     728:	0b002402 	bleq	9738 <__bss_end__+0x388>
     72c:	030b3e0b 	movweq	r3, #48651	; 0xbe0b
     730:	03000008 	movweq	r0, #8
     734:	13490026 	movtne	r0, #36902	; 0x9026
     738:	24040000 	strcs	r0, [r4], #-0
     73c:	3e0b0b00 	vmlacc.f64	d0, d11, d0
     740:	000e030b 	andeq	r0, lr, fp, lsl #6
     744:	01150500 	tsteq	r5, r0, lsl #10
     748:	13491927 	movtne	r1, #39207	; 0x9927
     74c:	00001301 	andeq	r1, r0, r1, lsl #6
     750:	49000506 	stmdbmi	r0, {r1, r2, r8, sl}
     754:	07000013 	smladeq	r0, r3, r0, r0
     758:	0e030034 	mcreq	0, 0, r0, cr3, cr4, {1}
     75c:	0b3b0b3a 	bleq	ec344c <__bss_end__+0xeba09c>
     760:	13490b39 	movtne	r0, #39737	; 0x9b39
     764:	193c193f 	ldmdbne	ip!, {r0, r1, r2, r3, r4, r5, r8, fp, ip}
     768:	0f080000 	svceq	0x00080000
     76c:	490b0b00 	stmdbmi	fp, {r8, r9, fp}
     770:	09000013 	stmdbeq	r0, {r0, r1, r4}
     774:	0e030034 	mcreq	0, 0, r0, cr3, cr4, {1}
     778:	0b3b0b3a 	bleq	ec3468 <__bss_end__+0xeba0b8>
     77c:	13490b39 	movtne	r0, #39737	; 0x9b39
     780:	2e0a0000 	cdpcs	0, 0, cr0, cr10, cr0, {0}
     784:	03193f01 	tsteq	r9, #1, 30
     788:	3b0b3a0e 	blcc	2cefc8 <__bss_end__+0x2c5c18>
     78c:	270b390b 	strcs	r3, [fp, -fp, lsl #18]
     790:	19018719 	stmdbne	r1, {r0, r3, r4, r8, r9, sl, pc}
     794:	06120111 			; <UNDEFINED> instruction: 0x06120111
     798:	42971840 	addsmi	r1, r7, #64, 16	; 0x400000
     79c:	00130119 	andseq	r0, r3, r9, lsl r1
     7a0:	00340b00 	eorseq	r0, r4, r0, lsl #22
     7a4:	0b3a0e03 	bleq	e83fb8 <__bss_end__+0xe7ac08>
     7a8:	0b390b3b 	bleq	e4349c <__bss_end__+0xe3a0ec>
     7ac:	17021349 	strne	r1, [r2, -r9, asr #6]
     7b0:	001742b7 			; <UNDEFINED> instruction: 0x001742b7
     7b4:	82890c00 	addhi	r0, r9, #0, 24
     7b8:	01110001 	tsteq	r1, r1
     7bc:	00001331 	andeq	r1, r0, r1, lsr r3
     7c0:	0182890d 	orreq	r8, r2, sp, lsl #18
     7c4:	31011101 	tstcc	r1, r1, lsl #2
     7c8:	00130113 	andseq	r0, r3, r3, lsl r1
     7cc:	828a0e00 	addhi	r0, sl, #0, 28
     7d0:	18020001 	stmdane	r2, {r0}
     7d4:	00184291 	mulseq	r8, r1, r2
     7d8:	012e0f00 			; <UNDEFINED> instruction: 0x012e0f00
     7dc:	0e03193f 			; <UNDEFINED> instruction: 0x0e03193f
     7e0:	0b3b0b3a 	bleq	ec34d0 <__bss_end__+0xeba120>
     7e4:	19270b39 	stmdbne	r7!, {r0, r3, r4, r5, r8, r9, fp}
     7e8:	06120111 			; <UNDEFINED> instruction: 0x06120111
     7ec:	42971840 	addsmi	r1, r7, #64, 16	; 0x400000
     7f0:	00130119 	andseq	r0, r3, r9, lsl r1
     7f4:	012e1000 			; <UNDEFINED> instruction: 0x012e1000
     7f8:	0e03193f 			; <UNDEFINED> instruction: 0x0e03193f
     7fc:	0b3b0b3a 	bleq	ec34ec <__bss_end__+0xeba13c>
     800:	19270b39 	stmdbne	r7!, {r0, r3, r4, r5, r8, r9, fp}
     804:	01111349 	tsteq	r1, r9, asr #6
     808:	18400612 	stmdane	r0, {r1, r4, r9, sl}^
     80c:	01194297 			; <UNDEFINED> instruction: 0x01194297
     810:	11000013 	tstne	r0, r3, lsl r0
     814:	193f002e 	ldmdbne	pc!, {r1, r2, r3, r5}	; <UNPREDICTABLE>
     818:	0e6e193c 			; <UNDEFINED> instruction: 0x0e6e193c
     81c:	0b3a0e03 	bleq	e84030 <__bss_end__+0xe7ac80>
     820:	0b39053b 	bleq	e41d14 <__bss_end__+0xe38964>
     824:	2e120000 	cdpcs	0, 1, cr0, cr2, cr0, {0}
     828:	3c193f00 	ldccc	15, cr3, [r9], {-0}
     82c:	030e6e19 	movweq	r6, #60953	; 0xee19
     830:	3b0b3a0e 	blcc	2cf070 <__bss_end__+0x2c5cc0>
     834:	000b390b 	andeq	r3, fp, fp, lsl #18
     838:	11010000 	mrsne	r0, (UNDEF: 1)
     83c:	130e2501 	movwne	r2, #58625	; 0xe501
     840:	1b0e030b 	blne	381474 <__bss_end__+0x3780c4>
     844:	1201110e 	andne	r1, r1, #-2147483645	; 0x80000003
     848:	00171006 	andseq	r1, r7, r6
     84c:	00240200 	eoreq	r0, r4, r0, lsl #4
     850:	0b3e0b0b 	bleq	f83484 <__bss_end__+0xf7a0d4>
     854:	00000803 	andeq	r0, r0, r3, lsl #16
     858:	0b002403 	bleq	986c <__bss_end__+0x4bc>
     85c:	030b3e0b 	movweq	r3, #48651	; 0xbe0b
     860:	0400000e 	streq	r0, [r0], #-14
     864:	19270115 	stmdbne	r7!, {r0, r2, r4, r8}
     868:	13011349 	movwne	r1, #4937	; 0x1349
     86c:	05050000 	streq	r0, [r5, #-0]
     870:	00134900 	andseq	r4, r3, r0, lsl #18
     874:	00340600 	eorseq	r0, r4, r0, lsl #12
     878:	0b3a0e03 	bleq	e8408c <__bss_end__+0xe7acdc>
     87c:	0b390b3b 	bleq	e43570 <__bss_end__+0xe3a1c0>
     880:	193f1349 	ldmdbne	pc!, {r0, r3, r6, r8, r9, ip}	; <UNPREDICTABLE>
     884:	0000193c 	andeq	r1, r0, ip, lsr r9
     888:	0b000f07 	bleq	44ac <LINK_ADDR-0x3b54>
     88c:	0013490b 	andseq	r4, r3, fp, lsl #18
     890:	00260800 	eoreq	r0, r6, r0, lsl #16
     894:	00001349 	andeq	r1, r0, r9, asr #6
     898:	3f012e09 	svccc	0x00012e09
     89c:	3a0e0319 	bcc	381508 <__bss_end__+0x378158>
     8a0:	390b3b0b 	stmdbcc	fp, {r0, r1, r3, r8, r9, fp, ip, sp}
     8a4:	1119270b 	tstne	r9, fp, lsl #14
     8a8:	40061201 	andmi	r1, r6, r1, lsl #4
     8ac:	19429718 	stmdbne	r2, {r3, r4, r8, r9, sl, ip, pc}^
     8b0:	00001301 	andeq	r1, r0, r1, lsl #6
     8b4:	0300050a 	movweq	r0, #1290	; 0x50a
     8b8:	3b0b3a08 	blcc	2cf0e0 <__bss_end__+0x2c5d30>
     8bc:	490b390b 	stmdbmi	fp, {r0, r1, r3, r8, fp, ip, sp}
     8c0:	b7170213 			; <UNDEFINED> instruction: 0xb7170213
     8c4:	00001742 	andeq	r1, r0, r2, asr #14
     8c8:	0182890b 	orreq	r8, r2, fp, lsl #18
     8cc:	31011101 	tstcc	r1, r1, lsl #2
     8d0:	0c000013 	stceq	0, cr0, [r0], {19}
     8d4:	0001828a 	andeq	r8, r1, sl, lsl #5
     8d8:	42911802 	addsmi	r1, r1, #131072	; 0x20000
     8dc:	0d000018 	stceq	0, cr0, [r0, #-96]	; 0xffffffa0
     8e0:	08030034 	stmdaeq	r3, {r2, r4, r5}
     8e4:	0b3b0b3a 	bleq	ec35d4 <__bss_end__+0xeba224>
     8e8:	13490b39 	movtne	r0, #39737	; 0x9b39
     8ec:	42b71702 	adcsmi	r1, r7, #524288	; 0x80000
     8f0:	0e000017 	mcreq	0, 0, r0, cr0, cr7, {0}
     8f4:	0111010b 	tsteq	r1, fp, lsl #2
     8f8:	13010612 	movwne	r0, #5650	; 0x1612
     8fc:	890f0000 	stmdbhi	pc, {}	; <UNPREDICTABLE>
     900:	11000182 	smlabbne	r0, r2, r1, r0
     904:	00133101 	andseq	r3, r3, r1, lsl #2
     908:	012e1000 			; <UNDEFINED> instruction: 0x012e1000
     90c:	0e03193f 			; <UNDEFINED> instruction: 0x0e03193f
     910:	0b3b0b3a 	bleq	ec3600 <__bss_end__+0xeba250>
     914:	19270b39 	stmdbne	r7!, {r0, r3, r4, r5, r8, r9, fp}
     918:	01111349 	tsteq	r1, r9, asr #6
     91c:	18400612 	stmdane	r0, {r1, r4, r9, sl}^
     920:	01194297 			; <UNDEFINED> instruction: 0x01194297
     924:	11000013 	tstne	r0, r3, lsl r0
     928:	193f002e 	ldmdbne	pc!, {r1, r2, r3, r5}	; <UNPREDICTABLE>
     92c:	0e6e193c 			; <UNDEFINED> instruction: 0x0e6e193c
     930:	0b3a0e03 	bleq	e84144 <__bss_end__+0xe7ad94>
     934:	0b390b3b 	bleq	e43628 <__bss_end__+0xe3a278>
     938:	01000000 	mrseq	r0, (UNDEF: 0)
     93c:	0e250111 	mcreq	1, 1, r0, cr5, cr1, {0}
     940:	0e030b13 	vmoveq.32	d3[0], r0
     944:	01110e1b 	tsteq	r1, fp, lsl lr
     948:	17100612 			; <UNDEFINED> instruction: 0x17100612
     94c:	24020000 	strcs	r0, [r2], #-0
     950:	3e0b0b00 	vmlacc.f64	d0, d11, d0
     954:	0008030b 	andeq	r0, r8, fp, lsl #6
     958:	00240300 	eoreq	r0, r4, r0, lsl #6
     95c:	0b3e0b0b 	bleq	f83590 <__bss_end__+0xf7a1e0>
     960:	00000e03 	andeq	r0, r0, r3, lsl #28
     964:	49003504 	stmdbmi	r0, {r2, r8, sl, ip, sp}
     968:	05000013 	streq	r0, [r0, #-19]	; 0xffffffed
     96c:	0e030016 	mcreq	0, 0, r0, cr3, cr6, {0}
     970:	0b3b0b3a 	bleq	ec3660 <__bss_end__+0xeba2b0>
     974:	13490b39 	movtne	r0, #39737	; 0x9b39
     978:	04060000 	streq	r0, [r6], #-0
     97c:	0b0b3e01 	bleq	2d0188 <__bss_end__+0x2c6dd8>
     980:	3a13490b 	bcc	4d2db4 <__bss_end__+0x4c9a04>
     984:	390b3b0b 	stmdbcc	fp, {r0, r1, r3, r8, r9, fp, ip, sp}
     988:	0013010b 	andseq	r0, r3, fp, lsl #2
     98c:	00280700 	eoreq	r0, r8, r0, lsl #14
     990:	0b1c0e03 	bleq	7041a4 <__bss_end__+0x6fadf4>
     994:	13080000 	movwne	r0, #32768	; 0x8000
     998:	0b0e0301 	bleq	3815a4 <__bss_end__+0x3781f4>
     99c:	3b0b3a0b 	blcc	2cf1d0 <__bss_end__+0x2c5e20>
     9a0:	010b390b 	tsteq	fp, fp, lsl #18
     9a4:	09000013 	stmdbeq	r0, {r0, r1, r4}
     9a8:	0803000d 	stmdaeq	r3, {r0, r2, r3}
     9ac:	0b3b0b3a 	bleq	ec369c <__bss_end__+0xeba2ec>
     9b0:	13490b39 	movtne	r0, #39737	; 0x9b39
     9b4:	00000b38 	andeq	r0, r0, r8, lsr fp
     9b8:	03000d0a 	movweq	r0, #3338	; 0xd0a
     9bc:	3b0b3a0e 	blcc	2cf1fc <__bss_end__+0x2c5e4c>
     9c0:	490b390b 	stmdbmi	fp, {r0, r1, r3, r8, fp, ip, sp}
     9c4:	000b3813 	andeq	r3, fp, r3, lsl r8
     9c8:	00340b00 	eorseq	r0, r4, r0, lsl #22
     9cc:	0b3a0e03 	bleq	e841e0 <__bss_end__+0xe7ae30>
     9d0:	0b390b3b 	bleq	e436c4 <__bss_end__+0xe3a314>
     9d4:	061c1349 	ldreq	r1, [ip], -r9, asr #6
     9d8:	0f0c0000 	svceq	0x000c0000
     9dc:	490b0b00 	stmdbmi	fp, {r8, r9, fp}
     9e0:	0d000013 	stceq	0, cr0, [r0, #-76]	; 0xffffffb4
     9e4:	13490026 	movtne	r0, #36902	; 0x9026
     9e8:	2e0e0000 	cdpcs	0, 0, cr0, cr14, cr0, {0}
     9ec:	03193f01 	tsteq	r9, #1, 30
     9f0:	3b0b3a0e 	blcc	2cf230 <__bss_end__+0x2c5e80>
     9f4:	270b390b 	strcs	r3, [fp, -fp, lsl #18]
     9f8:	12011119 	andne	r1, r1, #1073741830	; 0x40000006
     9fc:	97184006 	ldrls	r4, [r8, -r6]
     a00:	13011942 	movwne	r1, #6466	; 0x1942
     a04:	890f0000 	stmdbhi	pc, {}	; <UNPREDICTABLE>
     a08:	11000182 	smlabbne	r0, r2, r1, r0
     a0c:	00133101 	andseq	r3, r3, r1, lsl #2
     a10:	012e1000 			; <UNDEFINED> instruction: 0x012e1000
     a14:	0e03193f 			; <UNDEFINED> instruction: 0x0e03193f
     a18:	0b3b0b3a 	bleq	ec3708 <__bss_end__+0xeba358>
     a1c:	19270b39 	stmdbne	r7!, {r0, r3, r4, r5, r8, r9, fp}
     a20:	01111349 	tsteq	r1, r9, asr #6
     a24:	18400612 	stmdane	r0, {r1, r4, r9, sl}^
     a28:	01194297 			; <UNDEFINED> instruction: 0x01194297
     a2c:	11000013 	tstne	r0, r3, lsl r0
     a30:	01018289 	smlabbeq	r1, r9, r2, r8
     a34:	13310111 	teqne	r1, #1073741828	; 0x40000004
     a38:	8a120000 	bhi	480a40 <__bss_end__+0x477690>
     a3c:	02000182 	andeq	r0, r0, #-2147483616	; 0x80000020
     a40:	18429118 	stmdane	r2, {r3, r4, r8, ip, pc}^
     a44:	05130000 	ldreq	r0, [r3, #-0]
     a48:	3a080300 	bcc	201650 <__bss_end__+0x1f82a0>
     a4c:	390b3b0b 	stmdbcc	fp, {r0, r1, r3, r8, r9, fp, ip, sp}
     a50:	0213490b 	andseq	r4, r3, #180224	; 0x2c000
     a54:	1742b717 	smlaldne	fp, r2, r7, r7
     a58:	89140000 	ldmdbhi	r4, {}	; <UNPREDICTABLE>
     a5c:	11010182 	smlabbne	r1, r2, r1, r0
     a60:	01133101 	tsteq	r3, r1, lsl #2
     a64:	15000013 	strne	r0, [r0, #-19]	; 0xffffffed
     a68:	08030034 	stmdaeq	r3, {r2, r4, r5}
     a6c:	0b3b0b3a 	bleq	ec375c <__bss_end__+0xeba3ac>
     a70:	13490b39 	movtne	r0, #39737	; 0x9b39
     a74:	42b71702 	adcsmi	r1, r7, #524288	; 0x80000
     a78:	16000017 			; <UNDEFINED> instruction: 0x16000017
     a7c:	0e030034 	mcreq	0, 0, r0, cr3, cr4, {1}
     a80:	0b3b0b3a 	bleq	ec3770 <__bss_end__+0xeba3c0>
     a84:	13490b39 	movtne	r0, #39737	; 0x9b39
     a88:	0000051c 	andeq	r0, r0, ip, lsl r5
     a8c:	03012e17 	movweq	r2, #7703	; 0x1e17
     a90:	3b0b3a0e 	blcc	2cf2d0 <__bss_end__+0x2c5f20>
     a94:	270b390b 	strcs	r3, [fp, -fp, lsl #18]
     a98:	12011119 	andne	r1, r1, #1073741830	; 0x40000006
     a9c:	97184006 	ldrls	r4, [r8, -r6]
     aa0:	13011942 	movwne	r1, #6466	; 0x1942
     aa4:	05180000 	ldreq	r0, [r8, #-0]
     aa8:	3a0e0300 	bcc	3816b0 <__bss_end__+0x378300>
     aac:	390b3b0b 	stmdbcc	fp, {r0, r1, r3, r8, r9, fp, ip, sp}
     ab0:	0213490b 	andseq	r4, r3, #180224	; 0x2c000
     ab4:	1742b717 	smlaldne	fp, r2, r7, r7
     ab8:	35190000 	ldrcc	r0, [r9, #-0]
     abc:	1a000000 	bne	ac4 <LINK_ADDR-0x753c>
     ac0:	193f002e 	ldmdbne	pc!, {r1, r2, r3, r5}	; <UNPREDICTABLE>
     ac4:	0e6e193c 			; <UNDEFINED> instruction: 0x0e6e193c
     ac8:	0b3a0e03 	bleq	e842dc <__bss_end__+0xe7af2c>
     acc:	0b390b3b 	bleq	e437c0 <__bss_end__+0xe3a410>
     ad0:	01000000 	mrseq	r0, (UNDEF: 0)
     ad4:	0e250111 	mcreq	1, 1, r0, cr5, cr1, {0}
     ad8:	0e030b13 	vmoveq.32	d3[0], r0
     adc:	01110e1b 	tsteq	r1, fp, lsl lr
     ae0:	17100612 			; <UNDEFINED> instruction: 0x17100612
     ae4:	24020000 	strcs	r0, [r2], #-0
     ae8:	3e0b0b00 	vmlacc.f64	d0, d11, d0
     aec:	0008030b 	andeq	r0, r8, fp, lsl #6
     af0:	00240300 	eoreq	r0, r4, r0, lsl #6
     af4:	0b3e0b0b 	bleq	f83728 <__bss_end__+0xf7a378>
     af8:	00000e03 	andeq	r0, r0, r3, lsl #28
     afc:	27011504 	strcs	r1, [r1, -r4, lsl #10]
     b00:	01134919 	tsteq	r3, r9, lsl r9
     b04:	05000013 	streq	r0, [r0, #-19]	; 0xffffffed
     b08:	13490005 	movtne	r0, #36869	; 0x9005
     b0c:	34060000 	strcc	r0, [r6], #-0
     b10:	3a0e0300 	bcc	381718 <__bss_end__+0x378368>
     b14:	390b3b0b 	stmdbcc	fp, {r0, r1, r3, r8, r9, fp, ip, sp}
     b18:	3f13490b 	svccc	0x0013490b
     b1c:	00193c19 	andseq	r3, r9, r9, lsl ip
     b20:	000f0700 	andeq	r0, pc, r0, lsl #14
     b24:	13490b0b 	movtne	r0, #39691	; 0x9b0b
     b28:	26080000 	strcs	r0, [r8], -r0
     b2c:	00134900 	andseq	r4, r3, r0, lsl #18
     b30:	00340900 	eorseq	r0, r4, r0, lsl #18
     b34:	0b3a1347 	bleq	e85858 <__bss_end__+0xe7c4a8>
     b38:	0b390b3b 	bleq	e4382c <__bss_end__+0xe3a47c>
     b3c:	00001802 	andeq	r1, r0, r2, lsl #16
     b40:	3f012e0a 	svccc	0x00012e0a
     b44:	3a0e0319 	bcc	3817b0 <__bss_end__+0x378400>
     b48:	390b3b0b 	stmdbcc	fp, {r0, r1, r3, r8, r9, fp, ip, sp}
     b4c:	1119270b 	tstne	r9, fp, lsl #14
     b50:	40061201 	andmi	r1, r6, r1, lsl #4
     b54:	19429718 	stmdbne	r2, {r3, r4, r8, r9, sl, ip, pc}^
     b58:	00001301 	andeq	r1, r0, r1, lsl #6
     b5c:	0300050b 	movweq	r0, #1291	; 0x50b
     b60:	3b0b3a08 	blcc	2cf388 <__bss_end__+0x2c5fd8>
     b64:	490b390b 	stmdbmi	fp, {r0, r1, r3, r8, fp, ip, sp}
     b68:	00180213 	andseq	r0, r8, r3, lsl r2
     b6c:	002e0c00 	eoreq	r0, lr, r0, lsl #24
     b70:	0e03193f 			; <UNDEFINED> instruction: 0x0e03193f
     b74:	0b3b0b3a 	bleq	ec3864 <__bss_end__+0xeba4b4>
     b78:	19270b39 	stmdbne	r7!, {r0, r3, r4, r5, r8, r9, fp}
     b7c:	06120111 			; <UNDEFINED> instruction: 0x06120111
     b80:	42971840 	addsmi	r1, r7, #64, 16	; 0x400000
     b84:	0d000019 	stceq	0, cr0, [r0, #-100]	; 0xffffff9c
     b88:	0e03012e 	adfeqsp	f0, f3, #0.5
     b8c:	0b3b0b3a 	bleq	ec387c <__bss_end__+0xeba4cc>
     b90:	19270b39 	stmdbne	r7!, {r0, r3, r4, r5, r8, r9, fp}
     b94:	01111349 	tsteq	r1, r9, asr #6
     b98:	18400612 	stmdane	r0, {r1, r4, r9, sl}^
     b9c:	01194297 			; <UNDEFINED> instruction: 0x01194297
     ba0:	0e000013 	mcreq	0, 0, r0, cr0, cr3, {0}
     ba4:	08030005 	stmdaeq	r3, {r0, r2}
     ba8:	0b3b0b3a 	bleq	ec3898 <__bss_end__+0xeba4e8>
     bac:	13490b39 	movtne	r0, #39737	; 0x9b39
     bb0:	42b71702 	adcsmi	r1, r7, #524288	; 0x80000
     bb4:	0f000017 	svceq	0x00000017
     bb8:	01018289 	smlabbeq	r1, r9, r2, r8
     bbc:	13310111 	teqne	r1, #1073741828	; 0x40000004
     bc0:	8a100000 	bhi	400bc8 <__bss_end__+0x3f7818>
     bc4:	02000182 	andeq	r0, r0, #-2147483616	; 0x80000020
     bc8:	18429118 	stmdane	r2, {r3, r4, r8, ip, pc}^
     bcc:	2e110000 	cdpcs	0, 1, cr0, cr1, cr0, {0}
     bd0:	3c193f00 	ldccc	15, cr3, [r9], {-0}
     bd4:	030e6e19 	movweq	r6, #60953	; 0xee19
     bd8:	3b0b3a0e 	blcc	2cf418 <__bss_end__+0x2c6068>
     bdc:	000b390b 	andeq	r3, fp, fp, lsl #18
     be0:	11010000 	mrsne	r0, (UNDEF: 1)
     be4:	130e2501 	movwne	r2, #58625	; 0xe501
     be8:	1b0e030b 	blne	38181c <__bss_end__+0x37846c>
     bec:	1201110e 	andne	r1, r1, #-2147483645	; 0x80000003
     bf0:	00171006 	andseq	r1, r7, r6
     bf4:	00240200 	eoreq	r0, r4, r0, lsl #4
     bf8:	0b3e0b0b 	bleq	f8382c <__bss_end__+0xf7a47c>
     bfc:	00000803 	andeq	r0, r0, r3, lsl #16
     c00:	0b002403 	bleq	9c14 <__bss_end__+0x864>
     c04:	030b3e0b 	movweq	r3, #48651	; 0xbe0b
     c08:	0400000e 	streq	r0, [r0], #-14
     c0c:	19270115 	stmdbne	r7!, {r0, r2, r4, r8}
     c10:	13011349 	movwne	r1, #4937	; 0x1349
     c14:	05050000 	streq	r0, [r5, #-0]
     c18:	00134900 	andseq	r4, r3, r0, lsl #18
     c1c:	00340600 	eorseq	r0, r4, r0, lsl #12
     c20:	0b3a0e03 	bleq	e84434 <__bss_end__+0xe7b084>
     c24:	0b390b3b 	bleq	e43918 <__bss_end__+0xe3a568>
     c28:	193f1349 	ldmdbne	pc!, {r0, r3, r6, r8, r9, ip}	; <UNPREDICTABLE>
     c2c:	0000193c 	andeq	r1, r0, ip, lsr r9
     c30:	0b000f07 	bleq	4854 <LINK_ADDR-0x37ac>
     c34:	0013490b 	andseq	r4, r3, fp, lsl #18
     c38:	00260800 	eoreq	r0, r6, r0, lsl #16
     c3c:	00001349 	andeq	r1, r0, r9, asr #6
     c40:	3f012e09 	svccc	0x00012e09
     c44:	3a0e0319 	bcc	3818b0 <__bss_end__+0x378500>
     c48:	390b3b0b 	stmdbcc	fp, {r0, r1, r3, r8, r9, fp, ip, sp}
     c4c:	4919270b 	ldmdbmi	r9, {r0, r1, r3, r8, r9, sl, sp}
     c50:	12011113 	andne	r1, r1, #-1073741820	; 0xc0000004
     c54:	97184006 	ldrls	r4, [r8, -r6]
     c58:	13011942 	movwne	r1, #6466	; 0x1942
     c5c:	050a0000 	streq	r0, [sl, #-0]
     c60:	3a0e0300 	bcc	381868 <__bss_end__+0x3784b8>
     c64:	390b3b0b 	stmdbcc	fp, {r0, r1, r3, r8, r9, fp, ip, sp}
     c68:	0213490b 	andseq	r4, r3, #180224	; 0x2c000
     c6c:	0b000018 	bleq	cd4 <LINK_ADDR-0x732c>
     c70:	08030005 	stmdaeq	r3, {r0, r2}
     c74:	0b3b0b3a 	bleq	ec3964 <__bss_end__+0xeba5b4>
     c78:	13490b39 	movtne	r0, #39737	; 0x9b39
     c7c:	42b71702 	adcsmi	r1, r7, #524288	; 0x80000
     c80:	0c000017 	stceq	0, cr0, [r0], {23}
     c84:	08030034 	stmdaeq	r3, {r2, r4, r5}
     c88:	0b3b0b3a 	bleq	ec3978 <__bss_end__+0xeba5c8>
     c8c:	13490b39 	movtne	r0, #39737	; 0x9b39
     c90:	42b71702 	adcsmi	r1, r7, #524288	; 0x80000
     c94:	00000017 	andeq	r0, r0, r7, lsl r0
     c98:	25011101 	strcs	r1, [r1, #-257]	; 0xfffffeff
     c9c:	030b130e 	movweq	r1, #45838	; 0xb30e
     ca0:	110e1b0e 	tstne	lr, lr, lsl #22
     ca4:	10061201 	andne	r1, r6, r1, lsl #4
     ca8:	02000017 	andeq	r0, r0, #23, 0
     cac:	0b0b0024 	bleq	2c0d44 <__bss_end__+0x2b7994>
     cb0:	08030b3e 	stmdaeq	r3, {r1, r2, r3, r4, r5, r8, r9, fp}
     cb4:	24030000 	strcs	r0, [r3], #-0
     cb8:	3e0b0b00 	vmlacc.f64	d0, d11, d0
     cbc:	000e030b 	andeq	r0, lr, fp, lsl #6
     cc0:	01150400 	tsteq	r5, r0, lsl #8
     cc4:	13491927 	movtne	r1, #39207	; 0x9927
     cc8:	00001301 	andeq	r1, r0, r1, lsl #6
     ccc:	49000505 	stmdbmi	r0, {r0, r2, r8, sl}
     cd0:	06000013 			; <UNDEFINED> instruction: 0x06000013
     cd4:	0e030034 	mcreq	0, 0, r0, cr3, cr4, {1}
     cd8:	0b3b0b3a 	bleq	ec39c8 <__bss_end__+0xeba618>
     cdc:	13490b39 	movtne	r0, #39737	; 0x9b39
     ce0:	193c193f 	ldmdbne	ip!, {r0, r1, r2, r3, r4, r5, r8, fp, ip}
     ce4:	0f070000 	svceq	0x00070000
     ce8:	490b0b00 	stmdbmi	fp, {r8, r9, fp}
     cec:	08000013 	stmdaeq	r0, {r0, r1, r4}
     cf0:	13490026 	movtne	r0, #36902	; 0x9026
     cf4:	2e090000 	cdpcs	0, 0, cr0, cr9, cr0, {0}
     cf8:	03193f01 	tsteq	r9, #1, 30
     cfc:	3b0b3a0e 	blcc	2cf53c <__bss_end__+0x2c618c>
     d00:	270b390b 	strcs	r3, [fp, -fp, lsl #18]
     d04:	11134919 	tstne	r3, r9, lsl r9
     d08:	40061201 	andmi	r1, r6, r1, lsl #4
     d0c:	19429718 	stmdbne	r2, {r3, r4, r8, r9, sl, ip, pc}^
     d10:	050a0000 	streq	r0, [sl, #-0]
     d14:	3a080300 	bcc	20191c <__bss_end__+0x1f856c>
     d18:	390b3b0b 	stmdbcc	fp, {r0, r1, r3, r8, r9, fp, ip, sp}
     d1c:	0213490b 	andseq	r4, r3, #180224	; 0x2c000
     d20:	1742b717 	smlaldne	fp, r2, r7, r7
     d24:	01000000 	mrseq	r0, (UNDEF: 0)
     d28:	0e250111 	mcreq	1, 1, r0, cr5, cr1, {0}
     d2c:	0e030b13 	vmoveq.32	d3[0], r0
     d30:	01110e1b 	tsteq	r1, fp, lsl lr
     d34:	17100612 			; <UNDEFINED> instruction: 0x17100612
     d38:	24020000 	strcs	r0, [r2], #-0
     d3c:	3e0b0b00 	vmlacc.f64	d0, d11, d0
     d40:	0008030b 	andeq	r0, r8, fp, lsl #6
     d44:	00240300 	eoreq	r0, r4, r0, lsl #6
     d48:	0b3e0b0b 	bleq	f8397c <__bss_end__+0xf7a5cc>
     d4c:	00000e03 	andeq	r0, r0, r3, lsl #28
     d50:	27011504 	strcs	r1, [r1, -r4, lsl #10]
     d54:	01134919 	tsteq	r3, r9, lsl r9
     d58:	05000013 	streq	r0, [r0, #-19]	; 0xffffffed
     d5c:	13490005 	movtne	r0, #36869	; 0x9005
     d60:	34060000 	strcc	r0, [r6], #-0
     d64:	3a0e0300 	bcc	38196c <__bss_end__+0x3785bc>
     d68:	390b3b0b 	stmdbcc	fp, {r0, r1, r3, r8, r9, fp, ip, sp}
     d6c:	3f13490b 	svccc	0x0013490b
     d70:	00193c19 	andseq	r3, r9, r9, lsl ip
     d74:	000f0700 	andeq	r0, pc, r0, lsl #14
     d78:	13490b0b 	movtne	r0, #39691	; 0x9b0b
     d7c:	26080000 	strcs	r0, [r8], -r0
     d80:	00134900 	andseq	r4, r3, r0, lsl #18
     d84:	012e0900 			; <UNDEFINED> instruction: 0x012e0900
     d88:	0e03193f 			; <UNDEFINED> instruction: 0x0e03193f
     d8c:	0b3b0b3a 	bleq	ec3a7c <__bss_end__+0xeba6cc>
     d90:	19270b39 	stmdbne	r7!, {r0, r3, r4, r5, r8, r9, fp}
     d94:	01111349 	tsteq	r1, r9, asr #6
     d98:	18400612 	stmdane	r0, {r1, r4, r9, sl}^
     d9c:	01194297 			; <UNDEFINED> instruction: 0x01194297
     da0:	0a000013 	beq	df4 <LINK_ADDR-0x720c>
     da4:	08030005 	stmdaeq	r3, {r0, r2}
     da8:	0b3b0b3a 	bleq	ec3a98 <__bss_end__+0xeba6e8>
     dac:	13490b39 	movtne	r0, #39737	; 0x9b39
     db0:	00001802 	andeq	r1, r0, r2, lsl #16
     db4:	0300050b 	movweq	r0, #1291	; 0x50b
     db8:	3b0b3a08 	blcc	2cf5e0 <__bss_end__+0x2c6230>
     dbc:	490b390b 	stmdbmi	fp, {r0, r1, r3, r8, fp, ip, sp}
     dc0:	b7170213 			; <UNDEFINED> instruction: 0xb7170213
     dc4:	00001742 	andeq	r1, r0, r2, asr #14
     dc8:	0300340c 	movweq	r3, #1036	; 0x40c
     dcc:	3b0b3a08 	blcc	2cf5f4 <__bss_end__+0x2c6244>
     dd0:	490b390b 	stmdbmi	fp, {r0, r1, r3, r8, fp, ip, sp}
     dd4:	b7170213 			; <UNDEFINED> instruction: 0xb7170213
     dd8:	00001742 	andeq	r1, r0, r2, asr #14
     ddc:	01110100 	tsteq	r1, r0, lsl #2
     de0:	0b130e25 	bleq	4c467c <__bss_end__+0x4bb2cc>
     de4:	0e1b0e03 	cdpeq	14, 1, cr0, cr11, cr3, {0}
     de8:	01111755 	tsteq	r1, r5, asr r7
     dec:	00001710 	andeq	r1, r0, r0, lsl r7
     df0:	0b002402 	bleq	9e00 <__bss_end__+0xa50>
     df4:	030b3e0b 	movweq	r3, #48651	; 0xbe0b
     df8:	03000008 	movweq	r0, #8
     dfc:	0e030016 	mcreq	0, 0, r0, cr3, cr6, {0}
     e00:	0b3b0b3a 	bleq	ec3af0 <__bss_end__+0xeba740>
     e04:	13490b39 	movtne	r0, #39737	; 0x9b39
     e08:	24040000 	strcs	r0, [r4], #-0
     e0c:	3e0b0b00 	vmlacc.f64	d0, d11, d0
     e10:	000e030b 	andeq	r0, lr, fp, lsl #6
     e14:	00260500 	eoreq	r0, r6, r0, lsl #10
     e18:	00001349 	andeq	r1, r0, r9, asr #6
     e1c:	27011506 	strcs	r1, [r1, -r6, lsl #10]
     e20:	01134919 	tsteq	r3, r9, lsl r9
     e24:	07000013 	smladeq	r0, r3, r0, r0
     e28:	13490005 	movtne	r0, #36869	; 0x9005
     e2c:	34080000 	strcc	r0, [r8], #-0
     e30:	3a0e0300 	bcc	381a38 <__bss_end__+0x378688>
     e34:	390b3b0b 	stmdbcc	fp, {r0, r1, r3, r8, r9, fp, ip, sp}
     e38:	3f13490b 	svccc	0x0013490b
     e3c:	00193c19 	andseq	r3, r9, r9, lsl ip
     e40:	000f0900 	andeq	r0, pc, r0, lsl #18
     e44:	13490b0b 	movtne	r0, #39691	; 0x9b0b
     e48:	2e0a0000 	cdpcs	0, 0, cr0, cr10, cr0, {0}
     e4c:	03193f01 	tsteq	r9, #1, 30
     e50:	3b0b3a0e 	blcc	2cf690 <__bss_end__+0x2c62e0>
     e54:	270b390b 	strcs	r3, [fp, -fp, lsl #18]
     e58:	11134919 	tstne	r3, r9, lsl r9
     e5c:	40061201 	andmi	r1, r6, r1, lsl #4
     e60:	19429718 	stmdbne	r2, {r3, r4, r8, r9, sl, ip, pc}^
     e64:	00001301 	andeq	r1, r0, r1, lsl #6
     e68:	0300050b 	movweq	r0, #1291	; 0x50b
     e6c:	3b0b3a08 	blcc	2cf694 <__bss_end__+0x2c62e4>
     e70:	490b390b 	stmdbmi	fp, {r0, r1, r3, r8, fp, ip, sp}
     e74:	b7170213 			; <UNDEFINED> instruction: 0xb7170213
     e78:	00001742 	andeq	r1, r0, r2, asr #14
     e7c:	0300340c 	movweq	r3, #1036	; 0x40c
     e80:	3b0b3a08 	blcc	2cf6a8 <__bss_end__+0x2c62f8>
     e84:	490b390b 	stmdbmi	fp, {r0, r1, r3, r8, fp, ip, sp}
     e88:	b7170213 			; <UNDEFINED> instruction: 0xb7170213
     e8c:	00001742 	andeq	r1, r0, r2, asr #14
     e90:	01110100 	tsteq	r1, r0, lsl #2
     e94:	0b130e25 	bleq	4c4730 <__bss_end__+0x4bb380>
     e98:	0e1b0e03 	cdpeq	14, 1, cr0, cr11, cr3, {0}
     e9c:	06120111 			; <UNDEFINED> instruction: 0x06120111
     ea0:	00001710 	andeq	r1, r0, r0, lsl r7
     ea4:	0b002402 	bleq	9eb4 <__bss_end__+0xb04>
     ea8:	030b3e0b 	movweq	r3, #48651	; 0xbe0b
     eac:	03000008 	movweq	r0, #8
     eb0:	0b0b0024 	bleq	2c0f48 <__bss_end__+0x2b7b98>
     eb4:	0e030b3e 	vmoveq.16	d3[0], r0
     eb8:	15040000 	strne	r0, [r4, #-0]
     ebc:	49192701 	ldmdbmi	r9, {r0, r8, r9, sl, sp}
     ec0:	00130113 	andseq	r0, r3, r3, lsl r1
     ec4:	00050500 	andeq	r0, r5, r0, lsl #10
     ec8:	00001349 	andeq	r1, r0, r9, asr #6
     ecc:	03003406 	movweq	r3, #1030	; 0x406
     ed0:	3b0b3a0e 	blcc	2cf710 <__bss_end__+0x2c6360>
     ed4:	490b390b 	stmdbmi	fp, {r0, r1, r3, r8, fp, ip, sp}
     ed8:	3c193f13 	ldccc	15, cr3, [r9], {19}
     edc:	07000019 	smladeq	r0, r9, r0, r0
     ee0:	0b0b000f 	bleq	2c0f24 <__bss_end__+0x2b7b74>
     ee4:	00001349 	andeq	r1, r0, r9, asr #6
     ee8:	49002608 	stmdbmi	r0, {r3, r9, sl, sp}
     eec:	09000013 	stmdbeq	r0, {r0, r1, r4}
     ef0:	193f002e 	ldmdbne	pc!, {r1, r2, r3, r5}	; <UNPREDICTABLE>
     ef4:	0b3a0e03 	bleq	e84708 <__bss_end__+0xe7b358>
     ef8:	0b390b3b 	bleq	e43bec <__bss_end__+0xe3a83c>
     efc:	01111927 	tsteq	r1, r7, lsr #18
     f00:	18400612 	stmdane	r0, {r1, r4, r9, sl}^
     f04:	00194297 	mulseq	r9, r7, r2
     f08:	11010000 	mrsne	r0, (UNDEF: 1)
     f0c:	130e2501 	movwne	r2, #58625	; 0xe501
     f10:	1b0e030b 	blne	381b44 <__bss_end__+0x378794>
     f14:	1201110e 	andne	r1, r1, #-2147483645	; 0x80000003
     f18:	00171006 	andseq	r1, r7, r6
     f1c:	00240200 	eoreq	r0, r4, r0, lsl #4
     f20:	0b3e0b0b 	bleq	f83b54 <__bss_end__+0xf7a7a4>
     f24:	00000803 	andeq	r0, r0, r3, lsl #16
     f28:	0b002403 	bleq	9f3c <__bss_end__+0xb8c>
     f2c:	030b3e0b 	movweq	r3, #48651	; 0xbe0b
     f30:	0400000e 	streq	r0, [r0], #-14
     f34:	13490026 	movtne	r0, #36902	; 0x9026
     f38:	16050000 	strne	r0, [r5], -r0
     f3c:	3a0e0300 	bcc	381b44 <__bss_end__+0x378794>
     f40:	390b3b0b 	stmdbcc	fp, {r0, r1, r3, r8, r9, fp, ip, sp}
     f44:	0013490b 	andseq	r4, r3, fp, lsl #18
     f48:	01040600 	tsteq	r4, r0, lsl #12
     f4c:	0b0b0b3e 	bleq	2c3c4c <__bss_end__+0x2ba89c>
     f50:	0b3a1349 	bleq	e85c7c <__bss_end__+0xe7c8cc>
     f54:	0b390b3b 	bleq	e43c48 <__bss_end__+0xe3a898>
     f58:	00001301 	andeq	r1, r0, r1, lsl #6
     f5c:	03002807 	movweq	r2, #2055	; 0x807
     f60:	000b1c0e 	andeq	r1, fp, lr, lsl #24
     f64:	00340800 	eorseq	r0, r4, r0, lsl #16
     f68:	0b3a0e03 	bleq	e8477c <__bss_end__+0xe7b3cc>
     f6c:	0b390b3b 	bleq	e43c60 <__bss_end__+0xe3a8b0>
     f70:	061c1349 	ldreq	r1, [ip], -r9, asr #6
     f74:	2e090000 	cdpcs	0, 0, cr0, cr9, cr0, {0}
     f78:	03193f01 	tsteq	r9, #1, 30
     f7c:	3b0b3a0e 	blcc	2cf7bc <__bss_end__+0x2c640c>
     f80:	270b390b 	strcs	r3, [fp, -fp, lsl #18]
     f84:	11134919 	tstne	r3, r9, lsl r9
     f88:	40061201 	andmi	r1, r6, r1, lsl #4
     f8c:	19429718 	stmdbne	r2, {r3, r4, r8, r9, sl, ip, pc}^
     f90:	00001301 	andeq	r1, r0, r1, lsl #6
     f94:	0300050a 	movweq	r0, #1290	; 0x50a
     f98:	3b0b3a08 	blcc	2cf7c0 <__bss_end__+0x2c6410>
     f9c:	490b390b 	stmdbmi	fp, {r0, r1, r3, r8, fp, ip, sp}
     fa0:	b7170213 			; <UNDEFINED> instruction: 0xb7170213
     fa4:	00001742 	andeq	r1, r0, r2, asr #14
     fa8:	0300340b 	movweq	r3, #1035	; 0x40b
     fac:	3b0b3a0e 	blcc	2cf7ec <__bss_end__+0x2c643c>
     fb0:	490b390b 	stmdbmi	fp, {r0, r1, r3, r8, fp, ip, sp}
     fb4:	b7170213 			; <UNDEFINED> instruction: 0xb7170213
     fb8:	00001742 	andeq	r1, r0, r2, asr #14
     fbc:	0300340c 	movweq	r3, #1036	; 0x40c
     fc0:	3b0b3a08 	blcc	2cf7e8 <__bss_end__+0x2c6438>
     fc4:	490b390b 	stmdbmi	fp, {r0, r1, r3, r8, fp, ip, sp}
     fc8:	b7170213 			; <UNDEFINED> instruction: 0xb7170213
     fcc:	00001742 	andeq	r1, r0, r2, asr #14
     fd0:	0182890d 	orreq	r8, r2, sp, lsl #18
     fd4:	31011101 	tstcc	r1, r1, lsl #2
     fd8:	0e000013 	mcreq	0, 0, r0, cr0, cr3, {0}
     fdc:	0001828a 	andeq	r8, r1, sl, lsl #5
     fe0:	42911802 	addsmi	r1, r1, #131072	; 0x20000
     fe4:	0f000018 	svceq	0x00000018
     fe8:	193f012e 	ldmdbne	pc!, {r1, r2, r3, r5, r8}	; <UNPREDICTABLE>
     fec:	0b3a0e03 	bleq	e84800 <__bss_end__+0xe7b450>
     ff0:	0b390b3b 	bleq	e43ce4 <__bss_end__+0xe3a934>
     ff4:	01111927 	tsteq	r1, r7, lsr #18
     ff8:	18400612 	stmdane	r0, {r1, r4, r9, sl}^
     ffc:	01194297 			; <UNDEFINED> instruction: 0x01194297
    1000:	10000013 	andne	r0, r0, r3, lsl r0
    1004:	01018289 	smlabbeq	r1, r9, r2, r8
    1008:	13310111 	teqne	r1, #1073741828	; 0x40000004
    100c:	00001301 	andeq	r1, r0, r1, lsl #6
    1010:	01828911 	orreq	r8, r2, r1, lsl r9
    1014:	31011100 	mrscc	r1, (UNDEF: 17)
    1018:	12000013 	andne	r0, r0, #19, 0
    101c:	0e030005 	cdpeq	0, 0, cr0, cr3, cr5, {0}
    1020:	0b3b0b3a 	bleq	ec3d10 <__bss_end__+0xeba960>
    1024:	13490b39 	movtne	r0, #39737	; 0x9b39
    1028:	42b71702 	adcsmi	r1, r7, #524288	; 0x80000
    102c:	13000017 	movwne	r0, #23
    1030:	0e03012e 	adfeqsp	f0, f3, #0.5
    1034:	0b3b0b3a 	bleq	ec3d24 <__bss_end__+0xeba974>
    1038:	19270b39 	stmdbne	r7!, {r0, r3, r4, r5, r8, r9, fp}
    103c:	0b201349 	bleq	805d68 <__bss_end__+0x7fc9b8>
    1040:	00001301 	andeq	r1, r0, r1, lsl #6
    1044:	03000514 	movweq	r0, #1300	; 0x514
    1048:	3b0b3a08 	blcc	2cf870 <__bss_end__+0x2c64c0>
    104c:	490b390b 	stmdbmi	fp, {r0, r1, r3, r8, fp, ip, sp}
    1050:	15000013 	strne	r0, [r0, #-19]	; 0xffffffed
    1054:	193f002e 	ldmdbne	pc!, {r1, r2, r3, r5}	; <UNPREDICTABLE>
    1058:	0e6e193c 			; <UNDEFINED> instruction: 0x0e6e193c
    105c:	0b3a0e03 	bleq	e84870 <__bss_end__+0xe7b4c0>
    1060:	0b390b3b 	bleq	e43d54 <__bss_end__+0xe3a9a4>
    1064:	Address 0x0000000000001064 is out of bounds.


Disassembly of section .debug_loc:

00000000 <.debug_loc>:
   0:	000c0000 	andeq	r0, ip, r0
   4:	00400000 	subeq	r0, r0, r0
   8:	00010000 	andeq	r0, r1, r0
   c:	00000054 	andeq	r0, r0, r4, asr r0
	...
  18:	2c000000 	stccs	0, cr0, [r0], {-0}
  1c:	38000000 	stmdacc	r0, {}	; <UNPREDICTABLE>
  20:	01000000 	mrseq	r0, (UNDEF: 0)
  24:	00385000 	eorseq	r5, r8, r0
  28:	00480000 	subeq	r0, r8, r0
  2c:	00010000 	andeq	r0, r1, r0
  30:	00004854 	andeq	r4, r0, r4, asr r8
  34:	00005800 	andeq	r5, r0, r0, lsl #16
  38:	50000100 	andpl	r0, r0, r0, lsl #2
	...
  44:	00010100 	andeq	r0, r1, r0, lsl #2
  48:	00000000 	andeq	r0, r0, r0
  4c:	00000008 	andeq	r0, r0, r8
  50:	08500001 	ldmdaeq	r0, {r0}^
  54:	34000000 	strcc	r0, [r0], #-0
  58:	01000000 	mrseq	r0, (UNDEF: 0)
  5c:	00005400 	andeq	r5, r0, r0, lsl #8
	...
  6c:	00000288 	andeq	r0, r0, r8, lsl #5
  70:	000002b8 			; <UNDEFINED> instruction: 0x000002b8
  74:	b8500001 	ldmdalt	r0, {r0}^
  78:	04000002 	streq	r0, [r0], #-2
  7c:	01000007 	tsteq	r0, r7
  80:	07045900 	streq	r5, [r4, -r0, lsl #18]
  84:	07400000 	strbeq	r0, [r0, -r0]
  88:	00040000 	andeq	r0, r4, r0
  8c:	9f5001f3 	svcls	0x005001f3
	...
  9c:	02880000 	addeq	r0, r8, #0, 0
  a0:	02a00000 	adceq	r0, r0, #0, 0
  a4:	00010000 	andeq	r0, r1, r0
  a8:	0002a051 	andeq	sl, r2, r1, asr r0
  ac:	0002b800 	andeq	fp, r2, r0, lsl #16
  b0:	71000300 	mrsvc	r0, LR_irq
  b4:	02b89f01 	adcseq	r9, r8, #1, 30
  b8:	07400000 	strbeq	r0, [r0, -r0]
  bc:	00040000 	andeq	r0, r4, r0
  c0:	9f5101f3 	svcls	0x005101f3
	...
  d8:	00000288 	andeq	r0, r0, r8, lsl #5
  dc:	000002b8 			; <UNDEFINED> instruction: 0x000002b8
  e0:	b8520001 	ldmdalt	r2, {r0}^
  e4:	ec000002 	stc	0, cr0, [r0], {2}
  e8:	01000003 	tsteq	r0, r3
  ec:	03ec5600 	mvneq	r5, #0, 12
  f0:	04b80000 	ldrteq	r0, [r8], #0
  f4:	00010000 	andeq	r0, r1, r0
  f8:	0004b85b 	andeq	fp, r4, fp, asr r8
  fc:	0004d800 	andeq	sp, r4, r0, lsl #16
 100:	56000100 	strpl	r0, [r0], -r0, lsl #2
 104:	000004d8 	ldrdeq	r0, [r0], -r8
 108:	0000055c 	andeq	r0, r0, ip, asr r5
 10c:	5c5b0001 	mrrcpl	0, 0, r0, fp, cr1
 110:	04000005 	streq	r0, [r0], #-5
 114:	01000007 	tsteq	r0, r7
 118:	00005600 	andeq	r5, r0, r0, lsl #12
 11c:	00000000 	andeq	r0, r0, r0
 120:	00010000 	andeq	r0, r1, r0
 124:	00000000 	andeq	r0, r0, r0
 128:	00010100 	andeq	r0, r1, r0, lsl #2
 12c:	00000000 	andeq	r0, r0, r0
 130:	00020200 	andeq	r0, r2, r0, lsl #4
 134:	029c0000 	addseq	r0, ip, #0, 0
 138:	02b80000 	adcseq	r0, r8, #0, 0
 13c:	00010000 	andeq	r0, r1, r0
 140:	0002b850 	andeq	fp, r2, r0, asr r8
 144:	0002bc00 	andeq	fp, r2, r0, lsl #24
 148:	54000100 	strpl	r0, [r0], #-256	; 0xffffff00
 14c:	000002bc 			; <UNDEFINED> instruction: 0x000002bc
 150:	000002c0 	andeq	r0, r0, r0, asr #5
 154:	01740003 	cmneq	r4, r3
 158:	0002c09f 	muleq	r2, pc, r0	; <UNPREDICTABLE>
 15c:	0002e400 	andeq	lr, r2, r0, lsl #8
 160:	54000100 	strpl	r0, [r0], #-256	; 0xffffff00
 164:	000002e4 	andeq	r0, r0, r4, ror #5
 168:	000002e8 	andeq	r0, r0, r8, ror #5
 16c:	01740003 	cmneq	r4, r3
 170:	0002e89f 	muleq	r2, pc, r8	; <UNPREDICTABLE>
 174:	0006d400 	andeq	sp, r6, r0, lsl #8
 178:	54000100 	strpl	r0, [r0], #-256	; 0xffffff00
 17c:	000006d4 	ldrdeq	r0, [r0], -r4
 180:	000006d8 	ldrdeq	r0, [r0], -r8
 184:	01740003 	cmneq	r4, r3
 188:	0006d89f 	muleq	r6, pc, r8	; <UNPREDICTABLE>
 18c:	0006f000 	andeq	pc, r6, r0
 190:	54000100 	strpl	r0, [r0], #-256	; 0xffffff00
 194:	000006f0 	strdeq	r0, [r0], -r0	; <UNPREDICTABLE>
 198:	000006f8 	strdeq	r0, [r0], -r8
 19c:	01740003 	cmneq	r4, r3
 1a0:	0006f89f 	muleq	r6, pc, r8	; <UNPREDICTABLE>
 1a4:	00070400 	andeq	r0, r7, r0, lsl #8
 1a8:	54000100 	strpl	r0, [r0], #-256	; 0xffffff00
	...
 1b8:	000002a4 	andeq	r0, r0, r4, lsr #5
 1bc:	00000704 	andeq	r0, r0, r4, lsl #14
 1c0:	04580001 	ldrbeq	r0, [r8], #-1
 1c4:	40000007 	andmi	r0, r0, r7
 1c8:	0a000007 	beq	1ec <LINK_ADDR-0x7e14>
 1cc:	5101f300 	mrspl	pc, SP_irq	; <UNPREDICTABLE>
 1d0:	225001f3 	subscs	r0, r0, #-1073741764	; 0xc000003c
 1d4:	009f1c31 	addseq	r1, pc, r1, lsr ip	; <UNPREDICTABLE>
 1d8:	00000000 	andeq	r0, r0, r0
 1dc:	01000000 	mrseq	r0, (UNDEF: 0)
 1e0:	00000000 	andeq	r0, r0, r0
 1e4:	00040800 	andeq	r0, r4, r0, lsl #16
 1e8:	00047400 	andeq	r7, r4, r0, lsl #8
 1ec:	57000100 	strpl	r0, [r0, -r0, lsl #2]
 1f0:	000004d8 	ldrdeq	r0, [r0], -r8
 1f4:	000004fc 	strdeq	r0, [r0], -ip
 1f8:	40570001 	subsmi	r0, r7, r1
 1fc:	5c000005 	stcpl	0, cr0, [r0], {5}
 200:	01000005 	tsteq	r0, r5
 204:	00005700 	andeq	r5, r0, r0, lsl #14
 208:	00000000 	andeq	r0, r0, r0
 20c:	00020000 	andeq	r0, r2, r0
 210:	04080000 	streq	r0, [r8], #-0
 214:	04b80000 	ldrteq	r0, [r8], #0
 218:	00010000 	andeq	r0, r1, r0
 21c:	0004d85a 	andeq	sp, r4, sl, asr r8
 220:	00055c00 	andeq	r5, r5, r0, lsl #24
 224:	5a000100 	bpl	62c <LINK_ADDR-0x79d4>
	...
 230:	00000001 	andeq	r0, r0, r1
 234:	000002ac 	andeq	r0, r0, ip, lsr #5
 238:	000002b8 			; <UNDEFINED> instruction: 0x000002b8
 23c:	b8520001 	ldmdalt	r2, {r0}^
 240:	40000002 	andmi	r0, r0, r2
 244:	03000007 	movweq	r0, #7
 248:	7dc89100 	stfvcp	f1, [r8]
	...
 25c:	00010100 	andeq	r0, r1, r0, lsl #2
	...
 268:	04740000 	ldrbteq	r0, [r4], #-0
 26c:	048c0000 	streq	r0, [ip], #0
 270:	00010000 	andeq	r0, r1, r0
 274:	00048c50 	andeq	r8, r4, r0, asr ip
 278:	0004b800 	andeq	fp, r4, r0, lsl #16
 27c:	57000100 	strpl	r0, [r0, -r0, lsl #2]
 280:	000004fc 	strdeq	r0, [r0], -ip
 284:	00000514 	andeq	r0, r0, r4, lsl r5
 288:	14500001 	ldrbne	r0, [r0], #-1
 28c:	40000005 	andmi	r0, r0, r5
 290:	01000005 	tsteq	r0, r5
 294:	05a45700 	streq	r5, [r4, #1792]!	; 0x700
 298:	05a40000 	streq	r0, [r4, #0]!
 29c:	00010000 	andeq	r0, r1, r0
 2a0:	0005a450 	andeq	sl, r5, r0, asr r4
 2a4:	0005ac00 	andeq	sl, r5, r0, lsl #24
 2a8:	57000100 	strpl	r0, [r0, -r0, lsl #2]
 2ac:	000005dc 	ldrdeq	r0, [r0], -ip
 2b0:	000005e0 	andeq	r0, r0, r0, ror #11
 2b4:	10500001 	subsne	r0, r0, r1
 2b8:	14000006 	strne	r0, [r0], #-6
 2bc:	01000006 	tsteq	r0, r6
 2c0:	06445000 	strbeq	r5, [r4], -r0
 2c4:	06480000 	strbeq	r0, [r8], -r0
 2c8:	00010000 	andeq	r0, r1, r0
 2cc:	00068c50 	andeq	r8, r6, r0, asr ip
 2d0:	00069000 	andeq	r9, r6, r0
 2d4:	50000100 	andpl	r0, r0, r0, lsl #2
 2d8:	000006d0 	ldrdeq	r0, [r0], -r0	; <UNPREDICTABLE>
 2dc:	000006f0 	strdeq	r0, [r0], -r0	; <UNPREDICTABLE>
 2e0:	00570001 	subseq	r0, r7, r1
 2e4:	00000000 	andeq	r0, r0, r0
 2e8:	02000000 	andeq	r0, r0, #0, 0
 2ec:	00000000 	andeq	r0, r0, r0
 2f0:	0002f400 	andeq	pc, r2, r0, lsl #8
 2f4:	0002f800 	andeq	pc, r2, r0, lsl #16
 2f8:	30000200 	andcc	r0, r0, r0, lsl #4
 2fc:	0002f89f 	muleq	r2, pc, r8	; <UNPREDICTABLE>
 300:	00031400 	andeq	r1, r3, r0, lsl #8
 304:	55000100 	strpl	r0, [r0, #-256]	; 0xffffff00
 308:	0000031c 	andeq	r0, r0, ip, lsl r3
 30c:	000006f0 	strdeq	r0, [r0], -r0	; <UNPREDICTABLE>
 310:	00550001 	subseq	r0, r5, r1
 314:	00000000 	andeq	r0, r0, r0
 318:	01000000 	mrseq	r0, (UNDEF: 0)
	...
 324:	0003b800 	andeq	fp, r3, r0, lsl #16
 328:	00045400 	andeq	r5, r4, r0, lsl #8
 32c:	56000100 	strpl	r0, [r0], -r0, lsl #2
 330:	00000454 	andeq	r0, r0, r4, asr r4
 334:	000004b8 			; <UNDEFINED> instruction: 0x000004b8
 338:	7e7b0003 	cdpvc	0, 7, cr0, cr11, cr3, {0}
 33c:	0004b89f 	muleq	r4, pc, r8	; <UNPREDICTABLE>
 340:	0004dc00 	andeq	sp, r4, r0, lsl #24
 344:	56000100 	strpl	r0, [r0], -r0, lsl #2
 348:	000004dc 	ldrdeq	r0, [r0], -ip
 34c:	00000540 	andeq	r0, r0, r0, asr #10
 350:	7e7b0003 	cdpvc	0, 7, cr0, cr11, cr3, {0}
 354:	0005409f 	muleq	r5, pc, r0	; <UNPREDICTABLE>
 358:	00055c00 	andeq	r5, r5, r0, lsl #24
 35c:	56000100 	strpl	r0, [r0], -r0, lsl #2
	...
 36c:	00700000 	rsbseq	r0, r0, r0
 370:	00940000 	addseq	r0, r4, r0
 374:	00010000 	andeq	r0, r1, r0
 378:	00009450 	andeq	r9, r0, r0, asr r4
 37c:	0000fc00 	andeq	pc, r0, r0, lsl #24
 380:	70000300 	andvc	r0, r0, r0, lsl #6
 384:	00fc9f02 	rscseq	r9, ip, r2, lsl #30
 388:	02240000 	eoreq	r0, r4, #0, 0
 38c:	00040000 	andeq	r0, r4, r0
 390:	9f5001f3 	svcls	0x005001f3
	...
 3ac:	00000070 	andeq	r0, r0, r0, ror r0
 3b0:	000000e0 	andeq	r0, r0, r0, ror #1
 3b4:	e0510001 	subs	r0, r1, r1
 3b8:	54000000 	strpl	r0, [r0], #-0
 3bc:	01000001 	tsteq	r0, r1
 3c0:	01545500 	cmpeq	r4, r0, lsl #10
 3c4:	01580000 	cmpeq	r8, r0
 3c8:	00010000 	andeq	r0, r1, r0
 3cc:	00015851 	andeq	r5, r1, r1, asr r8
 3d0:	0001b000 	andeq	fp, r1, r0
 3d4:	55000100 	strpl	r0, [r0, #-256]	; 0xffffff00
 3d8:	000001b0 			; <UNDEFINED> instruction: 0x000001b0
 3dc:	000001c0 	andeq	r0, r0, r0, asr #3
 3e0:	c0510001 	subsgt	r0, r1, r1
 3e4:	e4000001 	str	r0, [r0], #-1
 3e8:	01000001 	tsteq	r0, r1
 3ec:	01e45500 	mvneq	r5, r0, lsl #10
 3f0:	01f80000 	mvnseq	r0, r0
 3f4:	00010000 	andeq	r0, r1, r0
 3f8:	0001f851 	andeq	pc, r1, r1, asr r8	; <UNPREDICTABLE>
 3fc:	00022400 	andeq	r2, r2, r0, lsl #8
 400:	55000100 	strpl	r0, [r0, #-256]	; 0xffffff00
	...
 410:	00000070 	andeq	r0, r0, r0, ror r0
 414:	00000084 	andeq	r0, r0, r4, lsl #1
 418:	84520001 	ldrbhi	r0, [r2], #-1
 41c:	24000000 	strcs	r0, [r0], #-0
 420:	01000002 	tsteq	r0, r2
 424:	00005400 	andeq	r5, r0, r0, lsl #8
	...
 430:	01000000 	mrseq	r0, (UNDEF: 0)
 434:	00000000 	andeq	r0, r0, r0
 438:	00700000 	rsbseq	r0, r0, r0
 43c:	00f40000 	rscseq	r0, r4, r0
 440:	00010000 	andeq	r0, r1, r0
 444:	00014c53 	andeq	r4, r1, r3, asr ip
 448:	00018000 	andeq	r8, r1, r0
 44c:	53000100 	movwpl	r0, #256	; 0x100
 450:	00000180 	andeq	r0, r0, r0, lsl #3
 454:	0000018c 	andeq	r0, r0, ip, lsl #3
 458:	01f30004 	mvnseq	r0, r4
 45c:	01b09f53 	asrseq	r9, r3, pc
 460:	01e80000 	mvneq	r0, r0
 464:	00010000 	andeq	r0, r1, r0
 468:	0001e853 	andeq	lr, r1, r3, asr r8
 46c:	0001ff00 	andeq	pc, r1, r0, lsl #30
 470:	5c000100 	stfpls	f0, [r0], {-0}
 474:	000001ff 	strdeq	r0, [r0], -pc	; <UNPREDICTABLE>
 478:	00000224 	andeq	r0, r0, r4, lsr #4
 47c:	01f30004 	mvnseq	r0, r4
 480:	00009f53 	andeq	r9, r0, r3, asr pc
	...
 490:	00000070 	andeq	r0, r0, r0, ror r0
 494:	0000008c 	andeq	r0, r0, ip, lsl #1
 498:	00910002 	addseq	r0, r1, r2
 49c:	0000008c 	andeq	r0, r0, ip, lsl #1
 4a0:	00000193 	muleq	r0, r3, r1
 4a4:	b0520001 	subslt	r0, r2, r1
 4a8:	f4000001 	vst4.8	{d0-d3}, [r0], r1
 4ac:	01000001 	tsteq	r0, r1
 4b0:	00005200 	andeq	r5, r0, r0, lsl #4
 4b4:	00000000 	andeq	r0, r0, r0
 4b8:	00010000 	andeq	r0, r1, r0
 4bc:	00010100 	andeq	r0, r1, r0, lsl #2
 4c0:	00000000 	andeq	r0, r0, r0
 4c4:	01000000 	mrseq	r0, (UNDEF: 0)
 4c8:	00010101 	andeq	r0, r1, r1, lsl #2
 4cc:	00010100 	andeq	r0, r1, r0, lsl #2
	...
 4d8:	008c0000 	addeq	r0, ip, r0
 4dc:	00fc0000 	rscseq	r0, ip, r0
 4e0:	00040000 	andeq	r0, r4, r0
 4e4:	9f7fa091 	svcls	0x007fa091
 4e8:	000000fc 	strdeq	r0, [r0], -ip
 4ec:	0000013c 	andeq	r0, r0, ip, lsr r1
 4f0:	3c500001 	mrrccc	0, 0, r0, r0, cr1	; <UNPREDICTABLE>
 4f4:	48000001 	stmdami	r0, {r0}
 4f8:	03000001 	movweq	r0, #1
 4fc:	9f027100 	svcls	0x00027100
 500:	00000148 	andeq	r0, r0, r8, asr #2
 504:	0000014c 	andeq	r0, r0, ip, asr #2
 508:	4c500001 	mrrcmi	0, 0, r0, r0, cr1	; <UNPREDICTABLE>
 50c:	58000001 	stmdapl	r0, {r0}
 510:	04000001 	streq	r0, [r0], #-1
 514:	7fa09100 	svcvc	0x00a09100
 518:	0001589f 	muleq	r1, pc, r8	; <UNPREDICTABLE>
 51c:	00016c00 	andeq	r6, r1, r0, lsl #24
 520:	51000100 	mrspl	r0, (UNDEF: 16)
 524:	0000016c 	andeq	r0, r0, ip, ror #2
 528:	00000178 	andeq	r0, r0, r8, ror r1
 52c:	7f710003 	svcvc	0x00710003
 530:	0001789f 	muleq	r1, pc, r8	; <UNPREDICTABLE>
 534:	00018400 	andeq	r8, r1, r0, lsl #8
 538:	71000300 	mrsvc	r0, LR_irq
 53c:	01849f01 	orreq	r9, r4, r1, lsl #30
 540:	01930000 	orrseq	r0, r3, r0
 544:	00010000 	andeq	r0, r1, r0
 548:	0001b050 	andeq	fp, r1, r0, asr r0
 54c:	0001b000 	andeq	fp, r1, r0
 550:	91000400 	tstls	r0, r0, lsl #8
 554:	b09f7fa0 	addslt	r7, pc, r0, lsr #31
 558:	b8000001 	stmdalt	r0, {r0}
 55c:	04000001 	streq	r0, [r0], #-1
 560:	7fa19100 	svcvc	0x00a19100
 564:	0001b89f 	muleq	r1, pc, r8	; <UNPREDICTABLE>
 568:	0001bc00 	andeq	fp, r1, r0, lsl #24
 56c:	50000100 	andpl	r0, r0, r0, lsl #2
 570:	000001bc 			; <UNDEFINED> instruction: 0x000001bc
 574:	000001c0 	andeq	r0, r0, r0, asr #3
 578:	a0910004 	addsge	r0, r1, r4
 57c:	01c09f7f 	biceq	r9, r0, pc, ror pc
 580:	01d40000 	bicseq	r0, r4, r0
 584:	00010000 	andeq	r0, r1, r0
 588:	0001d450 	andeq	sp, r1, r0, asr r4
 58c:	0001e400 	andeq	lr, r1, r0, lsl #8
 590:	70000300 	andvc	r0, r0, r0, lsl #6
 594:	01e49f7f 	mvneq	r9, pc, ror pc
 598:	02240000 	eoreq	r0, r4, #0, 0
 59c:	00040000 	andeq	r0, r4, r0
 5a0:	9f7fa091 	svcls	0x007fa091
	...
 5ac:	01000000 	mrseq	r0, (UNDEF: 0)
 5b0:	00000001 	andeq	r0, r0, r1
	...
 5c0:	00000090 	muleq	r0, r0, r0
 5c4:	000000dc 	ldrdeq	r0, [r0], -ip
 5c8:	dc5c0001 	mrrcle	0, 0, r0, ip, cr1
 5cc:	f4000000 	vst4.8	{d0-d3}, [r0], r0
 5d0:	01000000 	mrseq	r0, (UNDEF: 0)
 5d4:	00f45300 	rscseq	r5, r4, r0, lsl #6
 5d8:	014c0000 	mrseq	r0, (UNDEF: 76)
 5dc:	00010000 	andeq	r0, r1, r0
 5e0:	00014c5c 	andeq	r4, r1, ip, asr ip
 5e4:	00015800 	andeq	r5, r1, r0, lsl #16
 5e8:	53000100 	movwpl	r0, #256	; 0x100
 5ec:	00000158 	andeq	r0, r0, r8, asr r1
 5f0:	00000174 	andeq	r0, r0, r4, ror r1
 5f4:	b05c0001 	subslt	r0, ip, r1
 5f8:	c0000001 	andgt	r0, r0, r1
 5fc:	01000001 	tsteq	r0, r1
 600:	01c05300 	biceq	r5, r0, r0, lsl #6
 604:	01dc0000 	bicseq	r0, ip, r0
 608:	00010000 	andeq	r0, r1, r0
 60c:	0001e45c 	andeq	lr, r1, ip, asr r4
 610:	0001e800 	andeq	lr, r1, r0, lsl #16
 614:	53000100 	movwpl	r0, #256	; 0x100
 618:	000001e8 	andeq	r0, r0, r8, ror #3
 61c:	000001ff 	strdeq	r0, [r0], -pc	; <UNPREDICTABLE>
 620:	ff5c0001 			; <UNDEFINED> instruction: 0xff5c0001
 624:	24000001 	strcs	r0, [r0], #-1
 628:	04000002 	streq	r0, [r0], #-2
 62c:	5301f300 	movwpl	pc, #4864	; 0x1300	; <UNPREDICTABLE>
 630:	0000009f 	muleq	r0, pc, r0	; <UNPREDICTABLE>
 634:	00000000 	andeq	r0, r0, r0
 638:	01010100 	mrseq	r0, (UNDEF: 17)
 63c:	00000000 	andeq	r0, r0, r0
 640:	0000dc00 	andeq	sp, r0, r0, lsl #24
 644:	0000f000 	andeq	pc, r0, r0
 648:	30000200 	andcc	r0, r0, r0, lsl #4
 64c:	0000f09f 	muleq	r0, pc, r0	; <UNPREDICTABLE>
 650:	0000f800 	andeq	pc, r0, r0, lsl #16
 654:	31000200 	mrscc	r0, R8_usr
 658:	0000fc9f 	muleq	r0, pc, ip	; <UNPREDICTABLE>
 65c:	00014c00 	andeq	r4, r1, r0, lsl #24
 660:	56000100 	strpl	r0, [r0], -r0, lsl #2
 664:	0000014c 	andeq	r0, r0, ip, asr #2
 668:	00000154 	andeq	r0, r0, r4, asr r1
 66c:	9f300002 	svcls	0x00300002
	...
 678:	01000000 	mrseq	r0, (UNDEF: 0)
 67c:	01000001 	tsteq	r0, r1
 680:	00380001 	eorseq	r0, r8, r1
 684:	00540000 	subseq	r0, r4, r0
 688:	00010000 	andeq	r0, r1, r0
 68c:	00005450 	andeq	r5, r0, r0, asr r4
 690:	00005800 	andeq	r5, r0, r0, lsl #16
 694:	52000100 	andpl	r0, r0, #0
 698:	00000058 	andeq	r0, r0, r8, asr r0
 69c:	00000060 	andeq	r0, r0, r0, rrx
 6a0:	01720003 	cmneq	r2, r3
 6a4:	0000609f 	muleq	r0, pc, r0	; <UNPREDICTABLE>
 6a8:	00006400 	andeq	r6, r0, r0, lsl #8
 6ac:	52000100 	andpl	r0, r0, #0
 6b0:	00000064 	andeq	r0, r0, r4, rrx
 6b4:	00000070 	andeq	r0, r0, r0, ror r0
 6b8:	01720003 	cmneq	r2, r3
 6bc:	0000009f 	muleq	r0, pc, r0	; <UNPREDICTABLE>
	...
 6c8:	00003800 	andeq	r3, r0, r0, lsl #16
 6cc:	00005000 	andeq	r5, r0, r0
 6d0:	51000100 	mrspl	r0, (UNDEF: 16)
 6d4:	00000050 	andeq	r0, r0, r0, asr r0
 6d8:	00000070 	andeq	r0, r0, r0, ror r0
 6dc:	01f30004 	mvnseq	r0, r4
 6e0:	00009f51 	andeq	r9, r0, r1, asr pc
	...
 6ec:	01000000 	mrseq	r0, (UNDEF: 0)
 6f0:	00380001 	eorseq	r0, r8, r1
 6f4:	00500000 	subseq	r0, r0, r0
 6f8:	00010000 	andeq	r0, r1, r0
 6fc:	00005052 	andeq	r5, r0, r2, asr r0
 700:	00005c00 	andeq	r5, r0, r0, lsl #24
 704:	51000100 	mrspl	r0, (UNDEF: 16)
 708:	0000005c 	andeq	r0, r0, ip, asr r0
 70c:	00000060 	andeq	r0, r0, r0, rrx
 710:	01710003 	cmneq	r1, r3
 714:	0000609f 	muleq	r0, pc, r0	; <UNPREDICTABLE>
 718:	00007000 	andeq	r7, r0, r0
 71c:	51000100 	mrspl	r0, (UNDEF: 16)
	...
 72c:	00000038 	andeq	r0, r0, r8, lsr r0
 730:	0000004c 	andeq	r0, r0, ip, asr #32
 734:	4c530001 	mrrcmi	0, 0, r0, r3, cr1
 738:	68000000 	stmdavs	r0, {}	; <UNPREDICTABLE>
 73c:	01000000 	mrseq	r0, (UNDEF: 0)
 740:	00005300 	andeq	r5, r0, r0, lsl #6
	...
 750:	00400000 	subeq	r0, r0, r0
 754:	00480000 	subeq	r0, r8, r0
 758:	00010000 	andeq	r0, r1, r0
 75c:	0000485c 	andeq	r4, r0, ip, asr r8
 760:	00004c00 	andeq	r4, r0, r0, lsl #24
 764:	72000800 	andvc	r0, r0, #0, 16
 768:	1c007300 	stcne	3, cr7, [r0], {-0}
 76c:	4c9f0123 	ldfmis	f0, [pc], {35}	; 0x23
 770:	54000000 	strpl	r0, [r0], #-0
 774:	09000000 	stmdbeq	r0, {}	; <UNPREDICTABLE>
 778:	f3007200 	vhsub.u8	d7, d0, d0
 77c:	231c5301 	tstcs	ip, #67108864	; 0x4000000
 780:	00549f01 	subseq	r9, r4, r1, lsl #30
 784:	00700000 	rsbseq	r0, r0, r0
 788:	000a0000 	andeq	r0, sl, r0
 78c:	f35201f3 	vbsl	q8, q9, <illegal reg q9.5>
 790:	231c5301 	tstcs	ip, #67108864	; 0x4000000
 794:	00009f01 	andeq	r9, r0, r1, lsl #30
 798:	00000000 	andeq	r0, r0, r0
 79c:	00010000 	andeq	r0, r1, r0
 7a0:	0000004c 	andeq	r0, r0, ip, asr #32
 7a4:	00000070 	andeq	r0, r0, r0, ror r0
 7a8:	00500001 	subseq	r0, r0, r1
	...
 7b4:	00000101 	andeq	r0, r0, r1, lsl #2
 7b8:	00001400 	andeq	r1, r0, r0, lsl #8
 7bc:	00001c00 	andeq	r1, r0, r0, lsl #24
 7c0:	50000100 	andpl	r0, r0, r0, lsl #2
 7c4:	0000001c 	andeq	r0, r0, ip, lsl r0
 7c8:	00000024 	andeq	r0, r0, r4, lsr #32
 7cc:	01700003 	cmneq	r0, r3
 7d0:	0000249f 	muleq	r0, pc, r4	; <UNPREDICTABLE>
 7d4:	00003800 	andeq	r3, r0, r0, lsl #16
 7d8:	50000100 	andpl	r0, r0, r0, lsl #2
	...
 7e8:	00000014 	andeq	r0, r0, r4, lsl r0
 7ec:	00000018 	andeq	r0, r0, r8, lsl r0
 7f0:	18510001 	ldmdane	r1, {r0}^
 7f4:	38000000 	stmdacc	r0, {}	; <UNPREDICTABLE>
 7f8:	04000000 	streq	r0, [r0], #-0
 7fc:	5101f300 	mrspl	pc, SP_irq	; <UNPREDICTABLE>
 800:	0000009f 	muleq	r0, pc, r0	; <UNPREDICTABLE>
 804:	00000000 	andeq	r0, r0, r0
 808:	18000000 	stmdane	r0, {}	; <UNPREDICTABLE>
 80c:	38000000 	stmdacc	r0, {}	; <UNPREDICTABLE>
 810:	01000000 	mrseq	r0, (UNDEF: 0)
 814:	00005100 	andeq	r5, r0, r0, lsl #2
	...
 828:	00000004 	andeq	r0, r0, r4
 82c:	04500001 	ldrbeq	r0, [r0], #-1
 830:	0c000000 	stceq	0, cr0, [r0], {-0}
 834:	03000000 	movweq	r0, #0
 838:	9f307000 	svcls	0x00307000
 83c:	0000000c 	andeq	r0, r0, ip
 840:	00000014 	andeq	r0, r0, r4, lsl r0
 844:	01f30004 	mvnseq	r0, r4
 848:	00009f50 	andeq	r9, r0, r0, asr pc
	...
 854:	02240000 	eoreq	r0, r4, #0, 0
 858:	02680000 	rsbeq	r0, r8, #0, 0
 85c:	00010000 	andeq	r0, r1, r0
 860:	00026850 	andeq	r6, r2, r0, asr r8
 864:	00028800 	andeq	r8, r2, r0, lsl #16
 868:	f3000400 	vshl.u8	d0, d0, d0
 86c:	009f5001 	addseq	r5, pc, r1
	...
 878:	24000000 	strcs	r0, [r0], #-0
 87c:	64000002 	strvs	r0, [r0], #-2
 880:	01000002 	tsteq	r0, r2
 884:	02645100 	rsbeq	r5, r4, #0
 888:	02880000 	addeq	r0, r8, #0, 0
 88c:	00040000 	andeq	r0, r4, r0
 890:	9f5101f3 	svcls	0x005101f3
	...
 89c:	00010100 	andeq	r0, r1, r0, lsl #2
 8a0:	000c0000 	andeq	r0, ip, r0
 8a4:	00140000 	andseq	r0, r4, r0
 8a8:	00010000 	andeq	r0, r1, r0
 8ac:	00001453 	andeq	r1, r0, r3, asr r4
 8b0:	00001c00 	andeq	r1, r0, r0, lsl #24
 8b4:	73000300 	movwvc	r0, #768	; 0x300
 8b8:	001c9f04 	andseq	r9, ip, r4, lsl #30
 8bc:	00230000 	eoreq	r0, r3, r0
 8c0:	00010000 	andeq	r0, r1, r0
 8c4:	00000053 	andeq	r0, r0, r3, asr r0
 8c8:	00000000 	andeq	r0, r0, r0
 8cc:	3c000100 	stfccs	f0, [r0], {-0}
 8d0:	58000089 	stmdapl	r0, {r0, r3, r7}
 8d4:	06000089 	streq	r0, [r0], -r9, lsl #1
 8d8:	001c0c00 	andseq	r0, ip, r0, lsl #24
 8dc:	009f2010 	addseq	r2, pc, r0, lsl r0	; <UNPREDICTABLE>
 8e0:	00000000 	andeq	r0, r0, r0
 8e4:	02000000 	andeq	r0, r0, #0, 0
 8e8:	00893c00 	addeq	r3, r9, r0, lsl #24
 8ec:	00895800 	addeq	r5, r9, r0, lsl #16
 8f0:	0c000600 	stceq	6, cr0, [r0], {-0}
 8f4:	20100024 	andscs	r0, r0, r4, lsr #32
 8f8:	0000009f 	muleq	r0, pc, r0	; <UNPREDICTABLE>
 8fc:	00000000 	andeq	r0, r0, r0
 900:	3c000300 	stccc	3, cr0, [r0], {-0}
 904:	58000089 	stmdapl	r0, {r0, r3, r7}
 908:	05000089 	streq	r0, [r0, #-137]	; 0xffffff77
 90c:	47b40800 	ldrmi	r0, [r4, r0, lsl #16]!
 910:	00009f24 	andeq	r9, r0, r4, lsr #30
 914:	00000000 	andeq	r0, r0, r0
 918:	00040000 	andeq	r0, r4, r0
 91c:	0000893c 	andeq	r8, r0, ip, lsr r9
 920:	00008958 	andeq	r8, r0, r8, asr r9
 924:	20080003 	andcs	r0, r8, r3
 928:	0000009f 	muleq	r0, pc, r0	; <UNPREDICTABLE>
 92c:	00000000 	andeq	r0, r0, r0
 930:	00000200 	andeq	r0, r0, r0, lsl #4
 934:	08000000 	stmdaeq	r0, {}	; <UNPREDICTABLE>
 938:	0c000089 	stceq	0, cr0, [r0], {137}	; 0x89
 93c:	02000089 	andeq	r0, r0, #137, 0	; 0x89
 940:	0c9f3000 	ldceq	0, cr3, [pc], {0}
 944:	10000089 	andne	r0, r0, r9, lsl #1
 948:	01000089 	smlabbeq	r0, r9, r0, r0
 94c:	89145300 	ldmdbhi	r4, {r8, r9, ip, lr}
 950:	891c0000 	ldmdbhi	ip, {}	; <UNPREDICTABLE>
 954:	00010000 	andeq	r0, r1, r0
 958:	00000053 	andeq	r0, r0, r3, asr r0
 95c:	00000000 	andeq	r0, r0, r0
 960:	00000200 	andeq	r0, r0, r0, lsl #4
 964:	0088f000 	addeq	pc, r8, r0
 968:	0088f400 	addeq	pc, r8, r0, lsl #8
 96c:	30000200 	andcc	r0, r0, r0, lsl #4
 970:	0088f49f 	umulleq	pc, r8, pc, r4	; <UNPREDICTABLE>
 974:	0088f800 	addeq	pc, r8, r0, lsl #16
 978:	50000100 	andpl	r0, r0, r0, lsl #2
	...
 988:	0000006c 	andeq	r0, r0, ip, rrx
 98c:	00000078 	andeq	r0, r0, r8, ror r0
 990:	78500001 	ldmdavc	r0, {r0}^
 994:	84000000 	strhi	r0, [r0], #-0
 998:	04000000 	streq	r0, [r0], #-0
 99c:	5001f300 	andpl	pc, r1, r0, lsl #6
 9a0:	0000009f 	muleq	r0, pc, r0	; <UNPREDICTABLE>
	...
 9ac:	00005400 	andeq	r5, r0, r0, lsl #8
 9b0:	00006000 	andeq	r6, r0, r0
 9b4:	50000100 	andpl	r0, r0, r0, lsl #2
 9b8:	00000060 	andeq	r0, r0, r0, rrx
 9bc:	0000006c 	andeq	r0, r0, ip, rrx
 9c0:	01f30004 	mvnseq	r0, r4
 9c4:	00009f50 	andeq	r9, r0, r0, asr pc
	...
 9d0:	00300000 	eorseq	r0, r0, r0
 9d4:	003b0000 	eorseq	r0, fp, r0
 9d8:	00010000 	andeq	r0, r1, r0
 9dc:	00003b50 	andeq	r3, r0, r0, asr fp
 9e0:	00005400 	andeq	r5, r0, r0, lsl #8
 9e4:	55000100 	strpl	r0, [r0, #-256]	; 0xffffff00
	...
 9f0:	00400000 	subeq	r0, r0, r0
 9f4:	00540000 	subseq	r0, r4, r0
 9f8:	00010000 	andeq	r0, r1, r0
 9fc:	00000054 	andeq	r0, r0, r4, asr r0
 a00:	00000000 	andeq	r0, r0, r0
 a04:	44000000 	strmi	r0, [r0], #-0
 a08:	48000000 	stmdami	r0, {}	; <UNPREDICTABLE>
 a0c:	01000000 	mrseq	r0, (UNDEF: 0)
 a10:	00005000 	andeq	r5, r0, r0
	...
 a1c:	00240000 	eoreq	r0, r4, r0
 a20:	00270000 	eoreq	r0, r7, r0
 a24:	00010000 	andeq	r0, r1, r0
 a28:	00002750 	andeq	r2, r0, r0, asr r7
 a2c:	00003000 	andeq	r3, r0, r0
 a30:	54000100 	strpl	r0, [r0], #-256	; 0xffffff00
	...
 a40:	00000158 	andeq	r0, r0, r8, asr r1
 a44:	00000163 	andeq	r0, r0, r3, ror #2
 a48:	63500001 	cmpvs	r0, #1, 0
 a4c:	88000001 	stmdahi	r0, {r0}
 a50:	01000001 	tsteq	r0, r1
 a54:	00005400 	andeq	r5, r0, r0, lsl #8
	...
 a60:	00000148 	andeq	r0, r0, r8, asr #2
 a64:	00000158 	andeq	r0, r0, r8, asr r1
 a68:	00540001 	subseq	r0, r4, r1
	...
 a78:	0f000000 	svceq	0x00000000
 a7c:	01000000 	mrseq	r0, (UNDEF: 0)
 a80:	000f5000 	andeq	r5, pc, r0
 a84:	00200000 	eoreq	r0, r0, r0
 a88:	00010000 	andeq	r0, r1, r0
 a8c:	00000054 	andeq	r0, r0, r4, asr r0
	...
 a9c:	00000f00 	andeq	r0, r0, r0, lsl #30
 aa0:	51000100 	mrspl	r0, (UNDEF: 16)
 aa4:	0000000f 	andeq	r0, r0, pc
 aa8:	00000020 	andeq	r0, r0, r0, lsr #32
 aac:	00550001 	subseq	r0, r5, r1
	...
 ab8:	20000000 	andcs	r0, r0, r0
 abc:	2f000000 	svccs	0x00000000
 ac0:	01000000 	mrseq	r0, (UNDEF: 0)
 ac4:	002f5000 	eoreq	r5, pc, r0
 ac8:	00400000 	subeq	r0, r0, r0
 acc:	00010000 	andeq	r0, r1, r0
 ad0:	00000054 	andeq	r0, r0, r4, asr r0
	...
 adc:	00002000 	andeq	r2, r0, r0
 ae0:	00002f00 	andeq	r2, r0, r0, lsl #30
 ae4:	51000100 	mrspl	r0, (UNDEF: 16)
 ae8:	0000002f 	andeq	r0, r0, pc, lsr #32
 aec:	00000040 	andeq	r0, r0, r0, asr #32
 af0:	00550001 	subseq	r0, r5, r1
	...
 b00:	0b000000 	bleq	b08 <LINK_ADDR-0x74f8>
 b04:	01000000 	mrseq	r0, (UNDEF: 0)
 b08:	000b5000 	andeq	r5, fp, r0
 b0c:	00140000 	andseq	r0, r4, r0
 b10:	00010000 	andeq	r0, r1, r0
 b14:	00000054 	andeq	r0, r0, r4, asr r0
	...
 b24:	00001c00 	andeq	r1, r0, r0, lsl #24
 b28:	51000100 	mrspl	r0, (UNDEF: 16)
 b2c:	0000001c 	andeq	r0, r0, ip, lsl r0
 b30:	00000034 	andeq	r0, r0, r4, lsr r0
 b34:	01f30004 	mvnseq	r0, r4
 b38:	00009f51 	andeq	r9, r0, r1, asr pc
 b3c:	00000000 	andeq	r0, r0, r0
 b40:	00020000 	andeq	r0, r2, r0
 b44:	01000000 	mrseq	r0, (UNDEF: 0)
 b48:	00000001 	andeq	r0, r0, r1
 b4c:	00000000 	andeq	r0, r0, r0
 b50:	00000004 	andeq	r0, r0, r4
 b54:	04500001 	ldrbeq	r0, [r0], #-1
 b58:	1c000000 	stcne	0, cr0, [r0], {-0}
 b5c:	01000000 	mrseq	r0, (UNDEF: 0)
 b60:	001c5200 	andseq	r5, ip, r0, lsl #4
 b64:	00240000 	eoreq	r0, r4, r0
 b68:	00010000 	andeq	r0, r1, r0
 b6c:	00002453 	andeq	r2, r0, r3, asr r4
 b70:	00002800 	andeq	r2, r0, r0, lsl #16
 b74:	73000300 	movwvc	r0, #768	; 0x300
 b78:	00289f01 	eoreq	r9, r8, r1, lsl #30
 b7c:	00340000 	eorseq	r0, r4, r0
 b80:	00010000 	andeq	r0, r1, r0
 b84:	00000053 	andeq	r0, r0, r3, asr r0
 b88:	00000000 	andeq	r0, r0, r0
 b8c:	00000300 	andeq	r0, r0, r0, lsl #6
 b90:	00000000 	andeq	r0, r0, r0
 b94:	00002400 	andeq	r2, r0, r0, lsl #8
 b98:	51000100 	mrspl	r0, (UNDEF: 16)
 b9c:	00000024 	andeq	r0, r0, r4, lsr #32
 ba0:	00000034 	andeq	r0, r0, r4, lsr r0
 ba4:	7f710003 	svcvc	0x00710003
 ba8:	0000009f 	muleq	r0, pc, r0	; <UNPREDICTABLE>
	...
 bb4:	00001000 	andeq	r1, r0, r0
 bb8:	00001c00 	andeq	r1, r0, r0, lsl #24
 bbc:	5c000100 	stfpls	f0, [r0], {-0}
 bc0:	00000024 	andeq	r0, r0, r4, lsr #32
 bc4:	00000034 	andeq	r0, r0, r4, lsr r0
 bc8:	00520001 	subseq	r0, r2, r1
	...
 bd8:	18000000 	stmdane	r0, {}	; <UNPREDICTABLE>
 bdc:	01000000 	mrseq	r0, (UNDEF: 0)
 be0:	00185000 	andseq	r5, r8, r0
 be4:	00240000 	eoreq	r0, r4, r0
 be8:	00010000 	andeq	r0, r1, r0
 bec:	00000050 	andeq	r0, r0, r0, asr r0
	...
 bfc:	00001c00 	andeq	r1, r0, r0, lsl #24
 c00:	51000100 	mrspl	r0, (UNDEF: 16)
 c04:	0000001c 	andeq	r0, r0, ip, lsl r0
 c08:	0000002c 	andeq	r0, r0, ip, lsr #32
 c0c:	00510001 	subseq	r0, r1, r1
	...
 c20:	00000400 	andeq	r0, r0, r0, lsl #8
 c24:	51000100 	mrspl	r0, (UNDEF: 16)
 c28:	00000004 	andeq	r0, r0, r4
 c2c:	0000000c 	andeq	r0, r0, ip
 c30:	0c510001 	mrrceq	0, 0, r0, r1, cr1
 c34:	20000000 	andcs	r0, r0, r0
 c38:	03000000 	movweq	r0, #0
 c3c:	9f7f7100 	svcls	0x007f7100
	...
 c48:	00000002 	andeq	r0, r0, r2
 c4c:	00000000 	andeq	r0, r0, r0
 c50:	00040000 	andeq	r0, r4, r0
 c54:	00010000 	andeq	r0, r1, r0
 c58:	00000450 	andeq	r0, r0, r0, asr r4
 c5c:	00001400 	andeq	r1, r0, r0, lsl #8
 c60:	5c000100 	stfpls	f0, [r0], {-0}
 c64:	00000014 	andeq	r0, r0, r4, lsl r0
 c68:	00000020 	andeq	r0, r0, r0, lsr #32
 c6c:	7f7c0003 	svcvc	0x007c0003
 c70:	0000009f 	muleq	r0, pc, r0	; <UNPREDICTABLE>
 c74:	00000000 	andeq	r0, r0, r0
 c78:	03030000 	movweq	r0, #12288	; 0x3000
 c7c:	008ca000 	addeq	sl, ip, r0
 c80:	008ca000 	addeq	sl, ip, r0
 c84:	50000100 	andpl	r0, r0, r0, lsl #2
 c88:	00008ca0 	andeq	r8, r0, r0, lsr #25
 c8c:	00008ccc 	andeq	r8, r0, ip, asr #25
 c90:	01f30004 	mvnseq	r0, r4
 c94:	00009f50 	andeq	r9, r0, r0, asr pc
 c98:	00000000 	andeq	r0, r0, r0
 c9c:	03000000 	movweq	r0, #0
 ca0:	8ca00003 	stchi	0, cr0, [r0], #12
 ca4:	8ca00000 	stchi	0, cr0, [r0]
 ca8:	00010000 	andeq	r0, r1, r0
 cac:	008ca051 	addeq	sl, ip, r1, asr r0
 cb0:	008ccc00 	addeq	ip, ip, r0, lsl #24
 cb4:	f3000400 	vshl.u8	d0, d0, d0
 cb8:	009f5101 	addseq	r5, pc, r1, lsl #2
	...
 cc4:	00000303 	andeq	r0, r0, r3, lsl #6
 cc8:	008ca000 	addeq	sl, ip, r0
 ccc:	008ca000 	addeq	sl, ip, r0
 cd0:	52000100 	andpl	r0, r0, #0
 cd4:	00008ca0 	andeq	r8, r0, r0, lsr #25
 cd8:	00008ca8 	andeq	r8, r0, r8, lsr #25
 cdc:	a8520001 	ldmdage	r2, {r0}^
 ce0:	cc00008c 	stcgt	0, cr0, [r0], {140}	; 0x8c
 ce4:	0300008c 	movweq	r0, #140	; 0x8c
 ce8:	9f017200 	svcls	0x00017200
	...
 cf4:	00010102 	andeq	r0, r1, r2, lsl #2
 cf8:	00000000 	andeq	r0, r0, r0
 cfc:	00008ca0 	andeq	r8, r0, r0, lsr #25
 d00:	00008cac 	andeq	r8, r0, ip, lsr #25
 d04:	ac500001 	mrrcge	0, 0, r0, r0, cr1	; <UNPREDICTABLE>
 d08:	b000008c 	andlt	r0, r0, ip, lsl #1
 d0c:	0300008c 	movweq	r0, #140	; 0x8c
 d10:	9f017000 	svcls	0x00017000
 d14:	00008cb0 			; <UNDEFINED> instruction: 0x00008cb0
 d18:	00008cc0 	andeq	r8, r0, r0, asr #25
 d1c:	c4500001 	ldrbgt	r0, [r0], #-1
 d20:	c800008c 	stmdagt	r0, {r2, r3, r7}
 d24:	0100008c 	smlabbeq	r0, ip, r0, r0
 d28:	00005000 	andeq	r5, r0, r0
 d2c:	00000000 	andeq	r0, r0, r0
 d30:	00020000 	andeq	r0, r2, r0
 d34:	00000000 	andeq	r0, r0, r0
 d38:	00008ca0 	andeq	r8, r0, r0, lsr #25
 d3c:	00008cb0 			; <UNDEFINED> instruction: 0x00008cb0
 d40:	b0510001 	subslt	r0, r1, r1
 d44:	b400008c 	strlt	r0, [r0], #-140	; 0xffffff74
 d48:	0300008c 	movweq	r0, #140	; 0x8c
 d4c:	9f017100 	svcls	0x00017100
 d50:	00008cb4 			; <UNDEFINED> instruction: 0x00008cb4
 d54:	00008ccc 	andeq	r8, r0, ip, asr #25
 d58:	00510001 	subseq	r0, r1, r1
	...
 d68:	e8000000 	stmda	r0, {}	; <UNPREDICTABLE>
 d6c:	00000000 	andeq	r0, r0, r0
 d70:	01000001 	tsteq	r0, r1
 d74:	01005000 	mrseq	r5, (UNDEF: 0)
 d78:	01100000 	tsteq	r0, r0
 d7c:	00040000 	andeq	r0, r4, r0
 d80:	9f5001f3 	svcls	0x005001f3
 d84:	00000110 	andeq	r0, r0, r0, lsl r1
 d88:	00000114 	andeq	r0, r0, r4, lsl r1
 d8c:	14500001 	ldrbne	r0, [r0], #-1
 d90:	1c000001 	stcne	0, cr0, [r0], {1}
 d94:	04000001 	streq	r0, [r0], #-1
 d98:	5001f300 	andpl	pc, r1, r0, lsl #6
 d9c:	0000009f 	muleq	r0, pc, r0	; <UNPREDICTABLE>
 da0:	00000000 	andeq	r0, r0, r0
 da4:	00000100 	andeq	r0, r0, r0, lsl #2
 da8:	f4000000 	vst4.8	{d0-d3}, [r0], r0
 dac:	00000000 	andeq	r0, r0, r0
 db0:	0b000001 	bleq	dbc <LINK_ADDR-0x7244>
 db4:	35007000 	strcc	r7, [r0, #-0]
 db8:	80b42325 	adcshi	r2, r4, r5, lsr #6
 dbc:	9f028180 	svcls	0x00028180
 dc0:	00000100 	andeq	r0, r0, r0, lsl #2
 dc4:	00000103 	andeq	r0, r0, r3, lsl #2
 dc8:	03500001 	cmpeq	r0, #1, 0
 dcc:	10000001 	andne	r0, r0, r1
 dd0:	0c000001 	stceq	0, cr0, [r0], {1}
 dd4:	5001f300 	andpl	pc, r1, r0, lsl #6
 dd8:	b4232535 	strtlt	r2, [r3], #-1333	; 0xfffffacb
 ddc:	02818080 	addeq	r8, r1, #128, 0	; 0x80
 de0:	0000009f 	muleq	r0, pc, r0	; <UNPREDICTABLE>
 de4:	00000000 	andeq	r0, r0, r0
 de8:	f8000000 			; <UNDEFINED> instruction: 0xf8000000
 dec:	10000000 	andne	r0, r0, r0
 df0:	01000001 	tsteq	r0, r1
 df4:	00005400 	andeq	r5, r0, r0, lsl #8
	...
 e04:	00cc0000 	sbceq	r0, ip, r0
 e08:	00db0000 	sbcseq	r0, fp, r0
 e0c:	00010000 	andeq	r0, r1, r0
 e10:	0000db50 	andeq	sp, r0, r0, asr fp
 e14:	0000e000 	andeq	lr, r0, r0
 e18:	f3000400 	vshl.u8	d0, d0, d0
 e1c:	e09f5001 	adds	r5, pc, r1
 e20:	e3000000 	movw	r0, #0
 e24:	01000000 	mrseq	r0, (UNDEF: 0)
 e28:	00e35000 	rsceq	r5, r3, r0
 e2c:	00e80000 	rsceq	r0, r8, r0
 e30:	00040000 	andeq	r0, r4, r0
 e34:	9f5001f3 	svcls	0x005001f3
	...
 e48:	000000cc 	andeq	r0, r0, ip, asr #1
 e4c:	000000db 	ldrdeq	r0, [r0], -fp
 e50:	db510001 	blle	1440e5c <__bss_end__+0x1437aac>
 e54:	e0000000 	and	r0, r0, r0
 e58:	04000000 	streq	r0, [r0], #-0
 e5c:	5101f300 	mrspl	pc, SP_irq	; <UNPREDICTABLE>
 e60:	0000e09f 	muleq	r0, pc, r0	; <UNPREDICTABLE>
 e64:	0000e300 	andeq	lr, r0, r0, lsl #6
 e68:	51000100 	mrspl	r0, (UNDEF: 16)
 e6c:	000000e3 	andeq	r0, r0, r3, ror #1
 e70:	000000e8 	andeq	r0, r0, r8, ror #1
 e74:	01f30004 	mvnseq	r0, r4
 e78:	00009f51 	andeq	r9, r0, r1, asr pc
	...
 e84:	00bc0000 	adcseq	r0, ip, r0
 e88:	00c70000 	sbceq	r0, r7, r0
 e8c:	00010000 	andeq	r0, r1, r0
 e90:	0000c750 	andeq	ip, r0, r0, asr r7
 e94:	0000cc00 	andeq	ip, r0, r0, lsl #24
 e98:	f3000400 	vshl.u8	d0, d0, d0
 e9c:	009f5001 	addseq	r5, pc, r1
	...
 ea8:	98000000 	stmdals	r0, {}	; <UNPREDICTABLE>
 eac:	b0000000 	andlt	r0, r0, r0
 eb0:	01000000 	mrseq	r0, (UNDEF: 0)
 eb4:	00b05000 	adcseq	r5, r0, r0
 eb8:	00bc0000 	adcseq	r0, ip, r0
 ebc:	00040000 	andeq	r0, r4, r0
 ec0:	9f5001f3 	svcls	0x005001f3
	...
 ed0:	00000074 	andeq	r0, r0, r4, ror r0
 ed4:	0000008c 	andeq	r0, r0, ip, lsl #1
 ed8:	8c500001 	mrrchi	0, 0, r0, r0, cr1	; <UNPREDICTABLE>
 edc:	98000000 	stmdals	r0, {}	; <UNPREDICTABLE>
 ee0:	04000000 	streq	r0, [r0], #-0
 ee4:	5001f300 	andpl	pc, r1, r0, lsl #6
 ee8:	0000009f 	muleq	r0, pc, r0	; <UNPREDICTABLE>
	...
 ef4:	00006400 	andeq	r6, r0, r0, lsl #8
 ef8:	00006f00 	andeq	r6, r0, r0, lsl #30
 efc:	50000100 	andpl	r0, r0, r0, lsl #2
 f00:	0000006f 	andeq	r0, r0, pc, rrx
 f04:	00000074 	andeq	r0, r0, r4, ror r0
 f08:	01f30004 	mvnseq	r0, r4
 f0c:	00009f50 	andeq	r9, r0, r0, asr pc
	...
 f1c:	00380000 	eorseq	r0, r8, r0
 f20:	00010000 	andeq	r0, r1, r0
 f24:	00003850 	andeq	r3, r0, r0, asr r8
 f28:	00006400 	andeq	r6, r0, r0, lsl #8
 f2c:	f3000400 	vshl.u8	d0, d0, d0
 f30:	009f5001 	addseq	r5, pc, r1
	...
 f40:	47000000 	strmi	r0, [r0, -r0]
 f44:	01000000 	mrseq	r0, (UNDEF: 0)
 f48:	00475100 	subeq	r5, r7, r0, lsl #2
 f4c:	00640000 	rsbeq	r0, r4, r0
 f50:	00040000 	andeq	r0, r4, r0
 f54:	9f5101f3 	svcls	0x005101f3
	...
 f60:	00340000 	eorseq	r0, r4, r0
 f64:	00640000 	rsbeq	r0, r4, r0
 f68:	00010000 	andeq	r0, r1, r0
 f6c:	00000054 	andeq	r0, r0, r4, asr r0
 f70:	00000000 	andeq	r0, r0, r0
 f74:	40000000 	andmi	r0, r0, r0
 f78:	64000000 	strvs	r0, [r0], #-0
 f7c:	01000000 	mrseq	r0, (UNDEF: 0)
 f80:	00005600 	andeq	r5, r0, r0, lsl #12
	...
 f8c:	00010100 	andeq	r0, r1, r0, lsl #2
 f90:	00480000 	subeq	r0, r8, r0
 f94:	00500000 	subseq	r0, r0, r0
 f98:	00010000 	andeq	r0, r1, r0
 f9c:	00005050 	andeq	r5, r0, r0, asr r0
 fa0:	00005000 	andeq	r5, r0, r0
 fa4:	51000100 	mrspl	r0, (UNDEF: 16)
 fa8:	00000050 	andeq	r0, r0, r0, asr r0
 fac:	00000054 	andeq	r0, r0, r4, asr r0
 fb0:	00750009 	rsbseq	r0, r5, r9
 fb4:	71240074 			; <UNDEFINED> instruction: 0x71240074
 fb8:	549f2100 	ldrpl	r2, [pc], #256	; fc0 <LINK_ADDR-0x7040>
 fbc:	5b000000 	blpl	fc4 <LINK_ADDR-0x703c>
 fc0:	01000000 	mrseq	r0, (UNDEF: 0)
 fc4:	00005100 	andeq	r5, r0, r0, lsl #2
 fc8:	00000000 	andeq	r0, r0, r0
	...

Disassembly of section .debug_aranges:

00000000 <.debug_aranges>:
   0:	0000001c 	andeq	r0, r0, ip, lsl r0
   4:	00000002 	andeq	r0, r0, r2
   8:	00040000 	andeq	r0, r4, r0
   c:	00000000 	andeq	r0, r0, r0
  10:	00008078 	andeq	r8, r0, r8, ror r0
  14:	00000040 	andeq	r0, r0, r0, asr #32
	...
  20:	0000001c 	andeq	r0, r0, ip, lsl r0
  24:	01a10002 			; <UNDEFINED> instruction: 0x01a10002
  28:	00040000 	andeq	r0, r4, r0
  2c:	00000000 	andeq	r0, r0, r0
  30:	000080b8 	strheq	r8, [r0], -r8	; <UNPREDICTABLE>
  34:	00000058 	andeq	r0, r0, r8, asr r0
	...
  40:	0000001c 	andeq	r0, r0, ip, lsl r0
  44:	03420002 	movteq	r0, #8194	; 0x2002
  48:	00040000 	andeq	r0, r4, r0
  4c:	00000000 	andeq	r0, r0, r0
  50:	00008110 	andeq	r8, r0, r0, lsl r1
  54:	00000034 	andeq	r0, r0, r4, lsr r0
	...
  60:	0000001c 	andeq	r0, r0, ip, lsl r0
  64:	04390002 	ldrteq	r0, [r9], #-2
  68:	00040000 	andeq	r0, r4, r0
  6c:	00000000 	andeq	r0, r0, r0
  70:	00008144 	andeq	r8, r0, r4, asr #2
  74:	00000740 	andeq	r0, r0, r0, asr #14
	...
  80:	0000001c 	andeq	r0, r0, ip, lsl r0
  84:	0f140002 	svceq	0x00140002
  88:	00040000 	andeq	r0, r4, r0
  8c:	00000000 	andeq	r0, r0, r0
  90:	00008884 	andeq	r8, r0, r4, lsl #17
  94:	0000002c 	andeq	r0, r0, ip, lsr #32
	...
  a0:	0000001c 	andeq	r0, r0, ip, lsl r0
  a4:	10470002 	subne	r0, r7, r2
  a8:	00040000 	andeq	r0, r4, r0
  ac:	00000000 	andeq	r0, r0, r0
  b0:	000088b0 			; <UNDEFINED> instruction: 0x000088b0
  b4:	0000003c 	andeq	r0, r0, ip, lsr r0
	...
  c0:	0000001c 	andeq	r0, r0, ip, lsl r0
  c4:	11d40002 	bicsne	r0, r4, r2
  c8:	00040000 	andeq	r0, r4, r0
  cc:	00000000 	andeq	r0, r0, r0
  d0:	000088ec 	andeq	r8, r0, ip, ror #17
  d4:	00000004 	andeq	r0, r0, r4
	...
  e0:	0000001c 	andeq	r0, r0, ip, lsl r0
  e4:	12a60002 	adcne	r0, r6, #2, 0
  e8:	00040000 	andeq	r0, r4, r0
  ec:	00000000 	andeq	r0, r0, r0
  f0:	000088f0 	strdeq	r8, [r0], -r0
  f4:	00000080 	andeq	r0, r0, r0, lsl #1
	...
 100:	0000001c 	andeq	r0, r0, ip, lsl r0
 104:	14e00002 	strbtne	r0, [r0], #2
 108:	00040000 	andeq	r0, r4, r0
 10c:	00000000 	andeq	r0, r0, r0
 110:	00008970 	andeq	r8, r0, r0, ror r9
 114:	00000084 	andeq	r0, r0, r4, lsl #1
	...
 120:	0000001c 	andeq	r0, r0, ip, lsl r0
 124:	17310002 	ldrne	r0, [r1, -r2]!
 128:	00040000 	andeq	r0, r4, r0
 12c:	00000000 	andeq	r0, r0, r0
 130:	000089f4 	strdeq	r8, [r0], -r4
 134:	000001f0 	strdeq	r0, [r0], -r0	; <UNPREDICTABLE>
	...
 140:	0000001c 	andeq	r0, r0, ip, lsl r0
 144:	1d020002 	stcne	0, cr0, [r2, #-8]
 148:	00040000 	andeq	r0, r4, r0
 14c:	00000000 	andeq	r0, r0, r0
 150:	00008be4 	andeq	r8, r0, r4, ror #23
 154:	0000003c 	andeq	r0, r0, ip, lsr r0
	...
 160:	0000001c 	andeq	r0, r0, ip, lsl r0
 164:	1e4f0002 	cdpne	0, 4, cr0, cr15, cr2, {0}
 168:	00040000 	andeq	r0, r4, r0
 16c:	00000000 	andeq	r0, r0, r0
 170:	00008c20 	andeq	r8, r0, r0, lsr #24
 174:	00000034 	andeq	r0, r0, r4, lsr r0
	...
 180:	0000001c 	andeq	r0, r0, ip, lsl r0
 184:	1f8a0002 	svcne	0x008a0002
 188:	00040000 	andeq	r0, r4, r0
 18c:	00000000 	andeq	r0, r0, r0
 190:	00008c54 	andeq	r8, r0, r4, asr ip
 194:	0000002c 	andeq	r0, r0, ip, lsr #32
	...
 1a0:	0000001c 	andeq	r0, r0, ip, lsl r0
 1a4:	20850002 	addcs	r0, r5, r2
 1a8:	00040000 	andeq	r0, r4, r0
 1ac:	00000000 	andeq	r0, r0, r0
 1b0:	00008c80 	andeq	r8, r0, r0, lsl #25
 1b4:	00000020 	andeq	r0, r0, r0, lsr #32
	...
 1c0:	0000001c 	andeq	r0, r0, ip, lsl r0
 1c4:	21980002 	orrscs	r0, r8, r2
 1c8:	00040000 	andeq	r0, r4, r0
 1cc:	00000000 	andeq	r0, r0, r0
 1d0:	00008ca0 	andeq	r8, r0, r0, lsr #25
 1d4:	0000002c 	andeq	r0, r0, ip, lsr #32
	...
 1e0:	0000001c 	andeq	r0, r0, ip, lsl r0
 1e4:	22ea0002 	rsccs	r0, sl, #2, 0
 1e8:	00040000 	andeq	r0, r4, r0
 1ec:	00000000 	andeq	r0, r0, r0
 1f0:	00008ccc 	andeq	r8, r0, ip, asr #25
 1f4:	00000004 	andeq	r0, r0, r4
	...
 200:	0000001c 	andeq	r0, r0, ip, lsl r0
 204:	23bc0002 			; <UNDEFINED> instruction: 0x23bc0002
 208:	00040000 	andeq	r0, r4, r0
 20c:	00000000 	andeq	r0, r0, r0
 210:	00008ce8 	andeq	r8, r0, r8, ror #25
 214:	0000011c 	andeq	r0, r0, ip, lsl r1
	...

Disassembly of section .debug_line:

00000000 <.debug_line>:
       0:	000000aa 	andeq	r0, r0, sl, lsr #1
       4:	00790003 	rsbseq	r0, r9, r3
       8:	01020000 	mrseq	r0, (UNDEF: 2)
       c:	000d0efb 	strdeq	r0, [sp], -fp
      10:	01010101 	tsteq	r1, r1, lsl #2
      14:	01000000 	mrseq	r0, (UNDEF: 0)
      18:	2f010000 	svccs	0x00010000
      1c:	72657355 	rsbvc	r7, r5, #1409286145	; 0x54000001
      20:	72742f73 	rsbsvc	r2, r4, #460	; 0x1cc
      24:	65747369 	ldrbvs	r7, [r4, #-873]!	; 0xfffffc97
      28:	6c6f6e6e 	stclvs	14, cr6, [pc], #-440	; fffffe78 <__bss_end__+0xffff6ac8>
      2c:	6e616d6c 	cdpvs	13, 6, cr6, cr1, cr12, {3}
      30:	636f442f 	cmnvs	pc, #788529152	; 0x2f000000
      34:	6e656d75 	mcrvs	13, 3, r6, cr5, cr5, {3}
      38:	532f7374 			; <UNDEFINED> instruction: 0x532f7374
      3c:	6e697270 	mcrvs	2, 3, r7, cr9, cr0, {3}
      40:	75515f67 	ldrbvc	r5, [r1, #-3943]	; 0xfffff099
      44:	65747261 	ldrbvs	r7, [r4, #-609]!	; 0xfffffd9f
      48:	30325f72 	eorscc	r5, r2, r2, ror pc
      4c:	432f3232 			; <UNDEFINED> instruction: 0x432f3232
      50:	30343253 	eorscc	r3, r4, r3, asr r2
      54:	732d584c 			; <UNDEFINED> instruction: 0x732d584c
      58:	32327270 	eorscc	r7, r2, #112, 4
      5c:	696c2f2f 	stmdbvs	ip!, {r0, r1, r2, r3, r5, r8, r9, sl, fp, sp}^
      60:	2f697062 	svccs	0x00697062
      64:	6c636e69 	stclvs	14, cr6, [r3], #-420	; 0xfffffe5c
      68:	00656475 	rsbeq	r6, r5, r5, ror r4
      6c:	61656800 	cmnvs	r5, r0, lsl #16
      70:	2e726564 	cdpcs	5, 7, cr6, cr2, cr4, {3}
      74:	00000063 	andeq	r0, r0, r3, rrx
      78:	69707200 	ldmdbvs	r0!, {r9, ip, sp, lr}^
      7c:	0100682e 	tsteq	r0, lr, lsr #16
      80:	05000000 	streq	r0, [r0, #-0]
      84:	02050014 	andeq	r0, r5, #20, 0
      88:	00008078 	andeq	r8, r0, r8, ror r0
      8c:	32020515 	andcc	r0, r2, #88080384	; 0x5400000
      90:	05130505 	ldreq	r0, [r3, #-1285]	; 0xfffffafb
      94:	11051302 	tstne	r5, r2, lsl #6
      98:	05050106 	streq	r0, [r5, #-262]	; 0xfffffefa
      9c:	01014c06 	tsteq	r1, r6, lsl #24
      a0:	02051301 	andeq	r1, r5, #67108864	; 0x4000000
      a4:	67050567 	strvs	r0, [r5, -r7, ror #10]
      a8:	000a024b 	andeq	r0, sl, fp, asr #4
      ac:	01340101 	teqeq	r4, r1, lsl #2
      b0:	00030000 	andeq	r0, r3, r0
      b4:	00000102 	andeq	r0, r0, r2, lsl #2
      b8:	0efb0102 	cdpeq	1, 15, cr0, cr11, cr2, {0}
      bc:	0101000d 	tsteq	r1, sp
      c0:	00000101 	andeq	r0, r0, r1, lsl #2
      c4:	00000100 	andeq	r0, r0, r0, lsl #2
      c8:	6c2f2e01 	stcvs	14, cr2, [pc], #-4	; cc <LINK_ADDR-0x7f34>
      cc:	00636269 	rsbeq	r6, r3, r9, ror #4
      d0:	7273752f 	rsbsvc	r7, r3, #197132288	; 0xbc00000
      d4:	636f6c2f 	cmnvs	pc, #12032	; 0x2f00
      d8:	432f6c61 			; <UNDEFINED> instruction: 0x432f6c61
      dc:	616c6c65 	cmnvs	ip, r5, ror #24
      e0:	72612f72 	rsbvc	r2, r1, #456	; 0x1c8
      e4:	6f6e2d6d 	svcvs	0x006e2d6d
      e8:	652d656e 	strvs	r6, [sp, #-1390]!	; 0xfffffa92
      ec:	2d696261 	sfmcs	f6, 2, [r9, #-388]!	; 0xfffffe7c
      f0:	74736574 	ldrbtvc	r6, [r3], #-1396	; 0xfffffa8c
      f4:	322d392f 	eorcc	r3, sp, #770048	; 0xbc000
      f8:	71393130 	teqvc	r9, r0, lsr r1
      fc:	73632d34 	cmnvc	r3, #52, 26	; 0xd00
     100:	65373031 	ldrvs	r3, [r7, #-49]!	; 0xffffffcf
     104:	62696c2f 	rsbvs	r6, r9, #12032	; 0x2f00
     108:	6363672f 	cmnvs	r3, #12320768	; 0xbc0000
     10c:	6d72612f 	ldfvse	f6, [r2, #-188]!	; 0xffffff44
     110:	6e6f6e2d 	cdpvs	14, 6, cr6, cr15, cr13, {1}
     114:	61652d65 	cmnvs	r5, r5, ror #26
     118:	392f6962 	stmdbcc	pc!, {r1, r5, r6, r8, fp, sp, lr}	; <UNPREDICTABLE>
     11c:	312e322e 			; <UNDEFINED> instruction: 0x312e322e
     120:	636e692f 	cmnvs	lr, #770048	; 0xbc000
     124:	6564756c 	strbvs	r7, [r4, #-1388]!	; 0xfffffa94
     128:	73552f00 	cmpvc	r5, #0, 30
     12c:	2f737265 	svccs	0x00737265
     130:	73697274 	cmnvc	r9, #116, 4	; 0x40000007
     134:	6e6e6574 	mcrvs	5, 3, r6, cr14, cr4, {3}
     138:	6d6c6c6f 	stclvs	12, cr6, [ip, #-444]!	; 0xfffffe44
     13c:	442f6e61 	strtmi	r6, [pc], #-3681	; 144 <LINK_ADDR-0x7ebc>
     140:	6d75636f 	ldclvs	3, cr6, [r5, #-444]!	; 0xfffffe44
     144:	73746e65 	cmnvc	r4, #1616	; 0x650
     148:	7270532f 	rsbsvc	r5, r0, #-1140850688	; 0xbc000000
     14c:	5f676e69 	svcpl	0x00676e69
     150:	72617551 	rsbvc	r7, r1, #339738624	; 0x14400000
     154:	5f726574 	svcpl	0x00726574
     158:	32323032 	eorscc	r3, r2, #50, 0	; 0x32
     15c:	3253432f 	subscc	r4, r3, #-1140850688	; 0xbc000000
     160:	584c3034 	stmdapl	ip, {r2, r4, r5, ip, sp}^
     164:	7270732d 	rsbsvc	r7, r0, #-1275068416	; 0xb4000000
     168:	2f2f3232 	svccs	0x002f3232
     16c:	7062696c 	rsbvc	r6, r2, ip, ror #18
     170:	6e692f69 	cdpvs	15, 6, cr2, cr9, cr9, {3}
     174:	64756c63 	ldrbtvs	r6, [r5], #-3171	; 0xfffff39d
     178:	70000065 	andvc	r0, r0, r5, rrx
     17c:	746e6972 	strbtvc	r6, [lr], #-2418	; 0xfffff68e
     180:	00632e6b 	rsbeq	r2, r3, fp, ror #28
     184:	73000001 	movwvc	r0, #1
     188:	72616474 	rsbvc	r6, r1, #116, 8	; 0x74000000
     18c:	00682e67 	rsbeq	r2, r8, r7, ror #28
     190:	72000002 	andvc	r0, r0, #2, 0
     194:	682e6970 	stmdavs	lr!, {r4, r5, r6, r8, fp, sp, lr}
     198:	00000300 	andeq	r0, r0, r0, lsl #6
     19c:	6975623c 	ldmdbvs	r5!, {r2, r3, r4, r5, r9, sp, lr}^
     1a0:	692d746c 	pushvs	{r2, r3, r5, r6, sl, ip, sp, lr}
     1a4:	00003e6e 	andeq	r3, r0, lr, ror #28
     1a8:	61760000 	cmnvs	r6, r0
     1ac:	6972702d 	ldmdbvs	r2!, {r0, r2, r3, r5, ip, sp, lr}^
     1b0:	2e6b746e 	cdpcs	4, 6, cr7, cr11, cr14, {3}
     1b4:	00010068 	andeq	r0, r1, r8, rrx
     1b8:	22050000 	andcs	r0, r5, #0, 0
     1bc:	b8020500 	stmdalt	r2, {r8, sl}
     1c0:	17000080 	strne	r0, [r0, -r0, lsl #1]
     1c4:	05050106 	streq	r0, [r5, #-262]	; 0xfffffefa
     1c8:	14136806 	ldrne	r6, [r3], #-2054	; 0xfffff7fa
     1cc:	054b0905 	strbeq	r0, [fp, #-2309]	; 0xfffff6fb
     1d0:	05010612 	streq	r0, [r1, #-1554]	; 0xfffff9ee
     1d4:	16bb0605 	ldrtne	r0, [fp], r5, lsl #12
     1d8:	34066606 	strcc	r6, [r6], #-1542	; 0xfffff9fa
     1dc:	13060105 	movwne	r0, #24837	; 0x6105
     1e0:	00080266 	andeq	r0, r8, r6, ror #4
     1e4:	00cc0101 	sbceq	r0, ip, r1, lsl #2
     1e8:	00030000 	andeq	r0, r3, r0
     1ec:	0000007e 	andeq	r0, r0, lr, ror r0
     1f0:	0efb0102 	cdpeq	1, 15, cr0, cr11, cr2, {0}
     1f4:	0101000d 	tsteq	r1, sp
     1f8:	00000101 	andeq	r0, r0, r1, lsl #2
     1fc:	00000100 	andeq	r0, r0, r0, lsl #2
     200:	6c2f2e01 	stcvs	14, cr2, [pc], #-4	; 204 <LINK_ADDR-0x7dfc>
     204:	00636269 	rsbeq	r6, r3, r9, ror #4
     208:	6573552f 	ldrbvs	r5, [r3, #-1327]!	; 0xfffffad1
     20c:	742f7372 	strtvc	r7, [pc], #-882	; 214 <LINK_ADDR-0x7dec>
     210:	74736972 	ldrbtvc	r6, [r3], #-2418	; 0xfffff68e
     214:	6f6e6e65 	svcvs	0x006e6e65
     218:	616d6c6c 	cmnvs	sp, ip, ror #24
     21c:	6f442f6e 	svcvs	0x00442f6e
     220:	656d7563 	strbvs	r7, [sp, #-1379]!	; 0xfffffa9d
     224:	2f73746e 	svccs	0x0073746e
     228:	69727053 	ldmdbvs	r2!, {r0, r1, r4, r6, ip, sp, lr}^
     22c:	515f676e 	cmppl	pc, lr, ror #14
     230:	74726175 	ldrbtvc	r6, [r2], #-373	; 0xfffffe8b
     234:	325f7265 	subscc	r7, pc, #1342177286	; 0x50000006
     238:	2f323230 	svccs	0x00323230
     23c:	34325343 	ldrtcc	r5, [r2], #-835	; 0xfffffcbd
     240:	2d584c30 	ldclcs	12, cr4, [r8, #-192]	; 0xffffff40
     244:	32727073 	rsbscc	r7, r2, #115, 0	; 0x73
     248:	6c2f2f32 	stcvs	15, cr2, [pc], #-200	; 188 <LINK_ADDR-0x7e78>
     24c:	69706269 	ldmdbvs	r0!, {r0, r3, r5, r6, r9, sp, lr}^
     250:	636e692f 	cmnvs	lr, #770048	; 0xbc000
     254:	6564756c 	strbvs	r7, [r4, #-1388]!	; 0xfffffa94
     258:	75700000 	ldrbvc	r0, [r0, #-0]!
     25c:	632e6b74 			; <UNDEFINED> instruction: 0x632e6b74
     260:	00000100 	andeq	r0, r0, r0, lsl #2
     264:	2e697072 	mcrcs	0, 3, r7, cr9, cr2, {3}
     268:	00020068 	andeq	r0, r2, r8, rrx
     26c:	22050000 	andcs	r0, r5, #0, 0
     270:	10020500 	andne	r0, r2, r0, lsl #10
     274:	15000081 	strne	r0, [r0, #-129]	; 0xffffff7f
     278:	05050106 	streq	r0, [r5, #-262]	; 0xfffffefa
     27c:	0b054b06 	bleq	152e9c <__bss_end__+0x149aec>
     280:	01040200 	mrseq	r0, R12_usr
     284:	00050501 	andeq	r0, r5, r1, lsl #10
     288:	06010402 	streq	r0, [r1], -r2, lsl #8
     28c:	0009052e 	andeq	r0, r9, lr, lsr #10
     290:	06020402 	streq	r0, [r2], -r2, lsl #8
     294:	000f054b 	andeq	r0, pc, fp, asr #10
     298:	65020402 	strvs	r0, [r2, #-1026]	; 0xfffffbfe
     29c:	02001005 	andeq	r1, r0, #5, 0
     2a0:	01060204 	tsteq	r6, r4, lsl #4
     2a4:	02040200 	andeq	r0, r4, #0, 4
     2a8:	0605052e 	streq	r0, [r5], -lr, lsr #10
     2ac:	06010532 			; <UNDEFINED> instruction: 0x06010532
     2b0:	00060213 	andeq	r0, r6, r3, lsl r2
     2b4:	061e0101 	ldreq	r0, [lr], -r1, lsl #2
     2b8:	00030000 	andeq	r0, r3, r0
     2bc:	00000118 	andeq	r0, r0, r8, lsl r1
     2c0:	0efb0102 	cdpeq	1, 15, cr0, cr11, cr2, {0}
     2c4:	0101000d 	tsteq	r1, sp
     2c8:	00000101 	andeq	r0, r0, r1, lsl #2
     2cc:	00000100 	andeq	r0, r0, r0, lsl #2
     2d0:	6c2f2e01 	stcvs	14, cr2, [pc], #-4	; 2d4 <LINK_ADDR-0x7d2c>
     2d4:	00636269 	rsbeq	r6, r3, r9, ror #4
     2d8:	7273752f 	rsbsvc	r7, r3, #197132288	; 0xbc00000
     2dc:	636f6c2f 	cmnvs	pc, #12032	; 0x2f00
     2e0:	432f6c61 			; <UNDEFINED> instruction: 0x432f6c61
     2e4:	616c6c65 	cmnvs	ip, r5, ror #24
     2e8:	72612f72 	rsbvc	r2, r1, #456	; 0x1c8
     2ec:	6f6e2d6d 	svcvs	0x006e2d6d
     2f0:	652d656e 	strvs	r6, [sp, #-1390]!	; 0xfffffa92
     2f4:	2d696261 	sfmcs	f6, 2, [r9, #-388]!	; 0xfffffe7c
     2f8:	74736574 	ldrbtvc	r6, [r3], #-1396	; 0xfffffa8c
     2fc:	322d392f 	eorcc	r3, sp, #770048	; 0xbc000
     300:	71393130 	teqvc	r9, r0, lsr r1
     304:	73632d34 	cmnvc	r3, #52, 26	; 0xd00
     308:	65373031 	ldrvs	r3, [r7, #-49]!	; 0xffffffcf
     30c:	62696c2f 	rsbvs	r6, r9, #12032	; 0x2f00
     310:	6363672f 	cmnvs	r3, #12320768	; 0xbc0000
     314:	6d72612f 	ldfvse	f6, [r2, #-188]!	; 0xffffff44
     318:	6e6f6e2d 	cdpvs	14, 6, cr6, cr15, cr13, {1}
     31c:	61652d65 	cmnvs	r5, r5, ror #26
     320:	392f6962 	stmdbcc	pc!, {r1, r5, r6, r8, fp, sp, lr}	; <UNPREDICTABLE>
     324:	312e322e 			; <UNDEFINED> instruction: 0x312e322e
     328:	636e692f 	cmnvs	lr, #770048	; 0xbc000
     32c:	6564756c 	strbvs	r7, [r4, #-1388]!	; 0xfffffa94
     330:	73552f00 	cmpvc	r5, #0, 30
     334:	2f737265 	svccs	0x00737265
     338:	73697274 	cmnvc	r9, #116, 4	; 0x40000007
     33c:	6e6e6574 	mcrvs	5, 3, r6, cr14, cr4, {3}
     340:	6d6c6c6f 	stclvs	12, cr6, [ip, #-444]!	; 0xfffffe44
     344:	442f6e61 	strtmi	r6, [pc], #-3681	; 34c <LINK_ADDR-0x7cb4>
     348:	6d75636f 	ldclvs	3, cr6, [r5, #-444]!	; 0xfffffe44
     34c:	73746e65 	cmnvc	r4, #1616	; 0x650
     350:	7270532f 	rsbsvc	r5, r0, #-1140850688	; 0xbc000000
     354:	5f676e69 	svcpl	0x00676e69
     358:	72617551 	rsbvc	r7, r1, #339738624	; 0x14400000
     35c:	5f726574 	svcpl	0x00726574
     360:	32323032 	eorscc	r3, r2, #50, 0	; 0x32
     364:	3253432f 	subscc	r4, r3, #-1140850688	; 0xbc000000
     368:	584c3034 	stmdapl	ip, {r2, r4, r5, ip, sp}^
     36c:	7270732d 	rsbsvc	r7, r0, #-1275068416	; 0xb4000000
     370:	2f2f3232 	svccs	0x002f3232
     374:	7062696c 	rsbvc	r6, r2, ip, ror #18
     378:	6e692f69 	cdpvs	15, 6, cr2, cr9, cr9, {3}
     37c:	64756c63 	ldrbtvs	r6, [r5], #-3171	; 0xfffff39d
     380:	76000065 	strvc	r0, [r0], -r5, rrx
     384:	72702d61 	rsbsvc	r2, r0, #6208	; 0x1840
     388:	6b746e69 	blvs	1d1bd34 <__bss_end__+0x1d12984>
     38c:	0100632e 	tsteq	r0, lr, lsr #6
     390:	74730000 	ldrbtvc	r0, [r3], #-0
     394:	746e6964 	strbtvc	r6, [lr], #-2404	; 0xfffff69c
     398:	6363672d 	cmnvs	r3, #11796480	; 0xb40000
     39c:	0200682e 	andeq	r6, r0, #3014656	; 0x2e0000
     3a0:	70720000 	rsbsvc	r0, r2, r0
     3a4:	00682e69 	rsbeq	r2, r8, r9, ror #28
     3a8:	72000003 	andvc	r0, r0, #3, 0
     3ac:	692d6970 	pushvs	{r4, r5, r6, r8, fp, sp, lr}
     3b0:	7265746e 	rsbvc	r7, r5, #1845493760	; 0x6e000000
     3b4:	2e6c616e 	powcsez	f6, f4, #0.5
     3b8:	00030068 	andeq	r0, r3, r8, rrx
     3bc:	64747300 	ldrbtvs	r7, [r4], #-768	; 0xfffffd00
     3c0:	2e677261 	cdpcs	2, 6, cr7, cr7, cr1, {3}
     3c4:	00020068 	andeq	r0, r2, r8, rrx
     3c8:	75623c00 	strbvc	r3, [r2, #-3072]!	; 0xfffff400
     3cc:	2d746c69 	ldclcs	12, cr6, [r4, #-420]!	; 0xfffffe5c
     3d0:	003e6e69 	eorseq	r6, lr, r9, ror #28
     3d4:	00000000 	andeq	r0, r0, r0
     3d8:	05001b05 	streq	r1, [r0, #-2821]	; 0xfffff4fb
     3dc:	00814402 	addeq	r4, r1, r2, lsl #8
     3e0:	01260300 			; <UNDEFINED> instruction: 0x01260300
     3e4:	05011d05 	streq	r1, [r1, #-3333]	; 0xfffff2fb
     3e8:	0501062d 	streq	r0, [r1, #-1581]	; 0xfffff9d3
     3ec:	054a2e01 	strbeq	r2, [sl, #-3585]	; 0xfffff1ff
     3f0:	05510633 	ldrbeq	r0, [r1, #-1587]	; 0xfffff9cd
     3f4:	06051302 	streq	r1, [r5], -r2, lsl #6
     3f8:	02050106 	andeq	r0, r5, #-2147483647	; 0x80000001
     3fc:	08053006 	stmdaeq	r5, {r1, r2, ip, sp}
     400:	01040200 	mrseq	r0, R12_usr
     404:	00020501 	andeq	r0, r2, r1, lsl #10
     408:	06010402 	streq	r0, [r1], -r2, lsl #8
     40c:	00030501 	andeq	r0, r3, r1, lsl #10
     410:	06020402 	streq	r0, [r2], -r2, lsl #8
     414:	0008052f 	andeq	r0, r8, pc, lsr #10
     418:	06020402 	streq	r0, [r2], -r2, lsl #8
     41c:	00150501 	andseq	r0, r5, r1, lsl #10
     420:	06020402 	streq	r0, [r2], -r2, lsl #8
     424:	00180549 	andseq	r0, r8, r9, asr #10
     428:	06020402 	streq	r0, [r2], -r2, lsl #8
     42c:	04020001 	streq	r0, [r2], #-1
     430:	02052e02 	andeq	r2, r5, #2, 28
     434:	05053006 	streq	r3, [r5, #-6]
     438:	02050106 	andeq	r0, r5, #-2147483647	; 0x80000001
     43c:	01054b06 	tsteq	r5, r6, lsl #22
     440:	3e051306 	cdpcc	3, 0, cr1, cr5, cr6, {0}
     444:	02053106 	andeq	r3, r5, #-2147483647	; 0x80000001
     448:	060e0514 			; <UNDEFINED> instruction: 0x060e0514
     44c:	2e060501 	cfsh32cs	mvfx0, mvfx6, #1
     450:	2f060205 	svccs	0x00060205
     454:	01060405 	tsteq	r6, r5, lsl #8
     458:	2f060305 	svccs	0x00060305
     45c:	01061105 	tsteq	r6, r5, lsl #2
     460:	052e0905 	streq	r0, [lr, #-2309]!	; 0xfffff6fb
     464:	15300602 	ldrne	r0, [r0, #-1538]!	; 0xfffff9fe
     468:	01060705 	tsteq	r6, r5, lsl #14
     46c:	052e0205 	streq	r0, [lr, #-517]!	; 0xfffffdfb
     470:	0402000b 	streq	r0, [r2], #-11
     474:	052e0601 	streq	r0, [lr, #-1537]!	; 0xfffff9ff
     478:	04020002 	streq	r0, [r2], #-2
     47c:	05010601 	streq	r0, [r1, #-1537]	; 0xfffff9ff
     480:	04020003 	streq	r0, [r2], #-3
     484:	052f0603 	streq	r0, [pc, #-1539]!	; fffffe89 <__bss_end__+0xffff6ad9>
     488:	0402000c 	streq	r0, [r2], #-12
     48c:	05010603 	streq	r0, [r1, #-1539]	; 0xfffff9fd
     490:	0402000a 	streq	r0, [r2], #-10
     494:	17052e03 	strne	r2, [r5, -r3, lsl #28]
     498:	03040200 	movweq	r0, #16896	; 0x4200
     49c:	02002d06 	andeq	r2, r0, #384	; 0x180
     4a0:	01060304 	tsteq	r6, r4, lsl #6
     4a4:	30060205 	andcc	r0, r6, r5, lsl #4
     4a8:	01060905 	tsteq	r6, r5, lsl #18
     4ac:	0602052e 	streq	r0, [r2], -lr, lsr #10
     4b0:	06010530 			; <UNDEFINED> instruction: 0x06010530
     4b4:	06490513 			; <UNDEFINED> instruction: 0x06490513
     4b8:	05010631 	streq	r0, [r1, #-1585]	; 0xfffff9cf
     4bc:	05a00602 	streq	r0, [r0, #1538]!	; 0x602
     4c0:	05010604 	streq	r0, [r1, #-1540]	; 0xfffff9fc
     4c4:	052f0603 	streq	r0, [pc, #-1539]!	; fffffec9 <__bss_end__+0xffff6b19>
     4c8:	05010609 	streq	r0, [r1, #-1545]	; 0xfffff9f7
     4cc:	13300602 	teqne	r0, #2097152	; 0x200000
     4d0:	01060b05 	tsteq	r6, r5, lsl #22
     4d4:	30060205 	andcc	r0, r6, r5, lsl #4
     4d8:	04052e06 	streq	r2, [r5], #-3590	; 0xfffff1fa
     4dc:	15240206 	strne	r0, [r4, #-518]!	; 0xfffffdfa
     4e0:	060f0513 			; <UNDEFINED> instruction: 0x060f0513
     4e4:	06052e01 	streq	r2, [r5], -r1, lsl #28
     4e8:	0605054a 	streq	r0, [r5], -sl, asr #10
     4ec:	0905134b 	stmdbeq	r5, {r0, r1, r3, r6, r8, r9, ip}
     4f0:	05050106 	streq	r0, [r5, #-262]	; 0xfffffefa
     4f4:	0b052f06 	bleq	14c114 <__bss_end__+0x142d64>
     4f8:	0d051006 	stceq	0, cr1, [r5, #-24]	; 0xffffffe8
     4fc:	01040200 	mrseq	r0, R12_usr
     500:	0004052c 	andeq	r0, r4, ip, lsr #10
     504:	06010402 	streq	r0, [r1], -r2, lsl #8
     508:	00050534 	andeq	r0, r5, r4, lsr r5
     50c:	13010402 	movwne	r0, #5122	; 0x1402
     510:	02001b05 	andeq	r1, r0, #5120	; 0x1400
     514:	01060104 	tsteq	r6, r4, lsl #2
     518:	02000705 	andeq	r0, r0, #1310720	; 0x140000
     51c:	05d60104 	ldrbeq	r0, [r6, #260]	; 0x104
     520:	04020018 	streq	r0, [r2], #-24	; 0xffffffe8
     524:	0a052e01 	beq	14bd30 <__bss_end__+0x142980>
     528:	01040200 	mrseq	r0, R12_usr
     52c:	000b054a 	andeq	r0, fp, sl, asr #10
     530:	06010402 	streq	r0, [r1], -r2, lsl #8
     534:	000e052f 	andeq	r0, lr, pc, lsr #10
     538:	06010402 	streq	r0, [r1], -r2, lsl #8
     53c:	0004052e 	andeq	r0, r4, lr, lsr #10
     540:	2e010402 	cdpcs	4, 0, cr0, cr1, cr2, {0}
     544:	06054b06 	streq	r4, [r5], -r6, lsl #22
     548:	05050106 	streq	r0, [r5, #-262]	; 0xfffffefa
     54c:	0a052f06 	beq	14c16c <__bss_end__+0x142dbc>
     550:	07050106 	streq	r0, [r5, -r6, lsl #2]
     554:	0d052e4a 	stceq	14, cr2, [r5, #-296]	; 0xfffffed8
     558:	4a2e7603 	bmi	b9dd6c <__bss_end__+0xb949bc>
     55c:	050d0b05 	streq	r0, [sp, #-2821]	; 0xfffff4fb
     560:	0402000d 	streq	r0, [r2], #-13
     564:	14030601 	strne	r0, [r3], #-1537	; 0xfffff9ff
     568:	0011052e 	andseq	r0, r1, lr, lsr #10
     56c:	13010402 	movwne	r0, #5122	; 0x1402
     570:	02002d05 	andeq	r2, r0, #320	; 0x140
     574:	01060104 	tsteq	r6, r4, lsl #2
     578:	02002a05 	andeq	r2, r0, #20480	; 0x5000
     57c:	052e0104 	streq	r0, [lr, #-260]!	; 0xfffffefc
     580:	04020016 	streq	r0, [r2], #-22	; 0xffffffea
     584:	14054a01 	strne	r4, [r5], #-2561	; 0xfffff5ff
     588:	01040200 	mrseq	r0, R12_usr
     58c:	0d054b06 	vstreq	d4, [r5, #-24]	; 0xffffffe8
     590:	01040200 	mrseq	r0, R12_usr
     594:	02000106 	andeq	r0, r0, #-2147483647	; 0x80000001
     598:	064a0104 	strbeq	r0, [sl], -r4, lsl #2
     59c:	0612052f 	ldreq	r0, [r2], -pc, lsr #10
     5a0:	0d054a01 	vstreq	s8, [r5, #-4]
     5a4:	12052f06 	andne	r2, r5, #6, 30
     5a8:	19050106 	stmdbne	r5, {r1, r2, r8}
     5ac:	04054b06 	streq	r4, [r5], #-2822	; 0xfffff4fa
     5b0:	02040200 	andeq	r0, r4, #0, 4
     5b4:	00011103 	andeq	r1, r1, r3, lsl #2
     5b8:	01020402 	tsteq	r2, r2, lsl #8
     5bc:	02000205 	andeq	r0, r0, #1342177280	; 0x50000000
     5c0:	05150204 	ldreq	r0, [r5, #-516]	; 0xfffffdfc
     5c4:	04020009 	streq	r0, [r2], #-9
     5c8:	00010602 	andeq	r0, r1, r2, lsl #12
     5cc:	4a020402 	bmi	815dc <__bss_end__+0x7822c>
     5d0:	02000105 	andeq	r0, r0, #1073741825	; 0x40000001
     5d4:	059f0204 	ldreq	r0, [pc, #516]	; 7e0 <LINK_ADDR-0x7820>
     5d8:	6e030604 	cfmadd32vs	mvax0, mvfx0, mvfx3, mvfx4
     5dc:	0609054a 	streq	r0, [r9], -sl, asr #10
     5e0:	06040501 	streq	r0, [r4], -r1, lsl #10
     5e4:	0606052f 	streq	r0, [r6], -pc, lsr #10
     5e8:	2f040511 	svccs	0x00040511
     5ec:	63030b05 	movwvs	r0, #15109	; 0x3b05
     5f0:	0019052e 	andseq	r0, r9, lr, lsr #10
     5f4:	06010402 	streq	r0, [r1], -r2, lsl #8
     5f8:	052e2403 	streq	r2, [lr, #-1027]!	; 0xfffffbfd
     5fc:	0402001a 	streq	r0, [r2], #-26	; 0xffffffe6
     600:	28051301 	stmdacs	r5, {r0, r8, r9, ip}
     604:	01040200 	mrseq	r0, R12_usr
     608:	25050106 	strcs	r0, [r5, #-262]	; 0xfffffefa
     60c:	01040200 	mrseq	r0, R12_usr
     610:	001f052e 	andseq	r0, pc, lr, lsr #10
     614:	4a010402 	bmi	41624 <__bss_end__+0x38274>
     618:	02000b05 	andeq	r0, r0, #5120	; 0x1400
     61c:	4b060104 	blmi	180a34 <__bss_end__+0x177684>
     620:	02000405 	andeq	r0, r0, #83886080	; 0x5000000
     624:	01060104 	tsteq	r6, r4, lsl #2
     628:	01040200 	mrseq	r0, R12_usr
     62c:	0402004a 	streq	r0, [r2], #-74	; 0xffffffb6
     630:	004e0601 	subeq	r0, lr, r1, lsl #12
     634:	01010402 	tsteq	r1, r2, lsl #8
     638:	01040200 	mrseq	r0, R12_usr
     63c:	04020001 	streq	r0, [r2], #-1
     640:	02000101 	andeq	r0, r0, #1073741824	; 0x40000000
     644:	2e060104 	adfcss	f0, f6, f4
     648:	01040200 	mrseq	r0, R12_usr
     64c:	04020066 	streq	r0, [r2], #-102	; 0xffffff9a
     650:	02002e01 	andeq	r2, r0, #1, 28
     654:	4a060104 	bmi	180a6c <__bss_end__+0x1776bc>
     658:	a6034805 	strge	r4, [r3], -r5, lsl #16
     65c:	0520087f 	streq	r0, [r0, #-2175]!	; 0xfffff781
     660:	06011305 	streq	r1, [r1], -r5, lsl #6
     664:	0402002e 	streq	r0, [r2], #-46	; 0xffffffd2
     668:	002e0602 	eoreq	r0, lr, r2, lsl #12
     66c:	01020402 	tsteq	r2, r2, lsl #8
     670:	02040200 	andeq	r0, r4, #0, 4
     674:	00110513 	andseq	r0, r1, r3, lsl r5
     678:	06020402 	streq	r0, [r2], -r2, lsl #8
     67c:	00050501 	andeq	r0, r5, r1, lsl #10
     680:	06020402 	streq	r0, [r2], -r2, lsl #8
     684:	0007054b 	andeq	r0, r7, fp, asr #10
     688:	06020402 	streq	r0, [r2], -r2, lsl #8
     68c:	06090501 	streq	r0, [r9], -r1, lsl #10
     690:	060e054b 	streq	r0, [lr], -fp, asr #10
     694:	00480501 	subeq	r0, r8, r1, lsl #10
     698:	62010402 	andvs	r0, r1, #33554432	; 0x2000000
     69c:	02000505 	andeq	r0, r0, #20971520	; 0x1400000
     6a0:	4b060104 	blmi	180ab8 <__bss_end__+0x177708>
     6a4:	01040200 	mrseq	r0, R12_usr
     6a8:	04020001 	streq	r0, [r2], #-1
     6ac:	009e0601 	addseq	r0, lr, r1, lsl #12
     6b0:	2e010402 	cdpcs	4, 0, cr0, cr1, cr2, {0}
     6b4:	01040200 	mrseq	r0, R12_usr
     6b8:	40052e06 	andmi	r2, r5, r6, lsl #28
     6bc:	d600e103 	strle	lr, [r0], -r3, lsl #2
     6c0:	02050106 	andeq	r0, r5, #-2147483647	; 0x80000001
     6c4:	1e059f06 	cdpne	15, 0, cr9, cr5, cr6, {0}
     6c8:	12050106 	andne	r0, r5, #-2147483647	; 0x80000001
     6cc:	0605052e 	streq	r0, [r5], -lr, lsr #10
     6d0:	1402052f 	strne	r0, [r2], #-1327	; 0xfffffad1
     6d4:	01060905 	tsteq	r6, r5, lsl #18
     6d8:	4b060505 	blmi	181af4 <__bss_end__+0x178744>
     6dc:	05130205 	ldreq	r0, [r3, #-517]	; 0xfffffdfb
     6e0:	050d0608 	streq	r0, [sp, #-1544]	; 0xfffff9f8
     6e4:	04053302 	streq	r3, [r5], #-770	; 0xfffffcfe
     6e8:	0f054c06 	svceq	0x00054c06
     6ec:	09050106 	stmdbeq	r5, {r1, r2, r8}
     6f0:	0608052e 	streq	r0, [r8], -lr, lsr #10
     6f4:	0602052c 	streq	r0, [r2], -ip, lsr #10
     6f8:	000d052e 	andeq	r0, sp, lr, lsr #10
     6fc:	4a010402 	bmi	4170c <__bss_end__+0x3835c>
     700:	4b060305 	blmi	18131c <__bss_end__+0x177f6c>
     704:	01060505 	tsteq	r6, r5, lsl #10
     708:	4d060805 	stcmi	8, cr0, [r6, #-20]	; 0xffffffec
     70c:	01060e05 	tsteq	r6, r5, lsl #28
     710:	052e0a05 	streq	r0, [lr, #-2565]!	; 0xfffff5fb
     714:	052f0604 	streq	r0, [pc, #-1540]!	; 118 <LINK_ADDR-0x7ee8>
     718:	05010609 	streq	r0, [r1, #-1545]	; 0xfffff9f7
     71c:	052f0604 	streq	r0, [pc, #-1540]!	; 120 <LINK_ADDR-0x7ee0>
     720:	2e010607 	cfmadd32cs	mvax0, mvfx0, mvfx1, mvfx7
     724:	30060405 	andcc	r0, r6, r5, lsl #8
     728:	01060705 	tsteq	r6, r5, lsl #14
     72c:	30060405 	andcc	r0, r6, r5, lsl #8
     730:	0d051413 	cfstrseq	mvf1, [r5, #-76]	; 0xffffffb4
     734:	09051006 	stmdbeq	r5, {r1, r2, ip}
     738:	12053006 	andne	r3, r5, #6, 0
     73c:	0a050106 	beq	140b5c <__bss_end__+0x1377ac>
     740:	6609052e 	strvs	r0, [r9], -lr, lsr #10
     744:	4b060505 	blmi	181b60 <__bss_end__+0x1787b0>
     748:	01061205 	tsteq	r6, r5, lsl #4
     74c:	052e1605 	streq	r1, [lr, #-1541]!	; 0xfffff9fb
     750:	05052e0b 	streq	r2, [r5, #-3595]	; 0xfffff1f5
     754:	08052f06 	stmdaeq	r5, {r1, r2, r8, r9, sl, fp, sp}
     758:	052e0106 	streq	r0, [lr, #-262]!	; 0xfffffefa
     75c:	01300604 	teqeq	r0, r4, lsl #12
     760:	0015014a 	andseq	r0, r5, sl, asr #2
     764:	02010402 	andeq	r0, r1, #33554432	; 0x2000000
     768:	02000f36 	andeq	r0, r0, #216	; 0xd8
     76c:	00010104 	andeq	r0, r1, r4, lsl #2
     770:	d6010402 	strle	r0, [r1], -r2, lsl #8
     774:	13341105 	teqne	r4, #1073741825	; 0x40000001
     778:	04020001 	streq	r0, [r2], #-1
     77c:	00ba0602 	adcseq	r0, sl, r2, lsl #12
     780:	06030402 	streq	r0, [r3], -r2, lsl #8
     784:	040200ba 	streq	r0, [r2], #-186	; 0xffffff46
     788:	02000103 	andeq	r0, r0, #-1073741824	; 0xc0000000
     78c:	05140304 	ldreq	r0, [r4, #-772]	; 0xfffffcfc
     790:	04020015 	streq	r0, [r2], #-21	; 0xffffffeb
     794:	05010603 	streq	r0, [r1, #-1539]	; 0xfffff9fd
     798:	04020011 	streq	r0, [r2], #-17	; 0xffffffef
     79c:	052f0603 	streq	r0, [pc, #-1539]!	; 1a1 <LINK_ADDR-0x7e5f>
     7a0:	0402001a 	streq	r0, [r2], #-26	; 0xffffffe6
     7a4:	05010603 	streq	r0, [r1, #-1539]	; 0xfffff9fd
     7a8:	04020011 	streq	r0, [r2], #-17	; 0xffffffef
     7ac:	00d70603 	sbcseq	r0, r7, r3, lsl #12
     7b0:	13030402 	movwne	r0, #13314	; 0x3402
     7b4:	03040200 	movweq	r0, #16896	; 0x4200
     7b8:	04020014 	streq	r0, [r2], #-20	; 0xffffffec
     7bc:	02006703 	andeq	r6, r0, #786432	; 0xc0000
     7c0:	05680304 	strbeq	r0, [r8, #-772]!	; 0xfffffcfc
     7c4:	04020014 	streq	r0, [r2], #-20	; 0xffffffec
     7c8:	05010603 	streq	r0, [r1, #-1539]	; 0xfffff9fd
     7cc:	04020013 	streq	r0, [r2], #-19	; 0xffffffed
     7d0:	18058203 	stmdane	r5, {r0, r1, r9, pc}
     7d4:	1b054e06 	blne	153ff4 <__bss_end__+0x14ac44>
     7d8:	1a050106 	bne	140bf8 <__bss_end__+0x137848>
     7dc:	06090582 	streq	r0, [r9], -r2, lsl #11
     7e0:	060d054b 	streq	r0, [sp], -fp, asr #10
     7e4:	09052e01 	stmdbeq	r5, {r0, r9, sl, fp, sp}
     7e8:	ba06f306 	blt	1bd408 <__bss_end__+0x1b4058>
     7ec:	30061505 	andcc	r1, r6, r5, lsl #10
     7f0:	01061805 	tsteq	r6, r5, lsl #16
     7f4:	05661705 	strbeq	r1, [r6, #-1797]!	; 0xfffff8fb
     7f8:	054b0619 	strbeq	r0, [fp, #-1561]	; 0xfffff9e7
     7fc:	6f030615 	svcvs	0x00030615
     800:	06110566 	ldreq	r0, [r1], -r6, ror #10
     804:	05d60148 	ldrbeq	r0, [r6, #328]	; 0x148
     808:	2e0b0309 	cdpcs	3, 0, cr0, cr11, cr9, {0}
     80c:	01060d05 	tsteq	r6, r5, lsl #26
     810:	0609052e 	streq	r0, [r9], -lr, lsr #10
     814:	05ba06f3 	ldreq	r0, [sl, #1779]!	; 0x6f3
     818:	062f0615 			; <UNDEFINED> instruction: 0x062f0615
     81c:	05667503 	strbeq	r7, [r6, #-1283]!	; 0xfffffafd
     820:	13030619 	movwne	r0, #13849	; 0x3619
     824:	0615054a 	ldreq	r0, [r5], -sl, asr #10
     828:	06666d03 	strbteq	r6, [r6], -r3, lsl #26
     82c:	014a1503 	cmpeq	sl, r3, lsl #10
     830:	052e06ba 	streq	r0, [lr, #-1722]!	; 0xfffff946
     834:	011a0605 	tsteq	sl, r5, lsl #12
     838:	0e032e9e 	mcreq	14, 0, r2, cr3, cr14, {4}
     83c:	06090501 	streq	r0, [r9], -r1, lsl #10
     840:	06050501 	streq	r0, [r5], -r1, lsl #10
     844:	04057508 	streq	r7, [r5], #-1288	; 0xfffffaf8
     848:	05011803 	streq	r1, [r1, #-2051]	; 0xfffff7fd
     84c:	05010607 	streq	r0, [r1, #-1543]	; 0xfffff9f9
     850:	05310604 	ldreq	r0, [r1, #-1540]!	; 0xfffff9fc
     854:	2e670305 	cdpcs	3, 6, cr0, cr7, cr5, {0}
     858:	01061c05 	tsteq	r6, r5, lsl #24
     85c:	05820905 	streq	r0, [r2, #2309]	; 0x905
     860:	31f30605 	mvnscc	r0, r5, lsl #12
     864:	01061c05 	tsteq	r6, r5, lsl #24
     868:	05820905 	streq	r0, [r2, #2309]	; 0x905
     86c:	30f30605 	rscscc	r0, r3, r5, lsl #12
     870:	01061b05 	tsteq	r6, r5, lsl #22
     874:	05820905 	streq	r0, [r2, #2309]	; 0x905
     878:	30f30605 	rscscc	r0, r3, r5, lsl #12
     87c:	01060705 	tsteq	r6, r5, lsl #14
     880:	83060505 	movwhi	r0, #25861	; 0x6505
     884:	06090530 			; <UNDEFINED> instruction: 0x06090530
     888:	06050501 	streq	r0, [r5], -r1, lsl #10
     88c:	11057508 	tstne	r5, r8, lsl #10
     890:	06220530 			; <UNDEFINED> instruction: 0x06220530
     894:	06050501 	streq	r0, [r5], -r1, lsl #10
     898:	8311054b 	tsthi	r1, #314572800	; 0x12c00000
     89c:	01830505 	orreq	r0, r3, r5, lsl #10
     8a0:	0e05359e 	mcreq	5, 0, r3, cr5, cr14, {4}
     8a4:	0a050106 	beq	140cc4 <__bss_end__+0x137914>
     8a8:	052d062e 	streq	r0, [sp, #-1582]!	; 0xfffff9d2
     8ac:	05010604 	streq	r0, [r1, #-1540]	; 0xfffff9fc
     8b0:	04020013 	streq	r0, [r2], #-19	; 0xffffffed
     8b4:	10054a01 	andne	r4, r5, r1, lsl #20
     8b8:	01040200 	mrseq	r0, R12_usr
     8bc:	0402002e 	streq	r0, [r2], #-46	; 0xffffffd2
     8c0:	02056601 	andeq	r6, r5, #1048576	; 0x100000
     8c4:	07051606 	streq	r1, [r5, -r6, lsl #12]
     8c8:	02050106 	andeq	r0, r5, #-2147483647	; 0x80000001
     8cc:	01054b06 	tsteq	r5, r6, lsl #22
     8d0:	02661306 	rsbeq	r1, r6, #402653184	; 0x18000000
     8d4:	0101001e 	tsteq	r1, lr, lsl r0
     8d8:	000000a6 	andeq	r0, r0, r6, lsr #1
     8dc:	008b0003 	addeq	r0, fp, r3
     8e0:	01020000 	mrseq	r0, (UNDEF: 2)
     8e4:	000d0efb 	strdeq	r0, [sp], -fp
     8e8:	01010101 	tsteq	r1, r1, lsl #2
     8ec:	01000000 	mrseq	r0, (UNDEF: 0)
     8f0:	2e010000 	cdpcs	0, 0, cr0, cr1, cr0, {0}
     8f4:	6174732f 	cmnvs	r4, pc, lsr #6
     8f8:	732d6666 			; <UNDEFINED> instruction: 0x732d6666
     8fc:	2f006372 	svccs	0x00006372
     900:	72657355 	rsbvc	r7, r5, #1409286145	; 0x54000001
     904:	72742f73 	rsbsvc	r2, r4, #460	; 0x1cc
     908:	65747369 	ldrbvs	r7, [r4, #-873]!	; 0xfffffc97
     90c:	6c6f6e6e 	stclvs	14, cr6, [pc], #-440	; 75c <LINK_ADDR-0x78a4>
     910:	6e616d6c 	cdpvs	13, 6, cr6, cr1, cr12, {3}
     914:	636f442f 	cmnvs	pc, #788529152	; 0x2f000000
     918:	6e656d75 	mcrvs	13, 3, r6, cr5, cr5, {3}
     91c:	532f7374 			; <UNDEFINED> instruction: 0x532f7374
     920:	6e697270 	mcrvs	2, 3, r7, cr9, cr0, {3}
     924:	75515f67 	ldrbvc	r5, [r1, #-3943]	; 0xfffff099
     928:	65747261 	ldrbvs	r7, [r4, #-609]!	; 0xfffffd9f
     92c:	30325f72 	eorscc	r5, r2, r2, ror pc
     930:	432f3232 			; <UNDEFINED> instruction: 0x432f3232
     934:	30343253 	eorscc	r3, r4, r3, asr r2
     938:	732d584c 			; <UNDEFINED> instruction: 0x732d584c
     93c:	32327270 	eorscc	r7, r2, #112, 4
     940:	696c2f2f 	stmdbvs	ip!, {r0, r1, r2, r3, r5, r8, r9, sl, fp, sp}^
     944:	2f697062 	svccs	0x00697062
     948:	6c636e69 	stclvs	14, cr6, [r3], #-420	; 0xfffffe5c
     94c:	00656475 	rsbeq	r6, r5, r5, ror r4
     950:	656c6300 	strbvs	r6, [ip, #-768]!	; 0xfffffd00
     954:	722d6e61 	eorvc	r6, sp, #1552	; 0x610
     958:	6f6f6265 	svcvs	0x006f6265
     95c:	00632e74 	rsbeq	r2, r3, r4, ror lr
     960:	72000001 	andvc	r0, r0, #1, 0
     964:	682e6970 	stmdavs	lr!, {r4, r5, r6, r8, fp, sp, lr}
     968:	00000200 	andeq	r0, r0, r0, lsl #4
     96c:	00190500 	andseq	r0, r9, r0, lsl #10
     970:	88840205 	stmhi	r4, {r0, r2, r9}
     974:	05150000 	ldreq	r0, [r5, #-0]
     978:	2f832f05 	svccs	0x00832f05
     97c:	0006024b 	andeq	r0, r6, fp, asr #4
     980:	00c00101 	sbceq	r0, r0, r1, lsl #2
     984:	00030000 	andeq	r0, r3, r0
     988:	00000085 	andeq	r0, r0, r5, lsl #1
     98c:	0efb0102 	cdpeq	1, 15, cr0, cr11, cr2, {0}
     990:	0101000d 	tsteq	r1, sp
     994:	00000101 	andeq	r0, r0, r1, lsl #2
     998:	00000100 	andeq	r0, r0, r0, lsl #2
     99c:	732f2e01 			; <UNDEFINED> instruction: 0x732f2e01
     9a0:	66666174 			; <UNDEFINED> instruction: 0x66666174
     9a4:	6372732d 	cmnvs	r2, #-1275068416	; 0xb4000000
     9a8:	73552f00 	cmpvc	r5, #0, 30
     9ac:	2f737265 	svccs	0x00737265
     9b0:	73697274 	cmnvc	r9, #116, 4	; 0x40000007
     9b4:	6e6e6574 	mcrvs	5, 3, r6, cr14, cr4, {3}
     9b8:	6d6c6c6f 	stclvs	12, cr6, [ip, #-444]!	; 0xfffffe44
     9bc:	442f6e61 	strtmi	r6, [pc], #-3681	; 9c4 <LINK_ADDR-0x763c>
     9c0:	6d75636f 	ldclvs	3, cr6, [r5, #-444]!	; 0xfffffe44
     9c4:	73746e65 	cmnvc	r4, #1616	; 0x650
     9c8:	7270532f 	rsbsvc	r5, r0, #-1140850688	; 0xbc000000
     9cc:	5f676e69 	svcpl	0x00676e69
     9d0:	72617551 	rsbvc	r7, r1, #339738624	; 0x14400000
     9d4:	5f726574 	svcpl	0x00726574
     9d8:	32323032 	eorscc	r3, r2, #50, 0	; 0x32
     9dc:	3253432f 	subscc	r4, r3, #-1140850688	; 0xbc000000
     9e0:	584c3034 	stmdapl	ip, {r2, r4, r5, ip, sp}^
     9e4:	7270732d 	rsbsvc	r7, r0, #-1275068416	; 0xb4000000
     9e8:	2f2f3232 	svccs	0x002f3232
     9ec:	7062696c 	rsbvc	r6, r2, ip, ror #18
     9f0:	6e692f69 	cdpvs	15, 6, cr2, cr9, cr9, {3}
     9f4:	64756c63 	ldrbtvs	r6, [r5], #-3171	; 0xfffff39d
     9f8:	63000065 	movwvs	r0, #101	; 0x65
     9fc:	72617473 	rsbvc	r7, r1, #1929379840	; 0x73000000
     a00:	00632e74 	rsbeq	r2, r3, r4, ror lr
     a04:	72000001 	andvc	r0, r0, #1, 0
     a08:	682e6970 	stmdavs	lr!, {r4, r5, r6, r8, fp, sp, lr}
     a0c:	00000200 	andeq	r0, r0, r0, lsl #4
     a10:	00100500 	andseq	r0, r0, r0, lsl #10
     a14:	88b00205 	ldmhi	r0!, {r0, r2, r9}
     a18:	05150000 	ldreq	r0, [r5, #-0]
     a1c:	02052f05 	andeq	r2, r5, #5, 30
     a20:	14050513 	strne	r0, [r5], #-1299	; 0xfffffaed
     a24:	05141330 	ldreq	r1, [r4, #-816]	; 0xfffffcd0
     a28:	060f060a 	streq	r0, [pc], -sl, lsl #12
     a2c:	4b090531 	blmi	241ef8 <__bss_end__+0x238b48>
     a30:	01061005 	tsteq	r6, r5
     a34:	0605054a 	streq	r0, [r5], -sl, asr #10
     a38:	01013230 	tsteq	r1, r0, lsr r2
     a3c:	0205144a 	andeq	r1, r5, #1241513984	; 0x4a000000
     a40:	0006022f 	andeq	r0, r6, pc, lsr #4
     a44:	00a40101 	adceq	r0, r4, r1, lsl #2
     a48:	00030000 	andeq	r0, r3, r0
     a4c:	0000008c 	andeq	r0, r0, ip, lsl #1
     a50:	0efb0102 	cdpeq	1, 15, cr0, cr11, cr2, {0}
     a54:	0101000d 	tsteq	r1, sp
     a58:	00000101 	andeq	r0, r0, r1, lsl #2
     a5c:	00000100 	andeq	r0, r0, r0, lsl #2
     a60:	732f2e01 			; <UNDEFINED> instruction: 0x732f2e01
     a64:	66666174 			; <UNDEFINED> instruction: 0x66666174
     a68:	6372732d 	cmnvs	r2, #-1275068416	; 0xb4000000
     a6c:	73552f00 	cmpvc	r5, #0, 30
     a70:	2f737265 	svccs	0x00737265
     a74:	73697274 	cmnvc	r9, #116, 4	; 0x40000007
     a78:	6e6e6574 	mcrvs	5, 3, r6, cr14, cr4, {3}
     a7c:	6d6c6c6f 	stclvs	12, cr6, [ip, #-444]!	; 0xfffffe44
     a80:	442f6e61 	strtmi	r6, [pc], #-3681	; a88 <LINK_ADDR-0x7578>
     a84:	6d75636f 	ldclvs	3, cr6, [r5, #-444]!	; 0xfffffe44
     a88:	73746e65 	cmnvc	r4, #1616	; 0x650
     a8c:	7270532f 	rsbsvc	r5, r0, #-1140850688	; 0xbc000000
     a90:	5f676e69 	svcpl	0x00676e69
     a94:	72617551 	rsbvc	r7, r1, #339738624	; 0x14400000
     a98:	5f726574 	svcpl	0x00726574
     a9c:	32323032 	eorscc	r3, r2, #50, 0	; 0x32
     aa0:	3253432f 	subscc	r4, r3, #-1140850688	; 0xbc000000
     aa4:	584c3034 	stmdapl	ip, {r2, r4, r5, ip, sp}^
     aa8:	7270732d 	rsbsvc	r7, r0, #-1275068416	; 0xb4000000
     aac:	2f2f3232 	svccs	0x002f3232
     ab0:	7062696c 	rsbvc	r6, r2, ip, ror #18
     ab4:	6e692f69 	cdpvs	15, 6, cr2, cr9, cr9, {3}
     ab8:	64756c63 	ldrbtvs	r6, [r5], #-3171	; 0xfffff39d
     abc:	63000065 	movwvs	r0, #101	; 0x65
     ac0:	6f747375 	svcvs	0x00747375
     ac4:	6f6c2d6d 	svcvs	0x006c2d6d
     ac8:	72656461 	rsbvc	r6, r5, #1627389952	; 0x61000000
     acc:	0100632e 	tsteq	r0, lr, lsr #6
     ad0:	70720000 	rsbsvc	r0, r2, r0
     ad4:	00682e69 	rsbeq	r2, r8, r9, ror #28
     ad8:	00000002 	andeq	r0, r0, r2
     adc:	05001a05 	streq	r1, [r0, #-2565]	; 0xfffff5fb
     ae0:	0088ec02 	addeq	lr, r8, r2, lsl #24
     ae4:	01051500 	tsteq	r5, r0, lsl #10
     ae8:	00020214 	andeq	r0, r2, r4, lsl r2
     aec:	00f40101 	rscseq	r0, r4, r1, lsl #2
     af0:	00030000 	andeq	r0, r3, r0
     af4:	00000085 	andeq	r0, r0, r5, lsl #1
     af8:	0efb0102 	cdpeq	1, 15, cr0, cr11, cr2, {0}
     afc:	0101000d 	tsteq	r1, sp
     b00:	00000101 	andeq	r0, r0, r1, lsl #2
     b04:	00000100 	andeq	r0, r0, r0, lsl #2
     b08:	732f2e01 			; <UNDEFINED> instruction: 0x732f2e01
     b0c:	66666174 			; <UNDEFINED> instruction: 0x66666174
     b10:	6372732d 	cmnvs	r2, #-1275068416	; 0xb4000000
     b14:	73552f00 	cmpvc	r5, #0, 30
     b18:	2f737265 	svccs	0x00737265
     b1c:	73697274 	cmnvc	r9, #116, 4	; 0x40000007
     b20:	6e6e6574 	mcrvs	5, 3, r6, cr14, cr4, {3}
     b24:	6d6c6c6f 	stclvs	12, cr6, [ip, #-444]!	; 0xfffffe44
     b28:	442f6e61 	strtmi	r6, [pc], #-3681	; b30 <LINK_ADDR-0x74d0>
     b2c:	6d75636f 	ldclvs	3, cr6, [r5, #-444]!	; 0xfffffe44
     b30:	73746e65 	cmnvc	r4, #1616	; 0x650
     b34:	7270532f 	rsbsvc	r5, r0, #-1140850688	; 0xbc000000
     b38:	5f676e69 	svcpl	0x00676e69
     b3c:	72617551 	rsbvc	r7, r1, #339738624	; 0x14400000
     b40:	5f726574 	svcpl	0x00726574
     b44:	32323032 	eorscc	r3, r2, #50, 0	; 0x32
     b48:	3253432f 	subscc	r4, r3, #-1140850688	; 0xbc000000
     b4c:	584c3034 	stmdapl	ip, {r2, r4, r5, ip, sp}^
     b50:	7270732d 	rsbsvc	r7, r0, #-1275068416	; 0xb4000000
     b54:	2f2f3232 	svccs	0x002f3232
     b58:	7062696c 	rsbvc	r6, r2, ip, ror #18
     b5c:	6e692f69 	cdpvs	15, 6, cr2, cr9, cr9, {3}
     b60:	64756c63 	ldrbtvs	r6, [r5], #-3171	; 0xfffff39d
     b64:	72000065 	andvc	r0, r0, #101, 0	; 0x65
     b68:	6f6f6265 	svcvs	0x006f6265
     b6c:	00632e74 	rsbeq	r2, r3, r4, ror lr
     b70:	72000001 	andvc	r0, r0, #1, 0
     b74:	682e6970 	stmdavs	lr!, {r4, r5, r6, r8, fp, sp, lr}
     b78:	00000200 	andeq	r0, r0, r0, lsl #4
     b7c:	00190500 	andseq	r0, r9, r0, lsl #10
     b80:	88f00205 	ldmhi	r0!, {r0, r2, r9}^
     b84:	0d030000 	stceq	0, cr0, [r3, #-0]
     b88:	13050501 	movwne	r0, #21761	; 0x5501
     b8c:	13053113 	movwne	r3, #20755	; 0x5113
     b90:	01050106 	tsteq	r5, r6, lsl #2
     b94:	061b052f 	ldreq	r0, [fp], -pc, lsr #10
     b98:	13050585 	movwne	r0, #21893	; 0x5585
     b9c:	2f090514 	svccs	0x00090514
     ba0:	01061605 	tsteq	r6, r5, lsl #12
     ba4:	052e0e05 	streq	r0, [lr, #-3589]!	; 0xfffff1fb
     ba8:	052f0605 	streq	r0, [pc, #-1541]!	; 5ab <LINK_ADDR-0x7a55>
     bac:	052f0601 	streq	r0, [pc, #-1537]!	; 5b3 <LINK_ADDR-0x7a4d>
     bb0:	05300617 	ldreq	r0, [r0, #-1559]!	; 0xfffff9e9
     bb4:	08052f05 	stmdaeq	r5, {r0, r2, r8, r9, sl, fp, sp}
     bb8:	07050106 	streq	r0, [r5, -r6, lsl #2]
     bbc:	0605052e 	streq	r0, [r5], -lr, lsr #10
     bc0:	4d2f3050 	stcmi	0, cr3, [pc, #-320]!	; a88 <LINK_ADDR-0x7578>
     bc4:	15131313 	ldrne	r1, [r3, #-787]	; 0xfffffced
     bc8:	04020067 	streq	r0, [r2], #-103	; 0xffffff99
     bcc:	0d056701 	stceq	7, cr6, [r5, #-4]
     bd0:	01040200 	mrseq	r0, R12_usr
     bd4:	000a0501 	andeq	r0, sl, r1, lsl #10
     bd8:	01010402 	tsteq	r1, r2, lsl #8
     bdc:	6d030905 	vstrvs.16	s0, [r3, #-10]	; <UNPREDICTABLE>
     be0:	000c022e 	andeq	r0, ip, lr, lsr #4
     be4:	00fb0101 	rscseq	r0, fp, r1, lsl #2
     be8:	00030000 	andeq	r0, r3, r0
     bec:	00000084 	andeq	r0, r0, r4, lsl #1
     bf0:	0efb0102 	cdpeq	1, 15, cr0, cr11, cr2, {0}
     bf4:	0101000d 	tsteq	r1, sp
     bf8:	00000101 	andeq	r0, r0, r1, lsl #2
     bfc:	00000100 	andeq	r0, r0, r0, lsl #2
     c00:	732f2e01 			; <UNDEFINED> instruction: 0x732f2e01
     c04:	66666174 			; <UNDEFINED> instruction: 0x66666174
     c08:	6372732d 	cmnvs	r2, #-1275068416	; 0xb4000000
     c0c:	73552f00 	cmpvc	r5, #0, 30
     c10:	2f737265 	svccs	0x00737265
     c14:	73697274 	cmnvc	r9, #116, 4	; 0x40000007
     c18:	6e6e6574 	mcrvs	5, 3, r6, cr14, cr4, {3}
     c1c:	6d6c6c6f 	stclvs	12, cr6, [ip, #-444]!	; 0xfffffe44
     c20:	442f6e61 	strtmi	r6, [pc], #-3681	; c28 <LINK_ADDR-0x73d8>
     c24:	6d75636f 	ldclvs	3, cr6, [r5, #-444]!	; 0xfffffe44
     c28:	73746e65 	cmnvc	r4, #1616	; 0x650
     c2c:	7270532f 	rsbsvc	r5, r0, #-1140850688	; 0xbc000000
     c30:	5f676e69 	svcpl	0x00676e69
     c34:	72617551 	rsbvc	r7, r1, #339738624	; 0x14400000
     c38:	5f726574 	svcpl	0x00726574
     c3c:	32323032 	eorscc	r3, r2, #50, 0	; 0x32
     c40:	3253432f 	subscc	r4, r3, #-1140850688	; 0xbc000000
     c44:	584c3034 	stmdapl	ip, {r2, r4, r5, ip, sp}^
     c48:	7270732d 	rsbsvc	r7, r0, #-1275068416	; 0xb4000000
     c4c:	2f2f3232 	svccs	0x002f3232
     c50:	7062696c 	rsbvc	r6, r2, ip, ror #18
     c54:	6e692f69 	cdpvs	15, 6, cr2, cr9, cr9, {3}
     c58:	64756c63 	ldrbtvs	r6, [r5], #-3171	; 0xfffff39d
     c5c:	74000065 	strvc	r0, [r0], #-101	; 0xffffff9b
     c60:	72656d69 	rsbvc	r6, r5, #6720	; 0x1a40
     c64:	0100632e 	tsteq	r0, lr, lsr #6
     c68:	70720000 	rsbsvc	r0, r2, r0
     c6c:	00682e69 	rsbeq	r2, r8, r9, ror #28
     c70:	00000002 	andeq	r0, r0, r2
     c74:	05002305 	streq	r2, [r0, #-773]	; 0xfffffcfb
     c78:	00897002 	addeq	r7, r9, r2
     c7c:	05051500 	streq	r1, [r5, #-1280]	; 0xfffffb00
     c80:	060c052f 	streq	r0, [ip], -pc, lsr #10
     c84:	4b010501 	blmi	42090 <__bss_end__+0x38ce0>
     c88:	4d061f05 	stcmi	15, cr1, [r6, #-20]	; 0xffffffec
     c8c:	2f310505 	svccs	0x00310505
     c90:	01061205 	tsteq	r6, r5, lsl #4
     c94:	4b060505 	blmi	1820b0 <__bss_end__+0x178d00>
     c98:	0601052f 	streq	r0, [r1], -pc, lsr #10
     c9c:	061c0513 			; <UNDEFINED> instruction: 0x061c0513
     ca0:	0501064c 	streq	r0, [r1, #-1612]	; 0xfffff9b4
     ca4:	054b0605 	strbeq	r0, [fp, #-1541]	; 0xfffff9fb
     ca8:	2e010613 	mcrcs	6, 0, r0, cr1, cr3, {0}
     cac:	2f060505 	svccs	0x00060505
     cb0:	05130905 	ldreq	r0, [r3, #-2309]	; 0xfffff6fb
     cb4:	05010617 	streq	r0, [r1, #-1559]	; 0xfffff9e9
     cb8:	052f0609 	streq	r0, [pc, #-1545]!	; 6b7 <LINK_ADDR-0x7949>
     cbc:	05010611 	streq	r0, [r1, #-1553]	; 0xfffff9ef
     cc0:	1c052e0c 	stcne	14, cr2, [r5], {12}
     cc4:	01066b06 	tsteq	r6, r6, lsl #22
     cc8:	2f060505 	svccs	0x00060505
     ccc:	01054a06 	tsteq	r5, r6, lsl #20
     cd0:	061e054b 	ldreq	r0, [lr], -fp, asr #10
     cd4:	0501062f 	streq	r0, [r1, #-1583]	; 0xfffff9d1
     cd8:	062f0605 	strteq	r0, [pc], -r5, lsl #12
     cdc:	4b01054a 	blmi	4220c <__bss_end__+0x38e5c>
     ce0:	01000202 	tsteq	r0, r2, lsl #4
     ce4:	00020401 	andeq	r0, r2, r1, lsl #8
     ce8:	c8000300 	stmdagt	r0, {r8, r9}
     cec:	02000000 	andeq	r0, r0, #0, 0
     cf0:	0d0efb01 	vstreq	d15, [lr, #-4]
     cf4:	01010100 	mrseq	r0, (UNDEF: 17)
     cf8:	00000001 	andeq	r0, r0, r1
     cfc:	01000001 	tsteq	r0, r1
     d00:	6d6f682f 	stclvs	8, cr6, [pc, #-188]!	; c4c <LINK_ADDR-0x73b4>
     d04:	6e652f65 	cdpvs	15, 6, cr2, cr5, cr5, {3}
     d08:	72656c67 	rsbvc	r6, r5, #26368	; 0x6700
     d0c:	616c632f 	cmnvs	ip, pc, lsr #6
     d10:	632f7373 			; <UNDEFINED> instruction: 0x632f7373
     d14:	30343173 	eorscc	r3, r4, r3, ror r1
     d18:	32322d65 	eorscc	r2, r2, #6464	; 0x1940
     d1c:	2f6e6977 	svccs	0x006e6977
     d20:	62696c2f 	rsbvs	r6, r9, #12032	; 0x2f00
     d24:	692f6970 	stmdbvs	pc!, {r4, r5, r6, r8, fp, sp, lr}	; <UNPREDICTABLE>
     d28:	756c636e 	strbvc	r6, [ip, #-878]!	; 0xfffffc92
     d2c:	2f006564 	svccs	0x00006564
     d30:	2f727375 	svccs	0x00727375
     d34:	72616873 	rsbvc	r6, r1, #7536640	; 0x730000
     d38:	63672f65 	cmnvs	r7, #404	; 0x194
     d3c:	72612d63 	rsbvc	r2, r1, #6336	; 0x18c0
     d40:	6f6e2d6d 	svcvs	0x006e2d6d
     d44:	652d656e 	strvs	r6, [sp, #-1390]!	; 0xfffffa92
     d48:	2d696261 	sfmcs	f6, 2, [r9, #-388]!	; 0xfffffe7c
     d4c:	332e3031 			; <UNDEFINED> instruction: 0x332e3031
     d50:	3230322d 	eorscc	r3, r0, #-805306366	; 0xd0000002
     d54:	30312e31 	eorscc	r2, r1, r1, lsr lr
     d58:	62696c2f 	rsbvs	r6, r9, #12032	; 0x2f00
     d5c:	6363672f 	cmnvs	r3, #12320768	; 0xbc0000
     d60:	6d72612f 	ldfvse	f6, [r2, #-188]!	; 0xffffff44
     d64:	6e6f6e2d 	cdpvs	14, 6, cr6, cr15, cr13, {1}
     d68:	61652d65 	cmnvs	r5, r5, ror #26
     d6c:	312f6962 			; <UNDEFINED> instruction: 0x312f6962
     d70:	2e332e30 	mrccs	14, 1, r2, cr3, cr0, {1}
     d74:	6e692f31 	mcrvs	15, 3, r2, cr9, cr1, {1}
     d78:	64756c63 	ldrbtvs	r6, [r5], #-3171	; 0xfffff39d
     d7c:	75000065 	strvc	r0, [r0, #-101]	; 0xffffff9b
     d80:	2e747261 	cdpcs	2, 7, cr7, cr4, cr1, {3}
     d84:	00000063 	andeq	r0, r0, r3, rrx
     d88:	72617500 	rsbvc	r7, r1, #0, 10
     d8c:	00682e74 	rsbeq	r2, r8, r4, ror lr
     d90:	72000001 	andvc	r0, r0, #1, 0
     d94:	682e6970 	stmdavs	lr!, {r4, r5, r6, r8, fp, sp, lr}
     d98:	00000100 	andeq	r0, r0, r0, lsl #2
     d9c:	6f697067 	svcvs	0x00697067
     da0:	0100682e 	tsteq	r0, lr, lsr #16
     da4:	74730000 	ldrbtvc	r0, [r3], #-0
     da8:	746e6964 	strbtvc	r6, [lr], #-2404	; 0xfffff69c
     dac:	6363672d 	cmnvs	r3, #11796480	; 0xb40000
     db0:	0200682e 	andeq	r6, r0, #3014656	; 0x2e0000
     db4:	05000000 	streq	r0, [r0, #-0]
     db8:	02050039 	andeq	r0, r5, #57, 0	; 0x39
     dbc:	000089f4 	strdeq	r8, [r0], -r4
     dc0:	06013003 	streq	r3, [r1], -r3
     dc4:	06050501 	streq	r0, [r5], -r1, lsl #10
     dc8:	06110567 	ldreq	r0, [r1], -r7, ror #10
     dcc:	2e050501 	cfsh32cs	mvfx0, mvfx5, #1
     dd0:	05670105 	strbeq	r0, [r7, #-261]!	; 0xfffffefb
     dd4:	06290638 			; <UNDEFINED> instruction: 0x06290638
     dd8:	06050501 	streq	r0, [r5], -r1, lsl #10
     ddc:	06110567 	ldreq	r0, [r1], -r7, ror #10
     de0:	2e050501 	cfsh32cs	mvfx0, mvfx5, #1
     de4:	05670105 	strbeq	r0, [r7, #-261]!	; 0xfffffefb
     de8:	15030616 	strne	r0, [r3, #-1558]	; 0xfffff9ea
     dec:	3505052e 	strcc	r0, [r5, #-1326]	; 0xfffffad2
     df0:	68356867 	ldmdavs	r5!, {r0, r1, r2, r5, r6, fp, sp, lr}
     df4:	852e0c03 	strhi	r0, [lr, #-3075]!	; 0xfffff3fd
     df8:	0369696b 	cmneq	r9, #1753088	; 0x1ac000
     dfc:	6b13660c 	blvs	4da634 <__bss_end__+0x4d1284>
     e00:	06010567 	streq	r0, [r1], -r7, ror #10
     e04:	0619052f 	ldreq	r0, [r9], -pc, lsr #10
     e08:	05052508 	streq	r2, [r5, #-1288]	; 0xfffffaf8
     e0c:	060d0534 			; <UNDEFINED> instruction: 0x060d0534
     e10:	4c010501 	cfstr32mi	mvfx0, [r1], {1}
     e14:	67061905 	strvs	r1, [r6, -r5, lsl #18]
     e18:	05360505 	ldreq	r0, [r6, #-1285]!	; 0xfffffafb
     e1c:	0501060d 	streq	r0, [r1, #-1549]	; 0xfffff9f3
     e20:	01054a28 	tsteq	r5, r8, lsr #20
     e24:	06150530 			; <UNDEFINED> instruction: 0x06150530
     e28:	2f050587 	svccs	0x00050587
     e2c:	0009052f 	andeq	r0, r9, pc, lsr #10
     e30:	13010402 	movwne	r0, #5122	; 0x1402
     e34:	02000a05 	andeq	r0, r0, #20480	; 0x5000
     e38:	05110104 	ldreq	r0, [r1, #-260]	; 0xfffffefc
     e3c:	0402000c 	streq	r0, [r2], #-12
     e40:	05010601 	streq	r0, [r1, #-1537]	; 0xfffff9ff
     e44:	0402000a 	streq	r0, [r2], #-10
     e48:	05052e01 	streq	r2, [r5, #-3585]	; 0xfffff1ff
     e4c:	0e054c06 	cdpeq	12, 0, cr4, cr5, cr6, {0}
     e50:	09050106 	stmdbeq	r5, {r1, r2, r8}
     e54:	0605054a 	streq	r0, [r5], -sl, asr #10
     e58:	01052f2f 	tsteq	r5, pc, lsr #30
     e5c:	1c051306 	stcne	3, cr1, [r5], {6}
     e60:	01066706 	tsteq	r6, r6, lsl #14
     e64:	4b060505 	blmi	182280 <__bss_end__+0x178ed0>
     e68:	0009052f 	andeq	r0, r9, pc, lsr #10
     e6c:	13010402 	movwne	r0, #5122	; 0x1402
     e70:	02000a05 	andeq	r0, r0, #20480	; 0x5000
     e74:	05110104 	ldreq	r0, [r1, #-260]	; 0xfffffefc
     e78:	0402000c 	streq	r0, [r2], #-12
     e7c:	05010601 	streq	r0, [r1, #-1537]	; 0xfffff9ff
     e80:	0402000a 	streq	r0, [r2], #-10
     e84:	05052e01 	streq	r2, [r5, #-3585]	; 0xfffff1ff
     e88:	05674c06 	strbeq	r4, [r7, #-3078]!	; 0xfffff3fa
     e8c:	052f0601 	streq	r0, [pc, #-1537]!	; 893 <LINK_ADDR-0x776d>
     e90:	054c0619 	strbeq	r0, [ip, #-1561]	; 0xfffff9e7
     e94:	2a052e1b 	bcs	14c708 <__bss_end__+0x143358>
     e98:	0631052e 	ldrteq	r0, [r1], -lr, lsr #10
     e9c:	2e420501 	cdpcs	5, 4, cr0, cr2, cr1, {0}
     ea0:	31061c05 	tstcc	r6, r5, lsl #24
     ea4:	032f0505 			; <UNDEFINED> instruction: 0x032f0505
     ea8:	0e052e09 	cdpeq	14, 0, cr2, cr5, cr9, {0}
     eac:	21050106 	tstcs	r5, r6, lsl #2
     eb0:	0301054a 	movweq	r0, #5450	; 0x154a
     eb4:	1a052e0a 	bne	14c6e4 <__bss_end__+0x143334>
     eb8:	09056806 	stmdbeq	r5, {r1, r2, fp, sp, lr}
     ebc:	01040200 	mrseq	r0, R12_usr
     ec0:	000a0530 	andeq	r0, sl, r0, lsr r5
     ec4:	11010402 	tstne	r1, r2, lsl #8
     ec8:	02000c05 	andeq	r0, r0, #1280	; 0x500
     ecc:	01060104 	tsteq	r6, r4, lsl #2
     ed0:	02000a05 	andeq	r0, r0, #20480	; 0x5000
     ed4:	052e0104 	streq	r0, [lr, #-260]!	; 0xfffffefc
     ed8:	e8030619 	stmda	r3, {r0, r3, r4, r9, sl}
     edc:	0505667e 	streq	r6, [r5, #-1662]	; 0xfffff982
     ee0:	672f2f2f 	strvs	r2, [pc, -pc, lsr #30]!
     ee4:	2f060105 	svccs	0x00060105
     ee8:	01000402 	tsteq	r0, r2, lsl #8
     eec:	0000bf01 	andeq	fp, r0, r1, lsl #30
     ef0:	81000300 	mrshi	r0, LR_irq
     ef4:	02000000 	andeq	r0, r0, #0, 0
     ef8:	0d0efb01 	vstreq	d15, [lr, #-4]
     efc:	01010100 	mrseq	r0, (UNDEF: 17)
     f00:	00000001 	andeq	r0, r0, r1
     f04:	01000001 	tsteq	r0, r1
     f08:	696c2f2e 	stmdbvs	ip!, {r1, r2, r3, r5, r8, r9, sl, fp, sp}^
     f0c:	2f006362 	svccs	0x00006362
     f10:	72657355 	rsbvc	r7, r5, #1409286145	; 0x54000001
     f14:	72742f73 	rsbsvc	r2, r4, #460	; 0x1cc
     f18:	65747369 	ldrbvs	r7, [r4, #-873]!	; 0xfffffc97
     f1c:	6c6f6e6e 	stclvs	14, cr6, [pc], #-440	; d6c <LINK_ADDR-0x7294>
     f20:	6e616d6c 	cdpvs	13, 6, cr6, cr1, cr12, {3}
     f24:	636f442f 	cmnvs	pc, #788529152	; 0x2f000000
     f28:	6e656d75 	mcrvs	13, 3, r6, cr5, cr5, {3}
     f2c:	532f7374 			; <UNDEFINED> instruction: 0x532f7374
     f30:	6e697270 	mcrvs	2, 3, r7, cr9, cr0, {3}
     f34:	75515f67 	ldrbvc	r5, [r1, #-3943]	; 0xfffff099
     f38:	65747261 	ldrbvs	r7, [r4, #-609]!	; 0xfffffd9f
     f3c:	30325f72 	eorscc	r5, r2, r2, ror pc
     f40:	432f3232 			; <UNDEFINED> instruction: 0x432f3232
     f44:	30343253 	eorscc	r3, r4, r3, asr r2
     f48:	732d584c 			; <UNDEFINED> instruction: 0x732d584c
     f4c:	32327270 	eorscc	r7, r2, #112, 4
     f50:	696c2f2f 	stmdbvs	ip!, {r0, r1, r2, r3, r5, r8, r9, sl, fp, sp}^
     f54:	2f697062 	svccs	0x00697062
     f58:	6c636e69 	stclvs	14, cr6, [r3], #-420	; 0xfffffe5c
     f5c:	00656475 	rsbeq	r6, r5, r5, ror r4
     f60:	74757000 	ldrbtvc	r7, [r5], #-0
     f64:	72616863 	rsbvc	r6, r1, #6488064	; 0x630000
     f68:	0100632e 	tsteq	r0, lr, lsr #6
     f6c:	70720000 	rsbsvc	r0, r2, r0
     f70:	00682e69 	rsbeq	r2, r8, r9, ror #28
     f74:	00000002 	andeq	r0, r0, r2
     f78:	05002405 	streq	r2, [r0, #-1029]	; 0xfffffbfb
     f7c:	008be402 	addeq	lr, fp, r2, lsl #8
     f80:	01061400 	tsteq	r6, r0, lsl #8
     f84:	4a062605 	bmi	18a7a0 <__bss_end__+0x1813f0>
     f88:	052e3405 	streq	r3, [lr, #-1029]!	; 0xfffffbfb
     f8c:	05010601 	streq	r0, [r1, #-1537]	; 0xfffff9ff
     f90:	054f061b 	strbeq	r0, [pc, #-1563]	; 97d <LINK_ADDR-0x7683>
     f94:	11051305 	tstne	r5, r5, lsl #6
     f98:	01050106 	tsteq	r5, r6, lsl #2
     f9c:	06230567 	strteq	r0, [r3], -r7, ror #10
     fa0:	13050567 	movwne	r0, #21863	; 0x5567
     fa4:	01061105 	tsteq	r6, r5, lsl #2
     fa8:	024b0105 	subeq	r0, fp, #1073741825	; 0x40000001
     fac:	01010004 	tsteq	r1, r4
     fb0:	0000010b 	andeq	r0, r0, fp, lsl #2
     fb4:	00800003 	addeq	r0, r0, r3
     fb8:	01020000 	mrseq	r0, (UNDEF: 2)
     fbc:	000d0efb 	strdeq	r0, [sp], -fp
     fc0:	01010101 	tsteq	r1, r1, lsl #2
     fc4:	01000000 	mrseq	r0, (UNDEF: 0)
     fc8:	2e010000 	cdpcs	0, 0, cr0, cr1, cr0, {0}
     fcc:	62696c2f 	rsbvs	r6, r9, #12032	; 0x2f00
     fd0:	552f0063 	strpl	r0, [pc, #-99]!	; f75 <LINK_ADDR-0x708b>
     fd4:	73726573 	cmnvc	r2, #482344960	; 0x1cc00000
     fd8:	6972742f 	ldmdbvs	r2!, {r0, r1, r2, r3, r5, sl, ip, sp, lr}^
     fdc:	6e657473 	mcrvs	4, 3, r7, cr5, cr3, {3}
     fe0:	6c6c6f6e 	stclvs	15, cr6, [ip], #-440	; 0xfffffe48
     fe4:	2f6e616d 	svccs	0x006e616d
     fe8:	75636f44 	strbvc	r6, [r3, #-3908]!	; 0xfffff0bc
     fec:	746e656d 	strbtvc	r6, [lr], #-1389	; 0xfffffa93
     ff0:	70532f73 	subsvc	r2, r3, r3, ror pc
     ff4:	676e6972 			; <UNDEFINED> instruction: 0x676e6972
     ff8:	6175515f 	cmnvs	r5, pc, asr r1
     ffc:	72657472 	rsbvc	r7, r5, #1912602624	; 0x72000000
    1000:	3230325f 	eorscc	r3, r0, #-268435451	; 0xf0000005
    1004:	53432f32 	movtpl	r2, #16178	; 0x3f32
    1008:	4c303432 	cfldrsmi	mvf3, [r0], #-200	; 0xffffff38
    100c:	70732d58 	rsbsvc	r2, r3, r8, asr sp
    1010:	2f323272 	svccs	0x00323272
    1014:	62696c2f 	rsbvs	r6, r9, #12032	; 0x2f00
    1018:	692f6970 	stmdbvs	pc!, {r4, r5, r6, r8, fp, sp, lr}	; <UNPREDICTABLE>
    101c:	756c636e 	strbvc	r6, [ip, #-878]!	; 0xfffffc92
    1020:	00006564 	andeq	r6, r0, r4, ror #10
    1024:	63727473 	cmnvs	r2, #1929379840	; 0x73000000
    1028:	632e7461 			; <UNDEFINED> instruction: 0x632e7461
    102c:	00000100 	andeq	r0, r0, r0, lsl #2
    1030:	2e697072 	mcrcs	0, 3, r7, cr9, cr2, {3}
    1034:	00020068 	andeq	r0, r2, r8, rrx
    1038:	2c050000 	stccs	0, cr0, [r5], {-0}
    103c:	20020500 	andcs	r0, r2, r0, lsl #10
    1040:	1500008c 	strne	r0, [r0, #-140]	; 0xffffff74
    1044:	13130505 	tstne	r3, #20971520	; 0x1400000
    1048:	11060b05 	tstne	r6, r5, lsl #22
    104c:	02000505 	andeq	r0, r0, #20971520	; 0x1400000
    1050:	30060104 	andcc	r0, r6, r4, lsl #2
    1054:	01040200 	mrseq	r0, R12_usr
    1058:	00090515 	andeq	r0, r9, r5, lsl r5
    105c:	13010402 	movwne	r0, #5122	; 0x1402
    1060:	02001005 	andeq	r1, r0, #5, 0
    1064:	2e060104 	adfcss	f0, f6, f4
    1068:	02000b05 	andeq	r0, r0, #5120	; 0x1400
    106c:	002e0104 	eoreq	r0, lr, r4, lsl #2
    1070:	06010402 	streq	r0, [r1], -r2, lsl #8
    1074:	0005052f 	andeq	r0, r5, pc, lsr #10
    1078:	06010402 	streq	r0, [r1], -r2, lsl #8
    107c:	054e0601 	strbeq	r0, [lr, #-1537]	; 0xfffff9ff
    1080:	05010608 	streq	r0, [r1, #-1544]	; 0xfffff9f8
    1084:	04020005 	streq	r0, [r2], #-5
    1088:	052f0601 	streq	r0, [pc, #-1537]!	; a8f <LINK_ADDR-0x7571>
    108c:	04020009 	streq	r0, [r2], #-9
    1090:	0b051301 	bleq	145c9c <__bss_end__+0x13c8ec>
    1094:	01040200 	mrseq	r0, R12_usr
    1098:	09050106 	stmdbeq	r5, {r1, r2, r8}
    109c:	01040200 	mrseq	r0, R12_usr
    10a0:	0f054b06 	svceq	0x00054b06
    10a4:	01040200 	mrseq	r0, R12_usr
    10a8:	0d050106 	stfeqs	f0, [r5, #-24]	; 0xffffffe8
    10ac:	01040200 	mrseq	r0, R12_usr
    10b0:	05052f06 	streq	r2, [r5, #-3846]	; 0xfffff0fa
    10b4:	01040200 	mrseq	r0, R12_usr
    10b8:	06020106 	streq	r0, [r2], -r6, lsl #2
    10bc:	c4010100 	strgt	r0, [r1], #-256	; 0xffffff00
    10c0:	03000000 	movweq	r0, #0
    10c4:	00008000 	andeq	r8, r0, r0
    10c8:	fb010200 	blx	418d2 <__bss_end__+0x38522>
    10cc:	01000d0e 	tsteq	r0, lr, lsl #26
    10d0:	00010101 	andeq	r0, r1, r1, lsl #2
    10d4:	00010000 	andeq	r0, r1, r0
    10d8:	2f2e0100 	svccs	0x002e0100
    10dc:	6362696c 	cmnvs	r2, #108, 18	; 0x1b0000
    10e0:	73552f00 	cmpvc	r5, #0, 30
    10e4:	2f737265 	svccs	0x00737265
    10e8:	73697274 	cmnvc	r9, #116, 4	; 0x40000007
    10ec:	6e6e6574 	mcrvs	5, 3, r6, cr14, cr4, {3}
    10f0:	6d6c6c6f 	stclvs	12, cr6, [ip, #-444]!	; 0xfffffe44
    10f4:	442f6e61 	strtmi	r6, [pc], #-3681	; 10fc <LINK_ADDR-0x6f04>
    10f8:	6d75636f 	ldclvs	3, cr6, [r5, #-444]!	; 0xfffffe44
    10fc:	73746e65 	cmnvc	r4, #1616	; 0x650
    1100:	7270532f 	rsbsvc	r5, r0, #-1140850688	; 0xbc000000
    1104:	5f676e69 	svcpl	0x00676e69
    1108:	72617551 	rsbvc	r7, r1, #339738624	; 0x14400000
    110c:	5f726574 	svcpl	0x00726574
    1110:	32323032 	eorscc	r3, r2, #50, 0	; 0x32
    1114:	3253432f 	subscc	r4, r3, #-1140850688	; 0xbc000000
    1118:	584c3034 	stmdapl	ip, {r2, r4, r5, ip, sp}^
    111c:	7270732d 	rsbsvc	r7, r0, #-1275068416	; 0xb4000000
    1120:	2f2f3232 	svccs	0x002f3232
    1124:	7062696c 	rsbvc	r6, r2, ip, ror #18
    1128:	6e692f69 	cdpvs	15, 6, cr2, cr9, cr9, {3}
    112c:	64756c63 	ldrbtvs	r6, [r5], #-3171	; 0xfffff39d
    1130:	73000065 	movwvc	r0, #101	; 0x65
    1134:	6d637274 	sfmvs	f7, 2, [r3, #-464]!	; 0xfffffe30
    1138:	00632e70 	rsbeq	r2, r3, r0, ror lr
    113c:	72000001 	andvc	r0, r0, #1, 0
    1140:	682e6970 	stmdavs	lr!, {r4, r5, r6, r8, fp, sp, lr}
    1144:	00000200 	andeq	r0, r0, r0, lsl #4
    1148:	002a0500 	eoreq	r0, sl, r0, lsl #10
    114c:	8c540205 	lfmhi	f0, 2, [r4], {5}
    1150:	05140000 	ldreq	r0, [r4, #-0]
    1154:	0f051309 	svceq	0x00051309
    1158:	06100501 	ldreq	r0, [r0], -r1, lsl #10
    115c:	2e0f0501 	cfsh32cs	mvfx0, mvfx15, #1
    1160:	02001c05 	andeq	r1, r0, #1280	; 0x500
    1164:	054a0104 	strbeq	r0, [sl, #-260]	; 0xfffffefc
    1168:	04020013 	streq	r0, [r2], #-19	; 0xffffffed
    116c:	11052e01 	tstne	r5, r1, lsl #28
    1170:	16052f06 	strne	r2, [r5], -r6, lsl #30
    1174:	052e2e06 	streq	r2, [lr, #-3590]!	; 0xfffff1fa
    1178:	052f0609 	streq	r0, [pc, #-1545]!	; b77 <LINK_ADDR-0x7489>
    117c:	05010615 	streq	r0, [r1, #-1557]	; 0xfffff9eb
    1180:	04022f01 	streq	r2, [r2], #-3841	; 0xfffff0ff
    1184:	c2010100 	andgt	r0, r1, #0
    1188:	03000000 	movweq	r0, #0
    118c:	00008000 	andeq	r8, r0, r0
    1190:	fb010200 	blx	4199a <__bss_end__+0x385ea>
    1194:	01000d0e 	tsteq	r0, lr, lsl #26
    1198:	00010101 	andeq	r0, r1, r1, lsl #2
    119c:	00010000 	andeq	r0, r1, r0
    11a0:	2f2e0100 	svccs	0x002e0100
    11a4:	6362696c 	cmnvs	r2, #108, 18	; 0x1b0000
    11a8:	73552f00 	cmpvc	r5, #0, 30
    11ac:	2f737265 	svccs	0x00737265
    11b0:	73697274 	cmnvc	r9, #116, 4	; 0x40000007
    11b4:	6e6e6574 	mcrvs	5, 3, r6, cr14, cr4, {3}
    11b8:	6d6c6c6f 	stclvs	12, cr6, [ip, #-444]!	; 0xfffffe44
    11bc:	442f6e61 	strtmi	r6, [pc], #-3681	; 11c4 <LINK_ADDR-0x6e3c>
    11c0:	6d75636f 	ldclvs	3, cr6, [r5, #-444]!	; 0xfffffe44
    11c4:	73746e65 	cmnvc	r4, #1616	; 0x650
    11c8:	7270532f 	rsbsvc	r5, r0, #-1140850688	; 0xbc000000
    11cc:	5f676e69 	svcpl	0x00676e69
    11d0:	72617551 	rsbvc	r7, r1, #339738624	; 0x14400000
    11d4:	5f726574 	svcpl	0x00726574
    11d8:	32323032 	eorscc	r3, r2, #50, 0	; 0x32
    11dc:	3253432f 	subscc	r4, r3, #-1140850688	; 0xbc000000
    11e0:	584c3034 	stmdapl	ip, {r2, r4, r5, ip, sp}^
    11e4:	7270732d 	rsbsvc	r7, r0, #-1275068416	; 0xb4000000
    11e8:	2f2f3232 	svccs	0x002f3232
    11ec:	7062696c 	rsbvc	r6, r2, ip, ror #18
    11f0:	6e692f69 	cdpvs	15, 6, cr2, cr9, cr9, {3}
    11f4:	64756c63 	ldrbtvs	r6, [r5], #-3171	; 0xfffff39d
    11f8:	73000065 	movwvc	r0, #101	; 0x65
    11fc:	70637274 	rsbvc	r7, r3, r4, ror r2
    1200:	00632e79 	rsbeq	r2, r3, r9, ror lr
    1204:	72000001 	andvc	r0, r0, #1, 0
    1208:	682e6970 	stmdavs	lr!, {r4, r5, r6, r8, fp, sp, lr}
    120c:	00000200 	andeq	r0, r0, r0, lsl #4
    1210:	002a0500 	eoreq	r0, sl, r0, lsl #10
    1214:	8c800205 	sfmhi	f0, 4, [r0], {5}
    1218:	05140000 	ldreq	r0, [r4, #-0]
    121c:	05131305 	ldreq	r1, [r3, #-773]	; 0xfffffcfb
    1220:	05110614 	ldreq	r0, [r1, #-1556]	; 0xfffff9ec
    1224:	04020022 	streq	r0, [r2], #-34	; 0xffffffde
    1228:	052f0601 	streq	r0, [pc, #-1537]!	; c2f <LINK_ADDR-0x73d1>
    122c:	0402000b 	streq	r0, [r2], #-11
    1230:	15050101 	strne	r0, [r5, #-257]	; 0xfffffeff
    1234:	01040200 	mrseq	r0, R12_usr
    1238:	13050106 	movwne	r0, #20742	; 0x5106
    123c:	01040200 	mrseq	r0, R12_usr
    1240:	000b054a 	andeq	r0, fp, sl, asr #10
    1244:	4a010402 	bmi	42254 <__bss_end__+0x38ea4>
    1248:	01000602 	tsteq	r0, r2, lsl #12
    124c:	00012201 	andeq	r2, r1, r1, lsl #4
    1250:	e6000300 	str	r0, [r0], -r0, lsl #6
    1254:	02000000 	andeq	r0, r0, #0, 0
    1258:	0d0efb01 	vstreq	d15, [lr, #-4]
    125c:	01010100 	mrseq	r0, (UNDEF: 17)
    1260:	00000001 	andeq	r0, r0, r1
    1264:	01000001 	tsteq	r0, r1
    1268:	696c2f2e 	stmdbvs	ip!, {r1, r2, r3, r5, r8, r9, sl, fp, sp}^
    126c:	2f006362 	svccs	0x00006362
    1270:	72657355 	rsbvc	r7, r5, #1409286145	; 0x54000001
    1274:	72742f73 	rsbsvc	r2, r4, #460	; 0x1cc
    1278:	65747369 	ldrbvs	r7, [r4, #-873]!	; 0xfffffc97
    127c:	6c6f6e6e 	stclvs	14, cr6, [pc], #-440	; 10cc <LINK_ADDR-0x6f34>
    1280:	6e616d6c 	cdpvs	13, 6, cr6, cr1, cr12, {3}
    1284:	636f442f 	cmnvs	pc, #788529152	; 0x2f000000
    1288:	6e656d75 	mcrvs	13, 3, r6, cr5, cr5, {3}
    128c:	532f7374 			; <UNDEFINED> instruction: 0x532f7374
    1290:	6e697270 	mcrvs	2, 3, r7, cr9, cr0, {3}
    1294:	75515f67 	ldrbvc	r5, [r1, #-3943]	; 0xfffff099
    1298:	65747261 	ldrbvs	r7, [r4, #-609]!	; 0xfffffd9f
    129c:	30325f72 	eorscc	r5, r2, r2, ror pc
    12a0:	432f3232 			; <UNDEFINED> instruction: 0x432f3232
    12a4:	30343253 	eorscc	r3, r4, r3, asr r2
    12a8:	732d584c 			; <UNDEFINED> instruction: 0x732d584c
    12ac:	32327270 	eorscc	r7, r2, #112, 4
    12b0:	696c2f2f 	stmdbvs	ip!, {r0, r1, r2, r3, r5, r8, r9, sl, fp, sp}^
    12b4:	2f697062 	svccs	0x00697062
    12b8:	6c636e69 	stclvs	14, cr6, [r3], #-420	; 0xfffffe5c
    12bc:	00656475 	rsbeq	r6, r5, r5, ror r4
    12c0:	7273752f 	rsbsvc	r7, r3, #197132288	; 0xbc00000
    12c4:	636f6c2f 	cmnvs	pc, #12032	; 0x2f00
    12c8:	432f6c61 			; <UNDEFINED> instruction: 0x432f6c61
    12cc:	616c6c65 	cmnvs	ip, r5, ror #24
    12d0:	72612f72 	rsbvc	r2, r1, #456	; 0x1c8
    12d4:	6f6e2d6d 	svcvs	0x006e2d6d
    12d8:	652d656e 	strvs	r6, [sp, #-1390]!	; 0xfffffa92
    12dc:	2d696261 	sfmcs	f6, 2, [r9, #-388]!	; 0xfffffe7c
    12e0:	74736574 	ldrbtvc	r6, [r3], #-1396	; 0xfffffa8c
    12e4:	322d392f 	eorcc	r3, sp, #770048	; 0xbc000
    12e8:	71393130 	teqvc	r9, r0, lsr r1
    12ec:	73632d34 	cmnvc	r3, #52, 26	; 0xd00
    12f0:	65373031 	ldrvs	r3, [r7, #-49]!	; 0xffffffcf
    12f4:	62696c2f 	rsbvs	r6, r9, #12032	; 0x2f00
    12f8:	6363672f 	cmnvs	r3, #12320768	; 0xbc0000
    12fc:	6d72612f 	ldfvse	f6, [r2, #-188]!	; 0xffffff44
    1300:	6e6f6e2d 	cdpvs	14, 6, cr6, cr15, cr13, {1}
    1304:	61652d65 	cmnvs	r5, r5, ror #26
    1308:	392f6962 	stmdbcc	pc!, {r1, r5, r6, r8, fp, sp, lr}	; <UNPREDICTABLE>
    130c:	312e322e 			; <UNDEFINED> instruction: 0x312e322e
    1310:	636e692f 	cmnvs	lr, #770048	; 0xbc000
    1314:	6564756c 	strbvs	r7, [r4, #-1388]!	; 0xfffffa94
    1318:	74730000 	ldrbtvc	r0, [r3], #-0
    131c:	6d636e72 	stclvs	14, cr6, [r3, #-456]!	; 0xfffffe38
    1320:	00632e70 	rsbeq	r2, r3, r0, ror lr
    1324:	72000001 	andvc	r0, r0, #1, 0
    1328:	682e6970 	stmdavs	lr!, {r4, r5, r6, r8, fp, sp, lr}
    132c:	00000200 	andeq	r0, r0, r0, lsl #4
    1330:	64647473 	strbtvs	r7, [r4], #-1139	; 0xfffffb8d
    1334:	682e6665 	stmdavs	lr!, {r0, r2, r5, r6, r9, sl, sp, lr}
    1338:	00000300 	andeq	r0, r0, r0, lsl #6
    133c:	00390500 	eorseq	r0, r9, r0, lsl #10
    1340:	8ca00205 	sfmhi	f0, 4, [r0], #20
    1344:	05150000 	ldreq	r0, [r5, #-0]
    1348:	05131305 	ldreq	r1, [r3, #-773]	; 0xfffffcfb
    134c:	0106010a 	tsteq	r6, sl, lsl #2
    1350:	0609054a 	streq	r0, [r9], -sl, asr #10
    1354:	060c052f 	streq	r0, [ip], -pc, lsr #10
    1358:	2e130501 	cfmul32cs	mvfx0, mvfx3, mvfx1
    135c:	052e0b05 	streq	r0, [lr, #-2821]!	; 0xfffff4fb
    1360:	054b060d 	strbeq	r0, [fp, #-1549]	; 0xfffff9f3
    1364:	2e01061b 	mcrcs	6, 0, r0, cr1, cr11, {0}
    1368:	05300c05 	ldreq	r0, [r0, #-3077]!	; 0xfffff3fb
    136c:	02022f01 	andeq	r2, r2, #1, 30
    1370:	b1010100 	mrslt	r0, (UNDEF: 17)
    1374:	03000000 	movweq	r0, #0
    1378:	00009500 	andeq	r9, r0, r0, lsl #10
    137c:	fb010200 	blx	41b86 <__bss_end__+0x387d6>
    1380:	01000d0e 	tsteq	r0, lr, lsl #26
    1384:	00010101 	andeq	r0, r1, r1, lsl #2
    1388:	00010000 	andeq	r0, r1, r0
    138c:	2f2e0100 	svccs	0x002e0100
    1390:	66617473 			; <UNDEFINED> instruction: 0x66617473
    1394:	72732d66 	rsbsvc	r2, r3, #6528	; 0x1980
    1398:	552f0063 	strpl	r0, [pc, #-99]!	; 133d <LINK_ADDR-0x6cc3>
    139c:	73726573 	cmnvc	r2, #482344960	; 0x1cc00000
    13a0:	6972742f 	ldmdbvs	r2!, {r0, r1, r2, r3, r5, sl, ip, sp, lr}^
    13a4:	6e657473 	mcrvs	4, 3, r7, cr5, cr3, {3}
    13a8:	6c6c6f6e 	stclvs	15, cr6, [ip], #-440	; 0xfffffe48
    13ac:	2f6e616d 	svccs	0x006e616d
    13b0:	75636f44 	strbvc	r6, [r3, #-3908]!	; 0xfffff0bc
    13b4:	746e656d 	strbtvc	r6, [lr], #-1389	; 0xfffffa93
    13b8:	70532f73 	subsvc	r2, r3, r3, ror pc
    13bc:	676e6972 			; <UNDEFINED> instruction: 0x676e6972
    13c0:	6175515f 	cmnvs	r5, pc, asr r1
    13c4:	72657472 	rsbvc	r7, r5, #1912602624	; 0x72000000
    13c8:	3230325f 	eorscc	r3, r0, #-268435451	; 0xf0000005
    13cc:	53432f32 	movtpl	r2, #16178	; 0x3f32
    13d0:	4c303432 	cfldrsmi	mvf3, [r0], #-200	; 0xffffff38
    13d4:	70732d58 	rsbsvc	r2, r3, r8, asr sp
    13d8:	2f323272 	svccs	0x00323272
    13dc:	62696c2f 	rsbvs	r6, r9, #12032	; 0x2f00
    13e0:	692f6970 	stmdbvs	pc!, {r4, r5, r6, r8, fp, sp, lr}	; <UNPREDICTABLE>
    13e4:	756c636e 	strbvc	r6, [ip, #-878]!	; 0xfffffc92
    13e8:	00006564 	andeq	r6, r0, r4, ror #10
    13ec:	61666564 	cmnvs	r6, r4, ror #10
    13f0:	2d746c75 	ldclcs	12, cr6, [r4, #-468]!	; 0xfffffe2c
    13f4:	6f626572 	svcvs	0x00626572
    13f8:	632d746f 			; <UNDEFINED> instruction: 0x632d746f
    13fc:	6f6c6c61 	svcvs	0x006c6c61
    1400:	632e7475 			; <UNDEFINED> instruction: 0x632e7475
    1404:	00000100 	andeq	r0, r0, r0, lsl #2
    1408:	2e697072 	mcrcs	0, 3, r7, cr9, cr2, {3}
    140c:	00020068 	andeq	r0, r2, r8, rrx
    1410:	1b050000 	blne	141418 <__bss_end__+0x138068>
    1414:	cc020500 	cfstr32gt	mvfx0, [r2], {-0}
    1418:	1400008c 	strne	r0, [r0], #-140	; 0xffffff74
    141c:	05011c05 	streq	r1, [r1, #-3077]	; 0xfffff3fb
    1420:	02010601 	andeq	r0, r1, #1048576	; 0x100000
    1424:	01010002 	tsteq	r1, r2
    1428:	000001ba 			; <UNDEFINED> instruction: 0x000001ba
    142c:	00be0003 	adcseq	r0, lr, r3
    1430:	01020000 	mrseq	r0, (UNDEF: 2)
    1434:	000d0efb 	strdeq	r0, [sp], -fp
    1438:	01010101 	tsteq	r1, r1, lsl #2
    143c:	01000000 	mrseq	r0, (UNDEF: 0)
    1440:	2f010000 	svccs	0x00010000
    1444:	656d6f68 	strbvs	r6, [sp, #-3944]!	; 0xfffff098
    1448:	676e652f 	strbvs	r6, [lr, -pc, lsr #10]!
    144c:	2f72656c 	svccs	0x0072656c
    1450:	73616c63 	cmnvc	r1, #25344	; 0x6300
    1454:	73632f73 	cmnvc	r3, #460	; 0x1cc
    1458:	65303431 	ldrvs	r3, [r0, #-1073]!	; 0xfffffbcf
    145c:	7732322d 	ldrvc	r3, [r2, -sp, lsr #4]!
    1460:	2f2f6e69 	svccs	0x002f6e69
    1464:	7062696c 	rsbvc	r6, r2, ip, ror #18
    1468:	6e692f69 	cdpvs	15, 6, cr2, cr9, cr9, {3}
    146c:	64756c63 	ldrbtvs	r6, [r5], #-3171	; 0xfffff39d
    1470:	752f0065 	strvc	r0, [pc, #-101]!	; 1413 <LINK_ADDR-0x6bed>
    1474:	732f7273 			; <UNDEFINED> instruction: 0x732f7273
    1478:	65726168 	ldrbvs	r6, [r2, #-360]!	; 0xfffffe98
    147c:	6363672f 	cmnvs	r3, #12320768	; 0xbc0000
    1480:	6d72612d 	ldfvse	f6, [r2, #-180]!	; 0xffffff4c
    1484:	6e6f6e2d 	cdpvs	14, 6, cr6, cr15, cr13, {1}
    1488:	61652d65 	cmnvs	r5, r5, ror #26
    148c:	312d6962 			; <UNDEFINED> instruction: 0x312d6962
    1490:	2d332e30 	ldccs	14, cr2, [r3, #-192]!	; 0xffffff40
    1494:	31323032 	teqcc	r2, r2, lsr r0
    1498:	2f30312e 	svccs	0x0030312e
    149c:	2f62696c 	svccs	0x0062696c
    14a0:	2f636367 	svccs	0x00636367
    14a4:	2d6d7261 	sfmcs	f7, 2, [sp, #-388]!	; 0xfffffe7c
    14a8:	656e6f6e 	strbvs	r6, [lr, #-3950]!	; 0xfffff092
    14ac:	6261652d 	rsbvs	r6, r1, #188743680	; 0xb400000
    14b0:	30312f69 	eorscc	r2, r1, r9, ror #30
    14b4:	312e332e 			; <UNDEFINED> instruction: 0x312e332e
    14b8:	636e692f 	cmnvs	lr, #770048	; 0xbc000
    14bc:	6564756c 	strbvs	r7, [r4, #-1388]!	; 0xfffffa94
    14c0:	70670000 	rsbvc	r0, r7, r0
    14c4:	632e6f69 			; <UNDEFINED> instruction: 0x632e6f69
    14c8:	00000000 	andeq	r0, r0, r0
    14cc:	2e697072 	mcrcs	0, 3, r7, cr9, cr2, {3}
    14d0:	00010068 	andeq	r0, r1, r8, rrx
    14d4:	64747300 	ldrbtvs	r7, [r4], #-768	; 0xfffffd00
    14d8:	2d746e69 	ldclcs	14, cr6, [r4, #-420]!	; 0xfffffe5c
    14dc:	2e636367 	cdpcs	3, 6, cr6, cr3, cr7, {3}
    14e0:	00020068 	andeq	r0, r2, r8, rrx
    14e4:	69706700 	ldmdbvs	r0!, {r8, r9, sl, sp, lr}^
    14e8:	00682e6f 	rsbeq	r2, r8, pc, ror #28
    14ec:	00000001 	andeq	r0, r0, r1
    14f0:	05003805 	streq	r3, [r0, #-2053]	; 0xfffff7fb
    14f4:	008ce802 	addeq	lr, ip, r2, lsl #16
    14f8:	01270300 			; <UNDEFINED> instruction: 0x01270300
    14fc:	05130505 	ldreq	r0, [r3, #-1285]	; 0xfffffafb
    1500:	05010607 	streq	r0, [r1, #-1543]	; 0xfffff9f9
    1504:	05054938 	streq	r4, [r5, #-2360]	; 0xfffff6c8
    1508:	07054d06 	streq	r4, [r5, -r6, lsl #26]
    150c:	05050106 	streq	r0, [r5, #-262]	; 0xfffffefa
    1510:	18054c06 	stmdane	r5, {r1, r2, sl, fp, lr}
    1514:	0e050106 	adfeqs	f0, f5, f6
    1518:	060505ba 			; <UNDEFINED> instruction: 0x060505ba
    151c:	061c052f 	ldreq	r0, [ip], -pc, lsr #10
    1520:	0e052e01 	cdpeq	14, 0, cr2, cr5, cr1, {0}
    1524:	0605052e 	streq	r0, [r5], -lr, lsr #10
    1528:	06120530 			; <UNDEFINED> instruction: 0x06120530
    152c:	06050501 	streq	r0, [r5], -r1, lsl #10
    1530:	0607054b 	streq	r0, [r7], -fp, asr #10
    1534:	06050501 	streq	r0, [r5], -r1, lsl #10
    1538:	2e06134b 	cdpcs	3, 0, cr1, cr6, cr11, {2}
    153c:	054b0105 	strbeq	r0, [fp, #-261]	; 0xfffffefb
    1540:	064c0624 	strbeq	r0, [ip], -r4, lsr #12
    1544:	06050501 	streq	r0, [r5], -r1, lsl #10
    1548:	0601052f 	streq	r0, [r1], -pc, lsr #10
    154c:	0620054b 	strteq	r0, [r0], -fp, asr #10
    1550:	13050531 	movwne	r0, #21809	; 0x5531
    1554:	01060705 	tsteq	r6, r5, lsl #14
    1558:	05492005 	strbeq	r2, [r9, #-5]
    155c:	06310605 	ldrteq	r0, [r1], -r5, lsl #12
    1560:	2f010566 	svccs	0x00010566
    1564:	4d062105 	stfmis	f2, [r6, #-20]	; 0xffffffec
    1568:	05130505 	ldreq	r0, [r3, #-1285]	; 0xfffffafb
    156c:	05010607 	streq	r0, [r1, #-1543]	; 0xfffff9f9
    1570:	05054921 	streq	r4, [r5, #-2337]	; 0xfffff6df
    1574:	66063106 	strvs	r3, [r6], -r6, lsl #2
    1578:	052f0105 	streq	r0, [pc, #-261]!	; 147b <LINK_ADDR-0x6b85>
    157c:	064d0623 	strbeq	r0, [sp], -r3, lsr #12
    1580:	06050501 	streq	r0, [r5], -r1, lsl #10
    1584:	0601052f 	streq	r0, [r1], -pc, lsr #10
    1588:	062b054b 	strteq	r0, [fp], -fp, asr #10
    158c:	05010631 	streq	r0, [r1, #-1585]	; 0xfffff9cf
    1590:	052f0605 	streq	r0, [pc, #-1541]!	; f93 <LINK_ADDR-0x706d>
    1594:	05010607 	streq	r0, [r1, #-1543]	; 0xfffff9f9
    1598:	064b0609 	strbeq	r0, [fp], -r9, lsl #12
    159c:	0530062e 	ldreq	r0, [r0, #-1582]!	; 0xfffff9d2
    15a0:	052f0601 	streq	r0, [pc, #-1537]!	; fa7 <LINK_ADDR-0x7059>
    15a4:	0530061d 	ldreq	r0, [r0, #-1565]!	; 0xfffff9e3
    15a8:	07051305 	streq	r1, [r5, -r5, lsl #6]
    15ac:	1d050106 	stfnes	f0, [r5, #-24]	; 0xffffffe8
    15b0:	06050549 	streq	r0, [r5], -r9, asr #10
    15b4:	0e051331 	mcreq	3, 0, r1, cr5, cr1, {1}
    15b8:	05050106 	streq	r0, [r5, #-262]	; 0xfffffefa
    15bc:	17052f06 	strne	r2, [r5, -r6, lsl #30]
    15c0:	054a0106 	strbeq	r0, [sl, #-262]	; 0xfffffefa
    15c4:	02042e23 	andeq	r2, r4, #560	; 0x230
    15c8:	03063005 	movweq	r3, #24581	; 0x6005
    15cc:	042e00d7 	strteq	r0, [lr], #-215	; 0xffffff29
    15d0:	060c0501 	streq	r0, [ip], -r1, lsl #10
    15d4:	017fa903 	cmneq	pc, r3, lsl #18
    15d8:	052f0105 	streq	r0, [pc, #-261]!	; 14db <LINK_ADDR-0x6b25>
    15dc:	01052a10 	tsteq	r5, r0, lsl sl
    15e0:	00040232 	andeq	r0, r4, r2, lsr r2
    15e4:	Address 0x00000000000015e4 is out of bounds.


Disassembly of section .debug_str:

00000000 <.debug_str>:
   0:	676e6f6c 	strbvs	r6, [lr, -ip, ror #30]!
   4:	6e6f6c20 	cdpvs	12, 6, cr6, cr15, cr0, {1}
   8:	6e692067 	cdpvs	0, 6, cr2, cr9, cr7, {3}
   c:	5f5f0074 	svcpl	0x005f0074
  10:	434e5546 	movtmi	r5, #58694	; 0xe546
  14:	4e4f4954 			; <UNDEFINED> instruction: 0x4e4f4954
  18:	68005f5f 	stmdavs	r0, {r0, r1, r2, r3, r4, r6, r8, r9, sl, fp, ip, lr}
  1c:	65646165 	strbvs	r6, [r4, #-357]!	; 0xfffffe9b
  20:	74735f72 	ldrbtvc	r5, [r3], #-3954	; 0xfffff08e
  24:	676e6972 			; <UNDEFINED> instruction: 0x676e6972
  28:	6e6f6c00 	cdpvs	12, 6, cr6, cr15, cr0, {0}
  2c:	6f6c2067 	svcvs	0x006c2067
  30:	7520676e 	strvc	r6, [r0, #-1902]!	; 0xfffff892
  34:	6769736e 	strbvs	r7, [r9, -lr, ror #6]!
  38:	2064656e 	rsbcs	r6, r4, lr, ror #10
  3c:	00746e69 	rsbseq	r6, r4, r9, ror #28
  40:	6573552f 	ldrbvs	r5, [r3, #-1327]!	; 0xfffffad1
  44:	742f7372 	strtvc	r7, [pc], #-882	; 4c <LINK_ADDR-0x7fb4>
  48:	74736972 	ldrbtvc	r6, [r3], #-2418	; 0xfffff68e
  4c:	6f6e6e65 	svcvs	0x006e6e65
  50:	616d6c6c 	cmnvs	sp, ip, ror #24
  54:	6f442f6e 	svcvs	0x00442f6e
  58:	656d7563 	strbvs	r7, [sp, #-1379]!	; 0xfffffa9d
  5c:	2f73746e 	svccs	0x0073746e
  60:	69727053 	ldmdbvs	r2!, {r0, r1, r4, r6, ip, sp, lr}^
  64:	515f676e 	cmppl	pc, lr, ror #14
  68:	74726175 	ldrbtvc	r6, [r2], #-373	; 0xfffffe8b
  6c:	325f7265 	subscc	r7, pc, #1342177286	; 0x50000006
  70:	2f323230 	svccs	0x00323230
  74:	34325343 	ldrtcc	r5, [r2], #-835	; 0xfffffcbd
  78:	2d584c30 	ldclcs	12, cr4, [r8, #-192]	; 0xffffff40
  7c:	32727073 	rsbscc	r7, r2, #115, 0	; 0x73
  80:	616c2f32 	cmnvs	ip, r2, lsr pc
  84:	312f7362 			; <UNDEFINED> instruction: 0x312f7362
  88:	6e79642d 	cdpvs	4, 7, cr6, cr9, cr13, {1}
  8c:	63696d61 	cmnvs	r9, #6208	; 0x1840
  90:	646f632d 	strbtvs	r6, [pc], #-813	; 98 <LINK_ADDR-0x7f68>
  94:	65672d65 	strbvs	r2, [r7, #-3429]!	; 0xfffff29b
  98:	6f632f6e 	svcvs	0x00632f6e
  9c:	302f6564 	eorcc	r6, pc, r4, ror #10
  a0:	6d756a2d 	vldmdbvs	r5!, {s13-s57}
  a4:	6e750070 	mrcvs	0, 3, r0, cr5, cr0, {3}
  a8:	6e676973 			; <UNDEFINED> instruction: 0x6e676973
  ac:	63206465 			; <UNDEFINED> instruction: 0x63206465
  b0:	00726168 	rsbseq	r6, r2, r8, ror #2
  b4:	64616568 	strbtvs	r6, [r1], #-1384	; 0xfffffa98
  b8:	735f7265 	cmpvc	pc, #1342177286	; 0x50000006
  bc:	6e697274 	mcrvs	2, 3, r7, cr9, cr4, {3}
  c0:	64615f67 	strbtvs	r5, [r1], #-3943	; 0xfffff099
  c4:	68007264 	stmdavs	r0, {r2, r5, r6, r9, ip, sp, lr}
  c8:	65646165 	strbvs	r6, [r4, #-357]!	; 0xfffffe9b
  cc:	00632e72 	rsbeq	r2, r3, r2, ror lr
  d0:	61656c63 	cmnvs	r5, r3, ror #24
  d4:	65725f6e 	ldrbvs	r5, [r2, #-3950]!	; 0xfffff092
  d8:	746f6f62 	strbtvc	r6, [pc], #-3938	; e0 <LINK_ADDR-0x7f20>
  dc:	746f6e00 	strbtvc	r6, [pc], #-3584	; e4 <LINK_ADDR-0x7f1c>
  e0:	6e69616d 	powvsez	f6, f1, #5.0
  e4:	6c696600 	stclvs	6, cr6, [r9], #-0
  e8:	6873006c 	ldmdavs	r3!, {r2, r3, r5, r6}^
  ec:	2074726f 	rsbscs	r7, r4, pc, ror #4
  f0:	69736e75 	ldmdbvs	r3!, {r0, r2, r4, r5, r6, r9, sl, fp, sp, lr}^
  f4:	64656e67 	strbtvs	r6, [r5], #-3687	; 0xfffff199
  f8:	746e6920 	strbtvc	r6, [lr], #-2336	; 0xfffff6e0
  fc:	6f687300 	svcvs	0x00687300
 100:	69207472 	stmdbvs	r0!, {r1, r4, r5, r6, sl, ip, sp, lr}
 104:	4700746e 	strmi	r7, [r0, -lr, ror #8]
 108:	4320554e 			; <UNDEFINED> instruction: 0x4320554e
 10c:	39203939 	stmdbcc	r0!, {r0, r3, r4, r5, r8, fp, ip, sp}
 110:	312e322e 			; <UNDEFINED> instruction: 0x312e322e
 114:	31303220 	teqcc	r0, r0, lsr #4
 118:	32303139 	eorscc	r3, r0, #1073741838	; 0x4000000e
 11c:	72282035 	eorvc	r2, r8, #53, 0	; 0x35
 120:	61656c65 	cmnvs	r5, r5, ror #24
 124:	20296573 	eorcs	r6, r9, r3, ror r5
 128:	4d52415b 	ldfmie	f4, [r2, #-364]	; 0xfffffe94
 12c:	6d72612f 	ldfvse	f6, [r2, #-188]!	; 0xffffff44
 130:	622d392d 	eorvs	r3, sp, #737280	; 0xb4000
 134:	636e6172 	cmnvs	lr, #-2147483620	; 0x8000001c
 138:	65722068 	ldrbvs	r2, [r2, #-104]!	; 0xffffff98
 13c:	69736976 	ldmdbvs	r3!, {r1, r2, r4, r5, r6, r8, fp, sp, lr}^
 140:	32206e6f 	eorcc	r6, r0, #1776	; 0x6f0
 144:	39353737 	ldmdbcc	r5!, {r0, r1, r2, r4, r5, r8, r9, sl, ip, sp}
 148:	2d205d39 	stccs	13, cr5, [r0, #-228]!	; 0xffffff1c
 14c:	7570636d 	ldrbvc	r6, [r0, #-877]!	; 0xfffffc93
 150:	6d72613d 	ldfvse	f6, [r2, #-244]!	; 0xffffff0c
 154:	36373131 			; <UNDEFINED> instruction: 0x36373131
 158:	2d667a6a 	vstmdbcs	r6!, {s15-s120}
 15c:	6d2d2073 	stcvs	0, cr2, [sp, #-460]!	; 0xfffffe34
 160:	656e7574 	strbvs	r7, [lr, #-1396]!	; 0xfffffa8c
 164:	6d72613d 	ldfvse	f6, [r2, #-244]!	; 0xffffff0c
 168:	36373131 			; <UNDEFINED> instruction: 0x36373131
 16c:	2d667a6a 	vstmdbcs	r6!, {s15-s120}
 170:	6d2d2073 	stcvs	0, cr2, [sp, #-460]!	; 0xfffffe34
 174:	616f6c66 	cmnvs	pc, r6, ror #24
 178:	62612d74 	rsbvs	r2, r1, #116, 26	; 0x1d00
 17c:	6f733d69 	svcvs	0x00733d69
 180:	2d207466 	cfstrscs	mvf7, [r0, #-408]!	; 0xfffffe68
 184:	6d72616d 	ldfvse	f6, [r2, #-436]!	; 0xfffffe4c
 188:	616d2d20 	cmnvs	sp, r0, lsr #26
 18c:	3d686372 	stclcc	3, cr6, [r8, #-456]!	; 0xfffffe38
 190:	766d7261 	strbtvc	r7, [sp], -r1, ror #4
 194:	207a6b36 	rsbscs	r6, sl, r6, lsr fp
 198:	6467672d 	strbtvs	r6, [r7], #-1837	; 0xfffff8d3
 19c:	4f2d2062 	svcmi	0x002d2062
 1a0:	732d2067 			; <UNDEFINED> instruction: 0x732d2067
 1a4:	673d6474 			; <UNDEFINED> instruction: 0x673d6474
 1a8:	3939756e 	ldmdbcc	r9!, {r1, r2, r3, r5, r6, r8, sl, ip, sp, lr}
 1ac:	66662d20 	strbtvs	r2, [r6], -r0, lsr #26
 1b0:	73656572 	cmnvc	r5, #478150656	; 0x1c800000
 1b4:	646e6174 	strbtvs	r6, [lr], #-372	; 0xfffffe8c
 1b8:	00676e69 	rsbeq	r6, r7, r9, ror #28
 1bc:	5f697072 	svcpl	0x00697072
 1c0:	63747570 	cmnvs	r4, #112, 10	; 0x1c000000
 1c4:	00726168 	rsbseq	r6, r2, r8, ror #2
 1c8:	73677261 	cmnvc	r7, #268435462	; 0x10000006
 1cc:	5f617600 	svcpl	0x00617600
 1d0:	6e697270 	mcrvs	2, 3, r7, cr9, cr0, {3}
 1d4:	5f006b74 	svcpl	0x00006b74
 1d8:	756e675f 	strbvc	r6, [lr, #-1887]!	; 0xfffff8a1
 1dc:	61765f63 	cmnvs	r6, r3, ror #30
 1e0:	73696c5f 	cmnvc	r9, #24320	; 0x5f00
 1e4:	5f5f0074 	svcpl	0x005f0074
 1e8:	6c5f6176 	ldfvse	f6, [pc], {118}	; 0x76
 1ec:	00747369 	rsbseq	r7, r4, r9, ror #6
 1f0:	70615f5f 	rsbvc	r5, r1, pc, asr pc
 1f4:	6c2f2e00 	stcvs	14, cr2, [pc], #-0	; 1fc <LINK_ADDR-0x7e04>
 1f8:	2f636269 	svccs	0x00636269
 1fc:	6e697270 	mcrvs	2, 3, r7, cr9, cr0, {3}
 200:	632e6b74 			; <UNDEFINED> instruction: 0x632e6b74
 204:	73552f00 	cmpvc	r5, #0, 30
 208:	2f737265 	svccs	0x00737265
 20c:	73697274 	cmnvc	r9, #116, 4	; 0x40000007
 210:	6e6e6574 	mcrvs	5, 3, r6, cr14, cr4, {3}
 214:	6d6c6c6f 	stclvs	12, cr6, [ip, #-444]!	; 0xfffffe44
 218:	442f6e61 	strtmi	r6, [pc], #-3681	; 220 <LINK_ADDR-0x7de0>
 21c:	6d75636f 	ldclvs	3, cr6, [r5, #-444]!	; 0xfffffe44
 220:	73746e65 	cmnvc	r4, #1616	; 0x650
 224:	7270532f 	rsbsvc	r5, r0, #-1140850688	; 0xbc000000
 228:	5f676e69 	svcpl	0x00676e69
 22c:	72617551 	rsbvc	r7, r1, #339738624	; 0x14400000
 230:	5f726574 	svcpl	0x00726574
 234:	32323032 	eorscc	r3, r2, #50, 0	; 0x32
 238:	3253432f 	subscc	r4, r3, #-1140850688	; 0xbc000000
 23c:	584c3034 	stmdapl	ip, {r2, r4, r5, ip, sp}^
 240:	7270732d 	rsbsvc	r7, r0, #-1275068416	; 0xb4000000
 244:	6c2f3232 	sfmvs	f3, 4, [pc], #-200	; 184 <LINK_ADDR-0x7e7c>
 248:	69706269 	ldmdbvs	r0!, {r0, r3, r5, r6, r9, sp, lr}^
 24c:	746e6900 	strbtvc	r6, [lr], #-2304	; 0xfffff700
 250:	616e7265 	cmnvs	lr, r5, ror #4
 254:	75705f6c 	ldrbvc	r5, [r0, #-3948]!	; 0xfffff094
 258:	2e006b74 	vmovcs.16	d0[1], r6
 25c:	62696c2f 	rsbvs	r6, r9, #12032	; 0x2f00
 260:	75702f63 	ldrbvc	r2, [r0, #-3939]!	; 0xfffff09d
 264:	632e6b74 			; <UNDEFINED> instruction: 0x632e6b74
 268:	64736900 	ldrbtvs	r6, [r3], #-2304	; 0xfffff700
 26c:	74696769 	strbtvc	r6, [r9], #-1897	; 0xfffff897
 270:	6e697500 	cdpvs	5, 6, cr7, cr9, cr0, {0}
 274:	5f343674 	svcpl	0x00343674
 278:	2f2e0074 	svccs	0x002e0074
 27c:	6362696c 	cmnvs	r2, #108, 18	; 0x1b0000
 280:	2d61762f 	stclcs	6, cr7, [r1, #-188]!	; 0xffffff44
 284:	6e697270 	mcrvs	2, 3, r7, cr9, cr0, {3}
 288:	632e6b74 			; <UNDEFINED> instruction: 0x632e6b74
 28c:	635f5f00 	cmpvs	pc, #0, 30
 290:	5f65646f 	svcpl	0x0065646f
 294:	72617473 	rsbvc	r7, r1, #1929379840	; 0x73000000
 298:	005f5f74 	subseq	r5, pc, r4, ror pc	; <UNPREDICTABLE>
 29c:	73625f5f 	cmnvc	r2, #380	; 0x17c
 2a0:	74735f73 	ldrbtvc	r5, [r3], #-3955	; 0xfffff08d
 2a4:	5f747261 	svcpl	0x00747261
 2a8:	6977005f 	ldmdbvs	r7!, {r0, r1, r2, r3, r4, r6}^
 2ac:	00687464 	rsbeq	r7, r8, r4, ror #8
 2b0:	61645f5f 	cmnvs	r4, pc, asr pc
 2b4:	655f6174 	ldrbvs	r6, [pc, #-372]	; 148 <LINK_ADDR-0x7eb8>
 2b8:	5f5f646e 	svcpl	0x005f646e
 2bc:	74757000 	ldrbtvc	r7, [r5], #-0
 2c0:	70665f63 	rsbvc	r5, r6, r3, ror #30
 2c4:	625f5f00 	subsvs	r5, pc, #0, 30
 2c8:	655f7373 	ldrbvs	r7, [pc, #-883]	; ffffff5d <__bss_end__+0xffff6bad>
 2cc:	5f5f646e 	svcpl	0x005f646e
 2d0:	685f5f00 	ldmdavs	pc, {r8, r9, sl, fp, ip, lr}^	; <UNPREDICTABLE>
 2d4:	5f706165 	svcpl	0x00706165
 2d8:	72617473 	rsbvc	r7, r1, #1929379840	; 0x73000000
 2dc:	005f5f74 	subseq	r5, pc, r4, ror pc	; <UNPREDICTABLE>
 2e0:	746e6975 	strbtvc	r6, [lr], #-2421	; 0xfffff68b
 2e4:	745f3233 	ldrbvc	r3, [pc], #-563	; 2ec <LINK_ADDR-0x7d14>
 2e8:	69707200 	ldmdbvs	r0!, {r9, ip, sp, lr}^
 2ec:	7465735f 	strbtvc	r7, [r5], #-863	; 0xfffffca1
 2f0:	74756f5f 	ldrbtvc	r6, [r5], #-3935	; 0xfffff0a1
 2f4:	00747570 	rsbseq	r7, r4, r0, ror r5
 2f8:	5f746d66 	svcpl	0x00746d66
 2fc:	72617473 	rsbvc	r7, r1, #1929379840	; 0x73000000
 300:	74730074 	ldrbtvc	r0, [r3], #-116	; 0xffffff8c
 304:	74616372 	strbtvc	r6, [r1], #-882	; 0xfffffc8e
 308:	72747300 	rsbsvc	r7, r4, #0, 6
 30c:	00797063 	rsbseq	r7, r9, r3, rrx
 310:	5f67656e 	svcpl	0x0067656e
 314:	5f5f0070 	svcpl	0x005f0070
 318:	65646f63 	strbvs	r6, [r4, #-3939]!	; 0xfffff09d
 31c:	646e655f 	strbtvs	r6, [lr], #-1375	; 0xfffffaa1
 320:	65005f5f 	strvs	r5, [r0, #-3935]	; 0xfffff0a1
 324:	0074696d 	rsbseq	r6, r4, sp, ror #18
 328:	73747570 	cmnvc	r4, #112, 10	; 0x1c000000
 32c:	0070665f 	rsbseq	r6, r0, pc, asr r6
 330:	65766572 	ldrbvs	r6, [r6, #-1394]!	; 0xfffffa8e
 334:	00657372 	rsbeq	r7, r5, r2, ror r3
 338:	63727473 	cmnvs	r2, #1929379840	; 0x73000000
 33c:	5f00706d 	svcpl	0x0000706d
 340:	7461645f 	strbtvc	r6, [r1], #-1119	; 0xfffffba1
 344:	74735f61 	ldrbtvc	r5, [r3], #-3937	; 0xfffff09f
 348:	5f747261 	svcpl	0x00747261
 34c:	5f5f005f 	svcpl	0x005f005f
 350:	676f7270 			; <UNDEFINED> instruction: 0x676f7270
 354:	646e655f 	strbtvs	r6, [lr], #-1375	; 0xfffffaa1
 358:	6e005f5f 	mcrvs	15, 0, r5, cr0, cr15, {2}
 35c:	00316d75 	eorseq	r6, r1, r5, ror sp
 360:	6e727473 	mrcvs	4, 3, r7, cr2, cr3, {3}
 364:	00706d63 	rsbseq	r6, r0, r3, ror #26
 368:	65736162 	ldrbvs	r6, [r3, #-354]!	; 0xfffffe9e
 36c:	67697300 	strbvs	r7, [r9, -r0, lsl #6]!
 370:	5f64656e 	svcpl	0x0064656e
 374:	70720070 	rsbsvc	r0, r2, r0, ror r0
 378:	65725f69 	ldrbvs	r5, [r2, #-3945]!	; 0xfffff097
 37c:	746f6f62 	strbtvc	r6, [pc], #-3938	; 384 <LINK_ADDR-0x7c7c>
 380:	6c656400 	cfstrdvs	mvd6, [r5], #-0
 384:	6d5f7961 	vldrvs.16	s15, [pc, #-194]	; 2ca <LINK_ADDR-0x7d36>	; <UNPREDICTABLE>
 388:	2f2e0073 	svccs	0x002e0073
 38c:	66617473 			; <UNDEFINED> instruction: 0x66617473
 390:	72732d66 	rsbsvc	r2, r3, #6528	; 0x1980
 394:	6c632f63 	stclvs	15, cr2, [r3], #-396	; 0xfffffe74
 398:	2d6e6165 	stfcse	f6, [lr, #-404]!	; 0xfffffe6c
 39c:	6f626572 	svcvs	0x00626572
 3a0:	632e746f 			; <UNDEFINED> instruction: 0x632e746f
 3a4:	72617500 	rsbvc	r7, r1, #0, 10
 3a8:	6c665f74 	stclvs	15, cr5, [r6], #-464	; 0xfffffe30
 3ac:	5f687375 	svcpl	0x00687375
 3b0:	5f007874 	svcpl	0x00007874
 3b4:	61747363 	cmnvs	r4, r3, ror #6
 3b8:	62007472 	andvs	r7, r0, #1912602624	; 0x72000000
 3bc:	655f7373 	ldrbvs	r7, [pc, #-883]	; 51 <LINK_ADDR-0x7faf>
 3c0:	7500646e 	strvc	r6, [r0, #-1134]	; 0xfffffb92
 3c4:	5f747261 	svcpl	0x00747261
 3c8:	74696e69 	strbtvc	r6, [r9], #-3689	; 0xfffff197
 3cc:	73756300 	cmnvc	r5, #0, 6
 3d0:	5f6d6f74 	svcpl	0x006d6f74
 3d4:	64616f6c 	strbtvs	r6, [r1], #-3948	; 0xfffff094
 3d8:	2e007265 	cdpcs	2, 0, cr7, cr0, cr5, {3}
 3dc:	6174732f 	cmnvs	r4, pc, lsr #6
 3e0:	732d6666 			; <UNDEFINED> instruction: 0x732d6666
 3e4:	632f6372 			; <UNDEFINED> instruction: 0x632f6372
 3e8:	72617473 	rsbvc	r7, r1, #1929379840	; 0x73000000
 3ec:	00632e74 	rsbeq	r2, r3, r4, ror lr
 3f0:	74732f2e 	ldrbtvc	r2, [r3], #-3886	; 0xfffff0d2
 3f4:	2d666661 	stclcs	6, cr6, [r6, #-388]!	; 0xfffffe7c
 3f8:	2f637273 	svccs	0x00637273
 3fc:	74737563 	ldrbtvc	r7, [r3], #-1379	; 0xfffffa9d
 400:	6c2d6d6f 	stcvs	13, cr6, [sp], #-444	; 0xfffffe44
 404:	6564616f 	strbvs	r6, [r4, #-367]!	; 0xfffffe91
 408:	00632e72 	rsbeq	r2, r3, r2, ror lr
 40c:	6f626572 	svcvs	0x00626572
 410:	635f746f 	cmpvs	pc, #1862270976	; 0x6f000000
 414:	6f6c6c61 	svcvs	0x006c6c61
 418:	50007475 	andpl	r7, r0, r5, ror r4
 41c:	44575f4d 	ldrbmi	r5, [r7], #-3917	; 0xfffff0b3
 420:	5000474f 	andpl	r4, r0, pc, asr #14
 424:	32335455 	eorscc	r5, r3, #1426063360	; 0x55000000
 428:	74657300 	strbtvc	r7, [r5], #-768	; 0xfffffd00
 42c:	6573755f 	ldrbvs	r7, [r3, #-1375]!	; 0xfffffaa1
 430:	656c5f72 	strbvs	r5, [ip, #-3954]!	; 0xfffff08e
 434:	006c6576 	rsbeq	r6, ip, r6, ror r5
 438:	74732f2e 	ldrbtvc	r2, [r3], #-3886	; 0xfffff0d2
 43c:	2d666661 	stclcs	6, cr6, [r6, #-388]!	; 0xfffffe7c
 440:	2f637273 	svccs	0x00637273
 444:	6f626572 	svcvs	0x00626572
 448:	632e746f 			; <UNDEFINED> instruction: 0x632e746f
 44c:	5f4d5000 	svcpl	0x004d5000
 450:	53534150 	cmppl	r3, #20
 454:	44524f57 	ldrbmi	r4, [r2], #-3927	; 0xfffff0a9
 458:	5f746100 	svcpl	0x00746100
 45c:	72657375 	rsbvc	r7, r5, #-738197503	; 0xd4000001
 460:	76656c5f 			; <UNDEFINED> instruction: 0x76656c5f
 464:	50006c65 	andpl	r6, r0, r5, ror #24
 468:	53525f4d 	cmppl	r2, #308	; 0x134
 46c:	575f4354 			; <UNDEFINED> instruction: 0x575f4354
 470:	47464352 	smlsldmi	r4, r6, r2, r3
 474:	4c55465f 	mrrcmi	6, 5, r4, r5, cr15
 478:	45525f4c 	ldrbmi	r5, [r2, #-3916]	; 0xfffff0b4
 47c:	00544553 	subseq	r4, r4, r3, asr r5
 480:	525f4d50 	subspl	r4, pc, #80, 26	; 0x1400
 484:	00435453 	subeq	r5, r3, r3, asr r4
 488:	72737063 	rsbsvc	r7, r3, #99, 0	; 0x63
 48c:	76656400 	strbtvc	r6, [r5], -r0, lsl #8
 490:	7261625f 	rsbvc	r6, r1, #-268435451	; 0xf0000005
 494:	72656972 	rsbvc	r6, r5, #1867776	; 0x1c8000
 498:	6c656400 	cfstrdvs	mvd6, [r5], #-0
 49c:	735f7961 	cmpvc	pc, #1589248	; 0x184000
 4a0:	2e006365 	cdpcs	3, 0, cr6, cr0, cr5, {3}
 4a4:	6174732f 	cmnvs	r4, pc, lsr #6
 4a8:	732d6666 			; <UNDEFINED> instruction: 0x732d6666
 4ac:	742f6372 	strtvc	r6, [pc], #-882	; 4b4 <LINK_ADDR-0x7b4c>
 4b0:	72656d69 	rsbvc	r6, r5, #6720	; 0x1a40
 4b4:	4700632e 	strmi	r6, [r0, -lr, lsr #6]
 4b8:	32335445 	eorscc	r5, r3, #1157627904	; 0x45000000
 4bc:	6d697400 	cfstrdvs	mvd7, [r9, #-0]
 4c0:	675f7265 	ldrbvs	r7, [pc, -r5, ror #4]
 4c4:	755f7465 	ldrbvc	r7, [pc, #-1125]	; 67 <LINK_ADDR-0x7f99>
 4c8:	00636573 	rsbeq	r6, r3, r3, ror r5
 4cc:	616c6564 	cmnvs	ip, r4, ror #10
 4d0:	73755f79 	cmnvc	r5, #484	; 0x1e4
 4d4:	6d697400 	cfstrdvs	mvd7, [r9, #-0]
 4d8:	675f7265 	ldrbvs	r7, [pc, -r5, ror #4]
 4dc:	755f7465 	ldrbvc	r7, [pc, #-1125]	; 7f <LINK_ADDR-0x7f81>
 4e0:	5f636573 	svcpl	0x00636573
 4e4:	00776172 	rsbseq	r6, r7, r2, ror r1
 4e8:	33747570 	cmncc	r4, #112, 10	; 0x1c000000
 4ec:	61620032 	cmnvs	r2, r2, lsr r0
 4f0:	765f6475 			; <UNDEFINED> instruction: 0x765f6475
 4f4:	73006c61 	movwvc	r6, #3169	; 0xc61
 4f8:	00746174 	rsbseq	r6, r4, r4, ror r1
 4fc:	74726175 	ldrbtvc	r6, [r2], #-373	; 0xfffffe8b
 500:	6e61635f 	mcrvs	3, 3, r6, cr1, cr15, {2}
 504:	7465675f 	strbtvc	r6, [r5], #-1887	; 0xfffff8a1
 508:	50470063 	subpl	r0, r7, r3, rrx
 50c:	465f4f49 	ldrbmi	r4, [pc], -r9, asr #30
 510:	5f434e55 	svcpl	0x00434e55
 514:	5054554f 	subspl	r5, r4, pc, asr #10
 518:	61005455 	tstvs	r0, r5, asr r4
 51c:	705f7875 	subsvc	r7, pc, r5, ror r8	; <UNPREDICTABLE>
 520:	70697265 	rsbvc	r7, r9, r5, ror #4
 524:	75007368 	strvc	r7, [r0, #-872]	; 0xfffffc98
 528:	2e747261 	cdpcs	2, 7, cr7, cr4, cr1, {3}
 52c:	61750063 	cmnvs	r5, r3, rrx
 530:	635f7472 	cmpvs	pc, #1912602624	; 0x72000000
 534:	705f6e61 	subsvc	r6, pc, r1, ror #28
 538:	00637475 	rsbeq	r7, r3, r5, ror r4
 53c:	74726175 	ldrbtvc	r6, [r2], #-373	; 0xfffffe8b
 540:	5f78745f 	svcpl	0x0078745f
 544:	655f7369 	ldrbvs	r7, [pc, #-873]	; 1e3 <LINK_ADDR-0x7e1d>
 548:	7974706d 	ldmdbvc	r4!, {r0, r2, r3, r5, r6, ip, sp, lr}^
 54c:	49504700 	ldmdbmi	r0, {r8, r9, sl, lr}^
 550:	55465f4f 	strbpl	r5, [r6, #-3919]	; 0xfffff0b1
 554:	415f434e 	cmpmi	pc, lr, asr #6
 558:	0030544c 	eorseq	r5, r0, ip, asr #8
 55c:	4f495047 	svcmi	0x00495047
 560:	4e55465f 	mrcmi	6, 2, r4, cr5, cr15, {2}
 564:	4c415f43 	mcrrmi	15, 4, r5, r1, cr3
 568:	47003154 	smlsdmi	r0, r4, r1, r3
 56c:	5f4f4950 	svcpl	0x004f4950
 570:	434e5546 	movtmi	r5, #58694	; 0xe546
 574:	544c415f 	strbpl	r4, [ip], #-351	; 0xfffffea1
 578:	50470032 	subpl	r0, r7, r2, lsr r0
 57c:	465f4f49 	ldrbmi	r4, [pc], -r9, asr #30
 580:	5f434e55 	svcpl	0x00434e55
 584:	33544c41 	cmpcc	r4, #16640	; 0x4100
 588:	49504700 	ldmdbmi	r0, {r8, r9, sl, lr}^
 58c:	55465f4f 	strbpl	r5, [r6, #-3919]	; 0xfffff0b1
 590:	415f434e 	cmpmi	pc, lr, asr #6
 594:	0035544c 	eorseq	r5, r5, ip, asr #8
 598:	6d6f682f 	stclvs	8, cr6, [pc, #-188]!	; 4e4 <LINK_ADDR-0x7b1c>
 59c:	6e652f65 	cdpvs	15, 6, cr2, cr5, cr5, {3}
 5a0:	72656c67 	rsbvc	r6, r5, #26368	; 0x6700
 5a4:	616c632f 	cmnvs	ip, pc, lsr #6
 5a8:	632f7373 			; <UNDEFINED> instruction: 0x632f7373
 5ac:	30343273 	eorscc	r3, r4, r3, ror r2
 5b0:	322d786c 	eorcc	r7, sp, #108, 16	; 0x6c0000
 5b4:	72707332 	rsbsvc	r7, r0, #-939524096	; 0xc8000000
 5b8:	62696c2f 	rsbvs	r6, r9, #12032	; 0x2f00
 5bc:	732f6970 			; <UNDEFINED> instruction: 0x732f6970
 5c0:	66666174 			; <UNDEFINED> instruction: 0x66666174
 5c4:	6972702d 	ldmdbvs	r2!, {r0, r2, r3, r5, ip, sp, lr}^
 5c8:	65746176 	ldrbvs	r6, [r4, #-374]!	; 0xfffffe8a
 5cc:	75616200 	strbvc	r6, [r1, #-512]!	; 0xfffffe00
 5d0:	75610064 	strbvc	r0, [r1, #-100]!	; 0xffffff9c
 5d4:	6e655f78 	mcrvs	15, 3, r5, cr5, cr8, {3}
 5d8:	656c6261 	strbvs	r6, [ip, #-609]!	; 0xfffffd9f
 5dc:	61750073 	cmnvs	r5, r3, ror r0
 5e0:	675f7472 			; <UNDEFINED> instruction: 0x675f7472
 5e4:	00637465 	rsbeq	r7, r3, r5, ror #8
 5e8:	20554e47 	subscs	r4, r5, r7, asr #28
 5ec:	20393943 	eorscs	r3, r9, r3, asr #18
 5f0:	332e3031 			; <UNDEFINED> instruction: 0x332e3031
 5f4:	3220312e 	eorcc	r3, r0, #-2147483637	; 0x8000000b
 5f8:	30313230 	eorscc	r3, r1, r0, lsr r2
 5fc:	20343238 	eorscs	r3, r4, r8, lsr r2
 600:	6c657228 	sfmvs	f7, 2, [r5], #-160	; 0xffffff60
 604:	65736165 	ldrbvs	r6, [r3, #-357]!	; 0xfffffe9b
 608:	6d2d2029 	stcvs	0, cr2, [sp, #-164]!	; 0xffffff5c
 60c:	3d757063 	ldclcc	0, cr7, [r5, #-396]!	; 0xfffffe74
 610:	316d7261 	cmncc	sp, r1, ror #4
 614:	6a363731 	bvs	d8e2e0 <__bss_end__+0xd84f30>
 618:	732d667a 			; <UNDEFINED> instruction: 0x732d667a
 61c:	746d2d20 	strbtvc	r2, [sp], #-3360	; 0xfffff2e0
 620:	3d656e75 	stclcc	14, cr6, [r5, #-468]!	; 0xfffffe2c
 624:	316d7261 	cmncc	sp, r1, ror #4
 628:	6a363731 	bvs	d8e2f4 <__bss_end__+0xd84f44>
 62c:	732d667a 			; <UNDEFINED> instruction: 0x732d667a
 630:	666d2d20 	strbtvs	r2, [sp], -r0, lsr #26
 634:	74616f6c 	strbtvc	r6, [r1], #-3948	; 0xfffff094
 638:	6962612d 	stmdbvs	r2!, {r0, r2, r3, r5, r8, sp, lr}^
 63c:	666f733d 			; <UNDEFINED> instruction: 0x666f733d
 640:	6d2d2074 	stcvs	0, cr2, [sp, #-464]!	; 0xfffffe30
 644:	206d7261 	rsbcs	r7, sp, r1, ror #4
 648:	72616d2d 	rsbvc	r6, r1, #2880	; 0xb40
 64c:	613d6863 	teqvs	sp, r3, ror #16
 650:	36766d72 			; <UNDEFINED> instruction: 0x36766d72
 654:	2d207a6b 	vstmdbcs	r0!, {s14-s120}
 658:	62646767 	rsbvs	r6, r4, #27000832	; 0x19c0000
 65c:	674f2d20 	strbvs	r2, [pc, -r0, lsr #26]
 660:	74732d20 	ldrbtvc	r2, [r3], #-3360	; 0xfffff2e0
 664:	6e673d64 	cdpvs	13, 6, cr3, cr7, cr4, {3}
 668:	20393975 	eorscs	r3, r9, r5, ror r9
 66c:	7266662d 	rsbvc	r6, r6, #47185920	; 0x2d00000
 670:	74736565 	ldrbtvc	r6, [r3], #-1381	; 0xfffffa9b
 674:	69646e61 	stmdbvs	r4!, {r0, r5, r6, r9, sl, fp, sp, lr}^
 678:	6300676e 	movwvs	r6, #1902	; 0x76e
 67c:	006c746e 	rsbeq	r7, ip, lr, ror #8
 680:	74726175 	ldrbtvc	r6, [r2], #-373	; 0xfffffe8b
 684:	7369645f 	cmnvc	r9, #1593835520	; 0x5f000000
 688:	656c6261 	strbvs	r6, [ip, #-609]!	; 0xfffffd9f
 68c:	72617500 	rsbvc	r7, r1, #0, 10
 690:	61685f74 	smcvs	34292	; 0x85f4
 694:	61645f73 	smcvs	17907	; 0x45f3
 698:	47006174 	smlsdxmi	r0, r4, r1, r6
 69c:	5f4f4950 	svcpl	0x004f4950
 6a0:	434e5546 	movtmi	r5, #58694	; 0xe546
 6a4:	544c415f 	strbpl	r4, [ip], #-351	; 0xfffffea1
 6a8:	726f0034 	rsbvc	r0, pc, #52, 0	; 0x34
 6ac:	336e695f 	cmncc	lr, #1556480	; 0x17c000
 6b0:	63730032 	cmnvs	r3, #50, 0	; 0x32
 6b4:	63746172 	cmnvs	r4, #-2147483620	; 0x8000001c
 6b8:	61750068 	cmnvs	r5, r8, rrx
 6bc:	61007472 	tstvs	r0, r2, ror r4
 6c0:	695f646e 	ldmdbvs	pc, {r1, r2, r3, r5, r6, sl, sp, lr}^	; <UNPREDICTABLE>
 6c4:	0032336e 	eorseq	r3, r2, lr, ror #6
 6c8:	74726175 	ldrbtvc	r6, [r2], #-373	; 0xfffffe8b
 6cc:	7475705f 	ldrbtvc	r7, [r5], #-95	; 0xffffffa1
 6d0:	50470063 	subpl	r0, r7, r3, rrx
 6d4:	465f4f49 	ldrbmi	r4, [pc], -r9, asr #30
 6d8:	5f434e55 	svcpl	0x00434e55
 6dc:	55504e49 	ldrbpl	r4, [r0, #-3657]	; 0xfffff1b7
 6e0:	70670054 	rsbvc	r0, r7, r4, asr r0
 6e4:	735f6f69 	cmpvc	pc, #420	; 0x1a4
 6e8:	665f7465 	ldrbvs	r7, [pc], -r5, ror #8
 6ec:	74636e75 	strbtvc	r6, [r3], #-3701	; 0xfffff18b
 6f0:	006e6f69 	rsbeq	r6, lr, r9, ror #30
 6f4:	33746567 	cmncc	r4, #432013312	; 0x19c00000
 6f8:	6e690032 	mcrvs	0, 3, r0, cr9, cr2, {1}
 6fc:	6e726574 	mrcvs	5, 3, r6, cr2, cr4, {3}
 700:	705f6c61 	subsvc	r6, pc, r1, ror #24
 704:	68637475 	stmdavs	r3!, {r0, r2, r4, r5, r6, sl, ip, sp, lr}^
 708:	72007261 	andvc	r7, r0, #268435462	; 0x10000006
 70c:	735f6970 	cmpvc	pc, #112, 18	; 0x1c0000
 710:	705f7465 	subsvc	r7, pc, r5, ror #8
 714:	00637475 	rsbeq	r7, r3, r5, ror r4
 718:	696c2f2e 	stmdbvs	ip!, {r1, r2, r3, r5, r8, r9, sl, fp, sp}^
 71c:	702f6362 	eorvc	r6, pc, r2, ror #6
 720:	68637475 	stmdavs	r3!, {r0, r2, r4, r5, r6, sl, ip, sp, lr}^
 724:	632e7261 			; <UNDEFINED> instruction: 0x632e7261
 728:	69707200 	ldmdbvs	r0!, {r9, ip, sp, lr}^
 72c:	7365725f 	cmnvc	r5, #-268435451	; 0xf0000005
 730:	705f7465 	subsvc	r7, pc, r5, ror #8
 734:	00637475 	rsbeq	r7, r3, r5, ror r4
 738:	74736564 	ldrbtvc	r6, [r3], #-1380	; 0xfffffa9c
 73c:	6c2f2e00 	stcvs	14, cr2, [pc], #-0	; 744 <LINK_ADDR-0x78bc>
 740:	2f636269 	svccs	0x00636269
 744:	63727473 	cmnvs	r2, #1929379840	; 0x73000000
 748:	632e7461 			; <UNDEFINED> instruction: 0x632e7461
 74c:	6c2f2e00 	stcvs	14, cr2, [pc], #-0	; 754 <LINK_ADDR-0x78ac>
 750:	2f636269 	svccs	0x00636269
 754:	63727473 	cmnvs	r2, #1929379840	; 0x73000000
 758:	632e706d 			; <UNDEFINED> instruction: 0x632e706d
 75c:	6c2f2e00 	stcvs	14, cr2, [pc], #-0	; 764 <LINK_ADDR-0x789c>
 760:	2f636269 	svccs	0x00636269
 764:	63727473 	cmnvs	r2, #1929379840	; 0x73000000
 768:	632e7970 			; <UNDEFINED> instruction: 0x632e7970
 76c:	7a697300 	bvc	1a5d374 <__bss_end__+0x1a53fc4>
 770:	00745f65 	rsbseq	r5, r4, r5, ror #30
 774:	696c2f2e 	stmdbvs	ip!, {r1, r2, r3, r5, r8, r9, sl, fp, sp}^
 778:	732f6362 			; <UNDEFINED> instruction: 0x732f6362
 77c:	636e7274 	cmnvs	lr, #116, 4	; 0x40000007
 780:	632e706d 			; <UNDEFINED> instruction: 0x632e706d
 784:	732f2e00 			; <UNDEFINED> instruction: 0x732f2e00
 788:	66666174 			; <UNDEFINED> instruction: 0x66666174
 78c:	6372732d 	cmnvs	r2, #-1275068416	; 0xb4000000
 790:	6665642f 	strbtvs	r6, [r5], -pc, lsr #8
 794:	746c7561 	strbtvc	r7, [ip], #-1377	; 0xfffffa9f
 798:	6265722d 	rsbvs	r7, r5, #-805306366	; 0xd0000002
 79c:	2d746f6f 	ldclcs	15, cr6, [r4, #-444]!	; 0xfffffe44
 7a0:	6c6c6163 	stfvse	f6, [ip], #-396	; 0xfffffe74
 7a4:	2e74756f 	cdpcs	5, 7, cr7, cr4, cr15, {3}
 7a8:	70670063 	rsbvc	r0, r7, r3, rrx
 7ac:	635f6f69 	cmpvs	pc, #420	; 0x1a4
 7b0:	0030726c 	eorseq	r7, r0, ip, ror #4
 7b4:	6f697067 	svcvs	0x00697067
 7b8:	7465735f 	strbtvc	r7, [r5], #-863	; 0xfffffca1
 7bc:	70670030 	rsbvc	r0, r7, r0, lsr r0
 7c0:	775f6f69 	ldrbvc	r6, [pc, -r9, ror #30]
 7c4:	65746972 	ldrbvs	r6, [r4, #-2418]!	; 0xfffff68e
 7c8:	56454400 	strbpl	r4, [r5], -r0, lsl #8
 7cc:	4c41565f 	mcrrmi	6, 5, r5, r1, cr15
 7d0:	67003233 	smladxvs	r0, r3, r2, r3
 7d4:	5f6f6970 	svcpl	0x006f6970
 7d8:	64616572 	strbtvs	r6, [r1], #-1394	; 0xfffffa8e
 7dc:	69706700 	ldmdbvs	r0!, {r8, r9, sl, sp, lr}^
 7e0:	65735f6f 	ldrbvs	r5, [r3, #-3951]!	; 0xfffff091
 7e4:	6e695f74 	mcrvs	15, 3, r5, cr9, cr4, {3}
 7e8:	00747570 	rsbseq	r7, r4, r0, ror r5
 7ec:	6f697067 	svcvs	0x00697067
 7f0:	7465735f 	strbtvc	r7, [r5], #-863	; 0xfffffca1
 7f4:	66666f5f 	uqsaxvs	r6, r6, pc	; <UNPREDICTABLE>
 7f8:	69706700 	ldmdbvs	r0!, {r8, r9, sl, sp, lr}^
 7fc:	65735f6f 	ldrbvs	r5, [r3, #-3951]!	; 0xfffff091
 800:	756f5f74 	strbvc	r5, [pc, #-3956]!	; fffff894 <__bss_end__+0xffff64e4>
 804:	74757074 	ldrbtvc	r7, [r5], #-116	; 0xffffff8c
 808:	6e756600 	cdpvs	6, 7, cr6, cr5, cr0, {0}
 80c:	70670063 	rsbvc	r0, r7, r3, rrx
 810:	665f6f69 	ldrbvs	r6, [pc], -r9, ror #30
 814:	5f636e75 	svcpl	0x00636e75
 818:	70670074 	rsbvc	r0, r7, r4, ror r0
 81c:	6c5f6f69 	mrrcvs	15, 6, r6, pc, cr9	; <UNPREDICTABLE>
 820:	00307665 	eorseq	r7, r0, r5, ror #12
 824:	6b6e6162 	blvs	1b98db4 <__bss_end__+0x1b8fa04>
 828:	69706700 	ldmdbvs	r0!, {r8, r9, sl, sp, lr}^
 82c:	00632e6f 	rsbeq	r2, r3, pc, ror #28
 830:	6f697067 	svcvs	0x00697067
 834:	7465735f 	strbtvc	r7, [r5], #-863	; 0xfffffca1
 838:	006e6f5f 	rsbeq	r6, lr, pc, asr pc

Disassembly of section .debug_frame:

00000000 <.debug_frame>:
   0:	0000000c 	andeq	r0, r0, ip
   4:	ffffffff 			; <UNDEFINED> instruction: 0xffffffff
   8:	7c020001 	stcvc	0, cr0, [r2], {1}
   c:	000d0c0e 	andeq	r0, sp, lr, lsl #24
  10:	00000014 	andeq	r0, r0, r4, lsl r0
  14:	00000000 	andeq	r0, r0, r0
  18:	00008078 	andeq	r8, r0, r8, ror r0
  1c:	00000040 	andeq	r0, r0, r0, asr #32
  20:	84080e42 	strhi	r0, [r8], #-3650	; 0xfffff1be
  24:	00018e02 	andeq	r8, r1, r2, lsl #28
  28:	0000000c 	andeq	r0, r0, ip
  2c:	ffffffff 			; <UNDEFINED> instruction: 0xffffffff
  30:	7c020001 	stcvc	0, cr0, [r2], {1}
  34:	000d0c0e 	andeq	r0, sp, lr, lsl #24
  38:	00000034 	andeq	r0, r0, r4, lsr r0
  3c:	00000028 	andeq	r0, r0, r8, lsr #32
  40:	000080b8 	strheq	r8, [r0], -r8	; <UNPREDICTABLE>
  44:	00000058 	andeq	r0, r0, r8, asr r0
  48:	80100e42 	andshi	r0, r0, r2, asr #28
  4c:	82038104 	andhi	r8, r3, #1
  50:	42018302 	andmi	r8, r1, #134217728	; 0x8000000
  54:	07841c0e 	streq	r1, [r4, lr, lsl #24]
  58:	058e0685 	streq	r0, [lr, #1669]	; 0x685
  5c:	5c280e42 	stcpl	14, cr0, [r8], #-264	; 0xfffffef8
  60:	ce421c0e 	cdpgt	12, 4, cr1, cr2, cr14, {0}
  64:	100ec4c5 	andne	ip, lr, r5, asr #9
  68:	c1c2c342 	bicgt	ip, r2, r2, asr #6
  6c:	00000ec0 	andeq	r0, r0, r0, asr #29
  70:	0000000c 	andeq	r0, r0, ip
  74:	ffffffff 			; <UNDEFINED> instruction: 0xffffffff
  78:	7c020001 	stcvc	0, cr0, [r2], {1}
  7c:	000d0c0e 	andeq	r0, sp, lr, lsl #24
  80:	00000014 	andeq	r0, r0, r4, lsl r0
  84:	00000070 	andeq	r0, r0, r0, ror r0
  88:	00008110 	andeq	r8, r0, r0, lsl r1
  8c:	00000034 	andeq	r0, r0, r4, lsr r0
  90:	84080e42 	strhi	r0, [r8], #-3650	; 0xfffff1be
  94:	00018e02 	andeq	r8, r1, r2, lsl #28
  98:	0000000c 	andeq	r0, r0, ip
  9c:	ffffffff 			; <UNDEFINED> instruction: 0xffffffff
  a0:	7c020001 	stcvc	0, cr0, [r2], {1}
  a4:	000d0c0e 	andeq	r0, sp, lr, lsl #24
  a8:	0000000c 	andeq	r0, r0, ip
  ac:	00000098 	muleq	r0, r8, r0
  b0:	00008144 	andeq	r8, r0, r4, asr #2
  b4:	00000014 	andeq	r0, r0, r4, lsl r0
  b8:	0000000c 	andeq	r0, r0, ip
  bc:	00000098 	muleq	r0, r8, r0
  c0:	00008158 	andeq	r8, r0, r8, asr r1
  c4:	00000024 	andeq	r0, r0, r4, lsr #32
  c8:	0000000c 	andeq	r0, r0, ip
  cc:	00000098 	muleq	r0, r8, r0
  d0:	0000817c 	andeq	r8, r0, ip, ror r1
  d4:	00000038 	andeq	r0, r0, r8, lsr r0
  d8:	00000024 	andeq	r0, r0, r4, lsr #32
  dc:	00000098 	muleq	r0, r8, r0
  e0:	000081b4 			; <UNDEFINED> instruction: 0x000081b4
  e4:	000001b4 			; <UNDEFINED> instruction: 0x000001b4
  e8:	84140e42 	ldrhi	r0, [r4], #-3650	; 0xfffff1be
  ec:	86048505 	strhi	r8, [r4], -r5, lsl #10
  f0:	8e028703 	cdphi	7, 0, cr8, cr2, cr3, {0}
  f4:	600e4201 	andvs	r4, lr, r1, lsl #4
  f8:	0e0a9a02 	vmlaeq.f32	s18, s20, s4
  fc:	000b4214 	andeq	r4, fp, r4, lsl r2
 100:	00000014 	andeq	r0, r0, r4, lsl r0
 104:	00000098 	muleq	r0, r8, r0
 108:	00008368 	andeq	r8, r0, r8, ror #6
 10c:	00000064 	andeq	r0, r0, r4, rrx
 110:	8e040e54 	mcrhi	14, 0, r0, cr4, cr4, {2}
 114:	100e4201 	andne	r4, lr, r1, lsl #4
 118:	0000002c 	andeq	r0, r0, ip, lsr #32
 11c:	00000098 	muleq	r0, r8, r0
 120:	000083cc 	andeq	r8, r0, ip, asr #7
 124:	000004b8 			; <UNDEFINED> instruction: 0x000004b8
 128:	84240e42 	strthi	r0, [r4], #-3650	; 0xfffff1be
 12c:	86088509 	strhi	r8, [r8], -r9, lsl #10
 130:	88068707 	stmdahi	r6, {r0, r1, r2, r8, r9, sl, pc}
 134:	8a048905 	bhi	122550 <__bss_end__+0x1191a0>
 138:	8e028b03 	vmlahi.f64	d8, d2, d3
 13c:	b80e4201 	stmdalt	lr, {r0, r9, lr}
 140:	02380302 	eorseq	r0, r8, #134217728	; 0x8000000
 144:	0000240e 	andeq	r2, r0, lr, lsl #8
 148:	0000000c 	andeq	r0, r0, ip
 14c:	ffffffff 			; <UNDEFINED> instruction: 0xffffffff
 150:	7c020001 	stcvc	0, cr0, [r2], {1}
 154:	000d0c0e 	andeq	r0, sp, lr, lsl #24
 158:	00000014 	andeq	r0, r0, r4, lsl r0
 15c:	00000148 	andeq	r0, r0, r8, asr #2
 160:	00008884 	andeq	r8, r0, r4, lsl #17
 164:	0000002c 	andeq	r0, r0, ip, lsr #32
 168:	84080e42 	strhi	r0, [r8], #-3650	; 0xfffff1be
 16c:	00018e02 	andeq	r8, r1, r2, lsl #28
 170:	0000000c 	andeq	r0, r0, ip
 174:	ffffffff 			; <UNDEFINED> instruction: 0xffffffff
 178:	7c020001 	stcvc	0, cr0, [r2], {1}
 17c:	000d0c0e 	andeq	r0, sp, lr, lsl #24
 180:	00000014 	andeq	r0, r0, r4, lsl r0
 184:	00000170 	andeq	r0, r0, r0, ror r1
 188:	000088b0 			; <UNDEFINED> instruction: 0x000088b0
 18c:	0000003c 	andeq	r0, r0, ip, lsr r0
 190:	84080e42 	strhi	r0, [r8], #-3650	; 0xfffff1be
 194:	00018e02 	andeq	r8, r1, r2, lsl #28
 198:	0000000c 	andeq	r0, r0, ip
 19c:	ffffffff 			; <UNDEFINED> instruction: 0xffffffff
 1a0:	7c020001 	stcvc	0, cr0, [r2], {1}
 1a4:	000d0c0e 	andeq	r0, sp, lr, lsl #24
 1a8:	0000000c 	andeq	r0, r0, ip
 1ac:	00000198 	muleq	r0, r8, r1
 1b0:	000088ec 	andeq	r8, r0, ip, ror #17
 1b4:	00000004 	andeq	r0, r0, r4
 1b8:	0000000c 	andeq	r0, r0, ip
 1bc:	ffffffff 			; <UNDEFINED> instruction: 0xffffffff
 1c0:	7c020001 	stcvc	0, cr0, [r2], {1}
 1c4:	000d0c0e 	andeq	r0, sp, lr, lsl #24
 1c8:	0000000c 	andeq	r0, r0, ip
 1cc:	000001b8 			; <UNDEFINED> instruction: 0x000001b8
 1d0:	000088f0 	strdeq	r8, [r0], -r0
 1d4:	00000018 	andeq	r0, r0, r8, lsl r0
 1d8:	0000000c 	andeq	r0, r0, ip
 1dc:	000001b8 			; <UNDEFINED> instruction: 0x000001b8
 1e0:	00008908 	andeq	r8, r0, r8, lsl #18
 1e4:	00000014 	andeq	r0, r0, r4, lsl r0
 1e8:	00000014 	andeq	r0, r0, r4, lsl r0
 1ec:	000001b8 			; <UNDEFINED> instruction: 0x000001b8
 1f0:	0000891c 	andeq	r8, r0, ip, lsl r9
 1f4:	00000054 	andeq	r0, r0, r4, asr r0
 1f8:	84080e42 	strhi	r0, [r8], #-3650	; 0xfffff1be
 1fc:	00018e02 	andeq	r8, r1, r2, lsl #28
 200:	0000000c 	andeq	r0, r0, ip
 204:	ffffffff 			; <UNDEFINED> instruction: 0xffffffff
 208:	7c020001 	stcvc	0, cr0, [r2], {1}
 20c:	000d0c0e 	andeq	r0, sp, lr, lsl #24
 210:	00000014 	andeq	r0, r0, r4, lsl r0
 214:	00000200 	andeq	r0, r0, r0, lsl #4
 218:	00008970 	andeq	r8, r0, r0, ror r9
 21c:	00000014 	andeq	r0, r0, r4, lsl r0
 220:	84080e42 	strhi	r0, [r8], #-3650	; 0xfffff1be
 224:	00018e02 	andeq	r8, r1, r2, lsl #28
 228:	00000014 	andeq	r0, r0, r4, lsl r0
 22c:	00000200 	andeq	r0, r0, r0, lsl #4
 230:	00008984 	andeq	r8, r0, r4, lsl #19
 234:	0000001c 	andeq	r0, r0, ip, lsl r0
 238:	84080e42 	strhi	r0, [r8], #-3650	; 0xfffff1be
 23c:	00018e02 	andeq	r8, r1, r2, lsl #28
 240:	00000018 	andeq	r0, r0, r8, lsl r0
 244:	00000200 	andeq	r0, r0, r0, lsl #4
 248:	000089a0 	andeq	r8, r0, r0, lsr #19
 24c:	00000024 	andeq	r0, r0, r4, lsr #32
 250:	84100e42 	ldrhi	r0, [r0], #-3650	; 0xfffff1be
 254:	86038504 	strhi	r8, [r3], -r4, lsl #10
 258:	00018e02 	andeq	r8, r1, r2, lsl #28
 25c:	00000014 	andeq	r0, r0, r4, lsl r0
 260:	00000200 	andeq	r0, r0, r0, lsl #4
 264:	000089c4 	andeq	r8, r0, r4, asr #19
 268:	00000018 	andeq	r0, r0, r8, lsl r0
 26c:	84080e42 	strhi	r0, [r8], #-3650	; 0xfffff1be
 270:	00018e02 	andeq	r8, r1, r2, lsl #28
 274:	00000014 	andeq	r0, r0, r4, lsl r0
 278:	00000200 	andeq	r0, r0, r0, lsl #4
 27c:	000089dc 	ldrdeq	r8, [r0], -ip
 280:	00000018 	andeq	r0, r0, r8, lsl r0
 284:	84080e42 	strhi	r0, [r8], #-3650	; 0xfffff1be
 288:	00018e02 	andeq	r8, r1, r2, lsl #28
 28c:	0000000c 	andeq	r0, r0, ip
 290:	ffffffff 			; <UNDEFINED> instruction: 0xffffffff
 294:	7c020001 	stcvc	0, cr0, [r2], {1}
 298:	000d0c0e 	andeq	r0, sp, lr, lsl #24
 29c:	00000018 	andeq	r0, r0, r8, lsl r0
 2a0:	0000028c 	andeq	r0, r0, ip, lsl #5
 2a4:	000089f4 	strdeq	r8, [r0], -r4
 2a8:	00000020 	andeq	r0, r0, r0, lsr #32
 2ac:	84100e42 	ldrhi	r0, [r0], #-3650	; 0xfffff1be
 2b0:	86038504 	strhi	r8, [r3], -r4, lsl #10
 2b4:	00018e02 	andeq	r8, r1, r2, lsl #28
 2b8:	00000018 	andeq	r0, r0, r8, lsl r0
 2bc:	0000028c 	andeq	r0, r0, ip, lsl #5
 2c0:	00008a14 	andeq	r8, r0, r4, lsl sl
 2c4:	00000020 	andeq	r0, r0, r0, lsr #32
 2c8:	84100e42 	ldrhi	r0, [r0], #-3650	; 0xfffff1be
 2cc:	86038504 	strhi	r8, [r3], -r4, lsl #10
 2d0:	00018e02 	andeq	r8, r1, r2, lsl #28
 2d4:	00000014 	andeq	r0, r0, r4, lsl r0
 2d8:	0000028c 	andeq	r0, r0, ip, lsl #5
 2dc:	00008a34 	andeq	r8, r0, r4, lsr sl
 2e0:	000000b0 	strheq	r0, [r0], -r0	; <UNPREDICTABLE>
 2e4:	84080e42 	strhi	r0, [r8], #-3650	; 0xfffff1be
 2e8:	00018e02 	andeq	r8, r1, r2, lsl #28
 2ec:	00000014 	andeq	r0, r0, r4, lsl r0
 2f0:	0000028c 	andeq	r0, r0, ip, lsl #5
 2f4:	00008ae4 	andeq	r8, r0, r4, ror #21
 2f8:	00000018 	andeq	r0, r0, r8, lsl r0
 2fc:	84080e42 	strhi	r0, [r8], #-3650	; 0xfffff1be
 300:	00018e02 	andeq	r8, r1, r2, lsl #28
 304:	00000014 	andeq	r0, r0, r4, lsl r0
 308:	0000028c 	andeq	r0, r0, ip, lsl #5
 30c:	00008afc 	strdeq	r8, [r0], -ip
 310:	00000020 	andeq	r0, r0, r0, lsr #32
 314:	84080e42 	strhi	r0, [r8], #-3650	; 0xfffff1be
 318:	00018e02 	andeq	r8, r1, r2, lsl #28
 31c:	00000014 	andeq	r0, r0, r4, lsl r0
 320:	0000028c 	andeq	r0, r0, ip, lsl #5
 324:	00008b1c 	andeq	r8, r0, ip, lsl fp
 328:	00000030 	andeq	r0, r0, r0, lsr r0
 32c:	84080e42 	strhi	r0, [r8], #-3650	; 0xfffff1be
 330:	00018e02 	andeq	r8, r1, r2, lsl #28
 334:	00000014 	andeq	r0, r0, r4, lsl r0
 338:	0000028c 	andeq	r0, r0, ip, lsl #5
 33c:	00008b4c 	andeq	r8, r0, ip, asr #22
 340:	00000030 	andeq	r0, r0, r0, lsr r0
 344:	84080e42 	strhi	r0, [r8], #-3650	; 0xfffff1be
 348:	00018e02 	andeq	r8, r1, r2, lsl #28
 34c:	00000014 	andeq	r0, r0, r4, lsl r0
 350:	0000028c 	andeq	r0, r0, ip, lsl #5
 354:	00008b7c 	andeq	r8, r0, ip, ror fp
 358:	00000010 	andeq	r0, r0, r0, lsl r0
 35c:	84080e42 	strhi	r0, [r8], #-3650	; 0xfffff1be
 360:	00018e02 	andeq	r8, r1, r2, lsl #28
 364:	00000014 	andeq	r0, r0, r4, lsl r0
 368:	0000028c 	andeq	r0, r0, ip, lsl #5
 36c:	00008b8c 	andeq	r8, r0, ip, lsl #23
 370:	00000020 	andeq	r0, r0, r0, lsr #32
 374:	84080e42 	strhi	r0, [r8], #-3650	; 0xfffff1be
 378:	00018e02 	andeq	r8, r1, r2, lsl #28
 37c:	00000014 	andeq	r0, r0, r4, lsl r0
 380:	0000028c 	andeq	r0, r0, ip, lsl #5
 384:	00008bac 	andeq	r8, r0, ip, lsr #23
 388:	00000014 	andeq	r0, r0, r4, lsl r0
 38c:	84080e42 	strhi	r0, [r8], #-3650	; 0xfffff1be
 390:	00018e02 	andeq	r8, r1, r2, lsl #28
 394:	00000014 	andeq	r0, r0, r4, lsl r0
 398:	0000028c 	andeq	r0, r0, ip, lsl #5
 39c:	00008bc0 	andeq	r8, r0, r0, asr #23
 3a0:	00000024 	andeq	r0, r0, r4, lsr #32
 3a4:	84080e42 	strhi	r0, [r8], #-3650	; 0xfffff1be
 3a8:	00018e02 	andeq	r8, r1, r2, lsl #28
 3ac:	0000000c 	andeq	r0, r0, ip
 3b0:	ffffffff 			; <UNDEFINED> instruction: 0xffffffff
 3b4:	7c020001 	stcvc	0, cr0, [r2], {1}
 3b8:	000d0c0e 	andeq	r0, sp, lr, lsl #24
 3bc:	00000014 	andeq	r0, r0, r4, lsl r0
 3c0:	000003ac 	andeq	r0, r0, ip, lsr #7
 3c4:	00008be4 	andeq	r8, r0, r4, ror #23
 3c8:	00000014 	andeq	r0, r0, r4, lsl r0
 3cc:	84080e42 	strhi	r0, [r8], #-3650	; 0xfffff1be
 3d0:	00018e02 	andeq	r8, r1, r2, lsl #28
 3d4:	0000000c 	andeq	r0, r0, ip
 3d8:	000003ac 	andeq	r0, r0, ip, lsr #7
 3dc:	00008bf8 	strdeq	r8, [r0], -r8	; <UNPREDICTABLE>
 3e0:	00000018 	andeq	r0, r0, r8, lsl r0
 3e4:	0000000c 	andeq	r0, r0, ip
 3e8:	000003ac 	andeq	r0, r0, ip, lsr #7
 3ec:	00008c10 	andeq	r8, r0, r0, lsl ip
 3f0:	00000010 	andeq	r0, r0, r0, lsl r0
 3f4:	0000000c 	andeq	r0, r0, ip
 3f8:	ffffffff 			; <UNDEFINED> instruction: 0xffffffff
 3fc:	7c020001 	stcvc	0, cr0, [r2], {1}
 400:	000d0c0e 	andeq	r0, sp, lr, lsl #24
 404:	0000000c 	andeq	r0, r0, ip
 408:	000003f4 	strdeq	r0, [r0], -r4
 40c:	00008c20 	andeq	r8, r0, r0, lsr #24
 410:	00000034 	andeq	r0, r0, r4, lsr r0
 414:	0000000c 	andeq	r0, r0, ip
 418:	ffffffff 			; <UNDEFINED> instruction: 0xffffffff
 41c:	7c020001 	stcvc	0, cr0, [r2], {1}
 420:	000d0c0e 	andeq	r0, sp, lr, lsl #24
 424:	0000000c 	andeq	r0, r0, ip
 428:	00000414 	andeq	r0, r0, r4, lsl r4
 42c:	00008c54 	andeq	r8, r0, r4, asr ip
 430:	0000002c 	andeq	r0, r0, ip, lsr #32
 434:	0000000c 	andeq	r0, r0, ip
 438:	ffffffff 			; <UNDEFINED> instruction: 0xffffffff
 43c:	7c020001 	stcvc	0, cr0, [r2], {1}
 440:	000d0c0e 	andeq	r0, sp, lr, lsl #24
 444:	0000000c 	andeq	r0, r0, ip
 448:	00000434 	andeq	r0, r0, r4, lsr r4
 44c:	00008c80 	andeq	r8, r0, r0, lsl #25
 450:	00000020 	andeq	r0, r0, r0, lsr #32
 454:	0000000c 	andeq	r0, r0, ip
 458:	ffffffff 			; <UNDEFINED> instruction: 0xffffffff
 45c:	7c020001 	stcvc	0, cr0, [r2], {1}
 460:	000d0c0e 	andeq	r0, sp, lr, lsl #24
 464:	0000000c 	andeq	r0, r0, ip
 468:	00000454 	andeq	r0, r0, r4, asr r4
 46c:	00008ca0 	andeq	r8, r0, r0, lsr #25
 470:	0000002c 	andeq	r0, r0, ip, lsr #32
 474:	0000000c 	andeq	r0, r0, ip
 478:	ffffffff 			; <UNDEFINED> instruction: 0xffffffff
 47c:	7c020001 	stcvc	0, cr0, [r2], {1}
 480:	000d0c0e 	andeq	r0, sp, lr, lsl #24
 484:	0000000c 	andeq	r0, r0, ip
 488:	00000474 	andeq	r0, r0, r4, ror r4
 48c:	00008ccc 	andeq	r8, r0, ip, asr #25
 490:	00000004 	andeq	r0, r0, r4
 494:	0000000c 	andeq	r0, r0, ip
 498:	ffffffff 			; <UNDEFINED> instruction: 0xffffffff
 49c:	7c020001 	stcvc	0, cr0, [r2], {1}
 4a0:	000d0c0e 	andeq	r0, sp, lr, lsl #24
 4a4:	00000018 	andeq	r0, r0, r8, lsl r0
 4a8:	00000494 	muleq	r0, r4, r4
 4ac:	00008ce8 	andeq	r8, r0, r8, ror #25
 4b0:	00000064 	andeq	r0, r0, r4, rrx
 4b4:	84100e46 	ldrhi	r0, [r0], #-3654	; 0xfffff1ba
 4b8:	86038504 	strhi	r8, [r3], -r4, lsl #10
 4bc:	00018e02 	andeq	r8, r1, r2, lsl #28
 4c0:	00000014 	andeq	r0, r0, r4, lsl r0
 4c4:	00000494 	muleq	r0, r4, r4
 4c8:	00008d4c 	andeq	r8, r0, ip, asr #26
 4cc:	00000010 	andeq	r0, r0, r0, lsl r0
 4d0:	84080e42 	strhi	r0, [r8], #-3650	; 0xfffff1be
 4d4:	00018e02 	andeq	r8, r1, r2, lsl #28
 4d8:	00000014 	andeq	r0, r0, r4, lsl r0
 4dc:	00000494 	muleq	r0, r4, r4
 4e0:	00008d5c 	andeq	r8, r0, ip, asr sp
 4e4:	00000024 	andeq	r0, r0, r4, lsr #32
 4e8:	84080e46 	strhi	r0, [r8], #-3654	; 0xfffff1ba
 4ec:	00018e02 	andeq	r8, r1, r2, lsl #28
 4f0:	00000014 	andeq	r0, r0, r4, lsl r0
 4f4:	00000494 	muleq	r0, r4, r4
 4f8:	00008d80 	andeq	r8, r0, r0, lsl #27
 4fc:	00000024 	andeq	r0, r0, r4, lsr #32
 500:	84080e46 	strhi	r0, [r8], #-3654	; 0xfffff1ba
 504:	00018e02 	andeq	r8, r1, r2, lsl #28
 508:	00000014 	andeq	r0, r0, r4, lsl r0
 50c:	00000494 	muleq	r0, r4, r4
 510:	00008da4 	andeq	r8, r0, r4, lsr #27
 514:	00000010 	andeq	r0, r0, r0, lsl r0
 518:	84080e42 	strhi	r0, [r8], #-3650	; 0xfffff1be
 51c:	00018e02 	andeq	r8, r1, r2, lsl #28
 520:	00000014 	andeq	r0, r0, r4, lsl r0
 524:	00000494 	muleq	r0, r4, r4
 528:	00008db4 			; <UNDEFINED> instruction: 0x00008db4
 52c:	0000001c 	andeq	r0, r0, ip, lsl r0
 530:	84080e42 	strhi	r0, [r8], #-3650	; 0xfffff1be
 534:	00018e02 	andeq	r8, r1, r2, lsl #28
 538:	00000018 	andeq	r0, r0, r8, lsl r0
 53c:	00000494 	muleq	r0, r4, r4
 540:	00008dd0 	ldrdeq	r8, [r0], -r0
 544:	00000034 	andeq	r0, r0, r4, lsr r0
 548:	84080e46 	strhi	r0, [r8], #-3654	; 0xfffff1ba
 54c:	4e018e02 	cdpmi	14, 0, cr8, cr1, cr2, {0}
 550:	cec4000e 	cdpgt	0, 12, cr0, cr4, cr14, {0}

Disassembly of section .debug_ranges:

00000000 <.debug_ranges>:
   0:	000088f0 	strdeq	r8, [r0], -r0
   4:	00008970 	andeq	r8, r0, r0, ror r9
	...
  10:	00008ca0 	andeq	r8, r0, r0, lsr #25
  14:	00008ccc 	andeq	r8, r0, ip, asr #25
	...
