
tests-3.0/part2-test6-no-leak.elf:     file format elf32-littlearm


Disassembly of section .text:

00008000 <__code_start__>:
    8000:	e3a00013 	mov	r0, #19, 0
    8004:	e3800080 	orr	r0, r0, #128, 0	; 0x80
    8008:	e129f000 	msr	CPSR_fc, r0
    800c:	e3a01000 	mov	r1, #0, 0
    8010:	ee071f95 	mcr	15, 0, r1, cr7, cr5, {4}
    8014:	e3a0d302 	mov	sp, #134217728	; 0x8000000
    8018:	e3a0b000 	mov	fp, #0, 0
    801c:	eb0005b5 	bl	96f8 <_cstart>
    8020:	eb0005cf 	bl	9764 <rpi_reboot>

00008024 <PUT32>:
    8024:	e5801000 	str	r1, [r0]
    8028:	e12fff1e 	bx	lr

0000802c <GET32>:
    802c:	e5900000 	ldr	r0, [r0]
    8030:	e12fff1e 	bx	lr

00008034 <BRANCHTO>:
    8034:	e12fff10 	bx	r0

00008038 <ck_blk_id>:
    8038:	e510009c 	ldr	r0, [r0, #-156]	; 0xffffff64
    803c:	e12fff1e 	bx	lr

00008040 <test1>:
    8040:	e92d4010 	push	{r4, lr}
    8044:	e24dd010 	sub	sp, sp, #16, 0
    8048:	e59f3044 	ldr	r3, [pc, #68]	; 8094 <test1+0x54>
    804c:	e58d3004 	str	r3, [sp, #4]
    8050:	e59f3040 	ldr	r3, [pc, #64]	; 8098 <test1+0x58>
    8054:	e58d3008 	str	r3, [sp, #8]
    8058:	e3a0300c 	mov	r3, #12, 0
    805c:	e58d300c 	str	r3, [sp, #12]
    8060:	e28d3010 	add	r3, sp, #16, 0
    8064:	e913000e 	ldmdb	r3, {r1, r2, r3}
    8068:	e3a00004 	mov	r0, #4, 0
    806c:	eb000148 	bl	8594 <ckalloc>
    8070:	e1a04000 	mov	r4, r0
    8074:	ebffffef 	bl	8038 <ck_blk_id>
    8078:	e1a01000 	mov	r1, r0
    807c:	e1a02004 	mov	r2, r4
    8080:	e59f0014 	ldr	r0, [pc, #20]	; 809c <test1+0x5c>
    8084:	eb00039d 	bl	8f00 <printk>
    8088:	e2840001 	add	r0, r4, #1, 0
    808c:	e28dd010 	add	sp, sp, #16, 0
    8090:	e8bd8010 	pop	{r4, pc}
    8094:	0000a000 	andeq	sl, r0, r0
    8098:	0000a100 	andeq	sl, r0, r0, lsl #2
    809c:	0000a020 	andeq	sl, r0, r0, lsr #32

000080a0 <notmain>:
    80a0:	e92d4010 	push	{r4, lr}
    80a4:	e24dd008 	sub	sp, sp, #8, 0
    80a8:	e59f0078 	ldr	r0, [pc, #120]	; 8128 <notmain+0x88>
    80ac:	eb000393 	bl	8f00 <printk>
    80b0:	ebffffe2 	bl	8040 <test1>
    80b4:	e1a04000 	mov	r4, r0
    80b8:	e1a01000 	mov	r1, r0
    80bc:	e59f0068 	ldr	r0, [pc, #104]	; 812c <notmain+0x8c>
    80c0:	eb00038e 	bl	8f00 <printk>
    80c4:	e3a00000 	mov	r0, #0, 0
    80c8:	eb0002a5 	bl	8b64 <ck_find_leaks>
    80cc:	e3500000 	cmp	r0, #0, 0
    80d0:	1a000007 	bne	80f4 <notmain+0x54>
    80d4:	e3a00001 	mov	r0, #1, 0
    80d8:	eb0002a1 	bl	8b64 <ck_find_leaks>
    80dc:	e3500000 	cmp	r0, #0, 0
    80e0:	0a000009 	beq	810c <notmain+0x6c>
    80e4:	e59f0044 	ldr	r0, [pc, #68]	; 8130 <notmain+0x90>
    80e8:	eb000384 	bl	8f00 <printk>
    80ec:	e28dd008 	add	sp, sp, #8, 0
    80f0:	e8bd8010 	pop	{r4, pc}
    80f4:	e3a0301b 	mov	r3, #27, 0
    80f8:	e59f2034 	ldr	r2, [pc, #52]	; 8134 <notmain+0x94>
    80fc:	e59f1034 	ldr	r1, [pc, #52]	; 8138 <notmain+0x98>
    8100:	e59f0034 	ldr	r0, [pc, #52]	; 813c <notmain+0x9c>
    8104:	eb00037d 	bl	8f00 <printk>
    8108:	eb00056f 	bl	96cc <clean_reboot>
    810c:	e58d4000 	str	r4, [sp]
    8110:	e3a03020 	mov	r3, #32, 0
    8114:	e59f2018 	ldr	r2, [pc, #24]	; 8134 <notmain+0x94>
    8118:	e59f1018 	ldr	r1, [pc, #24]	; 8138 <notmain+0x98>
    811c:	e59f001c 	ldr	r0, [pc, #28]	; 8140 <notmain+0xa0>
    8120:	eb000376 	bl	8f00 <printk>
    8124:	eb000568 	bl	96cc <clean_reboot>
    8128:	0000a048 	andeq	sl, r0, r8, asr #32
    812c:	0000a054 	andeq	sl, r0, r4, asr r0
    8130:	0000a0a0 	andeq	sl, r0, r0, lsr #1
    8134:	0000a108 	andeq	sl, r0, r8, lsl #2
    8138:	0000a000 	andeq	sl, r0, r0
    813c:	0000a070 	andeq	sl, r0, r0, ror r0
    8140:	0000a0c8 	andeq	sl, r0, r8, asr #1

00008144 <list_append>:
    8144:	e59f3058 	ldr	r3, [pc, #88]	; 81a4 <list_append+0x60>
    8148:	e5933000 	ldr	r3, [r3]
    814c:	e3530000 	cmp	r3, #0, 0
    8150:	0a000005 	beq	816c <list_append+0x28>
    8154:	e3500000 	cmp	r0, #0, 0
    8158:	0a000007 	beq	817c <list_append+0x38>
    815c:	e59f2040 	ldr	r2, [pc, #64]	; 81a4 <list_append+0x60>
    8160:	e5821000 	str	r1, [r2]
    8164:	e5831000 	str	r1, [r3]
    8168:	e12fff1e 	bx	lr
    816c:	e59f3030 	ldr	r3, [pc, #48]	; 81a4 <list_append+0x60>
    8170:	e5831004 	str	r1, [r3, #4]
    8174:	e5831000 	str	r1, [r3]
    8178:	e12fff1e 	bx	lr
    817c:	e52de004 	push	{lr}		; (str lr, [sp, #-4]!)
    8180:	e24dd00c 	sub	sp, sp, #12, 0
    8184:	e59f301c 	ldr	r3, [pc, #28]	; 81a8 <list_append+0x64>
    8188:	e58d3000 	str	r3, [sp]
    818c:	e3a03025 	mov	r3, #37, 0	; 0x25
    8190:	e59f2014 	ldr	r2, [pc, #20]	; 81ac <list_append+0x68>
    8194:	e59f1014 	ldr	r1, [pc, #20]	; 81b0 <list_append+0x6c>
    8198:	e59f0014 	ldr	r0, [pc, #20]	; 81b4 <list_append+0x70>
    819c:	eb000357 	bl	8f00 <printk>
    81a0:	eb000549 	bl	96cc <clean_reboot>
    81a4:	0000aa78 	andeq	sl, r0, r8, ror sl
    81a8:	0000a130 	andeq	sl, r0, r0, lsr r1
    81ac:	0000a304 	andeq	sl, r0, r4, lsl #6
    81b0:	0000a110 	andeq	sl, r0, r0, lsl r1
    81b4:	0000a11c 	andeq	sl, r0, ip, lsl r1

000081b8 <ck_first_hdr>:
    81b8:	e59f3004 	ldr	r3, [pc, #4]	; 81c4 <ck_first_hdr+0xc>
    81bc:	e5930004 	ldr	r0, [r3, #4]
    81c0:	e12fff1e 	bx	lr
    81c4:	0000aa78 	andeq	sl, r0, r8, ror sl

000081c8 <ck_next_hdr>:
    81c8:	e3500000 	cmp	r0, #0, 0
    81cc:	012fff1e 	bxeq	lr
    81d0:	e5900000 	ldr	r0, [r0]
    81d4:	e12fff1e 	bx	lr

000081d8 <ck_hdr_start>:
    81d8:	e28000a8 	add	r0, r0, #168, 0	; 0xa8
    81dc:	e12fff1e 	bx	lr

000081e0 <ck_hdr_end>:
    81e0:	e92d4010 	push	{r4, lr}
    81e4:	e1a04000 	mov	r4, r0
    81e8:	ebfffffa 	bl	81d8 <ck_hdr_start>
    81ec:	e5943004 	ldr	r3, [r4, #4]
    81f0:	e0800003 	add	r0, r0, r3
    81f4:	e8bd8010 	pop	{r4, pc}

000081f8 <ck_ptr_in_block>:
    81f8:	e5903004 	ldr	r3, [r0, #4]
    81fc:	e28330a8 	add	r3, r3, #168, 0	; 0xa8
    8200:	e0803003 	add	r3, r0, r3
    8204:	e1530001 	cmp	r3, r1
    8208:	3a000004 	bcc	8220 <ck_ptr_in_block+0x28>
    820c:	e28000a8 	add	r0, r0, #168, 0	; 0xa8
    8210:	e1500001 	cmp	r0, r1
    8214:	9a000003 	bls	8228 <ck_ptr_in_block+0x30>
    8218:	e3a00000 	mov	r0, #0, 0
    821c:	e12fff1e 	bx	lr
    8220:	e3a00000 	mov	r0, #0, 0
    8224:	e12fff1e 	bx	lr
    8228:	e3a00001 	mov	r0, #1, 0
    822c:	e12fff1e 	bx	lr

00008230 <ck_ptr_to_hdr>:
    8230:	e92d4070 	push	{r4, r5, r6, lr}
    8234:	e1a05000 	mov	r5, r0
    8238:	ebffffde 	bl	81b8 <ck_first_hdr>
    823c:	e1a04000 	mov	r4, r0
    8240:	e3540000 	cmp	r4, #0, 0
    8244:	0a00000c 	beq	827c <ck_ptr_to_hdr+0x4c>
    8248:	e1a01005 	mov	r1, r5
    824c:	e1a00004 	mov	r0, r4
    8250:	ebffffe8 	bl	81f8 <ck_ptr_in_block>
    8254:	e3500000 	cmp	r0, #0, 0
    8258:	1a000003 	bne	826c <ck_ptr_to_hdr+0x3c>
    825c:	e1a00004 	mov	r0, r4
    8260:	ebffffd8 	bl	81c8 <ck_next_hdr>
    8264:	e1a04000 	mov	r4, r0
    8268:	eafffff4 	b	8240 <ck_ptr_to_hdr+0x10>
    826c:	e1a02004 	mov	r2, r4
    8270:	e1a01005 	mov	r1, r5
    8274:	e59f0008 	ldr	r0, [pc, #8]	; 8284 <ck_ptr_to_hdr+0x54>
    8278:	eb000320 	bl	8f00 <printk>
    827c:	e1a00004 	mov	r0, r4
    8280:	e8bd8070 	pop	{r4, r5, r6, pc}
    8284:	0000a134 	andeq	sl, r0, r4, lsr r1

00008288 <ck_ptr_is_alloced>:
    8288:	e92d4070 	push	{r4, r5, r6, lr}
    828c:	e1a05000 	mov	r5, r0
    8290:	ebffffc8 	bl	81b8 <ck_first_hdr>
    8294:	e1a04000 	mov	r4, r0
    8298:	ea000002 	b	82a8 <ck_ptr_is_alloced+0x20>
    829c:	e1a00004 	mov	r0, r4
    82a0:	ebffffc8 	bl	81c8 <ck_next_hdr>
    82a4:	e1a04000 	mov	r4, r0
    82a8:	e3540000 	cmp	r4, #0, 0
    82ac:	0a00000b 	beq	82e0 <ck_ptr_is_alloced+0x58>
    82b0:	e1a01005 	mov	r1, r5
    82b4:	e1a00004 	mov	r0, r4
    82b8:	ebffffce 	bl	81f8 <ck_ptr_in_block>
    82bc:	e3500000 	cmp	r0, #0, 0
    82c0:	0afffff5 	beq	829c <ck_ptr_is_alloced+0x14>
    82c4:	e5943008 	ldr	r3, [r4, #8]
    82c8:	e353000b 	cmp	r3, #11, 0
    82cc:	1afffff2 	bne	829c <ck_ptr_is_alloced+0x14>
    82d0:	e1a02004 	mov	r2, r4
    82d4:	e1a01005 	mov	r1, r5
    82d8:	e59f0008 	ldr	r0, [pc, #8]	; 82e8 <ck_ptr_is_alloced+0x60>
    82dc:	eb000307 	bl	8f00 <printk>
    82e0:	e1a00004 	mov	r0, r4
    82e4:	e8bd8070 	pop	{r4, r5, r6, pc}
    82e8:	0000a14c 	andeq	sl, r0, ip, asr #2

000082ec <ck_check_redzones>:
    82ec:	e92d4070 	push	{r4, r5, r6, lr}
    82f0:	e1a05000 	mov	r5, r0
    82f4:	e1a04001 	mov	r4, r1
    82f8:	ebffffb8 	bl	81e0 <ck_hdr_end>
    82fc:	e1a06000 	mov	r6, r0
    8300:	e3a02080 	mov	r2, #128, 0	; 0x80
    8304:	e1a01004 	mov	r1, r4
    8308:	e2850028 	add	r0, r5, #40, 0	; 0x28
    830c:	eb0002d0 	bl	8e54 <memcmp>
    8310:	e1a05000 	mov	r5, r0
    8314:	e3a02080 	mov	r2, #128, 0	; 0x80
    8318:	e1a01004 	mov	r1, r4
    831c:	e1a00006 	mov	r0, r6
    8320:	eb0002cb 	bl	8e54 <memcmp>
    8324:	e1953000 	orrs	r3, r5, r0
    8328:	13a00001 	movne	r0, #1, 0
    832c:	03a00000 	moveq	r0, #0, 0
    8330:	e8bd8070 	pop	{r4, r5, r6, pc}

00008334 <ck_check_udata>:
    8334:	e5903008 	ldr	r3, [r0, #8]
    8338:	e353000c 	cmp	r3, #12, 0
    833c:	1a00000b 	bne	8370 <ck_check_udata+0x3c>
    8340:	e3a03000 	mov	r3, #0, 0
    8344:	e5902004 	ldr	r2, [r0, #4]
    8348:	e1520003 	cmp	r2, r3
    834c:	9a000005 	bls	8368 <ck_check_udata+0x34>
    8350:	e0802003 	add	r2, r0, r3
    8354:	e5d220a8 	ldrb	r2, [r2, #168]	; 0xa8
    8358:	e35200fe 	cmp	r2, #254, 0	; 0xfe
    835c:	1a000005 	bne	8378 <ck_check_udata+0x44>
    8360:	e2833001 	add	r3, r3, #1, 0
    8364:	eafffff6 	b	8344 <ck_check_udata+0x10>
    8368:	e3a00000 	mov	r0, #0, 0
    836c:	e12fff1e 	bx	lr
    8370:	e3a00000 	mov	r0, #0, 0
    8374:	e12fff1e 	bx	lr
    8378:	e3a00001 	mov	r0, #1, 0
    837c:	e12fff1e 	bx	lr

00008380 <ck_heap_errors>:
    8380:	e92d4070 	push	{r4, r5, r6, lr}
    8384:	e24dd080 	sub	sp, sp, #128, 0	; 0x80
    8388:	e59f0088 	ldr	r0, [pc, #136]	; 8418 <ck_heap_errors+0x98>
    838c:	eb0002db 	bl	8f00 <printk>
    8390:	ebffff88 	bl	81b8 <ck_first_hdr>
    8394:	e1a04000 	mov	r4, r0
    8398:	e3a02080 	mov	r2, #128, 0	; 0x80
    839c:	e2801028 	add	r1, r0, #40, 0	; 0x28
    83a0:	e1a0000d 	mov	r0, sp
    83a4:	eb0002b7 	bl	8e88 <memcpy>
    83a8:	e1a06000 	mov	r6, r0
    83ac:	e3a05000 	mov	r5, #0, 0
    83b0:	ea000009 	b	83dc <ck_heap_errors+0x5c>
    83b4:	e59f0060 	ldr	r0, [pc, #96]	; 841c <ck_heap_errors+0x9c>
    83b8:	eb0002d0 	bl	8f00 <printk>
    83bc:	e2855001 	add	r5, r5, #1, 0
    83c0:	ea00000c 	b	83f8 <ck_heap_errors+0x78>
    83c4:	e59f0054 	ldr	r0, [pc, #84]	; 8420 <ck_heap_errors+0xa0>
    83c8:	eb0002cc 	bl	8f00 <printk>
    83cc:	e2855001 	add	r5, r5, #1, 0
    83d0:	e1a00004 	mov	r0, r4
    83d4:	ebffff7b 	bl	81c8 <ck_next_hdr>
    83d8:	e1a04000 	mov	r4, r0
    83dc:	e3540000 	cmp	r4, #0, 0
    83e0:	0a000009 	beq	840c <ck_heap_errors+0x8c>
    83e4:	e1a01006 	mov	r1, r6
    83e8:	e1a00004 	mov	r0, r4
    83ec:	ebffffbe 	bl	82ec <ck_check_redzones>
    83f0:	e3500000 	cmp	r0, #0, 0
    83f4:	1affffee 	bne	83b4 <ck_heap_errors+0x34>
    83f8:	e1a00004 	mov	r0, r4
    83fc:	ebffffcc 	bl	8334 <ck_check_udata>
    8400:	e3500000 	cmp	r0, #0, 0
    8404:	0afffff1 	beq	83d0 <ck_heap_errors+0x50>
    8408:	eaffffed 	b	83c4 <ck_heap_errors+0x44>
    840c:	e1a00005 	mov	r0, r5
    8410:	e28dd080 	add	sp, sp, #128, 0	; 0x80
    8414:	e8bd8070 	pop	{r4, r5, r6, pc}
    8418:	0000a16c 	andeq	sl, r0, ip, ror #2
    841c:	0000a190 	muleq	r0, r0, r1
    8420:	0000a1b4 			; <UNDEFINED> instruction: 0x0000a1b4

00008424 <ckfree>:
    8424:	e92d4030 	push	{r4, r5, lr}
    8428:	e24dd09c 	sub	sp, sp, #156, 0	; 0x9c
    842c:	e1a04000 	mov	r4, r0
    8430:	e28d000c 	add	r0, sp, #12, 0
    8434:	e880000e 	stm	r0, {r1, r2, r3}
    8438:	e51430a0 	ldr	r3, [r4, #-160]	; 0xffffff60
    843c:	e353000b 	cmp	r3, #11, 0
    8440:	1a000018 	bne	84a8 <ckfree+0x84>
    8444:	e24450a8 	sub	r5, r4, #168, 0	; 0xa8
    8448:	e59d3014 	ldr	r3, [sp, #20]
    844c:	e59d2010 	ldr	r2, [sp, #16]
    8450:	e59d100c 	ldr	r1, [sp, #12]
    8454:	e59f0110 	ldr	r0, [pc, #272]	; 856c <ckfree+0x148>
    8458:	eb0002a8 	bl	8f00 <printk>
    845c:	e1a02004 	mov	r2, r4
    8460:	e514109c 	ldr	r1, [r4, #-156]	; 0xffffff64
    8464:	e59f0104 	ldr	r0, [pc, #260]	; 8570 <ckfree+0x14c>
    8468:	eb0002a4 	bl	8f00 <printk>
    846c:	e1a00004 	mov	r0, r4
    8470:	ebffff84 	bl	8288 <ck_ptr_is_alloced>
    8474:	e3500000 	cmp	r0, #0, 0
    8478:	0a000013 	beq	84cc <ckfree+0xa8>
    847c:	e3a0300c 	mov	r3, #12, 0
    8480:	e50430a0 	str	r3, [r4, #-160]	; 0xffffff60
    8484:	e3a03000 	mov	r3, #0, 0
    8488:	e353007f 	cmp	r3, #127, 0	; 0x7f
    848c:	8a000016 	bhi	84ec <ckfree+0xc8>
    8490:	e28d2098 	add	r2, sp, #152, 0	; 0x98
    8494:	e0822003 	add	r2, r2, r3
    8498:	e3e01001 	mvn	r1, #1, 0
    849c:	e5421080 	strb	r1, [r2, #-128]	; 0xffffff80
    84a0:	e2833001 	add	r3, r3, #1, 0
    84a4:	eafffff7 	b	8488 <ckfree+0x64>
    84a8:	e59d3014 	ldr	r3, [sp, #20]
    84ac:	e59d2010 	ldr	r2, [sp, #16]
    84b0:	e59f00bc 	ldr	r0, [pc, #188]	; 8574 <ckfree+0x150>
    84b4:	eb000291 	bl	8f00 <printk>
    84b8:	e51420a0 	ldr	r2, [r4, #-160]	; 0xffffff60
    84bc:	e1a01004 	mov	r1, r4
    84c0:	e59f00b0 	ldr	r0, [pc, #176]	; 8578 <ckfree+0x154>
    84c4:	eb00028d 	bl	8f00 <printk>
    84c8:	eb00047f 	bl	96cc <clean_reboot>
    84cc:	e59f30a8 	ldr	r3, [pc, #168]	; 857c <ckfree+0x158>
    84d0:	e58d3000 	str	r3, [sp]
    84d4:	e3a03097 	mov	r3, #151, 0	; 0x97
    84d8:	e59f20a0 	ldr	r2, [pc, #160]	; 8580 <ckfree+0x15c>
    84dc:	e59f10a0 	ldr	r1, [pc, #160]	; 8584 <ckfree+0x160>
    84e0:	e59f00a0 	ldr	r0, [pc, #160]	; 8588 <ckfree+0x164>
    84e4:	eb000285 	bl	8f00 <printk>
    84e8:	eb000477 	bl	96cc <clean_reboot>
    84ec:	e28d1018 	add	r1, sp, #24, 0
    84f0:	e1a00005 	mov	r0, r5
    84f4:	ebffff7c 	bl	82ec <ck_check_redzones>
    84f8:	e3500000 	cmp	r0, #0, 0
    84fc:	1a000009 	bne	8528 <ckfree+0x104>
    8500:	e51420a4 	ldr	r2, [r4, #-164]	; 0xffffff5c
    8504:	e3a010fe 	mov	r1, #254, 0	; 0xfe
    8508:	e1a00004 	mov	r0, r4
    850c:	eb000275 	bl	8ee8 <memset>
    8510:	e1a00004 	mov	r0, r4
    8514:	ebffff5b 	bl	8288 <ck_ptr_is_alloced>
    8518:	e3500000 	cmp	r0, #0, 0
    851c:	1a00000a 	bne	854c <ckfree+0x128>
    8520:	e28dd09c 	add	sp, sp, #156, 0	; 0x9c
    8524:	e8bd8030 	pop	{r4, r5, pc}
    8528:	e58d5004 	str	r5, [sp, #4]
    852c:	e514309c 	ldr	r3, [r4, #-156]	; 0xffffff64
    8530:	e58d3000 	str	r3, [sp]
    8534:	e3a0309f 	mov	r3, #159, 0	; 0x9f
    8538:	e59f2040 	ldr	r2, [pc, #64]	; 8580 <ckfree+0x15c>
    853c:	e59f1040 	ldr	r1, [pc, #64]	; 8584 <ckfree+0x160>
    8540:	e59f0044 	ldr	r0, [pc, #68]	; 858c <ckfree+0x168>
    8544:	eb00026d 	bl	8f00 <printk>
    8548:	eb00045f 	bl	96cc <clean_reboot>
    854c:	e59f303c 	ldr	r3, [pc, #60]	; 8590 <ckfree+0x16c>
    8550:	e58d3000 	str	r3, [sp]
    8554:	e3a030a2 	mov	r3, #162, 0	; 0xa2
    8558:	e59f2020 	ldr	r2, [pc, #32]	; 8580 <ckfree+0x15c>
    855c:	e59f1020 	ldr	r1, [pc, #32]	; 8584 <ckfree+0x160>
    8560:	e59f0020 	ldr	r0, [pc, #32]	; 8588 <ckfree+0x164>
    8564:	eb000265 	bl	8f00 <printk>
    8568:	eb000457 	bl	96cc <clean_reboot>
    856c:	0000a220 	andeq	sl, r0, r0, lsr #4
    8570:	0000a22c 	andeq	sl, r0, ip, lsr #4
    8574:	0000a1d4 	ldrdeq	sl, [r0], -r4
    8578:	0000a1ec 	andeq	sl, r0, ip, ror #3
    857c:	0000a24c 	andeq	sl, r0, ip, asr #4
    8580:	0000a310 	andeq	sl, r0, r0, lsl r3
    8584:	0000a110 	andeq	sl, r0, r0, lsl r1
    8588:	0000a11c 	andeq	sl, r0, ip, lsl r1
    858c:	0000a26c 	andeq	sl, r0, ip, ror #4
    8590:	0000a2c4 	andeq	sl, r0, r4, asr #5

00008594 <ckalloc>:
    8594:	e92d4070 	push	{r4, r5, r6, lr}
    8598:	e24dd010 	sub	sp, sp, #16, 0
    859c:	e1a06000 	mov	r6, r0
    85a0:	e28d5004 	add	r5, sp, #4, 0
    85a4:	e885000e 	stm	r5, {r1, r2, r3}
    85a8:	e2800f4a 	add	r0, r0, #296	; 0x128
    85ac:	eb0001fd 	bl	8da8 <kr_malloc>
    85b0:	e1a04000 	mov	r4, r0
    85b4:	e3a020a8 	mov	r2, #168, 0	; 0xa8
    85b8:	e3a01000 	mov	r1, #0, 0
    85bc:	eb000249 	bl	8ee8 <memset>
    85c0:	e3a02080 	mov	r2, #128, 0	; 0x80
    85c4:	e3a010fe 	mov	r1, #254, 0	; 0xfe
    85c8:	e2840028 	add	r0, r4, #40, 0	; 0x28
    85cc:	eb000245 	bl	8ee8 <memset>
    85d0:	e5846004 	str	r6, [r4, #4]
    85d4:	e3a0300b 	mov	r3, #11, 0
    85d8:	e5843008 	str	r3, [r4, #8]
    85dc:	e2843010 	add	r3, r4, #16, 0
    85e0:	e8950007 	ldm	r5, {r0, r1, r2}
    85e4:	e8830007 	stm	r3, {r0, r1, r2}
    85e8:	e3a03000 	mov	r3, #0, 0
    85ec:	e5843000 	str	r3, [r4]
    85f0:	e1c432b4 	strh	r3, [r4, #36]	; 0x24
    85f4:	e1a00004 	mov	r0, r4
    85f8:	ebfffef8 	bl	81e0 <ck_hdr_end>
    85fc:	e3a02080 	mov	r2, #128, 0	; 0x80
    8600:	e3a010fe 	mov	r1, #254, 0	; 0xfe
    8604:	eb000237 	bl	8ee8 <memset>
    8608:	e59f2050 	ldr	r2, [pc, #80]	; 8660 <ckalloc+0xcc>
    860c:	e5923000 	ldr	r3, [r2]
    8610:	e584300c 	str	r3, [r4, #12]
    8614:	e2833001 	add	r3, r3, #1, 0
    8618:	e5823000 	str	r3, [r2]
    861c:	e59d300c 	ldr	r3, [sp, #12]
    8620:	e59d2008 	ldr	r2, [sp, #8]
    8624:	e59d1004 	ldr	r1, [sp, #4]
    8628:	e59f0034 	ldr	r0, [pc, #52]	; 8664 <ckalloc+0xd0>
    862c:	eb000233 	bl	8f00 <printk>
    8630:	e28450a8 	add	r5, r4, #168, 0	; 0xa8
    8634:	e1a02005 	mov	r2, r5
    8638:	e594100c 	ldr	r1, [r4, #12]
    863c:	e59f0024 	ldr	r0, [pc, #36]	; 8668 <ckalloc+0xd4>
    8640:	eb00022e 	bl	8f00 <printk>
    8644:	e1a01004 	mov	r1, r4
    8648:	e59f301c 	ldr	r3, [pc, #28]	; 866c <ckalloc+0xd8>
    864c:	e5930004 	ldr	r0, [r3, #4]
    8650:	ebfffebb 	bl	8144 <list_append>
    8654:	e1a00005 	mov	r0, r5
    8658:	e28dd010 	add	sp, sp, #16, 0
    865c:	e8bd8070 	pop	{r4, r5, r6, pc}
    8660:	0000aa60 	andeq	sl, r0, r0, ror #20
    8664:	0000a220 	andeq	sl, r0, r0, lsr #4
    8668:	0000a2e0 	andeq	sl, r0, r0, ror #5
    866c:	0000aa78 	andeq	sl, r0, r8, ror sl

00008670 <in_heap>:
    8670:	e59f3030 	ldr	r3, [pc, #48]	; 86a8 <in_heap+0x38>
    8674:	e5933000 	ldr	r3, [r3]
    8678:	e1530000 	cmp	r3, r0
    867c:	8a000005 	bhi	8698 <in_heap+0x28>
    8680:	e59f3020 	ldr	r3, [pc, #32]	; 86a8 <in_heap+0x38>
    8684:	e5933004 	ldr	r3, [r3, #4]
    8688:	e1530000 	cmp	r3, r0
    868c:	9a000003 	bls	86a0 <in_heap+0x30>
    8690:	e3a00001 	mov	r0, #1, 0
    8694:	e12fff1e 	bx	lr
    8698:	e3a00000 	mov	r0, #0, 0
    869c:	e12fff1e 	bx	lr
    86a0:	e3a00000 	mov	r0, #0, 0
    86a4:	e12fff1e 	bx	lr
    86a8:	0000aa80 	andeq	sl, r0, r0, lsl #21

000086ac <sweep_leak>:
    86ac:	e92d41f0 	push	{r4, r5, r6, r7, r8, lr}
    86b0:	e1a06000 	mov	r6, r0
    86b4:	e59f0144 	ldr	r0, [pc, #324]	; 8800 <sweep_leak+0x154>
    86b8:	eb000210 	bl	8f00 <printk>
    86bc:	e59f0140 	ldr	r0, [pc, #320]	; 8804 <sweep_leak+0x158>
    86c0:	eb00020e 	bl	8f00 <printk>
    86c4:	ebfffebb 	bl	81b8 <ck_first_hdr>
    86c8:	e1a04000 	mov	r4, r0
    86cc:	e3a07000 	mov	r7, #0, 0
    86d0:	e1a08007 	mov	r8, r7
    86d4:	e1a05007 	mov	r5, r7
    86d8:	ea00002a 	b	8788 <sweep_leak+0xdc>
    86dc:	e3a00000 	mov	r0, #0, 0
    86e0:	e351000b 	cmp	r1, #11, 0
    86e4:	0a00000f 	beq	8728 <sweep_leak+0x7c>
    86e8:	e1130000 	tst	r3, r0
    86ec:	1a000018 	bne	8754 <sweep_leak+0xa8>
    86f0:	e3560000 	cmp	r6, #0, 0
    86f4:	1a00001b 	bne	8768 <sweep_leak+0xbc>
    86f8:	e5943020 	ldr	r3, [r4, #32]
    86fc:	e3530000 	cmp	r3, #0, 0
    8700:	0a000018 	beq	8768 <sweep_leak+0xbc>
    8704:	e351000b 	cmp	r1, #11, 0
    8708:	0a000016 	beq	8768 <sweep_leak+0xbc>
    870c:	e1a01004 	mov	r1, r4
    8710:	e59f00f0 	ldr	r0, [pc, #240]	; 8808 <sweep_leak+0x15c>
    8714:	eb0001f9 	bl	8f00 <printk>
    8718:	e2877001 	add	r7, r7, #1, 0
    871c:	ea000011 	b	8768 <sweep_leak+0xbc>
    8720:	e3a00001 	mov	r0, #1, 0
    8724:	eaffffed 	b	86e0 <sweep_leak+0x34>
    8728:	e1d4c2b4 	ldrh	ip, [r4, #36]	; 0x24
    872c:	e35c0000 	cmp	ip, #0, 0
    8730:	1affffec 	bne	86e8 <sweep_leak+0x3c>
    8734:	e5943020 	ldr	r3, [r4, #32]
    8738:	e1a01004 	mov	r1, r4
    873c:	e59f00c8 	ldr	r0, [pc, #200]	; 880c <sweep_leak+0x160>
    8740:	eb0001ee 	bl	8f00 <printk>
    8744:	e3a03001 	mov	r3, #1, 0
    8748:	e1c432b6 	strh	r3, [r4, #38]	; 0x26
    874c:	e0888003 	add	r8, r8, r3
    8750:	ea000004 	b	8768 <sweep_leak+0xbc>
    8754:	e5943020 	ldr	r3, [r4, #32]
    8758:	e1a01004 	mov	r1, r4
    875c:	e59f00ac 	ldr	r0, [pc, #172]	; 8810 <sweep_leak+0x164>
    8760:	eb0001e6 	bl	8f00 <printk>
    8764:	e2877001 	add	r7, r7, #1, 0
    8768:	e5943020 	ldr	r3, [r4, #32]
    876c:	e594201c 	ldr	r2, [r4, #28]
    8770:	e1a01004 	mov	r1, r4
    8774:	e59f0098 	ldr	r0, [pc, #152]	; 8814 <sweep_leak+0x168>
    8778:	eb0001e0 	bl	8f00 <printk>
    877c:	e1a00004 	mov	r0, r4
    8780:	ebfffe90 	bl	81c8 <ck_next_hdr>
    8784:	e1a04000 	mov	r4, r0
    8788:	e3540000 	cmp	r4, #0, 0
    878c:	0a00000b 	beq	87c0 <sweep_leak+0x114>
    8790:	e2855001 	add	r5, r5, #1, 0
    8794:	e5941008 	ldr	r1, [r4, #8]
    8798:	e351000b 	cmp	r1, #11, 0
    879c:	13a03000 	movne	r3, #0, 0
    87a0:	03a03001 	moveq	r3, #1, 0
    87a4:	e594201c 	ldr	r2, [r4, #28]
    87a8:	e3520000 	cmp	r2, #0, 0
    87ac:	1affffca 	bne	86dc <sweep_leak+0x30>
    87b0:	e3560000 	cmp	r6, #0, 0
    87b4:	1affffd9 	bne	8720 <sweep_leak+0x74>
    87b8:	e3a00000 	mov	r0, #0, 0
    87bc:	eaffffc7 	b	86e0 <sweep_leak+0x34>
    87c0:	e1a01005 	mov	r1, r5
    87c4:	e59f004c 	ldr	r0, [pc, #76]	; 8818 <sweep_leak+0x16c>
    87c8:	eb0001cc 	bl	8f00 <printk>
    87cc:	e1983007 	orrs	r3, r8, r7
    87d0:	1a000005 	bne	87ec <sweep_leak+0x140>
    87d4:	e59f0040 	ldr	r0, [pc, #64]	; 881c <sweep_leak+0x170>
    87d8:	eb0001c8 	bl	8f00 <printk>
    87dc:	e59f003c 	ldr	r0, [pc, #60]	; 8820 <sweep_leak+0x174>
    87e0:	eb0001c6 	bl	8f00 <printk>
    87e4:	e0880007 	add	r0, r8, r7
    87e8:	e8bd81f0 	pop	{r4, r5, r6, r7, r8, pc}
    87ec:	e1a02007 	mov	r2, r7
    87f0:	e1a01008 	mov	r1, r8
    87f4:	e59f0028 	ldr	r0, [pc, #40]	; 8824 <sweep_leak+0x178>
    87f8:	eb0001c0 	bl	8f00 <printk>
    87fc:	eafffff6 	b	87dc <sweep_leak+0x130>
    8800:	0000a318 	andeq	sl, r0, r8, lsl r3
    8804:	0000a354 	andeq	sl, r0, r4, asr r3
    8808:	0000a3dc 	ldrdeq	sl, [r0], -ip
    880c:	0000a36c 	andeq	sl, r0, ip, ror #6
    8810:	0000a3a4 	andeq	sl, r0, r4, lsr #7
    8814:	0000a414 	andeq	sl, r0, r4, lsl r4
    8818:	0000a450 	andeq	sl, r0, r0, asr r4
    881c:	0000a470 	andeq	sl, r0, r0, ror r4
    8820:	0000a4c8 	andeq	sl, r0, r8, asr #9
    8824:	0000a498 	muleq	r0, r8, r4

00008828 <sweep_free>:
    8828:	e92d41f0 	push	{r4, r5, r6, r7, r8, lr}
    882c:	e59f0094 	ldr	r0, [pc, #148]	; 88c8 <sweep_free+0xa0>
    8830:	eb0001b2 	bl	8f00 <printk>
    8834:	e59f0090 	ldr	r0, [pc, #144]	; 88cc <sweep_free+0xa4>
    8838:	eb0001b0 	bl	8f00 <printk>
    883c:	ebfffe5d 	bl	81b8 <ck_first_hdr>
    8840:	e1a04000 	mov	r4, r0
    8844:	e3a06000 	mov	r6, #0, 0
    8848:	e1a07006 	mov	r7, r6
    884c:	e1a05006 	mov	r5, r6
    8850:	ea00000b 	b	8884 <sweep_free+0x5c>
    8854:	e3a0300c 	mov	r3, #12, 0
    8858:	e5843008 	str	r3, [r4, #8]
    885c:	e2877001 	add	r7, r7, #1, 0
    8860:	e5943004 	ldr	r3, [r4, #4]
    8864:	e0866003 	add	r6, r6, r3
    8868:	e1a02004 	mov	r2, r4
    886c:	e594100c 	ldr	r1, [r4, #12]
    8870:	e59f0058 	ldr	r0, [pc, #88]	; 88d0 <sweep_free+0xa8>
    8874:	eb0001a1 	bl	8f00 <printk>
    8878:	e1a00004 	mov	r0, r4
    887c:	ebfffe51 	bl	81c8 <ck_next_hdr>
    8880:	e1a04000 	mov	r4, r0
    8884:	e3540000 	cmp	r4, #0, 0
    8888:	0a000007 	beq	88ac <sweep_free+0x84>
    888c:	e2855001 	add	r5, r5, #1, 0
    8890:	e5943008 	ldr	r3, [r4, #8]
    8894:	e353000b 	cmp	r3, #11, 0
    8898:	1afffff6 	bne	8878 <sweep_free+0x50>
    889c:	e1d432b4 	ldrh	r3, [r4, #36]	; 0x24
    88a0:	e3530001 	cmp	r3, #1, 0
    88a4:	0afffff3 	beq	8878 <sweep_free+0x50>
    88a8:	eaffffe9 	b	8854 <sweep_free+0x2c>
    88ac:	e1a03006 	mov	r3, r6
    88b0:	e1a02007 	mov	r2, r7
    88b4:	e1a01005 	mov	r1, r5
    88b8:	e59f0014 	ldr	r0, [pc, #20]	; 88d4 <sweep_free+0xac>
    88bc:	eb00018f 	bl	8f00 <printk>
    88c0:	e1a00006 	mov	r0, r6
    88c4:	e8bd81f0 	pop	{r4, r5, r6, r7, r8, pc}
    88c8:	0000a318 	andeq	sl, r0, r8, lsl r3
    88cc:	0000a504 	andeq	sl, r0, r4, lsl #10
    88d0:	0000a514 	andeq	sl, r0, r4, lsl r5
    88d4:	0000a54c 	andeq	sl, r0, ip, asr #10

000088d8 <is_ptr>:
    88d8:	e92d4010 	push	{r4, lr}
    88dc:	e1a04000 	mov	r4, r0
    88e0:	ebffff62 	bl	8670 <in_heap>
    88e4:	e3500000 	cmp	r0, #0, 0
    88e8:	0a000002 	beq	88f8 <is_ptr+0x20>
    88ec:	e1a00004 	mov	r0, r4
    88f0:	ebfffe4e 	bl	8230 <ck_ptr_to_hdr>
    88f4:	e8bd8010 	pop	{r4, pc}
    88f8:	e3a00000 	mov	r0, #0, 0
    88fc:	e8bd8010 	pop	{r4, pc}

00008900 <mark>:
    8900:	e92d40f0 	push	{r4, r5, r6, r7, lr}
    8904:	e24dd00c 	sub	sp, sp, #12, 0
    8908:	e1500001 	cmp	r0, r1
    890c:	2a000007 	bcs	8930 <mark+0x30>
    8910:	e1a06000 	mov	r6, r0
    8914:	e3100003 	tst	r0, #3, 0
    8918:	1a00000c 	bne	8950 <mark+0x50>
    891c:	e2114003 	ands	r4, r1, #3, 0
    8920:	1a000012 	bne	8970 <mark+0x70>
    8924:	e0411000 	sub	r1, r1, r0
    8928:	e1a05141 	asr	r5, r1, #2
    892c:	ea00001e 	b	89ac <mark+0xac>
    8930:	e59f30e8 	ldr	r3, [pc, #232]	; 8a20 <mark+0x120>
    8934:	e58d3000 	str	r3, [sp]
    8938:	e3a0304a 	mov	r3, #74, 0	; 0x4a
    893c:	e59f20e0 	ldr	r2, [pc, #224]	; 8a24 <mark+0x124>
    8940:	e59f10e0 	ldr	r1, [pc, #224]	; 8a28 <mark+0x128>
    8944:	e59f00e0 	ldr	r0, [pc, #224]	; 8a2c <mark+0x12c>
    8948:	eb00016c 	bl	8f00 <printk>
    894c:	eb00035e 	bl	96cc <clean_reboot>
    8950:	e59f30d8 	ldr	r3, [pc, #216]	; 8a30 <mark+0x130>
    8954:	e58d3000 	str	r3, [sp]
    8958:	e3a0304c 	mov	r3, #76, 0	; 0x4c
    895c:	e59f20c0 	ldr	r2, [pc, #192]	; 8a24 <mark+0x124>
    8960:	e59f10c0 	ldr	r1, [pc, #192]	; 8a28 <mark+0x128>
    8964:	e59f00c0 	ldr	r0, [pc, #192]	; 8a2c <mark+0x12c>
    8968:	eb000164 	bl	8f00 <printk>
    896c:	eb000356 	bl	96cc <clean_reboot>
    8970:	e59f30bc 	ldr	r3, [pc, #188]	; 8a34 <mark+0x134>
    8974:	e58d3000 	str	r3, [sp]
    8978:	e3a0304d 	mov	r3, #77, 0	; 0x4d
    897c:	e59f20a0 	ldr	r2, [pc, #160]	; 8a24 <mark+0x124>
    8980:	e59f10a0 	ldr	r1, [pc, #160]	; 8a28 <mark+0x128>
    8984:	e59f00a0 	ldr	r0, [pc, #160]	; 8a2c <mark+0x12c>
    8988:	eb00015c 	bl	8f00 <printk>
    898c:	eb00034e 	bl	96cc <clean_reboot>
    8990:	e593201c 	ldr	r2, [r3, #28]
    8994:	e2822001 	add	r2, r2, #1, 0
    8998:	e583201c 	str	r2, [r3, #28]
    899c:	e5931004 	ldr	r1, [r3, #4]
    89a0:	e0801001 	add	r1, r0, r1
    89a4:	ebffffd5 	bl	8900 <mark>
    89a8:	e2844001 	add	r4, r4, #1, 0
    89ac:	e1540005 	cmp	r4, r5
    89b0:	2a000018 	bcs	8a18 <mark+0x118>
    89b4:	e1a07104 	lsl	r7, r4, #2
    89b8:	e7960104 	ldr	r0, [r6, r4, lsl #2]
    89bc:	ebffffc5 	bl	88d8 <is_ptr>
    89c0:	e2503000 	subs	r3, r0, #0, 0
    89c4:	0afffff7 	beq	89a8 <mark+0xa8>
    89c8:	e1d322b4 	ldrh	r2, [r3, #36]	; 0x24
    89cc:	e3520000 	cmp	r2, #0, 0
    89d0:	1afffff4 	bne	89a8 <mark+0xa8>
    89d4:	e3a02001 	mov	r2, #1, 0
    89d8:	e1c322b4 	strh	r2, [r3, #36]	; 0x24
    89dc:	e28300a8 	add	r0, r3, #168, 0	; 0xa8
    89e0:	e7962007 	ldr	r2, [r6, r7]
    89e4:	e1500002 	cmp	r0, r2
    89e8:	0affffe8 	beq	8990 <mark+0x90>
    89ec:	e28310b0 	add	r1, r3, #176, 0	; 0xb0
    89f0:	e1520001 	cmp	r2, r1
    89f4:	9affffe8 	bls	899c <mark+0x9c>
    89f8:	e5931004 	ldr	r1, [r3, #4]
    89fc:	e28110b0 	add	r1, r1, #176, 0	; 0xb0
    8a00:	e0831001 	add	r1, r3, r1
    8a04:	e1520001 	cmp	r2, r1
    8a08:	95932020 	ldrls	r2, [r3, #32]
    8a0c:	92822001 	addls	r2, r2, #1, 0
    8a10:	95832020 	strls	r2, [r3, #32]
    8a14:	eaffffe0 	b	899c <mark+0x9c>
    8a18:	e28dd00c 	add	sp, sp, #12, 0
    8a1c:	e8bd80f0 	pop	{r4, r5, r6, r7, pc}
    8a20:	0000a588 	andeq	sl, r0, r8, lsl #11
    8a24:	0000a6b0 			; <UNDEFINED> instruction: 0x0000a6b0
    8a28:	0000a580 	andeq	sl, r0, r0, lsl #11
    8a2c:	0000a11c 	andeq	sl, r0, ip, lsl r1
    8a30:	0000a58c 	andeq	sl, r0, ip, lsl #11
    8a34:	0000a59c 	muleq	r0, ip, r5

00008a38 <mark_all>:
    8a38:	e52de004 	push	{lr}		; (str lr, [sp, #-4]!)
    8a3c:	e24dd044 	sub	sp, sp, #68, 0	; 0x44
    8a40:	ebfffddc 	bl	81b8 <ck_first_hdr>
    8a44:	e3500000 	cmp	r0, #0, 0
    8a48:	0a000005 	beq	8a64 <mark_all+0x2c>
    8a4c:	e3a03000 	mov	r3, #0, 0
    8a50:	e5803020 	str	r3, [r0, #32]
    8a54:	e580301c 	str	r3, [r0, #28]
    8a58:	e1c032b4 	strh	r3, [r0, #36]	; 0x24
    8a5c:	ebfffdd9 	bl	81c8 <ck_next_hdr>
    8a60:	eafffff7 	b	8a44 <mark_all+0xc>
    8a64:	e1a0000d 	mov	r0, sp
    8a68:	eb00007d 	bl	8c64 <dump_regs>
    8a6c:	e3a03000 	mov	r3, #0, 0
    8a70:	e58d3000 	str	r3, [sp]
    8a74:	e58d3004 	str	r3, [sp, #4]
    8a78:	e58d3008 	str	r3, [sp, #8]
    8a7c:	e58d300c 	str	r3, [sp, #12]
    8a80:	e28d1040 	add	r1, sp, #64, 0	; 0x40
    8a84:	e1a0000d 	mov	r0, sp
    8a88:	ebffff9c 	bl	8900 <mark>
    8a8c:	e3a01302 	mov	r1, #134217728	; 0x8000000
    8a90:	e59d0034 	ldr	r0, [sp, #52]	; 0x34
    8a94:	ebffff99 	bl	8900 <mark>
    8a98:	e59f1018 	ldr	r1, [pc, #24]	; 8ab8 <mark_all+0x80>
    8a9c:	e59f0018 	ldr	r0, [pc, #24]	; 8abc <mark_all+0x84>
    8aa0:	ebffff96 	bl	8900 <mark>
    8aa4:	e59f1014 	ldr	r1, [pc, #20]	; 8ac0 <mark_all+0x88>
    8aa8:	e59f0014 	ldr	r0, [pc, #20]	; 8ac4 <mark_all+0x8c>
    8aac:	ebffff93 	bl	8900 <mark>
    8ab0:	e28dd044 	add	sp, sp, #68, 0	; 0x44
    8ab4:	e49df004 	pop	{pc}		; (ldr pc, [sp], #4)
    8ab8:	0000aea8 	andeq	sl, r0, r8, lsr #29
    8abc:	0000aa78 	andeq	sl, r0, r8, ror sl
    8ac0:	0000aa78 	andeq	sl, r0, r8, ror sl
    8ac4:	0000aa60 	andeq	sl, r0, r0, ror #20

00008ac8 <sbrk>:
    8ac8:	e92d4030 	push	{r4, r5, lr}
    8acc:	e24dd00c 	sub	sp, sp, #12, 0
    8ad0:	e1a04000 	mov	r4, r0
    8ad4:	e59f0070 	ldr	r0, [pc, #112]	; 8b4c <sbrk+0x84>
    8ad8:	eb000108 	bl	8f00 <printk>
    8adc:	e3540000 	cmp	r4, #0, 0
    8ae0:	da000007 	ble	8b04 <sbrk+0x3c>
    8ae4:	e59f3064 	ldr	r3, [pc, #100]	; 8b50 <sbrk+0x88>
    8ae8:	e5933008 	ldr	r3, [r3, #8]
    8aec:	e3530000 	cmp	r3, #0, 0
    8af0:	0a00000b 	beq	8b24 <sbrk+0x5c>
    8af4:	e1a00004 	mov	r0, r4
    8af8:	eb00043a 	bl	9be8 <kmalloc>
    8afc:	e28dd00c 	add	sp, sp, #12, 0
    8b00:	e8bd8030 	pop	{r4, r5, pc}
    8b04:	e59f3048 	ldr	r3, [pc, #72]	; 8b54 <sbrk+0x8c>
    8b08:	e58d3000 	str	r3, [sp]
    8b0c:	e3a03015 	mov	r3, #21, 0
    8b10:	e59f2040 	ldr	r2, [pc, #64]	; 8b58 <sbrk+0x90>
    8b14:	e59f1040 	ldr	r1, [pc, #64]	; 8b5c <sbrk+0x94>
    8b18:	e59f0040 	ldr	r0, [pc, #64]	; 8b60 <sbrk+0x98>
    8b1c:	eb0000f7 	bl	8f00 <printk>
    8b20:	eb0002e9 	bl	96cc <clean_reboot>
    8b24:	e59f5024 	ldr	r5, [pc, #36]	; 8b50 <sbrk+0x88>
    8b28:	e3a00601 	mov	r0, #1048576	; 0x100000
    8b2c:	e5850000 	str	r0, [r5]
    8b30:	e3a03602 	mov	r3, #2097152	; 0x200000
    8b34:	e5853004 	str	r3, [r5, #4]
    8b38:	e1a01000 	mov	r1, r0
    8b3c:	eb0003c6 	bl	9a5c <kmalloc_init_set_start>
    8b40:	e3a03001 	mov	r3, #1, 0
    8b44:	e5853008 	str	r3, [r5, #8]
    8b48:	eaffffe9 	b	8af4 <sbrk+0x2c>
    8b4c:	0000a5ac 	andeq	sl, r0, ip, lsr #11
    8b50:	0000aa80 	andeq	sl, r0, r0, lsl #21
    8b54:	0000a5bc 			; <UNDEFINED> instruction: 0x0000a5bc
    8b58:	0000a6b8 			; <UNDEFINED> instruction: 0x0000a6b8
    8b5c:	0000a580 	andeq	sl, r0, r0, lsl #11
    8b60:	0000a11c 	andeq	sl, r0, ip, lsl r1

00008b64 <ck_find_leaks>:
    8b64:	e92d4010 	push	{r4, lr}
    8b68:	e1a04000 	mov	r4, r0
    8b6c:	e59f0018 	ldr	r0, [pc, #24]	; 8b8c <ck_find_leaks+0x28>
    8b70:	eb0000e2 	bl	8f00 <printk>
    8b74:	ebffffaf 	bl	8a38 <mark_all>
    8b78:	e59f0010 	ldr	r0, [pc, #16]	; 8b90 <ck_find_leaks+0x2c>
    8b7c:	eb0000df 	bl	8f00 <printk>
    8b80:	e1a00004 	mov	r0, r4
    8b84:	ebfffec8 	bl	86ac <sweep_leak>
    8b88:	e8bd8010 	pop	{r4, pc}
    8b8c:	0000a5cc 	andeq	sl, r0, ip, asr #11
    8b90:	0000a5e0 	andeq	sl, r0, r0, ror #11

00008b94 <check_no_leak>:
    8b94:	e92d4010 	push	{r4, lr}
    8b98:	e3a00001 	mov	r0, #1, 0
    8b9c:	ebfffff0 	bl	8b64 <ck_find_leaks>
    8ba0:	e3500000 	cmp	r0, #0, 0
    8ba4:	1a000002 	bne	8bb4 <check_no_leak+0x20>
    8ba8:	e59f001c 	ldr	r0, [pc, #28]	; 8bcc <check_no_leak+0x38>
    8bac:	eb0000d3 	bl	8f00 <printk>
    8bb0:	e8bd8010 	pop	{r4, pc}
    8bb4:	e3a030d9 	mov	r3, #217, 0	; 0xd9
    8bb8:	e59f2010 	ldr	r2, [pc, #16]	; 8bd0 <check_no_leak+0x3c>
    8bbc:	e59f1010 	ldr	r1, [pc, #16]	; 8bd4 <check_no_leak+0x40>
    8bc0:	e59f0010 	ldr	r0, [pc, #16]	; 8bd8 <check_no_leak+0x44>
    8bc4:	eb0000cd 	bl	8f00 <printk>
    8bc8:	eb0002bf 	bl	96cc <clean_reboot>
    8bcc:	0000a614 	andeq	sl, r0, r4, lsl r6
    8bd0:	0000a6c0 	andeq	sl, r0, r0, asr #13
    8bd4:	0000a580 	andeq	sl, r0, r0, lsl #11
    8bd8:	0000a5e8 	andeq	sl, r0, r8, ror #11

00008bdc <check_should_leak>:
    8bdc:	e92d4010 	push	{r4, lr}
    8be0:	e3a00001 	mov	r0, #1, 0
    8be4:	ebffffde 	bl	8b64 <ck_find_leaks>
    8be8:	e2504000 	subs	r4, r0, #0, 0
    8bec:	0a000004 	beq	8c04 <check_should_leak+0x28>
    8bf0:	e1a01004 	mov	r1, r4
    8bf4:	e59f0020 	ldr	r0, [pc, #32]	; 8c1c <check_should_leak+0x40>
    8bf8:	eb0000c0 	bl	8f00 <printk>
    8bfc:	e1a00004 	mov	r0, r4
    8c00:	e8bd8010 	pop	{r4, pc}
    8c04:	e3a030e7 	mov	r3, #231, 0	; 0xe7
    8c08:	e59f2010 	ldr	r2, [pc, #16]	; 8c20 <check_should_leak+0x44>
    8c0c:	e59f1010 	ldr	r1, [pc, #16]	; 8c24 <check_should_leak+0x48>
    8c10:	e59f0010 	ldr	r0, [pc, #16]	; 8c28 <check_should_leak+0x4c>
    8c14:	eb0000b9 	bl	8f00 <printk>
    8c18:	eb0002ab 	bl	96cc <clean_reboot>
    8c1c:	0000a65c 	andeq	sl, r0, ip, asr r6
    8c20:	0000a6d0 	ldrdeq	sl, [r0], -r0
    8c24:	0000a580 	andeq	sl, r0, r0, lsl #11
    8c28:	0000a634 	andeq	sl, r0, r4, lsr r6

00008c2c <ck_gc>:
    8c2c:	e92d4010 	push	{r4, lr}
    8c30:	ebffff80 	bl	8a38 <mark_all>
    8c34:	ebfffefb 	bl	8828 <sweep_free>
    8c38:	e8bd8010 	pop	{r4, pc}

00008c3c <implement_this>:
    8c3c:	e92d4010 	push	{r4, lr}
    8c40:	e3a03e11 	mov	r3, #272	; 0x110
    8c44:	e59f200c 	ldr	r2, [pc, #12]	; 8c58 <implement_this+0x1c>
    8c48:	e59f100c 	ldr	r1, [pc, #12]	; 8c5c <implement_this+0x20>
    8c4c:	e59f000c 	ldr	r0, [pc, #12]	; 8c60 <implement_this+0x24>
    8c50:	eb0000aa 	bl	8f00 <printk>
    8c54:	eb00029c 	bl	96cc <clean_reboot>
    8c58:	0000a6e4 	andeq	sl, r0, r4, ror #13
    8c5c:	0000a580 	andeq	sl, r0, r0, lsl #11
    8c60:	0000a680 	andeq	sl, r0, r0, lsl #13

00008c64 <dump_regs>:
    8c64:	e5800000 	str	r0, [r0]
    8c68:	e5801004 	str	r1, [r0, #4]
    8c6c:	e5802008 	str	r2, [r0, #8]
    8c70:	e580300c 	str	r3, [r0, #12]
    8c74:	e5804010 	str	r4, [r0, #16]
    8c78:	e5805014 	str	r5, [r0, #20]
    8c7c:	e5806018 	str	r6, [r0, #24]
    8c80:	e580701c 	str	r7, [r0, #28]
    8c84:	e5808020 	str	r8, [r0, #32]
    8c88:	e5809024 	str	r9, [r0, #36]	; 0x24
    8c8c:	e580a028 	str	sl, [r0, #40]	; 0x28
    8c90:	e580b02c 	str	fp, [r0, #44]	; 0x2c
    8c94:	e580c030 	str	ip, [r0, #48]	; 0x30
    8c98:	e580d034 	str	sp, [r0, #52]	; 0x34
    8c9c:	e580e038 	str	lr, [r0, #56]	; 0x38
    8ca0:	e580f03c 	str	pc, [r0, #60]	; 0x3c
    8ca4:	e12fff1e 	bx	lr

00008ca8 <kr_free>:
    8ca8:	e52de004 	push	{lr}		; (str lr, [sp, #-4]!)
    8cac:	e2401008 	sub	r1, r0, #8, 0
    8cb0:	e59f30a8 	ldr	r3, [pc, #168]	; 8d60 <kr_free+0xb8>
    8cb4:	e5933000 	ldr	r3, [r3]
    8cb8:	ea000000 	b	8cc0 <kr_free+0x18>
    8cbc:	e1a03002 	mov	r3, r2
    8cc0:	e1530001 	cmp	r3, r1
    8cc4:	2a000002 	bcs	8cd4 <kr_free+0x2c>
    8cc8:	e5932000 	ldr	r2, [r3]
    8ccc:	e1520001 	cmp	r2, r1
    8cd0:	8a000007 	bhi	8cf4 <kr_free+0x4c>
    8cd4:	e5932000 	ldr	r2, [r3]
    8cd8:	e1520003 	cmp	r2, r3
    8cdc:	8afffff6 	bhi	8cbc <kr_free+0x14>
    8ce0:	e1530001 	cmp	r3, r1
    8ce4:	3a000002 	bcc	8cf4 <kr_free+0x4c>
    8ce8:	e1520001 	cmp	r2, r1
    8cec:	91a03002 	movls	r3, r2
    8cf0:	9afffff2 	bls	8cc0 <kr_free+0x18>
    8cf4:	e510c004 	ldr	ip, [r0, #-4]
    8cf8:	e081e18c 	add	lr, r1, ip, lsl #3
    8cfc:	e5932000 	ldr	r2, [r3]
    8d00:	e15e0002 	cmp	lr, r2
    8d04:	0a000008 	beq	8d2c <kr_free+0x84>
    8d08:	e5002008 	str	r2, [r0, #-8]
    8d0c:	e5932004 	ldr	r2, [r3, #4]
    8d10:	e083c182 	add	ip, r3, r2, lsl #3
    8d14:	e15c0001 	cmp	ip, r1
    8d18:	0a00000a 	beq	8d48 <kr_free+0xa0>
    8d1c:	e5831000 	str	r1, [r3]
    8d20:	e59f2038 	ldr	r2, [pc, #56]	; 8d60 <kr_free+0xb8>
    8d24:	e5823000 	str	r3, [r2]
    8d28:	e49df004 	pop	{pc}		; (ldr pc, [sp], #4)
    8d2c:	e5922004 	ldr	r2, [r2, #4]
    8d30:	e08cc002 	add	ip, ip, r2
    8d34:	e500c004 	str	ip, [r0, #-4]
    8d38:	e5932000 	ldr	r2, [r3]
    8d3c:	e5922000 	ldr	r2, [r2]
    8d40:	e5002008 	str	r2, [r0, #-8]
    8d44:	eafffff0 	b	8d0c <kr_free+0x64>
    8d48:	e5101004 	ldr	r1, [r0, #-4]
    8d4c:	e0822001 	add	r2, r2, r1
    8d50:	e5832004 	str	r2, [r3, #4]
    8d54:	e5102008 	ldr	r2, [r0, #-8]
    8d58:	e5832000 	str	r2, [r3]
    8d5c:	eaffffef 	b	8d20 <kr_free+0x78>
    8d60:	0000aa90 	muleq	r0, r0, sl

00008d64 <kr_morecore>:
    8d64:	e92d4010 	push	{r4, lr}
    8d68:	e1a04000 	mov	r4, r0
    8d6c:	e3500b01 	cmp	r0, #1024	; 0x400
    8d70:	33a04b01 	movcc	r4, #1024	; 0x400
    8d74:	e1a00184 	lsl	r0, r4, #3
    8d78:	ebffff52 	bl	8ac8 <sbrk>
    8d7c:	e3700001 	cmn	r0, #1, 0
    8d80:	0a000005 	beq	8d9c <kr_morecore+0x38>
    8d84:	e5804004 	str	r4, [r0, #4]
    8d88:	e2800008 	add	r0, r0, #8, 0
    8d8c:	ebffffc5 	bl	8ca8 <kr_free>
    8d90:	e59f300c 	ldr	r3, [pc, #12]	; 8da4 <kr_morecore+0x40>
    8d94:	e5930000 	ldr	r0, [r3]
    8d98:	e8bd8010 	pop	{r4, pc}
    8d9c:	e3a00000 	mov	r0, #0, 0
    8da0:	e8bd8010 	pop	{r4, pc}
    8da4:	0000aa90 	muleq	r0, r0, sl

00008da8 <kr_malloc>:
    8da8:	e92d4010 	push	{r4, lr}
    8dac:	e2804007 	add	r4, r0, #7, 0
    8db0:	e1a041a4 	lsr	r4, r4, #3
    8db4:	e2844001 	add	r4, r4, #1, 0
    8db8:	e59f3090 	ldr	r3, [pc, #144]	; 8e50 <kr_malloc+0xa8>
    8dbc:	e5932000 	ldr	r2, [r3]
    8dc0:	e3520000 	cmp	r2, #0, 0
    8dc4:	0a000001 	beq	8dd0 <kr_malloc+0x28>
    8dc8:	e5920000 	ldr	r0, [r2]
    8dcc:	ea000013 	b	8e20 <kr_malloc+0x78>
    8dd0:	e2832008 	add	r2, r3, #8, 0
    8dd4:	e5832000 	str	r2, [r3]
    8dd8:	e5832008 	str	r2, [r3, #8]
    8ddc:	e3a01000 	mov	r1, #0, 0
    8de0:	e583100c 	str	r1, [r3, #12]
    8de4:	eafffff7 	b	8dc8 <kr_malloc+0x20>
    8de8:	0a000007 	beq	8e0c <kr_malloc+0x64>
    8dec:	e0433004 	sub	r3, r3, r4
    8df0:	e5803004 	str	r3, [r0, #4]
    8df4:	e0800183 	add	r0, r0, r3, lsl #3
    8df8:	e5804004 	str	r4, [r0, #4]
    8dfc:	e59f304c 	ldr	r3, [pc, #76]	; 8e50 <kr_malloc+0xa8>
    8e00:	e5832000 	str	r2, [r3]
    8e04:	e2800008 	add	r0, r0, #8, 0
    8e08:	e8bd8010 	pop	{r4, pc}
    8e0c:	e5903000 	ldr	r3, [r0]
    8e10:	e5823000 	str	r3, [r2]
    8e14:	eafffff8 	b	8dfc <kr_malloc+0x54>
    8e18:	e1a02000 	mov	r2, r0
    8e1c:	e5900000 	ldr	r0, [r0]
    8e20:	e5903004 	ldr	r3, [r0, #4]
    8e24:	e1530004 	cmp	r3, r4
    8e28:	2affffee 	bcs	8de8 <kr_malloc+0x40>
    8e2c:	e59f301c 	ldr	r3, [pc, #28]	; 8e50 <kr_malloc+0xa8>
    8e30:	e5933000 	ldr	r3, [r3]
    8e34:	e1530000 	cmp	r3, r0
    8e38:	1afffff6 	bne	8e18 <kr_malloc+0x70>
    8e3c:	e1a00004 	mov	r0, r4
    8e40:	ebffffc7 	bl	8d64 <kr_morecore>
    8e44:	e3500000 	cmp	r0, #0, 0
    8e48:	1afffff2 	bne	8e18 <kr_malloc+0x70>
    8e4c:	e8bd8010 	pop	{r4, pc}
    8e50:	0000aa90 	muleq	r0, r0, sl

00008e54 <memcmp>:
    8e54:	e52de004 	push	{lr}		; (str lr, [sp, #-4]!)
    8e58:	e1a0e000 	mov	lr, r0
    8e5c:	e3a03000 	mov	r3, #0, 0
    8e60:	e1530002 	cmp	r3, r2
    8e64:	2a000005 	bcs	8e80 <memcmp+0x2c>
    8e68:	e7dec003 	ldrb	ip, [lr, r3]
    8e6c:	e7d10003 	ldrb	r0, [r1, r3]
    8e70:	e05c0000 	subs	r0, ip, r0
    8e74:	149df004 	popne	{pc}		; (ldrne pc, [sp], #4)
    8e78:	e2833001 	add	r3, r3, #1, 0
    8e7c:	eafffff7 	b	8e60 <memcmp+0xc>
    8e80:	e3a00000 	mov	r0, #0, 0
    8e84:	e49df004 	pop	{pc}		; (ldr pc, [sp], #4)

00008e88 <memcpy>:
    8e88:	e2103003 	ands	r3, r0, #3, 0
    8e8c:	1a000011 	bne	8ed8 <memcpy+0x50>
    8e90:	e211c003 	ands	ip, r1, #3, 0
    8e94:	1a00000c 	bne	8ecc <memcpy+0x44>
    8e98:	e2123003 	ands	r3, r2, #3, 0
    8e9c:	1a00000f 	bne	8ee0 <memcpy+0x58>
    8ea0:	e1a02122 	lsr	r2, r2, #2
    8ea4:	ea000002 	b	8eb4 <memcpy+0x2c>
    8ea8:	e791c103 	ldr	ip, [r1, r3, lsl #2]
    8eac:	e780c103 	str	ip, [r0, r3, lsl #2]
    8eb0:	e2833001 	add	r3, r3, #1, 0
    8eb4:	e1530002 	cmp	r3, r2
    8eb8:	3afffffa 	bcc	8ea8 <memcpy+0x20>
    8ebc:	e12fff1e 	bx	lr
    8ec0:	e7d1c003 	ldrb	ip, [r1, r3]
    8ec4:	e7c0c003 	strb	ip, [r0, r3]
    8ec8:	e2833001 	add	r3, r3, #1, 0
    8ecc:	e1530002 	cmp	r3, r2
    8ed0:	3afffffa 	bcc	8ec0 <memcpy+0x38>
    8ed4:	e12fff1e 	bx	lr
    8ed8:	e3a03000 	mov	r3, #0, 0
    8edc:	eafffffa 	b	8ecc <memcpy+0x44>
    8ee0:	e1a0300c 	mov	r3, ip
    8ee4:	eafffff8 	b	8ecc <memcpy+0x44>

00008ee8 <memset>:
    8ee8:	e0802002 	add	r2, r0, r2
    8eec:	e1a03000 	mov	r3, r0
    8ef0:	e1530002 	cmp	r3, r2
    8ef4:	212fff1e 	bxcs	lr
    8ef8:	e4c31001 	strb	r1, [r3], #1
    8efc:	eafffffb 	b	8ef0 <memset+0x8>

00008f00 <printk>:
    8f00:	e92d000f 	push	{r0, r1, r2, r3}
    8f04:	e92d4030 	push	{r4, r5, lr}
    8f08:	e24dd00c 	sub	sp, sp, #12, 0
    8f0c:	e28d301c 	add	r3, sp, #28, 0
    8f10:	e58d3004 	str	r3, [sp, #4]
    8f14:	e59f5034 	ldr	r5, [pc, #52]	; 8f50 <printk+0x50>
    8f18:	e59d2018 	ldr	r2, [sp, #24]
    8f1c:	e3a01b01 	mov	r1, #1024	; 0x400
    8f20:	e1a00005 	mov	r0, r5
    8f24:	eb0000ba 	bl	9214 <va_printk>
    8f28:	e1a04000 	mov	r4, r0
    8f2c:	e59f3020 	ldr	r3, [pc, #32]	; 8f54 <printk+0x54>
    8f30:	e5933000 	ldr	r3, [r3]
    8f34:	e1a00005 	mov	r0, r5
    8f38:	e12fff33 	blx	r3
    8f3c:	e1a00004 	mov	r0, r4
    8f40:	e28dd00c 	add	sp, sp, #12, 0
    8f44:	e8bd4030 	pop	{r4, r5, lr}
    8f48:	e28dd010 	add	sp, sp, #16, 0
    8f4c:	e12fff1e 	bx	lr
    8f50:	0000aaa0 	andeq	sl, r0, r0, lsr #21
    8f54:	0000aa64 	andeq	sl, r0, r4, ror #20

00008f58 <internal_putk>:
    8f58:	e92d4010 	push	{r4, lr}
    8f5c:	e1a04000 	mov	r4, r0
    8f60:	e5d40000 	ldrb	r0, [r4]
    8f64:	e3500000 	cmp	r0, #0, 0
    8f68:	0a000004 	beq	8f80 <internal_putk+0x28>
    8f6c:	e59f3014 	ldr	r3, [pc, #20]	; 8f88 <internal_putk+0x30>
    8f70:	e5933000 	ldr	r3, [r3]
    8f74:	e12fff33 	blx	r3
    8f78:	e2844001 	add	r4, r4, #1, 0
    8f7c:	eafffff7 	b	8f60 <internal_putk+0x8>
    8f80:	e3a00001 	mov	r0, #1, 0
    8f84:	e8bd8010 	pop	{r4, pc}
    8f88:	0000aa74 	andeq	sl, r0, r4, ror sl

00008f8c <isdigit>:
    8f8c:	e2400030 	sub	r0, r0, #48, 0	; 0x30
    8f90:	e3500009 	cmp	r0, #9, 0
    8f94:	83a00000 	movhi	r0, #0, 0
    8f98:	93a00001 	movls	r0, #1, 0
    8f9c:	e12fff1e 	bx	lr

00008fa0 <pad>:
    8fa0:	e0401001 	sub	r1, r0, r1
    8fa4:	e1510002 	cmp	r1, r2
    8fa8:	b3a03020 	movlt	r3, #32, 0
    8fac:	b4c03001 	strblt	r3, [r0], #1
    8fb0:	b2811001 	addlt	r1, r1, #1, 0
    8fb4:	bafffffa 	blt	8fa4 <pad+0x4>
    8fb8:	e3a03000 	mov	r3, #0, 0
    8fbc:	e5c03000 	strb	r3, [r0]
    8fc0:	e12fff1e 	bx	lr

00008fc4 <reverse>:
    8fc4:	e042c003 	sub	ip, r2, r3
    8fc8:	e28cc001 	add	ip, ip, #1, 0
    8fcc:	e15c0001 	cmp	ip, r1
    8fd0:	c04cc001 	subgt	ip, ip, r1
    8fd4:	c083300c 	addgt	r3, r3, ip
    8fd8:	e2421001 	sub	r1, r2, #1, 0
    8fdc:	e1a02000 	mov	r2, r0
    8fe0:	e1510003 	cmp	r1, r3
    8fe4:	2451c001 	ldrbcs	ip, [r1], #-1
    8fe8:	24c2c001 	strbcs	ip, [r2], #1
    8fec:	2afffffb 	bcs	8fe0 <reverse+0x1c>
    8ff0:	e3a03000 	mov	r3, #0, 0
    8ff4:	e5c23000 	strb	r3, [r2]
    8ff8:	e12fff1e 	bx	lr

00008ffc <emit>:
    8ffc:	e92d40f0 	push	{r4, r5, r6, r7, lr}
    9000:	e24dd04c 	sub	sp, sp, #76, 0	; 0x4c
    9004:	e1a05001 	mov	r5, r1
    9008:	e1a04002 	mov	r4, r2
    900c:	e59d2060 	ldr	r2, [sp, #96]	; 0x60
    9010:	e1520004 	cmp	r2, r4
    9014:	c2442001 	subgt	r2, r4, #1, 0
    9018:	e1a0c003 	mov	ip, r3
    901c:	e2400002 	sub	r0, r0, #2, 0
    9020:	e350000e 	cmp	r0, #14, 0
    9024:	979ff100 	ldrls	pc, [pc, r0, lsl #2]
    9028:	ea000050 	b	9170 <emit+0x174>
    902c:	00009148 	andeq	r9, r0, r8, asr #2
    9030:	00009170 	andeq	r9, r0, r0, ror r1
    9034:	00009170 	andeq	r9, r0, r0, ror r1
    9038:	00009170 	andeq	r9, r0, r0, ror r1
    903c:	00009170 	andeq	r9, r0, r0, ror r1
    9040:	00009170 	andeq	r9, r0, r0, ror r1
    9044:	0000913c 	andeq	r9, r0, ip, lsr r1
    9048:	00009170 	andeq	r9, r0, r0, ror r1
    904c:	00009068 	andeq	r9, r0, r8, rrx
    9050:	00009170 	andeq	r9, r0, r0, ror r1
    9054:	00009170 	andeq	r9, r0, r0, ror r1
    9058:	00009170 	andeq	r9, r0, r0, ror r1
    905c:	00009170 	andeq	r9, r0, r0, ror r1
    9060:	00009170 	andeq	r9, r0, r0, ror r1
    9064:	000090e0 	andeq	r9, r0, r0, ror #1
    9068:	e59d1064 	ldr	r1, [sp, #100]	; 0x64
    906c:	e2511000 	subs	r1, r1, #0, 0
    9070:	13a01001 	movne	r1, #1, 0
    9074:	e0111fa3 	ands	r1, r1, r3, lsr #31
    9078:	0a000016 	beq	90d8 <emit+0xdc>
    907c:	e263c000 	rsb	ip, r3, #0, 0
    9080:	e3a06001 	mov	r6, #1, 0
    9084:	e28d0008 	add	r0, sp, #8, 0
    9088:	e59f3100 	ldr	r3, [pc, #256]	; 9190 <emit+0x194>
    908c:	e0831c93 	umull	r1, r3, r3, ip
    9090:	e1a031a3 	lsr	r3, r3, #3
    9094:	e1a0e003 	mov	lr, r3
    9098:	e0833103 	add	r3, r3, r3, lsl #2
    909c:	e04c3083 	sub	r3, ip, r3, lsl #1
    90a0:	e1a01000 	mov	r1, r0
    90a4:	e2800001 	add	r0, r0, #1, 0
    90a8:	e59f70e4 	ldr	r7, [pc, #228]	; 9194 <emit+0x198>
    90ac:	e7d73003 	ldrb	r3, [r7, r3]
    90b0:	e5c13000 	strb	r3, [r1]
    90b4:	e1a0300c 	mov	r3, ip
    90b8:	e1a0c00e 	mov	ip, lr
    90bc:	e3530009 	cmp	r3, #9, 0
    90c0:	8afffff0 	bhi	9088 <emit+0x8c>
    90c4:	e3560000 	cmp	r6, #0, 0
    90c8:	13a0302d 	movne	r3, #45, 0	; 0x2d
    90cc:	15c03000 	strbne	r3, [r0]
    90d0:	12810002 	addne	r0, r1, #2, 0
    90d4:	ea00000f 	b	9118 <emit+0x11c>
    90d8:	e3a06000 	mov	r6, #0, 0
    90dc:	eaffffe8 	b	9084 <emit+0x88>
    90e0:	e28d1008 	add	r1, sp, #8, 0
    90e4:	e20c000f 	and	r0, ip, #15, 0
    90e8:	e59fe0a8 	ldr	lr, [pc, #168]	; 9198 <emit+0x19c>
    90ec:	e7de0000 	ldrb	r0, [lr, r0]
    90f0:	e5c10000 	strb	r0, [r1]
    90f4:	e2811001 	add	r1, r1, #1, 0
    90f8:	e35c000f 	cmp	ip, #15, 0
    90fc:	e1a0c22c 	lsr	ip, ip, #4
    9100:	8afffff7 	bhi	90e4 <emit+0xe8>
    9104:	e1a00001 	mov	r0, r1
    9108:	e3a03078 	mov	r3, #120, 0	; 0x78
    910c:	e4c03002 	strb	r3, [r0], #2
    9110:	e3a03030 	mov	r3, #48, 0	; 0x30
    9114:	e5c13001 	strb	r3, [r1, #1]
    9118:	e28d1008 	add	r1, sp, #8, 0
    911c:	ebffff9f 	bl	8fa0 <pad>
    9120:	e1a02000 	mov	r2, r0
    9124:	e28d3008 	add	r3, sp, #8, 0
    9128:	e1a01004 	mov	r1, r4
    912c:	e1a00005 	mov	r0, r5
    9130:	ebffffa3 	bl	8fc4 <reverse>
    9134:	e28dd04c 	add	sp, sp, #76, 0	; 0x4c
    9138:	e8bd80f0 	pop	{r4, r5, r6, r7, pc}
    913c:	e5cd3008 	strb	r3, [sp, #8]
    9140:	e28d0009 	add	r0, sp, #9, 0
    9144:	eafffff3 	b	9118 <emit+0x11c>
    9148:	e28d0008 	add	r0, sp, #8, 0
    914c:	e20c1001 	and	r1, ip, #1, 0
    9150:	e59fe044 	ldr	lr, [pc, #68]	; 919c <emit+0x1a0>
    9154:	e7de1001 	ldrb	r1, [lr, r1]
    9158:	e5c01000 	strb	r1, [r0]
    915c:	e2800001 	add	r0, r0, #1, 0
    9160:	e35c0001 	cmp	ip, #1, 0
    9164:	e1a0c0ac 	lsr	ip, ip, #1
    9168:	8afffff7 	bhi	914c <emit+0x150>
    916c:	eaffffe9 	b	9118 <emit+0x11c>
    9170:	e59f3028 	ldr	r3, [pc, #40]	; 91a0 <emit+0x1a4>
    9174:	e58d3000 	str	r3, [sp]
    9178:	e3a03079 	mov	r3, #121, 0	; 0x79
    917c:	e59f2020 	ldr	r2, [pc, #32]	; 91a4 <emit+0x1a8>
    9180:	e59f1020 	ldr	r1, [pc, #32]	; 91a8 <emit+0x1ac>
    9184:	e59f0020 	ldr	r0, [pc, #32]	; 91ac <emit+0x1b0>
    9188:	ebffff5c 	bl	8f00 <printk>
    918c:	eb00014e 	bl	96cc <clean_reboot>
    9190:	cccccccd 	stclgt	12, cr12, [ip], {205}	; 0xcd
    9194:	0000a708 	andeq	sl, r0, r8, lsl #14
    9198:	0000a714 	andeq	sl, r0, r4, lsl r7
    919c:	0000a728 	andeq	sl, r0, r8, lsr #14
    91a0:	0000a5c8 	andeq	sl, r0, r8, asr #11
    91a4:	0000a834 	andeq	sl, r0, r4, lsr r8
    91a8:	0000a6f4 	strdeq	sl, [r0], -r4
    91ac:	0000a11c 	andeq	sl, r0, ip, lsl r1

000091b0 <rpi_set_output>:
    91b0:	e3500000 	cmp	r0, #0, 0
    91b4:	0a000006 	beq	91d4 <rpi_set_output+0x24>
    91b8:	e59f303c 	ldr	r3, [pc, #60]	; 91fc <rpi_set_output+0x4c>
    91bc:	e5830000 	str	r0, [r3]
    91c0:	e3510000 	cmp	r1, #0, 0
    91c4:	012fff1e 	bxeq	lr
    91c8:	e59f3030 	ldr	r3, [pc, #48]	; 9200 <rpi_set_output+0x50>
    91cc:	e5831000 	str	r1, [r3]
    91d0:	e12fff1e 	bx	lr
    91d4:	e52de004 	push	{lr}		; (str lr, [sp, #-4]!)
    91d8:	e24dd00c 	sub	sp, sp, #12, 0
    91dc:	e59f3020 	ldr	r3, [pc, #32]	; 9204 <rpi_set_output+0x54>
    91e0:	e58d3000 	str	r3, [sp]
    91e4:	e3a03020 	mov	r3, #32, 0
    91e8:	e59f2018 	ldr	r2, [pc, #24]	; 9208 <rpi_set_output+0x58>
    91ec:	e59f1018 	ldr	r1, [pc, #24]	; 920c <rpi_set_output+0x5c>
    91f0:	e59f0018 	ldr	r0, [pc, #24]	; 9210 <rpi_set_output+0x60>
    91f4:	ebffff41 	bl	8f00 <printk>
    91f8:	eb000133 	bl	96cc <clean_reboot>
    91fc:	0000aa74 	andeq	sl, r0, r4, ror sl
    9200:	0000aa64 	andeq	sl, r0, r4, ror #20
    9204:	0000a72c 	andeq	sl, r0, ip, lsr #14
    9208:	0000a83c 	andeq	sl, r0, ip, lsr r8
    920c:	0000a6f4 	strdeq	sl, [r0], -r4
    9210:	0000a11c 	andeq	sl, r0, ip, lsl r1

00009214 <va_printk>:
    9214:	e92d4ff0 	push	{r4, r5, r6, r7, r8, r9, sl, fp, lr}
    9218:	e24ddf45 	sub	sp, sp, #276	; 0x114
    921c:	e1a09000 	mov	r9, r0
    9220:	e58d2008 	str	r2, [sp, #8]
    9224:	e58d300c 	str	r3, [sp, #12]
    9228:	e2411001 	sub	r1, r1, #1, 0
    922c:	e0808001 	add	r8, r0, r1
    9230:	e3a03000 	mov	r3, #0, 0
    9234:	e5c03000 	strb	r3, [r0]
    9238:	e1a04000 	mov	r4, r0
    923c:	e1a06002 	mov	r6, r2
    9240:	ea000001 	b	924c <va_printk+0x38>
    9244:	e2866001 	add	r6, r6, #1, 0
    9248:	e4c43001 	strb	r3, [r4], #1
    924c:	e5d63000 	ldrb	r3, [r6]
    9250:	e3530000 	cmp	r3, #0, 0
    9254:	0a000108 	beq	967c <va_printk+0x468>
    9258:	e1540008 	cmp	r4, r8
    925c:	2a000106 	bcs	967c <va_printk+0x468>
    9260:	e3530025 	cmp	r3, #37, 0	; 0x25
    9264:	1afffff6 	bne	9244 <va_printk+0x30>
    9268:	e5d62001 	ldrb	r2, [r6, #1]
    926c:	e3520025 	cmp	r2, #37, 0	; 0x25
    9270:	04c43001 	strbeq	r3, [r4], #1
    9274:	02866002 	addeq	r6, r6, #2, 0
    9278:	0afffff3 	beq	924c <va_printk+0x38>
    927c:	e2866001 	add	r6, r6, #1, 0
    9280:	e3a05000 	mov	r5, #0, 0
    9284:	e5d67000 	ldrb	r7, [r6]
    9288:	e1a0a007 	mov	sl, r7
    928c:	e1a00007 	mov	r0, r7
    9290:	ebffff3d 	bl	8f8c <isdigit>
    9294:	e3500000 	cmp	r0, #0, 0
    9298:	0a000004 	beq	92b0 <va_printk+0x9c>
    929c:	e0855105 	add	r5, r5, r5, lsl #2
    92a0:	e0875085 	add	r5, r7, r5, lsl #1
    92a4:	e2455030 	sub	r5, r5, #48, 0	; 0x30
    92a8:	e2866001 	add	r6, r6, #1, 0
    92ac:	eafffff4 	b	9284 <va_printk+0x70>
    92b0:	e355001f 	cmp	r5, #31, 0
    92b4:	8a00001a 	bhi	9324 <va_printk+0x110>
    92b8:	e2477062 	sub	r7, r7, #98, 0	; 0x62
    92bc:	e3570016 	cmp	r7, #22, 0
    92c0:	979ff107 	ldrls	pc, [pc, r7, lsl #2]
    92c4:	ea0000d4 	b	961c <va_printk+0x408>
    92c8:	000095a0 	andeq	r9, r0, r0, lsr #11
    92cc:	000095e8 	andeq	r9, r0, r8, ror #11
    92d0:	00009500 	andeq	r9, r0, r0, lsl #10
    92d4:	0000961c 	andeq	r9, r0, ip, lsl r6
    92d8:	000094e8 	andeq	r9, r0, r8, ror #9
    92dc:	0000961c 	andeq	r9, r0, ip, lsl r6
    92e0:	0000961c 	andeq	r9, r0, ip, lsl r6
    92e4:	0000961c 	andeq	r9, r0, ip, lsl r6
    92e8:	0000961c 	andeq	r9, r0, ip, lsl r6
    92ec:	0000961c 	andeq	r9, r0, ip, lsl r6
    92f0:	00009344 	andeq	r9, r0, r4, asr #6
    92f4:	0000961c 	andeq	r9, r0, ip, lsl r6
    92f8:	0000961c 	andeq	r9, r0, ip, lsl r6
    92fc:	0000961c 	andeq	r9, r0, ip, lsl r6
    9300:	0000956c 	andeq	r9, r0, ip, ror #10
    9304:	0000961c 	andeq	r9, r0, ip, lsl r6
    9308:	0000961c 	andeq	r9, r0, ip, lsl r6
    930c:	000095d4 	ldrdeq	r9, [r0], -r4
    9310:	0000961c 	andeq	r9, r0, ip, lsl r6
    9314:	00009538 	andeq	r9, r0, r8, lsr r5
    9318:	0000961c 	andeq	r9, r0, ip, lsl r6
    931c:	0000961c 	andeq	r9, r0, ip, lsl r6
    9320:	0000956c 	andeq	r9, r0, ip, ror #10
    9324:	e59f3364 	ldr	r3, [pc, #868]	; 9690 <va_printk+0x47c>
    9328:	e58d3000 	str	r3, [sp]
    932c:	e3a03098 	mov	r3, #152, 0	; 0x98
    9330:	e59f235c 	ldr	r2, [pc, #860]	; 9694 <va_printk+0x480>
    9334:	e59f135c 	ldr	r1, [pc, #860]	; 9698 <va_printk+0x484>
    9338:	e59f035c 	ldr	r0, [pc, #860]	; 969c <va_printk+0x488>
    933c:	ebfffeef 	bl	8f00 <printk>
    9340:	eb0000e1 	bl	96cc <clean_reboot>
    9344:	e3a02003 	mov	r2, #3, 0
    9348:	e59f1350 	ldr	r1, [pc, #848]	; 96a0 <va_printk+0x48c>
    934c:	e1a00006 	mov	r0, r6
    9350:	eb0002d0 	bl	9e98 <strncmp>
    9354:	e3500000 	cmp	r0, #0, 0
    9358:	0a000005 	beq	9374 <va_printk+0x160>
    935c:	e3a02003 	mov	r2, #3, 0
    9360:	e59f133c 	ldr	r1, [pc, #828]	; 96a4 <va_printk+0x490>
    9364:	e1a00006 	mov	r0, r6
    9368:	eb0002ca 	bl	9e98 <strncmp>
    936c:	e3500000 	cmp	r0, #0, 0
    9370:	1a000033 	bne	9444 <va_printk+0x230>
    9374:	e286b002 	add	fp, r6, #2, 0
    9378:	e59d300c 	ldr	r3, [sp, #12]
    937c:	e2833007 	add	r3, r3, #7, 0
    9380:	e3c33007 	bic	r3, r3, #7, 0
    9384:	e2832008 	add	r2, r3, #8, 0
    9388:	e58d200c 	str	r2, [sp, #12]
    938c:	e593a000 	ldr	sl, [r3]
    9390:	e5937004 	ldr	r7, [r3, #4]
    9394:	e1a01007 	mov	r1, r7
    9398:	e59f0308 	ldr	r0, [pc, #776]	; 96a8 <va_printk+0x494>
    939c:	ebfffed7 	bl	8f00 <printk>
    93a0:	e1a0100a 	mov	r1, sl
    93a4:	e59f0300 	ldr	r0, [pc, #768]	; 96ac <va_printk+0x498>
    93a8:	ebfffed4 	bl	8f00 <printk>
    93ac:	e3a02003 	mov	r2, #3, 0
    93b0:	e59f12e8 	ldr	r1, [pc, #744]	; 96a0 <va_printk+0x48c>
    93b4:	e1a00006 	mov	r0, r6
    93b8:	eb0002b6 	bl	9e98 <strncmp>
    93bc:	e3500000 	cmp	r0, #0, 0
    93c0:	0a000027 	beq	9464 <va_printk+0x250>
    93c4:	e3a02003 	mov	r2, #3, 0
    93c8:	e59f12d4 	ldr	r1, [pc, #724]	; 96a4 <va_printk+0x490>
    93cc:	e1a00006 	mov	r0, r6
    93d0:	eb0002b0 	bl	9e98 <strncmp>
    93d4:	e3500000 	cmp	r0, #0, 0
    93d8:	1a00003b 	bne	94cc <va_printk+0x2b8>
    93dc:	e3a06000 	mov	r6, #0, 0
    93e0:	e58d6004 	str	r6, [sp, #4]
    93e4:	e58d5000 	str	r5, [sp]
    93e8:	e1a03007 	mov	r3, r7
    93ec:	e3a02080 	mov	r2, #128, 0	; 0x80
    93f0:	e28d1010 	add	r1, sp, #16, 0
    93f4:	e3a0000a 	mov	r0, #10, 0
    93f8:	ebfffeff 	bl	8ffc <emit>
    93fc:	e1a07000 	mov	r7, r0
    9400:	e58d6004 	str	r6, [sp, #4]
    9404:	e58d5000 	str	r5, [sp]
    9408:	e1a0300a 	mov	r3, sl
    940c:	e3a02080 	mov	r2, #128, 0	; 0x80
    9410:	e28d1090 	add	r1, sp, #144, 0	; 0x90
    9414:	e3a0000a 	mov	r0, #10, 0
    9418:	ebfffef7 	bl	8ffc <emit>
    941c:	e59f128c 	ldr	r1, [pc, #652]	; 96b0 <va_printk+0x49c>
    9420:	e28d0010 	add	r0, sp, #16, 0
    9424:	eb000288 	bl	9e4c <strcmp>
    9428:	e1500006 	cmp	r0, r6
    942c:	1a000021 	bne	94b8 <va_printk+0x2a4>
    9430:	e28d1090 	add	r1, sp, #144, 0	; 0x90
    9434:	e28d0010 	add	r0, sp, #16, 0
    9438:	eb00028e 	bl	9e78 <strcpy>
    943c:	e1a0600b 	mov	r6, fp
    9440:	ea00003a 	b	9530 <va_printk+0x31c>
    9444:	e59f3268 	ldr	r3, [pc, #616]	; 96b4 <va_printk+0x4a0>
    9448:	e58d3000 	str	r3, [sp]
    944c:	e3a0309f 	mov	r3, #159, 0	; 0x9f
    9450:	e59f223c 	ldr	r2, [pc, #572]	; 9694 <va_printk+0x480>
    9454:	e59f123c 	ldr	r1, [pc, #572]	; 9698 <va_printk+0x484>
    9458:	e59f023c 	ldr	r0, [pc, #572]	; 969c <va_printk+0x488>
    945c:	ebfffea7 	bl	8f00 <printk>
    9460:	eb000099 	bl	96cc <clean_reboot>
    9464:	e3a06000 	mov	r6, #0, 0
    9468:	e58d6004 	str	r6, [sp, #4]
    946c:	e58d5000 	str	r5, [sp]
    9470:	e1a03007 	mov	r3, r7
    9474:	e3a02080 	mov	r2, #128, 0	; 0x80
    9478:	e28d1010 	add	r1, sp, #16, 0
    947c:	e3a00010 	mov	r0, #16, 0
    9480:	ebfffedd 	bl	8ffc <emit>
    9484:	e1a07000 	mov	r7, r0
    9488:	e58d6004 	str	r6, [sp, #4]
    948c:	e58d5000 	str	r5, [sp]
    9490:	e1a0300a 	mov	r3, sl
    9494:	e3a02080 	mov	r2, #128, 0	; 0x80
    9498:	e28d1090 	add	r1, sp, #144, 0	; 0x90
    949c:	e3a00010 	mov	r0, #16, 0
    94a0:	ebfffed5 	bl	8ffc <emit>
    94a4:	e28d1092 	add	r1, sp, #146, 0	; 0x92
    94a8:	e28d0010 	add	r0, sp, #16, 0
    94ac:	eb000259 	bl	9e18 <strcat>
    94b0:	e1a0600b 	mov	r6, fp
    94b4:	ea00001d 	b	9530 <va_printk+0x31c>
    94b8:	e28d1090 	add	r1, sp, #144, 0	; 0x90
    94bc:	e28d0010 	add	r0, sp, #16, 0
    94c0:	eb000254 	bl	9e18 <strcat>
    94c4:	e1a0600b 	mov	r6, fp
    94c8:	ea000018 	b	9530 <va_printk+0x31c>
    94cc:	e58d6000 	str	r6, [sp]
    94d0:	e3a030b6 	mov	r3, #182, 0	; 0xb6
    94d4:	e59f21b8 	ldr	r2, [pc, #440]	; 9694 <va_printk+0x480>
    94d8:	e59f11b8 	ldr	r1, [pc, #440]	; 9698 <va_printk+0x484>
    94dc:	e59f01d4 	ldr	r0, [pc, #468]	; 96b8 <va_printk+0x4a4>
    94e0:	ebfffe86 	bl	8f00 <printk>
    94e4:	eb000078 	bl	96cc <clean_reboot>
    94e8:	e3a030be 	mov	r3, #190, 0	; 0xbe
    94ec:	e59f21a0 	ldr	r2, [pc, #416]	; 9694 <va_printk+0x480>
    94f0:	e59f11a0 	ldr	r1, [pc, #416]	; 9698 <va_printk+0x484>
    94f4:	e59f01c0 	ldr	r0, [pc, #448]	; 96bc <va_printk+0x4a8>
    94f8:	ebfffe80 	bl	8f00 <printk>
    94fc:	eb000072 	bl	96cc <clean_reboot>
    9500:	e59d300c 	ldr	r3, [sp, #12]
    9504:	e2832004 	add	r2, r3, #4, 0
    9508:	e58d200c 	str	r2, [sp, #12]
    950c:	e5933000 	ldr	r3, [r3]
    9510:	e3a02001 	mov	r2, #1, 0
    9514:	e58d2004 	str	r2, [sp, #4]
    9518:	e58d5000 	str	r5, [sp]
    951c:	e3a02080 	mov	r2, #128, 0	; 0x80
    9520:	e28d1010 	add	r1, sp, #16, 0
    9524:	e3a0000a 	mov	r0, #10, 0
    9528:	ebfffeb3 	bl	8ffc <emit>
    952c:	e1a07000 	mov	r7, r0
    9530:	e2866001 	add	r6, r6, #1, 0
    9534:	ea00004a 	b	9664 <va_printk+0x450>
    9538:	e59d300c 	ldr	r3, [sp, #12]
    953c:	e2832004 	add	r2, r3, #4, 0
    9540:	e58d200c 	str	r2, [sp, #12]
    9544:	e5933000 	ldr	r3, [r3]
    9548:	e3a02000 	mov	r2, #0, 0
    954c:	e58d2004 	str	r2, [sp, #4]
    9550:	e58d5000 	str	r5, [sp]
    9554:	e3a02080 	mov	r2, #128, 0	; 0x80
    9558:	e28d1010 	add	r1, sp, #16, 0
    955c:	e3a0000a 	mov	r0, #10, 0
    9560:	ebfffea5 	bl	8ffc <emit>
    9564:	e1a07000 	mov	r7, r0
    9568:	eafffff0 	b	9530 <va_printk+0x31c>
    956c:	e59d300c 	ldr	r3, [sp, #12]
    9570:	e2832004 	add	r2, r3, #4, 0
    9574:	e58d200c 	str	r2, [sp, #12]
    9578:	e5933000 	ldr	r3, [r3]
    957c:	e3a02000 	mov	r2, #0, 0
    9580:	e58d2004 	str	r2, [sp, #4]
    9584:	e58d5000 	str	r5, [sp]
    9588:	e3a02080 	mov	r2, #128, 0	; 0x80
    958c:	e28d1010 	add	r1, sp, #16, 0
    9590:	e3a00010 	mov	r0, #16, 0
    9594:	ebfffe98 	bl	8ffc <emit>
    9598:	e1a07000 	mov	r7, r0
    959c:	eaffffe3 	b	9530 <va_printk+0x31c>
    95a0:	e59d300c 	ldr	r3, [sp, #12]
    95a4:	e2832004 	add	r2, r3, #4, 0
    95a8:	e58d200c 	str	r2, [sp, #12]
    95ac:	e5933000 	ldr	r3, [r3]
    95b0:	e3a02000 	mov	r2, #0, 0
    95b4:	e58d2004 	str	r2, [sp, #4]
    95b8:	e58d5000 	str	r5, [sp]
    95bc:	e3a02080 	mov	r2, #128, 0	; 0x80
    95c0:	e28d1010 	add	r1, sp, #16, 0
    95c4:	e3a00002 	mov	r0, #2, 0
    95c8:	ebfffe8b 	bl	8ffc <emit>
    95cc:	e1a07000 	mov	r7, r0
    95d0:	eaffffd6 	b	9530 <va_printk+0x31c>
    95d4:	e59d300c 	ldr	r3, [sp, #12]
    95d8:	e2832004 	add	r2, r3, #4, 0
    95dc:	e58d200c 	str	r2, [sp, #12]
    95e0:	e5937000 	ldr	r7, [r3]
    95e4:	eaffffd1 	b	9530 <va_printk+0x31c>
    95e8:	e59d300c 	ldr	r3, [sp, #12]
    95ec:	e2832004 	add	r2, r3, #4, 0
    95f0:	e58d200c 	str	r2, [sp, #12]
    95f4:	e5933000 	ldr	r3, [r3]
    95f8:	e3a02000 	mov	r2, #0, 0
    95fc:	e58d2004 	str	r2, [sp, #4]
    9600:	e58d5000 	str	r5, [sp]
    9604:	e3a02080 	mov	r2, #128, 0	; 0x80
    9608:	e28d1010 	add	r1, sp, #16, 0
    960c:	e3a00008 	mov	r0, #8, 0
    9610:	ebfffe79 	bl	8ffc <emit>
    9614:	e1a07000 	mov	r7, r0
    9618:	eaffffc4 	b	9530 <va_printk+0x31c>
    961c:	e3a03000 	mov	r3, #0, 0
    9620:	e5c63001 	strb	r3, [r6, #1]
    9624:	e1a0200a 	mov	r2, sl
    9628:	e1a0100a 	mov	r1, sl
    962c:	e59f008c 	ldr	r0, [pc, #140]	; 96c0 <va_printk+0x4ac>
    9630:	ebfffe32 	bl	8f00 <printk>
    9634:	e59f3088 	ldr	r3, [pc, #136]	; 96c4 <va_printk+0x4b0>
    9638:	e5933000 	ldr	r3, [r3]
    963c:	e59d0008 	ldr	r0, [sp, #8]
    9640:	e12fff33 	blx	r3
    9644:	e3a030e2 	mov	r3, #226, 0	; 0xe2
    9648:	e59f2044 	ldr	r2, [pc, #68]	; 9694 <va_printk+0x480>
    964c:	e59f1044 	ldr	r1, [pc, #68]	; 9698 <va_printk+0x484>
    9650:	e59f0070 	ldr	r0, [pc, #112]	; 96c8 <va_printk+0x4b4>
    9654:	ebfffe29 	bl	8f00 <printk>
    9658:	eb00001b 	bl	96cc <clean_reboot>
    965c:	e2877001 	add	r7, r7, #1, 0
    9660:	e4c43001 	strb	r3, [r4], #1
    9664:	e1540008 	cmp	r4, r8
    9668:	2afffef7 	bcs	924c <va_printk+0x38>
    966c:	e5d73000 	ldrb	r3, [r7]
    9670:	e3530000 	cmp	r3, #0, 0
    9674:	1afffff8 	bne	965c <va_printk+0x448>
    9678:	eafffef3 	b	924c <va_printk+0x38>
    967c:	e3a03000 	mov	r3, #0, 0
    9680:	e4c43001 	strb	r3, [r4], #1
    9684:	e0440009 	sub	r0, r4, r9
    9688:	e28ddf45 	add	sp, sp, #276	; 0x114
    968c:	e8bd8ff0 	pop	{r4, r5, r6, r7, r8, r9, sl, fp, pc}
    9690:	0000a734 	andeq	sl, r0, r4, lsr r7
    9694:	0000a84c 	andeq	sl, r0, ip, asr #16
    9698:	0000a6f4 	strdeq	sl, [r0], -r4
    969c:	0000a11c 	andeq	sl, r0, ip, lsl r1
    96a0:	0000a740 	andeq	sl, r0, r0, asr #14
    96a4:	0000a744 	andeq	sl, r0, r4, asr #14
    96a8:	0000a748 	andeq	sl, r0, r8, asr #14
    96ac:	0000a750 	andeq	sl, r0, r0, asr r7
    96b0:	0000a5c8 	andeq	sl, r0, r8, asr #11
    96b4:	0000a758 	andeq	sl, r0, r8, asr r7
    96b8:	0000a794 	muleq	r0, r4, r7
    96bc:	0000a7bc 			; <UNDEFINED> instruction: 0x0000a7bc
    96c0:	0000a7e4 	andeq	sl, r0, r4, ror #15
    96c4:	0000aa64 	andeq	sl, r0, r4, ror #20
    96c8:	0000a814 	andeq	sl, r0, r4, lsl r8

000096cc <clean_reboot>:
    96cc:	e92d4010 	push	{r4, lr}
    96d0:	e59f3018 	ldr	r3, [pc, #24]	; 96f0 <clean_reboot+0x24>
    96d4:	e5933000 	ldr	r3, [r3]
    96d8:	e59f0014 	ldr	r0, [pc, #20]	; 96f4 <clean_reboot+0x28>
    96dc:	e12fff33 	blx	r3
    96e0:	eb0000c3 	bl	99f4 <uart_flush_tx>
    96e4:	e3a0000a 	mov	r0, #10, 0
    96e8:	eb000047 	bl	980c <delay_ms>
    96ec:	eb00001c 	bl	9764 <rpi_reboot>
    96f0:	0000aa64 	andeq	sl, r0, r4, ror #20
    96f4:	0000a858 	andeq	sl, r0, r8, asr r8

000096f8 <_cstart>:
    96f8:	e92d4010 	push	{r4, lr}
    96fc:	eb00000c 	bl	9734 <custom_loader>
    9700:	e59f3024 	ldr	r3, [pc, #36]	; 972c <_cstart+0x34>
    9704:	e59f2024 	ldr	r2, [pc, #36]	; 9730 <_cstart+0x38>
    9708:	e1530002 	cmp	r3, r2
    970c:	33a02000 	movcc	r2, #0, 0
    9710:	34832004 	strcc	r2, [r3], #4
    9714:	3afffffa 	bcc	9704 <_cstart+0xc>
    9718:	eb000057 	bl	987c <uart_init>
    971c:	e3a03001 	mov	r3, #1, 0
    9720:	ee0f3f1c 	mcr	15, 0, r3, cr15, cr12, {0}
    9724:	ebfffa5d 	bl	80a0 <notmain>
    9728:	ebffffe7 	bl	96cc <clean_reboot>
    972c:	0000aa78 	andeq	sl, r0, r8, ror sl
    9730:	0000aea8 	andeq	sl, r0, r8, lsr #29

00009734 <custom_loader>:
    9734:	e12fff1e 	bx	lr

00009738 <at_user_level>:
    9738:	e10f0000 	mrs	r0, CPSR
    973c:	e200001f 	and	r0, r0, #31, 0
    9740:	e3500010 	cmp	r0, #16, 0
    9744:	13a00000 	movne	r0, #0, 0
    9748:	03a00001 	moveq	r0, #1, 0
    974c:	e12fff1e 	bx	lr

00009750 <set_user_level>:
    9750:	e10f3000 	mrs	r3, CPSR
    9754:	e3c3301f 	bic	r3, r3, #31, 0
    9758:	e3833010 	orr	r3, r3, #16, 0
    975c:	e129f003 	msr	CPSR_fc, r3
    9760:	e12fff1e 	bx	lr

00009764 <rpi_reboot>:
    9764:	e92d4010 	push	{r4, lr}
    9768:	ebfffff2 	bl	9738 <at_user_level>
    976c:	e3500000 	cmp	r0, #0, 0
    9770:	1a00000a 	bne	97a0 <rpi_reboot+0x3c>
    9774:	eb0001d2 	bl	9ec4 <reboot_callout>
    9778:	eb00009d 	bl	99f4 <uart_flush_tx>
    977c:	e3a0000a 	mov	r0, #10, 0
    9780:	eb000021 	bl	980c <delay_ms>
    9784:	e59f101c 	ldr	r1, [pc, #28]	; 97a8 <rpi_reboot+0x44>
    9788:	e59f001c 	ldr	r0, [pc, #28]	; 97ac <rpi_reboot+0x48>
    978c:	ebfffa24 	bl	8024 <PUT32>
    9790:	e59f1018 	ldr	r1, [pc, #24]	; 97b0 <rpi_reboot+0x4c>
    9794:	e59f0018 	ldr	r0, [pc, #24]	; 97b4 <rpi_reboot+0x50>
    9798:	ebfffa21 	bl	8024 <PUT32>
    979c:	eafffffe 	b	979c <rpi_reboot+0x38>
    97a0:	ebffffea 	bl	9750 <set_user_level>
    97a4:	eafffff2 	b	9774 <rpi_reboot+0x10>
    97a8:	5a000001 	bpl	97b4 <rpi_reboot+0x50>
    97ac:	20100024 	andscs	r0, r0, r4, lsr #32
    97b0:	5a000020 	bpl	9838 <delay_sec+0x14>
    97b4:	2010001c 	andscs	r0, r0, ip, lsl r0

000097b8 <timer_get_usec_raw>:
    97b8:	e92d4010 	push	{r4, lr}
    97bc:	e59f0004 	ldr	r0, [pc, #4]	; 97c8 <timer_get_usec_raw+0x10>
    97c0:	ebfffa19 	bl	802c <GET32>
    97c4:	e8bd8010 	pop	{r4, pc}
    97c8:	20003004 	andcs	r3, r0, r4

000097cc <timer_get_usec>:
    97cc:	e92d4010 	push	{r4, lr}
    97d0:	eb0001bc 	bl	9ec8 <dev_barrier>
    97d4:	ebfffff7 	bl	97b8 <timer_get_usec_raw>
    97d8:	e1a04000 	mov	r4, r0
    97dc:	eb0001b9 	bl	9ec8 <dev_barrier>
    97e0:	e1a00004 	mov	r0, r4
    97e4:	e8bd8010 	pop	{r4, pc}

000097e8 <delay_us>:
    97e8:	e92d4070 	push	{r4, r5, r6, lr}
    97ec:	e1a05000 	mov	r5, r0
    97f0:	ebfffff5 	bl	97cc <timer_get_usec>
    97f4:	e1a04000 	mov	r4, r0
    97f8:	ebfffff3 	bl	97cc <timer_get_usec>
    97fc:	e0400004 	sub	r0, r0, r4
    9800:	e1500005 	cmp	r0, r5
    9804:	3afffffb 	bcc	97f8 <delay_us+0x10>
    9808:	e8bd8070 	pop	{r4, r5, r6, pc}

0000980c <delay_ms>:
    980c:	e92d4010 	push	{r4, lr}
    9810:	e0603280 	rsb	r3, r0, r0, lsl #5
    9814:	e0800103 	add	r0, r0, r3, lsl #2
    9818:	e1a00180 	lsl	r0, r0, #3
    981c:	ebfffff1 	bl	97e8 <delay_us>
    9820:	e8bd8010 	pop	{r4, pc}

00009824 <delay_sec>:
    9824:	e92d4010 	push	{r4, lr}
    9828:	e0603280 	rsb	r3, r0, r0, lsl #5
    982c:	e0800103 	add	r0, r0, r3, lsl #2
    9830:	e1a00180 	lsl	r0, r0, #3
    9834:	ebfffff4 	bl	980c <delay_ms>
    9838:	e8bd8010 	pop	{r4, pc}

0000983c <and_in32>:
    983c:	e92d4070 	push	{r4, r5, r6, lr}
    9840:	e1a04000 	mov	r4, r0
    9844:	e1a05001 	mov	r5, r1
    9848:	ebfff9f7 	bl	802c <GET32>
    984c:	e0001005 	and	r1, r0, r5
    9850:	e1a00004 	mov	r0, r4
    9854:	ebfff9f2 	bl	8024 <PUT32>
    9858:	e8bd8070 	pop	{r4, r5, r6, pc}

0000985c <or_in32>:
    985c:	e92d4070 	push	{r4, r5, r6, lr}
    9860:	e1a04000 	mov	r4, r0
    9864:	e1a05001 	mov	r5, r1
    9868:	ebfff9ef 	bl	802c <GET32>
    986c:	e1801005 	orr	r1, r0, r5
    9870:	e1a00004 	mov	r0, r4
    9874:	ebfff9ea 	bl	8024 <PUT32>
    9878:	e8bd8070 	pop	{r4, r5, r6, pc}

0000987c <uart_init>:
    987c:	e92d4010 	push	{r4, lr}
    9880:	e3a01002 	mov	r1, #2, 0
    9884:	e3a0000e 	mov	r0, #14, 0
    9888:	eb000194 	bl	9ee0 <gpio_set_function>
    988c:	e3a01002 	mov	r1, #2, 0
    9890:	e3a0000f 	mov	r0, #15, 0
    9894:	eb000191 	bl	9ee0 <gpio_set_function>
    9898:	eb00018a 	bl	9ec8 <dev_barrier>
    989c:	e3a01001 	mov	r1, #1, 0
    98a0:	e59f0064 	ldr	r0, [pc, #100]	; 990c <uart_init+0x90>
    98a4:	ebffffec 	bl	985c <or_in32>
    98a8:	eb000186 	bl	9ec8 <dev_barrier>
    98ac:	e59f405c 	ldr	r4, [pc, #92]	; 9910 <uart_init+0x94>
    98b0:	e3a01000 	mov	r1, #0, 0
    98b4:	e1a00004 	mov	r0, r4
    98b8:	ebfff9d9 	bl	8024 <PUT32>
    98bc:	e3a01000 	mov	r1, #0, 0
    98c0:	e59f004c 	ldr	r0, [pc, #76]	; 9914 <uart_init+0x98>
    98c4:	ebfff9d6 	bl	8024 <PUT32>
    98c8:	e3a01003 	mov	r1, #3, 0
    98cc:	e59f0044 	ldr	r0, [pc, #68]	; 9918 <uart_init+0x9c>
    98d0:	ebfff9d3 	bl	8024 <PUT32>
    98d4:	e3a01000 	mov	r1, #0, 0
    98d8:	e59f003c 	ldr	r0, [pc, #60]	; 991c <uart_init+0xa0>
    98dc:	ebfff9d0 	bl	8024 <PUT32>
    98e0:	e3a010c7 	mov	r1, #199, 0	; 0xc7
    98e4:	e59f0034 	ldr	r0, [pc, #52]	; 9920 <uart_init+0xa4>
    98e8:	ebfff9cd 	bl	8024 <PUT32>
    98ec:	e59f1030 	ldr	r1, [pc, #48]	; 9924 <uart_init+0xa8>
    98f0:	e59f0030 	ldr	r0, [pc, #48]	; 9928 <uart_init+0xac>
    98f4:	ebfff9ca 	bl	8024 <PUT32>
    98f8:	e3a01003 	mov	r1, #3, 0
    98fc:	e1a00004 	mov	r0, r4
    9900:	ebfff9c7 	bl	8024 <PUT32>
    9904:	eb00016f 	bl	9ec8 <dev_barrier>
    9908:	e8bd8010 	pop	{r4, pc}
    990c:	20215004 	eorcs	r5, r1, r4
    9910:	20215060 	eorcs	r5, r1, r0, rrx
    9914:	20215044 	eorcs	r5, r1, r4, asr #32
    9918:	2021504c 	eorcs	r5, r1, ip, asr #32
    991c:	20215050 	eorcs	r5, r1, r0, asr r0
    9920:	20215048 	eorcs	r5, r1, r8, asr #32
    9924:	0000010e 	andeq	r0, r0, lr, lsl #2
    9928:	20215068 	eorcs	r5, r1, r8, rrx

0000992c <uart_can_getc>:
    992c:	e92d4010 	push	{r4, lr}
    9930:	e59f0008 	ldr	r0, [pc, #8]	; 9940 <uart_can_getc+0x14>
    9934:	ebfff9bc 	bl	802c <GET32>
    9938:	e2000001 	and	r0, r0, #1, 0
    993c:	e8bd8010 	pop	{r4, pc}
    9940:	20215064 	eorcs	r5, r1, r4, rrx

00009944 <uart_can_putc>:
    9944:	e92d4010 	push	{r4, lr}
    9948:	e59f0010 	ldr	r0, [pc, #16]	; 9960 <uart_can_putc+0x1c>
    994c:	ebfff9b6 	bl	802c <GET32>
    9950:	e3100002 	tst	r0, #2, 0
    9954:	13a00001 	movne	r0, #1, 0
    9958:	03a00000 	moveq	r0, #0, 0
    995c:	e8bd8010 	pop	{r4, pc}
    9960:	20215064 	eorcs	r5, r1, r4, rrx

00009964 <uart_getc>:
    9964:	e92d4010 	push	{r4, lr}
    9968:	eb000156 	bl	9ec8 <dev_barrier>
    996c:	ebffffee 	bl	992c <uart_can_getc>
    9970:	e3500000 	cmp	r0, #0, 0
    9974:	0afffffc 	beq	996c <uart_getc+0x8>
    9978:	e59f0010 	ldr	r0, [pc, #16]	; 9990 <uart_getc+0x2c>
    997c:	ebfff9aa 	bl	802c <GET32>
    9980:	e6ef4070 	uxtb	r4, r0
    9984:	eb00014f 	bl	9ec8 <dev_barrier>
    9988:	e1a00004 	mov	r0, r4
    998c:	e8bd8010 	pop	{r4, pc}
    9990:	20215040 	eorcs	r5, r1, r0, asr #32

00009994 <uart_putc>:
    9994:	e92d4010 	push	{r4, lr}
    9998:	e1a04000 	mov	r4, r0
    999c:	eb000149 	bl	9ec8 <dev_barrier>
    99a0:	ebffffe7 	bl	9944 <uart_can_putc>
    99a4:	e3500000 	cmp	r0, #0, 0
    99a8:	0afffffc 	beq	99a0 <uart_putc+0xc>
    99ac:	e6ef1074 	uxtb	r1, r4
    99b0:	e59f0008 	ldr	r0, [pc, #8]	; 99c0 <uart_putc+0x2c>
    99b4:	ebfff99a 	bl	8024 <PUT32>
    99b8:	eb000142 	bl	9ec8 <dev_barrier>
    99bc:	e8bd8010 	pop	{r4, pc}
    99c0:	20215040 	eorcs	r5, r1, r0, asr #32

000099c4 <uart_has_data>:
    99c4:	e92d4010 	push	{r4, lr}
    99c8:	eb00013e 	bl	9ec8 <dev_barrier>
    99cc:	ebffffd6 	bl	992c <uart_can_getc>
    99d0:	e8bd8010 	pop	{r4, pc}

000099d4 <uart_tx_is_empty>:
    99d4:	e92d4010 	push	{r4, lr}
    99d8:	eb00013a 	bl	9ec8 <dev_barrier>
    99dc:	e59f000c 	ldr	r0, [pc, #12]	; 99f0 <uart_tx_is_empty+0x1c>
    99e0:	ebfff991 	bl	802c <GET32>
    99e4:	e1a004a0 	lsr	r0, r0, #9
    99e8:	e2000001 	and	r0, r0, #1, 0
    99ec:	e8bd8010 	pop	{r4, pc}
    99f0:	20215064 	eorcs	r5, r1, r4, rrx

000099f4 <uart_flush_tx>:
    99f4:	e92d4010 	push	{r4, lr}
    99f8:	ebfffff5 	bl	99d4 <uart_tx_is_empty>
    99fc:	e3500000 	cmp	r0, #0, 0
    9a00:	0afffffc 	beq	99f8 <uart_flush_tx+0x4>
    9a04:	e8bd8010 	pop	{r4, pc}

00009a08 <uart_disable>:
    9a08:	e92d4010 	push	{r4, lr}
    9a0c:	ebfffff8 	bl	99f4 <uart_flush_tx>
    9a10:	eb00012c 	bl	9ec8 <dev_barrier>
    9a14:	e3e01001 	mvn	r1, #1, 0
    9a18:	e59f0008 	ldr	r0, [pc, #8]	; 9a28 <uart_disable+0x20>
    9a1c:	ebffff86 	bl	983c <and_in32>
    9a20:	eb000128 	bl	9ec8 <dev_barrier>
    9a24:	e8bd8010 	pop	{r4, pc}
    9a28:	20215004 	eorcs	r5, r1, r4

00009a2c <kmalloc_heap_end>:
    9a2c:	e59f3004 	ldr	r3, [pc, #4]	; 9a38 <kmalloc_heap_end+0xc>
    9a30:	e5930000 	ldr	r0, [r3]
    9a34:	e12fff1e 	bx	lr
    9a38:	0000aa68 	andeq	sl, r0, r8, ror #20

00009a3c <kmalloc_heap_start>:
    9a3c:	e59f3004 	ldr	r3, [pc, #4]	; 9a48 <kmalloc_heap_start+0xc>
    9a40:	e5930004 	ldr	r0, [r3, #4]
    9a44:	e12fff1e 	bx	lr
    9a48:	0000aa68 	andeq	sl, r0, r8, ror #20

00009a4c <kmalloc_heap_ptr>:
    9a4c:	e59f3004 	ldr	r3, [pc, #4]	; 9a58 <kmalloc_heap_ptr+0xc>
    9a50:	e5930008 	ldr	r0, [r3, #8]
    9a54:	e12fff1e 	bx	lr
    9a58:	0000aa68 	andeq	sl, r0, r8, ror #20

00009a5c <kmalloc_init_set_start>:
    9a5c:	e52de004 	push	{lr}		; (str lr, [sp, #-4]!)
    9a60:	e24dd00c 	sub	sp, sp, #12, 0
    9a64:	e3510000 	cmp	r1, #0, 0
    9a68:	0a00000a 	beq	9a98 <kmalloc_init_set_start+0x3c>
    9a6c:	e59f306c 	ldr	r3, [pc, #108]	; 9ae0 <kmalloc_init_set_start+0x84>
    9a70:	e5933008 	ldr	r3, [r3, #8]
    9a74:	e1530000 	cmp	r3, r0
    9a78:	8a00000e 	bhi	9ab8 <kmalloc_init_set_start+0x5c>
    9a7c:	e59f305c 	ldr	r3, [pc, #92]	; 9ae0 <kmalloc_init_set_start+0x84>
    9a80:	e5830008 	str	r0, [r3, #8]
    9a84:	e5830004 	str	r0, [r3, #4]
    9a88:	e0800001 	add	r0, r0, r1
    9a8c:	e5830000 	str	r0, [r3]
    9a90:	e28dd00c 	add	sp, sp, #12, 0
    9a94:	e49df004 	pop	{pc}		; (ldr pc, [sp], #4)
    9a98:	e59f3044 	ldr	r3, [pc, #68]	; 9ae4 <kmalloc_init_set_start+0x88>
    9a9c:	e58d3000 	str	r3, [sp]
    9aa0:	e3a03030 	mov	r3, #48, 0	; 0x30
    9aa4:	e59f203c 	ldr	r2, [pc, #60]	; 9ae8 <kmalloc_init_set_start+0x8c>
    9aa8:	e59f103c 	ldr	r1, [pc, #60]	; 9aec <kmalloc_init_set_start+0x90>
    9aac:	e59f003c 	ldr	r0, [pc, #60]	; 9af0 <kmalloc_init_set_start+0x94>
    9ab0:	ebfffd12 	bl	8f00 <printk>
    9ab4:	ebffff04 	bl	96cc <clean_reboot>
    9ab8:	e59f3020 	ldr	r3, [pc, #32]	; 9ae0 <kmalloc_init_set_start+0x84>
    9abc:	e5933000 	ldr	r3, [r3]
    9ac0:	e58d3004 	str	r3, [sp, #4]
    9ac4:	e58d0000 	str	r0, [sp]
    9ac8:	e3a03034 	mov	r3, #52, 0	; 0x34
    9acc:	e59f2014 	ldr	r2, [pc, #20]	; 9ae8 <kmalloc_init_set_start+0x8c>
    9ad0:	e59f1014 	ldr	r1, [pc, #20]	; 9aec <kmalloc_init_set_start+0x90>
    9ad4:	e59f0018 	ldr	r0, [pc, #24]	; 9af4 <kmalloc_init_set_start+0x98>
    9ad8:	ebfffd08 	bl	8f00 <printk>
    9adc:	ebfffefa 	bl	96cc <clean_reboot>
    9ae0:	0000aa68 	andeq	sl, r0, r8, ror #20
    9ae4:	0000a870 	andeq	sl, r0, r0, ror r8
    9ae8:	0000a9fc 	strdeq	sl, [r0], -ip
    9aec:	0000a864 	andeq	sl, r0, r4, ror #16
    9af0:	0000a11c 	andeq	sl, r0, ip, lsl r1
    9af4:	0000a87c 	andeq	sl, r0, ip, ror r8

00009af8 <kmalloc_init>:
    9af8:	e92d4010 	push	{r4, lr}
    9afc:	e59f303c 	ldr	r3, [pc, #60]	; 9b40 <kmalloc_init+0x48>
    9b00:	e5933000 	ldr	r3, [r3]
    9b04:	e3530000 	cmp	r3, #0, 0
    9b08:	1a000006 	bne	9b28 <kmalloc_init+0x30>
    9b0c:	e59f302c 	ldr	r3, [pc, #44]	; 9b40 <kmalloc_init+0x48>
    9b10:	e3a02001 	mov	r2, #1, 0
    9b14:	e5832000 	str	r2, [r3]
    9b18:	e3a01201 	mov	r1, #268435456	; 0x10000000
    9b1c:	e3a00601 	mov	r0, #1048576	; 0x100000
    9b20:	ebffffcd 	bl	9a5c <kmalloc_init_set_start>
    9b24:	e8bd8010 	pop	{r4, pc}
    9b28:	e3a03040 	mov	r3, #64, 0	; 0x40
    9b2c:	e59f2010 	ldr	r2, [pc, #16]	; 9b44 <kmalloc_init+0x4c>
    9b30:	e59f1010 	ldr	r1, [pc, #16]	; 9b48 <kmalloc_init+0x50>
    9b34:	e59f0010 	ldr	r0, [pc, #16]	; 9b4c <kmalloc_init+0x54>
    9b38:	ebfffcf0 	bl	8f00 <printk>
    9b3c:	ebfffee2 	bl	96cc <clean_reboot>
    9b40:	0000aea0 	andeq	sl, r0, r0, lsr #29
    9b44:	0000aa14 	andeq	sl, r0, r4, lsl sl
    9b48:	0000a864 	andeq	sl, r0, r4, ror #16
    9b4c:	0000a8c0 	andeq	sl, r0, r0, asr #17

00009b50 <kmalloc_notzero>:
    9b50:	e52de004 	push	{lr}		; (str lr, [sp, #-4]!)
    9b54:	e24dd00c 	sub	sp, sp, #12, 0
    9b58:	e3500000 	cmp	r0, #0, 0
    9b5c:	0a00000a 	beq	9b8c <kmalloc_notzero+0x3c>
    9b60:	e2800007 	add	r0, r0, #7, 0
    9b64:	e3c03007 	bic	r3, r0, #7, 0
    9b68:	e59f2060 	ldr	r2, [pc, #96]	; 9bd0 <kmalloc_notzero+0x80>
    9b6c:	e5920008 	ldr	r0, [r2, #8]
    9b70:	e0801003 	add	r1, r0, r3
    9b74:	e5821008 	str	r1, [r2, #8]
    9b78:	e5922000 	ldr	r2, [r2]
    9b7c:	e1510002 	cmp	r1, r2
    9b80:	8a000009 	bhi	9bac <kmalloc_notzero+0x5c>
    9b84:	e28dd00c 	add	sp, sp, #12, 0
    9b88:	e49df004 	pop	{pc}		; (ldr pc, [sp], #4)
    9b8c:	e59f3040 	ldr	r3, [pc, #64]	; 9bd4 <kmalloc_notzero+0x84>
    9b90:	e58d3000 	str	r3, [sp]
    9b94:	e3a03048 	mov	r3, #72, 0	; 0x48
    9b98:	e59f2038 	ldr	r2, [pc, #56]	; 9bd8 <kmalloc_notzero+0x88>
    9b9c:	e59f1038 	ldr	r1, [pc, #56]	; 9bdc <kmalloc_notzero+0x8c>
    9ba0:	e59f0038 	ldr	r0, [pc, #56]	; 9be0 <kmalloc_notzero+0x90>
    9ba4:	ebfffcd5 	bl	8f00 <printk>
    9ba8:	ebfffec7 	bl	96cc <clean_reboot>
    9bac:	e0422000 	sub	r2, r2, r0
    9bb0:	e58d2004 	str	r2, [sp, #4]
    9bb4:	e58d3000 	str	r3, [sp]
    9bb8:	e3a0304e 	mov	r3, #78, 0	; 0x4e
    9bbc:	e59f2014 	ldr	r2, [pc, #20]	; 9bd8 <kmalloc_notzero+0x88>
    9bc0:	e59f1014 	ldr	r1, [pc, #20]	; 9bdc <kmalloc_notzero+0x8c>
    9bc4:	e59f0018 	ldr	r0, [pc, #24]	; 9be4 <kmalloc_notzero+0x94>
    9bc8:	ebfffccc 	bl	8f00 <printk>
    9bcc:	ebfffebe 	bl	96cc <clean_reboot>
    9bd0:	0000aa68 	andeq	sl, r0, r8, ror #20
    9bd4:	0000a874 	andeq	sl, r0, r4, ror r8
    9bd8:	0000aa24 	andeq	sl, r0, r4, lsr #20
    9bdc:	0000a864 	andeq	sl, r0, r4, ror #16
    9be0:	0000a11c 	andeq	sl, r0, ip, lsl r1
    9be4:	0000a8f0 	strdeq	sl, [r0], -r0

00009be8 <kmalloc>:
    9be8:	e92d4030 	push	{r4, r5, lr}
    9bec:	e24dd00c 	sub	sp, sp, #12, 0
    9bf0:	e2504000 	subs	r4, r0, #0, 0
    9bf4:	0a000008 	beq	9c1c <kmalloc+0x34>
    9bf8:	e1a00004 	mov	r0, r4
    9bfc:	ebffffd3 	bl	9b50 <kmalloc_notzero>
    9c00:	e1a05000 	mov	r5, r0
    9c04:	e1a02004 	mov	r2, r4
    9c08:	e3a01000 	mov	r1, #0, 0
    9c0c:	ebfffcb5 	bl	8ee8 <memset>
    9c10:	e1a00005 	mov	r0, r5
    9c14:	e28dd00c 	add	sp, sp, #12, 0
    9c18:	e8bd8030 	pop	{r4, r5, pc}
    9c1c:	e59f3018 	ldr	r3, [pc, #24]	; 9c3c <kmalloc+0x54>
    9c20:	e58d3000 	str	r3, [sp]
    9c24:	e3a03054 	mov	r3, #84, 0	; 0x54
    9c28:	e59f2010 	ldr	r2, [pc, #16]	; 9c40 <kmalloc+0x58>
    9c2c:	e59f1010 	ldr	r1, [pc, #16]	; 9c44 <kmalloc+0x5c>
    9c30:	e59f0010 	ldr	r0, [pc, #16]	; 9c48 <kmalloc+0x60>
    9c34:	ebfffcb1 	bl	8f00 <printk>
    9c38:	ebfffea3 	bl	96cc <clean_reboot>
    9c3c:	0000a874 	andeq	sl, r0, r4, ror r8
    9c40:	0000aa34 	andeq	sl, r0, r4, lsr sl
    9c44:	0000a864 	andeq	sl, r0, r4, ror #16
    9c48:	0000a11c 	andeq	sl, r0, ip, lsl r1

00009c4c <kmalloc_aligned>:
    9c4c:	e52de004 	push	{lr}		; (str lr, [sp, #-4]!)
    9c50:	e24dd00c 	sub	sp, sp, #12, 0
    9c54:	e3500000 	cmp	r0, #0, 0
    9c58:	0a000014 	beq	9cb0 <kmalloc_aligned+0x64>
    9c5c:	e2613000 	rsb	r3, r1, #0, 0
    9c60:	e1d13003 	bics	r3, r1, r3
    9c64:	1a000019 	bne	9cd0 <kmalloc_aligned+0x84>
    9c68:	e3510008 	cmp	r1, #8, 0
    9c6c:	33a01008 	movcc	r1, #8, 0
    9c70:	e59f30c0 	ldr	r3, [pc, #192]	; 9d38 <kmalloc_aligned+0xec>
    9c74:	e5932008 	ldr	r2, [r3, #8]
    9c78:	e2613000 	rsb	r3, r1, #0, 0
    9c7c:	e1d1c003 	bics	ip, r1, r3
    9c80:	1a00001b 	bne	9cf4 <kmalloc_aligned+0xa8>
    9c84:	e0822001 	add	r2, r2, r1
    9c88:	e2422001 	sub	r2, r2, #1, 0
    9c8c:	e0033002 	and	r3, r3, r2
    9c90:	e2411001 	sub	r1, r1, #1, 0
    9c94:	e1110003 	tst	r1, r3
    9c98:	1a00001d 	bne	9d14 <kmalloc_aligned+0xc8>
    9c9c:	e59f2094 	ldr	r2, [pc, #148]	; 9d38 <kmalloc_aligned+0xec>
    9ca0:	e5823008 	str	r3, [r2, #8]
    9ca4:	ebffffcf 	bl	9be8 <kmalloc>
    9ca8:	e28dd00c 	add	sp, sp, #12, 0
    9cac:	e49df004 	pop	{pc}		; (ldr pc, [sp], #4)
    9cb0:	e59f3084 	ldr	r3, [pc, #132]	; 9d3c <kmalloc_aligned+0xf0>
    9cb4:	e58d3000 	str	r3, [sp]
    9cb8:	e3a0305f 	mov	r3, #95, 0	; 0x5f
    9cbc:	e59f207c 	ldr	r2, [pc, #124]	; 9d40 <kmalloc_aligned+0xf4>
    9cc0:	e59f107c 	ldr	r1, [pc, #124]	; 9d44 <kmalloc_aligned+0xf8>
    9cc4:	e59f007c 	ldr	r0, [pc, #124]	; 9d48 <kmalloc_aligned+0xfc>
    9cc8:	ebfffc8c 	bl	8f00 <printk>
    9ccc:	ebfffe7e 	bl	96cc <clean_reboot>
    9cd0:	eb000046 	bl	9df0 <rpi_reset_putc>
    9cd4:	e59f3070 	ldr	r3, [pc, #112]	; 9d4c <kmalloc_aligned+0x100>
    9cd8:	e58d3000 	str	r3, [sp]
    9cdc:	e3a03060 	mov	r3, #96, 0	; 0x60
    9ce0:	e59f2058 	ldr	r2, [pc, #88]	; 9d40 <kmalloc_aligned+0xf4>
    9ce4:	e59f1058 	ldr	r1, [pc, #88]	; 9d44 <kmalloc_aligned+0xf8>
    9ce8:	e59f0060 	ldr	r0, [pc, #96]	; 9d50 <kmalloc_aligned+0x104>
    9cec:	ebfffc83 	bl	8f00 <printk>
    9cf0:	ebfffe75 	bl	96cc <clean_reboot>
    9cf4:	e59f3058 	ldr	r3, [pc, #88]	; 9d54 <kmalloc_aligned+0x108>
    9cf8:	e58d3000 	str	r3, [sp]
    9cfc:	e3a03011 	mov	r3, #17, 0
    9d00:	e59f2050 	ldr	r2, [pc, #80]	; 9d58 <kmalloc_aligned+0x10c>
    9d04:	e59f1038 	ldr	r1, [pc, #56]	; 9d44 <kmalloc_aligned+0xf8>
    9d08:	e59f0038 	ldr	r0, [pc, #56]	; 9d48 <kmalloc_aligned+0xfc>
    9d0c:	ebfffc7b 	bl	8f00 <printk>
    9d10:	ebfffe6d 	bl	96cc <clean_reboot>
    9d14:	eb000035 	bl	9df0 <rpi_reset_putc>
    9d18:	e59f303c 	ldr	r3, [pc, #60]	; 9d5c <kmalloc_aligned+0x110>
    9d1c:	e58d3000 	str	r3, [sp]
    9d20:	e3a03068 	mov	r3, #104, 0	; 0x68
    9d24:	e59f2014 	ldr	r2, [pc, #20]	; 9d40 <kmalloc_aligned+0xf4>
    9d28:	e59f1014 	ldr	r1, [pc, #20]	; 9d44 <kmalloc_aligned+0xf8>
    9d2c:	e59f002c 	ldr	r0, [pc, #44]	; 9d60 <kmalloc_aligned+0x114>
    9d30:	ebfffc72 	bl	8f00 <printk>
    9d34:	ebfffe64 	bl	96cc <clean_reboot>
    9d38:	0000aa68 	andeq	sl, r0, r8, ror #20
    9d3c:	0000a874 	andeq	sl, r0, r4, ror r8
    9d40:	0000aa3c 	andeq	sl, r0, ip, lsr sl
    9d44:	0000a864 	andeq	sl, r0, r4, ror #16
    9d48:	0000a11c 	andeq	sl, r0, ip, lsl r1
    9d4c:	0000a964 	andeq	sl, r0, r4, ror #18
    9d50:	0000a930 	andeq	sl, r0, r0, lsr r9
    9d54:	0000a978 	andeq	sl, r0, r8, ror r9
    9d58:	0000aa4c 	andeq	sl, r0, ip, asr #20
    9d5c:	0000a9b0 			; <UNDEFINED> instruction: 0x0000a9b0
    9d60:	0000a984 	andeq	sl, r0, r4, lsl #19

00009d64 <kfree>:
    9d64:	e12fff1e 	bx	lr

00009d68 <kfree_all>:
    9d68:	e59f3008 	ldr	r3, [pc, #8]	; 9d78 <kfree_all+0x10>
    9d6c:	e5932004 	ldr	r2, [r3, #4]
    9d70:	e5832008 	str	r2, [r3, #8]
    9d74:	e12fff1e 	bx	lr
    9d78:	0000aa68 	andeq	sl, r0, r8, ror #20

00009d7c <kfree_pop>:
    9d7c:	e59f3048 	ldr	r3, [pc, #72]	; 9dcc <kfree_pop+0x50>
    9d80:	e5933004 	ldr	r3, [r3, #4]
    9d84:	e1530000 	cmp	r3, r0
    9d88:	8a000006 	bhi	9da8 <kfree_pop+0x2c>
    9d8c:	e59f3038 	ldr	r3, [pc, #56]	; 9dcc <kfree_pop+0x50>
    9d90:	e5933000 	ldr	r3, [r3]
    9d94:	e1530000 	cmp	r3, r0
    9d98:	3a000002 	bcc	9da8 <kfree_pop+0x2c>
    9d9c:	e59f3028 	ldr	r3, [pc, #40]	; 9dcc <kfree_pop+0x50>
    9da0:	e5830008 	str	r0, [r3, #8]
    9da4:	e12fff1e 	bx	lr
    9da8:	e52de004 	push	{lr}		; (str lr, [sp, #-4]!)
    9dac:	e24dd00c 	sub	sp, sp, #12, 0
    9db0:	e58d0000 	str	r0, [sp]
    9db4:	e3a03077 	mov	r3, #119, 0	; 0x77
    9db8:	e59f2010 	ldr	r2, [pc, #16]	; 9dd0 <kfree_pop+0x54>
    9dbc:	e59f1010 	ldr	r1, [pc, #16]	; 9dd4 <kfree_pop+0x58>
    9dc0:	e59f0010 	ldr	r0, [pc, #16]	; 9dd8 <kfree_pop+0x5c>
    9dc4:	ebfffc4d 	bl	8f00 <printk>
    9dc8:	ebfffe3f 	bl	96cc <clean_reboot>
    9dcc:	0000aa68 	andeq	sl, r0, r8, ror #20
    9dd0:	0000aa54 	andeq	sl, r0, r4, asr sl
    9dd4:	0000a864 	andeq	sl, r0, r4, ror #16
    9dd8:	0000a9cc 	andeq	sl, r0, ip, asr #19

00009ddc <internal_putchar>:
    9ddc:	e92d4010 	push	{r4, lr}
    9de0:	e1a04000 	mov	r4, r0
    9de4:	ebfffeea 	bl	9994 <uart_putc>
    9de8:	e1a00004 	mov	r0, r4
    9dec:	e8bd8010 	pop	{r4, pc}

00009df0 <rpi_reset_putc>:
    9df0:	e59f3008 	ldr	r3, [pc, #8]	; 9e00 <rpi_reset_putc+0x10>
    9df4:	e59f2008 	ldr	r2, [pc, #8]	; 9e04 <rpi_reset_putc+0x14>
    9df8:	e5832000 	str	r2, [r3]
    9dfc:	e12fff1e 	bx	lr
    9e00:	0000aa74 	andeq	sl, r0, r4, ror sl
    9e04:	00009ddc 	ldrdeq	r9, [r0], -ip

00009e08 <rpi_set_putc>:
    9e08:	e59f3004 	ldr	r3, [pc, #4]	; 9e14 <rpi_set_putc+0xc>
    9e0c:	e5830000 	str	r0, [r3]
    9e10:	e12fff1e 	bx	lr
    9e14:	0000aa74 	andeq	sl, r0, r4, ror sl

00009e18 <strcat>:
    9e18:	e1a02000 	mov	r2, r0
    9e1c:	e1a03002 	mov	r3, r2
    9e20:	e2822001 	add	r2, r2, #1, 0
    9e24:	e5d3c000 	ldrb	ip, [r3]
    9e28:	e35c0000 	cmp	ip, #0, 0
    9e2c:	1afffffa 	bne	9e1c <strcat+0x4>
    9e30:	e2433001 	sub	r3, r3, #1, 0
    9e34:	e5d12000 	ldrb	r2, [r1]
    9e38:	e2811001 	add	r1, r1, #1, 0
    9e3c:	e5e32001 	strb	r2, [r3, #1]!
    9e40:	e3520000 	cmp	r2, #0, 0
    9e44:	1afffffa 	bne	9e34 <strcat+0x1c>
    9e48:	e12fff1e 	bx	lr

00009e4c <strcmp>:
    9e4c:	e5d03000 	ldrb	r3, [r0]
    9e50:	e3530000 	cmp	r3, #0, 0
    9e54:	0a000004 	beq	9e6c <strcmp+0x20>
    9e58:	e5d12000 	ldrb	r2, [r1]
    9e5c:	e1530002 	cmp	r3, r2
    9e60:	02800001 	addeq	r0, r0, #1, 0
    9e64:	02811001 	addeq	r1, r1, #1, 0
    9e68:	0afffff7 	beq	9e4c <strcmp>
    9e6c:	e5d10000 	ldrb	r0, [r1]
    9e70:	e0430000 	sub	r0, r3, r0
    9e74:	e12fff1e 	bx	lr

00009e78 <strcpy>:
    9e78:	e1a0c000 	mov	ip, r0
    9e7c:	e5d12000 	ldrb	r2, [r1]
    9e80:	e2811001 	add	r1, r1, #1, 0
    9e84:	e5cc2000 	strb	r2, [ip]
    9e88:	e28cc001 	add	ip, ip, #1, 0
    9e8c:	e3520000 	cmp	r2, #0, 0
    9e90:	1afffff9 	bne	9e7c <strcpy+0x4>
    9e94:	e12fff1e 	bx	lr

00009e98 <strncmp>:
    9e98:	e3520000 	cmp	r2, #0, 0
    9e9c:	e2422001 	sub	r2, r2, #1, 0
    9ea0:	0a000005 	beq	9ebc <strncmp+0x24>
    9ea4:	e4d03001 	ldrb	r3, [r0], #1
    9ea8:	e4d1c001 	ldrb	ip, [r1], #1
    9eac:	e153000c 	cmp	r3, ip
    9eb0:	0afffff8 	beq	9e98 <strncmp>
    9eb4:	e043000c 	sub	r0, r3, ip
    9eb8:	e12fff1e 	bx	lr
    9ebc:	e3a00000 	mov	r0, #0, 0
    9ec0:	e12fff1e 	bx	lr

00009ec4 <reboot_callout>:
    9ec4:	e12fff1e 	bx	lr

00009ec8 <dev_barrier>:
    9ec8:	ea000002 	b	9ed8 <dsb>

00009ecc <dmb>:
    9ecc:	e3a00000 	mov	r0, #0, 0
    9ed0:	ee070fba 	mcr	15, 0, r0, cr7, cr10, {5}
    9ed4:	e12fff1e 	bx	lr

00009ed8 <dsb>:
    9ed8:	ee070f9a 	mcr	15, 0, r0, cr7, cr10, {4}
    9edc:	e12fff1e 	bx	lr

00009ee0 <gpio_set_function>:
    9ee0:	e350001f 	cmp	r0, #31, 0
    9ee4:	812fff1e 	bxhi	lr
    9ee8:	e92d4070 	push	{r4, r5, r6, lr}
    9eec:	e1a05001 	mov	r5, r1
    9ef0:	e3d13007 	bics	r3, r1, #7, 0
    9ef4:	18bd8070 	popne	{r4, r5, r6, pc}
    9ef8:	e59f3040 	ldr	r3, [pc, #64]	; 9f40 <gpio_set_function+0x60>
    9efc:	e0832093 	umull	r2, r3, r3, r0
    9f00:	e1a031a3 	lsr	r3, r3, #3
    9f04:	e1a02003 	mov	r2, r3
    9f08:	e0833103 	add	r3, r3, r3, lsl #2
    9f0c:	e0403083 	sub	r3, r0, r3, lsl #1
    9f10:	e0834083 	add	r4, r3, r3, lsl #1
    9f14:	e2820302 	add	r0, r2, #134217728	; 0x8000000
    9f18:	e2800702 	add	r0, r0, #524288	; 0x80000
    9f1c:	e1a06100 	lsl	r6, r0, #2
    9f20:	e1a00006 	mov	r0, r6
    9f24:	ebfff840 	bl	802c <GET32>
    9f28:	e3a01007 	mov	r1, #7, 0
    9f2c:	e1c01411 	bic	r1, r0, r1, lsl r4
    9f30:	e1811415 	orr	r1, r1, r5, lsl r4
    9f34:	e1a00006 	mov	r0, r6
    9f38:	ebfff839 	bl	8024 <PUT32>
    9f3c:	e8bd8070 	pop	{r4, r5, r6, pc}
    9f40:	cccccccd 	stclgt	12, cr12, [ip], {205}	; 0xcd

00009f44 <gpio_set_output>:
    9f44:	e92d4010 	push	{r4, lr}
    9f48:	e3a01001 	mov	r1, #1, 0
    9f4c:	ebffffe3 	bl	9ee0 <gpio_set_function>
    9f50:	e8bd8010 	pop	{r4, pc}

00009f54 <gpio_set_on>:
    9f54:	e350001f 	cmp	r0, #31, 0
    9f58:	812fff1e 	bxhi	lr
    9f5c:	e92d4010 	push	{r4, lr}
    9f60:	e3a01001 	mov	r1, #1, 0
    9f64:	e1a01011 	lsl	r1, r1, r0
    9f68:	e59f0004 	ldr	r0, [pc, #4]	; 9f74 <gpio_set_on+0x20>
    9f6c:	ebfff82c 	bl	8024 <PUT32>
    9f70:	e8bd8010 	pop	{r4, pc}
    9f74:	2020001c 	eorcs	r0, r0, ip, lsl r0

00009f78 <gpio_set_off>:
    9f78:	e350001f 	cmp	r0, #31, 0
    9f7c:	812fff1e 	bxhi	lr
    9f80:	e92d4010 	push	{r4, lr}
    9f84:	e3a01001 	mov	r1, #1, 0
    9f88:	e1a01011 	lsl	r1, r1, r0
    9f8c:	e59f0004 	ldr	r0, [pc, #4]	; 9f98 <gpio_set_off+0x20>
    9f90:	ebfff823 	bl	8024 <PUT32>
    9f94:	e8bd8010 	pop	{r4, pc}
    9f98:	20200028 	eorcs	r0, r0, r8, lsr #32

00009f9c <gpio_set_input>:
    9f9c:	e92d4010 	push	{r4, lr}
    9fa0:	e3a01000 	mov	r1, #0, 0
    9fa4:	ebffffcd 	bl	9ee0 <gpio_set_function>
    9fa8:	e8bd8010 	pop	{r4, pc}

00009fac <gpio_write>:
    9fac:	e92d4010 	push	{r4, lr}
    9fb0:	e3510000 	cmp	r1, #0, 0
    9fb4:	0a000001 	beq	9fc0 <gpio_write+0x14>
    9fb8:	ebffffe5 	bl	9f54 <gpio_set_on>
    9fbc:	e8bd8010 	pop	{r4, pc}
    9fc0:	ebffffec 	bl	9f78 <gpio_set_off>
    9fc4:	e8bd8010 	pop	{r4, pc}

00009fc8 <gpio_read>:
    9fc8:	e350001f 	cmp	r0, #31, 0
    9fcc:	8a000007 	bhi	9ff0 <gpio_read+0x28>
    9fd0:	e92d4010 	push	{r4, lr}
    9fd4:	e200401f 	and	r4, r0, #31, 0
    9fd8:	e59f3018 	ldr	r3, [pc, #24]	; 9ff8 <gpio_read+0x30>
    9fdc:	e08302a0 	add	r0, r3, r0, lsr #5
    9fe0:	ebfff811 	bl	802c <GET32>
    9fe4:	e1a00430 	lsr	r0, r0, r4
    9fe8:	e2000001 	and	r0, r0, #1, 0
    9fec:	e8bd8010 	pop	{r4, pc}
    9ff0:	e3e00000 	mvn	r0, #0, 0
    9ff4:	e12fff1e 	bx	lr
    9ff8:	20200034 	eorcs	r0, r0, r4, lsr r0

00009ffc <__code_end__>:
    9ffc:	00000000 	andeq	r0, r0, r0

Disassembly of section .rodata:

0000a000 <__FUNCTION__.4034-0x100>:
    a000:	74736574 	ldrbtvc	r6, [r3], #-1396	; 0xfffffa8c
    a004:	2e332d73 	mrccs	13, 1, r2, cr3, cr3, {3}
    a008:	61702f30 	cmnvs	r0, r0, lsr pc
    a00c:	2d327472 	cfldrscs	mvf7, [r2, #-456]!	; 0xfffffe38
    a010:	74736574 	ldrbtvc	r6, [r3], #-1396	; 0xfffffa8c
    a014:	6f6e2d36 	svcvs	0x006e2d36
    a018:	61656c2d 	cmnvs	r5, sp, lsr #24
    a01c:	00632e6b 	rsbeq	r2, r3, fp, ror #28
    a020:	43415254 	movtmi	r5, #4692	; 0x1254
    a024:	6c613a45 			; <UNDEFINED> instruction: 0x6c613a45
    a028:	20636f6c 	rsbcs	r6, r3, ip, ror #30
    a02c:	75746572 	ldrbvc	r6, [r4, #-1394]!	; 0xfffffa8e
    a030:	64656e72 	strbtvs	r6, [r5], #-3698	; 0xfffff18e
    a034:	6f6c6220 	svcvs	0x006c6220
    a038:	69206b63 	stmdbvs	r0!, {r0, r1, r5, r6, r8, r9, fp, sp, lr}
    a03c:	75253d64 	strvc	r3, [r5, #-3428]!	; 0xfffff29c
    a040:	70255b20 	eorvc	r5, r5, r0, lsr #22
    a044:	00000a5d 	andeq	r0, r0, sp, asr sl
    a048:	74204347 	strtvc	r4, [r0], #-839	; 0xfffffcb9
    a04c:	36747365 	ldrbtcc	r7, [r4], -r5, ror #6
    a050:	0000000a 	andeq	r0, r0, sl
    a054:	43415254 	movtmi	r5, #4692	; 0x1254
    a058:	65743a45 	ldrbvs	r3, [r4, #-2629]!	; 0xfffff5bb
    a05c:	20317473 	eorscs	r7, r1, r3, ror r4
    a060:	75746572 	ldrbvc	r6, [r4, #-1394]!	; 0xfffffa8e
    a064:	64656e72 	strbtvs	r6, [r5], #-3698	; 0xfffff18e
    a068:	70255b20 	eorvc	r5, r5, r0, lsr #22
    a06c:	00000a5d 	andeq	r0, r0, sp, asr sl
    a070:	494e4150 	stmdbmi	lr, {r4, r6, r8, lr}^
    a074:	73253a43 			; <UNDEFINED> instruction: 0x73253a43
    a078:	3a73253a 	bcc	1cd3568 <__bss_end__+0x1cc86c0>
    a07c:	733a6425 	teqvc	sl, #620756992	; 0x25000000
    a080:	6c756f68 	ldclvs	15, cr6, [r5], #-416	; 0xfffffe60
    a084:	61682064 	cmnvs	r8, r4, rrx
    a088:	6e206576 	mcrvs	5, 1, r6, cr0, cr6, {3}
    a08c:	6564206f 	strbvs	r2, [r4, #-111]!	; 0xffffff91
    a090:	696e6966 	stmdbvs	lr!, {r1, r2, r5, r6, r8, fp, sp, lr}^
    a094:	6c206574 	cfstr32vs	mvfx6, [r0], #-464	; 0xfffffe30
    a098:	736b6165 	cmnvc	fp, #1073741849	; 0x40000019
    a09c:	000a0a21 	andeq	r0, sl, r1, lsr #20
    a0a0:	43415254 	movtmi	r5, #4692	; 0x1254
    a0a4:	55533a45 	ldrbpl	r3, [r3, #-2629]	; 0xfffff5bb
    a0a8:	53454343 	movtpl	r4, #21315	; 0x5343
    a0ac:	64203a53 	strtvs	r3, [r0], #-2643	; 0xfffff5ad
    a0b0:	63657465 	cmnvs	r5, #1694498816	; 0x65000000
    a0b4:	20646574 	rsbcs	r6, r4, r4, ror r5
    a0b8:	616d2061 	cmnvs	sp, r1, rrx
    a0bc:	20656279 	rsbcs	r6, r5, r9, ror r2
    a0c0:	6b61656c 	blvs	1863678 <__bss_end__+0x18587d0>
    a0c4:	00000a21 	andeq	r0, r0, r1, lsr #20
    a0c8:	494e4150 	stmdbmi	lr, {r4, r6, r8, lr}^
    a0cc:	73253a43 			; <UNDEFINED> instruction: 0x73253a43
    a0d0:	3a73253a 	bcc	1cd35c0 <__bss_end__+0x1cc8718>
    a0d4:	733a6425 	teqvc	sl, #620756992	; 0x25000000
    a0d8:	6c756f68 	ldclvs	15, cr6, [r5], #-416	; 0xfffffe60
    a0dc:	61682064 	cmnvs	r8, r4, rrx
    a0e0:	66206576 			; <UNDEFINED> instruction: 0x66206576
    a0e4:	646e756f 	strbtvs	r7, [lr], #-1391	; 0xfffffa91
    a0e8:	6d206120 	stfvss	f6, [r0, #-128]!	; 0xffffff80
    a0ec:	65627961 	strbvs	r7, [r2, #-2401]!	; 0xfffff69f
    a0f0:	61656c20 	cmnvs	r5, r0, lsr #24
    a0f4:	666f206b 	strbtvs	r2, [pc], -fp, rrx
    a0f8:	7025203a 	eorvc	r2, r5, sl, lsr r0
    a0fc:	000a0a21 	andeq	r0, sl, r1, lsr #20

0000a100 <__FUNCTION__.4034>:
    a100:	74736574 	ldrbtvc	r6, [r3], #-1396	; 0xfffffa8c
    a104:	00000031 	andeq	r0, r0, r1, lsr r0

0000a108 <__FUNCTION__.4039>:
    a108:	6d746f6e 	ldclvs	15, cr6, [r4, #-440]!	; 0xfffffe48
    a10c:	006e6961 	rsbeq	r6, lr, r1, ror #18
    a110:	6c616b63 			; <UNDEFINED> instruction: 0x6c616b63
    a114:	2e636f6c 	cdpcs	15, 6, cr6, cr3, cr12, {3}
    a118:	00000063 	andeq	r0, r0, r3, rrx
    a11c:	494e4150 	stmdbmi	lr, {r4, r6, r8, lr}^
    a120:	73253a43 			; <UNDEFINED> instruction: 0x73253a43
    a124:	3a73253a 	bcc	1cd3614 <__bss_end__+0x1cc876c>
    a128:	253a6425 	ldrcs	r6, [sl, #-1061]!	; 0xfffffbdb
    a12c:	00000a73 	andeq	r0, r0, r3, ror sl
    a130:	0000006c 	andeq	r0, r0, ip, rrx
    a134:	43415254 	movtmi	r5, #4692	; 0x1254
    a138:	6f663a45 	svcvs	0x00663a45
    a13c:	20646e75 	rsbcs	r6, r4, r5, ror lr
    a140:	69207025 	stmdbvs	r0!, {r0, r2, r5, ip, sp, lr}
    a144:	7025206e 	eorvc	r2, r5, lr, rrx
    a148:	0000000a 	andeq	r0, r0, sl
    a14c:	43415254 	movtmi	r5, #4692	; 0x1254
    a150:	6f663a45 	svcvs	0x00663a45
    a154:	20646e75 	rsbcs	r6, r4, r5, ror lr
    a158:	6f6c6c61 	svcvs	0x006c6c61
    a15c:	65746163 	ldrbvs	r6, [r4, #-355]!	; 0xfffffe9d
    a160:	70252064 	eorvc	r2, r5, r4, rrx
    a164:	206e6920 	rsbcs	r6, lr, r0, lsr #18
    a168:	000a7025 	andeq	r7, sl, r5, lsr #32
    a16c:	43415254 	movtmi	r5, #4692	; 0x1254
    a170:	68633a45 	stmdavs	r3!, {r0, r2, r6, r9, fp, ip, sp}^
    a174:	696b6365 	stmdbvs	fp!, {r0, r2, r5, r6, r8, r9, sp, lr}^
    a178:	6820676e 	stmdavs	r0!, {r1, r2, r3, r5, r6, r8, r9, sl, sp, lr}
    a17c:	20706165 	rsbscs	r6, r0, r5, ror #2
    a180:	20726f66 	rsbscs	r6, r2, r6, ror #30
    a184:	6f727265 	svcvs	0x00727265
    a188:	2e2e7372 	mcrcs	3, 1, r7, cr14, cr2, {3}
    a18c:	00000a2e 	andeq	r0, r0, lr, lsr #20
    a190:	43415254 	movtmi	r5, #4692	; 0x1254
    a194:	65723a45 	ldrbvs	r3, [r2, #-2629]!	; 0xfffff5bb
    a198:	6e6f7a64 	vnmulvs.f32	s15, s30, s9
    a19c:	69207365 	stmdbvs	r0!, {r0, r2, r5, r6, r8, r9, ip, sp, lr}
    a1a0:	6d72636e 	ldclvs	3, cr6, [r2, #-440]!	; 0xfffffe48
    a1a4:	69746e65 	ldmdbvs	r4!, {r0, r2, r5, r6, r9, sl, fp, sp, lr}^
    a1a8:	6520676e 	strvs	r6, [r0, #-1902]!	; 0xfffff892
    a1ac:	736f7272 	cmnvc	pc, #536870919	; 0x20000007
    a1b0:	00000000 	andeq	r0, r0, r0
    a1b4:	43415254 	movtmi	r5, #4692	; 0x1254
    a1b8:	64753a45 	ldrbtvs	r3, [r5], #-2629	; 0xfffff5bb
    a1bc:	20617461 	rsbcs	r7, r1, r1, ror #8
    a1c0:	72636e69 	rsbvc	r6, r3, #1680	; 0x690
    a1c4:	6e656d65 	cdpvs	13, 6, cr6, cr5, cr5, {3}
    a1c8:	676e6974 			; <UNDEFINED> instruction: 0x676e6974
    a1cc:	72726520 	rsbsvc	r6, r2, #32, 10	; 0x8000000
    a1d0:	000a2e73 	andeq	r2, sl, r3, ror lr
    a1d4:	5f434f4c 	svcpl	0x00434f4c
    a1d8:	494e4150 	stmdbmi	lr, {r4, r6, r8, lr}^
    a1dc:	25203a43 	strcs	r3, [r0, #-2627]!	; 0xfffff5bd
    a1e0:	73253a73 			; <UNDEFINED> instruction: 0x73253a73
    a1e4:	3a64253a 	bcc	19136d4 <__bss_end__+0x190882c>
    a1e8:	00000000 	andeq	r0, r0, r0
    a1ec:	65657266 	strbvs	r7, [r5, #-614]!	; 0xfffffd9a
    a1f0:	20676e69 	rsbcs	r6, r7, r9, ror #28
    a1f4:	6c616e75 	stclvs	14, cr6, [r1], #-468	; 0xfffffe2c
    a1f8:	61636f6c 	cmnvs	r3, ip, ror #30
    a1fc:	20646574 	rsbcs	r6, r4, r4, ror r5
    a200:	6f6d656d 	svcvs	0x006d656d
    a204:	203a7972 	eorscs	r7, sl, r2, ror r9
    a208:	6464615b 	strbtvs	r6, [r4], #-347	; 0xfffffea5
    a20c:	203d2072 	eorscs	r2, sp, r2, ror r0
    a210:	73207025 			; <UNDEFINED> instruction: 0x73207025
    a214:	65746174 	ldrbvs	r6, [r4, #-372]!	; 0xfffffe8c
    a218:	5d64253d 	cfstr64pl	mvdx2, [r4, #-244]!	; 0xffffff0c
    a21c:	0000000a 	andeq	r0, r0, sl
    a220:	253a7325 	ldrcs	r7, [sl, #-805]!	; 0xfffffcdb
    a224:	64253a73 	strtvs	r3, [r5], #-2675	; 0xfffff58d
    a228:	0000003a 	andeq	r0, r0, sl, lsr r0
    a22c:	65657266 	strbvs	r7, [r5, #-614]!	; 0xfffffd9a
    a230:	20676e69 	rsbcs	r6, r7, r9, ror #28
    a234:	636f6c62 	cmnvs	pc, #25088	; 0x6200
    a238:	203d206b 	eorscs	r2, sp, fp, rrx
    a23c:	5b206425 	blpl	8232d8 <__bss_end__+0x818430>
    a240:	72646461 	rsbvc	r6, r4, #1627389952	; 0x61000000
    a244:	25203d20 	strcs	r3, [r0, #-3360]!	; 0xfffff2e0
    a248:	000a5d70 	andeq	r5, sl, r0, ror sp
    a24c:	705f6b63 	subsvc	r6, pc, r3, ror #22
    a250:	695f7274 	ldmdbvs	pc, {r2, r4, r5, r6, r9, ip, sp, lr}^	; <UNPREDICTABLE>
    a254:	6c615f73 	stclvs	15, cr5, [r1], #-460	; 0xfffffe34
    a258:	65636f6c 	strbvs	r6, [r3, #-3948]!	; 0xfffff094
    a25c:	64612864 	strbtvs	r2, [r1], #-2148	; 0xfffff79c
    a260:	20297264 	eorcs	r7, r9, r4, ror #4
    a264:	30203d21 	eorcc	r3, r0, r1, lsr #26
    a268:	00000000 	andeq	r0, r0, r0
    a26c:	494e4150 	stmdbmi	lr, {r4, r6, r8, lr}^
    a270:	73253a43 			; <UNDEFINED> instruction: 0x73253a43
    a274:	3a73253a 	bcc	1cd3764 <__bss_end__+0x1cc88bc>
    a278:	453a6425 	ldrmi	r6, [sl, #-1061]!	; 0xfffffbdb
    a27c:	726f7272 	rsbvc	r7, pc, #536870919	; 0x20000007
    a280:	6572203a 	ldrbvs	r2, [r2, #-58]!	; 0xffffffc6
    a284:	6e6f7a64 	vnmulvs.f32	s15, s30, s9
    a288:	6f632065 	svcvs	0x00632065
    a28c:	70757272 	rsbsvc	r7, r5, r2, ror r2
    a290:	6e6f6974 			; <UNDEFINED> instruction: 0x6e6f6974
    a294:	74656420 	strbtvc	r6, [r5], #-1056	; 0xfffffbe0
    a298:	65746365 	ldrbvs	r6, [r4, #-869]!	; 0xfffffc9b
    a29c:	6e6f2064 	cdpvs	0, 6, cr2, cr15, cr4, {3}
    a2a0:	65726620 	ldrbvs	r6, [r2, #-1568]!	; 0xfffff9e0
    a2a4:	666f2065 	strbtvs	r2, [pc], -r5, rrx
    a2a8:	6f6c6220 	svcvs	0x006c6220
    a2ac:	3d206b63 	fstmdbxcc	r0!, {d6-d54}	;@ Deprecated
    a2b0:	20642520 	rsbcs	r2, r4, r0, lsr #10
    a2b4:	6464615b 	strbtvs	r6, [r4], #-347	; 0xfffffea5
    a2b8:	203d2072 	eorscs	r2, sp, r2, ror r0
    a2bc:	2e5d7825 	cdpcs	8, 5, cr7, cr13, cr5, {1}
    a2c0:	00000a0a 	andeq	r0, r0, sl, lsl #20
    a2c4:	5f6b6321 	svcpl	0x006b6321
    a2c8:	5f727470 	svcpl	0x00727470
    a2cc:	615f7369 	cmpvs	pc, r9, ror #6
    a2d0:	636f6c6c 	cmnvs	pc, #108, 24	; 0x6c00
    a2d4:	61286465 			; <UNDEFINED> instruction: 0x61286465
    a2d8:	29726464 	ldmdbcs	r2!, {r2, r5, r6, sl, sp, lr}^
    a2dc:	00000000 	andeq	r0, r0, r0
    a2e0:	6f6c6c61 	svcvs	0x006c6c61
    a2e4:	69746163 	ldmdbvs	r4!, {r0, r1, r5, r6, r8, sp, lr}^
    a2e8:	6220676e 	eorvs	r6, r0, #28835840	; 0x1b80000
    a2ec:	6b636f6c 	blvs	18e60a4 <__bss_end__+0x18db1fc>
    a2f0:	25203d20 	strcs	r3, [r0, #-3360]!	; 0xfffff2e0
    a2f4:	615b2064 	cmpvs	fp, r4, rrx
    a2f8:	20726464 	rsbscs	r6, r2, r4, ror #8
    a2fc:	7025203d 	eorvc	r2, r5, sp, lsr r0
    a300:	00000a5d 	andeq	r0, r0, sp, asr sl

0000a304 <__FUNCTION__.4064>:
    a304:	7473696c 	ldrbtvc	r6, [r3], #-2412	; 0xfffff694
    a308:	7070615f 	rsbsvc	r6, r0, pc, asr r1
    a30c:	00646e65 	rsbeq	r6, r4, r5, ror #28

0000a310 <__FUNCTION__.4126>:
    a310:	72666b63 	rsbvc	r6, r6, #101376	; 0x18c00
    a314:	00006565 	andeq	r6, r0, r5, ror #10
    a318:	2d2d2d2d 	stccs	13, cr2, [sp, #-180]!	; 0xffffff4c
    a31c:	2d2d2d2d 	stccs	13, cr2, [sp, #-180]!	; 0xffffff4c
    a320:	2d2d2d2d 	stccs	13, cr2, [sp, #-180]!	; 0xffffff4c
    a324:	2d2d2d2d 	stccs	13, cr2, [sp, #-180]!	; 0xffffff4c
    a328:	2d2d2d2d 	stccs	13, cr2, [sp, #-180]!	; 0xffffff4c
    a32c:	2d2d2d2d 	stccs	13, cr2, [sp, #-180]!	; 0xffffff4c
    a330:	2d2d2d2d 	stccs	13, cr2, [sp, #-180]!	; 0xffffff4c
    a334:	2d2d2d2d 	stccs	13, cr2, [sp, #-180]!	; 0xffffff4c
    a338:	2d2d2d2d 	stccs	13, cr2, [sp, #-180]!	; 0xffffff4c
    a33c:	2d2d2d2d 	stccs	13, cr2, [sp, #-180]!	; 0xffffff4c
    a340:	2d2d2d2d 	stccs	13, cr2, [sp, #-180]!	; 0xffffff4c
    a344:	2d2d2d2d 	stccs	13, cr2, [sp, #-180]!	; 0xffffff4c
    a348:	2d2d2d2d 	stccs	13, cr2, [sp, #-180]!	; 0xffffff4c
    a34c:	2d2d2d2d 	stccs	13, cr2, [sp, #-180]!	; 0xffffff4c
    a350:	00000a2d 	andeq	r0, r0, sp, lsr #20
    a354:	63656863 	cmnvs	r5, #6488064	; 0x630000
    a358:	676e696b 	strbvs	r6, [lr, -fp, ror #18]!
    a35c:	726f6620 	rsbvc	r6, pc, #32, 12	; 0x2000000
    a360:	61656c20 	cmnvs	r5, r0, lsr #24
    a364:	0a3a736b 	beq	ea7118 <__bss_end__+0xe9c270>
    a368:	00000000 	andeq	r0, r0, r0
    a36c:	43415254 	movtmi	r5, #4692	; 0x1254
    a370:	69663a45 	stmdbvs	r6!, {r0, r2, r6, r9, fp, ip, sp}^
    a374:	3a747372 	bcc	1d27144 <__bss_end__+0x1d1c29c>
    a378:	72756320 	rsbsvc	r6, r5, #32, 6	; 0x80000000
    a37c:	203d2072 	eorscs	r2, sp, r2, ror r0
    a380:	202c7825 	eorcs	r7, ip, r5, lsr #16
    a384:	72617473 	rsbvc	r7, r1, #1929379840	; 0x73000000
    a388:	65722074 	ldrbvs	r2, [r2, #-116]!	; 0xffffff8c
    a38c:	3d207366 	stccc	3, cr7, [r0, #-408]!	; 0xfffffe68
    a390:	2c642520 	cfstr64cs	mvdx2, [r4], #-128	; 0xffffff80
    a394:	64696d20 	strbtvs	r6, [r9], #-3360	; 0xfffff2e0
    a398:	66657220 	strbtvs	r7, [r5], -r0, lsr #4
    a39c:	203d2073 	eorscs	r2, sp, r3, ror r0
    a3a0:	000a6425 	andeq	r6, sl, r5, lsr #8
    a3a4:	43415254 	movtmi	r5, #4692	; 0x1254
    a3a8:	696d3a45 	stmdbvs	sp!, {r0, r2, r6, r9, fp, ip, sp}^
    a3ac:	203a6464 	eorscs	r6, sl, r4, ror #8
    a3b0:	72727563 	rsbsvc	r7, r2, #415236096	; 0x18c00000
    a3b4:	25203d20 	strcs	r3, [r0, #-3360]!	; 0xfffff2e0
    a3b8:	73202c78 			; <UNDEFINED> instruction: 0x73202c78
    a3bc:	74726174 	ldrbtvc	r6, [r2], #-372	; 0xfffffe8c
    a3c0:	66657220 	strbtvs	r7, [r5], -r0, lsr #4
    a3c4:	203d2073 	eorscs	r2, sp, r3, ror r0
    a3c8:	202c6425 	eorcs	r6, ip, r5, lsr #8
    a3cc:	2064696d 	rsbcs	r6, r4, sp, ror #18
    a3d0:	73666572 	cmnvc	r6, #478150656	; 0x1c800000
    a3d4:	25203d20 	strcs	r3, [r0, #-3360]!	; 0xfffff2e0
    a3d8:	00000a64 	andeq	r0, r0, r4, ror #20
    a3dc:	43415254 	movtmi	r5, #4692	; 0x1254
    a3e0:	6c203a45 			; <UNDEFINED> instruction: 0x6c203a45
    a3e4:	3a747361 	bcc	1d27170 <__bss_end__+0x1d1c2c8>
    a3e8:	72756320 	rsbsvc	r6, r5, #32, 6	; 0x80000000
    a3ec:	203d2072 	eorscs	r2, sp, r2, ror r0
    a3f0:	202c7825 	eorcs	r7, ip, r5, lsr #16
    a3f4:	72617473 	rsbvc	r7, r1, #1929379840	; 0x73000000
    a3f8:	65722074 	ldrbvs	r2, [r2, #-116]!	; 0xffffff8c
    a3fc:	3d207366 	stccc	3, cr7, [r0, #-408]!	; 0xfffffe68
    a400:	2c642520 	cfstr64cs	mvdx2, [r4], #-128	; 0xffffff80
    a404:	64696d20 	strbtvs	r6, [r9], #-3360	; 0xfffff2e0
    a408:	66657220 	strbtvs	r7, [r5], -r0, lsr #4
    a40c:	203d2073 	eorscs	r2, sp, r3, ror r0
    a410:	000a6425 	andeq	r6, sl, r5, lsr #8
    a414:	43415254 	movtmi	r5, #4692	; 0x1254
    a418:	756f3a45 	strbvc	r3, [pc, #-2629]!	; 99db <uart_tx_is_empty+0x7>
    a41c:	64697374 	strbtvs	r7, [r9], #-884	; 0xfffffc8c
    a420:	63203a65 			; <UNDEFINED> instruction: 0x63203a65
    a424:	20727275 	rsbscs	r7, r2, r5, ror r2
    a428:	7825203d 	stmdavc	r5!, {r0, r2, r3, r4, r5, sp}
    a42c:	7473202c 	ldrbtvc	r2, [r3], #-44	; 0xffffffd4
    a430:	20747261 	rsbscs	r7, r4, r1, ror #4
    a434:	73666572 	cmnvc	r6, #478150656	; 0x1c800000
    a438:	25203d20 	strcs	r3, [r0, #-3360]!	; 0xfffff2e0
    a43c:	6d202c64 	stcvs	12, cr2, [r0, #-400]!	; 0xfffffe70
    a440:	72206469 	eorvc	r6, r0, #1761607680	; 0x69000000
    a444:	20736665 	rsbscs	r6, r3, r5, ror #12
    a448:	6425203d 	strtvs	r2, [r5], #-61	; 0xffffffc3
    a44c:	0000000a 	andeq	r0, r0, sl
    a450:	43415254 	movtmi	r5, #4692	; 0x1254
    a454:	47093a45 	strmi	r3, [r9, -r5, asr #20]
    a458:	68433a43 	stmdavs	r3, {r0, r1, r6, r9, fp, ip, sp}^
    a45c:	656b6365 	strbvs	r6, [fp, #-869]!	; 0xfffffc9b
    a460:	64252064 	strtvs	r2, [r5], #-100	; 0xffffff9c
    a464:	6f6c6220 	svcvs	0x006c6220
    a468:	2e736b63 	vsubcs.f64	d22, d3, d19
    a46c:	0000000a 	andeq	r0, r0, sl
    a470:	43415254 	movtmi	r5, #4692	; 0x1254
    a474:	09093a45 	stmdbeq	r9, {r0, r2, r6, r9, fp, ip, sp}
    a478:	533a4347 	teqpl	sl, #469762049	; 0x1c000001
    a47c:	45434355 	strbmi	r4, [r3, #-853]	; 0xfffffcab
    a480:	203a5353 	eorscs	r5, sl, r3, asr r3
    a484:	6c206f4e 	stcvs	15, cr6, [r0], #-312	; 0xfffffec8
    a488:	736b6165 	cmnvc	fp, #1073741849	; 0x40000019
    a48c:	756f6620 	strbvc	r6, [pc, #-1568]!	; 9e74 <strcmp+0x28>
    a490:	0a21646e 	beq	863650 <__bss_end__+0x8587a8>
    a494:	00000000 	andeq	r0, r0, r0
    a498:	43415254 	movtmi	r5, #4692	; 0x1254
    a49c:	09093a45 	stmdbeq	r9, {r0, r2, r6, r9, fp, ip, sp}
    a4a0:	453a4347 	ldrmi	r4, [sl, #-839]!	; 0xfffffcb9
    a4a4:	524f5252 	subpl	r5, pc, #536870917	; 0x20000005
    a4a8:	25203a53 	strcs	r3, [r0, #-2643]!	; 0xfffff5ad
    a4ac:	72652064 	rsbvc	r2, r5, #100, 0	; 0x64
    a4b0:	73726f72 	cmnvc	r2, #456	; 0x1c8
    a4b4:	6425202c 	strtvs	r2, [r5], #-44	; 0xffffffd4
    a4b8:	79616d20 	stmdbvc	r1!, {r5, r8, sl, fp, sp, lr}^
    a4bc:	655f6562 	ldrbvs	r6, [pc, #-1378]	; 9f62 <gpio_set_on+0xe>
    a4c0:	726f7272 	rsbvc	r7, pc, #536870919	; 0x20000007
    a4c4:	00000a73 	andeq	r0, r0, r3, ror sl
    a4c8:	2d2d2d2d 	stccs	13, cr2, [sp, #-180]!	; 0xffffff4c
    a4cc:	2d2d2d2d 	stccs	13, cr2, [sp, #-180]!	; 0xffffff4c
    a4d0:	2d2d2d2d 	stccs	13, cr2, [sp, #-180]!	; 0xffffff4c
    a4d4:	2d2d2d2d 	stccs	13, cr2, [sp, #-180]!	; 0xffffff4c
    a4d8:	2d2d2d2d 	stccs	13, cr2, [sp, #-180]!	; 0xffffff4c
    a4dc:	2d2d2d2d 	stccs	13, cr2, [sp, #-180]!	; 0xffffff4c
    a4e0:	2d2d2d2d 	stccs	13, cr2, [sp, #-180]!	; 0xffffff4c
    a4e4:	2d2d2d2d 	stccs	13, cr2, [sp, #-180]!	; 0xffffff4c
    a4e8:	2d2d2d2d 	stccs	13, cr2, [sp, #-180]!	; 0xffffff4c
    a4ec:	2d2d2d2d 	stccs	13, cr2, [sp, #-180]!	; 0xffffff4c
    a4f0:	2d2d2d2d 	stccs	13, cr2, [sp, #-180]!	; 0xffffff4c
    a4f4:	2d2d2d2d 	stccs	13, cr2, [sp, #-180]!	; 0xffffff4c
    a4f8:	2d2d2d2d 	stccs	13, cr2, [sp, #-180]!	; 0xffffff4c
    a4fc:	2d2d2d2d 	stccs	13, cr2, [sp, #-180]!	; 0xffffff4c
    a500:	000a2d2d 	andeq	r2, sl, sp, lsr #26
    a504:	706d6f63 	rsbvc	r6, sp, r3, ror #30
    a508:	69746361 	ldmdbvs	r4!, {r0, r5, r6, r8, r9, sp, lr}^
    a50c:	0a3a676e 	beq	ea42cc <__bss_end__+0xe99424>
    a510:	00000000 	andeq	r0, r0, r0
    a514:	43415254 	movtmi	r5, #4692	; 0x1254
    a518:	656c3a45 	strbvs	r3, [ip, #-2629]!	; 0xfffff5bb
    a51c:	66206b61 	strtvs	r6, [r0], -r1, ror #22
    a520:	646e756f 	strbtvs	r7, [lr], #-1391	; 0xfffffa91
    a524:	726f6620 	rsbvc	r6, pc, #32, 12	; 0x2000000
    a528:	6f6c6220 	svcvs	0x006c6220
    a52c:	203a6b63 	eorscs	r6, sl, r3, ror #22
    a530:	5b206425 	blpl	8235cc <__bss_end__+0x818724>
    a534:	72646461 	rsbvc	r6, r4, #1627389952	; 0x61000000
    a538:	25203d20 	strcs	r3, [r0, #-3360]!	; 0xfffff2e0
    a53c:	202e5d64 	eorcs	r5, lr, r4, ror #26
    a540:	65657246 	strbvs	r7, [r5, #-582]!	; 0xfffffdba
    a544:	2e676e69 	cdpcs	14, 6, cr6, cr7, cr9, {3}
    a548:	0000000a 	andeq	r0, r0, sl
    a54c:	43415254 	movtmi	r5, #4692	; 0x1254
    a550:	47093a45 	strmi	r3, [r9, -r5, asr #20]
    a554:	68433a43 	stmdavs	r3, {r0, r1, r6, r9, fp, ip, sp}^
    a558:	656b6365 	strbvs	r6, [fp, #-869]!	; 0xfffffc9b
    a55c:	64252064 	strtvs	r2, [r5], #-100	; 0xffffff9c
    a560:	6f6c6220 	svcvs	0x006c6220
    a564:	2c736b63 			; <UNDEFINED> instruction: 0x2c736b63
    a568:	65726620 	ldrbvs	r6, [r2, #-1568]!	; 0xfffff9e0
    a56c:	25206465 	strcs	r6, [r0, #-1125]!	; 0xfffffb9b
    a570:	25202c64 	strcs	r2, [r0, #-3172]!	; 0xfffff39c
    a574:	79622064 	stmdbvc	r2!, {r2, r5, r6, sp}^
    a578:	0a736574 	beq	1ce3b50 <__bss_end__+0x1cd8ca8>
    a57c:	00000000 	andeq	r0, r0, r0
    a580:	672d6b63 	strvs	r6, [sp, -r3, ror #22]!
    a584:	00632e63 	rsbeq	r2, r3, r3, ror #28
    a588:	00653c70 	rsbeq	r3, r5, r0, ror ip
    a58c:	67696c61 	strbvs	r6, [r9, -r1, ror #24]!
    a590:	2864656e 	stmdacs	r4!, {r1, r2, r3, r5, r6, r8, sl, sp, lr}^
    a594:	29342c70 	ldmdbcs	r4!, {r4, r5, r6, sl, fp, sp}
    a598:	00000000 	andeq	r0, r0, r0
    a59c:	67696c61 	strbvs	r6, [r9, -r1, ror #24]!
    a5a0:	2864656e 	stmdacs	r4!, {r1, r2, r3, r5, r6, r8, sl, sp, lr}^
    a5a4:	29342c65 	ldmdbcs	r4!, {r0, r2, r5, r6, sl, fp, sp}
    a5a8:	00000000 	andeq	r0, r0, r0
    a5ac:	43415254 	movtmi	r5, #4692	; 0x1254
    a5b0:	6e693a45 	vnmulvs.f32	s7, s18, s10
    a5b4:	72627320 	rsbvc	r7, r2, #32, 6	; 0x80000000
    a5b8:	00000a6b 	andeq	r0, r0, fp, ror #20
    a5bc:	72636e69 	rsbvc	r6, r3, #1680	; 0x690
    a5c0:	6e656d65 	cdpvs	13, 6, cr6, cr5, cr5, {3}
    a5c4:	203e2074 	eorscs	r2, lr, r4, ror r0
    a5c8:	00000030 	andeq	r0, r0, r0, lsr r0
    a5cc:	43415254 	movtmi	r5, #4692	; 0x1254
    a5d0:	614d3a45 	cmpvs	sp, r5, asr #20
    a5d4:	6e696b72 	vmovvs.8	d9[7], r6
    a5d8:	2e2e2e67 	cdpcs	14, 2, cr2, cr14, cr7, {3}
    a5dc:	00000000 	andeq	r0, r0, r0
    a5e0:	656e6f44 	strbvs	r6, [lr, #-3908]!	; 0xfffff0bc
    a5e4:	00000a21 	andeq	r0, r0, r1, lsr #20
    a5e8:	494e4150 	stmdbmi	lr, {r4, r6, r8, lr}^
    a5ec:	73253a43 			; <UNDEFINED> instruction: 0x73253a43
    a5f0:	3a73253a 	bcc	1cd3ae0 <__bss_end__+0x1cc8c38>
    a5f4:	473a6425 	ldrmi	r6, [sl, -r5, lsr #8]!
    a5f8:	73203a43 			; <UNDEFINED> instruction: 0x73203a43
    a5fc:	6c756f68 	ldclvs	15, cr6, [r5], #-416	; 0xfffffe60
    a600:	61682064 	cmnvs	r8, r4, rrx
    a604:	6e206576 	mcrvs	5, 1, r6, cr0, cr6, {3}
    a608:	656c206f 	strbvs	r2, [ip, #-111]!	; 0xffffff91
    a60c:	21736b61 	cmncs	r3, r1, ror #22
    a610:	00000a0a 	andeq	r0, r0, sl, lsl #20
    a614:	43415254 	movtmi	r5, #4692	; 0x1254
    a618:	43473a45 	movtmi	r3, #31301	; 0x7a45
    a61c:	5553203a 	ldrbpl	r2, [r3, #-58]	; 0xffffffc6
    a620:	53454343 	movtpl	r4, #21315	; 0x5343
    a624:	6e203a53 			; <UNDEFINED> instruction: 0x6e203a53
    a628:	656c206f 	strbvs	r2, [ip, #-111]!	; 0xffffff91
    a62c:	21736b61 	cmncs	r3, r1, ror #22
    a630:	0000000a 	andeq	r0, r0, sl
    a634:	494e4150 	stmdbmi	lr, {r4, r6, r8, lr}^
    a638:	73253a43 			; <UNDEFINED> instruction: 0x73253a43
    a63c:	3a73253a 	bcc	1cd3b2c <__bss_end__+0x1cc8c84>
    a640:	473a6425 	ldrmi	r6, [sl, -r5, lsr #8]!
    a644:	73203a43 			; <UNDEFINED> instruction: 0x73203a43
    a648:	6c756f68 	ldclvs	15, cr6, [r5], #-416	; 0xfffffe60
    a64c:	61682064 	cmnvs	r8, r4, rrx
    a650:	6c206576 	cfstr32vs	mvfx6, [r0], #-472	; 0xfffffe28
    a654:	736b6165 	cmnvc	fp, #1073741849	; 0x40000019
    a658:	000a0a21 	andeq	r0, sl, r1, lsr #20
    a65c:	43415254 	movtmi	r5, #4692	; 0x1254
    a660:	43473a45 	movtmi	r3, #31301	; 0x7a45
    a664:	5553203a 	ldrbpl	r2, [r3, #-58]	; 0xffffffc6
    a668:	53454343 	movtpl	r4, #21315	; 0x5343
    a66c:	66203a53 			; <UNDEFINED> instruction: 0x66203a53
    a670:	646e756f 	strbtvs	r7, [lr], #-1391	; 0xfffffa91
    a674:	20642520 	rsbcs	r2, r4, r0, lsr #10
    a678:	6b61656c 	blvs	1863c30 <__bss_end__+0x1858d88>
    a67c:	000a2173 	andeq	r2, sl, r3, ror r1
    a680:	494e4150 	stmdbmi	lr, {r4, r6, r8, lr}^
    a684:	73253a43 			; <UNDEFINED> instruction: 0x73253a43
    a688:	3a73253a 	bcc	1cd3b78 <__bss_end__+0x1cc8cd0>
    a68c:	643a6425 	ldrtvs	r6, [sl], #-1061	; 0xfffffbdb
    a690:	6e206469 	cdpvs	4, 2, cr6, cr0, cr9, {3}
    a694:	6920746f 	stmdbvs	r0!, {r0, r1, r2, r3, r5, r6, sl, ip, sp, lr}
    a698:	656c706d 	strbvs	r7, [ip, #-109]!	; 0xffffff93
    a69c:	746e656d 	strbtvc	r6, [lr], #-1389	; 0xfffffa93
    a6a0:	6d756420 	cfldrdvs	mvd6, [r5, #-128]!	; 0xffffff80
    a6a4:	65725f70 	ldrbvs	r5, [r2, #-3952]!	; 0xfffff090
    a6a8:	0a217367 	beq	86744c <__bss_end__+0x85c5a4>
    a6ac:	0000000a 	andeq	r0, r0, sl

0000a6b0 <__FUNCTION__.4067>:
    a6b0:	6b72616d 	blvs	1ca2c6c <__bss_end__+0x1c97dc4>
    a6b4:	00000000 	andeq	r0, r0, r0

0000a6b8 <__FUNCTION__.4054>:
    a6b8:	6b726273 	blvs	1ca308c <__bss_end__+0x1c981e4>
    a6bc:	00000000 	andeq	r0, r0, r0

0000a6c0 <__FUNCTION__.4114>:
    a6c0:	63656863 	cmnvs	r5, #6488064	; 0x630000
    a6c4:	6f6e5f6b 	svcvs	0x006e5f6b
    a6c8:	61656c5f 	cmnvs	r5, pc, asr ip
    a6cc:	0000006b 	andeq	r0, r0, fp, rrx

0000a6d0 <__FUNCTION__.4119>:
    a6d0:	63656863 	cmnvs	r5, #6488064	; 0x630000
    a6d4:	68735f6b 	ldmdavs	r3!, {r0, r1, r3, r5, r6, r8, r9, sl, fp, ip, lr}^
    a6d8:	646c756f 	strbtvs	r7, [ip], #-1391	; 0xfffffa91
    a6dc:	61656c5f 	cmnvs	r5, pc, asr ip
    a6e0:	0000006b 	andeq	r0, r0, fp, rrx

0000a6e4 <__FUNCTION__.4137>:
    a6e4:	6c706d69 	ldclvs	13, cr6, [r0], #-420	; 0xfffffe5c
    a6e8:	6e656d65 	cdpvs	13, 6, cr6, cr5, cr5, {3}
    a6ec:	68745f74 	ldmdavs	r4!, {r2, r4, r5, r6, r8, r9, sl, fp, ip, lr}^
    a6f0:	00007369 	andeq	r7, r0, r9, ror #6
    a6f4:	696c2f2e 	stmdbvs	ip!, {r1, r2, r3, r5, r8, r9, sl, fp, sp}^
    a6f8:	762f6362 	strtvc	r6, [pc], -r2, ror #6
    a6fc:	72702d61 	rsbsvc	r2, r0, #6208	; 0x1840
    a700:	6b746e69 	blvs	1d260ac <__bss_end__+0x1d1b204>
    a704:	0000632e 	andeq	r6, r0, lr, lsr #6
    a708:	33323130 	teqcc	r2, #12
    a70c:	37363534 			; <UNDEFINED> instruction: 0x37363534
    a710:	00003938 	andeq	r3, r0, r8, lsr r9
    a714:	33323130 	teqcc	r2, #12
    a718:	37363534 			; <UNDEFINED> instruction: 0x37363534
    a71c:	62613938 	rsbvs	r3, r1, #56, 18	; 0xe0000
    a720:	66656463 	strbtvs	r6, [r5], -r3, ror #8
    a724:	00000000 	andeq	r0, r0, r0
    a728:	00003130 	andeq	r3, r0, r0, lsr r1
    a72c:	63747570 	cmnvs	r4, #112, 10	; 0x1c000000
    a730:	0070665f 	rsbseq	r6, r0, pc, asr r6
    a734:	74646977 	strbtvc	r6, [r4], #-2423	; 0xfffff689
    a738:	203c2068 	eorscs	r2, ip, r8, rrx
    a73c:	00003233 	andeq	r3, r0, r3, lsr r2
    a740:	00786c6c 	rsbseq	r6, r8, ip, ror #24
    a744:	00646c6c 	rsbeq	r6, r4, ip, ror #24
    a748:	253d3078 	ldrcs	r3, [sp, #-120]!	; 0xffffff88
    a74c:	00000a78 	andeq	r0, r0, r8, ror sl
    a750:	253d3178 	ldrcs	r3, [sp, #-376]!	; 0xfffffe88
    a754:	00000a78 	andeq	r0, r0, r8, ror sl
    a758:	6e727473 	mrcvs	4, 3, r7, cr2, cr3, {3}
    a75c:	28706d63 	ldmdacs	r0!, {r0, r1, r5, r6, r8, sl, fp, sp, lr}^
    a760:	202c7974 	eorcs	r7, ip, r4, ror r9
    a764:	786c6c22 	stmdavc	ip!, {r1, r5, sl, fp, sp, lr}^
    a768:	33202c22 			; <UNDEFINED> instruction: 0x33202c22
    a76c:	3d3d2029 	ldccc	0, cr2, [sp, #-164]!	; 0xffffff5c
    a770:	7c203020 	stcvc	0, cr3, [r0], #-128	; 0xffffff80
    a774:	7473207c 	ldrbtvc	r2, [r3], #-124	; 0xffffff84
    a778:	6d636e72 	stclvs	14, cr6, [r3, #-456]!	; 0xfffffe38
    a77c:	79742870 	ldmdbvc	r4!, {r4, r5, r6, fp, sp}^
    a780:	6c22202c 	stcvs	0, cr2, [r2], #-176	; 0xffffff50
    a784:	2c22646c 	cfstrscs	mvf6, [r2], #-432	; 0xfffffe50
    a788:	20293320 	eorcs	r3, r9, r0, lsr #6
    a78c:	30203d3d 	eorcc	r3, r0, sp, lsr sp
    a790:	00000000 	andeq	r0, r0, r0
    a794:	494e4150 	stmdbmi	lr, {r4, r6, r8, lr}^
    a798:	73253a43 			; <UNDEFINED> instruction: 0x73253a43
    a79c:	3a73253a 	bcc	1cd3c8c <__bss_end__+0x1cc8de4>
    a7a0:	693a6425 	ldmdbvs	sl!, {r0, r2, r5, sl, sp, lr}
    a7a4:	736f706d 	cmnvc	pc, #109, 0	; 0x6d
    a7a8:	6c626973 			; <UNDEFINED> instruction: 0x6c626973
    a7ac:	66203a65 	strtvs	r3, [r0], -r5, ror #20
    a7b0:	3c3d746d 	cfldrscc	mvf7, [sp], #-436	; 0xfffffe4c
    a7b4:	0a3e7325 	beq	fa7450 <__bss_end__+0xf9c5a8>
    a7b8:	0000000a 	andeq	r0, r0, sl
    a7bc:	494e4150 	stmdbmi	lr, {r4, r6, r8, lr}^
    a7c0:	73253a43 			; <UNDEFINED> instruction: 0x73253a43
    a7c4:	3a73253a 	bcc	1cd3cb4 <__bss_end__+0x1cc8e0c>
    a7c8:	663a6425 	ldrtvs	r6, [sl], -r5, lsr #8
    a7cc:	74616f6c 	strbtvc	r6, [r1], #-3948	; 0xfffff094
    a7d0:	746f6e20 	strbtvc	r6, [pc], #-3616	; a7d8 <__FUNCTION__.4137+0xf4>
    a7d4:	616e6520 	cmnvs	lr, r0, lsr #10
    a7d8:	64656c62 	strbtvs	r6, [r5], #-3170	; 0xfffff39e
    a7dc:	0a212121 	beq	852c68 <__bss_end__+0x847dc0>
    a7e0:	00000000 	andeq	r0, r0, r0
    a7e4:	6e697270 	mcrvs	2, 3, r7, cr9, cr0, {3}
    a7e8:	203a6b74 	eorscs	r6, sl, r4, ror fp
    a7ec:	20746f6e 	rsbscs	r6, r4, lr, ror #30
    a7f0:	646e6168 	strbtvs	r6, [lr], #-360	; 0xfffffe98
    a7f4:	676e696c 	strbvs	r6, [lr, -ip, ror #18]!
    a7f8:	65707320 	ldrbvs	r7, [r0, #-800]!	; 0xfffffce0
    a7fc:	69666963 	stmdbvs	r6!, {r0, r1, r5, r6, r8, fp, sp, lr}^
    a800:	27207265 	strcs	r7, [r0, -r5, ror #4]!
    a804:	20276325 	eorcs	r6, r7, r5, lsr #6
    a808:	63736128 	cmnvs	r3, #10
    a80c:	253d6969 	ldrcs	r6, [sp, #-2409]!	; 0xfffff697
    a810:	000a2964 	andeq	r2, sl, r4, ror #18
    a814:	494e4150 	stmdbmi	lr, {r4, r6, r8, lr}^
    a818:	73253a43 			; <UNDEFINED> instruction: 0x73253a43
    a81c:	3a73253a 	bcc	1cd3d0c <__bss_end__+0x1cc8e64>
    a820:	703a6425 	eorsvc	r6, sl, r5, lsr #8
    a824:	746e6972 	strbtvc	r6, [lr], #-2418	; 0xfffff68e
    a828:	7265206b 	rsbvc	r2, r5, #107, 0	; 0x6b
    a82c:	0a726f72 	beq	1ca65fc <__bss_end__+0x1c9b754>
    a830:	0000000a 	andeq	r0, r0, sl

0000a834 <__FUNCTION__.4008>:
    a834:	74696d65 	strbtvc	r6, [r9], #-3429	; 0xfffff29b
    a838:	00000000 	andeq	r0, r0, r0

0000a83c <__FUNCTION__.3956>:
    a83c:	5f697072 	svcpl	0x00697072
    a840:	5f746573 	svcpl	0x00746573
    a844:	7074756f 	rsbsvc	r7, r4, pc, ror #10
    a848:	00007475 	andeq	r7, r0, r5, ror r4

0000a84c <__FUNCTION__.4034>:
    a84c:	705f6176 	subsvc	r6, pc, r6, ror r1	; <UNPREDICTABLE>
    a850:	746e6972 	strbtvc	r6, [lr], #-2418	; 0xfffff68e
    a854:	0000006b 	andeq	r0, r0, fp, rrx
    a858:	454e4f44 	strbmi	r4, [lr, #-3908]	; 0xfffff0bc
    a85c:	0a212121 	beq	852ce8 <__bss_end__+0x847e40>
    a860:	00000000 	andeq	r0, r0, r0
    a864:	6c616d6b 	stclvs	13, cr6, [r1], #-428	; 0xfffffe54
    a868:	2e636f6c 	cdpcs	15, 6, cr6, cr3, cr12, {3}
    a86c:	00000063 	andeq	r0, r0, r3, rrx
    a870:	5f78616d 	svcpl	0x0078616d
    a874:	7479626e 	ldrbtvc	r6, [r9], #-622	; 0xfffffd92
    a878:	00007365 	andeq	r7, r0, r5, ror #6
    a87c:	494e4150 	stmdbmi	lr, {r4, r6, r8, lr}^
    a880:	73253a43 			; <UNDEFINED> instruction: 0x73253a43
    a884:	3a73253a 	bcc	1cd3d74 <__bss_end__+0x1cc8ecc>
    a888:	733a6425 	teqvc	sl, #620756992	; 0x25000000
    a88c:	69747465 	ldmdbvs	r4!, {r0, r2, r5, r6, sl, ip, sp, lr}^
    a890:	6820676e 	stmdavs	r0!, {r1, r2, r3, r5, r6, r8, r9, sl, sp, lr}
    a894:	20706165 	rsbscs	r6, r0, r5, ror #2
    a898:	25206f74 	strcs	r6, [r0, #-3956]!	; 0xfffff08c
    a89c:	77203a70 			; <UNDEFINED> instruction: 0x77203a70
    a8a0:	206c6c69 	rsbcs	r6, ip, r9, ror #24
    a8a4:	20746968 	rsbscs	r6, r4, r8, ror #18
    a8a8:	20656874 	rsbcs	r6, r5, r4, ror r8
    a8ac:	20646c6f 	rsbcs	r6, r4, pc, ror #24
    a8b0:	70616568 	rsbvc	r6, r1, r8, ror #10
    a8b4:	20746120 	rsbscs	r6, r4, r0, lsr #2
    a8b8:	0a0a7025 	beq	2a6954 <__bss_end__+0x29baac>
    a8bc:	00000000 	andeq	r0, r0, r0
    a8c0:	494e4150 	stmdbmi	lr, {r4, r6, r8, lr}^
    a8c4:	73253a43 			; <UNDEFINED> instruction: 0x73253a43
    a8c8:	3a73253a 	bcc	1cd3db8 <__bss_end__+0x1cc8f10>
    a8cc:	613a6425 	teqvs	sl, r5, lsr #8
    a8d0:	6165726c 	cmnvs	r5, ip, ror #4
    a8d4:	63207964 			; <UNDEFINED> instruction: 0x63207964
    a8d8:	656c6c61 	strbvs	r6, [ip, #-3169]!	; 0xfffff39f
    a8dc:	6d6b2064 	stclvs	0, cr2, [fp, #-400]!	; 0xfffffe70
    a8e0:	6f6c6c61 	svcvs	0x006c6c61
    a8e4:	6e695f63 	cdpvs	15, 6, cr5, cr9, cr3, {3}
    a8e8:	0a0a7469 	beq	2a7a94 <__bss_end__+0x29cbec>
    a8ec:	00000000 	andeq	r0, r0, r0
    a8f0:	494e4150 	stmdbmi	lr, {r4, r6, r8, lr}^
    a8f4:	73253a43 			; <UNDEFINED> instruction: 0x73253a43
    a8f8:	3a73253a 	bcc	1cd3de8 <__bss_end__+0x1cc8f40>
    a8fc:	253a6425 	ldrcs	r6, [sl, #-1061]!	; 0xfffffbdb
    a900:	626e2064 	rsbvs	r2, lr, #100, 0	; 0x64
    a904:	73657479 	cmnvc	r5, #2030043136	; 0x79000000
    a908:	63786520 	cmnvs	r8, #32, 10	; 0x8000000
    a90c:	65646565 	strbvs	r6, [r4, #-1381]!	; 0xfffffa9b
    a910:	69732064 	ldmdbvs	r3!, {r2, r5, r6, sp}^
    a914:	6f20657a 	svcvs	0x0020657a
    a918:	65682066 	strbvs	r2, [r8, #-102]!	; 0xffffff9a
    a91c:	62207061 	eorvs	r7, r0, #97, 0	; 0x61
    a920:	75252079 	strvc	r2, [r5, #-121]!	; 0xffffff87
    a924:	79626e20 	stmdbvc	r2!, {r5, r9, sl, fp, sp, lr}^
    a928:	0a736574 	beq	1ce3f00 <__bss_end__+0x1cd9058>
    a92c:	0000000a 	andeq	r0, r0, sl
    a930:	4f525245 	svcmi	0x00525245
    a934:	73253a52 			; <UNDEFINED> instruction: 0x73253a52
    a938:	3a73253a 	bcc	1cd3e28 <__bss_end__+0x1cc8f80>
    a93c:	203a6425 	eorscs	r6, sl, r5, lsr #8
    a940:	534c4146 	movtpl	r4, #49478	; 0xc146
    a944:	253c2845 	ldrcs	r2, [ip, #-2117]!	; 0xfffff7bb
    a948:	3a293e73 	bcc	a5a31c <__bss_end__+0xa4f474>
    a94c:	73736120 	cmnvc	r3, #8
    a950:	6e696d75 	mcrvs	13, 3, r6, cr9, cr5, {3}
    a954:	6f702067 	svcvs	0x00702067
    a958:	20726577 	rsbscs	r6, r2, r7, ror r5
    a95c:	7420666f 	strtvc	r6, [r0], #-1647	; 0xfffff991
    a960:	000a6f77 	andeq	r6, sl, r7, ror pc
    a964:	705f7369 	subsvc	r7, pc, r9, ror #6
    a968:	2832776f 	ldmdacs	r2!, {r0, r1, r2, r3, r5, r6, r8, r9, sl, ip, sp, lr}
    a96c:	67696c61 	strbvs	r6, [r9, -r1, ror #24]!
    a970:	6e656d6e 	cdpvs	13, 6, cr6, cr5, cr14, {3}
    a974:	00002974 	andeq	r2, r0, r4, ror r9
    a978:	705f7369 	subsvc	r7, pc, r9, ror #6
    a97c:	2832776f 	ldmdacs	r2!, {r0, r1, r2, r3, r5, r6, r8, r9, sl, ip, sp, lr}
    a980:	0000296e 	andeq	r2, r0, lr, ror #18
    a984:	4f525245 	svcmi	0x00525245
    a988:	73253a52 			; <UNDEFINED> instruction: 0x73253a52
    a98c:	3a73253a 	bcc	1cd3e7c <__bss_end__+0x1cc8fd4>
    a990:	203a6425 	eorscs	r6, sl, r5, lsr #8
    a994:	534c4146 	movtpl	r4, #49478	; 0xc146
    a998:	253c2845 	ldrcs	r2, [ip, #-2117]!	; 0xfffff7bb
    a99c:	3a293e73 	bcc	a5a370 <__bss_end__+0xa4f4c8>
    a9a0:	706d6920 	rsbvc	r6, sp, r0, lsr #18
    a9a4:	6973736f 	ldmdbvs	r3!, {r0, r1, r2, r3, r5, r6, r8, r9, ip, sp, lr}^
    a9a8:	0a656c62 	beq	1965b38 <__bss_end__+0x195ac90>
    a9ac:	00000000 	andeq	r0, r0, r0
    a9b0:	615f7369 	cmpvs	pc, r9, ror #6
    a9b4:	6e67696c 	vnmulvs.f16	s13, s14, s25	; <UNPREDICTABLE>
    a9b8:	68286465 	stmdavs	r8!, {r0, r2, r5, r6, sl, sp, lr}
    a9bc:	6c61202c 	stclvs	0, cr2, [r1], #-176	; 0xffffff50
    a9c0:	6d6e6769 	stclvs	7, cr6, [lr, #-420]!	; 0xfffffe5c
    a9c4:	29746e65 	ldmdbcs	r4!, {r0, r2, r5, r6, r9, sl, fp, sp, lr}^
    a9c8:	00000000 	andeq	r0, r0, r0
    a9cc:	494e4150 	stmdbmi	lr, {r4, r6, r8, lr}^
    a9d0:	73253a43 			; <UNDEFINED> instruction: 0x73253a43
    a9d4:	3a73253a 	bcc	1cd3ec4 <__bss_end__+0x1cc901c>
    a9d8:	703a6425 	eorsvc	r6, sl, r5, lsr #8
    a9dc:	746e696f 	strbtvc	r6, [lr], #-2415	; 0xfffff691
    a9e0:	25207265 	strcs	r7, [r0, #-613]!	; 0xfffffd9b
    a9e4:	61772070 	cmnvs	r7, r0, ror r0
    a9e8:	656e2073 	strbvs	r2, [lr, #-115]!	; 0xffffff8d
    a9ec:	20726576 	rsbscs	r6, r2, r6, ror r5
    a9f0:	6f6c6c61 	svcvs	0x006c6c61
    a9f4:	65746163 	ldrbvs	r6, [r4, #-355]!	; 0xfffffe9d
    a9f8:	000a0a64 	andeq	r0, sl, r4, ror #20

0000a9fc <__FUNCTION__.7>:
    a9fc:	6c616d6b 	stclvs	13, cr6, [r1], #-428	; 0xfffffe54
    aa00:	5f636f6c 	svcpl	0x00636f6c
    aa04:	74696e69 	strbtvc	r6, [r9], #-3689	; 0xfffff197
    aa08:	7465735f 	strbtvc	r7, [r5], #-863	; 0xfffffca1
    aa0c:	6174735f 	cmnvs	r4, pc, asr r3
    aa10:	00007472 	andeq	r7, r0, r2, ror r4

0000aa14 <__FUNCTION__.5>:
    aa14:	6c616d6b 	stclvs	13, cr6, [r1], #-428	; 0xfffffe54
    aa18:	5f636f6c 	svcpl	0x00636f6c
    aa1c:	74696e69 	strbtvc	r6, [r9], #-3689	; 0xfffff197
    aa20:	00000000 	andeq	r0, r0, r0

0000aa24 <__FUNCTION__.4>:
    aa24:	6c616d6b 	stclvs	13, cr6, [r1], #-428	; 0xfffffe54
    aa28:	5f636f6c 	svcpl	0x00636f6c
    aa2c:	7a746f6e 	bvc	1d267ec <__bss_end__+0x1d1b944>
    aa30:	006f7265 	rsbeq	r7, pc, r5, ror #4

0000aa34 <__FUNCTION__.2>:
    aa34:	6c616d6b 	stclvs	13, cr6, [r1], #-428	; 0xfffffe54
    aa38:	00636f6c 	rsbeq	r6, r3, ip, ror #30

0000aa3c <__FUNCTION__.1>:
    aa3c:	6c616d6b 	stclvs	13, cr6, [r1], #-428	; 0xfffffe54
    aa40:	5f636f6c 	svcpl	0x00636f6c
    aa44:	67696c61 	strbvs	r6, [r9, -r1, ror #24]!
    aa48:	0064656e 	rsbeq	r6, r4, lr, ror #10

0000aa4c <__FUNCTION__.3>:
    aa4c:	6e756f72 	mrcvs	15, 3, r6, cr5, cr2, {3}
    aa50:	00707564 	rsbseq	r7, r0, r4, ror #10

0000aa54 <__FUNCTION__.0>:
    aa54:	6572666b 	ldrbvs	r6, [r2, #-1643]!	; 0xfffff995
    aa58:	6f705f65 	svcvs	0x00705f65
    aa5c:	Address 0x000000000000aa5c is out of bounds.


Disassembly of section .data:

0000aa60 <__data_start__>:
    aa60:	00000001 	andeq	r0, r0, r1

0000aa64 <putk>:
    aa64:	00008f58 	andeq	r8, r0, r8, asr pc

0000aa68 <heap_end>:
    aa68:	0020aea8 	eoreq	sl, r0, r8, lsr #29

0000aa6c <heap_start>:
    aa6c:	0000aea8 	andeq	sl, r0, r8, lsr #29

0000aa70 <heap>:
    aa70:	0000aea8 	andeq	sl, r0, r8, lsr #29

0000aa74 <rpi_putchar>:
    aa74:	00009ddc 	ldrdeq	r9, [r0], -ip

Disassembly of section .bss:

0000aa78 <__bss_start__>:
    aa78:	00000000 	andeq	r0, r0, r0

0000aa7c <alloc_list>:
    aa7c:	00000000 	andeq	r0, r0, r0

0000aa80 <heap_start>:
    aa80:	00000000 	andeq	r0, r0, r0

0000aa84 <heap_end>:
    aa84:	00000000 	andeq	r0, r0, r0

0000aa88 <init_p>:
	...

0000aa90 <freep>:
	...

0000aa98 <base>:
	...

0000aaa0 <buf.3948>:
	...

0000aea0 <init_p.6>:
	...

Disassembly of section .ARM.attributes:

00000000 <.ARM.attributes>:
   0:	00002a41 	andeq	r2, r0, r1, asr #20
   4:	61656100 	cmnvs	r5, r0, lsl #2
   8:	01006962 	tsteq	r0, r2, ror #18
   c:	00000020 	andeq	r0, r0, r0, lsr #32
  10:	4b5a3605 	blmi	168d82c <__bss_end__+0x1682984>
  14:	08070600 	stmdaeq	r7, {r9, sl}
  18:	12010901 	andne	r0, r1, #16384	; 0x4000
  1c:	15011404 	strne	r1, [r1, #-1028]	; 0xfffffbfc
  20:	18031701 	stmdane	r3, {r0, r8, r9, sl, ip}
  24:	22011a01 	andcs	r1, r1, #4096	; 0x1000
  28:	Address 0x0000000000000028 is out of bounds.


Disassembly of section .comment:

00000000 <.comment>:
   0:	3a434347 	bcc	10d0d24 <__bss_end__+0x10c5e7c>
   4:	4e472820 	cdpmi	8, 4, cr2, cr7, cr0, {1}
   8:	6f542055 	svcvs	0x00542055
   c:	20736c6f 	rsbscs	r6, r3, pc, ror #24
  10:	20726f66 	rsbscs	r6, r2, r6, ror #30
  14:	206d7241 	rsbcs	r7, sp, r1, asr #4
  18:	65626d45 	strbvs	r6, [r2, #-3397]!	; 0xfffff2bb
  1c:	64656464 	strbtvs	r6, [r5], #-1124	; 0xfffffb9c
  20:	6f725020 	svcvs	0x00725020
  24:	73736563 	cmnvc	r3, #415236096	; 0x18c00000
  28:	2073726f 	rsbscs	r7, r3, pc, ror #4
  2c:	30322d39 	eorscc	r2, r2, r9, lsr sp
  30:	712d3931 			; <UNDEFINED> instruction: 0x712d3931
  34:	616d2d34 	cmnvs	sp, r4, lsr sp
  38:	29726f6a 	ldmdbcs	r2!, {r1, r3, r5, r6, r8, r9, sl, fp, sp, lr}^
  3c:	322e3920 	eorcc	r3, lr, #32, 18	; 0x80000
  40:	3220312e 	eorcc	r3, r0, #-2147483637	; 0x8000000b
  44:	31393130 	teqcc	r9, r0, lsr r1
  48:	20353230 	eorscs	r3, r5, r0, lsr r2
  4c:	6c657228 	sfmvs	f7, 2, [r5], #-160	; 0xffffff60
  50:	65736165 	ldrbvs	r6, [r3, #-357]!	; 0xfffffe9b
  54:	415b2029 	cmpmi	fp, r9, lsr #32
  58:	612f4d52 			; <UNDEFINED> instruction: 0x612f4d52
  5c:	392d6d72 	pushcc	{r1, r4, r5, r6, r8, sl, fp, sp, lr}
  60:	6172622d 	cmnvs	r2, sp, lsr #4
  64:	2068636e 	rsbcs	r6, r8, lr, ror #6
  68:	69766572 	ldmdbvs	r6!, {r1, r4, r5, r6, r8, sl, sp, lr}^
  6c:	6e6f6973 			; <UNDEFINED> instruction: 0x6e6f6973
  70:	37373220 	ldrcc	r3, [r7, -r0, lsr #4]!
  74:	5d393935 			; <UNDEFINED> instruction: 0x5d393935
  78:	43434700 	movtmi	r4, #14080	; 0x3700
  7c:	4728203a 			; <UNDEFINED> instruction: 0x4728203a
  80:	4120554e 			; <UNDEFINED> instruction: 0x4120554e
  84:	45206d72 	strmi	r6, [r0, #-3442]!	; 0xfffff28e
  88:	6465626d 	strbtvs	r6, [r5], #-621	; 0xfffffd93
  8c:	20646564 	rsbcs	r6, r4, r4, ror #10
  90:	6c6f6f54 	stclvs	15, cr6, [pc], #-336	; ffffff48 <__bss_end__+0xffff50a0>
  94:	69616863 	stmdbvs	r1!, {r0, r1, r5, r6, fp, sp, lr}^
  98:	3031206e 	eorscc	r2, r1, lr, rrx
  9c:	322d332e 	eorcc	r3, sp, #-1207959552	; 0xb8000000
  a0:	2e313230 	mrccs	2, 1, r3, cr1, cr0, {1}
  a4:	20293031 	eorcs	r3, r9, r1, lsr r0
  a8:	332e3031 			; <UNDEFINED> instruction: 0x332e3031
  ac:	3220312e 	eorcc	r3, r0, #-2147483637	; 0x8000000b
  b0:	30313230 	eorscc	r3, r1, r0, lsr r2
  b4:	20343238 	eorscs	r3, r4, r8, lsr r2
  b8:	6c657228 	sfmvs	f7, 2, [r5], #-160	; 0xffffff60
  bc:	65736165 	ldrbvs	r6, [r3, #-357]!	; 0xfffffe9b
  c0:	Address 0x00000000000000c0 is out of bounds.


Disassembly of section .debug_info:

00000000 <.debug_info>:
       0:	000004cd 	andeq	r0, r0, sp, asr #9
       4:	00000004 	andeq	r0, r0, r4
       8:	01040000 	mrseq	r0, (UNDEF: 4)
       c:	00000197 	muleq	r0, r7, r1
      10:	00024c0c 	andeq	r4, r2, ip, lsl #24
      14:	00013f00 	andeq	r3, r1, r0, lsl #30
      18:	00803800 	addeq	r3, r0, r0, lsl #16
      1c:	00010c00 	andeq	r0, r1, r0, lsl #24
      20:	00000000 	andeq	r0, r0, r0
      24:	05040200 	streq	r0, [r4, #-512]	; 0xfffffe00
      28:	00746e69 	rsbseq	r6, r4, r9, ror #28
      2c:	fe070403 	cdp2	4, 0, cr0, cr7, cr3, {0}
      30:	03000000 	movweq	r0, #0
      34:	00d60601 	sbcseq	r0, r6, r1, lsl #12
      38:	02030000 	andeq	r0, r3, #0, 0
      3c:	00002a05 	andeq	r2, r0, r5, lsl #20
      40:	05040300 	streq	r0, [r4, #-768]	; 0xfffffd00
      44:	0000006b 	andeq	r0, r0, fp, rrx
      48:	66050803 	strvs	r0, [r5], -r3, lsl #16
      4c:	04000000 	streq	r0, [r0], #-0
      50:	00000045 	andeq	r0, r0, r5, asr #32
      54:	5b182e04 	blpl	60b86c <__bss_end__+0x6009c4>
      58:	03000000 	movweq	r0, #0
      5c:	00d40801 	sbcseq	r0, r4, r1, lsl #16
      60:	14040000 	strne	r0, [r4], #-0
      64:	04000001 	streq	r0, [r0], #-1
      68:	006e1931 	rsbeq	r1, lr, r1, lsr r9
      6c:	02030000 	andeq	r0, r3, #0, 0
      70:	00012507 	andeq	r2, r1, r7, lsl #10
      74:	010b0400 	tsteq	fp, r0, lsl #8
      78:	34040000 	strcc	r0, [r4], #-0
      7c:	00008119 	andeq	r8, r0, r9, lsl r1
      80:	07040300 	streq	r0, [r4, -r0, lsl #6]
      84:	000000f9 	strdeq	r0, [r0], -r9
      88:	f4070803 	vst2.8	{d0-d1}, [r7], r3
      8c:	05000000 	streq	r0, [r0, #-0]
      90:	00000025 	andeq	r0, r0, r5, lsr #32
      94:	0000009e 	muleq	r0, lr, r0
      98:	00002506 	andeq	r2, r0, r6, lsl #10
      9c:	34070000 	strcc	r0, [r7], #-0
      a0:	05000000 	streq	r0, [r0, #-0]
      a4:	00aa0e1c 	adceq	r0, sl, ip, lsl lr
      a8:	04080000 	streq	r0, [r8], #-0
      ac:	0000008f 	andeq	r0, r0, pc, lsl #1
      b0:	00002505 	andeq	r2, r0, r5, lsl #10
      b4:	0000bf00 	andeq	fp, r0, r0, lsl #30
      b8:	00bf0600 	adcseq	r0, pc, r0, lsl #12
      bc:	08000000 	stmdaeq	r0, {}	; <UNPREDICTABLE>
      c0:	0000cc04 	andeq	ip, r0, r4, lsl #24
      c4:	08010300 	stmdaeq	r1, {r8, r9}
      c8:	000000dd 	ldrdeq	r0, [r0], -sp
      cc:	0000c509 	andeq	ip, r0, r9, lsl #10
      d0:	072f0700 	streq	r0, [pc, -r0, lsl #14]!
      d4:	21050000 	mrscs	r0, (UNDEF: 5)
      d8:	0000dd0e 	andeq	sp, r0, lr, lsl #26
      dc:	b0040800 	andlt	r0, r4, r0, lsl #16
      e0:	0a000000 	beq	e8 <__code_start__-0x7f18>
      e4:	0904030c 	stmdbeq	r4, {r2, r3, r8, r9}
      e8:	00000114 	andeq	r0, r0, r4, lsl r1
      ec:	0000400b 	andeq	r4, r0, fp
      f0:	11060300 	mrsne	r0, LR_und
      f4:	000000bf 	strheq	r0, [r0], -pc	; <UNPREDICTABLE>
      f8:	00610b00 	rsbeq	r0, r1, r0, lsl #22
      fc:	07030000 	streq	r0, [r3, -r0]
     100:	0000bf11 	andeq	fp, r0, r1, lsl pc
     104:	ed0b0400 	cfstrs	mvf0, [fp, #-0]
     108:	03000000 	movweq	r0, #0
     10c:	002c0e08 	eoreq	r0, ip, r8, lsl #28
     110:	00080000 	andeq	r0, r8, r0
     114:	00028904 	andeq	r8, r2, r4, lsl #18
     118:	03090300 	movweq	r0, #37632	; 0x9300
     11c:	000000e3 	andeq	r0, r0, r3, ror #1
     120:	00004d0c 	andeq	r4, r0, ip, lsl #26
     124:	110c0100 	mrsne	r0, (UNDEF: 28)
     128:	0000002c 	andeq	r0, r0, ip, lsr #32
     12c:	00970d01 	addseq	r0, r7, r1, lsl #26
     130:	01a80000 			; <UNDEFINED> instruction: 0x01a80000
     134:	01bd1010 			; <UNDEFINED> instruction: 0x01bd1010
     138:	840b0000 	strhi	r0, [fp], #-0
     13c:	01000002 	tsteq	r0, r2
     140:	01bd1411 			; <UNDEFINED> instruction: 0x01bd1411
     144:	0b000000 	bleq	14c <__code_start__-0x7eb4>
     148:	0000026c 	andeq	r0, r0, ip, ror #4
     14c:	750e1201 	strvc	r1, [lr, #-513]	; 0xfffffdff
     150:	04000000 	streq	r0, [r0], #-0
     154:	0000180b 	andeq	r1, r0, fp, lsl #16
     158:	0e130100 	mufeqs	f0, f3, f0
     15c:	00000075 	andeq	r0, r0, r5, ror r0
     160:	00520b08 	subseq	r0, r2, r8, lsl #22
     164:	17010000 	strne	r0, [r1, -r0]
     168:	0000750e 	andeq	r7, r0, lr, lsl #10
     16c:	ab0b0c00 	blge	2c3174 <__bss_end__+0x2b82cc>
     170:	01000000 	mrseq	r0, (UNDEF: 0)
     174:	01140f19 	tsteq	r4, r9, lsl pc
     178:	0b100000 	bleq	400180 <__bss_end__+0x3f52d8>
     17c:	000000e2 	andeq	r0, r0, r2, ror #1
     180:	750e1c01 	strvc	r1, [lr, #-3073]	; 0xfffff3ff
     184:	1c000000 	stcne	0, cr0, [r0], {-0}
     188:	00001e0b 	andeq	r1, r0, fp, lsl #28
     18c:	0e1d0100 	mufeqe	f0, f5, f0
     190:	00000075 	andeq	r0, r0, r5, ror r0
     194:	00c20b20 	sbceq	r0, r2, r0, lsr #22
     198:	1f010000 	svcne	0x00010000
     19c:	0000620e 	andeq	r6, r0, lr, lsl #4
     1a0:	380b2400 	stmdacc	fp, {sl, sp}
     1a4:	01000001 	tsteq	r0, r1
     1a8:	00620b20 	rsbeq	r0, r2, r0, lsr #22
     1ac:	0e260000 	cdpeq	0, 2, cr0, cr6, cr0, {0}
     1b0:	00317a72 	eorseq	r7, r1, r2, ror sl
     1b4:	c30d2201 	movwgt	r2, #53761	; 0xd201
     1b8:	28000001 	stmdacs	r0, {r0}
     1bc:	2d040800 	stccs	8, cr0, [r4, #-0]
     1c0:	0f000001 	svceq	0x00000001
     1c4:	0000004f 	andeq	r0, r0, pc, asr #32
     1c8:	000001d3 	ldrdeq	r0, [r0], -r3
     1cc:	00002c10 	andeq	r2, r0, r0, lsl ip
     1d0:	04007f00 	streq	r7, [r0], #-3840	; 0xfffff100
     1d4:	00000012 	andeq	r0, r0, r2, lsl r0
     1d8:	2d032301 	stccs	3, cr2, [r3, #-4]
     1dc:	11000001 	tstne	r0, r1
     1e0:	00000074 	andeq	r0, r0, r4, ror r0
     1e4:	eb0f2501 	bl	3c95f0 <__bss_end__+0x3be748>
     1e8:	08000001 	stmdaeq	r0, {r0}
     1ec:	0001d304 	andeq	sp, r1, r4, lsl #6
     1f0:	00000c00 	andeq	r0, r0, r0, lsl #24
     1f4:	26010000 	strcs	r0, [r1], -r0
     1f8:	0001eb0f 	andeq	lr, r1, pc, lsl #22
     1fc:	04120000 	ldreq	r0, [r2], #-0
     200:	0000c707 	andeq	ip, r0, r7, lsl #14
     204:	11ad0100 			; <UNDEFINED> instruction: 0x11ad0100
     208:	0000002c 	andeq	r0, r0, ip, lsr #32
     20c:	00011d13 	andeq	r1, r1, r3, lsl sp
     210:	06110200 	ldreq	r0, [r1], -r0, lsl #4
     214:	000080a0 	andeq	r8, r0, r0, lsr #1
     218:	000000a4 	andeq	r0, r0, r4, lsr #1
     21c:	03349c01 	teqeq	r4, #256	; 0x100
     220:	70140000 	andsvc	r0, r4, r0
     224:	0b150200 	bleq	540a2c <__bss_end__+0x535b84>
     228:	00000334 	andeq	r0, r0, r4, lsr r3
     22c:	00000006 	andeq	r0, r0, r6
     230:	00000000 	andeq	r0, r0, r0
     234:	00009e15 	andeq	r9, r0, r5, lsl lr
     238:	00034a00 	andeq	r4, r3, r0, lsl #20
     23c:	08030500 	stmdaeq	r3, {r8, sl}
     240:	160000a1 	strne	r0, [r0], -r1, lsr #1
     244:	000080b0 	strheq	r8, [r0], -r0
     248:	00000496 	muleq	r0, r6, r4
     24c:	0000025a 	andeq	r0, r0, sl, asr r2
     250:	05500117 	ldrbeq	r0, [r0, #-279]	; 0xfffffee9
     254:	00a04803 	adceq	r4, r0, r3, lsl #16
     258:	b4180000 	ldrlt	r0, [r8], #-0
     25c:	4f000080 	svcmi	0x00000080
     260:	16000003 	strne	r0, [r0], -r3
     264:	000080c4 	andeq	r8, r0, r4, asr #1
     268:	00000496 	muleq	r0, r6, r4
     26c:	00000280 	andeq	r0, r0, r0, lsl #5
     270:	05500117 	ldrbeq	r0, [r0, #-279]	; 0xfffffee9
     274:	00a05403 	adceq	r5, r0, r3, lsl #8
     278:	51011700 	tstpl	r1, r0, lsl #14
     27c:	00007402 	andeq	r7, r0, r2, lsl #8
     280:	0080cc16 	addeq	ip, r0, r6, lsl ip
     284:	0004a200 	andeq	sl, r4, r0, lsl #4
     288:	00029300 	andeq	r9, r2, r0, lsl #6
     28c:	50011700 	andpl	r1, r1, r0, lsl #14
     290:	16003001 	strne	r3, [r0], -r1
     294:	000080dc 	ldrdeq	r8, [r0], -ip
     298:	000004a2 	andeq	r0, r0, r2, lsr #9
     29c:	000002a6 	andeq	r0, r0, r6, lsr #5
     2a0:	01500117 	cmpeq	r0, r7, lsl r1
     2a4:	ec160031 	ldc	0, cr0, [r6], {49}	; 0x31
     2a8:	96000080 	strls	r0, [r0], -r0, lsl #1
     2ac:	bd000004 	stclt	0, cr0, [r0, #-16]
     2b0:	17000002 	strne	r0, [r0, -r2]
     2b4:	03055001 	movweq	r5, #20481	; 0x5001
     2b8:	0000a0a0 	andeq	sl, r0, r0, lsr #1
     2bc:	81081600 	tsthi	r8, r0, lsl #12
     2c0:	04960000 	ldreq	r0, [r6], #0
     2c4:	02eb0000 	rsceq	r0, fp, #0, 0
     2c8:	01170000 	tsteq	r7, r0
     2cc:	70030550 	andvc	r0, r3, r0, asr r5
     2d0:	170000a0 	strne	r0, [r0, -r0, lsr #1]
     2d4:	03055101 	movweq	r5, #20737	; 0x5101
     2d8:	0000a000 	andeq	sl, r0, r0
     2dc:	05520117 	ldrbeq	r0, [r2, #-279]	; 0xfffffee9
     2e0:	00a10803 	adceq	r0, r1, r3, lsl #16
     2e4:	53011700 	movwpl	r1, #5888	; 0x1700
     2e8:	18004b01 	stmdane	r0, {r0, r8, r9, fp, lr}
     2ec:	0000810c 	andeq	r8, r0, ip, lsl #2
     2f0:	000004ae 	andeq	r0, r0, lr, lsr #9
     2f4:	00812416 	addeq	r2, r1, r6, lsl r4
     2f8:	00049600 	andeq	r9, r4, r0, lsl #12
     2fc:	00032a00 	andeq	r2, r3, r0, lsl #20
     300:	50011700 	andpl	r1, r1, r0, lsl #14
     304:	a0c80305 	sbcge	r0, r8, r5, lsl #6
     308:	01170000 	tsteq	r7, r0
     30c:	00030551 	andeq	r0, r3, r1, asr r5
     310:	170000a0 	strne	r0, [r0, -r0, lsr #1]
     314:	03055201 	movweq	r5, #20993	; 0x5201
     318:	0000a108 	andeq	sl, r0, r8, lsl #2
     31c:	02530117 	subseq	r0, r3, #-1073741819	; 0xc0000005
     320:	02172008 	andseq	r2, r7, #8, 0
     324:	7402007d 	strvc	r0, [r2], #-125	; 0xffffff83
     328:	28180000 	ldmdacs	r8, {}	; <UNPREDICTABLE>
     32c:	ae000081 	cdpge	0, 0, cr0, cr0, cr1, {4}
     330:	00000004 	andeq	r0, r0, r4
     334:	00c50408 	sbceq	r0, r5, r8, lsl #8
     338:	cc0f0000 	stcgt	0, cr0, [pc], {-0}
     33c:	4a000000 	bmi	344 <__code_start__-0x7cbc>
     340:	10000003 	andne	r0, r0, r3
     344:	0000002c 	andeq	r0, r0, ip, lsr #32
     348:	3a090007 	bcc	24036c <__bss_end__+0x2354c4>
     34c:	19000003 	stmdbne	r0, {r0, r1}
     350:	0000005b 	andeq	r0, r0, fp, asr r0
     354:	34070a02 	strcc	r0, [r7], #-2562	; 0xfffff5fe
     358:	40000003 	andmi	r0, r0, r3
     35c:	60000080 	andvs	r0, r0, r0, lsl #1
     360:	01000000 	mrseq	r0, (UNDEF: 0)
     364:	00040c9c 	muleq	r4, ip, ip
     368:	00701400 	rsbseq	r1, r0, r0, lsl #8
     36c:	340b0c02 	strcc	r0, [fp], #-3074	; 0xfffff3fe
     370:	35000003 	strcc	r0, [r0, #-3]
     374:	2f000000 	svccs	0x00000000
     378:	15000000 	strne	r0, [r0, #-0]
     37c:	0000009e 	muleq	r0, lr, r0
     380:	0000041c 	andeq	r0, r0, ip, lsl r4
     384:	a1000305 	tstge	r0, r5, lsl #6
     388:	601a0000 	andsvs	r0, sl, r0
     38c:	48000004 	stmdami	r0, {r2}
     390:	01000080 	smlabbeq	r0, r0, r0, r0
     394:	00008048 	andeq	r8, r0, r8, asr #32
     398:	00000018 	andeq	r0, r0, r8, lsl r0
     39c:	cb0f0c02 	blgt	3c33ac <__bss_end__+0x3b8504>
     3a0:	1b000003 	blne	3b4 <__code_start__-0x7c4c>
     3a4:	00000489 	andeq	r0, r0, r9, lsl #9
     3a8:	00000062 	andeq	r0, r0, r2, rrx
     3ac:	00000060 	andeq	r0, r0, r0, rrx
     3b0:	00047d1b 	andeq	r7, r4, fp, lsl sp
     3b4:	00007800 	andeq	r7, r0, r0, lsl #16
     3b8:	00007600 	andeq	r7, r0, r0, lsl #12
     3bc:	04711b00 	ldrbteq	r1, [r1], #-2816	; 0xfffff500
     3c0:	00920000 	addseq	r0, r2, r0
     3c4:	00900000 	addseq	r0, r0, r0
     3c8:	16000000 	strne	r0, [r0], -r0
     3cc:	00008070 	andeq	r8, r0, r0, ror r0
     3d0:	000004c4 	andeq	r0, r0, r4, asr #9
     3d4:	000003de 	ldrdeq	r0, [r0], -lr
     3d8:	01500117 	cmpeq	r0, r7, lsl r1
     3dc:	78160034 	ldmdavc	r6, {r2, r4, r5}
     3e0:	21000080 	smlabbcs	r0, r0, r0, r0
     3e4:	f2000004 	vhadd.s8	d0, d0, d4
     3e8:	17000003 	strne	r0, [r0, -r3]
     3ec:	74025001 	strvc	r5, [r2], #-1
     3f0:	881c0000 	ldmdahi	ip, {}	; <UNPREDICTABLE>
     3f4:	96000080 	strls	r0, [r0], -r0, lsl #1
     3f8:	17000004 	strne	r0, [r0, -r4]
     3fc:	03055001 	movweq	r5, #20481	; 0x5001
     400:	0000a020 	andeq	sl, r0, r0, lsr #32
     404:	02520117 	subseq	r0, r2, #-1073741819	; 0xc0000005
     408:	00000074 	andeq	r0, r0, r4, ror r0
     40c:	0000cc0f 	andeq	ip, r0, pc, lsl #24
     410:	00041c00 	andeq	r1, r4, r0, lsl #24
     414:	002c1000 	eoreq	r1, ip, r0
     418:	00050000 	andeq	r0, r5, r0
     41c:	00040c09 	andeq	r0, r4, r9, lsl #24
     420:	007f1d00 	rsbseq	r1, pc, r0, lsl #26
     424:	29010000 	stmdbcs	r1, {}	; <UNPREDICTABLE>
     428:	00002c11 	andeq	r2, r0, r1, lsl ip
     42c:	00803800 	addeq	r3, r0, r0, lsl #16
     430:	00000800 	andeq	r0, r0, r0, lsl #16
     434:	609c0100 	addsvs	r0, ip, r0, lsl #2
     438:	1e000004 	cdpne	0, 0, cr0, cr0, cr4, {0}
     43c:	29010070 	stmdbcs	r1, {r4, r5, r6}
     440:	0001fe21 	andeq	pc, r1, r1, lsr #28
     444:	0000ae00 	andeq	sl, r0, r0, lsl #28
     448:	0000aa00 	andeq	sl, r0, r0, lsl #20
     44c:	00681400 	rsbeq	r1, r8, r0, lsl #8
     450:	eb0c2a01 	bl	30ac5c <__bss_end__+0x2ffdb4>
     454:	d3000001 	movwle	r0, #1
     458:	cf000000 	svcgt	0x00000000
     45c:	00000000 	andeq	r0, r0, r0
     460:	0002791f 	andeq	r7, r2, pc, lsl r9
     464:	0b0c0300 	bleq	30106c <__bss_end__+0x2f61c4>
     468:	00000114 	andeq	r0, r0, r4, lsl r1
     46c:	00049603 	andeq	r9, r4, r3, lsl #12
     470:	00402000 	subeq	r2, r0, r0
     474:	0c030000 	stceq	0, cr0, [r3], {-0}
     478:	0000bf22 	andeq	fp, r0, r2, lsr #30
     47c:	00612000 	rsbeq	r2, r1, r0
     480:	0c030000 	stceq	0, cr0, [r3], {-0}
     484:	0000bf34 	andeq	fp, r0, r4, lsr pc
     488:	00ed2000 	rsceq	r2, sp, r0
     48c:	0c030000 	stceq	0, cr0, [r3], {-0}
     490:	00002c43 	andeq	r2, r0, r3, asr #24
     494:	f1210000 			; <UNDEFINED> instruction: 0xf1210000
     498:	f1000006 	cps	#6
     49c:	05000006 	streq	r0, [r0, #-6]
     4a0:	89210628 	stmdbhi	r1!, {r3, r5, r9, sl}
     4a4:	89000000 	stmdbhi	r0, {}	; <UNPREDICTABLE>
     4a8:	01000000 	mrseq	r0, (UNDEF: 0)
     4ac:	b5210a66 	strlt	r0, [r1, #-2662]!	; 0xfffff59a
     4b0:	b5000000 	strlt	r0, [r0, #-0]
     4b4:	05000000 	streq	r0, [r0, #-0]
     4b8:	0822066e 	stmdaeq	r2!, {r1, r2, r3, r5, r6, r9, sl}
     4bc:	6574069e 	ldrbvs	r0, [r4, #-1694]!	; 0xfffff962
     4c0:	00317473 	eorseq	r7, r1, r3, ror r4
     4c4:	00000a21 	andeq	r0, r0, r1, lsr #20
     4c8:	00000a00 	andeq	r0, r0, r0, lsl #20
     4cc:	08510100 	ldmdaeq	r1, {r8}^
     4d0:	000be700 	andeq	lr, fp, r0, lsl #14
     4d4:	05000400 	streq	r0, [r0, #-1024]	; 0xfffffc00
     4d8:	04000002 	streq	r0, [r0], #-2
     4dc:	00019701 	andeq	r9, r1, r1, lsl #14
     4e0:	03560c00 	cmpeq	r6, #0, 24
     4e4:	013f0000 	teqeq	pc, r0
     4e8:	81440000 	mrshi	r0, (UNDEF: 68)
     4ec:	052c0000 	streq	r0, [ip, #-0]!
     4f0:	01ac0000 			; <UNDEFINED> instruction: 0x01ac0000
     4f4:	04020000 	streq	r0, [r2], #-0
     4f8:	746e6905 	strbtvc	r6, [lr], #-2309	; 0xfffff6fb
     4fc:	07040300 	streq	r0, [r4, -r0, lsl #6]
     500:	000000fe 	strdeq	r0, [r0], -lr
     504:	d6060103 	strle	r0, [r6], -r3, lsl #2
     508:	03000000 	movweq	r0, #0
     50c:	002a0502 	eoreq	r0, sl, r2, lsl #10
     510:	04030000 	streq	r0, [r3], #-0
     514:	00006b05 	andeq	r6, r0, r5, lsl #22
     518:	05080300 	streq	r0, [r8, #-768]	; 0xfffffd00
     51c:	00000066 	andeq	r0, r0, r6, rrx
     520:	00004504 	andeq	r4, r0, r4, lsl #10
     524:	182e0300 	stmdane	lr!, {r8, r9}
     528:	0000005b 	andeq	r0, r0, fp, asr r0
     52c:	d4080103 	strle	r0, [r8], #-259	; 0xfffffefd
     530:	04000000 	streq	r0, [r0], #-0
     534:	00000114 	andeq	r0, r0, r4, lsl r1
     538:	6e193103 	mufvse	f3, f1, f3
     53c:	03000000 	movweq	r0, #0
     540:	01250702 			; <UNDEFINED> instruction: 0x01250702
     544:	0b040000 	bleq	10054c <__bss_end__+0xf56a4>
     548:	03000001 	movweq	r0, #1
     54c:	00811934 	addeq	r1, r1, r4, lsr r9
     550:	04030000 	streq	r0, [r3], #-0
     554:	0000f907 	andeq	pc, r0, r7, lsl #18
     558:	07080300 	streq	r0, [r8, -r0, lsl #6]
     55c:	000000f4 	strdeq	r0, [r0], -r4
     560:	00002505 	andeq	r2, r0, r5, lsl #10
     564:	00009e00 	andeq	r9, r0, r0, lsl #28
     568:	00250600 	eoreq	r0, r5, r0, lsl #12
     56c:	07000000 	streq	r0, [r0, -r0]
     570:	00000034 	andeq	r0, r0, r4, lsr r0
     574:	aa0e1c04 	bge	38758c <__bss_end__+0x37c6e4>
     578:	08000000 	stmdaeq	r0, {}	; <UNPREDICTABLE>
     57c:	00008f04 	andeq	r8, r0, r4, lsl #30
     580:	00250500 	eoreq	r0, r5, r0, lsl #10
     584:	00bf0000 	adcseq	r0, pc, r0
     588:	bf060000 	svclt	0x00060000
     58c:	00000000 	andeq	r0, r0, r0
     590:	00cc0408 	sbceq	r0, ip, r8, lsl #8
     594:	01030000 	mrseq	r0, (UNDEF: 3)
     598:	0000dd08 	andeq	sp, r0, r8, lsl #26
     59c:	00c50900 	sbceq	r0, r5, r0, lsl #18
     5a0:	2f070000 	svccs	0x00070000
     5a4:	04000007 	streq	r0, [r0], #-7
     5a8:	00dd0e21 	sbcseq	r0, sp, r1, lsr #28
     5ac:	04080000 	streq	r0, [r8], #-0
     5b0:	000000b0 	strheq	r0, [r0], -r0	; <UNPREDICTABLE>
     5b4:	76040803 	strvc	r0, [r4], -r3, lsl #16
     5b8:	0a000003 	beq	5cc <__code_start__-0x7a34>
     5bc:	050c0b04 	streq	r0, [ip, #-2820]	; 0xfffff4fc
     5c0:	011d0904 	tsteq	sp, r4, lsl #18
     5c4:	400c0000 	andmi	r0, ip, r0
     5c8:	05000000 	streq	r0, [r0, #-0]
     5cc:	00bf1106 	adcseq	r1, pc, r6, lsl #2
     5d0:	0c000000 	stceq	0, cr0, [r0], {-0}
     5d4:	00000061 	andeq	r0, r0, r1, rrx
     5d8:	bf110705 	svclt	0x00110705
     5dc:	04000000 	streq	r0, [r0], #-0
     5e0:	0000ed0c 	andeq	lr, r0, ip, lsl #26
     5e4:	0e080500 	cfsh32eq	mvfx0, mvfx8, #0
     5e8:	0000002c 	andeq	r0, r0, ip, lsr #32
     5ec:	89040008 	stmdbhi	r4, {r3}
     5f0:	05000002 	streq	r0, [r0, #-2]
     5f4:	00ec0309 	rsceq	r0, ip, r9, lsl #6
     5f8:	070d0000 	streq	r0, [sp, -r0]
     5fc:	00005b01 	andeq	r5, r0, r1, lsl #22
     600:	0e090200 	cdpeq	2, 0, cr0, cr9, cr0, {0}
     604:	00000144 	andeq	r0, r0, r4, asr #2
     608:	00038b0e 	andeq	r8, r3, lr, lsl #22
     60c:	b80e0b00 	stmdalt	lr, {r8, r9, fp}
     610:	0c000002 	stceq	0, cr0, [r0], {2}
     614:	01070d00 	tsteq	r7, r0, lsl #26
     618:	0000005b 	andeq	r0, r0, fp, asr r0
     61c:	5f060a02 	svcpl	0x00060a02
     620:	0e000001 	cdpeq	0, 0, cr0, cr0, cr1, {0}
     624:	000002e6 	andeq	r0, r0, r6, ror #5
     628:	02da0e80 	sbcseq	r0, sl, #128, 28	; 0x800
     62c:	00fe0000 	rscseq	r0, lr, r0
     630:	00004d0f 	andeq	r4, r0, pc, lsl #26
     634:	110c0200 	mrsne	r0, R12_fiq
     638:	0000002c 	andeq	r0, r0, ip, lsr #32
     63c:	aa600305 	bge	1801258 <__bss_end__+0x17f63b0>
     640:	97100000 	ldrls	r0, [r0, -r0]
     644:	a8000000 	stmdage	r0, {}	; <UNPREDICTABLE>
     648:	01101002 	tsteq	r0, r2
     64c:	0c000002 	stceq	0, cr0, [r0], {2}
     650:	00000284 	andeq	r0, r0, r4, lsl #5
     654:	01141102 	tsteq	r4, r2, lsl #2
     658:	00000002 	andeq	r0, r0, r2
     65c:	00026c0c 	andeq	r6, r2, ip, lsl #24
     660:	0e120200 	cdpeq	2, 1, cr0, cr2, cr0, {0}
     664:	00000075 	andeq	r0, r0, r5, ror r0
     668:	00180c04 	andseq	r0, r8, r4, lsl #24
     66c:	13020000 	movwne	r0, #8192	; 0x2000
     670:	0000750e 	andeq	r7, r0, lr, lsl #10
     674:	520c0800 	andpl	r0, ip, #0, 16
     678:	02000000 	andeq	r0, r0, #0, 0
     67c:	00750e17 	rsbseq	r0, r5, r7, lsl lr
     680:	0c0c0000 	stceq	0, cr0, [ip], {-0}
     684:	000000ab 	andeq	r0, r0, fp, lsr #1
     688:	1d0f1902 	vstrne.16	s2, [pc, #-4]	; 68c <__code_start__-0x7974>	; <UNPREDICTABLE>
     68c:	10000001 	andne	r0, r0, r1
     690:	0000e20c 	andeq	lr, r0, ip, lsl #4
     694:	0e1c0200 	cdpeq	2, 1, cr0, cr12, cr0, {0}
     698:	00000075 	andeq	r0, r0, r5, ror r0
     69c:	001e0c1c 	andseq	r0, lr, ip, lsl ip
     6a0:	1d020000 	stcne	0, cr0, [r2, #-0]
     6a4:	0000750e 	andeq	r7, r0, lr, lsl #10
     6a8:	c20c2000 	andgt	r2, ip, #0, 0
     6ac:	02000000 	andeq	r0, r0, #0, 0
     6b0:	00620e1f 	rsbeq	r0, r2, pc, lsl lr
     6b4:	0c240000 	stceq	0, cr0, [r4], #-0
     6b8:	00000138 	andeq	r0, r0, r8, lsr r1
     6bc:	620b2002 	andvs	r2, fp, #2, 0
     6c0:	26000000 	strcs	r0, [r0], -r0
     6c4:	317a7211 	cmncc	sl, r1, lsl r2
     6c8:	0d220200 	sfmeq	f0, 4, [r2, #-0]
     6cc:	00000207 	andeq	r0, r0, r7, lsl #4
     6d0:	04080028 	streq	r0, [r8], #-40	; 0xffffffd8
     6d4:	00000171 	andeq	r0, r0, r1, ror r1
     6d8:	00004f12 	andeq	r4, r0, r2, lsl pc
     6dc:	00021700 	andeq	r1, r2, r0, lsl #14
     6e0:	002c1300 	eoreq	r1, ip, r0, lsl #6
     6e4:	007f0000 	rsbseq	r0, pc, r0
     6e8:	00001204 	andeq	r1, r0, r4, lsl #4
     6ec:	03230200 			; <UNDEFINED> instruction: 0x03230200
     6f0:	00000171 	andeq	r0, r0, r1, ror r1
     6f4:	0000740f 	andeq	r7, r0, pc, lsl #8
     6f8:	0f250200 	svceq	0x00250200
     6fc:	00000235 	andeq	r0, r0, r5, lsr r2
     700:	aa7c0305 	bge	1f0131c <__bss_end__+0x1ef6474>
     704:	04080000 	streq	r0, [r8], #-0
     708:	00000217 	andeq	r0, r0, r7, lsl r2
     70c:	0000000f 	andeq	r0, r0, pc
     710:	0f260200 	svceq	0x00260200
     714:	00000235 	andeq	r0, r0, r5, lsr r2
     718:	aa780305 	bge	1e01334 <__bss_end__+0x1df648c>
     71c:	c7070000 	strgt	r0, [r7, -r0]
     720:	02000000 	andeq	r0, r0, #0, 0
     724:	002c11ad 	eoreq	r1, ip, sp, lsr #3
     728:	0a140000 	beq	500730 <__bss_end__+0x4f5888>
     72c:	01000000 	mrseq	r0, (UNDEF: 0)
     730:	00ea08a9 	rsceq	r0, sl, r9, lsr #17
     734:	85940000 	ldrhi	r0, [r4]
     738:	00dc0000 	sbcseq	r0, ip, r0
     73c:	9c010000 	stcls	0, cr0, [r1], {-0}
     740:	000003a5 	andeq	r0, r0, r5, lsr #7
     744:	0003c515 	andeq	ip, r3, r5, lsl r5
     748:	1aa90100 	bne	fea40b50 <__bss_end__+0xfea35ca8>
     74c:	00000075 	andeq	r0, r0, r5, ror r0
     750:	000000fa 	strdeq	r0, [r0], -sl
     754:	000000f4 	strdeq	r0, [r0], -r4
     758:	01006c16 	tsteq	r0, r6, lsl ip
     75c:	011d2ca9 	tsteq	sp, r9, lsr #25
     760:	91020000 	mrsls	r0, (UNDEF: 2)
     764:	00681764 	rsbeq	r1, r8, r4, ror #14
     768:	350cab01 	strcc	sl, [ip, #-2817]	; 0xfffff4ff
     76c:	2c000002 	stccs	0, cr0, [r0], {2}
     770:	26000001 	strcs	r0, [r0], -r1
     774:	18000001 	stmdane	r0, {r0}
     778:	00000b6a 	andeq	r0, r0, sl, ror #22
     77c:	000085f4 	strdeq	r8, [r0], -r4
     780:	0085f401 	addeq	pc, r5, r1, lsl #8
     784:	00000800 	andeq	r0, r0, r0, lsl #16
     788:	11b60100 			; <UNDEFINED> instruction: 0x11b60100
     78c:	000002dd 	ldrdeq	r0, [r0], -sp
     790:	000b7b19 	andeq	r7, fp, r9, lsl fp
     794:	00015a00 	andeq	r5, r1, r0, lsl #20
     798:	00015800 	andeq	r5, r1, r0, lsl #16
     79c:	85fc1a00 	ldrbhi	r1, [ip, #2560]!	; 0xa00
     7a0:	09db0000 	ldmibeq	fp, {}^	; <UNPREDICTABLE>
     7a4:	011b0000 	tsteq	fp, r0
     7a8:	00740250 	rsbseq	r0, r4, r0, asr r2
     7ac:	b01c0000 	andslt	r0, ip, r0
     7b0:	a2000085 	andge	r0, r0, #133, 0	; 0x85
     7b4:	f200000b 	vhadd.s8	d0, d0, d11
     7b8:	1b000002 	blne	7c8 <__code_start__-0x7838>
     7bc:	76035001 	strvc	r5, [r3], -r1
     7c0:	1c0002a8 	sfmne	f0, 4, [r0], {168}	; 0xa8
     7c4:	000085c0 	andeq	r8, r0, r0, asr #11
     7c8:	00000bae 	andeq	r0, r0, lr, lsr #23
     7cc:	00000311 	andeq	r0, r0, r1, lsl r3
     7d0:	0250011b 	subseq	r0, r0, #-1073741818	; 0xc0000006
     7d4:	011b0074 	tsteq	fp, r4, ror r0
     7d8:	1b300151 	blne	c00d24 <__bss_end__+0xbf5e7c>
     7dc:	08025201 	stmdaeq	r2, {r0, r9, ip, lr}
     7e0:	d01c00a8 	andsle	r0, ip, r8, lsr #1
     7e4:	ae000085 	cdpge	0, 0, cr0, cr0, cr5, {4}
     7e8:	3100000b 	tstcc	r0, fp
     7ec:	1b000003 	blne	800 <__code_start__-0x7800>
     7f0:	74025001 	strvc	r5, [r2], #-1
     7f4:	51011b28 	tstpl	r1, r8, lsr #22
     7f8:	1bfe0802 	blne	fff82808 <__bss_end__+0xfff77960>
     7fc:	08025201 	stmdaeq	r2, {r0, r9, ip, lr}
     800:	081c0080 	ldmdaeq	ip, {r7}
     804:	ae000086 	cdpge	0, 0, cr0, cr0, cr6, {4}
     808:	4b00000b 	blmi	83c <__code_start__-0x77c4>
     80c:	1b000003 	blne	820 <__code_start__-0x77e0>
     810:	08025101 	stmdaeq	r2, {r0, r8, ip, lr}
     814:	52011bfe 	andpl	r1, r1, #260096	; 0x3f800
     818:	00800802 	addeq	r0, r0, r2, lsl #16
     81c:	0086301c 	addeq	r3, r6, ip, lsl r0
     820:	000bba00 	andeq	fp, fp, r0, lsl #20
     824:	00037700 	andeq	r7, r3, r0, lsl #14
     828:	50011b00 	andpl	r1, r1, r0, lsl #22
     82c:	a2200305 	eorge	r0, r0, #335544320	; 0x14000000
     830:	011b0000 	tsteq	fp, r0
     834:	00750351 	rsbseq	r0, r5, r1, asr r3
     838:	52011b06 	andpl	r1, r1, #6144	; 0x1800
     83c:	06609103 	strbteq	r9, [r0], -r3, lsl #2
     840:	0353011b 	cmpeq	r3, #-1073741818	; 0xc0000006
     844:	00066491 	muleq	r6, r1, r4
     848:	0086441c 	addeq	r4, r6, ip, lsl r4
     84c:	000bba00 	andeq	fp, fp, r0, lsl #20
     850:	00039400 	andeq	r9, r3, r0, lsl #8
     854:	50011b00 	andpl	r1, r1, r0, lsl #22
     858:	a2e00305 	rscge	r0, r0, #335544320	; 0x14000000
     85c:	011b0000 	tsteq	fp, r0
     860:	00750252 	rsbseq	r0, r5, r2, asr r2
     864:	86541a00 	ldrbhi	r1, [r4], -r0, lsl #20
     868:	0aaf0000 	beq	febc0870 <__bss_end__+0xfebb59c8>
     86c:	011b0000 	tsteq	fp, r0
     870:	00740251 	rsbseq	r0, r4, r1, asr r2
     874:	021d0000 	andseq	r0, sp, #0, 0
     878:	01000003 	tsteq	r0, r3
     87c:	84240792 	strthi	r0, [r4], #-1938	; 0xfffff86e
     880:	01700000 	cmneq	r0, r0
     884:	9c010000 	stcls	0, cr0, [r1], {-0}
     888:	000005e8 	andeq	r0, r0, r8, ror #11
     88c:	000bae15 	andeq	sl, fp, r5, lsl lr
     890:	15920100 	ldrne	r0, [r2, #256]	; 0x100
     894:	000000ea 	andeq	r0, r0, sl, ror #1
     898:	00000171 	andeq	r0, r0, r1, ror r1
     89c:	0000016d 	andeq	r0, r0, sp, ror #2
     8a0:	01006c16 	tsteq	r0, r6, lsl ip
     8a4:	011d2592 			; <UNDEFINED> instruction: 0x011d2592
     8a8:	91030000 	mrsls	r0, (UNDEF: 3)
     8ac:	68177ee4 	ldmdavs	r7, {r2, r5, r6, r7, r9, sl, fp, ip, sp, lr}
     8b0:	0c930100 	ldfeqs	f0, [r3], {0}
     8b4:	00000235 	andeq	r0, r0, r5, lsr r2
     8b8:	00000197 	muleq	r0, r7, r1
     8bc:	0000018f 	andeq	r0, r0, pc, lsl #3
     8c0:	00009e1e 	andeq	r9, r0, lr, lsl lr
     8c4:	0005f800 	andeq	pc, r5, r0, lsl #16
     8c8:	10030500 	andne	r0, r3, r0, lsl #10
     8cc:	0f0000a3 	svceq	0x000000a3
     8d0:	00000360 	andeq	r0, r0, r0, ror #6
     8d4:	070a9901 	streq	r9, [sl, -r1, lsl #18]
     8d8:	03000002 	movweq	r0, #2
     8dc:	1f7ef091 	svcne	0x007ef091
     8e0:	00008484 	andeq	r8, r0, r4, lsl #9
     8e4:	00000024 	andeq	r0, r0, r4, lsr #32
     8e8:	0000042e 	andeq	r0, r0, lr, lsr #8
     8ec:	01006917 	tsteq	r0, r7, lsl r9
     8f0:	002c109a 	mlaeq	ip, sl, r0, r1
     8f4:	01d70000 	bicseq	r0, r7, r0
     8f8:	01d10000 	bicseq	r0, r1, r0
     8fc:	1c000000 	stcne	0, cr0, [r0], {-0}
     900:	0000845c 	andeq	r8, r0, ip, asr r4
     904:	00000bba 			; <UNDEFINED> instruction: 0x00000bba
     908:	0000045d 	andeq	r0, r0, sp, asr r4
     90c:	0550011b 	ldrbeq	r0, [r0, #-283]	; 0xfffffee5
     910:	00a22003 	adceq	r2, r2, r3
     914:	51011b00 	tstpl	r1, r0, lsl #22
     918:	7edc9104 	atnvce	f1, f4
     91c:	52011b06 	andpl	r1, r1, #6144	; 0x1800
     920:	7ee09104 	urdvcs	f1, f4
     924:	53011b06 	movwpl	r1, #6918	; 0x1b06
     928:	7ee49104 	urdvcs	f1, f4
     92c:	6c1c0006 	ldcvs	0, cr0, [ip], {6}
     930:	ba000084 	blt	b48 <__code_start__-0x74b8>
     934:	7a00000b 	bvc	968 <__code_start__-0x7698>
     938:	1b000004 	blne	950 <__code_start__-0x76b0>
     93c:	03055001 	movweq	r5, #20481	; 0x5001
     940:	0000a22c 	andeq	sl, r0, ip, lsr #4
     944:	0252011b 	subseq	r0, r2, #-1073741818	; 0xc0000006
     948:	1c000074 	stcne	0, cr0, [r0], {116}	; 0x74
     94c:	00008474 	andeq	r8, r0, r4, ror r4
     950:	0000085e 	andeq	r0, r0, lr, asr r8
     954:	0000048e 	andeq	r0, r0, lr, lsl #9
     958:	0250011b 	subseq	r0, r0, #-1073741818	; 0xc0000006
     95c:	1c000074 	stcne	0, cr0, [r0], {116}	; 0x74
     960:	000084b8 			; <UNDEFINED> instruction: 0x000084b8
     964:	00000bba 			; <UNDEFINED> instruction: 0x00000bba
     968:	000004b5 			; <UNDEFINED> instruction: 0x000004b5
     96c:	0550011b 	ldrbeq	r0, [r0, #-283]	; 0xfffffee5
     970:	00a1d403 	adceq	sp, r1, r3, lsl #8
     974:	52011b00 	andpl	r1, r1, #0, 22
     978:	7ee09104 	urdvcs	f1, f4
     97c:	53011b06 	movwpl	r1, #6918	; 0x1b06
     980:	7ee49104 	urdvcs	f1, f4
     984:	c81c0006 	ldmdagt	ip, {r1, r2}
     988:	ba000084 	blt	ba0 <__code_start__-0x7460>
     98c:	d200000b 	andle	r0, r0, #11, 0
     990:	1b000004 	blne	9a8 <__code_start__-0x7658>
     994:	03055001 	movweq	r5, #20481	; 0x5001
     998:	0000a1ec 	andeq	sl, r0, ip, ror #3
     99c:	0251011b 	subseq	r0, r1, #-1073741818	; 0xc0000006
     9a0:	20000074 	andcs	r0, r0, r4, ror r0
     9a4:	000084cc 	andeq	r8, r0, ip, asr #9
     9a8:	00000bc6 	andeq	r0, r0, r6, asr #23
     9ac:	0084e81c 	addeq	lr, r4, ip, lsl r8
     9b0:	000bba00 	andeq	fp, fp, r0, lsl #20
     9b4:	00051400 	andeq	r1, r5, r0, lsl #8
     9b8:	50011b00 	andpl	r1, r1, r0, lsl #22
     9bc:	a11c0305 	tstge	ip, r5, lsl #6
     9c0:	011b0000 	tsteq	fp, r0
     9c4:	10030551 	andne	r0, r3, r1, asr r5
     9c8:	1b0000a1 	blne	c54 <__code_start__-0x73ac>
     9cc:	03055201 	movweq	r5, #20993	; 0x5201
     9d0:	0000a310 	andeq	sl, r0, r0, lsl r3
     9d4:	0253011b 	subseq	r0, r3, #-1073741818	; 0xc0000006
     9d8:	021b9708 	andseq	r9, fp, #8, 14	; 0x200000
     9dc:	0305007d 	movweq	r0, #20605	; 0x507d
     9e0:	0000a24c 	andeq	sl, r0, ip, asr #4
     9e4:	84ec2000 	strbthi	r2, [ip], #0
     9e8:	0bc60000 	bleq	ff1809f0 <__bss_end__+0xff175b48>
     9ec:	f81c0000 			; <UNDEFINED> instruction: 0xf81c0000
     9f0:	6e000084 	cdpvs	0, 0, cr0, cr0, cr4, {4}
     9f4:	38000007 	stmdacc	r0, {r0, r1, r2}
     9f8:	1b000005 	blne	a14 <__code_start__-0x75ec>
     9fc:	75025001 	strvc	r5, [r2, #-1]
     a00:	51011b00 	tstpl	r1, r0, lsl #22
     a04:	7ee89103 	urdvce	f1, f3
     a08:	85101c00 	ldrhi	r1, [r0, #-3072]	; 0xfffff400
     a0c:	0bae0000 	bleq	feb80a14 <__bss_end__+0xfeb75b6c>
     a10:	05520000 	ldrbeq	r0, [r2, #-0]
     a14:	011b0000 	tsteq	fp, r0
     a18:	00740250 	rsbseq	r0, r4, r0, asr r2
     a1c:	0251011b 	subseq	r0, r1, #-1073741818	; 0xc0000006
     a20:	1c00fe08 	stcne	14, cr15, [r0], {8}
     a24:	00008518 	andeq	r8, r0, r8, lsl r5
     a28:	0000085e 	andeq	r0, r0, lr, asr r8
     a2c:	00000566 	andeq	r0, r0, r6, ror #10
     a30:	0250011b 	subseq	r0, r0, #-1073741818	; 0xc0000006
     a34:	1c000074 	stcne	0, cr0, [r0], {116}	; 0x74
     a38:	00008548 	andeq	r8, r0, r8, asr #10
     a3c:	00000bba 			; <UNDEFINED> instruction: 0x00000bba
     a40:	0000059c 	muleq	r0, ip, r5
     a44:	0550011b 	ldrbeq	r0, [r0, #-283]	; 0xfffffee5
     a48:	00a26c03 	adceq	r6, r2, r3, lsl #24
     a4c:	51011b00 	tstpl	r1, r0, lsl #22
     a50:	a1100305 	tstge	r0, r5, lsl #6
     a54:	011b0000 	tsteq	fp, r0
     a58:	10030552 	andne	r0, r3, r2, asr r5
     a5c:	1b0000a3 	blne	cf0 <__code_start__-0x7310>
     a60:	08025301 	stmdaeq	r2, {r0, r8, r9, ip, lr}
     a64:	7d021b9f 	vstrvc	d1, [r2, #-636]	; 0xfffffd84
     a68:	00750204 	rsbseq	r0, r5, r4, lsl #4
     a6c:	854c2000 	strbhi	r2, [ip, #-0]
     a70:	0bc60000 	bleq	ff180a78 <__bss_end__+0xff175bd0>
     a74:	681c0000 	ldmdavs	ip, {}	; <UNPREDICTABLE>
     a78:	ba000085 	blt	c94 <__code_start__-0x736c>
     a7c:	de00000b 	cdple	0, 0, cr0, cr0, cr11, {0}
     a80:	1b000005 	blne	a9c <__code_start__-0x7564>
     a84:	03055001 	movweq	r5, #20481	; 0x5001
     a88:	0000a11c 	andeq	sl, r0, ip, lsl r1
     a8c:	0551011b 	ldrbeq	r0, [r1, #-283]	; 0xfffffee5
     a90:	00a11003 	adceq	r1, r1, r3
     a94:	52011b00 	andpl	r1, r1, #0, 22
     a98:	a3100305 	tstge	r0, #335544320	; 0x14000000
     a9c:	011b0000 	tsteq	fp, r0
     aa0:	a2080253 	andge	r0, r8, #805306373	; 0x30000005
     aa4:	007d021b 	rsbseq	r0, sp, fp, lsl r2
     aa8:	a2c40305 	sbcge	r0, r4, #335544320	; 0x14000000
     aac:	20000000 	andcs	r0, r0, r0
     ab0:	0000856c 	andeq	r8, r0, ip, ror #10
     ab4:	00000bc6 	andeq	r0, r0, r6, asr #23
     ab8:	00cc1200 	sbceq	r1, ip, r0, lsl #4
     abc:	05f80000 	ldrbeq	r0, [r8, #0]!
     ac0:	2c130000 	ldccs	0, cr0, [r3], {-0}
     ac4:	06000000 	streq	r0, [r0], -r0
     ac8:	05e80900 	strbeq	r0, [r8, #2304]!	; 0x900
     acc:	a0140000 	andsge	r0, r4, r0
     ad0:	01000003 	tsteq	r0, r3
     ad4:	0025057a 	eoreq	r0, r5, sl, ror r5
     ad8:	83800000 	orrhi	r0, r0, #0, 0
     adc:	00a40000 	adceq	r0, r4, r0
     ae0:	9c010000 	stcls	0, cr0, [r1], {-0}
     ae4:	00000710 	andeq	r0, r0, r0, lsl r7
     ae8:	00034a21 	andeq	r4, r3, r1, lsr #20
     aec:	097c0100 	ldmdbeq	ip!, {r8}^
     af0:	00000235 	andeq	r0, r0, r5, lsr r2
     af4:	00000205 	andeq	r0, r0, r5, lsl #4
     af8:	00000201 	andeq	r0, r0, r1, lsl #4
     afc:	0003600f 	andeq	r6, r3, pc
     b00:	0a7d0100 	beq	1f40f08 <__bss_end__+0x1f36060>
     b04:	00000207 	andeq	r0, r0, r7, lsl #4
     b08:	7ef09103 	nrmvcs	f1, f3
     b0c:	0002be21 	andeq	fp, r2, r1, lsr #28
     b10:	0e7e0100 	rpweqe	f0, f6, f0
     b14:	00000710 	andeq	r0, r0, r0, lsl r7
     b18:	00000227 	andeq	r0, r0, r7, lsr #4
     b1c:	00000223 	andeq	r0, r0, r3, lsr #4
     b20:	00031f21 	andeq	r1, r3, r1, lsr #30
     b24:	0b7f0100 	bleq	1fc0f2c <__bss_end__+0x1fb6084>
     b28:	0000002c 	andeq	r0, r0, ip, lsr #32
     b2c:	0000024b 	andeq	r0, r0, fp, asr #4
     b30:	00000245 	andeq	r0, r0, r5, asr #4
     b34:	0083901c 	addeq	r9, r3, ip, lsl r0
     b38:	000bba00 	andeq	fp, fp, r0, lsl #20
     b3c:	00067a00 	andeq	r7, r6, r0, lsl #20
     b40:	50011b00 	andpl	r1, r1, r0, lsl #22
     b44:	a16c0305 	cmnge	ip, r5, lsl #6
     b48:	20000000 	andcs	r0, r0, r0
     b4c:	00008394 	muleq	r0, r4, r3
     b50:	00000a99 	muleq	r0, r9, sl
     b54:	0083a81c 	addeq	sl, r3, ip, lsl r8
     b58:	000bd200 	andeq	sp, fp, r0, lsl #4
     b5c:	0006a300 	andeq	sl, r6, r0, lsl #6
     b60:	50011b00 	andpl	r1, r1, r0, lsl #22
     b64:	1b007d02 	blne	1ff74 <__bss_end__+0x150cc>
     b68:	74025101 	strvc	r5, [r2], #-257	; 0xfffffeff
     b6c:	52011b28 	andpl	r1, r1, #40, 22	; 0xa000
     b70:	00800802 	addeq	r0, r0, r2, lsl #16
     b74:	0083bc1c 	addeq	fp, r3, ip, lsl ip
     b78:	000bba00 	andeq	fp, fp, r0, lsl #20
     b7c:	0006ba00 	andeq	fp, r6, r0, lsl #20
     b80:	50011b00 	andpl	r1, r1, r0, lsl #22
     b84:	a1900305 	orrsge	r0, r0, r5, lsl #6
     b88:	1c000000 	stcne	0, cr0, [r0], {-0}
     b8c:	000083cc 	andeq	r8, r0, ip, asr #7
     b90:	00000bba 			; <UNDEFINED> instruction: 0x00000bba
     b94:	000006d1 	ldrdeq	r0, [r0], -r1
     b98:	0550011b 	ldrbeq	r0, [r0, #-283]	; 0xfffffee5
     b9c:	00a1b403 	adceq	fp, r1, r3, lsl #8
     ba0:	d81c0000 	ldmdale	ip, {}	; <UNPREDICTABLE>
     ba4:	6c000083 	stcvs	0, cr0, [r0], {131}	; 0x83
     ba8:	e500000a 	str	r0, [r0, #-10]
     bac:	1b000006 	blne	bcc <__code_start__-0x7434>
     bb0:	74025001 	strvc	r5, [r2], #-1
     bb4:	f01c0000 			; <UNDEFINED> instruction: 0xf01c0000
     bb8:	6e000083 	cdpvs	0, 0, cr0, cr0, cr3, {4}
     bbc:	ff000007 			; <UNDEFINED> instruction: 0xff000007
     bc0:	1b000006 	blne	be0 <__code_start__-0x7420>
     bc4:	74025001 	strvc	r5, [r2], #-1
     bc8:	51011b00 	tstpl	r1, r0, lsl #22
     bcc:	00007602 	andeq	r7, r0, r2, lsl #12
     bd0:	0084001a 	addeq	r0, r4, sl, lsl r0
     bd4:	00071700 	andeq	r1, r7, r0, lsl #14
     bd8:	50011b00 	andpl	r1, r1, r0, lsl #22
     bdc:	00007402 	andeq	r7, r0, r2, lsl #8
     be0:	16040800 	strne	r0, [r4], -r0, lsl #16
     be4:	22000007 	andcs	r0, r0, #7, 0
     be8:	00030914 	andeq	r0, r3, r4, lsl r9
     bec:	056b0100 	strbeq	r0, [fp, #-256]!	; 0xffffff00
     bf0:	00000025 	andeq	r0, r0, r5, lsr #32
     bf4:	00008334 	andeq	r8, r0, r4, lsr r3
     bf8:	0000004c 	andeq	r0, r0, ip, asr #32
     bfc:	07689c01 	strbeq	r9, [r8, -r1, lsl #24]!
     c00:	68230000 	stmdavs	r3!, {}	; <UNPREDICTABLE>
     c04:	1b6b0100 	blne	1ac100c <__bss_end__+0x1ab6164>
     c08:	00000235 	andeq	r0, r0, r5, lsr r2
     c0c:	00000281 	andeq	r0, r0, r1, lsl #5
     c10:	00000275 	andeq	r0, r0, r5, ror r2
     c14:	000b2b24 	andeq	r2, fp, r4, lsr #22
     c18:	0b710100 	bleq	1c41020 <__bss_end__+0x1c36178>
     c1c:	00000768 	andeq	r0, r0, r8, ror #14
     c20:	00001825 	andeq	r1, r0, r5, lsr #16
     c24:	00691700 	rsbeq	r1, r9, r0, lsl #14
     c28:	2c107201 	lfmcs	f7, 4, [r0], {1}
     c2c:	d8000000 	stmdale	r0, {}	; <UNPREDICTABLE>
     c30:	d4000002 	strle	r0, [r0], #-2
     c34:	00000002 	andeq	r0, r0, r2
     c38:	4f040800 	svcmi	0x00040800
     c3c:	14000000 	strne	r0, [r0], #-0
     c40:	000003d6 	ldrdeq	r0, [r0], -r6
     c44:	25056101 	strcs	r6, [r5, #-257]	; 0xfffffeff
     c48:	ec000000 	stc	0, cr0, [r0], {-0}
     c4c:	48000082 	stmdami	r0, {r1, r7}
     c50:	01000000 	mrseq	r0, (UNDEF: 0)
     c54:	00085e9c 	muleq	r8, ip, lr
     c58:	00682300 	rsbeq	r2, r8, r0, lsl #6
     c5c:	351e6101 	ldrcc	r6, [lr, #-257]	; 0xfffffeff
     c60:	fc000002 	stc2	0, cr0, [r0], {2}
     c64:	f6000002 			; <UNDEFINED> instruction: 0xf6000002
     c68:	15000002 	strne	r0, [r0, #-2]
     c6c:	0000036d 	andeq	r0, r0, sp, ror #6
     c70:	102d6101 	eorne	r6, sp, r1, lsl #2
     c74:	2c000007 	stccs	0, cr0, [r0], {7}
     c78:	28000003 	stmdacs	r0, {r0, r1}
     c7c:	17000003 	strne	r0, [r0, -r3]
     c80:	00327a72 	eorseq	r7, r2, r2, ror sl
     c84:	680b6201 	stmdavs	fp, {r0, r9, sp, lr}
     c88:	4e000007 	cdpmi	0, 0, cr0, cr0, cr7, {0}
     c8c:	4a000003 	bmi	ca0 <__code_start__-0x7360>
     c90:	21000003 	tstcs	r0, r3
     c94:	00000324 	andeq	r0, r0, r4, lsr #6
     c98:	25066301 	strcs	r6, [r6, #-769]	; 0xfffffcff
     c9c:	70000000 	andvc	r0, r0, r0
     ca0:	6c000003 	stcvs	0, cr0, [r0], {3}
     ca4:	21000003 	tstcs	r0, r3
     ca8:	000003ba 			; <UNDEFINED> instruction: 0x000003ba
     cac:	25066401 	strcs	r6, [r6, #-1025]	; 0xfffffbff
     cb0:	90000000 	andls	r0, r0, r0
     cb4:	8e000003 	cdphi	0, 0, cr0, cr0, cr3, {0}
     cb8:	18000003 	stmdane	r0, {r0, r1}
     cbc:	00000b6a 	andeq	r0, r0, sl, ror #22
     cc0:	000082f8 	strdeq	r8, [r0], -r8	; <UNPREDICTABLE>
     cc4:	0082f801 	addeq	pc, r2, r1, lsl #16
     cc8:	00000800 	andeq	r0, r0, r0, lsl #16
     ccc:	11620100 	cmnne	r2, r0, lsl #2
     cd0:	00000821 	andeq	r0, r0, r1, lsr #16
     cd4:	000b7b19 	andeq	r7, fp, r9, lsl fp
     cd8:	0003a700 	andeq	sl, r3, r0, lsl #14
     cdc:	0003a300 	andeq	sl, r3, r0, lsl #6
     ce0:	82fc1a00 	rscshi	r1, ip, #0, 20
     ce4:	09db0000 	ldmibeq	fp, {}^	; <UNPREDICTABLE>
     ce8:	011b0000 	tsteq	fp, r0
     cec:	00750250 	rsbseq	r0, r5, r0, asr r2
     cf0:	101c0000 	andsne	r0, ip, r0
     cf4:	de000083 	cdple	0, 0, cr0, cr0, cr3, {4}
     cf8:	4100000b 	tstmi	r0, fp
     cfc:	1b000008 	blne	d24 <__code_start__-0x72dc>
     d00:	75025001 	strvc	r5, [r2, #-1]
     d04:	51011b28 	tstpl	r1, r8, lsr #22
     d08:	1b007402 	blne	1dd18 <__bss_end__+0x12e70>
     d0c:	08025201 	stmdaeq	r2, {r0, r9, ip, lr}
     d10:	241a0080 	ldrcs	r0, [sl], #-128	; 0xffffff80
     d14:	de000083 	cdple	0, 0, cr0, cr0, cr3, {4}
     d18:	1b00000b 	blne	d4c <__code_start__-0x72b4>
     d1c:	76025001 	strvc	r5, [r2], -r1
     d20:	51011b00 	tstpl	r1, r0, lsl #22
     d24:	1b007402 	blne	1dd34 <__bss_end__+0x12e8c>
     d28:	08025201 	stmdaeq	r2, {r0, r9, ip, lr}
     d2c:	14000080 	strne	r0, [r0], #-128	; 0xffffff80
     d30:	0000032c 	andeq	r0, r0, ip, lsr #6
     d34:	35085601 	strcc	r5, [r8, #-1537]	; 0xfffff9ff
     d38:	88000002 	stmdahi	r0, {r1}
     d3c:	64000082 	strvs	r0, [r0], #-130	; 0xffffff7e
     d40:	01000000 	mrseq	r0, (UNDEF: 0)
     d44:	0008ff9c 	muleq	r8, ip, pc	; <UNPREDICTABLE>
     d48:	74702300 	ldrbtvc	r2, [r0], #-768	; 0xfffffd00
     d4c:	56010072 			; <UNDEFINED> instruction: 0x56010072
     d50:	0000ea20 	andeq	lr, r0, r0, lsr #20
     d54:	0003c900 	andeq	ip, r3, r0, lsl #18
     d58:	0003c500 	andeq	ip, r3, r0, lsl #10
     d5c:	82902600 	addshi	r2, r0, #0, 12
     d60:	00500000 	subseq	r0, r0, r0
     d64:	68170000 	ldmdavs	r7, {}	; <UNPREDICTABLE>
     d68:	10570100 	subsne	r0, r7, r0, lsl #2
     d6c:	00000235 	andeq	r0, r0, r5, lsr r2
     d70:	000003ef 	andeq	r0, r0, pc, ror #7
     d74:	000003e7 	andeq	r0, r0, r7, ror #7
     d78:	00829420 	addeq	r9, r2, r0, lsr #8
     d7c:	000a9900 	andeq	r9, sl, r0, lsl #18
     d80:	82a41c00 	adchi	r1, r4, #0, 24
     d84:	0a6c0000 	beq	1b00d8c <__bss_end__+0x1af5ee4>
     d88:	08c40000 	stmiaeq	r4, {}^	; <UNPREDICTABLE>
     d8c:	011b0000 	tsteq	fp, r0
     d90:	00740250 	rsbseq	r0, r4, r0, asr r2
     d94:	82bc1c00 	adcshi	r1, ip, #0, 24
     d98:	09a00000 	stmibeq	r0!, {}	; <UNPREDICTABLE>
     d9c:	08de0000 	ldmeq	lr, {}^	; <UNPREDICTABLE>
     da0:	011b0000 	tsteq	fp, r0
     da4:	00740250 	rsbseq	r0, r4, r0, asr r2
     da8:	0251011b 	subseq	r0, r1, #-1073741818	; 0xc0000006
     dac:	1a000075 	bne	f88 <__code_start__-0x7078>
     db0:	000082e0 	andeq	r8, r0, r0, ror #5
     db4:	00000bba 			; <UNDEFINED> instruction: 0x00000bba
     db8:	0550011b 	ldrbeq	r0, [r0, #-283]	; 0xfffffee5
     dbc:	00a14c03 	adceq	r4, r1, r3, lsl #24
     dc0:	51011b00 	tstpl	r1, r0, lsl #22
     dc4:	1b007502 	blne	1e1d4 <__bss_end__+0x1332c>
     dc8:	74025201 	strvc	r5, [r2], #-513	; 0xfffffdff
     dcc:	00000000 	andeq	r0, r0, r0
     dd0:	00037d14 	andeq	r7, r3, r4, lsl sp
     dd4:	084c0100 	stmdaeq	ip, {r8}^
     dd8:	00000235 	andeq	r0, r0, r5, lsr r2
     ddc:	00008230 	andeq	r8, r0, r0, lsr r2
     de0:	00000058 	andeq	r0, r0, r8, asr r0
     de4:	09a09c01 	stmibeq	r0!, {r0, sl, fp, ip, pc}
     de8:	70230000 	eorvc	r0, r3, r0
     dec:	01007274 	tsteq	r0, r4, ror r2
     df0:	00ea1c4c 	rsceq	r1, sl, ip, asr #24
     df4:	04270000 	strteq	r0, [r7], #-0
     df8:	04230000 	strteq	r0, [r3], #-0
     dfc:	38260000 	stmdacc	r6!, {}	; <UNPREDICTABLE>
     e00:	44000082 	strmi	r0, [r0], #-130	; 0xffffff7e
     e04:	17000000 	strne	r0, [r0, -r0]
     e08:	4d010068 	stcmi	0, cr0, [r1, #-416]	; 0xfffffe60
     e0c:	0002350d 	andeq	r3, r2, sp, lsl #10
     e10:	00044d00 	andeq	r4, r4, r0, lsl #26
     e14:	00044500 	andeq	r4, r4, r0, lsl #10
     e18:	823c2000 	eorshi	r2, ip, #0, 0
     e1c:	0a990000 	beq	fe640e24 <__bss_end__+0xfe635f7c>
     e20:	541c0000 	ldrpl	r0, [ip], #-0
     e24:	a0000082 	andge	r0, r0, r2, lsl #1
     e28:	6b000009 	blvs	e54 <__code_start__-0x71ac>
     e2c:	1b000009 	blne	e58 <__code_start__-0x71a8>
     e30:	74025001 	strvc	r5, [r2], #-1
     e34:	51011b00 	tstpl	r1, r0, lsl #22
     e38:	00007502 	andeq	r7, r0, r2, lsl #10
     e3c:	0082641c 	addeq	r6, r2, ip, lsl r4
     e40:	000a6c00 	andeq	r6, sl, r0, lsl #24
     e44:	00097f00 	andeq	r7, r9, r0, lsl #30
     e48:	50011b00 	andpl	r1, r1, r0, lsl #22
     e4c:	00007402 	andeq	r7, r0, r2, lsl #8
     e50:	00827c1a 	addeq	r7, r2, sl, lsl ip
     e54:	000bba00 	andeq	fp, fp, r0, lsl #20
     e58:	50011b00 	andpl	r1, r1, r0, lsl #22
     e5c:	a1340305 	teqge	r4, r5, lsl #6
     e60:	011b0000 	tsteq	fp, r0
     e64:	00750251 	rsbseq	r0, r5, r1, asr r2
     e68:	0252011b 	subseq	r0, r2, #-1073741818	; 0xc0000006
     e6c:	00000074 	andeq	r0, r0, r4, ror r0
     e70:	02931400 	addseq	r1, r3, #0, 8
     e74:	44010000 	strmi	r0, [r1], #-0
     e78:	00002c0a 	andeq	r2, r0, sl, lsl #24
     e7c:	0081f800 	addeq	pc, r1, r0, lsl #16
     e80:	00003800 	andeq	r3, r0, r0, lsl #16
     e84:	db9c0100 	blle	fe70128c <__bss_end__+0xfe6f63e4>
     e88:	23000009 	movwcs	r0, #9
     e8c:	44010068 	strmi	r0, [r1], #-104	; 0xffffff98
     e90:	00023521 	andeq	r3, r2, r1, lsr #10
     e94:	00048b00 	andeq	r8, r4, r0, lsl #22
     e98:	00048100 	andeq	r8, r4, r0, lsl #2
     e9c:	74701600 	ldrbtvc	r1, [r0], #-1536	; 0xfffffa00
     ea0:	44010072 	strmi	r0, [r1], #-114	; 0xffffff8e
     ea4:	0000ea2a 	andeq	lr, r0, sl, lsr #20
     ea8:	00510100 	subseq	r0, r1, r0, lsl #2
     eac:	0003af14 	andeq	sl, r3, r4, lsl pc
     eb0:	073f0100 	ldreq	r0, [pc, -r0, lsl #2]!
     eb4:	000000ea 	andeq	r0, r0, sl, ror #1
     eb8:	000081e0 	andeq	r8, r0, r0, ror #3
     ebc:	00000018 	andeq	r0, r0, r8, lsl r0
     ec0:	0a3f9c01 	beq	fe7ecc <__bss_end__+0xfdd024>
     ec4:	68230000 	stmdavs	r3!, {}	; <UNPREDICTABLE>
     ec8:	193f0100 	ldmdbne	pc!, {r8}	; <UNPREDICTABLE>
     ecc:	00000235 	andeq	r0, r0, r5, lsr r2
     ed0:	000004d7 	ldrdeq	r0, [r0], -r7
     ed4:	000004d3 	ldrdeq	r0, [r0], -r3
     ed8:	000b8618 	andeq	r8, fp, r8, lsl r6
     edc:	0081ec00 	addeq	lr, r1, r0, lsl #24
     ee0:	81ec0000 	mvnhi	r0, r0
     ee4:	00040000 	andeq	r0, r4, r0
     ee8:	40010000 	andmi	r0, r1, r0
     eec:	000a2e26 	andeq	r2, sl, r6, lsr #28
     ef0:	0b971900 	bleq	fe5c72f8 <__bss_end__+0xfe5bc450>
     ef4:	04f70000 	ldrbteq	r0, [r7], #0
     ef8:	04f50000 	ldrbteq	r0, [r5], #0
     efc:	1a000000 	bne	f04 <__code_start__-0x70fc>
     f00:	000081ec 	andeq	r8, r0, ip, ror #3
     f04:	00000a3f 	andeq	r0, r0, pc, lsr sl
     f08:	0250011b 	subseq	r0, r0, #-1073741818	; 0xc0000006
     f0c:	00000074 	andeq	r0, r0, r4, ror r0
     f10:	00039314 	andeq	r9, r3, r4, lsl r3
     f14:	073a0100 	ldreq	r0, [sl, -r0, lsl #2]!
     f18:	000000ea 	andeq	r0, r0, sl, ror #1
     f1c:	000081d8 	ldrdeq	r8, [r0], -r8	; <UNPREDICTABLE>
     f20:	00000008 	andeq	r0, r0, r8
     f24:	0a6c9c01 	beq	1b27f30 <__bss_end__+0x1b1d088>
     f28:	68230000 	stmdavs	r3!, {}	; <UNPREDICTABLE>
     f2c:	1b3a0100 	blne	e81334 <__bss_end__+0xe7648c>
     f30:	00000235 	andeq	r0, r0, r5, lsr r2
     f34:	0000050e 	andeq	r0, r0, lr, lsl #10
     f38:	0000050a 	andeq	r0, r0, sl, lsl #10
     f3c:	033e1400 	teqeq	lr, #0, 8
     f40:	33010000 	movwcc	r0, #4096	; 0x1000
     f44:	00023508 	andeq	r3, r2, r8, lsl #10
     f48:	0081c800 	addeq	ip, r1, r0, lsl #16
     f4c:	00001000 	andeq	r1, r0, r0
     f50:	999c0100 	ldmibls	ip, {r8}
     f54:	2300000a 	movwcs	r0, #10
     f58:	33010070 	movwcc	r0, #4208	; 0x1070
     f5c:	0002351b 	andeq	r3, r2, fp, lsl r5
     f60:	00053300 	andeq	r3, r5, r0, lsl #6
     f64:	00052f00 	andeq	r2, r5, r0, lsl #30
     f68:	f5270000 			; <UNDEFINED> instruction: 0xf5270000
     f6c:	01000002 	tsteq	r0, r2
     f70:	0235082e 	eorseq	r0, r5, #3014656	; 0x2e0000
     f74:	81b80000 			; <UNDEFINED> instruction: 0x81b80000
     f78:	00100000 	andseq	r0, r0, r0
     f7c:	9c010000 	stcls	0, cr0, [r1], {-0}
     f80:	0002c728 	andeq	ip, r2, r8, lsr #14
     f84:	0d1e0100 	ldfeqs	f0, [lr, #-0]
     f88:	00008144 	andeq	r8, r0, r4, asr #2
     f8c:	00000074 	andeq	r0, r0, r4, ror r0
     f90:	0b559c01 	bleq	1567f9c <__bss_end__+0x155d0f4>
     f94:	6c230000 	stcvs	0, cr0, [r3], #-0
     f98:	201e0100 	andscs	r0, lr, r0, lsl #2
     f9c:	00000235 	andeq	r0, r0, r5, lsr r2
     fa0:	00000558 	andeq	r0, r0, r8, asr r5
     fa4:	00000554 	andeq	r0, r0, r4, asr r5
     fa8:	01006823 	tsteq	r0, r3, lsr #16
     fac:	02352a1e 	eorseq	r2, r5, #122880	; 0x1e000
     fb0:	057d0000 	ldrbeq	r0, [sp, #-0]!
     fb4:	05790000 	ldrbeq	r0, [r9, #-0]!
     fb8:	9e1e0000 	cdpls	0, 1, cr0, cr14, cr0, {0}
     fbc:	65000000 	strvs	r0, [r0, #-0]
     fc0:	0500000b 	streq	r0, [r0, #-11]
     fc4:	00a30403 	adceq	r0, r3, r3, lsl #8
     fc8:	00002500 	andeq	r2, r0, r0, lsl #10
     fcc:	a3210000 			; <UNDEFINED> instruction: 0xa3210000
     fd0:	01000002 	tsteq	r0, r2
     fd4:	02350a26 	eorseq	r0, r5, #155648	; 0x26000
     fd8:	05a00000 	streq	r0, [r0, #0]!
     fdc:	059e0000 	ldreq	r0, [lr]
     fe0:	a01c0000 	andsge	r0, ip, r0
     fe4:	ba000081 	blt	11f0 <__code_start__-0x6e10>
     fe8:	4a00000b 	bmi	101c <__code_start__-0x6fe4>
     fec:	1b00000b 	blne	1020 <__code_start__-0x6fe0>
     ff0:	03055001 	movweq	r5, #20481	; 0x5001
     ff4:	0000a11c 	andeq	sl, r0, ip, lsl r1
     ff8:	0551011b 	ldrbeq	r0, [r1, #-283]	; 0xfffffee5
     ffc:	00a11003 	adceq	r1, r1, r3
    1000:	52011b00 	andpl	r1, r1, #0, 22
    1004:	a3040305 	movwge	r0, #17157	; 0x4305
    1008:	011b0000 	tsteq	fp, r0
    100c:	25080253 	strcs	r0, [r8, #-595]	; 0xfffffdad
    1010:	007d021b 	rsbseq	r0, sp, fp, lsl r2
    1014:	a1300305 	teqge	r0, r5, lsl #6
    1018:	20000000 	andcs	r0, r0, r0
    101c:	000081a4 	andeq	r8, r0, r4, lsr #3
    1020:	00000bc6 	andeq	r0, r0, r6, asr #23
    1024:	cc120000 	ldcgt	0, cr0, [r2], {-0}
    1028:	65000000 	strvs	r0, [r0, #-0]
    102c:	1300000b 	movwne	r0, #11
    1030:	0000002c 	andeq	r0, r0, ip, lsr #32
    1034:	5509000b 	strpl	r0, [r9, #-11]
    1038:	2900000b 	stmdbcs	r0, {r0, r1, r3}
    103c:	000002ad 	andeq	r0, r0, sp, lsr #5
    1040:	68184402 	ldmdavs	r8, {r1, sl, lr}
    1044:	03000007 	movweq	r0, #7
    1048:	00000b86 	andeq	r0, r0, r6, lsl #23
    104c:	0200682a 	andeq	r6, r0, #2752512	; 0x2a0000
    1050:	02352a44 	eorseq	r2, r5, #68, 20	; 0x44000
    1054:	29000000 	stmdbcs	r0, {}	; <UNPREDICTABLE>
    1058:	000003c2 	andeq	r0, r0, r2, asr #7
    105c:	2c183602 	ldccs	6, cr3, [r8], {2}
    1060:	03000000 	movweq	r0, #0
    1064:	00000ba2 	andeq	r0, r0, r2, lsr #23
    1068:	0200682a 	andeq	r6, r0, #2752512	; 0x2a0000
    106c:	02352936 	eorseq	r2, r5, #884736	; 0xd8000
    1070:	2b000000 	blcs	1078 <__code_start__-0x6f88>
    1074:	000003cc 	andeq	r0, r0, ip, asr #7
    1078:	000003cc 	andeq	r0, r0, ip, asr #7
    107c:	2b072c06 	blcs	1cc09c <__bss_end__+0x1c11f4>
    1080:	00000318 	andeq	r0, r0, r8, lsl r3
    1084:	00000318 	andeq	r0, r0, r8, lsl r3
    1088:	2b07f704 	blcs	1feca0 <__bss_end__+0x1f3df8>
    108c:	000006f1 	strdeq	r0, [r0], -r1
    1090:	000006f1 	strdeq	r0, [r0], -r1
    1094:	2b062804 	blcs	18b0ac <__bss_end__+0x180204>
    1098:	000000b5 	strheq	r0, [r0], -r5
    109c:	000000b5 	strheq	r0, [r0], -r5
    10a0:	2b066e04 	blcs	19c8b8 <__bss_end__+0x191a10>
    10a4:	000002d3 	ldrdeq	r0, [r0], -r3
    10a8:	000002d3 	ldrdeq	r0, [r0], -r3
    10ac:	2b07f404 	blcs	1fe0c4 <__bss_end__+0x1f321c>
    10b0:	0000034f 	andeq	r0, r0, pc, asr #6
    10b4:	0000034f 	andeq	r0, r0, pc, asr #6
    10b8:	0005f504 	andeq	pc, r5, r4, lsl #10
    10bc:	00000c61 	andeq	r0, r0, r1, ror #24
    10c0:	04920004 	ldreq	r0, [r2], #4
    10c4:	01040000 	mrseq	r0, (UNDEF: 4)
    10c8:	00000197 	muleq	r0, r7, r1
    10cc:	0004d10c 	andeq	sp, r4, ip, lsl #2
    10d0:	00013f00 	andeq	r3, r1, r0, lsl #30
    10d4:	00867000 	addeq	r7, r6, r0
    10d8:	0005f400 	andeq	pc, r5, r0, lsl #8
    10dc:	0006d100 	andeq	sp, r6, r0, lsl #2
    10e0:	05040200 	streq	r0, [r4, #-512]	; 0xfffffe00
    10e4:	00746e69 	rsbseq	r6, r4, r9, ror #28
    10e8:	fe070403 	cdp2	4, 0, cr0, cr7, cr3, {0}
    10ec:	04000000 	streq	r0, [r0], #-0
    10f0:	0000002c 	andeq	r0, r0, ip, lsr #32
    10f4:	d6060103 	strle	r0, [r6], -r3, lsl #2
    10f8:	03000000 	movweq	r0, #0
    10fc:	002a0502 	eoreq	r0, sl, r2, lsl #10
    1100:	04030000 	streq	r0, [r3], #-0
    1104:	00006b05 	andeq	r6, r0, r5, lsl #22
    1108:	05080300 	streq	r0, [r8, #-768]	; 0xfffffd00
    110c:	00000066 	andeq	r0, r0, r6, rrx
    1110:	00004505 	andeq	r4, r0, r5, lsl #10
    1114:	182e0200 	stmdane	lr!, {r9}
    1118:	00000060 	andeq	r0, r0, r0, rrx
    111c:	d4080103 	strle	r0, [r8], #-259	; 0xfffffefd
    1120:	05000000 	streq	r0, [r0, #-0]
    1124:	00000114 	andeq	r0, r0, r4, lsl r1
    1128:	73193102 	tstvc	r9, #-2147483648	; 0x80000000
    112c:	03000000 	movweq	r0, #0
    1130:	01250702 			; <UNDEFINED> instruction: 0x01250702
    1134:	0b050000 	bleq	14113c <__bss_end__+0x136294>
    1138:	02000001 	andeq	r0, r0, #1, 0
    113c:	00861934 	addeq	r1, r6, r4, lsr r9
    1140:	04030000 	streq	r0, [r3], #-0
    1144:	0000f907 	andeq	pc, r0, r7, lsl #18
    1148:	07080300 	streq	r0, [r8, -r0, lsl #6]
    114c:	000000f4 	strdeq	r0, [r0], -r4
    1150:	00002506 	andeq	r2, r0, r6, lsl #10
    1154:	0000a300 	andeq	sl, r0, r0, lsl #6
    1158:	00250700 	eoreq	r0, r5, r0, lsl #14
    115c:	08000000 	stmdaeq	r0, {}	; <UNPREDICTABLE>
    1160:	00000034 	andeq	r0, r0, r4, lsr r0
    1164:	af0e1c03 	svcge	0x000e1c03
    1168:	09000000 	stmdbeq	r0, {}	; <UNPREDICTABLE>
    116c:	00009404 	andeq	r9, r0, r4, lsl #8
    1170:	00250600 	eoreq	r0, r5, r0, lsl #12
    1174:	00c40000 	sbceq	r0, r4, r0
    1178:	c4070000 	strgt	r0, [r7], #-0
    117c:	00000000 	andeq	r0, r0, r0
    1180:	00d10409 	sbcseq	r0, r1, r9, lsl #8
    1184:	01030000 	mrseq	r0, (UNDEF: 3)
    1188:	0000dd08 	andeq	sp, r0, r8, lsl #26
    118c:	00ca0400 	sbceq	r0, sl, r0, lsl #8
    1190:	2f080000 	svccs	0x00080000
    1194:	03000007 	movweq	r0, #7
    1198:	00e20e21 	rsceq	r0, r2, r1, lsr #28
    119c:	04090000 	streq	r0, [r9], #-0
    11a0:	000000b5 	strheq	r0, [r0], -r5
    11a4:	04040c0a 	streq	r0, [r4], #-3082	; 0xfffff3f6
    11a8:	00011909 	andeq	r1, r1, r9, lsl #18
    11ac:	00400b00 	subeq	r0, r0, r0, lsl #22
    11b0:	06040000 	streq	r0, [r4], -r0
    11b4:	0000c411 	andeq	ip, r0, r1, lsl r4
    11b8:	610b0000 	mrsvs	r0, (UNDEF: 11)
    11bc:	04000000 	streq	r0, [r0], #-0
    11c0:	00c41107 	sbceq	r1, r4, r7, lsl #2
    11c4:	0b040000 	bleq	1011cc <__bss_end__+0xf6324>
    11c8:	000000ed 	andeq	r0, r0, sp, ror #1
    11cc:	2c0e0804 	stccs	8, cr0, [lr], {4}
    11d0:	08000000 	stmdaeq	r0, {}	; <UNPREDICTABLE>
    11d4:	02890500 	addeq	r0, r9, #0, 10
    11d8:	09040000 	stmdbeq	r4, {}	; <UNPREDICTABLE>
    11dc:	0000e803 	andeq	lr, r0, r3, lsl #16
    11e0:	01070c00 	tsteq	r7, r0, lsl #24
    11e4:	00000060 	andeq	r0, r0, r0, rrx
    11e8:	400e0905 	andmi	r0, lr, r5, lsl #18
    11ec:	0d000001 	stceq	0, cr0, [r0, #-4]
    11f0:	0000038b 	andeq	r0, r0, fp, lsl #7
    11f4:	02b80d0b 	adcseq	r0, r8, #704	; 0x2c0
    11f8:	000c0000 	andeq	r0, ip, r0
    11fc:	00004d0e 	andeq	r4, r0, lr, lsl #26
    1200:	110c0500 	tstne	ip, r0, lsl #10
    1204:	0000002c 	andeq	r0, r0, ip, lsr #32
    1208:	00970f01 	addseq	r0, r7, r1, lsl #30
    120c:	05a80000 	streq	r0, [r8, #0]!
    1210:	01dd1010 	bicseq	r1, sp, r0, lsl r0
    1214:	840b0000 	strhi	r0, [fp], #-0
    1218:	05000002 	streq	r0, [r0, #-2]
    121c:	01dd1411 	bicseq	r1, sp, r1, lsl r4
    1220:	0b000000 	bleq	1228 <__code_start__-0x6dd8>
    1224:	0000026c 	andeq	r0, r0, ip, ror #4
    1228:	7a0e1205 	bvc	385a44 <__bss_end__+0x37ab9c>
    122c:	04000000 	streq	r0, [r0], #-0
    1230:	0000180b 	andeq	r1, r0, fp, lsl #16
    1234:	0e130500 	cfmul32eq	mvfx0, mvfx3, mvfx0
    1238:	0000007a 	andeq	r0, r0, sl, ror r0
    123c:	00520b08 	subseq	r0, r2, r8, lsl #22
    1240:	17050000 	strne	r0, [r5, -r0]
    1244:	00007a0e 	andeq	r7, r0, lr, lsl #20
    1248:	ab0b0c00 	blge	2c4250 <__bss_end__+0x2b93a8>
    124c:	05000000 	streq	r0, [r0, #-0]
    1250:	01190f19 	tsteq	r9, r9, lsl pc
    1254:	0b100000 	bleq	40125c <__bss_end__+0x3f63b4>
    1258:	000000e2 	andeq	r0, r0, r2, ror #1
    125c:	7a0e1c05 	bvc	388278 <__bss_end__+0x37d3d0>
    1260:	1c000000 	stcne	0, cr0, [r0], {-0}
    1264:	00001e0b 	andeq	r1, r0, fp, lsl #28
    1268:	0e1d0500 	cfmul32eq	mvfx0, mvfx13, mvfx0
    126c:	0000007a 	andeq	r0, r0, sl, ror r0
    1270:	00c20b20 	sbceq	r0, r2, r0, lsr #22
    1274:	1f050000 	svcne	0x00050000
    1278:	0000670e 	andeq	r6, r0, lr, lsl #14
    127c:	380b2400 	stmdacc	fp, {sl, sp}
    1280:	05000001 	streq	r0, [r0, #-1]
    1284:	00670b20 	rsbeq	r0, r7, r0, lsr #22
    1288:	10260000 	eorne	r0, r6, r0
    128c:	00317a72 	eorseq	r7, r1, r2, ror sl
    1290:	e30d2205 	movw	r2, #53765	; 0xd205
    1294:	28000001 	stmdacs	r0, {r0}
    1298:	4d040900 	vstrmi.16	s0, [r4, #-0]	; <UNPREDICTABLE>
    129c:	11000001 	tstne	r0, r1
    12a0:	00000054 	andeq	r0, r0, r4, asr r0
    12a4:	000001f3 	strdeq	r0, [r0], -r3
    12a8:	00002c12 	andeq	r2, r0, r2, lsl ip
    12ac:	05007f00 	streq	r7, [r0, #-3840]	; 0xfffff100
    12b0:	00000012 	andeq	r0, r0, r2, lsl r0
    12b4:	4d032305 	stcmi	3, cr2, [r3, #-20]	; 0xffffffec
    12b8:	13000001 	movwne	r0, #1
    12bc:	00000074 	andeq	r0, r0, r4, ror r0
    12c0:	0b0f2505 	bleq	3ca6dc <__bss_end__+0x3bf834>
    12c4:	09000002 	stmdbeq	r0, {r1}
    12c8:	0001f304 	andeq	pc, r1, r4, lsl #6
    12cc:	00000e00 	andeq	r0, r0, r0, lsl #28
    12d0:	26050000 	strcs	r0, [r5], -r0
    12d4:	00020b0f 	andeq	r0, r2, pc, lsl #22
    12d8:	04140000 	ldreq	r0, [r4], #-0
    12dc:	0000c708 	andeq	ip, r0, r8, lsl #14
    12e0:	11ad0500 			; <UNDEFINED> instruction: 0x11ad0500
    12e4:	0000002c 	andeq	r0, r0, ip, lsr #32
    12e8:	76040803 	strvc	r0, [r4], -r3, lsl #16
    12ec:	15000003 	strne	r0, [r0, #-3]
    12f0:	00000b97 	muleq	r0, r7, fp
    12f4:	1e0f1001 	cdpne	0, 0, cr1, cr15, cr1, {0}
    12f8:	05000002 	streq	r0, [r0, #-2]
    12fc:	00aa8003 	adceq	r8, sl, r3
    1300:	0bf81500 	bleq	ffe06708 <__bss_end__+0xffdfb860>
    1304:	11010000 	mrsne	r0, (UNDEF: 1)
    1308:	00021e0f 	andeq	r1, r2, pc, lsl #28
    130c:	84030500 	strhi	r0, [r3], #-1280	; 0xfffffb00
    1310:	150000aa 	strne	r0, [r0, #-170]	; 0xffffff56
    1314:	0000043f 	andeq	r0, r0, pc, lsr r4
    1318:	250c1201 	strcs	r1, [ip, #-513]	; 0xfffffdff
    131c:	05000000 	streq	r0, [r0, #-0]
    1320:	00aa8803 	adceq	r8, sl, r3, lsl #16
    1324:	04101600 	ldreq	r1, [r0], #-1536	; 0xfffffa00
    1328:	0f010000 	svceq	0x00010000
    132c:	8c3c0601 	ldchi	6, cr0, [ip], #-4
    1330:	00280000 	eoreq	r0, r8, r0
    1334:	9c010000 	stcls	0, cr0, [r1], {-0}
    1338:	000002c9 	andeq	r0, r0, r9, asr #5
    133c:	00009e17 	andeq	r9, r0, r7, lsl lr
    1340:	0002d900 	andeq	sp, r2, r0, lsl #18
    1344:	e4030500 	str	r0, [r3], #-1280	; 0xfffffb00
    1348:	180000a6 	stmdane	r0, {r1, r2, r5, r7}
    134c:	00008c54 	andeq	r8, r0, r4, asr ip
    1350:	00000c04 	andeq	r0, r0, r4, lsl #24
    1354:	000002bf 			; <UNDEFINED> instruction: 0x000002bf
    1358:	05500119 	ldrbeq	r0, [r0, #-281]	; 0xfffffee7
    135c:	00a68003 	adceq	r8, r6, r3
    1360:	51011900 	tstpl	r1, r0, lsl #18
    1364:	a5800305 	strge	r0, [r0, #773]	; 0x305
    1368:	01190000 	tsteq	r9, r0
    136c:	e4030552 	str	r0, [r3], #-1362	; 0xfffffaae
    1370:	190000a6 	stmdbne	r0, {r1, r2, r5, r7}
    1374:	0a035301 	beq	d5f80 <__bss_end__+0xcb0d8>
    1378:	1a000110 	bne	17c0 <__code_start__-0x6840>
    137c:	00008c58 	andeq	r8, r0, r8, asr ip
    1380:	00000c10 	andeq	r0, r0, r0, lsl ip
    1384:	00d11100 	sbcseq	r1, r1, r0, lsl #2
    1388:	02d90000 	sbcseq	r0, r9, #0, 0
    138c:	2c120000 	ldccs	0, cr0, [r2], {-0}
    1390:	0e000000 	cdpeq	0, 0, cr0, cr0, cr0, {0}
    1394:	02c90400 	sbceq	r0, r9, #0, 8
    1398:	6a1b0000 	bvs	6c13a0 <__bss_end__+0x6b64f8>
    139c:	01000004 	tsteq	r0, r4
    13a0:	2c0a0106 	stfcss	f0, [sl], {6}
    13a4:	2c000000 	stccs	0, cr0, [r0], {-0}
    13a8:	1000008c 	andne	r0, r0, ip, lsl #1
    13ac:	01000000 	mrseq	r0, (UNDEF: 0)
    13b0:	0003219c 	muleq	r3, ip, r1
    13b4:	03c51c00 	biceq	r1, r5, #0, 24
    13b8:	08010000 	stmdaeq	r1, {}	; <UNPREDICTABLE>
    13bc:	002c0e01 	eoreq	r0, ip, r1, lsl #28
    13c0:	05b50000 	ldreq	r0, [r5, #0]!
    13c4:	05b30000 	ldreq	r0, [r3, #0]!
    13c8:	341a0000 	ldrcc	r0, [sl], #-0
    13cc:	e700008c 	str	r0, [r0, -ip, lsl #1]
    13d0:	1a000005 	bne	13ec <__code_start__-0x6c14>
    13d4:	00008c38 	andeq	r8, r0, r8, lsr ip
    13d8:	00000321 	andeq	r0, r0, r1, lsr #6
    13dc:	05301d00 	ldreq	r1, [r0, #-3328]!	; 0xfffff300
    13e0:	ef010000 	svc	0x00010000
    13e4:	00002c11 	andeq	r2, r0, r1, lsl ip
    13e8:	00882800 	addeq	r2, r8, r0, lsl #16
    13ec:	0000b000 	andeq	fp, r0, r0
    13f0:	199c0100 	ldmibne	ip, {r8}
    13f4:	1e000004 	cdpne	0, 0, cr0, cr0, cr4, {0}
    13f8:	00000437 	andeq	r0, r0, r7, lsr r4
    13fc:	2c0bf001 	stccs	0, cr15, [fp], {1}
    1400:	cc000000 	stcgt	0, cr0, [r0], {-0}
    1404:	c8000005 	stmdagt	r0, {r0, r2}
    1408:	1e000005 	cdpne	0, 0, cr0, cr0, cr5, {0}
    140c:	000004a8 	andeq	r0, r0, r8, lsr #9
    1410:	2c18f001 	ldccs	0, cr15, [r8], {1}
    1414:	ef000000 	svc	0x00000000
    1418:	eb000005 	bl	1434 <__code_start__-0x6bcc>
    141c:	1e000005 	cdpne	0, 0, cr0, cr0, cr5, {0}
    1420:	00000446 	andeq	r0, r0, r6, asr #8
    1424:	2c22f001 	stccs	0, cr15, [r2], #-4
    1428:	12000000 	andne	r0, r0, #0, 0
    142c:	0e000006 	cdpeq	0, 0, cr0, cr0, cr6, {0}
    1430:	1e000006 	cdpne	0, 0, cr0, cr0, cr6, {0}
    1434:	0000034a 	andeq	r0, r0, sl, asr #6
    1438:	0b09f401 	bleq	27e444 <__bss_end__+0x27359c>
    143c:	39000002 	stmdbcc	r0, {r1}
    1440:	31000006 	tstcc	r0, r6
    1444:	18000006 	stmdane	r0, {r1, r2}
    1448:	00008834 	andeq	r8, r0, r4, lsr r8
    144c:	00000c04 	andeq	r0, r0, r4, lsl #24
    1450:	000003a2 	andeq	r0, r0, r2, lsr #7
    1454:	05500119 	ldrbeq	r0, [r0, #-281]	; 0xfffffee7
    1458:	00a31803 	adceq	r1, r3, r3, lsl #16
    145c:	3c180000 	ldccc	0, cr0, [r8], {-0}
    1460:	04000088 	streq	r0, [r0], #-136	; 0xffffff78
    1464:	b900000c 	stmdblt	r0, {r2, r3}
    1468:	19000003 	stmdbne	r0, {r0, r1}
    146c:	03055001 	movweq	r5, #20481	; 0x5001
    1470:	0000a504 	andeq	sl, r0, r4, lsl #10
    1474:	88401a00 	stmdahi	r0, {r9, fp, ip}^
    1478:	0c1c0000 	ldceq	0, cr0, [ip], {-0}
    147c:	78180000 	ldmdavc	r8, {}	; <UNPREDICTABLE>
    1480:	04000088 	streq	r0, [r0], #-136	; 0xffffff78
    1484:	df00000c 	svcle	0x0000000c
    1488:	19000003 	stmdbne	r0, {r0, r1}
    148c:	03055001 	movweq	r5, #20481	; 0x5001
    1490:	0000a514 	andeq	sl, r0, r4, lsl r5
    1494:	02520119 	subseq	r0, r2, #1073741830	; 0x40000006
    1498:	18000074 	stmdane	r0, {r2, r4, r5, r6}
    149c:	00008880 	andeq	r8, r0, r0, lsl #17
    14a0:	00000c28 	andeq	r0, r0, r8, lsr #24
    14a4:	000003f3 	strdeq	r0, [r0], -r3
    14a8:	02500119 	subseq	r0, r0, #1073741830	; 0x40000006
    14ac:	1f000074 	svcne	0x00000074
    14b0:	000088c0 	andeq	r8, r0, r0, asr #17
    14b4:	00000c04 	andeq	r0, r0, r4, lsl #24
    14b8:	05500119 	ldrbeq	r0, [r0, #-281]	; 0xfffffee7
    14bc:	00a54c03 	adceq	r4, r5, r3, lsl #24
    14c0:	51011900 	tstpl	r1, r0, lsl #18
    14c4:	19007502 	stmdbne	r0, {r1, r8, sl, ip, sp, lr}
    14c8:	77025201 	strvc	r5, [r2, -r1, lsl #4]
    14cc:	53011900 	movwpl	r1, #6400	; 0x1900
    14d0:	00007602 	andeq	r7, r0, r2, lsl #12
    14d4:	04d92000 	ldrbeq	r2, [r9], #0
    14d8:	e0010000 	and	r0, r1, r0
    14dc:	00002c0a 	andeq	r2, r0, sl, lsl #24
    14e0:	008bdc00 	addeq	sp, fp, r0, lsl #24
    14e4:	00005000 	andeq	r5, r0, r0
    14e8:	bf9c0100 	svclt	0x009c0100
    14ec:	1e000004 	cdpne	0, 0, cr0, cr0, cr4, {0}
    14f0:	0000047a 	andeq	r0, r0, sl, ror r4
    14f4:	2c0ee501 	cfstr32cs	mvfx14, [lr], {1}
    14f8:	73000000 	movwvc	r0, #0
    14fc:	6d000006 	stcvs	0, cr0, [r0, #-24]	; 0xffffffe8
    1500:	17000006 	strne	r0, [r0, -r6]
    1504:	0000009e 	muleq	r0, lr, r0
    1508:	000004cf 	andeq	r0, r0, pc, asr #9
    150c:	a6d00305 	ldrbge	r0, [r0], r5, lsl #6
    1510:	e8180000 	ldmda	r8, {}	; <UNPREDICTABLE>
    1514:	7100008b 	smlabbvc	r0, fp, r0, r0
    1518:	69000005 	stmdbvs	r0, {r0, r2}
    151c:	19000004 	stmdbne	r0, {r2}
    1520:	31015001 	tstcc	r1, r1
    1524:	8bfc1800 	blhi	fff0752c <__bss_end__+0xffefc684>
    1528:	0c040000 	stceq	0, cr0, [r4], {-0}
    152c:	04860000 	streq	r0, [r6], #0
    1530:	01190000 	tsteq	r9, r0
    1534:	5c030550 	cfstr32pl	mvfx0, [r3], {80}	; 0x50
    1538:	190000a6 	stmdbne	r0, {r1, r2, r5, r7}
    153c:	74025101 	strvc	r5, [r2], #-257	; 0xfffffeff
    1540:	18180000 	ldmdane	r8, {}	; <UNPREDICTABLE>
    1544:	0400008c 	streq	r0, [r0], #-140	; 0xffffff74
    1548:	b500000c 	strlt	r0, [r0, #-12]
    154c:	19000004 	stmdbne	r0, {r2}
    1550:	03055001 	movweq	r5, #20481	; 0x5001
    1554:	0000a634 	andeq	sl, r0, r4, lsr r6
    1558:	05510119 	ldrbeq	r0, [r1, #-281]	; 0xfffffee7
    155c:	00a58003 	adceq	r8, r5, r3
    1560:	52011900 	andpl	r1, r1, #0, 18
    1564:	a6d00305 	ldrbge	r0, [r0], r5, lsl #6
    1568:	01190000 	tsteq	r9, r0
    156c:	e7080253 	smlsd	r8, r3, r2, r0
    1570:	8c1c1a00 			; <UNDEFINED> instruction: 0x8c1c1a00
    1574:	0c100000 	ldceq	0, cr0, [r0], {-0}
    1578:	11000000 	mrsne	r0, (UNDEF: 0)
    157c:	000000d1 	ldrdeq	r0, [r0], -r1
    1580:	000004cf 	andeq	r0, r0, pc, asr #9
    1584:	00002c12 	andeq	r2, r0, r2, lsl ip
    1588:	04001100 	streq	r1, [r0], #-256	; 0xffffff00
    158c:	000004bf 			; <UNDEFINED> instruction: 0x000004bf
    1590:	00049a21 	andeq	r9, r4, r1, lsr #20
    1594:	06d30100 	ldrbeq	r0, [r3], r0, lsl #2
    1598:	00008b94 	muleq	r0, r4, fp
    159c:	00000048 	andeq	r0, r0, r8, asr #32
    15a0:	055c9c01 	ldrbeq	r9, [ip, #-3073]	; 0xfffff3ff
    15a4:	9e170000 	cdpls	0, 1, cr0, cr7, cr0, {0}
    15a8:	6c000000 	stcvs	0, cr0, [r0], {-0}
    15ac:	05000005 	streq	r0, [r0, #-5]
    15b0:	00a6c003 	adceq	ip, r6, r3
    15b4:	8ba01800 	blhi	fe8075bc <__bss_end__+0xfe7fc714>
    15b8:	05710000 	ldrbeq	r0, [r1, #-0]!
    15bc:	050c0000 	streq	r0, [ip, #-0]
    15c0:	01190000 	tsteq	r9, r0
    15c4:	00310150 	eorseq	r0, r1, r0, asr r1
    15c8:	008bb018 	addeq	fp, fp, r8, lsl r0
    15cc:	000c0400 	andeq	r0, ip, r0, lsl #8
    15d0:	00052300 	andeq	r2, r5, r0, lsl #6
    15d4:	50011900 	andpl	r1, r1, r0, lsl #18
    15d8:	a6140305 	ldrge	r0, [r4], -r5, lsl #6
    15dc:	18000000 	stmdane	r0, {}	; <UNPREDICTABLE>
    15e0:	00008bc8 	andeq	r8, r0, r8, asr #23
    15e4:	00000c04 	andeq	r0, r0, r4, lsl #24
    15e8:	00000552 	andeq	r0, r0, r2, asr r5
    15ec:	05500119 	ldrbeq	r0, [r0, #-281]	; 0xfffffee7
    15f0:	00a5e803 	adceq	lr, r5, r3, lsl #16
    15f4:	51011900 	tstpl	r1, r0, lsl #18
    15f8:	a5800305 	strge	r0, [r0, #773]	; 0x305
    15fc:	01190000 	tsteq	r9, r0
    1600:	c0030552 	andgt	r0, r3, r2, asr r5
    1604:	190000a6 	stmdbne	r0, {r1, r2, r5, r7}
    1608:	08025301 	stmdaeq	r2, {r0, r8, r9, ip, lr}
    160c:	cc1a00d9 	ldcgt	0, cr0, [sl], {217}	; 0xd9
    1610:	1000008b 	andne	r0, r0, fp, lsl #1
    1614:	0000000c 	andeq	r0, r0, ip
    1618:	0000d111 	andeq	sp, r0, r1, lsl r1
    161c:	00056c00 	andeq	r6, r5, r0, lsl #24
    1620:	002c1200 	eoreq	r1, ip, r0, lsl #4
    1624:	000d0000 	andeq	r0, sp, r0
    1628:	00055c04 	andeq	r5, r5, r4, lsl #24
    162c:	00892000 	addeq	r2, r9, r0
    1630:	cb010000 	blgt	41638 <__bss_end__+0x36790>
    1634:	00002c0a 	andeq	r2, r0, sl, lsl #24
    1638:	008b6400 	addeq	r6, fp, r0, lsl #8
    163c:	00003000 	andeq	r3, r0, r0
    1640:	e79c0100 	ldr	r0, [ip, r0, lsl #2]
    1644:	22000005 	andcs	r0, r0, #5, 0
    1648:	0000053b 	andeq	r0, r0, fp, lsr r5
    164c:	251ccb01 	ldrcs	ip, [ip, #-2817]	; 0xfffff4ff
    1650:	a0000000 	andge	r0, r0, r0
    1654:	9c000006 	stcls	0, cr0, [r0], {6}
    1658:	18000006 	stmdane	r0, {r1, r2}
    165c:	00008b74 	andeq	r8, r0, r4, ror fp
    1660:	00000c04 	andeq	r0, r0, r4, lsl #24
    1664:	000005b6 			; <UNDEFINED> instruction: 0x000005b6
    1668:	05500119 	ldrbeq	r0, [r0, #-281]	; 0xfffffee7
    166c:	00a5cc03 	adceq	ip, r5, r3, lsl #24
    1670:	781a0000 	ldmdavc	sl, {}	; <UNPREDICTABLE>
    1674:	e700008b 	str	r0, [r0, -fp, lsl #1]
    1678:	18000005 	stmdane	r0, {r0, r2}
    167c:	00008b80 	andeq	r8, r0, r0, lsl #23
    1680:	00000c04 	andeq	r0, r0, r4, lsl #24
    1684:	000005d6 	ldrdeq	r0, [r0], -r6
    1688:	05500119 	ldrbeq	r0, [r0, #-281]	; 0xfffffee7
    168c:	00a5e003 	adceq	lr, r5, r3
    1690:	881f0000 	ldmdahi	pc, {}	; <UNPREDICTABLE>
    1694:	0900008b 	stmdbeq	r0, {r0, r1, r3, r7}
    1698:	19000007 	stmdbne	r0, {r0, r1, r2}
    169c:	74025001 	strvc	r5, [r2], #-1
    16a0:	23000000 	movwcs	r0, #0
    16a4:	00000407 	andeq	r0, r0, r7, lsl #8
    16a8:	380da301 	stmdacc	sp, {r0, r8, r9, sp, pc}
    16ac:	9000008a 	andls	r0, r0, sl, lsl #1
    16b0:	01000000 	mrseq	r0, (UNDEF: 0)
    16b4:	0006de9c 	muleq	r6, ip, lr
    16b8:	04751500 	ldrbteq	r1, [r5], #-1280	; 0xfffffb00
    16bc:	ad010000 	stcge	0, cr0, [r1, #-0]
    16c0:	0006de0e 	andeq	sp, r6, lr, lsl #28
    16c4:	b8910300 	ldmlt	r1, {r8, r9}
    16c8:	009e247f 	addseq	r2, lr, pc, ror r4
    16cc:	06fe0000 	ldrbteq	r0, [lr], r0
    16d0:	e8250000 	stmda	r5!, {}	; <UNPREDICTABLE>
    16d4:	01000003 	tsteq	r0, r3
    16d8:	07030fbe 			; <UNDEFINED> instruction: 0x07030fbe
    16dc:	00000000 	andeq	r0, r0, r0
    16e0:	1f080800 	svcne	0x00080800
    16e4:	01000004 	tsteq	r0, r4
    16e8:	007a15c2 	rsbseq	r1, sl, r2, asr #11
    16ec:	eb080000 	bl	2016f4 <__bss_end__+0x1f684c>
    16f0:	01000004 	tsteq	r0, r4
    16f4:	007a24c2 	rsbseq	r2, sl, r2, asr #9
    16f8:	21080000 	mrscs	r0, (UNDEF: 8)
    16fc:	01000005 	tsteq	r0, r5
    1700:	007a15c5 	rsbseq	r1, sl, r5, asr #11
    1704:	81080000 	mrshi	r0, (UNDEF: 8)
    1708:	01000004 	tsteq	r0, r4
    170c:	007a25c5 	rsbseq	r2, sl, r5, asr #11
    1710:	40260000 	eormi	r0, r6, r0
    1714:	2400008a 	strcs	r0, [r0], #-138	; 0xffffff76
    1718:	88000000 	stmdahi	r0, {}	; <UNPREDICTABLE>
    171c:	27000006 	strcs	r0, [r0, -r6]
    1720:	a7010068 	strge	r0, [r1, -r8, rrx]
    1724:	00020b10 	andeq	r0, r2, r0, lsl fp
    1728:	0006c200 	andeq	ip, r6, r0, lsl #4
    172c:	0006be00 	andeq	fp, r6, r0, lsl #28
    1730:	8a441a00 	bhi	1107f38 <__bss_end__+0x10fd090>
    1734:	0c1c0000 	ldceq	0, cr0, [ip], {-0}
    1738:	601a0000 	andsvs	r0, sl, r0
    173c:	2800008a 	stmdacs	r0, {r1, r3, r7}
    1740:	0000000c 	andeq	r0, r0, ip
    1744:	008a6c18 	addeq	r6, sl, r8, lsl ip
    1748:	000c3400 	andeq	r3, ip, r0, lsl #8
    174c:	00069c00 	andeq	r9, r6, r0, lsl #24
    1750:	50011900 	andpl	r1, r1, r0, lsl #18
    1754:	00007d02 	andeq	r7, r0, r2, lsl #26
    1758:	008a8c18 	addeq	r8, sl, r8, lsl ip
    175c:	0008df00 	andeq	sp, r8, r0, lsl #30
    1760:	0006b600 	andeq	fp, r6, r0, lsl #12
    1764:	50011900 	andpl	r1, r1, r0, lsl #18
    1768:	19007d02 	stmdbne	r0, {r1, r8, sl, fp, ip, sp, lr}
    176c:	91025101 	tstls	r2, r1, lsl #2
    1770:	98180070 	ldmdals	r8, {r4, r5, r6}
    1774:	df00008a 	svcle	0x0000008a
    1778:	cb000008 	blgt	17a0 <__code_start__-0x6860>
    177c:	19000006 	stmdbne	r0, {r1, r2}
    1780:	40035101 	andmi	r5, r3, r1, lsl #2
    1784:	1a002447 	bne	a8a8 <__FUNCTION__.4034+0x5c>
    1788:	00008aa4 	andeq	r8, r0, r4, lsr #21
    178c:	000008df 	ldrdeq	r0, [r0], -pc	; <UNPREDICTABLE>
    1790:	008ab01a 	addeq	fp, sl, sl, lsl r0
    1794:	0008df00 	andeq	sp, r8, r0, lsl #30
    1798:	7a110000 	bvc	4417a0 <__bss_end__+0x4368f8>
    179c:	ee000000 	cdp	0, 0, cr0, cr0, cr0, {0}
    17a0:	12000006 	andne	r0, r0, #6, 0
    17a4:	0000002c 	andeq	r0, r0, ip, lsr #32
    17a8:	d111000f 	tstle	r1, pc
    17ac:	fe000000 	cdp2	0, 0, cr0, cr0, cr0, {0}
    17b0:	12000006 	andne	r0, r0, #6, 0
    17b4:	0000002c 	andeq	r0, r0, ip, lsr #32
    17b8:	ee040008 	cdp	0, 0, cr0, cr4, cr8, {0}
    17bc:	09000006 	stmdbeq	r0, {r1, r2}
    17c0:	00007a04 	andeq	r7, r0, r4, lsl #20
    17c4:	05161d00 	ldreq	r1, [r6, #-3328]	; 0xfffff300
    17c8:	6e010000 	cdpvs	0, 0, cr0, cr1, cr0, {0}
    17cc:	00002c11 	andeq	r2, r0, r1, lsl ip
    17d0:	0086ac00 	addeq	sl, r6, r0, lsl #24
    17d4:	00017c00 	andeq	r7, r1, r0, lsl #24
    17d8:	df9c0100 	svcle	0x009c0100
    17dc:	22000008 	andcs	r0, r0, #8, 0
    17e0:	0000053b 	andeq	r0, r0, fp, lsr r5
    17e4:	25206e01 	strcs	r6, [r0, #-3585]!	; 0xfffff1ff
    17e8:	e4000000 	str	r0, [r0], #-0
    17ec:	e0000006 	and	r0, r0, r6
    17f0:	1e000006 	cdpne	0, 0, cr0, cr0, cr6, {0}
    17f4:	00000437 	andeq	r0, r0, r7, lsr r4
    17f8:	2c0b6f01 	stccs	15, cr6, [fp], {1}
    17fc:	06000000 	streq	r0, [r0], -r0
    1800:	02000007 	andeq	r0, r0, #7, 0
    1804:	1e000007 	cdpne	0, 0, cr0, cr0, cr7, {0}
    1808:	00000463 	andeq	r0, r0, r3, ror #8
    180c:	2c186f01 	ldccs	15, cr6, [r8], {1}
    1810:	29000000 	stmdbcs	r0, {}	; <UNPREDICTABLE>
    1814:	25000007 	strcs	r0, [r0, #-7]
    1818:	1e000007 	cdpne	0, 0, cr0, cr0, cr7, {0}
    181c:	0000045d 	andeq	r0, r0, sp, asr r4
    1820:	2c246f01 	stccs	15, cr6, [r4], #-4
    1824:	4c000000 	stcmi	0, cr0, [r0], {-0}
    1828:	48000007 	stmdami	r0, {r0, r1, r2}
    182c:	1e000007 	cdpne	0, 0, cr0, cr0, cr7, {0}
    1830:	0000034a 	andeq	r0, r0, sl, asr #6
    1834:	0b097401 	bleq	25e840 <__bss_end__+0x253998>
    1838:	7b000002 	blvc	1848 <__code_start__-0x67b8>
    183c:	6b000007 	blvs	1860 <__code_start__-0x67a0>
    1840:	28000007 	stmdacs	r0, {r0, r1, r2}
    1844:	00000038 	andeq	r0, r0, r8, lsr r0
    1848:	0000083d 	andeq	r0, r0, sp, lsr r8
    184c:	0003361e 	andeq	r3, r3, lr, lsl r6
    1850:	0c770100 	ldfeqe	f0, [r7], #-0
    1854:	0000002c 	andeq	r0, r0, ip, lsr #32
    1858:	000007e3 	andeq	r0, r0, r3, ror #15
    185c:	000007db 	ldrdeq	r0, [r0], -fp
    1860:	0003fe1e 	andeq	pc, r3, lr, lsl lr	; <UNPREDICTABLE>
    1864:	07780100 	ldrbeq	r0, [r8, -r0, lsl #2]!
    1868:	00000025 	andeq	r0, r0, r5, lsr #32
    186c:	00000831 	andeq	r0, r0, r1, lsr r8
    1870:	0000082b 	andeq	r0, r0, fp, lsr #16
    1874:	00871818 	addeq	r1, r7, r8, lsl r8
    1878:	000c0400 	andeq	r0, ip, r0, lsl #8
    187c:	0007d500 	andeq	sp, r7, r0, lsl #10
    1880:	50011900 	andpl	r1, r1, r0, lsl #18
    1884:	a3dc0305 	bicsge	r0, ip, #335544320	; 0x14000000
    1888:	01190000 	tsteq	r9, r0
    188c:	00740251 	rsbseq	r0, r4, r1, asr r2
    1890:	87441800 	strbhi	r1, [r4, -r0, lsl #16]
    1894:	0c040000 	stceq	0, cr0, [r4], {-0}
    1898:	07f20000 	ldrbeq	r0, [r2, r0]!
    189c:	01190000 	tsteq	r9, r0
    18a0:	6c030550 	cfstr32vs	mvfx0, [r3], {80}	; 0x50
    18a4:	190000a3 	stmdbne	r0, {r0, r1, r5, r7}
    18a8:	74025101 	strvc	r5, [r2], #-257	; 0xfffffeff
    18ac:	64180000 	ldrvs	r0, [r8], #-0
    18b0:	04000087 	streq	r0, [r0], #-135	; 0xffffff79
    18b4:	0f00000c 	svceq	0x0000000c
    18b8:	19000008 	stmdbne	r0, {r3}
    18bc:	03055001 	movweq	r5, #20481	; 0x5001
    18c0:	0000a3a4 	andeq	sl, r0, r4, lsr #7
    18c4:	02510119 	subseq	r0, r1, #1073741830	; 0x40000006
    18c8:	18000074 	stmdane	r0, {r2, r4, r5, r6}
    18cc:	0000877c 	andeq	r8, r0, ip, ror r7
    18d0:	00000c04 	andeq	r0, r0, r4, lsl #24
    18d4:	0000082c 	andeq	r0, r0, ip, lsr #16
    18d8:	05500119 	ldrbeq	r0, [r0, #-281]	; 0xfffffee7
    18dc:	00a41403 	adceq	r1, r4, r3, lsl #8
    18e0:	51011900 	tstpl	r1, r0, lsl #18
    18e4:	00007402 	andeq	r7, r0, r2, lsl #8
    18e8:	0087841f 	addeq	r8, r7, pc, lsl r4
    18ec:	000c2800 	andeq	r2, ip, r0, lsl #16
    18f0:	50011900 	andpl	r1, r1, r0, lsl #18
    18f4:	00007402 	andeq	r7, r0, r2, lsl #8
    18f8:	86bc1800 	ldrthi	r1, [ip], r0, lsl #16
    18fc:	0c040000 	stceq	0, cr0, [r4], {-0}
    1900:	08540000 	ldmdaeq	r4, {}^	; <UNPREDICTABLE>
    1904:	01190000 	tsteq	r9, r0
    1908:	18030550 	stmdane	r3, {r4, r6, r8, sl}
    190c:	000000a3 	andeq	r0, r0, r3, lsr #1
    1910:	0086c418 	addeq	ip, r6, r8, lsl r4
    1914:	000c0400 	andeq	r0, ip, r0, lsl #8
    1918:	00086b00 	andeq	r6, r8, r0, lsl #22
    191c:	50011900 	andpl	r1, r1, r0, lsl #18
    1920:	a3540305 	cmpge	r4, #335544320	; 0x14000000
    1924:	1a000000 	bne	192c <__code_start__-0x66d4>
    1928:	000086c8 	andeq	r8, r0, r8, asr #13
    192c:	00000c1c 	andeq	r0, r0, ip, lsl ip
    1930:	0087cc18 	addeq	ip, r7, r8, lsl ip
    1934:	000c0400 	andeq	r0, ip, r0, lsl #8
    1938:	00089100 	andeq	r9, r8, r0, lsl #2
    193c:	50011900 	andpl	r1, r1, r0, lsl #18
    1940:	a4500305 	ldrbge	r0, [r0], #-773	; 0xfffffcfb
    1944:	01190000 	tsteq	r9, r0
    1948:	00750251 	rsbseq	r0, r5, r1, asr r2
    194c:	87dc1800 	ldrbhi	r1, [ip, r0, lsl #16]
    1950:	0c040000 	stceq	0, cr0, [r4], {-0}
    1954:	08a80000 	stmiaeq	r8!, {}	; <UNPREDICTABLE>
    1958:	01190000 	tsteq	r9, r0
    195c:	70030550 	andvc	r0, r3, r0, asr r5
    1960:	000000a4 	andeq	r0, r0, r4, lsr #1
    1964:	0087e418 	addeq	lr, r7, r8, lsl r4
    1968:	000c0400 	andeq	r0, ip, r0, lsl #8
    196c:	0008bf00 	andeq	fp, r8, r0, lsl #30
    1970:	50011900 	andpl	r1, r1, r0, lsl #18
    1974:	a4c80305 	strbge	r0, [r8], #773	; 0x305
    1978:	1f000000 	svcne	0x00000000
    197c:	000087fc 	strdeq	r8, [r0], -ip
    1980:	00000c04 	andeq	r0, r0, r4, lsl #24
    1984:	05500119 	ldrbeq	r0, [r0, #-281]	; 0xfffffee7
    1988:	00a49803 	adceq	r9, r4, r3, lsl #16
    198c:	51011900 	tstpl	r1, r0, lsl #18
    1990:	19007802 	stmdbne	r0, {r1, fp, ip, sp, lr}
    1994:	77025201 	strvc	r5, [r2, -r1, lsl #4]
    1998:	23000000 	movwcs	r0, #0
    199c:	000000c2 	andeq	r0, r0, r2, asr #1
    19a0:	000d4901 	andeq	r4, sp, r1, lsl #18
    19a4:	38000089 	stmdacc	r0, {r0, r3, r7}
    19a8:	01000001 	tsteq	r0, r1
    19ac:	000a7d9c 	muleq	sl, ip, sp
    19b0:	00702900 	rsbseq	r2, r0, r0, lsl #18
    19b4:	031c4901 	tsteq	ip, #16384	; 0x4000
    19b8:	68000007 	stmdavs	r0, {r0, r1, r2}
    19bc:	5a000008 	bpl	19e4 <__code_start__-0x661c>
    19c0:	29000008 	stmdbcs	r0, {r3}
    19c4:	49010065 	stmdbmi	r1, {r0, r2, r5, r6}
    19c8:	00070329 	andeq	r0, r7, r9, lsr #6
    19cc:	0008d300 	andeq	sp, r8, r0, lsl #6
    19d0:	0008c300 	andeq	ip, r8, r0, lsl #6
    19d4:	009e1700 	addseq	r1, lr, r0, lsl #14
    19d8:	0a8d0000 	beq	fe3419e0 <__bss_end__+0xfe336b38>
    19dc:	03050000 	movweq	r0, #20480	; 0x5000
    19e0:	0000a6b0 			; <UNDEFINED> instruction: 0x0000a6b0
    19e4:	00042d1e 	andeq	r2, r4, lr, lsl sp
    19e8:	114f0100 	mrsne	r0, (UNDEF: 95)
    19ec:	00000033 	andeq	r0, r0, r3, lsr r0
    19f0:	00000945 	andeq	r0, r0, r5, asr #18
    19f4:	0000093f 	andeq	r0, r0, pc, lsr r9
    19f8:	00005028 	andeq	r5, r0, r8, lsr #32
    19fc:	0009b600 	andeq	fp, r9, r0, lsl #12
    1a00:	00692700 	rsbeq	r2, r9, r0, lsl #14
    1a04:	2c105001 	ldccs	0, cr5, [r0], {1}
    1a08:	7b000000 	blvc	1a10 <__code_start__-0x65f0>
    1a0c:	77000009 	strvc	r0, [r0, -r9]
    1a10:	2a000009 	bcs	1a3c <__code_start__-0x65c4>
    1a14:	00000068 	andeq	r0, r0, r8, rrx
    1a18:	0004af1e 	andeq	sl, r4, lr, lsl pc
    1a1c:	0a510100 	beq	1441e24 <__bss_end__+0x1436f7c>
    1a20:	0000020b 	andeq	r0, r0, fp, lsl #4
    1a24:	000009a0 	andeq	r0, r0, r0, lsr #19
    1a28:	0000099a 	muleq	r0, sl, r9
    1a2c:	00008028 	andeq	r8, r0, r8, lsr #32
    1a30:	0009ab00 	andeq	sl, r9, r0, lsl #22
    1a34:	03f21e00 	mvnseq	r1, #0, 28
    1a38:	63010000 	movwvs	r0, #4096	; 0x1000
    1a3c:	0007030e 	andeq	r0, r7, lr, lsl #6
    1a40:	0009cb00 	andeq	ip, r9, r0, lsl #22
    1a44:	0009c900 	andeq	ip, r9, r0, lsl #18
    1a48:	04b91e00 	ldrteq	r1, [r9], #3584	; 0xe00
    1a4c:	64010000 	strvs	r0, [r1], #-0
    1a50:	0007030e 	andeq	r0, r7, lr, lsl #6
    1a54:	0009e200 	andeq	lr, r9, r0, lsl #4
    1a58:	0009de00 	andeq	sp, r9, r0, lsl #28
    1a5c:	89a81a00 	stmibhi	r8!, {r9, fp, ip}
    1a60:	08df0000 	ldmeq	pc, {}^	; <UNPREDICTABLE>
    1a64:	1a000000 	bne	1a6c <__code_start__-0x6594>
    1a68:	000089c0 	andeq	r8, r0, r0, asr #19
    1a6c:	00000a92 	muleq	r0, r2, sl
    1a70:	4c180000 	ldcmi	0, cr0, [r8], {-0}
    1a74:	04000089 	streq	r0, [r0], #-137	; 0xffffff77
    1a78:	ef00000c 	svc	0x0000000c
    1a7c:	19000009 	stmdbne	r0, {r0, r3}
    1a80:	03055001 	movweq	r5, #20481	; 0x5001
    1a84:	0000a11c 	andeq	sl, r0, ip, lsl r1
    1a88:	05510119 	ldrbeq	r0, [r1, #-281]	; 0xfffffee7
    1a8c:	00a58003 	adceq	r8, r5, r3
    1a90:	52011900 	andpl	r1, r1, #0, 18
    1a94:	a6b00305 	ldrtge	r0, [r0], r5, lsl #6
    1a98:	01190000 	tsteq	r9, r0
    1a9c:	4a080253 	bmi	2023f0 <__bss_end__+0x1f7548>
    1aa0:	007d0219 	rsbseq	r0, sp, r9, lsl r2
    1aa4:	a5880305 	strge	r0, [r8, #773]	; 0x305
    1aa8:	1a000000 	bne	1ab0 <__code_start__-0x6550>
    1aac:	00008950 	andeq	r8, r0, r0, asr r9
    1ab0:	00000c10 	andeq	r0, r0, r0, lsl ip
    1ab4:	00896c18 	addeq	r6, r9, r8, lsl ip
    1ab8:	000c0400 	andeq	r0, ip, r0, lsl #8
    1abc:	000a3100 	andeq	r3, sl, r0, lsl #2
    1ac0:	50011900 	andpl	r1, r1, r0, lsl #18
    1ac4:	a11c0305 	tstge	ip, r5, lsl #6
    1ac8:	01190000 	tsteq	r9, r0
    1acc:	80030551 	andhi	r0, r3, r1, asr r5
    1ad0:	190000a5 	stmdbne	r0, {r0, r2, r5, r7}
    1ad4:	03055201 	movweq	r5, #20993	; 0x5201
    1ad8:	0000a6b0 			; <UNDEFINED> instruction: 0x0000a6b0
    1adc:	02530119 	subseq	r0, r3, #1073741830	; 0x40000006
    1ae0:	02194c08 	andseq	r4, r9, #8, 24	; 0x800
    1ae4:	0305007d 	movweq	r0, #20605	; 0x507d
    1ae8:	0000a58c 	andeq	sl, r0, ip, lsl #11
    1aec:	89701a00 	ldmdbhi	r0!, {r9, fp, ip}^
    1af0:	0c100000 	ldceq	0, cr0, [r0], {-0}
    1af4:	8c180000 	ldchi	0, cr0, [r8], {-0}
    1af8:	04000089 	streq	r0, [r0], #-137	; 0xffffff77
    1afc:	7300000c 	movwvc	r0, #12
    1b00:	1900000a 	stmdbne	r0, {r1, r3}
    1b04:	03055001 	movweq	r5, #20481	; 0x5001
    1b08:	0000a11c 	andeq	sl, r0, ip, lsl r1
    1b0c:	05510119 	ldrbeq	r0, [r1, #-281]	; 0xfffffee7
    1b10:	00a58003 	adceq	r8, r5, r3
    1b14:	52011900 	andpl	r1, r1, #0, 18
    1b18:	a6b00305 	ldrtge	r0, [r0], r5, lsl #6
    1b1c:	01190000 	tsteq	r9, r0
    1b20:	4d080253 	sfmmi	f0, 4, [r8, #-332]	; 0xfffffeb4
    1b24:	007d0219 	rsbseq	r0, sp, r9, lsl r2
    1b28:	a59c0305 	ldrge	r0, [ip, #773]	; 0x305
    1b2c:	1a000000 	bne	1b34 <__code_start__-0x64cc>
    1b30:	00008990 	muleq	r0, r0, r9
    1b34:	00000c10 	andeq	r0, r0, r0, lsl ip
    1b38:	00d11100 	sbcseq	r1, r1, r0, lsl #2
    1b3c:	0a8d0000 	beq	fe341b44 <__bss_end__+0xfe336c9c>
    1b40:	2c120000 	ldccs	0, cr0, [r2], {-0}
    1b44:	04000000 	streq	r0, [r0], #-0
    1b48:	0a7d0400 	beq	1f42b50 <__bss_end__+0x1f37ca8>
    1b4c:	931d0000 	tstls	sp, #0, 0
    1b50:	01000004 	tsteq	r0, r4
    1b54:	020b0f36 	andeq	r0, fp, #216	; 0xd8
    1b58:	88d80000 	ldmhi	r8, {}^	; <UNPREDICTABLE>
    1b5c:	00280000 	eoreq	r0, r8, r0
    1b60:	9c010000 	stcls	0, cr0, [r1], {-0}
    1b64:	00000af7 	strdeq	r0, [r0], -r7
    1b68:	000bae22 	andeq	sl, fp, r2, lsr #28
    1b6c:	1f360100 	svcne	0x00360100
    1b70:	0000007a 	andeq	r0, r0, sl, ror r0
    1b74:	00000a09 	andeq	r0, r0, r9, lsl #20
    1b78:	00000a05 	andeq	r0, r0, r5, lsl #20
    1b7c:	01007027 	tsteq	r0, r7, lsr #32
    1b80:	021e0b37 	andseq	r0, lr, #56320	; 0xdc00
    1b84:	0a2b0000 	beq	ac1b8c <__bss_end__+0xab6ce4>
    1b88:	0a270000 	beq	9c1b90 <__bss_end__+0x9b6ce8>
    1b8c:	e4180000 	ldr	r0, [r8], #-0
    1b90:	f7000088 			; <UNDEFINED> instruction: 0xf7000088
    1b94:	e600000a 	str	r0, [r0], -sl
    1b98:	1900000a 	stmdbne	r0, {r1, r3}
    1b9c:	74025001 	strvc	r5, [r2], #-1
    1ba0:	f41f0000 			; <UNDEFINED> instruction: 0xf41f0000
    1ba4:	40000088 	andmi	r0, r0, r8, lsl #1
    1ba8:	1900000c 	stmdbne	r0, {r2, r3}
    1bac:	74025001 	strvc	r5, [r2], #-1
    1bb0:	1d000000 	stcne	0, cr0, [r0, #-0]
    1bb4:	000004c3 	andeq	r0, r0, r3, asr #9
    1bb8:	250c2601 	strcs	r2, [ip, #-1537]	; 0xfffff9ff
    1bbc:	70000000 	andvc	r0, r0, r0
    1bc0:	3c000086 	stccc	0, cr0, [r0], {134}	; 0x86
    1bc4:	01000000 	mrseq	r0, (UNDEF: 0)
    1bc8:	000b249c 	muleq	fp, ip, r4
    1bcc:	00702900 	rsbseq	r2, r0, r0, lsl #18
    1bd0:	1e1a2601 	cfmsub32ne	mvax0, mvfx2, mvfx10, mvfx1
    1bd4:	55000002 	strpl	r0, [r0, #-2]
    1bd8:	4900000a 	stmdbmi	r0, {r1, r3}
    1bdc:	0000000a 	andeq	r0, r0, sl
    1be0:	00048e20 	andeq	r8, r4, r0, lsr #28
    1be4:	07130100 	ldreq	r0, [r3, -r0, lsl #2]
    1be8:	0000021e 	andeq	r0, r0, lr, lsl r2
    1bec:	00008ac8 	andeq	r8, r0, r8, asr #21
    1bf0:	0000009c 	muleq	r0, ip, r0
    1bf4:	0c049c01 	stceq	12, cr9, [r4], {1}
    1bf8:	53220000 			; <UNDEFINED> instruction: 0x53220000
    1bfc:	01000004 	tsteq	r0, r4
    1c00:	00461113 	subeq	r1, r6, r3, lsl r1
    1c04:	0aac0000 	beq	feb01c0c <__bss_end__+0xfeaf6d64>
    1c08:	0aa80000 	beq	fea01c10 <__bss_end__+0xfe9f6d68>
    1c0c:	9e170000 	cdpls	0, 1, cr0, cr7, cr0, {0}
    1c10:	8d000000 	stchi	0, cr0, [r0, #-0]
    1c14:	0500000a 	streq	r0, [r0, #-10]
    1c18:	00a6b803 	adceq	fp, r6, r3, lsl #16
    1c1c:	8b242600 	blhi	90b424 <__bss_end__+0x90057c>
    1c20:	00400000 	subeq	r0, r0, r0
    1c24:	0b970000 	bleq	fe5c1c2c <__bss_end__+0xfe5b6d84>
    1c28:	cb250000 	blgt	941c30 <__bss_end__+0x936d88>
    1c2c:	01000004 	tsteq	r0, r4
    1c30:	002c1217 	eoreq	r1, ip, r7, lsl r2
    1c34:	00000000 	andeq	r0, r0, r0
    1c38:	401f0010 	andsmi	r0, pc, r0, lsl r0	; <UNPREDICTABLE>
    1c3c:	4c00008b 	stcmi	0, cr0, [r0], {139}	; 0x8b
    1c40:	1900000c 	stmdbne	r0, {r2, r3}
    1c44:	40035001 	andmi	r5, r3, r1
    1c48:	01192440 	tsteq	r9, r0, asr #8
    1c4c:	40400351 	submi	r0, r0, r1, asr r3
    1c50:	18000024 	stmdane	r0, {r2, r5}
    1c54:	00008adc 	ldrdeq	r8, [r0], -ip
    1c58:	00000c04 	andeq	r0, r0, r4, lsl #24
    1c5c:	00000bae 	andeq	r0, r0, lr, lsr #23
    1c60:	05500119 	ldrbeq	r0, [r0, #-281]	; 0xfffffee7
    1c64:	00a5ac03 	adceq	sl, r5, r3, lsl #24
    1c68:	fc180000 	ldc2	0, cr0, [r8], {-0}
    1c6c:	5800008a 	stmdapl	r0, {r1, r3, r7}
    1c70:	c200000c 	andgt	r0, r0, #12, 0
    1c74:	1900000b 	stmdbne	r0, {r0, r1, r3}
    1c78:	74025001 	strvc	r5, [r2], #-1
    1c7c:	20180000 	andscs	r0, r8, r0
    1c80:	0400008b 	streq	r0, [r0], #-139	; 0xffffff75
    1c84:	fa00000c 	blx	1cbc <__code_start__-0x6344>
    1c88:	1900000b 	stmdbne	r0, {r0, r1, r3}
    1c8c:	03055001 	movweq	r5, #20481	; 0x5001
    1c90:	0000a11c 	andeq	sl, r0, ip, lsl r1
    1c94:	05510119 	ldrbeq	r0, [r1, #-281]	; 0xfffffee7
    1c98:	00a58003 	adceq	r8, r5, r3
    1c9c:	52011900 	andpl	r1, r1, #0, 18
    1ca0:	a6b80305 	ldrtge	r0, [r8], r5, lsl #6
    1ca4:	01190000 	tsteq	r9, r0
    1ca8:	19450153 	stmdbne	r5, {r0, r1, r4, r6, r8}^
    1cac:	05007d02 	streq	r7, [r0, #-3330]	; 0xfffff2fe
    1cb0:	00a5bc03 	adceq	fp, r5, r3, lsl #24
    1cb4:	241a0000 	ldrcs	r0, [sl], #-0
    1cb8:	1000008b 	andne	r0, r0, fp, lsl #1
    1cbc:	0000000c 	andeq	r0, r0, ip
    1cc0:	0006f12b 	andeq	pc, r6, fp, lsr #2
    1cc4:	0006f100 	andeq	pc, r6, r0, lsl #2
    1cc8:	06280300 	strteq	r0, [r8], -r0, lsl #6
    1ccc:	0000b52b 	andeq	fp, r0, fp, lsr #10
    1cd0:	0000b500 	andeq	fp, r0, r0, lsl #10
    1cd4:	066e0300 	strbteq	r0, [lr], -r0, lsl #6
    1cd8:	0002f52b 	andeq	pc, r2, fp, lsr #10
    1cdc:	0002f500 	andeq	pc, r2, r0, lsl #10
    1ce0:	082f0500 	stmdaeq	pc!, {r8, sl}	; <UNPREDICTABLE>
    1ce4:	00033e2b 	andeq	r3, r3, fp, lsr #28
    1ce8:	00033e00 	andeq	r3, r3, r0, lsl #28
    1cec:	08320500 	ldmdaeq	r2!, {r8, sl}
    1cf0:	0004702b 	andeq	r7, r4, fp, lsr #32
    1cf4:	00047000 	andeq	r7, r4, r0
    1cf8:	06a00100 	strteq	r0, [r0], r0, lsl #2
    1cfc:	00037d2b 	andeq	r7, r3, fp, lsr #26
    1d00:	00037d00 	andeq	r7, r3, r0, lsl #26
    1d04:	08330500 	ldmdaeq	r3!, {r8, sl}
    1d08:	0004ff2b 	andeq	pc, r4, fp, lsr #30
    1d0c:	0004ff00 	andeq	pc, r4, r0, lsl #30
    1d10:	06830300 	streq	r0, [r3], r0, lsl #6
    1d14:	0004f72b 	andeq	pc, r4, fp, lsr #14
    1d18:	0004f700 	andeq	pc, r4, r0, lsl #14
    1d1c:	077c0300 	ldrbeq	r0, [ip, -r0, lsl #6]!
    1d20:	0002da00 	andeq	sp, r2, r0, lsl #20
    1d24:	3c000400 	cfstrscc	mvf0, [r0], {-0}
    1d28:	04000007 	streq	r0, [r0], #-7
    1d2c:	00019701 	andeq	r9, r1, r1, lsl #14
    1d30:	05770c00 	ldrbeq	r0, [r7, #-3072]!	; 0xfffff400
    1d34:	013f0000 	teqeq	pc, r0
    1d38:	8ca80000 	stchi	0, cr0, [r8]
    1d3c:	01ac0000 			; <UNDEFINED> instruction: 0x01ac0000
    1d40:	0ce10000 	stcleq	0, cr0, [r1]
    1d44:	04020000 	streq	r0, [r2], #-0
    1d48:	746e6905 	strbtvc	r6, [lr], #-2309	; 0xfffff6fb
    1d4c:	07040300 	streq	r0, [r4, -r0, lsl #6]
    1d50:	000000fe 	strdeq	r0, [r0], -lr
    1d54:	d6060103 	strle	r0, [r6], -r3, lsl #2
    1d58:	03000000 	movweq	r0, #0
    1d5c:	002a0502 	eoreq	r0, sl, r2, lsl #10
    1d60:	04030000 	streq	r0, [r3], #-0
    1d64:	00006b05 	andeq	r6, r0, r5, lsl #22
    1d68:	05080300 	streq	r0, [r8, #-768]	; 0xfffffd00
    1d6c:	00000066 	andeq	r0, r0, r6, rrx
    1d70:	d4080103 	strle	r0, [r8], #-259	; 0xfffffefd
    1d74:	03000000 	movweq	r0, #0
    1d78:	01250702 			; <UNDEFINED> instruction: 0x01250702
    1d7c:	04030000 	streq	r0, [r3], #-0
    1d80:	0000f907 	andeq	pc, r0, r7, lsl #18
    1d84:	07080300 	streq	r0, [r8, -r0, lsl #6]
    1d88:	000000f4 	strdeq	r0, [r0], -r4
    1d8c:	00002504 	andeq	r2, r0, r4, lsl #10
    1d90:	00007a00 	andeq	r7, r0, r0, lsl #20
    1d94:	00250500 	eoreq	r0, r5, r0, lsl #10
    1d98:	06000000 	streq	r0, [r0], -r0
    1d9c:	00000034 	andeq	r0, r0, r4, lsr r0
    1da0:	860e1c02 	strhi	r1, [lr], -r2, lsl #24
    1da4:	07000000 	streq	r0, [r0, -r0]
    1da8:	00006b04 	andeq	r6, r0, r4, lsl #22
    1dac:	00250400 	eoreq	r0, r5, r0, lsl #8
    1db0:	009b0000 	addseq	r0, fp, r0
    1db4:	9b050000 	blls	141dbc <__bss_end__+0x136f14>
    1db8:	00000000 	andeq	r0, r0, r0
    1dbc:	00a80407 	adceq	r0, r8, r7, lsl #8
    1dc0:	01030000 	mrseq	r0, (UNDEF: 3)
    1dc4:	0000dd08 	andeq	sp, r0, r8, lsl #26
    1dc8:	00a10800 	adceq	r0, r1, r0, lsl #16
    1dcc:	2f060000 	svccs	0x00060000
    1dd0:	02000007 	andeq	r0, r0, #7, 0
    1dd4:	00b90e21 	adcseq	r0, r9, r1, lsr #28
    1dd8:	04070000 	streq	r0, [r7], #-0
    1ddc:	0000008c 	andeq	r0, r0, ip, lsl #1
    1de0:	00055c09 	andeq	r5, r5, r9, lsl #24
    1de4:	19030800 	stmdbne	r3, {fp}
    1de8:	0000ec07 	andeq	lr, r0, r7, lsl #24
    1dec:	00640a00 	rsbeq	r0, r4, r0, lsl #20
    1df0:	ec101a03 			; <UNDEFINED> instruction: 0xec101a03
    1df4:	0a000000 	beq	1dfc <__code_start__-0x6204>
    1df8:	1b030070 	blne	c1fc0 <__bss_end__+0xb7118>
    1dfc:	0000f30f 	andeq	pc, r0, pc, lsl #6
    1e00:	70660a00 	rsbvc	r0, r6, r0, lsl #20
    1e04:	101c0300 	andsne	r0, ip, r0, lsl #6
    1e08:	000000f6 	strdeq	r0, [r0], -r6
    1e0c:	04080300 	streq	r0, [r8], #-768	; 0xfffffd00
    1e10:	00000376 	andeq	r0, r0, r6, ror r3
    1e14:	070c040b 	streq	r0, [ip, -fp, lsl #8]
    1e18:	0000f504 	andeq	pc, r0, r4, lsl #10
    1e1c:	03080d00 	movweq	r0, #36096	; 0x8d00
    1e20:	01200220 			; <UNDEFINED> instruction: 0x01200220
    1e24:	700e0000 	andvc	r0, lr, r0
    1e28:	03007274 	movweq	r7, #628	; 0x274
    1e2c:	01421521 	cmpeq	r2, r1, lsr #10
    1e30:	0f000000 	svceq	0x00000000
    1e34:	00000594 	muleq	r0, r4, r5
    1e38:	2c102203 	lfmcs	f2, 4, [r0], {3}
    1e3c:	04000000 	streq	r0, [r0], #-0
    1e40:	054f0900 	strbeq	r0, [pc, #-2304]	; 1548 <__code_start__-0x6ab8>
    1e44:	03080000 	movweq	r0, #32768	; 0x8000
    1e48:	01420f1f 	cmpeq	r2, pc, lsl pc
    1e4c:	730a0000 	movwvc	r0, #40960	; 0xa000
    1e50:	06230300 	strteq	r0, [r3], -r0, lsl #6
    1e54:	000000fc 	strdeq	r0, [r0], -ip
    1e58:	0300780a 	movweq	r7, #2058	; 0x80a
    1e5c:	00bf1024 	adcseq	r1, pc, r4, lsr #32
    1e60:	07000000 	streq	r0, [r0, -r0]
    1e64:	00012004 	andeq	r2, r1, r4
    1e68:	05991000 	ldreq	r1, [r9]
    1e6c:	25030000 	strcs	r0, [r3, #-0]
    1e70:	00012003 	andeq	r2, r1, r3
    1e74:	05831100 	streq	r1, [r3, #256]	; 0x100
    1e78:	06010000 	streq	r0, [r1], -r0
    1e7c:	0001480f 	andeq	r4, r1, pc, lsl #16
    1e80:	98030500 	stmdals	r3, {r8, sl}
    1e84:	110000aa 	smlatbne	r0, sl, r0, r0
    1e88:	0000056a 	andeq	r0, r0, sl, ror #10
    1e8c:	78100701 	ldmdavc	r0, {r0, r8, r9, sl}
    1e90:	05000001 	streq	r0, [r0, #-1]
    1e94:	00aa9003 	adceq	r9, sl, r3
    1e98:	48040700 	stmdami	r4, {r8, r9, sl}
    1e9c:	12000001 	andne	r0, r0, #1, 0
    1ea0:	00000562 	andeq	r0, r0, r2, ror #10
    1ea4:	a8064601 	stmdage	r6, {r0, r9, sl, lr}
    1ea8:	bc00008c 	stclt	0, cr0, [r0], {140}	; 0x8c
    1eac:	01000000 	mrseq	r0, (UNDEF: 0)
    1eb0:	0001c89c 	muleq	r1, ip, r8
    1eb4:	74701300 	ldrbtvc	r1, [r0], #-768	; 0xfffffd00
    1eb8:	46010072 			; <UNDEFINED> instruction: 0x46010072
    1ebc:	0000f314 	andeq	pc, r0, r4, lsl r3	; <UNPREDICTABLE>
    1ec0:	14500100 	ldrbne	r0, [r0], #-256	; 0xffffff00
    1ec4:	01007062 	tsteq	r0, r2, rrx
    1ec8:	01780a47 	cmneq	r8, r7, asr #20
    1ecc:	0ad20000 	beq	ff481ed4 <__bss_end__+0xff47702c>
    1ed0:	0aca0000 	beq	ff281ed8 <__bss_end__+0xff277030>
    1ed4:	70140000 	andsvc	r0, r4, r0
    1ed8:	0f470100 	svceq	0x00470100
    1edc:	00000178 	andeq	r0, r0, r8, ror r1
    1ee0:	00000b0e 	andeq	r0, r0, lr, lsl #22
    1ee4:	00000b0a 	andeq	r0, r0, sl, lsl #22
    1ee8:	03cc1500 	biceq	r1, ip, #0, 10
    1eec:	20010000 	andcs	r0, r1, r0
    1ef0:	0000f307 	andeq	pc, r0, r7, lsl #6
    1ef4:	008da800 	addeq	sl, sp, r0, lsl #16
    1ef8:	0000ac00 	andeq	sl, r0, r0, lsl #24
    1efc:	579c0100 	ldrpl	r0, [ip, r0, lsl #2]
    1f00:	16000002 	strne	r0, [r0], -r2
    1f04:	000003c5 	andeq	r0, r0, r5, asr #7
    1f08:	2c1a2001 	ldccs	0, cr2, [sl], {1}
    1f0c:	34000000 	strcc	r0, [r0], #-0
    1f10:	2c00000b 	stccs	0, cr0, [r0], {11}
    1f14:	1400000b 	strne	r0, [r0], #-11
    1f18:	21010070 	tstcs	r1, r0, ror r0
    1f1c:	0001780a 	andeq	r7, r1, sl, lsl #16
    1f20:	000b7c00 	andeq	r7, fp, r0, lsl #24
    1f24:	000b6e00 	andeq	r6, fp, r0, lsl #28
    1f28:	05561700 	ldrbeq	r1, [r6, #-1792]	; 0xfffff900
    1f2c:	21010000 	mrscs	r0, (UNDEF: 1)
    1f30:	0001780e 	andeq	r7, r1, lr, lsl #16
    1f34:	000bde00 	andeq	sp, fp, r0, lsl #28
    1f38:	000bd400 	andeq	sp, fp, r0, lsl #8
    1f3c:	05701700 	ldrbeq	r1, [r0, #-1792]!	; 0xfffff900
    1f40:	22010000 	andcs	r0, r1, #0, 0
    1f44:	00002c0b 	andeq	r2, r0, fp, lsl #24
    1f48:	000c2400 	andeq	r2, ip, r0, lsl #8
    1f4c:	000c2200 	andeq	r2, ip, r0, lsl #4
    1f50:	05881800 	streq	r1, [r8, #2048]	; 0x800
    1f54:	23010000 	movwcs	r0, #4096	; 0x1000
    1f58:	0001780a 	andeq	r7, r1, sl, lsl #16
    1f5c:	00024600 	andeq	r4, r2, r0, lsl #12
    1f60:	002c0500 	eoreq	r0, ip, r0, lsl #10
    1f64:	19000000 	stmdbne	r0, {}	; <UNPREDICTABLE>
    1f68:	00008e44 	andeq	r8, r0, r4, asr #28
    1f6c:	00000257 	andeq	r0, r0, r7, asr r2
    1f70:	0250011a 	subseq	r0, r0, #-2147483642	; 0x80000006
    1f74:	00000074 	andeq	r0, r0, r4, ror r0
    1f78:	0005881b 	andeq	r8, r5, fp, lsl r8
    1f7c:	100c0100 	andne	r0, ip, r0, lsl #2
    1f80:	00000178 	andeq	r0, r0, r8, ror r1
    1f84:	00008d64 	andeq	r8, r0, r4, ror #26
    1f88:	00000044 	andeq	r0, r0, r4, asr #32
    1f8c:	02cb9c01 	sbceq	r9, fp, #256	; 0x100
    1f90:	691c0000 	ldmdbvs	ip, {}	; <UNPREDICTABLE>
    1f94:	0100636e 	tsteq	r0, lr, ror #6
    1f98:	002c250c 	eoreq	r2, ip, ip, lsl #10
    1f9c:	0c3b0000 	ldceq	0, cr0, [fp], #-0
    1fa0:	0c370000 	ldceq	0, cr0, [r7], #-0
    1fa4:	63140000 	tstvs	r4, #0, 0
    1fa8:	0d010070 	stceq	0, cr0, [r1, #-448]	; 0xfffffe40
    1fac:	0002cb08 	andeq	ip, r2, r8, lsl #22
    1fb0:	000c5f00 	andeq	r5, ip, r0, lsl #30
    1fb4:	000c5900 	andeq	r5, ip, r0, lsl #18
    1fb8:	70751400 	rsbsvc	r1, r5, r0, lsl #8
    1fbc:	0a0e0100 	beq	3823c4 <__bss_end__+0x37751c>
    1fc0:	00000178 	andeq	r0, r0, r8, ror r1
    1fc4:	00000c8e 	andeq	r0, r0, lr, lsl #25
    1fc8:	00000c8a 	andeq	r0, r0, sl, lsl #25
    1fcc:	008d7c1d 	addeq	r7, sp, sp, lsl ip
    1fd0:	0002d100 	andeq	sp, r2, r0, lsl #2
    1fd4:	0002c100 	andeq	ip, r2, r0, lsl #2
    1fd8:	50011a00 	andpl	r1, r1, r0, lsl #20
    1fdc:	33007404 	movwcc	r7, #1028	; 0x404
    1fe0:	901e0024 	andsls	r0, lr, r4, lsr #32
    1fe4:	7e00008d 	cdpvc	0, 0, cr0, cr0, cr13, {4}
    1fe8:	00000001 	andeq	r0, r0, r1
    1fec:	00a10407 	adceq	r0, r1, r7, lsl #8
    1ff0:	8e1f0000 	cdphi	0, 1, cr0, cr15, cr0, {0}
    1ff4:	8e000004 	cdphi	0, 0, cr0, cr0, cr4, {0}
    1ff8:	03000004 	movweq	r0, #4
    1ffc:	83000b28 	movwhi	r0, #2856	; 0xb28
    2000:	04000001 	streq	r0, [r0], #-1
    2004:	00092a00 	andeq	r2, r9, r0, lsl #20
    2008:	a0010400 	andge	r0, r1, r0, lsl #8
    200c:	0c000005 	stceq	0, cr0, [r0], {5}
    2010:	000006b9 			; <UNDEFINED> instruction: 0x000006b9
    2014:	00000671 	andeq	r0, r0, r1, ror r6
    2018:	00008e54 	andeq	r8, r0, r4, asr lr
    201c:	00000034 	andeq	r0, r0, r4, lsr r0
    2020:	00000f37 	andeq	r0, r0, r7, lsr pc
    2024:	69050402 	stmdbvs	r5, {r1, sl}
    2028:	0300746e 	movweq	r7, #1134	; 0x46e
    202c:	0000066a 	andeq	r0, r0, sl, ror #12
    2030:	3817d103 	ldmdacc	r7, {r0, r1, r8, ip, lr, pc}
    2034:	04000000 	streq	r0, [r0], #-0
    2038:	00fe0704 	rscseq	r0, lr, r4, lsl #14
    203c:	01040000 	mrseq	r0, (UNDEF: 4)
    2040:	0000d606 	andeq	sp, r0, r6, lsl #12
    2044:	05020400 	streq	r0, [r2, #-1024]	; 0xfffffc00
    2048:	0000002a 	andeq	r0, r0, sl, lsr #32
    204c:	6b050404 	blvs	143064 <__bss_end__+0x1381bc>
    2050:	04000000 	streq	r0, [r0], #-0
    2054:	00660508 	rsbeq	r0, r6, r8, lsl #10
    2058:	01040000 	mrseq	r0, (UNDEF: 4)
    205c:	0000d408 	andeq	sp, r0, r8, lsl #8
    2060:	005b0500 	subseq	r0, fp, r0, lsl #10
    2064:	02040000 	andeq	r0, r4, #0, 0
    2068:	00012507 	andeq	r2, r1, r7, lsl #10
    206c:	07040400 	streq	r0, [r4, -r0, lsl #8]
    2070:	000000f9 	strdeq	r0, [r0], -r9
    2074:	f4070804 	vst2.8	{d0-d1}, [r7], r4
    2078:	06000000 	streq	r0, [r0], -r0
    207c:	00000025 	andeq	r0, r0, r5, lsr #32
    2080:	0000008b 	andeq	r0, r0, fp, lsl #1
    2084:	00002507 	andeq	r2, r0, r7, lsl #10
    2088:	34080000 	strcc	r0, [r8], #-0
    208c:	02000000 	andeq	r0, r0, #0, 0
    2090:	00970e1c 	addseq	r0, r7, ip, lsl lr
    2094:	04090000 	streq	r0, [r9], #-0
    2098:	0000007c 	andeq	r0, r0, ip, ror r0
    209c:	00002506 	andeq	r2, r0, r6, lsl #10
    20a0:	0000ac00 	andeq	sl, r0, r0, lsl #24
    20a4:	00ac0700 	adceq	r0, ip, r0, lsl #14
    20a8:	09000000 	stmdbeq	r0, {}	; <UNPREDICTABLE>
    20ac:	0000b904 	andeq	fp, r0, r4, lsl #18
    20b0:	08010400 	stmdaeq	r1, {sl}
    20b4:	000000dd 	ldrdeq	r0, [r0], -sp
    20b8:	0000b205 	andeq	fp, r0, r5, lsl #4
    20bc:	072f0800 	streq	r0, [pc, -r0, lsl #16]!
    20c0:	21020000 	mrscs	r0, (UNDEF: 2)
    20c4:	0000ca0e 	andeq	ip, r0, lr, lsl #20
    20c8:	9d040900 	vstrls.16	s0, [r4, #-0]	; <UNPREDICTABLE>
    20cc:	0a000000 	beq	20d4 <__code_start__-0x5f2c>
    20d0:	0000034f 	andeq	r0, r0, pc, asr #6
    20d4:	25050301 	strcs	r0, [r5, #-769]	; 0xfffffcff
    20d8:	54000000 	strpl	r0, [r0], #-0
    20dc:	3400008e 	strcc	r0, [r0], #-142	; 0xffffff72
    20e0:	01000000 	mrseq	r0, (UNDEF: 0)
    20e4:	0001799c 	muleq	r1, ip, r9
    20e8:	735f0b00 	cmpvc	pc, #0, 22
    20ec:	03010031 	movweq	r0, #4145	; 0x1031
    20f0:	00017918 	andeq	r7, r1, r8, lsl r9
    20f4:	000cb200 	andeq	fp, ip, r0, lsl #4
    20f8:	000cae00 	andeq	sl, ip, r0, lsl #28
    20fc:	735f0c00 	cmpvc	pc, #0, 24
    2100:	03010032 	movweq	r0, #4146	; 0x1032
    2104:	00017929 	andeq	r7, r1, r9, lsr #18
    2108:	0d510100 	ldfeqe	f0, [r1, #-0]
    210c:	000003c5 	andeq	r0, r0, r5, asr #7
    2110:	2c350301 	ldccs	3, cr0, [r5], #-4
    2114:	01000000 	mrseq	r0, (UNDEF: 0)
    2118:	31730e52 	cmncc	r3, r2, asr lr
    211c:	1a040100 	bne	102524 <__bss_end__+0xf767c>
    2120:	00000180 	andeq	r0, r0, r0, lsl #3
    2124:	00000cd4 	ldrdeq	r0, [r0], -r4
    2128:	00000cd0 	ldrdeq	r0, [r0], -r0	; <UNPREDICTABLE>
    212c:	0032730e 	eorseq	r7, r2, lr, lsl #6
    2130:	80250401 	eorhi	r0, r5, r1, lsl #8
    2134:	f4000001 	vst4.8	{d0-d3}, [r0], r1
    2138:	f200000c 	vhadd.s8	d0, d0, d12
    213c:	0f00000c 	svceq	0x0000000c
    2140:	00008e5c 	andeq	r8, r0, ip, asr lr
    2144:	00000024 	andeq	r0, r0, r4, lsr #32
    2148:	0100690e 	tsteq	r0, lr, lsl #18
    214c:	00250d06 	eoreq	r0, r5, r6, lsl #26
    2150:	0d0b0000 	stceq	0, cr0, [fp, #-0]
    2154:	0d070000 	stceq	0, cr0, [r7, #-0]
    2158:	680f0000 	stmdavs	pc, {}	; <UNPREDICTABLE>
    215c:	1000008e 	andne	r0, r0, lr, lsl #1
    2160:	0e000000 	cdpeq	0, 0, cr0, cr0, cr0, {0}
    2164:	07010076 	smlsdxeq	r1, r6, r0, r0
    2168:	0000250d 	andeq	r2, r0, sp, lsl #10
    216c:	000d2e00 	andeq	r2, sp, r0, lsl #28
    2170:	000d2a00 	andeq	r2, sp, r0, lsl #20
    2174:	00000000 	andeq	r0, r0, r0
    2178:	017f0409 	cmneq	pc, r9, lsl #8
    217c:	09100000 	ldmdbeq	r0, {}	; <UNPREDICTABLE>
    2180:	00006204 	andeq	r6, r0, r4, lsl #4
    2184:	01fa0000 	mvnseq	r0, r0
    2188:	00040000 	andeq	r0, r4, r0
    218c:	00000a0e 	andeq	r0, r0, lr, lsl #20
    2190:	05a00104 	streq	r0, [r0, #260]!	; 0x104
    2194:	c90c0000 	stmdbgt	ip, {}	; <UNPREDICTABLE>
    2198:	71000006 	tstvc	r0, r6
    219c:	88000006 	stmdahi	r0, {r1, r2}
    21a0:	6000008e 	andvs	r0, r0, lr, lsl #1
    21a4:	86000000 	strhi	r0, [r0], -r0
    21a8:	02000010 	andeq	r0, r0, #16, 0
    21ac:	6e690504 	cdpvs	5, 6, cr0, cr9, cr4, {0}
    21b0:	6a030074 	bvs	c2388 <__bss_end__+0xb74e0>
    21b4:	03000006 	movweq	r0, #6
    21b8:	003817d1 	ldrsbteq	r1, [r8], -r1
    21bc:	04040000 	streq	r0, [r4], #-0
    21c0:	0000fe07 	andeq	pc, r0, r7, lsl #28
    21c4:	00380500 	eorseq	r0, r8, r0, lsl #10
    21c8:	01040000 	mrseq	r0, (UNDEF: 4)
    21cc:	0000d606 	andeq	sp, r0, r6, lsl #12
    21d0:	05020400 	streq	r0, [r2, #-1024]	; 0xfffffc00
    21d4:	0000002a 	andeq	r0, r0, sl, lsr #32
    21d8:	6b050404 	blvs	1431f0 <__bss_end__+0x138348>
    21dc:	04000000 	streq	r0, [r0], #-0
    21e0:	00660508 	rsbeq	r0, r6, r8, lsl #10
    21e4:	01040000 	mrseq	r0, (UNDEF: 4)
    21e8:	0000d408 	andeq	sp, r0, r8, lsl #8
    21ec:	00600500 	rsbeq	r0, r0, r0, lsl #10
    21f0:	02040000 	andeq	r0, r4, #0, 0
    21f4:	00012507 	andeq	r2, r1, r7, lsl #10
    21f8:	07040400 	streq	r0, [r4, -r0, lsl #8]
    21fc:	000000f9 	strdeq	r0, [r0], -r9
    2200:	f4070804 	vst2.8	{d0-d1}, [r7], r4
    2204:	06000000 	streq	r0, [r0], -r0
    2208:	00000025 	andeq	r0, r0, r5, lsr #32
    220c:	00000090 	muleq	r0, r0, r0
    2210:	00002507 	andeq	r2, r0, r7, lsl #10
    2214:	34080000 	strcc	r0, [r8], #-0
    2218:	02000000 	andeq	r0, r0, #0, 0
    221c:	009c0e1c 	addseq	r0, ip, ip, lsl lr
    2220:	04090000 	streq	r0, [r9], #-0
    2224:	00000081 	andeq	r0, r0, r1, lsl #1
    2228:	00002506 	andeq	r2, r0, r6, lsl #10
    222c:	0000b100 	andeq	fp, r0, r0, lsl #2
    2230:	00b10700 	adcseq	r0, r1, r0, lsl #14
    2234:	09000000 	stmdbeq	r0, {}	; <UNPREDICTABLE>
    2238:	0000be04 	andeq	fp, r0, r4, lsl #28
    223c:	08010400 	stmdaeq	r1, {sl}
    2240:	000000dd 	ldrdeq	r0, [r0], -sp
    2244:	0000b705 	andeq	fp, r0, r5, lsl #14
    2248:	072f0800 	streq	r0, [pc, -r0, lsl #16]!
    224c:	21020000 	mrscs	r0, (UNDEF: 2)
    2250:	0000cf0e 	andeq	ip, r0, lr, lsl #30
    2254:	a2040900 	andge	r0, r4, #0, 18
    2258:	0a000000 	beq	2260 <__code_start__-0x5da0>
    225c:	000002d3 	ldrdeq	r0, [r0], -r3
    2260:	c7070601 	strgt	r0, [r7, -r1, lsl #12]
    2264:	88000001 	stmdahi	r0, {r0}
    2268:	6000008e 	andvs	r0, r0, lr, lsl #1
    226c:	01000000 	mrseq	r0, (UNDEF: 0)
    2270:	0001c79c 	muleq	r1, ip, r7
    2274:	73640b00 	cmnvc	r4, #0, 22
    2278:	06010074 			; <UNDEFINED> instruction: 0x06010074
    227c:	0001c714 	andeq	ip, r1, r4, lsl r7
    2280:	0b500100 	bleq	1402688 <__bss_end__+0x13f77e0>
    2284:	00637273 	rsbeq	r7, r3, r3, ror r2
    2288:	c9250601 	stmdbgt	r5!, {r0, r9, sl}
    228c:	01000001 	tsteq	r0, r1
    2290:	03c50c51 	biceq	r0, r5, #20736	; 0x5100
    2294:	06010000 	streq	r0, [r1], -r0
    2298:	00002c31 	andeq	r2, r0, r1, lsr ip
    229c:	000d5700 	andeq	r5, sp, r0, lsl #14
    22a0:	000d5100 	andeq	r5, sp, r0, lsl #2
    22a4:	009e0d00 	addseq	r0, lr, r0, lsl #26
    22a8:	01e00000 	mvneq	r0, r0
    22ac:	02d30000 	sbcseq	r0, r3, #0, 0
    22b0:	a00e0000 	andge	r0, lr, r0
    22b4:	2000008e 	andcs	r0, r0, lr, lsl #1
    22b8:	8c000000 	stchi	0, cr0, [r0], {-0}
    22bc:	0f000001 	svceq	0x00000001
    22c0:	0d01006e 	stceq	0, cr0, [r1, #-440]	; 0xfffffe48
    22c4:	00003812 	andeq	r3, r0, r2, lsl r8
    22c8:	000d8500 	andeq	r8, sp, r0, lsl #10
    22cc:	000d8300 	andeq	r8, sp, r0, lsl #6
    22d0:	00640f00 	rsbeq	r0, r4, r0, lsl #30
    22d4:	e5130e01 	ldr	r0, [r3, #-3585]	; 0xfffff1ff
    22d8:	9a000001 	bls	22e4 <__code_start__-0x5d1c>
    22dc:	9800000d 	stmdals	r0, {r0, r2, r3}
    22e0:	0f00000d 	svceq	0x0000000d
    22e4:	0f010073 	svceq	0x00010073
    22e8:	0001eb19 	andeq	lr, r1, r9, lsl fp
    22ec:	000daf00 	andeq	sl, sp, r0, lsl #30
    22f0:	000dad00 	andeq	sl, sp, r0, lsl #26
    22f4:	8ea41000 	cdphi	0, 10, cr1, cr4, cr0, {0}
    22f8:	001c0000 	andseq	r0, ip, r0
    22fc:	690f0000 	stmdbvs	pc, {}	; <UNPREDICTABLE>
    2300:	16110100 	ldrne	r0, [r1], -r0, lsl #2
    2304:	00000038 	andeq	r0, r0, r8, lsr r0
    2308:	00000dc6 	andeq	r0, r0, r6, asr #27
    230c:	00000dc2 	andeq	r0, r0, r2, asr #27
    2310:	c0100000 	andsgt	r0, r0, r0
    2314:	1800008e 	stmdane	r0, {r1, r2, r3, r7}
    2318:	11000000 	mrsne	r0, (UNDEF: 0)
    231c:	14010064 	strne	r0, [r1], #-100	; 0xffffff9c
    2320:	0001f118 	andeq	pc, r1, r8, lsl r1	; <UNPREDICTABLE>
    2324:	00731100 	rsbseq	r1, r3, r0, lsl #2
    2328:	f71e1501 			; <UNDEFINED> instruction: 0xf71e1501
    232c:	10000001 	andne	r0, r0, r1
    2330:	00008ec0 	andeq	r8, r0, r0, asr #29
    2334:	00000018 	andeq	r0, r0, r8, lsl r0
    2338:	0100690f 	tsteq	r0, pc, lsl #18
    233c:	00381616 	eorseq	r1, r8, r6, lsl r6
    2340:	0de70000 	stcleq	0, cr0, [r7]
    2344:	0de50000 	stcleq	0, cr0, [r5]
    2348:	00000000 	andeq	r0, r0, r0
    234c:	09041200 	stmdbeq	r4, {r9, ip}
    2350:	0001cf04 	andeq	ip, r1, r4, lsl #30
    2354:	be141300 	cdplt	3, 1, cr1, cr4, cr0, {0}
    2358:	e0000000 	and	r0, r0, r0
    235c:	15000001 	strne	r0, [r0, #-1]
    2360:	00000038 	andeq	r0, r0, r8, lsr r0
    2364:	d0050006 	andle	r0, r5, r6
    2368:	09000001 	stmdbeq	r0, {r0}
    236c:	00003804 	andeq	r3, r0, r4, lsl #16
    2370:	3f040900 	svccc	0x00040900
    2374:	09000000 	stmdbeq	r0, {}	; <UNPREDICTABLE>
    2378:	00006004 	andeq	r6, r0, r4
    237c:	67040900 	strvs	r0, [r4, -r0, lsl #18]
    2380:	00000000 	andeq	r0, r0, r0
    2384:	0000013a 	andeq	r0, r0, sl, lsr r1
    2388:	0b210004 	bleq	8423a0 <__bss_end__+0x8374f8>
    238c:	01040000 	mrseq	r0, (UNDEF: 4)
    2390:	000005a0 	andeq	r0, r0, r0, lsr #11
    2394:	0006d90c 	andeq	sp, r6, ip, lsl #18
    2398:	00067100 	andeq	r7, r6, r0, lsl #2
    239c:	008ee800 	addeq	lr, lr, r0, lsl #16
    23a0:	00001800 	andeq	r1, r0, r0, lsl #16
    23a4:	00125500 	andseq	r5, r2, r0, lsl #10
    23a8:	05040200 	streq	r0, [r4, #-512]	; 0xfffffe00
    23ac:	00746e69 	rsbseq	r6, r4, r9, ror #28
    23b0:	00066a03 	andeq	r6, r6, r3, lsl #20
    23b4:	17d10300 	ldrbne	r0, [r1, r0, lsl #6]
    23b8:	00000038 	andeq	r0, r0, r8, lsr r0
    23bc:	fe070404 	cdp2	4, 0, cr0, cr7, cr4, {0}
    23c0:	04000000 	streq	r0, [r0], #-0
    23c4:	00d60601 	sbcseq	r0, r6, r1, lsl #12
    23c8:	02040000 	andeq	r0, r4, #0, 0
    23cc:	00002a05 	andeq	r2, r0, r5, lsl #20
    23d0:	05040400 	streq	r0, [r4, #-1024]	; 0xfffffc00
    23d4:	0000006b 	andeq	r0, r0, fp, rrx
    23d8:	66050804 	strvs	r0, [r5], -r4, lsl #16
    23dc:	04000000 	streq	r0, [r0], #-0
    23e0:	00d40801 	sbcseq	r0, r4, r1, lsl #16
    23e4:	02040000 	andeq	r0, r4, #0, 0
    23e8:	00012507 	andeq	r2, r1, r7, lsl #10
    23ec:	07040400 	streq	r0, [r4, -r0, lsl #8]
    23f0:	000000f9 	strdeq	r0, [r0], -r9
    23f4:	f4070804 	vst2.8	{d0-d1}, [r7], r4
    23f8:	05000000 	streq	r0, [r0, #-0]
    23fc:	00000025 	andeq	r0, r0, r5, lsr #32
    2400:	00000086 	andeq	r0, r0, r6, lsl #1
    2404:	00002506 	andeq	r2, r0, r6, lsl #10
    2408:	34070000 	strcc	r0, [r7], #-0
    240c:	02000000 	andeq	r0, r0, #0, 0
    2410:	00920e1c 	addseq	r0, r2, ip, lsl lr
    2414:	04080000 	streq	r0, [r8], #-0
    2418:	00000077 	andeq	r0, r0, r7, ror r0
    241c:	00002505 	andeq	r2, r0, r5, lsl #10
    2420:	0000a700 	andeq	sl, r0, r0, lsl #14
    2424:	00a70600 	adceq	r0, r7, r0, lsl #12
    2428:	08000000 	stmdaeq	r0, {}	; <UNPREDICTABLE>
    242c:	0000b404 	andeq	fp, r0, r4, lsl #8
    2430:	08010400 	stmdaeq	r1, {sl}
    2434:	000000dd 	ldrdeq	r0, [r0], -sp
    2438:	0000ad09 	andeq	sl, r0, r9, lsl #26
    243c:	072f0700 	streq	r0, [pc, -r0, lsl #14]!
    2440:	21020000 	mrscs	r0, (UNDEF: 2)
    2444:	0000c50e 	andeq	ip, r0, lr, lsl #10
    2448:	98040800 	stmdals	r4, {fp}
    244c:	0a000000 	beq	2454 <__code_start__-0x5bac>
    2450:	00000318 	andeq	r0, r0, r8, lsl r3
    2454:	35070401 	strcc	r0, [r7, #-1025]	; 0xfffffbff
    2458:	e8000001 	stmda	r0, {r0}
    245c:	1800008e 	stmdane	r0, {r1, r2, r3, r7}
    2460:	01000000 	mrseq	r0, (UNDEF: 0)
    2464:	0001359c 	muleq	r1, ip, r5
    2468:	705f0b00 	subsvc	r0, pc, r0, lsl #22
    246c:	14040100 	strne	r0, [r4], #-256	; 0xffffff00
    2470:	00000135 	andeq	r0, r0, r5, lsr r1
    2474:	630b5001 	movwvs	r5, #45057	; 0xb001
    2478:	1c040100 	stfnes	f0, [r4], {-0}
    247c:	00000025 	andeq	r0, r0, r5, lsr #32
    2480:	6e0c5101 	adfvse	f5, f4, f1
    2484:	26040100 	strcs	r0, [r4], -r0, lsl #2
    2488:	0000002c 	andeq	r0, r0, ip, lsr #32
    248c:	00000dfe 	strdeq	r0, [r0], -lr
    2490:	00000dfa 	strdeq	r0, [r0], -sl
    2494:	0100700d 	tsteq	r0, sp
    2498:	01370b05 	teqeq	r7, r5, lsl #22
    249c:	0e270000 	cdpeq	0, 2, cr0, cr7, cr0, {0}
    24a0:	0e1f0000 	cdpeq	0, 1, cr0, cr15, cr0, {0}
    24a4:	650d0000 	strvs	r0, [sp, #-0]
    24a8:	14050100 	strne	r0, [r5], #-256	; 0xffffff00
    24ac:	00000137 	andeq	r0, r0, r7, lsr r1
    24b0:	00000e5f 	andeq	r0, r0, pc, asr lr
    24b4:	00000e5d 	andeq	r0, r0, sp, asr lr
    24b8:	08040e00 	stmdaeq	r4, {r9, sl, fp}
    24bc:	0000ad04 	andeq	sl, r0, r4, lsl #26
    24c0:	019d0000 	orrseq	r0, sp, r0
    24c4:	00040000 	andeq	r0, r4, r0
    24c8:	00000bed 	andeq	r0, r0, sp, ror #23
    24cc:	05a00104 	streq	r0, [r0, #260]!	; 0x104
    24d0:	160c0000 	strne	r0, [ip], -r0
    24d4:	71000007 	tstvc	r0, r7
    24d8:	00000006 	andeq	r0, r0, r6
    24dc:	5800008f 	stmdapl	r0, {r0, r1, r2, r3, r7}
    24e0:	6d000000 	stcvs	0, cr0, [r0, #-0]
    24e4:	02000013 	andeq	r0, r0, #19, 0
    24e8:	000006f8 	strdeq	r0, [r0], -r8
    24ec:	311b2802 	tstcc	fp, r2, lsl #16
    24f0:	03000000 	movweq	r0, #0
    24f4:	00000707 	andeq	r0, r0, r7, lsl #14
    24f8:	48000404 	stmdami	r0, {r2, sl}
    24fc:	04000000 	streq	r0, [r0], #-0
    2500:	00000711 	andeq	r0, r0, r1, lsl r7
    2504:	00000048 	andeq	r0, r0, r8, asr #32
    2508:	04050000 	streq	r0, [r5], #-0
    250c:	00070902 	andeq	r0, r7, r2, lsl #18
    2510:	18630200 	stmdane	r3!, {r9}^
    2514:	00000025 	andeq	r0, r0, r5, lsr #32
    2518:	69050406 	stmdbvs	r5, {r1, r2, sl}
    251c:	0700746e 	streq	r7, [r0, -lr, ror #8]
    2520:	00fe0704 	rscseq	r0, lr, r4, lsl #14
    2524:	01070000 	mrseq	r0, (UNDEF: 7)
    2528:	0000d606 	andeq	sp, r0, r6, lsl #12
    252c:	05020700 	streq	r0, [r2, #-1792]	; 0xfffff900
    2530:	0000002a 	andeq	r0, r0, sl, lsr #32
    2534:	6b050407 	blvs	143558 <__bss_end__+0x1386b0>
    2538:	07000000 	streq	r0, [r0, -r0]
    253c:	00660508 	rsbeq	r0, r6, r8, lsl #10
    2540:	01070000 	mrseq	r0, (UNDEF: 7)
    2544:	0000d408 	andeq	sp, r0, r8, lsl #8
    2548:	07020700 	streq	r0, [r2, -r0, lsl #14]
    254c:	00000125 	andeq	r0, r0, r5, lsr #2
    2550:	f9070407 			; <UNDEFINED> instruction: 0xf9070407
    2554:	07000000 	streq	r0, [r0, -r0]
    2558:	00f40708 	rscseq	r0, r4, r8, lsl #14
    255c:	56080000 	strpl	r0, [r8], -r0
    2560:	ab000000 	blge	2568 <__code_start__-0x5a98>
    2564:	09000000 	stmdbeq	r0, {}	; <UNPREDICTABLE>
    2568:	00000056 	andeq	r0, r0, r6, asr r0
    256c:	00340a00 	eorseq	r0, r4, r0, lsl #20
    2570:	1c030000 	stcne	0, cr0, [r3], {-0}
    2574:	0000b70e 	andeq	fp, r0, lr, lsl #14
    2578:	9c040b00 			; <UNDEFINED> instruction: 0x9c040b00
    257c:	08000000 	stmdaeq	r0, {}	; <UNPREDICTABLE>
    2580:	00000056 	andeq	r0, r0, r6, asr r0
    2584:	000000cc 	andeq	r0, r0, ip, asr #1
    2588:	0000cc09 	andeq	ip, r0, r9, lsl #24
    258c:	040b0000 	streq	r0, [fp], #-0
    2590:	000000d9 	ldrdeq	r0, [r0], -r9
    2594:	dd080107 	stfles	f0, [r8, #-28]	; 0xffffffe4
    2598:	0c000000 	stceq	0, cr0, [r0], {-0}
    259c:	000000d2 	ldrdeq	r0, [r0], -r2
    25a0:	00072f0a 	andeq	r2, r7, sl, lsl #30
    25a4:	0e210300 	cdpeq	3, 2, cr0, cr1, cr0, {0}
    25a8:	000000ea 	andeq	r0, r0, sl, ror #1
    25ac:	00bd040b 	adcseq	r0, sp, fp, lsl #8
    25b0:	f10d0000 			; <UNDEFINED> instruction: 0xf10d0000
    25b4:	01000006 	tsteq	r0, r6
    25b8:	00560506 	subseq	r0, r6, r6, lsl #10
    25bc:	8f000000 	svchi	0x00000000
    25c0:	00580000 	subseq	r0, r8, r0
    25c4:	9c010000 	stcls	0, cr0, [r1], {-0}
    25c8:	00000183 	andeq	r0, r0, r3, lsl #3
    25cc:	746d660e 	strbtvc	r6, [sp], #-1550	; 0xfffff9f2
    25d0:	18060100 	stmdane	r6, {r8}
    25d4:	000000cc 	andeq	r0, r0, ip, asr #1
    25d8:	0f709102 	svceq	0x00709102
    25dc:	66756210 			; <UNDEFINED> instruction: 0x66756210
    25e0:	11080100 	mrsne	r0, (UNDEF: 24)
    25e4:	00000183 	andeq	r0, r0, r3, lsl #3
    25e8:	aaa00305 	bge	fe803204 <__bss_end__+0xfe7f835c>
    25ec:	e9110000 	ldmdb	r1, {}	; <UNPREDICTABLE>
    25f0:	01000006 	tsteq	r0, r6
    25f4:	004a0d09 	subeq	r0, sl, r9, lsl #26
    25f8:	91020000 	mrsls	r0, (UNDEF: 2)
    25fc:	7a73125c 	bvc	1cc6f74 <__bss_end__+0x1cbc0cc>
    2600:	0d0c0100 	stfeqs	f0, [ip, #-0]
    2604:	00000056 	andeq	r0, r0, r6, asr r0
    2608:	00000e78 	andeq	r0, r0, r8, ror lr
    260c:	00000e72 	andeq	r0, r0, r2, ror lr
    2610:	008f2813 	addeq	r2, pc, r3, lsl r8	; <UNPREDICTABLE>
    2614:	00019400 	andeq	r9, r1, r0, lsl #8
    2618:	00017600 	andeq	r7, r1, r0, lsl #12
    261c:	50011400 	andpl	r1, r1, r0, lsl #8
    2620:	14007502 	strne	r7, [r0], #-1282	; 0xfffffafe
    2624:	0a035101 	beq	d6a30 <__bss_end__+0xcbb88>
    2628:	01140400 	tsteq	r4, r0, lsl #8
    262c:	48910352 	ldmmi	r1, {r1, r4, r6, r8, r9}
    2630:	53011406 	movwpl	r1, #5126	; 0x1406
    2634:	004c9102 	subeq	r9, ip, r2, lsl #2
    2638:	008f3c15 	addeq	r3, pc, r5, lsl ip	; <UNPREDICTABLE>
    263c:	50011400 	andpl	r1, r1, r0, lsl #8
    2640:	00007502 	andeq	r7, r0, r2, lsl #10
    2644:	00d21600 	sbcseq	r1, r2, r0, lsl #12
    2648:	01940000 	orrseq	r0, r4, r0
    264c:	5d170000 	ldcpl	0, cr0, [r7, #-0]
    2650:	ff000000 			; <UNDEFINED> instruction: 0xff000000
    2654:	ee180003 	cdp	0, 1, cr0, cr8, cr3, {0}
    2658:	ee000006 	cdp	0, 0, cr0, cr0, cr6, {0}
    265c:	05000006 	streq	r0, [r0, #-6]
    2660:	f3000502 	vrshl.u8	d0, d2, d0
    2664:	04000000 	streq	r0, [r0], #-0
    2668:	000d2f00 	andeq	r2, sp, r0, lsl #30
    266c:	a0010400 	andge	r0, r1, r0, lsl #8
    2670:	0c000005 	stceq	0, cr0, [r0], {5}
    2674:	00000734 	andeq	r0, r0, r4, lsr r7
    2678:	00000671 	andeq	r0, r0, r1, ror r6
    267c:	00008f58 	andeq	r8, r0, r8, asr pc
    2680:	00000034 	andeq	r0, r0, r4, lsr r0
    2684:	000014a4 	andeq	r1, r0, r4, lsr #9
    2688:	69050402 	stmdbvs	r5, {r1, sl}
    268c:	0300746e 	movweq	r7, #1134	; 0x46e
    2690:	00fe0704 	rscseq	r0, lr, r4, lsl #14
    2694:	01030000 	mrseq	r0, (UNDEF: 3)
    2698:	0000d606 	andeq	sp, r0, r6, lsl #12
    269c:	05020300 	streq	r0, [r2, #-768]	; 0xfffffd00
    26a0:	0000002a 	andeq	r0, r0, sl, lsr #32
    26a4:	6b050403 	blvs	1436b8 <__bss_end__+0x138810>
    26a8:	03000000 	movweq	r0, #0
    26ac:	00660508 	rsbeq	r0, r6, r8, lsl #10
    26b0:	01030000 	mrseq	r0, (UNDEF: 3)
    26b4:	0000d408 	andeq	sp, r0, r8, lsl #8
    26b8:	07020300 	streq	r0, [r2, -r0, lsl #6]
    26bc:	00000125 	andeq	r0, r0, r5, lsr #2
    26c0:	f9070403 			; <UNDEFINED> instruction: 0xf9070403
    26c4:	03000000 	movweq	r0, #0
    26c8:	00f40708 	rscseq	r0, r4, r8, lsl #14
    26cc:	25040000 	strcs	r0, [r4, #-0]
    26d0:	7a000000 	bvc	26d8 <__code_start__-0x5928>
    26d4:	05000000 	streq	r0, [r0, #-0]
    26d8:	00000025 	andeq	r0, r0, r5, lsr #32
    26dc:	00340600 	eorseq	r0, r4, r0, lsl #12
    26e0:	1c020000 	stcne	0, cr0, [r2], {-0}
    26e4:	0000860e 	andeq	r8, r0, lr, lsl #12
    26e8:	6b040700 	blvs	1042f0 <__bss_end__+0xf9448>
    26ec:	04000000 	streq	r0, [r0], #-0
    26f0:	00000025 	andeq	r0, r0, r5, lsr #32
    26f4:	0000009b 	muleq	r0, fp, r0
    26f8:	00009b05 	andeq	r9, r0, r5, lsl #22
    26fc:	04070000 	streq	r0, [r7], #-0
    2700:	000000a8 	andeq	r0, r0, r8, lsr #1
    2704:	dd080103 	stfles	f0, [r8, #-12]
    2708:	08000000 	stmdaeq	r0, {}	; <UNPREDICTABLE>
    270c:	000000a1 	andeq	r0, r0, r1, lsr #1
    2710:	00072f06 	andeq	r2, r7, r6, lsl #30
    2714:	0e210200 	cdpeq	2, 2, cr0, cr1, cr0, {0}
    2718:	000000b9 	strheq	r0, [r0], -r9
    271c:	008c0407 	addeq	r0, ip, r7, lsl #8
    2720:	ad090000 	stcge	0, cr0, [r9, #-0]
    2724:	01000000 	mrseq	r0, (UNDEF: 0)
    2728:	0305070c 	movweq	r0, #22284	; 0x570c
    272c:	0000aa64 	andeq	sl, r0, r4, ror #20
    2730:	0007260a 	andeq	r2, r7, sl, lsl #12
    2734:	05040100 	streq	r0, [r4, #-256]	; 0xffffff00
    2738:	00000025 	andeq	r0, r0, r5, lsr #32
    273c:	00008f58 	andeq	r8, r0, r8, asr pc
    2740:	00000034 	andeq	r0, r0, r4, lsr r0
    2744:	700b9c01 	andvc	r9, fp, r1, lsl #24
    2748:	1f040100 	svcne	0x00040100
    274c:	0000009b 	muleq	r0, fp, r0
    2750:	00000ea5 	andeq	r0, r0, r5, lsr #29
    2754:	00000ea1 	andeq	r0, r0, r1, lsr #29
    2758:	0ad70000 	beq	ff5c2760 <__bss_end__+0xff5b78b8>
    275c:	00040000 	andeq	r0, r4, r0
    2760:	00000dcd 	andeq	r0, r0, sp, asr #27
    2764:	05a00104 	streq	r0, [r0, #260]!	; 0x104
    2768:	530c0000 	movwpl	r0, #49152	; 0xc000
    276c:	71000007 	tstvc	r0, r7
    2770:	8c000006 	stchi	0, cr0, [r0], {6}
    2774:	4000008f 	andmi	r0, r0, pc, lsl #1
    2778:	73000007 	movwvc	r0, #7
    277c:	02000015 	andeq	r0, r0, #21, 0
    2780:	6e690504 	cdpvs	5, 6, cr0, cr9, cr4, {0}
    2784:	04030074 	streq	r0, [r3], #-116	; 0xffffff8c
    2788:	0000fe07 	andeq	pc, r0, r7, lsl #28
    278c:	06010300 	streq	r0, [r1], -r0, lsl #6
    2790:	000000d6 	ldrdeq	r0, [r0], -r6
    2794:	2a050203 	bcs	142fa8 <__bss_end__+0x138100>
    2798:	03000000 	movweq	r0, #0
    279c:	006b0504 	rsbeq	r0, fp, r4, lsl #10
    27a0:	08030000 	stmdaeq	r3, {}	; <UNPREDICTABLE>
    27a4:	00006605 	andeq	r6, r0, r5, lsl #12
    27a8:	08010300 	stmdaeq	r1, {r8, r9}
    27ac:	000000d4 	ldrdeq	r0, [r0], -r4
    27b0:	25070203 	strcs	r0, [r7, #-515]	; 0xfffffdfd
    27b4:	04000001 	streq	r0, [r0], #-1
    27b8:	0000010b 	andeq	r0, r0, fp, lsl #2
    27bc:	69193402 	ldmdbvs	r9, {r1, sl, ip, sp}
    27c0:	03000000 	movweq	r0, #0
    27c4:	00f90704 	rscseq	r0, r9, r4, lsl #14
    27c8:	4a040000 	bmi	1027d0 <__bss_end__+0xf7928>
    27cc:	02000007 	andeq	r0, r0, #7, 0
    27d0:	007c1937 	rsbseq	r1, ip, r7, lsr r9
    27d4:	08030000 	stmdaeq	r3, {}	; <UNPREDICTABLE>
    27d8:	0000f407 	andeq	pc, r0, r7, lsl #8
    27dc:	00250500 	eoreq	r0, r5, r0, lsl #10
    27e0:	00920000 	addseq	r0, r2, r0
    27e4:	25060000 	strcs	r0, [r6, #-0]
    27e8:	00000000 	andeq	r0, r0, r0
    27ec:	00003407 	andeq	r3, r0, r7, lsl #8
    27f0:	0e1c0300 	cdpeq	3, 1, cr0, cr12, cr0, {0}
    27f4:	0000009e 	muleq	r0, lr, r0
    27f8:	00830408 	addeq	r0, r3, r8, lsl #8
    27fc:	25050000 	strcs	r0, [r5, #-0]
    2800:	b3000000 	movwlt	r0, #0
    2804:	06000000 	streq	r0, [r0], -r0
    2808:	000000b3 	strheq	r0, [r0], -r3
    280c:	c0040800 	andgt	r0, r4, r0, lsl #16
    2810:	03000000 	movweq	r0, #0
    2814:	00dd0801 	sbcseq	r0, sp, r1, lsl #16
    2818:	b9090000 	stmdblt	r9, {}	; <UNPREDICTABLE>
    281c:	07000000 	streq	r0, [r0, -r0]
    2820:	0000072f 	andeq	r0, r0, pc, lsr #14
    2824:	d10e2103 	tstle	lr, r3, lsl #2
    2828:	08000000 	stmdaeq	r0, {}	; <UNPREDICTABLE>
    282c:	0000a404 	andeq	sl, r0, r4, lsl #8
    2830:	07660700 	strbeq	r0, [r6, -r0, lsl #14]!
    2834:	0b040000 	bleq	10283c <__bss_end__+0xf7994>
    2838:	0000b90d 	andeq	fp, r0, sp, lsl #18
    283c:	07b80700 	ldreq	r0, [r8, r0, lsl #14]!
    2840:	0c040000 	stceq	0, cr0, [r4], {-0}
    2844:	0000b90d 	andeq	fp, r0, sp, lsl #18
    2848:	041f0700 	ldreq	r0, [pc], #-1792	; 2850 <__code_start__-0x57b0>
    284c:	0d040000 	stceq	0, cr0, [r4, #-0]
    2850:	0000b90d 	andeq	fp, r0, sp, lsl #18
    2854:	04eb0700 	strbteq	r0, [fp], #1792	; 0x700
    2858:	0e040000 	cdpeq	0, 0, cr0, cr4, cr0, {0}
    285c:	0000b90d 	andeq	fp, r0, sp, lsl #18
    2860:	05210700 	streq	r0, [r1, #-1792]!	; 0xfffff900
    2864:	0f040000 	svceq	0x00040000
    2868:	0000b90d 	andeq	fp, r0, sp, lsl #18
    286c:	04810700 	streq	r0, [r1], #1792	; 0x700
    2870:	10040000 	andne	r0, r4, r0
    2874:	0000b90d 	andeq	fp, r0, sp, lsl #18
    2878:	07e80700 	strbeq	r0, [r8, r0, lsl #14]!
    287c:	11040000 	mrsne	r0, (UNDEF: 4)
    2880:	0000b90d 	andeq	fp, r0, sp, lsl #18
    2884:	07830700 	streq	r0, [r3, r0, lsl #14]
    2888:	12040000 	andne	r0, r4, #0, 0
    288c:	0000b90d 	andeq	fp, r0, sp, lsl #18
    2890:	06f80400 	ldrbteq	r0, [r8], r0, lsl #8
    2894:	28050000 	stmdacs	r5, {}	; <UNPREDICTABLE>
    2898:	0001431b 	andeq	r4, r1, fp, lsl r3
    289c:	07070a00 	streq	r0, [r7, -r0, lsl #20]
    28a0:	06040000 	streq	r0, [r4], -r0
    28a4:	00015a00 	andeq	r5, r1, r0, lsl #20
    28a8:	07110b00 	ldreq	r0, [r1, -r0, lsl #22]
    28ac:	015a0000 	cmpeq	sl, r0
    28b0:	00000000 	andeq	r0, r0, r0
    28b4:	0904040c 	stmdbeq	r4, {r2, r3, sl}
    28b8:	05000007 	streq	r0, [r0, #-7]
    28bc:	01371863 	teqeq	r7, r3, ror #16
    28c0:	ee0d0000 	cdp	0, 0, cr0, cr13, cr0, {0}
    28c4:	01000006 	tsteq	r0, r6
    28c8:	00250581 	eoreq	r0, r5, r1, lsl #11
    28cc:	92140000 	andsls	r0, r4, #0, 0
    28d0:	04b80000 	ldrteq	r0, [r8], #0
    28d4:	9c010000 	stcls	0, cr0, [r1], {-0}
    28d8:	00000717 	andeq	r0, r0, r7, lsl r7
    28dc:	6675620e 	ldrbtvs	r6, [r5], -lr, lsl #4
    28e0:	15810100 	strne	r0, [r1, #256]	; 0x100
    28e4:	00000717 	andeq	r0, r0, r7, lsl r7
    28e8:	00000ec9 	andeq	r0, r0, r9, asr #29
    28ec:	00000ec3 	andeq	r0, r0, r3, asr #29
    28f0:	01006e0e 	tsteq	r0, lr, lsl #28
    28f4:	00251e81 	eoreq	r1, r5, r1, lsl #29
    28f8:	0efb0000 	cdpeq	0, 15, cr0, cr11, cr0, {0}
    28fc:	0ef50000 	cdpeq	0, 15, cr0, cr5, cr0, {0}
    2900:	660e0000 	strvs	r0, [lr], -r0
    2904:	0100746d 	tsteq	r0, sp, ror #8
    2908:	00b32d81 	adcseq	r2, r3, r1, lsl #27
    290c:	0f350000 	svceq	0x00350000
    2910:	0f290000 	svceq	0x00290000
    2914:	e90f0000 	stmdb	pc, {}	; <UNPREDICTABLE>
    2918:	01000006 	tsteq	r0, r6
    291c:	015c3a81 	cmpeq	ip, r1, lsl #21
    2920:	91030000 	mrsls	r0, (UNDEF: 3)
    2924:	70107dd4 			; <UNDEFINED> instruction: 0x70107dd4
    2928:	08820100 	stmeq	r2, {r8}
    292c:	00000717 	andeq	r0, r0, r7, lsl r7
    2930:	00000f93 	muleq	r0, r3, pc	; <UNPREDICTABLE>
    2934:	00000f7f 	andeq	r0, r0, pc, ror pc
    2938:	01006510 	tsteq	r0, r0, lsl r5
    293c:	07171282 	ldreq	r1, [r7, -r2, lsl #5]
    2940:	10150000 	andsne	r0, r5, r0
    2944:	10110000 	andsne	r0, r1, r0
    2948:	78100000 	ldmdavc	r0, {}	; <UNPREDICTABLE>
    294c:	83010030 	movwhi	r0, #4144	; 0x1030
    2950:	00005d0e 	andeq	r5, r0, lr, lsl #26
    2954:	00104200 	andseq	r4, r0, r0, lsl #4
    2958:	00103c00 	andseq	r3, r0, r0, lsl #24
    295c:	31781000 	cmncc	r8, r0
    2960:	11830100 	orrne	r0, r3, r0, lsl #2
    2964:	0000005d 	andeq	r0, r0, sp, asr r0
    2968:	0000106f 	andeq	r1, r0, pc, rrx
    296c:	0000106b 	andeq	r1, r0, fp, rrx
    2970:	0007a111 	andeq	sl, r7, r1, lsl r1
    2974:	11860100 	orrne	r0, r6, r0, lsl #2
    2978:	000000b3 	strheq	r0, [r0], -r3
    297c:	00001091 	muleq	r0, r1, r0
    2980:	0000108d 	andeq	r1, r0, sp, lsl #1
    2984:	00009e12 	andeq	r9, r0, r2, lsl lr
    2988:	00072d00 	andeq	r2, r7, r0, lsl #26
    298c:	4c030500 	cfstr32mi	mvfx0, [r3], {-0}
    2990:	130000a8 	movwne	r0, #168	; 0xa8
    2994:	0000927c 	andeq	r9, r0, ip, ror r2
    2998:	00000400 	andeq	r0, r0, r0, lsl #8
    299c:	01007310 	tsteq	r0, r0, lsl r3
    29a0:	07170a91 			; <UNDEFINED> instruction: 0x07170a91
    29a4:	10c70000 	sbcne	r0, r7, r0
    29a8:	10b10000 	adcsne	r0, r1, r0
    29ac:	6e140000 	cdpvs	0, 1, cr0, cr4, cr0, {0}
    29b0:	01006d75 	tsteq	r0, r5, ror sp
    29b4:	07320d91 			; <UNDEFINED> instruction: 0x07320d91
    29b8:	91030000 	mrsls	r0, (UNDEF: 3)
    29bc:	f5157dd8 			; <UNDEFINED> instruction: 0xf5157dd8
    29c0:	01000007 	tsteq	r0, r7
    29c4:	07321791 			; <UNDEFINED> instruction: 0x07321791
    29c8:	91030000 	mrsls	r0, (UNDEF: 3)
    29cc:	75117ed8 	ldrvc	r7, [r1, #-3800]	; 0xfffff128
    29d0:	01000007 	tsteq	r0, r7
    29d4:	002c0d92 	mlaeq	ip, r2, sp, r0
    29d8:	114e0000 	mrsne	r0, (UNDEF: 78)
    29dc:	11480000 	mrsne	r0, (UNDEF: 72)
    29e0:	44160000 	ldrmi	r0, [r6], #-0
    29e4:	a4000093 	strge	r0, [r0], #-147	; 0xffffff6d
    29e8:	39000001 	stmdbcc	r0, {r0}
    29ec:	10000005 	andne	r0, r0, r5
    29f0:	01007974 	tsteq	r0, r4, ror r9
    29f4:	00b31d9e 	umlalseq	r1, r3, lr, sp
    29f8:	11820000 	orrne	r0, r2, r0
    29fc:	11780000 	cmnne	r8, r0
    2a00:	78170000 	ldmdavc	r7, {}	; <UNPREDICTABLE>
    2a04:	a2010078 	andge	r0, r1, #120, 0	; 0x78
    2a08:	0000701a 	andeq	r7, r0, sl, lsl r0
    2a0c:	93541800 	cmpls	r4, #0, 16
    2a10:	0a920000 	beq	fe482a18 <__bss_end__+0xfe477b70>
    2a14:	02d50000 	sbcseq	r0, r5, #0, 0
    2a18:	01190000 	tsteq	r9, r0
    2a1c:	00760250 	rsbseq	r0, r6, r0, asr r2
    2a20:	05510119 	ldrbeq	r0, [r1, #-281]	; 0xfffffee7
    2a24:	00a74003 	adceq	r4, r7, r3
    2a28:	52011900 	andpl	r1, r1, #0, 18
    2a2c:	18003301 	stmdane	r0, {r0, r8, r9, ip, sp}
    2a30:	0000936c 	andeq	r9, r0, ip, ror #6
    2a34:	00000a92 	muleq	r0, r2, sl
    2a38:	000002f7 	strdeq	r0, [r0], -r7
    2a3c:	02500119 	subseq	r0, r0, #1073741830	; 0x40000006
    2a40:	01190076 	tsteq	r9, r6, ror r0
    2a44:	44030551 	strmi	r0, [r3], #-1361	; 0xfffffaaf
    2a48:	190000a7 	stmdbne	r0, {r0, r1, r2, r5, r7}
    2a4c:	33015201 	movwcc	r5, #4609	; 0x1201
    2a50:	93a01800 	movls	r1, #0, 16
    2a54:	0a9e0000 	beq	fe782a5c <__bss_end__+0xfe777bb4>
    2a58:	03140000 	tsteq	r4, #0, 0
    2a5c:	01190000 	tsteq	r9, r0
    2a60:	48030550 	stmdami	r3, {r4, r6, r8, sl}
    2a64:	190000a7 	stmdbne	r0, {r0, r1, r2, r5, r7}
    2a68:	77025101 	strvc	r5, [r2, -r1, lsl #2]
    2a6c:	ac180000 	ldcge	0, cr0, [r8], {-0}
    2a70:	9e000093 	mcrls	0, 0, r0, cr0, cr3, {4}
    2a74:	3100000a 	tstcc	r0, sl
    2a78:	19000003 	stmdbne	r0, {r0, r1}
    2a7c:	03055001 	movweq	r5, #20481	; 0x5001
    2a80:	0000a750 	andeq	sl, r0, r0, asr r7
    2a84:	02510119 	subseq	r0, r1, #1073741830	; 0x40000006
    2a88:	1800007a 	stmdane	r0, {r1, r3, r4, r5, r6}
    2a8c:	000093bc 			; <UNDEFINED> instruction: 0x000093bc
    2a90:	00000a92 	muleq	r0, r2, sl
    2a94:	00000353 	andeq	r0, r0, r3, asr r3
    2a98:	02500119 	subseq	r0, r0, #1073741830	; 0x40000006
    2a9c:	01190076 	tsteq	r9, r6, ror r0
    2aa0:	40030551 	andmi	r0, r3, r1, asr r5
    2aa4:	190000a7 	stmdbne	r0, {r0, r1, r2, r5, r7}
    2aa8:	33015201 	movwcc	r5, #4609	; 0x1201
    2aac:	93d41800 	bicsls	r1, r4, #0, 16
    2ab0:	0a920000 	beq	fe482ab8 <__bss_end__+0xfe477c10>
    2ab4:	03750000 	cmneq	r5, #0, 0
    2ab8:	01190000 	tsteq	r9, r0
    2abc:	00760250 	rsbseq	r0, r6, r0, asr r2
    2ac0:	05510119 	ldrbeq	r0, [r1, #-281]	; 0xfffffee7
    2ac4:	00a74403 	adceq	r4, r7, r3, lsl #8
    2ac8:	52011900 	andpl	r1, r1, #0, 18
    2acc:	18003301 	stmdane	r0, {r0, r8, r9, ip, sp}
    2ad0:	000093fc 	strdeq	r9, [r0], -ip
    2ad4:	00000742 	andeq	r0, r0, r2, asr #14
    2ad8:	000003a9 	andeq	r0, r0, r9, lsr #7
    2adc:	01500119 	cmpeq	r0, r9, lsl r1
    2ae0:	5101193a 	tstpl	r1, sl, lsr r9
    2ae4:	7dd09103 	ldfvcp	f1, [r0, #12]
    2ae8:	02520119 	subseq	r0, r2, #1073741830	; 0x40000006
    2aec:	01198008 	tsteq	r9, r8
    2af0:	00770253 	rsbseq	r0, r7, r3, asr r2
    2af4:	007d0219 	rsbseq	r0, sp, r9, lsl r2
    2af8:	19007502 	stmdbne	r0, {r1, r8, sl, ip, sp, lr}
    2afc:	02047d02 	andeq	r7, r4, #128	; 0x80
    2b00:	18000076 	stmdane	r0, {r1, r2, r4, r5, r6}
    2b04:	0000941c 	andeq	r9, r0, ip, lsl r4
    2b08:	00000742 	andeq	r0, r0, r2, asr #14
    2b0c:	000003dd 	ldrdeq	r0, [r0], -sp
    2b10:	01500119 	cmpeq	r0, r9, lsl r1
    2b14:	5101193a 	tstpl	r1, sl, lsr r9
    2b18:	7ed09103 	atnvcs	f1, f3
    2b1c:	02520119 	subseq	r0, r2, #1073741830	; 0x40000006
    2b20:	01198008 	tsteq	r9, r8
    2b24:	007a0253 	rsbseq	r0, sl, r3, asr r2
    2b28:	007d0219 	rsbseq	r0, sp, r9, lsl r2
    2b2c:	19007502 	stmdbne	r0, {r1, r8, sl, ip, sp, lr}
    2b30:	02047d02 	andeq	r7, r4, #128	; 0x80
    2b34:	18000076 	stmdane	r0, {r1, r2, r4, r5, r6}
    2b38:	00009428 	andeq	r9, r0, r8, lsr #8
    2b3c:	00000aaa 	andeq	r0, r0, sl, lsr #21
    2b40:	000003fb 	strdeq	r0, [r0], -fp
    2b44:	03500119 	cmpeq	r0, #1073741830	; 0x40000006
    2b48:	197dd091 	ldmdbne	sp!, {r0, r4, r7, ip, lr, pc}^
    2b4c:	03055101 	movweq	r5, #20737	; 0x5101
    2b50:	0000a5c8 	andeq	sl, r0, r8, asr #11
    2b54:	943c1800 	ldrtls	r1, [ip], #-2048	; 0xfffff800
    2b58:	0ab60000 	beq	fed82b60 <__bss_end__+0xfed77cb8>
    2b5c:	04170000 	ldreq	r0, [r7], #-0
    2b60:	01190000 	tsteq	r9, r0
    2b64:	d0910350 	addsle	r0, r1, r0, asr r3
    2b68:	5101197d 	tstpl	r1, sp, ror r9
    2b6c:	7ed09103 	atnvcs	f1, f3
    2b70:	94601800 	strbtls	r1, [r0], #-2048	; 0xfffff800
    2b74:	0a9e0000 	beq	fe782b7c <__bss_end__+0xfe777cd4>
    2b78:	04500000 	ldrbeq	r0, [r0], #-0
    2b7c:	01190000 	tsteq	r9, r0
    2b80:	1c030550 	cfstr32ne	mvfx0, [r3], {80}	; 0x50
    2b84:	190000a1 	stmdbne	r0, {r0, r5, r7}
    2b88:	03055101 	movweq	r5, #20737	; 0x5101
    2b8c:	0000a6f4 	strdeq	sl, [r0], -r4
    2b90:	05520119 	ldrbeq	r0, [r2, #-281]	; 0xfffffee7
    2b94:	00a84c03 	adceq	r4, r8, r3, lsl #24
    2b98:	53011900 	movwpl	r1, #6400	; 0x1900
    2b9c:	199f0802 	ldmibne	pc, {r1, fp}	; <UNPREDICTABLE>
    2ba0:	05007d02 	streq	r7, [r0, #-3330]	; 0xfffff2fe
    2ba4:	00a75803 	adceq	r5, r7, r3, lsl #16
    2ba8:	641a0000 	ldrvs	r0, [sl], #-0
    2bac:	c2000094 	andgt	r0, r0, #148, 0	; 0x94
    2bb0:	1800000a 	stmdane	r0, {r1, r3}
    2bb4:	00009484 	andeq	r9, r0, r4, lsl #9
    2bb8:	00000742 	andeq	r0, r0, r2, asr #14
    2bbc:	0000048d 	andeq	r0, r0, sp, lsl #9
    2bc0:	01500119 	cmpeq	r0, r9, lsl r1
    2bc4:	51011940 	tstpl	r1, r0, asr #18
    2bc8:	7dd09103 	ldfvcp	f1, [r0, #12]
    2bcc:	02520119 	subseq	r0, r2, #1073741830	; 0x40000006
    2bd0:	01198008 	tsteq	r9, r8
    2bd4:	00770253 	rsbseq	r0, r7, r3, asr r2
    2bd8:	007d0219 	rsbseq	r0, sp, r9, lsl r2
    2bdc:	19007502 	stmdbne	r0, {r1, r8, sl, ip, sp, lr}
    2be0:	02047d02 	andeq	r7, r4, #128	; 0x80
    2be4:	18000076 	stmdane	r0, {r1, r2, r4, r5, r6}
    2be8:	000094a4 	andeq	r9, r0, r4, lsr #9
    2bec:	00000742 	andeq	r0, r0, r2, asr #14
    2bf0:	000004c1 	andeq	r0, r0, r1, asr #9
    2bf4:	01500119 	cmpeq	r0, r9, lsl r1
    2bf8:	51011940 	tstpl	r1, r0, asr #18
    2bfc:	7ed09103 	atnvcs	f1, f3
    2c00:	02520119 	subseq	r0, r2, #1073741830	; 0x40000006
    2c04:	01198008 	tsteq	r9, r8
    2c08:	007a0253 	rsbseq	r0, sl, r3, asr r2
    2c0c:	007d0219 	rsbseq	r0, sp, r9, lsl r2
    2c10:	19007502 	stmdbne	r0, {r1, r8, sl, ip, sp, lr}
    2c14:	02047d02 	andeq	r7, r4, #128	; 0x80
    2c18:	18000076 	stmdane	r0, {r1, r2, r4, r5, r6}
    2c1c:	000094b0 			; <UNDEFINED> instruction: 0x000094b0
    2c20:	00000ace 	andeq	r0, r0, lr, asr #21
    2c24:	000004dd 	ldrdeq	r0, [r0], -sp
    2c28:	03500119 	cmpeq	r0, #1073741830	; 0x40000006
    2c2c:	197dd091 	ldmdbne	sp!, {r0, r4, r7, ip, lr, pc}^
    2c30:	91035101 	tstls	r3, r1, lsl #2
    2c34:	18007ed2 	stmdane	r0, {r1, r4, r6, r7, r9, sl, fp, ip, sp, lr}
    2c38:	000094c4 	andeq	r9, r0, r4, asr #9
    2c3c:	00000ace 	andeq	r0, r0, lr, asr #21
    2c40:	000004f9 	strdeq	r0, [r0], -r9
    2c44:	03500119 	cmpeq	r0, #1073741830	; 0x40000006
    2c48:	197dd091 	ldmdbne	sp!, {r0, r4, r7, ip, lr, pc}^
    2c4c:	91035101 	tstls	r3, r1, lsl #2
    2c50:	18007ed0 	stmdane	r0, {r4, r6, r7, r9, sl, fp, ip, sp, lr}
    2c54:	000094e4 	andeq	r9, r0, r4, ror #9
    2c58:	00000a9e 	muleq	r0, lr, sl
    2c5c:	0000052f 	andeq	r0, r0, pc, lsr #10
    2c60:	05500119 	ldrbeq	r0, [r0, #-281]	; 0xfffffee7
    2c64:	00a79403 	adceq	r9, r7, r3, lsl #8
    2c68:	51011900 	tstpl	r1, r0, lsl #18
    2c6c:	a6f40305 	ldrbtge	r0, [r4], r5, lsl #6
    2c70:	01190000 	tsteq	r9, r0
    2c74:	4c030552 	cfstr32mi	mvfx0, [r3], {82}	; 0x52
    2c78:	190000a8 	stmdbne	r0, {r3, r5, r7}
    2c7c:	08025301 	stmdaeq	r2, {r0, r8, r9, ip, lr}
    2c80:	7d0219b6 	vstrvc.16	s2, [r2, #-364]	; 0xfffffe94	; <UNPREDICTABLE>
    2c84:	00760200 	rsbseq	r0, r6, r0, lsl #4
    2c88:	94e81a00 	strbtls	r1, [r8], #2560	; 0xa00
    2c8c:	0ac20000 	beq	ff082c94 <__bss_end__+0xff077dec>
    2c90:	18000000 	stmdane	r0, {}	; <UNPREDICTABLE>
    2c94:	00009294 	muleq	r0, r4, r2
    2c98:	000009c0 	andeq	r0, r0, r0, asr #19
    2c9c:	0000054d 	andeq	r0, r0, sp, asr #10
    2ca0:	02500119 	subseq	r0, r0, #1073741830	; 0x40000006
    2ca4:	18000077 	stmdane	r0, {r0, r1, r2, r4, r5, r6}
    2ca8:	00009340 	andeq	r9, r0, r0, asr #6
    2cac:	00000a9e 	muleq	r0, lr, sl
    2cb0:	00000586 	andeq	r0, r0, r6, lsl #11
    2cb4:	05500119 	ldrbeq	r0, [r0, #-281]	; 0xfffffee7
    2cb8:	00a11c03 	adceq	r1, r1, r3, lsl #24
    2cbc:	51011900 	tstpl	r1, r0, lsl #18
    2cc0:	a6f40305 	ldrbtge	r0, [r4], r5, lsl #6
    2cc4:	01190000 	tsteq	r9, r0
    2cc8:	4c030552 	cfstr32mi	mvfx0, [r3], {82}	; 0x52
    2ccc:	190000a8 	stmdbne	r0, {r3, r5, r7}
    2cd0:	08025301 	stmdaeq	r2, {r0, r8, r9, ip, lr}
    2cd4:	7d021998 	vstrvc.16	s2, [r2, #-304]	; 0xfffffed0	; <UNPREDICTABLE>
    2cd8:	34030500 	strcc	r0, [r3], #-1280	; 0xfffffb00
    2cdc:	000000a7 	andeq	r0, r0, r7, lsr #1
    2ce0:	0093441a 	addseq	r4, r3, sl, lsl r4
    2ce4:	000ac200 	andeq	ip, sl, r0, lsl #4
    2ce8:	94fc1800 	ldrbtls	r1, [ip], #2048	; 0x800
    2cec:	0a9e0000 	beq	fe782cf4 <__bss_end__+0xfe777e4c>
    2cf0:	05be0000 	ldreq	r0, [lr, #0]!
    2cf4:	01190000 	tsteq	r9, r0
    2cf8:	bc030550 	cfstr32lt	mvfx0, [r3], {80}	; 0x50
    2cfc:	190000a7 	stmdbne	r0, {r0, r1, r2, r5, r7}
    2d00:	03055101 	movweq	r5, #20737	; 0x5101
    2d04:	0000a6f4 	strdeq	sl, [r0], -r4
    2d08:	05520119 	ldrbeq	r0, [r2, #-281]	; 0xfffffee7
    2d0c:	00a84c03 	adceq	r4, r8, r3, lsl #24
    2d10:	53011900 	movwpl	r1, #6400	; 0x1900
    2d14:	00be0802 	adcseq	r0, lr, r2, lsl #16
    2d18:	0095001a 	addseq	r0, r5, sl, lsl r0
    2d1c:	000ac200 	andeq	ip, sl, r0, lsl #4
    2d20:	952c1800 	strls	r1, [ip, #-2048]!	; 0xfffff800
    2d24:	07420000 	strbeq	r0, [r2, -r0]
    2d28:	05f40000 	ldrbeq	r0, [r4, #0]!
    2d2c:	01190000 	tsteq	r9, r0
    2d30:	193a0150 	ldmdbne	sl!, {r4, r6, r8}
    2d34:	91035101 	tstls	r3, r1, lsl #2
    2d38:	01197dd0 			; <UNDEFINED> instruction: 0x01197dd0
    2d3c:	80080252 	andhi	r0, r8, r2, asr r2
    2d40:	007d0219 	rsbseq	r0, sp, r9, lsl r2
    2d44:	19007502 	stmdbne	r0, {r1, r8, sl, ip, sp, lr}
    2d48:	01047d02 	tsteq	r4, r2, lsl #26
    2d4c:	64180031 	ldrvs	r0, [r8], #-49	; 0xffffffcf
    2d50:	42000095 	andmi	r0, r0, #149, 0	; 0x95
    2d54:	21000007 	tstcs	r0, r7
    2d58:	19000006 	stmdbne	r0, {r1, r2}
    2d5c:	3a015001 	bcc	56d68 <__bss_end__+0x4bec0>
    2d60:	03510119 	cmpeq	r1, #1073741830	; 0x40000006
    2d64:	197dd091 	ldmdbne	sp!, {r0, r4, r7, ip, lr, pc}^
    2d68:	08025201 	stmdaeq	r2, {r0, r9, ip, lr}
    2d6c:	7d021980 	vstrvc.16	s2, [r2, #-256]	; 0xffffff00	; <UNPREDICTABLE>
    2d70:	00750200 	rsbseq	r0, r5, r0, lsl #4
    2d74:	047d0219 	ldrbteq	r0, [sp], #-537	; 0xfffffde7
    2d78:	18003001 	stmdane	r0, {r0, ip, sp}
    2d7c:	00009598 	muleq	r0, r8, r5
    2d80:	00000742 	andeq	r0, r0, r2, asr #14
    2d84:	0000064e 	andeq	r0, r0, lr, asr #12
    2d88:	01500119 	cmpeq	r0, r9, lsl r1
    2d8c:	51011940 	tstpl	r1, r0, asr #18
    2d90:	7dd09103 	ldfvcp	f1, [r0, #12]
    2d94:	02520119 	subseq	r0, r2, #1073741830	; 0x40000006
    2d98:	02198008 	andseq	r8, r9, #8, 0
    2d9c:	7502007d 	strvc	r0, [r2, #-125]	; 0xffffff83
    2da0:	7d021900 	vstrvc.16	s2, [r2, #-0]	; <UNPREDICTABLE>
    2da4:	00300104 	eorseq	r0, r0, r4, lsl #2
    2da8:	0095cc18 	addseq	ip, r5, r8, lsl ip
    2dac:	00074200 	andeq	r4, r7, r0, lsl #4
    2db0:	00067b00 	andeq	r7, r6, r0, lsl #22
    2db4:	50011900 	andpl	r1, r1, r0, lsl #18
    2db8:	01193201 	tsteq	r9, r1, lsl #4
    2dbc:	d0910351 	addsle	r0, r1, r1, asr r3
    2dc0:	5201197d 	andpl	r1, r1, #2048000	; 0x1f4000
    2dc4:	19800802 	stmibne	r0, {r1, fp}
    2dc8:	02007d02 	andeq	r7, r0, #128	; 0x80
    2dcc:	02190075 	andseq	r0, r9, #117, 0	; 0x75
    2dd0:	3001047d 	andcc	r0, r1, sp, ror r4
    2dd4:	96141800 	ldrls	r1, [r4], -r0, lsl #16
    2dd8:	07420000 	strbeq	r0, [r2, -r0]
    2ddc:	06a80000 	strteq	r0, [r8], r0
    2de0:	01190000 	tsteq	r9, r0
    2de4:	19380150 	ldmdbne	r8!, {r4, r6, r8}
    2de8:	91035101 	tstls	r3, r1, lsl #2
    2dec:	01197dd0 			; <UNDEFINED> instruction: 0x01197dd0
    2df0:	80080252 	andhi	r0, r8, r2, asr r2
    2df4:	007d0219 	rsbseq	r0, sp, r9, lsl r2
    2df8:	19007502 	stmdbne	r0, {r1, r8, sl, ip, sp, lr}
    2dfc:	01047d02 	tsteq	r4, r2, lsl #26
    2e00:	34180030 	ldrcc	r0, [r8], #-48	; 0xffffffd0
    2e04:	9e000096 	mcrls	0, 0, r0, cr0, cr6, {4}
    2e08:	cb00000a 	blgt	2e38 <__code_start__-0x51c8>
    2e0c:	19000006 	stmdbne	r0, {r1, r2}
    2e10:	03055001 	movweq	r5, #20481	; 0x5001
    2e14:	0000a7e4 	andeq	sl, r0, r4, ror #15
    2e18:	02510119 	subseq	r0, r1, #1073741830	; 0x40000006
    2e1c:	0119007a 	tsteq	r9, sl, ror r0
    2e20:	007a0252 	rsbseq	r0, sl, r2, asr r2
    2e24:	96441b00 	strbls	r1, [r4], -r0, lsl #22
    2e28:	06dd0000 	ldrbeq	r0, [sp], r0
    2e2c:	01190000 	tsteq	r9, r0
    2e30:	c8910450 	ldmgt	r1, {r4, r6, sl}
    2e34:	1800067d 	stmdane	r0, {r0, r2, r3, r4, r5, r6, r9, sl}
    2e38:	00009658 	andeq	r9, r0, r8, asr r6
    2e3c:	00000a9e 	muleq	r0, lr, sl
    2e40:	0000070c 	andeq	r0, r0, ip, lsl #14
    2e44:	05500119 	ldrbeq	r0, [r0, #-281]	; 0xfffffee7
    2e48:	00a81403 	adceq	r1, r8, r3, lsl #8
    2e4c:	51011900 	tstpl	r1, r0, lsl #18
    2e50:	a6f40305 	ldrbtge	r0, [r4], r5, lsl #6
    2e54:	01190000 	tsteq	r9, r0
    2e58:	4c030552 	cfstr32mi	mvfx0, [r3], {82}	; 0x52
    2e5c:	190000a8 	stmdbne	r0, {r3, r5, r7}
    2e60:	08025301 	stmdaeq	r2, {r0, r8, r9, ip, lr}
    2e64:	5c1a00e2 	ldcpl	0, cr0, [sl], {226}	; 0xe2
    2e68:	c2000096 	andgt	r0, r0, #150, 0	; 0x96
    2e6c:	0000000a 	andeq	r0, r0, sl
    2e70:	b9040800 	stmdblt	r4, {fp}
    2e74:	1c000000 	stcne	0, cr0, [r0], {-0}
    2e78:	000000c0 	andeq	r0, r0, r0, asr #1
    2e7c:	0000072d 	andeq	r0, r0, sp, lsr #14
    2e80:	00002c1d 	andeq	r2, r0, sp, lsl ip
    2e84:	09000900 	stmdbeq	r0, {r8, fp}
    2e88:	0000071d 	andeq	r0, r0, sp, lsl r7
    2e8c:	0000b91c 	andeq	fp, r0, ip, lsl r9
    2e90:	00074200 	andeq	r4, r7, r0, lsl #4
    2e94:	002c1d00 	eoreq	r1, ip, r0, lsl #26
    2e98:	007f0000 	rsbseq	r0, pc, r0
    2e9c:	0007c51e 	andeq	ip, r7, lr, lsl r5
    2ea0:	01490100 	mrseq	r0, (UNDEF: 89)
    2ea4:	00000717 	andeq	r0, r0, r7, lsl r7
    2ea8:	00008ffc 	strdeq	r8, [r0], -ip
    2eac:	000001b4 			; <UNDEFINED> instruction: 0x000001b4
    2eb0:	08ab9c01 	stmiaeq	fp!, {r0, sl, fp, ip, pc}
    2eb4:	831f0000 	tsthi	pc, #0, 0
    2eb8:	01000005 	tsteq	r0, r5
    2ebc:	002c0f49 	eoreq	r0, ip, r9, asr #30
    2ec0:	11cb0000 	bicne	r0, fp, r0
    2ec4:	11c50000 	bicne	r0, r5, r0
    2ec8:	640e0000 	strvs	r0, [lr], #-0
    2ecc:	01007473 	tsteq	r0, r3, ror r4
    2ed0:	07171b49 	ldreq	r1, [r7, -r9, asr #22]
    2ed4:	12090000 	andne	r0, r9, #0, 0
    2ed8:	11f90000 	mvnsne	r0, r0
    2edc:	6e0e0000 	cdpvs	0, 0, cr0, cr14, cr0, {0}
    2ee0:	24490100 	strbcs	r0, [r9], #-256	; 0xffffff00
    2ee4:	00000025 	andeq	r0, r0, r5, lsr #32
    2ee8:	0000126d 	andeq	r1, r0, sp, ror #4
    2eec:	00001269 	andeq	r1, r0, r9, ror #4
    2ef0:	6c61760e 	stclvs	6, cr7, [r1], #-56	; 0xffffffc8
    2ef4:	2b490100 	blcs	12432fc <__bss_end__+0x1238454>
    2ef8:	00000025 	andeq	r0, r0, r5, lsr #32
    2efc:	00001297 	muleq	r0, r7, r2
    2f00:	0000128b 	andeq	r1, r0, fp, lsl #5
    2f04:	0007751f 	andeq	r7, r7, pc, lsl r5
    2f08:	34490100 	strbcc	r0, [r9], #-256	; 0xffffff00
    2f0c:	00000025 	andeq	r0, r0, r5, lsr #32
    2f10:	000012ed 	andeq	r1, r0, sp, ror #5
    2f14:	000012e7 	andeq	r1, r0, r7, ror #5
    2f18:	0008020f 	andeq	r0, r8, pc, lsl #4
    2f1c:	3f490100 	svccc	0x00490100
    2f20:	00000025 	andeq	r0, r0, r5, lsr #32
    2f24:	14049102 	strne	r9, [r4], #-258	; 0xfffffefe
    2f28:	00667562 	rsbeq	r7, r6, r2, ror #10
    2f2c:	ab074e01 	blge	1d6738 <__bss_end__+0x1cb890>
    2f30:	03000008 	movweq	r0, #8
    2f34:	107fa891 			; <UNDEFINED> instruction: 0x107fa891
    2f38:	4e010070 	mcrmi	0, 0, r0, cr1, cr0, {3}
    2f3c:	00071711 	andeq	r1, r7, r1, lsl r7
    2f40:	00133700 	andseq	r3, r3, r0, lsl #14
    2f44:	00131700 	andseq	r1, r3, r0, lsl #14
    2f48:	00751000 	rsbseq	r1, r5, r0
    2f4c:	2c0b4f01 	stccs	15, cr4, [fp], {1}
    2f50:	1d000000 	stcne	0, cr0, [r0, #-0]
    2f54:	09000014 	stmdbeq	r0, {r2, r4}
    2f58:	12000014 	andne	r0, r0, #20, 0
    2f5c:	0000009e 	muleq	r0, lr, r0
    2f60:	000008cb 	andeq	r0, r0, fp, asr #17
    2f64:	a8340305 	ldmdage	r4!, {r0, r2, r8, r9}
    2f68:	68160000 	ldmdavs	r6, {}	; <UNPREDICTABLE>
    2f6c:	78000090 	stmdavc	r0, {r4, r7}
    2f70:	32000000 	andcc	r0, r0, #0, 0
    2f74:	11000008 	tstne	r0, r8
    2f78:	000007b2 			; <UNDEFINED> instruction: 0x000007b2
    2f7c:	2c0d5401 	cfstrscs	mvf5, [sp], {1}
    2f80:	9e000000 	cdpls	0, 0, cr0, cr0, cr0, {0}
    2f84:	96000014 			; <UNDEFINED> instruction: 0x96000014
    2f88:	00000014 	andeq	r0, r0, r4, lsl r0
    2f8c:	00912018 	addseq	r2, r1, r8, lsl r0
    2f90:	00095d00 	andeq	r5, r9, r0, lsl #26
    2f94:	00084700 	andeq	r4, r8, r0, lsl #14
    2f98:	51011900 	tstpl	r1, r0, lsl #18
    2f9c:	7fa09103 	svcvc	0x00a09103
    2fa0:	91341800 	teqls	r4, r0, lsl #16
    2fa4:	08d00000 	ldmeq	r0, {}^	; <UNPREDICTABLE>
    2fa8:	08680000 	stmdaeq	r8!, {}^	; <UNPREDICTABLE>
    2fac:	01190000 	tsteq	r9, r0
    2fb0:	00750250 	rsbseq	r0, r5, r0, asr r2
    2fb4:	02510119 	subseq	r0, r1, #1073741830	; 0x40000006
    2fb8:	01190074 	tsteq	r9, r4, ror r0
    2fbc:	a0910353 	addsge	r0, r1, r3, asr r3
    2fc0:	8c18007f 	ldchi	0, cr0, [r8], {127}	; 0x7f
    2fc4:	9e000091 	mcrls	0, 0, r0, cr0, cr1, {4}
    2fc8:	a100000a 	tstge	r0, sl
    2fcc:	19000008 	stmdbne	r0, {r3}
    2fd0:	03055001 	movweq	r5, #20481	; 0x5001
    2fd4:	0000a11c 	andeq	sl, r0, ip, lsl r1
    2fd8:	05510119 	ldrbeq	r0, [r1, #-281]	; 0xfffffee7
    2fdc:	00a6f403 	adceq	pc, r6, r3, lsl #8
    2fe0:	52011900 	andpl	r1, r1, #0, 18
    2fe4:	a8340305 	ldmdage	r4!, {r0, r2, r8, r9}
    2fe8:	01190000 	tsteq	r9, r0
    2fec:	79080253 	stmdbvc	r8, {r0, r1, r4, r6, r9}
    2ff0:	007d0219 	rsbseq	r0, sp, r9, lsl r2
    2ff4:	a5c80305 	strbge	r0, [r8, #773]	; 0x305
    2ff8:	1a000000 	bne	3000 <__code_start__-0x5000>
    2ffc:	00009190 	muleq	r0, r0, r1
    3000:	00000ac2 	andeq	r0, r0, r2, asr #21
    3004:	00b91c00 	adcseq	r1, r9, r0, lsl #24
    3008:	08bb0000 	ldmeq	fp!, {}	; <UNPREDICTABLE>
    300c:	2c1d0000 	ldccs	0, cr0, [sp], {-0}
    3010:	3f000000 	svccc	0x00000000
    3014:	00c01c00 	sbceq	r1, r0, r0, lsl #24
    3018:	08cb0000 	stmiaeq	fp, {}^	; <UNPREDICTABLE>
    301c:	2c1d0000 	ldccs	0, cr0, [sp], {-0}
    3020:	04000000 	streq	r0, [r0], #-0
    3024:	08bb0900 	ldmeq	fp!, {r8, fp}
    3028:	d21e0000 	andsle	r0, lr, #0, 0
    302c:	01000007 	tsteq	r0, r7
    3030:	07170e38 			; <UNDEFINED> instruction: 0x07170e38
    3034:	8fc40000 	svchi	0x00c40000
    3038:	00380000 	eorseq	r0, r8, r0
    303c:	9c010000 	stcls	0, cr0, [r1], {-0}
    3040:	0000095d 	andeq	r0, r0, sp, asr r9
    3044:	7473640e 	ldrbtvc	r6, [r3], #-1038	; 0xfffffbf2
    3048:	1c380100 	ldfnes	f0, [r8], #-0
    304c:	00000717 	andeq	r0, r0, r7, lsl r7
    3050:	000014df 	ldrdeq	r1, [r0], -pc	; <UNPREDICTABLE>
    3054:	000014d5 	ldrdeq	r1, [r0], -r5
    3058:	01006e0e 	tsteq	r0, lr, lsl #28
    305c:	00252538 	eoreq	r2, r5, r8, lsr r5
    3060:	15260000 	strne	r0, [r6, #-0]!
    3064:	15220000 	strne	r0, [r2, #-0]!
    3068:	700e0000 	andvc	r0, lr, r0
    306c:	2e380100 	rsfcse	f0, f0, f0
    3070:	00000717 	andeq	r0, r0, r7, lsl r7
    3074:	0000154f 	andeq	r1, r0, pc, asr #10
    3078:	00001547 	andeq	r1, r0, r7, asr #10
    307c:	0003f81f 	andeq	pc, r3, pc, lsl r8	; <UNPREDICTABLE>
    3080:	37380100 	ldrcc	r0, [r8, -r0, lsl #2]!
    3084:	00000717 	andeq	r0, r0, r7, lsl r7
    3088:	00001589 	andeq	r1, r0, r9, lsl #11
    308c:	00001585 	andeq	r1, r0, r5, lsl #11
    3090:	6e656c10 	mcrvs	12, 3, r6, cr5, cr0, {0}
    3094:	063a0100 	ldrteq	r0, [sl], -r0, lsl #2
    3098:	00000025 	andeq	r0, r0, r5, lsr #32
    309c:	000015af 	andeq	r1, r0, pc, lsr #11
    30a0:	000015a7 	andeq	r1, r0, r7, lsr #11
    30a4:	01007310 	tsteq	r0, r0, lsl r3
    30a8:	0717083e 			; <UNDEFINED> instruction: 0x0717083e
    30ac:	15fd0000 	ldrbne	r0, [sp, #0]!
    30b0:	15fb0000 	ldrbne	r0, [fp, #0]!
    30b4:	20000000 	andcs	r0, r0, r0
    30b8:	00646170 	rsbeq	r6, r4, r0, ror r1
    30bc:	170e2e01 	strne	r2, [lr, -r1, lsl #28]
    30c0:	a0000007 	andge	r0, r0, r7
    30c4:	2400008f 	strcs	r0, [r0], #-143	; 0xffffff71
    30c8:	01000000 	mrseq	r0, (UNDEF: 0)
    30cc:	0009c09c 	muleq	r9, ip, r0
    30d0:	00700e00 	rsbseq	r0, r0, r0, lsl #28
    30d4:	17182e01 	ldrne	r2, [r8, -r1, lsl #28]
    30d8:	16000007 	strne	r0, [r0], -r7
    30dc:	10000016 	andne	r0, r0, r6, lsl r0
    30e0:	1f000016 	svcne	0x00000016
    30e4:	00000583 	andeq	r0, r0, r3, lsl #11
    30e8:	17222e01 	strne	r2, [r2, -r1, lsl #28]!
    30ec:	45000007 	strmi	r0, [r0, #-7]
    30f0:	41000016 	tstmi	r0, r6, lsl r0
    30f4:	0f000016 	svceq	0x00000016
    30f8:	00000775 	andeq	r0, r0, r5, ror r7
    30fc:	252c2e01 	strcs	r2, [ip, #-3585]!	; 0xfffff1ff
    3100:	01000000 	mrseq	r0, (UNDEF: 0)
    3104:	656c1052 	strbvs	r1, [ip, #-82]!	; 0xffffffae
    3108:	2f01006e 	svccs	0x0001006e
    310c:	00002506 	andeq	r2, r0, r6, lsl #10
    3110:	00166800 	andseq	r6, r6, r0, lsl #16
    3114:	00166600 	andseq	r6, r6, r0, lsl #12
    3118:	421e0000 	andsmi	r0, lr, #0, 0
    311c:	01000007 	tsteq	r0, r7
    3120:	00250c27 	eoreq	r0, r5, r7, lsr #24
    3124:	8f8c0000 	svchi	0x008c0000
    3128:	00140000 	andseq	r0, r4, r0
    312c:	9c010000 	stcls	0, cr0, [r1], {-0}
    3130:	000009ed 	andeq	r0, r0, sp, ror #19
    3134:	0100630e 	tsteq	r0, lr, lsl #6
    3138:	00251827 	eoreq	r1, r5, r7, lsr #16
    313c:	16810000 	strne	r0, [r1], r0
    3140:	167b0000 	ldrbtne	r0, [fp], -r0
    3144:	21000000 	mrscs	r0, (UNDEF: 0)
    3148:	00000792 	muleq	r0, r2, r7
    314c:	b0061f01 	andlt	r1, r6, r1, lsl #30
    3150:	64000091 	strvs	r0, [r0], #-145	; 0xffffff6f
    3154:	01000000 	mrseq	r0, (UNDEF: 0)
    3158:	000a7d9c 	muleq	sl, ip, sp
    315c:	077b1f00 	ldrbeq	r1, [fp, -r0, lsl #30]!
    3160:	1f010000 	svcne	0x00010000
    3164:	00009e1b 	andeq	r9, r0, fp, lsl lr
    3168:	0016b300 	andseq	fp, r6, r0, lsl #6
    316c:	0016af00 	andseq	sl, r6, r0, lsl #30
    3170:	07ca1f00 	strbeq	r1, [sl, r0, lsl #30]
    3174:	1f010000 	svcne	0x00010000
    3178:	0000d130 	andeq	sp, r0, r0, lsr r1
    317c:	0016d800 	andseq	sp, r6, r0, lsl #16
    3180:	0016d400 	andseq	sp, r6, r0, lsl #8
    3184:	009e1200 	addseq	r1, lr, r0, lsl #4
    3188:	0a8d0000 	beq	fe343190 <__bss_end__+0xfe3382e8>
    318c:	03050000 	movweq	r0, #20480	; 0x5000
    3190:	0000a83c 	andeq	sl, r0, ip, lsr r8
    3194:	0091f818 	addseq	pc, r1, r8, lsl r8	; <UNPREDICTABLE>
    3198:	000a9e00 	andeq	r9, sl, r0, lsl #28
    319c:	000a7300 	andeq	r7, sl, r0, lsl #6
    31a0:	50011900 	andpl	r1, r1, r0, lsl #18
    31a4:	a11c0305 	tstge	ip, r5, lsl #6
    31a8:	01190000 	tsteq	r9, r0
    31ac:	f4030551 	vst3.16	{d0,d2,d4}, [r3 :64], r1
    31b0:	190000a6 	stmdbne	r0, {r1, r2, r5, r7}
    31b4:	03055201 	movweq	r5, #20993	; 0x5201
    31b8:	0000a83c 	andeq	sl, r0, ip, lsr r8
    31bc:	02530119 	subseq	r0, r3, #1073741830	; 0x40000006
    31c0:	02192008 	andseq	r2, r9, #8, 0
    31c4:	0305007d 	movweq	r0, #20605	; 0x507d
    31c8:	0000a72c 	andeq	sl, r0, ip, lsr #14
    31cc:	91fc1a00 	mvnsls	r1, r0, lsl #20
    31d0:	0ac20000 	beq	ff0831d8 <__bss_end__+0xff078330>
    31d4:	1c000000 	stcne	0, cr0, [r0], {-0}
    31d8:	000000c0 	andeq	r0, r0, r0, asr #1
    31dc:	00000a8d 	andeq	r0, r0, sp, lsl #21
    31e0:	00002c1d 	andeq	r2, r0, sp, lsl ip
    31e4:	09000e00 	stmdbeq	r0, {r9, sl, fp}
    31e8:	00000a7d 	andeq	r0, r0, sp, ror sl
    31ec:	0007fa22 	andeq	pc, r7, r2, lsr #20
    31f0:	0007fa00 	andeq	pc, r7, r0, lsl #20
    31f4:	05f00300 	ldrbeq	r0, [r0, #768]!	; 0x300
    31f8:	0006f122 	andeq	pc, r6, r2, lsr #2
    31fc:	0006f100 	andeq	pc, r6, r0, lsl #2
    3200:	06280300 	strteq	r0, [r8], -r0, lsl #6
    3204:	0007e122 	andeq	lr, r7, r2, lsr #2
    3208:	0007e100 	andeq	lr, r7, r0, lsl #2
    320c:	05ef0300 	strbeq	r0, [pc, #768]!	; 3514 <__code_start__-0x4aec>
    3210:	0007ab22 	andeq	sl, r7, r2, lsr #22
    3214:	0007ab00 	andeq	sl, r7, r0, lsl #22
    3218:	07f20300 	ldrbeq	r0, [r2, r0, lsl #6]!
    321c:	0000b522 	andeq	fp, r0, r2, lsr #10
    3220:	0000b500 	andeq	fp, r0, r0, lsl #10
    3224:	066e0300 	strbteq	r0, [lr], -r0, lsl #6
    3228:	0007da22 	andeq	sp, r7, r2, lsr #20
    322c:	0007da00 	andeq	sp, r7, r0, lsl #20
    3230:	07f30300 	ldrbeq	r0, [r3, r0, lsl #6]!
    3234:	00012f00 	andeq	r2, r1, r0, lsl #30
    3238:	d7000400 	strle	r0, [r0, -r0, lsl #8]
    323c:	0400000f 	streq	r0, [r0], #-15
    3240:	0005a001 	andeq	sl, r5, r1
    3244:	081f0c00 	ldmdaeq	pc, {sl, fp}	; <UNPREDICTABLE>
    3248:	06710000 	ldrbteq	r0, [r1], -r0
    324c:	96cc0000 	strbls	r0, [ip], r0
    3250:	002c0000 	eoreq	r0, ip, r0
    3254:	1b940000 	blne	fe50325c <__bss_end__+0xfe4f83b4>
    3258:	04020000 	streq	r0, [r2], #-0
    325c:	746e6905 	strbtvc	r6, [lr], #-2309	; 0xfffff6fb
    3260:	07040300 	streq	r0, [r4, -r0, lsl #6]
    3264:	000000fe 	strdeq	r0, [r0], -lr
    3268:	d6060103 	strle	r0, [r6], -r3, lsl #2
    326c:	03000000 	movweq	r0, #0
    3270:	002a0502 	eoreq	r0, sl, r2, lsl #10
    3274:	04030000 	streq	r0, [r3], #-0
    3278:	00006b05 	andeq	r6, r0, r5, lsl #22
    327c:	05080300 	streq	r0, [r8, #-768]	; 0xfffffd00
    3280:	00000066 	andeq	r0, r0, r6, rrx
    3284:	d4080103 	strle	r0, [r8], #-259	; 0xfffffefd
    3288:	03000000 	movweq	r0, #0
    328c:	01250702 			; <UNDEFINED> instruction: 0x01250702
    3290:	04030000 	streq	r0, [r3], #-0
    3294:	0000f907 	andeq	pc, r0, r7, lsl #18
    3298:	07080300 	streq	r0, [r8, -r0, lsl #6]
    329c:	000000f4 	strdeq	r0, [r0], -r4
    32a0:	00002504 	andeq	r2, r0, r4, lsl #10
    32a4:	00007a00 	andeq	r7, r0, r0, lsl #20
    32a8:	00250500 	eoreq	r0, r5, r0, lsl #10
    32ac:	06000000 	streq	r0, [r0], -r0
    32b0:	00000034 	andeq	r0, r0, r4, lsr r0
    32b4:	860e1c02 	strhi	r1, [lr], -r2, lsl #24
    32b8:	07000000 	streq	r0, [r0, -r0]
    32bc:	00006b04 	andeq	r6, r0, r4, lsl #22
    32c0:	00250400 	eoreq	r0, r5, r0, lsl #8
    32c4:	009b0000 	addseq	r0, fp, r0
    32c8:	9b050000 	blls	1432d0 <__bss_end__+0x138428>
    32cc:	00000000 	andeq	r0, r0, r0
    32d0:	00a80407 	adceq	r0, r8, r7, lsl #8
    32d4:	01030000 	mrseq	r0, (UNDEF: 3)
    32d8:	0000dd08 	andeq	sp, r0, r8, lsl #26
    32dc:	00a10800 	adceq	r0, r1, r0, lsl #16
    32e0:	2f060000 	svccs	0x00060000
    32e4:	02000007 	andeq	r0, r0, #7, 0
    32e8:	00b90e21 	adcseq	r0, r9, r1, lsr #28
    32ec:	04070000 	streq	r0, [r7], #-0
    32f0:	0000008c 	andeq	r0, r0, ip, lsl #1
    32f4:	0000b509 	andeq	fp, r0, r9, lsl #10
    32f8:	06040100 	streq	r0, [r4], -r0, lsl #2
    32fc:	000096cc 	andeq	r9, r0, ip, asr #13
    3300:	0000002c 	andeq	r0, r0, ip, lsr #32
    3304:	010e9c01 	tsteq	lr, r1, lsl #24
    3308:	e00a0000 	and	r0, sl, r0
    330c:	e8000096 	stmda	r0, {r1, r2, r4, r7}
    3310:	0b000000 	bleq	3318 <__code_start__-0x4ce8>
    3314:	03055001 	movweq	r5, #20481	; 0x5001
    3318:	0000a858 	andeq	sl, r0, r8, asr r8
    331c:	96e40c00 	strbtls	r0, [r4], r0, lsl #24
    3320:	010e0000 	mrseq	r0, (UNDEF: 14)
    3324:	ec0d0000 	stc	0, cr0, [sp], {-0}
    3328:	1a000096 	bne	3588 <__code_start__-0x4a78>
    332c:	04000001 	streq	r0, [r0], #-1
    3330:	0b000001 	bleq	333c <__code_start__-0x4cc4>
    3334:	3a015001 	bcc	57340 <__bss_end__+0x4c498>
    3338:	96f00c00 	ldrbtls	r0, [r0], r0, lsl #24
    333c:	01260000 			; <UNDEFINED> instruction: 0x01260000
    3340:	0e000000 	cdpeq	0, 0, cr0, cr0, cr0, {0}
    3344:	0000083a 	andeq	r0, r0, sl, lsr r8
    3348:	0000083a 	andeq	r0, r0, sl, lsr r8
    334c:	0e064d02 	cdpeq	13, 0, cr4, cr6, cr2, {0}
    3350:	00000816 	andeq	r0, r0, r6, lsl r8
    3354:	00000816 	andeq	r0, r0, r6, lsl r8
    3358:	0e065802 	cdpeq	8, 0, cr5, cr6, cr2, {0}
    335c:	0000080b 	andeq	r0, r0, fp, lsl #16
    3360:	0000080b 	andeq	r0, r0, fp, lsl #16
    3364:	00066b02 	andeq	r6, r6, r2, lsl #22
    3368:	00000189 	andeq	r0, r0, r9, lsl #3
    336c:	10970004 	addsne	r0, r7, r4
    3370:	01040000 	mrseq	r0, (UNDEF: 4)
    3374:	000005a0 	andeq	r0, r0, r0, lsr #11
    3378:	0008700c 	andeq	r7, r8, ip
    337c:	00067100 	andeq	r7, r6, r0, lsl #2
    3380:	0096f800 	addseq	pc, r6, r0, lsl #16
    3384:	00003c00 	andeq	r3, r0, r0, lsl #24
    3388:	001c3d00 	andseq	r3, ip, r0, lsl #26
    338c:	05040200 	streq	r0, [r4, #-512]	; 0xfffffe00
    3390:	00746e69 	rsbseq	r6, r4, r9, ror #28
    3394:	fe070403 	cdp2	4, 0, cr0, cr7, cr3, {0}
    3398:	03000000 	movweq	r0, #0
    339c:	00d60601 	sbcseq	r0, r6, r1, lsl #12
    33a0:	02030000 	andeq	r0, r3, #0, 0
    33a4:	00002a05 	andeq	r2, r0, r5, lsl #20
    33a8:	05040300 	streq	r0, [r4, #-768]	; 0xfffffd00
    33ac:	0000006b 	andeq	r0, r0, fp, rrx
    33b0:	66050803 	strvs	r0, [r5], -r3, lsl #16
    33b4:	03000000 	movweq	r0, #0
    33b8:	00d40801 	sbcseq	r0, r4, r1, lsl #16
    33bc:	02030000 	andeq	r0, r3, #0, 0
    33c0:	00012507 	andeq	r2, r1, r7, lsl #10
    33c4:	07040300 	streq	r0, [r4, -r0, lsl #6]
    33c8:	000000f9 	strdeq	r0, [r0], -r9
    33cc:	f4070803 	vst2.8	{d0-d1}, [r7], r3
    33d0:	04000000 	streq	r0, [r0], #-0
    33d4:	00000025 	andeq	r0, r0, r5, lsr #32
    33d8:	0000007a 	andeq	r0, r0, sl, ror r0
    33dc:	00002505 	andeq	r2, r0, r5, lsl #10
    33e0:	34060000 	strcc	r0, [r6], #-0
    33e4:	02000000 	andeq	r0, r0, #0, 0
    33e8:	00860e1c 	addeq	r0, r6, ip, lsl lr
    33ec:	04070000 	streq	r0, [r7], #-0
    33f0:	0000006b 	andeq	r0, r0, fp, rrx
    33f4:	00002504 	andeq	r2, r0, r4, lsl #10
    33f8:	00009b00 	andeq	r9, r0, r0, lsl #22
    33fc:	009b0500 	addseq	r0, fp, r0, lsl #10
    3400:	07000000 	streq	r0, [r0, -r0]
    3404:	0000a804 	andeq	sl, r0, r4, lsl #16
    3408:	08010300 	stmdaeq	r1, {r8, r9}
    340c:	000000dd 	ldrdeq	r0, [r0], -sp
    3410:	0000a108 	andeq	sl, r0, r8, lsl #2
    3414:	072f0600 	streq	r0, [pc, -r0, lsl #12]!
    3418:	21020000 	mrscs	r0, (UNDEF: 2)
    341c:	0000b90e 	andeq	fp, r0, lr, lsl #18
    3420:	8c040700 	stchi	7, cr0, [r4], {-0}
    3424:	09000000 	stmdbeq	r0, {}	; <UNPREDICTABLE>
    3428:	00000848 	andeq	r0, r0, r8, asr #16
    342c:	f8060401 			; <UNDEFINED> instruction: 0xf8060401
    3430:	3c000096 	stccc	0, cr0, [r0], {150}	; 0x96
    3434:	01000000 	mrseq	r0, (UNDEF: 0)
    3438:	0001549c 	muleq	r1, ip, r4
    343c:	041f0600 	ldreq	r0, [pc], #-1536	; 3444 <__code_start__-0x4bbc>
    3440:	05010000 	streq	r0, [r1, #-0]
    3444:	00002510 	andeq	r2, r0, r0, lsl r5
    3448:	04eb0600 	strbteq	r0, [fp], #1536	; 0x600
    344c:	05010000 	streq	r0, [r1, #-0]
    3450:	0000251f 	andeq	r2, r0, pc, lsl r5
    3454:	011d0a00 	tsteq	sp, r0, lsl #20
    3458:	06010000 	streq	r0, [r1], -r0
    345c:	73620b07 	cmnvc	r2, #7168	; 0x1c00
    3460:	0a010073 	beq	43634 <__bss_end__+0x3878c>
    3464:	0001540a 	andeq	r5, r1, sl, lsl #8
    3468:	0016ff00 	andseq	pc, r6, r0, lsl #30
    346c:	0016f900 	andseq	pc, r6, r0, lsl #18
    3470:	08500c00 	ldmdaeq	r0, {sl, fp}^
    3474:	0b010000 	bleq	4347c <__bss_end__+0x385d4>
    3478:	0001540a 	andeq	r5, r1, sl, lsl #8
    347c:	971c0d00 	ldrls	r0, [ip, -r0, lsl #26]
    3480:	00080000 	andeq	r0, r8, r0
    3484:	012f0000 			; <UNDEFINED> instruction: 0x012f0000
    3488:	690e0000 	stmdbvs	lr, {}	; <UNPREDICTABLE>
    348c:	1401006e 	strne	r0, [r1], #-110	; 0xffffff92
    3490:	00002c05 	andeq	r2, r0, r5, lsl #24
    3494:	0f000100 	svceq	0x00000100
    3498:	00009700 	andeq	r9, r0, r0, lsl #14
    349c:	0000015a 	andeq	r0, r0, sl, asr r1
    34a0:	00971c0f 	addseq	r1, r7, pc, lsl #24
    34a4:	00016700 	andeq	r6, r1, r0, lsl #14
    34a8:	97280f00 	strls	r0, [r8, -r0, lsl #30]!
    34ac:	01730000 	cmneq	r3, r0
    34b0:	2c0f0000 	stccs	0, cr0, [pc], {-0}
    34b4:	80000097 	mulhi	r0, r7, r0
    34b8:	00000001 	andeq	r0, r0, r1
    34bc:	00250407 	eoreq	r0, r5, r7, lsl #8
    34c0:	62100000 	andsvs	r0, r0, #0, 0
    34c4:	62000008 	andvs	r0, r0, #8, 0
    34c8:	02000008 	andeq	r0, r0, #8, 0
    34cc:	11060136 	tstne	r6, r6, lsr r1
    34d0:	00000858 	andeq	r0, r0, r8, asr r8
    34d4:	00000858 	andeq	r0, r0, r8, asr r8
    34d8:	10063b02 	andne	r3, r6, r2, lsl #22
    34dc:	0000011d 	andeq	r0, r0, sp, lsl r1
    34e0:	0000011d 	andeq	r0, r0, sp, lsl r1
    34e4:	06010a02 	streq	r0, [r1], -r2, lsl #20
    34e8:	0000b511 	andeq	fp, r0, r1, lsl r5
    34ec:	0000b500 	andeq	fp, r0, r0, lsl #10
    34f0:	066e0200 	strbteq	r0, [lr], -r0, lsl #4
    34f4:	0000ce00 	andeq	ip, r0, r0, lsl #28
    34f8:	93000400 	movwls	r0, #1024	; 0x400
    34fc:	04000011 	streq	r0, [r0], #-17	; 0xffffffef
    3500:	0005a001 	andeq	sl, r5, r1
    3504:	08850c00 	stmeq	r5, {sl, fp}
    3508:	06710000 	ldrbteq	r0, [r1], -r0
    350c:	97340000 	ldrls	r0, [r4, -r0]!
    3510:	00040000 	andeq	r0, r4, r0
    3514:	1d000000 	stcne	0, cr0, [r0, #-0]
    3518:	04020000 	streq	r0, [r2], #-0
    351c:	746e6905 	strbtvc	r6, [lr], #-2309	; 0xfffff6fb
    3520:	07040300 	streq	r0, [r4, -r0, lsl #6]
    3524:	000000fe 	strdeq	r0, [r0], -lr
    3528:	d6060103 	strle	r0, [r6], -r3, lsl #2
    352c:	03000000 	movweq	r0, #0
    3530:	002a0502 	eoreq	r0, sl, r2, lsl #10
    3534:	04030000 	streq	r0, [r3], #-0
    3538:	00006b05 	andeq	r6, r0, r5, lsl #22
    353c:	05080300 	streq	r0, [r8, #-768]	; 0xfffffd00
    3540:	00000066 	andeq	r0, r0, r6, rrx
    3544:	d4080103 	strle	r0, [r8], #-259	; 0xfffffefd
    3548:	03000000 	movweq	r0, #0
    354c:	01250702 			; <UNDEFINED> instruction: 0x01250702
    3550:	04030000 	streq	r0, [r3], #-0
    3554:	0000f907 	andeq	pc, r0, r7, lsl #18
    3558:	07080300 	streq	r0, [r8, -r0, lsl #6]
    355c:	000000f4 	strdeq	r0, [r0], -r4
    3560:	00002504 	andeq	r2, r0, r4, lsl #10
    3564:	00007a00 	andeq	r7, r0, r0, lsl #20
    3568:	00250500 	eoreq	r0, r5, r0, lsl #10
    356c:	06000000 	streq	r0, [r0], -r0
    3570:	00000034 	andeq	r0, r0, r4, lsr r0
    3574:	860e1c02 	strhi	r1, [lr], -r2, lsl #24
    3578:	07000000 	streq	r0, [r0, -r0]
    357c:	00006b04 	andeq	r6, r0, r4, lsl #22
    3580:	00250400 	eoreq	r0, r5, r0, lsl #8
    3584:	009b0000 	addseq	r0, fp, r0
    3588:	9b050000 	blls	143590 <__bss_end__+0x1386e8>
    358c:	00000000 	andeq	r0, r0, r0
    3590:	00a80407 	adceq	r0, r8, r7, lsl #8
    3594:	01030000 	mrseq	r0, (UNDEF: 3)
    3598:	0000dd08 	andeq	sp, r0, r8, lsl #26
    359c:	00a10800 	adceq	r0, r1, r0, lsl #16
    35a0:	2f060000 	svccs	0x00060000
    35a4:	02000007 	andeq	r0, r0, #7, 0
    35a8:	00b90e21 	adcseq	r0, r9, r1, lsr #28
    35ac:	04070000 	streq	r0, [r7], #-0
    35b0:	0000008c 	andeq	r0, r0, ip, lsl #1
    35b4:	00086209 	andeq	r6, r8, r9, lsl #4
    35b8:	06040100 	streq	r0, [r4], -r0, lsl #2
    35bc:	00009734 	andeq	r9, r0, r4, lsr r7
    35c0:	00000004 	andeq	r0, r0, r4
    35c4:	36009c01 	strcc	r9, [r0], -r1, lsl #24
    35c8:	04000002 	streq	r0, [r0], #-2
    35cc:	00120c00 	andseq	r0, r2, r0, lsl #24
    35d0:	a0010400 	andge	r0, r1, r0, lsl #8
    35d4:	0c000005 	stceq	0, cr0, [r0], {5}
    35d8:	000008cd 	andeq	r0, r0, sp, asr #17
    35dc:	00000671 	andeq	r0, r0, r1, ror r6
    35e0:	00000098 	muleq	r0, r8, r0
    35e4:	00000000 	andeq	r0, r0, r0
    35e8:	00001da7 	andeq	r1, r0, r7, lsr #27
    35ec:	69050402 	stmdbvs	r5, {r1, sl}
    35f0:	0300746e 	movweq	r7, #1134	; 0x46e
    35f4:	00000025 	andeq	r0, r0, r5, lsr #32
    35f8:	fe070404 	cdp2	4, 0, cr0, cr7, cr4, {0}
    35fc:	04000000 	streq	r0, [r0], #-0
    3600:	00d60601 	sbcseq	r0, r6, r1, lsl #12
    3604:	02040000 	andeq	r0, r4, #0, 0
    3608:	00002a05 	andeq	r2, r0, r5, lsl #20
    360c:	05040400 	streq	r0, [r4, #-1024]	; 0xfffffc00
    3610:	0000006b 	andeq	r0, r0, fp, rrx
    3614:	66050804 	strvs	r0, [r5], -r4, lsl #16
    3618:	04000000 	streq	r0, [r0], #-0
    361c:	00d40801 	sbcseq	r0, r4, r1, lsl #16
    3620:	02040000 	andeq	r0, r4, #0, 0
    3624:	00012507 	andeq	r2, r1, r7, lsl #10
    3628:	07040400 	streq	r0, [r4, -r0, lsl #8]
    362c:	000000f9 	strdeq	r0, [r0], -r9
    3630:	f4070804 	vst2.8	{d0-d1}, [r7], r4
    3634:	05000000 	streq	r0, [r0, #-0]
    3638:	00000025 	andeq	r0, r0, r5, lsr #32
    363c:	0000007f 	andeq	r0, r0, pc, ror r0
    3640:	00002506 	andeq	r2, r0, r6, lsl #10
    3644:	34070000 	strcc	r0, [r7], #-0
    3648:	02000000 	andeq	r0, r0, #0, 0
    364c:	008b0e1c 	addeq	r0, fp, ip, lsl lr
    3650:	04080000 	streq	r0, [r8], #-0
    3654:	00000070 	andeq	r0, r0, r0, ror r0
    3658:	00002505 	andeq	r2, r0, r5, lsl #10
    365c:	0000a000 	andeq	sl, r0, r0
    3660:	00a00600 	adceq	r0, r0, r0, lsl #12
    3664:	08000000 	stmdaeq	r0, {}	; <UNPREDICTABLE>
    3668:	0000ad04 	andeq	sl, r0, r4, lsl #26
    366c:	08010400 	stmdaeq	r1, {sl}
    3670:	000000dd 	ldrdeq	r0, [r0], -sp
    3674:	0000a603 	andeq	sl, r0, r3, lsl #12
    3678:	072f0700 	streq	r0, [pc, -r0, lsl #14]!
    367c:	21020000 	mrscs	r0, (UNDEF: 2)
    3680:	0000be0e 	andeq	fp, r0, lr, lsl #28
    3684:	91040800 	tstls	r4, r0, lsl #16
    3688:	09000000 	stmdbeq	r0, {}	; <UNPREDICTABLE>
    368c:	000008f1 	strdeq	r0, [r0], -r1
    3690:	31110d01 	tstcc	r1, r1, lsl #26
    3694:	0a000000 	beq	369c <__code_start__-0x4964>
    3698:	0000080b 	andeq	r0, r0, fp, lsl #16
    369c:	64061f01 	strvs	r1, [r6], #-3841	; 0xfffff0ff
    36a0:	54000097 	strpl	r0, [r0], #-151	; 0xffffff69
    36a4:	01000000 	mrseq	r0, (UNDEF: 0)
    36a8:	0001ae9c 	muleq	r1, ip, lr
    36ac:	09150b00 	ldmdbeq	r5, {r8, r9, fp}
    36b0:	2c010000 	stccs	0, cr0, [r1], {-0}
    36b4:	00002c0f 	andeq	r2, r0, pc, lsl #24
    36b8:	00172c00 	andseq	r2, r7, r0, lsl #24
    36bc:	00172a00 	andseq	r2, r7, r0, lsl #20
    36c0:	08b00b00 	ldmeq	r0!, {r8, r9, fp}
    36c4:	2d010000 	stccs	0, cr0, [r1, #-0]
    36c8:	00002c0f 	andeq	r2, r0, pc, lsl #24
    36cc:	00174600 	andseq	r4, r7, r0, lsl #12
    36d0:	00174400 	andseq	r4, r7, r0, lsl #8
    36d4:	08e20b00 	stmiaeq	r2!, {r8, r9, fp}^
    36d8:	2e010000 	cdpcs	0, 0, cr0, cr1, cr0, {0}
    36dc:	00002c0f 	andeq	r2, r0, pc, lsl #24
    36e0:	00176000 	andseq	r6, r7, r0
    36e4:	00175e00 	andseq	r5, r7, r0, lsl #28
    36e8:	08fc0b00 	ldmeq	ip!, {r8, r9, fp}^
    36ec:	2f010000 	svccs	0x00010000
    36f0:	00002c0f 	andeq	r2, r0, pc, lsl #24
    36f4:	00177900 	andseq	r7, r7, r0, lsl #18
    36f8:	00177700 	andseq	r7, r7, r0, lsl #14
    36fc:	976c0c00 	strbls	r0, [ip, -r0, lsl #24]!
    3700:	01d90000 	bicseq	r0, r9, r0
    3704:	780c0000 	stmdavc	ip, {}	; <UNPREDICTABLE>
    3708:	08000097 	stmdaeq	r0, {r0, r1, r2, r4, r7}
    370c:	0c000002 	stceq	0, cr0, [r0], {2}
    3710:	0000977c 	andeq	r9, r0, ip, ror r7
    3714:	00000215 	andeq	r0, r0, r5, lsl r2
    3718:	0097840d 	addseq	r8, r7, sp, lsl #8
    371c:	00022100 	andeq	r2, r2, r0, lsl #2
    3720:	00016400 	andeq	r6, r1, r0, lsl #8
    3724:	50010e00 	andpl	r0, r1, r0, lsl #28
    3728:	0d003a01 	vstreq	s6, [r0, #-4]
    372c:	00009790 	muleq	r0, r0, r7
    3730:	0000022d 	andeq	r0, r0, sp, lsr #4
    3734:	00000184 	andeq	r0, r0, r4, lsl #3
    3738:	0550010e 	ldrbeq	r0, [r0, #-270]	; 0xfffffef2
    373c:	1000240c 	andne	r2, r0, ip, lsl #8
    3740:	51010e20 	tstpl	r1, r0, lsr #28
    3744:	00010c05 	andeq	r0, r1, r5, lsl #24
    3748:	0d005a00 	vstreq	s10, [r0, #-0]
    374c:	0000979c 	muleq	r0, ip, r7
    3750:	0000022d 	andeq	r0, r0, sp, lsr #4
    3754:	000001a4 	andeq	r0, r0, r4, lsr #3
    3758:	0550010e 	ldrbeq	r0, [r0, #-270]	; 0xfffffef2
    375c:	10001c0c 	andne	r1, r0, ip, lsl #24
    3760:	51010e20 	tstpl	r1, r0, lsr #28
    3764:	00200c05 	eoreq	r0, r0, r5, lsl #24
    3768:	0c005a00 			; <UNDEFINED> instruction: 0x0c005a00
    376c:	000097a4 	andeq	r9, r0, r4, lsr #15
    3770:	000001ae 	andeq	r0, r0, lr, lsr #3
    3774:	08be0f00 	ldmeq	lr!, {r8, r9, sl, fp}
    3778:	17010000 	strne	r0, [r1, -r0]
    377c:	00975006 	addseq	r5, r7, r6
    3780:	00001400 	andeq	r1, r0, r0, lsl #8
    3784:	d99c0100 	ldmible	ip, {r8}
    3788:	0b000001 	bleq	3794 <__code_start__-0x486c>
    378c:	0000091d 	andeq	r0, r0, sp, lsl r9
    3790:	310e1801 	tstcc	lr, r1, lsl #16
    3794:	94000000 	strls	r0, [r0], #-0
    3798:	8e000017 	mcrhi	0, 0, r0, cr0, cr7, {0}
    379c:	00000017 	andeq	r0, r0, r7, lsl r0
    37a0:	0008ee10 	andeq	lr, r8, r0, lsl lr
    37a4:	050e0100 	streq	r0, [lr, #-256]	; 0xffffff00
    37a8:	00000025 	andeq	r0, r0, r5, lsr #32
    37ac:	00009738 	andeq	r9, r0, r8, lsr r7
    37b0:	00000018 	andeq	r0, r0, r8, lsl r0
    37b4:	02089c01 	andeq	r9, r8, #256	; 0x100
    37b8:	1d0b0000 	stcne	0, cr0, [fp, #-0]
    37bc:	01000009 	tsteq	r0, r9
    37c0:	00310e0f 	eorseq	r0, r1, pc, lsl #28
    37c4:	17c20000 	strbne	r0, [r2, r0]
    37c8:	17be0000 	ldrne	r0, [lr, r0]!
    37cc:	11000000 	mrsne	r0, (UNDEF: 0)
    37d0:	000008a1 	andeq	r0, r0, r1, lsr #17
    37d4:	000008a1 	andeq	r0, r0, r1, lsr #17
    37d8:	06013b02 	streq	r3, [r1], -r2, lsl #22
    37dc:	00083a12 	andeq	r3, r8, r2, lsl sl
    37e0:	00083a00 	andeq	r3, r8, r0, lsl #20
    37e4:	064d0200 	strbeq	r0, [sp], -r0, lsl #4
    37e8:	00081612 	andeq	r1, r8, r2, lsl r6
    37ec:	00081600 	andeq	r1, r8, r0, lsl #12
    37f0:	06580200 	ldrbeq	r0, [r8], -r0, lsl #4
    37f4:	0008b812 	andeq	fp, r8, r2, lsl r8
    37f8:	0008b800 	andeq	fp, r8, r0, lsl #16
    37fc:	06b20200 	ldrteq	r0, [r2], r0, lsl #4
    3800:	00024d00 	andeq	r4, r2, r0, lsl #26
    3804:	31000400 	tstcc	r0, r0, lsl #8
    3808:	04000013 	streq	r0, [r0], #-19	; 0xffffffed
    380c:	0005a001 	andeq	sl, r5, r1
    3810:	09380c00 	ldmdbeq	r8!, {sl, fp}
    3814:	06710000 	ldrbteq	r0, [r1], -r0
    3818:	97b80000 	ldrls	r0, [r8, r0]!
    381c:	00840000 	addeq	r0, r4, r0
    3820:	1e9e0000 	cdpne	0, 9, cr0, cr14, cr0, {0}
    3824:	04020000 	streq	r0, [r2], #-0
    3828:	746e6905 	strbtvc	r6, [lr], #-2309	; 0xfffff6fb
    382c:	07040300 	streq	r0, [r4, -r0, lsl #6]
    3830:	000000fe 	strdeq	r0, [r0], -lr
    3834:	d6060103 	strle	r0, [r6], -r3, lsl #2
    3838:	03000000 	movweq	r0, #0
    383c:	002a0502 	eoreq	r0, sl, r2, lsl #10
    3840:	04030000 	streq	r0, [r3], #-0
    3844:	00006b05 	andeq	r6, r0, r5, lsl #22
    3848:	05080300 	streq	r0, [r8, #-768]	; 0xfffffd00
    384c:	00000066 	andeq	r0, r0, r6, rrx
    3850:	d4080103 	strle	r0, [r8], #-259	; 0xfffffefd
    3854:	03000000 	movweq	r0, #0
    3858:	01250702 			; <UNDEFINED> instruction: 0x01250702
    385c:	04030000 	streq	r0, [r3], #-0
    3860:	0000f907 	andeq	pc, r0, r7, lsl #18
    3864:	07080300 	streq	r0, [r8, -r0, lsl #6]
    3868:	000000f4 	strdeq	r0, [r0], -r4
    386c:	00002504 	andeq	r2, r0, r4, lsl #10
    3870:	00007a00 	andeq	r7, r0, r0, lsl #20
    3874:	00250500 	eoreq	r0, r5, r0, lsl #10
    3878:	06000000 	streq	r0, [r0], -r0
    387c:	00000034 	andeq	r0, r0, r4, lsr r0
    3880:	860e1c02 	strhi	r1, [lr], -r2, lsl #24
    3884:	07000000 	streq	r0, [r0, -r0]
    3888:	00006b04 	andeq	r6, r0, r4, lsl #22
    388c:	00250400 	eoreq	r0, r5, r0, lsl #8
    3890:	009b0000 	addseq	r0, fp, r0
    3894:	9b050000 	blls	14389c <__bss_end__+0x1389f4>
    3898:	00000000 	andeq	r0, r0, r0
    389c:	00a80407 	adceq	r0, r8, r7, lsl #8
    38a0:	01030000 	mrseq	r0, (UNDEF: 3)
    38a4:	0000dd08 	andeq	sp, r0, r8, lsl #26
    38a8:	00a10800 	adceq	r0, r1, r0, lsl #16
    38ac:	2f060000 	svccs	0x00060000
    38b0:	02000007 	andeq	r0, r0, #7, 0
    38b4:	00b90e21 	adcseq	r0, r9, r1, lsr #28
    38b8:	04070000 	streq	r0, [r7], #-0
    38bc:	0000008c 	andeq	r0, r0, ip, lsl #1
    38c0:	00092e09 	andeq	r2, r9, r9, lsl #28
    38c4:	061e0100 	ldreq	r0, [lr], -r0, lsl #2
    38c8:	00009824 	andeq	r9, r0, r4, lsr #16
    38cc:	00000018 	andeq	r0, r0, r8, lsl r0
    38d0:	01099c01 	tsteq	r9, r1, lsl #24
    38d4:	730a0000 	movwvc	r0, #40960	; 0xa000
    38d8:	01006365 	tsteq	r0, r5, ror #6
    38dc:	002c191e 	eoreq	r1, ip, lr, lsl r9
    38e0:	17e50000 	strbne	r0, [r5, r0]!
    38e4:	17e10000 	strbne	r0, [r1, r0]!
    38e8:	380b0000 	stmdacc	fp, {}	; <UNPREDICTABLE>
    38ec:	09000098 	stmdbeq	r0, {r3, r4, r7}
    38f0:	0c000001 	stceq	0, cr0, [r0], {1}
    38f4:	f3115001 	vhadd.u16	d5, d1, d1
    38f8:	24355001 	ldrtcs	r5, [r5], #-1
    38fc:	1c5001f3 	ldfnee	f0, [r0], {243}	; 0xf3
    3900:	01f32432 	mvnseq	r2, r2, lsr r4
    3904:	24332250 	ldrtcs	r2, [r3], #-592	; 0xfffffdb0
    3908:	16090000 	strne	r0, [r9], -r0
    390c:	01000008 	tsteq	r0, r8
    3910:	980c061b 	stmdals	ip, {r0, r1, r3, r4, r9, sl}
    3914:	00180000 	andseq	r0, r8, r0
    3918:	9c010000 	stcls	0, cr0, [r1], {-0}
    391c:	00000152 	andeq	r0, r0, r2, asr r1
    3920:	00736d0a 	rsbseq	r6, r3, sl, lsl #26
    3924:	2c181b01 			; <UNDEFINED> instruction: 0x2c181b01
    3928:	0a000000 	beq	3930 <__code_start__-0x46d0>
    392c:	06000018 			; <UNDEFINED> instruction: 0x06000018
    3930:	0b000018 	bleq	3998 <__code_start__-0x4668>
    3934:	00009820 	andeq	r9, r0, r0, lsr #16
    3938:	00000152 	andeq	r0, r0, r2, asr r1
    393c:	1150010c 	cmpne	r0, ip, lsl #2
    3940:	355001f3 	ldrbcc	r0, [r0, #-499]	; 0xfffffe0d
    3944:	5001f324 	andpl	pc, r1, r4, lsr #6
    3948:	f324321c 	vqsub.u32	d3, d4, d12
    394c:	33225001 			; <UNDEFINED> instruction: 0x33225001
    3950:	09000024 	stmdbeq	r0, {r2, r5}
    3954:	00000961 	andeq	r0, r0, r1, ror #18
    3958:	e8061201 	stmda	r6, {r0, r9, ip}
    395c:	24000097 	strcs	r0, [r0], #-151	; 0xffffff69
    3960:	01000000 	mrseq	r0, (UNDEF: 0)
    3964:	0001c29c 	muleq	r1, ip, r2
    3968:	73750a00 	cmnvc	r5, #0, 20
    396c:	18120100 	ldmdane	r2, {r8}
    3970:	0000002c 	andeq	r0, r0, ip, lsr #32
    3974:	0000182f 	andeq	r1, r0, pc, lsr #16
    3978:	0000182b 	andeq	r1, r0, fp, lsr #16
    397c:	0062720d 	rsbeq	r7, r2, sp, lsl #4
    3980:	2c0e1301 	stccs	3, cr1, [lr], {1}
    3984:	4f000000 	svcmi	0x00000000
    3988:	4d000018 	stcmi	0, cr0, [r0, #-96]	; 0xffffffa0
    398c:	0e000018 	mcreq	0, 0, r0, cr0, cr8, {0}
    3990:	000097f8 	strdeq	r9, [r0], -r8
    3994:	00000014 	andeq	r0, r0, r4, lsl r0
    3998:	000001b8 			; <UNDEFINED> instruction: 0x000001b8
    399c:	0061720d 	rsbeq	r7, r1, sp, lsl #4
    39a0:	2c121501 	cfldr32cs	mvfx1, [r2], {1}
    39a4:	64000000 	strvs	r0, [r0], #-0
    39a8:	62000018 	andvs	r0, r0, #24, 0
    39ac:	0f000018 	svceq	0x00000018
    39b0:	000097fc 	strdeq	r9, [r0], -ip
    39b4:	000001c2 	andeq	r0, r0, r2, asr #3
    39b8:	97f40f00 	ldrbls	r0, [r4, r0, lsl #30]!
    39bc:	01c20000 	biceq	r0, r2, r0
    39c0:	10000000 	andne	r0, r0, r0
    39c4:	00000952 	andeq	r0, r0, r2, asr r9
    39c8:	2c0a0901 			; <UNDEFINED> instruction: 0x2c0a0901
    39cc:	cc000000 	stcgt	0, cr0, [r0], {-0}
    39d0:	1c000097 	stcne	0, cr0, [r0], {151}	; 0x97
    39d4:	01000000 	mrseq	r0, (UNDEF: 0)
    39d8:	00020a9c 	muleq	r2, ip, sl
    39dc:	00750d00 	rsbseq	r0, r5, r0, lsl #26
    39e0:	2c0e0d01 	stccs	13, cr0, [lr], {1}
    39e4:	7b000000 	blvc	39ec <__code_start__-0x4614>
    39e8:	77000018 	smladvc	r0, r8, r0, r0
    39ec:	0f000018 	svceq	0x00000018
    39f0:	000097d4 	ldrdeq	r9, [r0], -r4
    39f4:	00000238 	andeq	r0, r0, r8, lsr r2
    39f8:	0097d80f 	addseq	sp, r7, pc, lsl #16
    39fc:	00020a00 	andeq	r0, r2, r0, lsl #20
    3a00:	97e00f00 	strbls	r0, [r0, r0, lsl #30]!
    3a04:	02380000 	eorseq	r0, r8, #0, 0
    3a08:	10000000 	andne	r0, r0, r0
    3a0c:	0000096a 	andeq	r0, r0, sl, ror #18
    3a10:	2c0a0401 	cfstrscs	mvf0, [sl], {1}
    3a14:	b8000000 	stmdalt	r0, {}	; <UNPREDICTABLE>
    3a18:	14000097 	strne	r0, [r0], #-151	; 0xffffff69
    3a1c:	01000000 	mrseq	r0, (UNDEF: 0)
    3a20:	0002389c 	muleq	r2, ip, r8
    3a24:	97c40b00 	strbls	r0, [r4, r0, lsl #22]
    3a28:	02440000 	subeq	r0, r4, #0, 0
    3a2c:	010c0000 	mrseq	r0, (UNDEF: 12)
    3a30:	040c0550 	streq	r0, [ip], #-1360	; 0xfffffab0
    3a34:	00200030 	eoreq	r0, r0, r0, lsr r0
    3a38:	09221100 	stmdbeq	r2!, {r8, ip}
    3a3c:	09220000 	stmdbeq	r2!, {}	; <UNPREDICTABLE>
    3a40:	a1020000 	mrsge	r0, (UNDEF: 2)
    3a44:	094c1106 	stmdbeq	ip, {r1, r2, r8, ip}^
    3a48:	094c0000 	stmdbeq	ip, {}^	; <UNPREDICTABLE>
    3a4c:	c7020000 	strgt	r0, [r2, -r0]
    3a50:	05cd000a 	strbeq	r0, [sp, #10]
    3a54:	00040000 	andeq	r0, r4, r0
    3a58:	00001432 	andeq	r1, r0, r2, lsr r4
    3a5c:	0a7d0104 	beq	1f43e74 <__bss_end__+0x1f38fcc>
    3a60:	bc0c0000 	stclt	0, cr0, [ip], {-0}
    3a64:	2d000009 	stccs	0, cr0, [r0, #-36]	; 0xffffffdc
    3a68:	3c00000a 	stccc	0, cr0, [r0], {10}
    3a6c:	f0000098 			; <UNDEFINED> instruction: 0xf0000098
    3a70:	9c000001 	stcls	0, cr0, [r0], {1}
    3a74:	0200001f 	andeq	r0, r0, #31, 0
    3a78:	6e690504 	cdpvs	5, 6, cr0, cr9, cr4, {0}
    3a7c:	04030074 	streq	r0, [r3], #-116	; 0xffffff8c
    3a80:	0000fe07 	andeq	pc, r0, r7, lsl #28
    3a84:	002c0400 	eoreq	r0, ip, r0, lsl #8
    3a88:	01030000 	mrseq	r0, (UNDEF: 3)
    3a8c:	0000d606 	andeq	sp, r0, r6, lsl #12
    3a90:	05020300 	streq	r0, [r2, #-768]	; 0xfffffd00
    3a94:	0000002a 	andeq	r0, r0, sl, lsr #32
    3a98:	6b050403 	blvs	144aac <__bss_end__+0x139c04>
    3a9c:	03000000 	movweq	r0, #0
    3aa0:	00660508 	rsbeq	r0, r6, r8, lsl #10
    3aa4:	01030000 	mrseq	r0, (UNDEF: 3)
    3aa8:	0000d408 	andeq	sp, r0, r8, lsl #8
    3aac:	07020300 	streq	r0, [r2, -r0, lsl #6]
    3ab0:	00000125 	andeq	r0, r0, r5, lsr #2
    3ab4:	00010b05 	andeq	r0, r1, r5, lsl #22
    3ab8:	19340500 	ldmdbne	r4!, {r8, sl}
    3abc:	0000006e 	andeq	r0, r0, lr, rrx
    3ac0:	f9070403 			; <UNDEFINED> instruction: 0xf9070403
    3ac4:	03000000 	movweq	r0, #0
    3ac8:	00f40708 	rscseq	r0, r4, r8, lsl #14
    3acc:	01030000 	mrseq	r0, (UNDEF: 3)
    3ad0:	0000dd08 	andeq	sp, r0, r8, lsl #26
    3ad4:	01070600 	tsteq	r7, r0, lsl #12
    3ad8:	00000054 	andeq	r0, r0, r4, asr r0
    3adc:	c20e0c04 	andgt	r0, lr, #4, 24	; 0x400
    3ae0:	07000000 	streq	r0, [r0, -r0]
    3ae4:	00000b67 	andeq	r0, r0, r7, ror #22
    3ae8:	099f0700 	ldmibeq	pc, {r8, r9, sl}	; <UNPREDICTABLE>
    3aec:	07010000 	streq	r0, [r1, -r0]
    3af0:	000009e2 	andeq	r0, r0, r2, ror #19
    3af4:	09f10704 	ldmibeq	r1!, {r2, r8, r9, sl}^
    3af8:	07050000 	streq	r0, [r5, -r0]
    3afc:	00000a00 	andeq	r0, r0, r0, lsl #20
    3b00:	0a0f0706 	beq	3c5720 <__bss_end__+0x3ba878>
    3b04:	07070000 	streq	r0, [r7, -r0]
    3b08:	00000b30 	andeq	r0, r0, r0, lsr fp
    3b0c:	0a1e0703 	beq	785720 <__bss_end__+0x77a878>
    3b10:	00020000 	andeq	r0, r2, r0
    3b14:	0009b008 	andeq	fp, r9, r8
    3b18:	06022c00 	streq	r2, [r2], -r0, lsl #24
    3b1c:	00015e08 	andeq	r5, r1, r8, lsl #28
    3b20:	6f690900 	svcvs	0x00690900
    3b24:	09090200 	stmdbeq	r9, {r9}
    3b28:	00000033 	andeq	r0, r0, r3, lsr r0
    3b2c:	65690900 	strbvs	r0, [r9, #-2304]!	; 0xfffff700
    3b30:	0a020072 	beq	83d00 <__bss_end__+0x78e58>
    3b34:	00003309 	andeq	r3, r0, r9, lsl #6
    3b38:	69090400 	stmdbvs	r9, {sl}
    3b3c:	02007269 	andeq	r7, r0, #-1879048186	; 0x90000006
    3b40:	00330911 	eorseq	r0, r3, r1, lsl r9
    3b44:	09080000 	stmdbeq	r8, {}	; <UNPREDICTABLE>
    3b48:	0072636c 	rsbseq	r6, r2, ip, ror #6
    3b4c:	33091302 	movwcc	r1, #37634	; 0x9302
    3b50:	0c000000 	stceq	0, cr0, [r0], {-0}
    3b54:	72636d09 	rsbvc	r6, r3, #576	; 0x240
    3b58:	09140200 	ldmdbeq	r4, {r9}
    3b5c:	00000033 	andeq	r0, r0, r3, lsr r0
    3b60:	736c0910 	cmnvc	ip, #16, 18	; 0x40000
    3b64:	15020072 	strne	r0, [r2, #-114]	; 0xffffff8e
    3b68:	00003309 	andeq	r3, r0, r9, lsl #6
    3b6c:	6d091400 	cfstrsvs	mvf1, [r9, #-0]
    3b70:	02007273 	andeq	r7, r0, #805306375	; 0x30000007
    3b74:	00330916 	eorseq	r0, r3, r6, lsl r9
    3b78:	0a180000 	beq	603b80 <__bss_end__+0x5f8cd8>
    3b7c:	00000b47 	andeq	r0, r0, r7, asr #22
    3b80:	33091702 	movwcc	r1, #38658	; 0x9702
    3b84:	1c000000 	stcne	0, cr0, [r0], {-0}
    3b88:	000b100a 	andeq	r1, fp, sl
    3b8c:	091b0200 	ldmdbeq	fp, {r9}
    3b90:	00000033 	andeq	r0, r0, r3, lsr r0
    3b94:	098c0a20 	stmibeq	ip, {r5, r9, fp}
    3b98:	1d020000 	stcne	0, cr0, [r2, #-0]
    3b9c:	00003309 	andeq	r3, r0, r9, lsl #6
    3ba0:	620a2400 	andvs	r2, sl, #0, 8
    3ba4:	0200000a 	andeq	r0, r0, #10, 0
    3ba8:	0033091e 	eorseq	r0, r3, lr, lsl r9
    3bac:	00280000 	eoreq	r0, r8, r0
    3bb0:	000a670b 	andeq	r6, sl, fp, lsl #14
    3bb4:	09080100 	stmdbeq	r8, {r8}
    3bb8:	00000174 	andeq	r0, r0, r4, ror r1
    3bbc:	20215004 	eorcs	r5, r1, r4
    3bc0:	0033040c 	eorseq	r0, r3, ip, lsl #8
    3bc4:	6e0d0000 	cdpvs	0, 0, cr0, cr13, cr0, {0}
    3bc8:	0b000001 	bleq	3bd4 <__code_start__-0x442c>
    3bcc:	00000b4f 	andeq	r0, r0, pc, asr #22
    3bd0:	8f232901 	svchi	0x00232901
    3bd4:	40000001 	andmi	r0, r0, r1
    3bd8:	0c202150 	stfeqs	f2, [r0], #-320	; 0xfffffec0
    3bdc:	0000c204 	andeq	ip, r0, r4, lsl #4
    3be0:	01890d00 	orreq	r0, r9, r0, lsl #26
    3be4:	3a0e0000 	bcc	383bec <__bss_end__+0x378d44>
    3be8:	01000008 	tsteq	r0, r8
    3bec:	99f406cc 	ldmibls	r4!, {r2, r3, r6, r7, r9, sl}^
    3bf0:	00140000 	andseq	r0, r4, r0
    3bf4:	9c010000 	stcls	0, cr0, [r1], {-0}
    3bf8:	000001b4 			; <UNDEFINED> instruction: 0x000001b4
    3bfc:	0099fc0f 	addseq	pc, r9, pc, lsl #24
    3c00:	0001b400 	andeq	fp, r1, r0, lsl #8
    3c04:	d1100000 	tstle	r0, r0
    3c08:	01000009 	tsteq	r0, r9
    3c0c:	002505b6 	strhteq	r0, [r5], -r6
    3c10:	99d40000 	ldmibls	r4, {}^	; <UNPREDICTABLE>
    3c14:	00200000 	eoreq	r0, r0, r0
    3c18:	9c010000 	stcls	0, cr0, [r1], {-0}
    3c1c:	000001eb 	andeq	r0, r0, fp, ror #3
    3c20:	0099dc0f 	addseq	sp, r9, pc, lsl #24
    3c24:	0005a000 	andeq	sl, r5, r0
    3c28:	99e41100 	stmibls	r4!, {r8, ip}^
    3c2c:	05ac0000 	streq	r0, [ip, #0]!
    3c30:	01120000 	tsteq	r2, r0
    3c34:	640c0550 	strvs	r0, [ip], #-1360	; 0xfffffab0
    3c38:	00202150 	eoreq	r2, r0, r0, asr r1
    3c3c:	0b221000 	bleq	887c44 <__bss_end__+0x87cd9c>
    3c40:	b3010000 	movwlt	r0, #4096	; 0x1000
    3c44:	00002505 	andeq	r2, r0, r5, lsl #10
    3c48:	0099c400 	addseq	ip, r9, r0, lsl #8
    3c4c:	00001000 	andeq	r1, r0, r0
    3c50:	189c0100 	ldmne	ip, {r8}
    3c54:	0f000002 	svceq	0x00000002
    3c58:	000099cc 	andeq	r9, r0, ip, asr #19
    3c5c:	000005a0 	andeq	r0, r0, r0, lsr #11
    3c60:	0099d00f 	addseq	sp, r9, pc
    3c64:	00030900 	andeq	r0, r3, r0, lsl #18
    3c68:	5d0e0000 	stcpl	0, cr0, [lr, #-0]
    3c6c:	0100000b 	tsteq	r0, fp
    3c70:	999406ab 	ldmibls	r4, {r0, r1, r3, r5, r7, r9, sl}
    3c74:	00300000 	eorseq	r0, r0, r0
    3c78:	9c010000 	stcls	0, cr0, [r1], {-0}
    3c7c:	0000027c 	andeq	r0, r0, ip, ror r2
    3c80:	01006313 	tsteq	r0, r3, lsl r3
    3c84:	002c19ab 	eoreq	r1, ip, fp, lsr #19
    3c88:	189d0000 	ldmne	sp, {}	; <UNPREDICTABLE>
    3c8c:	18990000 	ldmne	r9, {}	; <UNPREDICTABLE>
    3c90:	a00f0000 	andge	r0, pc, r0
    3c94:	a0000099 	mulge	r0, r9, r0
    3c98:	0f000005 	svceq	0x00000005
    3c9c:	000099a4 	andeq	r9, r0, r4, lsr #19
    3ca0:	000002db 	ldrdeq	r0, [r0], -fp
    3ca4:	0099b814 	addseq	fp, r9, r4, lsl r8
    3ca8:	0005b800 	andeq	fp, r5, r0, lsl #16
    3cac:	00027200 	andeq	r7, r2, r0, lsl #4
    3cb0:	50011200 	andpl	r1, r1, r0, lsl #4
    3cb4:	50400c05 	subpl	r0, r0, r5, lsl #24
    3cb8:	01122021 	tsteq	r2, r1, lsr #32
    3cbc:	00740551 	rsbseq	r0, r4, r1, asr r5
    3cc0:	001aff08 	andseq	pc, sl, r8, lsl #30
    3cc4:	0099bc0f 	addseq	fp, r9, pc, lsl #24
    3cc8:	0005a000 	andeq	sl, r5, r0
    3ccc:	73100000 	tstvc	r0, #0, 0
    3cd0:	0100000a 	tsteq	r0, sl
    3cd4:	002505a3 	eoreq	r0, r5, r3, lsr #11
    3cd8:	99640000 	stmdbls	r4!, {}^	; <UNPREDICTABLE>
    3cdc:	00300000 	eorseq	r0, r0, r0
    3ce0:	9c010000 	stcls	0, cr0, [r1], {-0}
    3ce4:	000002db 	ldrdeq	r0, [r0], -fp
    3ce8:	01006315 	tsteq	r0, r5, lsl r3
    3cec:	002509a7 	eoreq	r0, r5, r7, lsr #19
    3cf0:	18bd0000 	popne	{}	; <UNPREDICTABLE>
    3cf4:	18bb0000 	ldmne	fp!, {}	; <UNPREDICTABLE>
    3cf8:	6c0f0000 	stcvs	0, cr0, [pc], {-0}
    3cfc:	a0000099 	mulge	r0, r9, r0
    3d00:	0f000005 	svceq	0x00000005
    3d04:	00009970 	andeq	r9, r0, r0, ror r9
    3d08:	00000309 	andeq	r0, r0, r9, lsl #6
    3d0c:	00998014 	addseq	r8, r9, r4, lsl r0
    3d10:	0005ac00 	andeq	sl, r5, r0, lsl #24
    3d14:	0002d100 	andeq	sp, r2, r0, lsl #2
    3d18:	50011200 	andpl	r1, r1, r0, lsl #4
    3d1c:	50400c05 	subpl	r0, r0, r5, lsl #24
    3d20:	0f002021 	svceq	0x00002021
    3d24:	00009988 	andeq	r9, r0, r8, lsl #19
    3d28:	000005a0 	andeq	r0, r0, r0, lsr #11
    3d2c:	09c31000 	stmibeq	r3, {ip}^
    3d30:	94010000 	strls	r0, [r1], #-0
    3d34:	00002505 	andeq	r2, r0, r5, lsl #10
    3d38:	00994400 	addseq	r4, r9, r0, lsl #8
    3d3c:	00002000 	andeq	r2, r0, r0
    3d40:	099c0100 	ldmibeq	ip, {r8}
    3d44:	11000003 	tstne	r0, r3
    3d48:	00009950 	andeq	r9, r0, r0, asr r9
    3d4c:	000005ac 	andeq	r0, r0, ip, lsr #11
    3d50:	05500112 	ldrbeq	r0, [r0, #-274]	; 0xfffffeee
    3d54:	2150640c 	cmpcs	r0, ip, lsl #8
    3d58:	10000020 	andne	r0, r0, r0, lsr #32
    3d5c:	00000991 	muleq	r0, r1, r9
    3d60:	25058b01 	strcs	r8, [r5, #-2817]	; 0xfffff4ff
    3d64:	2c000000 	stccs	0, cr0, [r0], {-0}
    3d68:	18000099 	stmdane	r0, {r0, r3, r4, r7}
    3d6c:	01000000 	mrseq	r0, (UNDEF: 0)
    3d70:	0003379c 	muleq	r3, ip, r7
    3d74:	99381100 	ldmdbls	r8!, {r8, ip}
    3d78:	05ac0000 	streq	r0, [ip, #0]!
    3d7c:	01120000 	tsteq	r2, r0
    3d80:	640c0550 	strvs	r0, [ip], #-1360	; 0xfffffab0
    3d84:	00202150 	eoreq	r2, r0, r0, asr r1
    3d88:	08580e00 	ldmdaeq	r8, {r9, sl, fp}^
    3d8c:	45010000 	strmi	r0, [r1, #-0]
    3d90:	00987c06 	addseq	r7, r8, r6, lsl #24
    3d94:	0000b000 	andeq	fp, r0, r0
    3d98:	849c0100 	ldrhi	r0, [ip], #256	; 0x100
    3d9c:	16000004 	strne	r0, [r0], -r4
    3da0:	00000983 	andeq	r0, r0, r3, lsl #19
    3da4:	620e7e01 	andvs	r7, lr, #1, 28
    3da8:	0e000000 	cdpeq	0, 0, cr0, cr0, cr0, {0}
    3dac:	988c1401 	stmls	ip, {r0, sl, ip}
    3db0:	05c40000 	strbeq	r0, [r4]
    3db4:	03730000 	cmneq	r3, #0, 0
    3db8:	01120000 	tsteq	r2, r0
    3dbc:	123e0150 	eorsne	r0, lr, #20
    3dc0:	32015101 	andcc	r5, r1, #1073741824	; 0x40000000
    3dc4:	98981400 	ldmls	r8, {sl, ip}
    3dc8:	05c40000 	strbeq	r0, [r4]
    3dcc:	038b0000 	orreq	r0, fp, #0, 0
    3dd0:	01120000 	tsteq	r2, r0
    3dd4:	123f0150 	eorsne	r0, pc, #20
    3dd8:	32015101 	andcc	r5, r1, #1073741824	; 0x40000000
    3ddc:	989c0f00 	ldmls	ip, {r8, r9, sl, fp}
    3de0:	05a00000 	streq	r0, [r0, #0]!
    3de4:	a8140000 	ldmdage	r4, {}	; <UNPREDICTABLE>
    3de8:	3d000098 	stccc	0, cr0, [r0, #-608]	; 0xfffffda0
    3dec:	b0000005 	andlt	r0, r0, r5
    3df0:	12000003 	andne	r0, r0, #3, 0
    3df4:	0c055001 	stceq	0, cr5, [r5], {1}
    3df8:	20215004 	eorcs	r5, r1, r4
    3dfc:	01510112 	cmpeq	r1, r2, lsl r1
    3e00:	ac0f0031 	stcge	0, cr0, [pc], {49}	; 0x31
    3e04:	a0000098 	mulge	r0, r8, r0
    3e08:	14000005 	strne	r0, [r0], #-5
    3e0c:	000098bc 			; <UNDEFINED> instruction: 0x000098bc
    3e10:	000005b8 			; <UNDEFINED> instruction: 0x000005b8
    3e14:	000003d2 	ldrdeq	r0, [r0], -r2
    3e18:	02500112 	subseq	r0, r0, #-2147483644	; 0x80000004
    3e1c:	01120074 	tsteq	r2, r4, ror r0
    3e20:	00300151 	eorseq	r0, r0, r1, asr r1
    3e24:	0098c814 	addseq	ip, r8, r4, lsl r8
    3e28:	0005b800 	andeq	fp, r5, r0, lsl #16
    3e2c:	0003ee00 	andeq	lr, r3, r0, lsl #28
    3e30:	50011200 	andpl	r1, r1, r0, lsl #4
    3e34:	50440c05 	subpl	r0, r4, r5, lsl #24
    3e38:	01122021 	tsteq	r2, r1, lsr #32
    3e3c:	00300151 	eorseq	r0, r0, r1, asr r1
    3e40:	0098d414 	addseq	sp, r8, r4, lsl r4
    3e44:	0005b800 	andeq	fp, r5, r0, lsl #16
    3e48:	00040a00 	andeq	r0, r4, r0, lsl #20
    3e4c:	50011200 	andpl	r1, r1, r0, lsl #4
    3e50:	504c0c05 	subpl	r0, ip, r5, lsl #24
    3e54:	01122021 	tsteq	r2, r1, lsr #32
    3e58:	00330151 	eorseq	r0, r3, r1, asr r1
    3e5c:	0098e014 	addseq	lr, r8, r4, lsl r0
    3e60:	0005b800 	andeq	fp, r5, r0, lsl #16
    3e64:	00042600 	andeq	r2, r4, r0, lsl #12
    3e68:	50011200 	andpl	r1, r1, r0, lsl #4
    3e6c:	50500c05 	subspl	r0, r0, r5, lsl #24
    3e70:	01122021 	tsteq	r2, r1, lsr #32
    3e74:	00300151 	eorseq	r0, r0, r1, asr r1
    3e78:	0098ec14 	addseq	lr, r8, r4, lsl ip
    3e7c:	0005b800 	andeq	fp, r5, r0, lsl #16
    3e80:	00044300 	andeq	r4, r4, r0, lsl #6
    3e84:	50011200 	andpl	r1, r1, r0, lsl #4
    3e88:	50480c05 	subpl	r0, r8, r5, lsl #24
    3e8c:	01122021 	tsteq	r2, r1, lsr #32
    3e90:	c7080251 	smlsdgt	r8, r1, r2, r0
    3e94:	98f81400 	ldmls	r8!, {sl, ip}^
    3e98:	05b80000 	ldreq	r0, [r8, #0]!
    3e9c:	04610000 	strbteq	r0, [r1], #-0
    3ea0:	01120000 	tsteq	r2, r0
    3ea4:	680c0550 	stmdavs	ip, {r4, r6, r8, sl}
    3ea8:	12202150 	eorne	r2, r0, #20
    3eac:	0a035101 	beq	d82b8 <__bss_end__+0xcd410>
    3eb0:	1400010e 	strne	r0, [r0], #-270	; 0xfffffef2
    3eb4:	00009904 	andeq	r9, r0, r4, lsl #18
    3eb8:	000005b8 			; <UNDEFINED> instruction: 0x000005b8
    3ebc:	0000047a 	andeq	r0, r0, sl, ror r4
    3ec0:	02500112 	subseq	r0, r0, #-2147483644	; 0x80000004
    3ec4:	01120074 	tsteq	r2, r4, ror r0
    3ec8:	00330151 	eorseq	r0, r3, r1, asr r1
    3ecc:	0099080f 	addseq	r0, r9, pc, lsl #16
    3ed0:	0005a000 	andeq	sl, r5, r0
    3ed4:	150e0000 	strne	r0, [lr, #-0]
    3ed8:	0100000b 	tsteq	r0, fp
    3edc:	9a080635 	bls	2057b8 <__bss_end__+0x1fa910>
    3ee0:	00240000 	eoreq	r0, r4, r0
    3ee4:	9c010000 	stcls	0, cr0, [r1], {-0}
    3ee8:	000004d3 	ldrdeq	r0, [r0], -r3
    3eec:	009a100f 	addseq	r1, sl, pc
    3ef0:	00019400 	andeq	r9, r1, r0, lsl #8
    3ef4:	9a140f00 	bls	507afc <__bss_end__+0x4fcc54>
    3ef8:	05a00000 	streq	r0, [r0, #0]!
    3efc:	20140000 	andscs	r0, r4, r0
    3f00:	d300009a 	movwle	r0, #154	; 0x9a
    3f04:	c9000004 	stmdbgt	r0, {r2}
    3f08:	12000004 	andne	r0, r0, #4, 0
    3f0c:	0c055001 	stceq	0, cr5, [r5], {1}
    3f10:	20215004 	eorcs	r5, r1, r4
    3f14:	02510112 	subseq	r0, r1, #-2147483644	; 0x80000004
    3f18:	0f00fe09 	svceq	0x0000fe09
    3f1c:	00009a24 	andeq	r9, r0, r4, lsr #20
    3f20:	000005a0 	andeq	r0, r0, r0, lsr #11
    3f24:	0b541700 	bleq	1509b2c <__bss_end__+0x14fec84>
    3f28:	31010000 	mrscc	r0, (UNDEF: 1)
    3f2c:	00983c0d 	addseq	r3, r8, sp, lsl #24
    3f30:	00002000 	andeq	r2, r0, r0
    3f34:	369c0100 	ldrcc	r0, [ip], r0, lsl #2
    3f38:	18000005 	stmdane	r0, {r0, r2}
    3f3c:	00000bae 	andeq	r0, r0, lr, lsr #23
    3f40:	36253101 	strtcc	r3, [r5], -r1, lsl #2
    3f44:	d4000005 	strle	r0, [r0], #-5
    3f48:	d0000018 	andle	r0, r0, r8, lsl r0
    3f4c:	13000018 	movwne	r0, #24
    3f50:	006c6176 	rsbeq	r6, ip, r6, ror r1
    3f54:	2c343101 	ldfcss	f3, [r4], #-4
    3f58:	f6000000 			; <UNDEFINED> instruction: 0xf6000000
    3f5c:	f2000018 	vqadd.s8	d0, d0, d8
    3f60:	14000018 	strne	r0, [r0], #-24	; 0xffffffe8
    3f64:	0000984c 	andeq	r9, r0, ip, asr #16
    3f68:	000005ac 	andeq	r0, r0, ip, lsr #11
    3f6c:	00000525 	andeq	r0, r0, r5, lsr #10
    3f70:	02500112 	subseq	r0, r0, #-2147483644	; 0x80000004
    3f74:	11000074 	tstne	r0, r4, ror r0
    3f78:	00009858 	andeq	r9, r0, r8, asr r8
    3f7c:	000005b8 			; <UNDEFINED> instruction: 0x000005b8
    3f80:	02500112 	subseq	r0, r0, #-2147483644	; 0x80000004
    3f84:	00000074 	andeq	r0, r0, r4, ror r0
    3f88:	053c040c 	ldreq	r0, [ip, #-1036]!	; 0xfffffbf4
    3f8c:	17190000 	ldrne	r0, [r9, -r0]
    3f90:	00000b3f 	andeq	r0, r0, pc, lsr fp
    3f94:	5c0d2e01 	stcpl	14, cr2, [sp], {1}
    3f98:	20000098 	mulcs	r0, r8, r0
    3f9c:	01000000 	mrseq	r0, (UNDEF: 0)
    3fa0:	0005a09c 	muleq	r5, ip, r0
    3fa4:	0bae1800 	bleq	feb89fac <__bss_end__+0xfeb7f104>
    3fa8:	2e010000 	cdpcs	0, 0, cr0, cr1, cr0, {0}
    3fac:	00053624 	andeq	r3, r5, r4, lsr #12
    3fb0:	00191800 	andseq	r1, r9, r0, lsl #16
    3fb4:	00191400 	andseq	r1, r9, r0, lsl #8
    3fb8:	61761300 	cmnvs	r6, r0, lsl #6
    3fbc:	2e01006c 	cdpcs	0, 0, cr0, cr1, cr12, {3}
    3fc0:	00002c33 	andeq	r2, r0, r3, lsr ip
    3fc4:	00193a00 	andseq	r3, r9, r0, lsl #20
    3fc8:	00193600 	andseq	r3, r9, r0, lsl #12
    3fcc:	986c1400 	stmdals	ip!, {sl, ip}^
    3fd0:	05ac0000 	streq	r0, [ip, #0]!
    3fd4:	058f0000 	streq	r0, [pc]	; 3fdc <__code_start__-0x4024>
    3fd8:	01120000 	tsteq	r2, r0
    3fdc:	00740250 	rsbseq	r0, r4, r0, asr r2
    3fe0:	98781100 	ldmdals	r8!, {r8, ip}^
    3fe4:	05b80000 	ldreq	r0, [r8, #0]!
    3fe8:	01120000 	tsteq	r2, r0
    3fec:	00740250 	rsbseq	r0, r4, r0, asr r2
    3ff0:	221a0000 	andscs	r0, sl, #0, 0
    3ff4:	22000009 	andcs	r0, r0, #9, 0
    3ff8:	03000009 	movweq	r0, #9
    3ffc:	891a06a1 	ldmdbhi	sl, {r0, r5, r7, r9, sl}
    4000:	8900000b 	stmdbhi	r0, {r0, r1, r3}
    4004:	0300000b 	movweq	r0, #11
    4008:	7d1a0bc8 	vldrvc	d0, [sl, #-800]	; 0xfffffce0
    400c:	7d000009 	stcvc	0, cr0, [r0, #-36]	; 0xffffffdc
    4010:	03000009 	movweq	r0, #9
    4014:	771a06b3 			; <UNDEFINED> instruction: 0x771a06b3
    4018:	7700000b 	strvc	r0, [r0, -fp]
    401c:	0400000b 	streq	r0, [r0], #-11
    4020:	e9000619 	stmdb	r0, {r0, r3, r4, r9, sl}
    4024:	04000008 	streq	r0, [r0], #-8
    4028:	0015ca00 	andseq	ip, r5, r0, lsl #20
    402c:	7d010400 	cfstrsvc	mvf0, [r1, #-0]
    4030:	0c00000a 	stceq	0, cr0, [r0], {10}
    4034:	00000c19 	andeq	r0, r0, r9, lsl ip
    4038:	00000a2d 	andeq	r0, r0, sp, lsr #20
    403c:	00009a2c 	andeq	r9, r0, ip, lsr #20
    4040:	000003b0 			; <UNDEFINED> instruction: 0x000003b0
    4044:	000021a5 	andeq	r2, r0, r5, lsr #3
    4048:	69050402 	stmdbvs	r5, {r1, sl}
    404c:	0300746e 	movweq	r7, #1134	; 0x46e
    4050:	00fe0704 	rscseq	r0, lr, r4, lsl #14
    4054:	01030000 	mrseq	r0, (UNDEF: 3)
    4058:	0000d606 	andeq	sp, r0, r6, lsl #12
    405c:	05020300 	streq	r0, [r2, #-768]	; 0xfffffd00
    4060:	0000002a 	andeq	r0, r0, sl, lsr #32
    4064:	6b050403 	blvs	145078 <__bss_end__+0x13a1d0>
    4068:	03000000 	movweq	r0, #0
    406c:	00660508 	rsbeq	r0, r6, r8, lsl #10
    4070:	01030000 	mrseq	r0, (UNDEF: 3)
    4074:	0000d408 	andeq	sp, r0, r8, lsl #8
    4078:	07020300 	streq	r0, [r2, -r0, lsl #6]
    407c:	00000125 	andeq	r0, r0, r5, lsr #2
    4080:	00010b04 	andeq	r0, r1, r4, lsl #22
    4084:	19340300 	ldmdbne	r4!, {r8, r9}
    4088:	00000069 	andeq	r0, r0, r9, rrx
    408c:	f9070403 			; <UNDEFINED> instruction: 0xf9070403
    4090:	03000000 	movweq	r0, #0
    4094:	00f40708 	rscseq	r0, r4, r8, lsl #14
    4098:	01030000 	mrseq	r0, (UNDEF: 3)
    409c:	0000dd08 	andeq	sp, r0, r8, lsl #26
    40a0:	00770500 	rsbseq	r0, r7, r0, lsl #10
    40a4:	08030000 	stmdaeq	r3, {}	; <UNPREDICTABLE>
    40a8:	00037604 	andeq	r7, r3, r4, lsl #12
    40ac:	07040600 	streq	r0, [r4, -r0, lsl #12]
    40b0:	002c0407 	eoreq	r0, ip, r7, lsl #8
    40b4:	1f010000 	svcne	0x00010000
    40b8:	0000a406 	andeq	sl, r0, r6, lsl #8
    40bc:	0bb30800 	bleq	fecc60c4 <__bss_end__+0xfecbb21c>
    40c0:	00000000 	andeq	r0, r0, r0
    40c4:	09000020 	stmdbeq	r0, {r5}
    40c8:	00000783 	andeq	r0, r0, r3, lsl #15
    40cc:	770d2201 	strvc	r2, [sp, -r1, lsl #4]
    40d0:	0a000000 	beq	40d8 <__code_start__-0x3f28>
    40d4:	000004c6 	andeq	r0, r0, r6, asr #9
    40d8:	c20e2301 	andgt	r2, lr, #67108864	; 0x4000000
    40dc:	05000000 	streq	r0, [r0, #-0]
    40e0:	00aa7003 	adceq	r7, sl, r3
    40e4:	77040b00 	strvc	r0, [r4, -r0, lsl #22]
    40e8:	0a000000 	beq	40f0 <__code_start__-0x3f10>
    40ec:	00000b97 	muleq	r0, r7, fp
    40f0:	c20e2401 	andgt	r2, lr, #16777216	; 0x1000000
    40f4:	05000000 	streq	r0, [r0, #-0]
    40f8:	00aa6c03 	adceq	r6, sl, r3, lsl #24
    40fc:	0bf80a00 	bleq	ffe06904 <__bss_end__+0xffdfba5c>
    4100:	25010000 	strcs	r0, [r1, #-0]
    4104:	0000c20e 	andeq	ip, r0, lr, lsl #4
    4108:	68030500 	stmdavs	r3, {r8, sl}
    410c:	0c0000aa 	stceq	0, cr0, [r0], {170}	; 0xaa
    4110:	00000bce 	andeq	r0, r0, lr, asr #23
    4114:	7c067501 	cfstr32vc	mvfx7, [r6], {1}
    4118:	6000009d 	mulvs	r0, sp, r0
    411c:	01000000 	mrseq	r0, (UNDEF: 0)
    4120:	0001649c 	muleq	r1, ip, r4
    4124:	00700d00 	rsbseq	r0, r0, r0, lsl #26
    4128:	8a167501 	bhi	5a1534 <__bss_end__+0x59668c>
    412c:	5e000000 	cdppl	0, 0, cr0, cr0, cr0, {0}
    4130:	58000019 	stmdapl	r0, {r0, r3, r4}
    4134:	0e000019 	mcreq	0, 0, r0, cr0, cr9, {0}
    4138:	0000009e 	muleq	r0, lr, r0
    413c:	00000174 	andeq	r0, r0, r4, ror r1
    4140:	aa540305 	bge	1504d5c <__bss_end__+0x14f9eb4>
    4144:	c80f0000 	stmdagt	pc, {}	; <UNPREDICTABLE>
    4148:	bc00009d 	stclt	0, cr0, [r0], {157}	; 0x9d
    414c:	5a000008 	bpl	4174 <__code_start__-0x3e8c>
    4150:	10000001 	andne	r0, r0, r1
    4154:	03055001 	movweq	r5, #20481	; 0x5001
    4158:	0000a9cc 	andeq	sl, r0, ip, asr #19
    415c:	05510110 	ldrbeq	r0, [r1, #-272]	; 0xfffffef0
    4160:	00a86403 	adceq	r6, r8, r3, lsl #8
    4164:	52011000 	andpl	r1, r1, #0, 0
    4168:	aa540305 	bge	1504d84 <__bss_end__+0x14f9edc>
    416c:	01100000 	tsteq	r0, r0
    4170:	77080253 	smlsdvc	r8, r3, r2, r0
    4174:	007d0210 	rsbseq	r0, sp, r0, lsl r2
    4178:	5001f303 	andpl	pc, r1, r3, lsl #6
    417c:	9dcc1100 	stflse	f1, [ip]
    4180:	08c80000 	stmiaeq	r8, {}^	; <UNPREDICTABLE>
    4184:	12000000 	andne	r0, r0, #0, 0
    4188:	0000007e 	andeq	r0, r0, lr, ror r0
    418c:	00000174 	andeq	r0, r0, r4, ror r1
    4190:	00002c13 	andeq	r2, r0, r3, lsl ip
    4194:	05000900 	streq	r0, [r0, #-2304]	; 0xfffff700
    4198:	00000164 	andeq	r0, r0, r4, ror #2
    419c:	000bbc14 	andeq	fp, fp, r4, lsl ip
    41a0:	06720100 	ldrbteq	r0, [r2], -r0, lsl #2
    41a4:	00009d68 	andeq	r9, r0, r8, ror #26
    41a8:	00000014 	andeq	r0, r0, r4, lsl r0
    41ac:	030c9c01 	movweq	r9, #52225	; 0xcc01
    41b0:	01000003 	tsteq	r0, r3
    41b4:	9d64066f 	stclls	6, cr0, [r4, #-444]!	; 0xfffffe44
    41b8:	00040000 	andeq	r0, r4, r0
    41bc:	9c010000 	stcls	0, cr0, [r1], {-0}
    41c0:	000001ae 	andeq	r0, r0, lr, lsr #3
    41c4:	01007015 	tsteq	r0, r5, lsl r0
    41c8:	008a126f 	addeq	r1, sl, pc, ror #4
    41cc:	50010000 	andpl	r0, r1, r0
    41d0:	0c5b1600 	mrrceq	6, 0, r1, fp, cr0
    41d4:	5e010000 	cdppl	0, 0, cr0, cr1, cr0, {0}
    41d8:	00008a07 	andeq	r8, r0, r7, lsl #20
    41dc:	009c4c00 	addseq	r4, ip, r0, lsl #24
    41e0:	00011800 	andeq	r1, r1, r0, lsl #16
    41e4:	2c9c0100 	ldfcss	f0, [ip], {0}
    41e8:	17000004 	strne	r0, [r0, -r4]
    41ec:	000003c5 	andeq	r0, r0, r5, asr #7
    41f0:	2c205e01 	stccs	14, cr5, [r0], #-4
    41f4:	9f000000 	svcls	0x00000000
    41f8:	8b000019 	blhi	4264 <__code_start__-0x3d9c>
    41fc:	17000019 	smladne	r0, r9, r0, r0
    4200:	00000bd8 	ldrdeq	r0, [r0], -r8
    4204:	2c315e01 	ldccs	14, cr5, [r1], #-4
    4208:	38000000 	stmdacc	r0, {}	; <UNPREDICTABLE>
    420c:	2400001a 	strcs	r0, [r0], #-26	; 0xffffffe6
    4210:	0e00001a 	mcreq	0, 0, r0, cr0, cr10, {0}
    4214:	0000009e 	muleq	r0, lr, r0
    4218:	0000043c 	andeq	r0, r0, ip, lsr r4
    421c:	aa3c0305 	bge	f04e38 <__bss_end__+0xef9f90>
    4220:	68180000 	ldmdavs	r8, {}	; <UNPREDICTABLE>
    4224:	0e660100 	poweqs	f0, f6, f0
    4228:	0000002c 	andeq	r0, r0, ip, lsr #32
    422c:	00001aee 	andeq	r1, r0, lr, ror #21
    4230:	00001ae2 	andeq	r1, r0, r2, ror #21
    4234:	00085419 	andeq	r5, r8, r9, lsl r4
    4238:	009c5c00 	addseq	r5, ip, r0, lsl #24
    423c:	9c5c0400 	cfldrdls	mvd0, [ip], {-0}
    4240:	00040000 	andeq	r0, r4, r0
    4244:	60010000 	andvs	r0, r1, r0
    4248:	00023805 	andeq	r3, r2, r5, lsl #16
    424c:	08651a00 	stmdaeq	r5!, {r9, fp, ip}^
    4250:	1b420000 	blne	1084258 <__bss_end__+0x10793b0>
    4254:	1b400000 	blne	100425c <__bss_end__+0xff93b4>
    4258:	19000000 	stmdbne	r0, {}	; <UNPREDICTABLE>
    425c:	00000896 	muleq	r0, r6, r8
    4260:	00009c68 	andeq	r9, r0, r8, ror #24
    4264:	009c6802 	addseq	r6, ip, r2, lsl #16
    4268:	00000800 	andeq	r0, r0, r0, lsl #16
    426c:	11610100 	cmnne	r1, r0, lsl #2
    4270:	0000026c 	andeq	r0, r0, ip, ror #4
    4274:	0008b11a 	andeq	fp, r8, sl, lsl r1
    4278:	001b5700 	andseq	r5, fp, r0, lsl #14
    427c:	001b5500 	andseq	r5, fp, r0, lsl #10
    4280:	08a71a00 	stmiaeq	r7!, {r9, fp, ip}
    4284:	1b6d0000 	blne	1b4428c <__bss_end__+0x1b393e4>
    4288:	1b6b0000 	blne	1ac4290 <__bss_end__+0x1ab93e8>
    428c:	1b000000 	blne	4294 <__code_start__-0x3d6c>
    4290:	0000081f 	andeq	r0, r0, pc, lsl r8
    4294:	00009c78 	andeq	r9, r0, r8, ror ip
    4298:	0000c001 	andeq	ip, r0, r1
    429c:	09670100 	stmdbeq	r7!, {r8}^
    42a0:	0000030a 	andeq	r0, r0, sl, lsl #6
    42a4:	00083a1a 	andeq	r3, r8, sl, lsl sl
    42a8:	001b8600 	andseq	r8, fp, r0, lsl #12
    42ac:	001b8000 	andseq	r8, fp, r0
    42b0:	08301a00 	ldmdaeq	r0!, {r9, fp, ip}
    42b4:	1bcd0000 	blne	ff3442bc <__bss_end__+0xff339414>
    42b8:	1bc50000 	blne	ff1442c0 <__bss_end__+0xff139418>
    42bc:	c01c0000 	andsgt	r0, ip, r0
    42c0:	19000000 	stmdbne	r0, {}	; <UNPREDICTABLE>
    42c4:	00000854 	andeq	r0, r0, r4, asr r8
    42c8:	00009c78 	andeq	r9, r0, r8, ror ip
    42cc:	009c7804 	addseq	r7, ip, r4, lsl #16
    42d0:	00000400 	andeq	r0, r0, r0, lsl #8
    42d4:	05110100 	ldreq	r0, [r1, #-256]	; 0xffffff00
    42d8:	000002c7 	andeq	r0, r0, r7, asr #5
    42dc:	0008651a 	andeq	r6, r8, sl, lsl r5
    42e0:	001c0b00 	andseq	r0, ip, r0, lsl #22
    42e4:	001c0900 	andseq	r0, ip, r0, lsl #18
    42e8:	100f0000 	andne	r0, pc, r0
    42ec:	bc00009d 	stclt	0, cr0, [r0], {157}	; 0x9d
    42f0:	ff000008 			; <UNDEFINED> instruction: 0xff000008
    42f4:	10000002 	andne	r0, r0, r2
    42f8:	03055001 	movweq	r5, #20481	; 0x5001
    42fc:	0000a11c 	andeq	sl, r0, ip, lsl r1
    4300:	05510110 	ldrbeq	r0, [r1, #-272]	; 0xfffffef0
    4304:	00a86403 	adceq	r6, r8, r3, lsl #8
    4308:	52011000 	andpl	r1, r1, #0, 0
    430c:	aa4c0305 	bge	1304f28 <__bss_end__+0x12fa080>
    4310:	01100000 	tsteq	r0, r0
    4314:	10410153 	subne	r0, r1, r3, asr r1
    4318:	05007d02 	streq	r7, [r0, #-3330]	; 0xfffff2fe
    431c:	00a97803 	adceq	r7, r9, r3, lsl #16
    4320:	14110000 	ldrne	r0, [r1], #-0
    4324:	c800009d 	stmdagt	r0, {r0, r2, r3, r4, r7}
    4328:	00000008 	andeq	r0, r0, r8
    432c:	08701900 	ldmdaeq	r0!, {r8, fp, ip}^
    4330:	9c900000 	ldcls	0, cr0, [r0], {0}
    4334:	90030000 	andls	r0, r3, r0
    4338:	0400009c 	streq	r0, [r0], #-156	; 0xffffff64
    433c:	01000000 	mrseq	r0, (UNDEF: 0)
    4340:	033e0568 	teqeq	lr, #104, 10	; 0x1a000000
    4344:	8b1a0000 	blhi	68434c <__bss_end__+0x6794a4>
    4348:	20000008 	andcs	r0, r0, r8
    434c:	1e00001c 	mcrne	0, 0, r0, cr0, cr12, {0}
    4350:	1a00001c 	bne	43c8 <__code_start__-0x3c38>
    4354:	00000881 	andeq	r0, r0, r1, lsl #17
    4358:	00001c35 	andeq	r1, r0, r5, lsr ip
    435c:	00001c33 	andeq	r1, r0, r3, lsr ip
    4360:	9ca80f00 	stcls	15, cr0, [r8]
    4364:	04410000 	strbeq	r0, [r1], #-0
    4368:	03530000 	cmpeq	r3, #0, 0
    436c:	01100000 	tsteq	r0, r0
    4370:	01f30350 	mvnseq	r0, r0, asr r3
    4374:	cc0f0050 	stcgt	0, cr0, [pc], {80}	; 0x50
    4378:	bc00009c 	stclt	0, cr0, [r0], {156}	; 0x9c
    437c:	8c000008 	stchi	0, cr0, [r0], {8}
    4380:	10000003 	andne	r0, r0, r3
    4384:	03055001 	movweq	r5, #20481	; 0x5001
    4388:	0000a11c 	andeq	sl, r0, ip, lsl r1
    438c:	05510110 	ldrbeq	r0, [r1, #-272]	; 0xfffffef0
    4390:	00a86403 	adceq	r6, r8, r3, lsl #8
    4394:	52011000 	andpl	r1, r1, #0, 0
    4398:	aa3c0305 	bge	f04fb4 <__bss_end__+0xefa10c>
    439c:	01100000 	tsteq	r0, r0
    43a0:	5f080253 	svcpl	0x00080253
    43a4:	007d0210 	rsbseq	r0, sp, r0, lsl r2
    43a8:	a8740305 	ldmdage	r4!, {r0, r2, r8, r9}^
    43ac:	11000000 	mrsne	r0, (UNDEF: 0)
    43b0:	00009cd0 	ldrdeq	r9, [r0], -r0
    43b4:	000008c8 	andeq	r0, r0, r8, asr #17
    43b8:	009cd411 	addseq	sp, ip, r1, lsl r4
    43bc:	0008d400 	andeq	sp, r8, r0, lsl #8
    43c0:	9cf00f00 	ldclls	15, cr0, [r0]
    43c4:	08bc0000 	ldmeq	ip!, {}	; <UNPREDICTABLE>
    43c8:	03d70000 	bicseq	r0, r7, #0, 0
    43cc:	01100000 	tsteq	r0, r0
    43d0:	30030550 	andcc	r0, r3, r0, asr r5
    43d4:	100000a9 	andne	r0, r0, r9, lsr #1
    43d8:	03055101 	movweq	r5, #20737	; 0x5101
    43dc:	0000a864 	andeq	sl, r0, r4, ror #16
    43e0:	05520110 	ldrbeq	r0, [r2, #-272]	; 0xfffffef0
    43e4:	00aa3c03 	adceq	r3, sl, r3, lsl #24
    43e8:	53011000 	movwpl	r1, #4096	; 0x1000
    43ec:	10600802 	rsbne	r0, r0, r2, lsl #16
    43f0:	05007d02 	streq	r7, [r0, #-3330]	; 0xfffff2fe
    43f4:	00a96403 	adceq	r6, r9, r3, lsl #8
    43f8:	f4110000 			; <UNDEFINED> instruction: 0xf4110000
    43fc:	c800009c 	stmdagt	r0, {r2, r3, r4, r7}
    4400:	11000008 	tstne	r0, r8
    4404:	00009d18 	andeq	r9, r0, r8, lsl sp
    4408:	000008d4 	ldrdeq	r0, [r0], -r4
    440c:	009d340f 	addseq	r3, sp, pc, lsl #8
    4410:	0008bc00 	andeq	fp, r8, r0, lsl #24
    4414:	00042200 	andeq	r2, r4, r0, lsl #4
    4418:	50011000 	andpl	r1, r1, r0
    441c:	a9840305 	stmibge	r4, {r0, r2, r8, r9}
    4420:	01100000 	tsteq	r0, r0
    4424:	64030551 	strvs	r0, [r3], #-1361	; 0xfffffaaf
    4428:	100000a8 	andne	r0, r0, r8, lsr #1
    442c:	03055201 	movweq	r5, #20993	; 0x5201
    4430:	0000aa3c 	andeq	sl, r0, ip, lsr sl
    4434:	02530110 	subseq	r0, r3, #4
    4438:	02106808 	andseq	r6, r0, #8, 16	; 0x80000
    443c:	0305007d 	movweq	r0, #20605	; 0x507d
    4440:	0000a9b0 			; <UNDEFINED> instruction: 0x0000a9b0
    4444:	9d381100 	ldflss	f1, [r8, #-0]
    4448:	08c80000 	stmiaeq	r8, {}^	; <UNPREDICTABLE>
    444c:	12000000 	andne	r0, r0, #0, 0
    4450:	0000007e 	andeq	r0, r0, lr, ror r0
    4454:	0000043c 	andeq	r0, r0, ip, lsr r4
    4458:	00002c13 	andeq	r2, r0, r3, lsl ip
    445c:	05000f00 	streq	r0, [r0, #-3840]	; 0xfffff100
    4460:	0000042c 	andeq	r0, r0, ip, lsr #8
    4464:	0004f716 	andeq	pc, r4, r6, lsl r7	; <UNPREDICTABLE>
    4468:	07530100 	ldrbeq	r0, [r3, -r0, lsl #2]
    446c:	0000008a 	andeq	r0, r0, sl, lsl #1
    4470:	00009be8 	andeq	r9, r0, r8, ror #23
    4474:	00000064 	andeq	r0, r0, r4, rrx
    4478:	05089c01 	streq	r9, [r8, #-3073]	; 0xfffff3ff
    447c:	c5170000 	ldrgt	r0, [r7, #-0]
    4480:	01000003 	tsteq	r0, r3
    4484:	002c1853 	eoreq	r1, ip, r3, asr r8
    4488:	1c500000 	mrane	r0, r0, acc0
    448c:	1c480000 	marne	acc0, r0, r8
    4490:	9e0e0000 	cdpls	0, 0, cr0, cr14, cr0, {0}
    4494:	18000000 	stmdane	r0, {}	; <UNPREDICTABLE>
    4498:	05000005 	streq	r0, [r0, #-5]
    449c:	00aa3403 	adceq	r3, sl, r3, lsl #8
    44a0:	0bae1d00 	bleq	feb8b8a8 <__bss_end__+0xfeb80a00>
    44a4:	55010000 	strpl	r0, [r1, #-0]
    44a8:	00008a0b 	andeq	r8, r0, fp, lsl #20
    44ac:	001c8800 	andseq	r8, ip, r0, lsl #16
    44b0:	001c8400 	andseq	r8, ip, r0, lsl #8
    44b4:	9c000f00 	stcls	15, cr0, [r0], {-0}
    44b8:	051d0000 	ldreq	r0, [sp, #-0]
    44bc:	04a60000 	strteq	r0, [r6], #0
    44c0:	01100000 	tsteq	r0, r0
    44c4:	00740250 	rsbseq	r0, r4, r0, asr r2
    44c8:	9c100f00 	ldcls	15, cr0, [r0], {-0}
    44cc:	08e00000 	stmiaeq	r0!, {}^	; <UNPREDICTABLE>
    44d0:	04c50000 	strbeq	r0, [r5], #0
    44d4:	01100000 	tsteq	r0, r0
    44d8:	00750250 	rsbseq	r0, r5, r0, asr r2
    44dc:	01510110 	cmpeq	r1, r0, lsl r1
    44e0:	52011030 	andpl	r1, r1, #48, 0	; 0x30
    44e4:	00007402 	andeq	r7, r0, r2, lsl #8
    44e8:	009c380f 	addseq	r3, ip, pc, lsl #16
    44ec:	0008bc00 	andeq	fp, r8, r0, lsl #24
    44f0:	0004fe00 	andeq	pc, r4, r0, lsl #28
    44f4:	50011000 	andpl	r1, r1, r0
    44f8:	a11c0305 	tstge	ip, r5, lsl #6
    44fc:	01100000 	tsteq	r0, r0
    4500:	64030551 	strvs	r0, [r3], #-1361	; 0xfffffaaf
    4504:	100000a8 	andne	r0, r0, r8, lsr #1
    4508:	03055201 	movweq	r5, #20993	; 0x5201
    450c:	0000aa34 	andeq	sl, r0, r4, lsr sl
    4510:	02530110 	subseq	r0, r3, #4
    4514:	02105408 	andseq	r5, r0, #8, 8	; 0x8000000
    4518:	0305007d 	movweq	r0, #20605	; 0x507d
    451c:	0000a874 	andeq	sl, r0, r4, ror r8
    4520:	9c3c1100 	ldflss	f1, [ip], #-0
    4524:	08c80000 	stmiaeq	r8, {}^	; <UNPREDICTABLE>
    4528:	12000000 	andne	r0, r0, #0, 0
    452c:	0000007e 	andeq	r0, r0, lr, ror r0
    4530:	00000518 	andeq	r0, r0, r8, lsl r5
    4534:	00002c13 	andeq	r2, r0, r3, lsl ip
    4538:	05000700 	streq	r0, [r0, #-1792]	; 0xfffff900
    453c:	00000508 	andeq	r0, r0, r8, lsl #10
    4540:	000c0116 	andeq	r0, ip, r6, lsl r1
    4544:	07470100 	strbeq	r0, [r7, -r0, lsl #2]
    4548:	0000008a 	andeq	r0, r0, sl, lsl #1
    454c:	00009b50 	andeq	r9, r0, r0, asr fp
    4550:	00000098 	muleq	r0, r8, r0
    4554:	062b9c01 	strteq	r9, [fp], -r1, lsl #24
    4558:	c5170000 	ldrgt	r0, [r7, #-0]
    455c:	01000003 	tsteq	r0, r3
    4560:	002c2047 	eoreq	r2, ip, r7, asr #32
    4564:	1cb60000 	ldcne	0, cr0, [r6]
    4568:	1ca60000 	stcne	0, cr0, [r6]
    456c:	9e0e0000 	cdpls	0, 0, cr0, cr14, cr0, {0}
    4570:	3c000000 	stccc	0, cr0, [r0], {-0}
    4574:	05000004 	streq	r0, [r0, #-4]
    4578:	00aa2403 	adceq	r2, sl, r3, lsl #8
    457c:	0bae1d00 	bleq	feb8b984 <__bss_end__+0xfeb80adc>
    4580:	4b010000 	blmi	44588 <__bss_end__+0x396e0>
    4584:	00008a0b 	andeq	r8, r0, fp, lsl #20
    4588:	001d2a00 	andseq	r2, sp, r0, lsl #20
    458c:	001d2400 	andseq	r2, sp, r0, lsl #8
    4590:	081f1b00 	ldmdaeq	pc, {r8, r9, fp, ip}	; <UNPREDICTABLE>
    4594:	9b600000 	blls	180459c <__bss_end__+0x17f96f4>
    4598:	a8030000 	stmdage	r3, {}	; <UNPREDICTABLE>
    459c:	01000000 	mrseq	r0, (UNDEF: 0)
    45a0:	05a30e49 	streq	r0, [r3, #3657]!	; 0xe49
    45a4:	3a1a0000 	bcc	6845ac <__bss_end__+0x679704>
    45a8:	59000008 	stmdbpl	r0, {r3}
    45ac:	5700001d 	smladpl	r0, sp, r0, r0
    45b0:	1a00001d 	bne	462c <__code_start__-0x39d4>
    45b4:	00000830 	andeq	r0, r0, r0, lsr r8
    45b8:	00001d71 	andeq	r1, r0, r1, ror sp
    45bc:	00001d6d 	andeq	r1, r0, sp, ror #26
    45c0:	0000a81e 	andeq	sl, r0, lr, lsl r8
    45c4:	a80f0000 	stmdage	pc, {}	; <UNPREDICTABLE>
    45c8:	bc00009b 	stclt	0, cr0, [r0], {155}	; 0x9b
    45cc:	dc000008 	stcle	0, cr0, [r0], {8}
    45d0:	10000005 	andne	r0, r0, r5
    45d4:	03055001 	movweq	r5, #20481	; 0x5001
    45d8:	0000a11c 	andeq	sl, r0, ip, lsl r1
    45dc:	05510110 	ldrbeq	r0, [r1, #-272]	; 0xfffffef0
    45e0:	00a86403 	adceq	r6, r8, r3, lsl #8
    45e4:	52011000 	andpl	r1, r1, #0, 0
    45e8:	aa240305 	bge	905204 <__bss_end__+0x8fa35c>
    45ec:	01100000 	tsteq	r0, r0
    45f0:	48080253 	stmdami	r8, {r0, r1, r4, r6, r9}
    45f4:	007d0210 	rsbseq	r0, sp, r0, lsl r2
    45f8:	a8740305 	ldmdage	r4!, {r0, r2, r8, r9}^
    45fc:	11000000 	mrsne	r0, (UNDEF: 0)
    4600:	00009bac 	andeq	r9, r0, ip, lsr #23
    4604:	000008c8 	andeq	r0, r0, r8, asr #17
    4608:	009bcc0f 	addseq	ip, fp, pc, lsl #24
    460c:	0008bc00 	andeq	fp, r8, r0, lsl #24
    4610:	00062100 	andeq	r2, r6, r0, lsl #2
    4614:	50011000 	andpl	r1, r1, r0
    4618:	a8f00305 	ldmge	r0!, {r0, r2, r8, r9}^
    461c:	01100000 	tsteq	r0, r0
    4620:	64030551 	strvs	r0, [r3], #-1361	; 0xfffffaaf
    4624:	100000a8 	andne	r0, r0, r8, lsr #1
    4628:	03055201 	movweq	r5, #20993	; 0x5201
    462c:	0000aa24 	andeq	sl, r0, r4, lsr #20
    4630:	02530110 	subseq	r0, r3, #4
    4634:	02104e08 	andseq	r4, r0, #8, 28	; 0x80
    4638:	f308007d 	vqadd.u8	q0, q4, <illegal reg q14.5>
    463c:	07235001 	streq	r5, [r3, -r1]!
    4640:	001af809 	andseq	pc, sl, r9, lsl #16
    4644:	009bd011 	addseq	sp, fp, r1, lsl r0
    4648:	0008c800 	andeq	ip, r8, r0, lsl #16
    464c:	230c0000 	movwcs	r0, #49152	; 0xc000
    4650:	0100000c 	tsteq	r0, ip
    4654:	9af8063c 	bls	ffe05f4c <__bss_end__+0xffdfb0a4>
    4658:	00580000 	subseq	r0, r8, r0
    465c:	9c010000 	stcls	0, cr0, [r1], {-0}
    4660:	000006cf 	andeq	r0, r0, pc, asr #13
    4664:	00043f0a 	andeq	r3, r4, sl, lsl #30
    4668:	103d0100 	eorsne	r0, sp, r0, lsl #2
    466c:	00000025 	andeq	r0, r0, r5, lsr #32
    4670:	aea00305 	cdpge	3, 10, cr0, cr0, cr5, {0}
    4674:	9e0e0000 	cdpls	0, 0, cr0, cr14, cr0, {0}
    4678:	df000000 	svcle	0x00000000
    467c:	05000006 	streq	r0, [r0, #-6]
    4680:	00aa1403 	adceq	r1, sl, r3, lsl #8
    4684:	04070700 	streq	r0, [r7], #-1792	; 0xfffff900
    4688:	0000002c 	andeq	r0, r0, ip, lsr #32
    468c:	7a0a4201 	bvc	294e98 <__bss_end__+0x289ff0>
    4690:	08000006 	stmdaeq	r0, {r1, r2}
    4694:	00000bea 	andeq	r0, r0, sl, ror #23
    4698:	00100000 	andseq	r0, r0, r0
    469c:	9b240f00 	blls	9082a4 <__bss_end__+0x8fd3fc>
    46a0:	06e40000 	strbteq	r0, [r4], r0
    46a4:	06960000 	ldreq	r0, [r6], r0
    46a8:	01100000 	tsteq	r0, r0
    46ac:	40400350 	submi	r0, r0, r0, asr r3
    46b0:	51011024 	tstpl	r1, r4, lsr #32
    46b4:	24484003 	strbcs	r4, [r8], #-3
    46b8:	9b3c0f00 	blls	f082c0 <__bss_end__+0xefd418>
    46bc:	08bc0000 	ldmeq	ip!, {}	; <UNPREDICTABLE>
    46c0:	06c50000 	strbeq	r0, [r5], r0
    46c4:	01100000 	tsteq	r0, r0
    46c8:	c0030550 	andgt	r0, r3, r0, asr r5
    46cc:	100000a8 	andne	r0, r0, r8, lsr #1
    46d0:	03055101 	movweq	r5, #20737	; 0x5101
    46d4:	0000a864 	andeq	sl, r0, r4, ror #16
    46d8:	05520110 	ldrbeq	r0, [r2, #-272]	; 0xfffffef0
    46dc:	00aa1403 	adceq	r1, sl, r3, lsl #8
    46e0:	53011000 	movwpl	r1, #4096	; 0x1000
    46e4:	00400802 	subeq	r0, r0, r2, lsl #16
    46e8:	009b4011 	addseq	r4, fp, r1, lsl r0
    46ec:	0008c800 	andeq	ip, r8, r0, lsl #16
    46f0:	7e120000 	cdpvc	0, 1, cr0, cr2, cr0, {0}
    46f4:	df000000 	svcle	0x00000000
    46f8:	13000006 	movwne	r0, #6
    46fc:	0000002c 	andeq	r0, r0, ip, lsr #32
    4700:	cf05000c 	svcgt	0x0005000c
    4704:	0c000006 	stceq	0, cr0, [r0], {6}
    4708:	000004ff 	strdeq	r0, [r0], -pc	; <UNPREDICTABLE>
    470c:	5c062d01 	stcpl	13, cr2, [r6], {1}
    4710:	9c00009a 	stcls	0, cr0, [r0], {154}	; 0x9a
    4714:	01000000 	mrseq	r0, (UNDEF: 0)
    4718:	0007c89c 	muleq	r7, ip, r8
    471c:	0bad1700 	bleq	feb4a324 <__bss_end__+0xfeb3f47c>
    4720:	2d010000 	stccs	0, cr0, [r1, #-0]
    4724:	00002c26 	andeq	r2, r0, r6, lsr #24
    4728:	001d9f00 	andseq	r9, sp, r0, lsl #30
    472c:	001d9100 	andseq	r9, sp, r0, lsl #2
    4730:	0ba21700 	bleq	fe88a338 <__bss_end__+0xfe87f490>
    4734:	2d010000 	stccs	0, cr0, [r1, #-0]
    4738:	00002c36 	andeq	r2, r0, r6, lsr ip
    473c:	001e0700 	andseq	r0, lr, r0, lsl #14
    4740:	001dff00 	andseq	pc, sp, r0, lsl #30
    4744:	0bae1d00 	bleq	feb8bb4c <__bss_end__+0xfeb80ca4>
    4748:	2e010000 	cdpcs	0, 0, cr0, cr1, cr0, {0}
    474c:	0000c20b 	andeq	ip, r0, fp, lsl #4
    4750:	001e4f00 	andseq	r4, lr, r0, lsl #30
    4754:	001e4100 	andseq	r4, lr, r0, lsl #2
    4758:	009e0e00 	addseq	r0, lr, r0, lsl #28
    475c:	07d80000 	ldrbeq	r0, [r8, r0]
    4760:	03050000 	movweq	r0, #20480	; 0x5000
    4764:	0000a9fc 	strdeq	sl, [r0], -ip
    4768:	009ab40f 	addseq	fp, sl, pc, lsl #8
    476c:	0008bc00 	andeq	fp, r8, r0, lsl #24
    4770:	00077e00 	andeq	r7, r7, r0, lsl #28
    4774:	50011000 	andpl	r1, r1, r0
    4778:	a11c0305 	tstge	ip, r5, lsl #6
    477c:	01100000 	tsteq	r0, r0
    4780:	64030551 	strvs	r0, [r3], #-1361	; 0xfffffaaf
    4784:	100000a8 	andne	r0, r0, r8, lsr #1
    4788:	03055201 	movweq	r5, #20993	; 0x5201
    478c:	0000a9fc 	strdeq	sl, [r0], -ip
    4790:	02530110 	subseq	r0, r3, #4
    4794:	02103008 	andseq	r3, r0, #8, 0
    4798:	0305007d 	movweq	r0, #20605	; 0x507d
    479c:	0000a870 	andeq	sl, r0, r0, ror r8
    47a0:	9ab81100 	bls	fee08ba8 <__bss_end__+0xfedfdd00>
    47a4:	08c80000 	stmiaeq	r8, {}^	; <UNPREDICTABLE>
    47a8:	dc0f0000 	stcle	0, cr0, [pc], {-0}
    47ac:	bc00009a 	stclt	0, cr0, [r0], {154}	; 0x9a
    47b0:	be000008 	cdplt	0, 0, cr0, cr0, cr8, {0}
    47b4:	10000007 	andne	r0, r0, r7
    47b8:	03055001 	movweq	r5, #20481	; 0x5001
    47bc:	0000a87c 	andeq	sl, r0, ip, ror r8
    47c0:	05510110 	ldrbeq	r0, [r1, #-272]	; 0xfffffef0
    47c4:	00a86403 	adceq	r6, r8, r3, lsl #8
    47c8:	52011000 	andpl	r1, r1, #0, 0
    47cc:	a9fc0305 	ldmibge	ip!, {r0, r2, r8, r9}^
    47d0:	01100000 	tsteq	r0, r0
    47d4:	34080253 	strcc	r0, [r8], #-595	; 0xfffffdad
    47d8:	007d0210 	rsbseq	r0, sp, r0, lsl r2
    47dc:	5001f303 	andpl	pc, r1, r3, lsl #6
    47e0:	9ae01100 	bls	ff808be8 <__bss_end__+0xff7fdd40>
    47e4:	08c80000 	stmiaeq	r8, {}^	; <UNPREDICTABLE>
    47e8:	12000000 	andne	r0, r0, #0, 0
    47ec:	0000007e 	andeq	r0, r0, lr, ror r0
    47f0:	000007d8 	ldrdeq	r0, [r0], -r8
    47f4:	00002c13 	andeq	r2, r0, r3, lsl ip
    47f8:	05001600 	streq	r1, [r0, #-1536]	; 0xfffffa00
    47fc:	000007c8 	andeq	r0, r0, r8, asr #15
    4800:	000c3b1f 	andeq	r3, ip, pc, lsl fp
    4804:	072a0100 	streq	r0, [sl, -r0, lsl #2]!
    4808:	0000008a 	andeq	r0, r0, sl, lsl #1
    480c:	00009a4c 	andeq	r9, r0, ip, asr #20
    4810:	00000010 	andeq	r0, r0, r0, lsl r0
    4814:	8f1f9c01 	svchi	0x001f9c01
    4818:	0100000b 	tsteq	r0, fp
    481c:	008a0729 	addeq	r0, sl, r9, lsr #14
    4820:	9a3c0000 	bls	f04828 <__bss_end__+0xef9980>
    4824:	00100000 	andseq	r0, r0, r0
    4828:	9c010000 	stcls	0, cr0, [r1], {-0}
    482c:	000bf01f 	andeq	pc, fp, pc, lsl r0	; <UNPREDICTABLE>
    4830:	07280100 	streq	r0, [r8, -r0, lsl #2]!
    4834:	0000008a 	andeq	r0, r0, sl, lsl #1
    4838:	00009a2c 	andeq	r9, r0, ip, lsr #20
    483c:	00000010 	andeq	r0, r0, r0, lsl r0
    4840:	c6209c01 	strtgt	r9, [r0], -r1, lsl #24
    4844:	0100000b 	tsteq	r0, fp
    4848:	002c1810 	eoreq	r1, ip, r0, lsl r8
    484c:	54030000 	strpl	r0, [r3], #-0
    4850:	21000008 	tstcs	r0, r8
    4854:	10010078 	andne	r0, r1, r8, ror r0
    4858:	00002c29 	andeq	r2, r0, r9, lsr #24
    485c:	006e2100 	rsbeq	r2, lr, r0, lsl #2
    4860:	2c351001 	ldccs	0, cr1, [r5], #-4
    4864:	0e000000 	cdpeq	0, 0, cr0, cr0, cr0, {0}
    4868:	0000009e 	muleq	r0, lr, r0
    486c:	00000518 	andeq	r0, r0, r8, lsl r5
    4870:	aa4c0305 	bge	130548c <__bss_end__+0x12fa5e4>
    4874:	20000000 	andcs	r0, r0, r0
    4878:	00000c11 	andeq	r0, r0, r1, lsl ip
    487c:	2c180d01 	ldccs	13, cr0, [r8], {1}
    4880:	03000000 	movweq	r0, #0
    4884:	00000870 	andeq	r0, r0, r0, ror r8
    4888:	01007821 	tsteq	r0, r1, lsr #16
    488c:	002c290d 	eoreq	r2, ip, sp, lsl #18
    4890:	20000000 	andcs	r0, r0, r0
    4894:	00000c30 	andeq	r0, r0, r0, lsr ip
    4898:	2c180701 	ldccs	7, cr0, [r8], {1}
    489c:	03000000 	movweq	r0, #0
    48a0:	00000896 	muleq	r0, r6, r8
    48a4:	01007821 	tsteq	r0, r1, lsr #16
    48a8:	002c2c07 	eoreq	r2, ip, r7, lsl #24
    48ac:	6e210000 	cdpvs	0, 2, cr0, cr1, cr0, {0}
    48b0:	38070100 	stmdacc	r7, {r8}
    48b4:	0000002c 	andeq	r0, r0, ip, lsr #32
    48b8:	0be22000 	bleq	ff88c8c0 <__bss_end__+0xff881a18>
    48bc:	04010000 	streq	r0, [r1], #-0
    48c0:	00005d18 	andeq	r5, r0, r8, lsl sp
    48c4:	08bc0300 	ldmeq	ip!, {r8, r9}
    48c8:	78210000 	stmdavc	r1!, {}	; <UNPREDICTABLE>
    48cc:	29040100 	stmdbcs	r4, {r8}
    48d0:	0000005d 	andeq	r0, r0, sp, asr r0
    48d4:	01007921 	tsteq	r0, r1, lsr #18
    48d8:	005d3504 	subseq	r3, sp, r4, lsl #10
    48dc:	22000000 	andcs	r0, r0, #0, 0
    48e0:	000006f1 	strdeq	r0, [r0], -r1
    48e4:	000006f1 	strdeq	r0, [r0], -r1
    48e8:	22062802 	andcs	r2, r6, #131072	; 0x20000
    48ec:	000000b5 	strheq	r0, [r0], -r5
    48f0:	000000b5 	strheq	r0, [r0], -r5
    48f4:	22066e02 	andcs	r6, r6, #2, 28
    48f8:	00000c4c 	andeq	r0, r0, ip, asr #24
    48fc:	00000c4c 	andeq	r0, r0, ip, asr #24
    4900:	22061d02 	andcs	r1, r6, #128	; 0x80
    4904:	00000318 	andeq	r0, r0, r8, lsl r3
    4908:	00000318 	andeq	r0, r0, r8, lsl r3
    490c:	0007f702 	andeq	pc, r7, r2, lsl #14
    4910:	00000149 	andeq	r0, r0, r9, asr #2
    4914:	17ed0004 	strbne	r0, [sp, r4]!
    4918:	01040000 	mrseq	r0, (UNDEF: 4)
    491c:	000005a0 	andeq	r0, r0, r0, lsr #11
    4920:	000c890c 	andeq	r8, ip, ip, lsl #18
    4924:	00067100 	andeq	r7, r6, r0, lsl #2
    4928:	009ddc00 	addseq	sp, sp, r0, lsl #24
    492c:	00003c00 	andeq	r3, r0, r0, lsl #24
    4930:	00253c00 	eoreq	r3, r5, r0, lsl #24
    4934:	05040200 	streq	r0, [r4, #-512]	; 0xfffffe00
    4938:	00746e69 	rsbseq	r6, r4, r9, ror #28
    493c:	fe070403 	cdp2	4, 0, cr0, cr7, cr3, {0}
    4940:	03000000 	movweq	r0, #0
    4944:	00d60601 	sbcseq	r0, r6, r1, lsl #12
    4948:	02030000 	andeq	r0, r3, #0, 0
    494c:	00002a05 	andeq	r2, r0, r5, lsl #20
    4950:	05040300 	streq	r0, [r4, #-768]	; 0xfffffd00
    4954:	0000006b 	andeq	r0, r0, fp, rrx
    4958:	66050803 	strvs	r0, [r5], -r3, lsl #16
    495c:	03000000 	movweq	r0, #0
    4960:	00d40801 	sbcseq	r0, r4, r1, lsl #16
    4964:	02030000 	andeq	r0, r3, #0, 0
    4968:	00012507 	andeq	r2, r1, r7, lsl #10
    496c:	07040300 	streq	r0, [r4, -r0, lsl #6]
    4970:	000000f9 	strdeq	r0, [r0], -r9
    4974:	f4070803 	vst2.8	{d0-d1}, [r7], r3
    4978:	04000000 	streq	r0, [r0], #-0
    497c:	00000025 	andeq	r0, r0, r5, lsr #32
    4980:	0000007a 	andeq	r0, r0, sl, ror r0
    4984:	00002505 	andeq	r2, r0, r5, lsl #10
    4988:	34060000 	strcc	r0, [r6], #-0
    498c:	02000000 	andeq	r0, r0, #0, 0
    4990:	00860e1c 	addeq	r0, r6, ip, lsl lr
    4994:	04070000 	streq	r0, [r7], #-0
    4998:	0000006b 	andeq	r0, r0, fp, rrx
    499c:	00002504 	andeq	r2, r0, r4, lsl #10
    49a0:	00009b00 	andeq	r9, r0, r0, lsl #22
    49a4:	009b0500 	addseq	r0, fp, r0, lsl #10
    49a8:	07000000 	streq	r0, [r0, -r0]
    49ac:	0000a804 	andeq	sl, r0, r4, lsl #16
    49b0:	08010300 	stmdaeq	r1, {r8, r9}
    49b4:	000000dd 	ldrdeq	r0, [r0], -sp
    49b8:	0000a108 	andeq	sl, r0, r8, lsl #2
    49bc:	072f0600 	streq	r0, [pc, -r0, lsl #12]!
    49c0:	21020000 	mrscs	r0, (UNDEF: 2)
    49c4:	0000b90e 	andeq	fp, r0, lr, lsl #18
    49c8:	8c040700 	stchi	7, cr0, [r4], {-0}
    49cc:	09000000 	stmdbeq	r0, {}	; <UNPREDICTABLE>
    49d0:	0000007a 	andeq	r0, r0, sl, ror r0
    49d4:	05070601 	streq	r0, [r7, #-1537]	; 0xfffff9ff
    49d8:	00aa7403 	adceq	r7, sl, r3, lsl #8
    49dc:	0c7c0a00 			; <UNDEFINED> instruction: 0x0c7c0a00
    49e0:	0b010000 	bleq	449e8 <__bss_end__+0x39b40>
    49e4:	009e0806 	addseq	r0, lr, r6, lsl #16
    49e8:	00001000 	andeq	r1, r0, r0
    49ec:	f19c0100 			; <UNDEFINED> instruction: 0xf19c0100
    49f0:	0b000000 	bleq	49f8 <__code_start__-0x3608>
    49f4:	01007066 	tsteq	r0, r6, rrx
    49f8:	0086190b 	addeq	r1, r6, fp, lsl #18
    49fc:	50010000 	andpl	r0, r1, r0
    4a00:	0c4c0c00 	mcrreq	12, 0, r0, ip, cr0
    4a04:	08010000 	stmdaeq	r1, {}	; <UNPREDICTABLE>
    4a08:	009df006 	addseq	pc, sp, r6
    4a0c:	00001800 	andeq	r1, r0, r0, lsl #16
    4a10:	0d9c0100 	ldfeqs	f0, [ip]
    4a14:	00000c6b 	andeq	r0, r0, fp, ror #24
    4a18:	250c0301 	strcs	r0, [ip, #-769]	; 0xfffffcff
    4a1c:	dc000000 	stcle	0, cr0, [r0], {-0}
    4a20:	1400009d 	strne	r0, [r0], #-157	; 0xffffff63
    4a24:	01000000 	mrseq	r0, (UNDEF: 0)
    4a28:	0001409c 	muleq	r1, ip, r0
    4a2c:	00630e00 	rsbeq	r0, r3, r0, lsl #28
    4a30:	25210301 	strcs	r0, [r1, #-769]!	; 0xfffffcff
    4a34:	b3000000 	movwlt	r0, #0
    4a38:	af00001e 	svcge	0x0000001e
    4a3c:	0f00001e 	svceq	0x0000001e
    4a40:	00009de8 	andeq	r9, r0, r8, ror #27
    4a44:	00000140 	andeq	r0, r0, r0, asr #2
    4a48:	02500110 	subseq	r0, r0, #4
    4a4c:	00000074 	andeq	r0, r0, r4, ror r0
    4a50:	000b5d11 	andeq	r5, fp, r1, lsl sp
    4a54:	000b5d00 	andeq	r5, fp, r0, lsl #26
    4a58:	06420200 	strbeq	r0, [r2], -r0, lsl #4
    4a5c:	00013700 	andeq	r3, r1, r0, lsl #14
    4a60:	fc000400 	stc2	4, cr0, [r0], {-0}
    4a64:	04000018 	streq	r0, [r0], #-24	; 0xffffffe8
    4a68:	0005a001 	andeq	sl, r5, r1
    4a6c:	0c9f0c00 	ldceq	12, cr0, [pc], {0}
    4a70:	06710000 	ldrbteq	r0, [r1], -r0
    4a74:	9e180000 	cdpls	0, 1, cr0, cr8, cr0, {0}
    4a78:	00340000 	eorseq	r0, r4, r0
    4a7c:	25fe0000 	ldrbcs	r0, [lr, #0]!
    4a80:	04020000 	streq	r0, [r2], #-0
    4a84:	746e6905 	strbtvc	r6, [lr], #-2309	; 0xfffff6fb
    4a88:	07040300 	streq	r0, [r4, -r0, lsl #6]
    4a8c:	000000fe 	strdeq	r0, [r0], -lr
    4a90:	d6060103 	strle	r0, [r6], -r3, lsl #2
    4a94:	03000000 	movweq	r0, #0
    4a98:	002a0502 	eoreq	r0, sl, r2, lsl #10
    4a9c:	04030000 	streq	r0, [r3], #-0
    4aa0:	00006b05 	andeq	r6, r0, r5, lsl #22
    4aa4:	05080300 	streq	r0, [r8, #-768]	; 0xfffffd00
    4aa8:	00000066 	andeq	r0, r0, r6, rrx
    4aac:	d4080103 	strle	r0, [r8], #-259	; 0xfffffefd
    4ab0:	03000000 	movweq	r0, #0
    4ab4:	01250702 			; <UNDEFINED> instruction: 0x01250702
    4ab8:	04030000 	streq	r0, [r3], #-0
    4abc:	0000f907 	andeq	pc, r0, r7, lsl #18
    4ac0:	07080300 	streq	r0, [r8, -r0, lsl #6]
    4ac4:	000000f4 	strdeq	r0, [r0], -r4
    4ac8:	00002504 	andeq	r2, r0, r4, lsl #10
    4acc:	00007a00 	andeq	r7, r0, r0, lsl #20
    4ad0:	00250500 	eoreq	r0, r5, r0, lsl #10
    4ad4:	06000000 	streq	r0, [r0], -r0
    4ad8:	00000034 	andeq	r0, r0, r4, lsr r0
    4adc:	860e1c02 	strhi	r1, [lr], -r2, lsl #24
    4ae0:	07000000 	streq	r0, [r0, -r0]
    4ae4:	00006b04 	andeq	r6, r0, r4, lsl #22
    4ae8:	00250400 	eoreq	r0, r5, r0, lsl #8
    4aec:	009b0000 	addseq	r0, fp, r0
    4af0:	9b050000 	blls	144af8 <__bss_end__+0x139c50>
    4af4:	00000000 	andeq	r0, r0, r0
    4af8:	00a80407 	adceq	r0, r8, r7, lsl #8
    4afc:	01030000 	mrseq	r0, (UNDEF: 3)
    4b00:	0000dd08 	andeq	sp, r0, r8, lsl #26
    4b04:	00a10800 	adceq	r0, r1, r0, lsl #16
    4b08:	2f060000 	svccs	0x00060000
    4b0c:	02000007 	andeq	r0, r0, #7, 0
    4b10:	00b90e21 	adcseq	r0, r9, r1, lsr #28
    4b14:	04070000 	streq	r0, [r7], #-0
    4b18:	0000008c 	andeq	r0, r0, ip, lsl #1
    4b1c:	0007da09 	andeq	sp, r7, r9, lsl #20
    4b20:	07040100 	streq	r0, [r4, -r0, lsl #2]
    4b24:	00000134 	andeq	r0, r0, r4, lsr r1
    4b28:	00009e18 	andeq	r9, r0, r8, lsl lr
    4b2c:	00000034 	andeq	r0, r0, r4, lsr r0
    4b30:	01349c01 	teqeq	r4, r1, lsl #24
    4b34:	9a0a0000 	bls	284b3c <__bss_end__+0x279c94>
    4b38:	0100000c 	tsteq	r0, ip
    4b3c:	01341504 	teqeq	r4, r4, lsl #10
    4b40:	50010000 	andpl	r0, r1, r0
    4b44:	6372730b 	cmnvs	r2, #738197504	; 0x2c000000
    4b48:	27040100 	strcs	r0, [r4, -r0, lsl #2]
    4b4c:	0000009b 	muleq	r0, fp, r0
    4b50:	00001ed5 	ldrdeq	r1, [r0], -r5
    4b54:	00001ed1 	ldrdeq	r1, [r0], -r1	; <UNPREDICTABLE>
    4b58:	0031730c 	eorseq	r7, r1, ip, lsl #6
    4b5c:	340b0501 	strcc	r0, [fp], #-1281	; 0xfffffaff
    4b60:	00000001 	andeq	r0, r0, r1
    4b64:	f600001f 			; <UNDEFINED> instruction: 0xf600001f
    4b68:	0c00001e 	stceq	0, cr0, [r0], {30}
    4b6c:	01003273 	tsteq	r0, r3, ror r2
    4b70:	009b1106 	addseq	r1, fp, r6, lsl #2
    4b74:	1f450000 	svcne	0x00450000
    4b78:	1f410000 	svcne	0x00410000
    4b7c:	630c0000 	movwvs	r0, #49152	; 0xc000
    4b80:	0a070100 	beq	1c4f88 <__bss_end__+0x1ba0e0>
    4b84:	000000a1 	andeq	r0, r0, r1, lsr #1
    4b88:	00001f69 	andeq	r1, r0, r9, ror #30
    4b8c:	00001f65 	andeq	r1, r0, r5, ror #30
    4b90:	a1040700 	tstge	r4, r0, lsl #14
    4b94:	00000000 	andeq	r0, r0, r0
    4b98:	000000f7 	strdeq	r0, [r0], -r7
    4b9c:	19b20004 	ldmibne	r2!, {r2}
    4ba0:	01040000 	mrseq	r0, (UNDEF: 4)
    4ba4:	000005a0 	andeq	r0, r0, r0, lsr #11
    4ba8:	000caf0c 	andeq	sl, ip, ip, lsl #30
    4bac:	00067100 	andeq	r7, r6, r0, lsl #2
    4bb0:	009e4c00 	addseq	r4, lr, r0, lsl #24
    4bb4:	00002c00 	andeq	r2, r0, r0, lsl #24
    4bb8:	00270c00 	eoreq	r0, r7, r0, lsl #24
    4bbc:	05040200 	streq	r0, [r4, #-512]	; 0xfffffe00
    4bc0:	00746e69 	rsbseq	r6, r4, r9, ror #28
    4bc4:	fe070403 	cdp2	4, 0, cr0, cr7, cr3, {0}
    4bc8:	03000000 	movweq	r0, #0
    4bcc:	00d60601 	sbcseq	r0, r6, r1, lsl #12
    4bd0:	02030000 	andeq	r0, r3, #0, 0
    4bd4:	00002a05 	andeq	r2, r0, r5, lsl #20
    4bd8:	05040300 	streq	r0, [r4, #-768]	; 0xfffffd00
    4bdc:	0000006b 	andeq	r0, r0, fp, rrx
    4be0:	66050803 	strvs	r0, [r5], -r3, lsl #16
    4be4:	03000000 	movweq	r0, #0
    4be8:	00d40801 	sbcseq	r0, r4, r1, lsl #16
    4bec:	02030000 	andeq	r0, r3, #0, 0
    4bf0:	00012507 	andeq	r2, r1, r7, lsl #10
    4bf4:	07040300 	streq	r0, [r4, -r0, lsl #6]
    4bf8:	000000f9 	strdeq	r0, [r0], -r9
    4bfc:	f4070803 	vst2.8	{d0-d1}, [r7], r3
    4c00:	04000000 	streq	r0, [r0], #-0
    4c04:	00000025 	andeq	r0, r0, r5, lsr #32
    4c08:	0000007a 	andeq	r0, r0, sl, ror r0
    4c0c:	00002505 	andeq	r2, r0, r5, lsl #10
    4c10:	34060000 	strcc	r0, [r6], #-0
    4c14:	02000000 	andeq	r0, r0, #0, 0
    4c18:	00860e1c 	addeq	r0, r6, ip, lsl lr
    4c1c:	04070000 	streq	r0, [r7], #-0
    4c20:	0000006b 	andeq	r0, r0, fp, rrx
    4c24:	00002504 	andeq	r2, r0, r4, lsl #10
    4c28:	00009b00 	andeq	r9, r0, r0, lsl #22
    4c2c:	009b0500 	addseq	r0, fp, r0, lsl #10
    4c30:	07000000 	streq	r0, [r0, -r0]
    4c34:	0000a804 	andeq	sl, r0, r4, lsl #16
    4c38:	08010300 	stmdaeq	r1, {r8, r9}
    4c3c:	000000dd 	ldrdeq	r0, [r0], -sp
    4c40:	0000a108 	andeq	sl, r0, r8, lsl #2
    4c44:	072f0600 	streq	r0, [pc, -r0, lsl #12]!
    4c48:	21020000 	mrscs	r0, (UNDEF: 2)
    4c4c:	0000b90e 	andeq	fp, r0, lr, lsl #18
    4c50:	8c040700 	stchi	7, cr0, [r4], {-0}
    4c54:	09000000 	stmdbeq	r0, {}	; <UNPREDICTABLE>
    4c58:	000007e1 	andeq	r0, r0, r1, ror #15
    4c5c:	25050301 	strcs	r0, [r5, #-769]	; 0xfffffcff
    4c60:	4c000000 	stcmi	0, cr0, [r0], {-0}
    4c64:	2c00009e 	stccs	0, cr0, [r0], {158}	; 0x9e
    4c68:	01000000 	mrseq	r0, (UNDEF: 0)
    4c6c:	00610a9c 	mlseq	r1, ip, sl, r0
    4c70:	9b180301 	blls	60587c <__bss_end__+0x5fa9d4>
    4c74:	8b000000 	blhi	4c7c <__code_start__-0x3384>
    4c78:	8700001f 	smladhi	r0, pc, r0, r0	; <UNPREDICTABLE>
    4c7c:	0a00001f 	beq	4d00 <__code_start__-0x3300>
    4c80:	03010062 	movweq	r0, #4194	; 0x1062
    4c84:	00009b27 	andeq	r9, r0, r7, lsr #22
    4c88:	001fad00 	andseq	sl, pc, r0, lsl #26
    4c8c:	001fa900 	andseq	sl, pc, r0, lsl #18
    4c90:	0f000000 	svceq	0x00000000
    4c94:	04000001 	streq	r0, [r0], #-1
    4c98:	001a4100 	andseq	r4, sl, r0, lsl #2
    4c9c:	a0010400 	andge	r0, r1, r0, lsl #8
    4ca0:	0c000005 	stceq	0, cr0, [r0], {5}
    4ca4:	00000cbf 			; <UNDEFINED> instruction: 0x00000cbf
    4ca8:	00000671 	andeq	r0, r0, r1, ror r6
    4cac:	00009e78 	andeq	r9, r0, r8, ror lr
    4cb0:	00000020 	andeq	r0, r0, r0, lsr #32
    4cb4:	000027d3 	ldrdeq	r2, [r0], -r3
    4cb8:	69050402 	stmdbvs	r5, {r1, sl}
    4cbc:	0300746e 	movweq	r7, #1134	; 0x46e
    4cc0:	00fe0704 	rscseq	r0, lr, r4, lsl #14
    4cc4:	01030000 	mrseq	r0, (UNDEF: 3)
    4cc8:	0000d606 	andeq	sp, r0, r6, lsl #12
    4ccc:	05020300 	streq	r0, [r2, #-768]	; 0xfffffd00
    4cd0:	0000002a 	andeq	r0, r0, sl, lsr #32
    4cd4:	6b050403 	blvs	145ce8 <__bss_end__+0x13ae40>
    4cd8:	03000000 	movweq	r0, #0
    4cdc:	00660508 	rsbeq	r0, r6, r8, lsl #10
    4ce0:	01030000 	mrseq	r0, (UNDEF: 3)
    4ce4:	0000d408 	andeq	sp, r0, r8, lsl #8
    4ce8:	07020300 	streq	r0, [r2, -r0, lsl #6]
    4cec:	00000125 	andeq	r0, r0, r5, lsr #2
    4cf0:	f9070403 			; <UNDEFINED> instruction: 0xf9070403
    4cf4:	03000000 	movweq	r0, #0
    4cf8:	00f40708 	rscseq	r0, r4, r8, lsl #14
    4cfc:	25040000 	strcs	r0, [r4, #-0]
    4d00:	7a000000 	bvc	4d08 <__code_start__-0x32f8>
    4d04:	05000000 	streq	r0, [r0, #-0]
    4d08:	00000025 	andeq	r0, r0, r5, lsr #32
    4d0c:	00340600 	eorseq	r0, r4, r0, lsl #12
    4d10:	1c020000 	stcne	0, cr0, [r2], {-0}
    4d14:	0000860e 	andeq	r8, r0, lr, lsl #12
    4d18:	6b040700 	blvs	106920 <__bss_end__+0xfba78>
    4d1c:	04000000 	streq	r0, [r0], #-0
    4d20:	00000025 	andeq	r0, r0, r5, lsr #32
    4d24:	0000009b 	muleq	r0, fp, r0
    4d28:	00009b05 	andeq	r9, r0, r5, lsl #22
    4d2c:	04070000 	streq	r0, [r7], #-0
    4d30:	000000a8 	andeq	r0, r0, r8, lsr #1
    4d34:	dd080103 	stfles	f0, [r8, #-12]
    4d38:	08000000 	stmdaeq	r0, {}	; <UNPREDICTABLE>
    4d3c:	000000a1 	andeq	r0, r0, r1, lsr #1
    4d40:	00072f06 	andeq	r2, r7, r6, lsl #30
    4d44:	0e210200 	cdpeq	2, 2, cr0, cr1, cr0, {0}
    4d48:	000000b9 	strheq	r0, [r0], -r9
    4d4c:	008c0407 	addeq	r0, ip, r7, lsl #8
    4d50:	ab090000 	blge	244d58 <__bss_end__+0x239eb0>
    4d54:	01000007 	tsteq	r0, r7
    4d58:	010c0703 	tsteq	ip, r3, lsl #14
    4d5c:	9e780000 	cdpls	0, 7, cr0, cr8, cr0, {0}
    4d60:	00200000 	eoreq	r0, r0, r0
    4d64:	9c010000 	stcls	0, cr0, [r1], {-0}
    4d68:	0000010c 	andeq	r0, r0, ip, lsl #2
    4d6c:	0031730a 	eorseq	r7, r1, sl, lsl #6
    4d70:	0c150301 	ldceq	3, cr0, [r5], {1}
    4d74:	01000001 	tsteq	r0, r1
    4d78:	32730b50 	rsbscc	r0, r3, #80, 22	; 0x14000
    4d7c:	26030100 	strcs	r0, [r3], -r0, lsl #2
    4d80:	0000009b 	muleq	r0, fp, r0
    4d84:	00001fd1 	ldrdeq	r1, [r0], -r1	; <UNPREDICTABLE>
    4d88:	00001fcb 	andeq	r1, r0, fp, asr #31
    4d8c:	0100730c 	tsteq	r0, ip, lsl #6
    4d90:	010c1404 	tsteq	ip, r4, lsl #8
    4d94:	20020000 	andcs	r0, r2, r0
    4d98:	1ffc0000 	svcne	0x00fc0000
    4d9c:	07000000 	streq	r0, [r0, -r0]
    4da0:	0000a104 	andeq	sl, r0, r4, lsl #2
    4da4:	014e0000 	mrseq	r0, (UNDEF: 78)
    4da8:	00040000 	andeq	r0, r4, r0
    4dac:	00001af7 	strdeq	r1, [r0], -r7
    4db0:	05a00104 	streq	r0, [r0, #260]!	; 0x104
    4db4:	cf0c0000 	svcgt	0x000c0000
    4db8:	7100000c 	tstvc	r0, ip
    4dbc:	d8000006 	stmdale	r0, {r1, r2}
    4dc0:	00000000 	andeq	r0, r0, r0
    4dc4:	98000000 	stmdals	r0, {}	; <UNPREDICTABLE>
    4dc8:	02000028 	andeq	r0, r0, #40, 0	; 0x28
    4dcc:	6e690504 	cdpvs	5, 6, cr0, cr9, cr4, {0}
    4dd0:	6a030074 	bvs	c4fa8 <__bss_end__+0xba100>
    4dd4:	03000006 	movweq	r0, #6
    4dd8:	003817d1 	ldrsbteq	r1, [r8], -r1
    4ddc:	04040000 	streq	r0, [r4], #-0
    4de0:	0000fe07 	andeq	pc, r0, r7, lsl #28
    4de4:	06010400 	streq	r0, [r1], -r0, lsl #8
    4de8:	000000d6 	ldrdeq	r0, [r0], -r6
    4dec:	2a050204 	bcs	145604 <__bss_end__+0x13a75c>
    4df0:	04000000 	streq	r0, [r0], #-0
    4df4:	006b0504 	rsbeq	r0, fp, r4, lsl #10
    4df8:	08040000 	stmdaeq	r4, {}	; <UNPREDICTABLE>
    4dfc:	00006605 	andeq	r6, r0, r5, lsl #12
    4e00:	08010400 	stmdaeq	r1, {sl}
    4e04:	000000d4 	ldrdeq	r0, [r0], -r4
    4e08:	00005b05 	andeq	r5, r0, r5, lsl #22
    4e0c:	07020400 	streq	r0, [r2, -r0, lsl #8]
    4e10:	00000125 	andeq	r0, r0, r5, lsr #2
    4e14:	f9070404 			; <UNDEFINED> instruction: 0xf9070404
    4e18:	04000000 	streq	r0, [r0], #-0
    4e1c:	00f40708 	rscseq	r0, r4, r8, lsl #14
    4e20:	25060000 	strcs	r0, [r6, #-0]
    4e24:	8b000000 	blhi	4e2c <__code_start__-0x31d4>
    4e28:	07000000 	streq	r0, [r0, -r0]
    4e2c:	00000025 	andeq	r0, r0, r5, lsr #32
    4e30:	00340800 	eorseq	r0, r4, r0, lsl #16
    4e34:	1c020000 	stcne	0, cr0, [r2], {-0}
    4e38:	0000970e 	andeq	r9, r0, lr, lsl #14
    4e3c:	7c040900 			; <UNDEFINED> instruction: 0x7c040900
    4e40:	06000000 	streq	r0, [r0], -r0
    4e44:	00000025 	andeq	r0, r0, r5, lsr #32
    4e48:	000000ac 	andeq	r0, r0, ip, lsr #1
    4e4c:	0000ac07 	andeq	sl, r0, r7, lsl #24
    4e50:	04090000 	streq	r0, [r9], #-0
    4e54:	000000b9 	strheq	r0, [r0], -r9
    4e58:	dd080104 	stfles	f0, [r8, #-16]
    4e5c:	05000000 	streq	r0, [r0, #-0]
    4e60:	000000b2 	strheq	r0, [r0], -r2
    4e64:	00072f08 	andeq	r2, r7, r8, lsl #30
    4e68:	0e210200 	cdpeq	2, 2, cr0, cr1, cr0, {0}
    4e6c:	000000ca 	andeq	r0, r0, sl, asr #1
    4e70:	009d0409 	addseq	r0, sp, r9, lsl #8
    4e74:	fa0a0000 	blx	284e7c <__bss_end__+0x279fd4>
    4e78:	01000007 	tsteq	r0, r7
    4e7c:	00250504 	eoreq	r0, r5, r4, lsl #10
    4e80:	9e980000 	cdpls	0, 9, cr0, cr8, cr0, {0}
    4e84:	002c0000 	eoreq	r0, ip, r0
    4e88:	9c010000 	stcls	0, cr0, [r1], {-0}
    4e8c:	0000014b 	andeq	r0, r0, fp, asr #2
    4e90:	31735f0b 	cmncc	r3, fp, lsl #30
    4e94:	19040100 	stmdbne	r4, {r8}
    4e98:	000000ac 	andeq	r0, r0, ip, lsr #1
    4e9c:	00002031 	andeq	r2, r0, r1, lsr r0
    4ea0:	0000202d 	andeq	r2, r0, sp, lsr #32
    4ea4:	32735f0b 	rsbscc	r5, r3, #11, 30	; 0x2c
    4ea8:	2a040100 	bcs	1052b0 <__bss_end__+0xfa408>
    4eac:	000000ac 	andeq	r0, r0, ip, lsr #1
    4eb0:	00002056 	andeq	r2, r0, r6, asr r0
    4eb4:	00002052 	andeq	r2, r0, r2, asr r0
    4eb8:	01006e0b 	tsteq	r0, fp, lsl #28
    4ebc:	002c3604 	eoreq	r3, ip, r4, lsl #12
    4ec0:	207d0000 	rsbscs	r0, sp, r0
    4ec4:	20770000 	rsbscs	r0, r7, r0
    4ec8:	730c0000 	movwvc	r0, #49152	; 0xc000
    4ecc:	05010031 	streq	r0, [r1, #-49]	; 0xffffffcf
    4ed0:	00014b1a 	andeq	r4, r1, sl, lsl fp
    4ed4:	0020b000 	eoreq	fp, r0, r0
    4ed8:	0020a800 	eoreq	sl, r0, r0, lsl #16
    4edc:	32730c00 	rsbscc	r0, r3, #0, 24
    4ee0:	2c050100 	stfcss	f0, [r5], {-0}
    4ee4:	0000014b 	andeq	r0, r0, fp, asr #2
    4ee8:	000020ec 	andeq	r2, r0, ip, ror #1
    4eec:	000020e6 	andeq	r2, r0, r6, ror #1
    4ef0:	62040900 	andvs	r0, r4, #0, 18
    4ef4:	00000000 	andeq	r0, r0, r0
    4ef8:	000000ce 	andeq	r0, r0, lr, asr #1
    4efc:	1bab0004 	blne	feac4f14 <__bss_end__+0xfeaba06c>
    4f00:	01040000 	mrseq	r0, (UNDEF: 4)
    4f04:	000005a0 	andeq	r0, r0, r0, lsr #11
    4f08:	000ce00c 	andeq	lr, ip, ip
    4f0c:	00067100 	andeq	r7, r6, r0, lsl #2
    4f10:	009ec400 	addseq	ip, lr, r0, lsl #8
    4f14:	00000400 	andeq	r0, r0, r0, lsl #8
    4f18:	0029bd00 	eoreq	fp, r9, r0, lsl #26
    4f1c:	05040200 	streq	r0, [r4, #-512]	; 0xfffffe00
    4f20:	00746e69 	rsbseq	r6, r4, r9, ror #28
    4f24:	fe070403 	cdp2	4, 0, cr0, cr7, cr3, {0}
    4f28:	03000000 	movweq	r0, #0
    4f2c:	00d60601 	sbcseq	r0, r6, r1, lsl #12
    4f30:	02030000 	andeq	r0, r3, #0, 0
    4f34:	00002a05 	andeq	r2, r0, r5, lsl #20
    4f38:	05040300 	streq	r0, [r4, #-768]	; 0xfffffd00
    4f3c:	0000006b 	andeq	r0, r0, fp, rrx
    4f40:	66050803 	strvs	r0, [r5], -r3, lsl #16
    4f44:	03000000 	movweq	r0, #0
    4f48:	00d40801 	sbcseq	r0, r4, r1, lsl #16
    4f4c:	02030000 	andeq	r0, r3, #0, 0
    4f50:	00012507 	andeq	r2, r1, r7, lsl #10
    4f54:	07040300 	streq	r0, [r4, -r0, lsl #6]
    4f58:	000000f9 	strdeq	r0, [r0], -r9
    4f5c:	f4070803 	vst2.8	{d0-d1}, [r7], r3
    4f60:	04000000 	streq	r0, [r0], #-0
    4f64:	00000025 	andeq	r0, r0, r5, lsr #32
    4f68:	0000007a 	andeq	r0, r0, sl, ror r0
    4f6c:	00002505 	andeq	r2, r0, r5, lsl #10
    4f70:	34060000 	strcc	r0, [r6], #-0
    4f74:	02000000 	andeq	r0, r0, #0, 0
    4f78:	00860e1c 	addeq	r0, r6, ip, lsl lr
    4f7c:	04070000 	streq	r0, [r7], #-0
    4f80:	0000006b 	andeq	r0, r0, fp, rrx
    4f84:	00002504 	andeq	r2, r0, r4, lsl #10
    4f88:	00009b00 	andeq	r9, r0, r0, lsl #22
    4f8c:	009b0500 	addseq	r0, fp, r0, lsl #10
    4f90:	07000000 	streq	r0, [r0, -r0]
    4f94:	0000a804 	andeq	sl, r0, r4, lsl #16
    4f98:	08010300 	stmdaeq	r1, {r8, r9}
    4f9c:	000000dd 	ldrdeq	r0, [r0], -sp
    4fa0:	0000a108 	andeq	sl, r0, r8, lsl #2
    4fa4:	072f0600 	streq	r0, [pc, -r0, lsl #12]!
    4fa8:	21020000 	mrscs	r0, (UNDEF: 2)
    4fac:	0000b90e 	andeq	fp, r0, lr, lsl #18
    4fb0:	8c040700 	stchi	7, cr0, [r4], {-0}
    4fb4:	09000000 	stmdbeq	r0, {}	; <UNPREDICTABLE>
    4fb8:	000008a1 	andeq	r0, r0, r1, lsr #17
    4fbc:	c4060301 	strgt	r0, [r6], #-769	; 0xfffffcff
    4fc0:	0400009e 	streq	r0, [r0], #-158	; 0xffffff62
    4fc4:	01000000 	mrseq	r0, (UNDEF: 0)
    4fc8:	03a5009c 			; <UNDEFINED> instruction: 0x03a5009c
    4fcc:	00040000 	andeq	r0, r4, r0
    4fd0:	00001c24 	andeq	r1, r0, r4, lsr #24
    4fd4:	0a7d0104 	beq	1f453ec <__bss_end__+0x1f3a544>
    4fd8:	7f0c0000 	svcvc	0x000c0000
    4fdc:	2d00000d 	stccs	0, cr0, [r0, #-52]	; 0xffffffcc
    4fe0:	e000000a 	and	r0, r0, sl
    4fe4:	1c00009e 	stcne	0, cr0, [r0], {158}	; 0x9e
    4fe8:	71000001 	tstvc	r0, r1
    4fec:	0200002a 	andeq	r0, r0, #42, 0	; 0x2a
    4ff0:	6e690504 	cdpvs	5, 6, cr0, cr9, cr4, {0}
    4ff4:	04030074 	streq	r0, [r3], #-116	; 0xffffff8c
    4ff8:	0000fe07 	andeq	pc, r0, r7, lsl #28
    4ffc:	002c0400 	eoreq	r0, ip, r0, lsl #8
    5000:	01030000 	mrseq	r0, (UNDEF: 3)
    5004:	0000d606 	andeq	sp, r0, r6, lsl #12
    5008:	05020300 	streq	r0, [r2, #-768]	; 0xfffffd00
    500c:	0000002a 	andeq	r0, r0, sl, lsr #32
    5010:	6b050403 	blvs	146024 <__bss_end__+0x13b17c>
    5014:	03000000 	movweq	r0, #0
    5018:	00660508 	rsbeq	r0, r6, r8, lsl #10
    501c:	01030000 	mrseq	r0, (UNDEF: 3)
    5020:	0000d408 	andeq	sp, r0, r8, lsl #8
    5024:	07020300 	streq	r0, [r2, -r0, lsl #6]
    5028:	00000125 	andeq	r0, r0, r5, lsr #2
    502c:	00010b05 	andeq	r0, r1, r5, lsl #22
    5030:	19340300 	ldmdbne	r4!, {r8, r9}
    5034:	0000006e 	andeq	r0, r0, lr, rrx
    5038:	f9070403 			; <UNDEFINED> instruction: 0xf9070403
    503c:	03000000 	movweq	r0, #0
    5040:	00f40708 	rscseq	r0, r4, r8, lsl #14
    5044:	01030000 	mrseq	r0, (UNDEF: 3)
    5048:	0000dd08 	andeq	sp, r0, r8, lsl #26
    504c:	01070600 	tsteq	r7, r0, lsl #12
    5050:	00000054 	andeq	r0, r0, r4, asr r0
    5054:	c20e0c04 	andgt	r0, lr, #4, 24	; 0x400
    5058:	07000000 	streq	r0, [r0, -r0]
    505c:	00000b67 	andeq	r0, r0, r7, ror #22
    5060:	099f0700 	ldmibeq	pc, {r8, r9, sl}	; <UNPREDICTABLE>
    5064:	07010000 	streq	r0, [r1, -r0]
    5068:	000009e2 	andeq	r0, r0, r2, ror #19
    506c:	09f10704 	ldmibeq	r1!, {r2, r8, r9, sl}^
    5070:	07050000 	streq	r0, [r5, -r0]
    5074:	00000a00 	andeq	r0, r0, r0, lsl #20
    5078:	0a0f0706 	beq	3c6c98 <__bss_end__+0x3bbdf0>
    507c:	07070000 	streq	r0, [r7, -r0]
    5080:	00000b30 	andeq	r0, r0, r0, lsr fp
    5084:	0a1e0703 	beq	786c98 <__bss_end__+0x77bdf0>
    5088:	00020000 	andeq	r0, r2, r0
    508c:	000d6405 	andeq	r6, sp, r5, lsl #8
    5090:	03150400 	tsteq	r5, #0, 8
    5094:	00000083 	andeq	r0, r0, r3, lsl #1
    5098:	000d0f08 	andeq	r0, sp, r8, lsl #30
    509c:	171d0100 	ldrne	r0, [sp, -r0, lsl #2]
    50a0:	00000033 	andeq	r0, r0, r3, lsr r0
    50a4:	2020001c 	eorcs	r0, r0, ip, lsl r0
    50a8:	000d0508 	andeq	r0, sp, r8, lsl #10
    50ac:	171e0100 	ldrne	r0, [lr, -r0, lsl #2]
    50b0:	00000033 	andeq	r0, r0, r3, lsr r0
    50b4:	20200028 	eorcs	r0, r0, r8, lsr #32
    50b8:	000d7008 	andeq	r7, sp, r8
    50bc:	171f0100 	ldrne	r0, [pc, -r0, lsl #2]
    50c0:	00000033 	andeq	r0, r0, r3, lsr r0
    50c4:	20200034 	eorcs	r0, r0, r4, lsr r0
    50c8:	000d2e09 	andeq	r2, sp, r9, lsl #28
    50cc:	05550100 	ldrbeq	r0, [r5, #-256]	; 0xffffff00
    50d0:	00000025 	andeq	r0, r0, r5, lsr #32
    50d4:	00009fc8 	andeq	r9, r0, r8, asr #31
    50d8:	00000034 	andeq	r0, r0, r4, lsr r0
    50dc:	016e9c01 	cmneq	lr, r1, lsl #24
    50e0:	700a0000 	andvc	r0, sl, r0
    50e4:	01006e69 	tsteq	r0, r9, ror #28
    50e8:	002c1855 	eoreq	r1, ip, r5, asr r8
    50ec:	211f0000 	tstcs	pc, r0
    50f0:	21170000 	tstcs	r7, r0
    50f4:	7a0b0000 	bvc	2c50fc <__bss_end__+0x2ba254>
    50f8:	0100000d 	tsteq	r0, sp
    50fc:	002c0e58 	eoreq	r0, ip, r8, asr lr
    5100:	215f0000 	cmpcs	pc, r0
    5104:	21590000 	cmpcs	r9, r0
    5108:	6f0c0000 	svcvs	0x000c0000
    510c:	01006666 	tsteq	r0, r6, ror #12
    5110:	002c0e59 	eoreq	r0, ip, r9, asr lr
    5114:	219f0000 	orrscs	r0, pc, r0
    5118:	219d0000 	orrscs	r0, sp, r0
    511c:	e40d0000 	str	r0, [sp], #-0
    5120:	9000009f 	mulls	r0, pc, r0	; <UNPREDICTABLE>
    5124:	0e000003 	cdpeq	0, 0, cr0, cr0, cr3, {0}
    5128:	f30b5001 	vhadd.u8	d5, d11, d1
    512c:	25355001 	ldrcs	r5, [r5, #-1]!
    5130:	8080b423 	addhi	fp, r0, r3, lsr #8
    5134:	00000281 	andeq	r0, r0, r1, lsl #5
    5138:	000d190f 	andeq	r1, sp, pc, lsl #18
    513c:	064e0100 	strbeq	r0, [lr], -r0, lsl #2
    5140:	00009fac 	andeq	r9, r0, ip, lsr #31
    5144:	0000001c 	andeq	r0, r0, ip, lsl r0
    5148:	01c99c01 	biceq	r9, r9, r1, lsl #24
    514c:	700a0000 	andvc	r0, sl, r0
    5150:	01006e69 	tsteq	r0, r9, ror #28
    5154:	002c1a4e 	eoreq	r1, ip, lr, asr #20
    5158:	21ba0000 			; <UNDEFINED> instruction: 0x21ba0000
    515c:	21b20000 			; <UNDEFINED> instruction: 0x21b20000
    5160:	760a0000 	strvc	r0, [sl], -r0
    5164:	284e0100 	stmdacs	lr, {r8}^
    5168:	0000002c 	andeq	r0, r0, ip, lsr #32
    516c:	000021fc 	strdeq	r2, [r0], -ip
    5170:	000021f4 	strdeq	r2, [r0], -r4
    5174:	009fbc10 	addseq	fp, pc, r0, lsl ip	; <UNPREDICTABLE>
    5178:	00025100 	andeq	r5, r2, r0, lsl #2
    517c:	0001bf00 	andeq	fp, r1, r0, lsl #30
    5180:	50010e00 	andpl	r0, r1, r0, lsl #28
    5184:	5001f303 	andpl	pc, r1, r3, lsl #6
    5188:	9fc41100 	svcls	0x00c41100
    518c:	020a0000 	andeq	r0, sl, #0, 0
    5190:	0f000000 	svceq	0x00000000
    5194:	00000d38 	andeq	r0, r0, r8, lsr sp
    5198:	9c064901 			; <UNDEFINED> instruction: 0x9c064901
    519c:	1000009f 	mulne	r0, pc, r0	; <UNPREDICTABLE>
    51a0:	01000000 	mrseq	r0, (UNDEF: 0)
    51a4:	00020a9c 	muleq	r2, ip, sl
    51a8:	69700a00 	ldmdbvs	r0!, {r9, fp}^
    51ac:	4901006e 	stmdbmi	r1, {r1, r2, r3, r5, r6}
    51b0:	00002c1e 	andeq	r2, r0, lr, lsl ip
    51b4:	00223a00 	eoreq	r3, r2, r0, lsl #20
    51b8:	00223600 	eoreq	r3, r2, r0, lsl #12
    51bc:	9fa80d00 	svcls	0x00a80d00
    51c0:	02d90000 	sbcseq	r0, r9, #0, 0
    51c4:	010e0000 	mrseq	r0, (UNDEF: 14)
    51c8:	01f30350 	mvnseq	r0, r0, asr r3
    51cc:	51010e50 	tstpl	r1, r0, asr lr
    51d0:	00003001 	andeq	r3, r0, r1
    51d4:	000d470f 	andeq	r4, sp, pc, lsl #14
    51d8:	06420100 	strbeq	r0, [r2], -r0, lsl #2
    51dc:	00009f78 	andeq	r9, r0, r8, ror pc
    51e0:	00000024 	andeq	r0, r0, r4, lsr #32
    51e4:	02519c01 	subseq	r9, r1, #256	; 0x100
    51e8:	700a0000 	andvc	r0, sl, r0
    51ec:	01006e69 	tsteq	r0, r9, ror #28
    51f0:	002c1c42 	eoreq	r1, ip, r2, asr #24
    51f4:	225f0000 	subscs	r0, pc, #0, 0
    51f8:	225b0000 	subscs	r0, fp, #0, 0
    51fc:	940d0000 	strls	r0, [sp], #-0
    5200:	9c00009f 	stcls	0, cr0, [r0], {159}	; 0x9f
    5204:	0e000003 	cdpeq	0, 0, cr0, cr0, cr3, {0}
    5208:	0c055001 	stceq	0, cr5, [r5], {1}
    520c:	20200028 	eorcs	r0, r0, r8, lsr #32
    5210:	0551010e 	ldrbeq	r0, [r1, #-270]	; 0xfffffef2
    5214:	5001f331 	andpl	pc, r1, r1, lsr r3	; <UNPREDICTABLE>
    5218:	0f000024 	svceq	0x00000024
    521c:	00000d86 	andeq	r0, r0, r6, lsl #27
    5220:	54063b01 	strpl	r3, [r6], #-2817	; 0xfffff4ff
    5224:	2400009f 	strcs	r0, [r0], #-159	; 0xffffff61
    5228:	01000000 	mrseq	r0, (UNDEF: 0)
    522c:	0002989c 	muleq	r2, ip, r8
    5230:	69700a00 	ldmdbvs	r0!, {r9, fp}^
    5234:	3b01006e 	blcc	453f4 <__bss_end__+0x3a54c>
    5238:	00002c1b 	andeq	r2, r0, fp, lsl ip
    523c:	00228400 	eoreq	r8, r2, r0, lsl #8
    5240:	00228000 	eoreq	r8, r2, r0
    5244:	9f700d00 	svcls	0x00700d00
    5248:	039c0000 	orrseq	r0, ip, #0, 0
    524c:	010e0000 	mrseq	r0, (UNDEF: 14)
    5250:	1c0c0550 	cfstr32ne	mvfx0, [ip], {80}	; 0x50
    5254:	0e202000 	cdpeq	0, 2, cr2, cr0, cr0, {0}
    5258:	31055101 	tstcc	r5, r1, lsl #2
    525c:	245001f3 	ldrbcs	r0, [r0], #-499	; 0xfffffe0d
    5260:	540f0000 	strpl	r0, [pc], #-0	; 5268 <__code_start__-0x2d98>
    5264:	0100000d 	tsteq	r0, sp
    5268:	9f440636 	svcls	0x00440636
    526c:	00100000 	andseq	r0, r0, r0
    5270:	9c010000 	stcls	0, cr0, [r1], {-0}
    5274:	000002d9 	ldrdeq	r0, [r0], -r9
    5278:	6e69700a 	cdpvs	0, 6, cr7, cr9, cr10, {0}
    527c:	1f360100 	svcne	0x00360100
    5280:	0000002c 	andeq	r0, r0, ip, lsr #32
    5284:	000022a9 	andeq	r2, r0, r9, lsr #5
    5288:	000022a5 	andeq	r2, r0, r5, lsr #5
    528c:	009f500d 	addseq	r5, pc, sp
    5290:	0002d900 	andeq	sp, r2, r0, lsl #18
    5294:	50010e00 	andpl	r0, r1, r0, lsl #28
    5298:	5001f303 	andpl	pc, r1, r3, lsl #6
    529c:	0151010e 	cmpeq	r1, lr, lsl #2
    52a0:	0f000031 	svceq	0x00000031
    52a4:	00000b77 	andeq	r0, r0, r7, ror fp
    52a8:	e0062801 	and	r2, r6, r1, lsl #16
    52ac:	6400009e 	strvs	r0, [r0], #-158	; 0xffffff62
    52b0:	01000000 	mrseq	r0, (UNDEF: 0)
    52b4:	0003749c 	muleq	r3, ip, r4
    52b8:	69700a00 	ldmdbvs	r0!, {r9, fp}^
    52bc:	2801006e 	stmdacs	r1, {r1, r2, r3, r5, r6}
    52c0:	00002c21 	andeq	r2, r0, r1, lsr #24
    52c4:	0022ce00 	eoreq	ip, r2, r0, lsl #28
    52c8:	0022ca00 	eoreq	ip, r2, r0, lsl #20
    52cc:	00611200 	rsbeq	r1, r1, r0, lsl #4
    52d0:	28010000 	stmdacs	r1, {}	; <UNPREDICTABLE>
    52d4:	0000c232 	andeq	ip, r0, r2, lsr r2
    52d8:	0022f300 	eoreq	pc, r2, r0, lsl #6
    52dc:	0022ef00 	eoreq	lr, r2, r0, lsl #30
    52e0:	666f0c00 	strbtvs	r0, [pc], -r0, lsl #24
    52e4:	2d010066 	stccs	0, cr0, [r1, #-408]	; 0xfffffe68
    52e8:	00002c0e 	andeq	r2, r0, lr, lsl #24
    52ec:	00231600 	eoreq	r1, r3, r0, lsl #12
    52f0:	00231400 	eoreq	r1, r3, r0, lsl #8
    52f4:	00670c00 	rsbeq	r0, r7, r0, lsl #24
    52f8:	2c0e2e01 	stccs	14, cr2, [lr], {1}
    52fc:	2b000000 	blcs	5304 <__code_start__-0x2cfc>
    5300:	29000023 	stmdbcs	r0, {r0, r1, r5}
    5304:	0c000023 	stceq	0, cr0, [r0], {35}	; 0x23
    5308:	30010076 	andcc	r0, r1, r6, ror r0
    530c:	00002c0e 	andeq	r2, r0, lr, lsl #24
    5310:	00234600 	eoreq	r4, r3, r0, lsl #12
    5314:	00233e00 	eoreq	r3, r3, r0, lsl #28
    5318:	9f281000 	svcls	0x00281000
    531c:	03900000 	orrseq	r0, r0, #0, 0
    5320:	03630000 	cmneq	r3, #0, 0
    5324:	010e0000 	mrseq	r0, (UNDEF: 14)
    5328:	00760250 	rsbseq	r0, r6, r0, asr r2
    532c:	9f3c0d00 	svcls	0x003c0d00
    5330:	039c0000 	orrseq	r0, ip, #0, 0
    5334:	010e0000 	mrseq	r0, (UNDEF: 14)
    5338:	00760250 	rsbseq	r0, r6, r0, asr r2
    533c:	24130000 	ldrcs	r0, [r3], #-0
    5340:	0200000d 	andeq	r0, r0, #13, 0
    5344:	006218b6 	strhteq	r1, [r2], #-134	; 0xffffff7a
    5348:	90030000 	andls	r0, r3, r0
    534c:	14000003 	strne	r0, [r0], #-3
    5350:	b6020078 			; <UNDEFINED> instruction: 0xb6020078
    5354:	0000622b 	andeq	r6, r0, fp, lsr #4
    5358:	4c150000 	ldcmi	0, cr0, [r5], {-0}
    535c:	4c000009 	stcmi	0, cr0, [r0], {9}
    5360:	02000009 	andeq	r0, r0, #9, 0
    5364:	b8150ac7 	ldmdalt	r5, {r0, r1, r2, r6, r7, r9, fp}
    5368:	b8000008 	stmdalt	r0, {r3}
    536c:	02000008 	andeq	r0, r0, #8, 0
    5370:	Address 0x0000000000005370 is out of bounds.


Disassembly of section .debug_abbrev:

00000000 <.debug_abbrev>:
       0:	25011101 	strcs	r1, [r1, #-257]	; 0xfffffeff
       4:	030b130e 	movweq	r1, #45838	; 0xb30e
       8:	110e1b0e 	tstne	lr, lr, lsl #22
       c:	10061201 	andne	r1, r6, r1, lsl #4
      10:	02000017 	andeq	r0, r0, #23, 0
      14:	0b0b0024 	bleq	2c00ac <__bss_end__+0x2b5204>
      18:	08030b3e 	stmdaeq	r3, {r1, r2, r3, r4, r5, r8, r9, fp}
      1c:	24030000 	strcs	r0, [r3], #-0
      20:	3e0b0b00 	vmlacc.f64	d0, d11, d0
      24:	000e030b 	andeq	r0, lr, fp, lsl #6
      28:	00160400 	andseq	r0, r6, r0, lsl #8
      2c:	0b3a0e03 	bleq	e83840 <__bss_end__+0xe78998>
      30:	0b390b3b 	bleq	e42d24 <__bss_end__+0xe37e7c>
      34:	00001349 	andeq	r1, r0, r9, asr #6
      38:	27011505 	strcs	r1, [r1, -r5, lsl #10]
      3c:	01134919 	tsteq	r3, r9, lsl r9
      40:	06000013 			; <UNDEFINED> instruction: 0x06000013
      44:	13490005 	movtne	r0, #36869	; 0x9005
      48:	34070000 	strcc	r0, [r7], #-0
      4c:	3a0e0300 	bcc	380c54 <__bss_end__+0x375dac>
      50:	390b3b0b 	stmdbcc	fp, {r0, r1, r3, r8, r9, fp, ip, sp}
      54:	3f13490b 	svccc	0x0013490b
      58:	00193c19 	andseq	r3, r9, r9, lsl ip
      5c:	000f0800 	andeq	r0, pc, r0, lsl #16
      60:	13490b0b 	movtne	r0, #39691	; 0x9b0b
      64:	26090000 	strcs	r0, [r9], -r0
      68:	00134900 	andseq	r4, r3, r0, lsl #18
      6c:	01130a00 	tsteq	r3, r0, lsl #20
      70:	0b3a0b0b 	bleq	e82ca4 <__bss_end__+0xe77dfc>
      74:	0b390b3b 	bleq	e42d68 <__bss_end__+0xe37ec0>
      78:	00001301 	andeq	r1, r0, r1, lsl #6
      7c:	03000d0b 	movweq	r0, #3339	; 0xd0b
      80:	3b0b3a0e 	blcc	2ce8c0 <__bss_end__+0x2c3a18>
      84:	490b390b 	stmdbmi	fp, {r0, r1, r3, r8, fp, ip, sp}
      88:	000b3813 	andeq	r3, fp, r3, lsl r8
      8c:	00340c00 	eorseq	r0, r4, r0, lsl #24
      90:	0b3a0e03 	bleq	e838a4 <__bss_end__+0xe789fc>
      94:	0b390b3b 	bleq	e42d88 <__bss_end__+0xe37ee0>
      98:	0b1c1349 	bleq	704dc4 <__bss_end__+0x6f9f1c>
      9c:	130d0000 	movwne	r0, #53248	; 0xd000
      a0:	0b0e0301 	bleq	380cac <__bss_end__+0x375e04>
      a4:	3b0b3a0b 	blcc	2ce8d8 <__bss_end__+0x2c3a30>
      a8:	010b390b 	tsteq	fp, fp, lsl #18
      ac:	0e000013 	mcreq	0, 0, r0, cr0, cr3, {0}
      b0:	0803000d 	stmdaeq	r3, {r0, r2, r3}
      b4:	0b3b0b3a 	bleq	ec2da4 <__bss_end__+0xeb7efc>
      b8:	13490b39 	movtne	r0, #39737	; 0x9b39
      bc:	00000b38 	andeq	r0, r0, r8, lsr fp
      c0:	4901010f 	stmdbmi	r1, {r0, r1, r2, r3, r8}
      c4:	00130113 	andseq	r0, r3, r3, lsl r1
      c8:	00211000 	eoreq	r1, r1, r0
      cc:	0b2f1349 	bleq	bc4df8 <__bss_end__+0xbb9f50>
      d0:	34110000 	ldrcc	r0, [r1], #-0
      d4:	3a0e0300 	bcc	380cdc <__bss_end__+0x375e34>
      d8:	390b3b0b 	stmdbcc	fp, {r0, r1, r3, r8, r9, fp, ip, sp}
      dc:	0013490b 	andseq	r4, r3, fp, lsl #18
      e0:	000f1200 	andeq	r1, pc, r0, lsl #4
      e4:	00000b0b 	andeq	r0, r0, fp, lsl #22
      e8:	3f012e13 	svccc	0x00012e13
      ec:	3a0e0319 	bcc	380d58 <__bss_end__+0x375eb0>
      f0:	390b3b0b 	stmdbcc	fp, {r0, r1, r3, r8, r9, fp, ip, sp}
      f4:	1119270b 	tstne	r9, fp, lsl #14
      f8:	40061201 	andmi	r1, r6, r1, lsl #4
      fc:	19429718 	stmdbne	r2, {r3, r4, r8, r9, sl, ip, pc}^
     100:	00001301 	andeq	r1, r0, r1, lsl #6
     104:	03003414 	movweq	r3, #1044	; 0x414
     108:	3b0b3a08 	blcc	2ce930 <__bss_end__+0x2c3a88>
     10c:	490b390b 	stmdbmi	fp, {r0, r1, r3, r8, fp, ip, sp}
     110:	b7170213 			; <UNDEFINED> instruction: 0xb7170213
     114:	00001742 	andeq	r1, r0, r2, asr #14
     118:	03003415 	movweq	r3, #1045	; 0x415
     11c:	3413490e 	ldrcc	r4, [r3], #-2318	; 0xfffff6f2
     120:	00180219 	andseq	r0, r8, r9, lsl r2
     124:	82891600 	addhi	r1, r9, #0, 12
     128:	01110101 	tsteq	r1, r1, lsl #2
     12c:	13011331 	movwne	r1, #4913	; 0x1331
     130:	8a170000 	bhi	5c0138 <__bss_end__+0x5b5290>
     134:	02000182 	andeq	r0, r0, #-2147483616	; 0x80000020
     138:	18429118 	stmdane	r2, {r3, r4, r8, ip, pc}^
     13c:	89180000 	ldmdbhi	r8, {}	; <UNPREDICTABLE>
     140:	11000182 	smlabbne	r0, r2, r1, r0
     144:	00133101 	andseq	r3, r3, r1, lsl #2
     148:	012e1900 			; <UNDEFINED> instruction: 0x012e1900
     14c:	0e03193f 			; <UNDEFINED> instruction: 0x0e03193f
     150:	0b3b0b3a 	bleq	ec2e40 <__bss_end__+0xeb7f98>
     154:	19270b39 	stmdbne	r7!, {r0, r3, r4, r5, r8, r9, fp}
     158:	01111349 	tsteq	r1, r9, asr #6
     15c:	18400612 	stmdane	r0, {r1, r4, r9, sl}^
     160:	01194297 			; <UNDEFINED> instruction: 0x01194297
     164:	1a000013 	bne	1b8 <__code_start__-0x7e48>
     168:	1331011d 	teqne	r1, #1073741831	; 0x40000007
     16c:	42b80152 	adcsmi	r0, r8, #-2147483628	; 0x80000014
     170:	1201110b 	andne	r1, r1, #-1073741822	; 0xc0000002
     174:	590b5806 	stmdbpl	fp, {r1, r2, fp, ip, lr}
     178:	010b570b 	tsteq	fp, fp, lsl #14
     17c:	1b000013 	blne	1d0 <__code_start__-0x7e30>
     180:	13310005 	teqne	r1, #5, 0
     184:	42b71702 	adcsmi	r1, r7, #524288	; 0x80000
     188:	1c000017 	stcne	0, cr0, [r0], {23}
     18c:	01018289 	smlabbeq	r1, r9, r2, r8
     190:	13310111 	teqne	r1, #1073741828	; 0x40000004
     194:	2e1d0000 	cdpcs	0, 1, cr0, cr13, cr0, {0}
     198:	3a0e0301 	bcc	380da4 <__bss_end__+0x375efc>
     19c:	390b3b0b 	stmdbcc	fp, {r0, r1, r3, r8, r9, fp, ip, sp}
     1a0:	4919270b 	ldmdbmi	r9, {r0, r1, r3, r8, r9, sl, sp}
     1a4:	12011113 	andne	r1, r1, #-1073741820	; 0xc0000004
     1a8:	97184006 	ldrls	r4, [r8, -r6]
     1ac:	13011942 	movwne	r1, #6466	; 0x1942
     1b0:	051e0000 	ldreq	r0, [lr, #-0]
     1b4:	3a080300 	bcc	200dbc <__bss_end__+0x1f5f14>
     1b8:	390b3b0b 	stmdbcc	fp, {r0, r1, r3, r8, r9, fp, ip, sp}
     1bc:	0213490b 	andseq	r4, r3, #180224	; 0x2c000
     1c0:	1742b717 	smlaldne	fp, r2, r7, r7
     1c4:	2e1f0000 	cdpcs	0, 1, cr0, cr15, cr0, {0}
     1c8:	3a0e0301 	bcc	380dd4 <__bss_end__+0x375f2c>
     1cc:	390b3b0b 	stmdbcc	fp, {r0, r1, r3, r8, r9, fp, ip, sp}
     1d0:	4919270b 	ldmdbmi	r9, {r0, r1, r3, r8, r9, sl, sp}
     1d4:	010b2013 	tsteq	fp, r3, lsl r0
     1d8:	20000013 	andcs	r0, r0, r3, lsl r0
     1dc:	0e030005 	cdpeq	0, 0, cr0, cr3, cr5, {0}
     1e0:	0b3b0b3a 	bleq	ec2ed0 <__bss_end__+0xeb8028>
     1e4:	13490b39 	movtne	r0, #39737	; 0x9b39
     1e8:	2e210000 	cdpcs	0, 2, cr0, cr1, cr0, {0}
     1ec:	3c193f00 	ldccc	15, cr3, [r9], {-0}
     1f0:	030e6e19 	movweq	r6, #60953	; 0xee19
     1f4:	3b0b3a0e 	blcc	2cea34 <__bss_end__+0x2c3b8c>
     1f8:	000b390b 	andeq	r3, fp, fp, lsl #18
     1fc:	00362200 	eorseq	r2, r6, r0, lsl #4
     200:	00001802 	andeq	r1, r0, r2, lsl #16
     204:	01110100 	tsteq	r1, r0, lsl #2
     208:	0b130e25 	bleq	4c3aa4 <__bss_end__+0x4b8bfc>
     20c:	0e1b0e03 	cdpeq	14, 1, cr0, cr11, cr3, {0}
     210:	06120111 			; <UNDEFINED> instruction: 0x06120111
     214:	00001710 	andeq	r1, r0, r0, lsl r7
     218:	0b002402 	bleq	9228 <va_printk+0x14>
     21c:	030b3e0b 	movweq	r3, #48651	; 0xbe0b
     220:	03000008 	movweq	r0, #8
     224:	0b0b0024 	bleq	2c02bc <__bss_end__+0x2b5414>
     228:	0e030b3e 	vmoveq.16	d3[0], r0
     22c:	16040000 	strne	r0, [r4], -r0
     230:	3a0e0300 	bcc	380e38 <__bss_end__+0x375f90>
     234:	390b3b0b 	stmdbcc	fp, {r0, r1, r3, r8, r9, fp, ip, sp}
     238:	0013490b 	andseq	r4, r3, fp, lsl #18
     23c:	01150500 	tsteq	r5, r0, lsl #10
     240:	13491927 	movtne	r1, #39207	; 0x9927
     244:	00001301 	andeq	r1, r0, r1, lsl #6
     248:	49000506 	stmdbmi	r0, {r1, r2, r8, sl}
     24c:	07000013 	smladeq	r0, r3, r0, r0
     250:	0e030034 	mcreq	0, 0, r0, cr3, cr4, {1}
     254:	0b3b0b3a 	bleq	ec2f44 <__bss_end__+0xeb809c>
     258:	13490b39 	movtne	r0, #39737	; 0x9b39
     25c:	193c193f 	ldmdbne	ip!, {r0, r1, r2, r3, r4, r5, r8, fp, ip}
     260:	0f080000 	svceq	0x00080000
     264:	490b0b00 	stmdbmi	fp, {r8, r9, fp}
     268:	09000013 	stmdbeq	r0, {r0, r1, r4}
     26c:	13490026 	movtne	r0, #36902	; 0x9026
     270:	0f0a0000 	svceq	0x000a0000
     274:	000b0b00 	andeq	r0, fp, r0, lsl #22
     278:	01130b00 	tsteq	r3, r0, lsl #22
     27c:	0b3a0b0b 	bleq	e82eb0 <__bss_end__+0xe78008>
     280:	0b390b3b 	bleq	e42f74 <__bss_end__+0xe380cc>
     284:	00001301 	andeq	r1, r0, r1, lsl #6
     288:	03000d0c 	movweq	r0, #3340	; 0xd0c
     28c:	3b0b3a0e 	blcc	2ceacc <__bss_end__+0x2c3c24>
     290:	490b390b 	stmdbmi	fp, {r0, r1, r3, r8, fp, ip, sp}
     294:	000b3813 	andeq	r3, fp, r3, lsl r8
     298:	01040d00 	tsteq	r4, r0, lsl #26
     29c:	0b0b0b3e 	bleq	2c2f9c <__bss_end__+0x2b80f4>
     2a0:	0b3a1349 	bleq	e84fcc <__bss_end__+0xe7a124>
     2a4:	0b390b3b 	bleq	e42f98 <__bss_end__+0xe380f0>
     2a8:	00001301 	andeq	r1, r0, r1, lsl #6
     2ac:	0300280e 	movweq	r2, #2062	; 0x80e
     2b0:	000b1c0e 	andeq	r1, fp, lr, lsl #24
     2b4:	00340f00 	eorseq	r0, r4, r0, lsl #30
     2b8:	0b3a0e03 	bleq	e83acc <__bss_end__+0xe78c24>
     2bc:	0b390b3b 	bleq	e42fb0 <__bss_end__+0xe38108>
     2c0:	18021349 	stmdane	r2, {r0, r3, r6, r8, r9, ip}
     2c4:	13100000 	tstne	r0, #0, 0
     2c8:	0b0e0301 	bleq	380ed4 <__bss_end__+0x37602c>
     2cc:	3b0b3a0b 	blcc	2ceb00 <__bss_end__+0x2c3c58>
     2d0:	010b390b 	tsteq	fp, fp, lsl #18
     2d4:	11000013 	tstne	r0, r3, lsl r0
     2d8:	0803000d 	stmdaeq	r3, {r0, r2, r3}
     2dc:	0b3b0b3a 	bleq	ec2fcc <__bss_end__+0xeb8124>
     2e0:	13490b39 	movtne	r0, #39737	; 0x9b39
     2e4:	00000b38 	andeq	r0, r0, r8, lsr fp
     2e8:	49010112 	stmdbmi	r1, {r1, r4, r8}
     2ec:	00130113 	andseq	r0, r3, r3, lsl r1
     2f0:	00211300 	eoreq	r1, r1, r0, lsl #6
     2f4:	0b2f1349 	bleq	bc5020 <__bss_end__+0xbba178>
     2f8:	2e140000 	cdpcs	0, 1, cr0, cr4, cr0, {0}
     2fc:	03193f01 	tsteq	r9, #1, 30
     300:	3b0b3a0e 	blcc	2ceb40 <__bss_end__+0x2c3c98>
     304:	270b390b 	strcs	r3, [fp, -fp, lsl #18]
     308:	11134919 	tstne	r3, r9, lsl r9
     30c:	40061201 	andmi	r1, r6, r1, lsl #4
     310:	19429718 	stmdbne	r2, {r3, r4, r8, r9, sl, ip, pc}^
     314:	00001301 	andeq	r1, r0, r1, lsl #6
     318:	03000515 	movweq	r0, #1301	; 0x515
     31c:	3b0b3a0e 	blcc	2ceb5c <__bss_end__+0x2c3cb4>
     320:	490b390b 	stmdbmi	fp, {r0, r1, r3, r8, fp, ip, sp}
     324:	b7170213 			; <UNDEFINED> instruction: 0xb7170213
     328:	00001742 	andeq	r1, r0, r2, asr #14
     32c:	03000516 	movweq	r0, #1302	; 0x516
     330:	3b0b3a08 	blcc	2ceb58 <__bss_end__+0x2c3cb0>
     334:	490b390b 	stmdbmi	fp, {r0, r1, r3, r8, fp, ip, sp}
     338:	00180213 	andseq	r0, r8, r3, lsl r2
     33c:	00341700 	eorseq	r1, r4, r0, lsl #14
     340:	0b3a0803 	bleq	e82354 <__bss_end__+0xe774ac>
     344:	0b390b3b 	bleq	e43038 <__bss_end__+0xe38190>
     348:	17021349 	strne	r1, [r2, -r9, asr #6]
     34c:	001742b7 			; <UNDEFINED> instruction: 0x001742b7
     350:	011d1800 	tsteq	sp, r0, lsl #16
     354:	01521331 	cmpeq	r2, r1, lsr r3
     358:	110b42b8 			; <UNDEFINED> instruction: 0x110b42b8
     35c:	58061201 	stmdapl	r6, {r0, r9, ip}
     360:	570b590b 	strpl	r5, [fp, -fp, lsl #18]
     364:	0013010b 	andseq	r0, r3, fp, lsl #2
     368:	00051900 	andeq	r1, r5, r0, lsl #18
     36c:	17021331 	smladxne	r2, r1, r3, r1
     370:	001742b7 			; <UNDEFINED> instruction: 0x001742b7
     374:	82891a00 	addhi	r1, r9, #0, 20
     378:	01110101 	tsteq	r1, r1, lsl #2
     37c:	00001331 	andeq	r1, r0, r1, lsr r3
     380:	01828a1b 	orreq	r8, r2, fp, lsl sl
     384:	91180200 	tstls	r8, r0, lsl #4
     388:	00001842 	andeq	r1, r0, r2, asr #16
     38c:	0182891c 	orreq	r8, r2, ip, lsl r9
     390:	31011101 	tstcc	r1, r1, lsl #2
     394:	00130113 	andseq	r0, r3, r3, lsl r1
     398:	012e1d00 			; <UNDEFINED> instruction: 0x012e1d00
     39c:	0e03193f 			; <UNDEFINED> instruction: 0x0e03193f
     3a0:	0b3b0b3a 	bleq	ec3090 <__bss_end__+0xeb81e8>
     3a4:	19270b39 	stmdbne	r7!, {r0, r3, r4, r5, r8, r9, fp}
     3a8:	06120111 			; <UNDEFINED> instruction: 0x06120111
     3ac:	42971840 	addsmi	r1, r7, #64, 16	; 0x400000
     3b0:	00130119 	andseq	r0, r3, r9, lsl r1
     3b4:	00341e00 	eorseq	r1, r4, r0, lsl #28
     3b8:	13490e03 	movtne	r0, #40451	; 0x9e03
     3bc:	18021934 	stmdane	r2, {r2, r4, r5, r8, fp, ip}
     3c0:	0b1f0000 	bleq	7c03c8 <__bss_end__+0x7b5520>
     3c4:	12011101 	andne	r1, r1, #1073741824	; 0x40000000
     3c8:	00130106 	andseq	r0, r3, r6, lsl #2
     3cc:	82892000 	addhi	r2, r9, #0, 0
     3d0:	01110001 	tsteq	r1, r1
     3d4:	00001331 	andeq	r1, r0, r1, lsr r3
     3d8:	03003421 	movweq	r3, #1057	; 0x421
     3dc:	3b0b3a0e 	blcc	2cec1c <__bss_end__+0x2c3d74>
     3e0:	490b390b 	stmdbmi	fp, {r0, r1, r3, r8, fp, ip, sp}
     3e4:	b7170213 			; <UNDEFINED> instruction: 0xb7170213
     3e8:	00001742 	andeq	r1, r0, r2, asr #14
     3ec:	00002622 	andeq	r2, r0, r2, lsr #12
     3f0:	00052300 	andeq	r2, r5, r0, lsl #6
     3f4:	0b3a0803 	bleq	e82408 <__bss_end__+0xe77560>
     3f8:	0b390b3b 	bleq	e430ec <__bss_end__+0xe38244>
     3fc:	17021349 	strne	r1, [r2, -r9, asr #6]
     400:	001742b7 			; <UNDEFINED> instruction: 0x001742b7
     404:	00342400 	eorseq	r2, r4, r0, lsl #8
     408:	0b3a0e03 	bleq	e83c1c <__bss_end__+0xe78d74>
     40c:	0b390b3b 	bleq	e43100 <__bss_end__+0xe38258>
     410:	00001349 	andeq	r1, r0, r9, asr #6
     414:	55010b25 	strpl	r0, [r1, #-2853]	; 0xfffff4db
     418:	26000017 			; <UNDEFINED> instruction: 0x26000017
     41c:	0111010b 	tsteq	r1, fp, lsl #2
     420:	00000612 	andeq	r0, r0, r2, lsl r6
     424:	3f002e27 	svccc	0x00002e27
     428:	3a0e0319 	bcc	381094 <__bss_end__+0x3761ec>
     42c:	390b3b0b 	stmdbcc	fp, {r0, r1, r3, r8, r9, fp, ip, sp}
     430:	4919270b 	ldmdbmi	r9, {r0, r1, r3, r8, r9, sl, sp}
     434:	12011113 	andne	r1, r1, #-1073741820	; 0xc0000004
     438:	97184006 	ldrls	r4, [r8, -r6]
     43c:	00001942 	andeq	r1, r0, r2, asr #18
     440:	03012e28 	movweq	r2, #7720	; 0x1e28
     444:	3b0b3a0e 	blcc	2cec84 <__bss_end__+0x2c3ddc>
     448:	270b390b 	strcs	r3, [fp, -fp, lsl #18]
     44c:	12011119 	andne	r1, r1, #1073741830	; 0x40000006
     450:	97184006 	ldrls	r4, [r8, -r6]
     454:	13011942 	movwne	r1, #6466	; 0x1942
     458:	2e290000 	cdpcs	0, 2, cr0, cr9, cr0, {0}
     45c:	3a0e0301 	bcc	381068 <__bss_end__+0x3761c0>
     460:	390b3b0b 	stmdbcc	fp, {r0, r1, r3, r8, r9, fp, ip, sp}
     464:	4919270b 	ldmdbmi	r9, {r0, r1, r3, r8, r9, sl, sp}
     468:	010b2013 	tsteq	fp, r3, lsl r0
     46c:	2a000013 	bcs	4c0 <__code_start__-0x7b40>
     470:	08030005 	stmdaeq	r3, {r0, r2}
     474:	0b3b0b3a 	bleq	ec3164 <__bss_end__+0xeb82bc>
     478:	13490b39 	movtne	r0, #39737	; 0x9b39
     47c:	2e2b0000 	cdpcs	0, 2, cr0, cr11, cr0, {0}
     480:	3c193f00 	ldccc	15, cr3, [r9], {-0}
     484:	030e6e19 	movweq	r6, #60953	; 0xee19
     488:	3b0b3a0e 	blcc	2cecc8 <__bss_end__+0x2c3e20>
     48c:	000b390b 	andeq	r3, fp, fp, lsl #18
     490:	11010000 	mrsne	r0, (UNDEF: 1)
     494:	130e2501 	movwne	r2, #58625	; 0xe501
     498:	1b0e030b 	blne	3810cc <__bss_end__+0x376224>
     49c:	1201110e 	andne	r1, r1, #-2147483645	; 0x80000003
     4a0:	00171006 	andseq	r1, r7, r6
     4a4:	00240200 	eoreq	r0, r4, r0, lsl #4
     4a8:	0b3e0b0b 	bleq	f830dc <__bss_end__+0xf78234>
     4ac:	00000803 	andeq	r0, r0, r3, lsl #16
     4b0:	0b002403 	bleq	94c4 <va_printk+0x2b0>
     4b4:	030b3e0b 	movweq	r3, #48651	; 0xbe0b
     4b8:	0400000e 	streq	r0, [r0], #-14
     4bc:	13490026 	movtne	r0, #36902	; 0x9026
     4c0:	16050000 	strne	r0, [r5], -r0
     4c4:	3a0e0300 	bcc	3810cc <__bss_end__+0x376224>
     4c8:	390b3b0b 	stmdbcc	fp, {r0, r1, r3, r8, r9, fp, ip, sp}
     4cc:	0013490b 	andseq	r4, r3, fp, lsl #18
     4d0:	01150600 	tsteq	r5, r0, lsl #12
     4d4:	13491927 	movtne	r1, #39207	; 0x9927
     4d8:	00001301 	andeq	r1, r0, r1, lsl #6
     4dc:	49000507 	stmdbmi	r0, {r0, r1, r2, r8, sl}
     4e0:	08000013 	stmdaeq	r0, {r0, r1, r4}
     4e4:	0e030034 	mcreq	0, 0, r0, cr3, cr4, {1}
     4e8:	0b3b0b3a 	bleq	ec31d8 <__bss_end__+0xeb8330>
     4ec:	13490b39 	movtne	r0, #39737	; 0x9b39
     4f0:	193c193f 	ldmdbne	ip!, {r0, r1, r2, r3, r4, r5, r8, fp, ip}
     4f4:	0f090000 	svceq	0x00090000
     4f8:	490b0b00 	stmdbmi	fp, {r8, r9, fp}
     4fc:	0a000013 	beq	550 <__code_start__-0x7ab0>
     500:	0b0b0113 	bleq	2c0954 <__bss_end__+0x2b5aac>
     504:	0b3b0b3a 	bleq	ec31f4 <__bss_end__+0xeb834c>
     508:	13010b39 	movwne	r0, #6969	; 0x1b39
     50c:	0d0b0000 	stceq	0, cr0, [fp, #-0]
     510:	3a0e0300 	bcc	381118 <__bss_end__+0x376270>
     514:	390b3b0b 	stmdbcc	fp, {r0, r1, r3, r8, r9, fp, ip, sp}
     518:	3813490b 	ldmdacc	r3, {r0, r1, r3, r8, fp, lr}
     51c:	0c00000b 	stceq	0, cr0, [r0], {11}
     520:	0b3e0104 	bleq	f80938 <__bss_end__+0xf75a90>
     524:	13490b0b 	movtne	r0, #39691	; 0x9b0b
     528:	0b3b0b3a 	bleq	ec3218 <__bss_end__+0xeb8370>
     52c:	13010b39 	movwne	r0, #6969	; 0x1b39
     530:	280d0000 	stmdacs	sp, {}	; <UNPREDICTABLE>
     534:	1c0e0300 	stcne	3, cr0, [lr], {-0}
     538:	0e00000b 	cdpeq	0, 0, cr0, cr0, cr11, {0}
     53c:	0e030034 	mcreq	0, 0, r0, cr3, cr4, {1}
     540:	0b3b0b3a 	bleq	ec3230 <__bss_end__+0xeb8388>
     544:	13490b39 	movtne	r0, #39737	; 0x9b39
     548:	00000b1c 	andeq	r0, r0, ip, lsl fp
     54c:	0301130f 	movweq	r1, #4879	; 0x130f
     550:	3a0b0b0e 	bcc	2c3190 <__bss_end__+0x2b82e8>
     554:	390b3b0b 	stmdbcc	fp, {r0, r1, r3, r8, r9, fp, ip, sp}
     558:	0013010b 	andseq	r0, r3, fp, lsl #2
     55c:	000d1000 	andeq	r1, sp, r0
     560:	0b3a0803 	bleq	e82574 <__bss_end__+0xe776cc>
     564:	0b390b3b 	bleq	e43258 <__bss_end__+0xe383b0>
     568:	0b381349 	bleq	e05294 <__bss_end__+0xdfa3ec>
     56c:	01110000 	tsteq	r1, r0
     570:	01134901 	tsteq	r3, r1, lsl #18
     574:	12000013 	andne	r0, r0, #19, 0
     578:	13490021 	movtne	r0, #36897	; 0x9021
     57c:	00000b2f 	andeq	r0, r0, pc, lsr #22
     580:	03003413 	movweq	r3, #1043	; 0x413
     584:	3b0b3a0e 	blcc	2cedc4 <__bss_end__+0x2c3f1c>
     588:	490b390b 	stmdbmi	fp, {r0, r1, r3, r8, fp, ip, sp}
     58c:	14000013 	strne	r0, [r0], #-19	; 0xffffffed
     590:	0b0b000f 	bleq	2c05d4 <__bss_end__+0x2b572c>
     594:	34150000 	ldrcc	r0, [r5], #-0
     598:	3a0e0300 	bcc	3811a0 <__bss_end__+0x3762f8>
     59c:	390b3b0b 	stmdbcc	fp, {r0, r1, r3, r8, r9, fp, ip, sp}
     5a0:	0213490b 	andseq	r4, r3, #180224	; 0x2c000
     5a4:	16000018 			; <UNDEFINED> instruction: 0x16000018
     5a8:	193f012e 	ldmdbne	pc!, {r1, r2, r3, r5, r8}	; <UNPREDICTABLE>
     5ac:	0b3a0e03 	bleq	e83dc0 <__bss_end__+0xe78f18>
     5b0:	0b39053b 	bleq	e41aa4 <__bss_end__+0xe36bfc>
     5b4:	01111927 	tsteq	r1, r7, lsr #18
     5b8:	18400612 	stmdane	r0, {r1, r4, r9, sl}^
     5bc:	01194297 			; <UNDEFINED> instruction: 0x01194297
     5c0:	17000013 	smladne	r0, r3, r0, r0
     5c4:	0e030034 	mcreq	0, 0, r0, cr3, cr4, {1}
     5c8:	19341349 	ldmdbne	r4!, {r0, r3, r6, r8, r9, ip}
     5cc:	00001802 	andeq	r1, r0, r2, lsl #16
     5d0:	01828918 	orreq	r8, r2, r8, lsl r9
     5d4:	31011101 	tstcc	r1, r1, lsl #2
     5d8:	00130113 	andseq	r0, r3, r3, lsl r1
     5dc:	828a1900 	addhi	r1, sl, #0, 18
     5e0:	18020001 	stmdane	r2, {r0}
     5e4:	00184291 	mulseq	r8, r1, r2
     5e8:	82891a00 	addhi	r1, r9, #0, 20
     5ec:	01110001 	tsteq	r1, r1
     5f0:	00001331 	andeq	r1, r0, r1, lsr r3
     5f4:	3f012e1b 	svccc	0x00012e1b
     5f8:	3a0e0319 	bcc	381264 <__bss_end__+0x3763bc>
     5fc:	39053b0b 	stmdbcc	r5, {r0, r1, r3, r8, r9, fp, ip, sp}
     600:	4919270b 	ldmdbmi	r9, {r0, r1, r3, r8, r9, sl, sp}
     604:	12011113 	andne	r1, r1, #-1073741820	; 0xc0000004
     608:	97184006 	ldrls	r4, [r8, -r6]
     60c:	13011942 	movwne	r1, #6466	; 0x1942
     610:	341c0000 	ldrcc	r0, [ip], #-0
     614:	3a0e0300 	bcc	38121c <__bss_end__+0x376374>
     618:	39053b0b 	stmdbcc	r5, {r0, r1, r3, r8, r9, fp, ip, sp}
     61c:	0213490b 	andseq	r4, r3, #180224	; 0x2c000
     620:	1742b717 	smlaldne	fp, r2, r7, r7
     624:	2e1d0000 	cdpcs	0, 1, cr0, cr13, cr0, {0}
     628:	3a0e0301 	bcc	381234 <__bss_end__+0x37638c>
     62c:	390b3b0b 	stmdbcc	fp, {r0, r1, r3, r8, r9, fp, ip, sp}
     630:	4919270b 	ldmdbmi	r9, {r0, r1, r3, r8, r9, sl, sp}
     634:	12011113 	andne	r1, r1, #-1073741820	; 0xc0000004
     638:	97184006 	ldrls	r4, [r8, -r6]
     63c:	13011942 	movwne	r1, #6466	; 0x1942
     640:	341e0000 	ldrcc	r0, [lr], #-0
     644:	3a0e0300 	bcc	38124c <__bss_end__+0x3763a4>
     648:	390b3b0b 	stmdbcc	fp, {r0, r1, r3, r8, r9, fp, ip, sp}
     64c:	0213490b 	andseq	r4, r3, #180224	; 0x2c000
     650:	1742b717 	smlaldne	fp, r2, r7, r7
     654:	891f0000 	ldmdbhi	pc, {}	; <UNPREDICTABLE>
     658:	11010182 	smlabbne	r1, r2, r1, r0
     65c:	00133101 	andseq	r3, r3, r1, lsl #2
     660:	012e2000 			; <UNDEFINED> instruction: 0x012e2000
     664:	0e03193f 			; <UNDEFINED> instruction: 0x0e03193f
     668:	0b3b0b3a 	bleq	ec3358 <__bss_end__+0xeb84b0>
     66c:	19270b39 	stmdbne	r7!, {r0, r3, r4, r5, r8, r9, fp}
     670:	01111349 	tsteq	r1, r9, asr #6
     674:	18400612 	stmdane	r0, {r1, r4, r9, sl}^
     678:	01194297 			; <UNDEFINED> instruction: 0x01194297
     67c:	21000013 	tstcs	r0, r3, lsl r0
     680:	193f012e 	ldmdbne	pc!, {r1, r2, r3, r5, r8}	; <UNPREDICTABLE>
     684:	0b3a0e03 	bleq	e83e98 <__bss_end__+0xe78ff0>
     688:	0b390b3b 	bleq	e4337c <__bss_end__+0xe384d4>
     68c:	01111927 	tsteq	r1, r7, lsr #18
     690:	18400612 	stmdane	r0, {r1, r4, r9, sl}^
     694:	01194297 			; <UNDEFINED> instruction: 0x01194297
     698:	22000013 	andcs	r0, r0, #19, 0
     69c:	0e030005 	cdpeq	0, 0, cr0, cr3, cr5, {0}
     6a0:	0b3b0b3a 	bleq	ec3390 <__bss_end__+0xeb84e8>
     6a4:	13490b39 	movtne	r0, #39737	; 0x9b39
     6a8:	42b71702 	adcsmi	r1, r7, #524288	; 0x80000
     6ac:	23000017 	movwcs	r0, #23
     6b0:	0e03012e 	adfeqsp	f0, f3, #0.5
     6b4:	0b3b0b3a 	bleq	ec33a4 <__bss_end__+0xeb84fc>
     6b8:	19270b39 	stmdbne	r7!, {r0, r3, r4, r5, r8, r9, fp}
     6bc:	06120111 			; <UNDEFINED> instruction: 0x06120111
     6c0:	42971840 	addsmi	r1, r7, #64, 16	; 0x400000
     6c4:	00130119 	andseq	r0, r3, r9, lsl r1
     6c8:	00342400 	eorseq	r2, r4, r0, lsl #8
     6cc:	13490e03 	movtne	r0, #40451	; 0x9e03
     6d0:	00001934 	andeq	r1, r0, r4, lsr r9
     6d4:	03003425 	movweq	r3, #1061	; 0x425
     6d8:	3b0b3a0e 	blcc	2cef18 <__bss_end__+0x2c4070>
     6dc:	490b390b 	stmdbmi	fp, {r0, r1, r3, r8, fp, ip, sp}
     6e0:	00061c13 	andeq	r1, r6, r3, lsl ip
     6e4:	010b2600 	tsteq	fp, r0, lsl #12
     6e8:	06120111 			; <UNDEFINED> instruction: 0x06120111
     6ec:	00001301 	andeq	r1, r0, r1, lsl #6
     6f0:	03003427 	movweq	r3, #1063	; 0x427
     6f4:	3b0b3a08 	blcc	2cef1c <__bss_end__+0x2c4074>
     6f8:	490b390b 	stmdbmi	fp, {r0, r1, r3, r8, fp, ip, sp}
     6fc:	b7170213 			; <UNDEFINED> instruction: 0xb7170213
     700:	00001742 	andeq	r1, r0, r2, asr #14
     704:	55010b28 	strpl	r0, [r1, #-2856]	; 0xfffff4d8
     708:	00130117 	andseq	r0, r3, r7, lsl r1
     70c:	00052900 	andeq	r2, r5, r0, lsl #18
     710:	0b3a0803 	bleq	e82724 <__bss_end__+0xe7787c>
     714:	0b390b3b 	bleq	e43408 <__bss_end__+0xe38560>
     718:	17021349 	strne	r1, [r2, -r9, asr #6]
     71c:	001742b7 			; <UNDEFINED> instruction: 0x001742b7
     720:	010b2a00 	tsteq	fp, r0, lsl #20
     724:	00001755 	andeq	r1, r0, r5, asr r7
     728:	3f002e2b 	svccc	0x00002e2b
     72c:	6e193c19 	mrcvs	12, 0, r3, cr9, cr9, {0}
     730:	3a0e030e 	bcc	381370 <__bss_end__+0x3764c8>
     734:	390b3b0b 	stmdbcc	fp, {r0, r1, r3, r8, r9, fp, ip, sp}
     738:	0000000b 	andeq	r0, r0, fp
     73c:	25011101 	strcs	r1, [r1, #-257]	; 0xfffffeff
     740:	030b130e 	movweq	r1, #45838	; 0xb30e
     744:	110e1b0e 	tstne	lr, lr, lsl #22
     748:	10061201 	andne	r1, r6, r1, lsl #4
     74c:	02000017 	andeq	r0, r0, #23, 0
     750:	0b0b0024 	bleq	2c07e8 <__bss_end__+0x2b5940>
     754:	08030b3e 	stmdaeq	r3, {r1, r2, r3, r4, r5, r8, r9, fp}
     758:	24030000 	strcs	r0, [r3], #-0
     75c:	3e0b0b00 	vmlacc.f64	d0, d11, d0
     760:	000e030b 	andeq	r0, lr, fp, lsl #6
     764:	01150400 	tsteq	r5, r0, lsl #8
     768:	13491927 	movtne	r1, #39207	; 0x9927
     76c:	00001301 	andeq	r1, r0, r1, lsl #6
     770:	49000505 	stmdbmi	r0, {r0, r2, r8, sl}
     774:	06000013 			; <UNDEFINED> instruction: 0x06000013
     778:	0e030034 	mcreq	0, 0, r0, cr3, cr4, {1}
     77c:	0b3b0b3a 	bleq	ec346c <__bss_end__+0xeb85c4>
     780:	13490b39 	movtne	r0, #39737	; 0x9b39
     784:	193c193f 	ldmdbne	ip!, {r0, r1, r2, r3, r4, r5, r8, fp, ip}
     788:	0f070000 	svceq	0x00070000
     78c:	490b0b00 	stmdbmi	fp, {r8, r9, fp}
     790:	08000013 	stmdaeq	r0, {r0, r1, r4}
     794:	13490026 	movtne	r0, #36902	; 0x9026
     798:	17090000 	strne	r0, [r9, -r0]
     79c:	0b0e0301 	bleq	3813a8 <__bss_end__+0x376500>
     7a0:	3b0b3a0b 	blcc	2cefd4 <__bss_end__+0x2c412c>
     7a4:	010b390b 	tsteq	fp, fp, lsl #18
     7a8:	0a000013 	beq	7fc <__code_start__-0x7804>
     7ac:	0803000d 	stmdaeq	r3, {r0, r2, r3}
     7b0:	0b3b0b3a 	bleq	ec34a0 <__bss_end__+0xeb85f8>
     7b4:	13490b39 	movtne	r0, #39737	; 0x9b39
     7b8:	0f0b0000 	svceq	0x000b0000
     7bc:	000b0b00 	andeq	r0, fp, r0, lsl #22
     7c0:	00150c00 	andseq	r0, r5, r0, lsl #24
     7c4:	00001927 	andeq	r1, r0, r7, lsr #18
     7c8:	0b01130d 	bleq	45404 <__bss_end__+0x3a55c>
     7cc:	3b0b3a0b 	blcc	2cf000 <__bss_end__+0x2c4158>
     7d0:	010b390b 	tsteq	fp, fp, lsl #18
     7d4:	0e000013 	mcreq	0, 0, r0, cr0, cr3, {0}
     7d8:	0803000d 	stmdaeq	r3, {r0, r2, r3}
     7dc:	0b3b0b3a 	bleq	ec34cc <__bss_end__+0xeb8624>
     7e0:	13490b39 	movtne	r0, #39737	; 0x9b39
     7e4:	00000b38 	andeq	r0, r0, r8, lsr fp
     7e8:	03000d0f 	movweq	r0, #3343	; 0xd0f
     7ec:	3b0b3a0e 	blcc	2cf02c <__bss_end__+0x2c4184>
     7f0:	490b390b 	stmdbmi	fp, {r0, r1, r3, r8, fp, ip, sp}
     7f4:	000b3813 	andeq	r3, fp, r3, lsl r8
     7f8:	00161000 	andseq	r1, r6, r0
     7fc:	0b3a0e03 	bleq	e84010 <__bss_end__+0xe79168>
     800:	0b390b3b 	bleq	e434f4 <__bss_end__+0xe3864c>
     804:	00001349 	andeq	r1, r0, r9, asr #6
     808:	03003411 	movweq	r3, #1041	; 0x411
     80c:	3b0b3a0e 	blcc	2cf04c <__bss_end__+0x2c41a4>
     810:	490b390b 	stmdbmi	fp, {r0, r1, r3, r8, fp, ip, sp}
     814:	00180213 	andseq	r0, r8, r3, lsl r2
     818:	012e1200 			; <UNDEFINED> instruction: 0x012e1200
     81c:	0e03193f 			; <UNDEFINED> instruction: 0x0e03193f
     820:	0b3b0b3a 	bleq	ec3510 <__bss_end__+0xeb8668>
     824:	19270b39 	stmdbne	r7!, {r0, r3, r4, r5, r8, r9, fp}
     828:	06120111 			; <UNDEFINED> instruction: 0x06120111
     82c:	42971840 	addsmi	r1, r7, #64, 16	; 0x400000
     830:	00130119 	andseq	r0, r3, r9, lsl r1
     834:	00051300 	andeq	r1, r5, r0, lsl #6
     838:	0b3a0803 	bleq	e8284c <__bss_end__+0xe779a4>
     83c:	0b390b3b 	bleq	e43530 <__bss_end__+0xe38688>
     840:	18021349 	stmdane	r2, {r0, r3, r6, r8, r9, ip}
     844:	34140000 	ldrcc	r0, [r4], #-0
     848:	3a080300 	bcc	201450 <__bss_end__+0x1f65a8>
     84c:	390b3b0b 	stmdbcc	fp, {r0, r1, r3, r8, r9, fp, ip, sp}
     850:	0213490b 	andseq	r4, r3, #180224	; 0x2c000
     854:	1742b717 	smlaldne	fp, r2, r7, r7
     858:	2e150000 	cdpcs	0, 1, cr0, cr5, cr0, {0}
     85c:	03193f01 	tsteq	r9, #1, 30
     860:	3b0b3a0e 	blcc	2cf0a0 <__bss_end__+0x2c41f8>
     864:	270b390b 	strcs	r3, [fp, -fp, lsl #18]
     868:	11134919 	tstne	r3, r9, lsl r9
     86c:	40061201 	andmi	r1, r6, r1, lsl #4
     870:	19429718 	stmdbne	r2, {r3, r4, r8, r9, sl, ip, pc}^
     874:	00001301 	andeq	r1, r0, r1, lsl #6
     878:	03000516 	movweq	r0, #1302	; 0x516
     87c:	3b0b3a0e 	blcc	2cf0bc <__bss_end__+0x2c4214>
     880:	490b390b 	stmdbmi	fp, {r0, r1, r3, r8, fp, ip, sp}
     884:	b7170213 			; <UNDEFINED> instruction: 0xb7170213
     888:	00001742 	andeq	r1, r0, r2, asr #14
     88c:	03003417 	movweq	r3, #1047	; 0x417
     890:	3b0b3a0e 	blcc	2cf0d0 <__bss_end__+0x2c4228>
     894:	490b390b 	stmdbmi	fp, {r0, r1, r3, r8, fp, ip, sp}
     898:	b7170213 			; <UNDEFINED> instruction: 0xb7170213
     89c:	00001742 	andeq	r1, r0, r2, asr #14
     8a0:	3f012e18 	svccc	0x00012e18
     8a4:	3a0e0319 	bcc	381510 <__bss_end__+0x376668>
     8a8:	390b3b0b 	stmdbcc	fp, {r0, r1, r3, r8, r9, fp, ip, sp}
     8ac:	4919270b 	ldmdbmi	r9, {r0, r1, r3, r8, r9, sl, sp}
     8b0:	01193c13 	tsteq	r9, r3, lsl ip
     8b4:	19000013 	stmdbne	r0, {r0, r1, r4}
     8b8:	01018289 	smlabbeq	r1, r9, r2, r8
     8bc:	13310111 	teqne	r1, #1073741828	; 0x40000004
     8c0:	8a1a0000 	bhi	6808c8 <__bss_end__+0x675a20>
     8c4:	02000182 	andeq	r0, r0, #-2147483616	; 0x80000020
     8c8:	18429118 	stmdane	r2, {r3, r4, r8, ip, pc}^
     8cc:	2e1b0000 	cdpcs	0, 1, cr0, cr11, cr0, {0}
     8d0:	3a0e0301 	bcc	3814dc <__bss_end__+0x376634>
     8d4:	390b3b0b 	stmdbcc	fp, {r0, r1, r3, r8, r9, fp, ip, sp}
     8d8:	4919270b 	ldmdbmi	r9, {r0, r1, r3, r8, r9, sl, sp}
     8dc:	12011113 	andne	r1, r1, #-1073741820	; 0xc0000004
     8e0:	97184006 	ldrls	r4, [r8, -r6]
     8e4:	13011942 	movwne	r1, #6466	; 0x1942
     8e8:	051c0000 	ldreq	r0, [ip, #-0]
     8ec:	3a080300 	bcc	2014f4 <__bss_end__+0x1f664c>
     8f0:	390b3b0b 	stmdbcc	fp, {r0, r1, r3, r8, r9, fp, ip, sp}
     8f4:	0213490b 	andseq	r4, r3, #180224	; 0x2c000
     8f8:	1742b717 	smlaldne	fp, r2, r7, r7
     8fc:	891d0000 	ldmdbhi	sp, {}	; <UNPREDICTABLE>
     900:	11010182 	smlabbne	r1, r2, r1, r0
     904:	01133101 	tsteq	r3, r1, lsl #2
     908:	1e000013 	mcrne	0, 0, r0, cr0, cr3, {0}
     90c:	00018289 	andeq	r8, r1, r9, lsl #5
     910:	13310111 	teqne	r1, #1073741828	; 0x40000004
     914:	2e1f0000 	cdpcs	0, 1, cr0, cr15, cr0, {0}
     918:	3c193f00 	ldccc	15, cr3, [r9], {-0}
     91c:	030e6e19 	movweq	r6, #60953	; 0xee19
     920:	3b0b3a0e 	blcc	2cf160 <__bss_end__+0x2c42b8>
     924:	000b390b 	andeq	r3, fp, fp, lsl #18
     928:	11010000 	mrsne	r0, (UNDEF: 1)
     92c:	130e2501 	movwne	r2, #58625	; 0xe501
     930:	1b0e030b 	blne	381564 <__bss_end__+0x3766bc>
     934:	1201110e 	andne	r1, r1, #-2147483645	; 0x80000003
     938:	00171006 	andseq	r1, r7, r6
     93c:	00240200 	eoreq	r0, r4, r0, lsl #4
     940:	0b3e0b0b 	bleq	f83574 <__bss_end__+0xf786cc>
     944:	00000803 	andeq	r0, r0, r3, lsl #16
     948:	03001603 	movweq	r1, #1539	; 0x603
     94c:	3b0b3a0e 	blcc	2cf18c <__bss_end__+0x2c42e4>
     950:	490b390b 	stmdbmi	fp, {r0, r1, r3, r8, fp, ip, sp}
     954:	04000013 	streq	r0, [r0], #-19	; 0xffffffed
     958:	0b0b0024 	bleq	2c09f0 <__bss_end__+0x2b5b48>
     95c:	0e030b3e 	vmoveq.16	d3[0], r0
     960:	26050000 	strcs	r0, [r5], -r0
     964:	00134900 	andseq	r4, r3, r0, lsl #18
     968:	01150600 	tsteq	r5, r0, lsl #12
     96c:	13491927 	movtne	r1, #39207	; 0x9927
     970:	00001301 	andeq	r1, r0, r1, lsl #6
     974:	49000507 	stmdbmi	r0, {r0, r1, r2, r8, sl}
     978:	08000013 	stmdaeq	r0, {r0, r1, r4}
     97c:	0e030034 	mcreq	0, 0, r0, cr3, cr4, {1}
     980:	0b3b0b3a 	bleq	ec3670 <__bss_end__+0xeb87c8>
     984:	13490b39 	movtne	r0, #39737	; 0x9b39
     988:	193c193f 	ldmdbne	ip!, {r0, r1, r2, r3, r4, r5, r8, fp, ip}
     98c:	0f090000 	svceq	0x00090000
     990:	490b0b00 	stmdbmi	fp, {r8, r9, fp}
     994:	0a000013 	beq	9e8 <__code_start__-0x7618>
     998:	193f012e 	ldmdbne	pc!, {r1, r2, r3, r5, r8}	; <UNPREDICTABLE>
     99c:	0b3a0e03 	bleq	e841b0 <__bss_end__+0xe79308>
     9a0:	0b390b3b 	bleq	e43694 <__bss_end__+0xe387ec>
     9a4:	13491927 	movtne	r1, #39207	; 0x9927
     9a8:	06120111 			; <UNDEFINED> instruction: 0x06120111
     9ac:	42971840 	addsmi	r1, r7, #64, 16	; 0x400000
     9b0:	00130119 	andseq	r0, r3, r9, lsl r1
     9b4:	00050b00 	andeq	r0, r5, r0, lsl #22
     9b8:	0b3a0803 	bleq	e829cc <__bss_end__+0xe77b24>
     9bc:	0b390b3b 	bleq	e436b0 <__bss_end__+0xe38808>
     9c0:	17021349 	strne	r1, [r2, -r9, asr #6]
     9c4:	001742b7 			; <UNDEFINED> instruction: 0x001742b7
     9c8:	00050c00 	andeq	r0, r5, r0, lsl #24
     9cc:	0b3a0803 	bleq	e829e0 <__bss_end__+0xe77b38>
     9d0:	0b390b3b 	bleq	e436c4 <__bss_end__+0xe3881c>
     9d4:	18021349 	stmdane	r2, {r0, r3, r6, r8, r9, ip}
     9d8:	050d0000 	streq	r0, [sp, #-0]
     9dc:	3a0e0300 	bcc	3815e4 <__bss_end__+0x37673c>
     9e0:	390b3b0b 	stmdbcc	fp, {r0, r1, r3, r8, r9, fp, ip, sp}
     9e4:	0213490b 	andseq	r4, r3, #180224	; 0x2c000
     9e8:	0e000018 	mcreq	0, 0, r0, cr0, cr8, {0}
     9ec:	08030034 	stmdaeq	r3, {r2, r4, r5}
     9f0:	0b3b0b3a 	bleq	ec36e0 <__bss_end__+0xeb8838>
     9f4:	13490b39 	movtne	r0, #39737	; 0x9b39
     9f8:	42b71702 	adcsmi	r1, r7, #524288	; 0x80000
     9fc:	0f000017 	svceq	0x00000017
     a00:	0111010b 	tsteq	r1, fp, lsl #2
     a04:	00000612 	andeq	r0, r0, r2, lsl r6
     a08:	00002610 	andeq	r2, r0, r0, lsl r6
     a0c:	11010000 	mrsne	r0, (UNDEF: 1)
     a10:	130e2501 	movwne	r2, #58625	; 0xe501
     a14:	1b0e030b 	blne	381648 <__bss_end__+0x3767a0>
     a18:	1201110e 	andne	r1, r1, #-2147483645	; 0x80000003
     a1c:	00171006 	andseq	r1, r7, r6
     a20:	00240200 	eoreq	r0, r4, r0, lsl #4
     a24:	0b3e0b0b 	bleq	f83658 <__bss_end__+0xf787b0>
     a28:	00000803 	andeq	r0, r0, r3, lsl #16
     a2c:	03001603 	movweq	r1, #1539	; 0x603
     a30:	3b0b3a0e 	blcc	2cf270 <__bss_end__+0x2c43c8>
     a34:	490b390b 	stmdbmi	fp, {r0, r1, r3, r8, fp, ip, sp}
     a38:	04000013 	streq	r0, [r0], #-19	; 0xffffffed
     a3c:	0b0b0024 	bleq	2c0ad4 <__bss_end__+0x2b5c2c>
     a40:	0e030b3e 	vmoveq.16	d3[0], r0
     a44:	26050000 	strcs	r0, [r5], -r0
     a48:	00134900 	andseq	r4, r3, r0, lsl #18
     a4c:	01150600 	tsteq	r5, r0, lsl #12
     a50:	13491927 	movtne	r1, #39207	; 0x9927
     a54:	00001301 	andeq	r1, r0, r1, lsl #6
     a58:	49000507 	stmdbmi	r0, {r0, r1, r2, r8, sl}
     a5c:	08000013 	stmdaeq	r0, {r0, r1, r4}
     a60:	0e030034 	mcreq	0, 0, r0, cr3, cr4, {1}
     a64:	0b3b0b3a 	bleq	ec3754 <__bss_end__+0xeb88ac>
     a68:	13490b39 	movtne	r0, #39737	; 0x9b39
     a6c:	193c193f 	ldmdbne	ip!, {r0, r1, r2, r3, r4, r5, r8, fp, ip}
     a70:	0f090000 	svceq	0x00090000
     a74:	490b0b00 	stmdbmi	fp, {r8, r9, fp}
     a78:	0a000013 	beq	acc <__code_start__-0x7534>
     a7c:	193f012e 	ldmdbne	pc!, {r1, r2, r3, r5, r8}	; <UNPREDICTABLE>
     a80:	0b3a0e03 	bleq	e84294 <__bss_end__+0xe793ec>
     a84:	0b390b3b 	bleq	e43778 <__bss_end__+0xe388d0>
     a88:	13491927 	movtne	r1, #39207	; 0x9927
     a8c:	06120111 			; <UNDEFINED> instruction: 0x06120111
     a90:	42971840 	addsmi	r1, r7, #64, 16	; 0x400000
     a94:	00130119 	andseq	r0, r3, r9, lsl r1
     a98:	00050b00 	andeq	r0, r5, r0, lsl #22
     a9c:	0b3a0803 	bleq	e82ab0 <__bss_end__+0xe77c08>
     aa0:	0b390b3b 	bleq	e43794 <__bss_end__+0xe388ec>
     aa4:	18021349 	stmdane	r2, {r0, r3, r6, r8, r9, ip}
     aa8:	050c0000 	streq	r0, [ip, #-0]
     aac:	3a0e0300 	bcc	3816b4 <__bss_end__+0x37680c>
     ab0:	390b3b0b 	stmdbcc	fp, {r0, r1, r3, r8, r9, fp, ip, sp}
     ab4:	0213490b 	andseq	r4, r3, #180224	; 0x2c000
     ab8:	1742b717 	smlaldne	fp, r2, r7, r7
     abc:	340d0000 	strcc	r0, [sp], #-0
     ac0:	490e0300 	stmdbmi	lr, {r8, r9}
     ac4:	1c193413 	cfldrsne	mvf3, [r9], {19}
     ac8:	0e00000e 	cdpeq	0, 0, cr0, cr0, cr14, {0}
     acc:	0111010b 	tsteq	r1, fp, lsl #2
     ad0:	13010612 	movwne	r0, #5650	; 0x1612
     ad4:	340f0000 	strcc	r0, [pc], #-0	; adc <__code_start__-0x7524>
     ad8:	3a080300 	bcc	2016e0 <__bss_end__+0x1f6838>
     adc:	390b3b0b 	stmdbcc	fp, {r0, r1, r3, r8, r9, fp, ip, sp}
     ae0:	0213490b 	andseq	r4, r3, #180224	; 0x2c000
     ae4:	1742b717 	smlaldne	fp, r2, r7, r7
     ae8:	0b100000 	bleq	400af0 <__bss_end__+0x3f5c48>
     aec:	12011101 	andne	r1, r1, #1073741824	; 0x40000000
     af0:	11000006 	tstne	r0, r6
     af4:	08030034 	stmdaeq	r3, {r2, r4, r5}
     af8:	0b3b0b3a 	bleq	ec37e8 <__bss_end__+0xeb8940>
     afc:	13490b39 	movtne	r0, #39737	; 0x9b39
     b00:	0f120000 	svceq	0x00120000
     b04:	000b0b00 	andeq	r0, fp, r0, lsl #22
     b08:	00261300 	eoreq	r1, r6, r0, lsl #6
     b0c:	01140000 	tsteq	r4, r0
     b10:	01134901 	tsteq	r3, r1, lsl #18
     b14:	15000013 	strne	r0, [r0, #-19]	; 0xffffffed
     b18:	13490021 	movtne	r0, #36897	; 0x9021
     b1c:	00000b2f 	andeq	r0, r0, pc, lsr #22
     b20:	01110100 	tsteq	r1, r0, lsl #2
     b24:	0b130e25 	bleq	4c43c0 <__bss_end__+0x4b9518>
     b28:	0e1b0e03 	cdpeq	14, 1, cr0, cr11, cr3, {0}
     b2c:	06120111 			; <UNDEFINED> instruction: 0x06120111
     b30:	00001710 	andeq	r1, r0, r0, lsl r7
     b34:	0b002402 	bleq	9b44 <kmalloc_init+0x4c>
     b38:	030b3e0b 	movweq	r3, #48651	; 0xbe0b
     b3c:	03000008 	movweq	r0, #8
     b40:	0e030016 	mcreq	0, 0, r0, cr3, cr6, {0}
     b44:	0b3b0b3a 	bleq	ec3834 <__bss_end__+0xeb898c>
     b48:	13490b39 	movtne	r0, #39737	; 0x9b39
     b4c:	24040000 	strcs	r0, [r4], #-0
     b50:	3e0b0b00 	vmlacc.f64	d0, d11, d0
     b54:	000e030b 	andeq	r0, lr, fp, lsl #6
     b58:	01150500 	tsteq	r5, r0, lsl #10
     b5c:	13491927 	movtne	r1, #39207	; 0x9927
     b60:	00001301 	andeq	r1, r0, r1, lsl #6
     b64:	49000506 	stmdbmi	r0, {r1, r2, r8, sl}
     b68:	07000013 	smladeq	r0, r3, r0, r0
     b6c:	0e030034 	mcreq	0, 0, r0, cr3, cr4, {1}
     b70:	0b3b0b3a 	bleq	ec3860 <__bss_end__+0xeb89b8>
     b74:	13490b39 	movtne	r0, #39737	; 0x9b39
     b78:	193c193f 	ldmdbne	ip!, {r0, r1, r2, r3, r4, r5, r8, fp, ip}
     b7c:	0f080000 	svceq	0x00080000
     b80:	490b0b00 	stmdbmi	fp, {r8, r9, fp}
     b84:	09000013 	stmdbeq	r0, {r0, r1, r4}
     b88:	13490026 	movtne	r0, #36902	; 0x9026
     b8c:	2e0a0000 	cdpcs	0, 0, cr0, cr10, cr0, {0}
     b90:	03193f01 	tsteq	r9, #1, 30
     b94:	3b0b3a0e 	blcc	2cf3d4 <__bss_end__+0x2c452c>
     b98:	270b390b 	strcs	r3, [fp, -fp, lsl #18]
     b9c:	11134919 	tstne	r3, r9, lsl r9
     ba0:	40061201 	andmi	r1, r6, r1, lsl #4
     ba4:	19429718 	stmdbne	r2, {r3, r4, r8, r9, sl, ip, pc}^
     ba8:	00001301 	andeq	r1, r0, r1, lsl #6
     bac:	0300050b 	movweq	r0, #1291	; 0x50b
     bb0:	3b0b3a08 	blcc	2cf3d8 <__bss_end__+0x2c4530>
     bb4:	490b390b 	stmdbmi	fp, {r0, r1, r3, r8, fp, ip, sp}
     bb8:	00180213 	andseq	r0, r8, r3, lsl r2
     bbc:	00050c00 	andeq	r0, r5, r0, lsl #24
     bc0:	0b3a0803 	bleq	e82bd4 <__bss_end__+0xe77d2c>
     bc4:	0b390b3b 	bleq	e438b8 <__bss_end__+0xe38a10>
     bc8:	17021349 	strne	r1, [r2, -r9, asr #6]
     bcc:	001742b7 			; <UNDEFINED> instruction: 0x001742b7
     bd0:	00340d00 	eorseq	r0, r4, r0, lsl #26
     bd4:	0b3a0803 	bleq	e82be8 <__bss_end__+0xe77d40>
     bd8:	0b390b3b 	bleq	e438cc <__bss_end__+0xe38a24>
     bdc:	17021349 	strne	r1, [r2, -r9, asr #6]
     be0:	001742b7 			; <UNDEFINED> instruction: 0x001742b7
     be4:	000f0e00 	andeq	r0, pc, r0, lsl #28
     be8:	00000b0b 	andeq	r0, r0, fp, lsl #22
     bec:	01110100 	tsteq	r1, r0, lsl #2
     bf0:	0b130e25 	bleq	4c448c <__bss_end__+0x4b95e4>
     bf4:	0e1b0e03 	cdpeq	14, 1, cr0, cr11, cr3, {0}
     bf8:	06120111 			; <UNDEFINED> instruction: 0x06120111
     bfc:	00001710 	andeq	r1, r0, r0, lsl r7
     c00:	03001602 	movweq	r1, #1538	; 0x602
     c04:	3b0b3a0e 	blcc	2cf444 <__bss_end__+0x2c459c>
     c08:	490b390b 	stmdbmi	fp, {r0, r1, r3, r8, fp, ip, sp}
     c0c:	03000013 	movweq	r0, #19
     c10:	0e030113 	mcreq	1, 0, r0, cr3, cr3, {0}
     c14:	0b3a0b0b 	bleq	e83848 <__bss_end__+0xe789a0>
     c18:	13010b3b 	movwne	r0, #6971	; 0x1b3b
     c1c:	0d040000 	stceq	0, cr0, [r4, #-0]
     c20:	490e0300 	stmdbmi	lr, {r8, r9}
     c24:	340b3813 	strcc	r3, [fp], #-2067	; 0xfffff7ed
     c28:	05000019 	streq	r0, [r0, #-25]	; 0xffffffe7
     c2c:	0b0b000f 	bleq	2c0c70 <__bss_end__+0x2b5dc8>
     c30:	24060000 	strcs	r0, [r6], #-0
     c34:	3e0b0b00 	vmlacc.f64	d0, d11, d0
     c38:	0008030b 	andeq	r0, r8, fp, lsl #6
     c3c:	00240700 	eoreq	r0, r4, r0, lsl #14
     c40:	0b3e0b0b 	bleq	f83874 <__bss_end__+0xf789cc>
     c44:	00000e03 	andeq	r0, r0, r3, lsl #28
     c48:	27011508 	strcs	r1, [r1, -r8, lsl #10]
     c4c:	01134919 	tsteq	r3, r9, lsl r9
     c50:	09000013 	stmdbeq	r0, {r0, r1, r4}
     c54:	13490005 	movtne	r0, #36869	; 0x9005
     c58:	340a0000 	strcc	r0, [sl], #-0
     c5c:	3a0e0300 	bcc	381864 <__bss_end__+0x3769bc>
     c60:	390b3b0b 	stmdbcc	fp, {r0, r1, r3, r8, r9, fp, ip, sp}
     c64:	3f13490b 	svccc	0x0013490b
     c68:	00193c19 	andseq	r3, r9, r9, lsl ip
     c6c:	000f0b00 	andeq	r0, pc, r0, lsl #22
     c70:	13490b0b 	movtne	r0, #39691	; 0x9b0b
     c74:	260c0000 	strcs	r0, [ip], -r0
     c78:	00134900 	andseq	r4, r3, r0, lsl #18
     c7c:	012e0d00 			; <UNDEFINED> instruction: 0x012e0d00
     c80:	0e03193f 			; <UNDEFINED> instruction: 0x0e03193f
     c84:	0b3b0b3a 	bleq	ec3974 <__bss_end__+0xeb8acc>
     c88:	19270b39 	stmdbne	r7!, {r0, r3, r4, r5, r8, r9, fp}
     c8c:	01111349 	tsteq	r1, r9, asr #6
     c90:	18400612 	stmdane	r0, {r1, r4, r9, sl}^
     c94:	01194297 			; <UNDEFINED> instruction: 0x01194297
     c98:	0e000013 	mcreq	0, 0, r0, cr0, cr3, {0}
     c9c:	08030005 	stmdaeq	r3, {r0, r2}
     ca0:	0b3b0b3a 	bleq	ec3990 <__bss_end__+0xeb8ae8>
     ca4:	13490b39 	movtne	r0, #39737	; 0x9b39
     ca8:	00001802 	andeq	r1, r0, r2, lsl #16
     cac:	0000180f 	andeq	r1, r0, pc, lsl #16
     cb0:	00341000 	eorseq	r1, r4, r0
     cb4:	0b3a0803 	bleq	e82cc8 <__bss_end__+0xe77e20>
     cb8:	0b390b3b 	bleq	e439ac <__bss_end__+0xe38b04>
     cbc:	18021349 	stmdane	r2, {r0, r3, r6, r8, r9, ip}
     cc0:	34110000 	ldrcc	r0, [r1], #-0
     cc4:	3a0e0300 	bcc	3818cc <__bss_end__+0x376a24>
     cc8:	390b3b0b 	stmdbcc	fp, {r0, r1, r3, r8, r9, fp, ip, sp}
     ccc:	0213490b 	andseq	r4, r3, #180224	; 0x2c000
     cd0:	12000018 	andne	r0, r0, #24, 0
     cd4:	08030034 	stmdaeq	r3, {r2, r4, r5}
     cd8:	0b3b0b3a 	bleq	ec39c8 <__bss_end__+0xeb8b20>
     cdc:	13490b39 	movtne	r0, #39737	; 0x9b39
     ce0:	42b71702 	adcsmi	r1, r7, #524288	; 0x80000
     ce4:	13000017 	movwne	r0, #23
     ce8:	01018289 	smlabbeq	r1, r9, r2, r8
     cec:	13310111 	teqne	r1, #1073741828	; 0x40000004
     cf0:	00001301 	andeq	r1, r0, r1, lsl #6
     cf4:	01828a14 	orreq	r8, r2, r4, lsl sl
     cf8:	91180200 	tstls	r8, r0, lsl #4
     cfc:	00001842 	andeq	r1, r0, r2, asr #16
     d00:	01828915 	orreq	r8, r2, r5, lsl r9
     d04:	00011101 	andeq	r1, r1, r1, lsl #2
     d08:	01011600 	tsteq	r1, r0, lsl #12
     d0c:	13011349 	movwne	r1, #4937	; 0x1349
     d10:	21170000 	tstcs	r7, r0
     d14:	2f134900 	svccs	0x00134900
     d18:	18000005 	stmdane	r0, {r0, r2}
     d1c:	193f002e 	ldmdbne	pc!, {r1, r2, r3, r5}	; <UNPREDICTABLE>
     d20:	0e6e193c 			; <UNDEFINED> instruction: 0x0e6e193c
     d24:	0b3a0e03 	bleq	e84538 <__bss_end__+0xe79690>
     d28:	0b390b3b 	bleq	e43a1c <__bss_end__+0xe38b74>
     d2c:	01000000 	mrseq	r0, (UNDEF: 0)
     d30:	0e250111 	mcreq	1, 1, r0, cr5, cr1, {0}
     d34:	0e030b13 	vmoveq.32	d3[0], r0
     d38:	01110e1b 	tsteq	r1, fp, lsl lr
     d3c:	17100612 			; <UNDEFINED> instruction: 0x17100612
     d40:	24020000 	strcs	r0, [r2], #-0
     d44:	3e0b0b00 	vmlacc.f64	d0, d11, d0
     d48:	0008030b 	andeq	r0, r8, fp, lsl #6
     d4c:	00240300 	eoreq	r0, r4, r0, lsl #6
     d50:	0b3e0b0b 	bleq	f83984 <__bss_end__+0xf78adc>
     d54:	00000e03 	andeq	r0, r0, r3, lsl #28
     d58:	27011504 	strcs	r1, [r1, -r4, lsl #10]
     d5c:	01134919 	tsteq	r3, r9, lsl r9
     d60:	05000013 	streq	r0, [r0, #-19]	; 0xffffffed
     d64:	13490005 	movtne	r0, #36869	; 0x9005
     d68:	34060000 	strcc	r0, [r6], #-0
     d6c:	3a0e0300 	bcc	381974 <__bss_end__+0x376acc>
     d70:	390b3b0b 	stmdbcc	fp, {r0, r1, r3, r8, r9, fp, ip, sp}
     d74:	3f13490b 	svccc	0x0013490b
     d78:	00193c19 	andseq	r3, r9, r9, lsl ip
     d7c:	000f0700 	andeq	r0, pc, r0, lsl #14
     d80:	13490b0b 	movtne	r0, #39691	; 0x9b0b
     d84:	26080000 	strcs	r0, [r8], -r0
     d88:	00134900 	andseq	r4, r3, r0, lsl #18
     d8c:	00340900 	eorseq	r0, r4, r0, lsl #18
     d90:	0b3a1347 	bleq	e85ab4 <__bss_end__+0xe7ac0c>
     d94:	0b390b3b 	bleq	e43a88 <__bss_end__+0xe38be0>
     d98:	00001802 	andeq	r1, r0, r2, lsl #16
     d9c:	3f012e0a 	svccc	0x00012e0a
     da0:	3a0e0319 	bcc	381a0c <__bss_end__+0x376b64>
     da4:	390b3b0b 	stmdbcc	fp, {r0, r1, r3, r8, r9, fp, ip, sp}
     da8:	4919270b 	ldmdbmi	r9, {r0, r1, r3, r8, r9, sl, sp}
     dac:	12011113 	andne	r1, r1, #-1073741820	; 0xc0000004
     db0:	96184006 	ldrls	r4, [r8], -r6
     db4:	00001942 	andeq	r1, r0, r2, asr #18
     db8:	0300050b 	movweq	r0, #1291	; 0x50b
     dbc:	3b0b3a08 	blcc	2cf5e4 <__bss_end__+0x2c473c>
     dc0:	490b390b 	stmdbmi	fp, {r0, r1, r3, r8, fp, ip, sp}
     dc4:	b7170213 			; <UNDEFINED> instruction: 0xb7170213
     dc8:	00001742 	andeq	r1, r0, r2, asr #14
     dcc:	01110100 	tsteq	r1, r0, lsl #2
     dd0:	0b130e25 	bleq	4c466c <__bss_end__+0x4b97c4>
     dd4:	0e1b0e03 	cdpeq	14, 1, cr0, cr11, cr3, {0}
     dd8:	06120111 			; <UNDEFINED> instruction: 0x06120111
     ddc:	00001710 	andeq	r1, r0, r0, lsl r7
     de0:	0b002402 	bleq	9df0 <rpi_reset_putc>
     de4:	030b3e0b 	movweq	r3, #48651	; 0xbe0b
     de8:	03000008 	movweq	r0, #8
     dec:	0b0b0024 	bleq	2c0e84 <__bss_end__+0x2b5fdc>
     df0:	0e030b3e 	vmoveq.16	d3[0], r0
     df4:	16040000 	strne	r0, [r4], -r0
     df8:	3a0e0300 	bcc	381a00 <__bss_end__+0x376b58>
     dfc:	390b3b0b 	stmdbcc	fp, {r0, r1, r3, r8, r9, fp, ip, sp}
     e00:	0013490b 	andseq	r4, r3, fp, lsl #18
     e04:	01150500 	tsteq	r5, r0, lsl #10
     e08:	13491927 	movtne	r1, #39207	; 0x9927
     e0c:	00001301 	andeq	r1, r0, r1, lsl #6
     e10:	49000506 	stmdbmi	r0, {r1, r2, r8, sl}
     e14:	07000013 	smladeq	r0, r3, r0, r0
     e18:	0e030034 	mcreq	0, 0, r0, cr3, cr4, {1}
     e1c:	0b3b0b3a 	bleq	ec3b0c <__bss_end__+0xeb8c64>
     e20:	13490b39 	movtne	r0, #39737	; 0x9b39
     e24:	193c193f 	ldmdbne	ip!, {r0, r1, r2, r3, r4, r5, r8, fp, ip}
     e28:	0f080000 	svceq	0x00080000
     e2c:	490b0b00 	stmdbmi	fp, {r8, r9, fp}
     e30:	09000013 	stmdbeq	r0, {r0, r1, r4}
     e34:	13490026 	movtne	r0, #36902	; 0x9026
     e38:	130a0000 	movwne	r0, #40960	; 0xa000
     e3c:	0b0e0301 	bleq	381a48 <__bss_end__+0x376ba0>
     e40:	3b0b3a0b 	blcc	2cf674 <__bss_end__+0x2c47cc>
     e44:	0013010b 	andseq	r0, r3, fp, lsl #2
     e48:	000d0b00 	andeq	r0, sp, r0, lsl #22
     e4c:	13490e03 	movtne	r0, #40451	; 0x9e03
     e50:	19340b38 	ldmdbne	r4!, {r3, r4, r5, r8, r9, fp}
     e54:	0f0c0000 	svceq	0x000c0000
     e58:	000b0b00 	andeq	r0, fp, r0, lsl #22
     e5c:	012e0d00 			; <UNDEFINED> instruction: 0x012e0d00
     e60:	0e03193f 			; <UNDEFINED> instruction: 0x0e03193f
     e64:	0b3b0b3a 	bleq	ec3b54 <__bss_end__+0xeb8cac>
     e68:	19270b39 	stmdbne	r7!, {r0, r3, r4, r5, r8, r9, fp}
     e6c:	01111349 	tsteq	r1, r9, asr #6
     e70:	18400612 	stmdane	r0, {r1, r4, r9, sl}^
     e74:	01194297 			; <UNDEFINED> instruction: 0x01194297
     e78:	0e000013 	mcreq	0, 0, r0, cr0, cr3, {0}
     e7c:	08030005 	stmdaeq	r3, {r0, r2}
     e80:	0b3b0b3a 	bleq	ec3b70 <__bss_end__+0xeb8cc8>
     e84:	13490b39 	movtne	r0, #39737	; 0x9b39
     e88:	42b71702 	adcsmi	r1, r7, #524288	; 0x80000
     e8c:	0f000017 	svceq	0x00000017
     e90:	0e030005 	cdpeq	0, 0, cr0, cr3, cr5, {0}
     e94:	0b3b0b3a 	bleq	ec3b84 <__bss_end__+0xeb8cdc>
     e98:	13490b39 	movtne	r0, #39737	; 0x9b39
     e9c:	00001802 	andeq	r1, r0, r2, lsl #16
     ea0:	03003410 	movweq	r3, #1040	; 0x410
     ea4:	3b0b3a08 	blcc	2cf6cc <__bss_end__+0x2c4824>
     ea8:	490b390b 	stmdbmi	fp, {r0, r1, r3, r8, fp, ip, sp}
     eac:	b7170213 			; <UNDEFINED> instruction: 0xb7170213
     eb0:	00001742 	andeq	r1, r0, r2, asr #14
     eb4:	03003411 	movweq	r3, #1041	; 0x411
     eb8:	3b0b3a0e 	blcc	2cf6f8 <__bss_end__+0x2c4850>
     ebc:	490b390b 	stmdbmi	fp, {r0, r1, r3, r8, fp, ip, sp}
     ec0:	b7170213 			; <UNDEFINED> instruction: 0xb7170213
     ec4:	00001742 	andeq	r1, r0, r2, asr #14
     ec8:	03003412 	movweq	r3, #1042	; 0x412
     ecc:	3413490e 	ldrcc	r4, [r3], #-2318	; 0xfffff6f2
     ed0:	00180219 	andseq	r0, r8, r9, lsl r2
     ed4:	010b1300 	mrseq	r1, (UNDEF: 59)
     ed8:	06120111 			; <UNDEFINED> instruction: 0x06120111
     edc:	34140000 	ldrcc	r0, [r4], #-0
     ee0:	3a080300 	bcc	201ae8 <__bss_end__+0x1f6c40>
     ee4:	390b3b0b 	stmdbcc	fp, {r0, r1, r3, r8, r9, fp, ip, sp}
     ee8:	0213490b 	andseq	r4, r3, #180224	; 0x2c000
     eec:	15000018 	strne	r0, [r0, #-24]	; 0xffffffe8
     ef0:	0e030034 	mcreq	0, 0, r0, cr3, cr4, {1}
     ef4:	0b3b0b3a 	bleq	ec3be4 <__bss_end__+0xeb8d3c>
     ef8:	13490b39 	movtne	r0, #39737	; 0x9b39
     efc:	00001802 	andeq	r1, r0, r2, lsl #16
     f00:	11010b16 	tstne	r1, r6, lsl fp
     f04:	01061201 	tsteq	r6, r1, lsl #4
     f08:	17000013 	smladne	r0, r3, r0, r0
     f0c:	08030034 	stmdaeq	r3, {r2, r4, r5}
     f10:	0b3b0b3a 	bleq	ec3c00 <__bss_end__+0xeb8d58>
     f14:	13490b39 	movtne	r0, #39737	; 0x9b39
     f18:	89180000 	ldmdbhi	r8, {}	; <UNPREDICTABLE>
     f1c:	11010182 	smlabbne	r1, r2, r1, r0
     f20:	01133101 	tsteq	r3, r1, lsl #2
     f24:	19000013 	stmdbne	r0, {r0, r1, r4}
     f28:	0001828a 	andeq	r8, r1, sl, lsl #5
     f2c:	42911802 	addsmi	r1, r1, #131072	; 0x20000
     f30:	1a000018 	bne	f98 <__code_start__-0x7068>
     f34:	00018289 	andeq	r8, r1, r9, lsl #5
     f38:	13310111 	teqne	r1, #1073741828	; 0x40000004
     f3c:	891b0000 	ldmdbhi	fp, {}	; <UNPREDICTABLE>
     f40:	11010182 	smlabbne	r1, r2, r1, r0
     f44:	00130101 	andseq	r0, r3, r1, lsl #2
     f48:	01011c00 	tsteq	r1, r0, lsl #24
     f4c:	13011349 	movwne	r1, #4937	; 0x1349
     f50:	211d0000 	tstcs	sp, r0
     f54:	2f134900 	svccs	0x00134900
     f58:	1e00000b 	cdpne	0, 0, cr0, cr0, cr11, {0}
     f5c:	0e03012e 	adfeqsp	f0, f3, #0.5
     f60:	0b3b0b3a 	bleq	ec3c50 <__bss_end__+0xeb8da8>
     f64:	19270b39 	stmdbne	r7!, {r0, r3, r4, r5, r8, r9, fp}
     f68:	01111349 	tsteq	r1, r9, asr #6
     f6c:	18400612 	stmdane	r0, {r1, r4, r9, sl}^
     f70:	01194297 			; <UNDEFINED> instruction: 0x01194297
     f74:	1f000013 	svcne	0x00000013
     f78:	0e030005 	cdpeq	0, 0, cr0, cr3, cr5, {0}
     f7c:	0b3b0b3a 	bleq	ec3c6c <__bss_end__+0xeb8dc4>
     f80:	13490b39 	movtne	r0, #39737	; 0x9b39
     f84:	42b71702 	adcsmi	r1, r7, #524288	; 0x80000
     f88:	20000017 	andcs	r0, r0, r7, lsl r0
     f8c:	0803012e 	stmdaeq	r3, {r1, r2, r3, r5, r8}
     f90:	0b3b0b3a 	bleq	ec3c80 <__bss_end__+0xeb8dd8>
     f94:	19270b39 	stmdbne	r7!, {r0, r3, r4, r5, r8, r9, fp}
     f98:	01111349 	tsteq	r1, r9, asr #6
     f9c:	18400612 	stmdane	r0, {r1, r4, r9, sl}^
     fa0:	01194297 			; <UNDEFINED> instruction: 0x01194297
     fa4:	21000013 	tstcs	r0, r3, lsl r0
     fa8:	193f012e 	ldmdbne	pc!, {r1, r2, r3, r5, r8}	; <UNPREDICTABLE>
     fac:	0b3a0e03 	bleq	e847c0 <__bss_end__+0xe79918>
     fb0:	0b390b3b 	bleq	e43ca4 <__bss_end__+0xe38dfc>
     fb4:	01111927 	tsteq	r1, r7, lsr #18
     fb8:	18400612 	stmdane	r0, {r1, r4, r9, sl}^
     fbc:	01194297 			; <UNDEFINED> instruction: 0x01194297
     fc0:	22000013 	andcs	r0, r0, #19, 0
     fc4:	193f002e 	ldmdbne	pc!, {r1, r2, r3, r5}	; <UNPREDICTABLE>
     fc8:	0e6e193c 			; <UNDEFINED> instruction: 0x0e6e193c
     fcc:	0b3a0e03 	bleq	e847e0 <__bss_end__+0xe79938>
     fd0:	0b390b3b 	bleq	e43cc4 <__bss_end__+0xe38e1c>
     fd4:	01000000 	mrseq	r0, (UNDEF: 0)
     fd8:	0e250111 	mcreq	1, 1, r0, cr5, cr1, {0}
     fdc:	0e030b13 	vmoveq.32	d3[0], r0
     fe0:	01110e1b 	tsteq	r1, fp, lsl lr
     fe4:	17100612 			; <UNDEFINED> instruction: 0x17100612
     fe8:	24020000 	strcs	r0, [r2], #-0
     fec:	3e0b0b00 	vmlacc.f64	d0, d11, d0
     ff0:	0008030b 	andeq	r0, r8, fp, lsl #6
     ff4:	00240300 	eoreq	r0, r4, r0, lsl #6
     ff8:	0b3e0b0b 	bleq	f83c2c <__bss_end__+0xf78d84>
     ffc:	00000e03 	andeq	r0, r0, r3, lsl #28
    1000:	27011504 	strcs	r1, [r1, -r4, lsl #10]
    1004:	01134919 	tsteq	r3, r9, lsl r9
    1008:	05000013 	streq	r0, [r0, #-19]	; 0xffffffed
    100c:	13490005 	movtne	r0, #36869	; 0x9005
    1010:	34060000 	strcc	r0, [r6], #-0
    1014:	3a0e0300 	bcc	381c1c <__bss_end__+0x376d74>
    1018:	390b3b0b 	stmdbcc	fp, {r0, r1, r3, r8, r9, fp, ip, sp}
    101c:	3f13490b 	svccc	0x0013490b
    1020:	00193c19 	andseq	r3, r9, r9, lsl ip
    1024:	000f0700 	andeq	r0, pc, r0, lsl #14
    1028:	13490b0b 	movtne	r0, #39691	; 0x9b0b
    102c:	26080000 	strcs	r0, [r8], -r0
    1030:	00134900 	andseq	r4, r3, r0, lsl #18
    1034:	012e0900 			; <UNDEFINED> instruction: 0x012e0900
    1038:	0e03193f 			; <UNDEFINED> instruction: 0x0e03193f
    103c:	0b3b0b3a 	bleq	ec3d2c <__bss_end__+0xeb8e84>
    1040:	19270b39 	stmdbne	r7!, {r0, r3, r4, r5, r8, r9, fp}
    1044:	11190187 	tstne	r9, r7, lsl #3
    1048:	40061201 	andmi	r1, r6, r1, lsl #4
    104c:	19429718 	stmdbne	r2, {r3, r4, r8, r9, sl, ip, pc}^
    1050:	00001301 	andeq	r1, r0, r1, lsl #6
    1054:	0182890a 	orreq	r8, r2, sl, lsl #18
    1058:	01011101 	tsteq	r1, r1, lsl #2
    105c:	0b000013 	bleq	10b0 <__code_start__-0x6f50>
    1060:	0001828a 	andeq	r8, r1, sl, lsl #5
    1064:	42911802 	addsmi	r1, r1, #131072	; 0x20000
    1068:	0c000018 	stceq	0, cr0, [r0], {24}
    106c:	00018289 	andeq	r8, r1, r9, lsl #5
    1070:	13310111 	teqne	r1, #1073741828	; 0x40000004
    1074:	890d0000 	stmdbhi	sp, {}	; <UNPREDICTABLE>
    1078:	11010182 	smlabbne	r1, r2, r1, r0
    107c:	01133101 	tsteq	r3, r1, lsl #2
    1080:	0e000013 	mcreq	0, 0, r0, cr0, cr3, {0}
    1084:	193f002e 	ldmdbne	pc!, {r1, r2, r3, r5}	; <UNPREDICTABLE>
    1088:	0e6e193c 			; <UNDEFINED> instruction: 0x0e6e193c
    108c:	0b3a0e03 	bleq	e848a0 <__bss_end__+0xe799f8>
    1090:	0b390b3b 	bleq	e43d84 <__bss_end__+0xe38edc>
    1094:	01000000 	mrseq	r0, (UNDEF: 0)
    1098:	0e250111 	mcreq	1, 1, r0, cr5, cr1, {0}
    109c:	0e030b13 	vmoveq.32	d3[0], r0
    10a0:	01110e1b 	tsteq	r1, fp, lsl lr
    10a4:	17100612 			; <UNDEFINED> instruction: 0x17100612
    10a8:	24020000 	strcs	r0, [r2], #-0
    10ac:	3e0b0b00 	vmlacc.f64	d0, d11, d0
    10b0:	0008030b 	andeq	r0, r8, fp, lsl #6
    10b4:	00240300 	eoreq	r0, r4, r0, lsl #6
    10b8:	0b3e0b0b 	bleq	f83cec <__bss_end__+0xf78e44>
    10bc:	00000e03 	andeq	r0, r0, r3, lsl #28
    10c0:	27011504 	strcs	r1, [r1, -r4, lsl #10]
    10c4:	01134919 	tsteq	r3, r9, lsl r9
    10c8:	05000013 	streq	r0, [r0, #-19]	; 0xffffffed
    10cc:	13490005 	movtne	r0, #36869	; 0x9005
    10d0:	34060000 	strcc	r0, [r6], #-0
    10d4:	3a0e0300 	bcc	381cdc <__bss_end__+0x376e34>
    10d8:	390b3b0b 	stmdbcc	fp, {r0, r1, r3, r8, r9, fp, ip, sp}
    10dc:	3f13490b 	svccc	0x0013490b
    10e0:	00193c19 	andseq	r3, r9, r9, lsl ip
    10e4:	000f0700 	andeq	r0, pc, r0, lsl #14
    10e8:	13490b0b 	movtne	r0, #39691	; 0x9b0b
    10ec:	26080000 	strcs	r0, [r8], -r0
    10f0:	00134900 	andseq	r4, r3, r0, lsl #18
    10f4:	012e0900 			; <UNDEFINED> instruction: 0x012e0900
    10f8:	0e03193f 			; <UNDEFINED> instruction: 0x0e03193f
    10fc:	0b3b0b3a 	bleq	ec3dec <__bss_end__+0xeb8f44>
    1100:	01110b39 	tsteq	r1, r9, lsr fp
    1104:	18400612 	stmdane	r0, {r1, r4, r9, sl}^
    1108:	01194297 			; <UNDEFINED> instruction: 0x01194297
    110c:	0a000013 	beq	1160 <__code_start__-0x6ea0>
    1110:	193f002e 	ldmdbne	pc!, {r1, r2, r3, r5}	; <UNPREDICTABLE>
    1114:	0b3a0e03 	bleq	e84928 <__bss_end__+0xe79a80>
    1118:	0b390b3b 	bleq	e43e0c <__bss_end__+0xe38f64>
    111c:	193c1927 	ldmdbne	ip!, {r0, r1, r2, r5, r8, fp, ip}
    1120:	340b0000 	strcc	r0, [fp], #-0
    1124:	3a080300 	bcc	201d2c <__bss_end__+0x1f6e84>
    1128:	390b3b0b 	stmdbcc	fp, {r0, r1, r3, r8, r9, fp, ip, sp}
    112c:	0213490b 	andseq	r4, r3, #180224	; 0x2c000
    1130:	1742b717 	smlaldne	fp, r2, r7, r7
    1134:	340c0000 	strcc	r0, [ip], #-0
    1138:	3a0e0300 	bcc	381d40 <__bss_end__+0x376e98>
    113c:	390b3b0b 	stmdbcc	fp, {r0, r1, r3, r8, r9, fp, ip, sp}
    1140:	0013490b 	andseq	r4, r3, fp, lsl #18
    1144:	010b0d00 	tsteq	fp, r0, lsl #26
    1148:	06120111 			; <UNDEFINED> instruction: 0x06120111
    114c:	00001301 	andeq	r1, r0, r1, lsl #6
    1150:	0300340e 	movweq	r3, #1038	; 0x40e
    1154:	3b0b3a08 	blcc	2cf97c <__bss_end__+0x2c4ad4>
    1158:	490b390b 	stmdbmi	fp, {r0, r1, r3, r8, fp, ip, sp}
    115c:	000b1c13 	andeq	r1, fp, r3, lsl ip
    1160:	82890f00 	addhi	r0, r9, #0, 30
    1164:	01110001 	tsteq	r1, r1
    1168:	00001331 	andeq	r1, r0, r1, lsr r3
    116c:	3f002e10 	svccc	0x00002e10
    1170:	6e193c19 	mrcvs	12, 0, r3, cr9, cr9, {0}
    1174:	3a0e030e 	bcc	381db4 <__bss_end__+0x376f0c>
    1178:	39053b0b 	stmdbcc	r5, {r0, r1, r3, r8, r9, fp, ip, sp}
    117c:	1100000b 	tstne	r0, fp
    1180:	193f002e 	ldmdbne	pc!, {r1, r2, r3, r5}	; <UNPREDICTABLE>
    1184:	0e6e193c 			; <UNDEFINED> instruction: 0x0e6e193c
    1188:	0b3a0e03 	bleq	e8499c <__bss_end__+0xe79af4>
    118c:	0b390b3b 	bleq	e43e80 <__bss_end__+0xe38fd8>
    1190:	01000000 	mrseq	r0, (UNDEF: 0)
    1194:	0e250111 	mcreq	1, 1, r0, cr5, cr1, {0}
    1198:	0e030b13 	vmoveq.32	d3[0], r0
    119c:	01110e1b 	tsteq	r1, fp, lsl lr
    11a0:	17100612 			; <UNDEFINED> instruction: 0x17100612
    11a4:	24020000 	strcs	r0, [r2], #-0
    11a8:	3e0b0b00 	vmlacc.f64	d0, d11, d0
    11ac:	0008030b 	andeq	r0, r8, fp, lsl #6
    11b0:	00240300 	eoreq	r0, r4, r0, lsl #6
    11b4:	0b3e0b0b 	bleq	f83de8 <__bss_end__+0xf78f40>
    11b8:	00000e03 	andeq	r0, r0, r3, lsl #28
    11bc:	27011504 	strcs	r1, [r1, -r4, lsl #10]
    11c0:	01134919 	tsteq	r3, r9, lsl r9
    11c4:	05000013 	streq	r0, [r0, #-19]	; 0xffffffed
    11c8:	13490005 	movtne	r0, #36869	; 0x9005
    11cc:	34060000 	strcc	r0, [r6], #-0
    11d0:	3a0e0300 	bcc	381dd8 <__bss_end__+0x376f30>
    11d4:	390b3b0b 	stmdbcc	fp, {r0, r1, r3, r8, r9, fp, ip, sp}
    11d8:	3f13490b 	svccc	0x0013490b
    11dc:	00193c19 	andseq	r3, r9, r9, lsl ip
    11e0:	000f0700 	andeq	r0, pc, r0, lsl #14
    11e4:	13490b0b 	movtne	r0, #39691	; 0x9b0b
    11e8:	26080000 	strcs	r0, [r8], -r0
    11ec:	00134900 	andseq	r4, r3, r0, lsl #18
    11f0:	002e0900 	eoreq	r0, lr, r0, lsl #18
    11f4:	0e03193f 			; <UNDEFINED> instruction: 0x0e03193f
    11f8:	0b3b0b3a 	bleq	ec3ee8 <__bss_end__+0xeb9040>
    11fc:	19270b39 	stmdbne	r7!, {r0, r3, r4, r5, r8, r9, fp}
    1200:	06120111 			; <UNDEFINED> instruction: 0x06120111
    1204:	42971840 	addsmi	r1, r7, #64, 16	; 0x400000
    1208:	00000019 	andeq	r0, r0, r9, lsl r0
    120c:	25011101 	strcs	r1, [r1, #-257]	; 0xfffffeff
    1210:	030b130e 	movweq	r1, #45838	; 0xb30e
    1214:	550e1b0e 	strpl	r1, [lr, #-2830]	; 0xfffff4f2
    1218:	10011117 	andne	r1, r1, r7, lsl r1
    121c:	02000017 	andeq	r0, r0, #23, 0
    1220:	0b0b0024 	bleq	2c12b8 <__bss_end__+0x2b6410>
    1224:	08030b3e 	stmdaeq	r3, {r1, r2, r3, r4, r5, r8, r9, fp}
    1228:	26030000 	strcs	r0, [r3], -r0
    122c:	00134900 	andseq	r4, r3, r0, lsl #18
    1230:	00240400 	eoreq	r0, r4, r0, lsl #8
    1234:	0b3e0b0b 	bleq	f83e68 <__bss_end__+0xf78fc0>
    1238:	00000e03 	andeq	r0, r0, r3, lsl #28
    123c:	27011505 	strcs	r1, [r1, -r5, lsl #10]
    1240:	01134919 	tsteq	r3, r9, lsl r9
    1244:	06000013 			; <UNDEFINED> instruction: 0x06000013
    1248:	13490005 	movtne	r0, #36869	; 0x9005
    124c:	34070000 	strcc	r0, [r7], #-0
    1250:	3a0e0300 	bcc	381e58 <__bss_end__+0x376fb0>
    1254:	390b3b0b 	stmdbcc	fp, {r0, r1, r3, r8, r9, fp, ip, sp}
    1258:	3f13490b 	svccc	0x0013490b
    125c:	00193c19 	andseq	r3, r9, r9, lsl ip
    1260:	000f0800 	andeq	r0, pc, r0, lsl #16
    1264:	13490b0b 	movtne	r0, #39691	; 0x9b0b
    1268:	34090000 	strcc	r0, [r9], #-0
    126c:	3a0e0300 	bcc	381e74 <__bss_end__+0x376fcc>
    1270:	390b3b0b 	stmdbcc	fp, {r0, r1, r3, r8, r9, fp, ip, sp}
    1274:	0013490b 	andseq	r4, r3, fp, lsl #18
    1278:	012e0a00 			; <UNDEFINED> instruction: 0x012e0a00
    127c:	0e03193f 			; <UNDEFINED> instruction: 0x0e03193f
    1280:	0b3b0b3a 	bleq	ec3f70 <__bss_end__+0xeb90c8>
    1284:	19270b39 	stmdbne	r7!, {r0, r3, r4, r5, r8, r9, fp}
    1288:	11190187 	tstne	r9, r7, lsl #3
    128c:	40061201 	andmi	r1, r6, r1, lsl #4
    1290:	19429718 	stmdbne	r2, {r3, r4, r8, r9, sl, ip, pc}^
    1294:	00001301 	andeq	r1, r0, r1, lsl #6
    1298:	0300340b 	movweq	r3, #1035	; 0x40b
    129c:	3b0b3a0e 	blcc	2cfadc <__bss_end__+0x2c4c34>
    12a0:	490b390b 	stmdbmi	fp, {r0, r1, r3, r8, fp, ip, sp}
    12a4:	b7170213 			; <UNDEFINED> instruction: 0xb7170213
    12a8:	00001742 	andeq	r1, r0, r2, asr #14
    12ac:	0182890c 	orreq	r8, r2, ip, lsl #18
    12b0:	31011100 	mrscc	r1, (UNDEF: 17)
    12b4:	0d000013 	stceq	0, cr0, [r0, #-76]	; 0xffffffb4
    12b8:	01018289 	smlabbeq	r1, r9, r2, r8
    12bc:	13310111 	teqne	r1, #1073741828	; 0x40000004
    12c0:	00001301 	andeq	r1, r0, r1, lsl #6
    12c4:	01828a0e 	orreq	r8, r2, lr, lsl #20
    12c8:	91180200 	tstls	r8, r0, lsl #4
    12cc:	00001842 	andeq	r1, r0, r2, asr #16
    12d0:	3f012e0f 	svccc	0x00012e0f
    12d4:	3a0e0319 	bcc	381f40 <__bss_end__+0x377098>
    12d8:	390b3b0b 	stmdbcc	fp, {r0, r1, r3, r8, r9, fp, ip, sp}
    12dc:	1119270b 	tstne	r9, fp, lsl #14
    12e0:	40061201 	andmi	r1, r6, r1, lsl #4
    12e4:	19429718 	stmdbne	r2, {r3, r4, r8, r9, sl, ip, pc}^
    12e8:	00001301 	andeq	r1, r0, r1, lsl #6
    12ec:	3f012e10 	svccc	0x00012e10
    12f0:	3a0e0319 	bcc	381f5c <__bss_end__+0x3770b4>
    12f4:	390b3b0b 	stmdbcc	fp, {r0, r1, r3, r8, r9, fp, ip, sp}
    12f8:	4919270b 	ldmdbmi	r9, {r0, r1, r3, r8, r9, sl, sp}
    12fc:	12011113 	andne	r1, r1, #-1073741820	; 0xc0000004
    1300:	97184006 	ldrls	r4, [r8, -r6]
    1304:	13011942 	movwne	r1, #6466	; 0x1942
    1308:	2e110000 	cdpcs	0, 1, cr0, cr1, cr0, {0}
    130c:	3c193f00 	ldccc	15, cr3, [r9], {-0}
    1310:	030e6e19 	movweq	r6, #60953	; 0xee19
    1314:	3b0b3a0e 	blcc	2cfb54 <__bss_end__+0x2c4cac>
    1318:	000b3905 	andeq	r3, fp, r5, lsl #18
    131c:	002e1200 	eoreq	r1, lr, r0, lsl #4
    1320:	193c193f 	ldmdbne	ip!, {r0, r1, r2, r3, r4, r5, r8, fp, ip}
    1324:	0e030e6e 	cdpeq	14, 0, cr0, cr3, cr14, {3}
    1328:	0b3b0b3a 	bleq	ec4018 <__bss_end__+0xeb9170>
    132c:	00000b39 	andeq	r0, r0, r9, lsr fp
    1330:	01110100 	tsteq	r1, r0, lsl #2
    1334:	0b130e25 	bleq	4c4bd0 <__bss_end__+0x4b9d28>
    1338:	0e1b0e03 	cdpeq	14, 1, cr0, cr11, cr3, {0}
    133c:	06120111 			; <UNDEFINED> instruction: 0x06120111
    1340:	00001710 	andeq	r1, r0, r0, lsl r7
    1344:	0b002402 	bleq	a354 <__FUNCTION__.4126+0x44>
    1348:	030b3e0b 	movweq	r3, #48651	; 0xbe0b
    134c:	03000008 	movweq	r0, #8
    1350:	0b0b0024 	bleq	2c13e8 <__bss_end__+0x2b6540>
    1354:	0e030b3e 	vmoveq.16	d3[0], r0
    1358:	15040000 	strne	r0, [r4, #-0]
    135c:	49192701 	ldmdbmi	r9, {r0, r8, r9, sl, sp}
    1360:	00130113 	andseq	r0, r3, r3, lsl r1
    1364:	00050500 	andeq	r0, r5, r0, lsl #10
    1368:	00001349 	andeq	r1, r0, r9, asr #6
    136c:	03003406 	movweq	r3, #1030	; 0x406
    1370:	3b0b3a0e 	blcc	2cfbb0 <__bss_end__+0x2c4d08>
    1374:	490b390b 	stmdbmi	fp, {r0, r1, r3, r8, fp, ip, sp}
    1378:	3c193f13 	ldccc	15, cr3, [r9], {19}
    137c:	07000019 	smladeq	r0, r9, r0, r0
    1380:	0b0b000f 	bleq	2c13c4 <__bss_end__+0x2b651c>
    1384:	00001349 	andeq	r1, r0, r9, asr #6
    1388:	49002608 	stmdbmi	r0, {r3, r9, sl, sp}
    138c:	09000013 	stmdbeq	r0, {r0, r1, r4}
    1390:	193f012e 	ldmdbne	pc!, {r1, r2, r3, r5, r8}	; <UNPREDICTABLE>
    1394:	0b3a0e03 	bleq	e84ba8 <__bss_end__+0xe79d00>
    1398:	0b390b3b 	bleq	e4408c <__bss_end__+0xe391e4>
    139c:	01111927 	tsteq	r1, r7, lsr #18
    13a0:	18400612 	stmdane	r0, {r1, r4, r9, sl}^
    13a4:	01194297 			; <UNDEFINED> instruction: 0x01194297
    13a8:	0a000013 	beq	13fc <__code_start__-0x6c04>
    13ac:	08030005 	stmdaeq	r3, {r0, r2}
    13b0:	0b3b0b3a 	bleq	ec40a0 <__bss_end__+0xeb91f8>
    13b4:	13490b39 	movtne	r0, #39737	; 0x9b39
    13b8:	42b71702 	adcsmi	r1, r7, #524288	; 0x80000
    13bc:	0b000017 	bleq	1420 <__code_start__-0x6be0>
    13c0:	01018289 	smlabbeq	r1, r9, r2, r8
    13c4:	13310111 	teqne	r1, #1073741828	; 0x40000004
    13c8:	8a0c0000 	bhi	3013d0 <__bss_end__+0x2f6528>
    13cc:	02000182 	andeq	r0, r0, #-2147483616	; 0x80000020
    13d0:	18429118 	stmdane	r2, {r3, r4, r8, ip, pc}^
    13d4:	340d0000 	strcc	r0, [sp], #-0
    13d8:	3a080300 	bcc	201fe0 <__bss_end__+0x1f7138>
    13dc:	390b3b0b 	stmdbcc	fp, {r0, r1, r3, r8, r9, fp, ip, sp}
    13e0:	0213490b 	andseq	r4, r3, #180224	; 0x2c000
    13e4:	1742b717 	smlaldne	fp, r2, r7, r7
    13e8:	0b0e0000 	bleq	3813f0 <__bss_end__+0x376548>
    13ec:	12011101 	andne	r1, r1, #1073741824	; 0x40000000
    13f0:	00130106 	andseq	r0, r3, r6, lsl #2
    13f4:	82890f00 	addhi	r0, r9, #0, 30
    13f8:	01110001 	tsteq	r1, r1
    13fc:	00001331 	andeq	r1, r0, r1, lsr r3
    1400:	3f012e10 	svccc	0x00012e10
    1404:	3a0e0319 	bcc	382070 <__bss_end__+0x3771c8>
    1408:	390b3b0b 	stmdbcc	fp, {r0, r1, r3, r8, r9, fp, ip, sp}
    140c:	4919270b 	ldmdbmi	r9, {r0, r1, r3, r8, r9, sl, sp}
    1410:	12011113 	andne	r1, r1, #-1073741820	; 0xc0000004
    1414:	97184006 	ldrls	r4, [r8, -r6]
    1418:	13011942 	movwne	r1, #6466	; 0x1942
    141c:	2e110000 	cdpcs	0, 1, cr0, cr1, cr0, {0}
    1420:	3c193f00 	ldccc	15, cr3, [r9], {-0}
    1424:	030e6e19 	movweq	r6, #60953	; 0xee19
    1428:	3b0b3a0e 	blcc	2cfc68 <__bss_end__+0x2c4dc0>
    142c:	000b390b 	andeq	r3, fp, fp, lsl #18
    1430:	11010000 	mrsne	r0, (UNDEF: 1)
    1434:	130e2501 	movwne	r2, #58625	; 0xe501
    1438:	1b0e030b 	blne	38206c <__bss_end__+0x3771c4>
    143c:	1201110e 	andne	r1, r1, #-2147483645	; 0x80000003
    1440:	00171006 	andseq	r1, r7, r6
    1444:	00240200 	eoreq	r0, r4, r0, lsl #4
    1448:	0b3e0b0b 	bleq	f8407c <__bss_end__+0xf791d4>
    144c:	00000803 	andeq	r0, r0, r3, lsl #16
    1450:	0b002403 	bleq	a464 <__FUNCTION__.4126+0x154>
    1454:	030b3e0b 	movweq	r3, #48651	; 0xbe0b
    1458:	0400000e 	streq	r0, [r0], #-14
    145c:	13490035 	movtne	r0, #36917	; 0x9035
    1460:	16050000 	strne	r0, [r5], -r0
    1464:	3a0e0300 	bcc	38206c <__bss_end__+0x3771c4>
    1468:	390b3b0b 	stmdbcc	fp, {r0, r1, r3, r8, r9, fp, ip, sp}
    146c:	0013490b 	andseq	r4, r3, fp, lsl #18
    1470:	01040600 	tsteq	r4, r0, lsl #12
    1474:	0b0b0b3e 	bleq	2c4174 <__bss_end__+0x2b92cc>
    1478:	0b3a1349 	bleq	e861a4 <__bss_end__+0xe7b2fc>
    147c:	0b390b3b 	bleq	e44170 <__bss_end__+0xe392c8>
    1480:	00001301 	andeq	r1, r0, r1, lsl #6
    1484:	03002807 	movweq	r2, #2055	; 0x807
    1488:	000b1c0e 	andeq	r1, fp, lr, lsl #24
    148c:	01130800 	tsteq	r3, r0, lsl #16
    1490:	0b0b0e03 	bleq	2c4ca4 <__bss_end__+0x2b9dfc>
    1494:	0b3b0b3a 	bleq	ec4184 <__bss_end__+0xeb92dc>
    1498:	13010b39 	movwne	r0, #6969	; 0x1b39
    149c:	0d090000 	stceq	0, cr0, [r9, #-0]
    14a0:	3a080300 	bcc	2020a8 <__bss_end__+0x1f7200>
    14a4:	390b3b0b 	stmdbcc	fp, {r0, r1, r3, r8, r9, fp, ip, sp}
    14a8:	3813490b 	ldmdacc	r3, {r0, r1, r3, r8, fp, lr}
    14ac:	0a00000b 	beq	14e0 <__code_start__-0x6b20>
    14b0:	0e03000d 	cdpeq	0, 0, cr0, cr3, cr13, {0}
    14b4:	0b3b0b3a 	bleq	ec41a4 <__bss_end__+0xeb92fc>
    14b8:	13490b39 	movtne	r0, #39737	; 0x9b39
    14bc:	00000b38 	andeq	r0, r0, r8, lsr fp
    14c0:	0300340b 	movweq	r3, #1035	; 0x40b
    14c4:	3b0b3a0e 	blcc	2cfd04 <__bss_end__+0x2c4e5c>
    14c8:	490b390b 	stmdbmi	fp, {r0, r1, r3, r8, fp, ip, sp}
    14cc:	00061c13 	andeq	r1, r6, r3, lsl ip
    14d0:	000f0c00 	andeq	r0, pc, r0, lsl #24
    14d4:	13490b0b 	movtne	r0, #39691	; 0x9b0b
    14d8:	260d0000 	strcs	r0, [sp], -r0
    14dc:	00134900 	andseq	r4, r3, r0, lsl #18
    14e0:	012e0e00 			; <UNDEFINED> instruction: 0x012e0e00
    14e4:	0e03193f 			; <UNDEFINED> instruction: 0x0e03193f
    14e8:	0b3b0b3a 	bleq	ec41d8 <__bss_end__+0xeb9330>
    14ec:	19270b39 	stmdbne	r7!, {r0, r3, r4, r5, r8, r9, fp}
    14f0:	06120111 			; <UNDEFINED> instruction: 0x06120111
    14f4:	42971840 	addsmi	r1, r7, #64, 16	; 0x400000
    14f8:	00130119 	andseq	r0, r3, r9, lsl r1
    14fc:	82890f00 	addhi	r0, r9, #0, 30
    1500:	01110001 	tsteq	r1, r1
    1504:	00001331 	andeq	r1, r0, r1, lsr r3
    1508:	3f012e10 	svccc	0x00012e10
    150c:	3a0e0319 	bcc	382178 <__bss_end__+0x3772d0>
    1510:	390b3b0b 	stmdbcc	fp, {r0, r1, r3, r8, r9, fp, ip, sp}
    1514:	4919270b 	ldmdbmi	r9, {r0, r1, r3, r8, r9, sl, sp}
    1518:	12011113 	andne	r1, r1, #-1073741820	; 0xc0000004
    151c:	97184006 	ldrls	r4, [r8, -r6]
    1520:	13011942 	movwne	r1, #6466	; 0x1942
    1524:	89110000 	ldmdbhi	r1, {}	; <UNPREDICTABLE>
    1528:	11010182 	smlabbne	r1, r2, r1, r0
    152c:	00133101 	andseq	r3, r3, r1, lsl #2
    1530:	828a1200 	addhi	r1, sl, #0, 4
    1534:	18020001 	stmdane	r2, {r0}
    1538:	00184291 	mulseq	r8, r1, r2
    153c:	00051300 	andeq	r1, r5, r0, lsl #6
    1540:	0b3a0803 	bleq	e83554 <__bss_end__+0xe786ac>
    1544:	0b390b3b 	bleq	e44238 <__bss_end__+0xe39390>
    1548:	17021349 	strne	r1, [r2, -r9, asr #6]
    154c:	001742b7 			; <UNDEFINED> instruction: 0x001742b7
    1550:	82891400 	addhi	r1, r9, #0, 8
    1554:	01110101 	tsteq	r1, r1, lsl #2
    1558:	13011331 	movwne	r1, #4913	; 0x1331
    155c:	34150000 	ldrcc	r0, [r5], #-0
    1560:	3a080300 	bcc	202168 <__bss_end__+0x1f72c0>
    1564:	390b3b0b 	stmdbcc	fp, {r0, r1, r3, r8, r9, fp, ip, sp}
    1568:	0213490b 	andseq	r4, r3, #180224	; 0x2c000
    156c:	1742b717 	smlaldne	fp, r2, r7, r7
    1570:	34160000 	ldrcc	r0, [r6], #-0
    1574:	3a0e0300 	bcc	38217c <__bss_end__+0x3772d4>
    1578:	390b3b0b 	stmdbcc	fp, {r0, r1, r3, r8, r9, fp, ip, sp}
    157c:	1c13490b 			; <UNDEFINED> instruction: 0x1c13490b
    1580:	17000005 	strne	r0, [r0, -r5]
    1584:	0e03012e 	adfeqsp	f0, f3, #0.5
    1588:	0b3b0b3a 	bleq	ec4278 <__bss_end__+0xeb93d0>
    158c:	19270b39 	stmdbne	r7!, {r0, r3, r4, r5, r8, r9, fp}
    1590:	06120111 			; <UNDEFINED> instruction: 0x06120111
    1594:	42971840 	addsmi	r1, r7, #64, 16	; 0x400000
    1598:	00130119 	andseq	r0, r3, r9, lsl r1
    159c:	00051800 	andeq	r1, r5, r0, lsl #16
    15a0:	0b3a0e03 	bleq	e84db4 <__bss_end__+0xe79f0c>
    15a4:	0b390b3b 	bleq	e44298 <__bss_end__+0xe393f0>
    15a8:	17021349 	strne	r1, [r2, -r9, asr #6]
    15ac:	001742b7 			; <UNDEFINED> instruction: 0x001742b7
    15b0:	00351900 	eorseq	r1, r5, r0, lsl #18
    15b4:	2e1a0000 	cdpcs	0, 1, cr0, cr10, cr0, {0}
    15b8:	3c193f00 	ldccc	15, cr3, [r9], {-0}
    15bc:	030e6e19 	movweq	r6, #60953	; 0xee19
    15c0:	3b0b3a0e 	blcc	2cfe00 <__bss_end__+0x2c4f58>
    15c4:	000b390b 	andeq	r3, fp, fp, lsl #18
    15c8:	11010000 	mrsne	r0, (UNDEF: 1)
    15cc:	130e2501 	movwne	r2, #58625	; 0xe501
    15d0:	1b0e030b 	blne	382204 <__bss_end__+0x37735c>
    15d4:	1201110e 	andne	r1, r1, #-2147483645	; 0x80000003
    15d8:	00171006 	andseq	r1, r7, r6
    15dc:	00240200 	eoreq	r0, r4, r0, lsl #4
    15e0:	0b3e0b0b 	bleq	f84214 <__bss_end__+0xf7936c>
    15e4:	00000803 	andeq	r0, r0, r3, lsl #16
    15e8:	0b002403 	bleq	a5fc <__FUNCTION__.4126+0x2ec>
    15ec:	030b3e0b 	movweq	r3, #48651	; 0xbe0b
    15f0:	0400000e 	streq	r0, [r0], #-14
    15f4:	0e030016 	mcreq	0, 0, r0, cr3, cr6, {0}
    15f8:	0b3b0b3a 	bleq	ec42e8 <__bss_end__+0xeb9440>
    15fc:	13490b39 	movtne	r0, #39737	; 0x9b39
    1600:	26050000 	strcs	r0, [r5], -r0
    1604:	00134900 	andseq	r4, r3, r0, lsl #18
    1608:	000f0600 	andeq	r0, pc, r0, lsl #12
    160c:	00000b0b 	andeq	r0, r0, fp, lsl #22
    1610:	3e010407 	cdpcc	4, 0, cr0, cr1, cr7, {0}
    1614:	490b0b0b 	stmdbmi	fp, {r0, r1, r3, r8, r9, fp}
    1618:	3b0b3a13 	blcc	2cfe6c <__bss_end__+0x2c4fc4>
    161c:	010b390b 	tsteq	fp, fp, lsl #18
    1620:	08000013 	stmdaeq	r0, {r0, r1, r4}
    1624:	0e030028 	cdpeq	0, 0, cr0, cr3, cr8, {1}
    1628:	0000061c 	andeq	r0, r0, ip, lsl r6
    162c:	03003409 	movweq	r3, #1033	; 0x409
    1630:	3b0b3a0e 	blcc	2cfe70 <__bss_end__+0x2c4fc8>
    1634:	490b390b 	stmdbmi	fp, {r0, r1, r3, r8, fp, ip, sp}
    1638:	3c193f13 	ldccc	15, cr3, [r9], {19}
    163c:	0a000019 	beq	16a8 <__code_start__-0x6958>
    1640:	0e030034 	mcreq	0, 0, r0, cr3, cr4, {1}
    1644:	0b3b0b3a 	bleq	ec4334 <__bss_end__+0xeb948c>
    1648:	13490b39 	movtne	r0, #39737	; 0x9b39
    164c:	00001802 	andeq	r1, r0, r2, lsl #16
    1650:	0b000f0b 	bleq	5284 <__code_start__-0x2d7c>
    1654:	0013490b 	andseq	r4, r3, fp, lsl #18
    1658:	012e0c00 			; <UNDEFINED> instruction: 0x012e0c00
    165c:	0e03193f 			; <UNDEFINED> instruction: 0x0e03193f
    1660:	0b3b0b3a 	bleq	ec4350 <__bss_end__+0xeb94a8>
    1664:	19270b39 	stmdbne	r7!, {r0, r3, r4, r5, r8, r9, fp}
    1668:	06120111 			; <UNDEFINED> instruction: 0x06120111
    166c:	42971840 	addsmi	r1, r7, #64, 16	; 0x400000
    1670:	00130119 	andseq	r0, r3, r9, lsl r1
    1674:	00050d00 	andeq	r0, r5, r0, lsl #26
    1678:	0b3a0803 	bleq	e8368c <__bss_end__+0xe787e4>
    167c:	0b390b3b 	bleq	e44370 <__bss_end__+0xe394c8>
    1680:	17021349 	strne	r1, [r2, -r9, asr #6]
    1684:	001742b7 			; <UNDEFINED> instruction: 0x001742b7
    1688:	00340e00 	eorseq	r0, r4, r0, lsl #28
    168c:	13490e03 	movtne	r0, #40451	; 0x9e03
    1690:	18021934 	stmdane	r2, {r2, r4, r5, r8, fp, ip}
    1694:	890f0000 	stmdbhi	pc, {}	; <UNPREDICTABLE>
    1698:	11010182 	smlabbne	r1, r2, r1, r0
    169c:	01133101 	tsteq	r3, r1, lsl #2
    16a0:	10000013 	andne	r0, r0, r3, lsl r0
    16a4:	0001828a 	andeq	r8, r1, sl, lsl #5
    16a8:	42911802 	addsmi	r1, r1, #131072	; 0x20000
    16ac:	11000018 	tstne	r0, r8, lsl r0
    16b0:	00018289 	andeq	r8, r1, r9, lsl #5
    16b4:	13310111 	teqne	r1, #1073741828	; 0x40000004
    16b8:	01120000 	tsteq	r2, r0
    16bc:	01134901 	tsteq	r3, r1, lsl #18
    16c0:	13000013 	movwne	r0, #19
    16c4:	13490021 	movtne	r0, #36897	; 0x9021
    16c8:	00000b2f 	andeq	r0, r0, pc, lsr #22
    16cc:	3f002e14 	svccc	0x00002e14
    16d0:	3a0e0319 	bcc	38233c <__bss_end__+0x377494>
    16d4:	390b3b0b 	stmdbcc	fp, {r0, r1, r3, r8, r9, fp, ip, sp}
    16d8:	1119270b 	tstne	r9, fp, lsl #14
    16dc:	40061201 	andmi	r1, r6, r1, lsl #4
    16e0:	19429718 	stmdbne	r2, {r3, r4, r8, r9, sl, ip, pc}^
    16e4:	05150000 	ldreq	r0, [r5, #-0]
    16e8:	3a080300 	bcc	2022f0 <__bss_end__+0x1f7448>
    16ec:	390b3b0b 	stmdbcc	fp, {r0, r1, r3, r8, r9, fp, ip, sp}
    16f0:	0213490b 	andseq	r4, r3, #180224	; 0x2c000
    16f4:	16000018 			; <UNDEFINED> instruction: 0x16000018
    16f8:	193f012e 	ldmdbne	pc!, {r1, r2, r3, r5, r8}	; <UNPREDICTABLE>
    16fc:	0b3a0e03 	bleq	e84f10 <__bss_end__+0xe7a068>
    1700:	0b390b3b 	bleq	e443f4 <__bss_end__+0xe3954c>
    1704:	13491927 	movtne	r1, #39207	; 0x9927
    1708:	06120111 			; <UNDEFINED> instruction: 0x06120111
    170c:	42971840 	addsmi	r1, r7, #64, 16	; 0x400000
    1710:	00130119 	andseq	r0, r3, r9, lsl r1
    1714:	00051700 	andeq	r1, r5, r0, lsl #14
    1718:	0b3a0e03 	bleq	e84f2c <__bss_end__+0xe7a084>
    171c:	0b390b3b 	bleq	e44410 <__bss_end__+0xe39568>
    1720:	17021349 	strne	r1, [r2, -r9, asr #6]
    1724:	001742b7 			; <UNDEFINED> instruction: 0x001742b7
    1728:	00341800 	eorseq	r1, r4, r0, lsl #16
    172c:	0b3a0803 	bleq	e83740 <__bss_end__+0xe78898>
    1730:	0b390b3b 	bleq	e44424 <__bss_end__+0xe3957c>
    1734:	17021349 	strne	r1, [r2, -r9, asr #6]
    1738:	001742b7 			; <UNDEFINED> instruction: 0x001742b7
    173c:	011d1900 	tsteq	sp, r0, lsl #18
    1740:	01521331 	cmpeq	r2, r1, lsr r3
    1744:	110b42b8 			; <UNDEFINED> instruction: 0x110b42b8
    1748:	58061201 	stmdapl	r6, {r0, r9, ip}
    174c:	570b590b 	strpl	r5, [fp, -fp, lsl #18]
    1750:	0013010b 	andseq	r0, r3, fp, lsl #2
    1754:	00051a00 	andeq	r1, r5, r0, lsl #20
    1758:	17021331 	smladxne	r2, r1, r3, r1
    175c:	001742b7 			; <UNDEFINED> instruction: 0x001742b7
    1760:	011d1b00 	tsteq	sp, r0, lsl #22
    1764:	01521331 	cmpeq	r2, r1, lsr r3
    1768:	550b42b8 	strpl	r4, [fp, #-696]	; 0xfffffd48
    176c:	590b5817 	stmdbpl	fp, {r0, r1, r2, r4, fp, ip, lr}
    1770:	010b570b 	tsteq	fp, fp, lsl #14
    1774:	1c000013 	stcne	0, cr0, [r0], {19}
    1778:	1755010b 	ldrbne	r0, [r5, -fp, lsl #2]
    177c:	341d0000 	ldrcc	r0, [sp], #-0
    1780:	3a0e0300 	bcc	382388 <__bss_end__+0x3774e0>
    1784:	390b3b0b 	stmdbcc	fp, {r0, r1, r3, r8, r9, fp, ip, sp}
    1788:	0213490b 	andseq	r4, r3, #180224	; 0x2c000
    178c:	1742b717 	smlaldne	fp, r2, r7, r7
    1790:	0b1e0000 	bleq	781798 <__bss_end__+0x7768f0>
    1794:	00175500 	andseq	r5, r7, r0, lsl #10
    1798:	002e1f00 	eoreq	r1, lr, r0, lsl #30
    179c:	0e03193f 			; <UNDEFINED> instruction: 0x0e03193f
    17a0:	0b3b0b3a 	bleq	ec4490 <__bss_end__+0xeb95e8>
    17a4:	19270b39 	stmdbne	r7!, {r0, r3, r4, r5, r8, r9, fp}
    17a8:	01111349 	tsteq	r1, r9, asr #6
    17ac:	18400612 	stmdane	r0, {r1, r4, r9, sl}^
    17b0:	00194297 	mulseq	r9, r7, r2
    17b4:	012e2000 			; <UNDEFINED> instruction: 0x012e2000
    17b8:	0b3a0e03 	bleq	e84fcc <__bss_end__+0xe7a124>
    17bc:	0b390b3b 	bleq	e444b0 <__bss_end__+0xe39608>
    17c0:	13491927 	movtne	r1, #39207	; 0x9927
    17c4:	13010b20 	movwne	r0, #6944	; 0x1b20
    17c8:	05210000 	streq	r0, [r1, #-0]!
    17cc:	3a080300 	bcc	2023d4 <__bss_end__+0x1f752c>
    17d0:	390b3b0b 	stmdbcc	fp, {r0, r1, r3, r8, r9, fp, ip, sp}
    17d4:	0013490b 	andseq	r4, r3, fp, lsl #18
    17d8:	002e2200 	eoreq	r2, lr, r0, lsl #4
    17dc:	193c193f 	ldmdbne	ip!, {r0, r1, r2, r3, r4, r5, r8, fp, ip}
    17e0:	0e030e6e 	cdpeq	14, 0, cr0, cr3, cr14, {3}
    17e4:	0b3b0b3a 	bleq	ec44d4 <__bss_end__+0xeb962c>
    17e8:	00000b39 	andeq	r0, r0, r9, lsr fp
    17ec:	01110100 	tsteq	r1, r0, lsl #2
    17f0:	0b130e25 	bleq	4c508c <__bss_end__+0x4ba1e4>
    17f4:	0e1b0e03 	cdpeq	14, 1, cr0, cr11, cr3, {0}
    17f8:	06120111 			; <UNDEFINED> instruction: 0x06120111
    17fc:	00001710 	andeq	r1, r0, r0, lsl r7
    1800:	0b002402 	bleq	a810 <__FUNCTION__.4137+0x12c>
    1804:	030b3e0b 	movweq	r3, #48651	; 0xbe0b
    1808:	03000008 	movweq	r0, #8
    180c:	0b0b0024 	bleq	2c18a4 <__bss_end__+0x2b69fc>
    1810:	0e030b3e 	vmoveq.16	d3[0], r0
    1814:	15040000 	strne	r0, [r4, #-0]
    1818:	49192701 	ldmdbmi	r9, {r0, r8, r9, sl, sp}
    181c:	00130113 	andseq	r0, r3, r3, lsl r1
    1820:	00050500 	andeq	r0, r5, r0, lsl #10
    1824:	00001349 	andeq	r1, r0, r9, asr #6
    1828:	03003406 	movweq	r3, #1030	; 0x406
    182c:	3b0b3a0e 	blcc	2d006c <__bss_end__+0x2c51c4>
    1830:	490b390b 	stmdbmi	fp, {r0, r1, r3, r8, fp, ip, sp}
    1834:	3c193f13 	ldccc	15, cr3, [r9], {19}
    1838:	07000019 	smladeq	r0, r9, r0, r0
    183c:	0b0b000f 	bleq	2c1880 <__bss_end__+0x2b69d8>
    1840:	00001349 	andeq	r1, r0, r9, asr #6
    1844:	49002608 	stmdbmi	r0, {r3, r9, sl, sp}
    1848:	09000013 	stmdbeq	r0, {r0, r1, r4}
    184c:	13470034 	movtne	r0, #28724	; 0x7034
    1850:	0b3b0b3a 	bleq	ec4540 <__bss_end__+0xeb9698>
    1854:	18020b39 	stmdane	r2, {r0, r3, r4, r5, r8, r9, fp}
    1858:	2e0a0000 	cdpcs	0, 0, cr0, cr10, cr0, {0}
    185c:	03193f01 	tsteq	r9, #1, 30
    1860:	3b0b3a0e 	blcc	2d00a0 <__bss_end__+0x2c51f8>
    1864:	270b390b 	strcs	r3, [fp, -fp, lsl #18]
    1868:	12011119 	andne	r1, r1, #1073741830	; 0x40000006
    186c:	97184006 	ldrls	r4, [r8, -r6]
    1870:	13011942 	movwne	r1, #6466	; 0x1942
    1874:	050b0000 	streq	r0, [fp, #-0]
    1878:	3a080300 	bcc	202480 <__bss_end__+0x1f75d8>
    187c:	390b3b0b 	stmdbcc	fp, {r0, r1, r3, r8, r9, fp, ip, sp}
    1880:	0213490b 	andseq	r4, r3, #180224	; 0x2c000
    1884:	0c000018 	stceq	0, cr0, [r0], {24}
    1888:	193f002e 	ldmdbne	pc!, {r1, r2, r3, r5}	; <UNPREDICTABLE>
    188c:	0b3a0e03 	bleq	e850a0 <__bss_end__+0xe7a1f8>
    1890:	0b390b3b 	bleq	e44584 <__bss_end__+0xe396dc>
    1894:	01111927 	tsteq	r1, r7, lsr #18
    1898:	18400612 	stmdane	r0, {r1, r4, r9, sl}^
    189c:	00194297 	mulseq	r9, r7, r2
    18a0:	012e0d00 			; <UNDEFINED> instruction: 0x012e0d00
    18a4:	0b3a0e03 	bleq	e850b8 <__bss_end__+0xe7a210>
    18a8:	0b390b3b 	bleq	e4459c <__bss_end__+0xe396f4>
    18ac:	13491927 	movtne	r1, #39207	; 0x9927
    18b0:	06120111 			; <UNDEFINED> instruction: 0x06120111
    18b4:	42971840 	addsmi	r1, r7, #64, 16	; 0x400000
    18b8:	00130119 	andseq	r0, r3, r9, lsl r1
    18bc:	00050e00 	andeq	r0, r5, r0, lsl #28
    18c0:	0b3a0803 	bleq	e838d4 <__bss_end__+0xe78a2c>
    18c4:	0b390b3b 	bleq	e445b8 <__bss_end__+0xe39710>
    18c8:	17021349 	strne	r1, [r2, -r9, asr #6]
    18cc:	001742b7 			; <UNDEFINED> instruction: 0x001742b7
    18d0:	82890f00 	addhi	r0, r9, #0, 30
    18d4:	01110101 	tsteq	r1, r1, lsl #2
    18d8:	00001331 	andeq	r1, r0, r1, lsr r3
    18dc:	01828a10 	orreq	r8, r2, r0, lsl sl
    18e0:	91180200 	tstls	r8, r0, lsl #4
    18e4:	00001842 	andeq	r1, r0, r2, asr #16
    18e8:	3f002e11 	svccc	0x00002e11
    18ec:	6e193c19 	mrcvs	12, 0, r3, cr9, cr9, {0}
    18f0:	3a0e030e 	bcc	382530 <__bss_end__+0x377688>
    18f4:	390b3b0b 	stmdbcc	fp, {r0, r1, r3, r8, r9, fp, ip, sp}
    18f8:	0000000b 	andeq	r0, r0, fp
    18fc:	25011101 	strcs	r1, [r1, #-257]	; 0xfffffeff
    1900:	030b130e 	movweq	r1, #45838	; 0xb30e
    1904:	110e1b0e 	tstne	lr, lr, lsl #22
    1908:	10061201 	andne	r1, r6, r1, lsl #4
    190c:	02000017 	andeq	r0, r0, #23, 0
    1910:	0b0b0024 	bleq	2c19a8 <__bss_end__+0x2b6b00>
    1914:	08030b3e 	stmdaeq	r3, {r1, r2, r3, r4, r5, r8, r9, fp}
    1918:	24030000 	strcs	r0, [r3], #-0
    191c:	3e0b0b00 	vmlacc.f64	d0, d11, d0
    1920:	000e030b 	andeq	r0, lr, fp, lsl #6
    1924:	01150400 	tsteq	r5, r0, lsl #8
    1928:	13491927 	movtne	r1, #39207	; 0x9927
    192c:	00001301 	andeq	r1, r0, r1, lsl #6
    1930:	49000505 	stmdbmi	r0, {r0, r2, r8, sl}
    1934:	06000013 			; <UNDEFINED> instruction: 0x06000013
    1938:	0e030034 	mcreq	0, 0, r0, cr3, cr4, {1}
    193c:	0b3b0b3a 	bleq	ec462c <__bss_end__+0xeb9784>
    1940:	13490b39 	movtne	r0, #39737	; 0x9b39
    1944:	193c193f 	ldmdbne	ip!, {r0, r1, r2, r3, r4, r5, r8, fp, ip}
    1948:	0f070000 	svceq	0x00070000
    194c:	490b0b00 	stmdbmi	fp, {r8, r9, fp}
    1950:	08000013 	stmdaeq	r0, {r0, r1, r4}
    1954:	13490026 	movtne	r0, #36902	; 0x9026
    1958:	2e090000 	cdpcs	0, 0, cr0, cr9, cr0, {0}
    195c:	03193f01 	tsteq	r9, #1, 30
    1960:	3b0b3a0e 	blcc	2d01a0 <__bss_end__+0x2c52f8>
    1964:	270b390b 	strcs	r3, [fp, -fp, lsl #18]
    1968:	11134919 	tstne	r3, r9, lsl r9
    196c:	40061201 	andmi	r1, r6, r1, lsl #4
    1970:	19429718 	stmdbne	r2, {r3, r4, r8, r9, sl, ip, pc}^
    1974:	00001301 	andeq	r1, r0, r1, lsl #6
    1978:	0300050a 	movweq	r0, #1290	; 0x50a
    197c:	3b0b3a0e 	blcc	2d01bc <__bss_end__+0x2c5314>
    1980:	490b390b 	stmdbmi	fp, {r0, r1, r3, r8, fp, ip, sp}
    1984:	00180213 	andseq	r0, r8, r3, lsl r2
    1988:	00050b00 	andeq	r0, r5, r0, lsl #22
    198c:	0b3a0803 	bleq	e839a0 <__bss_end__+0xe78af8>
    1990:	0b390b3b 	bleq	e44684 <__bss_end__+0xe397dc>
    1994:	17021349 	strne	r1, [r2, -r9, asr #6]
    1998:	001742b7 			; <UNDEFINED> instruction: 0x001742b7
    199c:	00340c00 	eorseq	r0, r4, r0, lsl #24
    19a0:	0b3a0803 	bleq	e839b4 <__bss_end__+0xe78b0c>
    19a4:	0b390b3b 	bleq	e44698 <__bss_end__+0xe397f0>
    19a8:	17021349 	strne	r1, [r2, -r9, asr #6]
    19ac:	001742b7 			; <UNDEFINED> instruction: 0x001742b7
    19b0:	11010000 	mrsne	r0, (UNDEF: 1)
    19b4:	130e2501 	movwne	r2, #58625	; 0xe501
    19b8:	1b0e030b 	blne	3825ec <__bss_end__+0x377744>
    19bc:	1201110e 	andne	r1, r1, #-2147483645	; 0x80000003
    19c0:	00171006 	andseq	r1, r7, r6
    19c4:	00240200 	eoreq	r0, r4, r0, lsl #4
    19c8:	0b3e0b0b 	bleq	f845fc <__bss_end__+0xf79754>
    19cc:	00000803 	andeq	r0, r0, r3, lsl #16
    19d0:	0b002403 	bleq	a9e4 <__FUNCTION__.4034+0x198>
    19d4:	030b3e0b 	movweq	r3, #48651	; 0xbe0b
    19d8:	0400000e 	streq	r0, [r0], #-14
    19dc:	19270115 	stmdbne	r7!, {r0, r2, r4, r8}
    19e0:	13011349 	movwne	r1, #4937	; 0x1349
    19e4:	05050000 	streq	r0, [r5, #-0]
    19e8:	00134900 	andseq	r4, r3, r0, lsl #18
    19ec:	00340600 	eorseq	r0, r4, r0, lsl #12
    19f0:	0b3a0e03 	bleq	e85204 <__bss_end__+0xe7a35c>
    19f4:	0b390b3b 	bleq	e446e8 <__bss_end__+0xe39840>
    19f8:	193f1349 	ldmdbne	pc!, {r0, r3, r6, r8, r9, ip}	; <UNPREDICTABLE>
    19fc:	0000193c 	andeq	r1, r0, ip, lsr r9
    1a00:	0b000f07 	bleq	5624 <__code_start__-0x29dc>
    1a04:	0013490b 	andseq	r4, r3, fp, lsl #18
    1a08:	00260800 	eoreq	r0, r6, r0, lsl #16
    1a0c:	00001349 	andeq	r1, r0, r9, asr #6
    1a10:	3f012e09 	svccc	0x00012e09
    1a14:	3a0e0319 	bcc	382680 <__bss_end__+0x3777d8>
    1a18:	390b3b0b 	stmdbcc	fp, {r0, r1, r3, r8, r9, fp, ip, sp}
    1a1c:	4919270b 	ldmdbmi	r9, {r0, r1, r3, r8, r9, sl, sp}
    1a20:	12011113 	andne	r1, r1, #-1073741820	; 0xc0000004
    1a24:	97184006 	ldrls	r4, [r8, -r6]
    1a28:	00001942 	andeq	r1, r0, r2, asr #18
    1a2c:	0300050a 	movweq	r0, #1290	; 0x50a
    1a30:	3b0b3a08 	blcc	2d0258 <__bss_end__+0x2c53b0>
    1a34:	490b390b 	stmdbmi	fp, {r0, r1, r3, r8, fp, ip, sp}
    1a38:	b7170213 			; <UNDEFINED> instruction: 0xb7170213
    1a3c:	00001742 	andeq	r1, r0, r2, asr #14
    1a40:	01110100 	tsteq	r1, r0, lsl #2
    1a44:	0b130e25 	bleq	4c52e0 <__bss_end__+0x4ba438>
    1a48:	0e1b0e03 	cdpeq	14, 1, cr0, cr11, cr3, {0}
    1a4c:	06120111 			; <UNDEFINED> instruction: 0x06120111
    1a50:	00001710 	andeq	r1, r0, r0, lsl r7
    1a54:	0b002402 	bleq	aa64 <putk>
    1a58:	030b3e0b 	movweq	r3, #48651	; 0xbe0b
    1a5c:	03000008 	movweq	r0, #8
    1a60:	0b0b0024 	bleq	2c1af8 <__bss_end__+0x2b6c50>
    1a64:	0e030b3e 	vmoveq.16	d3[0], r0
    1a68:	15040000 	strne	r0, [r4, #-0]
    1a6c:	49192701 	ldmdbmi	r9, {r0, r8, r9, sl, sp}
    1a70:	00130113 	andseq	r0, r3, r3, lsl r1
    1a74:	00050500 	andeq	r0, r5, r0, lsl #10
    1a78:	00001349 	andeq	r1, r0, r9, asr #6
    1a7c:	03003406 	movweq	r3, #1030	; 0x406
    1a80:	3b0b3a0e 	blcc	2d02c0 <__bss_end__+0x2c5418>
    1a84:	490b390b 	stmdbmi	fp, {r0, r1, r3, r8, fp, ip, sp}
    1a88:	3c193f13 	ldccc	15, cr3, [r9], {19}
    1a8c:	07000019 	smladeq	r0, r9, r0, r0
    1a90:	0b0b000f 	bleq	2c1ad4 <__bss_end__+0x2b6c2c>
    1a94:	00001349 	andeq	r1, r0, r9, asr #6
    1a98:	49002608 	stmdbmi	r0, {r3, r9, sl, sp}
    1a9c:	09000013 	stmdbeq	r0, {r0, r1, r4}
    1aa0:	193f012e 	ldmdbne	pc!, {r1, r2, r3, r5, r8}	; <UNPREDICTABLE>
    1aa4:	0b3a0e03 	bleq	e852b8 <__bss_end__+0xe7a410>
    1aa8:	0b390b3b 	bleq	e4479c <__bss_end__+0xe398f4>
    1aac:	13491927 	movtne	r1, #39207	; 0x9927
    1ab0:	06120111 			; <UNDEFINED> instruction: 0x06120111
    1ab4:	42971840 	addsmi	r1, r7, #64, 16	; 0x400000
    1ab8:	00130119 	andseq	r0, r3, r9, lsl r1
    1abc:	00050a00 	andeq	r0, r5, r0, lsl #20
    1ac0:	0b3a0803 	bleq	e83ad4 <__bss_end__+0xe78c2c>
    1ac4:	0b390b3b 	bleq	e447b8 <__bss_end__+0xe39910>
    1ac8:	18021349 	stmdane	r2, {r0, r3, r6, r8, r9, ip}
    1acc:	050b0000 	streq	r0, [fp, #-0]
    1ad0:	3a080300 	bcc	2026d8 <__bss_end__+0x1f7830>
    1ad4:	390b3b0b 	stmdbcc	fp, {r0, r1, r3, r8, r9, fp, ip, sp}
    1ad8:	0213490b 	andseq	r4, r3, #180224	; 0x2c000
    1adc:	1742b717 	smlaldne	fp, r2, r7, r7
    1ae0:	340c0000 	strcc	r0, [ip], #-0
    1ae4:	3a080300 	bcc	2026ec <__bss_end__+0x1f7844>
    1ae8:	390b3b0b 	stmdbcc	fp, {r0, r1, r3, r8, r9, fp, ip, sp}
    1aec:	0213490b 	andseq	r4, r3, #180224	; 0x2c000
    1af0:	1742b717 	smlaldne	fp, r2, r7, r7
    1af4:	01000000 	mrseq	r0, (UNDEF: 0)
    1af8:	0e250111 	mcreq	1, 1, r0, cr5, cr1, {0}
    1afc:	0e030b13 	vmoveq.32	d3[0], r0
    1b00:	17550e1b 	smmlane	r5, fp, lr, r0
    1b04:	17100111 			; <UNDEFINED> instruction: 0x17100111
    1b08:	24020000 	strcs	r0, [r2], #-0
    1b0c:	3e0b0b00 	vmlacc.f64	d0, d11, d0
    1b10:	0008030b 	andeq	r0, r8, fp, lsl #6
    1b14:	00160300 	andseq	r0, r6, r0, lsl #6
    1b18:	0b3a0e03 	bleq	e8532c <__bss_end__+0xe7a484>
    1b1c:	0b390b3b 	bleq	e44810 <__bss_end__+0xe39968>
    1b20:	00001349 	andeq	r1, r0, r9, asr #6
    1b24:	0b002404 	bleq	ab3c <buf.3948+0x9c>
    1b28:	030b3e0b 	movweq	r3, #48651	; 0xbe0b
    1b2c:	0500000e 	streq	r0, [r0, #-14]
    1b30:	13490026 	movtne	r0, #36902	; 0x9026
    1b34:	15060000 	strne	r0, [r6, #-0]
    1b38:	49192701 	ldmdbmi	r9, {r0, r8, r9, sl, sp}
    1b3c:	00130113 	andseq	r0, r3, r3, lsl r1
    1b40:	00050700 	andeq	r0, r5, r0, lsl #14
    1b44:	00001349 	andeq	r1, r0, r9, asr #6
    1b48:	03003408 	movweq	r3, #1032	; 0x408
    1b4c:	3b0b3a0e 	blcc	2d038c <__bss_end__+0x2c54e4>
    1b50:	490b390b 	stmdbmi	fp, {r0, r1, r3, r8, fp, ip, sp}
    1b54:	3c193f13 	ldccc	15, cr3, [r9], {19}
    1b58:	09000019 	stmdbeq	r0, {r0, r3, r4}
    1b5c:	0b0b000f 	bleq	2c1ba0 <__bss_end__+0x2b6cf8>
    1b60:	00001349 	andeq	r1, r0, r9, asr #6
    1b64:	3f012e0a 	svccc	0x00012e0a
    1b68:	3a0e0319 	bcc	3827d4 <__bss_end__+0x37792c>
    1b6c:	390b3b0b 	stmdbcc	fp, {r0, r1, r3, r8, r9, fp, ip, sp}
    1b70:	4919270b 	ldmdbmi	r9, {r0, r1, r3, r8, r9, sl, sp}
    1b74:	12011113 	andne	r1, r1, #-1073741820	; 0xc0000004
    1b78:	97184006 	ldrls	r4, [r8, -r6]
    1b7c:	13011942 	movwne	r1, #6466	; 0x1942
    1b80:	050b0000 	streq	r0, [fp, #-0]
    1b84:	3a080300 	bcc	20278c <__bss_end__+0x1f78e4>
    1b88:	390b3b0b 	stmdbcc	fp, {r0, r1, r3, r8, r9, fp, ip, sp}
    1b8c:	0213490b 	andseq	r4, r3, #180224	; 0x2c000
    1b90:	1742b717 	smlaldne	fp, r2, r7, r7
    1b94:	340c0000 	strcc	r0, [ip], #-0
    1b98:	3a080300 	bcc	2027a0 <__bss_end__+0x1f78f8>
    1b9c:	390b3b0b 	stmdbcc	fp, {r0, r1, r3, r8, r9, fp, ip, sp}
    1ba0:	0213490b 	andseq	r4, r3, #180224	; 0x2c000
    1ba4:	1742b717 	smlaldne	fp, r2, r7, r7
    1ba8:	01000000 	mrseq	r0, (UNDEF: 0)
    1bac:	0e250111 	mcreq	1, 1, r0, cr5, cr1, {0}
    1bb0:	0e030b13 	vmoveq.32	d3[0], r0
    1bb4:	01110e1b 	tsteq	r1, fp, lsl lr
    1bb8:	17100612 			; <UNDEFINED> instruction: 0x17100612
    1bbc:	24020000 	strcs	r0, [r2], #-0
    1bc0:	3e0b0b00 	vmlacc.f64	d0, d11, d0
    1bc4:	0008030b 	andeq	r0, r8, fp, lsl #6
    1bc8:	00240300 	eoreq	r0, r4, r0, lsl #6
    1bcc:	0b3e0b0b 	bleq	f84800 <__bss_end__+0xf79958>
    1bd0:	00000e03 	andeq	r0, r0, r3, lsl #28
    1bd4:	27011504 	strcs	r1, [r1, -r4, lsl #10]
    1bd8:	01134919 	tsteq	r3, r9, lsl r9
    1bdc:	05000013 	streq	r0, [r0, #-19]	; 0xffffffed
    1be0:	13490005 	movtne	r0, #36869	; 0x9005
    1be4:	34060000 	strcc	r0, [r6], #-0
    1be8:	3a0e0300 	bcc	3827f0 <__bss_end__+0x377948>
    1bec:	390b3b0b 	stmdbcc	fp, {r0, r1, r3, r8, r9, fp, ip, sp}
    1bf0:	3f13490b 	svccc	0x0013490b
    1bf4:	00193c19 	andseq	r3, r9, r9, lsl ip
    1bf8:	000f0700 	andeq	r0, pc, r0, lsl #14
    1bfc:	13490b0b 	movtne	r0, #39691	; 0x9b0b
    1c00:	26080000 	strcs	r0, [r8], -r0
    1c04:	00134900 	andseq	r4, r3, r0, lsl #18
    1c08:	002e0900 	eoreq	r0, lr, r0, lsl #18
    1c0c:	0e03193f 			; <UNDEFINED> instruction: 0x0e03193f
    1c10:	0b3b0b3a 	bleq	ec4900 <__bss_end__+0xeb9a58>
    1c14:	19270b39 	stmdbne	r7!, {r0, r3, r4, r5, r8, r9, fp}
    1c18:	06120111 			; <UNDEFINED> instruction: 0x06120111
    1c1c:	42971840 	addsmi	r1, r7, #64, 16	; 0x400000
    1c20:	00000019 	andeq	r0, r0, r9, lsl r0
    1c24:	25011101 	strcs	r1, [r1, #-257]	; 0xfffffeff
    1c28:	030b130e 	movweq	r1, #45838	; 0xb30e
    1c2c:	110e1b0e 	tstne	lr, lr, lsl #22
    1c30:	10061201 	andne	r1, r6, r1, lsl #4
    1c34:	02000017 	andeq	r0, r0, #23, 0
    1c38:	0b0b0024 	bleq	2c1cd0 <__bss_end__+0x2b6e28>
    1c3c:	08030b3e 	stmdaeq	r3, {r1, r2, r3, r4, r5, r8, r9, fp}
    1c40:	24030000 	strcs	r0, [r3], #-0
    1c44:	3e0b0b00 	vmlacc.f64	d0, d11, d0
    1c48:	000e030b 	andeq	r0, lr, fp, lsl #6
    1c4c:	00260400 	eoreq	r0, r6, r0, lsl #8
    1c50:	00001349 	andeq	r1, r0, r9, asr #6
    1c54:	03001605 	movweq	r1, #1541	; 0x605
    1c58:	3b0b3a0e 	blcc	2d0498 <__bss_end__+0x2c55f0>
    1c5c:	490b390b 	stmdbmi	fp, {r0, r1, r3, r8, fp, ip, sp}
    1c60:	06000013 			; <UNDEFINED> instruction: 0x06000013
    1c64:	0b3e0104 	bleq	f8207c <__bss_end__+0xf771d4>
    1c68:	13490b0b 	movtne	r0, #39691	; 0x9b0b
    1c6c:	0b3b0b3a 	bleq	ec495c <__bss_end__+0xeb9ab4>
    1c70:	13010b39 	movwne	r0, #6969	; 0x1b39
    1c74:	28070000 	stmdacs	r7, {}	; <UNPREDICTABLE>
    1c78:	1c0e0300 	stcne	3, cr0, [lr], {-0}
    1c7c:	0800000b 	stmdaeq	r0, {r0, r1, r3}
    1c80:	0e030034 	mcreq	0, 0, r0, cr3, cr4, {1}
    1c84:	0b3b0b3a 	bleq	ec4974 <__bss_end__+0xeb9acc>
    1c88:	13490b39 	movtne	r0, #39737	; 0x9b39
    1c8c:	0000061c 	andeq	r0, r0, ip, lsl r6
    1c90:	3f012e09 	svccc	0x00012e09
    1c94:	3a0e0319 	bcc	382900 <__bss_end__+0x377a58>
    1c98:	390b3b0b 	stmdbcc	fp, {r0, r1, r3, r8, r9, fp, ip, sp}
    1c9c:	4919270b 	ldmdbmi	r9, {r0, r1, r3, r8, r9, sl, sp}
    1ca0:	12011113 	andne	r1, r1, #-1073741820	; 0xc0000004
    1ca4:	97184006 	ldrls	r4, [r8, -r6]
    1ca8:	13011942 	movwne	r1, #6466	; 0x1942
    1cac:	050a0000 	streq	r0, [sl, #-0]
    1cb0:	3a080300 	bcc	2028b8 <__bss_end__+0x1f7a10>
    1cb4:	390b3b0b 	stmdbcc	fp, {r0, r1, r3, r8, r9, fp, ip, sp}
    1cb8:	0213490b 	andseq	r4, r3, #180224	; 0x2c000
    1cbc:	1742b717 	smlaldne	fp, r2, r7, r7
    1cc0:	340b0000 	strcc	r0, [fp], #-0
    1cc4:	3a0e0300 	bcc	3828cc <__bss_end__+0x377a24>
    1cc8:	390b3b0b 	stmdbcc	fp, {r0, r1, r3, r8, r9, fp, ip, sp}
    1ccc:	0213490b 	andseq	r4, r3, #180224	; 0x2c000
    1cd0:	1742b717 	smlaldne	fp, r2, r7, r7
    1cd4:	340c0000 	strcc	r0, [ip], #-0
    1cd8:	3a080300 	bcc	2028e0 <__bss_end__+0x1f7a38>
    1cdc:	390b3b0b 	stmdbcc	fp, {r0, r1, r3, r8, r9, fp, ip, sp}
    1ce0:	0213490b 	andseq	r4, r3, #180224	; 0x2c000
    1ce4:	1742b717 	smlaldne	fp, r2, r7, r7
    1ce8:	890d0000 	stmdbhi	sp, {}	; <UNPREDICTABLE>
    1cec:	11010182 	smlabbne	r1, r2, r1, r0
    1cf0:	00133101 	andseq	r3, r3, r1, lsl #2
    1cf4:	828a0e00 	addhi	r0, sl, #0, 28
    1cf8:	18020001 	stmdane	r2, {r0}
    1cfc:	00184291 	mulseq	r8, r1, r2
    1d00:	012e0f00 			; <UNDEFINED> instruction: 0x012e0f00
    1d04:	0e03193f 			; <UNDEFINED> instruction: 0x0e03193f
    1d08:	0b3b0b3a 	bleq	ec49f8 <__bss_end__+0xeb9b50>
    1d0c:	19270b39 	stmdbne	r7!, {r0, r3, r4, r5, r8, r9, fp}
    1d10:	06120111 			; <UNDEFINED> instruction: 0x06120111
    1d14:	42971840 	addsmi	r1, r7, #64, 16	; 0x400000
    1d18:	00130119 	andseq	r0, r3, r9, lsl r1
    1d1c:	82891000 	addhi	r1, r9, #0, 0
    1d20:	01110101 	tsteq	r1, r1, lsl #2
    1d24:	13011331 	movwne	r1, #4913	; 0x1331
    1d28:	89110000 	ldmdbhi	r1, {}	; <UNPREDICTABLE>
    1d2c:	11000182 	smlabbne	r0, r2, r1, r0
    1d30:	00133101 	andseq	r3, r3, r1, lsl #2
    1d34:	00051200 	andeq	r1, r5, r0, lsl #4
    1d38:	0b3a0e03 	bleq	e8554c <__bss_end__+0xe7a6a4>
    1d3c:	0b390b3b 	bleq	e44a30 <__bss_end__+0xe39b88>
    1d40:	17021349 	strne	r1, [r2, -r9, asr #6]
    1d44:	001742b7 			; <UNDEFINED> instruction: 0x001742b7
    1d48:	012e1300 			; <UNDEFINED> instruction: 0x012e1300
    1d4c:	0b3a0e03 	bleq	e85560 <__bss_end__+0xe7a6b8>
    1d50:	0b390b3b 	bleq	e44a44 <__bss_end__+0xe39b9c>
    1d54:	13491927 	movtne	r1, #39207	; 0x9927
    1d58:	13010b20 	movwne	r0, #6944	; 0x1b20
    1d5c:	05140000 	ldreq	r0, [r4, #-0]
    1d60:	3a080300 	bcc	202968 <__bss_end__+0x1f7ac0>
    1d64:	390b3b0b 	stmdbcc	fp, {r0, r1, r3, r8, r9, fp, ip, sp}
    1d68:	0013490b 	andseq	r4, r3, fp, lsl #18
    1d6c:	002e1500 	eoreq	r1, lr, r0, lsl #10
    1d70:	193c193f 	ldmdbne	ip!, {r0, r1, r2, r3, r4, r5, r8, fp, ip}
    1d74:	0e030e6e 	cdpeq	14, 0, cr0, cr3, cr14, {3}
    1d78:	0b3b0b3a 	bleq	ec4a68 <__bss_end__+0xeb9bc0>
    1d7c:	00000b39 	andeq	r0, r0, r9, lsr fp
	...

Disassembly of section .debug_loc:

00000000 <.debug_loc>:
       0:	00000000 	andeq	r0, r0, r0
       4:	00800000 	addeq	r0, r0, r0
       8:	00880000 	addeq	r0, r8, r0
       c:	00010000 	andeq	r0, r1, r0
      10:	00008850 	andeq	r8, r0, r0, asr r8
      14:	00008b00 	andeq	r8, r0, r0, lsl #22
      18:	51000100 	mrspl	r0, (UNDEF: 16)
      1c:	0000008b 	andeq	r0, r0, fp, lsl #1
      20:	0000010c 	andeq	r0, r0, ip, lsl #2
      24:	00540001 	subseq	r0, r4, r1
	...
      34:	00003c00 	andeq	r3, r0, r0, lsl #24
      38:	00003f00 	andeq	r3, r0, r0, lsl #30
      3c:	50000100 	andpl	r0, r0, r0, lsl #2
      40:	0000003f 	andeq	r0, r0, pc, lsr r0
      44:	0000005c 	andeq	r0, r0, ip, asr r0
      48:	5c540001 	mrrcpl	0, 0, r0, r4, cr1
      4c:	68000000 	stmdavs	r0, {}	; <UNPREDICTABLE>
      50:	03000000 	movweq	r0, #0
      54:	9f7f7000 	svcls	0x007f7000
	...
      60:	00100001 	andseq	r0, r0, r1
      64:	00280000 	eoreq	r0, r8, r0
      68:	00020000 	andeq	r0, r2, r0
      6c:	00009f3c 	andeq	r9, r0, ip, lsr pc
      70:	00000000 	andeq	r0, r0, r0
      74:	00010000 	andeq	r0, r1, r0
      78:	00000010 	andeq	r0, r0, r0, lsl r0
      7c:	00000028 	andeq	r0, r0, r8, lsr #32
      80:	baf20006 	blt	ffc800a0 <__bss_end__+0xffc751f8>
      84:	00000004 	andeq	r0, r0, r4
	...
      90:	00100001 	andseq	r0, r0, r1
      94:	00280000 	eoreq	r0, r8, r0
      98:	00060000 	andeq	r0, r6, r0
      9c:	00a00003 	adceq	r0, r0, r3
      a0:	00009f00 	andeq	r9, r0, r0, lsl #30
	...
      b0:	00040000 	andeq	r0, r4, r0
      b4:	00010000 	andeq	r0, r1, r0
      b8:	00000450 	andeq	r0, r0, r0, asr r4
      bc:	00000800 	andeq	r0, r0, r0, lsl #16
      c0:	f3000400 	vshl.u8	d0, d0, d0
      c4:	009f5001 	addseq	r5, pc, r1
      c8:	00000000 	andeq	r0, r0, r0
      cc:	02000000 	andeq	r0, r0, #0, 0
      d0:	00000000 	andeq	r0, r0, r0
      d4:	04000000 	streq	r0, [r0], #-0
      d8:	01000000 	mrseq	r0, (UNDEF: 0)
      dc:	00045000 	andeq	r5, r4, r0
      e0:	00080000 	andeq	r0, r8, r0
      e4:	00040000 	andeq	r0, r4, r0
      e8:	9f5001f3 	svcls	0x005001f3
	...
      f8:	04500000 	ldrbeq	r0, [r0], #-0
      fc:	04680000 	strbteq	r0, [r8], #-0
     100:	00010000 	andeq	r0, r1, r0
     104:	00046850 	andeq	r6, r4, r0, asr r8
     108:	00051c00 	andeq	r1, r5, r0, lsl #24
     10c:	56000100 	strpl	r0, [r0], -r0, lsl #2
     110:	0000051c 	andeq	r0, r0, ip, lsl r5
     114:	0000052c 	andeq	r0, r0, ip, lsr #10
     118:	01f30004 	mvnseq	r0, r4
     11c:	00009f50 	andeq	r9, r0, r0, asr pc
	...
     12c:	00000470 	andeq	r0, r0, r0, ror r4
     130:	0000047b 	andeq	r0, r0, fp, ror r4
     134:	7b500001 	blvc	1400140 <__bss_end__+0x13f5298>
     138:	1c000004 	stcne	0, cr0, [r0], {4}
     13c:	01000005 	tsteq	r0, r5
     140:	051c5400 	ldreq	r5, [ip, #-1024]	; 0xfffffc00
     144:	052c0000 	streq	r0, [ip, #-0]!
     148:	00040000 	andeq	r0, r4, r0
     14c:	9f7ed870 	svcls	0x007ed870
	...
     158:	04b00001 	ldrteq	r0, [r0], #1
     15c:	04b80000 	ldrteq	r0, [r8], #0
     160:	00010000 	andeq	r0, r1, r0
     164:	00000054 	andeq	r0, r0, r4, asr r0
	...
     170:	0002e000 	andeq	lr, r2, r0
     174:	0002f000 	andeq	pc, r2, r0
     178:	50000100 	andpl	r0, r0, r0, lsl #2
     17c:	000002f0 	strdeq	r0, [r0], -r0	; <UNPREDICTABLE>
     180:	00000450 	andeq	r0, r0, r0, asr r4
     184:	00540001 	subseq	r0, r4, r1
     188:	00000000 	andeq	r0, r0, r0
     18c:	01000000 	mrseq	r0, (UNDEF: 0)
     190:	00000000 	andeq	r0, r0, r0
     194:	f4000000 	vst4.8	{d0-d3}, [r0], r0
     198:	04000002 	streq	r0, [r0], #-2
     19c:	04000003 	streq	r0, [r0], #-3
     1a0:	7ed87400 	cdpvc	4, 13, cr7, cr8, cr0, {0}
     1a4:	0003049f 	muleq	r3, pc, r4	; <UNPREDICTABLE>
     1a8:	00036400 	andeq	r6, r3, r0, lsl #8
     1ac:	55000100 	strpl	r0, [r0, #-256]	; 0xffffff00
     1b0:	00000364 	andeq	r0, r0, r4, ror #6
     1b4:	00000388 	andeq	r0, r0, r8, lsl #7
     1b8:	d8740004 	ldmdale	r4!, {r2}^
     1bc:	03889f7e 	orreq	r9, r8, #504	; 0x1f8
     1c0:	04500000 	ldrbeq	r0, [r0], #-0
     1c4:	00010000 	andeq	r0, r1, r0
     1c8:	00000055 	andeq	r0, r0, r5, asr r0
     1cc:	00000000 	andeq	r0, r0, r0
     1d0:	00000300 	andeq	r0, r0, r0, lsl #6
     1d4:	40000000 	andmi	r0, r0, r0
     1d8:	44000003 	strmi	r0, [r0], #-3
     1dc:	02000003 	andeq	r0, r0, #3, 0
     1e0:	449f3000 	ldrmi	r3, [pc], #0	; 1e8 <__code_start__-0x7e18>
     1e4:	64000003 	strvs	r0, [r0], #-3
     1e8:	01000003 	tsteq	r0, r3
     1ec:	03a85300 			; <UNDEFINED> instruction: 0x03a85300
     1f0:	03b30000 			; <UNDEFINED> instruction: 0x03b30000
     1f4:	00010000 	andeq	r0, r1, r0
     1f8:	00000053 	andeq	r0, r0, r3, asr r0
	...
     204:	00025400 	andeq	r5, r2, r0, lsl #8
     208:	00026000 	andeq	r6, r2, r0
     20c:	50000100 	andpl	r0, r0, r0, lsl #2
     210:	00000260 	andeq	r0, r0, r0, ror #4
     214:	000002d4 	ldrdeq	r0, [r0], -r4
     218:	00540001 	subseq	r0, r4, r1
	...
     224:	68000000 	stmdavs	r0, {}	; <UNPREDICTABLE>
     228:	70000002 	andvc	r0, r0, r2
     22c:	01000002 	tsteq	r0, r2
     230:	02705000 	rsbseq	r5, r0, #0, 0
     234:	02d40000 	sbcseq	r0, r4, #0, 0
     238:	00010000 	andeq	r0, r1, r0
     23c:	00000056 	andeq	r0, r0, r6, asr r0
     240:	00000000 	andeq	r0, r0, r0
     244:	00000100 	andeq	r0, r0, r0, lsl #2
     248:	68000000 	stmdavs	r0, {}	; <UNPREDICTABLE>
     24c:	70000002 	andvc	r0, r0, r2
     250:	02000002 	andeq	r0, r0, #2, 0
     254:	709f3000 	addsvc	r3, pc, r0
     258:	d4000002 	strle	r0, [r0], #-2
     25c:	01000002 	tsteq	r0, r2
     260:	02d45500 	sbcseq	r5, r4, #0, 10
     264:	02e00000 	rsceq	r0, r0, #0, 0
     268:	00010000 	andeq	r0, r1, r0
     26c:	00000050 	andeq	r0, r0, r0, asr r0
	...
     280:	0001f000 	andeq	pc, r1, r0
     284:	00022800 	andeq	r2, r2, r0, lsl #16
     288:	50000100 	andpl	r0, r0, r0, lsl #2
     28c:	00000228 	andeq	r0, r0, r8, lsr #4
     290:	0000022c 	andeq	r0, r0, ip, lsr #4
     294:	01f30004 	mvnseq	r0, r4
     298:	022c9f50 	eoreq	r9, ip, #80, 30	; 0x140
     29c:	02300000 	eorseq	r0, r0, #0, 0
     2a0:	00010000 	andeq	r0, r1, r0
     2a4:	00023050 	andeq	r3, r2, r0, asr r0
     2a8:	00023400 	andeq	r3, r2, r0, lsl #8
     2ac:	f3000400 	vshl.u8	d0, d0, d0
     2b0:	349f5001 	ldrcc	r5, [pc], #1	; 2b8 <__code_start__-0x7d48>
     2b4:	38000002 	stmdacc	r0, {r1}
     2b8:	01000002 	tsteq	r0, r2
     2bc:	02385000 	eorseq	r5, r8, #0, 0
     2c0:	023c0000 	eorseq	r0, ip, #0, 0
     2c4:	00040000 	andeq	r0, r4, r0
     2c8:	9f5001f3 	svcls	0x005001f3
	...
     2d8:	00000200 	andeq	r0, r0, r0, lsl #4
     2dc:	0000022c 	andeq	r0, r0, ip, lsr #4
     2e0:	34530001 	ldrbcc	r0, [r3], #-1
     2e4:	3c000002 	stccc	0, cr0, [r0], {2}
     2e8:	01000002 	tsteq	r0, r2
     2ec:	00005300 	andeq	r5, r0, r0, lsl #6
	...
     2fc:	000001a8 	andeq	r0, r0, r8, lsr #3
     300:	000001b7 			; <UNDEFINED> instruction: 0x000001b7
     304:	b7500001 	ldrblt	r0, [r0, -r1]
     308:	d0000001 	andle	r0, r0, r1
     30c:	01000001 	tsteq	r0, r1
     310:	01d05500 	bicseq	r5, r0, r0, lsl #10
     314:	01f00000 	mvnseq	r0, r0
     318:	00040000 	andeq	r0, r4, r0
     31c:	9f5001f3 	svcls	0x005001f3
	...
     32c:	000001a8 	andeq	r0, r0, r8, lsr #3
     330:	000001b7 			; <UNDEFINED> instruction: 0x000001b7
     334:	b7510001 	ldrblt	r0, [r1, -r1]
     338:	f0000001 			; <UNDEFINED> instruction: 0xf0000001
     33c:	01000001 	tsteq	r0, r1
     340:	00005400 	andeq	r5, r0, r0, lsl #8
	...
     34c:	01bc0000 			; <UNDEFINED> instruction: 0x01bc0000
     350:	01c80000 	biceq	r0, r8, r0
     354:	00010000 	andeq	r0, r1, r0
     358:	0001c850 	andeq	ip, r1, r0, asr r8
     35c:	0001f000 	andeq	pc, r1, r0
     360:	56000100 	strpl	r0, [r0], -r0, lsl #2
	...
     370:	000001d0 	ldrdeq	r0, [r0], -r0	; <UNPREDICTABLE>
     374:	000001dc 	ldrdeq	r0, [r0], -ip
     378:	dc500001 	mrrcle	0, 0, r0, r0, cr1	; <UNPREDICTABLE>
     37c:	f0000001 			; <UNDEFINED> instruction: 0xf0000001
     380:	01000001 	tsteq	r0, r1
     384:	00005500 	andeq	r5, r0, r0, lsl #10
	...
     390:	000001e0 	andeq	r0, r0, r0, ror #3
     394:	000001e8 	andeq	r0, r0, r8, ror #3
     398:	00500001 	subseq	r0, r0, r1
     39c:	00000000 	andeq	r0, r0, r0
     3a0:	01000000 	mrseq	r0, (UNDEF: 0)
     3a4:	b4000000 	strlt	r0, [r0], #-0
     3a8:	b7000001 	strlt	r0, [r0, -r1]
     3ac:	01000001 	tsteq	r0, r1
     3b0:	01b75000 			; <UNDEFINED> instruction: 0x01b75000
     3b4:	01bc0000 			; <UNDEFINED> instruction: 0x01bc0000
     3b8:	00010000 	andeq	r0, r1, r0
     3bc:	00000055 	andeq	r0, r0, r5, asr r0
	...
     3c8:	00014400 	andeq	r4, r1, r0, lsl #8
     3cc:	00014f00 	andeq	r4, r1, r0, lsl #30
     3d0:	50000100 	andpl	r0, r0, r0, lsl #2
     3d4:	0000014f 	andeq	r0, r0, pc, asr #2
     3d8:	000001a8 	andeq	r0, r0, r8, lsr #3
     3dc:	00550001 	subseq	r0, r5, r1
	...
     3ec:	54000000 	strpl	r0, [r0], #-0
     3f0:	58000001 	stmdapl	r0, {r0}
     3f4:	01000001 	tsteq	r0, r1
     3f8:	01585000 	cmpeq	r8, r0
     3fc:	01640000 	cmneq	r4, r0
     400:	00010000 	andeq	r0, r1, r0
     404:	00016454 	andeq	r6, r1, r4, asr r4
     408:	00017700 	andeq	r7, r1, r0, lsl #14
     40c:	50000100 	andpl	r0, r0, r0, lsl #2
     410:	00000177 	andeq	r0, r0, r7, ror r1
     414:	000001a8 	andeq	r0, r0, r8, lsr #3
     418:	00540001 	subseq	r0, r4, r1
	...
     424:	ec000000 	stc	0, cr0, [r0], {-0}
     428:	f7000000 			; <UNDEFINED> instruction: 0xf7000000
     42c:	01000000 	mrseq	r0, (UNDEF: 0)
     430:	00f75000 	rscseq	r5, r7, r0
     434:	01440000 	mrseq	r0, (UNDEF: 68)
     438:	00010000 	andeq	r0, r1, r0
     43c:	00000055 	andeq	r0, r0, r5, asr r0
	...
     44c:	0000fc00 	andeq	pc, r0, r0, lsl #24
     450:	00010f00 	andeq	r0, r1, r0, lsl #30
     454:	50000100 	andpl	r0, r0, r0, lsl #2
     458:	0000010f 	andeq	r0, r0, pc, lsl #2
     45c:	00000124 	andeq	r0, r0, r4, lsr #2
     460:	24540001 	ldrbcs	r0, [r4], #-1
     464:	28000001 	stmdacs	r0, {r0}
     468:	01000001 	tsteq	r0, r1
     46c:	01285000 			; <UNDEFINED> instruction: 0x01285000
     470:	01440000 	mrseq	r0, (UNDEF: 68)
     474:	00010000 	andeq	r0, r1, r0
     478:	00000054 	andeq	r0, r0, r4, asr r0
	...
     488:	b4000000 	strlt	r0, [r0], #-0
     48c:	cc000000 	stcgt	0, cr0, [r0], {-0}
     490:	01000000 	mrseq	r0, (UNDEF: 0)
     494:	00cc5000 	sbceq	r5, ip, r0
     498:	00d80000 	sbcseq	r0, r8, r0
     49c:	00040000 	andeq	r0, r4, r0
     4a0:	9f7ed870 	svcls	0x007ed870
     4a4:	000000d8 	ldrdeq	r0, [r0], -r8
     4a8:	000000dc 	ldrdeq	r0, [r0], -ip
     4ac:	01f30004 	mvnseq	r0, r4
     4b0:	00dc9f50 	sbcseq	r9, ip, r0, asr pc
     4b4:	00e00000 	rsceq	r0, r0, r0
     4b8:	00010000 	andeq	r0, r1, r0
     4bc:	0000e050 	andeq	lr, r0, r0, asr r0
     4c0:	0000ec00 	andeq	lr, r0, r0, lsl #24
     4c4:	f3000400 	vshl.u8	d0, d0, d0
     4c8:	009f5001 	addseq	r5, pc, r1
	...
     4d4:	9c000000 	stcls	0, cr0, [r0], {-0}
     4d8:	a7000000 	strge	r0, [r0, -r0]
     4dc:	01000000 	mrseq	r0, (UNDEF: 0)
     4e0:	00a75000 	adceq	r5, r7, r0
     4e4:	00b40000 	adcseq	r0, r4, r0
     4e8:	00010000 	andeq	r0, r1, r0
     4ec:	00000054 	andeq	r0, r0, r4, asr r0
     4f0:	00000000 	andeq	r0, r0, r0
     4f4:	a8000000 	stmdage	r0, {}	; <UNPREDICTABLE>
     4f8:	ac000000 	stcge	0, cr0, [r0], {-0}
     4fc:	01000000 	mrseq	r0, (UNDEF: 0)
     500:	00005400 	andeq	r5, r0, r0, lsl #8
	...
     50c:	00940000 	addseq	r0, r4, r0
     510:	00980000 	addseq	r0, r8, r0
     514:	00010000 	andeq	r0, r1, r0
     518:	00009850 	andeq	r9, r0, r0, asr r8
     51c:	00009c00 	andeq	r9, r0, r0, lsl #24
     520:	70000400 	andvc	r0, r0, r0, lsl #8
     524:	009f7ed8 			; <UNDEFINED> instruction: 0x009f7ed8
	...
     530:	84000000 	strhi	r0, [r0], #-0
     534:	90000000 	andls	r0, r0, r0
     538:	01000000 	mrseq	r0, (UNDEF: 0)
     53c:	00905000 	addseq	r5, r0, r0
     540:	00940000 	addseq	r0, r4, r0
     544:	00040000 	andeq	r0, r4, r0
     548:	9f5001f3 	svcls	0x005001f3
	...
     55c:	00000058 	andeq	r0, r0, r8, asr r0
     560:	58500001 	ldmdapl	r0, {r0}^
     564:	74000000 	strvc	r0, [r0], #-0
     568:	04000000 	streq	r0, [r0], #-0
     56c:	5001f300 	andpl	pc, r1, r0, lsl #6
     570:	0000009f 	muleq	r0, pc, r0	; <UNPREDICTABLE>
	...
     580:	00005400 	andeq	r5, r0, r0, lsl #8
     584:	51000100 	mrspl	r0, (UNDEF: 16)
     588:	00000054 	andeq	r0, r0, r4, asr r0
     58c:	00000074 	andeq	r0, r0, r4, ror r0
     590:	01f30004 	mvnseq	r0, r4
     594:	00009f51 	andeq	r9, r0, r1, asr pc
     598:	00000000 	andeq	r0, r0, r0
     59c:	00030000 	andeq	r0, r3, r0
     5a0:	00000018 	andeq	r0, r0, r8, lsl r0
     5a4:	00000028 	andeq	r0, r0, r8, lsr #32
     5a8:	00530001 	subseq	r0, r3, r1
	...
     5b4:	0005c800 	andeq	ip, r5, r0, lsl #16
     5b8:	0005cc00 	andeq	ip, r5, r0, lsl #24
     5bc:	50000100 	andpl	r0, r0, r0, lsl #2
	...
     5c8:	00000001 	andeq	r0, r0, r1
     5cc:	000001bc 			; <UNDEFINED> instruction: 0x000001bc
     5d0:	000001e4 	andeq	r0, r0, r4, ror #3
     5d4:	9f300002 	svcls	0x00300002
     5d8:	000001e4 	andeq	r0, r0, r4, ror #3
     5dc:	00000268 	andeq	r0, r0, r8, ror #4
     5e0:	00550001 	subseq	r0, r5, r1
     5e4:	00000000 	andeq	r0, r0, r0
     5e8:	01000000 	mrseq	r0, (UNDEF: 0)
     5ec:	bc000000 	stclt	0, cr0, [r0], {-0}
     5f0:	e4000001 	str	r0, [r0], #-1
     5f4:	02000001 	andeq	r0, r0, #1, 0
     5f8:	e49f3000 	ldr	r3, [pc], #0	; 600 <__code_start__-0x7a00>
     5fc:	68000001 	stmdavs	r0, {r0}
     600:	01000002 	tsteq	r0, r2
     604:	00005700 	andeq	r5, r0, r0, lsl #14
     608:	00000000 	andeq	r0, r0, r0
     60c:	00010000 	andeq	r0, r1, r0
     610:	01bc0000 			; <UNDEFINED> instruction: 0x01bc0000
     614:	01e40000 	mvneq	r0, r0
     618:	00020000 	andeq	r0, r2, r0
     61c:	01e49f30 	mvneq	r9, r0, lsr pc
     620:	02680000 	rsbeq	r0, r8, #0, 0
     624:	00010000 	andeq	r0, r1, r0
     628:	00000056 	andeq	r0, r0, r6, asr r0
	...
     638:	0001d400 	andeq	sp, r1, r0, lsl #8
     63c:	00020400 	andeq	r0, r2, r0, lsl #8
     640:	50000100 	andpl	r0, r0, r0, lsl #2
     644:	00000204 	andeq	r0, r0, r4, lsl #4
     648:	00000214 	andeq	r0, r0, r4, lsl r2
     64c:	14540001 	ldrbne	r0, [r4], #-1
     650:	4c000002 	stcmi	0, cr0, [r0], {2}
     654:	01000002 	tsteq	r0, r2
     658:	024c5000 	subeq	r5, ip, #0, 0
     65c:	02680000 	rsbeq	r0, r8, #0, 0
     660:	00010000 	andeq	r0, r1, r0
     664:	00000054 	andeq	r0, r0, r4, asr r0
	...
     670:	78000000 	stmdavc	r0, {}	; <UNPREDICTABLE>
     674:	88000005 	stmdahi	r0, {r0, r2}
     678:	01000005 	tsteq	r0, r5
     67c:	05885000 	streq	r5, [r8]
     680:	058b0000 	streq	r0, [fp]
     684:	00010000 	andeq	r0, r1, r0
     688:	00058b51 	andeq	r8, r5, r1, asr fp
     68c:	0005bc00 	andeq	fp, r5, r0, lsl #24
     690:	54000100 	strpl	r0, [r0], #-256	; 0xffffff00
	...
     6a0:	000004f4 	strdeq	r0, [r0], -r4
     6a4:	00000500 	andeq	r0, r0, r0, lsl #10
     6a8:	00500001 	subseq	r0, r0, r1
     6ac:	24000005 	strcs	r0, [r0], #-5
     6b0:	01000005 	tsteq	r0, r5
     6b4:	00005400 	andeq	r5, r0, r0, lsl #8
	...
     6c0:	03d40000 	bicseq	r0, r4, #0, 0
     6c4:	03ef0000 	mvneq	r0, #0, 0
     6c8:	00010000 	andeq	r0, r1, r0
     6cc:	0003f050 	andeq	pc, r3, r0, asr r0	; <UNPREDICTABLE>
     6d0:	0003f800 	andeq	pc, r3, r0, lsl #16
     6d4:	50000100 	andpl	r0, r0, r0, lsl #2
	...
     6e4:	0000003c 	andeq	r0, r0, ip, lsr r0
     6e8:	00000048 	andeq	r0, r0, r8, asr #32
     6ec:	48500001 	ldmdami	r0, {r0}^
     6f0:	b8000000 	stmdalt	r0, {}	; <UNPREDICTABLE>
     6f4:	01000001 	tsteq	r0, r1
     6f8:	00005600 	andeq	r5, r0, r0, lsl #12
     6fc:	00000000 	andeq	r0, r0, r0
     700:	00010000 	andeq	r0, r1, r0
     704:	00440000 	subeq	r0, r4, r0
     708:	006c0000 	rsbeq	r0, ip, r0
     70c:	00020000 	andeq	r0, r2, r0
     710:	006c9f30 	rsbeq	r9, ip, r0, lsr pc
     714:	01b80000 			; <UNDEFINED> instruction: 0x01b80000
     718:	00010000 	andeq	r0, r1, r0
     71c:	00000055 	andeq	r0, r0, r5, asr r0
     720:	00000000 	andeq	r0, r0, r0
     724:	00000100 	andeq	r0, r0, r0, lsl #2
     728:	00004400 	andeq	r4, r0, r0, lsl #8
     72c:	00006c00 	andeq	r6, r0, r0, lsl #24
     730:	30000200 	andcc	r0, r0, r0, lsl #4
     734:	00006c9f 	muleq	r0, pc, ip	; <UNPREDICTABLE>
     738:	0001b800 	andeq	fp, r1, r0, lsl #16
     73c:	58000100 	stmdapl	r0, {r8}
	...
     748:	00000001 	andeq	r0, r0, r1
     74c:	00000044 	andeq	r0, r0, r4, asr #32
     750:	0000006c 	andeq	r0, r0, ip, rrx
     754:	9f300002 	svcls	0x00300002
     758:	0000006c 	andeq	r0, r0, ip, rrx
     75c:	000001b8 			; <UNDEFINED> instruction: 0x000001b8
     760:	00570001 	subseq	r0, r7, r1
	...
     778:	5c000000 	stcpl	0, cr0, [r0], {-0}
     77c:	70000000 	andvc	r0, r0, r0
     780:	01000000 	mrseq	r0, (UNDEF: 0)
     784:	00705000 	rsbseq	r5, r0, r0
     788:	00b00000 	adcseq	r0, r0, r0
     78c:	00010000 	andeq	r0, r1, r0
     790:	0000b054 	andeq	fp, r0, r4, asr r0
     794:	0000b400 	andeq	fp, r0, r0, lsl #8
     798:	50000100 	andpl	r0, r0, r0, lsl #2
     79c:	000000b4 	strheq	r0, [r0], -r4
     7a0:	00000118 	andeq	r0, r0, r8, lsl r1
     7a4:	18540001 	ldmdane	r4, {r0}^
     7a8:	4c000001 	stcmi	0, cr0, [r0], {1}
     7ac:	01000001 	tsteq	r0, r1
     7b0:	014c5000 	mrseq	r5, (UNDEF: 76)
     7b4:	01500000 	cmpeq	r0, r0
     7b8:	00010000 	andeq	r0, r1, r0
     7bc:	00015054 	andeq	r5, r1, r4, asr r0
     7c0:	00015800 	andeq	r5, r1, r0, lsl #16
     7c4:	50000100 	andpl	r0, r0, r0, lsl #2
     7c8:	00000158 	andeq	r0, r0, r8, asr r1
     7cc:	000001b8 			; <UNDEFINED> instruction: 0x000001b8
     7d0:	00540001 	subseq	r0, r4, r1
	...
     7e0:	6c000000 	stcvs	0, cr0, [r0], {-0}
     7e4:	8c000000 	stchi	0, cr0, [r0], {-0}
     7e8:	06000000 	streq	r0, [r0], -r0
     7ec:	08007300 	stmdaeq	r0, {r8, r9, ip, sp, lr}
     7f0:	b09f1aff 			; <UNDEFINED> instruction: 0xb09f1aff
     7f4:	c8000000 	stmdagt	r0, {}	; <UNPREDICTABLE>
     7f8:	06000000 	streq	r0, [r0], -r0
     7fc:	08007300 	stmdaeq	r0, {r8, r9, ip, sp, lr}
     800:	e49f1aff 	ldr	r1, [pc], #2815	; 808 <__code_start__-0x77f8>
     804:	e8000000 	stmda	r0, {}	; <UNPREDICTABLE>
     808:	06000000 	streq	r0, [r0], -r0
     80c:	08007300 	stmdaeq	r0, {r8, r9, ip, sp, lr}
     810:	349f1aff 	ldrcc	r1, [pc], #2815	; 818 <__code_start__-0x77e8>
     814:	50000001 	andpl	r0, r0, r1
     818:	06000001 	streq	r0, [r0], -r1
     81c:	08007300 	stmdaeq	r0, {r8, r9, ip, sp, lr}
     820:	009f1aff 			; <UNDEFINED> instruction: 0x009f1aff
	...
     830:	00007000 	andeq	r7, r0, r0
     834:	0000a400 	andeq	sl, r0, r0, lsl #8
     838:	50000100 	andpl	r0, r0, r0, lsl #2
     83c:	000000b8 	strheq	r0, [r0], -r8
     840:	000000d0 	ldrdeq	r0, [r0], -r0	; <UNPREDICTABLE>
     844:	e4500001 	ldrb	r0, [r0], #-1
     848:	f0000000 			; <UNDEFINED> instruction: 0xf0000000
     84c:	01000000 	mrseq	r0, (UNDEF: 0)
     850:	00005000 	andeq	r5, r0, r0
	...
     868:	00000290 	muleq	r0, r0, r2
     86c:	000002d8 	ldrdeq	r0, [r0], -r8
     870:	d8500001 	ldmdale	r0, {r0}^
     874:	e0000002 	and	r0, r0, r2
     878:	04000002 	streq	r0, [r0], #-2
     87c:	5001f300 	andpl	pc, r1, r0, lsl #6
     880:	0002e09f 	muleq	r2, pc, r0	; <UNPREDICTABLE>
     884:	0002f800 	andeq	pc, r2, r0, lsl #16
     888:	50000100 	andpl	r0, r0, r0, lsl #2
     88c:	000002f8 	strdeq	r0, [r0], -r8
     890:	00000300 	andeq	r0, r0, r0, lsl #6
     894:	00560001 	subseq	r0, r6, r1
     898:	18000003 	stmdane	r0, {r0, r1}
     89c:	01000003 	tsteq	r0, r3
     8a0:	03185000 	tsteq	r8, #0, 0
     8a4:	03b00000 	movseq	r0, #0, 0
     8a8:	00010000 	andeq	r0, r1, r0
     8ac:	0003b056 	andeq	fp, r3, r6, asr r0
     8b0:	0003c800 	andeq	ip, r3, r0, lsl #16
     8b4:	f3000400 	vshl.u8	d0, d0, d0
     8b8:	009f5001 	addseq	r5, pc, r1
	...
     8d0:	90000000 	andls	r0, r0, r0
     8d4:	b8000002 	stmdalt	r0, {r1}
     8d8:	01000002 	tsteq	r0, r2
     8dc:	02b85100 	adcseq	r5, r8, #0
     8e0:	02c00000 	sbceq	r0, r0, #0, 0
     8e4:	00040000 	andeq	r0, r4, r0
     8e8:	9f5101f3 	svcls	0x005101f3
     8ec:	000002c0 	andeq	r0, r0, r0, asr #5
     8f0:	000002d4 	ldrdeq	r0, [r0], -r4
     8f4:	d4510001 	ldrble	r0, [r1], #-1
     8f8:	e0000002 	and	r0, r0, r2
     8fc:	04000002 	streq	r0, [r0], #-2
     900:	5101f300 	mrspl	pc, SP_irq	; <UNPREDICTABLE>
     904:	0002e09f 	muleq	r2, pc, r0	; <UNPREDICTABLE>
     908:	0002f400 	andeq	pc, r2, r0, lsl #8
     90c:	51000100 	mrspl	r0, (UNDEF: 16)
     910:	000002f4 	strdeq	r0, [r0], -r4
     914:	00000300 	andeq	r0, r0, r0, lsl #6
     918:	01f30004 	mvnseq	r0, r4
     91c:	03009f51 	movweq	r9, #3921	; 0xf51
     920:	03140000 	tsteq	r4, #0, 0
     924:	00010000 	andeq	r0, r1, r0
     928:	00031451 	andeq	r1, r3, r1, asr r4
     92c:	0003c800 	andeq	ip, r3, r0, lsl #16
     930:	f3000400 	vshl.u8	d0, d0, d0
     934:	009f5101 	addseq	r5, pc, r1, lsl #2
	...
     944:	0002bc00 	andeq	fp, r2, r0, lsl #24
     948:	0002c000 	andeq	ip, r2, r0
     94c:	55000100 	strpl	r0, [r0, #-256]	; 0xffffff00
     950:	00000320 	andeq	r0, r0, r0, lsr #6
     954:	000003b0 			; <UNDEFINED> instruction: 0x000003b0
     958:	b0550001 	subslt	r0, r5, r1
     95c:	c8000003 	stmdagt	r0, {r0, r1}
     960:	0a000003 	beq	974 <__code_start__-0x768c>
     964:	5101f300 	mrspl	pc, SP_irq	; <UNPREDICTABLE>
     968:	1c5001f3 	ldfnee	f0, [r0], {243}	; 0xf3
     96c:	009f2632 	addseq	r2, pc, r2, lsr r6	; <UNPREDICTABLE>
     970:	00000000 	andeq	r0, r0, r0
     974:	02000000 	andeq	r0, r0, #0, 0
     978:	bc000000 	stclt	0, cr0, [r0], {-0}
     97c:	c0000002 	andgt	r0, r0, r2
     980:	02000002 	andeq	r0, r0, #2, 0
     984:	209f3000 	addscs	r3, pc, r0
     988:	b0000003 	andlt	r0, r0, r3
     98c:	01000003 	tsteq	r0, r3
     990:	00005400 	andeq	r5, r0, r0, lsl #8
	...
     9a0:	00000320 	andeq	r0, r0, r0, lsr #6
     9a4:	00000337 	andeq	r0, r0, r7, lsr r3
     9a8:	50530001 	subspl	r0, r3, r1
     9ac:	70000003 	andvc	r0, r0, r3
     9b0:	01000003 	tsteq	r0, r3
     9b4:	03705000 	cmneq	r0, #0, 0
     9b8:	03a80000 			; <UNDEFINED> instruction: 0x03a80000
     9bc:	00010000 	andeq	r0, r1, r0
     9c0:	00000053 	andeq	r0, r0, r3, asr r0
     9c4:	00000000 	andeq	r0, r0, r0
     9c8:	2c000100 	stfcss	f0, [r0], {-0}
     9cc:	37000003 	strcc	r0, [r0, -r3]
     9d0:	01000003 	tsteq	r0, r3
     9d4:	00005000 	andeq	r5, r0, r0
	...
     9e0:	03300000 	teqeq	r0, #0, 0
     9e4:	03340000 	teqeq	r4, #0, 0
     9e8:	00060000 	andeq	r0, r6, r0
     9ec:	00710070 	rsbseq	r0, r1, r0, ror r0
     9f0:	03349f22 	teqeq	r4, #136	; 0x88
     9f4:	03370000 	teqeq	r7, #0, 0
     9f8:	00010000 	andeq	r0, r1, r0
     9fc:	00000051 	andeq	r0, r0, r1, asr r0
	...
     a08:	00026800 	andeq	r6, r2, r0, lsl #16
     a0c:	00027300 	andeq	r7, r2, r0, lsl #6
     a10:	50000100 	andpl	r0, r0, r0, lsl #2
     a14:	00000273 	andeq	r0, r0, r3, ror r2
     a18:	00000290 	muleq	r0, r0, r2
     a1c:	00540001 	subseq	r0, r4, r1
     a20:	00000000 	andeq	r0, r0, r0
     a24:	01000000 	mrseq	r0, (UNDEF: 0)
     a28:	70000000 	andvc	r0, r0, r0
     a2c:	73000002 	movwvc	r0, #2
     a30:	01000002 	tsteq	r0, r2
     a34:	02735000 	rsbseq	r5, r3, #0, 0
     a38:	02900000 	addseq	r0, r0, #0, 0
     a3c:	00010000 	andeq	r0, r1, r0
     a40:	00000054 	andeq	r0, r0, r4, asr r0
	...
     a58:	00002400 	andeq	r2, r0, r0, lsl #8
     a5c:	50000100 	andpl	r0, r0, r0, lsl #2
     a60:	00000024 	andeq	r0, r0, r4, lsr #32
     a64:	00000028 	andeq	r0, r0, r8, lsr #32
     a68:	01f30004 	mvnseq	r0, r4
     a6c:	00289f50 	eoreq	r9, r8, r0, asr pc
     a70:	002c0000 	eoreq	r0, ip, r0
     a74:	00010000 	andeq	r0, r1, r0
     a78:	00002c50 	andeq	r2, r0, r0, asr ip
     a7c:	00003000 	andeq	r3, r0, r0
     a80:	f3000400 	vshl.u8	d0, d0, d0
     a84:	309f5001 	addscc	r5, pc, r1
     a88:	34000000 	strcc	r0, [r0], #-0
     a8c:	01000000 	mrseq	r0, (UNDEF: 0)
     a90:	00345000 	eorseq	r5, r4, r0
     a94:	003c0000 	eorseq	r0, ip, r0
     a98:	00040000 	andeq	r0, r4, r0
     a9c:	9f5001f3 	svcls	0x005001f3
	...
     aac:	00000458 	andeq	r0, r0, r8, asr r4
     ab0:	00000468 	andeq	r0, r0, r8, ror #8
     ab4:	68500001 	ldmdavs	r0, {r0}^
     ab8:	f4000004 	vst4.8	{d0-d3}, [r0], r4
     abc:	01000004 	tsteq	r0, r4
     ac0:	00005400 	andeq	r5, r0, r0, lsl #8
	...
     ad0:	00080000 	andeq	r0, r8, r0
     ad4:	00780000 	rsbseq	r0, r8, r0
     ad8:	00010000 	andeq	r0, r1, r0
     adc:	00007851 	andeq	r7, r0, r1, asr r8
     ae0:	00008400 	andeq	r8, r0, r0, lsl #8
     ae4:	70000300 	andvc	r0, r0, r0, lsl #6
     ae8:	00849f78 	addeq	r9, r4, r8, ror pc
     aec:	00a40000 	adceq	r0, r4, r0
     af0:	00010000 	andeq	r0, r1, r0
     af4:	0000a451 	andeq	sl, r0, r1, asr r4
     af8:	0000bc00 	andeq	fp, r0, r0, lsl #24
     afc:	70000300 	andvc	r0, r0, r0, lsl #6
     b00:	00009f78 	andeq	r9, r0, r8, ror pc
	...
     b0c:	00100000 	andseq	r0, r0, r0
     b10:	00480000 	subeq	r0, r8, r0
     b14:	00010000 	andeq	r0, r1, r0
     b18:	00004c53 	andeq	r4, r0, r3, asr ip
     b1c:	0000bc00 	andeq	fp, r0, r0, lsl #24
     b20:	53000100 	movwpl	r0, #256	; 0x100
	...
     b34:	00000100 	andeq	r0, r0, r0, lsl #2
     b38:	00000124 	andeq	r0, r0, r4, lsr #2
     b3c:	24500001 	ldrbcs	r0, [r0], #-1
     b40:	28000001 	stmdacs	r0, {r0}
     b44:	04000001 	streq	r0, [r0], #-1
     b48:	5001f300 	andpl	pc, r1, r0, lsl #6
     b4c:	0001289f 	muleq	r1, pc, r8	; <UNPREDICTABLE>
     b50:	00014000 	andeq	r4, r1, r0
     b54:	50000100 	andpl	r0, r0, r0, lsl #2
     b58:	00000140 	andeq	r0, r0, r0, asr #2
     b5c:	000001ac 	andeq	r0, r0, ip, lsr #3
     b60:	01f30004 	mvnseq	r0, r4
     b64:	00009f50 	andeq	r9, r0, r0, asr pc
	...
     b74:	00010100 	andeq	r0, r1, r0, lsl #2
     b78:	00000000 	andeq	r0, r0, r0
     b7c:	00000124 	andeq	r0, r0, r4, lsr #2
     b80:	00000128 	andeq	r0, r0, r8, lsr #2
     b84:	40500001 	subsmi	r0, r0, r1
     b88:	60000001 	andvs	r0, r0, r1
     b8c:	01000001 	tsteq	r0, r1
     b90:	01605000 	cmneq	r0, r0
     b94:	01640000 	cmneq	r4, r0
     b98:	00030000 	andeq	r0, r3, r0
     b9c:	649f7870 	ldrvs	r7, [pc], #2160	; ba4 <__code_start__-0x745c>
     ba0:	70000001 	andvc	r0, r0, r1
     ba4:	01000001 	tsteq	r0, r1
     ba8:	01705000 	cmneq	r0, r0
     bac:	01780000 	cmneq	r8, r0
     bb0:	00020000 	andeq	r0, r2, r0
     bb4:	01780070 	cmneq	r8, r0, ror r0
     bb8:	01980000 	orrseq	r0, r8, r0
     bbc:	00010000 	andeq	r0, r1, r0
     bc0:	00019c50 	andeq	r9, r1, r0, asr ip
     bc4:	0001ac00 	andeq	sl, r1, r0, lsl #24
     bc8:	50000100 	andpl	r0, r0, r0, lsl #2
	...
     bd4:	00010100 	andeq	r0, r1, r0, lsl #2
     bd8:	00010000 	andeq	r0, r1, r0
     bdc:	01180000 	tsteq	r8, r0
     be0:	01280000 			; <UNDEFINED> instruction: 0x01280000
     be4:	00010000 	andeq	r0, r1, r0
     be8:	00012852 	andeq	r2, r1, r2, asr r8
     bec:	00014000 	andeq	r4, r1, r0
     bf0:	03000600 	movweq	r0, #1536	; 0x600
     bf4:	0000aa98 	muleq	r0, r8, sl
     bf8:	0001409f 	muleq	r1, pc, r0	; <UNPREDICTABLE>
     bfc:	00017000 	andeq	r7, r1, r0
     c00:	52000100 	andpl	r0, r0, #0
     c04:	00000170 	andeq	r0, r0, r0, ror r1
     c08:	00000178 	andeq	r0, r0, r8, ror r1
     c0c:	78500001 	ldmdavc	r0, {r0}^
     c10:	9b000001 	blls	c1c <__code_start__-0x73e4>
     c14:	01000001 	tsteq	r0, r1
     c18:	00005200 	andeq	r5, r0, r0, lsl #4
	...
     c24:	00000110 	andeq	r0, r0, r0, lsl r1
     c28:	000001ac 	andeq	r0, r0, ip, lsr #3
     c2c:	00540001 	subseq	r0, r4, r1
	...
     c38:	bc000000 	stclt	0, cr0, [r0], {-0}
     c3c:	cc000000 	stcgt	0, cr0, [r0], {-0}
     c40:	01000000 	mrseq	r0, (UNDEF: 0)
     c44:	00cc5000 	sbceq	r5, ip, r0
     c48:	01000000 	mrseq	r0, (UNDEF: 0)
     c4c:	00010000 	andeq	r0, r1, r0
     c50:	00000054 	andeq	r0, r0, r4, asr r0
	...
     c5c:	d4000000 	strle	r0, [r0], #-0
     c60:	e4000000 	str	r0, [r0], #-0
     c64:	01000000 	mrseq	r0, (UNDEF: 0)
     c68:	00e45000 	rsceq	r5, r4, r0
     c6c:	00e70000 	rsceq	r0, r7, r0
     c70:	00030000 	andeq	r0, r3, r0
     c74:	f49f7870 			; <UNDEFINED> instruction: 0xf49f7870
     c78:	f8000000 			; <UNDEFINED> instruction: 0xf8000000
     c7c:	01000000 	mrseq	r0, (UNDEF: 0)
     c80:	00005000 	andeq	r5, r0, r0
     c84:	00000000 	andeq	r0, r0, r0
     c88:	00010000 	andeq	r0, r1, r0
     c8c:	00dc0000 	sbcseq	r0, ip, r0
     c90:	00e40000 	rsceq	r0, r4, r0
     c94:	00010000 	andeq	r0, r1, r0
     c98:	0000e450 	andeq	lr, r0, r0, asr r4
     c9c:	0000e700 	andeq	lr, r0, r0, lsl #14
     ca0:	70000300 	andvc	r0, r0, r0, lsl #6
     ca4:	00009f78 	andeq	r9, r0, r8, ror pc
	...
     cb4:	000c0000 	andeq	r0, ip, r0
     cb8:	00010000 	andeq	r0, r1, r0
     cbc:	00000c50 	andeq	r0, r0, r0, asr ip
     cc0:	00003400 	andeq	r3, r0, r0, lsl #8
     cc4:	5e000100 	adfpls	f0, f0, f0
	...
     cd0:	00000001 	andeq	r0, r0, r1
     cd4:	00000008 	andeq	r0, r0, r8
     cd8:	0000000c 	andeq	r0, r0, ip
     cdc:	0c500001 	mrrceq	0, 0, r0, r0, cr1	; <UNPREDICTABLE>
     ce0:	34000000 	strcc	r0, [r0], #-0
     ce4:	01000000 	mrseq	r0, (UNDEF: 0)
     ce8:	00005e00 	andeq	r5, r0, r0, lsl #28
     cec:	00000000 	andeq	r0, r0, r0
     cf0:	00010000 	andeq	r0, r1, r0
     cf4:	00000008 	andeq	r0, r0, r8
     cf8:	00000034 	andeq	r0, r0, r4, lsr r0
     cfc:	00510001 	subseq	r0, r1, r1
     d00:	00000000 	andeq	r0, r0, r0
     d04:	03000000 	movweq	r0, #0
     d08:	08000000 	stmdaeq	r0, {}	; <UNPREDICTABLE>
     d0c:	0c000000 	stceq	0, cr0, [r0], {-0}
     d10:	02000000 	andeq	r0, r0, #0, 0
     d14:	0c9f3000 	ldceq	0, cr3, [pc], {0}
     d18:	34000000 	strcc	r0, [r0], #-0
     d1c:	01000000 	mrseq	r0, (UNDEF: 0)
     d20:	00005300 	andeq	r5, r0, r0, lsl #6
	...
     d2c:	001c0000 	andseq	r0, ip, r0
     d30:	00200000 	eoreq	r0, r0, r0
     d34:	00060000 	andeq	r0, r6, r0
     d38:	0070007c 	rsbseq	r0, r0, ip, ror r0
     d3c:	00209f1c 	eoreq	r9, r0, ip, lsl pc
     d40:	002c0000 	eoreq	r0, ip, r0
     d44:	00010000 	andeq	r0, r1, r0
     d48:	00000050 	andeq	r0, r0, r0, asr r0
	...
     d58:	1c000000 	stcne	0, cr0, [r0], {-0}
     d5c:	01000000 	mrseq	r0, (UNDEF: 0)
     d60:	001c5200 	andseq	r5, ip, r0, lsl #4
     d64:	00380000 	eorseq	r0, r8, r0
     d68:	00040000 	andeq	r0, r4, r0
     d6c:	9f5201f3 	svcls	0x005201f3
     d70:	00000038 	andeq	r0, r0, r8, lsr r0
     d74:	00000060 	andeq	r0, r0, r0, rrx
     d78:	00520001 	subseq	r0, r2, r1
	...
     d84:	00001c00 	andeq	r1, r0, r0, lsl #24
     d88:	00003800 	andeq	r3, r0, r0, lsl #16
     d8c:	52000100 	andpl	r0, r0, #0
	...
     d98:	001c0001 	andseq	r0, ip, r1
     d9c:	00380000 	eorseq	r0, r8, r0
     da0:	00010000 	andeq	r0, r1, r0
     da4:	00000050 	andeq	r0, r0, r0, asr r0
     da8:	00000000 	andeq	r0, r0, r0
     dac:	1c000200 	sfmne	f0, 4, [r0], {-0}
     db0:	38000000 	stmdacc	r0, {}	; <UNPREDICTABLE>
     db4:	01000000 	mrseq	r0, (UNDEF: 0)
     db8:	00005100 	andeq	r5, r0, r0, lsl #2
     dbc:	00000000 	andeq	r0, r0, r0
     dc0:	00040000 	andeq	r0, r4, r0
     dc4:	001c0000 	andseq	r0, ip, r0
     dc8:	00200000 	eoreq	r0, r0, r0
     dcc:	00020000 	andeq	r0, r2, r0
     dd0:	00209f30 	eoreq	r9, r0, r0, lsr pc
     dd4:	00380000 	eorseq	r0, r8, r0
     dd8:	00010000 	andeq	r0, r1, r0
     ddc:	00000053 	andeq	r0, r0, r3, asr r0
     de0:	00000000 	andeq	r0, r0, r0
     de4:	38000000 	stmdacc	r0, {}	; <UNPREDICTABLE>
     de8:	50000000 	andpl	r0, r0, r0
     dec:	01000000 	mrseq	r0, (UNDEF: 0)
     df0:	00005300 	andeq	r5, r0, r0, lsl #6
	...
     e00:	00040000 	andeq	r0, r4, r0
     e04:	00010000 	andeq	r0, r1, r0
     e08:	00000452 	andeq	r0, r0, r2, asr r4
     e0c:	00001800 	andeq	r1, r0, r0, lsl #16
     e10:	f3000400 	vshl.u8	d0, d0, d0
     e14:	009f5201 	addseq	r5, pc, r1, lsl #4
     e18:	00000000 	andeq	r0, r0, r0
     e1c:	02000000 	andeq	r0, r0, #0, 0
     e20:	01010000 	mrseq	r0, (UNDEF: 1)
     e24:	00000000 	andeq	r0, r0, r0
     e28:	08000000 	stmdaeq	r0, {}	; <UNPREDICTABLE>
     e2c:	01000000 	mrseq	r0, (UNDEF: 0)
     e30:	00085000 	andeq	r5, r8, r0
     e34:	00100000 	andseq	r0, r0, r0
     e38:	00010000 	andeq	r0, r1, r0
     e3c:	00001053 	andeq	r1, r0, r3, asr r0
     e40:	00001400 	andeq	r1, r0, r0, lsl #8
     e44:	73000300 	movwvc	r0, #768	; 0x300
     e48:	00149f01 	andseq	r9, r4, r1, lsl #30
     e4c:	00180000 	andseq	r0, r8, r0
     e50:	00010000 	andeq	r0, r1, r0
     e54:	00000053 	andeq	r0, r0, r3, asr r0
     e58:	00000000 	andeq	r0, r0, r0
     e5c:	04000000 	streq	r0, [r0], #-0
     e60:	18000000 	stmdane	r0, {}	; <UNPREDICTABLE>
     e64:	01000000 	mrseq	r0, (UNDEF: 0)
     e68:	00005200 	andeq	r5, r0, r0, lsl #4
	...
     e78:	0000002c 	andeq	r0, r0, ip, lsr #32
     e7c:	00000038 	andeq	r0, r0, r8, lsr r0
     e80:	38500001 	ldmdacc	r0, {r0}^
     e84:	48000000 	stmdami	r0, {}	; <UNPREDICTABLE>
     e88:	01000000 	mrseq	r0, (UNDEF: 0)
     e8c:	00485400 	subeq	r5, r8, r0, lsl #8
     e90:	00580000 	subseq	r0, r8, r0
     e94:	00010000 	andeq	r0, r1, r0
     e98:	00000050 	andeq	r0, r0, r0, asr r0
     e9c:	00000000 	andeq	r0, r0, r0
     ea0:	01010000 	mrseq	r0, (UNDEF: 1)
     ea4:	00000000 	andeq	r0, r0, r0
     ea8:	00000800 	andeq	r0, r0, r0, lsl #16
     eac:	50000100 	andpl	r0, r0, r0, lsl #2
     eb0:	00000008 	andeq	r0, r0, r8
     eb4:	00000034 	andeq	r0, r0, r4, lsr r0
     eb8:	00540001 	subseq	r0, r4, r1
	...
     ec8:	00028800 	andeq	r8, r2, r0, lsl #16
     ecc:	0002b800 	andeq	fp, r2, r0, lsl #16
     ed0:	50000100 	andpl	r0, r0, r0, lsl #2
     ed4:	000002b8 			; <UNDEFINED> instruction: 0x000002b8
     ed8:	00000704 	andeq	r0, r0, r4, lsl #14
     edc:	04590001 	ldrbeq	r0, [r9], #-1
     ee0:	40000007 	andmi	r0, r0, r7
     ee4:	04000007 	streq	r0, [r0], #-7
     ee8:	5001f300 	andpl	pc, r1, r0, lsl #6
     eec:	0000009f 	muleq	r0, pc, r0	; <UNPREDICTABLE>
	...
     ef8:	88000000 	stmdahi	r0, {}	; <UNPREDICTABLE>
     efc:	a0000002 	andge	r0, r0, r2
     f00:	01000002 	tsteq	r0, r2
     f04:	02a05100 	adceq	r5, r0, #0
     f08:	02b80000 	adcseq	r0, r8, #0, 0
     f0c:	00030000 	andeq	r0, r3, r0
     f10:	b89f0171 	ldmlt	pc, {r0, r4, r5, r6, r8}	; <UNPREDICTABLE>
     f14:	40000002 	andmi	r0, r0, r2
     f18:	04000007 	streq	r0, [r0], #-7
     f1c:	5101f300 	mrspl	pc, SP_irq	; <UNPREDICTABLE>
     f20:	0000009f 	muleq	r0, pc, r0	; <UNPREDICTABLE>
	...
     f34:	00028800 	andeq	r8, r2, r0, lsl #16
     f38:	0002b800 	andeq	fp, r2, r0, lsl #16
     f3c:	52000100 	andpl	r0, r0, #0
     f40:	000002b8 			; <UNDEFINED> instruction: 0x000002b8
     f44:	000003ec 	andeq	r0, r0, ip, ror #7
     f48:	ec560001 	mrrc	0, 0, r0, r6, cr1
     f4c:	b8000003 	stmdalt	r0, {r0, r1}
     f50:	01000004 	tsteq	r0, r4
     f54:	04b85b00 	ldrteq	r5, [r8], #2816	; 0xb00
     f58:	04d80000 	ldrbeq	r0, [r8], #0
     f5c:	00010000 	andeq	r0, r1, r0
     f60:	0004d856 	andeq	sp, r4, r6, asr r8
     f64:	00055c00 	andeq	r5, r5, r0, lsl #24
     f68:	5b000100 	blpl	1370 <__code_start__-0x6c90>
     f6c:	0000055c 	andeq	r0, r0, ip, asr r5
     f70:	00000704 	andeq	r0, r0, r4, lsl #14
     f74:	00560001 	subseq	r0, r6, r1
     f78:	00000000 	andeq	r0, r0, r0
     f7c:	01000000 	mrseq	r0, (UNDEF: 0)
     f80:	00000000 	andeq	r0, r0, r0
     f84:	01010000 	mrseq	r0, (UNDEF: 1)
     f88:	00000000 	andeq	r0, r0, r0
     f8c:	02020000 	andeq	r0, r2, #0, 0
     f90:	9c000000 	stcls	0, cr0, [r0], {-0}
     f94:	b8000002 	stmdalt	r0, {r1}
     f98:	01000002 	tsteq	r0, r2
     f9c:	02b85000 	adcseq	r5, r8, #0, 0
     fa0:	02bc0000 	adcseq	r0, ip, #0, 0
     fa4:	00010000 	andeq	r0, r1, r0
     fa8:	0002bc54 	andeq	fp, r2, r4, asr ip
     fac:	0002c000 	andeq	ip, r2, r0
     fb0:	74000300 	strvc	r0, [r0], #-768	; 0xfffffd00
     fb4:	02c09f01 	sbceq	r9, r0, #1, 30
     fb8:	02e40000 	rsceq	r0, r4, #0, 0
     fbc:	00010000 	andeq	r0, r1, r0
     fc0:	0002e454 	andeq	lr, r2, r4, asr r4
     fc4:	0002e800 	andeq	lr, r2, r0, lsl #16
     fc8:	74000300 	strvc	r0, [r0], #-768	; 0xfffffd00
     fcc:	02e89f01 	rsceq	r9, r8, #1, 30
     fd0:	06d40000 	ldrbeq	r0, [r4], r0
     fd4:	00010000 	andeq	r0, r1, r0
     fd8:	0006d454 	andeq	sp, r6, r4, asr r4
     fdc:	0006d800 	andeq	sp, r6, r0, lsl #16
     fe0:	74000300 	strvc	r0, [r0], #-768	; 0xfffffd00
     fe4:	06d89f01 	ldrbeq	r9, [r8], r1, lsl #30
     fe8:	06f00000 	ldrbteq	r0, [r0], r0
     fec:	00010000 	andeq	r0, r1, r0
     ff0:	0006f054 	andeq	pc, r6, r4, asr r0	; <UNPREDICTABLE>
     ff4:	0006f800 	andeq	pc, r6, r0, lsl #16
     ff8:	74000300 	strvc	r0, [r0], #-768	; 0xfffffd00
     ffc:	06f89f01 	ldrbteq	r9, [r8], r1, lsl #30
    1000:	07040000 	streq	r0, [r4, -r0]
    1004:	00010000 	andeq	r0, r1, r0
    1008:	00000054 	andeq	r0, r0, r4, asr r0
	...
    1014:	0002a400 	andeq	sl, r2, r0, lsl #8
    1018:	00070400 	andeq	r0, r7, r0, lsl #8
    101c:	58000100 	stmdapl	r0, {r8}
    1020:	00000704 	andeq	r0, r0, r4, lsl #14
    1024:	00000740 	andeq	r0, r0, r0, asr #14
    1028:	01f3000a 	mvnseq	r0, sl
    102c:	5001f351 	andpl	pc, r1, r1, asr r3	; <UNPREDICTABLE>
    1030:	9f1c3122 	svcls	0x001c3122
	...
    103c:	00000001 	andeq	r0, r0, r1
    1040:	04080000 	streq	r0, [r8], #-0
    1044:	04740000 	ldrbteq	r0, [r4], #-0
    1048:	00010000 	andeq	r0, r1, r0
    104c:	0004d857 	andeq	sp, r4, r7, asr r8
    1050:	0004fc00 	andeq	pc, r4, r0, lsl #24
    1054:	57000100 	strpl	r0, [r0, -r0, lsl #2]
    1058:	00000540 	andeq	r0, r0, r0, asr #10
    105c:	0000055c 	andeq	r0, r0, ip, asr r5
    1060:	00570001 	subseq	r0, r7, r1
    1064:	00000000 	andeq	r0, r0, r0
    1068:	02000000 	andeq	r0, r0, #0, 0
    106c:	08000000 	stmdaeq	r0, {}	; <UNPREDICTABLE>
    1070:	b8000004 	stmdalt	r0, {r2}
    1074:	01000004 	tsteq	r0, r4
    1078:	04d85a00 	ldrbeq	r5, [r8], #2560	; 0xa00
    107c:	055c0000 	ldrbeq	r0, [ip, #-0]
    1080:	00010000 	andeq	r0, r1, r0
    1084:	0000005a 	andeq	r0, r0, sl, asr r0
    1088:	00000000 	andeq	r0, r0, r0
    108c:	00000100 	andeq	r0, r0, r0, lsl #2
    1090:	0002ac00 	andeq	sl, r2, r0, lsl #24
    1094:	0002b800 	andeq	fp, r2, r0, lsl #16
    1098:	52000100 	andpl	r0, r0, #0
    109c:	000002b8 			; <UNDEFINED> instruction: 0x000002b8
    10a0:	00000740 	andeq	r0, r0, r0, asr #14
    10a4:	c8910003 	ldmgt	r1, {r0, r1}
    10a8:	0000007d 	andeq	r0, r0, sp, ror r0
	...
    10b8:	01010000 	mrseq	r0, (UNDEF: 1)
	...
    10c4:	74000000 	strvc	r0, [r0], #-0
    10c8:	8c000004 	stchi	0, cr0, [r0], {4}
    10cc:	01000004 	tsteq	r0, r4
    10d0:	048c5000 	streq	r5, [ip], #0
    10d4:	04b80000 	ldrteq	r0, [r8], #0
    10d8:	00010000 	andeq	r0, r1, r0
    10dc:	0004fc57 	andeq	pc, r4, r7, asr ip	; <UNPREDICTABLE>
    10e0:	00051400 	andeq	r1, r5, r0, lsl #8
    10e4:	50000100 	andpl	r0, r0, r0, lsl #2
    10e8:	00000514 	andeq	r0, r0, r4, lsl r5
    10ec:	00000540 	andeq	r0, r0, r0, asr #10
    10f0:	a4570001 	ldrbge	r0, [r7], #-1
    10f4:	a4000005 	strge	r0, [r0], #-5
    10f8:	01000005 	tsteq	r0, r5
    10fc:	05a45000 	streq	r5, [r4, #0]!
    1100:	05ac0000 	streq	r0, [ip, #0]!
    1104:	00010000 	andeq	r0, r1, r0
    1108:	0005dc57 	andeq	sp, r5, r7, asr ip
    110c:	0005e000 	andeq	lr, r5, r0
    1110:	50000100 	andpl	r0, r0, r0, lsl #2
    1114:	00000610 	andeq	r0, r0, r0, lsl r6
    1118:	00000614 	andeq	r0, r0, r4, lsl r6
    111c:	44500001 	ldrbmi	r0, [r0], #-1
    1120:	48000006 	stmdami	r0, {r1, r2}
    1124:	01000006 	tsteq	r0, r6
    1128:	068c5000 	streq	r5, [ip], r0
    112c:	06900000 	ldreq	r0, [r0], r0
    1130:	00010000 	andeq	r0, r1, r0
    1134:	0006d050 	andeq	sp, r6, r0, asr r0
    1138:	0006f000 	andeq	pc, r6, r0
    113c:	57000100 	strpl	r0, [r0, -r0, lsl #2]
	...
    1148:	00000002 	andeq	r0, r0, r2
    114c:	02f40000 	rscseq	r0, r4, #0, 0
    1150:	02f80000 	rscseq	r0, r8, #0, 0
    1154:	00020000 	andeq	r0, r2, r0
    1158:	02f89f30 	rscseq	r9, r8, #48, 30	; 0xc0
    115c:	03140000 	tsteq	r4, #0, 0
    1160:	00010000 	andeq	r0, r1, r0
    1164:	00031c55 	andeq	r1, r3, r5, asr ip
    1168:	0006f000 	andeq	pc, r6, r0
    116c:	55000100 	strpl	r0, [r0, #-256]	; 0xffffff00
	...
    1178:	00000001 	andeq	r0, r0, r1
    117c:	00000000 	andeq	r0, r0, r0
    1180:	03b80000 			; <UNDEFINED> instruction: 0x03b80000
    1184:	04540000 	ldrbeq	r0, [r4], #-0
    1188:	00010000 	andeq	r0, r1, r0
    118c:	00045456 	andeq	r5, r4, r6, asr r4
    1190:	0004b800 	andeq	fp, r4, r0, lsl #16
    1194:	7b000300 	blvc	1d9c <__code_start__-0x6264>
    1198:	04b89f7e 	ldrteq	r9, [r8], #3966	; 0xf7e
    119c:	04dc0000 	ldrbeq	r0, [ip], #0
    11a0:	00010000 	andeq	r0, r1, r0
    11a4:	0004dc56 	andeq	sp, r4, r6, asr ip
    11a8:	00054000 	andeq	r4, r5, r0
    11ac:	7b000300 	blvc	1db4 <__code_start__-0x624c>
    11b0:	05409f7e 	strbeq	r9, [r0, #-3966]	; 0xfffff082
    11b4:	055c0000 	ldrbeq	r0, [ip, #-0]
    11b8:	00010000 	andeq	r0, r1, r0
    11bc:	00000056 	andeq	r0, r0, r6, asr r0
	...
    11c8:	70000000 	andvc	r0, r0, r0
    11cc:	94000000 	strls	r0, [r0], #-0
    11d0:	01000000 	mrseq	r0, (UNDEF: 0)
    11d4:	00945000 	addseq	r5, r4, r0
    11d8:	00fc0000 	rscseq	r0, ip, r0
    11dc:	00030000 	andeq	r0, r3, r0
    11e0:	fc9f0270 	ldc2	2, cr0, [pc], {112}	; 0x70
    11e4:	24000000 	strcs	r0, [r0], #-0
    11e8:	04000002 	streq	r0, [r0], #-2
    11ec:	5001f300 	andpl	pc, r1, r0, lsl #6
    11f0:	0000009f 	muleq	r0, pc, r0	; <UNPREDICTABLE>
	...
    1208:	00007000 	andeq	r7, r0, r0
    120c:	0000e000 	andeq	lr, r0, r0
    1210:	51000100 	mrspl	r0, (UNDEF: 16)
    1214:	000000e0 	andeq	r0, r0, r0, ror #1
    1218:	00000154 	andeq	r0, r0, r4, asr r1
    121c:	54550001 	ldrbpl	r0, [r5], #-1
    1220:	58000001 	stmdapl	r0, {r0}
    1224:	01000001 	tsteq	r0, r1
    1228:	01585100 	cmpeq	r8, r0, lsl #2
    122c:	01b00000 	movseq	r0, r0
    1230:	00010000 	andeq	r0, r1, r0
    1234:	0001b055 	andeq	fp, r1, r5, asr r0
    1238:	0001c000 	andeq	ip, r1, r0
    123c:	51000100 	mrspl	r0, (UNDEF: 16)
    1240:	000001c0 	andeq	r0, r0, r0, asr #3
    1244:	000001e4 	andeq	r0, r0, r4, ror #3
    1248:	e4550001 	ldrb	r0, [r5], #-1
    124c:	f8000001 			; <UNDEFINED> instruction: 0xf8000001
    1250:	01000001 	tsteq	r0, r1
    1254:	01f85100 	mvnseq	r5, r0, lsl #2
    1258:	02240000 	eoreq	r0, r4, #0, 0
    125c:	00010000 	andeq	r0, r1, r0
    1260:	00000055 	andeq	r0, r0, r5, asr r0
	...
    126c:	00007000 	andeq	r7, r0, r0
    1270:	00008400 	andeq	r8, r0, r0, lsl #8
    1274:	52000100 	andpl	r0, r0, #0
    1278:	00000084 	andeq	r0, r0, r4, lsl #1
    127c:	00000224 	andeq	r0, r0, r4, lsr #4
    1280:	00540001 	subseq	r0, r4, r1
	...
    1290:	00000001 	andeq	r0, r0, r1
    1294:	70000000 	andvc	r0, r0, r0
    1298:	f4000000 	vst4.8	{d0-d3}, [r0], r0
    129c:	01000000 	mrseq	r0, (UNDEF: 0)
    12a0:	014c5300 	mrseq	r5, SPSR_mon
    12a4:	01800000 	orreq	r0, r0, r0
    12a8:	00010000 	andeq	r0, r1, r0
    12ac:	00018053 	andeq	r8, r1, r3, asr r0
    12b0:	00018c00 	andeq	r8, r1, r0, lsl #24
    12b4:	f3000400 	vshl.u8	d0, d0, d0
    12b8:	b09f5301 	addslt	r5, pc, r1, lsl #6
    12bc:	e8000001 	stmda	r0, {r0}
    12c0:	01000001 	tsteq	r0, r1
    12c4:	01e85300 	mvneq	r5, r0, lsl #6
    12c8:	01ff0000 	mvnseq	r0, r0
    12cc:	00010000 	andeq	r0, r1, r0
    12d0:	0001ff5c 	andeq	pc, r1, ip, asr pc	; <UNPREDICTABLE>
    12d4:	00022400 	andeq	r2, r2, r0, lsl #8
    12d8:	f3000400 	vshl.u8	d0, d0, d0
    12dc:	009f5301 	addseq	r5, pc, r1, lsl #6
	...
    12ec:	00007000 	andeq	r7, r0, r0
    12f0:	00008c00 	andeq	r8, r0, r0, lsl #24
    12f4:	91000200 	mrsls	r0, R8_usr
    12f8:	00008c00 	andeq	r8, r0, r0, lsl #24
    12fc:	00019300 	andeq	r9, r1, r0, lsl #6
    1300:	52000100 	andpl	r0, r0, #0
    1304:	000001b0 			; <UNDEFINED> instruction: 0x000001b0
    1308:	000001f4 	strdeq	r0, [r0], -r4
    130c:	00520001 	subseq	r0, r2, r1
    1310:	00000000 	andeq	r0, r0, r0
    1314:	01000000 	mrseq	r0, (UNDEF: 0)
    1318:	01010000 	mrseq	r0, (UNDEF: 1)
	...
    1324:	01010101 	tsteq	r1, r1, lsl #2
    1328:	01010000 	mrseq	r0, (UNDEF: 1)
	...
    1334:	8c000000 	stchi	0, cr0, [r0], {-0}
    1338:	fc000000 	stc2	0, cr0, [r0], {-0}
    133c:	04000000 	streq	r0, [r0], #-0
    1340:	7fa09100 	svcvc	0x00a09100
    1344:	0000fc9f 	muleq	r0, pc, ip	; <UNPREDICTABLE>
    1348:	00013c00 	andeq	r3, r1, r0, lsl #24
    134c:	50000100 	andpl	r0, r0, r0, lsl #2
    1350:	0000013c 	andeq	r0, r0, ip, lsr r1
    1354:	00000148 	andeq	r0, r0, r8, asr #2
    1358:	02710003 	rsbseq	r0, r1, #3, 0
    135c:	0001489f 	muleq	r1, pc, r8	; <UNPREDICTABLE>
    1360:	00014c00 	andeq	r4, r1, r0, lsl #24
    1364:	50000100 	andpl	r0, r0, r0, lsl #2
    1368:	0000014c 	andeq	r0, r0, ip, asr #2
    136c:	00000158 	andeq	r0, r0, r8, asr r1
    1370:	a0910004 	addsge	r0, r1, r4
    1374:	01589f7f 	cmpeq	r8, pc, ror pc
    1378:	016c0000 	cmneq	ip, r0
    137c:	00010000 	andeq	r0, r1, r0
    1380:	00016c51 	andeq	r6, r1, r1, asr ip
    1384:	00017800 	andeq	r7, r1, r0, lsl #16
    1388:	71000300 	mrsvc	r0, LR_irq
    138c:	01789f7f 	cmneq	r8, pc, ror pc
    1390:	01840000 	orreq	r0, r4, r0
    1394:	00030000 	andeq	r0, r3, r0
    1398:	849f0171 	ldrhi	r0, [pc], #369	; 13a0 <__code_start__-0x6c60>
    139c:	93000001 	movwls	r0, #1
    13a0:	01000001 	tsteq	r0, r1
    13a4:	01b05000 	movseq	r5, r0
    13a8:	01b00000 	movseq	r0, r0
    13ac:	00040000 	andeq	r0, r4, r0
    13b0:	9f7fa091 	svcls	0x007fa091
    13b4:	000001b0 			; <UNDEFINED> instruction: 0x000001b0
    13b8:	000001b8 			; <UNDEFINED> instruction: 0x000001b8
    13bc:	a1910004 	orrsge	r0, r1, r4
    13c0:	01b89f7f 			; <UNDEFINED> instruction: 0x01b89f7f
    13c4:	01bc0000 			; <UNDEFINED> instruction: 0x01bc0000
    13c8:	00010000 	andeq	r0, r1, r0
    13cc:	0001bc50 	andeq	fp, r1, r0, asr ip
    13d0:	0001c000 	andeq	ip, r1, r0
    13d4:	91000400 	tstls	r0, r0, lsl #8
    13d8:	c09f7fa0 	addsgt	r7, pc, r0, lsr #31
    13dc:	d4000001 	strle	r0, [r0], #-1
    13e0:	01000001 	tsteq	r0, r1
    13e4:	01d45000 	bicseq	r5, r4, r0
    13e8:	01e40000 	mvneq	r0, r0
    13ec:	00030000 	andeq	r0, r3, r0
    13f0:	e49f7f70 	ldr	r7, [pc], #3952	; 13f8 <__code_start__-0x6c08>
    13f4:	24000001 	strcs	r0, [r0], #-1
    13f8:	04000002 	streq	r0, [r0], #-2
    13fc:	7fa09100 	svcvc	0x00a09100
    1400:	0000009f 	muleq	r0, pc, r0	; <UNPREDICTABLE>
	...
    140c:	00000101 	andeq	r0, r0, r1, lsl #2
	...
    141c:	00009000 	andeq	r9, r0, r0
    1420:	0000dc00 	andeq	sp, r0, r0, lsl #24
    1424:	5c000100 	stfpls	f0, [r0], {-0}
    1428:	000000dc 	ldrdeq	r0, [r0], -ip
    142c:	000000f4 	strdeq	r0, [r0], -r4
    1430:	f4530001 			; <UNDEFINED> instruction: 0xf4530001
    1434:	4c000000 	stcmi	0, cr0, [r0], {-0}
    1438:	01000001 	tsteq	r0, r1
    143c:	014c5c00 	cmpeq	ip, r0, lsl #24
    1440:	01580000 	cmpeq	r8, r0
    1444:	00010000 	andeq	r0, r1, r0
    1448:	00015853 	andeq	r5, r1, r3, asr r8
    144c:	00017400 	andeq	r7, r1, r0, lsl #8
    1450:	5c000100 	stfpls	f0, [r0], {-0}
    1454:	000001b0 			; <UNDEFINED> instruction: 0x000001b0
    1458:	000001c0 	andeq	r0, r0, r0, asr #3
    145c:	c0530001 	subsgt	r0, r3, r1
    1460:	dc000001 	stcle	0, cr0, [r0], {1}
    1464:	01000001 	tsteq	r0, r1
    1468:	01e45c00 	mvneq	r5, r0, lsl #24
    146c:	01e80000 	mvneq	r0, r0
    1470:	00010000 	andeq	r0, r1, r0
    1474:	0001e853 	andeq	lr, r1, r3, asr r8
    1478:	0001ff00 	andeq	pc, r1, r0, lsl #30
    147c:	5c000100 	stfpls	f0, [r0], {-0}
    1480:	000001ff 	strdeq	r0, [r0], -pc	; <UNPREDICTABLE>
    1484:	00000224 	andeq	r0, r0, r4, lsr #4
    1488:	01f30004 	mvnseq	r0, r4
    148c:	00009f53 	andeq	r9, r0, r3, asr pc
    1490:	00000000 	andeq	r0, r0, r0
    1494:	01010000 	mrseq	r0, (UNDEF: 1)
    1498:	00000001 	andeq	r0, r0, r1
    149c:	00dc0000 	sbcseq	r0, ip, r0
    14a0:	00f00000 	rscseq	r0, r0, r0
    14a4:	00020000 	andeq	r0, r2, r0
    14a8:	00f09f30 	rscseq	r9, r0, r0, lsr pc
    14ac:	00f80000 	rscseq	r0, r8, r0
    14b0:	00020000 	andeq	r0, r2, r0
    14b4:	00fc9f31 	rscseq	r9, ip, r1, lsr pc
    14b8:	014c0000 	mrseq	r0, (UNDEF: 76)
    14bc:	00010000 	andeq	r0, r1, r0
    14c0:	00014c56 	andeq	r4, r1, r6, asr ip
    14c4:	00015400 	andeq	r5, r1, r0, lsl #8
    14c8:	30000200 	andcc	r0, r0, r0, lsl #4
    14cc:	0000009f 	muleq	r0, pc, r0	; <UNPREDICTABLE>
	...
    14d8:	00000101 	andeq	r0, r0, r1, lsl #2
    14dc:	38000101 	stmdacc	r0, {r0, r8}
    14e0:	54000000 	strpl	r0, [r0], #-0
    14e4:	01000000 	mrseq	r0, (UNDEF: 0)
    14e8:	00545000 	subseq	r5, r4, r0
    14ec:	00580000 	subseq	r0, r8, r0
    14f0:	00010000 	andeq	r0, r1, r0
    14f4:	00005852 	andeq	r5, r0, r2, asr r8
    14f8:	00006000 	andeq	r6, r0, r0
    14fc:	72000300 	andvc	r0, r0, #0, 6
    1500:	00609f01 	rsbeq	r9, r0, r1, lsl #30
    1504:	00640000 	rsbeq	r0, r4, r0
    1508:	00010000 	andeq	r0, r1, r0
    150c:	00006452 	andeq	r6, r0, r2, asr r4
    1510:	00007000 	andeq	r7, r0, r0
    1514:	72000300 	andvc	r0, r0, #0, 6
    1518:	00009f01 	andeq	r9, r0, r1, lsl #30
	...
    1524:	00380000 	eorseq	r0, r8, r0
    1528:	00500000 	subseq	r0, r0, r0
    152c:	00010000 	andeq	r0, r1, r0
    1530:	00005051 	andeq	r5, r0, r1, asr r0
    1534:	00007000 	andeq	r7, r0, r0
    1538:	f3000400 	vshl.u8	d0, d0, d0
    153c:	009f5101 	addseq	r5, pc, r1, lsl #2
	...
    154c:	38000101 	stmdacc	r0, {r0, r8}
    1550:	50000000 	andpl	r0, r0, r0
    1554:	01000000 	mrseq	r0, (UNDEF: 0)
    1558:	00505200 	subseq	r5, r0, r0, lsl #4
    155c:	005c0000 	subseq	r0, ip, r0
    1560:	00010000 	andeq	r0, r1, r0
    1564:	00005c51 	andeq	r5, r0, r1, asr ip
    1568:	00006000 	andeq	r6, r0, r0
    156c:	71000300 	mrsvc	r0, LR_irq
    1570:	00609f01 	rsbeq	r9, r0, r1, lsl #30
    1574:	00700000 	rsbseq	r0, r0, r0
    1578:	00010000 	andeq	r0, r1, r0
    157c:	00000051 	andeq	r0, r0, r1, asr r0
	...
    1588:	00003800 	andeq	r3, r0, r0, lsl #16
    158c:	00004c00 	andeq	r4, r0, r0, lsl #24
    1590:	53000100 	movwpl	r0, #256	; 0x100
    1594:	0000004c 	andeq	r0, r0, ip, asr #32
    1598:	00000068 	andeq	r0, r0, r8, rrx
    159c:	00530001 	subseq	r0, r3, r1
	...
    15ac:	40000000 	andmi	r0, r0, r0
    15b0:	48000000 	stmdami	r0, {}	; <UNPREDICTABLE>
    15b4:	01000000 	mrseq	r0, (UNDEF: 0)
    15b8:	00485c00 	subeq	r5, r8, r0, lsl #24
    15bc:	004c0000 	subeq	r0, ip, r0
    15c0:	00080000 	andeq	r0, r8, r0
    15c4:	00730072 	rsbseq	r0, r3, r2, ror r0
    15c8:	9f01231c 	svcls	0x0001231c
    15cc:	0000004c 	andeq	r0, r0, ip, asr #32
    15d0:	00000054 	andeq	r0, r0, r4, asr r0
    15d4:	00720009 	rsbseq	r0, r2, r9
    15d8:	1c5301f3 	ldfnee	f0, [r3], {243}	; 0xf3
    15dc:	549f0123 	ldrpl	r0, [pc], #291	; 15e4 <__code_start__-0x6a1c>
    15e0:	70000000 	andvc	r0, r0, r0
    15e4:	0a000000 	beq	15ec <__code_start__-0x6a14>
    15e8:	5201f300 	andpl	pc, r1, #0, 6
    15ec:	1c5301f3 	ldfnee	f0, [r3], {243}	; 0xf3
    15f0:	009f0123 	addseq	r0, pc, r3, lsr #2
    15f4:	00000000 	andeq	r0, r0, r0
    15f8:	01000000 	mrseq	r0, (UNDEF: 0)
    15fc:	00004c00 	andeq	r4, r0, r0, lsl #24
    1600:	00007000 	andeq	r7, r0, r0
    1604:	50000100 	andpl	r0, r0, r0, lsl #2
	...
    1610:	00010100 	andeq	r0, r1, r0, lsl #2
    1614:	00140000 	andseq	r0, r4, r0
    1618:	001c0000 	andseq	r0, ip, r0
    161c:	00010000 	andeq	r0, r1, r0
    1620:	00001c50 	andeq	r1, r0, r0, asr ip
    1624:	00002400 	andeq	r2, r0, r0, lsl #8
    1628:	70000300 	andvc	r0, r0, r0, lsl #6
    162c:	00249f01 	eoreq	r9, r4, r1, lsl #30
    1630:	00380000 	eorseq	r0, r8, r0
    1634:	00010000 	andeq	r0, r1, r0
    1638:	00000050 	andeq	r0, r0, r0, asr r0
	...
    1644:	00001400 	andeq	r1, r0, r0, lsl #8
    1648:	00001800 	andeq	r1, r0, r0, lsl #16
    164c:	51000100 	mrspl	r0, (UNDEF: 16)
    1650:	00000018 	andeq	r0, r0, r8, lsl r0
    1654:	00000038 	andeq	r0, r0, r8, lsr r0
    1658:	01f30004 	mvnseq	r0, r4
    165c:	00009f51 	andeq	r9, r0, r1, asr pc
	...
    1668:	00000018 	andeq	r0, r0, r8, lsl r0
    166c:	00000038 	andeq	r0, r0, r8, lsr r0
    1670:	00510001 	subseq	r0, r1, r1
	...
    1684:	00000400 	andeq	r0, r0, r0, lsl #8
    1688:	50000100 	andpl	r0, r0, r0, lsl #2
    168c:	00000004 	andeq	r0, r0, r4
    1690:	0000000c 	andeq	r0, r0, ip
    1694:	30700003 	rsbscc	r0, r0, r3
    1698:	00000c9f 	muleq	r0, pc, ip	; <UNPREDICTABLE>
    169c:	00001400 	andeq	r1, r0, r0, lsl #8
    16a0:	f3000400 	vshl.u8	d0, d0, d0
    16a4:	009f5001 	addseq	r5, pc, r1
	...
    16b0:	24000000 	strcs	r0, [r0], #-0
    16b4:	68000002 	stmdavs	r0, {r1}
    16b8:	01000002 	tsteq	r0, r2
    16bc:	02685000 	rsbeq	r5, r8, #0, 0
    16c0:	02880000 	addeq	r0, r8, #0, 0
    16c4:	00040000 	andeq	r0, r4, r0
    16c8:	9f5001f3 	svcls	0x005001f3
	...
    16d8:	00000224 	andeq	r0, r0, r4, lsr #4
    16dc:	00000264 	andeq	r0, r0, r4, ror #4
    16e0:	64510001 	ldrbvs	r0, [r1], #-1
    16e4:	88000002 	stmdahi	r0, {r1}
    16e8:	04000002 	streq	r0, [r0], #-2
    16ec:	5101f300 	mrspl	pc, SP_irq	; <UNPREDICTABLE>
    16f0:	0000009f 	muleq	r0, pc, r0	; <UNPREDICTABLE>
    16f4:	00000000 	andeq	r0, r0, r0
    16f8:	01010000 	mrseq	r0, (UNDEF: 1)
    16fc:	0c000000 	stceq	0, cr0, [r0], {-0}
    1700:	14000000 	strne	r0, [r0], #-0
    1704:	01000000 	mrseq	r0, (UNDEF: 0)
    1708:	00145300 	andseq	r5, r4, r0, lsl #6
    170c:	001c0000 	andseq	r0, ip, r0
    1710:	00030000 	andeq	r0, r3, r0
    1714:	1c9f0473 	cfldrsne	mvf0, [pc], {115}	; 0x73
    1718:	23000000 	movwcs	r0, #0
    171c:	01000000 	mrseq	r0, (UNDEF: 0)
    1720:	00005300 	andeq	r5, r0, r0, lsl #6
    1724:	00000000 	andeq	r0, r0, r0
    1728:	00010000 	andeq	r0, r1, r0
    172c:	00009784 	andeq	r9, r0, r4, lsl #15
    1730:	000097a0 	andeq	r9, r0, r0, lsr #15
    1734:	1c0c0006 	stcne	0, cr0, [ip], {6}
    1738:	9f201000 	svcls	0x00201000
	...
    1744:	97840002 	strls	r0, [r4, r2]
    1748:	97a00000 	strls	r0, [r0, r0]!
    174c:	00060000 	andeq	r0, r6, r0
    1750:	1000240c 	andne	r2, r0, ip, lsl #8
    1754:	00009f20 	andeq	r9, r0, r0, lsr #30
    1758:	00000000 	andeq	r0, r0, r0
    175c:	00030000 	andeq	r0, r3, r0
    1760:	00009784 	andeq	r9, r0, r4, lsl #15
    1764:	000097a0 	andeq	r9, r0, r0, lsr #15
    1768:	b4080005 	strlt	r0, [r8], #-5
    176c:	009f2447 	addseq	r2, pc, r7, asr #8
    1770:	00000000 	andeq	r0, r0, r0
    1774:	04000000 	streq	r0, [r0], #-0
    1778:	00978400 	addseq	r8, r7, r0, lsl #8
    177c:	0097a000 	addseq	sl, r7, r0
    1780:	08000300 	stmdaeq	r0, {r8, r9}
    1784:	00009f20 	andeq	r9, r0, r0, lsr #30
    1788:	00000000 	andeq	r0, r0, r0
    178c:	00020000 	andeq	r0, r2, r0
    1790:	00000000 	andeq	r0, r0, r0
    1794:	00009750 	andeq	r9, r0, r0, asr r7
    1798:	00009754 	andeq	r9, r0, r4, asr r7
    179c:	9f300002 	svcls	0x00300002
    17a0:	00009754 	andeq	r9, r0, r4, asr r7
    17a4:	00009758 	andeq	r9, r0, r8, asr r7
    17a8:	5c530001 	mrrcpl	0, 0, r0, r3, cr1
    17ac:	64000097 	strvs	r0, [r0], #-151	; 0xffffff69
    17b0:	01000097 	swpeq	r0, r7, [r0]	; <UNPREDICTABLE>
    17b4:	00005300 	andeq	r5, r0, r0, lsl #6
    17b8:	00000000 	andeq	r0, r0, r0
    17bc:	00020000 	andeq	r0, r2, r0
    17c0:	97380000 	ldrls	r0, [r8, -r0]!
    17c4:	973c0000 	ldrls	r0, [ip, -r0]!
    17c8:	00020000 	andeq	r0, r2, r0
    17cc:	973c9f30 			; <UNDEFINED> instruction: 0x973c9f30
    17d0:	97400000 	strbls	r0, [r0, -r0]
    17d4:	00010000 	andeq	r0, r1, r0
    17d8:	00000050 	andeq	r0, r0, r0, asr r0
	...
    17e4:	00006c00 	andeq	r6, r0, r0, lsl #24
    17e8:	00007800 	andeq	r7, r0, r0, lsl #16
    17ec:	50000100 	andpl	r0, r0, r0, lsl #2
    17f0:	00000078 	andeq	r0, r0, r8, ror r0
    17f4:	00000084 	andeq	r0, r0, r4, lsl #1
    17f8:	01f30004 	mvnseq	r0, r4
    17fc:	00009f50 	andeq	r9, r0, r0, asr pc
	...
    1808:	00540000 	subseq	r0, r4, r0
    180c:	00600000 	rsbeq	r0, r0, r0
    1810:	00010000 	andeq	r0, r1, r0
    1814:	00006050 	andeq	r6, r0, r0, asr r0
    1818:	00006c00 	andeq	r6, r0, r0, lsl #24
    181c:	f3000400 	vshl.u8	d0, d0, d0
    1820:	009f5001 	addseq	r5, pc, r1
	...
    182c:	30000000 	andcc	r0, r0, r0
    1830:	3b000000 	blcc	1838 <__code_start__-0x67c8>
    1834:	01000000 	mrseq	r0, (UNDEF: 0)
    1838:	003b5000 	eorseq	r5, fp, r0
    183c:	00540000 	subseq	r0, r4, r0
    1840:	00010000 	andeq	r0, r1, r0
    1844:	00000055 	andeq	r0, r0, r5, asr r0
    1848:	00000000 	andeq	r0, r0, r0
    184c:	40000000 	andmi	r0, r0, r0
    1850:	54000000 	strpl	r0, [r0], #-0
    1854:	01000000 	mrseq	r0, (UNDEF: 0)
    1858:	00005400 	andeq	r5, r0, r0, lsl #8
	...
    1864:	00000044 	andeq	r0, r0, r4, asr #32
    1868:	00000048 	andeq	r0, r0, r8, asr #32
    186c:	00500001 	subseq	r0, r0, r1
	...
    1878:	24000000 	strcs	r0, [r0], #-0
    187c:	27000000 	strcs	r0, [r0, -r0]
    1880:	01000000 	mrseq	r0, (UNDEF: 0)
    1884:	00275000 	eoreq	r5, r7, r0
    1888:	00300000 	eorseq	r0, r0, r0
    188c:	00010000 	andeq	r0, r1, r0
    1890:	00000054 	andeq	r0, r0, r4, asr r0
	...
    189c:	00015800 	andeq	r5, r1, r0, lsl #16
    18a0:	00016300 	andeq	r6, r1, r0, lsl #6
    18a4:	50000100 	andpl	r0, r0, r0, lsl #2
    18a8:	00000163 	andeq	r0, r0, r3, ror #2
    18ac:	00000188 	andeq	r0, r0, r8, lsl #3
    18b0:	00540001 	subseq	r0, r4, r1
	...
    18bc:	00014800 	andeq	r4, r1, r0, lsl #16
    18c0:	00015800 	andeq	r5, r1, r0, lsl #16
    18c4:	54000100 	strpl	r0, [r0], #-256	; 0xffffff00
	...
    18d8:	0000000f 	andeq	r0, r0, pc
    18dc:	0f500001 	svceq	0x00500001
    18e0:	20000000 	andcs	r0, r0, r0
    18e4:	01000000 	mrseq	r0, (UNDEF: 0)
    18e8:	00005400 	andeq	r5, r0, r0, lsl #8
	...
    18f8:	000f0000 	andeq	r0, pc, r0
    18fc:	00010000 	andeq	r0, r1, r0
    1900:	00000f51 	andeq	r0, r0, r1, asr pc
    1904:	00002000 	andeq	r2, r0, r0
    1908:	55000100 	strpl	r0, [r0, #-256]	; 0xffffff00
	...
    1918:	00000020 	andeq	r0, r0, r0, lsr #32
    191c:	0000002f 	andeq	r0, r0, pc, lsr #32
    1920:	2f500001 	svccs	0x00500001
    1924:	40000000 	andmi	r0, r0, r0
    1928:	01000000 	mrseq	r0, (UNDEF: 0)
    192c:	00005400 	andeq	r5, r0, r0, lsl #8
	...
    1938:	00200000 	eoreq	r0, r0, r0
    193c:	002f0000 	eoreq	r0, pc, r0
    1940:	00010000 	andeq	r0, r1, r0
    1944:	00002f51 	andeq	r2, r0, r1, asr pc
    1948:	00004000 	andeq	r4, r0, r0
    194c:	55000100 	strpl	r0, [r0, #-256]	; 0xffffff00
	...
    195c:	03500000 	cmpeq	r0, #0, 0
    1960:	03980000 	orrseq	r0, r8, #0, 0
    1964:	00010000 	andeq	r0, r1, r0
    1968:	00039850 	andeq	r9, r3, r0, asr r8
    196c:	00039b00 	andeq	r9, r3, r0, lsl #22
    1970:	91000200 	mrsls	r0, R8_usr
    1974:	00039b68 	andeq	r9, r3, r8, ror #22
    1978:	0003b000 	andeq	fp, r3, r0
    197c:	f3000400 	vshl.u8	d0, d0, d0
    1980:	009f5001 	addseq	r5, pc, r1
	...
    199c:	20000000 	andcs	r0, r0, r0
    19a0:	7b000002 	blvc	19b0 <__code_start__-0x6650>
    19a4:	01000002 	tsteq	r0, r2
    19a8:	027b5000 	rsbseq	r5, fp, #0, 0
    19ac:	02840000 	addeq	r0, r4, #0, 0
    19b0:	00040000 	andeq	r0, r4, r0
    19b4:	9f5001f3 	svcls	0x005001f3
    19b8:	00000284 	andeq	r0, r0, r4, lsl #5
    19bc:	0000029c 	muleq	r0, ip, r2
    19c0:	9c500001 	mrrcls	0, 0, r0, r0, cr1	; <UNPREDICTABLE>
    19c4:	a4000002 	strge	r0, [r0], #-2
    19c8:	04000002 	streq	r0, [r0], #-2
    19cc:	5001f300 	andpl	pc, r1, r0, lsl #6
    19d0:	0002a49f 	muleq	r2, pc, r4	; <UNPREDICTABLE>
    19d4:	0002a700 	andeq	sl, r2, r0, lsl #14
    19d8:	50000100 	andpl	r0, r0, r0, lsl #2
    19dc:	000002a7 	andeq	r0, r0, r7, lsr #5
    19e0:	000002c8 	andeq	r0, r0, r8, asr #5
    19e4:	01f30004 	mvnseq	r0, r4
    19e8:	02c89f50 	sbceq	r9, r8, #80, 30	; 0x140
    19ec:	02e00000 	rsceq	r0, r0, #0, 0
    19f0:	00010000 	andeq	r0, r1, r0
    19f4:	0002e050 	andeq	lr, r2, r0, asr r0
    19f8:	0002e800 	andeq	lr, r2, r0, lsl #16
    19fc:	f3000400 	vshl.u8	d0, d0, d0
    1a00:	e89f5001 	ldm	pc, {r0, ip, lr}	; <UNPREDICTABLE>
    1a04:	eb000002 	bl	1a14 <__code_start__-0x65ec>
    1a08:	01000002 	tsteq	r0, r2
    1a0c:	02eb5000 	rsceq	r5, fp, #0, 0
    1a10:	03380000 	teqeq	r8, #0, 0
    1a14:	00040000 	andeq	r0, r4, r0
    1a18:	9f5001f3 	svcls	0x005001f3
	...
    1a38:	00000220 	andeq	r0, r0, r0, lsr #4
    1a3c:	00000244 	andeq	r0, r0, r4, asr #4
    1a40:	44510001 	ldrbmi	r0, [r1], #-1
    1a44:	68000002 	stmdavs	r0, {r1}
    1a48:	01000002 	tsteq	r0, r2
    1a4c:	02685100 	rsbeq	r5, r8, #0
    1a50:	027b0000 	rsbseq	r0, fp, #0, 0
    1a54:	00030000 	andeq	r0, r3, r0
    1a58:	7b9f0171 	blvc	fe7c2024 <__bss_end__+0xfe7b717c>
    1a5c:	84000002 	strhi	r0, [r0], #-2
    1a60:	17000002 	strne	r0, [r0, -r2]
    1a64:	01f33800 	mvnseq	r3, r0, lsl #16
    1a68:	5101f351 	tstpl	r1, r1, asr r3	; <UNPREDICTABLE>
    1a6c:	22244b40 	eorcs	r4, r4, #64, 22	; 0x10000
    1a70:	0000080c 	andeq	r0, r0, ip, lsl #16
    1a74:	01282d80 	smlawbeq	r8, r0, sp, r2
    1a78:	9f131600 	svcls	0x00131600
    1a7c:	00000284 	andeq	r0, r0, r4, lsl #5
    1a80:	00000298 	muleq	r0, r8, r2
    1a84:	98510001 	ldmdals	r1, {r0}^
    1a88:	a4000002 	strge	r0, [r0], #-2
    1a8c:	04000002 	streq	r0, [r0], #-2
    1a90:	5101f300 	mrspl	pc, SP_irq	; <UNPREDICTABLE>
    1a94:	0002a49f 	muleq	r2, pc, r4	; <UNPREDICTABLE>
    1a98:	0002a700 	andeq	sl, r2, r0, lsl #14
    1a9c:	51000100 	mrspl	r0, (UNDEF: 16)
    1aa0:	000002a7 	andeq	r0, r0, r7, lsr #5
    1aa4:	000002c8 	andeq	r0, r0, r8, asr #5
    1aa8:	01f30004 	mvnseq	r0, r4
    1aac:	02c89f51 	sbceq	r9, r8, #324	; 0x144
    1ab0:	02dc0000 	sbcseq	r0, ip, #0, 0
    1ab4:	00010000 	andeq	r0, r1, r0
    1ab8:	0002dc51 	andeq	sp, r2, r1, asr ip
    1abc:	00033800 	andeq	r3, r3, r0, lsl #16
    1ac0:	38001700 	stmdacc	r0, {r8, r9, sl, ip}
    1ac4:	f35101f3 	vbsl	q8, <illegal reg q8.5>, <illegal reg q9.5>
    1ac8:	4b405101 	blmi	1015ed4 <__bss_end__+0x100b02c>
    1acc:	080c2224 	stmdaeq	ip, {r2, r5, r9, sp}
    1ad0:	2d800000 	stccs	0, cr0, [r0]
    1ad4:	16000128 	strne	r0, [r0], -r8, lsr #2
    1ad8:	00009f13 	andeq	r9, r0, r3, lsl pc
	...
    1aec:	024c0000 	subeq	r0, ip, #0, 0
    1af0:	025c0000 	subseq	r0, ip, #0, 0
    1af4:	00010000 	andeq	r0, r1, r0
    1af8:	00025c52 	andeq	r5, r2, r2, asr ip
    1afc:	00026400 	andeq	r6, r2, r0, lsl #8
    1b00:	03000500 	movweq	r0, #1280	; 0x500
    1b04:	0000aa70 	andeq	sl, r0, r0, ror sl
    1b08:	00000264 	andeq	r0, r0, r4, ror #4
    1b0c:	0000027b 	andeq	r0, r0, fp, ror r2
    1b10:	c8530001 	ldmdagt	r3, {r0}^
    1b14:	d8000002 	stmdale	r0, {r1}
    1b18:	01000002 	tsteq	r0, r2
    1b1c:	02d85200 	sbcseq	r5, r8, #0, 4
    1b20:	02e30000 	rsceq	r0, r3, #0, 0
    1b24:	00050000 	andeq	r0, r5, r0
    1b28:	00aa7003 	adceq	r7, sl, r3
    1b2c:	0002e800 	andeq	lr, r2, r0, lsl #16
    1b30:	0002eb00 	andeq	lr, r2, r0, lsl #22
    1b34:	53000100 	movwpl	r0, #256	; 0x100
	...
    1b40:	02300004 	eorseq	r0, r0, #4, 0
    1b44:	02340000 	eorseq	r0, r4, #0, 0
    1b48:	00010000 	andeq	r0, r1, r0
    1b4c:	00000051 	andeq	r0, r0, r1, asr r0
    1b50:	00000000 	andeq	r0, r0, r0
    1b54:	3c000200 	sfmcc	f0, 4, [r0], {-0}
    1b58:	44000002 	strmi	r0, [r0], #-2
    1b5c:	02000002 	andeq	r0, r0, #2, 0
    1b60:	009f3800 	addseq	r3, pc, r0, lsl #16
    1b64:	00000000 	andeq	r0, r0, r0
    1b68:	02000000 	andeq	r0, r0, #0, 0
    1b6c:	00023c00 	andeq	r3, r2, r0, lsl #24
    1b70:	00024400 	andeq	r4, r2, r0, lsl #8
    1b74:	51000100 	mrspl	r0, (UNDEF: 16)
	...
    1b80:	00000001 	andeq	r0, r0, r1
    1b84:	024c0000 	subeq	r0, ip, #0, 0
    1b88:	02640000 	rsbeq	r0, r4, #0, 0
    1b8c:	00010000 	andeq	r0, r1, r0
    1b90:	0002c851 	andeq	ip, r2, r1, asr r8
    1b94:	0002dc00 	andeq	sp, r2, r0, lsl #24
    1b98:	51000100 	mrspl	r0, (UNDEF: 16)
    1b9c:	000002dc 	ldrdeq	r0, [r0], -ip
    1ba0:	000002e8 	andeq	r0, r0, r8, ror #5
    1ba4:	f3380017 	vqadd.u64	d0, d8, d7
    1ba8:	01f35101 	mvnseq	r5, r1, lsl #2
    1bac:	244b4051 	strbcs	r4, [fp], #-81	; 0xffffffaf
    1bb0:	00080c22 	andeq	r0, r8, r2, lsr #24
    1bb4:	282d8000 	stmdacs	sp!, {pc}
    1bb8:	13160001 	tstne	r6, #1, 0
    1bbc:	0000009f 	muleq	r0, pc, r0	; <UNPREDICTABLE>
    1bc0:	00000000 	andeq	r0, r0, r0
    1bc4:	00000100 	andeq	r0, r0, r0, lsl #2
    1bc8:	00000000 	andeq	r0, r0, r0
    1bcc:	00024c00 	andeq	r4, r2, r0, lsl #24
    1bd0:	00025c00 	andeq	r5, r2, r0, lsl #24
    1bd4:	52000100 	andpl	r0, r0, #0
    1bd8:	0000025c 	andeq	r0, r0, ip, asr r2
    1bdc:	00000264 	andeq	r0, r0, r4, ror #4
    1be0:	70030005 	andvc	r0, r3, r5
    1be4:	c80000aa 	stmdagt	r0, {r1, r3, r5, r7}
    1be8:	d8000002 	stmdale	r0, {r1}
    1bec:	01000002 	tsteq	r0, r2
    1bf0:	02d85200 	sbcseq	r5, r8, #0, 4
    1bf4:	02e30000 	rsceq	r0, r3, #0, 0
    1bf8:	00050000 	andeq	r0, r5, r0
    1bfc:	00aa7003 	adceq	r7, sl, r3
	...
    1c08:	4c000400 	cfstrsmi	mvf0, [r0], {-0}
    1c0c:	50000002 	andpl	r0, r0, r2
    1c10:	01000002 	tsteq	r0, r2
    1c14:	00005100 	andeq	r5, r0, r0, lsl #2
    1c18:	00000000 	andeq	r0, r0, r0
    1c1c:	00030000 	andeq	r0, r3, r0
    1c20:	00000264 	andeq	r0, r0, r4, ror #4
    1c24:	00000268 	andeq	r0, r0, r8, ror #4
    1c28:	00510001 	subseq	r0, r1, r1
    1c2c:	00000000 	andeq	r0, r0, r0
    1c30:	03000000 	movweq	r0, #0
    1c34:	00026400 	andeq	r6, r2, r0, lsl #8
    1c38:	00026800 	andeq	r6, r2, r0, lsl #16
    1c3c:	53000100 	movwpl	r0, #256	; 0x100
	...
    1c50:	000001bc 			; <UNDEFINED> instruction: 0x000001bc
    1c54:	000001d3 	ldrdeq	r0, [r0], -r3
    1c58:	d3500001 	cmple	r0, #1, 0
    1c5c:	f0000001 			; <UNDEFINED> instruction: 0xf0000001
    1c60:	01000001 	tsteq	r0, r1
    1c64:	01f05400 	mvnseq	r5, r0, lsl #8
    1c68:	02080000 	andeq	r0, r8, #0, 0
    1c6c:	00010000 	andeq	r0, r1, r0
    1c70:	00020850 	andeq	r0, r2, r0, asr r8
    1c74:	00022000 	andeq	r2, r2, r0
    1c78:	54000100 	strpl	r0, [r0], #-256	; 0xffffff00
	...
    1c88:	000001d8 	ldrdeq	r0, [r0], -r8
    1c8c:	000001e3 	andeq	r0, r0, r3, ror #3
    1c90:	e3500001 	cmp	r0, #1, 0
    1c94:	f0000001 			; <UNDEFINED> instruction: 0xf0000001
    1c98:	01000001 	tsteq	r0, r1
    1c9c:	00005500 	andeq	r5, r0, r0, lsl #10
	...
    1cb4:	01240000 			; <UNDEFINED> instruction: 0x01240000
    1cb8:	01380000 	teqeq	r8, r0
    1cbc:	00010000 	andeq	r0, r1, r0
    1cc0:	00013850 	andeq	r3, r1, r0, asr r8
    1cc4:	00013c00 	andeq	r3, r1, r0, lsl #24
    1cc8:	70000300 	andvc	r0, r0, r0, lsl #6
    1ccc:	013c9f79 	teqeq	ip, r9, ror pc
    1cd0:	01600000 	cmneq	r0, r0
    1cd4:	00010000 	andeq	r0, r1, r0
    1cd8:	00016053 	andeq	r6, r1, r3, asr r0
    1cdc:	00017800 	andeq	r7, r1, r0, lsl #16
    1ce0:	50000100 	andpl	r0, r0, r0, lsl #2
    1ce4:	00000178 	andeq	r0, r0, r8, ror r1
    1ce8:	00000180 	andeq	r0, r0, r0, lsl #3
    1cec:	01f30004 	mvnseq	r0, r4
    1cf0:	01809f50 	orreq	r9, r0, r0, asr pc
    1cf4:	01900000 	orrseq	r0, r0, r0
    1cf8:	00010000 	andeq	r0, r1, r0
    1cfc:	00019053 	andeq	r9, r1, r3, asr r0
    1d00:	00019f00 	andeq	r9, r1, r0, lsl #30
    1d04:	91000200 	mrsls	r0, R8_usr
    1d08:	00019f68 	andeq	r9, r1, r8, ror #30
    1d0c:	0001bc00 	andeq	fp, r1, r0, lsl #24
    1d10:	f3000900 	vmls.i8	d0, d0, d0
    1d14:	07235001 	streq	r5, [r3, -r1]!
    1d18:	9f1af809 	svcls	0x001af809
	...
    1d28:	01440000 	mrseq	r0, (UNDEF: 68)
    1d2c:	01600000 	cmneq	r0, r0
    1d30:	00010000 	andeq	r0, r1, r0
    1d34:	00018050 	andeq	r8, r1, r0, asr r0
    1d38:	00019c00 	andeq	r9, r1, r0, lsl #24
    1d3c:	50000100 	andpl	r0, r0, r0, lsl #2
    1d40:	0000019c 	muleq	r0, ip, r1
    1d44:	0000019f 	muleq	r0, pc, r1	; <UNPREDICTABLE>
    1d48:	70030005 	andvc	r0, r3, r5
    1d4c:	000000aa 	andeq	r0, r0, sl, lsr #1
    1d50:	00000000 	andeq	r0, r0, r0
    1d54:	03000000 	movweq	r0, #0
    1d58:	00013400 	andeq	r3, r1, r0, lsl #8
    1d5c:	00013c00 	andeq	r3, r1, r0, lsl #24
    1d60:	38000200 	stmdacc	r0, {r9}
    1d64:	0000009f 	muleq	r0, pc, r0	; <UNPREDICTABLE>
    1d68:	00000000 	andeq	r0, r0, r0
    1d6c:	00000300 	andeq	r0, r0, r0, lsl #6
    1d70:	00013400 	andeq	r3, r1, r0, lsl #8
    1d74:	00013800 	andeq	r3, r1, r0, lsl #16
    1d78:	50000100 	andpl	r0, r0, r0, lsl #2
    1d7c:	00000138 	andeq	r0, r0, r8, lsr r1
    1d80:	0000013c 	andeq	r0, r0, ip, lsr r1
    1d84:	79700003 	ldmdbvc	r0!, {r0, r1}^
    1d88:	0000009f 	muleq	r0, pc, r0	; <UNPREDICTABLE>
	...
    1d9c:	30000000 	andcc	r0, r0, r0
    1da0:	60000000 	andvs	r0, r0, r0
    1da4:	01000000 	mrseq	r0, (UNDEF: 0)
    1da8:	00605000 	rsbeq	r5, r0, r0
    1dac:	006c0000 	rsbeq	r0, ip, r0
    1db0:	00050000 	andeq	r0, r5, r0
    1db4:	00aa7003 	adceq	r7, sl, r3
    1db8:	00006c00 	andeq	r6, r0, r0, lsl #24
    1dbc:	00008400 	andeq	r8, r0, r0, lsl #8
    1dc0:	50000100 	andpl	r0, r0, r0, lsl #2
    1dc4:	00000084 	andeq	r0, r0, r4, lsl #1
    1dc8:	0000008c 	andeq	r0, r0, ip, lsl #1
    1dcc:	01f30004 	mvnseq	r0, r4
    1dd0:	008c9f50 	addeq	r9, ip, r0, asr pc
    1dd4:	00ac0000 	adceq	r0, ip, r0
    1dd8:	00010000 	andeq	r0, r1, r0
    1ddc:	0000ac50 	andeq	sl, r0, r0, asr ip
    1de0:	0000af00 	andeq	sl, r0, r0, lsl #30
    1de4:	91000200 	mrsls	r0, R8_usr
    1de8:	0000af68 	andeq	sl, r0, r8, ror #30
    1dec:	0000cc00 	andeq	ip, r0, r0, lsl #24
    1df0:	f3000400 	vshl.u8	d0, d0, d0
    1df4:	009f5001 	addseq	r5, pc, r1
	...
    1e04:	30000000 	andcc	r0, r0, r0
    1e08:	80000000 	andhi	r0, r0, r0
    1e0c:	01000000 	mrseq	r0, (UNDEF: 0)
    1e10:	00805100 	addeq	r5, r0, r0, lsl #2
    1e14:	008c0000 	addeq	r0, ip, r0
    1e18:	00040000 	andeq	r0, r4, r0
    1e1c:	9f5101f3 	svcls	0x005101f3
    1e20:	0000008c 	andeq	r0, r0, ip, lsl #1
    1e24:	000000a8 	andeq	r0, r0, r8, lsr #1
    1e28:	a8510001 	ldmdage	r1, {r0}^
    1e2c:	cc000000 	stcgt	0, cr0, [r0], {-0}
    1e30:	04000000 	streq	r0, [r0], #-0
    1e34:	5101f300 	mrspl	pc, SP_irq	; <UNPREDICTABLE>
    1e38:	0000009f 	muleq	r0, pc, r0	; <UNPREDICTABLE>
    1e3c:	00000000 	andeq	r0, r0, r0
    1e40:	00000100 	andeq	r0, r0, r0, lsl #2
	...
    1e4c:	38000000 	stmdacc	r0, {}	; <UNPREDICTABLE>
    1e50:	60000000 	andvs	r0, r0, r0
    1e54:	01000000 	mrseq	r0, (UNDEF: 0)
    1e58:	00605000 	rsbeq	r5, r0, r0
    1e5c:	006c0000 	rsbeq	r0, ip, r0
    1e60:	00050000 	andeq	r0, r5, r0
    1e64:	00aa7003 	adceq	r7, sl, r3
    1e68:	00006c00 	andeq	r6, r0, r0, lsl #24
    1e6c:	00008400 	andeq	r8, r0, r0, lsl #8
    1e70:	50000100 	andpl	r0, r0, r0, lsl #2
    1e74:	00000084 	andeq	r0, r0, r4, lsl #1
    1e78:	0000008c 	andeq	r0, r0, ip, lsl #1
    1e7c:	01f30004 	mvnseq	r0, r4
    1e80:	008c9f50 	addeq	r9, ip, r0, asr pc
    1e84:	00ac0000 	adceq	r0, ip, r0
    1e88:	00010000 	andeq	r0, r1, r0
    1e8c:	0000ac50 	andeq	sl, r0, r0, asr ip
    1e90:	0000af00 	andeq	sl, r0, r0, lsl #30
    1e94:	91000200 	mrsls	r0, R8_usr
    1e98:	0000af68 	andeq	sl, r0, r8, ror #30
    1e9c:	0000cc00 	andeq	ip, r0, r0, lsl #24
    1ea0:	f3000400 	vshl.u8	d0, d0, d0
    1ea4:	009f5001 	addseq	r5, pc, r1
	...
    1eb4:	0b000000 	bleq	1ebc <__code_start__-0x6144>
    1eb8:	01000000 	mrseq	r0, (UNDEF: 0)
    1ebc:	000b5000 	andeq	r5, fp, r0
    1ec0:	00140000 	andseq	r0, r4, r0
    1ec4:	00010000 	andeq	r0, r1, r0
    1ec8:	00000054 	andeq	r0, r0, r4, asr r0
	...
    1ed8:	00001c00 	andeq	r1, r0, r0, lsl #24
    1edc:	51000100 	mrspl	r0, (UNDEF: 16)
    1ee0:	0000001c 	andeq	r0, r0, ip, lsl r0
    1ee4:	00000034 	andeq	r0, r0, r4, lsr r0
    1ee8:	01f30004 	mvnseq	r0, r4
    1eec:	00009f51 	andeq	r9, r0, r1, asr pc
    1ef0:	00000000 	andeq	r0, r0, r0
    1ef4:	00020000 	andeq	r0, r2, r0
    1ef8:	01000000 	mrseq	r0, (UNDEF: 0)
    1efc:	00000001 	andeq	r0, r0, r1
    1f00:	00000000 	andeq	r0, r0, r0
    1f04:	00000004 	andeq	r0, r0, r4
    1f08:	04500001 	ldrbeq	r0, [r0], #-1
    1f0c:	1c000000 	stcne	0, cr0, [r0], {-0}
    1f10:	01000000 	mrseq	r0, (UNDEF: 0)
    1f14:	001c5200 	andseq	r5, ip, r0, lsl #4
    1f18:	00240000 	eoreq	r0, r4, r0
    1f1c:	00010000 	andeq	r0, r1, r0
    1f20:	00002453 	andeq	r2, r0, r3, asr r4
    1f24:	00002800 	andeq	r2, r0, r0, lsl #16
    1f28:	73000300 	movwvc	r0, #768	; 0x300
    1f2c:	00289f01 	eoreq	r9, r8, r1, lsl #30
    1f30:	00340000 	eorseq	r0, r4, r0
    1f34:	00010000 	andeq	r0, r1, r0
    1f38:	00000053 	andeq	r0, r0, r3, asr r0
    1f3c:	00000000 	andeq	r0, r0, r0
    1f40:	00000300 	andeq	r0, r0, r0, lsl #6
    1f44:	00000000 	andeq	r0, r0, r0
    1f48:	00002400 	andeq	r2, r0, r0, lsl #8
    1f4c:	51000100 	mrspl	r0, (UNDEF: 16)
    1f50:	00000024 	andeq	r0, r0, r4, lsr #32
    1f54:	00000034 	andeq	r0, r0, r4, lsr r0
    1f58:	7f710003 	svcvc	0x00710003
    1f5c:	0000009f 	muleq	r0, pc, r0	; <UNPREDICTABLE>
	...
    1f68:	00001000 	andeq	r1, r0, r0
    1f6c:	00001c00 	andeq	r1, r0, r0, lsl #24
    1f70:	5c000100 	stfpls	f0, [r0], {-0}
    1f74:	00000024 	andeq	r0, r0, r4, lsr #32
    1f78:	00000034 	andeq	r0, r0, r4, lsr r0
    1f7c:	00520001 	subseq	r0, r2, r1
	...
    1f8c:	18000000 	stmdane	r0, {}	; <UNPREDICTABLE>
    1f90:	01000000 	mrseq	r0, (UNDEF: 0)
    1f94:	00185000 	andseq	r5, r8, r0
    1f98:	00240000 	eoreq	r0, r4, r0
    1f9c:	00010000 	andeq	r0, r1, r0
    1fa0:	00000050 	andeq	r0, r0, r0, asr r0
	...
    1fb0:	00001c00 	andeq	r1, r0, r0, lsl #24
    1fb4:	51000100 	mrspl	r0, (UNDEF: 16)
    1fb8:	0000001c 	andeq	r0, r0, ip, lsl r0
    1fbc:	0000002c 	andeq	r0, r0, ip, lsr #32
    1fc0:	00510001 	subseq	r0, r1, r1
	...
    1fd4:	00000400 	andeq	r0, r0, r0, lsl #8
    1fd8:	51000100 	mrspl	r0, (UNDEF: 16)
    1fdc:	00000004 	andeq	r0, r0, r4
    1fe0:	0000000c 	andeq	r0, r0, ip
    1fe4:	0c510001 	mrrceq	0, 0, r0, r1, cr1
    1fe8:	20000000 	andcs	r0, r0, r0
    1fec:	03000000 	movweq	r0, #0
    1ff0:	9f7f7100 	svcls	0x007f7100
	...
    1ffc:	00000002 	andeq	r0, r0, r2
    2000:	00000000 	andeq	r0, r0, r0
    2004:	00040000 	andeq	r0, r4, r0
    2008:	00010000 	andeq	r0, r1, r0
    200c:	00000450 	andeq	r0, r0, r0, asr r4
    2010:	00001400 	andeq	r1, r0, r0, lsl #8
    2014:	5c000100 	stfpls	f0, [r0], {-0}
    2018:	00000014 	andeq	r0, r0, r4, lsl r0
    201c:	00000020 	andeq	r0, r0, r0, lsr #32
    2020:	7f7c0003 	svcvc	0x007c0003
    2024:	0000009f 	muleq	r0, pc, r0	; <UNPREDICTABLE>
    2028:	00000000 	andeq	r0, r0, r0
    202c:	03030000 	movweq	r0, #12288	; 0x3000
    2030:	009e9800 	addseq	r9, lr, r0, lsl #16
    2034:	009e9800 	addseq	r9, lr, r0, lsl #16
    2038:	50000100 	andpl	r0, r0, r0, lsl #2
    203c:	00009e98 	muleq	r0, r8, lr
    2040:	00009ec4 	andeq	r9, r0, r4, asr #29
    2044:	01f30004 	mvnseq	r0, r4
    2048:	00009f50 	andeq	r9, r0, r0, asr pc
    204c:	00000000 	andeq	r0, r0, r0
    2050:	03000000 	movweq	r0, #0
    2054:	9e980003 	cdpls	0, 9, cr0, cr8, cr3, {0}
    2058:	9e980000 	cdpls	0, 9, cr0, cr8, cr0, {0}
    205c:	00010000 	andeq	r0, r1, r0
    2060:	009e9851 	addseq	r9, lr, r1, asr r8
    2064:	009ec400 	addseq	ip, lr, r0, lsl #8
    2068:	f3000400 	vshl.u8	d0, d0, d0
    206c:	009f5101 	addseq	r5, pc, r1, lsl #2
	...
    2078:	00000303 	andeq	r0, r0, r3, lsl #6
    207c:	009e9800 	addseq	r9, lr, r0, lsl #16
    2080:	009e9800 	addseq	r9, lr, r0, lsl #16
    2084:	52000100 	andpl	r0, r0, #0
    2088:	00009e98 	muleq	r0, r8, lr
    208c:	00009ea0 	andeq	r9, r0, r0, lsr #29
    2090:	a0520001 	subsge	r0, r2, r1
    2094:	c400009e 	strgt	r0, [r0], #-158	; 0xffffff62
    2098:	0300009e 	movweq	r0, #158	; 0x9e
    209c:	9f017200 	svcls	0x00017200
	...
    20a8:	00010102 	andeq	r0, r1, r2, lsl #2
    20ac:	00000000 	andeq	r0, r0, r0
    20b0:	00009e98 	muleq	r0, r8, lr
    20b4:	00009ea4 	andeq	r9, r0, r4, lsr #29
    20b8:	a4500001 	ldrbge	r0, [r0], #-1
    20bc:	a800009e 	stmdage	r0, {r1, r2, r3, r4, r7}
    20c0:	0300009e 	movweq	r0, #158	; 0x9e
    20c4:	9f017000 	svcls	0x00017000
    20c8:	00009ea8 	andeq	r9, r0, r8, lsr #29
    20cc:	00009eb8 			; <UNDEFINED> instruction: 0x00009eb8
    20d0:	bc500001 	mrrclt	0, 0, r0, r0, cr1	; <UNPREDICTABLE>
    20d4:	c000009e 	mulgt	r0, lr, r0
    20d8:	0100009e 	swpeq	r0, lr, [r0]	; <UNPREDICTABLE>
    20dc:	00005000 	andeq	r5, r0, r0
    20e0:	00000000 	andeq	r0, r0, r0
    20e4:	00020000 	andeq	r0, r2, r0
    20e8:	00000000 	andeq	r0, r0, r0
    20ec:	00009e98 	muleq	r0, r8, lr
    20f0:	00009ea8 	andeq	r9, r0, r8, lsr #29
    20f4:	a8510001 	ldmdage	r1, {r0}^
    20f8:	ac00009e 	stcge	0, cr0, [r0], {158}	; 0x9e
    20fc:	0300009e 	movweq	r0, #158	; 0x9e
    2100:	9f017100 	svcls	0x00017100
    2104:	00009eac 	andeq	r9, r0, ip, lsr #29
    2108:	00009ec4 	andeq	r9, r0, r4, asr #29
    210c:	00510001 	subseq	r0, r1, r1
	...
    211c:	e8000000 	stmda	r0, {}	; <UNPREDICTABLE>
    2120:	00000000 	andeq	r0, r0, r0
    2124:	01000001 	tsteq	r0, r1
    2128:	01005000 	mrseq	r5, (UNDEF: 0)
    212c:	01100000 	tsteq	r0, r0
    2130:	00040000 	andeq	r0, r4, r0
    2134:	9f5001f3 	svcls	0x005001f3
    2138:	00000110 	andeq	r0, r0, r0, lsl r1
    213c:	00000114 	andeq	r0, r0, r4, lsl r1
    2140:	14500001 	ldrbne	r0, [r0], #-1
    2144:	1c000001 	stcne	0, cr0, [r0], {1}
    2148:	04000001 	streq	r0, [r0], #-1
    214c:	5001f300 	andpl	pc, r1, r0, lsl #6
    2150:	0000009f 	muleq	r0, pc, r0	; <UNPREDICTABLE>
    2154:	00000000 	andeq	r0, r0, r0
    2158:	00000100 	andeq	r0, r0, r0, lsl #2
    215c:	f4000000 	vst4.8	{d0-d3}, [r0], r0
    2160:	00000000 	andeq	r0, r0, r0
    2164:	0b000001 	bleq	2170 <__code_start__-0x5e90>
    2168:	35007000 	strcc	r7, [r0, #-0]
    216c:	80b42325 	adcshi	r2, r4, r5, lsr #6
    2170:	9f028180 	svcls	0x00028180
    2174:	00000100 	andeq	r0, r0, r0, lsl #2
    2178:	00000103 	andeq	r0, r0, r3, lsl #2
    217c:	03500001 	cmpeq	r0, #1, 0
    2180:	10000001 	andne	r0, r0, r1
    2184:	0c000001 	stceq	0, cr0, [r0], {1}
    2188:	5001f300 	andpl	pc, r1, r0, lsl #6
    218c:	b4232535 	strtlt	r2, [r3], #-1333	; 0xfffffacb
    2190:	02818080 	addeq	r8, r1, #128, 0	; 0x80
    2194:	0000009f 	muleq	r0, pc, r0	; <UNPREDICTABLE>
    2198:	00000000 	andeq	r0, r0, r0
    219c:	f8000000 			; <UNDEFINED> instruction: 0xf8000000
    21a0:	10000000 	andne	r0, r0, r0
    21a4:	01000001 	tsteq	r0, r1
    21a8:	00005400 	andeq	r5, r0, r0, lsl #8
	...
    21b8:	00cc0000 	sbceq	r0, ip, r0
    21bc:	00db0000 	sbcseq	r0, fp, r0
    21c0:	00010000 	andeq	r0, r1, r0
    21c4:	0000db50 	andeq	sp, r0, r0, asr fp
    21c8:	0000e000 	andeq	lr, r0, r0
    21cc:	f3000400 	vshl.u8	d0, d0, d0
    21d0:	e09f5001 	adds	r5, pc, r1
    21d4:	e3000000 	movw	r0, #0
    21d8:	01000000 	mrseq	r0, (UNDEF: 0)
    21dc:	00e35000 	rsceq	r5, r3, r0
    21e0:	00e80000 	rsceq	r0, r8, r0
    21e4:	00040000 	andeq	r0, r4, r0
    21e8:	9f5001f3 	svcls	0x005001f3
	...
    21fc:	000000cc 	andeq	r0, r0, ip, asr #1
    2200:	000000db 	ldrdeq	r0, [r0], -fp
    2204:	db510001 	blle	1442210 <__bss_end__+0x1437368>
    2208:	e0000000 	and	r0, r0, r0
    220c:	04000000 	streq	r0, [r0], #-0
    2210:	5101f300 	mrspl	pc, SP_irq	; <UNPREDICTABLE>
    2214:	0000e09f 	muleq	r0, pc, r0	; <UNPREDICTABLE>
    2218:	0000e300 	andeq	lr, r0, r0, lsl #6
    221c:	51000100 	mrspl	r0, (UNDEF: 16)
    2220:	000000e3 	andeq	r0, r0, r3, ror #1
    2224:	000000e8 	andeq	r0, r0, r8, ror #1
    2228:	01f30004 	mvnseq	r0, r4
    222c:	00009f51 	andeq	r9, r0, r1, asr pc
	...
    2238:	00bc0000 	adcseq	r0, ip, r0
    223c:	00c70000 	sbceq	r0, r7, r0
    2240:	00010000 	andeq	r0, r1, r0
    2244:	0000c750 	andeq	ip, r0, r0, asr r7
    2248:	0000cc00 	andeq	ip, r0, r0, lsl #24
    224c:	f3000400 	vshl.u8	d0, d0, d0
    2250:	009f5001 	addseq	r5, pc, r1
	...
    225c:	98000000 	stmdals	r0, {}	; <UNPREDICTABLE>
    2260:	b0000000 	andlt	r0, r0, r0
    2264:	01000000 	mrseq	r0, (UNDEF: 0)
    2268:	00b05000 	adcseq	r5, r0, r0
    226c:	00bc0000 	adcseq	r0, ip, r0
    2270:	00040000 	andeq	r0, r4, r0
    2274:	9f5001f3 	svcls	0x005001f3
	...
    2284:	00000074 	andeq	r0, r0, r4, ror r0
    2288:	0000008c 	andeq	r0, r0, ip, lsl #1
    228c:	8c500001 	mrrchi	0, 0, r0, r0, cr1	; <UNPREDICTABLE>
    2290:	98000000 	stmdals	r0, {}	; <UNPREDICTABLE>
    2294:	04000000 	streq	r0, [r0], #-0
    2298:	5001f300 	andpl	pc, r1, r0, lsl #6
    229c:	0000009f 	muleq	r0, pc, r0	; <UNPREDICTABLE>
	...
    22a8:	00006400 	andeq	r6, r0, r0, lsl #8
    22ac:	00006f00 	andeq	r6, r0, r0, lsl #30
    22b0:	50000100 	andpl	r0, r0, r0, lsl #2
    22b4:	0000006f 	andeq	r0, r0, pc, rrx
    22b8:	00000074 	andeq	r0, r0, r4, ror r0
    22bc:	01f30004 	mvnseq	r0, r4
    22c0:	00009f50 	andeq	r9, r0, r0, asr pc
	...
    22d0:	00380000 	eorseq	r0, r8, r0
    22d4:	00010000 	andeq	r0, r1, r0
    22d8:	00003850 	andeq	r3, r0, r0, asr r8
    22dc:	00006400 	andeq	r6, r0, r0, lsl #8
    22e0:	f3000400 	vshl.u8	d0, d0, d0
    22e4:	009f5001 	addseq	r5, pc, r1
	...
    22f4:	47000000 	strmi	r0, [r0, -r0]
    22f8:	01000000 	mrseq	r0, (UNDEF: 0)
    22fc:	00475100 	subeq	r5, r7, r0, lsl #2
    2300:	00640000 	rsbeq	r0, r4, r0
    2304:	00040000 	andeq	r0, r4, r0
    2308:	9f5101f3 	svcls	0x005101f3
	...
    2314:	00340000 	eorseq	r0, r4, r0
    2318:	00640000 	rsbeq	r0, r4, r0
    231c:	00010000 	andeq	r0, r1, r0
    2320:	00000054 	andeq	r0, r0, r4, asr r0
    2324:	00000000 	andeq	r0, r0, r0
    2328:	40000000 	andmi	r0, r0, r0
    232c:	64000000 	strvs	r0, [r0], #-0
    2330:	01000000 	mrseq	r0, (UNDEF: 0)
    2334:	00005600 	andeq	r5, r0, r0, lsl #12
	...
    2340:	00010100 	andeq	r0, r1, r0, lsl #2
    2344:	00480000 	subeq	r0, r8, r0
    2348:	00500000 	subseq	r0, r0, r0
    234c:	00010000 	andeq	r0, r1, r0
    2350:	00005050 	andeq	r5, r0, r0, asr r0
    2354:	00005000 	andeq	r5, r0, r0
    2358:	51000100 	mrspl	r0, (UNDEF: 16)
    235c:	00000050 	andeq	r0, r0, r0, asr r0
    2360:	00000054 	andeq	r0, r0, r4, asr r0
    2364:	00750009 	rsbseq	r0, r5, r9
    2368:	71240074 			; <UNDEFINED> instruction: 0x71240074
    236c:	549f2100 	ldrpl	r2, [pc], #256	; 2374 <__code_start__-0x5c8c>
    2370:	5b000000 	blpl	2378 <__code_start__-0x5c88>
    2374:	01000000 	mrseq	r0, (UNDEF: 0)
    2378:	00005100 	andeq	r5, r0, r0, lsl #2
    237c:	00000000 	andeq	r0, r0, r0
	...

Disassembly of section .debug_aranges:

00000000 <.debug_aranges>:
   0:	0000001c 	andeq	r0, r0, ip, lsl r0
   4:	00000002 	andeq	r0, r0, r2
   8:	00040000 	andeq	r0, r4, r0
   c:	00000000 	andeq	r0, r0, r0
  10:	00008038 	andeq	r8, r0, r8, lsr r0
  14:	0000010c 	andeq	r0, r0, ip, lsl #2
	...
  20:	0000001c 	andeq	r0, r0, ip, lsl r0
  24:	04d10002 	ldrbeq	r0, [r1], #2
  28:	00040000 	andeq	r0, r4, r0
  2c:	00000000 	andeq	r0, r0, r0
  30:	00008144 	andeq	r8, r0, r4, asr #2
  34:	0000052c 	andeq	r0, r0, ip, lsr #10
	...
  40:	0000001c 	andeq	r0, r0, ip, lsl r0
  44:	10bc0002 	adcsne	r0, ip, r2
  48:	00040000 	andeq	r0, r4, r0
  4c:	00000000 	andeq	r0, r0, r0
  50:	00008670 	andeq	r8, r0, r0, ror r6
  54:	000005f4 	strdeq	r0, [r0], -r4
	...
  60:	0000001c 	andeq	r0, r0, ip, lsl r0
  64:	1d210002 	stcne	0, cr0, [r1, #-8]!
  68:	00040000 	andeq	r0, r4, r0
  6c:	00000000 	andeq	r0, r0, r0
  70:	00008ca8 	andeq	r8, r0, r8, lsr #25
  74:	000001ac 	andeq	r0, r0, ip, lsr #3
	...
  80:	0000001c 	andeq	r0, r0, ip, lsl r0
  84:	1fff0002 	svcne	0x00ff0002
  88:	00040000 	andeq	r0, r4, r0
  8c:	00000000 	andeq	r0, r0, r0
  90:	00008e54 	andeq	r8, r0, r4, asr lr
  94:	00000034 	andeq	r0, r0, r4, lsr r0
	...
  a0:	0000001c 	andeq	r0, r0, ip, lsl r0
  a4:	21860002 	orrcs	r0, r6, r2
  a8:	00040000 	andeq	r0, r4, r0
  ac:	00000000 	andeq	r0, r0, r0
  b0:	00008e88 	andeq	r8, r0, r8, lsl #29
  b4:	00000060 	andeq	r0, r0, r0, rrx
	...
  c0:	0000001c 	andeq	r0, r0, ip, lsl r0
  c4:	23840002 	orrcs	r0, r4, #2, 0
  c8:	00040000 	andeq	r0, r4, r0
  cc:	00000000 	andeq	r0, r0, r0
  d0:	00008ee8 	andeq	r8, r0, r8, ror #29
  d4:	00000018 	andeq	r0, r0, r8, lsl r0
	...
  e0:	0000001c 	andeq	r0, r0, ip, lsl r0
  e4:	24c20002 	strbcs	r0, [r2], #2
  e8:	00040000 	andeq	r0, r4, r0
  ec:	00000000 	andeq	r0, r0, r0
  f0:	00008f00 	andeq	r8, r0, r0, lsl #30
  f4:	00000058 	andeq	r0, r0, r8, asr r0
	...
 100:	0000001c 	andeq	r0, r0, ip, lsl r0
 104:	26630002 	strbtcs	r0, [r3], -r2
 108:	00040000 	andeq	r0, r4, r0
 10c:	00000000 	andeq	r0, r0, r0
 110:	00008f58 	andeq	r8, r0, r8, asr pc
 114:	00000034 	andeq	r0, r0, r4, lsr r0
	...
 120:	0000001c 	andeq	r0, r0, ip, lsl r0
 124:	275a0002 	ldrbcs	r0, [sl, -r2]
 128:	00040000 	andeq	r0, r4, r0
 12c:	00000000 	andeq	r0, r0, r0
 130:	00008f8c 	andeq	r8, r0, ip, lsl #31
 134:	00000740 	andeq	r0, r0, r0, asr #14
	...
 140:	0000001c 	andeq	r0, r0, ip, lsl r0
 144:	32350002 	eorscc	r0, r5, #2, 0
 148:	00040000 	andeq	r0, r4, r0
 14c:	00000000 	andeq	r0, r0, r0
 150:	000096cc 	andeq	r9, r0, ip, asr #13
 154:	0000002c 	andeq	r0, r0, ip, lsr #32
	...
 160:	0000001c 	andeq	r0, r0, ip, lsl r0
 164:	33680002 	cmncc	r8, #2, 0
 168:	00040000 	andeq	r0, r4, r0
 16c:	00000000 	andeq	r0, r0, r0
 170:	000096f8 	strdeq	r9, [r0], -r8
 174:	0000003c 	andeq	r0, r0, ip, lsr r0
	...
 180:	0000001c 	andeq	r0, r0, ip, lsl r0
 184:	34f50002 	ldrbtcc	r0, [r5], #2
 188:	00040000 	andeq	r0, r4, r0
 18c:	00000000 	andeq	r0, r0, r0
 190:	00009734 	andeq	r9, r0, r4, lsr r7
 194:	00000004 	andeq	r0, r0, r4
	...
 1a0:	0000001c 	andeq	r0, r0, ip, lsl r0
 1a4:	35c70002 	strbcc	r0, [r7, #2]
 1a8:	00040000 	andeq	r0, r4, r0
 1ac:	00000000 	andeq	r0, r0, r0
 1b0:	00009738 	andeq	r9, r0, r8, lsr r7
 1b4:	00000080 	andeq	r0, r0, r0, lsl #1
	...
 1c0:	0000001c 	andeq	r0, r0, ip, lsl r0
 1c4:	38010002 	stmdacc	r1, {r1}
 1c8:	00040000 	andeq	r0, r4, r0
 1cc:	00000000 	andeq	r0, r0, r0
 1d0:	000097b8 			; <UNDEFINED> instruction: 0x000097b8
 1d4:	00000084 	andeq	r0, r0, r4, lsl #1
	...
 1e0:	0000001c 	andeq	r0, r0, ip, lsl r0
 1e4:	3a520002 	bcc	14801f4 <__bss_end__+0x147534c>
 1e8:	00040000 	andeq	r0, r4, r0
 1ec:	00000000 	andeq	r0, r0, r0
 1f0:	0000983c 	andeq	r9, r0, ip, lsr r8
 1f4:	000001f0 	strdeq	r0, [r0], -r0	; <UNPREDICTABLE>
	...
 200:	0000001c 	andeq	r0, r0, ip, lsl r0
 204:	40230002 	eormi	r0, r3, r2
 208:	00040000 	andeq	r0, r4, r0
 20c:	00000000 	andeq	r0, r0, r0
 210:	00009a2c 	andeq	r9, r0, ip, lsr #20
 214:	000003b0 			; <UNDEFINED> instruction: 0x000003b0
	...
 220:	0000001c 	andeq	r0, r0, ip, lsl r0
 224:	49100002 	ldmdbmi	r0, {r1}
 228:	00040000 	andeq	r0, r4, r0
 22c:	00000000 	andeq	r0, r0, r0
 230:	00009ddc 	ldrdeq	r9, [r0], -ip
 234:	0000003c 	andeq	r0, r0, ip, lsr r0
	...
 240:	0000001c 	andeq	r0, r0, ip, lsl r0
 244:	4a5d0002 	bmi	1740254 <__bss_end__+0x17353ac>
 248:	00040000 	andeq	r0, r4, r0
 24c:	00000000 	andeq	r0, r0, r0
 250:	00009e18 	andeq	r9, r0, r8, lsl lr
 254:	00000034 	andeq	r0, r0, r4, lsr r0
	...
 260:	0000001c 	andeq	r0, r0, ip, lsl r0
 264:	4b980002 	blmi	fe600274 <__bss_end__+0xfe5f53cc>
 268:	00040000 	andeq	r0, r4, r0
 26c:	00000000 	andeq	r0, r0, r0
 270:	00009e4c 	andeq	r9, r0, ip, asr #28
 274:	0000002c 	andeq	r0, r0, ip, lsr #32
	...
 280:	0000001c 	andeq	r0, r0, ip, lsl r0
 284:	4c930002 	ldcmi	0, cr0, [r3], {2}
 288:	00040000 	andeq	r0, r4, r0
 28c:	00000000 	andeq	r0, r0, r0
 290:	00009e78 	andeq	r9, r0, r8, ror lr
 294:	00000020 	andeq	r0, r0, r0, lsr #32
	...
 2a0:	0000001c 	andeq	r0, r0, ip, lsl r0
 2a4:	4da60002 	stcmi	0, cr0, [r6, #8]!
 2a8:	00040000 	andeq	r0, r4, r0
 2ac:	00000000 	andeq	r0, r0, r0
 2b0:	00009e98 	muleq	r0, r8, lr
 2b4:	0000002c 	andeq	r0, r0, ip, lsr #32
	...
 2c0:	0000001c 	andeq	r0, r0, ip, lsl r0
 2c4:	4ef80002 	cdpmi	0, 15, cr0, cr8, cr2, {0}
 2c8:	00040000 	andeq	r0, r4, r0
 2cc:	00000000 	andeq	r0, r0, r0
 2d0:	00009ec4 	andeq	r9, r0, r4, asr #29
 2d4:	00000004 	andeq	r0, r0, r4
	...
 2e0:	0000001c 	andeq	r0, r0, ip, lsl r0
 2e4:	4fca0002 	svcmi	0x00ca0002
 2e8:	00040000 	andeq	r0, r4, r0
 2ec:	00000000 	andeq	r0, r0, r0
 2f0:	00009ee0 	andeq	r9, r0, r0, ror #29
 2f4:	0000011c 	andeq	r0, r0, ip, lsl r1
	...

Disassembly of section .debug_line:

00000000 <.debug_line>:
       0:	000001a8 	andeq	r0, r0, r8, lsr #3
       4:	01140003 	tsteq	r4, r3
       8:	01020000 	mrseq	r0, (UNDEF: 2)
       c:	000d0efb 	strdeq	r0, [sp], -fp
      10:	01010101 	tsteq	r1, r1, lsl #2
      14:	01000000 	mrseq	r0, (UNDEF: 0)
      18:	2e010000 	cdpcs	0, 0, cr0, cr1, cr0, {0}
      1c:	73657400 	cmnvc	r5, #0, 8
      20:	332d7374 			; <UNDEFINED> instruction: 0x332d7374
      24:	2f00302e 	svccs	0x0000302e
      28:	2f727375 	svccs	0x00727375
      2c:	61636f6c 	cmnvs	r3, ip, ror #30
      30:	65432f6c 	strbvs	r2, [r3, #-3948]	; 0xfffff094
      34:	72616c6c 	rsbvc	r6, r1, #108, 24	; 0x6c00
      38:	6d72612f 	ldfvse	f6, [r2, #-188]!	; 0xffffff44
      3c:	6e6f6e2d 	cdpvs	14, 6, cr6, cr15, cr13, {1}
      40:	61652d65 	cmnvs	r5, r5, ror #26
      44:	742d6962 	strtvc	r6, [sp], #-2402	; 0xfffff69e
      48:	2f747365 	svccs	0x00747365
      4c:	30322d39 	eorscc	r2, r2, r9, lsr sp
      50:	34713931 	ldrbtcc	r3, [r1], #-2353	; 0xfffff6cf
      54:	3173632d 	cmncc	r3, sp, lsr #6
      58:	2f653730 	svccs	0x00653730
      5c:	2f62696c 	svccs	0x0062696c
      60:	2f636367 	svccs	0x00636367
      64:	2d6d7261 	sfmcs	f7, 2, [sp, #-388]!	; 0xfffffe7c
      68:	656e6f6e 	strbvs	r6, [lr, #-3950]!	; 0xfffff092
      6c:	6261652d 	rsbvs	r6, r1, #188743680	; 0xb400000
      70:	2e392f69 	cdpcs	15, 3, cr2, cr9, cr9, {3}
      74:	2f312e32 	svccs	0x00312e32
      78:	6c636e69 	stclvs	14, cr6, [r3], #-420	; 0xfffffe5c
      7c:	00656475 	rsbeq	r6, r5, r5, ror r4
      80:	6573552f 	ldrbvs	r5, [r3, #-1327]!	; 0xfffffad1
      84:	742f7372 	strtvc	r7, [pc], #-882	; 8c <__code_start__-0x7f74>
      88:	74736972 	ldrbtvc	r6, [r3], #-2418	; 0xfffff68e
      8c:	6f6e6e65 	svcvs	0x006e6e65
      90:	616d6c6c 	cmnvs	sp, ip, ror #24
      94:	6f442f6e 	svcvs	0x00442f6e
      98:	656d7563 	strbvs	r7, [sp, #-1379]!	; 0xfffffa9d
      9c:	2f73746e 	svccs	0x0073746e
      a0:	69727053 	ldmdbvs	r2!, {r0, r1, r4, r6, ip, sp, lr}^
      a4:	515f676e 	cmppl	pc, lr, ror #14
      a8:	74726175 	ldrbtvc	r6, [r2], #-373	; 0xfffffe8b
      ac:	325f7265 	subscc	r7, pc, #1342177286	; 0x50000006
      b0:	2f323230 	svccs	0x00323230
      b4:	34325343 	ldrtcc	r5, [r2], #-835	; 0xfffffcbd
      b8:	2d584c30 	ldclcs	12, cr4, [r8, #-192]	; 0xffffff40
      bc:	32727073 	rsbscc	r7, r2, #115, 0	; 0x73
      c0:	696c2f32 	stmdbvs	ip!, {r1, r4, r5, r8, r9, sl, fp, sp}^
      c4:	2f697062 	svccs	0x00697062
      c8:	6c636e69 	stclvs	14, cr6, [r3], #-420	; 0xfffffe5c
      cc:	00656475 	rsbeq	r6, r5, r5, ror r4
      d0:	616b6300 	cmnvs	fp, r0, lsl #6
      d4:	636f6c6c 	cmnvs	pc, #108, 24	; 0x6c00
      d8:	0100682e 	tsteq	r0, lr, lsr #16
      dc:	61700000 	cmnvs	r0, r0
      e0:	2d327472 	cfldrscs	mvf7, [r2, #-456]!	; 0xfffffe38
      e4:	74736574 	ldrbtvc	r6, [r3], #-1396	; 0xfffffa8c
      e8:	6f6e2d36 	svcvs	0x006e2d36
      ec:	61656c2d 	cmnvs	r5, sp, lsr #24
      f0:	00632e6b 	rsbeq	r2, r3, fp, ror #28
      f4:	73000002 	movwvc	r0, #2
      f8:	6c2d6372 	stcvs	3, cr6, [sp], #-456	; 0xfffffe38
      fc:	682e636f 	stmdavs	lr!, {r0, r1, r2, r3, r5, r6, r8, r9, sp, lr}
     100:	00000100 	andeq	r0, r0, r0, lsl #2
     104:	69647473 	stmdbvs	r4!, {r0, r1, r4, r5, r6, sl, ip, sp, lr}^
     108:	672d746e 	strvs	r7, [sp, -lr, ror #8]!
     10c:	682e6363 	stmdavs	lr!, {r0, r1, r5, r6, r8, r9, sp, lr}
     110:	00000300 	andeq	r0, r0, r0, lsl #6
     114:	2e697072 	mcrcs	0, 3, r7, cr9, cr2, {3}
     118:	00040068 	andeq	r0, r4, r8, rrx
     11c:	24050000 	strcs	r0, [r5], #-0
     120:	38020500 	stmdacc	r2, {r8, sl}
     124:	03000080 	movweq	r0, #128	; 0x80
     128:	05050128 	streq	r0, [r5, #-296]	; 0xfffffed8
     12c:	01051313 	tsteq	r5, r3, lsl r3
     130:	042e1306 	strteq	r1, [lr], #-774	; 0xfffffcfa
     134:	06130502 	ldreq	r0, [r3], -r2, lsl #10
     138:	052e5e03 	streq	r5, [lr, #-3587]!	; 0xfffff1fd
     13c:	03044c05 	movweq	r4, #19461	; 0x4c05
     140:	05010b05 	streq	r0, [r1, #-2821]	; 0xfffff4fb
     144:	0c051305 	stceq	3, cr1, [r5], {5}
     148:	04ba0106 	ldrteq	r0, [sl], #262	; 0x106
     14c:	110f0502 	tstne	pc, r2, lsl #10
     150:	9f060505 	svcls	0x00060505
     154:	062e0601 	strteq	r0, [lr], -r1, lsl #12
     158:	01051382 	smlabbeq	r5, r2, r3, r1
     15c:	05661306 	strbeq	r1, [r6, #-774]!	; 0xfffffcfa
     160:	05000614 	streq	r0, [r0, #-1556]	; 0xfffff9ec
     164:	0080a002 	addeq	sl, r0, r2
     168:	05051400 	streq	r1, [r5, #-1024]	; 0xfffffc00
     16c:	0f054d4b 	svceq	0x00054d4b
     170:	05050106 	streq	r0, [r5, #-262]	; 0xfffffefa
     174:	06014c06 	streq	r4, [r1], -r6, lsl #24
     178:	152e064a 	strne	r0, [lr, #-1610]!	; 0xfffff9b6
     17c:	01060805 	tsteq	r6, r5, lsl #16
     180:	054a0705 	strbeq	r0, [sl, #-1797]	; 0xfffff8fb
     184:	054b0609 	strbeq	r0, [fp, #-1545]	; 0xfffff9f7
     188:	08051405 	stmdaeq	r5, {r0, r2, sl, ip}
     18c:	07050106 	streq	r0, [r5, -r6, lsl #2]
     190:	0609054a 	streq	r0, [r9], -sl, asr #10
     194:	144a014b 	strbne	r0, [sl], #-331	; 0xfffffeb5
     198:	13060105 	movwne	r0, #24837	; 0x6105
     19c:	03060905 	movweq	r0, #26885	; 0x6905
     1a0:	9e014a7a 			; <UNDEFINED> instruction: 0x9e014a7a
     1a4:	02ba0133 	adcseq	r0, sl, #-1073741812	; 0xc000000c
     1a8:	01010010 	tsteq	r1, r0, lsl r0
     1ac:	00000521 	andeq	r0, r0, r1, lsr #10
     1b0:	010b0003 	tsteq	fp, r3
     1b4:	01020000 	mrseq	r0, (UNDEF: 2)
     1b8:	000d0efb 	strdeq	r0, [sp], -fp
     1bc:	01010101 	tsteq	r1, r1, lsl #2
     1c0:	01000000 	mrseq	r0, (UNDEF: 0)
     1c4:	2f010000 	svccs	0x00010000
     1c8:	2f727375 	svccs	0x00727375
     1cc:	61636f6c 	cmnvs	r3, ip, ror #30
     1d0:	65432f6c 	strbvs	r2, [r3, #-3948]	; 0xfffff094
     1d4:	72616c6c 	rsbvc	r6, r1, #108, 24	; 0x6c00
     1d8:	6d72612f 	ldfvse	f6, [r2, #-188]!	; 0xffffff44
     1dc:	6e6f6e2d 	cdpvs	14, 6, cr6, cr15, cr13, {1}
     1e0:	61652d65 	cmnvs	r5, r5, ror #26
     1e4:	742d6962 	strtvc	r6, [sp], #-2402	; 0xfffff69e
     1e8:	2f747365 	svccs	0x00747365
     1ec:	30322d39 	eorscc	r2, r2, r9, lsr sp
     1f0:	34713931 	ldrbtcc	r3, [r1], #-2353	; 0xfffff6cf
     1f4:	3173632d 	cmncc	r3, sp, lsr #6
     1f8:	2f653730 	svccs	0x00653730
     1fc:	2f62696c 	svccs	0x0062696c
     200:	2f636367 	svccs	0x00636367
     204:	2d6d7261 	sfmcs	f7, 2, [sp, #-388]!	; 0xfffffe7c
     208:	656e6f6e 	strbvs	r6, [lr, #-3950]!	; 0xfffff092
     20c:	6261652d 	rsbvs	r6, r1, #188743680	; 0xb400000
     210:	2e392f69 	cdpcs	15, 3, cr2, cr9, cr9, {3}
     214:	2f312e32 	svccs	0x00312e32
     218:	6c636e69 	stclvs	14, cr6, [r3], #-420	; 0xfffffe5c
     21c:	00656475 	rsbeq	r6, r5, r5, ror r4
     220:	6573552f 	ldrbvs	r5, [r3, #-1327]!	; 0xfffffad1
     224:	742f7372 	strtvc	r7, [pc], #-882	; 22c <__code_start__-0x7dd4>
     228:	74736972 	ldrbtvc	r6, [r3], #-2418	; 0xfffff68e
     22c:	6f6e6e65 	svcvs	0x006e6e65
     230:	616d6c6c 	cmnvs	sp, ip, ror #24
     234:	6f442f6e 	svcvs	0x00442f6e
     238:	656d7563 	strbvs	r7, [sp, #-1379]!	; 0xfffffa9d
     23c:	2f73746e 	svccs	0x0073746e
     240:	69727053 	ldmdbvs	r2!, {r0, r1, r4, r6, ip, sp, lr}^
     244:	515f676e 	cmppl	pc, lr, ror #14
     248:	74726175 	ldrbtvc	r6, [r2], #-373	; 0xfffffe8b
     24c:	325f7265 	subscc	r7, pc, #1342177286	; 0x50000006
     250:	2f323230 	svccs	0x00323230
     254:	34325343 	ldrtcc	r5, [r2], #-835	; 0xfffffcbd
     258:	2d584c30 	ldclcs	12, cr4, [r8, #-192]	; 0xffffff40
     25c:	32727073 	rsbscc	r7, r2, #115, 0	; 0x73
     260:	696c2f32 	stmdbvs	ip!, {r1, r4, r5, r8, r9, sl, fp, sp}^
     264:	2f697062 	svccs	0x00697062
     268:	6c636e69 	stclvs	14, cr6, [r3], #-420	; 0xfffffe5c
     26c:	00656475 	rsbeq	r6, r5, r5, ror r4
     270:	616b6300 	cmnvs	fp, r0, lsl #6
     274:	636f6c6c 	cmnvs	pc, #108, 24	; 0x6c00
     278:	0000632e 	andeq	r6, r0, lr, lsr #6
     27c:	6b630000 	blvs	18c0284 <__bss_end__+0x18b53dc>
     280:	6f6c6c61 	svcvs	0x006c6c61
     284:	00682e63 	rsbeq	r2, r8, r3, ror #28
     288:	73000000 	movwvc	r0, #0
     28c:	6e696474 	mcrvs	4, 3, r6, cr9, cr4, {3}
     290:	63672d74 	cmnvs	r7, #116, 26	; 0x1d00
     294:	00682e63 	rsbeq	r2, r8, r3, ror #28
     298:	72000001 	andvc	r0, r0, #1, 0
     29c:	682e6970 	stmdavs	lr!, {r4, r5, r6, r8, fp, sp, lr}
     2a0:	00000200 	andeq	r0, r0, r0, lsl #4
     2a4:	2d637273 	sfmcs	f7, 2, [r3, #-460]!	; 0xfffffe34
     2a8:	2e636f6c 	cdpcs	15, 6, cr6, cr3, cr12, {3}
     2ac:	00000068 	andeq	r0, r0, r8, rrx
     2b0:	2d726b00 	vldmdbcs	r2!, {d22-d21}
     2b4:	6c6c616d 	stfvse	f6, [ip], #-436	; 0xfffffe4c
     2b8:	682e636f 	stmdavs	lr!, {r0, r1, r2, r3, r5, r6, r8, r9, sp, lr}
     2bc:	00000000 	andeq	r0, r0, r0
     2c0:	002d0500 	eoreq	r0, sp, r0, lsl #10
     2c4:	81440205 	cmphi	r4, r5, lsl #4
     2c8:	1d030000 	stcne	0, cr0, [r3, #-0]
     2cc:	13020501 	movwne	r0, #9473	; 0x2501
     2d0:	01061005 	tsteq	r6, r5
     2d4:	054a0505 	strbeq	r0, [sl, #-1285]	; 0xfffffafb
     2d8:	01500603 	cmpeq	r0, r3, lsl #12
     2dc:	02040200 	andeq	r0, r4, #0, 4
     2e0:	0402004a 	streq	r0, [r2], #-74	; 0xffffffb6
     2e4:	02000102 	andeq	r0, r0, #-2147483648	; 0x80000000
     2e8:	00130204 	andseq	r0, r3, r4, lsl #4
     2ec:	13020402 	movwne	r0, #9218	; 0x2402
     2f0:	02000d05 	andeq	r0, r0, #320	; 0x140
     2f4:	01060204 	tsteq	r6, r4, lsl #4
     2f8:	02000305 	andeq	r0, r0, #335544320	; 0x14000000
     2fc:	4b060204 	blmi	180b14 <__bss_end__+0x175c6c>
     300:	02001305 	andeq	r1, r0, #335544320	; 0x14000000
     304:	01060204 	tsteq	r6, r4, lsl #4
     308:	02000305 	andeq	r0, r0, #335544320	; 0x14000000
     30c:	2f060204 	svccs	0x00060204
     310:	02040200 	andeq	r0, r4, #0, 4
     314:	03062e06 	movweq	r2, #28166	; 0x6e06
     318:	0e050178 	mcreq	1, 0, r0, cr5, cr8, {3}
     31c:	03050106 	movweq	r0, #20742	; 0x5106
     320:	0d054b06 	vstreq	d4, [r5, #-24]	; 0xffffffe8
     324:	03050106 	movweq	r0, #20742	; 0x5106
     328:	2d052f06 	stccs	15, cr2, [r5, #-24]	; 0xffffffe8
     32c:	01040200 	mrseq	r0, R12_usr
     330:	03052906 	movweq	r2, #22790	; 0x5906
     334:	01040200 	mrseq	r0, R12_usr
     338:	02005106 	andeq	r5, r0, #-2147483647	; 0x80000001
     33c:	00010104 	andeq	r0, r1, r4, lsl #2
     340:	06010402 	streq	r0, [r1], -r2, lsl #8
     344:	0402009e 	streq	r0, [r2], #-158	; 0xffffff62
     348:	02002e01 	andeq	r2, r0, #1, 28
     34c:	2e060104 	adfcss	f0, f6, f4
     350:	09031b05 	stmdbeq	r3, {r0, r2, r8, r9, fp, ip}
     354:	130505ba 	movwne	r0, #21946	; 0x55ba
     358:	13060105 	movwne	r0, #24837	; 0x6105
     35c:	85061e05 	strhi	r1, [r6, #-3589]	; 0xfffff1fb
     360:	05130505 	ldreq	r0, [r3, #-1285]	; 0xfffffafb
     364:	2e010607 	cfmadd32cs	mvax0, mvfx0, mvfx1, mvfx7
     368:	2f060905 	svccs	0x00060905
     36c:	01061105 	tsteq	r6, r5, lsl #2
     370:	05300105 	ldreq	r0, [r0, #-261]!	; 0xfffffefb
     374:	0531061e 	ldreq	r0, [r1, #-1566]!	; 0xfffff9e2
     378:	01051305 	tsteq	r5, r5, lsl #6
     37c:	052e1306 	streq	r1, [lr, #-774]!	; 0xfffffcfa
     380:	0631061c 			; <UNDEFINED> instruction: 0x0631061c
     384:	06050501 	streq	r0, [r5], -r1, lsl #10
     388:	0614054b 	ldreq	r0, [r4], -fp, asr #10
     38c:	05020401 	streq	r0, [r2, #-1025]	; 0xfffffbff
     390:	76030618 			; <UNDEFINED> instruction: 0x76030618
     394:	1305052e 	movwne	r0, #21806	; 0x552e
     398:	01060d05 	tsteq	r6, r5, lsl #26
     39c:	0501042e 	streq	r0, [r1, #-1070]	; 0xfffffbd2
     3a0:	010a0301 	tsteq	sl, r1, lsl #6
     3a4:	4d062f05 	stcmi	15, cr2, [r6, #-20]	; 0xffffffec
     3a8:	05130205 	ldreq	r0, [r3, #-517]	; 0xfffffdfb
     3ac:	0501061a 	streq	r0, [r1, #-1562]	; 0xfffff9e6
     3b0:	05052e29 	streq	r2, [r5, #-3625]	; 0xfffff1d7
     3b4:	0048054a 	subeq	r0, r8, sl, asr #10
     3b8:	4a010402 	bmi	413c8 <__bss_end__+0x36520>
     3bc:	02003505 	andeq	r3, r0, #20971520	; 0x1400000
     3c0:	052e0104 	streq	r0, [lr, #-260]!	; 0xfffffefc
     3c4:	2e2e4d09 	cdpcs	13, 2, cr4, cr14, cr9, {0}
     3c8:	2c0a052e 	cfstr32cs	mvfx0, [sl], {46}	; 0x2e
     3cc:	05310105 	ldreq	r0, [r1, #-261]!	; 0xfffffefb
     3d0:	06310621 	ldrteq	r0, [r1], -r1, lsr #12
     3d4:	06020501 	streq	r0, [r2], -r1, lsl #10
     3d8:	0106054b 	tsteq	r6, fp, asr #10
     3dc:	01061105 	tsteq	r6, r5, lsl #2
     3e0:	0021052e 	eoreq	r0, r1, lr, lsr #10
     3e4:	06010402 	streq	r0, [r1], -r2, lsl #8
     3e8:	0002052e 	andeq	r0, r2, lr, lsr #10
     3ec:	06010402 	streq	r0, [r1], -r2, lsl #8
     3f0:	06090501 	streq	r0, [r9], -r1, lsl #10
     3f4:	060c054b 	streq	r0, [ip], -fp, asr #10
     3f8:	0b054a01 	bleq	152c04 <__bss_end__+0x147d5c>
     3fc:	0024052e 	eoreq	r0, r4, lr, lsr #10
     400:	06020402 	streq	r0, [r2], -r2, lsl #8
     404:	00280549 	eoreq	r0, r8, r9, asr #10
     408:	06020402 	streq	r0, [r2], -r2, lsl #8
     40c:	04020001 	streq	r0, [r2], #-1
     410:	0d056602 	stceq	6, cr6, [r5, #-8]
     414:	82013006 	andhi	r3, r1, #6, 0
     418:	05010613 	streq	r0, [r1, #-1555]	; 0xfffff9ed
     41c:	25051601 	strcs	r1, [r5, #-1537]	; 0xfffff9ff
     420:	01066806 	tsteq	r6, r6, lsl #16
     424:	4b060505 	blmi	181840 <__bss_end__+0x176998>
     428:	05010905 	streq	r0, [r1, #-2309]	; 0xfffff6fb
     42c:	2e010614 	mcrcs	6, 0, r0, cr1, cr4, {0}
     430:	052e0505 	streq	r0, [lr, #-1285]!	; 0xfffffafb
     434:	04020027 	streq	r0, [r2], #-39	; 0xffffffd9
     438:	052e0602 	streq	r0, [lr, #-1538]!	; 0xfffff9fe
     43c:	0402002b 	streq	r0, [r2], #-43	; 0xffffffd5
     440:	05010602 	streq	r0, [r1, #-1538]	; 0xfffff9fe
     444:	04020024 	streq	r0, [r2], #-36	; 0xffffffdc
     448:	05660601 	strbeq	r0, [r6, #-1537]!	; 0xfffff9ff
     44c:	04020005 	streq	r0, [r2], #-5
     450:	05010601 	streq	r0, [r1, #-1537]	; 0xfffff9ff
     454:	054b0609 	strbeq	r0, [fp, #-1545]	; 0xfffff9f7
     458:	4a01060c 	bmi	41c90 <__bss_end__+0x36de8>
     45c:	052e0b05 	streq	r0, [lr, #-2821]!	; 0xfffff4fb
     460:	04020027 	streq	r0, [r2], #-39	; 0xffffffd9
     464:	23054a01 	movwcs	r4, #23041	; 0x5a01
     468:	01040200 	mrseq	r0, R12_usr
     46c:	060d052e 	streq	r0, [sp], -lr, lsr #10
     470:	1382014b 	orrne	r0, r2, #-1073741806	; 0xc0000012
     474:	01050106 	tsteq	r5, r6, lsl #2
     478:	06370516 			; <UNDEFINED> instruction: 0x06370516
     47c:	05010669 	streq	r0, [r1, #-1641]	; 0xfffff997
     480:	04670602 	strbteq	r0, [r7], #-1538	; 0xfffff9fe
     484:	03180502 	tsteq	r8, #8388608	; 0x800000
     488:	05050162 	streq	r0, [r5, #-354]	; 0xfffffe9e
     48c:	060c0513 			; <UNDEFINED> instruction: 0x060c0513
     490:	042e2e01 	strteq	r2, [lr], #-3585	; 0xfffff1ff
     494:	06020501 	streq	r0, [r2], -r1, lsl #10
     498:	05011e03 	streq	r1, [r1, #-3587]	; 0xfffff1fd
     49c:	66010610 			; <UNDEFINED> instruction: 0x66010610
     4a0:	4b060205 	blmi	180cbc <__bss_end__+0x175e14>
     4a4:	01061005 	tsteq	r6, r5
     4a8:	06020566 	streq	r0, [r2], -r6, ror #10
     4ac:	06220531 			; <UNDEFINED> instruction: 0x06220531
     4b0:	2f010501 	svccs	0x00010501
     4b4:	061e052e 	ldreq	r0, [lr], -lr, lsr #10
     4b8:	1502054d 	strne	r0, [r2, #-1357]	; 0xfffffab3
     4bc:	01060705 	tsteq	r6, r5, lsl #14
     4c0:	052e0505 	streq	r0, [lr, #-1285]!	; 0xfffffafb
     4c4:	17054e10 	smladne	r5, r0, lr, r4
     4c8:	01040200 	mrseq	r0, R12_usr
     4cc:	1c052e06 	stcne	14, cr2, [r5], {6}
     4d0:	01040200 	mrseq	r0, R12_usr
     4d4:	02050106 	andeq	r0, r5, #-2147483647	; 0x80000001
     4d8:	01040200 	mrseq	r0, R12_usr
     4dc:	0603052e 	streq	r0, [r3], -lr, lsr #10
     4e0:	060b054b 	streq	r0, [fp], -fp, asr #10
     4e4:	4a060501 	bmi	1818f0 <__bss_end__+0x176a48>
     4e8:	02002c05 	andeq	r2, r0, #1280	; 0x500
     4ec:	49060204 	stmdbmi	r6, {r2, r9}
     4f0:	02002d05 	andeq	r2, r0, #320	; 0x140
     4f4:	01060204 	tsteq	r6, r4, lsl #4
     4f8:	02040200 	andeq	r0, r4, #0, 4
     4fc:	0402002e 	streq	r0, [r2], #-46	; 0xffffffd2
     500:	09052e02 	stmdbeq	r5, {r1, r9, sl, fp, sp}
     504:	052e2e17 	streq	r2, [lr, #-3607]!	; 0xfffff1e9
     508:	0178030a 	cmneq	r8, sl, lsl #6
     50c:	330b052e 	movwcc	r0, #46382	; 0xb52e
     510:	1601052e 	strne	r0, [r1], -lr, lsr #10
     514:	30061a05 	andcc	r1, r6, r5, lsl #20
     518:	014b0205 	cmpeq	fp, r5, lsl #4
     51c:	1005134a 	andne	r1, r5, sl, asr #6
     520:	02050106 	andeq	r0, r5, #-2147483647	; 0x80000001
     524:	05134b06 	ldreq	r4, [r3, #-2822]	; 0xfffff4fa
     528:	66010619 			; <UNDEFINED> instruction: 0x66010619
     52c:	4b060205 	blmi	180d48 <__bss_end__+0x175ea0>
     530:	060b0513 			; <UNDEFINED> instruction: 0x060b0513
     534:	2f080511 	svccs	0x00080511
     538:	30060405 	andcc	r0, r6, r5, lsl #8
     53c:	05144a01 	ldreq	r4, [r4, #-2561]	; 0xfffff5ff
     540:	2e010608 	cfmadd32cs	mvax0, mvfx0, mvfx1, mvfx8
     544:	31060405 	tstcc	r6, r5, lsl #8
     548:	05134a01 	ldreq	r4, [r3, #-2561]	; 0xfffff5ff
     54c:	05010608 	streq	r0, [r1, #-1544]	; 0xfffff9f8
     550:	05300603 	ldreq	r0, [r0, #-1539]!	; 0xfffff9fd
     554:	0501060a 	streq	r0, [r1, #-1546]	; 0xfffff9f6
     558:	76030608 	strvc	r0, [r3], -r8, lsl #12
     55c:	4b030566 	blmi	c1afc <__bss_end__+0xb6c54>
     560:	01060705 	tsteq	r6, r5, lsl #14
     564:	05660605 	strbeq	r0, [r6, #-1541]!	; 0xfffff9fb
     568:	054f0603 	strbeq	r0, [pc, #-1539]	; ffffff6d <__bss_end__+0xffff50c5>
     56c:	05010607 	streq	r0, [r1, #-1543]	; 0xfffff9f9
     570:	054a4a06 	strbeq	r4, [sl, #-2566]	; 0xfffff5fa
     574:	05350602 	ldreq	r0, [r5, #-1538]!	; 0xfffff9fe
     578:	66130601 	ldrvs	r0, [r3], -r1, lsl #12
     57c:	00062805 	andeq	r2, r6, r5, lsl #16
     580:	84240205 	strthi	r0, [r4], #-517	; 0xfffffdfb
     584:	06160000 	ldreq	r0, [r6], -r0
     588:	05058201 	streq	r8, [r5, #-513]	; 0xfffffdff
     58c:	05132f06 	ldreq	r2, [r3, #-3846]	; 0xfffff0fa
     590:	05010609 	streq	r0, [r1, #-1545]	; 0xfffff9f7
     594:	09052e07 	stmdbeq	r5, {r0, r1, r2, r9, sl, fp, sp}
     598:	05056706 	streq	r6, [r5, #-1798]	; 0xfffff8fa
     59c:	829e0113 	addshi	r0, lr, #-1073741820	; 0xc0000004
     5a0:	02000113 	andeq	r0, r0, #-1073741820	; 0xc0000004
     5a4:	00820204 	addeq	r0, r2, r4, lsl #4
     5a8:	01020402 	tsteq	r2, r2, lsl #8
     5ac:	02040200 	andeq	r0, r4, #0, 4
     5b0:	000e0513 	andeq	r0, lr, r3, lsl r5
     5b4:	06020402 	streq	r0, [r2], -r2, lsl #8
     5b8:	00020501 	andeq	r0, r2, r1, lsl #10
     5bc:	06020402 	streq	r0, [r2], -r2, lsl #8
     5c0:	0402004b 	streq	r0, [r2], #-75	; 0xffffffb5
     5c4:	07051302 	streq	r1, [r5, -r2, lsl #6]
     5c8:	02040200 	andeq	r0, r4, #0, 4
     5cc:	00100501 	andseq	r0, r0, r1, lsl #10
     5d0:	06020402 	streq	r0, [r2], -r2, lsl #8
     5d4:	00170501 	andseq	r0, r7, r1, lsl #10
     5d8:	06010402 	streq	r0, [r1], -r2, lsl #8
     5dc:	0002052e 	andeq	r0, r2, lr, lsr #10
     5e0:	06010402 	streq	r0, [r1], -r2, lsl #8
     5e4:	00030501 	andeq	r0, r3, r1, lsl #10
     5e8:	06030402 	streq	r0, [r3], -r2, lsl #8
     5ec:	0013054b 	andseq	r0, r3, fp, asr #10
     5f0:	06030402 	streq	r0, [r3], -r2, lsl #8
     5f4:	002b0501 	eoreq	r0, fp, r1, lsl #10
     5f8:	06030402 	streq	r0, [r3], -r2, lsl #8
     5fc:	002c0581 	eoreq	r0, ip, r1, lsl #11
     600:	06030402 	streq	r0, [r3], -r2, lsl #8
     604:	04020001 	streq	r0, [r2], #-1
     608:	02002e03 	andeq	r2, r0, #3, 28	; 0x30
     60c:	052e0304 	streq	r0, [lr, #-772]!	; 0xfffffcfc
     610:	010d0609 	tsteq	sp, r9, lsl #12
     614:	05058282 	streq	r8, [r5, #-642]	; 0xfffffd7e
     618:	01040200 	mrseq	r0, R12_usr
     61c:	04020030 	streq	r0, [r2], #-48	; 0xffffffd0
     620:	02000101 	andeq	r0, r0, #1073741824	; 0x40000000
     624:	05d60104 	ldrbeq	r0, [r6, #260]	; 0x104
     628:	06053502 	streq	r3, [r5], -r2, lsl #10
     62c:	05050106 	streq	r0, [r5, #-262]	; 0xfffffefa
     630:	06030566 	streq	r0, [r3], -r6, ror #10
     634:	1302054b 	movwne	r0, #9547	; 0x254b
     638:	01840505 	orreq	r0, r4, r5, lsl #10
     63c:	84060105 	strhi	r0, [r6], #-261	; 0xfffffefb
     640:	45060305 	strmi	r0, [r6, #-773]	; 0xfffffcfb
     644:	0505f201 	streq	pc, [r5, #-513]	; 0xfffffdff
     648:	01040200 	mrseq	r0, R12_usr
     64c:	04020031 	streq	r0, [r2], #-49	; 0xffffffcf
     650:	02000101 	andeq	r0, r0, #1073741824	; 0x40000000
     654:	05d60104 	ldrbeq	r0, [r6, #260]	; 0x104
     658:	065f082f 	ldrbeq	r0, [pc], -pc, lsr #16
     65c:	06050501 	streq	r0, [r5], -r1, lsl #10
     660:	061005a0 	ldreq	r0, [r0], -r0, lsr #11
     664:	02052e01 	andeq	r2, r5, #1, 28
     668:	05674b06 	strbeq	r4, [r7, #-2822]!	; 0xfffff4fa
     66c:	15058505 	strne	r8, [r5, #-1285]	; 0xfffffafb
     670:	05050106 	streq	r0, [r5, #-262]	; 0xfffffefa
     674:	0e052f06 	cdpeq	15, 0, cr2, cr5, cr6, {0}
     678:	05050106 	streq	r0, [r5, #-262]	; 0xfffffefa
     67c:	12054b06 	andne	r4, r5, #6144	; 0x1800
     680:	02050106 	andeq	r0, r5, #-2147483647	; 0x80000001
     684:	0a056706 	beq	15a2a4 <__bss_end__+0x14f3fc>
     688:	02050106 	andeq	r0, r5, #-2147483647	; 0x80000001
     68c:	0b054b06 	bleq	1532ac <__bss_end__+0x148404>
     690:	02050106 	andeq	r0, r5, #-2147483647	; 0x80000001
     694:	02043006 	andeq	r3, r4, #6, 0
     698:	8e031805 	cdphi	8, 0, cr1, cr3, cr5, {0}
     69c:	0505017f 	streq	r0, [r5, #-383]	; 0xfffffe81
     6a0:	060c0513 			; <UNDEFINED> instruction: 0x060c0513
     6a4:	01044a01 	tsteq	r4, r1, lsl #20
     6a8:	f1030205 			; <UNDEFINED> instruction: 0xf1030205
     6ac:	69060100 	stmdbvs	r6, {r8}
     6b0:	01060e05 	tsteq	r6, r5, lsl #28
     6b4:	67060205 	strvs	r0, [r6, -r5, lsl #4]
     6b8:	01060f05 	tsteq	r6, r5, lsl #30
     6bc:	4c060505 	cfstr32mi	mvfx0, [r6], {5}
     6c0:	059e9e01 	ldreq	r9, [lr, #3585]	; 0xe01
     6c4:	05841402 	streq	r1, [r4, #1026]	; 0x402
     6c8:	66140601 	ldrvs	r0, [r4], -r1, lsl #12
     6cc:	01000802 	tsteq	r0, r2, lsl #16
     6d0:	00060c01 	andeq	r0, r6, r1, lsl #24
     6d4:	fa000300 	blx	12dc <__code_start__-0x6d24>
     6d8:	02000000 	andeq	r0, r0, #0, 0
     6dc:	0d0efb01 	vstreq	d15, [lr, #-4]
     6e0:	01010100 	mrseq	r0, (UNDEF: 17)
     6e4:	00000001 	andeq	r0, r0, r1
     6e8:	01000001 	tsteq	r0, r1
     6ec:	7273752f 	rsbsvc	r7, r3, #197132288	; 0xbc00000
     6f0:	636f6c2f 	cmnvs	pc, #12032	; 0x2f00
     6f4:	432f6c61 			; <UNDEFINED> instruction: 0x432f6c61
     6f8:	616c6c65 	cmnvs	ip, r5, ror #24
     6fc:	72612f72 	rsbvc	r2, r1, #456	; 0x1c8
     700:	6f6e2d6d 	svcvs	0x006e2d6d
     704:	652d656e 	strvs	r6, [sp, #-1390]!	; 0xfffffa92
     708:	2d696261 	sfmcs	f6, 2, [r9, #-388]!	; 0xfffffe7c
     70c:	74736574 	ldrbtvc	r6, [r3], #-1396	; 0xfffffa8c
     710:	322d392f 	eorcc	r3, sp, #770048	; 0xbc000
     714:	71393130 	teqvc	r9, r0, lsr r1
     718:	73632d34 	cmnvc	r3, #52, 26	; 0xd00
     71c:	65373031 	ldrvs	r3, [r7, #-49]!	; 0xffffffcf
     720:	62696c2f 	rsbvs	r6, r9, #12032	; 0x2f00
     724:	6363672f 	cmnvs	r3, #12320768	; 0xbc0000
     728:	6d72612f 	ldfvse	f6, [r2, #-188]!	; 0xffffff44
     72c:	6e6f6e2d 	cdpvs	14, 6, cr6, cr15, cr13, {1}
     730:	61652d65 	cmnvs	r5, r5, ror #26
     734:	392f6962 	stmdbcc	pc!, {r1, r5, r6, r8, fp, sp, lr}	; <UNPREDICTABLE>
     738:	312e322e 			; <UNDEFINED> instruction: 0x312e322e
     73c:	636e692f 	cmnvs	lr, #770048	; 0xbc000
     740:	6564756c 	strbvs	r7, [r4, #-1388]!	; 0xfffffa94
     744:	73552f00 	cmpvc	r5, #0, 30
     748:	2f737265 	svccs	0x00737265
     74c:	73697274 	cmnvc	r9, #116, 4	; 0x40000007
     750:	6e6e6574 	mcrvs	5, 3, r6, cr14, cr4, {3}
     754:	6d6c6c6f 	stclvs	12, cr6, [ip, #-444]!	; 0xfffffe44
     758:	442f6e61 	strtmi	r6, [pc], #-3681	; 760 <__code_start__-0x78a0>
     75c:	6d75636f 	ldclvs	3, cr6, [r5, #-444]!	; 0xfffffe44
     760:	73746e65 	cmnvc	r4, #1616	; 0x650
     764:	7270532f 	rsbsvc	r5, r0, #-1140850688	; 0xbc000000
     768:	5f676e69 	svcpl	0x00676e69
     76c:	72617551 	rsbvc	r7, r1, #339738624	; 0x14400000
     770:	5f726574 	svcpl	0x00726574
     774:	32323032 	eorscc	r3, r2, #50, 0	; 0x32
     778:	3253432f 	subscc	r4, r3, #-1140850688	; 0xbc000000
     77c:	584c3034 	stmdapl	ip, {r2, r4, r5, ip, sp}^
     780:	7270732d 	rsbsvc	r7, r0, #-1275068416	; 0xb4000000
     784:	6c2f3232 	sfmvs	f3, 4, [pc], #-200	; 6c4 <__code_start__-0x793c>
     788:	69706269 	ldmdbvs	r0!, {r0, r3, r5, r6, r9, sp, lr}^
     78c:	636e692f 	cmnvs	lr, #770048	; 0xbc000
     790:	6564756c 	strbvs	r7, [r4, #-1388]!	; 0xfffffa94
     794:	6b630000 	blvs	18c079c <__bss_end__+0x18b58f4>
     798:	2e63672d 	cdpcs	7, 6, cr6, cr3, cr13, {1}
     79c:	00000063 	andeq	r0, r0, r3, rrx
     7a0:	64747300 	ldrbtvs	r7, [r4], #-768	; 0xfffffd00
     7a4:	2d746e69 	ldclcs	14, cr6, [r4, #-420]!	; 0xfffffe5c
     7a8:	2e636367 	cdpcs	3, 6, cr6, cr3, cr7, {3}
     7ac:	00010068 	andeq	r0, r1, r8, rrx
     7b0:	69707200 	ldmdbvs	r0!, {r9, ip, sp, lr}^
     7b4:	0200682e 	andeq	r6, r0, #3014656	; 0x2e0000
     7b8:	72730000 	rsbsvc	r0, r3, #0, 0
     7bc:	6f6c2d63 	svcvs	0x006c2d63
     7c0:	00682e63 	rsbeq	r2, r8, r3, ror #28
     7c4:	63000000 	movwvs	r0, #0
     7c8:	6c6c616b 	stfvse	f6, [ip], #-428	; 0xfffffe54
     7cc:	682e636f 	stmdavs	lr!, {r0, r1, r2, r3, r5, r6, r8, r9, sp, lr}
     7d0:	00000000 	andeq	r0, r0, r0
     7d4:	001d0500 	andseq	r0, sp, r0, lsl #10
     7d8:	86700205 	ldrbthi	r0, [r0], -r5, lsl #4
     7dc:	25030000 	strcs	r0, [r3, #-0]
     7e0:	14050501 	strne	r0, [r5], #-1281	; 0xfffffaff
     7e4:	01060a05 	tsteq	r6, r5, lsl #20
     7e8:	054a0705 	strbeq	r0, [sl, #-1797]	; 0xfffff8fb
     7ec:	0402001c 	streq	r0, [r2], #-28	; 0xffffffe4
     7f0:	17054a01 	strne	r4, [r5, -r1, lsl #20]
     7f4:	01040200 	mrseq	r0, R12_usr
     7f8:	4d0c054a 	cfstr32mi	mvfx0, [ip, #-296]	; 0xfffffed8
     7fc:	2c10052e 	cfldr32cs	mvfx0, [r0], {46}	; 0x2e
     800:	01052e2e 	tsteq	r5, lr, lsr #28
     804:	06350531 			; <UNDEFINED> instruction: 0x06350531
     808:	4a00c203 	bmi	3101c <__bss_end__+0x26174>
     80c:	02050106 	andeq	r0, r5, #-2147483647	; 0x80000001
     810:	06134b06 	ldreq	r4, [r3], -r6, lsl #22
     814:	4d2f062e 	stcmi	6, cr0, [pc, #-184]!	; 764 <__code_start__-0x789c>
     818:	01061005 	tsteq	r6, r5
     81c:	4b060205 	blmi	181038 <__bss_end__+0x176190>
     820:	03062405 	movweq	r2, #25605	; 0x6405
     824:	1805017a 	stmdane	r5, {r1, r3, r4, r5, r6, r8}
     828:	2e0b052e 	cfsh32cs	mvfx0, mvfx11, #30
     82c:	05340805 	ldreq	r0, [r4, #-2053]!	; 0xfffff7fb
     830:	03053127 	movweq	r3, #20775	; 0x5127
     834:	06040200 	streq	r0, [r4], -r0, lsl #4
     838:	06052f06 	streq	r2, [r5], -r6, lsl #30
     83c:	06040200 	streq	r0, [r4], -r0, lsl #4
     840:	0a050106 	beq	140c60 <__bss_end__+0x135db8>
     844:	0d055006 	stceq	0, cr5, [r5, #-24]	; 0xffffffe8
     848:	0a050106 	beq	140c68 <__bss_end__+0x135dc0>
     84c:	4a090306 	bmi	24146c <__bss_end__+0x2365c4>
     850:	01060d05 	tsteq	r6, r5, lsl #26
     854:	02002a05 	andeq	r2, r0, #20480	; 0x5000
     858:	054a0104 	strbeq	r0, [sl, #-260]	; 0xfffffefc
     85c:	04020023 	streq	r0, [r2], #-35	; 0xffffffdd
     860:	38052e01 	stmdacc	r5, {r0, r9, sl, fp, sp}
     864:	02040200 	andeq	r0, r4, #0, 4
     868:	0604054a 	streq	r0, [r4], -sl, asr #10
     86c:	2e06014d 	adfcssm	f0, f6, #5.0
     870:	132e062e 			; <UNDEFINED> instruction: 0x132e062e
     874:	01061005 	tsteq	r6, r5
     878:	0327052e 			; <UNDEFINED> instruction: 0x0327052e
     87c:	052e2e6c 	streq	r2, [lr, #-3692]!	; 0xfffff194
     880:	04020016 	streq	r0, [r2], #-22	; 0xffffffea
     884:	0f052f01 	svceq	0x00052f01
     888:	01040200 	mrseq	r0, R12_usr
     88c:	0604052e 	streq	r0, [r4], -lr, lsr #10
     890:	2e06014b 	adfcssm	f0, f6, #3.0
     894:	2e062e2e 	cdpcs	14, 0, cr2, cr6, cr14, {1}
     898:	06110515 			; <UNDEFINED> instruction: 0x06110515
     89c:	06040501 	streq	r0, [r4], -r1, lsl #10
     8a0:	060a054b 	streq	r0, [sl], -fp, asr #10
     8a4:	04052e01 	streq	r2, [r5], #-3585	; 0xfffff1ff
     8a8:	06013006 	streq	r3, [r1], -r6
     8ac:	062e2e2e 	strteq	r2, [lr], -lr, lsr #28
     8b0:	1005142e 	andne	r1, r5, lr, lsr #8
     8b4:	03050106 	movweq	r0, #20742	; 0x5106
     8b8:	2e0c0306 	cdpcs	3, 0, cr0, cr12, cr6, {0}
     8bc:	05139e01 	ldreq	r9, [r3, #-3585]	; 0xfffff1ff
     8c0:	6601060a 	strvs	r0, [r1], -sl, lsl #12
     8c4:	03060805 	movweq	r0, #26629	; 0x6805
     8c8:	03050166 	movweq	r0, #20838	; 0x5166
     8cc:	060a054b 	streq	r0, [sl], -fp, asr #10
     8d0:	06030501 	streq	r0, [r3], -r1, lsl #10
     8d4:	061a052f 	ldreq	r0, [sl], -pc, lsr #10
     8d8:	2e220501 	cfsh64cs	mvdx0, mvdx2, #1
     8dc:	67060305 	strvs	r0, [r6, -r5, lsl #6]
     8e0:	01061905 	tsteq	r6, r5, lsl #18
     8e4:	002e2705 	eoreq	r2, lr, r5, lsl #14
     8e8:	4a010402 	bmi	418f8 <__bss_end__+0x36a50>
     8ec:	052e2e4a 	streq	r2, [lr, #-3658]!	; 0xfffff1b6
     8f0:	1b030602 	blne	c2100 <__bss_end__+0xb7258>
     8f4:	4a060101 	bmi	180d00 <__bss_end__+0x175e58>
     8f8:	05132e06 	ldreq	r2, [r3, #-3590]	; 0xfffff1fa
     8fc:	05010604 	streq	r0, [r1, #-1540]	; 0xfffff9fc
     900:	014b0603 	cmpeq	fp, r3, lsl #12
     904:	0402004a 	streq	r0, [r2], #-74	; 0xffffffb6
     908:	02051401 	andeq	r1, r5, #16777216	; 0x1000000
     90c:	01040200 	mrseq	r0, R12_usr
     910:	04020014 	streq	r0, [r2], #-20	; 0xffffffec
     914:	01054b01 	tsteq	r5, r1, lsl #22
     918:	01040200 	mrseq	r0, R12_usr
     91c:	03051306 	movweq	r1, #21254	; 0x5306
     920:	05014606 	streq	r4, [r1, #-1542]	; 0xfffff9fa
     924:	00d80322 	sbcseq	r0, r8, r2, lsr #6
     928:	0205c808 	andeq	ip, r5, #8, 16	; 0x80000
     92c:	4c4b132f 	mcrrmi	3, 2, r1, fp, cr15
     930:	01061005 	tsteq	r6, r5
     934:	4b060205 	blmi	181150 <__bss_end__+0x1762a8>
     938:	0d062205 	sfmeq	f2, 4, [r6, #-20]	; 0xffffffec
     93c:	052e1805 	streq	r1, [lr, #-2053]!	; 0xfffff7fb
     940:	08052e0b 	stmdaeq	r5, {r0, r1, r3, r9, sl, fp, sp}
     944:	06040533 			; <UNDEFINED> instruction: 0x06040533
     948:	06100532 			; <UNDEFINED> instruction: 0x06100532
     94c:	06040501 	streq	r0, [r4], -r1, lsl #10
     950:	060a054b 	streq	r0, [sl], -fp, asr #10
     954:	06040501 	streq	r0, [r4], -r1, lsl #10
     958:	0618052f 	ldreq	r0, [r8], -pc, lsr #10
     95c:	2e110501 	cfmul32cs	mvfx0, mvfx1, mvfx1
     960:	2f060405 	svccs	0x00060405
     964:	00660601 	rsbeq	r0, r6, r1, lsl #12
     968:	06010402 	streq	r0, [r1], -r2, lsl #8
     96c:	0003052e 	andeq	r0, r3, lr, lsr #10
     970:	14010402 	strne	r0, [r1], #-1026	; 0xfffffbfe
     974:	02000a05 	andeq	r0, r0, #20480	; 0x5000
     978:	01060104 	tsteq	r6, r4, lsl #2
     97c:	03060805 	movweq	r0, #26629	; 0x6805
     980:	03056677 	movweq	r6, #22135	; 0x5677
     984:	060a054b 	streq	r0, [sl], -fp, asr #10
     988:	06030501 	streq	r0, [r3], -r1, lsl #10
     98c:	060b052f 	streq	r0, [fp], -pc, lsr #10
     990:	2e060501 	cfsh32cs	mvfx0, mvfx6, #1
     994:	02002505 	andeq	r2, r0, #20971520	; 0x1400000
     998:	054a0104 	strbeq	r0, [sl, #-260]	; 0xfffffefc
     99c:	0402001e 	streq	r0, [r2], #-30	; 0xffffffe2
     9a0:	02052e01 	andeq	r2, r5, #1, 28
     9a4:	660a0306 	strvs	r0, [sl], -r6, lsl #6
     9a8:	06820601 	streq	r0, [r2], r1, lsl #12
     9ac:	1405052e 	strne	r0, [r5], #-1326	; 0xfffffad2
     9b0:	13060105 	movwne	r0, #24837	; 0x6105
     9b4:	03062505 	movweq	r2, #25861	; 0x6505
     9b8:	06ba7eb2 			; <UNDEFINED> instruction: 0x06ba7eb2
     9bc:	06050501 	streq	r0, [r5], -r1, lsl #10
     9c0:	0905144b 	stmdbeq	r5, {r0, r1, r3, r6, sl, ip}
     9c4:	07050106 	streq	r0, [r5, -r6, lsl #2]
     9c8:	0605052e 	streq	r0, [r5], -lr, lsr #10
     9cc:	060c054c 	streq	r0, [ip], -ip, asr #10
     9d0:	65100501 	ldrvs	r0, [r0, #-1281]	; 0xfffffaff
     9d4:	05300105 	ldreq	r0, [r0, #-261]!	; 0xfffffefb
     9d8:	0d03062c 	stceq	6, cr0, [r3, #-176]	; 0xffffff50
     9dc:	0501062e 	streq	r0, [r1, #-1582]	; 0xfffff9d2
     9e0:	014b0605 	cmpeq	fp, r5, lsl #12
     9e4:	02040200 	andeq	r0, r4, #0, 4
     9e8:	04020066 	streq	r0, [r2], #-102	; 0xffffff9a
     9ec:	02000102 	andeq	r0, r0, #-2147483648	; 0x80000000
     9f0:	00140204 	andseq	r0, r4, r4, lsl #4
     9f4:	01020402 	tsteq	r2, r2, lsl #8
     9f8:	02040200 	andeq	r0, r4, #0, 4
     9fc:	0402004a 	streq	r0, [r2], #-74	; 0xffffffb6
     a00:	02000102 	andeq	r0, r0, #-2147483648	; 0x80000000
     a04:	00130204 	andseq	r0, r3, r4, lsl #4
     a08:	01020402 	tsteq	r2, r2, lsl #8
     a0c:	02040200 	andeq	r0, r4, #0, 4
     a10:	0402004a 	streq	r0, [r2], #-74	; 0xffffffb6
     a14:	02050102 	andeq	r0, r5, #-2147483648	; 0x80000000
     a18:	02040200 	andeq	r0, r4, #0, 4
     a1c:	001f0514 	andseq	r0, pc, r4, lsl r5	; <UNPREDICTABLE>
     a20:	06020402 	streq	r0, [r2], -r2, lsl #8
     a24:	00110501 	andseq	r0, r1, r1, lsl #10
     a28:	2e020402 	cdpcs	4, 0, cr0, cr2, cr2, {0}
     a2c:	02000205 	andeq	r0, r0, #1342177280	; 0x50000000
     a30:	2f060204 	svccs	0x00060204
     a34:	02000705 	andeq	r0, r0, #1310720	; 0x140000
     a38:	05010204 	streq	r0, [r1, #-516]	; 0xfffffdfc
     a3c:	04020002 	streq	r0, [r2], #-2
     a40:	00010602 	andeq	r0, r1, r2, lsl #12
     a44:	2e020402 	cdpcs	4, 0, cr0, cr2, cr2, {0}
     a48:	02000505 	andeq	r0, r0, #20971520	; 0x1400000
     a4c:	03060104 	movweq	r0, #24836	; 0x6104
     a50:	0200017a 	andeq	r0, r0, #-2147483618	; 0x8000001e
     a54:	00010104 	andeq	r0, r1, r4, lsl #2
     a58:	06010402 	streq	r0, [r1], -r2, lsl #8
     a5c:	0402009e 	streq	r0, [r2], #-158	; 0xffffff62
     a60:	02002e01 	andeq	r2, r0, #1, 28
     a64:	2e060104 	adfcss	f0, f6, f4
     a68:	01040200 	mrseq	r0, R12_usr
     a6c:	04020030 	streq	r0, [r2], #-48	; 0xffffffd0
     a70:	02000101 	andeq	r0, r0, #1073741824	; 0x40000000
     a74:	9e060104 	adflss	f0, f6, f4
     a78:	01040200 	mrseq	r0, R12_usr
     a7c:	0402002e 	streq	r0, [r2], #-46	; 0xffffffd2
     a80:	002e0601 	eoreq	r0, lr, r1, lsl #12
     a84:	2f010402 	svccs	0x00010402
     a88:	01040200 	mrseq	r0, R12_usr
     a8c:	04020001 	streq	r0, [r2], #-1
     a90:	009e0601 	addseq	r0, lr, r1, lsl #12
     a94:	2e010402 	cdpcs	4, 0, cr0, cr1, cr2, {0}
     a98:	01040200 	mrseq	r0, R12_usr
     a9c:	0c032e06 	stceq	14, cr2, [r3], {6}
     aa0:	060e052e 	streq	r0, [lr], -lr, lsr #10
     aa4:	2e1a0501 	cfmul32cs	mvfx0, mvfx10, mvfx1
     aa8:	03060405 	movweq	r0, #25605	; 0x6405
     aac:	05134a0a 	ldreq	r4, [r3, #-2570]	; 0xfffff5f6
     ab0:	05010644 	streq	r0, [r1, #-1604]	; 0xfffff9bc
     ab4:	062f0604 	strteq	r0, [pc], -r4, lsl #12
     ab8:	26052e2e 	strcs	r2, [r5], -lr, lsr #28
     abc:	02040200 	andeq	r0, r4, #0, 4
     ac0:	016b0306 	cmneq	fp, r6, lsl #6
     ac4:	02002705 	andeq	r2, r0, #1310720	; 0x140000
     ac8:	01060204 	tsteq	r6, r4, lsl #4
     acc:	02001705 	andeq	r1, r0, #1310720	; 0x140000
     ad0:	2e060104 	adfcss	f0, f6, f4
     ad4:	02000205 	andeq	r0, r0, #1342177280	; 0x50000000
     ad8:	01060104 	tsteq	r6, r4, lsl #2
     adc:	4b060305 	blmi	1816f8 <__bss_end__+0x176850>
     ae0:	01061e05 	tsteq	r6, r5, lsl #28
     ae4:	052e1605 	streq	r1, [lr, #-1541]!	; 0xfffff9fb
     ae8:	054b0603 	strbeq	r0, [fp, #-1539]	; 0xfffff9fd
     aec:	05010606 	streq	r0, [r1, #-1542]	; 0xfffff9fa
     af0:	0402001e 	streq	r0, [r2], #-30	; 0xffffffe2
     af4:	11054a01 	tstne	r5, r1, lsl #20
     af8:	01040200 	mrseq	r0, R12_usr
     afc:	0604052e 	streq	r0, [r4], -lr, lsr #10
     b00:	0614054c 	ldreq	r0, [r4], -ip, asr #10
     b04:	06040501 	streq	r0, [r4], -r1, lsl #10
     b08:	0619054d 	ldreq	r0, [r9], -sp, asr #10
     b0c:	2e340501 	cdpcs	5, 3, cr0, cr4, cr1, {0}
     b10:	052e0705 	streq	r0, [lr, #-1797]!	; 0xfffff8fb
     b14:	054d060b 	strbeq	r0, [sp, #-1547]	; 0xfffff9f5
     b18:	05010630 	streq	r0, [r1, #-1584]	; 0xfffff9d0
     b1c:	9f052e0e 	svcls	0x00052e0e
     b20:	04020001 	streq	r0, [r2], #-1
     b24:	94054a01 	strls	r4, [r5], #-2561	; 0xfffff5ff
     b28:	04020001 	streq	r0, [r2], #-1
     b2c:	4f052e01 	svcmi	0x00052e01
     b30:	01040200 	mrseq	r0, R12_usr
     b34:	0605054a 	streq	r0, [r5], -sl, asr #10
     b38:	060e0530 			; <UNDEFINED> instruction: 0x060e0530
     b3c:	2e1b0501 	cfmul32cs	mvfx0, mvfx11, mvfx1
     b40:	03010566 	movweq	r0, #5478	; 0x1566
     b44:	054a010c 	strbeq	r0, [sl, #-268]	; 0xfffffef4
     b48:	0500061c 	streq	r0, [r0, #-1564]	; 0xfffff9e4
     b4c:	008a3802 	addeq	r3, sl, r2, lsl #16
     b50:	013b0300 	teqeq	fp, r0, lsl #6
     b54:	054e0505 	strbeq	r0, [lr, #-1285]	; 0xfffffafb
     b58:	14050109 	strne	r0, [r5], #-265	; 0xfffffef7
     b5c:	24050106 	strcs	r0, [r5], #-262	; 0xfffffefa
     b60:	01040200 	mrseq	r0, R12_usr
     b64:	05052e06 	streq	r2, [r5, #-3590]	; 0xfffff1fa
     b68:	01040200 	mrseq	r0, R12_usr
     b6c:	09050106 	stmdbeq	r5, {r1, r2, r8}
     b70:	03040200 	movweq	r0, #16896	; 0x4200
     b74:	32054b06 	andcc	r4, r5, #6144	; 0x1800
     b78:	03040200 	movweq	r0, #16896	; 0x4200
     b7c:	21050106 	tstcs	r5, r6, lsl #2
     b80:	03040200 	movweq	r0, #16896	; 0x4200
     b84:	0011054a 	andseq	r0, r1, sl, asr #10
     b88:	2e030402 	cdpcs	4, 0, cr0, cr3, cr2, {0}
     b8c:	02002705 	andeq	r2, r0, #1310720	; 0x140000
     b90:	2d060304 	stccs	3, cr0, [r6, #-16]
     b94:	02002b05 	andeq	r2, r0, #5120	; 0x1400
     b98:	01060304 	tsteq	r6, r4, lsl #6
     b9c:	03040200 	movweq	r0, #16896	; 0x4200
     ba0:	0402002e 	streq	r0, [r2], #-46	; 0xffffffd2
     ba4:	05052e03 	streq	r2, [r5, #-3587]	; 0xfffff1fd
     ba8:	06131806 	ldreq	r1, [r3], -r6, lsl #16
     bac:	0531062e 	ldreq	r0, [r1, #-1582]!	; 0xfffff9d2
     bb0:	0501060d 	streq	r0, [r1, #-1549]	; 0xfffff9f3
     bb4:	054b0605 	strbeq	r0, [fp, #-1541]	; 0xfffff9fb
     bb8:	0501060d 	streq	r0, [r1, #-1549]	; 0xfffff9f3
     bbc:	052f0605 	streq	r0, [pc, #-1541]!	; 5bf <__code_start__-0x7a41>
     bc0:	0501060d 	streq	r0, [r1, #-1549]	; 0xfffff9f3
     bc4:	052f0605 	streq	r0, [pc, #-1541]!	; 5c7 <__code_start__-0x7a39>
     bc8:	0501060d 	streq	r0, [r1, #-1549]	; 0xfffff9f3
     bcc:	68300605 	ldmdavs	r0!, {r0, r2, r9, sl}
     bd0:	18010101 	stmdane	r1, {r0, r8}
     bd4:	05130205 	ldreq	r0, [r3, #-517]	; 0xfffffdfb
     bd8:	68136905 	ldmdavs	r3, {r0, r2, r8, fp, sp, lr}
     bdc:	06010513 			; <UNDEFINED> instruction: 0x06010513
     be0:	061c0567 	ldreq	r0, [ip], -r7, ror #10
     be4:	ba7ecc03 	blt	1fb3bf8 <__bss_end__+0x1fa8d50>
     be8:	02050106 	andeq	r0, r5, #-2147483647	; 0x80000001
     bec:	06016706 	streq	r6, [r1], -r6, lsl #14
     bf0:	052e062e 	streq	r0, [lr, #-1582]!	; 0xfffff9d2
     bf4:	00011305 	andeq	r1, r1, r5, lsl #6
     bf8:	4a020402 	bmi	81c08 <__bss_end__+0x76d60>
     bfc:	02040200 	andeq	r0, r4, #0, 4
     c00:	04020001 	streq	r0, [r2], #-1
     c04:	08051302 	stmdaeq	r5, {r1, r8, r9, ip}
     c08:	02040200 	andeq	r0, r4, #0, 4
     c0c:	07050106 	streq	r0, [r5, -r6, lsl #2]
     c10:	02040200 	andeq	r0, r4, #0, 4
     c14:	0605054a 	streq	r0, [r5], -sl, asr #10
     c18:	060c0551 			; <UNDEFINED> instruction: 0x060c0551
     c1c:	4b010501 	blmi	42028 <__bss_end__+0x37180>
     c20:	02000505 	andeq	r0, r0, #20971520	; 0x1400000
     c24:	03060104 	movweq	r0, #24836	; 0x6104
     c28:	02004a77 	andeq	r4, r0, #487424	; 0x77000
     c2c:	00010104 	andeq	r0, r1, r4, lsl #2
     c30:	d6010402 	strle	r0, [r1], -r2, lsl #8
     c34:	13300905 	teqne	r0, #81920	; 0x14000
     c38:	01061405 	tsteq	r6, r5, lsl #8
     c3c:	67060905 	strvs	r0, [r6, -r5, lsl #18]
     c40:	01061205 	tsteq	r6, r5, lsl #4
     c44:	4b060905 	blmi	183060 <__bss_end__+0x1781b8>
     c48:	0610054b 	ldreq	r0, [r0], -fp, asr #10
     c4c:	06310501 	ldrteq	r0, [r1], -r1, lsl #10
     c50:	0801b003 	stmdaeq	r1, {r0, r1, ip, sp, pc}
     c54:	05010620 	streq	r0, [r1, #-1568]	; 0xfffff9e0
     c58:	014b0602 	cmpeq	fp, r2, lsl #12
     c5c:	2e062e06 	cdpcs	14, 0, cr2, cr6, cr6, {0}
     c60:	05130505 	ldreq	r0, [r3, #-1285]	; 0xfffffafb
     c64:	05052f02 	streq	r2, [r5, #-3842]	; 0xfffff0fe
     c68:	060c054b 	streq	r0, [ip], -fp, asr #10
     c6c:	4b010501 	blmi	42078 <__bss_end__+0x371d0>
     c70:	69061a05 	stmdbvs	r6, {r0, r2, r9, fp, ip}
     c74:	13320505 	teqne	r2, #20971520	; 0x1400000
     c78:	01060805 	tsteq	r6, r5, lsl #16
     c7c:	054a0705 	strbeq	r0, [sl, #-1797]	; 0xfffff8fb
     c80:	144b0609 	strbne	r0, [fp], #-1545	; 0xfffff9f7
     c84:	05054a01 	streq	r4, [r5, #-2561]	; 0xfffff5ff
     c88:	06010513 			; <UNDEFINED> instruction: 0x06010513
     c8c:	06090513 			; <UNDEFINED> instruction: 0x06090513
     c90:	059e012a 	ldreq	r0, [lr, #298]	; 0x12a
     c94:	0505a522 	streq	sl, [r5, #-1314]	; 0xfffffade
     c98:	17051332 	smladxne	r5, r2, r3, r1
     c9c:	05050106 	streq	r0, [r5, #-262]	; 0xfffffefa
     ca0:	07054b06 	streq	r4, [r5, -r6, lsl #22]
     ca4:	09050106 	stmdbeq	r5, {r1, r2, r8}
     ca8:	01144b06 	tsteq	r4, r6, lsl #22
     cac:	2e064a06 	vmlacs.f32	s8, s12, s12
     cb0:	13130505 	tstne	r3, #20971520	; 0x1400000
     cb4:	13060105 	movwne	r0, #24837	; 0x6105
     cb8:	45060905 	strmi	r0, [r6, #-2309]	; 0xfffff6fb
     cbc:	16059e01 	strne	r9, [r5], -r1, lsl #28
     cc0:	059e1f03 	ldreq	r1, [lr, #3843]	; 0xf03
     cc4:	052f2f05 	streq	r2, [pc, #-3845]!	; fffffdc7 <__bss_end__+0xffff4f1f>
     cc8:	05010617 	streq	r0, [r1, #-1559]	; 0xfffff9e9
     ccc:	05320605 	ldreq	r0, [r2, #-1541]!	; 0xfffff9fb
     cd0:	05130601 	ldreq	r0, [r3, #-1537]	; 0xfffff9ff
     cd4:	0530061b 	ldreq	r0, [r0, #-1563]!	; 0xfffff9e5
     cd8:	9e012f05 	cdpls	15, 0, cr2, cr1, cr5, {0}
     cdc:	01000802 	tsteq	r0, r2, lsl #16
     ce0:	00025201 	andeq	r5, r2, r1, lsl #4
     ce4:	8a000300 	bhi	18ec <__code_start__-0x6714>
     ce8:	02000000 	andeq	r0, r0, #0, 0
     cec:	0d0efb01 	vstreq	d15, [lr, #-4]
     cf0:	01010100 	mrseq	r0, (UNDEF: 17)
     cf4:	00000001 	andeq	r0, r0, r1
     cf8:	01000001 	tsteq	r0, r1
     cfc:	6573552f 	ldrbvs	r5, [r3, #-1327]!	; 0xfffffad1
     d00:	742f7372 	strtvc	r7, [pc], #-882	; d08 <__code_start__-0x72f8>
     d04:	74736972 	ldrbtvc	r6, [r3], #-2418	; 0xfffff68e
     d08:	6f6e6e65 	svcvs	0x006e6e65
     d0c:	616d6c6c 	cmnvs	sp, ip, ror #24
     d10:	6f442f6e 	svcvs	0x00442f6e
     d14:	656d7563 	strbvs	r7, [sp, #-1379]!	; 0xfffffa9d
     d18:	2f73746e 	svccs	0x0073746e
     d1c:	69727053 	ldmdbvs	r2!, {r0, r1, r4, r6, ip, sp, lr}^
     d20:	515f676e 	cmppl	pc, lr, ror #14
     d24:	74726175 	ldrbtvc	r6, [r2], #-373	; 0xfffffe8b
     d28:	325f7265 	subscc	r7, pc, #1342177286	; 0x50000006
     d2c:	2f323230 	svccs	0x00323230
     d30:	34325343 	ldrtcc	r5, [r2], #-835	; 0xfffffcbd
     d34:	2d584c30 	ldclcs	12, cr4, [r8, #-192]	; 0xffffff40
     d38:	32727073 	rsbscc	r7, r2, #115, 0	; 0x73
     d3c:	696c2f32 	stmdbvs	ip!, {r1, r4, r5, r8, r9, sl, fp, sp}^
     d40:	2f697062 	svccs	0x00697062
     d44:	6c636e69 	stclvs	14, cr6, [r3], #-420	; 0xfffffe5c
     d48:	00656475 	rsbeq	r6, r5, r5, ror r4
     d4c:	2d726b00 	vldmdbcs	r2!, {d22-d21}
     d50:	6c6c616d 	stfvse	f6, [ip], #-436	; 0xfffffe4c
     d54:	632e636f 			; <UNDEFINED> instruction: 0x632e636f
     d58:	00000000 	andeq	r0, r0, r0
     d5c:	2e697072 	mcrcs	0, 3, r7, cr9, cr2, {3}
     d60:	00010068 	andeq	r0, r1, r8, rrx
     d64:	2d726b00 	vldmdbcs	r2!, {d22-d21}
     d68:	6c6c616d 	stfvse	f6, [ip], #-436	; 0xfffffe4c
     d6c:	682e636f 	stmdavs	lr!, {r0, r1, r2, r3, r5, r6, r8, r9, sp, lr}
     d70:	00000000 	andeq	r0, r0, r0
     d74:	00190500 	andseq	r0, r9, r0, lsl #10
     d78:	8ca80205 	sfmhi	f0, 4, [r8], #20
     d7c:	c5030000 	strgt	r0, [r3, #-0]
     d80:	01060100 	mrseq	r0, (UNDEF: 22)
     d84:	2f060205 	svccs	0x00060205
     d88:	06050513 			; <UNDEFINED> instruction: 0x06050513
     d8c:	06020501 	streq	r0, [r2], -r1, lsl #10
     d90:	0609052f 	streq	r0, [r9], -pc, lsr #10
     d94:	4a020501 	bmi	821a0 <__bss_end__+0x772f8>
     d98:	0012052e 	andseq	r0, r2, lr, lsr #10
     d9c:	06010402 	streq	r0, [r1], -r2, lsl #8
     da0:	0002052e 	andeq	r0, r2, lr, lsr #10
     da4:	06010402 	streq	r0, [r1], -r2, lsl #8
     da8:	00260501 	eoreq	r0, r6, r1, lsl #10
     dac:	4a030402 	bmi	c1dbc <__bss_end__+0xb6f14>
     db0:	02001205 	andeq	r1, r0, #1342177280	; 0x50000000
     db4:	052e0304 	streq	r0, [lr, #-772]!	; 0xfffffcfc
     db8:	054b0603 	strbeq	r0, [fp, #-1539]	; 0xfffff9fd
     dbc:	05010610 	streq	r0, [r1, #-1552]	; 0xfffff9f0
     dc0:	15052e06 	strne	r2, [r5, #-3590]	; 0xfffff1fa
     dc4:	01040200 	mrseq	r0, R12_usr
     dc8:	0020054a 	eoreq	r0, r0, sl, asr #10
     dcc:	4a020402 	bmi	81ddc <__bss_end__+0x76f34>
     dd0:	02040200 	andeq	r0, r4, #0, 4
     dd4:	0602054a 	streq	r0, [r2], -sl, asr #10
     dd8:	06100532 			; <UNDEFINED> instruction: 0x06100532
     ddc:	2e090501 	cfsh32cs	mvfx0, mvfx9, #1
     de0:	052e1d05 	streq	r1, [lr, #-3333]!	; 0xfffff2fb
     de4:	0c052e05 	stceq	14, cr2, [r5], {5}
     de8:	16054e06 	strne	r4, [r5], -r6, lsl #28
     dec:	08050106 	stmdaeq	r5, {r1, r2, r8}
     df0:	14052f06 	strne	r2, [r5], #-3846	; 0xfffff0fa
     df4:	0e050106 	adfeqs	f0, f5, f6
     df8:	2e0b052e 	cfsh32cs	mvfx0, mvfx11, #30
     dfc:	4e060c05 	cdpmi	12, 0, cr0, cr6, cr5, {0}
     e00:	01061505 	tsteq	r6, r5, lsl #10
     e04:	30060205 	andcc	r0, r6, r5, lsl #4
     e08:	01060805 	tsteq	r6, r5, lsl #16
     e0c:	054b0105 	strbeq	r0, [fp, #-261]	; 0xfffffefb
     e10:	7503060c 	strvc	r0, [r3, #-1548]	; 0xfffff9f4
     e14:	0625052e 	strteq	r0, [r5], -lr, lsr #10
     e18:	2e170501 	cfmul32cs	mvfx0, mvfx7, mvfx1
     e1c:	4b060c05 	blmi	183e38 <__bss_end__+0x178f90>
     e20:	01061c05 	tsteq	r6, r5, lsl #24
     e24:	052e2305 	streq	r2, [lr, #-773]!	; 0xfffffcfb
     e28:	0c052e16 	stceq	14, cr2, [r5], {22}
     e2c:	1e054e06 	cdpne	14, 0, cr4, cr5, cr6, {0}
     e30:	16050106 	strne	r0, [r5], -r6, lsl #2
     e34:	060c052e 	streq	r0, [ip], -lr, lsr #10
     e38:	061c054b 	ldreq	r0, [ip], -fp, asr #10
     e3c:	2e150501 	cfmul32cs	mvfx0, mvfx5, mvfx1
     e40:	03062a05 	movweq	r2, #27141	; 0x6a05
     e44:	06667fb7 			; <UNDEFINED> instruction: 0x06667fb7
     e48:	06020501 	streq	r0, [r2], -r1, lsl #10
     e4c:	0514134b 	ldreq	r1, [r4, #-843]	; 0xfffffcb5
     e50:	05010605 	streq	r0, [r1, #-1541]	; 0xfffff9fb
     e54:	02052f07 	andeq	r2, r5, #7, 30
     e58:	07053106 	streq	r3, [r5, -r6, lsl #2]
     e5c:	02050106 	andeq	r0, r5, #-2147483647	; 0x80000001
     e60:	05054b06 	streq	r4, [r5, #-2822]	; 0xfffff4fa
     e64:	02050106 	andeq	r0, r5, #-2147483647	; 0x80000001
     e68:	05134e06 	ldreq	r4, [r3, #-3590]	; 0xfffff1fa
     e6c:	0501060d 	streq	r0, [r1, #-1549]	; 0xfffff9f3
     e70:	062f0602 	strteq	r0, [pc], -r2, lsl #12
     e74:	052f062e 	streq	r0, [pc, #-1582]!	; 84e <__code_start__-0x77b2>
     e78:	05010609 	streq	r0, [r1, #-1545]	; 0xfffff9f7
     e7c:	667a030a 	ldrbtvs	r0, [sl], -sl, lsl #6
     e80:	05350105 	ldreq	r0, [r5, #-261]!	; 0xfffffefb
     e84:	064d0622 	strbeq	r0, [sp], -r2, lsr #12
     e88:	06020501 	streq	r0, [r2], -r1, lsl #10
     e8c:	1413132f 	ldrne	r1, [r3], #-815	; 0xfffffcd1
     e90:	01062405 	tsteq	r6, r5, lsl #8
     e94:	052e2905 	streq	r2, [lr, #-2309]!	; 0xfffff6fb
     e98:	02052e09 	andeq	r2, r5, #144	; 0x90
     e9c:	0d052f06 	stceq	15, cr2, [r5, #-24]	; 0xffffffe8
     ea0:	05050106 	streq	r0, [r5, #-262]	; 0xfffffefa
     ea4:	0602054a 	streq	r0, [r2], -sl, asr #10
     ea8:	06090550 			; <UNDEFINED> instruction: 0x06090550
     eac:	03052e01 	movweq	r2, #24065	; 0x5e01
     eb0:	16052a06 	strne	r2, [r5], -r6, lsl #20
     eb4:	0e050106 	adfeqs	f0, f5, f6
     eb8:	0603054a 	streq	r0, [r3], -sl, asr #10
     ebc:	060f052f 	streq	r0, [pc], -pc, lsr #10
     ec0:	06040501 	streq	r0, [r4], -r1, lsl #10
     ec4:	0607056c 	streq	r0, [r7], -ip, ror #10
     ec8:	06050501 	streq	r0, [r5], -r1, lsl #10
     ecc:	060f0532 			; <UNDEFINED> instruction: 0x060f0532
     ed0:	06050501 	streq	r0, [r5], -r1, lsl #10
     ed4:	0607054b 	streq	r0, [r7], -fp, asr #10
     ed8:	06050501 	streq	r0, [r5], -r1, lsl #10
     edc:	060f052f 	streq	r0, [pc], -pc, lsr #10
     ee0:	06040501 	streq	r0, [r4], -r1, lsl #10
     ee4:	060a0530 			; <UNDEFINED> instruction: 0x060a0530
     ee8:	06040501 	streq	r0, [r4], -r1, lsl #10
     eec:	060b054b 	streq	r0, [fp], -fp, asr #10
     ef0:	05052e01 	streq	r2, [r5, #-3585]	; 0xfffff1ff
     ef4:	2e790306 	cdpcs	3, 7, cr0, cr9, cr6, {0}
     ef8:	01061805 	tsteq	r6, r5, lsl #16
     efc:	052e1205 	streq	r1, [lr, #-517]!	; 0xfffffdfb
     f00:	0545061a 	strbeq	r0, [r5, #-1562]	; 0xfffff9e6
     f04:	20050118 	andcs	r0, r5, r8, lsl r1
     f08:	27050106 	strcs	r0, [r5, -r6, lsl #2]
     f0c:	0603052e 	streq	r0, [r3], -lr, lsr #10
     f10:	060b052f 	streq	r0, [fp], -pc, lsr #10
     f14:	2e060501 	cfsh32cs	mvfx0, mvfx6, #1
     f18:	03060305 	movweq	r0, #25349	; 0x6305
     f1c:	09054a0e 	stmdbeq	r5, {r1, r2, r3, r9, fp, lr}
     f20:	06050106 	streq	r0, [r5], -r6, lsl #2
     f24:	0604054a 	streq	r0, [r4], -sl, asr #10
     f28:	060d054c 	streq	r0, [sp], -ip, asr #10
     f2c:	07052e01 	streq	r2, [r5, -r1, lsl #28]
     f30:	06022e2e 	streq	r2, [r2], -lr, lsr #28
     f34:	4b010100 	blmi	4133c <__bss_end__+0x36494>
     f38:	03000001 	movweq	r0, #1
     f3c:	0000e400 	andeq	lr, r0, r0, lsl #8
     f40:	fb010200 	blx	4174a <__bss_end__+0x368a2>
     f44:	01000d0e 	tsteq	r0, lr, lsl #26
     f48:	00010101 	andeq	r0, r1, r1, lsl #2
     f4c:	00010000 	andeq	r0, r1, r0
     f50:	2f2e0100 	svccs	0x002e0100
     f54:	6362696c 	cmnvs	r2, #108, 18	; 0x1b0000
     f58:	73552f00 	cmpvc	r5, #0, 30
     f5c:	2f737265 	svccs	0x00737265
     f60:	73697274 	cmnvc	r9, #116, 4	; 0x40000007
     f64:	6e6e6574 	mcrvs	5, 3, r6, cr14, cr4, {3}
     f68:	6d6c6c6f 	stclvs	12, cr6, [ip, #-444]!	; 0xfffffe44
     f6c:	442f6e61 	strtmi	r6, [pc], #-3681	; f74 <__code_start__-0x708c>
     f70:	6d75636f 	ldclvs	3, cr6, [r5, #-444]!	; 0xfffffe44
     f74:	73746e65 	cmnvc	r4, #1616	; 0x650
     f78:	7270532f 	rsbsvc	r5, r0, #-1140850688	; 0xbc000000
     f7c:	5f676e69 	svcpl	0x00676e69
     f80:	72617551 	rsbvc	r7, r1, #339738624	; 0x14400000
     f84:	5f726574 	svcpl	0x00726574
     f88:	32323032 	eorscc	r3, r2, #50, 0	; 0x32
     f8c:	3253432f 	subscc	r4, r3, #-1140850688	; 0xbc000000
     f90:	584c3034 	stmdapl	ip, {r2, r4, r5, ip, sp}^
     f94:	7270732d 	rsbsvc	r7, r0, #-1275068416	; 0xb4000000
     f98:	6c2f3232 	sfmvs	f3, 4, [pc], #-200	; ed8 <__code_start__-0x7128>
     f9c:	69706269 	ldmdbvs	r0!, {r0, r3, r5, r6, r9, sp, lr}^
     fa0:	636e692f 	cmnvs	lr, #770048	; 0xbc000
     fa4:	6564756c 	strbvs	r7, [r4, #-1388]!	; 0xfffffa94
     fa8:	73752f00 	cmnvc	r5, #0, 30
     fac:	6f6c2f72 	svcvs	0x006c2f72
     fb0:	2f6c6163 	svccs	0x006c6163
     fb4:	6c6c6543 	cfstr64vs	mvdx6, [ip], #-268	; 0xfffffef4
     fb8:	612f7261 			; <UNDEFINED> instruction: 0x612f7261
     fbc:	6e2d6d72 	mcrvs	13, 1, r6, cr13, cr2, {3}
     fc0:	2d656e6f 	stclcs	14, cr6, [r5, #-444]!	; 0xfffffe44
     fc4:	69626165 	stmdbvs	r2!, {r0, r2, r5, r6, r8, sp, lr}^
     fc8:	7365742d 	cmnvc	r5, #754974720	; 0x2d000000
     fcc:	2d392f74 	ldccs	15, cr2, [r9, #-464]!	; 0xfffffe30
     fd0:	39313032 	ldmdbcc	r1!, {r1, r4, r5, ip, sp}
     fd4:	632d3471 			; <UNDEFINED> instruction: 0x632d3471
     fd8:	37303173 			; <UNDEFINED> instruction: 0x37303173
     fdc:	696c2f65 	stmdbvs	ip!, {r0, r2, r5, r6, r8, r9, sl, fp, sp}^
     fe0:	63672f62 	cmnvs	r7, #392	; 0x188
     fe4:	72612f63 	rsbvc	r2, r1, #396	; 0x18c
     fe8:	6f6e2d6d 	svcvs	0x006e2d6d
     fec:	652d656e 	strvs	r6, [sp, #-1390]!	; 0xfffffa92
     ff0:	2f696261 	svccs	0x00696261
     ff4:	2e322e39 	mrccs	14, 1, r2, cr2, cr9, {1}
     ff8:	6e692f31 	mcrvs	15, 3, r2, cr9, cr1, {1}
     ffc:	64756c63 	ldrbtvs	r6, [r5], #-3171	; 0xfffff39d
    1000:	6d000065 	stcvs	0, cr0, [r0, #-404]	; 0xfffffe6c
    1004:	6d636d65 	stclvs	13, cr6, [r3, #-404]!	; 0xfffffe6c
    1008:	00632e70 	rsbeq	r2, r3, r0, ror lr
    100c:	72000001 	andvc	r0, r0, #1, 0
    1010:	682e6970 	stmdavs	lr!, {r4, r5, r6, r8, fp, sp, lr}
    1014:	00000200 	andeq	r0, r0, r0, lsl #4
    1018:	64647473 	strbtvs	r7, [r4], #-1139	; 0xfffffb8d
    101c:	682e6665 	stmdavs	lr!, {r0, r2, r5, r6, r9, sl, sp, lr}
    1020:	00000300 	andeq	r0, r0, r0, lsl #6
    1024:	003d0500 	eorseq	r0, sp, r0, lsl #10
    1028:	8e540205 	cdphi	2, 5, cr0, cr4, cr5, {0}
    102c:	06140000 	ldreq	r0, [r4], -r0
    1030:	06050501 	streq	r0, [r5], -r1, lsl #10
    1034:	0905144b 	stmdbeq	r5, {r0, r1, r3, r6, sl, ip}
    1038:	060d0501 	streq	r0, [sp], -r1, lsl #10
    103c:	00140501 	andseq	r0, r4, r1, lsl #10
    1040:	06010402 	streq	r0, [r1], -r2, lsl #8
    1044:	0005052e 	andeq	r0, r5, lr, lsr #10
    1048:	06010402 	streq	r0, [r1], -r2, lsl #8
    104c:	06090501 	streq	r0, [r9], -r1, lsl #10
    1050:	0613054b 	ldreq	r0, [r3], -fp, asr #10
    1054:	2e1b0501 	cfmul32cs	mvfx0, mvfx11, mvfx1
    1058:	2f060905 	svccs	0x00060905
    105c:	01060b05 	tsteq	r6, r5, lsl #22
    1060:	0020052e 	eoreq	r0, r0, lr, lsr #10
    1064:	06020402 	streq	r0, [r2], -r2, lsl #8
    1068:	0021052c 	eoreq	r0, r1, ip, lsr #10
    106c:	06020402 	streq	r0, [r2], -r2, lsl #8
    1070:	04020001 	streq	r0, [r2], #-1
    1074:	02002e02 	andeq	r2, r0, #2, 28
    1078:	052e0204 	streq	r0, [lr, #-516]!	; 0xfffffdfc
    107c:	0105170c 	tsteq	r5, ip, lsl #14
    1080:	0002022f 	andeq	r0, r2, pc, lsr #4
    1084:	01cb0101 	biceq	r0, fp, r1, lsl #2
    1088:	00030000 	andeq	r0, r3, r0
    108c:	000000e4 	andeq	r0, r0, r4, ror #1
    1090:	0efb0102 	cdpeq	1, 15, cr0, cr11, cr2, {0}
    1094:	0101000d 	tsteq	r1, sp
    1098:	00000101 	andeq	r0, r0, r1, lsl #2
    109c:	00000100 	andeq	r0, r0, r0, lsl #2
    10a0:	6c2f2e01 	stcvs	14, cr2, [pc], #-4	; 10a4 <__code_start__-0x6f5c>
    10a4:	00636269 	rsbeq	r6, r3, r9, ror #4
    10a8:	6573552f 	ldrbvs	r5, [r3, #-1327]!	; 0xfffffad1
    10ac:	742f7372 	strtvc	r7, [pc], #-882	; 10b4 <__code_start__-0x6f4c>
    10b0:	74736972 	ldrbtvc	r6, [r3], #-2418	; 0xfffff68e
    10b4:	6f6e6e65 	svcvs	0x006e6e65
    10b8:	616d6c6c 	cmnvs	sp, ip, ror #24
    10bc:	6f442f6e 	svcvs	0x00442f6e
    10c0:	656d7563 	strbvs	r7, [sp, #-1379]!	; 0xfffffa9d
    10c4:	2f73746e 	svccs	0x0073746e
    10c8:	69727053 	ldmdbvs	r2!, {r0, r1, r4, r6, ip, sp, lr}^
    10cc:	515f676e 	cmppl	pc, lr, ror #14
    10d0:	74726175 	ldrbtvc	r6, [r2], #-373	; 0xfffffe8b
    10d4:	325f7265 	subscc	r7, pc, #1342177286	; 0x50000006
    10d8:	2f323230 	svccs	0x00323230
    10dc:	34325343 	ldrtcc	r5, [r2], #-835	; 0xfffffcbd
    10e0:	2d584c30 	ldclcs	12, cr4, [r8, #-192]	; 0xffffff40
    10e4:	32727073 	rsbscc	r7, r2, #115, 0	; 0x73
    10e8:	696c2f32 	stmdbvs	ip!, {r1, r4, r5, r8, r9, sl, fp, sp}^
    10ec:	2f697062 	svccs	0x00697062
    10f0:	6c636e69 	stclvs	14, cr6, [r3], #-420	; 0xfffffe5c
    10f4:	00656475 	rsbeq	r6, r5, r5, ror r4
    10f8:	7273752f 	rsbsvc	r7, r3, #197132288	; 0xbc00000
    10fc:	636f6c2f 	cmnvs	pc, #12032	; 0x2f00
    1100:	432f6c61 			; <UNDEFINED> instruction: 0x432f6c61
    1104:	616c6c65 	cmnvs	ip, r5, ror #24
    1108:	72612f72 	rsbvc	r2, r1, #456	; 0x1c8
    110c:	6f6e2d6d 	svcvs	0x006e2d6d
    1110:	652d656e 	strvs	r6, [sp, #-1390]!	; 0xfffffa92
    1114:	2d696261 	sfmcs	f6, 2, [r9, #-388]!	; 0xfffffe7c
    1118:	74736574 	ldrbtvc	r6, [r3], #-1396	; 0xfffffa8c
    111c:	322d392f 	eorcc	r3, sp, #770048	; 0xbc000
    1120:	71393130 	teqvc	r9, r0, lsr r1
    1124:	73632d34 	cmnvc	r3, #52, 26	; 0xd00
    1128:	65373031 	ldrvs	r3, [r7, #-49]!	; 0xffffffcf
    112c:	62696c2f 	rsbvs	r6, r9, #12032	; 0x2f00
    1130:	6363672f 	cmnvs	r3, #12320768	; 0xbc0000
    1134:	6d72612f 	ldfvse	f6, [r2, #-188]!	; 0xffffff44
    1138:	6e6f6e2d 	cdpvs	14, 6, cr6, cr15, cr13, {1}
    113c:	61652d65 	cmnvs	r5, r5, ror #26
    1140:	392f6962 	stmdbcc	pc!, {r1, r5, r6, r8, fp, sp, lr}	; <UNPREDICTABLE>
    1144:	312e322e 			; <UNDEFINED> instruction: 0x312e322e
    1148:	636e692f 	cmnvs	lr, #770048	; 0xbc000
    114c:	6564756c 	strbvs	r7, [r4, #-1388]!	; 0xfffffa94
    1150:	656d0000 	strbvs	r0, [sp, #-0]!
    1154:	7970636d 	ldmdbvc	r0!, {r0, r2, r3, r5, r6, r8, r9, sp, lr}^
    1158:	0100632e 	tsteq	r0, lr, lsr #6
    115c:	70720000 	rsbsvc	r0, r2, r0
    1160:	00682e69 	rsbeq	r2, r8, r9, ror #28
    1164:	73000002 	movwvc	r0, #2
    1168:	65646474 	strbvs	r6, [r4, #-1140]!	; 0xfffffb8c
    116c:	00682e66 	rsbeq	r2, r8, r6, ror #28
    1170:	00000003 	andeq	r0, r0, r3
    1174:	05003905 	streq	r3, [r0, #-2309]	; 0xfffff6fb
    1178:	008e8802 	addeq	r8, lr, r2, lsl #16
    117c:	05051700 	streq	r1, [r5, #-1792]	; 0xfffff900
    1180:	06070517 			; <UNDEFINED> instruction: 0x06070517
    1184:	00160501 	andseq	r0, r6, r1, lsl #10
    1188:	4a010402 	bmi	42198 <__bss_end__+0x372f0>
    118c:	02002705 	andeq	r2, r0, #1310720	; 0x140000
    1190:	054a0204 	strbeq	r0, [sl, #-516]	; 0xfffffdfc
    1194:	04020009 	streq	r0, [r2], #-9
    1198:	004b0602 	subeq	r0, fp, r2, lsl #12
    119c:	01020402 	tsteq	r2, r2, lsl #8
    11a0:	02040200 	andeq	r0, r4, #0, 4
    11a4:	04020001 	streq	r0, [r2], #-1
    11a8:	02000102 	andeq	r0, r0, #-2147483648	; 0x80000000
    11ac:	05130204 	ldreq	r0, [r3, #-516]	; 0xfffffdfc
    11b0:	04020012 	streq	r0, [r2], #-18	; 0xffffffee
    11b4:	05010602 	streq	r0, [r1, #-1538]	; 0xfffff9fe
    11b8:	04020009 	streq	r0, [r2], #-9
    11bc:	002f0602 	eoreq	r0, pc, r2, lsl #12
    11c0:	13020402 	movwne	r0, #9218	; 0x2402
    11c4:	02040200 	andeq	r0, r4, #0, 4
    11c8:	000d0514 	andeq	r0, sp, r4, lsl r5
    11cc:	01020402 	tsteq	r2, r2, lsl #8
    11d0:	02000905 	andeq	r0, r0, #81920	; 0x14000
    11d4:	01060204 	tsteq	r6, r4, lsl #4
    11d8:	02000d05 	andeq	r0, r0, #320	; 0x140
    11dc:	2f060304 	svccs	0x00060304
    11e0:	02001505 	andeq	r1, r0, #20971520	; 0x1400000
    11e4:	01060304 	tsteq	r6, r4, lsl #6
    11e8:	02001205 	andeq	r1, r0, #1342177280	; 0x50000000
    11ec:	052e0304 	streq	r0, [lr, #-772]!	; 0xfffffcfc
    11f0:	04020024 	streq	r0, [r2], #-36	; 0xffffffdc
    11f4:	052d0603 	streq	r0, [sp, #-1539]!	; 0xfffff9fd
    11f8:	04020025 	streq	r0, [r2], #-37	; 0xffffffdb
    11fc:	05010603 	streq	r0, [r1, #-1539]	; 0xfffff9fd
    1200:	0402001d 	streq	r0, [r2], #-29	; 0xffffffe3
    1204:	052e0601 	streq	r0, [lr, #-1537]!	; 0xfffff9ff
    1208:	04020009 	streq	r0, [r2], #-9
    120c:	00010601 	andeq	r0, r1, r1, lsl #12
    1210:	66010402 	strvs	r0, [r1], -r2, lsl #8
    1214:	02000d05 	andeq	r0, r0, #320	; 0x140
    1218:	18060304 	stmdane	r6, {r2, r8, r9}
    121c:	02001505 	andeq	r1, r0, #20971520	; 0x1400000
    1220:	01060304 	tsteq	r6, r4, lsl #6
    1224:	02001205 	andeq	r1, r0, #1342177280	; 0x50000000
    1228:	052e0304 	streq	r0, [lr, #-772]!	; 0xfffffcfc
    122c:	04020029 	streq	r0, [r2], #-41	; 0xffffffd7
    1230:	052d0603 	streq	r0, [sp, #-1539]!	; 0xfffff9fd
    1234:	0402002a 	streq	r0, [r2], #-42	; 0xffffffd6
    1238:	05010603 	streq	r0, [r1, #-1539]	; 0xfffff9fd
    123c:	0402001d 	streq	r0, [r2], #-29	; 0xffffffe3
    1240:	052e0601 	streq	r0, [lr, #-1537]!	; 0xfffff9ff
    1244:	04020009 	streq	r0, [r2], #-9
    1248:	00010601 	andeq	r0, r1, r1, lsl #12
    124c:	66010402 	strvs	r0, [r1], -r2, lsl #8
    1250:	01000802 	tsteq	r0, r2, lsl #16
    1254:	00011401 	andeq	r1, r1, r1, lsl #8
    1258:	e4000300 	str	r0, [r0], #-768	; 0xfffffd00
    125c:	02000000 	andeq	r0, r0, #0, 0
    1260:	0d0efb01 	vstreq	d15, [lr, #-4]
    1264:	01010100 	mrseq	r0, (UNDEF: 17)
    1268:	00000001 	andeq	r0, r0, r1
    126c:	01000001 	tsteq	r0, r1
    1270:	696c2f2e 	stmdbvs	ip!, {r1, r2, r3, r5, r8, r9, sl, fp, sp}^
    1274:	2f006362 	svccs	0x00006362
    1278:	72657355 	rsbvc	r7, r5, #1409286145	; 0x54000001
    127c:	72742f73 	rsbsvc	r2, r4, #460	; 0x1cc
    1280:	65747369 	ldrbvs	r7, [r4, #-873]!	; 0xfffffc97
    1284:	6c6f6e6e 	stclvs	14, cr6, [pc], #-440	; 10d4 <__code_start__-0x6f2c>
    1288:	6e616d6c 	cdpvs	13, 6, cr6, cr1, cr12, {3}
    128c:	636f442f 	cmnvs	pc, #788529152	; 0x2f000000
    1290:	6e656d75 	mcrvs	13, 3, r6, cr5, cr5, {3}
    1294:	532f7374 			; <UNDEFINED> instruction: 0x532f7374
    1298:	6e697270 	mcrvs	2, 3, r7, cr9, cr0, {3}
    129c:	75515f67 	ldrbvc	r5, [r1, #-3943]	; 0xfffff099
    12a0:	65747261 	ldrbvs	r7, [r4, #-609]!	; 0xfffffd9f
    12a4:	30325f72 	eorscc	r5, r2, r2, ror pc
    12a8:	432f3232 			; <UNDEFINED> instruction: 0x432f3232
    12ac:	30343253 	eorscc	r3, r4, r3, asr r2
    12b0:	732d584c 			; <UNDEFINED> instruction: 0x732d584c
    12b4:	32327270 	eorscc	r7, r2, #112, 4
    12b8:	62696c2f 	rsbvs	r6, r9, #12032	; 0x2f00
    12bc:	692f6970 	stmdbvs	pc!, {r4, r5, r6, r8, fp, sp, lr}	; <UNPREDICTABLE>
    12c0:	756c636e 	strbvc	r6, [ip, #-878]!	; 0xfffffc92
    12c4:	2f006564 	svccs	0x00006564
    12c8:	2f727375 	svccs	0x00727375
    12cc:	61636f6c 	cmnvs	r3, ip, ror #30
    12d0:	65432f6c 	strbvs	r2, [r3, #-3948]	; 0xfffff094
    12d4:	72616c6c 	rsbvc	r6, r1, #108, 24	; 0x6c00
    12d8:	6d72612f 	ldfvse	f6, [r2, #-188]!	; 0xffffff44
    12dc:	6e6f6e2d 	cdpvs	14, 6, cr6, cr15, cr13, {1}
    12e0:	61652d65 	cmnvs	r5, r5, ror #26
    12e4:	742d6962 	strtvc	r6, [sp], #-2402	; 0xfffff69e
    12e8:	2f747365 	svccs	0x00747365
    12ec:	30322d39 	eorscc	r2, r2, r9, lsr sp
    12f0:	34713931 	ldrbtcc	r3, [r1], #-2353	; 0xfffff6cf
    12f4:	3173632d 	cmncc	r3, sp, lsr #6
    12f8:	2f653730 	svccs	0x00653730
    12fc:	2f62696c 	svccs	0x0062696c
    1300:	2f636367 	svccs	0x00636367
    1304:	2d6d7261 	sfmcs	f7, 2, [sp, #-388]!	; 0xfffffe7c
    1308:	656e6f6e 	strbvs	r6, [lr, #-3950]!	; 0xfffff092
    130c:	6261652d 	rsbvs	r6, r1, #188743680	; 0xb400000
    1310:	2e392f69 	cdpcs	15, 3, cr2, cr9, cr9, {3}
    1314:	2f312e32 	svccs	0x00312e32
    1318:	6c636e69 	stclvs	14, cr6, [r3], #-420	; 0xfffffe5c
    131c:	00656475 	rsbeq	r6, r5, r5, ror r4
    1320:	6d656d00 	stclvs	13, cr6, [r5, #-0]
    1324:	2e746573 	mrccs	5, 3, r6, cr4, cr3, {3}
    1328:	00010063 	andeq	r0, r1, r3, rrx
    132c:	69707200 	ldmdbvs	r0!, {r9, ip, sp, lr}^
    1330:	0200682e 	andeq	r6, r0, #3014656	; 0x2e0000
    1334:	74730000 	ldrbtvc	r0, [r3], #-0
    1338:	66656464 	strbtvs	r6, [r5], -r4, ror #8
    133c:	0300682e 	movweq	r6, #2094	; 0x82e
    1340:	05000000 	streq	r0, [r0, #-0]
    1344:	02050029 	andeq	r0, r5, #41, 0	; 0x29
    1348:	00008ee8 	andeq	r8, r0, r8, ror #29
    134c:	13050515 	movwne	r0, #21781	; 0x5515
    1350:	01061405 	tsteq	r6, r5, lsl #8
    1354:	30060505 	andcc	r0, r6, r5, lsl #10
    1358:	10060b05 	andne	r0, r6, r5, lsl #22
    135c:	30060a05 	andcc	r0, r6, r5, lsl #20
    1360:	054b0905 	strbeq	r0, [fp, #-2309]	; 0xfffff6fb
    1364:	2e01060e 	cfmadd32cs	mvax0, mvfx0, mvfx1, mvfx14
    1368:	01000202 	tsteq	r0, r2, lsl #4
    136c:	00013301 	andeq	r3, r1, r1, lsl #6
    1370:	01000300 	mrseq	r0, LR_irq
    1374:	02000001 	andeq	r0, r0, #1, 0
    1378:	0d0efb01 	vstreq	d15, [lr, #-4]
    137c:	01010100 	mrseq	r0, (UNDEF: 17)
    1380:	00000001 	andeq	r0, r0, r1
    1384:	01000001 	tsteq	r0, r1
    1388:	696c2f2e 	stmdbvs	ip!, {r1, r2, r3, r5, r8, r9, sl, fp, sp}^
    138c:	2f006362 	svccs	0x00006362
    1390:	2f727375 	svccs	0x00727375
    1394:	61636f6c 	cmnvs	r3, ip, ror #30
    1398:	65432f6c 	strbvs	r2, [r3, #-3948]	; 0xfffff094
    139c:	72616c6c 	rsbvc	r6, r1, #108, 24	; 0x6c00
    13a0:	6d72612f 	ldfvse	f6, [r2, #-188]!	; 0xffffff44
    13a4:	6e6f6e2d 	cdpvs	14, 6, cr6, cr15, cr13, {1}
    13a8:	61652d65 	cmnvs	r5, r5, ror #26
    13ac:	742d6962 	strtvc	r6, [sp], #-2402	; 0xfffff69e
    13b0:	2f747365 	svccs	0x00747365
    13b4:	30322d39 	eorscc	r2, r2, r9, lsr sp
    13b8:	34713931 	ldrbtcc	r3, [r1], #-2353	; 0xfffff6cf
    13bc:	3173632d 	cmncc	r3, sp, lsr #6
    13c0:	2f653730 	svccs	0x00653730
    13c4:	2f62696c 	svccs	0x0062696c
    13c8:	2f636367 	svccs	0x00636367
    13cc:	2d6d7261 	sfmcs	f7, 2, [sp, #-388]!	; 0xfffffe7c
    13d0:	656e6f6e 	strbvs	r6, [lr, #-3950]!	; 0xfffff092
    13d4:	6261652d 	rsbvs	r6, r1, #188743680	; 0xb400000
    13d8:	2e392f69 	cdpcs	15, 3, cr2, cr9, cr9, {3}
    13dc:	2f312e32 	svccs	0x00312e32
    13e0:	6c636e69 	stclvs	14, cr6, [r3], #-420	; 0xfffffe5c
    13e4:	00656475 	rsbeq	r6, r5, r5, ror r4
    13e8:	6573552f 	ldrbvs	r5, [r3, #-1327]!	; 0xfffffad1
    13ec:	742f7372 	strtvc	r7, [pc], #-882	; 13f4 <__code_start__-0x6c0c>
    13f0:	74736972 	ldrbtvc	r6, [r3], #-2418	; 0xfffff68e
    13f4:	6f6e6e65 	svcvs	0x006e6e65
    13f8:	616d6c6c 	cmnvs	sp, ip, ror #24
    13fc:	6f442f6e 	svcvs	0x00442f6e
    1400:	656d7563 	strbvs	r7, [sp, #-1379]!	; 0xfffffa9d
    1404:	2f73746e 	svccs	0x0073746e
    1408:	69727053 	ldmdbvs	r2!, {r0, r1, r4, r6, ip, sp, lr}^
    140c:	515f676e 	cmppl	pc, lr, ror #14
    1410:	74726175 	ldrbtvc	r6, [r2], #-373	; 0xfffffe8b
    1414:	325f7265 	subscc	r7, pc, #1342177286	; 0x50000006
    1418:	2f323230 	svccs	0x00323230
    141c:	34325343 	ldrtcc	r5, [r2], #-835	; 0xfffffcbd
    1420:	2d584c30 	ldclcs	12, cr4, [r8, #-192]	; 0xffffff40
    1424:	32727073 	rsbscc	r7, r2, #115, 0	; 0x73
    1428:	696c2f32 	stmdbvs	ip!, {r1, r4, r5, r8, r9, sl, fp, sp}^
    142c:	2f697062 	svccs	0x00697062
    1430:	6c636e69 	stclvs	14, cr6, [r3], #-420	; 0xfffffe5c
    1434:	00656475 	rsbeq	r6, r5, r5, ror r4
    1438:	69727000 	ldmdbvs	r2!, {ip, sp, lr}^
    143c:	2e6b746e 	cdpcs	4, 6, cr7, cr11, cr14, {3}
    1440:	00010063 	andeq	r0, r1, r3, rrx
    1444:	64747300 	ldrbtvs	r7, [r4], #-768	; 0xfffffd00
    1448:	2e677261 	cdpcs	2, 6, cr7, cr7, cr1, {3}
    144c:	00020068 	andeq	r0, r2, r8, rrx
    1450:	69707200 	ldmdbvs	r0!, {r9, ip, sp, lr}^
    1454:	0300682e 	movweq	r6, #2094	; 0x82e
    1458:	623c0000 	eorsvs	r0, ip, #0, 0
    145c:	746c6975 	strbtvc	r6, [ip], #-2421	; 0xfffff68b
    1460:	3e6e692d 	vmulcc.f16	s13, s28, s27	; <UNPREDICTABLE>
    1464:	00000000 	andeq	r0, r0, r0
    1468:	702d6176 	eorvc	r6, sp, r6, ror r1
    146c:	746e6972 	strbtvc	r6, [lr], #-2418	; 0xfffff68e
    1470:	00682e6b 	rsbeq	r2, r8, fp, ror #28
    1474:	00000001 	andeq	r0, r0, r1
    1478:	05002205 	streq	r2, [r0, #-517]	; 0xfffffdfb
    147c:	008f0002 	addeq	r0, pc, r2
    1480:	01061700 	tsteq	r6, r0, lsl #14
    1484:	68060505 	stmdavs	r6, {r0, r2, r8, sl}
    1488:	09051413 	stmdbeq	r5, {r0, r1, r4, sl, ip}
    148c:	0612054b 	ldreq	r0, [r2], -fp, asr #10
    1490:	06050501 	streq	r0, [r5], -r1, lsl #10
    1494:	660616bb 			; <UNDEFINED> instruction: 0x660616bb
    1498:	01053406 	tsteq	r5, r6, lsl #8
    149c:	02661306 	rsbeq	r1, r6, #402653184	; 0x18000000
    14a0:	01010008 	tsteq	r1, r8
    14a4:	000000cb 	andeq	r0, r0, fp, asr #1
    14a8:	007d0003 	rsbseq	r0, sp, r3
    14ac:	01020000 	mrseq	r0, (UNDEF: 2)
    14b0:	000d0efb 	strdeq	r0, [sp], -fp
    14b4:	01010101 	tsteq	r1, r1, lsl #2
    14b8:	01000000 	mrseq	r0, (UNDEF: 0)
    14bc:	2e010000 	cdpcs	0, 0, cr0, cr1, cr0, {0}
    14c0:	62696c2f 	rsbvs	r6, r9, #12032	; 0x2f00
    14c4:	552f0063 	strpl	r0, [pc, #-99]!	; 1469 <__code_start__-0x6b97>
    14c8:	73726573 	cmnvc	r2, #482344960	; 0x1cc00000
    14cc:	6972742f 	ldmdbvs	r2!, {r0, r1, r2, r3, r5, sl, ip, sp, lr}^
    14d0:	6e657473 	mcrvs	4, 3, r7, cr5, cr3, {3}
    14d4:	6c6c6f6e 	stclvs	15, cr6, [ip], #-440	; 0xfffffe48
    14d8:	2f6e616d 	svccs	0x006e616d
    14dc:	75636f44 	strbvc	r6, [r3, #-3908]!	; 0xfffff0bc
    14e0:	746e656d 	strbtvc	r6, [lr], #-1389	; 0xfffffa93
    14e4:	70532f73 	subsvc	r2, r3, r3, ror pc
    14e8:	676e6972 			; <UNDEFINED> instruction: 0x676e6972
    14ec:	6175515f 	cmnvs	r5, pc, asr r1
    14f0:	72657472 	rsbvc	r7, r5, #1912602624	; 0x72000000
    14f4:	3230325f 	eorscc	r3, r0, #-268435451	; 0xf0000005
    14f8:	53432f32 	movtpl	r2, #16178	; 0x3f32
    14fc:	4c303432 	cfldrsmi	mvf3, [r0], #-200	; 0xffffff38
    1500:	70732d58 	rsbsvc	r2, r3, r8, asr sp
    1504:	2f323272 	svccs	0x00323272
    1508:	7062696c 	rsbvc	r6, r2, ip, ror #18
    150c:	6e692f69 	cdpvs	15, 6, cr2, cr9, cr9, {3}
    1510:	64756c63 	ldrbtvs	r6, [r5], #-3171	; 0xfffff39d
    1514:	70000065 	andvc	r0, r0, r5, rrx
    1518:	2e6b7475 	mcrcs	4, 3, r7, cr11, cr5, {3}
    151c:	00010063 	andeq	r0, r1, r3, rrx
    1520:	69707200 	ldmdbvs	r0!, {r9, ip, sp, lr}^
    1524:	0200682e 	andeq	r6, r0, #3014656	; 0x2e0000
    1528:	05000000 	streq	r0, [r0, #-0]
    152c:	02050022 	andeq	r0, r5, #34, 0	; 0x22
    1530:	00008f58 	andeq	r8, r0, r8, asr pc
    1534:	05010615 	streq	r0, [r1, #-1557]	; 0xfffff9eb
    1538:	054b0605 	strbeq	r0, [fp, #-1541]	; 0xfffff9fb
    153c:	0402000b 	streq	r0, [r2], #-11
    1540:	05050101 	streq	r0, [r5, #-257]	; 0xfffffeff
    1544:	01040200 	mrseq	r0, R12_usr
    1548:	09052e06 	stmdbeq	r5, {r1, r2, r9, sl, fp, sp}
    154c:	02040200 	andeq	r0, r4, #0, 4
    1550:	0f054b06 	svceq	0x00054b06
    1554:	02040200 	andeq	r0, r4, #0, 4
    1558:	00100565 	andseq	r0, r0, r5, ror #10
    155c:	06020402 	streq	r0, [r2], -r2, lsl #8
    1560:	04020001 	streq	r0, [r2], #-1
    1564:	05052e02 	streq	r2, [r5, #-3586]	; 0xfffff1fe
    1568:	01053206 	tsteq	r5, r6, lsl #4
    156c:	06021306 	streq	r1, [r2], -r6, lsl #6
    1570:	1d010100 	stfnes	f0, [r1, #-0]
    1574:	03000006 	movweq	r0, #6
    1578:	00011700 	andeq	r1, r1, r0, lsl #14
    157c:	fb010200 	blx	41d86 <__bss_end__+0x36ede>
    1580:	01000d0e 	tsteq	r0, lr, lsl #26
    1584:	00010101 	andeq	r0, r1, r1, lsl #2
    1588:	00010000 	andeq	r0, r1, r0
    158c:	2f2e0100 	svccs	0x002e0100
    1590:	6362696c 	cmnvs	r2, #108, 18	; 0x1b0000
    1594:	73752f00 	cmnvc	r5, #0, 30
    1598:	6f6c2f72 	svcvs	0x006c2f72
    159c:	2f6c6163 	svccs	0x006c6163
    15a0:	6c6c6543 	cfstr64vs	mvdx6, [ip], #-268	; 0xfffffef4
    15a4:	612f7261 			; <UNDEFINED> instruction: 0x612f7261
    15a8:	6e2d6d72 	mcrvs	13, 1, r6, cr13, cr2, {3}
    15ac:	2d656e6f 	stclcs	14, cr6, [r5, #-444]!	; 0xfffffe44
    15b0:	69626165 	stmdbvs	r2!, {r0, r2, r5, r6, r8, sp, lr}^
    15b4:	7365742d 	cmnvc	r5, #754974720	; 0x2d000000
    15b8:	2d392f74 	ldccs	15, cr2, [r9, #-464]!	; 0xfffffe30
    15bc:	39313032 	ldmdbcc	r1!, {r1, r4, r5, ip, sp}
    15c0:	632d3471 			; <UNDEFINED> instruction: 0x632d3471
    15c4:	37303173 			; <UNDEFINED> instruction: 0x37303173
    15c8:	696c2f65 	stmdbvs	ip!, {r0, r2, r5, r6, r8, r9, sl, fp, sp}^
    15cc:	63672f62 	cmnvs	r7, #392	; 0x188
    15d0:	72612f63 	rsbvc	r2, r1, #396	; 0x18c
    15d4:	6f6e2d6d 	svcvs	0x006e2d6d
    15d8:	652d656e 	strvs	r6, [sp, #-1390]!	; 0xfffffa92
    15dc:	2f696261 	svccs	0x00696261
    15e0:	2e322e39 	mrccs	14, 1, r2, cr2, cr9, {1}
    15e4:	6e692f31 	mcrvs	15, 3, r2, cr9, cr1, {1}
    15e8:	64756c63 	ldrbtvs	r6, [r5], #-3171	; 0xfffff39d
    15ec:	552f0065 	strpl	r0, [pc, #-101]!	; 158f <__code_start__-0x6a71>
    15f0:	73726573 	cmnvc	r2, #482344960	; 0x1cc00000
    15f4:	6972742f 	ldmdbvs	r2!, {r0, r1, r2, r3, r5, sl, ip, sp, lr}^
    15f8:	6e657473 	mcrvs	4, 3, r7, cr5, cr3, {3}
    15fc:	6c6c6f6e 	stclvs	15, cr6, [ip], #-440	; 0xfffffe48
    1600:	2f6e616d 	svccs	0x006e616d
    1604:	75636f44 	strbvc	r6, [r3, #-3908]!	; 0xfffff0bc
    1608:	746e656d 	strbtvc	r6, [lr], #-1389	; 0xfffffa93
    160c:	70532f73 	subsvc	r2, r3, r3, ror pc
    1610:	676e6972 			; <UNDEFINED> instruction: 0x676e6972
    1614:	6175515f 	cmnvs	r5, pc, asr r1
    1618:	72657472 	rsbvc	r7, r5, #1912602624	; 0x72000000
    161c:	3230325f 	eorscc	r3, r0, #-268435451	; 0xf0000005
    1620:	53432f32 	movtpl	r2, #16178	; 0x3f32
    1624:	4c303432 	cfldrsmi	mvf3, [r0], #-200	; 0xffffff38
    1628:	70732d58 	rsbsvc	r2, r3, r8, asr sp
    162c:	2f323272 	svccs	0x00323272
    1630:	7062696c 	rsbvc	r6, r2, ip, ror #18
    1634:	6e692f69 	cdpvs	15, 6, cr2, cr9, cr9, {3}
    1638:	64756c63 	ldrbtvs	r6, [r5], #-3171	; 0xfffff39d
    163c:	76000065 	strvc	r0, [r0], -r5, rrx
    1640:	72702d61 	rsbsvc	r2, r0, #6208	; 0x1840
    1644:	6b746e69 	blvs	1d1cff0 <__bss_end__+0x1d12148>
    1648:	0100632e 	tsteq	r0, lr, lsr #6
    164c:	74730000 	ldrbtvc	r0, [r3], #-0
    1650:	746e6964 	strbtvc	r6, [lr], #-2404	; 0xfffff69c
    1654:	6363672d 	cmnvs	r3, #11796480	; 0xb40000
    1658:	0200682e 	andeq	r6, r0, #3014656	; 0x2e0000
    165c:	70720000 	rsbsvc	r0, r2, r0
    1660:	00682e69 	rsbeq	r2, r8, r9, ror #28
    1664:	72000003 	andvc	r0, r0, #3, 0
    1668:	692d6970 	pushvs	{r4, r5, r6, r8, fp, sp, lr}
    166c:	7265746e 	rsbvc	r7, r5, #1845493760	; 0x6e000000
    1670:	2e6c616e 	powcsez	f6, f4, #0.5
    1674:	00030068 	andeq	r0, r3, r8, rrx
    1678:	64747300 	ldrbtvs	r7, [r4], #-768	; 0xfffffd00
    167c:	2e677261 	cdpcs	2, 6, cr7, cr7, cr1, {3}
    1680:	00020068 	andeq	r0, r2, r8, rrx
    1684:	75623c00 	strbvc	r3, [r2, #-3072]!	; 0xfffff400
    1688:	2d746c69 	ldclcs	12, cr6, [r4, #-420]!	; 0xfffffe5c
    168c:	003e6e69 	eorseq	r6, lr, r9, ror #28
    1690:	00000000 	andeq	r0, r0, r0
    1694:	05001b05 	streq	r1, [r0, #-2821]	; 0xfffff4fb
    1698:	008f8c02 	addeq	r8, pc, r2, lsl #24
    169c:	01260300 			; <UNDEFINED> instruction: 0x01260300
    16a0:	05011d05 	streq	r1, [r1, #-3333]	; 0xfffff2fb
    16a4:	0501062d 	streq	r0, [r1, #-1581]	; 0xfffff9d3
    16a8:	054a2e01 	strbeq	r2, [sl, #-3585]	; 0xfffff1ff
    16ac:	05510633 	ldrbeq	r0, [r1, #-1587]	; 0xfffff9cd
    16b0:	06051302 	streq	r1, [r5], -r2, lsl #6
    16b4:	02050106 	andeq	r0, r5, #-2147483647	; 0x80000001
    16b8:	08053006 	stmdaeq	r5, {r1, r2, ip, sp}
    16bc:	01040200 	mrseq	r0, R12_usr
    16c0:	00020501 	andeq	r0, r2, r1, lsl #10
    16c4:	06010402 	streq	r0, [r1], -r2, lsl #8
    16c8:	00030501 	andeq	r0, r3, r1, lsl #10
    16cc:	06020402 	streq	r0, [r2], -r2, lsl #8
    16d0:	0008052f 	andeq	r0, r8, pc, lsr #10
    16d4:	06020402 	streq	r0, [r2], -r2, lsl #8
    16d8:	00150501 	andseq	r0, r5, r1, lsl #10
    16dc:	06020402 	streq	r0, [r2], -r2, lsl #8
    16e0:	00180549 	andseq	r0, r8, r9, asr #10
    16e4:	06020402 	streq	r0, [r2], -r2, lsl #8
    16e8:	04020001 	streq	r0, [r2], #-1
    16ec:	02052e02 	andeq	r2, r5, #2, 28
    16f0:	05053006 	streq	r3, [r5, #-6]
    16f4:	02050106 	andeq	r0, r5, #-2147483647	; 0x80000001
    16f8:	01054b06 	tsteq	r5, r6, lsl #22
    16fc:	3e051306 	cdpcc	3, 0, cr1, cr5, cr6, {0}
    1700:	02053106 	andeq	r3, r5, #-2147483647	; 0x80000001
    1704:	060e0514 			; <UNDEFINED> instruction: 0x060e0514
    1708:	2e060501 	cfsh32cs	mvfx0, mvfx6, #1
    170c:	2f060205 	svccs	0x00060205
    1710:	01060405 	tsteq	r6, r5, lsl #8
    1714:	2f060305 	svccs	0x00060305
    1718:	01061105 	tsteq	r6, r5, lsl #2
    171c:	052e0905 	streq	r0, [lr, #-2309]!	; 0xfffff6fb
    1720:	15300602 	ldrne	r0, [r0, #-1538]!	; 0xfffff9fe
    1724:	01060705 	tsteq	r6, r5, lsl #14
    1728:	052e0205 	streq	r0, [lr, #-517]!	; 0xfffffdfb
    172c:	0402000b 	streq	r0, [r2], #-11
    1730:	052e0601 	streq	r0, [lr, #-1537]!	; 0xfffff9ff
    1734:	04020002 	streq	r0, [r2], #-2
    1738:	05010601 	streq	r0, [r1, #-1537]	; 0xfffff9ff
    173c:	04020003 	streq	r0, [r2], #-3
    1740:	052f0603 	streq	r0, [pc, #-1539]!	; 1145 <__code_start__-0x6ebb>
    1744:	0402000c 	streq	r0, [r2], #-12
    1748:	05010603 	streq	r0, [r1, #-1539]	; 0xfffff9fd
    174c:	0402000a 	streq	r0, [r2], #-10
    1750:	17052e03 	strne	r2, [r5, -r3, lsl #28]
    1754:	03040200 	movweq	r0, #16896	; 0x4200
    1758:	02002d06 	andeq	r2, r0, #384	; 0x180
    175c:	01060304 	tsteq	r6, r4, lsl #6
    1760:	30060205 	andcc	r0, r6, r5, lsl #4
    1764:	01060905 	tsteq	r6, r5, lsl #18
    1768:	0602052e 	streq	r0, [r2], -lr, lsr #10
    176c:	06010530 			; <UNDEFINED> instruction: 0x06010530
    1770:	06490513 			; <UNDEFINED> instruction: 0x06490513
    1774:	05010631 	streq	r0, [r1, #-1585]	; 0xfffff9cf
    1778:	05a00602 	streq	r0, [r0, #1538]!	; 0x602
    177c:	05010604 	streq	r0, [r1, #-1540]	; 0xfffff9fc
    1780:	052f0603 	streq	r0, [pc, #-1539]!	; 1185 <__code_start__-0x6e7b>
    1784:	05010609 	streq	r0, [r1, #-1545]	; 0xfffff9f7
    1788:	13300602 	teqne	r0, #2097152	; 0x200000
    178c:	01060b05 	tsteq	r6, r5, lsl #22
    1790:	30060205 	andcc	r0, r6, r5, lsl #4
    1794:	04052e06 	streq	r2, [r5], #-3590	; 0xfffff1fa
    1798:	15240206 	strne	r0, [r4, #-518]!	; 0xfffffdfa
    179c:	060f0513 			; <UNDEFINED> instruction: 0x060f0513
    17a0:	06052e01 	streq	r2, [r5], -r1, lsl #28
    17a4:	0605054a 	streq	r0, [r5], -sl, asr #10
    17a8:	0905134b 	stmdbeq	r5, {r0, r1, r3, r6, r8, r9, ip}
    17ac:	05050106 	streq	r0, [r5, #-262]	; 0xfffffefa
    17b0:	0b052f06 	bleq	14d3d0 <__bss_end__+0x142528>
    17b4:	0d051006 	stceq	0, cr1, [r5, #-24]	; 0xffffffe8
    17b8:	01040200 	mrseq	r0, R12_usr
    17bc:	0004052c 	andeq	r0, r4, ip, lsr #10
    17c0:	06010402 	streq	r0, [r1], -r2, lsl #8
    17c4:	00050534 	andeq	r0, r5, r4, lsr r5
    17c8:	13010402 	movwne	r0, #5122	; 0x1402
    17cc:	02001b05 	andeq	r1, r0, #5120	; 0x1400
    17d0:	01060104 	tsteq	r6, r4, lsl #2
    17d4:	02000705 	andeq	r0, r0, #1310720	; 0x140000
    17d8:	05d60104 	ldrbeq	r0, [r6, #260]	; 0x104
    17dc:	04020018 	streq	r0, [r2], #-24	; 0xffffffe8
    17e0:	0a052e01 	beq	14cfec <__bss_end__+0x142144>
    17e4:	01040200 	mrseq	r0, R12_usr
    17e8:	000b054a 	andeq	r0, fp, sl, asr #10
    17ec:	06010402 	streq	r0, [r1], -r2, lsl #8
    17f0:	000e052f 	andeq	r0, lr, pc, lsr #10
    17f4:	06010402 	streq	r0, [r1], -r2, lsl #8
    17f8:	0004052e 	andeq	r0, r4, lr, lsr #10
    17fc:	2e010402 	cdpcs	4, 0, cr0, cr1, cr2, {0}
    1800:	06054b06 	streq	r4, [r5], -r6, lsl #22
    1804:	05050106 	streq	r0, [r5, #-262]	; 0xfffffefa
    1808:	0a052f06 	beq	14d428 <__bss_end__+0x142580>
    180c:	07050106 	streq	r0, [r5, -r6, lsl #2]
    1810:	0d052e4a 	stceq	14, cr2, [r5, #-296]	; 0xfffffed8
    1814:	4a2e7603 	bmi	b9f028 <__bss_end__+0xb94180>
    1818:	050d0b05 	streq	r0, [sp, #-2821]	; 0xfffff4fb
    181c:	0402000d 	streq	r0, [r2], #-13
    1820:	14030601 	strne	r0, [r3], #-1537	; 0xfffff9ff
    1824:	0011052e 	andseq	r0, r1, lr, lsr #10
    1828:	13010402 	movwne	r0, #5122	; 0x1402
    182c:	02002d05 	andeq	r2, r0, #320	; 0x140
    1830:	01060104 	tsteq	r6, r4, lsl #2
    1834:	02002a05 	andeq	r2, r0, #20480	; 0x5000
    1838:	052e0104 	streq	r0, [lr, #-260]!	; 0xfffffefc
    183c:	04020016 	streq	r0, [r2], #-22	; 0xffffffea
    1840:	14054a01 	strne	r4, [r5], #-2561	; 0xfffff5ff
    1844:	01040200 	mrseq	r0, R12_usr
    1848:	0d054b06 	vstreq	d4, [r5, #-24]	; 0xffffffe8
    184c:	01040200 	mrseq	r0, R12_usr
    1850:	02000106 	andeq	r0, r0, #-2147483647	; 0x80000001
    1854:	064a0104 	strbeq	r0, [sl], -r4, lsl #2
    1858:	0612052f 	ldreq	r0, [r2], -pc, lsr #10
    185c:	0d054a01 	vstreq	s8, [r5, #-4]
    1860:	12052f06 	andne	r2, r5, #6, 30
    1864:	19050106 	stmdbne	r5, {r1, r2, r8}
    1868:	04054b06 	streq	r4, [r5], #-2822	; 0xfffff4fa
    186c:	02040200 	andeq	r0, r4, #0, 4
    1870:	00011103 	andeq	r1, r1, r3, lsl #2
    1874:	01020402 	tsteq	r2, r2, lsl #8
    1878:	02000205 	andeq	r0, r0, #1342177280	; 0x50000000
    187c:	05150204 	ldreq	r0, [r5, #-516]	; 0xfffffdfc
    1880:	04020009 	streq	r0, [r2], #-9
    1884:	00010602 	andeq	r0, r1, r2, lsl #12
    1888:	4a020402 	bmi	82898 <__bss_end__+0x779f0>
    188c:	02000105 	andeq	r0, r0, #1073741825	; 0x40000001
    1890:	059f0204 	ldreq	r0, [pc, #516]	; 1a9c <__code_start__-0x6564>
    1894:	6e030604 	cfmadd32vs	mvax0, mvfx0, mvfx3, mvfx4
    1898:	0609054a 	streq	r0, [r9], -sl, asr #10
    189c:	06040501 	streq	r0, [r4], -r1, lsl #10
    18a0:	0606052f 	streq	r0, [r6], -pc, lsr #10
    18a4:	2f040511 	svccs	0x00040511
    18a8:	63030b05 	movwvs	r0, #15109	; 0x3b05
    18ac:	0019052e 	andseq	r0, r9, lr, lsr #10
    18b0:	06010402 	streq	r0, [r1], -r2, lsl #8
    18b4:	052e2403 	streq	r2, [lr, #-1027]!	; 0xfffffbfd
    18b8:	0402001a 	streq	r0, [r2], #-26	; 0xffffffe6
    18bc:	28051301 	stmdacs	r5, {r0, r8, r9, ip}
    18c0:	01040200 	mrseq	r0, R12_usr
    18c4:	25050106 	strcs	r0, [r5, #-262]	; 0xfffffefa
    18c8:	01040200 	mrseq	r0, R12_usr
    18cc:	001f052e 	andseq	r0, pc, lr, lsr #10
    18d0:	4a010402 	bmi	428e0 <__bss_end__+0x37a38>
    18d4:	02000b05 	andeq	r0, r0, #5120	; 0x1400
    18d8:	4b060104 	blmi	181cf0 <__bss_end__+0x176e48>
    18dc:	02000405 	andeq	r0, r0, #83886080	; 0x5000000
    18e0:	01060104 	tsteq	r6, r4, lsl #2
    18e4:	01040200 	mrseq	r0, R12_usr
    18e8:	0402004a 	streq	r0, [r2], #-74	; 0xffffffb6
    18ec:	004e0601 	subeq	r0, lr, r1, lsl #12
    18f0:	01010402 	tsteq	r1, r2, lsl #8
    18f4:	01040200 	mrseq	r0, R12_usr
    18f8:	04020001 	streq	r0, [r2], #-1
    18fc:	02000101 	andeq	r0, r0, #1073741824	; 0x40000000
    1900:	2e060104 	adfcss	f0, f6, f4
    1904:	01040200 	mrseq	r0, R12_usr
    1908:	04020066 	streq	r0, [r2], #-102	; 0xffffff9a
    190c:	02002e01 	andeq	r2, r0, #1, 28
    1910:	4a060104 	bmi	181d28 <__bss_end__+0x176e80>
    1914:	a6034805 	strge	r4, [r3], -r5, lsl #16
    1918:	0520087f 	streq	r0, [r0, #-2175]!	; 0xfffff781
    191c:	06011305 	streq	r1, [r1], -r5, lsl #6
    1920:	0402002e 	streq	r0, [r2], #-46	; 0xffffffd2
    1924:	002e0602 	eoreq	r0, lr, r2, lsl #12
    1928:	01020402 	tsteq	r2, r2, lsl #8
    192c:	02040200 	andeq	r0, r4, #0, 4
    1930:	00110513 	andseq	r0, r1, r3, lsl r5
    1934:	06020402 	streq	r0, [r2], -r2, lsl #8
    1938:	00050501 	andeq	r0, r5, r1, lsl #10
    193c:	06020402 	streq	r0, [r2], -r2, lsl #8
    1940:	0007054b 	andeq	r0, r7, fp, asr #10
    1944:	06020402 	streq	r0, [r2], -r2, lsl #8
    1948:	06090501 	streq	r0, [r9], -r1, lsl #10
    194c:	060e054b 	streq	r0, [lr], -fp, asr #10
    1950:	00480501 	subeq	r0, r8, r1, lsl #10
    1954:	62010402 	andvs	r0, r1, #33554432	; 0x2000000
    1958:	02000505 	andeq	r0, r0, #20971520	; 0x1400000
    195c:	4b060104 	blmi	181d74 <__bss_end__+0x176ecc>
    1960:	01040200 	mrseq	r0, R12_usr
    1964:	04020001 	streq	r0, [r2], #-1
    1968:	009e0601 	addseq	r0, lr, r1, lsl #12
    196c:	2e010402 	cdpcs	4, 0, cr0, cr1, cr2, {0}
    1970:	01040200 	mrseq	r0, R12_usr
    1974:	40052e06 	andmi	r2, r5, r6, lsl #28
    1978:	d600e103 	strle	lr, [r0], -r3, lsl #2
    197c:	02050106 	andeq	r0, r5, #-2147483647	; 0x80000001
    1980:	1e059f06 	cdpne	15, 0, cr9, cr5, cr6, {0}
    1984:	12050106 	andne	r0, r5, #-2147483647	; 0x80000001
    1988:	0605052e 	streq	r0, [r5], -lr, lsr #10
    198c:	1402052f 	strne	r0, [r2], #-1327	; 0xfffffad1
    1990:	01060905 	tsteq	r6, r5, lsl #18
    1994:	4b060505 	blmi	182db0 <__bss_end__+0x177f08>
    1998:	05130205 	ldreq	r0, [r3, #-517]	; 0xfffffdfb
    199c:	050d0608 	streq	r0, [sp, #-1544]	; 0xfffff9f8
    19a0:	04053302 	streq	r3, [r5], #-770	; 0xfffffcfe
    19a4:	0f054c06 	svceq	0x00054c06
    19a8:	09050106 	stmdbeq	r5, {r1, r2, r8}
    19ac:	0608052e 	streq	r0, [r8], -lr, lsr #10
    19b0:	0602052c 	streq	r0, [r2], -ip, lsr #10
    19b4:	000d052e 	andeq	r0, sp, lr, lsr #10
    19b8:	4a010402 	bmi	429c8 <__bss_end__+0x37b20>
    19bc:	4b060305 	blmi	1825d8 <__bss_end__+0x177730>
    19c0:	01060505 	tsteq	r6, r5, lsl #10
    19c4:	4d060805 	stcmi	8, cr0, [r6, #-20]	; 0xffffffec
    19c8:	01060e05 	tsteq	r6, r5, lsl #28
    19cc:	052e0a05 	streq	r0, [lr, #-2565]!	; 0xfffff5fb
    19d0:	052f0604 	streq	r0, [pc, #-1540]!	; 13d4 <__code_start__-0x6c2c>
    19d4:	05010609 	streq	r0, [r1, #-1545]	; 0xfffff9f7
    19d8:	052f0604 	streq	r0, [pc, #-1540]!	; 13dc <__code_start__-0x6c24>
    19dc:	2e010607 	cfmadd32cs	mvax0, mvfx0, mvfx1, mvfx7
    19e0:	30060405 	andcc	r0, r6, r5, lsl #8
    19e4:	01060705 	tsteq	r6, r5, lsl #14
    19e8:	30060405 	andcc	r0, r6, r5, lsl #8
    19ec:	0d051413 	cfstrseq	mvf1, [r5, #-76]	; 0xffffffb4
    19f0:	09051006 	stmdbeq	r5, {r1, r2, ip}
    19f4:	12053006 	andne	r3, r5, #6, 0
    19f8:	0a050106 	beq	141e18 <__bss_end__+0x136f70>
    19fc:	6609052e 	strvs	r0, [r9], -lr, lsr #10
    1a00:	4b060505 	blmi	182e1c <__bss_end__+0x177f74>
    1a04:	01061205 	tsteq	r6, r5, lsl #4
    1a08:	052e1605 	streq	r1, [lr, #-1541]!	; 0xfffff9fb
    1a0c:	05052e0b 	streq	r2, [r5, #-3595]	; 0xfffff1f5
    1a10:	08052f06 	stmdaeq	r5, {r1, r2, r8, r9, sl, fp, sp}
    1a14:	052e0106 	streq	r0, [lr, #-262]!	; 0xfffffefa
    1a18:	01300604 	teqeq	r0, r4, lsl #12
    1a1c:	0015014a 	andseq	r0, r5, sl, asr #2
    1a20:	02010402 	andeq	r0, r1, #33554432	; 0x2000000
    1a24:	02000f36 	andeq	r0, r0, #216	; 0xd8
    1a28:	00010104 	andeq	r0, r1, r4, lsl #2
    1a2c:	d6010402 	strle	r0, [r1], -r2, lsl #8
    1a30:	13341105 	teqne	r4, #1073741825	; 0x40000001
    1a34:	04020001 	streq	r0, [r2], #-1
    1a38:	00ba0602 	adcseq	r0, sl, r2, lsl #12
    1a3c:	06030402 	streq	r0, [r3], -r2, lsl #8
    1a40:	040200ba 	streq	r0, [r2], #-186	; 0xffffff46
    1a44:	02000103 	andeq	r0, r0, #-1073741824	; 0xc0000000
    1a48:	05140304 	ldreq	r0, [r4, #-772]	; 0xfffffcfc
    1a4c:	04020015 	streq	r0, [r2], #-21	; 0xffffffeb
    1a50:	05010603 	streq	r0, [r1, #-1539]	; 0xfffff9fd
    1a54:	04020011 	streq	r0, [r2], #-17	; 0xffffffef
    1a58:	052f0603 	streq	r0, [pc, #-1539]!	; 145d <__code_start__-0x6ba3>
    1a5c:	0402001a 	streq	r0, [r2], #-26	; 0xffffffe6
    1a60:	05010603 	streq	r0, [r1, #-1539]	; 0xfffff9fd
    1a64:	04020011 	streq	r0, [r2], #-17	; 0xffffffef
    1a68:	00d70603 	sbcseq	r0, r7, r3, lsl #12
    1a6c:	13030402 	movwne	r0, #13314	; 0x3402
    1a70:	03040200 	movweq	r0, #16896	; 0x4200
    1a74:	04020014 	streq	r0, [r2], #-20	; 0xffffffec
    1a78:	02006703 	andeq	r6, r0, #786432	; 0xc0000
    1a7c:	05680304 	strbeq	r0, [r8, #-772]!	; 0xfffffcfc
    1a80:	04020014 	streq	r0, [r2], #-20	; 0xffffffec
    1a84:	05010603 	streq	r0, [r1, #-1539]	; 0xfffff9fd
    1a88:	04020013 	streq	r0, [r2], #-19	; 0xffffffed
    1a8c:	18058203 	stmdane	r5, {r0, r1, r9, pc}
    1a90:	1b054e06 	blne	1552b0 <__bss_end__+0x14a408>
    1a94:	1a050106 	bne	141eb4 <__bss_end__+0x13700c>
    1a98:	06090582 	streq	r0, [r9], -r2, lsl #11
    1a9c:	060d054b 	streq	r0, [sp], -fp, asr #10
    1aa0:	09052e01 	stmdbeq	r5, {r0, r9, sl, fp, sp}
    1aa4:	ba06f306 	blt	1be6c4 <__bss_end__+0x1b381c>
    1aa8:	30061505 	andcc	r1, r6, r5, lsl #10
    1aac:	01061805 	tsteq	r6, r5, lsl #16
    1ab0:	05661705 	strbeq	r1, [r6, #-1797]!	; 0xfffff8fb
    1ab4:	054b0619 	strbeq	r0, [fp, #-1561]	; 0xfffff9e7
    1ab8:	6f030615 	svcvs	0x00030615
    1abc:	06110566 	ldreq	r0, [r1], -r6, ror #10
    1ac0:	05d60148 	ldrbeq	r0, [r6, #328]	; 0x148
    1ac4:	2e0b0309 	cdpcs	3, 0, cr0, cr11, cr9, {0}
    1ac8:	01060d05 	tsteq	r6, r5, lsl #26
    1acc:	0609052e 	streq	r0, [r9], -lr, lsr #10
    1ad0:	05ba06f3 	ldreq	r0, [sl, #1779]!	; 0x6f3
    1ad4:	062f0615 			; <UNDEFINED> instruction: 0x062f0615
    1ad8:	05667503 	strbeq	r7, [r6, #-1283]!	; 0xfffffafd
    1adc:	13030619 	movwne	r0, #13849	; 0x3619
    1ae0:	0615054a 	ldreq	r0, [r5], -sl, asr #10
    1ae4:	06666d03 	strbteq	r6, [r6], -r3, lsl #26
    1ae8:	014a1503 	cmpeq	sl, r3, lsl #10
    1aec:	052e06ba 	streq	r0, [lr, #-1722]!	; 0xfffff946
    1af0:	011a0605 	tsteq	sl, r5, lsl #12
    1af4:	0e032e9e 	mcreq	14, 0, r2, cr3, cr14, {4}
    1af8:	06090501 	streq	r0, [r9], -r1, lsl #10
    1afc:	06050501 	streq	r0, [r5], -r1, lsl #10
    1b00:	04057508 	streq	r7, [r5], #-1288	; 0xfffffaf8
    1b04:	05011803 	streq	r1, [r1, #-2051]	; 0xfffff7fd
    1b08:	05010607 	streq	r0, [r1, #-1543]	; 0xfffff9f9
    1b0c:	05310604 	ldreq	r0, [r1, #-1540]!	; 0xfffff9fc
    1b10:	2e670305 	cdpcs	3, 6, cr0, cr7, cr5, {0}
    1b14:	01061c05 	tsteq	r6, r5, lsl #24
    1b18:	05820905 	streq	r0, [r2, #2309]	; 0x905
    1b1c:	31f30605 	mvnscc	r0, r5, lsl #12
    1b20:	01061c05 	tsteq	r6, r5, lsl #24
    1b24:	05820905 	streq	r0, [r2, #2309]	; 0x905
    1b28:	30f30605 	rscscc	r0, r3, r5, lsl #12
    1b2c:	01061b05 	tsteq	r6, r5, lsl #22
    1b30:	05820905 	streq	r0, [r2, #2309]	; 0x905
    1b34:	30f30605 	rscscc	r0, r3, r5, lsl #12
    1b38:	01060705 	tsteq	r6, r5, lsl #14
    1b3c:	83060505 	movwhi	r0, #25861	; 0x6505
    1b40:	06090530 			; <UNDEFINED> instruction: 0x06090530
    1b44:	06050501 	streq	r0, [r5], -r1, lsl #10
    1b48:	11057508 	tstne	r5, r8, lsl #10
    1b4c:	06220530 			; <UNDEFINED> instruction: 0x06220530
    1b50:	06050501 	streq	r0, [r5], -r1, lsl #10
    1b54:	8311054b 	tsthi	r1, #314572800	; 0x12c00000
    1b58:	01830505 	orreq	r0, r3, r5, lsl #10
    1b5c:	0e05359e 	mcreq	5, 0, r3, cr5, cr14, {4}
    1b60:	0a050106 	beq	141f80 <__bss_end__+0x1370d8>
    1b64:	052d062e 	streq	r0, [sp, #-1582]!	; 0xfffff9d2
    1b68:	05010604 	streq	r0, [r1, #-1540]	; 0xfffff9fc
    1b6c:	04020013 	streq	r0, [r2], #-19	; 0xffffffed
    1b70:	10054a01 	andne	r4, r5, r1, lsl #20
    1b74:	01040200 	mrseq	r0, R12_usr
    1b78:	0402002e 	streq	r0, [r2], #-46	; 0xffffffd2
    1b7c:	02056601 	andeq	r6, r5, #1048576	; 0x100000
    1b80:	07051606 	streq	r1, [r5, -r6, lsl #12]
    1b84:	02050106 	andeq	r0, r5, #-2147483647	; 0x80000001
    1b88:	01054b06 	tsteq	r5, r6, lsl #22
    1b8c:	02661306 	rsbeq	r1, r6, #402653184	; 0x18000000
    1b90:	0101001e 	tsteq	r1, lr, lsl r0
    1b94:	000000a5 	andeq	r0, r0, r5, lsr #1
    1b98:	008a0003 	addeq	r0, sl, r3
    1b9c:	01020000 	mrseq	r0, (UNDEF: 2)
    1ba0:	000d0efb 	strdeq	r0, [sp], -fp
    1ba4:	01010101 	tsteq	r1, r1, lsl #2
    1ba8:	01000000 	mrseq	r0, (UNDEF: 0)
    1bac:	2e010000 	cdpcs	0, 0, cr0, cr1, cr0, {0}
    1bb0:	6174732f 	cmnvs	r4, pc, lsr #6
    1bb4:	732d6666 			; <UNDEFINED> instruction: 0x732d6666
    1bb8:	2f006372 	svccs	0x00006372
    1bbc:	72657355 	rsbvc	r7, r5, #1409286145	; 0x54000001
    1bc0:	72742f73 	rsbsvc	r2, r4, #460	; 0x1cc
    1bc4:	65747369 	ldrbvs	r7, [r4, #-873]!	; 0xfffffc97
    1bc8:	6c6f6e6e 	stclvs	14, cr6, [pc], #-440	; 1a18 <__code_start__-0x65e8>
    1bcc:	6e616d6c 	cdpvs	13, 6, cr6, cr1, cr12, {3}
    1bd0:	636f442f 	cmnvs	pc, #788529152	; 0x2f000000
    1bd4:	6e656d75 	mcrvs	13, 3, r6, cr5, cr5, {3}
    1bd8:	532f7374 			; <UNDEFINED> instruction: 0x532f7374
    1bdc:	6e697270 	mcrvs	2, 3, r7, cr9, cr0, {3}
    1be0:	75515f67 	ldrbvc	r5, [r1, #-3943]	; 0xfffff099
    1be4:	65747261 	ldrbvs	r7, [r4, #-609]!	; 0xfffffd9f
    1be8:	30325f72 	eorscc	r5, r2, r2, ror pc
    1bec:	432f3232 			; <UNDEFINED> instruction: 0x432f3232
    1bf0:	30343253 	eorscc	r3, r4, r3, asr r2
    1bf4:	732d584c 			; <UNDEFINED> instruction: 0x732d584c
    1bf8:	32327270 	eorscc	r7, r2, #112, 4
    1bfc:	62696c2f 	rsbvs	r6, r9, #12032	; 0x2f00
    1c00:	692f6970 	stmdbvs	pc!, {r4, r5, r6, r8, fp, sp, lr}	; <UNPREDICTABLE>
    1c04:	756c636e 	strbvc	r6, [ip, #-878]!	; 0xfffffc92
    1c08:	00006564 	andeq	r6, r0, r4, ror #10
    1c0c:	61656c63 	cmnvs	r5, r3, ror #24
    1c10:	65722d6e 	ldrbvs	r2, [r2, #-3438]!	; 0xfffff292
    1c14:	746f6f62 	strbtvc	r6, [pc], #-3938	; 1c1c <__code_start__-0x63e4>
    1c18:	0100632e 	tsteq	r0, lr, lsr #6
    1c1c:	70720000 	rsbsvc	r0, r2, r0
    1c20:	00682e69 	rsbeq	r2, r8, r9, ror #28
    1c24:	00000002 	andeq	r0, r0, r2
    1c28:	05001905 	streq	r1, [r0, #-2309]	; 0xfffff6fb
    1c2c:	0096cc02 	addseq	ip, r6, r2, lsl #24
    1c30:	05051500 	streq	r1, [r5, #-1280]	; 0xfffffb00
    1c34:	4b2f832f 	blmi	be28f8 <__bss_end__+0xbd7a50>
    1c38:	01000602 	tsteq	r0, r2, lsl #12
    1c3c:	0000bf01 	andeq	fp, r0, r1, lsl #30
    1c40:	84000300 	strhi	r0, [r0], #-768	; 0xfffffd00
    1c44:	02000000 	andeq	r0, r0, #0, 0
    1c48:	0d0efb01 	vstreq	d15, [lr, #-4]
    1c4c:	01010100 	mrseq	r0, (UNDEF: 17)
    1c50:	00000001 	andeq	r0, r0, r1
    1c54:	01000001 	tsteq	r0, r1
    1c58:	74732f2e 	ldrbtvc	r2, [r3], #-3886	; 0xfffff0d2
    1c5c:	2d666661 	stclcs	6, cr6, [r6, #-388]!	; 0xfffffe7c
    1c60:	00637273 	rsbeq	r7, r3, r3, ror r2
    1c64:	6573552f 	ldrbvs	r5, [r3, #-1327]!	; 0xfffffad1
    1c68:	742f7372 	strtvc	r7, [pc], #-882	; 1c70 <__code_start__-0x6390>
    1c6c:	74736972 	ldrbtvc	r6, [r3], #-2418	; 0xfffff68e
    1c70:	6f6e6e65 	svcvs	0x006e6e65
    1c74:	616d6c6c 	cmnvs	sp, ip, ror #24
    1c78:	6f442f6e 	svcvs	0x00442f6e
    1c7c:	656d7563 	strbvs	r7, [sp, #-1379]!	; 0xfffffa9d
    1c80:	2f73746e 	svccs	0x0073746e
    1c84:	69727053 	ldmdbvs	r2!, {r0, r1, r4, r6, ip, sp, lr}^
    1c88:	515f676e 	cmppl	pc, lr, ror #14
    1c8c:	74726175 	ldrbtvc	r6, [r2], #-373	; 0xfffffe8b
    1c90:	325f7265 	subscc	r7, pc, #1342177286	; 0x50000006
    1c94:	2f323230 	svccs	0x00323230
    1c98:	34325343 	ldrtcc	r5, [r2], #-835	; 0xfffffcbd
    1c9c:	2d584c30 	ldclcs	12, cr4, [r8, #-192]	; 0xffffff40
    1ca0:	32727073 	rsbscc	r7, r2, #115, 0	; 0x73
    1ca4:	696c2f32 	stmdbvs	ip!, {r1, r4, r5, r8, r9, sl, fp, sp}^
    1ca8:	2f697062 	svccs	0x00697062
    1cac:	6c636e69 	stclvs	14, cr6, [r3], #-420	; 0xfffffe5c
    1cb0:	00656475 	rsbeq	r6, r5, r5, ror r4
    1cb4:	74736300 	ldrbtvc	r6, [r3], #-768	; 0xfffffd00
    1cb8:	2e747261 	cdpcs	2, 7, cr7, cr4, cr1, {3}
    1cbc:	00010063 	andeq	r0, r1, r3, rrx
    1cc0:	69707200 	ldmdbvs	r0!, {r9, ip, sp, lr}^
    1cc4:	0200682e 	andeq	r6, r0, #3014656	; 0x2e0000
    1cc8:	05000000 	streq	r0, [r0, #-0]
    1ccc:	02050010 	andeq	r0, r5, #16, 0
    1cd0:	000096f8 	strdeq	r9, [r0], -r8
    1cd4:	2f050515 	svccs	0x00050515
    1cd8:	05130205 	ldreq	r0, [r3, #-517]	; 0xfffffdfb
    1cdc:	13301405 	teqne	r0, #83886080	; 0x5000000
    1ce0:	060a0514 			; <UNDEFINED> instruction: 0x060a0514
    1ce4:	0531060f 	ldreq	r0, [r1, #-1551]!	; 0xfffff9f1
    1ce8:	10054b09 	andne	r4, r5, r9, lsl #22
    1cec:	054a0106 	strbeq	r0, [sl, #-262]	; 0xfffffefa
    1cf0:	32300605 	eorscc	r0, r0, #5242880	; 0x500000
    1cf4:	144a0101 	strbne	r0, [sl], #-257	; 0xfffffeff
    1cf8:	022f0205 	eoreq	r0, pc, #1342177280	; 0x50000000
    1cfc:	01010006 	tsteq	r1, r6
    1d00:	000000a3 	andeq	r0, r0, r3, lsr #1
    1d04:	008b0003 	addeq	r0, fp, r3
    1d08:	01020000 	mrseq	r0, (UNDEF: 2)
    1d0c:	000d0efb 	strdeq	r0, [sp], -fp
    1d10:	01010101 	tsteq	r1, r1, lsl #2
    1d14:	01000000 	mrseq	r0, (UNDEF: 0)
    1d18:	2e010000 	cdpcs	0, 0, cr0, cr1, cr0, {0}
    1d1c:	6174732f 	cmnvs	r4, pc, lsr #6
    1d20:	732d6666 			; <UNDEFINED> instruction: 0x732d6666
    1d24:	2f006372 	svccs	0x00006372
    1d28:	72657355 	rsbvc	r7, r5, #1409286145	; 0x54000001
    1d2c:	72742f73 	rsbsvc	r2, r4, #460	; 0x1cc
    1d30:	65747369 	ldrbvs	r7, [r4, #-873]!	; 0xfffffc97
    1d34:	6c6f6e6e 	stclvs	14, cr6, [pc], #-440	; 1b84 <__code_start__-0x647c>
    1d38:	6e616d6c 	cdpvs	13, 6, cr6, cr1, cr12, {3}
    1d3c:	636f442f 	cmnvs	pc, #788529152	; 0x2f000000
    1d40:	6e656d75 	mcrvs	13, 3, r6, cr5, cr5, {3}
    1d44:	532f7374 			; <UNDEFINED> instruction: 0x532f7374
    1d48:	6e697270 	mcrvs	2, 3, r7, cr9, cr0, {3}
    1d4c:	75515f67 	ldrbvc	r5, [r1, #-3943]	; 0xfffff099
    1d50:	65747261 	ldrbvs	r7, [r4, #-609]!	; 0xfffffd9f
    1d54:	30325f72 	eorscc	r5, r2, r2, ror pc
    1d58:	432f3232 			; <UNDEFINED> instruction: 0x432f3232
    1d5c:	30343253 	eorscc	r3, r4, r3, asr r2
    1d60:	732d584c 			; <UNDEFINED> instruction: 0x732d584c
    1d64:	32327270 	eorscc	r7, r2, #112, 4
    1d68:	62696c2f 	rsbvs	r6, r9, #12032	; 0x2f00
    1d6c:	692f6970 	stmdbvs	pc!, {r4, r5, r6, r8, fp, sp, lr}	; <UNPREDICTABLE>
    1d70:	756c636e 	strbvc	r6, [ip, #-878]!	; 0xfffffc92
    1d74:	00006564 	andeq	r6, r0, r4, ror #10
    1d78:	74737563 	ldrbtvc	r7, [r3], #-1379	; 0xfffffa9d
    1d7c:	6c2d6d6f 	stcvs	13, cr6, [sp], #-444	; 0xfffffe44
    1d80:	6564616f 	strbvs	r6, [r4, #-367]!	; 0xfffffe91
    1d84:	00632e72 	rsbeq	r2, r3, r2, ror lr
    1d88:	72000001 	andvc	r0, r0, #1, 0
    1d8c:	682e6970 	stmdavs	lr!, {r4, r5, r6, r8, fp, sp, lr}
    1d90:	00000200 	andeq	r0, r0, r0, lsl #4
    1d94:	001a0500 	andseq	r0, sl, r0, lsl #10
    1d98:	97340205 	ldrls	r0, [r4, -r5, lsl #4]!
    1d9c:	05150000 	ldreq	r0, [r5, #-0]
    1da0:	02021401 	andeq	r1, r2, #16777216	; 0x1000000
    1da4:	f3010100 	vrhadd.u8	d0, d1, d0
    1da8:	03000000 	movweq	r0, #0
    1dac:	00008400 	andeq	r8, r0, r0, lsl #8
    1db0:	fb010200 	blx	425ba <__bss_end__+0x37712>
    1db4:	01000d0e 	tsteq	r0, lr, lsl #26
    1db8:	00010101 	andeq	r0, r1, r1, lsl #2
    1dbc:	00010000 	andeq	r0, r1, r0
    1dc0:	2f2e0100 	svccs	0x002e0100
    1dc4:	66617473 			; <UNDEFINED> instruction: 0x66617473
    1dc8:	72732d66 	rsbsvc	r2, r3, #6528	; 0x1980
    1dcc:	552f0063 	strpl	r0, [pc, #-99]!	; 1d71 <__code_start__-0x628f>
    1dd0:	73726573 	cmnvc	r2, #482344960	; 0x1cc00000
    1dd4:	6972742f 	ldmdbvs	r2!, {r0, r1, r2, r3, r5, sl, ip, sp, lr}^
    1dd8:	6e657473 	mcrvs	4, 3, r7, cr5, cr3, {3}
    1ddc:	6c6c6f6e 	stclvs	15, cr6, [ip], #-440	; 0xfffffe48
    1de0:	2f6e616d 	svccs	0x006e616d
    1de4:	75636f44 	strbvc	r6, [r3, #-3908]!	; 0xfffff0bc
    1de8:	746e656d 	strbtvc	r6, [lr], #-1389	; 0xfffffa93
    1dec:	70532f73 	subsvc	r2, r3, r3, ror pc
    1df0:	676e6972 			; <UNDEFINED> instruction: 0x676e6972
    1df4:	6175515f 	cmnvs	r5, pc, asr r1
    1df8:	72657472 	rsbvc	r7, r5, #1912602624	; 0x72000000
    1dfc:	3230325f 	eorscc	r3, r0, #-268435451	; 0xf0000005
    1e00:	53432f32 	movtpl	r2, #16178	; 0x3f32
    1e04:	4c303432 	cfldrsmi	mvf3, [r0], #-200	; 0xffffff38
    1e08:	70732d58 	rsbsvc	r2, r3, r8, asr sp
    1e0c:	2f323272 	svccs	0x00323272
    1e10:	7062696c 	rsbvc	r6, r2, ip, ror #18
    1e14:	6e692f69 	cdpvs	15, 6, cr2, cr9, cr9, {3}
    1e18:	64756c63 	ldrbtvs	r6, [r5], #-3171	; 0xfffff39d
    1e1c:	72000065 	andvc	r0, r0, #101, 0	; 0x65
    1e20:	6f6f6265 	svcvs	0x006f6265
    1e24:	00632e74 	rsbeq	r2, r3, r4, ror lr
    1e28:	72000001 	andvc	r0, r0, #1, 0
    1e2c:	682e6970 	stmdavs	lr!, {r4, r5, r6, r8, fp, sp, lr}
    1e30:	00000200 	andeq	r0, r0, r0, lsl #4
    1e34:	00190500 	andseq	r0, r9, r0, lsl #10
    1e38:	97380205 	ldrls	r0, [r8, -r5, lsl #4]!
    1e3c:	0d030000 	stceq	0, cr0, [r3, #-0]
    1e40:	13050501 	movwne	r0, #21761	; 0x5501
    1e44:	13053113 	movwne	r3, #20755	; 0x5113
    1e48:	01050106 	tsteq	r5, r6, lsl #2
    1e4c:	061b052f 	ldreq	r0, [fp], -pc, lsr #10
    1e50:	13050585 	movwne	r0, #21893	; 0x5585
    1e54:	2f090514 	svccs	0x00090514
    1e58:	01061605 	tsteq	r6, r5, lsl #12
    1e5c:	052e0e05 	streq	r0, [lr, #-3589]!	; 0xfffff1fb
    1e60:	052f0605 	streq	r0, [pc, #-1541]!	; 1863 <__code_start__-0x679d>
    1e64:	052f0601 	streq	r0, [pc, #-1537]!	; 186b <__code_start__-0x6795>
    1e68:	05300617 	ldreq	r0, [r0, #-1559]!	; 0xfffff9e9
    1e6c:	08052f05 	stmdaeq	r5, {r0, r2, r8, r9, sl, fp, sp}
    1e70:	07050106 	streq	r0, [r5, -r6, lsl #2]
    1e74:	0605052e 	streq	r0, [r5], -lr, lsr #10
    1e78:	4d2f3050 	stcmi	0, cr3, [pc, #-320]!	; 1d40 <__code_start__-0x62c0>
    1e7c:	15131313 	ldrne	r1, [r3, #-787]	; 0xfffffced
    1e80:	04020067 	streq	r0, [r2], #-103	; 0xffffff99
    1e84:	0d056701 	stceq	7, cr6, [r5, #-4]
    1e88:	01040200 	mrseq	r0, R12_usr
    1e8c:	000a0501 	andeq	r0, sl, r1, lsl #10
    1e90:	01010402 	tsteq	r1, r2, lsl #8
    1e94:	6d030905 	vstrvs.16	s0, [r3, #-10]	; <UNPREDICTABLE>
    1e98:	000c022e 	andeq	r0, ip, lr, lsr #4
    1e9c:	00fa0101 	rscseq	r0, sl, r1, lsl #2
    1ea0:	00030000 	andeq	r0, r3, r0
    1ea4:	00000083 	andeq	r0, r0, r3, lsl #1
    1ea8:	0efb0102 	cdpeq	1, 15, cr0, cr11, cr2, {0}
    1eac:	0101000d 	tsteq	r1, sp
    1eb0:	00000101 	andeq	r0, r0, r1, lsl #2
    1eb4:	00000100 	andeq	r0, r0, r0, lsl #2
    1eb8:	732f2e01 			; <UNDEFINED> instruction: 0x732f2e01
    1ebc:	66666174 			; <UNDEFINED> instruction: 0x66666174
    1ec0:	6372732d 	cmnvs	r2, #-1275068416	; 0xb4000000
    1ec4:	73552f00 	cmpvc	r5, #0, 30
    1ec8:	2f737265 	svccs	0x00737265
    1ecc:	73697274 	cmnvc	r9, #116, 4	; 0x40000007
    1ed0:	6e6e6574 	mcrvs	5, 3, r6, cr14, cr4, {3}
    1ed4:	6d6c6c6f 	stclvs	12, cr6, [ip, #-444]!	; 0xfffffe44
    1ed8:	442f6e61 	strtmi	r6, [pc], #-3681	; 1ee0 <__code_start__-0x6120>
    1edc:	6d75636f 	ldclvs	3, cr6, [r5, #-444]!	; 0xfffffe44
    1ee0:	73746e65 	cmnvc	r4, #1616	; 0x650
    1ee4:	7270532f 	rsbsvc	r5, r0, #-1140850688	; 0xbc000000
    1ee8:	5f676e69 	svcpl	0x00676e69
    1eec:	72617551 	rsbvc	r7, r1, #339738624	; 0x14400000
    1ef0:	5f726574 	svcpl	0x00726574
    1ef4:	32323032 	eorscc	r3, r2, #50, 0	; 0x32
    1ef8:	3253432f 	subscc	r4, r3, #-1140850688	; 0xbc000000
    1efc:	584c3034 	stmdapl	ip, {r2, r4, r5, ip, sp}^
    1f00:	7270732d 	rsbsvc	r7, r0, #-1275068416	; 0xb4000000
    1f04:	6c2f3232 	sfmvs	f3, 4, [pc], #-200	; 1e44 <__code_start__-0x61bc>
    1f08:	69706269 	ldmdbvs	r0!, {r0, r3, r5, r6, r9, sp, lr}^
    1f0c:	636e692f 	cmnvs	lr, #770048	; 0xbc000
    1f10:	6564756c 	strbvs	r7, [r4, #-1388]!	; 0xfffffa94
    1f14:	69740000 	ldmdbvs	r4!, {}^	; <UNPREDICTABLE>
    1f18:	2e72656d 	cdpcs	5, 7, cr6, cr2, cr13, {3}
    1f1c:	00010063 	andeq	r0, r1, r3, rrx
    1f20:	69707200 	ldmdbvs	r0!, {r9, ip, sp, lr}^
    1f24:	0200682e 	andeq	r6, r0, #3014656	; 0x2e0000
    1f28:	05000000 	streq	r0, [r0, #-0]
    1f2c:	02050023 	andeq	r0, r5, #35, 0	; 0x23
    1f30:	000097b8 			; <UNDEFINED> instruction: 0x000097b8
    1f34:	2f050515 	svccs	0x00050515
    1f38:	01060c05 	tsteq	r6, r5, lsl #24
    1f3c:	054b0105 	strbeq	r0, [fp, #-261]	; 0xfffffefb
    1f40:	054d061f 	strbeq	r0, [sp, #-1567]	; 0xfffff9e1
    1f44:	052f3105 	streq	r3, [pc, #-261]!	; 1e47 <__code_start__-0x61b9>
    1f48:	05010612 	streq	r0, [r1, #-1554]	; 0xfffff9ee
    1f4c:	2f4b0605 	svccs	0x004b0605
    1f50:	13060105 	movwne	r0, #24837	; 0x6105
    1f54:	4c061c05 	stcmi	12, cr1, [r6], {5}
    1f58:	05050106 	streq	r0, [r5, #-262]	; 0xfffffefa
    1f5c:	13054b06 	movwne	r4, #23302	; 0x5b06
    1f60:	052e0106 	streq	r0, [lr, #-262]!	; 0xfffffefa
    1f64:	052f0605 	streq	r0, [pc, #-1541]!	; 1967 <__code_start__-0x6699>
    1f68:	17051309 	strne	r1, [r5, -r9, lsl #6]
    1f6c:	09050106 	stmdbeq	r5, {r1, r2, r8}
    1f70:	11052f06 	tstne	r5, r6, lsl #30
    1f74:	0c050106 	stfeqs	f0, [r5], {6}
    1f78:	061c052e 	ldreq	r0, [ip], -lr, lsr #10
    1f7c:	0501066b 	streq	r0, [r1, #-1643]	; 0xfffff995
    1f80:	062f0605 	strteq	r0, [pc], -r5, lsl #12
    1f84:	4b01054a 	blmi	434b4 <__bss_end__+0x3860c>
    1f88:	2f061e05 	svccs	0x00061e05
    1f8c:	05050106 	streq	r0, [r5, #-262]	; 0xfffffefa
    1f90:	4a062f06 	bmi	18dbb0 <__bss_end__+0x182d08>
    1f94:	024b0105 	subeq	r0, fp, #1073741825	; 0x40000001
    1f98:	01010002 	tsteq	r1, r2
    1f9c:	00000205 	andeq	r0, r0, r5, lsl #4
    1fa0:	00c90003 	sbceq	r0, r9, r3
    1fa4:	01020000 	mrseq	r0, (UNDEF: 2)
    1fa8:	000d0efb 	strdeq	r0, [sp], -fp
    1fac:	01010101 	tsteq	r1, r1, lsl #2
    1fb0:	01000000 	mrseq	r0, (UNDEF: 0)
    1fb4:	2f010000 	svccs	0x00010000
    1fb8:	656d6f68 	strbvs	r6, [sp, #-3944]!	; 0xfffff098
    1fbc:	676e652f 	strbvs	r6, [lr, -pc, lsr #10]!
    1fc0:	2f72656c 	svccs	0x0072656c
    1fc4:	73616c63 	cmnvc	r1, #25344	; 0x6300
    1fc8:	73632f73 	cmnvc	r3, #460	; 0x1cc
    1fcc:	6c303432 	cfldrsvs	mvf3, [r0], #-200	; 0xffffff38
    1fd0:	32322d78 	eorscc	r2, r2, #120, 26	; 0x1e00
    1fd4:	2f727073 	svccs	0x00727073
    1fd8:	62696c2f 	rsbvs	r6, r9, #12032	; 0x2f00
    1fdc:	692f6970 	stmdbvs	pc!, {r4, r5, r6, r8, fp, sp, lr}	; <UNPREDICTABLE>
    1fe0:	756c636e 	strbvc	r6, [ip, #-878]!	; 0xfffffc92
    1fe4:	2f006564 	svccs	0x00006564
    1fe8:	2f727375 	svccs	0x00727375
    1fec:	72616873 	rsbvc	r6, r1, #7536640	; 0x730000
    1ff0:	63672f65 	cmnvs	r7, #404	; 0x194
    1ff4:	72612d63 	rsbvc	r2, r1, #6336	; 0x18c0
    1ff8:	6f6e2d6d 	svcvs	0x006e2d6d
    1ffc:	652d656e 	strvs	r6, [sp, #-1390]!	; 0xfffffa92
    2000:	2d696261 	sfmcs	f6, 2, [r9, #-388]!	; 0xfffffe7c
    2004:	332e3031 			; <UNDEFINED> instruction: 0x332e3031
    2008:	3230322d 	eorscc	r3, r0, #-805306366	; 0xd0000002
    200c:	30312e31 	eorscc	r2, r1, r1, lsr lr
    2010:	62696c2f 	rsbvs	r6, r9, #12032	; 0x2f00
    2014:	6363672f 	cmnvs	r3, #12320768	; 0xbc0000
    2018:	6d72612f 	ldfvse	f6, [r2, #-188]!	; 0xffffff44
    201c:	6e6f6e2d 	cdpvs	14, 6, cr6, cr15, cr13, {1}
    2020:	61652d65 	cmnvs	r5, r5, ror #26
    2024:	312f6962 			; <UNDEFINED> instruction: 0x312f6962
    2028:	2e332e30 	mrccs	14, 1, r2, cr3, cr0, {1}
    202c:	6e692f31 	mcrvs	15, 3, r2, cr9, cr1, {1}
    2030:	64756c63 	ldrbtvs	r6, [r5], #-3171	; 0xfffff39d
    2034:	75000065 	strvc	r0, [r0, #-101]	; 0xffffff9b
    2038:	2e747261 	cdpcs	2, 7, cr7, cr4, cr1, {3}
    203c:	00000063 	andeq	r0, r0, r3, rrx
    2040:	72617500 	rsbvc	r7, r1, #0, 10
    2044:	00682e74 	rsbeq	r2, r8, r4, ror lr
    2048:	72000001 	andvc	r0, r0, #1, 0
    204c:	682e6970 	stmdavs	lr!, {r4, r5, r6, r8, fp, sp, lr}
    2050:	00000100 	andeq	r0, r0, r0, lsl #2
    2054:	6f697067 	svcvs	0x00697067
    2058:	0100682e 	tsteq	r0, lr, lsr #16
    205c:	74730000 	ldrbtvc	r0, [r3], #-0
    2060:	746e6964 	strbtvc	r6, [lr], #-2404	; 0xfffff69c
    2064:	6363672d 	cmnvs	r3, #11796480	; 0xb40000
    2068:	0200682e 	andeq	r6, r0, #3014656	; 0x2e0000
    206c:	05000000 	streq	r0, [r0, #-0]
    2070:	02050039 	andeq	r0, r5, #57, 0	; 0x39
    2074:	0000983c 	andeq	r9, r0, ip, lsr r8
    2078:	06013003 	streq	r3, [r1], -r3
    207c:	06050501 	streq	r0, [r5], -r1, lsl #10
    2080:	06110567 	ldreq	r0, [r1], -r7, ror #10
    2084:	2e050501 	cfsh32cs	mvfx0, mvfx5, #1
    2088:	05670105 	strbeq	r0, [r7, #-261]!	; 0xfffffefb
    208c:	06290638 			; <UNDEFINED> instruction: 0x06290638
    2090:	06050501 	streq	r0, [r5], -r1, lsl #10
    2094:	06110567 	ldreq	r0, [r1], -r7, ror #10
    2098:	2e050501 	cfsh32cs	mvfx0, mvfx5, #1
    209c:	05670105 	strbeq	r0, [r7, #-261]!	; 0xfffffefb
    20a0:	15030616 	strne	r0, [r3, #-1558]	; 0xfffff9ea
    20a4:	3505052e 	strcc	r0, [r5, #-1326]	; 0xfffffad2
    20a8:	68356867 	ldmdavs	r5!, {r0, r1, r2, r5, r6, fp, sp, lr}
    20ac:	852e0c03 	strhi	r0, [lr, #-3075]!	; 0xfffff3fd
    20b0:	0369696b 	cmneq	r9, #1753088	; 0x1ac000
    20b4:	6b13660c 	blvs	4db8ec <__bss_end__+0x4d0a44>
    20b8:	06010567 	streq	r0, [r1], -r7, ror #10
    20bc:	0619052f 	ldreq	r0, [r9], -pc, lsr #10
    20c0:	05052508 	streq	r2, [r5, #-1288]	; 0xfffffaf8
    20c4:	060d0534 			; <UNDEFINED> instruction: 0x060d0534
    20c8:	4c010501 	cfstr32mi	mvfx0, [r1], {1}
    20cc:	67061905 	strvs	r1, [r6, -r5, lsl #18]
    20d0:	05360505 	ldreq	r0, [r6, #-1285]!	; 0xfffffafb
    20d4:	0501060d 	streq	r0, [r1, #-1549]	; 0xfffff9f3
    20d8:	01054a28 	tsteq	r5, r8, lsr #20
    20dc:	06150530 			; <UNDEFINED> instruction: 0x06150530
    20e0:	2f050587 	svccs	0x00050587
    20e4:	0009052f 	andeq	r0, r9, pc, lsr #10
    20e8:	13010402 	movwne	r0, #5122	; 0x1402
    20ec:	02000a05 	andeq	r0, r0, #20480	; 0x5000
    20f0:	05110104 	ldreq	r0, [r1, #-260]	; 0xfffffefc
    20f4:	0402000c 	streq	r0, [r2], #-12
    20f8:	05010601 	streq	r0, [r1, #-1537]	; 0xfffff9ff
    20fc:	0402000a 	streq	r0, [r2], #-10
    2100:	05052e01 	streq	r2, [r5, #-3585]	; 0xfffff1ff
    2104:	0e054c06 	cdpeq	12, 0, cr4, cr5, cr6, {0}
    2108:	09050106 	stmdbeq	r5, {r1, r2, r8}
    210c:	0605054a 	streq	r0, [r5], -sl, asr #10
    2110:	01052f2f 	tsteq	r5, pc, lsr #30
    2114:	1c051306 	stcne	3, cr1, [r5], {6}
    2118:	01066706 	tsteq	r6, r6, lsl #14
    211c:	4b060505 	blmi	183538 <__bss_end__+0x178690>
    2120:	0009052f 	andeq	r0, r9, pc, lsr #10
    2124:	13010402 	movwne	r0, #5122	; 0x1402
    2128:	02000a05 	andeq	r0, r0, #20480	; 0x5000
    212c:	05110104 	ldreq	r0, [r1, #-260]	; 0xfffffefc
    2130:	0402000c 	streq	r0, [r2], #-12
    2134:	05010601 	streq	r0, [r1, #-1537]	; 0xfffff9ff
    2138:	0402000a 	streq	r0, [r2], #-10
    213c:	05052e01 	streq	r2, [r5, #-3585]	; 0xfffff1ff
    2140:	05674c06 	strbeq	r4, [r7, #-3078]!	; 0xfffff3fa
    2144:	052f0601 	streq	r0, [pc, #-1537]!	; 1b4b <__code_start__-0x64b5>
    2148:	054c0619 	strbeq	r0, [ip, #-1561]	; 0xfffff9e7
    214c:	2a052e1b 	bcs	14d9c0 <__bss_end__+0x142b18>
    2150:	0631052e 	ldrteq	r0, [r1], -lr, lsr #10
    2154:	2e420501 	cdpcs	5, 4, cr0, cr2, cr1, {0}
    2158:	31061c05 	tstcc	r6, r5, lsl #24
    215c:	032f0505 			; <UNDEFINED> instruction: 0x032f0505
    2160:	0e052e09 	cdpeq	14, 0, cr2, cr5, cr9, {0}
    2164:	21050106 	tstcs	r5, r6, lsl #2
    2168:	0301054a 	movweq	r0, #5450	; 0x154a
    216c:	1a052e0a 	bne	14d99c <__bss_end__+0x142af4>
    2170:	09056806 	stmdbeq	r5, {r1, r2, fp, sp, lr}
    2174:	01040200 	mrseq	r0, R12_usr
    2178:	000a0530 	andeq	r0, sl, r0, lsr r5
    217c:	11010402 	tstne	r1, r2, lsl #8
    2180:	02000c05 	andeq	r0, r0, #1280	; 0x500
    2184:	01060104 	tsteq	r6, r4, lsl #2
    2188:	02000a05 	andeq	r0, r0, #20480	; 0x5000
    218c:	052e0104 	streq	r0, [lr, #-260]!	; 0xfffffefc
    2190:	e8030619 	stmda	r3, {r0, r3, r4, r9, sl}
    2194:	0505667e 	streq	r6, [r5, #-1662]	; 0xfffff982
    2198:	672f2f2f 	strvs	r2, [pc, -pc, lsr #30]!
    219c:	2f060105 	svccs	0x00060105
    21a0:	01000402 	tsteq	r0, r2, lsl #8
    21a4:	00039301 	andeq	r9, r3, r1, lsl #6
    21a8:	b8000300 	stmdalt	r0, {r8, r9}
    21ac:	02000000 	andeq	r0, r0, #0, 0
    21b0:	0d0efb01 	vstreq	d15, [lr, #-4]
    21b4:	01010100 	mrseq	r0, (UNDEF: 17)
    21b8:	00000001 	andeq	r0, r0, r1
    21bc:	01000001 	tsteq	r0, r1
    21c0:	6d6f682f 	stclvs	8, cr6, [pc, #-188]!	; 210c <__code_start__-0x5ef4>
    21c4:	6e652f65 	cdpvs	15, 6, cr2, cr5, cr5, {3}
    21c8:	72656c67 	rsbvc	r6, r5, #26368	; 0x6700
    21cc:	616c632f 	cmnvs	ip, pc, lsr #6
    21d0:	632f7373 			; <UNDEFINED> instruction: 0x632f7373
    21d4:	30343273 	eorscc	r3, r4, r3, ror r2
    21d8:	322d786c 	eorcc	r7, sp, #108, 16	; 0x6c0000
    21dc:	72707332 	rsbsvc	r7, r0, #-939524096	; 0xc8000000
    21e0:	696c2f2f 	stmdbvs	ip!, {r0, r1, r2, r3, r5, r8, r9, sl, fp, sp}^
    21e4:	2f697062 	svccs	0x00697062
    21e8:	6c636e69 	stclvs	14, cr6, [r3], #-420	; 0xfffffe5c
    21ec:	00656475 	rsbeq	r6, r5, r5, ror r4
    21f0:	7273752f 	rsbsvc	r7, r3, #197132288	; 0xbc00000
    21f4:	6168732f 	cmnvs	r8, pc, lsr #6
    21f8:	672f6572 			; <UNDEFINED> instruction: 0x672f6572
    21fc:	612d6363 			; <UNDEFINED> instruction: 0x612d6363
    2200:	6e2d6d72 	mcrvs	13, 1, r6, cr13, cr2, {3}
    2204:	2d656e6f 	stclcs	14, cr6, [r5, #-444]!	; 0xfffffe44
    2208:	69626165 	stmdbvs	r2!, {r0, r2, r5, r6, r8, sp, lr}^
    220c:	2e30312d 	rsfcssp	f3, f0, #5.0
    2210:	30322d33 	eorscc	r2, r2, r3, lsr sp
    2214:	312e3132 			; <UNDEFINED> instruction: 0x312e3132
    2218:	696c2f30 	stmdbvs	ip!, {r4, r5, r8, r9, sl, fp, sp}^
    221c:	63672f62 	cmnvs	r7, #392	; 0x188
    2220:	72612f63 	rsbvc	r2, r1, #396	; 0x18c
    2224:	6f6e2d6d 	svcvs	0x006e2d6d
    2228:	652d656e 	strvs	r6, [sp, #-1390]!	; 0xfffffa92
    222c:	2f696261 	svccs	0x00696261
    2230:	332e3031 			; <UNDEFINED> instruction: 0x332e3031
    2234:	692f312e 	stmdbvs	pc!, {r1, r2, r3, r5, r8, ip, sp}	; <UNPREDICTABLE>
    2238:	756c636e 	strbvc	r6, [ip, #-878]!	; 0xfffffc92
    223c:	00006564 	andeq	r6, r0, r4, ror #10
    2240:	6c616d6b 	stclvs	13, cr6, [r1], #-428	; 0xfffffe54
    2244:	2e636f6c 	cdpcs	15, 6, cr6, cr3, cr12, {3}
    2248:	00000063 	andeq	r0, r0, r3, rrx
    224c:	69707200 	ldmdbvs	r0!, {r9, ip, sp, lr}^
    2250:	0100682e 	tsteq	r0, lr, lsr #16
    2254:	74730000 	ldrbtvc	r0, [r3], #-0
    2258:	746e6964 	strbtvc	r6, [lr], #-2404	; 0xfffff69c
    225c:	6363672d 	cmnvs	r3, #11796480	; 0xb40000
    2260:	0200682e 	andeq	r6, r0, #3014656	; 0x2e0000
    2264:	05000000 	streq	r0, [r0, #-0]
    2268:	0205001e 	andeq	r0, r5, #30, 0
    226c:	00009a2c 	andeq	r9, r0, ip, lsr #20
    2270:	05012703 	streq	r2, [r1, #-1795]	; 0xfffff8fd
    2274:	31050120 	tstcc	r5, r0, lsr #2
    2278:	20050106 	andcs	r0, r5, r6, lsl #2
    227c:	22058306 	andcs	r8, r5, #402653184	; 0x18000000
    2280:	06350501 	ldrteq	r0, [r5], -r1, lsl #10
    2284:	061e0501 	ldreq	r0, [lr], -r1, lsl #10
    2288:	01200583 	smlawbeq	r0, r3, r5, r0
    228c:	01062d05 	tsteq	r6, r5, lsl #26
    2290:	85064205 	strhi	r4, [r6, #-517]	; 0xfffffdfb
    2294:	05050106 	streq	r0, [r5, #-262]	; 0xfffffefa
    2298:	01144b06 	tsteq	r4, r6, lsl #22
    229c:	02002e06 	andeq	r2, r0, #96	; 0x60
    22a0:	2e060204 	cdpcs	2, 0, cr0, cr6, cr4, {0}
    22a4:	02040200 	andeq	r0, r4, #0, 4
    22a8:	04020001 	streq	r0, [r2], #-1
    22ac:	0d051502 	cfstr32eq	mvfx1, [r5, #-8]
    22b0:	02040200 	andeq	r0, r4, #0, 4
    22b4:	07050106 	streq	r0, [r5, -r6, lsl #2]
    22b8:	02040200 	andeq	r0, r4, #0, 4
    22bc:	0609054a 	streq	r0, [r9], -sl, asr #10
    22c0:	1505054b 	strne	r0, [r5, #-1355]	; 0xfffffab5
    22c4:	01061705 	tsteq	r6, r5, lsl #14
    22c8:	054a1005 	strbeq	r1, [sl, #-5]
    22cc:	052f0605 	streq	r0, [pc, #-1541]!	; 1ccf <__code_start__-0x6331>
    22d0:	0501061b 	streq	r0, [r1, #-1563]	; 0xfffff9e5
    22d4:	01052e0e 	tsteq	r5, lr, lsl #28
    22d8:	0005052f 	andeq	r0, r5, pc, lsr #10
    22dc:	06010402 	streq	r0, [r1], -r2, lsl #8
    22e0:	004a7703 	subeq	r7, sl, r3, lsl #14
    22e4:	01010402 	tsteq	r1, r2, lsl #8
    22e8:	01040200 	mrseq	r0, R12_usr
    22ec:	02009e06 	andeq	r9, r0, #96	; 0x60
    22f0:	002e0104 	eoreq	r0, lr, r4, lsl #2
    22f4:	06010402 	streq	r0, [r1], -r2, lsl #8
    22f8:	3209052e 	andcc	r0, r9, #192937984	; 0xb800000
    22fc:	2ed60601 	cdpcs	6, 13, cr0, cr6, cr1, {0}
    2300:	19052e06 	stmdbne	r5, {r1, r2, r9, sl, fp, sp}
    2304:	2f0505de 	svccs	0x000505de
    2308:	06080514 			; <UNDEFINED> instruction: 0x06080514
    230c:	4a070501 	bmi	1c3718 <__bss_end__+0x1b8870>
    2310:	4b060905 	blmi	18472c <__bss_end__+0x179884>
    2314:	05130505 	ldreq	r0, [r3, #-1285]	; 0xfffffafb
    2318:	0501060c 	streq	r0, [r1, #-1548]	; 0xfffff9f4
    231c:	13670605 	cmnne	r7, #5242880	; 0x500000
    2320:	67060105 	strvs	r0, [r6, -r5, lsl #2]
    2324:	2a060905 	bcs	184740 <__bss_end__+0x179898>
    2328:	28059e01 	stmdacs	r5, {r0, r9, sl, fp, ip, pc}
    232c:	050106a5 	streq	r0, [r1, #-1701]	; 0xfffff95b
    2330:	014b0605 	cmpeq	fp, r5, lsl #12
    2334:	2e062e06 	cdpcs	14, 0, cr2, cr6, cr6, {0}
    2338:	18051301 	stmdane	r5, {r0, r8, r9, ip}
    233c:	05014703 	streq	r4, [r1, #-1795]	; 0xfffff8fd
    2340:	06011305 	streq	r1, [r1], -r5, lsl #6
    2344:	150f0601 	strne	r0, [pc, #-1537]	; 1d4b <__code_start__-0x62b5>
    2348:	0e051301 	cdpeq	3, 0, cr1, cr5, cr1, {0}
    234c:	16050106 	strne	r0, [r5], -r6, lsl #2
    2350:	05052e2e 	streq	r2, [r5, #-3630]	; 0xfffff1d2
    2354:	01390306 	teqeq	r9, r6, lsl #6
    2358:	01060b05 	tsteq	r6, r5, lsl #22
    235c:	4b060505 	blmi	183778 <__bss_end__+0x1788d0>
    2360:	01060a05 	tsteq	r6, r5, lsl #20
    2364:	4b060505 	blmi	183780 <__bss_end__+0x1788d8>
    2368:	01060d05 	tsteq	r6, r5, lsl #26
    236c:	052e0705 	streq	r0, [lr, #-1797]!	; 0xfffff8fb
    2370:	05054d01 	streq	r4, [r5, #-3329]	; 0xfffff2ff
    2374:	01040200 	mrseq	r0, R12_usr
    2378:	4a780306 	bmi	1e02f98 <__bss_end__+0x1df80f0>
    237c:	01040200 	mrseq	r0, R12_usr
    2380:	04020001 	streq	r0, [r2], #-1
    2384:	00ba0601 	adcseq	r0, sl, r1, lsl #12
    2388:	06010402 	streq	r0, [r1], -r2, lsl #8
    238c:	3409052e 	strcc	r0, [r9], #-1326	; 0xfffffad2
    2390:	66820601 	strvs	r0, [r2], r1, lsl #12
    2394:	20052e06 	andcs	r2, r5, r6, lsl #28
    2398:	050106db 	streq	r0, [r1, #-1755]	; 0xfffff925
    239c:	014b0605 	cmpeq	fp, r5, lsl #12
    23a0:	02040200 	andeq	r0, r4, #0, 4
    23a4:	0402004a 	streq	r0, [r2], #-74	; 0xffffffb6
    23a8:	02000102 	andeq	r0, r0, #-2147483648	; 0x80000000
    23ac:	05130204 	ldreq	r0, [r3, #-516]	; 0xfffffdfc
    23b0:	04020012 	streq	r0, [r2], #-18	; 0xffffffee
    23b4:	00010602 	andeq	r0, r1, r2, lsl #12
    23b8:	2e020402 	cdpcs	4, 0, cr0, cr2, cr2, {0}
    23bc:	02040200 	andeq	r0, r4, #0, 4
    23c0:	0005052e 	andeq	r0, r5, lr, lsr #10
    23c4:	06020402 	streq	r0, [r2], -r2, lsl #8
    23c8:	0402002f 	streq	r0, [r2], #-47	; 0xffffffd1
    23cc:	01056702 	tsteq	r5, r2, lsl #14
    23d0:	02040200 	andeq	r0, r4, #0, 4
    23d4:	05051306 	streq	r1, [r5, #-774]	; 0xfffffcfa
    23d8:	01040200 	mrseq	r0, R12_usr
    23dc:	02006206 	andeq	r6, r0, #1610612736	; 0x60000000
    23e0:	00010104 	andeq	r0, r1, r4, lsl #2
    23e4:	06010402 	streq	r0, [r1], -r2, lsl #8
    23e8:	040200ba 	streq	r0, [r2], #-186	; 0xffffff46
    23ec:	052e0601 	streq	r0, [lr, #-1537]!	; 0xfffff9ff
    23f0:	9e0a033c 	mcrls	3, 0, r0, cr10, cr12, {1}
    23f4:	05050106 	streq	r0, [r5, #-262]	; 0xfffffefa
    23f8:	06014b06 	streq	r4, [r1], -r6, lsl #22
    23fc:	012e062e 			; <UNDEFINED> instruction: 0x012e062e
    2400:	18050113 	stmdane	r5, {r0, r1, r4, r8}
    2404:	017fad03 	cmneq	pc, r3, lsl #26
    2408:	05130505 	ldreq	r0, [r3, #-1285]	; 0xfffffafb
    240c:	2e010611 	mcrcs	6, 0, r0, cr1, cr1, {0}
    2410:	d2030505 	andle	r0, r3, #20971520	; 0x1400000
    2414:	4a060100 	bmi	18281c <__bss_end__+0x177974>
    2418:	03180513 	tsteq	r8, #79691776	; 0x4c00000
    241c:	05017fa3 	streq	r7, [r1, #-4003]	; 0xfffff05d
    2420:	16051305 	strne	r1, [r5], -r5, lsl #6
    2424:	054a0106 	strbeq	r0, [sl, #-262]	; 0xfffffefa
    2428:	e1030605 	tst	r3, r5, lsl #12
    242c:	12050100 	andne	r0, r5, #0
    2430:	05050106 	streq	r0, [r5, #-262]	; 0xfffffefa
    2434:	18054b06 	stmdane	r5, {r1, r2, r8, r9, fp, lr}
    2438:	017fa903 	cmneq	pc, r3, lsl #18
    243c:	01130505 	tsteq	r3, r5, lsl #10
    2440:	050e1805 	streq	r1, [lr, #-2053]	; 0xfffff7fb
    2444:	11051305 	tstne	r5, r5, lsl #6
    2448:	052e0106 	streq	r0, [lr, #-262]!	; 0xfffffefa
    244c:	4a061505 	bmi	187868 <__bss_end__+0x17c9c0>
    2450:	0e051301 	cdpeq	3, 0, cr1, cr5, cr1, {0}
    2454:	052e0106 	streq	r0, [lr, #-262]!	; 0xfffffefa
    2458:	052e2e16 	streq	r2, [lr, #-3606]!	; 0xfffff1ea
    245c:	d6030605 	strle	r0, [r3], -r5, lsl #12
    2460:	05010100 	streq	r0, [r1, #-256]	; 0xffffff00
    2464:	7f9f0318 	svcvc	0x009f0318
    2468:	13050501 	movwne	r0, #21761	; 0x5501
    246c:	01061905 	tsteq	r6, r5, lsl #18
    2470:	0305052e 	movweq	r0, #21806	; 0x552e
    2474:	000100e0 	andeq	r0, r1, r0, ror #1
    2478:	06020402 	streq	r0, [r2], -r2, lsl #8
    247c:	0402004a 	streq	r0, [r2], #-74	; 0xffffffb6
    2480:	0a051402 	beq	147490 <__bss_end__+0x13c5e8>
    2484:	02040200 	andeq	r0, r4, #0, 4
    2488:	05050106 	streq	r0, [r5, #-262]	; 0xfffffefa
    248c:	02040200 	andeq	r0, r4, #0, 4
    2490:	0c054b06 			; <UNDEFINED> instruction: 0x0c054b06
    2494:	02040200 	andeq	r0, r4, #0, 4
    2498:	01050106 	tsteq	r5, r6, lsl #2
    249c:	02040200 	andeq	r0, r4, #0, 4
    24a0:	0005052f 	andeq	r0, r5, pc, lsr #10
    24a4:	06010402 	streq	r0, [r1], -r2, lsl #8
    24a8:	004a7303 	subeq	r7, sl, r3, lsl #6
    24ac:	01010402 	tsteq	r1, r2, lsl #8
    24b0:	01040200 	mrseq	r0, R12_usr
    24b4:	02009e06 	andeq	r9, r0, #96	; 0x60
    24b8:	002e0104 	eoreq	r0, lr, r4, lsl #2
    24bc:	06010402 	streq	r0, [r1], -r2, lsl #8
    24c0:	0402002e 	streq	r0, [r2], #-46	; 0xffffffd2
    24c4:	02002f01 	andeq	r2, r0, #1, 30
    24c8:	002e0104 	eoreq	r0, lr, r4, lsl #2
    24cc:	d6010402 	strle	r0, [r1], -r2, lsl #8
    24d0:	2e7fb103 	expcse	f3, f3
    24d4:	2e820601 	cdpcs	6, 8, cr0, cr2, cr1, {0}
    24d8:	062e062e 	strteq	r0, [lr], -lr, lsr #12
    24dc:	0402002e 	streq	r0, [r2], #-46	; 0xffffffd2
    24e0:	d7030601 	strle	r0, [r3, -r1, lsl #12]
    24e4:	02000100 	andeq	r0, r0, #0
    24e8:	002e0104 	eoreq	r0, lr, r4, lsl #2
    24ec:	d6010402 	strle	r0, [r1], -r2, lsl #8
    24f0:	7b081505 	blvc	20790c <__bss_end__+0x1fca64>
    24f4:	05011705 	streq	r1, [r1, #-1797]	; 0xfffff8fb
    24f8:	18053116 	stmdane	r5, {r1, r2, r4, r8, ip, sp}
    24fc:	061d0501 	ldreq	r0, [sp], -r1, lsl #10
    2500:	662b0501 	strtvs	r0, [fp], -r1, lsl #10
    2504:	4d061905 	vstrmi.16	s2, [r6, #-10]	; <UNPREDICTABLE>
    2508:	05130505 	ldreq	r0, [r3, #-1285]	; 0xfffffafb
    250c:	0501060c 	streq	r0, [r1, #-1548]	; 0xfffff9f4
    2510:	25054a07 	strcs	r4, [r5, #-2567]	; 0xfffff5f9
    2514:	01040200 	mrseq	r0, R12_usr
    2518:	001e054a 	andseq	r0, lr, sl, asr #10
    251c:	4a010402 	bmi	4352c <__bss_end__+0x38684>
    2520:	4b060905 	blmi	18493c <__bss_end__+0x179a94>
    2524:	05130505 	ldreq	r0, [r3, #-1285]	; 0xfffffafb
    2528:	0501060a 	streq	r0, [r1, #-1546]	; 0xfffff9f6
    252c:	09056319 	stmdbeq	r5, {r0, r3, r4, r8, r9, sp, lr}
    2530:	06014c06 	streq	r4, [r1], -r6, lsl #24
    2534:	022e069e 	eoreq	r0, lr, #165675008	; 0x9e00000
    2538:	0101000a 	tsteq	r1, sl
    253c:	000000be 	strheq	r0, [r0], -lr
    2540:	00800003 	addeq	r0, r0, r3
    2544:	01020000 	mrseq	r0, (UNDEF: 2)
    2548:	000d0efb 	strdeq	r0, [sp], -fp
    254c:	01010101 	tsteq	r1, r1, lsl #2
    2550:	01000000 	mrseq	r0, (UNDEF: 0)
    2554:	2e010000 	cdpcs	0, 0, cr0, cr1, cr0, {0}
    2558:	62696c2f 	rsbvs	r6, r9, #12032	; 0x2f00
    255c:	552f0063 	strpl	r0, [pc, #-99]!	; 2501 <__code_start__-0x5aff>
    2560:	73726573 	cmnvc	r2, #482344960	; 0x1cc00000
    2564:	6972742f 	ldmdbvs	r2!, {r0, r1, r2, r3, r5, sl, ip, sp, lr}^
    2568:	6e657473 	mcrvs	4, 3, r7, cr5, cr3, {3}
    256c:	6c6c6f6e 	stclvs	15, cr6, [ip], #-440	; 0xfffffe48
    2570:	2f6e616d 	svccs	0x006e616d
    2574:	75636f44 	strbvc	r6, [r3, #-3908]!	; 0xfffff0bc
    2578:	746e656d 	strbtvc	r6, [lr], #-1389	; 0xfffffa93
    257c:	70532f73 	subsvc	r2, r3, r3, ror pc
    2580:	676e6972 			; <UNDEFINED> instruction: 0x676e6972
    2584:	6175515f 	cmnvs	r5, pc, asr r1
    2588:	72657472 	rsbvc	r7, r5, #1912602624	; 0x72000000
    258c:	3230325f 	eorscc	r3, r0, #-268435451	; 0xf0000005
    2590:	53432f32 	movtpl	r2, #16178	; 0x3f32
    2594:	4c303432 	cfldrsmi	mvf3, [r0], #-200	; 0xffffff38
    2598:	70732d58 	rsbsvc	r2, r3, r8, asr sp
    259c:	2f323272 	svccs	0x00323272
    25a0:	7062696c 	rsbvc	r6, r2, ip, ror #18
    25a4:	6e692f69 	cdpvs	15, 6, cr2, cr9, cr9, {3}
    25a8:	64756c63 	ldrbtvs	r6, [r5], #-3171	; 0xfffff39d
    25ac:	70000065 	andvc	r0, r0, r5, rrx
    25b0:	68637475 	stmdavs	r3!, {r0, r2, r4, r5, r6, sl, ip, sp, lr}^
    25b4:	632e7261 			; <UNDEFINED> instruction: 0x632e7261
    25b8:	00000100 	andeq	r0, r0, r0, lsl #2
    25bc:	2e697072 	mcrcs	0, 3, r7, cr9, cr2, {3}
    25c0:	00020068 	andeq	r0, r2, r8, rrx
    25c4:	24050000 	strcs	r0, [r5], #-0
    25c8:	dc020500 	cfstr32le	mvfx0, [r2], {-0}
    25cc:	1400009d 	strne	r0, [r0], #-157	; 0xffffff63
    25d0:	26050106 	strcs	r0, [r5], -r6, lsl #2
    25d4:	34054a06 	strcc	r4, [r5], #-2566	; 0xfffff5fa
    25d8:	0601052e 	streq	r0, [r1], -lr, lsr #10
    25dc:	061b0501 	ldreq	r0, [fp], -r1, lsl #10
    25e0:	1305054f 	movwne	r0, #21839	; 0x554f
    25e4:	01061105 	tsteq	r6, r5, lsl #2
    25e8:	05670105 	strbeq	r0, [r7, #-261]!	; 0xfffffefb
    25ec:	05670623 	strbeq	r0, [r7, #-1571]!	; 0xfffff9dd
    25f0:	11051305 	tstne	r5, r5, lsl #6
    25f4:	01050106 	tsteq	r5, r6, lsl #2
    25f8:	0004024b 	andeq	r0, r4, fp, asr #4
    25fc:	010a0101 	tsteq	sl, r1, lsl #2
    2600:	00030000 	andeq	r0, r3, r0
    2604:	0000007f 	andeq	r0, r0, pc, ror r0
    2608:	0efb0102 	cdpeq	1, 15, cr0, cr11, cr2, {0}
    260c:	0101000d 	tsteq	r1, sp
    2610:	00000101 	andeq	r0, r0, r1, lsl #2
    2614:	00000100 	andeq	r0, r0, r0, lsl #2
    2618:	6c2f2e01 	stcvs	14, cr2, [pc], #-4	; 261c <__code_start__-0x59e4>
    261c:	00636269 	rsbeq	r6, r3, r9, ror #4
    2620:	6573552f 	ldrbvs	r5, [r3, #-1327]!	; 0xfffffad1
    2624:	742f7372 	strtvc	r7, [pc], #-882	; 262c <__code_start__-0x59d4>
    2628:	74736972 	ldrbtvc	r6, [r3], #-2418	; 0xfffff68e
    262c:	6f6e6e65 	svcvs	0x006e6e65
    2630:	616d6c6c 	cmnvs	sp, ip, ror #24
    2634:	6f442f6e 	svcvs	0x00442f6e
    2638:	656d7563 	strbvs	r7, [sp, #-1379]!	; 0xfffffa9d
    263c:	2f73746e 	svccs	0x0073746e
    2640:	69727053 	ldmdbvs	r2!, {r0, r1, r4, r6, ip, sp, lr}^
    2644:	515f676e 	cmppl	pc, lr, ror #14
    2648:	74726175 	ldrbtvc	r6, [r2], #-373	; 0xfffffe8b
    264c:	325f7265 	subscc	r7, pc, #1342177286	; 0x50000006
    2650:	2f323230 	svccs	0x00323230
    2654:	34325343 	ldrtcc	r5, [r2], #-835	; 0xfffffcbd
    2658:	2d584c30 	ldclcs	12, cr4, [r8, #-192]	; 0xffffff40
    265c:	32727073 	rsbscc	r7, r2, #115, 0	; 0x73
    2660:	696c2f32 	stmdbvs	ip!, {r1, r4, r5, r8, r9, sl, fp, sp}^
    2664:	2f697062 	svccs	0x00697062
    2668:	6c636e69 	stclvs	14, cr6, [r3], #-420	; 0xfffffe5c
    266c:	00656475 	rsbeq	r6, r5, r5, ror r4
    2670:	72747300 	rsbsvc	r7, r4, #0, 6
    2674:	2e746163 	rpwcssz	f6, f4, f3
    2678:	00010063 	andeq	r0, r1, r3, rrx
    267c:	69707200 	ldmdbvs	r0!, {r9, ip, sp, lr}^
    2680:	0200682e 	andeq	r6, r0, #3014656	; 0x2e0000
    2684:	05000000 	streq	r0, [r0, #-0]
    2688:	0205002c 	andeq	r0, r5, #44, 0	; 0x2c
    268c:	00009e18 	andeq	r9, r0, r8, lsl lr
    2690:	13050515 	movwne	r0, #21781	; 0x5515
    2694:	060b0513 			; <UNDEFINED> instruction: 0x060b0513
    2698:	00050511 	andeq	r0, r5, r1, lsl r5
    269c:	06010402 	streq	r0, [r1], -r2, lsl #8
    26a0:	04020030 	streq	r0, [r2], #-48	; 0xffffffd0
    26a4:	09051501 	stmdbeq	r5, {r0, r8, sl, ip}
    26a8:	01040200 	mrseq	r0, R12_usr
    26ac:	00100513 	andseq	r0, r0, r3, lsl r5
    26b0:	06010402 	streq	r0, [r1], -r2, lsl #8
    26b4:	000b052e 	andeq	r0, fp, lr, lsr #10
    26b8:	2e010402 	cdpcs	4, 0, cr0, cr1, cr2, {0}
    26bc:	01040200 	mrseq	r0, R12_usr
    26c0:	05052f06 	streq	r2, [r5, #-3846]	; 0xfffff0fa
    26c4:	01040200 	mrseq	r0, R12_usr
    26c8:	4e060106 	adfmis	f0, f6, f6
    26cc:	01060805 	tsteq	r6, r5, lsl #16
    26d0:	02000505 	andeq	r0, r0, #20971520	; 0x1400000
    26d4:	2f060104 	svccs	0x00060104
    26d8:	02000905 	andeq	r0, r0, #81920	; 0x14000
    26dc:	05130104 	ldreq	r0, [r3, #-260]	; 0xfffffefc
    26e0:	0402000b 	streq	r0, [r2], #-11
    26e4:	05010601 	streq	r0, [r1, #-1537]	; 0xfffff9ff
    26e8:	04020009 	streq	r0, [r2], #-9
    26ec:	054b0601 	strbeq	r0, [fp, #-1537]	; 0xfffff9ff
    26f0:	0402000f 	streq	r0, [r2], #-15
    26f4:	05010601 	streq	r0, [r1, #-1537]	; 0xfffff9ff
    26f8:	0402000d 	streq	r0, [r2], #-13
    26fc:	052f0601 	streq	r0, [pc, #-1537]!	; 2103 <__code_start__-0x5efd>
    2700:	04020005 	streq	r0, [r2], #-5
    2704:	02010601 	andeq	r0, r1, #1048576	; 0x100000
    2708:	01010006 	tsteq	r1, r6
    270c:	000000c3 	andeq	r0, r0, r3, asr #1
    2710:	007f0003 	rsbseq	r0, pc, r3
    2714:	01020000 	mrseq	r0, (UNDEF: 2)
    2718:	000d0efb 	strdeq	r0, [sp], -fp
    271c:	01010101 	tsteq	r1, r1, lsl #2
    2720:	01000000 	mrseq	r0, (UNDEF: 0)
    2724:	2e010000 	cdpcs	0, 0, cr0, cr1, cr0, {0}
    2728:	62696c2f 	rsbvs	r6, r9, #12032	; 0x2f00
    272c:	552f0063 	strpl	r0, [pc, #-99]!	; 26d1 <__code_start__-0x592f>
    2730:	73726573 	cmnvc	r2, #482344960	; 0x1cc00000
    2734:	6972742f 	ldmdbvs	r2!, {r0, r1, r2, r3, r5, sl, ip, sp, lr}^
    2738:	6e657473 	mcrvs	4, 3, r7, cr5, cr3, {3}
    273c:	6c6c6f6e 	stclvs	15, cr6, [ip], #-440	; 0xfffffe48
    2740:	2f6e616d 	svccs	0x006e616d
    2744:	75636f44 	strbvc	r6, [r3, #-3908]!	; 0xfffff0bc
    2748:	746e656d 	strbtvc	r6, [lr], #-1389	; 0xfffffa93
    274c:	70532f73 	subsvc	r2, r3, r3, ror pc
    2750:	676e6972 			; <UNDEFINED> instruction: 0x676e6972
    2754:	6175515f 	cmnvs	r5, pc, asr r1
    2758:	72657472 	rsbvc	r7, r5, #1912602624	; 0x72000000
    275c:	3230325f 	eorscc	r3, r0, #-268435451	; 0xf0000005
    2760:	53432f32 	movtpl	r2, #16178	; 0x3f32
    2764:	4c303432 	cfldrsmi	mvf3, [r0], #-200	; 0xffffff38
    2768:	70732d58 	rsbsvc	r2, r3, r8, asr sp
    276c:	2f323272 	svccs	0x00323272
    2770:	7062696c 	rsbvc	r6, r2, ip, ror #18
    2774:	6e692f69 	cdpvs	15, 6, cr2, cr9, cr9, {3}
    2778:	64756c63 	ldrbtvs	r6, [r5], #-3171	; 0xfffff39d
    277c:	73000065 	movwvc	r0, #101	; 0x65
    2780:	6d637274 	sfmvs	f7, 2, [r3, #-464]!	; 0xfffffe30
    2784:	00632e70 	rsbeq	r2, r3, r0, ror lr
    2788:	72000001 	andvc	r0, r0, #1, 0
    278c:	682e6970 	stmdavs	lr!, {r4, r5, r6, r8, fp, sp, lr}
    2790:	00000200 	andeq	r0, r0, r0, lsl #4
    2794:	002a0500 	eoreq	r0, sl, r0, lsl #10
    2798:	9e4c0205 	cdpls	2, 4, cr0, cr12, cr5, {0}
    279c:	05140000 	ldreq	r0, [r4, #-0]
    27a0:	0f051309 	svceq	0x00051309
    27a4:	06100501 	ldreq	r0, [r0], -r1, lsl #10
    27a8:	2e0f0501 	cfsh32cs	mvfx0, mvfx15, #1
    27ac:	02001c05 	andeq	r1, r0, #1280	; 0x500
    27b0:	054a0104 	strbeq	r0, [sl, #-260]	; 0xfffffefc
    27b4:	04020013 	streq	r0, [r2], #-19	; 0xffffffed
    27b8:	11052e01 	tstne	r5, r1, lsl #28
    27bc:	16052f06 	strne	r2, [r5], -r6, lsl #30
    27c0:	052e2e06 	streq	r2, [lr, #-3590]!	; 0xfffff1fa
    27c4:	052f0609 	streq	r0, [pc, #-1545]!	; 21c3 <__code_start__-0x5e3d>
    27c8:	05010615 	streq	r0, [r1, #-1557]	; 0xfffff9eb
    27cc:	04022f01 	streq	r2, [r2], #-3841	; 0xfffff0ff
    27d0:	c1010100 	mrsgt	r0, (UNDEF: 17)
    27d4:	03000000 	movweq	r0, #0
    27d8:	00007f00 	andeq	r7, r0, r0, lsl #30
    27dc:	fb010200 	blx	42fe6 <__bss_end__+0x3813e>
    27e0:	01000d0e 	tsteq	r0, lr, lsl #26
    27e4:	00010101 	andeq	r0, r1, r1, lsl #2
    27e8:	00010000 	andeq	r0, r1, r0
    27ec:	2f2e0100 	svccs	0x002e0100
    27f0:	6362696c 	cmnvs	r2, #108, 18	; 0x1b0000
    27f4:	73552f00 	cmpvc	r5, #0, 30
    27f8:	2f737265 	svccs	0x00737265
    27fc:	73697274 	cmnvc	r9, #116, 4	; 0x40000007
    2800:	6e6e6574 	mcrvs	5, 3, r6, cr14, cr4, {3}
    2804:	6d6c6c6f 	stclvs	12, cr6, [ip, #-444]!	; 0xfffffe44
    2808:	442f6e61 	strtmi	r6, [pc], #-3681	; 2810 <__code_start__-0x57f0>
    280c:	6d75636f 	ldclvs	3, cr6, [r5, #-444]!	; 0xfffffe44
    2810:	73746e65 	cmnvc	r4, #1616	; 0x650
    2814:	7270532f 	rsbsvc	r5, r0, #-1140850688	; 0xbc000000
    2818:	5f676e69 	svcpl	0x00676e69
    281c:	72617551 	rsbvc	r7, r1, #339738624	; 0x14400000
    2820:	5f726574 	svcpl	0x00726574
    2824:	32323032 	eorscc	r3, r2, #50, 0	; 0x32
    2828:	3253432f 	subscc	r4, r3, #-1140850688	; 0xbc000000
    282c:	584c3034 	stmdapl	ip, {r2, r4, r5, ip, sp}^
    2830:	7270732d 	rsbsvc	r7, r0, #-1275068416	; 0xb4000000
    2834:	6c2f3232 	sfmvs	f3, 4, [pc], #-200	; 2774 <__code_start__-0x588c>
    2838:	69706269 	ldmdbvs	r0!, {r0, r3, r5, r6, r9, sp, lr}^
    283c:	636e692f 	cmnvs	lr, #770048	; 0xbc000
    2840:	6564756c 	strbvs	r7, [r4, #-1388]!	; 0xfffffa94
    2844:	74730000 	ldrbtvc	r0, [r3], #-0
    2848:	79706372 	ldmdbvc	r0!, {r1, r4, r5, r6, r8, r9, sp, lr}^
    284c:	0100632e 	tsteq	r0, lr, lsr #6
    2850:	70720000 	rsbsvc	r0, r2, r0
    2854:	00682e69 	rsbeq	r2, r8, r9, ror #28
    2858:	00000002 	andeq	r0, r0, r2
    285c:	05002a05 	streq	r2, [r0, #-2565]	; 0xfffff5fb
    2860:	009e7802 	addseq	r7, lr, r2, lsl #16
    2864:	05051400 	streq	r1, [r5, #-1024]	; 0xfffffc00
    2868:	14051313 	strne	r1, [r5], #-787	; 0xfffffced
    286c:	22051106 	andcs	r1, r5, #-2147483647	; 0x80000001
    2870:	01040200 	mrseq	r0, R12_usr
    2874:	0b052f06 	bleq	14e494 <__bss_end__+0x1435ec>
    2878:	01040200 	mrseq	r0, R12_usr
    287c:	00150501 	andseq	r0, r5, r1, lsl #10
    2880:	06010402 	streq	r0, [r1], -r2, lsl #8
    2884:	00130501 	andseq	r0, r3, r1, lsl #10
    2888:	4a010402 	bmi	43898 <__bss_end__+0x389f0>
    288c:	02000b05 	andeq	r0, r0, #5120	; 0x1400
    2890:	024a0104 	subeq	r0, sl, #1
    2894:	01010006 	tsteq	r1, r6
    2898:	00000121 	andeq	r0, r0, r1, lsr #2
    289c:	00e50003 	rsceq	r0, r5, r3
    28a0:	01020000 	mrseq	r0, (UNDEF: 2)
    28a4:	000d0efb 	strdeq	r0, [sp], -fp
    28a8:	01010101 	tsteq	r1, r1, lsl #2
    28ac:	01000000 	mrseq	r0, (UNDEF: 0)
    28b0:	2e010000 	cdpcs	0, 0, cr0, cr1, cr0, {0}
    28b4:	62696c2f 	rsbvs	r6, r9, #12032	; 0x2f00
    28b8:	552f0063 	strpl	r0, [pc, #-99]!	; 285d <__code_start__-0x57a3>
    28bc:	73726573 	cmnvc	r2, #482344960	; 0x1cc00000
    28c0:	6972742f 	ldmdbvs	r2!, {r0, r1, r2, r3, r5, sl, ip, sp, lr}^
    28c4:	6e657473 	mcrvs	4, 3, r7, cr5, cr3, {3}
    28c8:	6c6c6f6e 	stclvs	15, cr6, [ip], #-440	; 0xfffffe48
    28cc:	2f6e616d 	svccs	0x006e616d
    28d0:	75636f44 	strbvc	r6, [r3, #-3908]!	; 0xfffff0bc
    28d4:	746e656d 	strbtvc	r6, [lr], #-1389	; 0xfffffa93
    28d8:	70532f73 	subsvc	r2, r3, r3, ror pc
    28dc:	676e6972 			; <UNDEFINED> instruction: 0x676e6972
    28e0:	6175515f 	cmnvs	r5, pc, asr r1
    28e4:	72657472 	rsbvc	r7, r5, #1912602624	; 0x72000000
    28e8:	3230325f 	eorscc	r3, r0, #-268435451	; 0xf0000005
    28ec:	53432f32 	movtpl	r2, #16178	; 0x3f32
    28f0:	4c303432 	cfldrsmi	mvf3, [r0], #-200	; 0xffffff38
    28f4:	70732d58 	rsbsvc	r2, r3, r8, asr sp
    28f8:	2f323272 	svccs	0x00323272
    28fc:	7062696c 	rsbvc	r6, r2, ip, ror #18
    2900:	6e692f69 	cdpvs	15, 6, cr2, cr9, cr9, {3}
    2904:	64756c63 	ldrbtvs	r6, [r5], #-3171	; 0xfffff39d
    2908:	752f0065 	strvc	r0, [pc, #-101]!	; 28ab <__code_start__-0x5755>
    290c:	6c2f7273 	sfmvs	f7, 4, [pc], #-460	; 2748 <__code_start__-0x58b8>
    2910:	6c61636f 	stclvs	3, cr6, [r1], #-444	; 0xfffffe44
    2914:	6c65432f 	stclvs	3, cr4, [r5], #-188	; 0xffffff44
    2918:	2f72616c 	svccs	0x0072616c
    291c:	2d6d7261 	sfmcs	f7, 2, [sp, #-388]!	; 0xfffffe7c
    2920:	656e6f6e 	strbvs	r6, [lr, #-3950]!	; 0xfffff092
    2924:	6261652d 	rsbvs	r6, r1, #188743680	; 0xb400000
    2928:	65742d69 	ldrbvs	r2, [r4, #-3433]!	; 0xfffff297
    292c:	392f7473 	stmdbcc	pc!, {r0, r1, r4, r5, r6, sl, ip, sp, lr}	; <UNPREDICTABLE>
    2930:	3130322d 	teqcc	r0, sp, lsr #4
    2934:	2d347139 	ldfcss	f7, [r4, #-228]!	; 0xffffff1c
    2938:	30317363 	eorscc	r7, r1, r3, ror #6
    293c:	6c2f6537 	cfstr32vs	mvfx6, [pc], #-220	; 2868 <__code_start__-0x5798>
    2940:	672f6269 	strvs	r6, [pc, -r9, ror #4]!
    2944:	612f6363 			; <UNDEFINED> instruction: 0x612f6363
    2948:	6e2d6d72 	mcrvs	13, 1, r6, cr13, cr2, {3}
    294c:	2d656e6f 	stclcs	14, cr6, [r5, #-444]!	; 0xfffffe44
    2950:	69626165 	stmdbvs	r2!, {r0, r2, r5, r6, r8, sp, lr}^
    2954:	322e392f 	eorcc	r3, lr, #770048	; 0xbc000
    2958:	692f312e 	stmdbvs	pc!, {r1, r2, r3, r5, r8, ip, sp}	; <UNPREDICTABLE>
    295c:	756c636e 	strbvc	r6, [ip, #-878]!	; 0xfffffc92
    2960:	00006564 	andeq	r6, r0, r4, ror #10
    2964:	6e727473 	mrcvs	4, 3, r7, cr2, cr3, {3}
    2968:	2e706d63 	cdpcs	13, 7, cr6, cr0, cr3, {3}
    296c:	00010063 	andeq	r0, r1, r3, rrx
    2970:	69707200 	ldmdbvs	r0!, {r9, ip, sp, lr}^
    2974:	0200682e 	andeq	r6, r0, #3014656	; 0x2e0000
    2978:	74730000 	ldrbtvc	r0, [r3], #-0
    297c:	66656464 	strbtvs	r6, [r5], -r4, ror #8
    2980:	0300682e 	movweq	r6, #2094	; 0x82e
    2984:	05000000 	streq	r0, [r0, #-0]
    2988:	02050039 	andeq	r0, r5, #57, 0	; 0x39
    298c:	00009e98 	muleq	r0, r8, lr
    2990:	13050515 	movwne	r0, #21781	; 0x5515
    2994:	010a0513 	tsteq	sl, r3, lsl r5
    2998:	054a0106 	strbeq	r0, [sl, #-262]	; 0xfffffefa
    299c:	052f0609 	streq	r0, [pc, #-1545]!	; 239b <__code_start__-0x5c65>
    29a0:	0501060c 	streq	r0, [r1, #-1548]	; 0xfffff9f4
    29a4:	0b052e13 	bleq	14e1f8 <__bss_end__+0x143350>
    29a8:	060d052e 	streq	r0, [sp], -lr, lsr #10
    29ac:	061b054b 	ldreq	r0, [fp], -fp, asr #10
    29b0:	0c052e01 	stceq	14, cr2, [r5], {1}
    29b4:	2f010530 	svccs	0x00010530
    29b8:	01000202 	tsteq	r0, r2, lsl #4
    29bc:	0000b001 	andeq	fp, r0, r1
    29c0:	94000300 	strls	r0, [r0], #-768	; 0xfffffd00
    29c4:	02000000 	andeq	r0, r0, #0, 0
    29c8:	0d0efb01 	vstreq	d15, [lr, #-4]
    29cc:	01010100 	mrseq	r0, (UNDEF: 17)
    29d0:	00000001 	andeq	r0, r0, r1
    29d4:	01000001 	tsteq	r0, r1
    29d8:	74732f2e 	ldrbtvc	r2, [r3], #-3886	; 0xfffff0d2
    29dc:	2d666661 	stclcs	6, cr6, [r6, #-388]!	; 0xfffffe7c
    29e0:	00637273 	rsbeq	r7, r3, r3, ror r2
    29e4:	6573552f 	ldrbvs	r5, [r3, #-1327]!	; 0xfffffad1
    29e8:	742f7372 	strtvc	r7, [pc], #-882	; 29f0 <__code_start__-0x5610>
    29ec:	74736972 	ldrbtvc	r6, [r3], #-2418	; 0xfffff68e
    29f0:	6f6e6e65 	svcvs	0x006e6e65
    29f4:	616d6c6c 	cmnvs	sp, ip, ror #24
    29f8:	6f442f6e 	svcvs	0x00442f6e
    29fc:	656d7563 	strbvs	r7, [sp, #-1379]!	; 0xfffffa9d
    2a00:	2f73746e 	svccs	0x0073746e
    2a04:	69727053 	ldmdbvs	r2!, {r0, r1, r4, r6, ip, sp, lr}^
    2a08:	515f676e 	cmppl	pc, lr, ror #14
    2a0c:	74726175 	ldrbtvc	r6, [r2], #-373	; 0xfffffe8b
    2a10:	325f7265 	subscc	r7, pc, #1342177286	; 0x50000006
    2a14:	2f323230 	svccs	0x00323230
    2a18:	34325343 	ldrtcc	r5, [r2], #-835	; 0xfffffcbd
    2a1c:	2d584c30 	ldclcs	12, cr4, [r8, #-192]	; 0xffffff40
    2a20:	32727073 	rsbscc	r7, r2, #115, 0	; 0x73
    2a24:	696c2f32 	stmdbvs	ip!, {r1, r4, r5, r8, r9, sl, fp, sp}^
    2a28:	2f697062 	svccs	0x00697062
    2a2c:	6c636e69 	stclvs	14, cr6, [r3], #-420	; 0xfffffe5c
    2a30:	00656475 	rsbeq	r6, r5, r5, ror r4
    2a34:	66656400 	strbtvs	r6, [r5], -r0, lsl #8
    2a38:	746c7561 	strbtvc	r7, [ip], #-1377	; 0xfffffa9f
    2a3c:	6265722d 	rsbvs	r7, r5, #-805306366	; 0xd0000002
    2a40:	2d746f6f 	ldclcs	15, cr6, [r4, #-444]!	; 0xfffffe44
    2a44:	6c6c6163 	stfvse	f6, [ip], #-396	; 0xfffffe74
    2a48:	2e74756f 	cdpcs	5, 7, cr7, cr4, cr15, {3}
    2a4c:	00010063 	andeq	r0, r1, r3, rrx
    2a50:	69707200 	ldmdbvs	r0!, {r9, ip, sp, lr}^
    2a54:	0200682e 	andeq	r6, r0, #3014656	; 0x2e0000
    2a58:	05000000 	streq	r0, [r0, #-0]
    2a5c:	0205001b 	andeq	r0, r5, #27, 0
    2a60:	00009ec4 	andeq	r9, r0, r4, asr #29
    2a64:	011c0514 	tsteq	ip, r4, lsl r5
    2a68:	01060105 	tsteq	r6, r5, lsl #2
    2a6c:	01000202 	tsteq	r0, r2, lsl #4
    2a70:	0001bb01 	andeq	fp, r1, r1, lsl #22
    2a74:	bf000300 	svclt	0x00000300
    2a78:	02000000 	andeq	r0, r0, #0, 0
    2a7c:	0d0efb01 	vstreq	d15, [lr, #-4]
    2a80:	01010100 	mrseq	r0, (UNDEF: 17)
    2a84:	00000001 	andeq	r0, r0, r1
    2a88:	01000001 	tsteq	r0, r1
    2a8c:	6d6f682f 	stclvs	8, cr6, [pc, #-188]!	; 29d8 <__code_start__-0x5628>
    2a90:	6e652f65 	cdpvs	15, 6, cr2, cr5, cr5, {3}
    2a94:	72656c67 	rsbvc	r6, r5, #26368	; 0x6700
    2a98:	616c632f 	cmnvs	ip, pc, lsr #6
    2a9c:	632f7373 			; <UNDEFINED> instruction: 0x632f7373
    2aa0:	30343273 	eorscc	r3, r4, r3, ror r2
    2aa4:	322d786c 	eorcc	r7, sp, #108, 16	; 0x6c0000
    2aa8:	72707332 	rsbsvc	r7, r0, #-939524096	; 0xc8000000
    2aac:	696c2f2f 	stmdbvs	ip!, {r0, r1, r2, r3, r5, r8, r9, sl, fp, sp}^
    2ab0:	2f697062 	svccs	0x00697062
    2ab4:	6c636e69 	stclvs	14, cr6, [r3], #-420	; 0xfffffe5c
    2ab8:	00656475 	rsbeq	r6, r5, r5, ror r4
    2abc:	7273752f 	rsbsvc	r7, r3, #197132288	; 0xbc00000
    2ac0:	6168732f 	cmnvs	r8, pc, lsr #6
    2ac4:	672f6572 			; <UNDEFINED> instruction: 0x672f6572
    2ac8:	612d6363 			; <UNDEFINED> instruction: 0x612d6363
    2acc:	6e2d6d72 	mcrvs	13, 1, r6, cr13, cr2, {3}
    2ad0:	2d656e6f 	stclcs	14, cr6, [r5, #-444]!	; 0xfffffe44
    2ad4:	69626165 	stmdbvs	r2!, {r0, r2, r5, r6, r8, sp, lr}^
    2ad8:	2e30312d 	rsfcssp	f3, f0, #5.0
    2adc:	30322d33 	eorscc	r2, r2, r3, lsr sp
    2ae0:	312e3132 			; <UNDEFINED> instruction: 0x312e3132
    2ae4:	696c2f30 	stmdbvs	ip!, {r4, r5, r8, r9, sl, fp, sp}^
    2ae8:	63672f62 	cmnvs	r7, #392	; 0x188
    2aec:	72612f63 	rsbvc	r2, r1, #396	; 0x18c
    2af0:	6f6e2d6d 	svcvs	0x006e2d6d
    2af4:	652d656e 	strvs	r6, [sp, #-1390]!	; 0xfffffa92
    2af8:	2f696261 	svccs	0x00696261
    2afc:	332e3031 			; <UNDEFINED> instruction: 0x332e3031
    2b00:	692f312e 	stmdbvs	pc!, {r1, r2, r3, r5, r8, ip, sp}	; <UNPREDICTABLE>
    2b04:	756c636e 	strbvc	r6, [ip, #-878]!	; 0xfffffc92
    2b08:	00006564 	andeq	r6, r0, r4, ror #10
    2b0c:	6f697067 	svcvs	0x00697067
    2b10:	0000632e 	andeq	r6, r0, lr, lsr #6
    2b14:	70720000 	rsbsvc	r0, r2, r0
    2b18:	00682e69 	rsbeq	r2, r8, r9, ror #28
    2b1c:	73000001 	movwvc	r0, #1
    2b20:	6e696474 	mcrvs	4, 3, r6, cr9, cr4, {3}
    2b24:	63672d74 	cmnvs	r7, #116, 26	; 0x1d00
    2b28:	00682e63 	rsbeq	r2, r8, r3, ror #28
    2b2c:	67000002 	strvs	r0, [r0, -r2]
    2b30:	2e6f6970 			; <UNDEFINED> instruction: 0x2e6f6970
    2b34:	00010068 	andeq	r0, r1, r8, rrx
    2b38:	38050000 	stmdacc	r5, {}	; <UNPREDICTABLE>
    2b3c:	e0020500 	and	r0, r2, r0, lsl #10
    2b40:	0300009e 	movweq	r0, #158	; 0x9e
    2b44:	05050127 	streq	r0, [r5, #-295]	; 0xfffffed9
    2b48:	06070513 			; <UNDEFINED> instruction: 0x06070513
    2b4c:	49380501 	ldmdbmi	r8!, {r0, r8, sl}
    2b50:	4d060505 	cfstr32mi	mvfx0, [r6, #-20]	; 0xffffffec
    2b54:	01060705 	tsteq	r6, r5, lsl #14
    2b58:	4c060505 	cfstr32mi	mvfx0, [r6], {5}
    2b5c:	01061805 	tsteq	r6, r5, lsl #16
    2b60:	05ba0e05 	ldreq	r0, [sl, #3589]!	; 0xe05
    2b64:	052f0605 	streq	r0, [pc, #-1541]!	; 2567 <__code_start__-0x5a99>
    2b68:	2e01061c 	mcrcs	6, 0, r0, cr1, cr12, {0}
    2b6c:	052e0e05 	streq	r0, [lr, #-3589]!	; 0xfffff1fb
    2b70:	05300605 	ldreq	r0, [r0, #-1541]!	; 0xfffff9fb
    2b74:	05010612 	streq	r0, [r1, #-1554]	; 0xfffff9ee
    2b78:	054b0605 	strbeq	r0, [fp, #-1541]	; 0xfffff9fb
    2b7c:	05010607 	streq	r0, [r1, #-1543]	; 0xfffff9f9
    2b80:	134b0605 	movtne	r0, #46597	; 0xb605
    2b84:	01052e06 	tsteq	r5, r6, lsl #28
    2b88:	0624054b 	strteq	r0, [r4], -fp, asr #10
    2b8c:	0501064c 	streq	r0, [r1, #-1612]	; 0xfffff9b4
    2b90:	052f0605 	streq	r0, [pc, #-1541]!	; 2593 <__code_start__-0x5a6d>
    2b94:	054b0601 	strbeq	r0, [fp, #-1537]	; 0xfffff9ff
    2b98:	05310620 	ldreq	r0, [r1, #-1568]!	; 0xfffff9e0
    2b9c:	07051305 	streq	r1, [r5, -r5, lsl #6]
    2ba0:	20050106 	andcs	r0, r5, r6, lsl #2
    2ba4:	06050549 	streq	r0, [r5], -r9, asr #10
    2ba8:	05660631 	strbeq	r0, [r6, #-1585]!	; 0xfffff9cf
    2bac:	21052f01 	tstcs	r5, r1, lsl #30
    2bb0:	05054d06 	streq	r4, [r5, #-3334]	; 0xfffff2fa
    2bb4:	06070513 			; <UNDEFINED> instruction: 0x06070513
    2bb8:	49210501 	stmdbmi	r1!, {r0, r8, sl}
    2bbc:	31060505 	tstcc	r6, r5, lsl #10
    2bc0:	01056606 	tsteq	r5, r6, lsl #12
    2bc4:	0623052f 	strteq	r0, [r3], -pc, lsr #10
    2bc8:	0501064d 	streq	r0, [r1, #-1613]	; 0xfffff9b3
    2bcc:	052f0605 	streq	r0, [pc, #-1541]!	; 25cf <__code_start__-0x5a31>
    2bd0:	054b0601 	strbeq	r0, [fp, #-1537]	; 0xfffff9ff
    2bd4:	0631062b 	ldrteq	r0, [r1], -fp, lsr #12
    2bd8:	06050501 	streq	r0, [r5], -r1, lsl #10
    2bdc:	0607052f 	streq	r0, [r7], -pc, lsr #10
    2be0:	06090501 	streq	r0, [r9], -r1, lsl #10
    2be4:	062e064b 	strteq	r0, [lr], -fp, asr #12
    2be8:	06010530 			; <UNDEFINED> instruction: 0x06010530
    2bec:	061d052f 	ldreq	r0, [sp], -pc, lsr #10
    2bf0:	13050530 	movwne	r0, #21808	; 0x5530
    2bf4:	01060705 	tsteq	r6, r5, lsl #14
    2bf8:	05491d05 	strbeq	r1, [r9, #-3333]	; 0xfffff2fb
    2bfc:	13310605 	teqne	r1, #5242880	; 0x500000
    2c00:	01060e05 	tsteq	r6, r5, lsl #28
    2c04:	2f060505 	svccs	0x00060505
    2c08:	01061705 	tsteq	r6, r5, lsl #14
    2c0c:	2e23054a 	cfsh64cs	mvdx0, mvdx3, #42
    2c10:	30050204 	andcc	r0, r5, r4, lsl #4
    2c14:	00dc0306 	sbcseq	r0, ip, r6, lsl #6
    2c18:	0501042e 	streq	r0, [r1, #-1070]	; 0xfffffbd2
    2c1c:	a403060c 	strge	r0, [r3], #-1548	; 0xfffff9f4
    2c20:	0105017f 	tsteq	r5, pc, ror r1
    2c24:	2a10052f 	bcs	4040e8 <__bss_end__+0x3f9240>
    2c28:	02320105 	eorseq	r0, r2, #1073741825	; 0x40000001
    2c2c:	01010004 	tsteq	r1, r4

Disassembly of section .debug_str:

00000000 <.debug_str>:
   0:	7473616c 	ldrbtvc	r6, [r3], #-364	; 0xfffffe94
   4:	646f6e5f 	strbtvs	r6, [pc], #-3679	; c <__code_start__-0x7ff4>
   8:	6b630065 	blvs	18c01a4 <__bss_end__+0x18b52fc>
   c:	6f6c6c61 	svcvs	0x006c6c61
  10:	64680063 	strbtvs	r0, [r8], #-99	; 0xffffff9d
  14:	00745f72 	rsbseq	r5, r4, r2, ror pc
  18:	74617473 	strbtvc	r7, [r1], #-1139	; 0xfffffb8d
  1c:	65720065 	ldrbvs	r0, [r2, #-101]!	; 0xffffff9b
  20:	6d5f7366 	ldclvs	3, cr7, [pc, #-408]	; fffffe90 <__bss_end__+0xffff4fe8>
  24:	6c646469 	cfstrdvs	mvd6, [r4], #-420	; 0xfffffe5c
  28:	68730065 	ldmdavs	r3!, {r0, r2, r5, r6}^
  2c:	2074726f 	rsbscs	r7, r4, pc, ror #4
  30:	00746e69 	rsbseq	r6, r4, r9, ror #28
  34:	5f697072 	svcpl	0x00697072
  38:	63747570 	cmnvs	r4, #112, 10	; 0x1c000000
  3c:	00726168 	rsbseq	r6, r2, r8, ror #2
  40:	656c6966 	strbvs	r6, [ip, #-2406]!	; 0xfffff69a
  44:	6e697500 	cdpvs	5, 6, cr7, cr9, cr0, {0}
  48:	745f3874 	ldrbvc	r3, [pc], #-2164	; 50 <__code_start__-0x7fb0>
  4c:	78656e00 	stmdavc	r5!, {r9, sl, fp, sp, lr}^
  50:	6c625f74 	stclvs	15, cr5, [r2], #-464	; 0xfffffe30
  54:	5f6b636f 	svcpl	0x006b636f
  58:	74006469 	strvc	r6, [r0], #-1129	; 0xfffffb97
  5c:	31747365 	cmncc	r4, r5, ror #6
  60:	6e756600 	cdpvs	6, 7, cr6, cr5, cr0, {0}
  64:	6f6c0063 	svcvs	0x006c0063
  68:	6c20676e 	stcvs	7, cr6, [r0], #-440	; 0xfffffe48
  6c:	20676e6f 	rsbcs	r6, r7, pc, ror #28
  70:	00746e69 	rsbseq	r6, r4, r9, ror #28
  74:	6f6c6c61 	svcvs	0x006c6c61
  78:	696c5f63 	stmdbvs	ip!, {r0, r1, r5, r6, r8, r9, sl, fp, ip, lr}^
  7c:	63007473 	movwvs	r7, #1139	; 0x473
  80:	6c625f6b 	stclvs	15, cr5, [r2], #-428	; 0xfffffe54
  84:	64695f6b 	strbtvs	r5, [r9], #-3947	; 0xfffff095
  88:	5f6b6300 	svcpl	0x006b6300
  8c:	646e6966 	strbtvs	r6, [lr], #-2406	; 0xfffff69a
  90:	61656c5f 	cmnvs	r5, pc, asr ip
  94:	6300736b 	movwvs	r7, #875	; 0x36b
  98:	64685f6b 	strbtvs	r5, [r8], #-3947	; 0xfffff095
  9c:	5f5f0072 	svcpl	0x005f0072
  a0:	434e5546 	movtmi	r5, #58694	; 0xe546
  a4:	4e4f4954 			; <UNDEFINED> instruction: 0x4e4f4954
  a8:	61005f5f 	tstvs	r0, pc, asr pc
  ac:	636f6c6c 	cmnvs	pc, #108, 24	; 0x6c00
  b0:	636f6c5f 	cmnvs	pc, #24320	; 0x5f00
  b4:	656c6300 	strbvs	r6, [ip, #-768]!	; 0xfffffd00
  b8:	725f6e61 	subsvc	r6, pc, #1552	; 0x610
  bc:	6f6f6265 	svcvs	0x006f6265
  c0:	616d0074 	smcvs	53252	; 0xd004
  c4:	63006b72 	movwvs	r6, #2930	; 0xb72
  c8:	65765f6b 	ldrbvs	r5, [r6, #-3947]!	; 0xfffff095
  cc:	736f6272 	cmnvc	pc, #536870919	; 0x20000007
  d0:	00705f65 	rsbseq	r5, r0, r5, ror #30
  d4:	69736e75 	ldmdbvs	r3!, {r0, r2, r4, r5, r6, r9, sl, fp, sp, lr}^
  d8:	64656e67 	strbtvs	r6, [r5], #-3687	; 0xfffff199
  dc:	61686320 	cmnvs	r8, r0, lsr #6
  e0:	65720072 	ldrbvs	r0, [r2, #-114]!	; 0xffffff8e
  e4:	735f7366 	cmpvc	pc, #-1744830463	; 0x98000001
  e8:	74726174 	ldrbtvc	r6, [r2], #-372	; 0xfffffe8c
  ec:	6e696c00 	cdpvs	12, 6, cr6, cr9, cr0, {0}
  f0:	006f6e65 	rsbeq	r6, pc, r5, ror #28
  f4:	676e6f6c 	strbvs	r6, [lr, -ip, ror #30]!
  f8:	6e6f6c20 	cdpvs	12, 6, cr6, cr15, cr0, {1}
  fc:	6e752067 	cdpvs	0, 7, cr2, cr5, cr7, {3}
 100:	6e676973 			; <UNDEFINED> instruction: 0x6e676973
 104:	69206465 	stmdbvs	r0!, {r0, r2, r5, r6, sl, sp, lr}
 108:	7500746e 	strvc	r7, [r0, #-1134]	; 0xfffffb92
 10c:	33746e69 	cmncc	r4, #1680	; 0x690
 110:	00745f32 	rsbseq	r5, r4, r2, lsr pc
 114:	746e6975 	strbtvc	r6, [lr], #-2421	; 0xfffff68b
 118:	745f3631 	ldrbvc	r3, [pc], #-1585	; 120 <__code_start__-0x7ee0>
 11c:	746f6e00 	strbtvc	r6, [pc], #-3584	; 124 <__code_start__-0x7edc>
 120:	6e69616d 	powvsez	f6, f1, #5.0
 124:	6f687300 	svcvs	0x00687300
 128:	75207472 	strvc	r7, [r0, #-1138]!	; 0xfffffb8e
 12c:	6769736e 	strbvs	r7, [r9, -lr, ror #6]!
 130:	2064656e 	rsbcs	r6, r4, lr, ror #10
 134:	00746e69 	rsbseq	r6, r4, r9, ror #28
 138:	6b61656c 	blvs	18596f0 <__bss_end__+0x184e848>
 13c:	2f006465 	svccs	0x00006465
 140:	72657355 	rsbvc	r7, r5, #1409286145	; 0x54000001
 144:	72742f73 	rsbsvc	r2, r4, #460	; 0x1cc
 148:	65747369 	ldrbvs	r7, [r4, #-873]!	; 0xfffffc97
 14c:	6c6f6e6e 	stclvs	14, cr6, [pc], #-440	; ffffff9c <__bss_end__+0xffff50f4>
 150:	6e616d6c 	cdpvs	13, 6, cr6, cr1, cr12, {3}
 154:	636f442f 	cmnvs	pc, #788529152	; 0x2f000000
 158:	6e656d75 	mcrvs	13, 3, r6, cr5, cr5, {3}
 15c:	532f7374 			; <UNDEFINED> instruction: 0x532f7374
 160:	6e697270 	mcrvs	2, 3, r7, cr9, cr0, {3}
 164:	75515f67 	ldrbvc	r5, [r1, #-3943]	; 0xfffff099
 168:	65747261 	ldrbvs	r7, [r4, #-609]!	; 0xfffffd9f
 16c:	30325f72 	eorscc	r5, r2, r2, ror pc
 170:	432f3232 			; <UNDEFINED> instruction: 0x432f3232
 174:	30343253 	eorscc	r3, r4, r3, asr r2
 178:	732d584c 			; <UNDEFINED> instruction: 0x732d584c
 17c:	32327270 	eorscc	r7, r2, #112, 4
 180:	62616c2f 	rsbvs	r6, r1, #12032	; 0x2f00
 184:	2d352f73 	ldccs	15, cr2, [r5, #-460]!	; 0xfffffe34
 188:	6c6c616d 	stfvse	f6, [ip], #-436	; 0xfffffe4c
 18c:	672b636f 	strvs	r6, [fp, -pc, ror #6]!
 190:	6f632f63 	svcvs	0x00632f63
 194:	47006564 	strmi	r6, [r0, -r4, ror #10]
 198:	4320554e 			; <UNDEFINED> instruction: 0x4320554e
 19c:	39203939 	stmdbcc	r0!, {r0, r3, r4, r5, r8, fp, ip, sp}
 1a0:	312e322e 			; <UNDEFINED> instruction: 0x312e322e
 1a4:	31303220 	teqcc	r0, r0, lsr #4
 1a8:	32303139 	eorscc	r3, r0, #1073741838	; 0x4000000e
 1ac:	72282035 	eorvc	r2, r8, #53, 0	; 0x35
 1b0:	61656c65 	cmnvs	r5, r5, ror #24
 1b4:	20296573 	eorcs	r6, r9, r3, ror r5
 1b8:	4d52415b 	ldfmie	f4, [r2, #-364]	; 0xfffffe94
 1bc:	6d72612f 	ldfvse	f6, [r2, #-188]!	; 0xffffff44
 1c0:	622d392d 	eorvs	r3, sp, #737280	; 0xb4000
 1c4:	636e6172 	cmnvs	lr, #-2147483620	; 0x8000001c
 1c8:	65722068 	ldrbvs	r2, [r2, #-104]!	; 0xffffff98
 1cc:	69736976 	ldmdbvs	r3!, {r1, r2, r4, r5, r6, r8, fp, sp, lr}^
 1d0:	32206e6f 	eorcc	r6, r0, #1776	; 0x6f0
 1d4:	39353737 	ldmdbcc	r5!, {r0, r1, r2, r4, r5, r8, r9, sl, ip, sp}
 1d8:	2d205d39 	stccs	13, cr5, [r0, #-228]!	; 0xffffff1c
 1dc:	7570636d 	ldrbvc	r6, [r0, #-877]!	; 0xfffffc93
 1e0:	6d72613d 	ldfvse	f6, [r2, #-244]!	; 0xffffff0c
 1e4:	36373131 			; <UNDEFINED> instruction: 0x36373131
 1e8:	2d667a6a 	vstmdbcs	r6!, {s15-s120}
 1ec:	6d2d2073 	stcvs	0, cr2, [sp, #-460]!	; 0xfffffe34
 1f0:	656e7574 	strbvs	r7, [lr, #-1396]!	; 0xfffffa8c
 1f4:	6d72613d 	ldfvse	f6, [r2, #-244]!	; 0xffffff0c
 1f8:	36373131 			; <UNDEFINED> instruction: 0x36373131
 1fc:	2d667a6a 	vstmdbcs	r6!, {s15-s120}
 200:	6d2d2073 	stcvs	0, cr2, [sp, #-460]!	; 0xfffffe34
 204:	616f6c66 	cmnvs	pc, r6, ror #24
 208:	62612d74 	rsbvs	r2, r1, #116, 26	; 0x1d00
 20c:	6f733d69 	svcvs	0x00733d69
 210:	2d207466 	cfstrscs	mvf7, [r0, #-408]!	; 0xfffffe68
 214:	6d72616d 	ldfvse	f6, [r2, #-436]!	; 0xfffffe4c
 218:	616d2d20 	cmnvs	sp, r0, lsr #26
 21c:	3d686372 	stclcc	3, cr6, [r8, #-456]!	; 0xfffffe38
 220:	766d7261 	strbtvc	r7, [sp], -r1, ror #4
 224:	207a6b36 	rsbscs	r6, sl, r6, lsr fp
 228:	6467672d 	strbtvs	r6, [r7], #-1837	; 0xfffff8d3
 22c:	4f2d2062 	svcmi	0x002d2062
 230:	732d2067 			; <UNDEFINED> instruction: 0x732d2067
 234:	673d6474 			; <UNDEFINED> instruction: 0x673d6474
 238:	3939756e 	ldmdbcc	r9!, {r1, r2, r3, r5, r6, r8, sl, ip, sp, lr}
 23c:	66662d20 	strbtvs	r2, [r6], -r0, lsr #26
 240:	73656572 	cmnvc	r5, #478150656	; 0x1c800000
 244:	646e6174 	strbtvs	r6, [lr], #-372	; 0xfffffe8c
 248:	00676e69 	rsbeq	r6, r7, r9, ror #28
 24c:	74736574 	ldrbtvc	r6, [r3], #-1396	; 0xfffffa8c
 250:	2e332d73 	mrccs	13, 1, r2, cr3, cr3, {3}
 254:	61702f30 	cmnvs	r0, r0, lsr pc
 258:	2d327472 	cfldrscs	mvf7, [r2, #-456]!	; 0xfffffe38
 25c:	74736574 	ldrbtvc	r6, [r3], #-1396	; 0xfffffa8c
 260:	6f6e2d36 	svcvs	0x006e2d36
 264:	61656c2d 	cmnvs	r5, sp, lsr #24
 268:	00632e6b 	rsbeq	r2, r3, fp, ror #28
 26c:	7479626e 	ldrbtvc	r6, [r9], #-622	; 0xfffffd92
 270:	615f7365 	cmpvs	pc, r5, ror #6
 274:	636f6c6c 	cmnvs	pc, #108, 24	; 0x6c00
 278:	63727300 	cmnvs	r2, #0, 6
 27c:	636f6c5f 	cmnvs	pc, #24320	; 0x5f00
 280:	006b6d5f 	rsbeq	r6, fp, pc, asr sp
 284:	7478656e 	ldrbtvc	r6, [r8], #-1390	; 0xfffffa92
 288:	63727300 	cmnvs	r2, #0, 6
 28c:	636f6c5f 	cmnvs	pc, #24320	; 0x5f00
 290:	6300745f 	movwvs	r7, #1119	; 0x45f
 294:	74705f6b 	ldrbtvc	r5, [r0], #-3947	; 0xfffff095
 298:	6e695f72 	mcrvs	15, 3, r5, cr9, cr2, {3}
 29c:	6f6c625f 	svcvs	0x006c625f
 2a0:	70006b63 	andvc	r6, r0, r3, ror #22
 2a4:	5f766572 	svcpl	0x00766572
 2a8:	7473616c 	ldrbtvc	r6, [r3], #-364	; 0xfffffe94
 2ac:	5f6b6300 	svcpl	0x006b6300
 2b0:	5f746567 	svcpl	0x00746567
 2b4:	00327a72 	eorseq	r7, r2, r2, ror sl
 2b8:	45455246 	strbmi	r5, [r5, #-582]	; 0xfffffdba
 2bc:	45530044 	ldrbmi	r0, [r3, #-68]	; 0xffffffbc
 2c0:	4e49544e 	cdpmi	4, 4, cr5, cr9, cr14, {2}
 2c4:	6c004c41 	stcvs	12, cr4, [r0], {65}	; 0x41
 2c8:	5f747369 	svcpl	0x00747369
 2cc:	65707061 	ldrbvs	r7, [r0, #-97]!	; 0xffffff9f
 2d0:	6d00646e 	cfstrsvs	mvf6, [r0, #-440]	; 0xfffffe48
 2d4:	70636d65 	rsbvc	r6, r3, r5, ror #26
 2d8:	45520079 	ldrbmi	r0, [r2, #-121]	; 0xffffff87
 2dc:	4e4f5a44 	vmlsmi.f32	s11, s30, s8
 2e0:	41565f45 	cmpmi	r6, r5, asr #30
 2e4:	4552004c 	ldrbmi	r0, [r2, #-76]	; 0xffffffb4
 2e8:	4e4f5a44 	vmlsmi.f32	s11, s30, s8
 2ec:	424e5f45 	submi	r5, lr, #276	; 0x114
 2f0:	53455459 	movtpl	r5, #21593	; 0x5459
 2f4:	5f6b6300 	svcpl	0x006b6300
 2f8:	73726966 	cmnvc	r2, #1671168	; 0x198000
 2fc:	64685f74 	strbtvs	r5, [r8], #-3956	; 0xfffff08c
 300:	6b630072 	blvs	18c04d0 <__bss_end__+0x18b5628>
 304:	65657266 	strbvs	r7, [r5, #-614]!	; 0xfffffd9a
 308:	5f6b6300 	svcpl	0x006b6300
 30c:	63656863 	cmnvs	r5, #6488064	; 0x630000
 310:	64755f6b 	ldrbtvs	r5, [r5], #-3947	; 0xfffff095
 314:	00617461 	rsbeq	r7, r1, r1, ror #8
 318:	736d656d 	cmnvc	sp, #457179136	; 0x1b400000
 31c:	65007465 	strvs	r7, [r0, #-1125]	; 0xfffffb9b
 320:	00737272 	rsbseq	r7, r3, r2, ror r2
 324:	5f317a72 	svcpl	0x00317a72
 328:	00736572 	rsbseq	r6, r3, r2, ror r5
 32c:	705f6b63 	subsvc	r6, pc, r3, ror #22
 330:	695f7274 	ldmdbvs	pc, {r2, r4, r5, r6, r9, ip, sp, lr}^	; <UNPREDICTABLE>
 334:	6c615f73 	stclvs	15, cr5, [r1], #-460	; 0xfffffe34
 338:	65636f6c 	strbvs	r6, [r3, #-3948]!	; 0xfffff094
 33c:	6b630064 	blvs	18c04d4 <__bss_end__+0x18b562c>
 340:	78656e5f 	stmdavc	r5!, {r0, r1, r2, r3, r4, r6, r9, sl, fp, sp, lr}^
 344:	64685f74 	strbtvs	r5, [r8], #-3956	; 0xfffff08c
 348:	75630072 	strbvc	r0, [r3, #-114]!	; 0xffffff8e
 34c:	6d007272 	sfmvs	f7, 4, [r0, #-456]	; 0xfffffe38
 350:	6d636d65 	stclvs	13, cr6, [r3, #-404]!	; 0xfffffe6c
 354:	6b630070 	blvs	18c051c <__bss_end__+0x18b5674>
 358:	6f6c6c61 	svcvs	0x006c6c61
 35c:	00632e63 	rsbeq	r2, r3, r3, ror #28
 360:	746e6573 	strbtvc	r6, [lr], #-1395	; 0xfffffa8d
 364:	6c616e69 	stclvs	14, cr6, [r1], #-420	; 0xfffffe5c
 368:	6675625f 			; <UNDEFINED> instruction: 0x6675625f
 36c:	6e657300 	cdpvs	3, 6, cr7, cr5, cr0, {0}
 370:	616e6974 	smcvs	59028	; 0xe694
 374:	6f64006c 	svcvs	0x0064006c
 378:	656c6275 	strbvs	r6, [ip, #-629]!	; 0xfffffd8b
 37c:	5f6b6300 	svcpl	0x006b6300
 380:	5f727470 	svcpl	0x00727470
 384:	685f6f74 	ldmdavs	pc, {r2, r4, r5, r6, r8, r9, sl, fp, sp, lr}^	; <UNPREDICTABLE>
 388:	41007264 	tstmi	r0, r4, ror #4
 38c:	434f4c4c 	movtmi	r4, #64588	; 0xfc4c
 390:	63004445 	movwvs	r4, #1093	; 0x445
 394:	64685f6b 	strbtvs	r5, [r8], #-3947	; 0xfffff095
 398:	74735f72 	ldrbtvc	r5, [r3], #-3954	; 0xfffff08e
 39c:	00747261 	rsbseq	r7, r4, r1, ror #4
 3a0:	685f6b63 	ldmdavs	pc, {r0, r1, r5, r6, r8, r9, fp, sp, lr}^	; <UNPREDICTABLE>
 3a4:	5f706165 	svcpl	0x00706165
 3a8:	6f727265 	svcvs	0x00727265
 3ac:	63007372 	movwvs	r7, #882	; 0x372
 3b0:	64685f6b 	strbtvs	r5, [r8], #-3947	; 0xfffff095
 3b4:	6e655f72 	mcrvs	15, 3, r5, cr5, cr2, {3}
 3b8:	7a720064 	bvc	1c80550 <__bss_end__+0x1c756a8>
 3bc:	65725f32 	ldrbvs	r5, [r2, #-3890]!	; 0xfffff0ce
 3c0:	6b630073 	blvs	18c0594 <__bss_end__+0x18b56ec>
 3c4:	79626e5f 	stmdbvc	r2!, {r0, r1, r2, r3, r4, r6, r9, sl, fp, sp, lr}^
 3c8:	00736574 	rsbseq	r6, r3, r4, ror r5
 3cc:	6d5f726b 	lfmvs	f7, 2, [pc, #-428]	; 228 <__code_start__-0x7dd8>
 3d0:	6f6c6c61 	svcvs	0x006c6c61
 3d4:	6b630063 	blvs	18c0568 <__bss_end__+0x18b56c0>
 3d8:	6568635f 	strbvs	r6, [r8, #-863]!	; 0xfffffca1
 3dc:	725f6b63 	subsvc	r6, pc, #101376	; 0x18c00
 3e0:	6f7a6465 	svcvs	0x007a6465
 3e4:	0073656e 	rsbseq	r6, r3, lr, ror #10
 3e8:	63617473 	cmnvs	r1, #1929379840	; 0x73000000
 3ec:	6f745f6b 	svcvs	0x00745f6b
 3f0:	6c620070 	stclvs	0, cr0, [r2], #-448	; 0xfffffe40
 3f4:	5f6b636f 	svcpl	0x006b636f
 3f8:	72617473 	rsbvc	r7, r1, #1929379840	; 0x73000000
 3fc:	6f6e0074 	svcvs	0x006e0074
 400:	6174735f 	cmnvs	r4, pc, asr r3
 404:	6d007472 	cfstrsvs	mvf7, [r0, #-456]	; 0xfffffe38
 408:	5f6b7261 	svcpl	0x006b7261
 40c:	006c6c61 	rsbeq	r6, ip, r1, ror #24
 410:	6c706d69 	ldclvs	13, cr6, [r0], #-420	; 0xfffffe5c
 414:	6e656d65 	cdpvs	13, 6, cr6, cr5, cr5, {3}
 418:	68745f74 	ldmdavs	r4!, {r2, r4, r5, r6, r8, r9, sl, fp, ip, lr}^
 41c:	5f007369 	svcpl	0x00007369
 420:	7373625f 	cmnvc	r3, #-268435451	; 0xf0000005
 424:	6174735f 	cmnvs	r4, pc, asr r3
 428:	5f5f7472 	svcpl	0x005f7472
 42c:	6d756e00 	ldclvs	14, cr6, [r5, #-0]
 430:	726f775f 	rsbvc	r7, pc, #24903680	; 0x17c0000
 434:	6e007364 	cdpvs	3, 0, cr7, cr0, cr4, {3}
 438:	636f6c62 	cmnvs	pc, #25088	; 0x6200
 43c:	6900736b 	stmdbvs	r0, {r0, r1, r3, r5, r6, r8, r9, ip, sp, lr}
 440:	5f74696e 	svcpl	0x0074696e
 444:	626e0070 	rsbvs	r0, lr, #112, 0	; 0x70
 448:	73657479 	cmnvc	r5, #2030043136	; 0x79000000
 44c:	6572665f 	ldrbvs	r6, [r2, #-1631]!	; 0xfffff9a1
 450:	69006465 	stmdbvs	r0, {r0, r2, r5, r6, sl, sp, lr}
 454:	6572636e 	ldrbvs	r6, [r2, #-878]!	; 0xfffffc92
 458:	746e656d 	strbtvc	r6, [lr], #-1389	; 0xfffffa93
 45c:	79616d00 	stmdbvc	r1!, {r8, sl, fp, sp, lr}^
 460:	655f6562 	ldrbvs	r6, [pc, #-1378]	; ffffff06 <__bss_end__+0xffff505e>
 464:	726f7272 	rsbvc	r7, pc, #536870919	; 0x20000007
 468:	6b630073 	blvs	18c063c <__bss_end__+0x18b5794>
 46c:	0063675f 	rsbeq	r6, r3, pc, asr r7
 470:	706d7564 	rsbvc	r7, sp, r4, ror #10
 474:	6765725f 			; <UNDEFINED> instruction: 0x6765725f
 478:	6c6e0073 	stclvs	0, cr0, [lr], #-460	; 0xfffffe34
 47c:	736b6165 	cmnvc	fp, #1073741849	; 0x40000019
 480:	645f5f00 	ldrbvs	r5, [pc], #-3840	; 488 <__code_start__-0x7b78>
 484:	5f617461 	svcpl	0x00617461
 488:	5f646e65 	svcpl	0x00646e65
 48c:	6273005f 	rsbsvs	r0, r3, #95, 0	; 0x5f
 490:	69006b72 	stmdbvs	r0, {r1, r4, r5, r6, r8, r9, fp, sp, lr}
 494:	74705f73 	ldrbtvc	r5, [r0], #-3955	; 0xfffff08d
 498:	68630072 	stmdavs	r3!, {r1, r4, r5, r6}^
 49c:	5f6b6365 	svcpl	0x006b6365
 4a0:	6c5f6f6e 	mrrcvs	15, 6, r6, pc, cr14	; <UNPREDICTABLE>
 4a4:	006b6165 	rsbeq	r6, fp, r5, ror #2
 4a8:	6572666e 	ldrbvs	r6, [r2, #-1646]!	; 0xfffff992
 4ac:	63006465 	movwvs	r6, #1125	; 0x465
 4b0:	5f727275 	svcpl	0x00727275
 4b4:	64726f77 	ldrbtvs	r6, [r2], #-3959	; 0xfffff089
 4b8:	6f6c6200 	svcvs	0x006c6200
 4bc:	655f6b63 	ldrbvs	r6, [pc, #-2915]	; fffff961 <__bss_end__+0xffff4ab9>
 4c0:	6900646e 	stmdbvs	r0, {r1, r2, r3, r5, r6, sl, sp, lr}
 4c4:	65685f6e 	strbvs	r5, [r8, #-3950]!	; 0xfffff092
 4c8:	6f007061 	svcvs	0x00007061
 4cc:	626d656e 	rsbvs	r6, sp, #461373440	; 0x1b800000
 4d0:	2d6b6300 	stclcs	3, cr6, [fp, #-0]
 4d4:	632e6367 			; <UNDEFINED> instruction: 0x632e6367
 4d8:	65686300 	strbvs	r6, [r8, #-768]!	; 0xfffffd00
 4dc:	735f6b63 	cmpvc	pc, #101376	; 0x18c00
 4e0:	6c756f68 	ldclvs	15, cr6, [r5], #-416	; 0xfffffe60
 4e4:	656c5f64 	strbvs	r5, [ip, #-3940]!	; 0xfffff09c
 4e8:	5f006b61 	svcpl	0x00006b61
 4ec:	7373625f 	cmnvc	r3, #-268435451	; 0xf0000005
 4f0:	646e655f 	strbtvs	r6, [lr], #-1375	; 0xfffffaa1
 4f4:	6b005f5f 	blvs	18278 <__bss_end__+0xd3d0>
 4f8:	6c6c616d 	stfvse	f6, [ip], #-436	; 0xfffffe4c
 4fc:	6b00636f 	blvs	192c0 <__bss_end__+0xe418>
 500:	6c6c616d 	stfvse	f6, [ip], #-436	; 0xfffffe4c
 504:	695f636f 	ldmdbvs	pc, {r0, r1, r2, r3, r5, r6, r8, r9, sp, lr}^	; <UNPREDICTABLE>
 508:	5f74696e 	svcpl	0x0074696e
 50c:	5f746573 	svcpl	0x00746573
 510:	72617473 	rsbvc	r7, r1, #1929379840	; 0x73000000
 514:	77730074 			; <UNDEFINED> instruction: 0x77730074
 518:	5f706565 	svcpl	0x00706565
 51c:	6b61656c 	blvs	1859ad4 <__bss_end__+0x184ec2c>
 520:	645f5f00 	ldrbvs	r5, [pc], #-3840	; 528 <__code_start__-0x7ad8>
 524:	5f617461 	svcpl	0x00617461
 528:	72617473 	rsbvc	r7, r1, #1929379840	; 0x73000000
 52c:	005f5f74 	subseq	r5, pc, r4, ror pc	; <UNPREDICTABLE>
 530:	65657773 	strbvs	r7, [r5, #-1907]!	; 0xfffff88d
 534:	72665f70 	rsbvc	r5, r6, #112, 30	; 0x1c0
 538:	77006565 	strvc	r6, [r0, -r5, ror #10]
 53c:	5f6e7261 	svcpl	0x006e7261
 540:	735f6f6e 	cmpvc	pc, #440	; 0x1b8
 544:	74726174 	ldrbtvc	r6, [r2], #-372	; 0xfffffe8c
 548:	6665725f 			; <UNDEFINED> instruction: 0x6665725f
 54c:	6800705f 	stmdavs	r0, {r0, r1, r2, r3, r4, r6, ip, sp, lr}
 550:	65646165 	strbvs	r6, [r4, #-357]!	; 0xfffffe9b
 554:	72700072 	rsbsvc	r0, r0, #114, 0	; 0x72
 558:	00707665 	rsbseq	r7, r0, r5, ror #12
 55c:	67696c61 	strbvs	r6, [r9, -r1, ror #24]!
 560:	726b006e 	rsbvc	r0, fp, #110, 0	; 0x6e
 564:	6572665f 	ldrbvs	r6, [r2, #-1631]!	; 0xfffff9a1
 568:	72660065 	rsbvc	r0, r6, #101, 0	; 0x65
 56c:	00706565 	rsbseq	r6, r0, r5, ror #10
 570:	696e756e 	stmdbvs	lr!, {r1, r2, r3, r5, r6, r8, sl, ip, sp, lr}^
 574:	6b007374 	blvs	1d34c <__bss_end__+0x124a4>
 578:	616d2d72 	smcvs	53970	; 0xd2d2
 57c:	636f6c6c 	cmnvs	pc, #108, 24	; 0x6c00
 580:	6200632e 	andvs	r6, r0, #-1207959552	; 0xb8000000
 584:	00657361 	rsbeq	r7, r5, r1, ror #6
 588:	6d5f726b 	lfmvs	f7, 2, [pc, #-428]	; 3e4 <__code_start__-0x7c1c>
 58c:	6365726f 	cmnvs	r5, #-268435450	; 0xf0000006
 590:	0065726f 	rsbeq	r7, r5, pc, ror #4
 594:	657a6973 	ldrbvs	r6, [sl, #-2419]!	; 0xfffff68d
 598:	61654800 	cmnvs	r5, r0, lsl #16
 59c:	00726564 	rsbseq	r6, r2, r4, ror #10
 5a0:	20554e47 	subscs	r4, r5, r7, asr #28
 5a4:	20393943 	eorscs	r3, r9, r3, asr #18
 5a8:	2e322e39 	mrccs	14, 1, r2, cr2, cr9, {1}
 5ac:	30322031 	eorscc	r2, r2, r1, lsr r0
 5b0:	30313931 	eorscc	r3, r1, r1, lsr r9
 5b4:	28203532 	stmdacs	r0!, {r1, r4, r5, r8, sl, ip, sp}
 5b8:	656c6572 	strbvs	r6, [ip, #-1394]!	; 0xfffffa8e
 5bc:	29657361 	stmdbcs	r5!, {r0, r5, r6, r8, r9, ip, sp, lr}^
 5c0:	52415b20 	subpl	r5, r1, #32, 22	; 0x8000
 5c4:	72612f4d 	rsbvc	r2, r1, #308	; 0x134
 5c8:	2d392d6d 	ldccs	13, cr2, [r9, #-436]!	; 0xfffffe4c
 5cc:	6e617262 	cdpvs	2, 6, cr7, cr1, cr2, {3}
 5d0:	72206863 	eorvc	r6, r0, #6488064	; 0x630000
 5d4:	73697665 	cmnvc	r9, #105906176	; 0x6500000
 5d8:	206e6f69 	rsbcs	r6, lr, r9, ror #30
 5dc:	35373732 	ldrcc	r3, [r7, #-1842]!	; 0xfffff8ce
 5e0:	205d3939 	subscs	r3, sp, r9, lsr r9
 5e4:	70636d2d 	rsbvc	r6, r3, sp, lsr #26
 5e8:	72613d75 	rsbvc	r3, r1, #7488	; 0x1d40
 5ec:	3731316d 	ldrcc	r3, [r1, -sp, ror #2]!
 5f0:	667a6a36 			; <UNDEFINED> instruction: 0x667a6a36
 5f4:	2d20732d 	stccs	3, cr7, [r0, #-180]!	; 0xffffff4c
 5f8:	6e75746d 	cdpvs	4, 7, cr7, cr5, cr13, {3}
 5fc:	72613d65 	rsbvc	r3, r1, #6464	; 0x1940
 600:	3731316d 	ldrcc	r3, [r1, -sp, ror #2]!
 604:	667a6a36 			; <UNDEFINED> instruction: 0x667a6a36
 608:	2d20732d 	stccs	3, cr7, [r0, #-180]!	; 0xffffff4c
 60c:	6f6c666d 	svcvs	0x006c666d
 610:	612d7461 			; <UNDEFINED> instruction: 0x612d7461
 614:	733d6962 	teqvc	sp, #1605632	; 0x188000
 618:	2074666f 	rsbscs	r6, r4, pc, ror #12
 61c:	72616d2d 	rsbvc	r6, r1, #2880	; 0xb40
 620:	6d2d206d 	stcvs	0, cr2, [sp, #-436]!	; 0xfffffe4c
 624:	68637261 	stmdavs	r3!, {r0, r5, r6, r9, ip, sp, lr}^
 628:	6d72613d 	ldfvse	f6, [r2, #-244]!	; 0xffffff0c
 62c:	7a6b3676 	bvc	1ace00c <__bss_end__+0x1ac3164>
 630:	67672d20 	strbvs	r2, [r7, -r0, lsr #26]!
 634:	2d206264 	sfmcs	f6, 4, [r0, #-400]!	; 0xfffffe70
 638:	62646767 	rsbvs	r6, r4, #27000832	; 0x19c0000
 63c:	674f2d20 	strbvs	r2, [pc, -r0, lsr #26]
 640:	674f2d20 	strbvs	r2, [pc, -r0, lsr #26]
 644:	74732d20 	ldrbtvc	r2, [r3], #-3360	; 0xfffff2e0
 648:	6e673d64 	cdpvs	13, 6, cr3, cr7, cr4, {3}
 64c:	20393975 	eorscs	r3, r9, r5, ror r9
 650:	6474732d 	ldrbtvs	r7, [r4], #-813	; 0xfffffcd3
 654:	756e673d 	strbvc	r6, [lr, #-1853]!	; 0xfffff8c3
 658:	2d203939 			; <UNDEFINED> instruction: 0x2d203939
 65c:	65726666 	ldrbvs	r6, [r2, #-1638]!	; 0xfffff99a
 660:	61747365 	cmnvs	r4, r5, ror #6
 664:	6e69646e 	cdpvs	4, 6, cr6, cr9, cr14, {3}
 668:	69730067 	ldmdbvs	r3!, {r0, r1, r2, r5, r6}^
 66c:	745f657a 	ldrbvc	r6, [pc], #-1402	; 674 <__code_start__-0x798c>
 670:	73552f00 	cmpvc	r5, #0, 30
 674:	2f737265 	svccs	0x00737265
 678:	73697274 	cmnvc	r9, #116, 4	; 0x40000007
 67c:	6e6e6574 	mcrvs	5, 3, r6, cr14, cr4, {3}
 680:	6d6c6c6f 	stclvs	12, cr6, [ip, #-444]!	; 0xfffffe44
 684:	442f6e61 	strtmi	r6, [pc], #-3681	; 68c <__code_start__-0x7974>
 688:	6d75636f 	ldclvs	3, cr6, [r5, #-444]!	; 0xfffffe44
 68c:	73746e65 	cmnvc	r4, #1616	; 0x650
 690:	7270532f 	rsbsvc	r5, r0, #-1140850688	; 0xbc000000
 694:	5f676e69 	svcpl	0x00676e69
 698:	72617551 	rsbvc	r7, r1, #339738624	; 0x14400000
 69c:	5f726574 	svcpl	0x00726574
 6a0:	32323032 	eorscc	r3, r2, #50, 0	; 0x32
 6a4:	3253432f 	subscc	r4, r3, #-1140850688	; 0xbc000000
 6a8:	584c3034 	stmdapl	ip, {r2, r4, r5, ip, sp}^
 6ac:	7270732d 	rsbsvc	r7, r0, #-1275068416	; 0xb4000000
 6b0:	6c2f3232 	sfmvs	f3, 4, [pc], #-200	; 5f0 <__code_start__-0x7a10>
 6b4:	69706269 	ldmdbvs	r0!, {r0, r3, r5, r6, r9, sp, lr}^
 6b8:	6c2f2e00 	stcvs	14, cr2, [pc], #-0	; 6c0 <__code_start__-0x7940>
 6bc:	2f636269 	svccs	0x00636269
 6c0:	636d656d 	cmnvs	sp, #457179136	; 0x1b400000
 6c4:	632e706d 			; <UNDEFINED> instruction: 0x632e706d
 6c8:	6c2f2e00 	stcvs	14, cr2, [pc], #-0	; 6d0 <__code_start__-0x7930>
 6cc:	2f636269 	svccs	0x00636269
 6d0:	636d656d 	cmnvs	sp, #457179136	; 0x1b400000
 6d4:	632e7970 			; <UNDEFINED> instruction: 0x632e7970
 6d8:	6c2f2e00 	stcvs	14, cr2, [pc], #-0	; 6e0 <__code_start__-0x7920>
 6dc:	2f636269 	svccs	0x00636269
 6e0:	736d656d 	cmnvc	sp, #457179136	; 0x1b400000
 6e4:	632e7465 			; <UNDEFINED> instruction: 0x632e7465
 6e8:	67726100 	ldrbvs	r6, [r2, -r0, lsl #2]!
 6ec:	61760073 	cmnvs	r6, r3, ror r0
 6f0:	6972705f 	ldmdbvs	r2!, {r0, r1, r2, r3, r4, r6, ip, sp, lr}^
 6f4:	006b746e 	rsbeq	r7, fp, lr, ror #8
 6f8:	6e675f5f 	mcrvs	15, 3, r5, cr7, cr15, {2}
 6fc:	765f6375 			; <UNDEFINED> instruction: 0x765f6375
 700:	696c5f61 	stmdbvs	ip!, {r0, r5, r6, r8, r9, sl, fp, ip, lr}^
 704:	5f007473 	svcpl	0x00007473
 708:	5f61765f 	svcpl	0x0061765f
 70c:	7473696c 	ldrbtvc	r6, [r3], #-2412	; 0xfffff694
 710:	615f5f00 	cmpvs	pc, r0, lsl #30
 714:	2f2e0070 	svccs	0x002e0070
 718:	6362696c 	cmnvs	r2, #108, 18	; 0x1b0000
 71c:	6972702f 	ldmdbvs	r2!, {r0, r1, r2, r3, r5, ip, sp, lr}^
 720:	2e6b746e 	cdpcs	4, 6, cr7, cr11, cr14, {3}
 724:	6e690063 	cdpvs	0, 6, cr0, cr9, cr3, {3}
 728:	6e726574 	mrcvs	5, 3, r6, cr2, cr4, {3}
 72c:	705f6c61 	subsvc	r6, pc, r1, ror #24
 730:	006b7475 	rsbeq	r7, fp, r5, ror r4
 734:	696c2f2e 	stmdbvs	ip!, {r1, r2, r3, r5, r8, r9, sl, fp, sp}^
 738:	702f6362 	eorvc	r6, pc, r2, ror #6
 73c:	2e6b7475 	mcrcs	4, 3, r7, cr11, cr5, {3}
 740:	73690063 	cmnvc	r9, #99, 0	; 0x63
 744:	69676964 	stmdbvs	r7!, {r2, r5, r6, r8, fp, sp, lr}^
 748:	69750074 	ldmdbvs	r5!, {r2, r4, r5, r6}^
 74c:	3436746e 	ldrtcc	r7, [r6], #-1134	; 0xfffffb92
 750:	2e00745f 	cfmvsrcs	mvf0, r7
 754:	62696c2f 	rsbvs	r6, r9, #12032	; 0x2f00
 758:	61762f63 	cmnvs	r6, r3, ror #30
 75c:	6972702d 	ldmdbvs	r2!, {r0, r2, r3, r5, ip, sp, lr}^
 760:	2e6b746e 	cdpcs	4, 6, cr7, cr11, cr14, {3}
 764:	5f5f0063 	svcpl	0x005f0063
 768:	65646f63 	strbvs	r6, [r4, #-3939]!	; 0xfffff09d
 76c:	6174735f 	cmnvs	r4, pc, asr r3
 770:	5f5f7472 	svcpl	0x005f7472
 774:	64697700 	strbtvs	r7, [r9], #-1792	; 0xfffff900
 778:	70006874 	andvc	r6, r0, r4, ror r8
 77c:	5f637475 	svcpl	0x00637475
 780:	5f007066 	svcpl	0x00007066
 784:	6165685f 	cmnvs	r5, pc, asr r8
 788:	74735f70 	ldrbtvc	r5, [r3], #-3952	; 0xfffff090
 78c:	5f747261 	svcpl	0x00747261
 790:	7072005f 	rsbsvc	r0, r2, pc, asr r0
 794:	65735f69 	ldrbvs	r5, [r3, #-3945]!	; 0xfffff097
 798:	756f5f74 	strbvc	r5, [pc, #-3956]!	; fffff82c <__bss_end__+0xffff4984>
 79c:	74757074 	ldrbtvc	r7, [r5], #-116	; 0xffffff8c
 7a0:	746d6600 	strbtvc	r6, [sp], #-1536	; 0xfffffa00
 7a4:	6174735f 	cmnvs	r4, pc, asr r3
 7a8:	73007472 	movwvc	r7, #1138	; 0x472
 7ac:	70637274 	rsbvc	r7, r3, r4, ror r2
 7b0:	656e0079 	strbvs	r0, [lr, #-121]!	; 0xffffff87
 7b4:	00705f67 	rsbseq	r5, r0, r7, ror #30
 7b8:	6f635f5f 	svcvs	0x00635f5f
 7bc:	655f6564 	ldrbvs	r6, [pc, #-1380]	; 260 <__code_start__-0x7da0>
 7c0:	5f5f646e 	svcpl	0x005f646e
 7c4:	696d6500 	stmdbvs	sp!, {r8, sl, sp, lr}^
 7c8:	75700074 	ldrbvc	r0, [r0, #-116]!	; 0xffffff8c
 7cc:	665f7374 			; <UNDEFINED> instruction: 0x665f7374
 7d0:	65720070 	ldrbvs	r0, [r2, #-112]!	; 0xffffff90
 7d4:	73726576 	cmnvc	r2, #494927872	; 0x1d800000
 7d8:	74730065 	ldrbtvc	r0, [r3], #-101	; 0xffffff9b
 7dc:	74616372 	strbtvc	r6, [r1], #-882	; 0xfffffc8e
 7e0:	72747300 	rsbsvc	r7, r4, #0, 6
 7e4:	00706d63 	rsbseq	r6, r0, r3, ror #26
 7e8:	72705f5f 	rsbsvc	r5, r0, #380	; 0x17c
 7ec:	655f676f 	ldrbvs	r6, [pc, #-1903]	; 85 <__code_start__-0x7f7b>
 7f0:	5f5f646e 	svcpl	0x005f646e
 7f4:	6d756e00 	ldclvs	14, cr6, [r5, #-0]
 7f8:	74730031 	ldrbtvc	r0, [r3], #-49	; 0xffffffcf
 7fc:	6d636e72 	stclvs	14, cr6, [r3, #-456]!	; 0xfffffe38
 800:	69730070 	ldmdbvs	r3!, {r4, r5, r6}^
 804:	64656e67 	strbtvs	r6, [r5], #-3687	; 0xfffff199
 808:	7200705f 	andvc	r7, r0, #95, 0	; 0x5f
 80c:	725f6970 	subsvc	r6, pc, #112, 18	; 0x1c0000
 810:	6f6f6265 	svcvs	0x006f6265
 814:	65640074 	strbvs	r0, [r4, #-116]!	; 0xffffff8c
 818:	5f79616c 	svcpl	0x0079616c
 81c:	2e00736d 	cdpcs	3, 0, cr7, cr0, cr13, {3}
 820:	6174732f 	cmnvs	r4, pc, lsr #6
 824:	732d6666 			; <UNDEFINED> instruction: 0x732d6666
 828:	632f6372 			; <UNDEFINED> instruction: 0x632f6372
 82c:	6e61656c 	cdpvs	5, 6, cr6, cr1, cr12, {3}
 830:	6265722d 	rsbvs	r7, r5, #-805306366	; 0xd0000002
 834:	2e746f6f 	cdpcs	15, 7, cr6, cr4, cr15, {3}
 838:	61750063 	cmnvs	r5, r3, rrx
 83c:	665f7472 			; <UNDEFINED> instruction: 0x665f7472
 840:	6873756c 	ldmdavs	r3!, {r2, r3, r5, r6, r8, sl, ip, sp, lr}^
 844:	0078745f 	rsbseq	r7, r8, pc, asr r4
 848:	7473635f 	ldrbtvc	r6, [r3], #-863	; 0xfffffca1
 84c:	00747261 	rsbseq	r7, r4, r1, ror #4
 850:	5f737362 	svcpl	0x00737362
 854:	00646e65 	rsbeq	r6, r4, r5, ror #28
 858:	74726175 	ldrbtvc	r6, [r2], #-373	; 0xfffffe8b
 85c:	696e695f 	stmdbvs	lr!, {r0, r1, r2, r3, r4, r6, r8, fp, sp, lr}^
 860:	75630074 	strbvc	r0, [r3, #-116]!	; 0xffffff8c
 864:	6d6f7473 	cfstrdvs	mvd7, [pc, #-460]!	; 6a0 <__code_start__-0x7960>
 868:	616f6c5f 	cmnvs	pc, pc, asr ip	; <UNPREDICTABLE>
 86c:	00726564 	rsbseq	r6, r2, r4, ror #10
 870:	74732f2e 	ldrbtvc	r2, [r3], #-3886	; 0xfffff0d2
 874:	2d666661 	stclcs	6, cr6, [r6, #-388]!	; 0xfffffe7c
 878:	2f637273 	svccs	0x00637273
 87c:	61747363 	cmnvs	r4, r3, ror #6
 880:	632e7472 			; <UNDEFINED> instruction: 0x632e7472
 884:	732f2e00 			; <UNDEFINED> instruction: 0x732f2e00
 888:	66666174 			; <UNDEFINED> instruction: 0x66666174
 88c:	6372732d 	cmnvs	r2, #-1275068416	; 0xb4000000
 890:	7375632f 	cmnvc	r5, #-1140850688	; 0xbc000000
 894:	2d6d6f74 	stclcs	15, cr6, [sp, #-464]!	; 0xfffffe30
 898:	64616f6c 	strbtvs	r6, [r1], #-3948	; 0xfffff094
 89c:	632e7265 			; <UNDEFINED> instruction: 0x632e7265
 8a0:	62657200 	rsbvs	r7, r5, #0, 4
 8a4:	5f746f6f 	svcpl	0x00746f6f
 8a8:	6c6c6163 	stfvse	f6, [ip], #-396	; 0xfffffe74
 8ac:	0074756f 	rsbseq	r7, r4, pc, ror #10
 8b0:	575f4d50 			; <UNDEFINED> instruction: 0x575f4d50
 8b4:	00474f44 	subeq	r4, r7, r4, asr #30
 8b8:	33545550 	cmpcc	r4, #80, 10	; 0x14000000
 8bc:	65730032 	ldrbvs	r0, [r3, #-50]!	; 0xffffffce
 8c0:	73755f74 	cmnvc	r5, #116, 30	; 0x1d0
 8c4:	6c5f7265 	lfmvs	f7, 2, [pc], {101}	; 0x65
 8c8:	6c657665 	stclvs	6, cr7, [r5], #-404	; 0xfffffe6c
 8cc:	732f2e00 			; <UNDEFINED> instruction: 0x732f2e00
 8d0:	66666174 			; <UNDEFINED> instruction: 0x66666174
 8d4:	6372732d 	cmnvs	r2, #-1275068416	; 0xb4000000
 8d8:	6265722f 	rsbvs	r7, r5, #-268435454	; 0xf0000002
 8dc:	2e746f6f 	cdpcs	15, 7, cr6, cr4, cr15, {3}
 8e0:	4d500063 	ldclmi	0, cr0, [r0, #-396]	; 0xfffffe74
 8e4:	5341505f 	movtpl	r5, #4191	; 0x105f
 8e8:	524f5753 	subpl	r5, pc, #21757952	; 0x14c0000
 8ec:	74610044 	strbtvc	r0, [r1], #-68	; 0xffffffbc
 8f0:	6573755f 	ldrbvs	r7, [r3, #-1375]!	; 0xfffffaa1
 8f4:	656c5f72 	strbvs	r5, [ip, #-3954]!	; 0xfffff08e
 8f8:	006c6576 	rsbeq	r6, ip, r6, ror r5
 8fc:	525f4d50 	subspl	r4, pc, #80, 26	; 0x1400
 900:	5f435453 	svcpl	0x00435453
 904:	46435257 			; <UNDEFINED> instruction: 0x46435257
 908:	55465f47 	strbpl	r5, [r6, #-3911]	; 0xfffff0b9
 90c:	525f4c4c 	subspl	r4, pc, #76, 24	; 0x4c00
 910:	54455345 	strbpl	r5, [r5], #-837	; 0xfffffcbb
 914:	5f4d5000 	svcpl	0x004d5000
 918:	43545352 	cmpmi	r4, #1207959553	; 0x48000001
 91c:	73706300 	cmnvc	r0, #0, 6
 920:	65640072 	strbvs	r0, [r4, #-114]!	; 0xffffff8e
 924:	61625f76 	smcvs	9718	; 0x25f6
 928:	65697272 	strbvs	r7, [r9, #-626]!	; 0xfffffd8e
 92c:	65640072 	strbvs	r0, [r4, #-114]!	; 0xffffff8e
 930:	5f79616c 	svcpl	0x0079616c
 934:	00636573 	rsbeq	r6, r3, r3, ror r5
 938:	74732f2e 	ldrbtvc	r2, [r3], #-3886	; 0xfffff0d2
 93c:	2d666661 	stclcs	6, cr6, [r6, #-388]!	; 0xfffffe7c
 940:	2f637273 	svccs	0x00637273
 944:	656d6974 	strbvs	r6, [sp, #-2420]!	; 0xfffff68c
 948:	00632e72 	rsbeq	r2, r3, r2, ror lr
 94c:	33544547 	cmpcc	r4, #297795584	; 0x11c00000
 950:	69740032 	ldmdbvs	r4!, {r1, r4, r5}^
 954:	5f72656d 	svcpl	0x0072656d
 958:	5f746567 	svcpl	0x00746567
 95c:	63657375 	cmnvs	r5, #-738197503	; 0xd4000001
 960:	6c656400 	cfstrdvs	mvd6, [r5], #-0
 964:	755f7961 	ldrbvc	r7, [pc, #-2401]	; b <__code_start__-0x7ff5>
 968:	69740073 	ldmdbvs	r4!, {r0, r1, r4, r5, r6}^
 96c:	5f72656d 	svcpl	0x0072656d
 970:	5f746567 	svcpl	0x00746567
 974:	63657375 	cmnvs	r5, #-738197503	; 0xd4000001
 978:	7761725f 			; <UNDEFINED> instruction: 0x7761725f
 97c:	74757000 	ldrbtvc	r7, [r5], #-0
 980:	62003233 	andvs	r3, r0, #805306371	; 0x30000003
 984:	5f647561 	svcpl	0x00647561
 988:	006c6176 	rsbeq	r6, ip, r6, ror r1
 98c:	74617473 	strbtvc	r7, [r1], #-1139	; 0xfffffb8d
 990:	72617500 	rsbvc	r7, r1, #0, 10
 994:	61635f74 	smcvs	13812	; 0x35f4
 998:	65675f6e 	strbvs	r5, [r7, #-3950]!	; 0xfffff092
 99c:	47006374 	smlsdxmi	r0, r4, r3, r6
 9a0:	5f4f4950 	svcpl	0x004f4950
 9a4:	434e5546 	movtmi	r5, #58694	; 0xe546
 9a8:	54554f5f 	ldrbpl	r4, [r5], #-3935	; 0xfffff0a1
 9ac:	00545550 	subseq	r5, r4, r0, asr r5
 9b0:	5f787561 	svcpl	0x00787561
 9b4:	69726570 	ldmdbvs	r2!, {r4, r5, r6, r8, sl, sp, lr}^
 9b8:	00736870 	rsbseq	r6, r3, r0, ror r8
 9bc:	74726175 	ldrbtvc	r6, [r2], #-373	; 0xfffffe8b
 9c0:	7500632e 	strvc	r6, [r0, #-814]	; 0xfffffcd2
 9c4:	5f747261 	svcpl	0x00747261
 9c8:	5f6e6163 	svcpl	0x006e6163
 9cc:	63747570 	cmnvs	r4, #112, 10	; 0x1c000000
 9d0:	72617500 	rsbvc	r7, r1, #0, 10
 9d4:	78745f74 	ldmdavc	r4!, {r2, r4, r5, r6, r8, r9, sl, fp, ip, lr}^
 9d8:	5f73695f 	svcpl	0x0073695f
 9dc:	74706d65 	ldrbtvc	r6, [r0], #-3429	; 0xfffff29b
 9e0:	50470079 	subpl	r0, r7, r9, ror r0
 9e4:	465f4f49 	ldrbmi	r4, [pc], -r9, asr #30
 9e8:	5f434e55 	svcpl	0x00434e55
 9ec:	30544c41 	subscc	r4, r4, r1, asr #24
 9f0:	49504700 	ldmdbmi	r0, {r8, r9, sl, lr}^
 9f4:	55465f4f 	strbpl	r5, [r6, #-3919]	; 0xfffff0b1
 9f8:	415f434e 	cmpmi	pc, lr, asr #6
 9fc:	0031544c 	eorseq	r5, r1, ip, asr #8
 a00:	4f495047 	svcmi	0x00495047
 a04:	4e55465f 	mrcmi	6, 2, r4, cr5, cr15, {2}
 a08:	4c415f43 	mcrrmi	15, 4, r5, r1, cr3
 a0c:	47003254 	smlsdmi	r0, r4, r2, r3
 a10:	5f4f4950 	svcpl	0x004f4950
 a14:	434e5546 	movtmi	r5, #58694	; 0xe546
 a18:	544c415f 	strbpl	r4, [ip], #-351	; 0xfffffea1
 a1c:	50470033 	subpl	r0, r7, r3, lsr r0
 a20:	465f4f49 	ldrbmi	r4, [pc], -r9, asr #30
 a24:	5f434e55 	svcpl	0x00434e55
 a28:	35544c41 	ldrbcc	r4, [r4, #-3137]	; 0xfffff3bf
 a2c:	6f682f00 	svcvs	0x00682f00
 a30:	652f656d 	strvs	r6, [pc, #-1389]!	; 4cb <__code_start__-0x7b35>
 a34:	656c676e 	strbvs	r6, [ip, #-1902]!	; 0xfffff892
 a38:	6c632f72 	stclvs	15, cr2, [r3], #-456	; 0xfffffe38
 a3c:	2f737361 	svccs	0x00737361
 a40:	34327363 	ldrtcc	r7, [r2], #-867	; 0xfffffc9d
 a44:	2d786c30 	ldclcs	12, cr6, [r8, #-192]!	; 0xffffff40
 a48:	70733232 	rsbsvc	r3, r3, r2, lsr r2
 a4c:	696c2f72 	stmdbvs	ip!, {r1, r4, r5, r6, r8, r9, sl, fp, sp}^
 a50:	2f697062 	svccs	0x00697062
 a54:	66617473 			; <UNDEFINED> instruction: 0x66617473
 a58:	72702d66 	rsbsvc	r2, r0, #6528	; 0x1980
 a5c:	74617669 	strbtvc	r7, [r1], #-1641	; 0xfffff997
 a60:	61620065 	cmnvs	r2, r5, rrx
 a64:	61006475 	tstvs	r0, r5, ror r4
 a68:	655f7875 	ldrbvs	r7, [pc, #-2165]	; 1fb <__code_start__-0x7e05>
 a6c:	6c62616e 	stfvse	f6, [r2], #-440	; 0xfffffe48
 a70:	75007365 	strvc	r7, [r0, #-869]	; 0xfffffc9b
 a74:	5f747261 	svcpl	0x00747261
 a78:	63746567 	cmnvs	r4, #432013312	; 0x19c00000
 a7c:	554e4700 	strbpl	r4, [lr, #-1792]	; 0xfffff900
 a80:	39394320 	ldmdbcc	r9!, {r5, r8, r9, lr}
 a84:	2e303120 	rsfcssp	f3, f0, f0
 a88:	20312e33 	eorscs	r2, r1, r3, lsr lr
 a8c:	31323032 	teqcc	r2, r2, lsr r0
 a90:	34323830 	ldrtcc	r3, [r2], #-2096	; 0xfffff7d0
 a94:	65722820 	ldrbvs	r2, [r2, #-2080]!	; 0xfffff7e0
 a98:	7361656c 	cmnvc	r1, #108, 10	; 0x1b000000
 a9c:	2d202965 			; <UNDEFINED> instruction: 0x2d202965
 aa0:	7570636d 	ldrbvc	r6, [r0, #-877]!	; 0xfffffc93
 aa4:	6d72613d 	ldfvse	f6, [r2, #-244]!	; 0xffffff0c
 aa8:	36373131 			; <UNDEFINED> instruction: 0x36373131
 aac:	2d667a6a 	vstmdbcs	r6!, {s15-s120}
 ab0:	6d2d2073 	stcvs	0, cr2, [sp, #-460]!	; 0xfffffe34
 ab4:	656e7574 	strbvs	r7, [lr, #-1396]!	; 0xfffffa8c
 ab8:	6d72613d 	ldfvse	f6, [r2, #-244]!	; 0xffffff0c
 abc:	36373131 			; <UNDEFINED> instruction: 0x36373131
 ac0:	2d667a6a 	vstmdbcs	r6!, {s15-s120}
 ac4:	6d2d2073 	stcvs	0, cr2, [sp, #-460]!	; 0xfffffe34
 ac8:	616f6c66 	cmnvs	pc, r6, ror #24
 acc:	62612d74 	rsbvs	r2, r1, #116, 26	; 0x1d00
 ad0:	6f733d69 	svcvs	0x00733d69
 ad4:	2d207466 	cfstrscs	mvf7, [r0, #-408]!	; 0xfffffe68
 ad8:	6d72616d 	ldfvse	f6, [r2, #-436]!	; 0xfffffe4c
 adc:	616d2d20 	cmnvs	sp, r0, lsr #26
 ae0:	3d686372 	stclcc	3, cr6, [r8, #-456]!	; 0xfffffe38
 ae4:	766d7261 	strbtvc	r7, [sp], -r1, ror #4
 ae8:	207a6b36 	rsbscs	r6, sl, r6, lsr fp
 aec:	6467672d 	strbtvs	r6, [r7], #-1837	; 0xfffff8d3
 af0:	4f2d2062 	svcmi	0x002d2062
 af4:	732d2067 			; <UNDEFINED> instruction: 0x732d2067
 af8:	673d6474 			; <UNDEFINED> instruction: 0x673d6474
 afc:	3939756e 	ldmdbcc	r9!, {r1, r2, r3, r5, r6, r8, sl, ip, sp, lr}
 b00:	66662d20 	strbtvs	r2, [r6], -r0, lsr #26
 b04:	73656572 	cmnvc	r5, #478150656	; 0x1c800000
 b08:	646e6174 	strbtvs	r6, [lr], #-372	; 0xfffffe8c
 b0c:	00676e69 	rsbeq	r6, r7, r9, ror #28
 b10:	6c746e63 	ldclvs	14, cr6, [r4], #-396	; 0xfffffe74
 b14:	72617500 	rsbvc	r7, r1, #0, 10
 b18:	69645f74 	stmdbvs	r4!, {r2, r4, r5, r6, r8, r9, sl, fp, ip, lr}^
 b1c:	6c626173 	stfvse	f6, [r2], #-460	; 0xfffffe34
 b20:	61750065 	cmnvs	r5, r5, rrx
 b24:	685f7472 	ldmdavs	pc, {r1, r4, r5, r6, sl, ip, sp, lr}^	; <UNPREDICTABLE>
 b28:	645f7361 	ldrbvs	r7, [pc], #-865	; b30 <__code_start__-0x74d0>
 b2c:	00617461 	rsbeq	r7, r1, r1, ror #8
 b30:	4f495047 	svcmi	0x00495047
 b34:	4e55465f 	mrcmi	6, 2, r4, cr5, cr15, {2}
 b38:	4c415f43 	mcrrmi	15, 4, r5, r1, cr3
 b3c:	6f003454 	svcvs	0x00003454
 b40:	6e695f72 	mcrvs	15, 3, r5, cr9, cr2, {3}
 b44:	73003233 	movwvc	r3, #563	; 0x233
 b48:	74617263 	strbtvc	r7, [r1], #-611	; 0xfffffd9d
 b4c:	75006863 	strvc	r6, [r0, #-2147]	; 0xfffff79d
 b50:	00747261 	rsbseq	r7, r4, r1, ror #4
 b54:	5f646e61 	svcpl	0x00646e61
 b58:	32336e69 	eorscc	r6, r3, #1680	; 0x690
 b5c:	72617500 	rsbvc	r7, r1, #0, 10
 b60:	75705f74 	ldrbvc	r5, [r0, #-3956]!	; 0xfffff08c
 b64:	47006374 	smlsdxmi	r0, r4, r3, r6
 b68:	5f4f4950 	svcpl	0x004f4950
 b6c:	434e5546 	movtmi	r5, #58694	; 0xe546
 b70:	504e495f 	subpl	r4, lr, pc, asr r9
 b74:	67005455 	smlsdvs	r0, r5, r4, r5
 b78:	5f6f6970 	svcpl	0x006f6970
 b7c:	5f746573 	svcpl	0x00746573
 b80:	636e7566 	cmnvs	lr, #427819008	; 0x19800000
 b84:	6e6f6974 			; <UNDEFINED> instruction: 0x6e6f6974
 b88:	74656700 	strbtvc	r6, [r5], #-1792	; 0xfffff900
 b8c:	6b003233 	blvs	d460 <__bss_end__+0x25b8>
 b90:	6c6c616d 	stfvse	f6, [ip], #-436	; 0xfffffe4c
 b94:	685f636f 	ldmdavs	pc, {r0, r1, r2, r3, r5, r6, r8, r9, sp, lr}^	; <UNPREDICTABLE>
 b98:	5f706165 	svcpl	0x00706165
 b9c:	72617473 	rsbvc	r7, r1, #1929379840	; 0x73000000
 ba0:	616d0074 	smcvs	53252	; 0xd004
 ba4:	626e5f78 	rsbvs	r5, lr, #120, 30	; 0x1e0
 ba8:	73657479 	cmnvc	r5, #2030043136	; 0x79000000
 bac:	64615f00 	strbtvs	r5, [r1], #-3840	; 0xfffff100
 bb0:	68007264 	stmdavs	r0, {r2, r5, r6, r9, ip, sp, lr}
 bb4:	5f706165 	svcpl	0x00706165
 bb8:	0078616d 	rsbseq	r6, r8, sp, ror #2
 bbc:	6572666b 	ldrbvs	r6, [r2, #-1643]!	; 0xfffff995
 bc0:	6c615f65 	stclvs	15, cr5, [r1], #-404	; 0xfffffe6c
 bc4:	6f72006c 	svcvs	0x0072006c
 bc8:	75646e75 	strbvc	r6, [r4, #-3701]!	; 0xfffff18b
 bcc:	666b0070 			; <UNDEFINED> instruction: 0x666b0070
 bd0:	5f656572 	svcpl	0x00656572
 bd4:	00706f70 	rsbseq	r6, r0, r0, ror pc
 bd8:	67696c61 	strbvs	r6, [r9, -r1, ror #24]!
 bdc:	6e656d6e 	cdpvs	13, 6, cr6, cr5, cr14, {3}
 be0:	616d0074 	smcvs	53252	; 0xd004
 be4:	33755f78 	cmncc	r5, #120, 30	; 0x1e0
 be8:	6e4f0032 	mcrvs	0, 2, r0, cr15, cr2, {1}
 bec:	00424d65 	subeq	r4, r2, r5, ror #26
 bf0:	6c616d6b 	stclvs	13, cr6, [r1], #-428	; 0xfffffe54
 bf4:	5f636f6c 	svcpl	0x00636f6c
 bf8:	70616568 	rsbvc	r6, r1, r8, ror #10
 bfc:	646e655f 	strbtvs	r6, [lr], #-1375	; 0xfffffaa1
 c00:	616d6b00 	cmnvs	sp, r0, lsl #22
 c04:	636f6c6c 	cmnvs	pc, #108, 24	; 0x6c00
 c08:	746f6e5f 	strbtvc	r6, [pc], #-3679	; c10 <__code_start__-0x73f0>
 c0c:	6f72657a 	svcvs	0x0072657a
 c10:	5f736900 	svcpl	0x00736900
 c14:	32776f70 	rsbscc	r6, r7, #112, 30	; 0x1c0
 c18:	616d6b00 	cmnvs	sp, r0, lsl #22
 c1c:	636f6c6c 	cmnvs	pc, #108, 24	; 0x6c00
 c20:	6b00632e 	blvs	198e0 <__bss_end__+0xea38>
 c24:	6c6c616d 	stfvse	f6, [ip], #-436	; 0xfffffe4c
 c28:	695f636f 	ldmdbvs	pc, {r0, r1, r2, r3, r5, r6, r8, r9, sp, lr}^	; <UNPREDICTABLE>
 c2c:	0074696e 	rsbseq	r6, r4, lr, ror #18
 c30:	615f7369 	cmpvs	pc, r9, ror #6
 c34:	6e67696c 	vnmulvs.f16	s13, s14, s25	; <UNPREDICTABLE>
 c38:	6b006465 	blvs	19dd4 <__bss_end__+0xef2c>
 c3c:	6c6c616d 	stfvse	f6, [ip], #-436	; 0xfffffe4c
 c40:	685f636f 	ldmdavs	pc, {r0, r1, r2, r3, r5, r6, r8, r9, sp, lr}^	; <UNPREDICTABLE>
 c44:	5f706165 	svcpl	0x00706165
 c48:	00727470 	rsbseq	r7, r2, r0, ror r4
 c4c:	5f697072 	svcpl	0x00697072
 c50:	65736572 	ldrbvs	r6, [r3, #-1394]!	; 0xfffffa8e
 c54:	75705f74 	ldrbvc	r5, [r0, #-3956]!	; 0xfffff08c
 c58:	6b006374 	blvs	19a30 <__bss_end__+0xeb88>
 c5c:	6c6c616d 	stfvse	f6, [ip], #-436	; 0xfffffe4c
 c60:	615f636f 	cmpvs	pc, pc, ror #6
 c64:	6e67696c 	vnmulvs.f16	s13, s14, s25	; <UNPREDICTABLE>
 c68:	69006465 	stmdbvs	r0, {r0, r2, r5, r6, sl, sp, lr}
 c6c:	7265746e 	rsbvc	r7, r5, #1845493760	; 0x6e000000
 c70:	5f6c616e 	svcpl	0x006c616e
 c74:	63747570 	cmnvs	r4, #112, 10	; 0x1c000000
 c78:	00726168 	rsbseq	r6, r2, r8, ror #2
 c7c:	5f697072 	svcpl	0x00697072
 c80:	5f746573 	svcpl	0x00746573
 c84:	63747570 	cmnvs	r4, #112, 10	; 0x1c000000
 c88:	6c2f2e00 	stcvs	14, cr2, [pc], #-0	; c90 <__code_start__-0x7370>
 c8c:	2f636269 	svccs	0x00636269
 c90:	63747570 	cmnvs	r4, #112, 10	; 0x1c000000
 c94:	2e726168 	rpwcssz	f6, f2, #0.0
 c98:	65640063 	strbvs	r0, [r4, #-99]!	; 0xffffff9d
 c9c:	2e007473 	mcrcs	4, 0, r7, cr0, cr3, {3}
 ca0:	62696c2f 	rsbvs	r6, r9, #12032	; 0x2f00
 ca4:	74732f63 	ldrbtvc	r2, [r3], #-3939	; 0xfffff09d
 ca8:	74616372 	strbtvc	r6, [r1], #-882	; 0xfffffc8e
 cac:	2e00632e 	cdpcs	3, 0, cr6, cr0, cr14, {1}
 cb0:	62696c2f 	rsbvs	r6, r9, #12032	; 0x2f00
 cb4:	74732f63 	ldrbtvc	r2, [r3], #-3939	; 0xfffff09d
 cb8:	706d6372 	rsbvc	r6, sp, r2, ror r3
 cbc:	2e00632e 	cdpcs	3, 0, cr6, cr0, cr14, {1}
 cc0:	62696c2f 	rsbvs	r6, r9, #12032	; 0x2f00
 cc4:	74732f63 	ldrbtvc	r2, [r3], #-3939	; 0xfffff09d
 cc8:	79706372 	ldmdbvc	r0!, {r1, r4, r5, r6, r8, r9, sp, lr}^
 ccc:	2e00632e 	cdpcs	3, 0, cr6, cr0, cr14, {1}
 cd0:	62696c2f 	rsbvs	r6, r9, #12032	; 0x2f00
 cd4:	74732f63 	ldrbtvc	r2, [r3], #-3939	; 0xfffff09d
 cd8:	6d636e72 	stclvs	14, cr6, [r3, #-456]!	; 0xfffffe38
 cdc:	00632e70 	rsbeq	r2, r3, r0, ror lr
 ce0:	74732f2e 	ldrbtvc	r2, [r3], #-3886	; 0xfffff0d2
 ce4:	2d666661 	stclcs	6, cr6, [r6, #-388]!	; 0xfffffe7c
 ce8:	2f637273 	svccs	0x00637273
 cec:	61666564 	cmnvs	r6, r4, ror #10
 cf0:	2d746c75 	ldclcs	12, cr6, [r4, #-468]!	; 0xfffffe2c
 cf4:	6f626572 	svcvs	0x00626572
 cf8:	632d746f 			; <UNDEFINED> instruction: 0x632d746f
 cfc:	6f6c6c61 	svcvs	0x006c6c61
 d00:	632e7475 			; <UNDEFINED> instruction: 0x632e7475
 d04:	69706700 	ldmdbvs	r0!, {r8, r9, sl, sp, lr}^
 d08:	6c635f6f 	stclvs	15, cr5, [r3], #-444	; 0xfffffe44
 d0c:	67003072 	smlsdxvs	r0, r2, r0, r3
 d10:	5f6f6970 	svcpl	0x006f6970
 d14:	30746573 	rsbscc	r6, r4, r3, ror r5
 d18:	69706700 	ldmdbvs	r0!, {r8, r9, sl, sp, lr}^
 d1c:	72775f6f 	rsbsvc	r5, r7, #444	; 0x1bc
 d20:	00657469 	rsbeq	r7, r5, r9, ror #8
 d24:	5f564544 	svcpl	0x00564544
 d28:	334c4156 	movtcc	r4, #49494	; 0xc156
 d2c:	70670032 	rsbvc	r0, r7, r2, lsr r0
 d30:	725f6f69 	subsvc	r6, pc, #420	; 0x1a4
 d34:	00646165 	rsbeq	r6, r4, r5, ror #2
 d38:	6f697067 	svcvs	0x00697067
 d3c:	7465735f 	strbtvc	r7, [r5], #-863	; 0xfffffca1
 d40:	706e695f 	rsbvc	r6, lr, pc, asr r9
 d44:	67007475 	smlsdxvs	r0, r5, r4, r7
 d48:	5f6f6970 	svcpl	0x006f6970
 d4c:	5f746573 	svcpl	0x00746573
 d50:	0066666f 	rsbeq	r6, r6, pc, ror #12
 d54:	6f697067 	svcvs	0x00697067
 d58:	7465735f 	strbtvc	r7, [r5], #-863	; 0xfffffca1
 d5c:	74756f5f 	ldrbtvc	r6, [r5], #-3935	; 0xfffff0a1
 d60:	00747570 	rsbseq	r7, r4, r0, ror r5
 d64:	6f697067 	svcvs	0x00697067
 d68:	6e75665f 	mrcvs	6, 3, r6, cr5, cr15, {2}
 d6c:	00745f63 	rsbseq	r5, r4, r3, ror #30
 d70:	6f697067 	svcvs	0x00697067
 d74:	76656c5f 			; <UNDEFINED> instruction: 0x76656c5f
 d78:	61620030 	cmnvs	r2, r0, lsr r0
 d7c:	67006b6e 	strvs	r6, [r0, -lr, ror #22]
 d80:	2e6f6970 			; <UNDEFINED> instruction: 0x2e6f6970
 d84:	70670063 	rsbvc	r0, r7, r3, rrx
 d88:	735f6f69 	cmpvc	pc, #420	; 0x1a4
 d8c:	6f5f7465 	svcvs	0x005f7465
 d90:	Address 0x0000000000000d90 is out of bounds.


Disassembly of section .debug_frame:

00000000 <.debug_frame>:
   0:	0000000c 	andeq	r0, r0, ip
   4:	ffffffff 			; <UNDEFINED> instruction: 0xffffffff
   8:	7c020001 	stcvc	0, cr0, [r2], {1}
   c:	000d0c0e 	andeq	r0, sp, lr, lsl #24
  10:	0000000c 	andeq	r0, r0, ip
  14:	00000000 	andeq	r0, r0, r0
  18:	00008038 	andeq	r8, r0, r8, lsr r0
  1c:	00000008 	andeq	r0, r0, r8
  20:	0000001c 	andeq	r0, r0, ip, lsl r0
  24:	00000000 	andeq	r0, r0, r0
  28:	00008040 	andeq	r8, r0, r0, asr #32
  2c:	00000060 	andeq	r0, r0, r0, rrx
  30:	84080e42 	strhi	r0, [r8], #-3650	; 0xfffff1be
  34:	42018e02 	andmi	r8, r1, #2, 28
  38:	0e64180e 	cdpeq	8, 6, cr1, cr4, cr14, {0}
  3c:	00000008 	andeq	r0, r0, r8
  40:	0000001c 	andeq	r0, r0, ip, lsl r0
  44:	00000000 	andeq	r0, r0, r0
  48:	000080a0 	andeq	r8, r0, r0, lsr #1
  4c:	000000a4 	andeq	r0, r0, r4, lsr #1
  50:	84080e42 	strhi	r0, [r8], #-3650	; 0xfffff1be
  54:	42018e02 	andmi	r8, r1, #2, 28
  58:	0a64100e 	beq	1904098 <__bss_end__+0x18f91f0>
  5c:	0b42080e 	bleq	108209c <__bss_end__+0x10771f4>
  60:	0000000c 	andeq	r0, r0, ip
  64:	ffffffff 			; <UNDEFINED> instruction: 0xffffffff
  68:	7c020001 	stcvc	0, cr0, [r2], {1}
  6c:	000d0c0e 	andeq	r0, sp, lr, lsl #24
  70:	00000014 	andeq	r0, r0, r4, lsl r0
  74:	00000060 	andeq	r0, r0, r0, rrx
  78:	00008144 	andeq	r8, r0, r4, asr #2
  7c:	00000074 	andeq	r0, r0, r4, ror r0
  80:	8e040e5e 	mcrhi	14, 0, r0, cr4, cr14, {2}
  84:	100e4201 	andne	r4, lr, r1, lsl #4
  88:	0000000c 	andeq	r0, r0, ip
  8c:	00000060 	andeq	r0, r0, r0, rrx
  90:	000081b8 			; <UNDEFINED> instruction: 0x000081b8
  94:	00000010 	andeq	r0, r0, r0, lsl r0
  98:	0000000c 	andeq	r0, r0, ip
  9c:	00000060 	andeq	r0, r0, r0, rrx
  a0:	000081c8 	andeq	r8, r0, r8, asr #3
  a4:	00000010 	andeq	r0, r0, r0, lsl r0
  a8:	0000000c 	andeq	r0, r0, ip
  ac:	00000060 	andeq	r0, r0, r0, rrx
  b0:	000081d8 	ldrdeq	r8, [r0], -r8	; <UNPREDICTABLE>
  b4:	00000008 	andeq	r0, r0, r8
  b8:	00000014 	andeq	r0, r0, r4, lsl r0
  bc:	00000060 	andeq	r0, r0, r0, rrx
  c0:	000081e0 	andeq	r8, r0, r0, ror #3
  c4:	00000018 	andeq	r0, r0, r8, lsl r0
  c8:	84080e42 	strhi	r0, [r8], #-3650	; 0xfffff1be
  cc:	00018e02 	andeq	r8, r1, r2, lsl #28
  d0:	0000000c 	andeq	r0, r0, ip
  d4:	00000060 	andeq	r0, r0, r0, rrx
  d8:	000081f8 	strdeq	r8, [r0], -r8	; <UNPREDICTABLE>
  dc:	00000038 	andeq	r0, r0, r8, lsr r0
  e0:	00000018 	andeq	r0, r0, r8, lsl r0
  e4:	00000060 	andeq	r0, r0, r0, rrx
  e8:	00008230 	andeq	r8, r0, r0, lsr r2
  ec:	00000058 	andeq	r0, r0, r8, asr r0
  f0:	84100e42 	ldrhi	r0, [r0], #-3650	; 0xfffff1be
  f4:	86038504 	strhi	r8, [r3], -r4, lsl #10
  f8:	00018e02 	andeq	r8, r1, r2, lsl #28
  fc:	00000018 	andeq	r0, r0, r8, lsl r0
 100:	00000060 	andeq	r0, r0, r0, rrx
 104:	00008288 	andeq	r8, r0, r8, lsl #5
 108:	00000064 	andeq	r0, r0, r4, rrx
 10c:	84100e42 	ldrhi	r0, [r0], #-3650	; 0xfffff1be
 110:	86038504 	strhi	r8, [r3], -r4, lsl #10
 114:	00018e02 	andeq	r8, r1, r2, lsl #28
 118:	00000018 	andeq	r0, r0, r8, lsl r0
 11c:	00000060 	andeq	r0, r0, r0, rrx
 120:	000082ec 	andeq	r8, r0, ip, ror #5
 124:	00000048 	andeq	r0, r0, r8, asr #32
 128:	84100e42 	ldrhi	r0, [r0], #-3650	; 0xfffff1be
 12c:	86038504 	strhi	r8, [r3], -r4, lsl #10
 130:	00018e02 	andeq	r8, r1, r2, lsl #28
 134:	0000000c 	andeq	r0, r0, ip
 138:	00000060 	andeq	r0, r0, r0, rrx
 13c:	00008334 	andeq	r8, r0, r4, lsr r3
 140:	0000004c 	andeq	r0, r0, ip, asr #32
 144:	00000020 	andeq	r0, r0, r0, lsr #32
 148:	00000060 	andeq	r0, r0, r0, rrx
 14c:	00008380 	andeq	r8, r0, r0, lsl #7
 150:	000000a4 	andeq	r0, r0, r4, lsr #1
 154:	84100e42 	ldrhi	r0, [r0], #-3650	; 0xfffff1be
 158:	86038504 	strhi	r8, [r3], -r4, lsl #10
 15c:	42018e02 	andmi	r8, r1, #2, 28
 160:	0201900e 	andeq	r9, r1, #14, 0
 164:	00100e46 	andseq	r0, r0, r6, asr #28
 168:	00000020 	andeq	r0, r0, r0, lsr #32
 16c:	00000060 	andeq	r0, r0, r0, rrx
 170:	00008424 	andeq	r8, r0, r4, lsr #8
 174:	00000170 	andeq	r0, r0, r0, ror r1
 178:	840c0e42 	strhi	r0, [ip], #-3650	; 0xfffff1be
 17c:	8e028503 	cfsh32hi	mvfx8, mvfx2, #3
 180:	a80e4201 	stmdage	lr, {r0, r9, lr}
 184:	0a7c0201 	beq	1f00990 <__bss_end__+0x1ef5ae8>
 188:	0b420c0e 	bleq	10831c8 <__bss_end__+0x1078320>
 18c:	00000020 	andeq	r0, r0, r0, lsr #32
 190:	00000060 	andeq	r0, r0, r0, rrx
 194:	00008594 	muleq	r0, r4, r5
 198:	000000dc 	ldrdeq	r0, [r0], -ip
 19c:	84100e42 	ldrhi	r0, [r0], #-3650	; 0xfffff1be
 1a0:	86038504 	strhi	r8, [r3], -r4, lsl #10
 1a4:	42018e02 	andmi	r8, r1, #2, 28
 1a8:	6002200e 	andvs	r2, r2, lr
 1ac:	0000100e 	andeq	r1, r0, lr
 1b0:	0000000c 	andeq	r0, r0, ip
 1b4:	ffffffff 			; <UNDEFINED> instruction: 0xffffffff
 1b8:	7c020001 	stcvc	0, cr0, [r2], {1}
 1bc:	000d0c0e 	andeq	r0, sp, lr, lsl #24
 1c0:	0000000c 	andeq	r0, r0, ip
 1c4:	000001b0 			; <UNDEFINED> instruction: 0x000001b0
 1c8:	00008670 	andeq	r8, r0, r0, ror r6
 1cc:	0000003c 	andeq	r0, r0, ip, lsr r0
 1d0:	0000001c 	andeq	r0, r0, ip, lsl r0
 1d4:	000001b0 			; <UNDEFINED> instruction: 0x000001b0
 1d8:	000086ac 	andeq	r8, r0, ip, lsr #13
 1dc:	0000017c 	andeq	r0, r0, ip, ror r1
 1e0:	84180e42 	ldrhi	r0, [r8], #-3650	; 0xfffff1be
 1e4:	86058506 	strhi	r8, [r5], -r6, lsl #10
 1e8:	88038704 	stmdahi	r3, {r2, r8, r9, sl, pc}
 1ec:	00018e02 	andeq	r8, r1, r2, lsl #28
 1f0:	0000001c 	andeq	r0, r0, ip, lsl r0
 1f4:	000001b0 			; <UNDEFINED> instruction: 0x000001b0
 1f8:	00008828 	andeq	r8, r0, r8, lsr #16
 1fc:	000000b0 	strheq	r0, [r0], -r0	; <UNPREDICTABLE>
 200:	84180e42 	ldrhi	r0, [r8], #-3650	; 0xfffff1be
 204:	86058506 	strhi	r8, [r5], -r6, lsl #10
 208:	88038704 	stmdahi	r3, {r2, r8, r9, sl, pc}
 20c:	00018e02 	andeq	r8, r1, r2, lsl #28
 210:	00000014 	andeq	r0, r0, r4, lsl r0
 214:	000001b0 			; <UNDEFINED> instruction: 0x000001b0
 218:	000088d8 	ldrdeq	r8, [r0], -r8	; <UNPREDICTABLE>
 21c:	00000028 	andeq	r0, r0, r8, lsr #32
 220:	84080e42 	strhi	r0, [r8], #-3650	; 0xfffff1be
 224:	00018e02 	andeq	r8, r1, r2, lsl #28
 228:	00000020 	andeq	r0, r0, r0, lsr #32
 22c:	000001b0 			; <UNDEFINED> instruction: 0x000001b0
 230:	00008900 	andeq	r8, r0, r0, lsl #18
 234:	00000138 	andeq	r0, r0, r8, lsr r1
 238:	84140e42 	ldrhi	r0, [r4], #-3650	; 0xfffff1be
 23c:	86048505 	strhi	r8, [r4], -r5, lsl #10
 240:	8e028703 	cdphi	7, 0, cr8, cr2, cr3, {0}
 244:	200e4201 	andcs	r4, lr, r1, lsl #4
 248:	140e8a02 	strne	r8, [lr], #-2562	; 0xfffff5fe
 24c:	00000018 	andeq	r0, r0, r8, lsl r0
 250:	000001b0 			; <UNDEFINED> instruction: 0x000001b0
 254:	00008a38 	andeq	r8, r0, r8, lsr sl
 258:	00000090 	muleq	r0, r0, r0
 25c:	8e040e42 	cdphi	14, 0, cr0, cr4, cr2, {2}
 260:	480e4201 	stmdami	lr, {r0, r9, lr}
 264:	00040e7a 	andeq	r0, r4, sl, ror lr
 268:	00000020 	andeq	r0, r0, r0, lsr #32
 26c:	000001b0 			; <UNDEFINED> instruction: 0x000001b0
 270:	00008ac8 	andeq	r8, r0, r8, asr #21
 274:	0000009c 	muleq	r0, ip, r0
 278:	840c0e42 	strhi	r0, [ip], #-3650	; 0xfffff1be
 27c:	8e028503 	cfsh32hi	mvfx8, mvfx2, #3
 280:	180e4201 	stmdane	lr, {r0, r9, lr}
 284:	0c0e0a58 			; <UNDEFINED> instruction: 0x0c0e0a58
 288:	00000b42 	andeq	r0, r0, r2, asr #22
 28c:	00000014 	andeq	r0, r0, r4, lsl r0
 290:	000001b0 			; <UNDEFINED> instruction: 0x000001b0
 294:	00008b64 	andeq	r8, r0, r4, ror #22
 298:	00000030 	andeq	r0, r0, r0, lsr r0
 29c:	84080e42 	strhi	r0, [r8], #-3650	; 0xfffff1be
 2a0:	00018e02 	andeq	r8, r1, r2, lsl #28
 2a4:	00000014 	andeq	r0, r0, r4, lsl r0
 2a8:	000001b0 			; <UNDEFINED> instruction: 0x000001b0
 2ac:	00008b94 	muleq	r0, r4, fp
 2b0:	00000048 	andeq	r0, r0, r8, asr #32
 2b4:	84080e42 	strhi	r0, [r8], #-3650	; 0xfffff1be
 2b8:	00018e02 	andeq	r8, r1, r2, lsl #28
 2bc:	00000014 	andeq	r0, r0, r4, lsl r0
 2c0:	000001b0 			; <UNDEFINED> instruction: 0x000001b0
 2c4:	00008bdc 	ldrdeq	r8, [r0], -ip
 2c8:	00000050 	andeq	r0, r0, r0, asr r0
 2cc:	84080e42 	strhi	r0, [r8], #-3650	; 0xfffff1be
 2d0:	00018e02 	andeq	r8, r1, r2, lsl #28
 2d4:	00000014 	andeq	r0, r0, r4, lsl r0
 2d8:	000001b0 			; <UNDEFINED> instruction: 0x000001b0
 2dc:	00008c2c 	andeq	r8, r0, ip, lsr #24
 2e0:	00000010 	andeq	r0, r0, r0, lsl r0
 2e4:	84080e42 	strhi	r0, [r8], #-3650	; 0xfffff1be
 2e8:	00018e02 	andeq	r8, r1, r2, lsl #28
 2ec:	00000014 	andeq	r0, r0, r4, lsl r0
 2f0:	000001b0 			; <UNDEFINED> instruction: 0x000001b0
 2f4:	00008c3c 	andeq	r8, r0, ip, lsr ip
 2f8:	00000028 	andeq	r0, r0, r8, lsr #32
 2fc:	84080e42 	strhi	r0, [r8], #-3650	; 0xfffff1be
 300:	00018e02 	andeq	r8, r1, r2, lsl #28
 304:	0000000c 	andeq	r0, r0, ip
 308:	ffffffff 			; <UNDEFINED> instruction: 0xffffffff
 30c:	7c020001 	stcvc	0, cr0, [r2], {1}
 310:	000d0c0e 	andeq	r0, sp, lr, lsl #24
 314:	00000014 	andeq	r0, r0, r4, lsl r0
 318:	00000304 	andeq	r0, r0, r4, lsl #6
 31c:	00008ca8 	andeq	r8, r0, r8, lsr #25
 320:	000000bc 	strheq	r0, [r0], -ip
 324:	8e040e42 	cdphi	14, 0, cr0, cr4, cr2, {2}
 328:	00000001 	andeq	r0, r0, r1
 32c:	00000014 	andeq	r0, r0, r4, lsl r0
 330:	00000304 	andeq	r0, r0, r4, lsl #6
 334:	00008d64 	andeq	r8, r0, r4, ror #26
 338:	00000044 	andeq	r0, r0, r4, asr #32
 33c:	84080e42 	strhi	r0, [r8], #-3650	; 0xfffff1be
 340:	00018e02 	andeq	r8, r1, r2, lsl #28
 344:	00000014 	andeq	r0, r0, r4, lsl r0
 348:	00000304 	andeq	r0, r0, r4, lsl #6
 34c:	00008da8 	andeq	r8, r0, r8, lsr #27
 350:	000000ac 	andeq	r0, r0, ip, lsr #1
 354:	84080e42 	strhi	r0, [r8], #-3650	; 0xfffff1be
 358:	00018e02 	andeq	r8, r1, r2, lsl #28
 35c:	0000000c 	andeq	r0, r0, ip
 360:	ffffffff 			; <UNDEFINED> instruction: 0xffffffff
 364:	7c020001 	stcvc	0, cr0, [r2], {1}
 368:	000d0c0e 	andeq	r0, sp, lr, lsl #24
 36c:	00000014 	andeq	r0, r0, r4, lsl r0
 370:	0000035c 	andeq	r0, r0, ip, asr r3
 374:	00008e54 	andeq	r8, r0, r4, asr lr
 378:	00000034 	andeq	r0, r0, r4, lsr r0
 37c:	8e040e42 	cdphi	14, 0, cr0, cr4, cr2, {2}
 380:	00000001 	andeq	r0, r0, r1
 384:	0000000c 	andeq	r0, r0, ip
 388:	ffffffff 			; <UNDEFINED> instruction: 0xffffffff
 38c:	7c020001 	stcvc	0, cr0, [r2], {1}
 390:	000d0c0e 	andeq	r0, sp, lr, lsl #24
 394:	0000000c 	andeq	r0, r0, ip
 398:	00000384 	andeq	r0, r0, r4, lsl #7
 39c:	00008e88 	andeq	r8, r0, r8, lsl #29
 3a0:	00000060 	andeq	r0, r0, r0, rrx
 3a4:	0000000c 	andeq	r0, r0, ip
 3a8:	ffffffff 			; <UNDEFINED> instruction: 0xffffffff
 3ac:	7c020001 	stcvc	0, cr0, [r2], {1}
 3b0:	000d0c0e 	andeq	r0, sp, lr, lsl #24
 3b4:	0000000c 	andeq	r0, r0, ip
 3b8:	000003a4 	andeq	r0, r0, r4, lsr #7
 3bc:	00008ee8 	andeq	r8, r0, r8, ror #29
 3c0:	00000018 	andeq	r0, r0, r8, lsl r0
 3c4:	0000000c 	andeq	r0, r0, ip
 3c8:	ffffffff 			; <UNDEFINED> instruction: 0xffffffff
 3cc:	7c020001 	stcvc	0, cr0, [r2], {1}
 3d0:	000d0c0e 	andeq	r0, sp, lr, lsl #24
 3d4:	00000034 	andeq	r0, r0, r4, lsr r0
 3d8:	000003c4 	andeq	r0, r0, r4, asr #7
 3dc:	00008f00 	andeq	r8, r0, r0, lsl #30
 3e0:	00000058 	andeq	r0, r0, r8, asr r0
 3e4:	80100e42 	andshi	r0, r0, r2, asr #28
 3e8:	82038104 	andhi	r8, r3, #1
 3ec:	42018302 	andmi	r8, r1, #134217728	; 0x8000000
 3f0:	07841c0e 	streq	r1, [r4, lr, lsl #24]
 3f4:	058e0685 	streq	r0, [lr, #1669]	; 0x685
 3f8:	5c280e42 	stcpl	14, cr0, [r8], #-264	; 0xfffffef8
 3fc:	ce421c0e 	cdpgt	12, 4, cr1, cr2, cr14, {0}
 400:	100ec4c5 	andne	ip, lr, r5, asr #9
 404:	c1c2c342 	bicgt	ip, r2, r2, asr #6
 408:	00000ec0 	andeq	r0, r0, r0, asr #29
 40c:	0000000c 	andeq	r0, r0, ip
 410:	ffffffff 			; <UNDEFINED> instruction: 0xffffffff
 414:	7c020001 	stcvc	0, cr0, [r2], {1}
 418:	000d0c0e 	andeq	r0, sp, lr, lsl #24
 41c:	00000014 	andeq	r0, r0, r4, lsl r0
 420:	0000040c 	andeq	r0, r0, ip, lsl #8
 424:	00008f58 	andeq	r8, r0, r8, asr pc
 428:	00000034 	andeq	r0, r0, r4, lsr r0
 42c:	84080e42 	strhi	r0, [r8], #-3650	; 0xfffff1be
 430:	00018e02 	andeq	r8, r1, r2, lsl #28
 434:	0000000c 	andeq	r0, r0, ip
 438:	ffffffff 			; <UNDEFINED> instruction: 0xffffffff
 43c:	7c020001 	stcvc	0, cr0, [r2], {1}
 440:	000d0c0e 	andeq	r0, sp, lr, lsl #24
 444:	0000000c 	andeq	r0, r0, ip
 448:	00000434 	andeq	r0, r0, r4, lsr r4
 44c:	00008f8c 	andeq	r8, r0, ip, lsl #31
 450:	00000014 	andeq	r0, r0, r4, lsl r0
 454:	0000000c 	andeq	r0, r0, ip
 458:	00000434 	andeq	r0, r0, r4, lsr r4
 45c:	00008fa0 	andeq	r8, r0, r0, lsr #31
 460:	00000024 	andeq	r0, r0, r4, lsr #32
 464:	0000000c 	andeq	r0, r0, ip
 468:	00000434 	andeq	r0, r0, r4, lsr r4
 46c:	00008fc4 	andeq	r8, r0, r4, asr #31
 470:	00000038 	andeq	r0, r0, r8, lsr r0
 474:	00000024 	andeq	r0, r0, r4, lsr #32
 478:	00000434 	andeq	r0, r0, r4, lsr r4
 47c:	00008ffc 	strdeq	r8, [r0], -ip
 480:	000001b4 			; <UNDEFINED> instruction: 0x000001b4
 484:	84140e42 	ldrhi	r0, [r4], #-3650	; 0xfffff1be
 488:	86048505 	strhi	r8, [r4], -r5, lsl #10
 48c:	8e028703 	cdphi	7, 0, cr8, cr2, cr3, {0}
 490:	600e4201 	andvs	r4, lr, r1, lsl #4
 494:	0e0a9a02 	vmlaeq.f32	s18, s20, s4
 498:	000b4214 	andeq	r4, fp, r4, lsl r2
 49c:	00000014 	andeq	r0, r0, r4, lsl r0
 4a0:	00000434 	andeq	r0, r0, r4, lsr r4
 4a4:	000091b0 			; <UNDEFINED> instruction: 0x000091b0
 4a8:	00000064 	andeq	r0, r0, r4, rrx
 4ac:	8e040e54 	mcrhi	14, 0, r0, cr4, cr4, {2}
 4b0:	100e4201 	andne	r4, lr, r1, lsl #4
 4b4:	0000002c 	andeq	r0, r0, ip, lsr #32
 4b8:	00000434 	andeq	r0, r0, r4, lsr r4
 4bc:	00009214 	andeq	r9, r0, r4, lsl r2
 4c0:	000004b8 			; <UNDEFINED> instruction: 0x000004b8
 4c4:	84240e42 	strthi	r0, [r4], #-3650	; 0xfffff1be
 4c8:	86088509 	strhi	r8, [r8], -r9, lsl #10
 4cc:	88068707 	stmdahi	r6, {r0, r1, r2, r8, r9, sl, pc}
 4d0:	8a048905 	bhi	1228ec <__bss_end__+0x117a44>
 4d4:	8e028b03 	vmlahi.f64	d8, d2, d3
 4d8:	b80e4201 	stmdalt	lr, {r0, r9, lr}
 4dc:	02380302 	eorseq	r0, r8, #134217728	; 0x8000000
 4e0:	0000240e 	andeq	r2, r0, lr, lsl #8
 4e4:	0000000c 	andeq	r0, r0, ip
 4e8:	ffffffff 			; <UNDEFINED> instruction: 0xffffffff
 4ec:	7c020001 	stcvc	0, cr0, [r2], {1}
 4f0:	000d0c0e 	andeq	r0, sp, lr, lsl #24
 4f4:	00000014 	andeq	r0, r0, r4, lsl r0
 4f8:	000004e4 	andeq	r0, r0, r4, ror #9
 4fc:	000096cc 	andeq	r9, r0, ip, asr #13
 500:	0000002c 	andeq	r0, r0, ip, lsr #32
 504:	84080e42 	strhi	r0, [r8], #-3650	; 0xfffff1be
 508:	00018e02 	andeq	r8, r1, r2, lsl #28
 50c:	0000000c 	andeq	r0, r0, ip
 510:	ffffffff 			; <UNDEFINED> instruction: 0xffffffff
 514:	7c020001 	stcvc	0, cr0, [r2], {1}
 518:	000d0c0e 	andeq	r0, sp, lr, lsl #24
 51c:	00000014 	andeq	r0, r0, r4, lsl r0
 520:	0000050c 	andeq	r0, r0, ip, lsl #10
 524:	000096f8 	strdeq	r9, [r0], -r8
 528:	0000003c 	andeq	r0, r0, ip, lsr r0
 52c:	84080e42 	strhi	r0, [r8], #-3650	; 0xfffff1be
 530:	00018e02 	andeq	r8, r1, r2, lsl #28
 534:	0000000c 	andeq	r0, r0, ip
 538:	ffffffff 			; <UNDEFINED> instruction: 0xffffffff
 53c:	7c020001 	stcvc	0, cr0, [r2], {1}
 540:	000d0c0e 	andeq	r0, sp, lr, lsl #24
 544:	0000000c 	andeq	r0, r0, ip
 548:	00000534 	andeq	r0, r0, r4, lsr r5
 54c:	00009734 	andeq	r9, r0, r4, lsr r7
 550:	00000004 	andeq	r0, r0, r4
 554:	0000000c 	andeq	r0, r0, ip
 558:	ffffffff 			; <UNDEFINED> instruction: 0xffffffff
 55c:	7c020001 	stcvc	0, cr0, [r2], {1}
 560:	000d0c0e 	andeq	r0, sp, lr, lsl #24
 564:	0000000c 	andeq	r0, r0, ip
 568:	00000554 	andeq	r0, r0, r4, asr r5
 56c:	00009738 	andeq	r9, r0, r8, lsr r7
 570:	00000018 	andeq	r0, r0, r8, lsl r0
 574:	0000000c 	andeq	r0, r0, ip
 578:	00000554 	andeq	r0, r0, r4, asr r5
 57c:	00009750 	andeq	r9, r0, r0, asr r7
 580:	00000014 	andeq	r0, r0, r4, lsl r0
 584:	00000014 	andeq	r0, r0, r4, lsl r0
 588:	00000554 	andeq	r0, r0, r4, asr r5
 58c:	00009764 	andeq	r9, r0, r4, ror #14
 590:	00000054 	andeq	r0, r0, r4, asr r0
 594:	84080e42 	strhi	r0, [r8], #-3650	; 0xfffff1be
 598:	00018e02 	andeq	r8, r1, r2, lsl #28
 59c:	0000000c 	andeq	r0, r0, ip
 5a0:	ffffffff 			; <UNDEFINED> instruction: 0xffffffff
 5a4:	7c020001 	stcvc	0, cr0, [r2], {1}
 5a8:	000d0c0e 	andeq	r0, sp, lr, lsl #24
 5ac:	00000014 	andeq	r0, r0, r4, lsl r0
 5b0:	0000059c 	muleq	r0, ip, r5
 5b4:	000097b8 			; <UNDEFINED> instruction: 0x000097b8
 5b8:	00000014 	andeq	r0, r0, r4, lsl r0
 5bc:	84080e42 	strhi	r0, [r8], #-3650	; 0xfffff1be
 5c0:	00018e02 	andeq	r8, r1, r2, lsl #28
 5c4:	00000014 	andeq	r0, r0, r4, lsl r0
 5c8:	0000059c 	muleq	r0, ip, r5
 5cc:	000097cc 	andeq	r9, r0, ip, asr #15
 5d0:	0000001c 	andeq	r0, r0, ip, lsl r0
 5d4:	84080e42 	strhi	r0, [r8], #-3650	; 0xfffff1be
 5d8:	00018e02 	andeq	r8, r1, r2, lsl #28
 5dc:	00000018 	andeq	r0, r0, r8, lsl r0
 5e0:	0000059c 	muleq	r0, ip, r5
 5e4:	000097e8 	andeq	r9, r0, r8, ror #15
 5e8:	00000024 	andeq	r0, r0, r4, lsr #32
 5ec:	84100e42 	ldrhi	r0, [r0], #-3650	; 0xfffff1be
 5f0:	86038504 	strhi	r8, [r3], -r4, lsl #10
 5f4:	00018e02 	andeq	r8, r1, r2, lsl #28
 5f8:	00000014 	andeq	r0, r0, r4, lsl r0
 5fc:	0000059c 	muleq	r0, ip, r5
 600:	0000980c 	andeq	r9, r0, ip, lsl #16
 604:	00000018 	andeq	r0, r0, r8, lsl r0
 608:	84080e42 	strhi	r0, [r8], #-3650	; 0xfffff1be
 60c:	00018e02 	andeq	r8, r1, r2, lsl #28
 610:	00000014 	andeq	r0, r0, r4, lsl r0
 614:	0000059c 	muleq	r0, ip, r5
 618:	00009824 	andeq	r9, r0, r4, lsr #16
 61c:	00000018 	andeq	r0, r0, r8, lsl r0
 620:	84080e42 	strhi	r0, [r8], #-3650	; 0xfffff1be
 624:	00018e02 	andeq	r8, r1, r2, lsl #28
 628:	0000000c 	andeq	r0, r0, ip
 62c:	ffffffff 			; <UNDEFINED> instruction: 0xffffffff
 630:	7c020001 	stcvc	0, cr0, [r2], {1}
 634:	000d0c0e 	andeq	r0, sp, lr, lsl #24
 638:	00000018 	andeq	r0, r0, r8, lsl r0
 63c:	00000628 	andeq	r0, r0, r8, lsr #12
 640:	0000983c 	andeq	r9, r0, ip, lsr r8
 644:	00000020 	andeq	r0, r0, r0, lsr #32
 648:	84100e42 	ldrhi	r0, [r0], #-3650	; 0xfffff1be
 64c:	86038504 	strhi	r8, [r3], -r4, lsl #10
 650:	00018e02 	andeq	r8, r1, r2, lsl #28
 654:	00000018 	andeq	r0, r0, r8, lsl r0
 658:	00000628 	andeq	r0, r0, r8, lsr #12
 65c:	0000985c 	andeq	r9, r0, ip, asr r8
 660:	00000020 	andeq	r0, r0, r0, lsr #32
 664:	84100e42 	ldrhi	r0, [r0], #-3650	; 0xfffff1be
 668:	86038504 	strhi	r8, [r3], -r4, lsl #10
 66c:	00018e02 	andeq	r8, r1, r2, lsl #28
 670:	00000014 	andeq	r0, r0, r4, lsl r0
 674:	00000628 	andeq	r0, r0, r8, lsr #12
 678:	0000987c 	andeq	r9, r0, ip, ror r8
 67c:	000000b0 	strheq	r0, [r0], -r0	; <UNPREDICTABLE>
 680:	84080e42 	strhi	r0, [r8], #-3650	; 0xfffff1be
 684:	00018e02 	andeq	r8, r1, r2, lsl #28
 688:	00000014 	andeq	r0, r0, r4, lsl r0
 68c:	00000628 	andeq	r0, r0, r8, lsr #12
 690:	0000992c 	andeq	r9, r0, ip, lsr #18
 694:	00000018 	andeq	r0, r0, r8, lsl r0
 698:	84080e42 	strhi	r0, [r8], #-3650	; 0xfffff1be
 69c:	00018e02 	andeq	r8, r1, r2, lsl #28
 6a0:	00000014 	andeq	r0, r0, r4, lsl r0
 6a4:	00000628 	andeq	r0, r0, r8, lsr #12
 6a8:	00009944 	andeq	r9, r0, r4, asr #18
 6ac:	00000020 	andeq	r0, r0, r0, lsr #32
 6b0:	84080e42 	strhi	r0, [r8], #-3650	; 0xfffff1be
 6b4:	00018e02 	andeq	r8, r1, r2, lsl #28
 6b8:	00000014 	andeq	r0, r0, r4, lsl r0
 6bc:	00000628 	andeq	r0, r0, r8, lsr #12
 6c0:	00009964 	andeq	r9, r0, r4, ror #18
 6c4:	00000030 	andeq	r0, r0, r0, lsr r0
 6c8:	84080e42 	strhi	r0, [r8], #-3650	; 0xfffff1be
 6cc:	00018e02 	andeq	r8, r1, r2, lsl #28
 6d0:	00000014 	andeq	r0, r0, r4, lsl r0
 6d4:	00000628 	andeq	r0, r0, r8, lsr #12
 6d8:	00009994 	muleq	r0, r4, r9
 6dc:	00000030 	andeq	r0, r0, r0, lsr r0
 6e0:	84080e42 	strhi	r0, [r8], #-3650	; 0xfffff1be
 6e4:	00018e02 	andeq	r8, r1, r2, lsl #28
 6e8:	00000014 	andeq	r0, r0, r4, lsl r0
 6ec:	00000628 	andeq	r0, r0, r8, lsr #12
 6f0:	000099c4 	andeq	r9, r0, r4, asr #19
 6f4:	00000010 	andeq	r0, r0, r0, lsl r0
 6f8:	84080e42 	strhi	r0, [r8], #-3650	; 0xfffff1be
 6fc:	00018e02 	andeq	r8, r1, r2, lsl #28
 700:	00000014 	andeq	r0, r0, r4, lsl r0
 704:	00000628 	andeq	r0, r0, r8, lsr #12
 708:	000099d4 	ldrdeq	r9, [r0], -r4
 70c:	00000020 	andeq	r0, r0, r0, lsr #32
 710:	84080e42 	strhi	r0, [r8], #-3650	; 0xfffff1be
 714:	00018e02 	andeq	r8, r1, r2, lsl #28
 718:	00000014 	andeq	r0, r0, r4, lsl r0
 71c:	00000628 	andeq	r0, r0, r8, lsr #12
 720:	000099f4 	strdeq	r9, [r0], -r4
 724:	00000014 	andeq	r0, r0, r4, lsl r0
 728:	84080e42 	strhi	r0, [r8], #-3650	; 0xfffff1be
 72c:	00018e02 	andeq	r8, r1, r2, lsl #28
 730:	00000014 	andeq	r0, r0, r4, lsl r0
 734:	00000628 	andeq	r0, r0, r8, lsr #12
 738:	00009a08 	andeq	r9, r0, r8, lsl #20
 73c:	00000024 	andeq	r0, r0, r4, lsr #32
 740:	84080e42 	strhi	r0, [r8], #-3650	; 0xfffff1be
 744:	00018e02 	andeq	r8, r1, r2, lsl #28
 748:	0000000c 	andeq	r0, r0, ip
 74c:	ffffffff 			; <UNDEFINED> instruction: 0xffffffff
 750:	7c020001 	stcvc	0, cr0, [r2], {1}
 754:	000d0c0e 	andeq	r0, sp, lr, lsl #24
 758:	0000000c 	andeq	r0, r0, ip
 75c:	00000748 	andeq	r0, r0, r8, asr #14
 760:	00009a2c 	andeq	r9, r0, ip, lsr #20
 764:	00000010 	andeq	r0, r0, r0, lsl r0
 768:	0000000c 	andeq	r0, r0, ip
 76c:	00000748 	andeq	r0, r0, r8, asr #14
 770:	00009a3c 	andeq	r9, r0, ip, lsr sl
 774:	00000010 	andeq	r0, r0, r0, lsl r0
 778:	0000000c 	andeq	r0, r0, ip
 77c:	00000748 	andeq	r0, r0, r8, asr #14
 780:	00009a4c 	andeq	r9, r0, ip, asr #20
 784:	00000010 	andeq	r0, r0, r0, lsl r0
 788:	0000001c 	andeq	r0, r0, ip, lsl r0
 78c:	00000748 	andeq	r0, r0, r8, asr #14
 790:	00009a5c 	andeq	r9, r0, ip, asr sl
 794:	0000009c 	muleq	r0, ip, r0
 798:	8e040e42 	cdphi	14, 0, cr0, cr4, cr2, {2}
 79c:	100e4201 	andne	r4, lr, r1, lsl #4
 7a0:	040e0a58 	streq	r0, [lr], #-2648	; 0xfffff5a8
 7a4:	00000b42 	andeq	r0, r0, r2, asr #22
 7a8:	00000014 	andeq	r0, r0, r4, lsl r0
 7ac:	00000748 	andeq	r0, r0, r8, asr #14
 7b0:	00009af8 	strdeq	r9, [r0], -r8
 7b4:	00000058 	andeq	r0, r0, r8, asr r0
 7b8:	84080e42 	strhi	r0, [r8], #-3650	; 0xfffff1be
 7bc:	00018e02 	andeq	r8, r1, r2, lsl #28
 7c0:	0000001c 	andeq	r0, r0, ip, lsl r0
 7c4:	00000748 	andeq	r0, r0, r8, asr #14
 7c8:	00009b50 	andeq	r9, r0, r0, asr fp
 7cc:	00000098 	muleq	r0, r8, r0
 7d0:	8e040e42 	cdphi	14, 0, cr0, cr4, cr2, {2}
 7d4:	100e4201 	andne	r4, lr, r1, lsl #4
 7d8:	040e0a58 	streq	r0, [lr], #-2648	; 0xfffff5a8
 7dc:	00000b42 	andeq	r0, r0, r2, asr #22
 7e0:	00000020 	andeq	r0, r0, r0, lsr #32
 7e4:	00000748 	andeq	r0, r0, r8, asr #14
 7e8:	00009be8 	andeq	r9, r0, r8, ror #23
 7ec:	00000064 	andeq	r0, r0, r4, rrx
 7f0:	840c0e42 	strhi	r0, [ip], #-3650	; 0xfffff1be
 7f4:	8e028503 	cfsh32hi	mvfx8, mvfx2, #3
 7f8:	180e4201 	stmdane	lr, {r0, r9, lr}
 7fc:	0c0e0a54 			; <UNDEFINED> instruction: 0x0c0e0a54
 800:	00000b42 	andeq	r0, r0, r2, asr #22
 804:	0000001c 	andeq	r0, r0, ip, lsl r0
 808:	00000748 	andeq	r0, r0, r8, asr #14
 80c:	00009c4c 	andeq	r9, r0, ip, asr #24
 810:	00000118 	andeq	r0, r0, r8, lsl r1
 814:	8e040e42 	cdphi	14, 0, cr0, cr4, cr2, {2}
 818:	100e4201 	andne	r4, lr, r1, lsl #4
 81c:	040e0a6c 	streq	r0, [lr], #-2668	; 0xfffff594
 820:	00000b42 	andeq	r0, r0, r2, asr #22
 824:	0000000c 	andeq	r0, r0, ip
 828:	00000748 	andeq	r0, r0, r8, asr #14
 82c:	00009d64 	andeq	r9, r0, r4, ror #26
 830:	00000004 	andeq	r0, r0, r4
 834:	0000000c 	andeq	r0, r0, ip
 838:	00000748 	andeq	r0, r0, r8, asr #14
 83c:	00009d68 	andeq	r9, r0, r8, ror #26
 840:	00000014 	andeq	r0, r0, r4, lsl r0
 844:	00000014 	andeq	r0, r0, r4, lsl r0
 848:	00000748 	andeq	r0, r0, r8, asr #14
 84c:	00009d7c 	andeq	r9, r0, ip, ror sp
 850:	00000060 	andeq	r0, r0, r0, rrx
 854:	8e040e58 	mcrhi	14, 0, r0, cr4, cr8, {2}
 858:	100e4201 	andne	r4, lr, r1, lsl #4
 85c:	0000000c 	andeq	r0, r0, ip
 860:	ffffffff 			; <UNDEFINED> instruction: 0xffffffff
 864:	7c020001 	stcvc	0, cr0, [r2], {1}
 868:	000d0c0e 	andeq	r0, sp, lr, lsl #24
 86c:	00000014 	andeq	r0, r0, r4, lsl r0
 870:	0000085c 	andeq	r0, r0, ip, asr r8
 874:	00009ddc 	ldrdeq	r9, [r0], -ip
 878:	00000014 	andeq	r0, r0, r4, lsl r0
 87c:	84080e42 	strhi	r0, [r8], #-3650	; 0xfffff1be
 880:	00018e02 	andeq	r8, r1, r2, lsl #28
 884:	0000000c 	andeq	r0, r0, ip
 888:	0000085c 	andeq	r0, r0, ip, asr r8
 88c:	00009df0 	strdeq	r9, [r0], -r0
 890:	00000018 	andeq	r0, r0, r8, lsl r0
 894:	0000000c 	andeq	r0, r0, ip
 898:	0000085c 	andeq	r0, r0, ip, asr r8
 89c:	00009e08 	andeq	r9, r0, r8, lsl #28
 8a0:	00000010 	andeq	r0, r0, r0, lsl r0
 8a4:	0000000c 	andeq	r0, r0, ip
 8a8:	ffffffff 			; <UNDEFINED> instruction: 0xffffffff
 8ac:	7c020001 	stcvc	0, cr0, [r2], {1}
 8b0:	000d0c0e 	andeq	r0, sp, lr, lsl #24
 8b4:	0000000c 	andeq	r0, r0, ip
 8b8:	000008a4 	andeq	r0, r0, r4, lsr #17
 8bc:	00009e18 	andeq	r9, r0, r8, lsl lr
 8c0:	00000034 	andeq	r0, r0, r4, lsr r0
 8c4:	0000000c 	andeq	r0, r0, ip
 8c8:	ffffffff 			; <UNDEFINED> instruction: 0xffffffff
 8cc:	7c020001 	stcvc	0, cr0, [r2], {1}
 8d0:	000d0c0e 	andeq	r0, sp, lr, lsl #24
 8d4:	0000000c 	andeq	r0, r0, ip
 8d8:	000008c4 	andeq	r0, r0, r4, asr #17
 8dc:	00009e4c 	andeq	r9, r0, ip, asr #28
 8e0:	0000002c 	andeq	r0, r0, ip, lsr #32
 8e4:	0000000c 	andeq	r0, r0, ip
 8e8:	ffffffff 			; <UNDEFINED> instruction: 0xffffffff
 8ec:	7c020001 	stcvc	0, cr0, [r2], {1}
 8f0:	000d0c0e 	andeq	r0, sp, lr, lsl #24
 8f4:	0000000c 	andeq	r0, r0, ip
 8f8:	000008e4 	andeq	r0, r0, r4, ror #17
 8fc:	00009e78 	andeq	r9, r0, r8, ror lr
 900:	00000020 	andeq	r0, r0, r0, lsr #32
 904:	0000000c 	andeq	r0, r0, ip
 908:	ffffffff 			; <UNDEFINED> instruction: 0xffffffff
 90c:	7c020001 	stcvc	0, cr0, [r2], {1}
 910:	000d0c0e 	andeq	r0, sp, lr, lsl #24
 914:	0000000c 	andeq	r0, r0, ip
 918:	00000904 	andeq	r0, r0, r4, lsl #18
 91c:	00009e98 	muleq	r0, r8, lr
 920:	0000002c 	andeq	r0, r0, ip, lsr #32
 924:	0000000c 	andeq	r0, r0, ip
 928:	ffffffff 			; <UNDEFINED> instruction: 0xffffffff
 92c:	7c020001 	stcvc	0, cr0, [r2], {1}
 930:	000d0c0e 	andeq	r0, sp, lr, lsl #24
 934:	0000000c 	andeq	r0, r0, ip
 938:	00000924 	andeq	r0, r0, r4, lsr #18
 93c:	00009ec4 	andeq	r9, r0, r4, asr #29
 940:	00000004 	andeq	r0, r0, r4
 944:	0000000c 	andeq	r0, r0, ip
 948:	ffffffff 			; <UNDEFINED> instruction: 0xffffffff
 94c:	7c020001 	stcvc	0, cr0, [r2], {1}
 950:	000d0c0e 	andeq	r0, sp, lr, lsl #24
 954:	00000018 	andeq	r0, r0, r8, lsl r0
 958:	00000944 	andeq	r0, r0, r4, asr #18
 95c:	00009ee0 	andeq	r9, r0, r0, ror #29
 960:	00000064 	andeq	r0, r0, r4, rrx
 964:	84100e46 	ldrhi	r0, [r0], #-3654	; 0xfffff1ba
 968:	86038504 	strhi	r8, [r3], -r4, lsl #10
 96c:	00018e02 	andeq	r8, r1, r2, lsl #28
 970:	00000014 	andeq	r0, r0, r4, lsl r0
 974:	00000944 	andeq	r0, r0, r4, asr #18
 978:	00009f44 	andeq	r9, r0, r4, asr #30
 97c:	00000010 	andeq	r0, r0, r0, lsl r0
 980:	84080e42 	strhi	r0, [r8], #-3650	; 0xfffff1be
 984:	00018e02 	andeq	r8, r1, r2, lsl #28
 988:	00000014 	andeq	r0, r0, r4, lsl r0
 98c:	00000944 	andeq	r0, r0, r4, asr #18
 990:	00009f54 	andeq	r9, r0, r4, asr pc
 994:	00000024 	andeq	r0, r0, r4, lsr #32
 998:	84080e46 	strhi	r0, [r8], #-3654	; 0xfffff1ba
 99c:	00018e02 	andeq	r8, r1, r2, lsl #28
 9a0:	00000014 	andeq	r0, r0, r4, lsl r0
 9a4:	00000944 	andeq	r0, r0, r4, asr #18
 9a8:	00009f78 	andeq	r9, r0, r8, ror pc
 9ac:	00000024 	andeq	r0, r0, r4, lsr #32
 9b0:	84080e46 	strhi	r0, [r8], #-3654	; 0xfffff1ba
 9b4:	00018e02 	andeq	r8, r1, r2, lsl #28
 9b8:	00000014 	andeq	r0, r0, r4, lsl r0
 9bc:	00000944 	andeq	r0, r0, r4, asr #18
 9c0:	00009f9c 	muleq	r0, ip, pc	; <UNPREDICTABLE>
 9c4:	00000010 	andeq	r0, r0, r0, lsl r0
 9c8:	84080e42 	strhi	r0, [r8], #-3650	; 0xfffff1be
 9cc:	00018e02 	andeq	r8, r1, r2, lsl #28
 9d0:	00000014 	andeq	r0, r0, r4, lsl r0
 9d4:	00000944 	andeq	r0, r0, r4, asr #18
 9d8:	00009fac 	andeq	r9, r0, ip, lsr #31
 9dc:	0000001c 	andeq	r0, r0, ip, lsl r0
 9e0:	84080e42 	strhi	r0, [r8], #-3650	; 0xfffff1be
 9e4:	00018e02 	andeq	r8, r1, r2, lsl #28
 9e8:	00000018 	andeq	r0, r0, r8, lsl r0
 9ec:	00000944 	andeq	r0, r0, r4, asr #18
 9f0:	00009fc8 	andeq	r9, r0, r8, asr #31
 9f4:	00000034 	andeq	r0, r0, r4, lsr r0
 9f8:	84080e46 	strhi	r0, [r8], #-3654	; 0xfffff1ba
 9fc:	4e018e02 	cdpmi	14, 0, cr8, cr1, cr2, {0}
 a00:	cec4000e 	cdpgt	0, 12, cr0, cr4, cr14, {0}

Disassembly of section .debug_ranges:

00000000 <.debug_ranges>:
   0:	00000010 	andeq	r0, r0, r0, lsl r0
   4:	00000028 	andeq	r0, r0, r8, lsr #32
   8:	00000040 	andeq	r0, r0, r0, asr #32
   c:	00000074 	andeq	r0, r0, r4, ror r0
	...
  18:	000001fc 	strdeq	r0, [r0], -ip
  1c:	00000224 	andeq	r0, r0, r4, lsr #4
  20:	00000228 	andeq	r0, r0, r8, lsr #4
  24:	0000022c 	andeq	r0, r0, ip, lsr #4
  28:	00000234 	andeq	r0, r0, r4, lsr r2
  2c:	00000238 	andeq	r0, r0, r8, lsr r2
	...
  38:	0000006c 	andeq	r0, r0, ip, rrx
  3c:	00000118 	andeq	r0, r0, r8, lsl r1
  40:	00000120 	andeq	r0, r0, r0, lsr #2
  44:	00000150 	andeq	r0, r0, r0, asr r1
	...
  50:	000002bc 			; <UNDEFINED> instruction: 0x000002bc
  54:	000002c0 	andeq	r0, r0, r0, asr #5
  58:	00000320 	andeq	r0, r0, r0, lsr #6
  5c:	000003a8 	andeq	r0, r0, r8, lsr #7
	...
  68:	00000320 	andeq	r0, r0, r0, lsr #6
  6c:	00000338 	andeq	r0, r0, r8, lsr r3
  70:	00000344 	andeq	r0, r0, r4, asr #6
  74:	000003a8 	andeq	r0, r0, r8, lsr #7
	...
  80:	00000320 	andeq	r0, r0, r0, lsr #6
  84:	00000338 	andeq	r0, r0, r8, lsr r3
  88:	00000364 	andeq	r0, r0, r4, ror #6
  8c:	000003a8 	andeq	r0, r0, r8, lsr #7
	...
  98:	00009738 	andeq	r9, r0, r8, lsr r7
  9c:	000097b8 			; <UNDEFINED> instruction: 0x000097b8
	...
  a8:	00000134 	andeq	r0, r0, r4, lsr r1
  ac:	00000134 	andeq	r0, r0, r4, lsr r1
  b0:	00000134 	andeq	r0, r0, r4, lsr r1
  b4:	0000013c 	andeq	r0, r0, ip, lsr r1
	...
  c0:	0000024c 	andeq	r0, r0, ip, asr #4
  c4:	00000264 	andeq	r0, r0, r4, ror #4
  c8:	000002c8 	andeq	r0, r0, r8, asr #5
  cc:	000002e8 	andeq	r0, r0, r8, ror #5
	...
  d8:	00009e98 	muleq	r0, r8, lr
  dc:	00009ec4 	andeq	r9, r0, r4, asr #29
	...
