
tests-3.0/part2-test5-gc.elf:     file format elf32-littlearm


Disassembly of section .text:

00008000 <__code_start__>:
    8000:	e3a00013 	mov	r0, #19, 0
    8004:	e3800080 	orr	r0, r0, #128, 0	; 0x80
    8008:	e129f000 	msr	CPSR_fc, r0
    800c:	e3a01000 	mov	r1, #0, 0
    8010:	ee071f95 	mcr	15, 0, r1, cr7, cr5, {4}
    8014:	e3a0d302 	mov	sp, #134217728	; 0x8000000
    8018:	e3a0b000 	mov	fp, #0, 0
    801c:	eb0005d1 	bl	9768 <_cstart>
    8020:	eb0005eb 	bl	97d4 <rpi_reboot>

00008024 <PUT32>:
    8024:	e5801000 	str	r1, [r0]
    8028:	e12fff1e 	bx	lr

0000802c <GET32>:
    802c:	e5900000 	ldr	r0, [r0]
    8030:	e12fff1e 	bx	lr

00008034 <BRANCHTO>:
    8034:	e12fff10 	bx	r0

00008038 <test>:
    8038:	e92d4070 	push	{r4, r5, r6, lr}
    803c:	e24dd018 	sub	sp, sp, #24, 0
    8040:	e3a06000 	mov	r6, #0, 0
    8044:	e1a05006 	mov	r5, r6
    8048:	e3560000 	cmp	r6, #0, 0
    804c:	da000005 	ble	8068 <test+0x30>
    8050:	e59f0098 	ldr	r0, [pc, #152]	; 80f0 <test+0xb8>
    8054:	eb0003c5 	bl	8f70 <printk>
    8058:	eb0002e9 	bl	8c04 <check_no_leak>
    805c:	e1a00005 	mov	r0, r5
    8060:	e28dd018 	add	sp, sp, #24, 0
    8064:	e8bd8070 	pop	{r4, r5, r6, pc}
    8068:	e59f3084 	ldr	r3, [pc, #132]	; 80f4 <test+0xbc>
    806c:	e58d300c 	str	r3, [sp, #12]
    8070:	e59f3080 	ldr	r3, [pc, #128]	; 80f8 <test+0xc0>
    8074:	e58d3010 	str	r3, [sp, #16]
    8078:	e3a03014 	mov	r3, #20, 0
    807c:	e58d3014 	str	r3, [sp, #20]
    8080:	e28d3018 	add	r3, sp, #24, 0
    8084:	e913000e 	ldmdb	r3, {r1, r2, r3}
    8088:	e3a0000c 	mov	r0, #12, 0
    808c:	eb00015c 	bl	8604 <ckalloc>
    8090:	e1a04000 	mov	r4, r0
    8094:	e3a0200c 	mov	r2, #12, 0
    8098:	e3a01000 	mov	r1, #0, 0
    809c:	eb0003ad 	bl	8f58 <memset>
    80a0:	e3a03000 	mov	r3, #0, 0
    80a4:	e5843000 	str	r3, [r4]
    80a8:	e1550003 	cmp	r5, r3
    80ac:	0a000004 	beq	80c4 <test+0x8c>
    80b0:	e5953008 	ldr	r3, [r5, #8]
    80b4:	e3530000 	cmp	r3, #0, 0
    80b8:	1a000004 	bne	80d0 <test+0x98>
    80bc:	e5854008 	str	r4, [r5, #8]
    80c0:	e5845004 	str	r5, [r4, #4]
    80c4:	e2866001 	add	r6, r6, #1, 0
    80c8:	e1a05004 	mov	r5, r4
    80cc:	eaffffdd 	b	8048 <test+0x10>
    80d0:	e59f3024 	ldr	r3, [pc, #36]	; 80fc <test+0xc4>
    80d4:	e58d3000 	str	r3, [sp]
    80d8:	e3a03018 	mov	r3, #24, 0
    80dc:	e59f2014 	ldr	r2, [pc, #20]	; 80f8 <test+0xc0>
    80e0:	e59f100c 	ldr	r1, [pc, #12]	; 80f4 <test+0xbc>
    80e4:	e59f0014 	ldr	r0, [pc, #20]	; 8100 <test+0xc8>
    80e8:	eb0003a0 	bl	8f70 <printk>
    80ec:	eb000592 	bl	973c <clean_reboot>
    80f0:	0000a0ac 	andeq	sl, r0, ip, lsr #1
    80f4:	0000a070 	andeq	sl, r0, r0, ror r0
    80f8:	0000a1c8 	andeq	sl, r0, r8, asr #3
    80fc:	0000a0a0 	andeq	sl, r0, r0, lsr #1
    8100:	0000a08c 	andeq	sl, r0, ip, lsl #1

00008104 <bar>:
    8104:	e92d4010 	push	{r4, lr}
    8108:	ebffffca 	bl	8038 <test>
    810c:	e1a01000 	mov	r1, r0
    8110:	e3a00000 	mov	r0, #0, 0
    8114:	ebffffc2 	bl	8024 <PUT32>
    8118:	e3a00000 	mov	r0, #0, 0
    811c:	e8bd8010 	pop	{r4, pc}

00008120 <notmain>:
    8120:	e52de004 	push	{lr}		; (str lr, [sp, #-4]!)
    8124:	e24dd00c 	sub	sp, sp, #12, 0
    8128:	e59f0064 	ldr	r0, [pc, #100]	; 8194 <notmain+0x74>
    812c:	eb00038f 	bl	8f70 <printk>
    8130:	ebfffff3 	bl	8104 <bar>
    8134:	e59f005c 	ldr	r0, [pc, #92]	; 8198 <notmain+0x78>
    8138:	eb00038c 	bl	8f70 <printk>
    813c:	eb0002c2 	bl	8c4c <check_should_leak>
    8140:	eb0002d5 	bl	8c9c <ck_gc>
    8144:	e1a01000 	mov	r1, r0
    8148:	e59f004c 	ldr	r0, [pc, #76]	; 819c <notmain+0x7c>
    814c:	eb000387 	bl	8f70 <printk>
    8150:	e59f0048 	ldr	r0, [pc, #72]	; 81a0 <notmain+0x80>
    8154:	eb000385 	bl	8f70 <printk>
    8158:	eb0002cf 	bl	8c9c <ck_gc>
    815c:	e3500000 	cmp	r0, #0, 0
    8160:	1a000004 	bne	8178 <notmain+0x58>
    8164:	e59f0038 	ldr	r0, [pc, #56]	; 81a4 <notmain+0x84>
    8168:	eb000380 	bl	8f70 <printk>
    816c:	eb0002a4 	bl	8c04 <check_no_leak>
    8170:	e28dd00c 	add	sp, sp, #12, 0
    8174:	e49df004 	pop	{pc}		; (ldr pc, [sp], #4)
    8178:	e58d0000 	str	r0, [sp]
    817c:	e3a03044 	mov	r3, #68, 0	; 0x44
    8180:	e59f2020 	ldr	r2, [pc, #32]	; 81a8 <notmain+0x88>
    8184:	e59f1020 	ldr	r1, [pc, #32]	; 81ac <notmain+0x8c>
    8188:	e59f0020 	ldr	r0, [pc, #32]	; 81b0 <notmain+0x90>
    818c:	eb000377 	bl	8f70 <printk>
    8190:	eb000569 	bl	973c <clean_reboot>
    8194:	0000a0dc 	ldrdeq	sl, [r0], -ip
    8198:	0000a118 	andeq	sl, r0, r8, lsl r1
    819c:	0000a12c 	andeq	sl, r0, ip, lsr #2
    81a0:	0000a14c 	andeq	sl, r0, ip, asr #2
    81a4:	0000a1ac 	andeq	sl, r0, ip, lsr #3
    81a8:	0000a1d0 	ldrdeq	sl, [r0], -r0
    81ac:	0000a070 	andeq	sl, r0, r0, ror r0
    81b0:	0000a170 	andeq	sl, r0, r0, ror r1

000081b4 <list_append>:
    81b4:	e59f3058 	ldr	r3, [pc, #88]	; 8214 <list_append+0x60>
    81b8:	e5933000 	ldr	r3, [r3]
    81bc:	e3530000 	cmp	r3, #0, 0
    81c0:	0a000005 	beq	81dc <list_append+0x28>
    81c4:	e3500000 	cmp	r0, #0, 0
    81c8:	0a000007 	beq	81ec <list_append+0x38>
    81cc:	e59f2040 	ldr	r2, [pc, #64]	; 8214 <list_append+0x60>
    81d0:	e5821000 	str	r1, [r2]
    81d4:	e5831000 	str	r1, [r3]
    81d8:	e12fff1e 	bx	lr
    81dc:	e59f3030 	ldr	r3, [pc, #48]	; 8214 <list_append+0x60>
    81e0:	e5831004 	str	r1, [r3, #4]
    81e4:	e5831000 	str	r1, [r3]
    81e8:	e12fff1e 	bx	lr
    81ec:	e52de004 	push	{lr}		; (str lr, [sp, #-4]!)
    81f0:	e24dd00c 	sub	sp, sp, #12, 0
    81f4:	e59f301c 	ldr	r3, [pc, #28]	; 8218 <list_append+0x64>
    81f8:	e58d3000 	str	r3, [sp]
    81fc:	e3a03025 	mov	r3, #37, 0	; 0x25
    8200:	e59f2014 	ldr	r2, [pc, #20]	; 821c <list_append+0x68>
    8204:	e59f1014 	ldr	r1, [pc, #20]	; 8220 <list_append+0x6c>
    8208:	e59f0014 	ldr	r0, [pc, #20]	; 8224 <list_append+0x70>
    820c:	eb000357 	bl	8f70 <printk>
    8210:	eb000549 	bl	973c <clean_reboot>
    8214:	0000ab30 	andeq	sl, r0, r0, lsr fp
    8218:	0000a1e4 	andeq	sl, r0, r4, ror #3
    821c:	0000a3b8 			; <UNDEFINED> instruction: 0x0000a3b8
    8220:	0000a1d8 	ldrdeq	sl, [r0], -r8
    8224:	0000a08c 	andeq	sl, r0, ip, lsl #1

00008228 <ck_first_hdr>:
    8228:	e59f3004 	ldr	r3, [pc, #4]	; 8234 <ck_first_hdr+0xc>
    822c:	e5930004 	ldr	r0, [r3, #4]
    8230:	e12fff1e 	bx	lr
    8234:	0000ab30 	andeq	sl, r0, r0, lsr fp

00008238 <ck_next_hdr>:
    8238:	e3500000 	cmp	r0, #0, 0
    823c:	012fff1e 	bxeq	lr
    8240:	e5900000 	ldr	r0, [r0]
    8244:	e12fff1e 	bx	lr

00008248 <ck_hdr_start>:
    8248:	e28000a8 	add	r0, r0, #168, 0	; 0xa8
    824c:	e12fff1e 	bx	lr

00008250 <ck_hdr_end>:
    8250:	e92d4010 	push	{r4, lr}
    8254:	e1a04000 	mov	r4, r0
    8258:	ebfffffa 	bl	8248 <ck_hdr_start>
    825c:	e5943004 	ldr	r3, [r4, #4]
    8260:	e0800003 	add	r0, r0, r3
    8264:	e8bd8010 	pop	{r4, pc}

00008268 <ck_ptr_in_block>:
    8268:	e5903004 	ldr	r3, [r0, #4]
    826c:	e28330a8 	add	r3, r3, #168, 0	; 0xa8
    8270:	e0803003 	add	r3, r0, r3
    8274:	e1530001 	cmp	r3, r1
    8278:	3a000004 	bcc	8290 <ck_ptr_in_block+0x28>
    827c:	e28000a8 	add	r0, r0, #168, 0	; 0xa8
    8280:	e1500001 	cmp	r0, r1
    8284:	9a000003 	bls	8298 <ck_ptr_in_block+0x30>
    8288:	e3a00000 	mov	r0, #0, 0
    828c:	e12fff1e 	bx	lr
    8290:	e3a00000 	mov	r0, #0, 0
    8294:	e12fff1e 	bx	lr
    8298:	e3a00001 	mov	r0, #1, 0
    829c:	e12fff1e 	bx	lr

000082a0 <ck_ptr_to_hdr>:
    82a0:	e92d4070 	push	{r4, r5, r6, lr}
    82a4:	e1a05000 	mov	r5, r0
    82a8:	ebffffde 	bl	8228 <ck_first_hdr>
    82ac:	e1a04000 	mov	r4, r0
    82b0:	e3540000 	cmp	r4, #0, 0
    82b4:	0a00000c 	beq	82ec <ck_ptr_to_hdr+0x4c>
    82b8:	e1a01005 	mov	r1, r5
    82bc:	e1a00004 	mov	r0, r4
    82c0:	ebffffe8 	bl	8268 <ck_ptr_in_block>
    82c4:	e3500000 	cmp	r0, #0, 0
    82c8:	1a000003 	bne	82dc <ck_ptr_to_hdr+0x3c>
    82cc:	e1a00004 	mov	r0, r4
    82d0:	ebffffd8 	bl	8238 <ck_next_hdr>
    82d4:	e1a04000 	mov	r4, r0
    82d8:	eafffff4 	b	82b0 <ck_ptr_to_hdr+0x10>
    82dc:	e1a02004 	mov	r2, r4
    82e0:	e1a01005 	mov	r1, r5
    82e4:	e59f0008 	ldr	r0, [pc, #8]	; 82f4 <ck_ptr_to_hdr+0x54>
    82e8:	eb000320 	bl	8f70 <printk>
    82ec:	e1a00004 	mov	r0, r4
    82f0:	e8bd8070 	pop	{r4, r5, r6, pc}
    82f4:	0000a1e8 	andeq	sl, r0, r8, ror #3

000082f8 <ck_ptr_is_alloced>:
    82f8:	e92d4070 	push	{r4, r5, r6, lr}
    82fc:	e1a05000 	mov	r5, r0
    8300:	ebffffc8 	bl	8228 <ck_first_hdr>
    8304:	e1a04000 	mov	r4, r0
    8308:	ea000002 	b	8318 <ck_ptr_is_alloced+0x20>
    830c:	e1a00004 	mov	r0, r4
    8310:	ebffffc8 	bl	8238 <ck_next_hdr>
    8314:	e1a04000 	mov	r4, r0
    8318:	e3540000 	cmp	r4, #0, 0
    831c:	0a00000b 	beq	8350 <ck_ptr_is_alloced+0x58>
    8320:	e1a01005 	mov	r1, r5
    8324:	e1a00004 	mov	r0, r4
    8328:	ebffffce 	bl	8268 <ck_ptr_in_block>
    832c:	e3500000 	cmp	r0, #0, 0
    8330:	0afffff5 	beq	830c <ck_ptr_is_alloced+0x14>
    8334:	e5943008 	ldr	r3, [r4, #8]
    8338:	e353000b 	cmp	r3, #11, 0
    833c:	1afffff2 	bne	830c <ck_ptr_is_alloced+0x14>
    8340:	e1a02004 	mov	r2, r4
    8344:	e1a01005 	mov	r1, r5
    8348:	e59f0008 	ldr	r0, [pc, #8]	; 8358 <ck_ptr_is_alloced+0x60>
    834c:	eb000307 	bl	8f70 <printk>
    8350:	e1a00004 	mov	r0, r4
    8354:	e8bd8070 	pop	{r4, r5, r6, pc}
    8358:	0000a200 	andeq	sl, r0, r0, lsl #4

0000835c <ck_check_redzones>:
    835c:	e92d4070 	push	{r4, r5, r6, lr}
    8360:	e1a05000 	mov	r5, r0
    8364:	e1a04001 	mov	r4, r1
    8368:	ebffffb8 	bl	8250 <ck_hdr_end>
    836c:	e1a06000 	mov	r6, r0
    8370:	e3a02080 	mov	r2, #128, 0	; 0x80
    8374:	e1a01004 	mov	r1, r4
    8378:	e2850028 	add	r0, r5, #40, 0	; 0x28
    837c:	eb0002d0 	bl	8ec4 <memcmp>
    8380:	e1a05000 	mov	r5, r0
    8384:	e3a02080 	mov	r2, #128, 0	; 0x80
    8388:	e1a01004 	mov	r1, r4
    838c:	e1a00006 	mov	r0, r6
    8390:	eb0002cb 	bl	8ec4 <memcmp>
    8394:	e1953000 	orrs	r3, r5, r0
    8398:	13a00001 	movne	r0, #1, 0
    839c:	03a00000 	moveq	r0, #0, 0
    83a0:	e8bd8070 	pop	{r4, r5, r6, pc}

000083a4 <ck_check_udata>:
    83a4:	e5903008 	ldr	r3, [r0, #8]
    83a8:	e353000c 	cmp	r3, #12, 0
    83ac:	1a00000b 	bne	83e0 <ck_check_udata+0x3c>
    83b0:	e3a03000 	mov	r3, #0, 0
    83b4:	e5902004 	ldr	r2, [r0, #4]
    83b8:	e1520003 	cmp	r2, r3
    83bc:	9a000005 	bls	83d8 <ck_check_udata+0x34>
    83c0:	e0802003 	add	r2, r0, r3
    83c4:	e5d220a8 	ldrb	r2, [r2, #168]	; 0xa8
    83c8:	e35200fe 	cmp	r2, #254, 0	; 0xfe
    83cc:	1a000005 	bne	83e8 <ck_check_udata+0x44>
    83d0:	e2833001 	add	r3, r3, #1, 0
    83d4:	eafffff6 	b	83b4 <ck_check_udata+0x10>
    83d8:	e3a00000 	mov	r0, #0, 0
    83dc:	e12fff1e 	bx	lr
    83e0:	e3a00000 	mov	r0, #0, 0
    83e4:	e12fff1e 	bx	lr
    83e8:	e3a00001 	mov	r0, #1, 0
    83ec:	e12fff1e 	bx	lr

000083f0 <ck_heap_errors>:
    83f0:	e92d4070 	push	{r4, r5, r6, lr}
    83f4:	e24dd080 	sub	sp, sp, #128, 0	; 0x80
    83f8:	e59f0088 	ldr	r0, [pc, #136]	; 8488 <ck_heap_errors+0x98>
    83fc:	eb0002db 	bl	8f70 <printk>
    8400:	ebffff88 	bl	8228 <ck_first_hdr>
    8404:	e1a04000 	mov	r4, r0
    8408:	e3a02080 	mov	r2, #128, 0	; 0x80
    840c:	e2801028 	add	r1, r0, #40, 0	; 0x28
    8410:	e1a0000d 	mov	r0, sp
    8414:	eb0002b7 	bl	8ef8 <memcpy>
    8418:	e1a06000 	mov	r6, r0
    841c:	e3a05000 	mov	r5, #0, 0
    8420:	ea000009 	b	844c <ck_heap_errors+0x5c>
    8424:	e59f0060 	ldr	r0, [pc, #96]	; 848c <ck_heap_errors+0x9c>
    8428:	eb0002d0 	bl	8f70 <printk>
    842c:	e2855001 	add	r5, r5, #1, 0
    8430:	ea00000c 	b	8468 <ck_heap_errors+0x78>
    8434:	e59f0054 	ldr	r0, [pc, #84]	; 8490 <ck_heap_errors+0xa0>
    8438:	eb0002cc 	bl	8f70 <printk>
    843c:	e2855001 	add	r5, r5, #1, 0
    8440:	e1a00004 	mov	r0, r4
    8444:	ebffff7b 	bl	8238 <ck_next_hdr>
    8448:	e1a04000 	mov	r4, r0
    844c:	e3540000 	cmp	r4, #0, 0
    8450:	0a000009 	beq	847c <ck_heap_errors+0x8c>
    8454:	e1a01006 	mov	r1, r6
    8458:	e1a00004 	mov	r0, r4
    845c:	ebffffbe 	bl	835c <ck_check_redzones>
    8460:	e3500000 	cmp	r0, #0, 0
    8464:	1affffee 	bne	8424 <ck_heap_errors+0x34>
    8468:	e1a00004 	mov	r0, r4
    846c:	ebffffcc 	bl	83a4 <ck_check_udata>
    8470:	e3500000 	cmp	r0, #0, 0
    8474:	0afffff1 	beq	8440 <ck_heap_errors+0x50>
    8478:	eaffffed 	b	8434 <ck_heap_errors+0x44>
    847c:	e1a00005 	mov	r0, r5
    8480:	e28dd080 	add	sp, sp, #128, 0	; 0x80
    8484:	e8bd8070 	pop	{r4, r5, r6, pc}
    8488:	0000a220 	andeq	sl, r0, r0, lsr #4
    848c:	0000a244 	andeq	sl, r0, r4, asr #4
    8490:	0000a268 	andeq	sl, r0, r8, ror #4

00008494 <ckfree>:
    8494:	e92d4030 	push	{r4, r5, lr}
    8498:	e24dd09c 	sub	sp, sp, #156, 0	; 0x9c
    849c:	e1a04000 	mov	r4, r0
    84a0:	e28d000c 	add	r0, sp, #12, 0
    84a4:	e880000e 	stm	r0, {r1, r2, r3}
    84a8:	e51430a0 	ldr	r3, [r4, #-160]	; 0xffffff60
    84ac:	e353000b 	cmp	r3, #11, 0
    84b0:	1a000018 	bne	8518 <ckfree+0x84>
    84b4:	e24450a8 	sub	r5, r4, #168, 0	; 0xa8
    84b8:	e59d3014 	ldr	r3, [sp, #20]
    84bc:	e59d2010 	ldr	r2, [sp, #16]
    84c0:	e59d100c 	ldr	r1, [sp, #12]
    84c4:	e59f0110 	ldr	r0, [pc, #272]	; 85dc <ckfree+0x148>
    84c8:	eb0002a8 	bl	8f70 <printk>
    84cc:	e1a02004 	mov	r2, r4
    84d0:	e514109c 	ldr	r1, [r4, #-156]	; 0xffffff64
    84d4:	e59f0104 	ldr	r0, [pc, #260]	; 85e0 <ckfree+0x14c>
    84d8:	eb0002a4 	bl	8f70 <printk>
    84dc:	e1a00004 	mov	r0, r4
    84e0:	ebffff84 	bl	82f8 <ck_ptr_is_alloced>
    84e4:	e3500000 	cmp	r0, #0, 0
    84e8:	0a000013 	beq	853c <ckfree+0xa8>
    84ec:	e3a0300c 	mov	r3, #12, 0
    84f0:	e50430a0 	str	r3, [r4, #-160]	; 0xffffff60
    84f4:	e3a03000 	mov	r3, #0, 0
    84f8:	e353007f 	cmp	r3, #127, 0	; 0x7f
    84fc:	8a000016 	bhi	855c <ckfree+0xc8>
    8500:	e28d2098 	add	r2, sp, #152, 0	; 0x98
    8504:	e0822003 	add	r2, r2, r3
    8508:	e3e01001 	mvn	r1, #1, 0
    850c:	e5421080 	strb	r1, [r2, #-128]	; 0xffffff80
    8510:	e2833001 	add	r3, r3, #1, 0
    8514:	eafffff7 	b	84f8 <ckfree+0x64>
    8518:	e59d3014 	ldr	r3, [sp, #20]
    851c:	e59d2010 	ldr	r2, [sp, #16]
    8520:	e59f00bc 	ldr	r0, [pc, #188]	; 85e4 <ckfree+0x150>
    8524:	eb000291 	bl	8f70 <printk>
    8528:	e51420a0 	ldr	r2, [r4, #-160]	; 0xffffff60
    852c:	e1a01004 	mov	r1, r4
    8530:	e59f00b0 	ldr	r0, [pc, #176]	; 85e8 <ckfree+0x154>
    8534:	eb00028d 	bl	8f70 <printk>
    8538:	eb00047f 	bl	973c <clean_reboot>
    853c:	e59f30a8 	ldr	r3, [pc, #168]	; 85ec <ckfree+0x158>
    8540:	e58d3000 	str	r3, [sp]
    8544:	e3a03097 	mov	r3, #151, 0	; 0x97
    8548:	e59f20a0 	ldr	r2, [pc, #160]	; 85f0 <ckfree+0x15c>
    854c:	e59f10a0 	ldr	r1, [pc, #160]	; 85f4 <ckfree+0x160>
    8550:	e59f00a0 	ldr	r0, [pc, #160]	; 85f8 <ckfree+0x164>
    8554:	eb000285 	bl	8f70 <printk>
    8558:	eb000477 	bl	973c <clean_reboot>
    855c:	e28d1018 	add	r1, sp, #24, 0
    8560:	e1a00005 	mov	r0, r5
    8564:	ebffff7c 	bl	835c <ck_check_redzones>
    8568:	e3500000 	cmp	r0, #0, 0
    856c:	1a000009 	bne	8598 <ckfree+0x104>
    8570:	e51420a4 	ldr	r2, [r4, #-164]	; 0xffffff5c
    8574:	e3a010fe 	mov	r1, #254, 0	; 0xfe
    8578:	e1a00004 	mov	r0, r4
    857c:	eb000275 	bl	8f58 <memset>
    8580:	e1a00004 	mov	r0, r4
    8584:	ebffff5b 	bl	82f8 <ck_ptr_is_alloced>
    8588:	e3500000 	cmp	r0, #0, 0
    858c:	1a00000a 	bne	85bc <ckfree+0x128>
    8590:	e28dd09c 	add	sp, sp, #156, 0	; 0x9c
    8594:	e8bd8030 	pop	{r4, r5, pc}
    8598:	e58d5004 	str	r5, [sp, #4]
    859c:	e514309c 	ldr	r3, [r4, #-156]	; 0xffffff64
    85a0:	e58d3000 	str	r3, [sp]
    85a4:	e3a0309f 	mov	r3, #159, 0	; 0x9f
    85a8:	e59f2040 	ldr	r2, [pc, #64]	; 85f0 <ckfree+0x15c>
    85ac:	e59f1040 	ldr	r1, [pc, #64]	; 85f4 <ckfree+0x160>
    85b0:	e59f0044 	ldr	r0, [pc, #68]	; 85fc <ckfree+0x168>
    85b4:	eb00026d 	bl	8f70 <printk>
    85b8:	eb00045f 	bl	973c <clean_reboot>
    85bc:	e59f303c 	ldr	r3, [pc, #60]	; 8600 <ckfree+0x16c>
    85c0:	e58d3000 	str	r3, [sp]
    85c4:	e3a030a2 	mov	r3, #162, 0	; 0xa2
    85c8:	e59f2020 	ldr	r2, [pc, #32]	; 85f0 <ckfree+0x15c>
    85cc:	e59f1020 	ldr	r1, [pc, #32]	; 85f4 <ckfree+0x160>
    85d0:	e59f0020 	ldr	r0, [pc, #32]	; 85f8 <ckfree+0x164>
    85d4:	eb000265 	bl	8f70 <printk>
    85d8:	eb000457 	bl	973c <clean_reboot>
    85dc:	0000a2d4 	ldrdeq	sl, [r0], -r4
    85e0:	0000a2e0 	andeq	sl, r0, r0, ror #5
    85e4:	0000a288 	andeq	sl, r0, r8, lsl #5
    85e8:	0000a2a0 	andeq	sl, r0, r0, lsr #5
    85ec:	0000a300 	andeq	sl, r0, r0, lsl #6
    85f0:	0000a3c4 	andeq	sl, r0, r4, asr #7
    85f4:	0000a1d8 	ldrdeq	sl, [r0], -r8
    85f8:	0000a08c 	andeq	sl, r0, ip, lsl #1
    85fc:	0000a320 	andeq	sl, r0, r0, lsr #6
    8600:	0000a378 	andeq	sl, r0, r8, ror r3

00008604 <ckalloc>:
    8604:	e92d4070 	push	{r4, r5, r6, lr}
    8608:	e24dd010 	sub	sp, sp, #16, 0
    860c:	e1a06000 	mov	r6, r0
    8610:	e28d5004 	add	r5, sp, #4, 0
    8614:	e885000e 	stm	r5, {r1, r2, r3}
    8618:	e2800f4a 	add	r0, r0, #296	; 0x128
    861c:	eb0001fd 	bl	8e18 <kr_malloc>
    8620:	e1a04000 	mov	r4, r0
    8624:	e3a020a8 	mov	r2, #168, 0	; 0xa8
    8628:	e3a01000 	mov	r1, #0, 0
    862c:	eb000249 	bl	8f58 <memset>
    8630:	e3a02080 	mov	r2, #128, 0	; 0x80
    8634:	e3a010fe 	mov	r1, #254, 0	; 0xfe
    8638:	e2840028 	add	r0, r4, #40, 0	; 0x28
    863c:	eb000245 	bl	8f58 <memset>
    8640:	e5846004 	str	r6, [r4, #4]
    8644:	e3a0300b 	mov	r3, #11, 0
    8648:	e5843008 	str	r3, [r4, #8]
    864c:	e2843010 	add	r3, r4, #16, 0
    8650:	e8950007 	ldm	r5, {r0, r1, r2}
    8654:	e8830007 	stm	r3, {r0, r1, r2}
    8658:	e3a03000 	mov	r3, #0, 0
    865c:	e5843000 	str	r3, [r4]
    8660:	e1c432b4 	strh	r3, [r4, #36]	; 0x24
    8664:	e1a00004 	mov	r0, r4
    8668:	ebfffef8 	bl	8250 <ck_hdr_end>
    866c:	e3a02080 	mov	r2, #128, 0	; 0x80
    8670:	e3a010fe 	mov	r1, #254, 0	; 0xfe
    8674:	eb000237 	bl	8f58 <memset>
    8678:	e59f2050 	ldr	r2, [pc, #80]	; 86d0 <ckalloc+0xcc>
    867c:	e5923000 	ldr	r3, [r2]
    8680:	e584300c 	str	r3, [r4, #12]
    8684:	e2833001 	add	r3, r3, #1, 0
    8688:	e5823000 	str	r3, [r2]
    868c:	e59d300c 	ldr	r3, [sp, #12]
    8690:	e59d2008 	ldr	r2, [sp, #8]
    8694:	e59d1004 	ldr	r1, [sp, #4]
    8698:	e59f0034 	ldr	r0, [pc, #52]	; 86d4 <ckalloc+0xd0>
    869c:	eb000233 	bl	8f70 <printk>
    86a0:	e28450a8 	add	r5, r4, #168, 0	; 0xa8
    86a4:	e1a02005 	mov	r2, r5
    86a8:	e594100c 	ldr	r1, [r4, #12]
    86ac:	e59f0024 	ldr	r0, [pc, #36]	; 86d8 <ckalloc+0xd4>
    86b0:	eb00022e 	bl	8f70 <printk>
    86b4:	e1a01004 	mov	r1, r4
    86b8:	e59f301c 	ldr	r3, [pc, #28]	; 86dc <ckalloc+0xd8>
    86bc:	e5930004 	ldr	r0, [r3, #4]
    86c0:	ebfffebb 	bl	81b4 <list_append>
    86c4:	e1a00005 	mov	r0, r5
    86c8:	e28dd010 	add	sp, sp, #16, 0
    86cc:	e8bd8070 	pop	{r4, r5, r6, pc}
    86d0:	0000ab14 	andeq	sl, r0, r4, lsl fp
    86d4:	0000a2d4 	ldrdeq	sl, [r0], -r4
    86d8:	0000a394 	muleq	r0, r4, r3
    86dc:	0000ab30 	andeq	sl, r0, r0, lsr fp

000086e0 <in_heap>:
    86e0:	e59f3030 	ldr	r3, [pc, #48]	; 8718 <in_heap+0x38>
    86e4:	e5933000 	ldr	r3, [r3]
    86e8:	e1530000 	cmp	r3, r0
    86ec:	8a000005 	bhi	8708 <in_heap+0x28>
    86f0:	e59f3020 	ldr	r3, [pc, #32]	; 8718 <in_heap+0x38>
    86f4:	e5933004 	ldr	r3, [r3, #4]
    86f8:	e1530000 	cmp	r3, r0
    86fc:	9a000003 	bls	8710 <in_heap+0x30>
    8700:	e3a00001 	mov	r0, #1, 0
    8704:	e12fff1e 	bx	lr
    8708:	e3a00000 	mov	r0, #0, 0
    870c:	e12fff1e 	bx	lr
    8710:	e3a00000 	mov	r0, #0, 0
    8714:	e12fff1e 	bx	lr
    8718:	0000ab38 	andeq	sl, r0, r8, lsr fp

0000871c <sweep_leak>:
    871c:	e92d41f0 	push	{r4, r5, r6, r7, r8, lr}
    8720:	e1a06000 	mov	r6, r0
    8724:	e59f0144 	ldr	r0, [pc, #324]	; 8870 <sweep_leak+0x154>
    8728:	eb000210 	bl	8f70 <printk>
    872c:	e59f0140 	ldr	r0, [pc, #320]	; 8874 <sweep_leak+0x158>
    8730:	eb00020e 	bl	8f70 <printk>
    8734:	ebfffebb 	bl	8228 <ck_first_hdr>
    8738:	e1a04000 	mov	r4, r0
    873c:	e3a07000 	mov	r7, #0, 0
    8740:	e1a08007 	mov	r8, r7
    8744:	e1a05007 	mov	r5, r7
    8748:	ea00002a 	b	87f8 <sweep_leak+0xdc>
    874c:	e3a00000 	mov	r0, #0, 0
    8750:	e351000b 	cmp	r1, #11, 0
    8754:	0a00000f 	beq	8798 <sweep_leak+0x7c>
    8758:	e1130000 	tst	r3, r0
    875c:	1a000018 	bne	87c4 <sweep_leak+0xa8>
    8760:	e3560000 	cmp	r6, #0, 0
    8764:	1a00001b 	bne	87d8 <sweep_leak+0xbc>
    8768:	e5943020 	ldr	r3, [r4, #32]
    876c:	e3530000 	cmp	r3, #0, 0
    8770:	0a000018 	beq	87d8 <sweep_leak+0xbc>
    8774:	e351000b 	cmp	r1, #11, 0
    8778:	0a000016 	beq	87d8 <sweep_leak+0xbc>
    877c:	e1a01004 	mov	r1, r4
    8780:	e59f00f0 	ldr	r0, [pc, #240]	; 8878 <sweep_leak+0x15c>
    8784:	eb0001f9 	bl	8f70 <printk>
    8788:	e2877001 	add	r7, r7, #1, 0
    878c:	ea000011 	b	87d8 <sweep_leak+0xbc>
    8790:	e3a00001 	mov	r0, #1, 0
    8794:	eaffffed 	b	8750 <sweep_leak+0x34>
    8798:	e1d4c2b4 	ldrh	ip, [r4, #36]	; 0x24
    879c:	e35c0000 	cmp	ip, #0, 0
    87a0:	1affffec 	bne	8758 <sweep_leak+0x3c>
    87a4:	e5943020 	ldr	r3, [r4, #32]
    87a8:	e1a01004 	mov	r1, r4
    87ac:	e59f00c8 	ldr	r0, [pc, #200]	; 887c <sweep_leak+0x160>
    87b0:	eb0001ee 	bl	8f70 <printk>
    87b4:	e3a03001 	mov	r3, #1, 0
    87b8:	e1c432b6 	strh	r3, [r4, #38]	; 0x26
    87bc:	e0888003 	add	r8, r8, r3
    87c0:	ea000004 	b	87d8 <sweep_leak+0xbc>
    87c4:	e5943020 	ldr	r3, [r4, #32]
    87c8:	e1a01004 	mov	r1, r4
    87cc:	e59f00ac 	ldr	r0, [pc, #172]	; 8880 <sweep_leak+0x164>
    87d0:	eb0001e6 	bl	8f70 <printk>
    87d4:	e2877001 	add	r7, r7, #1, 0
    87d8:	e5943020 	ldr	r3, [r4, #32]
    87dc:	e594201c 	ldr	r2, [r4, #28]
    87e0:	e1a01004 	mov	r1, r4
    87e4:	e59f0098 	ldr	r0, [pc, #152]	; 8884 <sweep_leak+0x168>
    87e8:	eb0001e0 	bl	8f70 <printk>
    87ec:	e1a00004 	mov	r0, r4
    87f0:	ebfffe90 	bl	8238 <ck_next_hdr>
    87f4:	e1a04000 	mov	r4, r0
    87f8:	e3540000 	cmp	r4, #0, 0
    87fc:	0a00000b 	beq	8830 <sweep_leak+0x114>
    8800:	e2855001 	add	r5, r5, #1, 0
    8804:	e5941008 	ldr	r1, [r4, #8]
    8808:	e351000b 	cmp	r1, #11, 0
    880c:	13a03000 	movne	r3, #0, 0
    8810:	03a03001 	moveq	r3, #1, 0
    8814:	e594201c 	ldr	r2, [r4, #28]
    8818:	e3520000 	cmp	r2, #0, 0
    881c:	1affffca 	bne	874c <sweep_leak+0x30>
    8820:	e3560000 	cmp	r6, #0, 0
    8824:	1affffd9 	bne	8790 <sweep_leak+0x74>
    8828:	e3a00000 	mov	r0, #0, 0
    882c:	eaffffc7 	b	8750 <sweep_leak+0x34>
    8830:	e1a01005 	mov	r1, r5
    8834:	e59f004c 	ldr	r0, [pc, #76]	; 8888 <sweep_leak+0x16c>
    8838:	eb0001cc 	bl	8f70 <printk>
    883c:	e1983007 	orrs	r3, r8, r7
    8840:	1a000005 	bne	885c <sweep_leak+0x140>
    8844:	e59f0040 	ldr	r0, [pc, #64]	; 888c <sweep_leak+0x170>
    8848:	eb0001c8 	bl	8f70 <printk>
    884c:	e59f003c 	ldr	r0, [pc, #60]	; 8890 <sweep_leak+0x174>
    8850:	eb0001c6 	bl	8f70 <printk>
    8854:	e0880007 	add	r0, r8, r7
    8858:	e8bd81f0 	pop	{r4, r5, r6, r7, r8, pc}
    885c:	e1a02007 	mov	r2, r7
    8860:	e1a01008 	mov	r1, r8
    8864:	e59f0028 	ldr	r0, [pc, #40]	; 8894 <sweep_leak+0x178>
    8868:	eb0001c0 	bl	8f70 <printk>
    886c:	eafffff6 	b	884c <sweep_leak+0x130>
    8870:	0000a3cc 	andeq	sl, r0, ip, asr #7
    8874:	0000a408 	andeq	sl, r0, r8, lsl #8
    8878:	0000a490 	muleq	r0, r0, r4
    887c:	0000a420 	andeq	sl, r0, r0, lsr #8
    8880:	0000a458 	andeq	sl, r0, r8, asr r4
    8884:	0000a4c8 	andeq	sl, r0, r8, asr #9
    8888:	0000a504 	andeq	sl, r0, r4, lsl #10
    888c:	0000a524 	andeq	sl, r0, r4, lsr #10
    8890:	0000a57c 	andeq	sl, r0, ip, ror r5
    8894:	0000a54c 	andeq	sl, r0, ip, asr #10

00008898 <sweep_free>:
    8898:	e92d41f0 	push	{r4, r5, r6, r7, r8, lr}
    889c:	e59f0094 	ldr	r0, [pc, #148]	; 8938 <sweep_free+0xa0>
    88a0:	eb0001b2 	bl	8f70 <printk>
    88a4:	e59f0090 	ldr	r0, [pc, #144]	; 893c <sweep_free+0xa4>
    88a8:	eb0001b0 	bl	8f70 <printk>
    88ac:	ebfffe5d 	bl	8228 <ck_first_hdr>
    88b0:	e1a04000 	mov	r4, r0
    88b4:	e3a06000 	mov	r6, #0, 0
    88b8:	e1a07006 	mov	r7, r6
    88bc:	e1a05006 	mov	r5, r6
    88c0:	ea00000b 	b	88f4 <sweep_free+0x5c>
    88c4:	e3a0300c 	mov	r3, #12, 0
    88c8:	e5843008 	str	r3, [r4, #8]
    88cc:	e2877001 	add	r7, r7, #1, 0
    88d0:	e5943004 	ldr	r3, [r4, #4]
    88d4:	e0866003 	add	r6, r6, r3
    88d8:	e1a02004 	mov	r2, r4
    88dc:	e594100c 	ldr	r1, [r4, #12]
    88e0:	e59f0058 	ldr	r0, [pc, #88]	; 8940 <sweep_free+0xa8>
    88e4:	eb0001a1 	bl	8f70 <printk>
    88e8:	e1a00004 	mov	r0, r4
    88ec:	ebfffe51 	bl	8238 <ck_next_hdr>
    88f0:	e1a04000 	mov	r4, r0
    88f4:	e3540000 	cmp	r4, #0, 0
    88f8:	0a000007 	beq	891c <sweep_free+0x84>
    88fc:	e2855001 	add	r5, r5, #1, 0
    8900:	e5943008 	ldr	r3, [r4, #8]
    8904:	e353000b 	cmp	r3, #11, 0
    8908:	1afffff6 	bne	88e8 <sweep_free+0x50>
    890c:	e1d432b4 	ldrh	r3, [r4, #36]	; 0x24
    8910:	e3530001 	cmp	r3, #1, 0
    8914:	0afffff3 	beq	88e8 <sweep_free+0x50>
    8918:	eaffffe9 	b	88c4 <sweep_free+0x2c>
    891c:	e1a03006 	mov	r3, r6
    8920:	e1a02007 	mov	r2, r7
    8924:	e1a01005 	mov	r1, r5
    8928:	e59f0014 	ldr	r0, [pc, #20]	; 8944 <sweep_free+0xac>
    892c:	eb00018f 	bl	8f70 <printk>
    8930:	e1a00006 	mov	r0, r6
    8934:	e8bd81f0 	pop	{r4, r5, r6, r7, r8, pc}
    8938:	0000a3cc 	andeq	sl, r0, ip, asr #7
    893c:	0000a5b8 			; <UNDEFINED> instruction: 0x0000a5b8
    8940:	0000a5c8 	andeq	sl, r0, r8, asr #11
    8944:	0000a600 	andeq	sl, r0, r0, lsl #12

00008948 <is_ptr>:
    8948:	e92d4010 	push	{r4, lr}
    894c:	e1a04000 	mov	r4, r0
    8950:	ebffff62 	bl	86e0 <in_heap>
    8954:	e3500000 	cmp	r0, #0, 0
    8958:	0a000002 	beq	8968 <is_ptr+0x20>
    895c:	e1a00004 	mov	r0, r4
    8960:	ebfffe4e 	bl	82a0 <ck_ptr_to_hdr>
    8964:	e8bd8010 	pop	{r4, pc}
    8968:	e3a00000 	mov	r0, #0, 0
    896c:	e8bd8010 	pop	{r4, pc}

00008970 <mark>:
    8970:	e92d40f0 	push	{r4, r5, r6, r7, lr}
    8974:	e24dd00c 	sub	sp, sp, #12, 0
    8978:	e1500001 	cmp	r0, r1
    897c:	2a000007 	bcs	89a0 <mark+0x30>
    8980:	e1a06000 	mov	r6, r0
    8984:	e3100003 	tst	r0, #3, 0
    8988:	1a00000c 	bne	89c0 <mark+0x50>
    898c:	e2114003 	ands	r4, r1, #3, 0
    8990:	1a000012 	bne	89e0 <mark+0x70>
    8994:	e0411000 	sub	r1, r1, r0
    8998:	e1a05141 	asr	r5, r1, #2
    899c:	ea00001e 	b	8a1c <mark+0xac>
    89a0:	e59f30e8 	ldr	r3, [pc, #232]	; 8a90 <mark+0x120>
    89a4:	e58d3000 	str	r3, [sp]
    89a8:	e3a0304a 	mov	r3, #74, 0	; 0x4a
    89ac:	e59f20e0 	ldr	r2, [pc, #224]	; 8a94 <mark+0x124>
    89b0:	e59f10e0 	ldr	r1, [pc, #224]	; 8a98 <mark+0x128>
    89b4:	e59f00e0 	ldr	r0, [pc, #224]	; 8a9c <mark+0x12c>
    89b8:	eb00016c 	bl	8f70 <printk>
    89bc:	eb00035e 	bl	973c <clean_reboot>
    89c0:	e59f30d8 	ldr	r3, [pc, #216]	; 8aa0 <mark+0x130>
    89c4:	e58d3000 	str	r3, [sp]
    89c8:	e3a0304c 	mov	r3, #76, 0	; 0x4c
    89cc:	e59f20c0 	ldr	r2, [pc, #192]	; 8a94 <mark+0x124>
    89d0:	e59f10c0 	ldr	r1, [pc, #192]	; 8a98 <mark+0x128>
    89d4:	e59f00c0 	ldr	r0, [pc, #192]	; 8a9c <mark+0x12c>
    89d8:	eb000164 	bl	8f70 <printk>
    89dc:	eb000356 	bl	973c <clean_reboot>
    89e0:	e59f30bc 	ldr	r3, [pc, #188]	; 8aa4 <mark+0x134>
    89e4:	e58d3000 	str	r3, [sp]
    89e8:	e3a0304d 	mov	r3, #77, 0	; 0x4d
    89ec:	e59f20a0 	ldr	r2, [pc, #160]	; 8a94 <mark+0x124>
    89f0:	e59f10a0 	ldr	r1, [pc, #160]	; 8a98 <mark+0x128>
    89f4:	e59f00a0 	ldr	r0, [pc, #160]	; 8a9c <mark+0x12c>
    89f8:	eb00015c 	bl	8f70 <printk>
    89fc:	eb00034e 	bl	973c <clean_reboot>
    8a00:	e593201c 	ldr	r2, [r3, #28]
    8a04:	e2822001 	add	r2, r2, #1, 0
    8a08:	e583201c 	str	r2, [r3, #28]
    8a0c:	e5931004 	ldr	r1, [r3, #4]
    8a10:	e0801001 	add	r1, r0, r1
    8a14:	ebffffd5 	bl	8970 <mark>
    8a18:	e2844001 	add	r4, r4, #1, 0
    8a1c:	e1540005 	cmp	r4, r5
    8a20:	2a000018 	bcs	8a88 <mark+0x118>
    8a24:	e1a07104 	lsl	r7, r4, #2
    8a28:	e7960104 	ldr	r0, [r6, r4, lsl #2]
    8a2c:	ebffffc5 	bl	8948 <is_ptr>
    8a30:	e2503000 	subs	r3, r0, #0, 0
    8a34:	0afffff7 	beq	8a18 <mark+0xa8>
    8a38:	e1d322b4 	ldrh	r2, [r3, #36]	; 0x24
    8a3c:	e3520000 	cmp	r2, #0, 0
    8a40:	1afffff4 	bne	8a18 <mark+0xa8>
    8a44:	e3a02001 	mov	r2, #1, 0
    8a48:	e1c322b4 	strh	r2, [r3, #36]	; 0x24
    8a4c:	e28300a8 	add	r0, r3, #168, 0	; 0xa8
    8a50:	e7962007 	ldr	r2, [r6, r7]
    8a54:	e1500002 	cmp	r0, r2
    8a58:	0affffe8 	beq	8a00 <mark+0x90>
    8a5c:	e28310b0 	add	r1, r3, #176, 0	; 0xb0
    8a60:	e1520001 	cmp	r2, r1
    8a64:	9affffe8 	bls	8a0c <mark+0x9c>
    8a68:	e5931004 	ldr	r1, [r3, #4]
    8a6c:	e28110b0 	add	r1, r1, #176, 0	; 0xb0
    8a70:	e0831001 	add	r1, r3, r1
    8a74:	e1520001 	cmp	r2, r1
    8a78:	95932020 	ldrls	r2, [r3, #32]
    8a7c:	92822001 	addls	r2, r2, #1, 0
    8a80:	95832020 	strls	r2, [r3, #32]
    8a84:	eaffffe0 	b	8a0c <mark+0x9c>
    8a88:	e28dd00c 	add	sp, sp, #12, 0
    8a8c:	e8bd80f0 	pop	{r4, r5, r6, r7, pc}
    8a90:	0000a63c 	andeq	sl, r0, ip, lsr r6
    8a94:	0000a764 	andeq	sl, r0, r4, ror #14
    8a98:	0000a634 	andeq	sl, r0, r4, lsr r6
    8a9c:	0000a08c 	andeq	sl, r0, ip, lsl #1
    8aa0:	0000a640 	andeq	sl, r0, r0, asr #12
    8aa4:	0000a650 	andeq	sl, r0, r0, asr r6

00008aa8 <mark_all>:
    8aa8:	e52de004 	push	{lr}		; (str lr, [sp, #-4]!)
    8aac:	e24dd044 	sub	sp, sp, #68, 0	; 0x44
    8ab0:	ebfffddc 	bl	8228 <ck_first_hdr>
    8ab4:	e3500000 	cmp	r0, #0, 0
    8ab8:	0a000005 	beq	8ad4 <mark_all+0x2c>
    8abc:	e3a03000 	mov	r3, #0, 0
    8ac0:	e5803020 	str	r3, [r0, #32]
    8ac4:	e580301c 	str	r3, [r0, #28]
    8ac8:	e1c032b4 	strh	r3, [r0, #36]	; 0x24
    8acc:	ebfffdd9 	bl	8238 <ck_next_hdr>
    8ad0:	eafffff7 	b	8ab4 <mark_all+0xc>
    8ad4:	e1a0000d 	mov	r0, sp
    8ad8:	eb00007d 	bl	8cd4 <dump_regs>
    8adc:	e3a03000 	mov	r3, #0, 0
    8ae0:	e58d3000 	str	r3, [sp]
    8ae4:	e58d3004 	str	r3, [sp, #4]
    8ae8:	e58d3008 	str	r3, [sp, #8]
    8aec:	e58d300c 	str	r3, [sp, #12]
    8af0:	e28d1040 	add	r1, sp, #64, 0	; 0x40
    8af4:	e1a0000d 	mov	r0, sp
    8af8:	ebffff9c 	bl	8970 <mark>
    8afc:	e3a01302 	mov	r1, #134217728	; 0x8000000
    8b00:	e59d0034 	ldr	r0, [sp, #52]	; 0x34
    8b04:	ebffff99 	bl	8970 <mark>
    8b08:	e59f1018 	ldr	r1, [pc, #24]	; 8b28 <mark_all+0x80>
    8b0c:	e59f0018 	ldr	r0, [pc, #24]	; 8b2c <mark_all+0x84>
    8b10:	ebffff96 	bl	8970 <mark>
    8b14:	e59f1014 	ldr	r1, [pc, #20]	; 8b30 <mark_all+0x88>
    8b18:	e59f0014 	ldr	r0, [pc, #20]	; 8b34 <mark_all+0x8c>
    8b1c:	ebffff93 	bl	8970 <mark>
    8b20:	e28dd044 	add	sp, sp, #68, 0	; 0x44
    8b24:	e49df004 	pop	{pc}		; (ldr pc, [sp], #4)
    8b28:	0000af60 	andeq	sl, r0, r0, ror #30
    8b2c:	0000ab30 	andeq	sl, r0, r0, lsr fp
    8b30:	0000ab2c 	andeq	sl, r0, ip, lsr #22
    8b34:	0000ab14 	andeq	sl, r0, r4, lsl fp

00008b38 <sbrk>:
    8b38:	e92d4030 	push	{r4, r5, lr}
    8b3c:	e24dd00c 	sub	sp, sp, #12, 0
    8b40:	e1a04000 	mov	r4, r0
    8b44:	e59f0070 	ldr	r0, [pc, #112]	; 8bbc <sbrk+0x84>
    8b48:	eb000108 	bl	8f70 <printk>
    8b4c:	e3540000 	cmp	r4, #0, 0
    8b50:	da000007 	ble	8b74 <sbrk+0x3c>
    8b54:	e59f3064 	ldr	r3, [pc, #100]	; 8bc0 <sbrk+0x88>
    8b58:	e5933008 	ldr	r3, [r3, #8]
    8b5c:	e3530000 	cmp	r3, #0, 0
    8b60:	0a00000b 	beq	8b94 <sbrk+0x5c>
    8b64:	e1a00004 	mov	r0, r4
    8b68:	eb00043a 	bl	9c58 <kmalloc>
    8b6c:	e28dd00c 	add	sp, sp, #12, 0
    8b70:	e8bd8030 	pop	{r4, r5, pc}
    8b74:	e59f3048 	ldr	r3, [pc, #72]	; 8bc4 <sbrk+0x8c>
    8b78:	e58d3000 	str	r3, [sp]
    8b7c:	e3a03015 	mov	r3, #21, 0
    8b80:	e59f2040 	ldr	r2, [pc, #64]	; 8bc8 <sbrk+0x90>
    8b84:	e59f1040 	ldr	r1, [pc, #64]	; 8bcc <sbrk+0x94>
    8b88:	e59f0040 	ldr	r0, [pc, #64]	; 8bd0 <sbrk+0x98>
    8b8c:	eb0000f7 	bl	8f70 <printk>
    8b90:	eb0002e9 	bl	973c <clean_reboot>
    8b94:	e59f5024 	ldr	r5, [pc, #36]	; 8bc0 <sbrk+0x88>
    8b98:	e3a00601 	mov	r0, #1048576	; 0x100000
    8b9c:	e5850000 	str	r0, [r5]
    8ba0:	e3a03602 	mov	r3, #2097152	; 0x200000
    8ba4:	e5853004 	str	r3, [r5, #4]
    8ba8:	e1a01000 	mov	r1, r0
    8bac:	eb0003c6 	bl	9acc <kmalloc_init_set_start>
    8bb0:	e3a03001 	mov	r3, #1, 0
    8bb4:	e5853008 	str	r3, [r5, #8]
    8bb8:	eaffffe9 	b	8b64 <sbrk+0x2c>
    8bbc:	0000a660 	andeq	sl, r0, r0, ror #12
    8bc0:	0000ab38 	andeq	sl, r0, r8, lsr fp
    8bc4:	0000a670 	andeq	sl, r0, r0, ror r6
    8bc8:	0000a76c 	andeq	sl, r0, ip, ror #14
    8bcc:	0000a634 	andeq	sl, r0, r4, lsr r6
    8bd0:	0000a08c 	andeq	sl, r0, ip, lsl #1

00008bd4 <ck_find_leaks>:
    8bd4:	e92d4010 	push	{r4, lr}
    8bd8:	e1a04000 	mov	r4, r0
    8bdc:	e59f0018 	ldr	r0, [pc, #24]	; 8bfc <ck_find_leaks+0x28>
    8be0:	eb0000e2 	bl	8f70 <printk>
    8be4:	ebffffaf 	bl	8aa8 <mark_all>
    8be8:	e59f0010 	ldr	r0, [pc, #16]	; 8c00 <ck_find_leaks+0x2c>
    8bec:	eb0000df 	bl	8f70 <printk>
    8bf0:	e1a00004 	mov	r0, r4
    8bf4:	ebfffec8 	bl	871c <sweep_leak>
    8bf8:	e8bd8010 	pop	{r4, pc}
    8bfc:	0000a680 	andeq	sl, r0, r0, lsl #13
    8c00:	0000a694 	muleq	r0, r4, r6

00008c04 <check_no_leak>:
    8c04:	e92d4010 	push	{r4, lr}
    8c08:	e3a00001 	mov	r0, #1, 0
    8c0c:	ebfffff0 	bl	8bd4 <ck_find_leaks>
    8c10:	e3500000 	cmp	r0, #0, 0
    8c14:	1a000002 	bne	8c24 <check_no_leak+0x20>
    8c18:	e59f001c 	ldr	r0, [pc, #28]	; 8c3c <check_no_leak+0x38>
    8c1c:	eb0000d3 	bl	8f70 <printk>
    8c20:	e8bd8010 	pop	{r4, pc}
    8c24:	e3a030d9 	mov	r3, #217, 0	; 0xd9
    8c28:	e59f2010 	ldr	r2, [pc, #16]	; 8c40 <check_no_leak+0x3c>
    8c2c:	e59f1010 	ldr	r1, [pc, #16]	; 8c44 <check_no_leak+0x40>
    8c30:	e59f0010 	ldr	r0, [pc, #16]	; 8c48 <check_no_leak+0x44>
    8c34:	eb0000cd 	bl	8f70 <printk>
    8c38:	eb0002bf 	bl	973c <clean_reboot>
    8c3c:	0000a6c8 	andeq	sl, r0, r8, asr #13
    8c40:	0000a774 	andeq	sl, r0, r4, ror r7
    8c44:	0000a634 	andeq	sl, r0, r4, lsr r6
    8c48:	0000a69c 	muleq	r0, ip, r6

00008c4c <check_should_leak>:
    8c4c:	e92d4010 	push	{r4, lr}
    8c50:	e3a00001 	mov	r0, #1, 0
    8c54:	ebffffde 	bl	8bd4 <ck_find_leaks>
    8c58:	e2504000 	subs	r4, r0, #0, 0
    8c5c:	0a000004 	beq	8c74 <check_should_leak+0x28>
    8c60:	e1a01004 	mov	r1, r4
    8c64:	e59f0020 	ldr	r0, [pc, #32]	; 8c8c <check_should_leak+0x40>
    8c68:	eb0000c0 	bl	8f70 <printk>
    8c6c:	e1a00004 	mov	r0, r4
    8c70:	e8bd8010 	pop	{r4, pc}
    8c74:	e3a030e7 	mov	r3, #231, 0	; 0xe7
    8c78:	e59f2010 	ldr	r2, [pc, #16]	; 8c90 <check_should_leak+0x44>
    8c7c:	e59f1010 	ldr	r1, [pc, #16]	; 8c94 <check_should_leak+0x48>
    8c80:	e59f0010 	ldr	r0, [pc, #16]	; 8c98 <check_should_leak+0x4c>
    8c84:	eb0000b9 	bl	8f70 <printk>
    8c88:	eb0002ab 	bl	973c <clean_reboot>
    8c8c:	0000a710 	andeq	sl, r0, r0, lsl r7
    8c90:	0000a784 	andeq	sl, r0, r4, lsl #15
    8c94:	0000a634 	andeq	sl, r0, r4, lsr r6
    8c98:	0000a6e8 	andeq	sl, r0, r8, ror #13

00008c9c <ck_gc>:
    8c9c:	e92d4010 	push	{r4, lr}
    8ca0:	ebffff80 	bl	8aa8 <mark_all>
    8ca4:	ebfffefb 	bl	8898 <sweep_free>
    8ca8:	e8bd8010 	pop	{r4, pc}

00008cac <implement_this>:
    8cac:	e92d4010 	push	{r4, lr}
    8cb0:	e3a03e11 	mov	r3, #272	; 0x110
    8cb4:	e59f200c 	ldr	r2, [pc, #12]	; 8cc8 <implement_this+0x1c>
    8cb8:	e59f100c 	ldr	r1, [pc, #12]	; 8ccc <implement_this+0x20>
    8cbc:	e59f000c 	ldr	r0, [pc, #12]	; 8cd0 <implement_this+0x24>
    8cc0:	eb0000aa 	bl	8f70 <printk>
    8cc4:	eb00029c 	bl	973c <clean_reboot>
    8cc8:	0000a798 	muleq	r0, r8, r7
    8ccc:	0000a634 	andeq	sl, r0, r4, lsr r6
    8cd0:	0000a734 	andeq	sl, r0, r4, lsr r7

00008cd4 <dump_regs>:
    8cd4:	e5800000 	str	r0, [r0]
    8cd8:	e5801004 	str	r1, [r0, #4]
    8cdc:	e5802008 	str	r2, [r0, #8]
    8ce0:	e580300c 	str	r3, [r0, #12]
    8ce4:	e5804010 	str	r4, [r0, #16]
    8ce8:	e5805014 	str	r5, [r0, #20]
    8cec:	e5806018 	str	r6, [r0, #24]
    8cf0:	e580701c 	str	r7, [r0, #28]
    8cf4:	e5808020 	str	r8, [r0, #32]
    8cf8:	e5809024 	str	r9, [r0, #36]	; 0x24
    8cfc:	e580a028 	str	sl, [r0, #40]	; 0x28
    8d00:	e580b02c 	str	fp, [r0, #44]	; 0x2c
    8d04:	e580c030 	str	ip, [r0, #48]	; 0x30
    8d08:	e580d034 	str	sp, [r0, #52]	; 0x34
    8d0c:	e580e038 	str	lr, [r0, #56]	; 0x38
    8d10:	e580f03c 	str	pc, [r0, #60]	; 0x3c
    8d14:	e12fff1e 	bx	lr

00008d18 <kr_free>:
    8d18:	e52de004 	push	{lr}		; (str lr, [sp, #-4]!)
    8d1c:	e2401008 	sub	r1, r0, #8, 0
    8d20:	e59f30a8 	ldr	r3, [pc, #168]	; 8dd0 <kr_free+0xb8>
    8d24:	e5933000 	ldr	r3, [r3]
    8d28:	ea000000 	b	8d30 <kr_free+0x18>
    8d2c:	e1a03002 	mov	r3, r2
    8d30:	e1530001 	cmp	r3, r1
    8d34:	2a000002 	bcs	8d44 <kr_free+0x2c>
    8d38:	e5932000 	ldr	r2, [r3]
    8d3c:	e1520001 	cmp	r2, r1
    8d40:	8a000007 	bhi	8d64 <kr_free+0x4c>
    8d44:	e5932000 	ldr	r2, [r3]
    8d48:	e1520003 	cmp	r2, r3
    8d4c:	8afffff6 	bhi	8d2c <kr_free+0x14>
    8d50:	e1530001 	cmp	r3, r1
    8d54:	3a000002 	bcc	8d64 <kr_free+0x4c>
    8d58:	e1520001 	cmp	r2, r1
    8d5c:	91a03002 	movls	r3, r2
    8d60:	9afffff2 	bls	8d30 <kr_free+0x18>
    8d64:	e510c004 	ldr	ip, [r0, #-4]
    8d68:	e081e18c 	add	lr, r1, ip, lsl #3
    8d6c:	e5932000 	ldr	r2, [r3]
    8d70:	e15e0002 	cmp	lr, r2
    8d74:	0a000008 	beq	8d9c <kr_free+0x84>
    8d78:	e5002008 	str	r2, [r0, #-8]
    8d7c:	e5932004 	ldr	r2, [r3, #4]
    8d80:	e083c182 	add	ip, r3, r2, lsl #3
    8d84:	e15c0001 	cmp	ip, r1
    8d88:	0a00000a 	beq	8db8 <kr_free+0xa0>
    8d8c:	e5831000 	str	r1, [r3]
    8d90:	e59f2038 	ldr	r2, [pc, #56]	; 8dd0 <kr_free+0xb8>
    8d94:	e5823000 	str	r3, [r2]
    8d98:	e49df004 	pop	{pc}		; (ldr pc, [sp], #4)
    8d9c:	e5922004 	ldr	r2, [r2, #4]
    8da0:	e08cc002 	add	ip, ip, r2
    8da4:	e500c004 	str	ip, [r0, #-4]
    8da8:	e5932000 	ldr	r2, [r3]
    8dac:	e5922000 	ldr	r2, [r2]
    8db0:	e5002008 	str	r2, [r0, #-8]
    8db4:	eafffff0 	b	8d7c <kr_free+0x64>
    8db8:	e5101004 	ldr	r1, [r0, #-4]
    8dbc:	e0822001 	add	r2, r2, r1
    8dc0:	e5832004 	str	r2, [r3, #4]
    8dc4:	e5102008 	ldr	r2, [r0, #-8]
    8dc8:	e5832000 	str	r2, [r3]
    8dcc:	eaffffef 	b	8d90 <kr_free+0x78>
    8dd0:	0000ab48 	andeq	sl, r0, r8, asr #22

00008dd4 <kr_morecore>:
    8dd4:	e92d4010 	push	{r4, lr}
    8dd8:	e1a04000 	mov	r4, r0
    8ddc:	e3500b01 	cmp	r0, #1024	; 0x400
    8de0:	33a04b01 	movcc	r4, #1024	; 0x400
    8de4:	e1a00184 	lsl	r0, r4, #3
    8de8:	ebffff52 	bl	8b38 <sbrk>
    8dec:	e3700001 	cmn	r0, #1, 0
    8df0:	0a000005 	beq	8e0c <kr_morecore+0x38>
    8df4:	e5804004 	str	r4, [r0, #4]
    8df8:	e2800008 	add	r0, r0, #8, 0
    8dfc:	ebffffc5 	bl	8d18 <kr_free>
    8e00:	e59f300c 	ldr	r3, [pc, #12]	; 8e14 <kr_morecore+0x40>
    8e04:	e5930000 	ldr	r0, [r3]
    8e08:	e8bd8010 	pop	{r4, pc}
    8e0c:	e3a00000 	mov	r0, #0, 0
    8e10:	e8bd8010 	pop	{r4, pc}
    8e14:	0000ab48 	andeq	sl, r0, r8, asr #22

00008e18 <kr_malloc>:
    8e18:	e92d4010 	push	{r4, lr}
    8e1c:	e2804007 	add	r4, r0, #7, 0
    8e20:	e1a041a4 	lsr	r4, r4, #3
    8e24:	e2844001 	add	r4, r4, #1, 0
    8e28:	e59f3090 	ldr	r3, [pc, #144]	; 8ec0 <kr_malloc+0xa8>
    8e2c:	e5932000 	ldr	r2, [r3]
    8e30:	e3520000 	cmp	r2, #0, 0
    8e34:	0a000001 	beq	8e40 <kr_malloc+0x28>
    8e38:	e5920000 	ldr	r0, [r2]
    8e3c:	ea000013 	b	8e90 <kr_malloc+0x78>
    8e40:	e2832008 	add	r2, r3, #8, 0
    8e44:	e5832000 	str	r2, [r3]
    8e48:	e5832008 	str	r2, [r3, #8]
    8e4c:	e3a01000 	mov	r1, #0, 0
    8e50:	e583100c 	str	r1, [r3, #12]
    8e54:	eafffff7 	b	8e38 <kr_malloc+0x20>
    8e58:	0a000007 	beq	8e7c <kr_malloc+0x64>
    8e5c:	e0433004 	sub	r3, r3, r4
    8e60:	e5803004 	str	r3, [r0, #4]
    8e64:	e0800183 	add	r0, r0, r3, lsl #3
    8e68:	e5804004 	str	r4, [r0, #4]
    8e6c:	e59f304c 	ldr	r3, [pc, #76]	; 8ec0 <kr_malloc+0xa8>
    8e70:	e5832000 	str	r2, [r3]
    8e74:	e2800008 	add	r0, r0, #8, 0
    8e78:	e8bd8010 	pop	{r4, pc}
    8e7c:	e5903000 	ldr	r3, [r0]
    8e80:	e5823000 	str	r3, [r2]
    8e84:	eafffff8 	b	8e6c <kr_malloc+0x54>
    8e88:	e1a02000 	mov	r2, r0
    8e8c:	e5900000 	ldr	r0, [r0]
    8e90:	e5903004 	ldr	r3, [r0, #4]
    8e94:	e1530004 	cmp	r3, r4
    8e98:	2affffee 	bcs	8e58 <kr_malloc+0x40>
    8e9c:	e59f301c 	ldr	r3, [pc, #28]	; 8ec0 <kr_malloc+0xa8>
    8ea0:	e5933000 	ldr	r3, [r3]
    8ea4:	e1530000 	cmp	r3, r0
    8ea8:	1afffff6 	bne	8e88 <kr_malloc+0x70>
    8eac:	e1a00004 	mov	r0, r4
    8eb0:	ebffffc7 	bl	8dd4 <kr_morecore>
    8eb4:	e3500000 	cmp	r0, #0, 0
    8eb8:	1afffff2 	bne	8e88 <kr_malloc+0x70>
    8ebc:	e8bd8010 	pop	{r4, pc}
    8ec0:	0000ab48 	andeq	sl, r0, r8, asr #22

00008ec4 <memcmp>:
    8ec4:	e52de004 	push	{lr}		; (str lr, [sp, #-4]!)
    8ec8:	e1a0e000 	mov	lr, r0
    8ecc:	e3a03000 	mov	r3, #0, 0
    8ed0:	e1530002 	cmp	r3, r2
    8ed4:	2a000005 	bcs	8ef0 <memcmp+0x2c>
    8ed8:	e7dec003 	ldrb	ip, [lr, r3]
    8edc:	e7d10003 	ldrb	r0, [r1, r3]
    8ee0:	e05c0000 	subs	r0, ip, r0
    8ee4:	149df004 	popne	{pc}		; (ldrne pc, [sp], #4)
    8ee8:	e2833001 	add	r3, r3, #1, 0
    8eec:	eafffff7 	b	8ed0 <memcmp+0xc>
    8ef0:	e3a00000 	mov	r0, #0, 0
    8ef4:	e49df004 	pop	{pc}		; (ldr pc, [sp], #4)

00008ef8 <memcpy>:
    8ef8:	e2103003 	ands	r3, r0, #3, 0
    8efc:	1a000011 	bne	8f48 <memcpy+0x50>
    8f00:	e211c003 	ands	ip, r1, #3, 0
    8f04:	1a00000c 	bne	8f3c <memcpy+0x44>
    8f08:	e2123003 	ands	r3, r2, #3, 0
    8f0c:	1a00000f 	bne	8f50 <memcpy+0x58>
    8f10:	e1a02122 	lsr	r2, r2, #2
    8f14:	ea000002 	b	8f24 <memcpy+0x2c>
    8f18:	e791c103 	ldr	ip, [r1, r3, lsl #2]
    8f1c:	e780c103 	str	ip, [r0, r3, lsl #2]
    8f20:	e2833001 	add	r3, r3, #1, 0
    8f24:	e1530002 	cmp	r3, r2
    8f28:	3afffffa 	bcc	8f18 <memcpy+0x20>
    8f2c:	e12fff1e 	bx	lr
    8f30:	e7d1c003 	ldrb	ip, [r1, r3]
    8f34:	e7c0c003 	strb	ip, [r0, r3]
    8f38:	e2833001 	add	r3, r3, #1, 0
    8f3c:	e1530002 	cmp	r3, r2
    8f40:	3afffffa 	bcc	8f30 <memcpy+0x38>
    8f44:	e12fff1e 	bx	lr
    8f48:	e3a03000 	mov	r3, #0, 0
    8f4c:	eafffffa 	b	8f3c <memcpy+0x44>
    8f50:	e1a0300c 	mov	r3, ip
    8f54:	eafffff8 	b	8f3c <memcpy+0x44>

00008f58 <memset>:
    8f58:	e0802002 	add	r2, r0, r2
    8f5c:	e1a03000 	mov	r3, r0
    8f60:	e1530002 	cmp	r3, r2
    8f64:	212fff1e 	bxcs	lr
    8f68:	e4c31001 	strb	r1, [r3], #1
    8f6c:	eafffffb 	b	8f60 <memset+0x8>

00008f70 <printk>:
    8f70:	e92d000f 	push	{r0, r1, r2, r3}
    8f74:	e92d4030 	push	{r4, r5, lr}
    8f78:	e24dd00c 	sub	sp, sp, #12, 0
    8f7c:	e28d301c 	add	r3, sp, #28, 0
    8f80:	e58d3004 	str	r3, [sp, #4]
    8f84:	e59f5034 	ldr	r5, [pc, #52]	; 8fc0 <printk+0x50>
    8f88:	e59d2018 	ldr	r2, [sp, #24]
    8f8c:	e3a01b01 	mov	r1, #1024	; 0x400
    8f90:	e1a00005 	mov	r0, r5
    8f94:	eb0000ba 	bl	9284 <va_printk>
    8f98:	e1a04000 	mov	r4, r0
    8f9c:	e59f3020 	ldr	r3, [pc, #32]	; 8fc4 <printk+0x54>
    8fa0:	e5933000 	ldr	r3, [r3]
    8fa4:	e1a00005 	mov	r0, r5
    8fa8:	e12fff33 	blx	r3
    8fac:	e1a00004 	mov	r0, r4
    8fb0:	e28dd00c 	add	sp, sp, #12, 0
    8fb4:	e8bd4030 	pop	{r4, r5, lr}
    8fb8:	e28dd010 	add	sp, sp, #16, 0
    8fbc:	e12fff1e 	bx	lr
    8fc0:	0000ab58 	andeq	sl, r0, r8, asr fp
    8fc4:	0000ab18 	andeq	sl, r0, r8, lsl fp

00008fc8 <internal_putk>:
    8fc8:	e92d4010 	push	{r4, lr}
    8fcc:	e1a04000 	mov	r4, r0
    8fd0:	e5d40000 	ldrb	r0, [r4]
    8fd4:	e3500000 	cmp	r0, #0, 0
    8fd8:	0a000004 	beq	8ff0 <internal_putk+0x28>
    8fdc:	e59f3014 	ldr	r3, [pc, #20]	; 8ff8 <internal_putk+0x30>
    8fe0:	e5933000 	ldr	r3, [r3]
    8fe4:	e12fff33 	blx	r3
    8fe8:	e2844001 	add	r4, r4, #1, 0
    8fec:	eafffff7 	b	8fd0 <internal_putk+0x8>
    8ff0:	e3a00001 	mov	r0, #1, 0
    8ff4:	e8bd8010 	pop	{r4, pc}
    8ff8:	0000ab28 	andeq	sl, r0, r8, lsr #22

00008ffc <isdigit>:
    8ffc:	e2400030 	sub	r0, r0, #48, 0	; 0x30
    9000:	e3500009 	cmp	r0, #9, 0
    9004:	83a00000 	movhi	r0, #0, 0
    9008:	93a00001 	movls	r0, #1, 0
    900c:	e12fff1e 	bx	lr

00009010 <pad>:
    9010:	e0401001 	sub	r1, r0, r1
    9014:	e1510002 	cmp	r1, r2
    9018:	b3a03020 	movlt	r3, #32, 0
    901c:	b4c03001 	strblt	r3, [r0], #1
    9020:	b2811001 	addlt	r1, r1, #1, 0
    9024:	bafffffa 	blt	9014 <pad+0x4>
    9028:	e3a03000 	mov	r3, #0, 0
    902c:	e5c03000 	strb	r3, [r0]
    9030:	e12fff1e 	bx	lr

00009034 <reverse>:
    9034:	e042c003 	sub	ip, r2, r3
    9038:	e28cc001 	add	ip, ip, #1, 0
    903c:	e15c0001 	cmp	ip, r1
    9040:	c04cc001 	subgt	ip, ip, r1
    9044:	c083300c 	addgt	r3, r3, ip
    9048:	e2421001 	sub	r1, r2, #1, 0
    904c:	e1a02000 	mov	r2, r0
    9050:	e1510003 	cmp	r1, r3
    9054:	2451c001 	ldrbcs	ip, [r1], #-1
    9058:	24c2c001 	strbcs	ip, [r2], #1
    905c:	2afffffb 	bcs	9050 <reverse+0x1c>
    9060:	e3a03000 	mov	r3, #0, 0
    9064:	e5c23000 	strb	r3, [r2]
    9068:	e12fff1e 	bx	lr

0000906c <emit>:
    906c:	e92d40f0 	push	{r4, r5, r6, r7, lr}
    9070:	e24dd04c 	sub	sp, sp, #76, 0	; 0x4c
    9074:	e1a05001 	mov	r5, r1
    9078:	e1a04002 	mov	r4, r2
    907c:	e59d2060 	ldr	r2, [sp, #96]	; 0x60
    9080:	e1520004 	cmp	r2, r4
    9084:	c2442001 	subgt	r2, r4, #1, 0
    9088:	e1a0c003 	mov	ip, r3
    908c:	e2400002 	sub	r0, r0, #2, 0
    9090:	e350000e 	cmp	r0, #14, 0
    9094:	979ff100 	ldrls	pc, [pc, r0, lsl #2]
    9098:	ea000050 	b	91e0 <emit+0x174>
    909c:	000091b8 			; <UNDEFINED> instruction: 0x000091b8
    90a0:	000091e0 	andeq	r9, r0, r0, ror #3
    90a4:	000091e0 	andeq	r9, r0, r0, ror #3
    90a8:	000091e0 	andeq	r9, r0, r0, ror #3
    90ac:	000091e0 	andeq	r9, r0, r0, ror #3
    90b0:	000091e0 	andeq	r9, r0, r0, ror #3
    90b4:	000091ac 	andeq	r9, r0, ip, lsr #3
    90b8:	000091e0 	andeq	r9, r0, r0, ror #3
    90bc:	000090d8 	ldrdeq	r9, [r0], -r8
    90c0:	000091e0 	andeq	r9, r0, r0, ror #3
    90c4:	000091e0 	andeq	r9, r0, r0, ror #3
    90c8:	000091e0 	andeq	r9, r0, r0, ror #3
    90cc:	000091e0 	andeq	r9, r0, r0, ror #3
    90d0:	000091e0 	andeq	r9, r0, r0, ror #3
    90d4:	00009150 	andeq	r9, r0, r0, asr r1
    90d8:	e59d1064 	ldr	r1, [sp, #100]	; 0x64
    90dc:	e2511000 	subs	r1, r1, #0, 0
    90e0:	13a01001 	movne	r1, #1, 0
    90e4:	e0111fa3 	ands	r1, r1, r3, lsr #31
    90e8:	0a000016 	beq	9148 <emit+0xdc>
    90ec:	e263c000 	rsb	ip, r3, #0, 0
    90f0:	e3a06001 	mov	r6, #1, 0
    90f4:	e28d0008 	add	r0, sp, #8, 0
    90f8:	e59f3100 	ldr	r3, [pc, #256]	; 9200 <emit+0x194>
    90fc:	e0831c93 	umull	r1, r3, r3, ip
    9100:	e1a031a3 	lsr	r3, r3, #3
    9104:	e1a0e003 	mov	lr, r3
    9108:	e0833103 	add	r3, r3, r3, lsl #2
    910c:	e04c3083 	sub	r3, ip, r3, lsl #1
    9110:	e1a01000 	mov	r1, r0
    9114:	e2800001 	add	r0, r0, #1, 0
    9118:	e59f70e4 	ldr	r7, [pc, #228]	; 9204 <emit+0x198>
    911c:	e7d73003 	ldrb	r3, [r7, r3]
    9120:	e5c13000 	strb	r3, [r1]
    9124:	e1a0300c 	mov	r3, ip
    9128:	e1a0c00e 	mov	ip, lr
    912c:	e3530009 	cmp	r3, #9, 0
    9130:	8afffff0 	bhi	90f8 <emit+0x8c>
    9134:	e3560000 	cmp	r6, #0, 0
    9138:	13a0302d 	movne	r3, #45, 0	; 0x2d
    913c:	15c03000 	strbne	r3, [r0]
    9140:	12810002 	addne	r0, r1, #2, 0
    9144:	ea00000f 	b	9188 <emit+0x11c>
    9148:	e3a06000 	mov	r6, #0, 0
    914c:	eaffffe8 	b	90f4 <emit+0x88>
    9150:	e28d1008 	add	r1, sp, #8, 0
    9154:	e20c000f 	and	r0, ip, #15, 0
    9158:	e59fe0a8 	ldr	lr, [pc, #168]	; 9208 <emit+0x19c>
    915c:	e7de0000 	ldrb	r0, [lr, r0]
    9160:	e5c10000 	strb	r0, [r1]
    9164:	e2811001 	add	r1, r1, #1, 0
    9168:	e35c000f 	cmp	ip, #15, 0
    916c:	e1a0c22c 	lsr	ip, ip, #4
    9170:	8afffff7 	bhi	9154 <emit+0xe8>
    9174:	e1a00001 	mov	r0, r1
    9178:	e3a03078 	mov	r3, #120, 0	; 0x78
    917c:	e4c03002 	strb	r3, [r0], #2
    9180:	e3a03030 	mov	r3, #48, 0	; 0x30
    9184:	e5c13001 	strb	r3, [r1, #1]
    9188:	e28d1008 	add	r1, sp, #8, 0
    918c:	ebffff9f 	bl	9010 <pad>
    9190:	e1a02000 	mov	r2, r0
    9194:	e28d3008 	add	r3, sp, #8, 0
    9198:	e1a01004 	mov	r1, r4
    919c:	e1a00005 	mov	r0, r5
    91a0:	ebffffa3 	bl	9034 <reverse>
    91a4:	e28dd04c 	add	sp, sp, #76, 0	; 0x4c
    91a8:	e8bd80f0 	pop	{r4, r5, r6, r7, pc}
    91ac:	e5cd3008 	strb	r3, [sp, #8]
    91b0:	e28d0009 	add	r0, sp, #9, 0
    91b4:	eafffff3 	b	9188 <emit+0x11c>
    91b8:	e28d0008 	add	r0, sp, #8, 0
    91bc:	e20c1001 	and	r1, ip, #1, 0
    91c0:	e59fe044 	ldr	lr, [pc, #68]	; 920c <emit+0x1a0>
    91c4:	e7de1001 	ldrb	r1, [lr, r1]
    91c8:	e5c01000 	strb	r1, [r0]
    91cc:	e2800001 	add	r0, r0, #1, 0
    91d0:	e35c0001 	cmp	ip, #1, 0
    91d4:	e1a0c0ac 	lsr	ip, ip, #1
    91d8:	8afffff7 	bhi	91bc <emit+0x150>
    91dc:	eaffffe9 	b	9188 <emit+0x11c>
    91e0:	e59f3028 	ldr	r3, [pc, #40]	; 9210 <emit+0x1a4>
    91e4:	e58d3000 	str	r3, [sp]
    91e8:	e3a03079 	mov	r3, #121, 0	; 0x79
    91ec:	e59f2020 	ldr	r2, [pc, #32]	; 9214 <emit+0x1a8>
    91f0:	e59f1020 	ldr	r1, [pc, #32]	; 9218 <emit+0x1ac>
    91f4:	e59f0020 	ldr	r0, [pc, #32]	; 921c <emit+0x1b0>
    91f8:	ebffff5c 	bl	8f70 <printk>
    91fc:	eb00014e 	bl	973c <clean_reboot>
    9200:	cccccccd 	stclgt	12, cr12, [ip], {205}	; 0xcd
    9204:	0000a7bc 			; <UNDEFINED> instruction: 0x0000a7bc
    9208:	0000a7c8 	andeq	sl, r0, r8, asr #15
    920c:	0000a7dc 	ldrdeq	sl, [r0], -ip
    9210:	0000a67c 	andeq	sl, r0, ip, ror r6
    9214:	0000a8e8 	andeq	sl, r0, r8, ror #17
    9218:	0000a7a8 	andeq	sl, r0, r8, lsr #15
    921c:	0000a08c 	andeq	sl, r0, ip, lsl #1

00009220 <rpi_set_output>:
    9220:	e3500000 	cmp	r0, #0, 0
    9224:	0a000006 	beq	9244 <rpi_set_output+0x24>
    9228:	e59f303c 	ldr	r3, [pc, #60]	; 926c <rpi_set_output+0x4c>
    922c:	e5830000 	str	r0, [r3]
    9230:	e3510000 	cmp	r1, #0, 0
    9234:	012fff1e 	bxeq	lr
    9238:	e59f3030 	ldr	r3, [pc, #48]	; 9270 <rpi_set_output+0x50>
    923c:	e5831000 	str	r1, [r3]
    9240:	e12fff1e 	bx	lr
    9244:	e52de004 	push	{lr}		; (str lr, [sp, #-4]!)
    9248:	e24dd00c 	sub	sp, sp, #12, 0
    924c:	e59f3020 	ldr	r3, [pc, #32]	; 9274 <rpi_set_output+0x54>
    9250:	e58d3000 	str	r3, [sp]
    9254:	e3a03020 	mov	r3, #32, 0
    9258:	e59f2018 	ldr	r2, [pc, #24]	; 9278 <rpi_set_output+0x58>
    925c:	e59f1018 	ldr	r1, [pc, #24]	; 927c <rpi_set_output+0x5c>
    9260:	e59f0018 	ldr	r0, [pc, #24]	; 9280 <rpi_set_output+0x60>
    9264:	ebffff41 	bl	8f70 <printk>
    9268:	eb000133 	bl	973c <clean_reboot>
    926c:	0000ab28 	andeq	sl, r0, r8, lsr #22
    9270:	0000ab18 	andeq	sl, r0, r8, lsl fp
    9274:	0000a7e0 	andeq	sl, r0, r0, ror #15
    9278:	0000a8f0 	strdeq	sl, [r0], -r0
    927c:	0000a7a8 	andeq	sl, r0, r8, lsr #15
    9280:	0000a08c 	andeq	sl, r0, ip, lsl #1

00009284 <va_printk>:
    9284:	e92d4ff0 	push	{r4, r5, r6, r7, r8, r9, sl, fp, lr}
    9288:	e24ddf45 	sub	sp, sp, #276	; 0x114
    928c:	e1a09000 	mov	r9, r0
    9290:	e58d2008 	str	r2, [sp, #8]
    9294:	e58d300c 	str	r3, [sp, #12]
    9298:	e2411001 	sub	r1, r1, #1, 0
    929c:	e0808001 	add	r8, r0, r1
    92a0:	e3a03000 	mov	r3, #0, 0
    92a4:	e5c03000 	strb	r3, [r0]
    92a8:	e1a04000 	mov	r4, r0
    92ac:	e1a06002 	mov	r6, r2
    92b0:	ea000001 	b	92bc <va_printk+0x38>
    92b4:	e2866001 	add	r6, r6, #1, 0
    92b8:	e4c43001 	strb	r3, [r4], #1
    92bc:	e5d63000 	ldrb	r3, [r6]
    92c0:	e3530000 	cmp	r3, #0, 0
    92c4:	0a000108 	beq	96ec <va_printk+0x468>
    92c8:	e1540008 	cmp	r4, r8
    92cc:	2a000106 	bcs	96ec <va_printk+0x468>
    92d0:	e3530025 	cmp	r3, #37, 0	; 0x25
    92d4:	1afffff6 	bne	92b4 <va_printk+0x30>
    92d8:	e5d62001 	ldrb	r2, [r6, #1]
    92dc:	e3520025 	cmp	r2, #37, 0	; 0x25
    92e0:	04c43001 	strbeq	r3, [r4], #1
    92e4:	02866002 	addeq	r6, r6, #2, 0
    92e8:	0afffff3 	beq	92bc <va_printk+0x38>
    92ec:	e2866001 	add	r6, r6, #1, 0
    92f0:	e3a05000 	mov	r5, #0, 0
    92f4:	e5d67000 	ldrb	r7, [r6]
    92f8:	e1a0a007 	mov	sl, r7
    92fc:	e1a00007 	mov	r0, r7
    9300:	ebffff3d 	bl	8ffc <isdigit>
    9304:	e3500000 	cmp	r0, #0, 0
    9308:	0a000004 	beq	9320 <va_printk+0x9c>
    930c:	e0855105 	add	r5, r5, r5, lsl #2
    9310:	e0875085 	add	r5, r7, r5, lsl #1
    9314:	e2455030 	sub	r5, r5, #48, 0	; 0x30
    9318:	e2866001 	add	r6, r6, #1, 0
    931c:	eafffff4 	b	92f4 <va_printk+0x70>
    9320:	e355001f 	cmp	r5, #31, 0
    9324:	8a00001a 	bhi	9394 <va_printk+0x110>
    9328:	e2477062 	sub	r7, r7, #98, 0	; 0x62
    932c:	e3570016 	cmp	r7, #22, 0
    9330:	979ff107 	ldrls	pc, [pc, r7, lsl #2]
    9334:	ea0000d4 	b	968c <va_printk+0x408>
    9338:	00009610 	andeq	r9, r0, r0, lsl r6
    933c:	00009658 	andeq	r9, r0, r8, asr r6
    9340:	00009570 	andeq	r9, r0, r0, ror r5
    9344:	0000968c 	andeq	r9, r0, ip, lsl #13
    9348:	00009558 	andeq	r9, r0, r8, asr r5
    934c:	0000968c 	andeq	r9, r0, ip, lsl #13
    9350:	0000968c 	andeq	r9, r0, ip, lsl #13
    9354:	0000968c 	andeq	r9, r0, ip, lsl #13
    9358:	0000968c 	andeq	r9, r0, ip, lsl #13
    935c:	0000968c 	andeq	r9, r0, ip, lsl #13
    9360:	000093b4 			; <UNDEFINED> instruction: 0x000093b4
    9364:	0000968c 	andeq	r9, r0, ip, lsl #13
    9368:	0000968c 	andeq	r9, r0, ip, lsl #13
    936c:	0000968c 	andeq	r9, r0, ip, lsl #13
    9370:	000095dc 	ldrdeq	r9, [r0], -ip
    9374:	0000968c 	andeq	r9, r0, ip, lsl #13
    9378:	0000968c 	andeq	r9, r0, ip, lsl #13
    937c:	00009644 	andeq	r9, r0, r4, asr #12
    9380:	0000968c 	andeq	r9, r0, ip, lsl #13
    9384:	000095a8 	andeq	r9, r0, r8, lsr #11
    9388:	0000968c 	andeq	r9, r0, ip, lsl #13
    938c:	0000968c 	andeq	r9, r0, ip, lsl #13
    9390:	000095dc 	ldrdeq	r9, [r0], -ip
    9394:	e59f3364 	ldr	r3, [pc, #868]	; 9700 <va_printk+0x47c>
    9398:	e58d3000 	str	r3, [sp]
    939c:	e3a03098 	mov	r3, #152, 0	; 0x98
    93a0:	e59f235c 	ldr	r2, [pc, #860]	; 9704 <va_printk+0x480>
    93a4:	e59f135c 	ldr	r1, [pc, #860]	; 9708 <va_printk+0x484>
    93a8:	e59f035c 	ldr	r0, [pc, #860]	; 970c <va_printk+0x488>
    93ac:	ebfffeef 	bl	8f70 <printk>
    93b0:	eb0000e1 	bl	973c <clean_reboot>
    93b4:	e3a02003 	mov	r2, #3, 0
    93b8:	e59f1350 	ldr	r1, [pc, #848]	; 9710 <va_printk+0x48c>
    93bc:	e1a00006 	mov	r0, r6
    93c0:	eb0002d0 	bl	9f08 <strncmp>
    93c4:	e3500000 	cmp	r0, #0, 0
    93c8:	0a000005 	beq	93e4 <va_printk+0x160>
    93cc:	e3a02003 	mov	r2, #3, 0
    93d0:	e59f133c 	ldr	r1, [pc, #828]	; 9714 <va_printk+0x490>
    93d4:	e1a00006 	mov	r0, r6
    93d8:	eb0002ca 	bl	9f08 <strncmp>
    93dc:	e3500000 	cmp	r0, #0, 0
    93e0:	1a000033 	bne	94b4 <va_printk+0x230>
    93e4:	e286b002 	add	fp, r6, #2, 0
    93e8:	e59d300c 	ldr	r3, [sp, #12]
    93ec:	e2833007 	add	r3, r3, #7, 0
    93f0:	e3c33007 	bic	r3, r3, #7, 0
    93f4:	e2832008 	add	r2, r3, #8, 0
    93f8:	e58d200c 	str	r2, [sp, #12]
    93fc:	e593a000 	ldr	sl, [r3]
    9400:	e5937004 	ldr	r7, [r3, #4]
    9404:	e1a01007 	mov	r1, r7
    9408:	e59f0308 	ldr	r0, [pc, #776]	; 9718 <va_printk+0x494>
    940c:	ebfffed7 	bl	8f70 <printk>
    9410:	e1a0100a 	mov	r1, sl
    9414:	e59f0300 	ldr	r0, [pc, #768]	; 971c <va_printk+0x498>
    9418:	ebfffed4 	bl	8f70 <printk>
    941c:	e3a02003 	mov	r2, #3, 0
    9420:	e59f12e8 	ldr	r1, [pc, #744]	; 9710 <va_printk+0x48c>
    9424:	e1a00006 	mov	r0, r6
    9428:	eb0002b6 	bl	9f08 <strncmp>
    942c:	e3500000 	cmp	r0, #0, 0
    9430:	0a000027 	beq	94d4 <va_printk+0x250>
    9434:	e3a02003 	mov	r2, #3, 0
    9438:	e59f12d4 	ldr	r1, [pc, #724]	; 9714 <va_printk+0x490>
    943c:	e1a00006 	mov	r0, r6
    9440:	eb0002b0 	bl	9f08 <strncmp>
    9444:	e3500000 	cmp	r0, #0, 0
    9448:	1a00003b 	bne	953c <va_printk+0x2b8>
    944c:	e3a06000 	mov	r6, #0, 0
    9450:	e58d6004 	str	r6, [sp, #4]
    9454:	e58d5000 	str	r5, [sp]
    9458:	e1a03007 	mov	r3, r7
    945c:	e3a02080 	mov	r2, #128, 0	; 0x80
    9460:	e28d1010 	add	r1, sp, #16, 0
    9464:	e3a0000a 	mov	r0, #10, 0
    9468:	ebfffeff 	bl	906c <emit>
    946c:	e1a07000 	mov	r7, r0
    9470:	e58d6004 	str	r6, [sp, #4]
    9474:	e58d5000 	str	r5, [sp]
    9478:	e1a0300a 	mov	r3, sl
    947c:	e3a02080 	mov	r2, #128, 0	; 0x80
    9480:	e28d1090 	add	r1, sp, #144, 0	; 0x90
    9484:	e3a0000a 	mov	r0, #10, 0
    9488:	ebfffef7 	bl	906c <emit>
    948c:	e59f128c 	ldr	r1, [pc, #652]	; 9720 <va_printk+0x49c>
    9490:	e28d0010 	add	r0, sp, #16, 0
    9494:	eb000288 	bl	9ebc <strcmp>
    9498:	e1500006 	cmp	r0, r6
    949c:	1a000021 	bne	9528 <va_printk+0x2a4>
    94a0:	e28d1090 	add	r1, sp, #144, 0	; 0x90
    94a4:	e28d0010 	add	r0, sp, #16, 0
    94a8:	eb00028e 	bl	9ee8 <strcpy>
    94ac:	e1a0600b 	mov	r6, fp
    94b0:	ea00003a 	b	95a0 <va_printk+0x31c>
    94b4:	e59f3268 	ldr	r3, [pc, #616]	; 9724 <va_printk+0x4a0>
    94b8:	e58d3000 	str	r3, [sp]
    94bc:	e3a0309f 	mov	r3, #159, 0	; 0x9f
    94c0:	e59f223c 	ldr	r2, [pc, #572]	; 9704 <va_printk+0x480>
    94c4:	e59f123c 	ldr	r1, [pc, #572]	; 9708 <va_printk+0x484>
    94c8:	e59f023c 	ldr	r0, [pc, #572]	; 970c <va_printk+0x488>
    94cc:	ebfffea7 	bl	8f70 <printk>
    94d0:	eb000099 	bl	973c <clean_reboot>
    94d4:	e3a06000 	mov	r6, #0, 0
    94d8:	e58d6004 	str	r6, [sp, #4]
    94dc:	e58d5000 	str	r5, [sp]
    94e0:	e1a03007 	mov	r3, r7
    94e4:	e3a02080 	mov	r2, #128, 0	; 0x80
    94e8:	e28d1010 	add	r1, sp, #16, 0
    94ec:	e3a00010 	mov	r0, #16, 0
    94f0:	ebfffedd 	bl	906c <emit>
    94f4:	e1a07000 	mov	r7, r0
    94f8:	e58d6004 	str	r6, [sp, #4]
    94fc:	e58d5000 	str	r5, [sp]
    9500:	e1a0300a 	mov	r3, sl
    9504:	e3a02080 	mov	r2, #128, 0	; 0x80
    9508:	e28d1090 	add	r1, sp, #144, 0	; 0x90
    950c:	e3a00010 	mov	r0, #16, 0
    9510:	ebfffed5 	bl	906c <emit>
    9514:	e28d1092 	add	r1, sp, #146, 0	; 0x92
    9518:	e28d0010 	add	r0, sp, #16, 0
    951c:	eb000259 	bl	9e88 <strcat>
    9520:	e1a0600b 	mov	r6, fp
    9524:	ea00001d 	b	95a0 <va_printk+0x31c>
    9528:	e28d1090 	add	r1, sp, #144, 0	; 0x90
    952c:	e28d0010 	add	r0, sp, #16, 0
    9530:	eb000254 	bl	9e88 <strcat>
    9534:	e1a0600b 	mov	r6, fp
    9538:	ea000018 	b	95a0 <va_printk+0x31c>
    953c:	e58d6000 	str	r6, [sp]
    9540:	e3a030b6 	mov	r3, #182, 0	; 0xb6
    9544:	e59f21b8 	ldr	r2, [pc, #440]	; 9704 <va_printk+0x480>
    9548:	e59f11b8 	ldr	r1, [pc, #440]	; 9708 <va_printk+0x484>
    954c:	e59f01d4 	ldr	r0, [pc, #468]	; 9728 <va_printk+0x4a4>
    9550:	ebfffe86 	bl	8f70 <printk>
    9554:	eb000078 	bl	973c <clean_reboot>
    9558:	e3a030be 	mov	r3, #190, 0	; 0xbe
    955c:	e59f21a0 	ldr	r2, [pc, #416]	; 9704 <va_printk+0x480>
    9560:	e59f11a0 	ldr	r1, [pc, #416]	; 9708 <va_printk+0x484>
    9564:	e59f01c0 	ldr	r0, [pc, #448]	; 972c <va_printk+0x4a8>
    9568:	ebfffe80 	bl	8f70 <printk>
    956c:	eb000072 	bl	973c <clean_reboot>
    9570:	e59d300c 	ldr	r3, [sp, #12]
    9574:	e2832004 	add	r2, r3, #4, 0
    9578:	e58d200c 	str	r2, [sp, #12]
    957c:	e5933000 	ldr	r3, [r3]
    9580:	e3a02001 	mov	r2, #1, 0
    9584:	e58d2004 	str	r2, [sp, #4]
    9588:	e58d5000 	str	r5, [sp]
    958c:	e3a02080 	mov	r2, #128, 0	; 0x80
    9590:	e28d1010 	add	r1, sp, #16, 0
    9594:	e3a0000a 	mov	r0, #10, 0
    9598:	ebfffeb3 	bl	906c <emit>
    959c:	e1a07000 	mov	r7, r0
    95a0:	e2866001 	add	r6, r6, #1, 0
    95a4:	ea00004a 	b	96d4 <va_printk+0x450>
    95a8:	e59d300c 	ldr	r3, [sp, #12]
    95ac:	e2832004 	add	r2, r3, #4, 0
    95b0:	e58d200c 	str	r2, [sp, #12]
    95b4:	e5933000 	ldr	r3, [r3]
    95b8:	e3a02000 	mov	r2, #0, 0
    95bc:	e58d2004 	str	r2, [sp, #4]
    95c0:	e58d5000 	str	r5, [sp]
    95c4:	e3a02080 	mov	r2, #128, 0	; 0x80
    95c8:	e28d1010 	add	r1, sp, #16, 0
    95cc:	e3a0000a 	mov	r0, #10, 0
    95d0:	ebfffea5 	bl	906c <emit>
    95d4:	e1a07000 	mov	r7, r0
    95d8:	eafffff0 	b	95a0 <va_printk+0x31c>
    95dc:	e59d300c 	ldr	r3, [sp, #12]
    95e0:	e2832004 	add	r2, r3, #4, 0
    95e4:	e58d200c 	str	r2, [sp, #12]
    95e8:	e5933000 	ldr	r3, [r3]
    95ec:	e3a02000 	mov	r2, #0, 0
    95f0:	e58d2004 	str	r2, [sp, #4]
    95f4:	e58d5000 	str	r5, [sp]
    95f8:	e3a02080 	mov	r2, #128, 0	; 0x80
    95fc:	e28d1010 	add	r1, sp, #16, 0
    9600:	e3a00010 	mov	r0, #16, 0
    9604:	ebfffe98 	bl	906c <emit>
    9608:	e1a07000 	mov	r7, r0
    960c:	eaffffe3 	b	95a0 <va_printk+0x31c>
    9610:	e59d300c 	ldr	r3, [sp, #12]
    9614:	e2832004 	add	r2, r3, #4, 0
    9618:	e58d200c 	str	r2, [sp, #12]
    961c:	e5933000 	ldr	r3, [r3]
    9620:	e3a02000 	mov	r2, #0, 0
    9624:	e58d2004 	str	r2, [sp, #4]
    9628:	e58d5000 	str	r5, [sp]
    962c:	e3a02080 	mov	r2, #128, 0	; 0x80
    9630:	e28d1010 	add	r1, sp, #16, 0
    9634:	e3a00002 	mov	r0, #2, 0
    9638:	ebfffe8b 	bl	906c <emit>
    963c:	e1a07000 	mov	r7, r0
    9640:	eaffffd6 	b	95a0 <va_printk+0x31c>
    9644:	e59d300c 	ldr	r3, [sp, #12]
    9648:	e2832004 	add	r2, r3, #4, 0
    964c:	e58d200c 	str	r2, [sp, #12]
    9650:	e5937000 	ldr	r7, [r3]
    9654:	eaffffd1 	b	95a0 <va_printk+0x31c>
    9658:	e59d300c 	ldr	r3, [sp, #12]
    965c:	e2832004 	add	r2, r3, #4, 0
    9660:	e58d200c 	str	r2, [sp, #12]
    9664:	e5933000 	ldr	r3, [r3]
    9668:	e3a02000 	mov	r2, #0, 0
    966c:	e58d2004 	str	r2, [sp, #4]
    9670:	e58d5000 	str	r5, [sp]
    9674:	e3a02080 	mov	r2, #128, 0	; 0x80
    9678:	e28d1010 	add	r1, sp, #16, 0
    967c:	e3a00008 	mov	r0, #8, 0
    9680:	ebfffe79 	bl	906c <emit>
    9684:	e1a07000 	mov	r7, r0
    9688:	eaffffc4 	b	95a0 <va_printk+0x31c>
    968c:	e3a03000 	mov	r3, #0, 0
    9690:	e5c63001 	strb	r3, [r6, #1]
    9694:	e1a0200a 	mov	r2, sl
    9698:	e1a0100a 	mov	r1, sl
    969c:	e59f008c 	ldr	r0, [pc, #140]	; 9730 <va_printk+0x4ac>
    96a0:	ebfffe32 	bl	8f70 <printk>
    96a4:	e59f3088 	ldr	r3, [pc, #136]	; 9734 <va_printk+0x4b0>
    96a8:	e5933000 	ldr	r3, [r3]
    96ac:	e59d0008 	ldr	r0, [sp, #8]
    96b0:	e12fff33 	blx	r3
    96b4:	e3a030e2 	mov	r3, #226, 0	; 0xe2
    96b8:	e59f2044 	ldr	r2, [pc, #68]	; 9704 <va_printk+0x480>
    96bc:	e59f1044 	ldr	r1, [pc, #68]	; 9708 <va_printk+0x484>
    96c0:	e59f0070 	ldr	r0, [pc, #112]	; 9738 <va_printk+0x4b4>
    96c4:	ebfffe29 	bl	8f70 <printk>
    96c8:	eb00001b 	bl	973c <clean_reboot>
    96cc:	e2877001 	add	r7, r7, #1, 0
    96d0:	e4c43001 	strb	r3, [r4], #1
    96d4:	e1540008 	cmp	r4, r8
    96d8:	2afffef7 	bcs	92bc <va_printk+0x38>
    96dc:	e5d73000 	ldrb	r3, [r7]
    96e0:	e3530000 	cmp	r3, #0, 0
    96e4:	1afffff8 	bne	96cc <va_printk+0x448>
    96e8:	eafffef3 	b	92bc <va_printk+0x38>
    96ec:	e3a03000 	mov	r3, #0, 0
    96f0:	e4c43001 	strb	r3, [r4], #1
    96f4:	e0440009 	sub	r0, r4, r9
    96f8:	e28ddf45 	add	sp, sp, #276	; 0x114
    96fc:	e8bd8ff0 	pop	{r4, r5, r6, r7, r8, r9, sl, fp, pc}
    9700:	0000a7e8 	andeq	sl, r0, r8, ror #15
    9704:	0000a900 	andeq	sl, r0, r0, lsl #18
    9708:	0000a7a8 	andeq	sl, r0, r8, lsr #15
    970c:	0000a08c 	andeq	sl, r0, ip, lsl #1
    9710:	0000a7f4 	strdeq	sl, [r0], -r4
    9714:	0000a7f8 	strdeq	sl, [r0], -r8
    9718:	0000a7fc 	strdeq	sl, [r0], -ip
    971c:	0000a804 	andeq	sl, r0, r4, lsl #16
    9720:	0000a67c 	andeq	sl, r0, ip, ror r6
    9724:	0000a80c 	andeq	sl, r0, ip, lsl #16
    9728:	0000a848 	andeq	sl, r0, r8, asr #16
    972c:	0000a870 	andeq	sl, r0, r0, ror r8
    9730:	0000a898 	muleq	r0, r8, r8
    9734:	0000ab18 	andeq	sl, r0, r8, lsl fp
    9738:	0000a8c8 	andeq	sl, r0, r8, asr #17

0000973c <clean_reboot>:
    973c:	e92d4010 	push	{r4, lr}
    9740:	e59f3018 	ldr	r3, [pc, #24]	; 9760 <clean_reboot+0x24>
    9744:	e5933000 	ldr	r3, [r3]
    9748:	e59f0014 	ldr	r0, [pc, #20]	; 9764 <clean_reboot+0x28>
    974c:	e12fff33 	blx	r3
    9750:	eb0000c3 	bl	9a64 <uart_flush_tx>
    9754:	e3a0000a 	mov	r0, #10, 0
    9758:	eb000047 	bl	987c <delay_ms>
    975c:	eb00001c 	bl	97d4 <rpi_reboot>
    9760:	0000ab18 	andeq	sl, r0, r8, lsl fp
    9764:	0000a90c 	andeq	sl, r0, ip, lsl #18

00009768 <_cstart>:
    9768:	e92d4010 	push	{r4, lr}
    976c:	eb00000c 	bl	97a4 <custom_loader>
    9770:	e59f3024 	ldr	r3, [pc, #36]	; 979c <_cstart+0x34>
    9774:	e59f2024 	ldr	r2, [pc, #36]	; 97a0 <_cstart+0x38>
    9778:	e1530002 	cmp	r3, r2
    977c:	33a02000 	movcc	r2, #0, 0
    9780:	34832004 	strcc	r2, [r3], #4
    9784:	3afffffa 	bcc	9774 <_cstart+0xc>
    9788:	eb000057 	bl	98ec <uart_init>
    978c:	e3a03001 	mov	r3, #1, 0
    9790:	ee0f3f1c 	mcr	15, 0, r3, cr15, cr12, {0}
    9794:	ebfffa61 	bl	8120 <notmain>
    9798:	ebffffe7 	bl	973c <clean_reboot>
    979c:	0000ab30 	andeq	sl, r0, r0, lsr fp
    97a0:	0000af60 	andeq	sl, r0, r0, ror #30

000097a4 <custom_loader>:
    97a4:	e12fff1e 	bx	lr

000097a8 <at_user_level>:
    97a8:	e10f0000 	mrs	r0, CPSR
    97ac:	e200001f 	and	r0, r0, #31, 0
    97b0:	e3500010 	cmp	r0, #16, 0
    97b4:	13a00000 	movne	r0, #0, 0
    97b8:	03a00001 	moveq	r0, #1, 0
    97bc:	e12fff1e 	bx	lr

000097c0 <set_user_level>:
    97c0:	e10f3000 	mrs	r3, CPSR
    97c4:	e3c3301f 	bic	r3, r3, #31, 0
    97c8:	e3833010 	orr	r3, r3, #16, 0
    97cc:	e129f003 	msr	CPSR_fc, r3
    97d0:	e12fff1e 	bx	lr

000097d4 <rpi_reboot>:
    97d4:	e92d4010 	push	{r4, lr}
    97d8:	ebfffff2 	bl	97a8 <at_user_level>
    97dc:	e3500000 	cmp	r0, #0, 0
    97e0:	1a00000a 	bne	9810 <rpi_reboot+0x3c>
    97e4:	eb0001d2 	bl	9f34 <reboot_callout>
    97e8:	eb00009d 	bl	9a64 <uart_flush_tx>
    97ec:	e3a0000a 	mov	r0, #10, 0
    97f0:	eb000021 	bl	987c <delay_ms>
    97f4:	e59f101c 	ldr	r1, [pc, #28]	; 9818 <rpi_reboot+0x44>
    97f8:	e59f001c 	ldr	r0, [pc, #28]	; 981c <rpi_reboot+0x48>
    97fc:	ebfffa08 	bl	8024 <PUT32>
    9800:	e59f1018 	ldr	r1, [pc, #24]	; 9820 <rpi_reboot+0x4c>
    9804:	e59f0018 	ldr	r0, [pc, #24]	; 9824 <rpi_reboot+0x50>
    9808:	ebfffa05 	bl	8024 <PUT32>
    980c:	eafffffe 	b	980c <rpi_reboot+0x38>
    9810:	ebffffea 	bl	97c0 <set_user_level>
    9814:	eafffff2 	b	97e4 <rpi_reboot+0x10>
    9818:	5a000001 	bpl	9824 <rpi_reboot+0x50>
    981c:	20100024 	andscs	r0, r0, r4, lsr #32
    9820:	5a000020 	bpl	98a8 <delay_sec+0x14>
    9824:	2010001c 	andscs	r0, r0, ip, lsl r0

00009828 <timer_get_usec_raw>:
    9828:	e92d4010 	push	{r4, lr}
    982c:	e59f0004 	ldr	r0, [pc, #4]	; 9838 <timer_get_usec_raw+0x10>
    9830:	ebfff9fd 	bl	802c <GET32>
    9834:	e8bd8010 	pop	{r4, pc}
    9838:	20003004 	andcs	r3, r0, r4

0000983c <timer_get_usec>:
    983c:	e92d4010 	push	{r4, lr}
    9840:	eb0001bc 	bl	9f38 <dev_barrier>
    9844:	ebfffff7 	bl	9828 <timer_get_usec_raw>
    9848:	e1a04000 	mov	r4, r0
    984c:	eb0001b9 	bl	9f38 <dev_barrier>
    9850:	e1a00004 	mov	r0, r4
    9854:	e8bd8010 	pop	{r4, pc}

00009858 <delay_us>:
    9858:	e92d4070 	push	{r4, r5, r6, lr}
    985c:	e1a05000 	mov	r5, r0
    9860:	ebfffff5 	bl	983c <timer_get_usec>
    9864:	e1a04000 	mov	r4, r0
    9868:	ebfffff3 	bl	983c <timer_get_usec>
    986c:	e0400004 	sub	r0, r0, r4
    9870:	e1500005 	cmp	r0, r5
    9874:	3afffffb 	bcc	9868 <delay_us+0x10>
    9878:	e8bd8070 	pop	{r4, r5, r6, pc}

0000987c <delay_ms>:
    987c:	e92d4010 	push	{r4, lr}
    9880:	e0603280 	rsb	r3, r0, r0, lsl #5
    9884:	e0800103 	add	r0, r0, r3, lsl #2
    9888:	e1a00180 	lsl	r0, r0, #3
    988c:	ebfffff1 	bl	9858 <delay_us>
    9890:	e8bd8010 	pop	{r4, pc}

00009894 <delay_sec>:
    9894:	e92d4010 	push	{r4, lr}
    9898:	e0603280 	rsb	r3, r0, r0, lsl #5
    989c:	e0800103 	add	r0, r0, r3, lsl #2
    98a0:	e1a00180 	lsl	r0, r0, #3
    98a4:	ebfffff4 	bl	987c <delay_ms>
    98a8:	e8bd8010 	pop	{r4, pc}

000098ac <and_in32>:
    98ac:	e92d4070 	push	{r4, r5, r6, lr}
    98b0:	e1a04000 	mov	r4, r0
    98b4:	e1a05001 	mov	r5, r1
    98b8:	ebfff9db 	bl	802c <GET32>
    98bc:	e0001005 	and	r1, r0, r5
    98c0:	e1a00004 	mov	r0, r4
    98c4:	ebfff9d6 	bl	8024 <PUT32>
    98c8:	e8bd8070 	pop	{r4, r5, r6, pc}

000098cc <or_in32>:
    98cc:	e92d4070 	push	{r4, r5, r6, lr}
    98d0:	e1a04000 	mov	r4, r0
    98d4:	e1a05001 	mov	r5, r1
    98d8:	ebfff9d3 	bl	802c <GET32>
    98dc:	e1801005 	orr	r1, r0, r5
    98e0:	e1a00004 	mov	r0, r4
    98e4:	ebfff9ce 	bl	8024 <PUT32>
    98e8:	e8bd8070 	pop	{r4, r5, r6, pc}

000098ec <uart_init>:
    98ec:	e92d4010 	push	{r4, lr}
    98f0:	e3a01002 	mov	r1, #2, 0
    98f4:	e3a0000e 	mov	r0, #14, 0
    98f8:	eb000194 	bl	9f50 <gpio_set_function>
    98fc:	e3a01002 	mov	r1, #2, 0
    9900:	e3a0000f 	mov	r0, #15, 0
    9904:	eb000191 	bl	9f50 <gpio_set_function>
    9908:	eb00018a 	bl	9f38 <dev_barrier>
    990c:	e3a01001 	mov	r1, #1, 0
    9910:	e59f0064 	ldr	r0, [pc, #100]	; 997c <uart_init+0x90>
    9914:	ebffffec 	bl	98cc <or_in32>
    9918:	eb000186 	bl	9f38 <dev_barrier>
    991c:	e59f405c 	ldr	r4, [pc, #92]	; 9980 <uart_init+0x94>
    9920:	e3a01000 	mov	r1, #0, 0
    9924:	e1a00004 	mov	r0, r4
    9928:	ebfff9bd 	bl	8024 <PUT32>
    992c:	e3a01000 	mov	r1, #0, 0
    9930:	e59f004c 	ldr	r0, [pc, #76]	; 9984 <uart_init+0x98>
    9934:	ebfff9ba 	bl	8024 <PUT32>
    9938:	e3a01003 	mov	r1, #3, 0
    993c:	e59f0044 	ldr	r0, [pc, #68]	; 9988 <uart_init+0x9c>
    9940:	ebfff9b7 	bl	8024 <PUT32>
    9944:	e3a01000 	mov	r1, #0, 0
    9948:	e59f003c 	ldr	r0, [pc, #60]	; 998c <uart_init+0xa0>
    994c:	ebfff9b4 	bl	8024 <PUT32>
    9950:	e3a010c7 	mov	r1, #199, 0	; 0xc7
    9954:	e59f0034 	ldr	r0, [pc, #52]	; 9990 <uart_init+0xa4>
    9958:	ebfff9b1 	bl	8024 <PUT32>
    995c:	e59f1030 	ldr	r1, [pc, #48]	; 9994 <uart_init+0xa8>
    9960:	e59f0030 	ldr	r0, [pc, #48]	; 9998 <uart_init+0xac>
    9964:	ebfff9ae 	bl	8024 <PUT32>
    9968:	e3a01003 	mov	r1, #3, 0
    996c:	e1a00004 	mov	r0, r4
    9970:	ebfff9ab 	bl	8024 <PUT32>
    9974:	eb00016f 	bl	9f38 <dev_barrier>
    9978:	e8bd8010 	pop	{r4, pc}
    997c:	20215004 	eorcs	r5, r1, r4
    9980:	20215060 	eorcs	r5, r1, r0, rrx
    9984:	20215044 	eorcs	r5, r1, r4, asr #32
    9988:	2021504c 	eorcs	r5, r1, ip, asr #32
    998c:	20215050 	eorcs	r5, r1, r0, asr r0
    9990:	20215048 	eorcs	r5, r1, r8, asr #32
    9994:	0000010e 	andeq	r0, r0, lr, lsl #2
    9998:	20215068 	eorcs	r5, r1, r8, rrx

0000999c <uart_can_getc>:
    999c:	e92d4010 	push	{r4, lr}
    99a0:	e59f0008 	ldr	r0, [pc, #8]	; 99b0 <uart_can_getc+0x14>
    99a4:	ebfff9a0 	bl	802c <GET32>
    99a8:	e2000001 	and	r0, r0, #1, 0
    99ac:	e8bd8010 	pop	{r4, pc}
    99b0:	20215064 	eorcs	r5, r1, r4, rrx

000099b4 <uart_can_putc>:
    99b4:	e92d4010 	push	{r4, lr}
    99b8:	e59f0010 	ldr	r0, [pc, #16]	; 99d0 <uart_can_putc+0x1c>
    99bc:	ebfff99a 	bl	802c <GET32>
    99c0:	e3100002 	tst	r0, #2, 0
    99c4:	13a00001 	movne	r0, #1, 0
    99c8:	03a00000 	moveq	r0, #0, 0
    99cc:	e8bd8010 	pop	{r4, pc}
    99d0:	20215064 	eorcs	r5, r1, r4, rrx

000099d4 <uart_getc>:
    99d4:	e92d4010 	push	{r4, lr}
    99d8:	eb000156 	bl	9f38 <dev_barrier>
    99dc:	ebffffee 	bl	999c <uart_can_getc>
    99e0:	e3500000 	cmp	r0, #0, 0
    99e4:	0afffffc 	beq	99dc <uart_getc+0x8>
    99e8:	e59f0010 	ldr	r0, [pc, #16]	; 9a00 <uart_getc+0x2c>
    99ec:	ebfff98e 	bl	802c <GET32>
    99f0:	e6ef4070 	uxtb	r4, r0
    99f4:	eb00014f 	bl	9f38 <dev_barrier>
    99f8:	e1a00004 	mov	r0, r4
    99fc:	e8bd8010 	pop	{r4, pc}
    9a00:	20215040 	eorcs	r5, r1, r0, asr #32

00009a04 <uart_putc>:
    9a04:	e92d4010 	push	{r4, lr}
    9a08:	e1a04000 	mov	r4, r0
    9a0c:	eb000149 	bl	9f38 <dev_barrier>
    9a10:	ebffffe7 	bl	99b4 <uart_can_putc>
    9a14:	e3500000 	cmp	r0, #0, 0
    9a18:	0afffffc 	beq	9a10 <uart_putc+0xc>
    9a1c:	e6ef1074 	uxtb	r1, r4
    9a20:	e59f0008 	ldr	r0, [pc, #8]	; 9a30 <uart_putc+0x2c>
    9a24:	ebfff97e 	bl	8024 <PUT32>
    9a28:	eb000142 	bl	9f38 <dev_barrier>
    9a2c:	e8bd8010 	pop	{r4, pc}
    9a30:	20215040 	eorcs	r5, r1, r0, asr #32

00009a34 <uart_has_data>:
    9a34:	e92d4010 	push	{r4, lr}
    9a38:	eb00013e 	bl	9f38 <dev_barrier>
    9a3c:	ebffffd6 	bl	999c <uart_can_getc>
    9a40:	e8bd8010 	pop	{r4, pc}

00009a44 <uart_tx_is_empty>:
    9a44:	e92d4010 	push	{r4, lr}
    9a48:	eb00013a 	bl	9f38 <dev_barrier>
    9a4c:	e59f000c 	ldr	r0, [pc, #12]	; 9a60 <uart_tx_is_empty+0x1c>
    9a50:	ebfff975 	bl	802c <GET32>
    9a54:	e1a004a0 	lsr	r0, r0, #9
    9a58:	e2000001 	and	r0, r0, #1, 0
    9a5c:	e8bd8010 	pop	{r4, pc}
    9a60:	20215064 	eorcs	r5, r1, r4, rrx

00009a64 <uart_flush_tx>:
    9a64:	e92d4010 	push	{r4, lr}
    9a68:	ebfffff5 	bl	9a44 <uart_tx_is_empty>
    9a6c:	e3500000 	cmp	r0, #0, 0
    9a70:	0afffffc 	beq	9a68 <uart_flush_tx+0x4>
    9a74:	e8bd8010 	pop	{r4, pc}

00009a78 <uart_disable>:
    9a78:	e92d4010 	push	{r4, lr}
    9a7c:	ebfffff8 	bl	9a64 <uart_flush_tx>
    9a80:	eb00012c 	bl	9f38 <dev_barrier>
    9a84:	e3e01001 	mvn	r1, #1, 0
    9a88:	e59f0008 	ldr	r0, [pc, #8]	; 9a98 <uart_disable+0x20>
    9a8c:	ebffff86 	bl	98ac <and_in32>
    9a90:	eb000128 	bl	9f38 <dev_barrier>
    9a94:	e8bd8010 	pop	{r4, pc}
    9a98:	20215004 	eorcs	r5, r1, r4

00009a9c <kmalloc_heap_end>:
    9a9c:	e59f3004 	ldr	r3, [pc, #4]	; 9aa8 <kmalloc_heap_end+0xc>
    9aa0:	e5930000 	ldr	r0, [r3]
    9aa4:	e12fff1e 	bx	lr
    9aa8:	0000ab1c 	andeq	sl, r0, ip, lsl fp

00009aac <kmalloc_heap_start>:
    9aac:	e59f3004 	ldr	r3, [pc, #4]	; 9ab8 <kmalloc_heap_start+0xc>
    9ab0:	e5930004 	ldr	r0, [r3, #4]
    9ab4:	e12fff1e 	bx	lr
    9ab8:	0000ab1c 	andeq	sl, r0, ip, lsl fp

00009abc <kmalloc_heap_ptr>:
    9abc:	e59f3004 	ldr	r3, [pc, #4]	; 9ac8 <kmalloc_heap_ptr+0xc>
    9ac0:	e5930008 	ldr	r0, [r3, #8]
    9ac4:	e12fff1e 	bx	lr
    9ac8:	0000ab1c 	andeq	sl, r0, ip, lsl fp

00009acc <kmalloc_init_set_start>:
    9acc:	e52de004 	push	{lr}		; (str lr, [sp, #-4]!)
    9ad0:	e24dd00c 	sub	sp, sp, #12, 0
    9ad4:	e3510000 	cmp	r1, #0, 0
    9ad8:	0a00000a 	beq	9b08 <kmalloc_init_set_start+0x3c>
    9adc:	e59f306c 	ldr	r3, [pc, #108]	; 9b50 <kmalloc_init_set_start+0x84>
    9ae0:	e5933008 	ldr	r3, [r3, #8]
    9ae4:	e1530000 	cmp	r3, r0
    9ae8:	8a00000e 	bhi	9b28 <kmalloc_init_set_start+0x5c>
    9aec:	e59f305c 	ldr	r3, [pc, #92]	; 9b50 <kmalloc_init_set_start+0x84>
    9af0:	e5830008 	str	r0, [r3, #8]
    9af4:	e5830004 	str	r0, [r3, #4]
    9af8:	e0800001 	add	r0, r0, r1
    9afc:	e5830000 	str	r0, [r3]
    9b00:	e28dd00c 	add	sp, sp, #12, 0
    9b04:	e49df004 	pop	{pc}		; (ldr pc, [sp], #4)
    9b08:	e59f3044 	ldr	r3, [pc, #68]	; 9b54 <kmalloc_init_set_start+0x88>
    9b0c:	e58d3000 	str	r3, [sp]
    9b10:	e3a03030 	mov	r3, #48, 0	; 0x30
    9b14:	e59f203c 	ldr	r2, [pc, #60]	; 9b58 <kmalloc_init_set_start+0x8c>
    9b18:	e59f103c 	ldr	r1, [pc, #60]	; 9b5c <kmalloc_init_set_start+0x90>
    9b1c:	e59f003c 	ldr	r0, [pc, #60]	; 9b60 <kmalloc_init_set_start+0x94>
    9b20:	ebfffd12 	bl	8f70 <printk>
    9b24:	ebffff04 	bl	973c <clean_reboot>
    9b28:	e59f3020 	ldr	r3, [pc, #32]	; 9b50 <kmalloc_init_set_start+0x84>
    9b2c:	e5933000 	ldr	r3, [r3]
    9b30:	e58d3004 	str	r3, [sp, #4]
    9b34:	e58d0000 	str	r0, [sp]
    9b38:	e3a03034 	mov	r3, #52, 0	; 0x34
    9b3c:	e59f2014 	ldr	r2, [pc, #20]	; 9b58 <kmalloc_init_set_start+0x8c>
    9b40:	e59f1014 	ldr	r1, [pc, #20]	; 9b5c <kmalloc_init_set_start+0x90>
    9b44:	e59f0018 	ldr	r0, [pc, #24]	; 9b64 <kmalloc_init_set_start+0x98>
    9b48:	ebfffd08 	bl	8f70 <printk>
    9b4c:	ebfffefa 	bl	973c <clean_reboot>
    9b50:	0000ab1c 	andeq	sl, r0, ip, lsl fp
    9b54:	0000a924 	andeq	sl, r0, r4, lsr #18
    9b58:	0000aab0 			; <UNDEFINED> instruction: 0x0000aab0
    9b5c:	0000a918 	andeq	sl, r0, r8, lsl r9
    9b60:	0000a08c 	andeq	sl, r0, ip, lsl #1
    9b64:	0000a930 	andeq	sl, r0, r0, lsr r9

00009b68 <kmalloc_init>:
    9b68:	e92d4010 	push	{r4, lr}
    9b6c:	e59f303c 	ldr	r3, [pc, #60]	; 9bb0 <kmalloc_init+0x48>
    9b70:	e5933000 	ldr	r3, [r3]
    9b74:	e3530000 	cmp	r3, #0, 0
    9b78:	1a000006 	bne	9b98 <kmalloc_init+0x30>
    9b7c:	e59f302c 	ldr	r3, [pc, #44]	; 9bb0 <kmalloc_init+0x48>
    9b80:	e3a02001 	mov	r2, #1, 0
    9b84:	e5832000 	str	r2, [r3]
    9b88:	e3a01201 	mov	r1, #268435456	; 0x10000000
    9b8c:	e3a00601 	mov	r0, #1048576	; 0x100000
    9b90:	ebffffcd 	bl	9acc <kmalloc_init_set_start>
    9b94:	e8bd8010 	pop	{r4, pc}
    9b98:	e3a03040 	mov	r3, #64, 0	; 0x40
    9b9c:	e59f2010 	ldr	r2, [pc, #16]	; 9bb4 <kmalloc_init+0x4c>
    9ba0:	e59f1010 	ldr	r1, [pc, #16]	; 9bb8 <kmalloc_init+0x50>
    9ba4:	e59f0010 	ldr	r0, [pc, #16]	; 9bbc <kmalloc_init+0x54>
    9ba8:	ebfffcf0 	bl	8f70 <printk>
    9bac:	ebfffee2 	bl	973c <clean_reboot>
    9bb0:	0000af58 	andeq	sl, r0, r8, asr pc
    9bb4:	0000aac8 	andeq	sl, r0, r8, asr #21
    9bb8:	0000a918 	andeq	sl, r0, r8, lsl r9
    9bbc:	0000a974 	andeq	sl, r0, r4, ror r9

00009bc0 <kmalloc_notzero>:
    9bc0:	e52de004 	push	{lr}		; (str lr, [sp, #-4]!)
    9bc4:	e24dd00c 	sub	sp, sp, #12, 0
    9bc8:	e3500000 	cmp	r0, #0, 0
    9bcc:	0a00000a 	beq	9bfc <kmalloc_notzero+0x3c>
    9bd0:	e2800007 	add	r0, r0, #7, 0
    9bd4:	e3c03007 	bic	r3, r0, #7, 0
    9bd8:	e59f2060 	ldr	r2, [pc, #96]	; 9c40 <kmalloc_notzero+0x80>
    9bdc:	e5920008 	ldr	r0, [r2, #8]
    9be0:	e0801003 	add	r1, r0, r3
    9be4:	e5821008 	str	r1, [r2, #8]
    9be8:	e5922000 	ldr	r2, [r2]
    9bec:	e1510002 	cmp	r1, r2
    9bf0:	8a000009 	bhi	9c1c <kmalloc_notzero+0x5c>
    9bf4:	e28dd00c 	add	sp, sp, #12, 0
    9bf8:	e49df004 	pop	{pc}		; (ldr pc, [sp], #4)
    9bfc:	e59f3040 	ldr	r3, [pc, #64]	; 9c44 <kmalloc_notzero+0x84>
    9c00:	e58d3000 	str	r3, [sp]
    9c04:	e3a03048 	mov	r3, #72, 0	; 0x48
    9c08:	e59f2038 	ldr	r2, [pc, #56]	; 9c48 <kmalloc_notzero+0x88>
    9c0c:	e59f1038 	ldr	r1, [pc, #56]	; 9c4c <kmalloc_notzero+0x8c>
    9c10:	e59f0038 	ldr	r0, [pc, #56]	; 9c50 <kmalloc_notzero+0x90>
    9c14:	ebfffcd5 	bl	8f70 <printk>
    9c18:	ebfffec7 	bl	973c <clean_reboot>
    9c1c:	e0422000 	sub	r2, r2, r0
    9c20:	e58d2004 	str	r2, [sp, #4]
    9c24:	e58d3000 	str	r3, [sp]
    9c28:	e3a0304e 	mov	r3, #78, 0	; 0x4e
    9c2c:	e59f2014 	ldr	r2, [pc, #20]	; 9c48 <kmalloc_notzero+0x88>
    9c30:	e59f1014 	ldr	r1, [pc, #20]	; 9c4c <kmalloc_notzero+0x8c>
    9c34:	e59f0018 	ldr	r0, [pc, #24]	; 9c54 <kmalloc_notzero+0x94>
    9c38:	ebfffccc 	bl	8f70 <printk>
    9c3c:	ebfffebe 	bl	973c <clean_reboot>
    9c40:	0000ab1c 	andeq	sl, r0, ip, lsl fp
    9c44:	0000a928 	andeq	sl, r0, r8, lsr #18
    9c48:	0000aad8 	ldrdeq	sl, [r0], -r8
    9c4c:	0000a918 	andeq	sl, r0, r8, lsl r9
    9c50:	0000a08c 	andeq	sl, r0, ip, lsl #1
    9c54:	0000a9a4 	andeq	sl, r0, r4, lsr #19

00009c58 <kmalloc>:
    9c58:	e92d4030 	push	{r4, r5, lr}
    9c5c:	e24dd00c 	sub	sp, sp, #12, 0
    9c60:	e2504000 	subs	r4, r0, #0, 0
    9c64:	0a000008 	beq	9c8c <kmalloc+0x34>
    9c68:	e1a00004 	mov	r0, r4
    9c6c:	ebffffd3 	bl	9bc0 <kmalloc_notzero>
    9c70:	e1a05000 	mov	r5, r0
    9c74:	e1a02004 	mov	r2, r4
    9c78:	e3a01000 	mov	r1, #0, 0
    9c7c:	ebfffcb5 	bl	8f58 <memset>
    9c80:	e1a00005 	mov	r0, r5
    9c84:	e28dd00c 	add	sp, sp, #12, 0
    9c88:	e8bd8030 	pop	{r4, r5, pc}
    9c8c:	e59f3018 	ldr	r3, [pc, #24]	; 9cac <kmalloc+0x54>
    9c90:	e58d3000 	str	r3, [sp]
    9c94:	e3a03054 	mov	r3, #84, 0	; 0x54
    9c98:	e59f2010 	ldr	r2, [pc, #16]	; 9cb0 <kmalloc+0x58>
    9c9c:	e59f1010 	ldr	r1, [pc, #16]	; 9cb4 <kmalloc+0x5c>
    9ca0:	e59f0010 	ldr	r0, [pc, #16]	; 9cb8 <kmalloc+0x60>
    9ca4:	ebfffcb1 	bl	8f70 <printk>
    9ca8:	ebfffea3 	bl	973c <clean_reboot>
    9cac:	0000a928 	andeq	sl, r0, r8, lsr #18
    9cb0:	0000aae8 	andeq	sl, r0, r8, ror #21
    9cb4:	0000a918 	andeq	sl, r0, r8, lsl r9
    9cb8:	0000a08c 	andeq	sl, r0, ip, lsl #1

00009cbc <kmalloc_aligned>:
    9cbc:	e52de004 	push	{lr}		; (str lr, [sp, #-4]!)
    9cc0:	e24dd00c 	sub	sp, sp, #12, 0
    9cc4:	e3500000 	cmp	r0, #0, 0
    9cc8:	0a000014 	beq	9d20 <kmalloc_aligned+0x64>
    9ccc:	e2613000 	rsb	r3, r1, #0, 0
    9cd0:	e1d13003 	bics	r3, r1, r3
    9cd4:	1a000019 	bne	9d40 <kmalloc_aligned+0x84>
    9cd8:	e3510008 	cmp	r1, #8, 0
    9cdc:	33a01008 	movcc	r1, #8, 0
    9ce0:	e59f30c0 	ldr	r3, [pc, #192]	; 9da8 <kmalloc_aligned+0xec>
    9ce4:	e5932008 	ldr	r2, [r3, #8]
    9ce8:	e2613000 	rsb	r3, r1, #0, 0
    9cec:	e1d1c003 	bics	ip, r1, r3
    9cf0:	1a00001b 	bne	9d64 <kmalloc_aligned+0xa8>
    9cf4:	e0822001 	add	r2, r2, r1
    9cf8:	e2422001 	sub	r2, r2, #1, 0
    9cfc:	e0033002 	and	r3, r3, r2
    9d00:	e2411001 	sub	r1, r1, #1, 0
    9d04:	e1110003 	tst	r1, r3
    9d08:	1a00001d 	bne	9d84 <kmalloc_aligned+0xc8>
    9d0c:	e59f2094 	ldr	r2, [pc, #148]	; 9da8 <kmalloc_aligned+0xec>
    9d10:	e5823008 	str	r3, [r2, #8]
    9d14:	ebffffcf 	bl	9c58 <kmalloc>
    9d18:	e28dd00c 	add	sp, sp, #12, 0
    9d1c:	e49df004 	pop	{pc}		; (ldr pc, [sp], #4)
    9d20:	e59f3084 	ldr	r3, [pc, #132]	; 9dac <kmalloc_aligned+0xf0>
    9d24:	e58d3000 	str	r3, [sp]
    9d28:	e3a0305f 	mov	r3, #95, 0	; 0x5f
    9d2c:	e59f207c 	ldr	r2, [pc, #124]	; 9db0 <kmalloc_aligned+0xf4>
    9d30:	e59f107c 	ldr	r1, [pc, #124]	; 9db4 <kmalloc_aligned+0xf8>
    9d34:	e59f007c 	ldr	r0, [pc, #124]	; 9db8 <kmalloc_aligned+0xfc>
    9d38:	ebfffc8c 	bl	8f70 <printk>
    9d3c:	ebfffe7e 	bl	973c <clean_reboot>
    9d40:	eb000046 	bl	9e60 <rpi_reset_putc>
    9d44:	e59f3070 	ldr	r3, [pc, #112]	; 9dbc <kmalloc_aligned+0x100>
    9d48:	e58d3000 	str	r3, [sp]
    9d4c:	e3a03060 	mov	r3, #96, 0	; 0x60
    9d50:	e59f2058 	ldr	r2, [pc, #88]	; 9db0 <kmalloc_aligned+0xf4>
    9d54:	e59f1058 	ldr	r1, [pc, #88]	; 9db4 <kmalloc_aligned+0xf8>
    9d58:	e59f0060 	ldr	r0, [pc, #96]	; 9dc0 <kmalloc_aligned+0x104>
    9d5c:	ebfffc83 	bl	8f70 <printk>
    9d60:	ebfffe75 	bl	973c <clean_reboot>
    9d64:	e59f3058 	ldr	r3, [pc, #88]	; 9dc4 <kmalloc_aligned+0x108>
    9d68:	e58d3000 	str	r3, [sp]
    9d6c:	e3a03011 	mov	r3, #17, 0
    9d70:	e59f2050 	ldr	r2, [pc, #80]	; 9dc8 <kmalloc_aligned+0x10c>
    9d74:	e59f1038 	ldr	r1, [pc, #56]	; 9db4 <kmalloc_aligned+0xf8>
    9d78:	e59f0038 	ldr	r0, [pc, #56]	; 9db8 <kmalloc_aligned+0xfc>
    9d7c:	ebfffc7b 	bl	8f70 <printk>
    9d80:	ebfffe6d 	bl	973c <clean_reboot>
    9d84:	eb000035 	bl	9e60 <rpi_reset_putc>
    9d88:	e59f303c 	ldr	r3, [pc, #60]	; 9dcc <kmalloc_aligned+0x110>
    9d8c:	e58d3000 	str	r3, [sp]
    9d90:	e3a03068 	mov	r3, #104, 0	; 0x68
    9d94:	e59f2014 	ldr	r2, [pc, #20]	; 9db0 <kmalloc_aligned+0xf4>
    9d98:	e59f1014 	ldr	r1, [pc, #20]	; 9db4 <kmalloc_aligned+0xf8>
    9d9c:	e59f002c 	ldr	r0, [pc, #44]	; 9dd0 <kmalloc_aligned+0x114>
    9da0:	ebfffc72 	bl	8f70 <printk>
    9da4:	ebfffe64 	bl	973c <clean_reboot>
    9da8:	0000ab1c 	andeq	sl, r0, ip, lsl fp
    9dac:	0000a928 	andeq	sl, r0, r8, lsr #18
    9db0:	0000aaf0 	strdeq	sl, [r0], -r0
    9db4:	0000a918 	andeq	sl, r0, r8, lsl r9
    9db8:	0000a08c 	andeq	sl, r0, ip, lsl #1
    9dbc:	0000aa18 	andeq	sl, r0, r8, lsl sl
    9dc0:	0000a9e4 	andeq	sl, r0, r4, ror #19
    9dc4:	0000aa2c 	andeq	sl, r0, ip, lsr #20
    9dc8:	0000ab00 	andeq	sl, r0, r0, lsl #22
    9dcc:	0000aa64 	andeq	sl, r0, r4, ror #20
    9dd0:	0000aa38 	andeq	sl, r0, r8, lsr sl

00009dd4 <kfree>:
    9dd4:	e12fff1e 	bx	lr

00009dd8 <kfree_all>:
    9dd8:	e59f3008 	ldr	r3, [pc, #8]	; 9de8 <kfree_all+0x10>
    9ddc:	e5932004 	ldr	r2, [r3, #4]
    9de0:	e5832008 	str	r2, [r3, #8]
    9de4:	e12fff1e 	bx	lr
    9de8:	0000ab1c 	andeq	sl, r0, ip, lsl fp

00009dec <kfree_pop>:
    9dec:	e59f3048 	ldr	r3, [pc, #72]	; 9e3c <kfree_pop+0x50>
    9df0:	e5933004 	ldr	r3, [r3, #4]
    9df4:	e1530000 	cmp	r3, r0
    9df8:	8a000006 	bhi	9e18 <kfree_pop+0x2c>
    9dfc:	e59f3038 	ldr	r3, [pc, #56]	; 9e3c <kfree_pop+0x50>
    9e00:	e5933000 	ldr	r3, [r3]
    9e04:	e1530000 	cmp	r3, r0
    9e08:	3a000002 	bcc	9e18 <kfree_pop+0x2c>
    9e0c:	e59f3028 	ldr	r3, [pc, #40]	; 9e3c <kfree_pop+0x50>
    9e10:	e5830008 	str	r0, [r3, #8]
    9e14:	e12fff1e 	bx	lr
    9e18:	e52de004 	push	{lr}		; (str lr, [sp, #-4]!)
    9e1c:	e24dd00c 	sub	sp, sp, #12, 0
    9e20:	e58d0000 	str	r0, [sp]
    9e24:	e3a03077 	mov	r3, #119, 0	; 0x77
    9e28:	e59f2010 	ldr	r2, [pc, #16]	; 9e40 <kfree_pop+0x54>
    9e2c:	e59f1010 	ldr	r1, [pc, #16]	; 9e44 <kfree_pop+0x58>
    9e30:	e59f0010 	ldr	r0, [pc, #16]	; 9e48 <kfree_pop+0x5c>
    9e34:	ebfffc4d 	bl	8f70 <printk>
    9e38:	ebfffe3f 	bl	973c <clean_reboot>
    9e3c:	0000ab1c 	andeq	sl, r0, ip, lsl fp
    9e40:	0000ab08 	andeq	sl, r0, r8, lsl #22
    9e44:	0000a918 	andeq	sl, r0, r8, lsl r9
    9e48:	0000aa80 	andeq	sl, r0, r0, lsl #21

00009e4c <internal_putchar>:
    9e4c:	e92d4010 	push	{r4, lr}
    9e50:	e1a04000 	mov	r4, r0
    9e54:	ebfffeea 	bl	9a04 <uart_putc>
    9e58:	e1a00004 	mov	r0, r4
    9e5c:	e8bd8010 	pop	{r4, pc}

00009e60 <rpi_reset_putc>:
    9e60:	e59f3008 	ldr	r3, [pc, #8]	; 9e70 <rpi_reset_putc+0x10>
    9e64:	e59f2008 	ldr	r2, [pc, #8]	; 9e74 <rpi_reset_putc+0x14>
    9e68:	e5832000 	str	r2, [r3]
    9e6c:	e12fff1e 	bx	lr
    9e70:	0000ab28 	andeq	sl, r0, r8, lsr #22
    9e74:	00009e4c 	andeq	r9, r0, ip, asr #28

00009e78 <rpi_set_putc>:
    9e78:	e59f3004 	ldr	r3, [pc, #4]	; 9e84 <rpi_set_putc+0xc>
    9e7c:	e5830000 	str	r0, [r3]
    9e80:	e12fff1e 	bx	lr
    9e84:	0000ab28 	andeq	sl, r0, r8, lsr #22

00009e88 <strcat>:
    9e88:	e1a02000 	mov	r2, r0
    9e8c:	e1a03002 	mov	r3, r2
    9e90:	e2822001 	add	r2, r2, #1, 0
    9e94:	e5d3c000 	ldrb	ip, [r3]
    9e98:	e35c0000 	cmp	ip, #0, 0
    9e9c:	1afffffa 	bne	9e8c <strcat+0x4>
    9ea0:	e2433001 	sub	r3, r3, #1, 0
    9ea4:	e5d12000 	ldrb	r2, [r1]
    9ea8:	e2811001 	add	r1, r1, #1, 0
    9eac:	e5e32001 	strb	r2, [r3, #1]!
    9eb0:	e3520000 	cmp	r2, #0, 0
    9eb4:	1afffffa 	bne	9ea4 <strcat+0x1c>
    9eb8:	e12fff1e 	bx	lr

00009ebc <strcmp>:
    9ebc:	e5d03000 	ldrb	r3, [r0]
    9ec0:	e3530000 	cmp	r3, #0, 0
    9ec4:	0a000004 	beq	9edc <strcmp+0x20>
    9ec8:	e5d12000 	ldrb	r2, [r1]
    9ecc:	e1530002 	cmp	r3, r2
    9ed0:	02800001 	addeq	r0, r0, #1, 0
    9ed4:	02811001 	addeq	r1, r1, #1, 0
    9ed8:	0afffff7 	beq	9ebc <strcmp>
    9edc:	e5d10000 	ldrb	r0, [r1]
    9ee0:	e0430000 	sub	r0, r3, r0
    9ee4:	e12fff1e 	bx	lr

00009ee8 <strcpy>:
    9ee8:	e1a0c000 	mov	ip, r0
    9eec:	e5d12000 	ldrb	r2, [r1]
    9ef0:	e2811001 	add	r1, r1, #1, 0
    9ef4:	e5cc2000 	strb	r2, [ip]
    9ef8:	e28cc001 	add	ip, ip, #1, 0
    9efc:	e3520000 	cmp	r2, #0, 0
    9f00:	1afffff9 	bne	9eec <strcpy+0x4>
    9f04:	e12fff1e 	bx	lr

00009f08 <strncmp>:
    9f08:	e3520000 	cmp	r2, #0, 0
    9f0c:	e2422001 	sub	r2, r2, #1, 0
    9f10:	0a000005 	beq	9f2c <strncmp+0x24>
    9f14:	e4d03001 	ldrb	r3, [r0], #1
    9f18:	e4d1c001 	ldrb	ip, [r1], #1
    9f1c:	e153000c 	cmp	r3, ip
    9f20:	0afffff8 	beq	9f08 <strncmp>
    9f24:	e043000c 	sub	r0, r3, ip
    9f28:	e12fff1e 	bx	lr
    9f2c:	e3a00000 	mov	r0, #0, 0
    9f30:	e12fff1e 	bx	lr

00009f34 <reboot_callout>:
    9f34:	e12fff1e 	bx	lr

00009f38 <dev_barrier>:
    9f38:	ea000002 	b	9f48 <dsb>

00009f3c <dmb>:
    9f3c:	e3a00000 	mov	r0, #0, 0
    9f40:	ee070fba 	mcr	15, 0, r0, cr7, cr10, {5}
    9f44:	e12fff1e 	bx	lr

00009f48 <dsb>:
    9f48:	ee070f9a 	mcr	15, 0, r0, cr7, cr10, {4}
    9f4c:	e12fff1e 	bx	lr

00009f50 <gpio_set_function>:
    9f50:	e350001f 	cmp	r0, #31, 0
    9f54:	812fff1e 	bxhi	lr
    9f58:	e92d4070 	push	{r4, r5, r6, lr}
    9f5c:	e1a05001 	mov	r5, r1
    9f60:	e3d13007 	bics	r3, r1, #7, 0
    9f64:	18bd8070 	popne	{r4, r5, r6, pc}
    9f68:	e59f3040 	ldr	r3, [pc, #64]	; 9fb0 <gpio_set_function+0x60>
    9f6c:	e0832093 	umull	r2, r3, r3, r0
    9f70:	e1a031a3 	lsr	r3, r3, #3
    9f74:	e1a02003 	mov	r2, r3
    9f78:	e0833103 	add	r3, r3, r3, lsl #2
    9f7c:	e0403083 	sub	r3, r0, r3, lsl #1
    9f80:	e0834083 	add	r4, r3, r3, lsl #1
    9f84:	e2820302 	add	r0, r2, #134217728	; 0x8000000
    9f88:	e2800702 	add	r0, r0, #524288	; 0x80000
    9f8c:	e1a06100 	lsl	r6, r0, #2
    9f90:	e1a00006 	mov	r0, r6
    9f94:	ebfff824 	bl	802c <GET32>
    9f98:	e3a01007 	mov	r1, #7, 0
    9f9c:	e1c01411 	bic	r1, r0, r1, lsl r4
    9fa0:	e1811415 	orr	r1, r1, r5, lsl r4
    9fa4:	e1a00006 	mov	r0, r6
    9fa8:	ebfff81d 	bl	8024 <PUT32>
    9fac:	e8bd8070 	pop	{r4, r5, r6, pc}
    9fb0:	cccccccd 	stclgt	12, cr12, [ip], {205}	; 0xcd

00009fb4 <gpio_set_output>:
    9fb4:	e92d4010 	push	{r4, lr}
    9fb8:	e3a01001 	mov	r1, #1, 0
    9fbc:	ebffffe3 	bl	9f50 <gpio_set_function>
    9fc0:	e8bd8010 	pop	{r4, pc}

00009fc4 <gpio_set_on>:
    9fc4:	e350001f 	cmp	r0, #31, 0
    9fc8:	812fff1e 	bxhi	lr
    9fcc:	e92d4010 	push	{r4, lr}
    9fd0:	e3a01001 	mov	r1, #1, 0
    9fd4:	e1a01011 	lsl	r1, r1, r0
    9fd8:	e59f0004 	ldr	r0, [pc, #4]	; 9fe4 <gpio_set_on+0x20>
    9fdc:	ebfff810 	bl	8024 <PUT32>
    9fe0:	e8bd8010 	pop	{r4, pc}
    9fe4:	2020001c 	eorcs	r0, r0, ip, lsl r0

00009fe8 <gpio_set_off>:
    9fe8:	e350001f 	cmp	r0, #31, 0
    9fec:	812fff1e 	bxhi	lr
    9ff0:	e92d4010 	push	{r4, lr}
    9ff4:	e3a01001 	mov	r1, #1, 0
    9ff8:	e1a01011 	lsl	r1, r1, r0
    9ffc:	e59f0004 	ldr	r0, [pc, #4]	; a008 <gpio_set_off+0x20>
    a000:	ebfff807 	bl	8024 <PUT32>
    a004:	e8bd8010 	pop	{r4, pc}
    a008:	20200028 	eorcs	r0, r0, r8, lsr #32

0000a00c <gpio_set_input>:
    a00c:	e92d4010 	push	{r4, lr}
    a010:	e3a01000 	mov	r1, #0, 0
    a014:	ebffffcd 	bl	9f50 <gpio_set_function>
    a018:	e8bd8010 	pop	{r4, pc}

0000a01c <gpio_write>:
    a01c:	e92d4010 	push	{r4, lr}
    a020:	e3510000 	cmp	r1, #0, 0
    a024:	0a000001 	beq	a030 <gpio_write+0x14>
    a028:	ebffffe5 	bl	9fc4 <gpio_set_on>
    a02c:	e8bd8010 	pop	{r4, pc}
    a030:	ebffffec 	bl	9fe8 <gpio_set_off>
    a034:	e8bd8010 	pop	{r4, pc}

0000a038 <gpio_read>:
    a038:	e350001f 	cmp	r0, #31, 0
    a03c:	8a000007 	bhi	a060 <gpio_read+0x28>
    a040:	e92d4010 	push	{r4, lr}
    a044:	e200401f 	and	r4, r0, #31, 0
    a048:	e59f3018 	ldr	r3, [pc, #24]	; a068 <gpio_read+0x30>
    a04c:	e08302a0 	add	r0, r3, r0, lsr #5
    a050:	ebfff7f5 	bl	802c <GET32>
    a054:	e1a00430 	lsr	r0, r0, r4
    a058:	e2000001 	and	r0, r0, #1, 0
    a05c:	e8bd8010 	pop	{r4, pc}
    a060:	e3e00000 	mvn	r0, #0, 0
    a064:	e12fff1e 	bx	lr
    a068:	20200034 	eorcs	r0, r0, r4, lsr r0

0000a06c <__code_end__>:
    a06c:	00000000 	andeq	r0, r0, r0

Disassembly of section .rodata:

0000a070 <__FUNCTION__.4040-0x158>:
    a070:	74736574 	ldrbtvc	r6, [r3], #-1396	; 0xfffffa8c
    a074:	2e332d73 	mrccs	13, 1, r2, cr3, cr3, {3}
    a078:	61702f30 	cmnvs	r0, r0, lsr pc
    a07c:	2d327472 	cfldrscs	mvf7, [r2, #-456]!	; 0xfffffe38
    a080:	74736574 	ldrbtvc	r6, [r3], #-1396	; 0xfffffa8c
    a084:	63672d35 	cmnvs	r7, #3392	; 0xd40
    a088:	0000632e 	andeq	r6, r0, lr, lsr #6
    a08c:	494e4150 	stmdbmi	lr, {r4, r6, r8, lr}^
    a090:	73253a43 			; <UNDEFINED> instruction: 0x73253a43
    a094:	3a73253a 	bcc	1cd3584 <__bss_end__+0x1cc8624>
    a098:	253a6425 	ldrcs	r6, [sl, #-1061]!	; 0xfffffbdb
    a09c:	00000a73 	andeq	r0, r0, r3, ror sl
    a0a0:	3e2d6821 	cdpcc	8, 2, cr6, cr13, cr1, {1}
    a0a4:	76657270 			; <UNDEFINED> instruction: 0x76657270
    a0a8:	00000000 	andeq	r0, r0, r0
    a0ac:	43415254 	movtmi	r5, #4692	; 0x1254
    a0b0:	61683a45 	cmnvs	r8, r5, asr #20
    a0b4:	61206576 			; <UNDEFINED> instruction: 0x61206576
    a0b8:	76696c20 	strbtvc	r6, [r9], -r0, lsr #24
    a0bc:	6f702065 	svcvs	0x00702065
    a0c0:	65746e69 	ldrbvs	r6, [r4, #-3689]!	; 0xfffff197
    a0c4:	683c2072 	ldmdavs	ip!, {r1, r4, r5, r6, sp}
    a0c8:	73203a3e 			; <UNDEFINED> instruction: 0x73203a3e
    a0cc:	6c756f68 	ldclvs	15, cr6, [r5], #-416	; 0xfffffe60
    a0d0:	6f6e2064 	svcvs	0x006e2064
    a0d4:	656c2074 	strbvs	r2, [ip, #-116]!	; 0xffffff8c
    a0d8:	000a6b61 	andeq	r6, sl, r1, ror #22
    a0dc:	74204347 	strtvc	r4, [r0], #-839	; 0xfffffcb9
    a0e0:	3a747365 	bcc	1d26e7c <__bss_end__+0x1d1bf1c>
    a0e4:	65686320 	strbvs	r6, [r8, #-800]!	; 0xfffffce0
    a0e8:	6e696b63 	vnmulvs.f64	d22, d9, d19
    a0ec:	68742067 	ldmdavs	r4!, {r0, r1, r2, r5, r6, sp}^
    a0f0:	61207461 			; <UNDEFINED> instruction: 0x61207461
    a0f4:	756f6420 	strbvc	r6, [pc, #-1056]!	; 9cdc <kmalloc_aligned+0x20>
    a0f8:	2d796c62 	ldclcs	12, cr6, [r9, #-392]!	; 0xfffffe78
    a0fc:	6b6e696c 	blvs	1ba46b4 <__bss_end__+0x1b99754>
    a100:	6c206465 	cfstrsvs	mvf6, [r0], #-404	; 0xfffffe6c
    a104:	20747369 	rsbscs	r7, r4, r9, ror #6
    a108:	68207369 	stmdavs	r0!, {r0, r3, r5, r6, r8, r9, ip, sp, lr}
    a10c:	6c646e61 	stclvs	14, cr6, [r4], #-388	; 0xfffffe7c
    a110:	0a2e6465 	beq	ba32ac <__bss_end__+0xb9834c>
    a114:	00000000 	andeq	r0, r0, r0
    a118:	43415254 	movtmi	r5, #4692	; 0x1254
    a11c:	68733a45 	ldmdavs	r3!, {r0, r2, r6, r9, fp, ip, sp}^
    a120:	646c756f 	strbtvs	r7, [ip], #-1391	; 0xfffffa91
    a124:	61656c20 	cmnvs	r5, r0, lsr #24
    a128:	00000a6b 	andeq	r0, r0, fp, ror #20
    a12c:	43415254 	movtmi	r5, #4692	; 0x1254
    a130:	6f633a45 	svcvs	0x00633a45
    a134:	6361706d 	cmnvs	r1, #109, 0	; 0x6d
    a138:	20646574 	rsbcs	r6, r4, r4, ror r5
    a13c:	6e5b203d 	mrcvs	0, 2, r2, cr11, cr13, {1}
    a140:	65747962 	ldrbvs	r7, [r4, #-2402]!	; 0xfffff69e
    a144:	64253d73 	strtvs	r3, [r5], #-3443	; 0xfffff28d
    a148:	00000a5d 	andeq	r0, r0, sp, asr sl
    a14c:	756f6873 	strbvc	r6, [pc, #-2163]!	; 98e1 <or_in32+0x15>
    a150:	6620646c 	strtvs	r6, [r0], -ip, ror #8
    a154:	20646e69 	rsbcs	r6, r4, r9, ror #28
    a158:	79622030 	stmdbvc	r2!, {r4, r5, sp}^
    a15c:	20736574 	rsbscs	r6, r3, r4, ror r5
    a160:	73206e6f 			; <UNDEFINED> instruction: 0x73206e6f
    a164:	6e6f6365 	cdpvs	3, 6, cr6, cr15, cr5, {3}
    a168:	63672064 	cmnvs	r7, #100, 0	; 0x64
    a16c:	0000000a 	andeq	r0, r0, sl
    a170:	494e4150 	stmdbmi	lr, {r4, r6, r8, lr}^
    a174:	73253a43 			; <UNDEFINED> instruction: 0x73253a43
    a178:	3a73253a 	bcc	1cd3668 <__bss_end__+0x1cc8708>
    a17c:	613a6425 	teqvs	sl, r5, lsr #8
    a180:	63657320 	cmnvs	r5, #32, 6	; 0x80000000
    a184:	20646e6f 	rsbcs	r6, r4, pc, ror #28
    a188:	73206367 			; <UNDEFINED> instruction: 0x73206367
    a18c:	6c756f68 	ldclvs	15, cr6, [r5], #-416	; 0xfffffe60
    a190:	72662064 	rsbvc	r2, r6, #100, 0	; 0x64
    a194:	30206565 	eorcc	r6, r0, r5, ror #10
    a198:	74796220 	ldrbtvc	r6, [r9], #-544	; 0xfffffde0
    a19c:	203a7365 	eorscs	r7, sl, r5, ror #6
    a1a0:	6e756f66 	cdpvs	15, 7, cr6, cr5, cr6, {3}
    a1a4:	64252064 	strtvs	r2, [r5], #-100	; 0xffffff9c
    a1a8:	00000a0a 	andeq	r0, r0, sl, lsl #20
    a1ac:	43415254 	movtmi	r5, #4692	; 0x1254
    a1b0:	68733a45 	ldmdavs	r3!, {r0, r2, r6, r9, fp, ip, sp}^
    a1b4:	646c756f 	strbtvs	r7, [ip], #-1391	; 0xfffffa91
    a1b8:	6e696620 	cdpvs	6, 6, cr6, cr9, cr0, {1}
    a1bc:	6f6e2064 	svcvs	0x006e2064
    a1c0:	61656c20 	cmnvs	r5, r0, lsr #24
    a1c4:	00000a6b 	andeq	r0, r0, fp, ror #20

0000a1c8 <__FUNCTION__.4040>:
    a1c8:	74736574 	ldrbtvc	r6, [r3], #-1396	; 0xfffffa8c
    a1cc:	00000000 	andeq	r0, r0, r0

0000a1d0 <__FUNCTION__.4051>:
    a1d0:	6d746f6e 	ldclvs	15, cr6, [r4, #-440]!	; 0xfffffe48
    a1d4:	006e6961 	rsbeq	r6, lr, r1, ror #18
    a1d8:	6c616b63 			; <UNDEFINED> instruction: 0x6c616b63
    a1dc:	2e636f6c 	cdpcs	15, 6, cr6, cr3, cr12, {3}
    a1e0:	00000063 	andeq	r0, r0, r3, rrx
    a1e4:	0000006c 	andeq	r0, r0, ip, rrx
    a1e8:	43415254 	movtmi	r5, #4692	; 0x1254
    a1ec:	6f663a45 	svcvs	0x00663a45
    a1f0:	20646e75 	rsbcs	r6, r4, r5, ror lr
    a1f4:	69207025 	stmdbvs	r0!, {r0, r2, r5, ip, sp, lr}
    a1f8:	7025206e 	eorvc	r2, r5, lr, rrx
    a1fc:	0000000a 	andeq	r0, r0, sl
    a200:	43415254 	movtmi	r5, #4692	; 0x1254
    a204:	6f663a45 	svcvs	0x00663a45
    a208:	20646e75 	rsbcs	r6, r4, r5, ror lr
    a20c:	6f6c6c61 	svcvs	0x006c6c61
    a210:	65746163 	ldrbvs	r6, [r4, #-355]!	; 0xfffffe9d
    a214:	70252064 	eorvc	r2, r5, r4, rrx
    a218:	206e6920 	rsbcs	r6, lr, r0, lsr #18
    a21c:	000a7025 	andeq	r7, sl, r5, lsr #32
    a220:	43415254 	movtmi	r5, #4692	; 0x1254
    a224:	68633a45 	stmdavs	r3!, {r0, r2, r6, r9, fp, ip, sp}^
    a228:	696b6365 	stmdbvs	fp!, {r0, r2, r5, r6, r8, r9, sp, lr}^
    a22c:	6820676e 	stmdavs	r0!, {r1, r2, r3, r5, r6, r8, r9, sl, sp, lr}
    a230:	20706165 	rsbscs	r6, r0, r5, ror #2
    a234:	20726f66 	rsbscs	r6, r2, r6, ror #30
    a238:	6f727265 	svcvs	0x00727265
    a23c:	2e2e7372 	mcrcs	3, 1, r7, cr14, cr2, {3}
    a240:	00000a2e 	andeq	r0, r0, lr, lsr #20
    a244:	43415254 	movtmi	r5, #4692	; 0x1254
    a248:	65723a45 	ldrbvs	r3, [r2, #-2629]!	; 0xfffff5bb
    a24c:	6e6f7a64 	vnmulvs.f32	s15, s30, s9
    a250:	69207365 	stmdbvs	r0!, {r0, r2, r5, r6, r8, r9, ip, sp, lr}
    a254:	6d72636e 	ldclvs	3, cr6, [r2, #-440]!	; 0xfffffe48
    a258:	69746e65 	ldmdbvs	r4!, {r0, r2, r5, r6, r9, sl, fp, sp, lr}^
    a25c:	6520676e 	strvs	r6, [r0, #-1902]!	; 0xfffff892
    a260:	736f7272 	cmnvc	pc, #536870919	; 0x20000007
    a264:	00000000 	andeq	r0, r0, r0
    a268:	43415254 	movtmi	r5, #4692	; 0x1254
    a26c:	64753a45 	ldrbtvs	r3, [r5], #-2629	; 0xfffff5bb
    a270:	20617461 	rsbcs	r7, r1, r1, ror #8
    a274:	72636e69 	rsbvc	r6, r3, #1680	; 0x690
    a278:	6e656d65 	cdpvs	13, 6, cr6, cr5, cr5, {3}
    a27c:	676e6974 			; <UNDEFINED> instruction: 0x676e6974
    a280:	72726520 	rsbsvc	r6, r2, #32, 10	; 0x8000000
    a284:	000a2e73 	andeq	r2, sl, r3, ror lr
    a288:	5f434f4c 	svcpl	0x00434f4c
    a28c:	494e4150 	stmdbmi	lr, {r4, r6, r8, lr}^
    a290:	25203a43 	strcs	r3, [r0, #-2627]!	; 0xfffff5bd
    a294:	73253a73 			; <UNDEFINED> instruction: 0x73253a73
    a298:	3a64253a 	bcc	1913788 <__bss_end__+0x1908828>
    a29c:	00000000 	andeq	r0, r0, r0
    a2a0:	65657266 	strbvs	r7, [r5, #-614]!	; 0xfffffd9a
    a2a4:	20676e69 	rsbcs	r6, r7, r9, ror #28
    a2a8:	6c616e75 	stclvs	14, cr6, [r1], #-468	; 0xfffffe2c
    a2ac:	61636f6c 	cmnvs	r3, ip, ror #30
    a2b0:	20646574 	rsbcs	r6, r4, r4, ror r5
    a2b4:	6f6d656d 	svcvs	0x006d656d
    a2b8:	203a7972 	eorscs	r7, sl, r2, ror r9
    a2bc:	6464615b 	strbtvs	r6, [r4], #-347	; 0xfffffea5
    a2c0:	203d2072 	eorscs	r2, sp, r2, ror r0
    a2c4:	73207025 			; <UNDEFINED> instruction: 0x73207025
    a2c8:	65746174 	ldrbvs	r6, [r4, #-372]!	; 0xfffffe8c
    a2cc:	5d64253d 	cfstr64pl	mvdx2, [r4, #-244]!	; 0xffffff0c
    a2d0:	0000000a 	andeq	r0, r0, sl
    a2d4:	253a7325 	ldrcs	r7, [sl, #-805]!	; 0xfffffcdb
    a2d8:	64253a73 	strtvs	r3, [r5], #-2675	; 0xfffff58d
    a2dc:	0000003a 	andeq	r0, r0, sl, lsr r0
    a2e0:	65657266 	strbvs	r7, [r5, #-614]!	; 0xfffffd9a
    a2e4:	20676e69 	rsbcs	r6, r7, r9, ror #28
    a2e8:	636f6c62 	cmnvs	pc, #25088	; 0x6200
    a2ec:	203d206b 	eorscs	r2, sp, fp, rrx
    a2f0:	5b206425 	blpl	82338c <__bss_end__+0x81842c>
    a2f4:	72646461 	rsbvc	r6, r4, #1627389952	; 0x61000000
    a2f8:	25203d20 	strcs	r3, [r0, #-3360]!	; 0xfffff2e0
    a2fc:	000a5d70 	andeq	r5, sl, r0, ror sp
    a300:	705f6b63 	subsvc	r6, pc, r3, ror #22
    a304:	695f7274 	ldmdbvs	pc, {r2, r4, r5, r6, r9, ip, sp, lr}^	; <UNPREDICTABLE>
    a308:	6c615f73 	stclvs	15, cr5, [r1], #-460	; 0xfffffe34
    a30c:	65636f6c 	strbvs	r6, [r3, #-3948]!	; 0xfffff094
    a310:	64612864 	strbtvs	r2, [r1], #-2148	; 0xfffff79c
    a314:	20297264 	eorcs	r7, r9, r4, ror #4
    a318:	30203d21 	eorcc	r3, r0, r1, lsr #26
    a31c:	00000000 	andeq	r0, r0, r0
    a320:	494e4150 	stmdbmi	lr, {r4, r6, r8, lr}^
    a324:	73253a43 			; <UNDEFINED> instruction: 0x73253a43
    a328:	3a73253a 	bcc	1cd3818 <__bss_end__+0x1cc88b8>
    a32c:	453a6425 	ldrmi	r6, [sl, #-1061]!	; 0xfffffbdb
    a330:	726f7272 	rsbvc	r7, pc, #536870919	; 0x20000007
    a334:	6572203a 	ldrbvs	r2, [r2, #-58]!	; 0xffffffc6
    a338:	6e6f7a64 	vnmulvs.f32	s15, s30, s9
    a33c:	6f632065 	svcvs	0x00632065
    a340:	70757272 	rsbsvc	r7, r5, r2, ror r2
    a344:	6e6f6974 			; <UNDEFINED> instruction: 0x6e6f6974
    a348:	74656420 	strbtvc	r6, [r5], #-1056	; 0xfffffbe0
    a34c:	65746365 	ldrbvs	r6, [r4, #-869]!	; 0xfffffc9b
    a350:	6e6f2064 	cdpvs	0, 6, cr2, cr15, cr4, {3}
    a354:	65726620 	ldrbvs	r6, [r2, #-1568]!	; 0xfffff9e0
    a358:	666f2065 	strbtvs	r2, [pc], -r5, rrx
    a35c:	6f6c6220 	svcvs	0x006c6220
    a360:	3d206b63 	fstmdbxcc	r0!, {d6-d54}	;@ Deprecated
    a364:	20642520 	rsbcs	r2, r4, r0, lsr #10
    a368:	6464615b 	strbtvs	r6, [r4], #-347	; 0xfffffea5
    a36c:	203d2072 	eorscs	r2, sp, r2, ror r0
    a370:	2e5d7825 	cdpcs	8, 5, cr7, cr13, cr5, {1}
    a374:	00000a0a 	andeq	r0, r0, sl, lsl #20
    a378:	5f6b6321 	svcpl	0x006b6321
    a37c:	5f727470 	svcpl	0x00727470
    a380:	615f7369 	cmpvs	pc, r9, ror #6
    a384:	636f6c6c 	cmnvs	pc, #108, 24	; 0x6c00
    a388:	61286465 			; <UNDEFINED> instruction: 0x61286465
    a38c:	29726464 	ldmdbcs	r2!, {r2, r5, r6, sl, sp, lr}^
    a390:	00000000 	andeq	r0, r0, r0
    a394:	6f6c6c61 	svcvs	0x006c6c61
    a398:	69746163 	ldmdbvs	r4!, {r0, r1, r5, r6, r8, sp, lr}^
    a39c:	6220676e 	eorvs	r6, r0, #28835840	; 0x1b80000
    a3a0:	6b636f6c 	blvs	18e6158 <__bss_end__+0x18db1f8>
    a3a4:	25203d20 	strcs	r3, [r0, #-3360]!	; 0xfffff2e0
    a3a8:	615b2064 	cmpvs	fp, r4, rrx
    a3ac:	20726464 	rsbscs	r6, r2, r4, ror #8
    a3b0:	7025203d 	eorvc	r2, r5, sp, lsr r0
    a3b4:	00000a5d 	andeq	r0, r0, sp, asr sl

0000a3b8 <__FUNCTION__.4064>:
    a3b8:	7473696c 	ldrbtvc	r6, [r3], #-2412	; 0xfffff694
    a3bc:	7070615f 	rsbsvc	r6, r0, pc, asr r1
    a3c0:	00646e65 	rsbeq	r6, r4, r5, ror #28

0000a3c4 <__FUNCTION__.4126>:
    a3c4:	72666b63 	rsbvc	r6, r6, #101376	; 0x18c00
    a3c8:	00006565 	andeq	r6, r0, r5, ror #10
    a3cc:	2d2d2d2d 	stccs	13, cr2, [sp, #-180]!	; 0xffffff4c
    a3d0:	2d2d2d2d 	stccs	13, cr2, [sp, #-180]!	; 0xffffff4c
    a3d4:	2d2d2d2d 	stccs	13, cr2, [sp, #-180]!	; 0xffffff4c
    a3d8:	2d2d2d2d 	stccs	13, cr2, [sp, #-180]!	; 0xffffff4c
    a3dc:	2d2d2d2d 	stccs	13, cr2, [sp, #-180]!	; 0xffffff4c
    a3e0:	2d2d2d2d 	stccs	13, cr2, [sp, #-180]!	; 0xffffff4c
    a3e4:	2d2d2d2d 	stccs	13, cr2, [sp, #-180]!	; 0xffffff4c
    a3e8:	2d2d2d2d 	stccs	13, cr2, [sp, #-180]!	; 0xffffff4c
    a3ec:	2d2d2d2d 	stccs	13, cr2, [sp, #-180]!	; 0xffffff4c
    a3f0:	2d2d2d2d 	stccs	13, cr2, [sp, #-180]!	; 0xffffff4c
    a3f4:	2d2d2d2d 	stccs	13, cr2, [sp, #-180]!	; 0xffffff4c
    a3f8:	2d2d2d2d 	stccs	13, cr2, [sp, #-180]!	; 0xffffff4c
    a3fc:	2d2d2d2d 	stccs	13, cr2, [sp, #-180]!	; 0xffffff4c
    a400:	2d2d2d2d 	stccs	13, cr2, [sp, #-180]!	; 0xffffff4c
    a404:	00000a2d 	andeq	r0, r0, sp, lsr #20
    a408:	63656863 	cmnvs	r5, #6488064	; 0x630000
    a40c:	676e696b 	strbvs	r6, [lr, -fp, ror #18]!
    a410:	726f6620 	rsbvc	r6, pc, #32, 12	; 0x2000000
    a414:	61656c20 	cmnvs	r5, r0, lsr #24
    a418:	0a3a736b 	beq	ea71cc <__bss_end__+0xe9c26c>
    a41c:	00000000 	andeq	r0, r0, r0
    a420:	43415254 	movtmi	r5, #4692	; 0x1254
    a424:	69663a45 	stmdbvs	r6!, {r0, r2, r6, r9, fp, ip, sp}^
    a428:	3a747372 	bcc	1d271f8 <__bss_end__+0x1d1c298>
    a42c:	72756320 	rsbsvc	r6, r5, #32, 6	; 0x80000000
    a430:	203d2072 	eorscs	r2, sp, r2, ror r0
    a434:	202c7825 	eorcs	r7, ip, r5, lsr #16
    a438:	72617473 	rsbvc	r7, r1, #1929379840	; 0x73000000
    a43c:	65722074 	ldrbvs	r2, [r2, #-116]!	; 0xffffff8c
    a440:	3d207366 	stccc	3, cr7, [r0, #-408]!	; 0xfffffe68
    a444:	2c642520 	cfstr64cs	mvdx2, [r4], #-128	; 0xffffff80
    a448:	64696d20 	strbtvs	r6, [r9], #-3360	; 0xfffff2e0
    a44c:	66657220 	strbtvs	r7, [r5], -r0, lsr #4
    a450:	203d2073 	eorscs	r2, sp, r3, ror r0
    a454:	000a6425 	andeq	r6, sl, r5, lsr #8
    a458:	43415254 	movtmi	r5, #4692	; 0x1254
    a45c:	696d3a45 	stmdbvs	sp!, {r0, r2, r6, r9, fp, ip, sp}^
    a460:	203a6464 	eorscs	r6, sl, r4, ror #8
    a464:	72727563 	rsbsvc	r7, r2, #415236096	; 0x18c00000
    a468:	25203d20 	strcs	r3, [r0, #-3360]!	; 0xfffff2e0
    a46c:	73202c78 			; <UNDEFINED> instruction: 0x73202c78
    a470:	74726174 	ldrbtvc	r6, [r2], #-372	; 0xfffffe8c
    a474:	66657220 	strbtvs	r7, [r5], -r0, lsr #4
    a478:	203d2073 	eorscs	r2, sp, r3, ror r0
    a47c:	202c6425 	eorcs	r6, ip, r5, lsr #8
    a480:	2064696d 	rsbcs	r6, r4, sp, ror #18
    a484:	73666572 	cmnvc	r6, #478150656	; 0x1c800000
    a488:	25203d20 	strcs	r3, [r0, #-3360]!	; 0xfffff2e0
    a48c:	00000a64 	andeq	r0, r0, r4, ror #20
    a490:	43415254 	movtmi	r5, #4692	; 0x1254
    a494:	6c203a45 			; <UNDEFINED> instruction: 0x6c203a45
    a498:	3a747361 	bcc	1d27224 <__bss_end__+0x1d1c2c4>
    a49c:	72756320 	rsbsvc	r6, r5, #32, 6	; 0x80000000
    a4a0:	203d2072 	eorscs	r2, sp, r2, ror r0
    a4a4:	202c7825 	eorcs	r7, ip, r5, lsr #16
    a4a8:	72617473 	rsbvc	r7, r1, #1929379840	; 0x73000000
    a4ac:	65722074 	ldrbvs	r2, [r2, #-116]!	; 0xffffff8c
    a4b0:	3d207366 	stccc	3, cr7, [r0, #-408]!	; 0xfffffe68
    a4b4:	2c642520 	cfstr64cs	mvdx2, [r4], #-128	; 0xffffff80
    a4b8:	64696d20 	strbtvs	r6, [r9], #-3360	; 0xfffff2e0
    a4bc:	66657220 	strbtvs	r7, [r5], -r0, lsr #4
    a4c0:	203d2073 	eorscs	r2, sp, r3, ror r0
    a4c4:	000a6425 	andeq	r6, sl, r5, lsr #8
    a4c8:	43415254 	movtmi	r5, #4692	; 0x1254
    a4cc:	756f3a45 	strbvc	r3, [pc, #-2629]!	; 9a8f <uart_disable+0x17>
    a4d0:	64697374 	strbtvs	r7, [r9], #-884	; 0xfffffc8c
    a4d4:	63203a65 			; <UNDEFINED> instruction: 0x63203a65
    a4d8:	20727275 	rsbscs	r7, r2, r5, ror r2
    a4dc:	7825203d 	stmdavc	r5!, {r0, r2, r3, r4, r5, sp}
    a4e0:	7473202c 	ldrbtvc	r2, [r3], #-44	; 0xffffffd4
    a4e4:	20747261 	rsbscs	r7, r4, r1, ror #4
    a4e8:	73666572 	cmnvc	r6, #478150656	; 0x1c800000
    a4ec:	25203d20 	strcs	r3, [r0, #-3360]!	; 0xfffff2e0
    a4f0:	6d202c64 	stcvs	12, cr2, [r0, #-400]!	; 0xfffffe70
    a4f4:	72206469 	eorvc	r6, r0, #1761607680	; 0x69000000
    a4f8:	20736665 	rsbscs	r6, r3, r5, ror #12
    a4fc:	6425203d 	strtvs	r2, [r5], #-61	; 0xffffffc3
    a500:	0000000a 	andeq	r0, r0, sl
    a504:	43415254 	movtmi	r5, #4692	; 0x1254
    a508:	47093a45 	strmi	r3, [r9, -r5, asr #20]
    a50c:	68433a43 	stmdavs	r3, {r0, r1, r6, r9, fp, ip, sp}^
    a510:	656b6365 	strbvs	r6, [fp, #-869]!	; 0xfffffc9b
    a514:	64252064 	strtvs	r2, [r5], #-100	; 0xffffff9c
    a518:	6f6c6220 	svcvs	0x006c6220
    a51c:	2e736b63 	vsubcs.f64	d22, d3, d19
    a520:	0000000a 	andeq	r0, r0, sl
    a524:	43415254 	movtmi	r5, #4692	; 0x1254
    a528:	09093a45 	stmdbeq	r9, {r0, r2, r6, r9, fp, ip, sp}
    a52c:	533a4347 	teqpl	sl, #469762049	; 0x1c000001
    a530:	45434355 	strbmi	r4, [r3, #-853]	; 0xfffffcab
    a534:	203a5353 	eorscs	r5, sl, r3, asr r3
    a538:	6c206f4e 	stcvs	15, cr6, [r0], #-312	; 0xfffffec8
    a53c:	736b6165 	cmnvc	fp, #1073741849	; 0x40000019
    a540:	756f6620 	strbvc	r6, [pc, #-1568]!	; 9f28 <strncmp+0x20>
    a544:	0a21646e 	beq	863704 <__bss_end__+0x8587a4>
    a548:	00000000 	andeq	r0, r0, r0
    a54c:	43415254 	movtmi	r5, #4692	; 0x1254
    a550:	09093a45 	stmdbeq	r9, {r0, r2, r6, r9, fp, ip, sp}
    a554:	453a4347 	ldrmi	r4, [sl, #-839]!	; 0xfffffcb9
    a558:	524f5252 	subpl	r5, pc, #536870917	; 0x20000005
    a55c:	25203a53 	strcs	r3, [r0, #-2643]!	; 0xfffff5ad
    a560:	72652064 	rsbvc	r2, r5, #100, 0	; 0x64
    a564:	73726f72 	cmnvc	r2, #456	; 0x1c8
    a568:	6425202c 	strtvs	r2, [r5], #-44	; 0xffffffd4
    a56c:	79616d20 	stmdbvc	r1!, {r5, r8, sl, fp, sp, lr}^
    a570:	655f6562 	ldrbvs	r6, [pc, #-1378]	; a016 <gpio_set_input+0xa>
    a574:	726f7272 	rsbvc	r7, pc, #536870919	; 0x20000007
    a578:	00000a73 	andeq	r0, r0, r3, ror sl
    a57c:	2d2d2d2d 	stccs	13, cr2, [sp, #-180]!	; 0xffffff4c
    a580:	2d2d2d2d 	stccs	13, cr2, [sp, #-180]!	; 0xffffff4c
    a584:	2d2d2d2d 	stccs	13, cr2, [sp, #-180]!	; 0xffffff4c
    a588:	2d2d2d2d 	stccs	13, cr2, [sp, #-180]!	; 0xffffff4c
    a58c:	2d2d2d2d 	stccs	13, cr2, [sp, #-180]!	; 0xffffff4c
    a590:	2d2d2d2d 	stccs	13, cr2, [sp, #-180]!	; 0xffffff4c
    a594:	2d2d2d2d 	stccs	13, cr2, [sp, #-180]!	; 0xffffff4c
    a598:	2d2d2d2d 	stccs	13, cr2, [sp, #-180]!	; 0xffffff4c
    a59c:	2d2d2d2d 	stccs	13, cr2, [sp, #-180]!	; 0xffffff4c
    a5a0:	2d2d2d2d 	stccs	13, cr2, [sp, #-180]!	; 0xffffff4c
    a5a4:	2d2d2d2d 	stccs	13, cr2, [sp, #-180]!	; 0xffffff4c
    a5a8:	2d2d2d2d 	stccs	13, cr2, [sp, #-180]!	; 0xffffff4c
    a5ac:	2d2d2d2d 	stccs	13, cr2, [sp, #-180]!	; 0xffffff4c
    a5b0:	2d2d2d2d 	stccs	13, cr2, [sp, #-180]!	; 0xffffff4c
    a5b4:	000a2d2d 	andeq	r2, sl, sp, lsr #26
    a5b8:	706d6f63 	rsbvc	r6, sp, r3, ror #30
    a5bc:	69746361 	ldmdbvs	r4!, {r0, r5, r6, r8, r9, sp, lr}^
    a5c0:	0a3a676e 	beq	ea4380 <__bss_end__+0xe99420>
    a5c4:	00000000 	andeq	r0, r0, r0
    a5c8:	43415254 	movtmi	r5, #4692	; 0x1254
    a5cc:	656c3a45 	strbvs	r3, [ip, #-2629]!	; 0xfffff5bb
    a5d0:	66206b61 	strtvs	r6, [r0], -r1, ror #22
    a5d4:	646e756f 	strbtvs	r7, [lr], #-1391	; 0xfffffa91
    a5d8:	726f6620 	rsbvc	r6, pc, #32, 12	; 0x2000000
    a5dc:	6f6c6220 	svcvs	0x006c6220
    a5e0:	203a6b63 	eorscs	r6, sl, r3, ror #22
    a5e4:	5b206425 	blpl	823680 <__bss_end__+0x818720>
    a5e8:	72646461 	rsbvc	r6, r4, #1627389952	; 0x61000000
    a5ec:	25203d20 	strcs	r3, [r0, #-3360]!	; 0xfffff2e0
    a5f0:	202e5d64 	eorcs	r5, lr, r4, ror #26
    a5f4:	65657246 	strbvs	r7, [r5, #-582]!	; 0xfffffdba
    a5f8:	2e676e69 	cdpcs	14, 6, cr6, cr7, cr9, {3}
    a5fc:	0000000a 	andeq	r0, r0, sl
    a600:	43415254 	movtmi	r5, #4692	; 0x1254
    a604:	47093a45 	strmi	r3, [r9, -r5, asr #20]
    a608:	68433a43 	stmdavs	r3, {r0, r1, r6, r9, fp, ip, sp}^
    a60c:	656b6365 	strbvs	r6, [fp, #-869]!	; 0xfffffc9b
    a610:	64252064 	strtvs	r2, [r5], #-100	; 0xffffff9c
    a614:	6f6c6220 	svcvs	0x006c6220
    a618:	2c736b63 			; <UNDEFINED> instruction: 0x2c736b63
    a61c:	65726620 	ldrbvs	r6, [r2, #-1568]!	; 0xfffff9e0
    a620:	25206465 	strcs	r6, [r0, #-1125]!	; 0xfffffb9b
    a624:	25202c64 	strcs	r2, [r0, #-3172]!	; 0xfffff39c
    a628:	79622064 	stmdbvc	r2!, {r2, r5, r6, sp}^
    a62c:	0a736574 	beq	1ce3c04 <__bss_end__+0x1cd8ca4>
    a630:	00000000 	andeq	r0, r0, r0
    a634:	672d6b63 	strvs	r6, [sp, -r3, ror #22]!
    a638:	00632e63 	rsbeq	r2, r3, r3, ror #28
    a63c:	00653c70 	rsbeq	r3, r5, r0, ror ip
    a640:	67696c61 	strbvs	r6, [r9, -r1, ror #24]!
    a644:	2864656e 	stmdacs	r4!, {r1, r2, r3, r5, r6, r8, sl, sp, lr}^
    a648:	29342c70 	ldmdbcs	r4!, {r4, r5, r6, sl, fp, sp}
    a64c:	00000000 	andeq	r0, r0, r0
    a650:	67696c61 	strbvs	r6, [r9, -r1, ror #24]!
    a654:	2864656e 	stmdacs	r4!, {r1, r2, r3, r5, r6, r8, sl, sp, lr}^
    a658:	29342c65 	ldmdbcs	r4!, {r0, r2, r5, r6, sl, fp, sp}
    a65c:	00000000 	andeq	r0, r0, r0
    a660:	43415254 	movtmi	r5, #4692	; 0x1254
    a664:	6e693a45 	vnmulvs.f32	s7, s18, s10
    a668:	72627320 	rsbvc	r7, r2, #32, 6	; 0x80000000
    a66c:	00000a6b 	andeq	r0, r0, fp, ror #20
    a670:	72636e69 	rsbvc	r6, r3, #1680	; 0x690
    a674:	6e656d65 	cdpvs	13, 6, cr6, cr5, cr5, {3}
    a678:	203e2074 	eorscs	r2, lr, r4, ror r0
    a67c:	00000030 	andeq	r0, r0, r0, lsr r0
    a680:	43415254 	movtmi	r5, #4692	; 0x1254
    a684:	614d3a45 	cmpvs	sp, r5, asr #20
    a688:	6e696b72 	vmovvs.8	d9[7], r6
    a68c:	2e2e2e67 	cdpcs	14, 2, cr2, cr14, cr7, {3}
    a690:	00000000 	andeq	r0, r0, r0
    a694:	656e6f44 	strbvs	r6, [lr, #-3908]!	; 0xfffff0bc
    a698:	00000a21 	andeq	r0, r0, r1, lsr #20
    a69c:	494e4150 	stmdbmi	lr, {r4, r6, r8, lr}^
    a6a0:	73253a43 			; <UNDEFINED> instruction: 0x73253a43
    a6a4:	3a73253a 	bcc	1cd3b94 <__bss_end__+0x1cc8c34>
    a6a8:	473a6425 	ldrmi	r6, [sl, -r5, lsr #8]!
    a6ac:	73203a43 			; <UNDEFINED> instruction: 0x73203a43
    a6b0:	6c756f68 	ldclvs	15, cr6, [r5], #-416	; 0xfffffe60
    a6b4:	61682064 	cmnvs	r8, r4, rrx
    a6b8:	6e206576 	mcrvs	5, 1, r6, cr0, cr6, {3}
    a6bc:	656c206f 	strbvs	r2, [ip, #-111]!	; 0xffffff91
    a6c0:	21736b61 	cmncs	r3, r1, ror #22
    a6c4:	00000a0a 	andeq	r0, r0, sl, lsl #20
    a6c8:	43415254 	movtmi	r5, #4692	; 0x1254
    a6cc:	43473a45 	movtmi	r3, #31301	; 0x7a45
    a6d0:	5553203a 	ldrbpl	r2, [r3, #-58]	; 0xffffffc6
    a6d4:	53454343 	movtpl	r4, #21315	; 0x5343
    a6d8:	6e203a53 			; <UNDEFINED> instruction: 0x6e203a53
    a6dc:	656c206f 	strbvs	r2, [ip, #-111]!	; 0xffffff91
    a6e0:	21736b61 	cmncs	r3, r1, ror #22
    a6e4:	0000000a 	andeq	r0, r0, sl
    a6e8:	494e4150 	stmdbmi	lr, {r4, r6, r8, lr}^
    a6ec:	73253a43 			; <UNDEFINED> instruction: 0x73253a43
    a6f0:	3a73253a 	bcc	1cd3be0 <__bss_end__+0x1cc8c80>
    a6f4:	473a6425 	ldrmi	r6, [sl, -r5, lsr #8]!
    a6f8:	73203a43 			; <UNDEFINED> instruction: 0x73203a43
    a6fc:	6c756f68 	ldclvs	15, cr6, [r5], #-416	; 0xfffffe60
    a700:	61682064 	cmnvs	r8, r4, rrx
    a704:	6c206576 	cfstr32vs	mvfx6, [r0], #-472	; 0xfffffe28
    a708:	736b6165 	cmnvc	fp, #1073741849	; 0x40000019
    a70c:	000a0a21 	andeq	r0, sl, r1, lsr #20
    a710:	43415254 	movtmi	r5, #4692	; 0x1254
    a714:	43473a45 	movtmi	r3, #31301	; 0x7a45
    a718:	5553203a 	ldrbpl	r2, [r3, #-58]	; 0xffffffc6
    a71c:	53454343 	movtpl	r4, #21315	; 0x5343
    a720:	66203a53 			; <UNDEFINED> instruction: 0x66203a53
    a724:	646e756f 	strbtvs	r7, [lr], #-1391	; 0xfffffa91
    a728:	20642520 	rsbcs	r2, r4, r0, lsr #10
    a72c:	6b61656c 	blvs	1863ce4 <__bss_end__+0x1858d84>
    a730:	000a2173 	andeq	r2, sl, r3, ror r1
    a734:	494e4150 	stmdbmi	lr, {r4, r6, r8, lr}^
    a738:	73253a43 			; <UNDEFINED> instruction: 0x73253a43
    a73c:	3a73253a 	bcc	1cd3c2c <__bss_end__+0x1cc8ccc>
    a740:	643a6425 	ldrtvs	r6, [sl], #-1061	; 0xfffffbdb
    a744:	6e206469 	cdpvs	4, 2, cr6, cr0, cr9, {3}
    a748:	6920746f 	stmdbvs	r0!, {r0, r1, r2, r3, r5, r6, sl, ip, sp, lr}
    a74c:	656c706d 	strbvs	r7, [ip, #-109]!	; 0xffffff93
    a750:	746e656d 	strbtvc	r6, [lr], #-1389	; 0xfffffa93
    a754:	6d756420 	cfldrdvs	mvd6, [r5, #-128]!	; 0xffffff80
    a758:	65725f70 	ldrbvs	r5, [r2, #-3952]!	; 0xfffff090
    a75c:	0a217367 	beq	867500 <__bss_end__+0x85c5a0>
    a760:	0000000a 	andeq	r0, r0, sl

0000a764 <__FUNCTION__.4067>:
    a764:	6b72616d 	blvs	1ca2d20 <__bss_end__+0x1c97dc0>
    a768:	00000000 	andeq	r0, r0, r0

0000a76c <__FUNCTION__.4054>:
    a76c:	6b726273 	blvs	1ca3140 <__bss_end__+0x1c981e0>
    a770:	00000000 	andeq	r0, r0, r0

0000a774 <__FUNCTION__.4114>:
    a774:	63656863 	cmnvs	r5, #6488064	; 0x630000
    a778:	6f6e5f6b 	svcvs	0x006e5f6b
    a77c:	61656c5f 	cmnvs	r5, pc, asr ip
    a780:	0000006b 	andeq	r0, r0, fp, rrx

0000a784 <__FUNCTION__.4119>:
    a784:	63656863 	cmnvs	r5, #6488064	; 0x630000
    a788:	68735f6b 	ldmdavs	r3!, {r0, r1, r3, r5, r6, r8, r9, sl, fp, ip, lr}^
    a78c:	646c756f 	strbtvs	r7, [ip], #-1391	; 0xfffffa91
    a790:	61656c5f 	cmnvs	r5, pc, asr ip
    a794:	0000006b 	andeq	r0, r0, fp, rrx

0000a798 <__FUNCTION__.4137>:
    a798:	6c706d69 	ldclvs	13, cr6, [r0], #-420	; 0xfffffe5c
    a79c:	6e656d65 	cdpvs	13, 6, cr6, cr5, cr5, {3}
    a7a0:	68745f74 	ldmdavs	r4!, {r2, r4, r5, r6, r8, r9, sl, fp, ip, lr}^
    a7a4:	00007369 	andeq	r7, r0, r9, ror #6
    a7a8:	696c2f2e 	stmdbvs	ip!, {r1, r2, r3, r5, r8, r9, sl, fp, sp}^
    a7ac:	762f6362 	strtvc	r6, [pc], -r2, ror #6
    a7b0:	72702d61 	rsbsvc	r2, r0, #6208	; 0x1840
    a7b4:	6b746e69 	blvs	1d26160 <__bss_end__+0x1d1b200>
    a7b8:	0000632e 	andeq	r6, r0, lr, lsr #6
    a7bc:	33323130 	teqcc	r2, #12
    a7c0:	37363534 			; <UNDEFINED> instruction: 0x37363534
    a7c4:	00003938 	andeq	r3, r0, r8, lsr r9
    a7c8:	33323130 	teqcc	r2, #12
    a7cc:	37363534 			; <UNDEFINED> instruction: 0x37363534
    a7d0:	62613938 	rsbvs	r3, r1, #56, 18	; 0xe0000
    a7d4:	66656463 	strbtvs	r6, [r5], -r3, ror #8
    a7d8:	00000000 	andeq	r0, r0, r0
    a7dc:	00003130 	andeq	r3, r0, r0, lsr r1
    a7e0:	63747570 	cmnvs	r4, #112, 10	; 0x1c000000
    a7e4:	0070665f 	rsbseq	r6, r0, pc, asr r6
    a7e8:	74646977 	strbtvc	r6, [r4], #-2423	; 0xfffff689
    a7ec:	203c2068 	eorscs	r2, ip, r8, rrx
    a7f0:	00003233 	andeq	r3, r0, r3, lsr r2
    a7f4:	00786c6c 	rsbseq	r6, r8, ip, ror #24
    a7f8:	00646c6c 	rsbeq	r6, r4, ip, ror #24
    a7fc:	253d3078 	ldrcs	r3, [sp, #-120]!	; 0xffffff88
    a800:	00000a78 	andeq	r0, r0, r8, ror sl
    a804:	253d3178 	ldrcs	r3, [sp, #-376]!	; 0xfffffe88
    a808:	00000a78 	andeq	r0, r0, r8, ror sl
    a80c:	6e727473 	mrcvs	4, 3, r7, cr2, cr3, {3}
    a810:	28706d63 	ldmdacs	r0!, {r0, r1, r5, r6, r8, sl, fp, sp, lr}^
    a814:	202c7974 	eorcs	r7, ip, r4, ror r9
    a818:	786c6c22 	stmdavc	ip!, {r1, r5, sl, fp, sp, lr}^
    a81c:	33202c22 			; <UNDEFINED> instruction: 0x33202c22
    a820:	3d3d2029 	ldccc	0, cr2, [sp, #-164]!	; 0xffffff5c
    a824:	7c203020 	stcvc	0, cr3, [r0], #-128	; 0xffffff80
    a828:	7473207c 	ldrbtvc	r2, [r3], #-124	; 0xffffff84
    a82c:	6d636e72 	stclvs	14, cr6, [r3, #-456]!	; 0xfffffe38
    a830:	79742870 	ldmdbvc	r4!, {r4, r5, r6, fp, sp}^
    a834:	6c22202c 	stcvs	0, cr2, [r2], #-176	; 0xffffff50
    a838:	2c22646c 	cfstrscs	mvf6, [r2], #-432	; 0xfffffe50
    a83c:	20293320 	eorcs	r3, r9, r0, lsr #6
    a840:	30203d3d 	eorcc	r3, r0, sp, lsr sp
    a844:	00000000 	andeq	r0, r0, r0
    a848:	494e4150 	stmdbmi	lr, {r4, r6, r8, lr}^
    a84c:	73253a43 			; <UNDEFINED> instruction: 0x73253a43
    a850:	3a73253a 	bcc	1cd3d40 <__bss_end__+0x1cc8de0>
    a854:	693a6425 	ldmdbvs	sl!, {r0, r2, r5, sl, sp, lr}
    a858:	736f706d 	cmnvc	pc, #109, 0	; 0x6d
    a85c:	6c626973 			; <UNDEFINED> instruction: 0x6c626973
    a860:	66203a65 	strtvs	r3, [r0], -r5, ror #20
    a864:	3c3d746d 	cfldrscc	mvf7, [sp], #-436	; 0xfffffe4c
    a868:	0a3e7325 	beq	fa7504 <__bss_end__+0xf9c5a4>
    a86c:	0000000a 	andeq	r0, r0, sl
    a870:	494e4150 	stmdbmi	lr, {r4, r6, r8, lr}^
    a874:	73253a43 			; <UNDEFINED> instruction: 0x73253a43
    a878:	3a73253a 	bcc	1cd3d68 <__bss_end__+0x1cc8e08>
    a87c:	663a6425 	ldrtvs	r6, [sl], -r5, lsr #8
    a880:	74616f6c 	strbtvc	r6, [r1], #-3948	; 0xfffff094
    a884:	746f6e20 	strbtvc	r6, [pc], #-3616	; a88c <__FUNCTION__.4137+0xf4>
    a888:	616e6520 	cmnvs	lr, r0, lsr #10
    a88c:	64656c62 	strbtvs	r6, [r5], #-3170	; 0xfffff39e
    a890:	0a212121 	beq	852d1c <__bss_end__+0x847dbc>
    a894:	00000000 	andeq	r0, r0, r0
    a898:	6e697270 	mcrvs	2, 3, r7, cr9, cr0, {3}
    a89c:	203a6b74 	eorscs	r6, sl, r4, ror fp
    a8a0:	20746f6e 	rsbscs	r6, r4, lr, ror #30
    a8a4:	646e6168 	strbtvs	r6, [lr], #-360	; 0xfffffe98
    a8a8:	676e696c 	strbvs	r6, [lr, -ip, ror #18]!
    a8ac:	65707320 	ldrbvs	r7, [r0, #-800]!	; 0xfffffce0
    a8b0:	69666963 	stmdbvs	r6!, {r0, r1, r5, r6, r8, fp, sp, lr}^
    a8b4:	27207265 	strcs	r7, [r0, -r5, ror #4]!
    a8b8:	20276325 	eorcs	r6, r7, r5, lsr #6
    a8bc:	63736128 	cmnvs	r3, #10
    a8c0:	253d6969 	ldrcs	r6, [sp, #-2409]!	; 0xfffff697
    a8c4:	000a2964 	andeq	r2, sl, r4, ror #18
    a8c8:	494e4150 	stmdbmi	lr, {r4, r6, r8, lr}^
    a8cc:	73253a43 			; <UNDEFINED> instruction: 0x73253a43
    a8d0:	3a73253a 	bcc	1cd3dc0 <__bss_end__+0x1cc8e60>
    a8d4:	703a6425 	eorsvc	r6, sl, r5, lsr #8
    a8d8:	746e6972 	strbtvc	r6, [lr], #-2418	; 0xfffff68e
    a8dc:	7265206b 	rsbvc	r2, r5, #107, 0	; 0x6b
    a8e0:	0a726f72 	beq	1ca66b0 <__bss_end__+0x1c9b750>
    a8e4:	0000000a 	andeq	r0, r0, sl

0000a8e8 <__FUNCTION__.4008>:
    a8e8:	74696d65 	strbtvc	r6, [r9], #-3429	; 0xfffff29b
    a8ec:	00000000 	andeq	r0, r0, r0

0000a8f0 <__FUNCTION__.3956>:
    a8f0:	5f697072 	svcpl	0x00697072
    a8f4:	5f746573 	svcpl	0x00746573
    a8f8:	7074756f 	rsbsvc	r7, r4, pc, ror #10
    a8fc:	00007475 	andeq	r7, r0, r5, ror r4

0000a900 <__FUNCTION__.4034>:
    a900:	705f6176 	subsvc	r6, pc, r6, ror r1	; <UNPREDICTABLE>
    a904:	746e6972 	strbtvc	r6, [lr], #-2418	; 0xfffff68e
    a908:	0000006b 	andeq	r0, r0, fp, rrx
    a90c:	454e4f44 	strbmi	r4, [lr, #-3908]	; 0xfffff0bc
    a910:	0a212121 	beq	852d9c <__bss_end__+0x847e3c>
    a914:	00000000 	andeq	r0, r0, r0
    a918:	6c616d6b 	stclvs	13, cr6, [r1], #-428	; 0xfffffe54
    a91c:	2e636f6c 	cdpcs	15, 6, cr6, cr3, cr12, {3}
    a920:	00000063 	andeq	r0, r0, r3, rrx
    a924:	5f78616d 	svcpl	0x0078616d
    a928:	7479626e 	ldrbtvc	r6, [r9], #-622	; 0xfffffd92
    a92c:	00007365 	andeq	r7, r0, r5, ror #6
    a930:	494e4150 	stmdbmi	lr, {r4, r6, r8, lr}^
    a934:	73253a43 			; <UNDEFINED> instruction: 0x73253a43
    a938:	3a73253a 	bcc	1cd3e28 <__bss_end__+0x1cc8ec8>
    a93c:	733a6425 	teqvc	sl, #620756992	; 0x25000000
    a940:	69747465 	ldmdbvs	r4!, {r0, r2, r5, r6, sl, ip, sp, lr}^
    a944:	6820676e 	stmdavs	r0!, {r1, r2, r3, r5, r6, r8, r9, sl, sp, lr}
    a948:	20706165 	rsbscs	r6, r0, r5, ror #2
    a94c:	25206f74 	strcs	r6, [r0, #-3956]!	; 0xfffff08c
    a950:	77203a70 			; <UNDEFINED> instruction: 0x77203a70
    a954:	206c6c69 	rsbcs	r6, ip, r9, ror #24
    a958:	20746968 	rsbscs	r6, r4, r8, ror #18
    a95c:	20656874 	rsbcs	r6, r5, r4, ror r8
    a960:	20646c6f 	rsbcs	r6, r4, pc, ror #24
    a964:	70616568 	rsbvc	r6, r1, r8, ror #10
    a968:	20746120 	rsbscs	r6, r4, r0, lsr #2
    a96c:	0a0a7025 	beq	2a6a08 <__bss_end__+0x29baa8>
    a970:	00000000 	andeq	r0, r0, r0
    a974:	494e4150 	stmdbmi	lr, {r4, r6, r8, lr}^
    a978:	73253a43 			; <UNDEFINED> instruction: 0x73253a43
    a97c:	3a73253a 	bcc	1cd3e6c <__bss_end__+0x1cc8f0c>
    a980:	613a6425 	teqvs	sl, r5, lsr #8
    a984:	6165726c 	cmnvs	r5, ip, ror #4
    a988:	63207964 			; <UNDEFINED> instruction: 0x63207964
    a98c:	656c6c61 	strbvs	r6, [ip, #-3169]!	; 0xfffff39f
    a990:	6d6b2064 	stclvs	0, cr2, [fp, #-400]!	; 0xfffffe70
    a994:	6f6c6c61 	svcvs	0x006c6c61
    a998:	6e695f63 	cdpvs	15, 6, cr5, cr9, cr3, {3}
    a99c:	0a0a7469 	beq	2a7b48 <__bss_end__+0x29cbe8>
    a9a0:	00000000 	andeq	r0, r0, r0
    a9a4:	494e4150 	stmdbmi	lr, {r4, r6, r8, lr}^
    a9a8:	73253a43 			; <UNDEFINED> instruction: 0x73253a43
    a9ac:	3a73253a 	bcc	1cd3e9c <__bss_end__+0x1cc8f3c>
    a9b0:	253a6425 	ldrcs	r6, [sl, #-1061]!	; 0xfffffbdb
    a9b4:	626e2064 	rsbvs	r2, lr, #100, 0	; 0x64
    a9b8:	73657479 	cmnvc	r5, #2030043136	; 0x79000000
    a9bc:	63786520 	cmnvs	r8, #32, 10	; 0x8000000
    a9c0:	65646565 	strbvs	r6, [r4, #-1381]!	; 0xfffffa9b
    a9c4:	69732064 	ldmdbvs	r3!, {r2, r5, r6, sp}^
    a9c8:	6f20657a 	svcvs	0x0020657a
    a9cc:	65682066 	strbvs	r2, [r8, #-102]!	; 0xffffff9a
    a9d0:	62207061 	eorvs	r7, r0, #97, 0	; 0x61
    a9d4:	75252079 	strvc	r2, [r5, #-121]!	; 0xffffff87
    a9d8:	79626e20 	stmdbvc	r2!, {r5, r9, sl, fp, sp, lr}^
    a9dc:	0a736574 	beq	1ce3fb4 <__bss_end__+0x1cd9054>
    a9e0:	0000000a 	andeq	r0, r0, sl
    a9e4:	4f525245 	svcmi	0x00525245
    a9e8:	73253a52 			; <UNDEFINED> instruction: 0x73253a52
    a9ec:	3a73253a 	bcc	1cd3edc <__bss_end__+0x1cc8f7c>
    a9f0:	203a6425 	eorscs	r6, sl, r5, lsr #8
    a9f4:	534c4146 	movtpl	r4, #49478	; 0xc146
    a9f8:	253c2845 	ldrcs	r2, [ip, #-2117]!	; 0xfffff7bb
    a9fc:	3a293e73 	bcc	a5a3d0 <__bss_end__+0xa4f470>
    aa00:	73736120 	cmnvc	r3, #8
    aa04:	6e696d75 	mcrvs	13, 3, r6, cr9, cr5, {3}
    aa08:	6f702067 	svcvs	0x00702067
    aa0c:	20726577 	rsbscs	r6, r2, r7, ror r5
    aa10:	7420666f 	strtvc	r6, [r0], #-1647	; 0xfffff991
    aa14:	000a6f77 	andeq	r6, sl, r7, ror pc
    aa18:	705f7369 	subsvc	r7, pc, r9, ror #6
    aa1c:	2832776f 	ldmdacs	r2!, {r0, r1, r2, r3, r5, r6, r8, r9, sl, ip, sp, lr}
    aa20:	67696c61 	strbvs	r6, [r9, -r1, ror #24]!
    aa24:	6e656d6e 	cdpvs	13, 6, cr6, cr5, cr14, {3}
    aa28:	00002974 	andeq	r2, r0, r4, ror r9
    aa2c:	705f7369 	subsvc	r7, pc, r9, ror #6
    aa30:	2832776f 	ldmdacs	r2!, {r0, r1, r2, r3, r5, r6, r8, r9, sl, ip, sp, lr}
    aa34:	0000296e 	andeq	r2, r0, lr, ror #18
    aa38:	4f525245 	svcmi	0x00525245
    aa3c:	73253a52 			; <UNDEFINED> instruction: 0x73253a52
    aa40:	3a73253a 	bcc	1cd3f30 <__bss_end__+0x1cc8fd0>
    aa44:	203a6425 	eorscs	r6, sl, r5, lsr #8
    aa48:	534c4146 	movtpl	r4, #49478	; 0xc146
    aa4c:	253c2845 	ldrcs	r2, [ip, #-2117]!	; 0xfffff7bb
    aa50:	3a293e73 	bcc	a5a424 <__bss_end__+0xa4f4c4>
    aa54:	706d6920 	rsbvc	r6, sp, r0, lsr #18
    aa58:	6973736f 	ldmdbvs	r3!, {r0, r1, r2, r3, r5, r6, r8, r9, ip, sp, lr}^
    aa5c:	0a656c62 	beq	1965bec <__bss_end__+0x195ac8c>
    aa60:	00000000 	andeq	r0, r0, r0
    aa64:	615f7369 	cmpvs	pc, r9, ror #6
    aa68:	6e67696c 	vnmulvs.f16	s13, s14, s25	; <UNPREDICTABLE>
    aa6c:	68286465 	stmdavs	r8!, {r0, r2, r5, r6, sl, sp, lr}
    aa70:	6c61202c 	stclvs	0, cr2, [r1], #-176	; 0xffffff50
    aa74:	6d6e6769 	stclvs	7, cr6, [lr, #-420]!	; 0xfffffe5c
    aa78:	29746e65 	ldmdbcs	r4!, {r0, r2, r5, r6, r9, sl, fp, sp, lr}^
    aa7c:	00000000 	andeq	r0, r0, r0
    aa80:	494e4150 	stmdbmi	lr, {r4, r6, r8, lr}^
    aa84:	73253a43 			; <UNDEFINED> instruction: 0x73253a43
    aa88:	3a73253a 	bcc	1cd3f78 <__bss_end__+0x1cc9018>
    aa8c:	703a6425 	eorsvc	r6, sl, r5, lsr #8
    aa90:	746e696f 	strbtvc	r6, [lr], #-2415	; 0xfffff691
    aa94:	25207265 	strcs	r7, [r0, #-613]!	; 0xfffffd9b
    aa98:	61772070 	cmnvs	r7, r0, ror r0
    aa9c:	656e2073 	strbvs	r2, [lr, #-115]!	; 0xffffff8d
    aaa0:	20726576 	rsbscs	r6, r2, r6, ror r5
    aaa4:	6f6c6c61 	svcvs	0x006c6c61
    aaa8:	65746163 	ldrbvs	r6, [r4, #-355]!	; 0xfffffe9d
    aaac:	000a0a64 	andeq	r0, sl, r4, ror #20

0000aab0 <__FUNCTION__.7>:
    aab0:	6c616d6b 	stclvs	13, cr6, [r1], #-428	; 0xfffffe54
    aab4:	5f636f6c 	svcpl	0x00636f6c
    aab8:	74696e69 	strbtvc	r6, [r9], #-3689	; 0xfffff197
    aabc:	7465735f 	strbtvc	r7, [r5], #-863	; 0xfffffca1
    aac0:	6174735f 	cmnvs	r4, pc, asr r3
    aac4:	00007472 	andeq	r7, r0, r2, ror r4

0000aac8 <__FUNCTION__.5>:
    aac8:	6c616d6b 	stclvs	13, cr6, [r1], #-428	; 0xfffffe54
    aacc:	5f636f6c 	svcpl	0x00636f6c
    aad0:	74696e69 	strbtvc	r6, [r9], #-3689	; 0xfffff197
    aad4:	00000000 	andeq	r0, r0, r0

0000aad8 <__FUNCTION__.4>:
    aad8:	6c616d6b 	stclvs	13, cr6, [r1], #-428	; 0xfffffe54
    aadc:	5f636f6c 	svcpl	0x00636f6c
    aae0:	7a746f6e 	bvc	1d268a0 <__bss_end__+0x1d1b940>
    aae4:	006f7265 	rsbeq	r7, pc, r5, ror #4

0000aae8 <__FUNCTION__.2>:
    aae8:	6c616d6b 	stclvs	13, cr6, [r1], #-428	; 0xfffffe54
    aaec:	00636f6c 	rsbeq	r6, r3, ip, ror #30

0000aaf0 <__FUNCTION__.1>:
    aaf0:	6c616d6b 	stclvs	13, cr6, [r1], #-428	; 0xfffffe54
    aaf4:	5f636f6c 	svcpl	0x00636f6c
    aaf8:	67696c61 	strbvs	r6, [r9, -r1, ror #24]!
    aafc:	0064656e 	rsbeq	r6, r4, lr, ror #10

0000ab00 <__FUNCTION__.3>:
    ab00:	6e756f72 	mrcvs	15, 3, r6, cr5, cr2, {3}
    ab04:	00707564 	rsbseq	r7, r0, r4, ror #10

0000ab08 <__FUNCTION__.0>:
    ab08:	6572666b 	ldrbvs	r6, [r2, #-1643]!	; 0xfffff995
    ab0c:	6f705f65 	svcvs	0x00705f65
    ab10:	Address 0x000000000000ab10 is out of bounds.


Disassembly of section .data:

0000ab14 <__data_start__>:
    ab14:	00000001 	andeq	r0, r0, r1

0000ab18 <putk>:
    ab18:	00008fc8 	andeq	r8, r0, r8, asr #31

0000ab1c <heap_end>:
    ab1c:	0020af60 	eoreq	sl, r0, r0, ror #30

0000ab20 <heap_start>:
    ab20:	0000af60 	andeq	sl, r0, r0, ror #30

0000ab24 <heap>:
    ab24:	0000af60 	andeq	sl, r0, r0, ror #30

0000ab28 <rpi_putchar>:
    ab28:	00009e4c 	andeq	r9, r0, ip, asr #28

Disassembly of section .bss:

0000ab30 <__bss_start__>:
    ab30:	00000000 	andeq	r0, r0, r0

0000ab34 <alloc_list>:
    ab34:	00000000 	andeq	r0, r0, r0

0000ab38 <heap_start>:
    ab38:	00000000 	andeq	r0, r0, r0

0000ab3c <heap_end>:
    ab3c:	00000000 	andeq	r0, r0, r0

0000ab40 <init_p>:
	...

0000ab48 <freep>:
	...

0000ab50 <base>:
	...

0000ab58 <buf.3948>:
	...

0000af58 <init_p.6>:
	...

Disassembly of section .ARM.attributes:

00000000 <.ARM.attributes>:
   0:	00002a41 	andeq	r2, r0, r1, asr #20
   4:	61656100 	cmnvs	r5, r0, lsl #2
   8:	01006962 	tsteq	r0, r2, ror #18
   c:	00000020 	andeq	r0, r0, r0, lsr #32
  10:	4b5a3605 	blmi	168d82c <__bss_end__+0x16828cc>
  14:	08070600 	stmdaeq	r7, {r9, sl}
  18:	12010901 	andne	r0, r1, #16384	; 0x4000
  1c:	15011404 	strne	r1, [r1, #-1028]	; 0xfffffbfc
  20:	18031701 	stmdane	r3, {r0, r8, r9, sl, ip}
  24:	22011a01 	andcs	r1, r1, #4096	; 0x1000
  28:	Address 0x0000000000000028 is out of bounds.


Disassembly of section .comment:

00000000 <.comment>:
   0:	3a434347 	bcc	10d0d24 <__bss_end__+0x10c5dc4>
   4:	4e472820 	cdpmi	8, 4, cr2, cr7, cr0, {1}
   8:	6f542055 	svcvs	0x00542055
   c:	20736c6f 	rsbscs	r6, r3, pc, ror #24
  10:	20726f66 	rsbscs	r6, r2, r6, ror #30
  14:	206d7241 	rsbcs	r7, sp, r1, asr #4
  18:	65626d45 	strbvs	r6, [r2, #-3397]!	; 0xfffff2bb
  1c:	64656464 	strbtvs	r6, [r5], #-1124	; 0xfffffb9c
  20:	6f725020 	svcvs	0x00725020
  24:	73736563 	cmnvc	r3, #415236096	; 0x18c00000
  28:	2073726f 	rsbscs	r7, r3, pc, ror #4
  2c:	30322d39 	eorscc	r2, r2, r9, lsr sp
  30:	712d3931 			; <UNDEFINED> instruction: 0x712d3931
  34:	616d2d34 	cmnvs	sp, r4, lsr sp
  38:	29726f6a 	ldmdbcs	r2!, {r1, r3, r5, r6, r8, r9, sl, fp, sp, lr}^
  3c:	322e3920 	eorcc	r3, lr, #32, 18	; 0x80000
  40:	3220312e 	eorcc	r3, r0, #-2147483637	; 0x8000000b
  44:	31393130 	teqcc	r9, r0, lsr r1
  48:	20353230 	eorscs	r3, r5, r0, lsr r2
  4c:	6c657228 	sfmvs	f7, 2, [r5], #-160	; 0xffffff60
  50:	65736165 	ldrbvs	r6, [r3, #-357]!	; 0xfffffe9b
  54:	415b2029 	cmpmi	fp, r9, lsr #32
  58:	612f4d52 			; <UNDEFINED> instruction: 0x612f4d52
  5c:	392d6d72 	pushcc	{r1, r4, r5, r6, r8, sl, fp, sp, lr}
  60:	6172622d 	cmnvs	r2, sp, lsr #4
  64:	2068636e 	rsbcs	r6, r8, lr, ror #6
  68:	69766572 	ldmdbvs	r6!, {r1, r4, r5, r6, r8, sl, sp, lr}^
  6c:	6e6f6973 			; <UNDEFINED> instruction: 0x6e6f6973
  70:	37373220 	ldrcc	r3, [r7, -r0, lsr #4]!
  74:	5d393935 			; <UNDEFINED> instruction: 0x5d393935
  78:	43434700 	movtmi	r4, #14080	; 0x3700
  7c:	4728203a 			; <UNDEFINED> instruction: 0x4728203a
  80:	4120554e 			; <UNDEFINED> instruction: 0x4120554e
  84:	45206d72 	strmi	r6, [r0, #-3442]!	; 0xfffff28e
  88:	6465626d 	strbtvs	r6, [r5], #-621	; 0xfffffd93
  8c:	20646564 	rsbcs	r6, r4, r4, ror #10
  90:	6c6f6f54 	stclvs	15, cr6, [pc], #-336	; ffffff48 <__bss_end__+0xffff4fe8>
  94:	69616863 	stmdbvs	r1!, {r0, r1, r5, r6, fp, sp, lr}^
  98:	3031206e 	eorscc	r2, r1, lr, rrx
  9c:	322d332e 	eorcc	r3, sp, #-1207959552	; 0xb8000000
  a0:	2e313230 	mrccs	2, 1, r3, cr1, cr0, {1}
  a4:	20293031 	eorcs	r3, r9, r1, lsr r0
  a8:	332e3031 			; <UNDEFINED> instruction: 0x332e3031
  ac:	3220312e 	eorcc	r3, r0, #-2147483637	; 0x8000000b
  b0:	30313230 	eorscc	r3, r1, r0, lsr r2
  b4:	20343238 	eorscs	r3, r4, r8, lsr r2
  b8:	6c657228 	sfmvs	f7, 2, [r5], #-160	; 0xffffff60
  bc:	65736165 	ldrbvs	r6, [r3, #-357]!	; 0xfffffe9b
  c0:	Address 0x00000000000000c0 is out of bounds.


Disassembly of section .debug_info:

00000000 <.debug_info>:
       0:	000005a9 	andeq	r0, r0, r9, lsr #11
       4:	00000004 	andeq	r0, r0, r4
       8:	01040000 	mrseq	r0, (UNDEF: 4)
       c:	000001c7 	andeq	r0, r0, r7, asr #3
      10:	00010e0c 	andeq	r0, r1, ip, lsl #28
      14:	00015d00 	andeq	r5, r1, r0, lsl #26
      18:	00803800 	addeq	r3, r0, r0, lsl #16
      1c:	00017c00 	andeq	r7, r1, r0, lsl #24
      20:	00000000 	andeq	r0, r0, r0
      24:	05040200 	streq	r0, [r4, #-512]	; 0xfffffe00
      28:	00746e69 	rsbseq	r6, r4, r9, ror #28
      2c:	01070403 	tsteq	r7, r3, lsl #8
      30:	03000001 	movweq	r0, #1
      34:	00cb0601 	sbceq	r0, fp, r1, lsl #12
      38:	02030000 	andeq	r0, r3, #0, 0
      3c:	00002205 	andeq	r2, r0, r5, lsl #4
      40:	05040300 	streq	r0, [r4, #-768]	; 0xfffffd00
      44:	0000006b 	andeq	r0, r0, fp, rrx
      48:	66050803 	strvs	r0, [r5], -r3, lsl #16
      4c:	04000000 	streq	r0, [r0], #-0
      50:	0000004b 	andeq	r0, r0, fp, asr #32
      54:	5b182e03 	blpl	60b868 <__bss_end__+0x600908>
      58:	03000000 	movweq	r0, #0
      5c:	00c90801 	sbceq	r0, r9, r1, lsl #16
      60:	32040000 	andcc	r0, r4, #0, 0
      64:	03000001 	movweq	r0, #1
      68:	006e1931 	rsbeq	r1, lr, r1, lsr r9
      6c:	02030000 	andeq	r0, r3, #0, 0
      70:	00014307 	andeq	r4, r1, r7, lsl #6
      74:	01290400 			; <UNDEFINED> instruction: 0x01290400
      78:	34030000 	strcc	r0, [r3], #-0
      7c:	00008119 	andeq	r8, r0, r9, lsl r1
      80:	07040300 	streq	r0, [r4, -r0, lsl #6]
      84:	000000fc 	strdeq	r0, [r0], -ip
      88:	f7070803 			; <UNDEFINED> instruction: 0xf7070803
      8c:	05000000 	streq	r0, [r0, #-0]
      90:	00000025 	andeq	r0, r0, r5, lsr #32
      94:	0000009e 	muleq	r0, lr, r0
      98:	00002506 	andeq	r2, r0, r6, lsl #10
      9c:	2c070000 	stccs	0, cr0, [r7], {-0}
      a0:	04000000 	streq	r0, [r0], #-0
      a4:	00aa0e1c 	adceq	r0, sl, ip, lsl lr
      a8:	04080000 	streq	r0, [r8], #-0
      ac:	0000008f 	andeq	r0, r0, pc, lsl #1
      b0:	00002505 	andeq	r2, r0, r5, lsl #10
      b4:	0000bf00 	andeq	fp, r0, r0, lsl #30
      b8:	00bf0600 	adcseq	r0, pc, r0, lsl #12
      bc:	08000000 	stmdaeq	r0, {}	; <UNPREDICTABLE>
      c0:	0000cc04 	andeq	ip, r0, r4, lsl #24
      c4:	08010300 	stmdaeq	r1, {r8, r9}
      c8:	000000d2 	ldrdeq	r0, [r0], -r2
      cc:	0000c509 	andeq	ip, r0, r9, lsl #10
      d0:	072a0700 	streq	r0, [sl, -r0, lsl #14]!
      d4:	21040000 	mrscs	r0, (UNDEF: 4)
      d8:	0000dd0e 	andeq	sp, r0, lr, lsl #26
      dc:	b0040800 	andlt	r0, r4, r0, lsl #16
      e0:	0a000000 	beq	e8 <__code_start__-0x7f18>
      e4:	0904020c 	stmdbeq	r4, {r2, r3, r9}
      e8:	00000114 	andeq	r0, r0, r4, lsl r1
      ec:	0000400b 	andeq	r4, r0, fp
      f0:	11060200 	mrsne	r0, LR_usr
      f4:	000000bf 	strheq	r0, [r0], -pc	; <UNPREDICTABLE>
      f8:	00610b00 	rsbeq	r0, r1, r0, lsl #22
      fc:	07020000 	streq	r0, [r2, -r0]
     100:	0000bf11 	andeq	fp, r0, r1, lsl pc
     104:	f00b0400 			; <UNDEFINED> instruction: 0xf00b0400
     108:	02000000 	andeq	r0, r0, #0, 0
     10c:	002c0e08 	eoreq	r0, ip, r8, lsl #28
     110:	00080000 	andeq	r0, r8, r0
     114:	0002a304 	andeq	sl, r2, r4, lsl #6
     118:	03090200 	movweq	r0, #37376	; 0x9200
     11c:	000000e3 	andeq	r0, r0, r3, ror #1
     120:	0000530c 	andeq	r5, r0, ip, lsl #6
     124:	110c0500 	tstne	ip, r0, lsl #10
     128:	0000002c 	andeq	r0, r0, ip, lsr #32
     12c:	008c0d01 	addeq	r0, ip, r1, lsl #26
     130:	05a80000 	streq	r0, [r8, #0]!
     134:	01bd1010 			; <UNDEFINED> instruction: 0x01bd1010
     138:	9e0b0000 	cdpls	0, 0, cr0, cr11, cr0, {0}
     13c:	05000002 	streq	r0, [r0, #-2]
     140:	01bd1411 			; <UNDEFINED> instruction: 0x01bd1411
     144:	0b000000 	bleq	14c <__code_start__-0x7eb4>
     148:	00000281 	andeq	r0, r0, r1, lsl #5
     14c:	750e1205 	strvc	r1, [lr, #-517]	; 0xfffffdfb
     150:	04000000 	streq	r0, [r0], #-0
     154:	0000100b 	andeq	r1, r0, fp
     158:	0e130500 	cfmul32eq	mvfx0, mvfx3, mvfx0
     15c:	00000075 	andeq	r0, r0, r5, ror r0
     160:	00580b08 	subseq	r0, r8, r8, lsl #22
     164:	17050000 	strne	r0, [r5, -r0]
     168:	0000750e 	andeq	r7, r0, lr, lsl #10
     16c:	a00b0c00 	andge	r0, fp, r0, lsl #24
     170:	05000000 	streq	r0, [r0, #-0]
     174:	01140f19 	tsteq	r4, r9, lsl pc
     178:	0b100000 	bleq	400180 <__bss_end__+0x3f5220>
     17c:	000000d7 	ldrdeq	r0, [r0], -r7
     180:	750e1c05 	strvc	r1, [lr, #-3077]	; 0xfffff3fb
     184:	1c000000 	stcne	0, cr0, [r0], {-0}
     188:	0000160b 	andeq	r1, r0, fp, lsl #12
     18c:	0e1d0500 	cfmul32eq	mvfx0, mvfx13, mvfx0
     190:	00000075 	andeq	r0, r0, r5, ror r0
     194:	00b70b20 	adcseq	r0, r7, r0, lsr #22
     198:	1f050000 	svcne	0x00050000
     19c:	0000620e 	andeq	r6, r0, lr, lsl #4
     1a0:	560b2400 	strpl	r2, [fp], -r0, lsl #8
     1a4:	05000001 	streq	r0, [r0, #-1]
     1a8:	00620b20 	rsbeq	r0, r2, r0, lsr #22
     1ac:	0e260000 	cdpeq	0, 2, cr0, cr6, cr0, {0}
     1b0:	00317a72 	eorseq	r7, r1, r2, ror sl
     1b4:	c30d2205 	movwgt	r2, #53765	; 0xd205
     1b8:	28000001 	stmdacs	r0, {r0}
     1bc:	2d040800 	stccs	8, cr0, [r4, #-0]
     1c0:	0f000001 	svceq	0x00000001
     1c4:	0000004f 	andeq	r0, r0, pc, asr #32
     1c8:	000001d3 	ldrdeq	r0, [r0], -r3
     1cc:	00002c10 	andeq	r2, r0, r0, lsl ip
     1d0:	04007f00 	streq	r7, [r0], #-3840	; 0xfffff100
     1d4:	0000000a 	andeq	r0, r0, sl
     1d8:	2d032305 	stccs	3, cr2, [r3, #-20]	; 0xffffffec
     1dc:	11000001 	tstne	r0, r1
     1e0:	00000074 	andeq	r0, r0, r4, ror r0
     1e4:	eb0f2505 	bl	3c9600 <__bss_end__+0x3be6a0>
     1e8:	08000001 	stmdaeq	r0, {r0}
     1ec:	0001d304 	andeq	sp, r1, r4, lsl #6
     1f0:	00000c00 	andeq	r0, r0, r0, lsl #24
     1f4:	26050000 	strcs	r0, [r5], -r0
     1f8:	0001eb0f 	andeq	lr, r1, pc, lsl #22
     1fc:	04120000 	ldreq	r0, [r2], #-0
     200:	0000bc07 	andeq	fp, r0, r7, lsl #24
     204:	11ad0500 			; <UNDEFINED> instruction: 0x11ad0500
     208:	0000002c 	andeq	r0, r0, ip, lsr #32
     20c:	72616213 	rsbvc	r6, r1, #805306369	; 0x30000001
     210:	0a4c0100 	beq	1300618 <__bss_end__+0x12f56b8>
     214:	0000002c 	andeq	r0, r0, ip, lsr #32
     218:	00008104 	andeq	r8, r0, r4, lsl #2
     21c:	0000001c 	andeq	r0, r0, ip, lsl r0
     220:	02519c01 	subseq	r9, r1, #256	; 0x100
     224:	70140000 	andsvc	r0, r4, r0
     228:	0b4d0100 	bleq	1340630 <__bss_end__+0x13356d0>
     22c:	000001fe 	strdeq	r0, [r0], -lr
     230:	00000004 	andeq	r0, r0, r4
     234:	00000000 	andeq	r0, r0, r0
     238:	00810c15 	addeq	r0, r1, r5, lsl ip
     23c:	00038000 	andeq	r8, r3, r0
     240:	81181600 	tsthi	r8, r0, lsl #12
     244:	05430000 	strbeq	r0, [r3, #-0]
     248:	01170000 	tsteq	r7, r0
     24c:	00300150 	eorseq	r0, r0, r0, asr r1
     250:	013b1800 	teqeq	fp, r0, lsl #16
     254:	2b010000 	blcs	4025c <__bss_end__+0x352fc>
     258:	00812006 	addeq	r2, r1, r6
     25c:	00009400 	andeq	r9, r0, r0, lsl #8
     260:	6b9c0100 	blvs	fe700668 <__bss_end__+0xfe6f5708>
     264:	19000003 	stmdbne	r0, {r0, r1}
     268:	31010078 	tstcc	r1, r8, ror r0
     26c:	00002c0e 	andeq	r2, r0, lr, lsl #24
     270:	006e1400 	rsbeq	r1, lr, r0, lsl #8
     274:	2c0e4201 	sfmcs	f4, 4, [lr], {1}
     278:	28000000 	stmdacs	r0, {}	; <UNPREDICTABLE>
     27c:	22000000 	andcs	r0, r0, #0, 0
     280:	1a000000 	bne	288 <__code_start__-0x7d78>
     284:	00000093 	muleq	r0, r3, r0
     288:	0000037b 	andeq	r0, r0, fp, ror r3
     28c:	a1d00305 	bicsge	r0, r0, r5, lsl #6
     290:	301b0000 	andscc	r0, fp, r0
     294:	4f000081 	svcmi	0x00000081
     298:	a9000005 	stmdbge	r0, {r0, r2}
     29c:	17000002 	strne	r0, [r0, -r2]
     2a0:	03055001 	movweq	r5, #20481	; 0x5001
     2a4:	0000a0dc 	ldrdeq	sl, [r0], -ip
     2a8:	81341500 	teqhi	r4, r0, lsl #10
     2ac:	020c0000 	andeq	r0, ip, #0, 0
     2b0:	3c1b0000 	ldccc	0, cr0, [fp], {-0}
     2b4:	4f000081 	svcmi	0x00000081
     2b8:	c9000005 	stmdbgt	r0, {r0, r2}
     2bc:	17000002 	strne	r0, [r0, -r2]
     2c0:	03055001 	movweq	r5, #20481	; 0x5001
     2c4:	0000a118 	andeq	sl, r0, r8, lsl r1
     2c8:	81401500 	cmphi	r0, r0, lsl #10
     2cc:	055b0000 	ldrbeq	r0, [fp, #-0]
     2d0:	44150000 	ldrmi	r0, [r5], #-0
     2d4:	67000081 	strvs	r0, [r0, -r1, lsl #1]
     2d8:	1b000005 	blne	2f4 <__code_start__-0x7d0c>
     2dc:	00008150 	andeq	r8, r0, r0, asr r1
     2e0:	0000054f 	andeq	r0, r0, pc, asr #10
     2e4:	000002f2 	strdeq	r0, [r0], -r2
     2e8:	05500117 	ldrbeq	r0, [r0, #-279]	; 0xfffffee9
     2ec:	00a12c03 	adceq	r2, r1, r3, lsl #24
     2f0:	581b0000 	ldmdapl	fp, {}	; <UNPREDICTABLE>
     2f4:	4f000081 	svcmi	0x00000081
     2f8:	09000005 	stmdbeq	r0, {r0, r2}
     2fc:	17000003 	strne	r0, [r0, -r3]
     300:	03055001 	movweq	r5, #20481	; 0x5001
     304:	0000a14c 	andeq	sl, r0, ip, asr #2
     308:	815c1500 	cmphi	ip, r0, lsl #10
     30c:	05670000 	strbeq	r0, [r7, #-0]!
     310:	6c1b0000 	ldcvs	0, cr0, [fp], {-0}
     314:	4f000081 	svcmi	0x00000081
     318:	29000005 	stmdbcs	r0, {r0, r2}
     31c:	17000003 	strne	r0, [r0, -r3]
     320:	03055001 	movweq	r5, #20481	; 0x5001
     324:	0000a1ac 	andeq	sl, r0, ip, lsr #3
     328:	81701500 	cmnhi	r0, r0, lsl #10
     32c:	05730000 	ldrbeq	r0, [r3, #-0]!
     330:	901b0000 	andsls	r0, fp, r0
     334:	4f000081 	svcmi	0x00000081
     338:	61000005 	tstvs	r0, r5
     33c:	17000003 	strne	r0, [r0, -r3]
     340:	03055001 	movweq	r5, #20481	; 0x5001
     344:	0000a170 	andeq	sl, r0, r0, ror r1
     348:	05510117 	ldrbeq	r0, [r1, #-279]	; 0xfffffee9
     34c:	00a07003 	adceq	r7, r0, r3
     350:	52011700 	andpl	r1, r1, #0, 14
     354:	a1d00305 	bicsge	r0, r0, r5, lsl #6
     358:	01170000 	tsteq	r7, r0
     35c:	44080253 	strmi	r0, [r8], #-595	; 0xfffffdad
     360:	81941500 	orrshi	r1, r4, r0, lsl #10
     364:	057f0000 	ldrbeq	r0, [pc, #-0]!	; 36c <__code_start__-0x7c94>
     368:	0f000000 	svceq	0x00000000
     36c:	000000cc 	andeq	r0, r0, ip, asr #1
     370:	0000037b 	andeq	r0, r0, fp, ror r3
     374:	00002c10 	andeq	r2, r0, r0, lsl ip
     378:	09000700 	stmdbeq	r0, {r8, r9, sl}
     37c:	0000036b 	andeq	r0, r0, fp, ror #6
     380:	00027c1c 	andeq	r7, r2, ip, lsl ip
     384:	070c0100 	streq	r0, [ip, -r0, lsl #2]
     388:	000001fe 	strdeq	r0, [r0], -lr
     38c:	00008038 	andeq	r8, r0, r8, lsr r0
     390:	000000cc 	andeq	r0, r0, ip, asr #1
     394:	04f29c01 	ldrbteq	r9, [r2], #3073	; 0xc01
     398:	070d0000 	streq	r0, [sp, -r0]
     39c:	0c000007 	stceq	0, cr0, [r0], {7}
     3a0:	cd0c0d01 	stcgt	13, cr0, [ip, #-4]
     3a4:	0e000003 	cdpeq	0, 0, cr0, cr0, cr3, {0}
     3a8:	0e010078 	mcreq	0, 0, r0, cr1, cr8, {3}
     3ac:	0000250d 	andeq	r2, r0, sp, lsl #10
     3b0:	9e0b0000 	cdpls	0, 0, cr0, cr11, cr0, {0}
     3b4:	01000002 	tsteq	r0, r2
     3b8:	04f2160f 	ldrbteq	r1, [r2], #1551	; 0x60f
     3bc:	0b040000 	bleq	1003c4 <__bss_end__+0xf5464>
     3c0:	0000028e 	andeq	r0, r0, lr, lsl #5
     3c4:	f2161001 	vhadd.s16	d1, d6, d1
     3c8:	08000004 	stmdaeq	r0, {r2}
     3cc:	00681400 	rsbeq	r1, r8, r0, lsl #8
     3d0:	f2081101 	vrhadd.s8	d1, d8, d1
     3d4:	5a000004 	bpl	3ec <__code_start__-0x7c14>
     3d8:	52000000 	andpl	r0, r0, #0, 0
     3dc:	1a000000 	bne	3e4 <__code_start__-0x7c1c>
     3e0:	00000093 	muleq	r0, r3, r0
     3e4:	00000508 	andeq	r0, r0, r8, lsl #10
     3e8:	a1c80305 	bicge	r0, r8, r5, lsl #6
     3ec:	001d0000 	andseq	r0, sp, r0
     3f0:	d1000000 	mrsle	r0, (UNDEF: 0)
     3f4:	14000004 	strne	r0, [r0], #-4
     3f8:	13010069 	movwne	r0, #4201	; 0x1069
     3fc:	0000250d 	andeq	r2, r0, sp, lsl #10
     400:	00009300 	andeq	r9, r0, r0, lsl #6
     404:	00008f00 	andeq	r8, r0, r0, lsl #30
     408:	00201e00 	eoreq	r1, r0, r0, lsl #28
     40c:	65140000 	ldrvs	r0, [r4, #-0]
     410:	16140100 	ldrne	r0, [r4], -r0, lsl #2
     414:	000004f2 	strdeq	r0, [r0], -r2
     418:	000000b6 	strheq	r0, [r0], -r6
     41c:	000000b2 	strheq	r0, [r0], -r2
     420:	00050d1f 	andeq	r0, r5, pc, lsl sp
     424:	00806800 	addeq	r6, r0, r0, lsl #16
     428:	80680100 	rsbhi	r0, r8, r0, lsl #2
     42c:	00180000 	andseq	r0, r8, r0
     430:	14010000 	strne	r0, [r1], #-0
     434:	0004611a 	andeq	r6, r4, sl, lsl r1
     438:	05362000 	ldreq	r2, [r6, #-0]!
     43c:	00d60000 	sbcseq	r0, r6, r0
     440:	00d40000 	sbcseq	r0, r4, r0
     444:	2a200000 	bcs	80044c <__bss_end__+0x7f54ec>
     448:	ec000005 	stc	0, cr0, [r0], {5}
     44c:	ea000000 	b	454 <__code_start__-0x7bac>
     450:	20000000 	andcs	r0, r0, r0
     454:	0000051e 	andeq	r0, r0, lr, lsl r5
     458:	00000106 	andeq	r0, r0, r6, lsl #2
     45c:	00000104 	andeq	r0, r0, r4, lsl #2
     460:	80901b00 	addshi	r1, r0, r0, lsl #22
     464:	05940000 	ldreq	r0, [r4]
     468:	04740000 	ldrbteq	r0, [r4], #-0
     46c:	01170000 	tsteq	r7, r0
     470:	003c0150 	eorseq	r0, ip, r0, asr r1
     474:	0080a01b 	addeq	sl, r0, fp, lsl r0
     478:	0005a000 	andeq	sl, r5, r0
     47c:	00049200 	andeq	r9, r4, r0, lsl #4
     480:	50011700 	andpl	r1, r1, r0, lsl #14
     484:	17007402 	strne	r7, [r0, -r2, lsl #8]
     488:	30015101 	andcc	r5, r1, r1, lsl #2
     48c:	01520117 	cmpeq	r2, r7, lsl r1
     490:	ec1b003c 	ldc	0, cr0, [fp], {60}	; 0x3c
     494:	4f000080 	svcmi	0x00000080
     498:	c6000005 	strgt	r0, [r0], -r5
     49c:	17000004 	strne	r0, [r0, -r4]
     4a0:	03055001 	movweq	r5, #20481	; 0x5001
     4a4:	0000a08c 	andeq	sl, r0, ip, lsl #1
     4a8:	03510117 	cmpeq	r1, #-1073741819	; 0xc0000005
     4ac:	17065c91 			; <UNDEFINED> instruction: 0x17065c91
     4b0:	91035201 	tstls	r3, r1, lsl #4
     4b4:	01170660 	tsteq	r7, r0, ror #12
     4b8:	17480153 	smlsldne	r0, r8, r3, r1
     4bc:	05007d02 	streq	r7, [r0, #-3330]	; 0xfffff2fe
     4c0:	00a0a003 	adceq	sl, r0, r3
     4c4:	f0150000 			; <UNDEFINED> instruction: 0xf0150000
     4c8:	7f000080 	svcvc	0x00000080
     4cc:	00000005 	andeq	r0, r0, r5
     4d0:	80581b00 	subshi	r1, r8, r0, lsl #22
     4d4:	054f0000 	strbeq	r0, [pc, #-0]	; 4dc <__code_start__-0x7b24>
     4d8:	04e80000 	strbteq	r0, [r8], #0
     4dc:	01170000 	tsteq	r7, r0
     4e0:	ac030550 	cfstr32ge	mvfx0, [r3], {80}	; 0x50
     4e4:	000000a0 	andeq	r0, r0, r0, lsr #1
     4e8:	00805c15 	addeq	r5, r0, r5, lsl ip
     4ec:	00057300 	andeq	r7, r5, r0, lsl #6
     4f0:	04080000 	streq	r0, [r8], #-0
     4f4:	0000039a 	muleq	r0, sl, r3
     4f8:	0000cc0f 	andeq	ip, r0, pc, lsl #24
     4fc:	00050800 	andeq	r0, r5, r0, lsl #16
     500:	002c1000 	eoreq	r1, ip, r0
     504:	00040000 	andeq	r0, r4, r0
     508:	0004f809 	andeq	pc, r4, r9, lsl #16
     50c:	02932100 	addseq	r2, r3, #0
     510:	0c020000 	stceq	0, cr0, [r2], {-0}
     514:	0001140b 	andeq	r1, r1, fp, lsl #8
     518:	05430300 	strbeq	r0, [r3, #-768]	; 0xfffffd00
     51c:	40220000 	eormi	r0, r2, r0
     520:	02000000 	andeq	r0, r0, #0, 0
     524:	00bf220c 	adcseq	r2, pc, ip, lsl #4
     528:	61220000 			; <UNDEFINED> instruction: 0x61220000
     52c:	02000000 	andeq	r0, r0, #0, 0
     530:	00bf340c 	adcseq	r3, pc, ip, lsl #8
     534:	f0220000 			; <UNDEFINED> instruction: 0xf0220000
     538:	02000000 	andeq	r0, r0, #0, 0
     53c:	002c430c 	eoreq	r4, ip, ip, lsl #6
     540:	23000000 	movwcs	r0, #0
     544:	00000045 	andeq	r0, r0, r5, asr #32
     548:	00000045 	andeq	r0, r0, r5, asr #32
     54c:	2306b204 	movwcs	fp, #25092	; 0x6204
     550:	000006ec 	andeq	r0, r0, ip, ror #13
     554:	000006ec 	andeq	r0, r0, ip, ror #13
     558:	23062804 	movwcs	r2, #26628	; 0x6804
     55c:	000001b5 			; <UNDEFINED> instruction: 0x000001b5
     560:	000001b5 			; <UNDEFINED> instruction: 0x000001b5
     564:	230a7605 	movwcs	r7, #42501	; 0xa605
     568:	00000086 	andeq	r0, r0, r6, lsl #1
     56c:	00000086 	andeq	r0, r0, r6, lsl #1
     570:	230a6f05 	movwcs	r6, #44805	; 0xaf05
     574:	000000e2 	andeq	r0, r0, r2, ror #1
     578:	000000e2 	andeq	r0, r0, r2, ror #1
     57c:	23067405 	movwcs	r7, #25605	; 0x6405
     580:	000000aa 	andeq	r0, r0, sl, lsr #1
     584:	000000aa 	andeq	r0, r0, sl, lsr #1
     588:	24066e04 	strcs	r6, [r6], #-3588	; 0xfffff1fc
     58c:	74059e07 	strvc	r9, [r5], #-3591	; 0xfffff1f9
     590:	00747365 	rsbseq	r7, r4, r5, ror #6
     594:	00003823 	andeq	r3, r0, r3, lsr #16
     598:	00003800 	andeq	r3, r0, r0, lsl #16
     59c:	08510500 	ldmdaeq	r1, {r8, sl}^
     5a0:	00007f23 	andeq	r7, r0, r3, lsr #30
     5a4:	00007f00 	andeq	r7, r0, r0, lsl #30
     5a8:	07f70400 	ldrbeq	r0, [r7, r0, lsl #8]!
     5ac:	000be700 	andeq	lr, fp, r0, lsl #14
     5b0:	12000400 	andne	r0, r0, #0, 8
     5b4:	04000002 	streq	r0, [r0], #-2
     5b8:	0001c701 	andeq	ip, r1, r1, lsl #14
     5bc:	03690c00 	cmneq	r9, #0, 24
     5c0:	015d0000 	cmpeq	sp, r0
     5c4:	81b40000 			; <UNDEFINED> instruction: 0x81b40000
     5c8:	052c0000 	streq	r0, [ip, #-0]!
     5cc:	02410000 	subeq	r0, r1, #0, 0
     5d0:	04020000 	streq	r0, [r2], #-0
     5d4:	746e6905 	strbtvc	r6, [lr], #-2309	; 0xfffff6fb
     5d8:	07040300 	streq	r0, [r4, -r0, lsl #6]
     5dc:	00000101 	andeq	r0, r0, r1, lsl #2
     5e0:	cb060103 	blgt	1809f4 <__bss_end__+0x175a94>
     5e4:	03000000 	movweq	r0, #0
     5e8:	00220502 	eoreq	r0, r2, r2, lsl #10
     5ec:	04030000 	streq	r0, [r3], #-0
     5f0:	00006b05 	andeq	r6, r0, r5, lsl #22
     5f4:	05080300 	streq	r0, [r8, #-768]	; 0xfffffd00
     5f8:	00000066 	andeq	r0, r0, r6, rrx
     5fc:	00004b04 	andeq	r4, r0, r4, lsl #22
     600:	182e0300 	stmdane	lr!, {r8, r9}
     604:	0000005b 	andeq	r0, r0, fp, asr r0
     608:	c9080103 	stmdbgt	r8, {r0, r1, r8}
     60c:	04000000 	streq	r0, [r0], #-0
     610:	00000132 	andeq	r0, r0, r2, lsr r1
     614:	6e193103 	mufvse	f3, f1, f3
     618:	03000000 	movweq	r0, #0
     61c:	01430702 	cmpeq	r3, r2, lsl #14
     620:	29040000 	stmdbcs	r4, {}	; <UNPREDICTABLE>
     624:	03000001 	movweq	r0, #1
     628:	00811934 	addeq	r1, r1, r4, lsr r9
     62c:	04030000 	streq	r0, [r3], #-0
     630:	0000fc07 	andeq	pc, r0, r7, lsl #24
     634:	07080300 	streq	r0, [r8, -r0, lsl #6]
     638:	000000f7 	strdeq	r0, [r0], -r7
     63c:	00002505 	andeq	r2, r0, r5, lsl #10
     640:	00009e00 	andeq	r9, r0, r0, lsl #28
     644:	00250600 	eoreq	r0, r5, r0, lsl #12
     648:	07000000 	streq	r0, [r0, -r0]
     64c:	0000002c 	andeq	r0, r0, ip, lsr #32
     650:	aa0e1c04 	bge	387668 <__bss_end__+0x37c708>
     654:	08000000 	stmdaeq	r0, {}	; <UNPREDICTABLE>
     658:	00008f04 	andeq	r8, r0, r4, lsl #30
     65c:	00250500 	eoreq	r0, r5, r0, lsl #10
     660:	00bf0000 	adcseq	r0, pc, r0
     664:	bf060000 	svclt	0x00060000
     668:	00000000 	andeq	r0, r0, r0
     66c:	00cc0408 	sbceq	r0, ip, r8, lsl #8
     670:	01030000 	mrseq	r0, (UNDEF: 3)
     674:	0000d208 	andeq	sp, r0, r8, lsl #4
     678:	00c50900 	sbceq	r0, r5, r0, lsl #18
     67c:	2a070000 	bcs	1c0684 <__bss_end__+0x1b5724>
     680:	04000007 	streq	r0, [r0], #-7
     684:	00dd0e21 	sbcseq	r0, sp, r1, lsr #28
     688:	04080000 	streq	r0, [r8], #-0
     68c:	000000b0 	strheq	r0, [r0], -r0	; <UNPREDICTABLE>
     690:	89040803 	stmdbhi	r4, {r0, r1, fp}
     694:	0a000003 	beq	6a8 <__code_start__-0x7958>
     698:	050c0b04 	streq	r0, [ip, #-2820]	; 0xfffff4fc
     69c:	011d0904 	tsteq	sp, r4, lsl #18
     6a0:	400c0000 	andmi	r0, ip, r0
     6a4:	05000000 	streq	r0, [r0, #-0]
     6a8:	00bf1106 	adcseq	r1, pc, r6, lsl #2
     6ac:	0c000000 	stceq	0, cr0, [r0], {-0}
     6b0:	00000061 	andeq	r0, r0, r1, rrx
     6b4:	bf110705 	svclt	0x00110705
     6b8:	04000000 	streq	r0, [r0], #-0
     6bc:	0000f00c 	andeq	pc, r0, ip
     6c0:	0e080500 	cfsh32eq	mvfx0, mvfx8, #0
     6c4:	0000002c 	andeq	r0, r0, ip, lsr #32
     6c8:	a3040008 	movwge	r0, #16392	; 0x4008
     6cc:	05000002 	streq	r0, [r0, #-2]
     6d0:	00ec0309 	rsceq	r0, ip, r9, lsl #6
     6d4:	070d0000 	streq	r0, [sp, -r0]
     6d8:	00005b01 	andeq	r5, r0, r1, lsl #22
     6dc:	0e090200 	cdpeq	2, 0, cr0, cr9, cr0, {0}
     6e0:	00000144 	andeq	r0, r0, r4, asr #2
     6e4:	00039e0e 	andeq	r9, r3, lr, lsl #28
     6e8:	d20e0b00 	andle	r0, lr, #0, 22
     6ec:	0c000002 	stceq	0, cr0, [r0], {2}
     6f0:	01070d00 	tsteq	r7, r0, lsl #26
     6f4:	0000005b 	andeq	r0, r0, fp, asr r0
     6f8:	5f060a02 	svcpl	0x00060a02
     6fc:	0e000001 	cdpeq	0, 0, cr0, cr0, cr1, {0}
     700:	00000300 	andeq	r0, r0, r0, lsl #6
     704:	02f40e80 	rscseq	r0, r4, #128, 28	; 0x800
     708:	00fe0000 	rscseq	r0, lr, r0
     70c:	0000530f 	andeq	r5, r0, pc, lsl #6
     710:	110c0200 	mrsne	r0, R12_fiq
     714:	0000002c 	andeq	r0, r0, ip, lsr #32
     718:	ab140305 	blge	501334 <__bss_end__+0x4f63d4>
     71c:	8c100000 	ldchi	0, cr0, [r0], {-0}
     720:	a8000000 	stmdage	r0, {}	; <UNPREDICTABLE>
     724:	01101002 	tsteq	r0, r2
     728:	0c000002 	stceq	0, cr0, [r0], {2}
     72c:	0000029e 	muleq	r0, lr, r2
     730:	01141102 	tsteq	r4, r2, lsl #2
     734:	00000002 	andeq	r0, r0, r2
     738:	0002810c 	andeq	r8, r2, ip, lsl #2
     73c:	0e120200 	cdpeq	2, 1, cr0, cr2, cr0, {0}
     740:	00000075 	andeq	r0, r0, r5, ror r0
     744:	00100c04 	andseq	r0, r0, r4, lsl #24
     748:	13020000 	movwne	r0, #8192	; 0x2000
     74c:	0000750e 	andeq	r7, r0, lr, lsl #10
     750:	580c0800 	stmdapl	ip, {fp}
     754:	02000000 	andeq	r0, r0, #0, 0
     758:	00750e17 	rsbseq	r0, r5, r7, lsl lr
     75c:	0c0c0000 	stceq	0, cr0, [ip], {-0}
     760:	000000a0 	andeq	r0, r0, r0, lsr #1
     764:	1d0f1902 	vstrne.16	s2, [pc, #-4]	; 768 <__code_start__-0x7898>	; <UNPREDICTABLE>
     768:	10000001 	andne	r0, r0, r1
     76c:	0000d70c 	andeq	sp, r0, ip, lsl #14
     770:	0e1c0200 	cdpeq	2, 1, cr0, cr12, cr0, {0}
     774:	00000075 	andeq	r0, r0, r5, ror r0
     778:	00160c1c 	andseq	r0, r6, ip, lsl ip
     77c:	1d020000 	stcne	0, cr0, [r2, #-0]
     780:	0000750e 	andeq	r7, r0, lr, lsl #10
     784:	b70c2000 	strlt	r2, [ip, -r0]
     788:	02000000 	andeq	r0, r0, #0, 0
     78c:	00620e1f 	rsbeq	r0, r2, pc, lsl lr
     790:	0c240000 	stceq	0, cr0, [r4], #-0
     794:	00000156 	andeq	r0, r0, r6, asr r1
     798:	620b2002 	andvs	r2, fp, #2, 0
     79c:	26000000 	strcs	r0, [r0], -r0
     7a0:	317a7211 	cmncc	sl, r1, lsl r2
     7a4:	0d220200 	sfmeq	f0, 4, [r2, #-0]
     7a8:	00000207 	andeq	r0, r0, r7, lsl #4
     7ac:	04080028 	streq	r0, [r8], #-40	; 0xffffffd8
     7b0:	00000171 	andeq	r0, r0, r1, ror r1
     7b4:	00004f12 	andeq	r4, r0, r2, lsl pc
     7b8:	00021700 	andeq	r1, r2, r0, lsl #14
     7bc:	002c1300 	eoreq	r1, ip, r0, lsl #6
     7c0:	007f0000 	rsbseq	r0, pc, r0
     7c4:	00000a04 	andeq	r0, r0, r4, lsl #20
     7c8:	03230200 			; <UNDEFINED> instruction: 0x03230200
     7cc:	00000171 	andeq	r0, r0, r1, ror r1
     7d0:	0000740f 	andeq	r7, r0, pc, lsl #8
     7d4:	0f250200 	svceq	0x00250200
     7d8:	00000235 	andeq	r0, r0, r5, lsr r2
     7dc:	ab340305 	blge	d013f8 <__bss_end__+0xcf6498>
     7e0:	04080000 	streq	r0, [r8], #-0
     7e4:	00000217 	andeq	r0, r0, r7, lsl r2
     7e8:	0000000f 	andeq	r0, r0, pc
     7ec:	0f260200 	svceq	0x00260200
     7f0:	00000235 	andeq	r0, r0, r5, lsr r2
     7f4:	ab300305 	blge	c01410 <__bss_end__+0xbf64b0>
     7f8:	bc070000 	stclt	0, cr0, [r7], {-0}
     7fc:	02000000 	andeq	r0, r0, #0, 0
     800:	002c11ad 	eoreq	r1, ip, sp, lsr #3
     804:	38140000 	ldmdacc	r4, {}	; <UNPREDICTABLE>
     808:	01000000 	mrseq	r0, (UNDEF: 0)
     80c:	00ea08a9 	rsceq	r0, sl, r9, lsr #17
     810:	86040000 	strhi	r0, [r4], -r0
     814:	00dc0000 	sbcseq	r0, ip, r0
     818:	9c010000 	stcls	0, cr0, [r1], {-0}
     81c:	000003a5 	andeq	r0, r0, r5, lsr #7
     820:	0003d815 	andeq	sp, r3, r5, lsl r8
     824:	1aa90100 	bne	fea40c2c <__bss_end__+0xfea35ccc>
     828:	00000075 	andeq	r0, r0, r5, ror r0
     82c:	00000124 	andeq	r0, r0, r4, lsr #2
     830:	0000011e 	andeq	r0, r0, lr, lsl r1
     834:	01006c16 	tsteq	r0, r6, lsl ip
     838:	011d2ca9 	tsteq	sp, r9, lsr #25
     83c:	91020000 	mrsls	r0, (UNDEF: 2)
     840:	00681764 	rsbeq	r1, r8, r4, ror #14
     844:	350cab01 	strcc	sl, [ip, #-2817]	; 0xfffff4ff
     848:	56000002 	strpl	r0, [r0], -r2
     84c:	50000001 	andpl	r0, r0, r1
     850:	18000001 	stmdane	r0, {r0}
     854:	00000b6a 	andeq	r0, r0, sl, ror #22
     858:	00008664 	andeq	r8, r0, r4, ror #12
     85c:	00866401 	addeq	r6, r6, r1, lsl #8
     860:	00000800 	andeq	r0, r0, r0, lsl #16
     864:	11b60100 			; <UNDEFINED> instruction: 0x11b60100
     868:	000002dd 	ldrdeq	r0, [r0], -sp
     86c:	000b7b19 	andeq	r7, fp, r9, lsl fp
     870:	00018400 	andeq	r8, r1, r0, lsl #8
     874:	00018200 	andeq	r8, r1, r0, lsl #4
     878:	866c1a00 	strbthi	r1, [ip], -r0, lsl #20
     87c:	09db0000 	ldmibeq	fp, {}^	; <UNPREDICTABLE>
     880:	011b0000 	tsteq	fp, r0
     884:	00740250 	rsbseq	r0, r4, r0, asr r2
     888:	201c0000 	andscs	r0, ip, r0
     88c:	a2000086 	andge	r0, r0, #134, 0	; 0x86
     890:	f200000b 	vhadd.s8	d0, d0, d11
     894:	1b000002 	blne	8a4 <__code_start__-0x775c>
     898:	76035001 	strvc	r5, [r3], -r1
     89c:	1c0002a8 	sfmne	f0, 4, [r0], {168}	; 0xa8
     8a0:	00008630 	andeq	r8, r0, r0, lsr r6
     8a4:	00000bae 	andeq	r0, r0, lr, lsr #23
     8a8:	00000311 	andeq	r0, r0, r1, lsl r3
     8ac:	0250011b 	subseq	r0, r0, #-1073741818	; 0xc0000006
     8b0:	011b0074 	tsteq	fp, r4, ror r0
     8b4:	1b300151 	blne	c00e00 <__bss_end__+0xbf5ea0>
     8b8:	08025201 	stmdaeq	r2, {r0, r9, ip, lr}
     8bc:	401c00a8 	andsmi	r0, ip, r8, lsr #1
     8c0:	ae000086 	cdpge	0, 0, cr0, cr0, cr6, {4}
     8c4:	3100000b 	tstcc	r0, fp
     8c8:	1b000003 	blne	8dc <__code_start__-0x7724>
     8cc:	74025001 	strvc	r5, [r2], #-1
     8d0:	51011b28 	tstpl	r1, r8, lsr #22
     8d4:	1bfe0802 	blne	fff828e4 <__bss_end__+0xfff77984>
     8d8:	08025201 	stmdaeq	r2, {r0, r9, ip, lr}
     8dc:	781c0080 	ldmdavc	ip, {r7}
     8e0:	ae000086 	cdpge	0, 0, cr0, cr0, cr6, {4}
     8e4:	4b00000b 	blmi	918 <__code_start__-0x76e8>
     8e8:	1b000003 	blne	8fc <__code_start__-0x7704>
     8ec:	08025101 	stmdaeq	r2, {r0, r8, ip, lr}
     8f0:	52011bfe 	andpl	r1, r1, #260096	; 0x3f800
     8f4:	00800802 	addeq	r0, r0, r2, lsl #16
     8f8:	0086a01c 	addeq	sl, r6, ip, lsl r0
     8fc:	000bba00 	andeq	fp, fp, r0, lsl #20
     900:	00037700 	andeq	r7, r3, r0, lsl #14
     904:	50011b00 	andpl	r1, r1, r0, lsl #22
     908:	a2d40305 	sbcsge	r0, r4, #335544320	; 0x14000000
     90c:	011b0000 	tsteq	fp, r0
     910:	00750351 	rsbseq	r0, r5, r1, asr r3
     914:	52011b06 	andpl	r1, r1, #6144	; 0x1800
     918:	06609103 	strbteq	r9, [r0], -r3, lsl #2
     91c:	0353011b 	cmpeq	r3, #-1073741818	; 0xc0000006
     920:	00066491 	muleq	r6, r1, r4
     924:	0086b41c 	addeq	fp, r6, ip, lsl r4
     928:	000bba00 	andeq	fp, fp, r0, lsl #20
     92c:	00039400 	andeq	r9, r3, r0, lsl #8
     930:	50011b00 	andpl	r1, r1, r0, lsl #22
     934:	a3940305 	orrsge	r0, r4, #335544320	; 0x14000000
     938:	011b0000 	tsteq	fp, r0
     93c:	00750252 	rsbseq	r0, r5, r2, asr r2
     940:	86c41a00 	strbhi	r1, [r4], r0, lsl #20
     944:	0aaf0000 	beq	febc094c <__bss_end__+0xfebb59ec>
     948:	011b0000 	tsteq	fp, r0
     94c:	00740251 	rsbseq	r0, r4, r1, asr r2
     950:	1c1d0000 	ldcne	0, cr0, [sp], {-0}
     954:	01000003 	tsteq	r0, r3
     958:	84940792 	ldrhi	r0, [r4], #1938	; 0x792
     95c:	01700000 	cmneq	r0, r0
     960:	9c010000 	stcls	0, cr0, [r1], {-0}
     964:	000005e8 	andeq	r0, r0, r8, ror #11
     968:	000ba315 	andeq	sl, fp, r5, lsl r3
     96c:	15920100 	ldrne	r0, [r2, #256]	; 0x100
     970:	000000ea 	andeq	r0, r0, sl, ror #1
     974:	0000019b 	muleq	r0, fp, r1
     978:	00000197 	muleq	r0, r7, r1
     97c:	01006c16 	tsteq	r0, r6, lsl ip
     980:	011d2592 			; <UNDEFINED> instruction: 0x011d2592
     984:	91030000 	mrsls	r0, (UNDEF: 3)
     988:	68177ee4 	ldmdavs	r7, {r2, r5, r6, r7, r9, sl, fp, ip, sp, lr}
     98c:	0c930100 	ldfeqs	f0, [r3], {0}
     990:	00000235 	andeq	r0, r0, r5, lsr r2
     994:	000001c1 	andeq	r0, r0, r1, asr #3
     998:	000001b9 			; <UNDEFINED> instruction: 0x000001b9
     99c:	0000931e 	andeq	r9, r0, lr, lsl r3
     9a0:	0005f800 	andeq	pc, r5, r0, lsl #16
     9a4:	c4030500 	strgt	r0, [r3], #-1280	; 0xfffffb00
     9a8:	0f0000a3 	svceq	0x000000a3
     9ac:	00000373 	andeq	r0, r0, r3, ror r3
     9b0:	070a9901 	streq	r9, [sl, -r1, lsl #18]
     9b4:	03000002 	movweq	r0, #2
     9b8:	1f7ef091 	svcne	0x007ef091
     9bc:	000084f4 	strdeq	r8, [r0], -r4
     9c0:	00000024 	andeq	r0, r0, r4, lsr #32
     9c4:	0000042e 	andeq	r0, r0, lr, lsr #8
     9c8:	01006917 	tsteq	r0, r7, lsl r9
     9cc:	002c109a 	mlaeq	ip, sl, r0, r1
     9d0:	02010000 	andeq	r0, r1, #0, 0
     9d4:	01fb0000 	mvnseq	r0, r0
     9d8:	1c000000 	stcne	0, cr0, [r0], {-0}
     9dc:	000084cc 	andeq	r8, r0, ip, asr #9
     9e0:	00000bba 			; <UNDEFINED> instruction: 0x00000bba
     9e4:	0000045d 	andeq	r0, r0, sp, asr r4
     9e8:	0550011b 	ldrbeq	r0, [r0, #-283]	; 0xfffffee5
     9ec:	00a2d403 	adceq	sp, r2, r3, lsl #8
     9f0:	51011b00 	tstpl	r1, r0, lsl #22
     9f4:	7edc9104 	atnvce	f1, f4
     9f8:	52011b06 	andpl	r1, r1, #6144	; 0x1800
     9fc:	7ee09104 	urdvcs	f1, f4
     a00:	53011b06 	movwpl	r1, #6918	; 0x1b06
     a04:	7ee49104 	urdvcs	f1, f4
     a08:	dc1c0006 	ldcle	0, cr0, [ip], {6}
     a0c:	ba000084 	blt	c24 <__code_start__-0x73dc>
     a10:	7a00000b 	bvc	a44 <__code_start__-0x75bc>
     a14:	1b000004 	blne	a2c <__code_start__-0x75d4>
     a18:	03055001 	movweq	r5, #20481	; 0x5001
     a1c:	0000a2e0 	andeq	sl, r0, r0, ror #5
     a20:	0252011b 	subseq	r0, r2, #-1073741818	; 0xc0000006
     a24:	1c000074 	stcne	0, cr0, [r0], {116}	; 0x74
     a28:	000084e4 	andeq	r8, r0, r4, ror #9
     a2c:	0000085e 	andeq	r0, r0, lr, asr r8
     a30:	0000048e 	andeq	r0, r0, lr, lsl #9
     a34:	0250011b 	subseq	r0, r0, #-1073741818	; 0xc0000006
     a38:	1c000074 	stcne	0, cr0, [r0], {116}	; 0x74
     a3c:	00008528 	andeq	r8, r0, r8, lsr #10
     a40:	00000bba 			; <UNDEFINED> instruction: 0x00000bba
     a44:	000004b5 			; <UNDEFINED> instruction: 0x000004b5
     a48:	0550011b 	ldrbeq	r0, [r0, #-283]	; 0xfffffee5
     a4c:	00a28803 	adceq	r8, r2, r3, lsl #16
     a50:	52011b00 	andpl	r1, r1, #0, 22
     a54:	7ee09104 	urdvcs	f1, f4
     a58:	53011b06 	movwpl	r1, #6918	; 0x1b06
     a5c:	7ee49104 	urdvcs	f1, f4
     a60:	381c0006 	ldmdacc	ip, {r1, r2}
     a64:	ba000085 	blt	c80 <__code_start__-0x7380>
     a68:	d200000b 	andle	r0, r0, #11, 0
     a6c:	1b000004 	blne	a84 <__code_start__-0x757c>
     a70:	03055001 	movweq	r5, #20481	; 0x5001
     a74:	0000a2a0 	andeq	sl, r0, r0, lsr #5
     a78:	0251011b 	subseq	r0, r1, #-1073741818	; 0xc0000006
     a7c:	20000074 	andcs	r0, r0, r4, ror r0
     a80:	0000853c 	andeq	r8, r0, ip, lsr r5
     a84:	00000bc6 	andeq	r0, r0, r6, asr #23
     a88:	0085581c 	addeq	r5, r5, ip, lsl r8
     a8c:	000bba00 	andeq	fp, fp, r0, lsl #20
     a90:	00051400 	andeq	r1, r5, r0, lsl #8
     a94:	50011b00 	andpl	r1, r1, r0, lsl #22
     a98:	a08c0305 	addge	r0, ip, r5, lsl #6
     a9c:	011b0000 	tsteq	fp, r0
     aa0:	d8030551 	stmdale	r3, {r0, r4, r6, r8, sl}
     aa4:	1b0000a1 	blne	d30 <__code_start__-0x72d0>
     aa8:	03055201 	movweq	r5, #20993	; 0x5201
     aac:	0000a3c4 	andeq	sl, r0, r4, asr #7
     ab0:	0253011b 	subseq	r0, r3, #-1073741818	; 0xc0000006
     ab4:	021b9708 	andseq	r9, fp, #8, 14	; 0x200000
     ab8:	0305007d 	movweq	r0, #20605	; 0x507d
     abc:	0000a300 	andeq	sl, r0, r0, lsl #6
     ac0:	855c2000 	ldrbhi	r2, [ip, #-0]
     ac4:	0bc60000 	bleq	ff180acc <__bss_end__+0xff175b6c>
     ac8:	681c0000 	ldmdavs	ip, {}	; <UNPREDICTABLE>
     acc:	6e000085 	cdpvs	0, 0, cr0, cr0, cr5, {4}
     ad0:	38000007 	stmdacc	r0, {r0, r1, r2}
     ad4:	1b000005 	blne	af0 <__code_start__-0x7510>
     ad8:	75025001 	strvc	r5, [r2, #-1]
     adc:	51011b00 	tstpl	r1, r0, lsl #22
     ae0:	7ee89103 	urdvce	f1, f3
     ae4:	85801c00 	strhi	r1, [r0, #3072]	; 0xc00
     ae8:	0bae0000 	bleq	feb80af0 <__bss_end__+0xfeb75b90>
     aec:	05520000 	ldrbeq	r0, [r2, #-0]
     af0:	011b0000 	tsteq	fp, r0
     af4:	00740250 	rsbseq	r0, r4, r0, asr r2
     af8:	0251011b 	subseq	r0, r1, #-1073741818	; 0xc0000006
     afc:	1c00fe08 	stcne	14, cr15, [r0], {8}
     b00:	00008588 	andeq	r8, r0, r8, lsl #11
     b04:	0000085e 	andeq	r0, r0, lr, asr r8
     b08:	00000566 	andeq	r0, r0, r6, ror #10
     b0c:	0250011b 	subseq	r0, r0, #-1073741818	; 0xc0000006
     b10:	1c000074 	stcne	0, cr0, [r0], {116}	; 0x74
     b14:	000085b8 			; <UNDEFINED> instruction: 0x000085b8
     b18:	00000bba 			; <UNDEFINED> instruction: 0x00000bba
     b1c:	0000059c 	muleq	r0, ip, r5
     b20:	0550011b 	ldrbeq	r0, [r0, #-283]	; 0xfffffee5
     b24:	00a32003 	adceq	r2, r3, r3
     b28:	51011b00 	tstpl	r1, r0, lsl #22
     b2c:	a1d80305 	bicsge	r0, r8, r5, lsl #6
     b30:	011b0000 	tsteq	fp, r0
     b34:	c4030552 	strgt	r0, [r3], #-1362	; 0xfffffaae
     b38:	1b0000a3 	blne	dcc <__code_start__-0x7234>
     b3c:	08025301 	stmdaeq	r2, {r0, r8, r9, ip, lr}
     b40:	7d021b9f 	vstrvc	d1, [r2, #-636]	; 0xfffffd84
     b44:	00750204 	rsbseq	r0, r5, r4, lsl #4
     b48:	85bc2000 	ldrhi	r2, [ip, #0]!
     b4c:	0bc60000 	bleq	ff180b54 <__bss_end__+0xff175bf4>
     b50:	d81c0000 	ldmdale	ip, {}	; <UNPREDICTABLE>
     b54:	ba000085 	blt	d70 <__code_start__-0x7290>
     b58:	de00000b 	cdple	0, 0, cr0, cr0, cr11, {0}
     b5c:	1b000005 	blne	b78 <__code_start__-0x7488>
     b60:	03055001 	movweq	r5, #20481	; 0x5001
     b64:	0000a08c 	andeq	sl, r0, ip, lsl #1
     b68:	0551011b 	ldrbeq	r0, [r1, #-283]	; 0xfffffee5
     b6c:	00a1d803 	adceq	sp, r1, r3, lsl #16
     b70:	52011b00 	andpl	r1, r1, #0, 22
     b74:	a3c40305 	bicge	r0, r4, #335544320	; 0x14000000
     b78:	011b0000 	tsteq	fp, r0
     b7c:	a2080253 	andge	r0, r8, #805306373	; 0x30000005
     b80:	007d021b 	rsbseq	r0, sp, fp, lsl r2
     b84:	a3780305 	cmnge	r8, #335544320	; 0x14000000
     b88:	20000000 	andcs	r0, r0, r0
     b8c:	000085dc 	ldrdeq	r8, [r0], -ip
     b90:	00000bc6 	andeq	r0, r0, r6, asr #23
     b94:	00cc1200 	sbceq	r1, ip, r0, lsl #4
     b98:	05f80000 	ldrbeq	r0, [r8, #0]!
     b9c:	2c130000 	ldccs	0, cr0, [r3], {-0}
     ba0:	06000000 	streq	r0, [r0], -r0
     ba4:	05e80900 	strbeq	r0, [r8, #2304]!	; 0x900
     ba8:	b3140000 	tstlt	r4, #0, 0
     bac:	01000003 	tsteq	r0, r3
     bb0:	0025057a 	eoreq	r0, r5, sl, ror r5
     bb4:	83f00000 	mvnshi	r0, #0, 0
     bb8:	00a40000 	adceq	r0, r4, r0
     bbc:	9c010000 	stcls	0, cr0, [r1], {-0}
     bc0:	00000710 	andeq	r0, r0, r0, lsl r7
     bc4:	00035d21 	andeq	r5, r3, r1, lsr #26
     bc8:	097c0100 	ldmdbeq	ip!, {r8}^
     bcc:	00000235 	andeq	r0, r0, r5, lsr r2
     bd0:	0000022f 	andeq	r0, r0, pc, lsr #4
     bd4:	0000022b 	andeq	r0, r0, fp, lsr #4
     bd8:	0003730f 	andeq	r7, r3, pc, lsl #6
     bdc:	0a7d0100 	beq	1f40fe4 <__bss_end__+0x1f36084>
     be0:	00000207 	andeq	r0, r0, r7, lsl #4
     be4:	7ef09103 	nrmvcs	f1, f3
     be8:	0002d821 	andeq	sp, r2, r1, lsr #16
     bec:	0e7e0100 	rpweqe	f0, f6, f0
     bf0:	00000710 	andeq	r0, r0, r0, lsl r7
     bf4:	00000251 	andeq	r0, r0, r1, asr r2
     bf8:	0000024d 	andeq	r0, r0, sp, asr #4
     bfc:	00033221 	andeq	r3, r3, r1, lsr #4
     c00:	0b7f0100 	bleq	1fc1008 <__bss_end__+0x1fb60a8>
     c04:	0000002c 	andeq	r0, r0, ip, lsr #32
     c08:	00000275 	andeq	r0, r0, r5, ror r2
     c0c:	0000026f 	andeq	r0, r0, pc, ror #4
     c10:	0084001c 	addeq	r0, r4, ip, lsl r0
     c14:	000bba00 	andeq	fp, fp, r0, lsl #20
     c18:	00067a00 	andeq	r7, r6, r0, lsl #20
     c1c:	50011b00 	andpl	r1, r1, r0, lsl #22
     c20:	a2200305 	eorge	r0, r0, #335544320	; 0x14000000
     c24:	20000000 	andcs	r0, r0, r0
     c28:	00008404 	andeq	r8, r0, r4, lsl #8
     c2c:	00000a99 	muleq	r0, r9, sl
     c30:	0084181c 	addeq	r1, r4, ip, lsl r8
     c34:	000bd200 	andeq	sp, fp, r0, lsl #4
     c38:	0006a300 	andeq	sl, r6, r0, lsl #6
     c3c:	50011b00 	andpl	r1, r1, r0, lsl #22
     c40:	1b007d02 	blne	20050 <__bss_end__+0x150f0>
     c44:	74025101 	strvc	r5, [r2], #-257	; 0xfffffeff
     c48:	52011b28 	andpl	r1, r1, #40, 22	; 0xa000
     c4c:	00800802 	addeq	r0, r0, r2, lsl #16
     c50:	00842c1c 	addeq	r2, r4, ip, lsl ip
     c54:	000bba00 	andeq	fp, fp, r0, lsl #20
     c58:	0006ba00 	andeq	fp, r6, r0, lsl #20
     c5c:	50011b00 	andpl	r1, r1, r0, lsl #22
     c60:	a2440305 	subge	r0, r4, #335544320	; 0x14000000
     c64:	1c000000 	stcne	0, cr0, [r0], {-0}
     c68:	0000843c 	andeq	r8, r0, ip, lsr r4
     c6c:	00000bba 			; <UNDEFINED> instruction: 0x00000bba
     c70:	000006d1 	ldrdeq	r0, [r0], -r1
     c74:	0550011b 	ldrbeq	r0, [r0, #-283]	; 0xfffffee5
     c78:	00a26803 	adceq	r6, r2, r3, lsl #16
     c7c:	481c0000 	ldmdami	ip, {}	; <UNPREDICTABLE>
     c80:	6c000084 	stcvs	0, cr0, [r0], {132}	; 0x84
     c84:	e500000a 	str	r0, [r0, #-10]
     c88:	1b000006 	blne	ca8 <__code_start__-0x7358>
     c8c:	74025001 	strvc	r5, [r2], #-1
     c90:	601c0000 	andsvs	r0, ip, r0
     c94:	6e000084 	cdpvs	0, 0, cr0, cr0, cr4, {4}
     c98:	ff000007 			; <UNDEFINED> instruction: 0xff000007
     c9c:	1b000006 	blne	cbc <__code_start__-0x7344>
     ca0:	74025001 	strvc	r5, [r2], #-1
     ca4:	51011b00 	tstpl	r1, r0, lsl #22
     ca8:	00007602 	andeq	r7, r0, r2, lsl #12
     cac:	0084701a 	addeq	r7, r4, sl, lsl r0
     cb0:	00071700 	andeq	r1, r7, r0, lsl #14
     cb4:	50011b00 	andpl	r1, r1, r0, lsl #22
     cb8:	00007402 	andeq	r7, r0, r2, lsl #8
     cbc:	16040800 	strne	r0, [r4], -r0, lsl #16
     cc0:	22000007 	andcs	r0, r0, #7, 0
     cc4:	00032314 	andeq	r2, r3, r4, lsl r3
     cc8:	056b0100 	strbeq	r0, [fp, #-256]!	; 0xffffff00
     ccc:	00000025 	andeq	r0, r0, r5, lsr #32
     cd0:	000083a4 	andeq	r8, r0, r4, lsr #7
     cd4:	0000004c 	andeq	r0, r0, ip, asr #32
     cd8:	07689c01 	strbeq	r9, [r8, -r1, lsl #24]!
     cdc:	68230000 	stmdavs	r3!, {}	; <UNPREDICTABLE>
     ce0:	1b6b0100 	blne	1ac10e8 <__bss_end__+0x1ab6188>
     ce4:	00000235 	andeq	r0, r0, r5, lsr r2
     ce8:	000002ab 	andeq	r0, r0, fp, lsr #5
     cec:	0000029f 	muleq	r0, pc, r2	; <UNPREDICTABLE>
     cf0:	000b2024 	andeq	r2, fp, r4, lsr #32
     cf4:	0b710100 	bleq	1c410fc <__bss_end__+0x1c3619c>
     cf8:	00000768 	andeq	r0, r0, r8, ror #14
     cfc:	00005025 	andeq	r5, r0, r5, lsr #32
     d00:	00691700 	rsbeq	r1, r9, r0, lsl #14
     d04:	2c107201 	lfmcs	f7, 4, [r0], {1}
     d08:	02000000 	andeq	r0, r0, #0, 0
     d0c:	fe000003 	cdp2	0, 0, cr0, cr0, cr3, {0}
     d10:	00000002 	andeq	r0, r0, r2
     d14:	4f040800 	svcmi	0x00040800
     d18:	14000000 	strne	r0, [r0], #-0
     d1c:	000003e9 	andeq	r0, r0, r9, ror #7
     d20:	25056101 	strcs	r6, [r5, #-257]	; 0xfffffeff
     d24:	5c000000 	stcpl	0, cr0, [r0], {-0}
     d28:	48000083 	stmdami	r0, {r0, r1, r7}
     d2c:	01000000 	mrseq	r0, (UNDEF: 0)
     d30:	00085e9c 	muleq	r8, ip, lr
     d34:	00682300 	rsbeq	r2, r8, r0, lsl #6
     d38:	351e6101 	ldrcc	r6, [lr, #-257]	; 0xfffffeff
     d3c:	26000002 	strcs	r0, [r0], -r2
     d40:	20000003 	andcs	r0, r0, r3
     d44:	15000003 	strne	r0, [r0, #-3]
     d48:	00000380 	andeq	r0, r0, r0, lsl #7
     d4c:	102d6101 	eorne	r6, sp, r1, lsl #2
     d50:	56000007 	strpl	r0, [r0], -r7
     d54:	52000003 	andpl	r0, r0, #3, 0
     d58:	17000003 	strne	r0, [r0, -r3]
     d5c:	00327a72 	eorseq	r7, r2, r2, ror sl
     d60:	680b6201 	stmdavs	fp, {r0, r9, sp, lr}
     d64:	78000007 	stmdavc	r0, {r0, r1, r2}
     d68:	74000003 	strvc	r0, [r0], #-3
     d6c:	21000003 	tstcs	r0, r3
     d70:	00000337 	andeq	r0, r0, r7, lsr r3
     d74:	25066301 	strcs	r6, [r6, #-769]	; 0xfffffcff
     d78:	9a000000 	bls	d80 <__code_start__-0x7280>
     d7c:	96000003 	strls	r0, [r0], -r3
     d80:	21000003 	tstcs	r0, r3
     d84:	000003cd 	andeq	r0, r0, sp, asr #7
     d88:	25066401 	strcs	r6, [r6, #-1025]	; 0xfffffbff
     d8c:	ba000000 	blt	d94 <__code_start__-0x726c>
     d90:	b8000003 	stmdalt	r0, {r0, r1}
     d94:	18000003 	stmdane	r0, {r0, r1}
     d98:	00000b6a 	andeq	r0, r0, sl, ror #22
     d9c:	00008368 	andeq	r8, r0, r8, ror #6
     da0:	00836801 	addeq	r6, r3, r1, lsl #16
     da4:	00000800 	andeq	r0, r0, r0, lsl #16
     da8:	11620100 	cmnne	r2, r0, lsl #2
     dac:	00000821 	andeq	r0, r0, r1, lsr #16
     db0:	000b7b19 	andeq	r7, fp, r9, lsl fp
     db4:	0003d100 	andeq	sp, r3, r0, lsl #2
     db8:	0003cd00 	andeq	ip, r3, r0, lsl #26
     dbc:	836c1a00 	cmnhi	ip, #0, 20
     dc0:	09db0000 	ldmibeq	fp, {}^	; <UNPREDICTABLE>
     dc4:	011b0000 	tsteq	fp, r0
     dc8:	00750250 	rsbseq	r0, r5, r0, asr r2
     dcc:	801c0000 	andshi	r0, ip, r0
     dd0:	de000083 	cdple	0, 0, cr0, cr0, cr3, {4}
     dd4:	4100000b 	tstmi	r0, fp
     dd8:	1b000008 	blne	e00 <__code_start__-0x7200>
     ddc:	75025001 	strvc	r5, [r2, #-1]
     de0:	51011b28 	tstpl	r1, r8, lsr #22
     de4:	1b007402 	blne	1ddf4 <__bss_end__+0x12e94>
     de8:	08025201 	stmdaeq	r2, {r0, r9, ip, lr}
     dec:	941a0080 	ldrls	r0, [sl], #-128	; 0xffffff80
     df0:	de000083 	cdple	0, 0, cr0, cr0, cr3, {4}
     df4:	1b00000b 	blne	e28 <__code_start__-0x71d8>
     df8:	76025001 	strvc	r5, [r2], -r1
     dfc:	51011b00 	tstpl	r1, r0, lsl #22
     e00:	1b007402 	blne	1de10 <__bss_end__+0x12eb0>
     e04:	08025201 	stmdaeq	r2, {r0, r9, ip, lr}
     e08:	14000080 	strne	r0, [r0], #-128	; 0xffffff80
     e0c:	0000033f 	andeq	r0, r0, pc, lsr r3
     e10:	35085601 	strcc	r5, [r8, #-1537]	; 0xfffff9ff
     e14:	f8000002 			; <UNDEFINED> instruction: 0xf8000002
     e18:	64000082 	strvs	r0, [r0], #-130	; 0xffffff7e
     e1c:	01000000 	mrseq	r0, (UNDEF: 0)
     e20:	0008ff9c 	muleq	r8, ip, pc	; <UNPREDICTABLE>
     e24:	74702300 	ldrbtvc	r2, [r0], #-768	; 0xfffffd00
     e28:	56010072 			; <UNDEFINED> instruction: 0x56010072
     e2c:	0000ea20 	andeq	lr, r0, r0, lsr #20
     e30:	0003f300 	andeq	pc, r3, r0, lsl #6
     e34:	0003ef00 	andeq	lr, r3, r0, lsl #30
     e38:	83002600 	movwhi	r2, #1536	; 0x600
     e3c:	00500000 	subseq	r0, r0, r0
     e40:	68170000 	ldmdavs	r7, {}	; <UNPREDICTABLE>
     e44:	10570100 	subsne	r0, r7, r0, lsl #2
     e48:	00000235 	andeq	r0, r0, r5, lsr r2
     e4c:	00000419 	andeq	r0, r0, r9, lsl r4
     e50:	00000411 	andeq	r0, r0, r1, lsl r4
     e54:	00830420 	addeq	r0, r3, r0, lsr #8
     e58:	000a9900 	andeq	r9, sl, r0, lsl #18
     e5c:	83141c00 	tsthi	r4, #0, 24
     e60:	0a6c0000 	beq	1b00e68 <__bss_end__+0x1af5f08>
     e64:	08c40000 	stmiaeq	r4, {}^	; <UNPREDICTABLE>
     e68:	011b0000 	tsteq	fp, r0
     e6c:	00740250 	rsbseq	r0, r4, r0, asr r2
     e70:	832c1c00 			; <UNDEFINED> instruction: 0x832c1c00
     e74:	09a00000 	stmibeq	r0!, {}	; <UNPREDICTABLE>
     e78:	08de0000 	ldmeq	lr, {}^	; <UNPREDICTABLE>
     e7c:	011b0000 	tsteq	fp, r0
     e80:	00740250 	rsbseq	r0, r4, r0, asr r2
     e84:	0251011b 	subseq	r0, r1, #-1073741818	; 0xc0000006
     e88:	1a000075 	bne	1064 <__code_start__-0x6f9c>
     e8c:	00008350 	andeq	r8, r0, r0, asr r3
     e90:	00000bba 			; <UNDEFINED> instruction: 0x00000bba
     e94:	0550011b 	ldrbeq	r0, [r0, #-283]	; 0xfffffee5
     e98:	00a20003 	adceq	r0, r2, r3
     e9c:	51011b00 	tstpl	r1, r0, lsl #22
     ea0:	1b007502 	blne	1e2b0 <__bss_end__+0x13350>
     ea4:	74025201 	strvc	r5, [r2], #-513	; 0xfffffdff
     ea8:	00000000 	andeq	r0, r0, r0
     eac:	00039014 	andeq	r9, r3, r4, lsl r0
     eb0:	084c0100 	stmdaeq	ip, {r8}^
     eb4:	00000235 	andeq	r0, r0, r5, lsr r2
     eb8:	000082a0 	andeq	r8, r0, r0, lsr #5
     ebc:	00000058 	andeq	r0, r0, r8, asr r0
     ec0:	09a09c01 	stmibeq	r0!, {r0, sl, fp, ip, pc}
     ec4:	70230000 	eorvc	r0, r3, r0
     ec8:	01007274 	tsteq	r0, r4, ror r2
     ecc:	00ea1c4c 	rsceq	r1, sl, ip, asr #24
     ed0:	04510000 	ldrbeq	r0, [r1], #-0
     ed4:	044d0000 	strbeq	r0, [sp], #-0
     ed8:	a8260000 	stmdage	r6!, {}	; <UNPREDICTABLE>
     edc:	44000082 	strmi	r0, [r0], #-130	; 0xffffff7e
     ee0:	17000000 	strne	r0, [r0, -r0]
     ee4:	4d010068 	stcmi	0, cr0, [r1, #-416]	; 0xfffffe60
     ee8:	0002350d 	andeq	r3, r2, sp, lsl #10
     eec:	00047700 	andeq	r7, r4, r0, lsl #14
     ef0:	00046f00 	andeq	r6, r4, r0, lsl #30
     ef4:	82ac2000 	adchi	r2, ip, #0, 0
     ef8:	0a990000 	beq	fe640f00 <__bss_end__+0xfe635fa0>
     efc:	c41c0000 	ldrgt	r0, [ip], #-0
     f00:	a0000082 	andge	r0, r0, r2, lsl #1
     f04:	6b000009 	blvs	f30 <__code_start__-0x70d0>
     f08:	1b000009 	blne	f34 <__code_start__-0x70cc>
     f0c:	74025001 	strvc	r5, [r2], #-1
     f10:	51011b00 	tstpl	r1, r0, lsl #22
     f14:	00007502 	andeq	r7, r0, r2, lsl #10
     f18:	0082d41c 	addeq	sp, r2, ip, lsl r4
     f1c:	000a6c00 	andeq	r6, sl, r0, lsl #24
     f20:	00097f00 	andeq	r7, r9, r0, lsl #30
     f24:	50011b00 	andpl	r1, r1, r0, lsl #22
     f28:	00007402 	andeq	r7, r0, r2, lsl #8
     f2c:	0082ec1a 	addeq	lr, r2, sl, lsl ip
     f30:	000bba00 	andeq	fp, fp, r0, lsl #20
     f34:	50011b00 	andpl	r1, r1, r0, lsl #22
     f38:	a1e80305 	mvnge	r0, r5, lsl #6
     f3c:	011b0000 	tsteq	fp, r0
     f40:	00750251 	rsbseq	r0, r5, r1, asr r2
     f44:	0252011b 	subseq	r0, r2, #-1073741818	; 0xc0000006
     f48:	00000074 	andeq	r0, r0, r4, ror r0
     f4c:	02ad1400 	adceq	r1, sp, #0, 8
     f50:	44010000 	strmi	r0, [r1], #-0
     f54:	00002c0a 	andeq	r2, r0, sl, lsl #24
     f58:	00826800 	addeq	r6, r2, r0, lsl #16
     f5c:	00003800 	andeq	r3, r0, r0, lsl #16
     f60:	db9c0100 	blle	fe701368 <__bss_end__+0xfe6f6408>
     f64:	23000009 	movwcs	r0, #9
     f68:	44010068 	strmi	r0, [r1], #-104	; 0xffffff98
     f6c:	00023521 	andeq	r3, r2, r1, lsr #10
     f70:	0004b500 	andeq	fp, r4, r0, lsl #10
     f74:	0004ab00 	andeq	sl, r4, r0, lsl #22
     f78:	74701600 	ldrbtvc	r1, [r0], #-1536	; 0xfffffa00
     f7c:	44010072 	strmi	r0, [r1], #-114	; 0xffffff8e
     f80:	0000ea2a 	andeq	lr, r0, sl, lsr #20
     f84:	00510100 	subseq	r0, r1, r0, lsl #2
     f88:	0003c214 	andeq	ip, r3, r4, lsl r2
     f8c:	073f0100 	ldreq	r0, [pc, -r0, lsl #2]!
     f90:	000000ea 	andeq	r0, r0, sl, ror #1
     f94:	00008250 	andeq	r8, r0, r0, asr r2
     f98:	00000018 	andeq	r0, r0, r8, lsl r0
     f9c:	0a3f9c01 	beq	fe7fa8 <__bss_end__+0xfdd048>
     fa0:	68230000 	stmdavs	r3!, {}	; <UNPREDICTABLE>
     fa4:	193f0100 	ldmdbne	pc!, {r8}	; <UNPREDICTABLE>
     fa8:	00000235 	andeq	r0, r0, r5, lsr r2
     fac:	00000501 	andeq	r0, r0, r1, lsl #10
     fb0:	000004fd 	strdeq	r0, [r0], -sp
     fb4:	000b8618 	andeq	r8, fp, r8, lsl r6
     fb8:	00825c00 	addeq	r5, r2, r0, lsl #24
     fbc:	825c0000 	subshi	r0, ip, #0, 0
     fc0:	00040000 	andeq	r0, r4, r0
     fc4:	40010000 	andmi	r0, r1, r0
     fc8:	000a2e26 	andeq	r2, sl, r6, lsr #28
     fcc:	0b971900 	bleq	fe5c73d4 <__bss_end__+0xfe5bc474>
     fd0:	05210000 	streq	r0, [r1, #-0]!
     fd4:	051f0000 	ldreq	r0, [pc, #-0]	; fdc <__code_start__-0x7024>
     fd8:	1a000000 	bne	fe0 <__code_start__-0x7020>
     fdc:	0000825c 	andeq	r8, r0, ip, asr r2
     fe0:	00000a3f 	andeq	r0, r0, pc, lsr sl
     fe4:	0250011b 	subseq	r0, r0, #-1073741818	; 0xc0000006
     fe8:	00000074 	andeq	r0, r0, r4, ror r0
     fec:	0003a614 	andeq	sl, r3, r4, lsl r6
     ff0:	073a0100 	ldreq	r0, [sl, -r0, lsl #2]!
     ff4:	000000ea 	andeq	r0, r0, sl, ror #1
     ff8:	00008248 	andeq	r8, r0, r8, asr #4
     ffc:	00000008 	andeq	r0, r0, r8
    1000:	0a6c9c01 	beq	1b2800c <__bss_end__+0x1b1d0ac>
    1004:	68230000 	stmdavs	r3!, {}	; <UNPREDICTABLE>
    1008:	1b3a0100 	blne	e81410 <__bss_end__+0xe764b0>
    100c:	00000235 	andeq	r0, r0, r5, lsr r2
    1010:	00000538 	andeq	r0, r0, r8, lsr r5
    1014:	00000534 	andeq	r0, r0, r4, lsr r5
    1018:	03511400 	cmpeq	r1, #0, 8
    101c:	33010000 	movwcc	r0, #4096	; 0x1000
    1020:	00023508 	andeq	r3, r2, r8, lsl #10
    1024:	00823800 	addeq	r3, r2, r0, lsl #16
    1028:	00001000 	andeq	r1, r0, r0
    102c:	999c0100 	ldmibls	ip, {r8}
    1030:	2300000a 	movwcs	r0, #10
    1034:	33010070 	movwcc	r0, #4208	; 0x1070
    1038:	0002351b 	andeq	r3, r2, fp, lsl r5
    103c:	00055d00 	andeq	r5, r5, r0, lsl #26
    1040:	00055900 	andeq	r5, r5, r0, lsl #18
    1044:	0f270000 	svceq	0x00270000
    1048:	01000003 	tsteq	r0, r3
    104c:	0235082e 	eorseq	r0, r5, #3014656	; 0x2e0000
    1050:	82280000 	eorhi	r0, r8, #0, 0
    1054:	00100000 	andseq	r0, r0, r0
    1058:	9c010000 	stcls	0, cr0, [r1], {-0}
    105c:	0002e128 	andeq	lr, r2, r8, lsr #2
    1060:	0d1e0100 	ldfeqs	f0, [lr, #-0]
    1064:	000081b4 			; <UNDEFINED> instruction: 0x000081b4
    1068:	00000074 	andeq	r0, r0, r4, ror r0
    106c:	0b559c01 	bleq	1568078 <__bss_end__+0x155d118>
    1070:	6c230000 	stcvs	0, cr0, [r3], #-0
    1074:	201e0100 	andscs	r0, lr, r0, lsl #2
    1078:	00000235 	andeq	r0, r0, r5, lsr r2
    107c:	00000582 	andeq	r0, r0, r2, lsl #11
    1080:	0000057e 	andeq	r0, r0, lr, ror r5
    1084:	01006823 	tsteq	r0, r3, lsr #16
    1088:	02352a1e 	eorseq	r2, r5, #122880	; 0x1e000
    108c:	05a70000 	streq	r0, [r7, #0]!
    1090:	05a30000 	streq	r0, [r3, #0]!
    1094:	931e0000 	tstls	lr, #0, 0
    1098:	65000000 	strvs	r0, [r0, #-0]
    109c:	0500000b 	streq	r0, [r0, #-11]
    10a0:	00a3b803 	adceq	fp, r3, r3, lsl #16
    10a4:	00382500 	eorseq	r2, r8, r0, lsl #10
    10a8:	bd210000 	stclt	0, cr0, [r1, #-0]
    10ac:	01000002 	tsteq	r0, r2
    10b0:	02350a26 	eorseq	r0, r5, #155648	; 0x26000
    10b4:	05ca0000 	strbeq	r0, [sl]
    10b8:	05c80000 	strbeq	r0, [r8]
    10bc:	101c0000 	andsne	r0, ip, r0
    10c0:	ba000082 	blt	12d0 <__code_start__-0x6d30>
    10c4:	4a00000b 	bmi	10f8 <__code_start__-0x6f08>
    10c8:	1b00000b 	blne	10fc <__code_start__-0x6f04>
    10cc:	03055001 	movweq	r5, #20481	; 0x5001
    10d0:	0000a08c 	andeq	sl, r0, ip, lsl #1
    10d4:	0551011b 	ldrbeq	r0, [r1, #-283]	; 0xfffffee5
    10d8:	00a1d803 	adceq	sp, r1, r3, lsl #16
    10dc:	52011b00 	andpl	r1, r1, #0, 22
    10e0:	a3b80305 			; <UNDEFINED> instruction: 0xa3b80305
    10e4:	011b0000 	tsteq	fp, r0
    10e8:	25080253 	strcs	r0, [r8, #-595]	; 0xfffffdad
    10ec:	007d021b 	rsbseq	r0, sp, fp, lsl r2
    10f0:	a1e40305 	mvnge	r0, r5, lsl #6
    10f4:	20000000 	andcs	r0, r0, r0
    10f8:	00008214 	andeq	r8, r0, r4, lsl r2
    10fc:	00000bc6 	andeq	r0, r0, r6, asr #23
    1100:	cc120000 	ldcgt	0, cr0, [r2], {-0}
    1104:	65000000 	strvs	r0, [r0, #-0]
    1108:	1300000b 	movwne	r0, #11
    110c:	0000002c 	andeq	r0, r0, ip, lsr #32
    1110:	5509000b 	strpl	r0, [r9, #-11]
    1114:	2900000b 	stmdbcs	r0, {r0, r1, r3}
    1118:	000002c7 	andeq	r0, r0, r7, asr #5
    111c:	68184402 	ldmdavs	r8, {r1, sl, lr}
    1120:	03000007 	movweq	r0, #7
    1124:	00000b86 	andeq	r0, r0, r6, lsl #23
    1128:	0200682a 	andeq	r6, r0, #2752512	; 0x2a0000
    112c:	02352a44 	eorseq	r2, r5, #68, 20	; 0x44000
    1130:	29000000 	stmdbcs	r0, {}	; <UNPREDICTABLE>
    1134:	000003d5 	ldrdeq	r0, [r0], -r5
    1138:	2c183602 	ldccs	6, cr3, [r8], {2}
    113c:	03000000 	movweq	r0, #0
    1140:	00000ba2 	andeq	r0, r0, r2, lsr #23
    1144:	0200682a 	andeq	r6, r0, #2752512	; 0x2a0000
    1148:	02352936 	eorseq	r2, r5, #884736	; 0xd8000
    114c:	2b000000 	blcs	1154 <__code_start__-0x6eac>
    1150:	000003df 	ldrdeq	r0, [r0], -pc	; <UNPREDICTABLE>
    1154:	000003df 	ldrdeq	r0, [r0], -pc	; <UNPREDICTABLE>
    1158:	2b072c06 	blcs	1cc178 <__bss_end__+0x1c1218>
    115c:	0000007f 	andeq	r0, r0, pc, ror r0
    1160:	0000007f 	andeq	r0, r0, pc, ror r0
    1164:	2b07f704 	blcs	1fed7c <__bss_end__+0x1f3e1c>
    1168:	000006ec 	andeq	r0, r0, ip, ror #13
    116c:	000006ec 	andeq	r0, r0, ip, ror #13
    1170:	2b062804 	blcs	18b188 <__bss_end__+0x180228>
    1174:	000000aa 	andeq	r0, r0, sl, lsr #1
    1178:	000000aa 	andeq	r0, r0, sl, lsr #1
    117c:	2b066e04 	blcs	19c994 <__bss_end__+0x191a34>
    1180:	000002ed 	andeq	r0, r0, sp, ror #5
    1184:	000002ed 	andeq	r0, r0, sp, ror #5
    1188:	2b07f404 	blcs	1fe1a0 <__bss_end__+0x1f3240>
    118c:	00000362 	andeq	r0, r0, r2, ror #6
    1190:	00000362 	andeq	r0, r0, r2, ror #6
    1194:	0005f504 	andeq	pc, r5, r4, lsl #10
    1198:	00000c61 	andeq	r0, r0, r1, ror #24
    119c:	049f0004 	ldreq	r0, [pc], #4	; 11a4 <__code_start__-0x6e5c>
    11a0:	01040000 	mrseq	r0, (UNDEF: 4)
    11a4:	000001c7 	andeq	r0, r0, r7, asr #3
    11a8:	0004de0c 	andeq	sp, r4, ip, lsl #28
    11ac:	00015d00 	andeq	r5, r1, r0, lsl #26
    11b0:	0086e000 	addeq	lr, r6, r0
    11b4:	0005f400 	andeq	pc, r5, r0, lsl #8
    11b8:	00076600 	andeq	r6, r7, r0, lsl #12
    11bc:	05040200 	streq	r0, [r4, #-512]	; 0xfffffe00
    11c0:	00746e69 	rsbseq	r6, r4, r9, ror #28
    11c4:	01070403 	tsteq	r7, r3, lsl #8
    11c8:	04000001 	streq	r0, [r0], #-1
    11cc:	0000002c 	andeq	r0, r0, ip, lsr #32
    11d0:	cb060103 	blgt	1815e4 <__bss_end__+0x176684>
    11d4:	03000000 	movweq	r0, #0
    11d8:	00220502 	eoreq	r0, r2, r2, lsl #10
    11dc:	04030000 	streq	r0, [r3], #-0
    11e0:	00006b05 	andeq	r6, r0, r5, lsl #22
    11e4:	05080300 	streq	r0, [r8, #-768]	; 0xfffffd00
    11e8:	00000066 	andeq	r0, r0, r6, rrx
    11ec:	00004b05 	andeq	r4, r0, r5, lsl #22
    11f0:	182e0200 	stmdane	lr!, {r9}
    11f4:	00000060 	andeq	r0, r0, r0, rrx
    11f8:	c9080103 	stmdbgt	r8, {r0, r1, r8}
    11fc:	05000000 	streq	r0, [r0, #-0]
    1200:	00000132 	andeq	r0, r0, r2, lsr r1
    1204:	73193102 	tstvc	r9, #-2147483648	; 0x80000000
    1208:	03000000 	movweq	r0, #0
    120c:	01430702 	cmpeq	r3, r2, lsl #14
    1210:	29050000 	stmdbcs	r5, {}	; <UNPREDICTABLE>
    1214:	02000001 	andeq	r0, r0, #1, 0
    1218:	00861934 	addeq	r1, r6, r4, lsr r9
    121c:	04030000 	streq	r0, [r3], #-0
    1220:	0000fc07 	andeq	pc, r0, r7, lsl #24
    1224:	07080300 	streq	r0, [r8, -r0, lsl #6]
    1228:	000000f7 	strdeq	r0, [r0], -r7
    122c:	00002506 	andeq	r2, r0, r6, lsl #10
    1230:	0000a300 	andeq	sl, r0, r0, lsl #6
    1234:	00250700 	eoreq	r0, r5, r0, lsl #14
    1238:	08000000 	stmdaeq	r0, {}	; <UNPREDICTABLE>
    123c:	0000002c 	andeq	r0, r0, ip, lsr #32
    1240:	af0e1c03 	svcge	0x000e1c03
    1244:	09000000 	stmdbeq	r0, {}	; <UNPREDICTABLE>
    1248:	00009404 	andeq	r9, r0, r4, lsl #8
    124c:	00250600 	eoreq	r0, r5, r0, lsl #12
    1250:	00c40000 	sbceq	r0, r4, r0
    1254:	c4070000 	strgt	r0, [r7], #-0
    1258:	00000000 	andeq	r0, r0, r0
    125c:	00d10409 	sbcseq	r0, r1, r9, lsl #8
    1260:	01030000 	mrseq	r0, (UNDEF: 3)
    1264:	0000d208 	andeq	sp, r0, r8, lsl #4
    1268:	00ca0400 	sbceq	r0, sl, r0, lsl #8
    126c:	2a080000 	bcs	201274 <__bss_end__+0x1f6314>
    1270:	03000007 	movweq	r0, #7
    1274:	00e20e21 	rsceq	r0, r2, r1, lsr #28
    1278:	04090000 	streq	r0, [r9], #-0
    127c:	000000b5 	strheq	r0, [r0], -r5
    1280:	04040c0a 	streq	r0, [r4], #-3082	; 0xfffff3f6
    1284:	00011909 	andeq	r1, r1, r9, lsl #18
    1288:	00400b00 	subeq	r0, r0, r0, lsl #22
    128c:	06040000 	streq	r0, [r4], -r0
    1290:	0000c411 	andeq	ip, r0, r1, lsl r4
    1294:	610b0000 	mrsvs	r0, (UNDEF: 11)
    1298:	04000000 	streq	r0, [r0], #-0
    129c:	00c41107 	sbceq	r1, r4, r7, lsl #2
    12a0:	0b040000 	bleq	1012a8 <__bss_end__+0xf6348>
    12a4:	000000f0 	strdeq	r0, [r0], -r0	; <UNPREDICTABLE>
    12a8:	2c0e0804 	stccs	8, cr0, [lr], {4}
    12ac:	08000000 	stmdaeq	r0, {}	; <UNPREDICTABLE>
    12b0:	02a30500 	adceq	r0, r3, #0, 10
    12b4:	09040000 	stmdbeq	r4, {}	; <UNPREDICTABLE>
    12b8:	0000e803 	andeq	lr, r0, r3, lsl #16
    12bc:	01070c00 	tsteq	r7, r0, lsl #24
    12c0:	00000060 	andeq	r0, r0, r0, rrx
    12c4:	400e0905 	andmi	r0, lr, r5, lsl #18
    12c8:	0d000001 	stceq	0, cr0, [r0, #-4]
    12cc:	0000039e 	muleq	r0, lr, r3
    12d0:	02d20d0b 	sbcseq	r0, r2, #704	; 0x2c0
    12d4:	000c0000 	andeq	r0, ip, r0
    12d8:	0000530e 	andeq	r5, r0, lr, lsl #6
    12dc:	110c0500 	tstne	ip, r0, lsl #10
    12e0:	0000002c 	andeq	r0, r0, ip, lsr #32
    12e4:	008c0f01 	addeq	r0, ip, r1, lsl #30
    12e8:	05a80000 	streq	r0, [r8, #0]!
    12ec:	01dd1010 	bicseq	r1, sp, r0, lsl r0
    12f0:	9e0b0000 	cdpls	0, 0, cr0, cr11, cr0, {0}
    12f4:	05000002 	streq	r0, [r0, #-2]
    12f8:	01dd1411 	bicseq	r1, sp, r1, lsl r4
    12fc:	0b000000 	bleq	1304 <__code_start__-0x6cfc>
    1300:	00000281 	andeq	r0, r0, r1, lsl #5
    1304:	7a0e1205 	bvc	385b20 <__bss_end__+0x37abc0>
    1308:	04000000 	streq	r0, [r0], #-0
    130c:	0000100b 	andeq	r1, r0, fp
    1310:	0e130500 	cfmul32eq	mvfx0, mvfx3, mvfx0
    1314:	0000007a 	andeq	r0, r0, sl, ror r0
    1318:	00580b08 	subseq	r0, r8, r8, lsl #22
    131c:	17050000 	strne	r0, [r5, -r0]
    1320:	00007a0e 	andeq	r7, r0, lr, lsl #20
    1324:	a00b0c00 	andge	r0, fp, r0, lsl #24
    1328:	05000000 	streq	r0, [r0, #-0]
    132c:	01190f19 	tsteq	r9, r9, lsl pc
    1330:	0b100000 	bleq	401338 <__bss_end__+0x3f63d8>
    1334:	000000d7 	ldrdeq	r0, [r0], -r7
    1338:	7a0e1c05 	bvc	388354 <__bss_end__+0x37d3f4>
    133c:	1c000000 	stcne	0, cr0, [r0], {-0}
    1340:	0000160b 	andeq	r1, r0, fp, lsl #12
    1344:	0e1d0500 	cfmul32eq	mvfx0, mvfx13, mvfx0
    1348:	0000007a 	andeq	r0, r0, sl, ror r0
    134c:	00b70b20 	adcseq	r0, r7, r0, lsr #22
    1350:	1f050000 	svcne	0x00050000
    1354:	0000670e 	andeq	r6, r0, lr, lsl #14
    1358:	560b2400 	strpl	r2, [fp], -r0, lsl #8
    135c:	05000001 	streq	r0, [r0, #-1]
    1360:	00670b20 	rsbeq	r0, r7, r0, lsr #22
    1364:	10260000 	eorne	r0, r6, r0
    1368:	00317a72 	eorseq	r7, r1, r2, ror sl
    136c:	e30d2205 	movw	r2, #53765	; 0xd205
    1370:	28000001 	stmdacs	r0, {r0}
    1374:	4d040900 	vstrmi.16	s0, [r4, #-0]	; <UNPREDICTABLE>
    1378:	11000001 	tstne	r0, r1
    137c:	00000054 	andeq	r0, r0, r4, asr r0
    1380:	000001f3 	strdeq	r0, [r0], -r3
    1384:	00002c12 	andeq	r2, r0, r2, lsl ip
    1388:	05007f00 	streq	r7, [r0, #-3840]	; 0xfffff100
    138c:	0000000a 	andeq	r0, r0, sl
    1390:	4d032305 	stcmi	3, cr2, [r3, #-20]	; 0xffffffec
    1394:	13000001 	movwne	r0, #1
    1398:	00000074 	andeq	r0, r0, r4, ror r0
    139c:	0b0f2505 	bleq	3ca7b8 <__bss_end__+0x3bf858>
    13a0:	09000002 	stmdbeq	r0, {r1}
    13a4:	0001f304 	andeq	pc, r1, r4, lsl #6
    13a8:	00000e00 	andeq	r0, r0, r0, lsl #28
    13ac:	26050000 	strcs	r0, [r5], -r0
    13b0:	00020b0f 	andeq	r0, r2, pc, lsl #22
    13b4:	04140000 	ldreq	r0, [r4], #-0
    13b8:	0000bc08 	andeq	fp, r0, r8, lsl #24
    13bc:	11ad0500 			; <UNDEFINED> instruction: 0x11ad0500
    13c0:	0000002c 	andeq	r0, r0, ip, lsr #32
    13c4:	89040803 	stmdbhi	r4, {r0, r1, fp}
    13c8:	15000003 	strne	r0, [r0, #-3]
    13cc:	00000b8c 	andeq	r0, r0, ip, lsl #23
    13d0:	1e0f1001 	cdpne	0, 0, cr1, cr15, cr1, {0}
    13d4:	05000002 	streq	r0, [r0, #-2]
    13d8:	00ab3803 	adceq	r3, fp, r3, lsl #16
    13dc:	0bed1500 	bleq	ffb467e4 <__bss_end__+0xffb3b884>
    13e0:	11010000 	mrsne	r0, (UNDEF: 1)
    13e4:	00021e0f 	andeq	r1, r2, pc, lsl #28
    13e8:	3c030500 	cfstr32cc	mvfx0, [r3], {-0}
    13ec:	150000ab 	strne	r0, [r0, #-171]	; 0xffffff55
    13f0:	00000452 	andeq	r0, r0, r2, asr r4
    13f4:	250c1201 	strcs	r1, [ip, #-513]	; 0xfffffdff
    13f8:	05000000 	streq	r0, [r0, #-0]
    13fc:	00ab4003 	adceq	r4, fp, r3
    1400:	04231600 	strteq	r1, [r3], #-1536	; 0xfffffa00
    1404:	0f010000 	svceq	0x00010000
    1408:	8cac0601 	stchi	6, cr0, [ip], #4
    140c:	00280000 	eoreq	r0, r8, r0
    1410:	9c010000 	stcls	0, cr0, [r1], {-0}
    1414:	000002c9 	andeq	r0, r0, r9, asr #5
    1418:	00009317 	andeq	r9, r0, r7, lsl r3
    141c:	0002d900 	andeq	sp, r2, r0, lsl #18
    1420:	98030500 	stmdals	r3, {r8, sl}
    1424:	180000a7 	stmdane	r0, {r0, r1, r2, r5, r7}
    1428:	00008cc4 	andeq	r8, r0, r4, asr #25
    142c:	00000c04 	andeq	r0, r0, r4, lsl #24
    1430:	000002bf 			; <UNDEFINED> instruction: 0x000002bf
    1434:	05500119 	ldrbeq	r0, [r0, #-281]	; 0xfffffee7
    1438:	00a73403 	adceq	r3, r7, r3, lsl #8
    143c:	51011900 	tstpl	r1, r0, lsl #18
    1440:	a6340305 	ldrtge	r0, [r4], -r5, lsl #6
    1444:	01190000 	tsteq	r9, r0
    1448:	98030552 	stmdals	r3, {r1, r4, r6, r8, sl}
    144c:	190000a7 	stmdbne	r0, {r0, r1, r2, r5, r7}
    1450:	0a035301 	beq	d605c <__bss_end__+0xcb0fc>
    1454:	1a000110 	bne	189c <__code_start__-0x6764>
    1458:	00008cc8 	andeq	r8, r0, r8, asr #25
    145c:	00000c10 	andeq	r0, r0, r0, lsl ip
    1460:	00d11100 	sbcseq	r1, r1, r0, lsl #2
    1464:	02d90000 	sbcseq	r0, r9, #0, 0
    1468:	2c120000 	ldccs	0, cr0, [r2], {-0}
    146c:	0e000000 	cdpeq	0, 0, cr0, cr0, cr0, {0}
    1470:	02c90400 	sbceq	r0, r9, #0, 8
    1474:	861b0000 	ldrhi	r0, [fp], -r0
    1478:	01000000 	mrseq	r0, (UNDEF: 0)
    147c:	2c0a0106 	stfcss	f0, [sl], {6}
    1480:	9c000000 	stcls	0, cr0, [r0], {-0}
    1484:	1000008c 	andne	r0, r0, ip, lsl #1
    1488:	01000000 	mrseq	r0, (UNDEF: 0)
    148c:	0003219c 	muleq	r3, ip, r1
    1490:	03d81c00 	bicseq	r1, r8, #0, 24
    1494:	08010000 	stmdaeq	r1, {}	; <UNPREDICTABLE>
    1498:	002c0e01 	eoreq	r0, ip, r1, lsl #28
    149c:	05df0000 	ldrbeq	r0, [pc]	; 14a4 <__code_start__-0x6b5c>
    14a0:	05dd0000 	ldrbeq	r0, [sp]
    14a4:	a41a0000 	ldrge	r0, [sl], #-0
    14a8:	e700008c 	str	r0, [r0, -ip, lsl #1]
    14ac:	1a000005 	bne	14c8 <__code_start__-0x6b38>
    14b0:	00008ca8 	andeq	r8, r0, r8, lsr #25
    14b4:	00000321 	andeq	r0, r0, r1, lsr #6
    14b8:	052b1d00 	streq	r1, [fp, #-3328]!	; 0xfffff300
    14bc:	ef010000 	svc	0x00010000
    14c0:	00002c11 	andeq	r2, r0, r1, lsl ip
    14c4:	00889800 	addeq	r9, r8, r0, lsl #16
    14c8:	0000b000 	andeq	fp, r0, r0
    14cc:	199c0100 	ldmibne	ip, {r8}
    14d0:	1e000004 	cdpne	0, 0, cr0, cr0, cr4, {0}
    14d4:	0000044a 	andeq	r0, r0, sl, asr #8
    14d8:	2c0bf001 	stccs	0, cr15, [fp], {1}
    14dc:	f6000000 			; <UNDEFINED> instruction: 0xf6000000
    14e0:	f2000005 	vhadd.s8	d0, d0, d5
    14e4:	1e000005 	cdpne	0, 0, cr0, cr0, cr5, {0}
    14e8:	000004b5 			; <UNDEFINED> instruction: 0x000004b5
    14ec:	2c18f001 	ldccs	0, cr15, [r8], {1}
    14f0:	19000000 	stmdbne	r0, {}	; <UNPREDICTABLE>
    14f4:	15000006 	strne	r0, [r0, #-6]
    14f8:	1e000006 	cdpne	0, 0, cr0, cr0, cr6, {0}
    14fc:	00000459 	andeq	r0, r0, r9, asr r4
    1500:	2c22f001 	stccs	0, cr15, [r2], #-4
    1504:	3c000000 	stccc	0, cr0, [r0], {-0}
    1508:	38000006 	stmdacc	r0, {r1, r2}
    150c:	1e000006 	cdpne	0, 0, cr0, cr0, cr6, {0}
    1510:	0000035d 	andeq	r0, r0, sp, asr r3
    1514:	0b09f401 	bleq	27e520 <__bss_end__+0x2735c0>
    1518:	63000002 	movwvs	r0, #2
    151c:	5b000006 	blpl	153c <__code_start__-0x6ac4>
    1520:	18000006 	stmdane	r0, {r1, r2}
    1524:	000088a4 	andeq	r8, r0, r4, lsr #17
    1528:	00000c04 	andeq	r0, r0, r4, lsl #24
    152c:	000003a2 	andeq	r0, r0, r2, lsr #7
    1530:	05500119 	ldrbeq	r0, [r0, #-281]	; 0xfffffee7
    1534:	00a3cc03 	adceq	ip, r3, r3, lsl #24
    1538:	ac180000 	ldcge	0, cr0, [r8], {-0}
    153c:	04000088 	streq	r0, [r0], #-136	; 0xffffff78
    1540:	b900000c 	stmdblt	r0, {r2, r3}
    1544:	19000003 	stmdbne	r0, {r0, r1}
    1548:	03055001 	movweq	r5, #20481	; 0x5001
    154c:	0000a5b8 			; <UNDEFINED> instruction: 0x0000a5b8
    1550:	88b01a00 	ldmhi	r0!, {r9, fp, ip}
    1554:	0c1c0000 	ldceq	0, cr0, [ip], {-0}
    1558:	e8180000 	ldmda	r8, {}	; <UNPREDICTABLE>
    155c:	04000088 	streq	r0, [r0], #-136	; 0xffffff78
    1560:	df00000c 	svcle	0x0000000c
    1564:	19000003 	stmdbne	r0, {r0, r1}
    1568:	03055001 	movweq	r5, #20481	; 0x5001
    156c:	0000a5c8 	andeq	sl, r0, r8, asr #11
    1570:	02520119 	subseq	r0, r2, #1073741830	; 0x40000006
    1574:	18000074 	stmdane	r0, {r2, r4, r5, r6}
    1578:	000088f0 	strdeq	r8, [r0], -r0
    157c:	00000c28 	andeq	r0, r0, r8, lsr #24
    1580:	000003f3 	strdeq	r0, [r0], -r3
    1584:	02500119 	subseq	r0, r0, #1073741830	; 0x40000006
    1588:	1f000074 	svcne	0x00000074
    158c:	00008930 	andeq	r8, r0, r0, lsr r9
    1590:	00000c04 	andeq	r0, r0, r4, lsl #24
    1594:	05500119 	ldrbeq	r0, [r0, #-281]	; 0xfffffee7
    1598:	00a60003 	adceq	r0, r6, r3
    159c:	51011900 	tstpl	r1, r0, lsl #18
    15a0:	19007502 	stmdbne	r0, {r1, r8, sl, ip, sp, lr}
    15a4:	77025201 	strvc	r5, [r2, -r1, lsl #4]
    15a8:	53011900 	movwpl	r1, #6400	; 0x1900
    15ac:	00007602 	andeq	r7, r0, r2, lsl #12
    15b0:	01b52000 			; <UNDEFINED> instruction: 0x01b52000
    15b4:	e0010000 	and	r0, r1, r0
    15b8:	00002c0a 	andeq	r2, r0, sl, lsl #24
    15bc:	008c4c00 	addeq	r4, ip, r0, lsl #24
    15c0:	00005000 	andeq	r5, r0, r0
    15c4:	bf9c0100 	svclt	0x009c0100
    15c8:	1e000004 	cdpne	0, 0, cr0, cr0, cr4, {0}
    15cc:	00000487 	andeq	r0, r0, r7, lsl #9
    15d0:	2c0ee501 	cfstr32cs	mvfx14, [lr], {1}
    15d4:	9d000000 	stcls	0, cr0, [r0, #-0]
    15d8:	97000006 	strls	r0, [r0, -r6]
    15dc:	17000006 	strne	r0, [r0, -r6]
    15e0:	00000093 	muleq	r0, r3, r0
    15e4:	000004cf 	andeq	r0, r0, pc, asr #9
    15e8:	a7840305 	strge	r0, [r4, r5, lsl #6]
    15ec:	58180000 	ldmdapl	r8, {}	; <UNPREDICTABLE>
    15f0:	7100008c 	smlabbvc	r0, ip, r0, r0
    15f4:	69000005 	stmdbvs	r0, {r0, r2}
    15f8:	19000004 	stmdbne	r0, {r2}
    15fc:	31015001 	tstcc	r1, r1
    1600:	8c6c1800 	stclhi	8, cr1, [ip], #-0
    1604:	0c040000 	stceq	0, cr0, [r4], {-0}
    1608:	04860000 	streq	r0, [r6], #0
    160c:	01190000 	tsteq	r9, r0
    1610:	10030550 	andne	r0, r3, r0, asr r5
    1614:	190000a7 	stmdbne	r0, {r0, r1, r2, r5, r7}
    1618:	74025101 	strvc	r5, [r2], #-257	; 0xfffffeff
    161c:	88180000 	ldmdahi	r8, {}	; <UNPREDICTABLE>
    1620:	0400008c 	streq	r0, [r0], #-140	; 0xffffff74
    1624:	b500000c 	strlt	r0, [r0, #-12]
    1628:	19000004 	stmdbne	r0, {r2}
    162c:	03055001 	movweq	r5, #20481	; 0x5001
    1630:	0000a6e8 	andeq	sl, r0, r8, ror #13
    1634:	05510119 	ldrbeq	r0, [r1, #-281]	; 0xfffffee7
    1638:	00a63403 	adceq	r3, r6, r3, lsl #8
    163c:	52011900 	andpl	r1, r1, #0, 18
    1640:	a7840305 	strge	r0, [r4, r5, lsl #6]
    1644:	01190000 	tsteq	r9, r0
    1648:	e7080253 	smlsd	r8, r3, r2, r0
    164c:	8c8c1a00 	vstmiahi	ip, {s2-s1}
    1650:	0c100000 	ldceq	0, cr0, [r0], {-0}
    1654:	11000000 	mrsne	r0, (UNDEF: 0)
    1658:	000000d1 	ldrdeq	r0, [r0], -r1
    165c:	000004cf 	andeq	r0, r0, pc, asr #9
    1660:	00002c12 	andeq	r2, r0, r2, lsl ip
    1664:	04001100 	streq	r1, [r0], #-256	; 0xffffff00
    1668:	000004bf 			; <UNDEFINED> instruction: 0x000004bf
    166c:	0000e221 	andeq	lr, r0, r1, lsr #4
    1670:	06d30100 	ldrbeq	r0, [r3], r0, lsl #2
    1674:	00008c04 	andeq	r8, r0, r4, lsl #24
    1678:	00000048 	andeq	r0, r0, r8, asr #32
    167c:	055c9c01 	ldrbeq	r9, [ip, #-3073]	; 0xfffff3ff
    1680:	93170000 	tstls	r7, #0, 0
    1684:	6c000000 	stcvs	0, cr0, [r0], {-0}
    1688:	05000005 	streq	r0, [r0, #-5]
    168c:	00a77403 	adceq	r7, r7, r3, lsl #8
    1690:	8c101800 	ldchi	8, cr1, [r0], {-0}
    1694:	05710000 	ldrbeq	r0, [r1, #-0]!
    1698:	050c0000 	streq	r0, [ip, #-0]
    169c:	01190000 	tsteq	r9, r0
    16a0:	00310150 	eorseq	r0, r1, r0, asr r1
    16a4:	008c2018 	addeq	r2, ip, r8, lsl r0
    16a8:	000c0400 	andeq	r0, ip, r0, lsl #8
    16ac:	00052300 	andeq	r2, r5, r0, lsl #6
    16b0:	50011900 	andpl	r1, r1, r0, lsl #18
    16b4:	a6c80305 	strbge	r0, [r8], r5, lsl #6
    16b8:	18000000 	stmdane	r0, {}	; <UNPREDICTABLE>
    16bc:	00008c38 	andeq	r8, r0, r8, lsr ip
    16c0:	00000c04 	andeq	r0, r0, r4, lsl #24
    16c4:	00000552 	andeq	r0, r0, r2, asr r5
    16c8:	05500119 	ldrbeq	r0, [r0, #-281]	; 0xfffffee7
    16cc:	00a69c03 	adceq	r9, r6, r3, lsl #24
    16d0:	51011900 	tstpl	r1, r0, lsl #18
    16d4:	a6340305 	ldrtge	r0, [r4], -r5, lsl #6
    16d8:	01190000 	tsteq	r9, r0
    16dc:	74030552 	strvc	r0, [r3], #-1362	; 0xfffffaae
    16e0:	190000a7 	stmdbne	r0, {r0, r1, r2, r5, r7}
    16e4:	08025301 	stmdaeq	r2, {r0, r8, r9, ip, lr}
    16e8:	3c1a00d9 	ldccc	0, cr0, [sl], {217}	; 0xd9
    16ec:	1000008c 	andne	r0, r0, ip, lsl #1
    16f0:	0000000c 	andeq	r0, r0, ip
    16f4:	0000d111 	andeq	sp, r0, r1, lsl r1
    16f8:	00056c00 	andeq	r6, r5, r0, lsl #24
    16fc:	002c1200 	eoreq	r1, ip, r0, lsl #4
    1700:	000d0000 	andeq	r0, sp, r0
    1704:	00055c04 	andeq	r5, r5, r4, lsl #24
    1708:	049b2000 	ldreq	r2, [fp], #0
    170c:	cb010000 	blgt	41714 <__bss_end__+0x367b4>
    1710:	00002c0a 	andeq	r2, r0, sl, lsl #24
    1714:	008bd400 	addeq	sp, fp, r0, lsl #8
    1718:	00003000 	andeq	r3, r0, r0
    171c:	e79c0100 	ldr	r0, [ip, r0, lsl #2]
    1720:	22000005 	andcs	r0, r0, #5, 0
    1724:	00000536 	andeq	r0, r0, r6, lsr r5
    1728:	251ccb01 	ldrcs	ip, [ip, #-2817]	; 0xfffff4ff
    172c:	ca000000 	bgt	1734 <__code_start__-0x68cc>
    1730:	c6000006 	strgt	r0, [r0], -r6
    1734:	18000006 	stmdane	r0, {r1, r2}
    1738:	00008be4 	andeq	r8, r0, r4, ror #23
    173c:	00000c04 	andeq	r0, r0, r4, lsl #24
    1740:	000005b6 			; <UNDEFINED> instruction: 0x000005b6
    1744:	05500119 	ldrbeq	r0, [r0, #-281]	; 0xfffffee7
    1748:	00a68003 	adceq	r8, r6, r3
    174c:	e81a0000 	ldmda	sl, {}	; <UNPREDICTABLE>
    1750:	e700008b 	str	r0, [r0, -fp, lsl #1]
    1754:	18000005 	stmdane	r0, {r0, r2}
    1758:	00008bf0 	strdeq	r8, [r0], -r0
    175c:	00000c04 	andeq	r0, r0, r4, lsl #24
    1760:	000005d6 	ldrdeq	r0, [r0], -r6
    1764:	05500119 	ldrbeq	r0, [r0, #-281]	; 0xfffffee7
    1768:	00a69403 	adceq	r9, r6, r3, lsl #8
    176c:	f81f0000 			; <UNDEFINED> instruction: 0xf81f0000
    1770:	0900008b 	stmdbeq	r0, {r0, r1, r3, r7}
    1774:	19000007 	stmdbne	r0, {r0, r1, r2}
    1778:	74025001 	strvc	r5, [r2], #-1
    177c:	23000000 	movwcs	r0, #0
    1780:	0000041a 	andeq	r0, r0, sl, lsl r4
    1784:	a80da301 	stmdage	sp, {r0, r8, r9, sp, pc}
    1788:	9000008a 	andls	r0, r0, sl, lsl #1
    178c:	01000000 	mrseq	r0, (UNDEF: 0)
    1790:	0006de9c 	muleq	r6, ip, lr
    1794:	04821500 	streq	r1, [r2], #1280	; 0x500
    1798:	ad010000 	stcge	0, cr0, [r1, #-0]
    179c:	0006de0e 	andeq	sp, r6, lr, lsl #28
    17a0:	b8910300 	ldmlt	r1, {r8, r9}
    17a4:	0093247f 	addseq	r2, r3, pc, ror r4
    17a8:	06fe0000 	ldrbteq	r0, [lr], r0
    17ac:	fb250000 	blx	9417b6 <__bss_end__+0x936856>
    17b0:	01000003 	tsteq	r0, r3
    17b4:	07030fbe 			; <UNDEFINED> instruction: 0x07030fbe
    17b8:	00000000 	andeq	r0, r0, r0
    17bc:	32080800 	andcc	r0, r8, #0, 16
    17c0:	01000004 	tsteq	r0, r4
    17c4:	007a15c2 	rsbseq	r1, sl, r2, asr #11
    17c8:	e6080000 	str	r0, [r8], -r0
    17cc:	01000004 	tsteq	r0, r4
    17d0:	007a24c2 	rsbseq	r2, sl, r2, asr #9
    17d4:	1c080000 	stcne	0, cr0, [r8], {-0}
    17d8:	01000005 	tsteq	r0, r5
    17dc:	007a15c5 	rsbseq	r1, sl, r5, asr #11
    17e0:	8e080000 	cdphi	0, 0, cr0, cr8, cr0, {0}
    17e4:	01000004 	tsteq	r0, r4
    17e8:	007a25c5 	rsbseq	r2, sl, r5, asr #11
    17ec:	b0260000 	eorlt	r0, r6, r0
    17f0:	2400008a 	strcs	r0, [r0], #-138	; 0xffffff76
    17f4:	88000000 	stmdahi	r0, {}	; <UNPREDICTABLE>
    17f8:	27000006 	strcs	r0, [r0, -r6]
    17fc:	a7010068 	strge	r0, [r1, -r8, rrx]
    1800:	00020b10 	andeq	r0, r2, r0, lsl fp
    1804:	0006ec00 	andeq	lr, r6, r0, lsl #24
    1808:	0006e800 	andeq	lr, r6, r0, lsl #16
    180c:	8ab41a00 	bhi	fed08014 <__bss_end__+0xfecfd0b4>
    1810:	0c1c0000 	ldceq	0, cr0, [ip], {-0}
    1814:	d01a0000 	andsle	r0, sl, r0
    1818:	2800008a 	stmdacs	r0, {r1, r3, r7}
    181c:	0000000c 	andeq	r0, r0, ip
    1820:	008adc18 	addeq	sp, sl, r8, lsl ip
    1824:	000c3400 	andeq	r3, ip, r0, lsl #8
    1828:	00069c00 	andeq	r9, r6, r0, lsl #24
    182c:	50011900 	andpl	r1, r1, r0, lsl #18
    1830:	00007d02 	andeq	r7, r0, r2, lsl #26
    1834:	008afc18 	addeq	pc, sl, r8, lsl ip	; <UNPREDICTABLE>
    1838:	0008df00 	andeq	sp, r8, r0, lsl #30
    183c:	0006b600 	andeq	fp, r6, r0, lsl #12
    1840:	50011900 	andpl	r1, r1, r0, lsl #18
    1844:	19007d02 	stmdbne	r0, {r1, r8, sl, fp, ip, sp, lr}
    1848:	91025101 	tstls	r2, r1, lsl #2
    184c:	08180070 	ldmdaeq	r8, {r4, r5, r6}
    1850:	df00008b 	svcle	0x0000008b
    1854:	cb000008 	blgt	187c <__code_start__-0x6784>
    1858:	19000006 	stmdbne	r0, {r1, r2}
    185c:	40035101 	andmi	r5, r3, r1, lsl #2
    1860:	1a002447 	bne	a984 <__FUNCTION__.4034+0x84>
    1864:	00008b14 	andeq	r8, r0, r4, lsl fp
    1868:	000008df 	ldrdeq	r0, [r0], -pc	; <UNPREDICTABLE>
    186c:	008b201a 	addeq	r2, fp, sl, lsl r0
    1870:	0008df00 	andeq	sp, r8, r0, lsl #30
    1874:	7a110000 	bvc	44187c <__bss_end__+0x43691c>
    1878:	ee000000 	cdp	0, 0, cr0, cr0, cr0, {0}
    187c:	12000006 	andne	r0, r0, #6, 0
    1880:	0000002c 	andeq	r0, r0, ip, lsr #32
    1884:	d111000f 	tstle	r1, pc
    1888:	fe000000 	cdp2	0, 0, cr0, cr0, cr0, {0}
    188c:	12000006 	andne	r0, r0, #6, 0
    1890:	0000002c 	andeq	r0, r0, ip, lsr #32
    1894:	ee040008 	cdp	0, 0, cr0, cr4, cr8, {0}
    1898:	09000006 	stmdbeq	r0, {r1, r2}
    189c:	00007a04 	andeq	r7, r0, r4, lsl #20
    18a0:	05111d00 	ldreq	r1, [r1, #-3328]	; 0xfffff300
    18a4:	6e010000 	cdpvs	0, 0, cr0, cr1, cr0, {0}
    18a8:	00002c11 	andeq	r2, r0, r1, lsl ip
    18ac:	00871c00 	addeq	r1, r7, r0, lsl #24
    18b0:	00017c00 	andeq	r7, r1, r0, lsl #24
    18b4:	df9c0100 	svcle	0x009c0100
    18b8:	22000008 	andcs	r0, r0, #8, 0
    18bc:	00000536 	andeq	r0, r0, r6, lsr r5
    18c0:	25206e01 	strcs	r6, [r0, #-3585]!	; 0xfffff1ff
    18c4:	0e000000 	cdpeq	0, 0, cr0, cr0, cr0, {0}
    18c8:	0a000007 	beq	18ec <__code_start__-0x6714>
    18cc:	1e000007 	cdpne	0, 0, cr0, cr0, cr7, {0}
    18d0:	0000044a 	andeq	r0, r0, sl, asr #8
    18d4:	2c0b6f01 	stccs	15, cr6, [fp], {1}
    18d8:	30000000 	andcc	r0, r0, r0
    18dc:	2c000007 	stccs	0, cr0, [r0], {7}
    18e0:	1e000007 	cdpne	0, 0, cr0, cr0, cr7, {0}
    18e4:	00000476 	andeq	r0, r0, r6, ror r4
    18e8:	2c186f01 	ldccs	15, cr6, [r8], {1}
    18ec:	53000000 	movwpl	r0, #0
    18f0:	4f000007 	svcmi	0x00000007
    18f4:	1e000007 	cdpne	0, 0, cr0, cr0, cr7, {0}
    18f8:	00000470 	andeq	r0, r0, r0, ror r4
    18fc:	2c246f01 	stccs	15, cr6, [r4], #-4
    1900:	76000000 	strvc	r0, [r0], -r0
    1904:	72000007 	andvc	r0, r0, #7, 0
    1908:	1e000007 	cdpne	0, 0, cr0, cr0, cr7, {0}
    190c:	0000035d 	andeq	r0, r0, sp, asr r3
    1910:	0b097401 	bleq	25e91c <__bss_end__+0x2539bc>
    1914:	a5000002 	strge	r0, [r0, #-2]
    1918:	95000007 	strls	r0, [r0, #-7]
    191c:	28000007 	stmdacs	r0, {r0, r1, r2}
    1920:	00000070 	andeq	r0, r0, r0, ror r0
    1924:	0000083d 	andeq	r0, r0, sp, lsr r8
    1928:	0003491e 	andeq	r4, r3, lr, lsl r9
    192c:	0c770100 	ldfeqe	f0, [r7], #-0
    1930:	0000002c 	andeq	r0, r0, ip, lsr #32
    1934:	0000080d 	andeq	r0, r0, sp, lsl #16
    1938:	00000805 	andeq	r0, r0, r5, lsl #16
    193c:	0004111e 	andeq	r1, r4, lr, lsl r1
    1940:	07780100 	ldrbeq	r0, [r8, -r0, lsl #2]!
    1944:	00000025 	andeq	r0, r0, r5, lsr #32
    1948:	0000085b 	andeq	r0, r0, fp, asr r8
    194c:	00000855 	andeq	r0, r0, r5, asr r8
    1950:	00878818 	addeq	r8, r7, r8, lsl r8
    1954:	000c0400 	andeq	r0, ip, r0, lsl #8
    1958:	0007d500 	andeq	sp, r7, r0, lsl #10
    195c:	50011900 	andpl	r1, r1, r0, lsl #18
    1960:	a4900305 	ldrge	r0, [r0], #773	; 0x305
    1964:	01190000 	tsteq	r9, r0
    1968:	00740251 	rsbseq	r0, r4, r1, asr r2
    196c:	87b41800 	ldrhi	r1, [r4, r0, lsl #16]!
    1970:	0c040000 	stceq	0, cr0, [r4], {-0}
    1974:	07f20000 	ldrbeq	r0, [r2, r0]!
    1978:	01190000 	tsteq	r9, r0
    197c:	20030550 	andcs	r0, r3, r0, asr r5
    1980:	190000a4 	stmdbne	r0, {r2, r5, r7}
    1984:	74025101 	strvc	r5, [r2], #-257	; 0xfffffeff
    1988:	d4180000 	ldrle	r0, [r8], #-0
    198c:	04000087 	streq	r0, [r0], #-135	; 0xffffff79
    1990:	0f00000c 	svceq	0x0000000c
    1994:	19000008 	stmdbne	r0, {r3}
    1998:	03055001 	movweq	r5, #20481	; 0x5001
    199c:	0000a458 	andeq	sl, r0, r8, asr r4
    19a0:	02510119 	subseq	r0, r1, #1073741830	; 0x40000006
    19a4:	18000074 	stmdane	r0, {r2, r4, r5, r6}
    19a8:	000087ec 	andeq	r8, r0, ip, ror #15
    19ac:	00000c04 	andeq	r0, r0, r4, lsl #24
    19b0:	0000082c 	andeq	r0, r0, ip, lsr #16
    19b4:	05500119 	ldrbeq	r0, [r0, #-281]	; 0xfffffee7
    19b8:	00a4c803 	adceq	ip, r4, r3, lsl #16
    19bc:	51011900 	tstpl	r1, r0, lsl #18
    19c0:	00007402 	andeq	r7, r0, r2, lsl #8
    19c4:	0087f41f 	addeq	pc, r7, pc, lsl r4	; <UNPREDICTABLE>
    19c8:	000c2800 	andeq	r2, ip, r0, lsl #16
    19cc:	50011900 	andpl	r1, r1, r0, lsl #18
    19d0:	00007402 	andeq	r7, r0, r2, lsl #8
    19d4:	872c1800 	strhi	r1, [ip, -r0, lsl #16]!
    19d8:	0c040000 	stceq	0, cr0, [r4], {-0}
    19dc:	08540000 	ldmdaeq	r4, {}^	; <UNPREDICTABLE>
    19e0:	01190000 	tsteq	r9, r0
    19e4:	cc030550 	cfstr32gt	mvfx0, [r3], {80}	; 0x50
    19e8:	000000a3 	andeq	r0, r0, r3, lsr #1
    19ec:	00873418 	addeq	r3, r7, r8, lsl r4
    19f0:	000c0400 	andeq	r0, ip, r0, lsl #8
    19f4:	00086b00 	andeq	r6, r8, r0, lsl #22
    19f8:	50011900 	andpl	r1, r1, r0, lsl #18
    19fc:	a4080305 	strge	r0, [r8], #-773	; 0xfffffcfb
    1a00:	1a000000 	bne	1a08 <__code_start__-0x65f8>
    1a04:	00008738 	andeq	r8, r0, r8, lsr r7
    1a08:	00000c1c 	andeq	r0, r0, ip, lsl ip
    1a0c:	00883c18 	addeq	r3, r8, r8, lsl ip
    1a10:	000c0400 	andeq	r0, ip, r0, lsl #8
    1a14:	00089100 	andeq	r9, r8, r0, lsl #2
    1a18:	50011900 	andpl	r1, r1, r0, lsl #18
    1a1c:	a5040305 	strge	r0, [r4, #-773]	; 0xfffffcfb
    1a20:	01190000 	tsteq	r9, r0
    1a24:	00750251 	rsbseq	r0, r5, r1, asr r2
    1a28:	884c1800 	stmdahi	ip, {fp, ip}^
    1a2c:	0c040000 	stceq	0, cr0, [r4], {-0}
    1a30:	08a80000 	stmiaeq	r8!, {}	; <UNPREDICTABLE>
    1a34:	01190000 	tsteq	r9, r0
    1a38:	24030550 	strcs	r0, [r3], #-1360	; 0xfffffab0
    1a3c:	000000a5 	andeq	r0, r0, r5, lsr #1
    1a40:	00885418 	addeq	r5, r8, r8, lsl r4
    1a44:	000c0400 	andeq	r0, ip, r0, lsl #8
    1a48:	0008bf00 	andeq	fp, r8, r0, lsl #30
    1a4c:	50011900 	andpl	r1, r1, r0, lsl #18
    1a50:	a57c0305 	ldrbge	r0, [ip, #-773]!	; 0xfffffcfb
    1a54:	1f000000 	svcne	0x00000000
    1a58:	0000886c 	andeq	r8, r0, ip, ror #16
    1a5c:	00000c04 	andeq	r0, r0, r4, lsl #24
    1a60:	05500119 	ldrbeq	r0, [r0, #-281]	; 0xfffffee7
    1a64:	00a54c03 	adceq	r4, r5, r3, lsl #24
    1a68:	51011900 	tstpl	r1, r0, lsl #18
    1a6c:	19007802 	stmdbne	r0, {r1, fp, ip, sp, lr}
    1a70:	77025201 	strvc	r5, [r2, -r1, lsl #4]
    1a74:	23000000 	movwcs	r0, #0
    1a78:	000000b7 	strheq	r0, [r0], -r7
    1a7c:	700d4901 	andvc	r4, sp, r1, lsl #18
    1a80:	38000089 	stmdacc	r0, {r0, r3, r7}
    1a84:	01000001 	tsteq	r0, r1
    1a88:	000a7d9c 	muleq	sl, ip, sp
    1a8c:	00702900 	rsbseq	r2, r0, r0, lsl #18
    1a90:	031c4901 	tsteq	ip, #16384	; 0x4000
    1a94:	92000007 	andls	r0, r0, #7, 0
    1a98:	84000008 	strhi	r0, [r0], #-8
    1a9c:	29000008 	stmdbcs	r0, {r3}
    1aa0:	49010065 	stmdbmi	r1, {r0, r2, r5, r6}
    1aa4:	00070329 	andeq	r0, r7, r9, lsr #6
    1aa8:	0008fd00 	andeq	pc, r8, r0, lsl #26
    1aac:	0008ed00 	andeq	lr, r8, r0, lsl #26
    1ab0:	00931700 	addseq	r1, r3, r0, lsl #14
    1ab4:	0a8d0000 	beq	fe341abc <__bss_end__+0xfe336b5c>
    1ab8:	03050000 	movweq	r0, #20480	; 0x5000
    1abc:	0000a764 	andeq	sl, r0, r4, ror #14
    1ac0:	0004401e 	andeq	r4, r4, lr, lsl r0
    1ac4:	114f0100 	mrsne	r0, (UNDEF: 95)
    1ac8:	00000033 	andeq	r0, r0, r3, lsr r0
    1acc:	0000096f 	andeq	r0, r0, pc, ror #18
    1ad0:	00000969 	andeq	r0, r0, r9, ror #18
    1ad4:	00008828 	andeq	r8, r0, r8, lsr #16
    1ad8:	0009b600 	andeq	fp, r9, r0, lsl #12
    1adc:	00692700 	rsbeq	r2, r9, r0, lsl #14
    1ae0:	2c105001 	ldccs	0, cr5, [r0], {1}
    1ae4:	a5000000 	strge	r0, [r0, #-0]
    1ae8:	a1000009 	tstge	r0, r9
    1aec:	2a000009 	bcs	1b18 <__code_start__-0x64e8>
    1af0:	000000a0 	andeq	r0, r0, r0, lsr #1
    1af4:	0004bc1e 	andeq	fp, r4, lr, lsl ip
    1af8:	0a510100 	beq	1441f00 <__bss_end__+0x1436fa0>
    1afc:	0000020b 	andeq	r0, r0, fp, lsl #4
    1b00:	000009ca 	andeq	r0, r0, sl, asr #19
    1b04:	000009c4 	andeq	r0, r0, r4, asr #19
    1b08:	0000b828 	andeq	fp, r0, r8, lsr #16
    1b0c:	0009ab00 	andeq	sl, r9, r0, lsl #22
    1b10:	04051e00 	streq	r1, [r5], #-3584	; 0xfffff200
    1b14:	63010000 	movwvs	r0, #4096	; 0x1000
    1b18:	0007030e 	andeq	r0, r7, lr, lsl #6
    1b1c:	0009f500 	andeq	pc, r9, r0, lsl #10
    1b20:	0009f300 	andeq	pc, r9, r0, lsl #6
    1b24:	04c61e00 	strbeq	r1, [r6], #3584	; 0xe00
    1b28:	64010000 	strvs	r0, [r1], #-0
    1b2c:	0007030e 	andeq	r0, r7, lr, lsl #6
    1b30:	000a0c00 	andeq	r0, sl, r0, lsl #24
    1b34:	000a0800 	andeq	r0, sl, r0, lsl #16
    1b38:	8a181a00 	bhi	608340 <__bss_end__+0x5fd3e0>
    1b3c:	08df0000 	ldmeq	pc, {}^	; <UNPREDICTABLE>
    1b40:	1a000000 	bne	1b48 <__code_start__-0x64b8>
    1b44:	00008a30 	andeq	r8, r0, r0, lsr sl
    1b48:	00000a92 	muleq	r0, r2, sl
    1b4c:	bc180000 	ldclt	0, cr0, [r8], {-0}
    1b50:	04000089 	streq	r0, [r0], #-137	; 0xffffff77
    1b54:	ef00000c 	svc	0x0000000c
    1b58:	19000009 	stmdbne	r0, {r0, r3}
    1b5c:	03055001 	movweq	r5, #20481	; 0x5001
    1b60:	0000a08c 	andeq	sl, r0, ip, lsl #1
    1b64:	05510119 	ldrbeq	r0, [r1, #-281]	; 0xfffffee7
    1b68:	00a63403 	adceq	r3, r6, r3, lsl #8
    1b6c:	52011900 	andpl	r1, r1, #0, 18
    1b70:	a7640305 	strbge	r0, [r4, -r5, lsl #6]!
    1b74:	01190000 	tsteq	r9, r0
    1b78:	4a080253 	bmi	2024cc <__bss_end__+0x1f756c>
    1b7c:	007d0219 	rsbseq	r0, sp, r9, lsl r2
    1b80:	a63c0305 	ldrtge	r0, [ip], -r5, lsl #6
    1b84:	1a000000 	bne	1b8c <__code_start__-0x6474>
    1b88:	000089c0 	andeq	r8, r0, r0, asr #19
    1b8c:	00000c10 	andeq	r0, r0, r0, lsl ip
    1b90:	0089dc18 	addeq	sp, r9, r8, lsl ip
    1b94:	000c0400 	andeq	r0, ip, r0, lsl #8
    1b98:	000a3100 	andeq	r3, sl, r0, lsl #2
    1b9c:	50011900 	andpl	r1, r1, r0, lsl #18
    1ba0:	a08c0305 	addge	r0, ip, r5, lsl #6
    1ba4:	01190000 	tsteq	r9, r0
    1ba8:	34030551 	strcc	r0, [r3], #-1361	; 0xfffffaaf
    1bac:	190000a6 	stmdbne	r0, {r1, r2, r5, r7}
    1bb0:	03055201 	movweq	r5, #20993	; 0x5201
    1bb4:	0000a764 	andeq	sl, r0, r4, ror #14
    1bb8:	02530119 	subseq	r0, r3, #1073741830	; 0x40000006
    1bbc:	02194c08 	andseq	r4, r9, #8, 24	; 0x800
    1bc0:	0305007d 	movweq	r0, #20605	; 0x507d
    1bc4:	0000a640 	andeq	sl, r0, r0, asr #12
    1bc8:	89e01a00 	stmibhi	r0!, {r9, fp, ip}^
    1bcc:	0c100000 	ldceq	0, cr0, [r0], {-0}
    1bd0:	fc180000 	ldc2	0, cr0, [r8], {-0}
    1bd4:	04000089 	streq	r0, [r0], #-137	; 0xffffff77
    1bd8:	7300000c 	movwvc	r0, #12
    1bdc:	1900000a 	stmdbne	r0, {r1, r3}
    1be0:	03055001 	movweq	r5, #20481	; 0x5001
    1be4:	0000a08c 	andeq	sl, r0, ip, lsl #1
    1be8:	05510119 	ldrbeq	r0, [r1, #-281]	; 0xfffffee7
    1bec:	00a63403 	adceq	r3, r6, r3, lsl #8
    1bf0:	52011900 	andpl	r1, r1, #0, 18
    1bf4:	a7640305 	strbge	r0, [r4, -r5, lsl #6]!
    1bf8:	01190000 	tsteq	r9, r0
    1bfc:	4d080253 	sfmmi	f0, 4, [r8, #-332]	; 0xfffffeb4
    1c00:	007d0219 	rsbseq	r0, sp, r9, lsl r2
    1c04:	a6500305 	ldrbge	r0, [r0], -r5, lsl #6
    1c08:	1a000000 	bne	1c10 <__code_start__-0x63f0>
    1c0c:	00008a00 	andeq	r8, r0, r0, lsl #20
    1c10:	00000c10 	andeq	r0, r0, r0, lsl ip
    1c14:	00d11100 	sbcseq	r1, r1, r0, lsl #2
    1c18:	0a8d0000 	beq	fe341c20 <__bss_end__+0xfe336cc0>
    1c1c:	2c120000 	ldccs	0, cr0, [r2], {-0}
    1c20:	04000000 	streq	r0, [r0], #-0
    1c24:	0a7d0400 	beq	1f42c2c <__bss_end__+0x1f37ccc>
    1c28:	ae1d0000 	cdpge	0, 1, cr0, cr13, cr0, {0}
    1c2c:	01000004 	tsteq	r0, r4
    1c30:	020b0f36 	andeq	r0, fp, #216	; 0xd8
    1c34:	89480000 	stmdbhi	r8, {}^	; <UNPREDICTABLE>
    1c38:	00280000 	eoreq	r0, r8, r0
    1c3c:	9c010000 	stcls	0, cr0, [r1], {-0}
    1c40:	00000af7 	strdeq	r0, [r0], -r7
    1c44:	000ba322 	andeq	sl, fp, r2, lsr #6
    1c48:	1f360100 	svcne	0x00360100
    1c4c:	0000007a 	andeq	r0, r0, sl, ror r0
    1c50:	00000a33 	andeq	r0, r0, r3, lsr sl
    1c54:	00000a2f 	andeq	r0, r0, pc, lsr #20
    1c58:	01007027 	tsteq	r0, r7, lsr #32
    1c5c:	021e0b37 	andseq	r0, lr, #56320	; 0xdc00
    1c60:	0a550000 	beq	1541c68 <__bss_end__+0x1536d08>
    1c64:	0a510000 	beq	1441c6c <__bss_end__+0x1436d0c>
    1c68:	54180000 	ldrpl	r0, [r8], #-0
    1c6c:	f7000089 			; <UNDEFINED> instruction: 0xf7000089
    1c70:	e600000a 	str	r0, [r0], -sl
    1c74:	1900000a 	stmdbne	r0, {r1, r3}
    1c78:	74025001 	strvc	r5, [r2], #-1
    1c7c:	641f0000 	ldrvs	r0, [pc], #-0	; 1c84 <__code_start__-0x637c>
    1c80:	40000089 	andmi	r0, r0, r9, lsl #1
    1c84:	1900000c 	stmdbne	r0, {r2, r3}
    1c88:	74025001 	strvc	r5, [r2], #-1
    1c8c:	1d000000 	stcne	0, cr0, [r0, #-0]
    1c90:	000004d0 	ldrdeq	r0, [r0], -r0	; <UNPREDICTABLE>
    1c94:	250c2601 	strcs	r2, [ip, #-1537]	; 0xfffff9ff
    1c98:	e0000000 	and	r0, r0, r0
    1c9c:	3c000086 	stccc	0, cr0, [r0], {134}	; 0x86
    1ca0:	01000000 	mrseq	r0, (UNDEF: 0)
    1ca4:	000b249c 	muleq	fp, ip, r4
    1ca8:	00702900 	rsbseq	r2, r0, r0, lsl #18
    1cac:	1e1a2601 	cfmsub32ne	mvax0, mvfx2, mvfx10, mvfx1
    1cb0:	7f000002 	svcvc	0x00000002
    1cb4:	7300000a 	movwvc	r0, #10
    1cb8:	0000000a 	andeq	r0, r0, sl
    1cbc:	0004a920 	andeq	sl, r4, r0, lsr #18
    1cc0:	07130100 	ldreq	r0, [r3, -r0, lsl #2]
    1cc4:	0000021e 	andeq	r0, r0, lr, lsl r2
    1cc8:	00008b38 	andeq	r8, r0, r8, lsr fp
    1ccc:	0000009c 	muleq	r0, ip, r0
    1cd0:	0c049c01 	stceq	12, cr9, [r4], {1}
    1cd4:	66220000 	strtvs	r0, [r2], -r0
    1cd8:	01000004 	tsteq	r0, r4
    1cdc:	00461113 	subeq	r1, r6, r3, lsl r1
    1ce0:	0ad60000 	beq	ff581ce8 <__bss_end__+0xff576d88>
    1ce4:	0ad20000 	beq	ff481cec <__bss_end__+0xff476d8c>
    1ce8:	93170000 	tstls	r7, #0, 0
    1cec:	8d000000 	stchi	0, cr0, [r0, #-0]
    1cf0:	0500000a 	streq	r0, [r0, #-10]
    1cf4:	00a76c03 	adceq	r6, r7, r3, lsl #24
    1cf8:	8b942600 	blhi	fe50b500 <__bss_end__+0xfe5005a0>
    1cfc:	00400000 	subeq	r0, r0, r0
    1d00:	0b970000 	bleq	fe5c1d08 <__bss_end__+0xfe5b6da8>
    1d04:	d8250000 	stmdale	r5!, {}	; <UNPREDICTABLE>
    1d08:	01000004 	tsteq	r0, r4
    1d0c:	002c1217 	eoreq	r1, ip, r7, lsl r2
    1d10:	00000000 	andeq	r0, r0, r0
    1d14:	b01f0010 	andslt	r0, pc, r0, lsl r0	; <UNPREDICTABLE>
    1d18:	4c00008b 	stcmi	0, cr0, [r0], {139}	; 0x8b
    1d1c:	1900000c 	stmdbne	r0, {r2, r3}
    1d20:	40035001 	andmi	r5, r3, r1
    1d24:	01192440 	tsteq	r9, r0, asr #8
    1d28:	40400351 	submi	r0, r0, r1, asr r3
    1d2c:	18000024 	stmdane	r0, {r2, r5}
    1d30:	00008b4c 	andeq	r8, r0, ip, asr #22
    1d34:	00000c04 	andeq	r0, r0, r4, lsl #24
    1d38:	00000bae 	andeq	r0, r0, lr, lsr #23
    1d3c:	05500119 	ldrbeq	r0, [r0, #-281]	; 0xfffffee7
    1d40:	00a66003 	adceq	r6, r6, r3
    1d44:	6c180000 	ldcvs	0, cr0, [r8], {-0}
    1d48:	5800008b 	stmdapl	r0, {r0, r1, r3, r7}
    1d4c:	c200000c 	andgt	r0, r0, #12, 0
    1d50:	1900000b 	stmdbne	r0, {r0, r1, r3}
    1d54:	74025001 	strvc	r5, [r2], #-1
    1d58:	90180000 	andsls	r0, r8, r0
    1d5c:	0400008b 	streq	r0, [r0], #-139	; 0xffffff75
    1d60:	fa00000c 	blx	1d98 <__code_start__-0x6268>
    1d64:	1900000b 	stmdbne	r0, {r0, r1, r3}
    1d68:	03055001 	movweq	r5, #20481	; 0x5001
    1d6c:	0000a08c 	andeq	sl, r0, ip, lsl #1
    1d70:	05510119 	ldrbeq	r0, [r1, #-281]	; 0xfffffee7
    1d74:	00a63403 	adceq	r3, r6, r3, lsl #8
    1d78:	52011900 	andpl	r1, r1, #0, 18
    1d7c:	a76c0305 	strbge	r0, [ip, -r5, lsl #6]!
    1d80:	01190000 	tsteq	r9, r0
    1d84:	19450153 	stmdbne	r5, {r0, r1, r4, r6, r8}^
    1d88:	05007d02 	streq	r7, [r0, #-3330]	; 0xfffff2fe
    1d8c:	00a67003 	adceq	r7, r6, r3
    1d90:	941a0000 	ldrls	r0, [sl], #-0
    1d94:	1000008b 	andne	r0, r0, fp, lsl #1
    1d98:	0000000c 	andeq	r0, r0, ip
    1d9c:	0006ec2b 	andeq	lr, r6, fp, lsr #24
    1da0:	0006ec00 	andeq	lr, r6, r0, lsl #24
    1da4:	06280300 	strteq	r0, [r8], -r0, lsl #6
    1da8:	0000aa2b 	andeq	sl, r0, fp, lsr #20
    1dac:	0000aa00 	andeq	sl, r0, r0, lsl #20
    1db0:	066e0300 	strbteq	r0, [lr], -r0, lsl #6
    1db4:	00030f2b 	andeq	r0, r3, fp, lsr #30
    1db8:	00030f00 	andeq	r0, r3, r0, lsl #30
    1dbc:	082f0500 	stmdaeq	pc!, {r8, sl}	; <UNPREDICTABLE>
    1dc0:	0003512b 	andeq	r5, r3, fp, lsr #2
    1dc4:	00035100 	andeq	r5, r3, r0, lsl #2
    1dc8:	08320500 	ldmdaeq	r2!, {r8, sl}
    1dcc:	00047d2b 	andeq	r7, r4, fp, lsr #26
    1dd0:	00047d00 	andeq	r7, r4, r0, lsl #26
    1dd4:	06a00100 	strteq	r0, [r0], r0, lsl #2
    1dd8:	0003902b 	andeq	r9, r3, fp, lsr #32
    1ddc:	00039000 	andeq	r9, r3, r0
    1de0:	08330500 	ldmdaeq	r3!, {r8, sl}
    1de4:	0004fa2b 	andeq	pc, r4, fp, lsr #20
    1de8:	0004fa00 	andeq	pc, r4, r0, lsl #20
    1dec:	06830300 	streq	r0, [r3], r0, lsl #6
    1df0:	0004f22b 	andeq	pc, r4, fp, lsr #4
    1df4:	0004f200 	andeq	pc, r4, r0, lsl #4
    1df8:	077c0300 	ldrbeq	r0, [ip, -r0, lsl #6]!
    1dfc:	0002da00 	andeq	sp, r2, r0, lsl #20
    1e00:	49000400 	stmdbmi	r0, {sl}
    1e04:	04000007 	streq	r0, [r0], #-7
    1e08:	0001c701 	andeq	ip, r1, r1, lsl #14
    1e0c:	05720c00 	ldrbeq	r0, [r2, #-3072]!	; 0xfffff400
    1e10:	015d0000 	cmpeq	sp, r0
    1e14:	8d180000 	ldchi	0, cr0, [r8, #-0]
    1e18:	01ac0000 			; <UNDEFINED> instruction: 0x01ac0000
    1e1c:	0d760000 	ldcleq	0, cr0, [r6, #-0]
    1e20:	04020000 	streq	r0, [r2], #-0
    1e24:	746e6905 	strbtvc	r6, [lr], #-2309	; 0xfffff6fb
    1e28:	07040300 	streq	r0, [r4, -r0, lsl #6]
    1e2c:	00000101 	andeq	r0, r0, r1, lsl #2
    1e30:	cb060103 	blgt	182244 <__bss_end__+0x1772e4>
    1e34:	03000000 	movweq	r0, #0
    1e38:	00220502 	eoreq	r0, r2, r2, lsl #10
    1e3c:	04030000 	streq	r0, [r3], #-0
    1e40:	00006b05 	andeq	r6, r0, r5, lsl #22
    1e44:	05080300 	streq	r0, [r8, #-768]	; 0xfffffd00
    1e48:	00000066 	andeq	r0, r0, r6, rrx
    1e4c:	c9080103 	stmdbgt	r8, {r0, r1, r8}
    1e50:	03000000 	movweq	r0, #0
    1e54:	01430702 	cmpeq	r3, r2, lsl #14
    1e58:	04030000 	streq	r0, [r3], #-0
    1e5c:	0000fc07 	andeq	pc, r0, r7, lsl #24
    1e60:	07080300 	streq	r0, [r8, -r0, lsl #6]
    1e64:	000000f7 	strdeq	r0, [r0], -r7
    1e68:	00002504 	andeq	r2, r0, r4, lsl #10
    1e6c:	00007a00 	andeq	r7, r0, r0, lsl #20
    1e70:	00250500 	eoreq	r0, r5, r0, lsl #10
    1e74:	06000000 	streq	r0, [r0], -r0
    1e78:	0000002c 	andeq	r0, r0, ip, lsr #32
    1e7c:	860e1c02 	strhi	r1, [lr], -r2, lsl #24
    1e80:	07000000 	streq	r0, [r0, -r0]
    1e84:	00006b04 	andeq	r6, r0, r4, lsl #22
    1e88:	00250400 	eoreq	r0, r5, r0, lsl #8
    1e8c:	009b0000 	addseq	r0, fp, r0
    1e90:	9b050000 	blls	141e98 <__bss_end__+0x136f38>
    1e94:	00000000 	andeq	r0, r0, r0
    1e98:	00a80407 	adceq	r0, r8, r7, lsl #8
    1e9c:	01030000 	mrseq	r0, (UNDEF: 3)
    1ea0:	0000d208 	andeq	sp, r0, r8, lsl #4
    1ea4:	00a10800 	adceq	r0, r1, r0, lsl #16
    1ea8:	2a060000 	bcs	181eb0 <__bss_end__+0x176f50>
    1eac:	02000007 	andeq	r0, r0, #7, 0
    1eb0:	00b90e21 	adcseq	r0, r9, r1, lsr #28
    1eb4:	04070000 	streq	r0, [r7], #-0
    1eb8:	0000008c 	andeq	r0, r0, ip, lsl #1
    1ebc:	00055709 	andeq	r5, r5, r9, lsl #14
    1ec0:	19030800 	stmdbne	r3, {fp}
    1ec4:	0000ec07 	andeq	lr, r0, r7, lsl #24
    1ec8:	00640a00 	rsbeq	r0, r4, r0, lsl #20
    1ecc:	ec101a03 			; <UNDEFINED> instruction: 0xec101a03
    1ed0:	0a000000 	beq	1ed8 <__code_start__-0x6128>
    1ed4:	1b030070 	blne	c209c <__bss_end__+0xb713c>
    1ed8:	0000f30f 	andeq	pc, r0, pc, lsl #6
    1edc:	70660a00 	rsbvc	r0, r6, r0, lsl #20
    1ee0:	101c0300 	andsne	r0, ip, r0, lsl #6
    1ee4:	000000f6 	strdeq	r0, [r0], -r6
    1ee8:	04080300 	streq	r0, [r8], #-768	; 0xfffffd00
    1eec:	00000389 	andeq	r0, r0, r9, lsl #7
    1ef0:	070c040b 	streq	r0, [ip, -fp, lsl #8]
    1ef4:	0000f504 	andeq	pc, r0, r4, lsl #10
    1ef8:	03080d00 	movweq	r0, #36096	; 0x8d00
    1efc:	01200220 			; <UNDEFINED> instruction: 0x01200220
    1f00:	700e0000 	andvc	r0, lr, r0
    1f04:	03007274 	movweq	r7, #628	; 0x274
    1f08:	01421521 	cmpeq	r2, r1, lsr #10
    1f0c:	0f000000 	svceq	0x00000000
    1f10:	0000058f 	andeq	r0, r0, pc, lsl #11
    1f14:	2c102203 	lfmcs	f2, 4, [r0], {3}
    1f18:	04000000 	streq	r0, [r0], #-0
    1f1c:	054a0900 	strbeq	r0, [sl, #-2304]	; 0xfffff700
    1f20:	03080000 	movweq	r0, #32768	; 0x8000
    1f24:	01420f1f 	cmpeq	r2, pc, lsl pc
    1f28:	730a0000 	movwvc	r0, #40960	; 0xa000
    1f2c:	06230300 	strteq	r0, [r3], -r0, lsl #6
    1f30:	000000fc 	strdeq	r0, [r0], -ip
    1f34:	0300780a 	movweq	r7, #2058	; 0x80a
    1f38:	00bf1024 	adcseq	r1, pc, r4, lsr #32
    1f3c:	07000000 	streq	r0, [r0, -r0]
    1f40:	00012004 	andeq	r2, r1, r4
    1f44:	05941000 	ldreq	r1, [r4]
    1f48:	25030000 	strcs	r0, [r3, #-0]
    1f4c:	00012003 	andeq	r2, r1, r3
    1f50:	057e1100 	ldrbeq	r1, [lr, #-256]!	; 0xffffff00
    1f54:	06010000 	streq	r0, [r1], -r0
    1f58:	0001480f 	andeq	r4, r1, pc, lsl #16
    1f5c:	50030500 	andpl	r0, r3, r0, lsl #10
    1f60:	110000ab 	smlatbne	r0, fp, r0, r0
    1f64:	00000565 	andeq	r0, r0, r5, ror #10
    1f68:	78100701 	ldmdavc	r0, {r0, r8, r9, sl}
    1f6c:	05000001 	streq	r0, [r0, #-1]
    1f70:	00ab4803 	adceq	r4, fp, r3, lsl #16
    1f74:	48040700 	stmdami	r4, {r8, r9, sl}
    1f78:	12000001 	andne	r0, r0, #1, 0
    1f7c:	0000055d 	andeq	r0, r0, sp, asr r5
    1f80:	18064601 	stmdane	r6, {r0, r9, sl, lr}
    1f84:	bc00008d 	stclt	0, cr0, [r0], {141}	; 0x8d
    1f88:	01000000 	mrseq	r0, (UNDEF: 0)
    1f8c:	0001c89c 	muleq	r1, ip, r8
    1f90:	74701300 	ldrbtvc	r1, [r0], #-768	; 0xfffffd00
    1f94:	46010072 			; <UNDEFINED> instruction: 0x46010072
    1f98:	0000f314 	andeq	pc, r0, r4, lsl r3	; <UNPREDICTABLE>
    1f9c:	14500100 	ldrbne	r0, [r0], #-256	; 0xffffff00
    1fa0:	01007062 	tsteq	r0, r2, rrx
    1fa4:	01780a47 	cmneq	r8, r7, asr #20
    1fa8:	0afc0000 	beq	fff01fb0 <__bss_end__+0xffef7050>
    1fac:	0af40000 	beq	ffd01fb4 <__bss_end__+0xffcf7054>
    1fb0:	70140000 	andsvc	r0, r4, r0
    1fb4:	0f470100 	svceq	0x00470100
    1fb8:	00000178 	andeq	r0, r0, r8, ror r1
    1fbc:	00000b38 	andeq	r0, r0, r8, lsr fp
    1fc0:	00000b34 	andeq	r0, r0, r4, lsr fp
    1fc4:	03df1500 	bicseq	r1, pc, #0, 10
    1fc8:	20010000 	andcs	r0, r1, r0
    1fcc:	0000f307 	andeq	pc, r0, r7, lsl #6
    1fd0:	008e1800 	addeq	r1, lr, r0, lsl #16
    1fd4:	0000ac00 	andeq	sl, r0, r0, lsl #24
    1fd8:	579c0100 	ldrpl	r0, [ip, r0, lsl #2]
    1fdc:	16000002 	strne	r0, [r0], -r2
    1fe0:	000003d8 	ldrdeq	r0, [r0], -r8
    1fe4:	2c1a2001 	ldccs	0, cr2, [sl], {1}
    1fe8:	5e000000 	cdppl	0, 0, cr0, cr0, cr0, {0}
    1fec:	5600000b 	strpl	r0, [r0], -fp
    1ff0:	1400000b 	strne	r0, [r0], #-11
    1ff4:	21010070 	tstcs	r1, r0, ror r0
    1ff8:	0001780a 	andeq	r7, r1, sl, lsl #16
    1ffc:	000ba600 	andeq	sl, fp, r0, lsl #12
    2000:	000b9800 	andeq	r9, fp, r0, lsl #16
    2004:	05511700 	ldrbeq	r1, [r1, #-1792]	; 0xfffff900
    2008:	21010000 	mrscs	r0, (UNDEF: 1)
    200c:	0001780e 	andeq	r7, r1, lr, lsl #16
    2010:	000c0800 	andeq	r0, ip, r0, lsl #16
    2014:	000bfe00 	andeq	pc, fp, r0, lsl #28
    2018:	056b1700 	strbeq	r1, [fp, #-1792]!	; 0xfffff900
    201c:	22010000 	andcs	r0, r1, #0, 0
    2020:	00002c0b 	andeq	r2, r0, fp, lsl #24
    2024:	000c4e00 	andeq	r4, ip, r0, lsl #28
    2028:	000c4c00 	andeq	r4, ip, r0, lsl #24
    202c:	05831800 	streq	r1, [r3, #2048]	; 0x800
    2030:	23010000 	movwcs	r0, #4096	; 0x1000
    2034:	0001780a 	andeq	r7, r1, sl, lsl #16
    2038:	00024600 	andeq	r4, r2, r0, lsl #12
    203c:	002c0500 	eoreq	r0, ip, r0, lsl #10
    2040:	19000000 	stmdbne	r0, {}	; <UNPREDICTABLE>
    2044:	00008eb4 			; <UNDEFINED> instruction: 0x00008eb4
    2048:	00000257 	andeq	r0, r0, r7, asr r2
    204c:	0250011a 	subseq	r0, r0, #-2147483642	; 0x80000006
    2050:	00000074 	andeq	r0, r0, r4, ror r0
    2054:	0005831b 	andeq	r8, r5, fp, lsl r3
    2058:	100c0100 	andne	r0, ip, r0, lsl #2
    205c:	00000178 	andeq	r0, r0, r8, ror r1
    2060:	00008dd4 	ldrdeq	r8, [r0], -r4
    2064:	00000044 	andeq	r0, r0, r4, asr #32
    2068:	02cb9c01 	sbceq	r9, fp, #256	; 0x100
    206c:	691c0000 	ldmdbvs	ip, {}	; <UNPREDICTABLE>
    2070:	0100636e 	tsteq	r0, lr, ror #6
    2074:	002c250c 	eoreq	r2, ip, ip, lsl #10
    2078:	0c650000 	stcleq	0, cr0, [r5], #-0
    207c:	0c610000 	stcleq	0, cr0, [r1], #-0
    2080:	63140000 	tstvs	r4, #0, 0
    2084:	0d010070 	stceq	0, cr0, [r1, #-448]	; 0xfffffe40
    2088:	0002cb08 	andeq	ip, r2, r8, lsl #22
    208c:	000c8900 	andeq	r8, ip, r0, lsl #18
    2090:	000c8300 	andeq	r8, ip, r0, lsl #6
    2094:	70751400 	rsbsvc	r1, r5, r0, lsl #8
    2098:	0a0e0100 	beq	3824a0 <__bss_end__+0x377540>
    209c:	00000178 	andeq	r0, r0, r8, ror r1
    20a0:	00000cb8 			; <UNDEFINED> instruction: 0x00000cb8
    20a4:	00000cb4 			; <UNDEFINED> instruction: 0x00000cb4
    20a8:	008dec1d 	addeq	lr, sp, sp, lsl ip
    20ac:	0002d100 	andeq	sp, r2, r0, lsl #2
    20b0:	0002c100 	andeq	ip, r2, r0, lsl #2
    20b4:	50011a00 	andpl	r1, r1, r0, lsl #20
    20b8:	33007404 	movwcc	r7, #1028	; 0x404
    20bc:	001e0024 	andseq	r0, lr, r4, lsr #32
    20c0:	7e00008e 	cdpvc	0, 0, cr0, cr0, cr14, {4}
    20c4:	00000001 	andeq	r0, r0, r1
    20c8:	00a10407 	adceq	r0, r1, r7, lsl #8
    20cc:	a91f0000 	ldmdbge	pc, {}	; <UNPREDICTABLE>
    20d0:	a9000004 	stmdbge	r0, {r2}
    20d4:	03000004 	movweq	r0, #4
    20d8:	83000b28 	movwhi	r0, #2856	; 0xb28
    20dc:	04000001 	streq	r0, [r0], #-1
    20e0:	00093700 	andeq	r3, r9, r0, lsl #14
    20e4:	9b010400 	blls	430ec <__bss_end__+0x3818c>
    20e8:	0c000005 	stceq	0, cr0, [r0], {5}
    20ec:	000006b4 			; <UNDEFINED> instruction: 0x000006b4
    20f0:	0000066c 	andeq	r0, r0, ip, ror #12
    20f4:	00008ec4 	andeq	r8, r0, r4, asr #29
    20f8:	00000034 	andeq	r0, r0, r4, lsr r0
    20fc:	00000fcc 	andeq	r0, r0, ip, asr #31
    2100:	69050402 	stmdbvs	r5, {r1, sl}
    2104:	0300746e 	movweq	r7, #1134	; 0x46e
    2108:	00000665 	andeq	r0, r0, r5, ror #12
    210c:	3817d103 	ldmdacc	r7, {r0, r1, r8, ip, lr, pc}
    2110:	04000000 	streq	r0, [r0], #-0
    2114:	01010704 	tsteq	r1, r4, lsl #14
    2118:	01040000 	mrseq	r0, (UNDEF: 4)
    211c:	0000cb06 	andeq	ip, r0, r6, lsl #22
    2120:	05020400 	streq	r0, [r2, #-1024]	; 0xfffffc00
    2124:	00000022 	andeq	r0, r0, r2, lsr #32
    2128:	6b050404 	blvs	143140 <__bss_end__+0x1381e0>
    212c:	04000000 	streq	r0, [r0], #-0
    2130:	00660508 	rsbeq	r0, r6, r8, lsl #10
    2134:	01040000 	mrseq	r0, (UNDEF: 4)
    2138:	0000c908 	andeq	ip, r0, r8, lsl #18
    213c:	005b0500 	subseq	r0, fp, r0, lsl #10
    2140:	02040000 	andeq	r0, r4, #0, 0
    2144:	00014307 	andeq	r4, r1, r7, lsl #6
    2148:	07040400 	streq	r0, [r4, -r0, lsl #8]
    214c:	000000fc 	strdeq	r0, [r0], -ip
    2150:	f7070804 			; <UNDEFINED> instruction: 0xf7070804
    2154:	06000000 	streq	r0, [r0], -r0
    2158:	00000025 	andeq	r0, r0, r5, lsr #32
    215c:	0000008b 	andeq	r0, r0, fp, lsl #1
    2160:	00002507 	andeq	r2, r0, r7, lsl #10
    2164:	2c080000 	stccs	0, cr0, [r8], {-0}
    2168:	02000000 	andeq	r0, r0, #0, 0
    216c:	00970e1c 	addseq	r0, r7, ip, lsl lr
    2170:	04090000 	streq	r0, [r9], #-0
    2174:	0000007c 	andeq	r0, r0, ip, ror r0
    2178:	00002506 	andeq	r2, r0, r6, lsl #10
    217c:	0000ac00 	andeq	sl, r0, r0, lsl #24
    2180:	00ac0700 	adceq	r0, ip, r0, lsl #14
    2184:	09000000 	stmdbeq	r0, {}	; <UNPREDICTABLE>
    2188:	0000b904 	andeq	fp, r0, r4, lsl #18
    218c:	08010400 	stmdaeq	r1, {sl}
    2190:	000000d2 	ldrdeq	r0, [r0], -r2
    2194:	0000b205 	andeq	fp, r0, r5, lsl #4
    2198:	072a0800 	streq	r0, [sl, -r0, lsl #16]!
    219c:	21020000 	mrscs	r0, (UNDEF: 2)
    21a0:	0000ca0e 	andeq	ip, r0, lr, lsl #20
    21a4:	9d040900 	vstrls.16	s0, [r4, #-0]	; <UNPREDICTABLE>
    21a8:	0a000000 	beq	21b0 <__code_start__-0x5e50>
    21ac:	00000362 	andeq	r0, r0, r2, ror #6
    21b0:	25050301 	strcs	r0, [r5, #-769]	; 0xfffffcff
    21b4:	c4000000 	strgt	r0, [r0], #-0
    21b8:	3400008e 	strcc	r0, [r0], #-142	; 0xffffff72
    21bc:	01000000 	mrseq	r0, (UNDEF: 0)
    21c0:	0001799c 	muleq	r1, ip, r9
    21c4:	735f0b00 	cmpvc	pc, #0, 22
    21c8:	03010031 	movweq	r0, #4145	; 0x1031
    21cc:	00017918 	andeq	r7, r1, r8, lsl r9
    21d0:	000cdc00 	andeq	sp, ip, r0, lsl #24
    21d4:	000cd800 	andeq	sp, ip, r0, lsl #16
    21d8:	735f0c00 	cmpvc	pc, #0, 24
    21dc:	03010032 	movweq	r0, #4146	; 0x1032
    21e0:	00017929 	andeq	r7, r1, r9, lsr #18
    21e4:	0d510100 	ldfeqe	f0, [r1, #-0]
    21e8:	000003d8 	ldrdeq	r0, [r0], -r8
    21ec:	2c350301 	ldccs	3, cr0, [r5], #-4
    21f0:	01000000 	mrseq	r0, (UNDEF: 0)
    21f4:	31730e52 	cmncc	r3, r2, asr lr
    21f8:	1a040100 	bne	102600 <__bss_end__+0xf76a0>
    21fc:	00000180 	andeq	r0, r0, r0, lsl #3
    2200:	00000cfe 	strdeq	r0, [r0], -lr
    2204:	00000cfa 	strdeq	r0, [r0], -sl
    2208:	0032730e 	eorseq	r7, r2, lr, lsl #6
    220c:	80250401 	eorhi	r0, r5, r1, lsl #8
    2210:	1e000001 	cdpne	0, 0, cr0, cr0, cr1, {0}
    2214:	1c00000d 	stcne	0, cr0, [r0], {13}
    2218:	0f00000d 	svceq	0x0000000d
    221c:	00008ecc 	andeq	r8, r0, ip, asr #29
    2220:	00000024 	andeq	r0, r0, r4, lsr #32
    2224:	0100690e 	tsteq	r0, lr, lsl #18
    2228:	00250d06 	eoreq	r0, r5, r6, lsl #26
    222c:	0d350000 	ldceq	0, cr0, [r5, #-0]
    2230:	0d310000 	ldceq	0, cr0, [r1, #-0]
    2234:	d80f0000 	stmdale	pc, {}	; <UNPREDICTABLE>
    2238:	1000008e 	andne	r0, r0, lr, lsl #1
    223c:	0e000000 	cdpeq	0, 0, cr0, cr0, cr0, {0}
    2240:	07010076 	smlsdxeq	r1, r6, r0, r0
    2244:	0000250d 	andeq	r2, r0, sp, lsl #10
    2248:	000d5800 	andeq	r5, sp, r0, lsl #16
    224c:	000d5400 	andeq	r5, sp, r0, lsl #8
    2250:	00000000 	andeq	r0, r0, r0
    2254:	017f0409 	cmneq	pc, r9, lsl #8
    2258:	09100000 	ldmdbeq	r0, {}	; <UNPREDICTABLE>
    225c:	00006204 	andeq	r6, r0, r4, lsl #4
    2260:	01fa0000 	mvnseq	r0, r0
    2264:	00040000 	andeq	r0, r4, r0
    2268:	00000a1b 	andeq	r0, r0, fp, lsl sl
    226c:	059b0104 	ldreq	r0, [fp, #260]	; 0x104
    2270:	c40c0000 	strgt	r0, [ip], #-0
    2274:	6c000006 	stcvs	0, cr0, [r0], {6}
    2278:	f8000006 			; <UNDEFINED> instruction: 0xf8000006
    227c:	6000008e 	andvs	r0, r0, lr, lsl #1
    2280:	1b000000 	blne	2288 <__code_start__-0x5d78>
    2284:	02000011 	andeq	r0, r0, #17, 0
    2288:	6e690504 	cdpvs	5, 6, cr0, cr9, cr4, {0}
    228c:	65030074 	strvs	r0, [r3, #-116]	; 0xffffff8c
    2290:	03000006 	movweq	r0, #6
    2294:	003817d1 	ldrsbteq	r1, [r8], -r1
    2298:	04040000 	streq	r0, [r4], #-0
    229c:	00010107 	andeq	r0, r1, r7, lsl #2
    22a0:	00380500 	eorseq	r0, r8, r0, lsl #10
    22a4:	01040000 	mrseq	r0, (UNDEF: 4)
    22a8:	0000cb06 	andeq	ip, r0, r6, lsl #22
    22ac:	05020400 	streq	r0, [r2, #-1024]	; 0xfffffc00
    22b0:	00000022 	andeq	r0, r0, r2, lsr #32
    22b4:	6b050404 	blvs	1432cc <__bss_end__+0x13836c>
    22b8:	04000000 	streq	r0, [r0], #-0
    22bc:	00660508 	rsbeq	r0, r6, r8, lsl #10
    22c0:	01040000 	mrseq	r0, (UNDEF: 4)
    22c4:	0000c908 	andeq	ip, r0, r8, lsl #18
    22c8:	00600500 	rsbeq	r0, r0, r0, lsl #10
    22cc:	02040000 	andeq	r0, r4, #0, 0
    22d0:	00014307 	andeq	r4, r1, r7, lsl #6
    22d4:	07040400 	streq	r0, [r4, -r0, lsl #8]
    22d8:	000000fc 	strdeq	r0, [r0], -ip
    22dc:	f7070804 			; <UNDEFINED> instruction: 0xf7070804
    22e0:	06000000 	streq	r0, [r0], -r0
    22e4:	00000025 	andeq	r0, r0, r5, lsr #32
    22e8:	00000090 	muleq	r0, r0, r0
    22ec:	00002507 	andeq	r2, r0, r7, lsl #10
    22f0:	2c080000 	stccs	0, cr0, [r8], {-0}
    22f4:	02000000 	andeq	r0, r0, #0, 0
    22f8:	009c0e1c 	addseq	r0, ip, ip, lsl lr
    22fc:	04090000 	streq	r0, [r9], #-0
    2300:	00000081 	andeq	r0, r0, r1, lsl #1
    2304:	00002506 	andeq	r2, r0, r6, lsl #10
    2308:	0000b100 	andeq	fp, r0, r0, lsl #2
    230c:	00b10700 	adcseq	r0, r1, r0, lsl #14
    2310:	09000000 	stmdbeq	r0, {}	; <UNPREDICTABLE>
    2314:	0000be04 	andeq	fp, r0, r4, lsl #28
    2318:	08010400 	stmdaeq	r1, {sl}
    231c:	000000d2 	ldrdeq	r0, [r0], -r2
    2320:	0000b705 	andeq	fp, r0, r5, lsl #14
    2324:	072a0800 	streq	r0, [sl, -r0, lsl #16]!
    2328:	21020000 	mrscs	r0, (UNDEF: 2)
    232c:	0000cf0e 	andeq	ip, r0, lr, lsl #30
    2330:	a2040900 	andge	r0, r4, #0, 18
    2334:	0a000000 	beq	233c <__code_start__-0x5cc4>
    2338:	000002ed 	andeq	r0, r0, sp, ror #5
    233c:	c7070601 	strgt	r0, [r7, -r1, lsl #12]
    2340:	f8000001 			; <UNDEFINED> instruction: 0xf8000001
    2344:	6000008e 	andvs	r0, r0, lr, lsl #1
    2348:	01000000 	mrseq	r0, (UNDEF: 0)
    234c:	0001c79c 	muleq	r1, ip, r7
    2350:	73640b00 	cmnvc	r4, #0, 22
    2354:	06010074 			; <UNDEFINED> instruction: 0x06010074
    2358:	0001c714 	andeq	ip, r1, r4, lsl r7
    235c:	0b500100 	bleq	1402764 <__bss_end__+0x13f7804>
    2360:	00637273 	rsbeq	r7, r3, r3, ror r2
    2364:	c9250601 	stmdbgt	r5!, {r0, r9, sl}
    2368:	01000001 	tsteq	r0, r1
    236c:	03d80c51 	bicseq	r0, r8, #20736	; 0x5100
    2370:	06010000 	streq	r0, [r1], -r0
    2374:	00002c31 	andeq	r2, r0, r1, lsr ip
    2378:	000d8100 	andeq	r8, sp, r0, lsl #2
    237c:	000d7b00 	andeq	r7, sp, r0, lsl #22
    2380:	00930d00 	addseq	r0, r3, r0, lsl #26
    2384:	01e00000 	mvneq	r0, r0
    2388:	02ed0000 	rsceq	r0, sp, #0, 0
    238c:	100e0000 	andne	r0, lr, r0
    2390:	2000008f 	andcs	r0, r0, pc, lsl #1
    2394:	8c000000 	stchi	0, cr0, [r0], {-0}
    2398:	0f000001 	svceq	0x00000001
    239c:	0d01006e 	stceq	0, cr0, [r1, #-440]	; 0xfffffe48
    23a0:	00003812 	andeq	r3, r0, r2, lsl r8
    23a4:	000daf00 	andeq	sl, sp, r0, lsl #30
    23a8:	000dad00 	andeq	sl, sp, r0, lsl #26
    23ac:	00640f00 	rsbeq	r0, r4, r0, lsl #30
    23b0:	e5130e01 	ldr	r0, [r3, #-3585]	; 0xfffff1ff
    23b4:	c4000001 	strgt	r0, [r0], #-1
    23b8:	c200000d 	andgt	r0, r0, #13, 0
    23bc:	0f00000d 	svceq	0x0000000d
    23c0:	0f010073 	svceq	0x00010073
    23c4:	0001eb19 	andeq	lr, r1, r9, lsl fp
    23c8:	000dd900 	andeq	sp, sp, r0, lsl #18
    23cc:	000dd700 	andeq	sp, sp, r0, lsl #14
    23d0:	8f141000 	svchi	0x00141000
    23d4:	001c0000 	andseq	r0, ip, r0
    23d8:	690f0000 	stmdbvs	pc, {}	; <UNPREDICTABLE>
    23dc:	16110100 	ldrne	r0, [r1], -r0, lsl #2
    23e0:	00000038 	andeq	r0, r0, r8, lsr r0
    23e4:	00000df0 	strdeq	r0, [r0], -r0	; <UNPREDICTABLE>
    23e8:	00000dec 	andeq	r0, r0, ip, ror #27
    23ec:	30100000 	andscc	r0, r0, r0
    23f0:	1800008f 	stmdane	r0, {r0, r1, r2, r3, r7}
    23f4:	11000000 	mrsne	r0, (UNDEF: 0)
    23f8:	14010064 	strne	r0, [r1], #-100	; 0xffffff9c
    23fc:	0001f118 	andeq	pc, r1, r8, lsl r1	; <UNPREDICTABLE>
    2400:	00731100 	rsbseq	r1, r3, r0, lsl #2
    2404:	f71e1501 			; <UNDEFINED> instruction: 0xf71e1501
    2408:	10000001 	andne	r0, r0, r1
    240c:	00008f30 	andeq	r8, r0, r0, lsr pc
    2410:	00000018 	andeq	r0, r0, r8, lsl r0
    2414:	0100690f 	tsteq	r0, pc, lsl #18
    2418:	00381616 	eorseq	r1, r8, r6, lsl r6
    241c:	0e110000 	cdpeq	0, 1, cr0, cr1, cr0, {0}
    2420:	0e0f0000 	cdpeq	0, 0, cr0, cr15, cr0, {0}
    2424:	00000000 	andeq	r0, r0, r0
    2428:	09041200 	stmdbeq	r4, {r9, ip}
    242c:	0001cf04 	andeq	ip, r1, r4, lsl #30
    2430:	be141300 	cdplt	3, 1, cr1, cr4, cr0, {0}
    2434:	e0000000 	and	r0, r0, r0
    2438:	15000001 	strne	r0, [r0, #-1]
    243c:	00000038 	andeq	r0, r0, r8, lsr r0
    2440:	d0050006 	andle	r0, r5, r6
    2444:	09000001 	stmdbeq	r0, {r0}
    2448:	00003804 	andeq	r3, r0, r4, lsl #16
    244c:	3f040900 	svccc	0x00040900
    2450:	09000000 	stmdbeq	r0, {}	; <UNPREDICTABLE>
    2454:	00006004 	andeq	r6, r0, r4
    2458:	67040900 	strvs	r0, [r4, -r0, lsl #18]
    245c:	00000000 	andeq	r0, r0, r0
    2460:	0000013a 	andeq	r0, r0, sl, lsr r1
    2464:	0b2e0004 	bleq	b8247c <__bss_end__+0xb7751c>
    2468:	01040000 	mrseq	r0, (UNDEF: 4)
    246c:	0000059b 	muleq	r0, fp, r5
    2470:	0006d40c 	andeq	sp, r6, ip, lsl #8
    2474:	00066c00 	andeq	r6, r6, r0, lsl #24
    2478:	008f5800 	addeq	r5, pc, r0, lsl #16
    247c:	00001800 	andeq	r1, r0, r0, lsl #16
    2480:	0012ea00 	andseq	lr, r2, r0, lsl #20
    2484:	05040200 	streq	r0, [r4, #-512]	; 0xfffffe00
    2488:	00746e69 	rsbseq	r6, r4, r9, ror #28
    248c:	00066503 	andeq	r6, r6, r3, lsl #10
    2490:	17d10300 	ldrbne	r0, [r1, r0, lsl #6]
    2494:	00000038 	andeq	r0, r0, r8, lsr r0
    2498:	01070404 	tsteq	r7, r4, lsl #8
    249c:	04000001 	streq	r0, [r0], #-1
    24a0:	00cb0601 	sbceq	r0, fp, r1, lsl #12
    24a4:	02040000 	andeq	r0, r4, #0, 0
    24a8:	00002205 	andeq	r2, r0, r5, lsl #4
    24ac:	05040400 	streq	r0, [r4, #-1024]	; 0xfffffc00
    24b0:	0000006b 	andeq	r0, r0, fp, rrx
    24b4:	66050804 	strvs	r0, [r5], -r4, lsl #16
    24b8:	04000000 	streq	r0, [r0], #-0
    24bc:	00c90801 	sbceq	r0, r9, r1, lsl #16
    24c0:	02040000 	andeq	r0, r4, #0, 0
    24c4:	00014307 	andeq	r4, r1, r7, lsl #6
    24c8:	07040400 	streq	r0, [r4, -r0, lsl #8]
    24cc:	000000fc 	strdeq	r0, [r0], -ip
    24d0:	f7070804 			; <UNDEFINED> instruction: 0xf7070804
    24d4:	05000000 	streq	r0, [r0, #-0]
    24d8:	00000025 	andeq	r0, r0, r5, lsr #32
    24dc:	00000086 	andeq	r0, r0, r6, lsl #1
    24e0:	00002506 	andeq	r2, r0, r6, lsl #10
    24e4:	2c070000 	stccs	0, cr0, [r7], {-0}
    24e8:	02000000 	andeq	r0, r0, #0, 0
    24ec:	00920e1c 	addseq	r0, r2, ip, lsl lr
    24f0:	04080000 	streq	r0, [r8], #-0
    24f4:	00000077 	andeq	r0, r0, r7, ror r0
    24f8:	00002505 	andeq	r2, r0, r5, lsl #10
    24fc:	0000a700 	andeq	sl, r0, r0, lsl #14
    2500:	00a70600 	adceq	r0, r7, r0, lsl #12
    2504:	08000000 	stmdaeq	r0, {}	; <UNPREDICTABLE>
    2508:	0000b404 	andeq	fp, r0, r4, lsl #8
    250c:	08010400 	stmdaeq	r1, {sl}
    2510:	000000d2 	ldrdeq	r0, [r0], -r2
    2514:	0000ad09 	andeq	sl, r0, r9, lsl #26
    2518:	072a0700 	streq	r0, [sl, -r0, lsl #14]!
    251c:	21020000 	mrscs	r0, (UNDEF: 2)
    2520:	0000c50e 	andeq	ip, r0, lr, lsl #10
    2524:	98040800 	stmdals	r4, {fp}
    2528:	0a000000 	beq	2530 <__code_start__-0x5ad0>
    252c:	0000007f 	andeq	r0, r0, pc, ror r0
    2530:	35070401 	strcc	r0, [r7, #-1025]	; 0xfffffbff
    2534:	58000001 	stmdapl	r0, {r0}
    2538:	1800008f 	stmdane	r0, {r0, r1, r2, r3, r7}
    253c:	01000000 	mrseq	r0, (UNDEF: 0)
    2540:	0001359c 	muleq	r1, ip, r5
    2544:	705f0b00 	subsvc	r0, pc, r0, lsl #22
    2548:	14040100 	strne	r0, [r4], #-256	; 0xffffff00
    254c:	00000135 	andeq	r0, r0, r5, lsr r1
    2550:	630b5001 	movwvs	r5, #45057	; 0xb001
    2554:	1c040100 	stfnes	f0, [r4], {-0}
    2558:	00000025 	andeq	r0, r0, r5, lsr #32
    255c:	6e0c5101 	adfvse	f5, f4, f1
    2560:	26040100 	strcs	r0, [r4], -r0, lsl #2
    2564:	0000002c 	andeq	r0, r0, ip, lsr #32
    2568:	00000e28 	andeq	r0, r0, r8, lsr #28
    256c:	00000e24 	andeq	r0, r0, r4, lsr #28
    2570:	0100700d 	tsteq	r0, sp
    2574:	01370b05 	teqeq	r7, r5, lsl #22
    2578:	0e510000 	cdpeq	0, 5, cr0, cr1, cr0, {0}
    257c:	0e490000 	cdpeq	0, 4, cr0, cr9, cr0, {0}
    2580:	650d0000 	strvs	r0, [sp, #-0]
    2584:	14050100 	strne	r0, [r5], #-256	; 0xffffff00
    2588:	00000137 	andeq	r0, r0, r7, lsr r1
    258c:	00000e89 	andeq	r0, r0, r9, lsl #29
    2590:	00000e87 	andeq	r0, r0, r7, lsl #29
    2594:	08040e00 	stmdaeq	r4, {r9, sl, fp}
    2598:	0000ad04 	andeq	sl, r0, r4, lsl #26
    259c:	019d0000 	orrseq	r0, sp, r0
    25a0:	00040000 	andeq	r0, r4, r0
    25a4:	00000bfa 	strdeq	r0, [r0], -sl
    25a8:	059b0104 	ldreq	r0, [fp, #260]	; 0x104
    25ac:	110c0000 	mrsne	r0, (UNDEF: 12)
    25b0:	6c000007 	stcvs	0, cr0, [r0], {7}
    25b4:	70000006 	andvc	r0, r0, r6
    25b8:	5800008f 	stmdapl	r0, {r0, r1, r2, r3, r7}
    25bc:	02000000 	andeq	r0, r0, #0, 0
    25c0:	02000014 	andeq	r0, r0, #20, 0
    25c4:	000006f3 	strdeq	r0, [r0], -r3
    25c8:	311b2802 	tstcc	fp, r2, lsl #16
    25cc:	03000000 	movweq	r0, #0
    25d0:	00000702 	andeq	r0, r0, r2, lsl #14
    25d4:	48000404 	stmdami	r0, {r2, sl}
    25d8:	04000000 	streq	r0, [r0], #-0
    25dc:	0000070c 	andeq	r0, r0, ip, lsl #14
    25e0:	00000048 	andeq	r0, r0, r8, asr #32
    25e4:	04050000 	streq	r0, [r5], #-0
    25e8:	00070402 	andeq	r0, r7, r2, lsl #8
    25ec:	18630200 	stmdane	r3!, {r9}^
    25f0:	00000025 	andeq	r0, r0, r5, lsr #32
    25f4:	69050406 	stmdbvs	r5, {r1, r2, sl}
    25f8:	0700746e 	streq	r7, [r0, -lr, ror #8]
    25fc:	01010704 	tsteq	r1, r4, lsl #14
    2600:	01070000 	mrseq	r0, (UNDEF: 7)
    2604:	0000cb06 	andeq	ip, r0, r6, lsl #22
    2608:	05020700 	streq	r0, [r2, #-1792]	; 0xfffff900
    260c:	00000022 	andeq	r0, r0, r2, lsr #32
    2610:	6b050407 	blvs	143634 <__bss_end__+0x1386d4>
    2614:	07000000 	streq	r0, [r0, -r0]
    2618:	00660508 	rsbeq	r0, r6, r8, lsl #10
    261c:	01070000 	mrseq	r0, (UNDEF: 7)
    2620:	0000c908 	andeq	ip, r0, r8, lsl #18
    2624:	07020700 	streq	r0, [r2, -r0, lsl #14]
    2628:	00000143 	andeq	r0, r0, r3, asr #2
    262c:	fc070407 	stc2	4, cr0, [r7], {7}
    2630:	07000000 	streq	r0, [r0, -r0]
    2634:	00f70708 	rscseq	r0, r7, r8, lsl #14
    2638:	56080000 	strpl	r0, [r8], -r0
    263c:	ab000000 	blge	2644 <__code_start__-0x59bc>
    2640:	09000000 	stmdbeq	r0, {}	; <UNPREDICTABLE>
    2644:	00000056 	andeq	r0, r0, r6, asr r0
    2648:	002c0a00 	eoreq	r0, ip, r0, lsl #20
    264c:	1c030000 	stcne	0, cr0, [r3], {-0}
    2650:	0000b70e 	andeq	fp, r0, lr, lsl #14
    2654:	9c040b00 			; <UNDEFINED> instruction: 0x9c040b00
    2658:	08000000 	stmdaeq	r0, {}	; <UNPREDICTABLE>
    265c:	00000056 	andeq	r0, r0, r6, asr r0
    2660:	000000cc 	andeq	r0, r0, ip, asr #1
    2664:	0000cc09 	andeq	ip, r0, r9, lsl #24
    2668:	040b0000 	streq	r0, [fp], #-0
    266c:	000000d9 	ldrdeq	r0, [r0], -r9
    2670:	d2080107 	andle	r0, r8, #-1073741823	; 0xc0000001
    2674:	0c000000 	stceq	0, cr0, [r0], {-0}
    2678:	000000d2 	ldrdeq	r0, [r0], -r2
    267c:	00072a0a 	andeq	r2, r7, sl, lsl #20
    2680:	0e210300 	cdpeq	3, 2, cr0, cr1, cr0, {0}
    2684:	000000ea 	andeq	r0, r0, sl, ror #1
    2688:	00bd040b 	adcseq	r0, sp, fp, lsl #8
    268c:	ec0d0000 	stc	0, cr0, [sp], {-0}
    2690:	01000006 	tsteq	r0, r6
    2694:	00560506 	subseq	r0, r6, r6, lsl #10
    2698:	8f700000 	svchi	0x00700000
    269c:	00580000 	subseq	r0, r8, r0
    26a0:	9c010000 	stcls	0, cr0, [r1], {-0}
    26a4:	00000183 	andeq	r0, r0, r3, lsl #3
    26a8:	746d660e 	strbtvc	r6, [sp], #-1550	; 0xfffff9f2
    26ac:	18060100 	stmdane	r6, {r8}
    26b0:	000000cc 	andeq	r0, r0, ip, asr #1
    26b4:	0f709102 	svceq	0x00709102
    26b8:	66756210 			; <UNDEFINED> instruction: 0x66756210
    26bc:	11080100 	mrsne	r0, (UNDEF: 24)
    26c0:	00000183 	andeq	r0, r0, r3, lsl #3
    26c4:	ab580305 	blge	16032e0 <__bss_end__+0x15f8380>
    26c8:	e4110000 	ldr	r0, [r1], #-0
    26cc:	01000006 	tsteq	r0, r6
    26d0:	004a0d09 	subeq	r0, sl, r9, lsl #26
    26d4:	91020000 	mrsls	r0, (UNDEF: 2)
    26d8:	7a73125c 	bvc	1cc7050 <__bss_end__+0x1cbc0f0>
    26dc:	0d0c0100 	stfeqs	f0, [ip, #-0]
    26e0:	00000056 	andeq	r0, r0, r6, asr r0
    26e4:	00000ea2 	andeq	r0, r0, r2, lsr #29
    26e8:	00000e9c 	muleq	r0, ip, lr
    26ec:	008f9813 	addeq	r9, pc, r3, lsl r8	; <UNPREDICTABLE>
    26f0:	00019400 	andeq	r9, r1, r0, lsl #8
    26f4:	00017600 	andeq	r7, r1, r0, lsl #12
    26f8:	50011400 	andpl	r1, r1, r0, lsl #8
    26fc:	14007502 	strne	r7, [r0], #-1282	; 0xfffffafe
    2700:	0a035101 	beq	d6b0c <__bss_end__+0xcbbac>
    2704:	01140400 	tsteq	r4, r0, lsl #8
    2708:	48910352 	ldmmi	r1, {r1, r4, r6, r8, r9}
    270c:	53011406 	movwpl	r1, #5126	; 0x1406
    2710:	004c9102 	subeq	r9, ip, r2, lsl #2
    2714:	008fac15 	addeq	sl, pc, r5, lsl ip	; <UNPREDICTABLE>
    2718:	50011400 	andpl	r1, r1, r0, lsl #8
    271c:	00007502 	andeq	r7, r0, r2, lsl #10
    2720:	00d21600 	sbcseq	r1, r2, r0, lsl #12
    2724:	01940000 	orrseq	r0, r4, r0
    2728:	5d170000 	ldcpl	0, cr0, [r7, #-0]
    272c:	ff000000 			; <UNDEFINED> instruction: 0xff000000
    2730:	e9180003 	ldmdb	r8, {r0, r1}
    2734:	e9000006 	stmdb	r0, {r1, r2}
    2738:	05000006 	streq	r0, [r0, #-6]
    273c:	f3000502 	vrshl.u8	d0, d2, d0
    2740:	04000000 	streq	r0, [r0], #-0
    2744:	000d3c00 	andeq	r3, sp, r0, lsl #24
    2748:	9b010400 	blls	43750 <__bss_end__+0x387f0>
    274c:	0c000005 	stceq	0, cr0, [r0], {5}
    2750:	0000072f 	andeq	r0, r0, pc, lsr #14
    2754:	0000066c 	andeq	r0, r0, ip, ror #12
    2758:	00008fc8 	andeq	r8, r0, r8, asr #31
    275c:	00000034 	andeq	r0, r0, r4, lsr r0
    2760:	00001539 	andeq	r1, r0, r9, lsr r5
    2764:	69050402 	stmdbvs	r5, {r1, sl}
    2768:	0300746e 	movweq	r7, #1134	; 0x46e
    276c:	01010704 	tsteq	r1, r4, lsl #14
    2770:	01030000 	mrseq	r0, (UNDEF: 3)
    2774:	0000cb06 	andeq	ip, r0, r6, lsl #22
    2778:	05020300 	streq	r0, [r2, #-768]	; 0xfffffd00
    277c:	00000022 	andeq	r0, r0, r2, lsr #32
    2780:	6b050403 	blvs	143794 <__bss_end__+0x138834>
    2784:	03000000 	movweq	r0, #0
    2788:	00660508 	rsbeq	r0, r6, r8, lsl #10
    278c:	01030000 	mrseq	r0, (UNDEF: 3)
    2790:	0000c908 	andeq	ip, r0, r8, lsl #18
    2794:	07020300 	streq	r0, [r2, -r0, lsl #6]
    2798:	00000143 	andeq	r0, r0, r3, asr #2
    279c:	fc070403 	stc2	4, cr0, [r7], {3}
    27a0:	03000000 	movweq	r0, #0
    27a4:	00f70708 	rscseq	r0, r7, r8, lsl #14
    27a8:	25040000 	strcs	r0, [r4, #-0]
    27ac:	7a000000 	bvc	27b4 <__code_start__-0x584c>
    27b0:	05000000 	streq	r0, [r0, #-0]
    27b4:	00000025 	andeq	r0, r0, r5, lsr #32
    27b8:	002c0600 	eoreq	r0, ip, r0, lsl #12
    27bc:	1c020000 	stcne	0, cr0, [r2], {-0}
    27c0:	0000860e 	andeq	r8, r0, lr, lsl #12
    27c4:	6b040700 	blvs	1043cc <__bss_end__+0xf946c>
    27c8:	04000000 	streq	r0, [r0], #-0
    27cc:	00000025 	andeq	r0, r0, r5, lsr #32
    27d0:	0000009b 	muleq	r0, fp, r0
    27d4:	00009b05 	andeq	r9, r0, r5, lsl #22
    27d8:	04070000 	streq	r0, [r7], #-0
    27dc:	000000a8 	andeq	r0, r0, r8, lsr #1
    27e0:	d2080103 	andle	r0, r8, #-1073741824	; 0xc0000000
    27e4:	08000000 	stmdaeq	r0, {}	; <UNPREDICTABLE>
    27e8:	000000a1 	andeq	r0, r0, r1, lsr #1
    27ec:	00072a06 	andeq	r2, r7, r6, lsl #20
    27f0:	0e210200 	cdpeq	2, 2, cr0, cr1, cr0, {0}
    27f4:	000000b9 	strheq	r0, [r0], -r9
    27f8:	008c0407 	addeq	r0, ip, r7, lsl #8
    27fc:	ad090000 	stcge	0, cr0, [r9, #-0]
    2800:	01000000 	mrseq	r0, (UNDEF: 0)
    2804:	0305070c 	movweq	r0, #22284	; 0x570c
    2808:	0000ab18 	andeq	sl, r0, r8, lsl fp
    280c:	0007210a 	andeq	r2, r7, sl, lsl #2
    2810:	05040100 	streq	r0, [r4, #-256]	; 0xffffff00
    2814:	00000025 	andeq	r0, r0, r5, lsr #32
    2818:	00008fc8 	andeq	r8, r0, r8, asr #31
    281c:	00000034 	andeq	r0, r0, r4, lsr r0
    2820:	700b9c01 	andvc	r9, fp, r1, lsl #24
    2824:	1f040100 	svcne	0x00040100
    2828:	0000009b 	muleq	r0, fp, r0
    282c:	00000ecf 	andeq	r0, r0, pc, asr #29
    2830:	00000ecb 	andeq	r0, r0, fp, asr #29
    2834:	0ad70000 	beq	ff5c283c <__bss_end__+0xff5b78dc>
    2838:	00040000 	andeq	r0, r4, r0
    283c:	00000dda 	ldrdeq	r0, [r0], -sl
    2840:	059b0104 	ldreq	r0, [fp, #260]	; 0x104
    2844:	4e0c0000 	cdpmi	0, 0, cr0, cr12, cr0, {0}
    2848:	6c000007 	stcvs	0, cr0, [r0], {7}
    284c:	fc000006 	stc2	0, cr0, [r0], {6}
    2850:	4000008f 	andmi	r0, r0, pc, lsl #1
    2854:	08000007 	stmdaeq	r0, {r0, r1, r2}
    2858:	02000016 	andeq	r0, r0, #22, 0
    285c:	6e690504 	cdpvs	5, 6, cr0, cr9, cr4, {0}
    2860:	04030074 	streq	r0, [r3], #-116	; 0xffffff8c
    2864:	00010107 	andeq	r0, r1, r7, lsl #2
    2868:	06010300 	streq	r0, [r1], -r0, lsl #6
    286c:	000000cb 	andeq	r0, r0, fp, asr #1
    2870:	22050203 	andcs	r0, r5, #805306368	; 0x30000000
    2874:	03000000 	movweq	r0, #0
    2878:	006b0504 	rsbeq	r0, fp, r4, lsl #10
    287c:	08030000 	stmdaeq	r3, {}	; <UNPREDICTABLE>
    2880:	00006605 	andeq	r6, r0, r5, lsl #12
    2884:	08010300 	stmdaeq	r1, {r8, r9}
    2888:	000000c9 	andeq	r0, r0, r9, asr #1
    288c:	43070203 	movwmi	r0, #29187	; 0x7203
    2890:	04000001 	streq	r0, [r0], #-1
    2894:	00000129 	andeq	r0, r0, r9, lsr #2
    2898:	69193402 	ldmdbvs	r9, {r1, sl, ip, sp}
    289c:	03000000 	movweq	r0, #0
    28a0:	00fc0704 	rscseq	r0, ip, r4, lsl #14
    28a4:	45040000 	strmi	r0, [r4, #-0]
    28a8:	02000007 	andeq	r0, r0, #7, 0
    28ac:	007c1937 	rsbseq	r1, ip, r7, lsr r9
    28b0:	08030000 	stmdaeq	r3, {}	; <UNPREDICTABLE>
    28b4:	0000f707 	andeq	pc, r0, r7, lsl #14
    28b8:	00250500 	eoreq	r0, r5, r0, lsl #10
    28bc:	00920000 	addseq	r0, r2, r0
    28c0:	25060000 	strcs	r0, [r6, #-0]
    28c4:	00000000 	andeq	r0, r0, r0
    28c8:	00002c07 	andeq	r2, r0, r7, lsl #24
    28cc:	0e1c0300 	cdpeq	3, 1, cr0, cr12, cr0, {0}
    28d0:	0000009e 	muleq	r0, lr, r0
    28d4:	00830408 	addeq	r0, r3, r8, lsl #8
    28d8:	25050000 	strcs	r0, [r5, #-0]
    28dc:	b3000000 	movwlt	r0, #0
    28e0:	06000000 	streq	r0, [r0], -r0
    28e4:	000000b3 	strheq	r0, [r0], -r3
    28e8:	c0040800 	andgt	r0, r4, r0, lsl #16
    28ec:	03000000 	movweq	r0, #0
    28f0:	00d20801 	sbcseq	r0, r2, r1, lsl #16
    28f4:	b9090000 	stmdblt	r9, {}	; <UNPREDICTABLE>
    28f8:	07000000 	streq	r0, [r0, -r0]
    28fc:	0000072a 	andeq	r0, r0, sl, lsr #14
    2900:	d10e2103 	tstle	lr, r3, lsl #2
    2904:	08000000 	stmdaeq	r0, {}	; <UNPREDICTABLE>
    2908:	0000a404 	andeq	sl, r0, r4, lsl #8
    290c:	07610700 	strbeq	r0, [r1, -r0, lsl #14]!
    2910:	0b040000 	bleq	102918 <__bss_end__+0xf79b8>
    2914:	0000b90d 	andeq	fp, r0, sp, lsl #18
    2918:	07b30700 	ldreq	r0, [r3, r0, lsl #14]!
    291c:	0c040000 	stceq	0, cr0, [r4], {-0}
    2920:	0000b90d 	andeq	fp, r0, sp, lsl #18
    2924:	04320700 	ldrteq	r0, [r2], #-1792	; 0xfffff900
    2928:	0d040000 	stceq	0, cr0, [r4, #-0]
    292c:	0000b90d 	andeq	fp, r0, sp, lsl #18
    2930:	04e60700 	strbteq	r0, [r6], #1792	; 0x700
    2934:	0e040000 	cdpeq	0, 0, cr0, cr4, cr0, {0}
    2938:	0000b90d 	andeq	fp, r0, sp, lsl #18
    293c:	051c0700 	ldreq	r0, [ip, #-1792]	; 0xfffff900
    2940:	0f040000 	svceq	0x00040000
    2944:	0000b90d 	andeq	fp, r0, sp, lsl #18
    2948:	048e0700 	streq	r0, [lr], #1792	; 0x700
    294c:	10040000 	andne	r0, r4, r0
    2950:	0000b90d 	andeq	fp, r0, sp, lsl #18
    2954:	07e30700 	strbeq	r0, [r3, r0, lsl #14]!
    2958:	11040000 	mrsne	r0, (UNDEF: 4)
    295c:	0000b90d 	andeq	fp, r0, sp, lsl #18
    2960:	077e0700 	ldrbeq	r0, [lr, -r0, lsl #14]!
    2964:	12040000 	andne	r0, r4, #0, 0
    2968:	0000b90d 	andeq	fp, r0, sp, lsl #18
    296c:	06f30400 	ldrbteq	r0, [r3], r0, lsl #8
    2970:	28050000 	stmdacs	r5, {}	; <UNPREDICTABLE>
    2974:	0001431b 	andeq	r4, r1, fp, lsl r3
    2978:	07020a00 	streq	r0, [r2, -r0, lsl #20]
    297c:	06040000 	streq	r0, [r4], -r0
    2980:	00015a00 	andeq	r5, r1, r0, lsl #20
    2984:	070c0b00 	streq	r0, [ip, -r0, lsl #22]
    2988:	015a0000 	cmpeq	sl, r0
    298c:	00000000 	andeq	r0, r0, r0
    2990:	0404040c 	streq	r0, [r4], #-1036	; 0xfffffbf4
    2994:	05000007 	streq	r0, [r0, #-7]
    2998:	01371863 	teqeq	r7, r3, ror #16
    299c:	e90d0000 	stmdb	sp, {}	; <UNPREDICTABLE>
    29a0:	01000006 	tsteq	r0, r6
    29a4:	00250581 	eoreq	r0, r5, r1, lsl #11
    29a8:	92840000 	addls	r0, r4, #0, 0
    29ac:	04b80000 	ldrteq	r0, [r8], #0
    29b0:	9c010000 	stcls	0, cr0, [r1], {-0}
    29b4:	00000717 	andeq	r0, r0, r7, lsl r7
    29b8:	6675620e 	ldrbtvs	r6, [r5], -lr, lsl #4
    29bc:	15810100 	strne	r0, [r1, #256]	; 0x100
    29c0:	00000717 	andeq	r0, r0, r7, lsl r7
    29c4:	00000ef3 	strdeq	r0, [r0], -r3
    29c8:	00000eed 	andeq	r0, r0, sp, ror #29
    29cc:	01006e0e 	tsteq	r0, lr, lsl #28
    29d0:	00251e81 	eoreq	r1, r5, r1, lsl #29
    29d4:	0f250000 	svceq	0x00250000
    29d8:	0f1f0000 	svceq	0x001f0000
    29dc:	660e0000 	strvs	r0, [lr], -r0
    29e0:	0100746d 	tsteq	r0, sp, ror #8
    29e4:	00b32d81 	adcseq	r2, r3, r1, lsl #27
    29e8:	0f5f0000 	svceq	0x005f0000
    29ec:	0f530000 	svceq	0x00530000
    29f0:	e40f0000 	str	r0, [pc], #-0	; 29f8 <__code_start__-0x5608>
    29f4:	01000006 	tsteq	r0, r6
    29f8:	015c3a81 	cmpeq	ip, r1, lsl #21
    29fc:	91030000 	mrsls	r0, (UNDEF: 3)
    2a00:	70107dd4 			; <UNDEFINED> instruction: 0x70107dd4
    2a04:	08820100 	stmeq	r2, {r8}
    2a08:	00000717 	andeq	r0, r0, r7, lsl r7
    2a0c:	00000fbd 			; <UNDEFINED> instruction: 0x00000fbd
    2a10:	00000fa9 	andeq	r0, r0, r9, lsr #31
    2a14:	01006510 	tsteq	r0, r0, lsl r5
    2a18:	07171282 	ldreq	r1, [r7, -r2, lsl #5]
    2a1c:	103f0000 	eorsne	r0, pc, r0
    2a20:	103b0000 	eorsne	r0, fp, r0
    2a24:	78100000 	ldmdavc	r0, {}	; <UNPREDICTABLE>
    2a28:	83010030 	movwhi	r0, #4144	; 0x1030
    2a2c:	00005d0e 	andeq	r5, r0, lr, lsl #26
    2a30:	00106c00 	andseq	r6, r0, r0, lsl #24
    2a34:	00106600 	andseq	r6, r0, r0, lsl #12
    2a38:	31781000 	cmncc	r8, r0
    2a3c:	11830100 	orrne	r0, r3, r0, lsl #2
    2a40:	0000005d 	andeq	r0, r0, sp, asr r0
    2a44:	00001099 	muleq	r0, r9, r0
    2a48:	00001095 	muleq	r0, r5, r0
    2a4c:	00079c11 	andeq	r9, r7, r1, lsl ip
    2a50:	11860100 	orrne	r0, r6, r0, lsl #2
    2a54:	000000b3 	strheq	r0, [r0], -r3
    2a58:	000010bb 	strheq	r1, [r0], -fp
    2a5c:	000010b7 	strheq	r1, [r0], -r7
    2a60:	00009312 	andeq	r9, r0, r2, lsl r3
    2a64:	00072d00 	andeq	r2, r7, r0, lsl #26
    2a68:	00030500 	andeq	r0, r3, r0, lsl #10
    2a6c:	130000a9 	movwne	r0, #169	; 0xa9
    2a70:	000092ec 	andeq	r9, r0, ip, ror #5
    2a74:	00000400 	andeq	r0, r0, r0, lsl #8
    2a78:	01007310 	tsteq	r0, r0, lsl r3
    2a7c:	07170a91 			; <UNDEFINED> instruction: 0x07170a91
    2a80:	10f10000 	rscsne	r0, r1, r0
    2a84:	10db0000 	sbcsne	r0, fp, r0
    2a88:	6e140000 	cdpvs	0, 1, cr0, cr4, cr0, {0}
    2a8c:	01006d75 	tsteq	r0, r5, ror sp
    2a90:	07320d91 			; <UNDEFINED> instruction: 0x07320d91
    2a94:	91030000 	mrsls	r0, (UNDEF: 3)
    2a98:	f0157dd8 			; <UNDEFINED> instruction: 0xf0157dd8
    2a9c:	01000007 	tsteq	r0, r7
    2aa0:	07321791 			; <UNDEFINED> instruction: 0x07321791
    2aa4:	91030000 	mrsls	r0, (UNDEF: 3)
    2aa8:	70117ed8 			; <UNDEFINED> instruction: 0x70117ed8
    2aac:	01000007 	tsteq	r0, r7
    2ab0:	002c0d92 	mlaeq	ip, r2, sp, r0
    2ab4:	11780000 	cmnne	r8, r0
    2ab8:	11720000 	cmnne	r2, r0
    2abc:	b4160000 	ldrlt	r0, [r6], #-0
    2ac0:	a4000093 	strge	r0, [r0], #-147	; 0xffffff6d
    2ac4:	39000001 	stmdbcc	r0, {r0}
    2ac8:	10000005 	andne	r0, r0, r5
    2acc:	01007974 	tsteq	r0, r4, ror r9
    2ad0:	00b31d9e 	umlalseq	r1, r3, lr, sp
    2ad4:	11ac0000 			; <UNDEFINED> instruction: 0x11ac0000
    2ad8:	11a20000 			; <UNDEFINED> instruction: 0x11a20000
    2adc:	78170000 	ldmdavc	r7, {}	; <UNPREDICTABLE>
    2ae0:	a2010078 	andge	r0, r1, #120, 0	; 0x78
    2ae4:	0000701a 	andeq	r7, r0, sl, lsl r0
    2ae8:	93c41800 	bicls	r1, r4, #0, 16
    2aec:	0a920000 	beq	fe482af4 <__bss_end__+0xfe477b94>
    2af0:	02d50000 	sbcseq	r0, r5, #0, 0
    2af4:	01190000 	tsteq	r9, r0
    2af8:	00760250 	rsbseq	r0, r6, r0, asr r2
    2afc:	05510119 	ldrbeq	r0, [r1, #-281]	; 0xfffffee7
    2b00:	00a7f403 	adceq	pc, r7, r3, lsl #8
    2b04:	52011900 	andpl	r1, r1, #0, 18
    2b08:	18003301 	stmdane	r0, {r0, r8, r9, ip, sp}
    2b0c:	000093dc 	ldrdeq	r9, [r0], -ip
    2b10:	00000a92 	muleq	r0, r2, sl
    2b14:	000002f7 	strdeq	r0, [r0], -r7
    2b18:	02500119 	subseq	r0, r0, #1073741830	; 0x40000006
    2b1c:	01190076 	tsteq	r9, r6, ror r0
    2b20:	f8030551 			; <UNDEFINED> instruction: 0xf8030551
    2b24:	190000a7 	stmdbne	r0, {r0, r1, r2, r5, r7}
    2b28:	33015201 	movwcc	r5, #4609	; 0x1201
    2b2c:	94101800 	ldrls	r1, [r0], #-2048	; 0xfffff800
    2b30:	0a9e0000 	beq	fe782b38 <__bss_end__+0xfe777bd8>
    2b34:	03140000 	tsteq	r4, #0, 0
    2b38:	01190000 	tsteq	r9, r0
    2b3c:	fc030550 	stc2	5, cr0, [r3], {80}	; 0x50
    2b40:	190000a7 	stmdbne	r0, {r0, r1, r2, r5, r7}
    2b44:	77025101 	strvc	r5, [r2, -r1, lsl #2]
    2b48:	1c180000 	ldcne	0, cr0, [r8], {-0}
    2b4c:	9e000094 	mcrls	0, 0, r0, cr0, cr4, {4}
    2b50:	3100000a 	tstcc	r0, sl
    2b54:	19000003 	stmdbne	r0, {r0, r1}
    2b58:	03055001 	movweq	r5, #20481	; 0x5001
    2b5c:	0000a804 	andeq	sl, r0, r4, lsl #16
    2b60:	02510119 	subseq	r0, r1, #1073741830	; 0x40000006
    2b64:	1800007a 	stmdane	r0, {r1, r3, r4, r5, r6}
    2b68:	0000942c 	andeq	r9, r0, ip, lsr #8
    2b6c:	00000a92 	muleq	r0, r2, sl
    2b70:	00000353 	andeq	r0, r0, r3, asr r3
    2b74:	02500119 	subseq	r0, r0, #1073741830	; 0x40000006
    2b78:	01190076 	tsteq	r9, r6, ror r0
    2b7c:	f4030551 	vst3.16	{d0,d2,d4}, [r3 :64], r1
    2b80:	190000a7 	stmdbne	r0, {r0, r1, r2, r5, r7}
    2b84:	33015201 	movwcc	r5, #4609	; 0x1201
    2b88:	94441800 	strbls	r1, [r4], #-2048	; 0xfffff800
    2b8c:	0a920000 	beq	fe482b94 <__bss_end__+0xfe477c34>
    2b90:	03750000 	cmneq	r5, #0, 0
    2b94:	01190000 	tsteq	r9, r0
    2b98:	00760250 	rsbseq	r0, r6, r0, asr r2
    2b9c:	05510119 	ldrbeq	r0, [r1, #-281]	; 0xfffffee7
    2ba0:	00a7f803 	adceq	pc, r7, r3, lsl #16
    2ba4:	52011900 	andpl	r1, r1, #0, 18
    2ba8:	18003301 	stmdane	r0, {r0, r8, r9, ip, sp}
    2bac:	0000946c 	andeq	r9, r0, ip, ror #8
    2bb0:	00000742 	andeq	r0, r0, r2, asr #14
    2bb4:	000003a9 	andeq	r0, r0, r9, lsr #7
    2bb8:	01500119 	cmpeq	r0, r9, lsl r1
    2bbc:	5101193a 	tstpl	r1, sl, lsr r9
    2bc0:	7dd09103 	ldfvcp	f1, [r0, #12]
    2bc4:	02520119 	subseq	r0, r2, #1073741830	; 0x40000006
    2bc8:	01198008 	tsteq	r9, r8
    2bcc:	00770253 	rsbseq	r0, r7, r3, asr r2
    2bd0:	007d0219 	rsbseq	r0, sp, r9, lsl r2
    2bd4:	19007502 	stmdbne	r0, {r1, r8, sl, ip, sp, lr}
    2bd8:	02047d02 	andeq	r7, r4, #128	; 0x80
    2bdc:	18000076 	stmdane	r0, {r1, r2, r4, r5, r6}
    2be0:	0000948c 	andeq	r9, r0, ip, lsl #9
    2be4:	00000742 	andeq	r0, r0, r2, asr #14
    2be8:	000003dd 	ldrdeq	r0, [r0], -sp
    2bec:	01500119 	cmpeq	r0, r9, lsl r1
    2bf0:	5101193a 	tstpl	r1, sl, lsr r9
    2bf4:	7ed09103 	atnvcs	f1, f3
    2bf8:	02520119 	subseq	r0, r2, #1073741830	; 0x40000006
    2bfc:	01198008 	tsteq	r9, r8
    2c00:	007a0253 	rsbseq	r0, sl, r3, asr r2
    2c04:	007d0219 	rsbseq	r0, sp, r9, lsl r2
    2c08:	19007502 	stmdbne	r0, {r1, r8, sl, ip, sp, lr}
    2c0c:	02047d02 	andeq	r7, r4, #128	; 0x80
    2c10:	18000076 	stmdane	r0, {r1, r2, r4, r5, r6}
    2c14:	00009498 	muleq	r0, r8, r4
    2c18:	00000aaa 	andeq	r0, r0, sl, lsr #21
    2c1c:	000003fb 	strdeq	r0, [r0], -fp
    2c20:	03500119 	cmpeq	r0, #1073741830	; 0x40000006
    2c24:	197dd091 	ldmdbne	sp!, {r0, r4, r7, ip, lr, pc}^
    2c28:	03055101 	movweq	r5, #20737	; 0x5101
    2c2c:	0000a67c 	andeq	sl, r0, ip, ror r6
    2c30:	94ac1800 	strtls	r1, [ip], #2048	; 0x800
    2c34:	0ab60000 	beq	fed82c3c <__bss_end__+0xfed77cdc>
    2c38:	04170000 	ldreq	r0, [r7], #-0
    2c3c:	01190000 	tsteq	r9, r0
    2c40:	d0910350 	addsle	r0, r1, r0, asr r3
    2c44:	5101197d 	tstpl	r1, sp, ror r9
    2c48:	7ed09103 	atnvcs	f1, f3
    2c4c:	94d01800 	ldrbls	r1, [r0], #2048	; 0x800
    2c50:	0a9e0000 	beq	fe782c58 <__bss_end__+0xfe777cf8>
    2c54:	04500000 	ldrbeq	r0, [r0], #-0
    2c58:	01190000 	tsteq	r9, r0
    2c5c:	8c030550 	cfstr32hi	mvfx0, [r3], {80}	; 0x50
    2c60:	190000a0 	stmdbne	r0, {r5, r7}
    2c64:	03055101 	movweq	r5, #20737	; 0x5101
    2c68:	0000a7a8 	andeq	sl, r0, r8, lsr #15
    2c6c:	05520119 	ldrbeq	r0, [r2, #-281]	; 0xfffffee7
    2c70:	00a90003 	adceq	r0, r9, r3
    2c74:	53011900 	movwpl	r1, #6400	; 0x1900
    2c78:	199f0802 	ldmibne	pc, {r1, fp}	; <UNPREDICTABLE>
    2c7c:	05007d02 	streq	r7, [r0, #-3330]	; 0xfffff2fe
    2c80:	00a80c03 	adceq	r0, r8, r3, lsl #24
    2c84:	d41a0000 	ldrle	r0, [sl], #-0
    2c88:	c2000094 	andgt	r0, r0, #148, 0	; 0x94
    2c8c:	1800000a 	stmdane	r0, {r1, r3}
    2c90:	000094f4 	strdeq	r9, [r0], -r4
    2c94:	00000742 	andeq	r0, r0, r2, asr #14
    2c98:	0000048d 	andeq	r0, r0, sp, lsl #9
    2c9c:	01500119 	cmpeq	r0, r9, lsl r1
    2ca0:	51011940 	tstpl	r1, r0, asr #18
    2ca4:	7dd09103 	ldfvcp	f1, [r0, #12]
    2ca8:	02520119 	subseq	r0, r2, #1073741830	; 0x40000006
    2cac:	01198008 	tsteq	r9, r8
    2cb0:	00770253 	rsbseq	r0, r7, r3, asr r2
    2cb4:	007d0219 	rsbseq	r0, sp, r9, lsl r2
    2cb8:	19007502 	stmdbne	r0, {r1, r8, sl, ip, sp, lr}
    2cbc:	02047d02 	andeq	r7, r4, #128	; 0x80
    2cc0:	18000076 	stmdane	r0, {r1, r2, r4, r5, r6}
    2cc4:	00009514 	andeq	r9, r0, r4, lsl r5
    2cc8:	00000742 	andeq	r0, r0, r2, asr #14
    2ccc:	000004c1 	andeq	r0, r0, r1, asr #9
    2cd0:	01500119 	cmpeq	r0, r9, lsl r1
    2cd4:	51011940 	tstpl	r1, r0, asr #18
    2cd8:	7ed09103 	atnvcs	f1, f3
    2cdc:	02520119 	subseq	r0, r2, #1073741830	; 0x40000006
    2ce0:	01198008 	tsteq	r9, r8
    2ce4:	007a0253 	rsbseq	r0, sl, r3, asr r2
    2ce8:	007d0219 	rsbseq	r0, sp, r9, lsl r2
    2cec:	19007502 	stmdbne	r0, {r1, r8, sl, ip, sp, lr}
    2cf0:	02047d02 	andeq	r7, r4, #128	; 0x80
    2cf4:	18000076 	stmdane	r0, {r1, r2, r4, r5, r6}
    2cf8:	00009520 	andeq	r9, r0, r0, lsr #10
    2cfc:	00000ace 	andeq	r0, r0, lr, asr #21
    2d00:	000004dd 	ldrdeq	r0, [r0], -sp
    2d04:	03500119 	cmpeq	r0, #1073741830	; 0x40000006
    2d08:	197dd091 	ldmdbne	sp!, {r0, r4, r7, ip, lr, pc}^
    2d0c:	91035101 	tstls	r3, r1, lsl #2
    2d10:	18007ed2 	stmdane	r0, {r1, r4, r6, r7, r9, sl, fp, ip, sp, lr}
    2d14:	00009534 	andeq	r9, r0, r4, lsr r5
    2d18:	00000ace 	andeq	r0, r0, lr, asr #21
    2d1c:	000004f9 	strdeq	r0, [r0], -r9
    2d20:	03500119 	cmpeq	r0, #1073741830	; 0x40000006
    2d24:	197dd091 	ldmdbne	sp!, {r0, r4, r7, ip, lr, pc}^
    2d28:	91035101 	tstls	r3, r1, lsl #2
    2d2c:	18007ed0 	stmdane	r0, {r4, r6, r7, r9, sl, fp, ip, sp, lr}
    2d30:	00009554 	andeq	r9, r0, r4, asr r5
    2d34:	00000a9e 	muleq	r0, lr, sl
    2d38:	0000052f 	andeq	r0, r0, pc, lsr #10
    2d3c:	05500119 	ldrbeq	r0, [r0, #-281]	; 0xfffffee7
    2d40:	00a84803 	adceq	r4, r8, r3, lsl #16
    2d44:	51011900 	tstpl	r1, r0, lsl #18
    2d48:	a7a80305 	strge	r0, [r8, r5, lsl #6]!
    2d4c:	01190000 	tsteq	r9, r0
    2d50:	00030552 	andeq	r0, r3, r2, asr r5
    2d54:	190000a9 	stmdbne	r0, {r0, r3, r5, r7}
    2d58:	08025301 	stmdaeq	r2, {r0, r8, r9, ip, lr}
    2d5c:	7d0219b6 	vstrvc.16	s2, [r2, #-364]	; 0xfffffe94	; <UNPREDICTABLE>
    2d60:	00760200 	rsbseq	r0, r6, r0, lsl #4
    2d64:	95581a00 	ldrbls	r1, [r8, #-2560]	; 0xfffff600
    2d68:	0ac20000 	beq	ff082d70 <__bss_end__+0xff077e10>
    2d6c:	18000000 	stmdane	r0, {}	; <UNPREDICTABLE>
    2d70:	00009304 	andeq	r9, r0, r4, lsl #6
    2d74:	000009c0 	andeq	r0, r0, r0, asr #19
    2d78:	0000054d 	andeq	r0, r0, sp, asr #10
    2d7c:	02500119 	subseq	r0, r0, #1073741830	; 0x40000006
    2d80:	18000077 	stmdane	r0, {r0, r1, r2, r4, r5, r6}
    2d84:	000093b0 			; <UNDEFINED> instruction: 0x000093b0
    2d88:	00000a9e 	muleq	r0, lr, sl
    2d8c:	00000586 	andeq	r0, r0, r6, lsl #11
    2d90:	05500119 	ldrbeq	r0, [r0, #-281]	; 0xfffffee7
    2d94:	00a08c03 	adceq	r8, r0, r3, lsl #24
    2d98:	51011900 	tstpl	r1, r0, lsl #18
    2d9c:	a7a80305 	strge	r0, [r8, r5, lsl #6]!
    2da0:	01190000 	tsteq	r9, r0
    2da4:	00030552 	andeq	r0, r3, r2, asr r5
    2da8:	190000a9 	stmdbne	r0, {r0, r3, r5, r7}
    2dac:	08025301 	stmdaeq	r2, {r0, r8, r9, ip, lr}
    2db0:	7d021998 	vstrvc.16	s2, [r2, #-304]	; 0xfffffed0	; <UNPREDICTABLE>
    2db4:	e8030500 	stmda	r3, {r8, sl}
    2db8:	000000a7 	andeq	r0, r0, r7, lsr #1
    2dbc:	0093b41a 	addseq	fp, r3, sl, lsl r4
    2dc0:	000ac200 	andeq	ip, sl, r0, lsl #4
    2dc4:	956c1800 	strbls	r1, [ip, #-2048]!	; 0xfffff800
    2dc8:	0a9e0000 	beq	fe782dd0 <__bss_end__+0xfe777e70>
    2dcc:	05be0000 	ldreq	r0, [lr, #0]!
    2dd0:	01190000 	tsteq	r9, r0
    2dd4:	70030550 	andvc	r0, r3, r0, asr r5
    2dd8:	190000a8 	stmdbne	r0, {r3, r5, r7}
    2ddc:	03055101 	movweq	r5, #20737	; 0x5101
    2de0:	0000a7a8 	andeq	sl, r0, r8, lsr #15
    2de4:	05520119 	ldrbeq	r0, [r2, #-281]	; 0xfffffee7
    2de8:	00a90003 	adceq	r0, r9, r3
    2dec:	53011900 	movwpl	r1, #6400	; 0x1900
    2df0:	00be0802 	adcseq	r0, lr, r2, lsl #16
    2df4:	0095701a 	addseq	r7, r5, sl, lsl r0
    2df8:	000ac200 	andeq	ip, sl, r0, lsl #4
    2dfc:	959c1800 	ldrls	r1, [ip, #2048]	; 0x800
    2e00:	07420000 	strbeq	r0, [r2, -r0]
    2e04:	05f40000 	ldrbeq	r0, [r4, #0]!
    2e08:	01190000 	tsteq	r9, r0
    2e0c:	193a0150 	ldmdbne	sl!, {r4, r6, r8}
    2e10:	91035101 	tstls	r3, r1, lsl #2
    2e14:	01197dd0 			; <UNDEFINED> instruction: 0x01197dd0
    2e18:	80080252 	andhi	r0, r8, r2, asr r2
    2e1c:	007d0219 	rsbseq	r0, sp, r9, lsl r2
    2e20:	19007502 	stmdbne	r0, {r1, r8, sl, ip, sp, lr}
    2e24:	01047d02 	tsteq	r4, r2, lsl #26
    2e28:	d4180031 	ldrle	r0, [r8], #-49	; 0xffffffcf
    2e2c:	42000095 	andmi	r0, r0, #149, 0	; 0x95
    2e30:	21000007 	tstcs	r0, r7
    2e34:	19000006 	stmdbne	r0, {r1, r2}
    2e38:	3a015001 	bcc	56e44 <__bss_end__+0x4bee4>
    2e3c:	03510119 	cmpeq	r1, #1073741830	; 0x40000006
    2e40:	197dd091 	ldmdbne	sp!, {r0, r4, r7, ip, lr, pc}^
    2e44:	08025201 	stmdaeq	r2, {r0, r9, ip, lr}
    2e48:	7d021980 	vstrvc.16	s2, [r2, #-256]	; 0xffffff00	; <UNPREDICTABLE>
    2e4c:	00750200 	rsbseq	r0, r5, r0, lsl #4
    2e50:	047d0219 	ldrbteq	r0, [sp], #-537	; 0xfffffde7
    2e54:	18003001 	stmdane	r0, {r0, ip, sp}
    2e58:	00009608 	andeq	r9, r0, r8, lsl #12
    2e5c:	00000742 	andeq	r0, r0, r2, asr #14
    2e60:	0000064e 	andeq	r0, r0, lr, asr #12
    2e64:	01500119 	cmpeq	r0, r9, lsl r1
    2e68:	51011940 	tstpl	r1, r0, asr #18
    2e6c:	7dd09103 	ldfvcp	f1, [r0, #12]
    2e70:	02520119 	subseq	r0, r2, #1073741830	; 0x40000006
    2e74:	02198008 	andseq	r8, r9, #8, 0
    2e78:	7502007d 	strvc	r0, [r2, #-125]	; 0xffffff83
    2e7c:	7d021900 	vstrvc.16	s2, [r2, #-0]	; <UNPREDICTABLE>
    2e80:	00300104 	eorseq	r0, r0, r4, lsl #2
    2e84:	00963c18 	addseq	r3, r6, r8, lsl ip
    2e88:	00074200 	andeq	r4, r7, r0, lsl #4
    2e8c:	00067b00 	andeq	r7, r6, r0, lsl #22
    2e90:	50011900 	andpl	r1, r1, r0, lsl #18
    2e94:	01193201 	tsteq	r9, r1, lsl #4
    2e98:	d0910351 	addsle	r0, r1, r1, asr r3
    2e9c:	5201197d 	andpl	r1, r1, #2048000	; 0x1f4000
    2ea0:	19800802 	stmibne	r0, {r1, fp}
    2ea4:	02007d02 	andeq	r7, r0, #128	; 0x80
    2ea8:	02190075 	andseq	r0, r9, #117, 0	; 0x75
    2eac:	3001047d 	andcc	r0, r1, sp, ror r4
    2eb0:	96841800 	strls	r1, [r4], r0, lsl #16
    2eb4:	07420000 	strbeq	r0, [r2, -r0]
    2eb8:	06a80000 	strteq	r0, [r8], r0
    2ebc:	01190000 	tsteq	r9, r0
    2ec0:	19380150 	ldmdbne	r8!, {r4, r6, r8}
    2ec4:	91035101 	tstls	r3, r1, lsl #2
    2ec8:	01197dd0 			; <UNDEFINED> instruction: 0x01197dd0
    2ecc:	80080252 	andhi	r0, r8, r2, asr r2
    2ed0:	007d0219 	rsbseq	r0, sp, r9, lsl r2
    2ed4:	19007502 	stmdbne	r0, {r1, r8, sl, ip, sp, lr}
    2ed8:	01047d02 	tsteq	r4, r2, lsl #26
    2edc:	a4180030 	ldrge	r0, [r8], #-48	; 0xffffffd0
    2ee0:	9e000096 	mcrls	0, 0, r0, cr0, cr6, {4}
    2ee4:	cb00000a 	blgt	2f14 <__code_start__-0x50ec>
    2ee8:	19000006 	stmdbne	r0, {r1, r2}
    2eec:	03055001 	movweq	r5, #20481	; 0x5001
    2ef0:	0000a898 	muleq	r0, r8, r8
    2ef4:	02510119 	subseq	r0, r1, #1073741830	; 0x40000006
    2ef8:	0119007a 	tsteq	r9, sl, ror r0
    2efc:	007a0252 	rsbseq	r0, sl, r2, asr r2
    2f00:	96b41b00 	ldrtls	r1, [r4], r0, lsl #22
    2f04:	06dd0000 	ldrbeq	r0, [sp], r0
    2f08:	01190000 	tsteq	r9, r0
    2f0c:	c8910450 	ldmgt	r1, {r4, r6, sl}
    2f10:	1800067d 	stmdane	r0, {r0, r2, r3, r4, r5, r6, r9, sl}
    2f14:	000096c8 	andeq	r9, r0, r8, asr #13
    2f18:	00000a9e 	muleq	r0, lr, sl
    2f1c:	0000070c 	andeq	r0, r0, ip, lsl #14
    2f20:	05500119 	ldrbeq	r0, [r0, #-281]	; 0xfffffee7
    2f24:	00a8c803 	adceq	ip, r8, r3, lsl #16
    2f28:	51011900 	tstpl	r1, r0, lsl #18
    2f2c:	a7a80305 	strge	r0, [r8, r5, lsl #6]!
    2f30:	01190000 	tsteq	r9, r0
    2f34:	00030552 	andeq	r0, r3, r2, asr r5
    2f38:	190000a9 	stmdbne	r0, {r0, r3, r5, r7}
    2f3c:	08025301 	stmdaeq	r2, {r0, r8, r9, ip, lr}
    2f40:	cc1a00e2 	ldcgt	0, cr0, [sl], {226}	; 0xe2
    2f44:	c2000096 	andgt	r0, r0, #150, 0	; 0x96
    2f48:	0000000a 	andeq	r0, r0, sl
    2f4c:	b9040800 	stmdblt	r4, {fp}
    2f50:	1c000000 	stcne	0, cr0, [r0], {-0}
    2f54:	000000c0 	andeq	r0, r0, r0, asr #1
    2f58:	0000072d 	andeq	r0, r0, sp, lsr #14
    2f5c:	00002c1d 	andeq	r2, r0, sp, lsl ip
    2f60:	09000900 	stmdbeq	r0, {r8, fp}
    2f64:	0000071d 	andeq	r0, r0, sp, lsl r7
    2f68:	0000b91c 	andeq	fp, r0, ip, lsl r9
    2f6c:	00074200 	andeq	r4, r7, r0, lsl #4
    2f70:	002c1d00 	eoreq	r1, ip, r0, lsl #26
    2f74:	007f0000 	rsbseq	r0, pc, r0
    2f78:	0007c01e 	andeq	ip, r7, lr, lsl r0
    2f7c:	01490100 	mrseq	r0, (UNDEF: 89)
    2f80:	00000717 	andeq	r0, r0, r7, lsl r7
    2f84:	0000906c 	andeq	r9, r0, ip, rrx
    2f88:	000001b4 			; <UNDEFINED> instruction: 0x000001b4
    2f8c:	08ab9c01 	stmiaeq	fp!, {r0, sl, fp, ip, pc}
    2f90:	7e1f0000 	cdpvc	0, 1, cr0, cr15, cr0, {0}
    2f94:	01000005 	tsteq	r0, r5
    2f98:	002c0f49 	eoreq	r0, ip, r9, asr #30
    2f9c:	11f50000 	mvnsne	r0, r0
    2fa0:	11ef0000 	mvnne	r0, r0
    2fa4:	640e0000 	strvs	r0, [lr], #-0
    2fa8:	01007473 	tsteq	r0, r3, ror r4
    2fac:	07171b49 	ldreq	r1, [r7, -r9, asr #22]
    2fb0:	12330000 	eorsne	r0, r3, #0, 0
    2fb4:	12230000 	eorne	r0, r3, #0, 0
    2fb8:	6e0e0000 	cdpvs	0, 0, cr0, cr14, cr0, {0}
    2fbc:	24490100 	strbcs	r0, [r9], #-256	; 0xffffff00
    2fc0:	00000025 	andeq	r0, r0, r5, lsr #32
    2fc4:	00001297 	muleq	r0, r7, r2
    2fc8:	00001293 	muleq	r0, r3, r2
    2fcc:	6c61760e 	stclvs	6, cr7, [r1], #-56	; 0xffffffc8
    2fd0:	2b490100 	blcs	12433d8 <__bss_end__+0x1238478>
    2fd4:	00000025 	andeq	r0, r0, r5, lsr #32
    2fd8:	000012c1 	andeq	r1, r0, r1, asr #5
    2fdc:	000012b5 			; <UNDEFINED> instruction: 0x000012b5
    2fe0:	0007701f 	andeq	r7, r7, pc, lsl r0
    2fe4:	34490100 	strbcc	r0, [r9], #-256	; 0xffffff00
    2fe8:	00000025 	andeq	r0, r0, r5, lsr #32
    2fec:	00001317 	andeq	r1, r0, r7, lsl r3
    2ff0:	00001311 	andeq	r1, r0, r1, lsl r3
    2ff4:	0007fd0f 	andeq	pc, r7, pc, lsl #26
    2ff8:	3f490100 	svccc	0x00490100
    2ffc:	00000025 	andeq	r0, r0, r5, lsr #32
    3000:	14049102 	strne	r9, [r4], #-258	; 0xfffffefe
    3004:	00667562 	rsbeq	r7, r6, r2, ror #10
    3008:	ab074e01 	blge	1d6814 <__bss_end__+0x1cb8b4>
    300c:	03000008 	movweq	r0, #8
    3010:	107fa891 			; <UNDEFINED> instruction: 0x107fa891
    3014:	4e010070 	mcrmi	0, 0, r0, cr1, cr0, {3}
    3018:	00071711 	andeq	r1, r7, r1, lsl r7
    301c:	00136100 	andseq	r6, r3, r0, lsl #2
    3020:	00134100 	andseq	r4, r3, r0, lsl #2
    3024:	00751000 	rsbseq	r1, r5, r0
    3028:	2c0b4f01 	stccs	15, cr4, [fp], {1}
    302c:	47000000 	strmi	r0, [r0, -r0]
    3030:	33000014 	movwcc	r0, #20
    3034:	12000014 	andne	r0, r0, #20, 0
    3038:	00000093 	muleq	r0, r3, r0
    303c:	000008cb 	andeq	r0, r0, fp, asr #17
    3040:	a8e80305 	stmiage	r8!, {r0, r2, r8, r9}^
    3044:	d8160000 	ldmdale	r6, {}	; <UNPREDICTABLE>
    3048:	78000090 	stmdavc	r0, {r4, r7}
    304c:	32000000 	andcc	r0, r0, #0, 0
    3050:	11000008 	tstne	r0, r8
    3054:	000007ad 	andeq	r0, r0, sp, lsr #15
    3058:	2c0d5401 	cfstrscs	mvf5, [sp], {1}
    305c:	c8000000 	stmdagt	r0, {}	; <UNPREDICTABLE>
    3060:	c0000014 	andgt	r0, r0, r4, lsl r0
    3064:	00000014 	andeq	r0, r0, r4, lsl r0
    3068:	00919018 	addseq	r9, r1, r8, lsl r0
    306c:	00095d00 	andeq	r5, r9, r0, lsl #26
    3070:	00084700 	andeq	r4, r8, r0, lsl #14
    3074:	51011900 	tstpl	r1, r0, lsl #18
    3078:	7fa09103 	svcvc	0x00a09103
    307c:	91a41800 			; <UNDEFINED> instruction: 0x91a41800
    3080:	08d00000 	ldmeq	r0, {}^	; <UNPREDICTABLE>
    3084:	08680000 	stmdaeq	r8!, {}^	; <UNPREDICTABLE>
    3088:	01190000 	tsteq	r9, r0
    308c:	00750250 	rsbseq	r0, r5, r0, asr r2
    3090:	02510119 	subseq	r0, r1, #1073741830	; 0x40000006
    3094:	01190074 	tsteq	r9, r4, ror r0
    3098:	a0910353 	addsge	r0, r1, r3, asr r3
    309c:	fc18007f 	ldc2	0, cr0, [r8], {127}	; 0x7f
    30a0:	9e000091 	mcrls	0, 0, r0, cr0, cr1, {4}
    30a4:	a100000a 	tstge	r0, sl
    30a8:	19000008 	stmdbne	r0, {r3}
    30ac:	03055001 	movweq	r5, #20481	; 0x5001
    30b0:	0000a08c 	andeq	sl, r0, ip, lsl #1
    30b4:	05510119 	ldrbeq	r0, [r1, #-281]	; 0xfffffee7
    30b8:	00a7a803 	adceq	sl, r7, r3, lsl #16
    30bc:	52011900 	andpl	r1, r1, #0, 18
    30c0:	a8e80305 	stmiage	r8!, {r0, r2, r8, r9}^
    30c4:	01190000 	tsteq	r9, r0
    30c8:	79080253 	stmdbvc	r8, {r0, r1, r4, r6, r9}
    30cc:	007d0219 	rsbseq	r0, sp, r9, lsl r2
    30d0:	a67c0305 	ldrbtge	r0, [ip], -r5, lsl #6
    30d4:	1a000000 	bne	30dc <__code_start__-0x4f24>
    30d8:	00009200 	andeq	r9, r0, r0, lsl #4
    30dc:	00000ac2 	andeq	r0, r0, r2, asr #21
    30e0:	00b91c00 	adcseq	r1, r9, r0, lsl #24
    30e4:	08bb0000 	ldmeq	fp!, {}	; <UNPREDICTABLE>
    30e8:	2c1d0000 	ldccs	0, cr0, [sp], {-0}
    30ec:	3f000000 	svccc	0x00000000
    30f0:	00c01c00 	sbceq	r1, r0, r0, lsl #24
    30f4:	08cb0000 	stmiaeq	fp, {}^	; <UNPREDICTABLE>
    30f8:	2c1d0000 	ldccs	0, cr0, [sp], {-0}
    30fc:	04000000 	streq	r0, [r0], #-0
    3100:	08bb0900 	ldmeq	fp!, {r8, fp}
    3104:	cd1e0000 	ldcgt	0, cr0, [lr, #-0]
    3108:	01000007 	tsteq	r0, r7
    310c:	07170e38 			; <UNDEFINED> instruction: 0x07170e38
    3110:	90340000 	eorsls	r0, r4, r0
    3114:	00380000 	eorseq	r0, r8, r0
    3118:	9c010000 	stcls	0, cr0, [r1], {-0}
    311c:	0000095d 	andeq	r0, r0, sp, asr r9
    3120:	7473640e 	ldrbtvc	r6, [r3], #-1038	; 0xfffffbf2
    3124:	1c380100 	ldfnes	f0, [r8], #-0
    3128:	00000717 	andeq	r0, r0, r7, lsl r7
    312c:	00001509 	andeq	r1, r0, r9, lsl #10
    3130:	000014ff 	strdeq	r1, [r0], -pc	; <UNPREDICTABLE>
    3134:	01006e0e 	tsteq	r0, lr, lsl #28
    3138:	00252538 	eoreq	r2, r5, r8, lsr r5
    313c:	15500000 	ldrbne	r0, [r0, #-0]
    3140:	154c0000 	strbne	r0, [ip, #-0]
    3144:	700e0000 	andvc	r0, lr, r0
    3148:	2e380100 	rsfcse	f0, f0, f0
    314c:	00000717 	andeq	r0, r0, r7, lsl r7
    3150:	00001579 	andeq	r1, r0, r9, ror r5
    3154:	00001571 	andeq	r1, r0, r1, ror r5
    3158:	00040b1f 	andeq	r0, r4, pc, lsl fp
    315c:	37380100 	ldrcc	r0, [r8, -r0, lsl #2]!
    3160:	00000717 	andeq	r0, r0, r7, lsl r7
    3164:	000015b3 			; <UNDEFINED> instruction: 0x000015b3
    3168:	000015af 	andeq	r1, r0, pc, lsr #11
    316c:	6e656c10 	mcrvs	12, 3, r6, cr5, cr0, {0}
    3170:	063a0100 	ldrteq	r0, [sl], -r0, lsl #2
    3174:	00000025 	andeq	r0, r0, r5, lsr #32
    3178:	000015d9 	ldrdeq	r1, [r0], -r9
    317c:	000015d1 	ldrdeq	r1, [r0], -r1	; <UNPREDICTABLE>
    3180:	01007310 	tsteq	r0, r0, lsl r3
    3184:	0717083e 			; <UNDEFINED> instruction: 0x0717083e
    3188:	16270000 	strtne	r0, [r7], -r0
    318c:	16250000 	strtne	r0, [r5], -r0
    3190:	20000000 	andcs	r0, r0, r0
    3194:	00646170 	rsbeq	r6, r4, r0, ror r1
    3198:	170e2e01 	strne	r2, [lr, -r1, lsl #28]
    319c:	10000007 	andne	r0, r0, r7
    31a0:	24000090 	strcs	r0, [r0], #-144	; 0xffffff70
    31a4:	01000000 	mrseq	r0, (UNDEF: 0)
    31a8:	0009c09c 	muleq	r9, ip, r0
    31ac:	00700e00 	rsbseq	r0, r0, r0, lsl #28
    31b0:	17182e01 	ldrne	r2, [r8, -r1, lsl #28]
    31b4:	40000007 	andmi	r0, r0, r7
    31b8:	3a000016 	bcc	3218 <__code_start__-0x4de8>
    31bc:	1f000016 	svcne	0x00000016
    31c0:	0000057e 	andeq	r0, r0, lr, ror r5
    31c4:	17222e01 	strne	r2, [r2, -r1, lsl #28]!
    31c8:	6f000007 	svcvs	0x00000007
    31cc:	6b000016 	blvs	322c <__code_start__-0x4dd4>
    31d0:	0f000016 	svceq	0x00000016
    31d4:	00000770 	andeq	r0, r0, r0, ror r7
    31d8:	252c2e01 	strcs	r2, [ip, #-3585]!	; 0xfffff1ff
    31dc:	01000000 	mrseq	r0, (UNDEF: 0)
    31e0:	656c1052 	strbvs	r1, [ip, #-82]!	; 0xffffffae
    31e4:	2f01006e 	svccs	0x0001006e
    31e8:	00002506 	andeq	r2, r0, r6, lsl #10
    31ec:	00169200 	andseq	r9, r6, r0, lsl #4
    31f0:	00169000 	andseq	r9, r6, r0
    31f4:	3d1e0000 	ldccc	0, cr0, [lr, #-0]
    31f8:	01000007 	tsteq	r0, r7
    31fc:	00250c27 	eoreq	r0, r5, r7, lsr #24
    3200:	8ffc0000 	svchi	0x00fc0000
    3204:	00140000 	andseq	r0, r4, r0
    3208:	9c010000 	stcls	0, cr0, [r1], {-0}
    320c:	000009ed 	andeq	r0, r0, sp, ror #19
    3210:	0100630e 	tsteq	r0, lr, lsl #6
    3214:	00251827 	eoreq	r1, r5, r7, lsr #16
    3218:	16ab0000 	strtne	r0, [fp], r0
    321c:	16a50000 	strtne	r0, [r5], r0
    3220:	21000000 	mrscs	r0, (UNDEF: 0)
    3224:	0000078d 	andeq	r0, r0, sp, lsl #15
    3228:	20061f01 	andcs	r1, r6, r1, lsl #30
    322c:	64000092 	strvs	r0, [r0], #-146	; 0xffffff6e
    3230:	01000000 	mrseq	r0, (UNDEF: 0)
    3234:	000a7d9c 	muleq	sl, ip, sp
    3238:	07761f00 	ldrbeq	r1, [r6, -r0, lsl #30]!
    323c:	1f010000 	svcne	0x00010000
    3240:	00009e1b 	andeq	r9, r0, fp, lsl lr
    3244:	0016dd00 	andseq	sp, r6, r0, lsl #26
    3248:	0016d900 	andseq	sp, r6, r0, lsl #18
    324c:	07c51f00 	strbeq	r1, [r5, r0, lsl #30]
    3250:	1f010000 	svcne	0x00010000
    3254:	0000d130 	andeq	sp, r0, r0, lsr r1
    3258:	00170200 	andseq	r0, r7, r0, lsl #4
    325c:	0016fe00 	andseq	pc, r6, r0, lsl #28
    3260:	00931200 	addseq	r1, r3, r0, lsl #4
    3264:	0a8d0000 	beq	fe34326c <__bss_end__+0xfe33830c>
    3268:	03050000 	movweq	r0, #20480	; 0x5000
    326c:	0000a8f0 	strdeq	sl, [r0], -r0
    3270:	00926818 	addseq	r6, r2, r8, lsl r8
    3274:	000a9e00 	andeq	r9, sl, r0, lsl #28
    3278:	000a7300 	andeq	r7, sl, r0, lsl #6
    327c:	50011900 	andpl	r1, r1, r0, lsl #18
    3280:	a08c0305 	addge	r0, ip, r5, lsl #6
    3284:	01190000 	tsteq	r9, r0
    3288:	a8030551 	stmdage	r3, {r0, r4, r6, r8, sl}
    328c:	190000a7 	stmdbne	r0, {r0, r1, r2, r5, r7}
    3290:	03055201 	movweq	r5, #20993	; 0x5201
    3294:	0000a8f0 	strdeq	sl, [r0], -r0
    3298:	02530119 	subseq	r0, r3, #1073741830	; 0x40000006
    329c:	02192008 	andseq	r2, r9, #8, 0
    32a0:	0305007d 	movweq	r0, #20605	; 0x507d
    32a4:	0000a7e0 	andeq	sl, r0, r0, ror #15
    32a8:	926c1a00 	rsbls	r1, ip, #0, 20
    32ac:	0ac20000 	beq	ff0832b4 <__bss_end__+0xff078354>
    32b0:	1c000000 	stcne	0, cr0, [r0], {-0}
    32b4:	000000c0 	andeq	r0, r0, r0, asr #1
    32b8:	00000a8d 	andeq	r0, r0, sp, lsl #21
    32bc:	00002c1d 	andeq	r2, r0, sp, lsl ip
    32c0:	09000e00 	stmdbeq	r0, {r9, sl, fp}
    32c4:	00000a7d 	andeq	r0, r0, sp, ror sl
    32c8:	0007f522 	andeq	pc, r7, r2, lsr #10
    32cc:	0007f500 	andeq	pc, r7, r0, lsl #10
    32d0:	05f00300 	ldrbeq	r0, [r0, #768]!	; 0x300
    32d4:	0006ec22 	andeq	lr, r6, r2, lsr #24
    32d8:	0006ec00 	andeq	lr, r6, r0, lsl #24
    32dc:	06280300 	strteq	r0, [r8], -r0, lsl #6
    32e0:	0007dc22 	andeq	sp, r7, r2, lsr #24
    32e4:	0007dc00 	andeq	sp, r7, r0, lsl #24
    32e8:	05ef0300 	strbeq	r0, [pc, #768]!	; 35f0 <__code_start__-0x4a10>
    32ec:	0007a622 	andeq	sl, r7, r2, lsr #12
    32f0:	0007a600 	andeq	sl, r7, r0, lsl #12
    32f4:	07f20300 	ldrbeq	r0, [r2, r0, lsl #6]!
    32f8:	0000aa22 	andeq	sl, r0, r2, lsr #20
    32fc:	0000aa00 	andeq	sl, r0, r0, lsl #20
    3300:	066e0300 	strbteq	r0, [lr], -r0, lsl #6
    3304:	0007d522 	andeq	sp, r7, r2, lsr #10
    3308:	0007d500 	andeq	sp, r7, r0, lsl #10
    330c:	07f30300 	ldrbeq	r0, [r3, r0, lsl #6]!
    3310:	00012f00 	andeq	r2, r1, r0, lsl #30
    3314:	e4000400 	str	r0, [r0], #-1024	; 0xfffffc00
    3318:	0400000f 	streq	r0, [r0], #-15
    331c:	00059b01 	andeq	r9, r5, r1, lsl #22
    3320:	081a0c00 	ldmdaeq	sl, {sl, fp}
    3324:	066c0000 	strbteq	r0, [ip], -r0
    3328:	973c0000 	ldrls	r0, [ip, -r0]!
    332c:	002c0000 	eoreq	r0, ip, r0
    3330:	1c290000 	stcne	0, cr0, [r9], #-0
    3334:	04020000 	streq	r0, [r2], #-0
    3338:	746e6905 	strbtvc	r6, [lr], #-2309	; 0xfffff6fb
    333c:	07040300 	streq	r0, [r4, -r0, lsl #6]
    3340:	00000101 	andeq	r0, r0, r1, lsl #2
    3344:	cb060103 	blgt	183758 <__bss_end__+0x1787f8>
    3348:	03000000 	movweq	r0, #0
    334c:	00220502 	eoreq	r0, r2, r2, lsl #10
    3350:	04030000 	streq	r0, [r3], #-0
    3354:	00006b05 	andeq	r6, r0, r5, lsl #22
    3358:	05080300 	streq	r0, [r8, #-768]	; 0xfffffd00
    335c:	00000066 	andeq	r0, r0, r6, rrx
    3360:	c9080103 	stmdbgt	r8, {r0, r1, r8}
    3364:	03000000 	movweq	r0, #0
    3368:	01430702 	cmpeq	r3, r2, lsl #14
    336c:	04030000 	streq	r0, [r3], #-0
    3370:	0000fc07 	andeq	pc, r0, r7, lsl #24
    3374:	07080300 	streq	r0, [r8, -r0, lsl #6]
    3378:	000000f7 	strdeq	r0, [r0], -r7
    337c:	00002504 	andeq	r2, r0, r4, lsl #10
    3380:	00007a00 	andeq	r7, r0, r0, lsl #20
    3384:	00250500 	eoreq	r0, r5, r0, lsl #10
    3388:	06000000 	streq	r0, [r0], -r0
    338c:	0000002c 	andeq	r0, r0, ip, lsr #32
    3390:	860e1c02 	strhi	r1, [lr], -r2, lsl #24
    3394:	07000000 	streq	r0, [r0, -r0]
    3398:	00006b04 	andeq	r6, r0, r4, lsl #22
    339c:	00250400 	eoreq	r0, r5, r0, lsl #8
    33a0:	009b0000 	addseq	r0, fp, r0
    33a4:	9b050000 	blls	1433ac <__bss_end__+0x13844c>
    33a8:	00000000 	andeq	r0, r0, r0
    33ac:	00a80407 	adceq	r0, r8, r7, lsl #8
    33b0:	01030000 	mrseq	r0, (UNDEF: 3)
    33b4:	0000d208 	andeq	sp, r0, r8, lsl #4
    33b8:	00a10800 	adceq	r0, r1, r0, lsl #16
    33bc:	2a060000 	bcs	1833c4 <__bss_end__+0x178464>
    33c0:	02000007 	andeq	r0, r0, #7, 0
    33c4:	00b90e21 	adcseq	r0, r9, r1, lsr #28
    33c8:	04070000 	streq	r0, [r7], #-0
    33cc:	0000008c 	andeq	r0, r0, ip, lsl #1
    33d0:	0000aa09 	andeq	sl, r0, r9, lsl #20
    33d4:	06040100 	streq	r0, [r4], -r0, lsl #2
    33d8:	0000973c 	andeq	r9, r0, ip, lsr r7
    33dc:	0000002c 	andeq	r0, r0, ip, lsr #32
    33e0:	010e9c01 	tsteq	lr, r1, lsl #24
    33e4:	500a0000 	andpl	r0, sl, r0
    33e8:	e8000097 	stmda	r0, {r0, r1, r2, r4, r7}
    33ec:	0b000000 	bleq	33f4 <__code_start__-0x4c0c>
    33f0:	03055001 	movweq	r5, #20481	; 0x5001
    33f4:	0000a90c 	andeq	sl, r0, ip, lsl #18
    33f8:	97540c00 	ldrbls	r0, [r4, -r0, lsl #24]
    33fc:	010e0000 	mrseq	r0, (UNDEF: 14)
    3400:	5c0d0000 	stcpl	0, cr0, [sp], {-0}
    3404:	1a000097 	bne	3668 <__code_start__-0x4998>
    3408:	04000001 	streq	r0, [r0], #-1
    340c:	0b000001 	bleq	3418 <__code_start__-0x4be8>
    3410:	3a015001 	bcc	5741c <__bss_end__+0x4c4bc>
    3414:	97600c00 	strbls	r0, [r0, -r0, lsl #24]!
    3418:	01260000 			; <UNDEFINED> instruction: 0x01260000
    341c:	0e000000 	cdpeq	0, 0, cr0, cr0, cr0, {0}
    3420:	00000835 	andeq	r0, r0, r5, lsr r8
    3424:	00000835 	andeq	r0, r0, r5, lsr r8
    3428:	0e064d02 	cdpeq	13, 0, cr4, cr6, cr2, {0}
    342c:	00000811 	andeq	r0, r0, r1, lsl r8
    3430:	00000811 	andeq	r0, r0, r1, lsl r8
    3434:	0e065802 	cdpeq	8, 0, cr5, cr6, cr2, {0}
    3438:	00000806 	andeq	r0, r0, r6, lsl #16
    343c:	00000806 	andeq	r0, r0, r6, lsl #16
    3440:	00066b02 	andeq	r6, r6, r2, lsl #22
    3444:	00000189 	andeq	r0, r0, r9, lsl #3
    3448:	10a40004 	adcne	r0, r4, r4
    344c:	01040000 	mrseq	r0, (UNDEF: 4)
    3450:	0000059b 	muleq	r0, fp, r5
    3454:	00086b0c 	andeq	r6, r8, ip, lsl #22
    3458:	00066c00 	andeq	r6, r6, r0, lsl #24
    345c:	00976800 	addseq	r6, r7, r0, lsl #16
    3460:	00003c00 	andeq	r3, r0, r0, lsl #24
    3464:	001cd200 	andseq	sp, ip, r0, lsl #4
    3468:	05040200 	streq	r0, [r4, #-512]	; 0xfffffe00
    346c:	00746e69 	rsbseq	r6, r4, r9, ror #28
    3470:	01070403 	tsteq	r7, r3, lsl #8
    3474:	03000001 	movweq	r0, #1
    3478:	00cb0601 	sbceq	r0, fp, r1, lsl #12
    347c:	02030000 	andeq	r0, r3, #0, 0
    3480:	00002205 	andeq	r2, r0, r5, lsl #4
    3484:	05040300 	streq	r0, [r4, #-768]	; 0xfffffd00
    3488:	0000006b 	andeq	r0, r0, fp, rrx
    348c:	66050803 	strvs	r0, [r5], -r3, lsl #16
    3490:	03000000 	movweq	r0, #0
    3494:	00c90801 	sbceq	r0, r9, r1, lsl #16
    3498:	02030000 	andeq	r0, r3, #0, 0
    349c:	00014307 	andeq	r4, r1, r7, lsl #6
    34a0:	07040300 	streq	r0, [r4, -r0, lsl #6]
    34a4:	000000fc 	strdeq	r0, [r0], -ip
    34a8:	f7070803 			; <UNDEFINED> instruction: 0xf7070803
    34ac:	04000000 	streq	r0, [r0], #-0
    34b0:	00000025 	andeq	r0, r0, r5, lsr #32
    34b4:	0000007a 	andeq	r0, r0, sl, ror r0
    34b8:	00002505 	andeq	r2, r0, r5, lsl #10
    34bc:	2c060000 	stccs	0, cr0, [r6], {-0}
    34c0:	02000000 	andeq	r0, r0, #0, 0
    34c4:	00860e1c 	addeq	r0, r6, ip, lsl lr
    34c8:	04070000 	streq	r0, [r7], #-0
    34cc:	0000006b 	andeq	r0, r0, fp, rrx
    34d0:	00002504 	andeq	r2, r0, r4, lsl #10
    34d4:	00009b00 	andeq	r9, r0, r0, lsl #22
    34d8:	009b0500 	addseq	r0, fp, r0, lsl #10
    34dc:	07000000 	streq	r0, [r0, -r0]
    34e0:	0000a804 	andeq	sl, r0, r4, lsl #16
    34e4:	08010300 	stmdaeq	r1, {r8, r9}
    34e8:	000000d2 	ldrdeq	r0, [r0], -r2
    34ec:	0000a108 	andeq	sl, r0, r8, lsl #2
    34f0:	072a0600 	streq	r0, [sl, -r0, lsl #12]!
    34f4:	21020000 	mrscs	r0, (UNDEF: 2)
    34f8:	0000b90e 	andeq	fp, r0, lr, lsl #18
    34fc:	8c040700 	stchi	7, cr0, [r4], {-0}
    3500:	09000000 	stmdbeq	r0, {}	; <UNPREDICTABLE>
    3504:	00000843 	andeq	r0, r0, r3, asr #16
    3508:	68060401 	stmdavs	r6, {r0, sl}
    350c:	3c000097 	stccc	0, cr0, [r0], {151}	; 0x97
    3510:	01000000 	mrseq	r0, (UNDEF: 0)
    3514:	0001549c 	muleq	r1, ip, r4
    3518:	04320600 	ldrteq	r0, [r2], #-1536	; 0xfffffa00
    351c:	05010000 	streq	r0, [r1, #-0]
    3520:	00002510 	andeq	r2, r0, r0, lsl r5
    3524:	04e60600 	strbteq	r0, [r6], #1536	; 0x600
    3528:	05010000 	streq	r0, [r1, #-0]
    352c:	0000251f 	andeq	r2, r0, pc, lsl r5
    3530:	013b0a00 	teqeq	fp, r0, lsl #20
    3534:	06010000 	streq	r0, [r1], -r0
    3538:	73620b07 	cmnvc	r2, #7168	; 0x1c00
    353c:	0a010073 	beq	43710 <__bss_end__+0x387b0>
    3540:	0001540a 	andeq	r5, r1, sl, lsl #8
    3544:	00172900 	andseq	r2, r7, r0, lsl #18
    3548:	00172300 	andseq	r2, r7, r0, lsl #6
    354c:	084b0c00 	stmdaeq	fp, {sl, fp}^
    3550:	0b010000 	bleq	43558 <__bss_end__+0x385f8>
    3554:	0001540a 	andeq	r5, r1, sl, lsl #8
    3558:	978c0d00 	strls	r0, [ip, r0, lsl #26]
    355c:	00080000 	andeq	r0, r8, r0
    3560:	012f0000 			; <UNDEFINED> instruction: 0x012f0000
    3564:	690e0000 	stmdbvs	lr, {}	; <UNPREDICTABLE>
    3568:	1401006e 	strne	r0, [r1], #-110	; 0xffffff92
    356c:	00002c05 	andeq	r2, r0, r5, lsl #24
    3570:	0f000100 	svceq	0x00000100
    3574:	00009770 	andeq	r9, r0, r0, ror r7
    3578:	0000015a 	andeq	r0, r0, sl, asr r1
    357c:	00978c0f 	addseq	r8, r7, pc, lsl #24
    3580:	00016700 	andeq	r6, r1, r0, lsl #14
    3584:	97980f00 	ldrls	r0, [r8, r0, lsl #30]
    3588:	01730000 	cmneq	r3, r0
    358c:	9c0f0000 	stcls	0, cr0, [pc], {-0}
    3590:	80000097 	mulhi	r0, r7, r0
    3594:	00000001 	andeq	r0, r0, r1
    3598:	00250407 	eoreq	r0, r5, r7, lsl #8
    359c:	5d100000 	ldcpl	0, cr0, [r0, #-0]
    35a0:	5d000008 	stcpl	0, cr0, [r0, #-32]	; 0xffffffe0
    35a4:	02000008 	andeq	r0, r0, #8, 0
    35a8:	11060136 	tstne	r6, r6, lsr r1
    35ac:	00000853 	andeq	r0, r0, r3, asr r8
    35b0:	00000853 	andeq	r0, r0, r3, asr r8
    35b4:	10063b02 	andne	r3, r6, r2, lsl #22
    35b8:	0000013b 	andeq	r0, r0, fp, lsr r1
    35bc:	0000013b 	andeq	r0, r0, fp, lsr r1
    35c0:	06010a02 	streq	r0, [r1], -r2, lsl #20
    35c4:	0000aa11 	andeq	sl, r0, r1, lsl sl
    35c8:	0000aa00 	andeq	sl, r0, r0, lsl #20
    35cc:	066e0200 	strbteq	r0, [lr], -r0, lsl #4
    35d0:	0000ce00 	andeq	ip, r0, r0, lsl #28
    35d4:	a0000400 	andge	r0, r0, r0, lsl #8
    35d8:	04000011 	streq	r0, [r0], #-17	; 0xffffffef
    35dc:	00059b01 	andeq	r9, r5, r1, lsl #22
    35e0:	08800c00 	stmeq	r0, {sl, fp}
    35e4:	066c0000 	strbteq	r0, [ip], -r0
    35e8:	97a40000 	strls	r0, [r4, r0]!
    35ec:	00040000 	andeq	r0, r4, r0
    35f0:	1d950000 	ldcne	0, cr0, [r5]
    35f4:	04020000 	streq	r0, [r2], #-0
    35f8:	746e6905 	strbtvc	r6, [lr], #-2309	; 0xfffff6fb
    35fc:	07040300 	streq	r0, [r4, -r0, lsl #6]
    3600:	00000101 	andeq	r0, r0, r1, lsl #2
    3604:	cb060103 	blgt	183a18 <__bss_end__+0x178ab8>
    3608:	03000000 	movweq	r0, #0
    360c:	00220502 	eoreq	r0, r2, r2, lsl #10
    3610:	04030000 	streq	r0, [r3], #-0
    3614:	00006b05 	andeq	r6, r0, r5, lsl #22
    3618:	05080300 	streq	r0, [r8, #-768]	; 0xfffffd00
    361c:	00000066 	andeq	r0, r0, r6, rrx
    3620:	c9080103 	stmdbgt	r8, {r0, r1, r8}
    3624:	03000000 	movweq	r0, #0
    3628:	01430702 	cmpeq	r3, r2, lsl #14
    362c:	04030000 	streq	r0, [r3], #-0
    3630:	0000fc07 	andeq	pc, r0, r7, lsl #24
    3634:	07080300 	streq	r0, [r8, -r0, lsl #6]
    3638:	000000f7 	strdeq	r0, [r0], -r7
    363c:	00002504 	andeq	r2, r0, r4, lsl #10
    3640:	00007a00 	andeq	r7, r0, r0, lsl #20
    3644:	00250500 	eoreq	r0, r5, r0, lsl #10
    3648:	06000000 	streq	r0, [r0], -r0
    364c:	0000002c 	andeq	r0, r0, ip, lsr #32
    3650:	860e1c02 	strhi	r1, [lr], -r2, lsl #24
    3654:	07000000 	streq	r0, [r0, -r0]
    3658:	00006b04 	andeq	r6, r0, r4, lsl #22
    365c:	00250400 	eoreq	r0, r5, r0, lsl #8
    3660:	009b0000 	addseq	r0, fp, r0
    3664:	9b050000 	blls	14366c <__bss_end__+0x13870c>
    3668:	00000000 	andeq	r0, r0, r0
    366c:	00a80407 	adceq	r0, r8, r7, lsl #8
    3670:	01030000 	mrseq	r0, (UNDEF: 3)
    3674:	0000d208 	andeq	sp, r0, r8, lsl #4
    3678:	00a10800 	adceq	r0, r1, r0, lsl #16
    367c:	2a060000 	bcs	183684 <__bss_end__+0x178724>
    3680:	02000007 	andeq	r0, r0, #7, 0
    3684:	00b90e21 	adcseq	r0, r9, r1, lsr #28
    3688:	04070000 	streq	r0, [r7], #-0
    368c:	0000008c 	andeq	r0, r0, ip, lsl #1
    3690:	00085d09 	andeq	r5, r8, r9, lsl #26
    3694:	06040100 	streq	r0, [r4], -r0, lsl #2
    3698:	000097a4 	andeq	r9, r0, r4, lsr #15
    369c:	00000004 	andeq	r0, r0, r4
    36a0:	36009c01 	strcc	r9, [r0], -r1, lsl #24
    36a4:	04000002 	streq	r0, [r0], #-2
    36a8:	00121900 	andseq	r1, r2, r0, lsl #18
    36ac:	9b010400 	blls	446b4 <__bss_end__+0x39754>
    36b0:	0c000005 	stceq	0, cr0, [r0], {5}
    36b4:	000008c2 	andeq	r0, r0, r2, asr #17
    36b8:	0000066c 	andeq	r0, r0, ip, ror #12
    36bc:	000000d0 	ldrdeq	r0, [r0], -r0	; <UNPREDICTABLE>
    36c0:	00000000 	andeq	r0, r0, r0
    36c4:	00001e3c 	andeq	r1, r0, ip, lsr lr
    36c8:	69050402 	stmdbvs	r5, {r1, sl}
    36cc:	0300746e 	movweq	r7, #1134	; 0x46e
    36d0:	00000025 	andeq	r0, r0, r5, lsr #32
    36d4:	01070404 	tsteq	r7, r4, lsl #8
    36d8:	04000001 	streq	r0, [r0], #-1
    36dc:	00cb0601 	sbceq	r0, fp, r1, lsl #12
    36e0:	02040000 	andeq	r0, r4, #0, 0
    36e4:	00002205 	andeq	r2, r0, r5, lsl #4
    36e8:	05040400 	streq	r0, [r4, #-1024]	; 0xfffffc00
    36ec:	0000006b 	andeq	r0, r0, fp, rrx
    36f0:	66050804 	strvs	r0, [r5], -r4, lsl #16
    36f4:	04000000 	streq	r0, [r0], #-0
    36f8:	00c90801 	sbceq	r0, r9, r1, lsl #16
    36fc:	02040000 	andeq	r0, r4, #0, 0
    3700:	00014307 	andeq	r4, r1, r7, lsl #6
    3704:	07040400 	streq	r0, [r4, -r0, lsl #8]
    3708:	000000fc 	strdeq	r0, [r0], -ip
    370c:	f7070804 			; <UNDEFINED> instruction: 0xf7070804
    3710:	05000000 	streq	r0, [r0, #-0]
    3714:	00000025 	andeq	r0, r0, r5, lsr #32
    3718:	0000007f 	andeq	r0, r0, pc, ror r0
    371c:	00002506 	andeq	r2, r0, r6, lsl #10
    3720:	2c070000 	stccs	0, cr0, [r7], {-0}
    3724:	02000000 	andeq	r0, r0, #0, 0
    3728:	008b0e1c 	addeq	r0, fp, ip, lsl lr
    372c:	04080000 	streq	r0, [r8], #-0
    3730:	00000070 	andeq	r0, r0, r0, ror r0
    3734:	00002505 	andeq	r2, r0, r5, lsl #10
    3738:	0000a000 	andeq	sl, r0, r0
    373c:	00a00600 	adceq	r0, r0, r0, lsl #12
    3740:	08000000 	stmdaeq	r0, {}	; <UNPREDICTABLE>
    3744:	0000ad04 	andeq	sl, r0, r4, lsl #26
    3748:	08010400 	stmdaeq	r1, {sl}
    374c:	000000d2 	ldrdeq	r0, [r0], -r2
    3750:	0000a603 	andeq	sl, r0, r3, lsl #12
    3754:	072a0700 	streq	r0, [sl, -r0, lsl #14]!
    3758:	21020000 	mrscs	r0, (UNDEF: 2)
    375c:	0000be0e 	andeq	fp, r0, lr, lsl #28
    3760:	91040800 	tstls	r4, r0, lsl #16
    3764:	09000000 	stmdbeq	r0, {}	; <UNPREDICTABLE>
    3768:	000008e6 	andeq	r0, r0, r6, ror #17
    376c:	31110d01 	tstcc	r1, r1, lsl #26
    3770:	0a000000 	beq	3778 <__code_start__-0x4888>
    3774:	00000806 	andeq	r0, r0, r6, lsl #16
    3778:	d4061f01 	strle	r1, [r6], #-3841	; 0xfffff0ff
    377c:	54000097 	strpl	r0, [r0], #-151	; 0xffffff69
    3780:	01000000 	mrseq	r0, (UNDEF: 0)
    3784:	0001ae9c 	muleq	r1, ip, lr
    3788:	090a0b00 	stmdbeq	sl, {r8, r9, fp}
    378c:	2c010000 	stccs	0, cr0, [r1], {-0}
    3790:	00002c0f 	andeq	r2, r0, pc, lsl #24
    3794:	00175600 	andseq	r5, r7, r0, lsl #12
    3798:	00175400 	andseq	r5, r7, r0, lsl #8
    379c:	08ab0b00 	stmiaeq	fp!, {r8, r9, fp}
    37a0:	2d010000 	stccs	0, cr0, [r1, #-0]
    37a4:	00002c0f 	andeq	r2, r0, pc, lsl #24
    37a8:	00177000 	andseq	r7, r7, r0
    37ac:	00176e00 	andseq	r6, r7, r0, lsl #28
    37b0:	08d70b00 	ldmeq	r7, {r8, r9, fp}^
    37b4:	2e010000 	cdpcs	0, 0, cr0, cr1, cr0, {0}
    37b8:	00002c0f 	andeq	r2, r0, pc, lsl #24
    37bc:	00178a00 	andseq	r8, r7, r0, lsl #20
    37c0:	00178800 	andseq	r8, r7, r0, lsl #16
    37c4:	08f10b00 	ldmeq	r1!, {r8, r9, fp}^
    37c8:	2f010000 	svccs	0x00010000
    37cc:	00002c0f 	andeq	r2, r0, pc, lsl #24
    37d0:	0017a300 	andseq	sl, r7, r0, lsl #6
    37d4:	0017a100 	andseq	sl, r7, r0, lsl #2
    37d8:	97dc0c00 	ldrbls	r0, [ip, r0, lsl #24]
    37dc:	01d90000 	bicseq	r0, r9, r0
    37e0:	e80c0000 	stmda	ip, {}	; <UNPREDICTABLE>
    37e4:	08000097 	stmdaeq	r0, {r0, r1, r2, r4, r7}
    37e8:	0c000002 	stceq	0, cr0, [r0], {2}
    37ec:	000097ec 	andeq	r9, r0, ip, ror #15
    37f0:	00000215 	andeq	r0, r0, r5, lsl r2
    37f4:	0097f40d 	addseq	pc, r7, sp, lsl #8
    37f8:	00022100 	andeq	r2, r2, r0, lsl #2
    37fc:	00016400 	andeq	r6, r1, r0, lsl #8
    3800:	50010e00 	andpl	r0, r1, r0, lsl #28
    3804:	0d003a01 	vstreq	s6, [r0, #-4]
    3808:	00009800 	andeq	r9, r0, r0, lsl #16
    380c:	0000022d 	andeq	r0, r0, sp, lsr #4
    3810:	00000184 	andeq	r0, r0, r4, lsl #3
    3814:	0550010e 	ldrbeq	r0, [r0, #-270]	; 0xfffffef2
    3818:	1000240c 	andne	r2, r0, ip, lsl #8
    381c:	51010e20 	tstpl	r1, r0, lsr #28
    3820:	00010c05 	andeq	r0, r1, r5, lsl #24
    3824:	0d005a00 	vstreq	s10, [r0, #-0]
    3828:	0000980c 	andeq	r9, r0, ip, lsl #16
    382c:	0000022d 	andeq	r0, r0, sp, lsr #4
    3830:	000001a4 	andeq	r0, r0, r4, lsr #3
    3834:	0550010e 	ldrbeq	r0, [r0, #-270]	; 0xfffffef2
    3838:	10001c0c 	andne	r1, r0, ip, lsl #24
    383c:	51010e20 	tstpl	r1, r0, lsr #28
    3840:	00200c05 	eoreq	r0, r0, r5, lsl #24
    3844:	0c005a00 			; <UNDEFINED> instruction: 0x0c005a00
    3848:	00009814 	andeq	r9, r0, r4, lsl r8
    384c:	000001ae 	andeq	r0, r0, lr, lsr #3
    3850:	08b30f00 	ldmeq	r3!, {r8, r9, sl, fp}
    3854:	17010000 	strne	r0, [r1, -r0]
    3858:	0097c006 	addseq	ip, r7, r6
    385c:	00001400 	andeq	r1, r0, r0, lsl #8
    3860:	d99c0100 	ldmible	ip, {r8}
    3864:	0b000001 	bleq	3870 <__code_start__-0x4790>
    3868:	00000912 	andeq	r0, r0, r2, lsl r9
    386c:	310e1801 	tstcc	lr, r1, lsl #16
    3870:	be000000 	cdplt	0, 0, cr0, cr0, cr0, {0}
    3874:	b8000017 	stmdalt	r0, {r0, r1, r2, r4}
    3878:	00000017 	andeq	r0, r0, r7, lsl r0
    387c:	0008e310 	andeq	lr, r8, r0, lsl r3
    3880:	050e0100 	streq	r0, [lr, #-256]	; 0xffffff00
    3884:	00000025 	andeq	r0, r0, r5, lsr #32
    3888:	000097a8 	andeq	r9, r0, r8, lsr #15
    388c:	00000018 	andeq	r0, r0, r8, lsl r0
    3890:	02089c01 	andeq	r9, r8, #256	; 0x100
    3894:	120b0000 	andne	r0, fp, #0, 0
    3898:	01000009 	tsteq	r0, r9
    389c:	00310e0f 	eorseq	r0, r1, pc, lsl #28
    38a0:	17ec0000 	strbne	r0, [ip, r0]!
    38a4:	17e80000 	strbne	r0, [r8, r0]!
    38a8:	11000000 	mrsne	r0, (UNDEF: 0)
    38ac:	0000089c 	muleq	r0, ip, r8
    38b0:	0000089c 	muleq	r0, ip, r8
    38b4:	06013b02 	streq	r3, [r1], -r2, lsl #22
    38b8:	00083512 	andeq	r3, r8, r2, lsl r5
    38bc:	00083500 	andeq	r3, r8, r0, lsl #10
    38c0:	064d0200 	strbeq	r0, [sp], -r0, lsl #4
    38c4:	00081112 	andeq	r1, r8, r2, lsl r1
    38c8:	00081100 	andeq	r1, r8, r0, lsl #2
    38cc:	06580200 	ldrbeq	r0, [r8], -r0, lsl #4
    38d0:	00004512 	andeq	r4, r0, r2, lsl r5
    38d4:	00004500 	andeq	r4, r0, r0, lsl #10
    38d8:	06b20200 	ldrteq	r0, [r2], r0, lsl #4
    38dc:	00024d00 	andeq	r4, r2, r0, lsl #26
    38e0:	3e000400 	cfcpyscc	mvf0, mvf0
    38e4:	04000013 	streq	r0, [r0], #-19	; 0xffffffed
    38e8:	00059b01 	andeq	r9, r5, r1, lsl #22
    38ec:	092d0c00 	pusheq	{sl, fp}
    38f0:	066c0000 	strbteq	r0, [ip], -r0
    38f4:	98280000 	stmdals	r8!, {}	; <UNPREDICTABLE>
    38f8:	00840000 	addeq	r0, r4, r0
    38fc:	1f330000 	svcne	0x00330000
    3900:	04020000 	streq	r0, [r2], #-0
    3904:	746e6905 	strbtvc	r6, [lr], #-2309	; 0xfffff6fb
    3908:	07040300 	streq	r0, [r4, -r0, lsl #6]
    390c:	00000101 	andeq	r0, r0, r1, lsl #2
    3910:	cb060103 	blgt	183d24 <__bss_end__+0x178dc4>
    3914:	03000000 	movweq	r0, #0
    3918:	00220502 	eoreq	r0, r2, r2, lsl #10
    391c:	04030000 	streq	r0, [r3], #-0
    3920:	00006b05 	andeq	r6, r0, r5, lsl #22
    3924:	05080300 	streq	r0, [r8, #-768]	; 0xfffffd00
    3928:	00000066 	andeq	r0, r0, r6, rrx
    392c:	c9080103 	stmdbgt	r8, {r0, r1, r8}
    3930:	03000000 	movweq	r0, #0
    3934:	01430702 	cmpeq	r3, r2, lsl #14
    3938:	04030000 	streq	r0, [r3], #-0
    393c:	0000fc07 	andeq	pc, r0, r7, lsl #24
    3940:	07080300 	streq	r0, [r8, -r0, lsl #6]
    3944:	000000f7 	strdeq	r0, [r0], -r7
    3948:	00002504 	andeq	r2, r0, r4, lsl #10
    394c:	00007a00 	andeq	r7, r0, r0, lsl #20
    3950:	00250500 	eoreq	r0, r5, r0, lsl #10
    3954:	06000000 	streq	r0, [r0], -r0
    3958:	0000002c 	andeq	r0, r0, ip, lsr #32
    395c:	860e1c02 	strhi	r1, [lr], -r2, lsl #24
    3960:	07000000 	streq	r0, [r0, -r0]
    3964:	00006b04 	andeq	r6, r0, r4, lsl #22
    3968:	00250400 	eoreq	r0, r5, r0, lsl #8
    396c:	009b0000 	addseq	r0, fp, r0
    3970:	9b050000 	blls	143978 <__bss_end__+0x138a18>
    3974:	00000000 	andeq	r0, r0, r0
    3978:	00a80407 	adceq	r0, r8, r7, lsl #8
    397c:	01030000 	mrseq	r0, (UNDEF: 3)
    3980:	0000d208 	andeq	sp, r0, r8, lsl #4
    3984:	00a10800 	adceq	r0, r1, r0, lsl #16
    3988:	2a060000 	bcs	183990 <__bss_end__+0x178a30>
    398c:	02000007 	andeq	r0, r0, #7, 0
    3990:	00b90e21 	adcseq	r0, r9, r1, lsr #28
    3994:	04070000 	streq	r0, [r7], #-0
    3998:	0000008c 	andeq	r0, r0, ip, lsl #1
    399c:	00092309 	andeq	r2, r9, r9, lsl #6
    39a0:	061e0100 	ldreq	r0, [lr], -r0, lsl #2
    39a4:	00009894 	muleq	r0, r4, r8
    39a8:	00000018 	andeq	r0, r0, r8, lsl r0
    39ac:	01099c01 	tsteq	r9, r1, lsl #24
    39b0:	730a0000 	movwvc	r0, #40960	; 0xa000
    39b4:	01006365 	tsteq	r0, r5, ror #6
    39b8:	002c191e 	eoreq	r1, ip, lr, lsl r9
    39bc:	180f0000 	stmdane	pc, {}	; <UNPREDICTABLE>
    39c0:	180b0000 	stmdane	fp, {}	; <UNPREDICTABLE>
    39c4:	a80b0000 	stmdage	fp, {}	; <UNPREDICTABLE>
    39c8:	09000098 	stmdbeq	r0, {r3, r4, r7}
    39cc:	0c000001 	stceq	0, cr0, [r0], {1}
    39d0:	f3115001 	vhadd.u16	d5, d1, d1
    39d4:	24355001 	ldrtcs	r5, [r5], #-1
    39d8:	1c5001f3 	ldfnee	f0, [r0], {243}	; 0xf3
    39dc:	01f32432 	mvnseq	r2, r2, lsr r4
    39e0:	24332250 	ldrtcs	r2, [r3], #-592	; 0xfffffdb0
    39e4:	11090000 	mrsne	r0, (UNDEF: 9)
    39e8:	01000008 	tsteq	r0, r8
    39ec:	987c061b 	ldmdals	ip!, {r0, r1, r3, r4, r9, sl}^
    39f0:	00180000 	andseq	r0, r8, r0
    39f4:	9c010000 	stcls	0, cr0, [r1], {-0}
    39f8:	00000152 	andeq	r0, r0, r2, asr r1
    39fc:	00736d0a 	rsbseq	r6, r3, sl, lsl #26
    3a00:	2c181b01 			; <UNDEFINED> instruction: 0x2c181b01
    3a04:	34000000 	strcc	r0, [r0], #-0
    3a08:	30000018 	andcc	r0, r0, r8, lsl r0
    3a0c:	0b000018 	bleq	3a74 <__code_start__-0x458c>
    3a10:	00009890 	muleq	r0, r0, r8
    3a14:	00000152 	andeq	r0, r0, r2, asr r1
    3a18:	1150010c 	cmpne	r0, ip, lsl #2
    3a1c:	355001f3 	ldrbcc	r0, [r0, #-499]	; 0xfffffe0d
    3a20:	5001f324 	andpl	pc, r1, r4, lsr #6
    3a24:	f324321c 	vqsub.u32	d3, d4, d12
    3a28:	33225001 			; <UNDEFINED> instruction: 0x33225001
    3a2c:	09000024 	stmdbeq	r0, {r2, r5}
    3a30:	00000956 	andeq	r0, r0, r6, asr r9
    3a34:	58061201 	stmdapl	r6, {r0, r9, ip}
    3a38:	24000098 	strcs	r0, [r0], #-152	; 0xffffff68
    3a3c:	01000000 	mrseq	r0, (UNDEF: 0)
    3a40:	0001c29c 	muleq	r1, ip, r2
    3a44:	73750a00 	cmnvc	r5, #0, 20
    3a48:	18120100 	ldmdane	r2, {r8}
    3a4c:	0000002c 	andeq	r0, r0, ip, lsr #32
    3a50:	00001859 	andeq	r1, r0, r9, asr r8
    3a54:	00001855 	andeq	r1, r0, r5, asr r8
    3a58:	0062720d 	rsbeq	r7, r2, sp, lsl #4
    3a5c:	2c0e1301 	stccs	3, cr1, [lr], {1}
    3a60:	79000000 	stmdbvc	r0, {}	; <UNPREDICTABLE>
    3a64:	77000018 	smladvc	r0, r8, r0, r0
    3a68:	0e000018 	mcreq	0, 0, r0, cr0, cr8, {0}
    3a6c:	00009868 	andeq	r9, r0, r8, ror #16
    3a70:	00000014 	andeq	r0, r0, r4, lsl r0
    3a74:	000001b8 			; <UNDEFINED> instruction: 0x000001b8
    3a78:	0061720d 	rsbeq	r7, r1, sp, lsl #4
    3a7c:	2c121501 	cfldr32cs	mvfx1, [r2], {1}
    3a80:	8e000000 	cdphi	0, 0, cr0, cr0, cr0, {0}
    3a84:	8c000018 	stchi	0, cr0, [r0], {24}
    3a88:	0f000018 	svceq	0x00000018
    3a8c:	0000986c 	andeq	r9, r0, ip, ror #16
    3a90:	000001c2 	andeq	r0, r0, r2, asr #3
    3a94:	98640f00 	stmdals	r4!, {r8, r9, sl, fp}^
    3a98:	01c20000 	biceq	r0, r2, r0
    3a9c:	10000000 	andne	r0, r0, r0
    3aa0:	00000947 	andeq	r0, r0, r7, asr #18
    3aa4:	2c0a0901 			; <UNDEFINED> instruction: 0x2c0a0901
    3aa8:	3c000000 	stccc	0, cr0, [r0], {-0}
    3aac:	1c000098 	stcne	0, cr0, [r0], {152}	; 0x98
    3ab0:	01000000 	mrseq	r0, (UNDEF: 0)
    3ab4:	00020a9c 	muleq	r2, ip, sl
    3ab8:	00750d00 	rsbseq	r0, r5, r0, lsl #26
    3abc:	2c0e0d01 	stccs	13, cr0, [lr], {1}
    3ac0:	a5000000 	strge	r0, [r0, #-0]
    3ac4:	a1000018 	tstge	r0, r8, lsl r0
    3ac8:	0f000018 	svceq	0x00000018
    3acc:	00009844 	andeq	r9, r0, r4, asr #16
    3ad0:	00000238 	andeq	r0, r0, r8, lsr r2
    3ad4:	0098480f 	addseq	r4, r8, pc, lsl #16
    3ad8:	00020a00 	andeq	r0, r2, r0, lsl #20
    3adc:	98500f00 	ldmdals	r0, {r8, r9, sl, fp}^
    3ae0:	02380000 	eorseq	r0, r8, #0, 0
    3ae4:	10000000 	andne	r0, r0, r0
    3ae8:	0000095f 	andeq	r0, r0, pc, asr r9
    3aec:	2c0a0401 	cfstrscs	mvf0, [sl], {1}
    3af0:	28000000 	stmdacs	r0, {}	; <UNPREDICTABLE>
    3af4:	14000098 	strne	r0, [r0], #-152	; 0xffffff68
    3af8:	01000000 	mrseq	r0, (UNDEF: 0)
    3afc:	0002389c 	muleq	r2, ip, r8
    3b00:	98340b00 	ldmdals	r4!, {r8, r9, fp}
    3b04:	02440000 	subeq	r0, r4, #0, 0
    3b08:	010c0000 	mrseq	r0, (UNDEF: 12)
    3b0c:	040c0550 	streq	r0, [ip], #-1360	; 0xfffffab0
    3b10:	00200030 	eoreq	r0, r0, r0, lsr r0
    3b14:	09171100 	ldmdbeq	r7, {r8, ip}
    3b18:	09170000 	ldmdbeq	r7, {}	; <UNPREDICTABLE>
    3b1c:	a1020000 	mrsge	r0, (UNDEF: 2)
    3b20:	09411106 	stmdbeq	r1, {r1, r2, r8, ip}^
    3b24:	09410000 	stmdbeq	r1, {}^	; <UNPREDICTABLE>
    3b28:	c7020000 	strgt	r0, [r2, -r0]
    3b2c:	05cd000a 	strbeq	r0, [sp, #10]
    3b30:	00040000 	andeq	r0, r4, r0
    3b34:	0000143f 	andeq	r1, r0, pc, lsr r4
    3b38:	0a720104 	beq	1c83f50 <__bss_end__+0x1c78ff0>
    3b3c:	b10c0000 	mrslt	r0, (UNDEF: 12)
    3b40:	22000009 	andcs	r0, r0, #9, 0
    3b44:	ac00000a 	stcge	0, cr0, [r0], {10}
    3b48:	f0000098 			; <UNDEFINED> instruction: 0xf0000098
    3b4c:	31000001 	tstcc	r0, r1
    3b50:	02000020 	andeq	r0, r0, #32, 0
    3b54:	6e690504 	cdpvs	5, 6, cr0, cr9, cr4, {0}
    3b58:	04030074 	streq	r0, [r3], #-116	; 0xffffff8c
    3b5c:	00010107 	andeq	r0, r1, r7, lsl #2
    3b60:	002c0400 	eoreq	r0, ip, r0, lsl #8
    3b64:	01030000 	mrseq	r0, (UNDEF: 3)
    3b68:	0000cb06 	andeq	ip, r0, r6, lsl #22
    3b6c:	05020300 	streq	r0, [r2, #-768]	; 0xfffffd00
    3b70:	00000022 	andeq	r0, r0, r2, lsr #32
    3b74:	6b050403 	blvs	144b88 <__bss_end__+0x139c28>
    3b78:	03000000 	movweq	r0, #0
    3b7c:	00660508 	rsbeq	r0, r6, r8, lsl #10
    3b80:	01030000 	mrseq	r0, (UNDEF: 3)
    3b84:	0000c908 	andeq	ip, r0, r8, lsl #18
    3b88:	07020300 	streq	r0, [r2, -r0, lsl #6]
    3b8c:	00000143 	andeq	r0, r0, r3, asr #2
    3b90:	00012905 	andeq	r2, r1, r5, lsl #18
    3b94:	19340500 	ldmdbne	r4!, {r8, sl}
    3b98:	0000006e 	andeq	r0, r0, lr, rrx
    3b9c:	fc070403 	stc2	4, cr0, [r7], {3}
    3ba0:	03000000 	movweq	r0, #0
    3ba4:	00f70708 	rscseq	r0, r7, r8, lsl #14
    3ba8:	01030000 	mrseq	r0, (UNDEF: 3)
    3bac:	0000d208 	andeq	sp, r0, r8, lsl #4
    3bb0:	01070600 	tsteq	r7, r0, lsl #12
    3bb4:	00000054 	andeq	r0, r0, r4, asr r0
    3bb8:	c20e0c04 	andgt	r0, lr, #4, 24	; 0x400
    3bbc:	07000000 	streq	r0, [r0, -r0]
    3bc0:	00000b5c 	andeq	r0, r0, ip, asr fp
    3bc4:	09940700 	ldmibeq	r4, {r8, r9, sl}
    3bc8:	07010000 	streq	r0, [r1, -r0]
    3bcc:	000009d7 	ldrdeq	r0, [r0], -r7
    3bd0:	09e60704 	stmibeq	r6!, {r2, r8, r9, sl}^
    3bd4:	07050000 	streq	r0, [r5, -r0]
    3bd8:	000009f5 	strdeq	r0, [r0], -r5
    3bdc:	0a040706 	beq	1057fc <__bss_end__+0xfa89c>
    3be0:	07070000 	streq	r0, [r7, -r0]
    3be4:	00000b25 	andeq	r0, r0, r5, lsr #22
    3be8:	0a130703 	beq	4c57fc <__bss_end__+0x4ba89c>
    3bec:	00020000 	andeq	r0, r2, r0
    3bf0:	0009a508 	andeq	sl, r9, r8, lsl #10
    3bf4:	06022c00 	streq	r2, [r2], -r0, lsl #24
    3bf8:	00015e08 	andeq	r5, r1, r8, lsl #28
    3bfc:	6f690900 	svcvs	0x00690900
    3c00:	09090200 	stmdbeq	r9, {r9}
    3c04:	00000033 	andeq	r0, r0, r3, lsr r0
    3c08:	65690900 	strbvs	r0, [r9, #-2304]!	; 0xfffff700
    3c0c:	0a020072 	beq	83ddc <__bss_end__+0x78e7c>
    3c10:	00003309 	andeq	r3, r0, r9, lsl #6
    3c14:	69090400 	stmdbvs	r9, {sl}
    3c18:	02007269 	andeq	r7, r0, #-1879048186	; 0x90000006
    3c1c:	00330911 	eorseq	r0, r3, r1, lsl r9
    3c20:	09080000 	stmdbeq	r8, {}	; <UNPREDICTABLE>
    3c24:	0072636c 	rsbseq	r6, r2, ip, ror #6
    3c28:	33091302 	movwcc	r1, #37634	; 0x9302
    3c2c:	0c000000 	stceq	0, cr0, [r0], {-0}
    3c30:	72636d09 	rsbvc	r6, r3, #576	; 0x240
    3c34:	09140200 	ldmdbeq	r4, {r9}
    3c38:	00000033 	andeq	r0, r0, r3, lsr r0
    3c3c:	736c0910 	cmnvc	ip, #16, 18	; 0x40000
    3c40:	15020072 	strne	r0, [r2, #-114]	; 0xffffff8e
    3c44:	00003309 	andeq	r3, r0, r9, lsl #6
    3c48:	6d091400 	cfstrsvs	mvf1, [r9, #-0]
    3c4c:	02007273 	andeq	r7, r0, #805306375	; 0x30000007
    3c50:	00330916 	eorseq	r0, r3, r6, lsl r9
    3c54:	0a180000 	beq	603c5c <__bss_end__+0x5f8cfc>
    3c58:	00000b3c 	andeq	r0, r0, ip, lsr fp
    3c5c:	33091702 	movwcc	r1, #38658	; 0x9702
    3c60:	1c000000 	stcne	0, cr0, [r0], {-0}
    3c64:	000b050a 	andeq	r0, fp, sl, lsl #10
    3c68:	091b0200 	ldmdbeq	fp, {r9}
    3c6c:	00000033 	andeq	r0, r0, r3, lsr r0
    3c70:	09810a20 	stmibeq	r1, {r5, r9, fp}
    3c74:	1d020000 	stcne	0, cr0, [r2, #-0]
    3c78:	00003309 	andeq	r3, r0, r9, lsl #6
    3c7c:	570a2400 	strpl	r2, [sl, -r0, lsl #8]
    3c80:	0200000a 	andeq	r0, r0, #10, 0
    3c84:	0033091e 	eorseq	r0, r3, lr, lsl r9
    3c88:	00280000 	eoreq	r0, r8, r0
    3c8c:	000a5c0b 	andeq	r5, sl, fp, lsl #24
    3c90:	09080100 	stmdbeq	r8, {r8}
    3c94:	00000174 	andeq	r0, r0, r4, ror r1
    3c98:	20215004 	eorcs	r5, r1, r4
    3c9c:	0033040c 	eorseq	r0, r3, ip, lsl #8
    3ca0:	6e0d0000 	cdpvs	0, 0, cr0, cr13, cr0, {0}
    3ca4:	0b000001 	bleq	3cb0 <__code_start__-0x4350>
    3ca8:	00000b44 	andeq	r0, r0, r4, asr #22
    3cac:	8f232901 	svchi	0x00232901
    3cb0:	40000001 	andmi	r0, r0, r1
    3cb4:	0c202150 	stfeqs	f2, [r0], #-320	; 0xfffffec0
    3cb8:	0000c204 	andeq	ip, r0, r4, lsl #4
    3cbc:	01890d00 	orreq	r0, r9, r0, lsl #26
    3cc0:	350e0000 	strcc	r0, [lr, #-0]
    3cc4:	01000008 	tsteq	r0, r8
    3cc8:	9a6406cc 	bls	1905800 <__bss_end__+0x18fa8a0>
    3ccc:	00140000 	andseq	r0, r4, r0
    3cd0:	9c010000 	stcls	0, cr0, [r1], {-0}
    3cd4:	000001b4 			; <UNDEFINED> instruction: 0x000001b4
    3cd8:	009a6c0f 	addseq	r6, sl, pc, lsl #24
    3cdc:	0001b400 	andeq	fp, r1, r0, lsl #8
    3ce0:	c6100000 	ldrgt	r0, [r0], -r0
    3ce4:	01000009 	tsteq	r0, r9
    3ce8:	002505b6 	strhteq	r0, [r5], -r6
    3cec:	9a440000 	bls	1103cf4 <__bss_end__+0x10f8d94>
    3cf0:	00200000 	eoreq	r0, r0, r0
    3cf4:	9c010000 	stcls	0, cr0, [r1], {-0}
    3cf8:	000001eb 	andeq	r0, r0, fp, ror #3
    3cfc:	009a4c0f 	addseq	r4, sl, pc, lsl #24
    3d00:	0005a000 	andeq	sl, r5, r0
    3d04:	9a541100 	bls	150810c <__bss_end__+0x14fd1ac>
    3d08:	05ac0000 	streq	r0, [ip, #0]!
    3d0c:	01120000 	tsteq	r2, r0
    3d10:	640c0550 	strvs	r0, [ip], #-1360	; 0xfffffab0
    3d14:	00202150 	eoreq	r2, r0, r0, asr r1
    3d18:	0b171000 	bleq	5c7d20 <__bss_end__+0x5bcdc0>
    3d1c:	b3010000 	movwlt	r0, #4096	; 0x1000
    3d20:	00002505 	andeq	r2, r0, r5, lsl #10
    3d24:	009a3400 	addseq	r3, sl, r0, lsl #8
    3d28:	00001000 	andeq	r1, r0, r0
    3d2c:	189c0100 	ldmne	ip, {r8}
    3d30:	0f000002 	svceq	0x00000002
    3d34:	00009a3c 	andeq	r9, r0, ip, lsr sl
    3d38:	000005a0 	andeq	r0, r0, r0, lsr #11
    3d3c:	009a400f 	addseq	r4, sl, pc
    3d40:	00030900 	andeq	r0, r3, r0, lsl #18
    3d44:	520e0000 	andpl	r0, lr, #0, 0
    3d48:	0100000b 	tsteq	r0, fp
    3d4c:	9a0406ab 	bls	105800 <__bss_end__+0xfa8a0>
    3d50:	00300000 	eorseq	r0, r0, r0
    3d54:	9c010000 	stcls	0, cr0, [r1], {-0}
    3d58:	0000027c 	andeq	r0, r0, ip, ror r2
    3d5c:	01006313 	tsteq	r0, r3, lsl r3
    3d60:	002c19ab 	eoreq	r1, ip, fp, lsr #19
    3d64:	18c70000 	stmiane	r7, {}^	; <UNPREDICTABLE>
    3d68:	18c30000 	stmiane	r3, {}^	; <UNPREDICTABLE>
    3d6c:	100f0000 	andne	r0, pc, r0
    3d70:	a000009a 	mulge	r0, sl, r0
    3d74:	0f000005 	svceq	0x00000005
    3d78:	00009a14 	andeq	r9, r0, r4, lsl sl
    3d7c:	000002db 	ldrdeq	r0, [r0], -fp
    3d80:	009a2814 	addseq	r2, sl, r4, lsl r8
    3d84:	0005b800 	andeq	fp, r5, r0, lsl #16
    3d88:	00027200 	andeq	r7, r2, r0, lsl #4
    3d8c:	50011200 	andpl	r1, r1, r0, lsl #4
    3d90:	50400c05 	subpl	r0, r0, r5, lsl #24
    3d94:	01122021 	tsteq	r2, r1, lsr #32
    3d98:	00740551 	rsbseq	r0, r4, r1, asr r5
    3d9c:	001aff08 	andseq	pc, sl, r8, lsl #30
    3da0:	009a2c0f 	addseq	r2, sl, pc, lsl #24
    3da4:	0005a000 	andeq	sl, r5, r0
    3da8:	68100000 	ldmdavs	r0, {}	; <UNPREDICTABLE>
    3dac:	0100000a 	tsteq	r0, sl
    3db0:	002505a3 	eoreq	r0, r5, r3, lsr #11
    3db4:	99d40000 	ldmibls	r4, {}^	; <UNPREDICTABLE>
    3db8:	00300000 	eorseq	r0, r0, r0
    3dbc:	9c010000 	stcls	0, cr0, [r1], {-0}
    3dc0:	000002db 	ldrdeq	r0, [r0], -fp
    3dc4:	01006315 	tsteq	r0, r5, lsl r3
    3dc8:	002509a7 	eoreq	r0, r5, r7, lsr #19
    3dcc:	18e70000 	stmiane	r7!, {}^	; <UNPREDICTABLE>
    3dd0:	18e50000 	stmiane	r5!, {}^	; <UNPREDICTABLE>
    3dd4:	dc0f0000 	stcle	0, cr0, [pc], {-0}
    3dd8:	a0000099 	mulge	r0, r9, r0
    3ddc:	0f000005 	svceq	0x00000005
    3de0:	000099e0 	andeq	r9, r0, r0, ror #19
    3de4:	00000309 	andeq	r0, r0, r9, lsl #6
    3de8:	0099f014 	addseq	pc, r9, r4, lsl r0	; <UNPREDICTABLE>
    3dec:	0005ac00 	andeq	sl, r5, r0, lsl #24
    3df0:	0002d100 	andeq	sp, r2, r0, lsl #2
    3df4:	50011200 	andpl	r1, r1, r0, lsl #4
    3df8:	50400c05 	subpl	r0, r0, r5, lsl #24
    3dfc:	0f002021 	svceq	0x00002021
    3e00:	000099f8 	strdeq	r9, [r0], -r8
    3e04:	000005a0 	andeq	r0, r0, r0, lsr #11
    3e08:	09b81000 	ldmibeq	r8!, {ip}
    3e0c:	94010000 	strls	r0, [r1], #-0
    3e10:	00002505 	andeq	r2, r0, r5, lsl #10
    3e14:	0099b400 	addseq	fp, r9, r0, lsl #8
    3e18:	00002000 	andeq	r2, r0, r0
    3e1c:	099c0100 	ldmibeq	ip, {r8}
    3e20:	11000003 	tstne	r0, r3
    3e24:	000099c0 	andeq	r9, r0, r0, asr #19
    3e28:	000005ac 	andeq	r0, r0, ip, lsr #11
    3e2c:	05500112 	ldrbeq	r0, [r0, #-274]	; 0xfffffeee
    3e30:	2150640c 	cmpcs	r0, ip, lsl #8
    3e34:	10000020 	andne	r0, r0, r0, lsr #32
    3e38:	00000986 	andeq	r0, r0, r6, lsl #19
    3e3c:	25058b01 	strcs	r8, [r5, #-2817]	; 0xfffff4ff
    3e40:	9c000000 	stcls	0, cr0, [r0], {-0}
    3e44:	18000099 	stmdane	r0, {r0, r3, r4, r7}
    3e48:	01000000 	mrseq	r0, (UNDEF: 0)
    3e4c:	0003379c 	muleq	r3, ip, r7
    3e50:	99a81100 	stmibls	r8!, {r8, ip}
    3e54:	05ac0000 	streq	r0, [ip, #0]!
    3e58:	01120000 	tsteq	r2, r0
    3e5c:	640c0550 	strvs	r0, [ip], #-1360	; 0xfffffab0
    3e60:	00202150 	eoreq	r2, r0, r0, asr r1
    3e64:	08530e00 	ldmdaeq	r3, {r9, sl, fp}^
    3e68:	45010000 	strmi	r0, [r1, #-0]
    3e6c:	0098ec06 	addseq	lr, r8, r6, lsl #24
    3e70:	0000b000 	andeq	fp, r0, r0
    3e74:	849c0100 	ldrhi	r0, [ip], #256	; 0x100
    3e78:	16000004 	strne	r0, [r0], -r4
    3e7c:	00000978 	andeq	r0, r0, r8, ror r9
    3e80:	620e7e01 	andvs	r7, lr, #1, 28
    3e84:	0e000000 	cdpeq	0, 0, cr0, cr0, cr0, {0}
    3e88:	98fc1401 	ldmls	ip!, {r0, sl, ip}^
    3e8c:	05c40000 	strbeq	r0, [r4]
    3e90:	03730000 	cmneq	r3, #0, 0
    3e94:	01120000 	tsteq	r2, r0
    3e98:	123e0150 	eorsne	r0, lr, #20
    3e9c:	32015101 	andcc	r5, r1, #1073741824	; 0x40000000
    3ea0:	99081400 	stmdbls	r8, {sl, ip}
    3ea4:	05c40000 	strbeq	r0, [r4]
    3ea8:	038b0000 	orreq	r0, fp, #0, 0
    3eac:	01120000 	tsteq	r2, r0
    3eb0:	123f0150 	eorsne	r0, pc, #20
    3eb4:	32015101 	andcc	r5, r1, #1073741824	; 0x40000000
    3eb8:	990c0f00 	stmdbls	ip, {r8, r9, sl, fp}
    3ebc:	05a00000 	streq	r0, [r0, #0]!
    3ec0:	18140000 	ldmdane	r4, {}	; <UNPREDICTABLE>
    3ec4:	3d000099 	stccc	0, cr0, [r0, #-612]	; 0xfffffd9c
    3ec8:	b0000005 	andlt	r0, r0, r5
    3ecc:	12000003 	andne	r0, r0, #3, 0
    3ed0:	0c055001 	stceq	0, cr5, [r5], {1}
    3ed4:	20215004 	eorcs	r5, r1, r4
    3ed8:	01510112 	cmpeq	r1, r2, lsl r1
    3edc:	1c0f0031 	stcne	0, cr0, [pc], {49}	; 0x31
    3ee0:	a0000099 	mulge	r0, r9, r0
    3ee4:	14000005 	strne	r0, [r0], #-5
    3ee8:	0000992c 	andeq	r9, r0, ip, lsr #18
    3eec:	000005b8 			; <UNDEFINED> instruction: 0x000005b8
    3ef0:	000003d2 	ldrdeq	r0, [r0], -r2
    3ef4:	02500112 	subseq	r0, r0, #-2147483644	; 0x80000004
    3ef8:	01120074 	tsteq	r2, r4, ror r0
    3efc:	00300151 	eorseq	r0, r0, r1, asr r1
    3f00:	00993814 	addseq	r3, r9, r4, lsl r8
    3f04:	0005b800 	andeq	fp, r5, r0, lsl #16
    3f08:	0003ee00 	andeq	lr, r3, r0, lsl #28
    3f0c:	50011200 	andpl	r1, r1, r0, lsl #4
    3f10:	50440c05 	subpl	r0, r4, r5, lsl #24
    3f14:	01122021 	tsteq	r2, r1, lsr #32
    3f18:	00300151 	eorseq	r0, r0, r1, asr r1
    3f1c:	00994414 	addseq	r4, r9, r4, lsl r4
    3f20:	0005b800 	andeq	fp, r5, r0, lsl #16
    3f24:	00040a00 	andeq	r0, r4, r0, lsl #20
    3f28:	50011200 	andpl	r1, r1, r0, lsl #4
    3f2c:	504c0c05 	subpl	r0, ip, r5, lsl #24
    3f30:	01122021 	tsteq	r2, r1, lsr #32
    3f34:	00330151 	eorseq	r0, r3, r1, asr r1
    3f38:	00995014 	addseq	r5, r9, r4, lsl r0
    3f3c:	0005b800 	andeq	fp, r5, r0, lsl #16
    3f40:	00042600 	andeq	r2, r4, r0, lsl #12
    3f44:	50011200 	andpl	r1, r1, r0, lsl #4
    3f48:	50500c05 	subspl	r0, r0, r5, lsl #24
    3f4c:	01122021 	tsteq	r2, r1, lsr #32
    3f50:	00300151 	eorseq	r0, r0, r1, asr r1
    3f54:	00995c14 	addseq	r5, r9, r4, lsl ip
    3f58:	0005b800 	andeq	fp, r5, r0, lsl #16
    3f5c:	00044300 	andeq	r4, r4, r0, lsl #6
    3f60:	50011200 	andpl	r1, r1, r0, lsl #4
    3f64:	50480c05 	subpl	r0, r8, r5, lsl #24
    3f68:	01122021 	tsteq	r2, r1, lsr #32
    3f6c:	c7080251 	smlsdgt	r8, r1, r2, r0
    3f70:	99681400 	stmdbls	r8!, {sl, ip}^
    3f74:	05b80000 	ldreq	r0, [r8, #0]!
    3f78:	04610000 	strbteq	r0, [r1], #-0
    3f7c:	01120000 	tsteq	r2, r0
    3f80:	680c0550 	stmdavs	ip, {r4, r6, r8, sl}
    3f84:	12202150 	eorne	r2, r0, #20
    3f88:	0a035101 	beq	d8394 <__bss_end__+0xcd434>
    3f8c:	1400010e 	strne	r0, [r0], #-270	; 0xfffffef2
    3f90:	00009974 	andeq	r9, r0, r4, ror r9
    3f94:	000005b8 			; <UNDEFINED> instruction: 0x000005b8
    3f98:	0000047a 	andeq	r0, r0, sl, ror r4
    3f9c:	02500112 	subseq	r0, r0, #-2147483644	; 0x80000004
    3fa0:	01120074 	tsteq	r2, r4, ror r0
    3fa4:	00330151 	eorseq	r0, r3, r1, asr r1
    3fa8:	0099780f 	addseq	r7, r9, pc, lsl #16
    3fac:	0005a000 	andeq	sl, r5, r0
    3fb0:	0a0e0000 	beq	383fb8 <__bss_end__+0x379058>
    3fb4:	0100000b 	tsteq	r0, fp
    3fb8:	9a780635 	bls	1e05894 <__bss_end__+0x1dfa934>
    3fbc:	00240000 	eoreq	r0, r4, r0
    3fc0:	9c010000 	stcls	0, cr0, [r1], {-0}
    3fc4:	000004d3 	ldrdeq	r0, [r0], -r3
    3fc8:	009a800f 	addseq	r8, sl, pc
    3fcc:	00019400 	andeq	r9, r1, r0, lsl #8
    3fd0:	9a840f00 	bls	fe107bd8 <__bss_end__+0xfe0fcc78>
    3fd4:	05a00000 	streq	r0, [r0, #0]!
    3fd8:	90140000 	andsls	r0, r4, r0
    3fdc:	d300009a 	movwle	r0, #154	; 0x9a
    3fe0:	c9000004 	stmdbgt	r0, {r2}
    3fe4:	12000004 	andne	r0, r0, #4, 0
    3fe8:	0c055001 	stceq	0, cr5, [r5], {1}
    3fec:	20215004 	eorcs	r5, r1, r4
    3ff0:	02510112 	subseq	r0, r1, #-2147483644	; 0x80000004
    3ff4:	0f00fe09 	svceq	0x0000fe09
    3ff8:	00009a94 	muleq	r0, r4, sl
    3ffc:	000005a0 	andeq	r0, r0, r0, lsr #11
    4000:	0b491700 	bleq	1249c08 <__bss_end__+0x123eca8>
    4004:	31010000 	mrscc	r0, (UNDEF: 1)
    4008:	0098ac0d 	addseq	sl, r8, sp, lsl #24
    400c:	00002000 	andeq	r2, r0, r0
    4010:	369c0100 	ldrcc	r0, [ip], r0, lsl #2
    4014:	18000005 	stmdane	r0, {r0, r2}
    4018:	00000ba3 	andeq	r0, r0, r3, lsr #23
    401c:	36253101 	strtcc	r3, [r5], -r1, lsl #2
    4020:	fe000005 	cdp2	0, 0, cr0, cr0, cr5, {0}
    4024:	fa000018 	blx	408c <__code_start__-0x3f74>
    4028:	13000018 	movwne	r0, #24
    402c:	006c6176 	rsbeq	r6, ip, r6, ror r1
    4030:	2c343101 	ldfcss	f3, [r4], #-4
    4034:	20000000 	andcs	r0, r0, r0
    4038:	1c000019 	stcne	0, cr0, [r0], {25}
    403c:	14000019 	strne	r0, [r0], #-25	; 0xffffffe7
    4040:	000098bc 			; <UNDEFINED> instruction: 0x000098bc
    4044:	000005ac 	andeq	r0, r0, ip, lsr #11
    4048:	00000525 	andeq	r0, r0, r5, lsr #10
    404c:	02500112 	subseq	r0, r0, #-2147483644	; 0x80000004
    4050:	11000074 	tstne	r0, r4, ror r0
    4054:	000098c8 	andeq	r9, r0, r8, asr #17
    4058:	000005b8 			; <UNDEFINED> instruction: 0x000005b8
    405c:	02500112 	subseq	r0, r0, #-2147483644	; 0x80000004
    4060:	00000074 	andeq	r0, r0, r4, ror r0
    4064:	053c040c 	ldreq	r0, [ip, #-1036]!	; 0xfffffbf4
    4068:	17190000 	ldrne	r0, [r9, -r0]
    406c:	00000b34 	andeq	r0, r0, r4, lsr fp
    4070:	cc0d2e01 	stcgt	14, cr2, [sp], {1}
    4074:	20000098 	mulcs	r0, r8, r0
    4078:	01000000 	mrseq	r0, (UNDEF: 0)
    407c:	0005a09c 	muleq	r5, ip, r0
    4080:	0ba31800 	bleq	fe8ca088 <__bss_end__+0xfe8bf128>
    4084:	2e010000 	cdpcs	0, 0, cr0, cr1, cr0, {0}
    4088:	00053624 	andeq	r3, r5, r4, lsr #12
    408c:	00194200 	andseq	r4, r9, r0, lsl #4
    4090:	00193e00 	andseq	r3, r9, r0, lsl #28
    4094:	61761300 	cmnvs	r6, r0, lsl #6
    4098:	2e01006c 	cdpcs	0, 0, cr0, cr1, cr12, {3}
    409c:	00002c33 	andeq	r2, r0, r3, lsr ip
    40a0:	00196400 	andseq	r6, r9, r0, lsl #8
    40a4:	00196000 	andseq	r6, r9, r0
    40a8:	98dc1400 	ldmls	ip, {sl, ip}^
    40ac:	05ac0000 	streq	r0, [ip, #0]!
    40b0:	058f0000 	streq	r0, [pc]	; 40b8 <__code_start__-0x3f48>
    40b4:	01120000 	tsteq	r2, r0
    40b8:	00740250 	rsbseq	r0, r4, r0, asr r2
    40bc:	98e81100 	stmials	r8!, {r8, ip}^
    40c0:	05b80000 	ldreq	r0, [r8, #0]!
    40c4:	01120000 	tsteq	r2, r0
    40c8:	00740250 	rsbseq	r0, r4, r0, asr r2
    40cc:	171a0000 	ldrne	r0, [sl, -r0]
    40d0:	17000009 	strne	r0, [r0, -r9]
    40d4:	03000009 	movweq	r0, #9
    40d8:	7e1a06a1 	cfmsub32vc	mvax5, mvfx0, mvfx10, mvfx1
    40dc:	7e00000b 	cdpvc	0, 0, cr0, cr0, cr11, {0}
    40e0:	0300000b 	movweq	r0, #11
    40e4:	721a0bc8 	andsvc	r0, sl, #200, 22	; 0x32000
    40e8:	72000009 	andvc	r0, r0, #9, 0
    40ec:	03000009 	movweq	r0, #9
    40f0:	6c1a06b3 	ldcvs	6, cr0, [sl], {179}	; 0xb3
    40f4:	6c00000b 	stcvs	0, cr0, [r0], {11}
    40f8:	0400000b 	streq	r0, [r0], #-11
    40fc:	e9000619 	stmdb	r0, {r0, r3, r4, r9, sl}
    4100:	04000008 	streq	r0, [r0], #-8
    4104:	0015d700 	andseq	sp, r5, r0, lsl #14
    4108:	72010400 	andvc	r0, r1, #0, 8
    410c:	0c00000a 	stceq	0, cr0, [r0], {10}
    4110:	00000c0e 	andeq	r0, r0, lr, lsl #24
    4114:	00000a22 	andeq	r0, r0, r2, lsr #20
    4118:	00009a9c 	muleq	r0, ip, sl
    411c:	000003b0 			; <UNDEFINED> instruction: 0x000003b0
    4120:	0000223a 	andeq	r2, r0, sl, lsr r2
    4124:	69050402 	stmdbvs	r5, {r1, sl}
    4128:	0300746e 	movweq	r7, #1134	; 0x46e
    412c:	01010704 	tsteq	r1, r4, lsl #14
    4130:	01030000 	mrseq	r0, (UNDEF: 3)
    4134:	0000cb06 	andeq	ip, r0, r6, lsl #22
    4138:	05020300 	streq	r0, [r2, #-768]	; 0xfffffd00
    413c:	00000022 	andeq	r0, r0, r2, lsr #32
    4140:	6b050403 	blvs	145154 <__bss_end__+0x13a1f4>
    4144:	03000000 	movweq	r0, #0
    4148:	00660508 	rsbeq	r0, r6, r8, lsl #10
    414c:	01030000 	mrseq	r0, (UNDEF: 3)
    4150:	0000c908 	andeq	ip, r0, r8, lsl #18
    4154:	07020300 	streq	r0, [r2, -r0, lsl #6]
    4158:	00000143 	andeq	r0, r0, r3, asr #2
    415c:	00012904 	andeq	r2, r1, r4, lsl #18
    4160:	19340300 	ldmdbne	r4!, {r8, r9}
    4164:	00000069 	andeq	r0, r0, r9, rrx
    4168:	fc070403 	stc2	4, cr0, [r7], {3}
    416c:	03000000 	movweq	r0, #0
    4170:	00f70708 	rscseq	r0, r7, r8, lsl #14
    4174:	01030000 	mrseq	r0, (UNDEF: 3)
    4178:	0000d208 	andeq	sp, r0, r8, lsl #4
    417c:	00770500 	rsbseq	r0, r7, r0, lsl #10
    4180:	08030000 	stmdaeq	r3, {}	; <UNPREDICTABLE>
    4184:	00038904 	andeq	r8, r3, r4, lsl #18
    4188:	07040600 	streq	r0, [r4, -r0, lsl #12]
    418c:	002c0407 	eoreq	r0, ip, r7, lsl #8
    4190:	1f010000 	svcne	0x00010000
    4194:	0000a406 	andeq	sl, r0, r6, lsl #8
    4198:	0ba80800 	bleq	fea061a0 <__bss_end__+0xfe9fb240>
    419c:	00000000 	andeq	r0, r0, r0
    41a0:	09000020 	stmdbeq	r0, {r5}
    41a4:	0000077e 	andeq	r0, r0, lr, ror r7
    41a8:	770d2201 	strvc	r2, [sp, -r1, lsl #4]
    41ac:	0a000000 	beq	41b4 <__code_start__-0x3e4c>
    41b0:	000004d3 	ldrdeq	r0, [r0], -r3
    41b4:	c20e2301 	andgt	r2, lr, #67108864	; 0x4000000
    41b8:	05000000 	streq	r0, [r0, #-0]
    41bc:	00ab2403 	adceq	r2, fp, r3, lsl #8
    41c0:	77040b00 	strvc	r0, [r4, -r0, lsl #22]
    41c4:	0a000000 	beq	41cc <__code_start__-0x3e34>
    41c8:	00000b8c 	andeq	r0, r0, ip, lsl #23
    41cc:	c20e2401 	andgt	r2, lr, #16777216	; 0x1000000
    41d0:	05000000 	streq	r0, [r0, #-0]
    41d4:	00ab2003 	adceq	r2, fp, r3
    41d8:	0bed0a00 	bleq	ffb469e0 <__bss_end__+0xffb3ba80>
    41dc:	25010000 	strcs	r0, [r1, #-0]
    41e0:	0000c20e 	andeq	ip, r0, lr, lsl #4
    41e4:	1c030500 	cfstr32ne	mvfx0, [r3], {-0}
    41e8:	0c0000ab 	stceq	0, cr0, [r0], {171}	; 0xab
    41ec:	00000bc3 	andeq	r0, r0, r3, asr #23
    41f0:	ec067501 	cfstr32	mvfx7, [r6], {1}
    41f4:	6000009d 	mulvs	r0, sp, r0
    41f8:	01000000 	mrseq	r0, (UNDEF: 0)
    41fc:	0001649c 	muleq	r1, ip, r4
    4200:	00700d00 	rsbseq	r0, r0, r0, lsl #26
    4204:	8a167501 	bhi	5a1610 <__bss_end__+0x5966b0>
    4208:	88000000 	stmdahi	r0, {}	; <UNPREDICTABLE>
    420c:	82000019 	andhi	r0, r0, #25, 0
    4210:	0e000019 	mcreq	0, 0, r0, cr0, cr9, {0}
    4214:	00000093 	muleq	r0, r3, r0
    4218:	00000174 	andeq	r0, r0, r4, ror r1
    421c:	ab080305 	blge	204e38 <__bss_end__+0x1f9ed8>
    4220:	380f0000 	stmdacc	pc, {}	; <UNPREDICTABLE>
    4224:	bc00009e 	stclt	0, cr0, [r0], {158}	; 0x9e
    4228:	5a000008 	bpl	4250 <__code_start__-0x3db0>
    422c:	10000001 	andne	r0, r0, r1
    4230:	03055001 	movweq	r5, #20481	; 0x5001
    4234:	0000aa80 	andeq	sl, r0, r0, lsl #21
    4238:	05510110 	ldrbeq	r0, [r1, #-272]	; 0xfffffef0
    423c:	00a91803 	adceq	r1, r9, r3, lsl #16
    4240:	52011000 	andpl	r1, r1, #0, 0
    4244:	ab080305 	blge	204e60 <__bss_end__+0x1f9f00>
    4248:	01100000 	tsteq	r0, r0
    424c:	77080253 	smlsdvc	r8, r3, r2, r0
    4250:	007d0210 	rsbseq	r0, sp, r0, lsl r2
    4254:	5001f303 	andpl	pc, r1, r3, lsl #6
    4258:	9e3c1100 	rsflse	f1, f4, f0
    425c:	08c80000 	stmiaeq	r8, {}^	; <UNPREDICTABLE>
    4260:	12000000 	andne	r0, r0, #0, 0
    4264:	0000007e 	andeq	r0, r0, lr, ror r0
    4268:	00000174 	andeq	r0, r0, r4, ror r1
    426c:	00002c13 	andeq	r2, r0, r3, lsl ip
    4270:	05000900 	streq	r0, [r0, #-2304]	; 0xfffff700
    4274:	00000164 	andeq	r0, r0, r4, ror #2
    4278:	000bb114 	andeq	fp, fp, r4, lsl r1
    427c:	06720100 	ldrbteq	r0, [r2], -r0, lsl #2
    4280:	00009dd8 	ldrdeq	r9, [r0], -r8
    4284:	00000014 	andeq	r0, r0, r4, lsl r0
    4288:	1d0c9c01 	stcne	12, cr9, [ip, #-4]
    428c:	01000003 	tsteq	r0, r3
    4290:	9dd4066f 	ldclls	6, cr0, [r4, #444]	; 0x1bc
    4294:	00040000 	andeq	r0, r4, r0
    4298:	9c010000 	stcls	0, cr0, [r1], {-0}
    429c:	000001ae 	andeq	r0, r0, lr, lsr #3
    42a0:	01007015 	tsteq	r0, r5, lsl r0
    42a4:	008a126f 	addeq	r1, sl, pc, ror #4
    42a8:	50010000 	andpl	r0, r1, r0
    42ac:	0c501600 	mrrceq	6, 0, r1, r0, cr0
    42b0:	5e010000 	cdppl	0, 0, cr0, cr1, cr0, {0}
    42b4:	00008a07 	andeq	r8, r0, r7, lsl #20
    42b8:	009cbc00 	addseq	fp, ip, r0, lsl #24
    42bc:	00011800 	andeq	r1, r1, r0, lsl #16
    42c0:	2c9c0100 	ldfcss	f0, [ip], {0}
    42c4:	17000004 	strne	r0, [r0, -r4]
    42c8:	000003d8 	ldrdeq	r0, [r0], -r8
    42cc:	2c205e01 	stccs	14, cr5, [r0], #-4
    42d0:	c9000000 	stmdbgt	r0, {}	; <UNPREDICTABLE>
    42d4:	b5000019 	strlt	r0, [r0, #-25]	; 0xffffffe7
    42d8:	17000019 	smladne	r0, r9, r0, r0
    42dc:	00000bcd 	andeq	r0, r0, sp, asr #23
    42e0:	2c315e01 	ldccs	14, cr5, [r1], #-4
    42e4:	62000000 	andvs	r0, r0, #0, 0
    42e8:	4e00001a 	mcrmi	0, 0, r0, cr0, cr10, {0}
    42ec:	0e00001a 	mcreq	0, 0, r0, cr0, cr10, {0}
    42f0:	00000093 	muleq	r0, r3, r0
    42f4:	0000043c 	andeq	r0, r0, ip, lsr r4
    42f8:	aaf00305 	bge	ffc04f14 <__bss_end__+0xffbf9fb4>
    42fc:	68180000 	ldmdavs	r8, {}	; <UNPREDICTABLE>
    4300:	0e660100 	poweqs	f0, f6, f0
    4304:	0000002c 	andeq	r0, r0, ip, lsr #32
    4308:	00001b18 	andeq	r1, r0, r8, lsl fp
    430c:	00001b0c 	andeq	r1, r0, ip, lsl #22
    4310:	00085419 	andeq	r5, r8, r9, lsl r4
    4314:	009ccc00 	addseq	ip, ip, r0, lsl #24
    4318:	9ccc0400 	cfstrdls	mvd0, [ip], {0}
    431c:	00040000 	andeq	r0, r4, r0
    4320:	60010000 	andvs	r0, r1, r0
    4324:	00023805 	andeq	r3, r2, r5, lsl #16
    4328:	08651a00 	stmdaeq	r5!, {r9, fp, ip}^
    432c:	1b6c0000 	blne	1b04334 <__bss_end__+0x1af93d4>
    4330:	1b6a0000 	blne	1a84338 <__bss_end__+0x1a793d8>
    4334:	19000000 	stmdbne	r0, {}	; <UNPREDICTABLE>
    4338:	00000896 	muleq	r0, r6, r8
    433c:	00009cd8 	ldrdeq	r9, [r0], -r8
    4340:	009cd802 	addseq	sp, ip, r2, lsl #16
    4344:	00000800 	andeq	r0, r0, r0, lsl #16
    4348:	11610100 	cmnne	r1, r0, lsl #2
    434c:	0000026c 	andeq	r0, r0, ip, ror #4
    4350:	0008b11a 	andeq	fp, r8, sl, lsl r1
    4354:	001b8100 	andseq	r8, fp, r0, lsl #2
    4358:	001b7f00 	andseq	r7, fp, r0, lsl #30
    435c:	08a71a00 	stmiaeq	r7!, {r9, fp, ip}
    4360:	1b970000 	blne	fe5c4368 <__bss_end__+0xfe5b9408>
    4364:	1b950000 	blne	fe54436c <__bss_end__+0xfe53940c>
    4368:	1b000000 	blne	4370 <__code_start__-0x3c90>
    436c:	0000081f 	andeq	r0, r0, pc, lsl r8
    4370:	00009ce8 	andeq	r9, r0, r8, ror #25
    4374:	0000f801 	andeq	pc, r0, r1, lsl #16
    4378:	09670100 	stmdbeq	r7!, {r8}^
    437c:	0000030a 	andeq	r0, r0, sl, lsl #6
    4380:	00083a1a 	andeq	r3, r8, sl, lsl sl
    4384:	001bb000 	andseq	fp, fp, r0
    4388:	001baa00 	andseq	sl, fp, r0, lsl #20
    438c:	08301a00 	ldmdaeq	r0!, {r9, fp, ip}
    4390:	1bf70000 	blne	ffdc4398 <__bss_end__+0xffdb9438>
    4394:	1bef0000 	blne	ffbc439c <__bss_end__+0xffbb943c>
    4398:	f81c0000 			; <UNDEFINED> instruction: 0xf81c0000
    439c:	19000000 	stmdbne	r0, {}	; <UNPREDICTABLE>
    43a0:	00000854 	andeq	r0, r0, r4, asr r8
    43a4:	00009ce8 	andeq	r9, r0, r8, ror #25
    43a8:	009ce804 	addseq	lr, ip, r4, lsl #16
    43ac:	00000400 	andeq	r0, r0, r0, lsl #8
    43b0:	05110100 	ldreq	r0, [r1, #-256]	; 0xffffff00
    43b4:	000002c7 	andeq	r0, r0, r7, asr #5
    43b8:	0008651a 	andeq	r6, r8, sl, lsl r5
    43bc:	001c3500 	andseq	r3, ip, r0, lsl #10
    43c0:	001c3300 	andseq	r3, ip, r0, lsl #6
    43c4:	800f0000 	andhi	r0, pc, r0
    43c8:	bc00009d 	stclt	0, cr0, [r0], {157}	; 0x9d
    43cc:	ff000008 			; <UNDEFINED> instruction: 0xff000008
    43d0:	10000002 	andne	r0, r0, r2
    43d4:	03055001 	movweq	r5, #20481	; 0x5001
    43d8:	0000a08c 	andeq	sl, r0, ip, lsl #1
    43dc:	05510110 	ldrbeq	r0, [r1, #-272]	; 0xfffffef0
    43e0:	00a91803 	adceq	r1, r9, r3, lsl #16
    43e4:	52011000 	andpl	r1, r1, #0, 0
    43e8:	ab000305 	blge	5004 <__code_start__-0x2ffc>
    43ec:	01100000 	tsteq	r0, r0
    43f0:	10410153 	subne	r0, r1, r3, asr r1
    43f4:	05007d02 	streq	r7, [r0, #-3330]	; 0xfffff2fe
    43f8:	00aa2c03 	adceq	r2, sl, r3, lsl #24
    43fc:	84110000 	ldrhi	r0, [r1], #-0
    4400:	c800009d 	stmdagt	r0, {r0, r2, r3, r4, r7}
    4404:	00000008 	andeq	r0, r0, r8
    4408:	08701900 	ldmdaeq	r0!, {r8, fp, ip}^
    440c:	9d000000 	stcls	0, cr0, [r0, #-0]
    4410:	00030000 	andeq	r0, r3, r0
    4414:	0400009d 	streq	r0, [r0], #-157	; 0xffffff63
    4418:	01000000 	mrseq	r0, (UNDEF: 0)
    441c:	033e0568 	teqeq	lr, #104, 10	; 0x1a000000
    4420:	8b1a0000 	blhi	684428 <__bss_end__+0x6794c8>
    4424:	4a000008 	bmi	444c <__code_start__-0x3bb4>
    4428:	4800001c 	stmdami	r0, {r2, r3, r4}
    442c:	1a00001c 	bne	44a4 <__code_start__-0x3b5c>
    4430:	00000881 	andeq	r0, r0, r1, lsl #17
    4434:	00001c5f 	andeq	r1, r0, pc, asr ip
    4438:	00001c5d 	andeq	r1, r0, sp, asr ip
    443c:	9d180f00 	ldcls	15, cr0, [r8, #-0]
    4440:	04410000 	strbeq	r0, [r1], #-0
    4444:	03530000 	cmpeq	r3, #0, 0
    4448:	01100000 	tsteq	r0, r0
    444c:	01f30350 	mvnseq	r0, r0, asr r3
    4450:	3c0f0050 	stccc	0, cr0, [pc], {80}	; 0x50
    4454:	bc00009d 	stclt	0, cr0, [r0], {157}	; 0x9d
    4458:	8c000008 	stchi	0, cr0, [r0], {8}
    445c:	10000003 	andne	r0, r0, r3
    4460:	03055001 	movweq	r5, #20481	; 0x5001
    4464:	0000a08c 	andeq	sl, r0, ip, lsl #1
    4468:	05510110 	ldrbeq	r0, [r1, #-272]	; 0xfffffef0
    446c:	00a91803 	adceq	r1, r9, r3, lsl #16
    4470:	52011000 	andpl	r1, r1, #0, 0
    4474:	aaf00305 	bge	ffc05090 <__bss_end__+0xffbfa130>
    4478:	01100000 	tsteq	r0, r0
    447c:	5f080253 	svcpl	0x00080253
    4480:	007d0210 	rsbseq	r0, sp, r0, lsl r2
    4484:	a9280305 	stmdbge	r8!, {r0, r2, r8, r9}
    4488:	11000000 	mrsne	r0, (UNDEF: 0)
    448c:	00009d40 	andeq	r9, r0, r0, asr #26
    4490:	000008c8 	andeq	r0, r0, r8, asr #17
    4494:	009d4411 	addseq	r4, sp, r1, lsl r4
    4498:	0008d400 	andeq	sp, r8, r0, lsl #8
    449c:	9d600f00 	stclls	15, cr0, [r0, #-0]
    44a0:	08bc0000 	ldmeq	ip!, {}	; <UNPREDICTABLE>
    44a4:	03d70000 	bicseq	r0, r7, #0, 0
    44a8:	01100000 	tsteq	r0, r0
    44ac:	e4030550 	str	r0, [r3], #-1360	; 0xfffffab0
    44b0:	100000a9 	andne	r0, r0, r9, lsr #1
    44b4:	03055101 	movweq	r5, #20737	; 0x5101
    44b8:	0000a918 	andeq	sl, r0, r8, lsl r9
    44bc:	05520110 	ldrbeq	r0, [r2, #-272]	; 0xfffffef0
    44c0:	00aaf003 	adceq	pc, sl, r3
    44c4:	53011000 	movwpl	r1, #4096	; 0x1000
    44c8:	10600802 	rsbne	r0, r0, r2, lsl #16
    44cc:	05007d02 	streq	r7, [r0, #-3330]	; 0xfffff2fe
    44d0:	00aa1803 	adceq	r1, sl, r3, lsl #16
    44d4:	64110000 	ldrvs	r0, [r1], #-0
    44d8:	c800009d 	stmdagt	r0, {r0, r2, r3, r4, r7}
    44dc:	11000008 	tstne	r0, r8
    44e0:	00009d88 	andeq	r9, r0, r8, lsl #27
    44e4:	000008d4 	ldrdeq	r0, [r0], -r4
    44e8:	009da40f 	addseq	sl, sp, pc, lsl #8
    44ec:	0008bc00 	andeq	fp, r8, r0, lsl #24
    44f0:	00042200 	andeq	r2, r4, r0, lsl #4
    44f4:	50011000 	andpl	r1, r1, r0
    44f8:	aa380305 	bge	e05114 <__bss_end__+0xdfa1b4>
    44fc:	01100000 	tsteq	r0, r0
    4500:	18030551 	stmdane	r3, {r0, r4, r6, r8, sl}
    4504:	100000a9 	andne	r0, r0, r9, lsr #1
    4508:	03055201 	movweq	r5, #20993	; 0x5201
    450c:	0000aaf0 	strdeq	sl, [r0], -r0
    4510:	02530110 	subseq	r0, r3, #4
    4514:	02106808 	andseq	r6, r0, #8, 16	; 0x80000
    4518:	0305007d 	movweq	r0, #20605	; 0x507d
    451c:	0000aa64 	andeq	sl, r0, r4, ror #20
    4520:	9da81100 	stflss	f1, [r8]
    4524:	08c80000 	stmiaeq	r8, {}^	; <UNPREDICTABLE>
    4528:	12000000 	andne	r0, r0, #0, 0
    452c:	0000007e 	andeq	r0, r0, lr, ror r0
    4530:	0000043c 	andeq	r0, r0, ip, lsr r4
    4534:	00002c13 	andeq	r2, r0, r3, lsl ip
    4538:	05000f00 	streq	r0, [r0, #-3840]	; 0xfffff100
    453c:	0000042c 	andeq	r0, r0, ip, lsr #8
    4540:	0004f216 	andeq	pc, r4, r6, lsl r2	; <UNPREDICTABLE>
    4544:	07530100 	ldrbeq	r0, [r3, -r0, lsl #2]
    4548:	0000008a 	andeq	r0, r0, sl, lsl #1
    454c:	00009c58 	andeq	r9, r0, r8, asr ip
    4550:	00000064 	andeq	r0, r0, r4, rrx
    4554:	05089c01 	streq	r9, [r8, #-3073]	; 0xfffff3ff
    4558:	d8170000 	ldmdale	r7, {}	; <UNPREDICTABLE>
    455c:	01000003 	tsteq	r0, r3
    4560:	002c1853 	eoreq	r1, ip, r3, asr r8
    4564:	1c7a0000 	ldclne	0, cr0, [sl], #-0
    4568:	1c720000 	ldclne	0, cr0, [r2], #-0
    456c:	930e0000 	movwls	r0, #57344	; 0xe000
    4570:	18000000 	stmdane	r0, {}	; <UNPREDICTABLE>
    4574:	05000005 	streq	r0, [r0, #-5]
    4578:	00aae803 	adceq	lr, sl, r3, lsl #16
    457c:	0ba31d00 	bleq	fe8cb984 <__bss_end__+0xfe8c0a24>
    4580:	55010000 	strpl	r0, [r1, #-0]
    4584:	00008a0b 	andeq	r8, r0, fp, lsl #20
    4588:	001cb200 	andseq	fp, ip, r0, lsl #4
    458c:	001cae00 	andseq	sl, ip, r0, lsl #28
    4590:	9c700f00 	ldclls	15, cr0, [r0], #-0
    4594:	051d0000 	ldreq	r0, [sp, #-0]
    4598:	04a60000 	strteq	r0, [r6], #0
    459c:	01100000 	tsteq	r0, r0
    45a0:	00740250 	rsbseq	r0, r4, r0, asr r2
    45a4:	9c800f00 	stcls	15, cr0, [r0], {0}
    45a8:	08e00000 	stmiaeq	r0!, {}^	; <UNPREDICTABLE>
    45ac:	04c50000 	strbeq	r0, [r5], #0
    45b0:	01100000 	tsteq	r0, r0
    45b4:	00750250 	rsbseq	r0, r5, r0, asr r2
    45b8:	01510110 	cmpeq	r1, r0, lsl r1
    45bc:	52011030 	andpl	r1, r1, #48, 0	; 0x30
    45c0:	00007402 	andeq	r7, r0, r2, lsl #8
    45c4:	009ca80f 	addseq	sl, ip, pc, lsl #16
    45c8:	0008bc00 	andeq	fp, r8, r0, lsl #24
    45cc:	0004fe00 	andeq	pc, r4, r0, lsl #28
    45d0:	50011000 	andpl	r1, r1, r0
    45d4:	a08c0305 	addge	r0, ip, r5, lsl #6
    45d8:	01100000 	tsteq	r0, r0
    45dc:	18030551 	stmdane	r3, {r0, r4, r6, r8, sl}
    45e0:	100000a9 	andne	r0, r0, r9, lsr #1
    45e4:	03055201 	movweq	r5, #20993	; 0x5201
    45e8:	0000aae8 	andeq	sl, r0, r8, ror #21
    45ec:	02530110 	subseq	r0, r3, #4
    45f0:	02105408 	andseq	r5, r0, #8, 8	; 0x8000000
    45f4:	0305007d 	movweq	r0, #20605	; 0x507d
    45f8:	0000a928 	andeq	sl, r0, r8, lsr #18
    45fc:	9cac1100 	stflss	f1, [ip]
    4600:	08c80000 	stmiaeq	r8, {}^	; <UNPREDICTABLE>
    4604:	12000000 	andne	r0, r0, #0, 0
    4608:	0000007e 	andeq	r0, r0, lr, ror r0
    460c:	00000518 	andeq	r0, r0, r8, lsl r5
    4610:	00002c13 	andeq	r2, r0, r3, lsl ip
    4614:	05000700 	streq	r0, [r0, #-1792]	; 0xfffff900
    4618:	00000508 	andeq	r0, r0, r8, lsl #10
    461c:	000bf616 	andeq	pc, fp, r6, lsl r6	; <UNPREDICTABLE>
    4620:	07470100 	strbeq	r0, [r7, -r0, lsl #2]
    4624:	0000008a 	andeq	r0, r0, sl, lsl #1
    4628:	00009bc0 	andeq	r9, r0, r0, asr #23
    462c:	00000098 	muleq	r0, r8, r0
    4630:	062b9c01 	strteq	r9, [fp], -r1, lsl #24
    4634:	d8170000 	ldmdale	r7, {}	; <UNPREDICTABLE>
    4638:	01000003 	tsteq	r0, r3
    463c:	002c2047 	eoreq	r2, ip, r7, asr #32
    4640:	1ce00000 	stclne	0, cr0, [r0]
    4644:	1cd00000 	ldclne	0, cr0, [r0], {0}
    4648:	930e0000 	movwls	r0, #57344	; 0xe000
    464c:	3c000000 	stccc	0, cr0, [r0], {-0}
    4650:	05000004 	streq	r0, [r0, #-4]
    4654:	00aad803 	adceq	sp, sl, r3, lsl #16
    4658:	0ba31d00 	bleq	fe8cba60 <__bss_end__+0xfe8c0b00>
    465c:	4b010000 	blmi	44664 <__bss_end__+0x39704>
    4660:	00008a0b 	andeq	r8, r0, fp, lsl #20
    4664:	001d5400 	andseq	r5, sp, r0, lsl #8
    4668:	001d4e00 	andseq	r4, sp, r0, lsl #28
    466c:	081f1b00 	ldmdaeq	pc, {r8, r9, fp, ip}	; <UNPREDICTABLE>
    4670:	9bd00000 	blls	ff404678 <__bss_end__+0xff3f9718>
    4674:	e0030000 	and	r0, r3, r0
    4678:	01000000 	mrseq	r0, (UNDEF: 0)
    467c:	05a30e49 	streq	r0, [r3, #3657]!	; 0xe49
    4680:	3a1a0000 	bcc	684688 <__bss_end__+0x679728>
    4684:	83000008 	movwhi	r0, #8
    4688:	8100001d 	tsthi	r0, sp, lsl r0
    468c:	1a00001d 	bne	4708 <__code_start__-0x38f8>
    4690:	00000830 	andeq	r0, r0, r0, lsr r8
    4694:	00001d9b 	muleq	r0, fp, sp
    4698:	00001d97 	muleq	r0, r7, sp
    469c:	0000e01e 	andeq	lr, r0, lr, lsl r0
    46a0:	180f0000 	stmdane	pc, {}	; <UNPREDICTABLE>
    46a4:	bc00009c 	stclt	0, cr0, [r0], {156}	; 0x9c
    46a8:	dc000008 	stcle	0, cr0, [r0], {8}
    46ac:	10000005 	andne	r0, r0, r5
    46b0:	03055001 	movweq	r5, #20481	; 0x5001
    46b4:	0000a08c 	andeq	sl, r0, ip, lsl #1
    46b8:	05510110 	ldrbeq	r0, [r1, #-272]	; 0xfffffef0
    46bc:	00a91803 	adceq	r1, r9, r3, lsl #16
    46c0:	52011000 	andpl	r1, r1, #0, 0
    46c4:	aad80305 	bge	ff6052e0 <__bss_end__+0xff5fa380>
    46c8:	01100000 	tsteq	r0, r0
    46cc:	48080253 	stmdami	r8, {r0, r1, r4, r6, r9}
    46d0:	007d0210 	rsbseq	r0, sp, r0, lsl r2
    46d4:	a9280305 	stmdbge	r8!, {r0, r2, r8, r9}
    46d8:	11000000 	mrsne	r0, (UNDEF: 0)
    46dc:	00009c1c 	andeq	r9, r0, ip, lsl ip
    46e0:	000008c8 	andeq	r0, r0, r8, asr #17
    46e4:	009c3c0f 	addseq	r3, ip, pc, lsl #24
    46e8:	0008bc00 	andeq	fp, r8, r0, lsl #24
    46ec:	00062100 	andeq	r2, r6, r0, lsl #2
    46f0:	50011000 	andpl	r1, r1, r0
    46f4:	a9a40305 	stmibge	r4!, {r0, r2, r8, r9}
    46f8:	01100000 	tsteq	r0, r0
    46fc:	18030551 	stmdane	r3, {r0, r4, r6, r8, sl}
    4700:	100000a9 	andne	r0, r0, r9, lsr #1
    4704:	03055201 	movweq	r5, #20993	; 0x5201
    4708:	0000aad8 	ldrdeq	sl, [r0], -r8
    470c:	02530110 	subseq	r0, r3, #4
    4710:	02104e08 	andseq	r4, r0, #8, 28	; 0x80
    4714:	f308007d 	vqadd.u8	q0, q4, <illegal reg q14.5>
    4718:	07235001 	streq	r5, [r3, -r1]!
    471c:	001af809 	andseq	pc, sl, r9, lsl #16
    4720:	009c4011 	addseq	r4, ip, r1, lsl r0
    4724:	0008c800 	andeq	ip, r8, r0, lsl #16
    4728:	180c0000 	stmdane	ip, {}	; <UNPREDICTABLE>
    472c:	0100000c 	tsteq	r0, ip
    4730:	9b68063c 	blls	1a06028 <__bss_end__+0x19fb0c8>
    4734:	00580000 	subseq	r0, r8, r0
    4738:	9c010000 	stcls	0, cr0, [r1], {-0}
    473c:	000006cf 	andeq	r0, r0, pc, asr #13
    4740:	0004520a 	andeq	r5, r4, sl, lsl #4
    4744:	103d0100 	eorsne	r0, sp, r0, lsl #2
    4748:	00000025 	andeq	r0, r0, r5, lsr #32
    474c:	af580305 	svcge	0x00580305
    4750:	930e0000 	movwls	r0, #57344	; 0xe000
    4754:	df000000 	svcle	0x00000000
    4758:	05000006 	streq	r0, [r0, #-6]
    475c:	00aac803 	adceq	ip, sl, r3, lsl #16
    4760:	04070700 	streq	r0, [r7], #-1792	; 0xfffff900
    4764:	0000002c 	andeq	r0, r0, ip, lsr #32
    4768:	7a0a4201 	bvc	294f74 <__bss_end__+0x28a014>
    476c:	08000006 	stmdaeq	r0, {r1, r2}
    4770:	00000bdf 	ldrdeq	r0, [r0], -pc	; <UNPREDICTABLE>
    4774:	00100000 	andseq	r0, r0, r0
    4778:	9b940f00 	blls	fe508380 <__bss_end__+0xfe4fd420>
    477c:	06e40000 	strbteq	r0, [r4], r0
    4780:	06960000 	ldreq	r0, [r6], r0
    4784:	01100000 	tsteq	r0, r0
    4788:	40400350 	submi	r0, r0, r0, asr r3
    478c:	51011024 	tstpl	r1, r4, lsr #32
    4790:	24484003 	strbcs	r4, [r8], #-3
    4794:	9bac0f00 	blls	feb0839c <__bss_end__+0xfeafd43c>
    4798:	08bc0000 	ldmeq	ip!, {}	; <UNPREDICTABLE>
    479c:	06c50000 	strbeq	r0, [r5], r0
    47a0:	01100000 	tsteq	r0, r0
    47a4:	74030550 	strvc	r0, [r3], #-1360	; 0xfffffab0
    47a8:	100000a9 	andne	r0, r0, r9, lsr #1
    47ac:	03055101 	movweq	r5, #20737	; 0x5101
    47b0:	0000a918 	andeq	sl, r0, r8, lsl r9
    47b4:	05520110 	ldrbeq	r0, [r2, #-272]	; 0xfffffef0
    47b8:	00aac803 	adceq	ip, sl, r3, lsl #16
    47bc:	53011000 	movwpl	r1, #4096	; 0x1000
    47c0:	00400802 	subeq	r0, r0, r2, lsl #16
    47c4:	009bb011 	addseq	fp, fp, r1, lsl r0
    47c8:	0008c800 	andeq	ip, r8, r0, lsl #16
    47cc:	7e120000 	cdpvc	0, 1, cr0, cr2, cr0, {0}
    47d0:	df000000 	svcle	0x00000000
    47d4:	13000006 	movwne	r0, #6
    47d8:	0000002c 	andeq	r0, r0, ip, lsr #32
    47dc:	cf05000c 	svcgt	0x0005000c
    47e0:	0c000006 	stceq	0, cr0, [r0], {6}
    47e4:	000004fa 	strdeq	r0, [r0], -sl
    47e8:	cc062d01 	stcgt	13, cr2, [r6], {1}
    47ec:	9c00009a 	stcls	0, cr0, [r0], {154}	; 0x9a
    47f0:	01000000 	mrseq	r0, (UNDEF: 0)
    47f4:	0007c89c 	muleq	r7, ip, r8
    47f8:	0ba21700 	bleq	fe88a400 <__bss_end__+0xfe87f4a0>
    47fc:	2d010000 	stccs	0, cr0, [r1, #-0]
    4800:	00002c26 	andeq	r2, r0, r6, lsr #24
    4804:	001dc900 	andseq	ip, sp, r0, lsl #18
    4808:	001dbb00 	andseq	fp, sp, r0, lsl #22
    480c:	0b971700 	bleq	fe5ca414 <__bss_end__+0xfe5bf4b4>
    4810:	2d010000 	stccs	0, cr0, [r1, #-0]
    4814:	00002c36 	andeq	r2, r0, r6, lsr ip
    4818:	001e3100 	andseq	r3, lr, r0, lsl #2
    481c:	001e2900 	andseq	r2, lr, r0, lsl #18
    4820:	0ba31d00 	bleq	fe8cbc28 <__bss_end__+0xfe8c0cc8>
    4824:	2e010000 	cdpcs	0, 0, cr0, cr1, cr0, {0}
    4828:	0000c20b 	andeq	ip, r0, fp, lsl #4
    482c:	001e7900 	andseq	r7, lr, r0, lsl #18
    4830:	001e6b00 	andseq	r6, lr, r0, lsl #22
    4834:	00930e00 	addseq	r0, r3, r0, lsl #28
    4838:	07d80000 	ldrbeq	r0, [r8, r0]
    483c:	03050000 	movweq	r0, #20480	; 0x5000
    4840:	0000aab0 			; <UNDEFINED> instruction: 0x0000aab0
    4844:	009b240f 	addseq	r2, fp, pc, lsl #8
    4848:	0008bc00 	andeq	fp, r8, r0, lsl #24
    484c:	00077e00 	andeq	r7, r7, r0, lsl #28
    4850:	50011000 	andpl	r1, r1, r0
    4854:	a08c0305 	addge	r0, ip, r5, lsl #6
    4858:	01100000 	tsteq	r0, r0
    485c:	18030551 	stmdane	r3, {r0, r4, r6, r8, sl}
    4860:	100000a9 	andne	r0, r0, r9, lsr #1
    4864:	03055201 	movweq	r5, #20993	; 0x5201
    4868:	0000aab0 			; <UNDEFINED> instruction: 0x0000aab0
    486c:	02530110 	subseq	r0, r3, #4
    4870:	02103008 	andseq	r3, r0, #8, 0
    4874:	0305007d 	movweq	r0, #20605	; 0x507d
    4878:	0000a924 	andeq	sl, r0, r4, lsr #18
    487c:	9b281100 	blls	a08c84 <__bss_end__+0x9fdd24>
    4880:	08c80000 	stmiaeq	r8, {}^	; <UNPREDICTABLE>
    4884:	4c0f0000 	stcmi	0, cr0, [pc], {-0}
    4888:	bc00009b 	stclt	0, cr0, [r0], {155}	; 0x9b
    488c:	be000008 	cdplt	0, 0, cr0, cr0, cr8, {0}
    4890:	10000007 	andne	r0, r0, r7
    4894:	03055001 	movweq	r5, #20481	; 0x5001
    4898:	0000a930 	andeq	sl, r0, r0, lsr r9
    489c:	05510110 	ldrbeq	r0, [r1, #-272]	; 0xfffffef0
    48a0:	00a91803 	adceq	r1, r9, r3, lsl #16
    48a4:	52011000 	andpl	r1, r1, #0, 0
    48a8:	aab00305 	bge	fec054c4 <__bss_end__+0xfebfa564>
    48ac:	01100000 	tsteq	r0, r0
    48b0:	34080253 	strcc	r0, [r8], #-595	; 0xfffffdad
    48b4:	007d0210 	rsbseq	r0, sp, r0, lsl r2
    48b8:	5001f303 	andpl	pc, r1, r3, lsl #6
    48bc:	9b501100 	blls	1408cc4 <__bss_end__+0x13fdd64>
    48c0:	08c80000 	stmiaeq	r8, {}^	; <UNPREDICTABLE>
    48c4:	12000000 	andne	r0, r0, #0, 0
    48c8:	0000007e 	andeq	r0, r0, lr, ror r0
    48cc:	000007d8 	ldrdeq	r0, [r0], -r8
    48d0:	00002c13 	andeq	r2, r0, r3, lsl ip
    48d4:	05001600 	streq	r1, [r0, #-1536]	; 0xfffffa00
    48d8:	000007c8 	andeq	r0, r0, r8, asr #15
    48dc:	000c301f 	andeq	r3, ip, pc, lsl r0
    48e0:	072a0100 	streq	r0, [sl, -r0, lsl #2]!
    48e4:	0000008a 	andeq	r0, r0, sl, lsl #1
    48e8:	00009abc 			; <UNDEFINED> instruction: 0x00009abc
    48ec:	00000010 	andeq	r0, r0, r0, lsl r0
    48f0:	841f9c01 	ldrhi	r9, [pc], #-3073	; 48f8 <__code_start__-0x3708>
    48f4:	0100000b 	tsteq	r0, fp
    48f8:	008a0729 	addeq	r0, sl, r9, lsr #14
    48fc:	9aac0000 	bls	feb04904 <__bss_end__+0xfeaf99a4>
    4900:	00100000 	andseq	r0, r0, r0
    4904:	9c010000 	stcls	0, cr0, [r1], {-0}
    4908:	000be51f 	andeq	lr, fp, pc, lsl r5
    490c:	07280100 	streq	r0, [r8, -r0, lsl #2]!
    4910:	0000008a 	andeq	r0, r0, sl, lsl #1
    4914:	00009a9c 	muleq	r0, ip, sl
    4918:	00000010 	andeq	r0, r0, r0, lsl r0
    491c:	bb209c01 	bllt	82b928 <__bss_end__+0x8209c8>
    4920:	0100000b 	tsteq	r0, fp
    4924:	002c1810 	eoreq	r1, ip, r0, lsl r8
    4928:	54030000 	strpl	r0, [r3], #-0
    492c:	21000008 	tstcs	r0, r8
    4930:	10010078 	andne	r0, r1, r8, ror r0
    4934:	00002c29 	andeq	r2, r0, r9, lsr #24
    4938:	006e2100 	rsbeq	r2, lr, r0, lsl #2
    493c:	2c351001 	ldccs	0, cr1, [r5], #-4
    4940:	0e000000 	cdpeq	0, 0, cr0, cr0, cr0, {0}
    4944:	00000093 	muleq	r0, r3, r0
    4948:	00000518 	andeq	r0, r0, r8, lsl r5
    494c:	ab000305 	blge	5568 <__code_start__-0x2a98>
    4950:	20000000 	andcs	r0, r0, r0
    4954:	00000c06 	andeq	r0, r0, r6, lsl #24
    4958:	2c180d01 	ldccs	13, cr0, [r8], {1}
    495c:	03000000 	movweq	r0, #0
    4960:	00000870 	andeq	r0, r0, r0, ror r8
    4964:	01007821 	tsteq	r0, r1, lsr #16
    4968:	002c290d 	eoreq	r2, ip, sp, lsl #18
    496c:	20000000 	andcs	r0, r0, r0
    4970:	00000c25 	andeq	r0, r0, r5, lsr #24
    4974:	2c180701 	ldccs	7, cr0, [r8], {1}
    4978:	03000000 	movweq	r0, #0
    497c:	00000896 	muleq	r0, r6, r8
    4980:	01007821 	tsteq	r0, r1, lsr #16
    4984:	002c2c07 	eoreq	r2, ip, r7, lsl #24
    4988:	6e210000 	cdpvs	0, 2, cr0, cr1, cr0, {0}
    498c:	38070100 	stmdacc	r7, {r8}
    4990:	0000002c 	andeq	r0, r0, ip, lsr #32
    4994:	0bd72000 	bleq	ff5cc99c <__bss_end__+0xff5c1a3c>
    4998:	04010000 	streq	r0, [r1], #-0
    499c:	00005d18 	andeq	r5, r0, r8, lsl sp
    49a0:	08bc0300 	ldmeq	ip!, {r8, r9}
    49a4:	78210000 	stmdavc	r1!, {}	; <UNPREDICTABLE>
    49a8:	29040100 	stmdbcs	r4, {r8}
    49ac:	0000005d 	andeq	r0, r0, sp, asr r0
    49b0:	01007921 	tsteq	r0, r1, lsr #18
    49b4:	005d3504 	subseq	r3, sp, r4, lsl #10
    49b8:	22000000 	andcs	r0, r0, #0, 0
    49bc:	000006ec 	andeq	r0, r0, ip, ror #13
    49c0:	000006ec 	andeq	r0, r0, ip, ror #13
    49c4:	22062802 	andcs	r2, r6, #131072	; 0x20000
    49c8:	000000aa 	andeq	r0, r0, sl, lsr #1
    49cc:	000000aa 	andeq	r0, r0, sl, lsr #1
    49d0:	22066e02 	andcs	r6, r6, #2, 28
    49d4:	00000c41 	andeq	r0, r0, r1, asr #24
    49d8:	00000c41 	andeq	r0, r0, r1, asr #24
    49dc:	22061d02 	andcs	r1, r6, #128	; 0x80
    49e0:	0000007f 	andeq	r0, r0, pc, ror r0
    49e4:	0000007f 	andeq	r0, r0, pc, ror r0
    49e8:	0007f702 	andeq	pc, r7, r2, lsl #14
    49ec:	00000149 	andeq	r0, r0, r9, asr #2
    49f0:	17fa0004 	ldrbne	r0, [sl, r4]!
    49f4:	01040000 	mrseq	r0, (UNDEF: 4)
    49f8:	0000059b 	muleq	r0, fp, r5
    49fc:	000c7e0c 	andeq	r7, ip, ip, lsl #28
    4a00:	00066c00 	andeq	r6, r6, r0, lsl #24
    4a04:	009e4c00 	addseq	r4, lr, r0, lsl #24
    4a08:	00003c00 	andeq	r3, r0, r0, lsl #24
    4a0c:	0025d100 	eoreq	sp, r5, r0, lsl #2
    4a10:	05040200 	streq	r0, [r4, #-512]	; 0xfffffe00
    4a14:	00746e69 	rsbseq	r6, r4, r9, ror #28
    4a18:	01070403 	tsteq	r7, r3, lsl #8
    4a1c:	03000001 	movweq	r0, #1
    4a20:	00cb0601 	sbceq	r0, fp, r1, lsl #12
    4a24:	02030000 	andeq	r0, r3, #0, 0
    4a28:	00002205 	andeq	r2, r0, r5, lsl #4
    4a2c:	05040300 	streq	r0, [r4, #-768]	; 0xfffffd00
    4a30:	0000006b 	andeq	r0, r0, fp, rrx
    4a34:	66050803 	strvs	r0, [r5], -r3, lsl #16
    4a38:	03000000 	movweq	r0, #0
    4a3c:	00c90801 	sbceq	r0, r9, r1, lsl #16
    4a40:	02030000 	andeq	r0, r3, #0, 0
    4a44:	00014307 	andeq	r4, r1, r7, lsl #6
    4a48:	07040300 	streq	r0, [r4, -r0, lsl #6]
    4a4c:	000000fc 	strdeq	r0, [r0], -ip
    4a50:	f7070803 			; <UNDEFINED> instruction: 0xf7070803
    4a54:	04000000 	streq	r0, [r0], #-0
    4a58:	00000025 	andeq	r0, r0, r5, lsr #32
    4a5c:	0000007a 	andeq	r0, r0, sl, ror r0
    4a60:	00002505 	andeq	r2, r0, r5, lsl #10
    4a64:	2c060000 	stccs	0, cr0, [r6], {-0}
    4a68:	02000000 	andeq	r0, r0, #0, 0
    4a6c:	00860e1c 	addeq	r0, r6, ip, lsl lr
    4a70:	04070000 	streq	r0, [r7], #-0
    4a74:	0000006b 	andeq	r0, r0, fp, rrx
    4a78:	00002504 	andeq	r2, r0, r4, lsl #10
    4a7c:	00009b00 	andeq	r9, r0, r0, lsl #22
    4a80:	009b0500 	addseq	r0, fp, r0, lsl #10
    4a84:	07000000 	streq	r0, [r0, -r0]
    4a88:	0000a804 	andeq	sl, r0, r4, lsl #16
    4a8c:	08010300 	stmdaeq	r1, {r8, r9}
    4a90:	000000d2 	ldrdeq	r0, [r0], -r2
    4a94:	0000a108 	andeq	sl, r0, r8, lsl #2
    4a98:	072a0600 	streq	r0, [sl, -r0, lsl #12]!
    4a9c:	21020000 	mrscs	r0, (UNDEF: 2)
    4aa0:	0000b90e 	andeq	fp, r0, lr, lsl #18
    4aa4:	8c040700 	stchi	7, cr0, [r4], {-0}
    4aa8:	09000000 	stmdbeq	r0, {}	; <UNPREDICTABLE>
    4aac:	0000007a 	andeq	r0, r0, sl, ror r0
    4ab0:	05070601 	streq	r0, [r7, #-1537]	; 0xfffff9ff
    4ab4:	00ab2803 	adceq	r2, fp, r3, lsl #16
    4ab8:	0c710a00 			; <UNDEFINED> instruction: 0x0c710a00
    4abc:	0b010000 	bleq	44ac4 <__bss_end__+0x39b64>
    4ac0:	009e7806 	addseq	r7, lr, r6, lsl #16
    4ac4:	00001000 	andeq	r1, r0, r0
    4ac8:	f19c0100 			; <UNDEFINED> instruction: 0xf19c0100
    4acc:	0b000000 	bleq	4ad4 <__code_start__-0x352c>
    4ad0:	01007066 	tsteq	r0, r6, rrx
    4ad4:	0086190b 	addeq	r1, r6, fp, lsl #18
    4ad8:	50010000 	andpl	r0, r1, r0
    4adc:	0c410c00 	mcrreq	12, 0, r0, r1, cr0
    4ae0:	08010000 	stmdaeq	r1, {}	; <UNPREDICTABLE>
    4ae4:	009e6006 	addseq	r6, lr, r6
    4ae8:	00001800 	andeq	r1, r0, r0, lsl #16
    4aec:	0d9c0100 	ldfeqs	f0, [ip]
    4af0:	00000c60 	andeq	r0, r0, r0, ror #24
    4af4:	250c0301 	strcs	r0, [ip, #-769]	; 0xfffffcff
    4af8:	4c000000 	stcmi	0, cr0, [r0], {-0}
    4afc:	1400009e 	strne	r0, [r0], #-158	; 0xffffff62
    4b00:	01000000 	mrseq	r0, (UNDEF: 0)
    4b04:	0001409c 	muleq	r1, ip, r0
    4b08:	00630e00 	rsbeq	r0, r3, r0, lsl #28
    4b0c:	25210301 	strcs	r0, [r1, #-769]!	; 0xfffffcff
    4b10:	dd000000 	stcle	0, cr0, [r0, #-0]
    4b14:	d900001e 	stmdble	r0, {r1, r2, r3, r4}
    4b18:	0f00001e 	svceq	0x0000001e
    4b1c:	00009e58 	andeq	r9, r0, r8, asr lr
    4b20:	00000140 	andeq	r0, r0, r0, asr #2
    4b24:	02500110 	subseq	r0, r0, #4
    4b28:	00000074 	andeq	r0, r0, r4, ror r0
    4b2c:	000b5211 	andeq	r5, fp, r1, lsl r2
    4b30:	000b5200 	andeq	r5, fp, r0, lsl #4
    4b34:	06420200 	strbeq	r0, [r2], -r0, lsl #4
    4b38:	00013700 	andeq	r3, r1, r0, lsl #14
    4b3c:	09000400 	stmdbeq	r0, {sl}
    4b40:	04000019 	streq	r0, [r0], #-25	; 0xffffffe7
    4b44:	00059b01 	andeq	r9, r5, r1, lsl #22
    4b48:	0c940c00 	ldceq	12, cr0, [r4], {0}
    4b4c:	066c0000 	strbteq	r0, [ip], -r0
    4b50:	9e880000 	cdpls	0, 8, cr0, cr8, cr0, {0}
    4b54:	00340000 	eorseq	r0, r4, r0
    4b58:	26930000 	ldrcs	r0, [r3], r0
    4b5c:	04020000 	streq	r0, [r2], #-0
    4b60:	746e6905 	strbtvc	r6, [lr], #-2309	; 0xfffff6fb
    4b64:	07040300 	streq	r0, [r4, -r0, lsl #6]
    4b68:	00000101 	andeq	r0, r0, r1, lsl #2
    4b6c:	cb060103 	blgt	184f80 <__bss_end__+0x17a020>
    4b70:	03000000 	movweq	r0, #0
    4b74:	00220502 	eoreq	r0, r2, r2, lsl #10
    4b78:	04030000 	streq	r0, [r3], #-0
    4b7c:	00006b05 	andeq	r6, r0, r5, lsl #22
    4b80:	05080300 	streq	r0, [r8, #-768]	; 0xfffffd00
    4b84:	00000066 	andeq	r0, r0, r6, rrx
    4b88:	c9080103 	stmdbgt	r8, {r0, r1, r8}
    4b8c:	03000000 	movweq	r0, #0
    4b90:	01430702 	cmpeq	r3, r2, lsl #14
    4b94:	04030000 	streq	r0, [r3], #-0
    4b98:	0000fc07 	andeq	pc, r0, r7, lsl #24
    4b9c:	07080300 	streq	r0, [r8, -r0, lsl #6]
    4ba0:	000000f7 	strdeq	r0, [r0], -r7
    4ba4:	00002504 	andeq	r2, r0, r4, lsl #10
    4ba8:	00007a00 	andeq	r7, r0, r0, lsl #20
    4bac:	00250500 	eoreq	r0, r5, r0, lsl #10
    4bb0:	06000000 	streq	r0, [r0], -r0
    4bb4:	0000002c 	andeq	r0, r0, ip, lsr #32
    4bb8:	860e1c02 	strhi	r1, [lr], -r2, lsl #24
    4bbc:	07000000 	streq	r0, [r0, -r0]
    4bc0:	00006b04 	andeq	r6, r0, r4, lsl #22
    4bc4:	00250400 	eoreq	r0, r5, r0, lsl #8
    4bc8:	009b0000 	addseq	r0, fp, r0
    4bcc:	9b050000 	blls	144bd4 <__bss_end__+0x139c74>
    4bd0:	00000000 	andeq	r0, r0, r0
    4bd4:	00a80407 	adceq	r0, r8, r7, lsl #8
    4bd8:	01030000 	mrseq	r0, (UNDEF: 3)
    4bdc:	0000d208 	andeq	sp, r0, r8, lsl #4
    4be0:	00a10800 	adceq	r0, r1, r0, lsl #16
    4be4:	2a060000 	bcs	184bec <__bss_end__+0x179c8c>
    4be8:	02000007 	andeq	r0, r0, #7, 0
    4bec:	00b90e21 	adcseq	r0, r9, r1, lsr #28
    4bf0:	04070000 	streq	r0, [r7], #-0
    4bf4:	0000008c 	andeq	r0, r0, ip, lsl #1
    4bf8:	0007d509 	andeq	sp, r7, r9, lsl #10
    4bfc:	07040100 	streq	r0, [r4, -r0, lsl #2]
    4c00:	00000134 	andeq	r0, r0, r4, lsr r1
    4c04:	00009e88 	andeq	r9, r0, r8, lsl #29
    4c08:	00000034 	andeq	r0, r0, r4, lsr r0
    4c0c:	01349c01 	teqeq	r4, r1, lsl #24
    4c10:	8f0a0000 	svchi	0x000a0000
    4c14:	0100000c 	tsteq	r0, ip
    4c18:	01341504 	teqeq	r4, r4, lsl #10
    4c1c:	50010000 	andpl	r0, r1, r0
    4c20:	6372730b 	cmnvs	r2, #738197504	; 0x2c000000
    4c24:	27040100 	strcs	r0, [r4, -r0, lsl #2]
    4c28:	0000009b 	muleq	r0, fp, r0
    4c2c:	00001eff 	strdeq	r1, [r0], -pc	; <UNPREDICTABLE>
    4c30:	00001efb 	strdeq	r1, [r0], -fp
    4c34:	0031730c 	eorseq	r7, r1, ip, lsl #6
    4c38:	340b0501 	strcc	r0, [fp], #-1281	; 0xfffffaff
    4c3c:	2a000001 	bcs	4c48 <__code_start__-0x33b8>
    4c40:	2000001f 	andcs	r0, r0, pc, lsl r0
    4c44:	0c00001f 	stceq	0, cr0, [r0], {31}
    4c48:	01003273 	tsteq	r0, r3, ror r2
    4c4c:	009b1106 	addseq	r1, fp, r6, lsl #2
    4c50:	1f6f0000 	svcne	0x006f0000
    4c54:	1f6b0000 	svcne	0x006b0000
    4c58:	630c0000 	movwvs	r0, #49152	; 0xc000
    4c5c:	0a070100 	beq	1c5064 <__bss_end__+0x1ba104>
    4c60:	000000a1 	andeq	r0, r0, r1, lsr #1
    4c64:	00001f93 	muleq	r0, r3, pc	; <UNPREDICTABLE>
    4c68:	00001f8f 	andeq	r1, r0, pc, lsl #31
    4c6c:	a1040700 	tstge	r4, r0, lsl #14
    4c70:	00000000 	andeq	r0, r0, r0
    4c74:	000000f7 	strdeq	r0, [r0], -r7
    4c78:	19bf0004 	ldmibne	pc!, {r2}	; <UNPREDICTABLE>
    4c7c:	01040000 	mrseq	r0, (UNDEF: 4)
    4c80:	0000059b 	muleq	r0, fp, r5
    4c84:	000ca40c 	andeq	sl, ip, ip, lsl #8
    4c88:	00066c00 	andeq	r6, r6, r0, lsl #24
    4c8c:	009ebc00 	addseq	fp, lr, r0, lsl #24
    4c90:	00002c00 	andeq	r2, r0, r0, lsl #24
    4c94:	0027a100 	eoreq	sl, r7, r0, lsl #2
    4c98:	05040200 	streq	r0, [r4, #-512]	; 0xfffffe00
    4c9c:	00746e69 	rsbseq	r6, r4, r9, ror #28
    4ca0:	01070403 	tsteq	r7, r3, lsl #8
    4ca4:	03000001 	movweq	r0, #1
    4ca8:	00cb0601 	sbceq	r0, fp, r1, lsl #12
    4cac:	02030000 	andeq	r0, r3, #0, 0
    4cb0:	00002205 	andeq	r2, r0, r5, lsl #4
    4cb4:	05040300 	streq	r0, [r4, #-768]	; 0xfffffd00
    4cb8:	0000006b 	andeq	r0, r0, fp, rrx
    4cbc:	66050803 	strvs	r0, [r5], -r3, lsl #16
    4cc0:	03000000 	movweq	r0, #0
    4cc4:	00c90801 	sbceq	r0, r9, r1, lsl #16
    4cc8:	02030000 	andeq	r0, r3, #0, 0
    4ccc:	00014307 	andeq	r4, r1, r7, lsl #6
    4cd0:	07040300 	streq	r0, [r4, -r0, lsl #6]
    4cd4:	000000fc 	strdeq	r0, [r0], -ip
    4cd8:	f7070803 			; <UNDEFINED> instruction: 0xf7070803
    4cdc:	04000000 	streq	r0, [r0], #-0
    4ce0:	00000025 	andeq	r0, r0, r5, lsr #32
    4ce4:	0000007a 	andeq	r0, r0, sl, ror r0
    4ce8:	00002505 	andeq	r2, r0, r5, lsl #10
    4cec:	2c060000 	stccs	0, cr0, [r6], {-0}
    4cf0:	02000000 	andeq	r0, r0, #0, 0
    4cf4:	00860e1c 	addeq	r0, r6, ip, lsl lr
    4cf8:	04070000 	streq	r0, [r7], #-0
    4cfc:	0000006b 	andeq	r0, r0, fp, rrx
    4d00:	00002504 	andeq	r2, r0, r4, lsl #10
    4d04:	00009b00 	andeq	r9, r0, r0, lsl #22
    4d08:	009b0500 	addseq	r0, fp, r0, lsl #10
    4d0c:	07000000 	streq	r0, [r0, -r0]
    4d10:	0000a804 	andeq	sl, r0, r4, lsl #16
    4d14:	08010300 	stmdaeq	r1, {r8, r9}
    4d18:	000000d2 	ldrdeq	r0, [r0], -r2
    4d1c:	0000a108 	andeq	sl, r0, r8, lsl #2
    4d20:	072a0600 	streq	r0, [sl, -r0, lsl #12]!
    4d24:	21020000 	mrscs	r0, (UNDEF: 2)
    4d28:	0000b90e 	andeq	fp, r0, lr, lsl #18
    4d2c:	8c040700 	stchi	7, cr0, [r4], {-0}
    4d30:	09000000 	stmdbeq	r0, {}	; <UNPREDICTABLE>
    4d34:	000007dc 	ldrdeq	r0, [r0], -ip
    4d38:	25050301 	strcs	r0, [r5, #-769]	; 0xfffffcff
    4d3c:	bc000000 	stclt	0, cr0, [r0], {-0}
    4d40:	2c00009e 	stccs	0, cr0, [r0], {158}	; 0x9e
    4d44:	01000000 	mrseq	r0, (UNDEF: 0)
    4d48:	00610a9c 	mlseq	r1, ip, sl, r0
    4d4c:	9b180301 	blls	605958 <__bss_end__+0x5fa9f8>
    4d50:	b5000000 	strlt	r0, [r0, #-0]
    4d54:	b100001f 	tstlt	r0, pc, lsl r0
    4d58:	0a00001f 	beq	4ddc <__code_start__-0x3224>
    4d5c:	03010062 	movweq	r0, #4194	; 0x1062
    4d60:	00009b27 	andeq	r9, r0, r7, lsr #22
    4d64:	001fd700 	andseq	sp, pc, r0, lsl #14
    4d68:	001fd300 	andseq	sp, pc, r0, lsl #6
    4d6c:	0f000000 	svceq	0x00000000
    4d70:	04000001 	streq	r0, [r0], #-1
    4d74:	001a4e00 	andseq	r4, sl, r0, lsl #28
    4d78:	9b010400 	blls	45d80 <__bss_end__+0x3ae20>
    4d7c:	0c000005 	stceq	0, cr0, [r0], {5}
    4d80:	00000cb4 			; <UNDEFINED> instruction: 0x00000cb4
    4d84:	0000066c 	andeq	r0, r0, ip, ror #12
    4d88:	00009ee8 	andeq	r9, r0, r8, ror #29
    4d8c:	00000020 	andeq	r0, r0, r0, lsr #32
    4d90:	00002868 	andeq	r2, r0, r8, ror #16
    4d94:	69050402 	stmdbvs	r5, {r1, sl}
    4d98:	0300746e 	movweq	r7, #1134	; 0x46e
    4d9c:	01010704 	tsteq	r1, r4, lsl #14
    4da0:	01030000 	mrseq	r0, (UNDEF: 3)
    4da4:	0000cb06 	andeq	ip, r0, r6, lsl #22
    4da8:	05020300 	streq	r0, [r2, #-768]	; 0xfffffd00
    4dac:	00000022 	andeq	r0, r0, r2, lsr #32
    4db0:	6b050403 	blvs	145dc4 <__bss_end__+0x13ae64>
    4db4:	03000000 	movweq	r0, #0
    4db8:	00660508 	rsbeq	r0, r6, r8, lsl #10
    4dbc:	01030000 	mrseq	r0, (UNDEF: 3)
    4dc0:	0000c908 	andeq	ip, r0, r8, lsl #18
    4dc4:	07020300 	streq	r0, [r2, -r0, lsl #6]
    4dc8:	00000143 	andeq	r0, r0, r3, asr #2
    4dcc:	fc070403 	stc2	4, cr0, [r7], {3}
    4dd0:	03000000 	movweq	r0, #0
    4dd4:	00f70708 	rscseq	r0, r7, r8, lsl #14
    4dd8:	25040000 	strcs	r0, [r4, #-0]
    4ddc:	7a000000 	bvc	4de4 <__code_start__-0x321c>
    4de0:	05000000 	streq	r0, [r0, #-0]
    4de4:	00000025 	andeq	r0, r0, r5, lsr #32
    4de8:	002c0600 	eoreq	r0, ip, r0, lsl #12
    4dec:	1c020000 	stcne	0, cr0, [r2], {-0}
    4df0:	0000860e 	andeq	r8, r0, lr, lsl #12
    4df4:	6b040700 	blvs	1069fc <__bss_end__+0xfba9c>
    4df8:	04000000 	streq	r0, [r0], #-0
    4dfc:	00000025 	andeq	r0, r0, r5, lsr #32
    4e00:	0000009b 	muleq	r0, fp, r0
    4e04:	00009b05 	andeq	r9, r0, r5, lsl #22
    4e08:	04070000 	streq	r0, [r7], #-0
    4e0c:	000000a8 	andeq	r0, r0, r8, lsr #1
    4e10:	d2080103 	andle	r0, r8, #-1073741824	; 0xc0000000
    4e14:	08000000 	stmdaeq	r0, {}	; <UNPREDICTABLE>
    4e18:	000000a1 	andeq	r0, r0, r1, lsr #1
    4e1c:	00072a06 	andeq	r2, r7, r6, lsl #20
    4e20:	0e210200 	cdpeq	2, 2, cr0, cr1, cr0, {0}
    4e24:	000000b9 	strheq	r0, [r0], -r9
    4e28:	008c0407 	addeq	r0, ip, r7, lsl #8
    4e2c:	a6090000 	strge	r0, [r9], -r0
    4e30:	01000007 	tsteq	r0, r7
    4e34:	010c0703 	tsteq	ip, r3, lsl #14
    4e38:	9ee80000 	cdpls	0, 14, cr0, cr8, cr0, {0}
    4e3c:	00200000 	eoreq	r0, r0, r0
    4e40:	9c010000 	stcls	0, cr0, [r1], {-0}
    4e44:	0000010c 	andeq	r0, r0, ip, lsl #2
    4e48:	0031730a 	eorseq	r7, r1, sl, lsl #6
    4e4c:	0c150301 	ldceq	3, cr0, [r5], {1}
    4e50:	01000001 	tsteq	r0, r1
    4e54:	32730b50 	rsbscc	r0, r3, #80, 22	; 0x14000
    4e58:	26030100 	strcs	r0, [r3], -r0, lsl #2
    4e5c:	0000009b 	muleq	r0, fp, r0
    4e60:	00001ffb 	strdeq	r1, [r0], -fp
    4e64:	00001ff5 	strdeq	r1, [r0], -r5
    4e68:	0100730c 	tsteq	r0, ip, lsl #6
    4e6c:	010c1404 	tsteq	ip, r4, lsl #8
    4e70:	202c0000 	eorcs	r0, ip, r0
    4e74:	20260000 	eorcs	r0, r6, r0
    4e78:	07000000 	streq	r0, [r0, -r0]
    4e7c:	0000a104 	andeq	sl, r0, r4, lsl #2
    4e80:	014e0000 	mrseq	r0, (UNDEF: 78)
    4e84:	00040000 	andeq	r0, r4, r0
    4e88:	00001b04 	andeq	r1, r0, r4, lsl #22
    4e8c:	059b0104 	ldreq	r0, [fp, #260]	; 0x104
    4e90:	c40c0000 	strgt	r0, [ip], #-0
    4e94:	6c00000c 	stcvs	0, cr0, [r0], {12}
    4e98:	10000006 	andne	r0, r0, r6
    4e9c:	00000001 	andeq	r0, r0, r1
    4ea0:	2d000000 	stccs	0, cr0, [r0, #-0]
    4ea4:	02000029 	andeq	r0, r0, #41, 0	; 0x29
    4ea8:	6e690504 	cdpvs	5, 6, cr0, cr9, cr4, {0}
    4eac:	65030074 	strvs	r0, [r3, #-116]	; 0xffffff8c
    4eb0:	03000006 	movweq	r0, #6
    4eb4:	003817d1 	ldrsbteq	r1, [r8], -r1
    4eb8:	04040000 	streq	r0, [r4], #-0
    4ebc:	00010107 	andeq	r0, r1, r7, lsl #2
    4ec0:	06010400 	streq	r0, [r1], -r0, lsl #8
    4ec4:	000000cb 	andeq	r0, r0, fp, asr #1
    4ec8:	22050204 	andcs	r0, r5, #4, 4	; 0x40000000
    4ecc:	04000000 	streq	r0, [r0], #-0
    4ed0:	006b0504 	rsbeq	r0, fp, r4, lsl #10
    4ed4:	08040000 	stmdaeq	r4, {}	; <UNPREDICTABLE>
    4ed8:	00006605 	andeq	r6, r0, r5, lsl #12
    4edc:	08010400 	stmdaeq	r1, {sl}
    4ee0:	000000c9 	andeq	r0, r0, r9, asr #1
    4ee4:	00005b05 	andeq	r5, r0, r5, lsl #22
    4ee8:	07020400 	streq	r0, [r2, -r0, lsl #8]
    4eec:	00000143 	andeq	r0, r0, r3, asr #2
    4ef0:	fc070404 	stc2	4, cr0, [r7], {4}
    4ef4:	04000000 	streq	r0, [r0], #-0
    4ef8:	00f70708 	rscseq	r0, r7, r8, lsl #14
    4efc:	25060000 	strcs	r0, [r6, #-0]
    4f00:	8b000000 	blhi	4f08 <__code_start__-0x30f8>
    4f04:	07000000 	streq	r0, [r0, -r0]
    4f08:	00000025 	andeq	r0, r0, r5, lsr #32
    4f0c:	002c0800 	eoreq	r0, ip, r0, lsl #16
    4f10:	1c020000 	stcne	0, cr0, [r2], {-0}
    4f14:	0000970e 	andeq	r9, r0, lr, lsl #14
    4f18:	7c040900 			; <UNDEFINED> instruction: 0x7c040900
    4f1c:	06000000 	streq	r0, [r0], -r0
    4f20:	00000025 	andeq	r0, r0, r5, lsr #32
    4f24:	000000ac 	andeq	r0, r0, ip, lsr #1
    4f28:	0000ac07 	andeq	sl, r0, r7, lsl #24
    4f2c:	04090000 	streq	r0, [r9], #-0
    4f30:	000000b9 	strheq	r0, [r0], -r9
    4f34:	d2080104 	andle	r0, r8, #1
    4f38:	05000000 	streq	r0, [r0, #-0]
    4f3c:	000000b2 	strheq	r0, [r0], -r2
    4f40:	00072a08 	andeq	r2, r7, r8, lsl #20
    4f44:	0e210200 	cdpeq	2, 2, cr0, cr1, cr0, {0}
    4f48:	000000ca 	andeq	r0, r0, sl, asr #1
    4f4c:	009d0409 	addseq	r0, sp, r9, lsl #8
    4f50:	f50a0000 			; <UNDEFINED> instruction: 0xf50a0000
    4f54:	01000007 	tsteq	r0, r7
    4f58:	00250504 	eoreq	r0, r5, r4, lsl #10
    4f5c:	9f080000 	svcls	0x00080000
    4f60:	002c0000 	eoreq	r0, ip, r0
    4f64:	9c010000 	stcls	0, cr0, [r1], {-0}
    4f68:	0000014b 	andeq	r0, r0, fp, asr #2
    4f6c:	31735f0b 	cmncc	r3, fp, lsl #30
    4f70:	19040100 	stmdbne	r4, {r8}
    4f74:	000000ac 	andeq	r0, r0, ip, lsr #1
    4f78:	0000205b 	andeq	r2, r0, fp, asr r0
    4f7c:	00002057 	andeq	r2, r0, r7, asr r0
    4f80:	32735f0b 	rsbscc	r5, r3, #11, 30	; 0x2c
    4f84:	2a040100 	bcs	10538c <__bss_end__+0xfa42c>
    4f88:	000000ac 	andeq	r0, r0, ip, lsr #1
    4f8c:	00002080 	andeq	r2, r0, r0, lsl #1
    4f90:	0000207c 	andeq	r2, r0, ip, ror r0
    4f94:	01006e0b 	tsteq	r0, fp, lsl #28
    4f98:	002c3604 	eoreq	r3, ip, r4, lsl #12
    4f9c:	20a70000 	adccs	r0, r7, r0
    4fa0:	20a10000 	adccs	r0, r1, r0
    4fa4:	730c0000 	movwvc	r0, #49152	; 0xc000
    4fa8:	05010031 	streq	r0, [r1, #-49]	; 0xffffffcf
    4fac:	00014b1a 	andeq	r4, r1, sl, lsl fp
    4fb0:	0020da00 	eoreq	sp, r0, r0, lsl #20
    4fb4:	0020d200 	eoreq	sp, r0, r0, lsl #4
    4fb8:	32730c00 	rsbscc	r0, r3, #0, 24
    4fbc:	2c050100 	stfcss	f0, [r5], {-0}
    4fc0:	0000014b 	andeq	r0, r0, fp, asr #2
    4fc4:	00002116 	andeq	r2, r0, r6, lsl r1
    4fc8:	00002110 	andeq	r2, r0, r0, lsl r1
    4fcc:	62040900 	andvs	r0, r4, #0, 18
    4fd0:	00000000 	andeq	r0, r0, r0
    4fd4:	000000ce 	andeq	r0, r0, lr, asr #1
    4fd8:	1bb80004 	blne	fee04ff0 <__bss_end__+0xfedfa090>
    4fdc:	01040000 	mrseq	r0, (UNDEF: 4)
    4fe0:	0000059b 	muleq	r0, fp, r5
    4fe4:	000cd50c 	andeq	sp, ip, ip, lsl #10
    4fe8:	00066c00 	andeq	r6, r6, r0, lsl #24
    4fec:	009f3400 	addseq	r3, pc, r0, lsl #8
    4ff0:	00000400 	andeq	r0, r0, r0, lsl #8
    4ff4:	002a5200 	eoreq	r5, sl, r0, lsl #4
    4ff8:	05040200 	streq	r0, [r4, #-512]	; 0xfffffe00
    4ffc:	00746e69 	rsbseq	r6, r4, r9, ror #28
    5000:	01070403 	tsteq	r7, r3, lsl #8
    5004:	03000001 	movweq	r0, #1
    5008:	00cb0601 	sbceq	r0, fp, r1, lsl #12
    500c:	02030000 	andeq	r0, r3, #0, 0
    5010:	00002205 	andeq	r2, r0, r5, lsl #4
    5014:	05040300 	streq	r0, [r4, #-768]	; 0xfffffd00
    5018:	0000006b 	andeq	r0, r0, fp, rrx
    501c:	66050803 	strvs	r0, [r5], -r3, lsl #16
    5020:	03000000 	movweq	r0, #0
    5024:	00c90801 	sbceq	r0, r9, r1, lsl #16
    5028:	02030000 	andeq	r0, r3, #0, 0
    502c:	00014307 	andeq	r4, r1, r7, lsl #6
    5030:	07040300 	streq	r0, [r4, -r0, lsl #6]
    5034:	000000fc 	strdeq	r0, [r0], -ip
    5038:	f7070803 			; <UNDEFINED> instruction: 0xf7070803
    503c:	04000000 	streq	r0, [r0], #-0
    5040:	00000025 	andeq	r0, r0, r5, lsr #32
    5044:	0000007a 	andeq	r0, r0, sl, ror r0
    5048:	00002505 	andeq	r2, r0, r5, lsl #10
    504c:	2c060000 	stccs	0, cr0, [r6], {-0}
    5050:	02000000 	andeq	r0, r0, #0, 0
    5054:	00860e1c 	addeq	r0, r6, ip, lsl lr
    5058:	04070000 	streq	r0, [r7], #-0
    505c:	0000006b 	andeq	r0, r0, fp, rrx
    5060:	00002504 	andeq	r2, r0, r4, lsl #10
    5064:	00009b00 	andeq	r9, r0, r0, lsl #22
    5068:	009b0500 	addseq	r0, fp, r0, lsl #10
    506c:	07000000 	streq	r0, [r0, -r0]
    5070:	0000a804 	andeq	sl, r0, r4, lsl #16
    5074:	08010300 	stmdaeq	r1, {r8, r9}
    5078:	000000d2 	ldrdeq	r0, [r0], -r2
    507c:	0000a108 	andeq	sl, r0, r8, lsl #2
    5080:	072a0600 	streq	r0, [sl, -r0, lsl #12]!
    5084:	21020000 	mrscs	r0, (UNDEF: 2)
    5088:	0000b90e 	andeq	fp, r0, lr, lsl #18
    508c:	8c040700 	stchi	7, cr0, [r4], {-0}
    5090:	09000000 	stmdbeq	r0, {}	; <UNPREDICTABLE>
    5094:	0000089c 	muleq	r0, ip, r8
    5098:	34060301 	strcc	r0, [r6], #-769	; 0xfffffcff
    509c:	0400009f 	streq	r0, [r0], #-159	; 0xffffff61
    50a0:	01000000 	mrseq	r0, (UNDEF: 0)
    50a4:	03a5009c 			; <UNDEFINED> instruction: 0x03a5009c
    50a8:	00040000 	andeq	r0, r4, r0
    50ac:	00001c31 	andeq	r1, r0, r1, lsr ip
    50b0:	0a720104 	beq	1c854c8 <__bss_end__+0x1c7a568>
    50b4:	740c0000 	strvc	r0, [ip], #-0
    50b8:	2200000d 	andcs	r0, r0, #13, 0
    50bc:	5000000a 	andpl	r0, r0, sl
    50c0:	1c00009f 	stcne	0, cr0, [r0], {159}	; 0x9f
    50c4:	06000001 	streq	r0, [r0], -r1
    50c8:	0200002b 	andeq	r0, r0, #43, 0	; 0x2b
    50cc:	6e690504 	cdpvs	5, 6, cr0, cr9, cr4, {0}
    50d0:	04030074 	streq	r0, [r3], #-116	; 0xffffff8c
    50d4:	00010107 	andeq	r0, r1, r7, lsl #2
    50d8:	002c0400 	eoreq	r0, ip, r0, lsl #8
    50dc:	01030000 	mrseq	r0, (UNDEF: 3)
    50e0:	0000cb06 	andeq	ip, r0, r6, lsl #22
    50e4:	05020300 	streq	r0, [r2, #-768]	; 0xfffffd00
    50e8:	00000022 	andeq	r0, r0, r2, lsr #32
    50ec:	6b050403 	blvs	146100 <__bss_end__+0x13b1a0>
    50f0:	03000000 	movweq	r0, #0
    50f4:	00660508 	rsbeq	r0, r6, r8, lsl #10
    50f8:	01030000 	mrseq	r0, (UNDEF: 3)
    50fc:	0000c908 	andeq	ip, r0, r8, lsl #18
    5100:	07020300 	streq	r0, [r2, -r0, lsl #6]
    5104:	00000143 	andeq	r0, r0, r3, asr #2
    5108:	00012905 	andeq	r2, r1, r5, lsl #18
    510c:	19340300 	ldmdbne	r4!, {r8, r9}
    5110:	0000006e 	andeq	r0, r0, lr, rrx
    5114:	fc070403 	stc2	4, cr0, [r7], {3}
    5118:	03000000 	movweq	r0, #0
    511c:	00f70708 	rscseq	r0, r7, r8, lsl #14
    5120:	01030000 	mrseq	r0, (UNDEF: 3)
    5124:	0000d208 	andeq	sp, r0, r8, lsl #4
    5128:	01070600 	tsteq	r7, r0, lsl #12
    512c:	00000054 	andeq	r0, r0, r4, asr r0
    5130:	c20e0c04 	andgt	r0, lr, #4, 24	; 0x400
    5134:	07000000 	streq	r0, [r0, -r0]
    5138:	00000b5c 	andeq	r0, r0, ip, asr fp
    513c:	09940700 	ldmibeq	r4, {r8, r9, sl}
    5140:	07010000 	streq	r0, [r1, -r0]
    5144:	000009d7 	ldrdeq	r0, [r0], -r7
    5148:	09e60704 	stmibeq	r6!, {r2, r8, r9, sl}^
    514c:	07050000 	streq	r0, [r5, -r0]
    5150:	000009f5 	strdeq	r0, [r0], -r5
    5154:	0a040706 	beq	106d74 <__bss_end__+0xfbe14>
    5158:	07070000 	streq	r0, [r7, -r0]
    515c:	00000b25 	andeq	r0, r0, r5, lsr #22
    5160:	0a130703 	beq	4c6d74 <__bss_end__+0x4bbe14>
    5164:	00020000 	andeq	r0, r2, r0
    5168:	000d5905 	andeq	r5, sp, r5, lsl #18
    516c:	03150400 	tsteq	r5, #0, 8
    5170:	00000083 	andeq	r0, r0, r3, lsl #1
    5174:	000d0408 	andeq	r0, sp, r8, lsl #8
    5178:	171d0100 	ldrne	r0, [sp, -r0, lsl #2]
    517c:	00000033 	andeq	r0, r0, r3, lsr r0
    5180:	2020001c 	eorcs	r0, r0, ip, lsl r0
    5184:	000cfa08 	andeq	pc, ip, r8, lsl #20
    5188:	171e0100 	ldrne	r0, [lr, -r0, lsl #2]
    518c:	00000033 	andeq	r0, r0, r3, lsr r0
    5190:	20200028 	eorcs	r0, r0, r8, lsr #32
    5194:	000d6508 	andeq	r6, sp, r8, lsl #10
    5198:	171f0100 	ldrne	r0, [pc, -r0, lsl #2]
    519c:	00000033 	andeq	r0, r0, r3, lsr r0
    51a0:	20200034 	eorcs	r0, r0, r4, lsr r0
    51a4:	000d2309 	andeq	r2, sp, r9, lsl #6
    51a8:	05550100 	ldrbeq	r0, [r5, #-256]	; 0xffffff00
    51ac:	00000025 	andeq	r0, r0, r5, lsr #32
    51b0:	0000a038 	andeq	sl, r0, r8, lsr r0
    51b4:	00000034 	andeq	r0, r0, r4, lsr r0
    51b8:	016e9c01 	cmneq	lr, r1, lsl #24
    51bc:	700a0000 	andvc	r0, sl, r0
    51c0:	01006e69 	tsteq	r0, r9, ror #28
    51c4:	002c1855 	eoreq	r1, ip, r5, asr r8
    51c8:	21490000 	mrscs	r0, (UNDEF: 73)
    51cc:	21410000 	mrscs	r0, (UNDEF: 65)
    51d0:	6f0b0000 	svcvs	0x000b0000
    51d4:	0100000d 	tsteq	r0, sp
    51d8:	002c0e58 	eoreq	r0, ip, r8, asr lr
    51dc:	21890000 	orrcs	r0, r9, r0
    51e0:	21830000 	orrcs	r0, r3, r0
    51e4:	6f0c0000 	svcvs	0x000c0000
    51e8:	01006666 	tsteq	r0, r6, ror #12
    51ec:	002c0e59 	eoreq	r0, ip, r9, asr lr
    51f0:	21c90000 	biccs	r0, r9, r0
    51f4:	21c70000 	biccs	r0, r7, r0
    51f8:	540d0000 	strpl	r0, [sp], #-0
    51fc:	900000a0 	andls	r0, r0, r0, lsr #1
    5200:	0e000003 	cdpeq	0, 0, cr0, cr0, cr3, {0}
    5204:	f30b5001 	vhadd.u8	d5, d11, d1
    5208:	25355001 	ldrcs	r5, [r5, #-1]!
    520c:	8080b423 	addhi	fp, r0, r3, lsr #8
    5210:	00000281 	andeq	r0, r0, r1, lsl #5
    5214:	000d0e0f 	andeq	r0, sp, pc, lsl #28
    5218:	064e0100 	strbeq	r0, [lr], -r0, lsl #2
    521c:	0000a01c 	andeq	sl, r0, ip, lsl r0
    5220:	0000001c 	andeq	r0, r0, ip, lsl r0
    5224:	01c99c01 	biceq	r9, r9, r1, lsl #24
    5228:	700a0000 	andvc	r0, sl, r0
    522c:	01006e69 	tsteq	r0, r9, ror #28
    5230:	002c1a4e 	eoreq	r1, ip, lr, asr #20
    5234:	21e40000 	mvncs	r0, r0
    5238:	21dc0000 	bicscs	r0, ip, r0
    523c:	760a0000 	strvc	r0, [sl], -r0
    5240:	284e0100 	stmdacs	lr, {r8}^
    5244:	0000002c 	andeq	r0, r0, ip, lsr #32
    5248:	00002226 	andeq	r2, r0, r6, lsr #4
    524c:	0000221e 	andeq	r2, r0, lr, lsl r2
    5250:	00a02c10 	adceq	r2, r0, r0, lsl ip
    5254:	00025100 	andeq	r5, r2, r0, lsl #2
    5258:	0001bf00 	andeq	fp, r1, r0, lsl #30
    525c:	50010e00 	andpl	r0, r1, r0, lsl #28
    5260:	5001f303 	andpl	pc, r1, r3, lsl #6
    5264:	a0341100 	eorsge	r1, r4, r0, lsl #2
    5268:	020a0000 	andeq	r0, sl, #0, 0
    526c:	0f000000 	svceq	0x00000000
    5270:	00000d2d 	andeq	r0, r0, sp, lsr #26
    5274:	0c064901 			; <UNDEFINED> instruction: 0x0c064901
    5278:	100000a0 	andne	r0, r0, r0, lsr #1
    527c:	01000000 	mrseq	r0, (UNDEF: 0)
    5280:	00020a9c 	muleq	r2, ip, sl
    5284:	69700a00 	ldmdbvs	r0!, {r9, fp}^
    5288:	4901006e 	stmdbmi	r1, {r1, r2, r3, r5, r6}
    528c:	00002c1e 	andeq	r2, r0, lr, lsl ip
    5290:	00226400 	eoreq	r6, r2, r0, lsl #8
    5294:	00226000 	eoreq	r6, r2, r0
    5298:	a0180d00 	andsge	r0, r8, r0, lsl #26
    529c:	02d90000 	sbcseq	r0, r9, #0, 0
    52a0:	010e0000 	mrseq	r0, (UNDEF: 14)
    52a4:	01f30350 	mvnseq	r0, r0, asr r3
    52a8:	51010e50 	tstpl	r1, r0, asr lr
    52ac:	00003001 	andeq	r3, r0, r1
    52b0:	000d3c0f 	andeq	r3, sp, pc, lsl #24
    52b4:	06420100 	strbeq	r0, [r2], -r0, lsl #2
    52b8:	00009fe8 	andeq	r9, r0, r8, ror #31
    52bc:	00000024 	andeq	r0, r0, r4, lsr #32
    52c0:	02519c01 	subseq	r9, r1, #256	; 0x100
    52c4:	700a0000 	andvc	r0, sl, r0
    52c8:	01006e69 	tsteq	r0, r9, ror #28
    52cc:	002c1c42 	eoreq	r1, ip, r2, asr #24
    52d0:	22890000 	addcs	r0, r9, #0, 0
    52d4:	22850000 	addcs	r0, r5, #0, 0
    52d8:	040d0000 	streq	r0, [sp], #-0
    52dc:	9c0000a0 	stcls	0, cr0, [r0], {160}	; 0xa0
    52e0:	0e000003 	cdpeq	0, 0, cr0, cr0, cr3, {0}
    52e4:	0c055001 	stceq	0, cr5, [r5], {1}
    52e8:	20200028 	eorcs	r0, r0, r8, lsr #32
    52ec:	0551010e 	ldrbeq	r0, [r1, #-270]	; 0xfffffef2
    52f0:	5001f331 	andpl	pc, r1, r1, lsr r3	; <UNPREDICTABLE>
    52f4:	0f000024 	svceq	0x00000024
    52f8:	00000d7b 	andeq	r0, r0, fp, ror sp
    52fc:	c4063b01 	strgt	r3, [r6], #-2817	; 0xfffff4ff
    5300:	2400009f 	strcs	r0, [r0], #-159	; 0xffffff61
    5304:	01000000 	mrseq	r0, (UNDEF: 0)
    5308:	0002989c 	muleq	r2, ip, r8
    530c:	69700a00 	ldmdbvs	r0!, {r9, fp}^
    5310:	3b01006e 	blcc	454d0 <__bss_end__+0x3a570>
    5314:	00002c1b 	andeq	r2, r0, fp, lsl ip
    5318:	0022ae00 	eoreq	sl, r2, r0, lsl #28
    531c:	0022aa00 	eoreq	sl, r2, r0, lsl #20
    5320:	9fe00d00 	svcls	0x00e00d00
    5324:	039c0000 	orrseq	r0, ip, #0, 0
    5328:	010e0000 	mrseq	r0, (UNDEF: 14)
    532c:	1c0c0550 	cfstr32ne	mvfx0, [ip], {80}	; 0x50
    5330:	0e202000 	cdpeq	0, 2, cr2, cr0, cr0, {0}
    5334:	31055101 	tstcc	r5, r1, lsl #2
    5338:	245001f3 	ldrbcs	r0, [r0], #-499	; 0xfffffe0d
    533c:	490f0000 	stmdbmi	pc, {}	; <UNPREDICTABLE>
    5340:	0100000d 	tsteq	r0, sp
    5344:	9fb40636 	svcls	0x00b40636
    5348:	00100000 	andseq	r0, r0, r0
    534c:	9c010000 	stcls	0, cr0, [r1], {-0}
    5350:	000002d9 	ldrdeq	r0, [r0], -r9
    5354:	6e69700a 	cdpvs	0, 6, cr7, cr9, cr10, {0}
    5358:	1f360100 	svcne	0x00360100
    535c:	0000002c 	andeq	r0, r0, ip, lsr #32
    5360:	000022d3 	ldrdeq	r2, [r0], -r3
    5364:	000022cf 	andeq	r2, r0, pc, asr #5
    5368:	009fc00d 	addseq	ip, pc, sp
    536c:	0002d900 	andeq	sp, r2, r0, lsl #18
    5370:	50010e00 	andpl	r0, r1, r0, lsl #28
    5374:	5001f303 	andpl	pc, r1, r3, lsl #6
    5378:	0151010e 	cmpeq	r1, lr, lsl #2
    537c:	0f000031 	svceq	0x00000031
    5380:	00000b6c 	andeq	r0, r0, ip, ror #22
    5384:	50062801 	andpl	r2, r6, r1, lsl #16
    5388:	6400009f 	strvs	r0, [r0], #-159	; 0xffffff61
    538c:	01000000 	mrseq	r0, (UNDEF: 0)
    5390:	0003749c 	muleq	r3, ip, r4
    5394:	69700a00 	ldmdbvs	r0!, {r9, fp}^
    5398:	2801006e 	stmdacs	r1, {r1, r2, r3, r5, r6}
    539c:	00002c21 	andeq	r2, r0, r1, lsr #24
    53a0:	0022f800 	eoreq	pc, r2, r0, lsl #16
    53a4:	0022f400 	eoreq	pc, r2, r0, lsl #8
    53a8:	00611200 	rsbeq	r1, r1, r0, lsl #4
    53ac:	28010000 	stmdacs	r1, {}	; <UNPREDICTABLE>
    53b0:	0000c232 	andeq	ip, r0, r2, lsr r2
    53b4:	00231d00 	eoreq	r1, r3, r0, lsl #26
    53b8:	00231900 	eoreq	r1, r3, r0, lsl #18
    53bc:	666f0c00 	strbtvs	r0, [pc], -r0, lsl #24
    53c0:	2d010066 	stccs	0, cr0, [r1, #-408]	; 0xfffffe68
    53c4:	00002c0e 	andeq	r2, r0, lr, lsl #24
    53c8:	00234000 	eoreq	r4, r3, r0
    53cc:	00233e00 	eoreq	r3, r3, r0, lsl #28
    53d0:	00670c00 	rsbeq	r0, r7, r0, lsl #24
    53d4:	2c0e2e01 	stccs	14, cr2, [lr], {1}
    53d8:	55000000 	strpl	r0, [r0, #-0]
    53dc:	53000023 	movwpl	r0, #35	; 0x23
    53e0:	0c000023 	stceq	0, cr0, [r0], {35}	; 0x23
    53e4:	30010076 	andcc	r0, r1, r6, ror r0
    53e8:	00002c0e 	andeq	r2, r0, lr, lsl #24
    53ec:	00237000 	eoreq	r7, r3, r0
    53f0:	00236800 	eoreq	r6, r3, r0, lsl #16
    53f4:	9f981000 	svcls	0x00981000
    53f8:	03900000 	orrseq	r0, r0, #0, 0
    53fc:	03630000 	cmneq	r3, #0, 0
    5400:	010e0000 	mrseq	r0, (UNDEF: 14)
    5404:	00760250 	rsbseq	r0, r6, r0, asr r2
    5408:	9fac0d00 	svcls	0x00ac0d00
    540c:	039c0000 	orrseq	r0, ip, #0, 0
    5410:	010e0000 	mrseq	r0, (UNDEF: 14)
    5414:	00760250 	rsbseq	r0, r6, r0, asr r2
    5418:	19130000 	ldmdbne	r3, {}	; <UNPREDICTABLE>
    541c:	0200000d 	andeq	r0, r0, #13, 0
    5420:	006218b6 	strhteq	r1, [r2], #-134	; 0xffffff7a
    5424:	90030000 	andls	r0, r3, r0
    5428:	14000003 	strne	r0, [r0], #-3
    542c:	b6020078 			; <UNDEFINED> instruction: 0xb6020078
    5430:	0000622b 	andeq	r6, r0, fp, lsr #4
    5434:	41150000 	tstmi	r5, r0
    5438:	41000009 	tstmi	r0, r9
    543c:	02000009 	andeq	r0, r0, #9, 0
    5440:	45150ac7 	ldrmi	r0, [r5, #-2759]	; 0xfffff539
    5444:	45000000 	strmi	r0, [r0, #-0]
    5448:	02000000 	andeq	r0, r0, #0, 0
    544c:	Address 0x000000000000544c is out of bounds.


Disassembly of section .debug_abbrev:

00000000 <.debug_abbrev>:
       0:	25011101 	strcs	r1, [r1, #-257]	; 0xfffffeff
       4:	030b130e 	movweq	r1, #45838	; 0xb30e
       8:	110e1b0e 	tstne	lr, lr, lsl #22
       c:	10061201 	andne	r1, r6, r1, lsl #4
      10:	02000017 	andeq	r0, r0, #23, 0
      14:	0b0b0024 	bleq	2c00ac <__bss_end__+0x2b514c>
      18:	08030b3e 	stmdaeq	r3, {r1, r2, r3, r4, r5, r8, r9, fp}
      1c:	24030000 	strcs	r0, [r3], #-0
      20:	3e0b0b00 	vmlacc.f64	d0, d11, d0
      24:	000e030b 	andeq	r0, lr, fp, lsl #6
      28:	00160400 	andseq	r0, r6, r0, lsl #8
      2c:	0b3a0e03 	bleq	e83840 <__bss_end__+0xe788e0>
      30:	0b390b3b 	bleq	e42d24 <__bss_end__+0xe37dc4>
      34:	00001349 	andeq	r1, r0, r9, asr #6
      38:	27011505 	strcs	r1, [r1, -r5, lsl #10]
      3c:	01134919 	tsteq	r3, r9, lsl r9
      40:	06000013 			; <UNDEFINED> instruction: 0x06000013
      44:	13490005 	movtne	r0, #36869	; 0x9005
      48:	34070000 	strcc	r0, [r7], #-0
      4c:	3a0e0300 	bcc	380c54 <__bss_end__+0x375cf4>
      50:	390b3b0b 	stmdbcc	fp, {r0, r1, r3, r8, r9, fp, ip, sp}
      54:	3f13490b 	svccc	0x0013490b
      58:	00193c19 	andseq	r3, r9, r9, lsl ip
      5c:	000f0800 	andeq	r0, pc, r0, lsl #16
      60:	13490b0b 	movtne	r0, #39691	; 0x9b0b
      64:	26090000 	strcs	r0, [r9], -r0
      68:	00134900 	andseq	r4, r3, r0, lsl #18
      6c:	01130a00 	tsteq	r3, r0, lsl #20
      70:	0b3a0b0b 	bleq	e82ca4 <__bss_end__+0xe77d44>
      74:	0b390b3b 	bleq	e42d68 <__bss_end__+0xe37e08>
      78:	00001301 	andeq	r1, r0, r1, lsl #6
      7c:	03000d0b 	movweq	r0, #3339	; 0xd0b
      80:	3b0b3a0e 	blcc	2ce8c0 <__bss_end__+0x2c3960>
      84:	490b390b 	stmdbmi	fp, {r0, r1, r3, r8, fp, ip, sp}
      88:	000b3813 	andeq	r3, fp, r3, lsl r8
      8c:	00340c00 	eorseq	r0, r4, r0, lsl #24
      90:	0b3a0e03 	bleq	e838a4 <__bss_end__+0xe78944>
      94:	0b390b3b 	bleq	e42d88 <__bss_end__+0xe37e28>
      98:	0b1c1349 	bleq	704dc4 <__bss_end__+0x6f9e64>
      9c:	130d0000 	movwne	r0, #53248	; 0xd000
      a0:	0b0e0301 	bleq	380cac <__bss_end__+0x375d4c>
      a4:	3b0b3a0b 	blcc	2ce8d8 <__bss_end__+0x2c3978>
      a8:	010b390b 	tsteq	fp, fp, lsl #18
      ac:	0e000013 	mcreq	0, 0, r0, cr0, cr3, {0}
      b0:	0803000d 	stmdaeq	r3, {r0, r2, r3}
      b4:	0b3b0b3a 	bleq	ec2da4 <__bss_end__+0xeb7e44>
      b8:	13490b39 	movtne	r0, #39737	; 0x9b39
      bc:	00000b38 	andeq	r0, r0, r8, lsr fp
      c0:	4901010f 	stmdbmi	r1, {r0, r1, r2, r3, r8}
      c4:	00130113 	andseq	r0, r3, r3, lsl r1
      c8:	00211000 	eoreq	r1, r1, r0
      cc:	0b2f1349 	bleq	bc4df8 <__bss_end__+0xbb9e98>
      d0:	34110000 	ldrcc	r0, [r1], #-0
      d4:	3a0e0300 	bcc	380cdc <__bss_end__+0x375d7c>
      d8:	390b3b0b 	stmdbcc	fp, {r0, r1, r3, r8, r9, fp, ip, sp}
      dc:	0013490b 	andseq	r4, r3, fp, lsl #18
      e0:	000f1200 	andeq	r1, pc, r0, lsl #4
      e4:	00000b0b 	andeq	r0, r0, fp, lsl #22
      e8:	3f012e13 	svccc	0x00012e13
      ec:	3a080319 	bcc	200d58 <__bss_end__+0x1f5df8>
      f0:	390b3b0b 	stmdbcc	fp, {r0, r1, r3, r8, r9, fp, ip, sp}
      f4:	4919270b 	ldmdbmi	r9, {r0, r1, r3, r8, r9, sl, sp}
      f8:	12011113 	andne	r1, r1, #-1073741820	; 0xc0000004
      fc:	97184006 	ldrls	r4, [r8, -r6]
     100:	13011942 	movwne	r1, #6466	; 0x1942
     104:	34140000 	ldrcc	r0, [r4], #-0
     108:	3a080300 	bcc	200d10 <__bss_end__+0x1f5db0>
     10c:	390b3b0b 	stmdbcc	fp, {r0, r1, r3, r8, r9, fp, ip, sp}
     110:	0213490b 	andseq	r4, r3, #180224	; 0x2c000
     114:	1742b717 	smlaldne	fp, r2, r7, r7
     118:	89150000 	ldmdbhi	r5, {}	; <UNPREDICTABLE>
     11c:	11000182 	smlabbne	r0, r2, r1, r0
     120:	00133101 	andseq	r3, r3, r1, lsl #2
     124:	82891600 	addhi	r1, r9, #0, 12
     128:	01110101 	tsteq	r1, r1, lsl #2
     12c:	00001331 	andeq	r1, r0, r1, lsr r3
     130:	01828a17 	orreq	r8, r2, r7, lsl sl
     134:	91180200 	tstls	r8, r0, lsl #4
     138:	00001842 	andeq	r1, r0, r2, asr #16
     13c:	3f012e18 	svccc	0x00012e18
     140:	3a0e0319 	bcc	380dac <__bss_end__+0x375e4c>
     144:	390b3b0b 	stmdbcc	fp, {r0, r1, r3, r8, r9, fp, ip, sp}
     148:	1119270b 	tstne	r9, fp, lsl #14
     14c:	40061201 	andmi	r1, r6, r1, lsl #4
     150:	19429718 	stmdbne	r2, {r3, r4, r8, r9, sl, ip, pc}^
     154:	00001301 	andeq	r1, r0, r1, lsl #6
     158:	03003419 	movweq	r3, #1049	; 0x419
     15c:	3b0b3a08 	blcc	2ce984 <__bss_end__+0x2c3a24>
     160:	490b390b 	stmdbmi	fp, {r0, r1, r3, r8, fp, ip, sp}
     164:	1a000013 	bne	1b8 <__code_start__-0x7e48>
     168:	0e030034 	mcreq	0, 0, r0, cr3, cr4, {1}
     16c:	19341349 	ldmdbne	r4!, {r0, r3, r6, r8, r9, ip}
     170:	00001802 	andeq	r1, r0, r2, lsl #16
     174:	0182891b 	orreq	r8, r2, fp, lsl r9
     178:	31011101 	tstcc	r1, r1, lsl #2
     17c:	00130113 	andseq	r0, r3, r3, lsl r1
     180:	012e1c00 			; <UNDEFINED> instruction: 0x012e1c00
     184:	0e03193f 			; <UNDEFINED> instruction: 0x0e03193f
     188:	0b3b0b3a 	bleq	ec2e78 <__bss_end__+0xeb7f18>
     18c:	19270b39 	stmdbne	r7!, {r0, r3, r4, r5, r8, r9, fp}
     190:	01111349 	tsteq	r1, r9, asr #6
     194:	18400612 	stmdane	r0, {r1, r4, r9, sl}^
     198:	01194297 			; <UNDEFINED> instruction: 0x01194297
     19c:	1d000013 	stcne	0, cr0, [r0, #-76]	; 0xffffffb4
     1a0:	1755010b 	ldrbne	r0, [r5, -fp, lsl #2]
     1a4:	00001301 	andeq	r1, r0, r1, lsl #6
     1a8:	55010b1e 	strpl	r0, [r1, #-2846]	; 0xfffff4e2
     1ac:	1f000017 	svcne	0x00000017
     1b0:	1331011d 	teqne	r1, #1073741831	; 0x40000007
     1b4:	42b80152 	adcsmi	r0, r8, #-2147483628	; 0x80000014
     1b8:	1201110b 	andne	r1, r1, #-1073741822	; 0xc0000002
     1bc:	590b5806 	stmdbpl	fp, {r1, r2, fp, ip, lr}
     1c0:	010b570b 	tsteq	fp, fp, lsl #14
     1c4:	20000013 	andcs	r0, r0, r3, lsl r0
     1c8:	13310005 	teqne	r1, #5, 0
     1cc:	42b71702 	adcsmi	r1, r7, #524288	; 0x80000
     1d0:	21000017 	tstcs	r0, r7, lsl r0
     1d4:	0e03012e 	adfeqsp	f0, f3, #0.5
     1d8:	0b3b0b3a 	bleq	ec2ec8 <__bss_end__+0xeb7f68>
     1dc:	19270b39 	stmdbne	r7!, {r0, r3, r4, r5, r8, r9, fp}
     1e0:	0b201349 	bleq	804f0c <__bss_end__+0x7f9fac>
     1e4:	00001301 	andeq	r1, r0, r1, lsl #6
     1e8:	03000522 	movweq	r0, #1314	; 0x522
     1ec:	3b0b3a0e 	blcc	2cea2c <__bss_end__+0x2c3acc>
     1f0:	490b390b 	stmdbmi	fp, {r0, r1, r3, r8, fp, ip, sp}
     1f4:	23000013 	movwcs	r0, #19
     1f8:	193f002e 	ldmdbne	pc!, {r1, r2, r3, r5}	; <UNPREDICTABLE>
     1fc:	0e6e193c 			; <UNDEFINED> instruction: 0x0e6e193c
     200:	0b3a0e03 	bleq	e83a14 <__bss_end__+0xe78ab4>
     204:	0b390b3b 	bleq	e42ef8 <__bss_end__+0xe37f98>
     208:	36240000 	strtcc	r0, [r4], -r0
     20c:	00180200 	andseq	r0, r8, r0, lsl #4
     210:	11010000 	mrsne	r0, (UNDEF: 1)
     214:	130e2501 	movwne	r2, #58625	; 0xe501
     218:	1b0e030b 	blne	380e4c <__bss_end__+0x375eec>
     21c:	1201110e 	andne	r1, r1, #-2147483645	; 0x80000003
     220:	00171006 	andseq	r1, r7, r6
     224:	00240200 	eoreq	r0, r4, r0, lsl #4
     228:	0b3e0b0b 	bleq	f82e5c <__bss_end__+0xf77efc>
     22c:	00000803 	andeq	r0, r0, r3, lsl #16
     230:	0b002403 	bleq	9244 <rpi_set_output+0x24>
     234:	030b3e0b 	movweq	r3, #48651	; 0xbe0b
     238:	0400000e 	streq	r0, [r0], #-14
     23c:	0e030016 	mcreq	0, 0, r0, cr3, cr6, {0}
     240:	0b3b0b3a 	bleq	ec2f30 <__bss_end__+0xeb7fd0>
     244:	13490b39 	movtne	r0, #39737	; 0x9b39
     248:	15050000 	strne	r0, [r5, #-0]
     24c:	49192701 	ldmdbmi	r9, {r0, r8, r9, sl, sp}
     250:	00130113 	andseq	r0, r3, r3, lsl r1
     254:	00050600 	andeq	r0, r5, r0, lsl #12
     258:	00001349 	andeq	r1, r0, r9, asr #6
     25c:	03003407 	movweq	r3, #1031	; 0x407
     260:	3b0b3a0e 	blcc	2ceaa0 <__bss_end__+0x2c3b40>
     264:	490b390b 	stmdbmi	fp, {r0, r1, r3, r8, fp, ip, sp}
     268:	3c193f13 	ldccc	15, cr3, [r9], {19}
     26c:	08000019 	stmdaeq	r0, {r0, r3, r4}
     270:	0b0b000f 	bleq	2c02b4 <__bss_end__+0x2b5354>
     274:	00001349 	andeq	r1, r0, r9, asr #6
     278:	49002609 	stmdbmi	r0, {r0, r3, r9, sl, sp}
     27c:	0a000013 	beq	2d0 <__code_start__-0x7d30>
     280:	0b0b000f 	bleq	2c02c4 <__bss_end__+0x2b5364>
     284:	130b0000 	movwne	r0, #45056	; 0xb000
     288:	3a0b0b01 	bcc	2c2e94 <__bss_end__+0x2b7f34>
     28c:	390b3b0b 	stmdbcc	fp, {r0, r1, r3, r8, r9, fp, ip, sp}
     290:	0013010b 	andseq	r0, r3, fp, lsl #2
     294:	000d0c00 	andeq	r0, sp, r0, lsl #24
     298:	0b3a0e03 	bleq	e83aac <__bss_end__+0xe78b4c>
     29c:	0b390b3b 	bleq	e42f90 <__bss_end__+0xe38030>
     2a0:	0b381349 	bleq	e04fcc <__bss_end__+0xdfa06c>
     2a4:	040d0000 	streq	r0, [sp], #-0
     2a8:	0b0b3e01 	bleq	2cfab4 <__bss_end__+0x2c4b54>
     2ac:	3a13490b 	bcc	4d26e0 <__bss_end__+0x4c7780>
     2b0:	390b3b0b 	stmdbcc	fp, {r0, r1, r3, r8, r9, fp, ip, sp}
     2b4:	0013010b 	andseq	r0, r3, fp, lsl #2
     2b8:	00280e00 	eoreq	r0, r8, r0, lsl #28
     2bc:	0b1c0e03 	bleq	703ad0 <__bss_end__+0x6f8b70>
     2c0:	340f0000 	strcc	r0, [pc], #-0	; 2c8 <__code_start__-0x7d38>
     2c4:	3a0e0300 	bcc	380ecc <__bss_end__+0x375f6c>
     2c8:	390b3b0b 	stmdbcc	fp, {r0, r1, r3, r8, r9, fp, ip, sp}
     2cc:	0213490b 	andseq	r4, r3, #180224	; 0x2c000
     2d0:	10000018 	andne	r0, r0, r8, lsl r0
     2d4:	0e030113 	mcreq	1, 0, r0, cr3, cr3, {0}
     2d8:	0b3a0b0b 	bleq	e82f0c <__bss_end__+0xe77fac>
     2dc:	0b390b3b 	bleq	e42fd0 <__bss_end__+0xe38070>
     2e0:	00001301 	andeq	r1, r0, r1, lsl #6
     2e4:	03000d11 	movweq	r0, #3345	; 0xd11
     2e8:	3b0b3a08 	blcc	2ceb10 <__bss_end__+0x2c3bb0>
     2ec:	490b390b 	stmdbmi	fp, {r0, r1, r3, r8, fp, ip, sp}
     2f0:	000b3813 	andeq	r3, fp, r3, lsl r8
     2f4:	01011200 	mrseq	r1, R9_usr
     2f8:	13011349 	movwne	r1, #4937	; 0x1349
     2fc:	21130000 	tstcs	r3, r0
     300:	2f134900 	svccs	0x00134900
     304:	1400000b 	strne	r0, [r0], #-11
     308:	193f012e 	ldmdbne	pc!, {r1, r2, r3, r5, r8}	; <UNPREDICTABLE>
     30c:	0b3a0e03 	bleq	e83b20 <__bss_end__+0xe78bc0>
     310:	0b390b3b 	bleq	e43004 <__bss_end__+0xe380a4>
     314:	13491927 	movtne	r1, #39207	; 0x9927
     318:	06120111 			; <UNDEFINED> instruction: 0x06120111
     31c:	42971840 	addsmi	r1, r7, #64, 16	; 0x400000
     320:	00130119 	andseq	r0, r3, r9, lsl r1
     324:	00051500 	andeq	r1, r5, r0, lsl #10
     328:	0b3a0e03 	bleq	e83b3c <__bss_end__+0xe78bdc>
     32c:	0b390b3b 	bleq	e43020 <__bss_end__+0xe380c0>
     330:	17021349 	strne	r1, [r2, -r9, asr #6]
     334:	001742b7 			; <UNDEFINED> instruction: 0x001742b7
     338:	00051600 	andeq	r1, r5, r0, lsl #12
     33c:	0b3a0803 	bleq	e82350 <__bss_end__+0xe773f0>
     340:	0b390b3b 	bleq	e43034 <__bss_end__+0xe380d4>
     344:	18021349 	stmdane	r2, {r0, r3, r6, r8, r9, ip}
     348:	34170000 	ldrcc	r0, [r7], #-0
     34c:	3a080300 	bcc	200f54 <__bss_end__+0x1f5ff4>
     350:	390b3b0b 	stmdbcc	fp, {r0, r1, r3, r8, r9, fp, ip, sp}
     354:	0213490b 	andseq	r4, r3, #180224	; 0x2c000
     358:	1742b717 	smlaldne	fp, r2, r7, r7
     35c:	1d180000 	ldcne	0, cr0, [r8, #-0]
     360:	52133101 	andspl	r3, r3, #1073741824	; 0x40000000
     364:	0b42b801 	bleq	10ae370 <__bss_end__+0x10a3410>
     368:	06120111 			; <UNDEFINED> instruction: 0x06120111
     36c:	0b590b58 	bleq	16430d4 <__bss_end__+0x1638174>
     370:	13010b57 	movwne	r0, #6999	; 0x1b57
     374:	05190000 	ldreq	r0, [r9, #-0]
     378:	02133100 	andseq	r3, r3, #0
     37c:	1742b717 	smlaldne	fp, r2, r7, r7
     380:	891a0000 	ldmdbhi	sl, {}	; <UNPREDICTABLE>
     384:	11010182 	smlabbne	r1, r2, r1, r0
     388:	00133101 	andseq	r3, r3, r1, lsl #2
     38c:	828a1b00 	addhi	r1, sl, #0, 22
     390:	18020001 	stmdane	r2, {r0}
     394:	00184291 	mulseq	r8, r1, r2
     398:	82891c00 	addhi	r1, r9, #0, 24
     39c:	01110101 	tsteq	r1, r1, lsl #2
     3a0:	13011331 	movwne	r1, #4913	; 0x1331
     3a4:	2e1d0000 	cdpcs	0, 1, cr0, cr13, cr0, {0}
     3a8:	03193f01 	tsteq	r9, #1, 30
     3ac:	3b0b3a0e 	blcc	2cebec <__bss_end__+0x2c3c8c>
     3b0:	270b390b 	strcs	r3, [fp, -fp, lsl #18]
     3b4:	12011119 	andne	r1, r1, #1073741830	; 0x40000006
     3b8:	97184006 	ldrls	r4, [r8, -r6]
     3bc:	13011942 	movwne	r1, #6466	; 0x1942
     3c0:	341e0000 	ldrcc	r0, [lr], #-0
     3c4:	490e0300 	stmdbmi	lr, {r8, r9}
     3c8:	02193413 	andseq	r3, r9, #318767104	; 0x13000000
     3cc:	1f000018 	svcne	0x00000018
     3d0:	0111010b 	tsteq	r1, fp, lsl #2
     3d4:	13010612 	movwne	r0, #5650	; 0x1612
     3d8:	89200000 	stmdbhi	r0!, {}	; <UNPREDICTABLE>
     3dc:	11000182 	smlabbne	r0, r2, r1, r0
     3e0:	00133101 	andseq	r3, r3, r1, lsl #2
     3e4:	00342100 	eorseq	r2, r4, r0, lsl #2
     3e8:	0b3a0e03 	bleq	e83bfc <__bss_end__+0xe78c9c>
     3ec:	0b390b3b 	bleq	e430e0 <__bss_end__+0xe38180>
     3f0:	17021349 	strne	r1, [r2, -r9, asr #6]
     3f4:	001742b7 			; <UNDEFINED> instruction: 0x001742b7
     3f8:	00262200 	eoreq	r2, r6, r0, lsl #4
     3fc:	05230000 	streq	r0, [r3, #-0]!
     400:	3a080300 	bcc	201008 <__bss_end__+0x1f60a8>
     404:	390b3b0b 	stmdbcc	fp, {r0, r1, r3, r8, r9, fp, ip, sp}
     408:	0213490b 	andseq	r4, r3, #180224	; 0x2c000
     40c:	1742b717 	smlaldne	fp, r2, r7, r7
     410:	34240000 	strtcc	r0, [r4], #-0
     414:	3a0e0300 	bcc	38101c <__bss_end__+0x3760bc>
     418:	390b3b0b 	stmdbcc	fp, {r0, r1, r3, r8, r9, fp, ip, sp}
     41c:	0013490b 	andseq	r4, r3, fp, lsl #18
     420:	010b2500 	tsteq	fp, r0, lsl #10
     424:	00001755 	andeq	r1, r0, r5, asr r7
     428:	11010b26 	tstne	r1, r6, lsr #22
     42c:	00061201 	andeq	r1, r6, r1, lsl #4
     430:	002e2700 	eoreq	r2, lr, r0, lsl #14
     434:	0e03193f 			; <UNDEFINED> instruction: 0x0e03193f
     438:	0b3b0b3a 	bleq	ec3128 <__bss_end__+0xeb81c8>
     43c:	19270b39 	stmdbne	r7!, {r0, r3, r4, r5, r8, r9, fp}
     440:	01111349 	tsteq	r1, r9, asr #6
     444:	18400612 	stmdane	r0, {r1, r4, r9, sl}^
     448:	00194297 	mulseq	r9, r7, r2
     44c:	012e2800 			; <UNDEFINED> instruction: 0x012e2800
     450:	0b3a0e03 	bleq	e83c64 <__bss_end__+0xe78d04>
     454:	0b390b3b 	bleq	e43148 <__bss_end__+0xe381e8>
     458:	01111927 	tsteq	r1, r7, lsr #18
     45c:	18400612 	stmdane	r0, {r1, r4, r9, sl}^
     460:	01194297 			; <UNDEFINED> instruction: 0x01194297
     464:	29000013 	stmdbcs	r0, {r0, r1, r4}
     468:	0e03012e 	adfeqsp	f0, f3, #0.5
     46c:	0b3b0b3a 	bleq	ec315c <__bss_end__+0xeb81fc>
     470:	19270b39 	stmdbne	r7!, {r0, r3, r4, r5, r8, r9, fp}
     474:	0b201349 	bleq	8051a0 <__bss_end__+0x7fa240>
     478:	00001301 	andeq	r1, r0, r1, lsl #6
     47c:	0300052a 	movweq	r0, #1322	; 0x52a
     480:	3b0b3a08 	blcc	2ceca8 <__bss_end__+0x2c3d48>
     484:	490b390b 	stmdbmi	fp, {r0, r1, r3, r8, fp, ip, sp}
     488:	2b000013 	blcs	4dc <__code_start__-0x7b24>
     48c:	193f002e 	ldmdbne	pc!, {r1, r2, r3, r5}	; <UNPREDICTABLE>
     490:	0e6e193c 			; <UNDEFINED> instruction: 0x0e6e193c
     494:	0b3a0e03 	bleq	e83ca8 <__bss_end__+0xe78d48>
     498:	0b390b3b 	bleq	e4318c <__bss_end__+0xe3822c>
     49c:	01000000 	mrseq	r0, (UNDEF: 0)
     4a0:	0e250111 	mcreq	1, 1, r0, cr5, cr1, {0}
     4a4:	0e030b13 	vmoveq.32	d3[0], r0
     4a8:	01110e1b 	tsteq	r1, fp, lsl lr
     4ac:	17100612 			; <UNDEFINED> instruction: 0x17100612
     4b0:	24020000 	strcs	r0, [r2], #-0
     4b4:	3e0b0b00 	vmlacc.f64	d0, d11, d0
     4b8:	0008030b 	andeq	r0, r8, fp, lsl #6
     4bc:	00240300 	eoreq	r0, r4, r0, lsl #6
     4c0:	0b3e0b0b 	bleq	f830f4 <__bss_end__+0xf78194>
     4c4:	00000e03 	andeq	r0, r0, r3, lsl #28
     4c8:	49002604 	stmdbmi	r0, {r2, r9, sl, sp}
     4cc:	05000013 	streq	r0, [r0, #-19]	; 0xffffffed
     4d0:	0e030016 	mcreq	0, 0, r0, cr3, cr6, {0}
     4d4:	0b3b0b3a 	bleq	ec31c4 <__bss_end__+0xeb8264>
     4d8:	13490b39 	movtne	r0, #39737	; 0x9b39
     4dc:	15060000 	strne	r0, [r6, #-0]
     4e0:	49192701 	ldmdbmi	r9, {r0, r8, r9, sl, sp}
     4e4:	00130113 	andseq	r0, r3, r3, lsl r1
     4e8:	00050700 	andeq	r0, r5, r0, lsl #14
     4ec:	00001349 	andeq	r1, r0, r9, asr #6
     4f0:	03003408 	movweq	r3, #1032	; 0x408
     4f4:	3b0b3a0e 	blcc	2ced34 <__bss_end__+0x2c3dd4>
     4f8:	490b390b 	stmdbmi	fp, {r0, r1, r3, r8, fp, ip, sp}
     4fc:	3c193f13 	ldccc	15, cr3, [r9], {19}
     500:	09000019 	stmdbeq	r0, {r0, r3, r4}
     504:	0b0b000f 	bleq	2c0548 <__bss_end__+0x2b55e8>
     508:	00001349 	andeq	r1, r0, r9, asr #6
     50c:	0b01130a 	bleq	4513c <__bss_end__+0x3a1dc>
     510:	3b0b3a0b 	blcc	2ced44 <__bss_end__+0x2c3de4>
     514:	010b390b 	tsteq	fp, fp, lsl #18
     518:	0b000013 	bleq	56c <__code_start__-0x7a94>
     51c:	0e03000d 	cdpeq	0, 0, cr0, cr3, cr13, {0}
     520:	0b3b0b3a 	bleq	ec3210 <__bss_end__+0xeb82b0>
     524:	13490b39 	movtne	r0, #39737	; 0x9b39
     528:	00000b38 	andeq	r0, r0, r8, lsr fp
     52c:	3e01040c 	cdpcc	4, 0, cr0, cr1, cr12, {0}
     530:	490b0b0b 	stmdbmi	fp, {r0, r1, r3, r8, r9, fp}
     534:	3b0b3a13 	blcc	2ced88 <__bss_end__+0x2c3e28>
     538:	010b390b 	tsteq	fp, fp, lsl #18
     53c:	0d000013 	stceq	0, cr0, [r0, #-76]	; 0xffffffb4
     540:	0e030028 	cdpeq	0, 0, cr0, cr3, cr8, {1}
     544:	00000b1c 	andeq	r0, r0, ip, lsl fp
     548:	0300340e 	movweq	r3, #1038	; 0x40e
     54c:	3b0b3a0e 	blcc	2ced8c <__bss_end__+0x2c3e2c>
     550:	490b390b 	stmdbmi	fp, {r0, r1, r3, r8, fp, ip, sp}
     554:	000b1c13 	andeq	r1, fp, r3, lsl ip
     558:	01130f00 	tsteq	r3, r0, lsl #30
     55c:	0b0b0e03 	bleq	2c3d70 <__bss_end__+0x2b8e10>
     560:	0b3b0b3a 	bleq	ec3250 <__bss_end__+0xeb82f0>
     564:	13010b39 	movwne	r0, #6969	; 0x1b39
     568:	0d100000 	ldceq	0, cr0, [r0, #-0]
     56c:	3a080300 	bcc	201174 <__bss_end__+0x1f6214>
     570:	390b3b0b 	stmdbcc	fp, {r0, r1, r3, r8, r9, fp, ip, sp}
     574:	3813490b 	ldmdacc	r3, {r0, r1, r3, r8, fp, lr}
     578:	1100000b 	tstne	r0, fp
     57c:	13490101 	movtne	r0, #37121	; 0x9101
     580:	00001301 	andeq	r1, r0, r1, lsl #6
     584:	49002112 	stmdbmi	r0, {r1, r4, r8, sp}
     588:	000b2f13 	andeq	r2, fp, r3, lsl pc
     58c:	00341300 	eorseq	r1, r4, r0, lsl #6
     590:	0b3a0e03 	bleq	e83da4 <__bss_end__+0xe78e44>
     594:	0b390b3b 	bleq	e43288 <__bss_end__+0xe38328>
     598:	00001349 	andeq	r1, r0, r9, asr #6
     59c:	0b000f14 	bleq	41f4 <__code_start__-0x3e0c>
     5a0:	1500000b 	strne	r0, [r0, #-11]
     5a4:	0e030034 	mcreq	0, 0, r0, cr3, cr4, {1}
     5a8:	0b3b0b3a 	bleq	ec3298 <__bss_end__+0xeb8338>
     5ac:	13490b39 	movtne	r0, #39737	; 0x9b39
     5b0:	00001802 	andeq	r1, r0, r2, lsl #16
     5b4:	3f012e16 	svccc	0x00012e16
     5b8:	3a0e0319 	bcc	381224 <__bss_end__+0x3762c4>
     5bc:	39053b0b 	stmdbcc	r5, {r0, r1, r3, r8, r9, fp, ip, sp}
     5c0:	1119270b 	tstne	r9, fp, lsl #14
     5c4:	40061201 	andmi	r1, r6, r1, lsl #4
     5c8:	19429718 	stmdbne	r2, {r3, r4, r8, r9, sl, ip, pc}^
     5cc:	00001301 	andeq	r1, r0, r1, lsl #6
     5d0:	03003417 	movweq	r3, #1047	; 0x417
     5d4:	3413490e 	ldrcc	r4, [r3], #-2318	; 0xfffff6f2
     5d8:	00180219 	andseq	r0, r8, r9, lsl r2
     5dc:	82891800 	addhi	r1, r9, #0, 16
     5e0:	01110101 	tsteq	r1, r1, lsl #2
     5e4:	13011331 	movwne	r1, #4913	; 0x1331
     5e8:	8a190000 	bhi	6405f0 <__bss_end__+0x635690>
     5ec:	02000182 	andeq	r0, r0, #-2147483616	; 0x80000020
     5f0:	18429118 	stmdane	r2, {r3, r4, r8, ip, pc}^
     5f4:	891a0000 	ldmdbhi	sl, {}	; <UNPREDICTABLE>
     5f8:	11000182 	smlabbne	r0, r2, r1, r0
     5fc:	00133101 	andseq	r3, r3, r1, lsl #2
     600:	012e1b00 			; <UNDEFINED> instruction: 0x012e1b00
     604:	0e03193f 			; <UNDEFINED> instruction: 0x0e03193f
     608:	053b0b3a 	ldreq	r0, [fp, #-2874]!	; 0xfffff4c6
     60c:	19270b39 	stmdbne	r7!, {r0, r3, r4, r5, r8, r9, fp}
     610:	01111349 	tsteq	r1, r9, asr #6
     614:	18400612 	stmdane	r0, {r1, r4, r9, sl}^
     618:	01194297 			; <UNDEFINED> instruction: 0x01194297
     61c:	1c000013 	stcne	0, cr0, [r0], {19}
     620:	0e030034 	mcreq	0, 0, r0, cr3, cr4, {1}
     624:	053b0b3a 	ldreq	r0, [fp, #-2874]!	; 0xfffff4c6
     628:	13490b39 	movtne	r0, #39737	; 0x9b39
     62c:	42b71702 	adcsmi	r1, r7, #524288	; 0x80000
     630:	1d000017 	stcne	0, cr0, [r0, #-92]	; 0xffffffa4
     634:	0e03012e 	adfeqsp	f0, f3, #0.5
     638:	0b3b0b3a 	bleq	ec3328 <__bss_end__+0xeb83c8>
     63c:	19270b39 	stmdbne	r7!, {r0, r3, r4, r5, r8, r9, fp}
     640:	01111349 	tsteq	r1, r9, asr #6
     644:	18400612 	stmdane	r0, {r1, r4, r9, sl}^
     648:	01194297 			; <UNDEFINED> instruction: 0x01194297
     64c:	1e000013 	mcrne	0, 0, r0, cr0, cr3, {0}
     650:	0e030034 	mcreq	0, 0, r0, cr3, cr4, {1}
     654:	0b3b0b3a 	bleq	ec3344 <__bss_end__+0xeb83e4>
     658:	13490b39 	movtne	r0, #39737	; 0x9b39
     65c:	42b71702 	adcsmi	r1, r7, #524288	; 0x80000
     660:	1f000017 	svcne	0x00000017
     664:	01018289 	smlabbeq	r1, r9, r2, r8
     668:	13310111 	teqne	r1, #1073741828	; 0x40000004
     66c:	2e200000 	cdpcs	0, 2, cr0, cr0, cr0, {0}
     670:	03193f01 	tsteq	r9, #1, 30
     674:	3b0b3a0e 	blcc	2ceeb4 <__bss_end__+0x2c3f54>
     678:	270b390b 	strcs	r3, [fp, -fp, lsl #18]
     67c:	11134919 	tstne	r3, r9, lsl r9
     680:	40061201 	andmi	r1, r6, r1, lsl #4
     684:	19429718 	stmdbne	r2, {r3, r4, r8, r9, sl, ip, pc}^
     688:	00001301 	andeq	r1, r0, r1, lsl #6
     68c:	3f012e21 	svccc	0x00012e21
     690:	3a0e0319 	bcc	3812fc <__bss_end__+0x37639c>
     694:	390b3b0b 	stmdbcc	fp, {r0, r1, r3, r8, r9, fp, ip, sp}
     698:	1119270b 	tstne	r9, fp, lsl #14
     69c:	40061201 	andmi	r1, r6, r1, lsl #4
     6a0:	19429718 	stmdbne	r2, {r3, r4, r8, r9, sl, ip, pc}^
     6a4:	00001301 	andeq	r1, r0, r1, lsl #6
     6a8:	03000522 	movweq	r0, #1314	; 0x522
     6ac:	3b0b3a0e 	blcc	2ceeec <__bss_end__+0x2c3f8c>
     6b0:	490b390b 	stmdbmi	fp, {r0, r1, r3, r8, fp, ip, sp}
     6b4:	b7170213 			; <UNDEFINED> instruction: 0xb7170213
     6b8:	00001742 	andeq	r1, r0, r2, asr #14
     6bc:	03012e23 	movweq	r2, #7715	; 0x1e23
     6c0:	3b0b3a0e 	blcc	2cef00 <__bss_end__+0x2c3fa0>
     6c4:	270b390b 	strcs	r3, [fp, -fp, lsl #18]
     6c8:	12011119 	andne	r1, r1, #1073741830	; 0x40000006
     6cc:	97184006 	ldrls	r4, [r8, -r6]
     6d0:	13011942 	movwne	r1, #6466	; 0x1942
     6d4:	34240000 	strtcc	r0, [r4], #-0
     6d8:	490e0300 	stmdbmi	lr, {r8, r9}
     6dc:	00193413 	andseq	r3, r9, r3, lsl r4
     6e0:	00342500 	eorseq	r2, r4, r0, lsl #10
     6e4:	0b3a0e03 	bleq	e83ef8 <__bss_end__+0xe78f98>
     6e8:	0b390b3b 	bleq	e433dc <__bss_end__+0xe3847c>
     6ec:	061c1349 	ldreq	r1, [ip], -r9, asr #6
     6f0:	0b260000 	bleq	9806f8 <__bss_end__+0x975798>
     6f4:	12011101 	andne	r1, r1, #1073741824	; 0x40000000
     6f8:	00130106 	andseq	r0, r3, r6, lsl #2
     6fc:	00342700 	eorseq	r2, r4, r0, lsl #14
     700:	0b3a0803 	bleq	e82714 <__bss_end__+0xe777b4>
     704:	0b390b3b 	bleq	e433f8 <__bss_end__+0xe38498>
     708:	17021349 	strne	r1, [r2, -r9, asr #6]
     70c:	001742b7 			; <UNDEFINED> instruction: 0x001742b7
     710:	010b2800 	tsteq	fp, r0, lsl #16
     714:	13011755 	movwne	r1, #5973	; 0x1755
     718:	05290000 	streq	r0, [r9, #-0]!
     71c:	3a080300 	bcc	201324 <__bss_end__+0x1f63c4>
     720:	390b3b0b 	stmdbcc	fp, {r0, r1, r3, r8, r9, fp, ip, sp}
     724:	0213490b 	andseq	r4, r3, #180224	; 0x2c000
     728:	1742b717 	smlaldne	fp, r2, r7, r7
     72c:	0b2a0000 	bleq	a80734 <__bss_end__+0xa757d4>
     730:	00175501 	andseq	r5, r7, r1, lsl #10
     734:	002e2b00 	eoreq	r2, lr, r0, lsl #22
     738:	193c193f 	ldmdbne	ip!, {r0, r1, r2, r3, r4, r5, r8, fp, ip}
     73c:	0e030e6e 	cdpeq	14, 0, cr0, cr3, cr14, {3}
     740:	0b3b0b3a 	bleq	ec3430 <__bss_end__+0xeb84d0>
     744:	00000b39 	andeq	r0, r0, r9, lsr fp
     748:	01110100 	tsteq	r1, r0, lsl #2
     74c:	0b130e25 	bleq	4c3fe8 <__bss_end__+0x4b9088>
     750:	0e1b0e03 	cdpeq	14, 1, cr0, cr11, cr3, {0}
     754:	06120111 			; <UNDEFINED> instruction: 0x06120111
     758:	00001710 	andeq	r1, r0, r0, lsl r7
     75c:	0b002402 	bleq	976c <_cstart+0x4>
     760:	030b3e0b 	movweq	r3, #48651	; 0xbe0b
     764:	03000008 	movweq	r0, #8
     768:	0b0b0024 	bleq	2c0800 <__bss_end__+0x2b58a0>
     76c:	0e030b3e 	vmoveq.16	d3[0], r0
     770:	15040000 	strne	r0, [r4, #-0]
     774:	49192701 	ldmdbmi	r9, {r0, r8, r9, sl, sp}
     778:	00130113 	andseq	r0, r3, r3, lsl r1
     77c:	00050500 	andeq	r0, r5, r0, lsl #10
     780:	00001349 	andeq	r1, r0, r9, asr #6
     784:	03003406 	movweq	r3, #1030	; 0x406
     788:	3b0b3a0e 	blcc	2cefc8 <__bss_end__+0x2c4068>
     78c:	490b390b 	stmdbmi	fp, {r0, r1, r3, r8, fp, ip, sp}
     790:	3c193f13 	ldccc	15, cr3, [r9], {19}
     794:	07000019 	smladeq	r0, r9, r0, r0
     798:	0b0b000f 	bleq	2c07dc <__bss_end__+0x2b587c>
     79c:	00001349 	andeq	r1, r0, r9, asr #6
     7a0:	49002608 	stmdbmi	r0, {r3, r9, sl, sp}
     7a4:	09000013 	stmdbeq	r0, {r0, r1, r4}
     7a8:	0e030117 	mcreq	1, 0, r0, cr3, cr7, {0}
     7ac:	0b3a0b0b 	bleq	e833e0 <__bss_end__+0xe78480>
     7b0:	0b390b3b 	bleq	e434a4 <__bss_end__+0xe38544>
     7b4:	00001301 	andeq	r1, r0, r1, lsl #6
     7b8:	03000d0a 	movweq	r0, #3338	; 0xd0a
     7bc:	3b0b3a08 	blcc	2cefe4 <__bss_end__+0x2c4084>
     7c0:	490b390b 	stmdbmi	fp, {r0, r1, r3, r8, fp, ip, sp}
     7c4:	0b000013 	bleq	818 <__code_start__-0x77e8>
     7c8:	0b0b000f 	bleq	2c080c <__bss_end__+0x2b58ac>
     7cc:	150c0000 	strne	r0, [ip, #-0]
     7d0:	00192700 	andseq	r2, r9, r0, lsl #14
     7d4:	01130d00 	tsteq	r3, r0, lsl #26
     7d8:	0b3a0b0b 	bleq	e8340c <__bss_end__+0xe784ac>
     7dc:	0b390b3b 	bleq	e434d0 <__bss_end__+0xe38570>
     7e0:	00001301 	andeq	r1, r0, r1, lsl #6
     7e4:	03000d0e 	movweq	r0, #3342	; 0xd0e
     7e8:	3b0b3a08 	blcc	2cf010 <__bss_end__+0x2c40b0>
     7ec:	490b390b 	stmdbmi	fp, {r0, r1, r3, r8, fp, ip, sp}
     7f0:	000b3813 	andeq	r3, fp, r3, lsl r8
     7f4:	000d0f00 	andeq	r0, sp, r0, lsl #30
     7f8:	0b3a0e03 	bleq	e8400c <__bss_end__+0xe790ac>
     7fc:	0b390b3b 	bleq	e434f0 <__bss_end__+0xe38590>
     800:	0b381349 	bleq	e0552c <__bss_end__+0xdfa5cc>
     804:	16100000 	ldrne	r0, [r0], -r0
     808:	3a0e0300 	bcc	381410 <__bss_end__+0x3764b0>
     80c:	390b3b0b 	stmdbcc	fp, {r0, r1, r3, r8, r9, fp, ip, sp}
     810:	0013490b 	andseq	r4, r3, fp, lsl #18
     814:	00341100 	eorseq	r1, r4, r0, lsl #2
     818:	0b3a0e03 	bleq	e8402c <__bss_end__+0xe790cc>
     81c:	0b390b3b 	bleq	e43510 <__bss_end__+0xe385b0>
     820:	18021349 	stmdane	r2, {r0, r3, r6, r8, r9, ip}
     824:	2e120000 	cdpcs	0, 1, cr0, cr2, cr0, {0}
     828:	03193f01 	tsteq	r9, #1, 30
     82c:	3b0b3a0e 	blcc	2cf06c <__bss_end__+0x2c410c>
     830:	270b390b 	strcs	r3, [fp, -fp, lsl #18]
     834:	12011119 	andne	r1, r1, #1073741830	; 0x40000006
     838:	97184006 	ldrls	r4, [r8, -r6]
     83c:	13011942 	movwne	r1, #6466	; 0x1942
     840:	05130000 	ldreq	r0, [r3, #-0]
     844:	3a080300 	bcc	20144c <__bss_end__+0x1f64ec>
     848:	390b3b0b 	stmdbcc	fp, {r0, r1, r3, r8, r9, fp, ip, sp}
     84c:	0213490b 	andseq	r4, r3, #180224	; 0x2c000
     850:	14000018 	strne	r0, [r0], #-24	; 0xffffffe8
     854:	08030034 	stmdaeq	r3, {r2, r4, r5}
     858:	0b3b0b3a 	bleq	ec3548 <__bss_end__+0xeb85e8>
     85c:	13490b39 	movtne	r0, #39737	; 0x9b39
     860:	42b71702 	adcsmi	r1, r7, #524288	; 0x80000
     864:	15000017 	strne	r0, [r0, #-23]	; 0xffffffe9
     868:	193f012e 	ldmdbne	pc!, {r1, r2, r3, r5, r8}	; <UNPREDICTABLE>
     86c:	0b3a0e03 	bleq	e84080 <__bss_end__+0xe79120>
     870:	0b390b3b 	bleq	e43564 <__bss_end__+0xe38604>
     874:	13491927 	movtne	r1, #39207	; 0x9927
     878:	06120111 			; <UNDEFINED> instruction: 0x06120111
     87c:	42971840 	addsmi	r1, r7, #64, 16	; 0x400000
     880:	00130119 	andseq	r0, r3, r9, lsl r1
     884:	00051600 	andeq	r1, r5, r0, lsl #12
     888:	0b3a0e03 	bleq	e8409c <__bss_end__+0xe7913c>
     88c:	0b390b3b 	bleq	e43580 <__bss_end__+0xe38620>
     890:	17021349 	strne	r1, [r2, -r9, asr #6]
     894:	001742b7 			; <UNDEFINED> instruction: 0x001742b7
     898:	00341700 	eorseq	r1, r4, r0, lsl #14
     89c:	0b3a0e03 	bleq	e840b0 <__bss_end__+0xe79150>
     8a0:	0b390b3b 	bleq	e43594 <__bss_end__+0xe38634>
     8a4:	17021349 	strne	r1, [r2, -r9, asr #6]
     8a8:	001742b7 			; <UNDEFINED> instruction: 0x001742b7
     8ac:	012e1800 			; <UNDEFINED> instruction: 0x012e1800
     8b0:	0e03193f 			; <UNDEFINED> instruction: 0x0e03193f
     8b4:	0b3b0b3a 	bleq	ec35a4 <__bss_end__+0xeb8644>
     8b8:	19270b39 	stmdbne	r7!, {r0, r3, r4, r5, r8, r9, fp}
     8bc:	193c1349 	ldmdbne	ip!, {r0, r3, r6, r8, r9, ip}
     8c0:	00001301 	andeq	r1, r0, r1, lsl #6
     8c4:	01828919 	orreq	r8, r2, r9, lsl r9
     8c8:	31011101 	tstcc	r1, r1, lsl #2
     8cc:	1a000013 	bne	920 <__code_start__-0x76e0>
     8d0:	0001828a 	andeq	r8, r1, sl, lsl #5
     8d4:	42911802 	addsmi	r1, r1, #131072	; 0x20000
     8d8:	1b000018 	blne	940 <__code_start__-0x76c0>
     8dc:	0e03012e 	adfeqsp	f0, f3, #0.5
     8e0:	0b3b0b3a 	bleq	ec35d0 <__bss_end__+0xeb8670>
     8e4:	19270b39 	stmdbne	r7!, {r0, r3, r4, r5, r8, r9, fp}
     8e8:	01111349 	tsteq	r1, r9, asr #6
     8ec:	18400612 	stmdane	r0, {r1, r4, r9, sl}^
     8f0:	01194297 			; <UNDEFINED> instruction: 0x01194297
     8f4:	1c000013 	stcne	0, cr0, [r0], {19}
     8f8:	08030005 	stmdaeq	r3, {r0, r2}
     8fc:	0b3b0b3a 	bleq	ec35ec <__bss_end__+0xeb868c>
     900:	13490b39 	movtne	r0, #39737	; 0x9b39
     904:	42b71702 	adcsmi	r1, r7, #524288	; 0x80000
     908:	1d000017 	stcne	0, cr0, [r0, #-92]	; 0xffffffa4
     90c:	01018289 	smlabbeq	r1, r9, r2, r8
     910:	13310111 	teqne	r1, #1073741828	; 0x40000004
     914:	00001301 	andeq	r1, r0, r1, lsl #6
     918:	0182891e 	orreq	r8, r2, lr, lsl r9
     91c:	31011100 	mrscc	r1, (UNDEF: 17)
     920:	1f000013 	svcne	0x00000013
     924:	193f002e 	ldmdbne	pc!, {r1, r2, r3, r5}	; <UNPREDICTABLE>
     928:	0e6e193c 			; <UNDEFINED> instruction: 0x0e6e193c
     92c:	0b3a0e03 	bleq	e84140 <__bss_end__+0xe791e0>
     930:	0b390b3b 	bleq	e43624 <__bss_end__+0xe386c4>
     934:	01000000 	mrseq	r0, (UNDEF: 0)
     938:	0e250111 	mcreq	1, 1, r0, cr5, cr1, {0}
     93c:	0e030b13 	vmoveq.32	d3[0], r0
     940:	01110e1b 	tsteq	r1, fp, lsl lr
     944:	17100612 			; <UNDEFINED> instruction: 0x17100612
     948:	24020000 	strcs	r0, [r2], #-0
     94c:	3e0b0b00 	vmlacc.f64	d0, d11, d0
     950:	0008030b 	andeq	r0, r8, fp, lsl #6
     954:	00160300 	andseq	r0, r6, r0, lsl #6
     958:	0b3a0e03 	bleq	e8416c <__bss_end__+0xe7920c>
     95c:	0b390b3b 	bleq	e43650 <__bss_end__+0xe386f0>
     960:	00001349 	andeq	r1, r0, r9, asr #6
     964:	0b002404 	bleq	997c <uart_init+0x90>
     968:	030b3e0b 	movweq	r3, #48651	; 0xbe0b
     96c:	0500000e 	streq	r0, [r0, #-14]
     970:	13490026 	movtne	r0, #36902	; 0x9026
     974:	15060000 	strne	r0, [r6, #-0]
     978:	49192701 	ldmdbmi	r9, {r0, r8, r9, sl, sp}
     97c:	00130113 	andseq	r0, r3, r3, lsl r1
     980:	00050700 	andeq	r0, r5, r0, lsl #14
     984:	00001349 	andeq	r1, r0, r9, asr #6
     988:	03003408 	movweq	r3, #1032	; 0x408
     98c:	3b0b3a0e 	blcc	2cf1cc <__bss_end__+0x2c426c>
     990:	490b390b 	stmdbmi	fp, {r0, r1, r3, r8, fp, ip, sp}
     994:	3c193f13 	ldccc	15, cr3, [r9], {19}
     998:	09000019 	stmdbeq	r0, {r0, r3, r4}
     99c:	0b0b000f 	bleq	2c09e0 <__bss_end__+0x2b5a80>
     9a0:	00001349 	andeq	r1, r0, r9, asr #6
     9a4:	3f012e0a 	svccc	0x00012e0a
     9a8:	3a0e0319 	bcc	381614 <__bss_end__+0x3766b4>
     9ac:	390b3b0b 	stmdbcc	fp, {r0, r1, r3, r8, r9, fp, ip, sp}
     9b0:	4919270b 	ldmdbmi	r9, {r0, r1, r3, r8, r9, sl, sp}
     9b4:	12011113 	andne	r1, r1, #-1073741820	; 0xc0000004
     9b8:	97184006 	ldrls	r4, [r8, -r6]
     9bc:	13011942 	movwne	r1, #6466	; 0x1942
     9c0:	050b0000 	streq	r0, [fp, #-0]
     9c4:	3a080300 	bcc	2015cc <__bss_end__+0x1f666c>
     9c8:	390b3b0b 	stmdbcc	fp, {r0, r1, r3, r8, r9, fp, ip, sp}
     9cc:	0213490b 	andseq	r4, r3, #180224	; 0x2c000
     9d0:	1742b717 	smlaldne	fp, r2, r7, r7
     9d4:	050c0000 	streq	r0, [ip, #-0]
     9d8:	3a080300 	bcc	2015e0 <__bss_end__+0x1f6680>
     9dc:	390b3b0b 	stmdbcc	fp, {r0, r1, r3, r8, r9, fp, ip, sp}
     9e0:	0213490b 	andseq	r4, r3, #180224	; 0x2c000
     9e4:	0d000018 	stceq	0, cr0, [r0, #-96]	; 0xffffffa0
     9e8:	0e030005 	cdpeq	0, 0, cr0, cr3, cr5, {0}
     9ec:	0b3b0b3a 	bleq	ec36dc <__bss_end__+0xeb877c>
     9f0:	13490b39 	movtne	r0, #39737	; 0x9b39
     9f4:	00001802 	andeq	r1, r0, r2, lsl #16
     9f8:	0300340e 	movweq	r3, #1038	; 0x40e
     9fc:	3b0b3a08 	blcc	2cf224 <__bss_end__+0x2c42c4>
     a00:	490b390b 	stmdbmi	fp, {r0, r1, r3, r8, fp, ip, sp}
     a04:	b7170213 			; <UNDEFINED> instruction: 0xb7170213
     a08:	00001742 	andeq	r1, r0, r2, asr #14
     a0c:	11010b0f 	tstne	r1, pc, lsl #22
     a10:	00061201 	andeq	r1, r6, r1, lsl #4
     a14:	00261000 	eoreq	r1, r6, r0
     a18:	01000000 	mrseq	r0, (UNDEF: 0)
     a1c:	0e250111 	mcreq	1, 1, r0, cr5, cr1, {0}
     a20:	0e030b13 	vmoveq.32	d3[0], r0
     a24:	01110e1b 	tsteq	r1, fp, lsl lr
     a28:	17100612 			; <UNDEFINED> instruction: 0x17100612
     a2c:	24020000 	strcs	r0, [r2], #-0
     a30:	3e0b0b00 	vmlacc.f64	d0, d11, d0
     a34:	0008030b 	andeq	r0, r8, fp, lsl #6
     a38:	00160300 	andseq	r0, r6, r0, lsl #6
     a3c:	0b3a0e03 	bleq	e84250 <__bss_end__+0xe792f0>
     a40:	0b390b3b 	bleq	e43734 <__bss_end__+0xe387d4>
     a44:	00001349 	andeq	r1, r0, r9, asr #6
     a48:	0b002404 	bleq	9a60 <uart_tx_is_empty+0x1c>
     a4c:	030b3e0b 	movweq	r3, #48651	; 0xbe0b
     a50:	0500000e 	streq	r0, [r0, #-14]
     a54:	13490026 	movtne	r0, #36902	; 0x9026
     a58:	15060000 	strne	r0, [r6, #-0]
     a5c:	49192701 	ldmdbmi	r9, {r0, r8, r9, sl, sp}
     a60:	00130113 	andseq	r0, r3, r3, lsl r1
     a64:	00050700 	andeq	r0, r5, r0, lsl #14
     a68:	00001349 	andeq	r1, r0, r9, asr #6
     a6c:	03003408 	movweq	r3, #1032	; 0x408
     a70:	3b0b3a0e 	blcc	2cf2b0 <__bss_end__+0x2c4350>
     a74:	490b390b 	stmdbmi	fp, {r0, r1, r3, r8, fp, ip, sp}
     a78:	3c193f13 	ldccc	15, cr3, [r9], {19}
     a7c:	09000019 	stmdbeq	r0, {r0, r3, r4}
     a80:	0b0b000f 	bleq	2c0ac4 <__bss_end__+0x2b5b64>
     a84:	00001349 	andeq	r1, r0, r9, asr #6
     a88:	3f012e0a 	svccc	0x00012e0a
     a8c:	3a0e0319 	bcc	3816f8 <__bss_end__+0x376798>
     a90:	390b3b0b 	stmdbcc	fp, {r0, r1, r3, r8, r9, fp, ip, sp}
     a94:	4919270b 	ldmdbmi	r9, {r0, r1, r3, r8, r9, sl, sp}
     a98:	12011113 	andne	r1, r1, #-1073741820	; 0xc0000004
     a9c:	97184006 	ldrls	r4, [r8, -r6]
     aa0:	13011942 	movwne	r1, #6466	; 0x1942
     aa4:	050b0000 	streq	r0, [fp, #-0]
     aa8:	3a080300 	bcc	2016b0 <__bss_end__+0x1f6750>
     aac:	390b3b0b 	stmdbcc	fp, {r0, r1, r3, r8, r9, fp, ip, sp}
     ab0:	0213490b 	andseq	r4, r3, #180224	; 0x2c000
     ab4:	0c000018 	stceq	0, cr0, [r0], {24}
     ab8:	0e030005 	cdpeq	0, 0, cr0, cr3, cr5, {0}
     abc:	0b3b0b3a 	bleq	ec37ac <__bss_end__+0xeb884c>
     ac0:	13490b39 	movtne	r0, #39737	; 0x9b39
     ac4:	42b71702 	adcsmi	r1, r7, #524288	; 0x80000
     ac8:	0d000017 	stceq	0, cr0, [r0, #-92]	; 0xffffffa4
     acc:	0e030034 	mcreq	0, 0, r0, cr3, cr4, {1}
     ad0:	19341349 	ldmdbne	r4!, {r0, r3, r6, r8, r9, ip}
     ad4:	00000e1c 	andeq	r0, r0, ip, lsl lr
     ad8:	11010b0e 	tstne	r1, lr, lsl #22
     adc:	01061201 	tsteq	r6, r1, lsl #4
     ae0:	0f000013 	svceq	0x00000013
     ae4:	08030034 	stmdaeq	r3, {r2, r4, r5}
     ae8:	0b3b0b3a 	bleq	ec37d8 <__bss_end__+0xeb8878>
     aec:	13490b39 	movtne	r0, #39737	; 0x9b39
     af0:	42b71702 	adcsmi	r1, r7, #524288	; 0x80000
     af4:	10000017 	andne	r0, r0, r7, lsl r0
     af8:	0111010b 	tsteq	r1, fp, lsl #2
     afc:	00000612 	andeq	r0, r0, r2, lsl r6
     b00:	03003411 	movweq	r3, #1041	; 0x411
     b04:	3b0b3a08 	blcc	2cf32c <__bss_end__+0x2c43cc>
     b08:	490b390b 	stmdbmi	fp, {r0, r1, r3, r8, fp, ip, sp}
     b0c:	12000013 	andne	r0, r0, #19, 0
     b10:	0b0b000f 	bleq	2c0b54 <__bss_end__+0x2b5bf4>
     b14:	26130000 	ldrcs	r0, [r3], -r0
     b18:	14000000 	strne	r0, [r0], #-0
     b1c:	13490101 	movtne	r0, #37121	; 0x9101
     b20:	00001301 	andeq	r1, r0, r1, lsl #6
     b24:	49002115 	stmdbmi	r0, {r0, r2, r4, r8, sp}
     b28:	000b2f13 	andeq	r2, fp, r3, lsl pc
     b2c:	11010000 	mrsne	r0, (UNDEF: 1)
     b30:	130e2501 	movwne	r2, #58625	; 0xe501
     b34:	1b0e030b 	blne	381768 <__bss_end__+0x376808>
     b38:	1201110e 	andne	r1, r1, #-2147483645	; 0x80000003
     b3c:	00171006 	andseq	r1, r7, r6
     b40:	00240200 	eoreq	r0, r4, r0, lsl #4
     b44:	0b3e0b0b 	bleq	f83778 <__bss_end__+0xf78818>
     b48:	00000803 	andeq	r0, r0, r3, lsl #16
     b4c:	03001603 	movweq	r1, #1539	; 0x603
     b50:	3b0b3a0e 	blcc	2cf390 <__bss_end__+0x2c4430>
     b54:	490b390b 	stmdbmi	fp, {r0, r1, r3, r8, fp, ip, sp}
     b58:	04000013 	streq	r0, [r0], #-19	; 0xffffffed
     b5c:	0b0b0024 	bleq	2c0bf4 <__bss_end__+0x2b5c94>
     b60:	0e030b3e 	vmoveq.16	d3[0], r0
     b64:	15050000 	strne	r0, [r5, #-0]
     b68:	49192701 	ldmdbmi	r9, {r0, r8, r9, sl, sp}
     b6c:	00130113 	andseq	r0, r3, r3, lsl r1
     b70:	00050600 	andeq	r0, r5, r0, lsl #12
     b74:	00001349 	andeq	r1, r0, r9, asr #6
     b78:	03003407 	movweq	r3, #1031	; 0x407
     b7c:	3b0b3a0e 	blcc	2cf3bc <__bss_end__+0x2c445c>
     b80:	490b390b 	stmdbmi	fp, {r0, r1, r3, r8, fp, ip, sp}
     b84:	3c193f13 	ldccc	15, cr3, [r9], {19}
     b88:	08000019 	stmdaeq	r0, {r0, r3, r4}
     b8c:	0b0b000f 	bleq	2c0bd0 <__bss_end__+0x2b5c70>
     b90:	00001349 	andeq	r1, r0, r9, asr #6
     b94:	49002609 	stmdbmi	r0, {r0, r3, r9, sl, sp}
     b98:	0a000013 	beq	bec <__code_start__-0x7414>
     b9c:	193f012e 	ldmdbne	pc!, {r1, r2, r3, r5, r8}	; <UNPREDICTABLE>
     ba0:	0b3a0e03 	bleq	e843b4 <__bss_end__+0xe79454>
     ba4:	0b390b3b 	bleq	e43898 <__bss_end__+0xe38938>
     ba8:	13491927 	movtne	r1, #39207	; 0x9927
     bac:	06120111 			; <UNDEFINED> instruction: 0x06120111
     bb0:	42971840 	addsmi	r1, r7, #64, 16	; 0x400000
     bb4:	00130119 	andseq	r0, r3, r9, lsl r1
     bb8:	00050b00 	andeq	r0, r5, r0, lsl #22
     bbc:	0b3a0803 	bleq	e82bd0 <__bss_end__+0xe77c70>
     bc0:	0b390b3b 	bleq	e438b4 <__bss_end__+0xe38954>
     bc4:	18021349 	stmdane	r2, {r0, r3, r6, r8, r9, ip}
     bc8:	050c0000 	streq	r0, [ip, #-0]
     bcc:	3a080300 	bcc	2017d4 <__bss_end__+0x1f6874>
     bd0:	390b3b0b 	stmdbcc	fp, {r0, r1, r3, r8, r9, fp, ip, sp}
     bd4:	0213490b 	andseq	r4, r3, #180224	; 0x2c000
     bd8:	1742b717 	smlaldne	fp, r2, r7, r7
     bdc:	340d0000 	strcc	r0, [sp], #-0
     be0:	3a080300 	bcc	2017e8 <__bss_end__+0x1f6888>
     be4:	390b3b0b 	stmdbcc	fp, {r0, r1, r3, r8, r9, fp, ip, sp}
     be8:	0213490b 	andseq	r4, r3, #180224	; 0x2c000
     bec:	1742b717 	smlaldne	fp, r2, r7, r7
     bf0:	0f0e0000 	svceq	0x000e0000
     bf4:	000b0b00 	andeq	r0, fp, r0, lsl #22
     bf8:	11010000 	mrsne	r0, (UNDEF: 1)
     bfc:	130e2501 	movwne	r2, #58625	; 0xe501
     c00:	1b0e030b 	blne	381834 <__bss_end__+0x3768d4>
     c04:	1201110e 	andne	r1, r1, #-2147483645	; 0x80000003
     c08:	00171006 	andseq	r1, r7, r6
     c0c:	00160200 	andseq	r0, r6, r0, lsl #4
     c10:	0b3a0e03 	bleq	e84424 <__bss_end__+0xe794c4>
     c14:	0b390b3b 	bleq	e43908 <__bss_end__+0xe389a8>
     c18:	00001349 	andeq	r1, r0, r9, asr #6
     c1c:	03011303 	movweq	r1, #4867	; 0x1303
     c20:	3a0b0b0e 	bcc	2c3860 <__bss_end__+0x2b8900>
     c24:	010b3b0b 	tsteq	fp, fp, lsl #22
     c28:	04000013 	streq	r0, [r0], #-19	; 0xffffffed
     c2c:	0e03000d 	cdpeq	0, 0, cr0, cr3, cr13, {0}
     c30:	0b381349 	bleq	e0595c <__bss_end__+0xdfa9fc>
     c34:	00001934 	andeq	r1, r0, r4, lsr r9
     c38:	0b000f05 	bleq	4854 <__code_start__-0x37ac>
     c3c:	0600000b 	streq	r0, [r0], -fp
     c40:	0b0b0024 	bleq	2c0cd8 <__bss_end__+0x2b5d78>
     c44:	08030b3e 	stmdaeq	r3, {r1, r2, r3, r4, r5, r8, r9, fp}
     c48:	24070000 	strcs	r0, [r7], #-0
     c4c:	3e0b0b00 	vmlacc.f64	d0, d11, d0
     c50:	000e030b 	andeq	r0, lr, fp, lsl #6
     c54:	01150800 	tsteq	r5, r0, lsl #16
     c58:	13491927 	movtne	r1, #39207	; 0x9927
     c5c:	00001301 	andeq	r1, r0, r1, lsl #6
     c60:	49000509 	stmdbmi	r0, {r0, r3, r8, sl}
     c64:	0a000013 	beq	cb8 <__code_start__-0x7348>
     c68:	0e030034 	mcreq	0, 0, r0, cr3, cr4, {1}
     c6c:	0b3b0b3a 	bleq	ec395c <__bss_end__+0xeb89fc>
     c70:	13490b39 	movtne	r0, #39737	; 0x9b39
     c74:	193c193f 	ldmdbne	ip!, {r0, r1, r2, r3, r4, r5, r8, fp, ip}
     c78:	0f0b0000 	svceq	0x000b0000
     c7c:	490b0b00 	stmdbmi	fp, {r8, r9, fp}
     c80:	0c000013 	stceq	0, cr0, [r0], {19}
     c84:	13490026 	movtne	r0, #36902	; 0x9026
     c88:	2e0d0000 	cdpcs	0, 0, cr0, cr13, cr0, {0}
     c8c:	03193f01 	tsteq	r9, #1, 30
     c90:	3b0b3a0e 	blcc	2cf4d0 <__bss_end__+0x2c4570>
     c94:	270b390b 	strcs	r3, [fp, -fp, lsl #18]
     c98:	11134919 	tstne	r3, r9, lsl r9
     c9c:	40061201 	andmi	r1, r6, r1, lsl #4
     ca0:	19429718 	stmdbne	r2, {r3, r4, r8, r9, sl, ip, pc}^
     ca4:	00001301 	andeq	r1, r0, r1, lsl #6
     ca8:	0300050e 	movweq	r0, #1294	; 0x50e
     cac:	3b0b3a08 	blcc	2cf4d4 <__bss_end__+0x2c4574>
     cb0:	490b390b 	stmdbmi	fp, {r0, r1, r3, r8, fp, ip, sp}
     cb4:	00180213 	andseq	r0, r8, r3, lsl r2
     cb8:	00180f00 	andseq	r0, r8, r0, lsl #30
     cbc:	34100000 	ldrcc	r0, [r0], #-0
     cc0:	3a080300 	bcc	2018c8 <__bss_end__+0x1f6968>
     cc4:	390b3b0b 	stmdbcc	fp, {r0, r1, r3, r8, r9, fp, ip, sp}
     cc8:	0213490b 	andseq	r4, r3, #180224	; 0x2c000
     ccc:	11000018 	tstne	r0, r8, lsl r0
     cd0:	0e030034 	mcreq	0, 0, r0, cr3, cr4, {1}
     cd4:	0b3b0b3a 	bleq	ec39c4 <__bss_end__+0xeb8a64>
     cd8:	13490b39 	movtne	r0, #39737	; 0x9b39
     cdc:	00001802 	andeq	r1, r0, r2, lsl #16
     ce0:	03003412 	movweq	r3, #1042	; 0x412
     ce4:	3b0b3a08 	blcc	2cf50c <__bss_end__+0x2c45ac>
     ce8:	490b390b 	stmdbmi	fp, {r0, r1, r3, r8, fp, ip, sp}
     cec:	b7170213 			; <UNDEFINED> instruction: 0xb7170213
     cf0:	00001742 	andeq	r1, r0, r2, asr #14
     cf4:	01828913 	orreq	r8, r2, r3, lsl r9
     cf8:	31011101 	tstcc	r1, r1, lsl #2
     cfc:	00130113 	andseq	r0, r3, r3, lsl r1
     d00:	828a1400 	addhi	r1, sl, #0, 8
     d04:	18020001 	stmdane	r2, {r0}
     d08:	00184291 	mulseq	r8, r1, r2
     d0c:	82891500 	addhi	r1, r9, #0, 10
     d10:	01110101 	tsteq	r1, r1, lsl #2
     d14:	01160000 	tsteq	r6, r0
     d18:	01134901 	tsteq	r3, r1, lsl #18
     d1c:	17000013 	smladne	r0, r3, r0, r0
     d20:	13490021 	movtne	r0, #36897	; 0x9021
     d24:	0000052f 	andeq	r0, r0, pc, lsr #10
     d28:	3f002e18 	svccc	0x00002e18
     d2c:	6e193c19 	mrcvs	12, 0, r3, cr9, cr9, {0}
     d30:	3a0e030e 	bcc	381970 <__bss_end__+0x376a10>
     d34:	390b3b0b 	stmdbcc	fp, {r0, r1, r3, r8, r9, fp, ip, sp}
     d38:	0000000b 	andeq	r0, r0, fp
     d3c:	25011101 	strcs	r1, [r1, #-257]	; 0xfffffeff
     d40:	030b130e 	movweq	r1, #45838	; 0xb30e
     d44:	110e1b0e 	tstne	lr, lr, lsl #22
     d48:	10061201 	andne	r1, r6, r1, lsl #4
     d4c:	02000017 	andeq	r0, r0, #23, 0
     d50:	0b0b0024 	bleq	2c0de8 <__bss_end__+0x2b5e88>
     d54:	08030b3e 	stmdaeq	r3, {r1, r2, r3, r4, r5, r8, r9, fp}
     d58:	24030000 	strcs	r0, [r3], #-0
     d5c:	3e0b0b00 	vmlacc.f64	d0, d11, d0
     d60:	000e030b 	andeq	r0, lr, fp, lsl #6
     d64:	01150400 	tsteq	r5, r0, lsl #8
     d68:	13491927 	movtne	r1, #39207	; 0x9927
     d6c:	00001301 	andeq	r1, r0, r1, lsl #6
     d70:	49000505 	stmdbmi	r0, {r0, r2, r8, sl}
     d74:	06000013 			; <UNDEFINED> instruction: 0x06000013
     d78:	0e030034 	mcreq	0, 0, r0, cr3, cr4, {1}
     d7c:	0b3b0b3a 	bleq	ec3a6c <__bss_end__+0xeb8b0c>
     d80:	13490b39 	movtne	r0, #39737	; 0x9b39
     d84:	193c193f 	ldmdbne	ip!, {r0, r1, r2, r3, r4, r5, r8, fp, ip}
     d88:	0f070000 	svceq	0x00070000
     d8c:	490b0b00 	stmdbmi	fp, {r8, r9, fp}
     d90:	08000013 	stmdaeq	r0, {r0, r1, r4}
     d94:	13490026 	movtne	r0, #36902	; 0x9026
     d98:	34090000 	strcc	r0, [r9], #-0
     d9c:	3a134700 	bcc	4d29a4 <__bss_end__+0x4c7a44>
     da0:	390b3b0b 	stmdbcc	fp, {r0, r1, r3, r8, r9, fp, ip, sp}
     da4:	0018020b 	andseq	r0, r8, fp, lsl #4
     da8:	012e0a00 			; <UNDEFINED> instruction: 0x012e0a00
     dac:	0e03193f 			; <UNDEFINED> instruction: 0x0e03193f
     db0:	0b3b0b3a 	bleq	ec3aa0 <__bss_end__+0xeb8b40>
     db4:	19270b39 	stmdbne	r7!, {r0, r3, r4, r5, r8, r9, fp}
     db8:	01111349 	tsteq	r1, r9, asr #6
     dbc:	18400612 	stmdane	r0, {r1, r4, r9, sl}^
     dc0:	00194296 	mulseq	r9, r6, r2
     dc4:	00050b00 	andeq	r0, r5, r0, lsl #22
     dc8:	0b3a0803 	bleq	e82ddc <__bss_end__+0xe77e7c>
     dcc:	0b390b3b 	bleq	e43ac0 <__bss_end__+0xe38b60>
     dd0:	17021349 	strne	r1, [r2, -r9, asr #6]
     dd4:	001742b7 			; <UNDEFINED> instruction: 0x001742b7
     dd8:	11010000 	mrsne	r0, (UNDEF: 1)
     ddc:	130e2501 	movwne	r2, #58625	; 0xe501
     de0:	1b0e030b 	blne	381a14 <__bss_end__+0x376ab4>
     de4:	1201110e 	andne	r1, r1, #-2147483645	; 0x80000003
     de8:	00171006 	andseq	r1, r7, r6
     dec:	00240200 	eoreq	r0, r4, r0, lsl #4
     df0:	0b3e0b0b 	bleq	f83a24 <__bss_end__+0xf78ac4>
     df4:	00000803 	andeq	r0, r0, r3, lsl #16
     df8:	0b002403 	bleq	9e0c <kfree_pop+0x20>
     dfc:	030b3e0b 	movweq	r3, #48651	; 0xbe0b
     e00:	0400000e 	streq	r0, [r0], #-14
     e04:	0e030016 	mcreq	0, 0, r0, cr3, cr6, {0}
     e08:	0b3b0b3a 	bleq	ec3af8 <__bss_end__+0xeb8b98>
     e0c:	13490b39 	movtne	r0, #39737	; 0x9b39
     e10:	15050000 	strne	r0, [r5, #-0]
     e14:	49192701 	ldmdbmi	r9, {r0, r8, r9, sl, sp}
     e18:	00130113 	andseq	r0, r3, r3, lsl r1
     e1c:	00050600 	andeq	r0, r5, r0, lsl #12
     e20:	00001349 	andeq	r1, r0, r9, asr #6
     e24:	03003407 	movweq	r3, #1031	; 0x407
     e28:	3b0b3a0e 	blcc	2cf668 <__bss_end__+0x2c4708>
     e2c:	490b390b 	stmdbmi	fp, {r0, r1, r3, r8, fp, ip, sp}
     e30:	3c193f13 	ldccc	15, cr3, [r9], {19}
     e34:	08000019 	stmdaeq	r0, {r0, r3, r4}
     e38:	0b0b000f 	bleq	2c0e7c <__bss_end__+0x2b5f1c>
     e3c:	00001349 	andeq	r1, r0, r9, asr #6
     e40:	49002609 	stmdbmi	r0, {r0, r3, r9, sl, sp}
     e44:	0a000013 	beq	e98 <__code_start__-0x7168>
     e48:	0e030113 	mcreq	1, 0, r0, cr3, cr3, {0}
     e4c:	0b3a0b0b 	bleq	e83a80 <__bss_end__+0xe78b20>
     e50:	13010b3b 	movwne	r0, #6971	; 0x1b3b
     e54:	0d0b0000 	stceq	0, cr0, [fp, #-0]
     e58:	490e0300 	stmdbmi	lr, {r8, r9}
     e5c:	340b3813 	strcc	r3, [fp], #-2067	; 0xfffff7ed
     e60:	0c000019 	stceq	0, cr0, [r0], {25}
     e64:	0b0b000f 	bleq	2c0ea8 <__bss_end__+0x2b5f48>
     e68:	2e0d0000 	cdpcs	0, 0, cr0, cr13, cr0, {0}
     e6c:	03193f01 	tsteq	r9, #1, 30
     e70:	3b0b3a0e 	blcc	2cf6b0 <__bss_end__+0x2c4750>
     e74:	270b390b 	strcs	r3, [fp, -fp, lsl #18]
     e78:	11134919 	tstne	r3, r9, lsl r9
     e7c:	40061201 	andmi	r1, r6, r1, lsl #4
     e80:	19429718 	stmdbne	r2, {r3, r4, r8, r9, sl, ip, pc}^
     e84:	00001301 	andeq	r1, r0, r1, lsl #6
     e88:	0300050e 	movweq	r0, #1294	; 0x50e
     e8c:	3b0b3a08 	blcc	2cf6b4 <__bss_end__+0x2c4754>
     e90:	490b390b 	stmdbmi	fp, {r0, r1, r3, r8, fp, ip, sp}
     e94:	b7170213 			; <UNDEFINED> instruction: 0xb7170213
     e98:	00001742 	andeq	r1, r0, r2, asr #14
     e9c:	0300050f 	movweq	r0, #1295	; 0x50f
     ea0:	3b0b3a0e 	blcc	2cf6e0 <__bss_end__+0x2c4780>
     ea4:	490b390b 	stmdbmi	fp, {r0, r1, r3, r8, fp, ip, sp}
     ea8:	00180213 	andseq	r0, r8, r3, lsl r2
     eac:	00341000 	eorseq	r1, r4, r0
     eb0:	0b3a0803 	bleq	e82ec4 <__bss_end__+0xe77f64>
     eb4:	0b390b3b 	bleq	e43ba8 <__bss_end__+0xe38c48>
     eb8:	17021349 	strne	r1, [r2, -r9, asr #6]
     ebc:	001742b7 			; <UNDEFINED> instruction: 0x001742b7
     ec0:	00341100 	eorseq	r1, r4, r0, lsl #2
     ec4:	0b3a0e03 	bleq	e846d8 <__bss_end__+0xe79778>
     ec8:	0b390b3b 	bleq	e43bbc <__bss_end__+0xe38c5c>
     ecc:	17021349 	strne	r1, [r2, -r9, asr #6]
     ed0:	001742b7 			; <UNDEFINED> instruction: 0x001742b7
     ed4:	00341200 	eorseq	r1, r4, r0, lsl #4
     ed8:	13490e03 	movtne	r0, #40451	; 0x9e03
     edc:	18021934 	stmdane	r2, {r2, r4, r5, r8, fp, ip}
     ee0:	0b130000 	bleq	4c0ee8 <__bss_end__+0x4b5f88>
     ee4:	12011101 	andne	r1, r1, #1073741824	; 0x40000000
     ee8:	14000006 	strne	r0, [r0], #-6
     eec:	08030034 	stmdaeq	r3, {r2, r4, r5}
     ef0:	0b3b0b3a 	bleq	ec3be0 <__bss_end__+0xeb8c80>
     ef4:	13490b39 	movtne	r0, #39737	; 0x9b39
     ef8:	00001802 	andeq	r1, r0, r2, lsl #16
     efc:	03003415 	movweq	r3, #1045	; 0x415
     f00:	3b0b3a0e 	blcc	2cf740 <__bss_end__+0x2c47e0>
     f04:	490b390b 	stmdbmi	fp, {r0, r1, r3, r8, fp, ip, sp}
     f08:	00180213 	andseq	r0, r8, r3, lsl r2
     f0c:	010b1600 	tsteq	fp, r0, lsl #12
     f10:	06120111 			; <UNDEFINED> instruction: 0x06120111
     f14:	00001301 	andeq	r1, r0, r1, lsl #6
     f18:	03003417 	movweq	r3, #1047	; 0x417
     f1c:	3b0b3a08 	blcc	2cf744 <__bss_end__+0x2c47e4>
     f20:	490b390b 	stmdbmi	fp, {r0, r1, r3, r8, fp, ip, sp}
     f24:	18000013 	stmdane	r0, {r0, r1, r4}
     f28:	01018289 	smlabbeq	r1, r9, r2, r8
     f2c:	13310111 	teqne	r1, #1073741828	; 0x40000004
     f30:	00001301 	andeq	r1, r0, r1, lsl #6
     f34:	01828a19 	orreq	r8, r2, r9, lsl sl
     f38:	91180200 	tstls	r8, r0, lsl #4
     f3c:	00001842 	andeq	r1, r0, r2, asr #16
     f40:	0182891a 	orreq	r8, r2, sl, lsl r9
     f44:	31011100 	mrscc	r1, (UNDEF: 17)
     f48:	1b000013 	blne	f9c <__code_start__-0x7064>
     f4c:	01018289 	smlabbeq	r1, r9, r2, r8
     f50:	13010111 	movwne	r0, #4369	; 0x1111
     f54:	011c0000 	tsteq	ip, r0
     f58:	01134901 	tsteq	r3, r1, lsl #18
     f5c:	1d000013 	stcne	0, cr0, [r0, #-76]	; 0xffffffb4
     f60:	13490021 	movtne	r0, #36897	; 0x9021
     f64:	00000b2f 	andeq	r0, r0, pc, lsr #22
     f68:	03012e1e 	movweq	r2, #7710	; 0x1e1e
     f6c:	3b0b3a0e 	blcc	2cf7ac <__bss_end__+0x2c484c>
     f70:	270b390b 	strcs	r3, [fp, -fp, lsl #18]
     f74:	11134919 	tstne	r3, r9, lsl r9
     f78:	40061201 	andmi	r1, r6, r1, lsl #4
     f7c:	19429718 	stmdbne	r2, {r3, r4, r8, r9, sl, ip, pc}^
     f80:	00001301 	andeq	r1, r0, r1, lsl #6
     f84:	0300051f 	movweq	r0, #1311	; 0x51f
     f88:	3b0b3a0e 	blcc	2cf7c8 <__bss_end__+0x2c4868>
     f8c:	490b390b 	stmdbmi	fp, {r0, r1, r3, r8, fp, ip, sp}
     f90:	b7170213 			; <UNDEFINED> instruction: 0xb7170213
     f94:	00001742 	andeq	r1, r0, r2, asr #14
     f98:	03012e20 	movweq	r2, #7712	; 0x1e20
     f9c:	3b0b3a08 	blcc	2cf7c4 <__bss_end__+0x2c4864>
     fa0:	270b390b 	strcs	r3, [fp, -fp, lsl #18]
     fa4:	11134919 	tstne	r3, r9, lsl r9
     fa8:	40061201 	andmi	r1, r6, r1, lsl #4
     fac:	19429718 	stmdbne	r2, {r3, r4, r8, r9, sl, ip, pc}^
     fb0:	00001301 	andeq	r1, r0, r1, lsl #6
     fb4:	3f012e21 	svccc	0x00012e21
     fb8:	3a0e0319 	bcc	381c24 <__bss_end__+0x376cc4>
     fbc:	390b3b0b 	stmdbcc	fp, {r0, r1, r3, r8, r9, fp, ip, sp}
     fc0:	1119270b 	tstne	r9, fp, lsl #14
     fc4:	40061201 	andmi	r1, r6, r1, lsl #4
     fc8:	19429718 	stmdbne	r2, {r3, r4, r8, r9, sl, ip, pc}^
     fcc:	00001301 	andeq	r1, r0, r1, lsl #6
     fd0:	3f002e22 	svccc	0x00002e22
     fd4:	6e193c19 	mrcvs	12, 0, r3, cr9, cr9, {0}
     fd8:	3a0e030e 	bcc	381c18 <__bss_end__+0x376cb8>
     fdc:	390b3b0b 	stmdbcc	fp, {r0, r1, r3, r8, r9, fp, ip, sp}
     fe0:	0000000b 	andeq	r0, r0, fp
     fe4:	25011101 	strcs	r1, [r1, #-257]	; 0xfffffeff
     fe8:	030b130e 	movweq	r1, #45838	; 0xb30e
     fec:	110e1b0e 	tstne	lr, lr, lsl #22
     ff0:	10061201 	andne	r1, r6, r1, lsl #4
     ff4:	02000017 	andeq	r0, r0, #23, 0
     ff8:	0b0b0024 	bleq	2c1090 <__bss_end__+0x2b6130>
     ffc:	08030b3e 	stmdaeq	r3, {r1, r2, r3, r4, r5, r8, r9, fp}
    1000:	24030000 	strcs	r0, [r3], #-0
    1004:	3e0b0b00 	vmlacc.f64	d0, d11, d0
    1008:	000e030b 	andeq	r0, lr, fp, lsl #6
    100c:	01150400 	tsteq	r5, r0, lsl #8
    1010:	13491927 	movtne	r1, #39207	; 0x9927
    1014:	00001301 	andeq	r1, r0, r1, lsl #6
    1018:	49000505 	stmdbmi	r0, {r0, r2, r8, sl}
    101c:	06000013 			; <UNDEFINED> instruction: 0x06000013
    1020:	0e030034 	mcreq	0, 0, r0, cr3, cr4, {1}
    1024:	0b3b0b3a 	bleq	ec3d14 <__bss_end__+0xeb8db4>
    1028:	13490b39 	movtne	r0, #39737	; 0x9b39
    102c:	193c193f 	ldmdbne	ip!, {r0, r1, r2, r3, r4, r5, r8, fp, ip}
    1030:	0f070000 	svceq	0x00070000
    1034:	490b0b00 	stmdbmi	fp, {r8, r9, fp}
    1038:	08000013 	stmdaeq	r0, {r0, r1, r4}
    103c:	13490026 	movtne	r0, #36902	; 0x9026
    1040:	2e090000 	cdpcs	0, 0, cr0, cr9, cr0, {0}
    1044:	03193f01 	tsteq	r9, #1, 30
    1048:	3b0b3a0e 	blcc	2cf888 <__bss_end__+0x2c4928>
    104c:	270b390b 	strcs	r3, [fp, -fp, lsl #18]
    1050:	19018719 	stmdbne	r1, {r0, r3, r4, r8, r9, sl, pc}
    1054:	06120111 			; <UNDEFINED> instruction: 0x06120111
    1058:	42971840 	addsmi	r1, r7, #64, 16	; 0x400000
    105c:	00130119 	andseq	r0, r3, r9, lsl r1
    1060:	82890a00 	addhi	r0, r9, #0, 20
    1064:	01110101 	tsteq	r1, r1, lsl #2
    1068:	00001301 	andeq	r1, r0, r1, lsl #6
    106c:	01828a0b 	orreq	r8, r2, fp, lsl #20
    1070:	91180200 	tstls	r8, r0, lsl #4
    1074:	00001842 	andeq	r1, r0, r2, asr #16
    1078:	0182890c 	orreq	r8, r2, ip, lsl #18
    107c:	31011100 	mrscc	r1, (UNDEF: 17)
    1080:	0d000013 	stceq	0, cr0, [r0, #-76]	; 0xffffffb4
    1084:	01018289 	smlabbeq	r1, r9, r2, r8
    1088:	13310111 	teqne	r1, #1073741828	; 0x40000004
    108c:	00001301 	andeq	r1, r0, r1, lsl #6
    1090:	3f002e0e 	svccc	0x00002e0e
    1094:	6e193c19 	mrcvs	12, 0, r3, cr9, cr9, {0}
    1098:	3a0e030e 	bcc	381cd8 <__bss_end__+0x376d78>
    109c:	390b3b0b 	stmdbcc	fp, {r0, r1, r3, r8, r9, fp, ip, sp}
    10a0:	0000000b 	andeq	r0, r0, fp
    10a4:	25011101 	strcs	r1, [r1, #-257]	; 0xfffffeff
    10a8:	030b130e 	movweq	r1, #45838	; 0xb30e
    10ac:	110e1b0e 	tstne	lr, lr, lsl #22
    10b0:	10061201 	andne	r1, r6, r1, lsl #4
    10b4:	02000017 	andeq	r0, r0, #23, 0
    10b8:	0b0b0024 	bleq	2c1150 <__bss_end__+0x2b61f0>
    10bc:	08030b3e 	stmdaeq	r3, {r1, r2, r3, r4, r5, r8, r9, fp}
    10c0:	24030000 	strcs	r0, [r3], #-0
    10c4:	3e0b0b00 	vmlacc.f64	d0, d11, d0
    10c8:	000e030b 	andeq	r0, lr, fp, lsl #6
    10cc:	01150400 	tsteq	r5, r0, lsl #8
    10d0:	13491927 	movtne	r1, #39207	; 0x9927
    10d4:	00001301 	andeq	r1, r0, r1, lsl #6
    10d8:	49000505 	stmdbmi	r0, {r0, r2, r8, sl}
    10dc:	06000013 			; <UNDEFINED> instruction: 0x06000013
    10e0:	0e030034 	mcreq	0, 0, r0, cr3, cr4, {1}
    10e4:	0b3b0b3a 	bleq	ec3dd4 <__bss_end__+0xeb8e74>
    10e8:	13490b39 	movtne	r0, #39737	; 0x9b39
    10ec:	193c193f 	ldmdbne	ip!, {r0, r1, r2, r3, r4, r5, r8, fp, ip}
    10f0:	0f070000 	svceq	0x00070000
    10f4:	490b0b00 	stmdbmi	fp, {r8, r9, fp}
    10f8:	08000013 	stmdaeq	r0, {r0, r1, r4}
    10fc:	13490026 	movtne	r0, #36902	; 0x9026
    1100:	2e090000 	cdpcs	0, 0, cr0, cr9, cr0, {0}
    1104:	03193f01 	tsteq	r9, #1, 30
    1108:	3b0b3a0e 	blcc	2cf948 <__bss_end__+0x2c49e8>
    110c:	110b390b 	tstne	fp, fp, lsl #18
    1110:	40061201 	andmi	r1, r6, r1, lsl #4
    1114:	19429718 	stmdbne	r2, {r3, r4, r8, r9, sl, ip, pc}^
    1118:	00001301 	andeq	r1, r0, r1, lsl #6
    111c:	3f002e0a 	svccc	0x00002e0a
    1120:	3a0e0319 	bcc	381d8c <__bss_end__+0x376e2c>
    1124:	390b3b0b 	stmdbcc	fp, {r0, r1, r3, r8, r9, fp, ip, sp}
    1128:	3c19270b 	ldccc	7, cr2, [r9], {11}
    112c:	0b000019 	bleq	1198 <__code_start__-0x6e68>
    1130:	08030034 	stmdaeq	r3, {r2, r4, r5}
    1134:	0b3b0b3a 	bleq	ec3e24 <__bss_end__+0xeb8ec4>
    1138:	13490b39 	movtne	r0, #39737	; 0x9b39
    113c:	42b71702 	adcsmi	r1, r7, #524288	; 0x80000
    1140:	0c000017 	stceq	0, cr0, [r0], {23}
    1144:	0e030034 	mcreq	0, 0, r0, cr3, cr4, {1}
    1148:	0b3b0b3a 	bleq	ec3e38 <__bss_end__+0xeb8ed8>
    114c:	13490b39 	movtne	r0, #39737	; 0x9b39
    1150:	0b0d0000 	bleq	341158 <__bss_end__+0x3361f8>
    1154:	12011101 	andne	r1, r1, #1073741824	; 0x40000000
    1158:	00130106 	andseq	r0, r3, r6, lsl #2
    115c:	00340e00 	eorseq	r0, r4, r0, lsl #28
    1160:	0b3a0803 	bleq	e83174 <__bss_end__+0xe78214>
    1164:	0b390b3b 	bleq	e43e58 <__bss_end__+0xe38ef8>
    1168:	0b1c1349 	bleq	705e94 <__bss_end__+0x6faf34>
    116c:	890f0000 	stmdbhi	pc, {}	; <UNPREDICTABLE>
    1170:	11000182 	smlabbne	r0, r2, r1, r0
    1174:	00133101 	andseq	r3, r3, r1, lsl #2
    1178:	002e1000 	eoreq	r1, lr, r0
    117c:	193c193f 	ldmdbne	ip!, {r0, r1, r2, r3, r4, r5, r8, fp, ip}
    1180:	0e030e6e 	cdpeq	14, 0, cr0, cr3, cr14, {3}
    1184:	053b0b3a 	ldreq	r0, [fp, #-2874]!	; 0xfffff4c6
    1188:	00000b39 	andeq	r0, r0, r9, lsr fp
    118c:	3f002e11 	svccc	0x00002e11
    1190:	6e193c19 	mrcvs	12, 0, r3, cr9, cr9, {0}
    1194:	3a0e030e 	bcc	381dd4 <__bss_end__+0x376e74>
    1198:	390b3b0b 	stmdbcc	fp, {r0, r1, r3, r8, r9, fp, ip, sp}
    119c:	0000000b 	andeq	r0, r0, fp
    11a0:	25011101 	strcs	r1, [r1, #-257]	; 0xfffffeff
    11a4:	030b130e 	movweq	r1, #45838	; 0xb30e
    11a8:	110e1b0e 	tstne	lr, lr, lsl #22
    11ac:	10061201 	andne	r1, r6, r1, lsl #4
    11b0:	02000017 	andeq	r0, r0, #23, 0
    11b4:	0b0b0024 	bleq	2c124c <__bss_end__+0x2b62ec>
    11b8:	08030b3e 	stmdaeq	r3, {r1, r2, r3, r4, r5, r8, r9, fp}
    11bc:	24030000 	strcs	r0, [r3], #-0
    11c0:	3e0b0b00 	vmlacc.f64	d0, d11, d0
    11c4:	000e030b 	andeq	r0, lr, fp, lsl #6
    11c8:	01150400 	tsteq	r5, r0, lsl #8
    11cc:	13491927 	movtne	r1, #39207	; 0x9927
    11d0:	00001301 	andeq	r1, r0, r1, lsl #6
    11d4:	49000505 	stmdbmi	r0, {r0, r2, r8, sl}
    11d8:	06000013 			; <UNDEFINED> instruction: 0x06000013
    11dc:	0e030034 	mcreq	0, 0, r0, cr3, cr4, {1}
    11e0:	0b3b0b3a 	bleq	ec3ed0 <__bss_end__+0xeb8f70>
    11e4:	13490b39 	movtne	r0, #39737	; 0x9b39
    11e8:	193c193f 	ldmdbne	ip!, {r0, r1, r2, r3, r4, r5, r8, fp, ip}
    11ec:	0f070000 	svceq	0x00070000
    11f0:	490b0b00 	stmdbmi	fp, {r8, r9, fp}
    11f4:	08000013 	stmdaeq	r0, {r0, r1, r4}
    11f8:	13490026 	movtne	r0, #36902	; 0x9026
    11fc:	2e090000 	cdpcs	0, 0, cr0, cr9, cr0, {0}
    1200:	03193f00 	tsteq	r9, #0, 30
    1204:	3b0b3a0e 	blcc	2cfa44 <__bss_end__+0x2c4ae4>
    1208:	270b390b 	strcs	r3, [fp, -fp, lsl #18]
    120c:	12011119 	andne	r1, r1, #1073741830	; 0x40000006
    1210:	97184006 	ldrls	r4, [r8, -r6]
    1214:	00001942 	andeq	r1, r0, r2, asr #18
    1218:	01110100 	tsteq	r1, r0, lsl #2
    121c:	0b130e25 	bleq	4c4ab8 <__bss_end__+0x4b9b58>
    1220:	0e1b0e03 	cdpeq	14, 1, cr0, cr11, cr3, {0}
    1224:	01111755 	tsteq	r1, r5, asr r7
    1228:	00001710 	andeq	r1, r0, r0, lsl r7
    122c:	0b002402 	bleq	a23c <__FUNCTION__.4051+0x6c>
    1230:	030b3e0b 	movweq	r3, #48651	; 0xbe0b
    1234:	03000008 	movweq	r0, #8
    1238:	13490026 	movtne	r0, #36902	; 0x9026
    123c:	24040000 	strcs	r0, [r4], #-0
    1240:	3e0b0b00 	vmlacc.f64	d0, d11, d0
    1244:	000e030b 	andeq	r0, lr, fp, lsl #6
    1248:	01150500 	tsteq	r5, r0, lsl #10
    124c:	13491927 	movtne	r1, #39207	; 0x9927
    1250:	00001301 	andeq	r1, r0, r1, lsl #6
    1254:	49000506 	stmdbmi	r0, {r1, r2, r8, sl}
    1258:	07000013 	smladeq	r0, r3, r0, r0
    125c:	0e030034 	mcreq	0, 0, r0, cr3, cr4, {1}
    1260:	0b3b0b3a 	bleq	ec3f50 <__bss_end__+0xeb8ff0>
    1264:	13490b39 	movtne	r0, #39737	; 0x9b39
    1268:	193c193f 	ldmdbne	ip!, {r0, r1, r2, r3, r4, r5, r8, fp, ip}
    126c:	0f080000 	svceq	0x00080000
    1270:	490b0b00 	stmdbmi	fp, {r8, r9, fp}
    1274:	09000013 	stmdbeq	r0, {r0, r1, r4}
    1278:	0e030034 	mcreq	0, 0, r0, cr3, cr4, {1}
    127c:	0b3b0b3a 	bleq	ec3f6c <__bss_end__+0xeb900c>
    1280:	13490b39 	movtne	r0, #39737	; 0x9b39
    1284:	2e0a0000 	cdpcs	0, 0, cr0, cr10, cr0, {0}
    1288:	03193f01 	tsteq	r9, #1, 30
    128c:	3b0b3a0e 	blcc	2cfacc <__bss_end__+0x2c4b6c>
    1290:	270b390b 	strcs	r3, [fp, -fp, lsl #18]
    1294:	19018719 	stmdbne	r1, {r0, r3, r4, r8, r9, sl, pc}
    1298:	06120111 			; <UNDEFINED> instruction: 0x06120111
    129c:	42971840 	addsmi	r1, r7, #64, 16	; 0x400000
    12a0:	00130119 	andseq	r0, r3, r9, lsl r1
    12a4:	00340b00 	eorseq	r0, r4, r0, lsl #22
    12a8:	0b3a0e03 	bleq	e84abc <__bss_end__+0xe79b5c>
    12ac:	0b390b3b 	bleq	e43fa0 <__bss_end__+0xe39040>
    12b0:	17021349 	strne	r1, [r2, -r9, asr #6]
    12b4:	001742b7 			; <UNDEFINED> instruction: 0x001742b7
    12b8:	82890c00 	addhi	r0, r9, #0, 24
    12bc:	01110001 	tsteq	r1, r1
    12c0:	00001331 	andeq	r1, r0, r1, lsr r3
    12c4:	0182890d 	orreq	r8, r2, sp, lsl #18
    12c8:	31011101 	tstcc	r1, r1, lsl #2
    12cc:	00130113 	andseq	r0, r3, r3, lsl r1
    12d0:	828a0e00 	addhi	r0, sl, #0, 28
    12d4:	18020001 	stmdane	r2, {r0}
    12d8:	00184291 	mulseq	r8, r1, r2
    12dc:	012e0f00 			; <UNDEFINED> instruction: 0x012e0f00
    12e0:	0e03193f 			; <UNDEFINED> instruction: 0x0e03193f
    12e4:	0b3b0b3a 	bleq	ec3fd4 <__bss_end__+0xeb9074>
    12e8:	19270b39 	stmdbne	r7!, {r0, r3, r4, r5, r8, r9, fp}
    12ec:	06120111 			; <UNDEFINED> instruction: 0x06120111
    12f0:	42971840 	addsmi	r1, r7, #64, 16	; 0x400000
    12f4:	00130119 	andseq	r0, r3, r9, lsl r1
    12f8:	012e1000 			; <UNDEFINED> instruction: 0x012e1000
    12fc:	0e03193f 			; <UNDEFINED> instruction: 0x0e03193f
    1300:	0b3b0b3a 	bleq	ec3ff0 <__bss_end__+0xeb9090>
    1304:	19270b39 	stmdbne	r7!, {r0, r3, r4, r5, r8, r9, fp}
    1308:	01111349 	tsteq	r1, r9, asr #6
    130c:	18400612 	stmdane	r0, {r1, r4, r9, sl}^
    1310:	01194297 			; <UNDEFINED> instruction: 0x01194297
    1314:	11000013 	tstne	r0, r3, lsl r0
    1318:	193f002e 	ldmdbne	pc!, {r1, r2, r3, r5}	; <UNPREDICTABLE>
    131c:	0e6e193c 			; <UNDEFINED> instruction: 0x0e6e193c
    1320:	0b3a0e03 	bleq	e84b34 <__bss_end__+0xe79bd4>
    1324:	0b39053b 	bleq	e42818 <__bss_end__+0xe378b8>
    1328:	2e120000 	cdpcs	0, 1, cr0, cr2, cr0, {0}
    132c:	3c193f00 	ldccc	15, cr3, [r9], {-0}
    1330:	030e6e19 	movweq	r6, #60953	; 0xee19
    1334:	3b0b3a0e 	blcc	2cfb74 <__bss_end__+0x2c4c14>
    1338:	000b390b 	andeq	r3, fp, fp, lsl #18
    133c:	11010000 	mrsne	r0, (UNDEF: 1)
    1340:	130e2501 	movwne	r2, #58625	; 0xe501
    1344:	1b0e030b 	blne	381f78 <__bss_end__+0x377018>
    1348:	1201110e 	andne	r1, r1, #-2147483645	; 0x80000003
    134c:	00171006 	andseq	r1, r7, r6
    1350:	00240200 	eoreq	r0, r4, r0, lsl #4
    1354:	0b3e0b0b 	bleq	f83f88 <__bss_end__+0xf79028>
    1358:	00000803 	andeq	r0, r0, r3, lsl #16
    135c:	0b002403 	bleq	a370 <__FUNCTION__.4051+0x1a0>
    1360:	030b3e0b 	movweq	r3, #48651	; 0xbe0b
    1364:	0400000e 	streq	r0, [r0], #-14
    1368:	19270115 	stmdbne	r7!, {r0, r2, r4, r8}
    136c:	13011349 	movwne	r1, #4937	; 0x1349
    1370:	05050000 	streq	r0, [r5, #-0]
    1374:	00134900 	andseq	r4, r3, r0, lsl #18
    1378:	00340600 	eorseq	r0, r4, r0, lsl #12
    137c:	0b3a0e03 	bleq	e84b90 <__bss_end__+0xe79c30>
    1380:	0b390b3b 	bleq	e44074 <__bss_end__+0xe39114>
    1384:	193f1349 	ldmdbne	pc!, {r0, r3, r6, r8, r9, ip}	; <UNPREDICTABLE>
    1388:	0000193c 	andeq	r1, r0, ip, lsr r9
    138c:	0b000f07 	bleq	4fb0 <__code_start__-0x3050>
    1390:	0013490b 	andseq	r4, r3, fp, lsl #18
    1394:	00260800 	eoreq	r0, r6, r0, lsl #16
    1398:	00001349 	andeq	r1, r0, r9, asr #6
    139c:	3f012e09 	svccc	0x00012e09
    13a0:	3a0e0319 	bcc	38200c <__bss_end__+0x3770ac>
    13a4:	390b3b0b 	stmdbcc	fp, {r0, r1, r3, r8, r9, fp, ip, sp}
    13a8:	1119270b 	tstne	r9, fp, lsl #14
    13ac:	40061201 	andmi	r1, r6, r1, lsl #4
    13b0:	19429718 	stmdbne	r2, {r3, r4, r8, r9, sl, ip, pc}^
    13b4:	00001301 	andeq	r1, r0, r1, lsl #6
    13b8:	0300050a 	movweq	r0, #1290	; 0x50a
    13bc:	3b0b3a08 	blcc	2cfbe4 <__bss_end__+0x2c4c84>
    13c0:	490b390b 	stmdbmi	fp, {r0, r1, r3, r8, fp, ip, sp}
    13c4:	b7170213 			; <UNDEFINED> instruction: 0xb7170213
    13c8:	00001742 	andeq	r1, r0, r2, asr #14
    13cc:	0182890b 	orreq	r8, r2, fp, lsl #18
    13d0:	31011101 	tstcc	r1, r1, lsl #2
    13d4:	0c000013 	stceq	0, cr0, [r0], {19}
    13d8:	0001828a 	andeq	r8, r1, sl, lsl #5
    13dc:	42911802 	addsmi	r1, r1, #131072	; 0x20000
    13e0:	0d000018 	stceq	0, cr0, [r0, #-96]	; 0xffffffa0
    13e4:	08030034 	stmdaeq	r3, {r2, r4, r5}
    13e8:	0b3b0b3a 	bleq	ec40d8 <__bss_end__+0xeb9178>
    13ec:	13490b39 	movtne	r0, #39737	; 0x9b39
    13f0:	42b71702 	adcsmi	r1, r7, #524288	; 0x80000
    13f4:	0e000017 	mcreq	0, 0, r0, cr0, cr7, {0}
    13f8:	0111010b 	tsteq	r1, fp, lsl #2
    13fc:	13010612 	movwne	r0, #5650	; 0x1612
    1400:	890f0000 	stmdbhi	pc, {}	; <UNPREDICTABLE>
    1404:	11000182 	smlabbne	r0, r2, r1, r0
    1408:	00133101 	andseq	r3, r3, r1, lsl #2
    140c:	012e1000 			; <UNDEFINED> instruction: 0x012e1000
    1410:	0e03193f 			; <UNDEFINED> instruction: 0x0e03193f
    1414:	0b3b0b3a 	bleq	ec4104 <__bss_end__+0xeb91a4>
    1418:	19270b39 	stmdbne	r7!, {r0, r3, r4, r5, r8, r9, fp}
    141c:	01111349 	tsteq	r1, r9, asr #6
    1420:	18400612 	stmdane	r0, {r1, r4, r9, sl}^
    1424:	01194297 			; <UNDEFINED> instruction: 0x01194297
    1428:	11000013 	tstne	r0, r3, lsl r0
    142c:	193f002e 	ldmdbne	pc!, {r1, r2, r3, r5}	; <UNPREDICTABLE>
    1430:	0e6e193c 			; <UNDEFINED> instruction: 0x0e6e193c
    1434:	0b3a0e03 	bleq	e84c48 <__bss_end__+0xe79ce8>
    1438:	0b390b3b 	bleq	e4412c <__bss_end__+0xe391cc>
    143c:	01000000 	mrseq	r0, (UNDEF: 0)
    1440:	0e250111 	mcreq	1, 1, r0, cr5, cr1, {0}
    1444:	0e030b13 	vmoveq.32	d3[0], r0
    1448:	01110e1b 	tsteq	r1, fp, lsl lr
    144c:	17100612 			; <UNDEFINED> instruction: 0x17100612
    1450:	24020000 	strcs	r0, [r2], #-0
    1454:	3e0b0b00 	vmlacc.f64	d0, d11, d0
    1458:	0008030b 	andeq	r0, r8, fp, lsl #6
    145c:	00240300 	eoreq	r0, r4, r0, lsl #6
    1460:	0b3e0b0b 	bleq	f84094 <__bss_end__+0xf79134>
    1464:	00000e03 	andeq	r0, r0, r3, lsl #28
    1468:	49003504 	stmdbmi	r0, {r2, r8, sl, ip, sp}
    146c:	05000013 	streq	r0, [r0, #-19]	; 0xffffffed
    1470:	0e030016 	mcreq	0, 0, r0, cr3, cr6, {0}
    1474:	0b3b0b3a 	bleq	ec4164 <__bss_end__+0xeb9204>
    1478:	13490b39 	movtne	r0, #39737	; 0x9b39
    147c:	04060000 	streq	r0, [r6], #-0
    1480:	0b0b3e01 	bleq	2d0c8c <__bss_end__+0x2c5d2c>
    1484:	3a13490b 	bcc	4d38b8 <__bss_end__+0x4c8958>
    1488:	390b3b0b 	stmdbcc	fp, {r0, r1, r3, r8, r9, fp, ip, sp}
    148c:	0013010b 	andseq	r0, r3, fp, lsl #2
    1490:	00280700 	eoreq	r0, r8, r0, lsl #14
    1494:	0b1c0e03 	bleq	704ca8 <__bss_end__+0x6f9d48>
    1498:	13080000 	movwne	r0, #32768	; 0x8000
    149c:	0b0e0301 	bleq	3820a8 <__bss_end__+0x377148>
    14a0:	3b0b3a0b 	blcc	2cfcd4 <__bss_end__+0x2c4d74>
    14a4:	010b390b 	tsteq	fp, fp, lsl #18
    14a8:	09000013 	stmdbeq	r0, {r0, r1, r4}
    14ac:	0803000d 	stmdaeq	r3, {r0, r2, r3}
    14b0:	0b3b0b3a 	bleq	ec41a0 <__bss_end__+0xeb9240>
    14b4:	13490b39 	movtne	r0, #39737	; 0x9b39
    14b8:	00000b38 	andeq	r0, r0, r8, lsr fp
    14bc:	03000d0a 	movweq	r0, #3338	; 0xd0a
    14c0:	3b0b3a0e 	blcc	2cfd00 <__bss_end__+0x2c4da0>
    14c4:	490b390b 	stmdbmi	fp, {r0, r1, r3, r8, fp, ip, sp}
    14c8:	000b3813 	andeq	r3, fp, r3, lsl r8
    14cc:	00340b00 	eorseq	r0, r4, r0, lsl #22
    14d0:	0b3a0e03 	bleq	e84ce4 <__bss_end__+0xe79d84>
    14d4:	0b390b3b 	bleq	e441c8 <__bss_end__+0xe39268>
    14d8:	061c1349 	ldreq	r1, [ip], -r9, asr #6
    14dc:	0f0c0000 	svceq	0x000c0000
    14e0:	490b0b00 	stmdbmi	fp, {r8, r9, fp}
    14e4:	0d000013 	stceq	0, cr0, [r0, #-76]	; 0xffffffb4
    14e8:	13490026 	movtne	r0, #36902	; 0x9026
    14ec:	2e0e0000 	cdpcs	0, 0, cr0, cr14, cr0, {0}
    14f0:	03193f01 	tsteq	r9, #1, 30
    14f4:	3b0b3a0e 	blcc	2cfd34 <__bss_end__+0x2c4dd4>
    14f8:	270b390b 	strcs	r3, [fp, -fp, lsl #18]
    14fc:	12011119 	andne	r1, r1, #1073741830	; 0x40000006
    1500:	97184006 	ldrls	r4, [r8, -r6]
    1504:	13011942 	movwne	r1, #6466	; 0x1942
    1508:	890f0000 	stmdbhi	pc, {}	; <UNPREDICTABLE>
    150c:	11000182 	smlabbne	r0, r2, r1, r0
    1510:	00133101 	andseq	r3, r3, r1, lsl #2
    1514:	012e1000 			; <UNDEFINED> instruction: 0x012e1000
    1518:	0e03193f 			; <UNDEFINED> instruction: 0x0e03193f
    151c:	0b3b0b3a 	bleq	ec420c <__bss_end__+0xeb92ac>
    1520:	19270b39 	stmdbne	r7!, {r0, r3, r4, r5, r8, r9, fp}
    1524:	01111349 	tsteq	r1, r9, asr #6
    1528:	18400612 	stmdane	r0, {r1, r4, r9, sl}^
    152c:	01194297 			; <UNDEFINED> instruction: 0x01194297
    1530:	11000013 	tstne	r0, r3, lsl r0
    1534:	01018289 	smlabbeq	r1, r9, r2, r8
    1538:	13310111 	teqne	r1, #1073741828	; 0x40000004
    153c:	8a120000 	bhi	481544 <__bss_end__+0x4765e4>
    1540:	02000182 	andeq	r0, r0, #-2147483616	; 0x80000020
    1544:	18429118 	stmdane	r2, {r3, r4, r8, ip, pc}^
    1548:	05130000 	ldreq	r0, [r3, #-0]
    154c:	3a080300 	bcc	202154 <__bss_end__+0x1f71f4>
    1550:	390b3b0b 	stmdbcc	fp, {r0, r1, r3, r8, r9, fp, ip, sp}
    1554:	0213490b 	andseq	r4, r3, #180224	; 0x2c000
    1558:	1742b717 	smlaldne	fp, r2, r7, r7
    155c:	89140000 	ldmdbhi	r4, {}	; <UNPREDICTABLE>
    1560:	11010182 	smlabbne	r1, r2, r1, r0
    1564:	01133101 	tsteq	r3, r1, lsl #2
    1568:	15000013 	strne	r0, [r0, #-19]	; 0xffffffed
    156c:	08030034 	stmdaeq	r3, {r2, r4, r5}
    1570:	0b3b0b3a 	bleq	ec4260 <__bss_end__+0xeb9300>
    1574:	13490b39 	movtne	r0, #39737	; 0x9b39
    1578:	42b71702 	adcsmi	r1, r7, #524288	; 0x80000
    157c:	16000017 			; <UNDEFINED> instruction: 0x16000017
    1580:	0e030034 	mcreq	0, 0, r0, cr3, cr4, {1}
    1584:	0b3b0b3a 	bleq	ec4274 <__bss_end__+0xeb9314>
    1588:	13490b39 	movtne	r0, #39737	; 0x9b39
    158c:	0000051c 	andeq	r0, r0, ip, lsl r5
    1590:	03012e17 	movweq	r2, #7703	; 0x1e17
    1594:	3b0b3a0e 	blcc	2cfdd4 <__bss_end__+0x2c4e74>
    1598:	270b390b 	strcs	r3, [fp, -fp, lsl #18]
    159c:	12011119 	andne	r1, r1, #1073741830	; 0x40000006
    15a0:	97184006 	ldrls	r4, [r8, -r6]
    15a4:	13011942 	movwne	r1, #6466	; 0x1942
    15a8:	05180000 	ldreq	r0, [r8, #-0]
    15ac:	3a0e0300 	bcc	3821b4 <__bss_end__+0x377254>
    15b0:	390b3b0b 	stmdbcc	fp, {r0, r1, r3, r8, r9, fp, ip, sp}
    15b4:	0213490b 	andseq	r4, r3, #180224	; 0x2c000
    15b8:	1742b717 	smlaldne	fp, r2, r7, r7
    15bc:	35190000 	ldrcc	r0, [r9, #-0]
    15c0:	1a000000 	bne	15c8 <__code_start__-0x6a38>
    15c4:	193f002e 	ldmdbne	pc!, {r1, r2, r3, r5}	; <UNPREDICTABLE>
    15c8:	0e6e193c 			; <UNDEFINED> instruction: 0x0e6e193c
    15cc:	0b3a0e03 	bleq	e84de0 <__bss_end__+0xe79e80>
    15d0:	0b390b3b 	bleq	e442c4 <__bss_end__+0xe39364>
    15d4:	01000000 	mrseq	r0, (UNDEF: 0)
    15d8:	0e250111 	mcreq	1, 1, r0, cr5, cr1, {0}
    15dc:	0e030b13 	vmoveq.32	d3[0], r0
    15e0:	01110e1b 	tsteq	r1, fp, lsl lr
    15e4:	17100612 			; <UNDEFINED> instruction: 0x17100612
    15e8:	24020000 	strcs	r0, [r2], #-0
    15ec:	3e0b0b00 	vmlacc.f64	d0, d11, d0
    15f0:	0008030b 	andeq	r0, r8, fp, lsl #6
    15f4:	00240300 	eoreq	r0, r4, r0, lsl #6
    15f8:	0b3e0b0b 	bleq	f8422c <__bss_end__+0xf792cc>
    15fc:	00000e03 	andeq	r0, r0, r3, lsl #28
    1600:	03001604 	movweq	r1, #1540	; 0x604
    1604:	3b0b3a0e 	blcc	2cfe44 <__bss_end__+0x2c4ee4>
    1608:	490b390b 	stmdbmi	fp, {r0, r1, r3, r8, fp, ip, sp}
    160c:	05000013 	streq	r0, [r0, #-19]	; 0xffffffed
    1610:	13490026 	movtne	r0, #36902	; 0x9026
    1614:	0f060000 	svceq	0x00060000
    1618:	000b0b00 	andeq	r0, fp, r0, lsl #22
    161c:	01040700 	tsteq	r4, r0, lsl #14
    1620:	0b0b0b3e 	bleq	2c4320 <__bss_end__+0x2b93c0>
    1624:	0b3a1349 	bleq	e86350 <__bss_end__+0xe7b3f0>
    1628:	0b390b3b 	bleq	e4431c <__bss_end__+0xe393bc>
    162c:	00001301 	andeq	r1, r0, r1, lsl #6
    1630:	03002808 	movweq	r2, #2056	; 0x808
    1634:	00061c0e 	andeq	r1, r6, lr, lsl #24
    1638:	00340900 	eorseq	r0, r4, r0, lsl #18
    163c:	0b3a0e03 	bleq	e84e50 <__bss_end__+0xe79ef0>
    1640:	0b390b3b 	bleq	e44334 <__bss_end__+0xe393d4>
    1644:	193f1349 	ldmdbne	pc!, {r0, r3, r6, r8, r9, ip}	; <UNPREDICTABLE>
    1648:	0000193c 	andeq	r1, r0, ip, lsr r9
    164c:	0300340a 	movweq	r3, #1034	; 0x40a
    1650:	3b0b3a0e 	blcc	2cfe90 <__bss_end__+0x2c4f30>
    1654:	490b390b 	stmdbmi	fp, {r0, r1, r3, r8, fp, ip, sp}
    1658:	00180213 	andseq	r0, r8, r3, lsl r2
    165c:	000f0b00 	andeq	r0, pc, r0, lsl #22
    1660:	13490b0b 	movtne	r0, #39691	; 0x9b0b
    1664:	2e0c0000 	cdpcs	0, 0, cr0, cr12, cr0, {0}
    1668:	03193f01 	tsteq	r9, #1, 30
    166c:	3b0b3a0e 	blcc	2cfeac <__bss_end__+0x2c4f4c>
    1670:	270b390b 	strcs	r3, [fp, -fp, lsl #18]
    1674:	12011119 	andne	r1, r1, #1073741830	; 0x40000006
    1678:	97184006 	ldrls	r4, [r8, -r6]
    167c:	13011942 	movwne	r1, #6466	; 0x1942
    1680:	050d0000 	streq	r0, [sp, #-0]
    1684:	3a080300 	bcc	20228c <__bss_end__+0x1f732c>
    1688:	390b3b0b 	stmdbcc	fp, {r0, r1, r3, r8, r9, fp, ip, sp}
    168c:	0213490b 	andseq	r4, r3, #180224	; 0x2c000
    1690:	1742b717 	smlaldne	fp, r2, r7, r7
    1694:	340e0000 	strcc	r0, [lr], #-0
    1698:	490e0300 	stmdbmi	lr, {r8, r9}
    169c:	02193413 	andseq	r3, r9, #318767104	; 0x13000000
    16a0:	0f000018 	svceq	0x00000018
    16a4:	01018289 	smlabbeq	r1, r9, r2, r8
    16a8:	13310111 	teqne	r1, #1073741828	; 0x40000004
    16ac:	00001301 	andeq	r1, r0, r1, lsl #6
    16b0:	01828a10 	orreq	r8, r2, r0, lsl sl
    16b4:	91180200 	tstls	r8, r0, lsl #4
    16b8:	00001842 	andeq	r1, r0, r2, asr #16
    16bc:	01828911 	orreq	r8, r2, r1, lsl r9
    16c0:	31011100 	mrscc	r1, (UNDEF: 17)
    16c4:	12000013 	andne	r0, r0, #19, 0
    16c8:	13490101 	movtne	r0, #37121	; 0x9101
    16cc:	00001301 	andeq	r1, r0, r1, lsl #6
    16d0:	49002113 	stmdbmi	r0, {r0, r1, r4, r8, sp}
    16d4:	000b2f13 	andeq	r2, fp, r3, lsl pc
    16d8:	002e1400 	eoreq	r1, lr, r0, lsl #8
    16dc:	0e03193f 			; <UNDEFINED> instruction: 0x0e03193f
    16e0:	0b3b0b3a 	bleq	ec43d0 <__bss_end__+0xeb9470>
    16e4:	19270b39 	stmdbne	r7!, {r0, r3, r4, r5, r8, r9, fp}
    16e8:	06120111 			; <UNDEFINED> instruction: 0x06120111
    16ec:	42971840 	addsmi	r1, r7, #64, 16	; 0x400000
    16f0:	15000019 	strne	r0, [r0, #-25]	; 0xffffffe7
    16f4:	08030005 	stmdaeq	r3, {r0, r2}
    16f8:	0b3b0b3a 	bleq	ec43e8 <__bss_end__+0xeb9488>
    16fc:	13490b39 	movtne	r0, #39737	; 0x9b39
    1700:	00001802 	andeq	r1, r0, r2, lsl #16
    1704:	3f012e16 	svccc	0x00012e16
    1708:	3a0e0319 	bcc	382374 <__bss_end__+0x377414>
    170c:	390b3b0b 	stmdbcc	fp, {r0, r1, r3, r8, r9, fp, ip, sp}
    1710:	4919270b 	ldmdbmi	r9, {r0, r1, r3, r8, r9, sl, sp}
    1714:	12011113 	andne	r1, r1, #-1073741820	; 0xc0000004
    1718:	97184006 	ldrls	r4, [r8, -r6]
    171c:	13011942 	movwne	r1, #6466	; 0x1942
    1720:	05170000 	ldreq	r0, [r7, #-0]
    1724:	3a0e0300 	bcc	38232c <__bss_end__+0x3773cc>
    1728:	390b3b0b 	stmdbcc	fp, {r0, r1, r3, r8, r9, fp, ip, sp}
    172c:	0213490b 	andseq	r4, r3, #180224	; 0x2c000
    1730:	1742b717 	smlaldne	fp, r2, r7, r7
    1734:	34180000 	ldrcc	r0, [r8], #-0
    1738:	3a080300 	bcc	202340 <__bss_end__+0x1f73e0>
    173c:	390b3b0b 	stmdbcc	fp, {r0, r1, r3, r8, r9, fp, ip, sp}
    1740:	0213490b 	andseq	r4, r3, #180224	; 0x2c000
    1744:	1742b717 	smlaldne	fp, r2, r7, r7
    1748:	1d190000 	ldcne	0, cr0, [r9, #-0]
    174c:	52133101 	andspl	r3, r3, #1073741824	; 0x40000000
    1750:	0b42b801 	bleq	10af75c <__bss_end__+0x10a47fc>
    1754:	06120111 			; <UNDEFINED> instruction: 0x06120111
    1758:	0b590b58 	bleq	16444c0 <__bss_end__+0x1639560>
    175c:	13010b57 	movwne	r0, #6999	; 0x1b57
    1760:	051a0000 	ldreq	r0, [sl, #-0]
    1764:	02133100 	andseq	r3, r3, #0
    1768:	1742b717 	smlaldne	fp, r2, r7, r7
    176c:	1d1b0000 	ldcne	0, cr0, [fp, #-0]
    1770:	52133101 	andspl	r3, r3, #1073741824	; 0x40000000
    1774:	0b42b801 	bleq	10af780 <__bss_end__+0x10a4820>
    1778:	0b581755 	bleq	16074d4 <__bss_end__+0x15fc574>
    177c:	0b570b59 	bleq	15c44e8 <__bss_end__+0x15b9588>
    1780:	00001301 	andeq	r1, r0, r1, lsl #6
    1784:	55010b1c 	strpl	r0, [r1, #-2844]	; 0xfffff4e4
    1788:	1d000017 	stcne	0, cr0, [r0, #-92]	; 0xffffffa4
    178c:	0e030034 	mcreq	0, 0, r0, cr3, cr4, {1}
    1790:	0b3b0b3a 	bleq	ec4480 <__bss_end__+0xeb9520>
    1794:	13490b39 	movtne	r0, #39737	; 0x9b39
    1798:	42b71702 	adcsmi	r1, r7, #524288	; 0x80000
    179c:	1e000017 	mcrne	0, 0, r0, cr0, cr7, {0}
    17a0:	1755000b 	ldrbne	r0, [r5, -fp]
    17a4:	2e1f0000 	cdpcs	0, 1, cr0, cr15, cr0, {0}
    17a8:	03193f00 	tsteq	r9, #0, 30
    17ac:	3b0b3a0e 	blcc	2cffec <__bss_end__+0x2c508c>
    17b0:	270b390b 	strcs	r3, [fp, -fp, lsl #18]
    17b4:	11134919 	tstne	r3, r9, lsl r9
    17b8:	40061201 	andmi	r1, r6, r1, lsl #4
    17bc:	19429718 	stmdbne	r2, {r3, r4, r8, r9, sl, ip, pc}^
    17c0:	2e200000 	cdpcs	0, 2, cr0, cr0, cr0, {0}
    17c4:	3a0e0301 	bcc	3823d0 <__bss_end__+0x377470>
    17c8:	390b3b0b 	stmdbcc	fp, {r0, r1, r3, r8, r9, fp, ip, sp}
    17cc:	4919270b 	ldmdbmi	r9, {r0, r1, r3, r8, r9, sl, sp}
    17d0:	010b2013 	tsteq	fp, r3, lsl r0
    17d4:	21000013 	tstcs	r0, r3, lsl r0
    17d8:	08030005 	stmdaeq	r3, {r0, r2}
    17dc:	0b3b0b3a 	bleq	ec44cc <__bss_end__+0xeb956c>
    17e0:	13490b39 	movtne	r0, #39737	; 0x9b39
    17e4:	2e220000 	cdpcs	0, 2, cr0, cr2, cr0, {0}
    17e8:	3c193f00 	ldccc	15, cr3, [r9], {-0}
    17ec:	030e6e19 	movweq	r6, #60953	; 0xee19
    17f0:	3b0b3a0e 	blcc	2d0030 <__bss_end__+0x2c50d0>
    17f4:	000b390b 	andeq	r3, fp, fp, lsl #18
    17f8:	11010000 	mrsne	r0, (UNDEF: 1)
    17fc:	130e2501 	movwne	r2, #58625	; 0xe501
    1800:	1b0e030b 	blne	382434 <__bss_end__+0x3774d4>
    1804:	1201110e 	andne	r1, r1, #-2147483645	; 0x80000003
    1808:	00171006 	andseq	r1, r7, r6
    180c:	00240200 	eoreq	r0, r4, r0, lsl #4
    1810:	0b3e0b0b 	bleq	f84444 <__bss_end__+0xf794e4>
    1814:	00000803 	andeq	r0, r0, r3, lsl #16
    1818:	0b002403 	bleq	a82c <__FUNCTION__.4137+0x94>
    181c:	030b3e0b 	movweq	r3, #48651	; 0xbe0b
    1820:	0400000e 	streq	r0, [r0], #-14
    1824:	19270115 	stmdbne	r7!, {r0, r2, r4, r8}
    1828:	13011349 	movwne	r1, #4937	; 0x1349
    182c:	05050000 	streq	r0, [r5, #-0]
    1830:	00134900 	andseq	r4, r3, r0, lsl #18
    1834:	00340600 	eorseq	r0, r4, r0, lsl #12
    1838:	0b3a0e03 	bleq	e8504c <__bss_end__+0xe7a0ec>
    183c:	0b390b3b 	bleq	e44530 <__bss_end__+0xe395d0>
    1840:	193f1349 	ldmdbne	pc!, {r0, r3, r6, r8, r9, ip}	; <UNPREDICTABLE>
    1844:	0000193c 	andeq	r1, r0, ip, lsr r9
    1848:	0b000f07 	bleq	546c <__code_start__-0x2b94>
    184c:	0013490b 	andseq	r4, r3, fp, lsl #18
    1850:	00260800 	eoreq	r0, r6, r0, lsl #16
    1854:	00001349 	andeq	r1, r0, r9, asr #6
    1858:	47003409 	strmi	r3, [r0, -r9, lsl #8]
    185c:	3b0b3a13 	blcc	2d00b0 <__bss_end__+0x2c5150>
    1860:	020b390b 	andeq	r3, fp, #180224	; 0x2c000
    1864:	0a000018 	beq	18cc <__code_start__-0x6734>
    1868:	193f012e 	ldmdbne	pc!, {r1, r2, r3, r5, r8}	; <UNPREDICTABLE>
    186c:	0b3a0e03 	bleq	e85080 <__bss_end__+0xe7a120>
    1870:	0b390b3b 	bleq	e44564 <__bss_end__+0xe39604>
    1874:	01111927 	tsteq	r1, r7, lsr #18
    1878:	18400612 	stmdane	r0, {r1, r4, r9, sl}^
    187c:	01194297 			; <UNDEFINED> instruction: 0x01194297
    1880:	0b000013 	bleq	18d4 <__code_start__-0x672c>
    1884:	08030005 	stmdaeq	r3, {r0, r2}
    1888:	0b3b0b3a 	bleq	ec4578 <__bss_end__+0xeb9618>
    188c:	13490b39 	movtne	r0, #39737	; 0x9b39
    1890:	00001802 	andeq	r1, r0, r2, lsl #16
    1894:	3f002e0c 	svccc	0x00002e0c
    1898:	3a0e0319 	bcc	382504 <__bss_end__+0x3775a4>
    189c:	390b3b0b 	stmdbcc	fp, {r0, r1, r3, r8, r9, fp, ip, sp}
    18a0:	1119270b 	tstne	r9, fp, lsl #14
    18a4:	40061201 	andmi	r1, r6, r1, lsl #4
    18a8:	19429718 	stmdbne	r2, {r3, r4, r8, r9, sl, ip, pc}^
    18ac:	2e0d0000 	cdpcs	0, 0, cr0, cr13, cr0, {0}
    18b0:	3a0e0301 	bcc	3824bc <__bss_end__+0x37755c>
    18b4:	390b3b0b 	stmdbcc	fp, {r0, r1, r3, r8, r9, fp, ip, sp}
    18b8:	4919270b 	ldmdbmi	r9, {r0, r1, r3, r8, r9, sl, sp}
    18bc:	12011113 	andne	r1, r1, #-1073741820	; 0xc0000004
    18c0:	97184006 	ldrls	r4, [r8, -r6]
    18c4:	13011942 	movwne	r1, #6466	; 0x1942
    18c8:	050e0000 	streq	r0, [lr, #-0]
    18cc:	3a080300 	bcc	2024d4 <__bss_end__+0x1f7574>
    18d0:	390b3b0b 	stmdbcc	fp, {r0, r1, r3, r8, r9, fp, ip, sp}
    18d4:	0213490b 	andseq	r4, r3, #180224	; 0x2c000
    18d8:	1742b717 	smlaldne	fp, r2, r7, r7
    18dc:	890f0000 	stmdbhi	pc, {}	; <UNPREDICTABLE>
    18e0:	11010182 	smlabbne	r1, r2, r1, r0
    18e4:	00133101 	andseq	r3, r3, r1, lsl #2
    18e8:	828a1000 	addhi	r1, sl, #0, 0
    18ec:	18020001 	stmdane	r2, {r0}
    18f0:	00184291 	mulseq	r8, r1, r2
    18f4:	002e1100 	eoreq	r1, lr, r0, lsl #2
    18f8:	193c193f 	ldmdbne	ip!, {r0, r1, r2, r3, r4, r5, r8, fp, ip}
    18fc:	0e030e6e 	cdpeq	14, 0, cr0, cr3, cr14, {3}
    1900:	0b3b0b3a 	bleq	ec45f0 <__bss_end__+0xeb9690>
    1904:	00000b39 	andeq	r0, r0, r9, lsr fp
    1908:	01110100 	tsteq	r1, r0, lsl #2
    190c:	0b130e25 	bleq	4c51a8 <__bss_end__+0x4ba248>
    1910:	0e1b0e03 	cdpeq	14, 1, cr0, cr11, cr3, {0}
    1914:	06120111 			; <UNDEFINED> instruction: 0x06120111
    1918:	00001710 	andeq	r1, r0, r0, lsl r7
    191c:	0b002402 	bleq	a92c <__FUNCTION__.4034+0x2c>
    1920:	030b3e0b 	movweq	r3, #48651	; 0xbe0b
    1924:	03000008 	movweq	r0, #8
    1928:	0b0b0024 	bleq	2c19c0 <__bss_end__+0x2b6a60>
    192c:	0e030b3e 	vmoveq.16	d3[0], r0
    1930:	15040000 	strne	r0, [r4, #-0]
    1934:	49192701 	ldmdbmi	r9, {r0, r8, r9, sl, sp}
    1938:	00130113 	andseq	r0, r3, r3, lsl r1
    193c:	00050500 	andeq	r0, r5, r0, lsl #10
    1940:	00001349 	andeq	r1, r0, r9, asr #6
    1944:	03003406 	movweq	r3, #1030	; 0x406
    1948:	3b0b3a0e 	blcc	2d0188 <__bss_end__+0x2c5228>
    194c:	490b390b 	stmdbmi	fp, {r0, r1, r3, r8, fp, ip, sp}
    1950:	3c193f13 	ldccc	15, cr3, [r9], {19}
    1954:	07000019 	smladeq	r0, r9, r0, r0
    1958:	0b0b000f 	bleq	2c199c <__bss_end__+0x2b6a3c>
    195c:	00001349 	andeq	r1, r0, r9, asr #6
    1960:	49002608 	stmdbmi	r0, {r3, r9, sl, sp}
    1964:	09000013 	stmdbeq	r0, {r0, r1, r4}
    1968:	193f012e 	ldmdbne	pc!, {r1, r2, r3, r5, r8}	; <UNPREDICTABLE>
    196c:	0b3a0e03 	bleq	e85180 <__bss_end__+0xe7a220>
    1970:	0b390b3b 	bleq	e44664 <__bss_end__+0xe39704>
    1974:	13491927 	movtne	r1, #39207	; 0x9927
    1978:	06120111 			; <UNDEFINED> instruction: 0x06120111
    197c:	42971840 	addsmi	r1, r7, #64, 16	; 0x400000
    1980:	00130119 	andseq	r0, r3, r9, lsl r1
    1984:	00050a00 	andeq	r0, r5, r0, lsl #20
    1988:	0b3a0e03 	bleq	e8519c <__bss_end__+0xe7a23c>
    198c:	0b390b3b 	bleq	e44680 <__bss_end__+0xe39720>
    1990:	18021349 	stmdane	r2, {r0, r3, r6, r8, r9, ip}
    1994:	050b0000 	streq	r0, [fp, #-0]
    1998:	3a080300 	bcc	2025a0 <__bss_end__+0x1f7640>
    199c:	390b3b0b 	stmdbcc	fp, {r0, r1, r3, r8, r9, fp, ip, sp}
    19a0:	0213490b 	andseq	r4, r3, #180224	; 0x2c000
    19a4:	1742b717 	smlaldne	fp, r2, r7, r7
    19a8:	340c0000 	strcc	r0, [ip], #-0
    19ac:	3a080300 	bcc	2025b4 <__bss_end__+0x1f7654>
    19b0:	390b3b0b 	stmdbcc	fp, {r0, r1, r3, r8, r9, fp, ip, sp}
    19b4:	0213490b 	andseq	r4, r3, #180224	; 0x2c000
    19b8:	1742b717 	smlaldne	fp, r2, r7, r7
    19bc:	01000000 	mrseq	r0, (UNDEF: 0)
    19c0:	0e250111 	mcreq	1, 1, r0, cr5, cr1, {0}
    19c4:	0e030b13 	vmoveq.32	d3[0], r0
    19c8:	01110e1b 	tsteq	r1, fp, lsl lr
    19cc:	17100612 			; <UNDEFINED> instruction: 0x17100612
    19d0:	24020000 	strcs	r0, [r2], #-0
    19d4:	3e0b0b00 	vmlacc.f64	d0, d11, d0
    19d8:	0008030b 	andeq	r0, r8, fp, lsl #6
    19dc:	00240300 	eoreq	r0, r4, r0, lsl #6
    19e0:	0b3e0b0b 	bleq	f84614 <__bss_end__+0xf796b4>
    19e4:	00000e03 	andeq	r0, r0, r3, lsl #28
    19e8:	27011504 	strcs	r1, [r1, -r4, lsl #10]
    19ec:	01134919 	tsteq	r3, r9, lsl r9
    19f0:	05000013 	streq	r0, [r0, #-19]	; 0xffffffed
    19f4:	13490005 	movtne	r0, #36869	; 0x9005
    19f8:	34060000 	strcc	r0, [r6], #-0
    19fc:	3a0e0300 	bcc	382604 <__bss_end__+0x3776a4>
    1a00:	390b3b0b 	stmdbcc	fp, {r0, r1, r3, r8, r9, fp, ip, sp}
    1a04:	3f13490b 	svccc	0x0013490b
    1a08:	00193c19 	andseq	r3, r9, r9, lsl ip
    1a0c:	000f0700 	andeq	r0, pc, r0, lsl #14
    1a10:	13490b0b 	movtne	r0, #39691	; 0x9b0b
    1a14:	26080000 	strcs	r0, [r8], -r0
    1a18:	00134900 	andseq	r4, r3, r0, lsl #18
    1a1c:	012e0900 			; <UNDEFINED> instruction: 0x012e0900
    1a20:	0e03193f 			; <UNDEFINED> instruction: 0x0e03193f
    1a24:	0b3b0b3a 	bleq	ec4714 <__bss_end__+0xeb97b4>
    1a28:	19270b39 	stmdbne	r7!, {r0, r3, r4, r5, r8, r9, fp}
    1a2c:	01111349 	tsteq	r1, r9, asr #6
    1a30:	18400612 	stmdane	r0, {r1, r4, r9, sl}^
    1a34:	00194297 	mulseq	r9, r7, r2
    1a38:	00050a00 	andeq	r0, r5, r0, lsl #20
    1a3c:	0b3a0803 	bleq	e83a50 <__bss_end__+0xe78af0>
    1a40:	0b390b3b 	bleq	e44734 <__bss_end__+0xe397d4>
    1a44:	17021349 	strne	r1, [r2, -r9, asr #6]
    1a48:	001742b7 			; <UNDEFINED> instruction: 0x001742b7
    1a4c:	11010000 	mrsne	r0, (UNDEF: 1)
    1a50:	130e2501 	movwne	r2, #58625	; 0xe501
    1a54:	1b0e030b 	blne	382688 <__bss_end__+0x377728>
    1a58:	1201110e 	andne	r1, r1, #-2147483645	; 0x80000003
    1a5c:	00171006 	andseq	r1, r7, r6
    1a60:	00240200 	eoreq	r0, r4, r0, lsl #4
    1a64:	0b3e0b0b 	bleq	f84698 <__bss_end__+0xf79738>
    1a68:	00000803 	andeq	r0, r0, r3, lsl #16
    1a6c:	0b002403 	bleq	aa80 <__FUNCTION__.4034+0x180>
    1a70:	030b3e0b 	movweq	r3, #48651	; 0xbe0b
    1a74:	0400000e 	streq	r0, [r0], #-14
    1a78:	19270115 	stmdbne	r7!, {r0, r2, r4, r8}
    1a7c:	13011349 	movwne	r1, #4937	; 0x1349
    1a80:	05050000 	streq	r0, [r5, #-0]
    1a84:	00134900 	andseq	r4, r3, r0, lsl #18
    1a88:	00340600 	eorseq	r0, r4, r0, lsl #12
    1a8c:	0b3a0e03 	bleq	e852a0 <__bss_end__+0xe7a340>
    1a90:	0b390b3b 	bleq	e44784 <__bss_end__+0xe39824>
    1a94:	193f1349 	ldmdbne	pc!, {r0, r3, r6, r8, r9, ip}	; <UNPREDICTABLE>
    1a98:	0000193c 	andeq	r1, r0, ip, lsr r9
    1a9c:	0b000f07 	bleq	56c0 <__code_start__-0x2940>
    1aa0:	0013490b 	andseq	r4, r3, fp, lsl #18
    1aa4:	00260800 	eoreq	r0, r6, r0, lsl #16
    1aa8:	00001349 	andeq	r1, r0, r9, asr #6
    1aac:	3f012e09 	svccc	0x00012e09
    1ab0:	3a0e0319 	bcc	38271c <__bss_end__+0x3777bc>
    1ab4:	390b3b0b 	stmdbcc	fp, {r0, r1, r3, r8, r9, fp, ip, sp}
    1ab8:	4919270b 	ldmdbmi	r9, {r0, r1, r3, r8, r9, sl, sp}
    1abc:	12011113 	andne	r1, r1, #-1073741820	; 0xc0000004
    1ac0:	97184006 	ldrls	r4, [r8, -r6]
    1ac4:	13011942 	movwne	r1, #6466	; 0x1942
    1ac8:	050a0000 	streq	r0, [sl, #-0]
    1acc:	3a080300 	bcc	2026d4 <__bss_end__+0x1f7774>
    1ad0:	390b3b0b 	stmdbcc	fp, {r0, r1, r3, r8, r9, fp, ip, sp}
    1ad4:	0213490b 	andseq	r4, r3, #180224	; 0x2c000
    1ad8:	0b000018 	bleq	1b40 <__code_start__-0x64c0>
    1adc:	08030005 	stmdaeq	r3, {r0, r2}
    1ae0:	0b3b0b3a 	bleq	ec47d0 <__bss_end__+0xeb9870>
    1ae4:	13490b39 	movtne	r0, #39737	; 0x9b39
    1ae8:	42b71702 	adcsmi	r1, r7, #524288	; 0x80000
    1aec:	0c000017 	stceq	0, cr0, [r0], {23}
    1af0:	08030034 	stmdaeq	r3, {r2, r4, r5}
    1af4:	0b3b0b3a 	bleq	ec47e4 <__bss_end__+0xeb9884>
    1af8:	13490b39 	movtne	r0, #39737	; 0x9b39
    1afc:	42b71702 	adcsmi	r1, r7, #524288	; 0x80000
    1b00:	00000017 	andeq	r0, r0, r7, lsl r0
    1b04:	25011101 	strcs	r1, [r1, #-257]	; 0xfffffeff
    1b08:	030b130e 	movweq	r1, #45838	; 0xb30e
    1b0c:	550e1b0e 	strpl	r1, [lr, #-2830]	; 0xfffff4f2
    1b10:	10011117 	andne	r1, r1, r7, lsl r1
    1b14:	02000017 	andeq	r0, r0, #23, 0
    1b18:	0b0b0024 	bleq	2c1bb0 <__bss_end__+0x2b6c50>
    1b1c:	08030b3e 	stmdaeq	r3, {r1, r2, r3, r4, r5, r8, r9, fp}
    1b20:	16030000 	strne	r0, [r3], -r0
    1b24:	3a0e0300 	bcc	38272c <__bss_end__+0x3777cc>
    1b28:	390b3b0b 	stmdbcc	fp, {r0, r1, r3, r8, r9, fp, ip, sp}
    1b2c:	0013490b 	andseq	r4, r3, fp, lsl #18
    1b30:	00240400 	eoreq	r0, r4, r0, lsl #8
    1b34:	0b3e0b0b 	bleq	f84768 <__bss_end__+0xf79808>
    1b38:	00000e03 	andeq	r0, r0, r3, lsl #28
    1b3c:	49002605 	stmdbmi	r0, {r0, r2, r9, sl, sp}
    1b40:	06000013 			; <UNDEFINED> instruction: 0x06000013
    1b44:	19270115 	stmdbne	r7!, {r0, r2, r4, r8}
    1b48:	13011349 	movwne	r1, #4937	; 0x1349
    1b4c:	05070000 	streq	r0, [r7, #-0]
    1b50:	00134900 	andseq	r4, r3, r0, lsl #18
    1b54:	00340800 	eorseq	r0, r4, r0, lsl #16
    1b58:	0b3a0e03 	bleq	e8536c <__bss_end__+0xe7a40c>
    1b5c:	0b390b3b 	bleq	e44850 <__bss_end__+0xe398f0>
    1b60:	193f1349 	ldmdbne	pc!, {r0, r3, r6, r8, r9, ip}	; <UNPREDICTABLE>
    1b64:	0000193c 	andeq	r1, r0, ip, lsr r9
    1b68:	0b000f09 	bleq	5794 <__code_start__-0x286c>
    1b6c:	0013490b 	andseq	r4, r3, fp, lsl #18
    1b70:	012e0a00 			; <UNDEFINED> instruction: 0x012e0a00
    1b74:	0e03193f 			; <UNDEFINED> instruction: 0x0e03193f
    1b78:	0b3b0b3a 	bleq	ec4868 <__bss_end__+0xeb9908>
    1b7c:	19270b39 	stmdbne	r7!, {r0, r3, r4, r5, r8, r9, fp}
    1b80:	01111349 	tsteq	r1, r9, asr #6
    1b84:	18400612 	stmdane	r0, {r1, r4, r9, sl}^
    1b88:	01194297 			; <UNDEFINED> instruction: 0x01194297
    1b8c:	0b000013 	bleq	1be0 <__code_start__-0x6420>
    1b90:	08030005 	stmdaeq	r3, {r0, r2}
    1b94:	0b3b0b3a 	bleq	ec4884 <__bss_end__+0xeb9924>
    1b98:	13490b39 	movtne	r0, #39737	; 0x9b39
    1b9c:	42b71702 	adcsmi	r1, r7, #524288	; 0x80000
    1ba0:	0c000017 	stceq	0, cr0, [r0], {23}
    1ba4:	08030034 	stmdaeq	r3, {r2, r4, r5}
    1ba8:	0b3b0b3a 	bleq	ec4898 <__bss_end__+0xeb9938>
    1bac:	13490b39 	movtne	r0, #39737	; 0x9b39
    1bb0:	42b71702 	adcsmi	r1, r7, #524288	; 0x80000
    1bb4:	00000017 	andeq	r0, r0, r7, lsl r0
    1bb8:	25011101 	strcs	r1, [r1, #-257]	; 0xfffffeff
    1bbc:	030b130e 	movweq	r1, #45838	; 0xb30e
    1bc0:	110e1b0e 	tstne	lr, lr, lsl #22
    1bc4:	10061201 	andne	r1, r6, r1, lsl #4
    1bc8:	02000017 	andeq	r0, r0, #23, 0
    1bcc:	0b0b0024 	bleq	2c1c64 <__bss_end__+0x2b6d04>
    1bd0:	08030b3e 	stmdaeq	r3, {r1, r2, r3, r4, r5, r8, r9, fp}
    1bd4:	24030000 	strcs	r0, [r3], #-0
    1bd8:	3e0b0b00 	vmlacc.f64	d0, d11, d0
    1bdc:	000e030b 	andeq	r0, lr, fp, lsl #6
    1be0:	01150400 	tsteq	r5, r0, lsl #8
    1be4:	13491927 	movtne	r1, #39207	; 0x9927
    1be8:	00001301 	andeq	r1, r0, r1, lsl #6
    1bec:	49000505 	stmdbmi	r0, {r0, r2, r8, sl}
    1bf0:	06000013 			; <UNDEFINED> instruction: 0x06000013
    1bf4:	0e030034 	mcreq	0, 0, r0, cr3, cr4, {1}
    1bf8:	0b3b0b3a 	bleq	ec48e8 <__bss_end__+0xeb9988>
    1bfc:	13490b39 	movtne	r0, #39737	; 0x9b39
    1c00:	193c193f 	ldmdbne	ip!, {r0, r1, r2, r3, r4, r5, r8, fp, ip}
    1c04:	0f070000 	svceq	0x00070000
    1c08:	490b0b00 	stmdbmi	fp, {r8, r9, fp}
    1c0c:	08000013 	stmdaeq	r0, {r0, r1, r4}
    1c10:	13490026 	movtne	r0, #36902	; 0x9026
    1c14:	2e090000 	cdpcs	0, 0, cr0, cr9, cr0, {0}
    1c18:	03193f00 	tsteq	r9, #0, 30
    1c1c:	3b0b3a0e 	blcc	2d045c <__bss_end__+0x2c54fc>
    1c20:	270b390b 	strcs	r3, [fp, -fp, lsl #18]
    1c24:	12011119 	andne	r1, r1, #1073741830	; 0x40000006
    1c28:	97184006 	ldrls	r4, [r8, -r6]
    1c2c:	00001942 	andeq	r1, r0, r2, asr #18
    1c30:	01110100 	tsteq	r1, r0, lsl #2
    1c34:	0b130e25 	bleq	4c54d0 <__bss_end__+0x4ba570>
    1c38:	0e1b0e03 	cdpeq	14, 1, cr0, cr11, cr3, {0}
    1c3c:	06120111 			; <UNDEFINED> instruction: 0x06120111
    1c40:	00001710 	andeq	r1, r0, r0, lsl r7
    1c44:	0b002402 	bleq	ac54 <buf.3948+0xfc>
    1c48:	030b3e0b 	movweq	r3, #48651	; 0xbe0b
    1c4c:	03000008 	movweq	r0, #8
    1c50:	0b0b0024 	bleq	2c1ce8 <__bss_end__+0x2b6d88>
    1c54:	0e030b3e 	vmoveq.16	d3[0], r0
    1c58:	26040000 	strcs	r0, [r4], -r0
    1c5c:	00134900 	andseq	r4, r3, r0, lsl #18
    1c60:	00160500 	andseq	r0, r6, r0, lsl #10
    1c64:	0b3a0e03 	bleq	e85478 <__bss_end__+0xe7a518>
    1c68:	0b390b3b 	bleq	e4495c <__bss_end__+0xe399fc>
    1c6c:	00001349 	andeq	r1, r0, r9, asr #6
    1c70:	3e010406 	cdpcc	4, 0, cr0, cr1, cr6, {0}
    1c74:	490b0b0b 	stmdbmi	fp, {r0, r1, r3, r8, r9, fp}
    1c78:	3b0b3a13 	blcc	2d04cc <__bss_end__+0x2c556c>
    1c7c:	010b390b 	tsteq	fp, fp, lsl #18
    1c80:	07000013 	smladeq	r0, r3, r0, r0
    1c84:	0e030028 	cdpeq	0, 0, cr0, cr3, cr8, {1}
    1c88:	00000b1c 	andeq	r0, r0, ip, lsl fp
    1c8c:	03003408 	movweq	r3, #1032	; 0x408
    1c90:	3b0b3a0e 	blcc	2d04d0 <__bss_end__+0x2c5570>
    1c94:	490b390b 	stmdbmi	fp, {r0, r1, r3, r8, fp, ip, sp}
    1c98:	00061c13 	andeq	r1, r6, r3, lsl ip
    1c9c:	012e0900 			; <UNDEFINED> instruction: 0x012e0900
    1ca0:	0e03193f 			; <UNDEFINED> instruction: 0x0e03193f
    1ca4:	0b3b0b3a 	bleq	ec4994 <__bss_end__+0xeb9a34>
    1ca8:	19270b39 	stmdbne	r7!, {r0, r3, r4, r5, r8, r9, fp}
    1cac:	01111349 	tsteq	r1, r9, asr #6
    1cb0:	18400612 	stmdane	r0, {r1, r4, r9, sl}^
    1cb4:	01194297 			; <UNDEFINED> instruction: 0x01194297
    1cb8:	0a000013 	beq	1d0c <__code_start__-0x62f4>
    1cbc:	08030005 	stmdaeq	r3, {r0, r2}
    1cc0:	0b3b0b3a 	bleq	ec49b0 <__bss_end__+0xeb9a50>
    1cc4:	13490b39 	movtne	r0, #39737	; 0x9b39
    1cc8:	42b71702 	adcsmi	r1, r7, #524288	; 0x80000
    1ccc:	0b000017 	bleq	1d30 <__code_start__-0x62d0>
    1cd0:	0e030034 	mcreq	0, 0, r0, cr3, cr4, {1}
    1cd4:	0b3b0b3a 	bleq	ec49c4 <__bss_end__+0xeb9a64>
    1cd8:	13490b39 	movtne	r0, #39737	; 0x9b39
    1cdc:	42b71702 	adcsmi	r1, r7, #524288	; 0x80000
    1ce0:	0c000017 	stceq	0, cr0, [r0], {23}
    1ce4:	08030034 	stmdaeq	r3, {r2, r4, r5}
    1ce8:	0b3b0b3a 	bleq	ec49d8 <__bss_end__+0xeb9a78>
    1cec:	13490b39 	movtne	r0, #39737	; 0x9b39
    1cf0:	42b71702 	adcsmi	r1, r7, #524288	; 0x80000
    1cf4:	0d000017 	stceq	0, cr0, [r0, #-92]	; 0xffffffa4
    1cf8:	01018289 	smlabbeq	r1, r9, r2, r8
    1cfc:	13310111 	teqne	r1, #1073741828	; 0x40000004
    1d00:	8a0e0000 	bhi	381d08 <__bss_end__+0x376da8>
    1d04:	02000182 	andeq	r0, r0, #-2147483616	; 0x80000020
    1d08:	18429118 	stmdane	r2, {r3, r4, r8, ip, pc}^
    1d0c:	2e0f0000 	cdpcs	0, 0, cr0, cr15, cr0, {0}
    1d10:	03193f01 	tsteq	r9, #1, 30
    1d14:	3b0b3a0e 	blcc	2d0554 <__bss_end__+0x2c55f4>
    1d18:	270b390b 	strcs	r3, [fp, -fp, lsl #18]
    1d1c:	12011119 	andne	r1, r1, #1073741830	; 0x40000006
    1d20:	97184006 	ldrls	r4, [r8, -r6]
    1d24:	13011942 	movwne	r1, #6466	; 0x1942
    1d28:	89100000 	ldmdbhi	r0, {}	; <UNPREDICTABLE>
    1d2c:	11010182 	smlabbne	r1, r2, r1, r0
    1d30:	01133101 	tsteq	r3, r1, lsl #2
    1d34:	11000013 	tstne	r0, r3, lsl r0
    1d38:	00018289 	andeq	r8, r1, r9, lsl #5
    1d3c:	13310111 	teqne	r1, #1073741828	; 0x40000004
    1d40:	05120000 	ldreq	r0, [r2, #-0]
    1d44:	3a0e0300 	bcc	38294c <__bss_end__+0x3779ec>
    1d48:	390b3b0b 	stmdbcc	fp, {r0, r1, r3, r8, r9, fp, ip, sp}
    1d4c:	0213490b 	andseq	r4, r3, #180224	; 0x2c000
    1d50:	1742b717 	smlaldne	fp, r2, r7, r7
    1d54:	2e130000 	cdpcs	0, 1, cr0, cr3, cr0, {0}
    1d58:	3a0e0301 	bcc	382964 <__bss_end__+0x377a04>
    1d5c:	390b3b0b 	stmdbcc	fp, {r0, r1, r3, r8, r9, fp, ip, sp}
    1d60:	4919270b 	ldmdbmi	r9, {r0, r1, r3, r8, r9, sl, sp}
    1d64:	010b2013 	tsteq	fp, r3, lsl r0
    1d68:	14000013 	strne	r0, [r0], #-19	; 0xffffffed
    1d6c:	08030005 	stmdaeq	r3, {r0, r2}
    1d70:	0b3b0b3a 	bleq	ec4a60 <__bss_end__+0xeb9b00>
    1d74:	13490b39 	movtne	r0, #39737	; 0x9b39
    1d78:	2e150000 	cdpcs	0, 1, cr0, cr5, cr0, {0}
    1d7c:	3c193f00 	ldccc	15, cr3, [r9], {-0}
    1d80:	030e6e19 	movweq	r6, #60953	; 0xee19
    1d84:	3b0b3a0e 	blcc	2d05c4 <__bss_end__+0x2c5664>
    1d88:	000b390b 	andeq	r3, fp, fp, lsl #18
	...

Disassembly of section .debug_loc:

00000000 <.debug_loc>:
       0:	00000000 	andeq	r0, r0, r0
       4:	000000d8 	ldrdeq	r0, [r0], -r8
       8:	000000dc 	ldrdeq	r0, [r0], -ip
       c:	dc500001 	mrrcle	0, 0, r0, r0, cr1	; <UNPREDICTABLE>
      10:	df000000 	svcle	0x00000000
      14:	01000000 	mrseq	r0, (UNDEF: 0)
      18:	00005100 	andeq	r5, r0, r0, lsl #2
	...
      28:	00000124 	andeq	r0, r0, r4, lsr #2
      2c:	00000130 	andeq	r0, r0, r0, lsr r1
      30:	40500001 	subsmi	r0, r0, r1
      34:	54000001 	strpl	r0, [r0], #-1
      38:	01000001 	tsteq	r0, r1
      3c:	01545000 	cmpeq	r4, r0
      40:	01570000 	cmpeq	r7, r0
      44:	00020000 	andeq	r0, r2, r0
      48:	0000007d 	andeq	r0, r0, sp, ror r0
      4c:	00000000 	andeq	r0, r0, r0
      50:	00010000 	andeq	r0, r1, r0
      54:	00010100 	andeq	r0, r1, r0, lsl #2
      58:	00080000 	andeq	r0, r8, r0
      5c:	00100000 	andseq	r0, r0, r0
      60:	00020000 	andeq	r0, r2, r0
      64:	00109f30 	andseq	r9, r0, r0, lsr pc
      68:	008c0000 	addeq	r0, ip, r0
      6c:	00010000 	andeq	r0, r1, r0
      70:	00008c55 	andeq	r8, r0, r5, asr ip
      74:	00009800 	andeq	r9, r0, r0, lsl #16
      78:	54000100 	strpl	r0, [r0], #-256	; 0xffffff00
      7c:	00000098 	muleq	r0, r8, r0
      80:	000000cc 	andeq	r0, r0, ip, asr #1
      84:	00550001 	subseq	r0, r5, r1
      88:	00000000 	andeq	r0, r0, r0
      8c:	03000000 	movweq	r0, #0
      90:	08000000 	stmdaeq	r0, {}	; <UNPREDICTABLE>
      94:	10000000 	andne	r0, r0, r0
      98:	02000000 	andeq	r0, r0, #0, 0
      9c:	109f3000 	addsne	r3, pc, r0
      a0:	cc000000 	stcgt	0, cr0, [r0], {-0}
      a4:	01000000 	mrseq	r0, (UNDEF: 0)
      a8:	00005600 	andeq	r5, r0, r0, lsl #12
	...
      b4:	005c0000 	subseq	r0, ip, r0
      b8:	00670000 	rsbeq	r0, r7, r0
      bc:	00010000 	andeq	r0, r1, r0
      c0:	00006750 	andeq	r6, r0, r0, asr r7
      c4:	0000cc00 	andeq	ip, r0, r0, lsl #24
      c8:	54000100 	strpl	r0, [r0], #-256	; 0xffffff00
	...
      d4:	00300001 	eorseq	r0, r0, r1
      d8:	00480000 	subeq	r0, r8, r0
      dc:	00020000 	andeq	r0, r2, r0
      e0:	00009f44 	andeq	r9, r0, r4, asr #30
      e4:	00000000 	andeq	r0, r0, r0
      e8:	00010000 	andeq	r0, r1, r0
      ec:	00000030 	andeq	r0, r0, r0, lsr r0
      f0:	00000048 	andeq	r0, r0, r8, asr #32
      f4:	8bf20006 	blhi	ffc80114 <__bss_end__+0xffc751b4>
      f8:	00000005 	andeq	r0, r0, r5
	...
     104:	00300001 	eorseq	r0, r0, r1
     108:	00480000 	subeq	r0, r8, r0
     10c:	00060000 	andeq	r0, r6, r0
     110:	00a07003 	adceq	r7, r0, r3
     114:	00009f00 	andeq	r9, r0, r0, lsl #30
	...
     124:	00000450 	andeq	r0, r0, r0, asr r4
     128:	00000468 	andeq	r0, r0, r8, ror #8
     12c:	68500001 	ldmdavs	r0, {r0}^
     130:	1c000004 	stcne	0, cr0, [r0], {4}
     134:	01000005 	tsteq	r0, r5
     138:	051c5600 	ldreq	r5, [ip, #-1536]	; 0xfffffa00
     13c:	052c0000 	streq	r0, [ip, #-0]!
     140:	00040000 	andeq	r0, r4, r0
     144:	9f5001f3 	svcls	0x005001f3
	...
     154:	04700000 	ldrbteq	r0, [r0], #-0
     158:	047b0000 	ldrbteq	r0, [fp], #-0
     15c:	00010000 	andeq	r0, r1, r0
     160:	00047b50 	andeq	r7, r4, r0, asr fp
     164:	00051c00 	andeq	r1, r5, r0, lsl #24
     168:	54000100 	strpl	r0, [r0], #-256	; 0xffffff00
     16c:	0000051c 	andeq	r0, r0, ip, lsl r5
     170:	0000052c 	andeq	r0, r0, ip, lsr #10
     174:	d8700004 	ldmdale	r0!, {r2}^
     178:	00009f7e 	andeq	r9, r0, lr, ror pc
     17c:	00000000 	andeq	r0, r0, r0
     180:	00010000 	andeq	r0, r1, r0
     184:	000004b0 			; <UNDEFINED> instruction: 0x000004b0
     188:	000004b8 			; <UNDEFINED> instruction: 0x000004b8
     18c:	00540001 	subseq	r0, r4, r1
	...
     198:	e0000000 	and	r0, r0, r0
     19c:	f0000002 			; <UNDEFINED> instruction: 0xf0000002
     1a0:	01000002 	tsteq	r0, r2
     1a4:	02f05000 	rscseq	r5, r0, #0, 0
     1a8:	04500000 	ldrbeq	r0, [r0], #-0
     1ac:	00010000 	andeq	r0, r1, r0
     1b0:	00000054 	andeq	r0, r0, r4, asr r0
     1b4:	00000000 	andeq	r0, r0, r0
     1b8:	00000100 	andeq	r0, r0, r0, lsl #2
     1bc:	00000000 	andeq	r0, r0, r0
     1c0:	0002f400 	andeq	pc, r2, r0, lsl #8
     1c4:	00030400 	andeq	r0, r3, r0, lsl #8
     1c8:	74000400 	strvc	r0, [r0], #-1024	; 0xfffffc00
     1cc:	049f7ed8 	ldreq	r7, [pc], #3800	; 1d4 <__code_start__-0x7e2c>
     1d0:	64000003 	strvs	r0, [r0], #-3
     1d4:	01000003 	tsteq	r0, r3
     1d8:	03645500 	cmneq	r4, #0, 10
     1dc:	03880000 	orreq	r0, r8, #0, 0
     1e0:	00040000 	andeq	r0, r4, r0
     1e4:	9f7ed874 	svcls	0x007ed874
     1e8:	00000388 	andeq	r0, r0, r8, lsl #7
     1ec:	00000450 	andeq	r0, r0, r0, asr r4
     1f0:	00550001 	subseq	r0, r5, r1
     1f4:	00000000 	andeq	r0, r0, r0
     1f8:	03000000 	movweq	r0, #0
     1fc:	00000000 	andeq	r0, r0, r0
     200:	00034000 	andeq	r4, r3, r0
     204:	00034400 	andeq	r4, r3, r0, lsl #8
     208:	30000200 	andcc	r0, r0, r0, lsl #4
     20c:	0003449f 	muleq	r3, pc, r4	; <UNPREDICTABLE>
     210:	00036400 	andeq	r6, r3, r0, lsl #8
     214:	53000100 	movwpl	r0, #256	; 0x100
     218:	000003a8 	andeq	r0, r0, r8, lsr #7
     21c:	000003b3 			; <UNDEFINED> instruction: 0x000003b3
     220:	00530001 	subseq	r0, r3, r1
	...
     22c:	54000000 	strpl	r0, [r0], #-0
     230:	60000002 	andvs	r0, r0, r2
     234:	01000002 	tsteq	r0, r2
     238:	02605000 	rsbeq	r5, r0, #0, 0
     23c:	02d40000 	sbcseq	r0, r4, #0, 0
     240:	00010000 	andeq	r0, r1, r0
     244:	00000054 	andeq	r0, r0, r4, asr r0
	...
     250:	00026800 	andeq	r6, r2, r0, lsl #16
     254:	00027000 	andeq	r7, r2, r0
     258:	50000100 	andpl	r0, r0, r0, lsl #2
     25c:	00000270 	andeq	r0, r0, r0, ror r2
     260:	000002d4 	ldrdeq	r0, [r0], -r4
     264:	00560001 	subseq	r0, r6, r1
     268:	00000000 	andeq	r0, r0, r0
     26c:	01000000 	mrseq	r0, (UNDEF: 0)
     270:	00000000 	andeq	r0, r0, r0
     274:	00026800 	andeq	r6, r2, r0, lsl #16
     278:	00027000 	andeq	r7, r2, r0
     27c:	30000200 	andcc	r0, r0, r0, lsl #4
     280:	0002709f 	muleq	r2, pc, r0	; <UNPREDICTABLE>
     284:	0002d400 	andeq	sp, r2, r0, lsl #8
     288:	55000100 	strpl	r0, [r0, #-256]	; 0xffffff00
     28c:	000002d4 	ldrdeq	r0, [r0], -r4
     290:	000002e0 	andeq	r0, r0, r0, ror #5
     294:	00500001 	subseq	r0, r0, r1
	...
     2a8:	f0000000 			; <UNDEFINED> instruction: 0xf0000000
     2ac:	28000001 	stmdacs	r0, {r0}
     2b0:	01000002 	tsteq	r0, r2
     2b4:	02285000 	eoreq	r5, r8, #0, 0
     2b8:	022c0000 	eoreq	r0, ip, #0, 0
     2bc:	00040000 	andeq	r0, r4, r0
     2c0:	9f5001f3 	svcls	0x005001f3
     2c4:	0000022c 	andeq	r0, r0, ip, lsr #4
     2c8:	00000230 	andeq	r0, r0, r0, lsr r2
     2cc:	30500001 	subscc	r0, r0, r1
     2d0:	34000002 	strcc	r0, [r0], #-2
     2d4:	04000002 	streq	r0, [r0], #-2
     2d8:	5001f300 	andpl	pc, r1, r0, lsl #6
     2dc:	0002349f 	muleq	r2, pc, r4	; <UNPREDICTABLE>
     2e0:	00023800 	andeq	r3, r2, r0, lsl #16
     2e4:	50000100 	andpl	r0, r0, r0, lsl #2
     2e8:	00000238 	andeq	r0, r0, r8, lsr r2
     2ec:	0000023c 	andeq	r0, r0, ip, lsr r2
     2f0:	01f30004 	mvnseq	r0, r4
     2f4:	00009f50 	andeq	r9, r0, r0, asr pc
	...
     300:	02000000 	andeq	r0, r0, #0, 0
     304:	022c0000 	eoreq	r0, ip, #0, 0
     308:	00010000 	andeq	r0, r1, r0
     30c:	00023453 	andeq	r3, r2, r3, asr r4
     310:	00023c00 	andeq	r3, r2, r0, lsl #24
     314:	53000100 	movwpl	r0, #256	; 0x100
	...
     324:	01a80000 			; <UNDEFINED> instruction: 0x01a80000
     328:	01b70000 			; <UNDEFINED> instruction: 0x01b70000
     32c:	00010000 	andeq	r0, r1, r0
     330:	0001b750 	andeq	fp, r1, r0, asr r7
     334:	0001d000 	andeq	sp, r1, r0
     338:	55000100 	strpl	r0, [r0, #-256]	; 0xffffff00
     33c:	000001d0 	ldrdeq	r0, [r0], -r0	; <UNPREDICTABLE>
     340:	000001f0 	strdeq	r0, [r0], -r0	; <UNPREDICTABLE>
     344:	01f30004 	mvnseq	r0, r4
     348:	00009f50 	andeq	r9, r0, r0, asr pc
	...
     354:	01a80000 			; <UNDEFINED> instruction: 0x01a80000
     358:	01b70000 			; <UNDEFINED> instruction: 0x01b70000
     35c:	00010000 	andeq	r0, r1, r0
     360:	0001b751 	andeq	fp, r1, r1, asr r7
     364:	0001f000 	andeq	pc, r1, r0
     368:	54000100 	strpl	r0, [r0], #-256	; 0xffffff00
	...
     378:	000001bc 			; <UNDEFINED> instruction: 0x000001bc
     37c:	000001c8 	andeq	r0, r0, r8, asr #3
     380:	c8500001 	ldmdagt	r0, {r0}^
     384:	f0000001 			; <UNDEFINED> instruction: 0xf0000001
     388:	01000001 	tsteq	r0, r1
     38c:	00005600 	andeq	r5, r0, r0, lsl #12
	...
     398:	01d00000 	bicseq	r0, r0, r0
     39c:	01dc0000 	bicseq	r0, ip, r0
     3a0:	00010000 	andeq	r0, r1, r0
     3a4:	0001dc50 	andeq	sp, r1, r0, asr ip
     3a8:	0001f000 	andeq	pc, r1, r0
     3ac:	55000100 	strpl	r0, [r0, #-256]	; 0xffffff00
	...
     3b8:	01e00000 	mvneq	r0, r0
     3bc:	01e80000 	mvneq	r0, r0
     3c0:	00010000 	andeq	r0, r1, r0
     3c4:	00000050 	andeq	r0, r0, r0, asr r0
     3c8:	00000000 	andeq	r0, r0, r0
     3cc:	00000100 	andeq	r0, r0, r0, lsl #2
     3d0:	0001b400 	andeq	fp, r1, r0, lsl #8
     3d4:	0001b700 	andeq	fp, r1, r0, lsl #14
     3d8:	50000100 	andpl	r0, r0, r0, lsl #2
     3dc:	000001b7 			; <UNDEFINED> instruction: 0x000001b7
     3e0:	000001bc 			; <UNDEFINED> instruction: 0x000001bc
     3e4:	00550001 	subseq	r0, r5, r1
	...
     3f0:	44000000 	strmi	r0, [r0], #-0
     3f4:	4f000001 	svcmi	0x00000001
     3f8:	01000001 	tsteq	r0, r1
     3fc:	014f5000 	mrseq	r5, SPSR
     400:	01a80000 			; <UNDEFINED> instruction: 0x01a80000
     404:	00010000 	andeq	r0, r1, r0
     408:	00000055 	andeq	r0, r0, r5, asr r0
	...
     418:	00015400 	andeq	r5, r1, r0, lsl #8
     41c:	00015800 	andeq	r5, r1, r0, lsl #16
     420:	50000100 	andpl	r0, r0, r0, lsl #2
     424:	00000158 	andeq	r0, r0, r8, asr r1
     428:	00000164 	andeq	r0, r0, r4, ror #2
     42c:	64540001 	ldrbvs	r0, [r4], #-1
     430:	77000001 	strvc	r0, [r0, -r1]
     434:	01000001 	tsteq	r0, r1
     438:	01775000 	cmneq	r7, r0
     43c:	01a80000 			; <UNDEFINED> instruction: 0x01a80000
     440:	00010000 	andeq	r0, r1, r0
     444:	00000054 	andeq	r0, r0, r4, asr r0
	...
     450:	0000ec00 	andeq	lr, r0, r0, lsl #24
     454:	0000f700 	andeq	pc, r0, r0, lsl #14
     458:	50000100 	andpl	r0, r0, r0, lsl #2
     45c:	000000f7 	strdeq	r0, [r0], -r7
     460:	00000144 	andeq	r0, r0, r4, asr #2
     464:	00550001 	subseq	r0, r5, r1
	...
     474:	fc000000 	stc2	0, cr0, [r0], {-0}
     478:	0f000000 	svceq	0x00000000
     47c:	01000001 	tsteq	r0, r1
     480:	010f5000 	mrseq	r5, CPSR
     484:	01240000 			; <UNDEFINED> instruction: 0x01240000
     488:	00010000 	andeq	r0, r1, r0
     48c:	00012454 	andeq	r2, r1, r4, asr r4
     490:	00012800 	andeq	r2, r1, r0, lsl #16
     494:	50000100 	andpl	r0, r0, r0, lsl #2
     498:	00000128 	andeq	r0, r0, r8, lsr #2
     49c:	00000144 	andeq	r0, r0, r4, asr #2
     4a0:	00540001 	subseq	r0, r4, r1
	...
     4b4:	0000b400 	andeq	fp, r0, r0, lsl #8
     4b8:	0000cc00 	andeq	ip, r0, r0, lsl #24
     4bc:	50000100 	andpl	r0, r0, r0, lsl #2
     4c0:	000000cc 	andeq	r0, r0, ip, asr #1
     4c4:	000000d8 	ldrdeq	r0, [r0], -r8
     4c8:	d8700004 	ldmdale	r0!, {r2}^
     4cc:	00d89f7e 	sbcseq	r9, r8, lr, ror pc
     4d0:	00dc0000 	sbcseq	r0, ip, r0
     4d4:	00040000 	andeq	r0, r4, r0
     4d8:	9f5001f3 	svcls	0x005001f3
     4dc:	000000dc 	ldrdeq	r0, [r0], -ip
     4e0:	000000e0 	andeq	r0, r0, r0, ror #1
     4e4:	e0500001 	subs	r0, r0, r1
     4e8:	ec000000 	stc	0, cr0, [r0], {-0}
     4ec:	04000000 	streq	r0, [r0], #-0
     4f0:	5001f300 	andpl	pc, r1, r0, lsl #6
     4f4:	0000009f 	muleq	r0, pc, r0	; <UNPREDICTABLE>
	...
     500:	00009c00 	andeq	r9, r0, r0, lsl #24
     504:	0000a700 	andeq	sl, r0, r0, lsl #14
     508:	50000100 	andpl	r0, r0, r0, lsl #2
     50c:	000000a7 	andeq	r0, r0, r7, lsr #1
     510:	000000b4 	strheq	r0, [r0], -r4
     514:	00540001 	subseq	r0, r4, r1
	...
     520:	0000a800 	andeq	sl, r0, r0, lsl #16
     524:	0000ac00 	andeq	sl, r0, r0, lsl #24
     528:	54000100 	strpl	r0, [r0], #-256	; 0xffffff00
	...
     538:	00000094 	muleq	r0, r4, r0
     53c:	00000098 	muleq	r0, r8, r0
     540:	98500001 	ldmdals	r0, {r0}^
     544:	9c000000 	stcls	0, cr0, [r0], {-0}
     548:	04000000 	streq	r0, [r0], #-0
     54c:	7ed87000 	cdpvc	0, 13, cr7, cr8, cr0, {0}
     550:	0000009f 	muleq	r0, pc, r0	; <UNPREDICTABLE>
	...
     55c:	00008400 	andeq	r8, r0, r0, lsl #8
     560:	00009000 	andeq	r9, r0, r0
     564:	50000100 	andpl	r0, r0, r0, lsl #2
     568:	00000090 	muleq	r0, r0, r0
     56c:	00000094 	muleq	r0, r4, r0
     570:	01f30004 	mvnseq	r0, r4
     574:	00009f50 	andeq	r9, r0, r0, asr pc
	...
     584:	00580000 	subseq	r0, r8, r0
     588:	00010000 	andeq	r0, r1, r0
     58c:	00005850 	andeq	r5, r0, r0, asr r8
     590:	00007400 	andeq	r7, r0, r0, lsl #8
     594:	f3000400 	vshl.u8	d0, d0, d0
     598:	009f5001 	addseq	r5, pc, r1
	...
     5a8:	54000000 	strpl	r0, [r0], #-0
     5ac:	01000000 	mrseq	r0, (UNDEF: 0)
     5b0:	00545100 	subseq	r5, r4, r0, lsl #2
     5b4:	00740000 	rsbseq	r0, r4, r0
     5b8:	00040000 	andeq	r0, r4, r0
     5bc:	9f5101f3 	svcls	0x005101f3
	...
     5c8:	00180003 	andseq	r0, r8, r3
     5cc:	00280000 	eoreq	r0, r8, r0
     5d0:	00010000 	andeq	r0, r1, r0
     5d4:	00000053 	andeq	r0, r0, r3, asr r0
     5d8:	00000000 	andeq	r0, r0, r0
     5dc:	c8000000 	stmdagt	r0, {}	; <UNPREDICTABLE>
     5e0:	cc000005 	stcgt	0, cr0, [r0], {5}
     5e4:	01000005 	tsteq	r0, r5
     5e8:	00005000 	andeq	r5, r0, r0
     5ec:	00000000 	andeq	r0, r0, r0
     5f0:	00010000 	andeq	r0, r1, r0
     5f4:	01bc0000 			; <UNDEFINED> instruction: 0x01bc0000
     5f8:	01e40000 	mvneq	r0, r0
     5fc:	00020000 	andeq	r0, r2, r0
     600:	01e49f30 	mvneq	r9, r0, lsr pc
     604:	02680000 	rsbeq	r0, r8, #0, 0
     608:	00010000 	andeq	r0, r1, r0
     60c:	00000055 	andeq	r0, r0, r5, asr r0
     610:	00000000 	andeq	r0, r0, r0
     614:	00000100 	andeq	r0, r0, r0, lsl #2
     618:	0001bc00 	andeq	fp, r1, r0, lsl #24
     61c:	0001e400 	andeq	lr, r1, r0, lsl #8
     620:	30000200 	andcc	r0, r0, r0, lsl #4
     624:	0001e49f 	muleq	r1, pc, r4	; <UNPREDICTABLE>
     628:	00026800 	andeq	r6, r2, r0, lsl #16
     62c:	57000100 	strpl	r0, [r0, -r0, lsl #2]
	...
     638:	00000001 	andeq	r0, r0, r1
     63c:	000001bc 			; <UNDEFINED> instruction: 0x000001bc
     640:	000001e4 	andeq	r0, r0, r4, ror #3
     644:	9f300002 	svcls	0x00300002
     648:	000001e4 	andeq	r0, r0, r4, ror #3
     64c:	00000268 	andeq	r0, r0, r8, ror #4
     650:	00560001 	subseq	r0, r6, r1
	...
     660:	d4000000 	strle	r0, [r0], #-0
     664:	04000001 	streq	r0, [r0], #-1
     668:	01000002 	tsteq	r0, r2
     66c:	02045000 	andeq	r5, r4, #0, 0
     670:	02140000 	andseq	r0, r4, #0, 0
     674:	00010000 	andeq	r0, r1, r0
     678:	00021454 	andeq	r1, r2, r4, asr r4
     67c:	00024c00 	andeq	r4, r2, r0, lsl #24
     680:	50000100 	andpl	r0, r0, r0, lsl #2
     684:	0000024c 	andeq	r0, r0, ip, asr #4
     688:	00000268 	andeq	r0, r0, r8, ror #4
     68c:	00540001 	subseq	r0, r4, r1
	...
     69c:	00057800 	andeq	r7, r5, r0, lsl #16
     6a0:	00058800 	andeq	r8, r5, r0, lsl #16
     6a4:	50000100 	andpl	r0, r0, r0, lsl #2
     6a8:	00000588 	andeq	r0, r0, r8, lsl #11
     6ac:	0000058b 	andeq	r0, r0, fp, lsl #11
     6b0:	8b510001 	blhi	14406bc <__bss_end__+0x143575c>
     6b4:	bc000005 	stclt	0, cr0, [r0], {5}
     6b8:	01000005 	tsteq	r0, r5
     6bc:	00005400 	andeq	r5, r0, r0, lsl #8
	...
     6c8:	04f40000 	ldrbteq	r0, [r4], #0
     6cc:	05000000 	streq	r0, [r0, #-0]
     6d0:	00010000 	andeq	r0, r1, r0
     6d4:	00050050 	andeq	r0, r5, r0, asr r0
     6d8:	00052400 	andeq	r2, r5, r0, lsl #8
     6dc:	54000100 	strpl	r0, [r0], #-256	; 0xffffff00
	...
     6ec:	000003d4 	ldrdeq	r0, [r0], -r4
     6f0:	000003ef 	andeq	r0, r0, pc, ror #7
     6f4:	f0500001 			; <UNDEFINED> instruction: 0xf0500001
     6f8:	f8000003 			; <UNDEFINED> instruction: 0xf8000003
     6fc:	01000003 	tsteq	r0, r3
     700:	00005000 	andeq	r5, r0, r0
	...
     70c:	003c0000 	eorseq	r0, ip, r0
     710:	00480000 	subeq	r0, r8, r0
     714:	00010000 	andeq	r0, r1, r0
     718:	00004850 	andeq	r4, r0, r0, asr r8
     71c:	0001b800 	andeq	fp, r1, r0, lsl #16
     720:	56000100 	strpl	r0, [r0], -r0, lsl #2
	...
     72c:	00000001 	andeq	r0, r0, r1
     730:	00000044 	andeq	r0, r0, r4, asr #32
     734:	0000006c 	andeq	r0, r0, ip, rrx
     738:	9f300002 	svcls	0x00300002
     73c:	0000006c 	andeq	r0, r0, ip, rrx
     740:	000001b8 			; <UNDEFINED> instruction: 0x000001b8
     744:	00550001 	subseq	r0, r5, r1
     748:	00000000 	andeq	r0, r0, r0
     74c:	01000000 	mrseq	r0, (UNDEF: 0)
     750:	44000000 	strmi	r0, [r0], #-0
     754:	6c000000 	stcvs	0, cr0, [r0], {-0}
     758:	02000000 	andeq	r0, r0, #0, 0
     75c:	6c9f3000 	ldcvs	0, cr3, [pc], {0}
     760:	b8000000 	stmdalt	r0, {}	; <UNPREDICTABLE>
     764:	01000001 	tsteq	r0, r1
     768:	00005800 	andeq	r5, r0, r0, lsl #16
     76c:	00000000 	andeq	r0, r0, r0
     770:	00010000 	andeq	r0, r1, r0
     774:	00440000 	subeq	r0, r4, r0
     778:	006c0000 	rsbeq	r0, ip, r0
     77c:	00020000 	andeq	r0, r2, r0
     780:	006c9f30 	rsbeq	r9, ip, r0, lsr pc
     784:	01b80000 			; <UNDEFINED> instruction: 0x01b80000
     788:	00010000 	andeq	r0, r1, r0
     78c:	00000057 	andeq	r0, r0, r7, asr r0
	...
     7a4:	00005c00 	andeq	r5, r0, r0, lsl #24
     7a8:	00007000 	andeq	r7, r0, r0
     7ac:	50000100 	andpl	r0, r0, r0, lsl #2
     7b0:	00000070 	andeq	r0, r0, r0, ror r0
     7b4:	000000b0 	strheq	r0, [r0], -r0	; <UNPREDICTABLE>
     7b8:	b0540001 	subslt	r0, r4, r1
     7bc:	b4000000 	strlt	r0, [r0], #-0
     7c0:	01000000 	mrseq	r0, (UNDEF: 0)
     7c4:	00b45000 	adcseq	r5, r4, r0
     7c8:	01180000 	tsteq	r8, r0
     7cc:	00010000 	andeq	r0, r1, r0
     7d0:	00011854 	andeq	r1, r1, r4, asr r8
     7d4:	00014c00 	andeq	r4, r1, r0, lsl #24
     7d8:	50000100 	andpl	r0, r0, r0, lsl #2
     7dc:	0000014c 	andeq	r0, r0, ip, asr #2
     7e0:	00000150 	andeq	r0, r0, r0, asr r1
     7e4:	50540001 	subspl	r0, r4, r1
     7e8:	58000001 	stmdapl	r0, {r0}
     7ec:	01000001 	tsteq	r0, r1
     7f0:	01585000 	cmpeq	r8, r0
     7f4:	01b80000 			; <UNDEFINED> instruction: 0x01b80000
     7f8:	00010000 	andeq	r0, r1, r0
     7fc:	00000054 	andeq	r0, r0, r4, asr r0
	...
     80c:	00006c00 	andeq	r6, r0, r0, lsl #24
     810:	00008c00 	andeq	r8, r0, r0, lsl #24
     814:	73000600 	movwvc	r0, #1536	; 0x600
     818:	1aff0800 	bne	fffc2820 <__bss_end__+0xfffb78c0>
     81c:	0000b09f 	muleq	r0, pc, r0	; <UNPREDICTABLE>
     820:	0000c800 	andeq	ip, r0, r0, lsl #16
     824:	73000600 	movwvc	r0, #1536	; 0x600
     828:	1aff0800 	bne	fffc2830 <__bss_end__+0xfffb78d0>
     82c:	0000e49f 	muleq	r0, pc, r4	; <UNPREDICTABLE>
     830:	0000e800 	andeq	lr, r0, r0, lsl #16
     834:	73000600 	movwvc	r0, #1536	; 0x600
     838:	1aff0800 	bne	fffc2840 <__bss_end__+0xfffb78e0>
     83c:	0001349f 	muleq	r1, pc, r4	; <UNPREDICTABLE>
     840:	00015000 	andeq	r5, r1, r0
     844:	73000600 	movwvc	r0, #1536	; 0x600
     848:	1aff0800 	bne	fffc2850 <__bss_end__+0xfffb78f0>
     84c:	0000009f 	muleq	r0, pc, r0	; <UNPREDICTABLE>
	...
     858:	70000000 	andvc	r0, r0, r0
     85c:	a4000000 	strge	r0, [r0], #-0
     860:	01000000 	mrseq	r0, (UNDEF: 0)
     864:	00b85000 	adcseq	r5, r8, r0
     868:	00d00000 	sbcseq	r0, r0, r0
     86c:	00010000 	andeq	r0, r1, r0
     870:	0000e450 	andeq	lr, r0, r0, asr r4
     874:	0000f000 	andeq	pc, r0, r0
     878:	50000100 	andpl	r0, r0, r0, lsl #2
	...
     890:	02900000 	addseq	r0, r0, #0, 0
     894:	02d80000 	sbcseq	r0, r8, #0, 0
     898:	00010000 	andeq	r0, r1, r0
     89c:	0002d850 	andeq	sp, r2, r0, asr r8
     8a0:	0002e000 	andeq	lr, r2, r0
     8a4:	f3000400 	vshl.u8	d0, d0, d0
     8a8:	e09f5001 	adds	r5, pc, r1
     8ac:	f8000002 			; <UNDEFINED> instruction: 0xf8000002
     8b0:	01000002 	tsteq	r0, r2
     8b4:	02f85000 	rscseq	r5, r8, #0, 0
     8b8:	03000000 	movweq	r0, #0
     8bc:	00010000 	andeq	r0, r1, r0
     8c0:	00030056 	andeq	r0, r3, r6, asr r0
     8c4:	00031800 	andeq	r1, r3, r0, lsl #16
     8c8:	50000100 	andpl	r0, r0, r0, lsl #2
     8cc:	00000318 	andeq	r0, r0, r8, lsl r3
     8d0:	000003b0 			; <UNDEFINED> instruction: 0x000003b0
     8d4:	b0560001 	subslt	r0, r6, r1
     8d8:	c8000003 	stmdagt	r0, {r0, r1}
     8dc:	04000003 	streq	r0, [r0], #-3
     8e0:	5001f300 	andpl	pc, r1, r0, lsl #6
     8e4:	0000009f 	muleq	r0, pc, r0	; <UNPREDICTABLE>
	...
     8fc:	00029000 	andeq	r9, r2, r0
     900:	0002b800 	andeq	fp, r2, r0, lsl #16
     904:	51000100 	mrspl	r0, (UNDEF: 16)
     908:	000002b8 			; <UNDEFINED> instruction: 0x000002b8
     90c:	000002c0 	andeq	r0, r0, r0, asr #5
     910:	01f30004 	mvnseq	r0, r4
     914:	02c09f51 	sbceq	r9, r0, #324	; 0x144
     918:	02d40000 	sbcseq	r0, r4, #0, 0
     91c:	00010000 	andeq	r0, r1, r0
     920:	0002d451 	andeq	sp, r2, r1, asr r4
     924:	0002e000 	andeq	lr, r2, r0
     928:	f3000400 	vshl.u8	d0, d0, d0
     92c:	e09f5101 	adds	r5, pc, r1, lsl #2
     930:	f4000002 	vst4.8	{d0-d3}, [r0], r2
     934:	01000002 	tsteq	r0, r2
     938:	02f45100 	rscseq	r5, r4, #0
     93c:	03000000 	movweq	r0, #0
     940:	00040000 	andeq	r0, r4, r0
     944:	9f5101f3 	svcls	0x005101f3
     948:	00000300 	andeq	r0, r0, r0, lsl #6
     94c:	00000314 	andeq	r0, r0, r4, lsl r3
     950:	14510001 	ldrbne	r0, [r1], #-1
     954:	c8000003 	stmdagt	r0, {r0, r1}
     958:	04000003 	streq	r0, [r0], #-3
     95c:	5101f300 	mrspl	pc, SP_irq	; <UNPREDICTABLE>
     960:	0000009f 	muleq	r0, pc, r0	; <UNPREDICTABLE>
	...
     96c:	bc000000 	stclt	0, cr0, [r0], {-0}
     970:	c0000002 	andgt	r0, r0, r2
     974:	01000002 	tsteq	r0, r2
     978:	03205500 	nopeq	{0}	; <UNPREDICTABLE>
     97c:	03b00000 	movseq	r0, #0, 0
     980:	00010000 	andeq	r0, r1, r0
     984:	0003b055 	andeq	fp, r3, r5, asr r0
     988:	0003c800 	andeq	ip, r3, r0, lsl #16
     98c:	f3000a00 	vpmax.u8	d0, d0, d0
     990:	01f35101 	mvnseq	r5, r1, lsl #2
     994:	26321c50 			; <UNDEFINED> instruction: 0x26321c50
     998:	0000009f 	muleq	r0, pc, r0	; <UNPREDICTABLE>
     99c:	00000000 	andeq	r0, r0, r0
     9a0:	00000200 	andeq	r0, r0, r0, lsl #4
     9a4:	0002bc00 	andeq	fp, r2, r0, lsl #24
     9a8:	0002c000 	andeq	ip, r2, r0
     9ac:	30000200 	andcc	r0, r0, r0, lsl #4
     9b0:	0003209f 	muleq	r3, pc, r0	; <UNPREDICTABLE>
     9b4:	0003b000 	andeq	fp, r3, r0
     9b8:	54000100 	strpl	r0, [r0], #-256	; 0xffffff00
	...
     9c8:	03200000 	nopeq	{0}	; <UNPREDICTABLE>
     9cc:	03370000 	teqeq	r7, #0, 0
     9d0:	00010000 	andeq	r0, r1, r0
     9d4:	00035053 	andeq	r5, r3, r3, asr r0
     9d8:	00037000 	andeq	r7, r3, r0
     9dc:	50000100 	andpl	r0, r0, r0, lsl #2
     9e0:	00000370 	andeq	r0, r0, r0, ror r3
     9e4:	000003a8 	andeq	r0, r0, r8, lsr #7
     9e8:	00530001 	subseq	r0, r3, r1
     9ec:	00000000 	andeq	r0, r0, r0
     9f0:	01000000 	mrseq	r0, (UNDEF: 0)
     9f4:	00032c00 	andeq	r2, r3, r0, lsl #24
     9f8:	00033700 	andeq	r3, r3, r0, lsl #14
     9fc:	50000100 	andpl	r0, r0, r0, lsl #2
	...
     a0c:	00000330 	andeq	r0, r0, r0, lsr r3
     a10:	00000334 	andeq	r0, r0, r4, lsr r3
     a14:	00700006 	rsbseq	r0, r0, r6
     a18:	9f220071 	svcls	0x00220071
     a1c:	00000334 	andeq	r0, r0, r4, lsr r3
     a20:	00000337 	andeq	r0, r0, r7, lsr r3
     a24:	00510001 	subseq	r0, r1, r1
	...
     a30:	68000000 	stmdavs	r0, {}	; <UNPREDICTABLE>
     a34:	73000002 	movwvc	r0, #2
     a38:	01000002 	tsteq	r0, r2
     a3c:	02735000 	rsbseq	r5, r3, #0, 0
     a40:	02900000 	addseq	r0, r0, #0, 0
     a44:	00010000 	andeq	r0, r1, r0
     a48:	00000054 	andeq	r0, r0, r4, asr r0
     a4c:	00000000 	andeq	r0, r0, r0
     a50:	00000100 	andeq	r0, r0, r0, lsl #2
     a54:	00027000 	andeq	r7, r2, r0
     a58:	00027300 	andeq	r7, r2, r0, lsl #6
     a5c:	50000100 	andpl	r0, r0, r0, lsl #2
     a60:	00000273 	andeq	r0, r0, r3, ror r2
     a64:	00000290 	muleq	r0, r0, r2
     a68:	00540001 	subseq	r0, r4, r1
	...
     a80:	24000000 	strcs	r0, [r0], #-0
     a84:	01000000 	mrseq	r0, (UNDEF: 0)
     a88:	00245000 	eoreq	r5, r4, r0
     a8c:	00280000 	eoreq	r0, r8, r0
     a90:	00040000 	andeq	r0, r4, r0
     a94:	9f5001f3 	svcls	0x005001f3
     a98:	00000028 	andeq	r0, r0, r8, lsr #32
     a9c:	0000002c 	andeq	r0, r0, ip, lsr #32
     aa0:	2c500001 	mrrccs	0, 0, r0, r0, cr1	; <UNPREDICTABLE>
     aa4:	30000000 	andcc	r0, r0, r0
     aa8:	04000000 	streq	r0, [r0], #-0
     aac:	5001f300 	andpl	pc, r1, r0, lsl #6
     ab0:	0000309f 	muleq	r0, pc, r0	; <UNPREDICTABLE>
     ab4:	00003400 	andeq	r3, r0, r0, lsl #8
     ab8:	50000100 	andpl	r0, r0, r0, lsl #2
     abc:	00000034 	andeq	r0, r0, r4, lsr r0
     ac0:	0000003c 	andeq	r0, r0, ip, lsr r0
     ac4:	01f30004 	mvnseq	r0, r4
     ac8:	00009f50 	andeq	r9, r0, r0, asr pc
	...
     ad4:	04580000 	ldrbeq	r0, [r8], #-0
     ad8:	04680000 	strbteq	r0, [r8], #-0
     adc:	00010000 	andeq	r0, r1, r0
     ae0:	00046850 	andeq	r6, r4, r0, asr r8
     ae4:	0004f400 	andeq	pc, r4, r0, lsl #8
     ae8:	54000100 	strpl	r0, [r0], #-256	; 0xffffff00
	...
     afc:	00000008 	andeq	r0, r0, r8
     b00:	00000078 	andeq	r0, r0, r8, ror r0
     b04:	78510001 	ldmdavc	r1, {r0}^
     b08:	84000000 	strhi	r0, [r0], #-0
     b0c:	03000000 	movweq	r0, #0
     b10:	9f787000 	svcls	0x00787000
     b14:	00000084 	andeq	r0, r0, r4, lsl #1
     b18:	000000a4 	andeq	r0, r0, r4, lsr #1
     b1c:	a4510001 	ldrbge	r0, [r1], #-1
     b20:	bc000000 	stclt	0, cr0, [r0], {-0}
     b24:	03000000 	movweq	r0, #0
     b28:	9f787000 	svcls	0x00787000
	...
     b38:	00000010 	andeq	r0, r0, r0, lsl r0
     b3c:	00000048 	andeq	r0, r0, r8, asr #32
     b40:	4c530001 	mrrcmi	0, 0, r0, r3, cr1
     b44:	bc000000 	stclt	0, cr0, [r0], {-0}
     b48:	01000000 	mrseq	r0, (UNDEF: 0)
     b4c:	00005300 	andeq	r5, r0, r0, lsl #6
	...
     b5c:	01000000 	mrseq	r0, (UNDEF: 0)
     b60:	01240000 			; <UNDEFINED> instruction: 0x01240000
     b64:	00010000 	andeq	r0, r1, r0
     b68:	00012450 	andeq	r2, r1, r0, asr r4
     b6c:	00012800 	andeq	r2, r1, r0, lsl #16
     b70:	f3000400 	vshl.u8	d0, d0, d0
     b74:	289f5001 	ldmcs	pc, {r0, ip, lr}	; <UNPREDICTABLE>
     b78:	40000001 	andmi	r0, r0, r1
     b7c:	01000001 	tsteq	r0, r1
     b80:	01405000 	mrseq	r5, (UNDEF: 64)
     b84:	01ac0000 			; <UNDEFINED> instruction: 0x01ac0000
     b88:	00040000 	andeq	r0, r4, r0
     b8c:	9f5001f3 	svcls	0x005001f3
	...
     b9c:	01000000 	mrseq	r0, (UNDEF: 0)
     ba0:	00000001 	andeq	r0, r0, r1
     ba4:	01240000 			; <UNDEFINED> instruction: 0x01240000
     ba8:	01280000 			; <UNDEFINED> instruction: 0x01280000
     bac:	00010000 	andeq	r0, r1, r0
     bb0:	00014050 	andeq	r4, r1, r0, asr r0
     bb4:	00016000 	andeq	r6, r1, r0
     bb8:	50000100 	andpl	r0, r0, r0, lsl #2
     bbc:	00000160 	andeq	r0, r0, r0, ror #2
     bc0:	00000164 	andeq	r0, r0, r4, ror #2
     bc4:	78700003 	ldmdavc	r0!, {r0, r1}^
     bc8:	0001649f 	muleq	r1, pc, r4	; <UNPREDICTABLE>
     bcc:	00017000 	andeq	r7, r1, r0
     bd0:	50000100 	andpl	r0, r0, r0, lsl #2
     bd4:	00000170 	andeq	r0, r0, r0, ror r1
     bd8:	00000178 	andeq	r0, r0, r8, ror r1
     bdc:	00700002 	rsbseq	r0, r0, r2
     be0:	00000178 	andeq	r0, r0, r8, ror r1
     be4:	00000198 	muleq	r0, r8, r1
     be8:	9c500001 	mrrcls	0, 0, r0, r0, cr1	; <UNPREDICTABLE>
     bec:	ac000001 	stcge	0, cr0, [r0], {1}
     bf0:	01000001 	tsteq	r0, r1
     bf4:	00005000 	andeq	r5, r0, r0
     bf8:	00000000 	andeq	r0, r0, r0
     bfc:	01000000 	mrseq	r0, (UNDEF: 0)
     c00:	00000001 	andeq	r0, r0, r1
     c04:	00000001 	andeq	r0, r0, r1
     c08:	00000118 	andeq	r0, r0, r8, lsl r1
     c0c:	00000128 	andeq	r0, r0, r8, lsr #2
     c10:	28520001 	ldmdacs	r2, {r0}^
     c14:	40000001 	andmi	r0, r0, r1
     c18:	06000001 	streq	r0, [r0], -r1
     c1c:	ab500300 	blge	1401824 <__bss_end__+0x13f68c4>
     c20:	409f0000 	addsmi	r0, pc, r0
     c24:	70000001 	andvc	r0, r0, r1
     c28:	01000001 	tsteq	r0, r1
     c2c:	01705200 	cmneq	r0, r0, lsl #4
     c30:	01780000 	cmneq	r8, r0
     c34:	00010000 	andeq	r0, r1, r0
     c38:	00017850 	andeq	r7, r1, r0, asr r8
     c3c:	00019b00 	andeq	r9, r1, r0, lsl #22
     c40:	52000100 	andpl	r0, r0, #0
	...
     c4c:	01100000 	tsteq	r0, r0
     c50:	01ac0000 			; <UNDEFINED> instruction: 0x01ac0000
     c54:	00010000 	andeq	r0, r1, r0
     c58:	00000054 	andeq	r0, r0, r4, asr r0
	...
     c64:	0000bc00 	andeq	fp, r0, r0, lsl #24
     c68:	0000cc00 	andeq	ip, r0, r0, lsl #24
     c6c:	50000100 	andpl	r0, r0, r0, lsl #2
     c70:	000000cc 	andeq	r0, r0, ip, asr #1
     c74:	00000100 	andeq	r0, r0, r0, lsl #2
     c78:	00540001 	subseq	r0, r4, r1
	...
     c88:	0000d400 	andeq	sp, r0, r0, lsl #8
     c8c:	0000e400 	andeq	lr, r0, r0, lsl #8
     c90:	50000100 	andpl	r0, r0, r0, lsl #2
     c94:	000000e4 	andeq	r0, r0, r4, ror #1
     c98:	000000e7 	andeq	r0, r0, r7, ror #1
     c9c:	78700003 	ldmdavc	r0!, {r0, r1}^
     ca0:	0000f49f 	muleq	r0, pc, r4	; <UNPREDICTABLE>
     ca4:	0000f800 	andeq	pc, r0, r0, lsl #16
     ca8:	50000100 	andpl	r0, r0, r0, lsl #2
	...
     cb4:	00000001 	andeq	r0, r0, r1
     cb8:	000000dc 	ldrdeq	r0, [r0], -ip
     cbc:	000000e4 	andeq	r0, r0, r4, ror #1
     cc0:	e4500001 	ldrb	r0, [r0], #-1
     cc4:	e7000000 	str	r0, [r0, -r0]
     cc8:	03000000 	movweq	r0, #0
     ccc:	9f787000 	svcls	0x00787000
	...
     ce0:	0000000c 	andeq	r0, r0, ip
     ce4:	0c500001 	mrrceq	0, 0, r0, r0, cr1	; <UNPREDICTABLE>
     ce8:	34000000 	strcc	r0, [r0], #-0
     cec:	01000000 	mrseq	r0, (UNDEF: 0)
     cf0:	00005e00 	andeq	r5, r0, r0, lsl #28
     cf4:	00000000 	andeq	r0, r0, r0
     cf8:	00010000 	andeq	r0, r1, r0
     cfc:	00080000 	andeq	r0, r8, r0
     d00:	000c0000 	andeq	r0, ip, r0
     d04:	00010000 	andeq	r0, r1, r0
     d08:	00000c50 	andeq	r0, r0, r0, asr ip
     d0c:	00003400 	andeq	r3, r0, r0, lsl #8
     d10:	5e000100 	adfpls	f0, f0, f0
	...
     d1c:	00080001 	andeq	r0, r8, r1
     d20:	00340000 	eorseq	r0, r4, r0
     d24:	00010000 	andeq	r0, r1, r0
     d28:	00000051 	andeq	r0, r0, r1, asr r0
     d2c:	00000000 	andeq	r0, r0, r0
     d30:	00000300 	andeq	r0, r0, r0, lsl #6
     d34:	00000800 	andeq	r0, r0, r0, lsl #16
     d38:	00000c00 	andeq	r0, r0, r0, lsl #24
     d3c:	30000200 	andcc	r0, r0, r0, lsl #4
     d40:	00000c9f 	muleq	r0, pc, ip	; <UNPREDICTABLE>
     d44:	00003400 	andeq	r3, r0, r0, lsl #8
     d48:	53000100 	movwpl	r0, #256	; 0x100
	...
     d58:	0000001c 	andeq	r0, r0, ip, lsl r0
     d5c:	00000020 	andeq	r0, r0, r0, lsr #32
     d60:	007c0006 	rsbseq	r0, ip, r6
     d64:	9f1c0070 	svcls	0x001c0070
     d68:	00000020 	andeq	r0, r0, r0, lsr #32
     d6c:	0000002c 	andeq	r0, r0, ip, lsr #32
     d70:	00500001 	subseq	r0, r0, r1
	...
     d84:	00001c00 	andeq	r1, r0, r0, lsl #24
     d88:	52000100 	andpl	r0, r0, #0
     d8c:	0000001c 	andeq	r0, r0, ip, lsl r0
     d90:	00000038 	andeq	r0, r0, r8, lsr r0
     d94:	01f30004 	mvnseq	r0, r4
     d98:	00389f52 	eorseq	r9, r8, r2, asr pc
     d9c:	00600000 	rsbeq	r0, r0, r0
     da0:	00010000 	andeq	r0, r1, r0
     da4:	00000052 	andeq	r0, r0, r2, asr r0
     da8:	00000000 	andeq	r0, r0, r0
     dac:	1c000000 	stcne	0, cr0, [r0], {-0}
     db0:	38000000 	stmdacc	r0, {}	; <UNPREDICTABLE>
     db4:	01000000 	mrseq	r0, (UNDEF: 0)
     db8:	00005200 	andeq	r5, r0, r0, lsl #4
     dbc:	00000000 	andeq	r0, r0, r0
     dc0:	00010000 	andeq	r0, r1, r0
     dc4:	0000001c 	andeq	r0, r0, ip, lsl r0
     dc8:	00000038 	andeq	r0, r0, r8, lsr r0
     dcc:	00500001 	subseq	r0, r0, r1
     dd0:	00000000 	andeq	r0, r0, r0
     dd4:	02000000 	andeq	r0, r0, #0, 0
     dd8:	00001c00 	andeq	r1, r0, r0, lsl #24
     ddc:	00003800 	andeq	r3, r0, r0, lsl #16
     de0:	51000100 	mrspl	r0, (UNDEF: 16)
	...
     dec:	00000004 	andeq	r0, r0, r4
     df0:	0000001c 	andeq	r0, r0, ip, lsl r0
     df4:	00000020 	andeq	r0, r0, r0, lsr #32
     df8:	9f300002 	svcls	0x00300002
     dfc:	00000020 	andeq	r0, r0, r0, lsr #32
     e00:	00000038 	andeq	r0, r0, r8, lsr r0
     e04:	00530001 	subseq	r0, r3, r1
	...
     e10:	00003800 	andeq	r3, r0, r0, lsl #16
     e14:	00005000 	andeq	r5, r0, r0
     e18:	53000100 	movwpl	r0, #256	; 0x100
	...
     e2c:	00000004 	andeq	r0, r0, r4
     e30:	04520001 	ldrbeq	r0, [r2], #-1
     e34:	18000000 	stmdane	r0, {}	; <UNPREDICTABLE>
     e38:	04000000 	streq	r0, [r0], #-0
     e3c:	5201f300 	andpl	pc, r1, #0, 6
     e40:	0000009f 	muleq	r0, pc, r0	; <UNPREDICTABLE>
     e44:	00000000 	andeq	r0, r0, r0
     e48:	00000200 	andeq	r0, r0, r0, lsl #4
     e4c:	00000101 	andeq	r0, r0, r1, lsl #2
     e50:	00000000 	andeq	r0, r0, r0
     e54:	00000800 	andeq	r0, r0, r0, lsl #16
     e58:	50000100 	andpl	r0, r0, r0, lsl #2
     e5c:	00000008 	andeq	r0, r0, r8
     e60:	00000010 	andeq	r0, r0, r0, lsl r0
     e64:	10530001 	subsne	r0, r3, r1
     e68:	14000000 	strne	r0, [r0], #-0
     e6c:	03000000 	movweq	r0, #0
     e70:	9f017300 	svcls	0x00017300
     e74:	00000014 	andeq	r0, r0, r4, lsl r0
     e78:	00000018 	andeq	r0, r0, r8, lsl r0
     e7c:	00530001 	subseq	r0, r3, r1
	...
     e88:	00000400 	andeq	r0, r0, r0, lsl #8
     e8c:	00001800 	andeq	r1, r0, r0, lsl #16
     e90:	52000100 	andpl	r0, r0, #0
	...
     ea0:	002c0000 	eoreq	r0, ip, r0
     ea4:	00380000 	eorseq	r0, r8, r0
     ea8:	00010000 	andeq	r0, r1, r0
     eac:	00003850 	andeq	r3, r0, r0, asr r8
     eb0:	00004800 	andeq	r4, r0, r0, lsl #16
     eb4:	54000100 	strpl	r0, [r0], #-256	; 0xffffff00
     eb8:	00000048 	andeq	r0, r0, r8, asr #32
     ebc:	00000058 	andeq	r0, r0, r8, asr r0
     ec0:	00500001 	subseq	r0, r0, r1
	...
     ecc:	00000101 	andeq	r0, r0, r1, lsl #2
     ed0:	08000000 	stmdaeq	r0, {}	; <UNPREDICTABLE>
     ed4:	01000000 	mrseq	r0, (UNDEF: 0)
     ed8:	00085000 	andeq	r5, r8, r0
     edc:	00340000 	eorseq	r0, r4, r0
     ee0:	00010000 	andeq	r0, r1, r0
     ee4:	00000054 	andeq	r0, r0, r4, asr r0
	...
     ef0:	88000000 	stmdahi	r0, {}	; <UNPREDICTABLE>
     ef4:	b8000002 	stmdalt	r0, {r1}
     ef8:	01000002 	tsteq	r0, r2
     efc:	02b85000 	adcseq	r5, r8, #0, 0
     f00:	07040000 	streq	r0, [r4, -r0]
     f04:	00010000 	andeq	r0, r1, r0
     f08:	00070459 	andeq	r0, r7, r9, asr r4
     f0c:	00074000 	andeq	r4, r7, r0
     f10:	f3000400 	vshl.u8	d0, d0, d0
     f14:	009f5001 	addseq	r5, pc, r1
	...
     f24:	00028800 	andeq	r8, r2, r0, lsl #16
     f28:	0002a000 	andeq	sl, r2, r0
     f2c:	51000100 	mrspl	r0, (UNDEF: 16)
     f30:	000002a0 	andeq	r0, r0, r0, lsr #5
     f34:	000002b8 			; <UNDEFINED> instruction: 0x000002b8
     f38:	01710003 	cmneq	r1, r3
     f3c:	0002b89f 	muleq	r2, pc, r8	; <UNPREDICTABLE>
     f40:	00074000 	andeq	r4, r7, r0
     f44:	f3000400 	vshl.u8	d0, d0, d0
     f48:	009f5101 	addseq	r5, pc, r1, lsl #2
	...
     f5c:	88000000 	stmdahi	r0, {}	; <UNPREDICTABLE>
     f60:	b8000002 	stmdalt	r0, {r1}
     f64:	01000002 	tsteq	r0, r2
     f68:	02b85200 	adcseq	r5, r8, #0, 4
     f6c:	03ec0000 	mvneq	r0, #0, 0
     f70:	00010000 	andeq	r0, r1, r0
     f74:	0003ec56 	andeq	lr, r3, r6, asr ip
     f78:	0004b800 	andeq	fp, r4, r0, lsl #16
     f7c:	5b000100 	blpl	1384 <__code_start__-0x6c7c>
     f80:	000004b8 			; <UNDEFINED> instruction: 0x000004b8
     f84:	000004d8 	ldrdeq	r0, [r0], -r8
     f88:	d8560001 	ldmdale	r6, {r0}^
     f8c:	5c000004 	stcpl	0, cr0, [r0], {4}
     f90:	01000005 	tsteq	r0, r5
     f94:	055c5b00 	ldrbeq	r5, [ip, #-2816]	; 0xfffff500
     f98:	07040000 	streq	r0, [r4, -r0]
     f9c:	00010000 	andeq	r0, r1, r0
     fa0:	00000056 	andeq	r0, r0, r6, asr r0
     fa4:	00000000 	andeq	r0, r0, r0
     fa8:	00000100 	andeq	r0, r0, r0, lsl #2
     fac:	00000000 	andeq	r0, r0, r0
     fb0:	00000101 	andeq	r0, r0, r1, lsl #2
     fb4:	00000000 	andeq	r0, r0, r0
     fb8:	00000202 	andeq	r0, r0, r2, lsl #4
     fbc:	00029c00 	andeq	r9, r2, r0, lsl #24
     fc0:	0002b800 	andeq	fp, r2, r0, lsl #16
     fc4:	50000100 	andpl	r0, r0, r0, lsl #2
     fc8:	000002b8 			; <UNDEFINED> instruction: 0x000002b8
     fcc:	000002bc 			; <UNDEFINED> instruction: 0x000002bc
     fd0:	bc540001 	mrrclt	0, 0, r0, r4, cr1
     fd4:	c0000002 	andgt	r0, r0, r2
     fd8:	03000002 	movweq	r0, #2
     fdc:	9f017400 	svcls	0x00017400
     fe0:	000002c0 	andeq	r0, r0, r0, asr #5
     fe4:	000002e4 	andeq	r0, r0, r4, ror #5
     fe8:	e4540001 	ldrb	r0, [r4], #-1
     fec:	e8000002 	stmda	r0, {r1}
     ff0:	03000002 	movweq	r0, #2
     ff4:	9f017400 	svcls	0x00017400
     ff8:	000002e8 	andeq	r0, r0, r8, ror #5
     ffc:	000006d4 	ldrdeq	r0, [r0], -r4
    1000:	d4540001 	ldrble	r0, [r4], #-1
    1004:	d8000006 	stmdale	r0, {r1, r2}
    1008:	03000006 	movweq	r0, #6
    100c:	9f017400 	svcls	0x00017400
    1010:	000006d8 	ldrdeq	r0, [r0], -r8
    1014:	000006f0 	strdeq	r0, [r0], -r0	; <UNPREDICTABLE>
    1018:	f0540001 			; <UNDEFINED> instruction: 0xf0540001
    101c:	f8000006 			; <UNDEFINED> instruction: 0xf8000006
    1020:	03000006 	movweq	r0, #6
    1024:	9f017400 	svcls	0x00017400
    1028:	000006f8 	strdeq	r0, [r0], -r8
    102c:	00000704 	andeq	r0, r0, r4, lsl #14
    1030:	00540001 	subseq	r0, r4, r1
	...
    103c:	a4000000 	strge	r0, [r0], #-0
    1040:	04000002 	streq	r0, [r0], #-2
    1044:	01000007 	tsteq	r0, r7
    1048:	07045800 	streq	r5, [r4, -r0, lsl #16]
    104c:	07400000 	strbeq	r0, [r0, -r0]
    1050:	000a0000 	andeq	r0, sl, r0
    1054:	f35101f3 	vbsl	q8, <illegal reg q8.5>, <illegal reg q9.5>
    1058:	31225001 			; <UNDEFINED> instruction: 0x31225001
    105c:	00009f1c 	andeq	r9, r0, ip, lsl pc
    1060:	00000000 	andeq	r0, r0, r0
    1064:	00010000 	andeq	r0, r1, r0
    1068:	00000000 	andeq	r0, r0, r0
    106c:	00000408 	andeq	r0, r0, r8, lsl #8
    1070:	00000474 	andeq	r0, r0, r4, ror r4
    1074:	d8570001 	ldmdale	r7, {r0}^
    1078:	fc000004 	stc2	0, cr0, [r0], {4}
    107c:	01000004 	tsteq	r0, r4
    1080:	05405700 	strbeq	r5, [r0, #-1792]	; 0xfffff900
    1084:	055c0000 	ldrbeq	r0, [ip, #-0]
    1088:	00010000 	andeq	r0, r1, r0
    108c:	00000057 	andeq	r0, r0, r7, asr r0
    1090:	00000000 	andeq	r0, r0, r0
    1094:	00000200 	andeq	r0, r0, r0, lsl #4
    1098:	00040800 	andeq	r0, r4, r0, lsl #16
    109c:	0004b800 	andeq	fp, r4, r0, lsl #16
    10a0:	5a000100 	bpl	14a8 <__code_start__-0x6b58>
    10a4:	000004d8 	ldrdeq	r0, [r0], -r8
    10a8:	0000055c 	andeq	r0, r0, ip, asr r5
    10ac:	005a0001 	subseq	r0, sl, r1
    10b0:	00000000 	andeq	r0, r0, r0
    10b4:	01000000 	mrseq	r0, (UNDEF: 0)
    10b8:	ac000000 	stcge	0, cr0, [r0], {-0}
    10bc:	b8000002 	stmdalt	r0, {r1}
    10c0:	01000002 	tsteq	r0, r2
    10c4:	02b85200 	adcseq	r5, r8, #0, 4
    10c8:	07400000 	strbeq	r0, [r0, -r0]
    10cc:	00030000 	andeq	r0, r3, r0
    10d0:	007dc891 			; <UNDEFINED> instruction: 0x007dc891
	...
    10e4:	00000101 	andeq	r0, r0, r1, lsl #2
	...
    10f0:	00047400 	andeq	r7, r4, r0, lsl #8
    10f4:	00048c00 	andeq	r8, r4, r0, lsl #24
    10f8:	50000100 	andpl	r0, r0, r0, lsl #2
    10fc:	0000048c 	andeq	r0, r0, ip, lsl #9
    1100:	000004b8 			; <UNDEFINED> instruction: 0x000004b8
    1104:	fc570001 	mrrc2	0, 0, r0, r7, cr1
    1108:	14000004 	strne	r0, [r0], #-4
    110c:	01000005 	tsteq	r0, r5
    1110:	05145000 	ldreq	r5, [r4, #-0]
    1114:	05400000 	strbeq	r0, [r0, #-0]
    1118:	00010000 	andeq	r0, r1, r0
    111c:	0005a457 	andeq	sl, r5, r7, asr r4
    1120:	0005a400 	andeq	sl, r5, r0, lsl #8
    1124:	50000100 	andpl	r0, r0, r0, lsl #2
    1128:	000005a4 	andeq	r0, r0, r4, lsr #11
    112c:	000005ac 	andeq	r0, r0, ip, lsr #11
    1130:	dc570001 	mrrcle	0, 0, r0, r7, cr1
    1134:	e0000005 	and	r0, r0, r5
    1138:	01000005 	tsteq	r0, r5
    113c:	06105000 	ldreq	r5, [r0], -r0
    1140:	06140000 	ldreq	r0, [r4], -r0
    1144:	00010000 	andeq	r0, r1, r0
    1148:	00064450 	andeq	r4, r6, r0, asr r4
    114c:	00064800 	andeq	r4, r6, r0, lsl #16
    1150:	50000100 	andpl	r0, r0, r0, lsl #2
    1154:	0000068c 	andeq	r0, r0, ip, lsl #13
    1158:	00000690 	muleq	r0, r0, r6
    115c:	d0500001 	subsle	r0, r0, r1
    1160:	f0000006 			; <UNDEFINED> instruction: 0xf0000006
    1164:	01000006 	tsteq	r0, r6
    1168:	00005700 	andeq	r5, r0, r0, lsl #14
    116c:	00000000 	andeq	r0, r0, r0
    1170:	00020000 	andeq	r0, r2, r0
    1174:	00000000 	andeq	r0, r0, r0
    1178:	000002f4 	strdeq	r0, [r0], -r4
    117c:	000002f8 	strdeq	r0, [r0], -r8
    1180:	9f300002 	svcls	0x00300002
    1184:	000002f8 	strdeq	r0, [r0], -r8
    1188:	00000314 	andeq	r0, r0, r4, lsl r3
    118c:	1c550001 	mrrcne	0, 0, r0, r5, cr1
    1190:	f0000003 			; <UNDEFINED> instruction: 0xf0000003
    1194:	01000006 	tsteq	r0, r6
    1198:	00005500 	andeq	r5, r0, r0, lsl #10
    119c:	00000000 	andeq	r0, r0, r0
    11a0:	00010000 	andeq	r0, r1, r0
	...
    11ac:	000003b8 			; <UNDEFINED> instruction: 0x000003b8
    11b0:	00000454 	andeq	r0, r0, r4, asr r4
    11b4:	54560001 	ldrbpl	r0, [r6], #-1
    11b8:	b8000004 	stmdalt	r0, {r2}
    11bc:	03000004 	movweq	r0, #4
    11c0:	9f7e7b00 	svcls	0x007e7b00
    11c4:	000004b8 			; <UNDEFINED> instruction: 0x000004b8
    11c8:	000004dc 	ldrdeq	r0, [r0], -ip
    11cc:	dc560001 	mrrcle	0, 0, r0, r6, cr1
    11d0:	40000004 	andmi	r0, r0, r4
    11d4:	03000005 	movweq	r0, #5
    11d8:	9f7e7b00 	svcls	0x007e7b00
    11dc:	00000540 	andeq	r0, r0, r0, asr #10
    11e0:	0000055c 	andeq	r0, r0, ip, asr r5
    11e4:	00560001 	subseq	r0, r6, r1
	...
    11f4:	00007000 	andeq	r7, r0, r0
    11f8:	00009400 	andeq	r9, r0, r0, lsl #8
    11fc:	50000100 	andpl	r0, r0, r0, lsl #2
    1200:	00000094 	muleq	r0, r4, r0
    1204:	000000fc 	strdeq	r0, [r0], -ip
    1208:	02700003 	rsbseq	r0, r0, #3, 0
    120c:	0000fc9f 	muleq	r0, pc, ip	; <UNPREDICTABLE>
    1210:	00022400 	andeq	r2, r2, r0, lsl #8
    1214:	f3000400 	vshl.u8	d0, d0, d0
    1218:	009f5001 	addseq	r5, pc, r1
	...
    1230:	70000000 	andvc	r0, r0, r0
    1234:	e0000000 	and	r0, r0, r0
    1238:	01000000 	mrseq	r0, (UNDEF: 0)
    123c:	00e05100 	rsceq	r5, r0, r0, lsl #2
    1240:	01540000 	cmpeq	r4, r0
    1244:	00010000 	andeq	r0, r1, r0
    1248:	00015455 	andeq	r5, r1, r5, asr r4
    124c:	00015800 	andeq	r5, r1, r0, lsl #16
    1250:	51000100 	mrspl	r0, (UNDEF: 16)
    1254:	00000158 	andeq	r0, r0, r8, asr r1
    1258:	000001b0 			; <UNDEFINED> instruction: 0x000001b0
    125c:	b0550001 	subslt	r0, r5, r1
    1260:	c0000001 	andgt	r0, r0, r1
    1264:	01000001 	tsteq	r0, r1
    1268:	01c05100 	biceq	r5, r0, r0, lsl #2
    126c:	01e40000 	mvneq	r0, r0
    1270:	00010000 	andeq	r0, r1, r0
    1274:	0001e455 	andeq	lr, r1, r5, asr r4
    1278:	0001f800 	andeq	pc, r1, r0, lsl #16
    127c:	51000100 	mrspl	r0, (UNDEF: 16)
    1280:	000001f8 	strdeq	r0, [r0], -r8
    1284:	00000224 	andeq	r0, r0, r4, lsr #4
    1288:	00550001 	subseq	r0, r5, r1
	...
    1294:	70000000 	andvc	r0, r0, r0
    1298:	84000000 	strhi	r0, [r0], #-0
    129c:	01000000 	mrseq	r0, (UNDEF: 0)
    12a0:	00845200 	addeq	r5, r4, r0, lsl #4
    12a4:	02240000 	eoreq	r0, r4, #0, 0
    12a8:	00010000 	andeq	r0, r1, r0
    12ac:	00000054 	andeq	r0, r0, r4, asr r0
	...
    12b8:	00010000 	andeq	r0, r1, r0
    12bc:	00000000 	andeq	r0, r0, r0
    12c0:	00007000 	andeq	r7, r0, r0
    12c4:	0000f400 	andeq	pc, r0, r0, lsl #8
    12c8:	53000100 	movwpl	r0, #256	; 0x100
    12cc:	0000014c 	andeq	r0, r0, ip, asr #2
    12d0:	00000180 	andeq	r0, r0, r0, lsl #3
    12d4:	80530001 	subshi	r0, r3, r1
    12d8:	8c000001 	stchi	0, cr0, [r0], {1}
    12dc:	04000001 	streq	r0, [r0], #-1
    12e0:	5301f300 	movwpl	pc, #4864	; 0x1300	; <UNPREDICTABLE>
    12e4:	0001b09f 	muleq	r1, pc, r0	; <UNPREDICTABLE>
    12e8:	0001e800 	andeq	lr, r1, r0, lsl #16
    12ec:	53000100 	movwpl	r0, #256	; 0x100
    12f0:	000001e8 	andeq	r0, r0, r8, ror #3
    12f4:	000001ff 	strdeq	r0, [r0], -pc	; <UNPREDICTABLE>
    12f8:	ff5c0001 			; <UNDEFINED> instruction: 0xff5c0001
    12fc:	24000001 	strcs	r0, [r0], #-1
    1300:	04000002 	streq	r0, [r0], #-2
    1304:	5301f300 	movwpl	pc, #4864	; 0x1300	; <UNPREDICTABLE>
    1308:	0000009f 	muleq	r0, pc, r0	; <UNPREDICTABLE>
	...
    1314:	70000000 	andvc	r0, r0, r0
    1318:	8c000000 	stchi	0, cr0, [r0], {-0}
    131c:	02000000 	andeq	r0, r0, #0, 0
    1320:	8c009100 	stfhid	f1, [r0], {-0}
    1324:	93000000 	movwls	r0, #0
    1328:	01000001 	tsteq	r0, r1
    132c:	01b05200 	lslseq	r5, r0, #4
    1330:	01f40000 	mvnseq	r0, r0
    1334:	00010000 	andeq	r0, r1, r0
    1338:	00000052 	andeq	r0, r0, r2, asr r0
    133c:	00000000 	andeq	r0, r0, r0
    1340:	00000100 	andeq	r0, r0, r0, lsl #2
    1344:	00000101 	andeq	r0, r0, r1, lsl #2
    1348:	00000000 	andeq	r0, r0, r0
    134c:	01010000 	mrseq	r0, (UNDEF: 1)
    1350:	00000101 	andeq	r0, r0, r1, lsl #2
    1354:	00000101 	andeq	r0, r0, r1, lsl #2
	...
    1360:	00008c00 	andeq	r8, r0, r0, lsl #24
    1364:	0000fc00 	andeq	pc, r0, r0, lsl #24
    1368:	91000400 	tstls	r0, r0, lsl #8
    136c:	fc9f7fa0 	ldc2	15, cr7, [pc], {160}	; 0xa0
    1370:	3c000000 	stccc	0, cr0, [r0], {-0}
    1374:	01000001 	tsteq	r0, r1
    1378:	013c5000 	teqeq	ip, r0
    137c:	01480000 	mrseq	r0, (UNDEF: 72)
    1380:	00030000 	andeq	r0, r3, r0
    1384:	489f0271 	ldmmi	pc, {r0, r4, r5, r6, r9}	; <UNPREDICTABLE>
    1388:	4c000001 	stcmi	0, cr0, [r0], {1}
    138c:	01000001 	tsteq	r0, r1
    1390:	014c5000 	mrseq	r5, (UNDEF: 76)
    1394:	01580000 	cmpeq	r8, r0
    1398:	00040000 	andeq	r0, r4, r0
    139c:	9f7fa091 	svcls	0x007fa091
    13a0:	00000158 	andeq	r0, r0, r8, asr r1
    13a4:	0000016c 	andeq	r0, r0, ip, ror #2
    13a8:	6c510001 	mrrcvs	0, 0, r0, r1, cr1
    13ac:	78000001 	stmdavc	r0, {r0}
    13b0:	03000001 	movweq	r0, #1
    13b4:	9f7f7100 	svcls	0x007f7100
    13b8:	00000178 	andeq	r0, r0, r8, ror r1
    13bc:	00000184 	andeq	r0, r0, r4, lsl #3
    13c0:	01710003 	cmneq	r1, r3
    13c4:	0001849f 	muleq	r1, pc, r4	; <UNPREDICTABLE>
    13c8:	00019300 	andeq	r9, r1, r0, lsl #6
    13cc:	50000100 	andpl	r0, r0, r0, lsl #2
    13d0:	000001b0 			; <UNDEFINED> instruction: 0x000001b0
    13d4:	000001b0 			; <UNDEFINED> instruction: 0x000001b0
    13d8:	a0910004 	addsge	r0, r1, r4
    13dc:	01b09f7f 	rorseq	r9, pc, pc
    13e0:	01b80000 			; <UNDEFINED> instruction: 0x01b80000
    13e4:	00040000 	andeq	r0, r4, r0
    13e8:	9f7fa191 	svcls	0x007fa191
    13ec:	000001b8 			; <UNDEFINED> instruction: 0x000001b8
    13f0:	000001bc 			; <UNDEFINED> instruction: 0x000001bc
    13f4:	bc500001 	mrrclt	0, 0, r0, r0, cr1	; <UNPREDICTABLE>
    13f8:	c0000001 	andgt	r0, r0, r1
    13fc:	04000001 	streq	r0, [r0], #-1
    1400:	7fa09100 	svcvc	0x00a09100
    1404:	0001c09f 	muleq	r1, pc, r0	; <UNPREDICTABLE>
    1408:	0001d400 	andeq	sp, r1, r0, lsl #8
    140c:	50000100 	andpl	r0, r0, r0, lsl #2
    1410:	000001d4 	ldrdeq	r0, [r0], -r4
    1414:	000001e4 	andeq	r0, r0, r4, ror #3
    1418:	7f700003 	svcvc	0x00700003
    141c:	0001e49f 	muleq	r1, pc, r4	; <UNPREDICTABLE>
    1420:	00022400 	andeq	r2, r2, r0, lsl #8
    1424:	91000400 	tstls	r0, r0, lsl #8
    1428:	009f7fa0 	addseq	r7, pc, r0, lsr #31
	...
    1434:	01010000 	mrseq	r0, (UNDEF: 1)
	...
    1444:	90000000 	andls	r0, r0, r0
    1448:	dc000000 	stcle	0, cr0, [r0], {-0}
    144c:	01000000 	mrseq	r0, (UNDEF: 0)
    1450:	00dc5c00 	sbcseq	r5, ip, r0, lsl #24
    1454:	00f40000 	rscseq	r0, r4, r0
    1458:	00010000 	andeq	r0, r1, r0
    145c:	0000f453 	andeq	pc, r0, r3, asr r4	; <UNPREDICTABLE>
    1460:	00014c00 	andeq	r4, r1, r0, lsl #24
    1464:	5c000100 	stfpls	f0, [r0], {-0}
    1468:	0000014c 	andeq	r0, r0, ip, asr #2
    146c:	00000158 	andeq	r0, r0, r8, asr r1
    1470:	58530001 	ldmdapl	r3, {r0}^
    1474:	74000001 	strvc	r0, [r0], #-1
    1478:	01000001 	tsteq	r0, r1
    147c:	01b05c00 	lslseq	r5, r0, #24
    1480:	01c00000 	biceq	r0, r0, r0
    1484:	00010000 	andeq	r0, r1, r0
    1488:	0001c053 	andeq	ip, r1, r3, asr r0
    148c:	0001dc00 	andeq	sp, r1, r0, lsl #24
    1490:	5c000100 	stfpls	f0, [r0], {-0}
    1494:	000001e4 	andeq	r0, r0, r4, ror #3
    1498:	000001e8 	andeq	r0, r0, r8, ror #3
    149c:	e8530001 	ldmda	r3, {r0}^
    14a0:	ff000001 			; <UNDEFINED> instruction: 0xff000001
    14a4:	01000001 	tsteq	r0, r1
    14a8:	01ff5c00 	mvnseq	r5, r0, lsl #24
    14ac:	02240000 	eoreq	r0, r4, #0, 0
    14b0:	00040000 	andeq	r0, r4, r0
    14b4:	9f5301f3 	svcls	0x005301f3
	...
    14c0:	00010101 	andeq	r0, r1, r1, lsl #2
    14c4:	00000000 	andeq	r0, r0, r0
    14c8:	000000dc 	ldrdeq	r0, [r0], -ip
    14cc:	000000f0 	strdeq	r0, [r0], -r0	; <UNPREDICTABLE>
    14d0:	9f300002 	svcls	0x00300002
    14d4:	000000f0 	strdeq	r0, [r0], -r0	; <UNPREDICTABLE>
    14d8:	000000f8 	strdeq	r0, [r0], -r8
    14dc:	9f310002 	svcls	0x00310002
    14e0:	000000fc 	strdeq	r0, [r0], -ip
    14e4:	0000014c 	andeq	r0, r0, ip, asr #2
    14e8:	4c560001 	mrrcmi	0, 0, r0, r6, cr1
    14ec:	54000001 	strpl	r0, [r0], #-1
    14f0:	02000001 	andeq	r0, r0, #1, 0
    14f4:	009f3000 	addseq	r3, pc, r0
	...
    1500:	01010000 	mrseq	r0, (UNDEF: 1)
    1504:	01010000 	mrseq	r0, (UNDEF: 1)
    1508:	00003800 	andeq	r3, r0, r0, lsl #16
    150c:	00005400 	andeq	r5, r0, r0, lsl #8
    1510:	50000100 	andpl	r0, r0, r0, lsl #2
    1514:	00000054 	andeq	r0, r0, r4, asr r0
    1518:	00000058 	andeq	r0, r0, r8, asr r0
    151c:	58520001 	ldmdapl	r2, {r0}^
    1520:	60000000 	andvs	r0, r0, r0
    1524:	03000000 	movweq	r0, #0
    1528:	9f017200 	svcls	0x00017200
    152c:	00000060 	andeq	r0, r0, r0, rrx
    1530:	00000064 	andeq	r0, r0, r4, rrx
    1534:	64520001 	ldrbvs	r0, [r2], #-1
    1538:	70000000 	andvc	r0, r0, r0
    153c:	03000000 	movweq	r0, #0
    1540:	9f017200 	svcls	0x00017200
	...
    1550:	00000038 	andeq	r0, r0, r8, lsr r0
    1554:	00000050 	andeq	r0, r0, r0, asr r0
    1558:	50510001 	subspl	r0, r1, r1
    155c:	70000000 	andvc	r0, r0, r0
    1560:	04000000 	streq	r0, [r0], #-0
    1564:	5101f300 	mrspl	pc, SP_irq	; <UNPREDICTABLE>
    1568:	0000009f 	muleq	r0, pc, r0	; <UNPREDICTABLE>
	...
    1574:	01010000 	mrseq	r0, (UNDEF: 1)
    1578:	00003800 	andeq	r3, r0, r0, lsl #16
    157c:	00005000 	andeq	r5, r0, r0
    1580:	52000100 	andpl	r0, r0, #0
    1584:	00000050 	andeq	r0, r0, r0, asr r0
    1588:	0000005c 	andeq	r0, r0, ip, asr r0
    158c:	5c510001 	mrrcpl	0, 0, r0, r1, cr1
    1590:	60000000 	andvs	r0, r0, r0
    1594:	03000000 	movweq	r0, #0
    1598:	9f017100 	svcls	0x00017100
    159c:	00000060 	andeq	r0, r0, r0, rrx
    15a0:	00000070 	andeq	r0, r0, r0, ror r0
    15a4:	00510001 	subseq	r0, r1, r1
	...
    15b0:	38000000 	stmdacc	r0, {}	; <UNPREDICTABLE>
    15b4:	4c000000 	stcmi	0, cr0, [r0], {-0}
    15b8:	01000000 	mrseq	r0, (UNDEF: 0)
    15bc:	004c5300 	subeq	r5, ip, r0, lsl #6
    15c0:	00680000 	rsbeq	r0, r8, r0
    15c4:	00010000 	andeq	r0, r1, r0
    15c8:	00000053 	andeq	r0, r0, r3, asr r0
	...
    15d8:	00004000 	andeq	r4, r0, r0
    15dc:	00004800 	andeq	r4, r0, r0, lsl #16
    15e0:	5c000100 	stfpls	f0, [r0], {-0}
    15e4:	00000048 	andeq	r0, r0, r8, asr #32
    15e8:	0000004c 	andeq	r0, r0, ip, asr #32
    15ec:	00720008 	rsbseq	r0, r2, r8
    15f0:	231c0073 	tstcs	ip, #115, 0	; 0x73
    15f4:	004c9f01 	subeq	r9, ip, r1, lsl #30
    15f8:	00540000 	subseq	r0, r4, r0
    15fc:	00090000 	andeq	r0, r9, r0
    1600:	01f30072 	mvnseq	r0, r2, ror r0
    1604:	01231c53 			; <UNDEFINED> instruction: 0x01231c53
    1608:	0000549f 	muleq	r0, pc, r4	; <UNPREDICTABLE>
    160c:	00007000 	andeq	r7, r0, r0
    1610:	f3000a00 	vpmax.u8	d0, d0, d0
    1614:	01f35201 	mvnseq	r5, r1, lsl #4
    1618:	01231c53 			; <UNDEFINED> instruction: 0x01231c53
    161c:	0000009f 	muleq	r0, pc, r0	; <UNPREDICTABLE>
    1620:	00000000 	andeq	r0, r0, r0
    1624:	4c000100 	stfmis	f0, [r0], {-0}
    1628:	70000000 	andvc	r0, r0, r0
    162c:	01000000 	mrseq	r0, (UNDEF: 0)
    1630:	00005000 	andeq	r5, r0, r0
    1634:	00000000 	andeq	r0, r0, r0
    1638:	01000000 	mrseq	r0, (UNDEF: 0)
    163c:	00000001 	andeq	r0, r0, r1
    1640:	00000014 	andeq	r0, r0, r4, lsl r0
    1644:	0000001c 	andeq	r0, r0, ip, lsl r0
    1648:	1c500001 	mrrcne	0, 0, r0, r0, cr1	; <UNPREDICTABLE>
    164c:	24000000 	strcs	r0, [r0], #-0
    1650:	03000000 	movweq	r0, #0
    1654:	9f017000 	svcls	0x00017000
    1658:	00000024 	andeq	r0, r0, r4, lsr #32
    165c:	00000038 	andeq	r0, r0, r8, lsr r0
    1660:	00500001 	subseq	r0, r0, r1
	...
    166c:	14000000 	strne	r0, [r0], #-0
    1670:	18000000 	stmdane	r0, {}	; <UNPREDICTABLE>
    1674:	01000000 	mrseq	r0, (UNDEF: 0)
    1678:	00185100 	andseq	r5, r8, r0, lsl #2
    167c:	00380000 	eorseq	r0, r8, r0
    1680:	00040000 	andeq	r0, r4, r0
    1684:	9f5101f3 	svcls	0x005101f3
	...
    1690:	00180000 	andseq	r0, r8, r0
    1694:	00380000 	eorseq	r0, r8, r0
    1698:	00010000 	andeq	r0, r1, r0
    169c:	00000051 	andeq	r0, r0, r1, asr r0
	...
    16ac:	04000000 	streq	r0, [r0], #-0
    16b0:	01000000 	mrseq	r0, (UNDEF: 0)
    16b4:	00045000 	andeq	r5, r4, r0
    16b8:	000c0000 	andeq	r0, ip, r0
    16bc:	00030000 	andeq	r0, r3, r0
    16c0:	0c9f3070 	ldceq	0, cr3, [pc], {112}	; 0x70
    16c4:	14000000 	strne	r0, [r0], #-0
    16c8:	04000000 	streq	r0, [r0], #-0
    16cc:	5001f300 	andpl	pc, r1, r0, lsl #6
    16d0:	0000009f 	muleq	r0, pc, r0	; <UNPREDICTABLE>
	...
    16dc:	00022400 	andeq	r2, r2, r0, lsl #8
    16e0:	00026800 	andeq	r6, r2, r0, lsl #16
    16e4:	50000100 	andpl	r0, r0, r0, lsl #2
    16e8:	00000268 	andeq	r0, r0, r8, ror #4
    16ec:	00000288 	andeq	r0, r0, r8, lsl #5
    16f0:	01f30004 	mvnseq	r0, r4
    16f4:	00009f50 	andeq	r9, r0, r0, asr pc
	...
    1700:	02240000 	eoreq	r0, r4, #0, 0
    1704:	02640000 	rsbeq	r0, r4, #0, 0
    1708:	00010000 	andeq	r0, r1, r0
    170c:	00026451 	andeq	r6, r2, r1, asr r4
    1710:	00028800 	andeq	r8, r2, r0, lsl #16
    1714:	f3000400 	vshl.u8	d0, d0, d0
    1718:	009f5101 	addseq	r5, pc, r1, lsl #2
	...
    1724:	00000101 	andeq	r0, r0, r1, lsl #2
    1728:	00000c00 	andeq	r0, r0, r0, lsl #24
    172c:	00001400 	andeq	r1, r0, r0, lsl #8
    1730:	53000100 	movwpl	r0, #256	; 0x100
    1734:	00000014 	andeq	r0, r0, r4, lsl r0
    1738:	0000001c 	andeq	r0, r0, ip, lsl r0
    173c:	04730003 	ldrbteq	r0, [r3], #-3
    1740:	00001c9f 	muleq	r0, pc, ip	; <UNPREDICTABLE>
    1744:	00002300 	andeq	r2, r0, r0, lsl #6
    1748:	53000100 	movwpl	r0, #256	; 0x100
	...
    1754:	97f40001 	ldrbls	r0, [r4, r1]!
    1758:	98100000 	ldmdals	r0, {}	; <UNPREDICTABLE>
    175c:	00060000 	andeq	r0, r6, r0
    1760:	10001c0c 	andne	r1, r0, ip, lsl #24
    1764:	00009f20 	andeq	r9, r0, r0, lsr #30
    1768:	00000000 	andeq	r0, r0, r0
    176c:	00020000 	andeq	r0, r2, r0
    1770:	000097f4 	strdeq	r9, [r0], -r4
    1774:	00009810 	andeq	r9, r0, r0, lsl r8
    1778:	240c0006 	strcs	r0, [ip], #-6
    177c:	9f201000 	svcls	0x00201000
	...
    1788:	97f40003 	ldrbls	r0, [r4, r3]!
    178c:	98100000 	ldmdals	r0, {}	; <UNPREDICTABLE>
    1790:	00050000 	andeq	r0, r5, r0
    1794:	2447b408 	strbcs	fp, [r7], #-1032	; 0xfffffbf8
    1798:	0000009f 	muleq	r0, pc, r0	; <UNPREDICTABLE>
    179c:	00000000 	andeq	r0, r0, r0
    17a0:	f4000400 	vst3.8	{d0-d2}, [r0], r0
    17a4:	10000097 	mulne	r0, r7, r0
    17a8:	03000098 	movweq	r0, #152	; 0x98
    17ac:	9f200800 	svcls	0x00200800
	...
    17b8:	00000002 	andeq	r0, r0, r2
    17bc:	97c00000 	strbls	r0, [r0, r0]
    17c0:	97c40000 	strbls	r0, [r4, r0]
    17c4:	00020000 	andeq	r0, r2, r0
    17c8:	97c49f30 			; <UNDEFINED> instruction: 0x97c49f30
    17cc:	97c80000 	strbls	r0, [r8, r0]
    17d0:	00010000 	andeq	r0, r1, r0
    17d4:	0097cc53 	addseq	ip, r7, r3, asr ip
    17d8:	0097d400 	addseq	sp, r7, r0, lsl #8
    17dc:	53000100 	movwpl	r0, #256	; 0x100
	...
    17e8:	00000002 	andeq	r0, r0, r2
    17ec:	000097a8 	andeq	r9, r0, r8, lsr #15
    17f0:	000097ac 	andeq	r9, r0, ip, lsr #15
    17f4:	9f300002 	svcls	0x00300002
    17f8:	000097ac 	andeq	r9, r0, ip, lsr #15
    17fc:	000097b0 			; <UNDEFINED> instruction: 0x000097b0
    1800:	00500001 	subseq	r0, r0, r1
	...
    180c:	6c000000 	stcvs	0, cr0, [r0], {-0}
    1810:	78000000 	stmdavc	r0, {}	; <UNPREDICTABLE>
    1814:	01000000 	mrseq	r0, (UNDEF: 0)
    1818:	00785000 	rsbseq	r5, r8, r0
    181c:	00840000 	addeq	r0, r4, r0
    1820:	00040000 	andeq	r0, r4, r0
    1824:	9f5001f3 	svcls	0x005001f3
	...
    1834:	00000054 	andeq	r0, r0, r4, asr r0
    1838:	00000060 	andeq	r0, r0, r0, rrx
    183c:	60500001 	subsvs	r0, r0, r1
    1840:	6c000000 	stcvs	0, cr0, [r0], {-0}
    1844:	04000000 	streq	r0, [r0], #-0
    1848:	5001f300 	andpl	pc, r1, r0, lsl #6
    184c:	0000009f 	muleq	r0, pc, r0	; <UNPREDICTABLE>
	...
    1858:	00003000 	andeq	r3, r0, r0
    185c:	00003b00 	andeq	r3, r0, r0, lsl #22
    1860:	50000100 	andpl	r0, r0, r0, lsl #2
    1864:	0000003b 	andeq	r0, r0, fp, lsr r0
    1868:	00000054 	andeq	r0, r0, r4, asr r0
    186c:	00550001 	subseq	r0, r5, r1
	...
    1878:	00004000 	andeq	r4, r0, r0
    187c:	00005400 	andeq	r5, r0, r0, lsl #8
    1880:	54000100 	strpl	r0, [r0], #-256	; 0xffffff00
	...
    188c:	00440000 	subeq	r0, r4, r0
    1890:	00480000 	subeq	r0, r8, r0
    1894:	00010000 	andeq	r0, r1, r0
    1898:	00000050 	andeq	r0, r0, r0, asr r0
	...
    18a4:	00002400 	andeq	r2, r0, r0, lsl #8
    18a8:	00002700 	andeq	r2, r0, r0, lsl #14
    18ac:	50000100 	andpl	r0, r0, r0, lsl #2
    18b0:	00000027 	andeq	r0, r0, r7, lsr #32
    18b4:	00000030 	andeq	r0, r0, r0, lsr r0
    18b8:	00540001 	subseq	r0, r4, r1
	...
    18c4:	58000000 	stmdapl	r0, {}	; <UNPREDICTABLE>
    18c8:	63000001 	movwvs	r0, #1
    18cc:	01000001 	tsteq	r0, r1
    18d0:	01635000 	cmneq	r3, r0
    18d4:	01880000 	orreq	r0, r8, r0
    18d8:	00010000 	andeq	r0, r1, r0
    18dc:	00000054 	andeq	r0, r0, r4, asr r0
    18e0:	00000000 	andeq	r0, r0, r0
    18e4:	48000000 	stmdami	r0, {}	; <UNPREDICTABLE>
    18e8:	58000001 	stmdapl	r0, {r0}
    18ec:	01000001 	tsteq	r0, r1
    18f0:	00005400 	andeq	r5, r0, r0, lsl #8
	...
    1900:	000f0000 	andeq	r0, pc, r0
    1904:	00010000 	andeq	r0, r1, r0
    1908:	00000f50 	andeq	r0, r0, r0, asr pc
    190c:	00002000 	andeq	r2, r0, r0
    1910:	54000100 	strpl	r0, [r0], #-256	; 0xffffff00
	...
    1924:	0000000f 	andeq	r0, r0, pc
    1928:	0f510001 	svceq	0x00510001
    192c:	20000000 	andcs	r0, r0, r0
    1930:	01000000 	mrseq	r0, (UNDEF: 0)
    1934:	00005500 	andeq	r5, r0, r0, lsl #10
	...
    1940:	00200000 	eoreq	r0, r0, r0
    1944:	002f0000 	eoreq	r0, pc, r0
    1948:	00010000 	andeq	r0, r1, r0
    194c:	00002f50 	andeq	r2, r0, r0, asr pc
    1950:	00004000 	andeq	r4, r0, r0
    1954:	54000100 	strpl	r0, [r0], #-256	; 0xffffff00
	...
    1964:	00000020 	andeq	r0, r0, r0, lsr #32
    1968:	0000002f 	andeq	r0, r0, pc, lsr #32
    196c:	2f510001 	svccs	0x00510001
    1970:	40000000 	andmi	r0, r0, r0
    1974:	01000000 	mrseq	r0, (UNDEF: 0)
    1978:	00005500 	andeq	r5, r0, r0, lsl #10
	...
    1988:	00000350 	andeq	r0, r0, r0, asr r3
    198c:	00000398 	muleq	r0, r8, r3
    1990:	98500001 	ldmdals	r0, {r0}^
    1994:	9b000003 	blls	19a8 <__code_start__-0x6658>
    1998:	02000003 	andeq	r0, r0, #3, 0
    199c:	9b689100 	blls	1a25da4 <__bss_end__+0x1a1ae44>
    19a0:	b0000003 	andlt	r0, r0, r3
    19a4:	04000003 	streq	r0, [r0], #-3
    19a8:	5001f300 	andpl	pc, r1, r0, lsl #6
    19ac:	0000009f 	muleq	r0, pc, r0	; <UNPREDICTABLE>
	...
    19c8:	00022000 	andeq	r2, r2, r0
    19cc:	00027b00 	andeq	r7, r2, r0, lsl #22
    19d0:	50000100 	andpl	r0, r0, r0, lsl #2
    19d4:	0000027b 	andeq	r0, r0, fp, ror r2
    19d8:	00000284 	andeq	r0, r0, r4, lsl #5
    19dc:	01f30004 	mvnseq	r0, r4
    19e0:	02849f50 	addeq	r9, r4, #80, 30	; 0x140
    19e4:	029c0000 	addseq	r0, ip, #0, 0
    19e8:	00010000 	andeq	r0, r1, r0
    19ec:	00029c50 	andeq	r9, r2, r0, asr ip
    19f0:	0002a400 	andeq	sl, r2, r0, lsl #8
    19f4:	f3000400 	vshl.u8	d0, d0, d0
    19f8:	a49f5001 	ldrge	r5, [pc], #1	; 1a00 <__code_start__-0x6600>
    19fc:	a7000002 	strge	r0, [r0, -r2]
    1a00:	01000002 	tsteq	r0, r2
    1a04:	02a75000 	adceq	r5, r7, #0, 0
    1a08:	02c80000 	sbceq	r0, r8, #0, 0
    1a0c:	00040000 	andeq	r0, r4, r0
    1a10:	9f5001f3 	svcls	0x005001f3
    1a14:	000002c8 	andeq	r0, r0, r8, asr #5
    1a18:	000002e0 	andeq	r0, r0, r0, ror #5
    1a1c:	e0500001 	subs	r0, r0, r1
    1a20:	e8000002 	stmda	r0, {r1}
    1a24:	04000002 	streq	r0, [r0], #-2
    1a28:	5001f300 	andpl	pc, r1, r0, lsl #6
    1a2c:	0002e89f 	muleq	r2, pc, r8	; <UNPREDICTABLE>
    1a30:	0002eb00 	andeq	lr, r2, r0, lsl #22
    1a34:	50000100 	andpl	r0, r0, r0, lsl #2
    1a38:	000002eb 	andeq	r0, r0, fp, ror #5
    1a3c:	00000338 	andeq	r0, r0, r8, lsr r3
    1a40:	01f30004 	mvnseq	r0, r4
    1a44:	00009f50 	andeq	r9, r0, r0, asr pc
	...
    1a60:	02200000 	eoreq	r0, r0, #0, 0
    1a64:	02440000 	subeq	r0, r4, #0, 0
    1a68:	00010000 	andeq	r0, r1, r0
    1a6c:	00024451 	andeq	r4, r2, r1, asr r4
    1a70:	00026800 	andeq	r6, r2, r0, lsl #16
    1a74:	51000100 	mrspl	r0, (UNDEF: 16)
    1a78:	00000268 	andeq	r0, r0, r8, ror #4
    1a7c:	0000027b 	andeq	r0, r0, fp, ror r2
    1a80:	01710003 	cmneq	r1, r3
    1a84:	00027b9f 	muleq	r2, pc, fp	; <UNPREDICTABLE>
    1a88:	00028400 	andeq	r8, r2, r0, lsl #8
    1a8c:	38001700 	stmdacc	r0, {r8, r9, sl, ip}
    1a90:	f35101f3 	vbsl	q8, <illegal reg q8.5>, <illegal reg q9.5>
    1a94:	4b405101 	blmi	1015ea0 <__bss_end__+0x100af40>
    1a98:	080c2224 	stmdaeq	ip, {r2, r5, r9, sp}
    1a9c:	2d800000 	stccs	0, cr0, [r0]
    1aa0:	16000128 	strne	r0, [r0], -r8, lsr #2
    1aa4:	02849f13 	addeq	r9, r4, #76	; 0x4c
    1aa8:	02980000 	addseq	r0, r8, #0, 0
    1aac:	00010000 	andeq	r0, r1, r0
    1ab0:	00029851 	andeq	r9, r2, r1, asr r8
    1ab4:	0002a400 	andeq	sl, r2, r0, lsl #8
    1ab8:	f3000400 	vshl.u8	d0, d0, d0
    1abc:	a49f5101 	ldrge	r5, [pc], #257	; 1ac4 <__code_start__-0x653c>
    1ac0:	a7000002 	strge	r0, [r0, -r2]
    1ac4:	01000002 	tsteq	r0, r2
    1ac8:	02a75100 	adceq	r5, r7, #0
    1acc:	02c80000 	sbceq	r0, r8, #0, 0
    1ad0:	00040000 	andeq	r0, r4, r0
    1ad4:	9f5101f3 	svcls	0x005101f3
    1ad8:	000002c8 	andeq	r0, r0, r8, asr #5
    1adc:	000002dc 	ldrdeq	r0, [r0], -ip
    1ae0:	dc510001 	mrrcle	0, 0, r0, r1, cr1
    1ae4:	38000002 	stmdacc	r0, {r1}
    1ae8:	17000003 	strne	r0, [r0, -r3]
    1aec:	01f33800 	mvnseq	r3, r0, lsl #16
    1af0:	5101f351 	tstpl	r1, r1, asr r3	; <UNPREDICTABLE>
    1af4:	22244b40 	eorcs	r4, r4, #64, 22	; 0x10000
    1af8:	0000080c 	andeq	r0, r0, ip, lsl #16
    1afc:	01282d80 	smlawbeq	r8, r0, sp, r2
    1b00:	9f131600 	svcls	0x00131600
	...
    1b18:	0000024c 	andeq	r0, r0, ip, asr #4
    1b1c:	0000025c 	andeq	r0, r0, ip, asr r2
    1b20:	5c520001 	mrrcpl	0, 0, r0, r2, cr1
    1b24:	64000002 	strvs	r0, [r0], #-2
    1b28:	05000002 	streq	r0, [r0, #-2]
    1b2c:	ab240300 	blge	902734 <__bss_end__+0x8f77d4>
    1b30:	02640000 	rsbeq	r0, r4, #0, 0
    1b34:	027b0000 	rsbseq	r0, fp, #0, 0
    1b38:	00010000 	andeq	r0, r1, r0
    1b3c:	0002c853 	andeq	ip, r2, r3, asr r8
    1b40:	0002d800 	andeq	sp, r2, r0, lsl #16
    1b44:	52000100 	andpl	r0, r0, #0
    1b48:	000002d8 	ldrdeq	r0, [r0], -r8
    1b4c:	000002e3 	andeq	r0, r0, r3, ror #5
    1b50:	24030005 	strcs	r0, [r3], #-5
    1b54:	e80000ab 	stmda	r0, {r0, r1, r3, r5, r7}
    1b58:	eb000002 	bl	1b68 <__code_start__-0x6498>
    1b5c:	01000002 	tsteq	r0, r2
    1b60:	00005300 	andeq	r5, r0, r0, lsl #6
    1b64:	00000000 	andeq	r0, r0, r0
    1b68:	00040000 	andeq	r0, r4, r0
    1b6c:	00000230 	andeq	r0, r0, r0, lsr r2
    1b70:	00000234 	andeq	r0, r0, r4, lsr r2
    1b74:	00510001 	subseq	r0, r1, r1
    1b78:	00000000 	andeq	r0, r0, r0
    1b7c:	02000000 	andeq	r0, r0, #0, 0
    1b80:	00023c00 	andeq	r3, r2, r0, lsl #24
    1b84:	00024400 	andeq	r4, r2, r0, lsl #8
    1b88:	38000200 	stmdacc	r0, {r9}
    1b8c:	0000009f 	muleq	r0, pc, r0	; <UNPREDICTABLE>
    1b90:	00000000 	andeq	r0, r0, r0
    1b94:	3c000200 	sfmcc	f0, 4, [r0], {-0}
    1b98:	44000002 	strmi	r0, [r0], #-2
    1b9c:	01000002 	tsteq	r0, r2
    1ba0:	00005100 	andeq	r5, r0, r0, lsl #2
    1ba4:	00000000 	andeq	r0, r0, r0
    1ba8:	00010000 	andeq	r0, r1, r0
    1bac:	00000000 	andeq	r0, r0, r0
    1bb0:	0000024c 	andeq	r0, r0, ip, asr #4
    1bb4:	00000264 	andeq	r0, r0, r4, ror #4
    1bb8:	c8510001 	ldmdagt	r1, {r0}^
    1bbc:	dc000002 	stcle	0, cr0, [r0], {2}
    1bc0:	01000002 	tsteq	r0, r2
    1bc4:	02dc5100 	sbcseq	r5, ip, #0
    1bc8:	02e80000 	rsceq	r0, r8, #0, 0
    1bcc:	00170000 	andseq	r0, r7, r0
    1bd0:	5101f338 	tstpl	r1, r8, lsr r3	; <UNPREDICTABLE>
    1bd4:	405101f3 	ldrshmi	r0, [r1], #-19	; 0xffffffed
    1bd8:	0c22244b 	cfstrseq	mvf2, [r2], #-300	; 0xfffffed4
    1bdc:	80000008 	andhi	r0, r0, r8
    1be0:	0001282d 	andeq	r2, r1, sp, lsr #16
    1be4:	009f1316 	addseq	r1, pc, r6, lsl r3	; <UNPREDICTABLE>
    1be8:	00000000 	andeq	r0, r0, r0
    1bec:	01000000 	mrseq	r0, (UNDEF: 0)
    1bf0:	00000000 	andeq	r0, r0, r0
    1bf4:	4c000000 	stcmi	0, cr0, [r0], {-0}
    1bf8:	5c000002 	stcpl	0, cr0, [r0], {2}
    1bfc:	01000002 	tsteq	r0, r2
    1c00:	025c5200 	subseq	r5, ip, #0, 4
    1c04:	02640000 	rsbeq	r0, r4, #0, 0
    1c08:	00050000 	andeq	r0, r5, r0
    1c0c:	00ab2403 	adceq	r2, fp, r3, lsl #8
    1c10:	0002c800 	andeq	ip, r2, r0, lsl #16
    1c14:	0002d800 	andeq	sp, r2, r0, lsl #16
    1c18:	52000100 	andpl	r0, r0, #0
    1c1c:	000002d8 	ldrdeq	r0, [r0], -r8
    1c20:	000002e3 	andeq	r0, r0, r3, ror #5
    1c24:	24030005 	strcs	r0, [r3], #-5
    1c28:	000000ab 	andeq	r0, r0, fp, lsr #1
    1c2c:	00000000 	andeq	r0, r0, r0
    1c30:	04000000 	streq	r0, [r0], #-0
    1c34:	00024c00 	andeq	r4, r2, r0, lsl #24
    1c38:	00025000 	andeq	r5, r2, r0
    1c3c:	51000100 	mrspl	r0, (UNDEF: 16)
	...
    1c48:	02640003 	rsbeq	r0, r4, #3, 0
    1c4c:	02680000 	rsbeq	r0, r8, #0, 0
    1c50:	00010000 	andeq	r0, r1, r0
    1c54:	00000051 	andeq	r0, r0, r1, asr r0
    1c58:	00000000 	andeq	r0, r0, r0
    1c5c:	64000300 	strvs	r0, [r0], #-768	; 0xfffffd00
    1c60:	68000002 	stmdavs	r0, {r1}
    1c64:	01000002 	tsteq	r0, r2
    1c68:	00005300 	andeq	r5, r0, r0, lsl #6
	...
    1c78:	01bc0000 			; <UNDEFINED> instruction: 0x01bc0000
    1c7c:	01d30000 	bicseq	r0, r3, r0
    1c80:	00010000 	andeq	r0, r1, r0
    1c84:	0001d350 	andeq	sp, r1, r0, asr r3
    1c88:	0001f000 	andeq	pc, r1, r0
    1c8c:	54000100 	strpl	r0, [r0], #-256	; 0xffffff00
    1c90:	000001f0 	strdeq	r0, [r0], -r0	; <UNPREDICTABLE>
    1c94:	00000208 	andeq	r0, r0, r8, lsl #4
    1c98:	08500001 	ldmdaeq	r0, {r0}^
    1c9c:	20000002 	andcs	r0, r0, r2
    1ca0:	01000002 	tsteq	r0, r2
    1ca4:	00005400 	andeq	r5, r0, r0, lsl #8
	...
    1cb0:	01d80000 	bicseq	r0, r8, r0
    1cb4:	01e30000 	mvneq	r0, r0
    1cb8:	00010000 	andeq	r0, r1, r0
    1cbc:	0001e350 	andeq	lr, r1, r0, asr r3
    1cc0:	0001f000 	andeq	pc, r1, r0
    1cc4:	55000100 	strpl	r0, [r0, #-256]	; 0xffffff00
	...
    1ce0:	00000124 	andeq	r0, r0, r4, lsr #2
    1ce4:	00000138 	andeq	r0, r0, r8, lsr r1
    1ce8:	38500001 	ldmdacc	r0, {r0}^
    1cec:	3c000001 	stccc	0, cr0, [r0], {1}
    1cf0:	03000001 	movweq	r0, #1
    1cf4:	9f797000 	svcls	0x00797000
    1cf8:	0000013c 	andeq	r0, r0, ip, lsr r1
    1cfc:	00000160 	andeq	r0, r0, r0, ror #2
    1d00:	60530001 	subsvs	r0, r3, r1
    1d04:	78000001 	stmdavc	r0, {r0}
    1d08:	01000001 	tsteq	r0, r1
    1d0c:	01785000 	cmneq	r8, r0
    1d10:	01800000 	orreq	r0, r0, r0
    1d14:	00040000 	andeq	r0, r4, r0
    1d18:	9f5001f3 	svcls	0x005001f3
    1d1c:	00000180 	andeq	r0, r0, r0, lsl #3
    1d20:	00000190 	muleq	r0, r0, r1
    1d24:	90530001 	subsls	r0, r3, r1
    1d28:	9f000001 	svcls	0x00000001
    1d2c:	02000001 	andeq	r0, r0, #1, 0
    1d30:	9f689100 	svcls	0x00689100
    1d34:	bc000001 	stclt	0, cr0, [r0], {1}
    1d38:	09000001 	stmdbeq	r0, {r0}
    1d3c:	5001f300 	andpl	pc, r1, r0, lsl #6
    1d40:	f8090723 			; <UNDEFINED> instruction: 0xf8090723
    1d44:	00009f1a 	andeq	r9, r0, sl, lsl pc
	...
    1d54:	00000144 	andeq	r0, r0, r4, asr #2
    1d58:	00000160 	andeq	r0, r0, r0, ror #2
    1d5c:	80500001 	subshi	r0, r0, r1
    1d60:	9c000001 	stcls	0, cr0, [r0], {1}
    1d64:	01000001 	tsteq	r0, r1
    1d68:	019c5000 	orrseq	r5, ip, r0
    1d6c:	019f0000 	orrseq	r0, pc, r0
    1d70:	00050000 	andeq	r0, r5, r0
    1d74:	00ab2403 	adceq	r2, fp, r3, lsl #8
	...
    1d80:	34000300 	strcc	r0, [r0], #-768	; 0xfffffd00
    1d84:	3c000001 	stccc	0, cr0, [r0], {1}
    1d88:	02000001 	andeq	r0, r0, #1, 0
    1d8c:	009f3800 	addseq	r3, pc, r0, lsl #16
    1d90:	00000000 	andeq	r0, r0, r0
    1d94:	03000000 	movweq	r0, #0
    1d98:	34000000 	strcc	r0, [r0], #-0
    1d9c:	38000001 	stmdacc	r0, {r0}
    1da0:	01000001 	tsteq	r0, r1
    1da4:	01385000 	teqeq	r8, r0
    1da8:	013c0000 	teqeq	ip, r0
    1dac:	00030000 	andeq	r0, r3, r0
    1db0:	009f7970 	addseq	r7, pc, r0, ror r9	; <UNPREDICTABLE>
	...
    1dc8:	00003000 	andeq	r3, r0, r0
    1dcc:	00006000 	andeq	r6, r0, r0
    1dd0:	50000100 	andpl	r0, r0, r0, lsl #2
    1dd4:	00000060 	andeq	r0, r0, r0, rrx
    1dd8:	0000006c 	andeq	r0, r0, ip, rrx
    1ddc:	24030005 	strcs	r0, [r3], #-5
    1de0:	6c0000ab 	stcvs	0, cr0, [r0], {171}	; 0xab
    1de4:	84000000 	strhi	r0, [r0], #-0
    1de8:	01000000 	mrseq	r0, (UNDEF: 0)
    1dec:	00845000 	addeq	r5, r4, r0
    1df0:	008c0000 	addeq	r0, ip, r0
    1df4:	00040000 	andeq	r0, r4, r0
    1df8:	9f5001f3 	svcls	0x005001f3
    1dfc:	0000008c 	andeq	r0, r0, ip, lsl #1
    1e00:	000000ac 	andeq	r0, r0, ip, lsr #1
    1e04:	ac500001 	mrrcge	0, 0, r0, r0, cr1	; <UNPREDICTABLE>
    1e08:	af000000 	svcge	0x00000000
    1e0c:	02000000 	andeq	r0, r0, #0, 0
    1e10:	af689100 	svcge	0x00689100
    1e14:	cc000000 	stcgt	0, cr0, [r0], {-0}
    1e18:	04000000 	streq	r0, [r0], #-0
    1e1c:	5001f300 	andpl	pc, r1, r0, lsl #6
    1e20:	0000009f 	muleq	r0, pc, r0	; <UNPREDICTABLE>
	...
    1e30:	00003000 	andeq	r3, r0, r0
    1e34:	00008000 	andeq	r8, r0, r0
    1e38:	51000100 	mrspl	r0, (UNDEF: 16)
    1e3c:	00000080 	andeq	r0, r0, r0, lsl #1
    1e40:	0000008c 	andeq	r0, r0, ip, lsl #1
    1e44:	01f30004 	mvnseq	r0, r4
    1e48:	008c9f51 	addeq	r9, ip, r1, asr pc
    1e4c:	00a80000 	adceq	r0, r8, r0
    1e50:	00010000 	andeq	r0, r1, r0
    1e54:	0000a851 	andeq	sl, r0, r1, asr r8
    1e58:	0000cc00 	andeq	ip, r0, r0, lsl #24
    1e5c:	f3000400 	vshl.u8	d0, d0, d0
    1e60:	009f5101 	addseq	r5, pc, r1, lsl #2
    1e64:	00000000 	andeq	r0, r0, r0
    1e68:	01000000 	mrseq	r0, (UNDEF: 0)
	...
    1e78:	00003800 	andeq	r3, r0, r0, lsl #16
    1e7c:	00006000 	andeq	r6, r0, r0
    1e80:	50000100 	andpl	r0, r0, r0, lsl #2
    1e84:	00000060 	andeq	r0, r0, r0, rrx
    1e88:	0000006c 	andeq	r0, r0, ip, rrx
    1e8c:	24030005 	strcs	r0, [r3], #-5
    1e90:	6c0000ab 	stcvs	0, cr0, [r0], {171}	; 0xab
    1e94:	84000000 	strhi	r0, [r0], #-0
    1e98:	01000000 	mrseq	r0, (UNDEF: 0)
    1e9c:	00845000 	addeq	r5, r4, r0
    1ea0:	008c0000 	addeq	r0, ip, r0
    1ea4:	00040000 	andeq	r0, r4, r0
    1ea8:	9f5001f3 	svcls	0x005001f3
    1eac:	0000008c 	andeq	r0, r0, ip, lsl #1
    1eb0:	000000ac 	andeq	r0, r0, ip, lsr #1
    1eb4:	ac500001 	mrrcge	0, 0, r0, r0, cr1	; <UNPREDICTABLE>
    1eb8:	af000000 	svcge	0x00000000
    1ebc:	02000000 	andeq	r0, r0, #0, 0
    1ec0:	af689100 	svcge	0x00689100
    1ec4:	cc000000 	stcgt	0, cr0, [r0], {-0}
    1ec8:	04000000 	streq	r0, [r0], #-0
    1ecc:	5001f300 	andpl	pc, r1, r0, lsl #6
    1ed0:	0000009f 	muleq	r0, pc, r0	; <UNPREDICTABLE>
	...
    1ee0:	00000b00 	andeq	r0, r0, r0, lsl #22
    1ee4:	50000100 	andpl	r0, r0, r0, lsl #2
    1ee8:	0000000b 	andeq	r0, r0, fp
    1eec:	00000014 	andeq	r0, r0, r4, lsl r0
    1ef0:	00540001 	subseq	r0, r4, r1
	...
    1f00:	1c000000 	stcne	0, cr0, [r0], {-0}
    1f04:	01000000 	mrseq	r0, (UNDEF: 0)
    1f08:	001c5100 	andseq	r5, ip, r0, lsl #2
    1f0c:	00340000 	eorseq	r0, r4, r0
    1f10:	00040000 	andeq	r0, r4, r0
    1f14:	9f5101f3 	svcls	0x005101f3
	...
    1f20:	00000002 	andeq	r0, r0, r2
    1f24:	00010100 	andeq	r0, r1, r0, lsl #2
    1f28:	00000000 	andeq	r0, r0, r0
    1f2c:	00040000 	andeq	r0, r4, r0
    1f30:	00010000 	andeq	r0, r1, r0
    1f34:	00000450 	andeq	r0, r0, r0, asr r4
    1f38:	00001c00 	andeq	r1, r0, r0, lsl #24
    1f3c:	52000100 	andpl	r0, r0, #0
    1f40:	0000001c 	andeq	r0, r0, ip, lsl r0
    1f44:	00000024 	andeq	r0, r0, r4, lsr #32
    1f48:	24530001 	ldrbcs	r0, [r3], #-1
    1f4c:	28000000 	stmdacs	r0, {}	; <UNPREDICTABLE>
    1f50:	03000000 	movweq	r0, #0
    1f54:	9f017300 	svcls	0x00017300
    1f58:	00000028 	andeq	r0, r0, r8, lsr #32
    1f5c:	00000034 	andeq	r0, r0, r4, lsr r0
    1f60:	00530001 	subseq	r0, r3, r1
    1f64:	00000000 	andeq	r0, r0, r0
    1f68:	03000000 	movweq	r0, #0
    1f6c:	00000000 	andeq	r0, r0, r0
    1f70:	24000000 	strcs	r0, [r0], #-0
    1f74:	01000000 	mrseq	r0, (UNDEF: 0)
    1f78:	00245100 	eoreq	r5, r4, r0, lsl #2
    1f7c:	00340000 	eorseq	r0, r4, r0
    1f80:	00030000 	andeq	r0, r3, r0
    1f84:	009f7f71 	addseq	r7, pc, r1, ror pc	; <UNPREDICTABLE>
	...
    1f90:	10000000 	andne	r0, r0, r0
    1f94:	1c000000 	stcne	0, cr0, [r0], {-0}
    1f98:	01000000 	mrseq	r0, (UNDEF: 0)
    1f9c:	00245c00 	eoreq	r5, r4, r0, lsl #24
    1fa0:	00340000 	eorseq	r0, r4, r0
    1fa4:	00010000 	andeq	r0, r1, r0
    1fa8:	00000052 	andeq	r0, r0, r2, asr r0
	...
    1fb8:	00001800 	andeq	r1, r0, r0, lsl #16
    1fbc:	50000100 	andpl	r0, r0, r0, lsl #2
    1fc0:	00000018 	andeq	r0, r0, r8, lsl r0
    1fc4:	00000024 	andeq	r0, r0, r4, lsr #32
    1fc8:	00500001 	subseq	r0, r0, r1
	...
    1fd8:	1c000000 	stcne	0, cr0, [r0], {-0}
    1fdc:	01000000 	mrseq	r0, (UNDEF: 0)
    1fe0:	001c5100 	andseq	r5, ip, r0, lsl #2
    1fe4:	002c0000 	eoreq	r0, ip, r0
    1fe8:	00010000 	andeq	r0, r1, r0
    1fec:	00000051 	andeq	r0, r0, r1, asr r0
	...
    1ffc:	04000000 	streq	r0, [r0], #-0
    2000:	01000000 	mrseq	r0, (UNDEF: 0)
    2004:	00045100 	andeq	r5, r4, r0, lsl #2
    2008:	000c0000 	andeq	r0, ip, r0
    200c:	00010000 	andeq	r0, r1, r0
    2010:	00000c51 	andeq	r0, r0, r1, asr ip
    2014:	00002000 	andeq	r2, r0, r0
    2018:	71000300 	mrsvc	r0, LR_irq
    201c:	00009f7f 	andeq	r9, r0, pc, ror pc
    2020:	00000000 	andeq	r0, r0, r0
    2024:	00020000 	andeq	r0, r2, r0
	...
    2030:	00000004 	andeq	r0, r0, r4
    2034:	04500001 	ldrbeq	r0, [r0], #-1
    2038:	14000000 	strne	r0, [r0], #-0
    203c:	01000000 	mrseq	r0, (UNDEF: 0)
    2040:	00145c00 	andseq	r5, r4, r0, lsl #24
    2044:	00200000 	eoreq	r0, r0, r0
    2048:	00030000 	andeq	r0, r3, r0
    204c:	009f7f7c 	addseq	r7, pc, ip, ror pc	; <UNPREDICTABLE>
	...
    2058:	08000303 	stmdaeq	r0, {r0, r1, r8, r9}
    205c:	0800009f 	stmdaeq	r0, {r0, r1, r2, r3, r4, r7}
    2060:	0100009f 	swpeq	r0, pc, [r0]	; <UNPREDICTABLE>
    2064:	9f085000 	svcls	0x00085000
    2068:	9f340000 	svcls	0x00340000
    206c:	00040000 	andeq	r0, r4, r0
    2070:	9f5001f3 	svcls	0x005001f3
	...
    207c:	00030300 	andeq	r0, r3, r0, lsl #6
    2080:	00009f08 	andeq	r9, r0, r8, lsl #30
    2084:	00009f08 	andeq	r9, r0, r8, lsl #30
    2088:	08510001 	ldmdaeq	r1, {r0}^
    208c:	3400009f 	strcc	r0, [r0], #-159	; 0xffffff61
    2090:	0400009f 	streq	r0, [r0], #-159	; 0xffffff61
    2094:	5101f300 	mrspl	pc, SP_irq	; <UNPREDICTABLE>
    2098:	0000009f 	muleq	r0, pc, r0	; <UNPREDICTABLE>
    209c:	00000000 	andeq	r0, r0, r0
    20a0:	03030000 	movweq	r0, #12288	; 0x3000
    20a4:	08000000 	stmdaeq	r0, {}	; <UNPREDICTABLE>
    20a8:	0800009f 	stmdaeq	r0, {r0, r1, r2, r3, r4, r7}
    20ac:	0100009f 	swpeq	r0, pc, [r0]	; <UNPREDICTABLE>
    20b0:	9f085200 	svcls	0x00085200
    20b4:	9f100000 	svcls	0x00100000
    20b8:	00010000 	andeq	r0, r1, r0
    20bc:	009f1052 	addseq	r1, pc, r2, asr r0	; <UNPREDICTABLE>
    20c0:	009f3400 	addseq	r3, pc, r0, lsl #8
    20c4:	72000300 	andvc	r0, r0, #0, 6
    20c8:	00009f01 	andeq	r9, r0, r1, lsl #30
    20cc:	00000000 	andeq	r0, r0, r0
    20d0:	01020000 	mrseq	r0, (UNDEF: 2)
    20d4:	00000001 	andeq	r0, r0, r1
    20d8:	9f080000 	svcls	0x00080000
    20dc:	9f140000 	svcls	0x00140000
    20e0:	00010000 	andeq	r0, r1, r0
    20e4:	009f1450 	addseq	r1, pc, r0, asr r4	; <UNPREDICTABLE>
    20e8:	009f1800 	addseq	r1, pc, r0, lsl #16
    20ec:	70000300 	andvc	r0, r0, r0, lsl #6
    20f0:	9f189f01 	svcls	0x00189f01
    20f4:	9f280000 	svcls	0x00280000
    20f8:	00010000 	andeq	r0, r1, r0
    20fc:	009f2c50 	addseq	r2, pc, r0, asr ip	; <UNPREDICTABLE>
    2100:	009f3000 	addseq	r3, pc, r0
    2104:	50000100 	andpl	r0, r0, r0, lsl #2
	...
    2110:	00000002 	andeq	r0, r0, r2
    2114:	9f080000 	svcls	0x00080000
    2118:	9f180000 	svcls	0x00180000
    211c:	00010000 	andeq	r0, r1, r0
    2120:	009f1851 	addseq	r1, pc, r1, asr r8	; <UNPREDICTABLE>
    2124:	009f1c00 	addseq	r1, pc, r0, lsl #24
    2128:	71000300 	mrsvc	r0, LR_irq
    212c:	9f1c9f01 	svcls	0x001c9f01
    2130:	9f340000 	svcls	0x00340000
    2134:	00010000 	andeq	r0, r1, r0
    2138:	00000051 	andeq	r0, r0, r1, asr r0
	...
    2148:	0000e800 	andeq	lr, r0, r0, lsl #16
    214c:	00010000 	andeq	r0, r1, r0
    2150:	50000100 	andpl	r0, r0, r0, lsl #2
    2154:	00000100 	andeq	r0, r0, r0, lsl #2
    2158:	00000110 	andeq	r0, r0, r0, lsl r1
    215c:	01f30004 	mvnseq	r0, r4
    2160:	01109f50 	tsteq	r0, r0, asr pc
    2164:	01140000 	tsteq	r4, r0
    2168:	00010000 	andeq	r0, r1, r0
    216c:	00011450 	andeq	r1, r1, r0, asr r4
    2170:	00011c00 	andeq	r1, r1, r0, lsl #24
    2174:	f3000400 	vshl.u8	d0, d0, d0
    2178:	009f5001 	addseq	r5, pc, r1
    217c:	00000000 	andeq	r0, r0, r0
    2180:	01000000 	mrseq	r0, (UNDEF: 0)
    2184:	00000000 	andeq	r0, r0, r0
    2188:	0000f400 	andeq	pc, r0, r0, lsl #8
    218c:	00010000 	andeq	r0, r1, r0
    2190:	70000b00 	andvc	r0, r0, r0, lsl #22
    2194:	23253500 			; <UNDEFINED> instruction: 0x23253500
    2198:	818080b4 	strhhi	r8, [r0, r4]
    219c:	01009f02 	tsteq	r0, r2, lsl #30
    21a0:	01030000 	mrseq	r0, (UNDEF: 3)
    21a4:	00010000 	andeq	r0, r1, r0
    21a8:	00010350 	andeq	r0, r1, r0, asr r3
    21ac:	00011000 	andeq	r1, r1, r0
    21b0:	f3000c00 			; <UNDEFINED> instruction: 0xf3000c00
    21b4:	25355001 	ldrcs	r5, [r5, #-1]!
    21b8:	8080b423 	addhi	fp, r0, r3, lsr #8
    21bc:	009f0281 	addseq	r0, pc, r1, lsl #5
	...
    21c8:	0000f800 	andeq	pc, r0, r0, lsl #16
    21cc:	00011000 	andeq	r1, r1, r0
    21d0:	54000100 	strpl	r0, [r0], #-256	; 0xffffff00
	...
    21e4:	000000cc 	andeq	r0, r0, ip, asr #1
    21e8:	000000db 	ldrdeq	r0, [r0], -fp
    21ec:	db500001 	blle	14021f8 <__bss_end__+0x13f7298>
    21f0:	e0000000 	and	r0, r0, r0
    21f4:	04000000 	streq	r0, [r0], #-0
    21f8:	5001f300 	andpl	pc, r1, r0, lsl #6
    21fc:	0000e09f 	muleq	r0, pc, r0	; <UNPREDICTABLE>
    2200:	0000e300 	andeq	lr, r0, r0, lsl #6
    2204:	50000100 	andpl	r0, r0, r0, lsl #2
    2208:	000000e3 	andeq	r0, r0, r3, ror #1
    220c:	000000e8 	andeq	r0, r0, r8, ror #1
    2210:	01f30004 	mvnseq	r0, r4
    2214:	00009f50 	andeq	r9, r0, r0, asr pc
	...
    2224:	00cc0000 	sbceq	r0, ip, r0
    2228:	00db0000 	sbcseq	r0, fp, r0
    222c:	00010000 	andeq	r0, r1, r0
    2230:	0000db51 	andeq	sp, r0, r1, asr fp
    2234:	0000e000 	andeq	lr, r0, r0
    2238:	f3000400 	vshl.u8	d0, d0, d0
    223c:	e09f5101 	adds	r5, pc, r1, lsl #2
    2240:	e3000000 	movw	r0, #0
    2244:	01000000 	mrseq	r0, (UNDEF: 0)
    2248:	00e35100 	rsceq	r5, r3, r0, lsl #2
    224c:	00e80000 	rsceq	r0, r8, r0
    2250:	00040000 	andeq	r0, r4, r0
    2254:	9f5101f3 	svcls	0x005101f3
	...
    2264:	000000bc 	strheq	r0, [r0], -ip
    2268:	000000c7 	andeq	r0, r0, r7, asr #1
    226c:	c7500001 	ldrbgt	r0, [r0, -r1]
    2270:	cc000000 	stcgt	0, cr0, [r0], {-0}
    2274:	04000000 	streq	r0, [r0], #-0
    2278:	5001f300 	andpl	pc, r1, r0, lsl #6
    227c:	0000009f 	muleq	r0, pc, r0	; <UNPREDICTABLE>
	...
    2288:	00009800 	andeq	r9, r0, r0, lsl #16
    228c:	0000b000 	andeq	fp, r0, r0
    2290:	50000100 	andpl	r0, r0, r0, lsl #2
    2294:	000000b0 	strheq	r0, [r0], -r0	; <UNPREDICTABLE>
    2298:	000000bc 	strheq	r0, [r0], -ip
    229c:	01f30004 	mvnseq	r0, r4
    22a0:	00009f50 	andeq	r9, r0, r0, asr pc
	...
    22ac:	00740000 	rsbseq	r0, r4, r0
    22b0:	008c0000 	addeq	r0, ip, r0
    22b4:	00010000 	andeq	r0, r1, r0
    22b8:	00008c50 	andeq	r8, r0, r0, asr ip
    22bc:	00009800 	andeq	r9, r0, r0, lsl #16
    22c0:	f3000400 	vshl.u8	d0, d0, d0
    22c4:	009f5001 	addseq	r5, pc, r1
	...
    22d0:	64000000 	strvs	r0, [r0], #-0
    22d4:	6f000000 	svcvs	0x00000000
    22d8:	01000000 	mrseq	r0, (UNDEF: 0)
    22dc:	006f5000 	rsbeq	r5, pc, r0
    22e0:	00740000 	rsbseq	r0, r4, r0
    22e4:	00040000 	andeq	r0, r4, r0
    22e8:	9f5001f3 	svcls	0x005001f3
	...
    22fc:	00000038 	andeq	r0, r0, r8, lsr r0
    2300:	38500001 	ldmdacc	r0, {r0}^
    2304:	64000000 	strvs	r0, [r0], #-0
    2308:	04000000 	streq	r0, [r0], #-0
    230c:	5001f300 	andpl	pc, r1, r0, lsl #6
    2310:	0000009f 	muleq	r0, pc, r0	; <UNPREDICTABLE>
	...
    2320:	00004700 	andeq	r4, r0, r0, lsl #14
    2324:	51000100 	mrspl	r0, (UNDEF: 16)
    2328:	00000047 	andeq	r0, r0, r7, asr #32
    232c:	00000064 	andeq	r0, r0, r4, rrx
    2330:	01f30004 	mvnseq	r0, r4
    2334:	00009f51 	andeq	r9, r0, r1, asr pc
	...
    2340:	00000034 	andeq	r0, r0, r4, lsr r0
    2344:	00000064 	andeq	r0, r0, r4, rrx
    2348:	00540001 	subseq	r0, r4, r1
	...
    2354:	00004000 	andeq	r4, r0, r0
    2358:	00006400 	andeq	r6, r0, r0, lsl #8
    235c:	56000100 	strpl	r0, [r0], -r0, lsl #2
	...
    2368:	01000000 	mrseq	r0, (UNDEF: 0)
    236c:	00000001 	andeq	r0, r0, r1
    2370:	00000048 	andeq	r0, r0, r8, asr #32
    2374:	00000050 	andeq	r0, r0, r0, asr r0
    2378:	50500001 	subspl	r0, r0, r1
    237c:	50000000 	andpl	r0, r0, r0
    2380:	01000000 	mrseq	r0, (UNDEF: 0)
    2384:	00505100 	subseq	r5, r0, r0, lsl #2
    2388:	00540000 	subseq	r0, r4, r0
    238c:	00090000 	andeq	r0, r9, r0
    2390:	00740075 	rsbseq	r0, r4, r5, ror r0
    2394:	21007124 	tstcs	r0, r4, lsr #2
    2398:	0000549f 	muleq	r0, pc, r4	; <UNPREDICTABLE>
    239c:	00005b00 	andeq	r5, r0, r0, lsl #22
    23a0:	51000100 	mrspl	r0, (UNDEF: 16)
	...

Disassembly of section .debug_aranges:

00000000 <.debug_aranges>:
   0:	0000001c 	andeq	r0, r0, ip, lsl r0
   4:	00000002 	andeq	r0, r0, r2
   8:	00040000 	andeq	r0, r4, r0
   c:	00000000 	andeq	r0, r0, r0
  10:	00008038 	andeq	r8, r0, r8, lsr r0
  14:	0000017c 	andeq	r0, r0, ip, ror r1
	...
  20:	0000001c 	andeq	r0, r0, ip, lsl r0
  24:	05ad0002 	streq	r0, [sp, #2]!
  28:	00040000 	andeq	r0, r4, r0
  2c:	00000000 	andeq	r0, r0, r0
  30:	000081b4 			; <UNDEFINED> instruction: 0x000081b4
  34:	0000052c 	andeq	r0, r0, ip, lsr #10
	...
  40:	0000001c 	andeq	r0, r0, ip, lsl r0
  44:	11980002 	orrsne	r0, r8, r2
  48:	00040000 	andeq	r0, r4, r0
  4c:	00000000 	andeq	r0, r0, r0
  50:	000086e0 	andeq	r8, r0, r0, ror #13
  54:	000005f4 	strdeq	r0, [r0], -r4
	...
  60:	0000001c 	andeq	r0, r0, ip, lsl r0
  64:	1dfd0002 	ldclne	0, cr0, [sp, #8]!
  68:	00040000 	andeq	r0, r4, r0
  6c:	00000000 	andeq	r0, r0, r0
  70:	00008d18 	andeq	r8, r0, r8, lsl sp
  74:	000001ac 	andeq	r0, r0, ip, lsr #3
	...
  80:	0000001c 	andeq	r0, r0, ip, lsl r0
  84:	20db0002 	sbcscs	r0, fp, r2
  88:	00040000 	andeq	r0, r4, r0
  8c:	00000000 	andeq	r0, r0, r0
  90:	00008ec4 	andeq	r8, r0, r4, asr #29
  94:	00000034 	andeq	r0, r0, r4, lsr r0
	...
  a0:	0000001c 	andeq	r0, r0, ip, lsl r0
  a4:	22620002 	rsbcs	r0, r2, #2, 0
  a8:	00040000 	andeq	r0, r4, r0
  ac:	00000000 	andeq	r0, r0, r0
  b0:	00008ef8 	strdeq	r8, [r0], -r8	; <UNPREDICTABLE>
  b4:	00000060 	andeq	r0, r0, r0, rrx
	...
  c0:	0000001c 	andeq	r0, r0, ip, lsl r0
  c4:	24600002 	strbtcs	r0, [r0], #-2
  c8:	00040000 	andeq	r0, r4, r0
  cc:	00000000 	andeq	r0, r0, r0
  d0:	00008f58 	andeq	r8, r0, r8, asr pc
  d4:	00000018 	andeq	r0, r0, r8, lsl r0
	...
  e0:	0000001c 	andeq	r0, r0, ip, lsl r0
  e4:	259e0002 	ldrcs	r0, [lr, #2]
  e8:	00040000 	andeq	r0, r4, r0
  ec:	00000000 	andeq	r0, r0, r0
  f0:	00008f70 	andeq	r8, r0, r0, ror pc
  f4:	00000058 	andeq	r0, r0, r8, asr r0
	...
 100:	0000001c 	andeq	r0, r0, ip, lsl r0
 104:	273f0002 	ldrcs	r0, [pc, -r2]!
 108:	00040000 	andeq	r0, r4, r0
 10c:	00000000 	andeq	r0, r0, r0
 110:	00008fc8 	andeq	r8, r0, r8, asr #31
 114:	00000034 	andeq	r0, r0, r4, lsr r0
	...
 120:	0000001c 	andeq	r0, r0, ip, lsl r0
 124:	28360002 	ldmdacs	r6!, {r1}
 128:	00040000 	andeq	r0, r4, r0
 12c:	00000000 	andeq	r0, r0, r0
 130:	00008ffc 	strdeq	r8, [r0], -ip
 134:	00000740 	andeq	r0, r0, r0, asr #14
	...
 140:	0000001c 	andeq	r0, r0, ip, lsl r0
 144:	33110002 	tstcc	r1, #2, 0
 148:	00040000 	andeq	r0, r4, r0
 14c:	00000000 	andeq	r0, r0, r0
 150:	0000973c 	andeq	r9, r0, ip, lsr r7
 154:	0000002c 	andeq	r0, r0, ip, lsr #32
	...
 160:	0000001c 	andeq	r0, r0, ip, lsl r0
 164:	34440002 	strbcc	r0, [r4], #-2
 168:	00040000 	andeq	r0, r4, r0
 16c:	00000000 	andeq	r0, r0, r0
 170:	00009768 	andeq	r9, r0, r8, ror #14
 174:	0000003c 	andeq	r0, r0, ip, lsr r0
	...
 180:	0000001c 	andeq	r0, r0, ip, lsl r0
 184:	35d10002 	ldrbcc	r0, [r1, #2]
 188:	00040000 	andeq	r0, r4, r0
 18c:	00000000 	andeq	r0, r0, r0
 190:	000097a4 	andeq	r9, r0, r4, lsr #15
 194:	00000004 	andeq	r0, r0, r4
	...
 1a0:	0000001c 	andeq	r0, r0, ip, lsl r0
 1a4:	36a30002 	strtcc	r0, [r3], r2
 1a8:	00040000 	andeq	r0, r4, r0
 1ac:	00000000 	andeq	r0, r0, r0
 1b0:	000097a8 	andeq	r9, r0, r8, lsr #15
 1b4:	00000080 	andeq	r0, r0, r0, lsl #1
	...
 1c0:	0000001c 	andeq	r0, r0, ip, lsl r0
 1c4:	38dd0002 	ldmcc	sp, {r1}^
 1c8:	00040000 	andeq	r0, r4, r0
 1cc:	00000000 	andeq	r0, r0, r0
 1d0:	00009828 	andeq	r9, r0, r8, lsr #16
 1d4:	00000084 	andeq	r0, r0, r4, lsl #1
	...
 1e0:	0000001c 	andeq	r0, r0, ip, lsl r0
 1e4:	3b2e0002 	blcc	b801f4 <__bss_end__+0xb75294>
 1e8:	00040000 	andeq	r0, r4, r0
 1ec:	00000000 	andeq	r0, r0, r0
 1f0:	000098ac 	andeq	r9, r0, ip, lsr #17
 1f4:	000001f0 	strdeq	r0, [r0], -r0	; <UNPREDICTABLE>
	...
 200:	0000001c 	andeq	r0, r0, ip, lsl r0
 204:	40ff0002 	rscsmi	r0, pc, r2
 208:	00040000 	andeq	r0, r4, r0
 20c:	00000000 	andeq	r0, r0, r0
 210:	00009a9c 	muleq	r0, ip, sl
 214:	000003b0 			; <UNDEFINED> instruction: 0x000003b0
	...
 220:	0000001c 	andeq	r0, r0, ip, lsl r0
 224:	49ec0002 	stmibmi	ip!, {r1}^
 228:	00040000 	andeq	r0, r4, r0
 22c:	00000000 	andeq	r0, r0, r0
 230:	00009e4c 	andeq	r9, r0, ip, asr #28
 234:	0000003c 	andeq	r0, r0, ip, lsr r0
	...
 240:	0000001c 	andeq	r0, r0, ip, lsl r0
 244:	4b390002 	blmi	e40254 <__bss_end__+0xe352f4>
 248:	00040000 	andeq	r0, r4, r0
 24c:	00000000 	andeq	r0, r0, r0
 250:	00009e88 	andeq	r9, r0, r8, lsl #29
 254:	00000034 	andeq	r0, r0, r4, lsr r0
	...
 260:	0000001c 	andeq	r0, r0, ip, lsl r0
 264:	4c740002 	ldclmi	0, cr0, [r4], #-8
 268:	00040000 	andeq	r0, r4, r0
 26c:	00000000 	andeq	r0, r0, r0
 270:	00009ebc 			; <UNDEFINED> instruction: 0x00009ebc
 274:	0000002c 	andeq	r0, r0, ip, lsr #32
	...
 280:	0000001c 	andeq	r0, r0, ip, lsl r0
 284:	4d6f0002 	stclmi	0, cr0, [pc, #-8]!	; 284 <__code_start__-0x7d7c>
 288:	00040000 	andeq	r0, r4, r0
 28c:	00000000 	andeq	r0, r0, r0
 290:	00009ee8 	andeq	r9, r0, r8, ror #29
 294:	00000020 	andeq	r0, r0, r0, lsr #32
	...
 2a0:	0000001c 	andeq	r0, r0, ip, lsl r0
 2a4:	4e820002 	cdpmi	0, 8, cr0, cr2, cr2, {0}
 2a8:	00040000 	andeq	r0, r4, r0
 2ac:	00000000 	andeq	r0, r0, r0
 2b0:	00009f08 	andeq	r9, r0, r8, lsl #30
 2b4:	0000002c 	andeq	r0, r0, ip, lsr #32
	...
 2c0:	0000001c 	andeq	r0, r0, ip, lsl r0
 2c4:	4fd40002 	svcmi	0x00d40002
 2c8:	00040000 	andeq	r0, r4, r0
 2cc:	00000000 	andeq	r0, r0, r0
 2d0:	00009f34 	andeq	r9, r0, r4, lsr pc
 2d4:	00000004 	andeq	r0, r0, r4
	...
 2e0:	0000001c 	andeq	r0, r0, ip, lsl r0
 2e4:	50a60002 	adcpl	r0, r6, r2
 2e8:	00040000 	andeq	r0, r4, r0
 2ec:	00000000 	andeq	r0, r0, r0
 2f0:	00009f50 	andeq	r9, r0, r0, asr pc
 2f4:	0000011c 	andeq	r0, r0, ip, lsl r1
	...

Disassembly of section .debug_ranges:

00000000 <.debug_ranges>:
   0:	00000008 	andeq	r0, r0, r8
   4:	0000000c 	andeq	r0, r0, ip
   8:	00000010 	andeq	r0, r0, r0, lsl r0
   c:	00000018 	andeq	r0, r0, r8, lsl r0
  10:	00000030 	andeq	r0, r0, r0, lsr r0
  14:	000000cc 	andeq	r0, r0, ip, asr #1
	...
  20:	00000030 	andeq	r0, r0, r0, lsr r0
  24:	0000008c 	andeq	r0, r0, ip, lsl #1
  28:	00000090 	muleq	r0, r0, r0
  2c:	000000cc 	andeq	r0, r0, ip, asr #1
	...
  38:	00000010 	andeq	r0, r0, r0, lsl r0
  3c:	00000028 	andeq	r0, r0, r8, lsr #32
  40:	00000040 	andeq	r0, r0, r0, asr #32
  44:	00000074 	andeq	r0, r0, r4, ror r0
	...
  50:	000001fc 	strdeq	r0, [r0], -ip
  54:	00000224 	andeq	r0, r0, r4, lsr #4
  58:	00000228 	andeq	r0, r0, r8, lsr #4
  5c:	0000022c 	andeq	r0, r0, ip, lsr #4
  60:	00000234 	andeq	r0, r0, r4, lsr r2
  64:	00000238 	andeq	r0, r0, r8, lsr r2
	...
  70:	0000006c 	andeq	r0, r0, ip, rrx
  74:	00000118 	andeq	r0, r0, r8, lsl r1
  78:	00000120 	andeq	r0, r0, r0, lsr #2
  7c:	00000150 	andeq	r0, r0, r0, asr r1
	...
  88:	000002bc 			; <UNDEFINED> instruction: 0x000002bc
  8c:	000002c0 	andeq	r0, r0, r0, asr #5
  90:	00000320 	andeq	r0, r0, r0, lsr #6
  94:	000003a8 	andeq	r0, r0, r8, lsr #7
	...
  a0:	00000320 	andeq	r0, r0, r0, lsr #6
  a4:	00000338 	andeq	r0, r0, r8, lsr r3
  a8:	00000344 	andeq	r0, r0, r4, asr #6
  ac:	000003a8 	andeq	r0, r0, r8, lsr #7
	...
  b8:	00000320 	andeq	r0, r0, r0, lsr #6
  bc:	00000338 	andeq	r0, r0, r8, lsr r3
  c0:	00000364 	andeq	r0, r0, r4, ror #6
  c4:	000003a8 	andeq	r0, r0, r8, lsr #7
	...
  d0:	000097a8 	andeq	r9, r0, r8, lsr #15
  d4:	00009828 	andeq	r9, r0, r8, lsr #16
	...
  e0:	00000134 	andeq	r0, r0, r4, lsr r1
  e4:	00000134 	andeq	r0, r0, r4, lsr r1
  e8:	00000134 	andeq	r0, r0, r4, lsr r1
  ec:	0000013c 	andeq	r0, r0, ip, lsr r1
	...
  f8:	0000024c 	andeq	r0, r0, ip, asr #4
  fc:	00000264 	andeq	r0, r0, r4, ror #4
 100:	000002c8 	andeq	r0, r0, r8, asr #5
 104:	000002e8 	andeq	r0, r0, r8, ror #5
	...
 110:	00009f08 	andeq	r9, r0, r8, lsl #30
 114:	00009f34 	andeq	r9, r0, r4, lsr pc
	...

Disassembly of section .debug_line:

00000000 <.debug_line>:
       0:	0000023d 	andeq	r0, r0, sp, lsr r2
       4:	010f0003 	tsteq	pc, r3
       8:	01020000 	mrseq	r0, (UNDEF: 2)
       c:	000d0efb 	strdeq	r0, [sp], -fp
      10:	01010101 	tsteq	r1, r1, lsl #2
      14:	01000000 	mrseq	r0, (UNDEF: 0)
      18:	74010000 	strvc	r0, [r1], #-0
      1c:	73747365 	cmnvc	r4, #-1811939327	; 0x94000001
      20:	302e332d 	eorcc	r3, lr, sp, lsr #6
      24:	2f002e00 	svccs	0x00002e00
      28:	2f727375 	svccs	0x00727375
      2c:	61636f6c 	cmnvs	r3, ip, ror #30
      30:	65432f6c 	strbvs	r2, [r3, #-3948]	; 0xfffff094
      34:	72616c6c 	rsbvc	r6, r1, #108, 24	; 0x6c00
      38:	6d72612f 	ldfvse	f6, [r2, #-188]!	; 0xffffff44
      3c:	6e6f6e2d 	cdpvs	14, 6, cr6, cr15, cr13, {1}
      40:	61652d65 	cmnvs	r5, r5, ror #26
      44:	742d6962 	strtvc	r6, [sp], #-2402	; 0xfffff69e
      48:	2f747365 	svccs	0x00747365
      4c:	30322d39 	eorscc	r2, r2, r9, lsr sp
      50:	34713931 	ldrbtcc	r3, [r1], #-2353	; 0xfffff6cf
      54:	3173632d 	cmncc	r3, sp, lsr #6
      58:	2f653730 	svccs	0x00653730
      5c:	2f62696c 	svccs	0x0062696c
      60:	2f636367 	svccs	0x00636367
      64:	2d6d7261 	sfmcs	f7, 2, [sp, #-388]!	; 0xfffffe7c
      68:	656e6f6e 	strbvs	r6, [lr, #-3950]!	; 0xfffff092
      6c:	6261652d 	rsbvs	r6, r1, #188743680	; 0xb400000
      70:	2e392f69 	cdpcs	15, 3, cr2, cr9, cr9, {3}
      74:	2f312e32 	svccs	0x00312e32
      78:	6c636e69 	stclvs	14, cr6, [r3], #-420	; 0xfffffe5c
      7c:	00656475 	rsbeq	r6, r5, r5, ror r4
      80:	6573552f 	ldrbvs	r5, [r3, #-1327]!	; 0xfffffad1
      84:	742f7372 	strtvc	r7, [pc], #-882	; 8c <__code_start__-0x7f74>
      88:	74736972 	ldrbtvc	r6, [r3], #-2418	; 0xfffff68e
      8c:	6f6e6e65 	svcvs	0x006e6e65
      90:	616d6c6c 	cmnvs	sp, ip, ror #24
      94:	6f442f6e 	svcvs	0x00442f6e
      98:	656d7563 	strbvs	r7, [sp, #-1379]!	; 0xfffffa9d
      9c:	2f73746e 	svccs	0x0073746e
      a0:	69727053 	ldmdbvs	r2!, {r0, r1, r4, r6, ip, sp, lr}^
      a4:	515f676e 	cmppl	pc, lr, ror #14
      a8:	74726175 	ldrbtvc	r6, [r2], #-373	; 0xfffffe8b
      ac:	325f7265 	subscc	r7, pc, #1342177286	; 0x50000006
      b0:	2f323230 	svccs	0x00323230
      b4:	34325343 	ldrtcc	r5, [r2], #-835	; 0xfffffcbd
      b8:	2d584c30 	ldclcs	12, cr4, [r8, #-192]	; 0xffffff40
      bc:	32727073 	rsbscc	r7, r2, #115, 0	; 0x73
      c0:	696c2f32 	stmdbvs	ip!, {r1, r4, r5, r8, r9, sl, fp, sp}^
      c4:	2f697062 	svccs	0x00697062
      c8:	6c636e69 	stclvs	14, cr6, [r3], #-420	; 0xfffffe5c
      cc:	00656475 	rsbeq	r6, r5, r5, ror r4
      d0:	72617000 	rsbvc	r7, r1, #0, 0
      d4:	742d3274 	strtvc	r3, [sp], #-628	; 0xfffffd8c
      d8:	35747365 	ldrbcc	r7, [r4, #-869]!	; 0xfffffc9b
      dc:	2e63672d 	cdpcs	7, 6, cr6, cr3, cr13, {1}
      e0:	00010063 	andeq	r0, r1, r3, rrx
      e4:	63727300 	cmnvs	r2, #0, 6
      e8:	636f6c2d 	cmnvs	pc, #11520	; 0x2d00
      ec:	0200682e 	andeq	r6, r0, #3014656	; 0x2e0000
      f0:	74730000 	ldrbtvc	r0, [r3], #-0
      f4:	746e6964 	strbtvc	r6, [lr], #-2404	; 0xfffff69c
      f8:	6363672d 	cmnvs	r3, #11796480	; 0xb40000
      fc:	0300682e 	movweq	r6, #2094	; 0x82e
     100:	70720000 	rsbsvc	r0, r2, r0
     104:	00682e69 	rsbeq	r2, r8, r9, ror #28
     108:	63000004 	movwvs	r0, #4
     10c:	6c6c616b 	stfvse	f6, [ip], #-428	; 0xfffffe54
     110:	682e636f 	stmdavs	lr!, {r0, r1, r2, r3, r5, r6, r8, r9, sp, lr}
     114:	00000200 	andeq	r0, r0, r0, lsl #4
     118:	00120500 	andseq	r0, r2, r0, lsl #10
     11c:	80380205 	eorshi	r0, r8, r5, lsl #4
     120:	0b030000 	bleq	c0128 <__bss_end__+0xb51c8>
     124:	4b050501 	blmi	141530 <__bss_end__+0x1365d0>
     128:	01090518 	tsteq	r9, r8, lsl r5
     12c:	01060d05 	tsteq	r6, r5, lsl #26
     130:	052c0805 	streq	r0, [ip, #-2053]!	; 0xfffff7fb
     134:	04020014 	streq	r0, [r2], #-20	; 0xffffffec
     138:	05300601 	ldreq	r0, [r0, #-1537]!	; 0xfffff9ff
     13c:	04020005 	streq	r0, [r2], #-5
     140:	06010601 	streq	r0, [r1], -r1, lsl #12
     144:	014a1003 	cmpeq	sl, r3
     148:	0530134a 	ldreq	r1, [r0, #-842]!	; 0xfffffcb6
     14c:	05130601 	ldreq	r0, [r3, #-1537]	; 0xfffff9ff
     150:	6d030609 	stcvs	6, cr0, [r3, #-36]	; 0xffffffdc
     154:	05020466 	streq	r0, [r2, #-1126]	; 0xfffffb9a
     158:	0178030b 	cmneq	r8, fp, lsl #6
     15c:	05130505 	ldreq	r0, [r3, #-1285]	; 0xfffffafb
     160:	ba01060c 	blt	41998 <__bss_end__+0x36a38>
     164:	1a050104 	bne	14057c <__bss_end__+0x13561c>
     168:	06090519 			; <UNDEFINED> instruction: 0x06090519
     16c:	0e05679f 	mcreq	7, 0, r6, cr5, cr15, {4}
     170:	09050106 	stmdbeq	r5, {r1, r2, r8}
     174:	0b054b06 	bleq	152d94 <__bss_end__+0x147e34>
     178:	0d050106 	stfeqs	f0, [r5, #-24]	; 0xffffffe8
     17c:	00014b06 	andeq	r4, r1, r6, lsl #22
     180:	66020402 	strvs	r0, [r2], -r2, lsl #8
     184:	02040200 	andeq	r0, r4, #0, 4
     188:	04020001 	streq	r0, [r2], #-1
     18c:	15051302 	strne	r1, [r5, #-770]	; 0xfffffcfe
     190:	02040200 	andeq	r0, r4, #0, 4
     194:	0d050106 	stfeqs	f0, [r5, #-24]	; 0xffffffe8
     198:	02040200 	andeq	r0, r4, #0, 4
     19c:	15052f06 	strne	r2, [r5, #-3846]	; 0xfffff0fa
     1a0:	02040200 	andeq	r0, r4, #0, 4
     1a4:	09050106 	stmdbeq	r5, {r1, r2, r8}
     1a8:	02040200 	andeq	r0, r4, #0, 4
     1ac:	02003006 	andeq	r3, r0, #6, 0
     1b0:	01060204 	tsteq	r6, r4, lsl #4
     1b4:	02001b05 	andeq	r1, r0, #5120	; 0x1400
     1b8:	03060204 	movweq	r0, #25092	; 0x6204
     1bc:	1c050177 	stfnes	f0, [r5], {119}	; 0x77
     1c0:	02040200 	andeq	r0, r4, #0, 4
     1c4:	0b050106 	bleq	1405e4 <__bss_end__+0x135684>
     1c8:	02040200 	andeq	r0, r4, #0, 4
     1cc:	052e0903 	streq	r0, [lr, #-2307]!	; 0xfffff6fd
     1d0:	0402000d 	streq	r0, [r2], #-13
     1d4:	00460601 	subeq	r0, r6, r1, lsl #12
     1d8:	01010402 	tsteq	r1, r2, lsl #8
     1dc:	01040200 	mrseq	r0, R12_usr
     1e0:	031405d6 	tsteq	r4, #897581056	; 0x35800000
     1e4:	0505ba34 	streq	fp, [r5, #-2612]	; 0xfffff5cc
     1e8:	060f052f 	streq	r0, [pc], -pc, lsr #10
     1ec:	06050501 	streq	r0, [r5], -r1, lsl #10
     1f0:	062e064b 	strteq	r0, [lr], -fp, asr #12
     1f4:	0601052f 	streq	r0, [r1], -pc, lsr #10
     1f8:	06140513 			; <UNDEFINED> instruction: 0x06140513
     1fc:	054a5b03 	strbeq	r5, [sl, #-2819]	; 0xfffff4fd
     200:	054f4b05 	strbeq	r4, [pc, #-2821]	; fffff703 <__bss_end__+0xffff47a3>
     204:	05010612 	streq	r0, [r1, #-1554]	; 0xfffff9ee
     208:	01310605 	teqeq	r1, r5, lsl #12
     20c:	0903134a 	stmdbeq	r3, {r1, r3, r6, r8, r9, ip}
     210:	1582012e 	strne	r0, [r2, #302]	; 0x12e
     214:	0612054b 	ldreq	r0, [r2], -fp, asr #10
     218:	06050501 	streq	r0, [r5], -r1, lsl #10
     21c:	0607052f 	streq	r0, [r7], -pc, lsr #10
     220:	09052e01 	stmdbeq	r5, {r0, r9, sl, fp, sp}
     224:	05052f06 	streq	r2, [r5, #-3846]	; 0xfffff0fa
     228:	2e060114 	mcrcs	1, 0, r0, cr6, cr4, {0}
     22c:	05132e06 	ldreq	r2, [r3, #-3590]	; 0xfffff1fa
     230:	052f0601 	streq	r0, [pc, #-1537]!	; fffffc37 <__bss_end__+0xffff4cd7>
     234:	01460609 	cmpeq	r6, r9, lsl #12
     238:	2e069e06 	cdpcs	14, 0, cr9, cr6, cr6, {0}
     23c:	01001202 	tsteq	r0, r2, lsl #4
     240:	00052101 	andeq	r2, r5, r1, lsl #2
     244:	0b000300 	bleq	e4c <__code_start__-0x71b4>
     248:	02000001 	andeq	r0, r0, #1, 0
     24c:	0d0efb01 	vstreq	d15, [lr, #-4]
     250:	01010100 	mrseq	r0, (UNDEF: 17)
     254:	00000001 	andeq	r0, r0, r1
     258:	01000001 	tsteq	r0, r1
     25c:	7273752f 	rsbsvc	r7, r3, #197132288	; 0xbc00000
     260:	636f6c2f 	cmnvs	pc, #12032	; 0x2f00
     264:	432f6c61 			; <UNDEFINED> instruction: 0x432f6c61
     268:	616c6c65 	cmnvs	ip, r5, ror #24
     26c:	72612f72 	rsbvc	r2, r1, #456	; 0x1c8
     270:	6f6e2d6d 	svcvs	0x006e2d6d
     274:	652d656e 	strvs	r6, [sp, #-1390]!	; 0xfffffa92
     278:	2d696261 	sfmcs	f6, 2, [r9, #-388]!	; 0xfffffe7c
     27c:	74736574 	ldrbtvc	r6, [r3], #-1396	; 0xfffffa8c
     280:	322d392f 	eorcc	r3, sp, #770048	; 0xbc000
     284:	71393130 	teqvc	r9, r0, lsr r1
     288:	73632d34 	cmnvc	r3, #52, 26	; 0xd00
     28c:	65373031 	ldrvs	r3, [r7, #-49]!	; 0xffffffcf
     290:	62696c2f 	rsbvs	r6, r9, #12032	; 0x2f00
     294:	6363672f 	cmnvs	r3, #12320768	; 0xbc0000
     298:	6d72612f 	ldfvse	f6, [r2, #-188]!	; 0xffffff44
     29c:	6e6f6e2d 	cdpvs	14, 6, cr6, cr15, cr13, {1}
     2a0:	61652d65 	cmnvs	r5, r5, ror #26
     2a4:	392f6962 	stmdbcc	pc!, {r1, r5, r6, r8, fp, sp, lr}	; <UNPREDICTABLE>
     2a8:	312e322e 			; <UNDEFINED> instruction: 0x312e322e
     2ac:	636e692f 	cmnvs	lr, #770048	; 0xbc000
     2b0:	6564756c 	strbvs	r7, [r4, #-1388]!	; 0xfffffa94
     2b4:	73552f00 	cmpvc	r5, #0, 30
     2b8:	2f737265 	svccs	0x00737265
     2bc:	73697274 	cmnvc	r9, #116, 4	; 0x40000007
     2c0:	6e6e6574 	mcrvs	5, 3, r6, cr14, cr4, {3}
     2c4:	6d6c6c6f 	stclvs	12, cr6, [ip, #-444]!	; 0xfffffe44
     2c8:	442f6e61 	strtmi	r6, [pc], #-3681	; 2d0 <__code_start__-0x7d30>
     2cc:	6d75636f 	ldclvs	3, cr6, [r5, #-444]!	; 0xfffffe44
     2d0:	73746e65 	cmnvc	r4, #1616	; 0x650
     2d4:	7270532f 	rsbsvc	r5, r0, #-1140850688	; 0xbc000000
     2d8:	5f676e69 	svcpl	0x00676e69
     2dc:	72617551 	rsbvc	r7, r1, #339738624	; 0x14400000
     2e0:	5f726574 	svcpl	0x00726574
     2e4:	32323032 	eorscc	r3, r2, #50, 0	; 0x32
     2e8:	3253432f 	subscc	r4, r3, #-1140850688	; 0xbc000000
     2ec:	584c3034 	stmdapl	ip, {r2, r4, r5, ip, sp}^
     2f0:	7270732d 	rsbsvc	r7, r0, #-1275068416	; 0xb4000000
     2f4:	6c2f3232 	sfmvs	f3, 4, [pc], #-200	; 234 <__code_start__-0x7dcc>
     2f8:	69706269 	ldmdbvs	r0!, {r0, r3, r5, r6, r9, sp, lr}^
     2fc:	636e692f 	cmnvs	lr, #770048	; 0xbc000
     300:	6564756c 	strbvs	r7, [r4, #-1388]!	; 0xfffffa94
     304:	6b630000 	blvs	18c030c <__bss_end__+0x18b53ac>
     308:	6f6c6c61 	svcvs	0x006c6c61
     30c:	00632e63 	rsbeq	r2, r3, r3, ror #28
     310:	63000000 	movwvs	r0, #0
     314:	6c6c616b 	stfvse	f6, [ip], #-428	; 0xfffffe54
     318:	682e636f 	stmdavs	lr!, {r0, r1, r2, r3, r5, r6, r8, r9, sp, lr}
     31c:	00000000 	andeq	r0, r0, r0
     320:	69647473 	stmdbvs	r4!, {r0, r1, r4, r5, r6, sl, ip, sp, lr}^
     324:	672d746e 	strvs	r7, [sp, -lr, ror #8]!
     328:	682e6363 	stmdavs	lr!, {r0, r1, r5, r6, r8, r9, sp, lr}
     32c:	00000100 	andeq	r0, r0, r0, lsl #2
     330:	2e697072 	mcrcs	0, 3, r7, cr9, cr2, {3}
     334:	00020068 	andeq	r0, r2, r8, rrx
     338:	63727300 	cmnvs	r2, #0, 6
     33c:	636f6c2d 	cmnvs	pc, #11520	; 0x2d00
     340:	0000682e 	andeq	r6, r0, lr, lsr #16
     344:	726b0000 	rsbvc	r0, fp, #0, 0
     348:	6c616d2d 	stclvs	13, cr6, [r1], #-180	; 0xffffff4c
     34c:	2e636f6c 	cdpcs	15, 6, cr6, cr3, cr12, {3}
     350:	00000068 	andeq	r0, r0, r8, rrx
     354:	2d050000 	stccs	0, cr0, [r5, #-0]
     358:	b4020500 	strlt	r0, [r2], #-1280	; 0xfffffb00
     35c:	03000081 	movweq	r0, #129	; 0x81
     360:	0205011d 	andeq	r0, r5, #1073741831	; 0x40000007
     364:	06100513 			; <UNDEFINED> instruction: 0x06100513
     368:	4a050501 	bmi	141774 <__bss_end__+0x136814>
     36c:	50060305 	andpl	r0, r6, r5, lsl #6
     370:	04020001 	streq	r0, [r2], #-1
     374:	02004a02 	andeq	r4, r0, #8192	; 0x2000
     378:	00010204 	andeq	r0, r1, r4, lsl #4
     37c:	13020402 	movwne	r0, #9218	; 0x2402
     380:	02040200 	andeq	r0, r4, #0, 4
     384:	000d0513 	andeq	r0, sp, r3, lsl r5
     388:	06020402 	streq	r0, [r2], -r2, lsl #8
     38c:	00030501 	andeq	r0, r3, r1, lsl #10
     390:	06020402 	streq	r0, [r2], -r2, lsl #8
     394:	0013054b 	andseq	r0, r3, fp, asr #10
     398:	06020402 	streq	r0, [r2], -r2, lsl #8
     39c:	00030501 	andeq	r0, r3, r1, lsl #10
     3a0:	06020402 	streq	r0, [r2], -r2, lsl #8
     3a4:	0402002f 	streq	r0, [r2], #-47	; 0xffffffd1
     3a8:	062e0602 	strteq	r0, [lr], -r2, lsl #12
     3ac:	05017803 	streq	r7, [r1, #-2051]	; 0xfffff7fd
     3b0:	0501060e 	streq	r0, [r1, #-1550]	; 0xfffff9f2
     3b4:	054b0603 	strbeq	r0, [fp, #-1539]	; 0xfffff9fd
     3b8:	0501060d 	streq	r0, [r1, #-1549]	; 0xfffff9f3
     3bc:	052f0603 	streq	r0, [pc, #-1539]!	; fffffdc1 <__bss_end__+0xffff4e61>
     3c0:	0402002d 	streq	r0, [r2], #-45	; 0xffffffd3
     3c4:	05290601 	streq	r0, [r9, #-1537]!	; 0xfffff9ff
     3c8:	04020003 	streq	r0, [r2], #-3
     3cc:	00510601 	subseq	r0, r1, r1, lsl #12
     3d0:	01010402 	tsteq	r1, r2, lsl #8
     3d4:	01040200 	mrseq	r0, R12_usr
     3d8:	02009e06 	andeq	r9, r0, #96	; 0x60
     3dc:	002e0104 	eoreq	r0, lr, r4, lsl #2
     3e0:	06010402 	streq	r0, [r1], -r2, lsl #8
     3e4:	031b052e 	tsteq	fp, #192937984	; 0xb800000
     3e8:	0505ba09 	streq	fp, [r5, #-2569]	; 0xfffff5f7
     3ec:	06010513 			; <UNDEFINED> instruction: 0x06010513
     3f0:	061e0513 			; <UNDEFINED> instruction: 0x061e0513
     3f4:	13050585 	movwne	r0, #21893	; 0x5585
     3f8:	01060705 	tsteq	r6, r5, lsl #14
     3fc:	0609052e 	streq	r0, [r9], -lr, lsr #10
     400:	0611052f 	ldreq	r0, [r1], -pc, lsr #10
     404:	30010501 	andcc	r0, r1, r1, lsl #10
     408:	31061e05 	tstcc	r6, r5, lsl #28
     40c:	05130505 	ldreq	r0, [r3, #-1285]	; 0xfffffafb
     410:	2e130601 	cfmsub32cs	mvax0, mvfx0, mvfx3, mvfx1
     414:	31061c05 	tstcc	r6, r5, lsl #24
     418:	05050106 	streq	r0, [r5, #-262]	; 0xfffffefa
     41c:	14054b06 	strne	r4, [r5], #-2822	; 0xfffff4fa
     420:	02040106 	andeq	r0, r4, #-2147483647	; 0x80000001
     424:	03061805 	movweq	r1, #26629	; 0x6805
     428:	05052e76 	streq	r2, [r5, #-3702]	; 0xfffff18a
     42c:	060d0513 			; <UNDEFINED> instruction: 0x060d0513
     430:	01042e01 	tsteq	r4, r1, lsl #28
     434:	0a030105 	beq	c0850 <__bss_end__+0xb58f0>
     438:	062f0501 	strteq	r0, [pc], -r1, lsl #10
     43c:	1302054d 	movwne	r0, #9549	; 0x254d
     440:	01061a05 	tsteq	r6, r5, lsl #20
     444:	052e2905 	streq	r2, [lr, #-2309]!	; 0xfffff6fb
     448:	48054a05 	stmdami	r5, {r0, r2, r9, fp, lr}
     44c:	01040200 	mrseq	r0, R12_usr
     450:	0035054a 	eorseq	r0, r5, sl, asr #10
     454:	2e010402 	cdpcs	4, 0, cr0, cr1, cr2, {0}
     458:	2e4d0905 	vmlacs.f16	s1, s26, s10	; <UNPREDICTABLE>
     45c:	0a052e2e 	beq	14bd1c <__bss_end__+0x140dbc>
     460:	3101052c 	tstcc	r1, ip, lsr #10
     464:	31062105 	tstcc	r6, r5, lsl #2
     468:	02050106 	andeq	r0, r5, #-2147483647	; 0x80000001
     46c:	06054b06 	streq	r4, [r5], -r6, lsl #22
     470:	06110501 	ldreq	r0, [r1], -r1, lsl #10
     474:	21052e01 	tstcs	r5, r1, lsl #28
     478:	01040200 	mrseq	r0, R12_usr
     47c:	02052e06 	andeq	r2, r5, #96	; 0x60
     480:	01040200 	mrseq	r0, R12_usr
     484:	09050106 	stmdbeq	r5, {r1, r2, r8}
     488:	0c054b06 			; <UNDEFINED> instruction: 0x0c054b06
     48c:	054a0106 	strbeq	r0, [sl, #-262]	; 0xfffffefa
     490:	24052e0b 	strcs	r2, [r5], #-3595	; 0xfffff1f5
     494:	02040200 	andeq	r0, r4, #0, 4
     498:	28054906 	stmdacs	r5, {r1, r2, r8, fp, lr}
     49c:	02040200 	andeq	r0, r4, #0, 4
     4a0:	02000106 	andeq	r0, r0, #-2147483647	; 0x80000001
     4a4:	05660204 	strbeq	r0, [r6, #-516]!	; 0xfffffdfc
     4a8:	0130060d 	teqeq	r0, sp, lsl #12
     4ac:	01061382 	smlabbeq	r6, r2, r3, r1
     4b0:	05160105 	ldreq	r0, [r6, #-261]	; 0xfffffefb
     4b4:	06680625 	strbteq	r0, [r8], -r5, lsr #12
     4b8:	06050501 	streq	r0, [r5], -r1, lsl #10
     4bc:	0109054b 	tsteq	r9, fp, asr #10
     4c0:	01061405 	tsteq	r6, r5, lsl #8
     4c4:	2e05052e 	cfsh32cs	mvfx0, mvfx5, #30
     4c8:	02002705 	andeq	r2, r0, #1310720	; 0x140000
     4cc:	2e060204 	cdpcs	2, 0, cr0, cr6, cr4, {0}
     4d0:	02002b05 	andeq	r2, r0, #5120	; 0x1400
     4d4:	01060204 	tsteq	r6, r4, lsl #4
     4d8:	02002405 	andeq	r2, r0, #83886080	; 0x5000000
     4dc:	66060104 	strvs	r0, [r6], -r4, lsl #2
     4e0:	02000505 	andeq	r0, r0, #20971520	; 0x1400000
     4e4:	01060104 	tsteq	r6, r4, lsl #2
     4e8:	4b060905 	blmi	182904 <__bss_end__+0x1779a4>
     4ec:	01060c05 	tsteq	r6, r5, lsl #24
     4f0:	2e0b054a 	cfsh32cs	mvfx0, mvfx11, #42
     4f4:	02002705 	andeq	r2, r0, #1310720	; 0x140000
     4f8:	054a0104 	strbeq	r0, [sl, #-260]	; 0xfffffefc
     4fc:	04020023 	streq	r0, [r2], #-35	; 0xffffffdd
     500:	0d052e01 	stceq	14, cr2, [r5, #-4]
     504:	82014b06 	andhi	r4, r1, #6144	; 0x1800
     508:	05010613 	streq	r0, [r1, #-1555]	; 0xfffff9ed
     50c:	37051601 	strcc	r1, [r5, -r1, lsl #12]
     510:	01066906 	tsteq	r6, r6, lsl #18
     514:	67060205 	strvs	r0, [r6, -r5, lsl #4]
     518:	18050204 	stmdane	r5, {r2, r9}
     51c:	05016203 	streq	r6, [r1, #-515]	; 0xfffffdfd
     520:	0c051305 	stceq	3, cr1, [r5], {5}
     524:	2e2e0106 	sufcse	f0, f6, f6
     528:	02050104 	andeq	r0, r5, #1
     52c:	011e0306 	tsteq	lr, r6, lsl #6
     530:	01061005 	tsteq	r6, r5
     534:	06020566 	streq	r0, [r2], -r6, ror #10
     538:	0610054b 	ldreq	r0, [r0], -fp, asr #10
     53c:	02056601 	andeq	r6, r5, #1048576	; 0x100000
     540:	22053106 	andcs	r3, r5, #-2147483647	; 0x80000001
     544:	01050106 	tsteq	r5, r6, lsl #2
     548:	1e052e2f 	cdpne	14, 0, cr2, cr5, cr15, {1}
     54c:	02054d06 	andeq	r4, r5, #384	; 0x180
     550:	06070515 			; <UNDEFINED> instruction: 0x06070515
     554:	2e050501 	cfsh32cs	mvfx0, mvfx5, #1
     558:	054e1005 	strbeq	r1, [lr, #-5]
     55c:	04020017 	streq	r0, [r2], #-23	; 0xffffffe9
     560:	052e0601 	streq	r0, [lr, #-1537]!	; 0xfffff9ff
     564:	0402001c 	streq	r0, [r2], #-28	; 0xffffffe4
     568:	05010601 	streq	r0, [r1, #-1537]	; 0xfffff9ff
     56c:	04020002 	streq	r0, [r2], #-2
     570:	03052e01 	movweq	r2, #24065	; 0x5e01
     574:	0b054b06 	bleq	153194 <__bss_end__+0x148234>
     578:	06050106 	streq	r0, [r5], -r6, lsl #2
     57c:	002c054a 	eoreq	r0, ip, sl, asr #10
     580:	06020402 	streq	r0, [r2], -r2, lsl #8
     584:	002d0549 	eoreq	r0, sp, r9, asr #10
     588:	06020402 	streq	r0, [r2], -r2, lsl #8
     58c:	04020001 	streq	r0, [r2], #-1
     590:	02002e02 	andeq	r2, r0, #2, 28
     594:	052e0204 	streq	r0, [lr, #-516]!	; 0xfffffdfc
     598:	2e2e1709 	cdpcs	7, 2, cr1, cr14, cr9, {0}
     59c:	78030a05 	stmdavc	r3, {r0, r2, r9, fp}
     5a0:	0b052e01 	bleq	14bdac <__bss_end__+0x140e4c>
     5a4:	01052e33 	tsteq	r5, r3, lsr lr
     5a8:	061a0516 			; <UNDEFINED> instruction: 0x061a0516
     5ac:	4b020530 	blmi	81a74 <__bss_end__+0x76b14>
     5b0:	05134a01 	ldreq	r4, [r3, #-2561]	; 0xfffff5ff
     5b4:	05010610 	streq	r0, [r1, #-1552]	; 0xfffff9f0
     5b8:	134b0602 	movtne	r0, #46594	; 0xb602
     5bc:	01061905 	tsteq	r6, r5, lsl #18
     5c0:	06020566 	streq	r0, [r2], -r6, ror #10
     5c4:	0b05134b 	bleq	1452f8 <__bss_end__+0x13a398>
     5c8:	08051106 	stmdaeq	r5, {r1, r2, r8, ip}
     5cc:	0604052f 	streq	r0, [r4], -pc, lsr #10
     5d0:	144a0130 	strbne	r0, [sl], #-304	; 0xfffffed0
     5d4:	01060805 	tsteq	r6, r5, lsl #16
     5d8:	0604052e 	streq	r0, [r4], -lr, lsr #10
     5dc:	134a0131 	movtne	r0, #41265	; 0xa131
     5e0:	01060805 	tsteq	r6, r5, lsl #16
     5e4:	30060305 	andcc	r0, r6, r5, lsl #6
     5e8:	01060a05 	tsteq	r6, r5, lsl #20
     5ec:	03060805 	movweq	r0, #26629	; 0x6805
     5f0:	03056676 	movweq	r6, #22134	; 0x5676
     5f4:	0607054b 	streq	r0, [r7], -fp, asr #10
     5f8:	66060501 	strvs	r0, [r6], -r1, lsl #10
     5fc:	4f060305 	svcmi	0x00060305
     600:	01060705 	tsteq	r6, r5, lsl #14
     604:	4a4a0605 	bmi	1281e20 <__bss_end__+0x1276ec0>
     608:	35060205 	strcc	r0, [r6, #-517]	; 0xfffffdfb
     60c:	13060105 	movwne	r0, #24837	; 0x6105
     610:	06280566 	strteq	r0, [r8], -r6, ror #10
     614:	94020500 	strls	r0, [r2], #-1280	; 0xfffffb00
     618:	16000084 	strne	r0, [r0], -r4, lsl #1
     61c:	05820106 	streq	r0, [r2, #262]	; 0x106
     620:	132f0605 			; <UNDEFINED> instruction: 0x132f0605
     624:	01060905 	tsteq	r6, r5, lsl #18
     628:	052e0705 	streq	r0, [lr, #-1797]!	; 0xfffff8fb
     62c:	05670609 	strbeq	r0, [r7, #-1545]!	; 0xfffff9f7
     630:	9e011305 	cdpls	3, 0, cr1, cr1, cr5, {0}
     634:	00011382 	andeq	r1, r1, r2, lsl #7
     638:	82020402 	andhi	r0, r2, #33554432	; 0x2000000
     63c:	02040200 	andeq	r0, r4, #0, 4
     640:	04020001 	streq	r0, [r2], #-1
     644:	0e051302 	cdpeq	3, 0, cr1, cr5, cr2, {0}
     648:	02040200 	andeq	r0, r4, #0, 4
     64c:	02050106 	andeq	r0, r5, #-2147483647	; 0x80000001
     650:	02040200 	andeq	r0, r4, #0, 4
     654:	02004b06 	andeq	r4, r0, #6144	; 0x1800
     658:	05130204 	ldreq	r0, [r3, #-516]	; 0xfffffdfc
     65c:	04020007 	streq	r0, [r2], #-7
     660:	10050102 	andne	r0, r5, r2, lsl #2
     664:	02040200 	andeq	r0, r4, #0, 4
     668:	17050106 	strne	r0, [r5, -r6, lsl #2]
     66c:	01040200 	mrseq	r0, R12_usr
     670:	02052e06 	andeq	r2, r5, #96	; 0x60
     674:	01040200 	mrseq	r0, R12_usr
     678:	03050106 	movweq	r0, #20742	; 0x5106
     67c:	03040200 	movweq	r0, #16896	; 0x4200
     680:	13054b06 	movwne	r4, #23302	; 0x5b06
     684:	03040200 	movweq	r0, #16896	; 0x4200
     688:	2b050106 	blcs	140aa8 <__bss_end__+0x135b48>
     68c:	03040200 	movweq	r0, #16896	; 0x4200
     690:	2c058106 	stfcsd	f0, [r5], {6}
     694:	03040200 	movweq	r0, #16896	; 0x4200
     698:	02000106 	andeq	r0, r0, #-2147483647	; 0x80000001
     69c:	002e0304 	eoreq	r0, lr, r4, lsl #6
     6a0:	2e030402 	cdpcs	4, 0, cr0, cr3, cr2, {0}
     6a4:	0d060905 	vstreq.16	s0, [r6, #-10]	; <UNPREDICTABLE>
     6a8:	05828201 	streq	r8, [r2, #513]	; 0x201
     6ac:	04020005 	streq	r0, [r2], #-5
     6b0:	02003001 	andeq	r3, r0, #1, 0
     6b4:	00010104 	andeq	r0, r1, r4, lsl #2
     6b8:	d6010402 	strle	r0, [r1], -r2, lsl #8
     6bc:	05350205 	ldreq	r0, [r5, #-517]!	; 0xfffffdfb
     6c0:	05010606 	streq	r0, [r1, #-1542]	; 0xfffff9fa
     6c4:	03056605 	movweq	r6, #22021	; 0x5605
     6c8:	02054b06 	andeq	r4, r5, #6144	; 0x1800
     6cc:	84050513 	strhi	r0, [r5], #-1299	; 0xfffffaed
     6d0:	06010501 	streq	r0, [r1], -r1, lsl #10
     6d4:	06030584 	streq	r0, [r3], -r4, lsl #11
     6d8:	05f20145 	ldrbeq	r0, [r2, #325]!	; 0x145
     6dc:	04020005 	streq	r0, [r2], #-5
     6e0:	02003101 	andeq	r3, r0, #1073741824	; 0x40000000
     6e4:	00010104 	andeq	r0, r1, r4, lsl #2
     6e8:	d6010402 	strle	r0, [r1], -r2, lsl #8
     6ec:	5f082f05 	svcpl	0x00082f05
     6f0:	05050106 	streq	r0, [r5, #-262]	; 0xfffffefa
     6f4:	1005a006 	andne	sl, r5, r6
     6f8:	052e0106 	streq	r0, [lr, #-262]!	; 0xfffffefa
     6fc:	674b0602 	strbvs	r0, [fp, -r2, lsl #12]
     700:	05850505 	streq	r0, [r5, #1285]	; 0x505
     704:	05010615 	streq	r0, [r1, #-1557]	; 0xfffff9eb
     708:	052f0605 	streq	r0, [pc, #-1541]!	; 10b <__code_start__-0x7ef5>
     70c:	0501060e 	streq	r0, [r1, #-1550]	; 0xfffff9f2
     710:	054b0605 	strbeq	r0, [fp, #-1541]	; 0xfffff9fb
     714:	05010612 	streq	r0, [r1, #-1554]	; 0xfffff9ee
     718:	05670602 	strbeq	r0, [r7, #-1538]!	; 0xfffff9fe
     71c:	0501060a 	streq	r0, [r1, #-1546]	; 0xfffff9f6
     720:	054b0602 	strbeq	r0, [fp, #-1538]	; 0xfffff9fe
     724:	0501060b 	streq	r0, [r1, #-1547]	; 0xfffff9f5
     728:	04300602 	ldrteq	r0, [r0], #-1538	; 0xfffff9fe
     72c:	03180502 	tsteq	r8, #8388608	; 0x800000
     730:	05017f8e 	streq	r7, [r1, #-3982]	; 0xfffff072
     734:	0c051305 	stceq	3, cr1, [r5], {5}
     738:	044a0106 	strbeq	r0, [sl], #-262	; 0xfffffefa
     73c:	03020501 	movweq	r0, #9473	; 0x2501
     740:	060100f1 			; <UNDEFINED> instruction: 0x060100f1
     744:	060e0569 	streq	r0, [lr], -r9, ror #10
     748:	06020501 	streq	r0, [r2], -r1, lsl #10
     74c:	060f0567 	streq	r0, [pc], -r7, ror #10
     750:	06050501 	streq	r0, [r5], -r1, lsl #10
     754:	9e9e014c 	fmllsem	f0, f6, #4.0
     758:	84140205 	ldrhi	r0, [r4], #-517	; 0xfffffdfb
     75c:	14060105 	strne	r0, [r6], #-261	; 0xfffffefb
     760:	00080266 	andeq	r0, r8, r6, ror #4
     764:	060c0101 	streq	r0, [ip], -r1, lsl #2
     768:	00030000 	andeq	r0, r3, r0
     76c:	000000fa 	strdeq	r0, [r0], -sl
     770:	0efb0102 	cdpeq	1, 15, cr0, cr11, cr2, {0}
     774:	0101000d 	tsteq	r1, sp
     778:	00000101 	andeq	r0, r0, r1, lsl #2
     77c:	00000100 	andeq	r0, r0, r0, lsl #2
     780:	73752f01 	cmnvc	r5, #1, 30
     784:	6f6c2f72 	svcvs	0x006c2f72
     788:	2f6c6163 	svccs	0x006c6163
     78c:	6c6c6543 	cfstr64vs	mvdx6, [ip], #-268	; 0xfffffef4
     790:	612f7261 			; <UNDEFINED> instruction: 0x612f7261
     794:	6e2d6d72 	mcrvs	13, 1, r6, cr13, cr2, {3}
     798:	2d656e6f 	stclcs	14, cr6, [r5, #-444]!	; 0xfffffe44
     79c:	69626165 	stmdbvs	r2!, {r0, r2, r5, r6, r8, sp, lr}^
     7a0:	7365742d 	cmnvc	r5, #754974720	; 0x2d000000
     7a4:	2d392f74 	ldccs	15, cr2, [r9, #-464]!	; 0xfffffe30
     7a8:	39313032 	ldmdbcc	r1!, {r1, r4, r5, ip, sp}
     7ac:	632d3471 			; <UNDEFINED> instruction: 0x632d3471
     7b0:	37303173 			; <UNDEFINED> instruction: 0x37303173
     7b4:	696c2f65 	stmdbvs	ip!, {r0, r2, r5, r6, r8, r9, sl, fp, sp}^
     7b8:	63672f62 	cmnvs	r7, #392	; 0x188
     7bc:	72612f63 	rsbvc	r2, r1, #396	; 0x18c
     7c0:	6f6e2d6d 	svcvs	0x006e2d6d
     7c4:	652d656e 	strvs	r6, [sp, #-1390]!	; 0xfffffa92
     7c8:	2f696261 	svccs	0x00696261
     7cc:	2e322e39 	mrccs	14, 1, r2, cr2, cr9, {1}
     7d0:	6e692f31 	mcrvs	15, 3, r2, cr9, cr1, {1}
     7d4:	64756c63 	ldrbtvs	r6, [r5], #-3171	; 0xfffff39d
     7d8:	552f0065 	strpl	r0, [pc, #-101]!	; 77b <__code_start__-0x7885>
     7dc:	73726573 	cmnvc	r2, #482344960	; 0x1cc00000
     7e0:	6972742f 	ldmdbvs	r2!, {r0, r1, r2, r3, r5, sl, ip, sp, lr}^
     7e4:	6e657473 	mcrvs	4, 3, r7, cr5, cr3, {3}
     7e8:	6c6c6f6e 	stclvs	15, cr6, [ip], #-440	; 0xfffffe48
     7ec:	2f6e616d 	svccs	0x006e616d
     7f0:	75636f44 	strbvc	r6, [r3, #-3908]!	; 0xfffff0bc
     7f4:	746e656d 	strbtvc	r6, [lr], #-1389	; 0xfffffa93
     7f8:	70532f73 	subsvc	r2, r3, r3, ror pc
     7fc:	676e6972 			; <UNDEFINED> instruction: 0x676e6972
     800:	6175515f 	cmnvs	r5, pc, asr r1
     804:	72657472 	rsbvc	r7, r5, #1912602624	; 0x72000000
     808:	3230325f 	eorscc	r3, r0, #-268435451	; 0xf0000005
     80c:	53432f32 	movtpl	r2, #16178	; 0x3f32
     810:	4c303432 	cfldrsmi	mvf3, [r0], #-200	; 0xffffff38
     814:	70732d58 	rsbsvc	r2, r3, r8, asr sp
     818:	2f323272 	svccs	0x00323272
     81c:	7062696c 	rsbvc	r6, r2, ip, ror #18
     820:	6e692f69 	cdpvs	15, 6, cr2, cr9, cr9, {3}
     824:	64756c63 	ldrbtvs	r6, [r5], #-3171	; 0xfffff39d
     828:	63000065 	movwvs	r0, #101	; 0x65
     82c:	63672d6b 	cmnvs	r7, #6848	; 0x1ac0
     830:	0000632e 	andeq	r6, r0, lr, lsr #6
     834:	74730000 	ldrbtvc	r0, [r3], #-0
     838:	746e6964 	strbtvc	r6, [lr], #-2404	; 0xfffff69c
     83c:	6363672d 	cmnvs	r3, #11796480	; 0xb40000
     840:	0100682e 	tsteq	r0, lr, lsr #16
     844:	70720000 	rsbsvc	r0, r2, r0
     848:	00682e69 	rsbeq	r2, r8, r9, ror #28
     84c:	73000002 	movwvc	r0, #2
     850:	6c2d6372 	stcvs	3, cr6, [sp], #-456	; 0xfffffe38
     854:	682e636f 	stmdavs	lr!, {r0, r1, r2, r3, r5, r6, r8, r9, sp, lr}
     858:	00000000 	andeq	r0, r0, r0
     85c:	6c616b63 			; <UNDEFINED> instruction: 0x6c616b63
     860:	2e636f6c 	cdpcs	15, 6, cr6, cr3, cr12, {3}
     864:	00000068 	andeq	r0, r0, r8, rrx
     868:	1d050000 	stcne	0, cr0, [r5, #-0]
     86c:	e0020500 	and	r0, r2, r0, lsl #10
     870:	03000086 	movweq	r0, #134	; 0x86
     874:	05050125 	streq	r0, [r5, #-293]	; 0xfffffedb
     878:	060a0514 			; <UNDEFINED> instruction: 0x060a0514
     87c:	4a070501 	bmi	1c1c88 <__bss_end__+0x1b6d28>
     880:	02001c05 	andeq	r1, r0, #1280	; 0x500
     884:	054a0104 	strbeq	r0, [sl, #-260]	; 0xfffffefc
     888:	04020017 	streq	r0, [r2], #-23	; 0xffffffe9
     88c:	0c054a01 			; <UNDEFINED> instruction: 0x0c054a01
     890:	10052e4d 	andne	r2, r5, sp, asr #28
     894:	052e2e2c 	streq	r2, [lr, #-3628]!	; 0xfffff1d4
     898:	35053101 	strcc	r3, [r5, #-257]	; 0xfffffeff
     89c:	00c20306 	sbceq	r0, r2, r6, lsl #6
     8a0:	0501064a 	streq	r0, [r1, #-1610]	; 0xfffff9b6
     8a4:	134b0602 	movtne	r0, #46594	; 0xb602
     8a8:	2f062e06 	svccs	0x00062e06
     8ac:	0610054d 	ldreq	r0, [r0], -sp, asr #10
     8b0:	06020501 	streq	r0, [r2], -r1, lsl #10
     8b4:	0624054b 	strteq	r0, [r4], -fp, asr #10
     8b8:	05017a03 	streq	r7, [r1, #-2563]	; 0xfffff5fd
     8bc:	0b052e18 	bleq	14c124 <__bss_end__+0x1411c4>
     8c0:	3408052e 	strcc	r0, [r8], #-1326	; 0xfffffad2
     8c4:	05312705 	ldreq	r2, [r1, #-1797]!	; 0xfffff8fb
     8c8:	04020003 	streq	r0, [r2], #-3
     8cc:	052f0606 	streq	r0, [pc, #-1542]!	; 2ce <__code_start__-0x7d32>
     8d0:	04020006 	streq	r0, [r2], #-6
     8d4:	05010606 	streq	r0, [r1, #-1542]	; 0xfffff9fa
     8d8:	0550060a 	ldrbeq	r0, [r0, #-1546]	; 0xfffff9f6
     8dc:	0501060d 	streq	r0, [r1, #-1549]	; 0xfffff9f3
     8e0:	0903060a 	stmdbeq	r3, {r1, r3, r9, sl}
     8e4:	060d054a 	streq	r0, [sp], -sl, asr #10
     8e8:	002a0501 	eoreq	r0, sl, r1, lsl #10
     8ec:	4a010402 	bmi	418fc <__bss_end__+0x3699c>
     8f0:	02002305 	andeq	r2, r0, #335544320	; 0x14000000
     8f4:	052e0104 	streq	r0, [lr, #-260]!	; 0xfffffefc
     8f8:	04020038 	streq	r0, [r2], #-56	; 0xffffffc8
     8fc:	04054a02 	streq	r4, [r5], #-2562	; 0xfffff5fe
     900:	06014d06 	streq	r4, [r1], -r6, lsl #26
     904:	2e062e2e 	cdpcs	14, 0, cr2, cr6, cr14, {1}
     908:	06100513 			; <UNDEFINED> instruction: 0x06100513
     90c:	27052e01 	strcs	r2, [r5, -r1, lsl #28]
     910:	2e2e6c03 	cdpcs	12, 2, cr6, cr14, cr3, {0}
     914:	02001605 	andeq	r1, r0, #5242880	; 0x500000
     918:	052f0104 	streq	r0, [pc, #-260]!	; 81c <__code_start__-0x77e4>
     91c:	0402000f 	streq	r0, [r2], #-15
     920:	04052e01 	streq	r2, [r5], #-3585	; 0xfffff1ff
     924:	06014b06 	streq	r4, [r1], -r6, lsl #22
     928:	062e2e2e 	strteq	r2, [lr], -lr, lsr #28
     92c:	1105152e 	tstne	r5, lr, lsr #10
     930:	04050106 	streq	r0, [r5], #-262	; 0xfffffefa
     934:	0a054b06 	beq	153554 <__bss_end__+0x1485f4>
     938:	052e0106 	streq	r0, [lr, #-262]!	; 0xfffffefa
     93c:	01300604 	teqeq	r0, r4, lsl #12
     940:	2e2e2e06 	cdpcs	14, 2, cr2, cr14, cr6, {0}
     944:	05142e06 	ldreq	r2, [r4, #-3590]	; 0xfffff1fa
     948:	05010610 	streq	r0, [r1, #-1552]	; 0xfffff9f0
     94c:	0c030603 	stceq	6, cr0, [r3], {3}
     950:	139e012e 	orrsne	r0, lr, #-2147483637	; 0x8000000b
     954:	01060a05 	tsteq	r6, r5, lsl #20
     958:	06080566 	streq	r0, [r8], -r6, ror #10
     95c:	05016603 	streq	r6, [r1, #-1539]	; 0xfffff9fd
     960:	0a054b03 	beq	153574 <__bss_end__+0x148614>
     964:	03050106 	movweq	r0, #20742	; 0x5106
     968:	1a052f06 	bne	14c588 <__bss_end__+0x141628>
     96c:	22050106 	andcs	r0, r5, #-2147483647	; 0x80000001
     970:	0603052e 	streq	r0, [r3], -lr, lsr #10
     974:	06190567 	ldreq	r0, [r9], -r7, ror #10
     978:	2e270501 	cfsh64cs	mvdx0, mvdx7, #1
     97c:	01040200 	mrseq	r0, R12_usr
     980:	2e2e4a4a 	vnmulcs.f32	s8, s28, s20
     984:	03060205 	movweq	r0, #25093	; 0x6205
     988:	0601011b 			; <UNDEFINED> instruction: 0x0601011b
     98c:	132e064a 			; <UNDEFINED> instruction: 0x132e064a
     990:	01060405 	tsteq	r6, r5, lsl #8
     994:	4b060305 	blmi	1815b0 <__bss_end__+0x176650>
     998:	02004a01 	andeq	r4, r0, #4096	; 0x1000
     99c:	05140104 	ldreq	r0, [r4, #-260]	; 0xfffffefc
     9a0:	04020002 	streq	r0, [r2], #-2
     9a4:	02001401 	andeq	r1, r0, #16777216	; 0x1000000
     9a8:	054b0104 	strbeq	r0, [fp, #-260]	; 0xfffffefc
     9ac:	04020001 	streq	r0, [r2], #-1
     9b0:	05130601 	ldreq	r0, [r3, #-1537]	; 0xfffff9ff
     9b4:	01460603 	cmpeq	r6, r3, lsl #12
     9b8:	d8032205 	stmdale	r3, {r0, r2, r9, sp}
     9bc:	05c80800 	strbeq	r0, [r8, #2048]	; 0x800
     9c0:	4b132f02 	blmi	4cc5d0 <__bss_end__+0x4c1670>
     9c4:	0610054c 	ldreq	r0, [r0], -ip, asr #10
     9c8:	06020501 	streq	r0, [r2], -r1, lsl #10
     9cc:	0622054b 	strteq	r0, [r2], -fp, asr #10
     9d0:	2e18050d 	cfmul32cs	mvfx0, mvfx8, mvfx13
     9d4:	052e0b05 	streq	r0, [lr, #-2821]!	; 0xfffff4fb
     9d8:	04053308 	streq	r3, [r5], #-776	; 0xfffffcf8
     9dc:	10053206 	andne	r3, r5, r6, lsl #4
     9e0:	04050106 	streq	r0, [r5], #-262	; 0xfffffefa
     9e4:	0a054b06 	beq	153604 <__bss_end__+0x1486a4>
     9e8:	04050106 	streq	r0, [r5], #-262	; 0xfffffefa
     9ec:	18052f06 	stmdane	r5, {r1, r2, r8, r9, sl, fp, sp}
     9f0:	11050106 	tstne	r5, r6, lsl #2
     9f4:	0604052e 	streq	r0, [r4], -lr, lsr #10
     9f8:	6606012f 	strvs	r0, [r6], -pc, lsr #2
     9fc:	01040200 	mrseq	r0, R12_usr
     a00:	03052e06 	movweq	r2, #24070	; 0x5e06
     a04:	01040200 	mrseq	r0, R12_usr
     a08:	000a0514 	andeq	r0, sl, r4, lsl r5
     a0c:	06010402 	streq	r0, [r1], -r2, lsl #8
     a10:	06080501 	streq	r0, [r8], -r1, lsl #10
     a14:	05667703 	strbeq	r7, [r6, #-1795]!	; 0xfffff8fd
     a18:	0a054b03 	beq	15362c <__bss_end__+0x1486cc>
     a1c:	03050106 	movweq	r0, #20742	; 0x5106
     a20:	0b052f06 	bleq	14c640 <__bss_end__+0x1416e0>
     a24:	06050106 	streq	r0, [r5], -r6, lsl #2
     a28:	0025052e 	eoreq	r0, r5, lr, lsr #10
     a2c:	4a010402 	bmi	41a3c <__bss_end__+0x36adc>
     a30:	02001e05 	andeq	r1, r0, #80	; 0x50
     a34:	052e0104 	streq	r0, [lr, #-260]!	; 0xfffffefc
     a38:	0a030602 	beq	c2248 <__bss_end__+0xb72e8>
     a3c:	82060166 	andhi	r0, r6, #-2147483623	; 0x80000019
     a40:	05052e06 	streq	r2, [r5, #-3590]	; 0xfffff1fa
     a44:	06010514 			; <UNDEFINED> instruction: 0x06010514
     a48:	06250513 			; <UNDEFINED> instruction: 0x06250513
     a4c:	ba7eb203 	blt	1fad260 <__bss_end__+0x1fa2300>
     a50:	05050106 	streq	r0, [r5, #-262]	; 0xfffffefa
     a54:	05144b06 	ldreq	r4, [r4, #-2822]	; 0xfffff4fa
     a58:	05010609 	streq	r0, [r1, #-1545]	; 0xfffff9f7
     a5c:	05052e07 	streq	r2, [r5, #-3591]	; 0xfffff1f9
     a60:	0c054c06 	stceq	12, cr4, [r5], {6}
     a64:	10050106 	andne	r0, r5, r6, lsl #2
     a68:	30010565 	andcc	r0, r1, r5, ror #10
     a6c:	03062c05 	movweq	r2, #27653	; 0x6c05
     a70:	01062e0d 	tsteq	r6, sp, lsl #28
     a74:	4b060505 	blmi	181e90 <__bss_end__+0x176f30>
     a78:	04020001 	streq	r0, [r2], #-1
     a7c:	02006602 	andeq	r6, r0, #2097152	; 0x200000
     a80:	00010204 	andeq	r0, r1, r4, lsl #4
     a84:	14020402 	strne	r0, [r2], #-1026	; 0xfffffbfe
     a88:	02040200 	andeq	r0, r4, #0, 4
     a8c:	04020001 	streq	r0, [r2], #-1
     a90:	02004a02 	andeq	r4, r0, #8192	; 0x2000
     a94:	00010204 	andeq	r0, r1, r4, lsl #4
     a98:	13020402 	movwne	r0, #9218	; 0x2402
     a9c:	02040200 	andeq	r0, r4, #0, 4
     aa0:	04020001 	streq	r0, [r2], #-1
     aa4:	02004a02 	andeq	r4, r0, #8192	; 0x2000
     aa8:	05010204 	streq	r0, [r1, #-516]	; 0xfffffdfc
     aac:	04020002 	streq	r0, [r2], #-2
     ab0:	1f051402 	svcne	0x00051402
     ab4:	02040200 	andeq	r0, r4, #0, 4
     ab8:	11050106 	tstne	r5, r6, lsl #2
     abc:	02040200 	andeq	r0, r4, #0, 4
     ac0:	0002052e 	andeq	r0, r2, lr, lsr #10
     ac4:	06020402 	streq	r0, [r2], -r2, lsl #8
     ac8:	0007052f 	andeq	r0, r7, pc, lsr #10
     acc:	01020402 	tsteq	r2, r2, lsl #8
     ad0:	02000205 	andeq	r0, r0, #1342177280	; 0x50000000
     ad4:	01060204 	tsteq	r6, r4, lsl #4
     ad8:	02040200 	andeq	r0, r4, #0, 4
     adc:	0005052e 	andeq	r0, r5, lr, lsr #10
     ae0:	06010402 	streq	r0, [r1], -r2, lsl #8
     ae4:	00017a03 	andeq	r7, r1, r3, lsl #20
     ae8:	01010402 	tsteq	r1, r2, lsl #8
     aec:	01040200 	mrseq	r0, R12_usr
     af0:	02009e06 	andeq	r9, r0, #96	; 0x60
     af4:	002e0104 	eoreq	r0, lr, r4, lsl #2
     af8:	06010402 	streq	r0, [r1], -r2, lsl #8
     afc:	0402002e 	streq	r0, [r2], #-46	; 0xffffffd2
     b00:	02003001 	andeq	r3, r0, #1, 0
     b04:	00010104 	andeq	r0, r1, r4, lsl #2
     b08:	06010402 	streq	r0, [r1], -r2, lsl #8
     b0c:	0402009e 	streq	r0, [r2], #-158	; 0xffffff62
     b10:	02002e01 	andeq	r2, r0, #1, 28
     b14:	2e060104 	adfcss	f0, f6, f4
     b18:	01040200 	mrseq	r0, R12_usr
     b1c:	0402002f 	streq	r0, [r2], #-47	; 0xffffffd1
     b20:	02000101 	andeq	r0, r0, #1073741824	; 0x40000000
     b24:	9e060104 	adflss	f0, f6, f4
     b28:	01040200 	mrseq	r0, R12_usr
     b2c:	0402002e 	streq	r0, [r2], #-46	; 0xffffffd2
     b30:	032e0601 			; <UNDEFINED> instruction: 0x032e0601
     b34:	0e052e0c 	cdpeq	14, 0, cr2, cr5, cr12, {0}
     b38:	1a050106 	bne	140f58 <__bss_end__+0x135ff8>
     b3c:	0604052e 	streq	r0, [r4], -lr, lsr #10
     b40:	134a0a03 	movtne	r0, #43523	; 0xaa03
     b44:	01064405 	tsteq	r6, r5, lsl #8
     b48:	2f060405 	svccs	0x00060405
     b4c:	052e2e06 	streq	r2, [lr, #-3590]!	; 0xfffff1fa
     b50:	04020026 	streq	r0, [r2], #-38	; 0xffffffda
     b54:	6b030602 	blvs	c2364 <__bss_end__+0xb7404>
     b58:	00270501 	eoreq	r0, r7, r1, lsl #10
     b5c:	06020402 	streq	r0, [r2], -r2, lsl #8
     b60:	00170501 	andseq	r0, r7, r1, lsl #10
     b64:	06010402 	streq	r0, [r1], -r2, lsl #8
     b68:	0002052e 	andeq	r0, r2, lr, lsr #10
     b6c:	06010402 	streq	r0, [r1], -r2, lsl #8
     b70:	06030501 	streq	r0, [r3], -r1, lsl #10
     b74:	061e054b 	ldreq	r0, [lr], -fp, asr #10
     b78:	2e160501 	cfmul32cs	mvfx0, mvfx6, mvfx1
     b7c:	4b060305 	blmi	181798 <__bss_end__+0x176838>
     b80:	01060605 	tsteq	r6, r5, lsl #12
     b84:	02001e05 	andeq	r1, r0, #80	; 0x50
     b88:	054a0104 	strbeq	r0, [sl, #-260]	; 0xfffffefc
     b8c:	04020011 	streq	r0, [r2], #-17	; 0xffffffef
     b90:	04052e01 	streq	r2, [r5], #-3585	; 0xfffff1ff
     b94:	14054c06 	strne	r4, [r5], #-3078	; 0xfffff3fa
     b98:	04050106 	streq	r0, [r5], #-262	; 0xfffffefa
     b9c:	19054d06 	stmdbne	r5, {r1, r2, r8, sl, fp, lr}
     ba0:	34050106 	strcc	r0, [r5], #-262	; 0xfffffefa
     ba4:	2e07052e 	cfsh32cs	mvfx0, mvfx7, #30
     ba8:	4d060b05 	vstrmi	d0, [r6, #-20]	; 0xffffffec
     bac:	01063005 	tsteq	r6, r5
     bb0:	052e0e05 	streq	r0, [lr, #-3589]!	; 0xfffff1fb
     bb4:	0200019f 	andeq	r0, r0, #-1073741785	; 0xc0000027
     bb8:	054a0104 	strbeq	r0, [sl, #-260]	; 0xfffffefc
     bbc:	02000194 	andeq	r0, r0, #37	; 0x25
     bc0:	052e0104 	streq	r0, [lr, #-260]!	; 0xfffffefc
     bc4:	0402004f 	streq	r0, [r2], #-79	; 0xffffffb1
     bc8:	05054a01 	streq	r4, [r5, #-2561]	; 0xfffff5ff
     bcc:	0e053006 	cdpeq	0, 0, cr3, cr5, cr6, {0}
     bd0:	1b050106 	blne	140ff0 <__bss_end__+0x136090>
     bd4:	0105662e 	tsteq	r5, lr, lsr #12
     bd8:	4a010c03 	bmi	43bec <__bss_end__+0x38c8c>
     bdc:	00061c05 	andeq	r1, r6, r5, lsl #24
     be0:	8aa80205 	bhi	fea013fc <__bss_end__+0xfe9f649c>
     be4:	3b030000 	blcc	c0bec <__bss_end__+0xb5c8c>
     be8:	4e050501 	cfsh32mi	mvfx0, mvfx5, #1
     bec:	05010905 	streq	r0, [r1, #-2309]	; 0xfffff6fb
     bf0:	05010614 	streq	r0, [r1, #-1556]	; 0xfffff9ec
     bf4:	04020024 	streq	r0, [r2], #-36	; 0xffffffdc
     bf8:	052e0601 	streq	r0, [lr, #-1537]!	; 0xfffff9ff
     bfc:	04020005 	streq	r0, [r2], #-5
     c00:	05010601 	streq	r0, [r1, #-1537]	; 0xfffff9ff
     c04:	04020009 	streq	r0, [r2], #-9
     c08:	054b0603 	strbeq	r0, [fp, #-1539]	; 0xfffff9fd
     c0c:	04020032 	streq	r0, [r2], #-50	; 0xffffffce
     c10:	05010603 	streq	r0, [r1, #-1539]	; 0xfffff9fd
     c14:	04020021 	streq	r0, [r2], #-33	; 0xffffffdf
     c18:	11054a03 	tstne	r5, r3, lsl #20
     c1c:	03040200 	movweq	r0, #16896	; 0x4200
     c20:	0027052e 	eoreq	r0, r7, lr, lsr #10
     c24:	06030402 	streq	r0, [r3], -r2, lsl #8
     c28:	002b052d 	eoreq	r0, fp, sp, lsr #10
     c2c:	06030402 	streq	r0, [r3], -r2, lsl #8
     c30:	04020001 	streq	r0, [r2], #-1
     c34:	02002e03 	andeq	r2, r0, #3, 28	; 0x30
     c38:	052e0304 	streq	r0, [lr, #-772]!	; 0xfffffcfc
     c3c:	13180605 	tstne	r8, #5242880	; 0x500000
     c40:	31062e06 	tstcc	r6, r6, lsl #28
     c44:	01060d05 	tsteq	r6, r5, lsl #26
     c48:	4b060505 	blmi	182064 <__bss_end__+0x177104>
     c4c:	01060d05 	tsteq	r6, r5, lsl #26
     c50:	2f060505 	svccs	0x00060505
     c54:	01060d05 	tsteq	r6, r5, lsl #26
     c58:	2f060505 	svccs	0x00060505
     c5c:	01060d05 	tsteq	r6, r5, lsl #26
     c60:	30060505 	andcc	r0, r6, r5, lsl #10
     c64:	01010168 	tsteq	r1, r8, ror #2
     c68:	13020518 	movwne	r0, #9496	; 0x2518
     c6c:	13690505 	cmnne	r9, #20971520	; 0x1400000
     c70:	01051368 	tsteq	r5, r8, ror #6
     c74:	1c056706 	stcne	7, cr6, [r5], {6}
     c78:	7ecc0306 	cdpvc	3, 12, cr0, cr12, cr6, {0}
     c7c:	050106ba 	streq	r0, [r1, #-1722]	; 0xfffff946
     c80:	01670602 	cmneq	r7, r2, lsl #12
     c84:	2e062e06 	cdpcs	14, 0, cr2, cr6, cr6, {0}
     c88:	01130505 	tsteq	r3, r5, lsl #10
     c8c:	02040200 	andeq	r0, r4, #0, 4
     c90:	0402004a 	streq	r0, [r2], #-74	; 0xffffffb6
     c94:	02000102 	andeq	r0, r0, #-2147483648	; 0x80000000
     c98:	05130204 	ldreq	r0, [r3, #-516]	; 0xfffffdfc
     c9c:	04020008 	streq	r0, [r2], #-8
     ca0:	05010602 	streq	r0, [r1, #-1538]	; 0xfffff9fe
     ca4:	04020007 	streq	r0, [r2], #-7
     ca8:	05054a02 	streq	r4, [r5, #-2562]	; 0xfffff5fe
     cac:	0c055106 	stfeqs	f5, [r5], {6}
     cb0:	01050106 	tsteq	r5, r6, lsl #2
     cb4:	0005054b 	andeq	r0, r5, fp, asr #10
     cb8:	06010402 	streq	r0, [r1], -r2, lsl #8
     cbc:	004a7703 	subeq	r7, sl, r3, lsl #14
     cc0:	01010402 	tsteq	r1, r2, lsl #8
     cc4:	01040200 	mrseq	r0, R12_usr
     cc8:	300905d6 	ldrdcc	r0, [r9], -r6
     ccc:	06140513 			; <UNDEFINED> instruction: 0x06140513
     cd0:	06090501 	streq	r0, [r9], -r1, lsl #10
     cd4:	06120567 	ldreq	r0, [r2], -r7, ror #10
     cd8:	06090501 	streq	r0, [r9], -r1, lsl #10
     cdc:	10054b4b 	andne	r4, r5, fp, asr #22
     ce0:	31050106 	tstcc	r5, r6, lsl #2
     ce4:	01b00306 	lslseq	r0, r6, #6
     ce8:	01062008 	tsteq	r6, r8
     cec:	4b060205 	blmi	181508 <__bss_end__+0x1765a8>
     cf0:	062e0601 	strteq	r0, [lr], -r1, lsl #12
     cf4:	1305052e 	movwne	r0, #21806	; 0x552e
     cf8:	052f0205 	streq	r0, [pc, #-517]!	; afb <__code_start__-0x7505>
     cfc:	0c054b05 			; <UNDEFINED> instruction: 0x0c054b05
     d00:	01050106 	tsteq	r5, r6, lsl #2
     d04:	061a054b 	ldreq	r0, [sl], -fp, asr #10
     d08:	32050569 	andcc	r0, r5, #440401920	; 0x1a400000
     d0c:	06080513 			; <UNDEFINED> instruction: 0x06080513
     d10:	4a070501 	bmi	1c211c <__bss_end__+0x1b71bc>
     d14:	4b060905 	blmi	183130 <__bss_end__+0x1781d0>
     d18:	054a0114 	strbeq	r0, [sl, #-276]	; 0xfffffeec
     d1c:	01051305 	tsteq	r5, r5, lsl #6
     d20:	09051306 	stmdbeq	r5, {r1, r2, r8, r9, ip}
     d24:	9e012a06 	vmlals.f32	s4, s2, s12
     d28:	05a52205 	streq	r2, [r5, #517]!	; 0x205
     d2c:	05133205 	ldreq	r3, [r3, #-517]	; 0xfffffdfb
     d30:	05010617 	streq	r0, [r1, #-1559]	; 0xfffff9e9
     d34:	054b0605 	strbeq	r0, [fp, #-1541]	; 0xfffff9fb
     d38:	05010607 	streq	r0, [r1, #-1543]	; 0xfffff9f9
     d3c:	144b0609 	strbne	r0, [fp], #-1545	; 0xfffff9f7
     d40:	064a0601 	strbeq	r0, [sl], -r1, lsl #12
     d44:	1305052e 	movwne	r0, #21806	; 0x552e
     d48:	06010513 			; <UNDEFINED> instruction: 0x06010513
     d4c:	06090513 			; <UNDEFINED> instruction: 0x06090513
     d50:	059e0145 	ldreq	r0, [lr, #325]	; 0x145
     d54:	9e1f0316 	mrcls	3, 0, r0, cr15, cr6, {0}
     d58:	2f2f0505 	svccs	0x002f0505
     d5c:	01061705 	tsteq	r6, r5, lsl #14
     d60:	32060505 	andcc	r0, r6, #20971520	; 0x1400000
     d64:	13060105 	movwne	r0, #24837	; 0x6105
     d68:	30061b05 	andcc	r1, r6, r5, lsl #22
     d6c:	012f0505 			; <UNDEFINED> instruction: 0x012f0505
     d70:	0008029e 	muleq	r8, lr, r2
     d74:	02520101 	subseq	r0, r2, #1073741824	; 0x40000000
     d78:	00030000 	andeq	r0, r3, r0
     d7c:	0000008a 	andeq	r0, r0, sl, lsl #1
     d80:	0efb0102 	cdpeq	1, 15, cr0, cr11, cr2, {0}
     d84:	0101000d 	tsteq	r1, sp
     d88:	00000101 	andeq	r0, r0, r1, lsl #2
     d8c:	00000100 	andeq	r0, r0, r0, lsl #2
     d90:	73552f01 	cmpvc	r5, #1, 30
     d94:	2f737265 	svccs	0x00737265
     d98:	73697274 	cmnvc	r9, #116, 4	; 0x40000007
     d9c:	6e6e6574 	mcrvs	5, 3, r6, cr14, cr4, {3}
     da0:	6d6c6c6f 	stclvs	12, cr6, [ip, #-444]!	; 0xfffffe44
     da4:	442f6e61 	strtmi	r6, [pc], #-3681	; dac <__code_start__-0x7254>
     da8:	6d75636f 	ldclvs	3, cr6, [r5, #-444]!	; 0xfffffe44
     dac:	73746e65 	cmnvc	r4, #1616	; 0x650
     db0:	7270532f 	rsbsvc	r5, r0, #-1140850688	; 0xbc000000
     db4:	5f676e69 	svcpl	0x00676e69
     db8:	72617551 	rsbvc	r7, r1, #339738624	; 0x14400000
     dbc:	5f726574 	svcpl	0x00726574
     dc0:	32323032 	eorscc	r3, r2, #50, 0	; 0x32
     dc4:	3253432f 	subscc	r4, r3, #-1140850688	; 0xbc000000
     dc8:	584c3034 	stmdapl	ip, {r2, r4, r5, ip, sp}^
     dcc:	7270732d 	rsbsvc	r7, r0, #-1275068416	; 0xb4000000
     dd0:	6c2f3232 	sfmvs	f3, 4, [pc], #-200	; d10 <__code_start__-0x72f0>
     dd4:	69706269 	ldmdbvs	r0!, {r0, r3, r5, r6, r9, sp, lr}^
     dd8:	636e692f 	cmnvs	lr, #770048	; 0xbc000
     ddc:	6564756c 	strbvs	r7, [r4, #-1388]!	; 0xfffffa94
     de0:	726b0000 	rsbvc	r0, fp, #0, 0
     de4:	6c616d2d 	stclvs	13, cr6, [r1], #-180	; 0xffffff4c
     de8:	2e636f6c 	cdpcs	15, 6, cr6, cr3, cr12, {3}
     dec:	00000063 	andeq	r0, r0, r3, rrx
     df0:	69707200 	ldmdbvs	r0!, {r9, ip, sp, lr}^
     df4:	0100682e 	tsteq	r0, lr, lsr #16
     df8:	726b0000 	rsbvc	r0, fp, #0, 0
     dfc:	6c616d2d 	stclvs	13, cr6, [r1], #-180	; 0xffffff4c
     e00:	2e636f6c 	cdpcs	15, 6, cr6, cr3, cr12, {3}
     e04:	00000068 	andeq	r0, r0, r8, rrx
     e08:	19050000 	stmdbne	r5, {}	; <UNPREDICTABLE>
     e0c:	18020500 	stmdane	r2, {r8, sl}
     e10:	0300008d 	movweq	r0, #141	; 0x8d
     e14:	060100c5 	streq	r0, [r1], -r5, asr #1
     e18:	06020501 	streq	r0, [r2], -r1, lsl #10
     e1c:	0505132f 	streq	r1, [r5, #-815]	; 0xfffffcd1
     e20:	02050106 	andeq	r0, r5, #-2147483647	; 0x80000001
     e24:	09052f06 	stmdbeq	r5, {r1, r2, r8, r9, sl, fp, sp}
     e28:	02050106 	andeq	r0, r5, #-2147483647	; 0x80000001
     e2c:	12052e4a 	andne	r2, r5, #1184	; 0x4a0
     e30:	01040200 	mrseq	r0, R12_usr
     e34:	02052e06 	andeq	r2, r5, #96	; 0x60
     e38:	01040200 	mrseq	r0, R12_usr
     e3c:	26050106 	strcs	r0, [r5], -r6, lsl #2
     e40:	03040200 	movweq	r0, #16896	; 0x4200
     e44:	0012054a 	andseq	r0, r2, sl, asr #10
     e48:	2e030402 	cdpcs	4, 0, cr0, cr3, cr2, {0}
     e4c:	4b060305 	blmi	181a68 <__bss_end__+0x176b08>
     e50:	01061005 	tsteq	r6, r5
     e54:	052e0605 	streq	r0, [lr, #-1541]!	; 0xfffff9fb
     e58:	04020015 	streq	r0, [r2], #-21	; 0xffffffeb
     e5c:	20054a01 	andcs	r4, r5, r1, lsl #20
     e60:	02040200 	andeq	r0, r4, #0, 4
     e64:	0402004a 	streq	r0, [r2], #-74	; 0xffffffb6
     e68:	02054a02 	andeq	r4, r5, #8192	; 0x2000
     e6c:	10053206 	andne	r3, r5, r6, lsl #4
     e70:	09050106 	stmdbeq	r5, {r1, r2, r8}
     e74:	2e1d052e 	cfmul64cs	mvdx0, mvdx13, mvdx14
     e78:	052e0505 	streq	r0, [lr, #-1285]!	; 0xfffffafb
     e7c:	054e060c 	strbeq	r0, [lr, #-1548]	; 0xfffff9f4
     e80:	05010616 	streq	r0, [r1, #-1558]	; 0xfffff9ea
     e84:	052f0608 	streq	r0, [pc, #-1544]!	; 884 <__code_start__-0x777c>
     e88:	05010614 	streq	r0, [r1, #-1556]	; 0xfffff9ec
     e8c:	0b052e0e 	bleq	14c6cc <__bss_end__+0x14176c>
     e90:	060c052e 	streq	r0, [ip], -lr, lsr #10
     e94:	0615054e 	ldreq	r0, [r5], -lr, asr #10
     e98:	06020501 	streq	r0, [r2], -r1, lsl #10
     e9c:	06080530 			; <UNDEFINED> instruction: 0x06080530
     ea0:	4b010501 	blmi	422ac <__bss_end__+0x3734c>
     ea4:	03060c05 	movweq	r0, #27653	; 0x6c05
     ea8:	25052e75 	strcs	r2, [r5, #-3701]	; 0xfffff18b
     eac:	17050106 	strne	r0, [r5, -r6, lsl #2]
     eb0:	060c052e 	streq	r0, [ip], -lr, lsr #10
     eb4:	061c054b 	ldreq	r0, [ip], -fp, asr #10
     eb8:	2e230501 	cfsh64cs	mvdx0, mvdx3, #1
     ebc:	052e1605 	streq	r1, [lr, #-1541]!	; 0xfffff9fb
     ec0:	054e060c 	strbeq	r0, [lr, #-1548]	; 0xfffff9f4
     ec4:	0501061e 	streq	r0, [r1, #-1566]	; 0xfffff9e2
     ec8:	0c052e16 	stceq	14, cr2, [r5], {22}
     ecc:	1c054b06 			; <UNDEFINED> instruction: 0x1c054b06
     ed0:	15050106 	strne	r0, [r5, #-262]	; 0xfffffefa
     ed4:	062a052e 	strteq	r0, [sl], -lr, lsr #10
     ed8:	667fb703 	ldrbtvs	fp, [pc], -r3, lsl #14
     edc:	02050106 	andeq	r0, r5, #-2147483647	; 0x80000001
     ee0:	14134b06 	ldrne	r4, [r3], #-2822	; 0xfffff4fa
     ee4:	01060505 	tsteq	r6, r5, lsl #10
     ee8:	052f0705 	streq	r0, [pc, #-1797]!	; 7eb <__code_start__-0x7815>
     eec:	05310602 	ldreq	r0, [r1, #-1538]!	; 0xfffff9fe
     ef0:	05010607 	streq	r0, [r1, #-1543]	; 0xfffff9f9
     ef4:	054b0602 	strbeq	r0, [fp, #-1538]	; 0xfffff9fe
     ef8:	05010605 	streq	r0, [r1, #-1541]	; 0xfffff9fb
     efc:	134e0602 	movtne	r0, #58882	; 0xe602
     f00:	01060d05 	tsteq	r6, r5, lsl #26
     f04:	2f060205 	svccs	0x00060205
     f08:	2f062e06 	svccs	0x00062e06
     f0c:	01060905 	tsteq	r6, r5, lsl #18
     f10:	7a030a05 	bvc	c372c <__bss_end__+0xb87cc>
     f14:	35010566 	strcc	r0, [r1, #-1382]	; 0xfffffa9a
     f18:	4d062205 	sfmmi	f2, 4, [r6, #-20]	; 0xffffffec
     f1c:	02050106 	andeq	r0, r5, #-2147483647	; 0x80000001
     f20:	13132f06 	tstne	r3, #6, 30
     f24:	06240514 			; <UNDEFINED> instruction: 0x06240514
     f28:	2e290501 	cfsh64cs	mvdx0, mvdx9, #1
     f2c:	052e0905 	streq	r0, [lr, #-2309]!	; 0xfffff6fb
     f30:	052f0602 	streq	r0, [pc, #-1538]!	; 936 <__code_start__-0x76ca>
     f34:	0501060d 	streq	r0, [r1, #-1549]	; 0xfffff9f3
     f38:	02054a05 	andeq	r4, r5, #20480	; 0x5000
     f3c:	09055006 	stmdbeq	r5, {r1, r2, ip, lr}
     f40:	052e0106 	streq	r0, [lr, #-262]!	; 0xfffffefa
     f44:	052a0603 	streq	r0, [sl, #-1539]!	; 0xfffff9fd
     f48:	05010616 	streq	r0, [r1, #-1558]	; 0xfffff9ea
     f4c:	03054a0e 	movweq	r4, #23054	; 0x5a0e
     f50:	0f052f06 	svceq	0x00052f06
     f54:	04050106 	streq	r0, [r5], #-262	; 0xfffffefa
     f58:	07056c06 	streq	r6, [r5, -r6, lsl #24]
     f5c:	05050106 	streq	r0, [r5, #-262]	; 0xfffffefa
     f60:	0f053206 	svceq	0x00053206
     f64:	05050106 	streq	r0, [r5, #-262]	; 0xfffffefa
     f68:	07054b06 	streq	r4, [r5, -r6, lsl #22]
     f6c:	05050106 	streq	r0, [r5, #-262]	; 0xfffffefa
     f70:	0f052f06 	svceq	0x00052f06
     f74:	04050106 	streq	r0, [r5], #-262	; 0xfffffefa
     f78:	0a053006 	beq	14cf98 <__bss_end__+0x142038>
     f7c:	04050106 	streq	r0, [r5], #-262	; 0xfffffefa
     f80:	0b054b06 	bleq	153ba0 <__bss_end__+0x148c40>
     f84:	052e0106 	streq	r0, [lr, #-262]!	; 0xfffffefa
     f88:	79030605 	stmdbvc	r3, {r0, r2, r9, sl}
     f8c:	0618052e 	ldreq	r0, [r8], -lr, lsr #10
     f90:	2e120501 	cfmul32cs	mvfx0, mvfx2, mvfx1
     f94:	45061a05 	strmi	r1, [r6, #-2565]	; 0xfffff5fb
     f98:	05011805 	streq	r1, [r1, #-2053]	; 0xfffff7fb
     f9c:	05010620 	streq	r0, [r1, #-1568]	; 0xfffff9e0
     fa0:	03052e27 	movweq	r2, #24103	; 0x5e27
     fa4:	0b052f06 	bleq	14cbc4 <__bss_end__+0x141c64>
     fa8:	06050106 	streq	r0, [r5], -r6, lsl #2
     fac:	0603052e 	streq	r0, [r3], -lr, lsr #10
     fb0:	054a0e03 	strbeq	r0, [sl, #-3587]	; 0xfffff1fd
     fb4:	05010609 	streq	r0, [r1, #-1545]	; 0xfffff9f7
     fb8:	04054a06 	streq	r4, [r5], #-2566	; 0xfffff5fa
     fbc:	0d054c06 	stceq	12, cr4, [r5, #-24]	; 0xffffffe8
     fc0:	052e0106 	streq	r0, [lr, #-262]!	; 0xfffffefa
     fc4:	022e2e07 	eoreq	r2, lr, #112	; 0x70
     fc8:	01010006 	tsteq	r1, r6
     fcc:	0000014b 	andeq	r0, r0, fp, asr #2
     fd0:	00e40003 	rsceq	r0, r4, r3
     fd4:	01020000 	mrseq	r0, (UNDEF: 2)
     fd8:	000d0efb 	strdeq	r0, [sp], -fp
     fdc:	01010101 	tsteq	r1, r1, lsl #2
     fe0:	01000000 	mrseq	r0, (UNDEF: 0)
     fe4:	2e010000 	cdpcs	0, 0, cr0, cr1, cr0, {0}
     fe8:	62696c2f 	rsbvs	r6, r9, #12032	; 0x2f00
     fec:	552f0063 	strpl	r0, [pc, #-99]!	; f91 <__code_start__-0x706f>
     ff0:	73726573 	cmnvc	r2, #482344960	; 0x1cc00000
     ff4:	6972742f 	ldmdbvs	r2!, {r0, r1, r2, r3, r5, sl, ip, sp, lr}^
     ff8:	6e657473 	mcrvs	4, 3, r7, cr5, cr3, {3}
     ffc:	6c6c6f6e 	stclvs	15, cr6, [ip], #-440	; 0xfffffe48
    1000:	2f6e616d 	svccs	0x006e616d
    1004:	75636f44 	strbvc	r6, [r3, #-3908]!	; 0xfffff0bc
    1008:	746e656d 	strbtvc	r6, [lr], #-1389	; 0xfffffa93
    100c:	70532f73 	subsvc	r2, r3, r3, ror pc
    1010:	676e6972 			; <UNDEFINED> instruction: 0x676e6972
    1014:	6175515f 	cmnvs	r5, pc, asr r1
    1018:	72657472 	rsbvc	r7, r5, #1912602624	; 0x72000000
    101c:	3230325f 	eorscc	r3, r0, #-268435451	; 0xf0000005
    1020:	53432f32 	movtpl	r2, #16178	; 0x3f32
    1024:	4c303432 	cfldrsmi	mvf3, [r0], #-200	; 0xffffff38
    1028:	70732d58 	rsbsvc	r2, r3, r8, asr sp
    102c:	2f323272 	svccs	0x00323272
    1030:	7062696c 	rsbvc	r6, r2, ip, ror #18
    1034:	6e692f69 	cdpvs	15, 6, cr2, cr9, cr9, {3}
    1038:	64756c63 	ldrbtvs	r6, [r5], #-3171	; 0xfffff39d
    103c:	752f0065 	strvc	r0, [pc, #-101]!	; fdf <__code_start__-0x7021>
    1040:	6c2f7273 	sfmvs	f7, 4, [pc], #-460	; e7c <__code_start__-0x7184>
    1044:	6c61636f 	stclvs	3, cr6, [r1], #-444	; 0xfffffe44
    1048:	6c65432f 	stclvs	3, cr4, [r5], #-188	; 0xffffff44
    104c:	2f72616c 	svccs	0x0072616c
    1050:	2d6d7261 	sfmcs	f7, 2, [sp, #-388]!	; 0xfffffe7c
    1054:	656e6f6e 	strbvs	r6, [lr, #-3950]!	; 0xfffff092
    1058:	6261652d 	rsbvs	r6, r1, #188743680	; 0xb400000
    105c:	65742d69 	ldrbvs	r2, [r4, #-3433]!	; 0xfffff297
    1060:	392f7473 	stmdbcc	pc!, {r0, r1, r4, r5, r6, sl, ip, sp, lr}	; <UNPREDICTABLE>
    1064:	3130322d 	teqcc	r0, sp, lsr #4
    1068:	2d347139 	ldfcss	f7, [r4, #-228]!	; 0xffffff1c
    106c:	30317363 	eorscc	r7, r1, r3, ror #6
    1070:	6c2f6537 	cfstr32vs	mvfx6, [pc], #-220	; f9c <__code_start__-0x7064>
    1074:	672f6269 	strvs	r6, [pc, -r9, ror #4]!
    1078:	612f6363 			; <UNDEFINED> instruction: 0x612f6363
    107c:	6e2d6d72 	mcrvs	13, 1, r6, cr13, cr2, {3}
    1080:	2d656e6f 	stclcs	14, cr6, [r5, #-444]!	; 0xfffffe44
    1084:	69626165 	stmdbvs	r2!, {r0, r2, r5, r6, r8, sp, lr}^
    1088:	322e392f 	eorcc	r3, lr, #770048	; 0xbc000
    108c:	692f312e 	stmdbvs	pc!, {r1, r2, r3, r5, r8, ip, sp}	; <UNPREDICTABLE>
    1090:	756c636e 	strbvc	r6, [ip, #-878]!	; 0xfffffc92
    1094:	00006564 	andeq	r6, r0, r4, ror #10
    1098:	636d656d 	cmnvs	sp, #457179136	; 0x1b400000
    109c:	632e706d 			; <UNDEFINED> instruction: 0x632e706d
    10a0:	00000100 	andeq	r0, r0, r0, lsl #2
    10a4:	2e697072 	mcrcs	0, 3, r7, cr9, cr2, {3}
    10a8:	00020068 	andeq	r0, r2, r8, rrx
    10ac:	64747300 	ldrbtvs	r7, [r4], #-768	; 0xfffffd00
    10b0:	2e666564 	cdpcs	5, 6, cr6, cr6, cr4, {3}
    10b4:	00030068 	andeq	r0, r3, r8, rrx
    10b8:	3d050000 	stccc	0, cr0, [r5, #-0]
    10bc:	c4020500 	strgt	r0, [r2], #-1280	; 0xfffffb00
    10c0:	1400008e 	strne	r0, [r0], #-142	; 0xffffff72
    10c4:	05050106 	streq	r0, [r5, #-262]	; 0xfffffefa
    10c8:	05144b06 	ldreq	r4, [r4, #-2822]	; 0xfffff4fa
    10cc:	0d050109 	stfeqs	f0, [r5, #-36]	; 0xffffffdc
    10d0:	14050106 	strne	r0, [r5], #-262	; 0xfffffefa
    10d4:	01040200 	mrseq	r0, R12_usr
    10d8:	05052e06 	streq	r2, [r5, #-3590]	; 0xfffff1fa
    10dc:	01040200 	mrseq	r0, R12_usr
    10e0:	09050106 	stmdbeq	r5, {r1, r2, r8}
    10e4:	13054b06 	movwne	r4, #23302	; 0x5b06
    10e8:	1b050106 	blne	141508 <__bss_end__+0x1365a8>
    10ec:	0609052e 	streq	r0, [r9], -lr, lsr #10
    10f0:	060b052f 	streq	r0, [fp], -pc, lsr #10
    10f4:	20052e01 	andcs	r2, r5, r1, lsl #28
    10f8:	02040200 	andeq	r0, r4, #0, 4
    10fc:	21052c06 	tstcs	r5, r6, lsl #24
    1100:	02040200 	andeq	r0, r4, #0, 4
    1104:	02000106 	andeq	r0, r0, #-2147483647	; 0x80000001
    1108:	002e0204 	eoreq	r0, lr, r4, lsl #4
    110c:	2e020402 	cdpcs	4, 0, cr0, cr2, cr2, {0}
    1110:	05170c05 	ldreq	r0, [r7, #-3077]	; 0xfffff3fb
    1114:	02022f01 	andeq	r2, r2, #1, 30
    1118:	cb010100 	blgt	41520 <__bss_end__+0x365c0>
    111c:	03000001 	movweq	r0, #1
    1120:	0000e400 	andeq	lr, r0, r0, lsl #8
    1124:	fb010200 	blx	4192e <__bss_end__+0x369ce>
    1128:	01000d0e 	tsteq	r0, lr, lsl #26
    112c:	00010101 	andeq	r0, r1, r1, lsl #2
    1130:	00010000 	andeq	r0, r1, r0
    1134:	2f2e0100 	svccs	0x002e0100
    1138:	6362696c 	cmnvs	r2, #108, 18	; 0x1b0000
    113c:	73552f00 	cmpvc	r5, #0, 30
    1140:	2f737265 	svccs	0x00737265
    1144:	73697274 	cmnvc	r9, #116, 4	; 0x40000007
    1148:	6e6e6574 	mcrvs	5, 3, r6, cr14, cr4, {3}
    114c:	6d6c6c6f 	stclvs	12, cr6, [ip, #-444]!	; 0xfffffe44
    1150:	442f6e61 	strtmi	r6, [pc], #-3681	; 1158 <__code_start__-0x6ea8>
    1154:	6d75636f 	ldclvs	3, cr6, [r5, #-444]!	; 0xfffffe44
    1158:	73746e65 	cmnvc	r4, #1616	; 0x650
    115c:	7270532f 	rsbsvc	r5, r0, #-1140850688	; 0xbc000000
    1160:	5f676e69 	svcpl	0x00676e69
    1164:	72617551 	rsbvc	r7, r1, #339738624	; 0x14400000
    1168:	5f726574 	svcpl	0x00726574
    116c:	32323032 	eorscc	r3, r2, #50, 0	; 0x32
    1170:	3253432f 	subscc	r4, r3, #-1140850688	; 0xbc000000
    1174:	584c3034 	stmdapl	ip, {r2, r4, r5, ip, sp}^
    1178:	7270732d 	rsbsvc	r7, r0, #-1275068416	; 0xb4000000
    117c:	6c2f3232 	sfmvs	f3, 4, [pc], #-200	; 10bc <__code_start__-0x6f44>
    1180:	69706269 	ldmdbvs	r0!, {r0, r3, r5, r6, r9, sp, lr}^
    1184:	636e692f 	cmnvs	lr, #770048	; 0xbc000
    1188:	6564756c 	strbvs	r7, [r4, #-1388]!	; 0xfffffa94
    118c:	73752f00 	cmnvc	r5, #0, 30
    1190:	6f6c2f72 	svcvs	0x006c2f72
    1194:	2f6c6163 	svccs	0x006c6163
    1198:	6c6c6543 	cfstr64vs	mvdx6, [ip], #-268	; 0xfffffef4
    119c:	612f7261 			; <UNDEFINED> instruction: 0x612f7261
    11a0:	6e2d6d72 	mcrvs	13, 1, r6, cr13, cr2, {3}
    11a4:	2d656e6f 	stclcs	14, cr6, [r5, #-444]!	; 0xfffffe44
    11a8:	69626165 	stmdbvs	r2!, {r0, r2, r5, r6, r8, sp, lr}^
    11ac:	7365742d 	cmnvc	r5, #754974720	; 0x2d000000
    11b0:	2d392f74 	ldccs	15, cr2, [r9, #-464]!	; 0xfffffe30
    11b4:	39313032 	ldmdbcc	r1!, {r1, r4, r5, ip, sp}
    11b8:	632d3471 			; <UNDEFINED> instruction: 0x632d3471
    11bc:	37303173 			; <UNDEFINED> instruction: 0x37303173
    11c0:	696c2f65 	stmdbvs	ip!, {r0, r2, r5, r6, r8, r9, sl, fp, sp}^
    11c4:	63672f62 	cmnvs	r7, #392	; 0x188
    11c8:	72612f63 	rsbvc	r2, r1, #396	; 0x18c
    11cc:	6f6e2d6d 	svcvs	0x006e2d6d
    11d0:	652d656e 	strvs	r6, [sp, #-1390]!	; 0xfffffa92
    11d4:	2f696261 	svccs	0x00696261
    11d8:	2e322e39 	mrccs	14, 1, r2, cr2, cr9, {1}
    11dc:	6e692f31 	mcrvs	15, 3, r2, cr9, cr1, {1}
    11e0:	64756c63 	ldrbtvs	r6, [r5], #-3171	; 0xfffff39d
    11e4:	6d000065 	stcvs	0, cr0, [r0, #-404]	; 0xfffffe6c
    11e8:	70636d65 	rsbvc	r6, r3, r5, ror #26
    11ec:	00632e79 	rsbeq	r2, r3, r9, ror lr
    11f0:	72000001 	andvc	r0, r0, #1, 0
    11f4:	682e6970 	stmdavs	lr!, {r4, r5, r6, r8, fp, sp, lr}
    11f8:	00000200 	andeq	r0, r0, r0, lsl #4
    11fc:	64647473 	strbtvs	r7, [r4], #-1139	; 0xfffffb8d
    1200:	682e6665 	stmdavs	lr!, {r0, r2, r5, r6, r9, sl, sp, lr}
    1204:	00000300 	andeq	r0, r0, r0, lsl #6
    1208:	00390500 	eorseq	r0, r9, r0, lsl #10
    120c:	8ef80205 	cdphi	2, 15, cr0, cr8, cr5, {0}
    1210:	05170000 	ldreq	r0, [r7, #-0]
    1214:	07051705 	streq	r1, [r5, -r5, lsl #14]
    1218:	16050106 	strne	r0, [r5], -r6, lsl #2
    121c:	01040200 	mrseq	r0, R12_usr
    1220:	0027054a 	eoreq	r0, r7, sl, asr #10
    1224:	4a020402 	bmi	82234 <__bss_end__+0x772d4>
    1228:	02000905 	andeq	r0, r0, #81920	; 0x14000
    122c:	4b060204 	blmi	181a44 <__bss_end__+0x176ae4>
    1230:	02040200 	andeq	r0, r4, #0, 4
    1234:	04020001 	streq	r0, [r2], #-1
    1238:	02000102 	andeq	r0, r0, #-2147483648	; 0x80000000
    123c:	00010204 	andeq	r0, r1, r4, lsl #4
    1240:	13020402 	movwne	r0, #9218	; 0x2402
    1244:	02001205 	andeq	r1, r0, #1342177280	; 0x50000000
    1248:	01060204 	tsteq	r6, r4, lsl #4
    124c:	02000905 	andeq	r0, r0, #81920	; 0x14000
    1250:	2f060204 	svccs	0x00060204
    1254:	02040200 	andeq	r0, r4, #0, 4
    1258:	04020013 	streq	r0, [r2], #-19	; 0xffffffed
    125c:	0d051402 	cfstrseq	mvf1, [r5, #-8]
    1260:	02040200 	andeq	r0, r4, #0, 4
    1264:	00090501 	andeq	r0, r9, r1, lsl #10
    1268:	06020402 	streq	r0, [r2], -r2, lsl #8
    126c:	000d0501 	andeq	r0, sp, r1, lsl #10
    1270:	06030402 	streq	r0, [r3], -r2, lsl #8
    1274:	0015052f 	andseq	r0, r5, pc, lsr #10
    1278:	06030402 	streq	r0, [r3], -r2, lsl #8
    127c:	00120501 	andseq	r0, r2, r1, lsl #10
    1280:	2e030402 	cdpcs	4, 0, cr0, cr3, cr2, {0}
    1284:	02002405 	andeq	r2, r0, #83886080	; 0x5000000
    1288:	2d060304 	stccs	3, cr0, [r6, #-16]
    128c:	02002505 	andeq	r2, r0, #20971520	; 0x1400000
    1290:	01060304 	tsteq	r6, r4, lsl #6
    1294:	02001d05 	andeq	r1, r0, #320	; 0x140
    1298:	2e060104 	adfcss	f0, f6, f4
    129c:	02000905 	andeq	r0, r0, #81920	; 0x14000
    12a0:	01060104 	tsteq	r6, r4, lsl #2
    12a4:	01040200 	mrseq	r0, R12_usr
    12a8:	000d0566 	andeq	r0, sp, r6, ror #10
    12ac:	06030402 	streq	r0, [r3], -r2, lsl #8
    12b0:	00150518 	andseq	r0, r5, r8, lsl r5
    12b4:	06030402 	streq	r0, [r3], -r2, lsl #8
    12b8:	00120501 	andseq	r0, r2, r1, lsl #10
    12bc:	2e030402 	cdpcs	4, 0, cr0, cr3, cr2, {0}
    12c0:	02002905 	andeq	r2, r0, #81920	; 0x14000
    12c4:	2d060304 	stccs	3, cr0, [r6, #-16]
    12c8:	02002a05 	andeq	r2, r0, #20480	; 0x5000
    12cc:	01060304 	tsteq	r6, r4, lsl #6
    12d0:	02001d05 	andeq	r1, r0, #320	; 0x140
    12d4:	2e060104 	adfcss	f0, f6, f4
    12d8:	02000905 	andeq	r0, r0, #81920	; 0x14000
    12dc:	01060104 	tsteq	r6, r4, lsl #2
    12e0:	01040200 	mrseq	r0, R12_usr
    12e4:	00080266 	andeq	r0, r8, r6, ror #4
    12e8:	01140101 	tsteq	r4, r1, lsl #2
    12ec:	00030000 	andeq	r0, r3, r0
    12f0:	000000e4 	andeq	r0, r0, r4, ror #1
    12f4:	0efb0102 	cdpeq	1, 15, cr0, cr11, cr2, {0}
    12f8:	0101000d 	tsteq	r1, sp
    12fc:	00000101 	andeq	r0, r0, r1, lsl #2
    1300:	00000100 	andeq	r0, r0, r0, lsl #2
    1304:	6c2f2e01 	stcvs	14, cr2, [pc], #-4	; 1308 <__code_start__-0x6cf8>
    1308:	00636269 	rsbeq	r6, r3, r9, ror #4
    130c:	6573552f 	ldrbvs	r5, [r3, #-1327]!	; 0xfffffad1
    1310:	742f7372 	strtvc	r7, [pc], #-882	; 1318 <__code_start__-0x6ce8>
    1314:	74736972 	ldrbtvc	r6, [r3], #-2418	; 0xfffff68e
    1318:	6f6e6e65 	svcvs	0x006e6e65
    131c:	616d6c6c 	cmnvs	sp, ip, ror #24
    1320:	6f442f6e 	svcvs	0x00442f6e
    1324:	656d7563 	strbvs	r7, [sp, #-1379]!	; 0xfffffa9d
    1328:	2f73746e 	svccs	0x0073746e
    132c:	69727053 	ldmdbvs	r2!, {r0, r1, r4, r6, ip, sp, lr}^
    1330:	515f676e 	cmppl	pc, lr, ror #14
    1334:	74726175 	ldrbtvc	r6, [r2], #-373	; 0xfffffe8b
    1338:	325f7265 	subscc	r7, pc, #1342177286	; 0x50000006
    133c:	2f323230 	svccs	0x00323230
    1340:	34325343 	ldrtcc	r5, [r2], #-835	; 0xfffffcbd
    1344:	2d584c30 	ldclcs	12, cr4, [r8, #-192]	; 0xffffff40
    1348:	32727073 	rsbscc	r7, r2, #115, 0	; 0x73
    134c:	696c2f32 	stmdbvs	ip!, {r1, r4, r5, r8, r9, sl, fp, sp}^
    1350:	2f697062 	svccs	0x00697062
    1354:	6c636e69 	stclvs	14, cr6, [r3], #-420	; 0xfffffe5c
    1358:	00656475 	rsbeq	r6, r5, r5, ror r4
    135c:	7273752f 	rsbsvc	r7, r3, #197132288	; 0xbc00000
    1360:	636f6c2f 	cmnvs	pc, #12032	; 0x2f00
    1364:	432f6c61 			; <UNDEFINED> instruction: 0x432f6c61
    1368:	616c6c65 	cmnvs	ip, r5, ror #24
    136c:	72612f72 	rsbvc	r2, r1, #456	; 0x1c8
    1370:	6f6e2d6d 	svcvs	0x006e2d6d
    1374:	652d656e 	strvs	r6, [sp, #-1390]!	; 0xfffffa92
    1378:	2d696261 	sfmcs	f6, 2, [r9, #-388]!	; 0xfffffe7c
    137c:	74736574 	ldrbtvc	r6, [r3], #-1396	; 0xfffffa8c
    1380:	322d392f 	eorcc	r3, sp, #770048	; 0xbc000
    1384:	71393130 	teqvc	r9, r0, lsr r1
    1388:	73632d34 	cmnvc	r3, #52, 26	; 0xd00
    138c:	65373031 	ldrvs	r3, [r7, #-49]!	; 0xffffffcf
    1390:	62696c2f 	rsbvs	r6, r9, #12032	; 0x2f00
    1394:	6363672f 	cmnvs	r3, #12320768	; 0xbc0000
    1398:	6d72612f 	ldfvse	f6, [r2, #-188]!	; 0xffffff44
    139c:	6e6f6e2d 	cdpvs	14, 6, cr6, cr15, cr13, {1}
    13a0:	61652d65 	cmnvs	r5, r5, ror #26
    13a4:	392f6962 	stmdbcc	pc!, {r1, r5, r6, r8, fp, sp, lr}	; <UNPREDICTABLE>
    13a8:	312e322e 			; <UNDEFINED> instruction: 0x312e322e
    13ac:	636e692f 	cmnvs	lr, #770048	; 0xbc000
    13b0:	6564756c 	strbvs	r7, [r4, #-1388]!	; 0xfffffa94
    13b4:	656d0000 	strbvs	r0, [sp, #-0]!
    13b8:	7465736d 	strbtvc	r7, [r5], #-877	; 0xfffffc93
    13bc:	0100632e 	tsteq	r0, lr, lsr #6
    13c0:	70720000 	rsbsvc	r0, r2, r0
    13c4:	00682e69 	rsbeq	r2, r8, r9, ror #28
    13c8:	73000002 	movwvc	r0, #2
    13cc:	65646474 	strbvs	r6, [r4, #-1140]!	; 0xfffffb8c
    13d0:	00682e66 	rsbeq	r2, r8, r6, ror #28
    13d4:	00000003 	andeq	r0, r0, r3
    13d8:	05002905 	streq	r2, [r0, #-2309]	; 0xfffff6fb
    13dc:	008f5802 	addeq	r5, pc, r2, lsl #16
    13e0:	05051500 	streq	r1, [r5, #-1280]	; 0xfffffb00
    13e4:	06140513 			; <UNDEFINED> instruction: 0x06140513
    13e8:	06050501 	streq	r0, [r5], -r1, lsl #10
    13ec:	060b0530 			; <UNDEFINED> instruction: 0x060b0530
    13f0:	060a0510 			; <UNDEFINED> instruction: 0x060a0510
    13f4:	4b090530 	blmi	2428bc <__bss_end__+0x23795c>
    13f8:	01060e05 	tsteq	r6, r5, lsl #28
    13fc:	0002022e 	andeq	r0, r2, lr, lsr #4
    1400:	01330101 	teqeq	r3, r1, lsl #2
    1404:	00030000 	andeq	r0, r3, r0
    1408:	00000101 	andeq	r0, r0, r1, lsl #2
    140c:	0efb0102 	cdpeq	1, 15, cr0, cr11, cr2, {0}
    1410:	0101000d 	tsteq	r1, sp
    1414:	00000101 	andeq	r0, r0, r1, lsl #2
    1418:	00000100 	andeq	r0, r0, r0, lsl #2
    141c:	6c2f2e01 	stcvs	14, cr2, [pc], #-4	; 1420 <__code_start__-0x6be0>
    1420:	00636269 	rsbeq	r6, r3, r9, ror #4
    1424:	7273752f 	rsbsvc	r7, r3, #197132288	; 0xbc00000
    1428:	636f6c2f 	cmnvs	pc, #12032	; 0x2f00
    142c:	432f6c61 			; <UNDEFINED> instruction: 0x432f6c61
    1430:	616c6c65 	cmnvs	ip, r5, ror #24
    1434:	72612f72 	rsbvc	r2, r1, #456	; 0x1c8
    1438:	6f6e2d6d 	svcvs	0x006e2d6d
    143c:	652d656e 	strvs	r6, [sp, #-1390]!	; 0xfffffa92
    1440:	2d696261 	sfmcs	f6, 2, [r9, #-388]!	; 0xfffffe7c
    1444:	74736574 	ldrbtvc	r6, [r3], #-1396	; 0xfffffa8c
    1448:	322d392f 	eorcc	r3, sp, #770048	; 0xbc000
    144c:	71393130 	teqvc	r9, r0, lsr r1
    1450:	73632d34 	cmnvc	r3, #52, 26	; 0xd00
    1454:	65373031 	ldrvs	r3, [r7, #-49]!	; 0xffffffcf
    1458:	62696c2f 	rsbvs	r6, r9, #12032	; 0x2f00
    145c:	6363672f 	cmnvs	r3, #12320768	; 0xbc0000
    1460:	6d72612f 	ldfvse	f6, [r2, #-188]!	; 0xffffff44
    1464:	6e6f6e2d 	cdpvs	14, 6, cr6, cr15, cr13, {1}
    1468:	61652d65 	cmnvs	r5, r5, ror #26
    146c:	392f6962 	stmdbcc	pc!, {r1, r5, r6, r8, fp, sp, lr}	; <UNPREDICTABLE>
    1470:	312e322e 			; <UNDEFINED> instruction: 0x312e322e
    1474:	636e692f 	cmnvs	lr, #770048	; 0xbc000
    1478:	6564756c 	strbvs	r7, [r4, #-1388]!	; 0xfffffa94
    147c:	73552f00 	cmpvc	r5, #0, 30
    1480:	2f737265 	svccs	0x00737265
    1484:	73697274 	cmnvc	r9, #116, 4	; 0x40000007
    1488:	6e6e6574 	mcrvs	5, 3, r6, cr14, cr4, {3}
    148c:	6d6c6c6f 	stclvs	12, cr6, [ip, #-444]!	; 0xfffffe44
    1490:	442f6e61 	strtmi	r6, [pc], #-3681	; 1498 <__code_start__-0x6b68>
    1494:	6d75636f 	ldclvs	3, cr6, [r5, #-444]!	; 0xfffffe44
    1498:	73746e65 	cmnvc	r4, #1616	; 0x650
    149c:	7270532f 	rsbsvc	r5, r0, #-1140850688	; 0xbc000000
    14a0:	5f676e69 	svcpl	0x00676e69
    14a4:	72617551 	rsbvc	r7, r1, #339738624	; 0x14400000
    14a8:	5f726574 	svcpl	0x00726574
    14ac:	32323032 	eorscc	r3, r2, #50, 0	; 0x32
    14b0:	3253432f 	subscc	r4, r3, #-1140850688	; 0xbc000000
    14b4:	584c3034 	stmdapl	ip, {r2, r4, r5, ip, sp}^
    14b8:	7270732d 	rsbsvc	r7, r0, #-1275068416	; 0xb4000000
    14bc:	6c2f3232 	sfmvs	f3, 4, [pc], #-200	; 13fc <__code_start__-0x6c04>
    14c0:	69706269 	ldmdbvs	r0!, {r0, r3, r5, r6, r9, sp, lr}^
    14c4:	636e692f 	cmnvs	lr, #770048	; 0xbc000
    14c8:	6564756c 	strbvs	r7, [r4, #-1388]!	; 0xfffffa94
    14cc:	72700000 	rsbsvc	r0, r0, #0, 0
    14d0:	6b746e69 	blvs	1d1ce7c <__bss_end__+0x1d11f1c>
    14d4:	0100632e 	tsteq	r0, lr, lsr #6
    14d8:	74730000 	ldrbtvc	r0, [r3], #-0
    14dc:	67726164 	ldrbvs	r6, [r2, -r4, ror #2]!
    14e0:	0200682e 	andeq	r6, r0, #3014656	; 0x2e0000
    14e4:	70720000 	rsbsvc	r0, r2, r0
    14e8:	00682e69 	rsbeq	r2, r8, r9, ror #28
    14ec:	3c000003 	stccc	0, cr0, [r0], {3}
    14f0:	6c697562 	cfstr64vs	mvdx7, [r9], #-392	; 0xfffffe78
    14f4:	6e692d74 	mcrvs	13, 3, r2, cr9, cr4, {3}
    14f8:	0000003e 	andeq	r0, r0, lr, lsr r0
    14fc:	2d617600 	stclcs	6, cr7, [r1, #-0]
    1500:	6e697270 	mcrvs	2, 3, r7, cr9, cr0, {3}
    1504:	682e6b74 	stmdavs	lr!, {r2, r4, r5, r6, r8, r9, fp, sp, lr}
    1508:	00000100 	andeq	r0, r0, r0, lsl #2
    150c:	00220500 	eoreq	r0, r2, r0, lsl #10
    1510:	8f700205 	svchi	0x00700205
    1514:	06170000 	ldreq	r0, [r7], -r0
    1518:	06050501 	streq	r0, [r5], -r1, lsl #10
    151c:	05141368 	ldreq	r1, [r4, #-872]	; 0xfffffc98
    1520:	12054b09 	andne	r4, r5, #9216	; 0x2400
    1524:	05050106 	streq	r0, [r5, #-262]	; 0xfffffefa
    1528:	0616bb06 	ldreq	fp, [r6], -r6, lsl #22
    152c:	05340666 	ldreq	r0, [r4, #-1638]!	; 0xfffff99a
    1530:	66130601 	ldrvs	r0, [r3], -r1, lsl #12
    1534:	01000802 	tsteq	r0, r2, lsl #16
    1538:	0000cb01 	andeq	ip, r0, r1, lsl #22
    153c:	7d000300 	stcvc	3, cr0, [r0, #-0]
    1540:	02000000 	andeq	r0, r0, #0, 0
    1544:	0d0efb01 	vstreq	d15, [lr, #-4]
    1548:	01010100 	mrseq	r0, (UNDEF: 17)
    154c:	00000001 	andeq	r0, r0, r1
    1550:	01000001 	tsteq	r0, r1
    1554:	696c2f2e 	stmdbvs	ip!, {r1, r2, r3, r5, r8, r9, sl, fp, sp}^
    1558:	2f006362 	svccs	0x00006362
    155c:	72657355 	rsbvc	r7, r5, #1409286145	; 0x54000001
    1560:	72742f73 	rsbsvc	r2, r4, #460	; 0x1cc
    1564:	65747369 	ldrbvs	r7, [r4, #-873]!	; 0xfffffc97
    1568:	6c6f6e6e 	stclvs	14, cr6, [pc], #-440	; 13b8 <__code_start__-0x6c48>
    156c:	6e616d6c 	cdpvs	13, 6, cr6, cr1, cr12, {3}
    1570:	636f442f 	cmnvs	pc, #788529152	; 0x2f000000
    1574:	6e656d75 	mcrvs	13, 3, r6, cr5, cr5, {3}
    1578:	532f7374 			; <UNDEFINED> instruction: 0x532f7374
    157c:	6e697270 	mcrvs	2, 3, r7, cr9, cr0, {3}
    1580:	75515f67 	ldrbvc	r5, [r1, #-3943]	; 0xfffff099
    1584:	65747261 	ldrbvs	r7, [r4, #-609]!	; 0xfffffd9f
    1588:	30325f72 	eorscc	r5, r2, r2, ror pc
    158c:	432f3232 			; <UNDEFINED> instruction: 0x432f3232
    1590:	30343253 	eorscc	r3, r4, r3, asr r2
    1594:	732d584c 			; <UNDEFINED> instruction: 0x732d584c
    1598:	32327270 	eorscc	r7, r2, #112, 4
    159c:	62696c2f 	rsbvs	r6, r9, #12032	; 0x2f00
    15a0:	692f6970 	stmdbvs	pc!, {r4, r5, r6, r8, fp, sp, lr}	; <UNPREDICTABLE>
    15a4:	756c636e 	strbvc	r6, [ip, #-878]!	; 0xfffffc92
    15a8:	00006564 	andeq	r6, r0, r4, ror #10
    15ac:	6b747570 	blvs	1d1eb74 <__bss_end__+0x1d13c14>
    15b0:	0100632e 	tsteq	r0, lr, lsr #6
    15b4:	70720000 	rsbsvc	r0, r2, r0
    15b8:	00682e69 	rsbeq	r2, r8, r9, ror #28
    15bc:	00000002 	andeq	r0, r0, r2
    15c0:	05002205 	streq	r2, [r0, #-517]	; 0xfffffdfb
    15c4:	008fc802 	addeq	ip, pc, r2, lsl #16
    15c8:	01061500 	tsteq	r6, r0, lsl #10
    15cc:	4b060505 	blmi	1829e8 <__bss_end__+0x177a88>
    15d0:	02000b05 	andeq	r0, r0, #5120	; 0x1400
    15d4:	05010104 	streq	r0, [r1, #-260]	; 0xfffffefc
    15d8:	04020005 	streq	r0, [r2], #-5
    15dc:	052e0601 	streq	r0, [lr, #-1537]!	; 0xfffff9ff
    15e0:	04020009 	streq	r0, [r2], #-9
    15e4:	054b0602 	strbeq	r0, [fp, #-1538]	; 0xfffff9fe
    15e8:	0402000f 	streq	r0, [r2], #-15
    15ec:	10056502 	andne	r6, r5, r2, lsl #10
    15f0:	02040200 	andeq	r0, r4, #0, 4
    15f4:	02000106 	andeq	r0, r0, #-2147483647	; 0x80000001
    15f8:	052e0204 	streq	r0, [lr, #-516]!	; 0xfffffdfc
    15fc:	05320605 	ldreq	r0, [r2, #-1541]!	; 0xfffff9fb
    1600:	02130601 	andseq	r0, r3, #1048576	; 0x100000
    1604:	01010006 	tsteq	r1, r6
    1608:	0000061d 	andeq	r0, r0, sp, lsl r6
    160c:	01170003 	tsteq	r7, r3
    1610:	01020000 	mrseq	r0, (UNDEF: 2)
    1614:	000d0efb 	strdeq	r0, [sp], -fp
    1618:	01010101 	tsteq	r1, r1, lsl #2
    161c:	01000000 	mrseq	r0, (UNDEF: 0)
    1620:	2e010000 	cdpcs	0, 0, cr0, cr1, cr0, {0}
    1624:	62696c2f 	rsbvs	r6, r9, #12032	; 0x2f00
    1628:	752f0063 	strvc	r0, [pc, #-99]!	; 15cd <__code_start__-0x6a33>
    162c:	6c2f7273 	sfmvs	f7, 4, [pc], #-460	; 1468 <__code_start__-0x6b98>
    1630:	6c61636f 	stclvs	3, cr6, [r1], #-444	; 0xfffffe44
    1634:	6c65432f 	stclvs	3, cr4, [r5], #-188	; 0xffffff44
    1638:	2f72616c 	svccs	0x0072616c
    163c:	2d6d7261 	sfmcs	f7, 2, [sp, #-388]!	; 0xfffffe7c
    1640:	656e6f6e 	strbvs	r6, [lr, #-3950]!	; 0xfffff092
    1644:	6261652d 	rsbvs	r6, r1, #188743680	; 0xb400000
    1648:	65742d69 	ldrbvs	r2, [r4, #-3433]!	; 0xfffff297
    164c:	392f7473 	stmdbcc	pc!, {r0, r1, r4, r5, r6, sl, ip, sp, lr}	; <UNPREDICTABLE>
    1650:	3130322d 	teqcc	r0, sp, lsr #4
    1654:	2d347139 	ldfcss	f7, [r4, #-228]!	; 0xffffff1c
    1658:	30317363 	eorscc	r7, r1, r3, ror #6
    165c:	6c2f6537 	cfstr32vs	mvfx6, [pc], #-220	; 1588 <__code_start__-0x6a78>
    1660:	672f6269 	strvs	r6, [pc, -r9, ror #4]!
    1664:	612f6363 			; <UNDEFINED> instruction: 0x612f6363
    1668:	6e2d6d72 	mcrvs	13, 1, r6, cr13, cr2, {3}
    166c:	2d656e6f 	stclcs	14, cr6, [r5, #-444]!	; 0xfffffe44
    1670:	69626165 	stmdbvs	r2!, {r0, r2, r5, r6, r8, sp, lr}^
    1674:	322e392f 	eorcc	r3, lr, #770048	; 0xbc000
    1678:	692f312e 	stmdbvs	pc!, {r1, r2, r3, r5, r8, ip, sp}	; <UNPREDICTABLE>
    167c:	756c636e 	strbvc	r6, [ip, #-878]!	; 0xfffffc92
    1680:	2f006564 	svccs	0x00006564
    1684:	72657355 	rsbvc	r7, r5, #1409286145	; 0x54000001
    1688:	72742f73 	rsbsvc	r2, r4, #460	; 0x1cc
    168c:	65747369 	ldrbvs	r7, [r4, #-873]!	; 0xfffffc97
    1690:	6c6f6e6e 	stclvs	14, cr6, [pc], #-440	; 14e0 <__code_start__-0x6b20>
    1694:	6e616d6c 	cdpvs	13, 6, cr6, cr1, cr12, {3}
    1698:	636f442f 	cmnvs	pc, #788529152	; 0x2f000000
    169c:	6e656d75 	mcrvs	13, 3, r6, cr5, cr5, {3}
    16a0:	532f7374 			; <UNDEFINED> instruction: 0x532f7374
    16a4:	6e697270 	mcrvs	2, 3, r7, cr9, cr0, {3}
    16a8:	75515f67 	ldrbvc	r5, [r1, #-3943]	; 0xfffff099
    16ac:	65747261 	ldrbvs	r7, [r4, #-609]!	; 0xfffffd9f
    16b0:	30325f72 	eorscc	r5, r2, r2, ror pc
    16b4:	432f3232 			; <UNDEFINED> instruction: 0x432f3232
    16b8:	30343253 	eorscc	r3, r4, r3, asr r2
    16bc:	732d584c 			; <UNDEFINED> instruction: 0x732d584c
    16c0:	32327270 	eorscc	r7, r2, #112, 4
    16c4:	62696c2f 	rsbvs	r6, r9, #12032	; 0x2f00
    16c8:	692f6970 	stmdbvs	pc!, {r4, r5, r6, r8, fp, sp, lr}	; <UNPREDICTABLE>
    16cc:	756c636e 	strbvc	r6, [ip, #-878]!	; 0xfffffc92
    16d0:	00006564 	andeq	r6, r0, r4, ror #10
    16d4:	702d6176 	eorvc	r6, sp, r6, ror r1
    16d8:	746e6972 	strbtvc	r6, [lr], #-2418	; 0xfffff68e
    16dc:	00632e6b 	rsbeq	r2, r3, fp, ror #28
    16e0:	73000001 	movwvc	r0, #1
    16e4:	6e696474 	mcrvs	4, 3, r6, cr9, cr4, {3}
    16e8:	63672d74 	cmnvs	r7, #116, 26	; 0x1d00
    16ec:	00682e63 	rsbeq	r2, r8, r3, ror #28
    16f0:	72000002 	andvc	r0, r0, #2, 0
    16f4:	682e6970 	stmdavs	lr!, {r4, r5, r6, r8, fp, sp, lr}
    16f8:	00000300 	andeq	r0, r0, r0, lsl #6
    16fc:	2d697072 	stclcs	0, cr7, [r9, #-456]!	; 0xfffffe38
    1700:	65746e69 	ldrbvs	r6, [r4, #-3689]!	; 0xfffff197
    1704:	6c616e72 	stclvs	14, cr6, [r1], #-456	; 0xfffffe38
    1708:	0300682e 	movweq	r6, #2094	; 0x82e
    170c:	74730000 	ldrbtvc	r0, [r3], #-0
    1710:	67726164 	ldrbvs	r6, [r2, -r4, ror #2]!
    1714:	0200682e 	andeq	r6, r0, #3014656	; 0x2e0000
    1718:	623c0000 	eorsvs	r0, ip, #0, 0
    171c:	746c6975 	strbtvc	r6, [ip], #-2421	; 0xfffff68b
    1720:	3e6e692d 	vmulcc.f16	s13, s28, s27	; <UNPREDICTABLE>
    1724:	00000000 	andeq	r0, r0, r0
    1728:	001b0500 	andseq	r0, fp, r0, lsl #10
    172c:	8ffc0205 	svchi	0x00fc0205
    1730:	26030000 	strcs	r0, [r3], -r0
    1734:	011d0501 	tsteq	sp, r1, lsl #10
    1738:	01062d05 	tsteq	r6, r5, lsl #26
    173c:	4a2e0105 	bmi	b81b58 <__bss_end__+0xb76bf8>
    1740:	51063305 	tstpl	r6, r5, lsl #6
    1744:	05130205 	ldreq	r0, [r3, #-517]	; 0xfffffdfb
    1748:	05010606 	streq	r0, [r1, #-1542]	; 0xfffff9fa
    174c:	05300602 	ldreq	r0, [r0, #-1538]!	; 0xfffff9fe
    1750:	04020008 	streq	r0, [r2], #-8
    1754:	02050101 	andeq	r0, r5, #1073741824	; 0x40000000
    1758:	01040200 	mrseq	r0, R12_usr
    175c:	03050106 	movweq	r0, #20742	; 0x5106
    1760:	02040200 	andeq	r0, r4, #0, 4
    1764:	08052f06 	stmdaeq	r5, {r1, r2, r8, r9, sl, fp, sp}
    1768:	02040200 	andeq	r0, r4, #0, 4
    176c:	15050106 	strne	r0, [r5, #-262]	; 0xfffffefa
    1770:	02040200 	andeq	r0, r4, #0, 4
    1774:	18054906 	stmdane	r5, {r1, r2, r8, fp, lr}
    1778:	02040200 	andeq	r0, r4, #0, 4
    177c:	02000106 	andeq	r0, r0, #-2147483647	; 0x80000001
    1780:	052e0204 	streq	r0, [lr, #-516]!	; 0xfffffdfc
    1784:	05300602 	ldreq	r0, [r0, #-1538]!	; 0xfffff9fe
    1788:	05010605 	streq	r0, [r1, #-1541]	; 0xfffff9fb
    178c:	054b0602 	strbeq	r0, [fp, #-1538]	; 0xfffff9fe
    1790:	05130601 	ldreq	r0, [r3, #-1537]	; 0xfffff9ff
    1794:	0531063e 	ldreq	r0, [r1, #-1598]!	; 0xfffff9c2
    1798:	0e051402 	cdpeq	4, 0, cr1, cr5, cr2, {0}
    179c:	06050106 	streq	r0, [r5], -r6, lsl #2
    17a0:	0602052e 	streq	r0, [r2], -lr, lsr #10
    17a4:	0604052f 	streq	r0, [r4], -pc, lsr #10
    17a8:	06030501 	streq	r0, [r3], -r1, lsl #10
    17ac:	0611052f 	ldreq	r0, [r1], -pc, lsr #10
    17b0:	2e090501 	cfsh32cs	mvfx0, mvfx9, #1
    17b4:	30060205 	andcc	r0, r6, r5, lsl #4
    17b8:	06070515 			; <UNDEFINED> instruction: 0x06070515
    17bc:	2e020501 	cfsh32cs	mvfx0, mvfx2, #1
    17c0:	02000b05 	andeq	r0, r0, #5120	; 0x1400
    17c4:	2e060104 	adfcss	f0, f6, f4
    17c8:	02000205 	andeq	r0, r0, #1342177280	; 0x50000000
    17cc:	01060104 	tsteq	r6, r4, lsl #2
    17d0:	02000305 	andeq	r0, r0, #335544320	; 0x14000000
    17d4:	2f060304 	svccs	0x00060304
    17d8:	02000c05 	andeq	r0, r0, #1280	; 0x500
    17dc:	01060304 	tsteq	r6, r4, lsl #6
    17e0:	02000a05 	andeq	r0, r0, #20480	; 0x5000
    17e4:	052e0304 	streq	r0, [lr, #-772]!	; 0xfffffcfc
    17e8:	04020017 	streq	r0, [r2], #-23	; 0xffffffe9
    17ec:	002d0603 	eoreq	r0, sp, r3, lsl #12
    17f0:	06030402 	streq	r0, [r3], -r2, lsl #8
    17f4:	06020501 	streq	r0, [r2], -r1, lsl #10
    17f8:	06090530 			; <UNDEFINED> instruction: 0x06090530
    17fc:	02052e01 	andeq	r2, r5, #1, 28
    1800:	01053006 	tsteq	r5, r6
    1804:	49051306 	stmdbmi	r5, {r1, r2, r8, r9, ip}
    1808:	01063106 	tsteq	r6, r6, lsl #2
    180c:	a0060205 	andge	r0, r6, r5, lsl #4
    1810:	01060405 	tsteq	r6, r5, lsl #8
    1814:	2f060305 	svccs	0x00060305
    1818:	01060905 	tsteq	r6, r5, lsl #18
    181c:	30060205 	andcc	r0, r6, r5, lsl #4
    1820:	060b0513 			; <UNDEFINED> instruction: 0x060b0513
    1824:	06020501 	streq	r0, [r2], -r1, lsl #10
    1828:	052e0630 	streq	r0, [lr, #-1584]!	; 0xfffff9d0
    182c:	24020604 	strcs	r0, [r2], #-1540	; 0xfffff9fc
    1830:	0f051315 	svceq	0x00051315
    1834:	052e0106 	streq	r0, [lr, #-262]!	; 0xfffffefa
    1838:	05054a06 	streq	r4, [r5, #-2566]	; 0xfffff5fa
    183c:	05134b06 	ldreq	r4, [r3, #-2822]	; 0xfffff4fa
    1840:	05010609 	streq	r0, [r1, #-1545]	; 0xfffff9f7
    1844:	052f0605 	streq	r0, [pc, #-1541]!	; 1247 <__code_start__-0x6db9>
    1848:	0510060b 	ldreq	r0, [r0, #-1547]	; 0xfffff9f5
    184c:	0402000d 	streq	r0, [r2], #-13
    1850:	04052c01 	streq	r2, [r5], #-3073	; 0xfffff3ff
    1854:	01040200 	mrseq	r0, R12_usr
    1858:	05053406 	streq	r3, [r5, #-1030]	; 0xfffffbfa
    185c:	01040200 	mrseq	r0, R12_usr
    1860:	001b0513 	andseq	r0, fp, r3, lsl r5
    1864:	06010402 	streq	r0, [r1], -r2, lsl #8
    1868:	00070501 	andeq	r0, r7, r1, lsl #10
    186c:	d6010402 	strle	r0, [r1], -r2, lsl #8
    1870:	02001805 	andeq	r1, r0, #327680	; 0x50000
    1874:	052e0104 	streq	r0, [lr, #-260]!	; 0xfffffefc
    1878:	0402000a 	streq	r0, [r2], #-10
    187c:	0b054a01 	bleq	154088 <__bss_end__+0x149128>
    1880:	01040200 	mrseq	r0, R12_usr
    1884:	0e052f06 	cdpeq	15, 0, cr2, cr5, cr6, {0}
    1888:	01040200 	mrseq	r0, R12_usr
    188c:	04052e06 	streq	r2, [r5], #-3590	; 0xfffff1fa
    1890:	01040200 	mrseq	r0, R12_usr
    1894:	054b062e 	strbeq	r0, [fp, #-1582]	; 0xfffff9d2
    1898:	05010606 	streq	r0, [r1, #-1542]	; 0xfffff9fa
    189c:	052f0605 	streq	r0, [pc, #-1541]!	; 129f <__code_start__-0x6d61>
    18a0:	0501060a 	streq	r0, [r1, #-1546]	; 0xfffff9f6
    18a4:	052e4a07 	streq	r4, [lr, #-2567]!	; 0xfffff5f9
    18a8:	2e76030d 	cdpcs	3, 7, cr0, cr6, cr13, {0}
    18ac:	0d0b054a 	cfstr32eq	mvfx0, [fp, #-296]	; 0xfffffed8
    18b0:	02000d05 	andeq	r0, r0, #320	; 0x140
    18b4:	03060104 	movweq	r0, #24836	; 0x6104
    18b8:	11052e14 	tstne	r5, r4, lsl lr
    18bc:	01040200 	mrseq	r0, R12_usr
    18c0:	002d0513 	eoreq	r0, sp, r3, lsl r5
    18c4:	06010402 	streq	r0, [r1], -r2, lsl #8
    18c8:	002a0501 	eoreq	r0, sl, r1, lsl #10
    18cc:	2e010402 	cdpcs	4, 0, cr0, cr1, cr2, {0}
    18d0:	02001605 	andeq	r1, r0, #5242880	; 0x500000
    18d4:	054a0104 	strbeq	r0, [sl, #-260]	; 0xfffffefc
    18d8:	04020014 	streq	r0, [r2], #-20	; 0xffffffec
    18dc:	054b0601 	strbeq	r0, [fp, #-1537]	; 0xfffff9ff
    18e0:	0402000d 	streq	r0, [r2], #-13
    18e4:	00010601 	andeq	r0, r1, r1, lsl #12
    18e8:	4a010402 	bmi	428f8 <__bss_end__+0x37998>
    18ec:	12052f06 	andne	r2, r5, #6, 30
    18f0:	054a0106 	strbeq	r0, [sl, #-262]	; 0xfffffefa
    18f4:	052f060d 	streq	r0, [pc, #-1549]!	; 12ef <__code_start__-0x6d11>
    18f8:	05010612 	streq	r0, [r1, #-1554]	; 0xfffff9ee
    18fc:	054b0619 	strbeq	r0, [fp, #-1561]	; 0xfffff9e7
    1900:	04020004 	streq	r0, [r2], #-4
    1904:	01110302 	tsteq	r1, r2, lsl #6
    1908:	02040200 	andeq	r0, r4, #0, 4
    190c:	00020501 	andeq	r0, r2, r1, lsl #10
    1910:	15020402 	strne	r0, [r2, #-1026]	; 0xfffffbfe
    1914:	02000905 	andeq	r0, r0, #81920	; 0x14000
    1918:	01060204 	tsteq	r6, r4, lsl #4
    191c:	02040200 	andeq	r0, r4, #0, 4
    1920:	0001054a 	andeq	r0, r1, sl, asr #10
    1924:	9f020402 	svcls	0x00020402
    1928:	03060405 	movweq	r0, #25605	; 0x6405
    192c:	09054a6e 	stmdbeq	r5, {r1, r2, r3, r5, r6, r9, fp, lr}
    1930:	04050106 	streq	r0, [r5], #-262	; 0xfffffefa
    1934:	06052f06 	streq	r2, [r5], -r6, lsl #30
    1938:	04051106 	streq	r1, [r5], #-262	; 0xfffffefa
    193c:	030b052f 	movweq	r0, #46383	; 0xb52f
    1940:	19052e63 	stmdbne	r5, {r0, r1, r5, r6, r9, sl, fp, sp}
    1944:	01040200 	mrseq	r0, R12_usr
    1948:	2e240306 	cdpcs	3, 2, cr0, cr4, cr6, {0}
    194c:	02001a05 	andeq	r1, r0, #20480	; 0x5000
    1950:	05130104 	ldreq	r0, [r3, #-260]	; 0xfffffefc
    1954:	04020028 	streq	r0, [r2], #-40	; 0xffffffd8
    1958:	05010601 	streq	r0, [r1, #-1537]	; 0xfffff9ff
    195c:	04020025 	streq	r0, [r2], #-37	; 0xffffffdb
    1960:	1f052e01 	svcne	0x00052e01
    1964:	01040200 	mrseq	r0, R12_usr
    1968:	000b054a 	andeq	r0, fp, sl, asr #10
    196c:	06010402 	streq	r0, [r1], -r2, lsl #8
    1970:	0004054b 	andeq	r0, r4, fp, asr #10
    1974:	06010402 	streq	r0, [r1], -r2, lsl #8
    1978:	04020001 	streq	r0, [r2], #-1
    197c:	02004a01 	andeq	r4, r0, #4096	; 0x1000
    1980:	4e060104 	adfmis	f0, f6, f4
    1984:	01040200 	mrseq	r0, R12_usr
    1988:	04020001 	streq	r0, [r2], #-1
    198c:	02000101 	andeq	r0, r0, #1073741824	; 0x40000000
    1990:	00010104 	andeq	r0, r1, r4, lsl #2
    1994:	06010402 	streq	r0, [r1], -r2, lsl #8
    1998:	0402002e 	streq	r0, [r2], #-46	; 0xffffffd2
    199c:	02006601 	andeq	r6, r0, #1048576	; 0x100000
    19a0:	002e0104 	eoreq	r0, lr, r4, lsl #2
    19a4:	06010402 	streq	r0, [r1], -r2, lsl #8
    19a8:	0348054a 	movteq	r0, #34122	; 0x854a
    19ac:	20087fa6 	andcs	r7, r8, r6, lsr #31
    19b0:	01130505 	tsteq	r3, r5, lsl #10
    19b4:	02002e06 	andeq	r2, r0, #96	; 0x60
    19b8:	2e060204 	cdpcs	2, 0, cr0, cr6, cr4, {0}
    19bc:	02040200 	andeq	r0, r4, #0, 4
    19c0:	04020001 	streq	r0, [r2], #-1
    19c4:	11051302 	tstne	r5, r2, lsl #6
    19c8:	02040200 	andeq	r0, r4, #0, 4
    19cc:	05050106 	streq	r0, [r5, #-262]	; 0xfffffefa
    19d0:	02040200 	andeq	r0, r4, #0, 4
    19d4:	07054b06 	streq	r4, [r5, -r6, lsl #22]
    19d8:	02040200 	andeq	r0, r4, #0, 4
    19dc:	09050106 	stmdbeq	r5, {r1, r2, r8}
    19e0:	0e054b06 	vmlaeq.f64	d4, d5, d6
    19e4:	48050106 	stmdami	r5, {r1, r2, r8}
    19e8:	01040200 	mrseq	r0, R12_usr
    19ec:	00050562 	andeq	r0, r5, r2, ror #10
    19f0:	06010402 	streq	r0, [r1], -r2, lsl #8
    19f4:	0402004b 	streq	r0, [r2], #-75	; 0xffffffb5
    19f8:	02000101 	andeq	r0, r0, #1073741824	; 0x40000000
    19fc:	9e060104 	adflss	f0, f6, f4
    1a00:	01040200 	mrseq	r0, R12_usr
    1a04:	0402002e 	streq	r0, [r2], #-46	; 0xffffffd2
    1a08:	052e0601 	streq	r0, [lr, #-1537]!	; 0xfffff9ff
    1a0c:	00e10340 	rsceq	r0, r1, r0, asr #6
    1a10:	050106d6 	streq	r0, [r1, #-1750]	; 0xfffff92a
    1a14:	059f0602 	ldreq	r0, [pc, #1538]	; 201e <__code_start__-0x5fe2>
    1a18:	0501061e 	streq	r0, [r1, #-1566]	; 0xfffff9e2
    1a1c:	05052e12 	streq	r2, [r5, #-3602]	; 0xfffff1ee
    1a20:	02052f06 	andeq	r2, r5, #6, 30
    1a24:	06090514 			; <UNDEFINED> instruction: 0x06090514
    1a28:	06050501 	streq	r0, [r5], -r1, lsl #10
    1a2c:	1302054b 	movwne	r0, #9547	; 0x254b
    1a30:	0d060805 	stceq	8, cr0, [r6, #-20]	; 0xffffffec
    1a34:	05330205 	ldreq	r0, [r3, #-517]!	; 0xfffffdfb
    1a38:	054c0604 	strbeq	r0, [ip, #-1540]	; 0xfffff9fc
    1a3c:	0501060f 	streq	r0, [r1, #-1551]	; 0xfffff9f1
    1a40:	08052e09 	stmdaeq	r5, {r0, r3, r9, sl, fp, sp}
    1a44:	02052c06 	andeq	r2, r5, #1536	; 0x600
    1a48:	0d052e06 	stceq	14, cr2, [r5, #-24]	; 0xffffffe8
    1a4c:	01040200 	mrseq	r0, R12_usr
    1a50:	0603054a 	streq	r0, [r3], -sl, asr #10
    1a54:	0605054b 	streq	r0, [r5], -fp, asr #10
    1a58:	06080501 	streq	r0, [r8], -r1, lsl #10
    1a5c:	060e054d 	streq	r0, [lr], -sp, asr #10
    1a60:	2e0a0501 	cfsh32cs	mvfx0, mvfx10, #1
    1a64:	2f060405 	svccs	0x00060405
    1a68:	01060905 	tsteq	r6, r5, lsl #18
    1a6c:	2f060405 	svccs	0x00060405
    1a70:	01060705 	tsteq	r6, r5, lsl #14
    1a74:	0604052e 	streq	r0, [r4], -lr, lsr #10
    1a78:	06070530 			; <UNDEFINED> instruction: 0x06070530
    1a7c:	06040501 	streq	r0, [r4], -r1, lsl #10
    1a80:	05141330 	ldreq	r1, [r4, #-816]	; 0xfffffcd0
    1a84:	0510060d 	ldreq	r0, [r0, #-1549]	; 0xfffff9f3
    1a88:	05300609 	ldreq	r0, [r0, #-1545]!	; 0xfffff9f7
    1a8c:	05010612 	streq	r0, [r1, #-1554]	; 0xfffff9ee
    1a90:	09052e0a 	stmdbeq	r5, {r1, r3, r9, sl, fp, sp}
    1a94:	06050566 	streq	r0, [r5], -r6, ror #10
    1a98:	0612054b 	ldreq	r0, [r2], -fp, asr #10
    1a9c:	2e160501 	cfmul32cs	mvfx0, mvfx6, mvfx1
    1aa0:	052e0b05 	streq	r0, [lr, #-2821]!	; 0xfffff4fb
    1aa4:	052f0605 	streq	r0, [pc, #-1541]!	; 14a7 <__code_start__-0x6b59>
    1aa8:	2e010608 	cfmadd32cs	mvax0, mvfx0, mvfx1, mvfx8
    1aac:	30060405 	andcc	r0, r6, r5, lsl #8
    1ab0:	15014a01 	strne	r4, [r1, #-2561]	; 0xfffff5ff
    1ab4:	01040200 	mrseq	r0, R12_usr
    1ab8:	000f3602 	andeq	r3, pc, r2, lsl #12
    1abc:	01010402 	tsteq	r1, r2, lsl #8
    1ac0:	01040200 	mrseq	r0, R12_usr
    1ac4:	341105d6 	ldrcc	r0, [r1], #-1494	; 0xfffffa2a
    1ac8:	02000113 	andeq	r0, r0, #-1073741820	; 0xc0000004
    1acc:	ba060204 	blt	1822e4 <__bss_end__+0x177384>
    1ad0:	03040200 	movweq	r0, #16896	; 0x4200
    1ad4:	0200ba06 	andeq	fp, r0, #24576	; 0x6000
    1ad8:	00010304 	andeq	r0, r1, r4, lsl #6
    1adc:	14030402 	strne	r0, [r3], #-1026	; 0xfffffbfe
    1ae0:	02001505 	andeq	r1, r0, #20971520	; 0x1400000
    1ae4:	01060304 	tsteq	r6, r4, lsl #6
    1ae8:	02001105 	andeq	r1, r0, #1073741825	; 0x40000001
    1aec:	2f060304 	svccs	0x00060304
    1af0:	02001a05 	andeq	r1, r0, #20480	; 0x5000
    1af4:	01060304 	tsteq	r6, r4, lsl #6
    1af8:	02001105 	andeq	r1, r0, #1073741825	; 0x40000001
    1afc:	d7060304 	strle	r0, [r6, -r4, lsl #6]
    1b00:	03040200 	movweq	r0, #16896	; 0x4200
    1b04:	04020013 	streq	r0, [r2], #-19	; 0xffffffed
    1b08:	02001403 	andeq	r1, r0, #50331648	; 0x3000000
    1b0c:	00670304 	rsbeq	r0, r7, r4, lsl #6
    1b10:	68030402 	stmdavs	r3, {r1, sl}
    1b14:	02001405 	andeq	r1, r0, #83886080	; 0x5000000
    1b18:	01060304 	tsteq	r6, r4, lsl #6
    1b1c:	02001305 	andeq	r1, r0, #335544320	; 0x14000000
    1b20:	05820304 	streq	r0, [r2, #772]	; 0x304
    1b24:	054e0618 	strbeq	r0, [lr, #-1560]	; 0xfffff9e8
    1b28:	0501061b 	streq	r0, [r1, #-1563]	; 0xfffff9e5
    1b2c:	0905821a 	stmdbeq	r5, {r1, r3, r4, r9, pc}
    1b30:	0d054b06 	vstreq	d4, [r5, #-24]	; 0xffffffe8
    1b34:	052e0106 	streq	r0, [lr, #-262]!	; 0xfffffefa
    1b38:	06f30609 	ldrbteq	r0, [r3], r9, lsl #12
    1b3c:	061505ba 			; <UNDEFINED> instruction: 0x061505ba
    1b40:	06180530 			; <UNDEFINED> instruction: 0x06180530
    1b44:	66170501 	ldrvs	r0, [r7], -r1, lsl #10
    1b48:	4b061905 	blmi	187f64 <__bss_end__+0x17d004>
    1b4c:	03061505 	movweq	r1, #25861	; 0x6505
    1b50:	1105666f 	tstne	r5, pc, ror #12
    1b54:	d6014806 	strle	r4, [r1], -r6, lsl #16
    1b58:	0b030905 	bleq	c3f74 <__bss_end__+0xb9014>
    1b5c:	060d052e 	streq	r0, [sp], -lr, lsr #10
    1b60:	09052e01 	stmdbeq	r5, {r0, r9, sl, fp, sp}
    1b64:	ba06f306 	blt	1be784 <__bss_end__+0x1b3824>
    1b68:	2f061505 	svccs	0x00061505
    1b6c:	66750306 	ldrbtvs	r0, [r5], -r6, lsl #6
    1b70:	03061905 	movweq	r1, #26885	; 0x6905
    1b74:	15054a13 	strne	r4, [r5, #-2579]	; 0xfffff5ed
    1b78:	666d0306 	strbtvs	r0, [sp], -r6, lsl #6
    1b7c:	4a150306 	bmi	54279c <__bss_end__+0x53783c>
    1b80:	2e06ba01 	vmlacs.f32	s22, s12, s2
    1b84:	1a060505 	bne	182fa0 <__bss_end__+0x178040>
    1b88:	032e9e01 			; <UNDEFINED> instruction: 0x032e9e01
    1b8c:	0905010e 	stmdbeq	r5, {r1, r2, r3, r8}
    1b90:	05050106 	streq	r0, [r5, #-262]	; 0xfffffefa
    1b94:	05750806 	ldrbeq	r0, [r5, #-2054]!	; 0xfffff7fa
    1b98:	01180304 	tsteq	r8, r4, lsl #6
    1b9c:	01060705 	tsteq	r6, r5, lsl #14
    1ba0:	31060405 	tstcc	r6, r5, lsl #8
    1ba4:	67030505 	strvs	r0, [r3, -r5, lsl #10]
    1ba8:	061c052e 	ldreq	r0, [ip], -lr, lsr #10
    1bac:	82090501 	andhi	r0, r9, #4194304	; 0x400000
    1bb0:	f3060505 	vrshl.u8	d0, d5, d6
    1bb4:	061c0531 			; <UNDEFINED> instruction: 0x061c0531
    1bb8:	82090501 	andhi	r0, r9, #4194304	; 0x400000
    1bbc:	f3060505 	vrshl.u8	d0, d5, d6
    1bc0:	061b0530 			; <UNDEFINED> instruction: 0x061b0530
    1bc4:	82090501 	andhi	r0, r9, #4194304	; 0x400000
    1bc8:	f3060505 	vrshl.u8	d0, d5, d6
    1bcc:	06070530 			; <UNDEFINED> instruction: 0x06070530
    1bd0:	06050501 	streq	r0, [r5], -r1, lsl #10
    1bd4:	09053083 	stmdbeq	r5, {r0, r1, r7, ip, sp}
    1bd8:	05050106 	streq	r0, [r5, #-262]	; 0xfffffefa
    1bdc:	05750806 	ldrbeq	r0, [r5, #-2054]!	; 0xfffff7fa
    1be0:	22053011 	andcs	r3, r5, #17, 0
    1be4:	05050106 	streq	r0, [r5, #-262]	; 0xfffffefa
    1be8:	11054b06 	tstne	r5, r6, lsl #22
    1bec:	83050583 	movwhi	r0, #21891	; 0x5583
    1bf0:	05359e01 	ldreq	r9, [r5, #-3585]!	; 0xfffff1ff
    1bf4:	0501060e 	streq	r0, [r1, #-1550]	; 0xfffff9f2
    1bf8:	2d062e0a 	stccs	14, cr2, [r6, #-40]	; 0xffffffd8
    1bfc:	01060405 	tsteq	r6, r5, lsl #8
    1c00:	02001305 	andeq	r1, r0, #335544320	; 0x14000000
    1c04:	054a0104 	strbeq	r0, [sl, #-260]	; 0xfffffefc
    1c08:	04020010 	streq	r0, [r2], #-16
    1c0c:	02002e01 	andeq	r2, r0, #1, 28
    1c10:	05660104 	strbeq	r0, [r6, #-260]!	; 0xfffffefc
    1c14:	05160602 	ldreq	r0, [r6, #-1538]	; 0xfffff9fe
    1c18:	05010607 	streq	r0, [r1, #-1543]	; 0xfffff9f9
    1c1c:	054b0602 	strbeq	r0, [fp, #-1538]	; 0xfffff9fe
    1c20:	66130601 	ldrvs	r0, [r3], -r1, lsl #12
    1c24:	01001e02 	tsteq	r0, r2, lsl #28
    1c28:	0000a501 	andeq	sl, r0, r1, lsl #10
    1c2c:	8a000300 	bhi	2834 <__code_start__-0x57cc>
    1c30:	02000000 	andeq	r0, r0, #0, 0
    1c34:	0d0efb01 	vstreq	d15, [lr, #-4]
    1c38:	01010100 	mrseq	r0, (UNDEF: 17)
    1c3c:	00000001 	andeq	r0, r0, r1
    1c40:	01000001 	tsteq	r0, r1
    1c44:	74732f2e 	ldrbtvc	r2, [r3], #-3886	; 0xfffff0d2
    1c48:	2d666661 	stclcs	6, cr6, [r6, #-388]!	; 0xfffffe7c
    1c4c:	00637273 	rsbeq	r7, r3, r3, ror r2
    1c50:	6573552f 	ldrbvs	r5, [r3, #-1327]!	; 0xfffffad1
    1c54:	742f7372 	strtvc	r7, [pc], #-882	; 1c5c <__code_start__-0x63a4>
    1c58:	74736972 	ldrbtvc	r6, [r3], #-2418	; 0xfffff68e
    1c5c:	6f6e6e65 	svcvs	0x006e6e65
    1c60:	616d6c6c 	cmnvs	sp, ip, ror #24
    1c64:	6f442f6e 	svcvs	0x00442f6e
    1c68:	656d7563 	strbvs	r7, [sp, #-1379]!	; 0xfffffa9d
    1c6c:	2f73746e 	svccs	0x0073746e
    1c70:	69727053 	ldmdbvs	r2!, {r0, r1, r4, r6, ip, sp, lr}^
    1c74:	515f676e 	cmppl	pc, lr, ror #14
    1c78:	74726175 	ldrbtvc	r6, [r2], #-373	; 0xfffffe8b
    1c7c:	325f7265 	subscc	r7, pc, #1342177286	; 0x50000006
    1c80:	2f323230 	svccs	0x00323230
    1c84:	34325343 	ldrtcc	r5, [r2], #-835	; 0xfffffcbd
    1c88:	2d584c30 	ldclcs	12, cr4, [r8, #-192]	; 0xffffff40
    1c8c:	32727073 	rsbscc	r7, r2, #115, 0	; 0x73
    1c90:	696c2f32 	stmdbvs	ip!, {r1, r4, r5, r8, r9, sl, fp, sp}^
    1c94:	2f697062 	svccs	0x00697062
    1c98:	6c636e69 	stclvs	14, cr6, [r3], #-420	; 0xfffffe5c
    1c9c:	00656475 	rsbeq	r6, r5, r5, ror r4
    1ca0:	656c6300 	strbvs	r6, [ip, #-768]!	; 0xfffffd00
    1ca4:	722d6e61 	eorvc	r6, sp, #1552	; 0x610
    1ca8:	6f6f6265 	svcvs	0x006f6265
    1cac:	00632e74 	rsbeq	r2, r3, r4, ror lr
    1cb0:	72000001 	andvc	r0, r0, #1, 0
    1cb4:	682e6970 	stmdavs	lr!, {r4, r5, r6, r8, fp, sp, lr}
    1cb8:	00000200 	andeq	r0, r0, r0, lsl #4
    1cbc:	00190500 	andseq	r0, r9, r0, lsl #10
    1cc0:	973c0205 	ldrls	r0, [ip, -r5, lsl #4]!
    1cc4:	05150000 	ldreq	r0, [r5, #-0]
    1cc8:	2f832f05 	svccs	0x00832f05
    1ccc:	0006024b 	andeq	r0, r6, fp, asr #4
    1cd0:	00bf0101 	adcseq	r0, pc, r1, lsl #2
    1cd4:	00030000 	andeq	r0, r3, r0
    1cd8:	00000084 	andeq	r0, r0, r4, lsl #1
    1cdc:	0efb0102 	cdpeq	1, 15, cr0, cr11, cr2, {0}
    1ce0:	0101000d 	tsteq	r1, sp
    1ce4:	00000101 	andeq	r0, r0, r1, lsl #2
    1ce8:	00000100 	andeq	r0, r0, r0, lsl #2
    1cec:	732f2e01 			; <UNDEFINED> instruction: 0x732f2e01
    1cf0:	66666174 			; <UNDEFINED> instruction: 0x66666174
    1cf4:	6372732d 	cmnvs	r2, #-1275068416	; 0xb4000000
    1cf8:	73552f00 	cmpvc	r5, #0, 30
    1cfc:	2f737265 	svccs	0x00737265
    1d00:	73697274 	cmnvc	r9, #116, 4	; 0x40000007
    1d04:	6e6e6574 	mcrvs	5, 3, r6, cr14, cr4, {3}
    1d08:	6d6c6c6f 	stclvs	12, cr6, [ip, #-444]!	; 0xfffffe44
    1d0c:	442f6e61 	strtmi	r6, [pc], #-3681	; 1d14 <__code_start__-0x62ec>
    1d10:	6d75636f 	ldclvs	3, cr6, [r5, #-444]!	; 0xfffffe44
    1d14:	73746e65 	cmnvc	r4, #1616	; 0x650
    1d18:	7270532f 	rsbsvc	r5, r0, #-1140850688	; 0xbc000000
    1d1c:	5f676e69 	svcpl	0x00676e69
    1d20:	72617551 	rsbvc	r7, r1, #339738624	; 0x14400000
    1d24:	5f726574 	svcpl	0x00726574
    1d28:	32323032 	eorscc	r3, r2, #50, 0	; 0x32
    1d2c:	3253432f 	subscc	r4, r3, #-1140850688	; 0xbc000000
    1d30:	584c3034 	stmdapl	ip, {r2, r4, r5, ip, sp}^
    1d34:	7270732d 	rsbsvc	r7, r0, #-1275068416	; 0xb4000000
    1d38:	6c2f3232 	sfmvs	f3, 4, [pc], #-200	; 1c78 <__code_start__-0x6388>
    1d3c:	69706269 	ldmdbvs	r0!, {r0, r3, r5, r6, r9, sp, lr}^
    1d40:	636e692f 	cmnvs	lr, #770048	; 0xbc000
    1d44:	6564756c 	strbvs	r7, [r4, #-1388]!	; 0xfffffa94
    1d48:	73630000 	cmnvc	r3, #0, 0
    1d4c:	74726174 	ldrbtvc	r6, [r2], #-372	; 0xfffffe8c
    1d50:	0100632e 	tsteq	r0, lr, lsr #6
    1d54:	70720000 	rsbsvc	r0, r2, r0
    1d58:	00682e69 	rsbeq	r2, r8, r9, ror #28
    1d5c:	00000002 	andeq	r0, r0, r2
    1d60:	05001005 	streq	r1, [r0, #-5]
    1d64:	00976802 	addseq	r6, r7, r2, lsl #16
    1d68:	05051500 	streq	r1, [r5, #-1280]	; 0xfffffb00
    1d6c:	1302052f 	movwne	r0, #9519	; 0x252f
    1d70:	30140505 	andscc	r0, r4, r5, lsl #10
    1d74:	0a051413 	beq	146dc8 <__bss_end__+0x13be68>
    1d78:	31060f06 	tstcc	r6, r6, lsl #30
    1d7c:	054b0905 	strbeq	r0, [fp, #-2309]	; 0xfffff6fb
    1d80:	4a010610 	bmi	435c8 <__bss_end__+0x38668>
    1d84:	30060505 	andcc	r0, r6, r5, lsl #10
    1d88:	4a010132 	bmi	42258 <__bss_end__+0x372f8>
    1d8c:	2f020514 	svccs	0x00020514
    1d90:	01000602 	tsteq	r0, r2, lsl #12
    1d94:	0000a301 	andeq	sl, r0, r1, lsl #6
    1d98:	8b000300 	blhi	29a0 <__code_start__-0x5660>
    1d9c:	02000000 	andeq	r0, r0, #0, 0
    1da0:	0d0efb01 	vstreq	d15, [lr, #-4]
    1da4:	01010100 	mrseq	r0, (UNDEF: 17)
    1da8:	00000001 	andeq	r0, r0, r1
    1dac:	01000001 	tsteq	r0, r1
    1db0:	74732f2e 	ldrbtvc	r2, [r3], #-3886	; 0xfffff0d2
    1db4:	2d666661 	stclcs	6, cr6, [r6, #-388]!	; 0xfffffe7c
    1db8:	00637273 	rsbeq	r7, r3, r3, ror r2
    1dbc:	6573552f 	ldrbvs	r5, [r3, #-1327]!	; 0xfffffad1
    1dc0:	742f7372 	strtvc	r7, [pc], #-882	; 1dc8 <__code_start__-0x6238>
    1dc4:	74736972 	ldrbtvc	r6, [r3], #-2418	; 0xfffff68e
    1dc8:	6f6e6e65 	svcvs	0x006e6e65
    1dcc:	616d6c6c 	cmnvs	sp, ip, ror #24
    1dd0:	6f442f6e 	svcvs	0x00442f6e
    1dd4:	656d7563 	strbvs	r7, [sp, #-1379]!	; 0xfffffa9d
    1dd8:	2f73746e 	svccs	0x0073746e
    1ddc:	69727053 	ldmdbvs	r2!, {r0, r1, r4, r6, ip, sp, lr}^
    1de0:	515f676e 	cmppl	pc, lr, ror #14
    1de4:	74726175 	ldrbtvc	r6, [r2], #-373	; 0xfffffe8b
    1de8:	325f7265 	subscc	r7, pc, #1342177286	; 0x50000006
    1dec:	2f323230 	svccs	0x00323230
    1df0:	34325343 	ldrtcc	r5, [r2], #-835	; 0xfffffcbd
    1df4:	2d584c30 	ldclcs	12, cr4, [r8, #-192]	; 0xffffff40
    1df8:	32727073 	rsbscc	r7, r2, #115, 0	; 0x73
    1dfc:	696c2f32 	stmdbvs	ip!, {r1, r4, r5, r8, r9, sl, fp, sp}^
    1e00:	2f697062 	svccs	0x00697062
    1e04:	6c636e69 	stclvs	14, cr6, [r3], #-420	; 0xfffffe5c
    1e08:	00656475 	rsbeq	r6, r5, r5, ror r4
    1e0c:	73756300 	cmnvc	r5, #0, 6
    1e10:	2d6d6f74 	stclcs	15, cr6, [sp, #-464]!	; 0xfffffe30
    1e14:	64616f6c 	strbtvs	r6, [r1], #-3948	; 0xfffff094
    1e18:	632e7265 			; <UNDEFINED> instruction: 0x632e7265
    1e1c:	00000100 	andeq	r0, r0, r0, lsl #2
    1e20:	2e697072 	mcrcs	0, 3, r7, cr9, cr2, {3}
    1e24:	00020068 	andeq	r0, r2, r8, rrx
    1e28:	1a050000 	bne	141e30 <__bss_end__+0x136ed0>
    1e2c:	a4020500 	strge	r0, [r2], #-1280	; 0xfffffb00
    1e30:	15000097 	strne	r0, [r0, #-151]	; 0xffffff69
    1e34:	02140105 	andseq	r0, r4, #1073741825	; 0x40000001
    1e38:	01010002 	tsteq	r1, r2
    1e3c:	000000f3 	strdeq	r0, [r0], -r3
    1e40:	00840003 	addeq	r0, r4, r3
    1e44:	01020000 	mrseq	r0, (UNDEF: 2)
    1e48:	000d0efb 	strdeq	r0, [sp], -fp
    1e4c:	01010101 	tsteq	r1, r1, lsl #2
    1e50:	01000000 	mrseq	r0, (UNDEF: 0)
    1e54:	2e010000 	cdpcs	0, 0, cr0, cr1, cr0, {0}
    1e58:	6174732f 	cmnvs	r4, pc, lsr #6
    1e5c:	732d6666 			; <UNDEFINED> instruction: 0x732d6666
    1e60:	2f006372 	svccs	0x00006372
    1e64:	72657355 	rsbvc	r7, r5, #1409286145	; 0x54000001
    1e68:	72742f73 	rsbsvc	r2, r4, #460	; 0x1cc
    1e6c:	65747369 	ldrbvs	r7, [r4, #-873]!	; 0xfffffc97
    1e70:	6c6f6e6e 	stclvs	14, cr6, [pc], #-440	; 1cc0 <__code_start__-0x6340>
    1e74:	6e616d6c 	cdpvs	13, 6, cr6, cr1, cr12, {3}
    1e78:	636f442f 	cmnvs	pc, #788529152	; 0x2f000000
    1e7c:	6e656d75 	mcrvs	13, 3, r6, cr5, cr5, {3}
    1e80:	532f7374 			; <UNDEFINED> instruction: 0x532f7374
    1e84:	6e697270 	mcrvs	2, 3, r7, cr9, cr0, {3}
    1e88:	75515f67 	ldrbvc	r5, [r1, #-3943]	; 0xfffff099
    1e8c:	65747261 	ldrbvs	r7, [r4, #-609]!	; 0xfffffd9f
    1e90:	30325f72 	eorscc	r5, r2, r2, ror pc
    1e94:	432f3232 			; <UNDEFINED> instruction: 0x432f3232
    1e98:	30343253 	eorscc	r3, r4, r3, asr r2
    1e9c:	732d584c 			; <UNDEFINED> instruction: 0x732d584c
    1ea0:	32327270 	eorscc	r7, r2, #112, 4
    1ea4:	62696c2f 	rsbvs	r6, r9, #12032	; 0x2f00
    1ea8:	692f6970 	stmdbvs	pc!, {r4, r5, r6, r8, fp, sp, lr}	; <UNPREDICTABLE>
    1eac:	756c636e 	strbvc	r6, [ip, #-878]!	; 0xfffffc92
    1eb0:	00006564 	andeq	r6, r0, r4, ror #10
    1eb4:	6f626572 	svcvs	0x00626572
    1eb8:	632e746f 			; <UNDEFINED> instruction: 0x632e746f
    1ebc:	00000100 	andeq	r0, r0, r0, lsl #2
    1ec0:	2e697072 	mcrcs	0, 3, r7, cr9, cr2, {3}
    1ec4:	00020068 	andeq	r0, r2, r8, rrx
    1ec8:	19050000 	stmdbne	r5, {}	; <UNPREDICTABLE>
    1ecc:	a8020500 	stmdage	r2, {r8, sl}
    1ed0:	03000097 	movweq	r0, #151	; 0x97
    1ed4:	0505010d 	streq	r0, [r5, #-269]	; 0xfffffef3
    1ed8:	05311313 	ldreq	r1, [r1, #-787]!	; 0xfffffced
    1edc:	05010613 	streq	r0, [r1, #-1555]	; 0xfffff9ed
    1ee0:	1b052f01 	blne	14daec <__bss_end__+0x142b8c>
    1ee4:	05058506 	streq	r8, [r5, #-1286]	; 0xfffffafa
    1ee8:	09051413 	stmdbeq	r5, {r0, r1, r4, sl, ip}
    1eec:	0616052f 	ldreq	r0, [r6], -pc, lsr #10
    1ef0:	2e0e0501 	cfsh32cs	mvfx0, mvfx14, #1
    1ef4:	2f060505 	svccs	0x00060505
    1ef8:	2f060105 	svccs	0x00060105
    1efc:	30061705 	andcc	r1, r6, r5, lsl #14
    1f00:	052f0505 	streq	r0, [pc, #-1285]!	; 1a03 <__code_start__-0x65fd>
    1f04:	05010608 	streq	r0, [r1, #-1544]	; 0xfffff9f8
    1f08:	05052e07 	streq	r2, [r5, #-3591]	; 0xfffff1f9
    1f0c:	2f305006 	svccs	0x00305006
    1f10:	1313134d 	tstne	r3, #872415233	; 0x34000001
    1f14:	02006715 	andeq	r6, r0, #5505024	; 0x540000
    1f18:	05670104 	strbeq	r0, [r7, #-260]!	; 0xfffffefc
    1f1c:	0402000d 	streq	r0, [r2], #-13
    1f20:	0a050101 	beq	14232c <__bss_end__+0x1373cc>
    1f24:	01040200 	mrseq	r0, R12_usr
    1f28:	03090501 	movweq	r0, #38145	; 0x9501
    1f2c:	0c022e6d 	stceq	14, cr2, [r2], {109}	; 0x6d
    1f30:	fa010100 	blx	42338 <__bss_end__+0x373d8>
    1f34:	03000000 	movweq	r0, #0
    1f38:	00008300 	andeq	r8, r0, r0, lsl #6
    1f3c:	fb010200 	blx	42746 <__bss_end__+0x377e6>
    1f40:	01000d0e 	tsteq	r0, lr, lsl #26
    1f44:	00010101 	andeq	r0, r1, r1, lsl #2
    1f48:	00010000 	andeq	r0, r1, r0
    1f4c:	2f2e0100 	svccs	0x002e0100
    1f50:	66617473 			; <UNDEFINED> instruction: 0x66617473
    1f54:	72732d66 	rsbsvc	r2, r3, #6528	; 0x1980
    1f58:	552f0063 	strpl	r0, [pc, #-99]!	; 1efd <__code_start__-0x6103>
    1f5c:	73726573 	cmnvc	r2, #482344960	; 0x1cc00000
    1f60:	6972742f 	ldmdbvs	r2!, {r0, r1, r2, r3, r5, sl, ip, sp, lr}^
    1f64:	6e657473 	mcrvs	4, 3, r7, cr5, cr3, {3}
    1f68:	6c6c6f6e 	stclvs	15, cr6, [ip], #-440	; 0xfffffe48
    1f6c:	2f6e616d 	svccs	0x006e616d
    1f70:	75636f44 	strbvc	r6, [r3, #-3908]!	; 0xfffff0bc
    1f74:	746e656d 	strbtvc	r6, [lr], #-1389	; 0xfffffa93
    1f78:	70532f73 	subsvc	r2, r3, r3, ror pc
    1f7c:	676e6972 			; <UNDEFINED> instruction: 0x676e6972
    1f80:	6175515f 	cmnvs	r5, pc, asr r1
    1f84:	72657472 	rsbvc	r7, r5, #1912602624	; 0x72000000
    1f88:	3230325f 	eorscc	r3, r0, #-268435451	; 0xf0000005
    1f8c:	53432f32 	movtpl	r2, #16178	; 0x3f32
    1f90:	4c303432 	cfldrsmi	mvf3, [r0], #-200	; 0xffffff38
    1f94:	70732d58 	rsbsvc	r2, r3, r8, asr sp
    1f98:	2f323272 	svccs	0x00323272
    1f9c:	7062696c 	rsbvc	r6, r2, ip, ror #18
    1fa0:	6e692f69 	cdpvs	15, 6, cr2, cr9, cr9, {3}
    1fa4:	64756c63 	ldrbtvs	r6, [r5], #-3171	; 0xfffff39d
    1fa8:	74000065 	strvc	r0, [r0], #-101	; 0xffffff9b
    1fac:	72656d69 	rsbvc	r6, r5, #6720	; 0x1a40
    1fb0:	0100632e 	tsteq	r0, lr, lsr #6
    1fb4:	70720000 	rsbsvc	r0, r2, r0
    1fb8:	00682e69 	rsbeq	r2, r8, r9, ror #28
    1fbc:	00000002 	andeq	r0, r0, r2
    1fc0:	05002305 	streq	r2, [r0, #-773]	; 0xfffffcfb
    1fc4:	00982802 	addseq	r2, r8, r2, lsl #16
    1fc8:	05051500 	streq	r1, [r5, #-1280]	; 0xfffffb00
    1fcc:	060c052f 	streq	r0, [ip], -pc, lsr #10
    1fd0:	4b010501 	blmi	433dc <__bss_end__+0x3847c>
    1fd4:	4d061f05 	stcmi	15, cr1, [r6, #-20]	; 0xffffffec
    1fd8:	2f310505 	svccs	0x00310505
    1fdc:	01061205 	tsteq	r6, r5, lsl #4
    1fe0:	4b060505 	blmi	1833fc <__bss_end__+0x17849c>
    1fe4:	0601052f 	streq	r0, [r1], -pc, lsr #10
    1fe8:	061c0513 			; <UNDEFINED> instruction: 0x061c0513
    1fec:	0501064c 	streq	r0, [r1, #-1612]	; 0xfffff9b4
    1ff0:	054b0605 	strbeq	r0, [fp, #-1541]	; 0xfffff9fb
    1ff4:	2e010613 	mcrcs	6, 0, r0, cr1, cr3, {0}
    1ff8:	2f060505 	svccs	0x00060505
    1ffc:	05130905 	ldreq	r0, [r3, #-2309]	; 0xfffff6fb
    2000:	05010617 	streq	r0, [r1, #-1559]	; 0xfffff9e9
    2004:	052f0609 	streq	r0, [pc, #-1545]!	; 1a03 <__code_start__-0x65fd>
    2008:	05010611 	streq	r0, [r1, #-1553]	; 0xfffff9ef
    200c:	1c052e0c 	stcne	14, cr2, [r5], {12}
    2010:	01066b06 	tsteq	r6, r6, lsl #22
    2014:	2f060505 	svccs	0x00060505
    2018:	01054a06 	tsteq	r5, r6, lsl #20
    201c:	061e054b 	ldreq	r0, [lr], -fp, asr #10
    2020:	0501062f 	streq	r0, [r1, #-1583]	; 0xfffff9d1
    2024:	062f0605 	strteq	r0, [pc], -r5, lsl #12
    2028:	4b01054a 	blmi	43558 <__bss_end__+0x385f8>
    202c:	01000202 	tsteq	r0, r2, lsl #4
    2030:	00020501 	andeq	r0, r2, r1, lsl #10
    2034:	c9000300 	stmdbgt	r0, {r8, r9}
    2038:	02000000 	andeq	r0, r0, #0, 0
    203c:	0d0efb01 	vstreq	d15, [lr, #-4]
    2040:	01010100 	mrseq	r0, (UNDEF: 17)
    2044:	00000001 	andeq	r0, r0, r1
    2048:	01000001 	tsteq	r0, r1
    204c:	6d6f682f 	stclvs	8, cr6, [pc, #-188]!	; 1f98 <__code_start__-0x6068>
    2050:	6e652f65 	cdpvs	15, 6, cr2, cr5, cr5, {3}
    2054:	72656c67 	rsbvc	r6, r5, #26368	; 0x6700
    2058:	616c632f 	cmnvs	ip, pc, lsr #6
    205c:	632f7373 			; <UNDEFINED> instruction: 0x632f7373
    2060:	30343273 	eorscc	r3, r4, r3, ror r2
    2064:	322d786c 	eorcc	r7, sp, #108, 16	; 0x6c0000
    2068:	72707332 	rsbsvc	r7, r0, #-939524096	; 0xc8000000
    206c:	696c2f2f 	stmdbvs	ip!, {r0, r1, r2, r3, r5, r8, r9, sl, fp, sp}^
    2070:	2f697062 	svccs	0x00697062
    2074:	6c636e69 	stclvs	14, cr6, [r3], #-420	; 0xfffffe5c
    2078:	00656475 	rsbeq	r6, r5, r5, ror r4
    207c:	7273752f 	rsbsvc	r7, r3, #197132288	; 0xbc00000
    2080:	6168732f 	cmnvs	r8, pc, lsr #6
    2084:	672f6572 			; <UNDEFINED> instruction: 0x672f6572
    2088:	612d6363 			; <UNDEFINED> instruction: 0x612d6363
    208c:	6e2d6d72 	mcrvs	13, 1, r6, cr13, cr2, {3}
    2090:	2d656e6f 	stclcs	14, cr6, [r5, #-444]!	; 0xfffffe44
    2094:	69626165 	stmdbvs	r2!, {r0, r2, r5, r6, r8, sp, lr}^
    2098:	2e30312d 	rsfcssp	f3, f0, #5.0
    209c:	30322d33 	eorscc	r2, r2, r3, lsr sp
    20a0:	312e3132 			; <UNDEFINED> instruction: 0x312e3132
    20a4:	696c2f30 	stmdbvs	ip!, {r4, r5, r8, r9, sl, fp, sp}^
    20a8:	63672f62 	cmnvs	r7, #392	; 0x188
    20ac:	72612f63 	rsbvc	r2, r1, #396	; 0x18c
    20b0:	6f6e2d6d 	svcvs	0x006e2d6d
    20b4:	652d656e 	strvs	r6, [sp, #-1390]!	; 0xfffffa92
    20b8:	2f696261 	svccs	0x00696261
    20bc:	332e3031 			; <UNDEFINED> instruction: 0x332e3031
    20c0:	692f312e 	stmdbvs	pc!, {r1, r2, r3, r5, r8, ip, sp}	; <UNPREDICTABLE>
    20c4:	756c636e 	strbvc	r6, [ip, #-878]!	; 0xfffffc92
    20c8:	00006564 	andeq	r6, r0, r4, ror #10
    20cc:	74726175 	ldrbtvc	r6, [r2], #-373	; 0xfffffe8b
    20d0:	0000632e 	andeq	r6, r0, lr, lsr #6
    20d4:	61750000 	cmnvs	r5, r0
    20d8:	682e7472 	stmdavs	lr!, {r1, r4, r5, r6, sl, ip, sp, lr}
    20dc:	00000100 	andeq	r0, r0, r0, lsl #2
    20e0:	2e697072 	mcrcs	0, 3, r7, cr9, cr2, {3}
    20e4:	00010068 	andeq	r0, r1, r8, rrx
    20e8:	69706700 	ldmdbvs	r0!, {r8, r9, sl, sp, lr}^
    20ec:	00682e6f 	rsbeq	r2, r8, pc, ror #28
    20f0:	73000001 	movwvc	r0, #1
    20f4:	6e696474 	mcrvs	4, 3, r6, cr9, cr4, {3}
    20f8:	63672d74 	cmnvs	r7, #116, 26	; 0x1d00
    20fc:	00682e63 	rsbeq	r2, r8, r3, ror #28
    2100:	00000002 	andeq	r0, r0, r2
    2104:	05003905 	streq	r3, [r0, #-2309]	; 0xfffff6fb
    2108:	0098ac02 	addseq	sl, r8, r2, lsl #24
    210c:	01300300 	teqeq	r0, r0, lsl #6
    2110:	05050106 	streq	r0, [r5, #-262]	; 0xfffffefa
    2114:	11056706 	tstne	r5, r6, lsl #14
    2118:	05050106 	streq	r0, [r5, #-262]	; 0xfffffefa
    211c:	6701052e 	strvs	r0, [r1, -lr, lsr #10]
    2120:	29063805 	stmdbcs	r6, {r0, r2, fp, ip, sp}
    2124:	05050106 	streq	r0, [r5, #-262]	; 0xfffffefa
    2128:	11056706 	tstne	r5, r6, lsl #14
    212c:	05050106 	streq	r0, [r5, #-262]	; 0xfffffefa
    2130:	6701052e 	strvs	r0, [r1, -lr, lsr #10]
    2134:	03061605 	movweq	r1, #26117	; 0x6605
    2138:	05052e15 	streq	r2, [r5, #-3605]	; 0xfffff1eb
    213c:	35686735 	strbcc	r6, [r8, #-1845]!	; 0xfffff8cb
    2140:	2e0c0368 	cdpcs	3, 0, cr0, cr12, cr8, {3}
    2144:	69696b85 	stmdbvs	r9!, {r0, r2, r7, r8, r9, fp, sp, lr}^
    2148:	13660c03 	cmnne	r6, #768	; 0x300
    214c:	0105676b 	tsteq	r5, fp, ror #14
    2150:	19052f06 	stmdbne	r5, {r1, r2, r8, r9, sl, fp, sp}
    2154:	05250806 	streq	r0, [r5, #-2054]!	; 0xfffff7fa
    2158:	0d053405 	cfstrseq	mvf3, [r5, #-20]	; 0xffffffec
    215c:	01050106 	tsteq	r5, r6, lsl #2
    2160:	0619054c 	ldreq	r0, [r9], -ip, asr #10
    2164:	36050567 	strcc	r0, [r5], -r7, ror #10
    2168:	01060d05 	tsteq	r6, r5, lsl #26
    216c:	054a2805 	strbeq	r2, [sl, #-2053]	; 0xfffff7fb
    2170:	15053001 	strne	r3, [r5, #-1]
    2174:	05058706 	streq	r8, [r5, #-1798]	; 0xfffff8fa
    2178:	09052f2f 	stmdbeq	r5, {r0, r1, r2, r3, r5, r8, r9, sl, fp, sp}
    217c:	01040200 	mrseq	r0, R12_usr
    2180:	000a0513 	andeq	r0, sl, r3, lsl r5
    2184:	11010402 	tstne	r1, r2, lsl #8
    2188:	02000c05 	andeq	r0, r0, #1280	; 0x500
    218c:	01060104 	tsteq	r6, r4, lsl #2
    2190:	02000a05 	andeq	r0, r0, #20480	; 0x5000
    2194:	052e0104 	streq	r0, [lr, #-260]!	; 0xfffffefc
    2198:	054c0605 	strbeq	r0, [ip, #-1541]	; 0xfffff9fb
    219c:	0501060e 	streq	r0, [r1, #-1550]	; 0xfffff9f2
    21a0:	05054a09 	streq	r4, [r5, #-2569]	; 0xfffff5f7
    21a4:	052f2f06 	streq	r2, [pc, #-3846]!	; 12a6 <__code_start__-0x6d5a>
    21a8:	05130601 	ldreq	r0, [r3, #-1537]	; 0xfffff9ff
    21ac:	0667061c 			; <UNDEFINED> instruction: 0x0667061c
    21b0:	06050501 	streq	r0, [r5], -r1, lsl #10
    21b4:	09052f4b 	stmdbeq	r5, {r0, r1, r3, r6, r8, r9, sl, fp, sp}
    21b8:	01040200 	mrseq	r0, R12_usr
    21bc:	000a0513 	andeq	r0, sl, r3, lsl r5
    21c0:	11010402 	tstne	r1, r2, lsl #8
    21c4:	02000c05 	andeq	r0, r0, #1280	; 0x500
    21c8:	01060104 	tsteq	r6, r4, lsl #2
    21cc:	02000a05 	andeq	r0, r0, #20480	; 0x5000
    21d0:	052e0104 	streq	r0, [lr, #-260]!	; 0xfffffefc
    21d4:	674c0605 	strbvs	r0, [ip, -r5, lsl #12]
    21d8:	2f060105 	svccs	0x00060105
    21dc:	4c061905 			; <UNDEFINED> instruction: 0x4c061905
    21e0:	052e1b05 	streq	r1, [lr, #-2821]!	; 0xfffff4fb
    21e4:	31052e2a 	tstcc	r5, sl, lsr #28
    21e8:	42050106 	andmi	r0, r5, #-2147483647	; 0x80000001
    21ec:	061c052e 	ldreq	r0, [ip], -lr, lsr #10
    21f0:	2f050531 	svccs	0x00050531
    21f4:	052e0903 	streq	r0, [lr, #-2307]!	; 0xfffff6fd
    21f8:	0501060e 	streq	r0, [r1, #-1550]	; 0xfffff9f2
    21fc:	01054a21 	tsteq	r5, r1, lsr #20
    2200:	052e0a03 	streq	r0, [lr, #-2563]!	; 0xfffff5fd
    2204:	0568061a 	strbeq	r0, [r8, #-1562]!	; 0xfffff9e6
    2208:	04020009 	streq	r0, [r2], #-9
    220c:	0a053001 	beq	14e218 <__bss_end__+0x1432b8>
    2210:	01040200 	mrseq	r0, R12_usr
    2214:	000c0511 	andeq	r0, ip, r1, lsl r5
    2218:	06010402 	streq	r0, [r1], -r2, lsl #8
    221c:	000a0501 	andeq	r0, sl, r1, lsl #10
    2220:	2e010402 	cdpcs	4, 0, cr0, cr1, cr2, {0}
    2224:	03061905 	movweq	r1, #26885	; 0x6905
    2228:	05667ee8 	strbeq	r7, [r6, #-3816]!	; 0xfffff118
    222c:	2f2f2f05 	svccs	0x002f2f05
    2230:	06010567 	streq	r0, [r1], -r7, ror #10
    2234:	0004022f 	andeq	r0, r4, pc, lsr #4
    2238:	03930101 	orrseq	r0, r3, #1073741824	; 0x40000000
    223c:	00030000 	andeq	r0, r3, r0
    2240:	000000b8 	strheq	r0, [r0], -r8
    2244:	0efb0102 	cdpeq	1, 15, cr0, cr11, cr2, {0}
    2248:	0101000d 	tsteq	r1, sp
    224c:	00000101 	andeq	r0, r0, r1, lsl #2
    2250:	00000100 	andeq	r0, r0, r0, lsl #2
    2254:	6f682f01 	svcvs	0x00682f01
    2258:	652f656d 	strvs	r6, [pc, #-1389]!	; 1cf3 <__code_start__-0x630d>
    225c:	656c676e 	strbvs	r6, [ip, #-1902]!	; 0xfffff892
    2260:	6c632f72 	stclvs	15, cr2, [r3], #-456	; 0xfffffe38
    2264:	2f737361 	svccs	0x00737361
    2268:	34327363 	ldrtcc	r7, [r2], #-867	; 0xfffffc9d
    226c:	2d786c30 	ldclcs	12, cr6, [r8, #-192]!	; 0xffffff40
    2270:	70733232 	rsbsvc	r3, r3, r2, lsr r2
    2274:	6c2f2f72 	stcvs	15, cr2, [pc], #-456	; 20b4 <__code_start__-0x5f4c>
    2278:	69706269 	ldmdbvs	r0!, {r0, r3, r5, r6, r9, sp, lr}^
    227c:	636e692f 	cmnvs	lr, #770048	; 0xbc000
    2280:	6564756c 	strbvs	r7, [r4, #-1388]!	; 0xfffffa94
    2284:	73752f00 	cmnvc	r5, #0, 30
    2288:	68732f72 	ldmdavs	r3!, {r1, r4, r5, r6, r8, r9, sl, fp, sp}^
    228c:	2f657261 	svccs	0x00657261
    2290:	2d636367 	stclcs	3, cr6, [r3, #-412]!	; 0xfffffe64
    2294:	2d6d7261 	sfmcs	f7, 2, [sp, #-388]!	; 0xfffffe7c
    2298:	656e6f6e 	strbvs	r6, [lr, #-3950]!	; 0xfffff092
    229c:	6261652d 	rsbvs	r6, r1, #188743680	; 0xb400000
    22a0:	30312d69 	eorscc	r2, r1, r9, ror #26
    22a4:	322d332e 	eorcc	r3, sp, #-1207959552	; 0xb8000000
    22a8:	2e313230 	mrccs	2, 1, r3, cr1, cr0, {1}
    22ac:	6c2f3031 	stcvs	0, cr3, [pc], #-196	; 21f0 <__code_start__-0x5e10>
    22b0:	672f6269 	strvs	r6, [pc, -r9, ror #4]!
    22b4:	612f6363 			; <UNDEFINED> instruction: 0x612f6363
    22b8:	6e2d6d72 	mcrvs	13, 1, r6, cr13, cr2, {3}
    22bc:	2d656e6f 	stclcs	14, cr6, [r5, #-444]!	; 0xfffffe44
    22c0:	69626165 	stmdbvs	r2!, {r0, r2, r5, r6, r8, sp, lr}^
    22c4:	2e30312f 	rsfcssp	f3, f0, #10.0
    22c8:	2f312e33 	svccs	0x00312e33
    22cc:	6c636e69 	stclvs	14, cr6, [r3], #-420	; 0xfffffe5c
    22d0:	00656475 	rsbeq	r6, r5, r5, ror r4
    22d4:	616d6b00 	cmnvs	sp, r0, lsl #22
    22d8:	636f6c6c 	cmnvs	pc, #108, 24	; 0x6c00
    22dc:	0000632e 	andeq	r6, r0, lr, lsr #6
    22e0:	70720000 	rsbsvc	r0, r2, r0
    22e4:	00682e69 	rsbeq	r2, r8, r9, ror #28
    22e8:	73000001 	movwvc	r0, #1
    22ec:	6e696474 	mcrvs	4, 3, r6, cr9, cr4, {3}
    22f0:	63672d74 	cmnvs	r7, #116, 26	; 0x1d00
    22f4:	00682e63 	rsbeq	r2, r8, r3, ror #28
    22f8:	00000002 	andeq	r0, r0, r2
    22fc:	05001e05 	streq	r1, [r0, #-3589]	; 0xfffff1fb
    2300:	009a9c02 	addseq	r9, sl, r2, lsl #24
    2304:	01270300 			; <UNDEFINED> instruction: 0x01270300
    2308:	05012005 	streq	r2, [r1, #-5]
    230c:	05010631 	streq	r0, [r1, #-1585]	; 0xfffff9cf
    2310:	05830620 	streq	r0, [r3, #1568]	; 0x620
    2314:	35050122 	strcc	r0, [r5, #-290]	; 0xfffffede
    2318:	1e050106 	adfnes	f0, f5, f6
    231c:	20058306 	andcs	r8, r5, r6, lsl #6
    2320:	062d0501 	strteq	r0, [sp], -r1, lsl #10
    2324:	06420501 	strbeq	r0, [r2], -r1, lsl #10
    2328:	05010685 	streq	r0, [r1, #-1669]	; 0xfffff97b
    232c:	144b0605 	strbne	r0, [fp], #-1541	; 0xfffff9fb
    2330:	002e0601 	eoreq	r0, lr, r1, lsl #12
    2334:	06020402 	streq	r0, [r2], -r2, lsl #8
    2338:	0402002e 	streq	r0, [r2], #-46	; 0xffffffd2
    233c:	02000102 	andeq	r0, r0, #-2147483648	; 0x80000000
    2340:	05150204 	ldreq	r0, [r5, #-516]	; 0xfffffdfc
    2344:	0402000d 	streq	r0, [r2], #-13
    2348:	05010602 	streq	r0, [r1, #-1538]	; 0xfffff9fe
    234c:	04020007 	streq	r0, [r2], #-7
    2350:	09054a02 	stmdbeq	r5, {r1, r9, fp, lr}
    2354:	05054b06 	streq	r4, [r5, #-2822]	; 0xfffff4fa
    2358:	06170515 			; <UNDEFINED> instruction: 0x06170515
    235c:	4a100501 	bmi	403768 <__bss_end__+0x3f8808>
    2360:	2f060505 	svccs	0x00060505
    2364:	01061b05 	tsteq	r6, r5, lsl #22
    2368:	052e0e05 	streq	r0, [lr, #-3589]!	; 0xfffff1fb
    236c:	05052f01 	streq	r2, [r5, #-3841]	; 0xfffff0ff
    2370:	01040200 	mrseq	r0, R12_usr
    2374:	4a770306 	bmi	1dc2f94 <__bss_end__+0x1db8034>
    2378:	01040200 	mrseq	r0, R12_usr
    237c:	04020001 	streq	r0, [r2], #-1
    2380:	009e0601 	addseq	r0, lr, r1, lsl #12
    2384:	2e010402 	cdpcs	4, 0, cr0, cr1, cr2, {0}
    2388:	01040200 	mrseq	r0, R12_usr
    238c:	09052e06 	stmdbeq	r5, {r1, r2, r9, sl, fp, sp}
    2390:	d6060132 			; <UNDEFINED> instruction: 0xd6060132
    2394:	052e062e 	streq	r0, [lr, #-1582]!	; 0xfffff9d2
    2398:	0505de19 	streq	sp, [r5, #-3609]	; 0xfffff1e7
    239c:	0805142f 	stmdaeq	r5, {r0, r1, r2, r3, r5, sl, ip}
    23a0:	07050106 	streq	r0, [r5, -r6, lsl #2]
    23a4:	0609054a 	streq	r0, [r9], -sl, asr #10
    23a8:	1305054b 	movwne	r0, #21835	; 0x554b
    23ac:	01060c05 	tsteq	r6, r5, lsl #24
    23b0:	67060505 	strvs	r0, [r6, -r5, lsl #10]
    23b4:	06010513 			; <UNDEFINED> instruction: 0x06010513
    23b8:	06090567 	streq	r0, [r9], -r7, ror #10
    23bc:	059e012a 	ldreq	r0, [lr, #298]	; 0x12a
    23c0:	0106a528 	tsteq	r6, r8, lsr #10
    23c4:	4b060505 	blmi	1837e0 <__bss_end__+0x178880>
    23c8:	062e0601 	strteq	r0, [lr], -r1, lsl #12
    23cc:	0513012e 	ldreq	r0, [r3, #-302]	; 0xfffffed2
    23d0:	01470318 	cmpeq	r7, r8, lsl r3
    23d4:	01130505 	tsteq	r3, r5, lsl #10
    23d8:	0f060106 	svceq	0x00060106
    23dc:	05130115 	ldreq	r0, [r3, #-277]	; 0xfffffeeb
    23e0:	0501060e 	streq	r0, [r1, #-1550]	; 0xfffff9f2
    23e4:	052e2e16 	streq	r2, [lr, #-3606]!	; 0xfffff1ea
    23e8:	39030605 	stmdbcc	r3, {r0, r2, r9, sl}
    23ec:	060b0501 	streq	r0, [fp], -r1, lsl #10
    23f0:	06050501 	streq	r0, [r5], -r1, lsl #10
    23f4:	060a054b 	streq	r0, [sl], -fp, asr #10
    23f8:	06050501 	streq	r0, [r5], -r1, lsl #10
    23fc:	060d054b 	streq	r0, [sp], -fp, asr #10
    2400:	2e070501 	cfsh32cs	mvfx0, mvfx7, #1
    2404:	054d0105 	strbeq	r0, [sp, #-261]	; 0xfffffefb
    2408:	04020005 	streq	r0, [r2], #-5
    240c:	78030601 	stmdavc	r3, {r0, r9, sl}
    2410:	0402004a 	streq	r0, [r2], #-74	; 0xffffffb6
    2414:	02000101 	andeq	r0, r0, #1073741824	; 0x40000000
    2418:	ba060104 	blt	182830 <__bss_end__+0x1778d0>
    241c:	01040200 	mrseq	r0, R12_usr
    2420:	09052e06 	stmdbeq	r5, {r1, r2, r9, sl, fp, sp}
    2424:	82060134 	andhi	r0, r6, #13
    2428:	052e0666 	streq	r0, [lr, #-1638]!	; 0xfffff99a
    242c:	0106db20 	tsteq	r6, r0, lsr #22
    2430:	4b060505 	blmi	18384c <__bss_end__+0x1788ec>
    2434:	04020001 	streq	r0, [r2], #-1
    2438:	02004a02 	andeq	r4, r0, #8192	; 0x2000
    243c:	00010204 	andeq	r0, r1, r4, lsl #4
    2440:	13020402 	movwne	r0, #9218	; 0x2402
    2444:	02001205 	andeq	r1, r0, #1342177280	; 0x50000000
    2448:	01060204 	tsteq	r6, r4, lsl #4
    244c:	02040200 	andeq	r0, r4, #0, 4
    2450:	0402002e 	streq	r0, [r2], #-46	; 0xffffffd2
    2454:	05052e02 	streq	r2, [r5, #-3586]	; 0xfffff1fe
    2458:	02040200 	andeq	r0, r4, #0, 4
    245c:	02002f06 	andeq	r2, r0, #6, 30
    2460:	05670204 	strbeq	r0, [r7, #-516]!	; 0xfffffdfc
    2464:	04020001 	streq	r0, [r2], #-1
    2468:	05130602 	ldreq	r0, [r3, #-1538]	; 0xfffff9fe
    246c:	04020005 	streq	r0, [r2], #-5
    2470:	00620601 	rsbeq	r0, r2, r1, lsl #12
    2474:	01010402 	tsteq	r1, r2, lsl #8
    2478:	01040200 	mrseq	r0, R12_usr
    247c:	0200ba06 	andeq	fp, r0, #24576	; 0x6000
    2480:	2e060104 	adfcss	f0, f6, f4
    2484:	0a033c05 	beq	d14a0 <__bss_end__+0xc6540>
    2488:	0501069e 	streq	r0, [r1, #-1694]	; 0xfffff962
    248c:	014b0605 	cmpeq	fp, r5, lsl #12
    2490:	2e062e06 	cdpcs	14, 0, cr2, cr6, cr6, {0}
    2494:	05011301 	streq	r1, [r1, #-769]	; 0xfffffcff
    2498:	7fad0318 	svcvc	0x00ad0318
    249c:	13050501 	movwne	r0, #21761	; 0x5501
    24a0:	01061105 	tsteq	r6, r5, lsl #2
    24a4:	0305052e 	movweq	r0, #21806	; 0x552e
    24a8:	060100d2 			; <UNDEFINED> instruction: 0x060100d2
    24ac:	1805134a 	stmdane	r5, {r1, r3, r6, r8, r9, ip}
    24b0:	017fa303 	cmneq	pc, r3, lsl #6
    24b4:	05130505 	ldreq	r0, [r3, #-1285]	; 0xfffffafb
    24b8:	4a010616 	bmi	43d18 <__bss_end__+0x38db8>
    24bc:	03060505 	movweq	r0, #25861	; 0x6505
    24c0:	050100e1 	streq	r0, [r1, #-225]	; 0xffffff1f
    24c4:	05010612 	streq	r0, [r1, #-1554]	; 0xfffff9ee
    24c8:	054b0605 	strbeq	r0, [fp, #-1541]	; 0xfffff9fb
    24cc:	7fa90318 	svcvc	0x00a90318
    24d0:	13050501 	movwne	r0, #21761	; 0x5501
    24d4:	0e180501 	cfmul32eq	mvfx0, mvfx8, mvfx1
    24d8:	05130505 	ldreq	r0, [r3, #-1285]	; 0xfffffafb
    24dc:	2e010611 	mcrcs	6, 0, r0, cr1, cr1, {0}
    24e0:	06150505 	ldreq	r0, [r5], -r5, lsl #10
    24e4:	0513014a 	ldreq	r0, [r3, #-330]	; 0xfffffeb6
    24e8:	2e01060e 	cfmadd32cs	mvax0, mvfx0, mvfx1, mvfx14
    24ec:	2e2e1605 	cfmadda32cs	mvax0, mvax1, mvfx14, mvfx5
    24f0:	03060505 	movweq	r0, #25861	; 0x6505
    24f4:	010100d6 	ldrdeq	r0, [r1, -r6]
    24f8:	9f031805 	svcls	0x00031805
    24fc:	0505017f 	streq	r0, [r5, #-383]	; 0xfffffe81
    2500:	06190513 			; <UNDEFINED> instruction: 0x06190513
    2504:	05052e01 	streq	r2, [r5, #-3585]	; 0xfffff1ff
    2508:	0100e003 	tsteq	r0, r3
    250c:	02040200 	andeq	r0, r4, #0, 4
    2510:	02004a06 	andeq	r4, r0, #24576	; 0x6000
    2514:	05140204 	ldreq	r0, [r4, #-516]	; 0xfffffdfc
    2518:	0402000a 	streq	r0, [r2], #-10
    251c:	05010602 	streq	r0, [r1, #-1538]	; 0xfffff9fe
    2520:	04020005 	streq	r0, [r2], #-5
    2524:	054b0602 	strbeq	r0, [fp, #-1538]	; 0xfffff9fe
    2528:	0402000c 	streq	r0, [r2], #-12
    252c:	05010602 	streq	r0, [r1, #-1538]	; 0xfffff9fe
    2530:	04020001 	streq	r0, [r2], #-1
    2534:	05052f02 	streq	r2, [r5, #-3842]	; 0xfffff0fe
    2538:	01040200 	mrseq	r0, R12_usr
    253c:	4a730306 	bmi	1cc315c <__bss_end__+0x1cb81fc>
    2540:	01040200 	mrseq	r0, R12_usr
    2544:	04020001 	streq	r0, [r2], #-1
    2548:	009e0601 	addseq	r0, lr, r1, lsl #12
    254c:	2e010402 	cdpcs	4, 0, cr0, cr1, cr2, {0}
    2550:	01040200 	mrseq	r0, R12_usr
    2554:	02002e06 	andeq	r2, r0, #96	; 0x60
    2558:	002f0104 	eoreq	r0, pc, r4, lsl #2
    255c:	2e010402 	cdpcs	4, 0, cr0, cr1, cr2, {0}
    2560:	01040200 	mrseq	r0, R12_usr
    2564:	7fb103d6 	svcvc	0x00b103d6
    2568:	8206012e 	andhi	r0, r6, #-2147483637	; 0x8000000b
    256c:	2e062e2e 	cdpcs	14, 0, cr2, cr6, cr14, {1}
    2570:	02002e06 	andeq	r2, r0, #96	; 0x60
    2574:	03060104 	movweq	r0, #24836	; 0x6104
    2578:	000100d7 	ldrdeq	r0, [r1], -r7
    257c:	2e010402 	cdpcs	4, 0, cr0, cr1, cr2, {0}
    2580:	01040200 	mrseq	r0, R12_usr
    2584:	081505d6 	ldmdaeq	r5, {r1, r2, r4, r6, r7, r8, sl}
    2588:	0117057b 	tsteq	r7, fp, ror r5
    258c:	05311605 	ldreq	r1, [r1, #-1541]!	; 0xfffff9fb
    2590:	1d050118 	stfnes	f0, [r5, #-96]	; 0xffffffa0
    2594:	2b050106 	blcs	1429b4 <__bss_end__+0x137a54>
    2598:	06190566 	ldreq	r0, [r9], -r6, ror #10
    259c:	1305054d 	movwne	r0, #21837	; 0x554d
    25a0:	01060c05 	tsteq	r6, r5, lsl #24
    25a4:	054a0705 	strbeq	r0, [sl, #-1797]	; 0xfffff8fb
    25a8:	04020025 	streq	r0, [r2], #-37	; 0xffffffdb
    25ac:	1e054a01 	vmlane.f32	s8, s10, s2
    25b0:	01040200 	mrseq	r0, R12_usr
    25b4:	0609054a 	streq	r0, [r9], -sl, asr #10
    25b8:	1305054b 	movwne	r0, #21835	; 0x554b
    25bc:	01060a05 	tsteq	r6, r5, lsl #20
    25c0:	05631905 	strbeq	r1, [r3, #-2309]!	; 0xfffff6fb
    25c4:	014c0609 	cmpeq	ip, r9, lsl #12
    25c8:	2e069e06 	cdpcs	14, 0, cr9, cr6, cr6, {0}
    25cc:	01000a02 	tsteq	r0, r2, lsl #20
    25d0:	0000be01 	andeq	fp, r0, r1, lsl #28
    25d4:	80000300 	andhi	r0, r0, r0, lsl #6
    25d8:	02000000 	andeq	r0, r0, #0, 0
    25dc:	0d0efb01 	vstreq	d15, [lr, #-4]
    25e0:	01010100 	mrseq	r0, (UNDEF: 17)
    25e4:	00000001 	andeq	r0, r0, r1
    25e8:	01000001 	tsteq	r0, r1
    25ec:	696c2f2e 	stmdbvs	ip!, {r1, r2, r3, r5, r8, r9, sl, fp, sp}^
    25f0:	2f006362 	svccs	0x00006362
    25f4:	72657355 	rsbvc	r7, r5, #1409286145	; 0x54000001
    25f8:	72742f73 	rsbsvc	r2, r4, #460	; 0x1cc
    25fc:	65747369 	ldrbvs	r7, [r4, #-873]!	; 0xfffffc97
    2600:	6c6f6e6e 	stclvs	14, cr6, [pc], #-440	; 2450 <__code_start__-0x5bb0>
    2604:	6e616d6c 	cdpvs	13, 6, cr6, cr1, cr12, {3}
    2608:	636f442f 	cmnvs	pc, #788529152	; 0x2f000000
    260c:	6e656d75 	mcrvs	13, 3, r6, cr5, cr5, {3}
    2610:	532f7374 			; <UNDEFINED> instruction: 0x532f7374
    2614:	6e697270 	mcrvs	2, 3, r7, cr9, cr0, {3}
    2618:	75515f67 	ldrbvc	r5, [r1, #-3943]	; 0xfffff099
    261c:	65747261 	ldrbvs	r7, [r4, #-609]!	; 0xfffffd9f
    2620:	30325f72 	eorscc	r5, r2, r2, ror pc
    2624:	432f3232 			; <UNDEFINED> instruction: 0x432f3232
    2628:	30343253 	eorscc	r3, r4, r3, asr r2
    262c:	732d584c 			; <UNDEFINED> instruction: 0x732d584c
    2630:	32327270 	eorscc	r7, r2, #112, 4
    2634:	62696c2f 	rsbvs	r6, r9, #12032	; 0x2f00
    2638:	692f6970 	stmdbvs	pc!, {r4, r5, r6, r8, fp, sp, lr}	; <UNPREDICTABLE>
    263c:	756c636e 	strbvc	r6, [ip, #-878]!	; 0xfffffc92
    2640:	00006564 	andeq	r6, r0, r4, ror #10
    2644:	63747570 	cmnvs	r4, #112, 10	; 0x1c000000
    2648:	2e726168 	rpwcssz	f6, f2, #0.0
    264c:	00010063 	andeq	r0, r1, r3, rrx
    2650:	69707200 	ldmdbvs	r0!, {r9, ip, sp, lr}^
    2654:	0200682e 	andeq	r6, r0, #3014656	; 0x2e0000
    2658:	05000000 	streq	r0, [r0, #-0]
    265c:	02050024 	andeq	r0, r5, #36, 0	; 0x24
    2660:	00009e4c 	andeq	r9, r0, ip, asr #28
    2664:	05010614 	streq	r0, [r1, #-1556]	; 0xfffff9ec
    2668:	054a0626 	strbeq	r0, [sl, #-1574]	; 0xfffff9da
    266c:	01052e34 	tsteq	r5, r4, lsr lr
    2670:	1b050106 	blne	142a90 <__bss_end__+0x137b30>
    2674:	05054f06 	streq	r4, [r5, #-3846]	; 0xfffff0fa
    2678:	06110513 			; <UNDEFINED> instruction: 0x06110513
    267c:	67010501 	strvs	r0, [r1, -r1, lsl #10]
    2680:	67062305 	strvs	r2, [r6, -r5, lsl #6]
    2684:	05130505 	ldreq	r0, [r3, #-1285]	; 0xfffffafb
    2688:	05010611 	streq	r0, [r1, #-1553]	; 0xfffff9ef
    268c:	04024b01 	streq	r4, [r2], #-2817	; 0xfffff4ff
    2690:	0a010100 	beq	42a98 <__bss_end__+0x37b38>
    2694:	03000001 	movweq	r0, #1
    2698:	00007f00 	andeq	r7, r0, r0, lsl #30
    269c:	fb010200 	blx	42ea6 <__bss_end__+0x37f46>
    26a0:	01000d0e 	tsteq	r0, lr, lsl #26
    26a4:	00010101 	andeq	r0, r1, r1, lsl #2
    26a8:	00010000 	andeq	r0, r1, r0
    26ac:	2f2e0100 	svccs	0x002e0100
    26b0:	6362696c 	cmnvs	r2, #108, 18	; 0x1b0000
    26b4:	73552f00 	cmpvc	r5, #0, 30
    26b8:	2f737265 	svccs	0x00737265
    26bc:	73697274 	cmnvc	r9, #116, 4	; 0x40000007
    26c0:	6e6e6574 	mcrvs	5, 3, r6, cr14, cr4, {3}
    26c4:	6d6c6c6f 	stclvs	12, cr6, [ip, #-444]!	; 0xfffffe44
    26c8:	442f6e61 	strtmi	r6, [pc], #-3681	; 26d0 <__code_start__-0x5930>
    26cc:	6d75636f 	ldclvs	3, cr6, [r5, #-444]!	; 0xfffffe44
    26d0:	73746e65 	cmnvc	r4, #1616	; 0x650
    26d4:	7270532f 	rsbsvc	r5, r0, #-1140850688	; 0xbc000000
    26d8:	5f676e69 	svcpl	0x00676e69
    26dc:	72617551 	rsbvc	r7, r1, #339738624	; 0x14400000
    26e0:	5f726574 	svcpl	0x00726574
    26e4:	32323032 	eorscc	r3, r2, #50, 0	; 0x32
    26e8:	3253432f 	subscc	r4, r3, #-1140850688	; 0xbc000000
    26ec:	584c3034 	stmdapl	ip, {r2, r4, r5, ip, sp}^
    26f0:	7270732d 	rsbsvc	r7, r0, #-1275068416	; 0xb4000000
    26f4:	6c2f3232 	sfmvs	f3, 4, [pc], #-200	; 2634 <__code_start__-0x59cc>
    26f8:	69706269 	ldmdbvs	r0!, {r0, r3, r5, r6, r9, sp, lr}^
    26fc:	636e692f 	cmnvs	lr, #770048	; 0xbc000
    2700:	6564756c 	strbvs	r7, [r4, #-1388]!	; 0xfffffa94
    2704:	74730000 	ldrbtvc	r0, [r3], #-0
    2708:	74616372 	strbtvc	r6, [r1], #-882	; 0xfffffc8e
    270c:	0100632e 	tsteq	r0, lr, lsr #6
    2710:	70720000 	rsbsvc	r0, r2, r0
    2714:	00682e69 	rsbeq	r2, r8, r9, ror #28
    2718:	00000002 	andeq	r0, r0, r2
    271c:	05002c05 	streq	r2, [r0, #-3077]	; 0xfffff3fb
    2720:	009e8802 	addseq	r8, lr, r2, lsl #16
    2724:	05051500 	streq	r1, [r5, #-1280]	; 0xfffffb00
    2728:	0b051313 	bleq	14737c <__bss_end__+0x13c41c>
    272c:	05051106 	streq	r1, [r5, #-262]	; 0xfffffefa
    2730:	01040200 	mrseq	r0, R12_usr
    2734:	02003006 	andeq	r3, r0, #6, 0
    2738:	05150104 	ldreq	r0, [r5, #-260]	; 0xfffffefc
    273c:	04020009 	streq	r0, [r2], #-9
    2740:	10051301 	andne	r1, r5, r1, lsl #6
    2744:	01040200 	mrseq	r0, R12_usr
    2748:	0b052e06 	bleq	14df68 <__bss_end__+0x143008>
    274c:	01040200 	mrseq	r0, R12_usr
    2750:	0402002e 	streq	r0, [r2], #-46	; 0xffffffd2
    2754:	052f0601 	streq	r0, [pc, #-1537]!	; 215b <__code_start__-0x5ea5>
    2758:	04020005 	streq	r0, [r2], #-5
    275c:	06010601 	streq	r0, [r1], -r1, lsl #12
    2760:	0608054e 	streq	r0, [r8], -lr, asr #10
    2764:	00050501 	andeq	r0, r5, r1, lsl #10
    2768:	06010402 	streq	r0, [r1], -r2, lsl #8
    276c:	0009052f 	andeq	r0, r9, pc, lsr #10
    2770:	13010402 	movwne	r0, #5122	; 0x1402
    2774:	02000b05 	andeq	r0, r0, #5120	; 0x1400
    2778:	01060104 	tsteq	r6, r4, lsl #2
    277c:	02000905 	andeq	r0, r0, #81920	; 0x14000
    2780:	4b060104 	blmi	182b98 <__bss_end__+0x177c38>
    2784:	02000f05 	andeq	r0, r0, #5, 30
    2788:	01060104 	tsteq	r6, r4, lsl #2
    278c:	02000d05 	andeq	r0, r0, #320	; 0x140
    2790:	2f060104 	svccs	0x00060104
    2794:	02000505 	andeq	r0, r0, #20971520	; 0x1400000
    2798:	01060104 	tsteq	r6, r4, lsl #2
    279c:	01000602 	tsteq	r0, r2, lsl #12
    27a0:	0000c301 	andeq	ip, r0, r1, lsl #6
    27a4:	7f000300 	svcvc	0x00000300
    27a8:	02000000 	andeq	r0, r0, #0, 0
    27ac:	0d0efb01 	vstreq	d15, [lr, #-4]
    27b0:	01010100 	mrseq	r0, (UNDEF: 17)
    27b4:	00000001 	andeq	r0, r0, r1
    27b8:	01000001 	tsteq	r0, r1
    27bc:	696c2f2e 	stmdbvs	ip!, {r1, r2, r3, r5, r8, r9, sl, fp, sp}^
    27c0:	2f006362 	svccs	0x00006362
    27c4:	72657355 	rsbvc	r7, r5, #1409286145	; 0x54000001
    27c8:	72742f73 	rsbsvc	r2, r4, #460	; 0x1cc
    27cc:	65747369 	ldrbvs	r7, [r4, #-873]!	; 0xfffffc97
    27d0:	6c6f6e6e 	stclvs	14, cr6, [pc], #-440	; 2620 <__code_start__-0x59e0>
    27d4:	6e616d6c 	cdpvs	13, 6, cr6, cr1, cr12, {3}
    27d8:	636f442f 	cmnvs	pc, #788529152	; 0x2f000000
    27dc:	6e656d75 	mcrvs	13, 3, r6, cr5, cr5, {3}
    27e0:	532f7374 			; <UNDEFINED> instruction: 0x532f7374
    27e4:	6e697270 	mcrvs	2, 3, r7, cr9, cr0, {3}
    27e8:	75515f67 	ldrbvc	r5, [r1, #-3943]	; 0xfffff099
    27ec:	65747261 	ldrbvs	r7, [r4, #-609]!	; 0xfffffd9f
    27f0:	30325f72 	eorscc	r5, r2, r2, ror pc
    27f4:	432f3232 			; <UNDEFINED> instruction: 0x432f3232
    27f8:	30343253 	eorscc	r3, r4, r3, asr r2
    27fc:	732d584c 			; <UNDEFINED> instruction: 0x732d584c
    2800:	32327270 	eorscc	r7, r2, #112, 4
    2804:	62696c2f 	rsbvs	r6, r9, #12032	; 0x2f00
    2808:	692f6970 	stmdbvs	pc!, {r4, r5, r6, r8, fp, sp, lr}	; <UNPREDICTABLE>
    280c:	756c636e 	strbvc	r6, [ip, #-878]!	; 0xfffffc92
    2810:	00006564 	andeq	r6, r0, r4, ror #10
    2814:	63727473 	cmnvs	r2, #1929379840	; 0x73000000
    2818:	632e706d 			; <UNDEFINED> instruction: 0x632e706d
    281c:	00000100 	andeq	r0, r0, r0, lsl #2
    2820:	2e697072 	mcrcs	0, 3, r7, cr9, cr2, {3}
    2824:	00020068 	andeq	r0, r2, r8, rrx
    2828:	2a050000 	bcs	142830 <__bss_end__+0x1378d0>
    282c:	bc020500 	cfstr32lt	mvfx0, [r2], {-0}
    2830:	1400009e 	strne	r0, [r0], #-158	; 0xffffff62
    2834:	05130905 	ldreq	r0, [r3, #-2309]	; 0xfffff6fb
    2838:	1005010f 	andne	r0, r5, pc, lsl #2
    283c:	0f050106 	svceq	0x00050106
    2840:	001c052e 	andseq	r0, ip, lr, lsr #10
    2844:	4a010402 	bmi	43854 <__bss_end__+0x388f4>
    2848:	02001305 	andeq	r1, r0, #335544320	; 0x14000000
    284c:	052e0104 	streq	r0, [lr, #-260]!	; 0xfffffefc
    2850:	052f0611 	streq	r0, [pc, #-1553]!	; 2247 <__code_start__-0x5db9>
    2854:	2e2e0616 	mcrcs	6, 1, r0, cr14, cr6, {0}
    2858:	2f060905 	svccs	0x00060905
    285c:	01061505 	tsteq	r6, r5, lsl #10
    2860:	022f0105 	eoreq	r0, pc, #1073741825	; 0x40000001
    2864:	01010004 	tsteq	r1, r4
    2868:	000000c1 	andeq	r0, r0, r1, asr #1
    286c:	007f0003 	rsbseq	r0, pc, r3
    2870:	01020000 	mrseq	r0, (UNDEF: 2)
    2874:	000d0efb 	strdeq	r0, [sp], -fp
    2878:	01010101 	tsteq	r1, r1, lsl #2
    287c:	01000000 	mrseq	r0, (UNDEF: 0)
    2880:	2e010000 	cdpcs	0, 0, cr0, cr1, cr0, {0}
    2884:	62696c2f 	rsbvs	r6, r9, #12032	; 0x2f00
    2888:	552f0063 	strpl	r0, [pc, #-99]!	; 282d <__code_start__-0x57d3>
    288c:	73726573 	cmnvc	r2, #482344960	; 0x1cc00000
    2890:	6972742f 	ldmdbvs	r2!, {r0, r1, r2, r3, r5, sl, ip, sp, lr}^
    2894:	6e657473 	mcrvs	4, 3, r7, cr5, cr3, {3}
    2898:	6c6c6f6e 	stclvs	15, cr6, [ip], #-440	; 0xfffffe48
    289c:	2f6e616d 	svccs	0x006e616d
    28a0:	75636f44 	strbvc	r6, [r3, #-3908]!	; 0xfffff0bc
    28a4:	746e656d 	strbtvc	r6, [lr], #-1389	; 0xfffffa93
    28a8:	70532f73 	subsvc	r2, r3, r3, ror pc
    28ac:	676e6972 			; <UNDEFINED> instruction: 0x676e6972
    28b0:	6175515f 	cmnvs	r5, pc, asr r1
    28b4:	72657472 	rsbvc	r7, r5, #1912602624	; 0x72000000
    28b8:	3230325f 	eorscc	r3, r0, #-268435451	; 0xf0000005
    28bc:	53432f32 	movtpl	r2, #16178	; 0x3f32
    28c0:	4c303432 	cfldrsmi	mvf3, [r0], #-200	; 0xffffff38
    28c4:	70732d58 	rsbsvc	r2, r3, r8, asr sp
    28c8:	2f323272 	svccs	0x00323272
    28cc:	7062696c 	rsbvc	r6, r2, ip, ror #18
    28d0:	6e692f69 	cdpvs	15, 6, cr2, cr9, cr9, {3}
    28d4:	64756c63 	ldrbtvs	r6, [r5], #-3171	; 0xfffff39d
    28d8:	73000065 	movwvc	r0, #101	; 0x65
    28dc:	70637274 	rsbvc	r7, r3, r4, ror r2
    28e0:	00632e79 	rsbeq	r2, r3, r9, ror lr
    28e4:	72000001 	andvc	r0, r0, #1, 0
    28e8:	682e6970 	stmdavs	lr!, {r4, r5, r6, r8, fp, sp, lr}
    28ec:	00000200 	andeq	r0, r0, r0, lsl #4
    28f0:	002a0500 	eoreq	r0, sl, r0, lsl #10
    28f4:	9ee80205 	cdpls	2, 14, cr0, cr8, cr5, {0}
    28f8:	05140000 	ldreq	r0, [r4, #-0]
    28fc:	05131305 	ldreq	r1, [r3, #-773]	; 0xfffffcfb
    2900:	05110614 	ldreq	r0, [r1, #-1556]	; 0xfffff9ec
    2904:	04020022 	streq	r0, [r2], #-34	; 0xffffffde
    2908:	052f0601 	streq	r0, [pc, #-1537]!	; 230f <__code_start__-0x5cf1>
    290c:	0402000b 	streq	r0, [r2], #-11
    2910:	15050101 	strne	r0, [r5, #-257]	; 0xfffffeff
    2914:	01040200 	mrseq	r0, R12_usr
    2918:	13050106 	movwne	r0, #20742	; 0x5106
    291c:	01040200 	mrseq	r0, R12_usr
    2920:	000b054a 	andeq	r0, fp, sl, asr #10
    2924:	4a010402 	bmi	43934 <__bss_end__+0x389d4>
    2928:	01000602 	tsteq	r0, r2, lsl #12
    292c:	00012101 	andeq	r2, r1, r1, lsl #2
    2930:	e5000300 	str	r0, [r0, #-768]	; 0xfffffd00
    2934:	02000000 	andeq	r0, r0, #0, 0
    2938:	0d0efb01 	vstreq	d15, [lr, #-4]
    293c:	01010100 	mrseq	r0, (UNDEF: 17)
    2940:	00000001 	andeq	r0, r0, r1
    2944:	01000001 	tsteq	r0, r1
    2948:	696c2f2e 	stmdbvs	ip!, {r1, r2, r3, r5, r8, r9, sl, fp, sp}^
    294c:	2f006362 	svccs	0x00006362
    2950:	72657355 	rsbvc	r7, r5, #1409286145	; 0x54000001
    2954:	72742f73 	rsbsvc	r2, r4, #460	; 0x1cc
    2958:	65747369 	ldrbvs	r7, [r4, #-873]!	; 0xfffffc97
    295c:	6c6f6e6e 	stclvs	14, cr6, [pc], #-440	; 27ac <__code_start__-0x5854>
    2960:	6e616d6c 	cdpvs	13, 6, cr6, cr1, cr12, {3}
    2964:	636f442f 	cmnvs	pc, #788529152	; 0x2f000000
    2968:	6e656d75 	mcrvs	13, 3, r6, cr5, cr5, {3}
    296c:	532f7374 			; <UNDEFINED> instruction: 0x532f7374
    2970:	6e697270 	mcrvs	2, 3, r7, cr9, cr0, {3}
    2974:	75515f67 	ldrbvc	r5, [r1, #-3943]	; 0xfffff099
    2978:	65747261 	ldrbvs	r7, [r4, #-609]!	; 0xfffffd9f
    297c:	30325f72 	eorscc	r5, r2, r2, ror pc
    2980:	432f3232 			; <UNDEFINED> instruction: 0x432f3232
    2984:	30343253 	eorscc	r3, r4, r3, asr r2
    2988:	732d584c 			; <UNDEFINED> instruction: 0x732d584c
    298c:	32327270 	eorscc	r7, r2, #112, 4
    2990:	62696c2f 	rsbvs	r6, r9, #12032	; 0x2f00
    2994:	692f6970 	stmdbvs	pc!, {r4, r5, r6, r8, fp, sp, lr}	; <UNPREDICTABLE>
    2998:	756c636e 	strbvc	r6, [ip, #-878]!	; 0xfffffc92
    299c:	2f006564 	svccs	0x00006564
    29a0:	2f727375 	svccs	0x00727375
    29a4:	61636f6c 	cmnvs	r3, ip, ror #30
    29a8:	65432f6c 	strbvs	r2, [r3, #-3948]	; 0xfffff094
    29ac:	72616c6c 	rsbvc	r6, r1, #108, 24	; 0x6c00
    29b0:	6d72612f 	ldfvse	f6, [r2, #-188]!	; 0xffffff44
    29b4:	6e6f6e2d 	cdpvs	14, 6, cr6, cr15, cr13, {1}
    29b8:	61652d65 	cmnvs	r5, r5, ror #26
    29bc:	742d6962 	strtvc	r6, [sp], #-2402	; 0xfffff69e
    29c0:	2f747365 	svccs	0x00747365
    29c4:	30322d39 	eorscc	r2, r2, r9, lsr sp
    29c8:	34713931 	ldrbtcc	r3, [r1], #-2353	; 0xfffff6cf
    29cc:	3173632d 	cmncc	r3, sp, lsr #6
    29d0:	2f653730 	svccs	0x00653730
    29d4:	2f62696c 	svccs	0x0062696c
    29d8:	2f636367 	svccs	0x00636367
    29dc:	2d6d7261 	sfmcs	f7, 2, [sp, #-388]!	; 0xfffffe7c
    29e0:	656e6f6e 	strbvs	r6, [lr, #-3950]!	; 0xfffff092
    29e4:	6261652d 	rsbvs	r6, r1, #188743680	; 0xb400000
    29e8:	2e392f69 	cdpcs	15, 3, cr2, cr9, cr9, {3}
    29ec:	2f312e32 	svccs	0x00312e32
    29f0:	6c636e69 	stclvs	14, cr6, [r3], #-420	; 0xfffffe5c
    29f4:	00656475 	rsbeq	r6, r5, r5, ror r4
    29f8:	72747300 	rsbsvc	r7, r4, #0, 6
    29fc:	706d636e 	rsbvc	r6, sp, lr, ror #6
    2a00:	0100632e 	tsteq	r0, lr, lsr #6
    2a04:	70720000 	rsbsvc	r0, r2, r0
    2a08:	00682e69 	rsbeq	r2, r8, r9, ror #28
    2a0c:	73000002 	movwvc	r0, #2
    2a10:	65646474 	strbvs	r6, [r4, #-1140]!	; 0xfffffb8c
    2a14:	00682e66 	rsbeq	r2, r8, r6, ror #28
    2a18:	00000003 	andeq	r0, r0, r3
    2a1c:	05003905 	streq	r3, [r0, #-2309]	; 0xfffff6fb
    2a20:	009f0802 	addseq	r0, pc, r2, lsl #16
    2a24:	05051500 	streq	r1, [r5, #-1280]	; 0xfffffb00
    2a28:	0a051313 	beq	14767c <__bss_end__+0x13c71c>
    2a2c:	4a010601 	bmi	44238 <__bss_end__+0x392d8>
    2a30:	2f060905 	svccs	0x00060905
    2a34:	01060c05 	tsteq	r6, r5, lsl #24
    2a38:	052e1305 	streq	r1, [lr, #-773]!	; 0xfffffcfb
    2a3c:	0d052e0b 	stceq	14, cr2, [r5, #-44]	; 0xffffffd4
    2a40:	1b054b06 	blne	155660 <__bss_end__+0x14a700>
    2a44:	052e0106 	streq	r0, [lr, #-262]!	; 0xfffffefa
    2a48:	0105300c 	tsteq	r5, ip
    2a4c:	0002022f 	andeq	r0, r2, pc, lsr #4
    2a50:	00b00101 	adcseq	r0, r0, r1, lsl #2
    2a54:	00030000 	andeq	r0, r3, r0
    2a58:	00000094 	muleq	r0, r4, r0
    2a5c:	0efb0102 	cdpeq	1, 15, cr0, cr11, cr2, {0}
    2a60:	0101000d 	tsteq	r1, sp
    2a64:	00000101 	andeq	r0, r0, r1, lsl #2
    2a68:	00000100 	andeq	r0, r0, r0, lsl #2
    2a6c:	732f2e01 			; <UNDEFINED> instruction: 0x732f2e01
    2a70:	66666174 			; <UNDEFINED> instruction: 0x66666174
    2a74:	6372732d 	cmnvs	r2, #-1275068416	; 0xb4000000
    2a78:	73552f00 	cmpvc	r5, #0, 30
    2a7c:	2f737265 	svccs	0x00737265
    2a80:	73697274 	cmnvc	r9, #116, 4	; 0x40000007
    2a84:	6e6e6574 	mcrvs	5, 3, r6, cr14, cr4, {3}
    2a88:	6d6c6c6f 	stclvs	12, cr6, [ip, #-444]!	; 0xfffffe44
    2a8c:	442f6e61 	strtmi	r6, [pc], #-3681	; 2a94 <__code_start__-0x556c>
    2a90:	6d75636f 	ldclvs	3, cr6, [r5, #-444]!	; 0xfffffe44
    2a94:	73746e65 	cmnvc	r4, #1616	; 0x650
    2a98:	7270532f 	rsbsvc	r5, r0, #-1140850688	; 0xbc000000
    2a9c:	5f676e69 	svcpl	0x00676e69
    2aa0:	72617551 	rsbvc	r7, r1, #339738624	; 0x14400000
    2aa4:	5f726574 	svcpl	0x00726574
    2aa8:	32323032 	eorscc	r3, r2, #50, 0	; 0x32
    2aac:	3253432f 	subscc	r4, r3, #-1140850688	; 0xbc000000
    2ab0:	584c3034 	stmdapl	ip, {r2, r4, r5, ip, sp}^
    2ab4:	7270732d 	rsbsvc	r7, r0, #-1275068416	; 0xb4000000
    2ab8:	6c2f3232 	sfmvs	f3, 4, [pc], #-200	; 29f8 <__code_start__-0x5608>
    2abc:	69706269 	ldmdbvs	r0!, {r0, r3, r5, r6, r9, sp, lr}^
    2ac0:	636e692f 	cmnvs	lr, #770048	; 0xbc000
    2ac4:	6564756c 	strbvs	r7, [r4, #-1388]!	; 0xfffffa94
    2ac8:	65640000 	strbvs	r0, [r4, #-0]!
    2acc:	6c756166 	ldfvse	f6, [r5], #-408	; 0xfffffe68
    2ad0:	65722d74 	ldrbvs	r2, [r2, #-3444]!	; 0xfffff28c
    2ad4:	746f6f62 	strbtvc	r6, [pc], #-3938	; 2adc <__code_start__-0x5524>
    2ad8:	6c61632d 	stclvs	3, cr6, [r1], #-180	; 0xffffff4c
    2adc:	74756f6c 	ldrbtvc	r6, [r5], #-3948	; 0xfffff094
    2ae0:	0100632e 	tsteq	r0, lr, lsr #6
    2ae4:	70720000 	rsbsvc	r0, r2, r0
    2ae8:	00682e69 	rsbeq	r2, r8, r9, ror #28
    2aec:	00000002 	andeq	r0, r0, r2
    2af0:	05001b05 	streq	r1, [r0, #-2821]	; 0xfffff4fb
    2af4:	009f3402 	addseq	r3, pc, r2, lsl #8
    2af8:	1c051400 	cfstrsne	mvf1, [r5], {-0}
    2afc:	06010501 	streq	r0, [r1], -r1, lsl #10
    2b00:	00020201 	andeq	r0, r2, r1, lsl #4
    2b04:	01bb0101 			; <UNDEFINED> instruction: 0x01bb0101
    2b08:	00030000 	andeq	r0, r3, r0
    2b0c:	000000bf 	strheq	r0, [r0], -pc	; <UNPREDICTABLE>
    2b10:	0efb0102 	cdpeq	1, 15, cr0, cr11, cr2, {0}
    2b14:	0101000d 	tsteq	r1, sp
    2b18:	00000101 	andeq	r0, r0, r1, lsl #2
    2b1c:	00000100 	andeq	r0, r0, r0, lsl #2
    2b20:	6f682f01 	svcvs	0x00682f01
    2b24:	652f656d 	strvs	r6, [pc, #-1389]!	; 25bf <__code_start__-0x5a41>
    2b28:	656c676e 	strbvs	r6, [ip, #-1902]!	; 0xfffff892
    2b2c:	6c632f72 	stclvs	15, cr2, [r3], #-456	; 0xfffffe38
    2b30:	2f737361 	svccs	0x00737361
    2b34:	34327363 	ldrtcc	r7, [r2], #-867	; 0xfffffc9d
    2b38:	2d786c30 	ldclcs	12, cr6, [r8, #-192]!	; 0xffffff40
    2b3c:	70733232 	rsbsvc	r3, r3, r2, lsr r2
    2b40:	6c2f2f72 	stcvs	15, cr2, [pc], #-456	; 2980 <__code_start__-0x5680>
    2b44:	69706269 	ldmdbvs	r0!, {r0, r3, r5, r6, r9, sp, lr}^
    2b48:	636e692f 	cmnvs	lr, #770048	; 0xbc000
    2b4c:	6564756c 	strbvs	r7, [r4, #-1388]!	; 0xfffffa94
    2b50:	73752f00 	cmnvc	r5, #0, 30
    2b54:	68732f72 	ldmdavs	r3!, {r1, r4, r5, r6, r8, r9, sl, fp, sp}^
    2b58:	2f657261 	svccs	0x00657261
    2b5c:	2d636367 	stclcs	3, cr6, [r3, #-412]!	; 0xfffffe64
    2b60:	2d6d7261 	sfmcs	f7, 2, [sp, #-388]!	; 0xfffffe7c
    2b64:	656e6f6e 	strbvs	r6, [lr, #-3950]!	; 0xfffff092
    2b68:	6261652d 	rsbvs	r6, r1, #188743680	; 0xb400000
    2b6c:	30312d69 	eorscc	r2, r1, r9, ror #26
    2b70:	322d332e 	eorcc	r3, sp, #-1207959552	; 0xb8000000
    2b74:	2e313230 	mrccs	2, 1, r3, cr1, cr0, {1}
    2b78:	6c2f3031 	stcvs	0, cr3, [pc], #-196	; 2abc <__code_start__-0x5544>
    2b7c:	672f6269 	strvs	r6, [pc, -r9, ror #4]!
    2b80:	612f6363 			; <UNDEFINED> instruction: 0x612f6363
    2b84:	6e2d6d72 	mcrvs	13, 1, r6, cr13, cr2, {3}
    2b88:	2d656e6f 	stclcs	14, cr6, [r5, #-444]!	; 0xfffffe44
    2b8c:	69626165 	stmdbvs	r2!, {r0, r2, r5, r6, r8, sp, lr}^
    2b90:	2e30312f 	rsfcssp	f3, f0, #10.0
    2b94:	2f312e33 	svccs	0x00312e33
    2b98:	6c636e69 	stclvs	14, cr6, [r3], #-420	; 0xfffffe5c
    2b9c:	00656475 	rsbeq	r6, r5, r5, ror r4
    2ba0:	69706700 	ldmdbvs	r0!, {r8, r9, sl, sp, lr}^
    2ba4:	00632e6f 	rsbeq	r2, r3, pc, ror #28
    2ba8:	72000000 	andvc	r0, r0, #0, 0
    2bac:	682e6970 	stmdavs	lr!, {r4, r5, r6, r8, fp, sp, lr}
    2bb0:	00000100 	andeq	r0, r0, r0, lsl #2
    2bb4:	69647473 	stmdbvs	r4!, {r0, r1, r4, r5, r6, sl, ip, sp, lr}^
    2bb8:	672d746e 	strvs	r7, [sp, -lr, ror #8]!
    2bbc:	682e6363 	stmdavs	lr!, {r0, r1, r5, r6, r8, r9, sp, lr}
    2bc0:	00000200 	andeq	r0, r0, r0, lsl #4
    2bc4:	6f697067 	svcvs	0x00697067
    2bc8:	0100682e 	tsteq	r0, lr, lsr #16
    2bcc:	05000000 	streq	r0, [r0, #-0]
    2bd0:	02050038 	andeq	r0, r5, #56, 0	; 0x38
    2bd4:	00009f50 	andeq	r9, r0, r0, asr pc
    2bd8:	05012703 	streq	r2, [r1, #-1795]	; 0xfffff8fd
    2bdc:	07051305 	streq	r1, [r5, -r5, lsl #6]
    2be0:	38050106 	stmdacc	r5, {r1, r2, r8}
    2be4:	06050549 	streq	r0, [r5], -r9, asr #10
    2be8:	0607054d 	streq	r0, [r7], -sp, asr #10
    2bec:	06050501 	streq	r0, [r5], -r1, lsl #10
    2bf0:	0618054c 	ldreq	r0, [r8], -ip, asr #10
    2bf4:	ba0e0501 	blt	384000 <__bss_end__+0x3790a0>
    2bf8:	2f060505 	svccs	0x00060505
    2bfc:	01061c05 	tsteq	r6, r5, lsl #24
    2c00:	2e0e052e 	cfsh32cs	mvfx0, mvfx14, #30
    2c04:	30060505 	andcc	r0, r6, r5, lsl #10
    2c08:	01061205 	tsteq	r6, r5, lsl #4
    2c0c:	4b060505 	blmi	184028 <__bss_end__+0x1790c8>
    2c10:	01060705 	tsteq	r6, r5, lsl #14
    2c14:	4b060505 	blmi	184030 <__bss_end__+0x1790d0>
    2c18:	052e0613 	streq	r0, [lr, #-1555]!	; 0xfffff9ed
    2c1c:	24054b01 	strcs	r4, [r5], #-2817	; 0xfffff4ff
    2c20:	01064c06 	tsteq	r6, r6, lsl #24
    2c24:	2f060505 	svccs	0x00060505
    2c28:	4b060105 	blmi	183044 <__bss_end__+0x1780e4>
    2c2c:	31062005 	tstcc	r6, r5
    2c30:	05130505 	ldreq	r0, [r3, #-1285]	; 0xfffffafb
    2c34:	05010607 	streq	r0, [r1, #-1543]	; 0xfffff9f9
    2c38:	05054920 	streq	r4, [r5, #-2336]	; 0xfffff6e0
    2c3c:	66063106 	strvs	r3, [r6], -r6, lsl #2
    2c40:	052f0105 	streq	r0, [pc, #-261]!	; 2b43 <__code_start__-0x54bd>
    2c44:	054d0621 	strbeq	r0, [sp, #-1569]	; 0xfffff9df
    2c48:	07051305 	streq	r1, [r5, -r5, lsl #6]
    2c4c:	21050106 	tstcs	r5, r6, lsl #2
    2c50:	06050549 	streq	r0, [r5], -r9, asr #10
    2c54:	05660631 	strbeq	r0, [r6, #-1585]!	; 0xfffff9cf
    2c58:	23052f01 	movwcs	r2, #24321	; 0x5f01
    2c5c:	01064d06 	tsteq	r6, r6, lsl #26
    2c60:	2f060505 	svccs	0x00060505
    2c64:	4b060105 	blmi	183080 <__bss_end__+0x178120>
    2c68:	31062b05 	tstcc	r6, r5, lsl #22
    2c6c:	05050106 	streq	r0, [r5, #-262]	; 0xfffffefa
    2c70:	07052f06 	streq	r2, [r5, -r6, lsl #30]
    2c74:	09050106 	stmdbeq	r5, {r1, r2, r8}
    2c78:	2e064b06 	vmlacs.f64	d4, d6, d6
    2c7c:	01053006 	tsteq	r5, r6
    2c80:	1d052f06 	stcne	15, cr2, [r5, #-24]	; 0xffffffe8
    2c84:	05053006 	streq	r3, [r5, #-6]
    2c88:	06070513 			; <UNDEFINED> instruction: 0x06070513
    2c8c:	491d0501 	ldmdbmi	sp, {r0, r8, sl}
    2c90:	31060505 	tstcc	r6, r5, lsl #10
    2c94:	060e0513 			; <UNDEFINED> instruction: 0x060e0513
    2c98:	06050501 	streq	r0, [r5], -r1, lsl #10
    2c9c:	0617052f 	ldreq	r0, [r7], -pc, lsr #10
    2ca0:	23054a01 	movwcs	r4, #23041	; 0x5a01
    2ca4:	0502042e 	streq	r0, [r2, #-1070]	; 0xfffffbd2
    2ca8:	dc030630 	stcle	6, cr0, [r3], {48}	; 0x30
    2cac:	01042e00 	tsteq	r4, r0, lsl #28
    2cb0:	03060c05 	movweq	r0, #27653	; 0x6c05
    2cb4:	05017fa4 	streq	r7, [r1, #-4004]	; 0xfffff05c
    2cb8:	10052f01 	andne	r2, r5, r1, lsl #30
    2cbc:	3201052a 	andcc	r0, r1, #176160768	; 0xa800000
    2cc0:	01000402 	tsteq	r0, r2, lsl #8
    2cc4:	Address 0x0000000000002cc4 is out of bounds.


Disassembly of section .debug_str:

00000000 <.debug_str>:
   0:	7473616c 	ldrbtvc	r6, [r3], #-364	; 0xfffffe94
   4:	646f6e5f 	strbtvs	r6, [pc], #-3679	; c <__code_start__-0x7ff4>
   8:	64680065 	strbtvs	r0, [r8], #-101	; 0xffffff9b
   c:	00745f72 	rsbseq	r5, r4, r2, ror pc
  10:	74617473 	strbtvc	r7, [r1], #-1139	; 0xfffffb8d
  14:	65720065 	ldrbvs	r0, [r2, #-101]!	; 0xffffff9b
  18:	6d5f7366 	ldclvs	3, cr7, [pc, #-408]	; fffffe88 <__bss_end__+0xffff4f28>
  1c:	6c646469 	cfstrdvs	mvd6, [r4], #-420	; 0xfffffe5c
  20:	68730065 	ldmdavs	r3!, {r0, r2, r5, r6}^
  24:	2074726f 	rsbscs	r7, r4, pc, ror #4
  28:	00746e69 	rsbseq	r6, r4, r9, ror #28
  2c:	5f697072 	svcpl	0x00697072
  30:	63747570 	cmnvs	r4, #112, 10	; 0x1c000000
  34:	00726168 	rsbseq	r6, r2, r8, ror #2
  38:	6c616b63 			; <UNDEFINED> instruction: 0x6c616b63
  3c:	00636f6c 	rsbeq	r6, r3, ip, ror #30
  40:	656c6966 	strbvs	r6, [ip, #-2406]!	; 0xfffff69a
  44:	54555000 	ldrbpl	r5, [r5], #-0
  48:	75003233 	strvc	r3, [r0, #-563]	; 0xfffffdcd
  4c:	38746e69 	ldmdacc	r4!, {r0, r3, r5, r6, r9, sl, fp, sp, lr}^
  50:	6e00745f 	cfmvsrvs	mvf0, r7
  54:	5f747865 	svcpl	0x00747865
  58:	636f6c62 	cmnvs	pc, #25088	; 0x6200
  5c:	64695f6b 	strbtvs	r5, [r9], #-3947	; 0xfffff095
  60:	6e756600 	cdpvs	6, 7, cr6, cr5, cr0, {0}
  64:	6f6c0063 	svcvs	0x006c0063
  68:	6c20676e 	stcvs	7, cr6, [r0], #-440	; 0xfffffe48
  6c:	20676e6f 	rsbcs	r6, r7, pc, ror #28
  70:	00746e69 	rsbseq	r6, r4, r9, ror #28
  74:	6f6c6c61 	svcvs	0x006c6c61
  78:	696c5f63 	stmdbvs	ip!, {r0, r1, r5, r6, r8, r9, sl, fp, ip, lr}^
  7c:	6d007473 	cfstrsvs	mvf7, [r0, #-460]	; 0xfffffe34
  80:	65736d65 	ldrbvs	r6, [r3, #-3429]!	; 0xfffff29b
  84:	6b630074 	blvs	18c025c <__bss_end__+0x18b52fc>
  88:	0063675f 	rsbeq	r6, r3, pc, asr r7
  8c:	685f6b63 	ldmdavs	pc, {r0, r1, r5, r6, r8, r9, fp, sp, lr}^	; <UNPREDICTABLE>
  90:	5f007264 	svcpl	0x00007264
  94:	4e55465f 	mrcmi	6, 2, r4, cr5, cr15, {2}
  98:	4f495443 	svcmi	0x00495443
  9c:	005f5f4e 	subseq	r5, pc, lr, asr #30
  a0:	6f6c6c61 	svcvs	0x006c6c61
  a4:	6f6c5f63 	svcvs	0x006c5f63
  a8:	6c630063 	stclvs	0, cr0, [r3], #-396	; 0xfffffe74
  ac:	5f6e6165 	svcpl	0x006e6165
  b0:	6f626572 	svcvs	0x00626572
  b4:	6d00746f 	cfstrsvs	mvf7, [r0, #-444]	; 0xfffffe44
  b8:	006b7261 	rsbeq	r7, fp, r1, ror #4
  bc:	765f6b63 	ldrbvc	r6, [pc], -r3, ror #22
  c0:	6f627265 	svcvs	0x00627265
  c4:	705f6573 	subsvc	r6, pc, r3, ror r5	; <UNPREDICTABLE>
  c8:	736e7500 	cmnvc	lr, #0, 10
  cc:	656e6769 	strbvs	r6, [lr, #-1897]!	; 0xfffff897
  d0:	68632064 	stmdavs	r3!, {r2, r5, r6, sp}^
  d4:	72007261 	andvc	r7, r0, #268435462	; 0x10000006
  d8:	5f736665 	svcpl	0x00736665
  dc:	72617473 	rsbvc	r7, r1, #1929379840	; 0x73000000
  e0:	68630074 	stmdavs	r3!, {r2, r4, r5, r6}^
  e4:	5f6b6365 	svcpl	0x006b6365
  e8:	6c5f6f6e 	mrrcvs	15, 6, r6, pc, cr14	; <UNPREDICTABLE>
  ec:	006b6165 	rsbeq	r6, fp, r5, ror #2
  f0:	656e696c 	strbvs	r6, [lr, #-2412]!	; 0xfffff694
  f4:	6c006f6e 	stcvs	15, cr6, [r0], {110}	; 0x6e
  f8:	20676e6f 	rsbcs	r6, r7, pc, ror #28
  fc:	676e6f6c 	strbvs	r6, [lr, -ip, ror #30]!
 100:	736e7520 	cmnvc	lr, #32, 10	; 0x8000000
 104:	656e6769 	strbvs	r6, [lr, #-1897]!	; 0xfffff897
 108:	6e692064 	cdpvs	0, 6, cr2, cr9, cr4, {3}
 10c:	65740074 	ldrbvs	r0, [r4, #-116]!	; 0xffffff8c
 110:	2d737473 	cfldrdcs	mvd7, [r3, #-460]!	; 0xfffffe34
 114:	2f302e33 	svccs	0x00302e33
 118:	74726170 	ldrbtvc	r6, [r2], #-368	; 0xfffffe90
 11c:	65742d32 	ldrbvs	r2, [r4, #-3378]!	; 0xfffff2ce
 120:	2d357473 	cfldrscs	mvf7, [r5, #-460]!	; 0xfffffe34
 124:	632e6367 			; <UNDEFINED> instruction: 0x632e6367
 128:	6e697500 	cdpvs	5, 6, cr7, cr9, cr0, {0}
 12c:	5f323374 	svcpl	0x00323374
 130:	69750074 	ldmdbvs	r5!, {r2, r4, r5, r6}^
 134:	3631746e 	ldrtcc	r7, [r1], -lr, ror #8
 138:	6e00745f 	cfmvsrvs	mvf0, r7
 13c:	616d746f 	cmnvs	sp, pc, ror #8
 140:	73006e69 	movwvc	r6, #3689	; 0xe69
 144:	74726f68 	ldrbtvc	r6, [r2], #-3944	; 0xfffff098
 148:	736e7520 	cmnvc	lr, #32, 10	; 0x8000000
 14c:	656e6769 	strbvs	r6, [lr, #-1897]!	; 0xfffff897
 150:	6e692064 	cdpvs	0, 6, cr2, cr9, cr4, {3}
 154:	656c0074 	strbvs	r0, [ip, #-116]!	; 0xffffff8c
 158:	64656b61 	strbtvs	r6, [r5], #-2913	; 0xfffff49f
 15c:	73552f00 	cmpvc	r5, #0, 30
 160:	2f737265 	svccs	0x00737265
 164:	73697274 	cmnvc	r9, #116, 4	; 0x40000007
 168:	6e6e6574 	mcrvs	5, 3, r6, cr14, cr4, {3}
 16c:	6d6c6c6f 	stclvs	12, cr6, [ip, #-444]!	; 0xfffffe44
 170:	442f6e61 	strtmi	r6, [pc], #-3681	; 178 <__code_start__-0x7e88>
 174:	6d75636f 	ldclvs	3, cr6, [r5, #-444]!	; 0xfffffe44
 178:	73746e65 	cmnvc	r4, #1616	; 0x650
 17c:	7270532f 	rsbsvc	r5, r0, #-1140850688	; 0xbc000000
 180:	5f676e69 	svcpl	0x00676e69
 184:	72617551 	rsbvc	r7, r1, #339738624	; 0x14400000
 188:	5f726574 	svcpl	0x00726574
 18c:	32323032 	eorscc	r3, r2, #50, 0	; 0x32
 190:	3253432f 	subscc	r4, r3, #-1140850688	; 0xbc000000
 194:	584c3034 	stmdapl	ip, {r2, r4, r5, ip, sp}^
 198:	7270732d 	rsbsvc	r7, r0, #-1275068416	; 0xb4000000
 19c:	6c2f3232 	sfmvs	f3, 4, [pc], #-200	; dc <__code_start__-0x7f24>
 1a0:	2f736261 	svccs	0x00736261
 1a4:	616d2d35 	cmnvs	sp, r5, lsr sp
 1a8:	636f6c6c 	cmnvs	pc, #108, 24	; 0x6c00
 1ac:	2f63672b 	svccs	0x0063672b
 1b0:	65646f63 	strbvs	r6, [r4, #-3939]!	; 0xfffff09d
 1b4:	65686300 	strbvs	r6, [r8, #-768]!	; 0xfffffd00
 1b8:	735f6b63 	cmpvc	pc, #101376	; 0x18c00
 1bc:	6c756f68 	ldclvs	15, cr6, [r5], #-416	; 0xfffffe60
 1c0:	656c5f64 	strbvs	r5, [ip, #-3940]!	; 0xfffff09c
 1c4:	47006b61 	strmi	r6, [r0, -r1, ror #22]
 1c8:	4320554e 			; <UNDEFINED> instruction: 0x4320554e
 1cc:	39203939 	stmdbcc	r0!, {r0, r3, r4, r5, r8, fp, ip, sp}
 1d0:	312e322e 			; <UNDEFINED> instruction: 0x312e322e
 1d4:	31303220 	teqcc	r0, r0, lsr #4
 1d8:	32303139 	eorscc	r3, r0, #1073741838	; 0x4000000e
 1dc:	72282035 	eorvc	r2, r8, #53, 0	; 0x35
 1e0:	61656c65 	cmnvs	r5, r5, ror #24
 1e4:	20296573 	eorcs	r6, r9, r3, ror r5
 1e8:	4d52415b 	ldfmie	f4, [r2, #-364]	; 0xfffffe94
 1ec:	6d72612f 	ldfvse	f6, [r2, #-188]!	; 0xffffff44
 1f0:	622d392d 	eorvs	r3, sp, #737280	; 0xb4000
 1f4:	636e6172 	cmnvs	lr, #-2147483620	; 0x8000001c
 1f8:	65722068 	ldrbvs	r2, [r2, #-104]!	; 0xffffff98
 1fc:	69736976 	ldmdbvs	r3!, {r1, r2, r4, r5, r6, r8, fp, sp, lr}^
 200:	32206e6f 	eorcc	r6, r0, #1776	; 0x6f0
 204:	39353737 	ldmdbcc	r5!, {r0, r1, r2, r4, r5, r8, r9, sl, ip, sp}
 208:	2d205d39 	stccs	13, cr5, [r0, #-228]!	; 0xffffff1c
 20c:	7570636d 	ldrbvc	r6, [r0, #-877]!	; 0xfffffc93
 210:	6d72613d 	ldfvse	f6, [r2, #-244]!	; 0xffffff0c
 214:	36373131 			; <UNDEFINED> instruction: 0x36373131
 218:	2d667a6a 	vstmdbcs	r6!, {s15-s120}
 21c:	6d2d2073 	stcvs	0, cr2, [sp, #-460]!	; 0xfffffe34
 220:	656e7574 	strbvs	r7, [lr, #-1396]!	; 0xfffffa8c
 224:	6d72613d 	ldfvse	f6, [r2, #-244]!	; 0xffffff0c
 228:	36373131 			; <UNDEFINED> instruction: 0x36373131
 22c:	2d667a6a 	vstmdbcs	r6!, {s15-s120}
 230:	6d2d2073 	stcvs	0, cr2, [sp, #-460]!	; 0xfffffe34
 234:	616f6c66 	cmnvs	pc, r6, ror #24
 238:	62612d74 	rsbvs	r2, r1, #116, 26	; 0x1d00
 23c:	6f733d69 	svcvs	0x00733d69
 240:	2d207466 	cfstrscs	mvf7, [r0, #-408]!	; 0xfffffe68
 244:	6d72616d 	ldfvse	f6, [r2, #-436]!	; 0xfffffe4c
 248:	616d2d20 	cmnvs	sp, r0, lsr #26
 24c:	3d686372 	stclcc	3, cr6, [r8, #-456]!	; 0xfffffe38
 250:	766d7261 	strbtvc	r7, [sp], -r1, ror #4
 254:	207a6b36 	rsbscs	r6, sl, r6, lsr fp
 258:	6467672d 	strbtvs	r6, [r7], #-1837	; 0xfffff8d3
 25c:	4f2d2062 	svcmi	0x002d2062
 260:	732d2067 			; <UNDEFINED> instruction: 0x732d2067
 264:	673d6474 			; <UNDEFINED> instruction: 0x673d6474
 268:	3939756e 	ldmdbcc	r9!, {r1, r2, r3, r5, r6, r8, sl, ip, sp, lr}
 26c:	66662d20 	strbtvs	r2, [r6], -r0, lsr #26
 270:	73656572 	cmnvc	r5, #478150656	; 0x1c800000
 274:	646e6174 	strbtvs	r6, [lr], #-372	; 0xfffffe8c
 278:	00676e69 	rsbeq	r6, r7, r9, ror #28
 27c:	74736574 	ldrbtvc	r6, [r3], #-1396	; 0xfffffa8c
 280:	79626e00 	stmdbvc	r2!, {r9, sl, fp, sp, lr}^
 284:	5f736574 	svcpl	0x00736574
 288:	6f6c6c61 	svcvs	0x006c6c61
 28c:	72700063 	rsbsvc	r0, r0, #99, 0	; 0x63
 290:	73007665 	movwvc	r7, #1637	; 0x665
 294:	6c5f6372 	mrrcvs	3, 7, r6, pc, cr2	; <UNPREDICTABLE>
 298:	6d5f636f 	ldclvs	3, cr6, [pc, #-444]	; e4 <__code_start__-0x7f1c>
 29c:	656e006b 	strbvs	r0, [lr, #-107]!	; 0xffffff95
 2a0:	73007478 	movwvc	r7, #1144	; 0x478
 2a4:	6c5f6372 	mrrcvs	3, 7, r6, pc, cr2	; <UNPREDICTABLE>
 2a8:	745f636f 	ldrbvc	r6, [pc], #-879	; 2b0 <__code_start__-0x7d50>
 2ac:	5f6b6300 	svcpl	0x006b6300
 2b0:	5f727470 	svcpl	0x00727470
 2b4:	625f6e69 	subsvs	r6, pc, #1680	; 0x690
 2b8:	6b636f6c 	blvs	18dc070 <__bss_end__+0x18d1110>
 2bc:	65727000 	ldrbvs	r7, [r2, #-0]!
 2c0:	616c5f76 	smcvs	50678	; 0xc5f6
 2c4:	63007473 	movwvs	r7, #1139	; 0x473
 2c8:	65675f6b 	strbvs	r5, [r7, #-3947]!	; 0xfffff095
 2cc:	7a725f74 	bvc	1c980a4 <__bss_end__+0x1c8d144>
 2d0:	52460032 	subpl	r0, r6, #50, 0	; 0x32
 2d4:	00444545 	subeq	r4, r4, r5, asr #10
 2d8:	544e4553 	strbpl	r4, [lr], #-1363	; 0xfffffaad
 2dc:	4c414e49 	mcrrmi	14, 4, r4, r1, cr9
 2e0:	73696c00 	cmnvc	r9, #0, 24
 2e4:	70615f74 	rsbvc	r5, r1, r4, ror pc
 2e8:	646e6570 	strbtvs	r6, [lr], #-1392	; 0xfffffa90
 2ec:	6d656d00 	stclvs	13, cr6, [r5, #-0]
 2f0:	00797063 	rsbseq	r7, r9, r3, rrx
 2f4:	5a444552 	bpl	1111844 <__bss_end__+0x11068e4>
 2f8:	5f454e4f 	svcpl	0x00454e4f
 2fc:	004c4156 	subeq	r4, ip, r6, asr r1
 300:	5a444552 	bpl	1111850 <__bss_end__+0x11068f0>
 304:	5f454e4f 	svcpl	0x00454e4f
 308:	5459424e 	ldrbpl	r4, [r9], #-590	; 0xfffffdb2
 30c:	63005345 	movwvs	r5, #837	; 0x345
 310:	69665f6b 	stmdbvs	r6!, {r0, r1, r3, r5, r6, r8, r9, sl, fp, ip, lr}^
 314:	5f747372 	svcpl	0x00747372
 318:	00726468 	rsbseq	r6, r2, r8, ror #8
 31c:	72666b63 	rsbvc	r6, r6, #101376	; 0x18c00
 320:	63006565 	movwvs	r6, #1381	; 0x565
 324:	68635f6b 	stmdavs	r3!, {r0, r1, r3, r5, r6, r8, r9, sl, fp, ip, lr}^
 328:	5f6b6365 	svcpl	0x006b6365
 32c:	74616475 	strbtvc	r6, [r1], #-1141	; 0xfffffb8b
 330:	72650061 	rsbvc	r0, r5, #97, 0	; 0x61
 334:	72007372 	andvc	r7, r0, #-939524095	; 0xc8000001
 338:	725f317a 	subsvc	r3, pc, #-2147483618	; 0x8000001e
 33c:	63007365 	movwvs	r7, #869	; 0x365
 340:	74705f6b 	ldrbtvc	r5, [r0], #-3947	; 0xfffff095
 344:	73695f72 	cmnvc	r9, #456	; 0x1c8
 348:	6c6c615f 	stfvse	f6, [ip], #-380	; 0xfffffe84
 34c:	6465636f 	strbtvs	r6, [r5], #-879	; 0xfffffc91
 350:	5f6b6300 	svcpl	0x006b6300
 354:	7478656e 	ldrbtvc	r6, [r8], #-1390	; 0xfffffa92
 358:	7264685f 	rsbvc	r6, r4, #6225920	; 0x5f0000
 35c:	72756300 	rsbsvc	r6, r5, #0, 6
 360:	656d0072 	strbvs	r0, [sp, #-114]!	; 0xffffff8e
 364:	706d636d 	rsbvc	r6, sp, sp, ror #6
 368:	616b6300 	cmnvs	fp, r0, lsl #6
 36c:	636f6c6c 	cmnvs	pc, #108, 24	; 0x6c00
 370:	7300632e 	movwvc	r6, #814	; 0x32e
 374:	69746e65 	ldmdbvs	r4!, {r0, r2, r5, r6, r9, sl, fp, sp, lr}^
 378:	5f6c616e 	svcpl	0x006c616e
 37c:	00667562 	rsbeq	r7, r6, r2, ror #10
 380:	746e6573 	strbtvc	r6, [lr], #-1395	; 0xfffffa8d
 384:	6c616e69 	stclvs	14, cr6, [r1], #-420	; 0xfffffe5c
 388:	756f6400 	strbvc	r6, [pc, #-1024]!	; ffffff90 <__bss_end__+0xffff5030>
 38c:	00656c62 	rsbeq	r6, r5, r2, ror #24
 390:	705f6b63 	subsvc	r6, pc, r3, ror #22
 394:	745f7274 	ldrbvc	r7, [pc], #-628	; 39c <__code_start__-0x7c64>
 398:	64685f6f 	strbtvs	r5, [r8], #-3951	; 0xfffff091
 39c:	4c410072 	mcrrmi	0, 7, r0, r1, cr2
 3a0:	45434f4c 	strbmi	r4, [r3, #-3916]	; 0xfffff0b4
 3a4:	6b630044 	blvs	18c04bc <__bss_end__+0x18b555c>
 3a8:	7264685f 	rsbvc	r6, r4, #6225920	; 0x5f0000
 3ac:	6174735f 	cmnvs	r4, pc, asr r3
 3b0:	63007472 	movwvs	r7, #1138	; 0x472
 3b4:	65685f6b 	strbvs	r5, [r8, #-3947]!	; 0xfffff095
 3b8:	655f7061 	ldrbvs	r7, [pc, #-97]	; 35f <__code_start__-0x7ca1>
 3bc:	726f7272 	rsbvc	r7, pc, #536870919	; 0x20000007
 3c0:	6b630073 	blvs	18c0594 <__bss_end__+0x18b5634>
 3c4:	7264685f 	rsbvc	r6, r4, #6225920	; 0x5f0000
 3c8:	646e655f 	strbtvs	r6, [lr], #-1375	; 0xfffffaa1
 3cc:	327a7200 	rsbscc	r7, sl, #0, 4
 3d0:	7365725f 	cmnvc	r5, #-268435451	; 0xf0000005
 3d4:	5f6b6300 	svcpl	0x006b6300
 3d8:	7479626e 	ldrbtvc	r6, [r9], #-622	; 0xfffffd92
 3dc:	6b007365 	blvs	1d178 <__bss_end__+0x12218>
 3e0:	616d5f72 	smcvs	54770	; 0xd5f2
 3e4:	636f6c6c 	cmnvs	pc, #108, 24	; 0x6c00
 3e8:	5f6b6300 	svcpl	0x006b6300
 3ec:	63656863 	cmnvs	r5, #6488064	; 0x630000
 3f0:	65725f6b 	ldrbvs	r5, [r2, #-3947]!	; 0xfffff095
 3f4:	6e6f7a64 	vnmulvs.f32	s15, s30, s9
 3f8:	73007365 	movwvc	r7, #869	; 0x365
 3fc:	6b636174 	blvs	18d89d4 <__bss_end__+0x18cda74>
 400:	706f745f 	rsbvc	r7, pc, pc, asr r4	; <UNPREDICTABLE>
 404:	6f6c6200 	svcvs	0x006c6200
 408:	735f6b63 	cmpvc	pc, #101376	; 0x18c00
 40c:	74726174 	ldrbtvc	r6, [r2], #-372	; 0xfffffe8c
 410:	5f6f6e00 	svcpl	0x006f6e00
 414:	72617473 	rsbvc	r7, r1, #1929379840	; 0x73000000
 418:	616d0074 	smcvs	53252	; 0xd004
 41c:	615f6b72 	cmpvs	pc, r2, ror fp	; <UNPREDICTABLE>
 420:	69006c6c 	stmdbvs	r0, {r2, r3, r5, r6, sl, fp, sp, lr}
 424:	656c706d 	strbvs	r7, [ip, #-109]!	; 0xffffff93
 428:	746e656d 	strbtvc	r6, [lr], #-1389	; 0xfffffa93
 42c:	6968745f 	stmdbvs	r8!, {r0, r1, r2, r3, r4, r6, sl, ip, sp, lr}^
 430:	5f5f0073 	svcpl	0x005f0073
 434:	5f737362 	svcpl	0x00737362
 438:	72617473 	rsbvc	r7, r1, #1929379840	; 0x73000000
 43c:	005f5f74 	subseq	r5, pc, r4, ror pc	; <UNPREDICTABLE>
 440:	5f6d756e 	svcpl	0x006d756e
 444:	64726f77 	ldrbtvs	r6, [r2], #-3959	; 0xfffff089
 448:	626e0073 	rsbvs	r0, lr, #115, 0	; 0x73
 44c:	6b636f6c 	blvs	18dc204 <__bss_end__+0x18d12a4>
 450:	6e690073 	mcrvs	0, 3, r0, cr9, cr3, {3}
 454:	705f7469 	subsvc	r7, pc, r9, ror #8
 458:	79626e00 	stmdbvc	r2!, {r9, sl, fp, sp, lr}^
 45c:	5f736574 	svcpl	0x00736574
 460:	65657266 	strbvs	r7, [r5, #-614]!	; 0xfffffd9a
 464:	6e690064 	cdpvs	0, 6, cr0, cr9, cr4, {3}
 468:	6d657263 	sfmvs	f7, 2, [r5, #-396]!	; 0xfffffe74
 46c:	00746e65 	rsbseq	r6, r4, r5, ror #28
 470:	6279616d 	rsbsvs	r6, r9, #1073741851	; 0x4000001b
 474:	72655f65 	rsbvc	r5, r5, #404	; 0x194
 478:	73726f72 	cmnvc	r2, #456	; 0x1c8
 47c:	6d756400 	cfldrdvs	mvd6, [r5, #-0]
 480:	65725f70 	ldrbvs	r5, [r2, #-3952]!	; 0xfffff090
 484:	6e007367 	cdpvs	3, 0, cr7, cr0, cr7, {3}
 488:	6b61656c 	blvs	1859a40 <__bss_end__+0x184eae0>
 48c:	5f5f0073 	svcpl	0x005f0073
 490:	61746164 	cmnvs	r4, r4, ror #2
 494:	646e655f 	strbtvs	r6, [lr], #-1375	; 0xfffffaa1
 498:	63005f5f 	movwvs	r5, #3935	; 0xf5f
 49c:	69665f6b 	stmdbvs	r6!, {r0, r1, r3, r5, r6, r8, r9, sl, fp, ip, lr}^
 4a0:	6c5f646e 	cfldrdvs	mvd6, [pc], {110}	; 0x6e
 4a4:	736b6165 	cmnvc	fp, #1073741849	; 0x40000019
 4a8:	72627300 	rsbvc	r7, r2, #0, 6
 4ac:	7369006b 	cmnvc	r9, #107, 0	; 0x6b
 4b0:	7274705f 	rsbsvc	r7, r4, #95, 0	; 0x5f
 4b4:	72666e00 	rsbvc	r6, r6, #0, 28
 4b8:	00646565 	rsbeq	r6, r4, r5, ror #10
 4bc:	72727563 	rsbsvc	r7, r2, #415236096	; 0x18c00000
 4c0:	726f775f 	rsbvc	r7, pc, #24903680	; 0x17c0000
 4c4:	6c620064 	stclvs	0, cr0, [r2], #-400	; 0xfffffe70
 4c8:	5f6b636f 	svcpl	0x006b636f
 4cc:	00646e65 	rsbeq	r6, r4, r5, ror #28
 4d0:	685f6e69 	ldmdavs	pc, {r0, r3, r5, r6, r9, sl, fp, sp, lr}^	; <UNPREDICTABLE>
 4d4:	00706165 	rsbseq	r6, r0, r5, ror #2
 4d8:	6d656e6f 	stclvs	14, cr6, [r5, #-444]!	; 0xfffffe44
 4dc:	6b630062 	blvs	18c066c <__bss_end__+0x18b570c>
 4e0:	2e63672d 	cdpcs	7, 6, cr6, cr3, cr13, {1}
 4e4:	5f5f0063 	svcpl	0x005f0063
 4e8:	5f737362 	svcpl	0x00737362
 4ec:	5f646e65 	svcpl	0x00646e65
 4f0:	6d6b005f 	stclvs	0, cr0, [fp, #-380]!	; 0xfffffe84
 4f4:	6f6c6c61 	svcvs	0x006c6c61
 4f8:	6d6b0063 	stclvs	0, cr0, [fp, #-396]!	; 0xfffffe74
 4fc:	6f6c6c61 	svcvs	0x006c6c61
 500:	6e695f63 	cdpvs	15, 6, cr5, cr9, cr3, {3}
 504:	735f7469 	cmpvc	pc, #1761607680	; 0x69000000
 508:	735f7465 	cmpvc	pc, #1694498816	; 0x65000000
 50c:	74726174 	ldrbtvc	r6, [r2], #-372	; 0xfffffe8c
 510:	65777300 	ldrbvs	r7, [r7, #-768]!	; 0xfffffd00
 514:	6c5f7065 	mrrcvs	0, 6, r7, pc, cr5	; <UNPREDICTABLE>
 518:	006b6165 	rsbeq	r6, fp, r5, ror #2
 51c:	61645f5f 	cmnvs	r4, pc, asr pc
 520:	735f6174 	cmpvc	pc, #29
 524:	74726174 	ldrbtvc	r6, [r2], #-372	; 0xfffffe8c
 528:	73005f5f 	movwvc	r5, #3935	; 0xf5f
 52c:	70656577 	rsbvc	r6, r5, r7, ror r5
 530:	6572665f 	ldrbvs	r6, [r2, #-1631]!	; 0xfffff9a1
 534:	61770065 	cmnvs	r7, r5, rrx
 538:	6e5f6e72 	mrcvs	14, 2, r6, cr15, cr2, {3}
 53c:	74735f6f 	ldrbtvc	r5, [r3], #-3951	; 0xfffff091
 540:	5f747261 	svcpl	0x00747261
 544:	5f666572 	svcpl	0x00666572
 548:	65680070 	strbvs	r0, [r8, #-112]!	; 0xffffff90
 54c:	72656461 	rsbvc	r6, r5, #1627389952	; 0x61000000
 550:	65727000 	ldrbvs	r7, [r2, #-0]!
 554:	61007076 	tstvs	r0, r6, ror r0
 558:	6e67696c 	vnmulvs.f16	s13, s14, s25	; <UNPREDICTABLE>
 55c:	5f726b00 	svcpl	0x00726b00
 560:	65657266 	strbvs	r7, [r5, #-614]!	; 0xfffffd9a
 564:	65726600 	ldrbvs	r6, [r2, #-1536]!	; 0xfffffa00
 568:	6e007065 	cdpvs	0, 0, cr7, cr0, cr5, {3}
 56c:	74696e75 	strbtvc	r6, [r9], #-3701	; 0xfffff18b
 570:	726b0073 	rsbvc	r0, fp, #115, 0	; 0x73
 574:	6c616d2d 	stclvs	13, cr6, [r1], #-180	; 0xffffff4c
 578:	2e636f6c 	cdpcs	15, 6, cr6, cr3, cr12, {3}
 57c:	61620063 	cmnvs	r2, r3, rrx
 580:	6b006573 	blvs	19b54 <__bss_end__+0xebf4>
 584:	6f6d5f72 	svcvs	0x006d5f72
 588:	6f636572 	svcvs	0x00636572
 58c:	73006572 	movwvc	r6, #1394	; 0x572
 590:	00657a69 	rsbeq	r7, r5, r9, ror #20
 594:	64616548 	strbtvs	r6, [r1], #-1352	; 0xfffffab8
 598:	47007265 	strmi	r7, [r0, -r5, ror #4]
 59c:	4320554e 			; <UNDEFINED> instruction: 0x4320554e
 5a0:	39203939 	stmdbcc	r0!, {r0, r3, r4, r5, r8, fp, ip, sp}
 5a4:	312e322e 			; <UNDEFINED> instruction: 0x312e322e
 5a8:	31303220 	teqcc	r0, r0, lsr #4
 5ac:	32303139 	eorscc	r3, r0, #1073741838	; 0x4000000e
 5b0:	72282035 	eorvc	r2, r8, #53, 0	; 0x35
 5b4:	61656c65 	cmnvs	r5, r5, ror #24
 5b8:	20296573 	eorcs	r6, r9, r3, ror r5
 5bc:	4d52415b 	ldfmie	f4, [r2, #-364]	; 0xfffffe94
 5c0:	6d72612f 	ldfvse	f6, [r2, #-188]!	; 0xffffff44
 5c4:	622d392d 	eorvs	r3, sp, #737280	; 0xb4000
 5c8:	636e6172 	cmnvs	lr, #-2147483620	; 0x8000001c
 5cc:	65722068 	ldrbvs	r2, [r2, #-104]!	; 0xffffff98
 5d0:	69736976 	ldmdbvs	r3!, {r1, r2, r4, r5, r6, r8, fp, sp, lr}^
 5d4:	32206e6f 	eorcc	r6, r0, #1776	; 0x6f0
 5d8:	39353737 	ldmdbcc	r5!, {r0, r1, r2, r4, r5, r8, r9, sl, ip, sp}
 5dc:	2d205d39 	stccs	13, cr5, [r0, #-228]!	; 0xffffff1c
 5e0:	7570636d 	ldrbvc	r6, [r0, #-877]!	; 0xfffffc93
 5e4:	6d72613d 	ldfvse	f6, [r2, #-244]!	; 0xffffff0c
 5e8:	36373131 			; <UNDEFINED> instruction: 0x36373131
 5ec:	2d667a6a 	vstmdbcs	r6!, {s15-s120}
 5f0:	6d2d2073 	stcvs	0, cr2, [sp, #-460]!	; 0xfffffe34
 5f4:	656e7574 	strbvs	r7, [lr, #-1396]!	; 0xfffffa8c
 5f8:	6d72613d 	ldfvse	f6, [r2, #-244]!	; 0xffffff0c
 5fc:	36373131 			; <UNDEFINED> instruction: 0x36373131
 600:	2d667a6a 	vstmdbcs	r6!, {s15-s120}
 604:	6d2d2073 	stcvs	0, cr2, [sp, #-460]!	; 0xfffffe34
 608:	616f6c66 	cmnvs	pc, r6, ror #24
 60c:	62612d74 	rsbvs	r2, r1, #116, 26	; 0x1d00
 610:	6f733d69 	svcvs	0x00733d69
 614:	2d207466 	cfstrscs	mvf7, [r0, #-408]!	; 0xfffffe68
 618:	6d72616d 	ldfvse	f6, [r2, #-436]!	; 0xfffffe4c
 61c:	616d2d20 	cmnvs	sp, r0, lsr #26
 620:	3d686372 	stclcc	3, cr6, [r8, #-456]!	; 0xfffffe38
 624:	766d7261 	strbtvc	r7, [sp], -r1, ror #4
 628:	207a6b36 	rsbscs	r6, sl, r6, lsr fp
 62c:	6467672d 	strbtvs	r6, [r7], #-1837	; 0xfffff8d3
 630:	672d2062 	strvs	r2, [sp, -r2, rrx]!
 634:	20626467 	rsbcs	r6, r2, r7, ror #8
 638:	20674f2d 	rsbcs	r4, r7, sp, lsr #30
 63c:	20674f2d 	rsbcs	r4, r7, sp, lsr #30
 640:	6474732d 	ldrbtvs	r7, [r4], #-813	; 0xfffffcd3
 644:	756e673d 	strbvc	r6, [lr, #-1853]!	; 0xfffff8c3
 648:	2d203939 			; <UNDEFINED> instruction: 0x2d203939
 64c:	3d647473 	cfstrdcc	mvd7, [r4, #-460]!	; 0xfffffe34
 650:	39756e67 	ldmdbcc	r5!, {r0, r1, r2, r5, r6, r9, sl, fp, sp, lr}^
 654:	662d2039 			; <UNDEFINED> instruction: 0x662d2039
 658:	65657266 	strbvs	r7, [r5, #-614]!	; 0xfffffd9a
 65c:	6e617473 	mcrvs	4, 3, r7, cr1, cr3, {3}
 660:	676e6964 	strbvs	r6, [lr, -r4, ror #18]!
 664:	7a697300 	bvc	1a5d26c <__bss_end__+0x1a5230c>
 668:	00745f65 	rsbseq	r5, r4, r5, ror #30
 66c:	6573552f 	ldrbvs	r5, [r3, #-1327]!	; 0xfffffad1
 670:	742f7372 	strtvc	r7, [pc], #-882	; 678 <__code_start__-0x7988>
 674:	74736972 	ldrbtvc	r6, [r3], #-2418	; 0xfffff68e
 678:	6f6e6e65 	svcvs	0x006e6e65
 67c:	616d6c6c 	cmnvs	sp, ip, ror #24
 680:	6f442f6e 	svcvs	0x00442f6e
 684:	656d7563 	strbvs	r7, [sp, #-1379]!	; 0xfffffa9d
 688:	2f73746e 	svccs	0x0073746e
 68c:	69727053 	ldmdbvs	r2!, {r0, r1, r4, r6, ip, sp, lr}^
 690:	515f676e 	cmppl	pc, lr, ror #14
 694:	74726175 	ldrbtvc	r6, [r2], #-373	; 0xfffffe8b
 698:	325f7265 	subscc	r7, pc, #1342177286	; 0x50000006
 69c:	2f323230 	svccs	0x00323230
 6a0:	34325343 	ldrtcc	r5, [r2], #-835	; 0xfffffcbd
 6a4:	2d584c30 	ldclcs	12, cr4, [r8, #-192]	; 0xffffff40
 6a8:	32727073 	rsbscc	r7, r2, #115, 0	; 0x73
 6ac:	696c2f32 	stmdbvs	ip!, {r1, r4, r5, r8, r9, sl, fp, sp}^
 6b0:	00697062 	rsbeq	r7, r9, r2, rrx
 6b4:	696c2f2e 	stmdbvs	ip!, {r1, r2, r3, r5, r8, r9, sl, fp, sp}^
 6b8:	6d2f6362 	stcvs	3, cr6, [pc, #-392]!	; 538 <__code_start__-0x7ac8>
 6bc:	6d636d65 	stclvs	13, cr6, [r3, #-404]!	; 0xfffffe6c
 6c0:	00632e70 	rsbeq	r2, r3, r0, ror lr
 6c4:	696c2f2e 	stmdbvs	ip!, {r1, r2, r3, r5, r8, r9, sl, fp, sp}^
 6c8:	6d2f6362 	stcvs	3, cr6, [pc, #-392]!	; 548 <__code_start__-0x7ab8>
 6cc:	70636d65 	rsbvc	r6, r3, r5, ror #26
 6d0:	00632e79 	rsbeq	r2, r3, r9, ror lr
 6d4:	696c2f2e 	stmdbvs	ip!, {r1, r2, r3, r5, r8, r9, sl, fp, sp}^
 6d8:	6d2f6362 	stcvs	3, cr6, [pc, #-392]!	; 558 <__code_start__-0x7aa8>
 6dc:	65736d65 	ldrbvs	r6, [r3, #-3429]!	; 0xfffff29b
 6e0:	00632e74 	rsbeq	r2, r3, r4, ror lr
 6e4:	73677261 	cmnvc	r7, #268435462	; 0x10000006
 6e8:	5f617600 	svcpl	0x00617600
 6ec:	6e697270 	mcrvs	2, 3, r7, cr9, cr0, {3}
 6f0:	5f006b74 	svcpl	0x00006b74
 6f4:	756e675f 	strbvc	r6, [lr, #-1887]!	; 0xfffff8a1
 6f8:	61765f63 	cmnvs	r6, r3, ror #30
 6fc:	73696c5f 	cmnvc	r9, #24320	; 0x5f00
 700:	5f5f0074 	svcpl	0x005f0074
 704:	6c5f6176 	ldfvse	f6, [pc], {118}	; 0x76
 708:	00747369 	rsbseq	r7, r4, r9, ror #6
 70c:	70615f5f 	rsbvc	r5, r1, pc, asr pc
 710:	6c2f2e00 	stcvs	14, cr2, [pc], #-0	; 718 <__code_start__-0x78e8>
 714:	2f636269 	svccs	0x00636269
 718:	6e697270 	mcrvs	2, 3, r7, cr9, cr0, {3}
 71c:	632e6b74 			; <UNDEFINED> instruction: 0x632e6b74
 720:	746e6900 	strbtvc	r6, [lr], #-2304	; 0xfffff700
 724:	616e7265 	cmnvs	lr, r5, ror #4
 728:	75705f6c 	ldrbvc	r5, [r0, #-3948]!	; 0xfffff094
 72c:	2e006b74 	vmovcs.16	d0[1], r6
 730:	62696c2f 	rsbvs	r6, r9, #12032	; 0x2f00
 734:	75702f63 	ldrbvc	r2, [r0, #-3939]!	; 0xfffff09d
 738:	632e6b74 			; <UNDEFINED> instruction: 0x632e6b74
 73c:	64736900 	ldrbtvs	r6, [r3], #-2304	; 0xfffff700
 740:	74696769 	strbtvc	r6, [r9], #-1897	; 0xfffff897
 744:	6e697500 	cdpvs	5, 6, cr7, cr9, cr0, {0}
 748:	5f343674 	svcpl	0x00343674
 74c:	2f2e0074 	svccs	0x002e0074
 750:	6362696c 	cmnvs	r2, #108, 18	; 0x1b0000
 754:	2d61762f 	stclcs	6, cr7, [r1, #-188]!	; 0xffffff44
 758:	6e697270 	mcrvs	2, 3, r7, cr9, cr0, {3}
 75c:	632e6b74 			; <UNDEFINED> instruction: 0x632e6b74
 760:	635f5f00 	cmpvs	pc, #0, 30
 764:	5f65646f 	svcpl	0x0065646f
 768:	72617473 	rsbvc	r7, r1, #1929379840	; 0x73000000
 76c:	005f5f74 	subseq	r5, pc, r4, ror pc	; <UNPREDICTABLE>
 770:	74646977 	strbtvc	r6, [r4], #-2423	; 0xfffff689
 774:	75700068 	ldrbvc	r0, [r0, #-104]!	; 0xffffff98
 778:	665f6374 			; <UNDEFINED> instruction: 0x665f6374
 77c:	5f5f0070 	svcpl	0x005f0070
 780:	70616568 	rsbvc	r6, r1, r8, ror #10
 784:	6174735f 	cmnvs	r4, pc, asr r3
 788:	5f5f7472 	svcpl	0x005f7472
 78c:	69707200 	ldmdbvs	r0!, {r9, ip, sp, lr}^
 790:	7465735f 	strbtvc	r7, [r5], #-863	; 0xfffffca1
 794:	74756f5f 	ldrbtvc	r6, [r5], #-3935	; 0xfffff0a1
 798:	00747570 	rsbseq	r7, r4, r0, ror r5
 79c:	5f746d66 	svcpl	0x00746d66
 7a0:	72617473 	rsbvc	r7, r1, #1929379840	; 0x73000000
 7a4:	74730074 	ldrbtvc	r0, [r3], #-116	; 0xffffff8c
 7a8:	79706372 	ldmdbvc	r0!, {r1, r4, r5, r6, r8, r9, sp, lr}^
 7ac:	67656e00 	strbvs	r6, [r5, -r0, lsl #28]!
 7b0:	5f00705f 	svcpl	0x0000705f
 7b4:	646f635f 	strbtvs	r6, [pc], #-863	; 7bc <__code_start__-0x7844>
 7b8:	6e655f65 	cdpvs	15, 6, cr5, cr5, cr5, {3}
 7bc:	005f5f64 	subseq	r5, pc, r4, ror #30
 7c0:	74696d65 	strbtvc	r6, [r9], #-3429	; 0xfffff29b
 7c4:	74757000 	ldrbtvc	r7, [r5], #-0
 7c8:	70665f73 	rsbvc	r5, r6, r3, ror pc
 7cc:	76657200 	strbtvc	r7, [r5], -r0, lsl #4
 7d0:	65737265 	ldrbvs	r7, [r3, #-613]!	; 0xfffffd9b
 7d4:	72747300 	rsbsvc	r7, r4, #0, 6
 7d8:	00746163 	rsbseq	r6, r4, r3, ror #2
 7dc:	63727473 	cmnvs	r2, #1929379840	; 0x73000000
 7e0:	5f00706d 	svcpl	0x0000706d
 7e4:	6f72705f 	svcvs	0x0072705f
 7e8:	6e655f67 	cdpvs	15, 6, cr5, cr5, cr7, {3}
 7ec:	005f5f64 	subseq	r5, pc, r4, ror #30
 7f0:	316d756e 	cmncc	sp, lr, ror #10
 7f4:	72747300 	rsbsvc	r7, r4, #0, 6
 7f8:	706d636e 	rsbvc	r6, sp, lr, ror #6
 7fc:	67697300 	strbvs	r7, [r9, -r0, lsl #6]!
 800:	5f64656e 	svcpl	0x0064656e
 804:	70720070 	rsbsvc	r0, r2, r0, ror r0
 808:	65725f69 	ldrbvs	r5, [r2, #-3945]!	; 0xfffff097
 80c:	746f6f62 	strbtvc	r6, [pc], #-3938	; 814 <__code_start__-0x77ec>
 810:	6c656400 	cfstrdvs	mvd6, [r5], #-0
 814:	6d5f7961 	vldrvs.16	s15, [pc, #-194]	; 75a <__code_start__-0x78a6>	; <UNPREDICTABLE>
 818:	2f2e0073 	svccs	0x002e0073
 81c:	66617473 			; <UNDEFINED> instruction: 0x66617473
 820:	72732d66 	rsbsvc	r2, r3, #6528	; 0x1980
 824:	6c632f63 	stclvs	15, cr2, [r3], #-396	; 0xfffffe74
 828:	2d6e6165 	stfcse	f6, [lr, #-404]!	; 0xfffffe6c
 82c:	6f626572 	svcvs	0x00626572
 830:	632e746f 			; <UNDEFINED> instruction: 0x632e746f
 834:	72617500 	rsbvc	r7, r1, #0, 10
 838:	6c665f74 	stclvs	15, cr5, [r6], #-464	; 0xfffffe30
 83c:	5f687375 	svcpl	0x00687375
 840:	5f007874 	svcpl	0x00007874
 844:	61747363 	cmnvs	r4, r3, ror #6
 848:	62007472 	andvs	r7, r0, #1912602624	; 0x72000000
 84c:	655f7373 	ldrbvs	r7, [pc, #-883]	; 4e1 <__code_start__-0x7b1f>
 850:	7500646e 	strvc	r6, [r0, #-1134]	; 0xfffffb92
 854:	5f747261 	svcpl	0x00747261
 858:	74696e69 	strbtvc	r6, [r9], #-3689	; 0xfffff197
 85c:	73756300 	cmnvc	r5, #0, 6
 860:	5f6d6f74 	svcpl	0x006d6f74
 864:	64616f6c 	strbtvs	r6, [r1], #-3948	; 0xfffff094
 868:	2e007265 	cdpcs	2, 0, cr7, cr0, cr5, {3}
 86c:	6174732f 	cmnvs	r4, pc, lsr #6
 870:	732d6666 			; <UNDEFINED> instruction: 0x732d6666
 874:	632f6372 			; <UNDEFINED> instruction: 0x632f6372
 878:	72617473 	rsbvc	r7, r1, #1929379840	; 0x73000000
 87c:	00632e74 	rsbeq	r2, r3, r4, ror lr
 880:	74732f2e 	ldrbtvc	r2, [r3], #-3886	; 0xfffff0d2
 884:	2d666661 	stclcs	6, cr6, [r6, #-388]!	; 0xfffffe7c
 888:	2f637273 	svccs	0x00637273
 88c:	74737563 	ldrbtvc	r7, [r3], #-1379	; 0xfffffa9d
 890:	6c2d6d6f 	stcvs	13, cr6, [sp], #-444	; 0xfffffe44
 894:	6564616f 	strbvs	r6, [r4, #-367]!	; 0xfffffe91
 898:	00632e72 	rsbeq	r2, r3, r2, ror lr
 89c:	6f626572 	svcvs	0x00626572
 8a0:	635f746f 	cmpvs	pc, #1862270976	; 0x6f000000
 8a4:	6f6c6c61 	svcvs	0x006c6c61
 8a8:	50007475 	andpl	r7, r0, r5, ror r4
 8ac:	44575f4d 	ldrbmi	r5, [r7], #-3917	; 0xfffff0b3
 8b0:	7300474f 	movwvc	r4, #1871	; 0x74f
 8b4:	755f7465 	ldrbvc	r7, [pc, #-1125]	; 457 <__code_start__-0x7ba9>
 8b8:	5f726573 	svcpl	0x00726573
 8bc:	6576656c 	ldrbvs	r6, [r6, #-1388]!	; 0xfffffa94
 8c0:	2f2e006c 	svccs	0x002e006c
 8c4:	66617473 			; <UNDEFINED> instruction: 0x66617473
 8c8:	72732d66 	rsbsvc	r2, r3, #6528	; 0x1980
 8cc:	65722f63 	ldrbvs	r2, [r2, #-3939]!	; 0xfffff09d
 8d0:	746f6f62 	strbtvc	r6, [pc], #-3938	; 8d8 <__code_start__-0x7728>
 8d4:	5000632e 	andpl	r6, r0, lr, lsr #6
 8d8:	41505f4d 	cmpmi	r0, sp, asr #30
 8dc:	4f575353 	svcmi	0x00575353
 8e0:	61004452 	tstvs	r0, r2, asr r4
 8e4:	73755f74 	cmnvc	r5, #116, 30	; 0x1d0
 8e8:	6c5f7265 	lfmvs	f7, 2, [pc], {101}	; 0x65
 8ec:	6c657665 	stclvs	6, cr7, [r5], #-404	; 0xfffffe6c
 8f0:	5f4d5000 	svcpl	0x004d5000
 8f4:	43545352 	cmpmi	r4, #1207959553	; 0x48000001
 8f8:	4352575f 	cmpmi	r2, #24903680	; 0x17c0000
 8fc:	465f4746 	ldrbmi	r4, [pc], -r6, asr #14
 900:	5f4c4c55 	svcpl	0x004c4c55
 904:	45534552 	ldrbmi	r4, [r3, #-1362]	; 0xfffffaae
 908:	4d500054 	ldclmi	0, cr0, [r0, #-336]	; 0xfffffeb0
 90c:	5453525f 	ldrbpl	r5, [r3], #-607	; 0xfffffda1
 910:	70630043 	rsbvc	r0, r3, r3, asr #32
 914:	64007273 	strvs	r7, [r0], #-627	; 0xfffffd8d
 918:	625f7665 	subsvs	r7, pc, #105906176	; 0x6500000
 91c:	69727261 	ldmdbvs	r2!, {r0, r5, r6, r9, ip, sp, lr}^
 920:	64007265 	strvs	r7, [r0], #-613	; 0xfffffd9b
 924:	79616c65 	stmdbvc	r1!, {r0, r2, r5, r6, sl, fp, sp, lr}^
 928:	6365735f 	cmnvs	r5, #2080374785	; 0x7c000001
 92c:	732f2e00 			; <UNDEFINED> instruction: 0x732f2e00
 930:	66666174 			; <UNDEFINED> instruction: 0x66666174
 934:	6372732d 	cmnvs	r2, #-1275068416	; 0xb4000000
 938:	6d69742f 	cfstrdvs	mvd7, [r9, #-188]!	; 0xffffff44
 93c:	632e7265 			; <UNDEFINED> instruction: 0x632e7265
 940:	54454700 	strbpl	r4, [r5], #-1792	; 0xfffff900
 944:	74003233 	strvc	r3, [r0], #-563	; 0xfffffdcd
 948:	72656d69 	rsbvc	r6, r5, #6720	; 0x1a40
 94c:	7465675f 	strbtvc	r6, [r5], #-1887	; 0xfffff8a1
 950:	6573755f 	ldrbvs	r7, [r3, #-1375]!	; 0xfffffaa1
 954:	65640063 	strbvs	r0, [r4, #-99]!	; 0xffffff9d
 958:	5f79616c 	svcpl	0x0079616c
 95c:	74007375 	strvc	r7, [r0], #-885	; 0xfffffc8b
 960:	72656d69 	rsbvc	r6, r5, #6720	; 0x1a40
 964:	7465675f 	strbtvc	r6, [r5], #-1887	; 0xfffff8a1
 968:	6573755f 	ldrbvs	r7, [r3, #-1375]!	; 0xfffffaa1
 96c:	61725f63 	cmnvs	r2, r3, ror #30
 970:	75700077 	ldrbvc	r0, [r0, #-119]!	; 0xffffff89
 974:	00323374 	eorseq	r3, r2, r4, ror r3
 978:	64756162 	ldrbtvs	r6, [r5], #-354	; 0xfffffe9e
 97c:	6c61765f 	stclvs	6, cr7, [r1], #-380	; 0xfffffe84
 980:	61747300 	cmnvs	r4, r0, lsl #6
 984:	61750074 	cmnvs	r5, r4, ror r0
 988:	635f7472 	cmpvs	pc, #1912602624	; 0x72000000
 98c:	675f6e61 	ldrbvs	r6, [pc, -r1, ror #28]
 990:	00637465 	rsbeq	r7, r3, r5, ror #8
 994:	4f495047 	svcmi	0x00495047
 998:	4e55465f 	mrcmi	6, 2, r4, cr5, cr15, {2}
 99c:	554f5f43 	strbpl	r5, [pc, #-3907]	; fffffa61 <__bss_end__+0xffff4b01>
 9a0:	54555054 	ldrbpl	r5, [r5], #-84	; 0xffffffac
 9a4:	78756100 	ldmdavc	r5!, {r8, sp, lr}^
 9a8:	7265705f 	rsbvc	r7, r5, #95, 0	; 0x5f
 9ac:	73687069 	cmnvc	r8, #105, 0	; 0x69
 9b0:	72617500 	rsbvc	r7, r1, #0, 10
 9b4:	00632e74 	rsbeq	r2, r3, r4, ror lr
 9b8:	74726175 	ldrbtvc	r6, [r2], #-373	; 0xfffffe8b
 9bc:	6e61635f 	mcrvs	3, 3, r6, cr1, cr15, {2}
 9c0:	7475705f 	ldrbtvc	r7, [r5], #-95	; 0xffffffa1
 9c4:	61750063 	cmnvs	r5, r3, rrx
 9c8:	745f7472 	ldrbvc	r7, [pc], #-1138	; 9d0 <__code_start__-0x7630>
 9cc:	73695f78 	cmnvc	r9, #120, 30	; 0x1e0
 9d0:	706d655f 	rsbvc	r6, sp, pc, asr r5
 9d4:	47007974 	smlsdxmi	r0, r4, r9, r7
 9d8:	5f4f4950 	svcpl	0x004f4950
 9dc:	434e5546 	movtmi	r5, #58694	; 0xe546
 9e0:	544c415f 	strbpl	r4, [ip], #-351	; 0xfffffea1
 9e4:	50470030 	subpl	r0, r7, r0, lsr r0
 9e8:	465f4f49 	ldrbmi	r4, [pc], -r9, asr #30
 9ec:	5f434e55 	svcpl	0x00434e55
 9f0:	31544c41 	cmpcc	r4, r1, asr #24
 9f4:	49504700 	ldmdbmi	r0, {r8, r9, sl, lr}^
 9f8:	55465f4f 	strbpl	r5, [r6, #-3919]	; 0xfffff0b1
 9fc:	415f434e 	cmpmi	pc, lr, asr #6
 a00:	0032544c 	eorseq	r5, r2, ip, asr #8
 a04:	4f495047 	svcmi	0x00495047
 a08:	4e55465f 	mrcmi	6, 2, r4, cr5, cr15, {2}
 a0c:	4c415f43 	mcrrmi	15, 4, r5, r1, cr3
 a10:	47003354 	smlsdmi	r0, r4, r3, r3
 a14:	5f4f4950 	svcpl	0x004f4950
 a18:	434e5546 	movtmi	r5, #58694	; 0xe546
 a1c:	544c415f 	strbpl	r4, [ip], #-351	; 0xfffffea1
 a20:	682f0035 	stmdavs	pc!, {r0, r2, r4, r5}	; <UNPREDICTABLE>
 a24:	2f656d6f 	svccs	0x00656d6f
 a28:	6c676e65 	stclvs	14, cr6, [r7], #-404	; 0xfffffe6c
 a2c:	632f7265 			; <UNDEFINED> instruction: 0x632f7265
 a30:	7373616c 	cmnvc	r3, #27
 a34:	3273632f 	rsbscc	r6, r3, #-1140850688	; 0xbc000000
 a38:	786c3034 	stmdavc	ip!, {r2, r4, r5, ip, sp}^
 a3c:	7332322d 	teqvc	r2, #-805306366	; 0xd0000002
 a40:	6c2f7270 	sfmvs	f7, 4, [pc], #-448	; 888 <__code_start__-0x7778>
 a44:	69706269 	ldmdbvs	r0!, {r0, r3, r5, r6, r9, sp, lr}^
 a48:	6174732f 	cmnvs	r4, pc, lsr #6
 a4c:	702d6666 	eorvc	r6, sp, r6, ror #12
 a50:	61766972 	cmnvs	r6, r2, ror r9
 a54:	62006574 	andvs	r6, r0, #116, 10	; 0x1d000000
 a58:	00647561 	rsbeq	r7, r4, r1, ror #10
 a5c:	5f787561 	svcpl	0x00787561
 a60:	62616e65 	rsbvs	r6, r1, #1616	; 0x650
 a64:	0073656c 	rsbseq	r6, r3, ip, ror #10
 a68:	74726175 	ldrbtvc	r6, [r2], #-373	; 0xfffffe8b
 a6c:	7465675f 	strbtvc	r6, [r5], #-1887	; 0xfffff8a1
 a70:	4e470063 	cdpmi	0, 4, cr0, cr7, cr3, {3}
 a74:	39432055 	stmdbcc	r3, {r0, r2, r4, r6, sp}^
 a78:	30312039 	eorscc	r2, r1, r9, lsr r0
 a7c:	312e332e 			; <UNDEFINED> instruction: 0x312e332e
 a80:	32303220 	eorscc	r3, r0, #32, 4
 a84:	32383031 	eorscc	r3, r8, #49, 0	; 0x31
 a88:	72282034 	eorvc	r2, r8, #52, 0	; 0x34
 a8c:	61656c65 	cmnvs	r5, r5, ror #24
 a90:	20296573 	eorcs	r6, r9, r3, ror r5
 a94:	70636d2d 	rsbvc	r6, r3, sp, lsr #26
 a98:	72613d75 	rsbvc	r3, r1, #7488	; 0x1d40
 a9c:	3731316d 	ldrcc	r3, [r1, -sp, ror #2]!
 aa0:	667a6a36 			; <UNDEFINED> instruction: 0x667a6a36
 aa4:	2d20732d 	stccs	3, cr7, [r0, #-180]!	; 0xffffff4c
 aa8:	6e75746d 	cdpvs	4, 7, cr7, cr5, cr13, {3}
 aac:	72613d65 	rsbvc	r3, r1, #6464	; 0x1940
 ab0:	3731316d 	ldrcc	r3, [r1, -sp, ror #2]!
 ab4:	667a6a36 			; <UNDEFINED> instruction: 0x667a6a36
 ab8:	2d20732d 	stccs	3, cr7, [r0, #-180]!	; 0xffffff4c
 abc:	6f6c666d 	svcvs	0x006c666d
 ac0:	612d7461 			; <UNDEFINED> instruction: 0x612d7461
 ac4:	733d6962 	teqvc	sp, #1605632	; 0x188000
 ac8:	2074666f 	rsbscs	r6, r4, pc, ror #12
 acc:	72616d2d 	rsbvc	r6, r1, #2880	; 0xb40
 ad0:	6d2d206d 	stcvs	0, cr2, [sp, #-436]!	; 0xfffffe4c
 ad4:	68637261 	stmdavs	r3!, {r0, r5, r6, r9, ip, sp, lr}^
 ad8:	6d72613d 	ldfvse	f6, [r2, #-244]!	; 0xffffff0c
 adc:	7a6b3676 	bvc	1ace4bc <__bss_end__+0x1ac355c>
 ae0:	67672d20 	strbvs	r2, [r7, -r0, lsr #26]!
 ae4:	2d206264 	sfmcs	f6, 4, [r0, #-400]!	; 0xfffffe70
 ae8:	2d20674f 	stccs	7, cr6, [r0, #-316]!	; 0xfffffec4
 aec:	3d647473 	cfstrdcc	mvd7, [r4, #-460]!	; 0xfffffe34
 af0:	39756e67 	ldmdbcc	r5!, {r0, r1, r2, r5, r6, r9, sl, fp, sp, lr}^
 af4:	662d2039 			; <UNDEFINED> instruction: 0x662d2039
 af8:	65657266 	strbvs	r7, [r5, #-614]!	; 0xfffffd9a
 afc:	6e617473 	mcrvs	4, 3, r7, cr1, cr3, {3}
 b00:	676e6964 	strbvs	r6, [lr, -r4, ror #18]!
 b04:	746e6300 	strbtvc	r6, [lr], #-768	; 0xfffffd00
 b08:	6175006c 	cmnvs	r5, ip, rrx
 b0c:	645f7472 	ldrbvs	r7, [pc], #-1138	; b14 <__code_start__-0x74ec>
 b10:	62617369 	rsbvs	r7, r1, #-1543503871	; 0xa4000001
 b14:	7500656c 	strvc	r6, [r0, #-1388]	; 0xfffffa94
 b18:	5f747261 	svcpl	0x00747261
 b1c:	5f736168 	svcpl	0x00736168
 b20:	61746164 	cmnvs	r4, r4, ror #2
 b24:	49504700 	ldmdbmi	r0, {r8, r9, sl, lr}^
 b28:	55465f4f 	strbpl	r5, [r6, #-3919]	; 0xfffff0b1
 b2c:	415f434e 	cmpmi	pc, lr, asr #6
 b30:	0034544c 	eorseq	r5, r4, ip, asr #8
 b34:	695f726f 	ldmdbvs	pc, {r0, r1, r2, r3, r5, r6, r9, ip, sp, lr}^	; <UNPREDICTABLE>
 b38:	0032336e 	eorseq	r3, r2, lr, ror #6
 b3c:	61726373 	cmnvs	r2, r3, ror r3
 b40:	00686374 	rsbeq	r6, r8, r4, ror r3
 b44:	74726175 	ldrbtvc	r6, [r2], #-373	; 0xfffffe8b
 b48:	646e6100 	strbtvs	r6, [lr], #-256	; 0xffffff00
 b4c:	336e695f 	cmncc	lr, #1556480	; 0x17c000
 b50:	61750032 	cmnvs	r5, r2, lsr r0
 b54:	705f7472 	subsvc	r7, pc, r2, ror r4	; <UNPREDICTABLE>
 b58:	00637475 	rsbeq	r7, r3, r5, ror r4
 b5c:	4f495047 	svcmi	0x00495047
 b60:	4e55465f 	mrcmi	6, 2, r4, cr5, cr15, {2}
 b64:	4e495f43 	cdpmi	15, 4, cr5, cr9, cr3, {2}
 b68:	00545550 	subseq	r5, r4, r0, asr r5
 b6c:	6f697067 	svcvs	0x00697067
 b70:	7465735f 	strbtvc	r7, [r5], #-863	; 0xfffffca1
 b74:	6e75665f 	mrcvs	6, 3, r6, cr5, cr15, {2}
 b78:	6f697463 	svcvs	0x00697463
 b7c:	6567006e 	strbvs	r0, [r7, #-110]!	; 0xffffff92
 b80:	00323374 	eorseq	r3, r2, r4, ror r3
 b84:	6c616d6b 	stclvs	13, cr6, [r1], #-428	; 0xfffffe54
 b88:	5f636f6c 	svcpl	0x00636f6c
 b8c:	70616568 	rsbvc	r6, r1, r8, ror #10
 b90:	6174735f 	cmnvs	r4, pc, asr r3
 b94:	6d007472 	cfstrsvs	mvf7, [r0, #-456]	; 0xfffffe38
 b98:	6e5f7861 	cdpvs	8, 5, cr7, cr15, cr1, {3}
 b9c:	65747962 	ldrbvs	r7, [r4, #-2402]!	; 0xfffff69e
 ba0:	615f0073 	cmpvs	pc, r3, ror r0	; <UNPREDICTABLE>
 ba4:	00726464 	rsbseq	r6, r2, r4, ror #8
 ba8:	70616568 	rsbvc	r6, r1, r8, ror #10
 bac:	78616d5f 	stmdavc	r1!, {r0, r1, r2, r3, r4, r6, r8, sl, fp, sp, lr}^
 bb0:	72666b00 	rsbvc	r6, r6, #0, 22
 bb4:	615f6565 	cmpvs	pc, r5, ror #10
 bb8:	72006c6c 	andvc	r6, r0, #108, 24	; 0x6c00
 bbc:	646e756f 	strbtvs	r7, [lr], #-1391	; 0xfffffa91
 bc0:	6b007075 	blvs	1cd9c <__bss_end__+0x11e3c>
 bc4:	65657266 	strbvs	r7, [r5, #-614]!	; 0xfffffd9a
 bc8:	706f705f 	rsbvc	r7, pc, pc, asr r0	; <UNPREDICTABLE>
 bcc:	696c6100 	stmdbvs	ip!, {r8, sp, lr}^
 bd0:	656d6e67 	strbvs	r6, [sp, #-3687]!	; 0xfffff199
 bd4:	6d00746e 	cfstrsvs	mvf7, [r0, #-440]	; 0xfffffe48
 bd8:	755f7861 	ldrbvc	r7, [pc, #-2145]	; 37f <__code_start__-0x7c81>
 bdc:	4f003233 	svcmi	0x00003233
 be0:	424d656e 	submi	r6, sp, #461373440	; 0x1b800000
 be4:	616d6b00 	cmnvs	sp, r0, lsl #22
 be8:	636f6c6c 	cmnvs	pc, #108, 24	; 0x6c00
 bec:	6165685f 	cmnvs	r5, pc, asr r8
 bf0:	6e655f70 	mcrvs	15, 3, r5, cr5, cr0, {3}
 bf4:	6d6b0064 	stclvs	0, cr0, [fp, #-400]!	; 0xfffffe70
 bf8:	6f6c6c61 	svcvs	0x006c6c61
 bfc:	6f6e5f63 	svcvs	0x006e5f63
 c00:	72657a74 	rsbvc	r7, r5, #116, 20	; 0x74000
 c04:	7369006f 	cmnvc	r9, #111, 0	; 0x6f
 c08:	776f705f 			; <UNDEFINED> instruction: 0x776f705f
 c0c:	6d6b0032 	stclvs	0, cr0, [fp, #-200]!	; 0xffffff38
 c10:	6f6c6c61 	svcvs	0x006c6c61
 c14:	00632e63 	rsbeq	r2, r3, r3, ror #28
 c18:	6c616d6b 	stclvs	13, cr6, [r1], #-428	; 0xfffffe54
 c1c:	5f636f6c 	svcpl	0x00636f6c
 c20:	74696e69 	strbtvc	r6, [r9], #-3689	; 0xfffff197
 c24:	5f736900 	svcpl	0x00736900
 c28:	67696c61 	strbvs	r6, [r9, -r1, ror #24]!
 c2c:	0064656e 	rsbeq	r6, r4, lr, ror #10
 c30:	6c616d6b 	stclvs	13, cr6, [r1], #-428	; 0xfffffe54
 c34:	5f636f6c 	svcpl	0x00636f6c
 c38:	70616568 	rsbvc	r6, r1, r8, ror #10
 c3c:	7274705f 	rsbsvc	r7, r4, #95, 0	; 0x5f
 c40:	69707200 	ldmdbvs	r0!, {r9, ip, sp, lr}^
 c44:	7365725f 	cmnvc	r5, #-268435451	; 0xf0000005
 c48:	705f7465 	subsvc	r7, pc, r5, ror #8
 c4c:	00637475 	rsbeq	r7, r3, r5, ror r4
 c50:	6c616d6b 	stclvs	13, cr6, [r1], #-428	; 0xfffffe54
 c54:	5f636f6c 	svcpl	0x00636f6c
 c58:	67696c61 	strbvs	r6, [r9, -r1, ror #24]!
 c5c:	0064656e 	rsbeq	r6, r4, lr, ror #10
 c60:	65746e69 	ldrbvs	r6, [r4, #-3689]!	; 0xfffff197
 c64:	6c616e72 	stclvs	14, cr6, [r1], #-456	; 0xfffffe38
 c68:	7475705f 	ldrbtvc	r7, [r5], #-95	; 0xffffffa1
 c6c:	72616863 	rsbvc	r6, r1, #6488064	; 0x630000
 c70:	69707200 	ldmdbvs	r0!, {r9, ip, sp, lr}^
 c74:	7465735f 	strbtvc	r7, [r5], #-863	; 0xfffffca1
 c78:	7475705f 	ldrbtvc	r7, [r5], #-95	; 0xffffffa1
 c7c:	2f2e0063 	svccs	0x002e0063
 c80:	6362696c 	cmnvs	r2, #108, 18	; 0x1b0000
 c84:	7475702f 	ldrbtvc	r7, [r5], #-47	; 0xffffffd1
 c88:	72616863 	rsbvc	r6, r1, #6488064	; 0x630000
 c8c:	6400632e 	strvs	r6, [r0], #-814	; 0xfffffcd2
 c90:	00747365 	rsbseq	r7, r4, r5, ror #6
 c94:	696c2f2e 	stmdbvs	ip!, {r1, r2, r3, r5, r8, r9, sl, fp, sp}^
 c98:	732f6362 			; <UNDEFINED> instruction: 0x732f6362
 c9c:	61637274 	smcvs	14116	; 0x3724
 ca0:	00632e74 	rsbeq	r2, r3, r4, ror lr
 ca4:	696c2f2e 	stmdbvs	ip!, {r1, r2, r3, r5, r8, r9, sl, fp, sp}^
 ca8:	732f6362 			; <UNDEFINED> instruction: 0x732f6362
 cac:	6d637274 	sfmvs	f7, 2, [r3, #-464]!	; 0xfffffe30
 cb0:	00632e70 	rsbeq	r2, r3, r0, ror lr
 cb4:	696c2f2e 	stmdbvs	ip!, {r1, r2, r3, r5, r8, r9, sl, fp, sp}^
 cb8:	732f6362 			; <UNDEFINED> instruction: 0x732f6362
 cbc:	70637274 	rsbvc	r7, r3, r4, ror r2
 cc0:	00632e79 	rsbeq	r2, r3, r9, ror lr
 cc4:	696c2f2e 	stmdbvs	ip!, {r1, r2, r3, r5, r8, r9, sl, fp, sp}^
 cc8:	732f6362 			; <UNDEFINED> instruction: 0x732f6362
 ccc:	636e7274 	cmnvs	lr, #116, 4	; 0x40000007
 cd0:	632e706d 			; <UNDEFINED> instruction: 0x632e706d
 cd4:	732f2e00 			; <UNDEFINED> instruction: 0x732f2e00
 cd8:	66666174 			; <UNDEFINED> instruction: 0x66666174
 cdc:	6372732d 	cmnvs	r2, #-1275068416	; 0xb4000000
 ce0:	6665642f 	strbtvs	r6, [r5], -pc, lsr #8
 ce4:	746c7561 	strbtvc	r7, [ip], #-1377	; 0xfffffa9f
 ce8:	6265722d 	rsbvs	r7, r5, #-805306366	; 0xd0000002
 cec:	2d746f6f 	ldclcs	15, cr6, [r4, #-444]!	; 0xfffffe44
 cf0:	6c6c6163 	stfvse	f6, [ip], #-396	; 0xfffffe74
 cf4:	2e74756f 	cdpcs	5, 7, cr7, cr4, cr15, {3}
 cf8:	70670063 	rsbvc	r0, r7, r3, rrx
 cfc:	635f6f69 	cmpvs	pc, #420	; 0x1a4
 d00:	0030726c 	eorseq	r7, r0, ip, ror #4
 d04:	6f697067 	svcvs	0x00697067
 d08:	7465735f 	strbtvc	r7, [r5], #-863	; 0xfffffca1
 d0c:	70670030 	rsbvc	r0, r7, r0, lsr r0
 d10:	775f6f69 	ldrbvc	r6, [pc, -r9, ror #30]
 d14:	65746972 	ldrbvs	r6, [r4, #-2418]!	; 0xfffff68e
 d18:	56454400 	strbpl	r4, [r5], -r0, lsl #8
 d1c:	4c41565f 	mcrrmi	6, 5, r5, r1, cr15
 d20:	67003233 	smladxvs	r0, r3, r2, r3
 d24:	5f6f6970 	svcpl	0x006f6970
 d28:	64616572 	strbtvs	r6, [r1], #-1394	; 0xfffffa8e
 d2c:	69706700 	ldmdbvs	r0!, {r8, r9, sl, sp, lr}^
 d30:	65735f6f 	ldrbvs	r5, [r3, #-3951]!	; 0xfffff091
 d34:	6e695f74 	mcrvs	15, 3, r5, cr9, cr4, {3}
 d38:	00747570 	rsbseq	r7, r4, r0, ror r5
 d3c:	6f697067 	svcvs	0x00697067
 d40:	7465735f 	strbtvc	r7, [r5], #-863	; 0xfffffca1
 d44:	66666f5f 	uqsaxvs	r6, r6, pc	; <UNPREDICTABLE>
 d48:	69706700 	ldmdbvs	r0!, {r8, r9, sl, sp, lr}^
 d4c:	65735f6f 	ldrbvs	r5, [r3, #-3951]!	; 0xfffff091
 d50:	756f5f74 	strbvc	r5, [pc, #-3956]!	; fffffde4 <__bss_end__+0xffff4e84>
 d54:	74757074 	ldrbtvc	r7, [r5], #-116	; 0xffffff8c
 d58:	69706700 	ldmdbvs	r0!, {r8, r9, sl, sp, lr}^
 d5c:	75665f6f 	strbvc	r5, [r6, #-3951]!	; 0xfffff091
 d60:	745f636e 	ldrbvc	r6, [pc], #-878	; d68 <__code_start__-0x7298>
 d64:	69706700 	ldmdbvs	r0!, {r8, r9, sl, sp, lr}^
 d68:	656c5f6f 	strbvs	r5, [ip, #-3951]!	; 0xfffff091
 d6c:	62003076 	andvs	r3, r0, #118, 0	; 0x76
 d70:	006b6e61 	rsbeq	r6, fp, r1, ror #28
 d74:	6f697067 	svcvs	0x00697067
 d78:	6700632e 	strvs	r6, [r0, -lr, lsr #6]
 d7c:	5f6f6970 	svcpl	0x006f6970
 d80:	5f746573 	svcpl	0x00746573
 d84:	Address 0x0000000000000d84 is out of bounds.


Disassembly of section .debug_frame:

00000000 <.debug_frame>:
   0:	0000000c 	andeq	r0, r0, ip
   4:	ffffffff 			; <UNDEFINED> instruction: 0xffffffff
   8:	7c020001 	stcvc	0, cr0, [r2], {1}
   c:	000d0c0e 	andeq	r0, sp, lr, lsl #24
  10:	00000020 	andeq	r0, r0, r0, lsr #32
  14:	00000000 	andeq	r0, r0, r0
  18:	00008038 	andeq	r8, r0, r8, lsr r0
  1c:	000000cc 	andeq	r0, r0, ip, asr #1
  20:	84100e42 	ldrhi	r0, [r0], #-3650	; 0xfffff1be
  24:	86038504 	strhi	r8, [r3], -r4, lsl #10
  28:	42018e02 	andmi	r8, r1, #2, 28
  2c:	0a52280e 	beq	148a06c <__bss_end__+0x147f10c>
  30:	0b42100e 	bleq	1084070 <__bss_end__+0x1079110>
  34:	00000014 	andeq	r0, r0, r4, lsl r0
  38:	00000000 	andeq	r0, r0, r0
  3c:	00008104 	andeq	r8, r0, r4, lsl #2
  40:	0000001c 	andeq	r0, r0, ip, lsl r0
  44:	84080e42 	strhi	r0, [r8], #-3650	; 0xfffff1be
  48:	00018e02 	andeq	r8, r1, r2, lsl #28
  4c:	0000001c 	andeq	r0, r0, ip, lsl r0
  50:	00000000 	andeq	r0, r0, r0
  54:	00008120 	andeq	r8, r0, r0, lsr #2
  58:	00000094 	muleq	r0, r4, r0
  5c:	8e040e42 	cdphi	14, 0, cr0, cr4, cr2, {2}
  60:	100e4201 	andne	r4, lr, r1, lsl #4
  64:	040e0a66 	streq	r0, [lr], #-2662	; 0xfffff59a
  68:	00000b42 	andeq	r0, r0, r2, asr #22
  6c:	0000000c 	andeq	r0, r0, ip
  70:	ffffffff 			; <UNDEFINED> instruction: 0xffffffff
  74:	7c020001 	stcvc	0, cr0, [r2], {1}
  78:	000d0c0e 	andeq	r0, sp, lr, lsl #24
  7c:	00000014 	andeq	r0, r0, r4, lsl r0
  80:	0000006c 	andeq	r0, r0, ip, rrx
  84:	000081b4 			; <UNDEFINED> instruction: 0x000081b4
  88:	00000074 	andeq	r0, r0, r4, ror r0
  8c:	8e040e5e 	mcrhi	14, 0, r0, cr4, cr14, {2}
  90:	100e4201 	andne	r4, lr, r1, lsl #4
  94:	0000000c 	andeq	r0, r0, ip
  98:	0000006c 	andeq	r0, r0, ip, rrx
  9c:	00008228 	andeq	r8, r0, r8, lsr #4
  a0:	00000010 	andeq	r0, r0, r0, lsl r0
  a4:	0000000c 	andeq	r0, r0, ip
  a8:	0000006c 	andeq	r0, r0, ip, rrx
  ac:	00008238 	andeq	r8, r0, r8, lsr r2
  b0:	00000010 	andeq	r0, r0, r0, lsl r0
  b4:	0000000c 	andeq	r0, r0, ip
  b8:	0000006c 	andeq	r0, r0, ip, rrx
  bc:	00008248 	andeq	r8, r0, r8, asr #4
  c0:	00000008 	andeq	r0, r0, r8
  c4:	00000014 	andeq	r0, r0, r4, lsl r0
  c8:	0000006c 	andeq	r0, r0, ip, rrx
  cc:	00008250 	andeq	r8, r0, r0, asr r2
  d0:	00000018 	andeq	r0, r0, r8, lsl r0
  d4:	84080e42 	strhi	r0, [r8], #-3650	; 0xfffff1be
  d8:	00018e02 	andeq	r8, r1, r2, lsl #28
  dc:	0000000c 	andeq	r0, r0, ip
  e0:	0000006c 	andeq	r0, r0, ip, rrx
  e4:	00008268 	andeq	r8, r0, r8, ror #4
  e8:	00000038 	andeq	r0, r0, r8, lsr r0
  ec:	00000018 	andeq	r0, r0, r8, lsl r0
  f0:	0000006c 	andeq	r0, r0, ip, rrx
  f4:	000082a0 	andeq	r8, r0, r0, lsr #5
  f8:	00000058 	andeq	r0, r0, r8, asr r0
  fc:	84100e42 	ldrhi	r0, [r0], #-3650	; 0xfffff1be
 100:	86038504 	strhi	r8, [r3], -r4, lsl #10
 104:	00018e02 	andeq	r8, r1, r2, lsl #28
 108:	00000018 	andeq	r0, r0, r8, lsl r0
 10c:	0000006c 	andeq	r0, r0, ip, rrx
 110:	000082f8 	strdeq	r8, [r0], -r8	; <UNPREDICTABLE>
 114:	00000064 	andeq	r0, r0, r4, rrx
 118:	84100e42 	ldrhi	r0, [r0], #-3650	; 0xfffff1be
 11c:	86038504 	strhi	r8, [r3], -r4, lsl #10
 120:	00018e02 	andeq	r8, r1, r2, lsl #28
 124:	00000018 	andeq	r0, r0, r8, lsl r0
 128:	0000006c 	andeq	r0, r0, ip, rrx
 12c:	0000835c 	andeq	r8, r0, ip, asr r3
 130:	00000048 	andeq	r0, r0, r8, asr #32
 134:	84100e42 	ldrhi	r0, [r0], #-3650	; 0xfffff1be
 138:	86038504 	strhi	r8, [r3], -r4, lsl #10
 13c:	00018e02 	andeq	r8, r1, r2, lsl #28
 140:	0000000c 	andeq	r0, r0, ip
 144:	0000006c 	andeq	r0, r0, ip, rrx
 148:	000083a4 	andeq	r8, r0, r4, lsr #7
 14c:	0000004c 	andeq	r0, r0, ip, asr #32
 150:	00000020 	andeq	r0, r0, r0, lsr #32
 154:	0000006c 	andeq	r0, r0, ip, rrx
 158:	000083f0 	strdeq	r8, [r0], -r0
 15c:	000000a4 	andeq	r0, r0, r4, lsr #1
 160:	84100e42 	ldrhi	r0, [r0], #-3650	; 0xfffff1be
 164:	86038504 	strhi	r8, [r3], -r4, lsl #10
 168:	42018e02 	andmi	r8, r1, #2, 28
 16c:	0201900e 	andeq	r9, r1, #14, 0
 170:	00100e46 	andseq	r0, r0, r6, asr #28
 174:	00000020 	andeq	r0, r0, r0, lsr #32
 178:	0000006c 	andeq	r0, r0, ip, rrx
 17c:	00008494 	muleq	r0, r4, r4
 180:	00000170 	andeq	r0, r0, r0, ror r1
 184:	840c0e42 	strhi	r0, [ip], #-3650	; 0xfffff1be
 188:	8e028503 	cfsh32hi	mvfx8, mvfx2, #3
 18c:	a80e4201 	stmdage	lr, {r0, r9, lr}
 190:	0a7c0201 	beq	1f0099c <__bss_end__+0x1ef5a3c>
 194:	0b420c0e 	bleq	10831d4 <__bss_end__+0x1078274>
 198:	00000020 	andeq	r0, r0, r0, lsr #32
 19c:	0000006c 	andeq	r0, r0, ip, rrx
 1a0:	00008604 	andeq	r8, r0, r4, lsl #12
 1a4:	000000dc 	ldrdeq	r0, [r0], -ip
 1a8:	84100e42 	ldrhi	r0, [r0], #-3650	; 0xfffff1be
 1ac:	86038504 	strhi	r8, [r3], -r4, lsl #10
 1b0:	42018e02 	andmi	r8, r1, #2, 28
 1b4:	6002200e 	andvs	r2, r2, lr
 1b8:	0000100e 	andeq	r1, r0, lr
 1bc:	0000000c 	andeq	r0, r0, ip
 1c0:	ffffffff 			; <UNDEFINED> instruction: 0xffffffff
 1c4:	7c020001 	stcvc	0, cr0, [r2], {1}
 1c8:	000d0c0e 	andeq	r0, sp, lr, lsl #24
 1cc:	0000000c 	andeq	r0, r0, ip
 1d0:	000001bc 			; <UNDEFINED> instruction: 0x000001bc
 1d4:	000086e0 	andeq	r8, r0, r0, ror #13
 1d8:	0000003c 	andeq	r0, r0, ip, lsr r0
 1dc:	0000001c 	andeq	r0, r0, ip, lsl r0
 1e0:	000001bc 			; <UNDEFINED> instruction: 0x000001bc
 1e4:	0000871c 	andeq	r8, r0, ip, lsl r7
 1e8:	0000017c 	andeq	r0, r0, ip, ror r1
 1ec:	84180e42 	ldrhi	r0, [r8], #-3650	; 0xfffff1be
 1f0:	86058506 	strhi	r8, [r5], -r6, lsl #10
 1f4:	88038704 	stmdahi	r3, {r2, r8, r9, sl, pc}
 1f8:	00018e02 	andeq	r8, r1, r2, lsl #28
 1fc:	0000001c 	andeq	r0, r0, ip, lsl r0
 200:	000001bc 			; <UNDEFINED> instruction: 0x000001bc
 204:	00008898 	muleq	r0, r8, r8
 208:	000000b0 	strheq	r0, [r0], -r0	; <UNPREDICTABLE>
 20c:	84180e42 	ldrhi	r0, [r8], #-3650	; 0xfffff1be
 210:	86058506 	strhi	r8, [r5], -r6, lsl #10
 214:	88038704 	stmdahi	r3, {r2, r8, r9, sl, pc}
 218:	00018e02 	andeq	r8, r1, r2, lsl #28
 21c:	00000014 	andeq	r0, r0, r4, lsl r0
 220:	000001bc 			; <UNDEFINED> instruction: 0x000001bc
 224:	00008948 	andeq	r8, r0, r8, asr #18
 228:	00000028 	andeq	r0, r0, r8, lsr #32
 22c:	84080e42 	strhi	r0, [r8], #-3650	; 0xfffff1be
 230:	00018e02 	andeq	r8, r1, r2, lsl #28
 234:	00000020 	andeq	r0, r0, r0, lsr #32
 238:	000001bc 			; <UNDEFINED> instruction: 0x000001bc
 23c:	00008970 	andeq	r8, r0, r0, ror r9
 240:	00000138 	andeq	r0, r0, r8, lsr r1
 244:	84140e42 	ldrhi	r0, [r4], #-3650	; 0xfffff1be
 248:	86048505 	strhi	r8, [r4], -r5, lsl #10
 24c:	8e028703 	cdphi	7, 0, cr8, cr2, cr3, {0}
 250:	200e4201 	andcs	r4, lr, r1, lsl #4
 254:	140e8a02 	strne	r8, [lr], #-2562	; 0xfffff5fe
 258:	00000018 	andeq	r0, r0, r8, lsl r0
 25c:	000001bc 			; <UNDEFINED> instruction: 0x000001bc
 260:	00008aa8 	andeq	r8, r0, r8, lsr #21
 264:	00000090 	muleq	r0, r0, r0
 268:	8e040e42 	cdphi	14, 0, cr0, cr4, cr2, {2}
 26c:	480e4201 	stmdami	lr, {r0, r9, lr}
 270:	00040e7a 	andeq	r0, r4, sl, ror lr
 274:	00000020 	andeq	r0, r0, r0, lsr #32
 278:	000001bc 			; <UNDEFINED> instruction: 0x000001bc
 27c:	00008b38 	andeq	r8, r0, r8, lsr fp
 280:	0000009c 	muleq	r0, ip, r0
 284:	840c0e42 	strhi	r0, [ip], #-3650	; 0xfffff1be
 288:	8e028503 	cfsh32hi	mvfx8, mvfx2, #3
 28c:	180e4201 	stmdane	lr, {r0, r9, lr}
 290:	0c0e0a58 			; <UNDEFINED> instruction: 0x0c0e0a58
 294:	00000b42 	andeq	r0, r0, r2, asr #22
 298:	00000014 	andeq	r0, r0, r4, lsl r0
 29c:	000001bc 			; <UNDEFINED> instruction: 0x000001bc
 2a0:	00008bd4 	ldrdeq	r8, [r0], -r4
 2a4:	00000030 	andeq	r0, r0, r0, lsr r0
 2a8:	84080e42 	strhi	r0, [r8], #-3650	; 0xfffff1be
 2ac:	00018e02 	andeq	r8, r1, r2, lsl #28
 2b0:	00000014 	andeq	r0, r0, r4, lsl r0
 2b4:	000001bc 			; <UNDEFINED> instruction: 0x000001bc
 2b8:	00008c04 	andeq	r8, r0, r4, lsl #24
 2bc:	00000048 	andeq	r0, r0, r8, asr #32
 2c0:	84080e42 	strhi	r0, [r8], #-3650	; 0xfffff1be
 2c4:	00018e02 	andeq	r8, r1, r2, lsl #28
 2c8:	00000014 	andeq	r0, r0, r4, lsl r0
 2cc:	000001bc 			; <UNDEFINED> instruction: 0x000001bc
 2d0:	00008c4c 	andeq	r8, r0, ip, asr #24
 2d4:	00000050 	andeq	r0, r0, r0, asr r0
 2d8:	84080e42 	strhi	r0, [r8], #-3650	; 0xfffff1be
 2dc:	00018e02 	andeq	r8, r1, r2, lsl #28
 2e0:	00000014 	andeq	r0, r0, r4, lsl r0
 2e4:	000001bc 			; <UNDEFINED> instruction: 0x000001bc
 2e8:	00008c9c 	muleq	r0, ip, ip
 2ec:	00000010 	andeq	r0, r0, r0, lsl r0
 2f0:	84080e42 	strhi	r0, [r8], #-3650	; 0xfffff1be
 2f4:	00018e02 	andeq	r8, r1, r2, lsl #28
 2f8:	00000014 	andeq	r0, r0, r4, lsl r0
 2fc:	000001bc 			; <UNDEFINED> instruction: 0x000001bc
 300:	00008cac 	andeq	r8, r0, ip, lsr #25
 304:	00000028 	andeq	r0, r0, r8, lsr #32
 308:	84080e42 	strhi	r0, [r8], #-3650	; 0xfffff1be
 30c:	00018e02 	andeq	r8, r1, r2, lsl #28
 310:	0000000c 	andeq	r0, r0, ip
 314:	ffffffff 			; <UNDEFINED> instruction: 0xffffffff
 318:	7c020001 	stcvc	0, cr0, [r2], {1}
 31c:	000d0c0e 	andeq	r0, sp, lr, lsl #24
 320:	00000014 	andeq	r0, r0, r4, lsl r0
 324:	00000310 	andeq	r0, r0, r0, lsl r3
 328:	00008d18 	andeq	r8, r0, r8, lsl sp
 32c:	000000bc 	strheq	r0, [r0], -ip
 330:	8e040e42 	cdphi	14, 0, cr0, cr4, cr2, {2}
 334:	00000001 	andeq	r0, r0, r1
 338:	00000014 	andeq	r0, r0, r4, lsl r0
 33c:	00000310 	andeq	r0, r0, r0, lsl r3
 340:	00008dd4 	ldrdeq	r8, [r0], -r4
 344:	00000044 	andeq	r0, r0, r4, asr #32
 348:	84080e42 	strhi	r0, [r8], #-3650	; 0xfffff1be
 34c:	00018e02 	andeq	r8, r1, r2, lsl #28
 350:	00000014 	andeq	r0, r0, r4, lsl r0
 354:	00000310 	andeq	r0, r0, r0, lsl r3
 358:	00008e18 	andeq	r8, r0, r8, lsl lr
 35c:	000000ac 	andeq	r0, r0, ip, lsr #1
 360:	84080e42 	strhi	r0, [r8], #-3650	; 0xfffff1be
 364:	00018e02 	andeq	r8, r1, r2, lsl #28
 368:	0000000c 	andeq	r0, r0, ip
 36c:	ffffffff 			; <UNDEFINED> instruction: 0xffffffff
 370:	7c020001 	stcvc	0, cr0, [r2], {1}
 374:	000d0c0e 	andeq	r0, sp, lr, lsl #24
 378:	00000014 	andeq	r0, r0, r4, lsl r0
 37c:	00000368 	andeq	r0, r0, r8, ror #6
 380:	00008ec4 	andeq	r8, r0, r4, asr #29
 384:	00000034 	andeq	r0, r0, r4, lsr r0
 388:	8e040e42 	cdphi	14, 0, cr0, cr4, cr2, {2}
 38c:	00000001 	andeq	r0, r0, r1
 390:	0000000c 	andeq	r0, r0, ip
 394:	ffffffff 			; <UNDEFINED> instruction: 0xffffffff
 398:	7c020001 	stcvc	0, cr0, [r2], {1}
 39c:	000d0c0e 	andeq	r0, sp, lr, lsl #24
 3a0:	0000000c 	andeq	r0, r0, ip
 3a4:	00000390 	muleq	r0, r0, r3
 3a8:	00008ef8 	strdeq	r8, [r0], -r8	; <UNPREDICTABLE>
 3ac:	00000060 	andeq	r0, r0, r0, rrx
 3b0:	0000000c 	andeq	r0, r0, ip
 3b4:	ffffffff 			; <UNDEFINED> instruction: 0xffffffff
 3b8:	7c020001 	stcvc	0, cr0, [r2], {1}
 3bc:	000d0c0e 	andeq	r0, sp, lr, lsl #24
 3c0:	0000000c 	andeq	r0, r0, ip
 3c4:	000003b0 			; <UNDEFINED> instruction: 0x000003b0
 3c8:	00008f58 	andeq	r8, r0, r8, asr pc
 3cc:	00000018 	andeq	r0, r0, r8, lsl r0
 3d0:	0000000c 	andeq	r0, r0, ip
 3d4:	ffffffff 			; <UNDEFINED> instruction: 0xffffffff
 3d8:	7c020001 	stcvc	0, cr0, [r2], {1}
 3dc:	000d0c0e 	andeq	r0, sp, lr, lsl #24
 3e0:	00000034 	andeq	r0, r0, r4, lsr r0
 3e4:	000003d0 	ldrdeq	r0, [r0], -r0	; <UNPREDICTABLE>
 3e8:	00008f70 	andeq	r8, r0, r0, ror pc
 3ec:	00000058 	andeq	r0, r0, r8, asr r0
 3f0:	80100e42 	andshi	r0, r0, r2, asr #28
 3f4:	82038104 	andhi	r8, r3, #1
 3f8:	42018302 	andmi	r8, r1, #134217728	; 0x8000000
 3fc:	07841c0e 	streq	r1, [r4, lr, lsl #24]
 400:	058e0685 	streq	r0, [lr, #1669]	; 0x685
 404:	5c280e42 	stcpl	14, cr0, [r8], #-264	; 0xfffffef8
 408:	ce421c0e 	cdpgt	12, 4, cr1, cr2, cr14, {0}
 40c:	100ec4c5 	andne	ip, lr, r5, asr #9
 410:	c1c2c342 	bicgt	ip, r2, r2, asr #6
 414:	00000ec0 	andeq	r0, r0, r0, asr #29
 418:	0000000c 	andeq	r0, r0, ip
 41c:	ffffffff 			; <UNDEFINED> instruction: 0xffffffff
 420:	7c020001 	stcvc	0, cr0, [r2], {1}
 424:	000d0c0e 	andeq	r0, sp, lr, lsl #24
 428:	00000014 	andeq	r0, r0, r4, lsl r0
 42c:	00000418 	andeq	r0, r0, r8, lsl r4
 430:	00008fc8 	andeq	r8, r0, r8, asr #31
 434:	00000034 	andeq	r0, r0, r4, lsr r0
 438:	84080e42 	strhi	r0, [r8], #-3650	; 0xfffff1be
 43c:	00018e02 	andeq	r8, r1, r2, lsl #28
 440:	0000000c 	andeq	r0, r0, ip
 444:	ffffffff 			; <UNDEFINED> instruction: 0xffffffff
 448:	7c020001 	stcvc	0, cr0, [r2], {1}
 44c:	000d0c0e 	andeq	r0, sp, lr, lsl #24
 450:	0000000c 	andeq	r0, r0, ip
 454:	00000440 	andeq	r0, r0, r0, asr #8
 458:	00008ffc 	strdeq	r8, [r0], -ip
 45c:	00000014 	andeq	r0, r0, r4, lsl r0
 460:	0000000c 	andeq	r0, r0, ip
 464:	00000440 	andeq	r0, r0, r0, asr #8
 468:	00009010 	andeq	r9, r0, r0, lsl r0
 46c:	00000024 	andeq	r0, r0, r4, lsr #32
 470:	0000000c 	andeq	r0, r0, ip
 474:	00000440 	andeq	r0, r0, r0, asr #8
 478:	00009034 	andeq	r9, r0, r4, lsr r0
 47c:	00000038 	andeq	r0, r0, r8, lsr r0
 480:	00000024 	andeq	r0, r0, r4, lsr #32
 484:	00000440 	andeq	r0, r0, r0, asr #8
 488:	0000906c 	andeq	r9, r0, ip, rrx
 48c:	000001b4 			; <UNDEFINED> instruction: 0x000001b4
 490:	84140e42 	ldrhi	r0, [r4], #-3650	; 0xfffff1be
 494:	86048505 	strhi	r8, [r4], -r5, lsl #10
 498:	8e028703 	cdphi	7, 0, cr8, cr2, cr3, {0}
 49c:	600e4201 	andvs	r4, lr, r1, lsl #4
 4a0:	0e0a9a02 	vmlaeq.f32	s18, s20, s4
 4a4:	000b4214 	andeq	r4, fp, r4, lsl r2
 4a8:	00000014 	andeq	r0, r0, r4, lsl r0
 4ac:	00000440 	andeq	r0, r0, r0, asr #8
 4b0:	00009220 	andeq	r9, r0, r0, lsr #4
 4b4:	00000064 	andeq	r0, r0, r4, rrx
 4b8:	8e040e54 	mcrhi	14, 0, r0, cr4, cr4, {2}
 4bc:	100e4201 	andne	r4, lr, r1, lsl #4
 4c0:	0000002c 	andeq	r0, r0, ip, lsr #32
 4c4:	00000440 	andeq	r0, r0, r0, asr #8
 4c8:	00009284 	andeq	r9, r0, r4, lsl #5
 4cc:	000004b8 			; <UNDEFINED> instruction: 0x000004b8
 4d0:	84240e42 	strthi	r0, [r4], #-3650	; 0xfffff1be
 4d4:	86088509 	strhi	r8, [r8], -r9, lsl #10
 4d8:	88068707 	stmdahi	r6, {r0, r1, r2, r8, r9, sl, pc}
 4dc:	8a048905 	bhi	1228f8 <__bss_end__+0x117998>
 4e0:	8e028b03 	vmlahi.f64	d8, d2, d3
 4e4:	b80e4201 	stmdalt	lr, {r0, r9, lr}
 4e8:	02380302 	eorseq	r0, r8, #134217728	; 0x8000000
 4ec:	0000240e 	andeq	r2, r0, lr, lsl #8
 4f0:	0000000c 	andeq	r0, r0, ip
 4f4:	ffffffff 			; <UNDEFINED> instruction: 0xffffffff
 4f8:	7c020001 	stcvc	0, cr0, [r2], {1}
 4fc:	000d0c0e 	andeq	r0, sp, lr, lsl #24
 500:	00000014 	andeq	r0, r0, r4, lsl r0
 504:	000004f0 	strdeq	r0, [r0], -r0	; <UNPREDICTABLE>
 508:	0000973c 	andeq	r9, r0, ip, lsr r7
 50c:	0000002c 	andeq	r0, r0, ip, lsr #32
 510:	84080e42 	strhi	r0, [r8], #-3650	; 0xfffff1be
 514:	00018e02 	andeq	r8, r1, r2, lsl #28
 518:	0000000c 	andeq	r0, r0, ip
 51c:	ffffffff 			; <UNDEFINED> instruction: 0xffffffff
 520:	7c020001 	stcvc	0, cr0, [r2], {1}
 524:	000d0c0e 	andeq	r0, sp, lr, lsl #24
 528:	00000014 	andeq	r0, r0, r4, lsl r0
 52c:	00000518 	andeq	r0, r0, r8, lsl r5
 530:	00009768 	andeq	r9, r0, r8, ror #14
 534:	0000003c 	andeq	r0, r0, ip, lsr r0
 538:	84080e42 	strhi	r0, [r8], #-3650	; 0xfffff1be
 53c:	00018e02 	andeq	r8, r1, r2, lsl #28
 540:	0000000c 	andeq	r0, r0, ip
 544:	ffffffff 			; <UNDEFINED> instruction: 0xffffffff
 548:	7c020001 	stcvc	0, cr0, [r2], {1}
 54c:	000d0c0e 	andeq	r0, sp, lr, lsl #24
 550:	0000000c 	andeq	r0, r0, ip
 554:	00000540 	andeq	r0, r0, r0, asr #10
 558:	000097a4 	andeq	r9, r0, r4, lsr #15
 55c:	00000004 	andeq	r0, r0, r4
 560:	0000000c 	andeq	r0, r0, ip
 564:	ffffffff 			; <UNDEFINED> instruction: 0xffffffff
 568:	7c020001 	stcvc	0, cr0, [r2], {1}
 56c:	000d0c0e 	andeq	r0, sp, lr, lsl #24
 570:	0000000c 	andeq	r0, r0, ip
 574:	00000560 	andeq	r0, r0, r0, ror #10
 578:	000097a8 	andeq	r9, r0, r8, lsr #15
 57c:	00000018 	andeq	r0, r0, r8, lsl r0
 580:	0000000c 	andeq	r0, r0, ip
 584:	00000560 	andeq	r0, r0, r0, ror #10
 588:	000097c0 	andeq	r9, r0, r0, asr #15
 58c:	00000014 	andeq	r0, r0, r4, lsl r0
 590:	00000014 	andeq	r0, r0, r4, lsl r0
 594:	00000560 	andeq	r0, r0, r0, ror #10
 598:	000097d4 	ldrdeq	r9, [r0], -r4
 59c:	00000054 	andeq	r0, r0, r4, asr r0
 5a0:	84080e42 	strhi	r0, [r8], #-3650	; 0xfffff1be
 5a4:	00018e02 	andeq	r8, r1, r2, lsl #28
 5a8:	0000000c 	andeq	r0, r0, ip
 5ac:	ffffffff 			; <UNDEFINED> instruction: 0xffffffff
 5b0:	7c020001 	stcvc	0, cr0, [r2], {1}
 5b4:	000d0c0e 	andeq	r0, sp, lr, lsl #24
 5b8:	00000014 	andeq	r0, r0, r4, lsl r0
 5bc:	000005a8 	andeq	r0, r0, r8, lsr #11
 5c0:	00009828 	andeq	r9, r0, r8, lsr #16
 5c4:	00000014 	andeq	r0, r0, r4, lsl r0
 5c8:	84080e42 	strhi	r0, [r8], #-3650	; 0xfffff1be
 5cc:	00018e02 	andeq	r8, r1, r2, lsl #28
 5d0:	00000014 	andeq	r0, r0, r4, lsl r0
 5d4:	000005a8 	andeq	r0, r0, r8, lsr #11
 5d8:	0000983c 	andeq	r9, r0, ip, lsr r8
 5dc:	0000001c 	andeq	r0, r0, ip, lsl r0
 5e0:	84080e42 	strhi	r0, [r8], #-3650	; 0xfffff1be
 5e4:	00018e02 	andeq	r8, r1, r2, lsl #28
 5e8:	00000018 	andeq	r0, r0, r8, lsl r0
 5ec:	000005a8 	andeq	r0, r0, r8, lsr #11
 5f0:	00009858 	andeq	r9, r0, r8, asr r8
 5f4:	00000024 	andeq	r0, r0, r4, lsr #32
 5f8:	84100e42 	ldrhi	r0, [r0], #-3650	; 0xfffff1be
 5fc:	86038504 	strhi	r8, [r3], -r4, lsl #10
 600:	00018e02 	andeq	r8, r1, r2, lsl #28
 604:	00000014 	andeq	r0, r0, r4, lsl r0
 608:	000005a8 	andeq	r0, r0, r8, lsr #11
 60c:	0000987c 	andeq	r9, r0, ip, ror r8
 610:	00000018 	andeq	r0, r0, r8, lsl r0
 614:	84080e42 	strhi	r0, [r8], #-3650	; 0xfffff1be
 618:	00018e02 	andeq	r8, r1, r2, lsl #28
 61c:	00000014 	andeq	r0, r0, r4, lsl r0
 620:	000005a8 	andeq	r0, r0, r8, lsr #11
 624:	00009894 	muleq	r0, r4, r8
 628:	00000018 	andeq	r0, r0, r8, lsl r0
 62c:	84080e42 	strhi	r0, [r8], #-3650	; 0xfffff1be
 630:	00018e02 	andeq	r8, r1, r2, lsl #28
 634:	0000000c 	andeq	r0, r0, ip
 638:	ffffffff 			; <UNDEFINED> instruction: 0xffffffff
 63c:	7c020001 	stcvc	0, cr0, [r2], {1}
 640:	000d0c0e 	andeq	r0, sp, lr, lsl #24
 644:	00000018 	andeq	r0, r0, r8, lsl r0
 648:	00000634 	andeq	r0, r0, r4, lsr r6
 64c:	000098ac 	andeq	r9, r0, ip, lsr #17
 650:	00000020 	andeq	r0, r0, r0, lsr #32
 654:	84100e42 	ldrhi	r0, [r0], #-3650	; 0xfffff1be
 658:	86038504 	strhi	r8, [r3], -r4, lsl #10
 65c:	00018e02 	andeq	r8, r1, r2, lsl #28
 660:	00000018 	andeq	r0, r0, r8, lsl r0
 664:	00000634 	andeq	r0, r0, r4, lsr r6
 668:	000098cc 	andeq	r9, r0, ip, asr #17
 66c:	00000020 	andeq	r0, r0, r0, lsr #32
 670:	84100e42 	ldrhi	r0, [r0], #-3650	; 0xfffff1be
 674:	86038504 	strhi	r8, [r3], -r4, lsl #10
 678:	00018e02 	andeq	r8, r1, r2, lsl #28
 67c:	00000014 	andeq	r0, r0, r4, lsl r0
 680:	00000634 	andeq	r0, r0, r4, lsr r6
 684:	000098ec 	andeq	r9, r0, ip, ror #17
 688:	000000b0 	strheq	r0, [r0], -r0	; <UNPREDICTABLE>
 68c:	84080e42 	strhi	r0, [r8], #-3650	; 0xfffff1be
 690:	00018e02 	andeq	r8, r1, r2, lsl #28
 694:	00000014 	andeq	r0, r0, r4, lsl r0
 698:	00000634 	andeq	r0, r0, r4, lsr r6
 69c:	0000999c 	muleq	r0, ip, r9
 6a0:	00000018 	andeq	r0, r0, r8, lsl r0
 6a4:	84080e42 	strhi	r0, [r8], #-3650	; 0xfffff1be
 6a8:	00018e02 	andeq	r8, r1, r2, lsl #28
 6ac:	00000014 	andeq	r0, r0, r4, lsl r0
 6b0:	00000634 	andeq	r0, r0, r4, lsr r6
 6b4:	000099b4 			; <UNDEFINED> instruction: 0x000099b4
 6b8:	00000020 	andeq	r0, r0, r0, lsr #32
 6bc:	84080e42 	strhi	r0, [r8], #-3650	; 0xfffff1be
 6c0:	00018e02 	andeq	r8, r1, r2, lsl #28
 6c4:	00000014 	andeq	r0, r0, r4, lsl r0
 6c8:	00000634 	andeq	r0, r0, r4, lsr r6
 6cc:	000099d4 	ldrdeq	r9, [r0], -r4
 6d0:	00000030 	andeq	r0, r0, r0, lsr r0
 6d4:	84080e42 	strhi	r0, [r8], #-3650	; 0xfffff1be
 6d8:	00018e02 	andeq	r8, r1, r2, lsl #28
 6dc:	00000014 	andeq	r0, r0, r4, lsl r0
 6e0:	00000634 	andeq	r0, r0, r4, lsr r6
 6e4:	00009a04 	andeq	r9, r0, r4, lsl #20
 6e8:	00000030 	andeq	r0, r0, r0, lsr r0
 6ec:	84080e42 	strhi	r0, [r8], #-3650	; 0xfffff1be
 6f0:	00018e02 	andeq	r8, r1, r2, lsl #28
 6f4:	00000014 	andeq	r0, r0, r4, lsl r0
 6f8:	00000634 	andeq	r0, r0, r4, lsr r6
 6fc:	00009a34 	andeq	r9, r0, r4, lsr sl
 700:	00000010 	andeq	r0, r0, r0, lsl r0
 704:	84080e42 	strhi	r0, [r8], #-3650	; 0xfffff1be
 708:	00018e02 	andeq	r8, r1, r2, lsl #28
 70c:	00000014 	andeq	r0, r0, r4, lsl r0
 710:	00000634 	andeq	r0, r0, r4, lsr r6
 714:	00009a44 	andeq	r9, r0, r4, asr #20
 718:	00000020 	andeq	r0, r0, r0, lsr #32
 71c:	84080e42 	strhi	r0, [r8], #-3650	; 0xfffff1be
 720:	00018e02 	andeq	r8, r1, r2, lsl #28
 724:	00000014 	andeq	r0, r0, r4, lsl r0
 728:	00000634 	andeq	r0, r0, r4, lsr r6
 72c:	00009a64 	andeq	r9, r0, r4, ror #20
 730:	00000014 	andeq	r0, r0, r4, lsl r0
 734:	84080e42 	strhi	r0, [r8], #-3650	; 0xfffff1be
 738:	00018e02 	andeq	r8, r1, r2, lsl #28
 73c:	00000014 	andeq	r0, r0, r4, lsl r0
 740:	00000634 	andeq	r0, r0, r4, lsr r6
 744:	00009a78 	andeq	r9, r0, r8, ror sl
 748:	00000024 	andeq	r0, r0, r4, lsr #32
 74c:	84080e42 	strhi	r0, [r8], #-3650	; 0xfffff1be
 750:	00018e02 	andeq	r8, r1, r2, lsl #28
 754:	0000000c 	andeq	r0, r0, ip
 758:	ffffffff 			; <UNDEFINED> instruction: 0xffffffff
 75c:	7c020001 	stcvc	0, cr0, [r2], {1}
 760:	000d0c0e 	andeq	r0, sp, lr, lsl #24
 764:	0000000c 	andeq	r0, r0, ip
 768:	00000754 	andeq	r0, r0, r4, asr r7
 76c:	00009a9c 	muleq	r0, ip, sl
 770:	00000010 	andeq	r0, r0, r0, lsl r0
 774:	0000000c 	andeq	r0, r0, ip
 778:	00000754 	andeq	r0, r0, r4, asr r7
 77c:	00009aac 	andeq	r9, r0, ip, lsr #21
 780:	00000010 	andeq	r0, r0, r0, lsl r0
 784:	0000000c 	andeq	r0, r0, ip
 788:	00000754 	andeq	r0, r0, r4, asr r7
 78c:	00009abc 			; <UNDEFINED> instruction: 0x00009abc
 790:	00000010 	andeq	r0, r0, r0, lsl r0
 794:	0000001c 	andeq	r0, r0, ip, lsl r0
 798:	00000754 	andeq	r0, r0, r4, asr r7
 79c:	00009acc 	andeq	r9, r0, ip, asr #21
 7a0:	0000009c 	muleq	r0, ip, r0
 7a4:	8e040e42 	cdphi	14, 0, cr0, cr4, cr2, {2}
 7a8:	100e4201 	andne	r4, lr, r1, lsl #4
 7ac:	040e0a58 	streq	r0, [lr], #-2648	; 0xfffff5a8
 7b0:	00000b42 	andeq	r0, r0, r2, asr #22
 7b4:	00000014 	andeq	r0, r0, r4, lsl r0
 7b8:	00000754 	andeq	r0, r0, r4, asr r7
 7bc:	00009b68 	andeq	r9, r0, r8, ror #22
 7c0:	00000058 	andeq	r0, r0, r8, asr r0
 7c4:	84080e42 	strhi	r0, [r8], #-3650	; 0xfffff1be
 7c8:	00018e02 	andeq	r8, r1, r2, lsl #28
 7cc:	0000001c 	andeq	r0, r0, ip, lsl r0
 7d0:	00000754 	andeq	r0, r0, r4, asr r7
 7d4:	00009bc0 	andeq	r9, r0, r0, asr #23
 7d8:	00000098 	muleq	r0, r8, r0
 7dc:	8e040e42 	cdphi	14, 0, cr0, cr4, cr2, {2}
 7e0:	100e4201 	andne	r4, lr, r1, lsl #4
 7e4:	040e0a58 	streq	r0, [lr], #-2648	; 0xfffff5a8
 7e8:	00000b42 	andeq	r0, r0, r2, asr #22
 7ec:	00000020 	andeq	r0, r0, r0, lsr #32
 7f0:	00000754 	andeq	r0, r0, r4, asr r7
 7f4:	00009c58 	andeq	r9, r0, r8, asr ip
 7f8:	00000064 	andeq	r0, r0, r4, rrx
 7fc:	840c0e42 	strhi	r0, [ip], #-3650	; 0xfffff1be
 800:	8e028503 	cfsh32hi	mvfx8, mvfx2, #3
 804:	180e4201 	stmdane	lr, {r0, r9, lr}
 808:	0c0e0a54 			; <UNDEFINED> instruction: 0x0c0e0a54
 80c:	00000b42 	andeq	r0, r0, r2, asr #22
 810:	0000001c 	andeq	r0, r0, ip, lsl r0
 814:	00000754 	andeq	r0, r0, r4, asr r7
 818:	00009cbc 			; <UNDEFINED> instruction: 0x00009cbc
 81c:	00000118 	andeq	r0, r0, r8, lsl r1
 820:	8e040e42 	cdphi	14, 0, cr0, cr4, cr2, {2}
 824:	100e4201 	andne	r4, lr, r1, lsl #4
 828:	040e0a6c 	streq	r0, [lr], #-2668	; 0xfffff594
 82c:	00000b42 	andeq	r0, r0, r2, asr #22
 830:	0000000c 	andeq	r0, r0, ip
 834:	00000754 	andeq	r0, r0, r4, asr r7
 838:	00009dd4 	ldrdeq	r9, [r0], -r4
 83c:	00000004 	andeq	r0, r0, r4
 840:	0000000c 	andeq	r0, r0, ip
 844:	00000754 	andeq	r0, r0, r4, asr r7
 848:	00009dd8 	ldrdeq	r9, [r0], -r8
 84c:	00000014 	andeq	r0, r0, r4, lsl r0
 850:	00000014 	andeq	r0, r0, r4, lsl r0
 854:	00000754 	andeq	r0, r0, r4, asr r7
 858:	00009dec 	andeq	r9, r0, ip, ror #27
 85c:	00000060 	andeq	r0, r0, r0, rrx
 860:	8e040e58 	mcrhi	14, 0, r0, cr4, cr8, {2}
 864:	100e4201 	andne	r4, lr, r1, lsl #4
 868:	0000000c 	andeq	r0, r0, ip
 86c:	ffffffff 			; <UNDEFINED> instruction: 0xffffffff
 870:	7c020001 	stcvc	0, cr0, [r2], {1}
 874:	000d0c0e 	andeq	r0, sp, lr, lsl #24
 878:	00000014 	andeq	r0, r0, r4, lsl r0
 87c:	00000868 	andeq	r0, r0, r8, ror #16
 880:	00009e4c 	andeq	r9, r0, ip, asr #28
 884:	00000014 	andeq	r0, r0, r4, lsl r0
 888:	84080e42 	strhi	r0, [r8], #-3650	; 0xfffff1be
 88c:	00018e02 	andeq	r8, r1, r2, lsl #28
 890:	0000000c 	andeq	r0, r0, ip
 894:	00000868 	andeq	r0, r0, r8, ror #16
 898:	00009e60 	andeq	r9, r0, r0, ror #28
 89c:	00000018 	andeq	r0, r0, r8, lsl r0
 8a0:	0000000c 	andeq	r0, r0, ip
 8a4:	00000868 	andeq	r0, r0, r8, ror #16
 8a8:	00009e78 	andeq	r9, r0, r8, ror lr
 8ac:	00000010 	andeq	r0, r0, r0, lsl r0
 8b0:	0000000c 	andeq	r0, r0, ip
 8b4:	ffffffff 			; <UNDEFINED> instruction: 0xffffffff
 8b8:	7c020001 	stcvc	0, cr0, [r2], {1}
 8bc:	000d0c0e 	andeq	r0, sp, lr, lsl #24
 8c0:	0000000c 	andeq	r0, r0, ip
 8c4:	000008b0 			; <UNDEFINED> instruction: 0x000008b0
 8c8:	00009e88 	andeq	r9, r0, r8, lsl #29
 8cc:	00000034 	andeq	r0, r0, r4, lsr r0
 8d0:	0000000c 	andeq	r0, r0, ip
 8d4:	ffffffff 			; <UNDEFINED> instruction: 0xffffffff
 8d8:	7c020001 	stcvc	0, cr0, [r2], {1}
 8dc:	000d0c0e 	andeq	r0, sp, lr, lsl #24
 8e0:	0000000c 	andeq	r0, r0, ip
 8e4:	000008d0 	ldrdeq	r0, [r0], -r0	; <UNPREDICTABLE>
 8e8:	00009ebc 			; <UNDEFINED> instruction: 0x00009ebc
 8ec:	0000002c 	andeq	r0, r0, ip, lsr #32
 8f0:	0000000c 	andeq	r0, r0, ip
 8f4:	ffffffff 			; <UNDEFINED> instruction: 0xffffffff
 8f8:	7c020001 	stcvc	0, cr0, [r2], {1}
 8fc:	000d0c0e 	andeq	r0, sp, lr, lsl #24
 900:	0000000c 	andeq	r0, r0, ip
 904:	000008f0 	strdeq	r0, [r0], -r0	; <UNPREDICTABLE>
 908:	00009ee8 	andeq	r9, r0, r8, ror #29
 90c:	00000020 	andeq	r0, r0, r0, lsr #32
 910:	0000000c 	andeq	r0, r0, ip
 914:	ffffffff 			; <UNDEFINED> instruction: 0xffffffff
 918:	7c020001 	stcvc	0, cr0, [r2], {1}
 91c:	000d0c0e 	andeq	r0, sp, lr, lsl #24
 920:	0000000c 	andeq	r0, r0, ip
 924:	00000910 	andeq	r0, r0, r0, lsl r9
 928:	00009f08 	andeq	r9, r0, r8, lsl #30
 92c:	0000002c 	andeq	r0, r0, ip, lsr #32
 930:	0000000c 	andeq	r0, r0, ip
 934:	ffffffff 			; <UNDEFINED> instruction: 0xffffffff
 938:	7c020001 	stcvc	0, cr0, [r2], {1}
 93c:	000d0c0e 	andeq	r0, sp, lr, lsl #24
 940:	0000000c 	andeq	r0, r0, ip
 944:	00000930 	andeq	r0, r0, r0, lsr r9
 948:	00009f34 	andeq	r9, r0, r4, lsr pc
 94c:	00000004 	andeq	r0, r0, r4
 950:	0000000c 	andeq	r0, r0, ip
 954:	ffffffff 			; <UNDEFINED> instruction: 0xffffffff
 958:	7c020001 	stcvc	0, cr0, [r2], {1}
 95c:	000d0c0e 	andeq	r0, sp, lr, lsl #24
 960:	00000018 	andeq	r0, r0, r8, lsl r0
 964:	00000950 	andeq	r0, r0, r0, asr r9
 968:	00009f50 	andeq	r9, r0, r0, asr pc
 96c:	00000064 	andeq	r0, r0, r4, rrx
 970:	84100e46 	ldrhi	r0, [r0], #-3654	; 0xfffff1ba
 974:	86038504 	strhi	r8, [r3], -r4, lsl #10
 978:	00018e02 	andeq	r8, r1, r2, lsl #28
 97c:	00000014 	andeq	r0, r0, r4, lsl r0
 980:	00000950 	andeq	r0, r0, r0, asr r9
 984:	00009fb4 			; <UNDEFINED> instruction: 0x00009fb4
 988:	00000010 	andeq	r0, r0, r0, lsl r0
 98c:	84080e42 	strhi	r0, [r8], #-3650	; 0xfffff1be
 990:	00018e02 	andeq	r8, r1, r2, lsl #28
 994:	00000014 	andeq	r0, r0, r4, lsl r0
 998:	00000950 	andeq	r0, r0, r0, asr r9
 99c:	00009fc4 	andeq	r9, r0, r4, asr #31
 9a0:	00000024 	andeq	r0, r0, r4, lsr #32
 9a4:	84080e46 	strhi	r0, [r8], #-3654	; 0xfffff1ba
 9a8:	00018e02 	andeq	r8, r1, r2, lsl #28
 9ac:	00000014 	andeq	r0, r0, r4, lsl r0
 9b0:	00000950 	andeq	r0, r0, r0, asr r9
 9b4:	00009fe8 	andeq	r9, r0, r8, ror #31
 9b8:	00000024 	andeq	r0, r0, r4, lsr #32
 9bc:	84080e46 	strhi	r0, [r8], #-3654	; 0xfffff1ba
 9c0:	00018e02 	andeq	r8, r1, r2, lsl #28
 9c4:	00000014 	andeq	r0, r0, r4, lsl r0
 9c8:	00000950 	andeq	r0, r0, r0, asr r9
 9cc:	0000a00c 	andeq	sl, r0, ip
 9d0:	00000010 	andeq	r0, r0, r0, lsl r0
 9d4:	84080e42 	strhi	r0, [r8], #-3650	; 0xfffff1be
 9d8:	00018e02 	andeq	r8, r1, r2, lsl #28
 9dc:	00000014 	andeq	r0, r0, r4, lsl r0
 9e0:	00000950 	andeq	r0, r0, r0, asr r9
 9e4:	0000a01c 	andeq	sl, r0, ip, lsl r0
 9e8:	0000001c 	andeq	r0, r0, ip, lsl r0
 9ec:	84080e42 	strhi	r0, [r8], #-3650	; 0xfffff1be
 9f0:	00018e02 	andeq	r8, r1, r2, lsl #28
 9f4:	00000018 	andeq	r0, r0, r8, lsl r0
 9f8:	00000950 	andeq	r0, r0, r0, asr r9
 9fc:	0000a038 	andeq	sl, r0, r8, lsr r0
 a00:	00000034 	andeq	r0, r0, r4, lsr r0
 a04:	84080e46 	strhi	r0, [r8], #-3654	; 0xfffff1ba
 a08:	4e018e02 	cdpmi	14, 0, cr8, cr1, cr2, {0}
 a0c:	cec4000e 	cdpgt	0, 12, cr0, cr4, cr14, {0}
