
tests-3.0/part1-test3-bug.elf:     file format elf32-littlearm


Disassembly of section .text:

00008000 <__code_start__>:
    8000:	e3a00013 	mov	r0, #19, 0
    8004:	e3800080 	orr	r0, r0, #128, 0	; 0x80
    8008:	e129f000 	msr	CPSR_fc, r0
    800c:	e3a01000 	mov	r1, #0, 0
    8010:	ee071f95 	mcr	15, 0, r1, cr7, cr5, {4}
    8014:	e3a0d302 	mov	sp, #134217728	; 0x8000000
    8018:	e3a0b000 	mov	fp, #0, 0
    801c:	eb0005a7 	bl	96c0 <_cstart>
    8020:	eb0005c1 	bl	972c <rpi_reboot>

00008024 <PUT32>:
    8024:	e5801000 	str	r1, [r0]
    8028:	e12fff1e 	bx	lr

0000802c <GET32>:
    802c:	e5900000 	ldr	r0, [r0]
    8030:	e12fff1e 	bx	lr

00008034 <BRANCHTO>:
    8034:	e12fff10 	bx	r0

00008038 <ck_blk_id>:
    8038:	e510009c 	ldr	r0, [r0, #-156]	; 0xffffff64
    803c:	e12fff1e 	bx	lr

00008040 <notmain>:
    8040:	e92d4070 	push	{r4, r5, r6, lr}
    8044:	e24dd020 	sub	sp, sp, #32, 0
    8048:	e59f00a8 	ldr	r0, [pc, #168]	; 80f8 <notmain+0xb8>
    804c:	eb00039d 	bl	8ec8 <printk>
    8050:	e59f60a4 	ldr	r6, [pc, #164]	; 80fc <notmain+0xbc>
    8054:	e58d6008 	str	r6, [sp, #8]
    8058:	e59f50a0 	ldr	r5, [pc, #160]	; 8100 <notmain+0xc0>
    805c:	e58d500c 	str	r5, [sp, #12]
    8060:	e3a03009 	mov	r3, #9, 0
    8064:	e58d3010 	str	r3, [sp, #16]
    8068:	e28d3008 	add	r3, sp, #8, 0
    806c:	e893000e 	ldm	r3, {r1, r2, r3}
    8070:	e3a00004 	mov	r0, #4, 0
    8074:	eb000138 	bl	855c <ckalloc>
    8078:	e1a04000 	mov	r4, r0
    807c:	e3a02004 	mov	r2, #4, 0
    8080:	e3a01000 	mov	r1, #0, 0
    8084:	eb000389 	bl	8eb0 <memset>
    8088:	e58d6014 	str	r6, [sp, #20]
    808c:	e58d5018 	str	r5, [sp, #24]
    8090:	e3a0300b 	mov	r3, #11, 0
    8094:	e58d301c 	str	r3, [sp, #28]
    8098:	e28d3020 	add	r3, sp, #32, 0
    809c:	e913000e 	ldmdb	r3, {r1, r2, r3}
    80a0:	e1a00004 	mov	r0, r4
    80a4:	eb0000d0 	bl	83ec <ckfree>
    80a8:	e3a03001 	mov	r3, #1, 0
    80ac:	e5c43000 	strb	r3, [r4]
    80b0:	eb0000a4 	bl	8348 <ck_heap_errors>
    80b4:	e3500001 	cmp	r0, #1, 0
    80b8:	1a000007 	bne	80dc <notmain+0x9c>
    80bc:	e1a00004 	mov	r0, r4
    80c0:	ebffffdc 	bl	8038 <ck_blk_id>
    80c4:	e1a01000 	mov	r1, r0
    80c8:	e1a02004 	mov	r2, r4
    80cc:	e59f0030 	ldr	r0, [pc, #48]	; 8104 <notmain+0xc4>
    80d0:	eb00037c 	bl	8ec8 <printk>
    80d4:	e28dd020 	add	sp, sp, #32, 0
    80d8:	e8bd8070 	pop	{r4, r5, r6, pc}
    80dc:	e58d0000 	str	r0, [sp]
    80e0:	e3a03010 	mov	r3, #16, 0
    80e4:	e1a02005 	mov	r2, r5
    80e8:	e1a01006 	mov	r1, r6
    80ec:	e59f0014 	ldr	r0, [pc, #20]	; 8108 <notmain+0xc8>
    80f0:	eb000374 	bl	8ec8 <printk>
    80f4:	eb000566 	bl	9694 <clean_reboot>
    80f8:	00009fc8 	andeq	r9, r0, r8, asr #31
    80fc:	00009fe0 	andeq	r9, r0, r0, ror #31
    8100:	0000a068 	andeq	sl, r0, r8, rrx
    8104:	0000a038 	andeq	sl, r0, r8, lsr r0
    8108:	00009ffc 	strdeq	r9, [r0], -ip

0000810c <list_append>:
    810c:	e59f3058 	ldr	r3, [pc, #88]	; 816c <list_append+0x60>
    8110:	e5933000 	ldr	r3, [r3]
    8114:	e3530000 	cmp	r3, #0, 0
    8118:	0a000005 	beq	8134 <list_append+0x28>
    811c:	e3500000 	cmp	r0, #0, 0
    8120:	0a000007 	beq	8144 <list_append+0x38>
    8124:	e59f2040 	ldr	r2, [pc, #64]	; 816c <list_append+0x60>
    8128:	e5821000 	str	r1, [r2]
    812c:	e5831000 	str	r1, [r3]
    8130:	e12fff1e 	bx	lr
    8134:	e59f3030 	ldr	r3, [pc, #48]	; 816c <list_append+0x60>
    8138:	e5831004 	str	r1, [r3, #4]
    813c:	e5831000 	str	r1, [r3]
    8140:	e12fff1e 	bx	lr
    8144:	e52de004 	push	{lr}		; (str lr, [sp, #-4]!)
    8148:	e24dd00c 	sub	sp, sp, #12, 0
    814c:	e59f301c 	ldr	r3, [pc, #28]	; 8170 <list_append+0x64>
    8150:	e58d3000 	str	r3, [sp]
    8154:	e3a03025 	mov	r3, #37, 0	; 0x25
    8158:	e59f2014 	ldr	r2, [pc, #20]	; 8174 <list_append+0x68>
    815c:	e59f1014 	ldr	r1, [pc, #20]	; 8178 <list_append+0x6c>
    8160:	e59f0014 	ldr	r0, [pc, #20]	; 817c <list_append+0x70>
    8164:	eb000357 	bl	8ec8 <printk>
    8168:	eb000549 	bl	9694 <clean_reboot>
    816c:	0000a9d8 	ldrdeq	sl, [r0], -r8
    8170:	0000a090 	muleq	r0, r0, r0
    8174:	0000a264 	andeq	sl, r0, r4, ror #4
    8178:	0000a070 	andeq	sl, r0, r0, ror r0
    817c:	0000a07c 	andeq	sl, r0, ip, ror r0

00008180 <ck_first_hdr>:
    8180:	e59f3004 	ldr	r3, [pc, #4]	; 818c <ck_first_hdr+0xc>
    8184:	e5930004 	ldr	r0, [r3, #4]
    8188:	e12fff1e 	bx	lr
    818c:	0000a9d8 	ldrdeq	sl, [r0], -r8

00008190 <ck_next_hdr>:
    8190:	e3500000 	cmp	r0, #0, 0
    8194:	012fff1e 	bxeq	lr
    8198:	e5900000 	ldr	r0, [r0]
    819c:	e12fff1e 	bx	lr

000081a0 <ck_hdr_start>:
    81a0:	e28000a8 	add	r0, r0, #168, 0	; 0xa8
    81a4:	e12fff1e 	bx	lr

000081a8 <ck_hdr_end>:
    81a8:	e92d4010 	push	{r4, lr}
    81ac:	e1a04000 	mov	r4, r0
    81b0:	ebfffffa 	bl	81a0 <ck_hdr_start>
    81b4:	e5943004 	ldr	r3, [r4, #4]
    81b8:	e0800003 	add	r0, r0, r3
    81bc:	e8bd8010 	pop	{r4, pc}

000081c0 <ck_ptr_in_block>:
    81c0:	e5903004 	ldr	r3, [r0, #4]
    81c4:	e28330a8 	add	r3, r3, #168, 0	; 0xa8
    81c8:	e0803003 	add	r3, r0, r3
    81cc:	e1530001 	cmp	r3, r1
    81d0:	3a000004 	bcc	81e8 <ck_ptr_in_block+0x28>
    81d4:	e28000a8 	add	r0, r0, #168, 0	; 0xa8
    81d8:	e1500001 	cmp	r0, r1
    81dc:	9a000003 	bls	81f0 <ck_ptr_in_block+0x30>
    81e0:	e3a00000 	mov	r0, #0, 0
    81e4:	e12fff1e 	bx	lr
    81e8:	e3a00000 	mov	r0, #0, 0
    81ec:	e12fff1e 	bx	lr
    81f0:	e3a00001 	mov	r0, #1, 0
    81f4:	e12fff1e 	bx	lr

000081f8 <ck_ptr_to_hdr>:
    81f8:	e92d4070 	push	{r4, r5, r6, lr}
    81fc:	e1a05000 	mov	r5, r0
    8200:	ebffffde 	bl	8180 <ck_first_hdr>
    8204:	e1a04000 	mov	r4, r0
    8208:	e3540000 	cmp	r4, #0, 0
    820c:	0a00000c 	beq	8244 <ck_ptr_to_hdr+0x4c>
    8210:	e1a01005 	mov	r1, r5
    8214:	e1a00004 	mov	r0, r4
    8218:	ebffffe8 	bl	81c0 <ck_ptr_in_block>
    821c:	e3500000 	cmp	r0, #0, 0
    8220:	1a000003 	bne	8234 <ck_ptr_to_hdr+0x3c>
    8224:	e1a00004 	mov	r0, r4
    8228:	ebffffd8 	bl	8190 <ck_next_hdr>
    822c:	e1a04000 	mov	r4, r0
    8230:	eafffff4 	b	8208 <ck_ptr_to_hdr+0x10>
    8234:	e1a02004 	mov	r2, r4
    8238:	e1a01005 	mov	r1, r5
    823c:	e59f0008 	ldr	r0, [pc, #8]	; 824c <ck_ptr_to_hdr+0x54>
    8240:	eb000320 	bl	8ec8 <printk>
    8244:	e1a00004 	mov	r0, r4
    8248:	e8bd8070 	pop	{r4, r5, r6, pc}
    824c:	0000a094 	muleq	r0, r4, r0

00008250 <ck_ptr_is_alloced>:
    8250:	e92d4070 	push	{r4, r5, r6, lr}
    8254:	e1a05000 	mov	r5, r0
    8258:	ebffffc8 	bl	8180 <ck_first_hdr>
    825c:	e1a04000 	mov	r4, r0
    8260:	ea000002 	b	8270 <ck_ptr_is_alloced+0x20>
    8264:	e1a00004 	mov	r0, r4
    8268:	ebffffc8 	bl	8190 <ck_next_hdr>
    826c:	e1a04000 	mov	r4, r0
    8270:	e3540000 	cmp	r4, #0, 0
    8274:	0a00000b 	beq	82a8 <ck_ptr_is_alloced+0x58>
    8278:	e1a01005 	mov	r1, r5
    827c:	e1a00004 	mov	r0, r4
    8280:	ebffffce 	bl	81c0 <ck_ptr_in_block>
    8284:	e3500000 	cmp	r0, #0, 0
    8288:	0afffff5 	beq	8264 <ck_ptr_is_alloced+0x14>
    828c:	e5943008 	ldr	r3, [r4, #8]
    8290:	e353000b 	cmp	r3, #11, 0
    8294:	1afffff2 	bne	8264 <ck_ptr_is_alloced+0x14>
    8298:	e1a02004 	mov	r2, r4
    829c:	e1a01005 	mov	r1, r5
    82a0:	e59f0008 	ldr	r0, [pc, #8]	; 82b0 <ck_ptr_is_alloced+0x60>
    82a4:	eb000307 	bl	8ec8 <printk>
    82a8:	e1a00004 	mov	r0, r4
    82ac:	e8bd8070 	pop	{r4, r5, r6, pc}
    82b0:	0000a0ac 	andeq	sl, r0, ip, lsr #1

000082b4 <ck_check_redzones>:
    82b4:	e92d4070 	push	{r4, r5, r6, lr}
    82b8:	e1a05000 	mov	r5, r0
    82bc:	e1a04001 	mov	r4, r1
    82c0:	ebffffb8 	bl	81a8 <ck_hdr_end>
    82c4:	e1a06000 	mov	r6, r0
    82c8:	e3a02080 	mov	r2, #128, 0	; 0x80
    82cc:	e1a01004 	mov	r1, r4
    82d0:	e2850028 	add	r0, r5, #40, 0	; 0x28
    82d4:	eb0002d0 	bl	8e1c <memcmp>
    82d8:	e1a05000 	mov	r5, r0
    82dc:	e3a02080 	mov	r2, #128, 0	; 0x80
    82e0:	e1a01004 	mov	r1, r4
    82e4:	e1a00006 	mov	r0, r6
    82e8:	eb0002cb 	bl	8e1c <memcmp>
    82ec:	e1953000 	orrs	r3, r5, r0
    82f0:	13a00001 	movne	r0, #1, 0
    82f4:	03a00000 	moveq	r0, #0, 0
    82f8:	e8bd8070 	pop	{r4, r5, r6, pc}

000082fc <ck_check_udata>:
    82fc:	e5903008 	ldr	r3, [r0, #8]
    8300:	e353000c 	cmp	r3, #12, 0
    8304:	1a00000b 	bne	8338 <ck_check_udata+0x3c>
    8308:	e3a03000 	mov	r3, #0, 0
    830c:	e5902004 	ldr	r2, [r0, #4]
    8310:	e1520003 	cmp	r2, r3
    8314:	9a000005 	bls	8330 <ck_check_udata+0x34>
    8318:	e0802003 	add	r2, r0, r3
    831c:	e5d220a8 	ldrb	r2, [r2, #168]	; 0xa8
    8320:	e35200fe 	cmp	r2, #254, 0	; 0xfe
    8324:	1a000005 	bne	8340 <ck_check_udata+0x44>
    8328:	e2833001 	add	r3, r3, #1, 0
    832c:	eafffff6 	b	830c <ck_check_udata+0x10>
    8330:	e3a00000 	mov	r0, #0, 0
    8334:	e12fff1e 	bx	lr
    8338:	e3a00000 	mov	r0, #0, 0
    833c:	e12fff1e 	bx	lr
    8340:	e3a00001 	mov	r0, #1, 0
    8344:	e12fff1e 	bx	lr

00008348 <ck_heap_errors>:
    8348:	e92d4070 	push	{r4, r5, r6, lr}
    834c:	e24dd080 	sub	sp, sp, #128, 0	; 0x80
    8350:	e59f0088 	ldr	r0, [pc, #136]	; 83e0 <ck_heap_errors+0x98>
    8354:	eb0002db 	bl	8ec8 <printk>
    8358:	ebffff88 	bl	8180 <ck_first_hdr>
    835c:	e1a04000 	mov	r4, r0
    8360:	e3a02080 	mov	r2, #128, 0	; 0x80
    8364:	e2801028 	add	r1, r0, #40, 0	; 0x28
    8368:	e1a0000d 	mov	r0, sp
    836c:	eb0002b7 	bl	8e50 <memcpy>
    8370:	e1a06000 	mov	r6, r0
    8374:	e3a05000 	mov	r5, #0, 0
    8378:	ea000009 	b	83a4 <ck_heap_errors+0x5c>
    837c:	e59f0060 	ldr	r0, [pc, #96]	; 83e4 <ck_heap_errors+0x9c>
    8380:	eb0002d0 	bl	8ec8 <printk>
    8384:	e2855001 	add	r5, r5, #1, 0
    8388:	ea00000c 	b	83c0 <ck_heap_errors+0x78>
    838c:	e59f0054 	ldr	r0, [pc, #84]	; 83e8 <ck_heap_errors+0xa0>
    8390:	eb0002cc 	bl	8ec8 <printk>
    8394:	e2855001 	add	r5, r5, #1, 0
    8398:	e1a00004 	mov	r0, r4
    839c:	ebffff7b 	bl	8190 <ck_next_hdr>
    83a0:	e1a04000 	mov	r4, r0
    83a4:	e3540000 	cmp	r4, #0, 0
    83a8:	0a000009 	beq	83d4 <ck_heap_errors+0x8c>
    83ac:	e1a01006 	mov	r1, r6
    83b0:	e1a00004 	mov	r0, r4
    83b4:	ebffffbe 	bl	82b4 <ck_check_redzones>
    83b8:	e3500000 	cmp	r0, #0, 0
    83bc:	1affffee 	bne	837c <ck_heap_errors+0x34>
    83c0:	e1a00004 	mov	r0, r4
    83c4:	ebffffcc 	bl	82fc <ck_check_udata>
    83c8:	e3500000 	cmp	r0, #0, 0
    83cc:	0afffff1 	beq	8398 <ck_heap_errors+0x50>
    83d0:	eaffffed 	b	838c <ck_heap_errors+0x44>
    83d4:	e1a00005 	mov	r0, r5
    83d8:	e28dd080 	add	sp, sp, #128, 0	; 0x80
    83dc:	e8bd8070 	pop	{r4, r5, r6, pc}
    83e0:	0000a0cc 	andeq	sl, r0, ip, asr #1
    83e4:	0000a0f0 	strdeq	sl, [r0], -r0
    83e8:	0000a114 	andeq	sl, r0, r4, lsl r1

000083ec <ckfree>:
    83ec:	e92d4030 	push	{r4, r5, lr}
    83f0:	e24dd09c 	sub	sp, sp, #156, 0	; 0x9c
    83f4:	e1a04000 	mov	r4, r0
    83f8:	e28d000c 	add	r0, sp, #12, 0
    83fc:	e880000e 	stm	r0, {r1, r2, r3}
    8400:	e51430a0 	ldr	r3, [r4, #-160]	; 0xffffff60
    8404:	e353000b 	cmp	r3, #11, 0
    8408:	1a000018 	bne	8470 <ckfree+0x84>
    840c:	e24450a8 	sub	r5, r4, #168, 0	; 0xa8
    8410:	e59d3014 	ldr	r3, [sp, #20]
    8414:	e59d2010 	ldr	r2, [sp, #16]
    8418:	e59d100c 	ldr	r1, [sp, #12]
    841c:	e59f0110 	ldr	r0, [pc, #272]	; 8534 <ckfree+0x148>
    8420:	eb0002a8 	bl	8ec8 <printk>
    8424:	e1a02004 	mov	r2, r4
    8428:	e514109c 	ldr	r1, [r4, #-156]	; 0xffffff64
    842c:	e59f0104 	ldr	r0, [pc, #260]	; 8538 <ckfree+0x14c>
    8430:	eb0002a4 	bl	8ec8 <printk>
    8434:	e1a00004 	mov	r0, r4
    8438:	ebffff84 	bl	8250 <ck_ptr_is_alloced>
    843c:	e3500000 	cmp	r0, #0, 0
    8440:	0a000013 	beq	8494 <ckfree+0xa8>
    8444:	e3a0300c 	mov	r3, #12, 0
    8448:	e50430a0 	str	r3, [r4, #-160]	; 0xffffff60
    844c:	e3a03000 	mov	r3, #0, 0
    8450:	e353007f 	cmp	r3, #127, 0	; 0x7f
    8454:	8a000016 	bhi	84b4 <ckfree+0xc8>
    8458:	e28d2098 	add	r2, sp, #152, 0	; 0x98
    845c:	e0822003 	add	r2, r2, r3
    8460:	e3e01001 	mvn	r1, #1, 0
    8464:	e5421080 	strb	r1, [r2, #-128]	; 0xffffff80
    8468:	e2833001 	add	r3, r3, #1, 0
    846c:	eafffff7 	b	8450 <ckfree+0x64>
    8470:	e59d3014 	ldr	r3, [sp, #20]
    8474:	e59d2010 	ldr	r2, [sp, #16]
    8478:	e59f00bc 	ldr	r0, [pc, #188]	; 853c <ckfree+0x150>
    847c:	eb000291 	bl	8ec8 <printk>
    8480:	e51420a0 	ldr	r2, [r4, #-160]	; 0xffffff60
    8484:	e1a01004 	mov	r1, r4
    8488:	e59f00b0 	ldr	r0, [pc, #176]	; 8540 <ckfree+0x154>
    848c:	eb00028d 	bl	8ec8 <printk>
    8490:	eb00047f 	bl	9694 <clean_reboot>
    8494:	e59f30a8 	ldr	r3, [pc, #168]	; 8544 <ckfree+0x158>
    8498:	e58d3000 	str	r3, [sp]
    849c:	e3a03097 	mov	r3, #151, 0	; 0x97
    84a0:	e59f20a0 	ldr	r2, [pc, #160]	; 8548 <ckfree+0x15c>
    84a4:	e59f10a0 	ldr	r1, [pc, #160]	; 854c <ckfree+0x160>
    84a8:	e59f00a0 	ldr	r0, [pc, #160]	; 8550 <ckfree+0x164>
    84ac:	eb000285 	bl	8ec8 <printk>
    84b0:	eb000477 	bl	9694 <clean_reboot>
    84b4:	e28d1018 	add	r1, sp, #24, 0
    84b8:	e1a00005 	mov	r0, r5
    84bc:	ebffff7c 	bl	82b4 <ck_check_redzones>
    84c0:	e3500000 	cmp	r0, #0, 0
    84c4:	1a000009 	bne	84f0 <ckfree+0x104>
    84c8:	e51420a4 	ldr	r2, [r4, #-164]	; 0xffffff5c
    84cc:	e3a010fe 	mov	r1, #254, 0	; 0xfe
    84d0:	e1a00004 	mov	r0, r4
    84d4:	eb000275 	bl	8eb0 <memset>
    84d8:	e1a00004 	mov	r0, r4
    84dc:	ebffff5b 	bl	8250 <ck_ptr_is_alloced>
    84e0:	e3500000 	cmp	r0, #0, 0
    84e4:	1a00000a 	bne	8514 <ckfree+0x128>
    84e8:	e28dd09c 	add	sp, sp, #156, 0	; 0x9c
    84ec:	e8bd8030 	pop	{r4, r5, pc}
    84f0:	e58d5004 	str	r5, [sp, #4]
    84f4:	e514309c 	ldr	r3, [r4, #-156]	; 0xffffff64
    84f8:	e58d3000 	str	r3, [sp]
    84fc:	e3a0309f 	mov	r3, #159, 0	; 0x9f
    8500:	e59f2040 	ldr	r2, [pc, #64]	; 8548 <ckfree+0x15c>
    8504:	e59f1040 	ldr	r1, [pc, #64]	; 854c <ckfree+0x160>
    8508:	e59f0044 	ldr	r0, [pc, #68]	; 8554 <ckfree+0x168>
    850c:	eb00026d 	bl	8ec8 <printk>
    8510:	eb00045f 	bl	9694 <clean_reboot>
    8514:	e59f303c 	ldr	r3, [pc, #60]	; 8558 <ckfree+0x16c>
    8518:	e58d3000 	str	r3, [sp]
    851c:	e3a030a2 	mov	r3, #162, 0	; 0xa2
    8520:	e59f2020 	ldr	r2, [pc, #32]	; 8548 <ckfree+0x15c>
    8524:	e59f1020 	ldr	r1, [pc, #32]	; 854c <ckfree+0x160>
    8528:	e59f0020 	ldr	r0, [pc, #32]	; 8550 <ckfree+0x164>
    852c:	eb000265 	bl	8ec8 <printk>
    8530:	eb000457 	bl	9694 <clean_reboot>
    8534:	0000a180 	andeq	sl, r0, r0, lsl #3
    8538:	0000a18c 	andeq	sl, r0, ip, lsl #3
    853c:	0000a134 	andeq	sl, r0, r4, lsr r1
    8540:	0000a14c 	andeq	sl, r0, ip, asr #2
    8544:	0000a1ac 	andeq	sl, r0, ip, lsr #3
    8548:	0000a270 	andeq	sl, r0, r0, ror r2
    854c:	0000a070 	andeq	sl, r0, r0, ror r0
    8550:	0000a07c 	andeq	sl, r0, ip, ror r0
    8554:	0000a1cc 	andeq	sl, r0, ip, asr #3
    8558:	0000a224 	andeq	sl, r0, r4, lsr #4

0000855c <ckalloc>:
    855c:	e92d4070 	push	{r4, r5, r6, lr}
    8560:	e24dd010 	sub	sp, sp, #16, 0
    8564:	e1a06000 	mov	r6, r0
    8568:	e28d5004 	add	r5, sp, #4, 0
    856c:	e885000e 	stm	r5, {r1, r2, r3}
    8570:	e2800f4a 	add	r0, r0, #296	; 0x128
    8574:	eb0001fd 	bl	8d70 <kr_malloc>
    8578:	e1a04000 	mov	r4, r0
    857c:	e3a020a8 	mov	r2, #168, 0	; 0xa8
    8580:	e3a01000 	mov	r1, #0, 0
    8584:	eb000249 	bl	8eb0 <memset>
    8588:	e3a02080 	mov	r2, #128, 0	; 0x80
    858c:	e3a010fe 	mov	r1, #254, 0	; 0xfe
    8590:	e2840028 	add	r0, r4, #40, 0	; 0x28
    8594:	eb000245 	bl	8eb0 <memset>
    8598:	e5846004 	str	r6, [r4, #4]
    859c:	e3a0300b 	mov	r3, #11, 0
    85a0:	e5843008 	str	r3, [r4, #8]
    85a4:	e2843010 	add	r3, r4, #16, 0
    85a8:	e8950007 	ldm	r5, {r0, r1, r2}
    85ac:	e8830007 	stm	r3, {r0, r1, r2}
    85b0:	e3a03000 	mov	r3, #0, 0
    85b4:	e5843000 	str	r3, [r4]
    85b8:	e1c432b4 	strh	r3, [r4, #36]	; 0x24
    85bc:	e1a00004 	mov	r0, r4
    85c0:	ebfffef8 	bl	81a8 <ck_hdr_end>
    85c4:	e3a02080 	mov	r2, #128, 0	; 0x80
    85c8:	e3a010fe 	mov	r1, #254, 0	; 0xfe
    85cc:	eb000237 	bl	8eb0 <memset>
    85d0:	e59f2050 	ldr	r2, [pc, #80]	; 8628 <ckalloc+0xcc>
    85d4:	e5923000 	ldr	r3, [r2]
    85d8:	e584300c 	str	r3, [r4, #12]
    85dc:	e2833001 	add	r3, r3, #1, 0
    85e0:	e5823000 	str	r3, [r2]
    85e4:	e59d300c 	ldr	r3, [sp, #12]
    85e8:	e59d2008 	ldr	r2, [sp, #8]
    85ec:	e59d1004 	ldr	r1, [sp, #4]
    85f0:	e59f0034 	ldr	r0, [pc, #52]	; 862c <ckalloc+0xd0>
    85f4:	eb000233 	bl	8ec8 <printk>
    85f8:	e28450a8 	add	r5, r4, #168, 0	; 0xa8
    85fc:	e1a02005 	mov	r2, r5
    8600:	e594100c 	ldr	r1, [r4, #12]
    8604:	e59f0024 	ldr	r0, [pc, #36]	; 8630 <ckalloc+0xd4>
    8608:	eb00022e 	bl	8ec8 <printk>
    860c:	e1a01004 	mov	r1, r4
    8610:	e59f301c 	ldr	r3, [pc, #28]	; 8634 <ckalloc+0xd8>
    8614:	e5930004 	ldr	r0, [r3, #4]
    8618:	ebfffebb 	bl	810c <list_append>
    861c:	e1a00005 	mov	r0, r5
    8620:	e28dd010 	add	sp, sp, #16, 0
    8624:	e8bd8070 	pop	{r4, r5, r6, pc}
    8628:	0000a9c0 	andeq	sl, r0, r0, asr #19
    862c:	0000a180 	andeq	sl, r0, r0, lsl #3
    8630:	0000a240 	andeq	sl, r0, r0, asr #4
    8634:	0000a9d8 	ldrdeq	sl, [r0], -r8

00008638 <in_heap>:
    8638:	e59f3030 	ldr	r3, [pc, #48]	; 8670 <in_heap+0x38>
    863c:	e5933000 	ldr	r3, [r3]
    8640:	e1530000 	cmp	r3, r0
    8644:	8a000005 	bhi	8660 <in_heap+0x28>
    8648:	e59f3020 	ldr	r3, [pc, #32]	; 8670 <in_heap+0x38>
    864c:	e5933004 	ldr	r3, [r3, #4]
    8650:	e1530000 	cmp	r3, r0
    8654:	9a000003 	bls	8668 <in_heap+0x30>
    8658:	e3a00001 	mov	r0, #1, 0
    865c:	e12fff1e 	bx	lr
    8660:	e3a00000 	mov	r0, #0, 0
    8664:	e12fff1e 	bx	lr
    8668:	e3a00000 	mov	r0, #0, 0
    866c:	e12fff1e 	bx	lr
    8670:	0000a9e0 	andeq	sl, r0, r0, ror #19

00008674 <sweep_leak>:
    8674:	e92d41f0 	push	{r4, r5, r6, r7, r8, lr}
    8678:	e1a06000 	mov	r6, r0
    867c:	e59f0144 	ldr	r0, [pc, #324]	; 87c8 <sweep_leak+0x154>
    8680:	eb000210 	bl	8ec8 <printk>
    8684:	e59f0140 	ldr	r0, [pc, #320]	; 87cc <sweep_leak+0x158>
    8688:	eb00020e 	bl	8ec8 <printk>
    868c:	ebfffebb 	bl	8180 <ck_first_hdr>
    8690:	e1a04000 	mov	r4, r0
    8694:	e3a07000 	mov	r7, #0, 0
    8698:	e1a08007 	mov	r8, r7
    869c:	e1a05007 	mov	r5, r7
    86a0:	ea00002a 	b	8750 <sweep_leak+0xdc>
    86a4:	e3a00000 	mov	r0, #0, 0
    86a8:	e351000b 	cmp	r1, #11, 0
    86ac:	0a00000f 	beq	86f0 <sweep_leak+0x7c>
    86b0:	e1130000 	tst	r3, r0
    86b4:	1a000018 	bne	871c <sweep_leak+0xa8>
    86b8:	e3560000 	cmp	r6, #0, 0
    86bc:	1a00001b 	bne	8730 <sweep_leak+0xbc>
    86c0:	e5943020 	ldr	r3, [r4, #32]
    86c4:	e3530000 	cmp	r3, #0, 0
    86c8:	0a000018 	beq	8730 <sweep_leak+0xbc>
    86cc:	e351000b 	cmp	r1, #11, 0
    86d0:	0a000016 	beq	8730 <sweep_leak+0xbc>
    86d4:	e1a01004 	mov	r1, r4
    86d8:	e59f00f0 	ldr	r0, [pc, #240]	; 87d0 <sweep_leak+0x15c>
    86dc:	eb0001f9 	bl	8ec8 <printk>
    86e0:	e2877001 	add	r7, r7, #1, 0
    86e4:	ea000011 	b	8730 <sweep_leak+0xbc>
    86e8:	e3a00001 	mov	r0, #1, 0
    86ec:	eaffffed 	b	86a8 <sweep_leak+0x34>
    86f0:	e1d4c2b4 	ldrh	ip, [r4, #36]	; 0x24
    86f4:	e35c0000 	cmp	ip, #0, 0
    86f8:	1affffec 	bne	86b0 <sweep_leak+0x3c>
    86fc:	e5943020 	ldr	r3, [r4, #32]
    8700:	e1a01004 	mov	r1, r4
    8704:	e59f00c8 	ldr	r0, [pc, #200]	; 87d4 <sweep_leak+0x160>
    8708:	eb0001ee 	bl	8ec8 <printk>
    870c:	e3a03001 	mov	r3, #1, 0
    8710:	e1c432b6 	strh	r3, [r4, #38]	; 0x26
    8714:	e0888003 	add	r8, r8, r3
    8718:	ea000004 	b	8730 <sweep_leak+0xbc>
    871c:	e5943020 	ldr	r3, [r4, #32]
    8720:	e1a01004 	mov	r1, r4
    8724:	e59f00ac 	ldr	r0, [pc, #172]	; 87d8 <sweep_leak+0x164>
    8728:	eb0001e6 	bl	8ec8 <printk>
    872c:	e2877001 	add	r7, r7, #1, 0
    8730:	e5943020 	ldr	r3, [r4, #32]
    8734:	e594201c 	ldr	r2, [r4, #28]
    8738:	e1a01004 	mov	r1, r4
    873c:	e59f0098 	ldr	r0, [pc, #152]	; 87dc <sweep_leak+0x168>
    8740:	eb0001e0 	bl	8ec8 <printk>
    8744:	e1a00004 	mov	r0, r4
    8748:	ebfffe90 	bl	8190 <ck_next_hdr>
    874c:	e1a04000 	mov	r4, r0
    8750:	e3540000 	cmp	r4, #0, 0
    8754:	0a00000b 	beq	8788 <sweep_leak+0x114>
    8758:	e2855001 	add	r5, r5, #1, 0
    875c:	e5941008 	ldr	r1, [r4, #8]
    8760:	e351000b 	cmp	r1, #11, 0
    8764:	13a03000 	movne	r3, #0, 0
    8768:	03a03001 	moveq	r3, #1, 0
    876c:	e594201c 	ldr	r2, [r4, #28]
    8770:	e3520000 	cmp	r2, #0, 0
    8774:	1affffca 	bne	86a4 <sweep_leak+0x30>
    8778:	e3560000 	cmp	r6, #0, 0
    877c:	1affffd9 	bne	86e8 <sweep_leak+0x74>
    8780:	e3a00000 	mov	r0, #0, 0
    8784:	eaffffc7 	b	86a8 <sweep_leak+0x34>
    8788:	e1a01005 	mov	r1, r5
    878c:	e59f004c 	ldr	r0, [pc, #76]	; 87e0 <sweep_leak+0x16c>
    8790:	eb0001cc 	bl	8ec8 <printk>
    8794:	e1983007 	orrs	r3, r8, r7
    8798:	1a000005 	bne	87b4 <sweep_leak+0x140>
    879c:	e59f0040 	ldr	r0, [pc, #64]	; 87e4 <sweep_leak+0x170>
    87a0:	eb0001c8 	bl	8ec8 <printk>
    87a4:	e59f003c 	ldr	r0, [pc, #60]	; 87e8 <sweep_leak+0x174>
    87a8:	eb0001c6 	bl	8ec8 <printk>
    87ac:	e0880007 	add	r0, r8, r7
    87b0:	e8bd81f0 	pop	{r4, r5, r6, r7, r8, pc}
    87b4:	e1a02007 	mov	r2, r7
    87b8:	e1a01008 	mov	r1, r8
    87bc:	e59f0028 	ldr	r0, [pc, #40]	; 87ec <sweep_leak+0x178>
    87c0:	eb0001c0 	bl	8ec8 <printk>
    87c4:	eafffff6 	b	87a4 <sweep_leak+0x130>
    87c8:	0000a278 	andeq	sl, r0, r8, ror r2
    87cc:	0000a2b4 			; <UNDEFINED> instruction: 0x0000a2b4
    87d0:	0000a33c 	andeq	sl, r0, ip, lsr r3
    87d4:	0000a2cc 	andeq	sl, r0, ip, asr #5
    87d8:	0000a304 	andeq	sl, r0, r4, lsl #6
    87dc:	0000a374 	andeq	sl, r0, r4, ror r3
    87e0:	0000a3b0 			; <UNDEFINED> instruction: 0x0000a3b0
    87e4:	0000a3d0 	ldrdeq	sl, [r0], -r0
    87e8:	0000a428 	andeq	sl, r0, r8, lsr #8
    87ec:	0000a3f8 	strdeq	sl, [r0], -r8

000087f0 <sweep_free>:
    87f0:	e92d41f0 	push	{r4, r5, r6, r7, r8, lr}
    87f4:	e59f0094 	ldr	r0, [pc, #148]	; 8890 <sweep_free+0xa0>
    87f8:	eb0001b2 	bl	8ec8 <printk>
    87fc:	e59f0090 	ldr	r0, [pc, #144]	; 8894 <sweep_free+0xa4>
    8800:	eb0001b0 	bl	8ec8 <printk>
    8804:	ebfffe5d 	bl	8180 <ck_first_hdr>
    8808:	e1a04000 	mov	r4, r0
    880c:	e3a06000 	mov	r6, #0, 0
    8810:	e1a07006 	mov	r7, r6
    8814:	e1a05006 	mov	r5, r6
    8818:	ea00000b 	b	884c <sweep_free+0x5c>
    881c:	e3a0300c 	mov	r3, #12, 0
    8820:	e5843008 	str	r3, [r4, #8]
    8824:	e2877001 	add	r7, r7, #1, 0
    8828:	e5943004 	ldr	r3, [r4, #4]
    882c:	e0866003 	add	r6, r6, r3
    8830:	e1a02004 	mov	r2, r4
    8834:	e594100c 	ldr	r1, [r4, #12]
    8838:	e59f0058 	ldr	r0, [pc, #88]	; 8898 <sweep_free+0xa8>
    883c:	eb0001a1 	bl	8ec8 <printk>
    8840:	e1a00004 	mov	r0, r4
    8844:	ebfffe51 	bl	8190 <ck_next_hdr>
    8848:	e1a04000 	mov	r4, r0
    884c:	e3540000 	cmp	r4, #0, 0
    8850:	0a000007 	beq	8874 <sweep_free+0x84>
    8854:	e2855001 	add	r5, r5, #1, 0
    8858:	e5943008 	ldr	r3, [r4, #8]
    885c:	e353000b 	cmp	r3, #11, 0
    8860:	1afffff6 	bne	8840 <sweep_free+0x50>
    8864:	e1d432b4 	ldrh	r3, [r4, #36]	; 0x24
    8868:	e3530001 	cmp	r3, #1, 0
    886c:	0afffff3 	beq	8840 <sweep_free+0x50>
    8870:	eaffffe9 	b	881c <sweep_free+0x2c>
    8874:	e1a03006 	mov	r3, r6
    8878:	e1a02007 	mov	r2, r7
    887c:	e1a01005 	mov	r1, r5
    8880:	e59f0014 	ldr	r0, [pc, #20]	; 889c <sweep_free+0xac>
    8884:	eb00018f 	bl	8ec8 <printk>
    8888:	e1a00006 	mov	r0, r6
    888c:	e8bd81f0 	pop	{r4, r5, r6, r7, r8, pc}
    8890:	0000a278 	andeq	sl, r0, r8, ror r2
    8894:	0000a464 	andeq	sl, r0, r4, ror #8
    8898:	0000a474 	andeq	sl, r0, r4, ror r4
    889c:	0000a4ac 	andeq	sl, r0, ip, lsr #9

000088a0 <is_ptr>:
    88a0:	e92d4010 	push	{r4, lr}
    88a4:	e1a04000 	mov	r4, r0
    88a8:	ebffff62 	bl	8638 <in_heap>
    88ac:	e3500000 	cmp	r0, #0, 0
    88b0:	0a000002 	beq	88c0 <is_ptr+0x20>
    88b4:	e1a00004 	mov	r0, r4
    88b8:	ebfffe4e 	bl	81f8 <ck_ptr_to_hdr>
    88bc:	e8bd8010 	pop	{r4, pc}
    88c0:	e3a00000 	mov	r0, #0, 0
    88c4:	e8bd8010 	pop	{r4, pc}

000088c8 <mark>:
    88c8:	e92d40f0 	push	{r4, r5, r6, r7, lr}
    88cc:	e24dd00c 	sub	sp, sp, #12, 0
    88d0:	e1500001 	cmp	r0, r1
    88d4:	2a000007 	bcs	88f8 <mark+0x30>
    88d8:	e1a06000 	mov	r6, r0
    88dc:	e3100003 	tst	r0, #3, 0
    88e0:	1a00000c 	bne	8918 <mark+0x50>
    88e4:	e2114003 	ands	r4, r1, #3, 0
    88e8:	1a000012 	bne	8938 <mark+0x70>
    88ec:	e0411000 	sub	r1, r1, r0
    88f0:	e1a05141 	asr	r5, r1, #2
    88f4:	ea00001e 	b	8974 <mark+0xac>
    88f8:	e59f30e8 	ldr	r3, [pc, #232]	; 89e8 <mark+0x120>
    88fc:	e58d3000 	str	r3, [sp]
    8900:	e3a0304a 	mov	r3, #74, 0	; 0x4a
    8904:	e59f20e0 	ldr	r2, [pc, #224]	; 89ec <mark+0x124>
    8908:	e59f10e0 	ldr	r1, [pc, #224]	; 89f0 <mark+0x128>
    890c:	e59f00e0 	ldr	r0, [pc, #224]	; 89f4 <mark+0x12c>
    8910:	eb00016c 	bl	8ec8 <printk>
    8914:	eb00035e 	bl	9694 <clean_reboot>
    8918:	e59f30d8 	ldr	r3, [pc, #216]	; 89f8 <mark+0x130>
    891c:	e58d3000 	str	r3, [sp]
    8920:	e3a0304c 	mov	r3, #76, 0	; 0x4c
    8924:	e59f20c0 	ldr	r2, [pc, #192]	; 89ec <mark+0x124>
    8928:	e59f10c0 	ldr	r1, [pc, #192]	; 89f0 <mark+0x128>
    892c:	e59f00c0 	ldr	r0, [pc, #192]	; 89f4 <mark+0x12c>
    8930:	eb000164 	bl	8ec8 <printk>
    8934:	eb000356 	bl	9694 <clean_reboot>
    8938:	e59f30bc 	ldr	r3, [pc, #188]	; 89fc <mark+0x134>
    893c:	e58d3000 	str	r3, [sp]
    8940:	e3a0304d 	mov	r3, #77, 0	; 0x4d
    8944:	e59f20a0 	ldr	r2, [pc, #160]	; 89ec <mark+0x124>
    8948:	e59f10a0 	ldr	r1, [pc, #160]	; 89f0 <mark+0x128>
    894c:	e59f00a0 	ldr	r0, [pc, #160]	; 89f4 <mark+0x12c>
    8950:	eb00015c 	bl	8ec8 <printk>
    8954:	eb00034e 	bl	9694 <clean_reboot>
    8958:	e593201c 	ldr	r2, [r3, #28]
    895c:	e2822001 	add	r2, r2, #1, 0
    8960:	e583201c 	str	r2, [r3, #28]
    8964:	e5931004 	ldr	r1, [r3, #4]
    8968:	e0801001 	add	r1, r0, r1
    896c:	ebffffd5 	bl	88c8 <mark>
    8970:	e2844001 	add	r4, r4, #1, 0
    8974:	e1540005 	cmp	r4, r5
    8978:	2a000018 	bcs	89e0 <mark+0x118>
    897c:	e1a07104 	lsl	r7, r4, #2
    8980:	e7960104 	ldr	r0, [r6, r4, lsl #2]
    8984:	ebffffc5 	bl	88a0 <is_ptr>
    8988:	e2503000 	subs	r3, r0, #0, 0
    898c:	0afffff7 	beq	8970 <mark+0xa8>
    8990:	e1d322b4 	ldrh	r2, [r3, #36]	; 0x24
    8994:	e3520000 	cmp	r2, #0, 0
    8998:	1afffff4 	bne	8970 <mark+0xa8>
    899c:	e3a02001 	mov	r2, #1, 0
    89a0:	e1c322b4 	strh	r2, [r3, #36]	; 0x24
    89a4:	e28300a8 	add	r0, r3, #168, 0	; 0xa8
    89a8:	e7962007 	ldr	r2, [r6, r7]
    89ac:	e1500002 	cmp	r0, r2
    89b0:	0affffe8 	beq	8958 <mark+0x90>
    89b4:	e28310b0 	add	r1, r3, #176, 0	; 0xb0
    89b8:	e1520001 	cmp	r2, r1
    89bc:	9affffe8 	bls	8964 <mark+0x9c>
    89c0:	e5931004 	ldr	r1, [r3, #4]
    89c4:	e28110b0 	add	r1, r1, #176, 0	; 0xb0
    89c8:	e0831001 	add	r1, r3, r1
    89cc:	e1520001 	cmp	r2, r1
    89d0:	95932020 	ldrls	r2, [r3, #32]
    89d4:	92822001 	addls	r2, r2, #1, 0
    89d8:	95832020 	strls	r2, [r3, #32]
    89dc:	eaffffe0 	b	8964 <mark+0x9c>
    89e0:	e28dd00c 	add	sp, sp, #12, 0
    89e4:	e8bd80f0 	pop	{r4, r5, r6, r7, pc}
    89e8:	0000a4e8 	andeq	sl, r0, r8, ror #9
    89ec:	0000a610 	andeq	sl, r0, r0, lsl r6
    89f0:	0000a4e0 	andeq	sl, r0, r0, ror #9
    89f4:	0000a07c 	andeq	sl, r0, ip, ror r0
    89f8:	0000a4ec 	andeq	sl, r0, ip, ror #9
    89fc:	0000a4fc 	strdeq	sl, [r0], -ip

00008a00 <mark_all>:
    8a00:	e52de004 	push	{lr}		; (str lr, [sp, #-4]!)
    8a04:	e24dd044 	sub	sp, sp, #68, 0	; 0x44
    8a08:	ebfffddc 	bl	8180 <ck_first_hdr>
    8a0c:	e3500000 	cmp	r0, #0, 0
    8a10:	0a000005 	beq	8a2c <mark_all+0x2c>
    8a14:	e3a03000 	mov	r3, #0, 0
    8a18:	e5803020 	str	r3, [r0, #32]
    8a1c:	e580301c 	str	r3, [r0, #28]
    8a20:	e1c032b4 	strh	r3, [r0, #36]	; 0x24
    8a24:	ebfffdd9 	bl	8190 <ck_next_hdr>
    8a28:	eafffff7 	b	8a0c <mark_all+0xc>
    8a2c:	e1a0000d 	mov	r0, sp
    8a30:	eb00007d 	bl	8c2c <dump_regs>
    8a34:	e3a03000 	mov	r3, #0, 0
    8a38:	e58d3000 	str	r3, [sp]
    8a3c:	e58d3004 	str	r3, [sp, #4]
    8a40:	e58d3008 	str	r3, [sp, #8]
    8a44:	e58d300c 	str	r3, [sp, #12]
    8a48:	e28d1040 	add	r1, sp, #64, 0	; 0x40
    8a4c:	e1a0000d 	mov	r0, sp
    8a50:	ebffff9c 	bl	88c8 <mark>
    8a54:	e3a01302 	mov	r1, #134217728	; 0x8000000
    8a58:	e59d0034 	ldr	r0, [sp, #52]	; 0x34
    8a5c:	ebffff99 	bl	88c8 <mark>
    8a60:	e59f1018 	ldr	r1, [pc, #24]	; 8a80 <mark_all+0x80>
    8a64:	e59f0018 	ldr	r0, [pc, #24]	; 8a84 <mark_all+0x84>
    8a68:	ebffff96 	bl	88c8 <mark>
    8a6c:	e59f1014 	ldr	r1, [pc, #20]	; 8a88 <mark_all+0x88>
    8a70:	e59f0014 	ldr	r0, [pc, #20]	; 8a8c <mark_all+0x8c>
    8a74:	ebffff93 	bl	88c8 <mark>
    8a78:	e28dd044 	add	sp, sp, #68, 0	; 0x44
    8a7c:	e49df004 	pop	{pc}		; (ldr pc, [sp], #4)
    8a80:	0000ae08 	andeq	sl, r0, r8, lsl #28
    8a84:	0000a9d8 	ldrdeq	sl, [r0], -r8
    8a88:	0000a9d8 	ldrdeq	sl, [r0], -r8
    8a8c:	0000a9c0 	andeq	sl, r0, r0, asr #19

00008a90 <sbrk>:
    8a90:	e92d4030 	push	{r4, r5, lr}
    8a94:	e24dd00c 	sub	sp, sp, #12, 0
    8a98:	e1a04000 	mov	r4, r0
    8a9c:	e59f0070 	ldr	r0, [pc, #112]	; 8b14 <sbrk+0x84>
    8aa0:	eb000108 	bl	8ec8 <printk>
    8aa4:	e3540000 	cmp	r4, #0, 0
    8aa8:	da000007 	ble	8acc <sbrk+0x3c>
    8aac:	e59f3064 	ldr	r3, [pc, #100]	; 8b18 <sbrk+0x88>
    8ab0:	e5933008 	ldr	r3, [r3, #8]
    8ab4:	e3530000 	cmp	r3, #0, 0
    8ab8:	0a00000b 	beq	8aec <sbrk+0x5c>
    8abc:	e1a00004 	mov	r0, r4
    8ac0:	eb00043a 	bl	9bb0 <kmalloc>
    8ac4:	e28dd00c 	add	sp, sp, #12, 0
    8ac8:	e8bd8030 	pop	{r4, r5, pc}
    8acc:	e59f3048 	ldr	r3, [pc, #72]	; 8b1c <sbrk+0x8c>
    8ad0:	e58d3000 	str	r3, [sp]
    8ad4:	e3a03015 	mov	r3, #21, 0
    8ad8:	e59f2040 	ldr	r2, [pc, #64]	; 8b20 <sbrk+0x90>
    8adc:	e59f1040 	ldr	r1, [pc, #64]	; 8b24 <sbrk+0x94>
    8ae0:	e59f0040 	ldr	r0, [pc, #64]	; 8b28 <sbrk+0x98>
    8ae4:	eb0000f7 	bl	8ec8 <printk>
    8ae8:	eb0002e9 	bl	9694 <clean_reboot>
    8aec:	e59f5024 	ldr	r5, [pc, #36]	; 8b18 <sbrk+0x88>
    8af0:	e3a00601 	mov	r0, #1048576	; 0x100000
    8af4:	e5850000 	str	r0, [r5]
    8af8:	e3a03602 	mov	r3, #2097152	; 0x200000
    8afc:	e5853004 	str	r3, [r5, #4]
    8b00:	e1a01000 	mov	r1, r0
    8b04:	eb0003c6 	bl	9a24 <kmalloc_init_set_start>
    8b08:	e3a03001 	mov	r3, #1, 0
    8b0c:	e5853008 	str	r3, [r5, #8]
    8b10:	eaffffe9 	b	8abc <sbrk+0x2c>
    8b14:	0000a50c 	andeq	sl, r0, ip, lsl #10
    8b18:	0000a9e0 	andeq	sl, r0, r0, ror #19
    8b1c:	0000a51c 	andeq	sl, r0, ip, lsl r5
    8b20:	0000a618 	andeq	sl, r0, r8, lsl r6
    8b24:	0000a4e0 	andeq	sl, r0, r0, ror #9
    8b28:	0000a07c 	andeq	sl, r0, ip, ror r0

00008b2c <ck_find_leaks>:
    8b2c:	e92d4010 	push	{r4, lr}
    8b30:	e1a04000 	mov	r4, r0
    8b34:	e59f0018 	ldr	r0, [pc, #24]	; 8b54 <ck_find_leaks+0x28>
    8b38:	eb0000e2 	bl	8ec8 <printk>
    8b3c:	ebffffaf 	bl	8a00 <mark_all>
    8b40:	e59f0010 	ldr	r0, [pc, #16]	; 8b58 <ck_find_leaks+0x2c>
    8b44:	eb0000df 	bl	8ec8 <printk>
    8b48:	e1a00004 	mov	r0, r4
    8b4c:	ebfffec8 	bl	8674 <sweep_leak>
    8b50:	e8bd8010 	pop	{r4, pc}
    8b54:	0000a52c 	andeq	sl, r0, ip, lsr #10
    8b58:	0000a540 	andeq	sl, r0, r0, asr #10

00008b5c <check_no_leak>:
    8b5c:	e92d4010 	push	{r4, lr}
    8b60:	e3a00001 	mov	r0, #1, 0
    8b64:	ebfffff0 	bl	8b2c <ck_find_leaks>
    8b68:	e3500000 	cmp	r0, #0, 0
    8b6c:	1a000002 	bne	8b7c <check_no_leak+0x20>
    8b70:	e59f001c 	ldr	r0, [pc, #28]	; 8b94 <check_no_leak+0x38>
    8b74:	eb0000d3 	bl	8ec8 <printk>
    8b78:	e8bd8010 	pop	{r4, pc}
    8b7c:	e3a030d9 	mov	r3, #217, 0	; 0xd9
    8b80:	e59f2010 	ldr	r2, [pc, #16]	; 8b98 <check_no_leak+0x3c>
    8b84:	e59f1010 	ldr	r1, [pc, #16]	; 8b9c <check_no_leak+0x40>
    8b88:	e59f0010 	ldr	r0, [pc, #16]	; 8ba0 <check_no_leak+0x44>
    8b8c:	eb0000cd 	bl	8ec8 <printk>
    8b90:	eb0002bf 	bl	9694 <clean_reboot>
    8b94:	0000a574 	andeq	sl, r0, r4, ror r5
    8b98:	0000a620 	andeq	sl, r0, r0, lsr #12
    8b9c:	0000a4e0 	andeq	sl, r0, r0, ror #9
    8ba0:	0000a548 	andeq	sl, r0, r8, asr #10

00008ba4 <check_should_leak>:
    8ba4:	e92d4010 	push	{r4, lr}
    8ba8:	e3a00001 	mov	r0, #1, 0
    8bac:	ebffffde 	bl	8b2c <ck_find_leaks>
    8bb0:	e2504000 	subs	r4, r0, #0, 0
    8bb4:	0a000004 	beq	8bcc <check_should_leak+0x28>
    8bb8:	e1a01004 	mov	r1, r4
    8bbc:	e59f0020 	ldr	r0, [pc, #32]	; 8be4 <check_should_leak+0x40>
    8bc0:	eb0000c0 	bl	8ec8 <printk>
    8bc4:	e1a00004 	mov	r0, r4
    8bc8:	e8bd8010 	pop	{r4, pc}
    8bcc:	e3a030e7 	mov	r3, #231, 0	; 0xe7
    8bd0:	e59f2010 	ldr	r2, [pc, #16]	; 8be8 <check_should_leak+0x44>
    8bd4:	e59f1010 	ldr	r1, [pc, #16]	; 8bec <check_should_leak+0x48>
    8bd8:	e59f0010 	ldr	r0, [pc, #16]	; 8bf0 <check_should_leak+0x4c>
    8bdc:	eb0000b9 	bl	8ec8 <printk>
    8be0:	eb0002ab 	bl	9694 <clean_reboot>
    8be4:	0000a5bc 			; <UNDEFINED> instruction: 0x0000a5bc
    8be8:	0000a630 	andeq	sl, r0, r0, lsr r6
    8bec:	0000a4e0 	andeq	sl, r0, r0, ror #9
    8bf0:	0000a594 	muleq	r0, r4, r5

00008bf4 <ck_gc>:
    8bf4:	e92d4010 	push	{r4, lr}
    8bf8:	ebffff80 	bl	8a00 <mark_all>
    8bfc:	ebfffefb 	bl	87f0 <sweep_free>
    8c00:	e8bd8010 	pop	{r4, pc}

00008c04 <implement_this>:
    8c04:	e92d4010 	push	{r4, lr}
    8c08:	e3a03e11 	mov	r3, #272	; 0x110
    8c0c:	e59f200c 	ldr	r2, [pc, #12]	; 8c20 <implement_this+0x1c>
    8c10:	e59f100c 	ldr	r1, [pc, #12]	; 8c24 <implement_this+0x20>
    8c14:	e59f000c 	ldr	r0, [pc, #12]	; 8c28 <implement_this+0x24>
    8c18:	eb0000aa 	bl	8ec8 <printk>
    8c1c:	eb00029c 	bl	9694 <clean_reboot>
    8c20:	0000a644 	andeq	sl, r0, r4, asr #12
    8c24:	0000a4e0 	andeq	sl, r0, r0, ror #9
    8c28:	0000a5e0 	andeq	sl, r0, r0, ror #11

00008c2c <dump_regs>:
    8c2c:	e5800000 	str	r0, [r0]
    8c30:	e5801004 	str	r1, [r0, #4]
    8c34:	e5802008 	str	r2, [r0, #8]
    8c38:	e580300c 	str	r3, [r0, #12]
    8c3c:	e5804010 	str	r4, [r0, #16]
    8c40:	e5805014 	str	r5, [r0, #20]
    8c44:	e5806018 	str	r6, [r0, #24]
    8c48:	e580701c 	str	r7, [r0, #28]
    8c4c:	e5808020 	str	r8, [r0, #32]
    8c50:	e5809024 	str	r9, [r0, #36]	; 0x24
    8c54:	e580a028 	str	sl, [r0, #40]	; 0x28
    8c58:	e580b02c 	str	fp, [r0, #44]	; 0x2c
    8c5c:	e580c030 	str	ip, [r0, #48]	; 0x30
    8c60:	e580d034 	str	sp, [r0, #52]	; 0x34
    8c64:	e580e038 	str	lr, [r0, #56]	; 0x38
    8c68:	e580f03c 	str	pc, [r0, #60]	; 0x3c
    8c6c:	e12fff1e 	bx	lr

00008c70 <kr_free>:
    8c70:	e52de004 	push	{lr}		; (str lr, [sp, #-4]!)
    8c74:	e2401008 	sub	r1, r0, #8, 0
    8c78:	e59f30a8 	ldr	r3, [pc, #168]	; 8d28 <kr_free+0xb8>
    8c7c:	e5933000 	ldr	r3, [r3]
    8c80:	ea000000 	b	8c88 <kr_free+0x18>
    8c84:	e1a03002 	mov	r3, r2
    8c88:	e1530001 	cmp	r3, r1
    8c8c:	2a000002 	bcs	8c9c <kr_free+0x2c>
    8c90:	e5932000 	ldr	r2, [r3]
    8c94:	e1520001 	cmp	r2, r1
    8c98:	8a000007 	bhi	8cbc <kr_free+0x4c>
    8c9c:	e5932000 	ldr	r2, [r3]
    8ca0:	e1520003 	cmp	r2, r3
    8ca4:	8afffff6 	bhi	8c84 <kr_free+0x14>
    8ca8:	e1530001 	cmp	r3, r1
    8cac:	3a000002 	bcc	8cbc <kr_free+0x4c>
    8cb0:	e1520001 	cmp	r2, r1
    8cb4:	91a03002 	movls	r3, r2
    8cb8:	9afffff2 	bls	8c88 <kr_free+0x18>
    8cbc:	e510c004 	ldr	ip, [r0, #-4]
    8cc0:	e081e18c 	add	lr, r1, ip, lsl #3
    8cc4:	e5932000 	ldr	r2, [r3]
    8cc8:	e15e0002 	cmp	lr, r2
    8ccc:	0a000008 	beq	8cf4 <kr_free+0x84>
    8cd0:	e5002008 	str	r2, [r0, #-8]
    8cd4:	e5932004 	ldr	r2, [r3, #4]
    8cd8:	e083c182 	add	ip, r3, r2, lsl #3
    8cdc:	e15c0001 	cmp	ip, r1
    8ce0:	0a00000a 	beq	8d10 <kr_free+0xa0>
    8ce4:	e5831000 	str	r1, [r3]
    8ce8:	e59f2038 	ldr	r2, [pc, #56]	; 8d28 <kr_free+0xb8>
    8cec:	e5823000 	str	r3, [r2]
    8cf0:	e49df004 	pop	{pc}		; (ldr pc, [sp], #4)
    8cf4:	e5922004 	ldr	r2, [r2, #4]
    8cf8:	e08cc002 	add	ip, ip, r2
    8cfc:	e500c004 	str	ip, [r0, #-4]
    8d00:	e5932000 	ldr	r2, [r3]
    8d04:	e5922000 	ldr	r2, [r2]
    8d08:	e5002008 	str	r2, [r0, #-8]
    8d0c:	eafffff0 	b	8cd4 <kr_free+0x64>
    8d10:	e5101004 	ldr	r1, [r0, #-4]
    8d14:	e0822001 	add	r2, r2, r1
    8d18:	e5832004 	str	r2, [r3, #4]
    8d1c:	e5102008 	ldr	r2, [r0, #-8]
    8d20:	e5832000 	str	r2, [r3]
    8d24:	eaffffef 	b	8ce8 <kr_free+0x78>
    8d28:	0000a9f0 	strdeq	sl, [r0], -r0

00008d2c <kr_morecore>:
    8d2c:	e92d4010 	push	{r4, lr}
    8d30:	e1a04000 	mov	r4, r0
    8d34:	e3500b01 	cmp	r0, #1024	; 0x400
    8d38:	33a04b01 	movcc	r4, #1024	; 0x400
    8d3c:	e1a00184 	lsl	r0, r4, #3
    8d40:	ebffff52 	bl	8a90 <sbrk>
    8d44:	e3700001 	cmn	r0, #1, 0
    8d48:	0a000005 	beq	8d64 <kr_morecore+0x38>
    8d4c:	e5804004 	str	r4, [r0, #4]
    8d50:	e2800008 	add	r0, r0, #8, 0
    8d54:	ebffffc5 	bl	8c70 <kr_free>
    8d58:	e59f300c 	ldr	r3, [pc, #12]	; 8d6c <kr_morecore+0x40>
    8d5c:	e5930000 	ldr	r0, [r3]
    8d60:	e8bd8010 	pop	{r4, pc}
    8d64:	e3a00000 	mov	r0, #0, 0
    8d68:	e8bd8010 	pop	{r4, pc}
    8d6c:	0000a9f0 	strdeq	sl, [r0], -r0

00008d70 <kr_malloc>:
    8d70:	e92d4010 	push	{r4, lr}
    8d74:	e2804007 	add	r4, r0, #7, 0
    8d78:	e1a041a4 	lsr	r4, r4, #3
    8d7c:	e2844001 	add	r4, r4, #1, 0
    8d80:	e59f3090 	ldr	r3, [pc, #144]	; 8e18 <kr_malloc+0xa8>
    8d84:	e5932000 	ldr	r2, [r3]
    8d88:	e3520000 	cmp	r2, #0, 0
    8d8c:	0a000001 	beq	8d98 <kr_malloc+0x28>
    8d90:	e5920000 	ldr	r0, [r2]
    8d94:	ea000013 	b	8de8 <kr_malloc+0x78>
    8d98:	e2832008 	add	r2, r3, #8, 0
    8d9c:	e5832000 	str	r2, [r3]
    8da0:	e5832008 	str	r2, [r3, #8]
    8da4:	e3a01000 	mov	r1, #0, 0
    8da8:	e583100c 	str	r1, [r3, #12]
    8dac:	eafffff7 	b	8d90 <kr_malloc+0x20>
    8db0:	0a000007 	beq	8dd4 <kr_malloc+0x64>
    8db4:	e0433004 	sub	r3, r3, r4
    8db8:	e5803004 	str	r3, [r0, #4]
    8dbc:	e0800183 	add	r0, r0, r3, lsl #3
    8dc0:	e5804004 	str	r4, [r0, #4]
    8dc4:	e59f304c 	ldr	r3, [pc, #76]	; 8e18 <kr_malloc+0xa8>
    8dc8:	e5832000 	str	r2, [r3]
    8dcc:	e2800008 	add	r0, r0, #8, 0
    8dd0:	e8bd8010 	pop	{r4, pc}
    8dd4:	e5903000 	ldr	r3, [r0]
    8dd8:	e5823000 	str	r3, [r2]
    8ddc:	eafffff8 	b	8dc4 <kr_malloc+0x54>
    8de0:	e1a02000 	mov	r2, r0
    8de4:	e5900000 	ldr	r0, [r0]
    8de8:	e5903004 	ldr	r3, [r0, #4]
    8dec:	e1530004 	cmp	r3, r4
    8df0:	2affffee 	bcs	8db0 <kr_malloc+0x40>
    8df4:	e59f301c 	ldr	r3, [pc, #28]	; 8e18 <kr_malloc+0xa8>
    8df8:	e5933000 	ldr	r3, [r3]
    8dfc:	e1530000 	cmp	r3, r0
    8e00:	1afffff6 	bne	8de0 <kr_malloc+0x70>
    8e04:	e1a00004 	mov	r0, r4
    8e08:	ebffffc7 	bl	8d2c <kr_morecore>
    8e0c:	e3500000 	cmp	r0, #0, 0
    8e10:	1afffff2 	bne	8de0 <kr_malloc+0x70>
    8e14:	e8bd8010 	pop	{r4, pc}
    8e18:	0000a9f0 	strdeq	sl, [r0], -r0

00008e1c <memcmp>:
    8e1c:	e52de004 	push	{lr}		; (str lr, [sp, #-4]!)
    8e20:	e1a0e000 	mov	lr, r0
    8e24:	e3a03000 	mov	r3, #0, 0
    8e28:	e1530002 	cmp	r3, r2
    8e2c:	2a000005 	bcs	8e48 <memcmp+0x2c>
    8e30:	e7dec003 	ldrb	ip, [lr, r3]
    8e34:	e7d10003 	ldrb	r0, [r1, r3]
    8e38:	e05c0000 	subs	r0, ip, r0
    8e3c:	149df004 	popne	{pc}		; (ldrne pc, [sp], #4)
    8e40:	e2833001 	add	r3, r3, #1, 0
    8e44:	eafffff7 	b	8e28 <memcmp+0xc>
    8e48:	e3a00000 	mov	r0, #0, 0
    8e4c:	e49df004 	pop	{pc}		; (ldr pc, [sp], #4)

00008e50 <memcpy>:
    8e50:	e2103003 	ands	r3, r0, #3, 0
    8e54:	1a000011 	bne	8ea0 <memcpy+0x50>
    8e58:	e211c003 	ands	ip, r1, #3, 0
    8e5c:	1a00000c 	bne	8e94 <memcpy+0x44>
    8e60:	e2123003 	ands	r3, r2, #3, 0
    8e64:	1a00000f 	bne	8ea8 <memcpy+0x58>
    8e68:	e1a02122 	lsr	r2, r2, #2
    8e6c:	ea000002 	b	8e7c <memcpy+0x2c>
    8e70:	e791c103 	ldr	ip, [r1, r3, lsl #2]
    8e74:	e780c103 	str	ip, [r0, r3, lsl #2]
    8e78:	e2833001 	add	r3, r3, #1, 0
    8e7c:	e1530002 	cmp	r3, r2
    8e80:	3afffffa 	bcc	8e70 <memcpy+0x20>
    8e84:	e12fff1e 	bx	lr
    8e88:	e7d1c003 	ldrb	ip, [r1, r3]
    8e8c:	e7c0c003 	strb	ip, [r0, r3]
    8e90:	e2833001 	add	r3, r3, #1, 0
    8e94:	e1530002 	cmp	r3, r2
    8e98:	3afffffa 	bcc	8e88 <memcpy+0x38>
    8e9c:	e12fff1e 	bx	lr
    8ea0:	e3a03000 	mov	r3, #0, 0
    8ea4:	eafffffa 	b	8e94 <memcpy+0x44>
    8ea8:	e1a0300c 	mov	r3, ip
    8eac:	eafffff8 	b	8e94 <memcpy+0x44>

00008eb0 <memset>:
    8eb0:	e0802002 	add	r2, r0, r2
    8eb4:	e1a03000 	mov	r3, r0
    8eb8:	e1530002 	cmp	r3, r2
    8ebc:	212fff1e 	bxcs	lr
    8ec0:	e4c31001 	strb	r1, [r3], #1
    8ec4:	eafffffb 	b	8eb8 <memset+0x8>

00008ec8 <printk>:
    8ec8:	e92d000f 	push	{r0, r1, r2, r3}
    8ecc:	e92d4030 	push	{r4, r5, lr}
    8ed0:	e24dd00c 	sub	sp, sp, #12, 0
    8ed4:	e28d301c 	add	r3, sp, #28, 0
    8ed8:	e58d3004 	str	r3, [sp, #4]
    8edc:	e59f5034 	ldr	r5, [pc, #52]	; 8f18 <printk+0x50>
    8ee0:	e59d2018 	ldr	r2, [sp, #24]
    8ee4:	e3a01b01 	mov	r1, #1024	; 0x400
    8ee8:	e1a00005 	mov	r0, r5
    8eec:	eb0000ba 	bl	91dc <va_printk>
    8ef0:	e1a04000 	mov	r4, r0
    8ef4:	e59f3020 	ldr	r3, [pc, #32]	; 8f1c <printk+0x54>
    8ef8:	e5933000 	ldr	r3, [r3]
    8efc:	e1a00005 	mov	r0, r5
    8f00:	e12fff33 	blx	r3
    8f04:	e1a00004 	mov	r0, r4
    8f08:	e28dd00c 	add	sp, sp, #12, 0
    8f0c:	e8bd4030 	pop	{r4, r5, lr}
    8f10:	e28dd010 	add	sp, sp, #16, 0
    8f14:	e12fff1e 	bx	lr
    8f18:	0000aa00 	andeq	sl, r0, r0, lsl #20
    8f1c:	0000a9c4 	andeq	sl, r0, r4, asr #19

00008f20 <internal_putk>:
    8f20:	e92d4010 	push	{r4, lr}
    8f24:	e1a04000 	mov	r4, r0
    8f28:	e5d40000 	ldrb	r0, [r4]
    8f2c:	e3500000 	cmp	r0, #0, 0
    8f30:	0a000004 	beq	8f48 <internal_putk+0x28>
    8f34:	e59f3014 	ldr	r3, [pc, #20]	; 8f50 <internal_putk+0x30>
    8f38:	e5933000 	ldr	r3, [r3]
    8f3c:	e12fff33 	blx	r3
    8f40:	e2844001 	add	r4, r4, #1, 0
    8f44:	eafffff7 	b	8f28 <internal_putk+0x8>
    8f48:	e3a00001 	mov	r0, #1, 0
    8f4c:	e8bd8010 	pop	{r4, pc}
    8f50:	0000a9d4 	ldrdeq	sl, [r0], -r4

00008f54 <isdigit>:
    8f54:	e2400030 	sub	r0, r0, #48, 0	; 0x30
    8f58:	e3500009 	cmp	r0, #9, 0
    8f5c:	83a00000 	movhi	r0, #0, 0
    8f60:	93a00001 	movls	r0, #1, 0
    8f64:	e12fff1e 	bx	lr

00008f68 <pad>:
    8f68:	e0401001 	sub	r1, r0, r1
    8f6c:	e1510002 	cmp	r1, r2
    8f70:	b3a03020 	movlt	r3, #32, 0
    8f74:	b4c03001 	strblt	r3, [r0], #1
    8f78:	b2811001 	addlt	r1, r1, #1, 0
    8f7c:	bafffffa 	blt	8f6c <pad+0x4>
    8f80:	e3a03000 	mov	r3, #0, 0
    8f84:	e5c03000 	strb	r3, [r0]
    8f88:	e12fff1e 	bx	lr

00008f8c <reverse>:
    8f8c:	e042c003 	sub	ip, r2, r3
    8f90:	e28cc001 	add	ip, ip, #1, 0
    8f94:	e15c0001 	cmp	ip, r1
    8f98:	c04cc001 	subgt	ip, ip, r1
    8f9c:	c083300c 	addgt	r3, r3, ip
    8fa0:	e2421001 	sub	r1, r2, #1, 0
    8fa4:	e1a02000 	mov	r2, r0
    8fa8:	e1510003 	cmp	r1, r3
    8fac:	2451c001 	ldrbcs	ip, [r1], #-1
    8fb0:	24c2c001 	strbcs	ip, [r2], #1
    8fb4:	2afffffb 	bcs	8fa8 <reverse+0x1c>
    8fb8:	e3a03000 	mov	r3, #0, 0
    8fbc:	e5c23000 	strb	r3, [r2]
    8fc0:	e12fff1e 	bx	lr

00008fc4 <emit>:
    8fc4:	e92d40f0 	push	{r4, r5, r6, r7, lr}
    8fc8:	e24dd04c 	sub	sp, sp, #76, 0	; 0x4c
    8fcc:	e1a05001 	mov	r5, r1
    8fd0:	e1a04002 	mov	r4, r2
    8fd4:	e59d2060 	ldr	r2, [sp, #96]	; 0x60
    8fd8:	e1520004 	cmp	r2, r4
    8fdc:	c2442001 	subgt	r2, r4, #1, 0
    8fe0:	e1a0c003 	mov	ip, r3
    8fe4:	e2400002 	sub	r0, r0, #2, 0
    8fe8:	e350000e 	cmp	r0, #14, 0
    8fec:	979ff100 	ldrls	pc, [pc, r0, lsl #2]
    8ff0:	ea000050 	b	9138 <emit+0x174>
    8ff4:	00009110 	andeq	r9, r0, r0, lsl r1
    8ff8:	00009138 	andeq	r9, r0, r8, lsr r1
    8ffc:	00009138 	andeq	r9, r0, r8, lsr r1
    9000:	00009138 	andeq	r9, r0, r8, lsr r1
    9004:	00009138 	andeq	r9, r0, r8, lsr r1
    9008:	00009138 	andeq	r9, r0, r8, lsr r1
    900c:	00009104 	andeq	r9, r0, r4, lsl #2
    9010:	00009138 	andeq	r9, r0, r8, lsr r1
    9014:	00009030 	andeq	r9, r0, r0, lsr r0
    9018:	00009138 	andeq	r9, r0, r8, lsr r1
    901c:	00009138 	andeq	r9, r0, r8, lsr r1
    9020:	00009138 	andeq	r9, r0, r8, lsr r1
    9024:	00009138 	andeq	r9, r0, r8, lsr r1
    9028:	00009138 	andeq	r9, r0, r8, lsr r1
    902c:	000090a8 	andeq	r9, r0, r8, lsr #1
    9030:	e59d1064 	ldr	r1, [sp, #100]	; 0x64
    9034:	e2511000 	subs	r1, r1, #0, 0
    9038:	13a01001 	movne	r1, #1, 0
    903c:	e0111fa3 	ands	r1, r1, r3, lsr #31
    9040:	0a000016 	beq	90a0 <emit+0xdc>
    9044:	e263c000 	rsb	ip, r3, #0, 0
    9048:	e3a06001 	mov	r6, #1, 0
    904c:	e28d0008 	add	r0, sp, #8, 0
    9050:	e59f3100 	ldr	r3, [pc, #256]	; 9158 <emit+0x194>
    9054:	e0831c93 	umull	r1, r3, r3, ip
    9058:	e1a031a3 	lsr	r3, r3, #3
    905c:	e1a0e003 	mov	lr, r3
    9060:	e0833103 	add	r3, r3, r3, lsl #2
    9064:	e04c3083 	sub	r3, ip, r3, lsl #1
    9068:	e1a01000 	mov	r1, r0
    906c:	e2800001 	add	r0, r0, #1, 0
    9070:	e59f70e4 	ldr	r7, [pc, #228]	; 915c <emit+0x198>
    9074:	e7d73003 	ldrb	r3, [r7, r3]
    9078:	e5c13000 	strb	r3, [r1]
    907c:	e1a0300c 	mov	r3, ip
    9080:	e1a0c00e 	mov	ip, lr
    9084:	e3530009 	cmp	r3, #9, 0
    9088:	8afffff0 	bhi	9050 <emit+0x8c>
    908c:	e3560000 	cmp	r6, #0, 0
    9090:	13a0302d 	movne	r3, #45, 0	; 0x2d
    9094:	15c03000 	strbne	r3, [r0]
    9098:	12810002 	addne	r0, r1, #2, 0
    909c:	ea00000f 	b	90e0 <emit+0x11c>
    90a0:	e3a06000 	mov	r6, #0, 0
    90a4:	eaffffe8 	b	904c <emit+0x88>
    90a8:	e28d1008 	add	r1, sp, #8, 0
    90ac:	e20c000f 	and	r0, ip, #15, 0
    90b0:	e59fe0a8 	ldr	lr, [pc, #168]	; 9160 <emit+0x19c>
    90b4:	e7de0000 	ldrb	r0, [lr, r0]
    90b8:	e5c10000 	strb	r0, [r1]
    90bc:	e2811001 	add	r1, r1, #1, 0
    90c0:	e35c000f 	cmp	ip, #15, 0
    90c4:	e1a0c22c 	lsr	ip, ip, #4
    90c8:	8afffff7 	bhi	90ac <emit+0xe8>
    90cc:	e1a00001 	mov	r0, r1
    90d0:	e3a03078 	mov	r3, #120, 0	; 0x78
    90d4:	e4c03002 	strb	r3, [r0], #2
    90d8:	e3a03030 	mov	r3, #48, 0	; 0x30
    90dc:	e5c13001 	strb	r3, [r1, #1]
    90e0:	e28d1008 	add	r1, sp, #8, 0
    90e4:	ebffff9f 	bl	8f68 <pad>
    90e8:	e1a02000 	mov	r2, r0
    90ec:	e28d3008 	add	r3, sp, #8, 0
    90f0:	e1a01004 	mov	r1, r4
    90f4:	e1a00005 	mov	r0, r5
    90f8:	ebffffa3 	bl	8f8c <reverse>
    90fc:	e28dd04c 	add	sp, sp, #76, 0	; 0x4c
    9100:	e8bd80f0 	pop	{r4, r5, r6, r7, pc}
    9104:	e5cd3008 	strb	r3, [sp, #8]
    9108:	e28d0009 	add	r0, sp, #9, 0
    910c:	eafffff3 	b	90e0 <emit+0x11c>
    9110:	e28d0008 	add	r0, sp, #8, 0
    9114:	e20c1001 	and	r1, ip, #1, 0
    9118:	e59fe044 	ldr	lr, [pc, #68]	; 9164 <emit+0x1a0>
    911c:	e7de1001 	ldrb	r1, [lr, r1]
    9120:	e5c01000 	strb	r1, [r0]
    9124:	e2800001 	add	r0, r0, #1, 0
    9128:	e35c0001 	cmp	ip, #1, 0
    912c:	e1a0c0ac 	lsr	ip, ip, #1
    9130:	8afffff7 	bhi	9114 <emit+0x150>
    9134:	eaffffe9 	b	90e0 <emit+0x11c>
    9138:	e59f3028 	ldr	r3, [pc, #40]	; 9168 <emit+0x1a4>
    913c:	e58d3000 	str	r3, [sp]
    9140:	e3a03079 	mov	r3, #121, 0	; 0x79
    9144:	e59f2020 	ldr	r2, [pc, #32]	; 916c <emit+0x1a8>
    9148:	e59f1020 	ldr	r1, [pc, #32]	; 9170 <emit+0x1ac>
    914c:	e59f0020 	ldr	r0, [pc, #32]	; 9174 <emit+0x1b0>
    9150:	ebffff5c 	bl	8ec8 <printk>
    9154:	eb00014e 	bl	9694 <clean_reboot>
    9158:	cccccccd 	stclgt	12, cr12, [ip], {205}	; 0xcd
    915c:	0000a668 	andeq	sl, r0, r8, ror #12
    9160:	0000a674 	andeq	sl, r0, r4, ror r6
    9164:	0000a688 	andeq	sl, r0, r8, lsl #13
    9168:	0000a528 	andeq	sl, r0, r8, lsr #10
    916c:	0000a794 	muleq	r0, r4, r7
    9170:	0000a654 	andeq	sl, r0, r4, asr r6
    9174:	0000a07c 	andeq	sl, r0, ip, ror r0

00009178 <rpi_set_output>:
    9178:	e3500000 	cmp	r0, #0, 0
    917c:	0a000006 	beq	919c <rpi_set_output+0x24>
    9180:	e59f303c 	ldr	r3, [pc, #60]	; 91c4 <rpi_set_output+0x4c>
    9184:	e5830000 	str	r0, [r3]
    9188:	e3510000 	cmp	r1, #0, 0
    918c:	012fff1e 	bxeq	lr
    9190:	e59f3030 	ldr	r3, [pc, #48]	; 91c8 <rpi_set_output+0x50>
    9194:	e5831000 	str	r1, [r3]
    9198:	e12fff1e 	bx	lr
    919c:	e52de004 	push	{lr}		; (str lr, [sp, #-4]!)
    91a0:	e24dd00c 	sub	sp, sp, #12, 0
    91a4:	e59f3020 	ldr	r3, [pc, #32]	; 91cc <rpi_set_output+0x54>
    91a8:	e58d3000 	str	r3, [sp]
    91ac:	e3a03020 	mov	r3, #32, 0
    91b0:	e59f2018 	ldr	r2, [pc, #24]	; 91d0 <rpi_set_output+0x58>
    91b4:	e59f1018 	ldr	r1, [pc, #24]	; 91d4 <rpi_set_output+0x5c>
    91b8:	e59f0018 	ldr	r0, [pc, #24]	; 91d8 <rpi_set_output+0x60>
    91bc:	ebffff41 	bl	8ec8 <printk>
    91c0:	eb000133 	bl	9694 <clean_reboot>
    91c4:	0000a9d4 	ldrdeq	sl, [r0], -r4
    91c8:	0000a9c4 	andeq	sl, r0, r4, asr #19
    91cc:	0000a68c 	andeq	sl, r0, ip, lsl #13
    91d0:	0000a79c 	muleq	r0, ip, r7
    91d4:	0000a654 	andeq	sl, r0, r4, asr r6
    91d8:	0000a07c 	andeq	sl, r0, ip, ror r0

000091dc <va_printk>:
    91dc:	e92d4ff0 	push	{r4, r5, r6, r7, r8, r9, sl, fp, lr}
    91e0:	e24ddf45 	sub	sp, sp, #276	; 0x114
    91e4:	e1a09000 	mov	r9, r0
    91e8:	e58d2008 	str	r2, [sp, #8]
    91ec:	e58d300c 	str	r3, [sp, #12]
    91f0:	e2411001 	sub	r1, r1, #1, 0
    91f4:	e0808001 	add	r8, r0, r1
    91f8:	e3a03000 	mov	r3, #0, 0
    91fc:	e5c03000 	strb	r3, [r0]
    9200:	e1a04000 	mov	r4, r0
    9204:	e1a06002 	mov	r6, r2
    9208:	ea000001 	b	9214 <va_printk+0x38>
    920c:	e2866001 	add	r6, r6, #1, 0
    9210:	e4c43001 	strb	r3, [r4], #1
    9214:	e5d63000 	ldrb	r3, [r6]
    9218:	e3530000 	cmp	r3, #0, 0
    921c:	0a000108 	beq	9644 <va_printk+0x468>
    9220:	e1540008 	cmp	r4, r8
    9224:	2a000106 	bcs	9644 <va_printk+0x468>
    9228:	e3530025 	cmp	r3, #37, 0	; 0x25
    922c:	1afffff6 	bne	920c <va_printk+0x30>
    9230:	e5d62001 	ldrb	r2, [r6, #1]
    9234:	e3520025 	cmp	r2, #37, 0	; 0x25
    9238:	04c43001 	strbeq	r3, [r4], #1
    923c:	02866002 	addeq	r6, r6, #2, 0
    9240:	0afffff3 	beq	9214 <va_printk+0x38>
    9244:	e2866001 	add	r6, r6, #1, 0
    9248:	e3a05000 	mov	r5, #0, 0
    924c:	e5d67000 	ldrb	r7, [r6]
    9250:	e1a0a007 	mov	sl, r7
    9254:	e1a00007 	mov	r0, r7
    9258:	ebffff3d 	bl	8f54 <isdigit>
    925c:	e3500000 	cmp	r0, #0, 0
    9260:	0a000004 	beq	9278 <va_printk+0x9c>
    9264:	e0855105 	add	r5, r5, r5, lsl #2
    9268:	e0875085 	add	r5, r7, r5, lsl #1
    926c:	e2455030 	sub	r5, r5, #48, 0	; 0x30
    9270:	e2866001 	add	r6, r6, #1, 0
    9274:	eafffff4 	b	924c <va_printk+0x70>
    9278:	e355001f 	cmp	r5, #31, 0
    927c:	8a00001a 	bhi	92ec <va_printk+0x110>
    9280:	e2477062 	sub	r7, r7, #98, 0	; 0x62
    9284:	e3570016 	cmp	r7, #22, 0
    9288:	979ff107 	ldrls	pc, [pc, r7, lsl #2]
    928c:	ea0000d4 	b	95e4 <va_printk+0x408>
    9290:	00009568 	andeq	r9, r0, r8, ror #10
    9294:	000095b0 			; <UNDEFINED> instruction: 0x000095b0
    9298:	000094c8 	andeq	r9, r0, r8, asr #9
    929c:	000095e4 	andeq	r9, r0, r4, ror #11
    92a0:	000094b0 			; <UNDEFINED> instruction: 0x000094b0
    92a4:	000095e4 	andeq	r9, r0, r4, ror #11
    92a8:	000095e4 	andeq	r9, r0, r4, ror #11
    92ac:	000095e4 	andeq	r9, r0, r4, ror #11
    92b0:	000095e4 	andeq	r9, r0, r4, ror #11
    92b4:	000095e4 	andeq	r9, r0, r4, ror #11
    92b8:	0000930c 	andeq	r9, r0, ip, lsl #6
    92bc:	000095e4 	andeq	r9, r0, r4, ror #11
    92c0:	000095e4 	andeq	r9, r0, r4, ror #11
    92c4:	000095e4 	andeq	r9, r0, r4, ror #11
    92c8:	00009534 	andeq	r9, r0, r4, lsr r5
    92cc:	000095e4 	andeq	r9, r0, r4, ror #11
    92d0:	000095e4 	andeq	r9, r0, r4, ror #11
    92d4:	0000959c 	muleq	r0, ip, r5
    92d8:	000095e4 	andeq	r9, r0, r4, ror #11
    92dc:	00009500 	andeq	r9, r0, r0, lsl #10
    92e0:	000095e4 	andeq	r9, r0, r4, ror #11
    92e4:	000095e4 	andeq	r9, r0, r4, ror #11
    92e8:	00009534 	andeq	r9, r0, r4, lsr r5
    92ec:	e59f3364 	ldr	r3, [pc, #868]	; 9658 <va_printk+0x47c>
    92f0:	e58d3000 	str	r3, [sp]
    92f4:	e3a03098 	mov	r3, #152, 0	; 0x98
    92f8:	e59f235c 	ldr	r2, [pc, #860]	; 965c <va_printk+0x480>
    92fc:	e59f135c 	ldr	r1, [pc, #860]	; 9660 <va_printk+0x484>
    9300:	e59f035c 	ldr	r0, [pc, #860]	; 9664 <va_printk+0x488>
    9304:	ebfffeef 	bl	8ec8 <printk>
    9308:	eb0000e1 	bl	9694 <clean_reboot>
    930c:	e3a02003 	mov	r2, #3, 0
    9310:	e59f1350 	ldr	r1, [pc, #848]	; 9668 <va_printk+0x48c>
    9314:	e1a00006 	mov	r0, r6
    9318:	eb0002d0 	bl	9e60 <strncmp>
    931c:	e3500000 	cmp	r0, #0, 0
    9320:	0a000005 	beq	933c <va_printk+0x160>
    9324:	e3a02003 	mov	r2, #3, 0
    9328:	e59f133c 	ldr	r1, [pc, #828]	; 966c <va_printk+0x490>
    932c:	e1a00006 	mov	r0, r6
    9330:	eb0002ca 	bl	9e60 <strncmp>
    9334:	e3500000 	cmp	r0, #0, 0
    9338:	1a000033 	bne	940c <va_printk+0x230>
    933c:	e286b002 	add	fp, r6, #2, 0
    9340:	e59d300c 	ldr	r3, [sp, #12]
    9344:	e2833007 	add	r3, r3, #7, 0
    9348:	e3c33007 	bic	r3, r3, #7, 0
    934c:	e2832008 	add	r2, r3, #8, 0
    9350:	e58d200c 	str	r2, [sp, #12]
    9354:	e593a000 	ldr	sl, [r3]
    9358:	e5937004 	ldr	r7, [r3, #4]
    935c:	e1a01007 	mov	r1, r7
    9360:	e59f0308 	ldr	r0, [pc, #776]	; 9670 <va_printk+0x494>
    9364:	ebfffed7 	bl	8ec8 <printk>
    9368:	e1a0100a 	mov	r1, sl
    936c:	e59f0300 	ldr	r0, [pc, #768]	; 9674 <va_printk+0x498>
    9370:	ebfffed4 	bl	8ec8 <printk>
    9374:	e3a02003 	mov	r2, #3, 0
    9378:	e59f12e8 	ldr	r1, [pc, #744]	; 9668 <va_printk+0x48c>
    937c:	e1a00006 	mov	r0, r6
    9380:	eb0002b6 	bl	9e60 <strncmp>
    9384:	e3500000 	cmp	r0, #0, 0
    9388:	0a000027 	beq	942c <va_printk+0x250>
    938c:	e3a02003 	mov	r2, #3, 0
    9390:	e59f12d4 	ldr	r1, [pc, #724]	; 966c <va_printk+0x490>
    9394:	e1a00006 	mov	r0, r6
    9398:	eb0002b0 	bl	9e60 <strncmp>
    939c:	e3500000 	cmp	r0, #0, 0
    93a0:	1a00003b 	bne	9494 <va_printk+0x2b8>
    93a4:	e3a06000 	mov	r6, #0, 0
    93a8:	e58d6004 	str	r6, [sp, #4]
    93ac:	e58d5000 	str	r5, [sp]
    93b0:	e1a03007 	mov	r3, r7
    93b4:	e3a02080 	mov	r2, #128, 0	; 0x80
    93b8:	e28d1010 	add	r1, sp, #16, 0
    93bc:	e3a0000a 	mov	r0, #10, 0
    93c0:	ebfffeff 	bl	8fc4 <emit>
    93c4:	e1a07000 	mov	r7, r0
    93c8:	e58d6004 	str	r6, [sp, #4]
    93cc:	e58d5000 	str	r5, [sp]
    93d0:	e1a0300a 	mov	r3, sl
    93d4:	e3a02080 	mov	r2, #128, 0	; 0x80
    93d8:	e28d1090 	add	r1, sp, #144, 0	; 0x90
    93dc:	e3a0000a 	mov	r0, #10, 0
    93e0:	ebfffef7 	bl	8fc4 <emit>
    93e4:	e59f128c 	ldr	r1, [pc, #652]	; 9678 <va_printk+0x49c>
    93e8:	e28d0010 	add	r0, sp, #16, 0
    93ec:	eb000288 	bl	9e14 <strcmp>
    93f0:	e1500006 	cmp	r0, r6
    93f4:	1a000021 	bne	9480 <va_printk+0x2a4>
    93f8:	e28d1090 	add	r1, sp, #144, 0	; 0x90
    93fc:	e28d0010 	add	r0, sp, #16, 0
    9400:	eb00028e 	bl	9e40 <strcpy>
    9404:	e1a0600b 	mov	r6, fp
    9408:	ea00003a 	b	94f8 <va_printk+0x31c>
    940c:	e59f3268 	ldr	r3, [pc, #616]	; 967c <va_printk+0x4a0>
    9410:	e58d3000 	str	r3, [sp]
    9414:	e3a0309f 	mov	r3, #159, 0	; 0x9f
    9418:	e59f223c 	ldr	r2, [pc, #572]	; 965c <va_printk+0x480>
    941c:	e59f123c 	ldr	r1, [pc, #572]	; 9660 <va_printk+0x484>
    9420:	e59f023c 	ldr	r0, [pc, #572]	; 9664 <va_printk+0x488>
    9424:	ebfffea7 	bl	8ec8 <printk>
    9428:	eb000099 	bl	9694 <clean_reboot>
    942c:	e3a06000 	mov	r6, #0, 0
    9430:	e58d6004 	str	r6, [sp, #4]
    9434:	e58d5000 	str	r5, [sp]
    9438:	e1a03007 	mov	r3, r7
    943c:	e3a02080 	mov	r2, #128, 0	; 0x80
    9440:	e28d1010 	add	r1, sp, #16, 0
    9444:	e3a00010 	mov	r0, #16, 0
    9448:	ebfffedd 	bl	8fc4 <emit>
    944c:	e1a07000 	mov	r7, r0
    9450:	e58d6004 	str	r6, [sp, #4]
    9454:	e58d5000 	str	r5, [sp]
    9458:	e1a0300a 	mov	r3, sl
    945c:	e3a02080 	mov	r2, #128, 0	; 0x80
    9460:	e28d1090 	add	r1, sp, #144, 0	; 0x90
    9464:	e3a00010 	mov	r0, #16, 0
    9468:	ebfffed5 	bl	8fc4 <emit>
    946c:	e28d1092 	add	r1, sp, #146, 0	; 0x92
    9470:	e28d0010 	add	r0, sp, #16, 0
    9474:	eb000259 	bl	9de0 <strcat>
    9478:	e1a0600b 	mov	r6, fp
    947c:	ea00001d 	b	94f8 <va_printk+0x31c>
    9480:	e28d1090 	add	r1, sp, #144, 0	; 0x90
    9484:	e28d0010 	add	r0, sp, #16, 0
    9488:	eb000254 	bl	9de0 <strcat>
    948c:	e1a0600b 	mov	r6, fp
    9490:	ea000018 	b	94f8 <va_printk+0x31c>
    9494:	e58d6000 	str	r6, [sp]
    9498:	e3a030b6 	mov	r3, #182, 0	; 0xb6
    949c:	e59f21b8 	ldr	r2, [pc, #440]	; 965c <va_printk+0x480>
    94a0:	e59f11b8 	ldr	r1, [pc, #440]	; 9660 <va_printk+0x484>
    94a4:	e59f01d4 	ldr	r0, [pc, #468]	; 9680 <va_printk+0x4a4>
    94a8:	ebfffe86 	bl	8ec8 <printk>
    94ac:	eb000078 	bl	9694 <clean_reboot>
    94b0:	e3a030be 	mov	r3, #190, 0	; 0xbe
    94b4:	e59f21a0 	ldr	r2, [pc, #416]	; 965c <va_printk+0x480>
    94b8:	e59f11a0 	ldr	r1, [pc, #416]	; 9660 <va_printk+0x484>
    94bc:	e59f01c0 	ldr	r0, [pc, #448]	; 9684 <va_printk+0x4a8>
    94c0:	ebfffe80 	bl	8ec8 <printk>
    94c4:	eb000072 	bl	9694 <clean_reboot>
    94c8:	e59d300c 	ldr	r3, [sp, #12]
    94cc:	e2832004 	add	r2, r3, #4, 0
    94d0:	e58d200c 	str	r2, [sp, #12]
    94d4:	e5933000 	ldr	r3, [r3]
    94d8:	e3a02001 	mov	r2, #1, 0
    94dc:	e58d2004 	str	r2, [sp, #4]
    94e0:	e58d5000 	str	r5, [sp]
    94e4:	e3a02080 	mov	r2, #128, 0	; 0x80
    94e8:	e28d1010 	add	r1, sp, #16, 0
    94ec:	e3a0000a 	mov	r0, #10, 0
    94f0:	ebfffeb3 	bl	8fc4 <emit>
    94f4:	e1a07000 	mov	r7, r0
    94f8:	e2866001 	add	r6, r6, #1, 0
    94fc:	ea00004a 	b	962c <va_printk+0x450>
    9500:	e59d300c 	ldr	r3, [sp, #12]
    9504:	e2832004 	add	r2, r3, #4, 0
    9508:	e58d200c 	str	r2, [sp, #12]
    950c:	e5933000 	ldr	r3, [r3]
    9510:	e3a02000 	mov	r2, #0, 0
    9514:	e58d2004 	str	r2, [sp, #4]
    9518:	e58d5000 	str	r5, [sp]
    951c:	e3a02080 	mov	r2, #128, 0	; 0x80
    9520:	e28d1010 	add	r1, sp, #16, 0
    9524:	e3a0000a 	mov	r0, #10, 0
    9528:	ebfffea5 	bl	8fc4 <emit>
    952c:	e1a07000 	mov	r7, r0
    9530:	eafffff0 	b	94f8 <va_printk+0x31c>
    9534:	e59d300c 	ldr	r3, [sp, #12]
    9538:	e2832004 	add	r2, r3, #4, 0
    953c:	e58d200c 	str	r2, [sp, #12]
    9540:	e5933000 	ldr	r3, [r3]
    9544:	e3a02000 	mov	r2, #0, 0
    9548:	e58d2004 	str	r2, [sp, #4]
    954c:	e58d5000 	str	r5, [sp]
    9550:	e3a02080 	mov	r2, #128, 0	; 0x80
    9554:	e28d1010 	add	r1, sp, #16, 0
    9558:	e3a00010 	mov	r0, #16, 0
    955c:	ebfffe98 	bl	8fc4 <emit>
    9560:	e1a07000 	mov	r7, r0
    9564:	eaffffe3 	b	94f8 <va_printk+0x31c>
    9568:	e59d300c 	ldr	r3, [sp, #12]
    956c:	e2832004 	add	r2, r3, #4, 0
    9570:	e58d200c 	str	r2, [sp, #12]
    9574:	e5933000 	ldr	r3, [r3]
    9578:	e3a02000 	mov	r2, #0, 0
    957c:	e58d2004 	str	r2, [sp, #4]
    9580:	e58d5000 	str	r5, [sp]
    9584:	e3a02080 	mov	r2, #128, 0	; 0x80
    9588:	e28d1010 	add	r1, sp, #16, 0
    958c:	e3a00002 	mov	r0, #2, 0
    9590:	ebfffe8b 	bl	8fc4 <emit>
    9594:	e1a07000 	mov	r7, r0
    9598:	eaffffd6 	b	94f8 <va_printk+0x31c>
    959c:	e59d300c 	ldr	r3, [sp, #12]
    95a0:	e2832004 	add	r2, r3, #4, 0
    95a4:	e58d200c 	str	r2, [sp, #12]
    95a8:	e5937000 	ldr	r7, [r3]
    95ac:	eaffffd1 	b	94f8 <va_printk+0x31c>
    95b0:	e59d300c 	ldr	r3, [sp, #12]
    95b4:	e2832004 	add	r2, r3, #4, 0
    95b8:	e58d200c 	str	r2, [sp, #12]
    95bc:	e5933000 	ldr	r3, [r3]
    95c0:	e3a02000 	mov	r2, #0, 0
    95c4:	e58d2004 	str	r2, [sp, #4]
    95c8:	e58d5000 	str	r5, [sp]
    95cc:	e3a02080 	mov	r2, #128, 0	; 0x80
    95d0:	e28d1010 	add	r1, sp, #16, 0
    95d4:	e3a00008 	mov	r0, #8, 0
    95d8:	ebfffe79 	bl	8fc4 <emit>
    95dc:	e1a07000 	mov	r7, r0
    95e0:	eaffffc4 	b	94f8 <va_printk+0x31c>
    95e4:	e3a03000 	mov	r3, #0, 0
    95e8:	e5c63001 	strb	r3, [r6, #1]
    95ec:	e1a0200a 	mov	r2, sl
    95f0:	e1a0100a 	mov	r1, sl
    95f4:	e59f008c 	ldr	r0, [pc, #140]	; 9688 <va_printk+0x4ac>
    95f8:	ebfffe32 	bl	8ec8 <printk>
    95fc:	e59f3088 	ldr	r3, [pc, #136]	; 968c <va_printk+0x4b0>
    9600:	e5933000 	ldr	r3, [r3]
    9604:	e59d0008 	ldr	r0, [sp, #8]
    9608:	e12fff33 	blx	r3
    960c:	e3a030e2 	mov	r3, #226, 0	; 0xe2
    9610:	e59f2044 	ldr	r2, [pc, #68]	; 965c <va_printk+0x480>
    9614:	e59f1044 	ldr	r1, [pc, #68]	; 9660 <va_printk+0x484>
    9618:	e59f0070 	ldr	r0, [pc, #112]	; 9690 <va_printk+0x4b4>
    961c:	ebfffe29 	bl	8ec8 <printk>
    9620:	eb00001b 	bl	9694 <clean_reboot>
    9624:	e2877001 	add	r7, r7, #1, 0
    9628:	e4c43001 	strb	r3, [r4], #1
    962c:	e1540008 	cmp	r4, r8
    9630:	2afffef7 	bcs	9214 <va_printk+0x38>
    9634:	e5d73000 	ldrb	r3, [r7]
    9638:	e3530000 	cmp	r3, #0, 0
    963c:	1afffff8 	bne	9624 <va_printk+0x448>
    9640:	eafffef3 	b	9214 <va_printk+0x38>
    9644:	e3a03000 	mov	r3, #0, 0
    9648:	e4c43001 	strb	r3, [r4], #1
    964c:	e0440009 	sub	r0, r4, r9
    9650:	e28ddf45 	add	sp, sp, #276	; 0x114
    9654:	e8bd8ff0 	pop	{r4, r5, r6, r7, r8, r9, sl, fp, pc}
    9658:	0000a694 	muleq	r0, r4, r6
    965c:	0000a7ac 	andeq	sl, r0, ip, lsr #15
    9660:	0000a654 	andeq	sl, r0, r4, asr r6
    9664:	0000a07c 	andeq	sl, r0, ip, ror r0
    9668:	0000a6a0 	andeq	sl, r0, r0, lsr #13
    966c:	0000a6a4 	andeq	sl, r0, r4, lsr #13
    9670:	0000a6a8 	andeq	sl, r0, r8, lsr #13
    9674:	0000a6b0 			; <UNDEFINED> instruction: 0x0000a6b0
    9678:	0000a528 	andeq	sl, r0, r8, lsr #10
    967c:	0000a6b8 			; <UNDEFINED> instruction: 0x0000a6b8
    9680:	0000a6f4 	strdeq	sl, [r0], -r4
    9684:	0000a71c 	andeq	sl, r0, ip, lsl r7
    9688:	0000a744 	andeq	sl, r0, r4, asr #14
    968c:	0000a9c4 	andeq	sl, r0, r4, asr #19
    9690:	0000a774 	andeq	sl, r0, r4, ror r7

00009694 <clean_reboot>:
    9694:	e92d4010 	push	{r4, lr}
    9698:	e59f3018 	ldr	r3, [pc, #24]	; 96b8 <clean_reboot+0x24>
    969c:	e5933000 	ldr	r3, [r3]
    96a0:	e59f0014 	ldr	r0, [pc, #20]	; 96bc <clean_reboot+0x28>
    96a4:	e12fff33 	blx	r3
    96a8:	eb0000c3 	bl	99bc <uart_flush_tx>
    96ac:	e3a0000a 	mov	r0, #10, 0
    96b0:	eb000047 	bl	97d4 <delay_ms>
    96b4:	eb00001c 	bl	972c <rpi_reboot>
    96b8:	0000a9c4 	andeq	sl, r0, r4, asr #19
    96bc:	0000a7b8 			; <UNDEFINED> instruction: 0x0000a7b8

000096c0 <_cstart>:
    96c0:	e92d4010 	push	{r4, lr}
    96c4:	eb00000c 	bl	96fc <custom_loader>
    96c8:	e59f3024 	ldr	r3, [pc, #36]	; 96f4 <_cstart+0x34>
    96cc:	e59f2024 	ldr	r2, [pc, #36]	; 96f8 <_cstart+0x38>
    96d0:	e1530002 	cmp	r3, r2
    96d4:	33a02000 	movcc	r2, #0, 0
    96d8:	34832004 	strcc	r2, [r3], #4
    96dc:	3afffffa 	bcc	96cc <_cstart+0xc>
    96e0:	eb000057 	bl	9844 <uart_init>
    96e4:	e3a03001 	mov	r3, #1, 0
    96e8:	ee0f3f1c 	mcr	15, 0, r3, cr15, cr12, {0}
    96ec:	ebfffa53 	bl	8040 <notmain>
    96f0:	ebffffe7 	bl	9694 <clean_reboot>
    96f4:	0000a9d8 	ldrdeq	sl, [r0], -r8
    96f8:	0000ae08 	andeq	sl, r0, r8, lsl #28

000096fc <custom_loader>:
    96fc:	e12fff1e 	bx	lr

00009700 <at_user_level>:
    9700:	e10f0000 	mrs	r0, CPSR
    9704:	e200001f 	and	r0, r0, #31, 0
    9708:	e3500010 	cmp	r0, #16, 0
    970c:	13a00000 	movne	r0, #0, 0
    9710:	03a00001 	moveq	r0, #1, 0
    9714:	e12fff1e 	bx	lr

00009718 <set_user_level>:
    9718:	e10f3000 	mrs	r3, CPSR
    971c:	e3c3301f 	bic	r3, r3, #31, 0
    9720:	e3833010 	orr	r3, r3, #16, 0
    9724:	e129f003 	msr	CPSR_fc, r3
    9728:	e12fff1e 	bx	lr

0000972c <rpi_reboot>:
    972c:	e92d4010 	push	{r4, lr}
    9730:	ebfffff2 	bl	9700 <at_user_level>
    9734:	e3500000 	cmp	r0, #0, 0
    9738:	1a00000a 	bne	9768 <rpi_reboot+0x3c>
    973c:	eb0001d2 	bl	9e8c <reboot_callout>
    9740:	eb00009d 	bl	99bc <uart_flush_tx>
    9744:	e3a0000a 	mov	r0, #10, 0
    9748:	eb000021 	bl	97d4 <delay_ms>
    974c:	e59f101c 	ldr	r1, [pc, #28]	; 9770 <rpi_reboot+0x44>
    9750:	e59f001c 	ldr	r0, [pc, #28]	; 9774 <rpi_reboot+0x48>
    9754:	ebfffa32 	bl	8024 <PUT32>
    9758:	e59f1018 	ldr	r1, [pc, #24]	; 9778 <rpi_reboot+0x4c>
    975c:	e59f0018 	ldr	r0, [pc, #24]	; 977c <rpi_reboot+0x50>
    9760:	ebfffa2f 	bl	8024 <PUT32>
    9764:	eafffffe 	b	9764 <rpi_reboot+0x38>
    9768:	ebffffea 	bl	9718 <set_user_level>
    976c:	eafffff2 	b	973c <rpi_reboot+0x10>
    9770:	5a000001 	bpl	977c <rpi_reboot+0x50>
    9774:	20100024 	andscs	r0, r0, r4, lsr #32
    9778:	5a000020 	bpl	9800 <delay_sec+0x14>
    977c:	2010001c 	andscs	r0, r0, ip, lsl r0

00009780 <timer_get_usec_raw>:
    9780:	e92d4010 	push	{r4, lr}
    9784:	e59f0004 	ldr	r0, [pc, #4]	; 9790 <timer_get_usec_raw+0x10>
    9788:	ebfffa27 	bl	802c <GET32>
    978c:	e8bd8010 	pop	{r4, pc}
    9790:	20003004 	andcs	r3, r0, r4

00009794 <timer_get_usec>:
    9794:	e92d4010 	push	{r4, lr}
    9798:	eb0001bc 	bl	9e90 <dev_barrier>
    979c:	ebfffff7 	bl	9780 <timer_get_usec_raw>
    97a0:	e1a04000 	mov	r4, r0
    97a4:	eb0001b9 	bl	9e90 <dev_barrier>
    97a8:	e1a00004 	mov	r0, r4
    97ac:	e8bd8010 	pop	{r4, pc}

000097b0 <delay_us>:
    97b0:	e92d4070 	push	{r4, r5, r6, lr}
    97b4:	e1a05000 	mov	r5, r0
    97b8:	ebfffff5 	bl	9794 <timer_get_usec>
    97bc:	e1a04000 	mov	r4, r0
    97c0:	ebfffff3 	bl	9794 <timer_get_usec>
    97c4:	e0400004 	sub	r0, r0, r4
    97c8:	e1500005 	cmp	r0, r5
    97cc:	3afffffb 	bcc	97c0 <delay_us+0x10>
    97d0:	e8bd8070 	pop	{r4, r5, r6, pc}

000097d4 <delay_ms>:
    97d4:	e92d4010 	push	{r4, lr}
    97d8:	e0603280 	rsb	r3, r0, r0, lsl #5
    97dc:	e0800103 	add	r0, r0, r3, lsl #2
    97e0:	e1a00180 	lsl	r0, r0, #3
    97e4:	ebfffff1 	bl	97b0 <delay_us>
    97e8:	e8bd8010 	pop	{r4, pc}

000097ec <delay_sec>:
    97ec:	e92d4010 	push	{r4, lr}
    97f0:	e0603280 	rsb	r3, r0, r0, lsl #5
    97f4:	e0800103 	add	r0, r0, r3, lsl #2
    97f8:	e1a00180 	lsl	r0, r0, #3
    97fc:	ebfffff4 	bl	97d4 <delay_ms>
    9800:	e8bd8010 	pop	{r4, pc}

00009804 <and_in32>:
    9804:	e92d4070 	push	{r4, r5, r6, lr}
    9808:	e1a04000 	mov	r4, r0
    980c:	e1a05001 	mov	r5, r1
    9810:	ebfffa05 	bl	802c <GET32>
    9814:	e0001005 	and	r1, r0, r5
    9818:	e1a00004 	mov	r0, r4
    981c:	ebfffa00 	bl	8024 <PUT32>
    9820:	e8bd8070 	pop	{r4, r5, r6, pc}

00009824 <or_in32>:
    9824:	e92d4070 	push	{r4, r5, r6, lr}
    9828:	e1a04000 	mov	r4, r0
    982c:	e1a05001 	mov	r5, r1
    9830:	ebfff9fd 	bl	802c <GET32>
    9834:	e1801005 	orr	r1, r0, r5
    9838:	e1a00004 	mov	r0, r4
    983c:	ebfff9f8 	bl	8024 <PUT32>
    9840:	e8bd8070 	pop	{r4, r5, r6, pc}

00009844 <uart_init>:
    9844:	e92d4010 	push	{r4, lr}
    9848:	e3a01002 	mov	r1, #2, 0
    984c:	e3a0000e 	mov	r0, #14, 0
    9850:	eb000194 	bl	9ea8 <gpio_set_function>
    9854:	e3a01002 	mov	r1, #2, 0
    9858:	e3a0000f 	mov	r0, #15, 0
    985c:	eb000191 	bl	9ea8 <gpio_set_function>
    9860:	eb00018a 	bl	9e90 <dev_barrier>
    9864:	e3a01001 	mov	r1, #1, 0
    9868:	e59f0064 	ldr	r0, [pc, #100]	; 98d4 <uart_init+0x90>
    986c:	ebffffec 	bl	9824 <or_in32>
    9870:	eb000186 	bl	9e90 <dev_barrier>
    9874:	e59f405c 	ldr	r4, [pc, #92]	; 98d8 <uart_init+0x94>
    9878:	e3a01000 	mov	r1, #0, 0
    987c:	e1a00004 	mov	r0, r4
    9880:	ebfff9e7 	bl	8024 <PUT32>
    9884:	e3a01000 	mov	r1, #0, 0
    9888:	e59f004c 	ldr	r0, [pc, #76]	; 98dc <uart_init+0x98>
    988c:	ebfff9e4 	bl	8024 <PUT32>
    9890:	e3a01003 	mov	r1, #3, 0
    9894:	e59f0044 	ldr	r0, [pc, #68]	; 98e0 <uart_init+0x9c>
    9898:	ebfff9e1 	bl	8024 <PUT32>
    989c:	e3a01000 	mov	r1, #0, 0
    98a0:	e59f003c 	ldr	r0, [pc, #60]	; 98e4 <uart_init+0xa0>
    98a4:	ebfff9de 	bl	8024 <PUT32>
    98a8:	e3a010c7 	mov	r1, #199, 0	; 0xc7
    98ac:	e59f0034 	ldr	r0, [pc, #52]	; 98e8 <uart_init+0xa4>
    98b0:	ebfff9db 	bl	8024 <PUT32>
    98b4:	e59f1030 	ldr	r1, [pc, #48]	; 98ec <uart_init+0xa8>
    98b8:	e59f0030 	ldr	r0, [pc, #48]	; 98f0 <uart_init+0xac>
    98bc:	ebfff9d8 	bl	8024 <PUT32>
    98c0:	e3a01003 	mov	r1, #3, 0
    98c4:	e1a00004 	mov	r0, r4
    98c8:	ebfff9d5 	bl	8024 <PUT32>
    98cc:	eb00016f 	bl	9e90 <dev_barrier>
    98d0:	e8bd8010 	pop	{r4, pc}
    98d4:	20215004 	eorcs	r5, r1, r4
    98d8:	20215060 	eorcs	r5, r1, r0, rrx
    98dc:	20215044 	eorcs	r5, r1, r4, asr #32
    98e0:	2021504c 	eorcs	r5, r1, ip, asr #32
    98e4:	20215050 	eorcs	r5, r1, r0, asr r0
    98e8:	20215048 	eorcs	r5, r1, r8, asr #32
    98ec:	0000010e 	andeq	r0, r0, lr, lsl #2
    98f0:	20215068 	eorcs	r5, r1, r8, rrx

000098f4 <uart_can_getc>:
    98f4:	e92d4010 	push	{r4, lr}
    98f8:	e59f0008 	ldr	r0, [pc, #8]	; 9908 <uart_can_getc+0x14>
    98fc:	ebfff9ca 	bl	802c <GET32>
    9900:	e2000001 	and	r0, r0, #1, 0
    9904:	e8bd8010 	pop	{r4, pc}
    9908:	20215064 	eorcs	r5, r1, r4, rrx

0000990c <uart_can_putc>:
    990c:	e92d4010 	push	{r4, lr}
    9910:	e59f0010 	ldr	r0, [pc, #16]	; 9928 <uart_can_putc+0x1c>
    9914:	ebfff9c4 	bl	802c <GET32>
    9918:	e3100002 	tst	r0, #2, 0
    991c:	13a00001 	movne	r0, #1, 0
    9920:	03a00000 	moveq	r0, #0, 0
    9924:	e8bd8010 	pop	{r4, pc}
    9928:	20215064 	eorcs	r5, r1, r4, rrx

0000992c <uart_getc>:
    992c:	e92d4010 	push	{r4, lr}
    9930:	eb000156 	bl	9e90 <dev_barrier>
    9934:	ebffffee 	bl	98f4 <uart_can_getc>
    9938:	e3500000 	cmp	r0, #0, 0
    993c:	0afffffc 	beq	9934 <uart_getc+0x8>
    9940:	e59f0010 	ldr	r0, [pc, #16]	; 9958 <uart_getc+0x2c>
    9944:	ebfff9b8 	bl	802c <GET32>
    9948:	e6ef4070 	uxtb	r4, r0
    994c:	eb00014f 	bl	9e90 <dev_barrier>
    9950:	e1a00004 	mov	r0, r4
    9954:	e8bd8010 	pop	{r4, pc}
    9958:	20215040 	eorcs	r5, r1, r0, asr #32

0000995c <uart_putc>:
    995c:	e92d4010 	push	{r4, lr}
    9960:	e1a04000 	mov	r4, r0
    9964:	eb000149 	bl	9e90 <dev_barrier>
    9968:	ebffffe7 	bl	990c <uart_can_putc>
    996c:	e3500000 	cmp	r0, #0, 0
    9970:	0afffffc 	beq	9968 <uart_putc+0xc>
    9974:	e6ef1074 	uxtb	r1, r4
    9978:	e59f0008 	ldr	r0, [pc, #8]	; 9988 <uart_putc+0x2c>
    997c:	ebfff9a8 	bl	8024 <PUT32>
    9980:	eb000142 	bl	9e90 <dev_barrier>
    9984:	e8bd8010 	pop	{r4, pc}
    9988:	20215040 	eorcs	r5, r1, r0, asr #32

0000998c <uart_has_data>:
    998c:	e92d4010 	push	{r4, lr}
    9990:	eb00013e 	bl	9e90 <dev_barrier>
    9994:	ebffffd6 	bl	98f4 <uart_can_getc>
    9998:	e8bd8010 	pop	{r4, pc}

0000999c <uart_tx_is_empty>:
    999c:	e92d4010 	push	{r4, lr}
    99a0:	eb00013a 	bl	9e90 <dev_barrier>
    99a4:	e59f000c 	ldr	r0, [pc, #12]	; 99b8 <uart_tx_is_empty+0x1c>
    99a8:	ebfff99f 	bl	802c <GET32>
    99ac:	e1a004a0 	lsr	r0, r0, #9
    99b0:	e2000001 	and	r0, r0, #1, 0
    99b4:	e8bd8010 	pop	{r4, pc}
    99b8:	20215064 	eorcs	r5, r1, r4, rrx

000099bc <uart_flush_tx>:
    99bc:	e92d4010 	push	{r4, lr}
    99c0:	ebfffff5 	bl	999c <uart_tx_is_empty>
    99c4:	e3500000 	cmp	r0, #0, 0
    99c8:	0afffffc 	beq	99c0 <uart_flush_tx+0x4>
    99cc:	e8bd8010 	pop	{r4, pc}

000099d0 <uart_disable>:
    99d0:	e92d4010 	push	{r4, lr}
    99d4:	ebfffff8 	bl	99bc <uart_flush_tx>
    99d8:	eb00012c 	bl	9e90 <dev_barrier>
    99dc:	e3e01001 	mvn	r1, #1, 0
    99e0:	e59f0008 	ldr	r0, [pc, #8]	; 99f0 <uart_disable+0x20>
    99e4:	ebffff86 	bl	9804 <and_in32>
    99e8:	eb000128 	bl	9e90 <dev_barrier>
    99ec:	e8bd8010 	pop	{r4, pc}
    99f0:	20215004 	eorcs	r5, r1, r4

000099f4 <kmalloc_heap_end>:
    99f4:	e59f3004 	ldr	r3, [pc, #4]	; 9a00 <kmalloc_heap_end+0xc>
    99f8:	e5930000 	ldr	r0, [r3]
    99fc:	e12fff1e 	bx	lr
    9a00:	0000a9c8 	andeq	sl, r0, r8, asr #19

00009a04 <kmalloc_heap_start>:
    9a04:	e59f3004 	ldr	r3, [pc, #4]	; 9a10 <kmalloc_heap_start+0xc>
    9a08:	e5930004 	ldr	r0, [r3, #4]
    9a0c:	e12fff1e 	bx	lr
    9a10:	0000a9c8 	andeq	sl, r0, r8, asr #19

00009a14 <kmalloc_heap_ptr>:
    9a14:	e59f3004 	ldr	r3, [pc, #4]	; 9a20 <kmalloc_heap_ptr+0xc>
    9a18:	e5930008 	ldr	r0, [r3, #8]
    9a1c:	e12fff1e 	bx	lr
    9a20:	0000a9c8 	andeq	sl, r0, r8, asr #19

00009a24 <kmalloc_init_set_start>:
    9a24:	e52de004 	push	{lr}		; (str lr, [sp, #-4]!)
    9a28:	e24dd00c 	sub	sp, sp, #12, 0
    9a2c:	e3510000 	cmp	r1, #0, 0
    9a30:	0a00000a 	beq	9a60 <kmalloc_init_set_start+0x3c>
    9a34:	e59f306c 	ldr	r3, [pc, #108]	; 9aa8 <kmalloc_init_set_start+0x84>
    9a38:	e5933008 	ldr	r3, [r3, #8]
    9a3c:	e1530000 	cmp	r3, r0
    9a40:	8a00000e 	bhi	9a80 <kmalloc_init_set_start+0x5c>
    9a44:	e59f305c 	ldr	r3, [pc, #92]	; 9aa8 <kmalloc_init_set_start+0x84>
    9a48:	e5830008 	str	r0, [r3, #8]
    9a4c:	e5830004 	str	r0, [r3, #4]
    9a50:	e0800001 	add	r0, r0, r1
    9a54:	e5830000 	str	r0, [r3]
    9a58:	e28dd00c 	add	sp, sp, #12, 0
    9a5c:	e49df004 	pop	{pc}		; (ldr pc, [sp], #4)
    9a60:	e59f3044 	ldr	r3, [pc, #68]	; 9aac <kmalloc_init_set_start+0x88>
    9a64:	e58d3000 	str	r3, [sp]
    9a68:	e3a03030 	mov	r3, #48, 0	; 0x30
    9a6c:	e59f203c 	ldr	r2, [pc, #60]	; 9ab0 <kmalloc_init_set_start+0x8c>
    9a70:	e59f103c 	ldr	r1, [pc, #60]	; 9ab4 <kmalloc_init_set_start+0x90>
    9a74:	e59f003c 	ldr	r0, [pc, #60]	; 9ab8 <kmalloc_init_set_start+0x94>
    9a78:	ebfffd12 	bl	8ec8 <printk>
    9a7c:	ebffff04 	bl	9694 <clean_reboot>
    9a80:	e59f3020 	ldr	r3, [pc, #32]	; 9aa8 <kmalloc_init_set_start+0x84>
    9a84:	e5933000 	ldr	r3, [r3]
    9a88:	e58d3004 	str	r3, [sp, #4]
    9a8c:	e58d0000 	str	r0, [sp]
    9a90:	e3a03034 	mov	r3, #52, 0	; 0x34
    9a94:	e59f2014 	ldr	r2, [pc, #20]	; 9ab0 <kmalloc_init_set_start+0x8c>
    9a98:	e59f1014 	ldr	r1, [pc, #20]	; 9ab4 <kmalloc_init_set_start+0x90>
    9a9c:	e59f0018 	ldr	r0, [pc, #24]	; 9abc <kmalloc_init_set_start+0x98>
    9aa0:	ebfffd08 	bl	8ec8 <printk>
    9aa4:	ebfffefa 	bl	9694 <clean_reboot>
    9aa8:	0000a9c8 	andeq	sl, r0, r8, asr #19
    9aac:	0000a7d0 	ldrdeq	sl, [r0], -r0
    9ab0:	0000a95c 	andeq	sl, r0, ip, asr r9
    9ab4:	0000a7c4 	andeq	sl, r0, r4, asr #15
    9ab8:	0000a07c 	andeq	sl, r0, ip, ror r0
    9abc:	0000a7dc 	ldrdeq	sl, [r0], -ip

00009ac0 <kmalloc_init>:
    9ac0:	e92d4010 	push	{r4, lr}
    9ac4:	e59f303c 	ldr	r3, [pc, #60]	; 9b08 <kmalloc_init+0x48>
    9ac8:	e5933000 	ldr	r3, [r3]
    9acc:	e3530000 	cmp	r3, #0, 0
    9ad0:	1a000006 	bne	9af0 <kmalloc_init+0x30>
    9ad4:	e59f302c 	ldr	r3, [pc, #44]	; 9b08 <kmalloc_init+0x48>
    9ad8:	e3a02001 	mov	r2, #1, 0
    9adc:	e5832000 	str	r2, [r3]
    9ae0:	e3a01201 	mov	r1, #268435456	; 0x10000000
    9ae4:	e3a00601 	mov	r0, #1048576	; 0x100000
    9ae8:	ebffffcd 	bl	9a24 <kmalloc_init_set_start>
    9aec:	e8bd8010 	pop	{r4, pc}
    9af0:	e3a03040 	mov	r3, #64, 0	; 0x40
    9af4:	e59f2010 	ldr	r2, [pc, #16]	; 9b0c <kmalloc_init+0x4c>
    9af8:	e59f1010 	ldr	r1, [pc, #16]	; 9b10 <kmalloc_init+0x50>
    9afc:	e59f0010 	ldr	r0, [pc, #16]	; 9b14 <kmalloc_init+0x54>
    9b00:	ebfffcf0 	bl	8ec8 <printk>
    9b04:	ebfffee2 	bl	9694 <clean_reboot>
    9b08:	0000ae00 	andeq	sl, r0, r0, lsl #28
    9b0c:	0000a974 	andeq	sl, r0, r4, ror r9
    9b10:	0000a7c4 	andeq	sl, r0, r4, asr #15
    9b14:	0000a820 	andeq	sl, r0, r0, lsr #16

00009b18 <kmalloc_notzero>:
    9b18:	e52de004 	push	{lr}		; (str lr, [sp, #-4]!)
    9b1c:	e24dd00c 	sub	sp, sp, #12, 0
    9b20:	e3500000 	cmp	r0, #0, 0
    9b24:	0a00000a 	beq	9b54 <kmalloc_notzero+0x3c>
    9b28:	e2800007 	add	r0, r0, #7, 0
    9b2c:	e3c03007 	bic	r3, r0, #7, 0
    9b30:	e59f2060 	ldr	r2, [pc, #96]	; 9b98 <kmalloc_notzero+0x80>
    9b34:	e5920008 	ldr	r0, [r2, #8]
    9b38:	e0801003 	add	r1, r0, r3
    9b3c:	e5821008 	str	r1, [r2, #8]
    9b40:	e5922000 	ldr	r2, [r2]
    9b44:	e1510002 	cmp	r1, r2
    9b48:	8a000009 	bhi	9b74 <kmalloc_notzero+0x5c>
    9b4c:	e28dd00c 	add	sp, sp, #12, 0
    9b50:	e49df004 	pop	{pc}		; (ldr pc, [sp], #4)
    9b54:	e59f3040 	ldr	r3, [pc, #64]	; 9b9c <kmalloc_notzero+0x84>
    9b58:	e58d3000 	str	r3, [sp]
    9b5c:	e3a03048 	mov	r3, #72, 0	; 0x48
    9b60:	e59f2038 	ldr	r2, [pc, #56]	; 9ba0 <kmalloc_notzero+0x88>
    9b64:	e59f1038 	ldr	r1, [pc, #56]	; 9ba4 <kmalloc_notzero+0x8c>
    9b68:	e59f0038 	ldr	r0, [pc, #56]	; 9ba8 <kmalloc_notzero+0x90>
    9b6c:	ebfffcd5 	bl	8ec8 <printk>
    9b70:	ebfffec7 	bl	9694 <clean_reboot>
    9b74:	e0422000 	sub	r2, r2, r0
    9b78:	e58d2004 	str	r2, [sp, #4]
    9b7c:	e58d3000 	str	r3, [sp]
    9b80:	e3a0304e 	mov	r3, #78, 0	; 0x4e
    9b84:	e59f2014 	ldr	r2, [pc, #20]	; 9ba0 <kmalloc_notzero+0x88>
    9b88:	e59f1014 	ldr	r1, [pc, #20]	; 9ba4 <kmalloc_notzero+0x8c>
    9b8c:	e59f0018 	ldr	r0, [pc, #24]	; 9bac <kmalloc_notzero+0x94>
    9b90:	ebfffccc 	bl	8ec8 <printk>
    9b94:	ebfffebe 	bl	9694 <clean_reboot>
    9b98:	0000a9c8 	andeq	sl, r0, r8, asr #19
    9b9c:	0000a7d4 	ldrdeq	sl, [r0], -r4
    9ba0:	0000a984 	andeq	sl, r0, r4, lsl #19
    9ba4:	0000a7c4 	andeq	sl, r0, r4, asr #15
    9ba8:	0000a07c 	andeq	sl, r0, ip, ror r0
    9bac:	0000a850 	andeq	sl, r0, r0, asr r8

00009bb0 <kmalloc>:
    9bb0:	e92d4030 	push	{r4, r5, lr}
    9bb4:	e24dd00c 	sub	sp, sp, #12, 0
    9bb8:	e2504000 	subs	r4, r0, #0, 0
    9bbc:	0a000008 	beq	9be4 <kmalloc+0x34>
    9bc0:	e1a00004 	mov	r0, r4
    9bc4:	ebffffd3 	bl	9b18 <kmalloc_notzero>
    9bc8:	e1a05000 	mov	r5, r0
    9bcc:	e1a02004 	mov	r2, r4
    9bd0:	e3a01000 	mov	r1, #0, 0
    9bd4:	ebfffcb5 	bl	8eb0 <memset>
    9bd8:	e1a00005 	mov	r0, r5
    9bdc:	e28dd00c 	add	sp, sp, #12, 0
    9be0:	e8bd8030 	pop	{r4, r5, pc}
    9be4:	e59f3018 	ldr	r3, [pc, #24]	; 9c04 <kmalloc+0x54>
    9be8:	e58d3000 	str	r3, [sp]
    9bec:	e3a03054 	mov	r3, #84, 0	; 0x54
    9bf0:	e59f2010 	ldr	r2, [pc, #16]	; 9c08 <kmalloc+0x58>
    9bf4:	e59f1010 	ldr	r1, [pc, #16]	; 9c0c <kmalloc+0x5c>
    9bf8:	e59f0010 	ldr	r0, [pc, #16]	; 9c10 <kmalloc+0x60>
    9bfc:	ebfffcb1 	bl	8ec8 <printk>
    9c00:	ebfffea3 	bl	9694 <clean_reboot>
    9c04:	0000a7d4 	ldrdeq	sl, [r0], -r4
    9c08:	0000a994 	muleq	r0, r4, r9
    9c0c:	0000a7c4 	andeq	sl, r0, r4, asr #15
    9c10:	0000a07c 	andeq	sl, r0, ip, ror r0

00009c14 <kmalloc_aligned>:
    9c14:	e52de004 	push	{lr}		; (str lr, [sp, #-4]!)
    9c18:	e24dd00c 	sub	sp, sp, #12, 0
    9c1c:	e3500000 	cmp	r0, #0, 0
    9c20:	0a000014 	beq	9c78 <kmalloc_aligned+0x64>
    9c24:	e2613000 	rsb	r3, r1, #0, 0
    9c28:	e1d13003 	bics	r3, r1, r3
    9c2c:	1a000019 	bne	9c98 <kmalloc_aligned+0x84>
    9c30:	e3510008 	cmp	r1, #8, 0
    9c34:	33a01008 	movcc	r1, #8, 0
    9c38:	e59f30c0 	ldr	r3, [pc, #192]	; 9d00 <kmalloc_aligned+0xec>
    9c3c:	e5932008 	ldr	r2, [r3, #8]
    9c40:	e2613000 	rsb	r3, r1, #0, 0
    9c44:	e1d1c003 	bics	ip, r1, r3
    9c48:	1a00001b 	bne	9cbc <kmalloc_aligned+0xa8>
    9c4c:	e0822001 	add	r2, r2, r1
    9c50:	e2422001 	sub	r2, r2, #1, 0
    9c54:	e0033002 	and	r3, r3, r2
    9c58:	e2411001 	sub	r1, r1, #1, 0
    9c5c:	e1110003 	tst	r1, r3
    9c60:	1a00001d 	bne	9cdc <kmalloc_aligned+0xc8>
    9c64:	e59f2094 	ldr	r2, [pc, #148]	; 9d00 <kmalloc_aligned+0xec>
    9c68:	e5823008 	str	r3, [r2, #8]
    9c6c:	ebffffcf 	bl	9bb0 <kmalloc>
    9c70:	e28dd00c 	add	sp, sp, #12, 0
    9c74:	e49df004 	pop	{pc}		; (ldr pc, [sp], #4)
    9c78:	e59f3084 	ldr	r3, [pc, #132]	; 9d04 <kmalloc_aligned+0xf0>
    9c7c:	e58d3000 	str	r3, [sp]
    9c80:	e3a0305f 	mov	r3, #95, 0	; 0x5f
    9c84:	e59f207c 	ldr	r2, [pc, #124]	; 9d08 <kmalloc_aligned+0xf4>
    9c88:	e59f107c 	ldr	r1, [pc, #124]	; 9d0c <kmalloc_aligned+0xf8>
    9c8c:	e59f007c 	ldr	r0, [pc, #124]	; 9d10 <kmalloc_aligned+0xfc>
    9c90:	ebfffc8c 	bl	8ec8 <printk>
    9c94:	ebfffe7e 	bl	9694 <clean_reboot>
    9c98:	eb000046 	bl	9db8 <rpi_reset_putc>
    9c9c:	e59f3070 	ldr	r3, [pc, #112]	; 9d14 <kmalloc_aligned+0x100>
    9ca0:	e58d3000 	str	r3, [sp]
    9ca4:	e3a03060 	mov	r3, #96, 0	; 0x60
    9ca8:	e59f2058 	ldr	r2, [pc, #88]	; 9d08 <kmalloc_aligned+0xf4>
    9cac:	e59f1058 	ldr	r1, [pc, #88]	; 9d0c <kmalloc_aligned+0xf8>
    9cb0:	e59f0060 	ldr	r0, [pc, #96]	; 9d18 <kmalloc_aligned+0x104>
    9cb4:	ebfffc83 	bl	8ec8 <printk>
    9cb8:	ebfffe75 	bl	9694 <clean_reboot>
    9cbc:	e59f3058 	ldr	r3, [pc, #88]	; 9d1c <kmalloc_aligned+0x108>
    9cc0:	e58d3000 	str	r3, [sp]
    9cc4:	e3a03011 	mov	r3, #17, 0
    9cc8:	e59f2050 	ldr	r2, [pc, #80]	; 9d20 <kmalloc_aligned+0x10c>
    9ccc:	e59f1038 	ldr	r1, [pc, #56]	; 9d0c <kmalloc_aligned+0xf8>
    9cd0:	e59f0038 	ldr	r0, [pc, #56]	; 9d10 <kmalloc_aligned+0xfc>
    9cd4:	ebfffc7b 	bl	8ec8 <printk>
    9cd8:	ebfffe6d 	bl	9694 <clean_reboot>
    9cdc:	eb000035 	bl	9db8 <rpi_reset_putc>
    9ce0:	e59f303c 	ldr	r3, [pc, #60]	; 9d24 <kmalloc_aligned+0x110>
    9ce4:	e58d3000 	str	r3, [sp]
    9ce8:	e3a03068 	mov	r3, #104, 0	; 0x68
    9cec:	e59f2014 	ldr	r2, [pc, #20]	; 9d08 <kmalloc_aligned+0xf4>
    9cf0:	e59f1014 	ldr	r1, [pc, #20]	; 9d0c <kmalloc_aligned+0xf8>
    9cf4:	e59f002c 	ldr	r0, [pc, #44]	; 9d28 <kmalloc_aligned+0x114>
    9cf8:	ebfffc72 	bl	8ec8 <printk>
    9cfc:	ebfffe64 	bl	9694 <clean_reboot>
    9d00:	0000a9c8 	andeq	sl, r0, r8, asr #19
    9d04:	0000a7d4 	ldrdeq	sl, [r0], -r4
    9d08:	0000a99c 	muleq	r0, ip, r9
    9d0c:	0000a7c4 	andeq	sl, r0, r4, asr #15
    9d10:	0000a07c 	andeq	sl, r0, ip, ror r0
    9d14:	0000a8c4 	andeq	sl, r0, r4, asr #17
    9d18:	0000a890 	muleq	r0, r0, r8
    9d1c:	0000a8d8 	ldrdeq	sl, [r0], -r8
    9d20:	0000a9ac 	andeq	sl, r0, ip, lsr #19
    9d24:	0000a910 	andeq	sl, r0, r0, lsl r9
    9d28:	0000a8e4 	andeq	sl, r0, r4, ror #17

00009d2c <kfree>:
    9d2c:	e12fff1e 	bx	lr

00009d30 <kfree_all>:
    9d30:	e59f3008 	ldr	r3, [pc, #8]	; 9d40 <kfree_all+0x10>
    9d34:	e5932004 	ldr	r2, [r3, #4]
    9d38:	e5832008 	str	r2, [r3, #8]
    9d3c:	e12fff1e 	bx	lr
    9d40:	0000a9c8 	andeq	sl, r0, r8, asr #19

00009d44 <kfree_pop>:
    9d44:	e59f3048 	ldr	r3, [pc, #72]	; 9d94 <kfree_pop+0x50>
    9d48:	e5933004 	ldr	r3, [r3, #4]
    9d4c:	e1530000 	cmp	r3, r0
    9d50:	8a000006 	bhi	9d70 <kfree_pop+0x2c>
    9d54:	e59f3038 	ldr	r3, [pc, #56]	; 9d94 <kfree_pop+0x50>
    9d58:	e5933000 	ldr	r3, [r3]
    9d5c:	e1530000 	cmp	r3, r0
    9d60:	3a000002 	bcc	9d70 <kfree_pop+0x2c>
    9d64:	e59f3028 	ldr	r3, [pc, #40]	; 9d94 <kfree_pop+0x50>
    9d68:	e5830008 	str	r0, [r3, #8]
    9d6c:	e12fff1e 	bx	lr
    9d70:	e52de004 	push	{lr}		; (str lr, [sp, #-4]!)
    9d74:	e24dd00c 	sub	sp, sp, #12, 0
    9d78:	e58d0000 	str	r0, [sp]
    9d7c:	e3a03077 	mov	r3, #119, 0	; 0x77
    9d80:	e59f2010 	ldr	r2, [pc, #16]	; 9d98 <kfree_pop+0x54>
    9d84:	e59f1010 	ldr	r1, [pc, #16]	; 9d9c <kfree_pop+0x58>
    9d88:	e59f0010 	ldr	r0, [pc, #16]	; 9da0 <kfree_pop+0x5c>
    9d8c:	ebfffc4d 	bl	8ec8 <printk>
    9d90:	ebfffe3f 	bl	9694 <clean_reboot>
    9d94:	0000a9c8 	andeq	sl, r0, r8, asr #19
    9d98:	0000a9b4 			; <UNDEFINED> instruction: 0x0000a9b4
    9d9c:	0000a7c4 	andeq	sl, r0, r4, asr #15
    9da0:	0000a92c 	andeq	sl, r0, ip, lsr #18

00009da4 <internal_putchar>:
    9da4:	e92d4010 	push	{r4, lr}
    9da8:	e1a04000 	mov	r4, r0
    9dac:	ebfffeea 	bl	995c <uart_putc>
    9db0:	e1a00004 	mov	r0, r4
    9db4:	e8bd8010 	pop	{r4, pc}

00009db8 <rpi_reset_putc>:
    9db8:	e59f3008 	ldr	r3, [pc, #8]	; 9dc8 <rpi_reset_putc+0x10>
    9dbc:	e59f2008 	ldr	r2, [pc, #8]	; 9dcc <rpi_reset_putc+0x14>
    9dc0:	e5832000 	str	r2, [r3]
    9dc4:	e12fff1e 	bx	lr
    9dc8:	0000a9d4 	ldrdeq	sl, [r0], -r4
    9dcc:	00009da4 	andeq	r9, r0, r4, lsr #27

00009dd0 <rpi_set_putc>:
    9dd0:	e59f3004 	ldr	r3, [pc, #4]	; 9ddc <rpi_set_putc+0xc>
    9dd4:	e5830000 	str	r0, [r3]
    9dd8:	e12fff1e 	bx	lr
    9ddc:	0000a9d4 	ldrdeq	sl, [r0], -r4

00009de0 <strcat>:
    9de0:	e1a02000 	mov	r2, r0
    9de4:	e1a03002 	mov	r3, r2
    9de8:	e2822001 	add	r2, r2, #1, 0
    9dec:	e5d3c000 	ldrb	ip, [r3]
    9df0:	e35c0000 	cmp	ip, #0, 0
    9df4:	1afffffa 	bne	9de4 <strcat+0x4>
    9df8:	e2433001 	sub	r3, r3, #1, 0
    9dfc:	e5d12000 	ldrb	r2, [r1]
    9e00:	e2811001 	add	r1, r1, #1, 0
    9e04:	e5e32001 	strb	r2, [r3, #1]!
    9e08:	e3520000 	cmp	r2, #0, 0
    9e0c:	1afffffa 	bne	9dfc <strcat+0x1c>
    9e10:	e12fff1e 	bx	lr

00009e14 <strcmp>:
    9e14:	e5d03000 	ldrb	r3, [r0]
    9e18:	e3530000 	cmp	r3, #0, 0
    9e1c:	0a000004 	beq	9e34 <strcmp+0x20>
    9e20:	e5d12000 	ldrb	r2, [r1]
    9e24:	e1530002 	cmp	r3, r2
    9e28:	02800001 	addeq	r0, r0, #1, 0
    9e2c:	02811001 	addeq	r1, r1, #1, 0
    9e30:	0afffff7 	beq	9e14 <strcmp>
    9e34:	e5d10000 	ldrb	r0, [r1]
    9e38:	e0430000 	sub	r0, r3, r0
    9e3c:	e12fff1e 	bx	lr

00009e40 <strcpy>:
    9e40:	e1a0c000 	mov	ip, r0
    9e44:	e5d12000 	ldrb	r2, [r1]
    9e48:	e2811001 	add	r1, r1, #1, 0
    9e4c:	e5cc2000 	strb	r2, [ip]
    9e50:	e28cc001 	add	ip, ip, #1, 0
    9e54:	e3520000 	cmp	r2, #0, 0
    9e58:	1afffff9 	bne	9e44 <strcpy+0x4>
    9e5c:	e12fff1e 	bx	lr

00009e60 <strncmp>:
    9e60:	e3520000 	cmp	r2, #0, 0
    9e64:	e2422001 	sub	r2, r2, #1, 0
    9e68:	0a000005 	beq	9e84 <strncmp+0x24>
    9e6c:	e4d03001 	ldrb	r3, [r0], #1
    9e70:	e4d1c001 	ldrb	ip, [r1], #1
    9e74:	e153000c 	cmp	r3, ip
    9e78:	0afffff8 	beq	9e60 <strncmp>
    9e7c:	e043000c 	sub	r0, r3, ip
    9e80:	e12fff1e 	bx	lr
    9e84:	e3a00000 	mov	r0, #0, 0
    9e88:	e12fff1e 	bx	lr

00009e8c <reboot_callout>:
    9e8c:	e12fff1e 	bx	lr

00009e90 <dev_barrier>:
    9e90:	ea000002 	b	9ea0 <dsb>

00009e94 <dmb>:
    9e94:	e3a00000 	mov	r0, #0, 0
    9e98:	ee070fba 	mcr	15, 0, r0, cr7, cr10, {5}
    9e9c:	e12fff1e 	bx	lr

00009ea0 <dsb>:
    9ea0:	ee070f9a 	mcr	15, 0, r0, cr7, cr10, {4}
    9ea4:	e12fff1e 	bx	lr

00009ea8 <gpio_set_function>:
    9ea8:	e350001f 	cmp	r0, #31, 0
    9eac:	812fff1e 	bxhi	lr
    9eb0:	e92d4070 	push	{r4, r5, r6, lr}
    9eb4:	e1a05001 	mov	r5, r1
    9eb8:	e3d13007 	bics	r3, r1, #7, 0
    9ebc:	18bd8070 	popne	{r4, r5, r6, pc}
    9ec0:	e59f3040 	ldr	r3, [pc, #64]	; 9f08 <gpio_set_function+0x60>
    9ec4:	e0832093 	umull	r2, r3, r3, r0
    9ec8:	e1a031a3 	lsr	r3, r3, #3
    9ecc:	e1a02003 	mov	r2, r3
    9ed0:	e0833103 	add	r3, r3, r3, lsl #2
    9ed4:	e0403083 	sub	r3, r0, r3, lsl #1
    9ed8:	e0834083 	add	r4, r3, r3, lsl #1
    9edc:	e2820302 	add	r0, r2, #134217728	; 0x8000000
    9ee0:	e2800702 	add	r0, r0, #524288	; 0x80000
    9ee4:	e1a06100 	lsl	r6, r0, #2
    9ee8:	e1a00006 	mov	r0, r6
    9eec:	ebfff84e 	bl	802c <GET32>
    9ef0:	e3a01007 	mov	r1, #7, 0
    9ef4:	e1c01411 	bic	r1, r0, r1, lsl r4
    9ef8:	e1811415 	orr	r1, r1, r5, lsl r4
    9efc:	e1a00006 	mov	r0, r6
    9f00:	ebfff847 	bl	8024 <PUT32>
    9f04:	e8bd8070 	pop	{r4, r5, r6, pc}
    9f08:	cccccccd 	stclgt	12, cr12, [ip], {205}	; 0xcd

00009f0c <gpio_set_output>:
    9f0c:	e92d4010 	push	{r4, lr}
    9f10:	e3a01001 	mov	r1, #1, 0
    9f14:	ebffffe3 	bl	9ea8 <gpio_set_function>
    9f18:	e8bd8010 	pop	{r4, pc}

00009f1c <gpio_set_on>:
    9f1c:	e350001f 	cmp	r0, #31, 0
    9f20:	812fff1e 	bxhi	lr
    9f24:	e92d4010 	push	{r4, lr}
    9f28:	e3a01001 	mov	r1, #1, 0
    9f2c:	e1a01011 	lsl	r1, r1, r0
    9f30:	e59f0004 	ldr	r0, [pc, #4]	; 9f3c <gpio_set_on+0x20>
    9f34:	ebfff83a 	bl	8024 <PUT32>
    9f38:	e8bd8010 	pop	{r4, pc}
    9f3c:	2020001c 	eorcs	r0, r0, ip, lsl r0

00009f40 <gpio_set_off>:
    9f40:	e350001f 	cmp	r0, #31, 0
    9f44:	812fff1e 	bxhi	lr
    9f48:	e92d4010 	push	{r4, lr}
    9f4c:	e3a01001 	mov	r1, #1, 0
    9f50:	e1a01011 	lsl	r1, r1, r0
    9f54:	e59f0004 	ldr	r0, [pc, #4]	; 9f60 <gpio_set_off+0x20>
    9f58:	ebfff831 	bl	8024 <PUT32>
    9f5c:	e8bd8010 	pop	{r4, pc}
    9f60:	20200028 	eorcs	r0, r0, r8, lsr #32

00009f64 <gpio_set_input>:
    9f64:	e92d4010 	push	{r4, lr}
    9f68:	e3a01000 	mov	r1, #0, 0
    9f6c:	ebffffcd 	bl	9ea8 <gpio_set_function>
    9f70:	e8bd8010 	pop	{r4, pc}

00009f74 <gpio_write>:
    9f74:	e92d4010 	push	{r4, lr}
    9f78:	e3510000 	cmp	r1, #0, 0
    9f7c:	0a000001 	beq	9f88 <gpio_write+0x14>
    9f80:	ebffffe5 	bl	9f1c <gpio_set_on>
    9f84:	e8bd8010 	pop	{r4, pc}
    9f88:	ebffffec 	bl	9f40 <gpio_set_off>
    9f8c:	e8bd8010 	pop	{r4, pc}

00009f90 <gpio_read>:
    9f90:	e350001f 	cmp	r0, #31, 0
    9f94:	8a000007 	bhi	9fb8 <gpio_read+0x28>
    9f98:	e92d4010 	push	{r4, lr}
    9f9c:	e200401f 	and	r4, r0, #31, 0
    9fa0:	e59f3018 	ldr	r3, [pc, #24]	; 9fc0 <gpio_read+0x30>
    9fa4:	e08302a0 	add	r0, r3, r0, lsr #5
    9fa8:	ebfff81f 	bl	802c <GET32>
    9fac:	e1a00430 	lsr	r0, r0, r4
    9fb0:	e2000001 	and	r0, r0, #1, 0
    9fb4:	e8bd8010 	pop	{r4, pc}
    9fb8:	e3e00000 	mvn	r0, #0, 0
    9fbc:	e12fff1e 	bx	lr
    9fc0:	20200034 	eorcs	r0, r0, r4, lsr r0

00009fc4 <__code_end__>:
    9fc4:	00000000 	andeq	r0, r0, r0

Disassembly of section .rodata:

00009fc8 <__FUNCTION__.4034-0xa0>:
    9fc8:	74736574 	ldrbtvc	r6, [r3], #-1396	; 0xfffffa8c
    9fcc:	75203a33 	strvc	r3, [r0, #-2611]!	; 0xfffff5cd
    9fd0:	61206573 			; <UNDEFINED> instruction: 0x61206573
    9fd4:	72657466 	rsbvc	r7, r5, #1711276032	; 0x66000000
    9fd8:	65726620 	ldrbvs	r6, [r2, #-1568]!	; 0xfffff9e0
    9fdc:	00000a65 	andeq	r0, r0, r5, ror #20
    9fe0:	74736574 	ldrbtvc	r6, [r3], #-1396	; 0xfffffa8c
    9fe4:	2e332d73 	mrccs	13, 1, r2, cr3, cr3, {3}
    9fe8:	61702f30 	cmnvs	r0, r0, lsr pc
    9fec:	2d317472 	cfldrscs	mvf7, [r1, #-456]!	; 0xfffffe38
    9ff0:	74736574 	ldrbtvc	r6, [r3], #-1396	; 0xfffffa8c
    9ff4:	75622d33 	strbvc	r2, [r2, #-3379]!	; 0xfffff2cd
    9ff8:	00632e67 	rsbeq	r2, r3, r7, ror #28
    9ffc:	494e4150 	stmdbmi	lr, {r4, r6, r8, lr}^
    a000:	73253a43 			; <UNDEFINED> instruction: 0x73253a43
    a004:	3a73253a 	bcc	1cd34f4 <__bss_end__+0x1cc86ec>
    a008:	693a6425 	ldmdbvs	sl!, {r0, r2, r5, sl, sp, lr}
    a00c:	6c61766e 	stclvs	6, cr7, [r1], #-440	; 0xfffffe48
    a010:	65206469 	strvs	r6, [r0, #-1129]!	; 0xfffffb97
    a014:	726f7272 	rsbvc	r7, pc, #536870919	; 0x20000007
    a018:	6168203a 	cmnvs	r8, sl, lsr r0
    a01c:	25206576 	strcs	r6, [r0, #-1398]!	; 0xfffffa8a
    a020:	72652064 	rsbvc	r2, r5, #100, 0	; 0x64
    a024:	73726f72 	cmnvc	r2, #456	; 0x1c8
    a028:	70786520 	rsbsvc	r6, r8, r0, lsr #10
    a02c:	65746365 	ldrbvs	r6, [r4, #-869]!	; 0xfffffc9b
    a030:	21312064 	teqcs	r1, r4, rrx
    a034:	000a0a21 	andeq	r0, sl, r1, lsr #20
    a038:	43415254 	movtmi	r5, #4692	; 0x1254
    a03c:	55533a45 	ldrbpl	r3, [r3, #-2629]	; 0xfffff5bb
    a040:	53454343 	movtpl	r4, #21315	; 0x5343
    a044:	64203a53 	strtvs	r3, [r0], #-2643	; 0xfffff5ad
    a048:	63657465 	cmnvs	r5, #1694498816	; 0x65000000
    a04c:	20646574 	rsbcs	r6, r4, r4, ror r5
    a050:	72726f63 	rsbsvc	r6, r2, #396	; 0x18c
    a054:	69747075 	ldmdbvs	r4!, {r0, r2, r4, r5, r6, ip, sp, lr}^
    a058:	69206e6f 	stmdbvs	r0!, {r0, r1, r2, r3, r5, r6, r9, sl, fp, sp, lr}
    a05c:	7525206e 	strvc	r2, [r5, #-110]!	; 0xffffff92
    a060:	70255b20 	eorvc	r5, r5, r0, lsr #22
    a064:	00000a5d 	andeq	r0, r0, sp, asr sl

0000a068 <__FUNCTION__.4034>:
    a068:	6d746f6e 	ldclvs	15, cr6, [r4, #-440]!	; 0xfffffe48
    a06c:	006e6961 	rsbeq	r6, lr, r1, ror #18
    a070:	6c616b63 			; <UNDEFINED> instruction: 0x6c616b63
    a074:	2e636f6c 	cdpcs	15, 6, cr6, cr3, cr12, {3}
    a078:	00000063 	andeq	r0, r0, r3, rrx
    a07c:	494e4150 	stmdbmi	lr, {r4, r6, r8, lr}^
    a080:	73253a43 			; <UNDEFINED> instruction: 0x73253a43
    a084:	3a73253a 	bcc	1cd3574 <__bss_end__+0x1cc876c>
    a088:	253a6425 	ldrcs	r6, [sl, #-1061]!	; 0xfffffbdb
    a08c:	00000a73 	andeq	r0, r0, r3, ror sl
    a090:	0000006c 	andeq	r0, r0, ip, rrx
    a094:	43415254 	movtmi	r5, #4692	; 0x1254
    a098:	6f663a45 	svcvs	0x00663a45
    a09c:	20646e75 	rsbcs	r6, r4, r5, ror lr
    a0a0:	69207025 	stmdbvs	r0!, {r0, r2, r5, ip, sp, lr}
    a0a4:	7025206e 	eorvc	r2, r5, lr, rrx
    a0a8:	0000000a 	andeq	r0, r0, sl
    a0ac:	43415254 	movtmi	r5, #4692	; 0x1254
    a0b0:	6f663a45 	svcvs	0x00663a45
    a0b4:	20646e75 	rsbcs	r6, r4, r5, ror lr
    a0b8:	6f6c6c61 	svcvs	0x006c6c61
    a0bc:	65746163 	ldrbvs	r6, [r4, #-355]!	; 0xfffffe9d
    a0c0:	70252064 	eorvc	r2, r5, r4, rrx
    a0c4:	206e6920 	rsbcs	r6, lr, r0, lsr #18
    a0c8:	000a7025 	andeq	r7, sl, r5, lsr #32
    a0cc:	43415254 	movtmi	r5, #4692	; 0x1254
    a0d0:	68633a45 	stmdavs	r3!, {r0, r2, r6, r9, fp, ip, sp}^
    a0d4:	696b6365 	stmdbvs	fp!, {r0, r2, r5, r6, r8, r9, sp, lr}^
    a0d8:	6820676e 	stmdavs	r0!, {r1, r2, r3, r5, r6, r8, r9, sl, sp, lr}
    a0dc:	20706165 	rsbscs	r6, r0, r5, ror #2
    a0e0:	20726f66 	rsbscs	r6, r2, r6, ror #30
    a0e4:	6f727265 	svcvs	0x00727265
    a0e8:	2e2e7372 	mcrcs	3, 1, r7, cr14, cr2, {3}
    a0ec:	00000a2e 	andeq	r0, r0, lr, lsr #20
    a0f0:	43415254 	movtmi	r5, #4692	; 0x1254
    a0f4:	65723a45 	ldrbvs	r3, [r2, #-2629]!	; 0xfffff5bb
    a0f8:	6e6f7a64 	vnmulvs.f32	s15, s30, s9
    a0fc:	69207365 	stmdbvs	r0!, {r0, r2, r5, r6, r8, r9, ip, sp, lr}
    a100:	6d72636e 	ldclvs	3, cr6, [r2, #-440]!	; 0xfffffe48
    a104:	69746e65 	ldmdbvs	r4!, {r0, r2, r5, r6, r9, sl, fp, sp, lr}^
    a108:	6520676e 	strvs	r6, [r0, #-1902]!	; 0xfffff892
    a10c:	736f7272 	cmnvc	pc, #536870919	; 0x20000007
    a110:	00000000 	andeq	r0, r0, r0
    a114:	43415254 	movtmi	r5, #4692	; 0x1254
    a118:	64753a45 	ldrbtvs	r3, [r5], #-2629	; 0xfffff5bb
    a11c:	20617461 	rsbcs	r7, r1, r1, ror #8
    a120:	72636e69 	rsbvc	r6, r3, #1680	; 0x690
    a124:	6e656d65 	cdpvs	13, 6, cr6, cr5, cr5, {3}
    a128:	676e6974 			; <UNDEFINED> instruction: 0x676e6974
    a12c:	72726520 	rsbsvc	r6, r2, #32, 10	; 0x8000000
    a130:	000a2e73 	andeq	r2, sl, r3, ror lr
    a134:	5f434f4c 	svcpl	0x00434f4c
    a138:	494e4150 	stmdbmi	lr, {r4, r6, r8, lr}^
    a13c:	25203a43 	strcs	r3, [r0, #-2627]!	; 0xfffff5bd
    a140:	73253a73 			; <UNDEFINED> instruction: 0x73253a73
    a144:	3a64253a 	bcc	1913634 <__bss_end__+0x190882c>
    a148:	00000000 	andeq	r0, r0, r0
    a14c:	65657266 	strbvs	r7, [r5, #-614]!	; 0xfffffd9a
    a150:	20676e69 	rsbcs	r6, r7, r9, ror #28
    a154:	6c616e75 	stclvs	14, cr6, [r1], #-468	; 0xfffffe2c
    a158:	61636f6c 	cmnvs	r3, ip, ror #30
    a15c:	20646574 	rsbcs	r6, r4, r4, ror r5
    a160:	6f6d656d 	svcvs	0x006d656d
    a164:	203a7972 	eorscs	r7, sl, r2, ror r9
    a168:	6464615b 	strbtvs	r6, [r4], #-347	; 0xfffffea5
    a16c:	203d2072 	eorscs	r2, sp, r2, ror r0
    a170:	73207025 			; <UNDEFINED> instruction: 0x73207025
    a174:	65746174 	ldrbvs	r6, [r4, #-372]!	; 0xfffffe8c
    a178:	5d64253d 	cfstr64pl	mvdx2, [r4, #-244]!	; 0xffffff0c
    a17c:	0000000a 	andeq	r0, r0, sl
    a180:	253a7325 	ldrcs	r7, [sl, #-805]!	; 0xfffffcdb
    a184:	64253a73 	strtvs	r3, [r5], #-2675	; 0xfffff58d
    a188:	0000003a 	andeq	r0, r0, sl, lsr r0
    a18c:	65657266 	strbvs	r7, [r5, #-614]!	; 0xfffffd9a
    a190:	20676e69 	rsbcs	r6, r7, r9, ror #28
    a194:	636f6c62 	cmnvs	pc, #25088	; 0x6200
    a198:	203d206b 	eorscs	r2, sp, fp, rrx
    a19c:	5b206425 	blpl	823238 <__bss_end__+0x818430>
    a1a0:	72646461 	rsbvc	r6, r4, #1627389952	; 0x61000000
    a1a4:	25203d20 	strcs	r3, [r0, #-3360]!	; 0xfffff2e0
    a1a8:	000a5d70 	andeq	r5, sl, r0, ror sp
    a1ac:	705f6b63 	subsvc	r6, pc, r3, ror #22
    a1b0:	695f7274 	ldmdbvs	pc, {r2, r4, r5, r6, r9, ip, sp, lr}^	; <UNPREDICTABLE>
    a1b4:	6c615f73 	stclvs	15, cr5, [r1], #-460	; 0xfffffe34
    a1b8:	65636f6c 	strbvs	r6, [r3, #-3948]!	; 0xfffff094
    a1bc:	64612864 	strbtvs	r2, [r1], #-2148	; 0xfffff79c
    a1c0:	20297264 	eorcs	r7, r9, r4, ror #4
    a1c4:	30203d21 	eorcc	r3, r0, r1, lsr #26
    a1c8:	00000000 	andeq	r0, r0, r0
    a1cc:	494e4150 	stmdbmi	lr, {r4, r6, r8, lr}^
    a1d0:	73253a43 			; <UNDEFINED> instruction: 0x73253a43
    a1d4:	3a73253a 	bcc	1cd36c4 <__bss_end__+0x1cc88bc>
    a1d8:	453a6425 	ldrmi	r6, [sl, #-1061]!	; 0xfffffbdb
    a1dc:	726f7272 	rsbvc	r7, pc, #536870919	; 0x20000007
    a1e0:	6572203a 	ldrbvs	r2, [r2, #-58]!	; 0xffffffc6
    a1e4:	6e6f7a64 	vnmulvs.f32	s15, s30, s9
    a1e8:	6f632065 	svcvs	0x00632065
    a1ec:	70757272 	rsbsvc	r7, r5, r2, ror r2
    a1f0:	6e6f6974 			; <UNDEFINED> instruction: 0x6e6f6974
    a1f4:	74656420 	strbtvc	r6, [r5], #-1056	; 0xfffffbe0
    a1f8:	65746365 	ldrbvs	r6, [r4, #-869]!	; 0xfffffc9b
    a1fc:	6e6f2064 	cdpvs	0, 6, cr2, cr15, cr4, {3}
    a200:	65726620 	ldrbvs	r6, [r2, #-1568]!	; 0xfffff9e0
    a204:	666f2065 	strbtvs	r2, [pc], -r5, rrx
    a208:	6f6c6220 	svcvs	0x006c6220
    a20c:	3d206b63 	fstmdbxcc	r0!, {d6-d54}	;@ Deprecated
    a210:	20642520 	rsbcs	r2, r4, r0, lsr #10
    a214:	6464615b 	strbtvs	r6, [r4], #-347	; 0xfffffea5
    a218:	203d2072 	eorscs	r2, sp, r2, ror r0
    a21c:	2e5d7825 	cdpcs	8, 5, cr7, cr13, cr5, {1}
    a220:	00000a0a 	andeq	r0, r0, sl, lsl #20
    a224:	5f6b6321 	svcpl	0x006b6321
    a228:	5f727470 	svcpl	0x00727470
    a22c:	615f7369 	cmpvs	pc, r9, ror #6
    a230:	636f6c6c 	cmnvs	pc, #108, 24	; 0x6c00
    a234:	61286465 			; <UNDEFINED> instruction: 0x61286465
    a238:	29726464 	ldmdbcs	r2!, {r2, r5, r6, sl, sp, lr}^
    a23c:	00000000 	andeq	r0, r0, r0
    a240:	6f6c6c61 	svcvs	0x006c6c61
    a244:	69746163 	ldmdbvs	r4!, {r0, r1, r5, r6, r8, sp, lr}^
    a248:	6220676e 	eorvs	r6, r0, #28835840	; 0x1b80000
    a24c:	6b636f6c 	blvs	18e6004 <__bss_end__+0x18db1fc>
    a250:	25203d20 	strcs	r3, [r0, #-3360]!	; 0xfffff2e0
    a254:	615b2064 	cmpvs	fp, r4, rrx
    a258:	20726464 	rsbscs	r6, r2, r4, ror #8
    a25c:	7025203d 	eorvc	r2, r5, sp, lsr r0
    a260:	00000a5d 	andeq	r0, r0, sp, asr sl

0000a264 <__FUNCTION__.4064>:
    a264:	7473696c 	ldrbtvc	r6, [r3], #-2412	; 0xfffff694
    a268:	7070615f 	rsbsvc	r6, r0, pc, asr r1
    a26c:	00646e65 	rsbeq	r6, r4, r5, ror #28

0000a270 <__FUNCTION__.4126>:
    a270:	72666b63 	rsbvc	r6, r6, #101376	; 0x18c00
    a274:	00006565 	andeq	r6, r0, r5, ror #10
    a278:	2d2d2d2d 	stccs	13, cr2, [sp, #-180]!	; 0xffffff4c
    a27c:	2d2d2d2d 	stccs	13, cr2, [sp, #-180]!	; 0xffffff4c
    a280:	2d2d2d2d 	stccs	13, cr2, [sp, #-180]!	; 0xffffff4c
    a284:	2d2d2d2d 	stccs	13, cr2, [sp, #-180]!	; 0xffffff4c
    a288:	2d2d2d2d 	stccs	13, cr2, [sp, #-180]!	; 0xffffff4c
    a28c:	2d2d2d2d 	stccs	13, cr2, [sp, #-180]!	; 0xffffff4c
    a290:	2d2d2d2d 	stccs	13, cr2, [sp, #-180]!	; 0xffffff4c
    a294:	2d2d2d2d 	stccs	13, cr2, [sp, #-180]!	; 0xffffff4c
    a298:	2d2d2d2d 	stccs	13, cr2, [sp, #-180]!	; 0xffffff4c
    a29c:	2d2d2d2d 	stccs	13, cr2, [sp, #-180]!	; 0xffffff4c
    a2a0:	2d2d2d2d 	stccs	13, cr2, [sp, #-180]!	; 0xffffff4c
    a2a4:	2d2d2d2d 	stccs	13, cr2, [sp, #-180]!	; 0xffffff4c
    a2a8:	2d2d2d2d 	stccs	13, cr2, [sp, #-180]!	; 0xffffff4c
    a2ac:	2d2d2d2d 	stccs	13, cr2, [sp, #-180]!	; 0xffffff4c
    a2b0:	00000a2d 	andeq	r0, r0, sp, lsr #20
    a2b4:	63656863 	cmnvs	r5, #6488064	; 0x630000
    a2b8:	676e696b 	strbvs	r6, [lr, -fp, ror #18]!
    a2bc:	726f6620 	rsbvc	r6, pc, #32, 12	; 0x2000000
    a2c0:	61656c20 	cmnvs	r5, r0, lsr #24
    a2c4:	0a3a736b 	beq	ea7078 <__bss_end__+0xe9c270>
    a2c8:	00000000 	andeq	r0, r0, r0
    a2cc:	43415254 	movtmi	r5, #4692	; 0x1254
    a2d0:	69663a45 	stmdbvs	r6!, {r0, r2, r6, r9, fp, ip, sp}^
    a2d4:	3a747372 	bcc	1d270a4 <__bss_end__+0x1d1c29c>
    a2d8:	72756320 	rsbsvc	r6, r5, #32, 6	; 0x80000000
    a2dc:	203d2072 	eorscs	r2, sp, r2, ror r0
    a2e0:	202c7825 	eorcs	r7, ip, r5, lsr #16
    a2e4:	72617473 	rsbvc	r7, r1, #1929379840	; 0x73000000
    a2e8:	65722074 	ldrbvs	r2, [r2, #-116]!	; 0xffffff8c
    a2ec:	3d207366 	stccc	3, cr7, [r0, #-408]!	; 0xfffffe68
    a2f0:	2c642520 	cfstr64cs	mvdx2, [r4], #-128	; 0xffffff80
    a2f4:	64696d20 	strbtvs	r6, [r9], #-3360	; 0xfffff2e0
    a2f8:	66657220 	strbtvs	r7, [r5], -r0, lsr #4
    a2fc:	203d2073 	eorscs	r2, sp, r3, ror r0
    a300:	000a6425 	andeq	r6, sl, r5, lsr #8
    a304:	43415254 	movtmi	r5, #4692	; 0x1254
    a308:	696d3a45 	stmdbvs	sp!, {r0, r2, r6, r9, fp, ip, sp}^
    a30c:	203a6464 	eorscs	r6, sl, r4, ror #8
    a310:	72727563 	rsbsvc	r7, r2, #415236096	; 0x18c00000
    a314:	25203d20 	strcs	r3, [r0, #-3360]!	; 0xfffff2e0
    a318:	73202c78 			; <UNDEFINED> instruction: 0x73202c78
    a31c:	74726174 	ldrbtvc	r6, [r2], #-372	; 0xfffffe8c
    a320:	66657220 	strbtvs	r7, [r5], -r0, lsr #4
    a324:	203d2073 	eorscs	r2, sp, r3, ror r0
    a328:	202c6425 	eorcs	r6, ip, r5, lsr #8
    a32c:	2064696d 	rsbcs	r6, r4, sp, ror #18
    a330:	73666572 	cmnvc	r6, #478150656	; 0x1c800000
    a334:	25203d20 	strcs	r3, [r0, #-3360]!	; 0xfffff2e0
    a338:	00000a64 	andeq	r0, r0, r4, ror #20
    a33c:	43415254 	movtmi	r5, #4692	; 0x1254
    a340:	6c203a45 			; <UNDEFINED> instruction: 0x6c203a45
    a344:	3a747361 	bcc	1d270d0 <__bss_end__+0x1d1c2c8>
    a348:	72756320 	rsbsvc	r6, r5, #32, 6	; 0x80000000
    a34c:	203d2072 	eorscs	r2, sp, r2, ror r0
    a350:	202c7825 	eorcs	r7, ip, r5, lsr #16
    a354:	72617473 	rsbvc	r7, r1, #1929379840	; 0x73000000
    a358:	65722074 	ldrbvs	r2, [r2, #-116]!	; 0xffffff8c
    a35c:	3d207366 	stccc	3, cr7, [r0, #-408]!	; 0xfffffe68
    a360:	2c642520 	cfstr64cs	mvdx2, [r4], #-128	; 0xffffff80
    a364:	64696d20 	strbtvs	r6, [r9], #-3360	; 0xfffff2e0
    a368:	66657220 	strbtvs	r7, [r5], -r0, lsr #4
    a36c:	203d2073 	eorscs	r2, sp, r3, ror r0
    a370:	000a6425 	andeq	r6, sl, r5, lsr #8
    a374:	43415254 	movtmi	r5, #4692	; 0x1254
    a378:	756f3a45 	strbvc	r3, [pc, #-2629]!	; 993b <uart_getc+0xf>
    a37c:	64697374 	strbtvs	r7, [r9], #-884	; 0xfffffc8c
    a380:	63203a65 			; <UNDEFINED> instruction: 0x63203a65
    a384:	20727275 	rsbscs	r7, r2, r5, ror r2
    a388:	7825203d 	stmdavc	r5!, {r0, r2, r3, r4, r5, sp}
    a38c:	7473202c 	ldrbtvc	r2, [r3], #-44	; 0xffffffd4
    a390:	20747261 	rsbscs	r7, r4, r1, ror #4
    a394:	73666572 	cmnvc	r6, #478150656	; 0x1c800000
    a398:	25203d20 	strcs	r3, [r0, #-3360]!	; 0xfffff2e0
    a39c:	6d202c64 	stcvs	12, cr2, [r0, #-400]!	; 0xfffffe70
    a3a0:	72206469 	eorvc	r6, r0, #1761607680	; 0x69000000
    a3a4:	20736665 	rsbscs	r6, r3, r5, ror #12
    a3a8:	6425203d 	strtvs	r2, [r5], #-61	; 0xffffffc3
    a3ac:	0000000a 	andeq	r0, r0, sl
    a3b0:	43415254 	movtmi	r5, #4692	; 0x1254
    a3b4:	47093a45 	strmi	r3, [r9, -r5, asr #20]
    a3b8:	68433a43 	stmdavs	r3, {r0, r1, r6, r9, fp, ip, sp}^
    a3bc:	656b6365 	strbvs	r6, [fp, #-869]!	; 0xfffffc9b
    a3c0:	64252064 	strtvs	r2, [r5], #-100	; 0xffffff9c
    a3c4:	6f6c6220 	svcvs	0x006c6220
    a3c8:	2e736b63 	vsubcs.f64	d22, d3, d19
    a3cc:	0000000a 	andeq	r0, r0, sl
    a3d0:	43415254 	movtmi	r5, #4692	; 0x1254
    a3d4:	09093a45 	stmdbeq	r9, {r0, r2, r6, r9, fp, ip, sp}
    a3d8:	533a4347 	teqpl	sl, #469762049	; 0x1c000001
    a3dc:	45434355 	strbmi	r4, [r3, #-853]	; 0xfffffcab
    a3e0:	203a5353 	eorscs	r5, sl, r3, asr r3
    a3e4:	6c206f4e 	stcvs	15, cr6, [r0], #-312	; 0xfffffec8
    a3e8:	736b6165 	cmnvc	fp, #1073741849	; 0x40000019
    a3ec:	756f6620 	strbvc	r6, [pc, #-1568]!	; 9dd4 <rpi_set_putc+0x4>
    a3f0:	0a21646e 	beq	8635b0 <__bss_end__+0x8587a8>
    a3f4:	00000000 	andeq	r0, r0, r0
    a3f8:	43415254 	movtmi	r5, #4692	; 0x1254
    a3fc:	09093a45 	stmdbeq	r9, {r0, r2, r6, r9, fp, ip, sp}
    a400:	453a4347 	ldrmi	r4, [sl, #-839]!	; 0xfffffcb9
    a404:	524f5252 	subpl	r5, pc, #536870917	; 0x20000005
    a408:	25203a53 	strcs	r3, [r0, #-2643]!	; 0xfffff5ad
    a40c:	72652064 	rsbvc	r2, r5, #100, 0	; 0x64
    a410:	73726f72 	cmnvc	r2, #456	; 0x1c8
    a414:	6425202c 	strtvs	r2, [r5], #-44	; 0xffffffd4
    a418:	79616d20 	stmdbvc	r1!, {r5, r8, sl, fp, sp, lr}^
    a41c:	655f6562 	ldrbvs	r6, [pc, #-1378]	; 9ec2 <gpio_set_function+0x1a>
    a420:	726f7272 	rsbvc	r7, pc, #536870919	; 0x20000007
    a424:	00000a73 	andeq	r0, r0, r3, ror sl
    a428:	2d2d2d2d 	stccs	13, cr2, [sp, #-180]!	; 0xffffff4c
    a42c:	2d2d2d2d 	stccs	13, cr2, [sp, #-180]!	; 0xffffff4c
    a430:	2d2d2d2d 	stccs	13, cr2, [sp, #-180]!	; 0xffffff4c
    a434:	2d2d2d2d 	stccs	13, cr2, [sp, #-180]!	; 0xffffff4c
    a438:	2d2d2d2d 	stccs	13, cr2, [sp, #-180]!	; 0xffffff4c
    a43c:	2d2d2d2d 	stccs	13, cr2, [sp, #-180]!	; 0xffffff4c
    a440:	2d2d2d2d 	stccs	13, cr2, [sp, #-180]!	; 0xffffff4c
    a444:	2d2d2d2d 	stccs	13, cr2, [sp, #-180]!	; 0xffffff4c
    a448:	2d2d2d2d 	stccs	13, cr2, [sp, #-180]!	; 0xffffff4c
    a44c:	2d2d2d2d 	stccs	13, cr2, [sp, #-180]!	; 0xffffff4c
    a450:	2d2d2d2d 	stccs	13, cr2, [sp, #-180]!	; 0xffffff4c
    a454:	2d2d2d2d 	stccs	13, cr2, [sp, #-180]!	; 0xffffff4c
    a458:	2d2d2d2d 	stccs	13, cr2, [sp, #-180]!	; 0xffffff4c
    a45c:	2d2d2d2d 	stccs	13, cr2, [sp, #-180]!	; 0xffffff4c
    a460:	000a2d2d 	andeq	r2, sl, sp, lsr #26
    a464:	706d6f63 	rsbvc	r6, sp, r3, ror #30
    a468:	69746361 	ldmdbvs	r4!, {r0, r5, r6, r8, r9, sp, lr}^
    a46c:	0a3a676e 	beq	ea422c <__bss_end__+0xe99424>
    a470:	00000000 	andeq	r0, r0, r0
    a474:	43415254 	movtmi	r5, #4692	; 0x1254
    a478:	656c3a45 	strbvs	r3, [ip, #-2629]!	; 0xfffff5bb
    a47c:	66206b61 	strtvs	r6, [r0], -r1, ror #22
    a480:	646e756f 	strbtvs	r7, [lr], #-1391	; 0xfffffa91
    a484:	726f6620 	rsbvc	r6, pc, #32, 12	; 0x2000000
    a488:	6f6c6220 	svcvs	0x006c6220
    a48c:	203a6b63 	eorscs	r6, sl, r3, ror #22
    a490:	5b206425 	blpl	82352c <__bss_end__+0x818724>
    a494:	72646461 	rsbvc	r6, r4, #1627389952	; 0x61000000
    a498:	25203d20 	strcs	r3, [r0, #-3360]!	; 0xfffff2e0
    a49c:	202e5d64 	eorcs	r5, lr, r4, ror #26
    a4a0:	65657246 	strbvs	r7, [r5, #-582]!	; 0xfffffdba
    a4a4:	2e676e69 	cdpcs	14, 6, cr6, cr7, cr9, {3}
    a4a8:	0000000a 	andeq	r0, r0, sl
    a4ac:	43415254 	movtmi	r5, #4692	; 0x1254
    a4b0:	47093a45 	strmi	r3, [r9, -r5, asr #20]
    a4b4:	68433a43 	stmdavs	r3, {r0, r1, r6, r9, fp, ip, sp}^
    a4b8:	656b6365 	strbvs	r6, [fp, #-869]!	; 0xfffffc9b
    a4bc:	64252064 	strtvs	r2, [r5], #-100	; 0xffffff9c
    a4c0:	6f6c6220 	svcvs	0x006c6220
    a4c4:	2c736b63 			; <UNDEFINED> instruction: 0x2c736b63
    a4c8:	65726620 	ldrbvs	r6, [r2, #-1568]!	; 0xfffff9e0
    a4cc:	25206465 	strcs	r6, [r0, #-1125]!	; 0xfffffb9b
    a4d0:	25202c64 	strcs	r2, [r0, #-3172]!	; 0xfffff39c
    a4d4:	79622064 	stmdbvc	r2!, {r2, r5, r6, sp}^
    a4d8:	0a736574 	beq	1ce3ab0 <__bss_end__+0x1cd8ca8>
    a4dc:	00000000 	andeq	r0, r0, r0
    a4e0:	672d6b63 	strvs	r6, [sp, -r3, ror #22]!
    a4e4:	00632e63 	rsbeq	r2, r3, r3, ror #28
    a4e8:	00653c70 	rsbeq	r3, r5, r0, ror ip
    a4ec:	67696c61 	strbvs	r6, [r9, -r1, ror #24]!
    a4f0:	2864656e 	stmdacs	r4!, {r1, r2, r3, r5, r6, r8, sl, sp, lr}^
    a4f4:	29342c70 	ldmdbcs	r4!, {r4, r5, r6, sl, fp, sp}
    a4f8:	00000000 	andeq	r0, r0, r0
    a4fc:	67696c61 	strbvs	r6, [r9, -r1, ror #24]!
    a500:	2864656e 	stmdacs	r4!, {r1, r2, r3, r5, r6, r8, sl, sp, lr}^
    a504:	29342c65 	ldmdbcs	r4!, {r0, r2, r5, r6, sl, fp, sp}
    a508:	00000000 	andeq	r0, r0, r0
    a50c:	43415254 	movtmi	r5, #4692	; 0x1254
    a510:	6e693a45 	vnmulvs.f32	s7, s18, s10
    a514:	72627320 	rsbvc	r7, r2, #32, 6	; 0x80000000
    a518:	00000a6b 	andeq	r0, r0, fp, ror #20
    a51c:	72636e69 	rsbvc	r6, r3, #1680	; 0x690
    a520:	6e656d65 	cdpvs	13, 6, cr6, cr5, cr5, {3}
    a524:	203e2074 	eorscs	r2, lr, r4, ror r0
    a528:	00000030 	andeq	r0, r0, r0, lsr r0
    a52c:	43415254 	movtmi	r5, #4692	; 0x1254
    a530:	614d3a45 	cmpvs	sp, r5, asr #20
    a534:	6e696b72 	vmovvs.8	d9[7], r6
    a538:	2e2e2e67 	cdpcs	14, 2, cr2, cr14, cr7, {3}
    a53c:	00000000 	andeq	r0, r0, r0
    a540:	656e6f44 	strbvs	r6, [lr, #-3908]!	; 0xfffff0bc
    a544:	00000a21 	andeq	r0, r0, r1, lsr #20
    a548:	494e4150 	stmdbmi	lr, {r4, r6, r8, lr}^
    a54c:	73253a43 			; <UNDEFINED> instruction: 0x73253a43
    a550:	3a73253a 	bcc	1cd3a40 <__bss_end__+0x1cc8c38>
    a554:	473a6425 	ldrmi	r6, [sl, -r5, lsr #8]!
    a558:	73203a43 			; <UNDEFINED> instruction: 0x73203a43
    a55c:	6c756f68 	ldclvs	15, cr6, [r5], #-416	; 0xfffffe60
    a560:	61682064 	cmnvs	r8, r4, rrx
    a564:	6e206576 	mcrvs	5, 1, r6, cr0, cr6, {3}
    a568:	656c206f 	strbvs	r2, [ip, #-111]!	; 0xffffff91
    a56c:	21736b61 	cmncs	r3, r1, ror #22
    a570:	00000a0a 	andeq	r0, r0, sl, lsl #20
    a574:	43415254 	movtmi	r5, #4692	; 0x1254
    a578:	43473a45 	movtmi	r3, #31301	; 0x7a45
    a57c:	5553203a 	ldrbpl	r2, [r3, #-58]	; 0xffffffc6
    a580:	53454343 	movtpl	r4, #21315	; 0x5343
    a584:	6e203a53 			; <UNDEFINED> instruction: 0x6e203a53
    a588:	656c206f 	strbvs	r2, [ip, #-111]!	; 0xffffff91
    a58c:	21736b61 	cmncs	r3, r1, ror #22
    a590:	0000000a 	andeq	r0, r0, sl
    a594:	494e4150 	stmdbmi	lr, {r4, r6, r8, lr}^
    a598:	73253a43 			; <UNDEFINED> instruction: 0x73253a43
    a59c:	3a73253a 	bcc	1cd3a8c <__bss_end__+0x1cc8c84>
    a5a0:	473a6425 	ldrmi	r6, [sl, -r5, lsr #8]!
    a5a4:	73203a43 			; <UNDEFINED> instruction: 0x73203a43
    a5a8:	6c756f68 	ldclvs	15, cr6, [r5], #-416	; 0xfffffe60
    a5ac:	61682064 	cmnvs	r8, r4, rrx
    a5b0:	6c206576 	cfstr32vs	mvfx6, [r0], #-472	; 0xfffffe28
    a5b4:	736b6165 	cmnvc	fp, #1073741849	; 0x40000019
    a5b8:	000a0a21 	andeq	r0, sl, r1, lsr #20
    a5bc:	43415254 	movtmi	r5, #4692	; 0x1254
    a5c0:	43473a45 	movtmi	r3, #31301	; 0x7a45
    a5c4:	5553203a 	ldrbpl	r2, [r3, #-58]	; 0xffffffc6
    a5c8:	53454343 	movtpl	r4, #21315	; 0x5343
    a5cc:	66203a53 			; <UNDEFINED> instruction: 0x66203a53
    a5d0:	646e756f 	strbtvs	r7, [lr], #-1391	; 0xfffffa91
    a5d4:	20642520 	rsbcs	r2, r4, r0, lsr #10
    a5d8:	6b61656c 	blvs	1863b90 <__bss_end__+0x1858d88>
    a5dc:	000a2173 	andeq	r2, sl, r3, ror r1
    a5e0:	494e4150 	stmdbmi	lr, {r4, r6, r8, lr}^
    a5e4:	73253a43 			; <UNDEFINED> instruction: 0x73253a43
    a5e8:	3a73253a 	bcc	1cd3ad8 <__bss_end__+0x1cc8cd0>
    a5ec:	643a6425 	ldrtvs	r6, [sl], #-1061	; 0xfffffbdb
    a5f0:	6e206469 	cdpvs	4, 2, cr6, cr0, cr9, {3}
    a5f4:	6920746f 	stmdbvs	r0!, {r0, r1, r2, r3, r5, r6, sl, ip, sp, lr}
    a5f8:	656c706d 	strbvs	r7, [ip, #-109]!	; 0xffffff93
    a5fc:	746e656d 	strbtvc	r6, [lr], #-1389	; 0xfffffa93
    a600:	6d756420 	cfldrdvs	mvd6, [r5, #-128]!	; 0xffffff80
    a604:	65725f70 	ldrbvs	r5, [r2, #-3952]!	; 0xfffff090
    a608:	0a217367 	beq	8673ac <__bss_end__+0x85c5a4>
    a60c:	0000000a 	andeq	r0, r0, sl

0000a610 <__FUNCTION__.4067>:
    a610:	6b72616d 	blvs	1ca2bcc <__bss_end__+0x1c97dc4>
    a614:	00000000 	andeq	r0, r0, r0

0000a618 <__FUNCTION__.4054>:
    a618:	6b726273 	blvs	1ca2fec <__bss_end__+0x1c981e4>
    a61c:	00000000 	andeq	r0, r0, r0

0000a620 <__FUNCTION__.4114>:
    a620:	63656863 	cmnvs	r5, #6488064	; 0x630000
    a624:	6f6e5f6b 	svcvs	0x006e5f6b
    a628:	61656c5f 	cmnvs	r5, pc, asr ip
    a62c:	0000006b 	andeq	r0, r0, fp, rrx

0000a630 <__FUNCTION__.4119>:
    a630:	63656863 	cmnvs	r5, #6488064	; 0x630000
    a634:	68735f6b 	ldmdavs	r3!, {r0, r1, r3, r5, r6, r8, r9, sl, fp, ip, lr}^
    a638:	646c756f 	strbtvs	r7, [ip], #-1391	; 0xfffffa91
    a63c:	61656c5f 	cmnvs	r5, pc, asr ip
    a640:	0000006b 	andeq	r0, r0, fp, rrx

0000a644 <__FUNCTION__.4137>:
    a644:	6c706d69 	ldclvs	13, cr6, [r0], #-420	; 0xfffffe5c
    a648:	6e656d65 	cdpvs	13, 6, cr6, cr5, cr5, {3}
    a64c:	68745f74 	ldmdavs	r4!, {r2, r4, r5, r6, r8, r9, sl, fp, ip, lr}^
    a650:	00007369 	andeq	r7, r0, r9, ror #6
    a654:	696c2f2e 	stmdbvs	ip!, {r1, r2, r3, r5, r8, r9, sl, fp, sp}^
    a658:	762f6362 	strtvc	r6, [pc], -r2, ror #6
    a65c:	72702d61 	rsbsvc	r2, r0, #6208	; 0x1840
    a660:	6b746e69 	blvs	1d2600c <__bss_end__+0x1d1b204>
    a664:	0000632e 	andeq	r6, r0, lr, lsr #6
    a668:	33323130 	teqcc	r2, #12
    a66c:	37363534 			; <UNDEFINED> instruction: 0x37363534
    a670:	00003938 	andeq	r3, r0, r8, lsr r9
    a674:	33323130 	teqcc	r2, #12
    a678:	37363534 			; <UNDEFINED> instruction: 0x37363534
    a67c:	62613938 	rsbvs	r3, r1, #56, 18	; 0xe0000
    a680:	66656463 	strbtvs	r6, [r5], -r3, ror #8
    a684:	00000000 	andeq	r0, r0, r0
    a688:	00003130 	andeq	r3, r0, r0, lsr r1
    a68c:	63747570 	cmnvs	r4, #112, 10	; 0x1c000000
    a690:	0070665f 	rsbseq	r6, r0, pc, asr r6
    a694:	74646977 	strbtvc	r6, [r4], #-2423	; 0xfffff689
    a698:	203c2068 	eorscs	r2, ip, r8, rrx
    a69c:	00003233 	andeq	r3, r0, r3, lsr r2
    a6a0:	00786c6c 	rsbseq	r6, r8, ip, ror #24
    a6a4:	00646c6c 	rsbeq	r6, r4, ip, ror #24
    a6a8:	253d3078 	ldrcs	r3, [sp, #-120]!	; 0xffffff88
    a6ac:	00000a78 	andeq	r0, r0, r8, ror sl
    a6b0:	253d3178 	ldrcs	r3, [sp, #-376]!	; 0xfffffe88
    a6b4:	00000a78 	andeq	r0, r0, r8, ror sl
    a6b8:	6e727473 	mrcvs	4, 3, r7, cr2, cr3, {3}
    a6bc:	28706d63 	ldmdacs	r0!, {r0, r1, r5, r6, r8, sl, fp, sp, lr}^
    a6c0:	202c7974 	eorcs	r7, ip, r4, ror r9
    a6c4:	786c6c22 	stmdavc	ip!, {r1, r5, sl, fp, sp, lr}^
    a6c8:	33202c22 			; <UNDEFINED> instruction: 0x33202c22
    a6cc:	3d3d2029 	ldccc	0, cr2, [sp, #-164]!	; 0xffffff5c
    a6d0:	7c203020 	stcvc	0, cr3, [r0], #-128	; 0xffffff80
    a6d4:	7473207c 	ldrbtvc	r2, [r3], #-124	; 0xffffff84
    a6d8:	6d636e72 	stclvs	14, cr6, [r3, #-456]!	; 0xfffffe38
    a6dc:	79742870 	ldmdbvc	r4!, {r4, r5, r6, fp, sp}^
    a6e0:	6c22202c 	stcvs	0, cr2, [r2], #-176	; 0xffffff50
    a6e4:	2c22646c 	cfstrscs	mvf6, [r2], #-432	; 0xfffffe50
    a6e8:	20293320 	eorcs	r3, r9, r0, lsr #6
    a6ec:	30203d3d 	eorcc	r3, r0, sp, lsr sp
    a6f0:	00000000 	andeq	r0, r0, r0
    a6f4:	494e4150 	stmdbmi	lr, {r4, r6, r8, lr}^
    a6f8:	73253a43 			; <UNDEFINED> instruction: 0x73253a43
    a6fc:	3a73253a 	bcc	1cd3bec <__bss_end__+0x1cc8de4>
    a700:	693a6425 	ldmdbvs	sl!, {r0, r2, r5, sl, sp, lr}
    a704:	736f706d 	cmnvc	pc, #109, 0	; 0x6d
    a708:	6c626973 			; <UNDEFINED> instruction: 0x6c626973
    a70c:	66203a65 	strtvs	r3, [r0], -r5, ror #20
    a710:	3c3d746d 	cfldrscc	mvf7, [sp], #-436	; 0xfffffe4c
    a714:	0a3e7325 	beq	fa73b0 <__bss_end__+0xf9c5a8>
    a718:	0000000a 	andeq	r0, r0, sl
    a71c:	494e4150 	stmdbmi	lr, {r4, r6, r8, lr}^
    a720:	73253a43 			; <UNDEFINED> instruction: 0x73253a43
    a724:	3a73253a 	bcc	1cd3c14 <__bss_end__+0x1cc8e0c>
    a728:	663a6425 	ldrtvs	r6, [sl], -r5, lsr #8
    a72c:	74616f6c 	strbtvc	r6, [r1], #-3948	; 0xfffff094
    a730:	746f6e20 	strbtvc	r6, [pc], #-3616	; a738 <__FUNCTION__.4137+0xf4>
    a734:	616e6520 	cmnvs	lr, r0, lsr #10
    a738:	64656c62 	strbtvs	r6, [r5], #-3170	; 0xfffff39e
    a73c:	0a212121 	beq	852bc8 <__bss_end__+0x847dc0>
    a740:	00000000 	andeq	r0, r0, r0
    a744:	6e697270 	mcrvs	2, 3, r7, cr9, cr0, {3}
    a748:	203a6b74 	eorscs	r6, sl, r4, ror fp
    a74c:	20746f6e 	rsbscs	r6, r4, lr, ror #30
    a750:	646e6168 	strbtvs	r6, [lr], #-360	; 0xfffffe98
    a754:	676e696c 	strbvs	r6, [lr, -ip, ror #18]!
    a758:	65707320 	ldrbvs	r7, [r0, #-800]!	; 0xfffffce0
    a75c:	69666963 	stmdbvs	r6!, {r0, r1, r5, r6, r8, fp, sp, lr}^
    a760:	27207265 	strcs	r7, [r0, -r5, ror #4]!
    a764:	20276325 	eorcs	r6, r7, r5, lsr #6
    a768:	63736128 	cmnvs	r3, #10
    a76c:	253d6969 	ldrcs	r6, [sp, #-2409]!	; 0xfffff697
    a770:	000a2964 	andeq	r2, sl, r4, ror #18
    a774:	494e4150 	stmdbmi	lr, {r4, r6, r8, lr}^
    a778:	73253a43 			; <UNDEFINED> instruction: 0x73253a43
    a77c:	3a73253a 	bcc	1cd3c6c <__bss_end__+0x1cc8e64>
    a780:	703a6425 	eorsvc	r6, sl, r5, lsr #8
    a784:	746e6972 	strbtvc	r6, [lr], #-2418	; 0xfffff68e
    a788:	7265206b 	rsbvc	r2, r5, #107, 0	; 0x6b
    a78c:	0a726f72 	beq	1ca655c <__bss_end__+0x1c9b754>
    a790:	0000000a 	andeq	r0, r0, sl

0000a794 <__FUNCTION__.4008>:
    a794:	74696d65 	strbtvc	r6, [r9], #-3429	; 0xfffff29b
    a798:	00000000 	andeq	r0, r0, r0

0000a79c <__FUNCTION__.3956>:
    a79c:	5f697072 	svcpl	0x00697072
    a7a0:	5f746573 	svcpl	0x00746573
    a7a4:	7074756f 	rsbsvc	r7, r4, pc, ror #10
    a7a8:	00007475 	andeq	r7, r0, r5, ror r4

0000a7ac <__FUNCTION__.4034>:
    a7ac:	705f6176 	subsvc	r6, pc, r6, ror r1	; <UNPREDICTABLE>
    a7b0:	746e6972 	strbtvc	r6, [lr], #-2418	; 0xfffff68e
    a7b4:	0000006b 	andeq	r0, r0, fp, rrx
    a7b8:	454e4f44 	strbmi	r4, [lr, #-3908]	; 0xfffff0bc
    a7bc:	0a212121 	beq	852c48 <__bss_end__+0x847e40>
    a7c0:	00000000 	andeq	r0, r0, r0
    a7c4:	6c616d6b 	stclvs	13, cr6, [r1], #-428	; 0xfffffe54
    a7c8:	2e636f6c 	cdpcs	15, 6, cr6, cr3, cr12, {3}
    a7cc:	00000063 	andeq	r0, r0, r3, rrx
    a7d0:	5f78616d 	svcpl	0x0078616d
    a7d4:	7479626e 	ldrbtvc	r6, [r9], #-622	; 0xfffffd92
    a7d8:	00007365 	andeq	r7, r0, r5, ror #6
    a7dc:	494e4150 	stmdbmi	lr, {r4, r6, r8, lr}^
    a7e0:	73253a43 			; <UNDEFINED> instruction: 0x73253a43
    a7e4:	3a73253a 	bcc	1cd3cd4 <__bss_end__+0x1cc8ecc>
    a7e8:	733a6425 	teqvc	sl, #620756992	; 0x25000000
    a7ec:	69747465 	ldmdbvs	r4!, {r0, r2, r5, r6, sl, ip, sp, lr}^
    a7f0:	6820676e 	stmdavs	r0!, {r1, r2, r3, r5, r6, r8, r9, sl, sp, lr}
    a7f4:	20706165 	rsbscs	r6, r0, r5, ror #2
    a7f8:	25206f74 	strcs	r6, [r0, #-3956]!	; 0xfffff08c
    a7fc:	77203a70 			; <UNDEFINED> instruction: 0x77203a70
    a800:	206c6c69 	rsbcs	r6, ip, r9, ror #24
    a804:	20746968 	rsbscs	r6, r4, r8, ror #18
    a808:	20656874 	rsbcs	r6, r5, r4, ror r8
    a80c:	20646c6f 	rsbcs	r6, r4, pc, ror #24
    a810:	70616568 	rsbvc	r6, r1, r8, ror #10
    a814:	20746120 	rsbscs	r6, r4, r0, lsr #2
    a818:	0a0a7025 	beq	2a68b4 <__bss_end__+0x29baac>
    a81c:	00000000 	andeq	r0, r0, r0
    a820:	494e4150 	stmdbmi	lr, {r4, r6, r8, lr}^
    a824:	73253a43 			; <UNDEFINED> instruction: 0x73253a43
    a828:	3a73253a 	bcc	1cd3d18 <__bss_end__+0x1cc8f10>
    a82c:	613a6425 	teqvs	sl, r5, lsr #8
    a830:	6165726c 	cmnvs	r5, ip, ror #4
    a834:	63207964 			; <UNDEFINED> instruction: 0x63207964
    a838:	656c6c61 	strbvs	r6, [ip, #-3169]!	; 0xfffff39f
    a83c:	6d6b2064 	stclvs	0, cr2, [fp, #-400]!	; 0xfffffe70
    a840:	6f6c6c61 	svcvs	0x006c6c61
    a844:	6e695f63 	cdpvs	15, 6, cr5, cr9, cr3, {3}
    a848:	0a0a7469 	beq	2a79f4 <__bss_end__+0x29cbec>
    a84c:	00000000 	andeq	r0, r0, r0
    a850:	494e4150 	stmdbmi	lr, {r4, r6, r8, lr}^
    a854:	73253a43 			; <UNDEFINED> instruction: 0x73253a43
    a858:	3a73253a 	bcc	1cd3d48 <__bss_end__+0x1cc8f40>
    a85c:	253a6425 	ldrcs	r6, [sl, #-1061]!	; 0xfffffbdb
    a860:	626e2064 	rsbvs	r2, lr, #100, 0	; 0x64
    a864:	73657479 	cmnvc	r5, #2030043136	; 0x79000000
    a868:	63786520 	cmnvs	r8, #32, 10	; 0x8000000
    a86c:	65646565 	strbvs	r6, [r4, #-1381]!	; 0xfffffa9b
    a870:	69732064 	ldmdbvs	r3!, {r2, r5, r6, sp}^
    a874:	6f20657a 	svcvs	0x0020657a
    a878:	65682066 	strbvs	r2, [r8, #-102]!	; 0xffffff9a
    a87c:	62207061 	eorvs	r7, r0, #97, 0	; 0x61
    a880:	75252079 	strvc	r2, [r5, #-121]!	; 0xffffff87
    a884:	79626e20 	stmdbvc	r2!, {r5, r9, sl, fp, sp, lr}^
    a888:	0a736574 	beq	1ce3e60 <__bss_end__+0x1cd9058>
    a88c:	0000000a 	andeq	r0, r0, sl
    a890:	4f525245 	svcmi	0x00525245
    a894:	73253a52 			; <UNDEFINED> instruction: 0x73253a52
    a898:	3a73253a 	bcc	1cd3d88 <__bss_end__+0x1cc8f80>
    a89c:	203a6425 	eorscs	r6, sl, r5, lsr #8
    a8a0:	534c4146 	movtpl	r4, #49478	; 0xc146
    a8a4:	253c2845 	ldrcs	r2, [ip, #-2117]!	; 0xfffff7bb
    a8a8:	3a293e73 	bcc	a5a27c <__bss_end__+0xa4f474>
    a8ac:	73736120 	cmnvc	r3, #8
    a8b0:	6e696d75 	mcrvs	13, 3, r6, cr9, cr5, {3}
    a8b4:	6f702067 	svcvs	0x00702067
    a8b8:	20726577 	rsbscs	r6, r2, r7, ror r5
    a8bc:	7420666f 	strtvc	r6, [r0], #-1647	; 0xfffff991
    a8c0:	000a6f77 	andeq	r6, sl, r7, ror pc
    a8c4:	705f7369 	subsvc	r7, pc, r9, ror #6
    a8c8:	2832776f 	ldmdacs	r2!, {r0, r1, r2, r3, r5, r6, r8, r9, sl, ip, sp, lr}
    a8cc:	67696c61 	strbvs	r6, [r9, -r1, ror #24]!
    a8d0:	6e656d6e 	cdpvs	13, 6, cr6, cr5, cr14, {3}
    a8d4:	00002974 	andeq	r2, r0, r4, ror r9
    a8d8:	705f7369 	subsvc	r7, pc, r9, ror #6
    a8dc:	2832776f 	ldmdacs	r2!, {r0, r1, r2, r3, r5, r6, r8, r9, sl, ip, sp, lr}
    a8e0:	0000296e 	andeq	r2, r0, lr, ror #18
    a8e4:	4f525245 	svcmi	0x00525245
    a8e8:	73253a52 			; <UNDEFINED> instruction: 0x73253a52
    a8ec:	3a73253a 	bcc	1cd3ddc <__bss_end__+0x1cc8fd4>
    a8f0:	203a6425 	eorscs	r6, sl, r5, lsr #8
    a8f4:	534c4146 	movtpl	r4, #49478	; 0xc146
    a8f8:	253c2845 	ldrcs	r2, [ip, #-2117]!	; 0xfffff7bb
    a8fc:	3a293e73 	bcc	a5a2d0 <__bss_end__+0xa4f4c8>
    a900:	706d6920 	rsbvc	r6, sp, r0, lsr #18
    a904:	6973736f 	ldmdbvs	r3!, {r0, r1, r2, r3, r5, r6, r8, r9, ip, sp, lr}^
    a908:	0a656c62 	beq	1965a98 <__bss_end__+0x195ac90>
    a90c:	00000000 	andeq	r0, r0, r0
    a910:	615f7369 	cmpvs	pc, r9, ror #6
    a914:	6e67696c 	vnmulvs.f16	s13, s14, s25	; <UNPREDICTABLE>
    a918:	68286465 	stmdavs	r8!, {r0, r2, r5, r6, sl, sp, lr}
    a91c:	6c61202c 	stclvs	0, cr2, [r1], #-176	; 0xffffff50
    a920:	6d6e6769 	stclvs	7, cr6, [lr, #-420]!	; 0xfffffe5c
    a924:	29746e65 	ldmdbcs	r4!, {r0, r2, r5, r6, r9, sl, fp, sp, lr}^
    a928:	00000000 	andeq	r0, r0, r0
    a92c:	494e4150 	stmdbmi	lr, {r4, r6, r8, lr}^
    a930:	73253a43 			; <UNDEFINED> instruction: 0x73253a43
    a934:	3a73253a 	bcc	1cd3e24 <__bss_end__+0x1cc901c>
    a938:	703a6425 	eorsvc	r6, sl, r5, lsr #8
    a93c:	746e696f 	strbtvc	r6, [lr], #-2415	; 0xfffff691
    a940:	25207265 	strcs	r7, [r0, #-613]!	; 0xfffffd9b
    a944:	61772070 	cmnvs	r7, r0, ror r0
    a948:	656e2073 	strbvs	r2, [lr, #-115]!	; 0xffffff8d
    a94c:	20726576 	rsbscs	r6, r2, r6, ror r5
    a950:	6f6c6c61 	svcvs	0x006c6c61
    a954:	65746163 	ldrbvs	r6, [r4, #-355]!	; 0xfffffe9d
    a958:	000a0a64 	andeq	r0, sl, r4, ror #20

0000a95c <__FUNCTION__.7>:
    a95c:	6c616d6b 	stclvs	13, cr6, [r1], #-428	; 0xfffffe54
    a960:	5f636f6c 	svcpl	0x00636f6c
    a964:	74696e69 	strbtvc	r6, [r9], #-3689	; 0xfffff197
    a968:	7465735f 	strbtvc	r7, [r5], #-863	; 0xfffffca1
    a96c:	6174735f 	cmnvs	r4, pc, asr r3
    a970:	00007472 	andeq	r7, r0, r2, ror r4

0000a974 <__FUNCTION__.5>:
    a974:	6c616d6b 	stclvs	13, cr6, [r1], #-428	; 0xfffffe54
    a978:	5f636f6c 	svcpl	0x00636f6c
    a97c:	74696e69 	strbtvc	r6, [r9], #-3689	; 0xfffff197
    a980:	00000000 	andeq	r0, r0, r0

0000a984 <__FUNCTION__.4>:
    a984:	6c616d6b 	stclvs	13, cr6, [r1], #-428	; 0xfffffe54
    a988:	5f636f6c 	svcpl	0x00636f6c
    a98c:	7a746f6e 	bvc	1d2674c <__bss_end__+0x1d1b944>
    a990:	006f7265 	rsbeq	r7, pc, r5, ror #4

0000a994 <__FUNCTION__.2>:
    a994:	6c616d6b 	stclvs	13, cr6, [r1], #-428	; 0xfffffe54
    a998:	00636f6c 	rsbeq	r6, r3, ip, ror #30

0000a99c <__FUNCTION__.1>:
    a99c:	6c616d6b 	stclvs	13, cr6, [r1], #-428	; 0xfffffe54
    a9a0:	5f636f6c 	svcpl	0x00636f6c
    a9a4:	67696c61 	strbvs	r6, [r9, -r1, ror #24]!
    a9a8:	0064656e 	rsbeq	r6, r4, lr, ror #10

0000a9ac <__FUNCTION__.3>:
    a9ac:	6e756f72 	mrcvs	15, 3, r6, cr5, cr2, {3}
    a9b0:	00707564 	rsbseq	r7, r0, r4, ror #10

0000a9b4 <__FUNCTION__.0>:
    a9b4:	6572666b 	ldrbvs	r6, [r2, #-1643]!	; 0xfffff995
    a9b8:	6f705f65 	svcvs	0x00705f65
    a9bc:	Address 0x000000000000a9bc is out of bounds.


Disassembly of section .data:

0000a9c0 <__data_start__>:
    a9c0:	00000001 	andeq	r0, r0, r1

0000a9c4 <putk>:
    a9c4:	00008f20 	andeq	r8, r0, r0, lsr #30

0000a9c8 <heap_end>:
    a9c8:	0020ae08 	eoreq	sl, r0, r8, lsl #28

0000a9cc <heap_start>:
    a9cc:	0000ae08 	andeq	sl, r0, r8, lsl #28

0000a9d0 <heap>:
    a9d0:	0000ae08 	andeq	sl, r0, r8, lsl #28

0000a9d4 <rpi_putchar>:
    a9d4:	00009da4 	andeq	r9, r0, r4, lsr #27

Disassembly of section .bss:

0000a9d8 <__bss_start__>:
    a9d8:	00000000 	andeq	r0, r0, r0

0000a9dc <alloc_list>:
    a9dc:	00000000 	andeq	r0, r0, r0

0000a9e0 <heap_start>:
    a9e0:	00000000 	andeq	r0, r0, r0

0000a9e4 <heap_end>:
    a9e4:	00000000 	andeq	r0, r0, r0

0000a9e8 <init_p>:
	...

0000a9f0 <freep>:
	...

0000a9f8 <base>:
	...

0000aa00 <buf.3948>:
	...

0000ae00 <init_p.6>:
	...

Disassembly of section .ARM.attributes:

00000000 <.ARM.attributes>:
   0:	00002a41 	andeq	r2, r0, r1, asr #20
   4:	61656100 	cmnvs	r5, r0, lsl #2
   8:	01006962 	tsteq	r0, r2, ror #18
   c:	00000020 	andeq	r0, r0, r0, lsr #32
  10:	4b5a3605 	blmi	168d82c <__bss_end__+0x1682a24>
  14:	08070600 	stmdaeq	r7, {r9, sl}
  18:	12010901 	andne	r0, r1, #16384	; 0x4000
  1c:	15011404 	strne	r1, [r1, #-1028]	; 0xfffffbfc
  20:	18031701 	stmdane	r3, {r0, r8, r9, sl, ip}
  24:	22011a01 	andcs	r1, r1, #4096	; 0x1000
  28:	Address 0x0000000000000028 is out of bounds.


Disassembly of section .comment:

00000000 <.comment>:
   0:	3a434347 	bcc	10d0d24 <__bss_end__+0x10c5f1c>
   4:	4e472820 	cdpmi	8, 4, cr2, cr7, cr0, {1}
   8:	6f542055 	svcvs	0x00542055
   c:	20736c6f 	rsbscs	r6, r3, pc, ror #24
  10:	20726f66 	rsbscs	r6, r2, r6, ror #30
  14:	206d7241 	rsbcs	r7, sp, r1, asr #4
  18:	65626d45 	strbvs	r6, [r2, #-3397]!	; 0xfffff2bb
  1c:	64656464 	strbtvs	r6, [r5], #-1124	; 0xfffffb9c
  20:	6f725020 	svcvs	0x00725020
  24:	73736563 	cmnvc	r3, #415236096	; 0x18c00000
  28:	2073726f 	rsbscs	r7, r3, pc, ror #4
  2c:	30322d39 	eorscc	r2, r2, r9, lsr sp
  30:	712d3931 			; <UNDEFINED> instruction: 0x712d3931
  34:	616d2d34 	cmnvs	sp, r4, lsr sp
  38:	29726f6a 	ldmdbcs	r2!, {r1, r3, r5, r6, r8, r9, sl, fp, sp, lr}^
  3c:	322e3920 	eorcc	r3, lr, #32, 18	; 0x80000
  40:	3220312e 	eorcc	r3, r0, #-2147483637	; 0x8000000b
  44:	31393130 	teqcc	r9, r0, lsr r1
  48:	20353230 	eorscs	r3, r5, r0, lsr r2
  4c:	6c657228 	sfmvs	f7, 2, [r5], #-160	; 0xffffff60
  50:	65736165 	ldrbvs	r6, [r3, #-357]!	; 0xfffffe9b
  54:	415b2029 	cmpmi	fp, r9, lsr #32
  58:	612f4d52 			; <UNDEFINED> instruction: 0x612f4d52
  5c:	392d6d72 	pushcc	{r1, r4, r5, r6, r8, sl, fp, sp, lr}
  60:	6172622d 	cmnvs	r2, sp, lsr #4
  64:	2068636e 	rsbcs	r6, r8, lr, ror #6
  68:	69766572 	ldmdbvs	r6!, {r1, r4, r5, r6, r8, sl, sp, lr}^
  6c:	6e6f6973 			; <UNDEFINED> instruction: 0x6e6f6973
  70:	37373220 	ldrcc	r3, [r7, -r0, lsr #4]!
  74:	5d393935 			; <UNDEFINED> instruction: 0x5d393935
  78:	43434700 	movtmi	r4, #14080	; 0x3700
  7c:	4728203a 			; <UNDEFINED> instruction: 0x4728203a
  80:	4120554e 			; <UNDEFINED> instruction: 0x4120554e
  84:	45206d72 	strmi	r6, [r0, #-3442]!	; 0xfffff28e
  88:	6465626d 	strbtvs	r6, [r5], #-621	; 0xfffffd93
  8c:	20646564 	rsbcs	r6, r4, r4, ror #10
  90:	6c6f6f54 	stclvs	15, cr6, [pc], #-336	; ffffff48 <__bss_end__+0xffff5140>
  94:	69616863 	stmdbvs	r1!, {r0, r1, r5, r6, fp, sp, lr}^
  98:	3031206e 	eorscc	r2, r1, lr, rrx
  9c:	322d332e 	eorcc	r3, sp, #-1207959552	; 0xb8000000
  a0:	2e313230 	mrccs	2, 1, r3, cr1, cr0, {1}
  a4:	20293031 	eorcs	r3, r9, r1, lsr r0
  a8:	332e3031 			; <UNDEFINED> instruction: 0x332e3031
  ac:	3220312e 	eorcc	r3, r0, #-2147483637	; 0x8000000b
  b0:	30313230 	eorscc	r3, r1, r0, lsr r2
  b4:	20343238 	eorscs	r3, r4, r8, lsr r2
  b8:	6c657228 	sfmvs	f7, 2, [r5], #-160	; 0xffffff60
  bc:	65736165 	ldrbvs	r6, [r3, #-357]!	; 0xfffffe9b
  c0:	Address 0x00000000000000c0 is out of bounds.


Disassembly of section .debug_info:

00000000 <.debug_info>:
       0:	00000482 	andeq	r0, r0, r2, lsl #9
       4:	00000004 	andeq	r0, r0, r4
       8:	01040000 	mrseq	r0, (UNDEF: 4)
       c:	000001ab 	andeq	r0, r0, fp, lsr #3
      10:	0000120c 	andeq	r1, r0, ip, lsl #4
      14:	00015300 	andeq	r5, r1, r0, lsl #6
      18:	00803800 	addeq	r3, r0, r0, lsl #16
      1c:	0000d400 	andeq	sp, r0, r0, lsl #8
      20:	00000000 	andeq	r0, r0, r0
      24:	05040200 	streq	r0, [r4, #-512]	; 0xfffffe00
      28:	00746e69 	rsbseq	r6, r4, r9, ror #28
      2c:	0c070403 	cfstrseq	mvf0, [r7], {3}
      30:	03000001 	movweq	r0, #1
      34:	00e40601 	rsceq	r0, r4, r1, lsl #12
      38:	02030000 	andeq	r0, r3, #0, 0
      3c:	00004005 	andeq	r4, r0, r5
      40:	05040300 	streq	r0, [r4, #-768]	; 0xfffffd00
      44:	00000082 	andeq	r0, r0, r2, lsl #1
      48:	7d050803 	stcvc	8, cr0, [r5, #-12]
      4c:	04000000 	streq	r0, [r0], #-0
      50:	0000005b 	andeq	r0, r0, fp, asr r0
      54:	5b182e04 	blpl	60b86c <__bss_end__+0x600a64>
      58:	03000000 	movweq	r0, #0
      5c:	00e20801 	rsceq	r0, r2, r1, lsl #16
      60:	22040000 	andcs	r0, r4, #0, 0
      64:	04000001 	streq	r0, [r0], #-1
      68:	006e1931 	rsbeq	r1, lr, r1, lsr r9
      6c:	02030000 	andeq	r0, r3, #0, 0
      70:	00013307 	andeq	r3, r1, r7, lsl #6
      74:	01190400 	tsteq	r9, r0, lsl #8
      78:	34040000 	strcc	r0, [r4], #-0
      7c:	00008119 	andeq	r8, r0, r9, lsl r1
      80:	07040300 	streq	r0, [r4, -r0, lsl #6]
      84:	00000107 	andeq	r0, r0, r7, lsl #2
      88:	02070803 	andeq	r0, r7, #196608	; 0x30000
      8c:	05000001 	streq	r0, [r0, #-1]
      90:	00000025 	andeq	r0, r0, r5, lsr #32
      94:	0000009e 	muleq	r0, lr, r0
      98:	00002506 	andeq	r2, r0, r6, lsl #10
      9c:	4a070000 	bmi	1c00a4 <__bss_end__+0x1b529c>
      a0:	05000000 	streq	r0, [r0, #-0]
      a4:	00aa0e1c 	adceq	r0, sl, ip, lsl lr
      a8:	04080000 	streq	r0, [r8], #-0
      ac:	0000008f 	andeq	r0, r0, pc, lsl #1
      b0:	00002505 	andeq	r2, r0, r5, lsl #10
      b4:	0000bf00 	andeq	fp, r0, r0, lsl #30
      b8:	00bf0600 	adcseq	r0, pc, r0, lsl #12
      bc:	08000000 	stmdaeq	r0, {}	; <UNPREDICTABLE>
      c0:	0000cc04 	andeq	ip, r0, r4, lsl #24
      c4:	08010300 	stmdaeq	r1, {r8, r9}
      c8:	000000eb 	andeq	r0, r0, fp, ror #1
      cc:	0000c509 	andeq	ip, r0, r9, lsl #10
      d0:	072a0700 	streq	r0, [sl, -r0, lsl #14]!
      d4:	21050000 	mrscs	r0, (UNDEF: 5)
      d8:	0000dd0e 	andeq	sp, r0, lr, lsl #26
      dc:	b0040800 	andlt	r0, r4, r0, lsl #16
      e0:	0a000000 	beq	e8 <__code_start__-0x7f18>
      e4:	0904030c 	stmdbeq	r4, {r2, r3, r8, r9}
      e8:	00000114 	andeq	r0, r0, r4, lsl r1
      ec:	0000560b 	andeq	r5, r0, fp, lsl #12
      f0:	11060300 	mrsne	r0, LR_und
      f4:	000000bf 	strheq	r0, [r0], -pc	; <UNPREDICTABLE>
      f8:	00780b00 	rsbseq	r0, r8, r0, lsl #22
      fc:	07030000 	streq	r0, [r3, -r0]
     100:	0000bf11 	andeq	fp, r0, r1, lsl pc
     104:	fb0b0400 	blx	2c110e <__bss_end__+0x2b6306>
     108:	03000000 	movweq	r0, #0
     10c:	002c0e08 	eoreq	r0, ip, r8, lsl #28
     110:	00080000 	andeq	r0, r8, r0
     114:	00029304 	andeq	r9, r2, r4, lsl #6
     118:	03090300 	movweq	r0, #37632	; 0x9300
     11c:	000000e3 	andeq	r0, r0, r3, ror #1
     120:	0000630c 	andeq	r6, r0, ip, lsl #6
     124:	110c0100 	mrsne	r0, (UNDEF: 28)
     128:	0000002c 	andeq	r0, r0, ip, lsr #32
     12c:	00a50d01 	adceq	r0, r5, r1, lsl #26
     130:	01a80000 			; <UNDEFINED> instruction: 0x01a80000
     134:	01bd1010 			; <UNDEFINED> instruction: 0x01bd1010
     138:	8e0b0000 	cdphi	0, 0, cr0, cr11, cr0, {0}
     13c:	01000002 	tsteq	r0, r2
     140:	01bd1411 			; <UNDEFINED> instruction: 0x01bd1411
     144:	0b000000 	bleq	14c <__code_start__-0x7eb4>
     148:	00000260 	andeq	r0, r0, r0, ror #4
     14c:	750e1201 	strvc	r1, [lr, #-513]	; 0xfffffdff
     150:	04000000 	streq	r0, [r0], #-0
     154:	00002e0b 	andeq	r2, r0, fp, lsl #28
     158:	0e130100 	mufeqs	f0, f3, f0
     15c:	00000075 	andeq	r0, r0, r5, ror r0
     160:	00680b08 	rsbeq	r0, r8, r8, lsl #22
     164:	17010000 	strne	r0, [r1, -r0]
     168:	0000750e 	andeq	r7, r0, lr, lsl #10
     16c:	b90b0c00 	stmdblt	fp, {sl, fp}
     170:	01000000 	mrseq	r0, (UNDEF: 0)
     174:	01140f19 	tsteq	r4, r9, lsl pc
     178:	0b100000 	bleq	400180 <__bss_end__+0x3f5378>
     17c:	000000f0 	strdeq	r0, [r0], -r0	; <UNPREDICTABLE>
     180:	750e1c01 	strvc	r1, [lr, #-3073]	; 0xfffff3ff
     184:	1c000000 	stcne	0, cr0, [r0], {-0}
     188:	0000340b 	andeq	r3, r0, fp, lsl #8
     18c:	0e1d0100 	mufeqe	f0, f5, f0
     190:	00000075 	andeq	r0, r0, r5, ror r0
     194:	00d00b20 	sbcseq	r0, r0, r0, lsr #22
     198:	1f010000 	svcne	0x00010000
     19c:	0000620e 	andeq	r6, r0, lr, lsl #4
     1a0:	460b2400 	strmi	r2, [fp], -r0, lsl #8
     1a4:	01000001 	tsteq	r0, r1
     1a8:	00620b20 	rsbeq	r0, r2, r0, lsr #22
     1ac:	0e260000 	cdpeq	0, 2, cr0, cr6, cr0, {0}
     1b0:	00317a72 	eorseq	r7, r1, r2, ror sl
     1b4:	c30d2201 	movwgt	r2, #53761	; 0xd201
     1b8:	28000001 	stmdacs	r0, {r0}
     1bc:	2d040800 	stccs	8, cr0, [r4, #-0]
     1c0:	0f000001 	svceq	0x00000001
     1c4:	0000004f 	andeq	r0, r0, pc, asr #32
     1c8:	000001d3 	ldrdeq	r0, [r0], -r3
     1cc:	00002c10 	andeq	r2, r0, r0, lsl ip
     1d0:	04007f00 	streq	r7, [r0], #-3840	; 0xfffff100
     1d4:	0000014d 	andeq	r0, r0, sp, asr #2
     1d8:	2d032301 	stccs	3, cr2, [r3, #-4]
     1dc:	11000001 	tstne	r0, r1
     1e0:	0000008b 	andeq	r0, r0, fp, lsl #1
     1e4:	eb0f2501 	bl	3c95f0 <__bss_end__+0x3be7e8>
     1e8:	08000001 	stmdaeq	r0, {r0}
     1ec:	0001d304 	andeq	sp, r1, r4, lsl #6
     1f0:	00000c00 	andeq	r0, r0, r0, lsl #24
     1f4:	26010000 	strcs	r0, [r1], -r0
     1f8:	0001eb0f 	andeq	lr, r1, pc, lsl #22
     1fc:	04120000 	ldreq	r0, [r2], #-0
     200:	0000d507 	andeq	sp, r0, r7, lsl #10
     204:	11ad0100 			; <UNDEFINED> instruction: 0x11ad0100
     208:	0000002c 	andeq	r0, r0, ip, lsr #32
     20c:	00012b13 	andeq	r2, r1, r3, lsl fp
     210:	06050200 	streq	r0, [r5], -r0, lsl #4
     214:	00008040 	andeq	r8, r0, r0, asr #32
     218:	000000cc 	andeq	r0, r0, ip, asr #1
     21c:	03a19c01 			; <UNDEFINED> instruction: 0x03a19c01
     220:	70140000 	andsvc	r0, r4, r0
     224:	0b090200 	bleq	240a2c <__bss_end__+0x235c24>
     228:	000003a1 	andeq	r0, r0, r1, lsr #7
     22c:	00000004 	andeq	r0, r0, r4
     230:	00000000 	andeq	r0, r0, r0
     234:	0000ac15 	andeq	sl, r0, r5, lsl ip
     238:	0003b700 	andeq	fp, r3, r0, lsl #14
     23c:	68030500 	stmdavs	r3, {r8, sl}
     240:	160000a0 	strne	r0, [r0], -r0, lsr #1
     244:	000000a0 	andeq	r0, r0, r0, lsr #1
     248:	2c0e0e02 	stccs	14, cr0, [lr], {2}
     24c:	28000000 	stmdacs	r0, {}	; <UNPREDICTABLE>
     250:	22000000 	andcs	r0, r0, #0, 0
     254:	17000000 	strne	r0, [r0, -r0]
     258:	000003fb 	strdeq	r0, [r0], -fp
     25c:	00008050 	andeq	r8, r0, r0, asr r0
     260:	00805001 	addeq	r5, r0, r1
     264:	00001800 	andeq	r1, r0, r0, lsl #16
     268:	0f090200 	svceq	0x00090200
     26c:	00000298 	muleq	r0, r8, r2
     270:	00042418 	andeq	r2, r4, r8, lsl r4
     274:	00005400 	andeq	r5, r0, r0, lsl #8
     278:	00005200 	andeq	r5, r0, r0, lsl #4
     27c:	04181800 	ldreq	r1, [r8], #-2048	; 0xfffff800
     280:	006a0000 	rsbeq	r0, sl, r0
     284:	00680000 	rsbeq	r0, r8, r0
     288:	0c180000 	ldceq	0, cr0, [r8], {-0}
     28c:	84000004 	strhi	r0, [r0], #-4
     290:	82000000 	andhi	r0, r0, #0, 0
     294:	00000000 	andeq	r0, r0, r0
     298:	0003fb17 	andeq	pc, r3, r7, lsl fp	; <UNPREDICTABLE>
     29c:	00808800 	addeq	r8, r0, r0, lsl #16
     2a0:	80880100 	addhi	r0, r8, r0, lsl #2
     2a4:	00100000 	andseq	r0, r0, r0
     2a8:	0b020000 	bleq	802b0 <__bss_end__+0x754a8>
     2ac:	0002d905 	andeq	sp, r2, r5, lsl #18
     2b0:	04241800 	strteq	r1, [r4], #-2048	; 0xfffff800
     2b4:	009e0000 	addseq	r0, lr, r0
     2b8:	009c0000 	addseq	r0, ip, r0
     2bc:	18180000 	ldmdane	r8, {}	; <UNPREDICTABLE>
     2c0:	b4000004 	strlt	r0, [r0], #-4
     2c4:	b2000000 	andlt	r0, r0, #0, 0
     2c8:	18000000 	stmdane	r0, {}	; <UNPREDICTABLE>
     2cc:	0000040c 	andeq	r0, r0, ip, lsl #8
     2d0:	000000ce 	andeq	r0, r0, lr, asr #1
     2d4:	000000cc 	andeq	r0, r0, ip, asr #1
     2d8:	80501900 	subshi	r1, r0, r0, lsl #18
     2dc:	043d0000 	ldrteq	r0, [sp], #-0
     2e0:	02f00000 	rscseq	r0, r0, #0, 0
     2e4:	011a0000 	tsteq	sl, r0
     2e8:	c8030550 	stmdagt	r3, {r4, r6, r8, sl}
     2ec:	0000009f 	muleq	r0, pc, r0	; <UNPREDICTABLE>
     2f0:	00807819 	addeq	r7, r0, r9, lsl r8
     2f4:	00044900 	andeq	r4, r4, r0, lsl #18
     2f8:	00030300 	andeq	r0, r3, r0, lsl #6
     2fc:	50011a00 	andpl	r1, r1, r0, lsl #20
     300:	19003401 	stmdbne	r0, {r0, sl, ip, sp}
     304:	00008088 	andeq	r8, r0, r8, lsl #1
     308:	00000455 	andeq	r0, r0, r5, asr r4
     30c:	00000321 	andeq	r0, r0, r1, lsr #6
     310:	0250011a 	subseq	r0, r0, #-2147483642	; 0x80000006
     314:	011a0074 	tsteq	sl, r4, ror r0
     318:	1a300151 	bne	c00864 <__bss_end__+0xbf5a5c>
     31c:	34015201 	strcc	r5, [r1], #-513	; 0xfffffdff
     320:	80a81900 	adchi	r1, r8, r0, lsl #18
     324:	04610000 	strbteq	r0, [r1], #-0
     328:	03350000 	teqeq	r5, #0, 0
     32c:	011a0000 	tsteq	sl, r0
     330:	00740250 	rsbseq	r0, r4, r0, asr r2
     334:	80b41b00 	adcshi	r1, r4, r0, lsl #22
     338:	046d0000 	strbteq	r0, [sp], #-0
     33c:	c4190000 	ldrgt	r0, [r9], #-0
     340:	bc000080 	stclt	0, cr0, [r0], {128}	; 0x80
     344:	52000003 	andpl	r0, r0, #3, 0
     348:	1a000003 	bne	35c <__code_start__-0x7ca4>
     34c:	74025001 	strvc	r5, [r2], #-1
     350:	d4190000 	ldrle	r0, [r9], #-0
     354:	3d000080 	stccc	0, cr0, [r0, #-512]	; 0xfffffe00
     358:	6f000004 	svcvs	0x00000004
     35c:	1a000003 	bne	370 <__code_start__-0x7c90>
     360:	03055001 	movweq	r5, #20481	; 0x5001
     364:	0000a038 	andeq	sl, r0, r8, lsr r0
     368:	0252011a 	subseq	r0, r2, #-2147483642	; 0x80000006
     36c:	19000074 	stmdbne	r0, {r2, r4, r5, r6}
     370:	000080f4 	strdeq	r8, [r0], -r4
     374:	0000043d 	andeq	r0, r0, sp, lsr r4
     378:	00000397 	muleq	r0, r7, r3
     37c:	0550011a 	ldrbeq	r0, [r0, #-282]	; 0xfffffee6
     380:	009ffc03 	addseq	pc, pc, r3, lsl #24
     384:	51011a00 	tstpl	r1, r0, lsl #20
     388:	1a007602 	bne	1db98 <__bss_end__+0x12d90>
     38c:	75025201 	strvc	r5, [r2, #-513]	; 0xfffffdff
     390:	53011a00 	movwpl	r1, #6656	; 0x1a00
     394:	1b004001 	blne	103a0 <__bss_end__+0x5598>
     398:	000080f8 	strdeq	r8, [r0], -r8	; <UNPREDICTABLE>
     39c:	00000479 	andeq	r0, r0, r9, ror r4
     3a0:	c5040800 	strgt	r0, [r4, #-2048]	; 0xfffff800
     3a4:	0f000000 	svceq	0x00000000
     3a8:	000000cc 	andeq	r0, r0, ip, asr #1
     3ac:	000003b7 			; <UNDEFINED> instruction: 0x000003b7
     3b0:	00002c10 	andeq	r2, r0, r0, lsl ip
     3b4:	09000700 	stmdbeq	r0, {r8, r9, sl}
     3b8:	000003a7 	andeq	r0, r0, r7, lsr #7
     3bc:	0000961c 	andeq	r9, r0, ip, lsl r6
     3c0:	11290100 			; <UNDEFINED> instruction: 0x11290100
     3c4:	0000002c 	andeq	r0, r0, ip, lsr #32
     3c8:	00008038 	andeq	r8, r0, r8, lsr r0
     3cc:	00000008 	andeq	r0, r0, r8
     3d0:	03fb9c01 	mvnseq	r9, #256	; 0x100
     3d4:	701d0000 	andsvc	r0, sp, r0
     3d8:	21290100 			; <UNDEFINED> instruction: 0x21290100
     3dc:	000001fe 	strdeq	r0, [r0], -lr
     3e0:	000000ea 	andeq	r0, r0, sl, ror #1
     3e4:	000000e6 	andeq	r0, r0, r6, ror #1
     3e8:	01006814 	tsteq	r0, r4, lsl r8
     3ec:	01eb0c2a 	mvneq	r0, sl, lsr #24
     3f0:	010f0000 	mrseq	r0, CPSR
     3f4:	010b0000 	mrseq	r0, (UNDEF: 11)
     3f8:	1e000000 	cdpne	0, 0, cr0, cr0, cr0, {0}
     3fc:	00000283 	andeq	r0, r0, r3, lsl #5
     400:	140b0c03 	strne	r0, [fp], #-3075	; 0xfffff3fd
     404:	03000001 	movweq	r0, #1
     408:	00000431 	andeq	r0, r0, r1, lsr r4
     40c:	0000561f 	andeq	r5, r0, pc, lsl r6
     410:	220c0300 	andcs	r0, ip, #0, 6
     414:	000000bf 	strheq	r0, [r0], -pc	; <UNPREDICTABLE>
     418:	0000781f 	andeq	r7, r0, pc, lsl r8
     41c:	340c0300 	strcc	r0, [ip], #-768	; 0xfffffd00
     420:	000000bf 	strheq	r0, [r0], -pc	; <UNPREDICTABLE>
     424:	0000fb1f 	andeq	pc, r0, pc, lsl fp	; <UNPREDICTABLE>
     428:	430c0300 	movwmi	r0, #49920	; 0xc300
     42c:	0000002c 	andeq	r0, r0, ip, lsr #32
     430:	9e0a2000 	cdpls	0, 0, cr2, cr10, cr0, {0}
     434:	746f6e08 	strbtvc	r6, [pc], #-3592	; 43c <__code_start__-0x7bc4>
     438:	6e69616d 	powvsez	f6, f1, #5.0
     43c:	06ec2100 	strbteq	r2, [ip], r0, lsl #2
     440:	06ec0000 	strbteq	r0, [ip], r0
     444:	28050000 	stmdacs	r5, {}	; <UNPREDICTABLE>
     448:	000a2106 	andeq	r2, sl, r6, lsl #2
     44c:	000a0000 	andeq	r0, sl, r0
     450:	51010000 	mrspl	r0, (UNDEF: 1)
     454:	026d2108 	rsbeq	r2, sp, #2
     458:	026d0000 	rsbeq	r0, sp, #0, 0
     45c:	f7050000 			; <UNDEFINED> instruction: 0xf7050000
     460:	00712107 	rsbseq	r2, r1, r7, lsl #2
     464:	00710000 	rsbseq	r0, r1, r0
     468:	52010000 	andpl	r0, r1, #0, 0
     46c:	02742107 	rsbseq	r2, r4, #-1073741823	; 0xc0000001
     470:	02740000 	rsbseq	r0, r4, #0, 0
     474:	5d010000 	stcpl	0, cr0, [r1, #-0]
     478:	00c32105 	sbceq	r2, r3, r5, lsl #2
     47c:	00c30000 	sbceq	r0, r3, r0
     480:	6e050000 	cdpvs	0, 0, cr0, cr5, cr0, {0}
     484:	0be70006 	bleq	ff9c04a4 <__bss_end__+0xff9b569c>
     488:	00040000 	andeq	r0, r4, r0
     48c:	000001f0 	strdeq	r0, [r0], -r0	; <UNPREDICTABLE>
     490:	01ab0104 			; <UNDEFINED> instruction: 0x01ab0104
     494:	520c0000 	andpl	r0, ip, #0, 0
     498:	53000003 	movwpl	r0, #3
     49c:	0c000001 	stceq	0, cr0, [r0], {1}
     4a0:	2c000081 	stccs	0, cr0, [r0], {129}	; 0x81
     4a4:	92000005 	andls	r0, r0, #5, 0
     4a8:	02000001 	andeq	r0, r0, #1, 0
     4ac:	6e690504 	cdpvs	5, 6, cr0, cr9, cr4, {0}
     4b0:	04030074 	streq	r0, [r3], #-116	; 0xffffff8c
     4b4:	00010c07 	andeq	r0, r1, r7, lsl #24
     4b8:	06010300 	streq	r0, [r1], -r0, lsl #6
     4bc:	000000e4 	andeq	r0, r0, r4, ror #1
     4c0:	40050203 	andmi	r0, r5, r3, lsl #4
     4c4:	03000000 	movweq	r0, #0
     4c8:	00820504 	addeq	r0, r2, r4, lsl #10
     4cc:	08030000 	stmdaeq	r3, {}	; <UNPREDICTABLE>
     4d0:	00007d05 	andeq	r7, r0, r5, lsl #26
     4d4:	005b0400 	subseq	r0, fp, r0, lsl #8
     4d8:	2e030000 	cdpcs	0, 0, cr0, cr3, cr0, {0}
     4dc:	00005b18 	andeq	r5, r0, r8, lsl fp
     4e0:	08010300 	stmdaeq	r1, {r8, r9}
     4e4:	000000e2 	andeq	r0, r0, r2, ror #1
     4e8:	00012204 	andeq	r2, r1, r4, lsl #4
     4ec:	19310300 	ldmdbne	r1!, {r8, r9}
     4f0:	0000006e 	andeq	r0, r0, lr, rrx
     4f4:	33070203 	movwcc	r0, #29187	; 0x7203
     4f8:	04000001 	streq	r0, [r0], #-1
     4fc:	00000119 	andeq	r0, r0, r9, lsl r1
     500:	81193403 	tsthi	r9, r3, lsl #8
     504:	03000000 	movweq	r0, #0
     508:	01070704 	tsteq	r7, r4, lsl #14
     50c:	08030000 	stmdaeq	r3, {}	; <UNPREDICTABLE>
     510:	00010207 	andeq	r0, r1, r7, lsl #4
     514:	00250500 	eoreq	r0, r5, r0, lsl #10
     518:	009e0000 	addseq	r0, lr, r0
     51c:	25060000 	strcs	r0, [r6, #-0]
     520:	00000000 	andeq	r0, r0, r0
     524:	00004a07 	andeq	r4, r0, r7, lsl #20
     528:	0e1c0400 	cfmulseq	mvf0, mvf12, mvf0
     52c:	000000aa 	andeq	r0, r0, sl, lsr #1
     530:	008f0408 	addeq	r0, pc, r8, lsl #8
     534:	25050000 	strcs	r0, [r5, #-0]
     538:	bf000000 	svclt	0x00000000
     53c:	06000000 	streq	r0, [r0], -r0
     540:	000000bf 	strheq	r0, [r0], -pc	; <UNPREDICTABLE>
     544:	cc040800 	stcgt	8, cr0, [r4], {-0}
     548:	03000000 	movweq	r0, #0
     54c:	00eb0801 	rsceq	r0, fp, r1, lsl #16
     550:	c5090000 	strgt	r0, [r9, #-0]
     554:	07000000 	streq	r0, [r0, -r0]
     558:	0000072a 	andeq	r0, r0, sl, lsr #14
     55c:	dd0e2104 	stfles	f2, [lr, #-16]
     560:	08000000 	stmdaeq	r0, {}	; <UNPREDICTABLE>
     564:	0000b004 	andeq	fp, r0, r4
     568:	04080300 	streq	r0, [r8], #-768	; 0xfffffd00
     56c:	00000372 	andeq	r0, r0, r2, ror r3
     570:	0c0b040a 	cfstrseq	mvf0, [fp], {10}
     574:	1d090405 	cfstrsne	mvf0, [r9, #-20]	; 0xffffffec
     578:	0c000001 	stceq	0, cr0, [r0], {1}
     57c:	00000056 	andeq	r0, r0, r6, asr r0
     580:	bf110605 	svclt	0x00110605
     584:	00000000 	andeq	r0, r0, r0
     588:	0000780c 	andeq	r7, r0, ip, lsl #16
     58c:	11070500 	tstne	r7, r0, lsl #10
     590:	000000bf 	strheq	r0, [r0], -pc	; <UNPREDICTABLE>
     594:	00fb0c04 	rscseq	r0, fp, r4, lsl #24
     598:	08050000 	stmdaeq	r5, {}	; <UNPREDICTABLE>
     59c:	00002c0e 	andeq	r2, r0, lr, lsl #24
     5a0:	04000800 	streq	r0, [r0], #-2048	; 0xfffff800
     5a4:	00000293 	muleq	r0, r3, r2
     5a8:	ec030905 			; <UNDEFINED> instruction: 0xec030905
     5ac:	0d000000 	stceq	0, cr0, [r0, #-0]
     5b0:	005b0107 	subseq	r0, fp, r7, lsl #2
     5b4:	09020000 	stmdbeq	r2, {}	; <UNPREDICTABLE>
     5b8:	0001440e 	andeq	r4, r1, lr, lsl #8
     5bc:	03870e00 	orreq	r0, r7, #0, 28
     5c0:	0e0b0000 	cdpeq	0, 0, cr0, cr11, cr0, {0}
     5c4:	000002c2 	andeq	r0, r0, r2, asr #5
     5c8:	070d000c 	streq	r0, [sp, -ip]
     5cc:	00005b01 	andeq	r5, r0, r1, lsl #22
     5d0:	060a0200 	streq	r0, [sl], -r0, lsl #4
     5d4:	0000015f 	andeq	r0, r0, pc, asr r1
     5d8:	0002f00e 	andeq	pc, r2, lr
     5dc:	e40e8000 	str	r8, [lr], #-0
     5e0:	fe000002 	cdp2	0, 0, cr0, cr0, cr2, {0}
     5e4:	00630f00 	rsbeq	r0, r3, r0, lsl #30
     5e8:	0c020000 	stceq	0, cr0, [r2], {-0}
     5ec:	00002c11 	andeq	r2, r0, r1, lsl ip
     5f0:	c0030500 	andgt	r0, r3, r0, lsl #10
     5f4:	100000a9 	andne	r0, r0, r9, lsr #1
     5f8:	000000a5 	andeq	r0, r0, r5, lsr #1
     5fc:	101002a8 	andsne	r0, r0, r8, lsr #5
     600:	00000201 	andeq	r0, r0, r1, lsl #4
     604:	00028e0c 	andeq	r8, r2, ip, lsl #28
     608:	14110200 	ldrne	r0, [r1], #-512	; 0xfffffe00
     60c:	00000201 	andeq	r0, r0, r1, lsl #4
     610:	02600c00 	rsbeq	r0, r0, #0, 24
     614:	12020000 	andne	r0, r2, #0, 0
     618:	0000750e 	andeq	r7, r0, lr, lsl #10
     61c:	2e0c0400 	cfcpyscs	mvf0, mvf12
     620:	02000000 	andeq	r0, r0, #0, 0
     624:	00750e13 	rsbseq	r0, r5, r3, lsl lr
     628:	0c080000 	stceq	0, cr0, [r8], {-0}
     62c:	00000068 	andeq	r0, r0, r8, rrx
     630:	750e1702 	strvc	r1, [lr, #-1794]	; 0xfffff8fe
     634:	0c000000 	stceq	0, cr0, [r0], {-0}
     638:	0000b90c 	andeq	fp, r0, ip, lsl #18
     63c:	0f190200 	svceq	0x00190200
     640:	0000011d 	andeq	r0, r0, sp, lsl r1
     644:	00f00c10 	rscseq	r0, r0, r0, lsl ip
     648:	1c020000 	stcne	0, cr0, [r2], {-0}
     64c:	0000750e 	andeq	r7, r0, lr, lsl #10
     650:	340c1c00 	strcc	r1, [ip], #-3072	; 0xfffff400
     654:	02000000 	andeq	r0, r0, #0, 0
     658:	00750e1d 	rsbseq	r0, r5, sp, lsl lr
     65c:	0c200000 	stceq	0, cr0, [r0], #-0
     660:	000000d0 	ldrdeq	r0, [r0], -r0	; <UNPREDICTABLE>
     664:	620e1f02 	andvs	r1, lr, #2, 30
     668:	24000000 	strcs	r0, [r0], #-0
     66c:	0001460c 	andeq	r4, r1, ip, lsl #12
     670:	0b200200 	bleq	800e78 <__bss_end__+0x7f6070>
     674:	00000062 	andeq	r0, r0, r2, rrx
     678:	7a721126 	bvc	1c84b18 <__bss_end__+0x1c79d10>
     67c:	22020031 	andcs	r0, r2, #49, 0	; 0x31
     680:	0002070d 	andeq	r0, r2, sp, lsl #14
     684:	08002800 	stmdaeq	r0, {fp, sp}
     688:	00017104 	andeq	r7, r1, r4, lsl #2
     68c:	004f1200 	subeq	r1, pc, r0, lsl #4
     690:	02170000 	andseq	r0, r7, #0, 0
     694:	2c130000 	ldccs	0, cr0, [r3], {-0}
     698:	7f000000 	svcvc	0x00000000
     69c:	014d0400 	cmpeq	sp, r0, lsl #8
     6a0:	23020000 	movwcs	r0, #8192	; 0x2000
     6a4:	00017103 	andeq	r7, r1, r3, lsl #2
     6a8:	008b0f00 	addeq	r0, fp, r0, lsl #30
     6ac:	25020000 	strcs	r0, [r2, #-0]
     6b0:	0002350f 	andeq	r3, r2, pc, lsl #10
     6b4:	dc030500 	cfstr32le	mvfx0, [r3], {-0}
     6b8:	080000a9 	stmdaeq	r0, {r0, r3, r5, r7}
     6bc:	00021704 	andeq	r1, r2, r4, lsl #14
     6c0:	00000f00 	andeq	r0, r0, r0, lsl #30
     6c4:	26020000 	strcs	r0, [r2], -r0
     6c8:	0002350f 	andeq	r3, r2, pc, lsl #10
     6cc:	d8030500 	stmdale	r3, {r8, sl}
     6d0:	070000a9 	streq	r0, [r0, -r9, lsr #1]
     6d4:	000000d5 	ldrdeq	r0, [r0], -r5
     6d8:	2c11ad02 	ldccs	13, cr10, [r1], {2}
     6dc:	14000000 	strne	r0, [r0], #-0
     6e0:	0000000a 	andeq	r0, r0, sl
     6e4:	ea08a901 	b	22aaf0 <__bss_end__+0x21fce8>
     6e8:	5c000000 	stcpl	0, cr0, [r0], {-0}
     6ec:	dc000085 	stcle	0, cr0, [r0], {133}	; 0x85
     6f0:	01000000 	mrseq	r0, (UNDEF: 0)
     6f4:	0003a59c 	muleq	r3, ip, r5
     6f8:	03b21500 			; <UNDEFINED> instruction: 0x03b21500
     6fc:	a9010000 	stmdbge	r1, {}	; <UNPREDICTABLE>
     700:	0000751a 	andeq	r7, r0, sl, lsl r5
     704:	00013600 	andeq	r3, r1, r0, lsl #12
     708:	00013000 	andeq	r3, r1, r0
     70c:	006c1600 	rsbeq	r1, ip, r0, lsl #12
     710:	1d2ca901 			; <UNDEFINED> instruction: 0x1d2ca901
     714:	02000001 	andeq	r0, r0, #1, 0
     718:	68176491 	ldmdavs	r7, {r0, r4, r7, sl, sp, lr}
     71c:	0cab0100 	stfeqs	f0, [fp]
     720:	00000235 	andeq	r0, r0, r5, lsr r2
     724:	00000168 	andeq	r0, r0, r8, ror #2
     728:	00000162 	andeq	r0, r0, r2, ror #2
     72c:	000b6a18 	andeq	r6, fp, r8, lsl sl
     730:	0085bc00 	addeq	fp, r5, r0, lsl #24
     734:	85bc0100 	ldrhi	r0, [ip, #256]!	; 0x100
     738:	00080000 	andeq	r0, r8, r0
     73c:	b6010000 	strlt	r0, [r1], -r0
     740:	0002dd11 	andeq	sp, r2, r1, lsl sp
     744:	0b7b1900 	bleq	1ec6b4c <__bss_end__+0x1ebbd44>
     748:	01960000 	orrseq	r0, r6, r0
     74c:	01940000 	orrseq	r0, r4, r0
     750:	c41a0000 	ldrgt	r0, [sl], #-0
     754:	db000085 	blle	970 <__code_start__-0x7690>
     758:	1b000009 	blne	784 <__code_start__-0x787c>
     75c:	74025001 	strvc	r5, [r2], #-1
     760:	1c000000 	stcne	0, cr0, [r0], {-0}
     764:	00008578 	andeq	r8, r0, r8, ror r5
     768:	00000ba2 	andeq	r0, r0, r2, lsr #23
     76c:	000002f2 	strdeq	r0, [r0], -r2
     770:	0350011b 	cmpeq	r0, #-1073741818	; 0xc0000006
     774:	0002a876 	andeq	sl, r2, r6, ror r8
     778:	0085881c 	addeq	r8, r5, ip, lsl r8
     77c:	000bae00 	andeq	sl, fp, r0, lsl #28
     780:	00031100 	andeq	r1, r3, r0, lsl #2
     784:	50011b00 	andpl	r1, r1, r0, lsl #22
     788:	1b007402 	blne	1d798 <__bss_end__+0x12990>
     78c:	30015101 	andcc	r5, r1, r1, lsl #2
     790:	0252011b 	subseq	r0, r2, #-1073741818	; 0xc0000006
     794:	1c00a808 	stcne	8, cr10, [r0], {8}
     798:	00008598 	muleq	r0, r8, r5
     79c:	00000bae 	andeq	r0, r0, lr, lsr #23
     7a0:	00000331 	andeq	r0, r0, r1, lsr r3
     7a4:	0250011b 	subseq	r0, r0, #-1073741818	; 0xc0000006
     7a8:	011b2874 	tsteq	fp, r4, ror r8
     7ac:	fe080251 	mcr2	2, 0, r0, cr8, cr1, {2}
     7b0:	0252011b 	subseq	r0, r2, #-1073741818	; 0xc0000006
     7b4:	1c008008 	stcne	0, cr8, [r0], {8}
     7b8:	000085d0 	ldrdeq	r8, [r0], -r0
     7bc:	00000bae 	andeq	r0, r0, lr, lsr #23
     7c0:	0000034b 	andeq	r0, r0, fp, asr #6
     7c4:	0251011b 	subseq	r0, r1, #-1073741818	; 0xc0000006
     7c8:	011bfe08 	tsteq	fp, r8, lsl #28	; <UNPREDICTABLE>
     7cc:	80080252 	andhi	r0, r8, r2, asr r2
     7d0:	85f81c00 	ldrbhi	r1, [r8, #3072]!	; 0xc00
     7d4:	0bba0000 	bleq	fee807dc <__bss_end__+0xfee759d4>
     7d8:	03770000 	cmneq	r7, #0, 0
     7dc:	011b0000 	tsteq	fp, r0
     7e0:	80030550 	andhi	r0, r3, r0, asr r5
     7e4:	1b0000a1 	blne	a70 <__code_start__-0x7590>
     7e8:	75035101 	strvc	r5, [r3, #-257]	; 0xfffffeff
     7ec:	011b0600 	tsteq	fp, r0, lsl #12
     7f0:	60910352 	addsvs	r0, r1, r2, asr r3
     7f4:	53011b06 	movwpl	r1, #6918	; 0x1b06
     7f8:	06649103 	strbteq	r9, [r4], -r3, lsl #2
     7fc:	860c1c00 	strhi	r1, [ip], -r0, lsl #24
     800:	0bba0000 	bleq	fee80808 <__bss_end__+0xfee75a00>
     804:	03940000 	orrseq	r0, r4, #0, 0
     808:	011b0000 	tsteq	fp, r0
     80c:	40030550 	andmi	r0, r3, r0, asr r5
     810:	1b0000a2 	blne	aa0 <__code_start__-0x7560>
     814:	75025201 	strvc	r5, [r2, #-513]	; 0xfffffdff
     818:	1c1a0000 	ldcne	0, cr0, [sl], {-0}
     81c:	af000086 	svcge	0x00000086
     820:	1b00000a 	blne	850 <__code_start__-0x77b0>
     824:	74025101 	strvc	r5, [r2], #-257	; 0xfffffeff
     828:	1d000000 	stcne	0, cr0, [r0, #-0]
     82c:	00000071 	andeq	r0, r0, r1, ror r0
     830:	ec079201 	sfm	f1, 1, [r7], {1}
     834:	70000083 	andvc	r0, r0, r3, lsl #1
     838:	01000001 	tsteq	r0, r1
     83c:	0005e89c 	muleq	r5, ip, r8
     840:	0ba91500 	bleq	fea45c48 <__bss_end__+0xfea3ae40>
     844:	92010000 	andls	r0, r1, #0, 0
     848:	0000ea15 	andeq	lr, r0, r5, lsl sl
     84c:	0001ad00 	andeq	sl, r1, r0, lsl #26
     850:	0001a900 	andeq	sl, r1, r0, lsl #18
     854:	006c1600 	rsbeq	r1, ip, r0, lsl #12
     858:	1d259201 	sfmne	f1, 1, [r5, #-4]!
     85c:	03000001 	movweq	r0, #1
     860:	177ee491 			; <UNDEFINED> instruction: 0x177ee491
     864:	93010068 	movwls	r0, #4200	; 0x1068
     868:	0002350c 	andeq	r3, r2, ip, lsl #10
     86c:	0001d300 	andeq	sp, r1, r0, lsl #6
     870:	0001cb00 	andeq	ip, r1, r0, lsl #22
     874:	00ac1e00 	adceq	r1, ip, r0, lsl #28
     878:	05f80000 	ldrbeq	r0, [r8, #0]!
     87c:	03050000 	movweq	r0, #20480	; 0x5000
     880:	0000a270 	andeq	sl, r0, r0, ror r2
     884:	00035c0f 	andeq	r5, r3, pc, lsl #24
     888:	0a990100 	beq	fe640c90 <__bss_end__+0xfe635e88>
     88c:	00000207 	andeq	r0, r0, r7, lsl #4
     890:	7ef09103 	nrmvcs	f1, f3
     894:	00844c1f 	addeq	r4, r4, pc, lsl ip
     898:	00002400 	andeq	r2, r0, r0, lsl #8
     89c:	00042e00 	andeq	r2, r4, r0, lsl #28
     8a0:	00691700 	rsbeq	r1, r9, r0, lsl #14
     8a4:	2c109a01 			; <UNDEFINED> instruction: 0x2c109a01
     8a8:	13000000 	movwne	r0, #0
     8ac:	0d000002 	stceq	0, cr0, [r0, #-8]
     8b0:	00000002 	andeq	r0, r0, r2
     8b4:	0084241c 	addeq	r2, r4, ip, lsl r4
     8b8:	000bba00 	andeq	fp, fp, r0, lsl #20
     8bc:	00045d00 	andeq	r5, r4, r0, lsl #26
     8c0:	50011b00 	andpl	r1, r1, r0, lsl #22
     8c4:	a1800305 	orrge	r0, r0, r5, lsl #6
     8c8:	011b0000 	tsteq	fp, r0
     8cc:	dc910451 	cfldrsle	mvf0, [r1], {81}	; 0x51
     8d0:	011b067e 	tsteq	fp, lr, ror r6
     8d4:	e0910452 	adds	r0, r1, r2, asr r4
     8d8:	011b067e 	tsteq	fp, lr, ror r6
     8dc:	e4910453 	ldr	r0, [r1], #1107	; 0x453
     8e0:	1c00067e 	stcne	6, cr0, [r0], {126}	; 0x7e
     8e4:	00008434 	andeq	r8, r0, r4, lsr r4
     8e8:	00000bba 			; <UNDEFINED> instruction: 0x00000bba
     8ec:	0000047a 	andeq	r0, r0, sl, ror r4
     8f0:	0550011b 	ldrbeq	r0, [r0, #-283]	; 0xfffffee5
     8f4:	00a18c03 	adceq	r8, r1, r3, lsl #24
     8f8:	52011b00 	andpl	r1, r1, #0, 22
     8fc:	00007402 	andeq	r7, r0, r2, lsl #8
     900:	00843c1c 	addeq	r3, r4, ip, lsl ip
     904:	00085e00 	andeq	r5, r8, r0, lsl #28
     908:	00048e00 	andeq	r8, r4, r0, lsl #28
     90c:	50011b00 	andpl	r1, r1, r0, lsl #22
     910:	00007402 	andeq	r7, r0, r2, lsl #8
     914:	0084801c 	addeq	r8, r4, ip, lsl r0
     918:	000bba00 	andeq	fp, fp, r0, lsl #20
     91c:	0004b500 	andeq	fp, r4, r0, lsl #10
     920:	50011b00 	andpl	r1, r1, r0, lsl #22
     924:	a1340305 	teqge	r4, r5, lsl #6
     928:	011b0000 	tsteq	fp, r0
     92c:	e0910452 	adds	r0, r1, r2, asr r4
     930:	011b067e 	tsteq	fp, lr, ror r6
     934:	e4910453 	ldr	r0, [r1], #1107	; 0x453
     938:	1c00067e 	stcne	6, cr0, [r0], {126}	; 0x7e
     93c:	00008490 	muleq	r0, r0, r4
     940:	00000bba 			; <UNDEFINED> instruction: 0x00000bba
     944:	000004d2 	ldrdeq	r0, [r0], -r2
     948:	0550011b 	ldrbeq	r0, [r0, #-283]	; 0xfffffee5
     94c:	00a14c03 	adceq	r4, r1, r3, lsl #24
     950:	51011b00 	tstpl	r1, r0, lsl #22
     954:	00007402 	andeq	r7, r0, r2, lsl #8
     958:	00849420 	addeq	r9, r4, r0, lsr #8
     95c:	000bc600 	andeq	ip, fp, r0, lsl #12
     960:	84b01c00 	ldrthi	r1, [r0], #3072	; 0xc00
     964:	0bba0000 	bleq	fee8096c <__bss_end__+0xfee75b64>
     968:	05140000 	ldreq	r0, [r4, #-0]
     96c:	011b0000 	tsteq	fp, r0
     970:	7c030550 	cfstr32vc	mvfx0, [r3], {80}	; 0x50
     974:	1b0000a0 	blne	bfc <__code_start__-0x7404>
     978:	03055101 	movweq	r5, #20737	; 0x5101
     97c:	0000a070 	andeq	sl, r0, r0, ror r0
     980:	0552011b 	ldrbeq	r0, [r2, #-283]	; 0xfffffee5
     984:	00a27003 	adceq	r7, r2, r3
     988:	53011b00 	movwpl	r1, #6912	; 0x1b00
     98c:	1b970802 	blne	fe5c299c <__bss_end__+0xfe5b7b94>
     990:	05007d02 	streq	r7, [r0, #-3330]	; 0xfffff2fe
     994:	00a1ac03 	adceq	sl, r1, r3, lsl #24
     998:	b4200000 	strtlt	r0, [r0], #-0
     99c:	c6000084 	strgt	r0, [r0], -r4, lsl #1
     9a0:	1c00000b 	stcne	0, cr0, [r0], {11}
     9a4:	000084c0 	andeq	r8, r0, r0, asr #9
     9a8:	0000076e 	andeq	r0, r0, lr, ror #14
     9ac:	00000538 	andeq	r0, r0, r8, lsr r5
     9b0:	0250011b 	subseq	r0, r0, #-1073741818	; 0xc0000006
     9b4:	011b0075 	tsteq	fp, r5, ror r0
     9b8:	e8910351 	ldm	r1, {r0, r4, r6, r8, r9}
     9bc:	d81c007e 	ldmdale	ip, {r1, r2, r3, r4, r5, r6}
     9c0:	ae000084 	cdpge	0, 0, cr0, cr0, cr4, {4}
     9c4:	5200000b 	andpl	r0, r0, #11, 0
     9c8:	1b000005 	blne	9e4 <__code_start__-0x761c>
     9cc:	74025001 	strvc	r5, [r2], #-1
     9d0:	51011b00 	tstpl	r1, r0, lsl #22
     9d4:	00fe0802 	rscseq	r0, lr, r2, lsl #16
     9d8:	0084e01c 	addeq	lr, r4, ip, lsl r0
     9dc:	00085e00 	andeq	r5, r8, r0, lsl #28
     9e0:	00056600 	andeq	r6, r5, r0, lsl #12
     9e4:	50011b00 	andpl	r1, r1, r0, lsl #22
     9e8:	00007402 	andeq	r7, r0, r2, lsl #8
     9ec:	0085101c 	addeq	r1, r5, ip, lsl r0
     9f0:	000bba00 	andeq	fp, fp, r0, lsl #20
     9f4:	00059c00 	andeq	r9, r5, r0, lsl #24
     9f8:	50011b00 	andpl	r1, r1, r0, lsl #22
     9fc:	a1cc0305 	bicge	r0, ip, r5, lsl #6
     a00:	011b0000 	tsteq	fp, r0
     a04:	70030551 	andvc	r0, r3, r1, asr r5
     a08:	1b0000a0 	blne	c90 <__code_start__-0x7370>
     a0c:	03055201 	movweq	r5, #20993	; 0x5201
     a10:	0000a270 	andeq	sl, r0, r0, ror r2
     a14:	0253011b 	subseq	r0, r3, #-1073741818	; 0xc0000006
     a18:	021b9f08 	andseq	r9, fp, #8, 30
     a1c:	7502047d 	strvc	r0, [r2, #-1149]	; 0xfffffb83
     a20:	14200000 	strtne	r0, [r0], #-0
     a24:	c6000085 	strgt	r0, [r0], -r5, lsl #1
     a28:	1c00000b 	stcne	0, cr0, [r0], {11}
     a2c:	00008530 	andeq	r8, r0, r0, lsr r5
     a30:	00000bba 			; <UNDEFINED> instruction: 0x00000bba
     a34:	000005de 	ldrdeq	r0, [r0], -lr
     a38:	0550011b 	ldrbeq	r0, [r0, #-283]	; 0xfffffee5
     a3c:	00a07c03 	adceq	r7, r0, r3, lsl #24
     a40:	51011b00 	tstpl	r1, r0, lsl #22
     a44:	a0700305 	rsbsge	r0, r0, r5, lsl #6
     a48:	011b0000 	tsteq	fp, r0
     a4c:	70030552 	andvc	r0, r3, r2, asr r5
     a50:	1b0000a2 	blne	ce0 <__code_start__-0x7320>
     a54:	08025301 	stmdaeq	r2, {r0, r8, r9, ip, lr}
     a58:	7d021ba2 	vstrvc	d1, [r2, #-648]	; 0xfffffd78
     a5c:	24030500 	strcs	r0, [r3], #-1280	; 0xfffffb00
     a60:	000000a2 	andeq	r0, r0, r2, lsr #1
     a64:	00853420 	addeq	r3, r5, r0, lsr #8
     a68:	000bc600 	andeq	ip, fp, r0, lsl #12
     a6c:	cc120000 	ldcgt	0, cr0, [r2], {-0}
     a70:	f8000000 			; <UNDEFINED> instruction: 0xf8000000
     a74:	13000005 	movwne	r0, #5
     a78:	0000002c 	andeq	r0, r0, ip, lsr #32
     a7c:	e8090006 	stmda	r9, {r1, r2}
     a80:	14000005 	strne	r0, [r0], #-5
     a84:	00000274 	andeq	r0, r0, r4, ror r2
     a88:	25057a01 	strcs	r7, [r5, #-2561]	; 0xfffff5ff
     a8c:	48000000 	stmdami	r0, {}	; <UNPREDICTABLE>
     a90:	a4000083 	strge	r0, [r0], #-131	; 0xffffff7d
     a94:	01000000 	mrseq	r0, (UNDEF: 0)
     a98:	0007109c 	muleq	r7, ip, r0
     a9c:	03462100 	movteq	r2, #24832	; 0x6100
     aa0:	7c010000 	stcvc	0, cr0, [r1], {-0}
     aa4:	00023509 	andeq	r3, r2, r9, lsl #10
     aa8:	00024100 	andeq	r4, r2, r0, lsl #2
     aac:	00023d00 	andeq	r3, r2, r0, lsl #26
     ab0:	035c0f00 	cmpeq	ip, #0, 30
     ab4:	7d010000 	stcvc	0, cr0, [r1, #-0]
     ab8:	0002070a 	andeq	r0, r2, sl, lsl #14
     abc:	f0910300 			; <UNDEFINED> instruction: 0xf0910300
     ac0:	02c8217e 	sbceq	r2, r8, #-2147483617	; 0x8000001f
     ac4:	7e010000 	cdpvc	0, 0, cr0, cr1, cr0, {0}
     ac8:	0007100e 	andeq	r1, r7, lr
     acc:	00026300 	andeq	r6, r2, r0, lsl #6
     ad0:	00025f00 	andeq	r5, r2, r0, lsl #30
     ad4:	031b2100 	tsteq	fp, #0
     ad8:	7f010000 	svcvc	0x00010000
     adc:	00002c0b 	andeq	r2, r0, fp, lsl #24
     ae0:	00028700 	andeq	r8, r2, r0, lsl #14
     ae4:	00028100 	andeq	r8, r2, r0, lsl #2
     ae8:	83581c00 	cmphi	r8, #0, 24
     aec:	0bba0000 	bleq	fee80af4 <__bss_end__+0xfee75cec>
     af0:	067a0000 	ldrbteq	r0, [sl], -r0
     af4:	011b0000 	tsteq	fp, r0
     af8:	cc030550 	cfstr32gt	mvfx0, [r3], {80}	; 0x50
     afc:	000000a0 	andeq	r0, r0, r0, lsr #1
     b00:	00835c20 	addeq	r5, r3, r0, lsr #24
     b04:	000a9900 	andeq	r9, sl, r0, lsl #18
     b08:	83701c00 	cmnhi	r0, #0, 24
     b0c:	0bd20000 	bleq	ff480b14 <__bss_end__+0xff475d0c>
     b10:	06a30000 	strteq	r0, [r3], r0
     b14:	011b0000 	tsteq	fp, r0
     b18:	007d0250 	rsbseq	r0, sp, r0, asr r2
     b1c:	0251011b 	subseq	r0, r1, #-1073741818	; 0xc0000006
     b20:	011b2874 	tsteq	fp, r4, ror r8
     b24:	80080252 	andhi	r0, r8, r2, asr r2
     b28:	83841c00 	orrhi	r1, r4, #0, 24
     b2c:	0bba0000 	bleq	fee80b34 <__bss_end__+0xfee75d2c>
     b30:	06ba0000 	ldrteq	r0, [sl], r0
     b34:	011b0000 	tsteq	fp, r0
     b38:	f0030550 			; <UNDEFINED> instruction: 0xf0030550
     b3c:	000000a0 	andeq	r0, r0, r0, lsr #1
     b40:	0083941c 	addeq	r9, r3, ip, lsl r4
     b44:	000bba00 	andeq	fp, fp, r0, lsl #20
     b48:	0006d100 	andeq	sp, r6, r0, lsl #2
     b4c:	50011b00 	andpl	r1, r1, r0, lsl #22
     b50:	a1140305 	tstge	r4, r5, lsl #6
     b54:	1c000000 	stcne	0, cr0, [r0], {-0}
     b58:	000083a0 	andeq	r8, r0, r0, lsr #7
     b5c:	00000a6c 	andeq	r0, r0, ip, ror #20
     b60:	000006e5 	andeq	r0, r0, r5, ror #13
     b64:	0250011b 	subseq	r0, r0, #-1073741818	; 0xc0000006
     b68:	1c000074 	stcne	0, cr0, [r0], {116}	; 0x74
     b6c:	000083b8 			; <UNDEFINED> instruction: 0x000083b8
     b70:	0000076e 	andeq	r0, r0, lr, ror #14
     b74:	000006ff 	strdeq	r0, [r0], -pc	; <UNPREDICTABLE>
     b78:	0250011b 	subseq	r0, r0, #-1073741818	; 0xc0000006
     b7c:	011b0074 	tsteq	fp, r4, ror r0
     b80:	00760251 	rsbseq	r0, r6, r1, asr r2
     b84:	83c81a00 	bichi	r1, r8, #0, 20
     b88:	07170000 	ldreq	r0, [r7, -r0]
     b8c:	011b0000 	tsteq	fp, r0
     b90:	00740250 	rsbseq	r0, r4, r0, asr r2
     b94:	04080000 	streq	r0, [r8], #-0
     b98:	00000716 	andeq	r0, r0, r6, lsl r7
     b9c:	030c1422 	movweq	r1, #50210	; 0xc422
     ba0:	6b010000 	blvs	40ba8 <__bss_end__+0x35da0>
     ba4:	00002505 	andeq	r2, r0, r5, lsl #10
     ba8:	0082fc00 	addeq	pc, r2, r0, lsl #24
     bac:	00004c00 	andeq	r4, r0, r0, lsl #24
     bb0:	689c0100 	ldmvs	ip, {r8}
     bb4:	23000007 	movwcs	r0, #7
     bb8:	6b010068 	blvs	40d60 <__bss_end__+0x35f58>
     bbc:	0002351b 	andeq	r3, r2, fp, lsl r5
     bc0:	0002bd00 	andeq	fp, r2, r0, lsl #26
     bc4:	0002b100 	andeq	fp, r2, r0, lsl #2
     bc8:	0b262400 	bleq	989bd0 <__bss_end__+0x97edc8>
     bcc:	71010000 	mrsvc	r0, (UNDEF: 1)
     bd0:	0007680b 	andeq	r6, r7, fp, lsl #16
     bd4:	00182500 	andseq	r2, r8, r0, lsl #10
     bd8:	69170000 	ldmdbvs	r7, {}	; <UNPREDICTABLE>
     bdc:	10720100 	rsbsne	r0, r2, r0, lsl #2
     be0:	0000002c 	andeq	r0, r0, ip, lsr #32
     be4:	00000314 	andeq	r0, r0, r4, lsl r3
     be8:	00000310 	andeq	r0, r0, r0, lsl r3
     bec:	04080000 	streq	r0, [r8], #-0
     bf0:	0000004f 	andeq	r0, r0, pc, asr #32
     bf4:	0003c314 	andeq	ip, r3, r4, lsl r3
     bf8:	05610100 	strbeq	r0, [r1, #-256]!	; 0xffffff00
     bfc:	00000025 	andeq	r0, r0, r5, lsr #32
     c00:	000082b4 			; <UNDEFINED> instruction: 0x000082b4
     c04:	00000048 	andeq	r0, r0, r8, asr #32
     c08:	085e9c01 	ldmdaeq	lr, {r0, sl, fp, ip, pc}^
     c0c:	68230000 	stmdavs	r3!, {}	; <UNPREDICTABLE>
     c10:	1e610100 	pownes	f0, f1, f0
     c14:	00000235 	andeq	r0, r0, r5, lsr r2
     c18:	00000338 	andeq	r0, r0, r8, lsr r3
     c1c:	00000332 	andeq	r0, r0, r2, lsr r3
     c20:	00036915 	andeq	r6, r3, r5, lsl r9
     c24:	2d610100 	stfcse	f0, [r1, #-0]
     c28:	00000710 	andeq	r0, r0, r0, lsl r7
     c2c:	00000368 	andeq	r0, r0, r8, ror #6
     c30:	00000364 	andeq	r0, r0, r4, ror #6
     c34:	327a7217 	rsbscc	r7, sl, #1879048193	; 0x70000001
     c38:	0b620100 	bleq	1881040 <__bss_end__+0x1876238>
     c3c:	00000768 	andeq	r0, r0, r8, ror #14
     c40:	0000038a 	andeq	r0, r0, sl, lsl #7
     c44:	00000386 	andeq	r0, r0, r6, lsl #7
     c48:	00032021 	andeq	r2, r3, r1, lsr #32
     c4c:	06630100 	strbteq	r0, [r3], -r0, lsl #2
     c50:	00000025 	andeq	r0, r0, r5, lsr #32
     c54:	000003ac 	andeq	r0, r0, ip, lsr #7
     c58:	000003a8 	andeq	r0, r0, r8, lsr #7
     c5c:	0003a721 	andeq	sl, r3, r1, lsr #14
     c60:	06640100 	strbteq	r0, [r4], -r0, lsl #2
     c64:	00000025 	andeq	r0, r0, r5, lsr #32
     c68:	000003cc 	andeq	r0, r0, ip, asr #7
     c6c:	000003ca 	andeq	r0, r0, sl, asr #7
     c70:	000b6a18 	andeq	r6, fp, r8, lsl sl
     c74:	0082c000 	addeq	ip, r2, r0
     c78:	82c00100 	sbchi	r0, r0, #0
     c7c:	00080000 	andeq	r0, r8, r0
     c80:	62010000 	andvs	r0, r1, #0, 0
     c84:	00082111 	andeq	r2, r8, r1, lsl r1
     c88:	0b7b1900 	bleq	1ec7090 <__bss_end__+0x1ebc288>
     c8c:	03e30000 	mvneq	r0, #0, 0
     c90:	03df0000 	bicseq	r0, pc, #0, 0
     c94:	c41a0000 	ldrgt	r0, [sl], #-0
     c98:	db000082 	blle	ea8 <__code_start__-0x7158>
     c9c:	1b000009 	blne	cc8 <__code_start__-0x7338>
     ca0:	75025001 	strvc	r5, [r2, #-1]
     ca4:	1c000000 	stcne	0, cr0, [r0], {-0}
     ca8:	000082d8 	ldrdeq	r8, [r0], -r8	; <UNPREDICTABLE>
     cac:	00000bde 	ldrdeq	r0, [r0], -lr
     cb0:	00000841 	andeq	r0, r0, r1, asr #16
     cb4:	0250011b 	subseq	r0, r0, #-1073741818	; 0xc0000006
     cb8:	011b2875 	tsteq	fp, r5, ror r8
     cbc:	00740251 	rsbseq	r0, r4, r1, asr r2
     cc0:	0252011b 	subseq	r0, r2, #-1073741818	; 0xc0000006
     cc4:	1a008008 	bne	20cec <__bss_end__+0x15ee4>
     cc8:	000082ec 	andeq	r8, r0, ip, ror #5
     ccc:	00000bde 	ldrdeq	r0, [r0], -lr
     cd0:	0250011b 	subseq	r0, r0, #-1073741818	; 0xc0000006
     cd4:	011b0076 	tsteq	fp, r6, ror r0
     cd8:	00740251 	rsbseq	r0, r4, r1, asr r2
     cdc:	0252011b 	subseq	r0, r2, #-1073741818	; 0xc0000006
     ce0:	00008008 	andeq	r8, r0, r8
     ce4:	00032814 	andeq	r2, r3, r4, lsl r8
     ce8:	08560100 	ldmdaeq	r6, {r8}^
     cec:	00000235 	andeq	r0, r0, r5, lsr r2
     cf0:	00008250 	andeq	r8, r0, r0, asr r2
     cf4:	00000064 	andeq	r0, r0, r4, rrx
     cf8:	08ff9c01 	ldmeq	pc!, {r0, sl, fp, ip, pc}^	; <UNPREDICTABLE>
     cfc:	70230000 	eorvc	r0, r3, r0
     d00:	01007274 	tsteq	r0, r4, ror r2
     d04:	00ea2056 	rsceq	r2, sl, r6, asr r0
     d08:	04050000 	streq	r0, [r5], #-0
     d0c:	04010000 	streq	r0, [r1], #-0
     d10:	58260000 	stmdapl	r6!, {}	; <UNPREDICTABLE>
     d14:	50000082 	andpl	r0, r0, r2, lsl #1
     d18:	17000000 	strne	r0, [r0, -r0]
     d1c:	57010068 	strpl	r0, [r1, -r8, rrx]
     d20:	00023510 	andeq	r3, r2, r0, lsl r5
     d24:	00042b00 	andeq	r2, r4, r0, lsl #22
     d28:	00042300 	andeq	r2, r4, r0, lsl #6
     d2c:	825c2000 	subshi	r2, ip, #0, 0
     d30:	0a990000 	beq	fe640d38 <__bss_end__+0xfe635f30>
     d34:	6c1c0000 	ldcvs	0, cr0, [ip], {-0}
     d38:	6c000082 	stcvs	0, cr0, [r0], {130}	; 0x82
     d3c:	c400000a 	strgt	r0, [r0], #-10
     d40:	1b000008 	blne	d68 <__code_start__-0x7298>
     d44:	74025001 	strvc	r5, [r2], #-1
     d48:	841c0000 	ldrhi	r0, [ip], #-0
     d4c:	a0000082 	andge	r0, r0, r2, lsl #1
     d50:	de000009 	cdple	0, 0, cr0, cr0, cr9, {0}
     d54:	1b000008 	blne	d7c <__code_start__-0x7284>
     d58:	74025001 	strvc	r5, [r2], #-1
     d5c:	51011b00 	tstpl	r1, r0, lsl #22
     d60:	00007502 	andeq	r7, r0, r2, lsl #10
     d64:	0082a81a 	addeq	sl, r2, sl, lsl r8
     d68:	000bba00 	andeq	fp, fp, r0, lsl #20
     d6c:	50011b00 	andpl	r1, r1, r0, lsl #22
     d70:	a0ac0305 	adcge	r0, ip, r5, lsl #6
     d74:	011b0000 	tsteq	fp, r0
     d78:	00750251 	rsbseq	r0, r5, r1, asr r2
     d7c:	0252011b 	subseq	r0, r2, #-1073741818	; 0xc0000006
     d80:	00000074 	andeq	r0, r0, r4, ror r0
     d84:	03791400 	cmneq	r9, #0, 8
     d88:	4c010000 	stcmi	0, cr0, [r1], {-0}
     d8c:	00023508 	andeq	r3, r2, r8, lsl #10
     d90:	0081f800 	addeq	pc, r1, r0, lsl #16
     d94:	00005800 	andeq	r5, r0, r0, lsl #16
     d98:	a09c0100 	addsge	r0, ip, r0, lsl #2
     d9c:	23000009 	movwcs	r0, #9
     da0:	00727470 	rsbseq	r7, r2, r0, ror r4
     da4:	ea1c4c01 	b	713db0 <__bss_end__+0x708fa8>
     da8:	63000000 	movwvs	r0, #0
     dac:	5f000004 	svcpl	0x00000004
     db0:	26000004 	strcs	r0, [r0], -r4
     db4:	00008200 	andeq	r8, r0, r0, lsl #4
     db8:	00000044 	andeq	r0, r0, r4, asr #32
     dbc:	01006817 	tsteq	r0, r7, lsl r8
     dc0:	02350d4d 	eorseq	r0, r5, #4928	; 0x1340
     dc4:	04890000 	streq	r0, [r9], #0
     dc8:	04810000 	streq	r0, [r1], #0
     dcc:	04200000 	strteq	r0, [r0], #-0
     dd0:	99000082 	stmdbls	r0, {r1, r7}
     dd4:	1c00000a 	stcne	0, cr0, [r0], {10}
     dd8:	0000821c 	andeq	r8, r0, ip, lsl r2
     ddc:	000009a0 	andeq	r0, r0, r0, lsr #19
     de0:	0000096b 	andeq	r0, r0, fp, ror #18
     de4:	0250011b 	subseq	r0, r0, #-1073741818	; 0xc0000006
     de8:	011b0074 	tsteq	fp, r4, ror r0
     dec:	00750251 	rsbseq	r0, r5, r1, asr r2
     df0:	822c1c00 	eorhi	r1, ip, #0, 24
     df4:	0a6c0000 	beq	1b00dfc <__bss_end__+0x1af5ff4>
     df8:	097f0000 	ldmdbeq	pc!, {}^	; <UNPREDICTABLE>
     dfc:	011b0000 	tsteq	fp, r0
     e00:	00740250 	rsbseq	r0, r4, r0, asr r2
     e04:	82441a00 	subhi	r1, r4, #0, 20
     e08:	0bba0000 	bleq	fee80e10 <__bss_end__+0xfee76008>
     e0c:	011b0000 	tsteq	fp, r0
     e10:	94030550 	strls	r0, [r3], #-1360	; 0xfffffab0
     e14:	1b0000a0 	blne	109c <__code_start__-0x6f64>
     e18:	75025101 	strvc	r5, [r2, #-257]	; 0xfffffeff
     e1c:	52011b00 	andpl	r1, r1, #0, 22
     e20:	00007402 	andeq	r7, r0, r2, lsl #8
     e24:	9d140000 	ldcls	0, cr0, [r4, #-0]
     e28:	01000002 	tsteq	r0, r2
     e2c:	002c0a44 	eoreq	r0, ip, r4, asr #20
     e30:	81c00000 	bichi	r0, r0, r0
     e34:	00380000 	eorseq	r0, r8, r0
     e38:	9c010000 	stcls	0, cr0, [r1], {-0}
     e3c:	000009db 	ldrdeq	r0, [r0], -fp
     e40:	01006823 	tsteq	r0, r3, lsr #16
     e44:	02352144 	eorseq	r2, r5, #17
     e48:	04c70000 	strbeq	r0, [r7], #0
     e4c:	04bd0000 	ldrteq	r0, [sp], #0
     e50:	70160000 	andsvc	r0, r6, r0
     e54:	01007274 	tsteq	r0, r4, ror r2
     e58:	00ea2a44 	rsceq	r2, sl, r4, asr #20
     e5c:	51010000 	mrspl	r0, (UNDEF: 1)
     e60:	039c1400 	orrseq	r1, ip, #0, 8
     e64:	3f010000 	svccc	0x00010000
     e68:	0000ea07 	andeq	lr, r0, r7, lsl #20
     e6c:	0081a800 	addeq	sl, r1, r0, lsl #16
     e70:	00001800 	andeq	r1, r0, r0, lsl #16
     e74:	3f9c0100 	svccc	0x009c0100
     e78:	2300000a 	movwcs	r0, #10
     e7c:	3f010068 	svccc	0x00010068
     e80:	00023519 	andeq	r3, r2, r9, lsl r5
     e84:	00051300 	andeq	r1, r5, r0, lsl #6
     e88:	00050f00 	andeq	r0, r5, r0, lsl #30
     e8c:	0b861800 	bleq	fe186e94 <__bss_end__+0xfe17c08c>
     e90:	81b40000 			; <UNDEFINED> instruction: 0x81b40000
     e94:	b4000000 	strlt	r0, [r0], #-0
     e98:	04000081 	streq	r0, [r0], #-129	; 0xffffff7f
     e9c:	01000000 	mrseq	r0, (UNDEF: 0)
     ea0:	0a2e2640 	beq	b8a7a8 <__bss_end__+0xb7f9a0>
     ea4:	97190000 	ldrls	r0, [r9, -r0]
     ea8:	3300000b 	movwcc	r0, #11
     eac:	31000005 	tstcc	r0, r5
     eb0:	00000005 	andeq	r0, r0, r5
     eb4:	0081b41a 	addeq	fp, r1, sl, lsl r4
     eb8:	000a3f00 	andeq	r3, sl, r0, lsl #30
     ebc:	50011b00 	andpl	r1, r1, r0, lsl #22
     ec0:	00007402 	andeq	r7, r0, r2, lsl #8
     ec4:	038f1400 	orreq	r1, pc, #0, 8
     ec8:	3a010000 	bcc	40ed0 <__bss_end__+0x360c8>
     ecc:	0000ea07 	andeq	lr, r0, r7, lsl #20
     ed0:	0081a000 	addeq	sl, r1, r0
     ed4:	00000800 	andeq	r0, r0, r0, lsl #16
     ed8:	6c9c0100 	ldfvss	f0, [ip], {0}
     edc:	2300000a 	movwcs	r0, #10
     ee0:	3a010068 	bcc	41088 <__bss_end__+0x36280>
     ee4:	0002351b 	andeq	r3, r2, fp, lsl r5
     ee8:	00054a00 	andeq	r4, r5, r0, lsl #20
     eec:	00054600 	andeq	r4, r5, r0, lsl #12
     ef0:	3a140000 	bcc	500ef8 <__bss_end__+0x4f60f0>
     ef4:	01000003 	tsteq	r0, r3
     ef8:	02350833 	eorseq	r0, r5, #3342336	; 0x330000
     efc:	81900000 	orrshi	r0, r0, r0
     f00:	00100000 	andseq	r0, r0, r0
     f04:	9c010000 	stcls	0, cr0, [r1], {-0}
     f08:	00000a99 	muleq	r0, r9, sl
     f0c:	01007023 	tsteq	r0, r3, lsr #32
     f10:	02351b33 	eorseq	r1, r5, #52224	; 0xcc00
     f14:	056f0000 	strbeq	r0, [pc, #-0]!	; f1c <__code_start__-0x70e4>
     f18:	056b0000 	strbeq	r0, [fp, #-0]!
     f1c:	27000000 	strcs	r0, [r0, -r0]
     f20:	000002ff 	strdeq	r0, [r0], -pc	; <UNPREDICTABLE>
     f24:	35082e01 	strcc	r2, [r8, #-3585]	; 0xfffff1ff
     f28:	80000002 	andhi	r0, r0, r2
     f2c:	10000081 	andne	r0, r0, r1, lsl #1
     f30:	01000000 	mrseq	r0, (UNDEF: 0)
     f34:	02d1289c 	sbcseq	r2, r1, #156, 16	; 0x9c0000
     f38:	1e010000 	cdpne	0, 0, cr0, cr1, cr0, {0}
     f3c:	00810c0d 	addeq	r0, r1, sp, lsl #24
     f40:	00007400 	andeq	r7, r0, r0, lsl #8
     f44:	559c0100 	ldrpl	r0, [ip, #256]	; 0x100
     f48:	2300000b 	movwcs	r0, #11
     f4c:	1e01006c 	cdpne	0, 0, cr0, cr1, cr12, {3}
     f50:	00023520 	andeq	r3, r2, r0, lsr #10
     f54:	00059400 	andeq	r9, r5, r0, lsl #8
     f58:	00059000 	andeq	r9, r5, r0
     f5c:	00682300 	rsbeq	r2, r8, r0, lsl #6
     f60:	352a1e01 	strcc	r1, [sl, #-3585]!	; 0xfffff1ff
     f64:	b9000002 	stmdblt	r0, {r1}
     f68:	b5000005 	strlt	r0, [r0, #-5]
     f6c:	1e000005 	cdpne	0, 0, cr0, cr0, cr5, {0}
     f70:	000000ac 	andeq	r0, r0, ip, lsr #1
     f74:	00000b65 	andeq	r0, r0, r5, ror #22
     f78:	a2640305 	rsbge	r0, r4, #335544320	; 0x14000000
     f7c:	00250000 	eoreq	r0, r5, r0
     f80:	21000000 	mrscs	r0, (UNDEF: 0)
     f84:	000002ad 	andeq	r0, r0, sp, lsr #5
     f88:	350a2601 	strcc	r2, [sl, #-1537]	; 0xfffff9ff
     f8c:	dc000002 	stcle	0, cr0, [r0], {2}
     f90:	da000005 	ble	fac <__code_start__-0x7054>
     f94:	1c000005 	stcne	0, cr0, [r0], {5}
     f98:	00008168 	andeq	r8, r0, r8, ror #2
     f9c:	00000bba 			; <UNDEFINED> instruction: 0x00000bba
     fa0:	00000b4a 	andeq	r0, r0, sl, asr #22
     fa4:	0550011b 	ldrbeq	r0, [r0, #-283]	; 0xfffffee5
     fa8:	00a07c03 	adceq	r7, r0, r3, lsl #24
     fac:	51011b00 	tstpl	r1, r0, lsl #22
     fb0:	a0700305 	rsbsge	r0, r0, r5, lsl #6
     fb4:	011b0000 	tsteq	fp, r0
     fb8:	64030552 	strvs	r0, [r3], #-1362	; 0xfffffaae
     fbc:	1b0000a2 	blne	124c <__code_start__-0x6db4>
     fc0:	08025301 	stmdaeq	r2, {r0, r8, r9, ip, lr}
     fc4:	7d021b25 	vstrvc	d1, [r2, #-148]	; 0xffffff6c
     fc8:	90030500 	andls	r0, r3, r0, lsl #10
     fcc:	000000a0 	andeq	r0, r0, r0, lsr #1
     fd0:	00816c20 	addeq	r6, r1, r0, lsr #24
     fd4:	000bc600 	andeq	ip, fp, r0, lsl #12
     fd8:	12000000 	andne	r0, r0, #0, 0
     fdc:	000000cc 	andeq	r0, r0, ip, asr #1
     fe0:	00000b65 	andeq	r0, r0, r5, ror #22
     fe4:	00002c13 	andeq	r2, r0, r3, lsl ip
     fe8:	09000b00 	stmdbeq	r0, {r8, r9, fp}
     fec:	00000b55 	andeq	r0, r0, r5, asr fp
     ff0:	0002b729 	andeq	fp, r2, r9, lsr #14
     ff4:	18440200 	stmdane	r4, {r9}^
     ff8:	00000768 	andeq	r0, r0, r8, ror #14
     ffc:	000b8603 	andeq	r8, fp, r3, lsl #12
    1000:	00682a00 	rsbeq	r2, r8, r0, lsl #20
    1004:	352a4402 	strcc	r4, [sl, #-1026]!	; 0xfffffbfe
    1008:	00000002 	andeq	r0, r0, r2
    100c:	0003af29 	andeq	sl, r3, r9, lsr #30
    1010:	18360200 	ldmdane	r6!, {r9}
    1014:	0000002c 	andeq	r0, r0, ip, lsr #32
    1018:	000ba203 	andeq	sl, fp, r3, lsl #4
    101c:	00682a00 	rsbeq	r2, r8, r0, lsl #20
    1020:	35293602 	strcc	r3, [r9, #-1538]!	; 0xfffff9fe
    1024:	00000002 	andeq	r0, r0, r2
    1028:	0003b92b 	andeq	fp, r3, fp, lsr #18
    102c:	0003b900 	andeq	fp, r3, r0, lsl #18
    1030:	072c0600 	streq	r0, [ip, -r0, lsl #12]!
    1034:	00026d2b 	andeq	r6, r2, fp, lsr #26
    1038:	00026d00 	andeq	r6, r2, r0, lsl #26
    103c:	07f70400 	ldrbeq	r0, [r7, r0, lsl #8]!
    1040:	0006ec2b 	andeq	lr, r6, fp, lsr #24
    1044:	0006ec00 	andeq	lr, r6, r0, lsl #24
    1048:	06280400 	strteq	r0, [r8], -r0, lsl #8
    104c:	0000c32b 	andeq	ip, r0, fp, lsr #6
    1050:	0000c300 	andeq	ip, r0, r0, lsl #6
    1054:	066e0400 	strbteq	r0, [lr], -r0, lsl #8
    1058:	0002dd2b 	andeq	sp, r2, fp, lsr #26
    105c:	0002dd00 	andeq	sp, r2, r0, lsl #26
    1060:	07f40400 	ldrbeq	r0, [r4, r0, lsl #8]!
    1064:	00034b2b 	andeq	r4, r3, fp, lsr #22
    1068:	00034b00 	andeq	r4, r3, r0, lsl #22
    106c:	05f50400 	ldrbeq	r0, [r5, #1024]!	; 0x400
    1070:	000c6100 	andeq	r6, ip, r0, lsl #2
    1074:	7d000400 	cfstrsvc	mvf0, [r0, #-0]
    1078:	04000004 	streq	r0, [r0], #-4
    107c:	0001ab01 	andeq	sl, r1, r1, lsl #22
    1080:	04cc0c00 	strbeq	r0, [ip], #3072	; 0xc00
    1084:	01530000 	cmpeq	r3, r0
    1088:	86380000 	ldrthi	r0, [r8], -r0
    108c:	05f40000 	ldrbeq	r0, [r4, #0]!
    1090:	06b70000 	ldrteq	r0, [r7], r0
    1094:	04020000 	streq	r0, [r2], #-0
    1098:	746e6905 	strbtvc	r6, [lr], #-2309	; 0xfffff6fb
    109c:	07040300 	streq	r0, [r4, -r0, lsl #6]
    10a0:	0000010c 	andeq	r0, r0, ip, lsl #2
    10a4:	00002c04 	andeq	r2, r0, r4, lsl #24
    10a8:	06010300 	streq	r0, [r1], -r0, lsl #6
    10ac:	000000e4 	andeq	r0, r0, r4, ror #1
    10b0:	40050203 	andmi	r0, r5, r3, lsl #4
    10b4:	03000000 	movweq	r0, #0
    10b8:	00820504 	addeq	r0, r2, r4, lsl #10
    10bc:	08030000 	stmdaeq	r3, {}	; <UNPREDICTABLE>
    10c0:	00007d05 	andeq	r7, r0, r5, lsl #26
    10c4:	005b0500 	subseq	r0, fp, r0, lsl #10
    10c8:	2e020000 	cdpcs	0, 0, cr0, cr2, cr0, {0}
    10cc:	00006018 	andeq	r6, r0, r8, lsl r0
    10d0:	08010300 	stmdaeq	r1, {r8, r9}
    10d4:	000000e2 	andeq	r0, r0, r2, ror #1
    10d8:	00012205 	andeq	r2, r1, r5, lsl #4
    10dc:	19310200 	ldmdbne	r1!, {r9}
    10e0:	00000073 	andeq	r0, r0, r3, ror r0
    10e4:	33070203 	movwcc	r0, #29187	; 0x7203
    10e8:	05000001 	streq	r0, [r0, #-1]
    10ec:	00000119 	andeq	r0, r0, r9, lsl r1
    10f0:	86193402 	ldrhi	r3, [r9], -r2, lsl #8
    10f4:	03000000 	movweq	r0, #0
    10f8:	01070704 	tsteq	r7, r4, lsl #14
    10fc:	08030000 	stmdaeq	r3, {}	; <UNPREDICTABLE>
    1100:	00010207 	andeq	r0, r1, r7, lsl #4
    1104:	00250600 	eoreq	r0, r5, r0, lsl #12
    1108:	00a30000 	adceq	r0, r3, r0
    110c:	25070000 	strcs	r0, [r7, #-0]
    1110:	00000000 	andeq	r0, r0, r0
    1114:	00004a08 	andeq	r4, r0, r8, lsl #20
    1118:	0e1c0300 	cdpeq	3, 1, cr0, cr12, cr0, {0}
    111c:	000000af 	andeq	r0, r0, pc, lsr #1
    1120:	00940409 	addseq	r0, r4, r9, lsl #8
    1124:	25060000 	strcs	r0, [r6, #-0]
    1128:	c4000000 	strgt	r0, [r0], #-0
    112c:	07000000 	streq	r0, [r0, -r0]
    1130:	000000c4 	andeq	r0, r0, r4, asr #1
    1134:	d1040900 	tstle	r4, r0, lsl #18
    1138:	03000000 	movweq	r0, #0
    113c:	00eb0801 	rsceq	r0, fp, r1, lsl #16
    1140:	ca040000 	bgt	101148 <__bss_end__+0xf6340>
    1144:	08000000 	stmdaeq	r0, {}	; <UNPREDICTABLE>
    1148:	0000072a 	andeq	r0, r0, sl, lsr #14
    114c:	e20e2103 	and	r2, lr, #-1073741824	; 0xc0000000
    1150:	09000000 	stmdbeq	r0, {}	; <UNPREDICTABLE>
    1154:	0000b504 	andeq	fp, r0, r4, lsl #10
    1158:	040c0a00 	streq	r0, [ip], #-2560	; 0xfffff600
    115c:	01190904 	tsteq	r9, r4, lsl #18
    1160:	560b0000 	strpl	r0, [fp], -r0
    1164:	04000000 	streq	r0, [r0], #-0
    1168:	00c41106 	sbceq	r1, r4, r6, lsl #2
    116c:	0b000000 	bleq	1174 <__code_start__-0x6e8c>
    1170:	00000078 	andeq	r0, r0, r8, ror r0
    1174:	c4110704 	ldrgt	r0, [r1], #-1796	; 0xfffff8fc
    1178:	04000000 	streq	r0, [r0], #-0
    117c:	0000fb0b 	andeq	pc, r0, fp, lsl #22
    1180:	0e080400 	cfcpyseq	mvf0, mvf8
    1184:	0000002c 	andeq	r0, r0, ip, lsr #32
    1188:	93050008 	movwls	r0, #20488	; 0x5008
    118c:	04000002 	streq	r0, [r0], #-2
    1190:	00e80309 	rsceq	r0, r8, r9, lsl #6
    1194:	070c0000 	streq	r0, [ip, -r0]
    1198:	00006001 	andeq	r6, r0, r1
    119c:	0e090500 	cfsh32eq	mvfx0, mvfx9, #0
    11a0:	00000140 	andeq	r0, r0, r0, asr #2
    11a4:	0003870d 	andeq	r8, r3, sp, lsl #14
    11a8:	c20d0b00 	andgt	r0, sp, #0, 22
    11ac:	0c000002 	stceq	0, cr0, [r0], {2}
    11b0:	00630e00 	rsbeq	r0, r3, r0, lsl #28
    11b4:	0c050000 	stceq	0, cr0, [r5], {-0}
    11b8:	00002c11 	andeq	r2, r0, r1, lsl ip
    11bc:	a50f0100 	strge	r0, [pc, #-256]	; 10c4 <__code_start__-0x6f3c>
    11c0:	a8000000 	stmdage	r0, {}	; <UNPREDICTABLE>
    11c4:	dd101005 	ldcle	0, cr1, [r0, #-20]	; 0xffffffec
    11c8:	0b000001 	bleq	11d4 <__code_start__-0x6e2c>
    11cc:	0000028e 	andeq	r0, r0, lr, lsl #5
    11d0:	dd141105 	ldfles	f1, [r4, #-20]	; 0xffffffec
    11d4:	00000001 	andeq	r0, r0, r1
    11d8:	0002600b 	andeq	r6, r2, fp
    11dc:	0e120500 	cfmul32eq	mvfx0, mvfx2, mvfx0
    11e0:	0000007a 	andeq	r0, r0, sl, ror r0
    11e4:	002e0b04 	eoreq	r0, lr, r4, lsl #22
    11e8:	13050000 	movwne	r0, #20480	; 0x5000
    11ec:	00007a0e 	andeq	r7, r0, lr, lsl #20
    11f0:	680b0800 	stmdavs	fp, {fp}
    11f4:	05000000 	streq	r0, [r0, #-0]
    11f8:	007a0e17 	rsbseq	r0, sl, r7, lsl lr
    11fc:	0b0c0000 	bleq	301204 <__bss_end__+0x2f63fc>
    1200:	000000b9 	strheq	r0, [r0], -r9
    1204:	190f1905 	stmdbne	pc, {r0, r2, r8, fp, ip}	; <UNPREDICTABLE>
    1208:	10000001 	andne	r0, r0, r1
    120c:	0000f00b 	andeq	pc, r0, fp
    1210:	0e1c0500 	cfmul32eq	mvfx0, mvfx12, mvfx0
    1214:	0000007a 	andeq	r0, r0, sl, ror r0
    1218:	00340b1c 	eorseq	r0, r4, ip, lsl fp
    121c:	1d050000 	stcne	0, cr0, [r5, #-0]
    1220:	00007a0e 	andeq	r7, r0, lr, lsl #20
    1224:	d00b2000 	andle	r2, fp, r0
    1228:	05000000 	streq	r0, [r0, #-0]
    122c:	00670e1f 	rsbeq	r0, r7, pc, lsl lr
    1230:	0b240000 	bleq	901238 <__bss_end__+0x8f6430>
    1234:	00000146 	andeq	r0, r0, r6, asr #2
    1238:	670b2005 	strvs	r2, [fp, -r5]
    123c:	26000000 	strcs	r0, [r0], -r0
    1240:	317a7210 	cmncc	sl, r0, lsl r2
    1244:	0d220500 	cfstr32eq	mvfx0, [r2, #-0]
    1248:	000001e3 	andeq	r0, r0, r3, ror #3
    124c:	04090028 	streq	r0, [r9], #-40	; 0xffffffd8
    1250:	0000014d 	andeq	r0, r0, sp, asr #2
    1254:	00005411 	andeq	r5, r0, r1, lsl r4
    1258:	0001f300 	andeq	pc, r1, r0, lsl #6
    125c:	002c1200 	eoreq	r1, ip, r0, lsl #4
    1260:	007f0000 	rsbseq	r0, pc, r0
    1264:	00014d05 	andeq	r4, r1, r5, lsl #26
    1268:	03230500 			; <UNDEFINED> instruction: 0x03230500
    126c:	0000014d 	andeq	r0, r0, sp, asr #2
    1270:	00008b13 	andeq	r8, r0, r3, lsl fp
    1274:	0f250500 	svceq	0x00250500
    1278:	0000020b 	andeq	r0, r0, fp, lsl #4
    127c:	01f30409 	mvnseq	r0, r9, lsl #8
    1280:	000e0000 	andeq	r0, lr, r0
    1284:	05000000 	streq	r0, [r0, #-0]
    1288:	020b0f26 	andeq	r0, fp, #152	; 0x98
    128c:	14000000 	strne	r0, [r0], #-0
    1290:	00d50804 	sbcseq	r0, r5, r4, lsl #16
    1294:	ad050000 	stcge	0, cr0, [r5, #-0]
    1298:	00002c11 	andeq	r2, r0, r1, lsl ip
    129c:	04080300 	streq	r0, [r8], #-768	; 0xfffffd00
    12a0:	00000372 	andeq	r0, r0, r2, ror r3
    12a4:	000b9215 	andeq	r9, fp, r5, lsl r2
    12a8:	0f100100 	svceq	0x00100100
    12ac:	0000021e 	andeq	r0, r0, lr, lsl r2
    12b0:	a9e00305 	stmibge	r0!, {r0, r2, r8, r9}^
    12b4:	f3150000 	vhadd.u16	d0, d5, d0
    12b8:	0100000b 	tsteq	r0, fp
    12bc:	021e0f11 	andseq	r0, lr, #68	; 0x44
    12c0:	03050000 	movweq	r0, #20480	; 0x5000
    12c4:	0000a9e4 	andeq	sl, r0, r4, ror #19
    12c8:	00042c15 	andeq	r2, r4, r5, lsl ip
    12cc:	0c120100 	ldfeqs	f0, [r2], {-0}
    12d0:	00000025 	andeq	r0, r0, r5, lsr #32
    12d4:	a9e80305 	stmibge	r8!, {r0, r2, r8, r9}^
    12d8:	fd160000 	ldc2	0, cr0, [r6, #-0]
    12dc:	01000003 	tsteq	r0, r3
    12e0:	0406010f 	streq	r0, [r6], #-271	; 0xfffffef1
    12e4:	2800008c 	stmdacs	r0, {r2, r3, r7}
    12e8:	01000000 	mrseq	r0, (UNDEF: 0)
    12ec:	0002c99c 	muleq	r2, ip, r9
    12f0:	00ac1700 	adceq	r1, ip, r0, lsl #14
    12f4:	02d90000 	sbcseq	r0, r9, #0, 0
    12f8:	03050000 	movweq	r0, #20480	; 0x5000
    12fc:	0000a644 	andeq	sl, r0, r4, asr #12
    1300:	008c1c18 	addeq	r1, ip, r8, lsl ip
    1304:	000c0400 	andeq	r0, ip, r0, lsl #8
    1308:	0002bf00 	andeq	fp, r2, r0, lsl #30
    130c:	50011900 	andpl	r1, r1, r0, lsl #18
    1310:	a5e00305 	strbge	r0, [r0, #773]!	; 0x305
    1314:	01190000 	tsteq	r9, r0
    1318:	e0030551 	and	r0, r3, r1, asr r5
    131c:	190000a4 	stmdbne	r0, {r2, r5, r7}
    1320:	03055201 	movweq	r5, #20993	; 0x5201
    1324:	0000a644 	andeq	sl, r0, r4, asr #12
    1328:	03530119 	cmpeq	r3, #1073741830	; 0x40000006
    132c:	0001100a 	andeq	r1, r1, sl
    1330:	008c201a 	addeq	r2, ip, sl, lsl r0
    1334:	000c1000 	andeq	r1, ip, r0
    1338:	d1110000 	tstle	r1, r0
    133c:	d9000000 	stmdble	r0, {}	; <UNPREDICTABLE>
    1340:	12000002 	andne	r0, r0, #2, 0
    1344:	0000002c 	andeq	r0, r0, ip, lsr #32
    1348:	c904000e 	stmdbgt	r4, {r1, r2, r3}
    134c:	1b000002 	blne	135c <__code_start__-0x6ca4>
    1350:	00000457 	andeq	r0, r0, r7, asr r4
    1354:	0a010601 	beq	42b60 <__bss_end__+0x37d58>
    1358:	0000002c 	andeq	r0, r0, ip, lsr #32
    135c:	00008bf4 	strdeq	r8, [r0], -r4
    1360:	00000010 	andeq	r0, r0, r0, lsl r0
    1364:	03219c01 			; <UNDEFINED> instruction: 0x03219c01
    1368:	b21c0000 	andslt	r0, ip, #0, 0
    136c:	01000003 	tsteq	r0, r3
    1370:	2c0e0108 	stfcss	f0, [lr], {8}
    1374:	f1000000 	cps	#0
    1378:	ef000005 	svc	0x00000005
    137c:	1a000005 	bne	1398 <__code_start__-0x6c68>
    1380:	00008bfc 	strdeq	r8, [r0], -ip
    1384:	000005e7 	andeq	r0, r0, r7, ror #11
    1388:	008c001a 	addeq	r0, ip, sl, lsl r0
    138c:	00032100 	andeq	r2, r3, r0, lsl #2
    1390:	2b1d0000 	blcs	741398 <__bss_end__+0x736590>
    1394:	01000005 	tsteq	r0, r5
    1398:	002c11ef 	eoreq	r1, ip, pc, ror #3
    139c:	87f00000 	ldrbhi	r0, [r0, r0]!
    13a0:	00b00000 	adcseq	r0, r0, r0
    13a4:	9c010000 	stcls	0, cr0, [r1], {-0}
    13a8:	00000419 	andeq	r0, r0, r9, lsl r4
    13ac:	0004241e 	andeq	r2, r4, lr, lsl r4
    13b0:	0bf00100 	bleq	ffc017b8 <__bss_end__+0xffbf69b0>
    13b4:	0000002c 	andeq	r0, r0, ip, lsr #32
    13b8:	00000608 	andeq	r0, r0, r8, lsl #12
    13bc:	00000604 	andeq	r0, r0, r4, lsl #12
    13c0:	0004a31e 	andeq	sl, r4, lr, lsl r3
    13c4:	18f00100 	ldmne	r0!, {r8}^
    13c8:	0000002c 	andeq	r0, r0, ip, lsr #32
    13cc:	0000062b 	andeq	r0, r0, fp, lsr #12
    13d0:	00000627 	andeq	r0, r0, r7, lsr #12
    13d4:	0004331e 	andeq	r3, r4, lr, lsl r3
    13d8:	22f00100 	rscscs	r0, r0, #0
    13dc:	0000002c 	andeq	r0, r0, ip, lsr #32
    13e0:	0000064e 	andeq	r0, r0, lr, asr #12
    13e4:	0000064a 	andeq	r0, r0, sl, asr #12
    13e8:	0003461e 	andeq	r4, r3, lr, lsl r6
    13ec:	09f40100 	ldmibeq	r4!, {r8}^
    13f0:	0000020b 	andeq	r0, r0, fp, lsl #4
    13f4:	00000675 	andeq	r0, r0, r5, ror r6
    13f8:	0000066d 	andeq	r0, r0, sp, ror #12
    13fc:	0087fc18 	addeq	pc, r7, r8, lsl ip	; <UNPREDICTABLE>
    1400:	000c0400 	andeq	r0, ip, r0, lsl #8
    1404:	0003a200 	andeq	sl, r3, r0, lsl #4
    1408:	50011900 	andpl	r1, r1, r0, lsl #18
    140c:	a2780305 	rsbsge	r0, r8, #335544320	; 0x14000000
    1410:	18000000 	stmdane	r0, {}	; <UNPREDICTABLE>
    1414:	00008804 	andeq	r8, r0, r4, lsl #16
    1418:	00000c04 	andeq	r0, r0, r4, lsl #24
    141c:	000003b9 			; <UNDEFINED> instruction: 0x000003b9
    1420:	05500119 	ldrbeq	r0, [r0, #-281]	; 0xfffffee7
    1424:	00a46403 	adceq	r6, r4, r3, lsl #8
    1428:	081a0000 	ldmdaeq	sl, {}	; <UNPREDICTABLE>
    142c:	1c000088 	stcne	0, cr0, [r0], {136}	; 0x88
    1430:	1800000c 	stmdane	r0, {r2, r3}
    1434:	00008840 	andeq	r8, r0, r0, asr #16
    1438:	00000c04 	andeq	r0, r0, r4, lsl #24
    143c:	000003df 	ldrdeq	r0, [r0], -pc	; <UNPREDICTABLE>
    1440:	05500119 	ldrbeq	r0, [r0, #-281]	; 0xfffffee7
    1444:	00a47403 	adceq	r7, r4, r3, lsl #8
    1448:	52011900 	andpl	r1, r1, #0, 18
    144c:	00007402 	andeq	r7, r0, r2, lsl #8
    1450:	00884818 	addeq	r4, r8, r8, lsl r8
    1454:	000c2800 	andeq	r2, ip, r0, lsl #16
    1458:	0003f300 	andeq	pc, r3, r0, lsl #6
    145c:	50011900 	andpl	r1, r1, r0, lsl #18
    1460:	00007402 	andeq	r7, r0, r2, lsl #8
    1464:	0088881f 	addeq	r8, r8, pc, lsl r8
    1468:	000c0400 	andeq	r0, ip, r0, lsl #8
    146c:	50011900 	andpl	r1, r1, r0, lsl #18
    1470:	a4ac0305 	strtge	r0, [ip], #773	; 0x305
    1474:	01190000 	tsteq	r9, r0
    1478:	00750251 	rsbseq	r0, r5, r1, asr r2
    147c:	02520119 	subseq	r0, r2, #1073741830	; 0x40000006
    1480:	01190077 	tsteq	r9, r7, ror r0
    1484:	00760253 	rsbseq	r0, r6, r3, asr r2
    1488:	d4200000 	strtle	r0, [r0], #-0
    148c:	01000004 	tsteq	r0, r4
    1490:	002c0ae0 	eoreq	r0, ip, r0, ror #21
    1494:	8ba40000 	blhi	fe90149c <__bss_end__+0xfe8f6694>
    1498:	00500000 	subseq	r0, r0, r0
    149c:	9c010000 	stcls	0, cr0, [r1], {-0}
    14a0:	000004bf 			; <UNDEFINED> instruction: 0x000004bf
    14a4:	0004671e 	andeq	r6, r4, lr, lsl r7
    14a8:	0ee50100 	cdpeq	1, 14, cr0, cr5, cr0, {0}
    14ac:	0000002c 	andeq	r0, r0, ip, lsr #32
    14b0:	000006af 	andeq	r0, r0, pc, lsr #13
    14b4:	000006a9 	andeq	r0, r0, r9, lsr #13
    14b8:	0000ac17 	andeq	sl, r0, r7, lsl ip
    14bc:	0004cf00 	andeq	ip, r4, r0, lsl #30
    14c0:	30030500 	andcc	r0, r3, r0, lsl #10
    14c4:	180000a6 	stmdane	r0, {r1, r2, r5, r7}
    14c8:	00008bb0 			; <UNDEFINED> instruction: 0x00008bb0
    14cc:	00000571 	andeq	r0, r0, r1, ror r5
    14d0:	00000469 	andeq	r0, r0, r9, ror #8
    14d4:	01500119 	cmpeq	r0, r9, lsl r1
    14d8:	c4180031 	ldrgt	r0, [r8], #-49	; 0xffffffcf
    14dc:	0400008b 	streq	r0, [r0], #-139	; 0xffffff75
    14e0:	8600000c 	strhi	r0, [r0], -ip
    14e4:	19000004 	stmdbne	r0, {r2}
    14e8:	03055001 	movweq	r5, #20481	; 0x5001
    14ec:	0000a5bc 			; <UNDEFINED> instruction: 0x0000a5bc
    14f0:	02510119 	subseq	r0, r1, #1073741830	; 0x40000006
    14f4:	18000074 	stmdane	r0, {r2, r4, r5, r6}
    14f8:	00008be0 	andeq	r8, r0, r0, ror #23
    14fc:	00000c04 	andeq	r0, r0, r4, lsl #24
    1500:	000004b5 			; <UNDEFINED> instruction: 0x000004b5
    1504:	05500119 	ldrbeq	r0, [r0, #-281]	; 0xfffffee7
    1508:	00a59403 	adceq	r9, r5, r3, lsl #8
    150c:	51011900 	tstpl	r1, r0, lsl #18
    1510:	a4e00305 	strbtge	r0, [r0], #773	; 0x305
    1514:	01190000 	tsteq	r9, r0
    1518:	30030552 	andcc	r0, r3, r2, asr r5
    151c:	190000a6 	stmdbne	r0, {r1, r2, r5, r7}
    1520:	08025301 	stmdaeq	r2, {r0, r8, r9, ip, lr}
    1524:	e41a00e7 	ldr	r0, [sl], #-231	; 0xffffff19
    1528:	1000008b 	andne	r0, r0, fp, lsl #1
    152c:	0000000c 	andeq	r0, r0, ip
    1530:	0000d111 	andeq	sp, r0, r1, lsl r1
    1534:	0004cf00 	andeq	ip, r4, r0, lsl #30
    1538:	002c1200 	eoreq	r1, ip, r0, lsl #4
    153c:	00110000 	andseq	r0, r1, r0
    1540:	0004bf04 	andeq	fp, r4, r4, lsl #30
    1544:	04952100 	ldreq	r2, [r5], #256	; 0x100
    1548:	d3010000 	movwle	r0, #4096	; 0x1000
    154c:	008b5c06 	addeq	r5, fp, r6, lsl #24
    1550:	00004800 	andeq	r4, r0, r0, lsl #16
    1554:	5c9c0100 	ldfpls	f0, [ip], {0}
    1558:	17000005 	strne	r0, [r0, -r5]
    155c:	000000ac 	andeq	r0, r0, ip, lsr #1
    1560:	0000056c 	andeq	r0, r0, ip, ror #10
    1564:	a6200305 	strtge	r0, [r0], -r5, lsl #6
    1568:	68180000 	ldmdavs	r8, {}	; <UNPREDICTABLE>
    156c:	7100008b 	smlabbvc	r0, fp, r0, r0
    1570:	0c000005 	stceq	0, cr0, [r0], {5}
    1574:	19000005 	stmdbne	r0, {r0, r2}
    1578:	31015001 	tstcc	r1, r1
    157c:	8b781800 	blhi	1e07584 <__bss_end__+0x1dfc77c>
    1580:	0c040000 	stceq	0, cr0, [r4], {-0}
    1584:	05230000 	streq	r0, [r3, #-0]!
    1588:	01190000 	tsteq	r9, r0
    158c:	74030550 	strvc	r0, [r3], #-1360	; 0xfffffab0
    1590:	000000a5 	andeq	r0, r0, r5, lsr #1
    1594:	008b9018 	addeq	r9, fp, r8, lsl r0
    1598:	000c0400 	andeq	r0, ip, r0, lsl #8
    159c:	00055200 	andeq	r5, r5, r0, lsl #4
    15a0:	50011900 	andpl	r1, r1, r0, lsl #18
    15a4:	a5480305 	strbge	r0, [r8, #-773]	; 0xfffffcfb
    15a8:	01190000 	tsteq	r9, r0
    15ac:	e0030551 	and	r0, r3, r1, asr r5
    15b0:	190000a4 	stmdbne	r0, {r2, r5, r7}
    15b4:	03055201 	movweq	r5, #20993	; 0x5201
    15b8:	0000a620 	andeq	sl, r0, r0, lsr #12
    15bc:	02530119 	subseq	r0, r3, #1073741830	; 0x40000006
    15c0:	1a00d908 	bne	379e8 <__bss_end__+0x2cbe0>
    15c4:	00008b94 	muleq	r0, r4, fp
    15c8:	00000c10 	andeq	r0, r0, r0, lsl ip
    15cc:	00d11100 	sbcseq	r1, r1, r0, lsl #2
    15d0:	056c0000 	strbeq	r0, [ip, #-0]!
    15d4:	2c120000 	ldccs	0, cr0, [r2], {-0}
    15d8:	0d000000 	stceq	0, cr0, [r0, #-0]
    15dc:	055c0400 	ldrbeq	r0, [ip, #-1024]	; 0xfffffc00
    15e0:	7b200000 	blvc	8015e8 <__bss_end__+0x7f67e0>
    15e4:	01000004 	tsteq	r0, r4
    15e8:	002c0acb 	eoreq	r0, ip, fp, asr #21
    15ec:	8b2c0000 	blhi	b015f4 <__bss_end__+0xaf67ec>
    15f0:	00300000 	eorseq	r0, r0, r0
    15f4:	9c010000 	stcls	0, cr0, [r1], {-0}
    15f8:	000005e7 	andeq	r0, r0, r7, ror #11
    15fc:	00053622 	andeq	r3, r5, r2, lsr #12
    1600:	1ccb0100 	stfnee	f0, [fp], {0}
    1604:	00000025 	andeq	r0, r0, r5, lsr #32
    1608:	000006dc 	ldrdeq	r0, [r0], -ip
    160c:	000006d8 	ldrdeq	r0, [r0], -r8
    1610:	008b3c18 	addeq	r3, fp, r8, lsl ip
    1614:	000c0400 	andeq	r0, ip, r0, lsl #8
    1618:	0005b600 	andeq	fp, r5, r0, lsl #12
    161c:	50011900 	andpl	r1, r1, r0, lsl #18
    1620:	a52c0305 	strge	r0, [ip, #-773]!	; 0xfffffcfb
    1624:	1a000000 	bne	162c <__code_start__-0x69d4>
    1628:	00008b40 	andeq	r8, r0, r0, asr #22
    162c:	000005e7 	andeq	r0, r0, r7, ror #11
    1630:	008b4818 	addeq	r4, fp, r8, lsl r8
    1634:	000c0400 	andeq	r0, ip, r0, lsl #8
    1638:	0005d600 	andeq	sp, r5, r0, lsl #12
    163c:	50011900 	andpl	r1, r1, r0, lsl #18
    1640:	a5400305 	strbge	r0, [r0, #-773]	; 0xfffffcfb
    1644:	1f000000 	svcne	0x00000000
    1648:	00008b50 	andeq	r8, r0, r0, asr fp
    164c:	00000709 	andeq	r0, r0, r9, lsl #14
    1650:	02500119 	subseq	r0, r0, #1073741830	; 0x40000006
    1654:	00000074 	andeq	r0, r0, r4, ror r0
    1658:	0003f423 	andeq	pc, r3, r3, lsr #8
    165c:	0da30100 	stfeqs	f0, [r3]
    1660:	00008a00 	andeq	r8, r0, r0, lsl #20
    1664:	00000090 	muleq	r0, r0, r0
    1668:	06de9c01 	ldrbeq	r9, [lr], r1, lsl #24
    166c:	62150000 	andsvs	r0, r5, #0, 0
    1670:	01000004 	tsteq	r0, r4
    1674:	06de0ead 	ldrbeq	r0, [lr], sp, lsr #29
    1678:	91030000 	mrsls	r0, (UNDEF: 3)
    167c:	ac247fb8 	stcge	15, cr7, [r4], #-736	; 0xfffffd20
    1680:	fe000000 	cdp2	0, 0, cr0, cr0, cr0, {0}
    1684:	25000006 	strcs	r0, [r0, #-6]
    1688:	000003d5 	ldrdeq	r0, [r0], -r5
    168c:	030fbe01 	movweq	fp, #65025	; 0xfe01
    1690:	00000007 	andeq	r0, r0, r7
    1694:	08080000 	stmdaeq	r8, {}	; <UNPREDICTABLE>
    1698:	0000040c 	andeq	r0, r0, ip, lsl #8
    169c:	7a15c201 	bvc	571ea8 <__bss_end__+0x5670a0>
    16a0:	08000000 	stmdaeq	r0, {}	; <UNPREDICTABLE>
    16a4:	000004e6 	andeq	r0, r0, r6, ror #9
    16a8:	7a24c201 	bvc	931eb4 <__bss_end__+0x9270ac>
    16ac:	08000000 	stmdaeq	r0, {}	; <UNPREDICTABLE>
    16b0:	0000051c 	andeq	r0, r0, ip, lsl r5
    16b4:	7a15c501 	bvc	572ac0 <__bss_end__+0x567cb8>
    16b8:	08000000 	stmdaeq	r0, {}	; <UNPREDICTABLE>
    16bc:	0000046e 	andeq	r0, r0, lr, ror #8
    16c0:	7a25c501 	bvc	972acc <__bss_end__+0x967cc4>
    16c4:	26000000 	strcs	r0, [r0], -r0
    16c8:	00008a08 	andeq	r8, r0, r8, lsl #20
    16cc:	00000024 	andeq	r0, r0, r4, lsr #32
    16d0:	00000688 	andeq	r0, r0, r8, lsl #13
    16d4:	01006827 	tsteq	r0, r7, lsr #16
    16d8:	020b10a7 	andeq	r1, fp, #167, 0	; 0xa7
    16dc:	06fe0000 	ldrbteq	r0, [lr], r0
    16e0:	06fa0000 	ldrbteq	r0, [sl], r0
    16e4:	0c1a0000 	ldceq	0, cr0, [sl], {-0}
    16e8:	1c00008a 	stcne	0, cr0, [r0], {138}	; 0x8a
    16ec:	1a00000c 	bne	1724 <__code_start__-0x68dc>
    16f0:	00008a28 	andeq	r8, r0, r8, lsr #20
    16f4:	00000c28 	andeq	r0, r0, r8, lsr #24
    16f8:	8a341800 	bhi	d07700 <__bss_end__+0xcfc8f8>
    16fc:	0c340000 	ldceq	0, cr0, [r4], #-0
    1700:	069c0000 	ldreq	r0, [ip], r0
    1704:	01190000 	tsteq	r9, r0
    1708:	007d0250 	rsbseq	r0, sp, r0, asr r2
    170c:	8a541800 	bhi	1507714 <__bss_end__+0x14fc90c>
    1710:	08df0000 	ldmeq	pc, {}^	; <UNPREDICTABLE>
    1714:	06b60000 	ldrteq	r0, [r6], r0
    1718:	01190000 	tsteq	r9, r0
    171c:	007d0250 	rsbseq	r0, sp, r0, asr r2
    1720:	02510119 	subseq	r0, r1, #1073741830	; 0x40000006
    1724:	18007091 	stmdane	r0, {r0, r4, r7, ip, sp, lr}
    1728:	00008a60 	andeq	r8, r0, r0, ror #20
    172c:	000008df 	ldrdeq	r0, [r0], -pc	; <UNPREDICTABLE>
    1730:	000006cb 	andeq	r0, r0, fp, asr #13
    1734:	03510119 	cmpeq	r1, #1073741830	; 0x40000006
    1738:	00244740 	eoreq	r4, r4, r0, asr #14
    173c:	008a6c1a 	addeq	r6, sl, sl, lsl ip
    1740:	0008df00 	andeq	sp, r8, r0, lsl #30
    1744:	8a781a00 	bhi	1e07f4c <__bss_end__+0x1dfd144>
    1748:	08df0000 	ldmeq	pc, {}^	; <UNPREDICTABLE>
    174c:	11000000 	mrsne	r0, (UNDEF: 0)
    1750:	0000007a 	andeq	r0, r0, sl, ror r0
    1754:	000006ee 	andeq	r0, r0, lr, ror #13
    1758:	00002c12 	andeq	r2, r0, r2, lsl ip
    175c:	11000f00 	tstne	r0, r0, lsl #30
    1760:	000000d1 	ldrdeq	r0, [r0], -r1
    1764:	000006fe 	strdeq	r0, [r0], -lr
    1768:	00002c12 	andeq	r2, r0, r2, lsl ip
    176c:	04000800 	streq	r0, [r0], #-2048	; 0xfffff800
    1770:	000006ee 	andeq	r0, r0, lr, ror #13
    1774:	007a0409 	rsbseq	r0, sl, r9, lsl #8
    1778:	111d0000 	tstne	sp, r0
    177c:	01000005 	tsteq	r0, r5
    1780:	002c116e 	eoreq	r1, ip, lr, ror #2
    1784:	86740000 	ldrbthi	r0, [r4], -r0
    1788:	017c0000 	cmneq	ip, r0
    178c:	9c010000 	stcls	0, cr0, [r1], {-0}
    1790:	000008df 	ldrdeq	r0, [r0], -pc	; <UNPREDICTABLE>
    1794:	00053622 	andeq	r3, r5, r2, lsr #12
    1798:	206e0100 	rsbcs	r0, lr, r0, lsl #2
    179c:	00000025 	andeq	r0, r0, r5, lsr #32
    17a0:	00000720 	andeq	r0, r0, r0, lsr #14
    17a4:	0000071c 	andeq	r0, r0, ip, lsl r7
    17a8:	0004241e 	andeq	r2, r4, lr, lsl r4
    17ac:	0b6f0100 	bleq	1bc1bb4 <__bss_end__+0x1bb6dac>
    17b0:	0000002c 	andeq	r0, r0, ip, lsr #32
    17b4:	00000742 	andeq	r0, r0, r2, asr #14
    17b8:	0000073e 	andeq	r0, r0, lr, lsr r7
    17bc:	0004501e 	andeq	r5, r4, lr, lsl r0
    17c0:	186f0100 	stmdane	pc!, {r8}^	; <UNPREDICTABLE>
    17c4:	0000002c 	andeq	r0, r0, ip, lsr #32
    17c8:	00000765 	andeq	r0, r0, r5, ror #14
    17cc:	00000761 	andeq	r0, r0, r1, ror #14
    17d0:	00044a1e 	andeq	r4, r4, lr, lsl sl
    17d4:	246f0100 	strbtcs	r0, [pc], #-256	; 17dc <__code_start__-0x6824>
    17d8:	0000002c 	andeq	r0, r0, ip, lsr #32
    17dc:	00000788 	andeq	r0, r0, r8, lsl #15
    17e0:	00000784 	andeq	r0, r0, r4, lsl #15
    17e4:	0003461e 	andeq	r4, r3, lr, lsl r6
    17e8:	09740100 	ldmdbeq	r4!, {r8}^
    17ec:	0000020b 	andeq	r0, r0, fp, lsl #4
    17f0:	000007b7 			; <UNDEFINED> instruction: 0x000007b7
    17f4:	000007a7 	andeq	r0, r0, r7, lsr #15
    17f8:	00003828 	andeq	r3, r0, r8, lsr #16
    17fc:	00083d00 	andeq	r3, r8, r0, lsl #26
    1800:	03321e00 	teqeq	r2, #0, 28
    1804:	77010000 	strvc	r0, [r1, -r0]
    1808:	00002c0c 	andeq	r2, r0, ip, lsl #24
    180c:	00081f00 	andeq	r1, r8, r0, lsl #30
    1810:	00081700 	andeq	r1, r8, r0, lsl #14
    1814:	03eb1e00 	mvneq	r1, #0, 28
    1818:	78010000 	stmdavc	r1, {}	; <UNPREDICTABLE>
    181c:	00002507 	andeq	r2, r0, r7, lsl #10
    1820:	00086d00 	andeq	r6, r8, r0, lsl #26
    1824:	00086700 	andeq	r6, r8, r0, lsl #14
    1828:	86e01800 	strbthi	r1, [r0], r0, lsl #16
    182c:	0c040000 	stceq	0, cr0, [r4], {-0}
    1830:	07d50000 	ldrbeq	r0, [r5, r0]
    1834:	01190000 	tsteq	r9, r0
    1838:	3c030550 	cfstr32cc	mvfx0, [r3], {80}	; 0x50
    183c:	190000a3 	stmdbne	r0, {r0, r1, r5, r7}
    1840:	74025101 	strvc	r5, [r2], #-257	; 0xfffffeff
    1844:	0c180000 	ldceq	0, cr0, [r8], {-0}
    1848:	04000087 	streq	r0, [r0], #-135	; 0xffffff79
    184c:	f200000c 	vhadd.s8	d0, d0, d12
    1850:	19000007 	stmdbne	r0, {r0, r1, r2}
    1854:	03055001 	movweq	r5, #20481	; 0x5001
    1858:	0000a2cc 	andeq	sl, r0, ip, asr #5
    185c:	02510119 	subseq	r0, r1, #1073741830	; 0x40000006
    1860:	18000074 	stmdane	r0, {r2, r4, r5, r6}
    1864:	0000872c 	andeq	r8, r0, ip, lsr #14
    1868:	00000c04 	andeq	r0, r0, r4, lsl #24
    186c:	0000080f 	andeq	r0, r0, pc, lsl #16
    1870:	05500119 	ldrbeq	r0, [r0, #-281]	; 0xfffffee7
    1874:	00a30403 	adceq	r0, r3, r3, lsl #8
    1878:	51011900 	tstpl	r1, r0, lsl #18
    187c:	00007402 	andeq	r7, r0, r2, lsl #8
    1880:	00874418 	addeq	r4, r7, r8, lsl r4
    1884:	000c0400 	andeq	r0, ip, r0, lsl #8
    1888:	00082c00 	andeq	r2, r8, r0, lsl #24
    188c:	50011900 	andpl	r1, r1, r0, lsl #18
    1890:	a3740305 	cmnge	r4, #335544320	; 0x14000000
    1894:	01190000 	tsteq	r9, r0
    1898:	00740251 	rsbseq	r0, r4, r1, asr r2
    189c:	874c1f00 	strbhi	r1, [ip, -r0, lsl #30]
    18a0:	0c280000 	stceq	0, cr0, [r8], #-0
    18a4:	01190000 	tsteq	r9, r0
    18a8:	00740250 	rsbseq	r0, r4, r0, asr r2
    18ac:	84180000 	ldrhi	r0, [r8], #-0
    18b0:	04000086 	streq	r0, [r0], #-134	; 0xffffff7a
    18b4:	5400000c 	strpl	r0, [r0], #-12
    18b8:	19000008 	stmdbne	r0, {r3}
    18bc:	03055001 	movweq	r5, #20481	; 0x5001
    18c0:	0000a278 	andeq	sl, r0, r8, ror r2
    18c4:	868c1800 	strhi	r1, [ip], r0, lsl #16
    18c8:	0c040000 	stceq	0, cr0, [r4], {-0}
    18cc:	086b0000 	stmdaeq	fp!, {}^	; <UNPREDICTABLE>
    18d0:	01190000 	tsteq	r9, r0
    18d4:	b4030550 	strlt	r0, [r3], #-1360	; 0xfffffab0
    18d8:	000000a2 	andeq	r0, r0, r2, lsr #1
    18dc:	0086901a 	addeq	r9, r6, sl, lsl r0
    18e0:	000c1c00 	andeq	r1, ip, r0, lsl #24
    18e4:	87941800 	ldrhi	r1, [r4, r0, lsl #16]
    18e8:	0c040000 	stceq	0, cr0, [r4], {-0}
    18ec:	08910000 	ldmeq	r1, {}	; <UNPREDICTABLE>
    18f0:	01190000 	tsteq	r9, r0
    18f4:	b0030550 	andlt	r0, r3, r0, asr r5
    18f8:	190000a3 	stmdbne	r0, {r0, r1, r5, r7}
    18fc:	75025101 	strvc	r5, [r2, #-257]	; 0xfffffeff
    1900:	a4180000 	ldrge	r0, [r8], #-0
    1904:	04000087 	streq	r0, [r0], #-135	; 0xffffff79
    1908:	a800000c 	stmdage	r0, {r2, r3}
    190c:	19000008 	stmdbne	r0, {r3}
    1910:	03055001 	movweq	r5, #20481	; 0x5001
    1914:	0000a3d0 	ldrdeq	sl, [r0], -r0
    1918:	87ac1800 	strhi	r1, [ip, r0, lsl #16]!
    191c:	0c040000 	stceq	0, cr0, [r4], {-0}
    1920:	08bf0000 	ldmeq	pc!, {}	; <UNPREDICTABLE>
    1924:	01190000 	tsteq	r9, r0
    1928:	28030550 	stmdacs	r3, {r4, r6, r8, sl}
    192c:	000000a4 	andeq	r0, r0, r4, lsr #1
    1930:	0087c41f 	addeq	ip, r7, pc, lsl r4
    1934:	000c0400 	andeq	r0, ip, r0, lsl #8
    1938:	50011900 	andpl	r1, r1, r0, lsl #18
    193c:	a3f80305 	mvnsge	r0, #335544320	; 0x14000000
    1940:	01190000 	tsteq	r9, r0
    1944:	00780251 	rsbseq	r0, r8, r1, asr r2
    1948:	02520119 	subseq	r0, r2, #1073741830	; 0x40000006
    194c:	00000077 	andeq	r0, r0, r7, ror r0
    1950:	0000d023 	andeq	sp, r0, r3, lsr #32
    1954:	0d490100 	stfeqe	f0, [r9, #-0]
    1958:	000088c8 	andeq	r8, r0, r8, asr #17
    195c:	00000138 	andeq	r0, r0, r8, lsr r1
    1960:	0a7d9c01 	beq	1f6896c <__bss_end__+0x1f5db64>
    1964:	70290000 	eorvc	r0, r9, r0
    1968:	1c490100 	stfnee	f0, [r9], {-0}
    196c:	00000703 	andeq	r0, r0, r3, lsl #14
    1970:	000008a4 	andeq	r0, r0, r4, lsr #17
    1974:	00000896 	muleq	r0, r6, r8
    1978:	01006529 	tsteq	r0, r9, lsr #10
    197c:	07032949 	streq	r2, [r3, -r9, asr #18]
    1980:	090f0000 	stmdbeq	pc, {}	; <UNPREDICTABLE>
    1984:	08ff0000 	ldmeq	pc!, {}^	; <UNPREDICTABLE>
    1988:	ac170000 	ldcge	0, cr0, [r7], {-0}
    198c:	8d000000 	stchi	0, cr0, [r0, #-0]
    1990:	0500000a 	streq	r0, [r0, #-10]
    1994:	00a61003 	adceq	r1, r6, r3
    1998:	041a1e00 	ldreq	r1, [sl], #-3584	; 0xfffff200
    199c:	4f010000 	svcmi	0x00010000
    19a0:	00003311 	andeq	r3, r0, r1, lsl r3
    19a4:	00098100 	andeq	r8, r9, r0, lsl #2
    19a8:	00097b00 	andeq	r7, r9, r0, lsl #22
    19ac:	00502800 	subseq	r2, r0, r0, lsl #16
    19b0:	09b60000 	ldmibeq	r6!, {}	; <UNPREDICTABLE>
    19b4:	69270000 	stmdbvs	r7!, {}	; <UNPREDICTABLE>
    19b8:	10500100 	subsne	r0, r0, r0, lsl #2
    19bc:	0000002c 	andeq	r0, r0, ip, lsr #32
    19c0:	000009b7 			; <UNDEFINED> instruction: 0x000009b7
    19c4:	000009b3 			; <UNDEFINED> instruction: 0x000009b3
    19c8:	0000682a 	andeq	r6, r0, sl, lsr #16
    19cc:	04aa1e00 	strteq	r1, [sl], #3584	; 0xe00
    19d0:	51010000 	mrspl	r0, (UNDEF: 1)
    19d4:	00020b0a 	andeq	r0, r2, sl, lsl #22
    19d8:	0009dc00 	andeq	sp, r9, r0, lsl #24
    19dc:	0009d600 	andeq	sp, r9, r0, lsl #12
    19e0:	00802800 	addeq	r2, r0, r0, lsl #16
    19e4:	09ab0000 	stmibeq	fp!, {}	; <UNPREDICTABLE>
    19e8:	df1e0000 	svcle	0x001e0000
    19ec:	01000003 	tsteq	r0, r3
    19f0:	07030e63 	streq	r0, [r3, -r3, ror #28]
    19f4:	0a070000 	beq	1c19fc <__bss_end__+0x1b6bf4>
    19f8:	0a050000 	beq	141a00 <__bss_end__+0x136bf8>
    19fc:	b41e0000 	ldrlt	r0, [lr], #-0
    1a00:	01000004 	tsteq	r0, r4
    1a04:	07030e64 	streq	r0, [r3, -r4, ror #28]
    1a08:	0a1e0000 	beq	781a10 <__bss_end__+0x776c08>
    1a0c:	0a1a0000 	beq	681a14 <__bss_end__+0x676c0c>
    1a10:	701a0000 	andsvc	r0, sl, r0
    1a14:	df000089 	svcle	0x00000089
    1a18:	00000008 	andeq	r0, r0, r8
    1a1c:	0089881a 	addeq	r8, r9, sl, lsl r8
    1a20:	000a9200 	andeq	r9, sl, r0, lsl #4
    1a24:	18000000 	stmdane	r0, {}	; <UNPREDICTABLE>
    1a28:	00008914 	andeq	r8, r0, r4, lsl r9
    1a2c:	00000c04 	andeq	r0, r0, r4, lsl #24
    1a30:	000009ef 	andeq	r0, r0, pc, ror #19
    1a34:	05500119 	ldrbeq	r0, [r0, #-281]	; 0xfffffee7
    1a38:	00a07c03 	adceq	r7, r0, r3, lsl #24
    1a3c:	51011900 	tstpl	r1, r0, lsl #18
    1a40:	a4e00305 	strbtge	r0, [r0], #773	; 0x305
    1a44:	01190000 	tsteq	r9, r0
    1a48:	10030552 	andne	r0, r3, r2, asr r5
    1a4c:	190000a6 	stmdbne	r0, {r1, r2, r5, r7}
    1a50:	08025301 	stmdaeq	r2, {r0, r8, r9, ip, lr}
    1a54:	7d02194a 	vstrvc.16	s2, [r2, #-148]	; 0xffffff6c	; <UNPREDICTABLE>
    1a58:	e8030500 	stmda	r3, {r8, sl}
    1a5c:	000000a4 	andeq	r0, r0, r4, lsr #1
    1a60:	0089181a 	addeq	r1, r9, sl, lsl r8
    1a64:	000c1000 	andeq	r1, ip, r0
    1a68:	89341800 	ldmdbhi	r4!, {fp, ip}
    1a6c:	0c040000 	stceq	0, cr0, [r4], {-0}
    1a70:	0a310000 	beq	c41a78 <__bss_end__+0xc36c70>
    1a74:	01190000 	tsteq	r9, r0
    1a78:	7c030550 	cfstr32vc	mvfx0, [r3], {80}	; 0x50
    1a7c:	190000a0 	stmdbne	r0, {r5, r7}
    1a80:	03055101 	movweq	r5, #20737	; 0x5101
    1a84:	0000a4e0 	andeq	sl, r0, r0, ror #9
    1a88:	05520119 	ldrbeq	r0, [r2, #-281]	; 0xfffffee7
    1a8c:	00a61003 	adceq	r1, r6, r3
    1a90:	53011900 	movwpl	r1, #6400	; 0x1900
    1a94:	194c0802 	stmdbne	ip, {r1, fp}^
    1a98:	05007d02 	streq	r7, [r0, #-3330]	; 0xfffff2fe
    1a9c:	00a4ec03 	adceq	lr, r4, r3, lsl #24
    1aa0:	381a0000 	ldmdacc	sl, {}	; <UNPREDICTABLE>
    1aa4:	10000089 	andne	r0, r0, r9, lsl #1
    1aa8:	1800000c 	stmdane	r0, {r2, r3}
    1aac:	00008954 	andeq	r8, r0, r4, asr r9
    1ab0:	00000c04 	andeq	r0, r0, r4, lsl #24
    1ab4:	00000a73 	andeq	r0, r0, r3, ror sl
    1ab8:	05500119 	ldrbeq	r0, [r0, #-281]	; 0xfffffee7
    1abc:	00a07c03 	adceq	r7, r0, r3, lsl #24
    1ac0:	51011900 	tstpl	r1, r0, lsl #18
    1ac4:	a4e00305 	strbtge	r0, [r0], #773	; 0x305
    1ac8:	01190000 	tsteq	r9, r0
    1acc:	10030552 	andne	r0, r3, r2, asr r5
    1ad0:	190000a6 	stmdbne	r0, {r1, r2, r5, r7}
    1ad4:	08025301 	stmdaeq	r2, {r0, r8, r9, ip, lr}
    1ad8:	7d02194d 	vstrvc.16	s2, [r2, #-154]	; 0xffffff66	; <UNPREDICTABLE>
    1adc:	fc030500 	stc2	5, cr0, [r3], {-0}
    1ae0:	000000a4 	andeq	r0, r0, r4, lsr #1
    1ae4:	0089581a 	addeq	r5, r9, sl, lsl r8
    1ae8:	000c1000 	andeq	r1, ip, r0
    1aec:	d1110000 	tstle	r1, r0
    1af0:	8d000000 	stchi	0, cr0, [r0, #-0]
    1af4:	1200000a 	andne	r0, r0, #10, 0
    1af8:	0000002c 	andeq	r0, r0, ip, lsr #32
    1afc:	7d040004 	stcvc	0, cr0, [r4, #-16]
    1b00:	1d00000a 	stcne	0, cr0, [r0, #-40]	; 0xffffffd8
    1b04:	0000048e 	andeq	r0, r0, lr, lsl #9
    1b08:	0b0f3601 	bleq	3cf314 <__bss_end__+0x3c450c>
    1b0c:	a0000002 	andge	r0, r0, r2
    1b10:	28000088 	stmdacs	r0, {r3, r7}
    1b14:	01000000 	mrseq	r0, (UNDEF: 0)
    1b18:	000af79c 	muleq	sl, ip, r7
    1b1c:	0ba92200 	bleq	fea4a324 <__bss_end__+0xfea3f51c>
    1b20:	36010000 	strcc	r0, [r1], -r0
    1b24:	00007a1f 	andeq	r7, r0, pc, lsl sl
    1b28:	000a4500 	andeq	r4, sl, r0, lsl #10
    1b2c:	000a4100 	andeq	r4, sl, r0, lsl #2
    1b30:	00702700 	rsbseq	r2, r0, r0, lsl #14
    1b34:	1e0b3701 	cdpne	7, 0, cr3, cr11, cr1, {0}
    1b38:	67000002 	strvs	r0, [r0, -r2]
    1b3c:	6300000a 	movwvs	r0, #10
    1b40:	1800000a 	stmdane	r0, {r1, r3}
    1b44:	000088ac 	andeq	r8, r0, ip, lsr #17
    1b48:	00000af7 	strdeq	r0, [r0], -r7
    1b4c:	00000ae6 	andeq	r0, r0, r6, ror #21
    1b50:	02500119 	subseq	r0, r0, #1073741830	; 0x40000006
    1b54:	1f000074 	svcne	0x00000074
    1b58:	000088bc 			; <UNDEFINED> instruction: 0x000088bc
    1b5c:	00000c40 	andeq	r0, r0, r0, asr #24
    1b60:	02500119 	subseq	r0, r0, #1073741830	; 0x40000006
    1b64:	00000074 	andeq	r0, r0, r4, ror r0
    1b68:	0004be1d 	andeq	fp, r4, sp, lsl lr
    1b6c:	0c260100 	stfeqs	f0, [r6], #-0
    1b70:	00000025 	andeq	r0, r0, r5, lsr #32
    1b74:	00008638 	andeq	r8, r0, r8, lsr r6
    1b78:	0000003c 	andeq	r0, r0, ip, lsr r0
    1b7c:	0b249c01 	bleq	928b88 <__bss_end__+0x91dd80>
    1b80:	70290000 	eorvc	r0, r9, r0
    1b84:	1a260100 	bne	981f8c <__bss_end__+0x977184>
    1b88:	0000021e 	andeq	r0, r0, lr, lsl r2
    1b8c:	00000a91 	muleq	r0, r1, sl
    1b90:	00000a85 	andeq	r0, r0, r5, lsl #21
    1b94:	04892000 	streq	r2, [r9], #0
    1b98:	13010000 	movwne	r0, #4096	; 0x1000
    1b9c:	00021e07 	andeq	r1, r2, r7, lsl #28
    1ba0:	008a9000 	addeq	r9, sl, r0
    1ba4:	00009c00 	andeq	r9, r0, r0, lsl #24
    1ba8:	049c0100 	ldreq	r0, [ip], #256	; 0x100
    1bac:	2200000c 	andcs	r0, r0, #12, 0
    1bb0:	00000440 	andeq	r0, r0, r0, asr #8
    1bb4:	46111301 	ldrmi	r1, [r1], -r1, lsl #6
    1bb8:	e8000000 	stmda	r0, {}	; <UNPREDICTABLE>
    1bbc:	e400000a 	str	r0, [r0], #-10
    1bc0:	1700000a 	strne	r0, [r0, -sl]
    1bc4:	000000ac 	andeq	r0, r0, ip, lsr #1
    1bc8:	00000a8d 	andeq	r0, r0, sp, lsl #21
    1bcc:	a6180305 	ldrge	r0, [r8], -r5, lsl #6
    1bd0:	ec260000 	stc	0, cr0, [r6], #-0
    1bd4:	4000008a 	andmi	r0, r0, sl, lsl #1
    1bd8:	97000000 	strls	r0, [r0, -r0]
    1bdc:	2500000b 	strcs	r0, [r0, #-11]
    1be0:	000004c6 	andeq	r0, r0, r6, asr #9
    1be4:	2c121701 	ldccs	7, cr1, [r2], {1}
    1be8:	00000000 	andeq	r0, r0, r0
    1bec:	1f001000 	svcne	0x00001000
    1bf0:	00008b08 	andeq	r8, r0, r8, lsl #22
    1bf4:	00000c4c 	andeq	r0, r0, ip, asr #24
    1bf8:	03500119 	cmpeq	r0, #1073741830	; 0x40000006
    1bfc:	19244040 	stmdbne	r4!, {r6, lr}
    1c00:	40035101 	andmi	r5, r3, r1, lsl #2
    1c04:	00002440 	andeq	r2, r0, r0, asr #8
    1c08:	008aa418 	addeq	sl, sl, r8, lsl r4
    1c0c:	000c0400 	andeq	r0, ip, r0, lsl #8
    1c10:	000bae00 	andeq	sl, fp, r0, lsl #28
    1c14:	50011900 	andpl	r1, r1, r0, lsl #18
    1c18:	a50c0305 	strge	r0, [ip, #-773]	; 0xfffffcfb
    1c1c:	18000000 	stmdane	r0, {}	; <UNPREDICTABLE>
    1c20:	00008ac4 	andeq	r8, r0, r4, asr #21
    1c24:	00000c58 	andeq	r0, r0, r8, asr ip
    1c28:	00000bc2 	andeq	r0, r0, r2, asr #23
    1c2c:	02500119 	subseq	r0, r0, #1073741830	; 0x40000006
    1c30:	18000074 	stmdane	r0, {r2, r4, r5, r6}
    1c34:	00008ae8 	andeq	r8, r0, r8, ror #21
    1c38:	00000c04 	andeq	r0, r0, r4, lsl #24
    1c3c:	00000bfa 	strdeq	r0, [r0], -sl
    1c40:	05500119 	ldrbeq	r0, [r0, #-281]	; 0xfffffee7
    1c44:	00a07c03 	adceq	r7, r0, r3, lsl #24
    1c48:	51011900 	tstpl	r1, r0, lsl #18
    1c4c:	a4e00305 	strbtge	r0, [r0], #773	; 0x305
    1c50:	01190000 	tsteq	r9, r0
    1c54:	18030552 	stmdane	r3, {r1, r4, r6, r8, sl}
    1c58:	190000a6 	stmdbne	r0, {r1, r2, r5, r7}
    1c5c:	45015301 	strmi	r5, [r1, #-769]	; 0xfffffcff
    1c60:	007d0219 	rsbseq	r0, sp, r9, lsl r2
    1c64:	a51c0305 	ldrge	r0, [ip, #-773]	; 0xfffffcfb
    1c68:	1a000000 	bne	1c70 <__code_start__-0x6390>
    1c6c:	00008aec 	andeq	r8, r0, ip, ror #21
    1c70:	00000c10 	andeq	r0, r0, r0, lsl ip
    1c74:	06ec2b00 	strbteq	r2, [ip], r0, lsl #22
    1c78:	06ec0000 	strbteq	r0, [ip], r0
    1c7c:	28030000 	stmdacs	r3, {}	; <UNPREDICTABLE>
    1c80:	00c32b06 	sbceq	r2, r3, r6, lsl #22
    1c84:	00c30000 	sbceq	r0, r3, r0
    1c88:	6e030000 	cdpvs	0, 0, cr0, cr3, cr0, {0}
    1c8c:	02ff2b06 	rscseq	r2, pc, #6144	; 0x1800
    1c90:	02ff0000 	rscseq	r0, pc, #0, 0
    1c94:	2f050000 	svccs	0x00050000
    1c98:	033a2b08 	teqeq	sl, #8, 22	; 0x2000
    1c9c:	033a0000 	teqeq	sl, #0, 0
    1ca0:	32050000 	andcc	r0, r5, #0, 0
    1ca4:	045d2b08 	ldrbeq	r2, [sp], #-2824	; 0xfffff4f8
    1ca8:	045d0000 	ldrbeq	r0, [sp], #-0
    1cac:	a0010000 	andge	r0, r1, r0
    1cb0:	03792b06 	cmneq	r9, #6144	; 0x1800
    1cb4:	03790000 	cmneq	r9, #0, 0
    1cb8:	33050000 	movwcc	r0, #20480	; 0x5000
    1cbc:	04fa2b08 	ldrbteq	r2, [sl], #2824	; 0xb08
    1cc0:	04fa0000 	ldrbteq	r0, [sl], #0
    1cc4:	83030000 	movwhi	r0, #12288	; 0x3000
    1cc8:	04f22b06 	ldrbteq	r2, [r2], #2822	; 0xb06
    1ccc:	04f20000 	ldrbteq	r0, [r2], #0
    1cd0:	7c030000 	stcvc	0, cr0, [r3], {-0}
    1cd4:	02da0007 	sbcseq	r0, sl, #7, 0
    1cd8:	00040000 	andeq	r0, r4, r0
    1cdc:	00000727 	andeq	r0, r0, r7, lsr #14
    1ce0:	01ab0104 			; <UNDEFINED> instruction: 0x01ab0104
    1ce4:	720c0000 	andvc	r0, ip, #0, 0
    1ce8:	53000005 	movwpl	r0, #5
    1cec:	70000001 	andvc	r0, r0, r1
    1cf0:	ac00008c 	stcge	0, cr0, [r0], {140}	; 0x8c
    1cf4:	c7000001 	strgt	r0, [r0, -r1]
    1cf8:	0200000c 	andeq	r0, r0, #12, 0
    1cfc:	6e690504 	cdpvs	5, 6, cr0, cr9, cr4, {0}
    1d00:	04030074 	streq	r0, [r3], #-116	; 0xffffff8c
    1d04:	00010c07 	andeq	r0, r1, r7, lsl #24
    1d08:	06010300 	streq	r0, [r1], -r0, lsl #6
    1d0c:	000000e4 	andeq	r0, r0, r4, ror #1
    1d10:	40050203 	andmi	r0, r5, r3, lsl #4
    1d14:	03000000 	movweq	r0, #0
    1d18:	00820504 	addeq	r0, r2, r4, lsl #10
    1d1c:	08030000 	stmdaeq	r3, {}	; <UNPREDICTABLE>
    1d20:	00007d05 	andeq	r7, r0, r5, lsl #26
    1d24:	08010300 	stmdaeq	r1, {r8, r9}
    1d28:	000000e2 	andeq	r0, r0, r2, ror #1
    1d2c:	33070203 	movwcc	r0, #29187	; 0x7203
    1d30:	03000001 	movweq	r0, #1
    1d34:	01070704 	tsteq	r7, r4, lsl #14
    1d38:	08030000 	stmdaeq	r3, {}	; <UNPREDICTABLE>
    1d3c:	00010207 	andeq	r0, r1, r7, lsl #4
    1d40:	00250400 	eoreq	r0, r5, r0, lsl #8
    1d44:	007a0000 	rsbseq	r0, sl, r0
    1d48:	25050000 	strcs	r0, [r5, #-0]
    1d4c:	00000000 	andeq	r0, r0, r0
    1d50:	00004a06 	andeq	r4, r0, r6, lsl #20
    1d54:	0e1c0200 	cdpeq	2, 1, cr0, cr12, cr0, {0}
    1d58:	00000086 	andeq	r0, r0, r6, lsl #1
    1d5c:	006b0407 	rsbeq	r0, fp, r7, lsl #8
    1d60:	25040000 	strcs	r0, [r4, #-0]
    1d64:	9b000000 	blls	1d6c <__code_start__-0x6294>
    1d68:	05000000 	streq	r0, [r0, #-0]
    1d6c:	0000009b 	muleq	r0, fp, r0
    1d70:	a8040700 	stmdage	r4, {r8, r9, sl}
    1d74:	03000000 	movweq	r0, #0
    1d78:	00eb0801 	rsceq	r0, fp, r1, lsl #16
    1d7c:	a1080000 	mrsge	r0, (UNDEF: 8)
    1d80:	06000000 	streq	r0, [r0], -r0
    1d84:	0000072a 	andeq	r0, r0, sl, lsr #14
    1d88:	b90e2102 	stmdblt	lr, {r1, r8, sp}
    1d8c:	07000000 	streq	r0, [r0, -r0]
    1d90:	00008c04 	andeq	r8, r0, r4, lsl #24
    1d94:	05570900 	ldrbeq	r0, [r7, #-2304]	; 0xfffff700
    1d98:	03080000 	movweq	r0, #32768	; 0x8000
    1d9c:	00ec0719 	rsceq	r0, ip, r9, lsl r7
    1da0:	640a0000 	strvs	r0, [sl], #-0
    1da4:	101a0300 	andsne	r0, sl, r0, lsl #6
    1da8:	000000ec 	andeq	r0, r0, ip, ror #1
    1dac:	0300700a 	movweq	r7, #10
    1db0:	00f30f1b 	rscseq	r0, r3, fp, lsl pc
    1db4:	660a0000 	strvs	r0, [sl], -r0
    1db8:	1c030070 	stcne	0, cr0, [r3], {112}	; 0x70
    1dbc:	0000f610 	andeq	pc, r0, r0, lsl r6	; <UNPREDICTABLE>
    1dc0:	08030000 	stmdaeq	r3, {}	; <UNPREDICTABLE>
    1dc4:	00037204 	andeq	r7, r3, r4, lsl #4
    1dc8:	0c040b00 			; <UNDEFINED> instruction: 0x0c040b00
    1dcc:	00f50407 	rscseq	r0, r5, r7, lsl #8
    1dd0:	080d0000 	stmdaeq	sp, {}	; <UNPREDICTABLE>
    1dd4:	20022003 	andcs	r2, r2, r3
    1dd8:	0e000001 	cdpeq	0, 0, cr0, cr0, cr1, {0}
    1ddc:	00727470 	rsbseq	r7, r2, r0, ror r4
    1de0:	42152103 	andsmi	r2, r5, #-1073741824	; 0xc0000000
    1de4:	00000001 	andeq	r0, r0, r1
    1de8:	00058f0f 	andeq	r8, r5, pc, lsl #30
    1dec:	10220300 	eorne	r0, r2, r0, lsl #6
    1df0:	0000002c 	andeq	r0, r0, ip, lsr #32
    1df4:	4a090004 	bmi	241e0c <__bss_end__+0x237004>
    1df8:	08000005 	stmdaeq	r0, {r0, r2}
    1dfc:	420f1f03 	andmi	r1, pc, #3, 30
    1e00:	0a000001 	beq	1e0c <__code_start__-0x61f4>
    1e04:	23030073 	movwcs	r0, #12403	; 0x3073
    1e08:	0000fc06 	andeq	pc, r0, r6, lsl #24
    1e0c:	00780a00 	rsbseq	r0, r8, r0, lsl #20
    1e10:	bf102403 	svclt	0x00102403
    1e14:	00000000 	andeq	r0, r0, r0
    1e18:	01200407 			; <UNDEFINED> instruction: 0x01200407
    1e1c:	94100000 	ldrls	r0, [r0], #-0
    1e20:	03000005 	movweq	r0, #5
    1e24:	01200325 			; <UNDEFINED> instruction: 0x01200325
    1e28:	7e110000 	cdpvc	0, 1, cr0, cr1, cr0, {0}
    1e2c:	01000005 	tsteq	r0, r5
    1e30:	01480f06 	cmpeq	r8, r6, lsl #30
    1e34:	03050000 	movweq	r0, #20480	; 0x5000
    1e38:	0000a9f8 	strdeq	sl, [r0], -r8
    1e3c:	00056511 	andeq	r6, r5, r1, lsl r5
    1e40:	10070100 	andne	r0, r7, r0, lsl #2
    1e44:	00000178 	andeq	r0, r0, r8, ror r1
    1e48:	a9f00305 	ldmibge	r0!, {r0, r2, r8, r9}^
    1e4c:	04070000 	streq	r0, [r7], #-0
    1e50:	00000148 	andeq	r0, r0, r8, asr #2
    1e54:	00055d12 	andeq	r5, r5, r2, lsl sp
    1e58:	06460100 	strbeq	r0, [r6], -r0, lsl #2
    1e5c:	00008c70 	andeq	r8, r0, r0, ror ip
    1e60:	000000bc 	strheq	r0, [r0], -ip
    1e64:	01c89c01 	biceq	r9, r8, r1, lsl #24
    1e68:	70130000 	andsvc	r0, r3, r0
    1e6c:	01007274 	tsteq	r0, r4, ror r2
    1e70:	00f31446 	rscseq	r1, r3, r6, asr #8
    1e74:	50010000 	andpl	r0, r1, r0
    1e78:	00706214 	rsbseq	r6, r0, r4, lsl r2
    1e7c:	780a4701 	stmdavc	sl, {r0, r8, r9, sl, lr}
    1e80:	0e000001 	cdpeq	0, 0, cr0, cr0, cr1, {0}
    1e84:	0600000b 	streq	r0, [r0], -fp
    1e88:	1400000b 	strne	r0, [r0], #-11
    1e8c:	47010070 	smlsdxmi	r1, r0, r0, r0
    1e90:	0001780f 	andeq	r7, r1, pc, lsl #16
    1e94:	000b4a00 	andeq	r4, fp, r0, lsl #20
    1e98:	000b4600 	andeq	r4, fp, r0, lsl #12
    1e9c:	b9150000 	ldmdblt	r5, {}	; <UNPREDICTABLE>
    1ea0:	01000003 	tsteq	r0, r3
    1ea4:	00f30720 	rscseq	r0, r3, r0, lsr #14
    1ea8:	8d700000 	ldclhi	0, cr0, [r0, #-0]
    1eac:	00ac0000 	adceq	r0, ip, r0
    1eb0:	9c010000 	stcls	0, cr0, [r1], {-0}
    1eb4:	00000257 	andeq	r0, r0, r7, asr r2
    1eb8:	0003b216 	andeq	fp, r3, r6, lsl r2
    1ebc:	1a200100 	bne	8022c4 <__bss_end__+0x7f74bc>
    1ec0:	0000002c 	andeq	r0, r0, ip, lsr #32
    1ec4:	00000b70 	andeq	r0, r0, r0, ror fp
    1ec8:	00000b68 	andeq	r0, r0, r8, ror #22
    1ecc:	01007014 	tsteq	r0, r4, lsl r0
    1ed0:	01780a21 	cmneq	r8, r1, lsr #20
    1ed4:	0bb80000 	bleq	fee01edc <__bss_end__+0xfedf70d4>
    1ed8:	0baa0000 	bleq	fea81ee0 <__bss_end__+0xfea770d8>
    1edc:	51170000 	tstpl	r7, r0
    1ee0:	01000005 	tsteq	r0, r5
    1ee4:	01780e21 	cmneq	r8, r1, lsr #28
    1ee8:	0c1a0000 	ldceq	0, cr0, [sl], {-0}
    1eec:	0c100000 	ldceq	0, cr0, [r0], {-0}
    1ef0:	6b170000 	blvs	5c1ef8 <__bss_end__+0x5b70f0>
    1ef4:	01000005 	tsteq	r0, r5
    1ef8:	002c0b22 	eoreq	r0, ip, r2, lsr #22
    1efc:	0c600000 	stcleq	0, cr0, [r0], #-0
    1f00:	0c5e0000 	mraeq	r0, lr, acc0
    1f04:	83180000 	tsthi	r8, #0, 0
    1f08:	01000005 	tsteq	r0, r5
    1f0c:	01780a23 	cmneq	r8, r3, lsr #20
    1f10:	02460000 	subeq	r0, r6, #0, 0
    1f14:	2c050000 	stccs	0, cr0, [r5], {-0}
    1f18:	00000000 	andeq	r0, r0, r0
    1f1c:	008e0c19 	addeq	r0, lr, r9, lsl ip
    1f20:	00025700 	andeq	r5, r2, r0, lsl #14
    1f24:	50011a00 	andpl	r1, r1, r0, lsl #20
    1f28:	00007402 	andeq	r7, r0, r2, lsl #8
    1f2c:	05831b00 	streq	r1, [r3, #2816]	; 0xb00
    1f30:	0c010000 	stceq	0, cr0, [r1], {-0}
    1f34:	00017810 	andeq	r7, r1, r0, lsl r8
    1f38:	008d2c00 	addeq	r2, sp, r0, lsl #24
    1f3c:	00004400 	andeq	r4, r0, r0, lsl #8
    1f40:	cb9c0100 	blgt	fe702348 <__bss_end__+0xfe6f7540>
    1f44:	1c000002 	stcne	0, cr0, [r0], {2}
    1f48:	00636e69 	rsbeq	r6, r3, r9, ror #28
    1f4c:	2c250c01 	stccs	12, cr0, [r5], #-4
    1f50:	77000000 	strvc	r0, [r0, -r0]
    1f54:	7300000c 	movwvc	r0, #12
    1f58:	1400000c 	strne	r0, [r0], #-12
    1f5c:	01007063 	tsteq	r0, r3, rrx
    1f60:	02cb080d 	sbceq	r0, fp, #851968	; 0xd0000
    1f64:	0c9b0000 	ldceq	0, cr0, [fp], {0}
    1f68:	0c950000 	ldceq	0, cr0, [r5], {0}
    1f6c:	75140000 	ldrvc	r0, [r4, #-0]
    1f70:	0e010070 	mcreq	0, 0, r0, cr1, cr0, {3}
    1f74:	0001780a 	andeq	r7, r1, sl, lsl #16
    1f78:	000cca00 	andeq	ip, ip, r0, lsl #20
    1f7c:	000cc600 	andeq	ip, ip, r0, lsl #12
    1f80:	8d441d00 	stclhi	13, cr1, [r4, #-0]
    1f84:	02d10000 	sbcseq	r0, r1, #0, 0
    1f88:	02c10000 	sbceq	r0, r1, #0, 0
    1f8c:	011a0000 	tsteq	sl, r0
    1f90:	00740450 	rsbseq	r0, r4, r0, asr r4
    1f94:	1e002433 	cfmvdhrne	mvd0, r2
    1f98:	00008d58 	andeq	r8, r0, r8, asr sp
    1f9c:	0000017e 	andeq	r0, r0, lr, ror r1
    1fa0:	a1040700 	tstge	r4, r0, lsl #14
    1fa4:	1f000000 	svcne	0x00000000
    1fa8:	00000489 	andeq	r0, r0, r9, lsl #9
    1fac:	00000489 	andeq	r0, r0, r9, lsl #9
    1fb0:	000b2803 	andeq	r2, fp, r3, lsl #16
    1fb4:	00000183 	andeq	r0, r0, r3, lsl #3
    1fb8:	09150004 	ldmdbeq	r5, {r2}
    1fbc:	01040000 	mrseq	r0, (UNDEF: 4)
    1fc0:	0000059b 	muleq	r0, fp, r5
    1fc4:	0006b40c 	andeq	fp, r6, ip, lsl #8
    1fc8:	00066c00 	andeq	r6, r6, r0, lsl #24
    1fcc:	008e1c00 	addeq	r1, lr, r0, lsl #24
    1fd0:	00003400 	andeq	r3, r0, r0, lsl #8
    1fd4:	000f1d00 	andeq	r1, pc, r0, lsl #26
    1fd8:	05040200 	streq	r0, [r4, #-512]	; 0xfffffe00
    1fdc:	00746e69 	rsbseq	r6, r4, r9, ror #28
    1fe0:	00066503 	andeq	r6, r6, r3, lsl #10
    1fe4:	17d10300 	ldrbne	r0, [r1, r0, lsl #6]
    1fe8:	00000038 	andeq	r0, r0, r8, lsr r0
    1fec:	0c070404 	cfstrseq	mvf0, [r7], {4}
    1ff0:	04000001 	streq	r0, [r0], #-1
    1ff4:	00e40601 	rsceq	r0, r4, r1, lsl #12
    1ff8:	02040000 	andeq	r0, r4, #0, 0
    1ffc:	00004005 	andeq	r4, r0, r5
    2000:	05040400 	streq	r0, [r4, #-1024]	; 0xfffffc00
    2004:	00000082 	andeq	r0, r0, r2, lsl #1
    2008:	7d050804 	stcvc	8, cr0, [r5, #-16]
    200c:	04000000 	streq	r0, [r0], #-0
    2010:	00e20801 	rsceq	r0, r2, r1, lsl #16
    2014:	5b050000 	blpl	14201c <__bss_end__+0x137214>
    2018:	04000000 	streq	r0, [r0], #-0
    201c:	01330702 	teqeq	r3, r2, lsl #14
    2020:	04040000 	streq	r0, [r4], #-0
    2024:	00010707 	andeq	r0, r1, r7, lsl #14
    2028:	07080400 	streq	r0, [r8, -r0, lsl #8]
    202c:	00000102 	andeq	r0, r0, r2, lsl #2
    2030:	00002506 	andeq	r2, r0, r6, lsl #10
    2034:	00008b00 	andeq	r8, r0, r0, lsl #22
    2038:	00250700 	eoreq	r0, r5, r0, lsl #14
    203c:	08000000 	stmdaeq	r0, {}	; <UNPREDICTABLE>
    2040:	0000004a 	andeq	r0, r0, sl, asr #32
    2044:	970e1c02 	strls	r1, [lr, -r2, lsl #24]
    2048:	09000000 	stmdbeq	r0, {}	; <UNPREDICTABLE>
    204c:	00007c04 	andeq	r7, r0, r4, lsl #24
    2050:	00250600 	eoreq	r0, r5, r0, lsl #12
    2054:	00ac0000 	adceq	r0, ip, r0
    2058:	ac070000 	stcge	0, cr0, [r7], {-0}
    205c:	00000000 	andeq	r0, r0, r0
    2060:	00b90409 	adcseq	r0, r9, r9, lsl #8
    2064:	01040000 	mrseq	r0, (UNDEF: 4)
    2068:	0000eb08 	andeq	lr, r0, r8, lsl #22
    206c:	00b20500 	adcseq	r0, r2, r0, lsl #10
    2070:	2a080000 	bcs	202078 <__bss_end__+0x1f7270>
    2074:	02000007 	andeq	r0, r0, #7, 0
    2078:	00ca0e21 	sbceq	r0, sl, r1, lsr #28
    207c:	04090000 	streq	r0, [r9], #-0
    2080:	0000009d 	muleq	r0, sp, r0
    2084:	00034b0a 	andeq	r4, r3, sl, lsl #22
    2088:	05030100 	streq	r0, [r3, #-256]	; 0xffffff00
    208c:	00000025 	andeq	r0, r0, r5, lsr #32
    2090:	00008e1c 	andeq	r8, r0, ip, lsl lr
    2094:	00000034 	andeq	r0, r0, r4, lsr r0
    2098:	01799c01 	cmneq	r9, r1, lsl #24
    209c:	5f0b0000 	svcpl	0x000b0000
    20a0:	01003173 	tsteq	r0, r3, ror r1
    20a4:	01791803 	cmneq	r9, r3, lsl #16
    20a8:	0cee0000 	stcleq	0, cr0, [lr]
    20ac:	0cea0000 	stcleq	0, cr0, [sl]
    20b0:	5f0c0000 	svcpl	0x000c0000
    20b4:	01003273 	tsteq	r0, r3, ror r2
    20b8:	01792903 	cmneq	r9, r3, lsl #18
    20bc:	51010000 	mrspl	r0, (UNDEF: 1)
    20c0:	0003b20d 	andeq	fp, r3, sp, lsl #4
    20c4:	35030100 	strcc	r0, [r3, #-256]	; 0xffffff00
    20c8:	0000002c 	andeq	r0, r0, ip, lsr #32
    20cc:	730e5201 	movwvc	r5, #57857	; 0xe201
    20d0:	04010031 	streq	r0, [r1], #-49	; 0xffffffcf
    20d4:	0001801a 	andeq	r8, r1, sl, lsl r0
    20d8:	000d1000 	andeq	r1, sp, r0
    20dc:	000d0c00 	andeq	r0, sp, r0, lsl #24
    20e0:	32730e00 	rsbscc	r0, r3, #0, 28
    20e4:	25040100 	strcs	r0, [r4, #-256]	; 0xffffff00
    20e8:	00000180 	andeq	r0, r0, r0, lsl #3
    20ec:	00000d30 	andeq	r0, r0, r0, lsr sp
    20f0:	00000d2e 	andeq	r0, r0, lr, lsr #26
    20f4:	008e240f 	addeq	r2, lr, pc, lsl #8
    20f8:	00002400 	andeq	r2, r0, r0, lsl #8
    20fc:	00690e00 	rsbeq	r0, r9, r0, lsl #28
    2100:	250d0601 	strcs	r0, [sp, #-1537]	; 0xfffff9ff
    2104:	47000000 	strmi	r0, [r0, -r0]
    2108:	4300000d 	movwmi	r0, #13
    210c:	0f00000d 	svceq	0x0000000d
    2110:	00008e30 	andeq	r8, r0, r0, lsr lr
    2114:	00000010 	andeq	r0, r0, r0, lsl r0
    2118:	0100760e 	tsteq	r0, lr, lsl #12
    211c:	00250d07 	eoreq	r0, r5, r7, lsl #26
    2120:	0d6a0000 	stcleq	0, cr0, [sl, #-0]
    2124:	0d660000 	stcleq	0, cr0, [r6, #-0]
    2128:	00000000 	andeq	r0, r0, r0
    212c:	7f040900 	svcvc	0x00040900
    2130:	10000001 	andne	r0, r0, r1
    2134:	00620409 	rsbeq	r0, r2, r9, lsl #8
    2138:	fa000000 	blx	2140 <__code_start__-0x5ec0>
    213c:	04000001 	streq	r0, [r0], #-1
    2140:	0009f900 	andeq	pc, r9, r0, lsl #18
    2144:	9b010400 	blls	4314c <__bss_end__+0x38344>
    2148:	0c000005 	stceq	0, cr0, [r0], {5}
    214c:	000006c4 	andeq	r0, r0, r4, asr #13
    2150:	0000066c 	andeq	r0, r0, ip, ror #12
    2154:	00008e50 	andeq	r8, r0, r0, asr lr
    2158:	00000060 	andeq	r0, r0, r0, rrx
    215c:	0000106c 	andeq	r1, r0, ip, rrx
    2160:	69050402 	stmdbvs	r5, {r1, sl}
    2164:	0300746e 	movweq	r7, #1134	; 0x46e
    2168:	00000665 	andeq	r0, r0, r5, ror #12
    216c:	3817d103 	ldmdacc	r7, {r0, r1, r8, ip, lr, pc}
    2170:	04000000 	streq	r0, [r0], #-0
    2174:	010c0704 	tsteq	ip, r4, lsl #14
    2178:	38050000 	stmdacc	r5, {}	; <UNPREDICTABLE>
    217c:	04000000 	streq	r0, [r0], #-0
    2180:	00e40601 	rsceq	r0, r4, r1, lsl #12
    2184:	02040000 	andeq	r0, r4, #0, 0
    2188:	00004005 	andeq	r4, r0, r5
    218c:	05040400 	streq	r0, [r4, #-1024]	; 0xfffffc00
    2190:	00000082 	andeq	r0, r0, r2, lsl #1
    2194:	7d050804 	stcvc	8, cr0, [r5, #-16]
    2198:	04000000 	streq	r0, [r0], #-0
    219c:	00e20801 	rsceq	r0, r2, r1, lsl #16
    21a0:	60050000 	andvs	r0, r5, r0
    21a4:	04000000 	streq	r0, [r0], #-0
    21a8:	01330702 	teqeq	r3, r2, lsl #14
    21ac:	04040000 	streq	r0, [r4], #-0
    21b0:	00010707 	andeq	r0, r1, r7, lsl #14
    21b4:	07080400 	streq	r0, [r8, -r0, lsl #8]
    21b8:	00000102 	andeq	r0, r0, r2, lsl #2
    21bc:	00002506 	andeq	r2, r0, r6, lsl #10
    21c0:	00009000 	andeq	r9, r0, r0
    21c4:	00250700 	eoreq	r0, r5, r0, lsl #14
    21c8:	08000000 	stmdaeq	r0, {}	; <UNPREDICTABLE>
    21cc:	0000004a 	andeq	r0, r0, sl, asr #32
    21d0:	9c0e1c02 	stcls	12, cr1, [lr], {2}
    21d4:	09000000 	stmdbeq	r0, {}	; <UNPREDICTABLE>
    21d8:	00008104 	andeq	r8, r0, r4, lsl #2
    21dc:	00250600 	eoreq	r0, r5, r0, lsl #12
    21e0:	00b10000 	adcseq	r0, r1, r0
    21e4:	b1070000 	mrslt	r0, (UNDEF: 7)
    21e8:	00000000 	andeq	r0, r0, r0
    21ec:	00be0409 	adcseq	r0, lr, r9, lsl #8
    21f0:	01040000 	mrseq	r0, (UNDEF: 4)
    21f4:	0000eb08 	andeq	lr, r0, r8, lsl #22
    21f8:	00b70500 	adcseq	r0, r7, r0, lsl #10
    21fc:	2a080000 	bcs	202204 <__bss_end__+0x1f73fc>
    2200:	02000007 	andeq	r0, r0, #7, 0
    2204:	00cf0e21 	sbceq	r0, pc, r1, lsr #28
    2208:	04090000 	streq	r0, [r9], #-0
    220c:	000000a2 	andeq	r0, r0, r2, lsr #1
    2210:	0002dd0a 	andeq	sp, r2, sl, lsl #26
    2214:	07060100 	streq	r0, [r6, -r0, lsl #2]
    2218:	000001c7 	andeq	r0, r0, r7, asr #3
    221c:	00008e50 	andeq	r8, r0, r0, asr lr
    2220:	00000060 	andeq	r0, r0, r0, rrx
    2224:	01c79c01 	biceq	r9, r7, r1, lsl #24
    2228:	640b0000 	strvs	r0, [fp], #-0
    222c:	01007473 	tsteq	r0, r3, ror r4
    2230:	01c71406 	biceq	r1, r7, r6, lsl #8
    2234:	50010000 	andpl	r0, r1, r0
    2238:	6372730b 	cmnvs	r2, #738197504	; 0x2c000000
    223c:	25060100 	strcs	r0, [r6, #-256]	; 0xffffff00
    2240:	000001c9 	andeq	r0, r0, r9, asr #3
    2244:	b20c5101 	andlt	r5, ip, #1073741824	; 0x40000000
    2248:	01000003 	tsteq	r0, r3
    224c:	002c3106 	eoreq	r3, ip, r6, lsl #2
    2250:	0d930000 	ldceq	0, cr0, [r3]
    2254:	0d8d0000 	stceq	0, cr0, [sp]
    2258:	ac0d0000 	stcge	0, cr0, [sp], {-0}
    225c:	e0000000 	and	r0, r0, r0
    2260:	dd000001 	stcle	0, cr0, [r0, #-4]
    2264:	0e000002 	cdpeq	0, 0, cr0, cr0, cr2, {0}
    2268:	00008e68 	andeq	r8, r0, r8, ror #28
    226c:	00000020 	andeq	r0, r0, r0, lsr #32
    2270:	0000018c 	andeq	r0, r0, ip, lsl #3
    2274:	01006e0f 	tsteq	r0, pc, lsl #28
    2278:	0038120d 	eorseq	r1, r8, sp, lsl #4
    227c:	0dc10000 	stcleq	0, cr0, [r1]
    2280:	0dbf0000 	ldceq	0, cr0, [pc]	; 2288 <__code_start__-0x5d78>
    2284:	640f0000 	strvs	r0, [pc], #-0	; 228c <__code_start__-0x5d74>
    2288:	130e0100 	movwne	r0, #57600	; 0xe100
    228c:	000001e5 	andeq	r0, r0, r5, ror #3
    2290:	00000dd6 	ldrdeq	r0, [r0], -r6
    2294:	00000dd4 	ldrdeq	r0, [r0], -r4
    2298:	0100730f 	tsteq	r0, pc, lsl #6
    229c:	01eb190f 	mvneq	r1, pc, lsl #18
    22a0:	0deb0000 	stcleq	0, cr0, [fp]
    22a4:	0de90000 	stcleq	0, cr0, [r9]
    22a8:	6c100000 	ldcvs	0, cr0, [r0], {-0}
    22ac:	1c00008e 	stcne	0, cr0, [r0], {142}	; 0x8e
    22b0:	0f000000 	svceq	0x00000000
    22b4:	11010069 	tstne	r1, r9, rrx
    22b8:	00003816 	andeq	r3, r0, r6, lsl r8
    22bc:	000e0200 	andeq	r0, lr, r0, lsl #4
    22c0:	000dfe00 	andeq	pc, sp, r0, lsl #28
    22c4:	10000000 	andne	r0, r0, r0
    22c8:	00008e88 	andeq	r8, r0, r8, lsl #29
    22cc:	00000018 	andeq	r0, r0, r8, lsl r0
    22d0:	01006411 	tsteq	r0, r1, lsl r4
    22d4:	01f11814 	mvnseq	r1, r4, lsl r8
    22d8:	73110000 	tstvc	r1, #0, 0
    22dc:	1e150100 	mufnes	f0, f5, f0
    22e0:	000001f7 	strdeq	r0, [r0], -r7
    22e4:	008e8810 	addeq	r8, lr, r0, lsl r8
    22e8:	00001800 	andeq	r1, r0, r0, lsl #16
    22ec:	00690f00 	rsbeq	r0, r9, r0, lsl #30
    22f0:	38161601 	ldmdacc	r6, {r0, r9, sl, ip}
    22f4:	23000000 	movwcs	r0, #0
    22f8:	2100000e 	tstcs	r0, lr
    22fc:	0000000e 	andeq	r0, r0, lr
    2300:	04120000 	ldreq	r0, [r2], #-0
    2304:	01cf0409 	biceq	r0, pc, r9, lsl #8
    2308:	14130000 	ldrne	r0, [r3], #-0
    230c:	000000be 	strheq	r0, [r0], -lr
    2310:	000001e0 	andeq	r0, r0, r0, ror #3
    2314:	00003815 	andeq	r3, r0, r5, lsl r8
    2318:	05000600 	streq	r0, [r0, #-1536]	; 0xfffffa00
    231c:	000001d0 	ldrdeq	r0, [r0], -r0	; <UNPREDICTABLE>
    2320:	00380409 	eorseq	r0, r8, r9, lsl #8
    2324:	04090000 	streq	r0, [r9], #-0
    2328:	0000003f 	andeq	r0, r0, pc, lsr r0
    232c:	00600409 	rsbeq	r0, r0, r9, lsl #8
    2330:	04090000 	streq	r0, [r9], #-0
    2334:	00000067 	andeq	r0, r0, r7, rrx
    2338:	00013a00 	andeq	r3, r1, r0, lsl #20
    233c:	0c000400 	cfstrseq	mvf0, [r0], {-0}
    2340:	0400000b 	streq	r0, [r0], #-11
    2344:	00059b01 	andeq	r9, r5, r1, lsl #22
    2348:	06d40c00 	ldrbeq	r0, [r4], r0, lsl #24
    234c:	066c0000 	strbteq	r0, [ip], -r0
    2350:	8eb00000 	cdphi	0, 11, cr0, cr0, cr0, {0}
    2354:	00180000 	andseq	r0, r8, r0
    2358:	123b0000 	eorsne	r0, fp, #0, 0
    235c:	04020000 	streq	r0, [r2], #-0
    2360:	746e6905 	strbtvc	r6, [lr], #-2309	; 0xfffff6fb
    2364:	06650300 	strbteq	r0, [r5], -r0, lsl #6
    2368:	d1030000 	mrsle	r0, (UNDEF: 3)
    236c:	00003817 	andeq	r3, r0, r7, lsl r8
    2370:	07040400 	streq	r0, [r4, -r0, lsl #8]
    2374:	0000010c 	andeq	r0, r0, ip, lsl #2
    2378:	e4060104 	str	r0, [r6], #-260	; 0xfffffefc
    237c:	04000000 	streq	r0, [r0], #-0
    2380:	00400502 	subeq	r0, r0, r2, lsl #10
    2384:	04040000 	streq	r0, [r4], #-0
    2388:	00008205 	andeq	r8, r0, r5, lsl #4
    238c:	05080400 	streq	r0, [r8, #-1024]	; 0xfffffc00
    2390:	0000007d 	andeq	r0, r0, sp, ror r0
    2394:	e2080104 	and	r0, r8, #1
    2398:	04000000 	streq	r0, [r0], #-0
    239c:	01330702 	teqeq	r3, r2, lsl #14
    23a0:	04040000 	streq	r0, [r4], #-0
    23a4:	00010707 	andeq	r0, r1, r7, lsl #14
    23a8:	07080400 	streq	r0, [r8, -r0, lsl #8]
    23ac:	00000102 	andeq	r0, r0, r2, lsl #2
    23b0:	00002505 	andeq	r2, r0, r5, lsl #10
    23b4:	00008600 	andeq	r8, r0, r0, lsl #12
    23b8:	00250600 	eoreq	r0, r5, r0, lsl #12
    23bc:	07000000 	streq	r0, [r0, -r0]
    23c0:	0000004a 	andeq	r0, r0, sl, asr #32
    23c4:	920e1c02 	andls	r1, lr, #512	; 0x200
    23c8:	08000000 	stmdaeq	r0, {}	; <UNPREDICTABLE>
    23cc:	00007704 	andeq	r7, r0, r4, lsl #14
    23d0:	00250500 	eoreq	r0, r5, r0, lsl #10
    23d4:	00a70000 	adceq	r0, r7, r0
    23d8:	a7060000 	strge	r0, [r6, -r0]
    23dc:	00000000 	andeq	r0, r0, r0
    23e0:	00b40408 	adcseq	r0, r4, r8, lsl #8
    23e4:	01040000 	mrseq	r0, (UNDEF: 4)
    23e8:	0000eb08 	andeq	lr, r0, r8, lsl #22
    23ec:	00ad0900 	adceq	r0, sp, r0, lsl #18
    23f0:	2a070000 	bcs	1c23f8 <__bss_end__+0x1b75f0>
    23f4:	02000007 	andeq	r0, r0, #7, 0
    23f8:	00c50e21 	sbceq	r0, r5, r1, lsr #28
    23fc:	04080000 	streq	r0, [r8], #-0
    2400:	00000098 	muleq	r0, r8, r0
    2404:	00026d0a 	andeq	r6, r2, sl, lsl #26
    2408:	07040100 	streq	r0, [r4, -r0, lsl #2]
    240c:	00000135 	andeq	r0, r0, r5, lsr r1
    2410:	00008eb0 			; <UNDEFINED> instruction: 0x00008eb0
    2414:	00000018 	andeq	r0, r0, r8, lsl r0
    2418:	01359c01 	teqeq	r5, r1, lsl #24
    241c:	5f0b0000 	svcpl	0x000b0000
    2420:	04010070 	streq	r0, [r1], #-112	; 0xffffff90
    2424:	00013514 	andeq	r3, r1, r4, lsl r5
    2428:	0b500100 	bleq	1402830 <__bss_end__+0x13f7a28>
    242c:	04010063 	streq	r0, [r1], #-99	; 0xffffff9d
    2430:	0000251c 	andeq	r2, r0, ip, lsl r5
    2434:	0c510100 	ldfeqe	f0, [r1], {-0}
    2438:	0401006e 	streq	r0, [r1], #-110	; 0xffffff92
    243c:	00002c26 	andeq	r2, r0, r6, lsr #24
    2440:	000e3a00 	andeq	r3, lr, r0, lsl #20
    2444:	000e3600 	andeq	r3, lr, r0, lsl #12
    2448:	00700d00 	rsbseq	r0, r0, r0, lsl #26
    244c:	370b0501 	strcc	r0, [fp, -r1, lsl #10]
    2450:	63000001 	movwvs	r0, #1
    2454:	5b00000e 	blpl	2494 <__code_start__-0x5b6c>
    2458:	0d00000e 	stceq	0, cr0, [r0, #-56]	; 0xffffffc8
    245c:	05010065 	streq	r0, [r1, #-101]	; 0xffffff9b
    2460:	00013714 	andeq	r3, r1, r4, lsl r7
    2464:	000e9b00 	andeq	r9, lr, r0, lsl #22
    2468:	000e9900 	andeq	r9, lr, r0, lsl #18
    246c:	040e0000 	streq	r0, [lr], #-0
    2470:	00ad0408 	adceq	r0, sp, r8, lsl #8
    2474:	9d000000 	stcls	0, cr0, [r0, #-0]
    2478:	04000001 	streq	r0, [r0], #-1
    247c:	000bd800 	andeq	sp, fp, r0, lsl #16
    2480:	9b010400 	blls	43488 <__bss_end__+0x38680>
    2484:	0c000005 	stceq	0, cr0, [r0], {5}
    2488:	00000711 	andeq	r0, r0, r1, lsl r7
    248c:	0000066c 	andeq	r0, r0, ip, ror #12
    2490:	00008ec8 	andeq	r8, r0, r8, asr #29
    2494:	00000058 	andeq	r0, r0, r8, asr r0
    2498:	00001353 	andeq	r1, r0, r3, asr r3
    249c:	0006f302 	andeq	pc, r6, r2, lsl #6
    24a0:	1b280200 	blne	a02ca8 <__bss_end__+0x9f7ea0>
    24a4:	00000031 	andeq	r0, r0, r1, lsr r0
    24a8:	00070203 	andeq	r0, r7, r3, lsl #4
    24ac:	00040400 	andeq	r0, r4, r0, lsl #8
    24b0:	00000048 	andeq	r0, r0, r8, asr #32
    24b4:	00070c04 	andeq	r0, r7, r4, lsl #24
    24b8:	00004800 	andeq	r4, r0, r0, lsl #16
    24bc:	05000000 	streq	r0, [r0, #-0]
    24c0:	07040204 	streq	r0, [r4, -r4, lsl #4]
    24c4:	63020000 	movwvs	r0, #8192	; 0x2000
    24c8:	00002518 	andeq	r2, r0, r8, lsl r5
    24cc:	05040600 	streq	r0, [r4, #-1536]	; 0xfffffa00
    24d0:	00746e69 	rsbseq	r6, r4, r9, ror #28
    24d4:	0c070407 	cfstrseq	mvf0, [r7], {7}
    24d8:	07000001 	streq	r0, [r0, -r1]
    24dc:	00e40601 	rsceq	r0, r4, r1, lsl #12
    24e0:	02070000 	andeq	r0, r7, #0, 0
    24e4:	00004005 	andeq	r4, r0, r5
    24e8:	05040700 	streq	r0, [r4, #-1792]	; 0xfffff900
    24ec:	00000082 	andeq	r0, r0, r2, lsl #1
    24f0:	7d050807 	stcvc	8, cr0, [r5, #-28]	; 0xffffffe4
    24f4:	07000000 	streq	r0, [r0, -r0]
    24f8:	00e20801 	rsceq	r0, r2, r1, lsl #16
    24fc:	02070000 	andeq	r0, r7, #0, 0
    2500:	00013307 	andeq	r3, r1, r7, lsl #6
    2504:	07040700 	streq	r0, [r4, -r0, lsl #14]
    2508:	00000107 	andeq	r0, r0, r7, lsl #2
    250c:	02070807 	andeq	r0, r7, #458752	; 0x70000
    2510:	08000001 	stmdaeq	r0, {r0}
    2514:	00000056 	andeq	r0, r0, r6, asr r0
    2518:	000000ab 	andeq	r0, r0, fp, lsr #1
    251c:	00005609 	andeq	r5, r0, r9, lsl #12
    2520:	4a0a0000 	bmi	282528 <__bss_end__+0x277720>
    2524:	03000000 	movweq	r0, #0
    2528:	00b70e1c 	adcseq	r0, r7, ip, lsl lr
    252c:	040b0000 	streq	r0, [fp], #-0
    2530:	0000009c 	muleq	r0, ip, r0
    2534:	00005608 	andeq	r5, r0, r8, lsl #12
    2538:	0000cc00 	andeq	ip, r0, r0, lsl #24
    253c:	00cc0900 	sbceq	r0, ip, r0, lsl #18
    2540:	0b000000 	bleq	2548 <__code_start__-0x5ab8>
    2544:	0000d904 	andeq	sp, r0, r4, lsl #18
    2548:	08010700 	stmdaeq	r1, {r8, r9, sl}
    254c:	000000eb 	andeq	r0, r0, fp, ror #1
    2550:	0000d20c 	andeq	sp, r0, ip, lsl #4
    2554:	072a0a00 	streq	r0, [sl, -r0, lsl #20]!
    2558:	21030000 	mrscs	r0, (UNDEF: 3)
    255c:	0000ea0e 	andeq	lr, r0, lr, lsl #20
    2560:	bd040b00 	vstrlt	d0, [r4, #-0]
    2564:	0d000000 	stceq	0, cr0, [r0, #-0]
    2568:	000006ec 	andeq	r0, r0, ip, ror #13
    256c:	56050601 	strpl	r0, [r5], -r1, lsl #12
    2570:	c8000000 	stmdagt	r0, {}	; <UNPREDICTABLE>
    2574:	5800008e 	stmdapl	r0, {r1, r2, r3, r7}
    2578:	01000000 	mrseq	r0, (UNDEF: 0)
    257c:	0001839c 	muleq	r1, ip, r3
    2580:	6d660e00 	stclvs	14, cr0, [r6, #-0]
    2584:	06010074 			; <UNDEFINED> instruction: 0x06010074
    2588:	0000cc18 	andeq	ip, r0, r8, lsl ip
    258c:	70910200 	addsvc	r0, r1, r0, lsl #4
    2590:	7562100f 	strbvc	r1, [r2, #-15]!
    2594:	08010066 	stmdaeq	r1, {r1, r2, r5, r6}
    2598:	00018311 	andeq	r8, r1, r1, lsl r3
    259c:	00030500 	andeq	r0, r3, r0, lsl #10
    25a0:	110000aa 	smlatbne	r0, sl, r0, r0
    25a4:	000006e4 	andeq	r0, r0, r4, ror #13
    25a8:	4a0d0901 	bmi	3449b4 <__bss_end__+0x339bac>
    25ac:	02000000 	andeq	r0, r0, #0, 0
    25b0:	73125c91 	tstvc	r2, #37120	; 0x9100
    25b4:	0c01007a 	stceq	0, cr0, [r1], {122}	; 0x7a
    25b8:	0000560d 	andeq	r5, r0, sp, lsl #12
    25bc:	000eb400 	andeq	fp, lr, r0, lsl #8
    25c0:	000eae00 	andeq	sl, lr, r0, lsl #28
    25c4:	8ef01300 	cdphi	3, 15, cr1, cr0, cr0, {0}
    25c8:	01940000 	orrseq	r0, r4, r0
    25cc:	01760000 	cmneq	r6, r0
    25d0:	01140000 	tsteq	r4, r0
    25d4:	00750250 	rsbseq	r0, r5, r0, asr r2
    25d8:	03510114 	cmpeq	r1, #5
    25dc:	1404000a 	strne	r0, [r4], #-10
    25e0:	91035201 	tstls	r3, r1, lsl #4
    25e4:	01140648 	tsteq	r4, r8, asr #12
    25e8:	4c910253 	lfmmi	f0, 4, [r1], {83}	; 0x53
    25ec:	8f041500 	svchi	0x00041500
    25f0:	01140000 	tsteq	r4, r0
    25f4:	00750250 	rsbseq	r0, r5, r0, asr r2
    25f8:	d2160000 	andsle	r0, r6, #0, 0
    25fc:	94000000 	strls	r0, [r0], #-0
    2600:	17000001 	strne	r0, [r0, -r1]
    2604:	0000005d 	andeq	r0, r0, sp, asr r0
    2608:	180003ff 	stmdane	r0, {r0, r1, r2, r3, r4, r5, r6, r7, r8, r9}
    260c:	000006e9 	andeq	r0, r0, r9, ror #13
    2610:	000006e9 	andeq	r0, r0, r9, ror #13
    2614:	00050205 	andeq	r0, r5, r5, lsl #4
    2618:	000000f3 	strdeq	r0, [r0], -r3
    261c:	0d1a0004 	ldceq	0, cr0, [sl, #-16]
    2620:	01040000 	mrseq	r0, (UNDEF: 4)
    2624:	0000059b 	muleq	r0, fp, r5
    2628:	00072f0c 	andeq	r2, r7, ip, lsl #30
    262c:	00066c00 	andeq	r6, r6, r0, lsl #24
    2630:	008f2000 	addeq	r2, pc, r0
    2634:	00003400 	andeq	r3, r0, r0, lsl #8
    2638:	00148a00 	andseq	r8, r4, r0, lsl #20
    263c:	05040200 	streq	r0, [r4, #-512]	; 0xfffffe00
    2640:	00746e69 	rsbseq	r6, r4, r9, ror #28
    2644:	0c070403 	cfstrseq	mvf0, [r7], {3}
    2648:	03000001 	movweq	r0, #1
    264c:	00e40601 	rsceq	r0, r4, r1, lsl #12
    2650:	02030000 	andeq	r0, r3, #0, 0
    2654:	00004005 	andeq	r4, r0, r5
    2658:	05040300 	streq	r0, [r4, #-768]	; 0xfffffd00
    265c:	00000082 	andeq	r0, r0, r2, lsl #1
    2660:	7d050803 	stcvc	8, cr0, [r5, #-12]
    2664:	03000000 	movweq	r0, #0
    2668:	00e20801 	rsceq	r0, r2, r1, lsl #16
    266c:	02030000 	andeq	r0, r3, #0, 0
    2670:	00013307 	andeq	r3, r1, r7, lsl #6
    2674:	07040300 	streq	r0, [r4, -r0, lsl #6]
    2678:	00000107 	andeq	r0, r0, r7, lsl #2
    267c:	02070803 	andeq	r0, r7, #196608	; 0x30000
    2680:	04000001 	streq	r0, [r0], #-1
    2684:	00000025 	andeq	r0, r0, r5, lsr #32
    2688:	0000007a 	andeq	r0, r0, sl, ror r0
    268c:	00002505 	andeq	r2, r0, r5, lsl #10
    2690:	4a060000 	bmi	182698 <__bss_end__+0x177890>
    2694:	02000000 	andeq	r0, r0, #0, 0
    2698:	00860e1c 	addeq	r0, r6, ip, lsl lr
    269c:	04070000 	streq	r0, [r7], #-0
    26a0:	0000006b 	andeq	r0, r0, fp, rrx
    26a4:	00002504 	andeq	r2, r0, r4, lsl #10
    26a8:	00009b00 	andeq	r9, r0, r0, lsl #22
    26ac:	009b0500 	addseq	r0, fp, r0, lsl #10
    26b0:	07000000 	streq	r0, [r0, -r0]
    26b4:	0000a804 	andeq	sl, r0, r4, lsl #16
    26b8:	08010300 	stmdaeq	r1, {r8, r9}
    26bc:	000000eb 	andeq	r0, r0, fp, ror #1
    26c0:	0000a108 	andeq	sl, r0, r8, lsl #2
    26c4:	072a0600 	streq	r0, [sl, -r0, lsl #12]!
    26c8:	21020000 	mrscs	r0, (UNDEF: 2)
    26cc:	0000b90e 	andeq	fp, r0, lr, lsl #18
    26d0:	8c040700 	stchi	7, cr0, [r4], {-0}
    26d4:	09000000 	stmdbeq	r0, {}	; <UNPREDICTABLE>
    26d8:	000000ad 	andeq	r0, r0, sp, lsr #1
    26dc:	05070c01 	streq	r0, [r7, #-3073]	; 0xfffff3ff
    26e0:	00a9c403 	adceq	ip, r9, r3, lsl #8
    26e4:	07210a00 	streq	r0, [r1, -r0, lsl #20]!
    26e8:	04010000 	streq	r0, [r1], #-0
    26ec:	00002505 	andeq	r2, r0, r5, lsl #10
    26f0:	008f2000 	addeq	r2, pc, r0
    26f4:	00003400 	andeq	r3, r0, r0, lsl #8
    26f8:	0b9c0100 	bleq	fe702b00 <__bss_end__+0xfe6f7cf8>
    26fc:	04010070 	streq	r0, [r1], #-112	; 0xffffff90
    2700:	00009b1f 	andeq	r9, r0, pc, lsl fp
    2704:	000ee100 	andeq	lr, lr, r0, lsl #2
    2708:	000edd00 	andeq	sp, lr, r0, lsl #26
    270c:	d7000000 	strle	r0, [r0, -r0]
    2710:	0400000a 	streq	r0, [r0], #-10
    2714:	000db800 	andeq	fp, sp, r0, lsl #16
    2718:	9b010400 	blls	43720 <__bss_end__+0x38918>
    271c:	0c000005 	stceq	0, cr0, [r0], {5}
    2720:	0000074e 	andeq	r0, r0, lr, asr #14
    2724:	0000066c 	andeq	r0, r0, ip, ror #12
    2728:	00008f54 	andeq	r8, r0, r4, asr pc
    272c:	00000740 	andeq	r0, r0, r0, asr #14
    2730:	00001559 	andeq	r1, r0, r9, asr r5
    2734:	69050402 	stmdbvs	r5, {r1, sl}
    2738:	0300746e 	movweq	r7, #1134	; 0x46e
    273c:	010c0704 	tsteq	ip, r4, lsl #14
    2740:	01030000 	mrseq	r0, (UNDEF: 3)
    2744:	0000e406 	andeq	lr, r0, r6, lsl #8
    2748:	05020300 	streq	r0, [r2, #-768]	; 0xfffffd00
    274c:	00000040 	andeq	r0, r0, r0, asr #32
    2750:	82050403 	andhi	r0, r5, #50331648	; 0x3000000
    2754:	03000000 	movweq	r0, #0
    2758:	007d0508 	rsbseq	r0, sp, r8, lsl #10
    275c:	01030000 	mrseq	r0, (UNDEF: 3)
    2760:	0000e208 	andeq	lr, r0, r8, lsl #4
    2764:	07020300 	streq	r0, [r2, -r0, lsl #6]
    2768:	00000133 	andeq	r0, r0, r3, lsr r1
    276c:	00011904 	andeq	r1, r1, r4, lsl #18
    2770:	19340200 	ldmdbne	r4!, {r9}
    2774:	00000069 	andeq	r0, r0, r9, rrx
    2778:	07070403 	streq	r0, [r7, -r3, lsl #8]
    277c:	04000001 	streq	r0, [r0], #-1
    2780:	00000745 	andeq	r0, r0, r5, asr #14
    2784:	7c193702 	ldcvc	7, cr3, [r9], {2}
    2788:	03000000 	movweq	r0, #0
    278c:	01020708 	tsteq	r2, r8, lsl #14
    2790:	25050000 	strcs	r0, [r5, #-0]
    2794:	92000000 	andls	r0, r0, #0, 0
    2798:	06000000 	streq	r0, [r0], -r0
    279c:	00000025 	andeq	r0, r0, r5, lsr #32
    27a0:	004a0700 	subeq	r0, sl, r0, lsl #14
    27a4:	1c030000 	stcne	0, cr0, [r3], {-0}
    27a8:	00009e0e 	andeq	r9, r0, lr, lsl #28
    27ac:	83040800 	movwhi	r0, #18432	; 0x4800
    27b0:	05000000 	streq	r0, [r0, #-0]
    27b4:	00000025 	andeq	r0, r0, r5, lsr #32
    27b8:	000000b3 	strheq	r0, [r0], -r3
    27bc:	0000b306 	andeq	fp, r0, r6, lsl #6
    27c0:	04080000 	streq	r0, [r8], #-0
    27c4:	000000c0 	andeq	r0, r0, r0, asr #1
    27c8:	eb080103 	bl	202bdc <__bss_end__+0x1f7dd4>
    27cc:	09000000 	stmdbeq	r0, {}	; <UNPREDICTABLE>
    27d0:	000000b9 	strheq	r0, [r0], -r9
    27d4:	00072a07 	andeq	r2, r7, r7, lsl #20
    27d8:	0e210300 	cdpeq	3, 2, cr0, cr1, cr0, {0}
    27dc:	000000d1 	ldrdeq	r0, [r0], -r1
    27e0:	00a40408 	adceq	r0, r4, r8, lsl #8
    27e4:	61070000 	mrsvs	r0, (UNDEF: 7)
    27e8:	04000007 	streq	r0, [r0], #-7
    27ec:	00b90d0b 	adcseq	r0, r9, fp, lsl #26
    27f0:	b3070000 	movwlt	r0, #28672	; 0x7000
    27f4:	04000007 	streq	r0, [r0], #-7
    27f8:	00b90d0c 	adcseq	r0, r9, ip, lsl #26
    27fc:	0c070000 	stceq	0, cr0, [r7], {-0}
    2800:	04000004 	streq	r0, [r0], #-4
    2804:	00b90d0d 	adcseq	r0, r9, sp, lsl #26
    2808:	e6070000 	str	r0, [r7], -r0
    280c:	04000004 	streq	r0, [r0], #-4
    2810:	00b90d0e 	adcseq	r0, r9, lr, lsl #26
    2814:	1c070000 	stcne	0, cr0, [r7], {-0}
    2818:	04000005 	streq	r0, [r0], #-5
    281c:	00b90d0f 	adcseq	r0, r9, pc, lsl #26
    2820:	6e070000 	cdpvs	0, 0, cr0, cr7, cr0, {0}
    2824:	04000004 	streq	r0, [r0], #-4
    2828:	00b90d10 	adcseq	r0, r9, r0, lsl sp
    282c:	e3070000 	movw	r0, #28672	; 0x7000
    2830:	04000007 	streq	r0, [r0], #-7
    2834:	00b90d11 	adcseq	r0, r9, r1, lsl sp
    2838:	7e070000 	cdpvc	0, 0, cr0, cr7, cr0, {0}
    283c:	04000007 	streq	r0, [r0], #-7
    2840:	00b90d12 	adcseq	r0, r9, r2, lsl sp
    2844:	f3040000 	vhadd.u8	d0, d4, d0
    2848:	05000006 	streq	r0, [r0, #-6]
    284c:	01431b28 	cmpeq	r3, r8, lsr #22
    2850:	020a0000 	andeq	r0, sl, #0, 0
    2854:	04000007 	streq	r0, [r0], #-7
    2858:	015a0006 	cmpeq	sl, r6
    285c:	0c0b0000 	stceq	0, cr0, [fp], {-0}
    2860:	5a000007 	bpl	2884 <__code_start__-0x577c>
    2864:	00000001 	andeq	r0, r0, r1
    2868:	04040c00 	streq	r0, [r4], #-3072	; 0xfffff400
    286c:	00000704 	andeq	r0, r0, r4, lsl #14
    2870:	37186305 	ldrcc	r6, [r8, -r5, lsl #6]
    2874:	0d000001 	stceq	0, cr0, [r0, #-4]
    2878:	000006e9 	andeq	r0, r0, r9, ror #13
    287c:	25058101 	strcs	r8, [r5, #-257]	; 0xfffffeff
    2880:	dc000000 	stcle	0, cr0, [r0], {-0}
    2884:	b8000091 	stmdalt	r0, {r0, r4, r7}
    2888:	01000004 	tsteq	r0, r4
    288c:	0007179c 	muleq	r7, ip, r7
    2890:	75620e00 	strbvc	r0, [r2, #-3584]!	; 0xfffff200
    2894:	81010066 	tsthi	r1, r6, rrx
    2898:	00071715 	andeq	r1, r7, r5, lsl r7
    289c:	000f0500 	andeq	r0, pc, r0, lsl #10
    28a0:	000eff00 	andeq	pc, lr, r0, lsl #30
    28a4:	006e0e00 	rsbeq	r0, lr, r0, lsl #28
    28a8:	251e8101 	ldrcs	r8, [lr, #-257]	; 0xfffffeff
    28ac:	37000000 	strcc	r0, [r0, -r0]
    28b0:	3100000f 	tstcc	r0, pc
    28b4:	0e00000f 	cdpeq	0, 0, cr0, cr0, cr15, {0}
    28b8:	00746d66 	rsbseq	r6, r4, r6, ror #26
    28bc:	b32d8101 			; <UNDEFINED> instruction: 0xb32d8101
    28c0:	71000000 	mrsvc	r0, (UNDEF: 0)
    28c4:	6500000f 	strvs	r0, [r0, #-15]
    28c8:	0f00000f 	svceq	0x0000000f
    28cc:	000006e4 	andeq	r0, r0, r4, ror #13
    28d0:	5c3a8101 	ldfpld	f0, [sl], #-4
    28d4:	03000001 	movweq	r0, #1
    28d8:	107dd491 			; <UNDEFINED> instruction: 0x107dd491
    28dc:	82010070 	andhi	r0, r1, #112, 0	; 0x70
    28e0:	00071708 	andeq	r1, r7, r8, lsl #14
    28e4:	000fcf00 	andeq	ip, pc, r0, lsl #30
    28e8:	000fbb00 	andeq	fp, pc, r0, lsl #22
    28ec:	00651000 	rsbeq	r1, r5, r0
    28f0:	17128201 	ldrne	r8, [r2, -r1, lsl #4]
    28f4:	51000007 	tstpl	r0, r7
    28f8:	4d000010 	stcmi	0, cr0, [r0, #-64]	; 0xffffffc0
    28fc:	10000010 	andne	r0, r0, r0, lsl r0
    2900:	01003078 	tsteq	r0, r8, ror r0
    2904:	005d0e83 	subseq	r0, sp, r3, lsl #29
    2908:	107e0000 	rsbsne	r0, lr, r0
    290c:	10780000 	rsbsne	r0, r8, r0
    2910:	78100000 	ldmdavc	r0, {}	; <UNPREDICTABLE>
    2914:	83010031 	movwhi	r0, #4145	; 0x1031
    2918:	00005d11 	andeq	r5, r0, r1, lsl sp
    291c:	0010ab00 	andseq	sl, r0, r0, lsl #22
    2920:	0010a700 	andseq	sl, r0, r0, lsl #14
    2924:	079c1100 	ldreq	r1, [ip, r0, lsl #2]
    2928:	86010000 	strhi	r0, [r1], -r0
    292c:	0000b311 	andeq	fp, r0, r1, lsl r3
    2930:	0010cd00 	andseq	ip, r0, r0, lsl #26
    2934:	0010c900 	andseq	ip, r0, r0, lsl #18
    2938:	00ac1200 	adceq	r1, ip, r0, lsl #4
    293c:	072d0000 	streq	r0, [sp, -r0]!
    2940:	03050000 	movweq	r0, #20480	; 0x5000
    2944:	0000a7ac 	andeq	sl, r0, ip, lsr #15
    2948:	00924413 	addseq	r4, r2, r3, lsl r4
    294c:	00040000 	andeq	r0, r4, r0
    2950:	00731000 	rsbseq	r1, r3, r0
    2954:	170a9101 	strne	r9, [sl, -r1, lsl #2]
    2958:	03000007 	movweq	r0, #7
    295c:	ed000011 	stc	0, cr0, [r0, #-68]	; 0xffffffbc
    2960:	14000010 	strne	r0, [r0], #-16
    2964:	006d756e 	rsbeq	r7, sp, lr, ror #10
    2968:	320d9101 	andcc	r9, sp, #1073741824	; 0x40000000
    296c:	03000007 	movweq	r0, #7
    2970:	157dd891 	ldrbne	sp, [sp, #-2193]!	; 0xfffff76f
    2974:	000007f0 	strdeq	r0, [r0], -r0	; <UNPREDICTABLE>
    2978:	32179101 	andscc	r9, r7, #1073741824	; 0x40000000
    297c:	03000007 	movweq	r0, #7
    2980:	117ed891 			; <UNDEFINED> instruction: 0x117ed891
    2984:	00000770 	andeq	r0, r0, r0, ror r7
    2988:	2c0d9201 	sfmcs	f1, 1, [sp], {1}
    298c:	8a000000 	bhi	2994 <__code_start__-0x566c>
    2990:	84000011 	strhi	r0, [r0], #-17	; 0xffffffef
    2994:	16000011 			; <UNDEFINED> instruction: 0x16000011
    2998:	0000930c 	andeq	r9, r0, ip, lsl #6
    299c:	000001a4 	andeq	r0, r0, r4, lsr #3
    29a0:	00000539 	andeq	r0, r0, r9, lsr r5
    29a4:	00797410 	rsbseq	r7, r9, r0, lsl r4
    29a8:	b31d9e01 	tstlt	sp, #1, 28
    29ac:	be000000 	cdplt	0, 0, cr0, cr0, cr0, {0}
    29b0:	b4000011 	strlt	r0, [r0], #-17	; 0xffffffef
    29b4:	17000011 	smladne	r0, r1, r0, r0
    29b8:	01007878 	tsteq	r0, r8, ror r8
    29bc:	00701aa2 	rsbseq	r1, r0, r2, lsr #21
    29c0:	1c180000 	ldcne	0, cr0, [r8], {-0}
    29c4:	92000093 	andls	r0, r0, #147, 0	; 0x93
    29c8:	d500000a 	strle	r0, [r0, #-10]
    29cc:	19000002 	stmdbne	r0, {r1}
    29d0:	76025001 	strvc	r5, [r2], -r1
    29d4:	51011900 	tstpl	r1, r0, lsl #18
    29d8:	a6a00305 	strtge	r0, [r0], r5, lsl #6
    29dc:	01190000 	tsteq	r9, r0
    29e0:	00330152 	eorseq	r0, r3, r2, asr r1
    29e4:	00933418 	addseq	r3, r3, r8, lsl r4
    29e8:	000a9200 	andeq	r9, sl, r0, lsl #4
    29ec:	0002f700 	andeq	pc, r2, r0, lsl #14
    29f0:	50011900 	andpl	r1, r1, r0, lsl #18
    29f4:	19007602 	stmdbne	r0, {r1, r9, sl, ip, sp, lr}
    29f8:	03055101 	movweq	r5, #20737	; 0x5101
    29fc:	0000a6a4 	andeq	sl, r0, r4, lsr #13
    2a00:	01520119 	cmpeq	r2, r9, lsl r1
    2a04:	68180033 	ldmdavs	r8, {r0, r1, r4, r5}
    2a08:	9e000093 	mcrls	0, 0, r0, cr0, cr3, {4}
    2a0c:	1400000a 	strne	r0, [r0], #-10
    2a10:	19000003 	stmdbne	r0, {r0, r1}
    2a14:	03055001 	movweq	r5, #20481	; 0x5001
    2a18:	0000a6a8 	andeq	sl, r0, r8, lsr #13
    2a1c:	02510119 	subseq	r0, r1, #1073741830	; 0x40000006
    2a20:	18000077 	stmdane	r0, {r0, r1, r2, r4, r5, r6}
    2a24:	00009374 	andeq	r9, r0, r4, ror r3
    2a28:	00000a9e 	muleq	r0, lr, sl
    2a2c:	00000331 	andeq	r0, r0, r1, lsr r3
    2a30:	05500119 	ldrbeq	r0, [r0, #-281]	; 0xfffffee7
    2a34:	00a6b003 	adceq	fp, r6, r3
    2a38:	51011900 	tstpl	r1, r0, lsl #18
    2a3c:	00007a02 	andeq	r7, r0, r2, lsl #20
    2a40:	00938418 	addseq	r8, r3, r8, lsl r4
    2a44:	000a9200 	andeq	r9, sl, r0, lsl #4
    2a48:	00035300 	andeq	r5, r3, r0, lsl #6
    2a4c:	50011900 	andpl	r1, r1, r0, lsl #18
    2a50:	19007602 	stmdbne	r0, {r1, r9, sl, ip, sp, lr}
    2a54:	03055101 	movweq	r5, #20737	; 0x5101
    2a58:	0000a6a0 	andeq	sl, r0, r0, lsr #13
    2a5c:	01520119 	cmpeq	r2, r9, lsl r1
    2a60:	9c180033 	ldcls	0, cr0, [r8], {51}	; 0x33
    2a64:	92000093 	andls	r0, r0, #147, 0	; 0x93
    2a68:	7500000a 	strvc	r0, [r0, #-10]
    2a6c:	19000003 	stmdbne	r0, {r0, r1}
    2a70:	76025001 	strvc	r5, [r2], -r1
    2a74:	51011900 	tstpl	r1, r0, lsl #18
    2a78:	a6a40305 	strtge	r0, [r4], r5, lsl #6
    2a7c:	01190000 	tsteq	r9, r0
    2a80:	00330152 	eorseq	r0, r3, r2, asr r1
    2a84:	0093c418 	addseq	ip, r3, r8, lsl r4
    2a88:	00074200 	andeq	r4, r7, r0, lsl #4
    2a8c:	0003a900 	andeq	sl, r3, r0, lsl #18
    2a90:	50011900 	andpl	r1, r1, r0, lsl #18
    2a94:	01193a01 	tsteq	r9, r1, lsl #20
    2a98:	d0910351 	addsle	r0, r1, r1, asr r3
    2a9c:	5201197d 	andpl	r1, r1, #2048000	; 0x1f4000
    2aa0:	19800802 	stmibne	r0, {r1, fp}
    2aa4:	77025301 	strvc	r5, [r2, -r1, lsl #6]
    2aa8:	7d021900 	vstrvc.16	s2, [r2, #-0]	; <UNPREDICTABLE>
    2aac:	00750200 	rsbseq	r0, r5, r0, lsl #4
    2ab0:	047d0219 	ldrbteq	r0, [sp], #-537	; 0xfffffde7
    2ab4:	00007602 	andeq	r7, r0, r2, lsl #12
    2ab8:	0093e418 	addseq	lr, r3, r8, lsl r4
    2abc:	00074200 	andeq	r4, r7, r0, lsl #4
    2ac0:	0003dd00 	andeq	sp, r3, r0, lsl #26
    2ac4:	50011900 	andpl	r1, r1, r0, lsl #18
    2ac8:	01193a01 	tsteq	r9, r1, lsl #20
    2acc:	d0910351 	addsle	r0, r1, r1, asr r3
    2ad0:	5201197e 	andpl	r1, r1, #2064384	; 0x1f8000
    2ad4:	19800802 	stmibne	r0, {r1, fp}
    2ad8:	7a025301 	bvc	976e4 <__bss_end__+0x8c8dc>
    2adc:	7d021900 	vstrvc.16	s2, [r2, #-0]	; <UNPREDICTABLE>
    2ae0:	00750200 	rsbseq	r0, r5, r0, lsl #4
    2ae4:	047d0219 	ldrbteq	r0, [sp], #-537	; 0xfffffde7
    2ae8:	00007602 	andeq	r7, r0, r2, lsl #12
    2aec:	0093f018 	addseq	pc, r3, r8, lsl r0	; <UNPREDICTABLE>
    2af0:	000aaa00 	andeq	sl, sl, r0, lsl #20
    2af4:	0003fb00 	andeq	pc, r3, r0, lsl #22
    2af8:	50011900 	andpl	r1, r1, r0, lsl #18
    2afc:	7dd09103 	ldfvcp	f1, [r0, #12]
    2b00:	05510119 	ldrbeq	r0, [r1, #-281]	; 0xfffffee7
    2b04:	00a52803 	adceq	r2, r5, r3, lsl #16
    2b08:	04180000 	ldreq	r0, [r8], #-0
    2b0c:	b6000094 			; <UNDEFINED> instruction: 0xb6000094
    2b10:	1700000a 	strne	r0, [r0, -sl]
    2b14:	19000004 	stmdbne	r0, {r2}
    2b18:	91035001 	tstls	r3, r1
    2b1c:	01197dd0 			; <UNDEFINED> instruction: 0x01197dd0
    2b20:	d0910351 	addsle	r0, r1, r1, asr r3
    2b24:	2818007e 	ldmdacs	r8, {r1, r2, r3, r4, r5, r6}
    2b28:	9e000094 	mcrls	0, 0, r0, cr0, cr4, {4}
    2b2c:	5000000a 	andpl	r0, r0, sl
    2b30:	19000004 	stmdbne	r0, {r2}
    2b34:	03055001 	movweq	r5, #20481	; 0x5001
    2b38:	0000a07c 	andeq	sl, r0, ip, ror r0
    2b3c:	05510119 	ldrbeq	r0, [r1, #-281]	; 0xfffffee7
    2b40:	00a65403 	adceq	r5, r6, r3, lsl #8
    2b44:	52011900 	andpl	r1, r1, #0, 18
    2b48:	a7ac0305 	strge	r0, [ip, r5, lsl #6]!
    2b4c:	01190000 	tsteq	r9, r0
    2b50:	9f080253 	svcls	0x00080253
    2b54:	007d0219 	rsbseq	r0, sp, r9, lsl r2
    2b58:	a6b80305 	ldrtge	r0, [r8], r5, lsl #6
    2b5c:	1a000000 	bne	2b64 <__code_start__-0x549c>
    2b60:	0000942c 	andeq	r9, r0, ip, lsr #8
    2b64:	00000ac2 	andeq	r0, r0, r2, asr #21
    2b68:	00944c18 	addseq	r4, r4, r8, lsl ip
    2b6c:	00074200 	andeq	r4, r7, r0, lsl #4
    2b70:	00048d00 	andeq	r8, r4, r0, lsl #26
    2b74:	50011900 	andpl	r1, r1, r0, lsl #18
    2b78:	01194001 	tsteq	r9, r1
    2b7c:	d0910351 	addsle	r0, r1, r1, asr r3
    2b80:	5201197d 	andpl	r1, r1, #2048000	; 0x1f4000
    2b84:	19800802 	stmibne	r0, {r1, fp}
    2b88:	77025301 	strvc	r5, [r2, -r1, lsl #6]
    2b8c:	7d021900 	vstrvc.16	s2, [r2, #-0]	; <UNPREDICTABLE>
    2b90:	00750200 	rsbseq	r0, r5, r0, lsl #4
    2b94:	047d0219 	ldrbteq	r0, [sp], #-537	; 0xfffffde7
    2b98:	00007602 	andeq	r7, r0, r2, lsl #12
    2b9c:	00946c18 	addseq	r6, r4, r8, lsl ip
    2ba0:	00074200 	andeq	r4, r7, r0, lsl #4
    2ba4:	0004c100 	andeq	ip, r4, r0, lsl #2
    2ba8:	50011900 	andpl	r1, r1, r0, lsl #18
    2bac:	01194001 	tsteq	r9, r1
    2bb0:	d0910351 	addsle	r0, r1, r1, asr r3
    2bb4:	5201197e 	andpl	r1, r1, #2064384	; 0x1f8000
    2bb8:	19800802 	stmibne	r0, {r1, fp}
    2bbc:	7a025301 	bvc	977c8 <__bss_end__+0x8c9c0>
    2bc0:	7d021900 	vstrvc.16	s2, [r2, #-0]	; <UNPREDICTABLE>
    2bc4:	00750200 	rsbseq	r0, r5, r0, lsl #4
    2bc8:	047d0219 	ldrbteq	r0, [sp], #-537	; 0xfffffde7
    2bcc:	00007602 	andeq	r7, r0, r2, lsl #12
    2bd0:	00947818 	addseq	r7, r4, r8, lsl r8
    2bd4:	000ace00 	andeq	ip, sl, r0, lsl #28
    2bd8:	0004dd00 	andeq	sp, r4, r0, lsl #26
    2bdc:	50011900 	andpl	r1, r1, r0, lsl #18
    2be0:	7dd09103 	ldfvcp	f1, [r0, #12]
    2be4:	03510119 	cmpeq	r1, #1073741830	; 0x40000006
    2be8:	007ed291 			; <UNDEFINED> instruction: 0x007ed291
    2bec:	00948c18 	addseq	r8, r4, r8, lsl ip
    2bf0:	000ace00 	andeq	ip, sl, r0, lsl #28
    2bf4:	0004f900 	andeq	pc, r4, r0, lsl #18
    2bf8:	50011900 	andpl	r1, r1, r0, lsl #18
    2bfc:	7dd09103 	ldfvcp	f1, [r0, #12]
    2c00:	03510119 	cmpeq	r1, #1073741830	; 0x40000006
    2c04:	007ed091 			; <UNDEFINED> instruction: 0x007ed091
    2c08:	0094ac18 	addseq	sl, r4, r8, lsl ip
    2c0c:	000a9e00 	andeq	r9, sl, r0, lsl #28
    2c10:	00052f00 	andeq	r2, r5, r0, lsl #30
    2c14:	50011900 	andpl	r1, r1, r0, lsl #18
    2c18:	a6f40305 	ldrbtge	r0, [r4], r5, lsl #6
    2c1c:	01190000 	tsteq	r9, r0
    2c20:	54030551 	strpl	r0, [r3], #-1361	; 0xfffffaaf
    2c24:	190000a6 	stmdbne	r0, {r1, r2, r5, r7}
    2c28:	03055201 	movweq	r5, #20993	; 0x5201
    2c2c:	0000a7ac 	andeq	sl, r0, ip, lsr #15
    2c30:	02530119 	subseq	r0, r3, #1073741830	; 0x40000006
    2c34:	0219b608 	andseq	fp, r9, #8, 12	; 0x800000
    2c38:	7602007d 			; <UNDEFINED> instruction: 0x7602007d
    2c3c:	b01a0000 	andslt	r0, sl, r0
    2c40:	c2000094 	andgt	r0, r0, #148, 0	; 0x94
    2c44:	0000000a 	andeq	r0, r0, sl
    2c48:	00925c18 	addseq	r5, r2, r8, lsl ip
    2c4c:	0009c000 	andeq	ip, r9, r0
    2c50:	00054d00 	andeq	r4, r5, r0, lsl #26
    2c54:	50011900 	andpl	r1, r1, r0, lsl #18
    2c58:	00007702 	andeq	r7, r0, r2, lsl #14
    2c5c:	00930818 	addseq	r0, r3, r8, lsl r8
    2c60:	000a9e00 	andeq	r9, sl, r0, lsl #28
    2c64:	00058600 	andeq	r8, r5, r0, lsl #12
    2c68:	50011900 	andpl	r1, r1, r0, lsl #18
    2c6c:	a07c0305 	rsbsge	r0, ip, r5, lsl #6
    2c70:	01190000 	tsteq	r9, r0
    2c74:	54030551 	strpl	r0, [r3], #-1361	; 0xfffffaaf
    2c78:	190000a6 	stmdbne	r0, {r1, r2, r5, r7}
    2c7c:	03055201 	movweq	r5, #20993	; 0x5201
    2c80:	0000a7ac 	andeq	sl, r0, ip, lsr #15
    2c84:	02530119 	subseq	r0, r3, #1073741830	; 0x40000006
    2c88:	02199808 	andseq	r9, r9, #8, 16	; 0x80000
    2c8c:	0305007d 	movweq	r0, #20605	; 0x507d
    2c90:	0000a694 	muleq	r0, r4, r6
    2c94:	930c1a00 	movwls	r1, #51712	; 0xca00
    2c98:	0ac20000 	beq	ff082ca0 <__bss_end__+0xff077e98>
    2c9c:	c4180000 	ldrgt	r0, [r8], #-0
    2ca0:	9e000094 	mcrls	0, 0, r0, cr0, cr4, {4}
    2ca4:	be00000a 	cdplt	0, 0, cr0, cr0, cr10, {0}
    2ca8:	19000005 	stmdbne	r0, {r0, r2}
    2cac:	03055001 	movweq	r5, #20481	; 0x5001
    2cb0:	0000a71c 	andeq	sl, r0, ip, lsl r7
    2cb4:	05510119 	ldrbeq	r0, [r1, #-281]	; 0xfffffee7
    2cb8:	00a65403 	adceq	r5, r6, r3, lsl #8
    2cbc:	52011900 	andpl	r1, r1, #0, 18
    2cc0:	a7ac0305 	strge	r0, [ip, r5, lsl #6]!
    2cc4:	01190000 	tsteq	r9, r0
    2cc8:	be080253 	mcrlt	2, 0, r0, cr8, cr3, {2}
    2ccc:	94c81a00 	strbls	r1, [r8], #2560	; 0xa00
    2cd0:	0ac20000 	beq	ff082cd8 <__bss_end__+0xff077ed0>
    2cd4:	f4180000 			; <UNDEFINED> instruction: 0xf4180000
    2cd8:	42000094 	andmi	r0, r0, #148, 0	; 0x94
    2cdc:	f4000007 	vst4.8	{d0-d3}, [r0], r7
    2ce0:	19000005 	stmdbne	r0, {r0, r2}
    2ce4:	3a015001 	bcc	56cf0 <__bss_end__+0x4bee8>
    2ce8:	03510119 	cmpeq	r1, #1073741830	; 0x40000006
    2cec:	197dd091 	ldmdbne	sp!, {r0, r4, r7, ip, lr, pc}^
    2cf0:	08025201 	stmdaeq	r2, {r0, r9, ip, lr}
    2cf4:	7d021980 	vstrvc.16	s2, [r2, #-256]	; 0xffffff00	; <UNPREDICTABLE>
    2cf8:	00750200 	rsbseq	r0, r5, r0, lsl #4
    2cfc:	047d0219 	ldrbteq	r0, [sp], #-537	; 0xfffffde7
    2d00:	18003101 	stmdane	r0, {r0, r8, ip, sp}
    2d04:	0000952c 	andeq	r9, r0, ip, lsr #10
    2d08:	00000742 	andeq	r0, r0, r2, asr #14
    2d0c:	00000621 	andeq	r0, r0, r1, lsr #12
    2d10:	01500119 	cmpeq	r0, r9, lsl r1
    2d14:	5101193a 	tstpl	r1, sl, lsr r9
    2d18:	7dd09103 	ldfvcp	f1, [r0, #12]
    2d1c:	02520119 	subseq	r0, r2, #1073741830	; 0x40000006
    2d20:	02198008 	andseq	r8, r9, #8, 0
    2d24:	7502007d 	strvc	r0, [r2, #-125]	; 0xffffff83
    2d28:	7d021900 	vstrvc.16	s2, [r2, #-0]	; <UNPREDICTABLE>
    2d2c:	00300104 	eorseq	r0, r0, r4, lsl #2
    2d30:	00956018 	addseq	r6, r5, r8, lsl r0
    2d34:	00074200 	andeq	r4, r7, r0, lsl #4
    2d38:	00064e00 	andeq	r4, r6, r0, lsl #28
    2d3c:	50011900 	andpl	r1, r1, r0, lsl #18
    2d40:	01194001 	tsteq	r9, r1
    2d44:	d0910351 	addsle	r0, r1, r1, asr r3
    2d48:	5201197d 	andpl	r1, r1, #2048000	; 0x1f4000
    2d4c:	19800802 	stmibne	r0, {r1, fp}
    2d50:	02007d02 	andeq	r7, r0, #128	; 0x80
    2d54:	02190075 	andseq	r0, r9, #117, 0	; 0x75
    2d58:	3001047d 	andcc	r0, r1, sp, ror r4
    2d5c:	95941800 	ldrls	r1, [r4, #2048]	; 0x800
    2d60:	07420000 	strbeq	r0, [r2, -r0]
    2d64:	067b0000 	ldrbteq	r0, [fp], -r0
    2d68:	01190000 	tsteq	r9, r0
    2d6c:	19320150 	ldmdbne	r2!, {r4, r6, r8}
    2d70:	91035101 	tstls	r3, r1, lsl #2
    2d74:	01197dd0 			; <UNDEFINED> instruction: 0x01197dd0
    2d78:	80080252 	andhi	r0, r8, r2, asr r2
    2d7c:	007d0219 	rsbseq	r0, sp, r9, lsl r2
    2d80:	19007502 	stmdbne	r0, {r1, r8, sl, ip, sp, lr}
    2d84:	01047d02 	tsteq	r4, r2, lsl #26
    2d88:	dc180030 	ldcle	0, cr0, [r8], {48}	; 0x30
    2d8c:	42000095 	andmi	r0, r0, #149, 0	; 0x95
    2d90:	a8000007 	stmdage	r0, {r0, r1, r2}
    2d94:	19000006 	stmdbne	r0, {r1, r2}
    2d98:	38015001 	stmdacc	r1, {r0, ip, lr}
    2d9c:	03510119 	cmpeq	r1, #1073741830	; 0x40000006
    2da0:	197dd091 	ldmdbne	sp!, {r0, r4, r7, ip, lr, pc}^
    2da4:	08025201 	stmdaeq	r2, {r0, r9, ip, lr}
    2da8:	7d021980 	vstrvc.16	s2, [r2, #-256]	; 0xffffff00	; <UNPREDICTABLE>
    2dac:	00750200 	rsbseq	r0, r5, r0, lsl #4
    2db0:	047d0219 	ldrbteq	r0, [sp], #-537	; 0xfffffde7
    2db4:	18003001 	stmdane	r0, {r0, ip, sp}
    2db8:	000095fc 	strdeq	r9, [r0], -ip
    2dbc:	00000a9e 	muleq	r0, lr, sl
    2dc0:	000006cb 	andeq	r0, r0, fp, asr #13
    2dc4:	05500119 	ldrbeq	r0, [r0, #-281]	; 0xfffffee7
    2dc8:	00a74403 	adceq	r4, r7, r3, lsl #8
    2dcc:	51011900 	tstpl	r1, r0, lsl #18
    2dd0:	19007a02 	stmdbne	r0, {r1, r9, fp, ip, sp, lr}
    2dd4:	7a025201 	bvc	975e0 <__bss_end__+0x8c7d8>
    2dd8:	0c1b0000 	ldceq	0, cr0, [fp], {-0}
    2ddc:	dd000096 	stcle	0, cr0, [r0, #-600]	; 0xfffffda8
    2de0:	19000006 	stmdbne	r0, {r1, r2}
    2de4:	91045001 	tstls	r4, r1
    2de8:	00067dc8 	andeq	r7, r6, r8, asr #27
    2dec:	00962018 	addseq	r2, r6, r8, lsl r0
    2df0:	000a9e00 	andeq	r9, sl, r0, lsl #28
    2df4:	00070c00 	andeq	r0, r7, r0, lsl #24
    2df8:	50011900 	andpl	r1, r1, r0, lsl #18
    2dfc:	a7740305 	ldrbge	r0, [r4, -r5, lsl #6]!
    2e00:	01190000 	tsteq	r9, r0
    2e04:	54030551 	strpl	r0, [r3], #-1361	; 0xfffffaaf
    2e08:	190000a6 	stmdbne	r0, {r1, r2, r5, r7}
    2e0c:	03055201 	movweq	r5, #20993	; 0x5201
    2e10:	0000a7ac 	andeq	sl, r0, ip, lsr #15
    2e14:	02530119 	subseq	r0, r3, #1073741830	; 0x40000006
    2e18:	1a00e208 	bne	3b640 <__bss_end__+0x30838>
    2e1c:	00009624 	andeq	r9, r0, r4, lsr #12
    2e20:	00000ac2 	andeq	r0, r0, r2, asr #21
    2e24:	04080000 	streq	r0, [r8], #-0
    2e28:	000000b9 	strheq	r0, [r0], -r9
    2e2c:	0000c01c 	andeq	ip, r0, ip, lsl r0
    2e30:	00072d00 	andeq	r2, r7, r0, lsl #26
    2e34:	002c1d00 	eoreq	r1, ip, r0, lsl #26
    2e38:	00090000 	andeq	r0, r9, r0
    2e3c:	00071d09 	andeq	r1, r7, r9, lsl #26
    2e40:	00b91c00 	adcseq	r1, r9, r0, lsl #24
    2e44:	07420000 	strbeq	r0, [r2, -r0]
    2e48:	2c1d0000 	ldccs	0, cr0, [sp], {-0}
    2e4c:	7f000000 	svcvc	0x00000000
    2e50:	07c01e00 	strbeq	r1, [r0, r0, lsl #28]
    2e54:	49010000 	stmdbmi	r1, {}	; <UNPREDICTABLE>
    2e58:	00071701 	andeq	r1, r7, r1, lsl #14
    2e5c:	008fc400 	addeq	ip, pc, r0, lsl #8
    2e60:	0001b400 	andeq	fp, r1, r0, lsl #8
    2e64:	ab9c0100 	blge	fe70326c <__bss_end__+0xfe6f8464>
    2e68:	1f000008 	svcne	0x00000008
    2e6c:	0000057e 	andeq	r0, r0, lr, ror r5
    2e70:	2c0f4901 			; <UNDEFINED> instruction: 0x2c0f4901
    2e74:	07000000 	streq	r0, [r0, -r0]
    2e78:	01000012 	tsteq	r0, r2, lsl r0
    2e7c:	0e000012 	mcreq	0, 0, r0, cr0, cr2, {0}
    2e80:	00747364 	rsbseq	r7, r4, r4, ror #6
    2e84:	171b4901 	ldrne	r4, [fp, -r1, lsl #18]
    2e88:	45000007 	strmi	r0, [r0, #-7]
    2e8c:	35000012 	strcc	r0, [r0, #-18]	; 0xffffffee
    2e90:	0e000012 	mcreq	0, 0, r0, cr0, cr2, {0}
    2e94:	4901006e 	stmdbmi	r1, {r1, r2, r3, r5, r6}
    2e98:	00002524 	andeq	r2, r0, r4, lsr #10
    2e9c:	0012a900 	andseq	sl, r2, r0, lsl #18
    2ea0:	0012a500 	andseq	sl, r2, r0, lsl #10
    2ea4:	61760e00 	cmnvs	r6, r0, lsl #28
    2ea8:	4901006c 	stmdbmi	r1, {r2, r3, r5, r6}
    2eac:	0000252b 	andeq	r2, r0, fp, lsr #10
    2eb0:	0012d300 	andseq	sp, r2, r0, lsl #6
    2eb4:	0012c700 	andseq	ip, r2, r0, lsl #14
    2eb8:	07701f00 	ldrbeq	r1, [r0, -r0, lsl #30]!
    2ebc:	49010000 	stmdbmi	r1, {}	; <UNPREDICTABLE>
    2ec0:	00002534 	andeq	r2, r0, r4, lsr r5
    2ec4:	00132900 	andseq	r2, r3, r0, lsl #18
    2ec8:	00132300 	andseq	r2, r3, r0, lsl #6
    2ecc:	07fd0f00 	ldrbeq	r0, [sp, r0, lsl #30]!
    2ed0:	49010000 	stmdbmi	r1, {}	; <UNPREDICTABLE>
    2ed4:	0000253f 	andeq	r2, r0, pc, lsr r5
    2ed8:	04910200 	ldreq	r0, [r1], #512	; 0x200
    2edc:	66756214 			; <UNDEFINED> instruction: 0x66756214
    2ee0:	074e0100 	strbeq	r0, [lr, -r0, lsl #2]
    2ee4:	000008ab 	andeq	r0, r0, fp, lsr #17
    2ee8:	7fa89103 	svcvc	0x00a89103
    2eec:	01007010 	tsteq	r0, r0, lsl r0
    2ef0:	0717114e 	ldreq	r1, [r7, -lr, asr #2]
    2ef4:	13730000 	cmnne	r3, #0, 0
    2ef8:	13530000 	cmpne	r3, #0, 0
    2efc:	75100000 	ldrvc	r0, [r0, #-0]
    2f00:	0b4f0100 	bleq	13c3308 <__bss_end__+0x13b8500>
    2f04:	0000002c 	andeq	r0, r0, ip, lsr #32
    2f08:	00001459 	andeq	r1, r0, r9, asr r4
    2f0c:	00001445 	andeq	r1, r0, r5, asr #8
    2f10:	0000ac12 	andeq	sl, r0, r2, lsl ip
    2f14:	0008cb00 	andeq	ip, r8, r0, lsl #22
    2f18:	94030500 	strls	r0, [r3], #-1280	; 0xfffffb00
    2f1c:	160000a7 	strne	r0, [r0], -r7, lsr #1
    2f20:	00009030 	andeq	r9, r0, r0, lsr r0
    2f24:	00000078 	andeq	r0, r0, r8, ror r0
    2f28:	00000832 	andeq	r0, r0, r2, lsr r8
    2f2c:	0007ad11 	andeq	sl, r7, r1, lsl sp
    2f30:	0d540100 	ldfeqe	f0, [r4, #-0]
    2f34:	0000002c 	andeq	r0, r0, ip, lsr #32
    2f38:	000014da 	ldrdeq	r1, [r0], -sl
    2f3c:	000014d2 	ldrdeq	r1, [r0], -r2
    2f40:	90e81800 	rscls	r1, r8, r0, lsl #16
    2f44:	095d0000 	ldmdbeq	sp, {}^	; <UNPREDICTABLE>
    2f48:	08470000 	stmdaeq	r7, {}^	; <UNPREDICTABLE>
    2f4c:	01190000 	tsteq	r9, r0
    2f50:	a0910351 	addsge	r0, r1, r1, asr r3
    2f54:	fc18007f 	ldc2	0, cr0, [r8], {127}	; 0x7f
    2f58:	d0000090 	mulle	r0, r0, r0
    2f5c:	68000008 	stmdavs	r0, {r3}
    2f60:	19000008 	stmdbne	r0, {r3}
    2f64:	75025001 	strvc	r5, [r2, #-1]
    2f68:	51011900 	tstpl	r1, r0, lsl #18
    2f6c:	19007402 	stmdbne	r0, {r1, sl, ip, sp, lr}
    2f70:	91035301 	tstls	r3, r1, lsl #6
    2f74:	18007fa0 	stmdane	r0, {r5, r7, r8, r9, sl, fp, ip, sp, lr}
    2f78:	00009154 	andeq	r9, r0, r4, asr r1
    2f7c:	00000a9e 	muleq	r0, lr, sl
    2f80:	000008a1 	andeq	r0, r0, r1, lsr #17
    2f84:	05500119 	ldrbeq	r0, [r0, #-281]	; 0xfffffee7
    2f88:	00a07c03 	adceq	r7, r0, r3, lsl #24
    2f8c:	51011900 	tstpl	r1, r0, lsl #18
    2f90:	a6540305 	ldrbge	r0, [r4], -r5, lsl #6
    2f94:	01190000 	tsteq	r9, r0
    2f98:	94030552 	strls	r0, [r3], #-1362	; 0xfffffaae
    2f9c:	190000a7 	stmdbne	r0, {r0, r1, r2, r5, r7}
    2fa0:	08025301 	stmdaeq	r2, {r0, r8, r9, ip, lr}
    2fa4:	7d021979 	vstrvc.16	s2, [r2, #-242]	; 0xffffff0e	; <UNPREDICTABLE>
    2fa8:	28030500 	stmdacs	r3, {r8, sl}
    2fac:	000000a5 	andeq	r0, r0, r5, lsr #1
    2fb0:	0091581a 	addseq	r5, r1, sl, lsl r8
    2fb4:	000ac200 	andeq	ip, sl, r0, lsl #4
    2fb8:	b91c0000 	ldmdblt	ip, {}	; <UNPREDICTABLE>
    2fbc:	bb000000 	bllt	2fc4 <__code_start__-0x503c>
    2fc0:	1d000008 	stcne	0, cr0, [r0, #-32]	; 0xffffffe0
    2fc4:	0000002c 	andeq	r0, r0, ip, lsr #32
    2fc8:	c01c003f 	andsgt	r0, ip, pc, lsr r0
    2fcc:	cb000000 	blgt	2fd4 <__code_start__-0x502c>
    2fd0:	1d000008 	stcne	0, cr0, [r0, #-32]	; 0xffffffe0
    2fd4:	0000002c 	andeq	r0, r0, ip, lsr #32
    2fd8:	bb090004 	bllt	242ff0 <__bss_end__+0x2381e8>
    2fdc:	1e000008 	cdpne	0, 0, cr0, cr0, cr8, {0}
    2fe0:	000007cd 	andeq	r0, r0, sp, asr #15
    2fe4:	170e3801 	strne	r3, [lr, -r1, lsl #16]
    2fe8:	8c000007 	stchi	0, cr0, [r0], {7}
    2fec:	3800008f 	stmdacc	r0, {r0, r1, r2, r3, r7}
    2ff0:	01000000 	mrseq	r0, (UNDEF: 0)
    2ff4:	00095d9c 	muleq	r9, ip, sp
    2ff8:	73640e00 	cmnvc	r4, #0, 28
    2ffc:	38010074 	stmdacc	r1, {r2, r4, r5, r6}
    3000:	0007171c 	andeq	r1, r7, ip, lsl r7
    3004:	00151b00 	andseq	r1, r5, r0, lsl #22
    3008:	00151100 	andseq	r1, r5, r0, lsl #2
    300c:	006e0e00 	rsbeq	r0, lr, r0, lsl #28
    3010:	25253801 	strcs	r3, [r5, #-2049]!	; 0xfffff7ff
    3014:	62000000 	andvs	r0, r0, #0, 0
    3018:	5e000015 	mcrpl	0, 0, r0, cr0, cr5, {0}
    301c:	0e000015 	mcreq	0, 0, r0, cr0, cr5, {0}
    3020:	38010070 	stmdacc	r1, {r4, r5, r6}
    3024:	0007172e 	andeq	r1, r7, lr, lsr #14
    3028:	00158b00 	andseq	r8, r5, r0, lsl #22
    302c:	00158300 	andseq	r8, r5, r0, lsl #6
    3030:	03e51f00 	mvneq	r1, #0, 30
    3034:	38010000 	stmdacc	r1, {}	; <UNPREDICTABLE>
    3038:	00071737 	andeq	r1, r7, r7, lsr r7
    303c:	0015c500 	andseq	ip, r5, r0, lsl #10
    3040:	0015c100 	andseq	ip, r5, r0, lsl #2
    3044:	656c1000 	strbvs	r1, [ip, #-0]!
    3048:	3a01006e 	bcc	43208 <__bss_end__+0x38400>
    304c:	00002506 	andeq	r2, r0, r6, lsl #10
    3050:	0015eb00 	andseq	lr, r5, r0, lsl #22
    3054:	0015e300 	andseq	lr, r5, r0, lsl #6
    3058:	00731000 	rsbseq	r1, r3, r0
    305c:	17083e01 	strne	r3, [r8, -r1, lsl #28]
    3060:	39000007 	stmdbcc	r0, {r0, r1, r2}
    3064:	37000016 	smladcc	r0, r6, r0, r0
    3068:	00000016 	andeq	r0, r0, r6, lsl r0
    306c:	64617020 	strbtvs	r7, [r1], #-32	; 0xffffffe0
    3070:	0e2e0100 	sufeqe	f0, f6, f0
    3074:	00000717 	andeq	r0, r0, r7, lsl r7
    3078:	00008f68 	andeq	r8, r0, r8, ror #30
    307c:	00000024 	andeq	r0, r0, r4, lsr #32
    3080:	09c09c01 	stmibeq	r0, {r0, sl, fp, ip, pc}^
    3084:	700e0000 	andvc	r0, lr, r0
    3088:	182e0100 	stmdane	lr!, {r8}
    308c:	00000717 	andeq	r0, r0, r7, lsl r7
    3090:	00001652 	andeq	r1, r0, r2, asr r6
    3094:	0000164c 	andeq	r1, r0, ip, asr #12
    3098:	00057e1f 	andeq	r7, r5, pc, lsl lr
    309c:	222e0100 	eorcs	r0, lr, #0
    30a0:	00000717 	andeq	r0, r0, r7, lsl r7
    30a4:	00001681 	andeq	r1, r0, r1, lsl #13
    30a8:	0000167d 	andeq	r1, r0, sp, ror r6
    30ac:	0007700f 	andeq	r7, r7, pc
    30b0:	2c2e0100 	stfcss	f0, [lr], #-0
    30b4:	00000025 	andeq	r0, r0, r5, lsr #32
    30b8:	6c105201 	lfmvs	f5, 4, [r0], {1}
    30bc:	01006e65 	tsteq	r0, r5, ror #28
    30c0:	0025062f 	eoreq	r0, r5, pc, lsr #12
    30c4:	16a40000 	strtne	r0, [r4], r0
    30c8:	16a20000 	strtne	r0, [r2], r0
    30cc:	1e000000 	cdpne	0, 0, cr0, cr0, cr0, {0}
    30d0:	0000073d 	andeq	r0, r0, sp, lsr r7
    30d4:	250c2701 	strcs	r2, [ip, #-1793]	; 0xfffff8ff
    30d8:	54000000 	strpl	r0, [r0], #-0
    30dc:	1400008f 	strne	r0, [r0], #-143	; 0xffffff71
    30e0:	01000000 	mrseq	r0, (UNDEF: 0)
    30e4:	0009ed9c 	muleq	r9, ip, sp
    30e8:	00630e00 	rsbeq	r0, r3, r0, lsl #28
    30ec:	25182701 	ldrcs	r2, [r8, #-1793]	; 0xfffff8ff
    30f0:	bd000000 	stclt	0, cr0, [r0, #-0]
    30f4:	b7000016 	smladlt	r0, r6, r0, r0
    30f8:	00000016 	andeq	r0, r0, r6, lsl r0
    30fc:	00078d21 	andeq	r8, r7, r1, lsr #26
    3100:	061f0100 	ldreq	r0, [pc], -r0, lsl #2
    3104:	00009178 	andeq	r9, r0, r8, ror r1
    3108:	00000064 	andeq	r0, r0, r4, rrx
    310c:	0a7d9c01 	beq	1f6a118 <__bss_end__+0x1f5f310>
    3110:	761f0000 	ldrvc	r0, [pc], -r0
    3114:	01000007 	tsteq	r0, r7
    3118:	009e1b1f 	addseq	r1, lr, pc, lsl fp
    311c:	16ef0000 	strbtne	r0, [pc], r0
    3120:	16eb0000 	strbtne	r0, [fp], r0
    3124:	c51f0000 	ldrgt	r0, [pc, #-0]	; 312c <__code_start__-0x4ed4>
    3128:	01000007 	tsteq	r0, r7
    312c:	00d1301f 	sbcseq	r3, r1, pc, lsl r0
    3130:	17140000 	ldrne	r0, [r4, -r0]
    3134:	17100000 	ldrne	r0, [r0, -r0]
    3138:	ac120000 	ldcge	0, cr0, [r2], {-0}
    313c:	8d000000 	stchi	0, cr0, [r0, #-0]
    3140:	0500000a 	streq	r0, [r0, #-10]
    3144:	00a79c03 	adceq	r9, r7, r3, lsl #24
    3148:	91c01800 	bicls	r1, r0, r0, lsl #16
    314c:	0a9e0000 	beq	fe783154 <__bss_end__+0xfe77834c>
    3150:	0a730000 	beq	1cc3158 <__bss_end__+0x1cb8350>
    3154:	01190000 	tsteq	r9, r0
    3158:	7c030550 	cfstr32vc	mvfx0, [r3], {80}	; 0x50
    315c:	190000a0 	stmdbne	r0, {r5, r7}
    3160:	03055101 	movweq	r5, #20737	; 0x5101
    3164:	0000a654 	andeq	sl, r0, r4, asr r6
    3168:	05520119 	ldrbeq	r0, [r2, #-281]	; 0xfffffee7
    316c:	00a79c03 	adceq	r9, r7, r3, lsl #24
    3170:	53011900 	movwpl	r1, #6400	; 0x1900
    3174:	19200802 	stmdbne	r0!, {r1, fp}
    3178:	05007d02 	streq	r7, [r0, #-3330]	; 0xfffff2fe
    317c:	00a68c03 	adceq	r8, r6, r3, lsl #24
    3180:	c41a0000 	ldrgt	r0, [sl], #-0
    3184:	c2000091 	andgt	r0, r0, #145, 0	; 0x91
    3188:	0000000a 	andeq	r0, r0, sl
    318c:	0000c01c 	andeq	ip, r0, ip, lsl r0
    3190:	000a8d00 	andeq	r8, sl, r0, lsl #26
    3194:	002c1d00 	eoreq	r1, ip, r0, lsl #26
    3198:	000e0000 	andeq	r0, lr, r0
    319c:	000a7d09 	andeq	r7, sl, r9, lsl #26
    31a0:	07f52200 	ldrbeq	r2, [r5, r0, lsl #4]!
    31a4:	07f50000 	ldrbeq	r0, [r5, r0]!
    31a8:	f0030000 			; <UNDEFINED> instruction: 0xf0030000
    31ac:	06ec2205 	strbteq	r2, [ip], r5, lsl #4
    31b0:	06ec0000 	strbteq	r0, [ip], r0
    31b4:	28030000 	stmdacs	r3, {}	; <UNPREDICTABLE>
    31b8:	07dc2206 	ldrbeq	r2, [ip, r6, lsl #4]
    31bc:	07dc0000 	ldrbeq	r0, [ip, r0]
    31c0:	ef030000 	svc	0x00030000
    31c4:	07a62205 	streq	r2, [r6, r5, lsl #4]!
    31c8:	07a60000 	streq	r0, [r6, r0]!
    31cc:	f2030000 	vhadd.s8	d0, d3, d0
    31d0:	00c32207 	sbceq	r2, r3, r7, lsl #4
    31d4:	00c30000 	sbceq	r0, r3, r0
    31d8:	6e030000 	cdpvs	0, 0, cr0, cr3, cr0, {0}
    31dc:	07d52206 	ldrbeq	r2, [r5, r6, lsl #4]
    31e0:	07d50000 	ldrbeq	r0, [r5, r0]
    31e4:	f3030000 	vhadd.u8	d0, d3, d0
    31e8:	012f0007 			; <UNDEFINED> instruction: 0x012f0007
    31ec:	00040000 	andeq	r0, r4, r0
    31f0:	00000fc2 	andeq	r0, r0, r2, asr #31
    31f4:	059b0104 	ldreq	r0, [fp, #260]	; 0x104
    31f8:	1a0c0000 	bne	303200 <__bss_end__+0x2f83f8>
    31fc:	6c000008 	stcvs	0, cr0, [r0], {8}
    3200:	94000006 	strls	r0, [r0], #-6
    3204:	2c000096 	stccs	0, cr0, [r0], {150}	; 0x96
    3208:	7a000000 	bvc	3210 <__code_start__-0x4df0>
    320c:	0200001b 	andeq	r0, r0, #27, 0
    3210:	6e690504 	cdpvs	5, 6, cr0, cr9, cr4, {0}
    3214:	04030074 	streq	r0, [r3], #-116	; 0xffffff8c
    3218:	00010c07 	andeq	r0, r1, r7, lsl #24
    321c:	06010300 	streq	r0, [r1], -r0, lsl #6
    3220:	000000e4 	andeq	r0, r0, r4, ror #1
    3224:	40050203 	andmi	r0, r5, r3, lsl #4
    3228:	03000000 	movweq	r0, #0
    322c:	00820504 	addeq	r0, r2, r4, lsl #10
    3230:	08030000 	stmdaeq	r3, {}	; <UNPREDICTABLE>
    3234:	00007d05 	andeq	r7, r0, r5, lsl #26
    3238:	08010300 	stmdaeq	r1, {r8, r9}
    323c:	000000e2 	andeq	r0, r0, r2, ror #1
    3240:	33070203 	movwcc	r0, #29187	; 0x7203
    3244:	03000001 	movweq	r0, #1
    3248:	01070704 	tsteq	r7, r4, lsl #14
    324c:	08030000 	stmdaeq	r3, {}	; <UNPREDICTABLE>
    3250:	00010207 	andeq	r0, r1, r7, lsl #4
    3254:	00250400 	eoreq	r0, r5, r0, lsl #8
    3258:	007a0000 	rsbseq	r0, sl, r0
    325c:	25050000 	strcs	r0, [r5, #-0]
    3260:	00000000 	andeq	r0, r0, r0
    3264:	00004a06 	andeq	r4, r0, r6, lsl #20
    3268:	0e1c0200 	cdpeq	2, 1, cr0, cr12, cr0, {0}
    326c:	00000086 	andeq	r0, r0, r6, lsl #1
    3270:	006b0407 	rsbeq	r0, fp, r7, lsl #8
    3274:	25040000 	strcs	r0, [r4, #-0]
    3278:	9b000000 	blls	3280 <__code_start__-0x4d80>
    327c:	05000000 	streq	r0, [r0, #-0]
    3280:	0000009b 	muleq	r0, fp, r0
    3284:	a8040700 	stmdage	r4, {r8, r9, sl}
    3288:	03000000 	movweq	r0, #0
    328c:	00eb0801 	rsceq	r0, fp, r1, lsl #16
    3290:	a1080000 	mrsge	r0, (UNDEF: 8)
    3294:	06000000 	streq	r0, [r0], -r0
    3298:	0000072a 	andeq	r0, r0, sl, lsr #14
    329c:	b90e2102 	stmdblt	lr, {r1, r8, sp}
    32a0:	07000000 	streq	r0, [r0, -r0]
    32a4:	00008c04 	andeq	r8, r0, r4, lsl #24
    32a8:	00c30900 	sbceq	r0, r3, r0, lsl #18
    32ac:	04010000 	streq	r0, [r1], #-0
    32b0:	00969406 	addseq	r9, r6, r6, lsl #8
    32b4:	00002c00 	andeq	r2, r0, r0, lsl #24
    32b8:	0e9c0100 	fmleqe	f0, f4, f0
    32bc:	0a000001 	beq	32c8 <__code_start__-0x4d38>
    32c0:	000096a8 	andeq	r9, r0, r8, lsr #13
    32c4:	000000e8 	andeq	r0, r0, r8, ror #1
    32c8:	0550010b 	ldrbeq	r0, [r0, #-267]	; 0xfffffef5
    32cc:	00a7b803 	adceq	fp, r7, r3, lsl #16
    32d0:	ac0c0000 	stcge	0, cr0, [ip], {-0}
    32d4:	0e000096 	mcreq	0, 0, r0, cr0, cr6, {4}
    32d8:	0d000001 	stceq	0, cr0, [r0, #-4]
    32dc:	000096b4 			; <UNDEFINED> instruction: 0x000096b4
    32e0:	0000011a 	andeq	r0, r0, sl, lsl r1
    32e4:	00000104 	andeq	r0, r0, r4, lsl #2
    32e8:	0150010b 	cmpeq	r0, fp, lsl #2
    32ec:	b80c003a 	stmdalt	ip, {r1, r3, r4, r5}
    32f0:	26000096 			; <UNDEFINED> instruction: 0x26000096
    32f4:	00000001 	andeq	r0, r0, r1
    32f8:	0008350e 	andeq	r3, r8, lr, lsl #10
    32fc:	00083500 	andeq	r3, r8, r0, lsl #10
    3300:	064d0200 	strbeq	r0, [sp], -r0, lsl #4
    3304:	0008110e 	andeq	r1, r8, lr, lsl #2
    3308:	00081100 	andeq	r1, r8, r0, lsl #2
    330c:	06580200 	ldrbeq	r0, [r8], -r0, lsl #4
    3310:	0008060e 	andeq	r0, r8, lr, lsl #12
    3314:	00080600 	andeq	r0, r8, r0, lsl #12
    3318:	066b0200 	strbteq	r0, [fp], -r0, lsl #4
    331c:	00018900 	andeq	r8, r1, r0, lsl #18
    3320:	82000400 	andhi	r0, r0, #0, 8
    3324:	04000010 	streq	r0, [r0], #-16
    3328:	00059b01 	andeq	r9, r5, r1, lsl #22
    332c:	086b0c00 	stmdaeq	fp!, {sl, fp}^
    3330:	066c0000 	strbteq	r0, [ip], -r0
    3334:	96c00000 	strbls	r0, [r0], r0
    3338:	003c0000 	eorseq	r0, ip, r0
    333c:	1c230000 	stcne	0, cr0, [r3], #-0
    3340:	04020000 	streq	r0, [r2], #-0
    3344:	746e6905 	strbtvc	r6, [lr], #-2309	; 0xfffff6fb
    3348:	07040300 	streq	r0, [r4, -r0, lsl #6]
    334c:	0000010c 	andeq	r0, r0, ip, lsl #2
    3350:	e4060103 	str	r0, [r6], #-259	; 0xfffffefd
    3354:	03000000 	movweq	r0, #0
    3358:	00400502 	subeq	r0, r0, r2, lsl #10
    335c:	04030000 	streq	r0, [r3], #-0
    3360:	00008205 	andeq	r8, r0, r5, lsl #4
    3364:	05080300 	streq	r0, [r8, #-768]	; 0xfffffd00
    3368:	0000007d 	andeq	r0, r0, sp, ror r0
    336c:	e2080103 	and	r0, r8, #-1073741824	; 0xc0000000
    3370:	03000000 	movweq	r0, #0
    3374:	01330702 	teqeq	r3, r2, lsl #14
    3378:	04030000 	streq	r0, [r3], #-0
    337c:	00010707 	andeq	r0, r1, r7, lsl #14
    3380:	07080300 	streq	r0, [r8, -r0, lsl #6]
    3384:	00000102 	andeq	r0, r0, r2, lsl #2
    3388:	00002504 	andeq	r2, r0, r4, lsl #10
    338c:	00007a00 	andeq	r7, r0, r0, lsl #20
    3390:	00250500 	eoreq	r0, r5, r0, lsl #10
    3394:	06000000 	streq	r0, [r0], -r0
    3398:	0000004a 	andeq	r0, r0, sl, asr #32
    339c:	860e1c02 	strhi	r1, [lr], -r2, lsl #24
    33a0:	07000000 	streq	r0, [r0, -r0]
    33a4:	00006b04 	andeq	r6, r0, r4, lsl #22
    33a8:	00250400 	eoreq	r0, r5, r0, lsl #8
    33ac:	009b0000 	addseq	r0, fp, r0
    33b0:	9b050000 	blls	1433b8 <__bss_end__+0x1385b0>
    33b4:	00000000 	andeq	r0, r0, r0
    33b8:	00a80407 	adceq	r0, r8, r7, lsl #8
    33bc:	01030000 	mrseq	r0, (UNDEF: 3)
    33c0:	0000eb08 	andeq	lr, r0, r8, lsl #22
    33c4:	00a10800 	adceq	r0, r1, r0, lsl #16
    33c8:	2a060000 	bcs	1833d0 <__bss_end__+0x1785c8>
    33cc:	02000007 	andeq	r0, r0, #7, 0
    33d0:	00b90e21 	adcseq	r0, r9, r1, lsr #28
    33d4:	04070000 	streq	r0, [r7], #-0
    33d8:	0000008c 	andeq	r0, r0, ip, lsl #1
    33dc:	00084309 	andeq	r4, r8, r9, lsl #6
    33e0:	06040100 	streq	r0, [r4], -r0, lsl #2
    33e4:	000096c0 	andeq	r9, r0, r0, asr #13
    33e8:	0000003c 	andeq	r0, r0, ip, lsr r0
    33ec:	01549c01 	cmpeq	r4, r1, lsl #24
    33f0:	0c060000 	stceq	0, cr0, [r6], {-0}
    33f4:	01000004 	tsteq	r0, r4
    33f8:	00251005 	eoreq	r1, r5, r5
    33fc:	e6060000 	str	r0, [r6], -r0
    3400:	01000004 	tsteq	r0, r4
    3404:	00251f05 	eoreq	r1, r5, r5, lsl #30
    3408:	2b0a0000 	blcs	283410 <__bss_end__+0x278608>
    340c:	01000001 	tsteq	r0, r1
    3410:	620b0706 	andvs	r0, fp, #1572864	; 0x180000
    3414:	01007373 	tsteq	r0, r3, ror r3
    3418:	01540a0a 	cmpeq	r4, sl, lsl #20
    341c:	173b0000 	ldrne	r0, [fp, -r0]!
    3420:	17350000 	ldrne	r0, [r5, -r0]!
    3424:	4b0c0000 	blmi	30342c <__bss_end__+0x2f8624>
    3428:	01000008 	tsteq	r0, r8
    342c:	01540a0b 	cmpeq	r4, fp, lsl #20
    3430:	e40d0000 	str	r0, [sp], #-0
    3434:	08000096 	stmdaeq	r0, {r1, r2, r4, r7}
    3438:	2f000000 	svccs	0x00000000
    343c:	0e000001 	cdpeq	0, 0, cr0, cr0, cr1, {0}
    3440:	01006e69 	tsteq	r0, r9, ror #28
    3444:	002c0514 	eoreq	r0, ip, r4, lsl r5
    3448:	00010000 	andeq	r0, r1, r0
    344c:	0096c80f 	addseq	ip, r6, pc, lsl #16
    3450:	00015a00 	andeq	r5, r1, r0, lsl #20
    3454:	96e40f00 	strbtls	r0, [r4], r0, lsl #30
    3458:	01670000 	cmneq	r7, r0
    345c:	f00f0000 			; <UNDEFINED> instruction: 0xf00f0000
    3460:	73000096 	movwvc	r0, #150	; 0x96
    3464:	0f000001 	svceq	0x00000001
    3468:	000096f4 	strdeq	r9, [r0], -r4
    346c:	00000180 	andeq	r0, r0, r0, lsl #3
    3470:	25040700 	strcs	r0, [r4, #-1792]	; 0xfffff900
    3474:	10000000 	andne	r0, r0, r0
    3478:	0000085d 	andeq	r0, r0, sp, asr r8
    347c:	0000085d 	andeq	r0, r0, sp, asr r8
    3480:	06013602 	streq	r3, [r1], -r2, lsl #12
    3484:	00085311 	andeq	r5, r8, r1, lsl r3
    3488:	00085300 	andeq	r5, r8, r0, lsl #6
    348c:	063b0200 	ldrteq	r0, [fp], -r0, lsl #4
    3490:	00012b10 	andeq	r2, r1, r0, lsl fp
    3494:	00012b00 	andeq	r2, r1, r0, lsl #22
    3498:	010a0200 	mrseq	r0, R10_fiq
    349c:	00c31106 	sbceq	r1, r3, r6, lsl #2
    34a0:	00c30000 	sbceq	r0, r3, r0
    34a4:	6e020000 	cdpvs	0, 0, cr0, cr2, cr0, {0}
    34a8:	00ce0006 	sbceq	r0, lr, r6
    34ac:	00040000 	andeq	r0, r4, r0
    34b0:	0000117e 	andeq	r1, r0, lr, ror r1
    34b4:	059b0104 	ldreq	r0, [fp, #260]	; 0x104
    34b8:	800c0000 	andhi	r0, ip, r0
    34bc:	6c000008 	stcvs	0, cr0, [r0], {8}
    34c0:	fc000006 	stc2	0, cr0, [r0], {6}
    34c4:	04000096 	streq	r0, [r0], #-150	; 0xffffff6a
    34c8:	e6000000 	str	r0, [r0], -r0
    34cc:	0200001c 	andeq	r0, r0, #28, 0
    34d0:	6e690504 	cdpvs	5, 6, cr0, cr9, cr4, {0}
    34d4:	04030074 	streq	r0, [r3], #-116	; 0xffffff8c
    34d8:	00010c07 	andeq	r0, r1, r7, lsl #24
    34dc:	06010300 	streq	r0, [r1], -r0, lsl #6
    34e0:	000000e4 	andeq	r0, r0, r4, ror #1
    34e4:	40050203 	andmi	r0, r5, r3, lsl #4
    34e8:	03000000 	movweq	r0, #0
    34ec:	00820504 	addeq	r0, r2, r4, lsl #10
    34f0:	08030000 	stmdaeq	r3, {}	; <UNPREDICTABLE>
    34f4:	00007d05 	andeq	r7, r0, r5, lsl #26
    34f8:	08010300 	stmdaeq	r1, {r8, r9}
    34fc:	000000e2 	andeq	r0, r0, r2, ror #1
    3500:	33070203 	movwcc	r0, #29187	; 0x7203
    3504:	03000001 	movweq	r0, #1
    3508:	01070704 	tsteq	r7, r4, lsl #14
    350c:	08030000 	stmdaeq	r3, {}	; <UNPREDICTABLE>
    3510:	00010207 	andeq	r0, r1, r7, lsl #4
    3514:	00250400 	eoreq	r0, r5, r0, lsl #8
    3518:	007a0000 	rsbseq	r0, sl, r0
    351c:	25050000 	strcs	r0, [r5, #-0]
    3520:	00000000 	andeq	r0, r0, r0
    3524:	00004a06 	andeq	r4, r0, r6, lsl #20
    3528:	0e1c0200 	cdpeq	2, 1, cr0, cr12, cr0, {0}
    352c:	00000086 	andeq	r0, r0, r6, lsl #1
    3530:	006b0407 	rsbeq	r0, fp, r7, lsl #8
    3534:	25040000 	strcs	r0, [r4, #-0]
    3538:	9b000000 	blls	3540 <__code_start__-0x4ac0>
    353c:	05000000 	streq	r0, [r0, #-0]
    3540:	0000009b 	muleq	r0, fp, r0
    3544:	a8040700 	stmdage	r4, {r8, r9, sl}
    3548:	03000000 	movweq	r0, #0
    354c:	00eb0801 	rsceq	r0, fp, r1, lsl #16
    3550:	a1080000 	mrsge	r0, (UNDEF: 8)
    3554:	06000000 	streq	r0, [r0], -r0
    3558:	0000072a 	andeq	r0, r0, sl, lsr #14
    355c:	b90e2102 	stmdblt	lr, {r1, r8, sp}
    3560:	07000000 	streq	r0, [r0, -r0]
    3564:	00008c04 	andeq	r8, r0, r4, lsl #24
    3568:	085d0900 	ldmdaeq	sp, {r8, fp}^
    356c:	04010000 	streq	r0, [r1], #-0
    3570:	0096fc06 	addseq	pc, r6, r6, lsl #24
    3574:	00000400 	andeq	r0, r0, r0, lsl #8
    3578:	009c0100 	addseq	r0, ip, r0, lsl #2
    357c:	00000236 	andeq	r0, r0, r6, lsr r2
    3580:	11f70004 	mvnsne	r0, r4
    3584:	01040000 	mrseq	r0, (UNDEF: 4)
    3588:	0000059b 	muleq	r0, fp, r5
    358c:	0008c80c 	andeq	ip, r8, ip, lsl #16
    3590:	00066c00 	andeq	r6, r6, r0, lsl #24
    3594:	00009800 	andeq	r9, r0, r0, lsl #16
    3598:	00000000 	andeq	r0, r0, r0
    359c:	001d8d00 	andseq	r8, sp, r0, lsl #26
    35a0:	05040200 	streq	r0, [r4, #-512]	; 0xfffffe00
    35a4:	00746e69 	rsbseq	r6, r4, r9, ror #28
    35a8:	00002503 	andeq	r2, r0, r3, lsl #10
    35ac:	07040400 	streq	r0, [r4, -r0, lsl #8]
    35b0:	0000010c 	andeq	r0, r0, ip, lsl #2
    35b4:	e4060104 	str	r0, [r6], #-260	; 0xfffffefc
    35b8:	04000000 	streq	r0, [r0], #-0
    35bc:	00400502 	subeq	r0, r0, r2, lsl #10
    35c0:	04040000 	streq	r0, [r4], #-0
    35c4:	00008205 	andeq	r8, r0, r5, lsl #4
    35c8:	05080400 	streq	r0, [r8, #-1024]	; 0xfffffc00
    35cc:	0000007d 	andeq	r0, r0, sp, ror r0
    35d0:	e2080104 	and	r0, r8, #1
    35d4:	04000000 	streq	r0, [r0], #-0
    35d8:	01330702 	teqeq	r3, r2, lsl #14
    35dc:	04040000 	streq	r0, [r4], #-0
    35e0:	00010707 	andeq	r0, r1, r7, lsl #14
    35e4:	07080400 	streq	r0, [r8, -r0, lsl #8]
    35e8:	00000102 	andeq	r0, r0, r2, lsl #2
    35ec:	00002505 	andeq	r2, r0, r5, lsl #10
    35f0:	00007f00 	andeq	r7, r0, r0, lsl #30
    35f4:	00250600 	eoreq	r0, r5, r0, lsl #12
    35f8:	07000000 	streq	r0, [r0, -r0]
    35fc:	0000004a 	andeq	r0, r0, sl, asr #32
    3600:	8b0e1c02 	blhi	38a610 <__bss_end__+0x37f808>
    3604:	08000000 	stmdaeq	r0, {}	; <UNPREDICTABLE>
    3608:	00007004 	andeq	r7, r0, r4
    360c:	00250500 	eoreq	r0, r5, r0, lsl #10
    3610:	00a00000 	adceq	r0, r0, r0
    3614:	a0060000 	andge	r0, r6, r0
    3618:	00000000 	andeq	r0, r0, r0
    361c:	00ad0408 	adceq	r0, sp, r8, lsl #8
    3620:	01040000 	mrseq	r0, (UNDEF: 4)
    3624:	0000eb08 	andeq	lr, r0, r8, lsl #22
    3628:	00a60300 	adceq	r0, r6, r0, lsl #6
    362c:	2a070000 	bcs	1c3634 <__bss_end__+0x1b882c>
    3630:	02000007 	andeq	r0, r0, #7, 0
    3634:	00be0e21 	adcseq	r0, lr, r1, lsr #28
    3638:	04080000 	streq	r0, [r8], #-0
    363c:	00000091 	muleq	r0, r1, r0
    3640:	0008ec09 	andeq	lr, r8, r9, lsl #24
    3644:	110d0100 	mrsne	r0, (UNDEF: 29)
    3648:	00000031 	andeq	r0, r0, r1, lsr r0
    364c:	0008060a 	andeq	r0, r8, sl, lsl #12
    3650:	061f0100 	ldreq	r0, [pc], -r0, lsl #2
    3654:	0000972c 	andeq	r9, r0, ip, lsr #14
    3658:	00000054 	andeq	r0, r0, r4, asr r0
    365c:	01ae9c01 			; <UNDEFINED> instruction: 0x01ae9c01
    3660:	100b0000 	andne	r0, fp, r0
    3664:	01000009 	tsteq	r0, r9
    3668:	002c0f2c 	eoreq	r0, ip, ip, lsr #30
    366c:	17680000 	strbne	r0, [r8, -r0]!
    3670:	17660000 	strbne	r0, [r6, -r0]!
    3674:	ab0b0000 	blge	2c367c <__bss_end__+0x2b8874>
    3678:	01000008 	tsteq	r0, r8
    367c:	002c0f2d 	eoreq	r0, ip, sp, lsr #30
    3680:	17820000 	strne	r0, [r2, r0]
    3684:	17800000 	strne	r0, [r0, r0]
    3688:	dd0b0000 	stcle	0, cr0, [fp, #-0]
    368c:	01000008 	tsteq	r0, r8
    3690:	002c0f2e 	eoreq	r0, ip, lr, lsr #30
    3694:	179c0000 	ldrne	r0, [ip, r0]
    3698:	179a0000 	ldrne	r0, [sl, r0]
    369c:	f70b0000 			; <UNDEFINED> instruction: 0xf70b0000
    36a0:	01000008 	tsteq	r0, r8
    36a4:	002c0f2f 	eoreq	r0, ip, pc, lsr #30
    36a8:	17b50000 	ldrne	r0, [r5, r0]!
    36ac:	17b30000 	ldrne	r0, [r3, r0]!
    36b0:	340c0000 	strcc	r0, [ip], #-0
    36b4:	d9000097 	stmdble	r0, {r0, r1, r2, r4, r7}
    36b8:	0c000001 	stceq	0, cr0, [r0], {1}
    36bc:	00009740 	andeq	r9, r0, r0, asr #14
    36c0:	00000208 	andeq	r0, r0, r8, lsl #4
    36c4:	0097440c 	addseq	r4, r7, ip, lsl #8
    36c8:	00021500 	andeq	r1, r2, r0, lsl #10
    36cc:	974c0d00 	strbls	r0, [ip, -r0, lsl #26]
    36d0:	02210000 	eoreq	r0, r1, #0, 0
    36d4:	01640000 	cmneq	r4, r0
    36d8:	010e0000 	mrseq	r0, (UNDEF: 14)
    36dc:	003a0150 	eorseq	r0, sl, r0, asr r1
    36e0:	0097580d 	addseq	r5, r7, sp, lsl #16
    36e4:	00022d00 	andeq	r2, r2, r0, lsl #26
    36e8:	00018400 	andeq	r8, r1, r0, lsl #8
    36ec:	50010e00 	andpl	r0, r1, r0, lsl #28
    36f0:	00240c05 	eoreq	r0, r4, r5, lsl #24
    36f4:	010e2010 	tsteq	lr, r0, lsl r0
    36f8:	010c0551 	tsteq	ip, r1, asr r5
    36fc:	005a0000 	subseq	r0, sl, r0
    3700:	0097640d 	addseq	r6, r7, sp, lsl #8
    3704:	00022d00 	andeq	r2, r2, r0, lsl #26
    3708:	0001a400 	andeq	sl, r1, r0, lsl #8
    370c:	50010e00 	andpl	r0, r1, r0, lsl #28
    3710:	001c0c05 	andseq	r0, ip, r5, lsl #24
    3714:	010e2010 	tsteq	lr, r0, lsl r0
    3718:	200c0551 	andcs	r0, ip, r1, asr r5
    371c:	005a0000 	subseq	r0, sl, r0
    3720:	00976c0c 	addseq	r6, r7, ip, lsl #24
    3724:	0001ae00 	andeq	sl, r1, r0, lsl #28
    3728:	b90f0000 	stmdblt	pc, {}	; <UNPREDICTABLE>
    372c:	01000008 	tsteq	r0, r8
    3730:	97180617 			; <UNDEFINED> instruction: 0x97180617
    3734:	00140000 	andseq	r0, r4, r0
    3738:	9c010000 	stcls	0, cr0, [r1], {-0}
    373c:	000001d9 	ldrdeq	r0, [r0], -r9
    3740:	0009180b 	andeq	r1, r9, fp, lsl #16
    3744:	0e180100 	mufeqe	f0, f0, f0
    3748:	00000031 	andeq	r0, r0, r1, lsr r0
    374c:	000017d0 	ldrdeq	r1, [r0], -r0
    3750:	000017ca 	andeq	r1, r0, sl, asr #15
    3754:	08e91000 	stmiaeq	r9!, {ip}^
    3758:	0e010000 	cdpeq	0, 0, cr0, cr1, cr0, {0}
    375c:	00002505 	andeq	r2, r0, r5, lsl #10
    3760:	00970000 	addseq	r0, r7, r0
    3764:	00001800 	andeq	r1, r0, r0, lsl #16
    3768:	089c0100 	ldmeq	ip, {r8}
    376c:	0b000002 	bleq	377c <__code_start__-0x4884>
    3770:	00000918 	andeq	r0, r0, r8, lsl r9
    3774:	310e0f01 	tstcc	lr, r1, lsl #30
    3778:	fe000000 	cdp2	0, 0, cr0, cr0, cr0, {0}
    377c:	fa000017 	blx	37e0 <__code_start__-0x4820>
    3780:	00000017 	andeq	r0, r0, r7, lsl r0
    3784:	00089c11 	andeq	r9, r8, r1, lsl ip
    3788:	00089c00 	andeq	r9, r8, r0, lsl #24
    378c:	013b0200 	teqeq	fp, r0, lsl #4
    3790:	08351206 	ldmdaeq	r5!, {r1, r2, r9, ip}
    3794:	08350000 	ldmdaeq	r5!, {}	; <UNPREDICTABLE>
    3798:	4d020000 	stcmi	0, cr0, [r2, #-0]
    379c:	08111206 	ldmdaeq	r1, {r1, r2, r9, ip}
    37a0:	08110000 	ldmdaeq	r1, {}	; <UNPREDICTABLE>
    37a4:	58020000 	stmdapl	r2, {}	; <UNPREDICTABLE>
    37a8:	08b31206 	ldmeq	r3!, {r1, r2, r9, ip}
    37ac:	08b30000 	ldmeq	r3!, {}	; <UNPREDICTABLE>
    37b0:	b2020000 	andlt	r0, r2, #0, 0
    37b4:	024d0006 	subeq	r0, sp, #6, 0
    37b8:	00040000 	andeq	r0, r4, r0
    37bc:	0000131c 	andeq	r1, r0, ip, lsl r3
    37c0:	059b0104 	ldreq	r0, [fp, #260]	; 0x104
    37c4:	330c0000 	movwcc	r0, #49152	; 0xc000
    37c8:	6c000009 	stcvs	0, cr0, [r0], {9}
    37cc:	80000006 	andhi	r0, r0, r6
    37d0:	84000097 	strhi	r0, [r0], #-151	; 0xffffff69
    37d4:	84000000 	strhi	r0, [r0], #-0
    37d8:	0200001e 	andeq	r0, r0, #30, 0
    37dc:	6e690504 	cdpvs	5, 6, cr0, cr9, cr4, {0}
    37e0:	04030074 	streq	r0, [r3], #-116	; 0xffffff8c
    37e4:	00010c07 	andeq	r0, r1, r7, lsl #24
    37e8:	06010300 	streq	r0, [r1], -r0, lsl #6
    37ec:	000000e4 	andeq	r0, r0, r4, ror #1
    37f0:	40050203 	andmi	r0, r5, r3, lsl #4
    37f4:	03000000 	movweq	r0, #0
    37f8:	00820504 	addeq	r0, r2, r4, lsl #10
    37fc:	08030000 	stmdaeq	r3, {}	; <UNPREDICTABLE>
    3800:	00007d05 	andeq	r7, r0, r5, lsl #26
    3804:	08010300 	stmdaeq	r1, {r8, r9}
    3808:	000000e2 	andeq	r0, r0, r2, ror #1
    380c:	33070203 	movwcc	r0, #29187	; 0x7203
    3810:	03000001 	movweq	r0, #1
    3814:	01070704 	tsteq	r7, r4, lsl #14
    3818:	08030000 	stmdaeq	r3, {}	; <UNPREDICTABLE>
    381c:	00010207 	andeq	r0, r1, r7, lsl #4
    3820:	00250400 	eoreq	r0, r5, r0, lsl #8
    3824:	007a0000 	rsbseq	r0, sl, r0
    3828:	25050000 	strcs	r0, [r5, #-0]
    382c:	00000000 	andeq	r0, r0, r0
    3830:	00004a06 	andeq	r4, r0, r6, lsl #20
    3834:	0e1c0200 	cdpeq	2, 1, cr0, cr12, cr0, {0}
    3838:	00000086 	andeq	r0, r0, r6, lsl #1
    383c:	006b0407 	rsbeq	r0, fp, r7, lsl #8
    3840:	25040000 	strcs	r0, [r4, #-0]
    3844:	9b000000 	blls	384c <__code_start__-0x47b4>
    3848:	05000000 	streq	r0, [r0, #-0]
    384c:	0000009b 	muleq	r0, fp, r0
    3850:	a8040700 	stmdage	r4, {r8, r9, sl}
    3854:	03000000 	movweq	r0, #0
    3858:	00eb0801 	rsceq	r0, fp, r1, lsl #16
    385c:	a1080000 	mrsge	r0, (UNDEF: 8)
    3860:	06000000 	streq	r0, [r0], -r0
    3864:	0000072a 	andeq	r0, r0, sl, lsr #14
    3868:	b90e2102 	stmdblt	lr, {r1, r8, sp}
    386c:	07000000 	streq	r0, [r0, -r0]
    3870:	00008c04 	andeq	r8, r0, r4, lsl #24
    3874:	09290900 	stmdbeq	r9!, {r8, fp}
    3878:	1e010000 	cdpne	0, 0, cr0, cr1, cr0, {0}
    387c:	0097ec06 	addseq	lr, r7, r6, lsl #24
    3880:	00001800 	andeq	r1, r0, r0, lsl #16
    3884:	099c0100 	ldmibeq	ip, {r8}
    3888:	0a000001 	beq	3894 <__code_start__-0x476c>
    388c:	00636573 	rsbeq	r6, r3, r3, ror r5
    3890:	2c191e01 	ldccs	14, cr1, [r9], {1}
    3894:	21000000 	mrscs	r0, (UNDEF: 0)
    3898:	1d000018 	stcne	0, cr0, [r0, #-96]	; 0xffffffa0
    389c:	0b000018 	bleq	3904 <__code_start__-0x46fc>
    38a0:	00009800 	andeq	r9, r0, r0, lsl #16
    38a4:	00000109 	andeq	r0, r0, r9, lsl #2
    38a8:	1150010c 	cmpne	r0, ip, lsl #2
    38ac:	355001f3 	ldrbcc	r0, [r0, #-499]	; 0xfffffe0d
    38b0:	5001f324 	andpl	pc, r1, r4, lsr #6
    38b4:	f324321c 	vqsub.u32	d3, d4, d12
    38b8:	33225001 			; <UNDEFINED> instruction: 0x33225001
    38bc:	09000024 	stmdbeq	r0, {r2, r5}
    38c0:	00000811 	andeq	r0, r0, r1, lsl r8
    38c4:	d4061b01 	strle	r1, [r6], #-2817	; 0xfffff4ff
    38c8:	18000097 	stmdane	r0, {r0, r1, r2, r4, r7}
    38cc:	01000000 	mrseq	r0, (UNDEF: 0)
    38d0:	0001529c 	muleq	r1, ip, r2
    38d4:	736d0a00 	cmnvc	sp, #0, 20
    38d8:	181b0100 	ldmdane	fp, {r8}
    38dc:	0000002c 	andeq	r0, r0, ip, lsr #32
    38e0:	00001846 	andeq	r1, r0, r6, asr #16
    38e4:	00001842 	andeq	r1, r0, r2, asr #16
    38e8:	0097e80b 	addseq	lr, r7, fp, lsl #16
    38ec:	00015200 	andeq	r5, r1, r0, lsl #4
    38f0:	50010c00 	andpl	r0, r1, r0, lsl #24
    38f4:	5001f311 	andpl	pc, r1, r1, lsl r3	; <UNPREDICTABLE>
    38f8:	01f32435 	mvnseq	r2, r5, lsr r4
    38fc:	24321c50 	ldrtcs	r1, [r2], #-3152	; 0xfffff3b0
    3900:	225001f3 	subscs	r0, r0, #-1073741764	; 0xc000003c
    3904:	00002433 	andeq	r2, r0, r3, lsr r4
    3908:	00095c09 	andeq	r5, r9, r9, lsl #24
    390c:	06120100 	ldreq	r0, [r2], -r0, lsl #2
    3910:	000097b0 			; <UNDEFINED> instruction: 0x000097b0
    3914:	00000024 	andeq	r0, r0, r4, lsr #32
    3918:	01c29c01 	biceq	r9, r2, r1, lsl #24
    391c:	750a0000 	strvc	r0, [sl, #-0]
    3920:	12010073 	andne	r0, r1, #115, 0	; 0x73
    3924:	00002c18 	andeq	r2, r0, r8, lsl ip
    3928:	00186b00 	andseq	r6, r8, r0, lsl #22
    392c:	00186700 	andseq	r6, r8, r0, lsl #14
    3930:	62720d00 	rsbsvs	r0, r2, #0, 26
    3934:	0e130100 	mufeqs	f0, f3, f0
    3938:	0000002c 	andeq	r0, r0, ip, lsr #32
    393c:	0000188b 	andeq	r1, r0, fp, lsl #17
    3940:	00001889 	andeq	r1, r0, r9, lsl #17
    3944:	0097c00e 	addseq	ip, r7, lr
    3948:	00001400 	andeq	r1, r0, r0, lsl #8
    394c:	0001b800 	andeq	fp, r1, r0, lsl #16
    3950:	61720d00 	cmnvs	r2, r0, lsl #26
    3954:	12150100 	andsne	r0, r5, #0
    3958:	0000002c 	andeq	r0, r0, ip, lsr #32
    395c:	000018a0 	andeq	r1, r0, r0, lsr #17
    3960:	0000189e 	muleq	r0, lr, r8
    3964:	0097c40f 	addseq	ip, r7, pc, lsl #8
    3968:	0001c200 	andeq	ip, r1, r0, lsl #4
    396c:	bc0f0000 	stclt	0, cr0, [pc], {-0}
    3970:	c2000097 	andgt	r0, r0, #151, 0	; 0x97
    3974:	00000001 	andeq	r0, r0, r1
    3978:	00094d10 	andeq	r4, r9, r0, lsl sp
    397c:	0a090100 	beq	243d84 <__bss_end__+0x238f7c>
    3980:	0000002c 	andeq	r0, r0, ip, lsr #32
    3984:	00009794 	muleq	r0, r4, r7
    3988:	0000001c 	andeq	r0, r0, ip, lsl r0
    398c:	020a9c01 	andeq	r9, sl, #256	; 0x100
    3990:	750d0000 	strvc	r0, [sp, #-0]
    3994:	0e0d0100 	adfeqe	f0, f5, f0
    3998:	0000002c 	andeq	r0, r0, ip, lsr #32
    399c:	000018b7 			; <UNDEFINED> instruction: 0x000018b7
    39a0:	000018b3 			; <UNDEFINED> instruction: 0x000018b3
    39a4:	00979c0f 	addseq	r9, r7, pc, lsl #24
    39a8:	00023800 	andeq	r3, r2, r0, lsl #16
    39ac:	97a00f00 	strls	r0, [r0, r0, lsl #30]!
    39b0:	020a0000 	andeq	r0, sl, #0, 0
    39b4:	a80f0000 	stmdage	pc, {}	; <UNPREDICTABLE>
    39b8:	38000097 	stmdacc	r0, {r0, r1, r2, r4, r7}
    39bc:	00000002 	andeq	r0, r0, r2
    39c0:	00096510 	andeq	r6, r9, r0, lsl r5
    39c4:	0a040100 	beq	103dcc <__bss_end__+0xf8fc4>
    39c8:	0000002c 	andeq	r0, r0, ip, lsr #32
    39cc:	00009780 	andeq	r9, r0, r0, lsl #15
    39d0:	00000014 	andeq	r0, r0, r4, lsl r0
    39d4:	02389c01 	eorseq	r9, r8, #256	; 0x100
    39d8:	8c0b0000 	stchi	0, cr0, [fp], {-0}
    39dc:	44000097 	strmi	r0, [r0], #-151	; 0xffffff69
    39e0:	0c000002 	stceq	0, cr0, [r0], {2}
    39e4:	0c055001 	stceq	0, cr5, [r5], {1}
    39e8:	20003004 	andcs	r3, r0, r4
    39ec:	1d110000 	ldcne	0, cr0, [r1, #-0]
    39f0:	1d000009 	stcne	0, cr0, [r0, #-36]	; 0xffffffdc
    39f4:	02000009 	andeq	r0, r0, #9, 0
    39f8:	471106a1 	ldrmi	r0, [r1, -r1, lsr #13]
    39fc:	47000009 	strmi	r0, [r0, -r9]
    3a00:	02000009 	andeq	r0, r0, #9, 0
    3a04:	cd000ac7 	vstrgt	s0, [r0, #-796]	; 0xfffffce4
    3a08:	04000005 	streq	r0, [r0], #-5
    3a0c:	00141d00 	andseq	r1, r4, r0, lsl #26
    3a10:	78010400 	stmdavc	r1, {sl}
    3a14:	0c00000a 	stceq	0, cr0, [r0], {10}
    3a18:	000009b7 			; <UNDEFINED> instruction: 0x000009b7
    3a1c:	00000a28 	andeq	r0, r0, r8, lsr #20
    3a20:	00009804 	andeq	r9, r0, r4, lsl #16
    3a24:	000001f0 	strdeq	r0, [r0], -r0	; <UNPREDICTABLE>
    3a28:	00001f82 	andeq	r1, r0, r2, lsl #31
    3a2c:	69050402 	stmdbvs	r5, {r1, sl}
    3a30:	0300746e 	movweq	r7, #1134	; 0x46e
    3a34:	010c0704 	tsteq	ip, r4, lsl #14
    3a38:	2c040000 	stccs	0, cr0, [r4], {-0}
    3a3c:	03000000 	movweq	r0, #0
    3a40:	00e40601 	rsceq	r0, r4, r1, lsl #12
    3a44:	02030000 	andeq	r0, r3, #0, 0
    3a48:	00004005 	andeq	r4, r0, r5
    3a4c:	05040300 	streq	r0, [r4, #-768]	; 0xfffffd00
    3a50:	00000082 	andeq	r0, r0, r2, lsl #1
    3a54:	7d050803 	stcvc	8, cr0, [r5, #-12]
    3a58:	03000000 	movweq	r0, #0
    3a5c:	00e20801 	rsceq	r0, r2, r1, lsl #16
    3a60:	02030000 	andeq	r0, r3, #0, 0
    3a64:	00013307 	andeq	r3, r1, r7, lsl #6
    3a68:	01190500 	tsteq	r9, r0, lsl #10
    3a6c:	34050000 	strcc	r0, [r5], #-0
    3a70:	00006e19 	andeq	r6, r0, r9, lsl lr
    3a74:	07040300 	streq	r0, [r4, -r0, lsl #6]
    3a78:	00000107 	andeq	r0, r0, r7, lsl #2
    3a7c:	02070803 	andeq	r0, r7, #196608	; 0x30000
    3a80:	03000001 	movweq	r0, #1
    3a84:	00eb0801 	rsceq	r0, fp, r1, lsl #16
    3a88:	07060000 	streq	r0, [r6, -r0]
    3a8c:	00005401 	andeq	r5, r0, r1, lsl #8
    3a90:	0e0c0400 	cfcpyseq	mvf0, mvf12
    3a94:	000000c2 	andeq	r0, r0, r2, asr #1
    3a98:	000b6207 	andeq	r6, fp, r7, lsl #4
    3a9c:	9a070000 	bls	1c3aa4 <__bss_end__+0x1b8c9c>
    3aa0:	01000009 	tsteq	r0, r9
    3aa4:	0009dd07 	andeq	sp, r9, r7, lsl #26
    3aa8:	ec070400 	cfstrs	mvf0, [r7], {-0}
    3aac:	05000009 	streq	r0, [r0, #-9]
    3ab0:	0009fb07 	andeq	pc, r9, r7, lsl #22
    3ab4:	0a070600 	beq	1c52bc <__bss_end__+0x1ba4b4>
    3ab8:	0700000a 	streq	r0, [r0, -sl]
    3abc:	000b2b07 	andeq	r2, fp, r7, lsl #22
    3ac0:	19070300 	stmdbne	r7, {r8, r9}
    3ac4:	0200000a 	andeq	r0, r0, #10, 0
    3ac8:	09ab0800 	stmibeq	fp!, {fp}
    3acc:	022c0000 	eoreq	r0, ip, #0, 0
    3ad0:	015e0806 	cmpeq	lr, r6, lsl #16
    3ad4:	69090000 	stmdbvs	r9, {}	; <UNPREDICTABLE>
    3ad8:	0902006f 	stmdbeq	r2, {r0, r1, r2, r3, r5, r6}
    3adc:	00003309 	andeq	r3, r0, r9, lsl #6
    3ae0:	69090000 	stmdbvs	r9, {}	; <UNPREDICTABLE>
    3ae4:	02007265 	andeq	r7, r0, #1342177286	; 0x50000006
    3ae8:	0033090a 	eorseq	r0, r3, sl, lsl #18
    3aec:	09040000 	stmdbeq	r4, {}	; <UNPREDICTABLE>
    3af0:	00726969 	rsbseq	r6, r2, r9, ror #18
    3af4:	33091102 	movwcc	r1, #37122	; 0x9102
    3af8:	08000000 	stmdaeq	r0, {}	; <UNPREDICTABLE>
    3afc:	72636c09 	rsbvc	r6, r3, #2304	; 0x900
    3b00:	09130200 	ldmdbeq	r3, {r9}
    3b04:	00000033 	andeq	r0, r0, r3, lsr r0
    3b08:	636d090c 	cmnvs	sp, #12, 18	; 0x30000
    3b0c:	14020072 	strne	r0, [r2], #-114	; 0xffffff8e
    3b10:	00003309 	andeq	r3, r0, r9, lsl #6
    3b14:	6c091000 	stcvs	0, cr1, [r9], {-0}
    3b18:	02007273 	andeq	r7, r0, #805306375	; 0x30000007
    3b1c:	00330915 	eorseq	r0, r3, r5, lsl r9
    3b20:	09140000 	ldmdbeq	r4, {}	; <UNPREDICTABLE>
    3b24:	0072736d 	rsbseq	r7, r2, sp, ror #6
    3b28:	33091602 	movwcc	r1, #38402	; 0x9602
    3b2c:	18000000 	stmdane	r0, {}	; <UNPREDICTABLE>
    3b30:	000b420a 	andeq	r4, fp, sl, lsl #4
    3b34:	09170200 	ldmdbeq	r7, {r9}
    3b38:	00000033 	andeq	r0, r0, r3, lsr r0
    3b3c:	0b0b0a1c 	bleq	2c63b4 <__bss_end__+0x2bb5ac>
    3b40:	1b020000 	blne	83b48 <__bss_end__+0x78d40>
    3b44:	00003309 	andeq	r3, r0, r9, lsl #6
    3b48:	870a2000 	strhi	r2, [sl, -r0]
    3b4c:	02000009 	andeq	r0, r0, #9, 0
    3b50:	0033091d 	eorseq	r0, r3, sp, lsl r9
    3b54:	0a240000 	beq	903b5c <__bss_end__+0x8f8d54>
    3b58:	00000a5d 	andeq	r0, r0, sp, asr sl
    3b5c:	33091e02 	movwcc	r1, #40450	; 0x9e02
    3b60:	28000000 	stmdacs	r0, {}	; <UNPREDICTABLE>
    3b64:	0a620b00 	beq	188676c <__bss_end__+0x187b964>
    3b68:	08010000 	stmdaeq	r1, {}	; <UNPREDICTABLE>
    3b6c:	00017409 	andeq	r7, r1, r9, lsl #8
    3b70:	21500400 	cmpcs	r0, r0, lsl #8
    3b74:	33040c20 	movwcc	r0, #19488	; 0x4c20
    3b78:	0d000000 	stceq	0, cr0, [r0, #-0]
    3b7c:	0000016e 	andeq	r0, r0, lr, ror #2
    3b80:	000b4a0b 	andeq	r4, fp, fp, lsl #20
    3b84:	23290100 			; <UNDEFINED> instruction: 0x23290100
    3b88:	0000018f 	andeq	r0, r0, pc, lsl #3
    3b8c:	20215040 	eorcs	r5, r1, r0, asr #32
    3b90:	00c2040c 	sbceq	r0, r2, ip, lsl #8
    3b94:	890d0000 	stmdbhi	sp, {}	; <UNPREDICTABLE>
    3b98:	0e000001 	cdpeq	0, 0, cr0, cr0, cr1, {0}
    3b9c:	00000835 	andeq	r0, r0, r5, lsr r8
    3ba0:	bc06cc01 	stclt	12, cr12, [r6], {1}
    3ba4:	14000099 	strne	r0, [r0], #-153	; 0xffffff67
    3ba8:	01000000 	mrseq	r0, (UNDEF: 0)
    3bac:	0001b49c 	muleq	r1, ip, r4
    3bb0:	99c40f00 	stmibls	r4, {r8, r9, sl, fp}^
    3bb4:	01b40000 			; <UNDEFINED> instruction: 0x01b40000
    3bb8:	10000000 	andne	r0, r0, r0
    3bbc:	000009cc 	andeq	r0, r0, ip, asr #19
    3bc0:	2505b601 	strcs	fp, [r5, #-1537]	; 0xfffff9ff
    3bc4:	9c000000 	stcls	0, cr0, [r0], {-0}
    3bc8:	20000099 	mulcs	r0, r9, r0
    3bcc:	01000000 	mrseq	r0, (UNDEF: 0)
    3bd0:	0001eb9c 	muleq	r1, ip, fp
    3bd4:	99a40f00 	stmibls	r4!, {r8, r9, sl, fp}
    3bd8:	05a00000 	streq	r0, [r0, #0]!
    3bdc:	ac110000 	ldcge	0, cr0, [r1], {-0}
    3be0:	ac000099 	stcge	0, cr0, [r0], {153}	; 0x99
    3be4:	12000005 	andne	r0, r0, #5, 0
    3be8:	0c055001 	stceq	0, cr5, [r5], {1}
    3bec:	20215064 	eorcs	r5, r1, r4, rrx
    3bf0:	1d100000 	ldcne	0, cr0, [r0, #-0]
    3bf4:	0100000b 	tsteq	r0, fp
    3bf8:	002505b3 	strhteq	r0, [r5], -r3
    3bfc:	998c0000 	stmibls	ip, {}	; <UNPREDICTABLE>
    3c00:	00100000 	andseq	r0, r0, r0
    3c04:	9c010000 	stcls	0, cr0, [r1], {-0}
    3c08:	00000218 	andeq	r0, r0, r8, lsl r2
    3c0c:	0099940f 	addseq	r9, r9, pc, lsl #8
    3c10:	0005a000 	andeq	sl, r5, r0
    3c14:	99980f00 	ldmibls	r8, {r8, r9, sl, fp}
    3c18:	03090000 	movweq	r0, #36864	; 0x9000
    3c1c:	0e000000 	cdpeq	0, 0, cr0, cr0, cr0, {0}
    3c20:	00000b58 	andeq	r0, r0, r8, asr fp
    3c24:	5c06ab01 			; <UNDEFINED> instruction: 0x5c06ab01
    3c28:	30000099 	mulcc	r0, r9, r0
    3c2c:	01000000 	mrseq	r0, (UNDEF: 0)
    3c30:	00027c9c 	muleq	r2, ip, ip
    3c34:	00631300 	rsbeq	r1, r3, r0, lsl #6
    3c38:	2c19ab01 			; <UNDEFINED> instruction: 0x2c19ab01
    3c3c:	d9000000 	stmdble	r0, {}	; <UNPREDICTABLE>
    3c40:	d5000018 	strle	r0, [r0, #-24]	; 0xffffffe8
    3c44:	0f000018 	svceq	0x00000018
    3c48:	00009968 	andeq	r9, r0, r8, ror #18
    3c4c:	000005a0 	andeq	r0, r0, r0, lsr #11
    3c50:	00996c0f 	addseq	r6, r9, pc, lsl #24
    3c54:	0002db00 	andeq	sp, r2, r0, lsl #22
    3c58:	99801400 	stmibls	r0, {sl, ip}
    3c5c:	05b80000 	ldreq	r0, [r8, #0]!
    3c60:	02720000 	rsbseq	r0, r2, #0, 0
    3c64:	01120000 	tsteq	r2, r0
    3c68:	400c0550 	andmi	r0, ip, r0, asr r5
    3c6c:	12202150 	eorne	r2, r0, #20
    3c70:	74055101 	strvc	r5, [r5], #-257	; 0xfffffeff
    3c74:	1aff0800 	bne	fffc5c7c <__bss_end__+0xfffbae74>
    3c78:	99840f00 	stmibls	r4, {r8, r9, sl, fp}
    3c7c:	05a00000 	streq	r0, [r0, #0]!
    3c80:	10000000 	andne	r0, r0, r0
    3c84:	00000a6e 	andeq	r0, r0, lr, ror #20
    3c88:	2505a301 	strcs	sl, [r5, #-769]	; 0xfffffcff
    3c8c:	2c000000 	stccs	0, cr0, [r0], {-0}
    3c90:	30000099 	mulcc	r0, r9, r0
    3c94:	01000000 	mrseq	r0, (UNDEF: 0)
    3c98:	0002db9c 	muleq	r2, ip, fp
    3c9c:	00631500 	rsbeq	r1, r3, r0, lsl #10
    3ca0:	2509a701 	strcs	sl, [r9, #-1793]	; 0xfffff8ff
    3ca4:	f9000000 			; <UNDEFINED> instruction: 0xf9000000
    3ca8:	f7000018 			; <UNDEFINED> instruction: 0xf7000018
    3cac:	0f000018 	svceq	0x00000018
    3cb0:	00009934 	andeq	r9, r0, r4, lsr r9
    3cb4:	000005a0 	andeq	r0, r0, r0, lsr #11
    3cb8:	0099380f 	addseq	r3, r9, pc, lsl #16
    3cbc:	00030900 	andeq	r0, r3, r0, lsl #18
    3cc0:	99481400 	stmdbls	r8, {sl, ip}^
    3cc4:	05ac0000 	streq	r0, [ip, #0]!
    3cc8:	02d10000 	sbcseq	r0, r1, #0, 0
    3ccc:	01120000 	tsteq	r2, r0
    3cd0:	400c0550 	andmi	r0, ip, r0, asr r5
    3cd4:	00202150 	eoreq	r2, r0, r0, asr r1
    3cd8:	0099500f 	addseq	r5, r9, pc
    3cdc:	0005a000 	andeq	sl, r5, r0
    3ce0:	be100000 	cdplt	0, 1, cr0, cr0, cr0, {0}
    3ce4:	01000009 	tsteq	r0, r9
    3ce8:	00250594 	mlaeq	r5, r4, r5, r0
    3cec:	990c0000 	stmdbls	ip, {}	; <UNPREDICTABLE>
    3cf0:	00200000 	eoreq	r0, r0, r0
    3cf4:	9c010000 	stcls	0, cr0, [r1], {-0}
    3cf8:	00000309 	andeq	r0, r0, r9, lsl #6
    3cfc:	00991811 	addseq	r1, r9, r1, lsl r8
    3d00:	0005ac00 	andeq	sl, r5, r0, lsl #24
    3d04:	50011200 	andpl	r1, r1, r0, lsl #4
    3d08:	50640c05 	rsbpl	r0, r4, r5, lsl #24
    3d0c:	00002021 	andeq	r2, r0, r1, lsr #32
    3d10:	00098c10 	andeq	r8, r9, r0, lsl ip
    3d14:	058b0100 	streq	r0, [fp, #256]	; 0x100
    3d18:	00000025 	andeq	r0, r0, r5, lsr #32
    3d1c:	000098f4 	strdeq	r9, [r0], -r4
    3d20:	00000018 	andeq	r0, r0, r8, lsl r0
    3d24:	03379c01 	teqeq	r7, #256	; 0x100
    3d28:	00110000 	andseq	r0, r1, r0
    3d2c:	ac000099 	stcge	0, cr0, [r0], {153}	; 0x99
    3d30:	12000005 	andne	r0, r0, #5, 0
    3d34:	0c055001 	stceq	0, cr5, [r5], {1}
    3d38:	20215064 	eorcs	r5, r1, r4, rrx
    3d3c:	530e0000 	movwpl	r0, #57344	; 0xe000
    3d40:	01000008 	tsteq	r0, r8
    3d44:	98440645 	stmdals	r4, {r0, r2, r6, r9, sl}^
    3d48:	00b00000 	adcseq	r0, r0, r0
    3d4c:	9c010000 	stcls	0, cr0, [r1], {-0}
    3d50:	00000484 	andeq	r0, r0, r4, lsl #9
    3d54:	00097e16 	andeq	r7, r9, r6, lsl lr
    3d58:	0e7e0100 	rpweqe	f0, f6, f0
    3d5c:	00000062 	andeq	r0, r0, r2, rrx
    3d60:	5414010e 	ldrpl	r0, [r4], #-270	; 0xfffffef2
    3d64:	c4000098 	strgt	r0, [r0], #-152	; 0xffffff68
    3d68:	73000005 	movwvc	r0, #5
    3d6c:	12000003 	andne	r0, r0, #3, 0
    3d70:	3e015001 	cdpcc	0, 0, cr5, cr1, cr1, {0}
    3d74:	01510112 	cmpeq	r1, r2, lsl r1
    3d78:	60140032 	andsvs	r0, r4, r2, lsr r0
    3d7c:	c4000098 	strgt	r0, [r0], #-152	; 0xffffff68
    3d80:	8b000005 	blhi	3d9c <__code_start__-0x4264>
    3d84:	12000003 	andne	r0, r0, #3, 0
    3d88:	3f015001 	svccc	0x00015001
    3d8c:	01510112 	cmpeq	r1, r2, lsl r1
    3d90:	640f0032 	strvs	r0, [pc], #-50	; 3d98 <__code_start__-0x4268>
    3d94:	a0000098 	mulge	r0, r8, r0
    3d98:	14000005 	strne	r0, [r0], #-5
    3d9c:	00009870 	andeq	r9, r0, r0, ror r8
    3da0:	0000053d 	andeq	r0, r0, sp, lsr r5
    3da4:	000003b0 			; <UNDEFINED> instruction: 0x000003b0
    3da8:	05500112 	ldrbeq	r0, [r0, #-274]	; 0xfffffeee
    3dac:	2150040c 	cmpcs	r0, ip, lsl #8
    3db0:	51011220 	tstpl	r1, r0, lsr #4
    3db4:	0f003101 	svceq	0x00003101
    3db8:	00009874 	andeq	r9, r0, r4, ror r8
    3dbc:	000005a0 	andeq	r0, r0, r0, lsr #11
    3dc0:	00988414 	addseq	r8, r8, r4, lsl r4
    3dc4:	0005b800 	andeq	fp, r5, r0, lsl #16
    3dc8:	0003d200 	andeq	sp, r3, r0, lsl #4
    3dcc:	50011200 	andpl	r1, r1, r0, lsl #4
    3dd0:	12007402 	andne	r7, r0, #33554432	; 0x2000000
    3dd4:	30015101 	andcc	r5, r1, r1, lsl #2
    3dd8:	98901400 	ldmls	r0, {sl, ip}
    3ddc:	05b80000 	ldreq	r0, [r8, #0]!
    3de0:	03ee0000 	mvneq	r0, #0, 0
    3de4:	01120000 	tsteq	r2, r0
    3de8:	440c0550 	strmi	r0, [ip], #-1360	; 0xfffffab0
    3dec:	12202150 	eorne	r2, r0, #20
    3df0:	30015101 	andcc	r5, r1, r1, lsl #2
    3df4:	989c1400 	ldmls	ip, {sl, ip}
    3df8:	05b80000 	ldreq	r0, [r8, #0]!
    3dfc:	040a0000 	streq	r0, [sl], #-0
    3e00:	01120000 	tsteq	r2, r0
    3e04:	4c0c0550 	cfstr32mi	mvfx0, [ip], {80}	; 0x50
    3e08:	12202150 	eorne	r2, r0, #20
    3e0c:	33015101 	movwcc	r5, #4353	; 0x1101
    3e10:	98a81400 	stmials	r8!, {sl, ip}
    3e14:	05b80000 	ldreq	r0, [r8, #0]!
    3e18:	04260000 	strteq	r0, [r6], #-0
    3e1c:	01120000 	tsteq	r2, r0
    3e20:	500c0550 	andpl	r0, ip, r0, asr r5
    3e24:	12202150 	eorne	r2, r0, #20
    3e28:	30015101 	andcc	r5, r1, r1, lsl #2
    3e2c:	98b41400 	ldmls	r4!, {sl, ip}
    3e30:	05b80000 	ldreq	r0, [r8, #0]!
    3e34:	04430000 	strbeq	r0, [r3], #-0
    3e38:	01120000 	tsteq	r2, r0
    3e3c:	480c0550 	stmdami	ip, {r4, r6, r8, sl}
    3e40:	12202150 	eorne	r2, r0, #20
    3e44:	08025101 	stmdaeq	r2, {r0, r8, ip, lr}
    3e48:	c01400c7 	andsgt	r0, r4, r7, asr #1
    3e4c:	b8000098 	stmdalt	r0, {r3, r4, r7}
    3e50:	61000005 	tstvs	r0, r5
    3e54:	12000004 	andne	r0, r0, #4, 0
    3e58:	0c055001 	stceq	0, cr5, [r5], {1}
    3e5c:	20215068 	eorcs	r5, r1, r8, rrx
    3e60:	03510112 	cmpeq	r1, #-2147483644	; 0x80000004
    3e64:	00010e0a 	andeq	r0, r1, sl, lsl #28
    3e68:	0098cc14 	addseq	ip, r8, r4, lsl ip
    3e6c:	0005b800 	andeq	fp, r5, r0, lsl #16
    3e70:	00047a00 	andeq	r7, r4, r0, lsl #20
    3e74:	50011200 	andpl	r1, r1, r0, lsl #4
    3e78:	12007402 	andne	r7, r0, #33554432	; 0x2000000
    3e7c:	33015101 	movwcc	r5, #4353	; 0x1101
    3e80:	98d00f00 	ldmls	r0, {r8, r9, sl, fp}^
    3e84:	05a00000 	streq	r0, [r0, #0]!
    3e88:	0e000000 	cdpeq	0, 0, cr0, cr0, cr0, {0}
    3e8c:	00000b10 	andeq	r0, r0, r0, lsl fp
    3e90:	d0063501 	andle	r3, r6, r1, lsl #10
    3e94:	24000099 	strcs	r0, [r0], #-153	; 0xffffff67
    3e98:	01000000 	mrseq	r0, (UNDEF: 0)
    3e9c:	0004d39c 	muleq	r4, ip, r3
    3ea0:	99d80f00 	ldmibls	r8, {r8, r9, sl, fp}^
    3ea4:	01940000 	orrseq	r0, r4, r0
    3ea8:	dc0f0000 	stcle	0, cr0, [pc], {-0}
    3eac:	a0000099 	mulge	r0, r9, r0
    3eb0:	14000005 	strne	r0, [r0], #-5
    3eb4:	000099e8 	andeq	r9, r0, r8, ror #19
    3eb8:	000004d3 	ldrdeq	r0, [r0], -r3
    3ebc:	000004c9 	andeq	r0, r0, r9, asr #9
    3ec0:	05500112 	ldrbeq	r0, [r0, #-274]	; 0xfffffeee
    3ec4:	2150040c 	cmpcs	r0, ip, lsl #8
    3ec8:	51011220 	tstpl	r1, r0, lsr #4
    3ecc:	00fe0902 	rscseq	r0, lr, r2, lsl #18
    3ed0:	0099ec0f 	addseq	lr, r9, pc, lsl #24
    3ed4:	0005a000 	andeq	sl, r5, r0
    3ed8:	4f170000 	svcmi	0x00170000
    3edc:	0100000b 	tsteq	r0, fp
    3ee0:	98040d31 	stmdals	r4, {r0, r4, r5, r8, sl, fp}
    3ee4:	00200000 	eoreq	r0, r0, r0
    3ee8:	9c010000 	stcls	0, cr0, [r1], {-0}
    3eec:	00000536 	andeq	r0, r0, r6, lsr r5
    3ef0:	000ba918 	andeq	sl, fp, r8, lsl r9
    3ef4:	25310100 	ldrcs	r0, [r1, #-256]!	; 0xffffff00
    3ef8:	00000536 	andeq	r0, r0, r6, lsr r5
    3efc:	00001910 	andeq	r1, r0, r0, lsl r9
    3f00:	0000190c 	andeq	r1, r0, ip, lsl #18
    3f04:	6c617613 	stclvs	6, cr7, [r1], #-76	; 0xffffffb4
    3f08:	34310100 	ldrtcc	r0, [r1], #-256	; 0xffffff00
    3f0c:	0000002c 	andeq	r0, r0, ip, lsr #32
    3f10:	00001932 	andeq	r1, r0, r2, lsr r9
    3f14:	0000192e 	andeq	r1, r0, lr, lsr #18
    3f18:	00981414 	addseq	r1, r8, r4, lsl r4
    3f1c:	0005ac00 	andeq	sl, r5, r0, lsl #24
    3f20:	00052500 	andeq	r2, r5, r0, lsl #10
    3f24:	50011200 	andpl	r1, r1, r0, lsl #4
    3f28:	00007402 	andeq	r7, r0, r2, lsl #8
    3f2c:	00982011 	addseq	r2, r8, r1, lsl r0
    3f30:	0005b800 	andeq	fp, r5, r0, lsl #16
    3f34:	50011200 	andpl	r1, r1, r0, lsl #4
    3f38:	00007402 	andeq	r7, r0, r2, lsl #8
    3f3c:	3c040c00 	stccc	12, cr0, [r4], {-0}
    3f40:	19000005 	stmdbne	r0, {r0, r2}
    3f44:	000b3a17 	andeq	r3, fp, r7, lsl sl
    3f48:	0d2e0100 	stfeqs	f0, [lr, #-0]
    3f4c:	00009824 	andeq	r9, r0, r4, lsr #16
    3f50:	00000020 	andeq	r0, r0, r0, lsr #32
    3f54:	05a09c01 	streq	r9, [r0, #3073]!	; 0xc01
    3f58:	a9180000 	ldmdbge	r8, {}	; <UNPREDICTABLE>
    3f5c:	0100000b 	tsteq	r0, fp
    3f60:	0536242e 	ldreq	r2, [r6, #-1070]!	; 0xfffffbd2
    3f64:	19540000 	ldmdbne	r4, {}^	; <UNPREDICTABLE>
    3f68:	19500000 	ldmdbne	r0, {}^	; <UNPREDICTABLE>
    3f6c:	76130000 	ldrvc	r0, [r3], -r0
    3f70:	01006c61 	tsteq	r0, r1, ror #24
    3f74:	002c332e 	eoreq	r3, ip, lr, lsr #6
    3f78:	19760000 	ldmdbne	r6!, {}^	; <UNPREDICTABLE>
    3f7c:	19720000 	ldmdbne	r2!, {}^	; <UNPREDICTABLE>
    3f80:	34140000 	ldrcc	r0, [r4], #-0
    3f84:	ac000098 	stcge	0, cr0, [r0], {152}	; 0x98
    3f88:	8f000005 	svchi	0x00000005
    3f8c:	12000005 	andne	r0, r0, #5, 0
    3f90:	74025001 	strvc	r5, [r2], #-1
    3f94:	40110000 	andsmi	r0, r1, r0
    3f98:	b8000098 	stmdalt	r0, {r3, r4, r7}
    3f9c:	12000005 	andne	r0, r0, #5, 0
    3fa0:	74025001 	strvc	r5, [r2], #-1
    3fa4:	1a000000 	bne	3fac <__code_start__-0x4054>
    3fa8:	0000091d 	andeq	r0, r0, sp, lsl r9
    3fac:	0000091d 	andeq	r0, r0, sp, lsl r9
    3fb0:	1a06a103 	bne	1ac3c4 <__bss_end__+0x1a15bc>
    3fb4:	00000b84 	andeq	r0, r0, r4, lsl #23
    3fb8:	00000b84 	andeq	r0, r0, r4, lsl #23
    3fbc:	1a0bc803 	bne	2f5fd0 <__bss_end__+0x2eb1c8>
    3fc0:	00000978 	andeq	r0, r0, r8, ror r9
    3fc4:	00000978 	andeq	r0, r0, r8, ror r9
    3fc8:	1a06b303 	bne	1b0bdc <__bss_end__+0x1a5dd4>
    3fcc:	00000b72 	andeq	r0, r0, r2, ror fp
    3fd0:	00000b72 	andeq	r0, r0, r2, ror fp
    3fd4:	00061904 	andeq	r1, r6, r4, lsl #18
    3fd8:	000008e9 	andeq	r0, r0, r9, ror #17
    3fdc:	15b50004 	ldrne	r0, [r5, #4]!
    3fe0:	01040000 	mrseq	r0, (UNDEF: 4)
    3fe4:	00000a78 	andeq	r0, r0, r8, ror sl
    3fe8:	000c140c 	andeq	r1, ip, ip, lsl #8
    3fec:	000a2800 	andeq	r2, sl, r0, lsl #16
    3ff0:	0099f400 	addseq	pc, r9, r0, lsl #8
    3ff4:	0003b000 	andeq	fp, r3, r0
    3ff8:	00218b00 	eoreq	r8, r1, r0, lsl #22
    3ffc:	05040200 	streq	r0, [r4, #-512]	; 0xfffffe00
    4000:	00746e69 	rsbseq	r6, r4, r9, ror #28
    4004:	0c070403 	cfstrseq	mvf0, [r7], {3}
    4008:	03000001 	movweq	r0, #1
    400c:	00e40601 	rsceq	r0, r4, r1, lsl #12
    4010:	02030000 	andeq	r0, r3, #0, 0
    4014:	00004005 	andeq	r4, r0, r5
    4018:	05040300 	streq	r0, [r4, #-768]	; 0xfffffd00
    401c:	00000082 	andeq	r0, r0, r2, lsl #1
    4020:	7d050803 	stcvc	8, cr0, [r5, #-12]
    4024:	03000000 	movweq	r0, #0
    4028:	00e20801 	rsceq	r0, r2, r1, lsl #16
    402c:	02030000 	andeq	r0, r3, #0, 0
    4030:	00013307 	andeq	r3, r1, r7, lsl #6
    4034:	01190400 	tsteq	r9, r0, lsl #8
    4038:	34030000 	strcc	r0, [r3], #-0
    403c:	00006919 	andeq	r6, r0, r9, lsl r9
    4040:	07040300 	streq	r0, [r4, -r0, lsl #6]
    4044:	00000107 	andeq	r0, r0, r7, lsl #2
    4048:	02070803 	andeq	r0, r7, #196608	; 0x30000
    404c:	03000001 	movweq	r0, #1
    4050:	00eb0801 	rsceq	r0, fp, r1, lsl #16
    4054:	77050000 	strvc	r0, [r5, -r0]
    4058:	03000000 	movweq	r0, #0
    405c:	03720408 	cmneq	r2, #8, 8	; 0x8000000
    4060:	04060000 	streq	r0, [r6], #-0
    4064:	2c040707 	stccs	7, cr0, [r4], {7}
    4068:	01000000 	mrseq	r0, (UNDEF: 0)
    406c:	00a4061f 	adceq	r0, r4, pc, lsl r6
    4070:	ae080000 	cdpge	0, 0, cr0, cr8, cr0, {0}
    4074:	0000000b 	andeq	r0, r0, fp
    4078:	00002000 	andeq	r2, r0, r0
    407c:	00077e09 	andeq	r7, r7, r9, lsl #28
    4080:	0d220100 	stfeqs	f0, [r2, #-0]
    4084:	00000077 	andeq	r0, r0, r7, ror r0
    4088:	0004c10a 	andeq	ip, r4, sl, lsl #2
    408c:	0e230100 	sufeqs	f0, f3, f0
    4090:	000000c2 	andeq	r0, r0, r2, asr #1
    4094:	a9d00305 	ldmibge	r0, {r0, r2, r8, r9}^
    4098:	040b0000 	streq	r0, [fp], #-0
    409c:	00000077 	andeq	r0, r0, r7, ror r0
    40a0:	000b920a 	andeq	r9, fp, sl, lsl #4
    40a4:	0e240100 	sufeqs	f0, f4, f0
    40a8:	000000c2 	andeq	r0, r0, r2, asr #1
    40ac:	a9cc0305 	stmibge	ip, {r0, r2, r8, r9}^
    40b0:	f30a0000 	vhadd.u8	d0, d10, d0
    40b4:	0100000b 	tsteq	r0, fp
    40b8:	00c20e25 	sbceq	r0, r2, r5, lsr #28
    40bc:	03050000 	movweq	r0, #20480	; 0x5000
    40c0:	0000a9c8 	andeq	sl, r0, r8, asr #19
    40c4:	000bc90c 	andeq	ip, fp, ip, lsl #18
    40c8:	06750100 	ldrbteq	r0, [r5], -r0, lsl #2
    40cc:	00009d44 	andeq	r9, r0, r4, asr #26
    40d0:	00000060 	andeq	r0, r0, r0, rrx
    40d4:	01649c01 	cmneq	r4, r1, lsl #24
    40d8:	700d0000 	andvc	r0, sp, r0
    40dc:	16750100 	ldrbtne	r0, [r5], -r0, lsl #2
    40e0:	0000008a 	andeq	r0, r0, sl, lsl #1
    40e4:	0000199a 	muleq	r0, sl, r9
    40e8:	00001994 	muleq	r0, r4, r9
    40ec:	0000ac0e 	andeq	sl, r0, lr, lsl #24
    40f0:	00017400 	andeq	r7, r1, r0, lsl #8
    40f4:	b4030500 	strlt	r0, [r3], #-1280	; 0xfffffb00
    40f8:	0f0000a9 	svceq	0x000000a9
    40fc:	00009d90 	muleq	r0, r0, sp
    4100:	000008bc 			; <UNDEFINED> instruction: 0x000008bc
    4104:	0000015a 	andeq	r0, r0, sl, asr r1
    4108:	05500110 	ldrbeq	r0, [r0, #-272]	; 0xfffffef0
    410c:	00a92c03 	adceq	r2, r9, r3, lsl #24
    4110:	51011000 	mrspl	r1, (UNDEF: 1)
    4114:	a7c40305 	strbge	r0, [r4, r5, lsl #6]
    4118:	01100000 	tsteq	r0, r0
    411c:	b4030552 	strlt	r0, [r3], #-1362	; 0xfffffaae
    4120:	100000a9 	andne	r0, r0, r9, lsr #1
    4124:	08025301 	stmdaeq	r2, {r0, r8, r9, ip, lr}
    4128:	7d021077 	stcvc	0, cr1, [r2, #-476]	; 0xfffffe24
    412c:	01f30300 	mvnseq	r0, r0, lsl #6
    4130:	94110050 	ldrls	r0, [r1], #-80	; 0xffffffb0
    4134:	c800009d 	stmdagt	r0, {r0, r2, r3, r4, r7}
    4138:	00000008 	andeq	r0, r0, r8
    413c:	00007e12 	andeq	r7, r0, r2, lsl lr
    4140:	00017400 	andeq	r7, r1, r0, lsl #8
    4144:	002c1300 	eoreq	r1, ip, r0, lsl #6
    4148:	00090000 	andeq	r0, r9, r0
    414c:	00016405 	andeq	r6, r1, r5, lsl #8
    4150:	0bb71400 	bleq	fedc9158 <__bss_end__+0xfedbe350>
    4154:	72010000 	andvc	r0, r1, #0, 0
    4158:	009d3006 	addseq	r3, sp, r6
    415c:	00001400 	andeq	r1, r0, r0, lsl #8
    4160:	0c9c0100 	ldfeqs	f0, [ip], {0}
    4164:	00000072 	andeq	r0, r0, r2, ror r0
    4168:	2c066f01 	stccs	15, cr6, [r6], {1}
    416c:	0400009d 	streq	r0, [r0], #-157	; 0xffffff63
    4170:	01000000 	mrseq	r0, (UNDEF: 0)
    4174:	0001ae9c 	muleq	r1, ip, lr
    4178:	00701500 	rsbseq	r1, r0, r0, lsl #10
    417c:	8a126f01 	bhi	49fd88 <__bss_end__+0x494f80>
    4180:	01000000 	mrseq	r0, (UNDEF: 0)
    4184:	56160050 			; <UNDEFINED> instruction: 0x56160050
    4188:	0100000c 	tsteq	r0, ip
    418c:	008a075e 	addeq	r0, sl, lr, asr r7
    4190:	9c140000 	ldcls	0, cr0, [r4], {-0}
    4194:	01180000 	tsteq	r8, r0
    4198:	9c010000 	stcls	0, cr0, [r1], {-0}
    419c:	0000042c 	andeq	r0, r0, ip, lsr #8
    41a0:	0003b217 	andeq	fp, r3, r7, lsl r2
    41a4:	205e0100 	subscs	r0, lr, r0, lsl #2
    41a8:	0000002c 	andeq	r0, r0, ip, lsr #32
    41ac:	000019db 	ldrdeq	r1, [r0], -fp
    41b0:	000019c7 	andeq	r1, r0, r7, asr #19
    41b4:	000bd317 	andeq	sp, fp, r7, lsl r3
    41b8:	315e0100 	cmpcc	lr, r0, lsl #2
    41bc:	0000002c 	andeq	r0, r0, ip, lsr #32
    41c0:	00001a74 	andeq	r1, r0, r4, ror sl
    41c4:	00001a60 	andeq	r1, r0, r0, ror #20
    41c8:	0000ac0e 	andeq	sl, r0, lr, lsl #24
    41cc:	00043c00 	andeq	r3, r4, r0, lsl #24
    41d0:	9c030500 	cfstr32ls	mvfx0, [r3], {-0}
    41d4:	180000a9 	stmdane	r0, {r0, r3, r5, r7}
    41d8:	66010068 	strvs	r0, [r1], -r8, rrx
    41dc:	00002c0e 	andeq	r2, r0, lr, lsl #24
    41e0:	001b2a00 	andseq	r2, fp, r0, lsl #20
    41e4:	001b1e00 	andseq	r1, fp, r0, lsl #28
    41e8:	08541900 	ldmdaeq	r4, {r8, fp, ip}^
    41ec:	9c240000 	stcls	0, cr0, [r4], #-0
    41f0:	24040000 	strcs	r0, [r4], #-0
    41f4:	0400009c 	streq	r0, [r0], #-156	; 0xffffff64
    41f8:	01000000 	mrseq	r0, (UNDEF: 0)
    41fc:	02380560 	eorseq	r0, r8, #96, 10	; 0x18000000
    4200:	651a0000 	ldrvs	r0, [sl, #-0]
    4204:	7e000008 	cdpvc	0, 0, cr0, cr0, cr8, {0}
    4208:	7c00001b 	stcvc	0, cr0, [r0], {27}
    420c:	0000001b 	andeq	r0, r0, fp, lsl r0
    4210:	00089619 	andeq	r9, r8, r9, lsl r6
    4214:	009c3000 	addseq	r3, ip, r0
    4218:	9c300200 	lfmls	f0, 4, [r0], #-0
    421c:	00080000 	andeq	r0, r8, r0
    4220:	61010000 	mrsvs	r0, (UNDEF: 1)
    4224:	00026c11 	andeq	r6, r2, r1, lsl ip
    4228:	08b11a00 	ldmeq	r1!, {r9, fp, ip}
    422c:	1b930000 	blne	fe4c4234 <__bss_end__+0xfe4b942c>
    4230:	1b910000 	blne	fe444238 <__bss_end__+0xfe439430>
    4234:	a71a0000 	ldrge	r0, [sl, -r0]
    4238:	a9000008 	stmdbge	r0, {r3}
    423c:	a700001b 	smladge	r0, fp, r0, r0
    4240:	0000001b 	andeq	r0, r0, fp, lsl r0
    4244:	00081f1b 	andeq	r1, r8, fp, lsl pc
    4248:	009c4000 	addseq	r4, ip, r0
    424c:	00c00100 	sbceq	r0, r0, r0, lsl #2
    4250:	67010000 	strvs	r0, [r1, -r0]
    4254:	00030a09 	andeq	r0, r3, r9, lsl #20
    4258:	083a1a00 	ldmdaeq	sl!, {r9, fp, ip}
    425c:	1bc20000 	blne	ff084264 <__bss_end__+0xff07945c>
    4260:	1bbc0000 	blne	fef04268 <__bss_end__+0xfeef9460>
    4264:	301a0000 	andscc	r0, sl, r0
    4268:	09000008 	stmdbeq	r0, {r3}
    426c:	0100001c 	tsteq	r0, ip, lsl r0
    4270:	1c00001c 	stcne	0, cr0, [r0], {28}
    4274:	000000c0 	andeq	r0, r0, r0, asr #1
    4278:	00085419 	andeq	r5, r8, r9, lsl r4
    427c:	009c4000 	addseq	r4, ip, r0
    4280:	9c400400 	cfstrdls	mvd0, [r0], {-0}
    4284:	00040000 	andeq	r0, r4, r0
    4288:	11010000 	mrsne	r0, (UNDEF: 1)
    428c:	0002c705 	andeq	ip, r2, r5, lsl #14
    4290:	08651a00 	stmdaeq	r5!, {r9, fp, ip}^
    4294:	1c470000 	marne	acc0, r0, r7
    4298:	1c450000 	marne	acc0, r0, r5
    429c:	0f000000 	svceq	0x00000000
    42a0:	00009cd8 	ldrdeq	r9, [r0], -r8
    42a4:	000008bc 			; <UNDEFINED> instruction: 0x000008bc
    42a8:	000002ff 	strdeq	r0, [r0], -pc	; <UNPREDICTABLE>
    42ac:	05500110 	ldrbeq	r0, [r0, #-272]	; 0xfffffef0
    42b0:	00a07c03 	adceq	r7, r0, r3, lsl #24
    42b4:	51011000 	mrspl	r1, (UNDEF: 1)
    42b8:	a7c40305 	strbge	r0, [r4, r5, lsl #6]
    42bc:	01100000 	tsteq	r0, r0
    42c0:	ac030552 	cfstr32ge	mvfx0, [r3], {82}	; 0x52
    42c4:	100000a9 	andne	r0, r0, r9, lsr #1
    42c8:	41015301 	tstmi	r1, r1, lsl #6
    42cc:	007d0210 	rsbseq	r0, sp, r0, lsl r2
    42d0:	a8d80305 	ldmge	r8, {r0, r2, r8, r9}^
    42d4:	11000000 	mrsne	r0, (UNDEF: 0)
    42d8:	00009cdc 	ldrdeq	r9, [r0], -ip
    42dc:	000008c8 	andeq	r0, r0, r8, asr #17
    42e0:	70190000 	andsvc	r0, r9, r0
    42e4:	58000008 	stmdapl	r0, {r3}
    42e8:	0300009c 	movweq	r0, #156	; 0x9c
    42ec:	00009c58 	andeq	r9, r0, r8, asr ip
    42f0:	00000004 	andeq	r0, r0, r4
    42f4:	3e056801 	cdpcc	8, 0, cr6, cr5, cr1, {0}
    42f8:	1a000003 	bne	430c <__code_start__-0x3cf4>
    42fc:	0000088b 	andeq	r0, r0, fp, lsl #17
    4300:	00001c5c 	andeq	r1, r0, ip, asr ip
    4304:	00001c5a 	andeq	r1, r0, sl, asr ip
    4308:	0008811a 	andeq	r8, r8, sl, lsl r1
    430c:	001c7100 	andseq	r7, ip, r0, lsl #2
    4310:	001c6f00 	andseq	r6, ip, r0, lsl #30
    4314:	700f0000 	andvc	r0, pc, r0
    4318:	4100009c 	swpmi	r0, ip, [r0]	; <UNPREDICTABLE>
    431c:	53000004 	movwpl	r0, #4
    4320:	10000003 	andne	r0, r0, r3
    4324:	f3035001 	vhadd.u8	d5, d3, d1
    4328:	0f005001 	svceq	0x00005001
    432c:	00009c94 	muleq	r0, r4, ip
    4330:	000008bc 			; <UNDEFINED> instruction: 0x000008bc
    4334:	0000038c 	andeq	r0, r0, ip, lsl #7
    4338:	05500110 	ldrbeq	r0, [r0, #-272]	; 0xfffffef0
    433c:	00a07c03 	adceq	r7, r0, r3, lsl #24
    4340:	51011000 	mrspl	r1, (UNDEF: 1)
    4344:	a7c40305 	strbge	r0, [r4, r5, lsl #6]
    4348:	01100000 	tsteq	r0, r0
    434c:	9c030552 	cfstr32ls	mvfx0, [r3], {82}	; 0x52
    4350:	100000a9 	andne	r0, r0, r9, lsr #1
    4354:	08025301 	stmdaeq	r2, {r0, r8, r9, ip, lr}
    4358:	7d02105f 	stcvc	0, cr1, [r2, #-380]	; 0xfffffe84
    435c:	d4030500 	strle	r0, [r3], #-1280	; 0xfffffb00
    4360:	000000a7 	andeq	r0, r0, r7, lsr #1
    4364:	009c9811 	addseq	r9, ip, r1, lsl r8
    4368:	0008c800 	andeq	ip, r8, r0, lsl #16
    436c:	9c9c1100 	ldflss	f1, [ip], {0}
    4370:	08d40000 	ldmeq	r4, {}^	; <UNPREDICTABLE>
    4374:	b80f0000 	stmdalt	pc, {}	; <UNPREDICTABLE>
    4378:	bc00009c 	stclt	0, cr0, [r0], {156}	; 0x9c
    437c:	d7000008 	strle	r0, [r0, -r8]
    4380:	10000003 	andne	r0, r0, r3
    4384:	03055001 	movweq	r5, #20481	; 0x5001
    4388:	0000a890 	muleq	r0, r0, r8
    438c:	05510110 	ldrbeq	r0, [r1, #-272]	; 0xfffffef0
    4390:	00a7c403 	adceq	ip, r7, r3, lsl #8
    4394:	52011000 	andpl	r1, r1, #0, 0
    4398:	a99c0305 	ldmibge	ip, {r0, r2, r8, r9}
    439c:	01100000 	tsteq	r0, r0
    43a0:	60080253 	andvs	r0, r8, r3, asr r2
    43a4:	007d0210 	rsbseq	r0, sp, r0, lsl r2
    43a8:	a8c40305 	stmiage	r4, {r0, r2, r8, r9}^
    43ac:	11000000 	mrsne	r0, (UNDEF: 0)
    43b0:	00009cbc 			; <UNDEFINED> instruction: 0x00009cbc
    43b4:	000008c8 	andeq	r0, r0, r8, asr #17
    43b8:	009ce011 	addseq	lr, ip, r1, lsl r0
    43bc:	0008d400 	andeq	sp, r8, r0, lsl #8
    43c0:	9cfc0f00 	ldclls	15, cr0, [ip]
    43c4:	08bc0000 	ldmeq	ip!, {}	; <UNPREDICTABLE>
    43c8:	04220000 	strteq	r0, [r2], #-0
    43cc:	01100000 	tsteq	r0, r0
    43d0:	e4030550 	str	r0, [r3], #-1360	; 0xfffffab0
    43d4:	100000a8 	andne	r0, r0, r8, lsr #1
    43d8:	03055101 	movweq	r5, #20737	; 0x5101
    43dc:	0000a7c4 	andeq	sl, r0, r4, asr #15
    43e0:	05520110 	ldrbeq	r0, [r2, #-272]	; 0xfffffef0
    43e4:	00a99c03 	adceq	r9, r9, r3, lsl #24
    43e8:	53011000 	movwpl	r1, #4096	; 0x1000
    43ec:	10680802 	rsbne	r0, r8, r2, lsl #16
    43f0:	05007d02 	streq	r7, [r0, #-3330]	; 0xfffff2fe
    43f4:	00a91003 	adceq	r1, r9, r3
    43f8:	00110000 	andseq	r0, r1, r0
    43fc:	c800009d 	stmdagt	r0, {r0, r2, r3, r4, r7}
    4400:	00000008 	andeq	r0, r0, r8
    4404:	00007e12 	andeq	r7, r0, r2, lsl lr
    4408:	00043c00 	andeq	r3, r4, r0, lsl #24
    440c:	002c1300 	eoreq	r1, ip, r0, lsl #6
    4410:	000f0000 	andeq	r0, pc, r0
    4414:	00042c05 	andeq	r2, r4, r5, lsl #24
    4418:	04f21600 	ldrbteq	r1, [r2], #1536	; 0x600
    441c:	53010000 	movwpl	r0, #4096	; 0x1000
    4420:	00008a07 	andeq	r8, r0, r7, lsl #20
    4424:	009bb000 	addseq	fp, fp, r0
    4428:	00006400 	andeq	r6, r0, r0, lsl #8
    442c:	089c0100 	ldmeq	ip, {r8}
    4430:	17000005 	strne	r0, [r0, -r5]
    4434:	000003b2 			; <UNDEFINED> instruction: 0x000003b2
    4438:	2c185301 	ldccs	3, cr5, [r8], {1}
    443c:	8c000000 	stchi	0, cr0, [r0], {-0}
    4440:	8400001c 	strhi	r0, [r0], #-28	; 0xffffffe4
    4444:	0e00001c 	mcreq	0, 0, r0, cr0, cr12, {0}
    4448:	000000ac 	andeq	r0, r0, ip, lsr #1
    444c:	00000518 	andeq	r0, r0, r8, lsl r5
    4450:	a9940305 	ldmibge	r4, {r0, r2, r8, r9}
    4454:	a91d0000 	ldmdbge	sp, {}	; <UNPREDICTABLE>
    4458:	0100000b 	tsteq	r0, fp
    445c:	008a0b55 	addeq	r0, sl, r5, asr fp
    4460:	1cc40000 	stclne	0, cr0, [r4], {0}
    4464:	1cc00000 	stclne	0, cr0, [r0], {0}
    4468:	c80f0000 	stmdagt	pc, {}	; <UNPREDICTABLE>
    446c:	1d00009b 	stcne	0, cr0, [r0, #-620]	; 0xfffffd94
    4470:	a6000005 	strge	r0, [r0], -r5
    4474:	10000004 	andne	r0, r0, r4
    4478:	74025001 	strvc	r5, [r2], #-1
    447c:	d80f0000 	stmdale	pc, {}	; <UNPREDICTABLE>
    4480:	e000009b 	mul	r0, fp, r0
    4484:	c5000008 	strgt	r0, [r0, #-8]
    4488:	10000004 	andne	r0, r0, r4
    448c:	75025001 	strvc	r5, [r2, #-1]
    4490:	51011000 	mrspl	r1, (UNDEF: 1)
    4494:	01103001 	tsteq	r0, r1
    4498:	00740252 	rsbseq	r0, r4, r2, asr r2
    449c:	9c000f00 	stcls	15, cr0, [r0], {-0}
    44a0:	08bc0000 	ldmeq	ip!, {}	; <UNPREDICTABLE>
    44a4:	04fe0000 	ldrbteq	r0, [lr], #0
    44a8:	01100000 	tsteq	r0, r0
    44ac:	7c030550 	cfstr32vc	mvfx0, [r3], {80}	; 0x50
    44b0:	100000a0 	andne	r0, r0, r0, lsr #1
    44b4:	03055101 	movweq	r5, #20737	; 0x5101
    44b8:	0000a7c4 	andeq	sl, r0, r4, asr #15
    44bc:	05520110 	ldrbeq	r0, [r2, #-272]	; 0xfffffef0
    44c0:	00a99403 	adceq	r9, r9, r3, lsl #8
    44c4:	53011000 	movwpl	r1, #4096	; 0x1000
    44c8:	10540802 	subsne	r0, r4, r2, lsl #16
    44cc:	05007d02 	streq	r7, [r0, #-3330]	; 0xfffff2fe
    44d0:	00a7d403 	adceq	sp, r7, r3, lsl #8
    44d4:	04110000 	ldreq	r0, [r1], #-0
    44d8:	c800009c 	stmdagt	r0, {r2, r3, r4, r7}
    44dc:	00000008 	andeq	r0, r0, r8
    44e0:	00007e12 	andeq	r7, r0, r2, lsl lr
    44e4:	00051800 	andeq	r1, r5, r0, lsl #16
    44e8:	002c1300 	eoreq	r1, ip, r0, lsl #6
    44ec:	00070000 	andeq	r0, r7, r0
    44f0:	00050805 	andeq	r0, r5, r5, lsl #16
    44f4:	0bfc1600 	bleq	fff09cfc <__bss_end__+0xffefeef4>
    44f8:	47010000 	strmi	r0, [r1, -r0]
    44fc:	00008a07 	andeq	r8, r0, r7, lsl #20
    4500:	009b1800 	addseq	r1, fp, r0, lsl #16
    4504:	00009800 	andeq	r9, r0, r0, lsl #16
    4508:	2b9c0100 	blcs	fe704910 <__bss_end__+0xfe6f9b08>
    450c:	17000006 	strne	r0, [r0, -r6]
    4510:	000003b2 			; <UNDEFINED> instruction: 0x000003b2
    4514:	2c204701 	stccs	7, cr4, [r0], #-4
    4518:	f2000000 	vhadd.s8	d0, d0, d0
    451c:	e200001c 	and	r0, r0, #28, 0
    4520:	0e00001c 	mcreq	0, 0, r0, cr0, cr12, {0}
    4524:	000000ac 	andeq	r0, r0, ip, lsr #1
    4528:	0000043c 	andeq	r0, r0, ip, lsr r4
    452c:	a9840305 	stmibge	r4, {r0, r2, r8, r9}
    4530:	a91d0000 	ldmdbge	sp, {}	; <UNPREDICTABLE>
    4534:	0100000b 	tsteq	r0, fp
    4538:	008a0b4b 	addeq	r0, sl, fp, asr #22
    453c:	1d660000 	stclne	0, cr0, [r6, #-0]
    4540:	1d600000 	stclne	0, cr0, [r0, #-0]
    4544:	1f1b0000 	svcne	0x001b0000
    4548:	28000008 	stmdacs	r0, {r3}
    454c:	0300009b 	movweq	r0, #155	; 0x9b
    4550:	000000a8 	andeq	r0, r0, r8, lsr #1
    4554:	a30e4901 	movwge	r4, #59649	; 0xe901
    4558:	1a000005 	bne	4574 <__code_start__-0x3a8c>
    455c:	0000083a 	andeq	r0, r0, sl, lsr r8
    4560:	00001d95 	muleq	r0, r5, sp
    4564:	00001d93 	muleq	r0, r3, sp
    4568:	0008301a 	andeq	r3, r8, sl, lsl r0
    456c:	001dad00 	andseq	sl, sp, r0, lsl #26
    4570:	001da900 	andseq	sl, sp, r0, lsl #18
    4574:	00a81e00 	adceq	r1, r8, r0, lsl #28
    4578:	0f000000 	svceq	0x00000000
    457c:	00009b70 	andeq	r9, r0, r0, ror fp
    4580:	000008bc 			; <UNDEFINED> instruction: 0x000008bc
    4584:	000005dc 	ldrdeq	r0, [r0], -ip
    4588:	05500110 	ldrbeq	r0, [r0, #-272]	; 0xfffffef0
    458c:	00a07c03 	adceq	r7, r0, r3, lsl #24
    4590:	51011000 	mrspl	r1, (UNDEF: 1)
    4594:	a7c40305 	strbge	r0, [r4, r5, lsl #6]
    4598:	01100000 	tsteq	r0, r0
    459c:	84030552 	strhi	r0, [r3], #-1362	; 0xfffffaae
    45a0:	100000a9 	andne	r0, r0, r9, lsr #1
    45a4:	08025301 	stmdaeq	r2, {r0, r8, r9, ip, lr}
    45a8:	7d021048 	stcvc	0, cr1, [r2, #-288]	; 0xfffffee0
    45ac:	d4030500 	strle	r0, [r3], #-1280	; 0xfffffb00
    45b0:	000000a7 	andeq	r0, r0, r7, lsr #1
    45b4:	009b7411 	addseq	r7, fp, r1, lsl r4
    45b8:	0008c800 	andeq	ip, r8, r0, lsl #16
    45bc:	9b940f00 	blls	fe5081c4 <__bss_end__+0xfe4fd3bc>
    45c0:	08bc0000 	ldmeq	ip!, {}	; <UNPREDICTABLE>
    45c4:	06210000 	strteq	r0, [r1], -r0
    45c8:	01100000 	tsteq	r0, r0
    45cc:	50030550 	andpl	r0, r3, r0, asr r5
    45d0:	100000a8 	andne	r0, r0, r8, lsr #1
    45d4:	03055101 	movweq	r5, #20737	; 0x5101
    45d8:	0000a7c4 	andeq	sl, r0, r4, asr #15
    45dc:	05520110 	ldrbeq	r0, [r2, #-272]	; 0xfffffef0
    45e0:	00a98403 	adceq	r8, r9, r3, lsl #8
    45e4:	53011000 	movwpl	r1, #4096	; 0x1000
    45e8:	104e0802 	subne	r0, lr, r2, lsl #16
    45ec:	08007d02 	stmdaeq	r0, {r1, r8, sl, fp, ip, sp, lr}
    45f0:	235001f3 	cmpcs	r0, #-1073741764	; 0xc000003c
    45f4:	1af80907 	bne	ffe06a18 <__bss_end__+0xffdfbc10>
    45f8:	9b981100 	blls	fe608a00 <__bss_end__+0xfe5fdbf8>
    45fc:	08c80000 	stmiaeq	r8, {}^	; <UNPREDICTABLE>
    4600:	0c000000 	stceq	0, cr0, [r0], {-0}
    4604:	00000c1e 	andeq	r0, r0, lr, lsl ip
    4608:	c0063c01 	andgt	r3, r6, r1, lsl #24
    460c:	5800009a 	stmdapl	r0, {r1, r3, r4, r7}
    4610:	01000000 	mrseq	r0, (UNDEF: 0)
    4614:	0006cf9c 	muleq	r6, ip, pc	; <UNPREDICTABLE>
    4618:	042c0a00 	strteq	r0, [ip], #-2560	; 0xfffff600
    461c:	3d010000 	stccc	0, cr0, [r1, #-0]
    4620:	00002510 	andeq	r2, r0, r0, lsl r5
    4624:	00030500 	andeq	r0, r3, r0, lsl #10
    4628:	0e0000ae 	cdpeq	0, 0, cr0, cr0, cr14, {5}
    462c:	000000ac 	andeq	r0, r0, ip, lsr #1
    4630:	000006df 	ldrdeq	r0, [r0], -pc	; <UNPREDICTABLE>
    4634:	a9740305 	ldmdbge	r4!, {r0, r2, r8, r9}^
    4638:	07070000 	streq	r0, [r7, -r0]
    463c:	00002c04 	andeq	r2, r0, r4, lsl #24
    4640:	0a420100 	beq	1084a48 <__bss_end__+0x1079c40>
    4644:	0000067a 	andeq	r0, r0, sl, ror r6
    4648:	000be508 	andeq	lr, fp, r8, lsl #10
    464c:	10000000 	andne	r0, r0, r0
    4650:	ec0f0000 	stc	0, cr0, [pc], {-0}
    4654:	e400009a 	str	r0, [r0], #-154	; 0xffffff66
    4658:	96000006 	strls	r0, [r0], -r6
    465c:	10000006 	andne	r0, r0, r6
    4660:	40035001 	andmi	r5, r3, r1
    4664:	01102440 	tsteq	r0, r0, asr #8
    4668:	48400351 	stmdami	r0, {r0, r4, r6, r8, r9}^
    466c:	040f0024 	streq	r0, [pc], #-36	; 4674 <__code_start__-0x398c>
    4670:	bc00009b 	stclt	0, cr0, [r0], {155}	; 0x9b
    4674:	c5000008 	strgt	r0, [r0, #-8]
    4678:	10000006 	andne	r0, r0, r6
    467c:	03055001 	movweq	r5, #20481	; 0x5001
    4680:	0000a820 	andeq	sl, r0, r0, lsr #16
    4684:	05510110 	ldrbeq	r0, [r1, #-272]	; 0xfffffef0
    4688:	00a7c403 	adceq	ip, r7, r3, lsl #8
    468c:	52011000 	andpl	r1, r1, #0, 0
    4690:	a9740305 	ldmdbge	r4!, {r0, r2, r8, r9}^
    4694:	01100000 	tsteq	r0, r0
    4698:	40080253 	andmi	r0, r8, r3, asr r2
    469c:	9b081100 	blls	208aa4 <__bss_end__+0x1fdc9c>
    46a0:	08c80000 	stmiaeq	r8, {}^	; <UNPREDICTABLE>
    46a4:	12000000 	andne	r0, r0, #0, 0
    46a8:	0000007e 	andeq	r0, r0, lr, ror r0
    46ac:	000006df 	ldrdeq	r0, [r0], -pc	; <UNPREDICTABLE>
    46b0:	00002c13 	andeq	r2, r0, r3, lsl ip
    46b4:	05000c00 	streq	r0, [r0, #-3072]	; 0xfffff400
    46b8:	000006cf 	andeq	r0, r0, pc, asr #13
    46bc:	0004fa0c 	andeq	pc, r4, ip, lsl #20
    46c0:	062d0100 	strteq	r0, [sp], -r0, lsl #2
    46c4:	00009a24 	andeq	r9, r0, r4, lsr #20
    46c8:	0000009c 	muleq	r0, ip, r0
    46cc:	07c89c01 	strbeq	r9, [r8, r1, lsl #24]
    46d0:	a8170000 	ldmdage	r7, {}	; <UNPREDICTABLE>
    46d4:	0100000b 	tsteq	r0, fp
    46d8:	002c262d 	eoreq	r2, ip, sp, lsr #12
    46dc:	1ddb0000 	ldclne	0, cr0, [fp]
    46e0:	1dcd0000 	stclne	0, cr0, [sp]
    46e4:	9d170000 	ldcls	0, cr0, [r7, #-0]
    46e8:	0100000b 	tsteq	r0, fp
    46ec:	002c362d 	eoreq	r3, ip, sp, lsr #12
    46f0:	1e430000 	cdpne	0, 4, cr0, cr3, cr0, {0}
    46f4:	1e3b0000 	cdpne	0, 3, cr0, cr11, cr0, {0}
    46f8:	a91d0000 	ldmdbge	sp, {}	; <UNPREDICTABLE>
    46fc:	0100000b 	tsteq	r0, fp
    4700:	00c20b2e 	sbceq	r0, r2, lr, lsr #22
    4704:	1e8b0000 	cdpne	0, 8, cr0, cr11, cr0, {0}
    4708:	1e7d0000 	cdpne	0, 7, cr0, cr13, cr0, {0}
    470c:	ac0e0000 	stcge	0, cr0, [lr], {-0}
    4710:	d8000000 	stmdale	r0, {}	; <UNPREDICTABLE>
    4714:	05000007 	streq	r0, [r0, #-7]
    4718:	00a95c03 	adceq	r5, r9, r3, lsl #24
    471c:	9a7c0f00 	bls	1f08324 <__bss_end__+0x1efd51c>
    4720:	08bc0000 	ldmeq	ip!, {}	; <UNPREDICTABLE>
    4724:	077e0000 	ldrbeq	r0, [lr, -r0]!
    4728:	01100000 	tsteq	r0, r0
    472c:	7c030550 	cfstr32vc	mvfx0, [r3], {80}	; 0x50
    4730:	100000a0 	andne	r0, r0, r0, lsr #1
    4734:	03055101 	movweq	r5, #20737	; 0x5101
    4738:	0000a7c4 	andeq	sl, r0, r4, asr #15
    473c:	05520110 	ldrbeq	r0, [r2, #-272]	; 0xfffffef0
    4740:	00a95c03 	adceq	r5, r9, r3, lsl #24
    4744:	53011000 	movwpl	r1, #4096	; 0x1000
    4748:	10300802 	eorsne	r0, r0, r2, lsl #16
    474c:	05007d02 	streq	r7, [r0, #-3330]	; 0xfffff2fe
    4750:	00a7d003 	adceq	sp, r7, r3
    4754:	80110000 	andshi	r0, r1, r0
    4758:	c800009a 	stmdagt	r0, {r1, r3, r4, r7}
    475c:	0f000008 	svceq	0x00000008
    4760:	00009aa4 	andeq	r9, r0, r4, lsr #21
    4764:	000008bc 			; <UNDEFINED> instruction: 0x000008bc
    4768:	000007be 			; <UNDEFINED> instruction: 0x000007be
    476c:	05500110 	ldrbeq	r0, [r0, #-272]	; 0xfffffef0
    4770:	00a7dc03 	adceq	sp, r7, r3, lsl #24
    4774:	51011000 	mrspl	r1, (UNDEF: 1)
    4778:	a7c40305 	strbge	r0, [r4, r5, lsl #6]
    477c:	01100000 	tsteq	r0, r0
    4780:	5c030552 	cfstr32pl	mvfx0, [r3], {82}	; 0x52
    4784:	100000a9 	andne	r0, r0, r9, lsr #1
    4788:	08025301 	stmdaeq	r2, {r0, r8, r9, ip, lr}
    478c:	7d021034 	stcvc	0, cr1, [r2, #-208]	; 0xffffff30
    4790:	01f30300 	mvnseq	r0, r0, lsl #6
    4794:	a8110050 	ldmdage	r1, {r4, r6}
    4798:	c800009a 	stmdagt	r0, {r1, r3, r4, r7}
    479c:	00000008 	andeq	r0, r0, r8
    47a0:	00007e12 	andeq	r7, r0, r2, lsl lr
    47a4:	0007d800 	andeq	sp, r7, r0, lsl #16
    47a8:	002c1300 	eoreq	r1, ip, r0, lsl #6
    47ac:	00160000 	andseq	r0, r6, r0
    47b0:	0007c805 	andeq	ip, r7, r5, lsl #16
    47b4:	0c361f00 	ldceq	15, cr1, [r6], #-0
    47b8:	2a010000 	bcs	447c0 <__bss_end__+0x399b8>
    47bc:	00008a07 	andeq	r8, r0, r7, lsl #20
    47c0:	009a1400 	addseq	r1, sl, r0, lsl #8
    47c4:	00001000 	andeq	r1, r0, r0
    47c8:	1f9c0100 	svcne	0x009c0100
    47cc:	00000b8a 	andeq	r0, r0, sl, lsl #23
    47d0:	8a072901 	bhi	1cebdc <__bss_end__+0x1c3dd4>
    47d4:	04000000 	streq	r0, [r0], #-0
    47d8:	1000009a 	mulne	r0, sl, r0
    47dc:	01000000 	mrseq	r0, (UNDEF: 0)
    47e0:	0beb1f9c 	bleq	ffacc658 <__bss_end__+0xffac1850>
    47e4:	28010000 	stmdacs	r1, {}	; <UNPREDICTABLE>
    47e8:	00008a07 	andeq	r8, r0, r7, lsl #20
    47ec:	0099f400 	addseq	pc, r9, r0, lsl #8
    47f0:	00001000 	andeq	r1, r0, r0
    47f4:	209c0100 	addscs	r0, ip, r0, lsl #2
    47f8:	00000bc1 	andeq	r0, r0, r1, asr #23
    47fc:	2c181001 	ldccs	0, cr1, [r8], {1}
    4800:	03000000 	movweq	r0, #0
    4804:	00000854 	andeq	r0, r0, r4, asr r8
    4808:	01007821 	tsteq	r0, r1, lsr #16
    480c:	002c2910 	eoreq	r2, ip, r0, lsl r9
    4810:	6e210000 	cdpvs	0, 2, cr0, cr1, cr0, {0}
    4814:	35100100 	ldrcc	r0, [r0, #-256]	; 0xffffff00
    4818:	0000002c 	andeq	r0, r0, ip, lsr #32
    481c:	0000ac0e 	andeq	sl, r0, lr, lsl #24
    4820:	00051800 	andeq	r1, r5, r0, lsl #16
    4824:	ac030500 	cfstr32ge	mvfx0, [r3], {-0}
    4828:	000000a9 	andeq	r0, r0, r9, lsr #1
    482c:	000c0c20 	andeq	r0, ip, r0, lsr #24
    4830:	180d0100 	stmdane	sp, {r8}
    4834:	0000002c 	andeq	r0, r0, ip, lsr #32
    4838:	00087003 	andeq	r7, r8, r3
    483c:	00782100 	rsbseq	r2, r8, r0, lsl #2
    4840:	2c290d01 	stccs	13, cr0, [r9], #-4
    4844:	00000000 	andeq	r0, r0, r0
    4848:	000c2b20 	andeq	r2, ip, r0, lsr #22
    484c:	18070100 	stmdane	r7, {r8}
    4850:	0000002c 	andeq	r0, r0, ip, lsr #32
    4854:	00089603 	andeq	r9, r8, r3, lsl #12
    4858:	00782100 	rsbseq	r2, r8, r0, lsl #2
    485c:	2c2c0701 	stccs	7, cr0, [ip], #-4
    4860:	21000000 	mrscs	r0, (UNDEF: 0)
    4864:	0701006e 	streq	r0, [r1, -lr, rrx]
    4868:	00002c38 	andeq	r2, r0, r8, lsr ip
    486c:	dd200000 	stcle	0, cr0, [r0, #-0]
    4870:	0100000b 	tsteq	r0, fp
    4874:	005d1804 	subseq	r1, sp, r4, lsl #16
    4878:	bc030000 	stclt	0, cr0, [r3], {-0}
    487c:	21000008 	tstcs	r0, r8
    4880:	04010078 	streq	r0, [r1], #-120	; 0xffffff88
    4884:	00005d29 	andeq	r5, r0, r9, lsr #26
    4888:	00792100 	rsbseq	r2, r9, r0, lsl #2
    488c:	5d350401 	cfldrspl	mvf0, [r5, #-4]!
    4890:	00000000 	andeq	r0, r0, r0
    4894:	0006ec22 	andeq	lr, r6, r2, lsr #24
    4898:	0006ec00 	andeq	lr, r6, r0, lsl #24
    489c:	06280200 	strteq	r0, [r8], -r0, lsl #4
    48a0:	0000c322 	andeq	ip, r0, r2, lsr #6
    48a4:	0000c300 	andeq	ip, r0, r0, lsl #6
    48a8:	066e0200 	strbteq	r0, [lr], -r0, lsl #4
    48ac:	000c4722 	andeq	r4, ip, r2, lsr #14
    48b0:	000c4700 	andeq	r4, ip, r0, lsl #14
    48b4:	061d0200 	ldreq	r0, [sp], -r0, lsl #4
    48b8:	00026d22 	andeq	r6, r2, r2, lsr #26
    48bc:	00026d00 	andeq	r6, r2, r0, lsl #26
    48c0:	07f70200 	ldrbeq	r0, [r7, r0, lsl #4]!
    48c4:	00014900 	andeq	r4, r1, r0, lsl #18
    48c8:	d8000400 	stmdale	r0, {sl}
    48cc:	04000017 	streq	r0, [r0], #-23	; 0xffffffe9
    48d0:	00059b01 	andeq	r9, r5, r1, lsl #22
    48d4:	0c840c00 	stceq	12, cr0, [r4], {0}
    48d8:	066c0000 	strbteq	r0, [ip], -r0
    48dc:	9da40000 	stcls	0, cr0, [r4]
    48e0:	003c0000 	eorseq	r0, ip, r0
    48e4:	25220000 	strcs	r0, [r2, #-0]!
    48e8:	04020000 	streq	r0, [r2], #-0
    48ec:	746e6905 	strbtvc	r6, [lr], #-2309	; 0xfffff6fb
    48f0:	07040300 	streq	r0, [r4, -r0, lsl #6]
    48f4:	0000010c 	andeq	r0, r0, ip, lsl #2
    48f8:	e4060103 	str	r0, [r6], #-259	; 0xfffffefd
    48fc:	03000000 	movweq	r0, #0
    4900:	00400502 	subeq	r0, r0, r2, lsl #10
    4904:	04030000 	streq	r0, [r3], #-0
    4908:	00008205 	andeq	r8, r0, r5, lsl #4
    490c:	05080300 	streq	r0, [r8, #-768]	; 0xfffffd00
    4910:	0000007d 	andeq	r0, r0, sp, ror r0
    4914:	e2080103 	and	r0, r8, #-1073741824	; 0xc0000000
    4918:	03000000 	movweq	r0, #0
    491c:	01330702 	teqeq	r3, r2, lsl #14
    4920:	04030000 	streq	r0, [r3], #-0
    4924:	00010707 	andeq	r0, r1, r7, lsl #14
    4928:	07080300 	streq	r0, [r8, -r0, lsl #6]
    492c:	00000102 	andeq	r0, r0, r2, lsl #2
    4930:	00002504 	andeq	r2, r0, r4, lsl #10
    4934:	00007a00 	andeq	r7, r0, r0, lsl #20
    4938:	00250500 	eoreq	r0, r5, r0, lsl #10
    493c:	06000000 	streq	r0, [r0], -r0
    4940:	0000004a 	andeq	r0, r0, sl, asr #32
    4944:	860e1c02 	strhi	r1, [lr], -r2, lsl #24
    4948:	07000000 	streq	r0, [r0, -r0]
    494c:	00006b04 	andeq	r6, r0, r4, lsl #22
    4950:	00250400 	eoreq	r0, r5, r0, lsl #8
    4954:	009b0000 	addseq	r0, fp, r0
    4958:	9b050000 	blls	144960 <__bss_end__+0x139b58>
    495c:	00000000 	andeq	r0, r0, r0
    4960:	00a80407 	adceq	r0, r8, r7, lsl #8
    4964:	01030000 	mrseq	r0, (UNDEF: 3)
    4968:	0000eb08 	andeq	lr, r0, r8, lsl #22
    496c:	00a10800 	adceq	r0, r1, r0, lsl #16
    4970:	2a060000 	bcs	184978 <__bss_end__+0x179b70>
    4974:	02000007 	andeq	r0, r0, #7, 0
    4978:	00b90e21 	adcseq	r0, r9, r1, lsr #28
    497c:	04070000 	streq	r0, [r7], #-0
    4980:	0000008c 	andeq	r0, r0, ip, lsl #1
    4984:	00007a09 	andeq	r7, r0, r9, lsl #20
    4988:	07060100 	streq	r0, [r6, -r0, lsl #2]
    498c:	a9d40305 	ldmibge	r4, {r0, r2, r8, r9}^
    4990:	770a0000 	strvc	r0, [sl, -r0]
    4994:	0100000c 	tsteq	r0, ip
    4998:	9dd0060b 	ldclls	6, cr0, [r0, #44]	; 0x2c
    499c:	00100000 	andseq	r0, r0, r0
    49a0:	9c010000 	stcls	0, cr0, [r1], {-0}
    49a4:	000000f1 	strdeq	r0, [r0], -r1
    49a8:	0070660b 	rsbseq	r6, r0, fp, lsl #12
    49ac:	86190b01 	ldrhi	r0, [r9], -r1, lsl #22
    49b0:	01000000 	mrseq	r0, (UNDEF: 0)
    49b4:	470c0050 	smlsdmi	ip, r0, r0, r0
    49b8:	0100000c 	tsteq	r0, ip
    49bc:	9db80608 	ldcls	6, cr0, [r8, #32]!
    49c0:	00180000 	andseq	r0, r8, r0
    49c4:	9c010000 	stcls	0, cr0, [r1], {-0}
    49c8:	000c660d 	andeq	r6, ip, sp, lsl #12
    49cc:	0c030100 	stfeqs	f0, [r3], {-0}
    49d0:	00000025 	andeq	r0, r0, r5, lsr #32
    49d4:	00009da4 	andeq	r9, r0, r4, lsr #27
    49d8:	00000014 	andeq	r0, r0, r4, lsl r0
    49dc:	01409c01 	cmpeq	r0, r1, lsl #24
    49e0:	630e0000 	movwvs	r0, #57344	; 0xe000
    49e4:	21030100 	mrscs	r0, (UNDEF: 19)
    49e8:	00000025 	andeq	r0, r0, r5, lsr #32
    49ec:	00001eef 	andeq	r1, r0, pc, ror #29
    49f0:	00001eeb 	andeq	r1, r0, fp, ror #29
    49f4:	009db00f 	addseq	fp, sp, pc
    49f8:	00014000 	andeq	r4, r1, r0
    49fc:	50011000 	andpl	r1, r1, r0
    4a00:	00007402 	andeq	r7, r0, r2, lsl #8
    4a04:	0b581100 	bleq	1608e0c <__bss_end__+0x15fe004>
    4a08:	0b580000 	bleq	1604a10 <__bss_end__+0x15f9c08>
    4a0c:	42020000 	andmi	r0, r2, #0, 0
    4a10:	01370006 	teqeq	r7, r6
    4a14:	00040000 	andeq	r0, r4, r0
    4a18:	000018e7 	andeq	r1, r0, r7, ror #17
    4a1c:	059b0104 	ldreq	r0, [fp, #260]	; 0x104
    4a20:	9a0c0000 	bls	304a28 <__bss_end__+0x2f9c20>
    4a24:	6c00000c 	stcvs	0, cr0, [r0], {12}
    4a28:	e0000006 	and	r0, r0, r6
    4a2c:	3400009d 	strcc	r0, [r0], #-157	; 0xffffff63
    4a30:	e4000000 	str	r0, [r0], #-0
    4a34:	02000025 	andeq	r0, r0, #37, 0	; 0x25
    4a38:	6e690504 	cdpvs	5, 6, cr0, cr9, cr4, {0}
    4a3c:	04030074 	streq	r0, [r3], #-116	; 0xffffff8c
    4a40:	00010c07 	andeq	r0, r1, r7, lsl #24
    4a44:	06010300 	streq	r0, [r1], -r0, lsl #6
    4a48:	000000e4 	andeq	r0, r0, r4, ror #1
    4a4c:	40050203 	andmi	r0, r5, r3, lsl #4
    4a50:	03000000 	movweq	r0, #0
    4a54:	00820504 	addeq	r0, r2, r4, lsl #10
    4a58:	08030000 	stmdaeq	r3, {}	; <UNPREDICTABLE>
    4a5c:	00007d05 	andeq	r7, r0, r5, lsl #26
    4a60:	08010300 	stmdaeq	r1, {r8, r9}
    4a64:	000000e2 	andeq	r0, r0, r2, ror #1
    4a68:	33070203 	movwcc	r0, #29187	; 0x7203
    4a6c:	03000001 	movweq	r0, #1
    4a70:	01070704 	tsteq	r7, r4, lsl #14
    4a74:	08030000 	stmdaeq	r3, {}	; <UNPREDICTABLE>
    4a78:	00010207 	andeq	r0, r1, r7, lsl #4
    4a7c:	00250400 	eoreq	r0, r5, r0, lsl #8
    4a80:	007a0000 	rsbseq	r0, sl, r0
    4a84:	25050000 	strcs	r0, [r5, #-0]
    4a88:	00000000 	andeq	r0, r0, r0
    4a8c:	00004a06 	andeq	r4, r0, r6, lsl #20
    4a90:	0e1c0200 	cdpeq	2, 1, cr0, cr12, cr0, {0}
    4a94:	00000086 	andeq	r0, r0, r6, lsl #1
    4a98:	006b0407 	rsbeq	r0, fp, r7, lsl #8
    4a9c:	25040000 	strcs	r0, [r4, #-0]
    4aa0:	9b000000 	blls	4aa8 <__code_start__-0x3558>
    4aa4:	05000000 	streq	r0, [r0, #-0]
    4aa8:	0000009b 	muleq	r0, fp, r0
    4aac:	a8040700 	stmdage	r4, {r8, r9, sl}
    4ab0:	03000000 	movweq	r0, #0
    4ab4:	00eb0801 	rsceq	r0, fp, r1, lsl #16
    4ab8:	a1080000 	mrsge	r0, (UNDEF: 8)
    4abc:	06000000 	streq	r0, [r0], -r0
    4ac0:	0000072a 	andeq	r0, r0, sl, lsr #14
    4ac4:	b90e2102 	stmdblt	lr, {r1, r8, sp}
    4ac8:	07000000 	streq	r0, [r0, -r0]
    4acc:	00008c04 	andeq	r8, r0, r4, lsl #24
    4ad0:	07d50900 	ldrbeq	r0, [r5, r0, lsl #18]
    4ad4:	04010000 	streq	r0, [r1], #-0
    4ad8:	00013407 	andeq	r3, r1, r7, lsl #8
    4adc:	009de000 	addseq	lr, sp, r0
    4ae0:	00003400 	andeq	r3, r0, r0, lsl #8
    4ae4:	349c0100 	ldrcc	r0, [ip], #256	; 0x100
    4ae8:	0a000001 	beq	4af4 <__code_start__-0x350c>
    4aec:	00000c95 	muleq	r0, r5, ip
    4af0:	34150401 	ldrcc	r0, [r5], #-1025	; 0xfffffbff
    4af4:	01000001 	tsteq	r0, r1
    4af8:	72730b50 	rsbsvc	r0, r3, #80, 22	; 0x14000
    4afc:	04010063 	streq	r0, [r1], #-99	; 0xffffff9d
    4b00:	00009b27 	andeq	r9, r0, r7, lsr #22
    4b04:	001f1100 	andseq	r1, pc, r0, lsl #2
    4b08:	001f0d00 	andseq	r0, pc, r0, lsl #26
    4b0c:	31730c00 	cmncc	r3, r0, lsl #24
    4b10:	0b050100 	bleq	144f18 <__bss_end__+0x13a110>
    4b14:	00000134 	andeq	r0, r0, r4, lsr r1
    4b18:	00001f3c 	andeq	r1, r0, ip, lsr pc
    4b1c:	00001f32 	andeq	r1, r0, r2, lsr pc
    4b20:	0032730c 	eorseq	r7, r2, ip, lsl #6
    4b24:	9b110601 	blls	446330 <__bss_end__+0x43b528>
    4b28:	81000000 	mrshi	r0, (UNDEF: 0)
    4b2c:	7d00001f 	stcvc	0, cr0, [r0, #-124]	; 0xffffff84
    4b30:	0c00001f 	stceq	0, cr0, [r0], {31}
    4b34:	07010063 	streq	r0, [r1, -r3, rrx]
    4b38:	0000a10a 	andeq	sl, r0, sl, lsl #2
    4b3c:	001fa500 	andseq	sl, pc, r0, lsl #10
    4b40:	001fa100 	andseq	sl, pc, r0, lsl #2
    4b44:	04070000 	streq	r0, [r7], #-0
    4b48:	000000a1 	andeq	r0, r0, r1, lsr #1
    4b4c:	0000f700 	andeq	pc, r0, r0, lsl #14
    4b50:	9d000400 	cfstrsls	mvf0, [r0, #-0]
    4b54:	04000019 	streq	r0, [r0], #-25	; 0xffffffe7
    4b58:	00059b01 	andeq	r9, r5, r1, lsl #22
    4b5c:	0caa0c00 	stceq	12, cr0, [sl]
    4b60:	066c0000 	strbteq	r0, [ip], -r0
    4b64:	9e140000 	cdpls	0, 1, cr0, cr4, cr0, {0}
    4b68:	002c0000 	eoreq	r0, ip, r0
    4b6c:	26f20000 	ldrbtcs	r0, [r2], r0
    4b70:	04020000 	streq	r0, [r2], #-0
    4b74:	746e6905 	strbtvc	r6, [lr], #-2309	; 0xfffff6fb
    4b78:	07040300 	streq	r0, [r4, -r0, lsl #6]
    4b7c:	0000010c 	andeq	r0, r0, ip, lsl #2
    4b80:	e4060103 	str	r0, [r6], #-259	; 0xfffffefd
    4b84:	03000000 	movweq	r0, #0
    4b88:	00400502 	subeq	r0, r0, r2, lsl #10
    4b8c:	04030000 	streq	r0, [r3], #-0
    4b90:	00008205 	andeq	r8, r0, r5, lsl #4
    4b94:	05080300 	streq	r0, [r8, #-768]	; 0xfffffd00
    4b98:	0000007d 	andeq	r0, r0, sp, ror r0
    4b9c:	e2080103 	and	r0, r8, #-1073741824	; 0xc0000000
    4ba0:	03000000 	movweq	r0, #0
    4ba4:	01330702 	teqeq	r3, r2, lsl #14
    4ba8:	04030000 	streq	r0, [r3], #-0
    4bac:	00010707 	andeq	r0, r1, r7, lsl #14
    4bb0:	07080300 	streq	r0, [r8, -r0, lsl #6]
    4bb4:	00000102 	andeq	r0, r0, r2, lsl #2
    4bb8:	00002504 	andeq	r2, r0, r4, lsl #10
    4bbc:	00007a00 	andeq	r7, r0, r0, lsl #20
    4bc0:	00250500 	eoreq	r0, r5, r0, lsl #10
    4bc4:	06000000 	streq	r0, [r0], -r0
    4bc8:	0000004a 	andeq	r0, r0, sl, asr #32
    4bcc:	860e1c02 	strhi	r1, [lr], -r2, lsl #24
    4bd0:	07000000 	streq	r0, [r0, -r0]
    4bd4:	00006b04 	andeq	r6, r0, r4, lsl #22
    4bd8:	00250400 	eoreq	r0, r5, r0, lsl #8
    4bdc:	009b0000 	addseq	r0, fp, r0
    4be0:	9b050000 	blls	144be8 <__bss_end__+0x139de0>
    4be4:	00000000 	andeq	r0, r0, r0
    4be8:	00a80407 	adceq	r0, r8, r7, lsl #8
    4bec:	01030000 	mrseq	r0, (UNDEF: 3)
    4bf0:	0000eb08 	andeq	lr, r0, r8, lsl #22
    4bf4:	00a10800 	adceq	r0, r1, r0, lsl #16
    4bf8:	2a060000 	bcs	184c00 <__bss_end__+0x179df8>
    4bfc:	02000007 	andeq	r0, r0, #7, 0
    4c00:	00b90e21 	adcseq	r0, r9, r1, lsr #28
    4c04:	04070000 	streq	r0, [r7], #-0
    4c08:	0000008c 	andeq	r0, r0, ip, lsl #1
    4c0c:	0007dc09 	andeq	sp, r7, r9, lsl #24
    4c10:	05030100 	streq	r0, [r3, #-256]	; 0xffffff00
    4c14:	00000025 	andeq	r0, r0, r5, lsr #32
    4c18:	00009e14 	andeq	r9, r0, r4, lsl lr
    4c1c:	0000002c 	andeq	r0, r0, ip, lsr #32
    4c20:	610a9c01 	tstvs	sl, r1, lsl #24
    4c24:	18030100 	stmdane	r3, {r8}
    4c28:	0000009b 	muleq	r0, fp, r0
    4c2c:	00001fc7 	andeq	r1, r0, r7, asr #31
    4c30:	00001fc3 	andeq	r1, r0, r3, asr #31
    4c34:	0100620a 	tsteq	r0, sl, lsl #4
    4c38:	009b2703 	addseq	r2, fp, r3, lsl #14
    4c3c:	1fe90000 	svcne	0x00e90000
    4c40:	1fe50000 	svcne	0x00e50000
    4c44:	00000000 	andeq	r0, r0, r0
    4c48:	0000010f 	andeq	r0, r0, pc, lsl #2
    4c4c:	1a2c0004 	bne	b04c64 <__bss_end__+0xaf9e5c>
    4c50:	01040000 	mrseq	r0, (UNDEF: 4)
    4c54:	0000059b 	muleq	r0, fp, r5
    4c58:	000cba0c 	andeq	fp, ip, ip, lsl #20
    4c5c:	00066c00 	andeq	r6, r6, r0, lsl #24
    4c60:	009e4000 	addseq	r4, lr, r0
    4c64:	00002000 	andeq	r2, r0, r0
    4c68:	0027b900 	eoreq	fp, r7, r0, lsl #18
    4c6c:	05040200 	streq	r0, [r4, #-512]	; 0xfffffe00
    4c70:	00746e69 	rsbseq	r6, r4, r9, ror #28
    4c74:	0c070403 	cfstrseq	mvf0, [r7], {3}
    4c78:	03000001 	movweq	r0, #1
    4c7c:	00e40601 	rsceq	r0, r4, r1, lsl #12
    4c80:	02030000 	andeq	r0, r3, #0, 0
    4c84:	00004005 	andeq	r4, r0, r5
    4c88:	05040300 	streq	r0, [r4, #-768]	; 0xfffffd00
    4c8c:	00000082 	andeq	r0, r0, r2, lsl #1
    4c90:	7d050803 	stcvc	8, cr0, [r5, #-12]
    4c94:	03000000 	movweq	r0, #0
    4c98:	00e20801 	rsceq	r0, r2, r1, lsl #16
    4c9c:	02030000 	andeq	r0, r3, #0, 0
    4ca0:	00013307 	andeq	r3, r1, r7, lsl #6
    4ca4:	07040300 	streq	r0, [r4, -r0, lsl #6]
    4ca8:	00000107 	andeq	r0, r0, r7, lsl #2
    4cac:	02070803 	andeq	r0, r7, #196608	; 0x30000
    4cb0:	04000001 	streq	r0, [r0], #-1
    4cb4:	00000025 	andeq	r0, r0, r5, lsr #32
    4cb8:	0000007a 	andeq	r0, r0, sl, ror r0
    4cbc:	00002505 	andeq	r2, r0, r5, lsl #10
    4cc0:	4a060000 	bmi	184cc8 <__bss_end__+0x179ec0>
    4cc4:	02000000 	andeq	r0, r0, #0, 0
    4cc8:	00860e1c 	addeq	r0, r6, ip, lsl lr
    4ccc:	04070000 	streq	r0, [r7], #-0
    4cd0:	0000006b 	andeq	r0, r0, fp, rrx
    4cd4:	00002504 	andeq	r2, r0, r4, lsl #10
    4cd8:	00009b00 	andeq	r9, r0, r0, lsl #22
    4cdc:	009b0500 	addseq	r0, fp, r0, lsl #10
    4ce0:	07000000 	streq	r0, [r0, -r0]
    4ce4:	0000a804 	andeq	sl, r0, r4, lsl #16
    4ce8:	08010300 	stmdaeq	r1, {r8, r9}
    4cec:	000000eb 	andeq	r0, r0, fp, ror #1
    4cf0:	0000a108 	andeq	sl, r0, r8, lsl #2
    4cf4:	072a0600 	streq	r0, [sl, -r0, lsl #12]!
    4cf8:	21020000 	mrscs	r0, (UNDEF: 2)
    4cfc:	0000b90e 	andeq	fp, r0, lr, lsl #18
    4d00:	8c040700 	stchi	7, cr0, [r4], {-0}
    4d04:	09000000 	stmdbeq	r0, {}	; <UNPREDICTABLE>
    4d08:	000007a6 	andeq	r0, r0, r6, lsr #15
    4d0c:	0c070301 	stceq	3, cr0, [r7], {1}
    4d10:	40000001 	andmi	r0, r0, r1
    4d14:	2000009e 	mulcs	r0, lr, r0
    4d18:	01000000 	mrseq	r0, (UNDEF: 0)
    4d1c:	00010c9c 	muleq	r1, ip, ip
    4d20:	31730a00 	cmncc	r3, r0, lsl #20
    4d24:	15030100 	strne	r0, [r3, #-256]	; 0xffffff00
    4d28:	0000010c 	andeq	r0, r0, ip, lsl #2
    4d2c:	730b5001 	movwvc	r5, #45057	; 0xb001
    4d30:	03010032 	movweq	r0, #4146	; 0x1032
    4d34:	00009b26 	andeq	r9, r0, r6, lsr #22
    4d38:	00200d00 	eoreq	r0, r0, r0, lsl #26
    4d3c:	00200700 	eoreq	r0, r0, r0, lsl #14
    4d40:	00730c00 	rsbseq	r0, r3, r0, lsl #24
    4d44:	0c140401 	cfldrseq	mvf0, [r4], {1}
    4d48:	3e000001 	cdpcc	0, 0, cr0, cr0, cr1, {0}
    4d4c:	38000020 	stmdacc	r0, {r5}
    4d50:	00000020 	andeq	r0, r0, r0, lsr #32
    4d54:	00a10407 	adceq	r0, r1, r7, lsl #8
    4d58:	4e000000 	cdpmi	0, 0, cr0, cr0, cr0, {0}
    4d5c:	04000001 	streq	r0, [r0], #-1
    4d60:	001ae200 	andseq	lr, sl, r0, lsl #4
    4d64:	9b010400 	blls	45d6c <__bss_end__+0x3af64>
    4d68:	0c000005 	stceq	0, cr0, [r0], {5}
    4d6c:	00000cca 	andeq	r0, r0, sl, asr #25
    4d70:	0000066c 	andeq	r0, r0, ip, ror #12
    4d74:	000000d8 	ldrdeq	r0, [r0], -r8
    4d78:	00000000 	andeq	r0, r0, r0
    4d7c:	0000287e 	andeq	r2, r0, lr, ror r8
    4d80:	69050402 	stmdbvs	r5, {r1, sl}
    4d84:	0300746e 	movweq	r7, #1134	; 0x46e
    4d88:	00000665 	andeq	r0, r0, r5, ror #12
    4d8c:	3817d103 	ldmdacc	r7, {r0, r1, r8, ip, lr, pc}
    4d90:	04000000 	streq	r0, [r0], #-0
    4d94:	010c0704 	tsteq	ip, r4, lsl #14
    4d98:	01040000 	mrseq	r0, (UNDEF: 4)
    4d9c:	0000e406 	andeq	lr, r0, r6, lsl #8
    4da0:	05020400 	streq	r0, [r2, #-1024]	; 0xfffffc00
    4da4:	00000040 	andeq	r0, r0, r0, asr #32
    4da8:	82050404 	andhi	r0, r5, #4, 8	; 0x4000000
    4dac:	04000000 	streq	r0, [r0], #-0
    4db0:	007d0508 	rsbseq	r0, sp, r8, lsl #10
    4db4:	01040000 	mrseq	r0, (UNDEF: 4)
    4db8:	0000e208 	andeq	lr, r0, r8, lsl #4
    4dbc:	005b0500 	subseq	r0, fp, r0, lsl #10
    4dc0:	02040000 	andeq	r0, r4, #0, 0
    4dc4:	00013307 	andeq	r3, r1, r7, lsl #6
    4dc8:	07040400 	streq	r0, [r4, -r0, lsl #8]
    4dcc:	00000107 	andeq	r0, r0, r7, lsl #2
    4dd0:	02070804 	andeq	r0, r7, #4, 16	; 0x40000
    4dd4:	06000001 	streq	r0, [r0], -r1
    4dd8:	00000025 	andeq	r0, r0, r5, lsr #32
    4ddc:	0000008b 	andeq	r0, r0, fp, lsl #1
    4de0:	00002507 	andeq	r2, r0, r7, lsl #10
    4de4:	4a080000 	bmi	204dec <__bss_end__+0x1f9fe4>
    4de8:	02000000 	andeq	r0, r0, #0, 0
    4dec:	00970e1c 	addseq	r0, r7, ip, lsl lr
    4df0:	04090000 	streq	r0, [r9], #-0
    4df4:	0000007c 	andeq	r0, r0, ip, ror r0
    4df8:	00002506 	andeq	r2, r0, r6, lsl #10
    4dfc:	0000ac00 	andeq	sl, r0, r0, lsl #24
    4e00:	00ac0700 	adceq	r0, ip, r0, lsl #14
    4e04:	09000000 	stmdbeq	r0, {}	; <UNPREDICTABLE>
    4e08:	0000b904 	andeq	fp, r0, r4, lsl #18
    4e0c:	08010400 	stmdaeq	r1, {sl}
    4e10:	000000eb 	andeq	r0, r0, fp, ror #1
    4e14:	0000b205 	andeq	fp, r0, r5, lsl #4
    4e18:	072a0800 	streq	r0, [sl, -r0, lsl #16]!
    4e1c:	21020000 	mrscs	r0, (UNDEF: 2)
    4e20:	0000ca0e 	andeq	ip, r0, lr, lsl #20
    4e24:	9d040900 	vstrls.16	s0, [r4, #-0]	; <UNPREDICTABLE>
    4e28:	0a000000 	beq	4e30 <__code_start__-0x31d0>
    4e2c:	000007f5 	strdeq	r0, [r0], -r5
    4e30:	25050401 	strcs	r0, [r5, #-1025]	; 0xfffffbff
    4e34:	60000000 	andvs	r0, r0, r0
    4e38:	2c00009e 	stccs	0, cr0, [r0], {158}	; 0x9e
    4e3c:	01000000 	mrseq	r0, (UNDEF: 0)
    4e40:	00014b9c 	muleq	r1, ip, fp
    4e44:	735f0b00 	cmpvc	pc, #0, 22
    4e48:	04010031 	streq	r0, [r1], #-49	; 0xffffffcf
    4e4c:	0000ac19 	andeq	sl, r0, r9, lsl ip
    4e50:	00206d00 	eoreq	r6, r0, r0, lsl #26
    4e54:	00206900 	eoreq	r6, r0, r0, lsl #18
    4e58:	735f0b00 	cmpvc	pc, #0, 22
    4e5c:	04010032 	streq	r0, [r1], #-50	; 0xffffffce
    4e60:	0000ac2a 	andeq	sl, r0, sl, lsr #24
    4e64:	00209200 	eoreq	r9, r0, r0, lsl #4
    4e68:	00208e00 	eoreq	r8, r0, r0, lsl #28
    4e6c:	006e0b00 	rsbeq	r0, lr, r0, lsl #22
    4e70:	2c360401 	cfldrscs	mvf0, [r6], #-4
    4e74:	b9000000 	stmdblt	r0, {}	; <UNPREDICTABLE>
    4e78:	b3000020 	movwlt	r0, #32
    4e7c:	0c000020 	stceq	0, cr0, [r0], {32}
    4e80:	01003173 	tsteq	r0, r3, ror r1
    4e84:	014b1a05 	cmpeq	fp, r5, lsl #20
    4e88:	20ec0000 	rsccs	r0, ip, r0
    4e8c:	20e40000 	rsccs	r0, r4, r0
    4e90:	730c0000 	movwvc	r0, #49152	; 0xc000
    4e94:	05010032 	streq	r0, [r1, #-50]	; 0xffffffce
    4e98:	00014b2c 	andeq	r4, r1, ip, lsr #22
    4e9c:	00212800 	eoreq	r2, r1, r0, lsl #16
    4ea0:	00212200 	eoreq	r2, r1, r0, lsl #4
    4ea4:	04090000 	streq	r0, [r9], #-0
    4ea8:	00000062 	andeq	r0, r0, r2, rrx
    4eac:	0000ce00 	andeq	ip, r0, r0, lsl #28
    4eb0:	96000400 	strls	r0, [r0], -r0, lsl #8
    4eb4:	0400001b 	streq	r0, [r0], #-27	; 0xffffffe5
    4eb8:	00059b01 	andeq	r9, r5, r1, lsl #22
    4ebc:	0cdb0c00 	ldcleq	12, cr0, [fp], {0}
    4ec0:	066c0000 	strbteq	r0, [ip], -r0
    4ec4:	9e8c0000 	cdpls	0, 8, cr0, cr12, cr0, {0}
    4ec8:	00040000 	andeq	r0, r4, r0
    4ecc:	29a30000 	stmibcs	r3!, {}	; <UNPREDICTABLE>
    4ed0:	04020000 	streq	r0, [r2], #-0
    4ed4:	746e6905 	strbtvc	r6, [lr], #-2309	; 0xfffff6fb
    4ed8:	07040300 	streq	r0, [r4, -r0, lsl #6]
    4edc:	0000010c 	andeq	r0, r0, ip, lsl #2
    4ee0:	e4060103 	str	r0, [r6], #-259	; 0xfffffefd
    4ee4:	03000000 	movweq	r0, #0
    4ee8:	00400502 	subeq	r0, r0, r2, lsl #10
    4eec:	04030000 	streq	r0, [r3], #-0
    4ef0:	00008205 	andeq	r8, r0, r5, lsl #4
    4ef4:	05080300 	streq	r0, [r8, #-768]	; 0xfffffd00
    4ef8:	0000007d 	andeq	r0, r0, sp, ror r0
    4efc:	e2080103 	and	r0, r8, #-1073741824	; 0xc0000000
    4f00:	03000000 	movweq	r0, #0
    4f04:	01330702 	teqeq	r3, r2, lsl #14
    4f08:	04030000 	streq	r0, [r3], #-0
    4f0c:	00010707 	andeq	r0, r1, r7, lsl #14
    4f10:	07080300 	streq	r0, [r8, -r0, lsl #6]
    4f14:	00000102 	andeq	r0, r0, r2, lsl #2
    4f18:	00002504 	andeq	r2, r0, r4, lsl #10
    4f1c:	00007a00 	andeq	r7, r0, r0, lsl #20
    4f20:	00250500 	eoreq	r0, r5, r0, lsl #10
    4f24:	06000000 	streq	r0, [r0], -r0
    4f28:	0000004a 	andeq	r0, r0, sl, asr #32
    4f2c:	860e1c02 	strhi	r1, [lr], -r2, lsl #24
    4f30:	07000000 	streq	r0, [r0, -r0]
    4f34:	00006b04 	andeq	r6, r0, r4, lsl #22
    4f38:	00250400 	eoreq	r0, r5, r0, lsl #8
    4f3c:	009b0000 	addseq	r0, fp, r0
    4f40:	9b050000 	blls	144f48 <__bss_end__+0x13a140>
    4f44:	00000000 	andeq	r0, r0, r0
    4f48:	00a80407 	adceq	r0, r8, r7, lsl #8
    4f4c:	01030000 	mrseq	r0, (UNDEF: 3)
    4f50:	0000eb08 	andeq	lr, r0, r8, lsl #22
    4f54:	00a10800 	adceq	r0, r1, r0, lsl #16
    4f58:	2a060000 	bcs	184f60 <__bss_end__+0x17a158>
    4f5c:	02000007 	andeq	r0, r0, #7, 0
    4f60:	00b90e21 	adcseq	r0, r9, r1, lsr #28
    4f64:	04070000 	streq	r0, [r7], #-0
    4f68:	0000008c 	andeq	r0, r0, ip, lsl #1
    4f6c:	00089c09 	andeq	r9, r8, r9, lsl #24
    4f70:	06030100 	streq	r0, [r3], -r0, lsl #2
    4f74:	00009e8c 	andeq	r9, r0, ip, lsl #29
    4f78:	00000004 	andeq	r0, r0, r4
    4f7c:	a5009c01 	strge	r9, [r0, #-3073]	; 0xfffff3ff
    4f80:	04000003 	streq	r0, [r0], #-3
    4f84:	001c0f00 	andseq	r0, ip, r0, lsl #30
    4f88:	78010400 	stmdavc	r1, {sl}
    4f8c:	0c00000a 	stceq	0, cr0, [r0], {10}
    4f90:	00000d7a 	andeq	r0, r0, sl, ror sp
    4f94:	00000a28 	andeq	r0, r0, r8, lsr #20
    4f98:	00009ea8 	andeq	r9, r0, r8, lsr #29
    4f9c:	0000011c 	andeq	r0, r0, ip, lsl r1
    4fa0:	00002a57 	andeq	r2, r0, r7, asr sl
    4fa4:	69050402 	stmdbvs	r5, {r1, sl}
    4fa8:	0300746e 	movweq	r7, #1134	; 0x46e
    4fac:	010c0704 	tsteq	ip, r4, lsl #14
    4fb0:	2c040000 	stccs	0, cr0, [r4], {-0}
    4fb4:	03000000 	movweq	r0, #0
    4fb8:	00e40601 	rsceq	r0, r4, r1, lsl #12
    4fbc:	02030000 	andeq	r0, r3, #0, 0
    4fc0:	00004005 	andeq	r4, r0, r5
    4fc4:	05040300 	streq	r0, [r4, #-768]	; 0xfffffd00
    4fc8:	00000082 	andeq	r0, r0, r2, lsl #1
    4fcc:	7d050803 	stcvc	8, cr0, [r5, #-12]
    4fd0:	03000000 	movweq	r0, #0
    4fd4:	00e20801 	rsceq	r0, r2, r1, lsl #16
    4fd8:	02030000 	andeq	r0, r3, #0, 0
    4fdc:	00013307 	andeq	r3, r1, r7, lsl #6
    4fe0:	01190500 	tsteq	r9, r0, lsl #10
    4fe4:	34030000 	strcc	r0, [r3], #-0
    4fe8:	00006e19 	andeq	r6, r0, r9, lsl lr
    4fec:	07040300 	streq	r0, [r4, -r0, lsl #6]
    4ff0:	00000107 	andeq	r0, r0, r7, lsl #2
    4ff4:	02070803 	andeq	r0, r7, #196608	; 0x30000
    4ff8:	03000001 	movweq	r0, #1
    4ffc:	00eb0801 	rsceq	r0, fp, r1, lsl #16
    5000:	07060000 	streq	r0, [r6, -r0]
    5004:	00005401 	andeq	r5, r0, r1, lsl #8
    5008:	0e0c0400 	cfcpyseq	mvf0, mvf12
    500c:	000000c2 	andeq	r0, r0, r2, asr #1
    5010:	000b6207 	andeq	r6, fp, r7, lsl #4
    5014:	9a070000 	bls	1c501c <__bss_end__+0x1ba214>
    5018:	01000009 	tsteq	r0, r9
    501c:	0009dd07 	andeq	sp, r9, r7, lsl #26
    5020:	ec070400 	cfstrs	mvf0, [r7], {-0}
    5024:	05000009 	streq	r0, [r0, #-9]
    5028:	0009fb07 	andeq	pc, r9, r7, lsl #22
    502c:	0a070600 	beq	1c6834 <__bss_end__+0x1bba2c>
    5030:	0700000a 	streq	r0, [r0, -sl]
    5034:	000b2b07 	andeq	r2, fp, r7, lsl #22
    5038:	19070300 	stmdbne	r7, {r8, r9}
    503c:	0200000a 	andeq	r0, r0, #10, 0
    5040:	0d5f0500 	cfldr64eq	mvdx0, [pc, #-0]	; 5048 <__code_start__-0x2fb8>
    5044:	15040000 	strne	r0, [r4, #-0]
    5048:	00008303 	andeq	r8, r0, r3, lsl #6
    504c:	0d0a0800 	stceq	8, cr0, [sl, #-0]
    5050:	1d010000 	stcne	0, cr0, [r1, #-0]
    5054:	00003317 	andeq	r3, r0, r7, lsl r3
    5058:	20001c00 	andcs	r1, r0, r0, lsl #24
    505c:	0d000820 	stceq	8, cr0, [r0, #-128]	; 0xffffff80
    5060:	1e010000 	cdpne	0, 0, cr0, cr1, cr0, {0}
    5064:	00003317 	andeq	r3, r0, r7, lsl r3
    5068:	20002800 	andcs	r2, r0, r0, lsl #16
    506c:	0d6b0820 	stcleq	8, cr0, [fp, #-128]!	; 0xffffff80
    5070:	1f010000 	svcne	0x00010000
    5074:	00003317 	andeq	r3, r0, r7, lsl r3
    5078:	20003400 	andcs	r3, r0, r0, lsl #8
    507c:	0d290920 			; <UNDEFINED> instruction: 0x0d290920
    5080:	55010000 	strpl	r0, [r1, #-0]
    5084:	00002505 	andeq	r2, r0, r5, lsl #10
    5088:	009f9000 	addseq	r9, pc, r0
    508c:	00003400 	andeq	r3, r0, r0, lsl #8
    5090:	6e9c0100 	fmlvse	f0, f4, f0
    5094:	0a000001 	beq	50a0 <__code_start__-0x2f60>
    5098:	006e6970 	rsbeq	r6, lr, r0, ror r9
    509c:	2c185501 	cfldr32cs	mvfx5, [r8], {1}
    50a0:	5b000000 	blpl	50a8 <__code_start__-0x2f58>
    50a4:	53000021 	movwpl	r0, #33	; 0x21
    50a8:	0b000021 	bleq	5134 <__code_start__-0x2ecc>
    50ac:	00000d75 	andeq	r0, r0, r5, ror sp
    50b0:	2c0e5801 	stccs	8, cr5, [lr], {1}
    50b4:	9b000000 	blls	50bc <__code_start__-0x2f44>
    50b8:	95000021 	strls	r0, [r0, #-33]	; 0xffffffdf
    50bc:	0c000021 	stceq	0, cr0, [r0], {33}	; 0x21
    50c0:	0066666f 	rsbeq	r6, r6, pc, ror #12
    50c4:	2c0e5901 			; <UNDEFINED> instruction: 0x2c0e5901
    50c8:	db000000 	blle	50d0 <__code_start__-0x2f30>
    50cc:	d9000021 	stmdble	r0, {r0, r5}
    50d0:	0d000021 	stceq	0, cr0, [r0, #-132]	; 0xffffff7c
    50d4:	00009fac 	andeq	r9, r0, ip, lsr #31
    50d8:	00000390 	muleq	r0, r0, r3
    50dc:	0b50010e 	bleq	140551c <__bss_end__+0x13fa714>
    50e0:	355001f3 	ldrbcc	r0, [r0, #-499]	; 0xfffffe0d
    50e4:	80b42325 	adcshi	r2, r4, r5, lsr #6
    50e8:	00028180 	andeq	r8, r2, r0, lsl #3
    50ec:	0d140f00 	ldceq	15, cr0, [r4, #-0]
    50f0:	4e010000 	cdpmi	0, 0, cr0, cr1, cr0, {0}
    50f4:	009f7406 	addseq	r7, pc, r6, lsl #8
    50f8:	00001c00 	andeq	r1, r0, r0, lsl #24
    50fc:	c99c0100 	ldmibgt	ip, {r8}
    5100:	0a000001 	beq	510c <__code_start__-0x2ef4>
    5104:	006e6970 	rsbeq	r6, lr, r0, ror r9
    5108:	2c1a4e01 	ldccs	14, cr4, [sl], {1}
    510c:	f6000000 			; <UNDEFINED> instruction: 0xf6000000
    5110:	ee000021 	cdp	0, 0, cr0, cr0, cr1, {1}
    5114:	0a000021 	beq	51a0 <__code_start__-0x2e60>
    5118:	4e010076 	mcrmi	0, 0, r0, cr1, cr6, {3}
    511c:	00002c28 	andeq	r2, r0, r8, lsr #24
    5120:	00223800 	eoreq	r3, r2, r0, lsl #16
    5124:	00223000 	eoreq	r3, r2, r0
    5128:	9f841000 	svcls	0x00841000
    512c:	02510000 	subseq	r0, r1, #0, 0
    5130:	01bf0000 			; <UNDEFINED> instruction: 0x01bf0000
    5134:	010e0000 	mrseq	r0, (UNDEF: 14)
    5138:	01f30350 	mvnseq	r0, r0, asr r3
    513c:	8c110050 	ldchi	0, cr0, [r1], {80}	; 0x50
    5140:	0a00009f 	beq	53c4 <__code_start__-0x2c3c>
    5144:	00000002 	andeq	r0, r0, r2
    5148:	000d330f 	andeq	r3, sp, pc, lsl #6
    514c:	06490100 	strbeq	r0, [r9], -r0, lsl #2
    5150:	00009f64 	andeq	r9, r0, r4, ror #30
    5154:	00000010 	andeq	r0, r0, r0, lsl r0
    5158:	020a9c01 	andeq	r9, sl, #256	; 0x100
    515c:	700a0000 	andvc	r0, sl, r0
    5160:	01006e69 	tsteq	r0, r9, ror #28
    5164:	002c1e49 	eoreq	r1, ip, r9, asr #28
    5168:	22760000 	rsbscs	r0, r6, #0, 0
    516c:	22720000 	rsbscs	r0, r2, #0, 0
    5170:	700d0000 	andvc	r0, sp, r0
    5174:	d900009f 	stmdble	r0, {r0, r1, r2, r3, r4, r7}
    5178:	0e000002 	cdpeq	0, 0, cr0, cr0, cr2, {0}
    517c:	f3035001 	vhadd.u8	d5, d3, d1
    5180:	010e5001 	tsteq	lr, r1
    5184:	00300151 	eorseq	r0, r0, r1, asr r1
    5188:	0d420f00 	stcleq	15, cr0, [r2, #-0]
    518c:	42010000 	andmi	r0, r1, #0, 0
    5190:	009f4006 	addseq	r4, pc, r6
    5194:	00002400 	andeq	r2, r0, r0, lsl #8
    5198:	519c0100 	orrspl	r0, ip, r0, lsl #2
    519c:	0a000002 	beq	51ac <__code_start__-0x2e54>
    51a0:	006e6970 	rsbeq	r6, lr, r0, ror r9
    51a4:	2c1c4201 	lfmcs	f4, 4, [ip], {1}
    51a8:	9b000000 	blls	51b0 <__code_start__-0x2e50>
    51ac:	97000022 	strls	r0, [r0, -r2, lsr #32]
    51b0:	0d000022 	stceq	0, cr0, [r0, #-136]	; 0xffffff78
    51b4:	00009f5c 	andeq	r9, r0, ip, asr pc
    51b8:	0000039c 	muleq	r0, ip, r3
    51bc:	0550010e 	ldrbeq	r0, [r0, #-270]	; 0xfffffef2
    51c0:	2000280c 	andcs	r2, r0, ip, lsl #16
    51c4:	51010e20 	tstpl	r1, r0, lsr #28
    51c8:	01f33105 	mvnseq	r3, r5, lsl #2
    51cc:	00002450 	andeq	r2, r0, r0, asr r4
    51d0:	000d810f 	andeq	r8, sp, pc, lsl #2
    51d4:	063b0100 	ldrteq	r0, [fp], -r0, lsl #2
    51d8:	00009f1c 	andeq	r9, r0, ip, lsl pc
    51dc:	00000024 	andeq	r0, r0, r4, lsr #32
    51e0:	02989c01 	addseq	r9, r8, #256	; 0x100
    51e4:	700a0000 	andvc	r0, sl, r0
    51e8:	01006e69 	tsteq	r0, r9, ror #28
    51ec:	002c1b3b 	eoreq	r1, ip, fp, lsr fp
    51f0:	22c00000 	sbccs	r0, r0, #0, 0
    51f4:	22bc0000 	adcscs	r0, ip, #0, 0
    51f8:	380d0000 	stmdacc	sp, {}	; <UNPREDICTABLE>
    51fc:	9c00009f 	stcls	0, cr0, [r0], {159}	; 0x9f
    5200:	0e000003 	cdpeq	0, 0, cr0, cr0, cr3, {0}
    5204:	0c055001 	stceq	0, cr5, [r5], {1}
    5208:	2020001c 	eorcs	r0, r0, ip, lsl r0
    520c:	0551010e 	ldrbeq	r0, [r1, #-270]	; 0xfffffef2
    5210:	5001f331 	andpl	pc, r1, r1, lsr r3	; <UNPREDICTABLE>
    5214:	0f000024 	svceq	0x00000024
    5218:	00000d4f 	andeq	r0, r0, pc, asr #26
    521c:	0c063601 	stceq	6, cr3, [r6], {1}
    5220:	1000009f 	mulne	r0, pc, r0	; <UNPREDICTABLE>
    5224:	01000000 	mrseq	r0, (UNDEF: 0)
    5228:	0002d99c 	muleq	r2, ip, r9
    522c:	69700a00 	ldmdbvs	r0!, {r9, fp}^
    5230:	3601006e 	strcc	r0, [r1], -lr, rrx
    5234:	00002c1f 	andeq	r2, r0, pc, lsl ip
    5238:	0022e500 	eoreq	lr, r2, r0, lsl #10
    523c:	0022e100 	eoreq	lr, r2, r0, lsl #2
    5240:	9f180d00 	svcls	0x00180d00
    5244:	02d90000 	sbcseq	r0, r9, #0, 0
    5248:	010e0000 	mrseq	r0, (UNDEF: 14)
    524c:	01f30350 	mvnseq	r0, r0, asr r3
    5250:	51010e50 	tstpl	r1, r0, asr lr
    5254:	00003101 	andeq	r3, r0, r1, lsl #2
    5258:	000b720f 	andeq	r7, fp, pc, lsl #4
    525c:	06280100 	strteq	r0, [r8], -r0, lsl #2
    5260:	00009ea8 	andeq	r9, r0, r8, lsr #29
    5264:	00000064 	andeq	r0, r0, r4, rrx
    5268:	03749c01 	cmneq	r4, #256	; 0x100
    526c:	700a0000 	andvc	r0, sl, r0
    5270:	01006e69 	tsteq	r0, r9, ror #28
    5274:	002c2128 	eoreq	r2, ip, r8, lsr #2
    5278:	230a0000 	movwcs	r0, #40960	; 0xa000
    527c:	23060000 	movwcs	r0, #24576	; 0x6000
    5280:	78120000 	ldmdavc	r2, {}	; <UNPREDICTABLE>
    5284:	01000000 	mrseq	r0, (UNDEF: 0)
    5288:	00c23228 	sbceq	r3, r2, r8, lsr #4
    528c:	232f0000 			; <UNDEFINED> instruction: 0x232f0000
    5290:	232b0000 			; <UNDEFINED> instruction: 0x232b0000
    5294:	6f0c0000 	svcvs	0x000c0000
    5298:	01006666 	tsteq	r0, r6, ror #12
    529c:	002c0e2d 	eoreq	r0, ip, sp, lsr #28
    52a0:	23520000 	cmpcs	r2, #0, 0
    52a4:	23500000 	cmpcs	r0, #0, 0
    52a8:	670c0000 	strvs	r0, [ip, -r0]
    52ac:	0e2e0100 	sufeqe	f0, f6, f0
    52b0:	0000002c 	andeq	r0, r0, ip, lsr #32
    52b4:	00002367 	andeq	r2, r0, r7, ror #6
    52b8:	00002365 	andeq	r2, r0, r5, ror #6
    52bc:	0100760c 	tsteq	r0, ip, lsl #12
    52c0:	002c0e30 	eoreq	r0, ip, r0, lsr lr
    52c4:	23820000 	orrcs	r0, r2, #0, 0
    52c8:	237a0000 	cmncs	sl, #0, 0
    52cc:	f0100000 			; <UNDEFINED> instruction: 0xf0100000
    52d0:	9000009e 	mulls	r0, lr, r0
    52d4:	63000003 	movwvs	r0, #3
    52d8:	0e000003 	cdpeq	0, 0, cr0, cr0, cr3, {0}
    52dc:	76025001 	strvc	r5, [r2], -r1
    52e0:	040d0000 	streq	r0, [sp], #-0
    52e4:	9c00009f 	stcls	0, cr0, [r0], {159}	; 0x9f
    52e8:	0e000003 	cdpeq	0, 0, cr0, cr0, cr3, {0}
    52ec:	76025001 	strvc	r5, [r2], -r1
    52f0:	13000000 	movwne	r0, #0
    52f4:	00000d1f 	andeq	r0, r0, pc, lsl sp
    52f8:	6218b602 	andsvs	fp, r8, #2097152	; 0x200000
    52fc:	03000000 	movweq	r0, #0
    5300:	00000390 	muleq	r0, r0, r3
    5304:	02007814 	andeq	r7, r0, #20, 16	; 0x140000
    5308:	00622bb6 	strhteq	r2, [r2], #-182	; 0xffffff4a
    530c:	15000000 	strne	r0, [r0, #-0]
    5310:	00000947 	andeq	r0, r0, r7, asr #18
    5314:	00000947 	andeq	r0, r0, r7, asr #18
    5318:	150ac702 	strne	ip, [sl, #-1794]	; 0xfffff8fe
    531c:	000008b3 			; <UNDEFINED> instruction: 0x000008b3
    5320:	000008b3 			; <UNDEFINED> instruction: 0x000008b3
    5324:	0006b202 	andeq	fp, r6, r2, lsl #4

Disassembly of section .debug_abbrev:

00000000 <.debug_abbrev>:
       0:	25011101 	strcs	r1, [r1, #-257]	; 0xfffffeff
       4:	030b130e 	movweq	r1, #45838	; 0xb30e
       8:	110e1b0e 	tstne	lr, lr, lsl #22
       c:	10061201 	andne	r1, r6, r1, lsl #4
      10:	02000017 	andeq	r0, r0, #23, 0
      14:	0b0b0024 	bleq	2c00ac <__bss_end__+0x2b52a4>
      18:	08030b3e 	stmdaeq	r3, {r1, r2, r3, r4, r5, r8, r9, fp}
      1c:	24030000 	strcs	r0, [r3], #-0
      20:	3e0b0b00 	vmlacc.f64	d0, d11, d0
      24:	000e030b 	andeq	r0, lr, fp, lsl #6
      28:	00160400 	andseq	r0, r6, r0, lsl #8
      2c:	0b3a0e03 	bleq	e83840 <__bss_end__+0xe78a38>
      30:	0b390b3b 	bleq	e42d24 <__bss_end__+0xe37f1c>
      34:	00001349 	andeq	r1, r0, r9, asr #6
      38:	27011505 	strcs	r1, [r1, -r5, lsl #10]
      3c:	01134919 	tsteq	r3, r9, lsl r9
      40:	06000013 			; <UNDEFINED> instruction: 0x06000013
      44:	13490005 	movtne	r0, #36869	; 0x9005
      48:	34070000 	strcc	r0, [r7], #-0
      4c:	3a0e0300 	bcc	380c54 <__bss_end__+0x375e4c>
      50:	390b3b0b 	stmdbcc	fp, {r0, r1, r3, r8, r9, fp, ip, sp}
      54:	3f13490b 	svccc	0x0013490b
      58:	00193c19 	andseq	r3, r9, r9, lsl ip
      5c:	000f0800 	andeq	r0, pc, r0, lsl #16
      60:	13490b0b 	movtne	r0, #39691	; 0x9b0b
      64:	26090000 	strcs	r0, [r9], -r0
      68:	00134900 	andseq	r4, r3, r0, lsl #18
      6c:	01130a00 	tsteq	r3, r0, lsl #20
      70:	0b3a0b0b 	bleq	e82ca4 <__bss_end__+0xe77e9c>
      74:	0b390b3b 	bleq	e42d68 <__bss_end__+0xe37f60>
      78:	00001301 	andeq	r1, r0, r1, lsl #6
      7c:	03000d0b 	movweq	r0, #3339	; 0xd0b
      80:	3b0b3a0e 	blcc	2ce8c0 <__bss_end__+0x2c3ab8>
      84:	490b390b 	stmdbmi	fp, {r0, r1, r3, r8, fp, ip, sp}
      88:	000b3813 	andeq	r3, fp, r3, lsl r8
      8c:	00340c00 	eorseq	r0, r4, r0, lsl #24
      90:	0b3a0e03 	bleq	e838a4 <__bss_end__+0xe78a9c>
      94:	0b390b3b 	bleq	e42d88 <__bss_end__+0xe37f80>
      98:	0b1c1349 	bleq	704dc4 <__bss_end__+0x6f9fbc>
      9c:	130d0000 	movwne	r0, #53248	; 0xd000
      a0:	0b0e0301 	bleq	380cac <__bss_end__+0x375ea4>
      a4:	3b0b3a0b 	blcc	2ce8d8 <__bss_end__+0x2c3ad0>
      a8:	010b390b 	tsteq	fp, fp, lsl #18
      ac:	0e000013 	mcreq	0, 0, r0, cr0, cr3, {0}
      b0:	0803000d 	stmdaeq	r3, {r0, r2, r3}
      b4:	0b3b0b3a 	bleq	ec2da4 <__bss_end__+0xeb7f9c>
      b8:	13490b39 	movtne	r0, #39737	; 0x9b39
      bc:	00000b38 	andeq	r0, r0, r8, lsr fp
      c0:	4901010f 	stmdbmi	r1, {r0, r1, r2, r3, r8}
      c4:	00130113 	andseq	r0, r3, r3, lsl r1
      c8:	00211000 	eoreq	r1, r1, r0
      cc:	0b2f1349 	bleq	bc4df8 <__bss_end__+0xbb9ff0>
      d0:	34110000 	ldrcc	r0, [r1], #-0
      d4:	3a0e0300 	bcc	380cdc <__bss_end__+0x375ed4>
      d8:	390b3b0b 	stmdbcc	fp, {r0, r1, r3, r8, r9, fp, ip, sp}
      dc:	0013490b 	andseq	r4, r3, fp, lsl #18
      e0:	000f1200 	andeq	r1, pc, r0, lsl #4
      e4:	00000b0b 	andeq	r0, r0, fp, lsl #22
      e8:	3f012e13 	svccc	0x00012e13
      ec:	3a0e0319 	bcc	380d58 <__bss_end__+0x375f50>
      f0:	390b3b0b 	stmdbcc	fp, {r0, r1, r3, r8, r9, fp, ip, sp}
      f4:	1119270b 	tstne	r9, fp, lsl #14
      f8:	40061201 	andmi	r1, r6, r1, lsl #4
      fc:	19429718 	stmdbne	r2, {r3, r4, r8, r9, sl, ip, pc}^
     100:	00001301 	andeq	r1, r0, r1, lsl #6
     104:	03003414 	movweq	r3, #1044	; 0x414
     108:	3b0b3a08 	blcc	2ce930 <__bss_end__+0x2c3b28>
     10c:	490b390b 	stmdbmi	fp, {r0, r1, r3, r8, fp, ip, sp}
     110:	b7170213 			; <UNDEFINED> instruction: 0xb7170213
     114:	00001742 	andeq	r1, r0, r2, asr #14
     118:	03003415 	movweq	r3, #1045	; 0x415
     11c:	3413490e 	ldrcc	r4, [r3], #-2318	; 0xfffff6f2
     120:	00180219 	andseq	r0, r8, r9, lsl r2
     124:	00341600 	eorseq	r1, r4, r0, lsl #12
     128:	0b3a0e03 	bleq	e8393c <__bss_end__+0xe78b34>
     12c:	0b390b3b 	bleq	e42e20 <__bss_end__+0xe38018>
     130:	17021349 	strne	r1, [r2, -r9, asr #6]
     134:	001742b7 			; <UNDEFINED> instruction: 0x001742b7
     138:	011d1700 	tsteq	sp, r0, lsl #14
     13c:	01521331 	cmpeq	r2, r1, lsr r3
     140:	110b42b8 			; <UNDEFINED> instruction: 0x110b42b8
     144:	58061201 	stmdapl	r6, {r0, r9, ip}
     148:	570b590b 	strpl	r5, [fp, -fp, lsl #18]
     14c:	0013010b 	andseq	r0, r3, fp, lsl #2
     150:	00051800 	andeq	r1, r5, r0, lsl #16
     154:	17021331 	smladxne	r2, r1, r3, r1
     158:	001742b7 			; <UNDEFINED> instruction: 0x001742b7
     15c:	82891900 	addhi	r1, r9, #0, 18
     160:	01110101 	tsteq	r1, r1, lsl #2
     164:	13011331 	movwne	r1, #4913	; 0x1331
     168:	8a1a0000 	bhi	680170 <__bss_end__+0x675368>
     16c:	02000182 	andeq	r0, r0, #-2147483616	; 0x80000020
     170:	18429118 	stmdane	r2, {r3, r4, r8, ip, pc}^
     174:	891b0000 	ldmdbhi	fp, {}	; <UNPREDICTABLE>
     178:	11000182 	smlabbne	r0, r2, r1, r0
     17c:	00133101 	andseq	r3, r3, r1, lsl #2
     180:	012e1c00 			; <UNDEFINED> instruction: 0x012e1c00
     184:	0b3a0e03 	bleq	e83998 <__bss_end__+0xe78b90>
     188:	0b390b3b 	bleq	e42e7c <__bss_end__+0xe38074>
     18c:	13491927 	movtne	r1, #39207	; 0x9927
     190:	06120111 			; <UNDEFINED> instruction: 0x06120111
     194:	42971840 	addsmi	r1, r7, #64, 16	; 0x400000
     198:	00130119 	andseq	r0, r3, r9, lsl r1
     19c:	00051d00 	andeq	r1, r5, r0, lsl #26
     1a0:	0b3a0803 	bleq	e821b4 <__bss_end__+0xe773ac>
     1a4:	0b390b3b 	bleq	e42e98 <__bss_end__+0xe38090>
     1a8:	17021349 	strne	r1, [r2, -r9, asr #6]
     1ac:	001742b7 			; <UNDEFINED> instruction: 0x001742b7
     1b0:	012e1e00 			; <UNDEFINED> instruction: 0x012e1e00
     1b4:	0b3a0e03 	bleq	e839c8 <__bss_end__+0xe78bc0>
     1b8:	0b390b3b 	bleq	e42eac <__bss_end__+0xe380a4>
     1bc:	13491927 	movtne	r1, #39207	; 0x9927
     1c0:	13010b20 	movwne	r0, #6944	; 0x1b20
     1c4:	051f0000 	ldreq	r0, [pc, #-0]	; 1cc <__code_start__-0x7e34>
     1c8:	3a0e0300 	bcc	380dd0 <__bss_end__+0x375fc8>
     1cc:	390b3b0b 	stmdbcc	fp, {r0, r1, r3, r8, r9, fp, ip, sp}
     1d0:	0013490b 	andseq	r4, r3, fp, lsl #18
     1d4:	00362000 	eorseq	r2, r6, r0
     1d8:	00001802 	andeq	r1, r0, r2, lsl #16
     1dc:	3f002e21 	svccc	0x00002e21
     1e0:	6e193c19 	mrcvs	12, 0, r3, cr9, cr9, {0}
     1e4:	3a0e030e 	bcc	380e24 <__bss_end__+0x37601c>
     1e8:	390b3b0b 	stmdbcc	fp, {r0, r1, r3, r8, r9, fp, ip, sp}
     1ec:	0000000b 	andeq	r0, r0, fp
     1f0:	25011101 	strcs	r1, [r1, #-257]	; 0xfffffeff
     1f4:	030b130e 	movweq	r1, #45838	; 0xb30e
     1f8:	110e1b0e 	tstne	lr, lr, lsl #22
     1fc:	10061201 	andne	r1, r6, r1, lsl #4
     200:	02000017 	andeq	r0, r0, #23, 0
     204:	0b0b0024 	bleq	2c029c <__bss_end__+0x2b5494>
     208:	08030b3e 	stmdaeq	r3, {r1, r2, r3, r4, r5, r8, r9, fp}
     20c:	24030000 	strcs	r0, [r3], #-0
     210:	3e0b0b00 	vmlacc.f64	d0, d11, d0
     214:	000e030b 	andeq	r0, lr, fp, lsl #6
     218:	00160400 	andseq	r0, r6, r0, lsl #8
     21c:	0b3a0e03 	bleq	e83a30 <__bss_end__+0xe78c28>
     220:	0b390b3b 	bleq	e42f14 <__bss_end__+0xe3810c>
     224:	00001349 	andeq	r1, r0, r9, asr #6
     228:	27011505 	strcs	r1, [r1, -r5, lsl #10]
     22c:	01134919 	tsteq	r3, r9, lsl r9
     230:	06000013 			; <UNDEFINED> instruction: 0x06000013
     234:	13490005 	movtne	r0, #36869	; 0x9005
     238:	34070000 	strcc	r0, [r7], #-0
     23c:	3a0e0300 	bcc	380e44 <__bss_end__+0x37603c>
     240:	390b3b0b 	stmdbcc	fp, {r0, r1, r3, r8, r9, fp, ip, sp}
     244:	3f13490b 	svccc	0x0013490b
     248:	00193c19 	andseq	r3, r9, r9, lsl ip
     24c:	000f0800 	andeq	r0, pc, r0, lsl #16
     250:	13490b0b 	movtne	r0, #39691	; 0x9b0b
     254:	26090000 	strcs	r0, [r9], -r0
     258:	00134900 	andseq	r4, r3, r0, lsl #18
     25c:	000f0a00 	andeq	r0, pc, r0, lsl #20
     260:	00000b0b 	andeq	r0, r0, fp, lsl #22
     264:	0b01130b 	bleq	44e98 <__bss_end__+0x3a090>
     268:	3b0b3a0b 	blcc	2cea9c <__bss_end__+0x2c3c94>
     26c:	010b390b 	tsteq	fp, fp, lsl #18
     270:	0c000013 	stceq	0, cr0, [r0], {19}
     274:	0e03000d 	cdpeq	0, 0, cr0, cr3, cr13, {0}
     278:	0b3b0b3a 	bleq	ec2f68 <__bss_end__+0xeb8160>
     27c:	13490b39 	movtne	r0, #39737	; 0x9b39
     280:	00000b38 	andeq	r0, r0, r8, lsr fp
     284:	3e01040d 	cdpcc	4, 0, cr0, cr1, cr13, {0}
     288:	490b0b0b 	stmdbmi	fp, {r0, r1, r3, r8, r9, fp}
     28c:	3b0b3a13 	blcc	2ceae0 <__bss_end__+0x2c3cd8>
     290:	010b390b 	tsteq	fp, fp, lsl #18
     294:	0e000013 	mcreq	0, 0, r0, cr0, cr3, {0}
     298:	0e030028 	cdpeq	0, 0, cr0, cr3, cr8, {1}
     29c:	00000b1c 	andeq	r0, r0, ip, lsl fp
     2a0:	0300340f 	movweq	r3, #1039	; 0x40f
     2a4:	3b0b3a0e 	blcc	2ceae4 <__bss_end__+0x2c3cdc>
     2a8:	490b390b 	stmdbmi	fp, {r0, r1, r3, r8, fp, ip, sp}
     2ac:	00180213 	andseq	r0, r8, r3, lsl r2
     2b0:	01131000 	tsteq	r3, r0
     2b4:	0b0b0e03 	bleq	2c3ac8 <__bss_end__+0x2b8cc0>
     2b8:	0b3b0b3a 	bleq	ec2fa8 <__bss_end__+0xeb81a0>
     2bc:	13010b39 	movwne	r0, #6969	; 0x1b39
     2c0:	0d110000 	ldceq	0, cr0, [r1, #-0]
     2c4:	3a080300 	bcc	200ecc <__bss_end__+0x1f60c4>
     2c8:	390b3b0b 	stmdbcc	fp, {r0, r1, r3, r8, r9, fp, ip, sp}
     2cc:	3813490b 	ldmdacc	r3, {r0, r1, r3, r8, fp, lr}
     2d0:	1200000b 	andne	r0, r0, #11, 0
     2d4:	13490101 	movtne	r0, #37121	; 0x9101
     2d8:	00001301 	andeq	r1, r0, r1, lsl #6
     2dc:	49002113 	stmdbmi	r0, {r0, r1, r4, r8, sp}
     2e0:	000b2f13 	andeq	r2, fp, r3, lsl pc
     2e4:	012e1400 			; <UNDEFINED> instruction: 0x012e1400
     2e8:	0e03193f 			; <UNDEFINED> instruction: 0x0e03193f
     2ec:	0b3b0b3a 	bleq	ec2fdc <__bss_end__+0xeb81d4>
     2f0:	19270b39 	stmdbne	r7!, {r0, r3, r4, r5, r8, r9, fp}
     2f4:	01111349 	tsteq	r1, r9, asr #6
     2f8:	18400612 	stmdane	r0, {r1, r4, r9, sl}^
     2fc:	01194297 			; <UNDEFINED> instruction: 0x01194297
     300:	15000013 	strne	r0, [r0, #-19]	; 0xffffffed
     304:	0e030005 	cdpeq	0, 0, cr0, cr3, cr5, {0}
     308:	0b3b0b3a 	bleq	ec2ff8 <__bss_end__+0xeb81f0>
     30c:	13490b39 	movtne	r0, #39737	; 0x9b39
     310:	42b71702 	adcsmi	r1, r7, #524288	; 0x80000
     314:	16000017 			; <UNDEFINED> instruction: 0x16000017
     318:	08030005 	stmdaeq	r3, {r0, r2}
     31c:	0b3b0b3a 	bleq	ec300c <__bss_end__+0xeb8204>
     320:	13490b39 	movtne	r0, #39737	; 0x9b39
     324:	00001802 	andeq	r1, r0, r2, lsl #16
     328:	03003417 	movweq	r3, #1047	; 0x417
     32c:	3b0b3a08 	blcc	2ceb54 <__bss_end__+0x2c3d4c>
     330:	490b390b 	stmdbmi	fp, {r0, r1, r3, r8, fp, ip, sp}
     334:	b7170213 			; <UNDEFINED> instruction: 0xb7170213
     338:	00001742 	andeq	r1, r0, r2, asr #14
     33c:	31011d18 	tstcc	r1, r8, lsl sp
     340:	b8015213 	stmdalt	r1, {r0, r1, r4, r9, ip, lr}
     344:	01110b42 	tsteq	r1, r2, asr #22
     348:	0b580612 	bleq	1601b98 <__bss_end__+0x15f6d90>
     34c:	0b570b59 	bleq	15c30b8 <__bss_end__+0x15b82b0>
     350:	00001301 	andeq	r1, r0, r1, lsl #6
     354:	31000519 	tstcc	r0, r9, lsl r5
     358:	b7170213 			; <UNDEFINED> instruction: 0xb7170213
     35c:	00001742 	andeq	r1, r0, r2, asr #14
     360:	0182891a 	orreq	r8, r2, sl, lsl r9
     364:	31011101 	tstcc	r1, r1, lsl #2
     368:	1b000013 	blne	3bc <__code_start__-0x7c44>
     36c:	0001828a 	andeq	r8, r1, sl, lsl #5
     370:	42911802 	addsmi	r1, r1, #131072	; 0x20000
     374:	1c000018 	stcne	0, cr0, [r0], {24}
     378:	01018289 	smlabbeq	r1, r9, r2, r8
     37c:	13310111 	teqne	r1, #1073741828	; 0x40000004
     380:	00001301 	andeq	r1, r0, r1, lsl #6
     384:	3f012e1d 	svccc	0x00012e1d
     388:	3a0e0319 	bcc	380ff4 <__bss_end__+0x3761ec>
     38c:	390b3b0b 	stmdbcc	fp, {r0, r1, r3, r8, r9, fp, ip, sp}
     390:	1119270b 	tstne	r9, fp, lsl #14
     394:	40061201 	andmi	r1, r6, r1, lsl #4
     398:	19429718 	stmdbne	r2, {r3, r4, r8, r9, sl, ip, pc}^
     39c:	00001301 	andeq	r1, r0, r1, lsl #6
     3a0:	0300341e 	movweq	r3, #1054	; 0x41e
     3a4:	3413490e 	ldrcc	r4, [r3], #-2318	; 0xfffff6f2
     3a8:	00180219 	andseq	r0, r8, r9, lsl r2
     3ac:	010b1f00 	tsteq	fp, r0, lsl #30
     3b0:	06120111 			; <UNDEFINED> instruction: 0x06120111
     3b4:	00001301 	andeq	r1, r0, r1, lsl #6
     3b8:	01828920 	orreq	r8, r2, r0, lsr #18
     3bc:	31011100 	mrscc	r1, (UNDEF: 17)
     3c0:	21000013 	tstcs	r0, r3, lsl r0
     3c4:	0e030034 	mcreq	0, 0, r0, cr3, cr4, {1}
     3c8:	0b3b0b3a 	bleq	ec30b8 <__bss_end__+0xeb82b0>
     3cc:	13490b39 	movtne	r0, #39737	; 0x9b39
     3d0:	42b71702 	adcsmi	r1, r7, #524288	; 0x80000
     3d4:	22000017 	andcs	r0, r0, #23, 0
     3d8:	00000026 	andeq	r0, r0, r6, lsr #32
     3dc:	03000523 	movweq	r0, #1315	; 0x523
     3e0:	3b0b3a08 	blcc	2cec08 <__bss_end__+0x2c3e00>
     3e4:	490b390b 	stmdbmi	fp, {r0, r1, r3, r8, fp, ip, sp}
     3e8:	b7170213 			; <UNDEFINED> instruction: 0xb7170213
     3ec:	00001742 	andeq	r1, r0, r2, asr #14
     3f0:	03003424 	movweq	r3, #1060	; 0x424
     3f4:	3b0b3a0e 	blcc	2cec34 <__bss_end__+0x2c3e2c>
     3f8:	490b390b 	stmdbmi	fp, {r0, r1, r3, r8, fp, ip, sp}
     3fc:	25000013 	strcs	r0, [r0, #-19]	; 0xffffffed
     400:	1755010b 	ldrbne	r0, [r5, -fp, lsl #2]
     404:	0b260000 	bleq	98040c <__bss_end__+0x975604>
     408:	12011101 	andne	r1, r1, #1073741824	; 0x40000000
     40c:	27000006 	strcs	r0, [r0, -r6]
     410:	193f002e 	ldmdbne	pc!, {r1, r2, r3, r5}	; <UNPREDICTABLE>
     414:	0b3a0e03 	bleq	e83c28 <__bss_end__+0xe78e20>
     418:	0b390b3b 	bleq	e4310c <__bss_end__+0xe38304>
     41c:	13491927 	movtne	r1, #39207	; 0x9927
     420:	06120111 			; <UNDEFINED> instruction: 0x06120111
     424:	42971840 	addsmi	r1, r7, #64, 16	; 0x400000
     428:	28000019 	stmdacs	r0, {r0, r3, r4}
     42c:	0e03012e 	adfeqsp	f0, f3, #0.5
     430:	0b3b0b3a 	bleq	ec3120 <__bss_end__+0xeb8318>
     434:	19270b39 	stmdbne	r7!, {r0, r3, r4, r5, r8, r9, fp}
     438:	06120111 			; <UNDEFINED> instruction: 0x06120111
     43c:	42971840 	addsmi	r1, r7, #64, 16	; 0x400000
     440:	00130119 	andseq	r0, r3, r9, lsl r1
     444:	012e2900 			; <UNDEFINED> instruction: 0x012e2900
     448:	0b3a0e03 	bleq	e83c5c <__bss_end__+0xe78e54>
     44c:	0b390b3b 	bleq	e43140 <__bss_end__+0xe38338>
     450:	13491927 	movtne	r1, #39207	; 0x9927
     454:	13010b20 	movwne	r0, #6944	; 0x1b20
     458:	052a0000 	streq	r0, [sl, #-0]!
     45c:	3a080300 	bcc	201064 <__bss_end__+0x1f625c>
     460:	390b3b0b 	stmdbcc	fp, {r0, r1, r3, r8, r9, fp, ip, sp}
     464:	0013490b 	andseq	r4, r3, fp, lsl #18
     468:	002e2b00 	eoreq	r2, lr, r0, lsl #22
     46c:	193c193f 	ldmdbne	ip!, {r0, r1, r2, r3, r4, r5, r8, fp, ip}
     470:	0e030e6e 	cdpeq	14, 0, cr0, cr3, cr14, {3}
     474:	0b3b0b3a 	bleq	ec3164 <__bss_end__+0xeb835c>
     478:	00000b39 	andeq	r0, r0, r9, lsr fp
     47c:	01110100 	tsteq	r1, r0, lsl #2
     480:	0b130e25 	bleq	4c3d1c <__bss_end__+0x4b8f14>
     484:	0e1b0e03 	cdpeq	14, 1, cr0, cr11, cr3, {0}
     488:	06120111 			; <UNDEFINED> instruction: 0x06120111
     48c:	00001710 	andeq	r1, r0, r0, lsl r7
     490:	0b002402 	bleq	94a0 <va_printk+0x2c4>
     494:	030b3e0b 	movweq	r3, #48651	; 0xbe0b
     498:	03000008 	movweq	r0, #8
     49c:	0b0b0024 	bleq	2c0534 <__bss_end__+0x2b572c>
     4a0:	0e030b3e 	vmoveq.16	d3[0], r0
     4a4:	26040000 	strcs	r0, [r4], -r0
     4a8:	00134900 	andseq	r4, r3, r0, lsl #18
     4ac:	00160500 	andseq	r0, r6, r0, lsl #10
     4b0:	0b3a0e03 	bleq	e83cc4 <__bss_end__+0xe78ebc>
     4b4:	0b390b3b 	bleq	e431a8 <__bss_end__+0xe383a0>
     4b8:	00001349 	andeq	r1, r0, r9, asr #6
     4bc:	27011506 	strcs	r1, [r1, -r6, lsl #10]
     4c0:	01134919 	tsteq	r3, r9, lsl r9
     4c4:	07000013 	smladeq	r0, r3, r0, r0
     4c8:	13490005 	movtne	r0, #36869	; 0x9005
     4cc:	34080000 	strcc	r0, [r8], #-0
     4d0:	3a0e0300 	bcc	3810d8 <__bss_end__+0x3762d0>
     4d4:	390b3b0b 	stmdbcc	fp, {r0, r1, r3, r8, r9, fp, ip, sp}
     4d8:	3f13490b 	svccc	0x0013490b
     4dc:	00193c19 	andseq	r3, r9, r9, lsl ip
     4e0:	000f0900 	andeq	r0, pc, r0, lsl #18
     4e4:	13490b0b 	movtne	r0, #39691	; 0x9b0b
     4e8:	130a0000 	movwne	r0, #40960	; 0xa000
     4ec:	3a0b0b01 	bcc	2c30f8 <__bss_end__+0x2b82f0>
     4f0:	390b3b0b 	stmdbcc	fp, {r0, r1, r3, r8, r9, fp, ip, sp}
     4f4:	0013010b 	andseq	r0, r3, fp, lsl #2
     4f8:	000d0b00 	andeq	r0, sp, r0, lsl #22
     4fc:	0b3a0e03 	bleq	e83d10 <__bss_end__+0xe78f08>
     500:	0b390b3b 	bleq	e431f4 <__bss_end__+0xe383ec>
     504:	0b381349 	bleq	e05230 <__bss_end__+0xdfa428>
     508:	040c0000 	streq	r0, [ip], #-0
     50c:	0b0b3e01 	bleq	2cfd18 <__bss_end__+0x2c4f10>
     510:	3a13490b 	bcc	4d2944 <__bss_end__+0x4c7b3c>
     514:	390b3b0b 	stmdbcc	fp, {r0, r1, r3, r8, r9, fp, ip, sp}
     518:	0013010b 	andseq	r0, r3, fp, lsl #2
     51c:	00280d00 	eoreq	r0, r8, r0, lsl #26
     520:	0b1c0e03 	bleq	703d34 <__bss_end__+0x6f8f2c>
     524:	340e0000 	strcc	r0, [lr], #-0
     528:	3a0e0300 	bcc	381130 <__bss_end__+0x376328>
     52c:	390b3b0b 	stmdbcc	fp, {r0, r1, r3, r8, r9, fp, ip, sp}
     530:	1c13490b 			; <UNDEFINED> instruction: 0x1c13490b
     534:	0f00000b 	svceq	0x0000000b
     538:	0e030113 	mcreq	1, 0, r0, cr3, cr3, {0}
     53c:	0b3a0b0b 	bleq	e83170 <__bss_end__+0xe78368>
     540:	0b390b3b 	bleq	e43234 <__bss_end__+0xe3842c>
     544:	00001301 	andeq	r1, r0, r1, lsl #6
     548:	03000d10 	movweq	r0, #3344	; 0xd10
     54c:	3b0b3a08 	blcc	2ced74 <__bss_end__+0x2c3f6c>
     550:	490b390b 	stmdbmi	fp, {r0, r1, r3, r8, fp, ip, sp}
     554:	000b3813 	andeq	r3, fp, r3, lsl r8
     558:	01011100 	mrseq	r1, (UNDEF: 17)
     55c:	13011349 	movwne	r1, #4937	; 0x1349
     560:	21120000 	tstcs	r2, r0
     564:	2f134900 	svccs	0x00134900
     568:	1300000b 	movwne	r0, #11
     56c:	0e030034 	mcreq	0, 0, r0, cr3, cr4, {1}
     570:	0b3b0b3a 	bleq	ec3260 <__bss_end__+0xeb8458>
     574:	13490b39 	movtne	r0, #39737	; 0x9b39
     578:	0f140000 	svceq	0x00140000
     57c:	000b0b00 	andeq	r0, fp, r0, lsl #22
     580:	00341500 	eorseq	r1, r4, r0, lsl #10
     584:	0b3a0e03 	bleq	e83d98 <__bss_end__+0xe78f90>
     588:	0b390b3b 	bleq	e4327c <__bss_end__+0xe38474>
     58c:	18021349 	stmdane	r2, {r0, r3, r6, r8, r9, ip}
     590:	2e160000 	cdpcs	0, 1, cr0, cr6, cr0, {0}
     594:	03193f01 	tsteq	r9, #1, 30
     598:	3b0b3a0e 	blcc	2cedd8 <__bss_end__+0x2c3fd0>
     59c:	270b3905 	strcs	r3, [fp, -r5, lsl #18]
     5a0:	12011119 	andne	r1, r1, #1073741830	; 0x40000006
     5a4:	97184006 	ldrls	r4, [r8, -r6]
     5a8:	13011942 	movwne	r1, #6466	; 0x1942
     5ac:	34170000 	ldrcc	r0, [r7], #-0
     5b0:	490e0300 	stmdbmi	lr, {r8, r9}
     5b4:	02193413 	andseq	r3, r9, #318767104	; 0x13000000
     5b8:	18000018 	stmdane	r0, {r3, r4}
     5bc:	01018289 	smlabbeq	r1, r9, r2, r8
     5c0:	13310111 	teqne	r1, #1073741828	; 0x40000004
     5c4:	00001301 	andeq	r1, r0, r1, lsl #6
     5c8:	01828a19 	orreq	r8, r2, r9, lsl sl
     5cc:	91180200 	tstls	r8, r0, lsl #4
     5d0:	00001842 	andeq	r1, r0, r2, asr #16
     5d4:	0182891a 	orreq	r8, r2, sl, lsl r9
     5d8:	31011100 	mrscc	r1, (UNDEF: 17)
     5dc:	1b000013 	blne	630 <__code_start__-0x79d0>
     5e0:	193f012e 	ldmdbne	pc!, {r1, r2, r3, r5, r8}	; <UNPREDICTABLE>
     5e4:	0b3a0e03 	bleq	e83df8 <__bss_end__+0xe78ff0>
     5e8:	0b39053b 	bleq	e41adc <__bss_end__+0xe36cd4>
     5ec:	13491927 	movtne	r1, #39207	; 0x9927
     5f0:	06120111 			; <UNDEFINED> instruction: 0x06120111
     5f4:	42971840 	addsmi	r1, r7, #64, 16	; 0x400000
     5f8:	00130119 	andseq	r0, r3, r9, lsl r1
     5fc:	00341c00 	eorseq	r1, r4, r0, lsl #24
     600:	0b3a0e03 	bleq	e83e14 <__bss_end__+0xe7900c>
     604:	0b39053b 	bleq	e41af8 <__bss_end__+0xe36cf0>
     608:	17021349 	strne	r1, [r2, -r9, asr #6]
     60c:	001742b7 			; <UNDEFINED> instruction: 0x001742b7
     610:	012e1d00 			; <UNDEFINED> instruction: 0x012e1d00
     614:	0b3a0e03 	bleq	e83e28 <__bss_end__+0xe79020>
     618:	0b390b3b 	bleq	e4330c <__bss_end__+0xe38504>
     61c:	13491927 	movtne	r1, #39207	; 0x9927
     620:	06120111 			; <UNDEFINED> instruction: 0x06120111
     624:	42971840 	addsmi	r1, r7, #64, 16	; 0x400000
     628:	00130119 	andseq	r0, r3, r9, lsl r1
     62c:	00341e00 	eorseq	r1, r4, r0, lsl #28
     630:	0b3a0e03 	bleq	e83e44 <__bss_end__+0xe7903c>
     634:	0b390b3b 	bleq	e43328 <__bss_end__+0xe38520>
     638:	17021349 	strne	r1, [r2, -r9, asr #6]
     63c:	001742b7 			; <UNDEFINED> instruction: 0x001742b7
     640:	82891f00 	addhi	r1, r9, #0, 30
     644:	01110101 	tsteq	r1, r1, lsl #2
     648:	00001331 	andeq	r1, r0, r1, lsr r3
     64c:	3f012e20 	svccc	0x00012e20
     650:	3a0e0319 	bcc	3812bc <__bss_end__+0x3764b4>
     654:	390b3b0b 	stmdbcc	fp, {r0, r1, r3, r8, r9, fp, ip, sp}
     658:	4919270b 	ldmdbmi	r9, {r0, r1, r3, r8, r9, sl, sp}
     65c:	12011113 	andne	r1, r1, #-1073741820	; 0xc0000004
     660:	97184006 	ldrls	r4, [r8, -r6]
     664:	13011942 	movwne	r1, #6466	; 0x1942
     668:	2e210000 	cdpcs	0, 2, cr0, cr1, cr0, {0}
     66c:	03193f01 	tsteq	r9, #1, 30
     670:	3b0b3a0e 	blcc	2ceeb0 <__bss_end__+0x2c40a8>
     674:	270b390b 	strcs	r3, [fp, -fp, lsl #18]
     678:	12011119 	andne	r1, r1, #1073741830	; 0x40000006
     67c:	97184006 	ldrls	r4, [r8, -r6]
     680:	13011942 	movwne	r1, #6466	; 0x1942
     684:	05220000 	streq	r0, [r2, #-0]!
     688:	3a0e0300 	bcc	381290 <__bss_end__+0x376488>
     68c:	390b3b0b 	stmdbcc	fp, {r0, r1, r3, r8, r9, fp, ip, sp}
     690:	0213490b 	andseq	r4, r3, #180224	; 0x2c000
     694:	1742b717 	smlaldne	fp, r2, r7, r7
     698:	2e230000 	cdpcs	0, 2, cr0, cr3, cr0, {0}
     69c:	3a0e0301 	bcc	3812a8 <__bss_end__+0x3764a0>
     6a0:	390b3b0b 	stmdbcc	fp, {r0, r1, r3, r8, r9, fp, ip, sp}
     6a4:	1119270b 	tstne	r9, fp, lsl #14
     6a8:	40061201 	andmi	r1, r6, r1, lsl #4
     6ac:	19429718 	stmdbne	r2, {r3, r4, r8, r9, sl, ip, pc}^
     6b0:	00001301 	andeq	r1, r0, r1, lsl #6
     6b4:	03003424 	movweq	r3, #1060	; 0x424
     6b8:	3413490e 	ldrcc	r4, [r3], #-2318	; 0xfffff6f2
     6bc:	25000019 	strcs	r0, [r0, #-25]	; 0xffffffe7
     6c0:	0e030034 	mcreq	0, 0, r0, cr3, cr4, {1}
     6c4:	0b3b0b3a 	bleq	ec33b4 <__bss_end__+0xeb85ac>
     6c8:	13490b39 	movtne	r0, #39737	; 0x9b39
     6cc:	0000061c 	andeq	r0, r0, ip, lsl r6
     6d0:	11010b26 	tstne	r1, r6, lsr #22
     6d4:	01061201 	tsteq	r6, r1, lsl #4
     6d8:	27000013 	smladcs	r0, r3, r0, r0
     6dc:	08030034 	stmdaeq	r3, {r2, r4, r5}
     6e0:	0b3b0b3a 	bleq	ec33d0 <__bss_end__+0xeb85c8>
     6e4:	13490b39 	movtne	r0, #39737	; 0x9b39
     6e8:	42b71702 	adcsmi	r1, r7, #524288	; 0x80000
     6ec:	28000017 	stmdacs	r0, {r0, r1, r2, r4}
     6f0:	1755010b 	ldrbne	r0, [r5, -fp, lsl #2]
     6f4:	00001301 	andeq	r1, r0, r1, lsl #6
     6f8:	03000529 	movweq	r0, #1321	; 0x529
     6fc:	3b0b3a08 	blcc	2cef24 <__bss_end__+0x2c411c>
     700:	490b390b 	stmdbmi	fp, {r0, r1, r3, r8, fp, ip, sp}
     704:	b7170213 			; <UNDEFINED> instruction: 0xb7170213
     708:	00001742 	andeq	r1, r0, r2, asr #14
     70c:	55010b2a 	strpl	r0, [r1, #-2858]	; 0xfffff4d6
     710:	2b000017 	blcs	774 <__code_start__-0x788c>
     714:	193f002e 	ldmdbne	pc!, {r1, r2, r3, r5}	; <UNPREDICTABLE>
     718:	0e6e193c 			; <UNDEFINED> instruction: 0x0e6e193c
     71c:	0b3a0e03 	bleq	e83f30 <__bss_end__+0xe79128>
     720:	0b390b3b 	bleq	e43414 <__bss_end__+0xe3860c>
     724:	01000000 	mrseq	r0, (UNDEF: 0)
     728:	0e250111 	mcreq	1, 1, r0, cr5, cr1, {0}
     72c:	0e030b13 	vmoveq.32	d3[0], r0
     730:	01110e1b 	tsteq	r1, fp, lsl lr
     734:	17100612 			; <UNDEFINED> instruction: 0x17100612
     738:	24020000 	strcs	r0, [r2], #-0
     73c:	3e0b0b00 	vmlacc.f64	d0, d11, d0
     740:	0008030b 	andeq	r0, r8, fp, lsl #6
     744:	00240300 	eoreq	r0, r4, r0, lsl #6
     748:	0b3e0b0b 	bleq	f8337c <__bss_end__+0xf78574>
     74c:	00000e03 	andeq	r0, r0, r3, lsl #28
     750:	27011504 	strcs	r1, [r1, -r4, lsl #10]
     754:	01134919 	tsteq	r3, r9, lsl r9
     758:	05000013 	streq	r0, [r0, #-19]	; 0xffffffed
     75c:	13490005 	movtne	r0, #36869	; 0x9005
     760:	34060000 	strcc	r0, [r6], #-0
     764:	3a0e0300 	bcc	38136c <__bss_end__+0x376564>
     768:	390b3b0b 	stmdbcc	fp, {r0, r1, r3, r8, r9, fp, ip, sp}
     76c:	3f13490b 	svccc	0x0013490b
     770:	00193c19 	andseq	r3, r9, r9, lsl ip
     774:	000f0700 	andeq	r0, pc, r0, lsl #14
     778:	13490b0b 	movtne	r0, #39691	; 0x9b0b
     77c:	26080000 	strcs	r0, [r8], -r0
     780:	00134900 	andseq	r4, r3, r0, lsl #18
     784:	01170900 	tsteq	r7, r0, lsl #18
     788:	0b0b0e03 	bleq	2c3f9c <__bss_end__+0x2b9194>
     78c:	0b3b0b3a 	bleq	ec347c <__bss_end__+0xeb8674>
     790:	13010b39 	movwne	r0, #6969	; 0x1b39
     794:	0d0a0000 	stceq	0, cr0, [sl, #-0]
     798:	3a080300 	bcc	2013a0 <__bss_end__+0x1f6598>
     79c:	390b3b0b 	stmdbcc	fp, {r0, r1, r3, r8, r9, fp, ip, sp}
     7a0:	0013490b 	andseq	r4, r3, fp, lsl #18
     7a4:	000f0b00 	andeq	r0, pc, r0, lsl #22
     7a8:	00000b0b 	andeq	r0, r0, fp, lsl #22
     7ac:	2700150c 	strcs	r1, [r0, -ip, lsl #10]
     7b0:	0d000019 	stceq	0, cr0, [r0, #-100]	; 0xffffff9c
     7b4:	0b0b0113 	bleq	2c0c08 <__bss_end__+0x2b5e00>
     7b8:	0b3b0b3a 	bleq	ec34a8 <__bss_end__+0xeb86a0>
     7bc:	13010b39 	movwne	r0, #6969	; 0x1b39
     7c0:	0d0e0000 	stceq	0, cr0, [lr, #-0]
     7c4:	3a080300 	bcc	2013cc <__bss_end__+0x1f65c4>
     7c8:	390b3b0b 	stmdbcc	fp, {r0, r1, r3, r8, r9, fp, ip, sp}
     7cc:	3813490b 	ldmdacc	r3, {r0, r1, r3, r8, fp, lr}
     7d0:	0f00000b 	svceq	0x0000000b
     7d4:	0e03000d 	cdpeq	0, 0, cr0, cr3, cr13, {0}
     7d8:	0b3b0b3a 	bleq	ec34c8 <__bss_end__+0xeb86c0>
     7dc:	13490b39 	movtne	r0, #39737	; 0x9b39
     7e0:	00000b38 	andeq	r0, r0, r8, lsr fp
     7e4:	03001610 	movweq	r1, #1552	; 0x610
     7e8:	3b0b3a0e 	blcc	2cf028 <__bss_end__+0x2c4220>
     7ec:	490b390b 	stmdbmi	fp, {r0, r1, r3, r8, fp, ip, sp}
     7f0:	11000013 	tstne	r0, r3, lsl r0
     7f4:	0e030034 	mcreq	0, 0, r0, cr3, cr4, {1}
     7f8:	0b3b0b3a 	bleq	ec34e8 <__bss_end__+0xeb86e0>
     7fc:	13490b39 	movtne	r0, #39737	; 0x9b39
     800:	00001802 	andeq	r1, r0, r2, lsl #16
     804:	3f012e12 	svccc	0x00012e12
     808:	3a0e0319 	bcc	381474 <__bss_end__+0x37666c>
     80c:	390b3b0b 	stmdbcc	fp, {r0, r1, r3, r8, r9, fp, ip, sp}
     810:	1119270b 	tstne	r9, fp, lsl #14
     814:	40061201 	andmi	r1, r6, r1, lsl #4
     818:	19429718 	stmdbne	r2, {r3, r4, r8, r9, sl, ip, pc}^
     81c:	00001301 	andeq	r1, r0, r1, lsl #6
     820:	03000513 	movweq	r0, #1299	; 0x513
     824:	3b0b3a08 	blcc	2cf04c <__bss_end__+0x2c4244>
     828:	490b390b 	stmdbmi	fp, {r0, r1, r3, r8, fp, ip, sp}
     82c:	00180213 	andseq	r0, r8, r3, lsl r2
     830:	00341400 	eorseq	r1, r4, r0, lsl #8
     834:	0b3a0803 	bleq	e82848 <__bss_end__+0xe77a40>
     838:	0b390b3b 	bleq	e4352c <__bss_end__+0xe38724>
     83c:	17021349 	strne	r1, [r2, -r9, asr #6]
     840:	001742b7 			; <UNDEFINED> instruction: 0x001742b7
     844:	012e1500 			; <UNDEFINED> instruction: 0x012e1500
     848:	0e03193f 			; <UNDEFINED> instruction: 0x0e03193f
     84c:	0b3b0b3a 	bleq	ec353c <__bss_end__+0xeb8734>
     850:	19270b39 	stmdbne	r7!, {r0, r3, r4, r5, r8, r9, fp}
     854:	01111349 	tsteq	r1, r9, asr #6
     858:	18400612 	stmdane	r0, {r1, r4, r9, sl}^
     85c:	01194297 			; <UNDEFINED> instruction: 0x01194297
     860:	16000013 			; <UNDEFINED> instruction: 0x16000013
     864:	0e030005 	cdpeq	0, 0, cr0, cr3, cr5, {0}
     868:	0b3b0b3a 	bleq	ec3558 <__bss_end__+0xeb8750>
     86c:	13490b39 	movtne	r0, #39737	; 0x9b39
     870:	42b71702 	adcsmi	r1, r7, #524288	; 0x80000
     874:	17000017 	smladne	r0, r7, r0, r0
     878:	0e030034 	mcreq	0, 0, r0, cr3, cr4, {1}
     87c:	0b3b0b3a 	bleq	ec356c <__bss_end__+0xeb8764>
     880:	13490b39 	movtne	r0, #39737	; 0x9b39
     884:	42b71702 	adcsmi	r1, r7, #524288	; 0x80000
     888:	18000017 	stmdane	r0, {r0, r1, r2, r4}
     88c:	193f012e 	ldmdbne	pc!, {r1, r2, r3, r5, r8}	; <UNPREDICTABLE>
     890:	0b3a0e03 	bleq	e840a4 <__bss_end__+0xe7929c>
     894:	0b390b3b 	bleq	e43588 <__bss_end__+0xe38780>
     898:	13491927 	movtne	r1, #39207	; 0x9927
     89c:	1301193c 	movwne	r1, #6460	; 0x193c
     8a0:	89190000 	ldmdbhi	r9, {}	; <UNPREDICTABLE>
     8a4:	11010182 	smlabbne	r1, r2, r1, r0
     8a8:	00133101 	andseq	r3, r3, r1, lsl #2
     8ac:	828a1a00 	addhi	r1, sl, #0, 20
     8b0:	18020001 	stmdane	r2, {r0}
     8b4:	00184291 	mulseq	r8, r1, r2
     8b8:	012e1b00 			; <UNDEFINED> instruction: 0x012e1b00
     8bc:	0b3a0e03 	bleq	e840d0 <__bss_end__+0xe792c8>
     8c0:	0b390b3b 	bleq	e435b4 <__bss_end__+0xe387ac>
     8c4:	13491927 	movtne	r1, #39207	; 0x9927
     8c8:	06120111 			; <UNDEFINED> instruction: 0x06120111
     8cc:	42971840 	addsmi	r1, r7, #64, 16	; 0x400000
     8d0:	00130119 	andseq	r0, r3, r9, lsl r1
     8d4:	00051c00 	andeq	r1, r5, r0, lsl #24
     8d8:	0b3a0803 	bleq	e828ec <__bss_end__+0xe77ae4>
     8dc:	0b390b3b 	bleq	e435d0 <__bss_end__+0xe387c8>
     8e0:	17021349 	strne	r1, [r2, -r9, asr #6]
     8e4:	001742b7 			; <UNDEFINED> instruction: 0x001742b7
     8e8:	82891d00 	addhi	r1, r9, #0, 26
     8ec:	01110101 	tsteq	r1, r1, lsl #2
     8f0:	13011331 	movwne	r1, #4913	; 0x1331
     8f4:	891e0000 	ldmdbhi	lr, {}	; <UNPREDICTABLE>
     8f8:	11000182 	smlabbne	r0, r2, r1, r0
     8fc:	00133101 	andseq	r3, r3, r1, lsl #2
     900:	002e1f00 	eoreq	r1, lr, r0, lsl #30
     904:	193c193f 	ldmdbne	ip!, {r0, r1, r2, r3, r4, r5, r8, fp, ip}
     908:	0e030e6e 	cdpeq	14, 0, cr0, cr3, cr14, {3}
     90c:	0b3b0b3a 	bleq	ec35fc <__bss_end__+0xeb87f4>
     910:	00000b39 	andeq	r0, r0, r9, lsr fp
     914:	01110100 	tsteq	r1, r0, lsl #2
     918:	0b130e25 	bleq	4c41b4 <__bss_end__+0x4b93ac>
     91c:	0e1b0e03 	cdpeq	14, 1, cr0, cr11, cr3, {0}
     920:	06120111 			; <UNDEFINED> instruction: 0x06120111
     924:	00001710 	andeq	r1, r0, r0, lsl r7
     928:	0b002402 	bleq	9938 <uart_getc+0xc>
     92c:	030b3e0b 	movweq	r3, #48651	; 0xbe0b
     930:	03000008 	movweq	r0, #8
     934:	0e030016 	mcreq	0, 0, r0, cr3, cr6, {0}
     938:	0b3b0b3a 	bleq	ec3628 <__bss_end__+0xeb8820>
     93c:	13490b39 	movtne	r0, #39737	; 0x9b39
     940:	24040000 	strcs	r0, [r4], #-0
     944:	3e0b0b00 	vmlacc.f64	d0, d11, d0
     948:	000e030b 	andeq	r0, lr, fp, lsl #6
     94c:	00260500 	eoreq	r0, r6, r0, lsl #10
     950:	00001349 	andeq	r1, r0, r9, asr #6
     954:	27011506 	strcs	r1, [r1, -r6, lsl #10]
     958:	01134919 	tsteq	r3, r9, lsl r9
     95c:	07000013 	smladeq	r0, r3, r0, r0
     960:	13490005 	movtne	r0, #36869	; 0x9005
     964:	34080000 	strcc	r0, [r8], #-0
     968:	3a0e0300 	bcc	381570 <__bss_end__+0x376768>
     96c:	390b3b0b 	stmdbcc	fp, {r0, r1, r3, r8, r9, fp, ip, sp}
     970:	3f13490b 	svccc	0x0013490b
     974:	00193c19 	andseq	r3, r9, r9, lsl ip
     978:	000f0900 	andeq	r0, pc, r0, lsl #18
     97c:	13490b0b 	movtne	r0, #39691	; 0x9b0b
     980:	2e0a0000 	cdpcs	0, 0, cr0, cr10, cr0, {0}
     984:	03193f01 	tsteq	r9, #1, 30
     988:	3b0b3a0e 	blcc	2cf1c8 <__bss_end__+0x2c43c0>
     98c:	270b390b 	strcs	r3, [fp, -fp, lsl #18]
     990:	11134919 	tstne	r3, r9, lsl r9
     994:	40061201 	andmi	r1, r6, r1, lsl #4
     998:	19429718 	stmdbne	r2, {r3, r4, r8, r9, sl, ip, pc}^
     99c:	00001301 	andeq	r1, r0, r1, lsl #6
     9a0:	0300050b 	movweq	r0, #1291	; 0x50b
     9a4:	3b0b3a08 	blcc	2cf1cc <__bss_end__+0x2c43c4>
     9a8:	490b390b 	stmdbmi	fp, {r0, r1, r3, r8, fp, ip, sp}
     9ac:	b7170213 			; <UNDEFINED> instruction: 0xb7170213
     9b0:	00001742 	andeq	r1, r0, r2, asr #14
     9b4:	0300050c 	movweq	r0, #1292	; 0x50c
     9b8:	3b0b3a08 	blcc	2cf1e0 <__bss_end__+0x2c43d8>
     9bc:	490b390b 	stmdbmi	fp, {r0, r1, r3, r8, fp, ip, sp}
     9c0:	00180213 	andseq	r0, r8, r3, lsl r2
     9c4:	00050d00 	andeq	r0, r5, r0, lsl #26
     9c8:	0b3a0e03 	bleq	e841dc <__bss_end__+0xe793d4>
     9cc:	0b390b3b 	bleq	e436c0 <__bss_end__+0xe388b8>
     9d0:	18021349 	stmdane	r2, {r0, r3, r6, r8, r9, ip}
     9d4:	340e0000 	strcc	r0, [lr], #-0
     9d8:	3a080300 	bcc	2015e0 <__bss_end__+0x1f67d8>
     9dc:	390b3b0b 	stmdbcc	fp, {r0, r1, r3, r8, r9, fp, ip, sp}
     9e0:	0213490b 	andseq	r4, r3, #180224	; 0x2c000
     9e4:	1742b717 	smlaldne	fp, r2, r7, r7
     9e8:	0b0f0000 	bleq	3c09f0 <__bss_end__+0x3b5be8>
     9ec:	12011101 	andne	r1, r1, #1073741824	; 0x40000000
     9f0:	10000006 	andne	r0, r0, r6
     9f4:	00000026 	andeq	r0, r0, r6, lsr #32
     9f8:	01110100 	tsteq	r1, r0, lsl #2
     9fc:	0b130e25 	bleq	4c4298 <__bss_end__+0x4b9490>
     a00:	0e1b0e03 	cdpeq	14, 1, cr0, cr11, cr3, {0}
     a04:	06120111 			; <UNDEFINED> instruction: 0x06120111
     a08:	00001710 	andeq	r1, r0, r0, lsl r7
     a0c:	0b002402 	bleq	9a1c <kmalloc_heap_ptr+0x8>
     a10:	030b3e0b 	movweq	r3, #48651	; 0xbe0b
     a14:	03000008 	movweq	r0, #8
     a18:	0e030016 	mcreq	0, 0, r0, cr3, cr6, {0}
     a1c:	0b3b0b3a 	bleq	ec370c <__bss_end__+0xeb8904>
     a20:	13490b39 	movtne	r0, #39737	; 0x9b39
     a24:	24040000 	strcs	r0, [r4], #-0
     a28:	3e0b0b00 	vmlacc.f64	d0, d11, d0
     a2c:	000e030b 	andeq	r0, lr, fp, lsl #6
     a30:	00260500 	eoreq	r0, r6, r0, lsl #10
     a34:	00001349 	andeq	r1, r0, r9, asr #6
     a38:	27011506 	strcs	r1, [r1, -r6, lsl #10]
     a3c:	01134919 	tsteq	r3, r9, lsl r9
     a40:	07000013 	smladeq	r0, r3, r0, r0
     a44:	13490005 	movtne	r0, #36869	; 0x9005
     a48:	34080000 	strcc	r0, [r8], #-0
     a4c:	3a0e0300 	bcc	381654 <__bss_end__+0x37684c>
     a50:	390b3b0b 	stmdbcc	fp, {r0, r1, r3, r8, r9, fp, ip, sp}
     a54:	3f13490b 	svccc	0x0013490b
     a58:	00193c19 	andseq	r3, r9, r9, lsl ip
     a5c:	000f0900 	andeq	r0, pc, r0, lsl #18
     a60:	13490b0b 	movtne	r0, #39691	; 0x9b0b
     a64:	2e0a0000 	cdpcs	0, 0, cr0, cr10, cr0, {0}
     a68:	03193f01 	tsteq	r9, #1, 30
     a6c:	3b0b3a0e 	blcc	2cf2ac <__bss_end__+0x2c44a4>
     a70:	270b390b 	strcs	r3, [fp, -fp, lsl #18]
     a74:	11134919 	tstne	r3, r9, lsl r9
     a78:	40061201 	andmi	r1, r6, r1, lsl #4
     a7c:	19429718 	stmdbne	r2, {r3, r4, r8, r9, sl, ip, pc}^
     a80:	00001301 	andeq	r1, r0, r1, lsl #6
     a84:	0300050b 	movweq	r0, #1291	; 0x50b
     a88:	3b0b3a08 	blcc	2cf2b0 <__bss_end__+0x2c44a8>
     a8c:	490b390b 	stmdbmi	fp, {r0, r1, r3, r8, fp, ip, sp}
     a90:	00180213 	andseq	r0, r8, r3, lsl r2
     a94:	00050c00 	andeq	r0, r5, r0, lsl #24
     a98:	0b3a0e03 	bleq	e842ac <__bss_end__+0xe794a4>
     a9c:	0b390b3b 	bleq	e43790 <__bss_end__+0xe38988>
     aa0:	17021349 	strne	r1, [r2, -r9, asr #6]
     aa4:	001742b7 			; <UNDEFINED> instruction: 0x001742b7
     aa8:	00340d00 	eorseq	r0, r4, r0, lsl #26
     aac:	13490e03 	movtne	r0, #40451	; 0x9e03
     ab0:	0e1c1934 			; <UNDEFINED> instruction: 0x0e1c1934
     ab4:	0b0e0000 	bleq	380abc <__bss_end__+0x375cb4>
     ab8:	12011101 	andne	r1, r1, #1073741824	; 0x40000000
     abc:	00130106 	andseq	r0, r3, r6, lsl #2
     ac0:	00340f00 	eorseq	r0, r4, r0, lsl #30
     ac4:	0b3a0803 	bleq	e82ad8 <__bss_end__+0xe77cd0>
     ac8:	0b390b3b 	bleq	e437bc <__bss_end__+0xe389b4>
     acc:	17021349 	strne	r1, [r2, -r9, asr #6]
     ad0:	001742b7 			; <UNDEFINED> instruction: 0x001742b7
     ad4:	010b1000 	mrseq	r1, (UNDEF: 11)
     ad8:	06120111 			; <UNDEFINED> instruction: 0x06120111
     adc:	34110000 	ldrcc	r0, [r1], #-0
     ae0:	3a080300 	bcc	2016e8 <__bss_end__+0x1f68e0>
     ae4:	390b3b0b 	stmdbcc	fp, {r0, r1, r3, r8, r9, fp, ip, sp}
     ae8:	0013490b 	andseq	r4, r3, fp, lsl #18
     aec:	000f1200 	andeq	r1, pc, r0, lsl #4
     af0:	00000b0b 	andeq	r0, r0, fp, lsl #22
     af4:	00002613 	andeq	r2, r0, r3, lsl r6
     af8:	01011400 	tsteq	r1, r0, lsl #8
     afc:	13011349 	movwne	r1, #4937	; 0x1349
     b00:	21150000 	tstcs	r5, r0
     b04:	2f134900 	svccs	0x00134900
     b08:	0000000b 	andeq	r0, r0, fp
     b0c:	25011101 	strcs	r1, [r1, #-257]	; 0xfffffeff
     b10:	030b130e 	movweq	r1, #45838	; 0xb30e
     b14:	110e1b0e 	tstne	lr, lr, lsl #22
     b18:	10061201 	andne	r1, r6, r1, lsl #4
     b1c:	02000017 	andeq	r0, r0, #23, 0
     b20:	0b0b0024 	bleq	2c0bb8 <__bss_end__+0x2b5db0>
     b24:	08030b3e 	stmdaeq	r3, {r1, r2, r3, r4, r5, r8, r9, fp}
     b28:	16030000 	strne	r0, [r3], -r0
     b2c:	3a0e0300 	bcc	381734 <__bss_end__+0x37692c>
     b30:	390b3b0b 	stmdbcc	fp, {r0, r1, r3, r8, r9, fp, ip, sp}
     b34:	0013490b 	andseq	r4, r3, fp, lsl #18
     b38:	00240400 	eoreq	r0, r4, r0, lsl #8
     b3c:	0b3e0b0b 	bleq	f83770 <__bss_end__+0xf78968>
     b40:	00000e03 	andeq	r0, r0, r3, lsl #28
     b44:	27011505 	strcs	r1, [r1, -r5, lsl #10]
     b48:	01134919 	tsteq	r3, r9, lsl r9
     b4c:	06000013 			; <UNDEFINED> instruction: 0x06000013
     b50:	13490005 	movtne	r0, #36869	; 0x9005
     b54:	34070000 	strcc	r0, [r7], #-0
     b58:	3a0e0300 	bcc	381760 <__bss_end__+0x376958>
     b5c:	390b3b0b 	stmdbcc	fp, {r0, r1, r3, r8, r9, fp, ip, sp}
     b60:	3f13490b 	svccc	0x0013490b
     b64:	00193c19 	andseq	r3, r9, r9, lsl ip
     b68:	000f0800 	andeq	r0, pc, r0, lsl #16
     b6c:	13490b0b 	movtne	r0, #39691	; 0x9b0b
     b70:	26090000 	strcs	r0, [r9], -r0
     b74:	00134900 	andseq	r4, r3, r0, lsl #18
     b78:	012e0a00 			; <UNDEFINED> instruction: 0x012e0a00
     b7c:	0e03193f 			; <UNDEFINED> instruction: 0x0e03193f
     b80:	0b3b0b3a 	bleq	ec3870 <__bss_end__+0xeb8a68>
     b84:	19270b39 	stmdbne	r7!, {r0, r3, r4, r5, r8, r9, fp}
     b88:	01111349 	tsteq	r1, r9, asr #6
     b8c:	18400612 	stmdane	r0, {r1, r4, r9, sl}^
     b90:	01194297 			; <UNDEFINED> instruction: 0x01194297
     b94:	0b000013 	bleq	be8 <__code_start__-0x7418>
     b98:	08030005 	stmdaeq	r3, {r0, r2}
     b9c:	0b3b0b3a 	bleq	ec388c <__bss_end__+0xeb8a84>
     ba0:	13490b39 	movtne	r0, #39737	; 0x9b39
     ba4:	00001802 	andeq	r1, r0, r2, lsl #16
     ba8:	0300050c 	movweq	r0, #1292	; 0x50c
     bac:	3b0b3a08 	blcc	2cf3d4 <__bss_end__+0x2c45cc>
     bb0:	490b390b 	stmdbmi	fp, {r0, r1, r3, r8, fp, ip, sp}
     bb4:	b7170213 			; <UNDEFINED> instruction: 0xb7170213
     bb8:	00001742 	andeq	r1, r0, r2, asr #14
     bbc:	0300340d 	movweq	r3, #1037	; 0x40d
     bc0:	3b0b3a08 	blcc	2cf3e8 <__bss_end__+0x2c45e0>
     bc4:	490b390b 	stmdbmi	fp, {r0, r1, r3, r8, fp, ip, sp}
     bc8:	b7170213 			; <UNDEFINED> instruction: 0xb7170213
     bcc:	00001742 	andeq	r1, r0, r2, asr #14
     bd0:	0b000f0e 	bleq	4810 <__code_start__-0x37f0>
     bd4:	0000000b 	andeq	r0, r0, fp
     bd8:	25011101 	strcs	r1, [r1, #-257]	; 0xfffffeff
     bdc:	030b130e 	movweq	r1, #45838	; 0xb30e
     be0:	110e1b0e 	tstne	lr, lr, lsl #22
     be4:	10061201 	andne	r1, r6, r1, lsl #4
     be8:	02000017 	andeq	r0, r0, #23, 0
     bec:	0e030016 	mcreq	0, 0, r0, cr3, cr6, {0}
     bf0:	0b3b0b3a 	bleq	ec38e0 <__bss_end__+0xeb8ad8>
     bf4:	13490b39 	movtne	r0, #39737	; 0x9b39
     bf8:	13030000 	movwne	r0, #12288	; 0x3000
     bfc:	0b0e0301 	bleq	381808 <__bss_end__+0x376a00>
     c00:	3b0b3a0b 	blcc	2cf434 <__bss_end__+0x2c462c>
     c04:	0013010b 	andseq	r0, r3, fp, lsl #2
     c08:	000d0400 	andeq	r0, sp, r0, lsl #8
     c0c:	13490e03 	movtne	r0, #40451	; 0x9e03
     c10:	19340b38 	ldmdbne	r4!, {r3, r4, r5, r8, r9, fp}
     c14:	0f050000 	svceq	0x00050000
     c18:	000b0b00 	andeq	r0, fp, r0, lsl #22
     c1c:	00240600 	eoreq	r0, r4, r0, lsl #12
     c20:	0b3e0b0b 	bleq	f83854 <__bss_end__+0xf78a4c>
     c24:	00000803 	andeq	r0, r0, r3, lsl #16
     c28:	0b002407 	bleq	9c4c <kmalloc_aligned+0x38>
     c2c:	030b3e0b 	movweq	r3, #48651	; 0xbe0b
     c30:	0800000e 	stmdaeq	r0, {r1, r2, r3}
     c34:	19270115 	stmdbne	r7!, {r0, r2, r4, r8}
     c38:	13011349 	movwne	r1, #4937	; 0x1349
     c3c:	05090000 	streq	r0, [r9, #-0]
     c40:	00134900 	andseq	r4, r3, r0, lsl #18
     c44:	00340a00 	eorseq	r0, r4, r0, lsl #20
     c48:	0b3a0e03 	bleq	e8445c <__bss_end__+0xe79654>
     c4c:	0b390b3b 	bleq	e43940 <__bss_end__+0xe38b38>
     c50:	193f1349 	ldmdbne	pc!, {r0, r3, r6, r8, r9, ip}	; <UNPREDICTABLE>
     c54:	0000193c 	andeq	r1, r0, ip, lsr r9
     c58:	0b000f0b 	bleq	488c <__code_start__-0x3774>
     c5c:	0013490b 	andseq	r4, r3, fp, lsl #18
     c60:	00260c00 	eoreq	r0, r6, r0, lsl #24
     c64:	00001349 	andeq	r1, r0, r9, asr #6
     c68:	3f012e0d 	svccc	0x00012e0d
     c6c:	3a0e0319 	bcc	3818d8 <__bss_end__+0x376ad0>
     c70:	390b3b0b 	stmdbcc	fp, {r0, r1, r3, r8, r9, fp, ip, sp}
     c74:	4919270b 	ldmdbmi	r9, {r0, r1, r3, r8, r9, sl, sp}
     c78:	12011113 	andne	r1, r1, #-1073741820	; 0xc0000004
     c7c:	97184006 	ldrls	r4, [r8, -r6]
     c80:	13011942 	movwne	r1, #6466	; 0x1942
     c84:	050e0000 	streq	r0, [lr, #-0]
     c88:	3a080300 	bcc	201890 <__bss_end__+0x1f6a88>
     c8c:	390b3b0b 	stmdbcc	fp, {r0, r1, r3, r8, r9, fp, ip, sp}
     c90:	0213490b 	andseq	r4, r3, #180224	; 0x2c000
     c94:	0f000018 	svceq	0x00000018
     c98:	00000018 	andeq	r0, r0, r8, lsl r0
     c9c:	03003410 	movweq	r3, #1040	; 0x410
     ca0:	3b0b3a08 	blcc	2cf4c8 <__bss_end__+0x2c46c0>
     ca4:	490b390b 	stmdbmi	fp, {r0, r1, r3, r8, fp, ip, sp}
     ca8:	00180213 	andseq	r0, r8, r3, lsl r2
     cac:	00341100 	eorseq	r1, r4, r0, lsl #2
     cb0:	0b3a0e03 	bleq	e844c4 <__bss_end__+0xe796bc>
     cb4:	0b390b3b 	bleq	e439a8 <__bss_end__+0xe38ba0>
     cb8:	18021349 	stmdane	r2, {r0, r3, r6, r8, r9, ip}
     cbc:	34120000 	ldrcc	r0, [r2], #-0
     cc0:	3a080300 	bcc	2018c8 <__bss_end__+0x1f6ac0>
     cc4:	390b3b0b 	stmdbcc	fp, {r0, r1, r3, r8, r9, fp, ip, sp}
     cc8:	0213490b 	andseq	r4, r3, #180224	; 0x2c000
     ccc:	1742b717 	smlaldne	fp, r2, r7, r7
     cd0:	89130000 	ldmdbhi	r3, {}	; <UNPREDICTABLE>
     cd4:	11010182 	smlabbne	r1, r2, r1, r0
     cd8:	01133101 	tsteq	r3, r1, lsl #2
     cdc:	14000013 	strne	r0, [r0], #-19	; 0xffffffed
     ce0:	0001828a 	andeq	r8, r1, sl, lsl #5
     ce4:	42911802 	addsmi	r1, r1, #131072	; 0x20000
     ce8:	15000018 	strne	r0, [r0, #-24]	; 0xffffffe8
     cec:	01018289 	smlabbeq	r1, r9, r2, r8
     cf0:	00000111 	andeq	r0, r0, r1, lsl r1
     cf4:	49010116 	stmdbmi	r1, {r1, r2, r4, r8}
     cf8:	00130113 	andseq	r0, r3, r3, lsl r1
     cfc:	00211700 	eoreq	r1, r1, r0, lsl #14
     d00:	052f1349 	streq	r1, [pc, #-841]!	; 9bf <__code_start__-0x7641>
     d04:	2e180000 	cdpcs	0, 1, cr0, cr8, cr0, {0}
     d08:	3c193f00 	ldccc	15, cr3, [r9], {-0}
     d0c:	030e6e19 	movweq	r6, #60953	; 0xee19
     d10:	3b0b3a0e 	blcc	2cf550 <__bss_end__+0x2c4748>
     d14:	000b390b 	andeq	r3, fp, fp, lsl #18
     d18:	11010000 	mrsne	r0, (UNDEF: 1)
     d1c:	130e2501 	movwne	r2, #58625	; 0xe501
     d20:	1b0e030b 	blne	381954 <__bss_end__+0x376b4c>
     d24:	1201110e 	andne	r1, r1, #-2147483645	; 0x80000003
     d28:	00171006 	andseq	r1, r7, r6
     d2c:	00240200 	eoreq	r0, r4, r0, lsl #4
     d30:	0b3e0b0b 	bleq	f83964 <__bss_end__+0xf78b5c>
     d34:	00000803 	andeq	r0, r0, r3, lsl #16
     d38:	0b002403 	bleq	9d4c <kfree_pop+0x8>
     d3c:	030b3e0b 	movweq	r3, #48651	; 0xbe0b
     d40:	0400000e 	streq	r0, [r0], #-14
     d44:	19270115 	stmdbne	r7!, {r0, r2, r4, r8}
     d48:	13011349 	movwne	r1, #4937	; 0x1349
     d4c:	05050000 	streq	r0, [r5, #-0]
     d50:	00134900 	andseq	r4, r3, r0, lsl #18
     d54:	00340600 	eorseq	r0, r4, r0, lsl #12
     d58:	0b3a0e03 	bleq	e8456c <__bss_end__+0xe79764>
     d5c:	0b390b3b 	bleq	e43a50 <__bss_end__+0xe38c48>
     d60:	193f1349 	ldmdbne	pc!, {r0, r3, r6, r8, r9, ip}	; <UNPREDICTABLE>
     d64:	0000193c 	andeq	r1, r0, ip, lsr r9
     d68:	0b000f07 	bleq	498c <__code_start__-0x3674>
     d6c:	0013490b 	andseq	r4, r3, fp, lsl #18
     d70:	00260800 	eoreq	r0, r6, r0, lsl #16
     d74:	00001349 	andeq	r1, r0, r9, asr #6
     d78:	47003409 	strmi	r3, [r0, -r9, lsl #8]
     d7c:	3b0b3a13 	blcc	2cf5d0 <__bss_end__+0x2c47c8>
     d80:	020b390b 	andeq	r3, fp, #180224	; 0x2c000
     d84:	0a000018 	beq	dec <__code_start__-0x7214>
     d88:	193f012e 	ldmdbne	pc!, {r1, r2, r3, r5, r8}	; <UNPREDICTABLE>
     d8c:	0b3a0e03 	bleq	e845a0 <__bss_end__+0xe79798>
     d90:	0b390b3b 	bleq	e43a84 <__bss_end__+0xe38c7c>
     d94:	13491927 	movtne	r1, #39207	; 0x9927
     d98:	06120111 			; <UNDEFINED> instruction: 0x06120111
     d9c:	42961840 	addsmi	r1, r6, #64, 16	; 0x400000
     da0:	0b000019 	bleq	e0c <__code_start__-0x71f4>
     da4:	08030005 	stmdaeq	r3, {r0, r2}
     da8:	0b3b0b3a 	bleq	ec3a98 <__bss_end__+0xeb8c90>
     dac:	13490b39 	movtne	r0, #39737	; 0x9b39
     db0:	42b71702 	adcsmi	r1, r7, #524288	; 0x80000
     db4:	00000017 	andeq	r0, r0, r7, lsl r0
     db8:	25011101 	strcs	r1, [r1, #-257]	; 0xfffffeff
     dbc:	030b130e 	movweq	r1, #45838	; 0xb30e
     dc0:	110e1b0e 	tstne	lr, lr, lsl #22
     dc4:	10061201 	andne	r1, r6, r1, lsl #4
     dc8:	02000017 	andeq	r0, r0, #23, 0
     dcc:	0b0b0024 	bleq	2c0e64 <__bss_end__+0x2b605c>
     dd0:	08030b3e 	stmdaeq	r3, {r1, r2, r3, r4, r5, r8, r9, fp}
     dd4:	24030000 	strcs	r0, [r3], #-0
     dd8:	3e0b0b00 	vmlacc.f64	d0, d11, d0
     ddc:	000e030b 	andeq	r0, lr, fp, lsl #6
     de0:	00160400 	andseq	r0, r6, r0, lsl #8
     de4:	0b3a0e03 	bleq	e845f8 <__bss_end__+0xe797f0>
     de8:	0b390b3b 	bleq	e43adc <__bss_end__+0xe38cd4>
     dec:	00001349 	andeq	r1, r0, r9, asr #6
     df0:	27011505 	strcs	r1, [r1, -r5, lsl #10]
     df4:	01134919 	tsteq	r3, r9, lsl r9
     df8:	06000013 			; <UNDEFINED> instruction: 0x06000013
     dfc:	13490005 	movtne	r0, #36869	; 0x9005
     e00:	34070000 	strcc	r0, [r7], #-0
     e04:	3a0e0300 	bcc	381a0c <__bss_end__+0x376c04>
     e08:	390b3b0b 	stmdbcc	fp, {r0, r1, r3, r8, r9, fp, ip, sp}
     e0c:	3f13490b 	svccc	0x0013490b
     e10:	00193c19 	andseq	r3, r9, r9, lsl ip
     e14:	000f0800 	andeq	r0, pc, r0, lsl #16
     e18:	13490b0b 	movtne	r0, #39691	; 0x9b0b
     e1c:	26090000 	strcs	r0, [r9], -r0
     e20:	00134900 	andseq	r4, r3, r0, lsl #18
     e24:	01130a00 	tsteq	r3, r0, lsl #20
     e28:	0b0b0e03 	bleq	2c463c <__bss_end__+0x2b9834>
     e2c:	0b3b0b3a 	bleq	ec3b1c <__bss_end__+0xeb8d14>
     e30:	00001301 	andeq	r1, r0, r1, lsl #6
     e34:	03000d0b 	movweq	r0, #3339	; 0xd0b
     e38:	3813490e 	ldmdacc	r3, {r1, r2, r3, r8, fp, lr}
     e3c:	0019340b 	andseq	r3, r9, fp, lsl #8
     e40:	000f0c00 	andeq	r0, pc, r0, lsl #24
     e44:	00000b0b 	andeq	r0, r0, fp, lsl #22
     e48:	3f012e0d 	svccc	0x00012e0d
     e4c:	3a0e0319 	bcc	381ab8 <__bss_end__+0x376cb0>
     e50:	390b3b0b 	stmdbcc	fp, {r0, r1, r3, r8, r9, fp, ip, sp}
     e54:	4919270b 	ldmdbmi	r9, {r0, r1, r3, r8, r9, sl, sp}
     e58:	12011113 	andne	r1, r1, #-1073741820	; 0xc0000004
     e5c:	97184006 	ldrls	r4, [r8, -r6]
     e60:	13011942 	movwne	r1, #6466	; 0x1942
     e64:	050e0000 	streq	r0, [lr, #-0]
     e68:	3a080300 	bcc	201a70 <__bss_end__+0x1f6c68>
     e6c:	390b3b0b 	stmdbcc	fp, {r0, r1, r3, r8, r9, fp, ip, sp}
     e70:	0213490b 	andseq	r4, r3, #180224	; 0x2c000
     e74:	1742b717 	smlaldne	fp, r2, r7, r7
     e78:	050f0000 	streq	r0, [pc, #-0]	; e80 <__code_start__-0x7180>
     e7c:	3a0e0300 	bcc	381a84 <__bss_end__+0x376c7c>
     e80:	390b3b0b 	stmdbcc	fp, {r0, r1, r3, r8, r9, fp, ip, sp}
     e84:	0213490b 	andseq	r4, r3, #180224	; 0x2c000
     e88:	10000018 	andne	r0, r0, r8, lsl r0
     e8c:	08030034 	stmdaeq	r3, {r2, r4, r5}
     e90:	0b3b0b3a 	bleq	ec3b80 <__bss_end__+0xeb8d78>
     e94:	13490b39 	movtne	r0, #39737	; 0x9b39
     e98:	42b71702 	adcsmi	r1, r7, #524288	; 0x80000
     e9c:	11000017 	tstne	r0, r7, lsl r0
     ea0:	0e030034 	mcreq	0, 0, r0, cr3, cr4, {1}
     ea4:	0b3b0b3a 	bleq	ec3b94 <__bss_end__+0xeb8d8c>
     ea8:	13490b39 	movtne	r0, #39737	; 0x9b39
     eac:	42b71702 	adcsmi	r1, r7, #524288	; 0x80000
     eb0:	12000017 	andne	r0, r0, #23, 0
     eb4:	0e030034 	mcreq	0, 0, r0, cr3, cr4, {1}
     eb8:	19341349 	ldmdbne	r4!, {r0, r3, r6, r8, r9, ip}
     ebc:	00001802 	andeq	r1, r0, r2, lsl #16
     ec0:	11010b13 	tstne	r1, r3, lsl fp
     ec4:	00061201 	andeq	r1, r6, r1, lsl #4
     ec8:	00341400 	eorseq	r1, r4, r0, lsl #8
     ecc:	0b3a0803 	bleq	e82ee0 <__bss_end__+0xe780d8>
     ed0:	0b390b3b 	bleq	e43bc4 <__bss_end__+0xe38dbc>
     ed4:	18021349 	stmdane	r2, {r0, r3, r6, r8, r9, ip}
     ed8:	34150000 	ldrcc	r0, [r5], #-0
     edc:	3a0e0300 	bcc	381ae4 <__bss_end__+0x376cdc>
     ee0:	390b3b0b 	stmdbcc	fp, {r0, r1, r3, r8, r9, fp, ip, sp}
     ee4:	0213490b 	andseq	r4, r3, #180224	; 0x2c000
     ee8:	16000018 			; <UNDEFINED> instruction: 0x16000018
     eec:	0111010b 	tsteq	r1, fp, lsl #2
     ef0:	13010612 	movwne	r0, #5650	; 0x1612
     ef4:	34170000 	ldrcc	r0, [r7], #-0
     ef8:	3a080300 	bcc	201b00 <__bss_end__+0x1f6cf8>
     efc:	390b3b0b 	stmdbcc	fp, {r0, r1, r3, r8, r9, fp, ip, sp}
     f00:	0013490b 	andseq	r4, r3, fp, lsl #18
     f04:	82891800 	addhi	r1, r9, #0, 16
     f08:	01110101 	tsteq	r1, r1, lsl #2
     f0c:	13011331 	movwne	r1, #4913	; 0x1331
     f10:	8a190000 	bhi	640f18 <__bss_end__+0x636110>
     f14:	02000182 	andeq	r0, r0, #-2147483616	; 0x80000020
     f18:	18429118 	stmdane	r2, {r3, r4, r8, ip, pc}^
     f1c:	891a0000 	ldmdbhi	sl, {}	; <UNPREDICTABLE>
     f20:	11000182 	smlabbne	r0, r2, r1, r0
     f24:	00133101 	andseq	r3, r3, r1, lsl #2
     f28:	82891b00 	addhi	r1, r9, #0, 22
     f2c:	01110101 	tsteq	r1, r1, lsl #2
     f30:	00001301 	andeq	r1, r0, r1, lsl #6
     f34:	4901011c 	stmdbmi	r1, {r2, r3, r4, r8}
     f38:	00130113 	andseq	r0, r3, r3, lsl r1
     f3c:	00211d00 	eoreq	r1, r1, r0, lsl #26
     f40:	0b2f1349 	bleq	bc5c6c <__bss_end__+0xbbae64>
     f44:	2e1e0000 	cdpcs	0, 1, cr0, cr14, cr0, {0}
     f48:	3a0e0301 	bcc	381b54 <__bss_end__+0x376d4c>
     f4c:	390b3b0b 	stmdbcc	fp, {r0, r1, r3, r8, r9, fp, ip, sp}
     f50:	4919270b 	ldmdbmi	r9, {r0, r1, r3, r8, r9, sl, sp}
     f54:	12011113 	andne	r1, r1, #-1073741820	; 0xc0000004
     f58:	97184006 	ldrls	r4, [r8, -r6]
     f5c:	13011942 	movwne	r1, #6466	; 0x1942
     f60:	051f0000 	ldreq	r0, [pc, #-0]	; f68 <__code_start__-0x7098>
     f64:	3a0e0300 	bcc	381b6c <__bss_end__+0x376d64>
     f68:	390b3b0b 	stmdbcc	fp, {r0, r1, r3, r8, r9, fp, ip, sp}
     f6c:	0213490b 	andseq	r4, r3, #180224	; 0x2c000
     f70:	1742b717 	smlaldne	fp, r2, r7, r7
     f74:	2e200000 	cdpcs	0, 2, cr0, cr0, cr0, {0}
     f78:	3a080301 	bcc	201b84 <__bss_end__+0x1f6d7c>
     f7c:	390b3b0b 	stmdbcc	fp, {r0, r1, r3, r8, r9, fp, ip, sp}
     f80:	4919270b 	ldmdbmi	r9, {r0, r1, r3, r8, r9, sl, sp}
     f84:	12011113 	andne	r1, r1, #-1073741820	; 0xc0000004
     f88:	97184006 	ldrls	r4, [r8, -r6]
     f8c:	13011942 	movwne	r1, #6466	; 0x1942
     f90:	2e210000 	cdpcs	0, 2, cr0, cr1, cr0, {0}
     f94:	03193f01 	tsteq	r9, #1, 30
     f98:	3b0b3a0e 	blcc	2cf7d8 <__bss_end__+0x2c49d0>
     f9c:	270b390b 	strcs	r3, [fp, -fp, lsl #18]
     fa0:	12011119 	andne	r1, r1, #1073741830	; 0x40000006
     fa4:	97184006 	ldrls	r4, [r8, -r6]
     fa8:	13011942 	movwne	r1, #6466	; 0x1942
     fac:	2e220000 	cdpcs	0, 2, cr0, cr2, cr0, {0}
     fb0:	3c193f00 	ldccc	15, cr3, [r9], {-0}
     fb4:	030e6e19 	movweq	r6, #60953	; 0xee19
     fb8:	3b0b3a0e 	blcc	2cf7f8 <__bss_end__+0x2c49f0>
     fbc:	000b390b 	andeq	r3, fp, fp, lsl #18
     fc0:	11010000 	mrsne	r0, (UNDEF: 1)
     fc4:	130e2501 	movwne	r2, #58625	; 0xe501
     fc8:	1b0e030b 	blne	381bfc <__bss_end__+0x376df4>
     fcc:	1201110e 	andne	r1, r1, #-2147483645	; 0x80000003
     fd0:	00171006 	andseq	r1, r7, r6
     fd4:	00240200 	eoreq	r0, r4, r0, lsl #4
     fd8:	0b3e0b0b 	bleq	f83c0c <__bss_end__+0xf78e04>
     fdc:	00000803 	andeq	r0, r0, r3, lsl #16
     fe0:	0b002403 	bleq	9ff4 <__code_end__+0x30>
     fe4:	030b3e0b 	movweq	r3, #48651	; 0xbe0b
     fe8:	0400000e 	streq	r0, [r0], #-14
     fec:	19270115 	stmdbne	r7!, {r0, r2, r4, r8}
     ff0:	13011349 	movwne	r1, #4937	; 0x1349
     ff4:	05050000 	streq	r0, [r5, #-0]
     ff8:	00134900 	andseq	r4, r3, r0, lsl #18
     ffc:	00340600 	eorseq	r0, r4, r0, lsl #12
    1000:	0b3a0e03 	bleq	e84814 <__bss_end__+0xe79a0c>
    1004:	0b390b3b 	bleq	e43cf8 <__bss_end__+0xe38ef0>
    1008:	193f1349 	ldmdbne	pc!, {r0, r3, r6, r8, r9, ip}	; <UNPREDICTABLE>
    100c:	0000193c 	andeq	r1, r0, ip, lsr r9
    1010:	0b000f07 	bleq	4c34 <__code_start__-0x33cc>
    1014:	0013490b 	andseq	r4, r3, fp, lsl #18
    1018:	00260800 	eoreq	r0, r6, r0, lsl #16
    101c:	00001349 	andeq	r1, r0, r9, asr #6
    1020:	3f012e09 	svccc	0x00012e09
    1024:	3a0e0319 	bcc	381c90 <__bss_end__+0x376e88>
    1028:	390b3b0b 	stmdbcc	fp, {r0, r1, r3, r8, r9, fp, ip, sp}
    102c:	8719270b 	ldrhi	r2, [r9, -fp, lsl #14]
    1030:	01111901 	tsteq	r1, r1, lsl #18
    1034:	18400612 	stmdane	r0, {r1, r4, r9, sl}^
    1038:	01194297 			; <UNDEFINED> instruction: 0x01194297
    103c:	0a000013 	beq	1090 <__code_start__-0x6f70>
    1040:	01018289 	smlabbeq	r1, r9, r2, r8
    1044:	13010111 	movwne	r0, #4369	; 0x1111
    1048:	8a0b0000 	bhi	2c1050 <__bss_end__+0x2b6248>
    104c:	02000182 	andeq	r0, r0, #-2147483616	; 0x80000020
    1050:	18429118 	stmdane	r2, {r3, r4, r8, ip, pc}^
    1054:	890c0000 	stmdbhi	ip, {}	; <UNPREDICTABLE>
    1058:	11000182 	smlabbne	r0, r2, r1, r0
    105c:	00133101 	andseq	r3, r3, r1, lsl #2
    1060:	82890d00 	addhi	r0, r9, #0, 26
    1064:	01110101 	tsteq	r1, r1, lsl #2
    1068:	13011331 	movwne	r1, #4913	; 0x1331
    106c:	2e0e0000 	cdpcs	0, 0, cr0, cr14, cr0, {0}
    1070:	3c193f00 	ldccc	15, cr3, [r9], {-0}
    1074:	030e6e19 	movweq	r6, #60953	; 0xee19
    1078:	3b0b3a0e 	blcc	2cf8b8 <__bss_end__+0x2c4ab0>
    107c:	000b390b 	andeq	r3, fp, fp, lsl #18
    1080:	11010000 	mrsne	r0, (UNDEF: 1)
    1084:	130e2501 	movwne	r2, #58625	; 0xe501
    1088:	1b0e030b 	blne	381cbc <__bss_end__+0x376eb4>
    108c:	1201110e 	andne	r1, r1, #-2147483645	; 0x80000003
    1090:	00171006 	andseq	r1, r7, r6
    1094:	00240200 	eoreq	r0, r4, r0, lsl #4
    1098:	0b3e0b0b 	bleq	f83ccc <__bss_end__+0xf78ec4>
    109c:	00000803 	andeq	r0, r0, r3, lsl #16
    10a0:	0b002403 	bleq	a0b4 <__FUNCTION__.4034+0x4c>
    10a4:	030b3e0b 	movweq	r3, #48651	; 0xbe0b
    10a8:	0400000e 	streq	r0, [r0], #-14
    10ac:	19270115 	stmdbne	r7!, {r0, r2, r4, r8}
    10b0:	13011349 	movwne	r1, #4937	; 0x1349
    10b4:	05050000 	streq	r0, [r5, #-0]
    10b8:	00134900 	andseq	r4, r3, r0, lsl #18
    10bc:	00340600 	eorseq	r0, r4, r0, lsl #12
    10c0:	0b3a0e03 	bleq	e848d4 <__bss_end__+0xe79acc>
    10c4:	0b390b3b 	bleq	e43db8 <__bss_end__+0xe38fb0>
    10c8:	193f1349 	ldmdbne	pc!, {r0, r3, r6, r8, r9, ip}	; <UNPREDICTABLE>
    10cc:	0000193c 	andeq	r1, r0, ip, lsr r9
    10d0:	0b000f07 	bleq	4cf4 <__code_start__-0x330c>
    10d4:	0013490b 	andseq	r4, r3, fp, lsl #18
    10d8:	00260800 	eoreq	r0, r6, r0, lsl #16
    10dc:	00001349 	andeq	r1, r0, r9, asr #6
    10e0:	3f012e09 	svccc	0x00012e09
    10e4:	3a0e0319 	bcc	381d50 <__bss_end__+0x376f48>
    10e8:	390b3b0b 	stmdbcc	fp, {r0, r1, r3, r8, r9, fp, ip, sp}
    10ec:	1201110b 	andne	r1, r1, #-1073741822	; 0xc0000002
    10f0:	97184006 	ldrls	r4, [r8, -r6]
    10f4:	13011942 	movwne	r1, #6466	; 0x1942
    10f8:	2e0a0000 	cdpcs	0, 0, cr0, cr10, cr0, {0}
    10fc:	03193f00 	tsteq	r9, #0, 30
    1100:	3b0b3a0e 	blcc	2cf940 <__bss_end__+0x2c4b38>
    1104:	270b390b 	strcs	r3, [fp, -fp, lsl #18]
    1108:	00193c19 	andseq	r3, r9, r9, lsl ip
    110c:	00340b00 	eorseq	r0, r4, r0, lsl #22
    1110:	0b3a0803 	bleq	e83124 <__bss_end__+0xe7831c>
    1114:	0b390b3b 	bleq	e43e08 <__bss_end__+0xe39000>
    1118:	17021349 	strne	r1, [r2, -r9, asr #6]
    111c:	001742b7 			; <UNDEFINED> instruction: 0x001742b7
    1120:	00340c00 	eorseq	r0, r4, r0, lsl #24
    1124:	0b3a0e03 	bleq	e84938 <__bss_end__+0xe79b30>
    1128:	0b390b3b 	bleq	e43e1c <__bss_end__+0xe39014>
    112c:	00001349 	andeq	r1, r0, r9, asr #6
    1130:	11010b0d 	tstne	r1, sp, lsl #22
    1134:	01061201 	tsteq	r6, r1, lsl #4
    1138:	0e000013 	mcreq	0, 0, r0, cr0, cr3, {0}
    113c:	08030034 	stmdaeq	r3, {r2, r4, r5}
    1140:	0b3b0b3a 	bleq	ec3e30 <__bss_end__+0xeb9028>
    1144:	13490b39 	movtne	r0, #39737	; 0x9b39
    1148:	00000b1c 	andeq	r0, r0, ip, lsl fp
    114c:	0182890f 	orreq	r8, r2, pc, lsl #18
    1150:	31011100 	mrscc	r1, (UNDEF: 17)
    1154:	10000013 	andne	r0, r0, r3, lsl r0
    1158:	193f002e 	ldmdbne	pc!, {r1, r2, r3, r5}	; <UNPREDICTABLE>
    115c:	0e6e193c 			; <UNDEFINED> instruction: 0x0e6e193c
    1160:	0b3a0e03 	bleq	e84974 <__bss_end__+0xe79b6c>
    1164:	0b39053b 	bleq	e42658 <__bss_end__+0xe37850>
    1168:	2e110000 	cdpcs	0, 1, cr0, cr1, cr0, {0}
    116c:	3c193f00 	ldccc	15, cr3, [r9], {-0}
    1170:	030e6e19 	movweq	r6, #60953	; 0xee19
    1174:	3b0b3a0e 	blcc	2cf9b4 <__bss_end__+0x2c4bac>
    1178:	000b390b 	andeq	r3, fp, fp, lsl #18
    117c:	11010000 	mrsne	r0, (UNDEF: 1)
    1180:	130e2501 	movwne	r2, #58625	; 0xe501
    1184:	1b0e030b 	blne	381db8 <__bss_end__+0x376fb0>
    1188:	1201110e 	andne	r1, r1, #-2147483645	; 0x80000003
    118c:	00171006 	andseq	r1, r7, r6
    1190:	00240200 	eoreq	r0, r4, r0, lsl #4
    1194:	0b3e0b0b 	bleq	f83dc8 <__bss_end__+0xf78fc0>
    1198:	00000803 	andeq	r0, r0, r3, lsl #16
    119c:	0b002403 	bleq	a1b0 <__FUNCTION__.4034+0x148>
    11a0:	030b3e0b 	movweq	r3, #48651	; 0xbe0b
    11a4:	0400000e 	streq	r0, [r0], #-14
    11a8:	19270115 	stmdbne	r7!, {r0, r2, r4, r8}
    11ac:	13011349 	movwne	r1, #4937	; 0x1349
    11b0:	05050000 	streq	r0, [r5, #-0]
    11b4:	00134900 	andseq	r4, r3, r0, lsl #18
    11b8:	00340600 	eorseq	r0, r4, r0, lsl #12
    11bc:	0b3a0e03 	bleq	e849d0 <__bss_end__+0xe79bc8>
    11c0:	0b390b3b 	bleq	e43eb4 <__bss_end__+0xe390ac>
    11c4:	193f1349 	ldmdbne	pc!, {r0, r3, r6, r8, r9, ip}	; <UNPREDICTABLE>
    11c8:	0000193c 	andeq	r1, r0, ip, lsr r9
    11cc:	0b000f07 	bleq	4df0 <__code_start__-0x3210>
    11d0:	0013490b 	andseq	r4, r3, fp, lsl #18
    11d4:	00260800 	eoreq	r0, r6, r0, lsl #16
    11d8:	00001349 	andeq	r1, r0, r9, asr #6
    11dc:	3f002e09 	svccc	0x00002e09
    11e0:	3a0e0319 	bcc	381e4c <__bss_end__+0x377044>
    11e4:	390b3b0b 	stmdbcc	fp, {r0, r1, r3, r8, r9, fp, ip, sp}
    11e8:	1119270b 	tstne	r9, fp, lsl #14
    11ec:	40061201 	andmi	r1, r6, r1, lsl #4
    11f0:	19429718 	stmdbne	r2, {r3, r4, r8, r9, sl, ip, pc}^
    11f4:	01000000 	mrseq	r0, (UNDEF: 0)
    11f8:	0e250111 	mcreq	1, 1, r0, cr5, cr1, {0}
    11fc:	0e030b13 	vmoveq.32	d3[0], r0
    1200:	17550e1b 	smmlane	r5, fp, lr, r0
    1204:	17100111 			; <UNDEFINED> instruction: 0x17100111
    1208:	24020000 	strcs	r0, [r2], #-0
    120c:	3e0b0b00 	vmlacc.f64	d0, d11, d0
    1210:	0008030b 	andeq	r0, r8, fp, lsl #6
    1214:	00260300 	eoreq	r0, r6, r0, lsl #6
    1218:	00001349 	andeq	r1, r0, r9, asr #6
    121c:	0b002404 	bleq	a234 <__FUNCTION__.4034+0x1cc>
    1220:	030b3e0b 	movweq	r3, #48651	; 0xbe0b
    1224:	0500000e 	streq	r0, [r0, #-14]
    1228:	19270115 	stmdbne	r7!, {r0, r2, r4, r8}
    122c:	13011349 	movwne	r1, #4937	; 0x1349
    1230:	05060000 	streq	r0, [r6, #-0]
    1234:	00134900 	andseq	r4, r3, r0, lsl #18
    1238:	00340700 	eorseq	r0, r4, r0, lsl #14
    123c:	0b3a0e03 	bleq	e84a50 <__bss_end__+0xe79c48>
    1240:	0b390b3b 	bleq	e43f34 <__bss_end__+0xe3912c>
    1244:	193f1349 	ldmdbne	pc!, {r0, r3, r6, r8, r9, ip}	; <UNPREDICTABLE>
    1248:	0000193c 	andeq	r1, r0, ip, lsr r9
    124c:	0b000f08 	bleq	4e74 <__code_start__-0x318c>
    1250:	0013490b 	andseq	r4, r3, fp, lsl #18
    1254:	00340900 	eorseq	r0, r4, r0, lsl #18
    1258:	0b3a0e03 	bleq	e84a6c <__bss_end__+0xe79c64>
    125c:	0b390b3b 	bleq	e43f50 <__bss_end__+0xe39148>
    1260:	00001349 	andeq	r1, r0, r9, asr #6
    1264:	3f012e0a 	svccc	0x00012e0a
    1268:	3a0e0319 	bcc	381ed4 <__bss_end__+0x3770cc>
    126c:	390b3b0b 	stmdbcc	fp, {r0, r1, r3, r8, r9, fp, ip, sp}
    1270:	8719270b 	ldrhi	r2, [r9, -fp, lsl #14]
    1274:	01111901 	tsteq	r1, r1, lsl #18
    1278:	18400612 	stmdane	r0, {r1, r4, r9, sl}^
    127c:	01194297 			; <UNDEFINED> instruction: 0x01194297
    1280:	0b000013 	bleq	12d4 <__code_start__-0x6d2c>
    1284:	0e030034 	mcreq	0, 0, r0, cr3, cr4, {1}
    1288:	0b3b0b3a 	bleq	ec3f78 <__bss_end__+0xeb9170>
    128c:	13490b39 	movtne	r0, #39737	; 0x9b39
    1290:	42b71702 	adcsmi	r1, r7, #524288	; 0x80000
    1294:	0c000017 	stceq	0, cr0, [r0], {23}
    1298:	00018289 	andeq	r8, r1, r9, lsl #5
    129c:	13310111 	teqne	r1, #1073741828	; 0x40000004
    12a0:	890d0000 	stmdbhi	sp, {}	; <UNPREDICTABLE>
    12a4:	11010182 	smlabbne	r1, r2, r1, r0
    12a8:	01133101 	tsteq	r3, r1, lsl #2
    12ac:	0e000013 	mcreq	0, 0, r0, cr0, cr3, {0}
    12b0:	0001828a 	andeq	r8, r1, sl, lsl #5
    12b4:	42911802 	addsmi	r1, r1, #131072	; 0x20000
    12b8:	0f000018 	svceq	0x00000018
    12bc:	193f012e 	ldmdbne	pc!, {r1, r2, r3, r5, r8}	; <UNPREDICTABLE>
    12c0:	0b3a0e03 	bleq	e84ad4 <__bss_end__+0xe79ccc>
    12c4:	0b390b3b 	bleq	e43fb8 <__bss_end__+0xe391b0>
    12c8:	01111927 	tsteq	r1, r7, lsr #18
    12cc:	18400612 	stmdane	r0, {r1, r4, r9, sl}^
    12d0:	01194297 			; <UNDEFINED> instruction: 0x01194297
    12d4:	10000013 	andne	r0, r0, r3, lsl r0
    12d8:	193f012e 	ldmdbne	pc!, {r1, r2, r3, r5, r8}	; <UNPREDICTABLE>
    12dc:	0b3a0e03 	bleq	e84af0 <__bss_end__+0xe79ce8>
    12e0:	0b390b3b 	bleq	e43fd4 <__bss_end__+0xe391cc>
    12e4:	13491927 	movtne	r1, #39207	; 0x9927
    12e8:	06120111 			; <UNDEFINED> instruction: 0x06120111
    12ec:	42971840 	addsmi	r1, r7, #64, 16	; 0x400000
    12f0:	00130119 	andseq	r0, r3, r9, lsl r1
    12f4:	002e1100 	eoreq	r1, lr, r0, lsl #2
    12f8:	193c193f 	ldmdbne	ip!, {r0, r1, r2, r3, r4, r5, r8, fp, ip}
    12fc:	0e030e6e 	cdpeq	14, 0, cr0, cr3, cr14, {3}
    1300:	053b0b3a 	ldreq	r0, [fp, #-2874]!	; 0xfffff4c6
    1304:	00000b39 	andeq	r0, r0, r9, lsr fp
    1308:	3f002e12 	svccc	0x00002e12
    130c:	6e193c19 	mrcvs	12, 0, r3, cr9, cr9, {0}
    1310:	3a0e030e 	bcc	381f50 <__bss_end__+0x377148>
    1314:	390b3b0b 	stmdbcc	fp, {r0, r1, r3, r8, r9, fp, ip, sp}
    1318:	0000000b 	andeq	r0, r0, fp
    131c:	25011101 	strcs	r1, [r1, #-257]	; 0xfffffeff
    1320:	030b130e 	movweq	r1, #45838	; 0xb30e
    1324:	110e1b0e 	tstne	lr, lr, lsl #22
    1328:	10061201 	andne	r1, r6, r1, lsl #4
    132c:	02000017 	andeq	r0, r0, #23, 0
    1330:	0b0b0024 	bleq	2c13c8 <__bss_end__+0x2b65c0>
    1334:	08030b3e 	stmdaeq	r3, {r1, r2, r3, r4, r5, r8, r9, fp}
    1338:	24030000 	strcs	r0, [r3], #-0
    133c:	3e0b0b00 	vmlacc.f64	d0, d11, d0
    1340:	000e030b 	andeq	r0, lr, fp, lsl #6
    1344:	01150400 	tsteq	r5, r0, lsl #8
    1348:	13491927 	movtne	r1, #39207	; 0x9927
    134c:	00001301 	andeq	r1, r0, r1, lsl #6
    1350:	49000505 	stmdbmi	r0, {r0, r2, r8, sl}
    1354:	06000013 			; <UNDEFINED> instruction: 0x06000013
    1358:	0e030034 	mcreq	0, 0, r0, cr3, cr4, {1}
    135c:	0b3b0b3a 	bleq	ec404c <__bss_end__+0xeb9244>
    1360:	13490b39 	movtne	r0, #39737	; 0x9b39
    1364:	193c193f 	ldmdbne	ip!, {r0, r1, r2, r3, r4, r5, r8, fp, ip}
    1368:	0f070000 	svceq	0x00070000
    136c:	490b0b00 	stmdbmi	fp, {r8, r9, fp}
    1370:	08000013 	stmdaeq	r0, {r0, r1, r4}
    1374:	13490026 	movtne	r0, #36902	; 0x9026
    1378:	2e090000 	cdpcs	0, 0, cr0, cr9, cr0, {0}
    137c:	03193f01 	tsteq	r9, #1, 30
    1380:	3b0b3a0e 	blcc	2cfbc0 <__bss_end__+0x2c4db8>
    1384:	270b390b 	strcs	r3, [fp, -fp, lsl #18]
    1388:	12011119 	andne	r1, r1, #1073741830	; 0x40000006
    138c:	97184006 	ldrls	r4, [r8, -r6]
    1390:	13011942 	movwne	r1, #6466	; 0x1942
    1394:	050a0000 	streq	r0, [sl, #-0]
    1398:	3a080300 	bcc	201fa0 <__bss_end__+0x1f7198>
    139c:	390b3b0b 	stmdbcc	fp, {r0, r1, r3, r8, r9, fp, ip, sp}
    13a0:	0213490b 	andseq	r4, r3, #180224	; 0x2c000
    13a4:	1742b717 	smlaldne	fp, r2, r7, r7
    13a8:	890b0000 	stmdbhi	fp, {}	; <UNPREDICTABLE>
    13ac:	11010182 	smlabbne	r1, r2, r1, r0
    13b0:	00133101 	andseq	r3, r3, r1, lsl #2
    13b4:	828a0c00 	addhi	r0, sl, #0, 24
    13b8:	18020001 	stmdane	r2, {r0}
    13bc:	00184291 	mulseq	r8, r1, r2
    13c0:	00340d00 	eorseq	r0, r4, r0, lsl #26
    13c4:	0b3a0803 	bleq	e833d8 <__bss_end__+0xe785d0>
    13c8:	0b390b3b 	bleq	e440bc <__bss_end__+0xe392b4>
    13cc:	17021349 	strne	r1, [r2, -r9, asr #6]
    13d0:	001742b7 			; <UNDEFINED> instruction: 0x001742b7
    13d4:	010b0e00 	tsteq	fp, r0, lsl #28
    13d8:	06120111 			; <UNDEFINED> instruction: 0x06120111
    13dc:	00001301 	andeq	r1, r0, r1, lsl #6
    13e0:	0182890f 	orreq	r8, r2, pc, lsl #18
    13e4:	31011100 	mrscc	r1, (UNDEF: 17)
    13e8:	10000013 	andne	r0, r0, r3, lsl r0
    13ec:	193f012e 	ldmdbne	pc!, {r1, r2, r3, r5, r8}	; <UNPREDICTABLE>
    13f0:	0b3a0e03 	bleq	e84c04 <__bss_end__+0xe79dfc>
    13f4:	0b390b3b 	bleq	e440e8 <__bss_end__+0xe392e0>
    13f8:	13491927 	movtne	r1, #39207	; 0x9927
    13fc:	06120111 			; <UNDEFINED> instruction: 0x06120111
    1400:	42971840 	addsmi	r1, r7, #64, 16	; 0x400000
    1404:	00130119 	andseq	r0, r3, r9, lsl r1
    1408:	002e1100 	eoreq	r1, lr, r0, lsl #2
    140c:	193c193f 	ldmdbne	ip!, {r0, r1, r2, r3, r4, r5, r8, fp, ip}
    1410:	0e030e6e 	cdpeq	14, 0, cr0, cr3, cr14, {3}
    1414:	0b3b0b3a 	bleq	ec4104 <__bss_end__+0xeb92fc>
    1418:	00000b39 	andeq	r0, r0, r9, lsr fp
    141c:	01110100 	tsteq	r1, r0, lsl #2
    1420:	0b130e25 	bleq	4c4cbc <__bss_end__+0x4b9eb4>
    1424:	0e1b0e03 	cdpeq	14, 1, cr0, cr11, cr3, {0}
    1428:	06120111 			; <UNDEFINED> instruction: 0x06120111
    142c:	00001710 	andeq	r1, r0, r0, lsl r7
    1430:	0b002402 	bleq	a440 <__FUNCTION__.4126+0x1d0>
    1434:	030b3e0b 	movweq	r3, #48651	; 0xbe0b
    1438:	03000008 	movweq	r0, #8
    143c:	0b0b0024 	bleq	2c14d4 <__bss_end__+0x2b66cc>
    1440:	0e030b3e 	vmoveq.16	d3[0], r0
    1444:	35040000 	strcc	r0, [r4, #-0]
    1448:	00134900 	andseq	r4, r3, r0, lsl #18
    144c:	00160500 	andseq	r0, r6, r0, lsl #10
    1450:	0b3a0e03 	bleq	e84c64 <__bss_end__+0xe79e5c>
    1454:	0b390b3b 	bleq	e44148 <__bss_end__+0xe39340>
    1458:	00001349 	andeq	r1, r0, r9, asr #6
    145c:	3e010406 	cdpcc	4, 0, cr0, cr1, cr6, {0}
    1460:	490b0b0b 	stmdbmi	fp, {r0, r1, r3, r8, r9, fp}
    1464:	3b0b3a13 	blcc	2cfcb8 <__bss_end__+0x2c4eb0>
    1468:	010b390b 	tsteq	fp, fp, lsl #18
    146c:	07000013 	smladeq	r0, r3, r0, r0
    1470:	0e030028 	cdpeq	0, 0, cr0, cr3, cr8, {1}
    1474:	00000b1c 	andeq	r0, r0, ip, lsl fp
    1478:	03011308 	movweq	r1, #4872	; 0x1308
    147c:	3a0b0b0e 	bcc	2c40bc <__bss_end__+0x2b92b4>
    1480:	390b3b0b 	stmdbcc	fp, {r0, r1, r3, r8, r9, fp, ip, sp}
    1484:	0013010b 	andseq	r0, r3, fp, lsl #2
    1488:	000d0900 	andeq	r0, sp, r0, lsl #18
    148c:	0b3a0803 	bleq	e834a0 <__bss_end__+0xe78698>
    1490:	0b390b3b 	bleq	e44184 <__bss_end__+0xe3937c>
    1494:	0b381349 	bleq	e061c0 <__bss_end__+0xdfb3b8>
    1498:	0d0a0000 	stceq	0, cr0, [sl, #-0]
    149c:	3a0e0300 	bcc	3820a4 <__bss_end__+0x37729c>
    14a0:	390b3b0b 	stmdbcc	fp, {r0, r1, r3, r8, r9, fp, ip, sp}
    14a4:	3813490b 	ldmdacc	r3, {r0, r1, r3, r8, fp, lr}
    14a8:	0b00000b 	bleq	14dc <__code_start__-0x6b24>
    14ac:	0e030034 	mcreq	0, 0, r0, cr3, cr4, {1}
    14b0:	0b3b0b3a 	bleq	ec41a0 <__bss_end__+0xeb9398>
    14b4:	13490b39 	movtne	r0, #39737	; 0x9b39
    14b8:	0000061c 	andeq	r0, r0, ip, lsl r6
    14bc:	0b000f0c 	bleq	50f4 <__code_start__-0x2f0c>
    14c0:	0013490b 	andseq	r4, r3, fp, lsl #18
    14c4:	00260d00 	eoreq	r0, r6, r0, lsl #26
    14c8:	00001349 	andeq	r1, r0, r9, asr #6
    14cc:	3f012e0e 	svccc	0x00012e0e
    14d0:	3a0e0319 	bcc	38213c <__bss_end__+0x377334>
    14d4:	390b3b0b 	stmdbcc	fp, {r0, r1, r3, r8, r9, fp, ip, sp}
    14d8:	1119270b 	tstne	r9, fp, lsl #14
    14dc:	40061201 	andmi	r1, r6, r1, lsl #4
    14e0:	19429718 	stmdbne	r2, {r3, r4, r8, r9, sl, ip, pc}^
    14e4:	00001301 	andeq	r1, r0, r1, lsl #6
    14e8:	0182890f 	orreq	r8, r2, pc, lsl #18
    14ec:	31011100 	mrscc	r1, (UNDEF: 17)
    14f0:	10000013 	andne	r0, r0, r3, lsl r0
    14f4:	193f012e 	ldmdbne	pc!, {r1, r2, r3, r5, r8}	; <UNPREDICTABLE>
    14f8:	0b3a0e03 	bleq	e84d0c <__bss_end__+0xe79f04>
    14fc:	0b390b3b 	bleq	e441f0 <__bss_end__+0xe393e8>
    1500:	13491927 	movtne	r1, #39207	; 0x9927
    1504:	06120111 			; <UNDEFINED> instruction: 0x06120111
    1508:	42971840 	addsmi	r1, r7, #64, 16	; 0x400000
    150c:	00130119 	andseq	r0, r3, r9, lsl r1
    1510:	82891100 	addhi	r1, r9, #0
    1514:	01110101 	tsteq	r1, r1, lsl #2
    1518:	00001331 	andeq	r1, r0, r1, lsr r3
    151c:	01828a12 	orreq	r8, r2, r2, lsl sl
    1520:	91180200 	tstls	r8, r0, lsl #4
    1524:	00001842 	andeq	r1, r0, r2, asr #16
    1528:	03000513 	movweq	r0, #1299	; 0x513
    152c:	3b0b3a08 	blcc	2cfd54 <__bss_end__+0x2c4f4c>
    1530:	490b390b 	stmdbmi	fp, {r0, r1, r3, r8, fp, ip, sp}
    1534:	b7170213 			; <UNDEFINED> instruction: 0xb7170213
    1538:	00001742 	andeq	r1, r0, r2, asr #14
    153c:	01828914 	orreq	r8, r2, r4, lsl r9
    1540:	31011101 	tstcc	r1, r1, lsl #2
    1544:	00130113 	andseq	r0, r3, r3, lsl r1
    1548:	00341500 	eorseq	r1, r4, r0, lsl #10
    154c:	0b3a0803 	bleq	e83560 <__bss_end__+0xe78758>
    1550:	0b390b3b 	bleq	e44244 <__bss_end__+0xe3943c>
    1554:	17021349 	strne	r1, [r2, -r9, asr #6]
    1558:	001742b7 			; <UNDEFINED> instruction: 0x001742b7
    155c:	00341600 	eorseq	r1, r4, r0, lsl #12
    1560:	0b3a0e03 	bleq	e84d74 <__bss_end__+0xe79f6c>
    1564:	0b390b3b 	bleq	e44258 <__bss_end__+0xe39450>
    1568:	051c1349 	ldreq	r1, [ip, #-841]	; 0xfffffcb7
    156c:	2e170000 	cdpcs	0, 1, cr0, cr7, cr0, {0}
    1570:	3a0e0301 	bcc	38217c <__bss_end__+0x377374>
    1574:	390b3b0b 	stmdbcc	fp, {r0, r1, r3, r8, r9, fp, ip, sp}
    1578:	1119270b 	tstne	r9, fp, lsl #14
    157c:	40061201 	andmi	r1, r6, r1, lsl #4
    1580:	19429718 	stmdbne	r2, {r3, r4, r8, r9, sl, ip, pc}^
    1584:	00001301 	andeq	r1, r0, r1, lsl #6
    1588:	03000518 	movweq	r0, #1304	; 0x518
    158c:	3b0b3a0e 	blcc	2cfdcc <__bss_end__+0x2c4fc4>
    1590:	490b390b 	stmdbmi	fp, {r0, r1, r3, r8, fp, ip, sp}
    1594:	b7170213 			; <UNDEFINED> instruction: 0xb7170213
    1598:	00001742 	andeq	r1, r0, r2, asr #14
    159c:	00003519 	andeq	r3, r0, r9, lsl r5
    15a0:	002e1a00 	eoreq	r1, lr, r0, lsl #20
    15a4:	193c193f 	ldmdbne	ip!, {r0, r1, r2, r3, r4, r5, r8, fp, ip}
    15a8:	0e030e6e 	cdpeq	14, 0, cr0, cr3, cr14, {3}
    15ac:	0b3b0b3a 	bleq	ec429c <__bss_end__+0xeb9494>
    15b0:	00000b39 	andeq	r0, r0, r9, lsr fp
    15b4:	01110100 	tsteq	r1, r0, lsl #2
    15b8:	0b130e25 	bleq	4c4e54 <__bss_end__+0x4ba04c>
    15bc:	0e1b0e03 	cdpeq	14, 1, cr0, cr11, cr3, {0}
    15c0:	06120111 			; <UNDEFINED> instruction: 0x06120111
    15c4:	00001710 	andeq	r1, r0, r0, lsl r7
    15c8:	0b002402 	bleq	a5d8 <__FUNCTION__.4126+0x368>
    15cc:	030b3e0b 	movweq	r3, #48651	; 0xbe0b
    15d0:	03000008 	movweq	r0, #8
    15d4:	0b0b0024 	bleq	2c166c <__bss_end__+0x2b6864>
    15d8:	0e030b3e 	vmoveq.16	d3[0], r0
    15dc:	16040000 	strne	r0, [r4], -r0
    15e0:	3a0e0300 	bcc	3821e8 <__bss_end__+0x3773e0>
    15e4:	390b3b0b 	stmdbcc	fp, {r0, r1, r3, r8, r9, fp, ip, sp}
    15e8:	0013490b 	andseq	r4, r3, fp, lsl #18
    15ec:	00260500 	eoreq	r0, r6, r0, lsl #10
    15f0:	00001349 	andeq	r1, r0, r9, asr #6
    15f4:	0b000f06 	bleq	5214 <__code_start__-0x2dec>
    15f8:	0700000b 	streq	r0, [r0, -fp]
    15fc:	0b3e0104 	bleq	f81a14 <__bss_end__+0xf76c0c>
    1600:	13490b0b 	movtne	r0, #39691	; 0x9b0b
    1604:	0b3b0b3a 	bleq	ec42f4 <__bss_end__+0xeb94ec>
    1608:	13010b39 	movwne	r0, #6969	; 0x1b39
    160c:	28080000 	stmdacs	r8, {}	; <UNPREDICTABLE>
    1610:	1c0e0300 	stcne	3, cr0, [lr], {-0}
    1614:	09000006 	stmdbeq	r0, {r1, r2}
    1618:	0e030034 	mcreq	0, 0, r0, cr3, cr4, {1}
    161c:	0b3b0b3a 	bleq	ec430c <__bss_end__+0xeb9504>
    1620:	13490b39 	movtne	r0, #39737	; 0x9b39
    1624:	193c193f 	ldmdbne	ip!, {r0, r1, r2, r3, r4, r5, r8, fp, ip}
    1628:	340a0000 	strcc	r0, [sl], #-0
    162c:	3a0e0300 	bcc	382234 <__bss_end__+0x37742c>
    1630:	390b3b0b 	stmdbcc	fp, {r0, r1, r3, r8, r9, fp, ip, sp}
    1634:	0213490b 	andseq	r4, r3, #180224	; 0x2c000
    1638:	0b000018 	bleq	16a0 <__code_start__-0x6960>
    163c:	0b0b000f 	bleq	2c1680 <__bss_end__+0x2b6878>
    1640:	00001349 	andeq	r1, r0, r9, asr #6
    1644:	3f012e0c 	svccc	0x00012e0c
    1648:	3a0e0319 	bcc	3822b4 <__bss_end__+0x3774ac>
    164c:	390b3b0b 	stmdbcc	fp, {r0, r1, r3, r8, r9, fp, ip, sp}
    1650:	1119270b 	tstne	r9, fp, lsl #14
    1654:	40061201 	andmi	r1, r6, r1, lsl #4
    1658:	19429718 	stmdbne	r2, {r3, r4, r8, r9, sl, ip, pc}^
    165c:	00001301 	andeq	r1, r0, r1, lsl #6
    1660:	0300050d 	movweq	r0, #1293	; 0x50d
    1664:	3b0b3a08 	blcc	2cfe8c <__bss_end__+0x2c5084>
    1668:	490b390b 	stmdbmi	fp, {r0, r1, r3, r8, fp, ip, sp}
    166c:	b7170213 			; <UNDEFINED> instruction: 0xb7170213
    1670:	00001742 	andeq	r1, r0, r2, asr #14
    1674:	0300340e 	movweq	r3, #1038	; 0x40e
    1678:	3413490e 	ldrcc	r4, [r3], #-2318	; 0xfffff6f2
    167c:	00180219 	andseq	r0, r8, r9, lsl r2
    1680:	82890f00 	addhi	r0, r9, #0, 30
    1684:	01110101 	tsteq	r1, r1, lsl #2
    1688:	13011331 	movwne	r1, #4913	; 0x1331
    168c:	8a100000 	bhi	401694 <__bss_end__+0x3f688c>
    1690:	02000182 	andeq	r0, r0, #-2147483616	; 0x80000020
    1694:	18429118 	stmdane	r2, {r3, r4, r8, ip, pc}^
    1698:	89110000 	ldmdbhi	r1, {}	; <UNPREDICTABLE>
    169c:	11000182 	smlabbne	r0, r2, r1, r0
    16a0:	00133101 	andseq	r3, r3, r1, lsl #2
    16a4:	01011200 	mrseq	r1, R9_usr
    16a8:	13011349 	movwne	r1, #4937	; 0x1349
    16ac:	21130000 	tstcs	r3, r0
    16b0:	2f134900 	svccs	0x00134900
    16b4:	1400000b 	strne	r0, [r0], #-11
    16b8:	193f002e 	ldmdbne	pc!, {r1, r2, r3, r5}	; <UNPREDICTABLE>
    16bc:	0b3a0e03 	bleq	e84ed0 <__bss_end__+0xe7a0c8>
    16c0:	0b390b3b 	bleq	e443b4 <__bss_end__+0xe395ac>
    16c4:	01111927 	tsteq	r1, r7, lsr #18
    16c8:	18400612 	stmdane	r0, {r1, r4, r9, sl}^
    16cc:	00194297 	mulseq	r9, r7, r2
    16d0:	00051500 	andeq	r1, r5, r0, lsl #10
    16d4:	0b3a0803 	bleq	e836e8 <__bss_end__+0xe788e0>
    16d8:	0b390b3b 	bleq	e443cc <__bss_end__+0xe395c4>
    16dc:	18021349 	stmdane	r2, {r0, r3, r6, r8, r9, ip}
    16e0:	2e160000 	cdpcs	0, 1, cr0, cr6, cr0, {0}
    16e4:	03193f01 	tsteq	r9, #1, 30
    16e8:	3b0b3a0e 	blcc	2cff28 <__bss_end__+0x2c5120>
    16ec:	270b390b 	strcs	r3, [fp, -fp, lsl #18]
    16f0:	11134919 	tstne	r3, r9, lsl r9
    16f4:	40061201 	andmi	r1, r6, r1, lsl #4
    16f8:	19429718 	stmdbne	r2, {r3, r4, r8, r9, sl, ip, pc}^
    16fc:	00001301 	andeq	r1, r0, r1, lsl #6
    1700:	03000517 	movweq	r0, #1303	; 0x517
    1704:	3b0b3a0e 	blcc	2cff44 <__bss_end__+0x2c513c>
    1708:	490b390b 	stmdbmi	fp, {r0, r1, r3, r8, fp, ip, sp}
    170c:	b7170213 			; <UNDEFINED> instruction: 0xb7170213
    1710:	00001742 	andeq	r1, r0, r2, asr #14
    1714:	03003418 	movweq	r3, #1048	; 0x418
    1718:	3b0b3a08 	blcc	2cff40 <__bss_end__+0x2c5138>
    171c:	490b390b 	stmdbmi	fp, {r0, r1, r3, r8, fp, ip, sp}
    1720:	b7170213 			; <UNDEFINED> instruction: 0xb7170213
    1724:	00001742 	andeq	r1, r0, r2, asr #14
    1728:	31011d19 	tstcc	r1, r9, lsl sp
    172c:	b8015213 	stmdalt	r1, {r0, r1, r4, r9, ip, lr}
    1730:	01110b42 	tsteq	r1, r2, asr #22
    1734:	0b580612 	bleq	1602f84 <__bss_end__+0x15f817c>
    1738:	0b570b59 	bleq	15c44a4 <__bss_end__+0x15b969c>
    173c:	00001301 	andeq	r1, r0, r1, lsl #6
    1740:	3100051a 	tstcc	r0, sl, lsl r5
    1744:	b7170213 			; <UNDEFINED> instruction: 0xb7170213
    1748:	00001742 	andeq	r1, r0, r2, asr #14
    174c:	31011d1b 	tstcc	r1, fp, lsl sp
    1750:	b8015213 	stmdalt	r1, {r0, r1, r4, r9, ip, lr}
    1754:	17550b42 	ldrbne	r0, [r5, -r2, asr #22]
    1758:	0b590b58 	bleq	16444c0 <__bss_end__+0x16396b8>
    175c:	13010b57 	movwne	r0, #6999	; 0x1b57
    1760:	0b1c0000 	bleq	701768 <__bss_end__+0x6f6960>
    1764:	00175501 	andseq	r5, r7, r1, lsl #10
    1768:	00341d00 	eorseq	r1, r4, r0, lsl #26
    176c:	0b3a0e03 	bleq	e84f80 <__bss_end__+0xe7a178>
    1770:	0b390b3b 	bleq	e44464 <__bss_end__+0xe3965c>
    1774:	17021349 	strne	r1, [r2, -r9, asr #6]
    1778:	001742b7 			; <UNDEFINED> instruction: 0x001742b7
    177c:	000b1e00 	andeq	r1, fp, r0, lsl #28
    1780:	00001755 	andeq	r1, r0, r5, asr r7
    1784:	3f002e1f 	svccc	0x00002e1f
    1788:	3a0e0319 	bcc	3823f4 <__bss_end__+0x3775ec>
    178c:	390b3b0b 	stmdbcc	fp, {r0, r1, r3, r8, r9, fp, ip, sp}
    1790:	4919270b 	ldmdbmi	r9, {r0, r1, r3, r8, r9, sl, sp}
    1794:	12011113 	andne	r1, r1, #-1073741820	; 0xc0000004
    1798:	97184006 	ldrls	r4, [r8, -r6]
    179c:	00001942 	andeq	r1, r0, r2, asr #18
    17a0:	03012e20 	movweq	r2, #7712	; 0x1e20
    17a4:	3b0b3a0e 	blcc	2cffe4 <__bss_end__+0x2c51dc>
    17a8:	270b390b 	strcs	r3, [fp, -fp, lsl #18]
    17ac:	20134919 	andscs	r4, r3, r9, lsl r9
    17b0:	0013010b 	andseq	r0, r3, fp, lsl #2
    17b4:	00052100 	andeq	r2, r5, r0, lsl #2
    17b8:	0b3a0803 	bleq	e837cc <__bss_end__+0xe789c4>
    17bc:	0b390b3b 	bleq	e444b0 <__bss_end__+0xe396a8>
    17c0:	00001349 	andeq	r1, r0, r9, asr #6
    17c4:	3f002e22 	svccc	0x00002e22
    17c8:	6e193c19 	mrcvs	12, 0, r3, cr9, cr9, {0}
    17cc:	3a0e030e 	bcc	38240c <__bss_end__+0x377604>
    17d0:	390b3b0b 	stmdbcc	fp, {r0, r1, r3, r8, r9, fp, ip, sp}
    17d4:	0000000b 	andeq	r0, r0, fp
    17d8:	25011101 	strcs	r1, [r1, #-257]	; 0xfffffeff
    17dc:	030b130e 	movweq	r1, #45838	; 0xb30e
    17e0:	110e1b0e 	tstne	lr, lr, lsl #22
    17e4:	10061201 	andne	r1, r6, r1, lsl #4
    17e8:	02000017 	andeq	r0, r0, #23, 0
    17ec:	0b0b0024 	bleq	2c1884 <__bss_end__+0x2b6a7c>
    17f0:	08030b3e 	stmdaeq	r3, {r1, r2, r3, r4, r5, r8, r9, fp}
    17f4:	24030000 	strcs	r0, [r3], #-0
    17f8:	3e0b0b00 	vmlacc.f64	d0, d11, d0
    17fc:	000e030b 	andeq	r0, lr, fp, lsl #6
    1800:	01150400 	tsteq	r5, r0, lsl #8
    1804:	13491927 	movtne	r1, #39207	; 0x9927
    1808:	00001301 	andeq	r1, r0, r1, lsl #6
    180c:	49000505 	stmdbmi	r0, {r0, r2, r8, sl}
    1810:	06000013 			; <UNDEFINED> instruction: 0x06000013
    1814:	0e030034 	mcreq	0, 0, r0, cr3, cr4, {1}
    1818:	0b3b0b3a 	bleq	ec4508 <__bss_end__+0xeb9700>
    181c:	13490b39 	movtne	r0, #39737	; 0x9b39
    1820:	193c193f 	ldmdbne	ip!, {r0, r1, r2, r3, r4, r5, r8, fp, ip}
    1824:	0f070000 	svceq	0x00070000
    1828:	490b0b00 	stmdbmi	fp, {r8, r9, fp}
    182c:	08000013 	stmdaeq	r0, {r0, r1, r4}
    1830:	13490026 	movtne	r0, #36902	; 0x9026
    1834:	34090000 	strcc	r0, [r9], #-0
    1838:	3a134700 	bcc	4d3440 <__bss_end__+0x4c8638>
    183c:	390b3b0b 	stmdbcc	fp, {r0, r1, r3, r8, r9, fp, ip, sp}
    1840:	0018020b 	andseq	r0, r8, fp, lsl #4
    1844:	012e0a00 			; <UNDEFINED> instruction: 0x012e0a00
    1848:	0e03193f 			; <UNDEFINED> instruction: 0x0e03193f
    184c:	0b3b0b3a 	bleq	ec453c <__bss_end__+0xeb9734>
    1850:	19270b39 	stmdbne	r7!, {r0, r3, r4, r5, r8, r9, fp}
    1854:	06120111 			; <UNDEFINED> instruction: 0x06120111
    1858:	42971840 	addsmi	r1, r7, #64, 16	; 0x400000
    185c:	00130119 	andseq	r0, r3, r9, lsl r1
    1860:	00050b00 	andeq	r0, r5, r0, lsl #22
    1864:	0b3a0803 	bleq	e83878 <__bss_end__+0xe78a70>
    1868:	0b390b3b 	bleq	e4455c <__bss_end__+0xe39754>
    186c:	18021349 	stmdane	r2, {r0, r3, r6, r8, r9, ip}
    1870:	2e0c0000 	cdpcs	0, 0, cr0, cr12, cr0, {0}
    1874:	03193f00 	tsteq	r9, #0, 30
    1878:	3b0b3a0e 	blcc	2d00b8 <__bss_end__+0x2c52b0>
    187c:	270b390b 	strcs	r3, [fp, -fp, lsl #18]
    1880:	12011119 	andne	r1, r1, #1073741830	; 0x40000006
    1884:	97184006 	ldrls	r4, [r8, -r6]
    1888:	00001942 	andeq	r1, r0, r2, asr #18
    188c:	03012e0d 	movweq	r2, #7693	; 0x1e0d
    1890:	3b0b3a0e 	blcc	2d00d0 <__bss_end__+0x2c52c8>
    1894:	270b390b 	strcs	r3, [fp, -fp, lsl #18]
    1898:	11134919 	tstne	r3, r9, lsl r9
    189c:	40061201 	andmi	r1, r6, r1, lsl #4
    18a0:	19429718 	stmdbne	r2, {r3, r4, r8, r9, sl, ip, pc}^
    18a4:	00001301 	andeq	r1, r0, r1, lsl #6
    18a8:	0300050e 	movweq	r0, #1294	; 0x50e
    18ac:	3b0b3a08 	blcc	2d00d4 <__bss_end__+0x2c52cc>
    18b0:	490b390b 	stmdbmi	fp, {r0, r1, r3, r8, fp, ip, sp}
    18b4:	b7170213 			; <UNDEFINED> instruction: 0xb7170213
    18b8:	00001742 	andeq	r1, r0, r2, asr #14
    18bc:	0182890f 	orreq	r8, r2, pc, lsl #18
    18c0:	31011101 	tstcc	r1, r1, lsl #2
    18c4:	10000013 	andne	r0, r0, r3, lsl r0
    18c8:	0001828a 	andeq	r8, r1, sl, lsl #5
    18cc:	42911802 	addsmi	r1, r1, #131072	; 0x20000
    18d0:	11000018 	tstne	r0, r8, lsl r0
    18d4:	193f002e 	ldmdbne	pc!, {r1, r2, r3, r5}	; <UNPREDICTABLE>
    18d8:	0e6e193c 			; <UNDEFINED> instruction: 0x0e6e193c
    18dc:	0b3a0e03 	bleq	e850f0 <__bss_end__+0xe7a2e8>
    18e0:	0b390b3b 	bleq	e445d4 <__bss_end__+0xe397cc>
    18e4:	01000000 	mrseq	r0, (UNDEF: 0)
    18e8:	0e250111 	mcreq	1, 1, r0, cr5, cr1, {0}
    18ec:	0e030b13 	vmoveq.32	d3[0], r0
    18f0:	01110e1b 	tsteq	r1, fp, lsl lr
    18f4:	17100612 			; <UNDEFINED> instruction: 0x17100612
    18f8:	24020000 	strcs	r0, [r2], #-0
    18fc:	3e0b0b00 	vmlacc.f64	d0, d11, d0
    1900:	0008030b 	andeq	r0, r8, fp, lsl #6
    1904:	00240300 	eoreq	r0, r4, r0, lsl #6
    1908:	0b3e0b0b 	bleq	f8453c <__bss_end__+0xf79734>
    190c:	00000e03 	andeq	r0, r0, r3, lsl #28
    1910:	27011504 	strcs	r1, [r1, -r4, lsl #10]
    1914:	01134919 	tsteq	r3, r9, lsl r9
    1918:	05000013 	streq	r0, [r0, #-19]	; 0xffffffed
    191c:	13490005 	movtne	r0, #36869	; 0x9005
    1920:	34060000 	strcc	r0, [r6], #-0
    1924:	3a0e0300 	bcc	38252c <__bss_end__+0x377724>
    1928:	390b3b0b 	stmdbcc	fp, {r0, r1, r3, r8, r9, fp, ip, sp}
    192c:	3f13490b 	svccc	0x0013490b
    1930:	00193c19 	andseq	r3, r9, r9, lsl ip
    1934:	000f0700 	andeq	r0, pc, r0, lsl #14
    1938:	13490b0b 	movtne	r0, #39691	; 0x9b0b
    193c:	26080000 	strcs	r0, [r8], -r0
    1940:	00134900 	andseq	r4, r3, r0, lsl #18
    1944:	012e0900 			; <UNDEFINED> instruction: 0x012e0900
    1948:	0e03193f 			; <UNDEFINED> instruction: 0x0e03193f
    194c:	0b3b0b3a 	bleq	ec463c <__bss_end__+0xeb9834>
    1950:	19270b39 	stmdbne	r7!, {r0, r3, r4, r5, r8, r9, fp}
    1954:	01111349 	tsteq	r1, r9, asr #6
    1958:	18400612 	stmdane	r0, {r1, r4, r9, sl}^
    195c:	01194297 			; <UNDEFINED> instruction: 0x01194297
    1960:	0a000013 	beq	19b4 <__code_start__-0x664c>
    1964:	0e030005 	cdpeq	0, 0, cr0, cr3, cr5, {0}
    1968:	0b3b0b3a 	bleq	ec4658 <__bss_end__+0xeb9850>
    196c:	13490b39 	movtne	r0, #39737	; 0x9b39
    1970:	00001802 	andeq	r1, r0, r2, lsl #16
    1974:	0300050b 	movweq	r0, #1291	; 0x50b
    1978:	3b0b3a08 	blcc	2d01a0 <__bss_end__+0x2c5398>
    197c:	490b390b 	stmdbmi	fp, {r0, r1, r3, r8, fp, ip, sp}
    1980:	b7170213 			; <UNDEFINED> instruction: 0xb7170213
    1984:	00001742 	andeq	r1, r0, r2, asr #14
    1988:	0300340c 	movweq	r3, #1036	; 0x40c
    198c:	3b0b3a08 	blcc	2d01b4 <__bss_end__+0x2c53ac>
    1990:	490b390b 	stmdbmi	fp, {r0, r1, r3, r8, fp, ip, sp}
    1994:	b7170213 			; <UNDEFINED> instruction: 0xb7170213
    1998:	00001742 	andeq	r1, r0, r2, asr #14
    199c:	01110100 	tsteq	r1, r0, lsl #2
    19a0:	0b130e25 	bleq	4c523c <__bss_end__+0x4ba434>
    19a4:	0e1b0e03 	cdpeq	14, 1, cr0, cr11, cr3, {0}
    19a8:	06120111 			; <UNDEFINED> instruction: 0x06120111
    19ac:	00001710 	andeq	r1, r0, r0, lsl r7
    19b0:	0b002402 	bleq	a9c0 <__data_start__>
    19b4:	030b3e0b 	movweq	r3, #48651	; 0xbe0b
    19b8:	03000008 	movweq	r0, #8
    19bc:	0b0b0024 	bleq	2c1a54 <__bss_end__+0x2b6c4c>
    19c0:	0e030b3e 	vmoveq.16	d3[0], r0
    19c4:	15040000 	strne	r0, [r4, #-0]
    19c8:	49192701 	ldmdbmi	r9, {r0, r8, r9, sl, sp}
    19cc:	00130113 	andseq	r0, r3, r3, lsl r1
    19d0:	00050500 	andeq	r0, r5, r0, lsl #10
    19d4:	00001349 	andeq	r1, r0, r9, asr #6
    19d8:	03003406 	movweq	r3, #1030	; 0x406
    19dc:	3b0b3a0e 	blcc	2d021c <__bss_end__+0x2c5414>
    19e0:	490b390b 	stmdbmi	fp, {r0, r1, r3, r8, fp, ip, sp}
    19e4:	3c193f13 	ldccc	15, cr3, [r9], {19}
    19e8:	07000019 	smladeq	r0, r9, r0, r0
    19ec:	0b0b000f 	bleq	2c1a30 <__bss_end__+0x2b6c28>
    19f0:	00001349 	andeq	r1, r0, r9, asr #6
    19f4:	49002608 	stmdbmi	r0, {r3, r9, sl, sp}
    19f8:	09000013 	stmdbeq	r0, {r0, r1, r4}
    19fc:	193f012e 	ldmdbne	pc!, {r1, r2, r3, r5, r8}	; <UNPREDICTABLE>
    1a00:	0b3a0e03 	bleq	e85214 <__bss_end__+0xe7a40c>
    1a04:	0b390b3b 	bleq	e446f8 <__bss_end__+0xe398f0>
    1a08:	13491927 	movtne	r1, #39207	; 0x9927
    1a0c:	06120111 			; <UNDEFINED> instruction: 0x06120111
    1a10:	42971840 	addsmi	r1, r7, #64, 16	; 0x400000
    1a14:	0a000019 	beq	1a80 <__code_start__-0x6580>
    1a18:	08030005 	stmdaeq	r3, {r0, r2}
    1a1c:	0b3b0b3a 	bleq	ec470c <__bss_end__+0xeb9904>
    1a20:	13490b39 	movtne	r0, #39737	; 0x9b39
    1a24:	42b71702 	adcsmi	r1, r7, #524288	; 0x80000
    1a28:	00000017 	andeq	r0, r0, r7, lsl r0
    1a2c:	25011101 	strcs	r1, [r1, #-257]	; 0xfffffeff
    1a30:	030b130e 	movweq	r1, #45838	; 0xb30e
    1a34:	110e1b0e 	tstne	lr, lr, lsl #22
    1a38:	10061201 	andne	r1, r6, r1, lsl #4
    1a3c:	02000017 	andeq	r0, r0, #23, 0
    1a40:	0b0b0024 	bleq	2c1ad8 <__bss_end__+0x2b6cd0>
    1a44:	08030b3e 	stmdaeq	r3, {r1, r2, r3, r4, r5, r8, r9, fp}
    1a48:	24030000 	strcs	r0, [r3], #-0
    1a4c:	3e0b0b00 	vmlacc.f64	d0, d11, d0
    1a50:	000e030b 	andeq	r0, lr, fp, lsl #6
    1a54:	01150400 	tsteq	r5, r0, lsl #8
    1a58:	13491927 	movtne	r1, #39207	; 0x9927
    1a5c:	00001301 	andeq	r1, r0, r1, lsl #6
    1a60:	49000505 	stmdbmi	r0, {r0, r2, r8, sl}
    1a64:	06000013 			; <UNDEFINED> instruction: 0x06000013
    1a68:	0e030034 	mcreq	0, 0, r0, cr3, cr4, {1}
    1a6c:	0b3b0b3a 	bleq	ec475c <__bss_end__+0xeb9954>
    1a70:	13490b39 	movtne	r0, #39737	; 0x9b39
    1a74:	193c193f 	ldmdbne	ip!, {r0, r1, r2, r3, r4, r5, r8, fp, ip}
    1a78:	0f070000 	svceq	0x00070000
    1a7c:	490b0b00 	stmdbmi	fp, {r8, r9, fp}
    1a80:	08000013 	stmdaeq	r0, {r0, r1, r4}
    1a84:	13490026 	movtne	r0, #36902	; 0x9026
    1a88:	2e090000 	cdpcs	0, 0, cr0, cr9, cr0, {0}
    1a8c:	03193f01 	tsteq	r9, #1, 30
    1a90:	3b0b3a0e 	blcc	2d02d0 <__bss_end__+0x2c54c8>
    1a94:	270b390b 	strcs	r3, [fp, -fp, lsl #18]
    1a98:	11134919 	tstne	r3, r9, lsl r9
    1a9c:	40061201 	andmi	r1, r6, r1, lsl #4
    1aa0:	19429718 	stmdbne	r2, {r3, r4, r8, r9, sl, ip, pc}^
    1aa4:	00001301 	andeq	r1, r0, r1, lsl #6
    1aa8:	0300050a 	movweq	r0, #1290	; 0x50a
    1aac:	3b0b3a08 	blcc	2d02d4 <__bss_end__+0x2c54cc>
    1ab0:	490b390b 	stmdbmi	fp, {r0, r1, r3, r8, fp, ip, sp}
    1ab4:	00180213 	andseq	r0, r8, r3, lsl r2
    1ab8:	00050b00 	andeq	r0, r5, r0, lsl #22
    1abc:	0b3a0803 	bleq	e83ad0 <__bss_end__+0xe78cc8>
    1ac0:	0b390b3b 	bleq	e447b4 <__bss_end__+0xe399ac>
    1ac4:	17021349 	strne	r1, [r2, -r9, asr #6]
    1ac8:	001742b7 			; <UNDEFINED> instruction: 0x001742b7
    1acc:	00340c00 	eorseq	r0, r4, r0, lsl #24
    1ad0:	0b3a0803 	bleq	e83ae4 <__bss_end__+0xe78cdc>
    1ad4:	0b390b3b 	bleq	e447c8 <__bss_end__+0xe399c0>
    1ad8:	17021349 	strne	r1, [r2, -r9, asr #6]
    1adc:	001742b7 			; <UNDEFINED> instruction: 0x001742b7
    1ae0:	11010000 	mrsne	r0, (UNDEF: 1)
    1ae4:	130e2501 	movwne	r2, #58625	; 0xe501
    1ae8:	1b0e030b 	blne	38271c <__bss_end__+0x377914>
    1aec:	1117550e 	tstne	r7, lr, lsl #10
    1af0:	00171001 	andseq	r1, r7, r1
    1af4:	00240200 	eoreq	r0, r4, r0, lsl #4
    1af8:	0b3e0b0b 	bleq	f8472c <__bss_end__+0xf79924>
    1afc:	00000803 	andeq	r0, r0, r3, lsl #16
    1b00:	03001603 	movweq	r1, #1539	; 0x603
    1b04:	3b0b3a0e 	blcc	2d0344 <__bss_end__+0x2c553c>
    1b08:	490b390b 	stmdbmi	fp, {r0, r1, r3, r8, fp, ip, sp}
    1b0c:	04000013 	streq	r0, [r0], #-19	; 0xffffffed
    1b10:	0b0b0024 	bleq	2c1ba8 <__bss_end__+0x2b6da0>
    1b14:	0e030b3e 	vmoveq.16	d3[0], r0
    1b18:	26050000 	strcs	r0, [r5], -r0
    1b1c:	00134900 	andseq	r4, r3, r0, lsl #18
    1b20:	01150600 	tsteq	r5, r0, lsl #12
    1b24:	13491927 	movtne	r1, #39207	; 0x9927
    1b28:	00001301 	andeq	r1, r0, r1, lsl #6
    1b2c:	49000507 	stmdbmi	r0, {r0, r1, r2, r8, sl}
    1b30:	08000013 	stmdaeq	r0, {r0, r1, r4}
    1b34:	0e030034 	mcreq	0, 0, r0, cr3, cr4, {1}
    1b38:	0b3b0b3a 	bleq	ec4828 <__bss_end__+0xeb9a20>
    1b3c:	13490b39 	movtne	r0, #39737	; 0x9b39
    1b40:	193c193f 	ldmdbne	ip!, {r0, r1, r2, r3, r4, r5, r8, fp, ip}
    1b44:	0f090000 	svceq	0x00090000
    1b48:	490b0b00 	stmdbmi	fp, {r8, r9, fp}
    1b4c:	0a000013 	beq	1ba0 <__code_start__-0x6460>
    1b50:	193f012e 	ldmdbne	pc!, {r1, r2, r3, r5, r8}	; <UNPREDICTABLE>
    1b54:	0b3a0e03 	bleq	e85368 <__bss_end__+0xe7a560>
    1b58:	0b390b3b 	bleq	e4484c <__bss_end__+0xe39a44>
    1b5c:	13491927 	movtne	r1, #39207	; 0x9927
    1b60:	06120111 			; <UNDEFINED> instruction: 0x06120111
    1b64:	42971840 	addsmi	r1, r7, #64, 16	; 0x400000
    1b68:	00130119 	andseq	r0, r3, r9, lsl r1
    1b6c:	00050b00 	andeq	r0, r5, r0, lsl #22
    1b70:	0b3a0803 	bleq	e83b84 <__bss_end__+0xe78d7c>
    1b74:	0b390b3b 	bleq	e44868 <__bss_end__+0xe39a60>
    1b78:	17021349 	strne	r1, [r2, -r9, asr #6]
    1b7c:	001742b7 			; <UNDEFINED> instruction: 0x001742b7
    1b80:	00340c00 	eorseq	r0, r4, r0, lsl #24
    1b84:	0b3a0803 	bleq	e83b98 <__bss_end__+0xe78d90>
    1b88:	0b390b3b 	bleq	e4487c <__bss_end__+0xe39a74>
    1b8c:	17021349 	strne	r1, [r2, -r9, asr #6]
    1b90:	001742b7 			; <UNDEFINED> instruction: 0x001742b7
    1b94:	11010000 	mrsne	r0, (UNDEF: 1)
    1b98:	130e2501 	movwne	r2, #58625	; 0xe501
    1b9c:	1b0e030b 	blne	3827d0 <__bss_end__+0x3779c8>
    1ba0:	1201110e 	andne	r1, r1, #-2147483645	; 0x80000003
    1ba4:	00171006 	andseq	r1, r7, r6
    1ba8:	00240200 	eoreq	r0, r4, r0, lsl #4
    1bac:	0b3e0b0b 	bleq	f847e0 <__bss_end__+0xf799d8>
    1bb0:	00000803 	andeq	r0, r0, r3, lsl #16
    1bb4:	0b002403 	bleq	abc8 <buf.3948+0x1c8>
    1bb8:	030b3e0b 	movweq	r3, #48651	; 0xbe0b
    1bbc:	0400000e 	streq	r0, [r0], #-14
    1bc0:	19270115 	stmdbne	r7!, {r0, r2, r4, r8}
    1bc4:	13011349 	movwne	r1, #4937	; 0x1349
    1bc8:	05050000 	streq	r0, [r5, #-0]
    1bcc:	00134900 	andseq	r4, r3, r0, lsl #18
    1bd0:	00340600 	eorseq	r0, r4, r0, lsl #12
    1bd4:	0b3a0e03 	bleq	e853e8 <__bss_end__+0xe7a5e0>
    1bd8:	0b390b3b 	bleq	e448cc <__bss_end__+0xe39ac4>
    1bdc:	193f1349 	ldmdbne	pc!, {r0, r3, r6, r8, r9, ip}	; <UNPREDICTABLE>
    1be0:	0000193c 	andeq	r1, r0, ip, lsr r9
    1be4:	0b000f07 	bleq	5808 <__code_start__-0x27f8>
    1be8:	0013490b 	andseq	r4, r3, fp, lsl #18
    1bec:	00260800 	eoreq	r0, r6, r0, lsl #16
    1bf0:	00001349 	andeq	r1, r0, r9, asr #6
    1bf4:	3f002e09 	svccc	0x00002e09
    1bf8:	3a0e0319 	bcc	382864 <__bss_end__+0x377a5c>
    1bfc:	390b3b0b 	stmdbcc	fp, {r0, r1, r3, r8, r9, fp, ip, sp}
    1c00:	1119270b 	tstne	r9, fp, lsl #14
    1c04:	40061201 	andmi	r1, r6, r1, lsl #4
    1c08:	19429718 	stmdbne	r2, {r3, r4, r8, r9, sl, ip, pc}^
    1c0c:	01000000 	mrseq	r0, (UNDEF: 0)
    1c10:	0e250111 	mcreq	1, 1, r0, cr5, cr1, {0}
    1c14:	0e030b13 	vmoveq.32	d3[0], r0
    1c18:	01110e1b 	tsteq	r1, fp, lsl lr
    1c1c:	17100612 			; <UNDEFINED> instruction: 0x17100612
    1c20:	24020000 	strcs	r0, [r2], #-0
    1c24:	3e0b0b00 	vmlacc.f64	d0, d11, d0
    1c28:	0008030b 	andeq	r0, r8, fp, lsl #6
    1c2c:	00240300 	eoreq	r0, r4, r0, lsl #6
    1c30:	0b3e0b0b 	bleq	f84864 <__bss_end__+0xf79a5c>
    1c34:	00000e03 	andeq	r0, r0, r3, lsl #28
    1c38:	49002604 	stmdbmi	r0, {r2, r9, sl, sp}
    1c3c:	05000013 	streq	r0, [r0, #-19]	; 0xffffffed
    1c40:	0e030016 	mcreq	0, 0, r0, cr3, cr6, {0}
    1c44:	0b3b0b3a 	bleq	ec4934 <__bss_end__+0xeb9b2c>
    1c48:	13490b39 	movtne	r0, #39737	; 0x9b39
    1c4c:	04060000 	streq	r0, [r6], #-0
    1c50:	0b0b3e01 	bleq	2d145c <__bss_end__+0x2c6654>
    1c54:	3a13490b 	bcc	4d4088 <__bss_end__+0x4c9280>
    1c58:	390b3b0b 	stmdbcc	fp, {r0, r1, r3, r8, r9, fp, ip, sp}
    1c5c:	0013010b 	andseq	r0, r3, fp, lsl #2
    1c60:	00280700 	eoreq	r0, r8, r0, lsl #14
    1c64:	0b1c0e03 	bleq	705478 <__bss_end__+0x6fa670>
    1c68:	34080000 	strcc	r0, [r8], #-0
    1c6c:	3a0e0300 	bcc	382874 <__bss_end__+0x377a6c>
    1c70:	390b3b0b 	stmdbcc	fp, {r0, r1, r3, r8, r9, fp, ip, sp}
    1c74:	1c13490b 			; <UNDEFINED> instruction: 0x1c13490b
    1c78:	09000006 	stmdbeq	r0, {r1, r2}
    1c7c:	193f012e 	ldmdbne	pc!, {r1, r2, r3, r5, r8}	; <UNPREDICTABLE>
    1c80:	0b3a0e03 	bleq	e85494 <__bss_end__+0xe7a68c>
    1c84:	0b390b3b 	bleq	e44978 <__bss_end__+0xe39b70>
    1c88:	13491927 	movtne	r1, #39207	; 0x9927
    1c8c:	06120111 			; <UNDEFINED> instruction: 0x06120111
    1c90:	42971840 	addsmi	r1, r7, #64, 16	; 0x400000
    1c94:	00130119 	andseq	r0, r3, r9, lsl r1
    1c98:	00050a00 	andeq	r0, r5, r0, lsl #20
    1c9c:	0b3a0803 	bleq	e83cb0 <__bss_end__+0xe78ea8>
    1ca0:	0b390b3b 	bleq	e44994 <__bss_end__+0xe39b8c>
    1ca4:	17021349 	strne	r1, [r2, -r9, asr #6]
    1ca8:	001742b7 			; <UNDEFINED> instruction: 0x001742b7
    1cac:	00340b00 	eorseq	r0, r4, r0, lsl #22
    1cb0:	0b3a0e03 	bleq	e854c4 <__bss_end__+0xe7a6bc>
    1cb4:	0b390b3b 	bleq	e449a8 <__bss_end__+0xe39ba0>
    1cb8:	17021349 	strne	r1, [r2, -r9, asr #6]
    1cbc:	001742b7 			; <UNDEFINED> instruction: 0x001742b7
    1cc0:	00340c00 	eorseq	r0, r4, r0, lsl #24
    1cc4:	0b3a0803 	bleq	e83cd8 <__bss_end__+0xe78ed0>
    1cc8:	0b390b3b 	bleq	e449bc <__bss_end__+0xe39bb4>
    1ccc:	17021349 	strne	r1, [r2, -r9, asr #6]
    1cd0:	001742b7 			; <UNDEFINED> instruction: 0x001742b7
    1cd4:	82890d00 	addhi	r0, r9, #0, 26
    1cd8:	01110101 	tsteq	r1, r1, lsl #2
    1cdc:	00001331 	andeq	r1, r0, r1, lsr r3
    1ce0:	01828a0e 	orreq	r8, r2, lr, lsl #20
    1ce4:	91180200 	tstls	r8, r0, lsl #4
    1ce8:	00001842 	andeq	r1, r0, r2, asr #16
    1cec:	3f012e0f 	svccc	0x00012e0f
    1cf0:	3a0e0319 	bcc	38295c <__bss_end__+0x377b54>
    1cf4:	390b3b0b 	stmdbcc	fp, {r0, r1, r3, r8, r9, fp, ip, sp}
    1cf8:	1119270b 	tstne	r9, fp, lsl #14
    1cfc:	40061201 	andmi	r1, r6, r1, lsl #4
    1d00:	19429718 	stmdbne	r2, {r3, r4, r8, r9, sl, ip, pc}^
    1d04:	00001301 	andeq	r1, r0, r1, lsl #6
    1d08:	01828910 	orreq	r8, r2, r0, lsl r9
    1d0c:	31011101 	tstcc	r1, r1, lsl #2
    1d10:	00130113 	andseq	r0, r3, r3, lsl r1
    1d14:	82891100 	addhi	r1, r9, #0
    1d18:	01110001 	tsteq	r1, r1
    1d1c:	00001331 	andeq	r1, r0, r1, lsr r3
    1d20:	03000512 	movweq	r0, #1298	; 0x512
    1d24:	3b0b3a0e 	blcc	2d0564 <__bss_end__+0x2c575c>
    1d28:	490b390b 	stmdbmi	fp, {r0, r1, r3, r8, fp, ip, sp}
    1d2c:	b7170213 			; <UNDEFINED> instruction: 0xb7170213
    1d30:	00001742 	andeq	r1, r0, r2, asr #14
    1d34:	03012e13 	movweq	r2, #7699	; 0x1e13
    1d38:	3b0b3a0e 	blcc	2d0578 <__bss_end__+0x2c5770>
    1d3c:	270b390b 	strcs	r3, [fp, -fp, lsl #18]
    1d40:	20134919 	andscs	r4, r3, r9, lsl r9
    1d44:	0013010b 	andseq	r0, r3, fp, lsl #2
    1d48:	00051400 	andeq	r1, r5, r0, lsl #8
    1d4c:	0b3a0803 	bleq	e83d60 <__bss_end__+0xe78f58>
    1d50:	0b390b3b 	bleq	e44a44 <__bss_end__+0xe39c3c>
    1d54:	00001349 	andeq	r1, r0, r9, asr #6
    1d58:	3f002e15 	svccc	0x00002e15
    1d5c:	6e193c19 	mrcvs	12, 0, r3, cr9, cr9, {0}
    1d60:	3a0e030e 	bcc	3829a0 <__bss_end__+0x377b98>
    1d64:	390b3b0b 	stmdbcc	fp, {r0, r1, r3, r8, r9, fp, ip, sp}
    1d68:	0000000b 	andeq	r0, r0, fp

Disassembly of section .debug_loc:

00000000 <.debug_loc>:
       0:	00000000 	andeq	r0, r0, r0
       4:	00000044 	andeq	r0, r0, r4, asr #32
       8:	0000004f 	andeq	r0, r0, pc, asr #32
       c:	4f500001 	svcmi	0x00500001
      10:	d4000000 	strle	r0, [r0], #-0
      14:	01000000 	mrseq	r0, (UNDEF: 0)
      18:	00005400 	andeq	r5, r0, r0, lsl #8
	...
      28:	0000007c 	andeq	r0, r0, ip, ror r0
      2c:	00000088 	andeq	r0, r0, r8, lsl #1
      30:	a4500001 	ldrbge	r0, [r0], #-1
      34:	b8000000 	stmdalt	r0, {}	; <UNPREDICTABLE>
      38:	01000000 	mrseq	r0, (UNDEF: 0)
      3c:	00b85000 	adcseq	r5, r8, r0
      40:	00bb0000 	adcseq	r0, fp, r0
      44:	00020000 	andeq	r0, r2, r0
      48:	0000007d 	andeq	r0, r0, sp, ror r0
      4c:	00000000 	andeq	r0, r0, r0
      50:	00010000 	andeq	r0, r1, r0
      54:	00000018 	andeq	r0, r0, r8, lsl r0
      58:	00000030 	andeq	r0, r0, r0, lsr r0
      5c:	9f390002 	svcls	0x00390002
	...
      68:	00180001 	andseq	r0, r8, r1
      6c:	00300000 	eorseq	r0, r0, r0
      70:	00060000 	andeq	r0, r6, r0
      74:	000431f2 	strdeq	r3, [r4], -r2
	...
      80:	00010000 	andeq	r0, r1, r0
      84:	00000018 	andeq	r0, r0, r8, lsl r0
      88:	00000030 	andeq	r0, r0, r0, lsr r0
      8c:	e0030006 	and	r0, r3, r6
      90:	9f00009f 	svcls	0x0000009f
	...
      9c:	00500001 	subseq	r0, r0, r1
      a0:	00600000 	rsbeq	r0, r0, r0
      a4:	00020000 	andeq	r0, r2, r0
      a8:	00009f3b 	andeq	r9, r0, fp, lsr pc
      ac:	00000000 	andeq	r0, r0, r0
      b0:	00010000 	andeq	r0, r1, r0
      b4:	00000050 	andeq	r0, r0, r0, asr r0
      b8:	00000060 	andeq	r0, r0, r0, rrx
      bc:	31f20006 	mvnscc	r0, r6
      c0:	00000004 	andeq	r0, r0, r4
	...
      cc:	00500001 	subseq	r0, r0, r1
      d0:	00600000 	rsbeq	r0, r0, r0
      d4:	00060000 	andeq	r0, r6, r0
      d8:	009fe003 	addseq	lr, pc, r3
      dc:	00009f00 	andeq	r9, r0, r0, lsl #30
	...
      ec:	00040000 	andeq	r0, r4, r0
      f0:	00010000 	andeq	r0, r1, r0
      f4:	00000450 	andeq	r0, r0, r0, asr r4
      f8:	00000800 	andeq	r0, r0, r0, lsl #16
      fc:	f3000400 	vshl.u8	d0, d0, d0
     100:	009f5001 	addseq	r5, pc, r1
     104:	00000000 	andeq	r0, r0, r0
     108:	02000000 	andeq	r0, r0, #0, 0
     10c:	00000000 	andeq	r0, r0, r0
     110:	04000000 	streq	r0, [r0], #-0
     114:	01000000 	mrseq	r0, (UNDEF: 0)
     118:	00045000 	andeq	r5, r4, r0
     11c:	00080000 	andeq	r0, r8, r0
     120:	00040000 	andeq	r0, r4, r0
     124:	9f5001f3 	svcls	0x005001f3
	...
     134:	04500000 	ldrbeq	r0, [r0], #-0
     138:	04680000 	strbteq	r0, [r8], #-0
     13c:	00010000 	andeq	r0, r1, r0
     140:	00046850 	andeq	r6, r4, r0, asr r8
     144:	00051c00 	andeq	r1, r5, r0, lsl #24
     148:	56000100 	strpl	r0, [r0], -r0, lsl #2
     14c:	0000051c 	andeq	r0, r0, ip, lsl r5
     150:	0000052c 	andeq	r0, r0, ip, lsr #10
     154:	01f30004 	mvnseq	r0, r4
     158:	00009f50 	andeq	r9, r0, r0, asr pc
	...
     168:	00000470 	andeq	r0, r0, r0, ror r4
     16c:	0000047b 	andeq	r0, r0, fp, ror r4
     170:	7b500001 	blvc	140017c <__bss_end__+0x13f5374>
     174:	1c000004 	stcne	0, cr0, [r0], {4}
     178:	01000005 	tsteq	r0, r5
     17c:	051c5400 	ldreq	r5, [ip, #-1024]	; 0xfffffc00
     180:	052c0000 	streq	r0, [ip, #-0]!
     184:	00040000 	andeq	r0, r4, r0
     188:	9f7ed870 	svcls	0x007ed870
	...
     194:	04b00001 	ldrteq	r0, [r0], #1
     198:	04b80000 	ldrteq	r0, [r8], #0
     19c:	00010000 	andeq	r0, r1, r0
     1a0:	00000054 	andeq	r0, r0, r4, asr r0
	...
     1ac:	0002e000 	andeq	lr, r2, r0
     1b0:	0002f000 	andeq	pc, r2, r0
     1b4:	50000100 	andpl	r0, r0, r0, lsl #2
     1b8:	000002f0 	strdeq	r0, [r0], -r0	; <UNPREDICTABLE>
     1bc:	00000450 	andeq	r0, r0, r0, asr r4
     1c0:	00540001 	subseq	r0, r4, r1
     1c4:	00000000 	andeq	r0, r0, r0
     1c8:	01000000 	mrseq	r0, (UNDEF: 0)
     1cc:	00000000 	andeq	r0, r0, r0
     1d0:	f4000000 	vst4.8	{d0-d3}, [r0], r0
     1d4:	04000002 	streq	r0, [r0], #-2
     1d8:	04000003 	streq	r0, [r0], #-3
     1dc:	7ed87400 	cdpvc	4, 13, cr7, cr8, cr0, {0}
     1e0:	0003049f 	muleq	r3, pc, r4	; <UNPREDICTABLE>
     1e4:	00036400 	andeq	r6, r3, r0, lsl #8
     1e8:	55000100 	strpl	r0, [r0, #-256]	; 0xffffff00
     1ec:	00000364 	andeq	r0, r0, r4, ror #6
     1f0:	00000388 	andeq	r0, r0, r8, lsl #7
     1f4:	d8740004 	ldmdale	r4!, {r2}^
     1f8:	03889f7e 	orreq	r9, r8, #504	; 0x1f8
     1fc:	04500000 	ldrbeq	r0, [r0], #-0
     200:	00010000 	andeq	r0, r1, r0
     204:	00000055 	andeq	r0, r0, r5, asr r0
     208:	00000000 	andeq	r0, r0, r0
     20c:	00000300 	andeq	r0, r0, r0, lsl #6
     210:	40000000 	andmi	r0, r0, r0
     214:	44000003 	strmi	r0, [r0], #-3
     218:	02000003 	andeq	r0, r0, #3, 0
     21c:	449f3000 	ldrmi	r3, [pc], #0	; 224 <__code_start__-0x7ddc>
     220:	64000003 	strvs	r0, [r0], #-3
     224:	01000003 	tsteq	r0, r3
     228:	03a85300 			; <UNDEFINED> instruction: 0x03a85300
     22c:	03b30000 			; <UNDEFINED> instruction: 0x03b30000
     230:	00010000 	andeq	r0, r1, r0
     234:	00000053 	andeq	r0, r0, r3, asr r0
	...
     240:	00025400 	andeq	r5, r2, r0, lsl #8
     244:	00026000 	andeq	r6, r2, r0
     248:	50000100 	andpl	r0, r0, r0, lsl #2
     24c:	00000260 	andeq	r0, r0, r0, ror #4
     250:	000002d4 	ldrdeq	r0, [r0], -r4
     254:	00540001 	subseq	r0, r4, r1
	...
     260:	68000000 	stmdavs	r0, {}	; <UNPREDICTABLE>
     264:	70000002 	andvc	r0, r0, r2
     268:	01000002 	tsteq	r0, r2
     26c:	02705000 	rsbseq	r5, r0, #0, 0
     270:	02d40000 	sbcseq	r0, r4, #0, 0
     274:	00010000 	andeq	r0, r1, r0
     278:	00000056 	andeq	r0, r0, r6, asr r0
     27c:	00000000 	andeq	r0, r0, r0
     280:	00000100 	andeq	r0, r0, r0, lsl #2
     284:	68000000 	stmdavs	r0, {}	; <UNPREDICTABLE>
     288:	70000002 	andvc	r0, r0, r2
     28c:	02000002 	andeq	r0, r0, #2, 0
     290:	709f3000 	addsvc	r3, pc, r0
     294:	d4000002 	strle	r0, [r0], #-2
     298:	01000002 	tsteq	r0, r2
     29c:	02d45500 	sbcseq	r5, r4, #0, 10
     2a0:	02e00000 	rsceq	r0, r0, #0, 0
     2a4:	00010000 	andeq	r0, r1, r0
     2a8:	00000050 	andeq	r0, r0, r0, asr r0
	...
     2bc:	0001f000 	andeq	pc, r1, r0
     2c0:	00022800 	andeq	r2, r2, r0, lsl #16
     2c4:	50000100 	andpl	r0, r0, r0, lsl #2
     2c8:	00000228 	andeq	r0, r0, r8, lsr #4
     2cc:	0000022c 	andeq	r0, r0, ip, lsr #4
     2d0:	01f30004 	mvnseq	r0, r4
     2d4:	022c9f50 	eoreq	r9, ip, #80, 30	; 0x140
     2d8:	02300000 	eorseq	r0, r0, #0, 0
     2dc:	00010000 	andeq	r0, r1, r0
     2e0:	00023050 	andeq	r3, r2, r0, asr r0
     2e4:	00023400 	andeq	r3, r2, r0, lsl #8
     2e8:	f3000400 	vshl.u8	d0, d0, d0
     2ec:	349f5001 	ldrcc	r5, [pc], #1	; 2f4 <__code_start__-0x7d0c>
     2f0:	38000002 	stmdacc	r0, {r1}
     2f4:	01000002 	tsteq	r0, r2
     2f8:	02385000 	eorseq	r5, r8, #0, 0
     2fc:	023c0000 	eorseq	r0, ip, #0, 0
     300:	00040000 	andeq	r0, r4, r0
     304:	9f5001f3 	svcls	0x005001f3
	...
     314:	00000200 	andeq	r0, r0, r0, lsl #4
     318:	0000022c 	andeq	r0, r0, ip, lsr #4
     31c:	34530001 	ldrbcc	r0, [r3], #-1
     320:	3c000002 	stccc	0, cr0, [r0], {2}
     324:	01000002 	tsteq	r0, r2
     328:	00005300 	andeq	r5, r0, r0, lsl #6
	...
     338:	000001a8 	andeq	r0, r0, r8, lsr #3
     33c:	000001b7 			; <UNDEFINED> instruction: 0x000001b7
     340:	b7500001 	ldrblt	r0, [r0, -r1]
     344:	d0000001 	andle	r0, r0, r1
     348:	01000001 	tsteq	r0, r1
     34c:	01d05500 	bicseq	r5, r0, r0, lsl #10
     350:	01f00000 	mvnseq	r0, r0
     354:	00040000 	andeq	r0, r4, r0
     358:	9f5001f3 	svcls	0x005001f3
	...
     368:	000001a8 	andeq	r0, r0, r8, lsr #3
     36c:	000001b7 			; <UNDEFINED> instruction: 0x000001b7
     370:	b7510001 	ldrblt	r0, [r1, -r1]
     374:	f0000001 			; <UNDEFINED> instruction: 0xf0000001
     378:	01000001 	tsteq	r0, r1
     37c:	00005400 	andeq	r5, r0, r0, lsl #8
	...
     388:	01bc0000 			; <UNDEFINED> instruction: 0x01bc0000
     38c:	01c80000 	biceq	r0, r8, r0
     390:	00010000 	andeq	r0, r1, r0
     394:	0001c850 	andeq	ip, r1, r0, asr r8
     398:	0001f000 	andeq	pc, r1, r0
     39c:	56000100 	strpl	r0, [r0], -r0, lsl #2
	...
     3ac:	000001d0 	ldrdeq	r0, [r0], -r0	; <UNPREDICTABLE>
     3b0:	000001dc 	ldrdeq	r0, [r0], -ip
     3b4:	dc500001 	mrrcle	0, 0, r0, r0, cr1	; <UNPREDICTABLE>
     3b8:	f0000001 			; <UNDEFINED> instruction: 0xf0000001
     3bc:	01000001 	tsteq	r0, r1
     3c0:	00005500 	andeq	r5, r0, r0, lsl #10
	...
     3cc:	000001e0 	andeq	r0, r0, r0, ror #3
     3d0:	000001e8 	andeq	r0, r0, r8, ror #3
     3d4:	00500001 	subseq	r0, r0, r1
     3d8:	00000000 	andeq	r0, r0, r0
     3dc:	01000000 	mrseq	r0, (UNDEF: 0)
     3e0:	b4000000 	strlt	r0, [r0], #-0
     3e4:	b7000001 	strlt	r0, [r0, -r1]
     3e8:	01000001 	tsteq	r0, r1
     3ec:	01b75000 			; <UNDEFINED> instruction: 0x01b75000
     3f0:	01bc0000 			; <UNDEFINED> instruction: 0x01bc0000
     3f4:	00010000 	andeq	r0, r1, r0
     3f8:	00000055 	andeq	r0, r0, r5, asr r0
	...
     404:	00014400 	andeq	r4, r1, r0, lsl #8
     408:	00014f00 	andeq	r4, r1, r0, lsl #30
     40c:	50000100 	andpl	r0, r0, r0, lsl #2
     410:	0000014f 	andeq	r0, r0, pc, asr #2
     414:	000001a8 	andeq	r0, r0, r8, lsr #3
     418:	00550001 	subseq	r0, r5, r1
	...
     428:	54000000 	strpl	r0, [r0], #-0
     42c:	58000001 	stmdapl	r0, {r0}
     430:	01000001 	tsteq	r0, r1
     434:	01585000 	cmpeq	r8, r0
     438:	01640000 	cmneq	r4, r0
     43c:	00010000 	andeq	r0, r1, r0
     440:	00016454 	andeq	r6, r1, r4, asr r4
     444:	00017700 	andeq	r7, r1, r0, lsl #14
     448:	50000100 	andpl	r0, r0, r0, lsl #2
     44c:	00000177 	andeq	r0, r0, r7, ror r1
     450:	000001a8 	andeq	r0, r0, r8, lsr #3
     454:	00540001 	subseq	r0, r4, r1
	...
     460:	ec000000 	stc	0, cr0, [r0], {-0}
     464:	f7000000 			; <UNDEFINED> instruction: 0xf7000000
     468:	01000000 	mrseq	r0, (UNDEF: 0)
     46c:	00f75000 	rscseq	r5, r7, r0
     470:	01440000 	mrseq	r0, (UNDEF: 68)
     474:	00010000 	andeq	r0, r1, r0
     478:	00000055 	andeq	r0, r0, r5, asr r0
	...
     488:	0000fc00 	andeq	pc, r0, r0, lsl #24
     48c:	00010f00 	andeq	r0, r1, r0, lsl #30
     490:	50000100 	andpl	r0, r0, r0, lsl #2
     494:	0000010f 	andeq	r0, r0, pc, lsl #2
     498:	00000124 	andeq	r0, r0, r4, lsr #2
     49c:	24540001 	ldrbcs	r0, [r4], #-1
     4a0:	28000001 	stmdacs	r0, {r0}
     4a4:	01000001 	tsteq	r0, r1
     4a8:	01285000 			; <UNDEFINED> instruction: 0x01285000
     4ac:	01440000 	mrseq	r0, (UNDEF: 68)
     4b0:	00010000 	andeq	r0, r1, r0
     4b4:	00000054 	andeq	r0, r0, r4, asr r0
	...
     4c4:	b4000000 	strlt	r0, [r0], #-0
     4c8:	cc000000 	stcgt	0, cr0, [r0], {-0}
     4cc:	01000000 	mrseq	r0, (UNDEF: 0)
     4d0:	00cc5000 	sbceq	r5, ip, r0
     4d4:	00d80000 	sbcseq	r0, r8, r0
     4d8:	00040000 	andeq	r0, r4, r0
     4dc:	9f7ed870 	svcls	0x007ed870
     4e0:	000000d8 	ldrdeq	r0, [r0], -r8
     4e4:	000000dc 	ldrdeq	r0, [r0], -ip
     4e8:	01f30004 	mvnseq	r0, r4
     4ec:	00dc9f50 	sbcseq	r9, ip, r0, asr pc
     4f0:	00e00000 	rsceq	r0, r0, r0
     4f4:	00010000 	andeq	r0, r1, r0
     4f8:	0000e050 	andeq	lr, r0, r0, asr r0
     4fc:	0000ec00 	andeq	lr, r0, r0, lsl #24
     500:	f3000400 	vshl.u8	d0, d0, d0
     504:	009f5001 	addseq	r5, pc, r1
	...
     510:	9c000000 	stcls	0, cr0, [r0], {-0}
     514:	a7000000 	strge	r0, [r0, -r0]
     518:	01000000 	mrseq	r0, (UNDEF: 0)
     51c:	00a75000 	adceq	r5, r7, r0
     520:	00b40000 	adcseq	r0, r4, r0
     524:	00010000 	andeq	r0, r1, r0
     528:	00000054 	andeq	r0, r0, r4, asr r0
     52c:	00000000 	andeq	r0, r0, r0
     530:	a8000000 	stmdage	r0, {}	; <UNPREDICTABLE>
     534:	ac000000 	stcge	0, cr0, [r0], {-0}
     538:	01000000 	mrseq	r0, (UNDEF: 0)
     53c:	00005400 	andeq	r5, r0, r0, lsl #8
	...
     548:	00940000 	addseq	r0, r4, r0
     54c:	00980000 	addseq	r0, r8, r0
     550:	00010000 	andeq	r0, r1, r0
     554:	00009850 	andeq	r9, r0, r0, asr r8
     558:	00009c00 	andeq	r9, r0, r0, lsl #24
     55c:	70000400 	andvc	r0, r0, r0, lsl #8
     560:	009f7ed8 			; <UNDEFINED> instruction: 0x009f7ed8
	...
     56c:	84000000 	strhi	r0, [r0], #-0
     570:	90000000 	andls	r0, r0, r0
     574:	01000000 	mrseq	r0, (UNDEF: 0)
     578:	00905000 	addseq	r5, r0, r0
     57c:	00940000 	addseq	r0, r4, r0
     580:	00040000 	andeq	r0, r4, r0
     584:	9f5001f3 	svcls	0x005001f3
	...
     598:	00000058 	andeq	r0, r0, r8, asr r0
     59c:	58500001 	ldmdapl	r0, {r0}^
     5a0:	74000000 	strvc	r0, [r0], #-0
     5a4:	04000000 	streq	r0, [r0], #-0
     5a8:	5001f300 	andpl	pc, r1, r0, lsl #6
     5ac:	0000009f 	muleq	r0, pc, r0	; <UNPREDICTABLE>
	...
     5bc:	00005400 	andeq	r5, r0, r0, lsl #8
     5c0:	51000100 	mrspl	r0, (UNDEF: 16)
     5c4:	00000054 	andeq	r0, r0, r4, asr r0
     5c8:	00000074 	andeq	r0, r0, r4, ror r0
     5cc:	01f30004 	mvnseq	r0, r4
     5d0:	00009f51 	andeq	r9, r0, r1, asr pc
     5d4:	00000000 	andeq	r0, r0, r0
     5d8:	00030000 	andeq	r0, r3, r0
     5dc:	00000018 	andeq	r0, r0, r8, lsl r0
     5e0:	00000028 	andeq	r0, r0, r8, lsr #32
     5e4:	00530001 	subseq	r0, r3, r1
	...
     5f0:	0005c800 	andeq	ip, r5, r0, lsl #16
     5f4:	0005cc00 	andeq	ip, r5, r0, lsl #24
     5f8:	50000100 	andpl	r0, r0, r0, lsl #2
	...
     604:	00000001 	andeq	r0, r0, r1
     608:	000001bc 			; <UNDEFINED> instruction: 0x000001bc
     60c:	000001e4 	andeq	r0, r0, r4, ror #3
     610:	9f300002 	svcls	0x00300002
     614:	000001e4 	andeq	r0, r0, r4, ror #3
     618:	00000268 	andeq	r0, r0, r8, ror #4
     61c:	00550001 	subseq	r0, r5, r1
     620:	00000000 	andeq	r0, r0, r0
     624:	01000000 	mrseq	r0, (UNDEF: 0)
     628:	bc000000 	stclt	0, cr0, [r0], {-0}
     62c:	e4000001 	str	r0, [r0], #-1
     630:	02000001 	andeq	r0, r0, #1, 0
     634:	e49f3000 	ldr	r3, [pc], #0	; 63c <__code_start__-0x79c4>
     638:	68000001 	stmdavs	r0, {r0}
     63c:	01000002 	tsteq	r0, r2
     640:	00005700 	andeq	r5, r0, r0, lsl #14
     644:	00000000 	andeq	r0, r0, r0
     648:	00010000 	andeq	r0, r1, r0
     64c:	01bc0000 			; <UNDEFINED> instruction: 0x01bc0000
     650:	01e40000 	mvneq	r0, r0
     654:	00020000 	andeq	r0, r2, r0
     658:	01e49f30 	mvneq	r9, r0, lsr pc
     65c:	02680000 	rsbeq	r0, r8, #0, 0
     660:	00010000 	andeq	r0, r1, r0
     664:	00000056 	andeq	r0, r0, r6, asr r0
	...
     674:	0001d400 	andeq	sp, r1, r0, lsl #8
     678:	00020400 	andeq	r0, r2, r0, lsl #8
     67c:	50000100 	andpl	r0, r0, r0, lsl #2
     680:	00000204 	andeq	r0, r0, r4, lsl #4
     684:	00000214 	andeq	r0, r0, r4, lsl r2
     688:	14540001 	ldrbne	r0, [r4], #-1
     68c:	4c000002 	stcmi	0, cr0, [r0], {2}
     690:	01000002 	tsteq	r0, r2
     694:	024c5000 	subeq	r5, ip, #0, 0
     698:	02680000 	rsbeq	r0, r8, #0, 0
     69c:	00010000 	andeq	r0, r1, r0
     6a0:	00000054 	andeq	r0, r0, r4, asr r0
	...
     6ac:	78000000 	stmdavc	r0, {}	; <UNPREDICTABLE>
     6b0:	88000005 	stmdahi	r0, {r0, r2}
     6b4:	01000005 	tsteq	r0, r5
     6b8:	05885000 	streq	r5, [r8]
     6bc:	058b0000 	streq	r0, [fp]
     6c0:	00010000 	andeq	r0, r1, r0
     6c4:	00058b51 	andeq	r8, r5, r1, asr fp
     6c8:	0005bc00 	andeq	fp, r5, r0, lsl #24
     6cc:	54000100 	strpl	r0, [r0], #-256	; 0xffffff00
	...
     6dc:	000004f4 	strdeq	r0, [r0], -r4
     6e0:	00000500 	andeq	r0, r0, r0, lsl #10
     6e4:	00500001 	subseq	r0, r0, r1
     6e8:	24000005 	strcs	r0, [r0], #-5
     6ec:	01000005 	tsteq	r0, r5
     6f0:	00005400 	andeq	r5, r0, r0, lsl #8
	...
     6fc:	03d40000 	bicseq	r0, r4, #0, 0
     700:	03ef0000 	mvneq	r0, #0, 0
     704:	00010000 	andeq	r0, r1, r0
     708:	0003f050 	andeq	pc, r3, r0, asr r0	; <UNPREDICTABLE>
     70c:	0003f800 	andeq	pc, r3, r0, lsl #16
     710:	50000100 	andpl	r0, r0, r0, lsl #2
	...
     720:	0000003c 	andeq	r0, r0, ip, lsr r0
     724:	00000048 	andeq	r0, r0, r8, asr #32
     728:	48500001 	ldmdami	r0, {r0}^
     72c:	b8000000 	stmdalt	r0, {}	; <UNPREDICTABLE>
     730:	01000001 	tsteq	r0, r1
     734:	00005600 	andeq	r5, r0, r0, lsl #12
     738:	00000000 	andeq	r0, r0, r0
     73c:	00010000 	andeq	r0, r1, r0
     740:	00440000 	subeq	r0, r4, r0
     744:	006c0000 	rsbeq	r0, ip, r0
     748:	00020000 	andeq	r0, r2, r0
     74c:	006c9f30 	rsbeq	r9, ip, r0, lsr pc
     750:	01b80000 			; <UNDEFINED> instruction: 0x01b80000
     754:	00010000 	andeq	r0, r1, r0
     758:	00000055 	andeq	r0, r0, r5, asr r0
     75c:	00000000 	andeq	r0, r0, r0
     760:	00000100 	andeq	r0, r0, r0, lsl #2
     764:	00004400 	andeq	r4, r0, r0, lsl #8
     768:	00006c00 	andeq	r6, r0, r0, lsl #24
     76c:	30000200 	andcc	r0, r0, r0, lsl #4
     770:	00006c9f 	muleq	r0, pc, ip	; <UNPREDICTABLE>
     774:	0001b800 	andeq	fp, r1, r0, lsl #16
     778:	58000100 	stmdapl	r0, {r8}
	...
     784:	00000001 	andeq	r0, r0, r1
     788:	00000044 	andeq	r0, r0, r4, asr #32
     78c:	0000006c 	andeq	r0, r0, ip, rrx
     790:	9f300002 	svcls	0x00300002
     794:	0000006c 	andeq	r0, r0, ip, rrx
     798:	000001b8 			; <UNDEFINED> instruction: 0x000001b8
     79c:	00570001 	subseq	r0, r7, r1
	...
     7b4:	5c000000 	stcpl	0, cr0, [r0], {-0}
     7b8:	70000000 	andvc	r0, r0, r0
     7bc:	01000000 	mrseq	r0, (UNDEF: 0)
     7c0:	00705000 	rsbseq	r5, r0, r0
     7c4:	00b00000 	adcseq	r0, r0, r0
     7c8:	00010000 	andeq	r0, r1, r0
     7cc:	0000b054 	andeq	fp, r0, r4, asr r0
     7d0:	0000b400 	andeq	fp, r0, r0, lsl #8
     7d4:	50000100 	andpl	r0, r0, r0, lsl #2
     7d8:	000000b4 	strheq	r0, [r0], -r4
     7dc:	00000118 	andeq	r0, r0, r8, lsl r1
     7e0:	18540001 	ldmdane	r4, {r0}^
     7e4:	4c000001 	stcmi	0, cr0, [r0], {1}
     7e8:	01000001 	tsteq	r0, r1
     7ec:	014c5000 	mrseq	r5, (UNDEF: 76)
     7f0:	01500000 	cmpeq	r0, r0
     7f4:	00010000 	andeq	r0, r1, r0
     7f8:	00015054 	andeq	r5, r1, r4, asr r0
     7fc:	00015800 	andeq	r5, r1, r0, lsl #16
     800:	50000100 	andpl	r0, r0, r0, lsl #2
     804:	00000158 	andeq	r0, r0, r8, asr r1
     808:	000001b8 			; <UNDEFINED> instruction: 0x000001b8
     80c:	00540001 	subseq	r0, r4, r1
	...
     81c:	6c000000 	stcvs	0, cr0, [r0], {-0}
     820:	8c000000 	stchi	0, cr0, [r0], {-0}
     824:	06000000 	streq	r0, [r0], -r0
     828:	08007300 	stmdaeq	r0, {r8, r9, ip, sp, lr}
     82c:	b09f1aff 			; <UNDEFINED> instruction: 0xb09f1aff
     830:	c8000000 	stmdagt	r0, {}	; <UNPREDICTABLE>
     834:	06000000 	streq	r0, [r0], -r0
     838:	08007300 	stmdaeq	r0, {r8, r9, ip, sp, lr}
     83c:	e49f1aff 	ldr	r1, [pc], #2815	; 844 <__code_start__-0x77bc>
     840:	e8000000 	stmda	r0, {}	; <UNPREDICTABLE>
     844:	06000000 	streq	r0, [r0], -r0
     848:	08007300 	stmdaeq	r0, {r8, r9, ip, sp, lr}
     84c:	349f1aff 	ldrcc	r1, [pc], #2815	; 854 <__code_start__-0x77ac>
     850:	50000001 	andpl	r0, r0, r1
     854:	06000001 	streq	r0, [r0], -r1
     858:	08007300 	stmdaeq	r0, {r8, r9, ip, sp, lr}
     85c:	009f1aff 			; <UNDEFINED> instruction: 0x009f1aff
	...
     86c:	00007000 	andeq	r7, r0, r0
     870:	0000a400 	andeq	sl, r0, r0, lsl #8
     874:	50000100 	andpl	r0, r0, r0, lsl #2
     878:	000000b8 	strheq	r0, [r0], -r8
     87c:	000000d0 	ldrdeq	r0, [r0], -r0	; <UNPREDICTABLE>
     880:	e4500001 	ldrb	r0, [r0], #-1
     884:	f0000000 			; <UNDEFINED> instruction: 0xf0000000
     888:	01000000 	mrseq	r0, (UNDEF: 0)
     88c:	00005000 	andeq	r5, r0, r0
	...
     8a4:	00000290 	muleq	r0, r0, r2
     8a8:	000002d8 	ldrdeq	r0, [r0], -r8
     8ac:	d8500001 	ldmdale	r0, {r0}^
     8b0:	e0000002 	and	r0, r0, r2
     8b4:	04000002 	streq	r0, [r0], #-2
     8b8:	5001f300 	andpl	pc, r1, r0, lsl #6
     8bc:	0002e09f 	muleq	r2, pc, r0	; <UNPREDICTABLE>
     8c0:	0002f800 	andeq	pc, r2, r0, lsl #16
     8c4:	50000100 	andpl	r0, r0, r0, lsl #2
     8c8:	000002f8 	strdeq	r0, [r0], -r8
     8cc:	00000300 	andeq	r0, r0, r0, lsl #6
     8d0:	00560001 	subseq	r0, r6, r1
     8d4:	18000003 	stmdane	r0, {r0, r1}
     8d8:	01000003 	tsteq	r0, r3
     8dc:	03185000 	tsteq	r8, #0, 0
     8e0:	03b00000 	movseq	r0, #0, 0
     8e4:	00010000 	andeq	r0, r1, r0
     8e8:	0003b056 	andeq	fp, r3, r6, asr r0
     8ec:	0003c800 	andeq	ip, r3, r0, lsl #16
     8f0:	f3000400 	vshl.u8	d0, d0, d0
     8f4:	009f5001 	addseq	r5, pc, r1
	...
     90c:	90000000 	andls	r0, r0, r0
     910:	b8000002 	stmdalt	r0, {r1}
     914:	01000002 	tsteq	r0, r2
     918:	02b85100 	adcseq	r5, r8, #0
     91c:	02c00000 	sbceq	r0, r0, #0, 0
     920:	00040000 	andeq	r0, r4, r0
     924:	9f5101f3 	svcls	0x005101f3
     928:	000002c0 	andeq	r0, r0, r0, asr #5
     92c:	000002d4 	ldrdeq	r0, [r0], -r4
     930:	d4510001 	ldrble	r0, [r1], #-1
     934:	e0000002 	and	r0, r0, r2
     938:	04000002 	streq	r0, [r0], #-2
     93c:	5101f300 	mrspl	pc, SP_irq	; <UNPREDICTABLE>
     940:	0002e09f 	muleq	r2, pc, r0	; <UNPREDICTABLE>
     944:	0002f400 	andeq	pc, r2, r0, lsl #8
     948:	51000100 	mrspl	r0, (UNDEF: 16)
     94c:	000002f4 	strdeq	r0, [r0], -r4
     950:	00000300 	andeq	r0, r0, r0, lsl #6
     954:	01f30004 	mvnseq	r0, r4
     958:	03009f51 	movweq	r9, #3921	; 0xf51
     95c:	03140000 	tsteq	r4, #0, 0
     960:	00010000 	andeq	r0, r1, r0
     964:	00031451 	andeq	r1, r3, r1, asr r4
     968:	0003c800 	andeq	ip, r3, r0, lsl #16
     96c:	f3000400 	vshl.u8	d0, d0, d0
     970:	009f5101 	addseq	r5, pc, r1, lsl #2
	...
     980:	0002bc00 	andeq	fp, r2, r0, lsl #24
     984:	0002c000 	andeq	ip, r2, r0
     988:	55000100 	strpl	r0, [r0, #-256]	; 0xffffff00
     98c:	00000320 	andeq	r0, r0, r0, lsr #6
     990:	000003b0 			; <UNDEFINED> instruction: 0x000003b0
     994:	b0550001 	subslt	r0, r5, r1
     998:	c8000003 	stmdagt	r0, {r0, r1}
     99c:	0a000003 	beq	9b0 <__code_start__-0x7650>
     9a0:	5101f300 	mrspl	pc, SP_irq	; <UNPREDICTABLE>
     9a4:	1c5001f3 	ldfnee	f0, [r0], {243}	; 0xf3
     9a8:	009f2632 	addseq	r2, pc, r2, lsr r6	; <UNPREDICTABLE>
     9ac:	00000000 	andeq	r0, r0, r0
     9b0:	02000000 	andeq	r0, r0, #0, 0
     9b4:	bc000000 	stclt	0, cr0, [r0], {-0}
     9b8:	c0000002 	andgt	r0, r0, r2
     9bc:	02000002 	andeq	r0, r0, #2, 0
     9c0:	209f3000 	addscs	r3, pc, r0
     9c4:	b0000003 	andlt	r0, r0, r3
     9c8:	01000003 	tsteq	r0, r3
     9cc:	00005400 	andeq	r5, r0, r0, lsl #8
	...
     9dc:	00000320 	andeq	r0, r0, r0, lsr #6
     9e0:	00000337 	andeq	r0, r0, r7, lsr r3
     9e4:	50530001 	subspl	r0, r3, r1
     9e8:	70000003 	andvc	r0, r0, r3
     9ec:	01000003 	tsteq	r0, r3
     9f0:	03705000 	cmneq	r0, #0, 0
     9f4:	03a80000 			; <UNDEFINED> instruction: 0x03a80000
     9f8:	00010000 	andeq	r0, r1, r0
     9fc:	00000053 	andeq	r0, r0, r3, asr r0
     a00:	00000000 	andeq	r0, r0, r0
     a04:	2c000100 	stfcss	f0, [r0], {-0}
     a08:	37000003 	strcc	r0, [r0, -r3]
     a0c:	01000003 	tsteq	r0, r3
     a10:	00005000 	andeq	r5, r0, r0
	...
     a1c:	03300000 	teqeq	r0, #0, 0
     a20:	03340000 	teqeq	r4, #0, 0
     a24:	00060000 	andeq	r0, r6, r0
     a28:	00710070 	rsbseq	r0, r1, r0, ror r0
     a2c:	03349f22 	teqeq	r4, #136	; 0x88
     a30:	03370000 	teqeq	r7, #0, 0
     a34:	00010000 	andeq	r0, r1, r0
     a38:	00000051 	andeq	r0, r0, r1, asr r0
	...
     a44:	00026800 	andeq	r6, r2, r0, lsl #16
     a48:	00027300 	andeq	r7, r2, r0, lsl #6
     a4c:	50000100 	andpl	r0, r0, r0, lsl #2
     a50:	00000273 	andeq	r0, r0, r3, ror r2
     a54:	00000290 	muleq	r0, r0, r2
     a58:	00540001 	subseq	r0, r4, r1
     a5c:	00000000 	andeq	r0, r0, r0
     a60:	01000000 	mrseq	r0, (UNDEF: 0)
     a64:	70000000 	andvc	r0, r0, r0
     a68:	73000002 	movwvc	r0, #2
     a6c:	01000002 	tsteq	r0, r2
     a70:	02735000 	rsbseq	r5, r3, #0, 0
     a74:	02900000 	addseq	r0, r0, #0, 0
     a78:	00010000 	andeq	r0, r1, r0
     a7c:	00000054 	andeq	r0, r0, r4, asr r0
	...
     a94:	00002400 	andeq	r2, r0, r0, lsl #8
     a98:	50000100 	andpl	r0, r0, r0, lsl #2
     a9c:	00000024 	andeq	r0, r0, r4, lsr #32
     aa0:	00000028 	andeq	r0, r0, r8, lsr #32
     aa4:	01f30004 	mvnseq	r0, r4
     aa8:	00289f50 	eoreq	r9, r8, r0, asr pc
     aac:	002c0000 	eoreq	r0, ip, r0
     ab0:	00010000 	andeq	r0, r1, r0
     ab4:	00002c50 	andeq	r2, r0, r0, asr ip
     ab8:	00003000 	andeq	r3, r0, r0
     abc:	f3000400 	vshl.u8	d0, d0, d0
     ac0:	309f5001 	addscc	r5, pc, r1
     ac4:	34000000 	strcc	r0, [r0], #-0
     ac8:	01000000 	mrseq	r0, (UNDEF: 0)
     acc:	00345000 	eorseq	r5, r4, r0
     ad0:	003c0000 	eorseq	r0, ip, r0
     ad4:	00040000 	andeq	r0, r4, r0
     ad8:	9f5001f3 	svcls	0x005001f3
	...
     ae8:	00000458 	andeq	r0, r0, r8, asr r4
     aec:	00000468 	andeq	r0, r0, r8, ror #8
     af0:	68500001 	ldmdavs	r0, {r0}^
     af4:	f4000004 	vst4.8	{d0-d3}, [r0], r4
     af8:	01000004 	tsteq	r0, r4
     afc:	00005400 	andeq	r5, r0, r0, lsl #8
	...
     b0c:	00080000 	andeq	r0, r8, r0
     b10:	00780000 	rsbseq	r0, r8, r0
     b14:	00010000 	andeq	r0, r1, r0
     b18:	00007851 	andeq	r7, r0, r1, asr r8
     b1c:	00008400 	andeq	r8, r0, r0, lsl #8
     b20:	70000300 	andvc	r0, r0, r0, lsl #6
     b24:	00849f78 	addeq	r9, r4, r8, ror pc
     b28:	00a40000 	adceq	r0, r4, r0
     b2c:	00010000 	andeq	r0, r1, r0
     b30:	0000a451 	andeq	sl, r0, r1, asr r4
     b34:	0000bc00 	andeq	fp, r0, r0, lsl #24
     b38:	70000300 	andvc	r0, r0, r0, lsl #6
     b3c:	00009f78 	andeq	r9, r0, r8, ror pc
	...
     b48:	00100000 	andseq	r0, r0, r0
     b4c:	00480000 	subeq	r0, r8, r0
     b50:	00010000 	andeq	r0, r1, r0
     b54:	00004c53 	andeq	r4, r0, r3, asr ip
     b58:	0000bc00 	andeq	fp, r0, r0, lsl #24
     b5c:	53000100 	movwpl	r0, #256	; 0x100
	...
     b70:	00000100 	andeq	r0, r0, r0, lsl #2
     b74:	00000124 	andeq	r0, r0, r4, lsr #2
     b78:	24500001 	ldrbcs	r0, [r0], #-1
     b7c:	28000001 	stmdacs	r0, {r0}
     b80:	04000001 	streq	r0, [r0], #-1
     b84:	5001f300 	andpl	pc, r1, r0, lsl #6
     b88:	0001289f 	muleq	r1, pc, r8	; <UNPREDICTABLE>
     b8c:	00014000 	andeq	r4, r1, r0
     b90:	50000100 	andpl	r0, r0, r0, lsl #2
     b94:	00000140 	andeq	r0, r0, r0, asr #2
     b98:	000001ac 	andeq	r0, r0, ip, lsr #3
     b9c:	01f30004 	mvnseq	r0, r4
     ba0:	00009f50 	andeq	r9, r0, r0, asr pc
	...
     bb0:	00010100 	andeq	r0, r1, r0, lsl #2
     bb4:	00000000 	andeq	r0, r0, r0
     bb8:	00000124 	andeq	r0, r0, r4, lsr #2
     bbc:	00000128 	andeq	r0, r0, r8, lsr #2
     bc0:	40500001 	subsmi	r0, r0, r1
     bc4:	60000001 	andvs	r0, r0, r1
     bc8:	01000001 	tsteq	r0, r1
     bcc:	01605000 	cmneq	r0, r0
     bd0:	01640000 	cmneq	r4, r0
     bd4:	00030000 	andeq	r0, r3, r0
     bd8:	649f7870 	ldrvs	r7, [pc], #2160	; be0 <__code_start__-0x7420>
     bdc:	70000001 	andvc	r0, r0, r1
     be0:	01000001 	tsteq	r0, r1
     be4:	01705000 	cmneq	r0, r0
     be8:	01780000 	cmneq	r8, r0
     bec:	00020000 	andeq	r0, r2, r0
     bf0:	01780070 	cmneq	r8, r0, ror r0
     bf4:	01980000 	orrseq	r0, r8, r0
     bf8:	00010000 	andeq	r0, r1, r0
     bfc:	00019c50 	andeq	r9, r1, r0, asr ip
     c00:	0001ac00 	andeq	sl, r1, r0, lsl #24
     c04:	50000100 	andpl	r0, r0, r0, lsl #2
	...
     c10:	00010100 	andeq	r0, r1, r0, lsl #2
     c14:	00010000 	andeq	r0, r1, r0
     c18:	01180000 	tsteq	r8, r0
     c1c:	01280000 			; <UNDEFINED> instruction: 0x01280000
     c20:	00010000 	andeq	r0, r1, r0
     c24:	00012852 	andeq	r2, r1, r2, asr r8
     c28:	00014000 	andeq	r4, r1, r0
     c2c:	03000600 	movweq	r0, #1536	; 0x600
     c30:	0000a9f8 	strdeq	sl, [r0], -r8
     c34:	0001409f 	muleq	r1, pc, r0	; <UNPREDICTABLE>
     c38:	00017000 	andeq	r7, r1, r0
     c3c:	52000100 	andpl	r0, r0, #0
     c40:	00000170 	andeq	r0, r0, r0, ror r1
     c44:	00000178 	andeq	r0, r0, r8, ror r1
     c48:	78500001 	ldmdavc	r0, {r0}^
     c4c:	9b000001 	blls	c58 <__code_start__-0x73a8>
     c50:	01000001 	tsteq	r0, r1
     c54:	00005200 	andeq	r5, r0, r0, lsl #4
	...
     c60:	00000110 	andeq	r0, r0, r0, lsl r1
     c64:	000001ac 	andeq	r0, r0, ip, lsr #3
     c68:	00540001 	subseq	r0, r4, r1
	...
     c74:	bc000000 	stclt	0, cr0, [r0], {-0}
     c78:	cc000000 	stcgt	0, cr0, [r0], {-0}
     c7c:	01000000 	mrseq	r0, (UNDEF: 0)
     c80:	00cc5000 	sbceq	r5, ip, r0
     c84:	01000000 	mrseq	r0, (UNDEF: 0)
     c88:	00010000 	andeq	r0, r1, r0
     c8c:	00000054 	andeq	r0, r0, r4, asr r0
	...
     c98:	d4000000 	strle	r0, [r0], #-0
     c9c:	e4000000 	str	r0, [r0], #-0
     ca0:	01000000 	mrseq	r0, (UNDEF: 0)
     ca4:	00e45000 	rsceq	r5, r4, r0
     ca8:	00e70000 	rsceq	r0, r7, r0
     cac:	00030000 	andeq	r0, r3, r0
     cb0:	f49f7870 			; <UNDEFINED> instruction: 0xf49f7870
     cb4:	f8000000 			; <UNDEFINED> instruction: 0xf8000000
     cb8:	01000000 	mrseq	r0, (UNDEF: 0)
     cbc:	00005000 	andeq	r5, r0, r0
     cc0:	00000000 	andeq	r0, r0, r0
     cc4:	00010000 	andeq	r0, r1, r0
     cc8:	00dc0000 	sbcseq	r0, ip, r0
     ccc:	00e40000 	rsceq	r0, r4, r0
     cd0:	00010000 	andeq	r0, r1, r0
     cd4:	0000e450 	andeq	lr, r0, r0, asr r4
     cd8:	0000e700 	andeq	lr, r0, r0, lsl #14
     cdc:	70000300 	andvc	r0, r0, r0, lsl #6
     ce0:	00009f78 	andeq	r9, r0, r8, ror pc
	...
     cf0:	000c0000 	andeq	r0, ip, r0
     cf4:	00010000 	andeq	r0, r1, r0
     cf8:	00000c50 	andeq	r0, r0, r0, asr ip
     cfc:	00003400 	andeq	r3, r0, r0, lsl #8
     d00:	5e000100 	adfpls	f0, f0, f0
	...
     d0c:	00000001 	andeq	r0, r0, r1
     d10:	00000008 	andeq	r0, r0, r8
     d14:	0000000c 	andeq	r0, r0, ip
     d18:	0c500001 	mrrceq	0, 0, r0, r0, cr1	; <UNPREDICTABLE>
     d1c:	34000000 	strcc	r0, [r0], #-0
     d20:	01000000 	mrseq	r0, (UNDEF: 0)
     d24:	00005e00 	andeq	r5, r0, r0, lsl #28
     d28:	00000000 	andeq	r0, r0, r0
     d2c:	00010000 	andeq	r0, r1, r0
     d30:	00000008 	andeq	r0, r0, r8
     d34:	00000034 	andeq	r0, r0, r4, lsr r0
     d38:	00510001 	subseq	r0, r1, r1
     d3c:	00000000 	andeq	r0, r0, r0
     d40:	03000000 	movweq	r0, #0
     d44:	08000000 	stmdaeq	r0, {}	; <UNPREDICTABLE>
     d48:	0c000000 	stceq	0, cr0, [r0], {-0}
     d4c:	02000000 	andeq	r0, r0, #0, 0
     d50:	0c9f3000 	ldceq	0, cr3, [pc], {0}
     d54:	34000000 	strcc	r0, [r0], #-0
     d58:	01000000 	mrseq	r0, (UNDEF: 0)
     d5c:	00005300 	andeq	r5, r0, r0, lsl #6
	...
     d68:	001c0000 	andseq	r0, ip, r0
     d6c:	00200000 	eoreq	r0, r0, r0
     d70:	00060000 	andeq	r0, r6, r0
     d74:	0070007c 	rsbseq	r0, r0, ip, ror r0
     d78:	00209f1c 	eoreq	r9, r0, ip, lsl pc
     d7c:	002c0000 	eoreq	r0, ip, r0
     d80:	00010000 	andeq	r0, r1, r0
     d84:	00000050 	andeq	r0, r0, r0, asr r0
	...
     d94:	1c000000 	stcne	0, cr0, [r0], {-0}
     d98:	01000000 	mrseq	r0, (UNDEF: 0)
     d9c:	001c5200 	andseq	r5, ip, r0, lsl #4
     da0:	00380000 	eorseq	r0, r8, r0
     da4:	00040000 	andeq	r0, r4, r0
     da8:	9f5201f3 	svcls	0x005201f3
     dac:	00000038 	andeq	r0, r0, r8, lsr r0
     db0:	00000060 	andeq	r0, r0, r0, rrx
     db4:	00520001 	subseq	r0, r2, r1
	...
     dc0:	00001c00 	andeq	r1, r0, r0, lsl #24
     dc4:	00003800 	andeq	r3, r0, r0, lsl #16
     dc8:	52000100 	andpl	r0, r0, #0
	...
     dd4:	001c0001 	andseq	r0, ip, r1
     dd8:	00380000 	eorseq	r0, r8, r0
     ddc:	00010000 	andeq	r0, r1, r0
     de0:	00000050 	andeq	r0, r0, r0, asr r0
     de4:	00000000 	andeq	r0, r0, r0
     de8:	1c000200 	sfmne	f0, 4, [r0], {-0}
     dec:	38000000 	stmdacc	r0, {}	; <UNPREDICTABLE>
     df0:	01000000 	mrseq	r0, (UNDEF: 0)
     df4:	00005100 	andeq	r5, r0, r0, lsl #2
     df8:	00000000 	andeq	r0, r0, r0
     dfc:	00040000 	andeq	r0, r4, r0
     e00:	001c0000 	andseq	r0, ip, r0
     e04:	00200000 	eoreq	r0, r0, r0
     e08:	00020000 	andeq	r0, r2, r0
     e0c:	00209f30 	eoreq	r9, r0, r0, lsr pc
     e10:	00380000 	eorseq	r0, r8, r0
     e14:	00010000 	andeq	r0, r1, r0
     e18:	00000053 	andeq	r0, r0, r3, asr r0
     e1c:	00000000 	andeq	r0, r0, r0
     e20:	38000000 	stmdacc	r0, {}	; <UNPREDICTABLE>
     e24:	50000000 	andpl	r0, r0, r0
     e28:	01000000 	mrseq	r0, (UNDEF: 0)
     e2c:	00005300 	andeq	r5, r0, r0, lsl #6
	...
     e3c:	00040000 	andeq	r0, r4, r0
     e40:	00010000 	andeq	r0, r1, r0
     e44:	00000452 	andeq	r0, r0, r2, asr r4
     e48:	00001800 	andeq	r1, r0, r0, lsl #16
     e4c:	f3000400 	vshl.u8	d0, d0, d0
     e50:	009f5201 	addseq	r5, pc, r1, lsl #4
     e54:	00000000 	andeq	r0, r0, r0
     e58:	02000000 	andeq	r0, r0, #0, 0
     e5c:	01010000 	mrseq	r0, (UNDEF: 1)
     e60:	00000000 	andeq	r0, r0, r0
     e64:	08000000 	stmdaeq	r0, {}	; <UNPREDICTABLE>
     e68:	01000000 	mrseq	r0, (UNDEF: 0)
     e6c:	00085000 	andeq	r5, r8, r0
     e70:	00100000 	andseq	r0, r0, r0
     e74:	00010000 	andeq	r0, r1, r0
     e78:	00001053 	andeq	r1, r0, r3, asr r0
     e7c:	00001400 	andeq	r1, r0, r0, lsl #8
     e80:	73000300 	movwvc	r0, #768	; 0x300
     e84:	00149f01 	andseq	r9, r4, r1, lsl #30
     e88:	00180000 	andseq	r0, r8, r0
     e8c:	00010000 	andeq	r0, r1, r0
     e90:	00000053 	andeq	r0, r0, r3, asr r0
     e94:	00000000 	andeq	r0, r0, r0
     e98:	04000000 	streq	r0, [r0], #-0
     e9c:	18000000 	stmdane	r0, {}	; <UNPREDICTABLE>
     ea0:	01000000 	mrseq	r0, (UNDEF: 0)
     ea4:	00005200 	andeq	r5, r0, r0, lsl #4
	...
     eb4:	0000002c 	andeq	r0, r0, ip, lsr #32
     eb8:	00000038 	andeq	r0, r0, r8, lsr r0
     ebc:	38500001 	ldmdacc	r0, {r0}^
     ec0:	48000000 	stmdami	r0, {}	; <UNPREDICTABLE>
     ec4:	01000000 	mrseq	r0, (UNDEF: 0)
     ec8:	00485400 	subeq	r5, r8, r0, lsl #8
     ecc:	00580000 	subseq	r0, r8, r0
     ed0:	00010000 	andeq	r0, r1, r0
     ed4:	00000050 	andeq	r0, r0, r0, asr r0
     ed8:	00000000 	andeq	r0, r0, r0
     edc:	01010000 	mrseq	r0, (UNDEF: 1)
     ee0:	00000000 	andeq	r0, r0, r0
     ee4:	00000800 	andeq	r0, r0, r0, lsl #16
     ee8:	50000100 	andpl	r0, r0, r0, lsl #2
     eec:	00000008 	andeq	r0, r0, r8
     ef0:	00000034 	andeq	r0, r0, r4, lsr r0
     ef4:	00540001 	subseq	r0, r4, r1
	...
     f04:	00028800 	andeq	r8, r2, r0, lsl #16
     f08:	0002b800 	andeq	fp, r2, r0, lsl #16
     f0c:	50000100 	andpl	r0, r0, r0, lsl #2
     f10:	000002b8 			; <UNDEFINED> instruction: 0x000002b8
     f14:	00000704 	andeq	r0, r0, r4, lsl #14
     f18:	04590001 	ldrbeq	r0, [r9], #-1
     f1c:	40000007 	andmi	r0, r0, r7
     f20:	04000007 	streq	r0, [r0], #-7
     f24:	5001f300 	andpl	pc, r1, r0, lsl #6
     f28:	0000009f 	muleq	r0, pc, r0	; <UNPREDICTABLE>
	...
     f34:	88000000 	stmdahi	r0, {}	; <UNPREDICTABLE>
     f38:	a0000002 	andge	r0, r0, r2
     f3c:	01000002 	tsteq	r0, r2
     f40:	02a05100 	adceq	r5, r0, #0
     f44:	02b80000 	adcseq	r0, r8, #0, 0
     f48:	00030000 	andeq	r0, r3, r0
     f4c:	b89f0171 	ldmlt	pc, {r0, r4, r5, r6, r8}	; <UNPREDICTABLE>
     f50:	40000002 	andmi	r0, r0, r2
     f54:	04000007 	streq	r0, [r0], #-7
     f58:	5101f300 	mrspl	pc, SP_irq	; <UNPREDICTABLE>
     f5c:	0000009f 	muleq	r0, pc, r0	; <UNPREDICTABLE>
	...
     f70:	00028800 	andeq	r8, r2, r0, lsl #16
     f74:	0002b800 	andeq	fp, r2, r0, lsl #16
     f78:	52000100 	andpl	r0, r0, #0
     f7c:	000002b8 			; <UNDEFINED> instruction: 0x000002b8
     f80:	000003ec 	andeq	r0, r0, ip, ror #7
     f84:	ec560001 	mrrc	0, 0, r0, r6, cr1
     f88:	b8000003 	stmdalt	r0, {r0, r1}
     f8c:	01000004 	tsteq	r0, r4
     f90:	04b85b00 	ldrteq	r5, [r8], #2816	; 0xb00
     f94:	04d80000 	ldrbeq	r0, [r8], #0
     f98:	00010000 	andeq	r0, r1, r0
     f9c:	0004d856 	andeq	sp, r4, r6, asr r8
     fa0:	00055c00 	andeq	r5, r5, r0, lsl #24
     fa4:	5b000100 	blpl	13ac <__code_start__-0x6c54>
     fa8:	0000055c 	andeq	r0, r0, ip, asr r5
     fac:	00000704 	andeq	r0, r0, r4, lsl #14
     fb0:	00560001 	subseq	r0, r6, r1
     fb4:	00000000 	andeq	r0, r0, r0
     fb8:	01000000 	mrseq	r0, (UNDEF: 0)
     fbc:	00000000 	andeq	r0, r0, r0
     fc0:	01010000 	mrseq	r0, (UNDEF: 1)
     fc4:	00000000 	andeq	r0, r0, r0
     fc8:	02020000 	andeq	r0, r2, #0, 0
     fcc:	9c000000 	stcls	0, cr0, [r0], {-0}
     fd0:	b8000002 	stmdalt	r0, {r1}
     fd4:	01000002 	tsteq	r0, r2
     fd8:	02b85000 	adcseq	r5, r8, #0, 0
     fdc:	02bc0000 	adcseq	r0, ip, #0, 0
     fe0:	00010000 	andeq	r0, r1, r0
     fe4:	0002bc54 	andeq	fp, r2, r4, asr ip
     fe8:	0002c000 	andeq	ip, r2, r0
     fec:	74000300 	strvc	r0, [r0], #-768	; 0xfffffd00
     ff0:	02c09f01 	sbceq	r9, r0, #1, 30
     ff4:	02e40000 	rsceq	r0, r4, #0, 0
     ff8:	00010000 	andeq	r0, r1, r0
     ffc:	0002e454 	andeq	lr, r2, r4, asr r4
    1000:	0002e800 	andeq	lr, r2, r0, lsl #16
    1004:	74000300 	strvc	r0, [r0], #-768	; 0xfffffd00
    1008:	02e89f01 	rsceq	r9, r8, #1, 30
    100c:	06d40000 	ldrbeq	r0, [r4], r0
    1010:	00010000 	andeq	r0, r1, r0
    1014:	0006d454 	andeq	sp, r6, r4, asr r4
    1018:	0006d800 	andeq	sp, r6, r0, lsl #16
    101c:	74000300 	strvc	r0, [r0], #-768	; 0xfffffd00
    1020:	06d89f01 	ldrbeq	r9, [r8], r1, lsl #30
    1024:	06f00000 	ldrbteq	r0, [r0], r0
    1028:	00010000 	andeq	r0, r1, r0
    102c:	0006f054 	andeq	pc, r6, r4, asr r0	; <UNPREDICTABLE>
    1030:	0006f800 	andeq	pc, r6, r0, lsl #16
    1034:	74000300 	strvc	r0, [r0], #-768	; 0xfffffd00
    1038:	06f89f01 	ldrbteq	r9, [r8], r1, lsl #30
    103c:	07040000 	streq	r0, [r4, -r0]
    1040:	00010000 	andeq	r0, r1, r0
    1044:	00000054 	andeq	r0, r0, r4, asr r0
	...
    1050:	0002a400 	andeq	sl, r2, r0, lsl #8
    1054:	00070400 	andeq	r0, r7, r0, lsl #8
    1058:	58000100 	stmdapl	r0, {r8}
    105c:	00000704 	andeq	r0, r0, r4, lsl #14
    1060:	00000740 	andeq	r0, r0, r0, asr #14
    1064:	01f3000a 	mvnseq	r0, sl
    1068:	5001f351 	andpl	pc, r1, r1, asr r3	; <UNPREDICTABLE>
    106c:	9f1c3122 	svcls	0x001c3122
	...
    1078:	00000001 	andeq	r0, r0, r1
    107c:	04080000 	streq	r0, [r8], #-0
    1080:	04740000 	ldrbteq	r0, [r4], #-0
    1084:	00010000 	andeq	r0, r1, r0
    1088:	0004d857 	andeq	sp, r4, r7, asr r8
    108c:	0004fc00 	andeq	pc, r4, r0, lsl #24
    1090:	57000100 	strpl	r0, [r0, -r0, lsl #2]
    1094:	00000540 	andeq	r0, r0, r0, asr #10
    1098:	0000055c 	andeq	r0, r0, ip, asr r5
    109c:	00570001 	subseq	r0, r7, r1
    10a0:	00000000 	andeq	r0, r0, r0
    10a4:	02000000 	andeq	r0, r0, #0, 0
    10a8:	08000000 	stmdaeq	r0, {}	; <UNPREDICTABLE>
    10ac:	b8000004 	stmdalt	r0, {r2}
    10b0:	01000004 	tsteq	r0, r4
    10b4:	04d85a00 	ldrbeq	r5, [r8], #2560	; 0xa00
    10b8:	055c0000 	ldrbeq	r0, [ip, #-0]
    10bc:	00010000 	andeq	r0, r1, r0
    10c0:	0000005a 	andeq	r0, r0, sl, asr r0
    10c4:	00000000 	andeq	r0, r0, r0
    10c8:	00000100 	andeq	r0, r0, r0, lsl #2
    10cc:	0002ac00 	andeq	sl, r2, r0, lsl #24
    10d0:	0002b800 	andeq	fp, r2, r0, lsl #16
    10d4:	52000100 	andpl	r0, r0, #0
    10d8:	000002b8 			; <UNDEFINED> instruction: 0x000002b8
    10dc:	00000740 	andeq	r0, r0, r0, asr #14
    10e0:	c8910003 	ldmgt	r1, {r0, r1}
    10e4:	0000007d 	andeq	r0, r0, sp, ror r0
	...
    10f4:	01010000 	mrseq	r0, (UNDEF: 1)
	...
    1100:	74000000 	strvc	r0, [r0], #-0
    1104:	8c000004 	stchi	0, cr0, [r0], {4}
    1108:	01000004 	tsteq	r0, r4
    110c:	048c5000 	streq	r5, [ip], #0
    1110:	04b80000 	ldrteq	r0, [r8], #0
    1114:	00010000 	andeq	r0, r1, r0
    1118:	0004fc57 	andeq	pc, r4, r7, asr ip	; <UNPREDICTABLE>
    111c:	00051400 	andeq	r1, r5, r0, lsl #8
    1120:	50000100 	andpl	r0, r0, r0, lsl #2
    1124:	00000514 	andeq	r0, r0, r4, lsl r5
    1128:	00000540 	andeq	r0, r0, r0, asr #10
    112c:	a4570001 	ldrbge	r0, [r7], #-1
    1130:	a4000005 	strge	r0, [r0], #-5
    1134:	01000005 	tsteq	r0, r5
    1138:	05a45000 	streq	r5, [r4, #0]!
    113c:	05ac0000 	streq	r0, [ip, #0]!
    1140:	00010000 	andeq	r0, r1, r0
    1144:	0005dc57 	andeq	sp, r5, r7, asr ip
    1148:	0005e000 	andeq	lr, r5, r0
    114c:	50000100 	andpl	r0, r0, r0, lsl #2
    1150:	00000610 	andeq	r0, r0, r0, lsl r6
    1154:	00000614 	andeq	r0, r0, r4, lsl r6
    1158:	44500001 	ldrbmi	r0, [r0], #-1
    115c:	48000006 	stmdami	r0, {r1, r2}
    1160:	01000006 	tsteq	r0, r6
    1164:	068c5000 	streq	r5, [ip], r0
    1168:	06900000 	ldreq	r0, [r0], r0
    116c:	00010000 	andeq	r0, r1, r0
    1170:	0006d050 	andeq	sp, r6, r0, asr r0
    1174:	0006f000 	andeq	pc, r6, r0
    1178:	57000100 	strpl	r0, [r0, -r0, lsl #2]
	...
    1184:	00000002 	andeq	r0, r0, r2
    1188:	02f40000 	rscseq	r0, r4, #0, 0
    118c:	02f80000 	rscseq	r0, r8, #0, 0
    1190:	00020000 	andeq	r0, r2, r0
    1194:	02f89f30 	rscseq	r9, r8, #48, 30	; 0xc0
    1198:	03140000 	tsteq	r4, #0, 0
    119c:	00010000 	andeq	r0, r1, r0
    11a0:	00031c55 	andeq	r1, r3, r5, asr ip
    11a4:	0006f000 	andeq	pc, r6, r0
    11a8:	55000100 	strpl	r0, [r0, #-256]	; 0xffffff00
	...
    11b4:	00000001 	andeq	r0, r0, r1
    11b8:	00000000 	andeq	r0, r0, r0
    11bc:	03b80000 			; <UNDEFINED> instruction: 0x03b80000
    11c0:	04540000 	ldrbeq	r0, [r4], #-0
    11c4:	00010000 	andeq	r0, r1, r0
    11c8:	00045456 	andeq	r5, r4, r6, asr r4
    11cc:	0004b800 	andeq	fp, r4, r0, lsl #16
    11d0:	7b000300 	blvc	1dd8 <__code_start__-0x6228>
    11d4:	04b89f7e 	ldrteq	r9, [r8], #3966	; 0xf7e
    11d8:	04dc0000 	ldrbeq	r0, [ip], #0
    11dc:	00010000 	andeq	r0, r1, r0
    11e0:	0004dc56 	andeq	sp, r4, r6, asr ip
    11e4:	00054000 	andeq	r4, r5, r0
    11e8:	7b000300 	blvc	1df0 <__code_start__-0x6210>
    11ec:	05409f7e 	strbeq	r9, [r0, #-3966]	; 0xfffff082
    11f0:	055c0000 	ldrbeq	r0, [ip, #-0]
    11f4:	00010000 	andeq	r0, r1, r0
    11f8:	00000056 	andeq	r0, r0, r6, asr r0
	...
    1204:	70000000 	andvc	r0, r0, r0
    1208:	94000000 	strls	r0, [r0], #-0
    120c:	01000000 	mrseq	r0, (UNDEF: 0)
    1210:	00945000 	addseq	r5, r4, r0
    1214:	00fc0000 	rscseq	r0, ip, r0
    1218:	00030000 	andeq	r0, r3, r0
    121c:	fc9f0270 	ldc2	2, cr0, [pc], {112}	; 0x70
    1220:	24000000 	strcs	r0, [r0], #-0
    1224:	04000002 	streq	r0, [r0], #-2
    1228:	5001f300 	andpl	pc, r1, r0, lsl #6
    122c:	0000009f 	muleq	r0, pc, r0	; <UNPREDICTABLE>
	...
    1244:	00007000 	andeq	r7, r0, r0
    1248:	0000e000 	andeq	lr, r0, r0
    124c:	51000100 	mrspl	r0, (UNDEF: 16)
    1250:	000000e0 	andeq	r0, r0, r0, ror #1
    1254:	00000154 	andeq	r0, r0, r4, asr r1
    1258:	54550001 	ldrbpl	r0, [r5], #-1
    125c:	58000001 	stmdapl	r0, {r0}
    1260:	01000001 	tsteq	r0, r1
    1264:	01585100 	cmpeq	r8, r0, lsl #2
    1268:	01b00000 	movseq	r0, r0
    126c:	00010000 	andeq	r0, r1, r0
    1270:	0001b055 	andeq	fp, r1, r5, asr r0
    1274:	0001c000 	andeq	ip, r1, r0
    1278:	51000100 	mrspl	r0, (UNDEF: 16)
    127c:	000001c0 	andeq	r0, r0, r0, asr #3
    1280:	000001e4 	andeq	r0, r0, r4, ror #3
    1284:	e4550001 	ldrb	r0, [r5], #-1
    1288:	f8000001 			; <UNDEFINED> instruction: 0xf8000001
    128c:	01000001 	tsteq	r0, r1
    1290:	01f85100 	mvnseq	r5, r0, lsl #2
    1294:	02240000 	eoreq	r0, r4, #0, 0
    1298:	00010000 	andeq	r0, r1, r0
    129c:	00000055 	andeq	r0, r0, r5, asr r0
	...
    12a8:	00007000 	andeq	r7, r0, r0
    12ac:	00008400 	andeq	r8, r0, r0, lsl #8
    12b0:	52000100 	andpl	r0, r0, #0
    12b4:	00000084 	andeq	r0, r0, r4, lsl #1
    12b8:	00000224 	andeq	r0, r0, r4, lsr #4
    12bc:	00540001 	subseq	r0, r4, r1
	...
    12cc:	00000001 	andeq	r0, r0, r1
    12d0:	70000000 	andvc	r0, r0, r0
    12d4:	f4000000 	vst4.8	{d0-d3}, [r0], r0
    12d8:	01000000 	mrseq	r0, (UNDEF: 0)
    12dc:	014c5300 	mrseq	r5, SPSR_mon
    12e0:	01800000 	orreq	r0, r0, r0
    12e4:	00010000 	andeq	r0, r1, r0
    12e8:	00018053 	andeq	r8, r1, r3, asr r0
    12ec:	00018c00 	andeq	r8, r1, r0, lsl #24
    12f0:	f3000400 	vshl.u8	d0, d0, d0
    12f4:	b09f5301 	addslt	r5, pc, r1, lsl #6
    12f8:	e8000001 	stmda	r0, {r0}
    12fc:	01000001 	tsteq	r0, r1
    1300:	01e85300 	mvneq	r5, r0, lsl #6
    1304:	01ff0000 	mvnseq	r0, r0
    1308:	00010000 	andeq	r0, r1, r0
    130c:	0001ff5c 	andeq	pc, r1, ip, asr pc	; <UNPREDICTABLE>
    1310:	00022400 	andeq	r2, r2, r0, lsl #8
    1314:	f3000400 	vshl.u8	d0, d0, d0
    1318:	009f5301 	addseq	r5, pc, r1, lsl #6
	...
    1328:	00007000 	andeq	r7, r0, r0
    132c:	00008c00 	andeq	r8, r0, r0, lsl #24
    1330:	91000200 	mrsls	r0, R8_usr
    1334:	00008c00 	andeq	r8, r0, r0, lsl #24
    1338:	00019300 	andeq	r9, r1, r0, lsl #6
    133c:	52000100 	andpl	r0, r0, #0
    1340:	000001b0 			; <UNDEFINED> instruction: 0x000001b0
    1344:	000001f4 	strdeq	r0, [r0], -r4
    1348:	00520001 	subseq	r0, r2, r1
    134c:	00000000 	andeq	r0, r0, r0
    1350:	01000000 	mrseq	r0, (UNDEF: 0)
    1354:	01010000 	mrseq	r0, (UNDEF: 1)
	...
    1360:	01010101 	tsteq	r1, r1, lsl #2
    1364:	01010000 	mrseq	r0, (UNDEF: 1)
	...
    1370:	8c000000 	stchi	0, cr0, [r0], {-0}
    1374:	fc000000 	stc2	0, cr0, [r0], {-0}
    1378:	04000000 	streq	r0, [r0], #-0
    137c:	7fa09100 	svcvc	0x00a09100
    1380:	0000fc9f 	muleq	r0, pc, ip	; <UNPREDICTABLE>
    1384:	00013c00 	andeq	r3, r1, r0, lsl #24
    1388:	50000100 	andpl	r0, r0, r0, lsl #2
    138c:	0000013c 	andeq	r0, r0, ip, lsr r1
    1390:	00000148 	andeq	r0, r0, r8, asr #2
    1394:	02710003 	rsbseq	r0, r1, #3, 0
    1398:	0001489f 	muleq	r1, pc, r8	; <UNPREDICTABLE>
    139c:	00014c00 	andeq	r4, r1, r0, lsl #24
    13a0:	50000100 	andpl	r0, r0, r0, lsl #2
    13a4:	0000014c 	andeq	r0, r0, ip, asr #2
    13a8:	00000158 	andeq	r0, r0, r8, asr r1
    13ac:	a0910004 	addsge	r0, r1, r4
    13b0:	01589f7f 	cmpeq	r8, pc, ror pc
    13b4:	016c0000 	cmneq	ip, r0
    13b8:	00010000 	andeq	r0, r1, r0
    13bc:	00016c51 	andeq	r6, r1, r1, asr ip
    13c0:	00017800 	andeq	r7, r1, r0, lsl #16
    13c4:	71000300 	mrsvc	r0, LR_irq
    13c8:	01789f7f 	cmneq	r8, pc, ror pc
    13cc:	01840000 	orreq	r0, r4, r0
    13d0:	00030000 	andeq	r0, r3, r0
    13d4:	849f0171 	ldrhi	r0, [pc], #369	; 13dc <__code_start__-0x6c24>
    13d8:	93000001 	movwls	r0, #1
    13dc:	01000001 	tsteq	r0, r1
    13e0:	01b05000 	movseq	r5, r0
    13e4:	01b00000 	movseq	r0, r0
    13e8:	00040000 	andeq	r0, r4, r0
    13ec:	9f7fa091 	svcls	0x007fa091
    13f0:	000001b0 			; <UNDEFINED> instruction: 0x000001b0
    13f4:	000001b8 			; <UNDEFINED> instruction: 0x000001b8
    13f8:	a1910004 	orrsge	r0, r1, r4
    13fc:	01b89f7f 			; <UNDEFINED> instruction: 0x01b89f7f
    1400:	01bc0000 			; <UNDEFINED> instruction: 0x01bc0000
    1404:	00010000 	andeq	r0, r1, r0
    1408:	0001bc50 	andeq	fp, r1, r0, asr ip
    140c:	0001c000 	andeq	ip, r1, r0
    1410:	91000400 	tstls	r0, r0, lsl #8
    1414:	c09f7fa0 	addsgt	r7, pc, r0, lsr #31
    1418:	d4000001 	strle	r0, [r0], #-1
    141c:	01000001 	tsteq	r0, r1
    1420:	01d45000 	bicseq	r5, r4, r0
    1424:	01e40000 	mvneq	r0, r0
    1428:	00030000 	andeq	r0, r3, r0
    142c:	e49f7f70 	ldr	r7, [pc], #3952	; 1434 <__code_start__-0x6bcc>
    1430:	24000001 	strcs	r0, [r0], #-1
    1434:	04000002 	streq	r0, [r0], #-2
    1438:	7fa09100 	svcvc	0x00a09100
    143c:	0000009f 	muleq	r0, pc, r0	; <UNPREDICTABLE>
	...
    1448:	00000101 	andeq	r0, r0, r1, lsl #2
	...
    1458:	00009000 	andeq	r9, r0, r0
    145c:	0000dc00 	andeq	sp, r0, r0, lsl #24
    1460:	5c000100 	stfpls	f0, [r0], {-0}
    1464:	000000dc 	ldrdeq	r0, [r0], -ip
    1468:	000000f4 	strdeq	r0, [r0], -r4
    146c:	f4530001 			; <UNDEFINED> instruction: 0xf4530001
    1470:	4c000000 	stcmi	0, cr0, [r0], {-0}
    1474:	01000001 	tsteq	r0, r1
    1478:	014c5c00 	cmpeq	ip, r0, lsl #24
    147c:	01580000 	cmpeq	r8, r0
    1480:	00010000 	andeq	r0, r1, r0
    1484:	00015853 	andeq	r5, r1, r3, asr r8
    1488:	00017400 	andeq	r7, r1, r0, lsl #8
    148c:	5c000100 	stfpls	f0, [r0], {-0}
    1490:	000001b0 			; <UNDEFINED> instruction: 0x000001b0
    1494:	000001c0 	andeq	r0, r0, r0, asr #3
    1498:	c0530001 	subsgt	r0, r3, r1
    149c:	dc000001 	stcle	0, cr0, [r0], {1}
    14a0:	01000001 	tsteq	r0, r1
    14a4:	01e45c00 	mvneq	r5, r0, lsl #24
    14a8:	01e80000 	mvneq	r0, r0
    14ac:	00010000 	andeq	r0, r1, r0
    14b0:	0001e853 	andeq	lr, r1, r3, asr r8
    14b4:	0001ff00 	andeq	pc, r1, r0, lsl #30
    14b8:	5c000100 	stfpls	f0, [r0], {-0}
    14bc:	000001ff 	strdeq	r0, [r0], -pc	; <UNPREDICTABLE>
    14c0:	00000224 	andeq	r0, r0, r4, lsr #4
    14c4:	01f30004 	mvnseq	r0, r4
    14c8:	00009f53 	andeq	r9, r0, r3, asr pc
    14cc:	00000000 	andeq	r0, r0, r0
    14d0:	01010000 	mrseq	r0, (UNDEF: 1)
    14d4:	00000001 	andeq	r0, r0, r1
    14d8:	00dc0000 	sbcseq	r0, ip, r0
    14dc:	00f00000 	rscseq	r0, r0, r0
    14e0:	00020000 	andeq	r0, r2, r0
    14e4:	00f09f30 	rscseq	r9, r0, r0, lsr pc
    14e8:	00f80000 	rscseq	r0, r8, r0
    14ec:	00020000 	andeq	r0, r2, r0
    14f0:	00fc9f31 	rscseq	r9, ip, r1, lsr pc
    14f4:	014c0000 	mrseq	r0, (UNDEF: 76)
    14f8:	00010000 	andeq	r0, r1, r0
    14fc:	00014c56 	andeq	r4, r1, r6, asr ip
    1500:	00015400 	andeq	r5, r1, r0, lsl #8
    1504:	30000200 	andcc	r0, r0, r0, lsl #4
    1508:	0000009f 	muleq	r0, pc, r0	; <UNPREDICTABLE>
	...
    1514:	00000101 	andeq	r0, r0, r1, lsl #2
    1518:	38000101 	stmdacc	r0, {r0, r8}
    151c:	54000000 	strpl	r0, [r0], #-0
    1520:	01000000 	mrseq	r0, (UNDEF: 0)
    1524:	00545000 	subseq	r5, r4, r0
    1528:	00580000 	subseq	r0, r8, r0
    152c:	00010000 	andeq	r0, r1, r0
    1530:	00005852 	andeq	r5, r0, r2, asr r8
    1534:	00006000 	andeq	r6, r0, r0
    1538:	72000300 	andvc	r0, r0, #0, 6
    153c:	00609f01 	rsbeq	r9, r0, r1, lsl #30
    1540:	00640000 	rsbeq	r0, r4, r0
    1544:	00010000 	andeq	r0, r1, r0
    1548:	00006452 	andeq	r6, r0, r2, asr r4
    154c:	00007000 	andeq	r7, r0, r0
    1550:	72000300 	andvc	r0, r0, #0, 6
    1554:	00009f01 	andeq	r9, r0, r1, lsl #30
	...
    1560:	00380000 	eorseq	r0, r8, r0
    1564:	00500000 	subseq	r0, r0, r0
    1568:	00010000 	andeq	r0, r1, r0
    156c:	00005051 	andeq	r5, r0, r1, asr r0
    1570:	00007000 	andeq	r7, r0, r0
    1574:	f3000400 	vshl.u8	d0, d0, d0
    1578:	009f5101 	addseq	r5, pc, r1, lsl #2
	...
    1588:	38000101 	stmdacc	r0, {r0, r8}
    158c:	50000000 	andpl	r0, r0, r0
    1590:	01000000 	mrseq	r0, (UNDEF: 0)
    1594:	00505200 	subseq	r5, r0, r0, lsl #4
    1598:	005c0000 	subseq	r0, ip, r0
    159c:	00010000 	andeq	r0, r1, r0
    15a0:	00005c51 	andeq	r5, r0, r1, asr ip
    15a4:	00006000 	andeq	r6, r0, r0
    15a8:	71000300 	mrsvc	r0, LR_irq
    15ac:	00609f01 	rsbeq	r9, r0, r1, lsl #30
    15b0:	00700000 	rsbseq	r0, r0, r0
    15b4:	00010000 	andeq	r0, r1, r0
    15b8:	00000051 	andeq	r0, r0, r1, asr r0
	...
    15c4:	00003800 	andeq	r3, r0, r0, lsl #16
    15c8:	00004c00 	andeq	r4, r0, r0, lsl #24
    15cc:	53000100 	movwpl	r0, #256	; 0x100
    15d0:	0000004c 	andeq	r0, r0, ip, asr #32
    15d4:	00000068 	andeq	r0, r0, r8, rrx
    15d8:	00530001 	subseq	r0, r3, r1
	...
    15e8:	40000000 	andmi	r0, r0, r0
    15ec:	48000000 	stmdami	r0, {}	; <UNPREDICTABLE>
    15f0:	01000000 	mrseq	r0, (UNDEF: 0)
    15f4:	00485c00 	subeq	r5, r8, r0, lsl #24
    15f8:	004c0000 	subeq	r0, ip, r0
    15fc:	00080000 	andeq	r0, r8, r0
    1600:	00730072 	rsbseq	r0, r3, r2, ror r0
    1604:	9f01231c 	svcls	0x0001231c
    1608:	0000004c 	andeq	r0, r0, ip, asr #32
    160c:	00000054 	andeq	r0, r0, r4, asr r0
    1610:	00720009 	rsbseq	r0, r2, r9
    1614:	1c5301f3 	ldfnee	f0, [r3], {243}	; 0xf3
    1618:	549f0123 	ldrpl	r0, [pc], #291	; 1620 <__code_start__-0x69e0>
    161c:	70000000 	andvc	r0, r0, r0
    1620:	0a000000 	beq	1628 <__code_start__-0x69d8>
    1624:	5201f300 	andpl	pc, r1, #0, 6
    1628:	1c5301f3 	ldfnee	f0, [r3], {243}	; 0xf3
    162c:	009f0123 	addseq	r0, pc, r3, lsr #2
    1630:	00000000 	andeq	r0, r0, r0
    1634:	01000000 	mrseq	r0, (UNDEF: 0)
    1638:	00004c00 	andeq	r4, r0, r0, lsl #24
    163c:	00007000 	andeq	r7, r0, r0
    1640:	50000100 	andpl	r0, r0, r0, lsl #2
	...
    164c:	00010100 	andeq	r0, r1, r0, lsl #2
    1650:	00140000 	andseq	r0, r4, r0
    1654:	001c0000 	andseq	r0, ip, r0
    1658:	00010000 	andeq	r0, r1, r0
    165c:	00001c50 	andeq	r1, r0, r0, asr ip
    1660:	00002400 	andeq	r2, r0, r0, lsl #8
    1664:	70000300 	andvc	r0, r0, r0, lsl #6
    1668:	00249f01 	eoreq	r9, r4, r1, lsl #30
    166c:	00380000 	eorseq	r0, r8, r0
    1670:	00010000 	andeq	r0, r1, r0
    1674:	00000050 	andeq	r0, r0, r0, asr r0
	...
    1680:	00001400 	andeq	r1, r0, r0, lsl #8
    1684:	00001800 	andeq	r1, r0, r0, lsl #16
    1688:	51000100 	mrspl	r0, (UNDEF: 16)
    168c:	00000018 	andeq	r0, r0, r8, lsl r0
    1690:	00000038 	andeq	r0, r0, r8, lsr r0
    1694:	01f30004 	mvnseq	r0, r4
    1698:	00009f51 	andeq	r9, r0, r1, asr pc
	...
    16a4:	00000018 	andeq	r0, r0, r8, lsl r0
    16a8:	00000038 	andeq	r0, r0, r8, lsr r0
    16ac:	00510001 	subseq	r0, r1, r1
	...
    16c0:	00000400 	andeq	r0, r0, r0, lsl #8
    16c4:	50000100 	andpl	r0, r0, r0, lsl #2
    16c8:	00000004 	andeq	r0, r0, r4
    16cc:	0000000c 	andeq	r0, r0, ip
    16d0:	30700003 	rsbscc	r0, r0, r3
    16d4:	00000c9f 	muleq	r0, pc, ip	; <UNPREDICTABLE>
    16d8:	00001400 	andeq	r1, r0, r0, lsl #8
    16dc:	f3000400 	vshl.u8	d0, d0, d0
    16e0:	009f5001 	addseq	r5, pc, r1
	...
    16ec:	24000000 	strcs	r0, [r0], #-0
    16f0:	68000002 	stmdavs	r0, {r1}
    16f4:	01000002 	tsteq	r0, r2
    16f8:	02685000 	rsbeq	r5, r8, #0, 0
    16fc:	02880000 	addeq	r0, r8, #0, 0
    1700:	00040000 	andeq	r0, r4, r0
    1704:	9f5001f3 	svcls	0x005001f3
	...
    1714:	00000224 	andeq	r0, r0, r4, lsr #4
    1718:	00000264 	andeq	r0, r0, r4, ror #4
    171c:	64510001 	ldrbvs	r0, [r1], #-1
    1720:	88000002 	stmdahi	r0, {r1}
    1724:	04000002 	streq	r0, [r0], #-2
    1728:	5101f300 	mrspl	pc, SP_irq	; <UNPREDICTABLE>
    172c:	0000009f 	muleq	r0, pc, r0	; <UNPREDICTABLE>
    1730:	00000000 	andeq	r0, r0, r0
    1734:	01010000 	mrseq	r0, (UNDEF: 1)
    1738:	0c000000 	stceq	0, cr0, [r0], {-0}
    173c:	14000000 	strne	r0, [r0], #-0
    1740:	01000000 	mrseq	r0, (UNDEF: 0)
    1744:	00145300 	andseq	r5, r4, r0, lsl #6
    1748:	001c0000 	andseq	r0, ip, r0
    174c:	00030000 	andeq	r0, r3, r0
    1750:	1c9f0473 	cfldrsne	mvf0, [pc], {115}	; 0x73
    1754:	23000000 	movwcs	r0, #0
    1758:	01000000 	mrseq	r0, (UNDEF: 0)
    175c:	00005300 	andeq	r5, r0, r0, lsl #6
    1760:	00000000 	andeq	r0, r0, r0
    1764:	00010000 	andeq	r0, r1, r0
    1768:	0000974c 	andeq	r9, r0, ip, asr #14
    176c:	00009768 	andeq	r9, r0, r8, ror #14
    1770:	1c0c0006 	stcne	0, cr0, [ip], {6}
    1774:	9f201000 	svcls	0x00201000
	...
    1780:	974c0002 	strbls	r0, [ip, -r2]
    1784:	97680000 	strbls	r0, [r8, -r0]!
    1788:	00060000 	andeq	r0, r6, r0
    178c:	1000240c 	andne	r2, r0, ip, lsl #8
    1790:	00009f20 	andeq	r9, r0, r0, lsr #30
    1794:	00000000 	andeq	r0, r0, r0
    1798:	00030000 	andeq	r0, r3, r0
    179c:	0000974c 	andeq	r9, r0, ip, asr #14
    17a0:	00009768 	andeq	r9, r0, r8, ror #14
    17a4:	b4080005 	strlt	r0, [r8], #-5
    17a8:	009f2447 	addseq	r2, pc, r7, asr #8
    17ac:	00000000 	andeq	r0, r0, r0
    17b0:	04000000 	streq	r0, [r0], #-0
    17b4:	00974c00 	addseq	r4, r7, r0, lsl #24
    17b8:	00976800 	addseq	r6, r7, r0, lsl #16
    17bc:	08000300 	stmdaeq	r0, {r8, r9}
    17c0:	00009f20 	andeq	r9, r0, r0, lsr #30
    17c4:	00000000 	andeq	r0, r0, r0
    17c8:	00020000 	andeq	r0, r2, r0
    17cc:	00000000 	andeq	r0, r0, r0
    17d0:	00009718 	andeq	r9, r0, r8, lsl r7
    17d4:	0000971c 	andeq	r9, r0, ip, lsl r7
    17d8:	9f300002 	svcls	0x00300002
    17dc:	0000971c 	andeq	r9, r0, ip, lsl r7
    17e0:	00009720 	andeq	r9, r0, r0, lsr #14
    17e4:	24530001 	ldrbcs	r0, [r3], #-1
    17e8:	2c000097 	stccs	0, cr0, [r0], {151}	; 0x97
    17ec:	01000097 	swpeq	r0, r7, [r0]	; <UNPREDICTABLE>
    17f0:	00005300 	andeq	r5, r0, r0, lsl #6
    17f4:	00000000 	andeq	r0, r0, r0
    17f8:	00020000 	andeq	r0, r2, r0
    17fc:	97000000 	strls	r0, [r0, -r0]
    1800:	97040000 	strls	r0, [r4, -r0]
    1804:	00020000 	andeq	r0, r2, r0
    1808:	97049f30 	smladxls	r4, r0, pc, r9	; <UNPREDICTABLE>
    180c:	97080000 	strls	r0, [r8, -r0]
    1810:	00010000 	andeq	r0, r1, r0
    1814:	00000050 	andeq	r0, r0, r0, asr r0
	...
    1820:	00006c00 	andeq	r6, r0, r0, lsl #24
    1824:	00007800 	andeq	r7, r0, r0, lsl #16
    1828:	50000100 	andpl	r0, r0, r0, lsl #2
    182c:	00000078 	andeq	r0, r0, r8, ror r0
    1830:	00000084 	andeq	r0, r0, r4, lsl #1
    1834:	01f30004 	mvnseq	r0, r4
    1838:	00009f50 	andeq	r9, r0, r0, asr pc
	...
    1844:	00540000 	subseq	r0, r4, r0
    1848:	00600000 	rsbeq	r0, r0, r0
    184c:	00010000 	andeq	r0, r1, r0
    1850:	00006050 	andeq	r6, r0, r0, asr r0
    1854:	00006c00 	andeq	r6, r0, r0, lsl #24
    1858:	f3000400 	vshl.u8	d0, d0, d0
    185c:	009f5001 	addseq	r5, pc, r1
	...
    1868:	30000000 	andcc	r0, r0, r0
    186c:	3b000000 	blcc	1874 <__code_start__-0x678c>
    1870:	01000000 	mrseq	r0, (UNDEF: 0)
    1874:	003b5000 	eorseq	r5, fp, r0
    1878:	00540000 	subseq	r0, r4, r0
    187c:	00010000 	andeq	r0, r1, r0
    1880:	00000055 	andeq	r0, r0, r5, asr r0
    1884:	00000000 	andeq	r0, r0, r0
    1888:	40000000 	andmi	r0, r0, r0
    188c:	54000000 	strpl	r0, [r0], #-0
    1890:	01000000 	mrseq	r0, (UNDEF: 0)
    1894:	00005400 	andeq	r5, r0, r0, lsl #8
	...
    18a0:	00000044 	andeq	r0, r0, r4, asr #32
    18a4:	00000048 	andeq	r0, r0, r8, asr #32
    18a8:	00500001 	subseq	r0, r0, r1
	...
    18b4:	24000000 	strcs	r0, [r0], #-0
    18b8:	27000000 	strcs	r0, [r0, -r0]
    18bc:	01000000 	mrseq	r0, (UNDEF: 0)
    18c0:	00275000 	eoreq	r5, r7, r0
    18c4:	00300000 	eorseq	r0, r0, r0
    18c8:	00010000 	andeq	r0, r1, r0
    18cc:	00000054 	andeq	r0, r0, r4, asr r0
	...
    18d8:	00015800 	andeq	r5, r1, r0, lsl #16
    18dc:	00016300 	andeq	r6, r1, r0, lsl #6
    18e0:	50000100 	andpl	r0, r0, r0, lsl #2
    18e4:	00000163 	andeq	r0, r0, r3, ror #2
    18e8:	00000188 	andeq	r0, r0, r8, lsl #3
    18ec:	00540001 	subseq	r0, r4, r1
	...
    18f8:	00014800 	andeq	r4, r1, r0, lsl #16
    18fc:	00015800 	andeq	r5, r1, r0, lsl #16
    1900:	54000100 	strpl	r0, [r0], #-256	; 0xffffff00
	...
    1914:	0000000f 	andeq	r0, r0, pc
    1918:	0f500001 	svceq	0x00500001
    191c:	20000000 	andcs	r0, r0, r0
    1920:	01000000 	mrseq	r0, (UNDEF: 0)
    1924:	00005400 	andeq	r5, r0, r0, lsl #8
	...
    1934:	000f0000 	andeq	r0, pc, r0
    1938:	00010000 	andeq	r0, r1, r0
    193c:	00000f51 	andeq	r0, r0, r1, asr pc
    1940:	00002000 	andeq	r2, r0, r0
    1944:	55000100 	strpl	r0, [r0, #-256]	; 0xffffff00
	...
    1954:	00000020 	andeq	r0, r0, r0, lsr #32
    1958:	0000002f 	andeq	r0, r0, pc, lsr #32
    195c:	2f500001 	svccs	0x00500001
    1960:	40000000 	andmi	r0, r0, r0
    1964:	01000000 	mrseq	r0, (UNDEF: 0)
    1968:	00005400 	andeq	r5, r0, r0, lsl #8
	...
    1974:	00200000 	eoreq	r0, r0, r0
    1978:	002f0000 	eoreq	r0, pc, r0
    197c:	00010000 	andeq	r0, r1, r0
    1980:	00002f51 	andeq	r2, r0, r1, asr pc
    1984:	00004000 	andeq	r4, r0, r0
    1988:	55000100 	strpl	r0, [r0, #-256]	; 0xffffff00
	...
    1998:	03500000 	cmpeq	r0, #0, 0
    199c:	03980000 	orrseq	r0, r8, #0, 0
    19a0:	00010000 	andeq	r0, r1, r0
    19a4:	00039850 	andeq	r9, r3, r0, asr r8
    19a8:	00039b00 	andeq	r9, r3, r0, lsl #22
    19ac:	91000200 	mrsls	r0, R8_usr
    19b0:	00039b68 	andeq	r9, r3, r8, ror #22
    19b4:	0003b000 	andeq	fp, r3, r0
    19b8:	f3000400 	vshl.u8	d0, d0, d0
    19bc:	009f5001 	addseq	r5, pc, r1
	...
    19d8:	20000000 	andcs	r0, r0, r0
    19dc:	7b000002 	blvc	19ec <__code_start__-0x6614>
    19e0:	01000002 	tsteq	r0, r2
    19e4:	027b5000 	rsbseq	r5, fp, #0, 0
    19e8:	02840000 	addeq	r0, r4, #0, 0
    19ec:	00040000 	andeq	r0, r4, r0
    19f0:	9f5001f3 	svcls	0x005001f3
    19f4:	00000284 	andeq	r0, r0, r4, lsl #5
    19f8:	0000029c 	muleq	r0, ip, r2
    19fc:	9c500001 	mrrcls	0, 0, r0, r0, cr1	; <UNPREDICTABLE>
    1a00:	a4000002 	strge	r0, [r0], #-2
    1a04:	04000002 	streq	r0, [r0], #-2
    1a08:	5001f300 	andpl	pc, r1, r0, lsl #6
    1a0c:	0002a49f 	muleq	r2, pc, r4	; <UNPREDICTABLE>
    1a10:	0002a700 	andeq	sl, r2, r0, lsl #14
    1a14:	50000100 	andpl	r0, r0, r0, lsl #2
    1a18:	000002a7 	andeq	r0, r0, r7, lsr #5
    1a1c:	000002c8 	andeq	r0, r0, r8, asr #5
    1a20:	01f30004 	mvnseq	r0, r4
    1a24:	02c89f50 	sbceq	r9, r8, #80, 30	; 0x140
    1a28:	02e00000 	rsceq	r0, r0, #0, 0
    1a2c:	00010000 	andeq	r0, r1, r0
    1a30:	0002e050 	andeq	lr, r2, r0, asr r0
    1a34:	0002e800 	andeq	lr, r2, r0, lsl #16
    1a38:	f3000400 	vshl.u8	d0, d0, d0
    1a3c:	e89f5001 	ldm	pc, {r0, ip, lr}	; <UNPREDICTABLE>
    1a40:	eb000002 	bl	1a50 <__code_start__-0x65b0>
    1a44:	01000002 	tsteq	r0, r2
    1a48:	02eb5000 	rsceq	r5, fp, #0, 0
    1a4c:	03380000 	teqeq	r8, #0, 0
    1a50:	00040000 	andeq	r0, r4, r0
    1a54:	9f5001f3 	svcls	0x005001f3
	...
    1a74:	00000220 	andeq	r0, r0, r0, lsr #4
    1a78:	00000244 	andeq	r0, r0, r4, asr #4
    1a7c:	44510001 	ldrbmi	r0, [r1], #-1
    1a80:	68000002 	stmdavs	r0, {r1}
    1a84:	01000002 	tsteq	r0, r2
    1a88:	02685100 	rsbeq	r5, r8, #0
    1a8c:	027b0000 	rsbseq	r0, fp, #0, 0
    1a90:	00030000 	andeq	r0, r3, r0
    1a94:	7b9f0171 	blvc	fe7c2060 <__bss_end__+0xfe7b7258>
    1a98:	84000002 	strhi	r0, [r0], #-2
    1a9c:	17000002 	strne	r0, [r0, -r2]
    1aa0:	01f33800 	mvnseq	r3, r0, lsl #16
    1aa4:	5101f351 	tstpl	r1, r1, asr r3	; <UNPREDICTABLE>
    1aa8:	22244b40 	eorcs	r4, r4, #64, 22	; 0x10000
    1aac:	0000080c 	andeq	r0, r0, ip, lsl #16
    1ab0:	01282d80 	smlawbeq	r8, r0, sp, r2
    1ab4:	9f131600 	svcls	0x00131600
    1ab8:	00000284 	andeq	r0, r0, r4, lsl #5
    1abc:	00000298 	muleq	r0, r8, r2
    1ac0:	98510001 	ldmdals	r1, {r0}^
    1ac4:	a4000002 	strge	r0, [r0], #-2
    1ac8:	04000002 	streq	r0, [r0], #-2
    1acc:	5101f300 	mrspl	pc, SP_irq	; <UNPREDICTABLE>
    1ad0:	0002a49f 	muleq	r2, pc, r4	; <UNPREDICTABLE>
    1ad4:	0002a700 	andeq	sl, r2, r0, lsl #14
    1ad8:	51000100 	mrspl	r0, (UNDEF: 16)
    1adc:	000002a7 	andeq	r0, r0, r7, lsr #5
    1ae0:	000002c8 	andeq	r0, r0, r8, asr #5
    1ae4:	01f30004 	mvnseq	r0, r4
    1ae8:	02c89f51 	sbceq	r9, r8, #324	; 0x144
    1aec:	02dc0000 	sbcseq	r0, ip, #0, 0
    1af0:	00010000 	andeq	r0, r1, r0
    1af4:	0002dc51 	andeq	sp, r2, r1, asr ip
    1af8:	00033800 	andeq	r3, r3, r0, lsl #16
    1afc:	38001700 	stmdacc	r0, {r8, r9, sl, ip}
    1b00:	f35101f3 	vbsl	q8, <illegal reg q8.5>, <illegal reg q9.5>
    1b04:	4b405101 	blmi	1015f10 <__bss_end__+0x100b108>
    1b08:	080c2224 	stmdaeq	ip, {r2, r5, r9, sp}
    1b0c:	2d800000 	stccs	0, cr0, [r0]
    1b10:	16000128 	strne	r0, [r0], -r8, lsr #2
    1b14:	00009f13 	andeq	r9, r0, r3, lsl pc
	...
    1b28:	024c0000 	subeq	r0, ip, #0, 0
    1b2c:	025c0000 	subseq	r0, ip, #0, 0
    1b30:	00010000 	andeq	r0, r1, r0
    1b34:	00025c52 	andeq	r5, r2, r2, asr ip
    1b38:	00026400 	andeq	r6, r2, r0, lsl #8
    1b3c:	03000500 	movweq	r0, #1280	; 0x500
    1b40:	0000a9d0 	ldrdeq	sl, [r0], -r0
    1b44:	00000264 	andeq	r0, r0, r4, ror #4
    1b48:	0000027b 	andeq	r0, r0, fp, ror r2
    1b4c:	c8530001 	ldmdagt	r3, {r0}^
    1b50:	d8000002 	stmdale	r0, {r1}
    1b54:	01000002 	tsteq	r0, r2
    1b58:	02d85200 	sbcseq	r5, r8, #0, 4
    1b5c:	02e30000 	rsceq	r0, r3, #0, 0
    1b60:	00050000 	andeq	r0, r5, r0
    1b64:	00a9d003 	adceq	sp, r9, r3
    1b68:	0002e800 	andeq	lr, r2, r0, lsl #16
    1b6c:	0002eb00 	andeq	lr, r2, r0, lsl #22
    1b70:	53000100 	movwpl	r0, #256	; 0x100
	...
    1b7c:	02300004 	eorseq	r0, r0, #4, 0
    1b80:	02340000 	eorseq	r0, r4, #0, 0
    1b84:	00010000 	andeq	r0, r1, r0
    1b88:	00000051 	andeq	r0, r0, r1, asr r0
    1b8c:	00000000 	andeq	r0, r0, r0
    1b90:	3c000200 	sfmcc	f0, 4, [r0], {-0}
    1b94:	44000002 	strmi	r0, [r0], #-2
    1b98:	02000002 	andeq	r0, r0, #2, 0
    1b9c:	009f3800 	addseq	r3, pc, r0, lsl #16
    1ba0:	00000000 	andeq	r0, r0, r0
    1ba4:	02000000 	andeq	r0, r0, #0, 0
    1ba8:	00023c00 	andeq	r3, r2, r0, lsl #24
    1bac:	00024400 	andeq	r4, r2, r0, lsl #8
    1bb0:	51000100 	mrspl	r0, (UNDEF: 16)
	...
    1bbc:	00000001 	andeq	r0, r0, r1
    1bc0:	024c0000 	subeq	r0, ip, #0, 0
    1bc4:	02640000 	rsbeq	r0, r4, #0, 0
    1bc8:	00010000 	andeq	r0, r1, r0
    1bcc:	0002c851 	andeq	ip, r2, r1, asr r8
    1bd0:	0002dc00 	andeq	sp, r2, r0, lsl #24
    1bd4:	51000100 	mrspl	r0, (UNDEF: 16)
    1bd8:	000002dc 	ldrdeq	r0, [r0], -ip
    1bdc:	000002e8 	andeq	r0, r0, r8, ror #5
    1be0:	f3380017 	vqadd.u64	d0, d8, d7
    1be4:	01f35101 	mvnseq	r5, r1, lsl #2
    1be8:	244b4051 	strbcs	r4, [fp], #-81	; 0xffffffaf
    1bec:	00080c22 	andeq	r0, r8, r2, lsr #24
    1bf0:	282d8000 	stmdacs	sp!, {pc}
    1bf4:	13160001 	tstne	r6, #1, 0
    1bf8:	0000009f 	muleq	r0, pc, r0	; <UNPREDICTABLE>
    1bfc:	00000000 	andeq	r0, r0, r0
    1c00:	00000100 	andeq	r0, r0, r0, lsl #2
    1c04:	00000000 	andeq	r0, r0, r0
    1c08:	00024c00 	andeq	r4, r2, r0, lsl #24
    1c0c:	00025c00 	andeq	r5, r2, r0, lsl #24
    1c10:	52000100 	andpl	r0, r0, #0
    1c14:	0000025c 	andeq	r0, r0, ip, asr r2
    1c18:	00000264 	andeq	r0, r0, r4, ror #4
    1c1c:	d0030005 	andle	r0, r3, r5
    1c20:	c80000a9 	stmdagt	r0, {r0, r3, r5, r7}
    1c24:	d8000002 	stmdale	r0, {r1}
    1c28:	01000002 	tsteq	r0, r2
    1c2c:	02d85200 	sbcseq	r5, r8, #0, 4
    1c30:	02e30000 	rsceq	r0, r3, #0, 0
    1c34:	00050000 	andeq	r0, r5, r0
    1c38:	00a9d003 	adceq	sp, r9, r3
	...
    1c44:	4c000400 	cfstrsmi	mvf0, [r0], {-0}
    1c48:	50000002 	andpl	r0, r0, r2
    1c4c:	01000002 	tsteq	r0, r2
    1c50:	00005100 	andeq	r5, r0, r0, lsl #2
    1c54:	00000000 	andeq	r0, r0, r0
    1c58:	00030000 	andeq	r0, r3, r0
    1c5c:	00000264 	andeq	r0, r0, r4, ror #4
    1c60:	00000268 	andeq	r0, r0, r8, ror #4
    1c64:	00510001 	subseq	r0, r1, r1
    1c68:	00000000 	andeq	r0, r0, r0
    1c6c:	03000000 	movweq	r0, #0
    1c70:	00026400 	andeq	r6, r2, r0, lsl #8
    1c74:	00026800 	andeq	r6, r2, r0, lsl #16
    1c78:	53000100 	movwpl	r0, #256	; 0x100
	...
    1c8c:	000001bc 			; <UNDEFINED> instruction: 0x000001bc
    1c90:	000001d3 	ldrdeq	r0, [r0], -r3
    1c94:	d3500001 	cmple	r0, #1, 0
    1c98:	f0000001 			; <UNDEFINED> instruction: 0xf0000001
    1c9c:	01000001 	tsteq	r0, r1
    1ca0:	01f05400 	mvnseq	r5, r0, lsl #8
    1ca4:	02080000 	andeq	r0, r8, #0, 0
    1ca8:	00010000 	andeq	r0, r1, r0
    1cac:	00020850 	andeq	r0, r2, r0, asr r8
    1cb0:	00022000 	andeq	r2, r2, r0
    1cb4:	54000100 	strpl	r0, [r0], #-256	; 0xffffff00
	...
    1cc4:	000001d8 	ldrdeq	r0, [r0], -r8
    1cc8:	000001e3 	andeq	r0, r0, r3, ror #3
    1ccc:	e3500001 	cmp	r0, #1, 0
    1cd0:	f0000001 			; <UNDEFINED> instruction: 0xf0000001
    1cd4:	01000001 	tsteq	r0, r1
    1cd8:	00005500 	andeq	r5, r0, r0, lsl #10
	...
    1cf0:	01240000 			; <UNDEFINED> instruction: 0x01240000
    1cf4:	01380000 	teqeq	r8, r0
    1cf8:	00010000 	andeq	r0, r1, r0
    1cfc:	00013850 	andeq	r3, r1, r0, asr r8
    1d00:	00013c00 	andeq	r3, r1, r0, lsl #24
    1d04:	70000300 	andvc	r0, r0, r0, lsl #6
    1d08:	013c9f79 	teqeq	ip, r9, ror pc
    1d0c:	01600000 	cmneq	r0, r0
    1d10:	00010000 	andeq	r0, r1, r0
    1d14:	00016053 	andeq	r6, r1, r3, asr r0
    1d18:	00017800 	andeq	r7, r1, r0, lsl #16
    1d1c:	50000100 	andpl	r0, r0, r0, lsl #2
    1d20:	00000178 	andeq	r0, r0, r8, ror r1
    1d24:	00000180 	andeq	r0, r0, r0, lsl #3
    1d28:	01f30004 	mvnseq	r0, r4
    1d2c:	01809f50 	orreq	r9, r0, r0, asr pc
    1d30:	01900000 	orrseq	r0, r0, r0
    1d34:	00010000 	andeq	r0, r1, r0
    1d38:	00019053 	andeq	r9, r1, r3, asr r0
    1d3c:	00019f00 	andeq	r9, r1, r0, lsl #30
    1d40:	91000200 	mrsls	r0, R8_usr
    1d44:	00019f68 	andeq	r9, r1, r8, ror #30
    1d48:	0001bc00 	andeq	fp, r1, r0, lsl #24
    1d4c:	f3000900 	vmls.i8	d0, d0, d0
    1d50:	07235001 	streq	r5, [r3, -r1]!
    1d54:	9f1af809 	svcls	0x001af809
	...
    1d64:	01440000 	mrseq	r0, (UNDEF: 68)
    1d68:	01600000 	cmneq	r0, r0
    1d6c:	00010000 	andeq	r0, r1, r0
    1d70:	00018050 	andeq	r8, r1, r0, asr r0
    1d74:	00019c00 	andeq	r9, r1, r0, lsl #24
    1d78:	50000100 	andpl	r0, r0, r0, lsl #2
    1d7c:	0000019c 	muleq	r0, ip, r1
    1d80:	0000019f 	muleq	r0, pc, r1	; <UNPREDICTABLE>
    1d84:	d0030005 	andle	r0, r3, r5
    1d88:	000000a9 	andeq	r0, r0, r9, lsr #1
    1d8c:	00000000 	andeq	r0, r0, r0
    1d90:	03000000 	movweq	r0, #0
    1d94:	00013400 	andeq	r3, r1, r0, lsl #8
    1d98:	00013c00 	andeq	r3, r1, r0, lsl #24
    1d9c:	38000200 	stmdacc	r0, {r9}
    1da0:	0000009f 	muleq	r0, pc, r0	; <UNPREDICTABLE>
    1da4:	00000000 	andeq	r0, r0, r0
    1da8:	00000300 	andeq	r0, r0, r0, lsl #6
    1dac:	00013400 	andeq	r3, r1, r0, lsl #8
    1db0:	00013800 	andeq	r3, r1, r0, lsl #16
    1db4:	50000100 	andpl	r0, r0, r0, lsl #2
    1db8:	00000138 	andeq	r0, r0, r8, lsr r1
    1dbc:	0000013c 	andeq	r0, r0, ip, lsr r1
    1dc0:	79700003 	ldmdbvc	r0!, {r0, r1}^
    1dc4:	0000009f 	muleq	r0, pc, r0	; <UNPREDICTABLE>
	...
    1dd8:	30000000 	andcc	r0, r0, r0
    1ddc:	60000000 	andvs	r0, r0, r0
    1de0:	01000000 	mrseq	r0, (UNDEF: 0)
    1de4:	00605000 	rsbeq	r5, r0, r0
    1de8:	006c0000 	rsbeq	r0, ip, r0
    1dec:	00050000 	andeq	r0, r5, r0
    1df0:	00a9d003 	adceq	sp, r9, r3
    1df4:	00006c00 	andeq	r6, r0, r0, lsl #24
    1df8:	00008400 	andeq	r8, r0, r0, lsl #8
    1dfc:	50000100 	andpl	r0, r0, r0, lsl #2
    1e00:	00000084 	andeq	r0, r0, r4, lsl #1
    1e04:	0000008c 	andeq	r0, r0, ip, lsl #1
    1e08:	01f30004 	mvnseq	r0, r4
    1e0c:	008c9f50 	addeq	r9, ip, r0, asr pc
    1e10:	00ac0000 	adceq	r0, ip, r0
    1e14:	00010000 	andeq	r0, r1, r0
    1e18:	0000ac50 	andeq	sl, r0, r0, asr ip
    1e1c:	0000af00 	andeq	sl, r0, r0, lsl #30
    1e20:	91000200 	mrsls	r0, R8_usr
    1e24:	0000af68 	andeq	sl, r0, r8, ror #30
    1e28:	0000cc00 	andeq	ip, r0, r0, lsl #24
    1e2c:	f3000400 	vshl.u8	d0, d0, d0
    1e30:	009f5001 	addseq	r5, pc, r1
	...
    1e40:	30000000 	andcc	r0, r0, r0
    1e44:	80000000 	andhi	r0, r0, r0
    1e48:	01000000 	mrseq	r0, (UNDEF: 0)
    1e4c:	00805100 	addeq	r5, r0, r0, lsl #2
    1e50:	008c0000 	addeq	r0, ip, r0
    1e54:	00040000 	andeq	r0, r4, r0
    1e58:	9f5101f3 	svcls	0x005101f3
    1e5c:	0000008c 	andeq	r0, r0, ip, lsl #1
    1e60:	000000a8 	andeq	r0, r0, r8, lsr #1
    1e64:	a8510001 	ldmdage	r1, {r0}^
    1e68:	cc000000 	stcgt	0, cr0, [r0], {-0}
    1e6c:	04000000 	streq	r0, [r0], #-0
    1e70:	5101f300 	mrspl	pc, SP_irq	; <UNPREDICTABLE>
    1e74:	0000009f 	muleq	r0, pc, r0	; <UNPREDICTABLE>
    1e78:	00000000 	andeq	r0, r0, r0
    1e7c:	00000100 	andeq	r0, r0, r0, lsl #2
	...
    1e88:	38000000 	stmdacc	r0, {}	; <UNPREDICTABLE>
    1e8c:	60000000 	andvs	r0, r0, r0
    1e90:	01000000 	mrseq	r0, (UNDEF: 0)
    1e94:	00605000 	rsbeq	r5, r0, r0
    1e98:	006c0000 	rsbeq	r0, ip, r0
    1e9c:	00050000 	andeq	r0, r5, r0
    1ea0:	00a9d003 	adceq	sp, r9, r3
    1ea4:	00006c00 	andeq	r6, r0, r0, lsl #24
    1ea8:	00008400 	andeq	r8, r0, r0, lsl #8
    1eac:	50000100 	andpl	r0, r0, r0, lsl #2
    1eb0:	00000084 	andeq	r0, r0, r4, lsl #1
    1eb4:	0000008c 	andeq	r0, r0, ip, lsl #1
    1eb8:	01f30004 	mvnseq	r0, r4
    1ebc:	008c9f50 	addeq	r9, ip, r0, asr pc
    1ec0:	00ac0000 	adceq	r0, ip, r0
    1ec4:	00010000 	andeq	r0, r1, r0
    1ec8:	0000ac50 	andeq	sl, r0, r0, asr ip
    1ecc:	0000af00 	andeq	sl, r0, r0, lsl #30
    1ed0:	91000200 	mrsls	r0, R8_usr
    1ed4:	0000af68 	andeq	sl, r0, r8, ror #30
    1ed8:	0000cc00 	andeq	ip, r0, r0, lsl #24
    1edc:	f3000400 	vshl.u8	d0, d0, d0
    1ee0:	009f5001 	addseq	r5, pc, r1
	...
    1ef0:	0b000000 	bleq	1ef8 <__code_start__-0x6108>
    1ef4:	01000000 	mrseq	r0, (UNDEF: 0)
    1ef8:	000b5000 	andeq	r5, fp, r0
    1efc:	00140000 	andseq	r0, r4, r0
    1f00:	00010000 	andeq	r0, r1, r0
    1f04:	00000054 	andeq	r0, r0, r4, asr r0
	...
    1f14:	00001c00 	andeq	r1, r0, r0, lsl #24
    1f18:	51000100 	mrspl	r0, (UNDEF: 16)
    1f1c:	0000001c 	andeq	r0, r0, ip, lsl r0
    1f20:	00000034 	andeq	r0, r0, r4, lsr r0
    1f24:	01f30004 	mvnseq	r0, r4
    1f28:	00009f51 	andeq	r9, r0, r1, asr pc
    1f2c:	00000000 	andeq	r0, r0, r0
    1f30:	00020000 	andeq	r0, r2, r0
    1f34:	01000000 	mrseq	r0, (UNDEF: 0)
    1f38:	00000001 	andeq	r0, r0, r1
    1f3c:	00000000 	andeq	r0, r0, r0
    1f40:	00000004 	andeq	r0, r0, r4
    1f44:	04500001 	ldrbeq	r0, [r0], #-1
    1f48:	1c000000 	stcne	0, cr0, [r0], {-0}
    1f4c:	01000000 	mrseq	r0, (UNDEF: 0)
    1f50:	001c5200 	andseq	r5, ip, r0, lsl #4
    1f54:	00240000 	eoreq	r0, r4, r0
    1f58:	00010000 	andeq	r0, r1, r0
    1f5c:	00002453 	andeq	r2, r0, r3, asr r4
    1f60:	00002800 	andeq	r2, r0, r0, lsl #16
    1f64:	73000300 	movwvc	r0, #768	; 0x300
    1f68:	00289f01 	eoreq	r9, r8, r1, lsl #30
    1f6c:	00340000 	eorseq	r0, r4, r0
    1f70:	00010000 	andeq	r0, r1, r0
    1f74:	00000053 	andeq	r0, r0, r3, asr r0
    1f78:	00000000 	andeq	r0, r0, r0
    1f7c:	00000300 	andeq	r0, r0, r0, lsl #6
    1f80:	00000000 	andeq	r0, r0, r0
    1f84:	00002400 	andeq	r2, r0, r0, lsl #8
    1f88:	51000100 	mrspl	r0, (UNDEF: 16)
    1f8c:	00000024 	andeq	r0, r0, r4, lsr #32
    1f90:	00000034 	andeq	r0, r0, r4, lsr r0
    1f94:	7f710003 	svcvc	0x00710003
    1f98:	0000009f 	muleq	r0, pc, r0	; <UNPREDICTABLE>
	...
    1fa4:	00001000 	andeq	r1, r0, r0
    1fa8:	00001c00 	andeq	r1, r0, r0, lsl #24
    1fac:	5c000100 	stfpls	f0, [r0], {-0}
    1fb0:	00000024 	andeq	r0, r0, r4, lsr #32
    1fb4:	00000034 	andeq	r0, r0, r4, lsr r0
    1fb8:	00520001 	subseq	r0, r2, r1
	...
    1fc8:	18000000 	stmdane	r0, {}	; <UNPREDICTABLE>
    1fcc:	01000000 	mrseq	r0, (UNDEF: 0)
    1fd0:	00185000 	andseq	r5, r8, r0
    1fd4:	00240000 	eoreq	r0, r4, r0
    1fd8:	00010000 	andeq	r0, r1, r0
    1fdc:	00000050 	andeq	r0, r0, r0, asr r0
	...
    1fec:	00001c00 	andeq	r1, r0, r0, lsl #24
    1ff0:	51000100 	mrspl	r0, (UNDEF: 16)
    1ff4:	0000001c 	andeq	r0, r0, ip, lsl r0
    1ff8:	0000002c 	andeq	r0, r0, ip, lsr #32
    1ffc:	00510001 	subseq	r0, r1, r1
	...
    2010:	00000400 	andeq	r0, r0, r0, lsl #8
    2014:	51000100 	mrspl	r0, (UNDEF: 16)
    2018:	00000004 	andeq	r0, r0, r4
    201c:	0000000c 	andeq	r0, r0, ip
    2020:	0c510001 	mrrceq	0, 0, r0, r1, cr1
    2024:	20000000 	andcs	r0, r0, r0
    2028:	03000000 	movweq	r0, #0
    202c:	9f7f7100 	svcls	0x007f7100
	...
    2038:	00000002 	andeq	r0, r0, r2
    203c:	00000000 	andeq	r0, r0, r0
    2040:	00040000 	andeq	r0, r4, r0
    2044:	00010000 	andeq	r0, r1, r0
    2048:	00000450 	andeq	r0, r0, r0, asr r4
    204c:	00001400 	andeq	r1, r0, r0, lsl #8
    2050:	5c000100 	stfpls	f0, [r0], {-0}
    2054:	00000014 	andeq	r0, r0, r4, lsl r0
    2058:	00000020 	andeq	r0, r0, r0, lsr #32
    205c:	7f7c0003 	svcvc	0x007c0003
    2060:	0000009f 	muleq	r0, pc, r0	; <UNPREDICTABLE>
    2064:	00000000 	andeq	r0, r0, r0
    2068:	03030000 	movweq	r0, #12288	; 0x3000
    206c:	009e6000 	addseq	r6, lr, r0
    2070:	009e6000 	addseq	r6, lr, r0
    2074:	50000100 	andpl	r0, r0, r0, lsl #2
    2078:	00009e60 	andeq	r9, r0, r0, ror #28
    207c:	00009e8c 	andeq	r9, r0, ip, lsl #29
    2080:	01f30004 	mvnseq	r0, r4
    2084:	00009f50 	andeq	r9, r0, r0, asr pc
    2088:	00000000 	andeq	r0, r0, r0
    208c:	03000000 	movweq	r0, #0
    2090:	9e600003 	cdpls	0, 6, cr0, cr0, cr3, {0}
    2094:	9e600000 	cdpls	0, 6, cr0, cr0, cr0, {0}
    2098:	00010000 	andeq	r0, r1, r0
    209c:	009e6051 	addseq	r6, lr, r1, asr r0
    20a0:	009e8c00 	addseq	r8, lr, r0, lsl #24
    20a4:	f3000400 	vshl.u8	d0, d0, d0
    20a8:	009f5101 	addseq	r5, pc, r1, lsl #2
	...
    20b4:	00000303 	andeq	r0, r0, r3, lsl #6
    20b8:	009e6000 	addseq	r6, lr, r0
    20bc:	009e6000 	addseq	r6, lr, r0
    20c0:	52000100 	andpl	r0, r0, #0
    20c4:	00009e60 	andeq	r9, r0, r0, ror #28
    20c8:	00009e68 	andeq	r9, r0, r8, ror #28
    20cc:	68520001 	ldmdavs	r2, {r0}^
    20d0:	8c00009e 	stchi	0, cr0, [r0], {158}	; 0x9e
    20d4:	0300009e 	movweq	r0, #158	; 0x9e
    20d8:	9f017200 	svcls	0x00017200
	...
    20e4:	00010102 	andeq	r0, r1, r2, lsl #2
    20e8:	00000000 	andeq	r0, r0, r0
    20ec:	00009e60 	andeq	r9, r0, r0, ror #28
    20f0:	00009e6c 	andeq	r9, r0, ip, ror #28
    20f4:	6c500001 	mrrcvs	0, 0, r0, r0, cr1	; <UNPREDICTABLE>
    20f8:	7000009e 	mulvc	r0, lr, r0
    20fc:	0300009e 	movweq	r0, #158	; 0x9e
    2100:	9f017000 	svcls	0x00017000
    2104:	00009e70 	andeq	r9, r0, r0, ror lr
    2108:	00009e80 	andeq	r9, r0, r0, lsl #29
    210c:	84500001 	ldrbhi	r0, [r0], #-1
    2110:	8800009e 	stmdahi	r0, {r1, r2, r3, r4, r7}
    2114:	0100009e 	swpeq	r0, lr, [r0]	; <UNPREDICTABLE>
    2118:	00005000 	andeq	r5, r0, r0
    211c:	00000000 	andeq	r0, r0, r0
    2120:	00020000 	andeq	r0, r2, r0
    2124:	00000000 	andeq	r0, r0, r0
    2128:	00009e60 	andeq	r9, r0, r0, ror #28
    212c:	00009e70 	andeq	r9, r0, r0, ror lr
    2130:	70510001 	subsvc	r0, r1, r1
    2134:	7400009e 	strvc	r0, [r0], #-158	; 0xffffff62
    2138:	0300009e 	movweq	r0, #158	; 0x9e
    213c:	9f017100 	svcls	0x00017100
    2140:	00009e74 	andeq	r9, r0, r4, ror lr
    2144:	00009e8c 	andeq	r9, r0, ip, lsl #29
    2148:	00510001 	subseq	r0, r1, r1
	...
    2158:	e8000000 	stmda	r0, {}	; <UNPREDICTABLE>
    215c:	00000000 	andeq	r0, r0, r0
    2160:	01000001 	tsteq	r0, r1
    2164:	01005000 	mrseq	r5, (UNDEF: 0)
    2168:	01100000 	tsteq	r0, r0
    216c:	00040000 	andeq	r0, r4, r0
    2170:	9f5001f3 	svcls	0x005001f3
    2174:	00000110 	andeq	r0, r0, r0, lsl r1
    2178:	00000114 	andeq	r0, r0, r4, lsl r1
    217c:	14500001 	ldrbne	r0, [r0], #-1
    2180:	1c000001 	stcne	0, cr0, [r0], {1}
    2184:	04000001 	streq	r0, [r0], #-1
    2188:	5001f300 	andpl	pc, r1, r0, lsl #6
    218c:	0000009f 	muleq	r0, pc, r0	; <UNPREDICTABLE>
    2190:	00000000 	andeq	r0, r0, r0
    2194:	00000100 	andeq	r0, r0, r0, lsl #2
    2198:	f4000000 	vst4.8	{d0-d3}, [r0], r0
    219c:	00000000 	andeq	r0, r0, r0
    21a0:	0b000001 	bleq	21ac <__code_start__-0x5e54>
    21a4:	35007000 	strcc	r7, [r0, #-0]
    21a8:	80b42325 	adcshi	r2, r4, r5, lsr #6
    21ac:	9f028180 	svcls	0x00028180
    21b0:	00000100 	andeq	r0, r0, r0, lsl #2
    21b4:	00000103 	andeq	r0, r0, r3, lsl #2
    21b8:	03500001 	cmpeq	r0, #1, 0
    21bc:	10000001 	andne	r0, r0, r1
    21c0:	0c000001 	stceq	0, cr0, [r0], {1}
    21c4:	5001f300 	andpl	pc, r1, r0, lsl #6
    21c8:	b4232535 	strtlt	r2, [r3], #-1333	; 0xfffffacb
    21cc:	02818080 	addeq	r8, r1, #128, 0	; 0x80
    21d0:	0000009f 	muleq	r0, pc, r0	; <UNPREDICTABLE>
    21d4:	00000000 	andeq	r0, r0, r0
    21d8:	f8000000 			; <UNDEFINED> instruction: 0xf8000000
    21dc:	10000000 	andne	r0, r0, r0
    21e0:	01000001 	tsteq	r0, r1
    21e4:	00005400 	andeq	r5, r0, r0, lsl #8
	...
    21f4:	00cc0000 	sbceq	r0, ip, r0
    21f8:	00db0000 	sbcseq	r0, fp, r0
    21fc:	00010000 	andeq	r0, r1, r0
    2200:	0000db50 	andeq	sp, r0, r0, asr fp
    2204:	0000e000 	andeq	lr, r0, r0
    2208:	f3000400 	vshl.u8	d0, d0, d0
    220c:	e09f5001 	adds	r5, pc, r1
    2210:	e3000000 	movw	r0, #0
    2214:	01000000 	mrseq	r0, (UNDEF: 0)
    2218:	00e35000 	rsceq	r5, r3, r0
    221c:	00e80000 	rsceq	r0, r8, r0
    2220:	00040000 	andeq	r0, r4, r0
    2224:	9f5001f3 	svcls	0x005001f3
	...
    2238:	000000cc 	andeq	r0, r0, ip, asr #1
    223c:	000000db 	ldrdeq	r0, [r0], -fp
    2240:	db510001 	blle	144224c <__bss_end__+0x1437444>
    2244:	e0000000 	and	r0, r0, r0
    2248:	04000000 	streq	r0, [r0], #-0
    224c:	5101f300 	mrspl	pc, SP_irq	; <UNPREDICTABLE>
    2250:	0000e09f 	muleq	r0, pc, r0	; <UNPREDICTABLE>
    2254:	0000e300 	andeq	lr, r0, r0, lsl #6
    2258:	51000100 	mrspl	r0, (UNDEF: 16)
    225c:	000000e3 	andeq	r0, r0, r3, ror #1
    2260:	000000e8 	andeq	r0, r0, r8, ror #1
    2264:	01f30004 	mvnseq	r0, r4
    2268:	00009f51 	andeq	r9, r0, r1, asr pc
	...
    2274:	00bc0000 	adcseq	r0, ip, r0
    2278:	00c70000 	sbceq	r0, r7, r0
    227c:	00010000 	andeq	r0, r1, r0
    2280:	0000c750 	andeq	ip, r0, r0, asr r7
    2284:	0000cc00 	andeq	ip, r0, r0, lsl #24
    2288:	f3000400 	vshl.u8	d0, d0, d0
    228c:	009f5001 	addseq	r5, pc, r1
	...
    2298:	98000000 	stmdals	r0, {}	; <UNPREDICTABLE>
    229c:	b0000000 	andlt	r0, r0, r0
    22a0:	01000000 	mrseq	r0, (UNDEF: 0)
    22a4:	00b05000 	adcseq	r5, r0, r0
    22a8:	00bc0000 	adcseq	r0, ip, r0
    22ac:	00040000 	andeq	r0, r4, r0
    22b0:	9f5001f3 	svcls	0x005001f3
	...
    22c0:	00000074 	andeq	r0, r0, r4, ror r0
    22c4:	0000008c 	andeq	r0, r0, ip, lsl #1
    22c8:	8c500001 	mrrchi	0, 0, r0, r0, cr1	; <UNPREDICTABLE>
    22cc:	98000000 	stmdals	r0, {}	; <UNPREDICTABLE>
    22d0:	04000000 	streq	r0, [r0], #-0
    22d4:	5001f300 	andpl	pc, r1, r0, lsl #6
    22d8:	0000009f 	muleq	r0, pc, r0	; <UNPREDICTABLE>
	...
    22e4:	00006400 	andeq	r6, r0, r0, lsl #8
    22e8:	00006f00 	andeq	r6, r0, r0, lsl #30
    22ec:	50000100 	andpl	r0, r0, r0, lsl #2
    22f0:	0000006f 	andeq	r0, r0, pc, rrx
    22f4:	00000074 	andeq	r0, r0, r4, ror r0
    22f8:	01f30004 	mvnseq	r0, r4
    22fc:	00009f50 	andeq	r9, r0, r0, asr pc
	...
    230c:	00380000 	eorseq	r0, r8, r0
    2310:	00010000 	andeq	r0, r1, r0
    2314:	00003850 	andeq	r3, r0, r0, asr r8
    2318:	00006400 	andeq	r6, r0, r0, lsl #8
    231c:	f3000400 	vshl.u8	d0, d0, d0
    2320:	009f5001 	addseq	r5, pc, r1
	...
    2330:	47000000 	strmi	r0, [r0, -r0]
    2334:	01000000 	mrseq	r0, (UNDEF: 0)
    2338:	00475100 	subeq	r5, r7, r0, lsl #2
    233c:	00640000 	rsbeq	r0, r4, r0
    2340:	00040000 	andeq	r0, r4, r0
    2344:	9f5101f3 	svcls	0x005101f3
	...
    2350:	00340000 	eorseq	r0, r4, r0
    2354:	00640000 	rsbeq	r0, r4, r0
    2358:	00010000 	andeq	r0, r1, r0
    235c:	00000054 	andeq	r0, r0, r4, asr r0
    2360:	00000000 	andeq	r0, r0, r0
    2364:	40000000 	andmi	r0, r0, r0
    2368:	64000000 	strvs	r0, [r0], #-0
    236c:	01000000 	mrseq	r0, (UNDEF: 0)
    2370:	00005600 	andeq	r5, r0, r0, lsl #12
	...
    237c:	00010100 	andeq	r0, r1, r0, lsl #2
    2380:	00480000 	subeq	r0, r8, r0
    2384:	00500000 	subseq	r0, r0, r0
    2388:	00010000 	andeq	r0, r1, r0
    238c:	00005050 	andeq	r5, r0, r0, asr r0
    2390:	00005000 	andeq	r5, r0, r0
    2394:	51000100 	mrspl	r0, (UNDEF: 16)
    2398:	00000050 	andeq	r0, r0, r0, asr r0
    239c:	00000054 	andeq	r0, r0, r4, asr r0
    23a0:	00750009 	rsbseq	r0, r5, r9
    23a4:	71240074 			; <UNDEFINED> instruction: 0x71240074
    23a8:	549f2100 	ldrpl	r2, [pc], #256	; 23b0 <__code_start__-0x5c50>
    23ac:	5b000000 	blpl	23b4 <__code_start__-0x5c4c>
    23b0:	01000000 	mrseq	r0, (UNDEF: 0)
    23b4:	00005100 	andeq	r5, r0, r0, lsl #2
    23b8:	00000000 	andeq	r0, r0, r0
	...

Disassembly of section .debug_aranges:

00000000 <.debug_aranges>:
   0:	0000001c 	andeq	r0, r0, ip, lsl r0
   4:	00000002 	andeq	r0, r0, r2
   8:	00040000 	andeq	r0, r4, r0
   c:	00000000 	andeq	r0, r0, r0
  10:	00008038 	andeq	r8, r0, r8, lsr r0
  14:	000000d4 	ldrdeq	r0, [r0], -r4
	...
  20:	0000001c 	andeq	r0, r0, ip, lsl r0
  24:	04860002 	streq	r0, [r6], #2
  28:	00040000 	andeq	r0, r4, r0
  2c:	00000000 	andeq	r0, r0, r0
  30:	0000810c 	andeq	r8, r0, ip, lsl #2
  34:	0000052c 	andeq	r0, r0, ip, lsr #10
	...
  40:	0000001c 	andeq	r0, r0, ip, lsl r0
  44:	10710002 	rsbsne	r0, r1, r2
  48:	00040000 	andeq	r0, r4, r0
  4c:	00000000 	andeq	r0, r0, r0
  50:	00008638 	andeq	r8, r0, r8, lsr r6
  54:	000005f4 	strdeq	r0, [r0], -r4
	...
  60:	0000001c 	andeq	r0, r0, ip, lsl r0
  64:	1cd60002 	ldclne	0, cr0, [r6], {2}
  68:	00040000 	andeq	r0, r4, r0
  6c:	00000000 	andeq	r0, r0, r0
  70:	00008c70 	andeq	r8, r0, r0, ror ip
  74:	000001ac 	andeq	r0, r0, ip, lsr #3
	...
  80:	0000001c 	andeq	r0, r0, ip, lsl r0
  84:	1fb40002 	svcne	0x00b40002
  88:	00040000 	andeq	r0, r4, r0
  8c:	00000000 	andeq	r0, r0, r0
  90:	00008e1c 	andeq	r8, r0, ip, lsl lr
  94:	00000034 	andeq	r0, r0, r4, lsr r0
	...
  a0:	0000001c 	andeq	r0, r0, ip, lsl r0
  a4:	213b0002 	teqcs	fp, r2
  a8:	00040000 	andeq	r0, r4, r0
  ac:	00000000 	andeq	r0, r0, r0
  b0:	00008e50 	andeq	r8, r0, r0, asr lr
  b4:	00000060 	andeq	r0, r0, r0, rrx
	...
  c0:	0000001c 	andeq	r0, r0, ip, lsl r0
  c4:	23390002 	teqcs	r9, #2, 0
  c8:	00040000 	andeq	r0, r4, r0
  cc:	00000000 	andeq	r0, r0, r0
  d0:	00008eb0 			; <UNDEFINED> instruction: 0x00008eb0
  d4:	00000018 	andeq	r0, r0, r8, lsl r0
	...
  e0:	0000001c 	andeq	r0, r0, ip, lsl r0
  e4:	24770002 	ldrbtcs	r0, [r7], #-2
  e8:	00040000 	andeq	r0, r4, r0
  ec:	00000000 	andeq	r0, r0, r0
  f0:	00008ec8 	andeq	r8, r0, r8, asr #29
  f4:	00000058 	andeq	r0, r0, r8, asr r0
	...
 100:	0000001c 	andeq	r0, r0, ip, lsl r0
 104:	26180002 	ldrcs	r0, [r8], -r2
 108:	00040000 	andeq	r0, r4, r0
 10c:	00000000 	andeq	r0, r0, r0
 110:	00008f20 	andeq	r8, r0, r0, lsr #30
 114:	00000034 	andeq	r0, r0, r4, lsr r0
	...
 120:	0000001c 	andeq	r0, r0, ip, lsl r0
 124:	270f0002 	strcs	r0, [pc, -r2]
 128:	00040000 	andeq	r0, r4, r0
 12c:	00000000 	andeq	r0, r0, r0
 130:	00008f54 	andeq	r8, r0, r4, asr pc
 134:	00000740 	andeq	r0, r0, r0, asr #14
	...
 140:	0000001c 	andeq	r0, r0, ip, lsl r0
 144:	31ea0002 	mvncc	r0, r2
 148:	00040000 	andeq	r0, r4, r0
 14c:	00000000 	andeq	r0, r0, r0
 150:	00009694 	muleq	r0, r4, r6
 154:	0000002c 	andeq	r0, r0, ip, lsr #32
	...
 160:	0000001c 	andeq	r0, r0, ip, lsl r0
 164:	331d0002 	tstcc	sp, #2, 0
 168:	00040000 	andeq	r0, r4, r0
 16c:	00000000 	andeq	r0, r0, r0
 170:	000096c0 	andeq	r9, r0, r0, asr #13
 174:	0000003c 	andeq	r0, r0, ip, lsr r0
	...
 180:	0000001c 	andeq	r0, r0, ip, lsl r0
 184:	34aa0002 	strtcc	r0, [sl], #2
 188:	00040000 	andeq	r0, r4, r0
 18c:	00000000 	andeq	r0, r0, r0
 190:	000096fc 	strdeq	r9, [r0], -ip
 194:	00000004 	andeq	r0, r0, r4
	...
 1a0:	0000001c 	andeq	r0, r0, ip, lsl r0
 1a4:	357c0002 	ldrbcc	r0, [ip, #-2]!
 1a8:	00040000 	andeq	r0, r4, r0
 1ac:	00000000 	andeq	r0, r0, r0
 1b0:	00009700 	andeq	r9, r0, r0, lsl #14
 1b4:	00000080 	andeq	r0, r0, r0, lsl #1
	...
 1c0:	0000001c 	andeq	r0, r0, ip, lsl r0
 1c4:	37b60002 	ldrcc	r0, [r6, r2]!
 1c8:	00040000 	andeq	r0, r4, r0
 1cc:	00000000 	andeq	r0, r0, r0
 1d0:	00009780 	andeq	r9, r0, r0, lsl #15
 1d4:	00000084 	andeq	r0, r0, r4, lsl #1
	...
 1e0:	0000001c 	andeq	r0, r0, ip, lsl r0
 1e4:	3a070002 	bcc	1c01f4 <__bss_end__+0x1b53ec>
 1e8:	00040000 	andeq	r0, r4, r0
 1ec:	00000000 	andeq	r0, r0, r0
 1f0:	00009804 	andeq	r9, r0, r4, lsl #16
 1f4:	000001f0 	strdeq	r0, [r0], -r0	; <UNPREDICTABLE>
	...
 200:	0000001c 	andeq	r0, r0, ip, lsl r0
 204:	3fd80002 	svccc	0x00d80002
 208:	00040000 	andeq	r0, r4, r0
 20c:	00000000 	andeq	r0, r0, r0
 210:	000099f4 	strdeq	r9, [r0], -r4
 214:	000003b0 			; <UNDEFINED> instruction: 0x000003b0
	...
 220:	0000001c 	andeq	r0, r0, ip, lsl r0
 224:	48c50002 	stmiami	r5, {r1}^
 228:	00040000 	andeq	r0, r4, r0
 22c:	00000000 	andeq	r0, r0, r0
 230:	00009da4 	andeq	r9, r0, r4, lsr #27
 234:	0000003c 	andeq	r0, r0, ip, lsr r0
	...
 240:	0000001c 	andeq	r0, r0, ip, lsl r0
 244:	4a120002 	bmi	480254 <__bss_end__+0x47544c>
 248:	00040000 	andeq	r0, r4, r0
 24c:	00000000 	andeq	r0, r0, r0
 250:	00009de0 	andeq	r9, r0, r0, ror #27
 254:	00000034 	andeq	r0, r0, r4, lsr r0
	...
 260:	0000001c 	andeq	r0, r0, ip, lsl r0
 264:	4b4d0002 	blmi	1340274 <__bss_end__+0x133546c>
 268:	00040000 	andeq	r0, r4, r0
 26c:	00000000 	andeq	r0, r0, r0
 270:	00009e14 	andeq	r9, r0, r4, lsl lr
 274:	0000002c 	andeq	r0, r0, ip, lsr #32
	...
 280:	0000001c 	andeq	r0, r0, ip, lsl r0
 284:	4c480002 	mcrrmi	0, 0, r0, r8, cr2
 288:	00040000 	andeq	r0, r4, r0
 28c:	00000000 	andeq	r0, r0, r0
 290:	00009e40 	andeq	r9, r0, r0, asr #28
 294:	00000020 	andeq	r0, r0, r0, lsr #32
	...
 2a0:	0000001c 	andeq	r0, r0, ip, lsl r0
 2a4:	4d5b0002 	ldclmi	0, cr0, [fp, #-8]
 2a8:	00040000 	andeq	r0, r4, r0
 2ac:	00000000 	andeq	r0, r0, r0
 2b0:	00009e60 	andeq	r9, r0, r0, ror #28
 2b4:	0000002c 	andeq	r0, r0, ip, lsr #32
	...
 2c0:	0000001c 	andeq	r0, r0, ip, lsl r0
 2c4:	4ead0002 	cdpmi	0, 10, cr0, cr13, cr2, {0}
 2c8:	00040000 	andeq	r0, r4, r0
 2cc:	00000000 	andeq	r0, r0, r0
 2d0:	00009e8c 	andeq	r9, r0, ip, lsl #29
 2d4:	00000004 	andeq	r0, r0, r4
	...
 2e0:	0000001c 	andeq	r0, r0, ip, lsl r0
 2e4:	4f7f0002 	svcmi	0x007f0002
 2e8:	00040000 	andeq	r0, r4, r0
 2ec:	00000000 	andeq	r0, r0, r0
 2f0:	00009ea8 	andeq	r9, r0, r8, lsr #29
 2f4:	0000011c 	andeq	r0, r0, ip, lsl r1
	...

Disassembly of section .debug_line:

00000000 <.debug_line>:
       0:	0000018e 	andeq	r0, r0, lr, lsl #3
       4:	01100003 	tsteq	r0, r3
       8:	01020000 	mrseq	r0, (UNDEF: 2)
       c:	000d0efb 	strdeq	r0, [sp], -fp
      10:	01010101 	tsteq	r1, r1, lsl #2
      14:	01000000 	mrseq	r0, (UNDEF: 0)
      18:	2e010000 	cdpcs	0, 0, cr0, cr1, cr0, {0}
      1c:	73657400 	cmnvc	r5, #0, 8
      20:	332d7374 			; <UNDEFINED> instruction: 0x332d7374
      24:	2f00302e 	svccs	0x0000302e
      28:	2f727375 	svccs	0x00727375
      2c:	61636f6c 	cmnvs	r3, ip, ror #30
      30:	65432f6c 	strbvs	r2, [r3, #-3948]	; 0xfffff094
      34:	72616c6c 	rsbvc	r6, r1, #108, 24	; 0x6c00
      38:	6d72612f 	ldfvse	f6, [r2, #-188]!	; 0xffffff44
      3c:	6e6f6e2d 	cdpvs	14, 6, cr6, cr15, cr13, {1}
      40:	61652d65 	cmnvs	r5, r5, ror #26
      44:	742d6962 	strtvc	r6, [sp], #-2402	; 0xfffff69e
      48:	2f747365 	svccs	0x00747365
      4c:	30322d39 	eorscc	r2, r2, r9, lsr sp
      50:	34713931 	ldrbtcc	r3, [r1], #-2353	; 0xfffff6cf
      54:	3173632d 	cmncc	r3, sp, lsr #6
      58:	2f653730 	svccs	0x00653730
      5c:	2f62696c 	svccs	0x0062696c
      60:	2f636367 	svccs	0x00636367
      64:	2d6d7261 	sfmcs	f7, 2, [sp, #-388]!	; 0xfffffe7c
      68:	656e6f6e 	strbvs	r6, [lr, #-3950]!	; 0xfffff092
      6c:	6261652d 	rsbvs	r6, r1, #188743680	; 0xb400000
      70:	2e392f69 	cdpcs	15, 3, cr2, cr9, cr9, {3}
      74:	2f312e32 	svccs	0x00312e32
      78:	6c636e69 	stclvs	14, cr6, [r3], #-420	; 0xfffffe5c
      7c:	00656475 	rsbeq	r6, r5, r5, ror r4
      80:	6573552f 	ldrbvs	r5, [r3, #-1327]!	; 0xfffffad1
      84:	742f7372 	strtvc	r7, [pc], #-882	; 8c <__code_start__-0x7f74>
      88:	74736972 	ldrbtvc	r6, [r3], #-2418	; 0xfffff68e
      8c:	6f6e6e65 	svcvs	0x006e6e65
      90:	616d6c6c 	cmnvs	sp, ip, ror #24
      94:	6f442f6e 	svcvs	0x00442f6e
      98:	656d7563 	strbvs	r7, [sp, #-1379]!	; 0xfffffa9d
      9c:	2f73746e 	svccs	0x0073746e
      a0:	69727053 	ldmdbvs	r2!, {r0, r1, r4, r6, ip, sp, lr}^
      a4:	515f676e 	cmppl	pc, lr, ror #14
      a8:	74726175 	ldrbtvc	r6, [r2], #-373	; 0xfffffe8b
      ac:	325f7265 	subscc	r7, pc, #1342177286	; 0x50000006
      b0:	2f323230 	svccs	0x00323230
      b4:	34325343 	ldrtcc	r5, [r2], #-835	; 0xfffffcbd
      b8:	2d584c30 	ldclcs	12, cr4, [r8, #-192]	; 0xffffff40
      bc:	32727073 	rsbscc	r7, r2, #115, 0	; 0x73
      c0:	696c2f32 	stmdbvs	ip!, {r1, r4, r5, r8, r9, sl, fp, sp}^
      c4:	2f697062 	svccs	0x00697062
      c8:	6c636e69 	stclvs	14, cr6, [r3], #-420	; 0xfffffe5c
      cc:	00656475 	rsbeq	r6, r5, r5, ror r4
      d0:	616b6300 	cmnvs	fp, r0, lsl #6
      d4:	636f6c6c 	cmnvs	pc, #108, 24	; 0x6c00
      d8:	0100682e 	tsteq	r0, lr, lsr #16
      dc:	61700000 	cmnvs	r0, r0
      e0:	2d317472 	cfldrscs	mvf7, [r1, #-456]!	; 0xfffffe38
      e4:	74736574 	ldrbtvc	r6, [r3], #-1396	; 0xfffffa8c
      e8:	75622d33 	strbvc	r2, [r2, #-3379]!	; 0xfffff2cd
      ec:	00632e67 	rsbeq	r2, r3, r7, ror #28
      f0:	73000002 	movwvc	r0, #2
      f4:	6c2d6372 	stcvs	3, cr6, [sp], #-456	; 0xfffffe38
      f8:	682e636f 	stmdavs	lr!, {r0, r1, r2, r3, r5, r6, r8, r9, sp, lr}
      fc:	00000100 	andeq	r0, r0, r0, lsl #2
     100:	69647473 	stmdbvs	r4!, {r0, r1, r4, r5, r6, sl, ip, sp, lr}^
     104:	672d746e 	strvs	r7, [sp, -lr, ror #8]!
     108:	682e6363 	stmdavs	lr!, {r0, r1, r5, r6, r8, r9, sp, lr}
     10c:	00000300 	andeq	r0, r0, r0, lsl #6
     110:	2e697072 	mcrcs	0, 3, r7, cr9, cr2, {3}
     114:	00040068 	andeq	r0, r4, r8, rrx
     118:	24050000 	strcs	r0, [r5], #-0
     11c:	38020500 	stmdacc	r2, {r8, sl}
     120:	03000080 	movweq	r0, #128	; 0x80
     124:	05050128 	streq	r0, [r5, #-296]	; 0xfffffed8
     128:	01051313 	tsteq	r5, r3, lsl r3
     12c:	042e1306 	strteq	r1, [lr], #-774	; 0xfffffcfa
     130:	06140502 	ldreq	r0, [r4], -r2, lsl #10
     134:	052e5903 	streq	r5, [lr, #-2307]!	; 0xfffff6fd
     138:	044d4b05 	strbeq	r4, [sp], #-2821	; 0xfffff4fb
     13c:	150b0503 	strne	r0, [fp, #-1283]	; 0xfffffafd
     140:	05130505 	ldreq	r0, [r3, #-1285]	; 0xfffffafb
     144:	ba01060c 	blt	4197c <__bss_end__+0x36b74>
     148:	0f050204 	svceq	0x00050204
     14c:	0605050e 	streq	r0, [r5], -lr, lsl #10
     150:	0304679f 	movweq	r6, #18335	; 0x479f
     154:	05130b05 	ldreq	r0, [r3, #-2821]	; 0xfffff4fb
     158:	0c051305 	stceq	3, cr1, [r5], {5}
     15c:	04820106 	streq	r0, [r2], #262	; 0x106
     160:	10050502 	andne	r0, r5, r2, lsl #10
     164:	0a058406 	beq	161184 <__bss_end__+0x15637c>
     168:	05050106 	streq	r0, [r5, #-262]	; 0xfffffefa
     16c:	05134b06 	ldreq	r4, [r3, #-2822]	; 0xfffff4fa
     170:	05010610 	streq	r0, [r1, #-1552]	; 0xfffff9f0
     174:	09052e07 	stmdbeq	r5, {r0, r1, r2, r9, sl, fp, sp}
     178:	01144b06 	tsteq	r4, r6, lsl #22
     17c:	9e062e06 	cdpls	14, 0, cr2, cr6, cr6, {0}
     180:	13060105 	movwne	r0, #24837	; 0x6105
     184:	47060905 	strmi	r0, [r6, -r5, lsl #18]
     188:	069e0601 	ldreq	r0, [lr], r1, lsl #12
     18c:	000c022e 	andeq	r0, ip, lr, lsr #4
     190:	05210101 	streq	r0, [r1, #-257]!	; 0xfffffeff
     194:	00030000 	andeq	r0, r3, r0
     198:	0000010b 	andeq	r0, r0, fp, lsl #2
     19c:	0efb0102 	cdpeq	1, 15, cr0, cr11, cr2, {0}
     1a0:	0101000d 	tsteq	r1, sp
     1a4:	00000101 	andeq	r0, r0, r1, lsl #2
     1a8:	00000100 	andeq	r0, r0, r0, lsl #2
     1ac:	73752f01 	cmnvc	r5, #1, 30
     1b0:	6f6c2f72 	svcvs	0x006c2f72
     1b4:	2f6c6163 	svccs	0x006c6163
     1b8:	6c6c6543 	cfstr64vs	mvdx6, [ip], #-268	; 0xfffffef4
     1bc:	612f7261 			; <UNDEFINED> instruction: 0x612f7261
     1c0:	6e2d6d72 	mcrvs	13, 1, r6, cr13, cr2, {3}
     1c4:	2d656e6f 	stclcs	14, cr6, [r5, #-444]!	; 0xfffffe44
     1c8:	69626165 	stmdbvs	r2!, {r0, r2, r5, r6, r8, sp, lr}^
     1cc:	7365742d 	cmnvc	r5, #754974720	; 0x2d000000
     1d0:	2d392f74 	ldccs	15, cr2, [r9, #-464]!	; 0xfffffe30
     1d4:	39313032 	ldmdbcc	r1!, {r1, r4, r5, ip, sp}
     1d8:	632d3471 			; <UNDEFINED> instruction: 0x632d3471
     1dc:	37303173 			; <UNDEFINED> instruction: 0x37303173
     1e0:	696c2f65 	stmdbvs	ip!, {r0, r2, r5, r6, r8, r9, sl, fp, sp}^
     1e4:	63672f62 	cmnvs	r7, #392	; 0x188
     1e8:	72612f63 	rsbvc	r2, r1, #396	; 0x18c
     1ec:	6f6e2d6d 	svcvs	0x006e2d6d
     1f0:	652d656e 	strvs	r6, [sp, #-1390]!	; 0xfffffa92
     1f4:	2f696261 	svccs	0x00696261
     1f8:	2e322e39 	mrccs	14, 1, r2, cr2, cr9, {1}
     1fc:	6e692f31 	mcrvs	15, 3, r2, cr9, cr1, {1}
     200:	64756c63 	ldrbtvs	r6, [r5], #-3171	; 0xfffff39d
     204:	552f0065 	strpl	r0, [pc, #-101]!	; 1a7 <__code_start__-0x7e59>
     208:	73726573 	cmnvc	r2, #482344960	; 0x1cc00000
     20c:	6972742f 	ldmdbvs	r2!, {r0, r1, r2, r3, r5, sl, ip, sp, lr}^
     210:	6e657473 	mcrvs	4, 3, r7, cr5, cr3, {3}
     214:	6c6c6f6e 	stclvs	15, cr6, [ip], #-440	; 0xfffffe48
     218:	2f6e616d 	svccs	0x006e616d
     21c:	75636f44 	strbvc	r6, [r3, #-3908]!	; 0xfffff0bc
     220:	746e656d 	strbtvc	r6, [lr], #-1389	; 0xfffffa93
     224:	70532f73 	subsvc	r2, r3, r3, ror pc
     228:	676e6972 			; <UNDEFINED> instruction: 0x676e6972
     22c:	6175515f 	cmnvs	r5, pc, asr r1
     230:	72657472 	rsbvc	r7, r5, #1912602624	; 0x72000000
     234:	3230325f 	eorscc	r3, r0, #-268435451	; 0xf0000005
     238:	53432f32 	movtpl	r2, #16178	; 0x3f32
     23c:	4c303432 	cfldrsmi	mvf3, [r0], #-200	; 0xffffff38
     240:	70732d58 	rsbsvc	r2, r3, r8, asr sp
     244:	2f323272 	svccs	0x00323272
     248:	7062696c 	rsbvc	r6, r2, ip, ror #18
     24c:	6e692f69 	cdpvs	15, 6, cr2, cr9, cr9, {3}
     250:	64756c63 	ldrbtvs	r6, [r5], #-3171	; 0xfffff39d
     254:	63000065 	movwvs	r0, #101	; 0x65
     258:	6c6c616b 	stfvse	f6, [ip], #-428	; 0xfffffe54
     25c:	632e636f 			; <UNDEFINED> instruction: 0x632e636f
     260:	00000000 	andeq	r0, r0, r0
     264:	6c616b63 			; <UNDEFINED> instruction: 0x6c616b63
     268:	2e636f6c 	cdpcs	15, 6, cr6, cr3, cr12, {3}
     26c:	00000068 	andeq	r0, r0, r8, rrx
     270:	64747300 	ldrbtvs	r7, [r4], #-768	; 0xfffffd00
     274:	2d746e69 	ldclcs	14, cr6, [r4, #-420]!	; 0xfffffe5c
     278:	2e636367 	cdpcs	3, 6, cr6, cr3, cr7, {3}
     27c:	00010068 	andeq	r0, r1, r8, rrx
     280:	69707200 	ldmdbvs	r0!, {r9, ip, sp, lr}^
     284:	0200682e 	andeq	r6, r0, #3014656	; 0x2e0000
     288:	72730000 	rsbsvc	r0, r3, #0, 0
     28c:	6f6c2d63 	svcvs	0x006c2d63
     290:	00682e63 	rsbeq	r2, r8, r3, ror #28
     294:	6b000000 	blvs	29c <__code_start__-0x7d64>
     298:	616d2d72 	smcvs	53970	; 0xd2d2
     29c:	636f6c6c 	cmnvs	pc, #108, 24	; 0x6c00
     2a0:	0000682e 	andeq	r6, r0, lr, lsr #16
     2a4:	05000000 	streq	r0, [r0, #-0]
     2a8:	0205002d 	andeq	r0, r5, #45, 0	; 0x2d
     2ac:	0000810c 	andeq	r8, r0, ip, lsl #2
     2b0:	05011d03 	streq	r1, [r1, #-3331]	; 0xfffff2fd
     2b4:	10051302 	andne	r1, r5, r2, lsl #6
     2b8:	05050106 	streq	r0, [r5, #-262]	; 0xfffffefa
     2bc:	0603054a 	streq	r0, [r3], -sl, asr #10
     2c0:	02000150 	andeq	r0, r0, #20
     2c4:	004a0204 	subeq	r0, sl, r4, lsl #4
     2c8:	01020402 	tsteq	r2, r2, lsl #8
     2cc:	02040200 	andeq	r0, r4, #0, 4
     2d0:	04020013 	streq	r0, [r2], #-19	; 0xffffffed
     2d4:	0d051302 	stceq	3, cr1, [r5, #-8]
     2d8:	02040200 	andeq	r0, r4, #0, 4
     2dc:	03050106 	movweq	r0, #20742	; 0x5106
     2e0:	02040200 	andeq	r0, r4, #0, 4
     2e4:	13054b06 	movwne	r4, #23302	; 0x5b06
     2e8:	02040200 	andeq	r0, r4, #0, 4
     2ec:	03050106 	movweq	r0, #20742	; 0x5106
     2f0:	02040200 	andeq	r0, r4, #0, 4
     2f4:	02002f06 	andeq	r2, r0, #6, 30
     2f8:	2e060204 	cdpcs	2, 0, cr0, cr6, cr4, {0}
     2fc:	01780306 	cmneq	r8, r6, lsl #6
     300:	01060e05 	tsteq	r6, r5, lsl #28
     304:	4b060305 	blmi	180f20 <__bss_end__+0x176118>
     308:	01060d05 	tsteq	r6, r5, lsl #26
     30c:	2f060305 	svccs	0x00060305
     310:	02002d05 	andeq	r2, r0, #320	; 0x140
     314:	29060104 	stmdbcs	r6, {r2, r8}
     318:	02000305 	andeq	r0, r0, #335544320	; 0x14000000
     31c:	51060104 	tstpl	r6, r4, lsl #2
     320:	01040200 	mrseq	r0, R12_usr
     324:	04020001 	streq	r0, [r2], #-1
     328:	009e0601 	addseq	r0, lr, r1, lsl #12
     32c:	2e010402 	cdpcs	4, 0, cr0, cr1, cr2, {0}
     330:	01040200 	mrseq	r0, R12_usr
     334:	1b052e06 	blne	14bb54 <__bss_end__+0x140d4c>
     338:	05ba0903 	ldreq	r0, [sl, #2307]!	; 0x903
     33c:	01051305 	tsteq	r5, r5, lsl #6
     340:	1e051306 	cdpne	3, 0, cr1, cr5, cr6, {0}
     344:	05058506 	streq	r8, [r5, #-1286]	; 0xfffffafa
     348:	06070513 			; <UNDEFINED> instruction: 0x06070513
     34c:	09052e01 	stmdbeq	r5, {r0, r9, sl, fp, sp}
     350:	11052f06 	tstne	r5, r6, lsl #30
     354:	01050106 	tsteq	r5, r6, lsl #2
     358:	061e0530 			; <UNDEFINED> instruction: 0x061e0530
     35c:	13050531 	movwne	r0, #21809	; 0x5531
     360:	13060105 	movwne	r0, #24837	; 0x6105
     364:	061c052e 	ldreq	r0, [ip], -lr, lsr #10
     368:	05010631 	streq	r0, [r1, #-1585]	; 0xfffff9cf
     36c:	054b0605 	strbeq	r0, [fp, #-1541]	; 0xfffff9fb
     370:	04010614 	streq	r0, [r1], #-1556	; 0xfffff9ec
     374:	06180502 	ldreq	r0, [r8], -r2, lsl #10
     378:	052e7603 	streq	r7, [lr, #-1539]!	; 0xfffff9fd
     37c:	0d051305 	stceq	3, cr1, [r5, #-20]	; 0xffffffec
     380:	042e0106 	strteq	r0, [lr], #-262	; 0xfffffefa
     384:	03010501 	movweq	r0, #5377	; 0x1501
     388:	2f05010a 	svccs	0x0005010a
     38c:	02054d06 	andeq	r4, r5, #384	; 0x180
     390:	061a0513 			; <UNDEFINED> instruction: 0x061a0513
     394:	2e290501 	cfsh64cs	mvdx0, mvdx9, #1
     398:	054a0505 	strbeq	r0, [sl, #-1285]	; 0xfffffafb
     39c:	04020048 	streq	r0, [r2], #-72	; 0xffffffb8
     3a0:	35054a01 	strcc	r4, [r5, #-2561]	; 0xfffff5ff
     3a4:	01040200 	mrseq	r0, R12_usr
     3a8:	4d09052e 	cfstr32mi	mvfx0, [r9, #-184]	; 0xffffff48
     3ac:	052e2e2e 	streq	r2, [lr, #-3630]!	; 0xfffff1d2
     3b0:	01052c0a 	tsteq	r5, sl, lsl #24
     3b4:	06210531 			; <UNDEFINED> instruction: 0x06210531
     3b8:	05010631 	streq	r0, [r1, #-1585]	; 0xfffff9cf
     3bc:	054b0602 	strbeq	r0, [fp, #-1538]	; 0xfffff9fe
     3c0:	11050106 	tstne	r5, r6, lsl #2
     3c4:	052e0106 	streq	r0, [lr, #-262]!	; 0xfffffefa
     3c8:	04020021 	streq	r0, [r2], #-33	; 0xffffffdf
     3cc:	052e0601 	streq	r0, [lr, #-1537]!	; 0xfffff9ff
     3d0:	04020002 	streq	r0, [r2], #-2
     3d4:	05010601 	streq	r0, [r1, #-1537]	; 0xfffff9ff
     3d8:	054b0609 	strbeq	r0, [fp, #-1545]	; 0xfffff9f7
     3dc:	4a01060c 	bmi	41c14 <__bss_end__+0x36e0c>
     3e0:	052e0b05 	streq	r0, [lr, #-2821]!	; 0xfffff4fb
     3e4:	04020024 	streq	r0, [r2], #-36	; 0xffffffdc
     3e8:	05490602 	strbeq	r0, [r9, #-1538]	; 0xfffff9fe
     3ec:	04020028 	streq	r0, [r2], #-40	; 0xffffffd8
     3f0:	00010602 	andeq	r0, r1, r2, lsl #12
     3f4:	66020402 	strvs	r0, [r2], -r2, lsl #8
     3f8:	30060d05 	andcc	r0, r6, r5, lsl #26
     3fc:	06138201 	ldreq	r8, [r3], -r1, lsl #4
     400:	16010501 	strne	r0, [r1], -r1, lsl #10
     404:	68062505 	stmdavs	r6, {r0, r2, r8, sl, sp}
     408:	05050106 	streq	r0, [r5, #-262]	; 0xfffffefa
     40c:	09054b06 	stmdbeq	r5, {r1, r2, r8, r9, fp, lr}
     410:	06140501 	ldreq	r0, [r4], -r1, lsl #10
     414:	05052e01 	streq	r2, [r5, #-3585]	; 0xfffff1ff
     418:	0027052e 	eoreq	r0, r7, lr, lsr #10
     41c:	06020402 	streq	r0, [r2], -r2, lsl #8
     420:	002b052e 	eoreq	r0, fp, lr, lsr #10
     424:	06020402 	streq	r0, [r2], -r2, lsl #8
     428:	00240501 	eoreq	r0, r4, r1, lsl #10
     42c:	06010402 	streq	r0, [r1], -r2, lsl #8
     430:	00050566 	andeq	r0, r5, r6, ror #10
     434:	06010402 	streq	r0, [r1], -r2, lsl #8
     438:	06090501 	streq	r0, [r9], -r1, lsl #10
     43c:	060c054b 	streq	r0, [ip], -fp, asr #10
     440:	0b054a01 	bleq	152c4c <__bss_end__+0x147e44>
     444:	0027052e 	eoreq	r0, r7, lr, lsr #10
     448:	4a010402 	bmi	41458 <__bss_end__+0x36650>
     44c:	02002305 	andeq	r2, r0, #335544320	; 0x14000000
     450:	052e0104 	streq	r0, [lr, #-260]!	; 0xfffffefc
     454:	014b060d 	cmpeq	fp, sp, lsl #12
     458:	01061382 	smlabbeq	r6, r2, r3, r1
     45c:	05160105 	ldreq	r0, [r6, #-261]	; 0xfffffefb
     460:	06690637 			; <UNDEFINED> instruction: 0x06690637
     464:	06020501 	streq	r0, [r2], -r1, lsl #10
     468:	05020467 	streq	r0, [r2, #-1127]	; 0xfffffb99
     46c:	01620318 	cmneq	r2, r8, lsl r3
     470:	05130505 	ldreq	r0, [r3, #-1285]	; 0xfffffafb
     474:	2e01060c 	cfmadd32cs	mvax0, mvfx0, mvfx1, mvfx12
     478:	0501042e 	streq	r0, [r1, #-1070]	; 0xfffffbd2
     47c:	1e030602 	cfmadd32ne	mvax0, mvfx0, mvfx3, mvfx2
     480:	06100501 	ldreq	r0, [r0], -r1, lsl #10
     484:	02056601 	andeq	r6, r5, #1048576	; 0x100000
     488:	10054b06 	andne	r4, r5, r6, lsl #22
     48c:	05660106 	strbeq	r0, [r6, #-262]!	; 0xfffffefa
     490:	05310602 	ldreq	r0, [r1, #-1538]!	; 0xfffff9fe
     494:	05010622 	streq	r0, [r1, #-1570]	; 0xfffff9de
     498:	052e2f01 	streq	r2, [lr, #-3841]!	; 0xfffff0ff
     49c:	054d061e 	strbeq	r0, [sp, #-1566]	; 0xfffff9e2
     4a0:	07051502 	streq	r1, [r5, -r2, lsl #10]
     4a4:	05050106 	streq	r0, [r5, #-262]	; 0xfffffefa
     4a8:	4e10052e 	cfmul64mi	mvdx0, mvdx0, mvdx14
     4ac:	02001705 	andeq	r1, r0, #1310720	; 0x140000
     4b0:	2e060104 	adfcss	f0, f6, f4
     4b4:	02001c05 	andeq	r1, r0, #1280	; 0x500
     4b8:	01060104 	tsteq	r6, r4, lsl #2
     4bc:	02000205 	andeq	r0, r0, #1342177280	; 0x50000000
     4c0:	052e0104 	streq	r0, [lr, #-260]!	; 0xfffffefc
     4c4:	054b0603 	strbeq	r0, [fp, #-1539]	; 0xfffff9fd
     4c8:	0501060b 	streq	r0, [r1, #-1547]	; 0xfffff9f5
     4cc:	2c054a06 			; <UNDEFINED> instruction: 0x2c054a06
     4d0:	02040200 	andeq	r0, r4, #0, 4
     4d4:	2d054906 	vstrcs.16	s8, [r5, #-12]	; <UNPREDICTABLE>
     4d8:	02040200 	andeq	r0, r4, #0, 4
     4dc:	02000106 	andeq	r0, r0, #-2147483647	; 0x80000001
     4e0:	002e0204 	eoreq	r0, lr, r4, lsl #4
     4e4:	2e020402 	cdpcs	4, 0, cr0, cr2, cr2, {0}
     4e8:	2e170905 	vnmlscs.f16	s0, s14, s10	; <UNPREDICTABLE>
     4ec:	030a052e 	movweq	r0, #42286	; 0xa52e
     4f0:	052e0178 	streq	r0, [lr, #-376]!	; 0xfffffe88
     4f4:	052e330b 	streq	r3, [lr, #-779]!	; 0xfffffcf5
     4f8:	1a051601 	bne	145d04 <__bss_end__+0x13aefc>
     4fc:	02053006 	andeq	r3, r5, #6, 0
     500:	134a014b 	movtne	r0, #41291	; 0xa14b
     504:	01061005 	tsteq	r6, r5
     508:	4b060205 	blmi	180d24 <__bss_end__+0x175f1c>
     50c:	06190513 			; <UNDEFINED> instruction: 0x06190513
     510:	02056601 	andeq	r6, r5, #1048576	; 0x100000
     514:	05134b06 	ldreq	r4, [r3, #-2822]	; 0xfffff4fa
     518:	0511060b 	ldreq	r0, [r1, #-1547]	; 0xfffff9f5
     51c:	04052f08 	streq	r2, [r5], #-3848	; 0xfffff0f8
     520:	4a013006 	bmi	4c540 <__bss_end__+0x41738>
     524:	06080514 			; <UNDEFINED> instruction: 0x06080514
     528:	04052e01 	streq	r2, [r5], #-3585	; 0xfffff1ff
     52c:	4a013106 	bmi	4c94c <__bss_end__+0x41b44>
     530:	06080513 			; <UNDEFINED> instruction: 0x06080513
     534:	06030501 	streq	r0, [r3], -r1, lsl #10
     538:	060a0530 			; <UNDEFINED> instruction: 0x060a0530
     53c:	06080501 	streq	r0, [r8], -r1, lsl #10
     540:	05667603 	strbeq	r7, [r6, #-1539]!	; 0xfffff9fd
     544:	07054b03 	streq	r4, [r5, -r3, lsl #22]
     548:	06050106 	streq	r0, [r5], -r6, lsl #2
     54c:	06030566 	streq	r0, [r3], -r6, ror #10
     550:	0607054f 	streq	r0, [r7], -pc, asr #10
     554:	4a060501 	bmi	181960 <__bss_end__+0x176b58>
     558:	0602054a 	streq	r0, [r2], -sl, asr #10
     55c:	06010535 			; <UNDEFINED> instruction: 0x06010535
     560:	28056613 	stmdacs	r5, {r0, r1, r4, r9, sl, sp, lr}
     564:	02050006 	andeq	r0, r5, #6, 0
     568:	000083ec 	andeq	r8, r0, ip, ror #7
     56c:	82010616 	andhi	r0, r1, #23068672	; 0x1600000
     570:	2f060505 	svccs	0x00060505
     574:	06090513 			; <UNDEFINED> instruction: 0x06090513
     578:	2e070501 	cfsh32cs	mvfx0, mvfx7, #1
     57c:	67060905 	strvs	r0, [r6, -r5, lsl #18]
     580:	01130505 	tsteq	r3, r5, lsl #10
     584:	0113829e 			; <UNDEFINED> instruction: 0x0113829e
     588:	02040200 	andeq	r0, r4, #0, 4
     58c:	04020082 	streq	r0, [r2], #-130	; 0xffffff7e
     590:	02000102 	andeq	r0, r0, #-2147483648	; 0x80000000
     594:	05130204 	ldreq	r0, [r3, #-516]	; 0xfffffdfc
     598:	0402000e 	streq	r0, [r2], #-14
     59c:	05010602 	streq	r0, [r1, #-1538]	; 0xfffff9fe
     5a0:	04020002 	streq	r0, [r2], #-2
     5a4:	004b0602 	subeq	r0, fp, r2, lsl #12
     5a8:	13020402 	movwne	r0, #9218	; 0x2402
     5ac:	02000705 	andeq	r0, r0, #1310720	; 0x140000
     5b0:	05010204 	streq	r0, [r1, #-516]	; 0xfffffdfc
     5b4:	04020010 	streq	r0, [r2], #-16
     5b8:	05010602 	streq	r0, [r1, #-1538]	; 0xfffff9fe
     5bc:	04020017 	streq	r0, [r2], #-23	; 0xffffffe9
     5c0:	052e0601 	streq	r0, [lr, #-1537]!	; 0xfffff9ff
     5c4:	04020002 	streq	r0, [r2], #-2
     5c8:	05010601 	streq	r0, [r1, #-1537]	; 0xfffff9ff
     5cc:	04020003 	streq	r0, [r2], #-3
     5d0:	054b0603 	strbeq	r0, [fp, #-1539]	; 0xfffff9fd
     5d4:	04020013 	streq	r0, [r2], #-19	; 0xffffffed
     5d8:	05010603 	streq	r0, [r1, #-1539]	; 0xfffff9fd
     5dc:	0402002b 	streq	r0, [r2], #-43	; 0xffffffd5
     5e0:	05810603 	streq	r0, [r1, #1539]	; 0x603
     5e4:	0402002c 	streq	r0, [r2], #-44	; 0xffffffd4
     5e8:	00010603 	andeq	r0, r1, r3, lsl #12
     5ec:	2e030402 	cdpcs	4, 0, cr0, cr3, cr2, {0}
     5f0:	03040200 	movweq	r0, #16896	; 0x4200
     5f4:	0609052e 	streq	r0, [r9], -lr, lsr #10
     5f8:	8282010d 	addhi	r0, r2, #1073741827	; 0x40000003
     5fc:	02000505 	andeq	r0, r0, #20971520	; 0x1400000
     600:	00300104 	eorseq	r0, r0, r4, lsl #2
     604:	01010402 	tsteq	r1, r2, lsl #8
     608:	01040200 	mrseq	r0, R12_usr
     60c:	350205d6 	strcc	r0, [r2, #-1494]	; 0xfffffa2a
     610:	01060605 	tsteq	r6, r5, lsl #12
     614:	05660505 	strbeq	r0, [r6, #-1285]!	; 0xfffffafb
     618:	054b0603 	strbeq	r0, [fp, #-1539]	; 0xfffff9fd
     61c:	05051302 	streq	r1, [r5, #-770]	; 0xfffffcfe
     620:	01050184 	smlabbeq	r5, r4, r1, r0
     624:	03058406 	movweq	r8, #21510	; 0x5406
     628:	f2014506 	vrshl.s8	d4, d6, d1
     62c:	02000505 	andeq	r0, r0, #20971520	; 0x1400000
     630:	00310104 	eorseq	r0, r1, r4, lsl #2
     634:	01010402 	tsteq	r1, r2, lsl #8
     638:	01040200 	mrseq	r0, R12_usr
     63c:	082f05d6 	stmdaeq	pc!, {r1, r2, r4, r6, r7, r8, sl}	; <UNPREDICTABLE>
     640:	0501065f 	streq	r0, [r1, #-1631]	; 0xfffff9a1
     644:	05a00605 	streq	r0, [r0, #1541]!	; 0x605
     648:	2e010610 	mcrcs	6, 0, r0, cr1, cr0, {0}
     64c:	4b060205 	blmi	180e68 <__bss_end__+0x176060>
     650:	85050567 	strhi	r0, [r5, #-1383]	; 0xfffffa99
     654:	01061505 	tsteq	r6, r5, lsl #10
     658:	2f060505 	svccs	0x00060505
     65c:	01060e05 	tsteq	r6, r5, lsl #28
     660:	4b060505 	blmi	181a7c <__bss_end__+0x176c74>
     664:	01061205 	tsteq	r6, r5, lsl #4
     668:	67060205 	strvs	r0, [r6, -r5, lsl #4]
     66c:	01060a05 	tsteq	r6, r5, lsl #20
     670:	4b060205 	blmi	180e8c <__bss_end__+0x176084>
     674:	01060b05 	tsteq	r6, r5, lsl #22
     678:	30060205 	andcc	r0, r6, r5, lsl #4
     67c:	18050204 	stmdane	r5, {r2, r9}
     680:	017f8e03 	cmneq	pc, r3, lsl #28
     684:	05130505 	ldreq	r0, [r3, #-1285]	; 0xfffffafb
     688:	4a01060c 	bmi	41ec0 <__bss_end__+0x370b8>
     68c:	02050104 	andeq	r0, r5, #1
     690:	0100f103 	tsteq	r0, r3, lsl #2	; <UNPREDICTABLE>
     694:	0e056906 	vmlaeq.f16	s12, s10, s12	; <UNPREDICTABLE>
     698:	02050106 	andeq	r0, r5, #-2147483647	; 0x80000001
     69c:	0f056706 	svceq	0x00056706
     6a0:	05050106 	streq	r0, [r5, #-262]	; 0xfffffefa
     6a4:	9e014c06 	cdpls	12, 0, cr4, cr1, cr6, {0}
     6a8:	1402059e 	strne	r0, [r2], #-1438	; 0xfffffa62
     6ac:	06010584 	streq	r0, [r1], -r4, lsl #11
     6b0:	08026614 	stmdaeq	r2, {r2, r4, r9, sl, sp, lr}
     6b4:	0c010100 	stfeqs	f0, [r1], {-0}
     6b8:	03000006 	movweq	r0, #6
     6bc:	0000fa00 	andeq	pc, r0, r0, lsl #20
     6c0:	fb010200 	blx	40eca <__bss_end__+0x360c2>
     6c4:	01000d0e 	tsteq	r0, lr, lsl #26
     6c8:	00010101 	andeq	r0, r1, r1, lsl #2
     6cc:	00010000 	andeq	r0, r1, r0
     6d0:	752f0100 	strvc	r0, [pc, #-256]!	; 5d8 <__code_start__-0x7a28>
     6d4:	6c2f7273 	sfmvs	f7, 4, [pc], #-460	; 510 <__code_start__-0x7af0>
     6d8:	6c61636f 	stclvs	3, cr6, [r1], #-444	; 0xfffffe44
     6dc:	6c65432f 	stclvs	3, cr4, [r5], #-188	; 0xffffff44
     6e0:	2f72616c 	svccs	0x0072616c
     6e4:	2d6d7261 	sfmcs	f7, 2, [sp, #-388]!	; 0xfffffe7c
     6e8:	656e6f6e 	strbvs	r6, [lr, #-3950]!	; 0xfffff092
     6ec:	6261652d 	rsbvs	r6, r1, #188743680	; 0xb400000
     6f0:	65742d69 	ldrbvs	r2, [r4, #-3433]!	; 0xfffff297
     6f4:	392f7473 	stmdbcc	pc!, {r0, r1, r4, r5, r6, sl, ip, sp, lr}	; <UNPREDICTABLE>
     6f8:	3130322d 	teqcc	r0, sp, lsr #4
     6fc:	2d347139 	ldfcss	f7, [r4, #-228]!	; 0xffffff1c
     700:	30317363 	eorscc	r7, r1, r3, ror #6
     704:	6c2f6537 	cfstr32vs	mvfx6, [pc], #-220	; 630 <__code_start__-0x79d0>
     708:	672f6269 	strvs	r6, [pc, -r9, ror #4]!
     70c:	612f6363 			; <UNDEFINED> instruction: 0x612f6363
     710:	6e2d6d72 	mcrvs	13, 1, r6, cr13, cr2, {3}
     714:	2d656e6f 	stclcs	14, cr6, [r5, #-444]!	; 0xfffffe44
     718:	69626165 	stmdbvs	r2!, {r0, r2, r5, r6, r8, sp, lr}^
     71c:	322e392f 	eorcc	r3, lr, #770048	; 0xbc000
     720:	692f312e 	stmdbvs	pc!, {r1, r2, r3, r5, r8, ip, sp}	; <UNPREDICTABLE>
     724:	756c636e 	strbvc	r6, [ip, #-878]!	; 0xfffffc92
     728:	2f006564 	svccs	0x00006564
     72c:	72657355 	rsbvc	r7, r5, #1409286145	; 0x54000001
     730:	72742f73 	rsbsvc	r2, r4, #460	; 0x1cc
     734:	65747369 	ldrbvs	r7, [r4, #-873]!	; 0xfffffc97
     738:	6c6f6e6e 	stclvs	14, cr6, [pc], #-440	; 588 <__code_start__-0x7a78>
     73c:	6e616d6c 	cdpvs	13, 6, cr6, cr1, cr12, {3}
     740:	636f442f 	cmnvs	pc, #788529152	; 0x2f000000
     744:	6e656d75 	mcrvs	13, 3, r6, cr5, cr5, {3}
     748:	532f7374 			; <UNDEFINED> instruction: 0x532f7374
     74c:	6e697270 	mcrvs	2, 3, r7, cr9, cr0, {3}
     750:	75515f67 	ldrbvc	r5, [r1, #-3943]	; 0xfffff099
     754:	65747261 	ldrbvs	r7, [r4, #-609]!	; 0xfffffd9f
     758:	30325f72 	eorscc	r5, r2, r2, ror pc
     75c:	432f3232 			; <UNDEFINED> instruction: 0x432f3232
     760:	30343253 	eorscc	r3, r4, r3, asr r2
     764:	732d584c 			; <UNDEFINED> instruction: 0x732d584c
     768:	32327270 	eorscc	r7, r2, #112, 4
     76c:	62696c2f 	rsbvs	r6, r9, #12032	; 0x2f00
     770:	692f6970 	stmdbvs	pc!, {r4, r5, r6, r8, fp, sp, lr}	; <UNPREDICTABLE>
     774:	756c636e 	strbvc	r6, [ip, #-878]!	; 0xfffffc92
     778:	00006564 	andeq	r6, r0, r4, ror #10
     77c:	672d6b63 	strvs	r6, [sp, -r3, ror #22]!
     780:	00632e63 	rsbeq	r2, r3, r3, ror #28
     784:	73000000 	movwvc	r0, #0
     788:	6e696474 	mcrvs	4, 3, r6, cr9, cr4, {3}
     78c:	63672d74 	cmnvs	r7, #116, 26	; 0x1d00
     790:	00682e63 	rsbeq	r2, r8, r3, ror #28
     794:	72000001 	andvc	r0, r0, #1, 0
     798:	682e6970 	stmdavs	lr!, {r4, r5, r6, r8, fp, sp, lr}
     79c:	00000200 	andeq	r0, r0, r0, lsl #4
     7a0:	2d637273 	sfmcs	f7, 2, [r3, #-460]!	; 0xfffffe34
     7a4:	2e636f6c 	cdpcs	15, 6, cr6, cr3, cr12, {3}
     7a8:	00000068 	andeq	r0, r0, r8, rrx
     7ac:	616b6300 	cmnvs	fp, r0, lsl #6
     7b0:	636f6c6c 	cmnvs	pc, #108, 24	; 0x6c00
     7b4:	0000682e 	andeq	r6, r0, lr, lsr #16
     7b8:	05000000 	streq	r0, [r0, #-0]
     7bc:	0205001d 	andeq	r0, r5, #29, 0
     7c0:	00008638 	andeq	r8, r0, r8, lsr r6
     7c4:	05012503 	streq	r2, [r1, #-1283]	; 0xfffffafd
     7c8:	0a051405 	beq	1457e4 <__bss_end__+0x13a9dc>
     7cc:	07050106 	streq	r0, [r5, -r6, lsl #2]
     7d0:	001c054a 	andseq	r0, ip, sl, asr #10
     7d4:	4a010402 	bmi	417e4 <__bss_end__+0x369dc>
     7d8:	02001705 	andeq	r1, r0, #1310720	; 0x140000
     7dc:	054a0104 	strbeq	r0, [sl, #-260]	; 0xfffffefc
     7e0:	052e4d0c 	streq	r4, [lr, #-3340]!	; 0xfffff2f4
     7e4:	2e2e2c10 	mcrcs	12, 1, r2, cr14, cr0, {0}
     7e8:	05310105 	ldreq	r0, [r1, #-261]!	; 0xfffffefb
     7ec:	c2030635 	andgt	r0, r3, #55574528	; 0x3500000
     7f0:	01064a00 	tsteq	r6, r0, lsl #20
     7f4:	4b060205 	blmi	181010 <__bss_end__+0x176208>
     7f8:	062e0613 			; <UNDEFINED> instruction: 0x062e0613
     7fc:	10054d2f 	andne	r4, r5, pc, lsr #26
     800:	02050106 	andeq	r0, r5, #-2147483647	; 0x80000001
     804:	24054b06 	strcs	r4, [r5], #-2822	; 0xfffff4fa
     808:	017a0306 	cmneq	sl, r6, lsl #6
     80c:	052e1805 	streq	r1, [lr, #-2053]!	; 0xfffff7fb
     810:	08052e0b 	stmdaeq	r5, {r0, r1, r3, r9, sl, fp, sp}
     814:	31270534 			; <UNDEFINED> instruction: 0x31270534
     818:	02000305 	andeq	r0, r0, #335544320	; 0x14000000
     81c:	2f060604 	svccs	0x00060604
     820:	02000605 	andeq	r0, r0, #5242880	; 0x500000
     824:	01060604 	tsteq	r6, r4, lsl #12
     828:	50060a05 	andpl	r0, r6, r5, lsl #20
     82c:	01060d05 	tsteq	r6, r5, lsl #26
     830:	03060a05 	movweq	r0, #27141	; 0x6a05
     834:	0d054a09 	vstreq	s8, [r5, #-36]	; 0xffffffdc
     838:	2a050106 	bcs	140c58 <__bss_end__+0x135e50>
     83c:	01040200 	mrseq	r0, R12_usr
     840:	0023054a 	eoreq	r0, r3, sl, asr #10
     844:	2e010402 	cdpcs	4, 0, cr0, cr1, cr2, {0}
     848:	02003805 	andeq	r3, r0, #327680	; 0x50000
     84c:	054a0204 	strbeq	r0, [sl, #-516]	; 0xfffffdfc
     850:	014d0604 	cmpeq	sp, r4, lsl #12
     854:	062e2e06 	strteq	r2, [lr], -r6, lsl #28
     858:	1005132e 	andne	r1, r5, lr, lsr #6
     85c:	052e0106 	streq	r0, [lr, #-262]!	; 0xfffffefa
     860:	2e6c0327 	cdpcs	3, 6, cr0, cr12, cr7, {1}
     864:	0016052e 	andseq	r0, r6, lr, lsr #10
     868:	2f010402 	svccs	0x00010402
     86c:	02000f05 	andeq	r0, r0, #5, 30
     870:	052e0104 	streq	r0, [lr, #-260]!	; 0xfffffefc
     874:	014b0604 	cmpeq	fp, r4, lsl #12
     878:	2e2e2e06 	cdpcs	14, 2, cr2, cr14, cr6, {0}
     87c:	05152e06 	ldreq	r2, [r5, #-3590]	; 0xfffff1fa
     880:	05010611 	streq	r0, [r1, #-1553]	; 0xfffff9ef
     884:	054b0604 	strbeq	r0, [fp, #-1540]	; 0xfffff9fc
     888:	2e01060a 	cfmadd32cs	mvax0, mvfx0, mvfx1, mvfx10
     88c:	30060405 	andcc	r0, r6, r5, lsl #8
     890:	2e2e0601 	cfmadda32cs	mvax0, mvax0, mvfx14, mvfx1
     894:	142e062e 	strtne	r0, [lr], #-1582	; 0xfffff9d2
     898:	01061005 	tsteq	r6, r5
     89c:	03060305 	movweq	r0, #25349	; 0x6305
     8a0:	9e012e0c 	cdpls	14, 0, cr2, cr1, cr12, {0}
     8a4:	060a0513 			; <UNDEFINED> instruction: 0x060a0513
     8a8:	08056601 	stmdaeq	r5, {r0, r9, sl, sp, lr}
     8ac:	01660306 	cmneq	r6, r6, lsl #6
     8b0:	054b0305 	strbeq	r0, [fp, #-773]	; 0xfffffcfb
     8b4:	0501060a 	streq	r0, [r1, #-1546]	; 0xfffff9f6
     8b8:	052f0603 	streq	r0, [pc, #-1539]!	; 2bd <__code_start__-0x7d43>
     8bc:	0501061a 	streq	r0, [r1, #-1562]	; 0xfffff9e6
     8c0:	03052e22 	movweq	r2, #24098	; 0x5e22
     8c4:	19056706 	stmdbne	r5, {r1, r2, r8, r9, sl, sp, lr}
     8c8:	27050106 	strcs	r0, [r5, -r6, lsl #2]
     8cc:	0402002e 	streq	r0, [r2], #-46	; 0xffffffd2
     8d0:	2e4a4a01 	vmlacs.f32	s9, s20, s2
     8d4:	0602052e 	streq	r0, [r2], -lr, lsr #10
     8d8:	01011b03 	tsteq	r1, r3, lsl #22
     8dc:	2e064a06 	vmlacs.f32	s8, s12, s12
     8e0:	06040513 			; <UNDEFINED> instruction: 0x06040513
     8e4:	06030501 	streq	r0, [r3], -r1, lsl #10
     8e8:	004a014b 	subeq	r0, sl, fp, asr #2
     8ec:	14010402 	strne	r0, [r1], #-1026	; 0xfffffbfe
     8f0:	02000205 	andeq	r0, r0, #1342177280	; 0x50000000
     8f4:	00140104 	andseq	r0, r4, r4, lsl #2
     8f8:	4b010402 	blmi	41908 <__bss_end__+0x36b00>
     8fc:	02000105 	andeq	r0, r0, #1073741825	; 0x40000001
     900:	13060104 	movwne	r0, #24836	; 0x6104
     904:	46060305 	strmi	r0, [r6], -r5, lsl #6
     908:	03220501 			; <UNDEFINED> instruction: 0x03220501
     90c:	c80800d8 	stmdagt	r8, {r3, r4, r6, r7}
     910:	132f0205 			; <UNDEFINED> instruction: 0x132f0205
     914:	10054c4b 	andne	r4, r5, fp, asr #24
     918:	02050106 	andeq	r0, r5, #-2147483647	; 0x80000001
     91c:	22054b06 	andcs	r4, r5, #6144	; 0x1800
     920:	18050d06 	stmdane	r5, {r1, r2, r8, sl, fp}
     924:	2e0b052e 	cfsh32cs	mvfx0, mvfx11, #30
     928:	05330805 	ldreq	r0, [r3, #-2053]!	; 0xfffff7fb
     92c:	05320604 	ldreq	r0, [r2, #-1540]!	; 0xfffff9fc
     930:	05010610 	streq	r0, [r1, #-1552]	; 0xfffff9f0
     934:	054b0604 	strbeq	r0, [fp, #-1540]	; 0xfffff9fc
     938:	0501060a 	streq	r0, [r1, #-1546]	; 0xfffff9f6
     93c:	052f0604 	streq	r0, [pc, #-1540]!	; 340 <__code_start__-0x7cc0>
     940:	05010618 	streq	r0, [r1, #-1560]	; 0xfffff9e8
     944:	04052e11 	streq	r2, [r5], #-3601	; 0xfffff1ef
     948:	06012f06 	streq	r2, [r1], -r6, lsl #30
     94c:	04020066 	streq	r0, [r2], #-102	; 0xffffff9a
     950:	052e0601 	streq	r0, [lr, #-1537]!	; 0xfffff9ff
     954:	04020003 	streq	r0, [r2], #-3
     958:	0a051401 	beq	145964 <__bss_end__+0x13ab5c>
     95c:	01040200 	mrseq	r0, R12_usr
     960:	08050106 	stmdaeq	r5, {r1, r2, r8}
     964:	66770306 	ldrbtvs	r0, [r7], -r6, lsl #6
     968:	054b0305 	strbeq	r0, [fp, #-773]	; 0xfffffcfb
     96c:	0501060a 	streq	r0, [r1, #-1546]	; 0xfffff9f6
     970:	052f0603 	streq	r0, [pc, #-1539]!	; 375 <__code_start__-0x7c8b>
     974:	0501060b 	streq	r0, [r1, #-1547]	; 0xfffff9f5
     978:	25052e06 	strcs	r2, [r5, #-3590]	; 0xfffff1fa
     97c:	01040200 	mrseq	r0, R12_usr
     980:	001e054a 	andseq	r0, lr, sl, asr #10
     984:	2e010402 	cdpcs	4, 0, cr0, cr1, cr2, {0}
     988:	03060205 	movweq	r0, #25093	; 0x6205
     98c:	0601660a 	streq	r6, [r1], -sl, lsl #12
     990:	052e0682 	streq	r0, [lr, #-1666]!	; 0xfffff97e
     994:	01051405 	tsteq	r5, r5, lsl #8
     998:	25051306 	strcs	r1, [r5, #-774]	; 0xfffffcfa
     99c:	7eb20306 	cdpvc	3, 11, cr0, cr2, cr6, {0}
     9a0:	050106ba 	streq	r0, [r1, #-1722]	; 0xfffff946
     9a4:	144b0605 	strbne	r0, [fp], #-1541	; 0xfffff9fb
     9a8:	01060905 	tsteq	r6, r5, lsl #18
     9ac:	052e0705 	streq	r0, [lr, #-1797]!	; 0xfffff8fb
     9b0:	054c0605 	strbeq	r0, [ip, #-1541]	; 0xfffff9fb
     9b4:	0501060c 	streq	r0, [r1, #-1548]	; 0xfffff9f4
     9b8:	01056510 	tsteq	r5, r0, lsl r5
     9bc:	062c0530 			; <UNDEFINED> instruction: 0x062c0530
     9c0:	062e0d03 	strteq	r0, [lr], -r3, lsl #26
     9c4:	06050501 	streq	r0, [r5], -r1, lsl #10
     9c8:	0200014b 	andeq	r0, r0, #-1073741806	; 0xc0000012
     9cc:	00660204 	rsbeq	r0, r6, r4, lsl #4
     9d0:	01020402 	tsteq	r2, r2, lsl #8
     9d4:	02040200 	andeq	r0, r4, #0, 4
     9d8:	04020014 	streq	r0, [r2], #-20	; 0xffffffec
     9dc:	02000102 	andeq	r0, r0, #-2147483648	; 0x80000000
     9e0:	004a0204 	subeq	r0, sl, r4, lsl #4
     9e4:	01020402 	tsteq	r2, r2, lsl #8
     9e8:	02040200 	andeq	r0, r4, #0, 4
     9ec:	04020013 	streq	r0, [r2], #-19	; 0xffffffed
     9f0:	02000102 	andeq	r0, r0, #-2147483648	; 0x80000000
     9f4:	004a0204 	subeq	r0, sl, r4, lsl #4
     9f8:	01020402 	tsteq	r2, r2, lsl #8
     9fc:	02000205 	andeq	r0, r0, #1342177280	; 0x50000000
     a00:	05140204 	ldreq	r0, [r4, #-516]	; 0xfffffdfc
     a04:	0402001f 	streq	r0, [r2], #-31	; 0xffffffe1
     a08:	05010602 	streq	r0, [r1, #-1538]	; 0xfffff9fe
     a0c:	04020011 	streq	r0, [r2], #-17	; 0xffffffef
     a10:	02052e02 	andeq	r2, r5, #2, 28
     a14:	02040200 	andeq	r0, r4, #0, 4
     a18:	07052f06 	streq	r2, [r5, -r6, lsl #30]
     a1c:	02040200 	andeq	r0, r4, #0, 4
     a20:	00020501 	andeq	r0, r2, r1, lsl #10
     a24:	06020402 	streq	r0, [r2], -r2, lsl #8
     a28:	04020001 	streq	r0, [r2], #-1
     a2c:	05052e02 	streq	r2, [r5, #-3586]	; 0xfffff1fe
     a30:	01040200 	mrseq	r0, R12_usr
     a34:	017a0306 	cmneq	sl, r6, lsl #6
     a38:	01040200 	mrseq	r0, R12_usr
     a3c:	04020001 	streq	r0, [r2], #-1
     a40:	009e0601 	addseq	r0, lr, r1, lsl #12
     a44:	2e010402 	cdpcs	4, 0, cr0, cr1, cr2, {0}
     a48:	01040200 	mrseq	r0, R12_usr
     a4c:	02002e06 	andeq	r2, r0, #96	; 0x60
     a50:	00300104 	eorseq	r0, r0, r4, lsl #2
     a54:	01010402 	tsteq	r1, r2, lsl #8
     a58:	01040200 	mrseq	r0, R12_usr
     a5c:	02009e06 	andeq	r9, r0, #96	; 0x60
     a60:	002e0104 	eoreq	r0, lr, r4, lsl #2
     a64:	06010402 	streq	r0, [r1], -r2, lsl #8
     a68:	0402002e 	streq	r0, [r2], #-46	; 0xffffffd2
     a6c:	02002f01 	andeq	r2, r0, #1, 30
     a70:	00010104 	andeq	r0, r1, r4, lsl #2
     a74:	06010402 	streq	r0, [r1], -r2, lsl #8
     a78:	0402009e 	streq	r0, [r2], #-158	; 0xffffff62
     a7c:	02002e01 	andeq	r2, r0, #1, 28
     a80:	2e060104 	adfcss	f0, f6, f4
     a84:	052e0c03 	streq	r0, [lr, #-3075]!	; 0xfffff3fd
     a88:	0501060e 	streq	r0, [r1, #-1550]	; 0xfffff9f2
     a8c:	04052e1a 	streq	r2, [r5], #-3610	; 0xfffff1e6
     a90:	4a0a0306 	bmi	2816b0 <__bss_end__+0x2768a8>
     a94:	06440513 			; <UNDEFINED> instruction: 0x06440513
     a98:	06040501 	streq	r0, [r4], -r1, lsl #10
     a9c:	2e2e062f 	cfmadda32cs	mvax1, mvax0, mvfx14, mvfx15
     aa0:	02002605 	andeq	r2, r0, #5242880	; 0x500000
     aa4:	03060204 	movweq	r0, #25092	; 0x6204
     aa8:	2705016b 	strcs	r0, [r5, -fp, ror #2]
     aac:	02040200 	andeq	r0, r4, #0, 4
     ab0:	17050106 	strne	r0, [r5, -r6, lsl #2]
     ab4:	01040200 	mrseq	r0, R12_usr
     ab8:	02052e06 	andeq	r2, r5, #96	; 0x60
     abc:	01040200 	mrseq	r0, R12_usr
     ac0:	03050106 	movweq	r0, #20742	; 0x5106
     ac4:	1e054b06 	vmlane.f64	d4, d5, d6
     ac8:	16050106 	strne	r0, [r5], -r6, lsl #2
     acc:	0603052e 	streq	r0, [r3], -lr, lsr #10
     ad0:	0606054b 	streq	r0, [r6], -fp, asr #10
     ad4:	001e0501 	andseq	r0, lr, r1, lsl #10
     ad8:	4a010402 	bmi	41ae8 <__bss_end__+0x36ce0>
     adc:	02001105 	andeq	r1, r0, #1073741825	; 0x40000001
     ae0:	052e0104 	streq	r0, [lr, #-260]!	; 0xfffffefc
     ae4:	054c0604 	strbeq	r0, [ip, #-1540]	; 0xfffff9fc
     ae8:	05010614 	streq	r0, [r1, #-1556]	; 0xfffff9ec
     aec:	054d0604 	strbeq	r0, [sp, #-1540]	; 0xfffff9fc
     af0:	05010619 	streq	r0, [r1, #-1561]	; 0xfffff9e7
     af4:	07052e34 	smladxeq	r5, r4, lr, r2
     af8:	060b052e 	streq	r0, [fp], -lr, lsr #10
     afc:	0630054d 	ldrteq	r0, [r0], -sp, asr #10
     b00:	2e0e0501 	cfsh32cs	mvfx0, mvfx14, #1
     b04:	00019f05 	andeq	r9, r1, r5, lsl #30
     b08:	4a010402 	bmi	41b18 <__bss_end__+0x36d10>
     b0c:	00019405 	andeq	r9, r1, r5, lsl #8
     b10:	2e010402 	cdpcs	4, 0, cr0, cr1, cr2, {0}
     b14:	02004f05 	andeq	r4, r0, #5, 30
     b18:	054a0104 	strbeq	r0, [sl, #-260]	; 0xfffffefc
     b1c:	05300605 	ldreq	r0, [r0, #-1541]!	; 0xfffff9fb
     b20:	0501060e 	streq	r0, [r1, #-1550]	; 0xfffff9f2
     b24:	05662e1b 	strbeq	r2, [r6, #-3611]!	; 0xfffff1e5
     b28:	010c0301 	tsteq	ip, r1, lsl #6
     b2c:	061c054a 	ldreq	r0, [ip], -sl, asr #10
     b30:	00020500 	andeq	r0, r2, r0, lsl #10
     b34:	0300008a 	movweq	r0, #138	; 0x8a
     b38:	0505013b 	streq	r0, [r5, #-315]	; 0xfffffec5
     b3c:	0109054e 	tsteq	r9, lr, asr #10
     b40:	01061405 	tsteq	r6, r5, lsl #8
     b44:	02002405 	andeq	r2, r0, #83886080	; 0x5000000
     b48:	2e060104 	adfcss	f0, f6, f4
     b4c:	02000505 	andeq	r0, r0, #20971520	; 0x1400000
     b50:	01060104 	tsteq	r6, r4, lsl #2
     b54:	02000905 	andeq	r0, r0, #81920	; 0x14000
     b58:	4b060304 	blmi	181770 <__bss_end__+0x176968>
     b5c:	02003205 	andeq	r3, r0, #1342177280	; 0x50000000
     b60:	01060304 	tsteq	r6, r4, lsl #6
     b64:	02002105 	andeq	r2, r0, #1073741825	; 0x40000001
     b68:	054a0304 	strbeq	r0, [sl, #-772]	; 0xfffffcfc
     b6c:	04020011 	streq	r0, [r2], #-17	; 0xffffffef
     b70:	27052e03 	strcs	r2, [r5, -r3, lsl #28]
     b74:	03040200 	movweq	r0, #16896	; 0x4200
     b78:	2b052d06 	blcs	14bf98 <__bss_end__+0x141190>
     b7c:	03040200 	movweq	r0, #16896	; 0x4200
     b80:	02000106 	andeq	r0, r0, #-2147483647	; 0x80000001
     b84:	002e0304 	eoreq	r0, lr, r4, lsl #6
     b88:	2e030402 	cdpcs	4, 0, cr0, cr3, cr2, {0}
     b8c:	18060505 	stmdane	r6, {r0, r2, r8, sl}
     b90:	062e0613 			; <UNDEFINED> instruction: 0x062e0613
     b94:	060d0531 			; <UNDEFINED> instruction: 0x060d0531
     b98:	06050501 	streq	r0, [r5], -r1, lsl #10
     b9c:	060d054b 	streq	r0, [sp], -fp, asr #10
     ba0:	06050501 	streq	r0, [r5], -r1, lsl #10
     ba4:	060d052f 	streq	r0, [sp], -pc, lsr #10
     ba8:	06050501 	streq	r0, [r5], -r1, lsl #10
     bac:	060d052f 	streq	r0, [sp], -pc, lsr #10
     bb0:	06050501 	streq	r0, [r5], -r1, lsl #10
     bb4:	01016830 	tsteq	r1, r0, lsr r8
     bb8:	02051801 	andeq	r1, r5, #65536	; 0x10000
     bbc:	69050513 	stmdbvs	r5, {r0, r1, r4, r8, sl}
     bc0:	05136813 	ldreq	r6, [r3, #-2067]	; 0xfffff7ed
     bc4:	05670601 	strbeq	r0, [r7, #-1537]!	; 0xfffff9ff
     bc8:	cc03061c 	stcgt	6, cr0, [r3], {28}
     bcc:	0106ba7e 	tsteq	r6, lr, ror sl
     bd0:	67060205 	strvs	r0, [r6, -r5, lsl #4]
     bd4:	062e0601 	strteq	r0, [lr], -r1, lsl #12
     bd8:	1305052e 	movwne	r0, #21806	; 0x552e
     bdc:	04020001 	streq	r0, [r2], #-1
     be0:	02004a02 	andeq	r4, r0, #8192	; 0x2000
     be4:	00010204 	andeq	r0, r1, r4, lsl #4
     be8:	13020402 	movwne	r0, #9218	; 0x2402
     bec:	02000805 	andeq	r0, r0, #327680	; 0x50000
     bf0:	01060204 	tsteq	r6, r4, lsl #4
     bf4:	02000705 	andeq	r0, r0, #1310720	; 0x140000
     bf8:	054a0204 	strbeq	r0, [sl, #-516]	; 0xfffffdfc
     bfc:	05510605 	ldrbeq	r0, [r1, #-1541]	; 0xfffff9fb
     c00:	0501060c 	streq	r0, [r1, #-1548]	; 0xfffff9f4
     c04:	05054b01 	streq	r4, [r5, #-2817]	; 0xfffff4ff
     c08:	01040200 	mrseq	r0, R12_usr
     c0c:	4a770306 	bmi	1dc182c <__bss_end__+0x1db6a24>
     c10:	01040200 	mrseq	r0, R12_usr
     c14:	04020001 	streq	r0, [r2], #-1
     c18:	0905d601 	stmdbeq	r5, {r0, r9, sl, ip, lr, pc}
     c1c:	14051330 	strne	r1, [r5], #-816	; 0xfffffcd0
     c20:	09050106 	stmdbeq	r5, {r1, r2, r8}
     c24:	12056706 	andne	r6, r5, #1572864	; 0x180000
     c28:	09050106 	stmdbeq	r5, {r1, r2, r8}
     c2c:	054b4b06 	strbeq	r4, [fp, #-2822]	; 0xfffff4fa
     c30:	05010610 	streq	r0, [r1, #-1552]	; 0xfffff9f0
     c34:	b0030631 	andlt	r0, r3, r1, lsr r6
     c38:	06200801 	strteq	r0, [r0], -r1, lsl #16
     c3c:	06020501 	streq	r0, [r2], -r1, lsl #10
     c40:	2e06014b 	adfcssm	f0, f6, #3.0
     c44:	05052e06 	streq	r2, [r5, #-3590]	; 0xfffff1fa
     c48:	2f020513 	svccs	0x00020513
     c4c:	054b0505 	strbeq	r0, [fp, #-1285]	; 0xfffffafb
     c50:	0501060c 	streq	r0, [r1, #-1548]	; 0xfffff9f4
     c54:	1a054b01 	bne	153860 <__bss_end__+0x148a58>
     c58:	05056906 	streq	r6, [r5, #-2310]	; 0xfffff6fa
     c5c:	08051332 	stmdaeq	r5, {r1, r4, r5, r8, r9, ip}
     c60:	07050106 	streq	r0, [r5, -r6, lsl #2]
     c64:	0609054a 	streq	r0, [r9], -sl, asr #10
     c68:	4a01144b 	bmi	45d9c <__bss_end__+0x3af94>
     c6c:	05130505 	ldreq	r0, [r3, #-1285]	; 0xfffffafb
     c70:	05130601 	ldreq	r0, [r3, #-1537]	; 0xfffff9ff
     c74:	012a0609 			; <UNDEFINED> instruction: 0x012a0609
     c78:	a522059e 	strge	r0, [r2, #-1438]!	; 0xfffffa62
     c7c:	13320505 	teqne	r2, #20971520	; 0x1400000
     c80:	01061705 	tsteq	r6, r5, lsl #14
     c84:	4b060505 	blmi	1820a0 <__bss_end__+0x177298>
     c88:	01060705 	tsteq	r6, r5, lsl #14
     c8c:	4b060905 	blmi	1830a8 <__bss_end__+0x1782a0>
     c90:	4a060114 	bmi	1810e8 <__bss_end__+0x1762e0>
     c94:	05052e06 	streq	r2, [r5, #-3590]	; 0xfffff1fa
     c98:	01051313 	tsteq	r5, r3, lsl r3
     c9c:	09051306 	stmdbeq	r5, {r1, r2, r8, r9, ip}
     ca0:	9e014506 	cfsh32ls	mvfx4, mvfx1, #6
     ca4:	1f031605 	svcne	0x00031605
     ca8:	2f05059e 	svccs	0x0005059e
     cac:	0617052f 	ldreq	r0, [r7], -pc, lsr #10
     cb0:	06050501 	streq	r0, [r5], -r1, lsl #10
     cb4:	06010532 			; <UNDEFINED> instruction: 0x06010532
     cb8:	061b0513 			; <UNDEFINED> instruction: 0x061b0513
     cbc:	2f050530 	svccs	0x00050530
     cc0:	08029e01 	stmdaeq	r2, {r0, r9, sl, fp, ip, pc}
     cc4:	52010100 	andpl	r0, r1, #0
     cc8:	03000002 	movweq	r0, #2
     ccc:	00008a00 	andeq	r8, r0, r0, lsl #20
     cd0:	fb010200 	blx	414da <__bss_end__+0x366d2>
     cd4:	01000d0e 	tsteq	r0, lr, lsl #26
     cd8:	00010101 	andeq	r0, r1, r1, lsl #2
     cdc:	00010000 	andeq	r0, r1, r0
     ce0:	552f0100 	strpl	r0, [pc, #-256]!	; be8 <__code_start__-0x7418>
     ce4:	73726573 	cmnvc	r2, #482344960	; 0x1cc00000
     ce8:	6972742f 	ldmdbvs	r2!, {r0, r1, r2, r3, r5, sl, ip, sp, lr}^
     cec:	6e657473 	mcrvs	4, 3, r7, cr5, cr3, {3}
     cf0:	6c6c6f6e 	stclvs	15, cr6, [ip], #-440	; 0xfffffe48
     cf4:	2f6e616d 	svccs	0x006e616d
     cf8:	75636f44 	strbvc	r6, [r3, #-3908]!	; 0xfffff0bc
     cfc:	746e656d 	strbtvc	r6, [lr], #-1389	; 0xfffffa93
     d00:	70532f73 	subsvc	r2, r3, r3, ror pc
     d04:	676e6972 			; <UNDEFINED> instruction: 0x676e6972
     d08:	6175515f 	cmnvs	r5, pc, asr r1
     d0c:	72657472 	rsbvc	r7, r5, #1912602624	; 0x72000000
     d10:	3230325f 	eorscc	r3, r0, #-268435451	; 0xf0000005
     d14:	53432f32 	movtpl	r2, #16178	; 0x3f32
     d18:	4c303432 	cfldrsmi	mvf3, [r0], #-200	; 0xffffff38
     d1c:	70732d58 	rsbsvc	r2, r3, r8, asr sp
     d20:	2f323272 	svccs	0x00323272
     d24:	7062696c 	rsbvc	r6, r2, ip, ror #18
     d28:	6e692f69 	cdpvs	15, 6, cr2, cr9, cr9, {3}
     d2c:	64756c63 	ldrbtvs	r6, [r5], #-3171	; 0xfffff39d
     d30:	6b000065 	blvs	ecc <__code_start__-0x7134>
     d34:	616d2d72 	smcvs	53970	; 0xd2d2
     d38:	636f6c6c 	cmnvs	pc, #108, 24	; 0x6c00
     d3c:	0000632e 	andeq	r6, r0, lr, lsr #6
     d40:	70720000 	rsbsvc	r0, r2, r0
     d44:	00682e69 	rsbeq	r2, r8, r9, ror #28
     d48:	6b000001 	blvs	d54 <__code_start__-0x72ac>
     d4c:	616d2d72 	smcvs	53970	; 0xd2d2
     d50:	636f6c6c 	cmnvs	pc, #108, 24	; 0x6c00
     d54:	0000682e 	andeq	r6, r0, lr, lsr #16
     d58:	05000000 	streq	r0, [r0, #-0]
     d5c:	02050019 	andeq	r0, r5, #25, 0
     d60:	00008c70 	andeq	r8, r0, r0, ror ip
     d64:	0100c503 	tsteq	r0, r3, lsl #10
     d68:	02050106 	andeq	r0, r5, #-2147483647	; 0x80000001
     d6c:	05132f06 	ldreq	r2, [r3, #-3846]	; 0xfffff0fa
     d70:	05010605 	streq	r0, [r1, #-1541]	; 0xfffff9fb
     d74:	052f0602 	streq	r0, [pc, #-1538]!	; 77a <__code_start__-0x7886>
     d78:	05010609 	streq	r0, [r1, #-1545]	; 0xfffff9f7
     d7c:	052e4a02 	streq	r4, [lr, #-2562]!	; 0xfffff5fe
     d80:	04020012 	streq	r0, [r2], #-18	; 0xffffffee
     d84:	052e0601 	streq	r0, [lr, #-1537]!	; 0xfffff9ff
     d88:	04020002 	streq	r0, [r2], #-2
     d8c:	05010601 	streq	r0, [r1, #-1537]	; 0xfffff9ff
     d90:	04020026 	streq	r0, [r2], #-38	; 0xffffffda
     d94:	12054a03 	andne	r4, r5, #12288	; 0x3000
     d98:	03040200 	movweq	r0, #16896	; 0x4200
     d9c:	0603052e 	streq	r0, [r3], -lr, lsr #10
     da0:	0610054b 	ldreq	r0, [r0], -fp, asr #10
     da4:	2e060501 	cfsh32cs	mvfx0, mvfx6, #1
     da8:	02001505 	andeq	r1, r0, #20971520	; 0x1400000
     dac:	054a0104 	strbeq	r0, [sl, #-260]	; 0xfffffefc
     db0:	04020020 	streq	r0, [r2], #-32	; 0xffffffe0
     db4:	02004a02 	andeq	r4, r0, #8192	; 0x2000
     db8:	054a0204 	strbeq	r0, [sl, #-516]	; 0xfffffdfc
     dbc:	05320602 	ldreq	r0, [r2, #-1538]!	; 0xfffff9fe
     dc0:	05010610 	streq	r0, [r1, #-1552]	; 0xfffff9f0
     dc4:	1d052e09 	stcne	14, cr2, [r5, #-36]	; 0xffffffdc
     dc8:	2e05052e 	cfsh32cs	mvfx0, mvfx5, #30
     dcc:	4e060c05 	cdpmi	12, 0, cr0, cr6, cr5, {0}
     dd0:	01061605 	tsteq	r6, r5, lsl #12
     dd4:	2f060805 	svccs	0x00060805
     dd8:	01061405 	tsteq	r6, r5, lsl #8
     ddc:	052e0e05 	streq	r0, [lr, #-3589]!	; 0xfffff1fb
     de0:	0c052e0b 	stceq	14, cr2, [r5], {11}
     de4:	15054e06 	strne	r4, [r5, #-3590]	; 0xfffff1fa
     de8:	02050106 	andeq	r0, r5, #-2147483647	; 0x80000001
     dec:	08053006 	stmdaeq	r5, {r1, r2, ip, sp}
     df0:	01050106 	tsteq	r5, r6, lsl #2
     df4:	060c054b 	streq	r0, [ip], -fp, asr #10
     df8:	052e7503 	streq	r7, [lr, #-1283]!	; 0xfffffafd
     dfc:	05010625 	streq	r0, [r1, #-1573]	; 0xfffff9db
     e00:	0c052e17 	stceq	14, cr2, [r5], {23}
     e04:	1c054b06 			; <UNDEFINED> instruction: 0x1c054b06
     e08:	23050106 	movwcs	r0, #20742	; 0x5106
     e0c:	2e16052e 	cfmul64cs	mvdx0, mvdx6, mvdx14
     e10:	4e060c05 	cdpmi	12, 0, cr0, cr6, cr5, {0}
     e14:	01061e05 	tsteq	r6, r5, lsl #28
     e18:	052e1605 	streq	r1, [lr, #-1541]!	; 0xfffff9fb
     e1c:	054b060c 	strbeq	r0, [fp, #-1548]	; 0xfffff9f4
     e20:	0501061c 	streq	r0, [r1, #-1564]	; 0xfffff9e4
     e24:	2a052e15 	bcs	14c680 <__bss_end__+0x141878>
     e28:	7fb70306 	svcvc	0x00b70306
     e2c:	05010666 	streq	r0, [r1, #-1638]	; 0xfffff99a
     e30:	134b0602 	movtne	r0, #46594	; 0xb602
     e34:	06050514 			; <UNDEFINED> instruction: 0x06050514
     e38:	2f070501 	svccs	0x00070501
     e3c:	31060205 	tstcc	r6, r5, lsl #4
     e40:	01060705 	tsteq	r6, r5, lsl #14
     e44:	4b060205 	blmi	181660 <__bss_end__+0x176858>
     e48:	01060505 	tsteq	r6, r5, lsl #10
     e4c:	4e060205 	cdpmi	2, 0, cr0, cr6, cr5, {0}
     e50:	060d0513 			; <UNDEFINED> instruction: 0x060d0513
     e54:	06020501 	streq	r0, [r2], -r1, lsl #10
     e58:	062e062f 	strteq	r0, [lr], -pc, lsr #12
     e5c:	0609052f 	streq	r0, [r9], -pc, lsr #10
     e60:	030a0501 	movweq	r0, #42241	; 0xa501
     e64:	0105667a 	tsteq	r5, sl, ror r6
     e68:	06220535 			; <UNDEFINED> instruction: 0x06220535
     e6c:	0501064d 	streq	r0, [r1, #-1613]	; 0xfffff9b3
     e70:	132f0602 			; <UNDEFINED> instruction: 0x132f0602
     e74:	24051413 	strcs	r1, [r5], #-1043	; 0xfffffbed
     e78:	29050106 	stmdbcs	r5, {r1, r2, r8}
     e7c:	2e09052e 	cfsh32cs	mvfx0, mvfx9, #30
     e80:	2f060205 	svccs	0x00060205
     e84:	01060d05 	tsteq	r6, r5, lsl #26
     e88:	054a0505 	strbeq	r0, [sl, #-1285]	; 0xfffffafb
     e8c:	05500602 	ldrbeq	r0, [r0, #-1538]	; 0xfffff9fe
     e90:	2e010609 	cfmadd32cs	mvax0, mvfx0, mvfx1, mvfx9
     e94:	2a060305 	bcs	181ab0 <__bss_end__+0x176ca8>
     e98:	01061605 	tsteq	r6, r5, lsl #12
     e9c:	054a0e05 	strbeq	r0, [sl, #-3589]	; 0xfffff1fb
     ea0:	052f0603 	streq	r0, [pc, #-1539]!	; 8a5 <__code_start__-0x775b>
     ea4:	0501060f 	streq	r0, [r1, #-1551]	; 0xfffff9f1
     ea8:	056c0604 	strbeq	r0, [ip, #-1540]!	; 0xfffff9fc
     eac:	05010607 	streq	r0, [r1, #-1543]	; 0xfffff9f9
     eb0:	05320605 	ldreq	r0, [r2, #-1541]!	; 0xfffff9fb
     eb4:	0501060f 	streq	r0, [r1, #-1551]	; 0xfffff9f1
     eb8:	054b0605 	strbeq	r0, [fp, #-1541]	; 0xfffff9fb
     ebc:	05010607 	streq	r0, [r1, #-1543]	; 0xfffff9f9
     ec0:	052f0605 	streq	r0, [pc, #-1541]!	; 8c3 <__code_start__-0x773d>
     ec4:	0501060f 	streq	r0, [r1, #-1551]	; 0xfffff9f1
     ec8:	05300604 	ldreq	r0, [r0, #-1540]!	; 0xfffff9fc
     ecc:	0501060a 	streq	r0, [r1, #-1546]	; 0xfffff9f6
     ed0:	054b0604 	strbeq	r0, [fp, #-1540]	; 0xfffff9fc
     ed4:	2e01060b 	cfmadd32cs	mvax0, mvfx0, mvfx1, mvfx11
     ed8:	03060505 	movweq	r0, #25861	; 0x6505
     edc:	18052e79 	stmdane	r5, {r0, r3, r4, r5, r6, r9, sl, fp, sp}
     ee0:	12050106 	andne	r0, r5, #-2147483647	; 0x80000001
     ee4:	061a052e 	ldreq	r0, [sl], -lr, lsr #10
     ee8:	01180545 	tsteq	r8, r5, asr #10
     eec:	01062005 	tsteq	r6, r5
     ef0:	052e2705 	streq	r2, [lr, #-1797]!	; 0xfffff8fb
     ef4:	052f0603 	streq	r0, [pc, #-1539]!	; 8f9 <__code_start__-0x7707>
     ef8:	0501060b 	streq	r0, [r1, #-1547]	; 0xfffff9f5
     efc:	03052e06 	movweq	r2, #24070	; 0x5e06
     f00:	4a0e0306 	bmi	381b20 <__bss_end__+0x376d18>
     f04:	01060905 	tsteq	r6, r5, lsl #18
     f08:	054a0605 	strbeq	r0, [sl, #-1541]	; 0xfffff9fb
     f0c:	054c0604 	strbeq	r0, [ip, #-1540]	; 0xfffff9fc
     f10:	2e01060d 	cfmadd32cs	mvax0, mvfx0, mvfx1, mvfx13
     f14:	2e2e0705 	cdpcs	7, 2, cr0, cr14, cr5, {0}
     f18:	01000602 	tsteq	r0, r2, lsl #12
     f1c:	00014b01 	andeq	r4, r1, r1, lsl #22
     f20:	e4000300 	str	r0, [r0], #-768	; 0xfffffd00
     f24:	02000000 	andeq	r0, r0, #0, 0
     f28:	0d0efb01 	vstreq	d15, [lr, #-4]
     f2c:	01010100 	mrseq	r0, (UNDEF: 17)
     f30:	00000001 	andeq	r0, r0, r1
     f34:	01000001 	tsteq	r0, r1
     f38:	696c2f2e 	stmdbvs	ip!, {r1, r2, r3, r5, r8, r9, sl, fp, sp}^
     f3c:	2f006362 	svccs	0x00006362
     f40:	72657355 	rsbvc	r7, r5, #1409286145	; 0x54000001
     f44:	72742f73 	rsbsvc	r2, r4, #460	; 0x1cc
     f48:	65747369 	ldrbvs	r7, [r4, #-873]!	; 0xfffffc97
     f4c:	6c6f6e6e 	stclvs	14, cr6, [pc], #-440	; d9c <__code_start__-0x7264>
     f50:	6e616d6c 	cdpvs	13, 6, cr6, cr1, cr12, {3}
     f54:	636f442f 	cmnvs	pc, #788529152	; 0x2f000000
     f58:	6e656d75 	mcrvs	13, 3, r6, cr5, cr5, {3}
     f5c:	532f7374 			; <UNDEFINED> instruction: 0x532f7374
     f60:	6e697270 	mcrvs	2, 3, r7, cr9, cr0, {3}
     f64:	75515f67 	ldrbvc	r5, [r1, #-3943]	; 0xfffff099
     f68:	65747261 	ldrbvs	r7, [r4, #-609]!	; 0xfffffd9f
     f6c:	30325f72 	eorscc	r5, r2, r2, ror pc
     f70:	432f3232 			; <UNDEFINED> instruction: 0x432f3232
     f74:	30343253 	eorscc	r3, r4, r3, asr r2
     f78:	732d584c 			; <UNDEFINED> instruction: 0x732d584c
     f7c:	32327270 	eorscc	r7, r2, #112, 4
     f80:	62696c2f 	rsbvs	r6, r9, #12032	; 0x2f00
     f84:	692f6970 	stmdbvs	pc!, {r4, r5, r6, r8, fp, sp, lr}	; <UNPREDICTABLE>
     f88:	756c636e 	strbvc	r6, [ip, #-878]!	; 0xfffffc92
     f8c:	2f006564 	svccs	0x00006564
     f90:	2f727375 	svccs	0x00727375
     f94:	61636f6c 	cmnvs	r3, ip, ror #30
     f98:	65432f6c 	strbvs	r2, [r3, #-3948]	; 0xfffff094
     f9c:	72616c6c 	rsbvc	r6, r1, #108, 24	; 0x6c00
     fa0:	6d72612f 	ldfvse	f6, [r2, #-188]!	; 0xffffff44
     fa4:	6e6f6e2d 	cdpvs	14, 6, cr6, cr15, cr13, {1}
     fa8:	61652d65 	cmnvs	r5, r5, ror #26
     fac:	742d6962 	strtvc	r6, [sp], #-2402	; 0xfffff69e
     fb0:	2f747365 	svccs	0x00747365
     fb4:	30322d39 	eorscc	r2, r2, r9, lsr sp
     fb8:	34713931 	ldrbtcc	r3, [r1], #-2353	; 0xfffff6cf
     fbc:	3173632d 	cmncc	r3, sp, lsr #6
     fc0:	2f653730 	svccs	0x00653730
     fc4:	2f62696c 	svccs	0x0062696c
     fc8:	2f636367 	svccs	0x00636367
     fcc:	2d6d7261 	sfmcs	f7, 2, [sp, #-388]!	; 0xfffffe7c
     fd0:	656e6f6e 	strbvs	r6, [lr, #-3950]!	; 0xfffff092
     fd4:	6261652d 	rsbvs	r6, r1, #188743680	; 0xb400000
     fd8:	2e392f69 	cdpcs	15, 3, cr2, cr9, cr9, {3}
     fdc:	2f312e32 	svccs	0x00312e32
     fe0:	6c636e69 	stclvs	14, cr6, [r3], #-420	; 0xfffffe5c
     fe4:	00656475 	rsbeq	r6, r5, r5, ror r4
     fe8:	6d656d00 	stclvs	13, cr6, [r5, #-0]
     fec:	2e706d63 	cdpcs	13, 7, cr6, cr0, cr3, {3}
     ff0:	00010063 	andeq	r0, r1, r3, rrx
     ff4:	69707200 	ldmdbvs	r0!, {r9, ip, sp, lr}^
     ff8:	0200682e 	andeq	r6, r0, #3014656	; 0x2e0000
     ffc:	74730000 	ldrbtvc	r0, [r3], #-0
    1000:	66656464 	strbtvs	r6, [r5], -r4, ror #8
    1004:	0300682e 	movweq	r6, #2094	; 0x82e
    1008:	05000000 	streq	r0, [r0, #-0]
    100c:	0205003d 	andeq	r0, r5, #61, 0	; 0x3d
    1010:	00008e1c 	andeq	r8, r0, ip, lsl lr
    1014:	05010614 	streq	r0, [r1, #-1556]	; 0xfffff9ec
    1018:	144b0605 	strbne	r0, [fp], #-1541	; 0xfffff9fb
    101c:	05010905 	streq	r0, [r1, #-2309]	; 0xfffff6fb
    1020:	0501060d 	streq	r0, [r1, #-1549]	; 0xfffff9f3
    1024:	04020014 	streq	r0, [r2], #-20	; 0xffffffec
    1028:	052e0601 	streq	r0, [lr, #-1537]!	; 0xfffff9ff
    102c:	04020005 	streq	r0, [r2], #-5
    1030:	05010601 	streq	r0, [r1, #-1537]	; 0xfffff9ff
    1034:	054b0609 	strbeq	r0, [fp, #-1545]	; 0xfffff9f7
    1038:	05010613 	streq	r0, [r1, #-1555]	; 0xfffff9ed
    103c:	09052e1b 	stmdbeq	r5, {r0, r1, r3, r4, r9, sl, fp, sp}
    1040:	0b052f06 	bleq	14cc60 <__bss_end__+0x141e58>
    1044:	052e0106 	streq	r0, [lr, #-262]!	; 0xfffffefa
    1048:	04020020 	streq	r0, [r2], #-32	; 0xffffffe0
    104c:	052c0602 	streq	r0, [ip, #-1538]!	; 0xfffff9fe
    1050:	04020021 	streq	r0, [r2], #-33	; 0xffffffdf
    1054:	00010602 	andeq	r0, r1, r2, lsl #12
    1058:	2e020402 	cdpcs	4, 0, cr0, cr2, cr2, {0}
    105c:	02040200 	andeq	r0, r4, #0, 4
    1060:	170c052e 	strne	r0, [ip, -lr, lsr #10]
    1064:	022f0105 	eoreq	r0, pc, #1073741825	; 0x40000001
    1068:	01010002 	tsteq	r1, r2
    106c:	000001cb 	andeq	r0, r0, fp, asr #3
    1070:	00e40003 	rsceq	r0, r4, r3
    1074:	01020000 	mrseq	r0, (UNDEF: 2)
    1078:	000d0efb 	strdeq	r0, [sp], -fp
    107c:	01010101 	tsteq	r1, r1, lsl #2
    1080:	01000000 	mrseq	r0, (UNDEF: 0)
    1084:	2e010000 	cdpcs	0, 0, cr0, cr1, cr0, {0}
    1088:	62696c2f 	rsbvs	r6, r9, #12032	; 0x2f00
    108c:	552f0063 	strpl	r0, [pc, #-99]!	; 1031 <__code_start__-0x6fcf>
    1090:	73726573 	cmnvc	r2, #482344960	; 0x1cc00000
    1094:	6972742f 	ldmdbvs	r2!, {r0, r1, r2, r3, r5, sl, ip, sp, lr}^
    1098:	6e657473 	mcrvs	4, 3, r7, cr5, cr3, {3}
    109c:	6c6c6f6e 	stclvs	15, cr6, [ip], #-440	; 0xfffffe48
    10a0:	2f6e616d 	svccs	0x006e616d
    10a4:	75636f44 	strbvc	r6, [r3, #-3908]!	; 0xfffff0bc
    10a8:	746e656d 	strbtvc	r6, [lr], #-1389	; 0xfffffa93
    10ac:	70532f73 	subsvc	r2, r3, r3, ror pc
    10b0:	676e6972 			; <UNDEFINED> instruction: 0x676e6972
    10b4:	6175515f 	cmnvs	r5, pc, asr r1
    10b8:	72657472 	rsbvc	r7, r5, #1912602624	; 0x72000000
    10bc:	3230325f 	eorscc	r3, r0, #-268435451	; 0xf0000005
    10c0:	53432f32 	movtpl	r2, #16178	; 0x3f32
    10c4:	4c303432 	cfldrsmi	mvf3, [r0], #-200	; 0xffffff38
    10c8:	70732d58 	rsbsvc	r2, r3, r8, asr sp
    10cc:	2f323272 	svccs	0x00323272
    10d0:	7062696c 	rsbvc	r6, r2, ip, ror #18
    10d4:	6e692f69 	cdpvs	15, 6, cr2, cr9, cr9, {3}
    10d8:	64756c63 	ldrbtvs	r6, [r5], #-3171	; 0xfffff39d
    10dc:	752f0065 	strvc	r0, [pc, #-101]!	; 107f <__code_start__-0x6f81>
    10e0:	6c2f7273 	sfmvs	f7, 4, [pc], #-460	; f1c <__code_start__-0x70e4>
    10e4:	6c61636f 	stclvs	3, cr6, [r1], #-444	; 0xfffffe44
    10e8:	6c65432f 	stclvs	3, cr4, [r5], #-188	; 0xffffff44
    10ec:	2f72616c 	svccs	0x0072616c
    10f0:	2d6d7261 	sfmcs	f7, 2, [sp, #-388]!	; 0xfffffe7c
    10f4:	656e6f6e 	strbvs	r6, [lr, #-3950]!	; 0xfffff092
    10f8:	6261652d 	rsbvs	r6, r1, #188743680	; 0xb400000
    10fc:	65742d69 	ldrbvs	r2, [r4, #-3433]!	; 0xfffff297
    1100:	392f7473 	stmdbcc	pc!, {r0, r1, r4, r5, r6, sl, ip, sp, lr}	; <UNPREDICTABLE>
    1104:	3130322d 	teqcc	r0, sp, lsr #4
    1108:	2d347139 	ldfcss	f7, [r4, #-228]!	; 0xffffff1c
    110c:	30317363 	eorscc	r7, r1, r3, ror #6
    1110:	6c2f6537 	cfstr32vs	mvfx6, [pc], #-220	; 103c <__code_start__-0x6fc4>
    1114:	672f6269 	strvs	r6, [pc, -r9, ror #4]!
    1118:	612f6363 			; <UNDEFINED> instruction: 0x612f6363
    111c:	6e2d6d72 	mcrvs	13, 1, r6, cr13, cr2, {3}
    1120:	2d656e6f 	stclcs	14, cr6, [r5, #-444]!	; 0xfffffe44
    1124:	69626165 	stmdbvs	r2!, {r0, r2, r5, r6, r8, sp, lr}^
    1128:	322e392f 	eorcc	r3, lr, #770048	; 0xbc000
    112c:	692f312e 	stmdbvs	pc!, {r1, r2, r3, r5, r8, ip, sp}	; <UNPREDICTABLE>
    1130:	756c636e 	strbvc	r6, [ip, #-878]!	; 0xfffffc92
    1134:	00006564 	andeq	r6, r0, r4, ror #10
    1138:	636d656d 	cmnvs	sp, #457179136	; 0x1b400000
    113c:	632e7970 			; <UNDEFINED> instruction: 0x632e7970
    1140:	00000100 	andeq	r0, r0, r0, lsl #2
    1144:	2e697072 	mcrcs	0, 3, r7, cr9, cr2, {3}
    1148:	00020068 	andeq	r0, r2, r8, rrx
    114c:	64747300 	ldrbtvs	r7, [r4], #-768	; 0xfffffd00
    1150:	2e666564 	cdpcs	5, 6, cr6, cr6, cr4, {3}
    1154:	00030068 	andeq	r0, r3, r8, rrx
    1158:	39050000 	stmdbcc	r5, {}	; <UNPREDICTABLE>
    115c:	50020500 	andpl	r0, r2, r0, lsl #10
    1160:	1700008e 	strne	r0, [r0, -lr, lsl #1]
    1164:	05170505 	ldreq	r0, [r7, #-1285]	; 0xfffffafb
    1168:	05010607 	streq	r0, [r1, #-1543]	; 0xfffff9f9
    116c:	04020016 	streq	r0, [r2], #-22	; 0xffffffea
    1170:	27054a01 	strcs	r4, [r5, -r1, lsl #20]
    1174:	02040200 	andeq	r0, r4, #0, 4
    1178:	0009054a 	andeq	r0, r9, sl, asr #10
    117c:	06020402 	streq	r0, [r2], -r2, lsl #8
    1180:	0402004b 	streq	r0, [r2], #-75	; 0xffffffb5
    1184:	02000102 	andeq	r0, r0, #-2147483648	; 0x80000000
    1188:	00010204 	andeq	r0, r1, r4, lsl #4
    118c:	01020402 	tsteq	r2, r2, lsl #8
    1190:	02040200 	andeq	r0, r4, #0, 4
    1194:	00120513 	andseq	r0, r2, r3, lsl r5
    1198:	06020402 	streq	r0, [r2], -r2, lsl #8
    119c:	00090501 	andeq	r0, r9, r1, lsl #10
    11a0:	06020402 	streq	r0, [r2], -r2, lsl #8
    11a4:	0402002f 	streq	r0, [r2], #-47	; 0xffffffd1
    11a8:	02001302 	andeq	r1, r0, #134217728	; 0x8000000
    11ac:	05140204 	ldreq	r0, [r4, #-516]	; 0xfffffdfc
    11b0:	0402000d 	streq	r0, [r2], #-13
    11b4:	09050102 	stmdbeq	r5, {r1, r8}
    11b8:	02040200 	andeq	r0, r4, #0, 4
    11bc:	0d050106 	stfeqs	f0, [r5, #-24]	; 0xffffffe8
    11c0:	03040200 	movweq	r0, #16896	; 0x4200
    11c4:	15052f06 	strne	r2, [r5, #-3846]	; 0xfffff0fa
    11c8:	03040200 	movweq	r0, #16896	; 0x4200
    11cc:	12050106 	andne	r0, r5, #-2147483647	; 0x80000001
    11d0:	03040200 	movweq	r0, #16896	; 0x4200
    11d4:	0024052e 	eoreq	r0, r4, lr, lsr #10
    11d8:	06030402 	streq	r0, [r3], -r2, lsl #8
    11dc:	0025052d 	eoreq	r0, r5, sp, lsr #10
    11e0:	06030402 	streq	r0, [r3], -r2, lsl #8
    11e4:	001d0501 	andseq	r0, sp, r1, lsl #10
    11e8:	06010402 	streq	r0, [r1], -r2, lsl #8
    11ec:	0009052e 	andeq	r0, r9, lr, lsr #10
    11f0:	06010402 	streq	r0, [r1], -r2, lsl #8
    11f4:	04020001 	streq	r0, [r2], #-1
    11f8:	0d056601 	stceq	6, cr6, [r5, #-4]
    11fc:	03040200 	movweq	r0, #16896	; 0x4200
    1200:	15051806 	strne	r1, [r5, #-2054]	; 0xfffff7fa
    1204:	03040200 	movweq	r0, #16896	; 0x4200
    1208:	12050106 	andne	r0, r5, #-2147483647	; 0x80000001
    120c:	03040200 	movweq	r0, #16896	; 0x4200
    1210:	0029052e 	eoreq	r0, r9, lr, lsr #10
    1214:	06030402 	streq	r0, [r3], -r2, lsl #8
    1218:	002a052d 	eoreq	r0, sl, sp, lsr #10
    121c:	06030402 	streq	r0, [r3], -r2, lsl #8
    1220:	001d0501 	andseq	r0, sp, r1, lsl #10
    1224:	06010402 	streq	r0, [r1], -r2, lsl #8
    1228:	0009052e 	andeq	r0, r9, lr, lsr #10
    122c:	06010402 	streq	r0, [r1], -r2, lsl #8
    1230:	04020001 	streq	r0, [r2], #-1
    1234:	08026601 	stmdaeq	r2, {r0, r9, sl, sp, lr}
    1238:	14010100 	strne	r0, [r1], #-256	; 0xffffff00
    123c:	03000001 	movweq	r0, #1
    1240:	0000e400 	andeq	lr, r0, r0, lsl #8
    1244:	fb010200 	blx	41a4e <__bss_end__+0x36c46>
    1248:	01000d0e 	tsteq	r0, lr, lsl #26
    124c:	00010101 	andeq	r0, r1, r1, lsl #2
    1250:	00010000 	andeq	r0, r1, r0
    1254:	2f2e0100 	svccs	0x002e0100
    1258:	6362696c 	cmnvs	r2, #108, 18	; 0x1b0000
    125c:	73552f00 	cmpvc	r5, #0, 30
    1260:	2f737265 	svccs	0x00737265
    1264:	73697274 	cmnvc	r9, #116, 4	; 0x40000007
    1268:	6e6e6574 	mcrvs	5, 3, r6, cr14, cr4, {3}
    126c:	6d6c6c6f 	stclvs	12, cr6, [ip, #-444]!	; 0xfffffe44
    1270:	442f6e61 	strtmi	r6, [pc], #-3681	; 1278 <__code_start__-0x6d88>
    1274:	6d75636f 	ldclvs	3, cr6, [r5, #-444]!	; 0xfffffe44
    1278:	73746e65 	cmnvc	r4, #1616	; 0x650
    127c:	7270532f 	rsbsvc	r5, r0, #-1140850688	; 0xbc000000
    1280:	5f676e69 	svcpl	0x00676e69
    1284:	72617551 	rsbvc	r7, r1, #339738624	; 0x14400000
    1288:	5f726574 	svcpl	0x00726574
    128c:	32323032 	eorscc	r3, r2, #50, 0	; 0x32
    1290:	3253432f 	subscc	r4, r3, #-1140850688	; 0xbc000000
    1294:	584c3034 	stmdapl	ip, {r2, r4, r5, ip, sp}^
    1298:	7270732d 	rsbsvc	r7, r0, #-1275068416	; 0xb4000000
    129c:	6c2f3232 	sfmvs	f3, 4, [pc], #-200	; 11dc <__code_start__-0x6e24>
    12a0:	69706269 	ldmdbvs	r0!, {r0, r3, r5, r6, r9, sp, lr}^
    12a4:	636e692f 	cmnvs	lr, #770048	; 0xbc000
    12a8:	6564756c 	strbvs	r7, [r4, #-1388]!	; 0xfffffa94
    12ac:	73752f00 	cmnvc	r5, #0, 30
    12b0:	6f6c2f72 	svcvs	0x006c2f72
    12b4:	2f6c6163 	svccs	0x006c6163
    12b8:	6c6c6543 	cfstr64vs	mvdx6, [ip], #-268	; 0xfffffef4
    12bc:	612f7261 			; <UNDEFINED> instruction: 0x612f7261
    12c0:	6e2d6d72 	mcrvs	13, 1, r6, cr13, cr2, {3}
    12c4:	2d656e6f 	stclcs	14, cr6, [r5, #-444]!	; 0xfffffe44
    12c8:	69626165 	stmdbvs	r2!, {r0, r2, r5, r6, r8, sp, lr}^
    12cc:	7365742d 	cmnvc	r5, #754974720	; 0x2d000000
    12d0:	2d392f74 	ldccs	15, cr2, [r9, #-464]!	; 0xfffffe30
    12d4:	39313032 	ldmdbcc	r1!, {r1, r4, r5, ip, sp}
    12d8:	632d3471 			; <UNDEFINED> instruction: 0x632d3471
    12dc:	37303173 			; <UNDEFINED> instruction: 0x37303173
    12e0:	696c2f65 	stmdbvs	ip!, {r0, r2, r5, r6, r8, r9, sl, fp, sp}^
    12e4:	63672f62 	cmnvs	r7, #392	; 0x188
    12e8:	72612f63 	rsbvc	r2, r1, #396	; 0x18c
    12ec:	6f6e2d6d 	svcvs	0x006e2d6d
    12f0:	652d656e 	strvs	r6, [sp, #-1390]!	; 0xfffffa92
    12f4:	2f696261 	svccs	0x00696261
    12f8:	2e322e39 	mrccs	14, 1, r2, cr2, cr9, {1}
    12fc:	6e692f31 	mcrvs	15, 3, r2, cr9, cr1, {1}
    1300:	64756c63 	ldrbtvs	r6, [r5], #-3171	; 0xfffff39d
    1304:	6d000065 	stcvs	0, cr0, [r0, #-404]	; 0xfffffe6c
    1308:	65736d65 	ldrbvs	r6, [r3, #-3429]!	; 0xfffff29b
    130c:	00632e74 	rsbeq	r2, r3, r4, ror lr
    1310:	72000001 	andvc	r0, r0, #1, 0
    1314:	682e6970 	stmdavs	lr!, {r4, r5, r6, r8, fp, sp, lr}
    1318:	00000200 	andeq	r0, r0, r0, lsl #4
    131c:	64647473 	strbtvs	r7, [r4], #-1139	; 0xfffffb8d
    1320:	682e6665 	stmdavs	lr!, {r0, r2, r5, r6, r9, sl, sp, lr}
    1324:	00000300 	andeq	r0, r0, r0, lsl #6
    1328:	00290500 	eoreq	r0, r9, r0, lsl #10
    132c:	8eb00205 	cdphi	2, 11, cr0, cr0, cr5, {0}
    1330:	05150000 	ldreq	r0, [r5, #-0]
    1334:	14051305 	strne	r1, [r5], #-773	; 0xfffffcfb
    1338:	05050106 	streq	r0, [r5, #-262]	; 0xfffffefa
    133c:	0b053006 	bleq	14d35c <__bss_end__+0x142554>
    1340:	0a051006 	beq	145360 <__bss_end__+0x13a558>
    1344:	09053006 	stmdbeq	r5, {r1, r2, ip, sp}
    1348:	060e054b 	streq	r0, [lr], -fp, asr #10
    134c:	02022e01 	andeq	r2, r2, #1, 28
    1350:	33010100 	movwcc	r0, #4352	; 0x1100
    1354:	03000001 	movweq	r0, #1
    1358:	00010100 	andeq	r0, r1, r0, lsl #2
    135c:	fb010200 	blx	41b66 <__bss_end__+0x36d5e>
    1360:	01000d0e 	tsteq	r0, lr, lsl #26
    1364:	00010101 	andeq	r0, r1, r1, lsl #2
    1368:	00010000 	andeq	r0, r1, r0
    136c:	2f2e0100 	svccs	0x002e0100
    1370:	6362696c 	cmnvs	r2, #108, 18	; 0x1b0000
    1374:	73752f00 	cmnvc	r5, #0, 30
    1378:	6f6c2f72 	svcvs	0x006c2f72
    137c:	2f6c6163 	svccs	0x006c6163
    1380:	6c6c6543 	cfstr64vs	mvdx6, [ip], #-268	; 0xfffffef4
    1384:	612f7261 			; <UNDEFINED> instruction: 0x612f7261
    1388:	6e2d6d72 	mcrvs	13, 1, r6, cr13, cr2, {3}
    138c:	2d656e6f 	stclcs	14, cr6, [r5, #-444]!	; 0xfffffe44
    1390:	69626165 	stmdbvs	r2!, {r0, r2, r5, r6, r8, sp, lr}^
    1394:	7365742d 	cmnvc	r5, #754974720	; 0x2d000000
    1398:	2d392f74 	ldccs	15, cr2, [r9, #-464]!	; 0xfffffe30
    139c:	39313032 	ldmdbcc	r1!, {r1, r4, r5, ip, sp}
    13a0:	632d3471 			; <UNDEFINED> instruction: 0x632d3471
    13a4:	37303173 			; <UNDEFINED> instruction: 0x37303173
    13a8:	696c2f65 	stmdbvs	ip!, {r0, r2, r5, r6, r8, r9, sl, fp, sp}^
    13ac:	63672f62 	cmnvs	r7, #392	; 0x188
    13b0:	72612f63 	rsbvc	r2, r1, #396	; 0x18c
    13b4:	6f6e2d6d 	svcvs	0x006e2d6d
    13b8:	652d656e 	strvs	r6, [sp, #-1390]!	; 0xfffffa92
    13bc:	2f696261 	svccs	0x00696261
    13c0:	2e322e39 	mrccs	14, 1, r2, cr2, cr9, {1}
    13c4:	6e692f31 	mcrvs	15, 3, r2, cr9, cr1, {1}
    13c8:	64756c63 	ldrbtvs	r6, [r5], #-3171	; 0xfffff39d
    13cc:	552f0065 	strpl	r0, [pc, #-101]!	; 136f <__code_start__-0x6c91>
    13d0:	73726573 	cmnvc	r2, #482344960	; 0x1cc00000
    13d4:	6972742f 	ldmdbvs	r2!, {r0, r1, r2, r3, r5, sl, ip, sp, lr}^
    13d8:	6e657473 	mcrvs	4, 3, r7, cr5, cr3, {3}
    13dc:	6c6c6f6e 	stclvs	15, cr6, [ip], #-440	; 0xfffffe48
    13e0:	2f6e616d 	svccs	0x006e616d
    13e4:	75636f44 	strbvc	r6, [r3, #-3908]!	; 0xfffff0bc
    13e8:	746e656d 	strbtvc	r6, [lr], #-1389	; 0xfffffa93
    13ec:	70532f73 	subsvc	r2, r3, r3, ror pc
    13f0:	676e6972 			; <UNDEFINED> instruction: 0x676e6972
    13f4:	6175515f 	cmnvs	r5, pc, asr r1
    13f8:	72657472 	rsbvc	r7, r5, #1912602624	; 0x72000000
    13fc:	3230325f 	eorscc	r3, r0, #-268435451	; 0xf0000005
    1400:	53432f32 	movtpl	r2, #16178	; 0x3f32
    1404:	4c303432 	cfldrsmi	mvf3, [r0], #-200	; 0xffffff38
    1408:	70732d58 	rsbsvc	r2, r3, r8, asr sp
    140c:	2f323272 	svccs	0x00323272
    1410:	7062696c 	rsbvc	r6, r2, ip, ror #18
    1414:	6e692f69 	cdpvs	15, 6, cr2, cr9, cr9, {3}
    1418:	64756c63 	ldrbtvs	r6, [r5], #-3171	; 0xfffff39d
    141c:	70000065 	andvc	r0, r0, r5, rrx
    1420:	746e6972 	strbtvc	r6, [lr], #-2418	; 0xfffff68e
    1424:	00632e6b 	rsbeq	r2, r3, fp, ror #28
    1428:	73000001 	movwvc	r0, #1
    142c:	72616474 	rsbvc	r6, r1, #116, 8	; 0x74000000
    1430:	00682e67 	rsbeq	r2, r8, r7, ror #28
    1434:	72000002 	andvc	r0, r0, #2, 0
    1438:	682e6970 	stmdavs	lr!, {r4, r5, r6, r8, fp, sp, lr}
    143c:	00000300 	andeq	r0, r0, r0, lsl #6
    1440:	6975623c 	ldmdbvs	r5!, {r2, r3, r4, r5, r9, sp, lr}^
    1444:	692d746c 	pushvs	{r2, r3, r5, r6, sl, ip, sp, lr}
    1448:	00003e6e 	andeq	r3, r0, lr, ror #28
    144c:	61760000 	cmnvs	r6, r0
    1450:	6972702d 	ldmdbvs	r2!, {r0, r2, r3, r5, ip, sp, lr}^
    1454:	2e6b746e 	cdpcs	4, 6, cr7, cr11, cr14, {3}
    1458:	00010068 	andeq	r0, r1, r8, rrx
    145c:	22050000 	andcs	r0, r5, #0, 0
    1460:	c8020500 	stmdagt	r2, {r8, sl}
    1464:	1700008e 	strne	r0, [r0, -lr, lsl #1]
    1468:	05050106 	streq	r0, [r5, #-262]	; 0xfffffefa
    146c:	14136806 	ldrne	r6, [r3], #-2054	; 0xfffff7fa
    1470:	054b0905 	strbeq	r0, [fp, #-2309]	; 0xfffff6fb
    1474:	05010612 	streq	r0, [r1, #-1554]	; 0xfffff9ee
    1478:	16bb0605 	ldrtne	r0, [fp], r5, lsl #12
    147c:	34066606 	strcc	r6, [r6], #-1542	; 0xfffff9fa
    1480:	13060105 	movwne	r0, #24837	; 0x6105
    1484:	00080266 	andeq	r0, r8, r6, ror #4
    1488:	00cb0101 	sbceq	r0, fp, r1, lsl #2
    148c:	00030000 	andeq	r0, r3, r0
    1490:	0000007d 	andeq	r0, r0, sp, ror r0
    1494:	0efb0102 	cdpeq	1, 15, cr0, cr11, cr2, {0}
    1498:	0101000d 	tsteq	r1, sp
    149c:	00000101 	andeq	r0, r0, r1, lsl #2
    14a0:	00000100 	andeq	r0, r0, r0, lsl #2
    14a4:	6c2f2e01 	stcvs	14, cr2, [pc], #-4	; 14a8 <__code_start__-0x6b58>
    14a8:	00636269 	rsbeq	r6, r3, r9, ror #4
    14ac:	6573552f 	ldrbvs	r5, [r3, #-1327]!	; 0xfffffad1
    14b0:	742f7372 	strtvc	r7, [pc], #-882	; 14b8 <__code_start__-0x6b48>
    14b4:	74736972 	ldrbtvc	r6, [r3], #-2418	; 0xfffff68e
    14b8:	6f6e6e65 	svcvs	0x006e6e65
    14bc:	616d6c6c 	cmnvs	sp, ip, ror #24
    14c0:	6f442f6e 	svcvs	0x00442f6e
    14c4:	656d7563 	strbvs	r7, [sp, #-1379]!	; 0xfffffa9d
    14c8:	2f73746e 	svccs	0x0073746e
    14cc:	69727053 	ldmdbvs	r2!, {r0, r1, r4, r6, ip, sp, lr}^
    14d0:	515f676e 	cmppl	pc, lr, ror #14
    14d4:	74726175 	ldrbtvc	r6, [r2], #-373	; 0xfffffe8b
    14d8:	325f7265 	subscc	r7, pc, #1342177286	; 0x50000006
    14dc:	2f323230 	svccs	0x00323230
    14e0:	34325343 	ldrtcc	r5, [r2], #-835	; 0xfffffcbd
    14e4:	2d584c30 	ldclcs	12, cr4, [r8, #-192]	; 0xffffff40
    14e8:	32727073 	rsbscc	r7, r2, #115, 0	; 0x73
    14ec:	696c2f32 	stmdbvs	ip!, {r1, r4, r5, r8, r9, sl, fp, sp}^
    14f0:	2f697062 	svccs	0x00697062
    14f4:	6c636e69 	stclvs	14, cr6, [r3], #-420	; 0xfffffe5c
    14f8:	00656475 	rsbeq	r6, r5, r5, ror r4
    14fc:	74757000 	ldrbtvc	r7, [r5], #-0
    1500:	00632e6b 	rsbeq	r2, r3, fp, ror #28
    1504:	72000001 	andvc	r0, r0, #1, 0
    1508:	682e6970 	stmdavs	lr!, {r4, r5, r6, r8, fp, sp, lr}
    150c:	00000200 	andeq	r0, r0, r0, lsl #4
    1510:	00220500 	eoreq	r0, r2, r0, lsl #10
    1514:	8f200205 	svchi	0x00200205
    1518:	06150000 	ldreq	r0, [r5], -r0
    151c:	06050501 	streq	r0, [r5], -r1, lsl #10
    1520:	000b054b 	andeq	r0, fp, fp, asr #10
    1524:	01010402 	tsteq	r1, r2, lsl #8
    1528:	02000505 	andeq	r0, r0, #20971520	; 0x1400000
    152c:	2e060104 	adfcss	f0, f6, f4
    1530:	02000905 	andeq	r0, r0, #81920	; 0x14000
    1534:	4b060204 	blmi	181d4c <__bss_end__+0x176f44>
    1538:	02000f05 	andeq	r0, r0, #5, 30
    153c:	05650204 	strbeq	r0, [r5, #-516]!	; 0xfffffdfc
    1540:	04020010 	streq	r0, [r2], #-16
    1544:	00010602 	andeq	r0, r1, r2, lsl #12
    1548:	2e020402 	cdpcs	4, 0, cr0, cr2, cr2, {0}
    154c:	32060505 	andcc	r0, r6, #20971520	; 0x1400000
    1550:	13060105 	movwne	r0, #24837	; 0x6105
    1554:	01000602 	tsteq	r0, r2, lsl #12
    1558:	00061d01 	andeq	r1, r6, r1, lsl #26
    155c:	17000300 	strne	r0, [r0, -r0, lsl #6]
    1560:	02000001 	andeq	r0, r0, #1, 0
    1564:	0d0efb01 	vstreq	d15, [lr, #-4]
    1568:	01010100 	mrseq	r0, (UNDEF: 17)
    156c:	00000001 	andeq	r0, r0, r1
    1570:	01000001 	tsteq	r0, r1
    1574:	696c2f2e 	stmdbvs	ip!, {r1, r2, r3, r5, r8, r9, sl, fp, sp}^
    1578:	2f006362 	svccs	0x00006362
    157c:	2f727375 	svccs	0x00727375
    1580:	61636f6c 	cmnvs	r3, ip, ror #30
    1584:	65432f6c 	strbvs	r2, [r3, #-3948]	; 0xfffff094
    1588:	72616c6c 	rsbvc	r6, r1, #108, 24	; 0x6c00
    158c:	6d72612f 	ldfvse	f6, [r2, #-188]!	; 0xffffff44
    1590:	6e6f6e2d 	cdpvs	14, 6, cr6, cr15, cr13, {1}
    1594:	61652d65 	cmnvs	r5, r5, ror #26
    1598:	742d6962 	strtvc	r6, [sp], #-2402	; 0xfffff69e
    159c:	2f747365 	svccs	0x00747365
    15a0:	30322d39 	eorscc	r2, r2, r9, lsr sp
    15a4:	34713931 	ldrbtcc	r3, [r1], #-2353	; 0xfffff6cf
    15a8:	3173632d 	cmncc	r3, sp, lsr #6
    15ac:	2f653730 	svccs	0x00653730
    15b0:	2f62696c 	svccs	0x0062696c
    15b4:	2f636367 	svccs	0x00636367
    15b8:	2d6d7261 	sfmcs	f7, 2, [sp, #-388]!	; 0xfffffe7c
    15bc:	656e6f6e 	strbvs	r6, [lr, #-3950]!	; 0xfffff092
    15c0:	6261652d 	rsbvs	r6, r1, #188743680	; 0xb400000
    15c4:	2e392f69 	cdpcs	15, 3, cr2, cr9, cr9, {3}
    15c8:	2f312e32 	svccs	0x00312e32
    15cc:	6c636e69 	stclvs	14, cr6, [r3], #-420	; 0xfffffe5c
    15d0:	00656475 	rsbeq	r6, r5, r5, ror r4
    15d4:	6573552f 	ldrbvs	r5, [r3, #-1327]!	; 0xfffffad1
    15d8:	742f7372 	strtvc	r7, [pc], #-882	; 15e0 <__code_start__-0x6a20>
    15dc:	74736972 	ldrbtvc	r6, [r3], #-2418	; 0xfffff68e
    15e0:	6f6e6e65 	svcvs	0x006e6e65
    15e4:	616d6c6c 	cmnvs	sp, ip, ror #24
    15e8:	6f442f6e 	svcvs	0x00442f6e
    15ec:	656d7563 	strbvs	r7, [sp, #-1379]!	; 0xfffffa9d
    15f0:	2f73746e 	svccs	0x0073746e
    15f4:	69727053 	ldmdbvs	r2!, {r0, r1, r4, r6, ip, sp, lr}^
    15f8:	515f676e 	cmppl	pc, lr, ror #14
    15fc:	74726175 	ldrbtvc	r6, [r2], #-373	; 0xfffffe8b
    1600:	325f7265 	subscc	r7, pc, #1342177286	; 0x50000006
    1604:	2f323230 	svccs	0x00323230
    1608:	34325343 	ldrtcc	r5, [r2], #-835	; 0xfffffcbd
    160c:	2d584c30 	ldclcs	12, cr4, [r8, #-192]	; 0xffffff40
    1610:	32727073 	rsbscc	r7, r2, #115, 0	; 0x73
    1614:	696c2f32 	stmdbvs	ip!, {r1, r4, r5, r8, r9, sl, fp, sp}^
    1618:	2f697062 	svccs	0x00697062
    161c:	6c636e69 	stclvs	14, cr6, [r3], #-420	; 0xfffffe5c
    1620:	00656475 	rsbeq	r6, r5, r5, ror r4
    1624:	2d617600 	stclcs	6, cr7, [r1, #-0]
    1628:	6e697270 	mcrvs	2, 3, r7, cr9, cr0, {3}
    162c:	632e6b74 			; <UNDEFINED> instruction: 0x632e6b74
    1630:	00000100 	andeq	r0, r0, r0, lsl #2
    1634:	69647473 	stmdbvs	r4!, {r0, r1, r4, r5, r6, sl, ip, sp, lr}^
    1638:	672d746e 	strvs	r7, [sp, -lr, ror #8]!
    163c:	682e6363 	stmdavs	lr!, {r0, r1, r5, r6, r8, r9, sp, lr}
    1640:	00000200 	andeq	r0, r0, r0, lsl #4
    1644:	2e697072 	mcrcs	0, 3, r7, cr9, cr2, {3}
    1648:	00030068 	andeq	r0, r3, r8, rrx
    164c:	69707200 	ldmdbvs	r0!, {r9, ip, sp, lr}^
    1650:	746e692d 	strbtvc	r6, [lr], #-2349	; 0xfffff6d3
    1654:	616e7265 	cmnvs	lr, r5, ror #4
    1658:	00682e6c 	rsbeq	r2, r8, ip, ror #28
    165c:	73000003 	movwvc	r0, #3
    1660:	72616474 	rsbvc	r6, r1, #116, 8	; 0x74000000
    1664:	00682e67 	rsbeq	r2, r8, r7, ror #28
    1668:	3c000002 	stccc	0, cr0, [r0], {2}
    166c:	6c697562 	cfstr64vs	mvdx7, [r9], #-392	; 0xfffffe78
    1670:	6e692d74 	mcrvs	13, 3, r2, cr9, cr4, {3}
    1674:	0000003e 	andeq	r0, r0, lr, lsr r0
    1678:	1b050000 	blne	141680 <__bss_end__+0x136878>
    167c:	54020500 	strpl	r0, [r2], #-1280	; 0xfffffb00
    1680:	0300008f 	movweq	r0, #143	; 0x8f
    1684:	1d050126 	stfnes	f0, [r5, #-152]	; 0xffffff68
    1688:	062d0501 	strteq	r0, [sp], -r1, lsl #10
    168c:	2e010501 	cfsh32cs	mvfx0, mvfx1, #1
    1690:	0633054a 	ldrteq	r0, [r3], -sl, asr #10
    1694:	13020551 	movwne	r0, #9553	; 0x2551
    1698:	01060605 	tsteq	r6, r5, lsl #12
    169c:	30060205 	andcc	r0, r6, r5, lsl #4
    16a0:	02000805 	andeq	r0, r0, #327680	; 0x50000
    16a4:	05010104 	streq	r0, [r1, #-260]	; 0xfffffefc
    16a8:	04020002 	streq	r0, [r2], #-2
    16ac:	05010601 	streq	r0, [r1, #-1537]	; 0xfffff9ff
    16b0:	04020003 	streq	r0, [r2], #-3
    16b4:	052f0602 	streq	r0, [pc, #-1538]!	; 10ba <__code_start__-0x6f46>
    16b8:	04020008 	streq	r0, [r2], #-8
    16bc:	05010602 	streq	r0, [r1, #-1538]	; 0xfffff9fe
    16c0:	04020015 	streq	r0, [r2], #-21	; 0xffffffeb
    16c4:	05490602 	strbeq	r0, [r9, #-1538]	; 0xfffff9fe
    16c8:	04020018 	streq	r0, [r2], #-24	; 0xffffffe8
    16cc:	00010602 	andeq	r0, r1, r2, lsl #12
    16d0:	2e020402 	cdpcs	4, 0, cr0, cr2, cr2, {0}
    16d4:	30060205 	andcc	r0, r6, r5, lsl #4
    16d8:	01060505 	tsteq	r6, r5, lsl #10
    16dc:	4b060205 	blmi	181ef8 <__bss_end__+0x1770f0>
    16e0:	13060105 	movwne	r0, #24837	; 0x6105
    16e4:	31063e05 	tstcc	r6, r5, lsl #28
    16e8:	05140205 	ldreq	r0, [r4, #-517]	; 0xfffffdfb
    16ec:	0501060e 	streq	r0, [r1, #-1550]	; 0xfffff9f2
    16f0:	02052e06 	andeq	r2, r5, #96	; 0x60
    16f4:	04052f06 	streq	r2, [r5], #-3846	; 0xfffff0fa
    16f8:	03050106 	movweq	r0, #20742	; 0x5106
    16fc:	11052f06 	tstne	r5, r6, lsl #30
    1700:	09050106 	stmdbeq	r5, {r1, r2, r8}
    1704:	0602052e 	streq	r0, [r2], -lr, lsr #10
    1708:	07051530 	smladxeq	r5, r0, r5, r1
    170c:	02050106 	andeq	r0, r5, #-2147483647	; 0x80000001
    1710:	000b052e 	andeq	r0, fp, lr, lsr #10
    1714:	06010402 	streq	r0, [r1], -r2, lsl #8
    1718:	0002052e 	andeq	r0, r2, lr, lsr #10
    171c:	06010402 	streq	r0, [r1], -r2, lsl #8
    1720:	00030501 	andeq	r0, r3, r1, lsl #10
    1724:	06030402 	streq	r0, [r3], -r2, lsl #8
    1728:	000c052f 	andeq	r0, ip, pc, lsr #10
    172c:	06030402 	streq	r0, [r3], -r2, lsl #8
    1730:	000a0501 	andeq	r0, sl, r1, lsl #10
    1734:	2e030402 	cdpcs	4, 0, cr0, cr3, cr2, {0}
    1738:	02001705 	andeq	r1, r0, #1310720	; 0x140000
    173c:	2d060304 	stccs	3, cr0, [r6, #-16]
    1740:	03040200 	movweq	r0, #16896	; 0x4200
    1744:	02050106 	andeq	r0, r5, #-2147483647	; 0x80000001
    1748:	09053006 	stmdbeq	r5, {r1, r2, ip, sp}
    174c:	052e0106 	streq	r0, [lr, #-262]!	; 0xfffffefa
    1750:	05300602 	ldreq	r0, [r0, #-1538]!	; 0xfffff9fe
    1754:	05130601 	ldreq	r0, [r3, #-1537]	; 0xfffff9ff
    1758:	06310649 	ldrteq	r0, [r1], -r9, asr #12
    175c:	06020501 	streq	r0, [r2], -r1, lsl #10
    1760:	060405a0 	streq	r0, [r4], -r0, lsr #11
    1764:	06030501 	streq	r0, [r3], -r1, lsl #10
    1768:	0609052f 	streq	r0, [r9], -pc, lsr #10
    176c:	06020501 	streq	r0, [r2], -r1, lsl #10
    1770:	0b051330 	bleq	146438 <__bss_end__+0x13b630>
    1774:	02050106 	andeq	r0, r5, #-2147483647	; 0x80000001
    1778:	2e063006 	cdpcs	0, 0, cr3, cr6, cr6, {0}
    177c:	02060405 	andeq	r0, r6, #83886080	; 0x5000000
    1780:	05131524 	ldreq	r1, [r3, #-1316]	; 0xfffffadc
    1784:	2e01060f 	cfmadd32cs	mvax0, mvfx0, mvfx1, mvfx15
    1788:	054a0605 	strbeq	r0, [sl, #-1541]	; 0xfffff9fb
    178c:	134b0605 	movtne	r0, #46597	; 0xb605
    1790:	01060905 	tsteq	r6, r5, lsl #18
    1794:	2f060505 	svccs	0x00060505
    1798:	10060b05 	andne	r0, r6, r5, lsl #22
    179c:	02000d05 	andeq	r0, r0, #320	; 0x140
    17a0:	052c0104 	streq	r0, [ip, #-260]!	; 0xfffffefc
    17a4:	04020004 	streq	r0, [r2], #-4
    17a8:	05340601 	ldreq	r0, [r4, #-1537]!	; 0xfffff9ff
    17ac:	04020005 	streq	r0, [r2], #-5
    17b0:	1b051301 	blne	1463bc <__bss_end__+0x13b5b4>
    17b4:	01040200 	mrseq	r0, R12_usr
    17b8:	07050106 	streq	r0, [r5, -r6, lsl #2]
    17bc:	01040200 	mrseq	r0, R12_usr
    17c0:	001805d6 			; <UNDEFINED> instruction: 0x001805d6
    17c4:	2e010402 	cdpcs	4, 0, cr0, cr1, cr2, {0}
    17c8:	02000a05 	andeq	r0, r0, #20480	; 0x5000
    17cc:	054a0104 	strbeq	r0, [sl, #-260]	; 0xfffffefc
    17d0:	0402000b 	streq	r0, [r2], #-11
    17d4:	052f0601 	streq	r0, [pc, #-1537]!	; 11db <__code_start__-0x6e25>
    17d8:	0402000e 	streq	r0, [r2], #-14
    17dc:	052e0601 	streq	r0, [lr, #-1537]!	; 0xfffff9ff
    17e0:	04020004 	streq	r0, [r2], #-4
    17e4:	4b062e01 	blmi	18cff0 <__bss_end__+0x1821e8>
    17e8:	01060605 	tsteq	r6, r5, lsl #12
    17ec:	2f060505 	svccs	0x00060505
    17f0:	01060a05 	tsteq	r6, r5, lsl #20
    17f4:	2e4a0705 	cdpcs	7, 4, cr0, cr10, cr5, {0}
    17f8:	76030d05 	strvc	r0, [r3], -r5, lsl #26
    17fc:	0b054a2e 	bleq	1540bc <__bss_end__+0x1492b4>
    1800:	000d050d 	andeq	r0, sp, sp, lsl #10
    1804:	06010402 	streq	r0, [r1], -r2, lsl #8
    1808:	052e1403 	streq	r1, [lr, #-1027]!	; 0xfffffbfd
    180c:	04020011 	streq	r0, [r2], #-17	; 0xffffffef
    1810:	2d051301 	stccs	3, cr1, [r5, #-4]
    1814:	01040200 	mrseq	r0, R12_usr
    1818:	2a050106 	bcs	141c38 <__bss_end__+0x136e30>
    181c:	01040200 	mrseq	r0, R12_usr
    1820:	0016052e 	andseq	r0, r6, lr, lsr #10
    1824:	4a010402 	bmi	42834 <__bss_end__+0x37a2c>
    1828:	02001405 	andeq	r1, r0, #83886080	; 0x5000000
    182c:	4b060104 	blmi	181c44 <__bss_end__+0x176e3c>
    1830:	02000d05 	andeq	r0, r0, #320	; 0x140
    1834:	01060104 	tsteq	r6, r4, lsl #2
    1838:	01040200 	mrseq	r0, R12_usr
    183c:	052f064a 	streq	r0, [pc, #-1610]!	; 11fa <__code_start__-0x6e06>
    1840:	4a010612 	bmi	43090 <__bss_end__+0x38288>
    1844:	2f060d05 	svccs	0x00060d05
    1848:	01061205 	tsteq	r6, r5, lsl #4
    184c:	4b061905 	blmi	187c68 <__bss_end__+0x17ce60>
    1850:	02000405 	andeq	r0, r0, #83886080	; 0x5000000
    1854:	11030204 	tstne	r3, r4, lsl #4
    1858:	04020001 	streq	r0, [r2], #-1
    185c:	02050102 	andeq	r0, r5, #-2147483648	; 0x80000000
    1860:	02040200 	andeq	r0, r4, #0, 4
    1864:	00090515 	andeq	r0, r9, r5, lsl r5
    1868:	06020402 	streq	r0, [r2], -r2, lsl #8
    186c:	04020001 	streq	r0, [r2], #-1
    1870:	01054a02 	tsteq	r5, r2, lsl #20
    1874:	02040200 	andeq	r0, r4, #0, 4
    1878:	0604059f 			; <UNDEFINED> instruction: 0x0604059f
    187c:	054a6e03 	strbeq	r6, [sl, #-3587]	; 0xfffff1fd
    1880:	05010609 	streq	r0, [r1, #-1545]	; 0xfffff9f7
    1884:	052f0604 	streq	r0, [pc, #-1540]!	; 1288 <__code_start__-0x6d78>
    1888:	05110606 	ldreq	r0, [r1, #-1542]	; 0xfffff9fa
    188c:	0b052f04 	bleq	14d4a4 <__bss_end__+0x14269c>
    1890:	052e6303 	streq	r6, [lr, #-771]!	; 0xfffffcfd
    1894:	04020019 	streq	r0, [r2], #-25	; 0xffffffe7
    1898:	24030601 	strcs	r0, [r3], #-1537	; 0xfffff9ff
    189c:	001a052e 	andseq	r0, sl, lr, lsr #10
    18a0:	13010402 	movwne	r0, #5122	; 0x1402
    18a4:	02002805 	andeq	r2, r0, #327680	; 0x50000
    18a8:	01060104 	tsteq	r6, r4, lsl #2
    18ac:	02002505 	andeq	r2, r0, #20971520	; 0x1400000
    18b0:	052e0104 	streq	r0, [lr, #-260]!	; 0xfffffefc
    18b4:	0402001f 	streq	r0, [r2], #-31	; 0xffffffe1
    18b8:	0b054a01 	bleq	1540c4 <__bss_end__+0x1492bc>
    18bc:	01040200 	mrseq	r0, R12_usr
    18c0:	04054b06 	streq	r4, [r5], #-2822	; 0xfffff4fa
    18c4:	01040200 	mrseq	r0, R12_usr
    18c8:	02000106 	andeq	r0, r0, #-2147483647	; 0x80000001
    18cc:	004a0104 	subeq	r0, sl, r4, lsl #2
    18d0:	06010402 	streq	r0, [r1], -r2, lsl #8
    18d4:	0402004e 	streq	r0, [r2], #-78	; 0xffffffb2
    18d8:	02000101 	andeq	r0, r0, #1073741824	; 0x40000000
    18dc:	00010104 	andeq	r0, r1, r4, lsl #2
    18e0:	01010402 	tsteq	r1, r2, lsl #8
    18e4:	01040200 	mrseq	r0, R12_usr
    18e8:	02002e06 	andeq	r2, r0, #96	; 0x60
    18ec:	00660104 	rsbeq	r0, r6, r4, lsl #2
    18f0:	2e010402 	cdpcs	4, 0, cr0, cr1, cr2, {0}
    18f4:	01040200 	mrseq	r0, R12_usr
    18f8:	48054a06 	stmdami	r5, {r1, r2, r9, fp, lr}
    18fc:	087fa603 	ldmdaeq	pc!, {r0, r1, r9, sl, sp, pc}^	; <UNPREDICTABLE>
    1900:	13050520 	movwne	r0, #21792	; 0x5520
    1904:	002e0601 	eoreq	r0, lr, r1, lsl #12
    1908:	06020402 	streq	r0, [r2], -r2, lsl #8
    190c:	0402002e 	streq	r0, [r2], #-46	; 0xffffffd2
    1910:	02000102 	andeq	r0, r0, #-2147483648	; 0x80000000
    1914:	05130204 	ldreq	r0, [r3, #-516]	; 0xfffffdfc
    1918:	04020011 	streq	r0, [r2], #-17	; 0xffffffef
    191c:	05010602 	streq	r0, [r1, #-1538]	; 0xfffff9fe
    1920:	04020005 	streq	r0, [r2], #-5
    1924:	054b0602 	strbeq	r0, [fp, #-1538]	; 0xfffff9fe
    1928:	04020007 	streq	r0, [r2], #-7
    192c:	05010602 	streq	r0, [r1, #-1538]	; 0xfffff9fe
    1930:	054b0609 	strbeq	r0, [fp, #-1545]	; 0xfffff9f7
    1934:	0501060e 	streq	r0, [r1, #-1550]	; 0xfffff9f2
    1938:	04020048 	streq	r0, [r2], #-72	; 0xffffffb8
    193c:	05056201 	streq	r6, [r5, #-513]	; 0xfffffdff
    1940:	01040200 	mrseq	r0, R12_usr
    1944:	02004b06 	andeq	r4, r0, #6144	; 0x1800
    1948:	00010104 	andeq	r0, r1, r4, lsl #2
    194c:	06010402 	streq	r0, [r1], -r2, lsl #8
    1950:	0402009e 	streq	r0, [r2], #-158	; 0xffffff62
    1954:	02002e01 	andeq	r2, r0, #1, 28
    1958:	2e060104 	adfcss	f0, f6, f4
    195c:	e1034005 	tst	r3, r5
    1960:	0106d600 	tsteq	r6, r0, lsl #12
    1964:	9f060205 	svcls	0x00060205
    1968:	01061e05 	tsteq	r6, r5, lsl #28
    196c:	052e1205 	streq	r1, [lr, #-517]!	; 0xfffffdfb
    1970:	052f0605 	streq	r0, [pc, #-1541]!	; 1373 <__code_start__-0x6c8d>
    1974:	09051402 	stmdbeq	r5, {r1, sl, ip}
    1978:	05050106 	streq	r0, [r5, #-262]	; 0xfffffefa
    197c:	02054b06 	andeq	r4, r5, #6144	; 0x1800
    1980:	06080513 			; <UNDEFINED> instruction: 0x06080513
    1984:	3302050d 	movwcc	r0, #9485	; 0x250d
    1988:	4c060405 	cfstrsmi	mvf0, [r6], {5}
    198c:	01060f05 	tsteq	r6, r5, lsl #30
    1990:	052e0905 	streq	r0, [lr, #-2309]!	; 0xfffff6fb
    1994:	052c0608 	streq	r0, [ip, #-1544]!	; 0xfffff9f8
    1998:	052e0602 	streq	r0, [lr, #-1538]!	; 0xfffff9fe
    199c:	0402000d 	streq	r0, [r2], #-13
    19a0:	03054a01 	movweq	r4, #23041	; 0x5a01
    19a4:	05054b06 	streq	r4, [r5, #-2822]	; 0xfffff4fa
    19a8:	08050106 	stmdaeq	r5, {r1, r2, r8}
    19ac:	0e054d06 	cdpeq	13, 0, cr4, cr5, cr6, {0}
    19b0:	0a050106 	beq	141dd0 <__bss_end__+0x136fc8>
    19b4:	0604052e 	streq	r0, [r4], -lr, lsr #10
    19b8:	0609052f 	streq	r0, [r9], -pc, lsr #10
    19bc:	06040501 	streq	r0, [r4], -r1, lsl #10
    19c0:	0607052f 	streq	r0, [r7], -pc, lsr #10
    19c4:	04052e01 	streq	r2, [r5], #-3585	; 0xfffff1ff
    19c8:	07053006 	streq	r3, [r5, -r6]
    19cc:	04050106 	streq	r0, [r5], #-262	; 0xfffffefa
    19d0:	14133006 	ldrne	r3, [r3], #-6
    19d4:	10060d05 	andne	r0, r6, r5, lsl #26
    19d8:	30060905 	andcc	r0, r6, r5, lsl #18
    19dc:	01061205 	tsteq	r6, r5, lsl #4
    19e0:	052e0a05 	streq	r0, [lr, #-2565]!	; 0xfffff5fb
    19e4:	05056609 	streq	r6, [r5, #-1545]	; 0xfffff9f7
    19e8:	12054b06 	andne	r4, r5, #6144	; 0x1800
    19ec:	16050106 	strne	r0, [r5], -r6, lsl #2
    19f0:	2e0b052e 	cfsh32cs	mvfx0, mvfx11, #30
    19f4:	2f060505 	svccs	0x00060505
    19f8:	01060805 	tsteq	r6, r5, lsl #16
    19fc:	0604052e 	streq	r0, [r4], -lr, lsr #10
    1a00:	014a0130 	cmpeq	sl, r0, lsr r1
    1a04:	04020015 	streq	r0, [r2], #-21	; 0xffffffeb
    1a08:	0f360201 	svceq	0x00360201
    1a0c:	01040200 	mrseq	r0, R12_usr
    1a10:	04020001 	streq	r0, [r2], #-1
    1a14:	1105d601 	tstne	r5, r1, lsl #12
    1a18:	00011334 	andeq	r1, r1, r4, lsr r3
    1a1c:	06020402 	streq	r0, [r2], -r2, lsl #8
    1a20:	040200ba 	streq	r0, [r2], #-186	; 0xffffff46
    1a24:	00ba0603 	adcseq	r0, sl, r3, lsl #12
    1a28:	01030402 	tsteq	r3, r2, lsl #8
    1a2c:	03040200 	movweq	r0, #16896	; 0x4200
    1a30:	00150514 	andseq	r0, r5, r4, lsl r5
    1a34:	06030402 	streq	r0, [r3], -r2, lsl #8
    1a38:	00110501 	andseq	r0, r1, r1, lsl #10
    1a3c:	06030402 	streq	r0, [r3], -r2, lsl #8
    1a40:	001a052f 	andseq	r0, sl, pc, lsr #10
    1a44:	06030402 	streq	r0, [r3], -r2, lsl #8
    1a48:	00110501 	andseq	r0, r1, r1, lsl #10
    1a4c:	06030402 	streq	r0, [r3], -r2, lsl #8
    1a50:	040200d7 	streq	r0, [r2], #-215	; 0xffffff29
    1a54:	02001303 	andeq	r1, r0, #201326592	; 0xc000000
    1a58:	00140304 	andseq	r0, r4, r4, lsl #6
    1a5c:	67030402 	strvs	r0, [r3, -r2, lsl #8]
    1a60:	03040200 	movweq	r0, #16896	; 0x4200
    1a64:	00140568 	andseq	r0, r4, r8, ror #10
    1a68:	06030402 	streq	r0, [r3], -r2, lsl #8
    1a6c:	00130501 	andseq	r0, r3, r1, lsl #10
    1a70:	82030402 	andhi	r0, r3, #33554432	; 0x2000000
    1a74:	4e061805 	cdpmi	8, 0, cr1, cr6, cr5, {0}
    1a78:	01061b05 	tsteq	r6, r5, lsl #22
    1a7c:	05821a05 	streq	r1, [r2, #2565]	; 0xa05
    1a80:	054b0609 	strbeq	r0, [fp, #-1545]	; 0xfffff9f7
    1a84:	2e01060d 	cfmadd32cs	mvax0, mvfx0, mvfx1, mvfx13
    1a88:	f3060905 	vmls.i8	d0, d6, d5
    1a8c:	1505ba06 	strne	fp, [r5, #-2566]	; 0xfffff5fa
    1a90:	18053006 	stmdane	r5, {r1, r2, ip, sp}
    1a94:	17050106 	strne	r0, [r5, -r6, lsl #2]
    1a98:	06190566 	ldreq	r0, [r9], -r6, ror #10
    1a9c:	0615054b 	ldreq	r0, [r5], -fp, asr #10
    1aa0:	05666f03 	strbeq	r6, [r6, #-3843]!	; 0xfffff0fd
    1aa4:	01480611 	cmpeq	r8, r1, lsl r6
    1aa8:	030905d6 	movweq	r0, #38358	; 0x95d6
    1aac:	0d052e0b 	stceq	14, cr2, [r5, #-44]	; 0xffffffd4
    1ab0:	052e0106 	streq	r0, [lr, #-262]!	; 0xfffffefa
    1ab4:	06f30609 	ldrbteq	r0, [r3], r9, lsl #12
    1ab8:	061505ba 			; <UNDEFINED> instruction: 0x061505ba
    1abc:	7503062f 	strvc	r0, [r3, #-1583]	; 0xfffff9d1
    1ac0:	06190566 	ldreq	r0, [r9], -r6, ror #10
    1ac4:	054a1303 	strbeq	r1, [sl, #-771]	; 0xfffffcfd
    1ac8:	6d030615 	stcvs	6, cr0, [r3, #-84]	; 0xffffffac
    1acc:	15030666 	strne	r0, [r3, #-1638]	; 0xfffff99a
    1ad0:	06ba014a 	ldrteq	r0, [sl], sl, asr #2
    1ad4:	0605052e 	streq	r0, [r5], -lr, lsr #10
    1ad8:	2e9e011a 	mrccs	1, 4, r0, cr14, cr10, {0}
    1adc:	05010e03 	streq	r0, [r1, #-3587]	; 0xfffff1fd
    1ae0:	05010609 	streq	r0, [r1, #-1545]	; 0xfffff9f7
    1ae4:	75080605 	strvc	r0, [r8, #-1541]	; 0xfffff9fb
    1ae8:	18030405 	stmdane	r3, {r0, r2, sl}
    1aec:	06070501 	streq	r0, [r7], -r1, lsl #10
    1af0:	06040501 	streq	r0, [r4], -r1, lsl #10
    1af4:	03050531 	movweq	r0, #21809	; 0x5531
    1af8:	1c052e67 	stcne	14, cr2, [r5], {103}	; 0x67
    1afc:	09050106 	stmdbeq	r5, {r1, r2, r8}
    1b00:	06050582 	streq	r0, [r5], -r2, lsl #11
    1b04:	1c0531f3 	stfnes	f3, [r5], {243}	; 0xf3
    1b08:	09050106 	stmdbeq	r5, {r1, r2, r8}
    1b0c:	06050582 	streq	r0, [r5], -r2, lsl #11
    1b10:	1b0530f3 	blne	14dee4 <__bss_end__+0x1430dc>
    1b14:	09050106 	stmdbeq	r5, {r1, r2, r8}
    1b18:	06050582 	streq	r0, [r5], -r2, lsl #11
    1b1c:	070530f3 			; <UNDEFINED> instruction: 0x070530f3
    1b20:	05050106 	streq	r0, [r5, #-262]	; 0xfffffefa
    1b24:	05308306 	ldreq	r8, [r0, #-774]!	; 0xfffffcfa
    1b28:	05010609 	streq	r0, [r1, #-1545]	; 0xfffff9f7
    1b2c:	75080605 	strvc	r0, [r8, #-1541]	; 0xfffff9fb
    1b30:	05301105 	ldreq	r1, [r0, #-261]!	; 0xfffffefb
    1b34:	05010622 	streq	r0, [r1, #-1570]	; 0xfffff9de
    1b38:	054b0605 	strbeq	r0, [fp, #-1541]	; 0xfffff9fb
    1b3c:	05058311 	streq	r8, [r5, #-785]	; 0xfffffcef
    1b40:	359e0183 	ldrcc	r0, [lr, #387]	; 0x183
    1b44:	01060e05 	tsteq	r6, r5, lsl #28
    1b48:	062e0a05 	strteq	r0, [lr], -r5, lsl #20
    1b4c:	0604052d 	streq	r0, [r4], -sp, lsr #10
    1b50:	00130501 	andseq	r0, r3, r1, lsl #10
    1b54:	4a010402 	bmi	42b64 <__bss_end__+0x37d5c>
    1b58:	02001005 	andeq	r1, r0, #5, 0
    1b5c:	002e0104 	eoreq	r0, lr, r4, lsl #2
    1b60:	66010402 	strvs	r0, [r1], -r2, lsl #8
    1b64:	16060205 	strne	r0, [r6], -r5, lsl #4
    1b68:	01060705 	tsteq	r6, r5, lsl #14
    1b6c:	4b060205 	blmi	182388 <__bss_end__+0x177580>
    1b70:	13060105 	movwne	r0, #24837	; 0x6105
    1b74:	001e0266 	andseq	r0, lr, r6, ror #4
    1b78:	00a50101 	adceq	r0, r5, r1, lsl #2
    1b7c:	00030000 	andeq	r0, r3, r0
    1b80:	0000008a 	andeq	r0, r0, sl, lsl #1
    1b84:	0efb0102 	cdpeq	1, 15, cr0, cr11, cr2, {0}
    1b88:	0101000d 	tsteq	r1, sp
    1b8c:	00000101 	andeq	r0, r0, r1, lsl #2
    1b90:	00000100 	andeq	r0, r0, r0, lsl #2
    1b94:	732f2e01 			; <UNDEFINED> instruction: 0x732f2e01
    1b98:	66666174 			; <UNDEFINED> instruction: 0x66666174
    1b9c:	6372732d 	cmnvs	r2, #-1275068416	; 0xb4000000
    1ba0:	73552f00 	cmpvc	r5, #0, 30
    1ba4:	2f737265 	svccs	0x00737265
    1ba8:	73697274 	cmnvc	r9, #116, 4	; 0x40000007
    1bac:	6e6e6574 	mcrvs	5, 3, r6, cr14, cr4, {3}
    1bb0:	6d6c6c6f 	stclvs	12, cr6, [ip, #-444]!	; 0xfffffe44
    1bb4:	442f6e61 	strtmi	r6, [pc], #-3681	; 1bbc <__code_start__-0x6444>
    1bb8:	6d75636f 	ldclvs	3, cr6, [r5, #-444]!	; 0xfffffe44
    1bbc:	73746e65 	cmnvc	r4, #1616	; 0x650
    1bc0:	7270532f 	rsbsvc	r5, r0, #-1140850688	; 0xbc000000
    1bc4:	5f676e69 	svcpl	0x00676e69
    1bc8:	72617551 	rsbvc	r7, r1, #339738624	; 0x14400000
    1bcc:	5f726574 	svcpl	0x00726574
    1bd0:	32323032 	eorscc	r3, r2, #50, 0	; 0x32
    1bd4:	3253432f 	subscc	r4, r3, #-1140850688	; 0xbc000000
    1bd8:	584c3034 	stmdapl	ip, {r2, r4, r5, ip, sp}^
    1bdc:	7270732d 	rsbsvc	r7, r0, #-1275068416	; 0xb4000000
    1be0:	6c2f3232 	sfmvs	f3, 4, [pc], #-200	; 1b20 <__code_start__-0x64e0>
    1be4:	69706269 	ldmdbvs	r0!, {r0, r3, r5, r6, r9, sp, lr}^
    1be8:	636e692f 	cmnvs	lr, #770048	; 0xbc000
    1bec:	6564756c 	strbvs	r7, [r4, #-1388]!	; 0xfffffa94
    1bf0:	6c630000 	stclvs	0, cr0, [r3], #-0
    1bf4:	2d6e6165 	stfcse	f6, [lr, #-404]!	; 0xfffffe6c
    1bf8:	6f626572 	svcvs	0x00626572
    1bfc:	632e746f 			; <UNDEFINED> instruction: 0x632e746f
    1c00:	00000100 	andeq	r0, r0, r0, lsl #2
    1c04:	2e697072 	mcrcs	0, 3, r7, cr9, cr2, {3}
    1c08:	00020068 	andeq	r0, r2, r8, rrx
    1c0c:	19050000 	stmdbne	r5, {}	; <UNPREDICTABLE>
    1c10:	94020500 	strls	r0, [r2], #-1280	; 0xfffffb00
    1c14:	15000096 	strne	r0, [r0, #-150]	; 0xffffff6a
    1c18:	832f0505 			; <UNDEFINED> instruction: 0x832f0505
    1c1c:	06024b2f 	streq	r4, [r2], -pc, lsr #22
    1c20:	bf010100 	svclt	0x00010100
    1c24:	03000000 	movweq	r0, #0
    1c28:	00008400 	andeq	r8, r0, r0, lsl #8
    1c2c:	fb010200 	blx	42436 <__bss_end__+0x3762e>
    1c30:	01000d0e 	tsteq	r0, lr, lsl #26
    1c34:	00010101 	andeq	r0, r1, r1, lsl #2
    1c38:	00010000 	andeq	r0, r1, r0
    1c3c:	2f2e0100 	svccs	0x002e0100
    1c40:	66617473 			; <UNDEFINED> instruction: 0x66617473
    1c44:	72732d66 	rsbsvc	r2, r3, #6528	; 0x1980
    1c48:	552f0063 	strpl	r0, [pc, #-99]!	; 1bed <__code_start__-0x6413>
    1c4c:	73726573 	cmnvc	r2, #482344960	; 0x1cc00000
    1c50:	6972742f 	ldmdbvs	r2!, {r0, r1, r2, r3, r5, sl, ip, sp, lr}^
    1c54:	6e657473 	mcrvs	4, 3, r7, cr5, cr3, {3}
    1c58:	6c6c6f6e 	stclvs	15, cr6, [ip], #-440	; 0xfffffe48
    1c5c:	2f6e616d 	svccs	0x006e616d
    1c60:	75636f44 	strbvc	r6, [r3, #-3908]!	; 0xfffff0bc
    1c64:	746e656d 	strbtvc	r6, [lr], #-1389	; 0xfffffa93
    1c68:	70532f73 	subsvc	r2, r3, r3, ror pc
    1c6c:	676e6972 			; <UNDEFINED> instruction: 0x676e6972
    1c70:	6175515f 	cmnvs	r5, pc, asr r1
    1c74:	72657472 	rsbvc	r7, r5, #1912602624	; 0x72000000
    1c78:	3230325f 	eorscc	r3, r0, #-268435451	; 0xf0000005
    1c7c:	53432f32 	movtpl	r2, #16178	; 0x3f32
    1c80:	4c303432 	cfldrsmi	mvf3, [r0], #-200	; 0xffffff38
    1c84:	70732d58 	rsbsvc	r2, r3, r8, asr sp
    1c88:	2f323272 	svccs	0x00323272
    1c8c:	7062696c 	rsbvc	r6, r2, ip, ror #18
    1c90:	6e692f69 	cdpvs	15, 6, cr2, cr9, cr9, {3}
    1c94:	64756c63 	ldrbtvs	r6, [r5], #-3171	; 0xfffff39d
    1c98:	63000065 	movwvs	r0, #101	; 0x65
    1c9c:	72617473 	rsbvc	r7, r1, #1929379840	; 0x73000000
    1ca0:	00632e74 	rsbeq	r2, r3, r4, ror lr
    1ca4:	72000001 	andvc	r0, r0, #1, 0
    1ca8:	682e6970 	stmdavs	lr!, {r4, r5, r6, r8, fp, sp, lr}
    1cac:	00000200 	andeq	r0, r0, r0, lsl #4
    1cb0:	00100500 	andseq	r0, r0, r0, lsl #10
    1cb4:	96c00205 	strbls	r0, [r0], r5, lsl #4
    1cb8:	05150000 	ldreq	r0, [r5, #-0]
    1cbc:	02052f05 	andeq	r2, r5, #5, 30
    1cc0:	14050513 	strne	r0, [r5], #-1299	; 0xfffffaed
    1cc4:	05141330 	ldreq	r1, [r4, #-816]	; 0xfffffcd0
    1cc8:	060f060a 	streq	r0, [pc], -sl, lsl #12
    1ccc:	4b090531 	blmi	243198 <__bss_end__+0x238390>
    1cd0:	01061005 	tsteq	r6, r5
    1cd4:	0605054a 	streq	r0, [r5], -sl, asr #10
    1cd8:	01013230 	tsteq	r1, r0, lsr r2
    1cdc:	0205144a 	andeq	r1, r5, #1241513984	; 0x4a000000
    1ce0:	0006022f 	andeq	r0, r6, pc, lsr #4
    1ce4:	00a30101 	adceq	r0, r3, r1, lsl #2
    1ce8:	00030000 	andeq	r0, r3, r0
    1cec:	0000008b 	andeq	r0, r0, fp, lsl #1
    1cf0:	0efb0102 	cdpeq	1, 15, cr0, cr11, cr2, {0}
    1cf4:	0101000d 	tsteq	r1, sp
    1cf8:	00000101 	andeq	r0, r0, r1, lsl #2
    1cfc:	00000100 	andeq	r0, r0, r0, lsl #2
    1d00:	732f2e01 			; <UNDEFINED> instruction: 0x732f2e01
    1d04:	66666174 			; <UNDEFINED> instruction: 0x66666174
    1d08:	6372732d 	cmnvs	r2, #-1275068416	; 0xb4000000
    1d0c:	73552f00 	cmpvc	r5, #0, 30
    1d10:	2f737265 	svccs	0x00737265
    1d14:	73697274 	cmnvc	r9, #116, 4	; 0x40000007
    1d18:	6e6e6574 	mcrvs	5, 3, r6, cr14, cr4, {3}
    1d1c:	6d6c6c6f 	stclvs	12, cr6, [ip, #-444]!	; 0xfffffe44
    1d20:	442f6e61 	strtmi	r6, [pc], #-3681	; 1d28 <__code_start__-0x62d8>
    1d24:	6d75636f 	ldclvs	3, cr6, [r5, #-444]!	; 0xfffffe44
    1d28:	73746e65 	cmnvc	r4, #1616	; 0x650
    1d2c:	7270532f 	rsbsvc	r5, r0, #-1140850688	; 0xbc000000
    1d30:	5f676e69 	svcpl	0x00676e69
    1d34:	72617551 	rsbvc	r7, r1, #339738624	; 0x14400000
    1d38:	5f726574 	svcpl	0x00726574
    1d3c:	32323032 	eorscc	r3, r2, #50, 0	; 0x32
    1d40:	3253432f 	subscc	r4, r3, #-1140850688	; 0xbc000000
    1d44:	584c3034 	stmdapl	ip, {r2, r4, r5, ip, sp}^
    1d48:	7270732d 	rsbsvc	r7, r0, #-1275068416	; 0xb4000000
    1d4c:	6c2f3232 	sfmvs	f3, 4, [pc], #-200	; 1c8c <__code_start__-0x6374>
    1d50:	69706269 	ldmdbvs	r0!, {r0, r3, r5, r6, r9, sp, lr}^
    1d54:	636e692f 	cmnvs	lr, #770048	; 0xbc000
    1d58:	6564756c 	strbvs	r7, [r4, #-1388]!	; 0xfffffa94
    1d5c:	75630000 	strbvc	r0, [r3, #-0]!
    1d60:	6d6f7473 	cfstrdvs	mvd7, [pc, #-460]!	; 1b9c <__code_start__-0x6464>
    1d64:	616f6c2d 	cmnvs	pc, sp, lsr #24
    1d68:	2e726564 	cdpcs	5, 7, cr6, cr2, cr4, {3}
    1d6c:	00010063 	andeq	r0, r1, r3, rrx
    1d70:	69707200 	ldmdbvs	r0!, {r9, ip, sp, lr}^
    1d74:	0200682e 	andeq	r6, r0, #3014656	; 0x2e0000
    1d78:	05000000 	streq	r0, [r0, #-0]
    1d7c:	0205001a 	andeq	r0, r5, #26, 0
    1d80:	000096fc 	strdeq	r9, [r0], -ip
    1d84:	14010515 	strne	r0, [r1], #-1301	; 0xfffffaeb
    1d88:	01000202 	tsteq	r0, r2, lsl #4
    1d8c:	0000f301 	andeq	pc, r0, r1, lsl #6
    1d90:	84000300 	strhi	r0, [r0], #-768	; 0xfffffd00
    1d94:	02000000 	andeq	r0, r0, #0, 0
    1d98:	0d0efb01 	vstreq	d15, [lr, #-4]
    1d9c:	01010100 	mrseq	r0, (UNDEF: 17)
    1da0:	00000001 	andeq	r0, r0, r1
    1da4:	01000001 	tsteq	r0, r1
    1da8:	74732f2e 	ldrbtvc	r2, [r3], #-3886	; 0xfffff0d2
    1dac:	2d666661 	stclcs	6, cr6, [r6, #-388]!	; 0xfffffe7c
    1db0:	00637273 	rsbeq	r7, r3, r3, ror r2
    1db4:	6573552f 	ldrbvs	r5, [r3, #-1327]!	; 0xfffffad1
    1db8:	742f7372 	strtvc	r7, [pc], #-882	; 1dc0 <__code_start__-0x6240>
    1dbc:	74736972 	ldrbtvc	r6, [r3], #-2418	; 0xfffff68e
    1dc0:	6f6e6e65 	svcvs	0x006e6e65
    1dc4:	616d6c6c 	cmnvs	sp, ip, ror #24
    1dc8:	6f442f6e 	svcvs	0x00442f6e
    1dcc:	656d7563 	strbvs	r7, [sp, #-1379]!	; 0xfffffa9d
    1dd0:	2f73746e 	svccs	0x0073746e
    1dd4:	69727053 	ldmdbvs	r2!, {r0, r1, r4, r6, ip, sp, lr}^
    1dd8:	515f676e 	cmppl	pc, lr, ror #14
    1ddc:	74726175 	ldrbtvc	r6, [r2], #-373	; 0xfffffe8b
    1de0:	325f7265 	subscc	r7, pc, #1342177286	; 0x50000006
    1de4:	2f323230 	svccs	0x00323230
    1de8:	34325343 	ldrtcc	r5, [r2], #-835	; 0xfffffcbd
    1dec:	2d584c30 	ldclcs	12, cr4, [r8, #-192]	; 0xffffff40
    1df0:	32727073 	rsbscc	r7, r2, #115, 0	; 0x73
    1df4:	696c2f32 	stmdbvs	ip!, {r1, r4, r5, r8, r9, sl, fp, sp}^
    1df8:	2f697062 	svccs	0x00697062
    1dfc:	6c636e69 	stclvs	14, cr6, [r3], #-420	; 0xfffffe5c
    1e00:	00656475 	rsbeq	r6, r5, r5, ror r4
    1e04:	62657200 	rsbvs	r7, r5, #0, 4
    1e08:	2e746f6f 	cdpcs	15, 7, cr6, cr4, cr15, {3}
    1e0c:	00010063 	andeq	r0, r1, r3, rrx
    1e10:	69707200 	ldmdbvs	r0!, {r9, ip, sp, lr}^
    1e14:	0200682e 	andeq	r6, r0, #3014656	; 0x2e0000
    1e18:	05000000 	streq	r0, [r0, #-0]
    1e1c:	02050019 	andeq	r0, r5, #25, 0
    1e20:	00009700 	andeq	r9, r0, r0, lsl #14
    1e24:	05010d03 	streq	r0, [r1, #-3331]	; 0xfffff2fd
    1e28:	31131305 	tstcc	r3, r5, lsl #6
    1e2c:	01061305 	tsteq	r6, r5, lsl #6
    1e30:	052f0105 	streq	r0, [pc, #-261]!	; 1d33 <__code_start__-0x62cd>
    1e34:	0585061b 	streq	r0, [r5, #1563]	; 0x61b
    1e38:	05141305 	ldreq	r1, [r4, #-773]	; 0xfffffcfb
    1e3c:	16052f09 	strne	r2, [r5], -r9, lsl #30
    1e40:	0e050106 	adfeqs	f0, f5, f6
    1e44:	0605052e 	streq	r0, [r5], -lr, lsr #10
    1e48:	0601052f 	streq	r0, [r1], -pc, lsr #10
    1e4c:	0617052f 	ldreq	r0, [r7], -pc, lsr #10
    1e50:	2f050530 	svccs	0x00050530
    1e54:	01060805 	tsteq	r6, r5, lsl #16
    1e58:	052e0705 	streq	r0, [lr, #-1797]!	; 0xfffff8fb
    1e5c:	30500605 	subscc	r0, r0, r5, lsl #12
    1e60:	13134d2f 	tstne	r3, #3008	; 0xbc0
    1e64:	00671513 	rsbeq	r1, r7, r3, lsl r5
    1e68:	67010402 	strvs	r0, [r1, -r2, lsl #8]
    1e6c:	02000d05 	andeq	r0, r0, #320	; 0x140
    1e70:	05010104 	streq	r0, [r1, #-260]	; 0xfffffefc
    1e74:	0402000a 	streq	r0, [r2], #-10
    1e78:	09050101 	stmdbeq	r5, {r0, r8}
    1e7c:	022e6d03 	eoreq	r6, lr, #192	; 0xc0
    1e80:	0101000c 	tsteq	r1, ip
    1e84:	000000fa 	strdeq	r0, [r0], -sl
    1e88:	00830003 	addeq	r0, r3, r3
    1e8c:	01020000 	mrseq	r0, (UNDEF: 2)
    1e90:	000d0efb 	strdeq	r0, [sp], -fp
    1e94:	01010101 	tsteq	r1, r1, lsl #2
    1e98:	01000000 	mrseq	r0, (UNDEF: 0)
    1e9c:	2e010000 	cdpcs	0, 0, cr0, cr1, cr0, {0}
    1ea0:	6174732f 	cmnvs	r4, pc, lsr #6
    1ea4:	732d6666 			; <UNDEFINED> instruction: 0x732d6666
    1ea8:	2f006372 	svccs	0x00006372
    1eac:	72657355 	rsbvc	r7, r5, #1409286145	; 0x54000001
    1eb0:	72742f73 	rsbsvc	r2, r4, #460	; 0x1cc
    1eb4:	65747369 	ldrbvs	r7, [r4, #-873]!	; 0xfffffc97
    1eb8:	6c6f6e6e 	stclvs	14, cr6, [pc], #-440	; 1d08 <__code_start__-0x62f8>
    1ebc:	6e616d6c 	cdpvs	13, 6, cr6, cr1, cr12, {3}
    1ec0:	636f442f 	cmnvs	pc, #788529152	; 0x2f000000
    1ec4:	6e656d75 	mcrvs	13, 3, r6, cr5, cr5, {3}
    1ec8:	532f7374 			; <UNDEFINED> instruction: 0x532f7374
    1ecc:	6e697270 	mcrvs	2, 3, r7, cr9, cr0, {3}
    1ed0:	75515f67 	ldrbvc	r5, [r1, #-3943]	; 0xfffff099
    1ed4:	65747261 	ldrbvs	r7, [r4, #-609]!	; 0xfffffd9f
    1ed8:	30325f72 	eorscc	r5, r2, r2, ror pc
    1edc:	432f3232 			; <UNDEFINED> instruction: 0x432f3232
    1ee0:	30343253 	eorscc	r3, r4, r3, asr r2
    1ee4:	732d584c 			; <UNDEFINED> instruction: 0x732d584c
    1ee8:	32327270 	eorscc	r7, r2, #112, 4
    1eec:	62696c2f 	rsbvs	r6, r9, #12032	; 0x2f00
    1ef0:	692f6970 	stmdbvs	pc!, {r4, r5, r6, r8, fp, sp, lr}	; <UNPREDICTABLE>
    1ef4:	756c636e 	strbvc	r6, [ip, #-878]!	; 0xfffffc92
    1ef8:	00006564 	andeq	r6, r0, r4, ror #10
    1efc:	656d6974 	strbvs	r6, [sp, #-2420]!	; 0xfffff68c
    1f00:	00632e72 	rsbeq	r2, r3, r2, ror lr
    1f04:	72000001 	andvc	r0, r0, #1, 0
    1f08:	682e6970 	stmdavs	lr!, {r4, r5, r6, r8, fp, sp, lr}
    1f0c:	00000200 	andeq	r0, r0, r0, lsl #4
    1f10:	00230500 	eoreq	r0, r3, r0, lsl #10
    1f14:	97800205 	strls	r0, [r0, r5, lsl #4]
    1f18:	05150000 	ldreq	r0, [r5, #-0]
    1f1c:	0c052f05 	stceq	15, cr2, [r5], {5}
    1f20:	01050106 	tsteq	r5, r6, lsl #2
    1f24:	061f054b 	ldreq	r0, [pc], -fp, asr #10
    1f28:	3105054d 	tstcc	r5, sp, asr #10
    1f2c:	0612052f 	ldreq	r0, [r2], -pc, lsr #10
    1f30:	06050501 	streq	r0, [r5], -r1, lsl #10
    1f34:	01052f4b 	tsteq	r5, fp, asr #30
    1f38:	1c051306 	stcne	3, cr1, [r5], {6}
    1f3c:	01064c06 	tsteq	r6, r6, lsl #24
    1f40:	4b060505 	blmi	18335c <__bss_end__+0x178554>
    1f44:	01061305 	tsteq	r6, r5, lsl #6
    1f48:	0605052e 	streq	r0, [r5], -lr, lsr #10
    1f4c:	1309052f 	movwne	r0, #38191	; 0x952f
    1f50:	01061705 	tsteq	r6, r5, lsl #14
    1f54:	2f060905 	svccs	0x00060905
    1f58:	01061105 	tsteq	r6, r5, lsl #2
    1f5c:	052e0c05 	streq	r0, [lr, #-3077]!	; 0xfffff3fb
    1f60:	066b061c 			; <UNDEFINED> instruction: 0x066b061c
    1f64:	06050501 	streq	r0, [r5], -r1, lsl #10
    1f68:	054a062f 	strbeq	r0, [sl, #-1583]	; 0xfffff9d1
    1f6c:	1e054b01 	vmlane.f64	d4, d5, d1
    1f70:	01062f06 	tsteq	r6, r6, lsl #30
    1f74:	2f060505 	svccs	0x00060505
    1f78:	01054a06 	tsteq	r5, r6, lsl #20
    1f7c:	0002024b 	andeq	r0, r2, fp, asr #4
    1f80:	02050101 	andeq	r0, r5, #1073741824	; 0x40000000
    1f84:	00030000 	andeq	r0, r3, r0
    1f88:	000000c9 	andeq	r0, r0, r9, asr #1
    1f8c:	0efb0102 	cdpeq	1, 15, cr0, cr11, cr2, {0}
    1f90:	0101000d 	tsteq	r1, sp
    1f94:	00000101 	andeq	r0, r0, r1, lsl #2
    1f98:	00000100 	andeq	r0, r0, r0, lsl #2
    1f9c:	6f682f01 	svcvs	0x00682f01
    1fa0:	652f656d 	strvs	r6, [pc, #-1389]!	; 1a3b <__code_start__-0x65c5>
    1fa4:	656c676e 	strbvs	r6, [ip, #-1902]!	; 0xfffff892
    1fa8:	6c632f72 	stclvs	15, cr2, [r3], #-456	; 0xfffffe38
    1fac:	2f737361 	svccs	0x00737361
    1fb0:	34327363 	ldrtcc	r7, [r2], #-867	; 0xfffffc9d
    1fb4:	2d786c30 	ldclcs	12, cr6, [r8, #-192]!	; 0xffffff40
    1fb8:	70733232 	rsbsvc	r3, r3, r2, lsr r2
    1fbc:	6c2f2f72 	stcvs	15, cr2, [pc], #-456	; 1dfc <__code_start__-0x6204>
    1fc0:	69706269 	ldmdbvs	r0!, {r0, r3, r5, r6, r9, sp, lr}^
    1fc4:	636e692f 	cmnvs	lr, #770048	; 0xbc000
    1fc8:	6564756c 	strbvs	r7, [r4, #-1388]!	; 0xfffffa94
    1fcc:	73752f00 	cmnvc	r5, #0, 30
    1fd0:	68732f72 	ldmdavs	r3!, {r1, r4, r5, r6, r8, r9, sl, fp, sp}^
    1fd4:	2f657261 	svccs	0x00657261
    1fd8:	2d636367 	stclcs	3, cr6, [r3, #-412]!	; 0xfffffe64
    1fdc:	2d6d7261 	sfmcs	f7, 2, [sp, #-388]!	; 0xfffffe7c
    1fe0:	656e6f6e 	strbvs	r6, [lr, #-3950]!	; 0xfffff092
    1fe4:	6261652d 	rsbvs	r6, r1, #188743680	; 0xb400000
    1fe8:	30312d69 	eorscc	r2, r1, r9, ror #26
    1fec:	322d332e 	eorcc	r3, sp, #-1207959552	; 0xb8000000
    1ff0:	2e313230 	mrccs	2, 1, r3, cr1, cr0, {1}
    1ff4:	6c2f3031 	stcvs	0, cr3, [pc], #-196	; 1f38 <__code_start__-0x60c8>
    1ff8:	672f6269 	strvs	r6, [pc, -r9, ror #4]!
    1ffc:	612f6363 			; <UNDEFINED> instruction: 0x612f6363
    2000:	6e2d6d72 	mcrvs	13, 1, r6, cr13, cr2, {3}
    2004:	2d656e6f 	stclcs	14, cr6, [r5, #-444]!	; 0xfffffe44
    2008:	69626165 	stmdbvs	r2!, {r0, r2, r5, r6, r8, sp, lr}^
    200c:	2e30312f 	rsfcssp	f3, f0, #10.0
    2010:	2f312e33 	svccs	0x00312e33
    2014:	6c636e69 	stclvs	14, cr6, [r3], #-420	; 0xfffffe5c
    2018:	00656475 	rsbeq	r6, r5, r5, ror r4
    201c:	72617500 	rsbvc	r7, r1, #0, 10
    2020:	00632e74 	rsbeq	r2, r3, r4, ror lr
    2024:	75000000 	strvc	r0, [r0, #-0]
    2028:	2e747261 	cdpcs	2, 7, cr7, cr4, cr1, {3}
    202c:	00010068 	andeq	r0, r1, r8, rrx
    2030:	69707200 	ldmdbvs	r0!, {r9, ip, sp, lr}^
    2034:	0100682e 	tsteq	r0, lr, lsr #16
    2038:	70670000 	rsbvc	r0, r7, r0
    203c:	682e6f69 	stmdavs	lr!, {r0, r3, r5, r6, r8, r9, sl, fp, sp, lr}
    2040:	00000100 	andeq	r0, r0, r0, lsl #2
    2044:	69647473 	stmdbvs	r4!, {r0, r1, r4, r5, r6, sl, ip, sp, lr}^
    2048:	672d746e 	strvs	r7, [sp, -lr, ror #8]!
    204c:	682e6363 	stmdavs	lr!, {r0, r1, r5, r6, r8, r9, sp, lr}
    2050:	00000200 	andeq	r0, r0, r0, lsl #4
    2054:	00390500 	eorseq	r0, r9, r0, lsl #10
    2058:	98040205 	stmdals	r4, {r0, r2, r9}
    205c:	30030000 	andcc	r0, r3, r0
    2060:	05010601 	streq	r0, [r1, #-1537]	; 0xfffff9ff
    2064:	05670605 	strbeq	r0, [r7, #-1541]!	; 0xfffff9fb
    2068:	05010611 	streq	r0, [r1, #-1553]	; 0xfffff9ef
    206c:	01052e05 	tsteq	r5, r5, lsl #28
    2070:	06380567 	ldrteq	r0, [r8], -r7, ror #10
    2074:	05010629 	streq	r0, [r1, #-1577]	; 0xfffff9d7
    2078:	05670605 	strbeq	r0, [r7, #-1541]!	; 0xfffff9fb
    207c:	05010611 	streq	r0, [r1, #-1553]	; 0xfffff9ef
    2080:	01052e05 	tsteq	r5, r5, lsl #28
    2084:	06160567 	ldreq	r0, [r6], -r7, ror #10
    2088:	052e1503 	streq	r1, [lr, #-1283]!	; 0xfffffafd
    208c:	68673505 	stmdavs	r7!, {r0, r2, r8, sl, ip, sp}^
    2090:	0c036835 	stceq	8, cr6, [r3], {53}	; 0x35
    2094:	696b852e 	stmdbvs	fp!, {r1, r2, r3, r5, r8, sl, pc}^
    2098:	660c0369 	strvs	r0, [ip], -r9, ror #6
    209c:	05676b13 	strbeq	r6, [r7, #-2835]!	; 0xfffff4ed
    20a0:	052f0601 	streq	r0, [pc, #-1537]!	; 1aa7 <__code_start__-0x6559>
    20a4:	25080619 	strcs	r0, [r8, #-1561]	; 0xfffff9e7
    20a8:	05340505 	ldreq	r0, [r4, #-1285]!	; 0xfffffafb
    20ac:	0501060d 	streq	r0, [r1, #-1549]	; 0xfffff9f3
    20b0:	19054c01 	stmdbne	r5, {r0, sl, fp, lr}
    20b4:	05056706 	streq	r6, [r5, #-1798]	; 0xfffff8fa
    20b8:	060d0536 			; <UNDEFINED> instruction: 0x060d0536
    20bc:	4a280501 	bmi	a034c8 <__bss_end__+0x9f86c0>
    20c0:	05300105 	ldreq	r0, [r0, #-261]!	; 0xfffffefb
    20c4:	05870615 	streq	r0, [r7, #1557]	; 0x615
    20c8:	052f2f05 	streq	r2, [pc, #-3845]!	; 11cb <__code_start__-0x6e35>
    20cc:	04020009 	streq	r0, [r2], #-9
    20d0:	0a051301 	beq	146cdc <__bss_end__+0x13bed4>
    20d4:	01040200 	mrseq	r0, R12_usr
    20d8:	000c0511 	andeq	r0, ip, r1, lsl r5
    20dc:	06010402 	streq	r0, [r1], -r2, lsl #8
    20e0:	000a0501 	andeq	r0, sl, r1, lsl #10
    20e4:	2e010402 	cdpcs	4, 0, cr0, cr1, cr2, {0}
    20e8:	4c060505 	cfstr32mi	mvfx0, [r6], {5}
    20ec:	01060e05 	tsteq	r6, r5, lsl #28
    20f0:	054a0905 	strbeq	r0, [sl, #-2309]	; 0xfffff6fb
    20f4:	2f2f0605 	svccs	0x002f0605
    20f8:	13060105 	movwne	r0, #24837	; 0x6105
    20fc:	67061c05 	strvs	r1, [r6, -r5, lsl #24]
    2100:	05050106 	streq	r0, [r5, #-262]	; 0xfffffefa
    2104:	052f4b06 	streq	r4, [pc, #-2822]!	; 1606 <__code_start__-0x69fa>
    2108:	04020009 	streq	r0, [r2], #-9
    210c:	0a051301 	beq	146d18 <__bss_end__+0x13bf10>
    2110:	01040200 	mrseq	r0, R12_usr
    2114:	000c0511 	andeq	r0, ip, r1, lsl r5
    2118:	06010402 	streq	r0, [r1], -r2, lsl #8
    211c:	000a0501 	andeq	r0, sl, r1, lsl #10
    2120:	2e010402 	cdpcs	4, 0, cr0, cr1, cr2, {0}
    2124:	4c060505 	cfstr32mi	mvfx0, [r6], {5}
    2128:	06010567 	streq	r0, [r1], -r7, ror #10
    212c:	0619052f 	ldreq	r0, [r9], -pc, lsr #10
    2130:	2e1b054c 	cfmac32cs	mvfx0, mvfx11, mvfx12
    2134:	052e2a05 	streq	r2, [lr, #-2565]!	; 0xfffff5fb
    2138:	05010631 	streq	r0, [r1, #-1585]	; 0xfffff9cf
    213c:	1c052e42 	stcne	14, cr2, [r5], {66}	; 0x42
    2140:	05053106 	streq	r3, [r5, #-262]	; 0xfffffefa
    2144:	2e09032f 	cdpcs	3, 0, cr0, cr9, cr15, {1}
    2148:	01060e05 	tsteq	r6, r5, lsl #28
    214c:	054a2105 	strbeq	r2, [sl, #-261]	; 0xfffffefb
    2150:	2e0a0301 	cdpcs	3, 0, cr0, cr10, cr1, {0}
    2154:	68061a05 	stmdavs	r6, {r0, r2, r9, fp, ip}
    2158:	02000905 	andeq	r0, r0, #81920	; 0x14000
    215c:	05300104 	ldreq	r0, [r0, #-260]!	; 0xfffffefc
    2160:	0402000a 	streq	r0, [r2], #-10
    2164:	0c051101 	stfeqs	f1, [r5], {1}
    2168:	01040200 	mrseq	r0, R12_usr
    216c:	0a050106 	beq	14258c <__bss_end__+0x137784>
    2170:	01040200 	mrseq	r0, R12_usr
    2174:	0619052e 	ldreq	r0, [r9], -lr, lsr #10
    2178:	667ee803 	ldrbtvs	lr, [lr], -r3, lsl #16
    217c:	2f2f0505 	svccs	0x002f0505
    2180:	0105672f 	tsteq	r5, pc, lsr #14
    2184:	04022f06 	streq	r2, [r2], #-3846	; 0xfffff0fa
    2188:	93010100 	movwls	r0, #4352	; 0x1100
    218c:	03000003 	movweq	r0, #3
    2190:	0000b800 	andeq	fp, r0, r0, lsl #16
    2194:	fb010200 	blx	4299e <__bss_end__+0x37b96>
    2198:	01000d0e 	tsteq	r0, lr, lsl #26
    219c:	00010101 	andeq	r0, r1, r1, lsl #2
    21a0:	00010000 	andeq	r0, r1, r0
    21a4:	682f0100 	stmdavs	pc!, {r8}	; <UNPREDICTABLE>
    21a8:	2f656d6f 	svccs	0x00656d6f
    21ac:	6c676e65 	stclvs	14, cr6, [r7], #-404	; 0xfffffe6c
    21b0:	632f7265 			; <UNDEFINED> instruction: 0x632f7265
    21b4:	7373616c 	cmnvc	r3, #27
    21b8:	3273632f 	rsbscc	r6, r3, #-1140850688	; 0xbc000000
    21bc:	786c3034 	stmdavc	ip!, {r2, r4, r5, ip, sp}^
    21c0:	7332322d 	teqvc	r2, #-805306366	; 0xd0000002
    21c4:	2f2f7270 	svccs	0x002f7270
    21c8:	7062696c 	rsbvc	r6, r2, ip, ror #18
    21cc:	6e692f69 	cdpvs	15, 6, cr2, cr9, cr9, {3}
    21d0:	64756c63 	ldrbtvs	r6, [r5], #-3171	; 0xfffff39d
    21d4:	752f0065 	strvc	r0, [pc, #-101]!	; 2177 <__code_start__-0x5e89>
    21d8:	732f7273 			; <UNDEFINED> instruction: 0x732f7273
    21dc:	65726168 	ldrbvs	r6, [r2, #-360]!	; 0xfffffe98
    21e0:	6363672f 	cmnvs	r3, #12320768	; 0xbc0000
    21e4:	6d72612d 	ldfvse	f6, [r2, #-180]!	; 0xffffff4c
    21e8:	6e6f6e2d 	cdpvs	14, 6, cr6, cr15, cr13, {1}
    21ec:	61652d65 	cmnvs	r5, r5, ror #26
    21f0:	312d6962 			; <UNDEFINED> instruction: 0x312d6962
    21f4:	2d332e30 	ldccs	14, cr2, [r3, #-192]!	; 0xffffff40
    21f8:	31323032 	teqcc	r2, r2, lsr r0
    21fc:	2f30312e 	svccs	0x0030312e
    2200:	2f62696c 	svccs	0x0062696c
    2204:	2f636367 	svccs	0x00636367
    2208:	2d6d7261 	sfmcs	f7, 2, [sp, #-388]!	; 0xfffffe7c
    220c:	656e6f6e 	strbvs	r6, [lr, #-3950]!	; 0xfffff092
    2210:	6261652d 	rsbvs	r6, r1, #188743680	; 0xb400000
    2214:	30312f69 	eorscc	r2, r1, r9, ror #30
    2218:	312e332e 			; <UNDEFINED> instruction: 0x312e332e
    221c:	636e692f 	cmnvs	lr, #770048	; 0xbc000
    2220:	6564756c 	strbvs	r7, [r4, #-1388]!	; 0xfffffa94
    2224:	6d6b0000 	stclvs	0, cr0, [fp, #-0]
    2228:	6f6c6c61 	svcvs	0x006c6c61
    222c:	00632e63 	rsbeq	r2, r3, r3, ror #28
    2230:	72000000 	andvc	r0, r0, #0, 0
    2234:	682e6970 	stmdavs	lr!, {r4, r5, r6, r8, fp, sp, lr}
    2238:	00000100 	andeq	r0, r0, r0, lsl #2
    223c:	69647473 	stmdbvs	r4!, {r0, r1, r4, r5, r6, sl, ip, sp, lr}^
    2240:	672d746e 	strvs	r7, [sp, -lr, ror #8]!
    2244:	682e6363 	stmdavs	lr!, {r0, r1, r5, r6, r8, r9, sp, lr}
    2248:	00000200 	andeq	r0, r0, r0, lsl #4
    224c:	001e0500 	andseq	r0, lr, r0, lsl #10
    2250:	99f40205 	ldmibls	r4!, {r0, r2, r9}^
    2254:	27030000 	strcs	r0, [r3, -r0]
    2258:	01200501 			; <UNDEFINED> instruction: 0x01200501
    225c:	01063105 	tsteq	r6, r5, lsl #2
    2260:	83062005 	movwhi	r2, #24581	; 0x6005
    2264:	05012205 	streq	r2, [r1, #-517]	; 0xfffffdfb
    2268:	05010635 	streq	r0, [r1, #-1589]	; 0xfffff9cb
    226c:	0583061e 	streq	r0, [r3, #1566]	; 0x61e
    2270:	2d050120 	stfcss	f0, [r5, #-128]	; 0xffffff80
    2274:	42050106 	andmi	r0, r5, #-2147483647	; 0x80000001
    2278:	01068506 	tsteq	r6, r6, lsl #10
    227c:	4b060505 	blmi	183698 <__bss_end__+0x178890>
    2280:	2e060114 	mcrcs	1, 0, r0, cr6, cr4, {0}
    2284:	02040200 	andeq	r0, r4, #0, 4
    2288:	02002e06 	andeq	r2, r0, #96	; 0x60
    228c:	00010204 	andeq	r0, r1, r4, lsl #4
    2290:	15020402 	strne	r0, [r2, #-1026]	; 0xfffffbfe
    2294:	02000d05 	andeq	r0, r0, #320	; 0x140
    2298:	01060204 	tsteq	r6, r4, lsl #4
    229c:	02000705 	andeq	r0, r0, #1310720	; 0x140000
    22a0:	054a0204 	strbeq	r0, [sl, #-516]	; 0xfffffdfc
    22a4:	054b0609 	strbeq	r0, [fp, #-1545]	; 0xfffff9f7
    22a8:	17051505 	strne	r1, [r5, -r5, lsl #10]
    22ac:	10050106 	andne	r0, r5, r6, lsl #2
    22b0:	0605054a 	streq	r0, [r5], -sl, asr #10
    22b4:	061b052f 	ldreq	r0, [fp], -pc, lsr #10
    22b8:	2e0e0501 	cfsh32cs	mvfx0, mvfx14, #1
    22bc:	052f0105 	streq	r0, [pc, #-261]!	; 21bf <__code_start__-0x5e41>
    22c0:	04020005 	streq	r0, [r2], #-5
    22c4:	77030601 	strvc	r0, [r3, -r1, lsl #12]
    22c8:	0402004a 	streq	r0, [r2], #-74	; 0xffffffb6
    22cc:	02000101 	andeq	r0, r0, #1073741824	; 0x40000000
    22d0:	9e060104 	adflss	f0, f6, f4
    22d4:	01040200 	mrseq	r0, R12_usr
    22d8:	0402002e 	streq	r0, [r2], #-46	; 0xffffffd2
    22dc:	052e0601 	streq	r0, [lr, #-1537]!	; 0xfffff9ff
    22e0:	06013209 	streq	r3, [r1], -r9, lsl #4
    22e4:	2e062ed6 	mcrcs	14, 0, r2, cr6, cr6, {6}
    22e8:	05de1905 	ldrbeq	r1, [lr, #2309]	; 0x905
    22ec:	05142f05 	ldreq	r2, [r4, #-3845]	; 0xfffff0fb
    22f0:	05010608 	streq	r0, [r1, #-1544]	; 0xfffff9f8
    22f4:	09054a07 	stmdbeq	r5, {r0, r1, r2, r9, fp, lr}
    22f8:	05054b06 	streq	r4, [r5, #-2822]	; 0xfffff4fa
    22fc:	060c0513 			; <UNDEFINED> instruction: 0x060c0513
    2300:	06050501 	streq	r0, [r5], -r1, lsl #10
    2304:	01051367 	tsteq	r5, r7, ror #6
    2308:	09056706 	stmdbeq	r5, {r1, r2, r8, r9, sl, sp, lr}
    230c:	9e012a06 	vmlals.f32	s4, s2, s12
    2310:	06a52805 	strteq	r2, [r5], r5, lsl #16
    2314:	06050501 	streq	r0, [r5], -r1, lsl #10
    2318:	2e06014b 	adfcssm	f0, f6, #3.0
    231c:	13012e06 	movwne	r2, #7686	; 0x1e06
    2320:	47031805 	strmi	r1, [r3, -r5, lsl #16]
    2324:	13050501 	movwne	r0, #21761	; 0x5501
    2328:	06010601 	streq	r0, [r1], -r1, lsl #12
    232c:	1301150f 	movwne	r1, #5391	; 0x150f
    2330:	01060e05 	tsteq	r6, r5, lsl #28
    2334:	2e2e1605 	cfmadda32cs	mvax0, mvax1, mvfx14, mvfx5
    2338:	03060505 	movweq	r0, #25861	; 0x6505
    233c:	0b050139 	bleq	142828 <__bss_end__+0x137a20>
    2340:	05050106 	streq	r0, [r5, #-262]	; 0xfffffefa
    2344:	0a054b06 	beq	154f64 <__bss_end__+0x14a15c>
    2348:	05050106 	streq	r0, [r5, #-262]	; 0xfffffefa
    234c:	0d054b06 	vstreq	d4, [r5, #-24]	; 0xffffffe8
    2350:	07050106 	streq	r0, [r5, -r6, lsl #2]
    2354:	4d01052e 	cfstr32mi	mvfx0, [r1, #-184]	; 0xffffff48
    2358:	02000505 	andeq	r0, r0, #20971520	; 0x1400000
    235c:	03060104 	movweq	r0, #24836	; 0x6104
    2360:	02004a78 	andeq	r4, r0, #120, 20	; 0x78000
    2364:	00010104 	andeq	r0, r1, r4, lsl #2
    2368:	06010402 	streq	r0, [r1], -r2, lsl #8
    236c:	040200ba 	streq	r0, [r2], #-186	; 0xffffff46
    2370:	052e0601 	streq	r0, [lr, #-1537]!	; 0xfffff9ff
    2374:	06013409 	streq	r3, [r1], -r9, lsl #8
    2378:	2e066682 	cfmadd32cs	mvax4, mvfx6, mvfx6, mvfx2
    237c:	06db2005 	ldrbeq	r2, [fp], r5
    2380:	06050501 	streq	r0, [r5], -r1, lsl #10
    2384:	0200014b 	andeq	r0, r0, #-1073741806	; 0xc0000012
    2388:	004a0204 	subeq	r0, sl, r4, lsl #4
    238c:	01020402 	tsteq	r2, r2, lsl #8
    2390:	02040200 	andeq	r0, r4, #0, 4
    2394:	00120513 	andseq	r0, r2, r3, lsl r5
    2398:	06020402 	streq	r0, [r2], -r2, lsl #8
    239c:	04020001 	streq	r0, [r2], #-1
    23a0:	02002e02 	andeq	r2, r0, #2, 28
    23a4:	052e0204 	streq	r0, [lr, #-516]!	; 0xfffffdfc
    23a8:	04020005 	streq	r0, [r2], #-5
    23ac:	002f0602 	eoreq	r0, pc, r2, lsl #12
    23b0:	67020402 	strvs	r0, [r2, -r2, lsl #8]
    23b4:	02000105 	andeq	r0, r0, #1073741825	; 0x40000001
    23b8:	13060204 	movwne	r0, #25092	; 0x6204
    23bc:	02000505 	andeq	r0, r0, #20971520	; 0x1400000
    23c0:	62060104 	andvs	r0, r6, #1
    23c4:	01040200 	mrseq	r0, R12_usr
    23c8:	04020001 	streq	r0, [r2], #-1
    23cc:	00ba0601 	adcseq	r0, sl, r1, lsl #12
    23d0:	06010402 	streq	r0, [r1], -r2, lsl #8
    23d4:	033c052e 	teqeq	ip, #192937984	; 0xb800000
    23d8:	01069e0a 	tsteq	r6, sl, lsl #28
    23dc:	4b060505 	blmi	1837f8 <__bss_end__+0x1789f0>
    23e0:	062e0601 	strteq	r0, [lr], -r1, lsl #12
    23e4:	0113012e 	tsteq	r3, lr, lsr #2
    23e8:	ad031805 	stcge	8, cr1, [r3, #-20]	; 0xffffffec
    23ec:	0505017f 	streq	r0, [r5, #-383]	; 0xfffffe81
    23f0:	06110513 			; <UNDEFINED> instruction: 0x06110513
    23f4:	05052e01 	streq	r2, [r5, #-3585]	; 0xfffff1ff
    23f8:	0100d203 	tsteq	r0, r3, lsl #4
    23fc:	05134a06 	ldreq	r4, [r3, #-2566]	; 0xfffff5fa
    2400:	7fa30318 	svcvc	0x00a30318
    2404:	13050501 	movwne	r0, #21761	; 0x5501
    2408:	01061605 	tsteq	r6, r5, lsl #12
    240c:	0605054a 	streq	r0, [r5], -sl, asr #10
    2410:	0100e103 	tsteq	r0, r3, lsl #2
    2414:	01061205 	tsteq	r6, r5, lsl #4
    2418:	4b060505 	blmi	183834 <__bss_end__+0x178a2c>
    241c:	a9031805 	stmdbge	r3, {r0, r2, fp, ip}
    2420:	0505017f 	streq	r0, [r5, #-383]	; 0xfffffe81
    2424:	18050113 	stmdane	r5, {r0, r1, r4, r8}
    2428:	1305050e 	movwne	r0, #21774	; 0x550e
    242c:	01061105 	tsteq	r6, r5, lsl #2
    2430:	1505052e 	strne	r0, [r5, #-1326]	; 0xfffffad2
    2434:	13014a06 	movwne	r4, #6662	; 0x1a06
    2438:	01060e05 	tsteq	r6, r5, lsl #28
    243c:	2e16052e 	cfmul64cs	mvdx0, mvdx6, mvdx14
    2440:	0605052e 	streq	r0, [r5], -lr, lsr #10
    2444:	0100d603 	tsteq	r0, r3, lsl #12
    2448:	03180501 	tsteq	r8, #4194304	; 0x400000
    244c:	05017f9f 	streq	r7, [r1, #-3999]	; 0xfffff061
    2450:	19051305 	stmdbne	r5, {r0, r2, r8, r9, ip}
    2454:	052e0106 	streq	r0, [lr, #-262]!	; 0xfffffefa
    2458:	00e00305 	rsceq	r0, r0, r5, lsl #6
    245c:	04020001 	streq	r0, [r2], #-1
    2460:	004a0602 	subeq	r0, sl, r2, lsl #12
    2464:	14020402 	strne	r0, [r2], #-1026	; 0xfffffbfe
    2468:	02000a05 	andeq	r0, r0, #20480	; 0x5000
    246c:	01060204 	tsteq	r6, r4, lsl #4
    2470:	02000505 	andeq	r0, r0, #20971520	; 0x1400000
    2474:	4b060204 	blmi	182c8c <__bss_end__+0x177e84>
    2478:	02000c05 	andeq	r0, r0, #1280	; 0x500
    247c:	01060204 	tsteq	r6, r4, lsl #4
    2480:	02000105 	andeq	r0, r0, #1073741825	; 0x40000001
    2484:	052f0204 	streq	r0, [pc, #-516]!	; 2288 <__code_start__-0x5d78>
    2488:	04020005 	streq	r0, [r2], #-5
    248c:	73030601 	movwvc	r0, #13825	; 0x3601
    2490:	0402004a 	streq	r0, [r2], #-74	; 0xffffffb6
    2494:	02000101 	andeq	r0, r0, #1073741824	; 0x40000000
    2498:	9e060104 	adflss	f0, f6, f4
    249c:	01040200 	mrseq	r0, R12_usr
    24a0:	0402002e 	streq	r0, [r2], #-46	; 0xffffffd2
    24a4:	002e0601 	eoreq	r0, lr, r1, lsl #12
    24a8:	2f010402 	svccs	0x00010402
    24ac:	01040200 	mrseq	r0, R12_usr
    24b0:	0402002e 	streq	r0, [r2], #-46	; 0xffffffd2
    24b4:	b103d601 	tstlt	r3, r1, lsl #12
    24b8:	06012e7f 			; <UNDEFINED> instruction: 0x06012e7f
    24bc:	062e2e82 	strteq	r2, [lr], -r2, lsl #29
    24c0:	002e062e 	eoreq	r0, lr, lr, lsr #12
    24c4:	06010402 	streq	r0, [r1], -r2, lsl #8
    24c8:	0100d703 	tsteq	r0, r3, lsl #14
    24cc:	01040200 	mrseq	r0, R12_usr
    24d0:	0402002e 	streq	r0, [r2], #-46	; 0xffffffd2
    24d4:	1505d601 	strne	sp, [r5, #-1537]	; 0xfffff9ff
    24d8:	17057b08 	strne	r7, [r5, -r8, lsl #22]
    24dc:	31160501 	tstcc	r6, r1, lsl #10
    24e0:	05011805 	streq	r1, [r1, #-2053]	; 0xfffff7fb
    24e4:	0501061d 	streq	r0, [r1, #-1565]	; 0xfffff9e3
    24e8:	1905662b 	stmdbne	r5, {r0, r1, r3, r5, r9, sl, sp, lr}
    24ec:	05054d06 	streq	r4, [r5, #-3334]	; 0xfffff2fa
    24f0:	060c0513 			; <UNDEFINED> instruction: 0x060c0513
    24f4:	4a070501 	bmi	1c3900 <__bss_end__+0x1b8af8>
    24f8:	02002505 	andeq	r2, r0, #20971520	; 0x1400000
    24fc:	054a0104 	strbeq	r0, [sl, #-260]	; 0xfffffefc
    2500:	0402001e 	streq	r0, [r2], #-30	; 0xffffffe2
    2504:	09054a01 	stmdbeq	r5, {r0, r9, fp, lr}
    2508:	05054b06 	streq	r4, [r5, #-2822]	; 0xfffff4fa
    250c:	060a0513 			; <UNDEFINED> instruction: 0x060a0513
    2510:	63190501 	tstvs	r9, #4194304	; 0x400000
    2514:	4c060905 			; <UNDEFINED> instruction: 0x4c060905
    2518:	069e0601 	ldreq	r0, [lr], r1, lsl #12
    251c:	000a022e 	andeq	r0, sl, lr, lsr #4
    2520:	00be0101 	adcseq	r0, lr, r1, lsl #2
    2524:	00030000 	andeq	r0, r3, r0
    2528:	00000080 	andeq	r0, r0, r0, lsl #1
    252c:	0efb0102 	cdpeq	1, 15, cr0, cr11, cr2, {0}
    2530:	0101000d 	tsteq	r1, sp
    2534:	00000101 	andeq	r0, r0, r1, lsl #2
    2538:	00000100 	andeq	r0, r0, r0, lsl #2
    253c:	6c2f2e01 	stcvs	14, cr2, [pc], #-4	; 2540 <__code_start__-0x5ac0>
    2540:	00636269 	rsbeq	r6, r3, r9, ror #4
    2544:	6573552f 	ldrbvs	r5, [r3, #-1327]!	; 0xfffffad1
    2548:	742f7372 	strtvc	r7, [pc], #-882	; 2550 <__code_start__-0x5ab0>
    254c:	74736972 	ldrbtvc	r6, [r3], #-2418	; 0xfffff68e
    2550:	6f6e6e65 	svcvs	0x006e6e65
    2554:	616d6c6c 	cmnvs	sp, ip, ror #24
    2558:	6f442f6e 	svcvs	0x00442f6e
    255c:	656d7563 	strbvs	r7, [sp, #-1379]!	; 0xfffffa9d
    2560:	2f73746e 	svccs	0x0073746e
    2564:	69727053 	ldmdbvs	r2!, {r0, r1, r4, r6, ip, sp, lr}^
    2568:	515f676e 	cmppl	pc, lr, ror #14
    256c:	74726175 	ldrbtvc	r6, [r2], #-373	; 0xfffffe8b
    2570:	325f7265 	subscc	r7, pc, #1342177286	; 0x50000006
    2574:	2f323230 	svccs	0x00323230
    2578:	34325343 	ldrtcc	r5, [r2], #-835	; 0xfffffcbd
    257c:	2d584c30 	ldclcs	12, cr4, [r8, #-192]	; 0xffffff40
    2580:	32727073 	rsbscc	r7, r2, #115, 0	; 0x73
    2584:	696c2f32 	stmdbvs	ip!, {r1, r4, r5, r8, r9, sl, fp, sp}^
    2588:	2f697062 	svccs	0x00697062
    258c:	6c636e69 	stclvs	14, cr6, [r3], #-420	; 0xfffffe5c
    2590:	00656475 	rsbeq	r6, r5, r5, ror r4
    2594:	74757000 	ldrbtvc	r7, [r5], #-0
    2598:	72616863 	rsbvc	r6, r1, #6488064	; 0x630000
    259c:	0100632e 	tsteq	r0, lr, lsr #6
    25a0:	70720000 	rsbsvc	r0, r2, r0
    25a4:	00682e69 	rsbeq	r2, r8, r9, ror #28
    25a8:	00000002 	andeq	r0, r0, r2
    25ac:	05002405 	streq	r2, [r0, #-1029]	; 0xfffffbfb
    25b0:	009da402 	addseq	sl, sp, r2, lsl #8
    25b4:	01061400 	tsteq	r6, r0, lsl #8
    25b8:	4a062605 	bmi	18bdd4 <__bss_end__+0x180fcc>
    25bc:	052e3405 	streq	r3, [lr, #-1029]!	; 0xfffffbfb
    25c0:	05010601 	streq	r0, [r1, #-1537]	; 0xfffff9ff
    25c4:	054f061b 	strbeq	r0, [pc, #-1563]	; 1fb1 <__code_start__-0x604f>
    25c8:	11051305 	tstne	r5, r5, lsl #6
    25cc:	01050106 	tsteq	r5, r6, lsl #2
    25d0:	06230567 	strteq	r0, [r3], -r7, ror #10
    25d4:	13050567 	movwne	r0, #21863	; 0x5567
    25d8:	01061105 	tsteq	r6, r5, lsl #2
    25dc:	024b0105 	subeq	r0, fp, #1073741825	; 0x40000001
    25e0:	01010004 	tsteq	r1, r4
    25e4:	0000010a 	andeq	r0, r0, sl, lsl #2
    25e8:	007f0003 	rsbseq	r0, pc, r3
    25ec:	01020000 	mrseq	r0, (UNDEF: 2)
    25f0:	000d0efb 	strdeq	r0, [sp], -fp
    25f4:	01010101 	tsteq	r1, r1, lsl #2
    25f8:	01000000 	mrseq	r0, (UNDEF: 0)
    25fc:	2e010000 	cdpcs	0, 0, cr0, cr1, cr0, {0}
    2600:	62696c2f 	rsbvs	r6, r9, #12032	; 0x2f00
    2604:	552f0063 	strpl	r0, [pc, #-99]!	; 25a9 <__code_start__-0x5a57>
    2608:	73726573 	cmnvc	r2, #482344960	; 0x1cc00000
    260c:	6972742f 	ldmdbvs	r2!, {r0, r1, r2, r3, r5, sl, ip, sp, lr}^
    2610:	6e657473 	mcrvs	4, 3, r7, cr5, cr3, {3}
    2614:	6c6c6f6e 	stclvs	15, cr6, [ip], #-440	; 0xfffffe48
    2618:	2f6e616d 	svccs	0x006e616d
    261c:	75636f44 	strbvc	r6, [r3, #-3908]!	; 0xfffff0bc
    2620:	746e656d 	strbtvc	r6, [lr], #-1389	; 0xfffffa93
    2624:	70532f73 	subsvc	r2, r3, r3, ror pc
    2628:	676e6972 			; <UNDEFINED> instruction: 0x676e6972
    262c:	6175515f 	cmnvs	r5, pc, asr r1
    2630:	72657472 	rsbvc	r7, r5, #1912602624	; 0x72000000
    2634:	3230325f 	eorscc	r3, r0, #-268435451	; 0xf0000005
    2638:	53432f32 	movtpl	r2, #16178	; 0x3f32
    263c:	4c303432 	cfldrsmi	mvf3, [r0], #-200	; 0xffffff38
    2640:	70732d58 	rsbsvc	r2, r3, r8, asr sp
    2644:	2f323272 	svccs	0x00323272
    2648:	7062696c 	rsbvc	r6, r2, ip, ror #18
    264c:	6e692f69 	cdpvs	15, 6, cr2, cr9, cr9, {3}
    2650:	64756c63 	ldrbtvs	r6, [r5], #-3171	; 0xfffff39d
    2654:	73000065 	movwvc	r0, #101	; 0x65
    2658:	61637274 	smcvs	14116	; 0x3724
    265c:	00632e74 	rsbeq	r2, r3, r4, ror lr
    2660:	72000001 	andvc	r0, r0, #1, 0
    2664:	682e6970 	stmdavs	lr!, {r4, r5, r6, r8, fp, sp, lr}
    2668:	00000200 	andeq	r0, r0, r0, lsl #4
    266c:	002c0500 	eoreq	r0, ip, r0, lsl #10
    2670:	9de00205 	sfmls	f0, 2, [r0, #20]!
    2674:	05150000 	ldreq	r0, [r5, #-0]
    2678:	05131305 	ldreq	r1, [r3, #-773]	; 0xfffffcfb
    267c:	0511060b 	ldreq	r0, [r1, #-1547]	; 0xfffff9f5
    2680:	04020005 	streq	r0, [r2], #-5
    2684:	00300601 	eorseq	r0, r0, r1, lsl #12
    2688:	15010402 	strne	r0, [r1, #-1026]	; 0xfffffbfe
    268c:	02000905 	andeq	r0, r0, #81920	; 0x14000
    2690:	05130104 	ldreq	r0, [r3, #-260]	; 0xfffffefc
    2694:	04020010 	streq	r0, [r2], #-16
    2698:	052e0601 	streq	r0, [lr, #-1537]!	; 0xfffff9ff
    269c:	0402000b 	streq	r0, [r2], #-11
    26a0:	02002e01 	andeq	r2, r0, #1, 28
    26a4:	2f060104 	svccs	0x00060104
    26a8:	02000505 	andeq	r0, r0, #20971520	; 0x1400000
    26ac:	01060104 	tsteq	r6, r4, lsl #2
    26b0:	08054e06 	stmdaeq	r5, {r1, r2, r9, sl, fp, lr}
    26b4:	05050106 	streq	r0, [r5, #-262]	; 0xfffffefa
    26b8:	01040200 	mrseq	r0, R12_usr
    26bc:	09052f06 	stmdbeq	r5, {r1, r2, r8, r9, sl, fp, sp}
    26c0:	01040200 	mrseq	r0, R12_usr
    26c4:	000b0513 	andeq	r0, fp, r3, lsl r5
    26c8:	06010402 	streq	r0, [r1], -r2, lsl #8
    26cc:	00090501 	andeq	r0, r9, r1, lsl #10
    26d0:	06010402 	streq	r0, [r1], -r2, lsl #8
    26d4:	000f054b 	andeq	r0, pc, fp, asr #10
    26d8:	06010402 	streq	r0, [r1], -r2, lsl #8
    26dc:	000d0501 	andeq	r0, sp, r1, lsl #10
    26e0:	06010402 	streq	r0, [r1], -r2, lsl #8
    26e4:	0005052f 	andeq	r0, r5, pc, lsr #10
    26e8:	06010402 	streq	r0, [r1], -r2, lsl #8
    26ec:	00060201 	andeq	r0, r6, r1, lsl #4
    26f0:	00c30101 	sbceq	r0, r3, r1, lsl #2
    26f4:	00030000 	andeq	r0, r3, r0
    26f8:	0000007f 	andeq	r0, r0, pc, ror r0
    26fc:	0efb0102 	cdpeq	1, 15, cr0, cr11, cr2, {0}
    2700:	0101000d 	tsteq	r1, sp
    2704:	00000101 	andeq	r0, r0, r1, lsl #2
    2708:	00000100 	andeq	r0, r0, r0, lsl #2
    270c:	6c2f2e01 	stcvs	14, cr2, [pc], #-4	; 2710 <__code_start__-0x58f0>
    2710:	00636269 	rsbeq	r6, r3, r9, ror #4
    2714:	6573552f 	ldrbvs	r5, [r3, #-1327]!	; 0xfffffad1
    2718:	742f7372 	strtvc	r7, [pc], #-882	; 2720 <__code_start__-0x58e0>
    271c:	74736972 	ldrbtvc	r6, [r3], #-2418	; 0xfffff68e
    2720:	6f6e6e65 	svcvs	0x006e6e65
    2724:	616d6c6c 	cmnvs	sp, ip, ror #24
    2728:	6f442f6e 	svcvs	0x00442f6e
    272c:	656d7563 	strbvs	r7, [sp, #-1379]!	; 0xfffffa9d
    2730:	2f73746e 	svccs	0x0073746e
    2734:	69727053 	ldmdbvs	r2!, {r0, r1, r4, r6, ip, sp, lr}^
    2738:	515f676e 	cmppl	pc, lr, ror #14
    273c:	74726175 	ldrbtvc	r6, [r2], #-373	; 0xfffffe8b
    2740:	325f7265 	subscc	r7, pc, #1342177286	; 0x50000006
    2744:	2f323230 	svccs	0x00323230
    2748:	34325343 	ldrtcc	r5, [r2], #-835	; 0xfffffcbd
    274c:	2d584c30 	ldclcs	12, cr4, [r8, #-192]	; 0xffffff40
    2750:	32727073 	rsbscc	r7, r2, #115, 0	; 0x73
    2754:	696c2f32 	stmdbvs	ip!, {r1, r4, r5, r8, r9, sl, fp, sp}^
    2758:	2f697062 	svccs	0x00697062
    275c:	6c636e69 	stclvs	14, cr6, [r3], #-420	; 0xfffffe5c
    2760:	00656475 	rsbeq	r6, r5, r5, ror r4
    2764:	72747300 	rsbsvc	r7, r4, #0, 6
    2768:	2e706d63 	cdpcs	13, 7, cr6, cr0, cr3, {3}
    276c:	00010063 	andeq	r0, r1, r3, rrx
    2770:	69707200 	ldmdbvs	r0!, {r9, ip, sp, lr}^
    2774:	0200682e 	andeq	r6, r0, #3014656	; 0x2e0000
    2778:	05000000 	streq	r0, [r0, #-0]
    277c:	0205002a 	andeq	r0, r5, #42, 0	; 0x2a
    2780:	00009e14 	andeq	r9, r0, r4, lsl lr
    2784:	13090514 	movwne	r0, #38164	; 0x9514
    2788:	05010f05 	streq	r0, [r1, #-3845]	; 0xfffff0fb
    278c:	05010610 	streq	r0, [r1, #-1552]	; 0xfffff9f0
    2790:	1c052e0f 	stcne	14, cr2, [r5], {15}
    2794:	01040200 	mrseq	r0, R12_usr
    2798:	0013054a 	andseq	r0, r3, sl, asr #10
    279c:	2e010402 	cdpcs	4, 0, cr0, cr1, cr2, {0}
    27a0:	2f061105 	svccs	0x00061105
    27a4:	2e061605 	cfmadd32cs	mvax0, mvfx1, mvfx6, mvfx5
    27a8:	0609052e 	streq	r0, [r9], -lr, lsr #10
    27ac:	0615052f 	ldreq	r0, [r5], -pc, lsr #10
    27b0:	2f010501 	svccs	0x00010501
    27b4:	01000402 	tsteq	r0, r2, lsl #8
    27b8:	0000c101 	andeq	ip, r0, r1, lsl #2
    27bc:	7f000300 	svcvc	0x00000300
    27c0:	02000000 	andeq	r0, r0, #0, 0
    27c4:	0d0efb01 	vstreq	d15, [lr, #-4]
    27c8:	01010100 	mrseq	r0, (UNDEF: 17)
    27cc:	00000001 	andeq	r0, r0, r1
    27d0:	01000001 	tsteq	r0, r1
    27d4:	696c2f2e 	stmdbvs	ip!, {r1, r2, r3, r5, r8, r9, sl, fp, sp}^
    27d8:	2f006362 	svccs	0x00006362
    27dc:	72657355 	rsbvc	r7, r5, #1409286145	; 0x54000001
    27e0:	72742f73 	rsbsvc	r2, r4, #460	; 0x1cc
    27e4:	65747369 	ldrbvs	r7, [r4, #-873]!	; 0xfffffc97
    27e8:	6c6f6e6e 	stclvs	14, cr6, [pc], #-440	; 2638 <__code_start__-0x59c8>
    27ec:	6e616d6c 	cdpvs	13, 6, cr6, cr1, cr12, {3}
    27f0:	636f442f 	cmnvs	pc, #788529152	; 0x2f000000
    27f4:	6e656d75 	mcrvs	13, 3, r6, cr5, cr5, {3}
    27f8:	532f7374 			; <UNDEFINED> instruction: 0x532f7374
    27fc:	6e697270 	mcrvs	2, 3, r7, cr9, cr0, {3}
    2800:	75515f67 	ldrbvc	r5, [r1, #-3943]	; 0xfffff099
    2804:	65747261 	ldrbvs	r7, [r4, #-609]!	; 0xfffffd9f
    2808:	30325f72 	eorscc	r5, r2, r2, ror pc
    280c:	432f3232 			; <UNDEFINED> instruction: 0x432f3232
    2810:	30343253 	eorscc	r3, r4, r3, asr r2
    2814:	732d584c 			; <UNDEFINED> instruction: 0x732d584c
    2818:	32327270 	eorscc	r7, r2, #112, 4
    281c:	62696c2f 	rsbvs	r6, r9, #12032	; 0x2f00
    2820:	692f6970 	stmdbvs	pc!, {r4, r5, r6, r8, fp, sp, lr}	; <UNPREDICTABLE>
    2824:	756c636e 	strbvc	r6, [ip, #-878]!	; 0xfffffc92
    2828:	00006564 	andeq	r6, r0, r4, ror #10
    282c:	63727473 	cmnvs	r2, #1929379840	; 0x73000000
    2830:	632e7970 			; <UNDEFINED> instruction: 0x632e7970
    2834:	00000100 	andeq	r0, r0, r0, lsl #2
    2838:	2e697072 	mcrcs	0, 3, r7, cr9, cr2, {3}
    283c:	00020068 	andeq	r0, r2, r8, rrx
    2840:	2a050000 	bcs	142848 <__bss_end__+0x137a40>
    2844:	40020500 	andmi	r0, r2, r0, lsl #10
    2848:	1400009e 	strne	r0, [r0], #-158	; 0xffffff62
    284c:	13130505 	tstne	r3, #20971520	; 0x1400000
    2850:	11061405 	tstne	r6, r5, lsl #8
    2854:	02002205 	andeq	r2, r0, #1342177280	; 0x50000000
    2858:	2f060104 	svccs	0x00060104
    285c:	02000b05 	andeq	r0, r0, #5120	; 0x1400
    2860:	05010104 	streq	r0, [r1, #-260]	; 0xfffffefc
    2864:	04020015 	streq	r0, [r2], #-21	; 0xffffffeb
    2868:	05010601 	streq	r0, [r1, #-1537]	; 0xfffff9ff
    286c:	04020013 	streq	r0, [r2], #-19	; 0xffffffed
    2870:	0b054a01 	bleq	15507c <__bss_end__+0x14a274>
    2874:	01040200 	mrseq	r0, R12_usr
    2878:	0006024a 	andeq	r0, r6, sl, asr #4
    287c:	01210101 			; <UNDEFINED> instruction: 0x01210101
    2880:	00030000 	andeq	r0, r3, r0
    2884:	000000e5 	andeq	r0, r0, r5, ror #1
    2888:	0efb0102 	cdpeq	1, 15, cr0, cr11, cr2, {0}
    288c:	0101000d 	tsteq	r1, sp
    2890:	00000101 	andeq	r0, r0, r1, lsl #2
    2894:	00000100 	andeq	r0, r0, r0, lsl #2
    2898:	6c2f2e01 	stcvs	14, cr2, [pc], #-4	; 289c <__code_start__-0x5764>
    289c:	00636269 	rsbeq	r6, r3, r9, ror #4
    28a0:	6573552f 	ldrbvs	r5, [r3, #-1327]!	; 0xfffffad1
    28a4:	742f7372 	strtvc	r7, [pc], #-882	; 28ac <__code_start__-0x5754>
    28a8:	74736972 	ldrbtvc	r6, [r3], #-2418	; 0xfffff68e
    28ac:	6f6e6e65 	svcvs	0x006e6e65
    28b0:	616d6c6c 	cmnvs	sp, ip, ror #24
    28b4:	6f442f6e 	svcvs	0x00442f6e
    28b8:	656d7563 	strbvs	r7, [sp, #-1379]!	; 0xfffffa9d
    28bc:	2f73746e 	svccs	0x0073746e
    28c0:	69727053 	ldmdbvs	r2!, {r0, r1, r4, r6, ip, sp, lr}^
    28c4:	515f676e 	cmppl	pc, lr, ror #14
    28c8:	74726175 	ldrbtvc	r6, [r2], #-373	; 0xfffffe8b
    28cc:	325f7265 	subscc	r7, pc, #1342177286	; 0x50000006
    28d0:	2f323230 	svccs	0x00323230
    28d4:	34325343 	ldrtcc	r5, [r2], #-835	; 0xfffffcbd
    28d8:	2d584c30 	ldclcs	12, cr4, [r8, #-192]	; 0xffffff40
    28dc:	32727073 	rsbscc	r7, r2, #115, 0	; 0x73
    28e0:	696c2f32 	stmdbvs	ip!, {r1, r4, r5, r8, r9, sl, fp, sp}^
    28e4:	2f697062 	svccs	0x00697062
    28e8:	6c636e69 	stclvs	14, cr6, [r3], #-420	; 0xfffffe5c
    28ec:	00656475 	rsbeq	r6, r5, r5, ror r4
    28f0:	7273752f 	rsbsvc	r7, r3, #197132288	; 0xbc00000
    28f4:	636f6c2f 	cmnvs	pc, #12032	; 0x2f00
    28f8:	432f6c61 			; <UNDEFINED> instruction: 0x432f6c61
    28fc:	616c6c65 	cmnvs	ip, r5, ror #24
    2900:	72612f72 	rsbvc	r2, r1, #456	; 0x1c8
    2904:	6f6e2d6d 	svcvs	0x006e2d6d
    2908:	652d656e 	strvs	r6, [sp, #-1390]!	; 0xfffffa92
    290c:	2d696261 	sfmcs	f6, 2, [r9, #-388]!	; 0xfffffe7c
    2910:	74736574 	ldrbtvc	r6, [r3], #-1396	; 0xfffffa8c
    2914:	322d392f 	eorcc	r3, sp, #770048	; 0xbc000
    2918:	71393130 	teqvc	r9, r0, lsr r1
    291c:	73632d34 	cmnvc	r3, #52, 26	; 0xd00
    2920:	65373031 	ldrvs	r3, [r7, #-49]!	; 0xffffffcf
    2924:	62696c2f 	rsbvs	r6, r9, #12032	; 0x2f00
    2928:	6363672f 	cmnvs	r3, #12320768	; 0xbc0000
    292c:	6d72612f 	ldfvse	f6, [r2, #-188]!	; 0xffffff44
    2930:	6e6f6e2d 	cdpvs	14, 6, cr6, cr15, cr13, {1}
    2934:	61652d65 	cmnvs	r5, r5, ror #26
    2938:	392f6962 	stmdbcc	pc!, {r1, r5, r6, r8, fp, sp, lr}	; <UNPREDICTABLE>
    293c:	312e322e 			; <UNDEFINED> instruction: 0x312e322e
    2940:	636e692f 	cmnvs	lr, #770048	; 0xbc000
    2944:	6564756c 	strbvs	r7, [r4, #-1388]!	; 0xfffffa94
    2948:	74730000 	ldrbtvc	r0, [r3], #-0
    294c:	6d636e72 	stclvs	14, cr6, [r3, #-456]!	; 0xfffffe38
    2950:	00632e70 	rsbeq	r2, r3, r0, ror lr
    2954:	72000001 	andvc	r0, r0, #1, 0
    2958:	682e6970 	stmdavs	lr!, {r4, r5, r6, r8, fp, sp, lr}
    295c:	00000200 	andeq	r0, r0, r0, lsl #4
    2960:	64647473 	strbtvs	r7, [r4], #-1139	; 0xfffffb8d
    2964:	682e6665 	stmdavs	lr!, {r0, r2, r5, r6, r9, sl, sp, lr}
    2968:	00000300 	andeq	r0, r0, r0, lsl #6
    296c:	00390500 	eorseq	r0, r9, r0, lsl #10
    2970:	9e600205 	cdpls	2, 6, cr0, cr0, cr5, {0}
    2974:	05150000 	ldreq	r0, [r5, #-0]
    2978:	05131305 	ldreq	r1, [r3, #-773]	; 0xfffffcfb
    297c:	0106010a 	tsteq	r6, sl, lsl #2
    2980:	0609054a 	streq	r0, [r9], -sl, asr #10
    2984:	060c052f 	streq	r0, [ip], -pc, lsr #10
    2988:	2e130501 	cfmul32cs	mvfx0, mvfx3, mvfx1
    298c:	052e0b05 	streq	r0, [lr, #-2821]!	; 0xfffff4fb
    2990:	054b060d 	strbeq	r0, [fp, #-1549]	; 0xfffff9f3
    2994:	2e01061b 	mcrcs	6, 0, r0, cr1, cr11, {0}
    2998:	05300c05 	ldreq	r0, [r0, #-3077]!	; 0xfffff3fb
    299c:	02022f01 	andeq	r2, r2, #1, 30
    29a0:	b0010100 	andlt	r0, r1, r0, lsl #2
    29a4:	03000000 	movweq	r0, #0
    29a8:	00009400 	andeq	r9, r0, r0, lsl #8
    29ac:	fb010200 	blx	431b6 <__bss_end__+0x383ae>
    29b0:	01000d0e 	tsteq	r0, lr, lsl #26
    29b4:	00010101 	andeq	r0, r1, r1, lsl #2
    29b8:	00010000 	andeq	r0, r1, r0
    29bc:	2f2e0100 	svccs	0x002e0100
    29c0:	66617473 			; <UNDEFINED> instruction: 0x66617473
    29c4:	72732d66 	rsbsvc	r2, r3, #6528	; 0x1980
    29c8:	552f0063 	strpl	r0, [pc, #-99]!	; 296d <__code_start__-0x5693>
    29cc:	73726573 	cmnvc	r2, #482344960	; 0x1cc00000
    29d0:	6972742f 	ldmdbvs	r2!, {r0, r1, r2, r3, r5, sl, ip, sp, lr}^
    29d4:	6e657473 	mcrvs	4, 3, r7, cr5, cr3, {3}
    29d8:	6c6c6f6e 	stclvs	15, cr6, [ip], #-440	; 0xfffffe48
    29dc:	2f6e616d 	svccs	0x006e616d
    29e0:	75636f44 	strbvc	r6, [r3, #-3908]!	; 0xfffff0bc
    29e4:	746e656d 	strbtvc	r6, [lr], #-1389	; 0xfffffa93
    29e8:	70532f73 	subsvc	r2, r3, r3, ror pc
    29ec:	676e6972 			; <UNDEFINED> instruction: 0x676e6972
    29f0:	6175515f 	cmnvs	r5, pc, asr r1
    29f4:	72657472 	rsbvc	r7, r5, #1912602624	; 0x72000000
    29f8:	3230325f 	eorscc	r3, r0, #-268435451	; 0xf0000005
    29fc:	53432f32 	movtpl	r2, #16178	; 0x3f32
    2a00:	4c303432 	cfldrsmi	mvf3, [r0], #-200	; 0xffffff38
    2a04:	70732d58 	rsbsvc	r2, r3, r8, asr sp
    2a08:	2f323272 	svccs	0x00323272
    2a0c:	7062696c 	rsbvc	r6, r2, ip, ror #18
    2a10:	6e692f69 	cdpvs	15, 6, cr2, cr9, cr9, {3}
    2a14:	64756c63 	ldrbtvs	r6, [r5], #-3171	; 0xfffff39d
    2a18:	64000065 	strvs	r0, [r0], #-101	; 0xffffff9b
    2a1c:	75616665 	strbvc	r6, [r1, #-1637]!	; 0xfffff99b
    2a20:	722d746c 	eorvc	r7, sp, #108, 8	; 0x6c000000
    2a24:	6f6f6265 	svcvs	0x006f6265
    2a28:	61632d74 	smcvs	13012	; 0x32d4
    2a2c:	756f6c6c 	strbvc	r6, [pc, #-3180]!	; 1dc8 <__code_start__-0x6238>
    2a30:	00632e74 	rsbeq	r2, r3, r4, ror lr
    2a34:	72000001 	andvc	r0, r0, #1, 0
    2a38:	682e6970 	stmdavs	lr!, {r4, r5, r6, r8, fp, sp, lr}
    2a3c:	00000200 	andeq	r0, r0, r0, lsl #4
    2a40:	001b0500 	andseq	r0, fp, r0, lsl #10
    2a44:	9e8c0205 	cdpls	2, 8, cr0, cr12, cr5, {0}
    2a48:	05140000 	ldreq	r0, [r4, #-0]
    2a4c:	0105011c 	tsteq	r5, ip, lsl r1
    2a50:	02020106 	andeq	r0, r2, #-2147483647	; 0x80000001
    2a54:	bb010100 	bllt	42e5c <__bss_end__+0x38054>
    2a58:	03000001 	movweq	r0, #1
    2a5c:	0000bf00 	andeq	fp, r0, r0, lsl #30
    2a60:	fb010200 	blx	4326a <__bss_end__+0x38462>
    2a64:	01000d0e 	tsteq	r0, lr, lsl #26
    2a68:	00010101 	andeq	r0, r1, r1, lsl #2
    2a6c:	00010000 	andeq	r0, r1, r0
    2a70:	682f0100 	stmdavs	pc!, {r8}	; <UNPREDICTABLE>
    2a74:	2f656d6f 	svccs	0x00656d6f
    2a78:	6c676e65 	stclvs	14, cr6, [r7], #-404	; 0xfffffe6c
    2a7c:	632f7265 			; <UNDEFINED> instruction: 0x632f7265
    2a80:	7373616c 	cmnvc	r3, #27
    2a84:	3273632f 	rsbscc	r6, r3, #-1140850688	; 0xbc000000
    2a88:	786c3034 	stmdavc	ip!, {r2, r4, r5, ip, sp}^
    2a8c:	7332322d 	teqvc	r2, #-805306366	; 0xd0000002
    2a90:	2f2f7270 	svccs	0x002f7270
    2a94:	7062696c 	rsbvc	r6, r2, ip, ror #18
    2a98:	6e692f69 	cdpvs	15, 6, cr2, cr9, cr9, {3}
    2a9c:	64756c63 	ldrbtvs	r6, [r5], #-3171	; 0xfffff39d
    2aa0:	752f0065 	strvc	r0, [pc, #-101]!	; 2a43 <__code_start__-0x55bd>
    2aa4:	732f7273 			; <UNDEFINED> instruction: 0x732f7273
    2aa8:	65726168 	ldrbvs	r6, [r2, #-360]!	; 0xfffffe98
    2aac:	6363672f 	cmnvs	r3, #12320768	; 0xbc0000
    2ab0:	6d72612d 	ldfvse	f6, [r2, #-180]!	; 0xffffff4c
    2ab4:	6e6f6e2d 	cdpvs	14, 6, cr6, cr15, cr13, {1}
    2ab8:	61652d65 	cmnvs	r5, r5, ror #26
    2abc:	312d6962 			; <UNDEFINED> instruction: 0x312d6962
    2ac0:	2d332e30 	ldccs	14, cr2, [r3, #-192]!	; 0xffffff40
    2ac4:	31323032 	teqcc	r2, r2, lsr r0
    2ac8:	2f30312e 	svccs	0x0030312e
    2acc:	2f62696c 	svccs	0x0062696c
    2ad0:	2f636367 	svccs	0x00636367
    2ad4:	2d6d7261 	sfmcs	f7, 2, [sp, #-388]!	; 0xfffffe7c
    2ad8:	656e6f6e 	strbvs	r6, [lr, #-3950]!	; 0xfffff092
    2adc:	6261652d 	rsbvs	r6, r1, #188743680	; 0xb400000
    2ae0:	30312f69 	eorscc	r2, r1, r9, ror #30
    2ae4:	312e332e 			; <UNDEFINED> instruction: 0x312e332e
    2ae8:	636e692f 	cmnvs	lr, #770048	; 0xbc000
    2aec:	6564756c 	strbvs	r7, [r4, #-1388]!	; 0xfffffa94
    2af0:	70670000 	rsbvc	r0, r7, r0
    2af4:	632e6f69 			; <UNDEFINED> instruction: 0x632e6f69
    2af8:	00000000 	andeq	r0, r0, r0
    2afc:	2e697072 	mcrcs	0, 3, r7, cr9, cr2, {3}
    2b00:	00010068 	andeq	r0, r1, r8, rrx
    2b04:	64747300 	ldrbtvs	r7, [r4], #-768	; 0xfffffd00
    2b08:	2d746e69 	ldclcs	14, cr6, [r4, #-420]!	; 0xfffffe5c
    2b0c:	2e636367 	cdpcs	3, 6, cr6, cr3, cr7, {3}
    2b10:	00020068 	andeq	r0, r2, r8, rrx
    2b14:	69706700 	ldmdbvs	r0!, {r8, r9, sl, sp, lr}^
    2b18:	00682e6f 	rsbeq	r2, r8, pc, ror #28
    2b1c:	00000001 	andeq	r0, r0, r1
    2b20:	05003805 	streq	r3, [r0, #-2053]	; 0xfffff7fb
    2b24:	009ea802 	addseq	sl, lr, r2, lsl #16
    2b28:	01270300 			; <UNDEFINED> instruction: 0x01270300
    2b2c:	05130505 	ldreq	r0, [r3, #-1285]	; 0xfffffafb
    2b30:	05010607 	streq	r0, [r1, #-1543]	; 0xfffff9f9
    2b34:	05054938 	streq	r4, [r5, #-2360]	; 0xfffff6c8
    2b38:	07054d06 	streq	r4, [r5, -r6, lsl #26]
    2b3c:	05050106 	streq	r0, [r5, #-262]	; 0xfffffefa
    2b40:	18054c06 	stmdane	r5, {r1, r2, sl, fp, lr}
    2b44:	0e050106 	adfeqs	f0, f5, f6
    2b48:	060505ba 			; <UNDEFINED> instruction: 0x060505ba
    2b4c:	061c052f 	ldreq	r0, [ip], -pc, lsr #10
    2b50:	0e052e01 	cdpeq	14, 0, cr2, cr5, cr1, {0}
    2b54:	0605052e 	streq	r0, [r5], -lr, lsr #10
    2b58:	06120530 			; <UNDEFINED> instruction: 0x06120530
    2b5c:	06050501 	streq	r0, [r5], -r1, lsl #10
    2b60:	0607054b 	streq	r0, [r7], -fp, asr #10
    2b64:	06050501 	streq	r0, [r5], -r1, lsl #10
    2b68:	2e06134b 	cdpcs	3, 0, cr1, cr6, cr11, {2}
    2b6c:	054b0105 	strbeq	r0, [fp, #-261]	; 0xfffffefb
    2b70:	064c0624 	strbeq	r0, [ip], -r4, lsr #12
    2b74:	06050501 	streq	r0, [r5], -r1, lsl #10
    2b78:	0601052f 	streq	r0, [r1], -pc, lsr #10
    2b7c:	0620054b 	strteq	r0, [r0], -fp, asr #10
    2b80:	13050531 	movwne	r0, #21809	; 0x5531
    2b84:	01060705 	tsteq	r6, r5, lsl #14
    2b88:	05492005 	strbeq	r2, [r9, #-5]
    2b8c:	06310605 	ldrteq	r0, [r1], -r5, lsl #12
    2b90:	2f010566 	svccs	0x00010566
    2b94:	4d062105 	stfmis	f2, [r6, #-20]	; 0xffffffec
    2b98:	05130505 	ldreq	r0, [r3, #-1285]	; 0xfffffafb
    2b9c:	05010607 	streq	r0, [r1, #-1543]	; 0xfffff9f9
    2ba0:	05054921 	streq	r4, [r5, #-2337]	; 0xfffff6df
    2ba4:	66063106 	strvs	r3, [r6], -r6, lsl #2
    2ba8:	052f0105 	streq	r0, [pc, #-261]!	; 2aab <__code_start__-0x5555>
    2bac:	064d0623 	strbeq	r0, [sp], -r3, lsr #12
    2bb0:	06050501 	streq	r0, [r5], -r1, lsl #10
    2bb4:	0601052f 	streq	r0, [r1], -pc, lsr #10
    2bb8:	062b054b 	strteq	r0, [fp], -fp, asr #10
    2bbc:	05010631 	streq	r0, [r1, #-1585]	; 0xfffff9cf
    2bc0:	052f0605 	streq	r0, [pc, #-1541]!	; 25c3 <__code_start__-0x5a3d>
    2bc4:	05010607 	streq	r0, [r1, #-1543]	; 0xfffff9f9
    2bc8:	064b0609 	strbeq	r0, [fp], -r9, lsl #12
    2bcc:	0530062e 	ldreq	r0, [r0, #-1582]!	; 0xfffff9d2
    2bd0:	052f0601 	streq	r0, [pc, #-1537]!	; 25d7 <__code_start__-0x5a29>
    2bd4:	0530061d 	ldreq	r0, [r0, #-1565]!	; 0xfffff9e3
    2bd8:	07051305 	streq	r1, [r5, -r5, lsl #6]
    2bdc:	1d050106 	stfnes	f0, [r5, #-24]	; 0xffffffe8
    2be0:	06050549 	streq	r0, [r5], -r9, asr #10
    2be4:	0e051331 	mcreq	3, 0, r1, cr5, cr1, {1}
    2be8:	05050106 	streq	r0, [r5, #-262]	; 0xfffffefa
    2bec:	17052f06 	strne	r2, [r5, -r6, lsl #30]
    2bf0:	054a0106 	strbeq	r0, [sl, #-262]	; 0xfffffefa
    2bf4:	02042e23 	andeq	r2, r4, #560	; 0x230
    2bf8:	03063005 	movweq	r3, #24581	; 0x6005
    2bfc:	042e00dc 	strteq	r0, [lr], #-220	; 0xffffff24
    2c00:	060c0501 	streq	r0, [ip], -r1, lsl #10
    2c04:	017fa403 	cmneq	pc, r3, lsl #8
    2c08:	052f0105 	streq	r0, [pc, #-261]!	; 2b0b <__code_start__-0x54f5>
    2c0c:	01052a10 	tsteq	r5, r0, lsl sl
    2c10:	00040232 	andeq	r0, r4, r2, lsr r2
    2c14:	Address 0x0000000000002c14 is out of bounds.


Disassembly of section .debug_str:

00000000 <.debug_str>:
   0:	7473616c 	ldrbtvc	r6, [r3], #-364	; 0xfffffe94
   4:	646f6e5f 	strbtvs	r6, [pc], #-3679	; c <__code_start__-0x7ff4>
   8:	6b630065 	blvs	18c01a4 <__bss_end__+0x18b539c>
   c:	6f6c6c61 	svcvs	0x006c6c61
  10:	65740063 	ldrbvs	r0, [r4, #-99]!	; 0xffffff9d
  14:	2d737473 	cfldrdcs	mvd7, [r3, #-460]!	; 0xfffffe34
  18:	2f302e33 	svccs	0x00302e33
  1c:	74726170 	ldrbtvc	r6, [r2], #-368	; 0xfffffe90
  20:	65742d31 	ldrbvs	r2, [r4, #-3377]!	; 0xfffff2cf
  24:	2d337473 	cfldrscs	mvf7, [r3, #-460]!	; 0xfffffe34
  28:	2e677562 	cdpcs	5, 6, cr7, cr7, cr2, {3}
  2c:	74730063 	ldrbtvc	r0, [r3], #-99	; 0xffffff9d
  30:	00657461 	rsbeq	r7, r5, r1, ror #8
  34:	73666572 	cmnvc	r6, #478150656	; 0x1c800000
  38:	64696d5f 	strbtvs	r6, [r9], #-3423	; 0xfffff2a1
  3c:	00656c64 	rsbeq	r6, r5, r4, ror #24
  40:	726f6873 	rsbvc	r6, pc, #7536640	; 0x730000
  44:	6e692074 	mcrvs	0, 3, r2, cr9, cr4, {3}
  48:	70720074 	rsbsvc	r0, r2, r4, ror r0
  4c:	75705f69 	ldrbvc	r5, [r0, #-3945]!	; 0xfffff097
  50:	61686374 	smcvs	34356	; 0x8634
  54:	69660072 	stmdbvs	r6!, {r1, r4, r5, r6}^
  58:	7500656c 	strvc	r6, [r0, #-1388]	; 0xfffffa94
  5c:	38746e69 	ldmdacc	r4!, {r0, r3, r5, r6, r9, sl, fp, sp, lr}^
  60:	6e00745f 	cfmvsrvs	mvf0, r7
  64:	5f747865 	svcpl	0x00747865
  68:	636f6c62 	cmnvs	pc, #25088	; 0x6200
  6c:	64695f6b 	strbtvs	r5, [r9], #-3947	; 0xfffff095
  70:	666b6300 	strbtvs	r6, [fp], -r0, lsl #6
  74:	00656572 	rsbeq	r6, r5, r2, ror r5
  78:	636e7566 	cmnvs	lr, #427819008	; 0x19800000
  7c:	6e6f6c00 	cdpvs	12, 6, cr6, cr15, cr0, {0}
  80:	6f6c2067 	svcvs	0x006c2067
  84:	6920676e 	stmdbvs	r0!, {r1, r2, r3, r5, r6, r8, r9, sl, sp, lr}
  88:	6100746e 	tstvs	r0, lr, ror #8
  8c:	636f6c6c 	cmnvs	pc, #108, 24	; 0x6c00
  90:	73696c5f 	cmnvc	r9, #24320	; 0x5f00
  94:	6b630074 	blvs	18c026c <__bss_end__+0x18b5464>
  98:	6b6c625f 	blvs	1b18a1c <__bss_end__+0x1b0dc14>
  9c:	0064695f 	rsbeq	r6, r4, pc, asr r9
  a0:	7272656e 	rsbsvc	r6, r2, #461373440	; 0x1b800000
  a4:	5f6b6300 	svcpl	0x006b6300
  a8:	00726468 	rsbseq	r6, r2, r8, ror #8
  ac:	55465f5f 	strbpl	r5, [r6, #-3935]	; 0xfffff0a1
  b0:	4954434e 	ldmdbmi	r4, {r1, r2, r3, r6, r8, r9, lr}^
  b4:	5f5f4e4f 	svcpl	0x005f4e4f
  b8:	6c6c6100 	stfvse	f6, [ip], #-0
  bc:	6c5f636f 	mrrcvs	3, 6, r6, pc, cr15	; <UNPREDICTABLE>
  c0:	6300636f 	movwvs	r6, #879	; 0x36f
  c4:	6e61656c 	cdpvs	5, 6, cr6, cr1, cr12, {3}
  c8:	6265725f 	rsbvs	r7, r5, #-268435451	; 0xf0000005
  cc:	00746f6f 	rsbseq	r6, r4, pc, ror #30
  d0:	6b72616d 	blvs	1c9868c <__bss_end__+0x1c8d884>
  d4:	5f6b6300 	svcpl	0x006b6300
  d8:	62726576 	rsbsvs	r6, r2, #494927872	; 0x1d800000
  dc:	5f65736f 	svcpl	0x0065736f
  e0:	6e750070 	mrcvs	0, 3, r0, cr5, cr0, {3}
  e4:	6e676973 			; <UNDEFINED> instruction: 0x6e676973
  e8:	63206465 			; <UNDEFINED> instruction: 0x63206465
  ec:	00726168 	rsbseq	r6, r2, r8, ror #2
  f0:	73666572 	cmnvc	r6, #478150656	; 0x1c800000
  f4:	6174735f 	cmnvs	r4, pc, asr r3
  f8:	6c007472 	cfstrsvs	mvf7, [r0], {114}	; 0x72
  fc:	6e656e69 	cdpvs	14, 6, cr6, cr5, cr9, {3}
 100:	6f6c006f 	svcvs	0x006c006f
 104:	6c20676e 	stcvs	7, cr6, [r0], #-440	; 0xfffffe48
 108:	20676e6f 	rsbcs	r6, r7, pc, ror #28
 10c:	69736e75 	ldmdbvs	r3!, {r0, r2, r4, r5, r6, r9, sl, fp, sp, lr}^
 110:	64656e67 	strbtvs	r6, [r5], #-3687	; 0xfffff199
 114:	746e6920 	strbtvc	r6, [lr], #-2336	; 0xfffff6e0
 118:	6e697500 	cdpvs	5, 6, cr7, cr9, cr0, {0}
 11c:	5f323374 	svcpl	0x00323374
 120:	69750074 	ldmdbvs	r5!, {r2, r4, r5, r6}^
 124:	3631746e 	ldrtcc	r7, [r1], -lr, ror #8
 128:	6e00745f 	cfmvsrvs	mvf0, r7
 12c:	616d746f 	cmnvs	sp, pc, ror #8
 130:	73006e69 	movwvc	r6, #3689	; 0xe69
 134:	74726f68 	ldrbtvc	r6, [r2], #-3944	; 0xfffff098
 138:	736e7520 	cmnvc	lr, #32, 10	; 0x8000000
 13c:	656e6769 	strbvs	r6, [lr, #-1897]!	; 0xfffff897
 140:	6e692064 	cdpvs	0, 6, cr2, cr9, cr4, {3}
 144:	656c0074 	strbvs	r0, [ip, #-116]!	; 0xffffff8c
 148:	64656b61 	strbtvs	r6, [r5], #-2913	; 0xfffff49f
 14c:	72646800 	rsbvc	r6, r4, #0, 16
 150:	2f00745f 	svccs	0x0000745f
 154:	72657355 	rsbvc	r7, r5, #1409286145	; 0x54000001
 158:	72742f73 	rsbsvc	r2, r4, #460	; 0x1cc
 15c:	65747369 	ldrbvs	r7, [r4, #-873]!	; 0xfffffc97
 160:	6c6f6e6e 	stclvs	14, cr6, [pc], #-440	; ffffffb0 <__bss_end__+0xffff51a8>
 164:	6e616d6c 	cdpvs	13, 6, cr6, cr1, cr12, {3}
 168:	636f442f 	cmnvs	pc, #788529152	; 0x2f000000
 16c:	6e656d75 	mcrvs	13, 3, r6, cr5, cr5, {3}
 170:	532f7374 			; <UNDEFINED> instruction: 0x532f7374
 174:	6e697270 	mcrvs	2, 3, r7, cr9, cr0, {3}
 178:	75515f67 	ldrbvc	r5, [r1, #-3943]	; 0xfffff099
 17c:	65747261 	ldrbvs	r7, [r4, #-609]!	; 0xfffffd9f
 180:	30325f72 	eorscc	r5, r2, r2, ror pc
 184:	432f3232 			; <UNDEFINED> instruction: 0x432f3232
 188:	30343253 	eorscc	r3, r4, r3, asr r2
 18c:	732d584c 			; <UNDEFINED> instruction: 0x732d584c
 190:	32327270 	eorscc	r7, r2, #112, 4
 194:	62616c2f 	rsbvs	r6, r1, #12032	; 0x2f00
 198:	2d352f73 	ldccs	15, cr2, [r5, #-460]!	; 0xfffffe34
 19c:	6c6c616d 	stfvse	f6, [ip], #-436	; 0xfffffe4c
 1a0:	672b636f 	strvs	r6, [fp, -pc, ror #6]!
 1a4:	6f632f63 	svcvs	0x00632f63
 1a8:	47006564 	strmi	r6, [r0, -r4, ror #10]
 1ac:	4320554e 			; <UNDEFINED> instruction: 0x4320554e
 1b0:	39203939 	stmdbcc	r0!, {r0, r3, r4, r5, r8, fp, ip, sp}
 1b4:	312e322e 			; <UNDEFINED> instruction: 0x312e322e
 1b8:	31303220 	teqcc	r0, r0, lsr #4
 1bc:	32303139 	eorscc	r3, r0, #1073741838	; 0x4000000e
 1c0:	72282035 	eorvc	r2, r8, #53, 0	; 0x35
 1c4:	61656c65 	cmnvs	r5, r5, ror #24
 1c8:	20296573 	eorcs	r6, r9, r3, ror r5
 1cc:	4d52415b 	ldfmie	f4, [r2, #-364]	; 0xfffffe94
 1d0:	6d72612f 	ldfvse	f6, [r2, #-188]!	; 0xffffff44
 1d4:	622d392d 	eorvs	r3, sp, #737280	; 0xb4000
 1d8:	636e6172 	cmnvs	lr, #-2147483620	; 0x8000001c
 1dc:	65722068 	ldrbvs	r2, [r2, #-104]!	; 0xffffff98
 1e0:	69736976 	ldmdbvs	r3!, {r1, r2, r4, r5, r6, r8, fp, sp, lr}^
 1e4:	32206e6f 	eorcc	r6, r0, #1776	; 0x6f0
 1e8:	39353737 	ldmdbcc	r5!, {r0, r1, r2, r4, r5, r8, r9, sl, ip, sp}
 1ec:	2d205d39 	stccs	13, cr5, [r0, #-228]!	; 0xffffff1c
 1f0:	7570636d 	ldrbvc	r6, [r0, #-877]!	; 0xfffffc93
 1f4:	6d72613d 	ldfvse	f6, [r2, #-244]!	; 0xffffff0c
 1f8:	36373131 			; <UNDEFINED> instruction: 0x36373131
 1fc:	2d667a6a 	vstmdbcs	r6!, {s15-s120}
 200:	6d2d2073 	stcvs	0, cr2, [sp, #-460]!	; 0xfffffe34
 204:	656e7574 	strbvs	r7, [lr, #-1396]!	; 0xfffffa8c
 208:	6d72613d 	ldfvse	f6, [r2, #-244]!	; 0xffffff0c
 20c:	36373131 			; <UNDEFINED> instruction: 0x36373131
 210:	2d667a6a 	vstmdbcs	r6!, {s15-s120}
 214:	6d2d2073 	stcvs	0, cr2, [sp, #-460]!	; 0xfffffe34
 218:	616f6c66 	cmnvs	pc, r6, ror #24
 21c:	62612d74 	rsbvs	r2, r1, #116, 26	; 0x1d00
 220:	6f733d69 	svcvs	0x00733d69
 224:	2d207466 	cfstrscs	mvf7, [r0, #-408]!	; 0xfffffe68
 228:	6d72616d 	ldfvse	f6, [r2, #-436]!	; 0xfffffe4c
 22c:	616d2d20 	cmnvs	sp, r0, lsr #26
 230:	3d686372 	stclcc	3, cr6, [r8, #-456]!	; 0xfffffe38
 234:	766d7261 	strbtvc	r7, [sp], -r1, ror #4
 238:	207a6b36 	rsbscs	r6, sl, r6, lsr fp
 23c:	6467672d 	strbtvs	r6, [r7], #-1837	; 0xfffff8d3
 240:	4f2d2062 	svcmi	0x002d2062
 244:	732d2067 			; <UNDEFINED> instruction: 0x732d2067
 248:	673d6474 			; <UNDEFINED> instruction: 0x673d6474
 24c:	3939756e 	ldmdbcc	r9!, {r1, r2, r3, r5, r6, r8, sl, ip, sp, lr}
 250:	66662d20 	strbtvs	r2, [r6], -r0, lsr #26
 254:	73656572 	cmnvc	r5, #478150656	; 0x1c800000
 258:	646e6174 	strbtvs	r6, [lr], #-372	; 0xfffffe8c
 25c:	00676e69 	rsbeq	r6, r7, r9, ror #28
 260:	7479626e 	ldrbtvc	r6, [r9], #-622	; 0xfffffd92
 264:	615f7365 	cmpvs	pc, r5, ror #6
 268:	636f6c6c 	cmnvs	pc, #108, 24	; 0x6c00
 26c:	6d656d00 	stclvs	13, cr6, [r5, #-0]
 270:	00746573 	rsbseq	r6, r4, r3, ror r5
 274:	685f6b63 	ldmdavs	pc, {r0, r1, r5, r6, r8, r9, fp, sp, lr}^	; <UNPREDICTABLE>
 278:	5f706165 	svcpl	0x00706165
 27c:	6f727265 	svcvs	0x00727265
 280:	73007372 	movwvc	r7, #882	; 0x372
 284:	6c5f6372 	mrrcvs	3, 7, r6, pc, cr2	; <UNPREDICTABLE>
 288:	6d5f636f 	ldclvs	3, cr6, [pc, #-444]	; d4 <__code_start__-0x7f2c>
 28c:	656e006b 	strbvs	r0, [lr, #-107]!	; 0xffffff95
 290:	73007478 	movwvc	r7, #1144	; 0x478
 294:	6c5f6372 	mrrcvs	3, 7, r6, pc, cr2	; <UNPREDICTABLE>
 298:	745f636f 	ldrbvc	r6, [pc], #-879	; 2a0 <__code_start__-0x7d60>
 29c:	5f6b6300 	svcpl	0x006b6300
 2a0:	5f727470 	svcpl	0x00727470
 2a4:	625f6e69 	subsvs	r6, pc, #1680	; 0x690
 2a8:	6b636f6c 	blvs	18dc060 <__bss_end__+0x18d1258>
 2ac:	65727000 	ldrbvs	r7, [r2, #-0]!
 2b0:	616c5f76 	smcvs	50678	; 0xc5f6
 2b4:	63007473 	movwvs	r7, #1139	; 0x473
 2b8:	65675f6b 	strbvs	r5, [r7, #-3947]!	; 0xfffff095
 2bc:	7a725f74 	bvc	1c98094 <__bss_end__+0x1c8d28c>
 2c0:	52460032 	subpl	r0, r6, #50, 0	; 0x32
 2c4:	00444545 	subeq	r4, r4, r5, asr #10
 2c8:	544e4553 	strbpl	r4, [lr], #-1363	; 0xfffffaad
 2cc:	4c414e49 	mcrrmi	14, 4, r4, r1, cr9
 2d0:	73696c00 	cmnvc	r9, #0, 24
 2d4:	70615f74 	rsbvc	r5, r1, r4, ror pc
 2d8:	646e6570 	strbtvs	r6, [lr], #-1392	; 0xfffffa90
 2dc:	6d656d00 	stclvs	13, cr6, [r5, #-0]
 2e0:	00797063 	rsbseq	r7, r9, r3, rrx
 2e4:	5a444552 	bpl	1111834 <__bss_end__+0x1106a2c>
 2e8:	5f454e4f 	svcpl	0x00454e4f
 2ec:	004c4156 	subeq	r4, ip, r6, asr r1
 2f0:	5a444552 	bpl	1111840 <__bss_end__+0x1106a38>
 2f4:	5f454e4f 	svcpl	0x00454e4f
 2f8:	5459424e 	ldrbpl	r4, [r9], #-590	; 0xfffffdb2
 2fc:	63005345 	movwvs	r5, #837	; 0x345
 300:	69665f6b 	stmdbvs	r6!, {r0, r1, r3, r5, r6, r8, r9, sl, fp, ip, lr}^
 304:	5f747372 	svcpl	0x00747372
 308:	00726468 	rsbseq	r6, r2, r8, ror #8
 30c:	635f6b63 	cmpvs	pc, #101376	; 0x18c00
 310:	6b636568 	blvs	18d98b8 <__bss_end__+0x18ceab0>
 314:	6164755f 	cmnvs	r4, pc, asr r5
 318:	65006174 	strvs	r6, [r0, #-372]	; 0xfffffe8c
 31c:	00737272 	rsbseq	r7, r3, r2, ror r2
 320:	5f317a72 	svcpl	0x00317a72
 324:	00736572 	rsbseq	r6, r3, r2, ror r5
 328:	705f6b63 	subsvc	r6, pc, r3, ror #22
 32c:	695f7274 	ldmdbvs	pc, {r2, r4, r5, r6, r9, ip, sp, lr}^	; <UNPREDICTABLE>
 330:	6c615f73 	stclvs	15, cr5, [r1], #-460	; 0xfffffe34
 334:	65636f6c 	strbvs	r6, [r3, #-3948]!	; 0xfffff094
 338:	6b630064 	blvs	18c04d0 <__bss_end__+0x18b56c8>
 33c:	78656e5f 	stmdavc	r5!, {r0, r1, r2, r3, r4, r6, r9, sl, fp, sp, lr}^
 340:	64685f74 	strbtvs	r5, [r8], #-3956	; 0xfffff08c
 344:	75630072 	strbvc	r0, [r3, #-114]!	; 0xffffff8e
 348:	6d007272 	sfmvs	f7, 4, [r0, #-456]	; 0xfffffe38
 34c:	6d636d65 	stclvs	13, cr6, [r3, #-404]!	; 0xfffffe6c
 350:	6b630070 	blvs	18c0518 <__bss_end__+0x18b5710>
 354:	6f6c6c61 	svcvs	0x006c6c61
 358:	00632e63 	rsbeq	r2, r3, r3, ror #28
 35c:	746e6573 	strbtvc	r6, [lr], #-1395	; 0xfffffa8d
 360:	6c616e69 	stclvs	14, cr6, [r1], #-420	; 0xfffffe5c
 364:	6675625f 			; <UNDEFINED> instruction: 0x6675625f
 368:	6e657300 	cdpvs	3, 6, cr7, cr5, cr0, {0}
 36c:	616e6974 	smcvs	59028	; 0xe694
 370:	6f64006c 	svcvs	0x0064006c
 374:	656c6275 	strbvs	r6, [ip, #-629]!	; 0xfffffd8b
 378:	5f6b6300 	svcpl	0x006b6300
 37c:	5f727470 	svcpl	0x00727470
 380:	685f6f74 	ldmdavs	pc, {r2, r4, r5, r6, r8, r9, sl, fp, sp, lr}^	; <UNPREDICTABLE>
 384:	41007264 	tstmi	r0, r4, ror #4
 388:	434f4c4c 	movtmi	r4, #64588	; 0xfc4c
 38c:	63004445 	movwvs	r4, #1093	; 0x445
 390:	64685f6b 	strbtvs	r5, [r8], #-3947	; 0xfffff095
 394:	74735f72 	ldrbtvc	r5, [r3], #-3954	; 0xfffff08e
 398:	00747261 	rsbseq	r7, r4, r1, ror #4
 39c:	685f6b63 	ldmdavs	pc, {r0, r1, r5, r6, r8, r9, fp, sp, lr}^	; <UNPREDICTABLE>
 3a0:	655f7264 	ldrbvs	r7, [pc, #-612]	; 144 <__code_start__-0x7ebc>
 3a4:	7200646e 	andvc	r6, r0, #1845493760	; 0x6e000000
 3a8:	725f327a 	subsvc	r3, pc, #-1610612729	; 0xa0000007
 3ac:	63007365 	movwvs	r7, #869	; 0x365
 3b0:	626e5f6b 	rsbvs	r5, lr, #428	; 0x1ac
 3b4:	73657479 	cmnvc	r5, #2030043136	; 0x79000000
 3b8:	5f726b00 	svcpl	0x00726b00
 3bc:	6c6c616d 	stfvse	f6, [ip], #-436	; 0xfffffe4c
 3c0:	6300636f 	movwvs	r6, #879	; 0x36f
 3c4:	68635f6b 	stmdavs	r3!, {r0, r1, r3, r5, r6, r8, r9, sl, fp, ip, lr}^
 3c8:	5f6b6365 	svcpl	0x006b6365
 3cc:	7a646572 	bvc	191999c <__bss_end__+0x190eb94>
 3d0:	73656e6f 	cmnvc	r5, #1776	; 0x6f0
 3d4:	61747300 	cmnvs	r4, r0, lsl #6
 3d8:	745f6b63 	ldrbvc	r6, [pc], #-2915	; 3e0 <__code_start__-0x7c20>
 3dc:	6200706f 	andvs	r7, r0, #111, 0	; 0x6f
 3e0:	6b636f6c 	blvs	18dc198 <__bss_end__+0x18d1390>
 3e4:	6174735f 	cmnvs	r4, pc, asr r3
 3e8:	6e007472 	mcrvs	4, 0, r7, cr0, cr2, {3}
 3ec:	74735f6f 	ldrbtvc	r5, [r3], #-3951	; 0xfffff091
 3f0:	00747261 	rsbseq	r7, r4, r1, ror #4
 3f4:	6b72616d 	blvs	1c989b0 <__bss_end__+0x1c8dba8>
 3f8:	6c6c615f 	stfvse	f6, [ip], #-380	; 0xfffffe84
 3fc:	706d6900 	rsbvc	r6, sp, r0, lsl #18
 400:	656d656c 	strbvs	r6, [sp, #-1388]!	; 0xfffffa94
 404:	745f746e 	ldrbvc	r7, [pc], #-1134	; 40c <__code_start__-0x7bf4>
 408:	00736968 	rsbseq	r6, r3, r8, ror #18
 40c:	73625f5f 	cmnvc	r2, #380	; 0x17c
 410:	74735f73 	ldrbtvc	r5, [r3], #-3955	; 0xfffff08d
 414:	5f747261 	svcpl	0x00747261
 418:	756e005f 	strbvc	r0, [lr, #-95]!	; 0xffffffa1
 41c:	6f775f6d 	svcvs	0x00775f6d
 420:	00736472 	rsbseq	r6, r3, r2, ror r4
 424:	6f6c626e 	svcvs	0x006c626e
 428:	00736b63 	rsbseq	r6, r3, r3, ror #22
 42c:	74696e69 	strbtvc	r6, [r9], #-3689	; 0xfffff197
 430:	6e00705f 	mcrvs	0, 0, r7, cr0, cr15, {2}
 434:	65747962 	ldrbvs	r7, [r4, #-2402]!	; 0xfffff69e
 438:	72665f73 	rsbvc	r5, r6, #460	; 0x1cc
 43c:	00646565 	rsbeq	r6, r4, r5, ror #10
 440:	72636e69 	rsbvc	r6, r3, #1680	; 0x690
 444:	6e656d65 	cdpvs	13, 6, cr6, cr5, cr5, {3}
 448:	616d0074 	smcvs	53252	; 0xd004
 44c:	5f656279 	svcpl	0x00656279
 450:	6f727265 	svcvs	0x00727265
 454:	63007372 	movwvs	r7, #882	; 0x372
 458:	63675f6b 	cmnvs	r7, #428	; 0x1ac
 45c:	6d756400 	cfldrdvs	mvd6, [r5, #-0]
 460:	65725f70 	ldrbvs	r5, [r2, #-3952]!	; 0xfffff090
 464:	6e007367 	cdpvs	3, 0, cr7, cr0, cr7, {3}
 468:	6b61656c 	blvs	1859a20 <__bss_end__+0x184ec18>
 46c:	5f5f0073 	svcpl	0x005f0073
 470:	61746164 	cmnvs	r4, r4, ror #2
 474:	646e655f 	strbtvs	r6, [lr], #-1375	; 0xfffffaa1
 478:	63005f5f 	movwvs	r5, #3935	; 0xf5f
 47c:	69665f6b 	stmdbvs	r6!, {r0, r1, r3, r5, r6, r8, r9, sl, fp, ip, lr}^
 480:	6c5f646e 	cfldrdvs	mvd6, [pc], {110}	; 0x6e
 484:	736b6165 	cmnvc	fp, #1073741849	; 0x40000019
 488:	72627300 	rsbvc	r7, r2, #0, 6
 48c:	7369006b 	cmnvc	r9, #107, 0	; 0x6b
 490:	7274705f 	rsbsvc	r7, r4, #95, 0	; 0x5f
 494:	65686300 	strbvs	r6, [r8, #-768]!	; 0xfffffd00
 498:	6e5f6b63 	vnmlavs.f64	d22, d15, d19
 49c:	656c5f6f 	strbvs	r5, [ip, #-3951]!	; 0xfffff091
 4a0:	6e006b61 	vmlsvs.f64	d6, d0, d17
 4a4:	65657266 	strbvs	r7, [r5, #-614]!	; 0xfffffd9a
 4a8:	75630064 	strbvc	r0, [r3, #-100]!	; 0xffffff9c
 4ac:	775f7272 			; <UNDEFINED> instruction: 0x775f7272
 4b0:	0064726f 	rsbeq	r7, r4, pc, ror #4
 4b4:	636f6c62 	cmnvs	pc, #25088	; 0x6200
 4b8:	6e655f6b 	cdpvs	15, 6, cr5, cr5, cr11, {3}
 4bc:	6e690064 	cdpvs	0, 6, cr0, cr9, cr4, {3}
 4c0:	6165685f 	cmnvs	r5, pc, asr r8
 4c4:	6e6f0070 	mcrvs	0, 3, r0, cr15, cr0, {3}
 4c8:	00626d65 	rsbeq	r6, r2, r5, ror #26
 4cc:	672d6b63 	strvs	r6, [sp, -r3, ror #22]!
 4d0:	00632e63 	rsbeq	r2, r3, r3, ror #28
 4d4:	63656863 	cmnvs	r5, #6488064	; 0x630000
 4d8:	68735f6b 	ldmdavs	r3!, {r0, r1, r3, r5, r6, r8, r9, sl, fp, ip, lr}^
 4dc:	646c756f 	strbtvs	r7, [ip], #-1391	; 0xfffffa91
 4e0:	61656c5f 	cmnvs	r5, pc, asr ip
 4e4:	5f5f006b 	svcpl	0x005f006b
 4e8:	5f737362 	svcpl	0x00737362
 4ec:	5f646e65 	svcpl	0x00646e65
 4f0:	6d6b005f 	stclvs	0, cr0, [fp, #-380]!	; 0xfffffe84
 4f4:	6f6c6c61 	svcvs	0x006c6c61
 4f8:	6d6b0063 	stclvs	0, cr0, [fp, #-396]!	; 0xfffffe74
 4fc:	6f6c6c61 	svcvs	0x006c6c61
 500:	6e695f63 	cdpvs	15, 6, cr5, cr9, cr3, {3}
 504:	735f7469 	cmpvc	pc, #1761607680	; 0x69000000
 508:	735f7465 	cmpvc	pc, #1694498816	; 0x65000000
 50c:	74726174 	ldrbtvc	r6, [r2], #-372	; 0xfffffe8c
 510:	65777300 	ldrbvs	r7, [r7, #-768]!	; 0xfffffd00
 514:	6c5f7065 	mrrcvs	0, 6, r7, pc, cr5	; <UNPREDICTABLE>
 518:	006b6165 	rsbeq	r6, fp, r5, ror #2
 51c:	61645f5f 	cmnvs	r4, pc, asr pc
 520:	735f6174 	cmpvc	pc, #29
 524:	74726174 	ldrbtvc	r6, [r2], #-372	; 0xfffffe8c
 528:	73005f5f 	movwvc	r5, #3935	; 0xf5f
 52c:	70656577 	rsbvc	r6, r5, r7, ror r5
 530:	6572665f 	ldrbvs	r6, [r2, #-1631]!	; 0xfffff9a1
 534:	61770065 	cmnvs	r7, r5, rrx
 538:	6e5f6e72 	mrcvs	14, 2, r6, cr15, cr2, {3}
 53c:	74735f6f 	ldrbtvc	r5, [r3], #-3951	; 0xfffff091
 540:	5f747261 	svcpl	0x00747261
 544:	5f666572 	svcpl	0x00666572
 548:	65680070 	strbvs	r0, [r8, #-112]!	; 0xffffff90
 54c:	72656461 	rsbvc	r6, r5, #1627389952	; 0x61000000
 550:	65727000 	ldrbvs	r7, [r2, #-0]!
 554:	61007076 	tstvs	r0, r6, ror r0
 558:	6e67696c 	vnmulvs.f16	s13, s14, s25	; <UNPREDICTABLE>
 55c:	5f726b00 	svcpl	0x00726b00
 560:	65657266 	strbvs	r7, [r5, #-614]!	; 0xfffffd9a
 564:	65726600 	ldrbvs	r6, [r2, #-1536]!	; 0xfffffa00
 568:	6e007065 	cdpvs	0, 0, cr7, cr0, cr5, {3}
 56c:	74696e75 	strbtvc	r6, [r9], #-3701	; 0xfffff18b
 570:	726b0073 	rsbvc	r0, fp, #115, 0	; 0x73
 574:	6c616d2d 	stclvs	13, cr6, [r1], #-180	; 0xffffff4c
 578:	2e636f6c 	cdpcs	15, 6, cr6, cr3, cr12, {3}
 57c:	61620063 	cmnvs	r2, r3, rrx
 580:	6b006573 	blvs	19b54 <__bss_end__+0xed4c>
 584:	6f6d5f72 	svcvs	0x006d5f72
 588:	6f636572 	svcvs	0x00636572
 58c:	73006572 	movwvc	r6, #1394	; 0x572
 590:	00657a69 	rsbeq	r7, r5, r9, ror #20
 594:	64616548 	strbtvs	r6, [r1], #-1352	; 0xfffffab8
 598:	47007265 	strmi	r7, [r0, -r5, ror #4]
 59c:	4320554e 			; <UNDEFINED> instruction: 0x4320554e
 5a0:	39203939 	stmdbcc	r0!, {r0, r3, r4, r5, r8, fp, ip, sp}
 5a4:	312e322e 			; <UNDEFINED> instruction: 0x312e322e
 5a8:	31303220 	teqcc	r0, r0, lsr #4
 5ac:	32303139 	eorscc	r3, r0, #1073741838	; 0x4000000e
 5b0:	72282035 	eorvc	r2, r8, #53, 0	; 0x35
 5b4:	61656c65 	cmnvs	r5, r5, ror #24
 5b8:	20296573 	eorcs	r6, r9, r3, ror r5
 5bc:	4d52415b 	ldfmie	f4, [r2, #-364]	; 0xfffffe94
 5c0:	6d72612f 	ldfvse	f6, [r2, #-188]!	; 0xffffff44
 5c4:	622d392d 	eorvs	r3, sp, #737280	; 0xb4000
 5c8:	636e6172 	cmnvs	lr, #-2147483620	; 0x8000001c
 5cc:	65722068 	ldrbvs	r2, [r2, #-104]!	; 0xffffff98
 5d0:	69736976 	ldmdbvs	r3!, {r1, r2, r4, r5, r6, r8, fp, sp, lr}^
 5d4:	32206e6f 	eorcc	r6, r0, #1776	; 0x6f0
 5d8:	39353737 	ldmdbcc	r5!, {r0, r1, r2, r4, r5, r8, r9, sl, ip, sp}
 5dc:	2d205d39 	stccs	13, cr5, [r0, #-228]!	; 0xffffff1c
 5e0:	7570636d 	ldrbvc	r6, [r0, #-877]!	; 0xfffffc93
 5e4:	6d72613d 	ldfvse	f6, [r2, #-244]!	; 0xffffff0c
 5e8:	36373131 			; <UNDEFINED> instruction: 0x36373131
 5ec:	2d667a6a 	vstmdbcs	r6!, {s15-s120}
 5f0:	6d2d2073 	stcvs	0, cr2, [sp, #-460]!	; 0xfffffe34
 5f4:	656e7574 	strbvs	r7, [lr, #-1396]!	; 0xfffffa8c
 5f8:	6d72613d 	ldfvse	f6, [r2, #-244]!	; 0xffffff0c
 5fc:	36373131 			; <UNDEFINED> instruction: 0x36373131
 600:	2d667a6a 	vstmdbcs	r6!, {s15-s120}
 604:	6d2d2073 	stcvs	0, cr2, [sp, #-460]!	; 0xfffffe34
 608:	616f6c66 	cmnvs	pc, r6, ror #24
 60c:	62612d74 	rsbvs	r2, r1, #116, 26	; 0x1d00
 610:	6f733d69 	svcvs	0x00733d69
 614:	2d207466 	cfstrscs	mvf7, [r0, #-408]!	; 0xfffffe68
 618:	6d72616d 	ldfvse	f6, [r2, #-436]!	; 0xfffffe4c
 61c:	616d2d20 	cmnvs	sp, r0, lsr #26
 620:	3d686372 	stclcc	3, cr6, [r8, #-456]!	; 0xfffffe38
 624:	766d7261 	strbtvc	r7, [sp], -r1, ror #4
 628:	207a6b36 	rsbscs	r6, sl, r6, lsr fp
 62c:	6467672d 	strbtvs	r6, [r7], #-1837	; 0xfffff8d3
 630:	672d2062 	strvs	r2, [sp, -r2, rrx]!
 634:	20626467 	rsbcs	r6, r2, r7, ror #8
 638:	20674f2d 	rsbcs	r4, r7, sp, lsr #30
 63c:	20674f2d 	rsbcs	r4, r7, sp, lsr #30
 640:	6474732d 	ldrbtvs	r7, [r4], #-813	; 0xfffffcd3
 644:	756e673d 	strbvc	r6, [lr, #-1853]!	; 0xfffff8c3
 648:	2d203939 			; <UNDEFINED> instruction: 0x2d203939
 64c:	3d647473 	cfstrdcc	mvd7, [r4, #-460]!	; 0xfffffe34
 650:	39756e67 	ldmdbcc	r5!, {r0, r1, r2, r5, r6, r9, sl, fp, sp, lr}^
 654:	662d2039 			; <UNDEFINED> instruction: 0x662d2039
 658:	65657266 	strbvs	r7, [r5, #-614]!	; 0xfffffd9a
 65c:	6e617473 	mcrvs	4, 3, r7, cr1, cr3, {3}
 660:	676e6964 	strbvs	r6, [lr, -r4, ror #18]!
 664:	7a697300 	bvc	1a5d26c <__bss_end__+0x1a52464>
 668:	00745f65 	rsbseq	r5, r4, r5, ror #30
 66c:	6573552f 	ldrbvs	r5, [r3, #-1327]!	; 0xfffffad1
 670:	742f7372 	strtvc	r7, [pc], #-882	; 678 <__code_start__-0x7988>
 674:	74736972 	ldrbtvc	r6, [r3], #-2418	; 0xfffff68e
 678:	6f6e6e65 	svcvs	0x006e6e65
 67c:	616d6c6c 	cmnvs	sp, ip, ror #24
 680:	6f442f6e 	svcvs	0x00442f6e
 684:	656d7563 	strbvs	r7, [sp, #-1379]!	; 0xfffffa9d
 688:	2f73746e 	svccs	0x0073746e
 68c:	69727053 	ldmdbvs	r2!, {r0, r1, r4, r6, ip, sp, lr}^
 690:	515f676e 	cmppl	pc, lr, ror #14
 694:	74726175 	ldrbtvc	r6, [r2], #-373	; 0xfffffe8b
 698:	325f7265 	subscc	r7, pc, #1342177286	; 0x50000006
 69c:	2f323230 	svccs	0x00323230
 6a0:	34325343 	ldrtcc	r5, [r2], #-835	; 0xfffffcbd
 6a4:	2d584c30 	ldclcs	12, cr4, [r8, #-192]	; 0xffffff40
 6a8:	32727073 	rsbscc	r7, r2, #115, 0	; 0x73
 6ac:	696c2f32 	stmdbvs	ip!, {r1, r4, r5, r8, r9, sl, fp, sp}^
 6b0:	00697062 	rsbeq	r7, r9, r2, rrx
 6b4:	696c2f2e 	stmdbvs	ip!, {r1, r2, r3, r5, r8, r9, sl, fp, sp}^
 6b8:	6d2f6362 	stcvs	3, cr6, [pc, #-392]!	; 538 <__code_start__-0x7ac8>
 6bc:	6d636d65 	stclvs	13, cr6, [r3, #-404]!	; 0xfffffe6c
 6c0:	00632e70 	rsbeq	r2, r3, r0, ror lr
 6c4:	696c2f2e 	stmdbvs	ip!, {r1, r2, r3, r5, r8, r9, sl, fp, sp}^
 6c8:	6d2f6362 	stcvs	3, cr6, [pc, #-392]!	; 548 <__code_start__-0x7ab8>
 6cc:	70636d65 	rsbvc	r6, r3, r5, ror #26
 6d0:	00632e79 	rsbeq	r2, r3, r9, ror lr
 6d4:	696c2f2e 	stmdbvs	ip!, {r1, r2, r3, r5, r8, r9, sl, fp, sp}^
 6d8:	6d2f6362 	stcvs	3, cr6, [pc, #-392]!	; 558 <__code_start__-0x7aa8>
 6dc:	65736d65 	ldrbvs	r6, [r3, #-3429]!	; 0xfffff29b
 6e0:	00632e74 	rsbeq	r2, r3, r4, ror lr
 6e4:	73677261 	cmnvc	r7, #268435462	; 0x10000006
 6e8:	5f617600 	svcpl	0x00617600
 6ec:	6e697270 	mcrvs	2, 3, r7, cr9, cr0, {3}
 6f0:	5f006b74 	svcpl	0x00006b74
 6f4:	756e675f 	strbvc	r6, [lr, #-1887]!	; 0xfffff8a1
 6f8:	61765f63 	cmnvs	r6, r3, ror #30
 6fc:	73696c5f 	cmnvc	r9, #24320	; 0x5f00
 700:	5f5f0074 	svcpl	0x005f0074
 704:	6c5f6176 	ldfvse	f6, [pc], {118}	; 0x76
 708:	00747369 	rsbseq	r7, r4, r9, ror #6
 70c:	70615f5f 	rsbvc	r5, r1, pc, asr pc
 710:	6c2f2e00 	stcvs	14, cr2, [pc], #-0	; 718 <__code_start__-0x78e8>
 714:	2f636269 	svccs	0x00636269
 718:	6e697270 	mcrvs	2, 3, r7, cr9, cr0, {3}
 71c:	632e6b74 			; <UNDEFINED> instruction: 0x632e6b74
 720:	746e6900 	strbtvc	r6, [lr], #-2304	; 0xfffff700
 724:	616e7265 	cmnvs	lr, r5, ror #4
 728:	75705f6c 	ldrbvc	r5, [r0, #-3948]!	; 0xfffff094
 72c:	2e006b74 	vmovcs.16	d0[1], r6
 730:	62696c2f 	rsbvs	r6, r9, #12032	; 0x2f00
 734:	75702f63 	ldrbvc	r2, [r0, #-3939]!	; 0xfffff09d
 738:	632e6b74 			; <UNDEFINED> instruction: 0x632e6b74
 73c:	64736900 	ldrbtvs	r6, [r3], #-2304	; 0xfffff700
 740:	74696769 	strbtvc	r6, [r9], #-1897	; 0xfffff897
 744:	6e697500 	cdpvs	5, 6, cr7, cr9, cr0, {0}
 748:	5f343674 	svcpl	0x00343674
 74c:	2f2e0074 	svccs	0x002e0074
 750:	6362696c 	cmnvs	r2, #108, 18	; 0x1b0000
 754:	2d61762f 	stclcs	6, cr7, [r1, #-188]!	; 0xffffff44
 758:	6e697270 	mcrvs	2, 3, r7, cr9, cr0, {3}
 75c:	632e6b74 			; <UNDEFINED> instruction: 0x632e6b74
 760:	635f5f00 	cmpvs	pc, #0, 30
 764:	5f65646f 	svcpl	0x0065646f
 768:	72617473 	rsbvc	r7, r1, #1929379840	; 0x73000000
 76c:	005f5f74 	subseq	r5, pc, r4, ror pc	; <UNPREDICTABLE>
 770:	74646977 	strbtvc	r6, [r4], #-2423	; 0xfffff689
 774:	75700068 	ldrbvc	r0, [r0, #-104]!	; 0xffffff98
 778:	665f6374 			; <UNDEFINED> instruction: 0x665f6374
 77c:	5f5f0070 	svcpl	0x005f0070
 780:	70616568 	rsbvc	r6, r1, r8, ror #10
 784:	6174735f 	cmnvs	r4, pc, asr r3
 788:	5f5f7472 	svcpl	0x005f7472
 78c:	69707200 	ldmdbvs	r0!, {r9, ip, sp, lr}^
 790:	7465735f 	strbtvc	r7, [r5], #-863	; 0xfffffca1
 794:	74756f5f 	ldrbtvc	r6, [r5], #-3935	; 0xfffff0a1
 798:	00747570 	rsbseq	r7, r4, r0, ror r5
 79c:	5f746d66 	svcpl	0x00746d66
 7a0:	72617473 	rsbvc	r7, r1, #1929379840	; 0x73000000
 7a4:	74730074 	ldrbtvc	r0, [r3], #-116	; 0xffffff8c
 7a8:	79706372 	ldmdbvc	r0!, {r1, r4, r5, r6, r8, r9, sp, lr}^
 7ac:	67656e00 	strbvs	r6, [r5, -r0, lsl #28]!
 7b0:	5f00705f 	svcpl	0x0000705f
 7b4:	646f635f 	strbtvs	r6, [pc], #-863	; 7bc <__code_start__-0x7844>
 7b8:	6e655f65 	cdpvs	15, 6, cr5, cr5, cr5, {3}
 7bc:	005f5f64 	subseq	r5, pc, r4, ror #30
 7c0:	74696d65 	strbtvc	r6, [r9], #-3429	; 0xfffff29b
 7c4:	74757000 	ldrbtvc	r7, [r5], #-0
 7c8:	70665f73 	rsbvc	r5, r6, r3, ror pc
 7cc:	76657200 	strbtvc	r7, [r5], -r0, lsl #4
 7d0:	65737265 	ldrbvs	r7, [r3, #-613]!	; 0xfffffd9b
 7d4:	72747300 	rsbsvc	r7, r4, #0, 6
 7d8:	00746163 	rsbseq	r6, r4, r3, ror #2
 7dc:	63727473 	cmnvs	r2, #1929379840	; 0x73000000
 7e0:	5f00706d 	svcpl	0x0000706d
 7e4:	6f72705f 	svcvs	0x0072705f
 7e8:	6e655f67 	cdpvs	15, 6, cr5, cr5, cr7, {3}
 7ec:	005f5f64 	subseq	r5, pc, r4, ror #30
 7f0:	316d756e 	cmncc	sp, lr, ror #10
 7f4:	72747300 	rsbsvc	r7, r4, #0, 6
 7f8:	706d636e 	rsbvc	r6, sp, lr, ror #6
 7fc:	67697300 	strbvs	r7, [r9, -r0, lsl #6]!
 800:	5f64656e 	svcpl	0x0064656e
 804:	70720070 	rsbsvc	r0, r2, r0, ror r0
 808:	65725f69 	ldrbvs	r5, [r2, #-3945]!	; 0xfffff097
 80c:	746f6f62 	strbtvc	r6, [pc], #-3938	; 814 <__code_start__-0x77ec>
 810:	6c656400 	cfstrdvs	mvd6, [r5], #-0
 814:	6d5f7961 	vldrvs.16	s15, [pc, #-194]	; 75a <__code_start__-0x78a6>	; <UNPREDICTABLE>
 818:	2f2e0073 	svccs	0x002e0073
 81c:	66617473 			; <UNDEFINED> instruction: 0x66617473
 820:	72732d66 	rsbsvc	r2, r3, #6528	; 0x1980
 824:	6c632f63 	stclvs	15, cr2, [r3], #-396	; 0xfffffe74
 828:	2d6e6165 	stfcse	f6, [lr, #-404]!	; 0xfffffe6c
 82c:	6f626572 	svcvs	0x00626572
 830:	632e746f 			; <UNDEFINED> instruction: 0x632e746f
 834:	72617500 	rsbvc	r7, r1, #0, 10
 838:	6c665f74 	stclvs	15, cr5, [r6], #-464	; 0xfffffe30
 83c:	5f687375 	svcpl	0x00687375
 840:	5f007874 	svcpl	0x00007874
 844:	61747363 	cmnvs	r4, r3, ror #6
 848:	62007472 	andvs	r7, r0, #1912602624	; 0x72000000
 84c:	655f7373 	ldrbvs	r7, [pc, #-883]	; 4e1 <__code_start__-0x7b1f>
 850:	7500646e 	strvc	r6, [r0, #-1134]	; 0xfffffb92
 854:	5f747261 	svcpl	0x00747261
 858:	74696e69 	strbtvc	r6, [r9], #-3689	; 0xfffff197
 85c:	73756300 	cmnvc	r5, #0, 6
 860:	5f6d6f74 	svcpl	0x006d6f74
 864:	64616f6c 	strbtvs	r6, [r1], #-3948	; 0xfffff094
 868:	2e007265 	cdpcs	2, 0, cr7, cr0, cr5, {3}
 86c:	6174732f 	cmnvs	r4, pc, lsr #6
 870:	732d6666 			; <UNDEFINED> instruction: 0x732d6666
 874:	632f6372 			; <UNDEFINED> instruction: 0x632f6372
 878:	72617473 	rsbvc	r7, r1, #1929379840	; 0x73000000
 87c:	00632e74 	rsbeq	r2, r3, r4, ror lr
 880:	74732f2e 	ldrbtvc	r2, [r3], #-3886	; 0xfffff0d2
 884:	2d666661 	stclcs	6, cr6, [r6, #-388]!	; 0xfffffe7c
 888:	2f637273 	svccs	0x00637273
 88c:	74737563 	ldrbtvc	r7, [r3], #-1379	; 0xfffffa9d
 890:	6c2d6d6f 	stcvs	13, cr6, [sp], #-444	; 0xfffffe44
 894:	6564616f 	strbvs	r6, [r4, #-367]!	; 0xfffffe91
 898:	00632e72 	rsbeq	r2, r3, r2, ror lr
 89c:	6f626572 	svcvs	0x00626572
 8a0:	635f746f 	cmpvs	pc, #1862270976	; 0x6f000000
 8a4:	6f6c6c61 	svcvs	0x006c6c61
 8a8:	50007475 	andpl	r7, r0, r5, ror r4
 8ac:	44575f4d 	ldrbmi	r5, [r7], #-3917	; 0xfffff0b3
 8b0:	5000474f 	andpl	r4, r0, pc, asr #14
 8b4:	32335455 	eorscc	r5, r3, #1426063360	; 0x55000000
 8b8:	74657300 	strbtvc	r7, [r5], #-768	; 0xfffffd00
 8bc:	6573755f 	ldrbvs	r7, [r3, #-1375]!	; 0xfffffaa1
 8c0:	656c5f72 	strbvs	r5, [ip, #-3954]!	; 0xfffff08e
 8c4:	006c6576 	rsbeq	r6, ip, r6, ror r5
 8c8:	74732f2e 	ldrbtvc	r2, [r3], #-3886	; 0xfffff0d2
 8cc:	2d666661 	stclcs	6, cr6, [r6, #-388]!	; 0xfffffe7c
 8d0:	2f637273 	svccs	0x00637273
 8d4:	6f626572 	svcvs	0x00626572
 8d8:	632e746f 			; <UNDEFINED> instruction: 0x632e746f
 8dc:	5f4d5000 	svcpl	0x004d5000
 8e0:	53534150 	cmppl	r3, #20
 8e4:	44524f57 	ldrbmi	r4, [r2], #-3927	; 0xfffff0a9
 8e8:	5f746100 	svcpl	0x00746100
 8ec:	72657375 	rsbvc	r7, r5, #-738197503	; 0xd4000001
 8f0:	76656c5f 			; <UNDEFINED> instruction: 0x76656c5f
 8f4:	50006c65 	andpl	r6, r0, r5, ror #24
 8f8:	53525f4d 	cmppl	r2, #308	; 0x134
 8fc:	575f4354 			; <UNDEFINED> instruction: 0x575f4354
 900:	47464352 	smlsldmi	r4, r6, r2, r3
 904:	4c55465f 	mrrcmi	6, 5, r4, r5, cr15
 908:	45525f4c 	ldrbmi	r5, [r2, #-3916]	; 0xfffff0b4
 90c:	00544553 	subseq	r4, r4, r3, asr r5
 910:	525f4d50 	subspl	r4, pc, #80, 26	; 0x1400
 914:	00435453 	subeq	r5, r3, r3, asr r4
 918:	72737063 	rsbsvc	r7, r3, #99, 0	; 0x63
 91c:	76656400 	strbtvc	r6, [r5], -r0, lsl #8
 920:	7261625f 	rsbvc	r6, r1, #-268435451	; 0xf0000005
 924:	72656972 	rsbvc	r6, r5, #1867776	; 0x1c8000
 928:	6c656400 	cfstrdvs	mvd6, [r5], #-0
 92c:	735f7961 	cmpvc	pc, #1589248	; 0x184000
 930:	2e006365 	cdpcs	3, 0, cr6, cr0, cr5, {3}
 934:	6174732f 	cmnvs	r4, pc, lsr #6
 938:	732d6666 			; <UNDEFINED> instruction: 0x732d6666
 93c:	742f6372 	strtvc	r6, [pc], #-882	; 944 <__code_start__-0x76bc>
 940:	72656d69 	rsbvc	r6, r5, #6720	; 0x1a40
 944:	4700632e 	strmi	r6, [r0, -lr, lsr #6]
 948:	32335445 	eorscc	r5, r3, #1157627904	; 0x45000000
 94c:	6d697400 	cfstrdvs	mvd7, [r9, #-0]
 950:	675f7265 	ldrbvs	r7, [pc, -r5, ror #4]
 954:	755f7465 	ldrbvc	r7, [pc, #-1125]	; 4f7 <__code_start__-0x7b09>
 958:	00636573 	rsbeq	r6, r3, r3, ror r5
 95c:	616c6564 	cmnvs	ip, r4, ror #10
 960:	73755f79 	cmnvc	r5, #484	; 0x1e4
 964:	6d697400 	cfstrdvs	mvd7, [r9, #-0]
 968:	675f7265 	ldrbvs	r7, [pc, -r5, ror #4]
 96c:	755f7465 	ldrbvc	r7, [pc, #-1125]	; 50f <__code_start__-0x7af1>
 970:	5f636573 	svcpl	0x00636573
 974:	00776172 	rsbseq	r6, r7, r2, ror r1
 978:	33747570 	cmncc	r4, #112, 10	; 0x1c000000
 97c:	61620032 	cmnvs	r2, r2, lsr r0
 980:	765f6475 			; <UNDEFINED> instruction: 0x765f6475
 984:	73006c61 	movwvc	r6, #3169	; 0xc61
 988:	00746174 	rsbseq	r6, r4, r4, ror r1
 98c:	74726175 	ldrbtvc	r6, [r2], #-373	; 0xfffffe8b
 990:	6e61635f 	mcrvs	3, 3, r6, cr1, cr15, {2}
 994:	7465675f 	strbtvc	r6, [r5], #-1887	; 0xfffff8a1
 998:	50470063 	subpl	r0, r7, r3, rrx
 99c:	465f4f49 	ldrbmi	r4, [pc], -r9, asr #30
 9a0:	5f434e55 	svcpl	0x00434e55
 9a4:	5054554f 	subspl	r5, r4, pc, asr #10
 9a8:	61005455 	tstvs	r0, r5, asr r4
 9ac:	705f7875 	subsvc	r7, pc, r5, ror r8	; <UNPREDICTABLE>
 9b0:	70697265 	rsbvc	r7, r9, r5, ror #4
 9b4:	75007368 	strvc	r7, [r0, #-872]	; 0xfffffc98
 9b8:	2e747261 	cdpcs	2, 7, cr7, cr4, cr1, {3}
 9bc:	61750063 	cmnvs	r5, r3, rrx
 9c0:	635f7472 	cmpvs	pc, #1912602624	; 0x72000000
 9c4:	705f6e61 	subsvc	r6, pc, r1, ror #28
 9c8:	00637475 	rsbeq	r7, r3, r5, ror r4
 9cc:	74726175 	ldrbtvc	r6, [r2], #-373	; 0xfffffe8b
 9d0:	5f78745f 	svcpl	0x0078745f
 9d4:	655f7369 	ldrbvs	r7, [pc, #-873]	; 673 <__code_start__-0x798d>
 9d8:	7974706d 	ldmdbvc	r4!, {r0, r2, r3, r5, r6, ip, sp, lr}^
 9dc:	49504700 	ldmdbmi	r0, {r8, r9, sl, lr}^
 9e0:	55465f4f 	strbpl	r5, [r6, #-3919]	; 0xfffff0b1
 9e4:	415f434e 	cmpmi	pc, lr, asr #6
 9e8:	0030544c 	eorseq	r5, r0, ip, asr #8
 9ec:	4f495047 	svcmi	0x00495047
 9f0:	4e55465f 	mrcmi	6, 2, r4, cr5, cr15, {2}
 9f4:	4c415f43 	mcrrmi	15, 4, r5, r1, cr3
 9f8:	47003154 	smlsdmi	r0, r4, r1, r3
 9fc:	5f4f4950 	svcpl	0x004f4950
 a00:	434e5546 	movtmi	r5, #58694	; 0xe546
 a04:	544c415f 	strbpl	r4, [ip], #-351	; 0xfffffea1
 a08:	50470032 	subpl	r0, r7, r2, lsr r0
 a0c:	465f4f49 	ldrbmi	r4, [pc], -r9, asr #30
 a10:	5f434e55 	svcpl	0x00434e55
 a14:	33544c41 	cmpcc	r4, #16640	; 0x4100
 a18:	49504700 	ldmdbmi	r0, {r8, r9, sl, lr}^
 a1c:	55465f4f 	strbpl	r5, [r6, #-3919]	; 0xfffff0b1
 a20:	415f434e 	cmpmi	pc, lr, asr #6
 a24:	0035544c 	eorseq	r5, r5, ip, asr #8
 a28:	6d6f682f 	stclvs	8, cr6, [pc, #-188]!	; 974 <__code_start__-0x768c>
 a2c:	6e652f65 	cdpvs	15, 6, cr2, cr5, cr5, {3}
 a30:	72656c67 	rsbvc	r6, r5, #26368	; 0x6700
 a34:	616c632f 	cmnvs	ip, pc, lsr #6
 a38:	632f7373 			; <UNDEFINED> instruction: 0x632f7373
 a3c:	30343273 	eorscc	r3, r4, r3, ror r2
 a40:	322d786c 	eorcc	r7, sp, #108, 16	; 0x6c0000
 a44:	72707332 	rsbsvc	r7, r0, #-939524096	; 0xc8000000
 a48:	62696c2f 	rsbvs	r6, r9, #12032	; 0x2f00
 a4c:	732f6970 			; <UNDEFINED> instruction: 0x732f6970
 a50:	66666174 			; <UNDEFINED> instruction: 0x66666174
 a54:	6972702d 	ldmdbvs	r2!, {r0, r2, r3, r5, ip, sp, lr}^
 a58:	65746176 	ldrbvs	r6, [r4, #-374]!	; 0xfffffe8a
 a5c:	75616200 	strbvc	r6, [r1, #-512]!	; 0xfffffe00
 a60:	75610064 	strbvc	r0, [r1, #-100]!	; 0xffffff9c
 a64:	6e655f78 	mcrvs	15, 3, r5, cr5, cr8, {3}
 a68:	656c6261 	strbvs	r6, [ip, #-609]!	; 0xfffffd9f
 a6c:	61750073 	cmnvs	r5, r3, ror r0
 a70:	675f7472 			; <UNDEFINED> instruction: 0x675f7472
 a74:	00637465 	rsbeq	r7, r3, r5, ror #8
 a78:	20554e47 	subscs	r4, r5, r7, asr #28
 a7c:	20393943 	eorscs	r3, r9, r3, asr #18
 a80:	332e3031 			; <UNDEFINED> instruction: 0x332e3031
 a84:	3220312e 	eorcc	r3, r0, #-2147483637	; 0x8000000b
 a88:	30313230 	eorscc	r3, r1, r0, lsr r2
 a8c:	20343238 	eorscs	r3, r4, r8, lsr r2
 a90:	6c657228 	sfmvs	f7, 2, [r5], #-160	; 0xffffff60
 a94:	65736165 	ldrbvs	r6, [r3, #-357]!	; 0xfffffe9b
 a98:	6d2d2029 	stcvs	0, cr2, [sp, #-164]!	; 0xffffff5c
 a9c:	3d757063 	ldclcc	0, cr7, [r5, #-396]!	; 0xfffffe74
 aa0:	316d7261 	cmncc	sp, r1, ror #4
 aa4:	6a363731 	bvs	d8e770 <__bss_end__+0xd83968>
 aa8:	732d667a 			; <UNDEFINED> instruction: 0x732d667a
 aac:	746d2d20 	strbtvc	r2, [sp], #-3360	; 0xfffff2e0
 ab0:	3d656e75 	stclcc	14, cr6, [r5, #-468]!	; 0xfffffe2c
 ab4:	316d7261 	cmncc	sp, r1, ror #4
 ab8:	6a363731 	bvs	d8e784 <__bss_end__+0xd8397c>
 abc:	732d667a 			; <UNDEFINED> instruction: 0x732d667a
 ac0:	666d2d20 	strbtvs	r2, [sp], -r0, lsr #26
 ac4:	74616f6c 	strbtvc	r6, [r1], #-3948	; 0xfffff094
 ac8:	6962612d 	stmdbvs	r2!, {r0, r2, r3, r5, r8, sp, lr}^
 acc:	666f733d 			; <UNDEFINED> instruction: 0x666f733d
 ad0:	6d2d2074 	stcvs	0, cr2, [sp, #-464]!	; 0xfffffe30
 ad4:	206d7261 	rsbcs	r7, sp, r1, ror #4
 ad8:	72616d2d 	rsbvc	r6, r1, #2880	; 0xb40
 adc:	613d6863 	teqvs	sp, r3, ror #16
 ae0:	36766d72 			; <UNDEFINED> instruction: 0x36766d72
 ae4:	2d207a6b 	vstmdbcs	r0!, {s14-s120}
 ae8:	62646767 	rsbvs	r6, r4, #27000832	; 0x19c0000
 aec:	674f2d20 	strbvs	r2, [pc, -r0, lsr #26]
 af0:	74732d20 	ldrbtvc	r2, [r3], #-3360	; 0xfffff2e0
 af4:	6e673d64 	cdpvs	13, 6, cr3, cr7, cr4, {3}
 af8:	20393975 	eorscs	r3, r9, r5, ror r9
 afc:	7266662d 	rsbvc	r6, r6, #47185920	; 0x2d00000
 b00:	74736565 	ldrbtvc	r6, [r3], #-1381	; 0xfffffa9b
 b04:	69646e61 	stmdbvs	r4!, {r0, r5, r6, r9, sl, fp, sp, lr}^
 b08:	6300676e 	movwvs	r6, #1902	; 0x76e
 b0c:	006c746e 	rsbeq	r7, ip, lr, ror #8
 b10:	74726175 	ldrbtvc	r6, [r2], #-373	; 0xfffffe8b
 b14:	7369645f 	cmnvc	r9, #1593835520	; 0x5f000000
 b18:	656c6261 	strbvs	r6, [ip, #-609]!	; 0xfffffd9f
 b1c:	72617500 	rsbvc	r7, r1, #0, 10
 b20:	61685f74 	smcvs	34292	; 0x85f4
 b24:	61645f73 	smcvs	17907	; 0x45f3
 b28:	47006174 	smlsdxmi	r0, r4, r1, r6
 b2c:	5f4f4950 	svcpl	0x004f4950
 b30:	434e5546 	movtmi	r5, #58694	; 0xe546
 b34:	544c415f 	strbpl	r4, [ip], #-351	; 0xfffffea1
 b38:	726f0034 	rsbvc	r0, pc, #52, 0	; 0x34
 b3c:	336e695f 	cmncc	lr, #1556480	; 0x17c000
 b40:	63730032 	cmnvs	r3, #50, 0	; 0x32
 b44:	63746172 	cmnvs	r4, #-2147483620	; 0x8000001c
 b48:	61750068 	cmnvs	r5, r8, rrx
 b4c:	61007472 	tstvs	r0, r2, ror r4
 b50:	695f646e 	ldmdbvs	pc, {r1, r2, r3, r5, r6, sl, sp, lr}^	; <UNPREDICTABLE>
 b54:	0032336e 	eorseq	r3, r2, lr, ror #6
 b58:	74726175 	ldrbtvc	r6, [r2], #-373	; 0xfffffe8b
 b5c:	7475705f 	ldrbtvc	r7, [r5], #-95	; 0xffffffa1
 b60:	50470063 	subpl	r0, r7, r3, rrx
 b64:	465f4f49 	ldrbmi	r4, [pc], -r9, asr #30
 b68:	5f434e55 	svcpl	0x00434e55
 b6c:	55504e49 	ldrbpl	r4, [r0, #-3657]	; 0xfffff1b7
 b70:	70670054 	rsbvc	r0, r7, r4, asr r0
 b74:	735f6f69 	cmpvc	pc, #420	; 0x1a4
 b78:	665f7465 	ldrbvs	r7, [pc], -r5, ror #8
 b7c:	74636e75 	strbtvc	r6, [r3], #-3701	; 0xfffff18b
 b80:	006e6f69 	rsbeq	r6, lr, r9, ror #30
 b84:	33746567 	cmncc	r4, #432013312	; 0x19c00000
 b88:	6d6b0032 	stclvs	0, cr0, [fp, #-200]!	; 0xffffff38
 b8c:	6f6c6c61 	svcvs	0x006c6c61
 b90:	65685f63 	strbvs	r5, [r8, #-3939]!	; 0xfffff09d
 b94:	735f7061 	cmpvc	pc, #97, 0	; 0x61
 b98:	74726174 	ldrbtvc	r6, [r2], #-372	; 0xfffffe8c
 b9c:	78616d00 	stmdavc	r1!, {r8, sl, fp, sp, lr}^
 ba0:	79626e5f 	stmdbvc	r2!, {r0, r1, r2, r3, r4, r6, r9, sl, fp, sp, lr}^
 ba4:	00736574 	rsbseq	r6, r3, r4, ror r5
 ba8:	6464615f 	strbtvs	r6, [r4], #-351	; 0xfffffea1
 bac:	65680072 	strbvs	r0, [r8, #-114]!	; 0xffffff8e
 bb0:	6d5f7061 	ldclvs	0, cr7, [pc, #-388]	; a34 <__code_start__-0x75cc>
 bb4:	6b007861 	blvs	1ed40 <__bss_end__+0x13f38>
 bb8:	65657266 	strbvs	r7, [r5, #-614]!	; 0xfffffd9a
 bbc:	6c6c615f 	stfvse	f6, [ip], #-380	; 0xfffffe84
 bc0:	756f7200 	strbvc	r7, [pc, #-512]!	; 9c8 <__code_start__-0x7638>
 bc4:	7075646e 	rsbsvc	r6, r5, lr, ror #8
 bc8:	72666b00 	rsbvc	r6, r6, #0, 22
 bcc:	705f6565 	subsvc	r6, pc, r5, ror #10
 bd0:	6100706f 	tstvs	r0, pc, rrx
 bd4:	6e67696c 	vnmulvs.f16	s13, s14, s25	; <UNPREDICTABLE>
 bd8:	746e656d 	strbtvc	r6, [lr], #-1389	; 0xfffffa93
 bdc:	78616d00 	stmdavc	r1!, {r8, sl, fp, sp, lr}^
 be0:	3233755f 	eorscc	r7, r3, #398458880	; 0x17c00000
 be4:	656e4f00 	strbvs	r4, [lr, #-3840]!	; 0xfffff100
 be8:	6b00424d 	blvs	11524 <__bss_end__+0x671c>
 bec:	6c6c616d 	stfvse	f6, [ip], #-436	; 0xfffffe4c
 bf0:	685f636f 	ldmdavs	pc, {r0, r1, r2, r3, r5, r6, r8, r9, sp, lr}^	; <UNPREDICTABLE>
 bf4:	5f706165 	svcpl	0x00706165
 bf8:	00646e65 	rsbeq	r6, r4, r5, ror #28
 bfc:	6c616d6b 	stclvs	13, cr6, [r1], #-428	; 0xfffffe54
 c00:	5f636f6c 	svcpl	0x00636f6c
 c04:	7a746f6e 	bvc	1d1c9c4 <__bss_end__+0x1d11bbc>
 c08:	006f7265 	rsbeq	r7, pc, r5, ror #4
 c0c:	705f7369 	subsvc	r7, pc, r9, ror #6
 c10:	0032776f 	eorseq	r7, r2, pc, ror #14
 c14:	6c616d6b 	stclvs	13, cr6, [r1], #-428	; 0xfffffe54
 c18:	2e636f6c 	cdpcs	15, 6, cr6, cr3, cr12, {3}
 c1c:	6d6b0063 	stclvs	0, cr0, [fp, #-396]!	; 0xfffffe74
 c20:	6f6c6c61 	svcvs	0x006c6c61
 c24:	6e695f63 	cdpvs	15, 6, cr5, cr9, cr3, {3}
 c28:	69007469 	stmdbvs	r0, {r0, r3, r5, r6, sl, ip, sp, lr}
 c2c:	6c615f73 	stclvs	15, cr5, [r1], #-460	; 0xfffffe34
 c30:	656e6769 	strbvs	r6, [lr, #-1897]!	; 0xfffff897
 c34:	6d6b0064 	stclvs	0, cr0, [fp, #-400]!	; 0xfffffe70
 c38:	6f6c6c61 	svcvs	0x006c6c61
 c3c:	65685f63 	strbvs	r5, [r8, #-3939]!	; 0xfffff09d
 c40:	705f7061 	subsvc	r7, pc, r1, rrx
 c44:	72007274 	andvc	r7, r0, #116, 4	; 0x40000007
 c48:	725f6970 	subsvc	r6, pc, #112, 18	; 0x1c0000
 c4c:	74657365 	strbtvc	r7, [r5], #-869	; 0xfffffc9b
 c50:	7475705f 	ldrbtvc	r7, [r5], #-95	; 0xffffffa1
 c54:	6d6b0063 	stclvs	0, cr0, [fp, #-396]!	; 0xfffffe74
 c58:	6f6c6c61 	svcvs	0x006c6c61
 c5c:	6c615f63 	stclvs	15, cr5, [r1], #-396	; 0xfffffe74
 c60:	656e6769 	strbvs	r6, [lr, #-1897]!	; 0xfffff897
 c64:	6e690064 	cdpvs	0, 6, cr0, cr9, cr4, {3}
 c68:	6e726574 	mrcvs	5, 3, r6, cr2, cr4, {3}
 c6c:	705f6c61 	subsvc	r6, pc, r1, ror #24
 c70:	68637475 	stmdavs	r3!, {r0, r2, r4, r5, r6, sl, ip, sp, lr}^
 c74:	72007261 	andvc	r7, r0, #268435462	; 0x10000006
 c78:	735f6970 	cmpvc	pc, #112, 18	; 0x1c0000
 c7c:	705f7465 	subsvc	r7, pc, r5, ror #8
 c80:	00637475 	rsbeq	r7, r3, r5, ror r4
 c84:	696c2f2e 	stmdbvs	ip!, {r1, r2, r3, r5, r8, r9, sl, fp, sp}^
 c88:	702f6362 	eorvc	r6, pc, r2, ror #6
 c8c:	68637475 	stmdavs	r3!, {r0, r2, r4, r5, r6, sl, ip, sp, lr}^
 c90:	632e7261 			; <UNDEFINED> instruction: 0x632e7261
 c94:	73656400 	cmnvc	r5, #0, 8
 c98:	2f2e0074 	svccs	0x002e0074
 c9c:	6362696c 	cmnvs	r2, #108, 18	; 0x1b0000
 ca0:	7274732f 	rsbsvc	r7, r4, #-1140850688	; 0xbc000000
 ca4:	2e746163 	rpwcssz	f6, f4, f3
 ca8:	2f2e0063 	svccs	0x002e0063
 cac:	6362696c 	cmnvs	r2, #108, 18	; 0x1b0000
 cb0:	7274732f 	rsbsvc	r7, r4, #-1140850688	; 0xbc000000
 cb4:	2e706d63 	cdpcs	13, 7, cr6, cr0, cr3, {3}
 cb8:	2f2e0063 	svccs	0x002e0063
 cbc:	6362696c 	cmnvs	r2, #108, 18	; 0x1b0000
 cc0:	7274732f 	rsbsvc	r7, r4, #-1140850688	; 0xbc000000
 cc4:	2e797063 	cdpcs	0, 7, cr7, cr9, cr3, {3}
 cc8:	2f2e0063 	svccs	0x002e0063
 ccc:	6362696c 	cmnvs	r2, #108, 18	; 0x1b0000
 cd0:	7274732f 	rsbsvc	r7, r4, #-1140850688	; 0xbc000000
 cd4:	706d636e 	rsbvc	r6, sp, lr, ror #6
 cd8:	2e00632e 	cdpcs	3, 0, cr6, cr0, cr14, {1}
 cdc:	6174732f 	cmnvs	r4, pc, lsr #6
 ce0:	732d6666 			; <UNDEFINED> instruction: 0x732d6666
 ce4:	642f6372 	strtvs	r6, [pc], #-882	; cec <__code_start__-0x7314>
 ce8:	75616665 	strbvc	r6, [r1, #-1637]!	; 0xfffff99b
 cec:	722d746c 	eorvc	r7, sp, #108, 8	; 0x6c000000
 cf0:	6f6f6265 	svcvs	0x006f6265
 cf4:	61632d74 	smcvs	13012	; 0x32d4
 cf8:	756f6c6c 	strbvc	r6, [pc, #-3180]!	; 94 <__code_start__-0x7f6c>
 cfc:	00632e74 	rsbeq	r2, r3, r4, ror lr
 d00:	6f697067 	svcvs	0x00697067
 d04:	726c635f 	rsbvc	r6, ip, #2080374785	; 0x7c000001
 d08:	70670030 	rsbvc	r0, r7, r0, lsr r0
 d0c:	735f6f69 	cmpvc	pc, #420	; 0x1a4
 d10:	00307465 	eorseq	r7, r0, r5, ror #8
 d14:	6f697067 	svcvs	0x00697067
 d18:	6972775f 	ldmdbvs	r2!, {r0, r1, r2, r3, r4, r6, r8, r9, sl, ip, sp, lr}^
 d1c:	44006574 	strmi	r6, [r0], #-1396	; 0xfffffa8c
 d20:	565f5645 	ldrbpl	r5, [pc], -r5, asr #12
 d24:	32334c41 	eorscc	r4, r3, #16640	; 0x4100
 d28:	69706700 	ldmdbvs	r0!, {r8, r9, sl, sp, lr}^
 d2c:	65725f6f 	ldrbvs	r5, [r2, #-3951]!	; 0xfffff091
 d30:	67006461 	strvs	r6, [r0, -r1, ror #8]
 d34:	5f6f6970 	svcpl	0x006f6970
 d38:	5f746573 	svcpl	0x00746573
 d3c:	75706e69 	ldrbvc	r6, [r0, #-3689]!	; 0xfffff197
 d40:	70670074 	rsbvc	r0, r7, r4, ror r0
 d44:	735f6f69 	cmpvc	pc, #420	; 0x1a4
 d48:	6f5f7465 	svcvs	0x005f7465
 d4c:	67006666 	strvs	r6, [r0, -r6, ror #12]
 d50:	5f6f6970 	svcpl	0x006f6970
 d54:	5f746573 	svcpl	0x00746573
 d58:	7074756f 	rsbsvc	r7, r4, pc, ror #10
 d5c:	67007475 	smlsdxvs	r0, r5, r4, r7
 d60:	5f6f6970 	svcpl	0x006f6970
 d64:	636e7566 	cmnvs	lr, #427819008	; 0x19800000
 d68:	6700745f 	smlsdvs	r0, pc, r4, r7	; <UNPREDICTABLE>
 d6c:	5f6f6970 	svcpl	0x006f6970
 d70:	3076656c 	rsbscc	r6, r6, ip, ror #10
 d74:	6e616200 	cdpvs	2, 6, cr6, cr1, cr0, {0}
 d78:	7067006b 	rsbvc	r0, r7, fp, rrx
 d7c:	632e6f69 			; <UNDEFINED> instruction: 0x632e6f69
 d80:	69706700 	ldmdbvs	r0!, {r8, r9, sl, sp, lr}^
 d84:	65735f6f 	ldrbvs	r5, [r3, #-3951]!	; 0xfffff091
 d88:	6e6f5f74 	mcrvs	15, 3, r5, cr15, cr4, {3}
	...

Disassembly of section .debug_frame:

00000000 <.debug_frame>:
   0:	0000000c 	andeq	r0, r0, ip
   4:	ffffffff 			; <UNDEFINED> instruction: 0xffffffff
   8:	7c020001 	stcvc	0, cr0, [r2], {1}
   c:	000d0c0e 	andeq	r0, sp, lr, lsl #24
  10:	0000000c 	andeq	r0, r0, ip
  14:	00000000 	andeq	r0, r0, r0
  18:	00008038 	andeq	r8, r0, r8, lsr r0
  1c:	00000008 	andeq	r0, r0, r8
  20:	00000024 	andeq	r0, r0, r4, lsr #32
  24:	00000000 	andeq	r0, r0, r0
  28:	00008040 	andeq	r8, r0, r0, asr #32
  2c:	000000cc 	andeq	r0, r0, ip, asr #1
  30:	84100e42 	ldrhi	r0, [r0], #-3650	; 0xfffff1be
  34:	86038504 	strhi	r8, [r3], -r4, lsl #10
  38:	42018e02 	andmi	r8, r1, #2, 28
  3c:	4802300e 	stmdami	r2, {r1, r2, r3, ip, sp}
  40:	42100e0a 	andsmi	r0, r0, #160	; 0xa0
  44:	0000000b 	andeq	r0, r0, fp
  48:	0000000c 	andeq	r0, r0, ip
  4c:	ffffffff 			; <UNDEFINED> instruction: 0xffffffff
  50:	7c020001 	stcvc	0, cr0, [r2], {1}
  54:	000d0c0e 	andeq	r0, sp, lr, lsl #24
  58:	00000014 	andeq	r0, r0, r4, lsl r0
  5c:	00000048 	andeq	r0, r0, r8, asr #32
  60:	0000810c 	andeq	r8, r0, ip, lsl #2
  64:	00000074 	andeq	r0, r0, r4, ror r0
  68:	8e040e5e 	mcrhi	14, 0, r0, cr4, cr14, {2}
  6c:	100e4201 	andne	r4, lr, r1, lsl #4
  70:	0000000c 	andeq	r0, r0, ip
  74:	00000048 	andeq	r0, r0, r8, asr #32
  78:	00008180 	andeq	r8, r0, r0, lsl #3
  7c:	00000010 	andeq	r0, r0, r0, lsl r0
  80:	0000000c 	andeq	r0, r0, ip
  84:	00000048 	andeq	r0, r0, r8, asr #32
  88:	00008190 	muleq	r0, r0, r1
  8c:	00000010 	andeq	r0, r0, r0, lsl r0
  90:	0000000c 	andeq	r0, r0, ip
  94:	00000048 	andeq	r0, r0, r8, asr #32
  98:	000081a0 	andeq	r8, r0, r0, lsr #3
  9c:	00000008 	andeq	r0, r0, r8
  a0:	00000014 	andeq	r0, r0, r4, lsl r0
  a4:	00000048 	andeq	r0, r0, r8, asr #32
  a8:	000081a8 	andeq	r8, r0, r8, lsr #3
  ac:	00000018 	andeq	r0, r0, r8, lsl r0
  b0:	84080e42 	strhi	r0, [r8], #-3650	; 0xfffff1be
  b4:	00018e02 	andeq	r8, r1, r2, lsl #28
  b8:	0000000c 	andeq	r0, r0, ip
  bc:	00000048 	andeq	r0, r0, r8, asr #32
  c0:	000081c0 	andeq	r8, r0, r0, asr #3
  c4:	00000038 	andeq	r0, r0, r8, lsr r0
  c8:	00000018 	andeq	r0, r0, r8, lsl r0
  cc:	00000048 	andeq	r0, r0, r8, asr #32
  d0:	000081f8 	strdeq	r8, [r0], -r8	; <UNPREDICTABLE>
  d4:	00000058 	andeq	r0, r0, r8, asr r0
  d8:	84100e42 	ldrhi	r0, [r0], #-3650	; 0xfffff1be
  dc:	86038504 	strhi	r8, [r3], -r4, lsl #10
  e0:	00018e02 	andeq	r8, r1, r2, lsl #28
  e4:	00000018 	andeq	r0, r0, r8, lsl r0
  e8:	00000048 	andeq	r0, r0, r8, asr #32
  ec:	00008250 	andeq	r8, r0, r0, asr r2
  f0:	00000064 	andeq	r0, r0, r4, rrx
  f4:	84100e42 	ldrhi	r0, [r0], #-3650	; 0xfffff1be
  f8:	86038504 	strhi	r8, [r3], -r4, lsl #10
  fc:	00018e02 	andeq	r8, r1, r2, lsl #28
 100:	00000018 	andeq	r0, r0, r8, lsl r0
 104:	00000048 	andeq	r0, r0, r8, asr #32
 108:	000082b4 			; <UNDEFINED> instruction: 0x000082b4
 10c:	00000048 	andeq	r0, r0, r8, asr #32
 110:	84100e42 	ldrhi	r0, [r0], #-3650	; 0xfffff1be
 114:	86038504 	strhi	r8, [r3], -r4, lsl #10
 118:	00018e02 	andeq	r8, r1, r2, lsl #28
 11c:	0000000c 	andeq	r0, r0, ip
 120:	00000048 	andeq	r0, r0, r8, asr #32
 124:	000082fc 	strdeq	r8, [r0], -ip
 128:	0000004c 	andeq	r0, r0, ip, asr #32
 12c:	00000020 	andeq	r0, r0, r0, lsr #32
 130:	00000048 	andeq	r0, r0, r8, asr #32
 134:	00008348 	andeq	r8, r0, r8, asr #6
 138:	000000a4 	andeq	r0, r0, r4, lsr #1
 13c:	84100e42 	ldrhi	r0, [r0], #-3650	; 0xfffff1be
 140:	86038504 	strhi	r8, [r3], -r4, lsl #10
 144:	42018e02 	andmi	r8, r1, #2, 28
 148:	0201900e 	andeq	r9, r1, #14, 0
 14c:	00100e46 	andseq	r0, r0, r6, asr #28
 150:	00000020 	andeq	r0, r0, r0, lsr #32
 154:	00000048 	andeq	r0, r0, r8, asr #32
 158:	000083ec 	andeq	r8, r0, ip, ror #7
 15c:	00000170 	andeq	r0, r0, r0, ror r1
 160:	840c0e42 	strhi	r0, [ip], #-3650	; 0xfffff1be
 164:	8e028503 	cfsh32hi	mvfx8, mvfx2, #3
 168:	a80e4201 	stmdage	lr, {r0, r9, lr}
 16c:	0a7c0201 	beq	1f00978 <__bss_end__+0x1ef5b70>
 170:	0b420c0e 	bleq	10831b0 <__bss_end__+0x10783a8>
 174:	00000020 	andeq	r0, r0, r0, lsr #32
 178:	00000048 	andeq	r0, r0, r8, asr #32
 17c:	0000855c 	andeq	r8, r0, ip, asr r5
 180:	000000dc 	ldrdeq	r0, [r0], -ip
 184:	84100e42 	ldrhi	r0, [r0], #-3650	; 0xfffff1be
 188:	86038504 	strhi	r8, [r3], -r4, lsl #10
 18c:	42018e02 	andmi	r8, r1, #2, 28
 190:	6002200e 	andvs	r2, r2, lr
 194:	0000100e 	andeq	r1, r0, lr
 198:	0000000c 	andeq	r0, r0, ip
 19c:	ffffffff 			; <UNDEFINED> instruction: 0xffffffff
 1a0:	7c020001 	stcvc	0, cr0, [r2], {1}
 1a4:	000d0c0e 	andeq	r0, sp, lr, lsl #24
 1a8:	0000000c 	andeq	r0, r0, ip
 1ac:	00000198 	muleq	r0, r8, r1
 1b0:	00008638 	andeq	r8, r0, r8, lsr r6
 1b4:	0000003c 	andeq	r0, r0, ip, lsr r0
 1b8:	0000001c 	andeq	r0, r0, ip, lsl r0
 1bc:	00000198 	muleq	r0, r8, r1
 1c0:	00008674 	andeq	r8, r0, r4, ror r6
 1c4:	0000017c 	andeq	r0, r0, ip, ror r1
 1c8:	84180e42 	ldrhi	r0, [r8], #-3650	; 0xfffff1be
 1cc:	86058506 	strhi	r8, [r5], -r6, lsl #10
 1d0:	88038704 	stmdahi	r3, {r2, r8, r9, sl, pc}
 1d4:	00018e02 	andeq	r8, r1, r2, lsl #28
 1d8:	0000001c 	andeq	r0, r0, ip, lsl r0
 1dc:	00000198 	muleq	r0, r8, r1
 1e0:	000087f0 	strdeq	r8, [r0], -r0
 1e4:	000000b0 	strheq	r0, [r0], -r0	; <UNPREDICTABLE>
 1e8:	84180e42 	ldrhi	r0, [r8], #-3650	; 0xfffff1be
 1ec:	86058506 	strhi	r8, [r5], -r6, lsl #10
 1f0:	88038704 	stmdahi	r3, {r2, r8, r9, sl, pc}
 1f4:	00018e02 	andeq	r8, r1, r2, lsl #28
 1f8:	00000014 	andeq	r0, r0, r4, lsl r0
 1fc:	00000198 	muleq	r0, r8, r1
 200:	000088a0 	andeq	r8, r0, r0, lsr #17
 204:	00000028 	andeq	r0, r0, r8, lsr #32
 208:	84080e42 	strhi	r0, [r8], #-3650	; 0xfffff1be
 20c:	00018e02 	andeq	r8, r1, r2, lsl #28
 210:	00000020 	andeq	r0, r0, r0, lsr #32
 214:	00000198 	muleq	r0, r8, r1
 218:	000088c8 	andeq	r8, r0, r8, asr #17
 21c:	00000138 	andeq	r0, r0, r8, lsr r1
 220:	84140e42 	ldrhi	r0, [r4], #-3650	; 0xfffff1be
 224:	86048505 	strhi	r8, [r4], -r5, lsl #10
 228:	8e028703 	cdphi	7, 0, cr8, cr2, cr3, {0}
 22c:	200e4201 	andcs	r4, lr, r1, lsl #4
 230:	140e8a02 	strne	r8, [lr], #-2562	; 0xfffff5fe
 234:	00000018 	andeq	r0, r0, r8, lsl r0
 238:	00000198 	muleq	r0, r8, r1
 23c:	00008a00 	andeq	r8, r0, r0, lsl #20
 240:	00000090 	muleq	r0, r0, r0
 244:	8e040e42 	cdphi	14, 0, cr0, cr4, cr2, {2}
 248:	480e4201 	stmdami	lr, {r0, r9, lr}
 24c:	00040e7a 	andeq	r0, r4, sl, ror lr
 250:	00000020 	andeq	r0, r0, r0, lsr #32
 254:	00000198 	muleq	r0, r8, r1
 258:	00008a90 	muleq	r0, r0, sl
 25c:	0000009c 	muleq	r0, ip, r0
 260:	840c0e42 	strhi	r0, [ip], #-3650	; 0xfffff1be
 264:	8e028503 	cfsh32hi	mvfx8, mvfx2, #3
 268:	180e4201 	stmdane	lr, {r0, r9, lr}
 26c:	0c0e0a58 			; <UNDEFINED> instruction: 0x0c0e0a58
 270:	00000b42 	andeq	r0, r0, r2, asr #22
 274:	00000014 	andeq	r0, r0, r4, lsl r0
 278:	00000198 	muleq	r0, r8, r1
 27c:	00008b2c 	andeq	r8, r0, ip, lsr #22
 280:	00000030 	andeq	r0, r0, r0, lsr r0
 284:	84080e42 	strhi	r0, [r8], #-3650	; 0xfffff1be
 288:	00018e02 	andeq	r8, r1, r2, lsl #28
 28c:	00000014 	andeq	r0, r0, r4, lsl r0
 290:	00000198 	muleq	r0, r8, r1
 294:	00008b5c 	andeq	r8, r0, ip, asr fp
 298:	00000048 	andeq	r0, r0, r8, asr #32
 29c:	84080e42 	strhi	r0, [r8], #-3650	; 0xfffff1be
 2a0:	00018e02 	andeq	r8, r1, r2, lsl #28
 2a4:	00000014 	andeq	r0, r0, r4, lsl r0
 2a8:	00000198 	muleq	r0, r8, r1
 2ac:	00008ba4 	andeq	r8, r0, r4, lsr #23
 2b0:	00000050 	andeq	r0, r0, r0, asr r0
 2b4:	84080e42 	strhi	r0, [r8], #-3650	; 0xfffff1be
 2b8:	00018e02 	andeq	r8, r1, r2, lsl #28
 2bc:	00000014 	andeq	r0, r0, r4, lsl r0
 2c0:	00000198 	muleq	r0, r8, r1
 2c4:	00008bf4 	strdeq	r8, [r0], -r4
 2c8:	00000010 	andeq	r0, r0, r0, lsl r0
 2cc:	84080e42 	strhi	r0, [r8], #-3650	; 0xfffff1be
 2d0:	00018e02 	andeq	r8, r1, r2, lsl #28
 2d4:	00000014 	andeq	r0, r0, r4, lsl r0
 2d8:	00000198 	muleq	r0, r8, r1
 2dc:	00008c04 	andeq	r8, r0, r4, lsl #24
 2e0:	00000028 	andeq	r0, r0, r8, lsr #32
 2e4:	84080e42 	strhi	r0, [r8], #-3650	; 0xfffff1be
 2e8:	00018e02 	andeq	r8, r1, r2, lsl #28
 2ec:	0000000c 	andeq	r0, r0, ip
 2f0:	ffffffff 			; <UNDEFINED> instruction: 0xffffffff
 2f4:	7c020001 	stcvc	0, cr0, [r2], {1}
 2f8:	000d0c0e 	andeq	r0, sp, lr, lsl #24
 2fc:	00000014 	andeq	r0, r0, r4, lsl r0
 300:	000002ec 	andeq	r0, r0, ip, ror #5
 304:	00008c70 	andeq	r8, r0, r0, ror ip
 308:	000000bc 	strheq	r0, [r0], -ip
 30c:	8e040e42 	cdphi	14, 0, cr0, cr4, cr2, {2}
 310:	00000001 	andeq	r0, r0, r1
 314:	00000014 	andeq	r0, r0, r4, lsl r0
 318:	000002ec 	andeq	r0, r0, ip, ror #5
 31c:	00008d2c 	andeq	r8, r0, ip, lsr #26
 320:	00000044 	andeq	r0, r0, r4, asr #32
 324:	84080e42 	strhi	r0, [r8], #-3650	; 0xfffff1be
 328:	00018e02 	andeq	r8, r1, r2, lsl #28
 32c:	00000014 	andeq	r0, r0, r4, lsl r0
 330:	000002ec 	andeq	r0, r0, ip, ror #5
 334:	00008d70 	andeq	r8, r0, r0, ror sp
 338:	000000ac 	andeq	r0, r0, ip, lsr #1
 33c:	84080e42 	strhi	r0, [r8], #-3650	; 0xfffff1be
 340:	00018e02 	andeq	r8, r1, r2, lsl #28
 344:	0000000c 	andeq	r0, r0, ip
 348:	ffffffff 			; <UNDEFINED> instruction: 0xffffffff
 34c:	7c020001 	stcvc	0, cr0, [r2], {1}
 350:	000d0c0e 	andeq	r0, sp, lr, lsl #24
 354:	00000014 	andeq	r0, r0, r4, lsl r0
 358:	00000344 	andeq	r0, r0, r4, asr #6
 35c:	00008e1c 	andeq	r8, r0, ip, lsl lr
 360:	00000034 	andeq	r0, r0, r4, lsr r0
 364:	8e040e42 	cdphi	14, 0, cr0, cr4, cr2, {2}
 368:	00000001 	andeq	r0, r0, r1
 36c:	0000000c 	andeq	r0, r0, ip
 370:	ffffffff 			; <UNDEFINED> instruction: 0xffffffff
 374:	7c020001 	stcvc	0, cr0, [r2], {1}
 378:	000d0c0e 	andeq	r0, sp, lr, lsl #24
 37c:	0000000c 	andeq	r0, r0, ip
 380:	0000036c 	andeq	r0, r0, ip, ror #6
 384:	00008e50 	andeq	r8, r0, r0, asr lr
 388:	00000060 	andeq	r0, r0, r0, rrx
 38c:	0000000c 	andeq	r0, r0, ip
 390:	ffffffff 			; <UNDEFINED> instruction: 0xffffffff
 394:	7c020001 	stcvc	0, cr0, [r2], {1}
 398:	000d0c0e 	andeq	r0, sp, lr, lsl #24
 39c:	0000000c 	andeq	r0, r0, ip
 3a0:	0000038c 	andeq	r0, r0, ip, lsl #7
 3a4:	00008eb0 			; <UNDEFINED> instruction: 0x00008eb0
 3a8:	00000018 	andeq	r0, r0, r8, lsl r0
 3ac:	0000000c 	andeq	r0, r0, ip
 3b0:	ffffffff 			; <UNDEFINED> instruction: 0xffffffff
 3b4:	7c020001 	stcvc	0, cr0, [r2], {1}
 3b8:	000d0c0e 	andeq	r0, sp, lr, lsl #24
 3bc:	00000034 	andeq	r0, r0, r4, lsr r0
 3c0:	000003ac 	andeq	r0, r0, ip, lsr #7
 3c4:	00008ec8 	andeq	r8, r0, r8, asr #29
 3c8:	00000058 	andeq	r0, r0, r8, asr r0
 3cc:	80100e42 	andshi	r0, r0, r2, asr #28
 3d0:	82038104 	andhi	r8, r3, #1
 3d4:	42018302 	andmi	r8, r1, #134217728	; 0x8000000
 3d8:	07841c0e 	streq	r1, [r4, lr, lsl #24]
 3dc:	058e0685 	streq	r0, [lr, #1669]	; 0x685
 3e0:	5c280e42 	stcpl	14, cr0, [r8], #-264	; 0xfffffef8
 3e4:	ce421c0e 	cdpgt	12, 4, cr1, cr2, cr14, {0}
 3e8:	100ec4c5 	andne	ip, lr, r5, asr #9
 3ec:	c1c2c342 	bicgt	ip, r2, r2, asr #6
 3f0:	00000ec0 	andeq	r0, r0, r0, asr #29
 3f4:	0000000c 	andeq	r0, r0, ip
 3f8:	ffffffff 			; <UNDEFINED> instruction: 0xffffffff
 3fc:	7c020001 	stcvc	0, cr0, [r2], {1}
 400:	000d0c0e 	andeq	r0, sp, lr, lsl #24
 404:	00000014 	andeq	r0, r0, r4, lsl r0
 408:	000003f4 	strdeq	r0, [r0], -r4
 40c:	00008f20 	andeq	r8, r0, r0, lsr #30
 410:	00000034 	andeq	r0, r0, r4, lsr r0
 414:	84080e42 	strhi	r0, [r8], #-3650	; 0xfffff1be
 418:	00018e02 	andeq	r8, r1, r2, lsl #28
 41c:	0000000c 	andeq	r0, r0, ip
 420:	ffffffff 			; <UNDEFINED> instruction: 0xffffffff
 424:	7c020001 	stcvc	0, cr0, [r2], {1}
 428:	000d0c0e 	andeq	r0, sp, lr, lsl #24
 42c:	0000000c 	andeq	r0, r0, ip
 430:	0000041c 	andeq	r0, r0, ip, lsl r4
 434:	00008f54 	andeq	r8, r0, r4, asr pc
 438:	00000014 	andeq	r0, r0, r4, lsl r0
 43c:	0000000c 	andeq	r0, r0, ip
 440:	0000041c 	andeq	r0, r0, ip, lsl r4
 444:	00008f68 	andeq	r8, r0, r8, ror #30
 448:	00000024 	andeq	r0, r0, r4, lsr #32
 44c:	0000000c 	andeq	r0, r0, ip
 450:	0000041c 	andeq	r0, r0, ip, lsl r4
 454:	00008f8c 	andeq	r8, r0, ip, lsl #31
 458:	00000038 	andeq	r0, r0, r8, lsr r0
 45c:	00000024 	andeq	r0, r0, r4, lsr #32
 460:	0000041c 	andeq	r0, r0, ip, lsl r4
 464:	00008fc4 	andeq	r8, r0, r4, asr #31
 468:	000001b4 			; <UNDEFINED> instruction: 0x000001b4
 46c:	84140e42 	ldrhi	r0, [r4], #-3650	; 0xfffff1be
 470:	86048505 	strhi	r8, [r4], -r5, lsl #10
 474:	8e028703 	cdphi	7, 0, cr8, cr2, cr3, {0}
 478:	600e4201 	andvs	r4, lr, r1, lsl #4
 47c:	0e0a9a02 	vmlaeq.f32	s18, s20, s4
 480:	000b4214 	andeq	r4, fp, r4, lsl r2
 484:	00000014 	andeq	r0, r0, r4, lsl r0
 488:	0000041c 	andeq	r0, r0, ip, lsl r4
 48c:	00009178 	andeq	r9, r0, r8, ror r1
 490:	00000064 	andeq	r0, r0, r4, rrx
 494:	8e040e54 	mcrhi	14, 0, r0, cr4, cr4, {2}
 498:	100e4201 	andne	r4, lr, r1, lsl #4
 49c:	0000002c 	andeq	r0, r0, ip, lsr #32
 4a0:	0000041c 	andeq	r0, r0, ip, lsl r4
 4a4:	000091dc 	ldrdeq	r9, [r0], -ip
 4a8:	000004b8 			; <UNDEFINED> instruction: 0x000004b8
 4ac:	84240e42 	strthi	r0, [r4], #-3650	; 0xfffff1be
 4b0:	86088509 	strhi	r8, [r8], -r9, lsl #10
 4b4:	88068707 	stmdahi	r6, {r0, r1, r2, r8, r9, sl, pc}
 4b8:	8a048905 	bhi	1228d4 <__bss_end__+0x117acc>
 4bc:	8e028b03 	vmlahi.f64	d8, d2, d3
 4c0:	b80e4201 	stmdalt	lr, {r0, r9, lr}
 4c4:	02380302 	eorseq	r0, r8, #134217728	; 0x8000000
 4c8:	0000240e 	andeq	r2, r0, lr, lsl #8
 4cc:	0000000c 	andeq	r0, r0, ip
 4d0:	ffffffff 			; <UNDEFINED> instruction: 0xffffffff
 4d4:	7c020001 	stcvc	0, cr0, [r2], {1}
 4d8:	000d0c0e 	andeq	r0, sp, lr, lsl #24
 4dc:	00000014 	andeq	r0, r0, r4, lsl r0
 4e0:	000004cc 	andeq	r0, r0, ip, asr #9
 4e4:	00009694 	muleq	r0, r4, r6
 4e8:	0000002c 	andeq	r0, r0, ip, lsr #32
 4ec:	84080e42 	strhi	r0, [r8], #-3650	; 0xfffff1be
 4f0:	00018e02 	andeq	r8, r1, r2, lsl #28
 4f4:	0000000c 	andeq	r0, r0, ip
 4f8:	ffffffff 			; <UNDEFINED> instruction: 0xffffffff
 4fc:	7c020001 	stcvc	0, cr0, [r2], {1}
 500:	000d0c0e 	andeq	r0, sp, lr, lsl #24
 504:	00000014 	andeq	r0, r0, r4, lsl r0
 508:	000004f4 	strdeq	r0, [r0], -r4
 50c:	000096c0 	andeq	r9, r0, r0, asr #13
 510:	0000003c 	andeq	r0, r0, ip, lsr r0
 514:	84080e42 	strhi	r0, [r8], #-3650	; 0xfffff1be
 518:	00018e02 	andeq	r8, r1, r2, lsl #28
 51c:	0000000c 	andeq	r0, r0, ip
 520:	ffffffff 			; <UNDEFINED> instruction: 0xffffffff
 524:	7c020001 	stcvc	0, cr0, [r2], {1}
 528:	000d0c0e 	andeq	r0, sp, lr, lsl #24
 52c:	0000000c 	andeq	r0, r0, ip
 530:	0000051c 	andeq	r0, r0, ip, lsl r5
 534:	000096fc 	strdeq	r9, [r0], -ip
 538:	00000004 	andeq	r0, r0, r4
 53c:	0000000c 	andeq	r0, r0, ip
 540:	ffffffff 			; <UNDEFINED> instruction: 0xffffffff
 544:	7c020001 	stcvc	0, cr0, [r2], {1}
 548:	000d0c0e 	andeq	r0, sp, lr, lsl #24
 54c:	0000000c 	andeq	r0, r0, ip
 550:	0000053c 	andeq	r0, r0, ip, lsr r5
 554:	00009700 	andeq	r9, r0, r0, lsl #14
 558:	00000018 	andeq	r0, r0, r8, lsl r0
 55c:	0000000c 	andeq	r0, r0, ip
 560:	0000053c 	andeq	r0, r0, ip, lsr r5
 564:	00009718 	andeq	r9, r0, r8, lsl r7
 568:	00000014 	andeq	r0, r0, r4, lsl r0
 56c:	00000014 	andeq	r0, r0, r4, lsl r0
 570:	0000053c 	andeq	r0, r0, ip, lsr r5
 574:	0000972c 	andeq	r9, r0, ip, lsr #14
 578:	00000054 	andeq	r0, r0, r4, asr r0
 57c:	84080e42 	strhi	r0, [r8], #-3650	; 0xfffff1be
 580:	00018e02 	andeq	r8, r1, r2, lsl #28
 584:	0000000c 	andeq	r0, r0, ip
 588:	ffffffff 			; <UNDEFINED> instruction: 0xffffffff
 58c:	7c020001 	stcvc	0, cr0, [r2], {1}
 590:	000d0c0e 	andeq	r0, sp, lr, lsl #24
 594:	00000014 	andeq	r0, r0, r4, lsl r0
 598:	00000584 	andeq	r0, r0, r4, lsl #11
 59c:	00009780 	andeq	r9, r0, r0, lsl #15
 5a0:	00000014 	andeq	r0, r0, r4, lsl r0
 5a4:	84080e42 	strhi	r0, [r8], #-3650	; 0xfffff1be
 5a8:	00018e02 	andeq	r8, r1, r2, lsl #28
 5ac:	00000014 	andeq	r0, r0, r4, lsl r0
 5b0:	00000584 	andeq	r0, r0, r4, lsl #11
 5b4:	00009794 	muleq	r0, r4, r7
 5b8:	0000001c 	andeq	r0, r0, ip, lsl r0
 5bc:	84080e42 	strhi	r0, [r8], #-3650	; 0xfffff1be
 5c0:	00018e02 	andeq	r8, r1, r2, lsl #28
 5c4:	00000018 	andeq	r0, r0, r8, lsl r0
 5c8:	00000584 	andeq	r0, r0, r4, lsl #11
 5cc:	000097b0 			; <UNDEFINED> instruction: 0x000097b0
 5d0:	00000024 	andeq	r0, r0, r4, lsr #32
 5d4:	84100e42 	ldrhi	r0, [r0], #-3650	; 0xfffff1be
 5d8:	86038504 	strhi	r8, [r3], -r4, lsl #10
 5dc:	00018e02 	andeq	r8, r1, r2, lsl #28
 5e0:	00000014 	andeq	r0, r0, r4, lsl r0
 5e4:	00000584 	andeq	r0, r0, r4, lsl #11
 5e8:	000097d4 	ldrdeq	r9, [r0], -r4
 5ec:	00000018 	andeq	r0, r0, r8, lsl r0
 5f0:	84080e42 	strhi	r0, [r8], #-3650	; 0xfffff1be
 5f4:	00018e02 	andeq	r8, r1, r2, lsl #28
 5f8:	00000014 	andeq	r0, r0, r4, lsl r0
 5fc:	00000584 	andeq	r0, r0, r4, lsl #11
 600:	000097ec 	andeq	r9, r0, ip, ror #15
 604:	00000018 	andeq	r0, r0, r8, lsl r0
 608:	84080e42 	strhi	r0, [r8], #-3650	; 0xfffff1be
 60c:	00018e02 	andeq	r8, r1, r2, lsl #28
 610:	0000000c 	andeq	r0, r0, ip
 614:	ffffffff 			; <UNDEFINED> instruction: 0xffffffff
 618:	7c020001 	stcvc	0, cr0, [r2], {1}
 61c:	000d0c0e 	andeq	r0, sp, lr, lsl #24
 620:	00000018 	andeq	r0, r0, r8, lsl r0
 624:	00000610 	andeq	r0, r0, r0, lsl r6
 628:	00009804 	andeq	r9, r0, r4, lsl #16
 62c:	00000020 	andeq	r0, r0, r0, lsr #32
 630:	84100e42 	ldrhi	r0, [r0], #-3650	; 0xfffff1be
 634:	86038504 	strhi	r8, [r3], -r4, lsl #10
 638:	00018e02 	andeq	r8, r1, r2, lsl #28
 63c:	00000018 	andeq	r0, r0, r8, lsl r0
 640:	00000610 	andeq	r0, r0, r0, lsl r6
 644:	00009824 	andeq	r9, r0, r4, lsr #16
 648:	00000020 	andeq	r0, r0, r0, lsr #32
 64c:	84100e42 	ldrhi	r0, [r0], #-3650	; 0xfffff1be
 650:	86038504 	strhi	r8, [r3], -r4, lsl #10
 654:	00018e02 	andeq	r8, r1, r2, lsl #28
 658:	00000014 	andeq	r0, r0, r4, lsl r0
 65c:	00000610 	andeq	r0, r0, r0, lsl r6
 660:	00009844 	andeq	r9, r0, r4, asr #16
 664:	000000b0 	strheq	r0, [r0], -r0	; <UNPREDICTABLE>
 668:	84080e42 	strhi	r0, [r8], #-3650	; 0xfffff1be
 66c:	00018e02 	andeq	r8, r1, r2, lsl #28
 670:	00000014 	andeq	r0, r0, r4, lsl r0
 674:	00000610 	andeq	r0, r0, r0, lsl r6
 678:	000098f4 	strdeq	r9, [r0], -r4
 67c:	00000018 	andeq	r0, r0, r8, lsl r0
 680:	84080e42 	strhi	r0, [r8], #-3650	; 0xfffff1be
 684:	00018e02 	andeq	r8, r1, r2, lsl #28
 688:	00000014 	andeq	r0, r0, r4, lsl r0
 68c:	00000610 	andeq	r0, r0, r0, lsl r6
 690:	0000990c 	andeq	r9, r0, ip, lsl #18
 694:	00000020 	andeq	r0, r0, r0, lsr #32
 698:	84080e42 	strhi	r0, [r8], #-3650	; 0xfffff1be
 69c:	00018e02 	andeq	r8, r1, r2, lsl #28
 6a0:	00000014 	andeq	r0, r0, r4, lsl r0
 6a4:	00000610 	andeq	r0, r0, r0, lsl r6
 6a8:	0000992c 	andeq	r9, r0, ip, lsr #18
 6ac:	00000030 	andeq	r0, r0, r0, lsr r0
 6b0:	84080e42 	strhi	r0, [r8], #-3650	; 0xfffff1be
 6b4:	00018e02 	andeq	r8, r1, r2, lsl #28
 6b8:	00000014 	andeq	r0, r0, r4, lsl r0
 6bc:	00000610 	andeq	r0, r0, r0, lsl r6
 6c0:	0000995c 	andeq	r9, r0, ip, asr r9
 6c4:	00000030 	andeq	r0, r0, r0, lsr r0
 6c8:	84080e42 	strhi	r0, [r8], #-3650	; 0xfffff1be
 6cc:	00018e02 	andeq	r8, r1, r2, lsl #28
 6d0:	00000014 	andeq	r0, r0, r4, lsl r0
 6d4:	00000610 	andeq	r0, r0, r0, lsl r6
 6d8:	0000998c 	andeq	r9, r0, ip, lsl #19
 6dc:	00000010 	andeq	r0, r0, r0, lsl r0
 6e0:	84080e42 	strhi	r0, [r8], #-3650	; 0xfffff1be
 6e4:	00018e02 	andeq	r8, r1, r2, lsl #28
 6e8:	00000014 	andeq	r0, r0, r4, lsl r0
 6ec:	00000610 	andeq	r0, r0, r0, lsl r6
 6f0:	0000999c 	muleq	r0, ip, r9
 6f4:	00000020 	andeq	r0, r0, r0, lsr #32
 6f8:	84080e42 	strhi	r0, [r8], #-3650	; 0xfffff1be
 6fc:	00018e02 	andeq	r8, r1, r2, lsl #28
 700:	00000014 	andeq	r0, r0, r4, lsl r0
 704:	00000610 	andeq	r0, r0, r0, lsl r6
 708:	000099bc 			; <UNDEFINED> instruction: 0x000099bc
 70c:	00000014 	andeq	r0, r0, r4, lsl r0
 710:	84080e42 	strhi	r0, [r8], #-3650	; 0xfffff1be
 714:	00018e02 	andeq	r8, r1, r2, lsl #28
 718:	00000014 	andeq	r0, r0, r4, lsl r0
 71c:	00000610 	andeq	r0, r0, r0, lsl r6
 720:	000099d0 	ldrdeq	r9, [r0], -r0
 724:	00000024 	andeq	r0, r0, r4, lsr #32
 728:	84080e42 	strhi	r0, [r8], #-3650	; 0xfffff1be
 72c:	00018e02 	andeq	r8, r1, r2, lsl #28
 730:	0000000c 	andeq	r0, r0, ip
 734:	ffffffff 			; <UNDEFINED> instruction: 0xffffffff
 738:	7c020001 	stcvc	0, cr0, [r2], {1}
 73c:	000d0c0e 	andeq	r0, sp, lr, lsl #24
 740:	0000000c 	andeq	r0, r0, ip
 744:	00000730 	andeq	r0, r0, r0, lsr r7
 748:	000099f4 	strdeq	r9, [r0], -r4
 74c:	00000010 	andeq	r0, r0, r0, lsl r0
 750:	0000000c 	andeq	r0, r0, ip
 754:	00000730 	andeq	r0, r0, r0, lsr r7
 758:	00009a04 	andeq	r9, r0, r4, lsl #20
 75c:	00000010 	andeq	r0, r0, r0, lsl r0
 760:	0000000c 	andeq	r0, r0, ip
 764:	00000730 	andeq	r0, r0, r0, lsr r7
 768:	00009a14 	andeq	r9, r0, r4, lsl sl
 76c:	00000010 	andeq	r0, r0, r0, lsl r0
 770:	0000001c 	andeq	r0, r0, ip, lsl r0
 774:	00000730 	andeq	r0, r0, r0, lsr r7
 778:	00009a24 	andeq	r9, r0, r4, lsr #20
 77c:	0000009c 	muleq	r0, ip, r0
 780:	8e040e42 	cdphi	14, 0, cr0, cr4, cr2, {2}
 784:	100e4201 	andne	r4, lr, r1, lsl #4
 788:	040e0a58 	streq	r0, [lr], #-2648	; 0xfffff5a8
 78c:	00000b42 	andeq	r0, r0, r2, asr #22
 790:	00000014 	andeq	r0, r0, r4, lsl r0
 794:	00000730 	andeq	r0, r0, r0, lsr r7
 798:	00009ac0 	andeq	r9, r0, r0, asr #21
 79c:	00000058 	andeq	r0, r0, r8, asr r0
 7a0:	84080e42 	strhi	r0, [r8], #-3650	; 0xfffff1be
 7a4:	00018e02 	andeq	r8, r1, r2, lsl #28
 7a8:	0000001c 	andeq	r0, r0, ip, lsl r0
 7ac:	00000730 	andeq	r0, r0, r0, lsr r7
 7b0:	00009b18 	andeq	r9, r0, r8, lsl fp
 7b4:	00000098 	muleq	r0, r8, r0
 7b8:	8e040e42 	cdphi	14, 0, cr0, cr4, cr2, {2}
 7bc:	100e4201 	andne	r4, lr, r1, lsl #4
 7c0:	040e0a58 	streq	r0, [lr], #-2648	; 0xfffff5a8
 7c4:	00000b42 	andeq	r0, r0, r2, asr #22
 7c8:	00000020 	andeq	r0, r0, r0, lsr #32
 7cc:	00000730 	andeq	r0, r0, r0, lsr r7
 7d0:	00009bb0 			; <UNDEFINED> instruction: 0x00009bb0
 7d4:	00000064 	andeq	r0, r0, r4, rrx
 7d8:	840c0e42 	strhi	r0, [ip], #-3650	; 0xfffff1be
 7dc:	8e028503 	cfsh32hi	mvfx8, mvfx2, #3
 7e0:	180e4201 	stmdane	lr, {r0, r9, lr}
 7e4:	0c0e0a54 			; <UNDEFINED> instruction: 0x0c0e0a54
 7e8:	00000b42 	andeq	r0, r0, r2, asr #22
 7ec:	0000001c 	andeq	r0, r0, ip, lsl r0
 7f0:	00000730 	andeq	r0, r0, r0, lsr r7
 7f4:	00009c14 	andeq	r9, r0, r4, lsl ip
 7f8:	00000118 	andeq	r0, r0, r8, lsl r1
 7fc:	8e040e42 	cdphi	14, 0, cr0, cr4, cr2, {2}
 800:	100e4201 	andne	r4, lr, r1, lsl #4
 804:	040e0a6c 	streq	r0, [lr], #-2668	; 0xfffff594
 808:	00000b42 	andeq	r0, r0, r2, asr #22
 80c:	0000000c 	andeq	r0, r0, ip
 810:	00000730 	andeq	r0, r0, r0, lsr r7
 814:	00009d2c 	andeq	r9, r0, ip, lsr #26
 818:	00000004 	andeq	r0, r0, r4
 81c:	0000000c 	andeq	r0, r0, ip
 820:	00000730 	andeq	r0, r0, r0, lsr r7
 824:	00009d30 	andeq	r9, r0, r0, lsr sp
 828:	00000014 	andeq	r0, r0, r4, lsl r0
 82c:	00000014 	andeq	r0, r0, r4, lsl r0
 830:	00000730 	andeq	r0, r0, r0, lsr r7
 834:	00009d44 	andeq	r9, r0, r4, asr #26
 838:	00000060 	andeq	r0, r0, r0, rrx
 83c:	8e040e58 	mcrhi	14, 0, r0, cr4, cr8, {2}
 840:	100e4201 	andne	r4, lr, r1, lsl #4
 844:	0000000c 	andeq	r0, r0, ip
 848:	ffffffff 			; <UNDEFINED> instruction: 0xffffffff
 84c:	7c020001 	stcvc	0, cr0, [r2], {1}
 850:	000d0c0e 	andeq	r0, sp, lr, lsl #24
 854:	00000014 	andeq	r0, r0, r4, lsl r0
 858:	00000844 	andeq	r0, r0, r4, asr #16
 85c:	00009da4 	andeq	r9, r0, r4, lsr #27
 860:	00000014 	andeq	r0, r0, r4, lsl r0
 864:	84080e42 	strhi	r0, [r8], #-3650	; 0xfffff1be
 868:	00018e02 	andeq	r8, r1, r2, lsl #28
 86c:	0000000c 	andeq	r0, r0, ip
 870:	00000844 	andeq	r0, r0, r4, asr #16
 874:	00009db8 			; <UNDEFINED> instruction: 0x00009db8
 878:	00000018 	andeq	r0, r0, r8, lsl r0
 87c:	0000000c 	andeq	r0, r0, ip
 880:	00000844 	andeq	r0, r0, r4, asr #16
 884:	00009dd0 	ldrdeq	r9, [r0], -r0
 888:	00000010 	andeq	r0, r0, r0, lsl r0
 88c:	0000000c 	andeq	r0, r0, ip
 890:	ffffffff 			; <UNDEFINED> instruction: 0xffffffff
 894:	7c020001 	stcvc	0, cr0, [r2], {1}
 898:	000d0c0e 	andeq	r0, sp, lr, lsl #24
 89c:	0000000c 	andeq	r0, r0, ip
 8a0:	0000088c 	andeq	r0, r0, ip, lsl #17
 8a4:	00009de0 	andeq	r9, r0, r0, ror #27
 8a8:	00000034 	andeq	r0, r0, r4, lsr r0
 8ac:	0000000c 	andeq	r0, r0, ip
 8b0:	ffffffff 			; <UNDEFINED> instruction: 0xffffffff
 8b4:	7c020001 	stcvc	0, cr0, [r2], {1}
 8b8:	000d0c0e 	andeq	r0, sp, lr, lsl #24
 8bc:	0000000c 	andeq	r0, r0, ip
 8c0:	000008ac 	andeq	r0, r0, ip, lsr #17
 8c4:	00009e14 	andeq	r9, r0, r4, lsl lr
 8c8:	0000002c 	andeq	r0, r0, ip, lsr #32
 8cc:	0000000c 	andeq	r0, r0, ip
 8d0:	ffffffff 			; <UNDEFINED> instruction: 0xffffffff
 8d4:	7c020001 	stcvc	0, cr0, [r2], {1}
 8d8:	000d0c0e 	andeq	r0, sp, lr, lsl #24
 8dc:	0000000c 	andeq	r0, r0, ip
 8e0:	000008cc 	andeq	r0, r0, ip, asr #17
 8e4:	00009e40 	andeq	r9, r0, r0, asr #28
 8e8:	00000020 	andeq	r0, r0, r0, lsr #32
 8ec:	0000000c 	andeq	r0, r0, ip
 8f0:	ffffffff 			; <UNDEFINED> instruction: 0xffffffff
 8f4:	7c020001 	stcvc	0, cr0, [r2], {1}
 8f8:	000d0c0e 	andeq	r0, sp, lr, lsl #24
 8fc:	0000000c 	andeq	r0, r0, ip
 900:	000008ec 	andeq	r0, r0, ip, ror #17
 904:	00009e60 	andeq	r9, r0, r0, ror #28
 908:	0000002c 	andeq	r0, r0, ip, lsr #32
 90c:	0000000c 	andeq	r0, r0, ip
 910:	ffffffff 			; <UNDEFINED> instruction: 0xffffffff
 914:	7c020001 	stcvc	0, cr0, [r2], {1}
 918:	000d0c0e 	andeq	r0, sp, lr, lsl #24
 91c:	0000000c 	andeq	r0, r0, ip
 920:	0000090c 	andeq	r0, r0, ip, lsl #18
 924:	00009e8c 	andeq	r9, r0, ip, lsl #29
 928:	00000004 	andeq	r0, r0, r4
 92c:	0000000c 	andeq	r0, r0, ip
 930:	ffffffff 			; <UNDEFINED> instruction: 0xffffffff
 934:	7c020001 	stcvc	0, cr0, [r2], {1}
 938:	000d0c0e 	andeq	r0, sp, lr, lsl #24
 93c:	00000018 	andeq	r0, r0, r8, lsl r0
 940:	0000092c 	andeq	r0, r0, ip, lsr #18
 944:	00009ea8 	andeq	r9, r0, r8, lsr #29
 948:	00000064 	andeq	r0, r0, r4, rrx
 94c:	84100e46 	ldrhi	r0, [r0], #-3654	; 0xfffff1ba
 950:	86038504 	strhi	r8, [r3], -r4, lsl #10
 954:	00018e02 	andeq	r8, r1, r2, lsl #28
 958:	00000014 	andeq	r0, r0, r4, lsl r0
 95c:	0000092c 	andeq	r0, r0, ip, lsr #18
 960:	00009f0c 	andeq	r9, r0, ip, lsl #30
 964:	00000010 	andeq	r0, r0, r0, lsl r0
 968:	84080e42 	strhi	r0, [r8], #-3650	; 0xfffff1be
 96c:	00018e02 	andeq	r8, r1, r2, lsl #28
 970:	00000014 	andeq	r0, r0, r4, lsl r0
 974:	0000092c 	andeq	r0, r0, ip, lsr #18
 978:	00009f1c 	andeq	r9, r0, ip, lsl pc
 97c:	00000024 	andeq	r0, r0, r4, lsr #32
 980:	84080e46 	strhi	r0, [r8], #-3654	; 0xfffff1ba
 984:	00018e02 	andeq	r8, r1, r2, lsl #28
 988:	00000014 	andeq	r0, r0, r4, lsl r0
 98c:	0000092c 	andeq	r0, r0, ip, lsr #18
 990:	00009f40 	andeq	r9, r0, r0, asr #30
 994:	00000024 	andeq	r0, r0, r4, lsr #32
 998:	84080e46 	strhi	r0, [r8], #-3654	; 0xfffff1ba
 99c:	00018e02 	andeq	r8, r1, r2, lsl #28
 9a0:	00000014 	andeq	r0, r0, r4, lsl r0
 9a4:	0000092c 	andeq	r0, r0, ip, lsr #18
 9a8:	00009f64 	andeq	r9, r0, r4, ror #30
 9ac:	00000010 	andeq	r0, r0, r0, lsl r0
 9b0:	84080e42 	strhi	r0, [r8], #-3650	; 0xfffff1be
 9b4:	00018e02 	andeq	r8, r1, r2, lsl #28
 9b8:	00000014 	andeq	r0, r0, r4, lsl r0
 9bc:	0000092c 	andeq	r0, r0, ip, lsr #18
 9c0:	00009f74 	andeq	r9, r0, r4, ror pc
 9c4:	0000001c 	andeq	r0, r0, ip, lsl r0
 9c8:	84080e42 	strhi	r0, [r8], #-3650	; 0xfffff1be
 9cc:	00018e02 	andeq	r8, r1, r2, lsl #28
 9d0:	00000018 	andeq	r0, r0, r8, lsl r0
 9d4:	0000092c 	andeq	r0, r0, ip, lsr #18
 9d8:	00009f90 	muleq	r0, r0, pc	; <UNPREDICTABLE>
 9dc:	00000034 	andeq	r0, r0, r4, lsr r0
 9e0:	84080e46 	strhi	r0, [r8], #-3654	; 0xfffff1ba
 9e4:	4e018e02 	cdpmi	14, 0, cr8, cr1, cr2, {0}
 9e8:	cec4000e 	cdpgt	0, 12, cr0, cr4, cr14, {0}

Disassembly of section .debug_ranges:

00000000 <.debug_ranges>:
   0:	00000010 	andeq	r0, r0, r0, lsl r0
   4:	00000028 	andeq	r0, r0, r8, lsr #32
   8:	00000040 	andeq	r0, r0, r0, asr #32
   c:	00000074 	andeq	r0, r0, r4, ror r0
	...
  18:	000001fc 	strdeq	r0, [r0], -ip
  1c:	00000224 	andeq	r0, r0, r4, lsr #4
  20:	00000228 	andeq	r0, r0, r8, lsr #4
  24:	0000022c 	andeq	r0, r0, ip, lsr #4
  28:	00000234 	andeq	r0, r0, r4, lsr r2
  2c:	00000238 	andeq	r0, r0, r8, lsr r2
	...
  38:	0000006c 	andeq	r0, r0, ip, rrx
  3c:	00000118 	andeq	r0, r0, r8, lsl r1
  40:	00000120 	andeq	r0, r0, r0, lsr #2
  44:	00000150 	andeq	r0, r0, r0, asr r1
	...
  50:	000002bc 			; <UNDEFINED> instruction: 0x000002bc
  54:	000002c0 	andeq	r0, r0, r0, asr #5
  58:	00000320 	andeq	r0, r0, r0, lsr #6
  5c:	000003a8 	andeq	r0, r0, r8, lsr #7
	...
  68:	00000320 	andeq	r0, r0, r0, lsr #6
  6c:	00000338 	andeq	r0, r0, r8, lsr r3
  70:	00000344 	andeq	r0, r0, r4, asr #6
  74:	000003a8 	andeq	r0, r0, r8, lsr #7
	...
  80:	00000320 	andeq	r0, r0, r0, lsr #6
  84:	00000338 	andeq	r0, r0, r8, lsr r3
  88:	00000364 	andeq	r0, r0, r4, ror #6
  8c:	000003a8 	andeq	r0, r0, r8, lsr #7
	...
  98:	00009700 	andeq	r9, r0, r0, lsl #14
  9c:	00009780 	andeq	r9, r0, r0, lsl #15
	...
  a8:	00000134 	andeq	r0, r0, r4, lsr r1
  ac:	00000134 	andeq	r0, r0, r4, lsr r1
  b0:	00000134 	andeq	r0, r0, r4, lsr r1
  b4:	0000013c 	andeq	r0, r0, ip, lsr r1
	...
  c0:	0000024c 	andeq	r0, r0, ip, asr #4
  c4:	00000264 	andeq	r0, r0, r4, ror #4
  c8:	000002c8 	andeq	r0, r0, r8, asr #5
  cc:	000002e8 	andeq	r0, r0, r8, ror #5
	...
  d8:	00009e60 	andeq	r9, r0, r0, ror #28
  dc:	00009e8c 	andeq	r9, r0, ip, lsl #29
	...
