
tests-3.0/part1-test5-no-bug.elf:     file format elf32-littlearm


Disassembly of section .text:

00008000 <__code_start__>:
    8000:	e3a00013 	mov	r0, #19, 0
    8004:	e3800080 	orr	r0, r0, #128, 0	; 0x80
    8008:	e129f000 	msr	CPSR_fc, r0
    800c:	e3a01000 	mov	r1, #0, 0
    8010:	ee071f95 	mcr	15, 0, r1, cr7, cr5, {4}
    8014:	e3a0d302 	mov	sp, #134217728	; 0x8000000
    8018:	e3a0b000 	mov	fp, #0, 0
    801c:	eb0005c7 	bl	9740 <_cstart>
    8020:	eb0005e1 	bl	97ac <rpi_reboot>

00008024 <PUT32>:
    8024:	e5801000 	str	r1, [r0]
    8028:	e12fff1e 	bx	lr

0000802c <GET32>:
    802c:	e5900000 	ldr	r0, [r0]
    8030:	e12fff1e 	bx	lr

00008034 <BRANCHTO>:
    8034:	e12fff10 	bx	r0

00008038 <notmain>:
    8038:	e92d40f0 	push	{r4, r5, r6, r7, lr}
    803c:	e24dd034 	sub	sp, sp, #52, 0	; 0x34
    8040:	e59f00d4 	ldr	r0, [pc, #212]	; 811c <notmain+0xe4>
    8044:	eb0003a8 	bl	8eec <printk>
    8048:	eb0003d5 	bl	8fa4 <rpi_rand32>
    804c:	e59f50cc 	ldr	r5, [pc, #204]	; 8120 <notmain+0xe8>
    8050:	e58d5000 	str	r5, [sp]
    8054:	e59f40c8 	ldr	r4, [pc, #200]	; 8124 <notmain+0xec>
    8058:	e58d4004 	str	r4, [sp, #4]
    805c:	e3a03008 	mov	r3, #8, 0
    8060:	e58d3008 	str	r3, [sp, #8]
    8064:	e1a0300d 	mov	r3, sp
    8068:	e893000e 	ldm	r3, {r1, r2, r3}
    806c:	e1a00b00 	lsl	r0, r0, #22
    8070:	e1a00b20 	lsr	r0, r0, #22
    8074:	eb000141 	bl	8580 <ckalloc>
    8078:	e1a07000 	mov	r7, r0
    807c:	eb0003c8 	bl	8fa4 <rpi_rand32>
    8080:	e58d500c 	str	r5, [sp, #12]
    8084:	e58d4010 	str	r4, [sp, #16]
    8088:	e3a03009 	mov	r3, #9, 0
    808c:	e58d3014 	str	r3, [sp, #20]
    8090:	e28d300c 	add	r3, sp, #12, 0
    8094:	e893000e 	ldm	r3, {r1, r2, r3}
    8098:	e1a00b00 	lsl	r0, r0, #22
    809c:	e1a00b20 	lsr	r0, r0, #22
    80a0:	eb000136 	bl	8580 <ckalloc>
    80a4:	e1a06000 	mov	r6, r0
    80a8:	e58d5018 	str	r5, [sp, #24]
    80ac:	e58d401c 	str	r4, [sp, #28]
    80b0:	e3a0300a 	mov	r3, #10, 0
    80b4:	e58d3020 	str	r3, [sp, #32]
    80b8:	e28d3018 	add	r3, sp, #24, 0
    80bc:	e893000e 	ldm	r3, {r1, r2, r3}
    80c0:	e1a00007 	mov	r0, r7
    80c4:	eb0000d1 	bl	8410 <ckfree>
    80c8:	e58d5024 	str	r5, [sp, #36]	; 0x24
    80cc:	e58d4028 	str	r4, [sp, #40]	; 0x28
    80d0:	e3a0300b 	mov	r3, #11, 0
    80d4:	e58d302c 	str	r3, [sp, #44]	; 0x2c
    80d8:	e28d3030 	add	r3, sp, #48, 0	; 0x30
    80dc:	e913000e 	ldmdb	r3, {r1, r2, r3}
    80e0:	e1a00006 	mov	r0, r6
    80e4:	eb0000c9 	bl	8410 <ckfree>
    80e8:	eb00009f 	bl	836c <ck_heap_errors>
    80ec:	e3500000 	cmp	r0, #0, 0
    80f0:	1a000003 	bne	8104 <notmain+0xcc>
    80f4:	e59f002c 	ldr	r0, [pc, #44]	; 8128 <notmain+0xf0>
    80f8:	eb00037b 	bl	8eec <printk>
    80fc:	e28dd034 	add	sp, sp, #52, 0	; 0x34
    8100:	e8bd80f0 	pop	{r4, r5, r6, r7, pc}
    8104:	e3a0300e 	mov	r3, #14, 0
    8108:	e1a02004 	mov	r2, r4
    810c:	e1a01005 	mov	r1, r5
    8110:	e59f0014 	ldr	r0, [pc, #20]	; 812c <notmain+0xf4>
    8114:	eb000374 	bl	8eec <printk>
    8118:	eb00057d 	bl	9714 <clean_reboot>
    811c:	0000a048 	andeq	sl, r0, r8, asr #32
    8120:	0000a068 	andeq	sl, r0, r8, rrx
    8124:	0000a0cc 	andeq	sl, r0, ip, asr #1
    8128:	0000a0ac 	andeq	sl, r0, ip, lsr #1
    812c:	0000a088 	andeq	sl, r0, r8, lsl #1

00008130 <list_append>:
    8130:	e59f3058 	ldr	r3, [pc, #88]	; 8190 <list_append+0x60>
    8134:	e5933000 	ldr	r3, [r3]
    8138:	e3530000 	cmp	r3, #0, 0
    813c:	0a000005 	beq	8158 <list_append+0x28>
    8140:	e3500000 	cmp	r0, #0, 0
    8144:	0a000007 	beq	8168 <list_append+0x38>
    8148:	e59f2040 	ldr	r2, [pc, #64]	; 8190 <list_append+0x60>
    814c:	e5821000 	str	r1, [r2]
    8150:	e5831000 	str	r1, [r3]
    8154:	e12fff1e 	bx	lr
    8158:	e59f3030 	ldr	r3, [pc, #48]	; 8190 <list_append+0x60>
    815c:	e5831004 	str	r1, [r3, #4]
    8160:	e5831000 	str	r1, [r3]
    8164:	e12fff1e 	bx	lr
    8168:	e52de004 	push	{lr}		; (str lr, [sp, #-4]!)
    816c:	e24dd00c 	sub	sp, sp, #12, 0
    8170:	e59f301c 	ldr	r3, [pc, #28]	; 8194 <list_append+0x64>
    8174:	e58d3000 	str	r3, [sp]
    8178:	e3a03025 	mov	r3, #37, 0	; 0x25
    817c:	e59f2014 	ldr	r2, [pc, #20]	; 8198 <list_append+0x68>
    8180:	e59f1014 	ldr	r1, [pc, #20]	; 819c <list_append+0x6c>
    8184:	e59f0014 	ldr	r0, [pc, #20]	; 81a0 <list_append+0x70>
    8188:	eb000357 	bl	8eec <printk>
    818c:	eb000560 	bl	9714 <clean_reboot>
    8190:	0000aa40 	andeq	sl, r0, r0, asr #20
    8194:	0000a0f4 	strdeq	sl, [r0], -r4
    8198:	0000a2c8 	andeq	sl, r0, r8, asr #5
    819c:	0000a0d4 	ldrdeq	sl, [r0], -r4
    81a0:	0000a0e0 	andeq	sl, r0, r0, ror #1

000081a4 <ck_first_hdr>:
    81a4:	e59f3004 	ldr	r3, [pc, #4]	; 81b0 <ck_first_hdr+0xc>
    81a8:	e5930004 	ldr	r0, [r3, #4]
    81ac:	e12fff1e 	bx	lr
    81b0:	0000aa40 	andeq	sl, r0, r0, asr #20

000081b4 <ck_next_hdr>:
    81b4:	e3500000 	cmp	r0, #0, 0
    81b8:	012fff1e 	bxeq	lr
    81bc:	e5900000 	ldr	r0, [r0]
    81c0:	e12fff1e 	bx	lr

000081c4 <ck_hdr_start>:
    81c4:	e28000a8 	add	r0, r0, #168, 0	; 0xa8
    81c8:	e12fff1e 	bx	lr

000081cc <ck_hdr_end>:
    81cc:	e92d4010 	push	{r4, lr}
    81d0:	e1a04000 	mov	r4, r0
    81d4:	ebfffffa 	bl	81c4 <ck_hdr_start>
    81d8:	e5943004 	ldr	r3, [r4, #4]
    81dc:	e0800003 	add	r0, r0, r3
    81e0:	e8bd8010 	pop	{r4, pc}

000081e4 <ck_ptr_in_block>:
    81e4:	e5903004 	ldr	r3, [r0, #4]
    81e8:	e28330a8 	add	r3, r3, #168, 0	; 0xa8
    81ec:	e0803003 	add	r3, r0, r3
    81f0:	e1530001 	cmp	r3, r1
    81f4:	3a000004 	bcc	820c <ck_ptr_in_block+0x28>
    81f8:	e28000a8 	add	r0, r0, #168, 0	; 0xa8
    81fc:	e1500001 	cmp	r0, r1
    8200:	9a000003 	bls	8214 <ck_ptr_in_block+0x30>
    8204:	e3a00000 	mov	r0, #0, 0
    8208:	e12fff1e 	bx	lr
    820c:	e3a00000 	mov	r0, #0, 0
    8210:	e12fff1e 	bx	lr
    8214:	e3a00001 	mov	r0, #1, 0
    8218:	e12fff1e 	bx	lr

0000821c <ck_ptr_to_hdr>:
    821c:	e92d4070 	push	{r4, r5, r6, lr}
    8220:	e1a05000 	mov	r5, r0
    8224:	ebffffde 	bl	81a4 <ck_first_hdr>
    8228:	e1a04000 	mov	r4, r0
    822c:	e3540000 	cmp	r4, #0, 0
    8230:	0a00000c 	beq	8268 <ck_ptr_to_hdr+0x4c>
    8234:	e1a01005 	mov	r1, r5
    8238:	e1a00004 	mov	r0, r4
    823c:	ebffffe8 	bl	81e4 <ck_ptr_in_block>
    8240:	e3500000 	cmp	r0, #0, 0
    8244:	1a000003 	bne	8258 <ck_ptr_to_hdr+0x3c>
    8248:	e1a00004 	mov	r0, r4
    824c:	ebffffd8 	bl	81b4 <ck_next_hdr>
    8250:	e1a04000 	mov	r4, r0
    8254:	eafffff4 	b	822c <ck_ptr_to_hdr+0x10>
    8258:	e1a02004 	mov	r2, r4
    825c:	e1a01005 	mov	r1, r5
    8260:	e59f0008 	ldr	r0, [pc, #8]	; 8270 <ck_ptr_to_hdr+0x54>
    8264:	eb000320 	bl	8eec <printk>
    8268:	e1a00004 	mov	r0, r4
    826c:	e8bd8070 	pop	{r4, r5, r6, pc}
    8270:	0000a0f8 	strdeq	sl, [r0], -r8

00008274 <ck_ptr_is_alloced>:
    8274:	e92d4070 	push	{r4, r5, r6, lr}
    8278:	e1a05000 	mov	r5, r0
    827c:	ebffffc8 	bl	81a4 <ck_first_hdr>
    8280:	e1a04000 	mov	r4, r0
    8284:	ea000002 	b	8294 <ck_ptr_is_alloced+0x20>
    8288:	e1a00004 	mov	r0, r4
    828c:	ebffffc8 	bl	81b4 <ck_next_hdr>
    8290:	e1a04000 	mov	r4, r0
    8294:	e3540000 	cmp	r4, #0, 0
    8298:	0a00000b 	beq	82cc <ck_ptr_is_alloced+0x58>
    829c:	e1a01005 	mov	r1, r5
    82a0:	e1a00004 	mov	r0, r4
    82a4:	ebffffce 	bl	81e4 <ck_ptr_in_block>
    82a8:	e3500000 	cmp	r0, #0, 0
    82ac:	0afffff5 	beq	8288 <ck_ptr_is_alloced+0x14>
    82b0:	e5943008 	ldr	r3, [r4, #8]
    82b4:	e353000b 	cmp	r3, #11, 0
    82b8:	1afffff2 	bne	8288 <ck_ptr_is_alloced+0x14>
    82bc:	e1a02004 	mov	r2, r4
    82c0:	e1a01005 	mov	r1, r5
    82c4:	e59f0008 	ldr	r0, [pc, #8]	; 82d4 <ck_ptr_is_alloced+0x60>
    82c8:	eb000307 	bl	8eec <printk>
    82cc:	e1a00004 	mov	r0, r4
    82d0:	e8bd8070 	pop	{r4, r5, r6, pc}
    82d4:	0000a110 	andeq	sl, r0, r0, lsl r1

000082d8 <ck_check_redzones>:
    82d8:	e92d4070 	push	{r4, r5, r6, lr}
    82dc:	e1a05000 	mov	r5, r0
    82e0:	e1a04001 	mov	r4, r1
    82e4:	ebffffb8 	bl	81cc <ck_hdr_end>
    82e8:	e1a06000 	mov	r6, r0
    82ec:	e3a02080 	mov	r2, #128, 0	; 0x80
    82f0:	e1a01004 	mov	r1, r4
    82f4:	e2850028 	add	r0, r5, #40, 0	; 0x28
    82f8:	eb0002d0 	bl	8e40 <memcmp>
    82fc:	e1a05000 	mov	r5, r0
    8300:	e3a02080 	mov	r2, #128, 0	; 0x80
    8304:	e1a01004 	mov	r1, r4
    8308:	e1a00006 	mov	r0, r6
    830c:	eb0002cb 	bl	8e40 <memcmp>
    8310:	e1953000 	orrs	r3, r5, r0
    8314:	13a00001 	movne	r0, #1, 0
    8318:	03a00000 	moveq	r0, #0, 0
    831c:	e8bd8070 	pop	{r4, r5, r6, pc}

00008320 <ck_check_udata>:
    8320:	e5903008 	ldr	r3, [r0, #8]
    8324:	e353000c 	cmp	r3, #12, 0
    8328:	1a00000b 	bne	835c <ck_check_udata+0x3c>
    832c:	e3a03000 	mov	r3, #0, 0
    8330:	e5902004 	ldr	r2, [r0, #4]
    8334:	e1520003 	cmp	r2, r3
    8338:	9a000005 	bls	8354 <ck_check_udata+0x34>
    833c:	e0802003 	add	r2, r0, r3
    8340:	e5d220a8 	ldrb	r2, [r2, #168]	; 0xa8
    8344:	e35200fe 	cmp	r2, #254, 0	; 0xfe
    8348:	1a000005 	bne	8364 <ck_check_udata+0x44>
    834c:	e2833001 	add	r3, r3, #1, 0
    8350:	eafffff6 	b	8330 <ck_check_udata+0x10>
    8354:	e3a00000 	mov	r0, #0, 0
    8358:	e12fff1e 	bx	lr
    835c:	e3a00000 	mov	r0, #0, 0
    8360:	e12fff1e 	bx	lr
    8364:	e3a00001 	mov	r0, #1, 0
    8368:	e12fff1e 	bx	lr

0000836c <ck_heap_errors>:
    836c:	e92d4070 	push	{r4, r5, r6, lr}
    8370:	e24dd080 	sub	sp, sp, #128, 0	; 0x80
    8374:	e59f0088 	ldr	r0, [pc, #136]	; 8404 <ck_heap_errors+0x98>
    8378:	eb0002db 	bl	8eec <printk>
    837c:	ebffff88 	bl	81a4 <ck_first_hdr>
    8380:	e1a04000 	mov	r4, r0
    8384:	e3a02080 	mov	r2, #128, 0	; 0x80
    8388:	e2801028 	add	r1, r0, #40, 0	; 0x28
    838c:	e1a0000d 	mov	r0, sp
    8390:	eb0002b7 	bl	8e74 <memcpy>
    8394:	e1a06000 	mov	r6, r0
    8398:	e3a05000 	mov	r5, #0, 0
    839c:	ea000009 	b	83c8 <ck_heap_errors+0x5c>
    83a0:	e59f0060 	ldr	r0, [pc, #96]	; 8408 <ck_heap_errors+0x9c>
    83a4:	eb0002d0 	bl	8eec <printk>
    83a8:	e2855001 	add	r5, r5, #1, 0
    83ac:	ea00000c 	b	83e4 <ck_heap_errors+0x78>
    83b0:	e59f0054 	ldr	r0, [pc, #84]	; 840c <ck_heap_errors+0xa0>
    83b4:	eb0002cc 	bl	8eec <printk>
    83b8:	e2855001 	add	r5, r5, #1, 0
    83bc:	e1a00004 	mov	r0, r4
    83c0:	ebffff7b 	bl	81b4 <ck_next_hdr>
    83c4:	e1a04000 	mov	r4, r0
    83c8:	e3540000 	cmp	r4, #0, 0
    83cc:	0a000009 	beq	83f8 <ck_heap_errors+0x8c>
    83d0:	e1a01006 	mov	r1, r6
    83d4:	e1a00004 	mov	r0, r4
    83d8:	ebffffbe 	bl	82d8 <ck_check_redzones>
    83dc:	e3500000 	cmp	r0, #0, 0
    83e0:	1affffee 	bne	83a0 <ck_heap_errors+0x34>
    83e4:	e1a00004 	mov	r0, r4
    83e8:	ebffffcc 	bl	8320 <ck_check_udata>
    83ec:	e3500000 	cmp	r0, #0, 0
    83f0:	0afffff1 	beq	83bc <ck_heap_errors+0x50>
    83f4:	eaffffed 	b	83b0 <ck_heap_errors+0x44>
    83f8:	e1a00005 	mov	r0, r5
    83fc:	e28dd080 	add	sp, sp, #128, 0	; 0x80
    8400:	e8bd8070 	pop	{r4, r5, r6, pc}
    8404:	0000a130 	andeq	sl, r0, r0, lsr r1
    8408:	0000a154 	andeq	sl, r0, r4, asr r1
    840c:	0000a178 	andeq	sl, r0, r8, ror r1

00008410 <ckfree>:
    8410:	e92d4030 	push	{r4, r5, lr}
    8414:	e24dd09c 	sub	sp, sp, #156, 0	; 0x9c
    8418:	e1a04000 	mov	r4, r0
    841c:	e28d000c 	add	r0, sp, #12, 0
    8420:	e880000e 	stm	r0, {r1, r2, r3}
    8424:	e51430a0 	ldr	r3, [r4, #-160]	; 0xffffff60
    8428:	e353000b 	cmp	r3, #11, 0
    842c:	1a000018 	bne	8494 <ckfree+0x84>
    8430:	e24450a8 	sub	r5, r4, #168, 0	; 0xa8
    8434:	e59d3014 	ldr	r3, [sp, #20]
    8438:	e59d2010 	ldr	r2, [sp, #16]
    843c:	e59d100c 	ldr	r1, [sp, #12]
    8440:	e59f0110 	ldr	r0, [pc, #272]	; 8558 <ckfree+0x148>
    8444:	eb0002a8 	bl	8eec <printk>
    8448:	e1a02004 	mov	r2, r4
    844c:	e514109c 	ldr	r1, [r4, #-156]	; 0xffffff64
    8450:	e59f0104 	ldr	r0, [pc, #260]	; 855c <ckfree+0x14c>
    8454:	eb0002a4 	bl	8eec <printk>
    8458:	e1a00004 	mov	r0, r4
    845c:	ebffff84 	bl	8274 <ck_ptr_is_alloced>
    8460:	e3500000 	cmp	r0, #0, 0
    8464:	0a000013 	beq	84b8 <ckfree+0xa8>
    8468:	e3a0300c 	mov	r3, #12, 0
    846c:	e50430a0 	str	r3, [r4, #-160]	; 0xffffff60
    8470:	e3a03000 	mov	r3, #0, 0
    8474:	e353007f 	cmp	r3, #127, 0	; 0x7f
    8478:	8a000016 	bhi	84d8 <ckfree+0xc8>
    847c:	e28d2098 	add	r2, sp, #152, 0	; 0x98
    8480:	e0822003 	add	r2, r2, r3
    8484:	e3e01001 	mvn	r1, #1, 0
    8488:	e5421080 	strb	r1, [r2, #-128]	; 0xffffff80
    848c:	e2833001 	add	r3, r3, #1, 0
    8490:	eafffff7 	b	8474 <ckfree+0x64>
    8494:	e59d3014 	ldr	r3, [sp, #20]
    8498:	e59d2010 	ldr	r2, [sp, #16]
    849c:	e59f00bc 	ldr	r0, [pc, #188]	; 8560 <ckfree+0x150>
    84a0:	eb000291 	bl	8eec <printk>
    84a4:	e51420a0 	ldr	r2, [r4, #-160]	; 0xffffff60
    84a8:	e1a01004 	mov	r1, r4
    84ac:	e59f00b0 	ldr	r0, [pc, #176]	; 8564 <ckfree+0x154>
    84b0:	eb00028d 	bl	8eec <printk>
    84b4:	eb000496 	bl	9714 <clean_reboot>
    84b8:	e59f30a8 	ldr	r3, [pc, #168]	; 8568 <ckfree+0x158>
    84bc:	e58d3000 	str	r3, [sp]
    84c0:	e3a03097 	mov	r3, #151, 0	; 0x97
    84c4:	e59f20a0 	ldr	r2, [pc, #160]	; 856c <ckfree+0x15c>
    84c8:	e59f10a0 	ldr	r1, [pc, #160]	; 8570 <ckfree+0x160>
    84cc:	e59f00a0 	ldr	r0, [pc, #160]	; 8574 <ckfree+0x164>
    84d0:	eb000285 	bl	8eec <printk>
    84d4:	eb00048e 	bl	9714 <clean_reboot>
    84d8:	e28d1018 	add	r1, sp, #24, 0
    84dc:	e1a00005 	mov	r0, r5
    84e0:	ebffff7c 	bl	82d8 <ck_check_redzones>
    84e4:	e3500000 	cmp	r0, #0, 0
    84e8:	1a000009 	bne	8514 <ckfree+0x104>
    84ec:	e51420a4 	ldr	r2, [r4, #-164]	; 0xffffff5c
    84f0:	e3a010fe 	mov	r1, #254, 0	; 0xfe
    84f4:	e1a00004 	mov	r0, r4
    84f8:	eb000275 	bl	8ed4 <memset>
    84fc:	e1a00004 	mov	r0, r4
    8500:	ebffff5b 	bl	8274 <ck_ptr_is_alloced>
    8504:	e3500000 	cmp	r0, #0, 0
    8508:	1a00000a 	bne	8538 <ckfree+0x128>
    850c:	e28dd09c 	add	sp, sp, #156, 0	; 0x9c
    8510:	e8bd8030 	pop	{r4, r5, pc}
    8514:	e58d5004 	str	r5, [sp, #4]
    8518:	e514309c 	ldr	r3, [r4, #-156]	; 0xffffff64
    851c:	e58d3000 	str	r3, [sp]
    8520:	e3a0309f 	mov	r3, #159, 0	; 0x9f
    8524:	e59f2040 	ldr	r2, [pc, #64]	; 856c <ckfree+0x15c>
    8528:	e59f1040 	ldr	r1, [pc, #64]	; 8570 <ckfree+0x160>
    852c:	e59f0044 	ldr	r0, [pc, #68]	; 8578 <ckfree+0x168>
    8530:	eb00026d 	bl	8eec <printk>
    8534:	eb000476 	bl	9714 <clean_reboot>
    8538:	e59f303c 	ldr	r3, [pc, #60]	; 857c <ckfree+0x16c>
    853c:	e58d3000 	str	r3, [sp]
    8540:	e3a030a2 	mov	r3, #162, 0	; 0xa2
    8544:	e59f2020 	ldr	r2, [pc, #32]	; 856c <ckfree+0x15c>
    8548:	e59f1020 	ldr	r1, [pc, #32]	; 8570 <ckfree+0x160>
    854c:	e59f0020 	ldr	r0, [pc, #32]	; 8574 <ckfree+0x164>
    8550:	eb000265 	bl	8eec <printk>
    8554:	eb00046e 	bl	9714 <clean_reboot>
    8558:	0000a1e4 	andeq	sl, r0, r4, ror #3
    855c:	0000a1f0 	strdeq	sl, [r0], -r0
    8560:	0000a198 	muleq	r0, r8, r1
    8564:	0000a1b0 			; <UNDEFINED> instruction: 0x0000a1b0
    8568:	0000a210 	andeq	sl, r0, r0, lsl r2
    856c:	0000a2d4 	ldrdeq	sl, [r0], -r4
    8570:	0000a0d4 	ldrdeq	sl, [r0], -r4
    8574:	0000a0e0 	andeq	sl, r0, r0, ror #1
    8578:	0000a230 	andeq	sl, r0, r0, lsr r2
    857c:	0000a288 	andeq	sl, r0, r8, lsl #5

00008580 <ckalloc>:
    8580:	e92d4070 	push	{r4, r5, r6, lr}
    8584:	e24dd010 	sub	sp, sp, #16, 0
    8588:	e1a06000 	mov	r6, r0
    858c:	e28d5004 	add	r5, sp, #4, 0
    8590:	e885000e 	stm	r5, {r1, r2, r3}
    8594:	e2800f4a 	add	r0, r0, #296	; 0x128
    8598:	eb0001fd 	bl	8d94 <kr_malloc>
    859c:	e1a04000 	mov	r4, r0
    85a0:	e3a020a8 	mov	r2, #168, 0	; 0xa8
    85a4:	e3a01000 	mov	r1, #0, 0
    85a8:	eb000249 	bl	8ed4 <memset>
    85ac:	e3a02080 	mov	r2, #128, 0	; 0x80
    85b0:	e3a010fe 	mov	r1, #254, 0	; 0xfe
    85b4:	e2840028 	add	r0, r4, #40, 0	; 0x28
    85b8:	eb000245 	bl	8ed4 <memset>
    85bc:	e5846004 	str	r6, [r4, #4]
    85c0:	e3a0300b 	mov	r3, #11, 0
    85c4:	e5843008 	str	r3, [r4, #8]
    85c8:	e2843010 	add	r3, r4, #16, 0
    85cc:	e8950007 	ldm	r5, {r0, r1, r2}
    85d0:	e8830007 	stm	r3, {r0, r1, r2}
    85d4:	e3a03000 	mov	r3, #0, 0
    85d8:	e5843000 	str	r3, [r4]
    85dc:	e1c432b4 	strh	r3, [r4, #36]	; 0x24
    85e0:	e1a00004 	mov	r0, r4
    85e4:	ebfffef8 	bl	81cc <ck_hdr_end>
    85e8:	e3a02080 	mov	r2, #128, 0	; 0x80
    85ec:	e3a010fe 	mov	r1, #254, 0	; 0xfe
    85f0:	eb000237 	bl	8ed4 <memset>
    85f4:	e59f2050 	ldr	r2, [pc, #80]	; 864c <ckalloc+0xcc>
    85f8:	e5923000 	ldr	r3, [r2]
    85fc:	e584300c 	str	r3, [r4, #12]
    8600:	e2833001 	add	r3, r3, #1, 0
    8604:	e5823000 	str	r3, [r2]
    8608:	e59d300c 	ldr	r3, [sp, #12]
    860c:	e59d2008 	ldr	r2, [sp, #8]
    8610:	e59d1004 	ldr	r1, [sp, #4]
    8614:	e59f0034 	ldr	r0, [pc, #52]	; 8650 <ckalloc+0xd0>
    8618:	eb000233 	bl	8eec <printk>
    861c:	e28450a8 	add	r5, r4, #168, 0	; 0xa8
    8620:	e1a02005 	mov	r2, r5
    8624:	e594100c 	ldr	r1, [r4, #12]
    8628:	e59f0024 	ldr	r0, [pc, #36]	; 8654 <ckalloc+0xd4>
    862c:	eb00022e 	bl	8eec <printk>
    8630:	e1a01004 	mov	r1, r4
    8634:	e59f301c 	ldr	r3, [pc, #28]	; 8658 <ckalloc+0xd8>
    8638:	e5930004 	ldr	r0, [r3, #4]
    863c:	ebfffebb 	bl	8130 <list_append>
    8640:	e1a00005 	mov	r0, r5
    8644:	e28dd010 	add	sp, sp, #16, 0
    8648:	e8bd8070 	pop	{r4, r5, r6, pc}
    864c:	0000aa24 	andeq	sl, r0, r4, lsr #20
    8650:	0000a1e4 	andeq	sl, r0, r4, ror #3
    8654:	0000a2a4 	andeq	sl, r0, r4, lsr #5
    8658:	0000aa40 	andeq	sl, r0, r0, asr #20

0000865c <in_heap>:
    865c:	e59f3030 	ldr	r3, [pc, #48]	; 8694 <in_heap+0x38>
    8660:	e5933000 	ldr	r3, [r3]
    8664:	e1530000 	cmp	r3, r0
    8668:	8a000005 	bhi	8684 <in_heap+0x28>
    866c:	e59f3020 	ldr	r3, [pc, #32]	; 8694 <in_heap+0x38>
    8670:	e5933004 	ldr	r3, [r3, #4]
    8674:	e1530000 	cmp	r3, r0
    8678:	9a000003 	bls	868c <in_heap+0x30>
    867c:	e3a00001 	mov	r0, #1, 0
    8680:	e12fff1e 	bx	lr
    8684:	e3a00000 	mov	r0, #0, 0
    8688:	e12fff1e 	bx	lr
    868c:	e3a00000 	mov	r0, #0, 0
    8690:	e12fff1e 	bx	lr
    8694:	0000aa48 	andeq	sl, r0, r8, asr #20

00008698 <sweep_leak>:
    8698:	e92d41f0 	push	{r4, r5, r6, r7, r8, lr}
    869c:	e1a06000 	mov	r6, r0
    86a0:	e59f0144 	ldr	r0, [pc, #324]	; 87ec <sweep_leak+0x154>
    86a4:	eb000210 	bl	8eec <printk>
    86a8:	e59f0140 	ldr	r0, [pc, #320]	; 87f0 <sweep_leak+0x158>
    86ac:	eb00020e 	bl	8eec <printk>
    86b0:	ebfffebb 	bl	81a4 <ck_first_hdr>
    86b4:	e1a04000 	mov	r4, r0
    86b8:	e3a07000 	mov	r7, #0, 0
    86bc:	e1a08007 	mov	r8, r7
    86c0:	e1a05007 	mov	r5, r7
    86c4:	ea00002a 	b	8774 <sweep_leak+0xdc>
    86c8:	e3a00000 	mov	r0, #0, 0
    86cc:	e351000b 	cmp	r1, #11, 0
    86d0:	0a00000f 	beq	8714 <sweep_leak+0x7c>
    86d4:	e1130000 	tst	r3, r0
    86d8:	1a000018 	bne	8740 <sweep_leak+0xa8>
    86dc:	e3560000 	cmp	r6, #0, 0
    86e0:	1a00001b 	bne	8754 <sweep_leak+0xbc>
    86e4:	e5943020 	ldr	r3, [r4, #32]
    86e8:	e3530000 	cmp	r3, #0, 0
    86ec:	0a000018 	beq	8754 <sweep_leak+0xbc>
    86f0:	e351000b 	cmp	r1, #11, 0
    86f4:	0a000016 	beq	8754 <sweep_leak+0xbc>
    86f8:	e1a01004 	mov	r1, r4
    86fc:	e59f00f0 	ldr	r0, [pc, #240]	; 87f4 <sweep_leak+0x15c>
    8700:	eb0001f9 	bl	8eec <printk>
    8704:	e2877001 	add	r7, r7, #1, 0
    8708:	ea000011 	b	8754 <sweep_leak+0xbc>
    870c:	e3a00001 	mov	r0, #1, 0
    8710:	eaffffed 	b	86cc <sweep_leak+0x34>
    8714:	e1d4c2b4 	ldrh	ip, [r4, #36]	; 0x24
    8718:	e35c0000 	cmp	ip, #0, 0
    871c:	1affffec 	bne	86d4 <sweep_leak+0x3c>
    8720:	e5943020 	ldr	r3, [r4, #32]
    8724:	e1a01004 	mov	r1, r4
    8728:	e59f00c8 	ldr	r0, [pc, #200]	; 87f8 <sweep_leak+0x160>
    872c:	eb0001ee 	bl	8eec <printk>
    8730:	e3a03001 	mov	r3, #1, 0
    8734:	e1c432b6 	strh	r3, [r4, #38]	; 0x26
    8738:	e0888003 	add	r8, r8, r3
    873c:	ea000004 	b	8754 <sweep_leak+0xbc>
    8740:	e5943020 	ldr	r3, [r4, #32]
    8744:	e1a01004 	mov	r1, r4
    8748:	e59f00ac 	ldr	r0, [pc, #172]	; 87fc <sweep_leak+0x164>
    874c:	eb0001e6 	bl	8eec <printk>
    8750:	e2877001 	add	r7, r7, #1, 0
    8754:	e5943020 	ldr	r3, [r4, #32]
    8758:	e594201c 	ldr	r2, [r4, #28]
    875c:	e1a01004 	mov	r1, r4
    8760:	e59f0098 	ldr	r0, [pc, #152]	; 8800 <sweep_leak+0x168>
    8764:	eb0001e0 	bl	8eec <printk>
    8768:	e1a00004 	mov	r0, r4
    876c:	ebfffe90 	bl	81b4 <ck_next_hdr>
    8770:	e1a04000 	mov	r4, r0
    8774:	e3540000 	cmp	r4, #0, 0
    8778:	0a00000b 	beq	87ac <sweep_leak+0x114>
    877c:	e2855001 	add	r5, r5, #1, 0
    8780:	e5941008 	ldr	r1, [r4, #8]
    8784:	e351000b 	cmp	r1, #11, 0
    8788:	13a03000 	movne	r3, #0, 0
    878c:	03a03001 	moveq	r3, #1, 0
    8790:	e594201c 	ldr	r2, [r4, #28]
    8794:	e3520000 	cmp	r2, #0, 0
    8798:	1affffca 	bne	86c8 <sweep_leak+0x30>
    879c:	e3560000 	cmp	r6, #0, 0
    87a0:	1affffd9 	bne	870c <sweep_leak+0x74>
    87a4:	e3a00000 	mov	r0, #0, 0
    87a8:	eaffffc7 	b	86cc <sweep_leak+0x34>
    87ac:	e1a01005 	mov	r1, r5
    87b0:	e59f004c 	ldr	r0, [pc, #76]	; 8804 <sweep_leak+0x16c>
    87b4:	eb0001cc 	bl	8eec <printk>
    87b8:	e1983007 	orrs	r3, r8, r7
    87bc:	1a000005 	bne	87d8 <sweep_leak+0x140>
    87c0:	e59f0040 	ldr	r0, [pc, #64]	; 8808 <sweep_leak+0x170>
    87c4:	eb0001c8 	bl	8eec <printk>
    87c8:	e59f003c 	ldr	r0, [pc, #60]	; 880c <sweep_leak+0x174>
    87cc:	eb0001c6 	bl	8eec <printk>
    87d0:	e0880007 	add	r0, r8, r7
    87d4:	e8bd81f0 	pop	{r4, r5, r6, r7, r8, pc}
    87d8:	e1a02007 	mov	r2, r7
    87dc:	e1a01008 	mov	r1, r8
    87e0:	e59f0028 	ldr	r0, [pc, #40]	; 8810 <sweep_leak+0x178>
    87e4:	eb0001c0 	bl	8eec <printk>
    87e8:	eafffff6 	b	87c8 <sweep_leak+0x130>
    87ec:	0000a2dc 	ldrdeq	sl, [r0], -ip
    87f0:	0000a318 	andeq	sl, r0, r8, lsl r3
    87f4:	0000a3a0 	andeq	sl, r0, r0, lsr #7
    87f8:	0000a330 	andeq	sl, r0, r0, lsr r3
    87fc:	0000a368 	andeq	sl, r0, r8, ror #6
    8800:	0000a3d8 	ldrdeq	sl, [r0], -r8
    8804:	0000a414 	andeq	sl, r0, r4, lsl r4
    8808:	0000a434 	andeq	sl, r0, r4, lsr r4
    880c:	0000a48c 	andeq	sl, r0, ip, lsl #9
    8810:	0000a45c 	andeq	sl, r0, ip, asr r4

00008814 <sweep_free>:
    8814:	e92d41f0 	push	{r4, r5, r6, r7, r8, lr}
    8818:	e59f0094 	ldr	r0, [pc, #148]	; 88b4 <sweep_free+0xa0>
    881c:	eb0001b2 	bl	8eec <printk>
    8820:	e59f0090 	ldr	r0, [pc, #144]	; 88b8 <sweep_free+0xa4>
    8824:	eb0001b0 	bl	8eec <printk>
    8828:	ebfffe5d 	bl	81a4 <ck_first_hdr>
    882c:	e1a04000 	mov	r4, r0
    8830:	e3a06000 	mov	r6, #0, 0
    8834:	e1a07006 	mov	r7, r6
    8838:	e1a05006 	mov	r5, r6
    883c:	ea00000b 	b	8870 <sweep_free+0x5c>
    8840:	e3a0300c 	mov	r3, #12, 0
    8844:	e5843008 	str	r3, [r4, #8]
    8848:	e2877001 	add	r7, r7, #1, 0
    884c:	e5943004 	ldr	r3, [r4, #4]
    8850:	e0866003 	add	r6, r6, r3
    8854:	e1a02004 	mov	r2, r4
    8858:	e594100c 	ldr	r1, [r4, #12]
    885c:	e59f0058 	ldr	r0, [pc, #88]	; 88bc <sweep_free+0xa8>
    8860:	eb0001a1 	bl	8eec <printk>
    8864:	e1a00004 	mov	r0, r4
    8868:	ebfffe51 	bl	81b4 <ck_next_hdr>
    886c:	e1a04000 	mov	r4, r0
    8870:	e3540000 	cmp	r4, #0, 0
    8874:	0a000007 	beq	8898 <sweep_free+0x84>
    8878:	e2855001 	add	r5, r5, #1, 0
    887c:	e5943008 	ldr	r3, [r4, #8]
    8880:	e353000b 	cmp	r3, #11, 0
    8884:	1afffff6 	bne	8864 <sweep_free+0x50>
    8888:	e1d432b4 	ldrh	r3, [r4, #36]	; 0x24
    888c:	e3530001 	cmp	r3, #1, 0
    8890:	0afffff3 	beq	8864 <sweep_free+0x50>
    8894:	eaffffe9 	b	8840 <sweep_free+0x2c>
    8898:	e1a03006 	mov	r3, r6
    889c:	e1a02007 	mov	r2, r7
    88a0:	e1a01005 	mov	r1, r5
    88a4:	e59f0014 	ldr	r0, [pc, #20]	; 88c0 <sweep_free+0xac>
    88a8:	eb00018f 	bl	8eec <printk>
    88ac:	e1a00006 	mov	r0, r6
    88b0:	e8bd81f0 	pop	{r4, r5, r6, r7, r8, pc}
    88b4:	0000a2dc 	ldrdeq	sl, [r0], -ip
    88b8:	0000a4c8 	andeq	sl, r0, r8, asr #9
    88bc:	0000a4d8 	ldrdeq	sl, [r0], -r8
    88c0:	0000a510 	andeq	sl, r0, r0, lsl r5

000088c4 <is_ptr>:
    88c4:	e92d4010 	push	{r4, lr}
    88c8:	e1a04000 	mov	r4, r0
    88cc:	ebffff62 	bl	865c <in_heap>
    88d0:	e3500000 	cmp	r0, #0, 0
    88d4:	0a000002 	beq	88e4 <is_ptr+0x20>
    88d8:	e1a00004 	mov	r0, r4
    88dc:	ebfffe4e 	bl	821c <ck_ptr_to_hdr>
    88e0:	e8bd8010 	pop	{r4, pc}
    88e4:	e3a00000 	mov	r0, #0, 0
    88e8:	e8bd8010 	pop	{r4, pc}

000088ec <mark>:
    88ec:	e92d40f0 	push	{r4, r5, r6, r7, lr}
    88f0:	e24dd00c 	sub	sp, sp, #12, 0
    88f4:	e1500001 	cmp	r0, r1
    88f8:	2a000007 	bcs	891c <mark+0x30>
    88fc:	e1a06000 	mov	r6, r0
    8900:	e3100003 	tst	r0, #3, 0
    8904:	1a00000c 	bne	893c <mark+0x50>
    8908:	e2114003 	ands	r4, r1, #3, 0
    890c:	1a000012 	bne	895c <mark+0x70>
    8910:	e0411000 	sub	r1, r1, r0
    8914:	e1a05141 	asr	r5, r1, #2
    8918:	ea00001e 	b	8998 <mark+0xac>
    891c:	e59f30e8 	ldr	r3, [pc, #232]	; 8a0c <mark+0x120>
    8920:	e58d3000 	str	r3, [sp]
    8924:	e3a0304a 	mov	r3, #74, 0	; 0x4a
    8928:	e59f20e0 	ldr	r2, [pc, #224]	; 8a10 <mark+0x124>
    892c:	e59f10e0 	ldr	r1, [pc, #224]	; 8a14 <mark+0x128>
    8930:	e59f00e0 	ldr	r0, [pc, #224]	; 8a18 <mark+0x12c>
    8934:	eb00016c 	bl	8eec <printk>
    8938:	eb000375 	bl	9714 <clean_reboot>
    893c:	e59f30d8 	ldr	r3, [pc, #216]	; 8a1c <mark+0x130>
    8940:	e58d3000 	str	r3, [sp]
    8944:	e3a0304c 	mov	r3, #76, 0	; 0x4c
    8948:	e59f20c0 	ldr	r2, [pc, #192]	; 8a10 <mark+0x124>
    894c:	e59f10c0 	ldr	r1, [pc, #192]	; 8a14 <mark+0x128>
    8950:	e59f00c0 	ldr	r0, [pc, #192]	; 8a18 <mark+0x12c>
    8954:	eb000164 	bl	8eec <printk>
    8958:	eb00036d 	bl	9714 <clean_reboot>
    895c:	e59f30bc 	ldr	r3, [pc, #188]	; 8a20 <mark+0x134>
    8960:	e58d3000 	str	r3, [sp]
    8964:	e3a0304d 	mov	r3, #77, 0	; 0x4d
    8968:	e59f20a0 	ldr	r2, [pc, #160]	; 8a10 <mark+0x124>
    896c:	e59f10a0 	ldr	r1, [pc, #160]	; 8a14 <mark+0x128>
    8970:	e59f00a0 	ldr	r0, [pc, #160]	; 8a18 <mark+0x12c>
    8974:	eb00015c 	bl	8eec <printk>
    8978:	eb000365 	bl	9714 <clean_reboot>
    897c:	e593201c 	ldr	r2, [r3, #28]
    8980:	e2822001 	add	r2, r2, #1, 0
    8984:	e583201c 	str	r2, [r3, #28]
    8988:	e5931004 	ldr	r1, [r3, #4]
    898c:	e0801001 	add	r1, r0, r1
    8990:	ebffffd5 	bl	88ec <mark>
    8994:	e2844001 	add	r4, r4, #1, 0
    8998:	e1540005 	cmp	r4, r5
    899c:	2a000018 	bcs	8a04 <mark+0x118>
    89a0:	e1a07104 	lsl	r7, r4, #2
    89a4:	e7960104 	ldr	r0, [r6, r4, lsl #2]
    89a8:	ebffffc5 	bl	88c4 <is_ptr>
    89ac:	e2503000 	subs	r3, r0, #0, 0
    89b0:	0afffff7 	beq	8994 <mark+0xa8>
    89b4:	e1d322b4 	ldrh	r2, [r3, #36]	; 0x24
    89b8:	e3520000 	cmp	r2, #0, 0
    89bc:	1afffff4 	bne	8994 <mark+0xa8>
    89c0:	e3a02001 	mov	r2, #1, 0
    89c4:	e1c322b4 	strh	r2, [r3, #36]	; 0x24
    89c8:	e28300a8 	add	r0, r3, #168, 0	; 0xa8
    89cc:	e7962007 	ldr	r2, [r6, r7]
    89d0:	e1500002 	cmp	r0, r2
    89d4:	0affffe8 	beq	897c <mark+0x90>
    89d8:	e28310b0 	add	r1, r3, #176, 0	; 0xb0
    89dc:	e1520001 	cmp	r2, r1
    89e0:	9affffe8 	bls	8988 <mark+0x9c>
    89e4:	e5931004 	ldr	r1, [r3, #4]
    89e8:	e28110b0 	add	r1, r1, #176, 0	; 0xb0
    89ec:	e0831001 	add	r1, r3, r1
    89f0:	e1520001 	cmp	r2, r1
    89f4:	95932020 	ldrls	r2, [r3, #32]
    89f8:	92822001 	addls	r2, r2, #1, 0
    89fc:	95832020 	strls	r2, [r3, #32]
    8a00:	eaffffe0 	b	8988 <mark+0x9c>
    8a04:	e28dd00c 	add	sp, sp, #12, 0
    8a08:	e8bd80f0 	pop	{r4, r5, r6, r7, pc}
    8a0c:	0000a54c 	andeq	sl, r0, ip, asr #10
    8a10:	0000a674 	andeq	sl, r0, r4, ror r6
    8a14:	0000a544 	andeq	sl, r0, r4, asr #10
    8a18:	0000a0e0 	andeq	sl, r0, r0, ror #1
    8a1c:	0000a550 	andeq	sl, r0, r0, asr r5
    8a20:	0000a560 	andeq	sl, r0, r0, ror #10

00008a24 <mark_all>:
    8a24:	e52de004 	push	{lr}		; (str lr, [sp, #-4]!)
    8a28:	e24dd044 	sub	sp, sp, #68, 0	; 0x44
    8a2c:	ebfffddc 	bl	81a4 <ck_first_hdr>
    8a30:	e3500000 	cmp	r0, #0, 0
    8a34:	0a000005 	beq	8a50 <mark_all+0x2c>
    8a38:	e3a03000 	mov	r3, #0, 0
    8a3c:	e5803020 	str	r3, [r0, #32]
    8a40:	e580301c 	str	r3, [r0, #28]
    8a44:	e1c032b4 	strh	r3, [r0, #36]	; 0x24
    8a48:	ebfffdd9 	bl	81b4 <ck_next_hdr>
    8a4c:	eafffff7 	b	8a30 <mark_all+0xc>
    8a50:	e1a0000d 	mov	r0, sp
    8a54:	eb00007d 	bl	8c50 <dump_regs>
    8a58:	e3a03000 	mov	r3, #0, 0
    8a5c:	e58d3000 	str	r3, [sp]
    8a60:	e58d3004 	str	r3, [sp, #4]
    8a64:	e58d3008 	str	r3, [sp, #8]
    8a68:	e58d300c 	str	r3, [sp, #12]
    8a6c:	e28d1040 	add	r1, sp, #64, 0	; 0x40
    8a70:	e1a0000d 	mov	r0, sp
    8a74:	ebffff9c 	bl	88ec <mark>
    8a78:	e3a01302 	mov	r1, #134217728	; 0x8000000
    8a7c:	e59d0034 	ldr	r0, [sp, #52]	; 0x34
    8a80:	ebffff99 	bl	88ec <mark>
    8a84:	e59f1018 	ldr	r1, [pc, #24]	; 8aa4 <mark_all+0x80>
    8a88:	e59f0018 	ldr	r0, [pc, #24]	; 8aa8 <mark_all+0x84>
    8a8c:	ebffff96 	bl	88ec <mark>
    8a90:	e59f1014 	ldr	r1, [pc, #20]	; 8aac <mark_all+0x88>
    8a94:	e59f0014 	ldr	r0, [pc, #20]	; 8ab0 <mark_all+0x8c>
    8a98:	ebffff93 	bl	88ec <mark>
    8a9c:	e28dd044 	add	sp, sp, #68, 0	; 0x44
    8aa0:	e49df004 	pop	{pc}		; (ldr pc, [sp], #4)
    8aa4:	0000ae70 	andeq	sl, r0, r0, ror lr
    8aa8:	0000aa40 	andeq	sl, r0, r0, asr #20
    8aac:	0000aa40 	andeq	sl, r0, r0, asr #20
    8ab0:	0000aa24 	andeq	sl, r0, r4, lsr #20

00008ab4 <sbrk>:
    8ab4:	e92d4030 	push	{r4, r5, lr}
    8ab8:	e24dd00c 	sub	sp, sp, #12, 0
    8abc:	e1a04000 	mov	r4, r0
    8ac0:	e59f0070 	ldr	r0, [pc, #112]	; 8b38 <sbrk+0x84>
    8ac4:	eb000108 	bl	8eec <printk>
    8ac8:	e3540000 	cmp	r4, #0, 0
    8acc:	da000007 	ble	8af0 <sbrk+0x3c>
    8ad0:	e59f3064 	ldr	r3, [pc, #100]	; 8b3c <sbrk+0x88>
    8ad4:	e5933008 	ldr	r3, [r3, #8]
    8ad8:	e3530000 	cmp	r3, #0, 0
    8adc:	0a00000b 	beq	8b10 <sbrk+0x5c>
    8ae0:	e1a00004 	mov	r0, r4
    8ae4:	eb000451 	bl	9c30 <kmalloc>
    8ae8:	e28dd00c 	add	sp, sp, #12, 0
    8aec:	e8bd8030 	pop	{r4, r5, pc}
    8af0:	e59f3048 	ldr	r3, [pc, #72]	; 8b40 <sbrk+0x8c>
    8af4:	e58d3000 	str	r3, [sp]
    8af8:	e3a03015 	mov	r3, #21, 0
    8afc:	e59f2040 	ldr	r2, [pc, #64]	; 8b44 <sbrk+0x90>
    8b00:	e59f1040 	ldr	r1, [pc, #64]	; 8b48 <sbrk+0x94>
    8b04:	e59f0040 	ldr	r0, [pc, #64]	; 8b4c <sbrk+0x98>
    8b08:	eb0000f7 	bl	8eec <printk>
    8b0c:	eb000300 	bl	9714 <clean_reboot>
    8b10:	e59f5024 	ldr	r5, [pc, #36]	; 8b3c <sbrk+0x88>
    8b14:	e3a00601 	mov	r0, #1048576	; 0x100000
    8b18:	e5850000 	str	r0, [r5]
    8b1c:	e3a03602 	mov	r3, #2097152	; 0x200000
    8b20:	e5853004 	str	r3, [r5, #4]
    8b24:	e1a01000 	mov	r1, r0
    8b28:	eb0003dd 	bl	9aa4 <kmalloc_init_set_start>
    8b2c:	e3a03001 	mov	r3, #1, 0
    8b30:	e5853008 	str	r3, [r5, #8]
    8b34:	eaffffe9 	b	8ae0 <sbrk+0x2c>
    8b38:	0000a570 	andeq	sl, r0, r0, ror r5
    8b3c:	0000aa48 	andeq	sl, r0, r8, asr #20
    8b40:	0000a580 	andeq	sl, r0, r0, lsl #11
    8b44:	0000a67c 	andeq	sl, r0, ip, ror r6
    8b48:	0000a544 	andeq	sl, r0, r4, asr #10
    8b4c:	0000a0e0 	andeq	sl, r0, r0, ror #1

00008b50 <ck_find_leaks>:
    8b50:	e92d4010 	push	{r4, lr}
    8b54:	e1a04000 	mov	r4, r0
    8b58:	e59f0018 	ldr	r0, [pc, #24]	; 8b78 <ck_find_leaks+0x28>
    8b5c:	eb0000e2 	bl	8eec <printk>
    8b60:	ebffffaf 	bl	8a24 <mark_all>
    8b64:	e59f0010 	ldr	r0, [pc, #16]	; 8b7c <ck_find_leaks+0x2c>
    8b68:	eb0000df 	bl	8eec <printk>
    8b6c:	e1a00004 	mov	r0, r4
    8b70:	ebfffec8 	bl	8698 <sweep_leak>
    8b74:	e8bd8010 	pop	{r4, pc}
    8b78:	0000a590 	muleq	r0, r0, r5
    8b7c:	0000a5a4 	andeq	sl, r0, r4, lsr #11

00008b80 <check_no_leak>:
    8b80:	e92d4010 	push	{r4, lr}
    8b84:	e3a00001 	mov	r0, #1, 0
    8b88:	ebfffff0 	bl	8b50 <ck_find_leaks>
    8b8c:	e3500000 	cmp	r0, #0, 0
    8b90:	1a000002 	bne	8ba0 <check_no_leak+0x20>
    8b94:	e59f001c 	ldr	r0, [pc, #28]	; 8bb8 <check_no_leak+0x38>
    8b98:	eb0000d3 	bl	8eec <printk>
    8b9c:	e8bd8010 	pop	{r4, pc}
    8ba0:	e3a030d9 	mov	r3, #217, 0	; 0xd9
    8ba4:	e59f2010 	ldr	r2, [pc, #16]	; 8bbc <check_no_leak+0x3c>
    8ba8:	e59f1010 	ldr	r1, [pc, #16]	; 8bc0 <check_no_leak+0x40>
    8bac:	e59f0010 	ldr	r0, [pc, #16]	; 8bc4 <check_no_leak+0x44>
    8bb0:	eb0000cd 	bl	8eec <printk>
    8bb4:	eb0002d6 	bl	9714 <clean_reboot>
    8bb8:	0000a5d8 	ldrdeq	sl, [r0], -r8
    8bbc:	0000a684 	andeq	sl, r0, r4, lsl #13
    8bc0:	0000a544 	andeq	sl, r0, r4, asr #10
    8bc4:	0000a5ac 	andeq	sl, r0, ip, lsr #11

00008bc8 <check_should_leak>:
    8bc8:	e92d4010 	push	{r4, lr}
    8bcc:	e3a00001 	mov	r0, #1, 0
    8bd0:	ebffffde 	bl	8b50 <ck_find_leaks>
    8bd4:	e2504000 	subs	r4, r0, #0, 0
    8bd8:	0a000004 	beq	8bf0 <check_should_leak+0x28>
    8bdc:	e1a01004 	mov	r1, r4
    8be0:	e59f0020 	ldr	r0, [pc, #32]	; 8c08 <check_should_leak+0x40>
    8be4:	eb0000c0 	bl	8eec <printk>
    8be8:	e1a00004 	mov	r0, r4
    8bec:	e8bd8010 	pop	{r4, pc}
    8bf0:	e3a030e7 	mov	r3, #231, 0	; 0xe7
    8bf4:	e59f2010 	ldr	r2, [pc, #16]	; 8c0c <check_should_leak+0x44>
    8bf8:	e59f1010 	ldr	r1, [pc, #16]	; 8c10 <check_should_leak+0x48>
    8bfc:	e59f0010 	ldr	r0, [pc, #16]	; 8c14 <check_should_leak+0x4c>
    8c00:	eb0000b9 	bl	8eec <printk>
    8c04:	eb0002c2 	bl	9714 <clean_reboot>
    8c08:	0000a620 	andeq	sl, r0, r0, lsr #12
    8c0c:	0000a694 	muleq	r0, r4, r6
    8c10:	0000a544 	andeq	sl, r0, r4, asr #10
    8c14:	0000a5f8 	strdeq	sl, [r0], -r8

00008c18 <ck_gc>:
    8c18:	e92d4010 	push	{r4, lr}
    8c1c:	ebffff80 	bl	8a24 <mark_all>
    8c20:	ebfffefb 	bl	8814 <sweep_free>
    8c24:	e8bd8010 	pop	{r4, pc}

00008c28 <implement_this>:
    8c28:	e92d4010 	push	{r4, lr}
    8c2c:	e3a03e11 	mov	r3, #272	; 0x110
    8c30:	e59f200c 	ldr	r2, [pc, #12]	; 8c44 <implement_this+0x1c>
    8c34:	e59f100c 	ldr	r1, [pc, #12]	; 8c48 <implement_this+0x20>
    8c38:	e59f000c 	ldr	r0, [pc, #12]	; 8c4c <implement_this+0x24>
    8c3c:	eb0000aa 	bl	8eec <printk>
    8c40:	eb0002b3 	bl	9714 <clean_reboot>
    8c44:	0000a6a8 	andeq	sl, r0, r8, lsr #13
    8c48:	0000a544 	andeq	sl, r0, r4, asr #10
    8c4c:	0000a644 	andeq	sl, r0, r4, asr #12

00008c50 <dump_regs>:
    8c50:	e5800000 	str	r0, [r0]
    8c54:	e5801004 	str	r1, [r0, #4]
    8c58:	e5802008 	str	r2, [r0, #8]
    8c5c:	e580300c 	str	r3, [r0, #12]
    8c60:	e5804010 	str	r4, [r0, #16]
    8c64:	e5805014 	str	r5, [r0, #20]
    8c68:	e5806018 	str	r6, [r0, #24]
    8c6c:	e580701c 	str	r7, [r0, #28]
    8c70:	e5808020 	str	r8, [r0, #32]
    8c74:	e5809024 	str	r9, [r0, #36]	; 0x24
    8c78:	e580a028 	str	sl, [r0, #40]	; 0x28
    8c7c:	e580b02c 	str	fp, [r0, #44]	; 0x2c
    8c80:	e580c030 	str	ip, [r0, #48]	; 0x30
    8c84:	e580d034 	str	sp, [r0, #52]	; 0x34
    8c88:	e580e038 	str	lr, [r0, #56]	; 0x38
    8c8c:	e580f03c 	str	pc, [r0, #60]	; 0x3c
    8c90:	e12fff1e 	bx	lr

00008c94 <kr_free>:
    8c94:	e52de004 	push	{lr}		; (str lr, [sp, #-4]!)
    8c98:	e2401008 	sub	r1, r0, #8, 0
    8c9c:	e59f30a8 	ldr	r3, [pc, #168]	; 8d4c <kr_free+0xb8>
    8ca0:	e5933000 	ldr	r3, [r3]
    8ca4:	ea000000 	b	8cac <kr_free+0x18>
    8ca8:	e1a03002 	mov	r3, r2
    8cac:	e1530001 	cmp	r3, r1
    8cb0:	2a000002 	bcs	8cc0 <kr_free+0x2c>
    8cb4:	e5932000 	ldr	r2, [r3]
    8cb8:	e1520001 	cmp	r2, r1
    8cbc:	8a000007 	bhi	8ce0 <kr_free+0x4c>
    8cc0:	e5932000 	ldr	r2, [r3]
    8cc4:	e1520003 	cmp	r2, r3
    8cc8:	8afffff6 	bhi	8ca8 <kr_free+0x14>
    8ccc:	e1530001 	cmp	r3, r1
    8cd0:	3a000002 	bcc	8ce0 <kr_free+0x4c>
    8cd4:	e1520001 	cmp	r2, r1
    8cd8:	91a03002 	movls	r3, r2
    8cdc:	9afffff2 	bls	8cac <kr_free+0x18>
    8ce0:	e510c004 	ldr	ip, [r0, #-4]
    8ce4:	e081e18c 	add	lr, r1, ip, lsl #3
    8ce8:	e5932000 	ldr	r2, [r3]
    8cec:	e15e0002 	cmp	lr, r2
    8cf0:	0a000008 	beq	8d18 <kr_free+0x84>
    8cf4:	e5002008 	str	r2, [r0, #-8]
    8cf8:	e5932004 	ldr	r2, [r3, #4]
    8cfc:	e083c182 	add	ip, r3, r2, lsl #3
    8d00:	e15c0001 	cmp	ip, r1
    8d04:	0a00000a 	beq	8d34 <kr_free+0xa0>
    8d08:	e5831000 	str	r1, [r3]
    8d0c:	e59f2038 	ldr	r2, [pc, #56]	; 8d4c <kr_free+0xb8>
    8d10:	e5823000 	str	r3, [r2]
    8d14:	e49df004 	pop	{pc}		; (ldr pc, [sp], #4)
    8d18:	e5922004 	ldr	r2, [r2, #4]
    8d1c:	e08cc002 	add	ip, ip, r2
    8d20:	e500c004 	str	ip, [r0, #-4]
    8d24:	e5932000 	ldr	r2, [r3]
    8d28:	e5922000 	ldr	r2, [r2]
    8d2c:	e5002008 	str	r2, [r0, #-8]
    8d30:	eafffff0 	b	8cf8 <kr_free+0x64>
    8d34:	e5101004 	ldr	r1, [r0, #-4]
    8d38:	e0822001 	add	r2, r2, r1
    8d3c:	e5832004 	str	r2, [r3, #4]
    8d40:	e5102008 	ldr	r2, [r0, #-8]
    8d44:	e5832000 	str	r2, [r3]
    8d48:	eaffffef 	b	8d0c <kr_free+0x78>
    8d4c:	0000aa58 	andeq	sl, r0, r8, asr sl

00008d50 <kr_morecore>:
    8d50:	e92d4010 	push	{r4, lr}
    8d54:	e1a04000 	mov	r4, r0
    8d58:	e3500b01 	cmp	r0, #1024	; 0x400
    8d5c:	33a04b01 	movcc	r4, #1024	; 0x400
    8d60:	e1a00184 	lsl	r0, r4, #3
    8d64:	ebffff52 	bl	8ab4 <sbrk>
    8d68:	e3700001 	cmn	r0, #1, 0
    8d6c:	0a000005 	beq	8d88 <kr_morecore+0x38>
    8d70:	e5804004 	str	r4, [r0, #4]
    8d74:	e2800008 	add	r0, r0, #8, 0
    8d78:	ebffffc5 	bl	8c94 <kr_free>
    8d7c:	e59f300c 	ldr	r3, [pc, #12]	; 8d90 <kr_morecore+0x40>
    8d80:	e5930000 	ldr	r0, [r3]
    8d84:	e8bd8010 	pop	{r4, pc}
    8d88:	e3a00000 	mov	r0, #0, 0
    8d8c:	e8bd8010 	pop	{r4, pc}
    8d90:	0000aa58 	andeq	sl, r0, r8, asr sl

00008d94 <kr_malloc>:
    8d94:	e92d4010 	push	{r4, lr}
    8d98:	e2804007 	add	r4, r0, #7, 0
    8d9c:	e1a041a4 	lsr	r4, r4, #3
    8da0:	e2844001 	add	r4, r4, #1, 0
    8da4:	e59f3090 	ldr	r3, [pc, #144]	; 8e3c <kr_malloc+0xa8>
    8da8:	e5932000 	ldr	r2, [r3]
    8dac:	e3520000 	cmp	r2, #0, 0
    8db0:	0a000001 	beq	8dbc <kr_malloc+0x28>
    8db4:	e5920000 	ldr	r0, [r2]
    8db8:	ea000013 	b	8e0c <kr_malloc+0x78>
    8dbc:	e2832008 	add	r2, r3, #8, 0
    8dc0:	e5832000 	str	r2, [r3]
    8dc4:	e5832008 	str	r2, [r3, #8]
    8dc8:	e3a01000 	mov	r1, #0, 0
    8dcc:	e583100c 	str	r1, [r3, #12]
    8dd0:	eafffff7 	b	8db4 <kr_malloc+0x20>
    8dd4:	0a000007 	beq	8df8 <kr_malloc+0x64>
    8dd8:	e0433004 	sub	r3, r3, r4
    8ddc:	e5803004 	str	r3, [r0, #4]
    8de0:	e0800183 	add	r0, r0, r3, lsl #3
    8de4:	e5804004 	str	r4, [r0, #4]
    8de8:	e59f304c 	ldr	r3, [pc, #76]	; 8e3c <kr_malloc+0xa8>
    8dec:	e5832000 	str	r2, [r3]
    8df0:	e2800008 	add	r0, r0, #8, 0
    8df4:	e8bd8010 	pop	{r4, pc}
    8df8:	e5903000 	ldr	r3, [r0]
    8dfc:	e5823000 	str	r3, [r2]
    8e00:	eafffff8 	b	8de8 <kr_malloc+0x54>
    8e04:	e1a02000 	mov	r2, r0
    8e08:	e5900000 	ldr	r0, [r0]
    8e0c:	e5903004 	ldr	r3, [r0, #4]
    8e10:	e1530004 	cmp	r3, r4
    8e14:	2affffee 	bcs	8dd4 <kr_malloc+0x40>
    8e18:	e59f301c 	ldr	r3, [pc, #28]	; 8e3c <kr_malloc+0xa8>
    8e1c:	e5933000 	ldr	r3, [r3]
    8e20:	e1530000 	cmp	r3, r0
    8e24:	1afffff6 	bne	8e04 <kr_malloc+0x70>
    8e28:	e1a00004 	mov	r0, r4
    8e2c:	ebffffc7 	bl	8d50 <kr_morecore>
    8e30:	e3500000 	cmp	r0, #0, 0
    8e34:	1afffff2 	bne	8e04 <kr_malloc+0x70>
    8e38:	e8bd8010 	pop	{r4, pc}
    8e3c:	0000aa58 	andeq	sl, r0, r8, asr sl

00008e40 <memcmp>:
    8e40:	e52de004 	push	{lr}		; (str lr, [sp, #-4]!)
    8e44:	e1a0e000 	mov	lr, r0
    8e48:	e3a03000 	mov	r3, #0, 0
    8e4c:	e1530002 	cmp	r3, r2
    8e50:	2a000005 	bcs	8e6c <memcmp+0x2c>
    8e54:	e7dec003 	ldrb	ip, [lr, r3]
    8e58:	e7d10003 	ldrb	r0, [r1, r3]
    8e5c:	e05c0000 	subs	r0, ip, r0
    8e60:	149df004 	popne	{pc}		; (ldrne pc, [sp], #4)
    8e64:	e2833001 	add	r3, r3, #1, 0
    8e68:	eafffff7 	b	8e4c <memcmp+0xc>
    8e6c:	e3a00000 	mov	r0, #0, 0
    8e70:	e49df004 	pop	{pc}		; (ldr pc, [sp], #4)

00008e74 <memcpy>:
    8e74:	e2103003 	ands	r3, r0, #3, 0
    8e78:	1a000011 	bne	8ec4 <memcpy+0x50>
    8e7c:	e211c003 	ands	ip, r1, #3, 0
    8e80:	1a00000c 	bne	8eb8 <memcpy+0x44>
    8e84:	e2123003 	ands	r3, r2, #3, 0
    8e88:	1a00000f 	bne	8ecc <memcpy+0x58>
    8e8c:	e1a02122 	lsr	r2, r2, #2
    8e90:	ea000002 	b	8ea0 <memcpy+0x2c>
    8e94:	e791c103 	ldr	ip, [r1, r3, lsl #2]
    8e98:	e780c103 	str	ip, [r0, r3, lsl #2]
    8e9c:	e2833001 	add	r3, r3, #1, 0
    8ea0:	e1530002 	cmp	r3, r2
    8ea4:	3afffffa 	bcc	8e94 <memcpy+0x20>
    8ea8:	e12fff1e 	bx	lr
    8eac:	e7d1c003 	ldrb	ip, [r1, r3]
    8eb0:	e7c0c003 	strb	ip, [r0, r3]
    8eb4:	e2833001 	add	r3, r3, #1, 0
    8eb8:	e1530002 	cmp	r3, r2
    8ebc:	3afffffa 	bcc	8eac <memcpy+0x38>
    8ec0:	e12fff1e 	bx	lr
    8ec4:	e3a03000 	mov	r3, #0, 0
    8ec8:	eafffffa 	b	8eb8 <memcpy+0x44>
    8ecc:	e1a0300c 	mov	r3, ip
    8ed0:	eafffff8 	b	8eb8 <memcpy+0x44>

00008ed4 <memset>:
    8ed4:	e0802002 	add	r2, r0, r2
    8ed8:	e1a03000 	mov	r3, r0
    8edc:	e1530002 	cmp	r3, r2
    8ee0:	212fff1e 	bxcs	lr
    8ee4:	e4c31001 	strb	r1, [r3], #1
    8ee8:	eafffffb 	b	8edc <memset+0x8>

00008eec <printk>:
    8eec:	e92d000f 	push	{r0, r1, r2, r3}
    8ef0:	e92d4030 	push	{r4, r5, lr}
    8ef4:	e24dd00c 	sub	sp, sp, #12, 0
    8ef8:	e28d301c 	add	r3, sp, #28, 0
    8efc:	e58d3004 	str	r3, [sp, #4]
    8f00:	e59f5034 	ldr	r5, [pc, #52]	; 8f3c <printk+0x50>
    8f04:	e59d2018 	ldr	r2, [sp, #24]
    8f08:	e3a01b01 	mov	r1, #1024	; 0x400
    8f0c:	e1a00005 	mov	r0, r5
    8f10:	eb0000d1 	bl	925c <va_printk>
    8f14:	e1a04000 	mov	r4, r0
    8f18:	e59f3020 	ldr	r3, [pc, #32]	; 8f40 <printk+0x54>
    8f1c:	e5933000 	ldr	r3, [r3]
    8f20:	e1a00005 	mov	r0, r5
    8f24:	e12fff33 	blx	r3
    8f28:	e1a00004 	mov	r0, r4
    8f2c:	e28dd00c 	add	sp, sp, #12, 0
    8f30:	e8bd4030 	pop	{r4, r5, lr}
    8f34:	e28dd010 	add	sp, sp, #16, 0
    8f38:	e12fff1e 	bx	lr
    8f3c:	0000aa68 	andeq	sl, r0, r8, ror #20
    8f40:	0000aa28 	andeq	sl, r0, r8, lsr #20

00008f44 <internal_putk>:
    8f44:	e92d4010 	push	{r4, lr}
    8f48:	e1a04000 	mov	r4, r0
    8f4c:	e5d40000 	ldrb	r0, [r4]
    8f50:	e3500000 	cmp	r0, #0, 0
    8f54:	0a000004 	beq	8f6c <internal_putk+0x28>
    8f58:	e59f3014 	ldr	r3, [pc, #20]	; 8f74 <internal_putk+0x30>
    8f5c:	e5933000 	ldr	r3, [r3]
    8f60:	e12fff33 	blx	r3
    8f64:	e2844001 	add	r4, r4, #1, 0
    8f68:	eafffff7 	b	8f4c <internal_putk+0x8>
    8f6c:	e3a00001 	mov	r0, #1, 0
    8f70:	e8bd8010 	pop	{r4, pc}
    8f74:	0000aa3c 	andeq	sl, r0, ip, lsr sl

00008f78 <rpi_rand16>:
    8f78:	e59f2020 	ldr	r2, [pc, #32]	; 8fa0 <rpi_rand16+0x28>
    8f7c:	e1d230b0 	ldrh	r3, [r2]
    8f80:	e0230123 	eor	r0, r3, r3, lsr #2
    8f84:	e02001a3 	eor	r0, r0, r3, lsr #3
    8f88:	e02002a3 	eor	r0, r0, r3, lsr #5
    8f8c:	e2000001 	and	r0, r0, #1, 0
    8f90:	e1a030a3 	lsr	r3, r3, #1
    8f94:	e1830780 	orr	r0, r3, r0, lsl #15
    8f98:	e1c200b0 	strh	r0, [r2]
    8f9c:	e12fff1e 	bx	lr
    8fa0:	0000aa2c 	andeq	sl, r0, ip, lsr #20

00008fa4 <rpi_rand32>:
    8fa4:	e92d4010 	push	{r4, lr}
    8fa8:	ebfffff2 	bl	8f78 <rpi_rand16>
    8fac:	e1a04800 	lsl	r4, r0, #16
    8fb0:	ebfffff0 	bl	8f78 <rpi_rand16>
    8fb4:	e1840000 	orr	r0, r4, r0
    8fb8:	e8bd8010 	pop	{r4, pc}

00008fbc <rpi_reset>:
    8fbc:	e59f3008 	ldr	r3, [pc, #8]	; 8fcc <rpi_reset+0x10>
    8fc0:	e59f2008 	ldr	r2, [pc, #8]	; 8fd0 <rpi_reset+0x14>
    8fc4:	e1c320b0 	strh	r2, [r3]
    8fc8:	e12fff1e 	bx	lr
    8fcc:	0000aa2c 	andeq	sl, r0, ip, lsr #20
    8fd0:	fffface1 			; <UNDEFINED> instruction: 0xfffface1

00008fd4 <isdigit>:
    8fd4:	e2400030 	sub	r0, r0, #48, 0	; 0x30
    8fd8:	e3500009 	cmp	r0, #9, 0
    8fdc:	83a00000 	movhi	r0, #0, 0
    8fe0:	93a00001 	movls	r0, #1, 0
    8fe4:	e12fff1e 	bx	lr

00008fe8 <pad>:
    8fe8:	e0401001 	sub	r1, r0, r1
    8fec:	e1510002 	cmp	r1, r2
    8ff0:	b3a03020 	movlt	r3, #32, 0
    8ff4:	b4c03001 	strblt	r3, [r0], #1
    8ff8:	b2811001 	addlt	r1, r1, #1, 0
    8ffc:	bafffffa 	blt	8fec <pad+0x4>
    9000:	e3a03000 	mov	r3, #0, 0
    9004:	e5c03000 	strb	r3, [r0]
    9008:	e12fff1e 	bx	lr

0000900c <reverse>:
    900c:	e042c003 	sub	ip, r2, r3
    9010:	e28cc001 	add	ip, ip, #1, 0
    9014:	e15c0001 	cmp	ip, r1
    9018:	c04cc001 	subgt	ip, ip, r1
    901c:	c083300c 	addgt	r3, r3, ip
    9020:	e2421001 	sub	r1, r2, #1, 0
    9024:	e1a02000 	mov	r2, r0
    9028:	e1510003 	cmp	r1, r3
    902c:	2451c001 	ldrbcs	ip, [r1], #-1
    9030:	24c2c001 	strbcs	ip, [r2], #1
    9034:	2afffffb 	bcs	9028 <reverse+0x1c>
    9038:	e3a03000 	mov	r3, #0, 0
    903c:	e5c23000 	strb	r3, [r2]
    9040:	e12fff1e 	bx	lr

00009044 <emit>:
    9044:	e92d40f0 	push	{r4, r5, r6, r7, lr}
    9048:	e24dd04c 	sub	sp, sp, #76, 0	; 0x4c
    904c:	e1a05001 	mov	r5, r1
    9050:	e1a04002 	mov	r4, r2
    9054:	e59d2060 	ldr	r2, [sp, #96]	; 0x60
    9058:	e1520004 	cmp	r2, r4
    905c:	c2442001 	subgt	r2, r4, #1, 0
    9060:	e1a0c003 	mov	ip, r3
    9064:	e2400002 	sub	r0, r0, #2, 0
    9068:	e350000e 	cmp	r0, #14, 0
    906c:	979ff100 	ldrls	pc, [pc, r0, lsl #2]
    9070:	ea000050 	b	91b8 <emit+0x174>
    9074:	00009190 	muleq	r0, r0, r1
    9078:	000091b8 			; <UNDEFINED> instruction: 0x000091b8
    907c:	000091b8 			; <UNDEFINED> instruction: 0x000091b8
    9080:	000091b8 			; <UNDEFINED> instruction: 0x000091b8
    9084:	000091b8 			; <UNDEFINED> instruction: 0x000091b8
    9088:	000091b8 			; <UNDEFINED> instruction: 0x000091b8
    908c:	00009184 	andeq	r9, r0, r4, lsl #3
    9090:	000091b8 			; <UNDEFINED> instruction: 0x000091b8
    9094:	000090b0 	strheq	r9, [r0], -r0
    9098:	000091b8 			; <UNDEFINED> instruction: 0x000091b8
    909c:	000091b8 			; <UNDEFINED> instruction: 0x000091b8
    90a0:	000091b8 			; <UNDEFINED> instruction: 0x000091b8
    90a4:	000091b8 			; <UNDEFINED> instruction: 0x000091b8
    90a8:	000091b8 			; <UNDEFINED> instruction: 0x000091b8
    90ac:	00009128 	andeq	r9, r0, r8, lsr #2
    90b0:	e59d1064 	ldr	r1, [sp, #100]	; 0x64
    90b4:	e2511000 	subs	r1, r1, #0, 0
    90b8:	13a01001 	movne	r1, #1, 0
    90bc:	e0111fa3 	ands	r1, r1, r3, lsr #31
    90c0:	0a000016 	beq	9120 <emit+0xdc>
    90c4:	e263c000 	rsb	ip, r3, #0, 0
    90c8:	e3a06001 	mov	r6, #1, 0
    90cc:	e28d0008 	add	r0, sp, #8, 0
    90d0:	e59f3100 	ldr	r3, [pc, #256]	; 91d8 <emit+0x194>
    90d4:	e0831c93 	umull	r1, r3, r3, ip
    90d8:	e1a031a3 	lsr	r3, r3, #3
    90dc:	e1a0e003 	mov	lr, r3
    90e0:	e0833103 	add	r3, r3, r3, lsl #2
    90e4:	e04c3083 	sub	r3, ip, r3, lsl #1
    90e8:	e1a01000 	mov	r1, r0
    90ec:	e2800001 	add	r0, r0, #1, 0
    90f0:	e59f70e4 	ldr	r7, [pc, #228]	; 91dc <emit+0x198>
    90f4:	e7d73003 	ldrb	r3, [r7, r3]
    90f8:	e5c13000 	strb	r3, [r1]
    90fc:	e1a0300c 	mov	r3, ip
    9100:	e1a0c00e 	mov	ip, lr
    9104:	e3530009 	cmp	r3, #9, 0
    9108:	8afffff0 	bhi	90d0 <emit+0x8c>
    910c:	e3560000 	cmp	r6, #0, 0
    9110:	13a0302d 	movne	r3, #45, 0	; 0x2d
    9114:	15c03000 	strbne	r3, [r0]
    9118:	12810002 	addne	r0, r1, #2, 0
    911c:	ea00000f 	b	9160 <emit+0x11c>
    9120:	e3a06000 	mov	r6, #0, 0
    9124:	eaffffe8 	b	90cc <emit+0x88>
    9128:	e28d1008 	add	r1, sp, #8, 0
    912c:	e20c000f 	and	r0, ip, #15, 0
    9130:	e59fe0a8 	ldr	lr, [pc, #168]	; 91e0 <emit+0x19c>
    9134:	e7de0000 	ldrb	r0, [lr, r0]
    9138:	e5c10000 	strb	r0, [r1]
    913c:	e2811001 	add	r1, r1, #1, 0
    9140:	e35c000f 	cmp	ip, #15, 0
    9144:	e1a0c22c 	lsr	ip, ip, #4
    9148:	8afffff7 	bhi	912c <emit+0xe8>
    914c:	e1a00001 	mov	r0, r1
    9150:	e3a03078 	mov	r3, #120, 0	; 0x78
    9154:	e4c03002 	strb	r3, [r0], #2
    9158:	e3a03030 	mov	r3, #48, 0	; 0x30
    915c:	e5c13001 	strb	r3, [r1, #1]
    9160:	e28d1008 	add	r1, sp, #8, 0
    9164:	ebffff9f 	bl	8fe8 <pad>
    9168:	e1a02000 	mov	r2, r0
    916c:	e28d3008 	add	r3, sp, #8, 0
    9170:	e1a01004 	mov	r1, r4
    9174:	e1a00005 	mov	r0, r5
    9178:	ebffffa3 	bl	900c <reverse>
    917c:	e28dd04c 	add	sp, sp, #76, 0	; 0x4c
    9180:	e8bd80f0 	pop	{r4, r5, r6, r7, pc}
    9184:	e5cd3008 	strb	r3, [sp, #8]
    9188:	e28d0009 	add	r0, sp, #9, 0
    918c:	eafffff3 	b	9160 <emit+0x11c>
    9190:	e28d0008 	add	r0, sp, #8, 0
    9194:	e20c1001 	and	r1, ip, #1, 0
    9198:	e59fe044 	ldr	lr, [pc, #68]	; 91e4 <emit+0x1a0>
    919c:	e7de1001 	ldrb	r1, [lr, r1]
    91a0:	e5c01000 	strb	r1, [r0]
    91a4:	e2800001 	add	r0, r0, #1, 0
    91a8:	e35c0001 	cmp	ip, #1, 0
    91ac:	e1a0c0ac 	lsr	ip, ip, #1
    91b0:	8afffff7 	bhi	9194 <emit+0x150>
    91b4:	eaffffe9 	b	9160 <emit+0x11c>
    91b8:	e59f3028 	ldr	r3, [pc, #40]	; 91e8 <emit+0x1a4>
    91bc:	e58d3000 	str	r3, [sp]
    91c0:	e3a03079 	mov	r3, #121, 0	; 0x79
    91c4:	e59f2020 	ldr	r2, [pc, #32]	; 91ec <emit+0x1a8>
    91c8:	e59f1020 	ldr	r1, [pc, #32]	; 91f0 <emit+0x1ac>
    91cc:	e59f0020 	ldr	r0, [pc, #32]	; 91f4 <emit+0x1b0>
    91d0:	ebffff45 	bl	8eec <printk>
    91d4:	eb00014e 	bl	9714 <clean_reboot>
    91d8:	cccccccd 	stclgt	12, cr12, [ip], {205}	; 0xcd
    91dc:	0000a6cc 	andeq	sl, r0, ip, asr #13
    91e0:	0000a6d8 	ldrdeq	sl, [r0], -r8
    91e4:	0000a6ec 	andeq	sl, r0, ip, ror #13
    91e8:	0000a58c 	andeq	sl, r0, ip, lsl #11
    91ec:	0000a7f8 	strdeq	sl, [r0], -r8
    91f0:	0000a6b8 			; <UNDEFINED> instruction: 0x0000a6b8
    91f4:	0000a0e0 	andeq	sl, r0, r0, ror #1

000091f8 <rpi_set_output>:
    91f8:	e3500000 	cmp	r0, #0, 0
    91fc:	0a000006 	beq	921c <rpi_set_output+0x24>
    9200:	e59f303c 	ldr	r3, [pc, #60]	; 9244 <rpi_set_output+0x4c>
    9204:	e5830000 	str	r0, [r3]
    9208:	e3510000 	cmp	r1, #0, 0
    920c:	012fff1e 	bxeq	lr
    9210:	e59f3030 	ldr	r3, [pc, #48]	; 9248 <rpi_set_output+0x50>
    9214:	e5831000 	str	r1, [r3]
    9218:	e12fff1e 	bx	lr
    921c:	e52de004 	push	{lr}		; (str lr, [sp, #-4]!)
    9220:	e24dd00c 	sub	sp, sp, #12, 0
    9224:	e59f3020 	ldr	r3, [pc, #32]	; 924c <rpi_set_output+0x54>
    9228:	e58d3000 	str	r3, [sp]
    922c:	e3a03020 	mov	r3, #32, 0
    9230:	e59f2018 	ldr	r2, [pc, #24]	; 9250 <rpi_set_output+0x58>
    9234:	e59f1018 	ldr	r1, [pc, #24]	; 9254 <rpi_set_output+0x5c>
    9238:	e59f0018 	ldr	r0, [pc, #24]	; 9258 <rpi_set_output+0x60>
    923c:	ebffff2a 	bl	8eec <printk>
    9240:	eb000133 	bl	9714 <clean_reboot>
    9244:	0000aa3c 	andeq	sl, r0, ip, lsr sl
    9248:	0000aa28 	andeq	sl, r0, r8, lsr #20
    924c:	0000a6f0 	strdeq	sl, [r0], -r0
    9250:	0000a800 	andeq	sl, r0, r0, lsl #16
    9254:	0000a6b8 			; <UNDEFINED> instruction: 0x0000a6b8
    9258:	0000a0e0 	andeq	sl, r0, r0, ror #1

0000925c <va_printk>:
    925c:	e92d4ff0 	push	{r4, r5, r6, r7, r8, r9, sl, fp, lr}
    9260:	e24ddf45 	sub	sp, sp, #276	; 0x114
    9264:	e1a09000 	mov	r9, r0
    9268:	e58d2008 	str	r2, [sp, #8]
    926c:	e58d300c 	str	r3, [sp, #12]
    9270:	e2411001 	sub	r1, r1, #1, 0
    9274:	e0808001 	add	r8, r0, r1
    9278:	e3a03000 	mov	r3, #0, 0
    927c:	e5c03000 	strb	r3, [r0]
    9280:	e1a04000 	mov	r4, r0
    9284:	e1a06002 	mov	r6, r2
    9288:	ea000001 	b	9294 <va_printk+0x38>
    928c:	e2866001 	add	r6, r6, #1, 0
    9290:	e4c43001 	strb	r3, [r4], #1
    9294:	e5d63000 	ldrb	r3, [r6]
    9298:	e3530000 	cmp	r3, #0, 0
    929c:	0a000108 	beq	96c4 <va_printk+0x468>
    92a0:	e1540008 	cmp	r4, r8
    92a4:	2a000106 	bcs	96c4 <va_printk+0x468>
    92a8:	e3530025 	cmp	r3, #37, 0	; 0x25
    92ac:	1afffff6 	bne	928c <va_printk+0x30>
    92b0:	e5d62001 	ldrb	r2, [r6, #1]
    92b4:	e3520025 	cmp	r2, #37, 0	; 0x25
    92b8:	04c43001 	strbeq	r3, [r4], #1
    92bc:	02866002 	addeq	r6, r6, #2, 0
    92c0:	0afffff3 	beq	9294 <va_printk+0x38>
    92c4:	e2866001 	add	r6, r6, #1, 0
    92c8:	e3a05000 	mov	r5, #0, 0
    92cc:	e5d67000 	ldrb	r7, [r6]
    92d0:	e1a0a007 	mov	sl, r7
    92d4:	e1a00007 	mov	r0, r7
    92d8:	ebffff3d 	bl	8fd4 <isdigit>
    92dc:	e3500000 	cmp	r0, #0, 0
    92e0:	0a000004 	beq	92f8 <va_printk+0x9c>
    92e4:	e0855105 	add	r5, r5, r5, lsl #2
    92e8:	e0875085 	add	r5, r7, r5, lsl #1
    92ec:	e2455030 	sub	r5, r5, #48, 0	; 0x30
    92f0:	e2866001 	add	r6, r6, #1, 0
    92f4:	eafffff4 	b	92cc <va_printk+0x70>
    92f8:	e355001f 	cmp	r5, #31, 0
    92fc:	8a00001a 	bhi	936c <va_printk+0x110>
    9300:	e2477062 	sub	r7, r7, #98, 0	; 0x62
    9304:	e3570016 	cmp	r7, #22, 0
    9308:	979ff107 	ldrls	pc, [pc, r7, lsl #2]
    930c:	ea0000d4 	b	9664 <va_printk+0x408>
    9310:	000095e8 	andeq	r9, r0, r8, ror #11
    9314:	00009630 	andeq	r9, r0, r0, lsr r6
    9318:	00009548 	andeq	r9, r0, r8, asr #10
    931c:	00009664 	andeq	r9, r0, r4, ror #12
    9320:	00009530 	andeq	r9, r0, r0, lsr r5
    9324:	00009664 	andeq	r9, r0, r4, ror #12
    9328:	00009664 	andeq	r9, r0, r4, ror #12
    932c:	00009664 	andeq	r9, r0, r4, ror #12
    9330:	00009664 	andeq	r9, r0, r4, ror #12
    9334:	00009664 	andeq	r9, r0, r4, ror #12
    9338:	0000938c 	andeq	r9, r0, ip, lsl #7
    933c:	00009664 	andeq	r9, r0, r4, ror #12
    9340:	00009664 	andeq	r9, r0, r4, ror #12
    9344:	00009664 	andeq	r9, r0, r4, ror #12
    9348:	000095b4 			; <UNDEFINED> instruction: 0x000095b4
    934c:	00009664 	andeq	r9, r0, r4, ror #12
    9350:	00009664 	andeq	r9, r0, r4, ror #12
    9354:	0000961c 	andeq	r9, r0, ip, lsl r6
    9358:	00009664 	andeq	r9, r0, r4, ror #12
    935c:	00009580 	andeq	r9, r0, r0, lsl #11
    9360:	00009664 	andeq	r9, r0, r4, ror #12
    9364:	00009664 	andeq	r9, r0, r4, ror #12
    9368:	000095b4 			; <UNDEFINED> instruction: 0x000095b4
    936c:	e59f3364 	ldr	r3, [pc, #868]	; 96d8 <va_printk+0x47c>
    9370:	e58d3000 	str	r3, [sp]
    9374:	e3a03098 	mov	r3, #152, 0	; 0x98
    9378:	e59f235c 	ldr	r2, [pc, #860]	; 96dc <va_printk+0x480>
    937c:	e59f135c 	ldr	r1, [pc, #860]	; 96e0 <va_printk+0x484>
    9380:	e59f035c 	ldr	r0, [pc, #860]	; 96e4 <va_printk+0x488>
    9384:	ebfffed8 	bl	8eec <printk>
    9388:	eb0000e1 	bl	9714 <clean_reboot>
    938c:	e3a02003 	mov	r2, #3, 0
    9390:	e59f1350 	ldr	r1, [pc, #848]	; 96e8 <va_printk+0x48c>
    9394:	e1a00006 	mov	r0, r6
    9398:	eb0002d0 	bl	9ee0 <strncmp>
    939c:	e3500000 	cmp	r0, #0, 0
    93a0:	0a000005 	beq	93bc <va_printk+0x160>
    93a4:	e3a02003 	mov	r2, #3, 0
    93a8:	e59f133c 	ldr	r1, [pc, #828]	; 96ec <va_printk+0x490>
    93ac:	e1a00006 	mov	r0, r6
    93b0:	eb0002ca 	bl	9ee0 <strncmp>
    93b4:	e3500000 	cmp	r0, #0, 0
    93b8:	1a000033 	bne	948c <va_printk+0x230>
    93bc:	e286b002 	add	fp, r6, #2, 0
    93c0:	e59d300c 	ldr	r3, [sp, #12]
    93c4:	e2833007 	add	r3, r3, #7, 0
    93c8:	e3c33007 	bic	r3, r3, #7, 0
    93cc:	e2832008 	add	r2, r3, #8, 0
    93d0:	e58d200c 	str	r2, [sp, #12]
    93d4:	e593a000 	ldr	sl, [r3]
    93d8:	e5937004 	ldr	r7, [r3, #4]
    93dc:	e1a01007 	mov	r1, r7
    93e0:	e59f0308 	ldr	r0, [pc, #776]	; 96f0 <va_printk+0x494>
    93e4:	ebfffec0 	bl	8eec <printk>
    93e8:	e1a0100a 	mov	r1, sl
    93ec:	e59f0300 	ldr	r0, [pc, #768]	; 96f4 <va_printk+0x498>
    93f0:	ebfffebd 	bl	8eec <printk>
    93f4:	e3a02003 	mov	r2, #3, 0
    93f8:	e59f12e8 	ldr	r1, [pc, #744]	; 96e8 <va_printk+0x48c>
    93fc:	e1a00006 	mov	r0, r6
    9400:	eb0002b6 	bl	9ee0 <strncmp>
    9404:	e3500000 	cmp	r0, #0, 0
    9408:	0a000027 	beq	94ac <va_printk+0x250>
    940c:	e3a02003 	mov	r2, #3, 0
    9410:	e59f12d4 	ldr	r1, [pc, #724]	; 96ec <va_printk+0x490>
    9414:	e1a00006 	mov	r0, r6
    9418:	eb0002b0 	bl	9ee0 <strncmp>
    941c:	e3500000 	cmp	r0, #0, 0
    9420:	1a00003b 	bne	9514 <va_printk+0x2b8>
    9424:	e3a06000 	mov	r6, #0, 0
    9428:	e58d6004 	str	r6, [sp, #4]
    942c:	e58d5000 	str	r5, [sp]
    9430:	e1a03007 	mov	r3, r7
    9434:	e3a02080 	mov	r2, #128, 0	; 0x80
    9438:	e28d1010 	add	r1, sp, #16, 0
    943c:	e3a0000a 	mov	r0, #10, 0
    9440:	ebfffeff 	bl	9044 <emit>
    9444:	e1a07000 	mov	r7, r0
    9448:	e58d6004 	str	r6, [sp, #4]
    944c:	e58d5000 	str	r5, [sp]
    9450:	e1a0300a 	mov	r3, sl
    9454:	e3a02080 	mov	r2, #128, 0	; 0x80
    9458:	e28d1090 	add	r1, sp, #144, 0	; 0x90
    945c:	e3a0000a 	mov	r0, #10, 0
    9460:	ebfffef7 	bl	9044 <emit>
    9464:	e59f128c 	ldr	r1, [pc, #652]	; 96f8 <va_printk+0x49c>
    9468:	e28d0010 	add	r0, sp, #16, 0
    946c:	eb000288 	bl	9e94 <strcmp>
    9470:	e1500006 	cmp	r0, r6
    9474:	1a000021 	bne	9500 <va_printk+0x2a4>
    9478:	e28d1090 	add	r1, sp, #144, 0	; 0x90
    947c:	e28d0010 	add	r0, sp, #16, 0
    9480:	eb00028e 	bl	9ec0 <strcpy>
    9484:	e1a0600b 	mov	r6, fp
    9488:	ea00003a 	b	9578 <va_printk+0x31c>
    948c:	e59f3268 	ldr	r3, [pc, #616]	; 96fc <va_printk+0x4a0>
    9490:	e58d3000 	str	r3, [sp]
    9494:	e3a0309f 	mov	r3, #159, 0	; 0x9f
    9498:	e59f223c 	ldr	r2, [pc, #572]	; 96dc <va_printk+0x480>
    949c:	e59f123c 	ldr	r1, [pc, #572]	; 96e0 <va_printk+0x484>
    94a0:	e59f023c 	ldr	r0, [pc, #572]	; 96e4 <va_printk+0x488>
    94a4:	ebfffe90 	bl	8eec <printk>
    94a8:	eb000099 	bl	9714 <clean_reboot>
    94ac:	e3a06000 	mov	r6, #0, 0
    94b0:	e58d6004 	str	r6, [sp, #4]
    94b4:	e58d5000 	str	r5, [sp]
    94b8:	e1a03007 	mov	r3, r7
    94bc:	e3a02080 	mov	r2, #128, 0	; 0x80
    94c0:	e28d1010 	add	r1, sp, #16, 0
    94c4:	e3a00010 	mov	r0, #16, 0
    94c8:	ebfffedd 	bl	9044 <emit>
    94cc:	e1a07000 	mov	r7, r0
    94d0:	e58d6004 	str	r6, [sp, #4]
    94d4:	e58d5000 	str	r5, [sp]
    94d8:	e1a0300a 	mov	r3, sl
    94dc:	e3a02080 	mov	r2, #128, 0	; 0x80
    94e0:	e28d1090 	add	r1, sp, #144, 0	; 0x90
    94e4:	e3a00010 	mov	r0, #16, 0
    94e8:	ebfffed5 	bl	9044 <emit>
    94ec:	e28d1092 	add	r1, sp, #146, 0	; 0x92
    94f0:	e28d0010 	add	r0, sp, #16, 0
    94f4:	eb000259 	bl	9e60 <strcat>
    94f8:	e1a0600b 	mov	r6, fp
    94fc:	ea00001d 	b	9578 <va_printk+0x31c>
    9500:	e28d1090 	add	r1, sp, #144, 0	; 0x90
    9504:	e28d0010 	add	r0, sp, #16, 0
    9508:	eb000254 	bl	9e60 <strcat>
    950c:	e1a0600b 	mov	r6, fp
    9510:	ea000018 	b	9578 <va_printk+0x31c>
    9514:	e58d6000 	str	r6, [sp]
    9518:	e3a030b6 	mov	r3, #182, 0	; 0xb6
    951c:	e59f21b8 	ldr	r2, [pc, #440]	; 96dc <va_printk+0x480>
    9520:	e59f11b8 	ldr	r1, [pc, #440]	; 96e0 <va_printk+0x484>
    9524:	e59f01d4 	ldr	r0, [pc, #468]	; 9700 <va_printk+0x4a4>
    9528:	ebfffe6f 	bl	8eec <printk>
    952c:	eb000078 	bl	9714 <clean_reboot>
    9530:	e3a030be 	mov	r3, #190, 0	; 0xbe
    9534:	e59f21a0 	ldr	r2, [pc, #416]	; 96dc <va_printk+0x480>
    9538:	e59f11a0 	ldr	r1, [pc, #416]	; 96e0 <va_printk+0x484>
    953c:	e59f01c0 	ldr	r0, [pc, #448]	; 9704 <va_printk+0x4a8>
    9540:	ebfffe69 	bl	8eec <printk>
    9544:	eb000072 	bl	9714 <clean_reboot>
    9548:	e59d300c 	ldr	r3, [sp, #12]
    954c:	e2832004 	add	r2, r3, #4, 0
    9550:	e58d200c 	str	r2, [sp, #12]
    9554:	e5933000 	ldr	r3, [r3]
    9558:	e3a02001 	mov	r2, #1, 0
    955c:	e58d2004 	str	r2, [sp, #4]
    9560:	e58d5000 	str	r5, [sp]
    9564:	e3a02080 	mov	r2, #128, 0	; 0x80
    9568:	e28d1010 	add	r1, sp, #16, 0
    956c:	e3a0000a 	mov	r0, #10, 0
    9570:	ebfffeb3 	bl	9044 <emit>
    9574:	e1a07000 	mov	r7, r0
    9578:	e2866001 	add	r6, r6, #1, 0
    957c:	ea00004a 	b	96ac <va_printk+0x450>
    9580:	e59d300c 	ldr	r3, [sp, #12]
    9584:	e2832004 	add	r2, r3, #4, 0
    9588:	e58d200c 	str	r2, [sp, #12]
    958c:	e5933000 	ldr	r3, [r3]
    9590:	e3a02000 	mov	r2, #0, 0
    9594:	e58d2004 	str	r2, [sp, #4]
    9598:	e58d5000 	str	r5, [sp]
    959c:	e3a02080 	mov	r2, #128, 0	; 0x80
    95a0:	e28d1010 	add	r1, sp, #16, 0
    95a4:	e3a0000a 	mov	r0, #10, 0
    95a8:	ebfffea5 	bl	9044 <emit>
    95ac:	e1a07000 	mov	r7, r0
    95b0:	eafffff0 	b	9578 <va_printk+0x31c>
    95b4:	e59d300c 	ldr	r3, [sp, #12]
    95b8:	e2832004 	add	r2, r3, #4, 0
    95bc:	e58d200c 	str	r2, [sp, #12]
    95c0:	e5933000 	ldr	r3, [r3]
    95c4:	e3a02000 	mov	r2, #0, 0
    95c8:	e58d2004 	str	r2, [sp, #4]
    95cc:	e58d5000 	str	r5, [sp]
    95d0:	e3a02080 	mov	r2, #128, 0	; 0x80
    95d4:	e28d1010 	add	r1, sp, #16, 0
    95d8:	e3a00010 	mov	r0, #16, 0
    95dc:	ebfffe98 	bl	9044 <emit>
    95e0:	e1a07000 	mov	r7, r0
    95e4:	eaffffe3 	b	9578 <va_printk+0x31c>
    95e8:	e59d300c 	ldr	r3, [sp, #12]
    95ec:	e2832004 	add	r2, r3, #4, 0
    95f0:	e58d200c 	str	r2, [sp, #12]
    95f4:	e5933000 	ldr	r3, [r3]
    95f8:	e3a02000 	mov	r2, #0, 0
    95fc:	e58d2004 	str	r2, [sp, #4]
    9600:	e58d5000 	str	r5, [sp]
    9604:	e3a02080 	mov	r2, #128, 0	; 0x80
    9608:	e28d1010 	add	r1, sp, #16, 0
    960c:	e3a00002 	mov	r0, #2, 0
    9610:	ebfffe8b 	bl	9044 <emit>
    9614:	e1a07000 	mov	r7, r0
    9618:	eaffffd6 	b	9578 <va_printk+0x31c>
    961c:	e59d300c 	ldr	r3, [sp, #12]
    9620:	e2832004 	add	r2, r3, #4, 0
    9624:	e58d200c 	str	r2, [sp, #12]
    9628:	e5937000 	ldr	r7, [r3]
    962c:	eaffffd1 	b	9578 <va_printk+0x31c>
    9630:	e59d300c 	ldr	r3, [sp, #12]
    9634:	e2832004 	add	r2, r3, #4, 0
    9638:	e58d200c 	str	r2, [sp, #12]
    963c:	e5933000 	ldr	r3, [r3]
    9640:	e3a02000 	mov	r2, #0, 0
    9644:	e58d2004 	str	r2, [sp, #4]
    9648:	e58d5000 	str	r5, [sp]
    964c:	e3a02080 	mov	r2, #128, 0	; 0x80
    9650:	e28d1010 	add	r1, sp, #16, 0
    9654:	e3a00008 	mov	r0, #8, 0
    9658:	ebfffe79 	bl	9044 <emit>
    965c:	e1a07000 	mov	r7, r0
    9660:	eaffffc4 	b	9578 <va_printk+0x31c>
    9664:	e3a03000 	mov	r3, #0, 0
    9668:	e5c63001 	strb	r3, [r6, #1]
    966c:	e1a0200a 	mov	r2, sl
    9670:	e1a0100a 	mov	r1, sl
    9674:	e59f008c 	ldr	r0, [pc, #140]	; 9708 <va_printk+0x4ac>
    9678:	ebfffe1b 	bl	8eec <printk>
    967c:	e59f3088 	ldr	r3, [pc, #136]	; 970c <va_printk+0x4b0>
    9680:	e5933000 	ldr	r3, [r3]
    9684:	e59d0008 	ldr	r0, [sp, #8]
    9688:	e12fff33 	blx	r3
    968c:	e3a030e2 	mov	r3, #226, 0	; 0xe2
    9690:	e59f2044 	ldr	r2, [pc, #68]	; 96dc <va_printk+0x480>
    9694:	e59f1044 	ldr	r1, [pc, #68]	; 96e0 <va_printk+0x484>
    9698:	e59f0070 	ldr	r0, [pc, #112]	; 9710 <va_printk+0x4b4>
    969c:	ebfffe12 	bl	8eec <printk>
    96a0:	eb00001b 	bl	9714 <clean_reboot>
    96a4:	e2877001 	add	r7, r7, #1, 0
    96a8:	e4c43001 	strb	r3, [r4], #1
    96ac:	e1540008 	cmp	r4, r8
    96b0:	2afffef7 	bcs	9294 <va_printk+0x38>
    96b4:	e5d73000 	ldrb	r3, [r7]
    96b8:	e3530000 	cmp	r3, #0, 0
    96bc:	1afffff8 	bne	96a4 <va_printk+0x448>
    96c0:	eafffef3 	b	9294 <va_printk+0x38>
    96c4:	e3a03000 	mov	r3, #0, 0
    96c8:	e4c43001 	strb	r3, [r4], #1
    96cc:	e0440009 	sub	r0, r4, r9
    96d0:	e28ddf45 	add	sp, sp, #276	; 0x114
    96d4:	e8bd8ff0 	pop	{r4, r5, r6, r7, r8, r9, sl, fp, pc}
    96d8:	0000a6f8 	strdeq	sl, [r0], -r8
    96dc:	0000a810 	andeq	sl, r0, r0, lsl r8
    96e0:	0000a6b8 			; <UNDEFINED> instruction: 0x0000a6b8
    96e4:	0000a0e0 	andeq	sl, r0, r0, ror #1
    96e8:	0000a704 	andeq	sl, r0, r4, lsl #14
    96ec:	0000a708 	andeq	sl, r0, r8, lsl #14
    96f0:	0000a70c 	andeq	sl, r0, ip, lsl #14
    96f4:	0000a714 	andeq	sl, r0, r4, lsl r7
    96f8:	0000a58c 	andeq	sl, r0, ip, lsl #11
    96fc:	0000a71c 	andeq	sl, r0, ip, lsl r7
    9700:	0000a758 	andeq	sl, r0, r8, asr r7
    9704:	0000a780 	andeq	sl, r0, r0, lsl #15
    9708:	0000a7a8 	andeq	sl, r0, r8, lsr #15
    970c:	0000aa28 	andeq	sl, r0, r8, lsr #20
    9710:	0000a7d8 	ldrdeq	sl, [r0], -r8

00009714 <clean_reboot>:
    9714:	e92d4010 	push	{r4, lr}
    9718:	e59f3018 	ldr	r3, [pc, #24]	; 9738 <clean_reboot+0x24>
    971c:	e5933000 	ldr	r3, [r3]
    9720:	e59f0014 	ldr	r0, [pc, #20]	; 973c <clean_reboot+0x28>
    9724:	e12fff33 	blx	r3
    9728:	eb0000c3 	bl	9a3c <uart_flush_tx>
    972c:	e3a0000a 	mov	r0, #10, 0
    9730:	eb000047 	bl	9854 <delay_ms>
    9734:	eb00001c 	bl	97ac <rpi_reboot>
    9738:	0000aa28 	andeq	sl, r0, r8, lsr #20
    973c:	0000a81c 	andeq	sl, r0, ip, lsl r8

00009740 <_cstart>:
    9740:	e92d4010 	push	{r4, lr}
    9744:	eb00000c 	bl	977c <custom_loader>
    9748:	e59f3024 	ldr	r3, [pc, #36]	; 9774 <_cstart+0x34>
    974c:	e59f2024 	ldr	r2, [pc, #36]	; 9778 <_cstart+0x38>
    9750:	e1530002 	cmp	r3, r2
    9754:	33a02000 	movcc	r2, #0, 0
    9758:	34832004 	strcc	r2, [r3], #4
    975c:	3afffffa 	bcc	974c <_cstart+0xc>
    9760:	eb000057 	bl	98c4 <uart_init>
    9764:	e3a03001 	mov	r3, #1, 0
    9768:	ee0f3f1c 	mcr	15, 0, r3, cr15, cr12, {0}
    976c:	ebfffa31 	bl	8038 <notmain>
    9770:	ebffffe7 	bl	9714 <clean_reboot>
    9774:	0000aa40 	andeq	sl, r0, r0, asr #20
    9778:	0000ae70 	andeq	sl, r0, r0, ror lr

0000977c <custom_loader>:
    977c:	e12fff1e 	bx	lr

00009780 <at_user_level>:
    9780:	e10f0000 	mrs	r0, CPSR
    9784:	e200001f 	and	r0, r0, #31, 0
    9788:	e3500010 	cmp	r0, #16, 0
    978c:	13a00000 	movne	r0, #0, 0
    9790:	03a00001 	moveq	r0, #1, 0
    9794:	e12fff1e 	bx	lr

00009798 <set_user_level>:
    9798:	e10f3000 	mrs	r3, CPSR
    979c:	e3c3301f 	bic	r3, r3, #31, 0
    97a0:	e3833010 	orr	r3, r3, #16, 0
    97a4:	e129f003 	msr	CPSR_fc, r3
    97a8:	e12fff1e 	bx	lr

000097ac <rpi_reboot>:
    97ac:	e92d4010 	push	{r4, lr}
    97b0:	ebfffff2 	bl	9780 <at_user_level>
    97b4:	e3500000 	cmp	r0, #0, 0
    97b8:	1a00000a 	bne	97e8 <rpi_reboot+0x3c>
    97bc:	eb0001d2 	bl	9f0c <reboot_callout>
    97c0:	eb00009d 	bl	9a3c <uart_flush_tx>
    97c4:	e3a0000a 	mov	r0, #10, 0
    97c8:	eb000021 	bl	9854 <delay_ms>
    97cc:	e59f101c 	ldr	r1, [pc, #28]	; 97f0 <rpi_reboot+0x44>
    97d0:	e59f001c 	ldr	r0, [pc, #28]	; 97f4 <rpi_reboot+0x48>
    97d4:	ebfffa12 	bl	8024 <PUT32>
    97d8:	e59f1018 	ldr	r1, [pc, #24]	; 97f8 <rpi_reboot+0x4c>
    97dc:	e59f0018 	ldr	r0, [pc, #24]	; 97fc <rpi_reboot+0x50>
    97e0:	ebfffa0f 	bl	8024 <PUT32>
    97e4:	eafffffe 	b	97e4 <rpi_reboot+0x38>
    97e8:	ebffffea 	bl	9798 <set_user_level>
    97ec:	eafffff2 	b	97bc <rpi_reboot+0x10>
    97f0:	5a000001 	bpl	97fc <rpi_reboot+0x50>
    97f4:	20100024 	andscs	r0, r0, r4, lsr #32
    97f8:	5a000020 	bpl	9880 <delay_sec+0x14>
    97fc:	2010001c 	andscs	r0, r0, ip, lsl r0

00009800 <timer_get_usec_raw>:
    9800:	e92d4010 	push	{r4, lr}
    9804:	e59f0004 	ldr	r0, [pc, #4]	; 9810 <timer_get_usec_raw+0x10>
    9808:	ebfffa07 	bl	802c <GET32>
    980c:	e8bd8010 	pop	{r4, pc}
    9810:	20003004 	andcs	r3, r0, r4

00009814 <timer_get_usec>:
    9814:	e92d4010 	push	{r4, lr}
    9818:	eb0001bc 	bl	9f10 <dev_barrier>
    981c:	ebfffff7 	bl	9800 <timer_get_usec_raw>
    9820:	e1a04000 	mov	r4, r0
    9824:	eb0001b9 	bl	9f10 <dev_barrier>
    9828:	e1a00004 	mov	r0, r4
    982c:	e8bd8010 	pop	{r4, pc}

00009830 <delay_us>:
    9830:	e92d4070 	push	{r4, r5, r6, lr}
    9834:	e1a05000 	mov	r5, r0
    9838:	ebfffff5 	bl	9814 <timer_get_usec>
    983c:	e1a04000 	mov	r4, r0
    9840:	ebfffff3 	bl	9814 <timer_get_usec>
    9844:	e0400004 	sub	r0, r0, r4
    9848:	e1500005 	cmp	r0, r5
    984c:	3afffffb 	bcc	9840 <delay_us+0x10>
    9850:	e8bd8070 	pop	{r4, r5, r6, pc}

00009854 <delay_ms>:
    9854:	e92d4010 	push	{r4, lr}
    9858:	e0603280 	rsb	r3, r0, r0, lsl #5
    985c:	e0800103 	add	r0, r0, r3, lsl #2
    9860:	e1a00180 	lsl	r0, r0, #3
    9864:	ebfffff1 	bl	9830 <delay_us>
    9868:	e8bd8010 	pop	{r4, pc}

0000986c <delay_sec>:
    986c:	e92d4010 	push	{r4, lr}
    9870:	e0603280 	rsb	r3, r0, r0, lsl #5
    9874:	e0800103 	add	r0, r0, r3, lsl #2
    9878:	e1a00180 	lsl	r0, r0, #3
    987c:	ebfffff4 	bl	9854 <delay_ms>
    9880:	e8bd8010 	pop	{r4, pc}

00009884 <and_in32>:
    9884:	e92d4070 	push	{r4, r5, r6, lr}
    9888:	e1a04000 	mov	r4, r0
    988c:	e1a05001 	mov	r5, r1
    9890:	ebfff9e5 	bl	802c <GET32>
    9894:	e0001005 	and	r1, r0, r5
    9898:	e1a00004 	mov	r0, r4
    989c:	ebfff9e0 	bl	8024 <PUT32>
    98a0:	e8bd8070 	pop	{r4, r5, r6, pc}

000098a4 <or_in32>:
    98a4:	e92d4070 	push	{r4, r5, r6, lr}
    98a8:	e1a04000 	mov	r4, r0
    98ac:	e1a05001 	mov	r5, r1
    98b0:	ebfff9dd 	bl	802c <GET32>
    98b4:	e1801005 	orr	r1, r0, r5
    98b8:	e1a00004 	mov	r0, r4
    98bc:	ebfff9d8 	bl	8024 <PUT32>
    98c0:	e8bd8070 	pop	{r4, r5, r6, pc}

000098c4 <uart_init>:
    98c4:	e92d4010 	push	{r4, lr}
    98c8:	e3a01002 	mov	r1, #2, 0
    98cc:	e3a0000e 	mov	r0, #14, 0
    98d0:	eb000194 	bl	9f28 <gpio_set_function>
    98d4:	e3a01002 	mov	r1, #2, 0
    98d8:	e3a0000f 	mov	r0, #15, 0
    98dc:	eb000191 	bl	9f28 <gpio_set_function>
    98e0:	eb00018a 	bl	9f10 <dev_barrier>
    98e4:	e3a01001 	mov	r1, #1, 0
    98e8:	e59f0064 	ldr	r0, [pc, #100]	; 9954 <uart_init+0x90>
    98ec:	ebffffec 	bl	98a4 <or_in32>
    98f0:	eb000186 	bl	9f10 <dev_barrier>
    98f4:	e59f405c 	ldr	r4, [pc, #92]	; 9958 <uart_init+0x94>
    98f8:	e3a01000 	mov	r1, #0, 0
    98fc:	e1a00004 	mov	r0, r4
    9900:	ebfff9c7 	bl	8024 <PUT32>
    9904:	e3a01000 	mov	r1, #0, 0
    9908:	e59f004c 	ldr	r0, [pc, #76]	; 995c <uart_init+0x98>
    990c:	ebfff9c4 	bl	8024 <PUT32>
    9910:	e3a01003 	mov	r1, #3, 0
    9914:	e59f0044 	ldr	r0, [pc, #68]	; 9960 <uart_init+0x9c>
    9918:	ebfff9c1 	bl	8024 <PUT32>
    991c:	e3a01000 	mov	r1, #0, 0
    9920:	e59f003c 	ldr	r0, [pc, #60]	; 9964 <uart_init+0xa0>
    9924:	ebfff9be 	bl	8024 <PUT32>
    9928:	e3a010c7 	mov	r1, #199, 0	; 0xc7
    992c:	e59f0034 	ldr	r0, [pc, #52]	; 9968 <uart_init+0xa4>
    9930:	ebfff9bb 	bl	8024 <PUT32>
    9934:	e59f1030 	ldr	r1, [pc, #48]	; 996c <uart_init+0xa8>
    9938:	e59f0030 	ldr	r0, [pc, #48]	; 9970 <uart_init+0xac>
    993c:	ebfff9b8 	bl	8024 <PUT32>
    9940:	e3a01003 	mov	r1, #3, 0
    9944:	e1a00004 	mov	r0, r4
    9948:	ebfff9b5 	bl	8024 <PUT32>
    994c:	eb00016f 	bl	9f10 <dev_barrier>
    9950:	e8bd8010 	pop	{r4, pc}
    9954:	20215004 	eorcs	r5, r1, r4
    9958:	20215060 	eorcs	r5, r1, r0, rrx
    995c:	20215044 	eorcs	r5, r1, r4, asr #32
    9960:	2021504c 	eorcs	r5, r1, ip, asr #32
    9964:	20215050 	eorcs	r5, r1, r0, asr r0
    9968:	20215048 	eorcs	r5, r1, r8, asr #32
    996c:	0000010e 	andeq	r0, r0, lr, lsl #2
    9970:	20215068 	eorcs	r5, r1, r8, rrx

00009974 <uart_can_getc>:
    9974:	e92d4010 	push	{r4, lr}
    9978:	e59f0008 	ldr	r0, [pc, #8]	; 9988 <uart_can_getc+0x14>
    997c:	ebfff9aa 	bl	802c <GET32>
    9980:	e2000001 	and	r0, r0, #1, 0
    9984:	e8bd8010 	pop	{r4, pc}
    9988:	20215064 	eorcs	r5, r1, r4, rrx

0000998c <uart_can_putc>:
    998c:	e92d4010 	push	{r4, lr}
    9990:	e59f0010 	ldr	r0, [pc, #16]	; 99a8 <uart_can_putc+0x1c>
    9994:	ebfff9a4 	bl	802c <GET32>
    9998:	e3100002 	tst	r0, #2, 0
    999c:	13a00001 	movne	r0, #1, 0
    99a0:	03a00000 	moveq	r0, #0, 0
    99a4:	e8bd8010 	pop	{r4, pc}
    99a8:	20215064 	eorcs	r5, r1, r4, rrx

000099ac <uart_getc>:
    99ac:	e92d4010 	push	{r4, lr}
    99b0:	eb000156 	bl	9f10 <dev_barrier>
    99b4:	ebffffee 	bl	9974 <uart_can_getc>
    99b8:	e3500000 	cmp	r0, #0, 0
    99bc:	0afffffc 	beq	99b4 <uart_getc+0x8>
    99c0:	e59f0010 	ldr	r0, [pc, #16]	; 99d8 <uart_getc+0x2c>
    99c4:	ebfff998 	bl	802c <GET32>
    99c8:	e6ef4070 	uxtb	r4, r0
    99cc:	eb00014f 	bl	9f10 <dev_barrier>
    99d0:	e1a00004 	mov	r0, r4
    99d4:	e8bd8010 	pop	{r4, pc}
    99d8:	20215040 	eorcs	r5, r1, r0, asr #32

000099dc <uart_putc>:
    99dc:	e92d4010 	push	{r4, lr}
    99e0:	e1a04000 	mov	r4, r0
    99e4:	eb000149 	bl	9f10 <dev_barrier>
    99e8:	ebffffe7 	bl	998c <uart_can_putc>
    99ec:	e3500000 	cmp	r0, #0, 0
    99f0:	0afffffc 	beq	99e8 <uart_putc+0xc>
    99f4:	e6ef1074 	uxtb	r1, r4
    99f8:	e59f0008 	ldr	r0, [pc, #8]	; 9a08 <uart_putc+0x2c>
    99fc:	ebfff988 	bl	8024 <PUT32>
    9a00:	eb000142 	bl	9f10 <dev_barrier>
    9a04:	e8bd8010 	pop	{r4, pc}
    9a08:	20215040 	eorcs	r5, r1, r0, asr #32

00009a0c <uart_has_data>:
    9a0c:	e92d4010 	push	{r4, lr}
    9a10:	eb00013e 	bl	9f10 <dev_barrier>
    9a14:	ebffffd6 	bl	9974 <uart_can_getc>
    9a18:	e8bd8010 	pop	{r4, pc}

00009a1c <uart_tx_is_empty>:
    9a1c:	e92d4010 	push	{r4, lr}
    9a20:	eb00013a 	bl	9f10 <dev_barrier>
    9a24:	e59f000c 	ldr	r0, [pc, #12]	; 9a38 <uart_tx_is_empty+0x1c>
    9a28:	ebfff97f 	bl	802c <GET32>
    9a2c:	e1a004a0 	lsr	r0, r0, #9
    9a30:	e2000001 	and	r0, r0, #1, 0
    9a34:	e8bd8010 	pop	{r4, pc}
    9a38:	20215064 	eorcs	r5, r1, r4, rrx

00009a3c <uart_flush_tx>:
    9a3c:	e92d4010 	push	{r4, lr}
    9a40:	ebfffff5 	bl	9a1c <uart_tx_is_empty>
    9a44:	e3500000 	cmp	r0, #0, 0
    9a48:	0afffffc 	beq	9a40 <uart_flush_tx+0x4>
    9a4c:	e8bd8010 	pop	{r4, pc}

00009a50 <uart_disable>:
    9a50:	e92d4010 	push	{r4, lr}
    9a54:	ebfffff8 	bl	9a3c <uart_flush_tx>
    9a58:	eb00012c 	bl	9f10 <dev_barrier>
    9a5c:	e3e01001 	mvn	r1, #1, 0
    9a60:	e59f0008 	ldr	r0, [pc, #8]	; 9a70 <uart_disable+0x20>
    9a64:	ebffff86 	bl	9884 <and_in32>
    9a68:	eb000128 	bl	9f10 <dev_barrier>
    9a6c:	e8bd8010 	pop	{r4, pc}
    9a70:	20215004 	eorcs	r5, r1, r4

00009a74 <kmalloc_heap_end>:
    9a74:	e59f3004 	ldr	r3, [pc, #4]	; 9a80 <kmalloc_heap_end+0xc>
    9a78:	e5930000 	ldr	r0, [r3]
    9a7c:	e12fff1e 	bx	lr
    9a80:	0000aa30 	andeq	sl, r0, r0, lsr sl

00009a84 <kmalloc_heap_start>:
    9a84:	e59f3004 	ldr	r3, [pc, #4]	; 9a90 <kmalloc_heap_start+0xc>
    9a88:	e5930004 	ldr	r0, [r3, #4]
    9a8c:	e12fff1e 	bx	lr
    9a90:	0000aa30 	andeq	sl, r0, r0, lsr sl

00009a94 <kmalloc_heap_ptr>:
    9a94:	e59f3004 	ldr	r3, [pc, #4]	; 9aa0 <kmalloc_heap_ptr+0xc>
    9a98:	e5930008 	ldr	r0, [r3, #8]
    9a9c:	e12fff1e 	bx	lr
    9aa0:	0000aa30 	andeq	sl, r0, r0, lsr sl

00009aa4 <kmalloc_init_set_start>:
    9aa4:	e52de004 	push	{lr}		; (str lr, [sp, #-4]!)
    9aa8:	e24dd00c 	sub	sp, sp, #12, 0
    9aac:	e3510000 	cmp	r1, #0, 0
    9ab0:	0a00000a 	beq	9ae0 <kmalloc_init_set_start+0x3c>
    9ab4:	e59f306c 	ldr	r3, [pc, #108]	; 9b28 <kmalloc_init_set_start+0x84>
    9ab8:	e5933008 	ldr	r3, [r3, #8]
    9abc:	e1530000 	cmp	r3, r0
    9ac0:	8a00000e 	bhi	9b00 <kmalloc_init_set_start+0x5c>
    9ac4:	e59f305c 	ldr	r3, [pc, #92]	; 9b28 <kmalloc_init_set_start+0x84>
    9ac8:	e5830008 	str	r0, [r3, #8]
    9acc:	e5830004 	str	r0, [r3, #4]
    9ad0:	e0800001 	add	r0, r0, r1
    9ad4:	e5830000 	str	r0, [r3]
    9ad8:	e28dd00c 	add	sp, sp, #12, 0
    9adc:	e49df004 	pop	{pc}		; (ldr pc, [sp], #4)
    9ae0:	e59f3044 	ldr	r3, [pc, #68]	; 9b2c <kmalloc_init_set_start+0x88>
    9ae4:	e58d3000 	str	r3, [sp]
    9ae8:	e3a03030 	mov	r3, #48, 0	; 0x30
    9aec:	e59f203c 	ldr	r2, [pc, #60]	; 9b30 <kmalloc_init_set_start+0x8c>
    9af0:	e59f103c 	ldr	r1, [pc, #60]	; 9b34 <kmalloc_init_set_start+0x90>
    9af4:	e59f003c 	ldr	r0, [pc, #60]	; 9b38 <kmalloc_init_set_start+0x94>
    9af8:	ebfffcfb 	bl	8eec <printk>
    9afc:	ebffff04 	bl	9714 <clean_reboot>
    9b00:	e59f3020 	ldr	r3, [pc, #32]	; 9b28 <kmalloc_init_set_start+0x84>
    9b04:	e5933000 	ldr	r3, [r3]
    9b08:	e58d3004 	str	r3, [sp, #4]
    9b0c:	e58d0000 	str	r0, [sp]
    9b10:	e3a03034 	mov	r3, #52, 0	; 0x34
    9b14:	e59f2014 	ldr	r2, [pc, #20]	; 9b30 <kmalloc_init_set_start+0x8c>
    9b18:	e59f1014 	ldr	r1, [pc, #20]	; 9b34 <kmalloc_init_set_start+0x90>
    9b1c:	e59f0018 	ldr	r0, [pc, #24]	; 9b3c <kmalloc_init_set_start+0x98>
    9b20:	ebfffcf1 	bl	8eec <printk>
    9b24:	ebfffefa 	bl	9714 <clean_reboot>
    9b28:	0000aa30 	andeq	sl, r0, r0, lsr sl
    9b2c:	0000a834 	andeq	sl, r0, r4, lsr r8
    9b30:	0000a9c0 	andeq	sl, r0, r0, asr #19
    9b34:	0000a828 	andeq	sl, r0, r8, lsr #16
    9b38:	0000a0e0 	andeq	sl, r0, r0, ror #1
    9b3c:	0000a840 	andeq	sl, r0, r0, asr #16

00009b40 <kmalloc_init>:
    9b40:	e92d4010 	push	{r4, lr}
    9b44:	e59f303c 	ldr	r3, [pc, #60]	; 9b88 <kmalloc_init+0x48>
    9b48:	e5933000 	ldr	r3, [r3]
    9b4c:	e3530000 	cmp	r3, #0, 0
    9b50:	1a000006 	bne	9b70 <kmalloc_init+0x30>
    9b54:	e59f302c 	ldr	r3, [pc, #44]	; 9b88 <kmalloc_init+0x48>
    9b58:	e3a02001 	mov	r2, #1, 0
    9b5c:	e5832000 	str	r2, [r3]
    9b60:	e3a01201 	mov	r1, #268435456	; 0x10000000
    9b64:	e3a00601 	mov	r0, #1048576	; 0x100000
    9b68:	ebffffcd 	bl	9aa4 <kmalloc_init_set_start>
    9b6c:	e8bd8010 	pop	{r4, pc}
    9b70:	e3a03040 	mov	r3, #64, 0	; 0x40
    9b74:	e59f2010 	ldr	r2, [pc, #16]	; 9b8c <kmalloc_init+0x4c>
    9b78:	e59f1010 	ldr	r1, [pc, #16]	; 9b90 <kmalloc_init+0x50>
    9b7c:	e59f0010 	ldr	r0, [pc, #16]	; 9b94 <kmalloc_init+0x54>
    9b80:	ebfffcd9 	bl	8eec <printk>
    9b84:	ebfffee2 	bl	9714 <clean_reboot>
    9b88:	0000ae68 	andeq	sl, r0, r8, ror #28
    9b8c:	0000a9d8 	ldrdeq	sl, [r0], -r8
    9b90:	0000a828 	andeq	sl, r0, r8, lsr #16
    9b94:	0000a884 	andeq	sl, r0, r4, lsl #17

00009b98 <kmalloc_notzero>:
    9b98:	e52de004 	push	{lr}		; (str lr, [sp, #-4]!)
    9b9c:	e24dd00c 	sub	sp, sp, #12, 0
    9ba0:	e3500000 	cmp	r0, #0, 0
    9ba4:	0a00000a 	beq	9bd4 <kmalloc_notzero+0x3c>
    9ba8:	e2800007 	add	r0, r0, #7, 0
    9bac:	e3c03007 	bic	r3, r0, #7, 0
    9bb0:	e59f2060 	ldr	r2, [pc, #96]	; 9c18 <kmalloc_notzero+0x80>
    9bb4:	e5920008 	ldr	r0, [r2, #8]
    9bb8:	e0801003 	add	r1, r0, r3
    9bbc:	e5821008 	str	r1, [r2, #8]
    9bc0:	e5922000 	ldr	r2, [r2]
    9bc4:	e1510002 	cmp	r1, r2
    9bc8:	8a000009 	bhi	9bf4 <kmalloc_notzero+0x5c>
    9bcc:	e28dd00c 	add	sp, sp, #12, 0
    9bd0:	e49df004 	pop	{pc}		; (ldr pc, [sp], #4)
    9bd4:	e59f3040 	ldr	r3, [pc, #64]	; 9c1c <kmalloc_notzero+0x84>
    9bd8:	e58d3000 	str	r3, [sp]
    9bdc:	e3a03048 	mov	r3, #72, 0	; 0x48
    9be0:	e59f2038 	ldr	r2, [pc, #56]	; 9c20 <kmalloc_notzero+0x88>
    9be4:	e59f1038 	ldr	r1, [pc, #56]	; 9c24 <kmalloc_notzero+0x8c>
    9be8:	e59f0038 	ldr	r0, [pc, #56]	; 9c28 <kmalloc_notzero+0x90>
    9bec:	ebfffcbe 	bl	8eec <printk>
    9bf0:	ebfffec7 	bl	9714 <clean_reboot>
    9bf4:	e0422000 	sub	r2, r2, r0
    9bf8:	e58d2004 	str	r2, [sp, #4]
    9bfc:	e58d3000 	str	r3, [sp]
    9c00:	e3a0304e 	mov	r3, #78, 0	; 0x4e
    9c04:	e59f2014 	ldr	r2, [pc, #20]	; 9c20 <kmalloc_notzero+0x88>
    9c08:	e59f1014 	ldr	r1, [pc, #20]	; 9c24 <kmalloc_notzero+0x8c>
    9c0c:	e59f0018 	ldr	r0, [pc, #24]	; 9c2c <kmalloc_notzero+0x94>
    9c10:	ebfffcb5 	bl	8eec <printk>
    9c14:	ebfffebe 	bl	9714 <clean_reboot>
    9c18:	0000aa30 	andeq	sl, r0, r0, lsr sl
    9c1c:	0000a838 	andeq	sl, r0, r8, lsr r8
    9c20:	0000a9e8 	andeq	sl, r0, r8, ror #19
    9c24:	0000a828 	andeq	sl, r0, r8, lsr #16
    9c28:	0000a0e0 	andeq	sl, r0, r0, ror #1
    9c2c:	0000a8b4 			; <UNDEFINED> instruction: 0x0000a8b4

00009c30 <kmalloc>:
    9c30:	e92d4030 	push	{r4, r5, lr}
    9c34:	e24dd00c 	sub	sp, sp, #12, 0
    9c38:	e2504000 	subs	r4, r0, #0, 0
    9c3c:	0a000008 	beq	9c64 <kmalloc+0x34>
    9c40:	e1a00004 	mov	r0, r4
    9c44:	ebffffd3 	bl	9b98 <kmalloc_notzero>
    9c48:	e1a05000 	mov	r5, r0
    9c4c:	e1a02004 	mov	r2, r4
    9c50:	e3a01000 	mov	r1, #0, 0
    9c54:	ebfffc9e 	bl	8ed4 <memset>
    9c58:	e1a00005 	mov	r0, r5
    9c5c:	e28dd00c 	add	sp, sp, #12, 0
    9c60:	e8bd8030 	pop	{r4, r5, pc}
    9c64:	e59f3018 	ldr	r3, [pc, #24]	; 9c84 <kmalloc+0x54>
    9c68:	e58d3000 	str	r3, [sp]
    9c6c:	e3a03054 	mov	r3, #84, 0	; 0x54
    9c70:	e59f2010 	ldr	r2, [pc, #16]	; 9c88 <kmalloc+0x58>
    9c74:	e59f1010 	ldr	r1, [pc, #16]	; 9c8c <kmalloc+0x5c>
    9c78:	e59f0010 	ldr	r0, [pc, #16]	; 9c90 <kmalloc+0x60>
    9c7c:	ebfffc9a 	bl	8eec <printk>
    9c80:	ebfffea3 	bl	9714 <clean_reboot>
    9c84:	0000a838 	andeq	sl, r0, r8, lsr r8
    9c88:	0000a9f8 	strdeq	sl, [r0], -r8
    9c8c:	0000a828 	andeq	sl, r0, r8, lsr #16
    9c90:	0000a0e0 	andeq	sl, r0, r0, ror #1

00009c94 <kmalloc_aligned>:
    9c94:	e52de004 	push	{lr}		; (str lr, [sp, #-4]!)
    9c98:	e24dd00c 	sub	sp, sp, #12, 0
    9c9c:	e3500000 	cmp	r0, #0, 0
    9ca0:	0a000014 	beq	9cf8 <kmalloc_aligned+0x64>
    9ca4:	e2613000 	rsb	r3, r1, #0, 0
    9ca8:	e1d13003 	bics	r3, r1, r3
    9cac:	1a000019 	bne	9d18 <kmalloc_aligned+0x84>
    9cb0:	e3510008 	cmp	r1, #8, 0
    9cb4:	33a01008 	movcc	r1, #8, 0
    9cb8:	e59f30c0 	ldr	r3, [pc, #192]	; 9d80 <kmalloc_aligned+0xec>
    9cbc:	e5932008 	ldr	r2, [r3, #8]
    9cc0:	e2613000 	rsb	r3, r1, #0, 0
    9cc4:	e1d1c003 	bics	ip, r1, r3
    9cc8:	1a00001b 	bne	9d3c <kmalloc_aligned+0xa8>
    9ccc:	e0822001 	add	r2, r2, r1
    9cd0:	e2422001 	sub	r2, r2, #1, 0
    9cd4:	e0033002 	and	r3, r3, r2
    9cd8:	e2411001 	sub	r1, r1, #1, 0
    9cdc:	e1110003 	tst	r1, r3
    9ce0:	1a00001d 	bne	9d5c <kmalloc_aligned+0xc8>
    9ce4:	e59f2094 	ldr	r2, [pc, #148]	; 9d80 <kmalloc_aligned+0xec>
    9ce8:	e5823008 	str	r3, [r2, #8]
    9cec:	ebffffcf 	bl	9c30 <kmalloc>
    9cf0:	e28dd00c 	add	sp, sp, #12, 0
    9cf4:	e49df004 	pop	{pc}		; (ldr pc, [sp], #4)
    9cf8:	e59f3084 	ldr	r3, [pc, #132]	; 9d84 <kmalloc_aligned+0xf0>
    9cfc:	e58d3000 	str	r3, [sp]
    9d00:	e3a0305f 	mov	r3, #95, 0	; 0x5f
    9d04:	e59f207c 	ldr	r2, [pc, #124]	; 9d88 <kmalloc_aligned+0xf4>
    9d08:	e59f107c 	ldr	r1, [pc, #124]	; 9d8c <kmalloc_aligned+0xf8>
    9d0c:	e59f007c 	ldr	r0, [pc, #124]	; 9d90 <kmalloc_aligned+0xfc>
    9d10:	ebfffc75 	bl	8eec <printk>
    9d14:	ebfffe7e 	bl	9714 <clean_reboot>
    9d18:	eb000046 	bl	9e38 <rpi_reset_putc>
    9d1c:	e59f3070 	ldr	r3, [pc, #112]	; 9d94 <kmalloc_aligned+0x100>
    9d20:	e58d3000 	str	r3, [sp]
    9d24:	e3a03060 	mov	r3, #96, 0	; 0x60
    9d28:	e59f2058 	ldr	r2, [pc, #88]	; 9d88 <kmalloc_aligned+0xf4>
    9d2c:	e59f1058 	ldr	r1, [pc, #88]	; 9d8c <kmalloc_aligned+0xf8>
    9d30:	e59f0060 	ldr	r0, [pc, #96]	; 9d98 <kmalloc_aligned+0x104>
    9d34:	ebfffc6c 	bl	8eec <printk>
    9d38:	ebfffe75 	bl	9714 <clean_reboot>
    9d3c:	e59f3058 	ldr	r3, [pc, #88]	; 9d9c <kmalloc_aligned+0x108>
    9d40:	e58d3000 	str	r3, [sp]
    9d44:	e3a03011 	mov	r3, #17, 0
    9d48:	e59f2050 	ldr	r2, [pc, #80]	; 9da0 <kmalloc_aligned+0x10c>
    9d4c:	e59f1038 	ldr	r1, [pc, #56]	; 9d8c <kmalloc_aligned+0xf8>
    9d50:	e59f0038 	ldr	r0, [pc, #56]	; 9d90 <kmalloc_aligned+0xfc>
    9d54:	ebfffc64 	bl	8eec <printk>
    9d58:	ebfffe6d 	bl	9714 <clean_reboot>
    9d5c:	eb000035 	bl	9e38 <rpi_reset_putc>
    9d60:	e59f303c 	ldr	r3, [pc, #60]	; 9da4 <kmalloc_aligned+0x110>
    9d64:	e58d3000 	str	r3, [sp]
    9d68:	e3a03068 	mov	r3, #104, 0	; 0x68
    9d6c:	e59f2014 	ldr	r2, [pc, #20]	; 9d88 <kmalloc_aligned+0xf4>
    9d70:	e59f1014 	ldr	r1, [pc, #20]	; 9d8c <kmalloc_aligned+0xf8>
    9d74:	e59f002c 	ldr	r0, [pc, #44]	; 9da8 <kmalloc_aligned+0x114>
    9d78:	ebfffc5b 	bl	8eec <printk>
    9d7c:	ebfffe64 	bl	9714 <clean_reboot>
    9d80:	0000aa30 	andeq	sl, r0, r0, lsr sl
    9d84:	0000a838 	andeq	sl, r0, r8, lsr r8
    9d88:	0000aa00 	andeq	sl, r0, r0, lsl #20
    9d8c:	0000a828 	andeq	sl, r0, r8, lsr #16
    9d90:	0000a0e0 	andeq	sl, r0, r0, ror #1
    9d94:	0000a928 	andeq	sl, r0, r8, lsr #18
    9d98:	0000a8f4 	strdeq	sl, [r0], -r4
    9d9c:	0000a93c 	andeq	sl, r0, ip, lsr r9
    9da0:	0000aa10 	andeq	sl, r0, r0, lsl sl
    9da4:	0000a974 	andeq	sl, r0, r4, ror r9
    9da8:	0000a948 	andeq	sl, r0, r8, asr #18

00009dac <kfree>:
    9dac:	e12fff1e 	bx	lr

00009db0 <kfree_all>:
    9db0:	e59f3008 	ldr	r3, [pc, #8]	; 9dc0 <kfree_all+0x10>
    9db4:	e5932004 	ldr	r2, [r3, #4]
    9db8:	e5832008 	str	r2, [r3, #8]
    9dbc:	e12fff1e 	bx	lr
    9dc0:	0000aa30 	andeq	sl, r0, r0, lsr sl

00009dc4 <kfree_pop>:
    9dc4:	e59f3048 	ldr	r3, [pc, #72]	; 9e14 <kfree_pop+0x50>
    9dc8:	e5933004 	ldr	r3, [r3, #4]
    9dcc:	e1530000 	cmp	r3, r0
    9dd0:	8a000006 	bhi	9df0 <kfree_pop+0x2c>
    9dd4:	e59f3038 	ldr	r3, [pc, #56]	; 9e14 <kfree_pop+0x50>
    9dd8:	e5933000 	ldr	r3, [r3]
    9ddc:	e1530000 	cmp	r3, r0
    9de0:	3a000002 	bcc	9df0 <kfree_pop+0x2c>
    9de4:	e59f3028 	ldr	r3, [pc, #40]	; 9e14 <kfree_pop+0x50>
    9de8:	e5830008 	str	r0, [r3, #8]
    9dec:	e12fff1e 	bx	lr
    9df0:	e52de004 	push	{lr}		; (str lr, [sp, #-4]!)
    9df4:	e24dd00c 	sub	sp, sp, #12, 0
    9df8:	e58d0000 	str	r0, [sp]
    9dfc:	e3a03077 	mov	r3, #119, 0	; 0x77
    9e00:	e59f2010 	ldr	r2, [pc, #16]	; 9e18 <kfree_pop+0x54>
    9e04:	e59f1010 	ldr	r1, [pc, #16]	; 9e1c <kfree_pop+0x58>
    9e08:	e59f0010 	ldr	r0, [pc, #16]	; 9e20 <kfree_pop+0x5c>
    9e0c:	ebfffc36 	bl	8eec <printk>
    9e10:	ebfffe3f 	bl	9714 <clean_reboot>
    9e14:	0000aa30 	andeq	sl, r0, r0, lsr sl
    9e18:	0000aa18 	andeq	sl, r0, r8, lsl sl
    9e1c:	0000a828 	andeq	sl, r0, r8, lsr #16
    9e20:	0000a990 	muleq	r0, r0, r9

00009e24 <internal_putchar>:
    9e24:	e92d4010 	push	{r4, lr}
    9e28:	e1a04000 	mov	r4, r0
    9e2c:	ebfffeea 	bl	99dc <uart_putc>
    9e30:	e1a00004 	mov	r0, r4
    9e34:	e8bd8010 	pop	{r4, pc}

00009e38 <rpi_reset_putc>:
    9e38:	e59f3008 	ldr	r3, [pc, #8]	; 9e48 <rpi_reset_putc+0x10>
    9e3c:	e59f2008 	ldr	r2, [pc, #8]	; 9e4c <rpi_reset_putc+0x14>
    9e40:	e5832000 	str	r2, [r3]
    9e44:	e12fff1e 	bx	lr
    9e48:	0000aa3c 	andeq	sl, r0, ip, lsr sl
    9e4c:	00009e24 	andeq	r9, r0, r4, lsr #28

00009e50 <rpi_set_putc>:
    9e50:	e59f3004 	ldr	r3, [pc, #4]	; 9e5c <rpi_set_putc+0xc>
    9e54:	e5830000 	str	r0, [r3]
    9e58:	e12fff1e 	bx	lr
    9e5c:	0000aa3c 	andeq	sl, r0, ip, lsr sl

00009e60 <strcat>:
    9e60:	e1a02000 	mov	r2, r0
    9e64:	e1a03002 	mov	r3, r2
    9e68:	e2822001 	add	r2, r2, #1, 0
    9e6c:	e5d3c000 	ldrb	ip, [r3]
    9e70:	e35c0000 	cmp	ip, #0, 0
    9e74:	1afffffa 	bne	9e64 <strcat+0x4>
    9e78:	e2433001 	sub	r3, r3, #1, 0
    9e7c:	e5d12000 	ldrb	r2, [r1]
    9e80:	e2811001 	add	r1, r1, #1, 0
    9e84:	e5e32001 	strb	r2, [r3, #1]!
    9e88:	e3520000 	cmp	r2, #0, 0
    9e8c:	1afffffa 	bne	9e7c <strcat+0x1c>
    9e90:	e12fff1e 	bx	lr

00009e94 <strcmp>:
    9e94:	e5d03000 	ldrb	r3, [r0]
    9e98:	e3530000 	cmp	r3, #0, 0
    9e9c:	0a000004 	beq	9eb4 <strcmp+0x20>
    9ea0:	e5d12000 	ldrb	r2, [r1]
    9ea4:	e1530002 	cmp	r3, r2
    9ea8:	02800001 	addeq	r0, r0, #1, 0
    9eac:	02811001 	addeq	r1, r1, #1, 0
    9eb0:	0afffff7 	beq	9e94 <strcmp>
    9eb4:	e5d10000 	ldrb	r0, [r1]
    9eb8:	e0430000 	sub	r0, r3, r0
    9ebc:	e12fff1e 	bx	lr

00009ec0 <strcpy>:
    9ec0:	e1a0c000 	mov	ip, r0
    9ec4:	e5d12000 	ldrb	r2, [r1]
    9ec8:	e2811001 	add	r1, r1, #1, 0
    9ecc:	e5cc2000 	strb	r2, [ip]
    9ed0:	e28cc001 	add	ip, ip, #1, 0
    9ed4:	e3520000 	cmp	r2, #0, 0
    9ed8:	1afffff9 	bne	9ec4 <strcpy+0x4>
    9edc:	e12fff1e 	bx	lr

00009ee0 <strncmp>:
    9ee0:	e3520000 	cmp	r2, #0, 0
    9ee4:	e2422001 	sub	r2, r2, #1, 0
    9ee8:	0a000005 	beq	9f04 <strncmp+0x24>
    9eec:	e4d03001 	ldrb	r3, [r0], #1
    9ef0:	e4d1c001 	ldrb	ip, [r1], #1
    9ef4:	e153000c 	cmp	r3, ip
    9ef8:	0afffff8 	beq	9ee0 <strncmp>
    9efc:	e043000c 	sub	r0, r3, ip
    9f00:	e12fff1e 	bx	lr
    9f04:	e3a00000 	mov	r0, #0, 0
    9f08:	e12fff1e 	bx	lr

00009f0c <reboot_callout>:
    9f0c:	e12fff1e 	bx	lr

00009f10 <dev_barrier>:
    9f10:	ea000002 	b	9f20 <dsb>

00009f14 <dmb>:
    9f14:	e3a00000 	mov	r0, #0, 0
    9f18:	ee070fba 	mcr	15, 0, r0, cr7, cr10, {5}
    9f1c:	e12fff1e 	bx	lr

00009f20 <dsb>:
    9f20:	ee070f9a 	mcr	15, 0, r0, cr7, cr10, {4}
    9f24:	e12fff1e 	bx	lr

00009f28 <gpio_set_function>:
    9f28:	e350001f 	cmp	r0, #31, 0
    9f2c:	812fff1e 	bxhi	lr
    9f30:	e92d4070 	push	{r4, r5, r6, lr}
    9f34:	e1a05001 	mov	r5, r1
    9f38:	e3d13007 	bics	r3, r1, #7, 0
    9f3c:	18bd8070 	popne	{r4, r5, r6, pc}
    9f40:	e59f3040 	ldr	r3, [pc, #64]	; 9f88 <gpio_set_function+0x60>
    9f44:	e0832093 	umull	r2, r3, r3, r0
    9f48:	e1a031a3 	lsr	r3, r3, #3
    9f4c:	e1a02003 	mov	r2, r3
    9f50:	e0833103 	add	r3, r3, r3, lsl #2
    9f54:	e0403083 	sub	r3, r0, r3, lsl #1
    9f58:	e0834083 	add	r4, r3, r3, lsl #1
    9f5c:	e2820302 	add	r0, r2, #134217728	; 0x8000000
    9f60:	e2800702 	add	r0, r0, #524288	; 0x80000
    9f64:	e1a06100 	lsl	r6, r0, #2
    9f68:	e1a00006 	mov	r0, r6
    9f6c:	ebfff82e 	bl	802c <GET32>
    9f70:	e3a01007 	mov	r1, #7, 0
    9f74:	e1c01411 	bic	r1, r0, r1, lsl r4
    9f78:	e1811415 	orr	r1, r1, r5, lsl r4
    9f7c:	e1a00006 	mov	r0, r6
    9f80:	ebfff827 	bl	8024 <PUT32>
    9f84:	e8bd8070 	pop	{r4, r5, r6, pc}
    9f88:	cccccccd 	stclgt	12, cr12, [ip], {205}	; 0xcd

00009f8c <gpio_set_output>:
    9f8c:	e92d4010 	push	{r4, lr}
    9f90:	e3a01001 	mov	r1, #1, 0
    9f94:	ebffffe3 	bl	9f28 <gpio_set_function>
    9f98:	e8bd8010 	pop	{r4, pc}

00009f9c <gpio_set_on>:
    9f9c:	e350001f 	cmp	r0, #31, 0
    9fa0:	812fff1e 	bxhi	lr
    9fa4:	e92d4010 	push	{r4, lr}
    9fa8:	e3a01001 	mov	r1, #1, 0
    9fac:	e1a01011 	lsl	r1, r1, r0
    9fb0:	e59f0004 	ldr	r0, [pc, #4]	; 9fbc <gpio_set_on+0x20>
    9fb4:	ebfff81a 	bl	8024 <PUT32>
    9fb8:	e8bd8010 	pop	{r4, pc}
    9fbc:	2020001c 	eorcs	r0, r0, ip, lsl r0

00009fc0 <gpio_set_off>:
    9fc0:	e350001f 	cmp	r0, #31, 0
    9fc4:	812fff1e 	bxhi	lr
    9fc8:	e92d4010 	push	{r4, lr}
    9fcc:	e3a01001 	mov	r1, #1, 0
    9fd0:	e1a01011 	lsl	r1, r1, r0
    9fd4:	e59f0004 	ldr	r0, [pc, #4]	; 9fe0 <gpio_set_off+0x20>
    9fd8:	ebfff811 	bl	8024 <PUT32>
    9fdc:	e8bd8010 	pop	{r4, pc}
    9fe0:	20200028 	eorcs	r0, r0, r8, lsr #32

00009fe4 <gpio_set_input>:
    9fe4:	e92d4010 	push	{r4, lr}
    9fe8:	e3a01000 	mov	r1, #0, 0
    9fec:	ebffffcd 	bl	9f28 <gpio_set_function>
    9ff0:	e8bd8010 	pop	{r4, pc}

00009ff4 <gpio_write>:
    9ff4:	e92d4010 	push	{r4, lr}
    9ff8:	e3510000 	cmp	r1, #0, 0
    9ffc:	0a000001 	beq	a008 <gpio_write+0x14>
    a000:	ebffffe5 	bl	9f9c <gpio_set_on>
    a004:	e8bd8010 	pop	{r4, pc}
    a008:	ebffffec 	bl	9fc0 <gpio_set_off>
    a00c:	e8bd8010 	pop	{r4, pc}

0000a010 <gpio_read>:
    a010:	e350001f 	cmp	r0, #31, 0
    a014:	8a000007 	bhi	a038 <gpio_read+0x28>
    a018:	e92d4010 	push	{r4, lr}
    a01c:	e200401f 	and	r4, r0, #31, 0
    a020:	e59f3018 	ldr	r3, [pc, #24]	; a040 <gpio_read+0x30>
    a024:	e08302a0 	add	r0, r3, r0, lsr #5
    a028:	ebfff7ff 	bl	802c <GET32>
    a02c:	e1a00430 	lsr	r0, r0, r4
    a030:	e2000001 	and	r0, r0, #1, 0
    a034:	e8bd8010 	pop	{r4, pc}
    a038:	e3e00000 	mvn	r0, #0, 0
    a03c:	e12fff1e 	bx	lr
    a040:	20200034 	eorcs	r0, r0, r4, lsr r0

0000a044 <__code_end__>:
    a044:	00000000 	andeq	r0, r0, r0

Disassembly of section .rodata:

0000a048 <__FUNCTION__.4034-0x84>:
    a048:	74736574 	ldrbtvc	r6, [r3], #-1396	; 0xfffffa8c
    a04c:	6c203a34 			; <UNDEFINED> instruction: 0x6c203a34
    a050:	65677261 	strbvs	r7, [r7, #-609]!	; 0xfffffd9f
    a054:	6c612072 	stclvs	0, cr2, [r1], #-456	; 0xfffffe38
    a058:	2c636f6c 	stclcs	15, cr6, [r3], #-432	; 0xfffffe50
    a05c:	206f6e20 	rsbcs	r6, pc, r0, lsr #28
    a060:	6f727265 	svcvs	0x00727265
    a064:	00000a72 	andeq	r0, r0, r2, ror sl
    a068:	74736574 	ldrbtvc	r6, [r3], #-1396	; 0xfffffa8c
    a06c:	2e332d73 	mrccs	13, 1, r2, cr3, cr3, {3}
    a070:	61702f30 	cmnvs	r0, r0, lsr pc
    a074:	2d317472 	cfldrscs	mvf7, [r1, #-456]!	; 0xfffffe38
    a078:	74736574 	ldrbtvc	r6, [r3], #-1396	; 0xfffffa8c
    a07c:	6f6e2d35 	svcvs	0x006e2d35
    a080:	6775622d 	ldrbvs	r6, [r5, -sp, lsr #4]!
    a084:	0000632e 	andeq	r6, r0, lr, lsr #6
    a088:	494e4150 	stmdbmi	lr, {r4, r6, r8, lr}^
    a08c:	73253a43 			; <UNDEFINED> instruction: 0x73253a43
    a090:	3a73253a 	bcc	1cd3580 <__bss_end__+0x1cc8710>
    a094:	693a6425 	ldmdbvs	sl!, {r0, r2, r5, sl, sp, lr}
    a098:	6c61766e 	stclvs	6, cr7, [r1], #-440	; 0xfffffe48
    a09c:	65206469 	strvs	r6, [r0, #-1129]!	; 0xfffffb97
    a0a0:	726f7272 	rsbvc	r7, pc, #536870919	; 0x20000007
    a0a4:	0a0a2121 	beq	292530 <__bss_end__+0x2876c0>
    a0a8:	00000000 	andeq	r0, r0, r0
    a0ac:	43415254 	movtmi	r5, #4692	; 0x1254
    a0b0:	55533a45 	ldrbpl	r3, [r3, #-2629]	; 0xfffff5bb
    a0b4:	53454343 	movtpl	r4, #21315	; 0x5343
    a0b8:	65682053 	strbvs	r2, [r8, #-83]!	; 0xffffffad
    a0bc:	63207061 			; <UNDEFINED> instruction: 0x63207061
    a0c0:	6b636568 	blvs	18e3668 <__bss_end__+0x18d87f8>
    a0c4:	6f206465 	svcvs	0x00206465
    a0c8:	000a7475 	andeq	r7, sl, r5, ror r4

0000a0cc <__FUNCTION__.4034>:
    a0cc:	6d746f6e 	ldclvs	15, cr6, [r4, #-440]!	; 0xfffffe48
    a0d0:	006e6961 	rsbeq	r6, lr, r1, ror #18
    a0d4:	6c616b63 			; <UNDEFINED> instruction: 0x6c616b63
    a0d8:	2e636f6c 	cdpcs	15, 6, cr6, cr3, cr12, {3}
    a0dc:	00000063 	andeq	r0, r0, r3, rrx
    a0e0:	494e4150 	stmdbmi	lr, {r4, r6, r8, lr}^
    a0e4:	73253a43 			; <UNDEFINED> instruction: 0x73253a43
    a0e8:	3a73253a 	bcc	1cd35d8 <__bss_end__+0x1cc8768>
    a0ec:	253a6425 	ldrcs	r6, [sl, #-1061]!	; 0xfffffbdb
    a0f0:	00000a73 	andeq	r0, r0, r3, ror sl
    a0f4:	0000006c 	andeq	r0, r0, ip, rrx
    a0f8:	43415254 	movtmi	r5, #4692	; 0x1254
    a0fc:	6f663a45 	svcvs	0x00663a45
    a100:	20646e75 	rsbcs	r6, r4, r5, ror lr
    a104:	69207025 	stmdbvs	r0!, {r0, r2, r5, ip, sp, lr}
    a108:	7025206e 	eorvc	r2, r5, lr, rrx
    a10c:	0000000a 	andeq	r0, r0, sl
    a110:	43415254 	movtmi	r5, #4692	; 0x1254
    a114:	6f663a45 	svcvs	0x00663a45
    a118:	20646e75 	rsbcs	r6, r4, r5, ror lr
    a11c:	6f6c6c61 	svcvs	0x006c6c61
    a120:	65746163 	ldrbvs	r6, [r4, #-355]!	; 0xfffffe9d
    a124:	70252064 	eorvc	r2, r5, r4, rrx
    a128:	206e6920 	rsbcs	r6, lr, r0, lsr #18
    a12c:	000a7025 	andeq	r7, sl, r5, lsr #32
    a130:	43415254 	movtmi	r5, #4692	; 0x1254
    a134:	68633a45 	stmdavs	r3!, {r0, r2, r6, r9, fp, ip, sp}^
    a138:	696b6365 	stmdbvs	fp!, {r0, r2, r5, r6, r8, r9, sp, lr}^
    a13c:	6820676e 	stmdavs	r0!, {r1, r2, r3, r5, r6, r8, r9, sl, sp, lr}
    a140:	20706165 	rsbscs	r6, r0, r5, ror #2
    a144:	20726f66 	rsbscs	r6, r2, r6, ror #30
    a148:	6f727265 	svcvs	0x00727265
    a14c:	2e2e7372 	mcrcs	3, 1, r7, cr14, cr2, {3}
    a150:	00000a2e 	andeq	r0, r0, lr, lsr #20
    a154:	43415254 	movtmi	r5, #4692	; 0x1254
    a158:	65723a45 	ldrbvs	r3, [r2, #-2629]!	; 0xfffff5bb
    a15c:	6e6f7a64 	vnmulvs.f32	s15, s30, s9
    a160:	69207365 	stmdbvs	r0!, {r0, r2, r5, r6, r8, r9, ip, sp, lr}
    a164:	6d72636e 	ldclvs	3, cr6, [r2, #-440]!	; 0xfffffe48
    a168:	69746e65 	ldmdbvs	r4!, {r0, r2, r5, r6, r9, sl, fp, sp, lr}^
    a16c:	6520676e 	strvs	r6, [r0, #-1902]!	; 0xfffff892
    a170:	736f7272 	cmnvc	pc, #536870919	; 0x20000007
    a174:	00000000 	andeq	r0, r0, r0
    a178:	43415254 	movtmi	r5, #4692	; 0x1254
    a17c:	64753a45 	ldrbtvs	r3, [r5], #-2629	; 0xfffff5bb
    a180:	20617461 	rsbcs	r7, r1, r1, ror #8
    a184:	72636e69 	rsbvc	r6, r3, #1680	; 0x690
    a188:	6e656d65 	cdpvs	13, 6, cr6, cr5, cr5, {3}
    a18c:	676e6974 			; <UNDEFINED> instruction: 0x676e6974
    a190:	72726520 	rsbsvc	r6, r2, #32, 10	; 0x8000000
    a194:	000a2e73 	andeq	r2, sl, r3, ror lr
    a198:	5f434f4c 	svcpl	0x00434f4c
    a19c:	494e4150 	stmdbmi	lr, {r4, r6, r8, lr}^
    a1a0:	25203a43 	strcs	r3, [r0, #-2627]!	; 0xfffff5bd
    a1a4:	73253a73 			; <UNDEFINED> instruction: 0x73253a73
    a1a8:	3a64253a 	bcc	1913698 <__bss_end__+0x1908828>
    a1ac:	00000000 	andeq	r0, r0, r0
    a1b0:	65657266 	strbvs	r7, [r5, #-614]!	; 0xfffffd9a
    a1b4:	20676e69 	rsbcs	r6, r7, r9, ror #28
    a1b8:	6c616e75 	stclvs	14, cr6, [r1], #-468	; 0xfffffe2c
    a1bc:	61636f6c 	cmnvs	r3, ip, ror #30
    a1c0:	20646574 	rsbcs	r6, r4, r4, ror r5
    a1c4:	6f6d656d 	svcvs	0x006d656d
    a1c8:	203a7972 	eorscs	r7, sl, r2, ror r9
    a1cc:	6464615b 	strbtvs	r6, [r4], #-347	; 0xfffffea5
    a1d0:	203d2072 	eorscs	r2, sp, r2, ror r0
    a1d4:	73207025 			; <UNDEFINED> instruction: 0x73207025
    a1d8:	65746174 	ldrbvs	r6, [r4, #-372]!	; 0xfffffe8c
    a1dc:	5d64253d 	cfstr64pl	mvdx2, [r4, #-244]!	; 0xffffff0c
    a1e0:	0000000a 	andeq	r0, r0, sl
    a1e4:	253a7325 	ldrcs	r7, [sl, #-805]!	; 0xfffffcdb
    a1e8:	64253a73 	strtvs	r3, [r5], #-2675	; 0xfffff58d
    a1ec:	0000003a 	andeq	r0, r0, sl, lsr r0
    a1f0:	65657266 	strbvs	r7, [r5, #-614]!	; 0xfffffd9a
    a1f4:	20676e69 	rsbcs	r6, r7, r9, ror #28
    a1f8:	636f6c62 	cmnvs	pc, #25088	; 0x6200
    a1fc:	203d206b 	eorscs	r2, sp, fp, rrx
    a200:	5b206425 	blpl	82329c <__bss_end__+0x81842c>
    a204:	72646461 	rsbvc	r6, r4, #1627389952	; 0x61000000
    a208:	25203d20 	strcs	r3, [r0, #-3360]!	; 0xfffff2e0
    a20c:	000a5d70 	andeq	r5, sl, r0, ror sp
    a210:	705f6b63 	subsvc	r6, pc, r3, ror #22
    a214:	695f7274 	ldmdbvs	pc, {r2, r4, r5, r6, r9, ip, sp, lr}^	; <UNPREDICTABLE>
    a218:	6c615f73 	stclvs	15, cr5, [r1], #-460	; 0xfffffe34
    a21c:	65636f6c 	strbvs	r6, [r3, #-3948]!	; 0xfffff094
    a220:	64612864 	strbtvs	r2, [r1], #-2148	; 0xfffff79c
    a224:	20297264 	eorcs	r7, r9, r4, ror #4
    a228:	30203d21 	eorcc	r3, r0, r1, lsr #26
    a22c:	00000000 	andeq	r0, r0, r0
    a230:	494e4150 	stmdbmi	lr, {r4, r6, r8, lr}^
    a234:	73253a43 			; <UNDEFINED> instruction: 0x73253a43
    a238:	3a73253a 	bcc	1cd3728 <__bss_end__+0x1cc88b8>
    a23c:	453a6425 	ldrmi	r6, [sl, #-1061]!	; 0xfffffbdb
    a240:	726f7272 	rsbvc	r7, pc, #536870919	; 0x20000007
    a244:	6572203a 	ldrbvs	r2, [r2, #-58]!	; 0xffffffc6
    a248:	6e6f7a64 	vnmulvs.f32	s15, s30, s9
    a24c:	6f632065 	svcvs	0x00632065
    a250:	70757272 	rsbsvc	r7, r5, r2, ror r2
    a254:	6e6f6974 			; <UNDEFINED> instruction: 0x6e6f6974
    a258:	74656420 	strbtvc	r6, [r5], #-1056	; 0xfffffbe0
    a25c:	65746365 	ldrbvs	r6, [r4, #-869]!	; 0xfffffc9b
    a260:	6e6f2064 	cdpvs	0, 6, cr2, cr15, cr4, {3}
    a264:	65726620 	ldrbvs	r6, [r2, #-1568]!	; 0xfffff9e0
    a268:	666f2065 	strbtvs	r2, [pc], -r5, rrx
    a26c:	6f6c6220 	svcvs	0x006c6220
    a270:	3d206b63 	fstmdbxcc	r0!, {d6-d54}	;@ Deprecated
    a274:	20642520 	rsbcs	r2, r4, r0, lsr #10
    a278:	6464615b 	strbtvs	r6, [r4], #-347	; 0xfffffea5
    a27c:	203d2072 	eorscs	r2, sp, r2, ror r0
    a280:	2e5d7825 	cdpcs	8, 5, cr7, cr13, cr5, {1}
    a284:	00000a0a 	andeq	r0, r0, sl, lsl #20
    a288:	5f6b6321 	svcpl	0x006b6321
    a28c:	5f727470 	svcpl	0x00727470
    a290:	615f7369 	cmpvs	pc, r9, ror #6
    a294:	636f6c6c 	cmnvs	pc, #108, 24	; 0x6c00
    a298:	61286465 			; <UNDEFINED> instruction: 0x61286465
    a29c:	29726464 	ldmdbcs	r2!, {r2, r5, r6, sl, sp, lr}^
    a2a0:	00000000 	andeq	r0, r0, r0
    a2a4:	6f6c6c61 	svcvs	0x006c6c61
    a2a8:	69746163 	ldmdbvs	r4!, {r0, r1, r5, r6, r8, sp, lr}^
    a2ac:	6220676e 	eorvs	r6, r0, #28835840	; 0x1b80000
    a2b0:	6b636f6c 	blvs	18e6068 <__bss_end__+0x18db1f8>
    a2b4:	25203d20 	strcs	r3, [r0, #-3360]!	; 0xfffff2e0
    a2b8:	615b2064 	cmpvs	fp, r4, rrx
    a2bc:	20726464 	rsbscs	r6, r2, r4, ror #8
    a2c0:	7025203d 	eorvc	r2, r5, sp, lsr r0
    a2c4:	00000a5d 	andeq	r0, r0, sp, asr sl

0000a2c8 <__FUNCTION__.4064>:
    a2c8:	7473696c 	ldrbtvc	r6, [r3], #-2412	; 0xfffff694
    a2cc:	7070615f 	rsbsvc	r6, r0, pc, asr r1
    a2d0:	00646e65 	rsbeq	r6, r4, r5, ror #28

0000a2d4 <__FUNCTION__.4126>:
    a2d4:	72666b63 	rsbvc	r6, r6, #101376	; 0x18c00
    a2d8:	00006565 	andeq	r6, r0, r5, ror #10
    a2dc:	2d2d2d2d 	stccs	13, cr2, [sp, #-180]!	; 0xffffff4c
    a2e0:	2d2d2d2d 	stccs	13, cr2, [sp, #-180]!	; 0xffffff4c
    a2e4:	2d2d2d2d 	stccs	13, cr2, [sp, #-180]!	; 0xffffff4c
    a2e8:	2d2d2d2d 	stccs	13, cr2, [sp, #-180]!	; 0xffffff4c
    a2ec:	2d2d2d2d 	stccs	13, cr2, [sp, #-180]!	; 0xffffff4c
    a2f0:	2d2d2d2d 	stccs	13, cr2, [sp, #-180]!	; 0xffffff4c
    a2f4:	2d2d2d2d 	stccs	13, cr2, [sp, #-180]!	; 0xffffff4c
    a2f8:	2d2d2d2d 	stccs	13, cr2, [sp, #-180]!	; 0xffffff4c
    a2fc:	2d2d2d2d 	stccs	13, cr2, [sp, #-180]!	; 0xffffff4c
    a300:	2d2d2d2d 	stccs	13, cr2, [sp, #-180]!	; 0xffffff4c
    a304:	2d2d2d2d 	stccs	13, cr2, [sp, #-180]!	; 0xffffff4c
    a308:	2d2d2d2d 	stccs	13, cr2, [sp, #-180]!	; 0xffffff4c
    a30c:	2d2d2d2d 	stccs	13, cr2, [sp, #-180]!	; 0xffffff4c
    a310:	2d2d2d2d 	stccs	13, cr2, [sp, #-180]!	; 0xffffff4c
    a314:	00000a2d 	andeq	r0, r0, sp, lsr #20
    a318:	63656863 	cmnvs	r5, #6488064	; 0x630000
    a31c:	676e696b 	strbvs	r6, [lr, -fp, ror #18]!
    a320:	726f6620 	rsbvc	r6, pc, #32, 12	; 0x2000000
    a324:	61656c20 	cmnvs	r5, r0, lsr #24
    a328:	0a3a736b 	beq	ea70dc <__bss_end__+0xe9c26c>
    a32c:	00000000 	andeq	r0, r0, r0
    a330:	43415254 	movtmi	r5, #4692	; 0x1254
    a334:	69663a45 	stmdbvs	r6!, {r0, r2, r6, r9, fp, ip, sp}^
    a338:	3a747372 	bcc	1d27108 <__bss_end__+0x1d1c298>
    a33c:	72756320 	rsbsvc	r6, r5, #32, 6	; 0x80000000
    a340:	203d2072 	eorscs	r2, sp, r2, ror r0
    a344:	202c7825 	eorcs	r7, ip, r5, lsr #16
    a348:	72617473 	rsbvc	r7, r1, #1929379840	; 0x73000000
    a34c:	65722074 	ldrbvs	r2, [r2, #-116]!	; 0xffffff8c
    a350:	3d207366 	stccc	3, cr7, [r0, #-408]!	; 0xfffffe68
    a354:	2c642520 	cfstr64cs	mvdx2, [r4], #-128	; 0xffffff80
    a358:	64696d20 	strbtvs	r6, [r9], #-3360	; 0xfffff2e0
    a35c:	66657220 	strbtvs	r7, [r5], -r0, lsr #4
    a360:	203d2073 	eorscs	r2, sp, r3, ror r0
    a364:	000a6425 	andeq	r6, sl, r5, lsr #8
    a368:	43415254 	movtmi	r5, #4692	; 0x1254
    a36c:	696d3a45 	stmdbvs	sp!, {r0, r2, r6, r9, fp, ip, sp}^
    a370:	203a6464 	eorscs	r6, sl, r4, ror #8
    a374:	72727563 	rsbsvc	r7, r2, #415236096	; 0x18c00000
    a378:	25203d20 	strcs	r3, [r0, #-3360]!	; 0xfffff2e0
    a37c:	73202c78 			; <UNDEFINED> instruction: 0x73202c78
    a380:	74726174 	ldrbtvc	r6, [r2], #-372	; 0xfffffe8c
    a384:	66657220 	strbtvs	r7, [r5], -r0, lsr #4
    a388:	203d2073 	eorscs	r2, sp, r3, ror r0
    a38c:	202c6425 	eorcs	r6, ip, r5, lsr #8
    a390:	2064696d 	rsbcs	r6, r4, sp, ror #18
    a394:	73666572 	cmnvc	r6, #478150656	; 0x1c800000
    a398:	25203d20 	strcs	r3, [r0, #-3360]!	; 0xfffff2e0
    a39c:	00000a64 	andeq	r0, r0, r4, ror #20
    a3a0:	43415254 	movtmi	r5, #4692	; 0x1254
    a3a4:	6c203a45 			; <UNDEFINED> instruction: 0x6c203a45
    a3a8:	3a747361 	bcc	1d27134 <__bss_end__+0x1d1c2c4>
    a3ac:	72756320 	rsbsvc	r6, r5, #32, 6	; 0x80000000
    a3b0:	203d2072 	eorscs	r2, sp, r2, ror r0
    a3b4:	202c7825 	eorcs	r7, ip, r5, lsr #16
    a3b8:	72617473 	rsbvc	r7, r1, #1929379840	; 0x73000000
    a3bc:	65722074 	ldrbvs	r2, [r2, #-116]!	; 0xffffff8c
    a3c0:	3d207366 	stccc	3, cr7, [r0, #-408]!	; 0xfffffe68
    a3c4:	2c642520 	cfstr64cs	mvdx2, [r4], #-128	; 0xffffff80
    a3c8:	64696d20 	strbtvs	r6, [r9], #-3360	; 0xfffff2e0
    a3cc:	66657220 	strbtvs	r7, [r5], -r0, lsr #4
    a3d0:	203d2073 	eorscs	r2, sp, r3, ror r0
    a3d4:	000a6425 	andeq	r6, sl, r5, lsr #8
    a3d8:	43415254 	movtmi	r5, #4692	; 0x1254
    a3dc:	756f3a45 	strbvc	r3, [pc, #-2629]!	; 999f <uart_can_putc+0x13>
    a3e0:	64697374 	strbtvs	r7, [r9], #-884	; 0xfffffc8c
    a3e4:	63203a65 			; <UNDEFINED> instruction: 0x63203a65
    a3e8:	20727275 	rsbscs	r7, r2, r5, ror r2
    a3ec:	7825203d 	stmdavc	r5!, {r0, r2, r3, r4, r5, sp}
    a3f0:	7473202c 	ldrbtvc	r2, [r3], #-44	; 0xffffffd4
    a3f4:	20747261 	rsbscs	r7, r4, r1, ror #4
    a3f8:	73666572 	cmnvc	r6, #478150656	; 0x1c800000
    a3fc:	25203d20 	strcs	r3, [r0, #-3360]!	; 0xfffff2e0
    a400:	6d202c64 	stcvs	12, cr2, [r0, #-400]!	; 0xfffffe70
    a404:	72206469 	eorvc	r6, r0, #1761607680	; 0x69000000
    a408:	20736665 	rsbscs	r6, r3, r5, ror #12
    a40c:	6425203d 	strtvs	r2, [r5], #-61	; 0xffffffc3
    a410:	0000000a 	andeq	r0, r0, sl
    a414:	43415254 	movtmi	r5, #4692	; 0x1254
    a418:	47093a45 	strmi	r3, [r9, -r5, asr #20]
    a41c:	68433a43 	stmdavs	r3, {r0, r1, r6, r9, fp, ip, sp}^
    a420:	656b6365 	strbvs	r6, [fp, #-869]!	; 0xfffffc9b
    a424:	64252064 	strtvs	r2, [r5], #-100	; 0xffffff9c
    a428:	6f6c6220 	svcvs	0x006c6220
    a42c:	2e736b63 	vsubcs.f64	d22, d3, d19
    a430:	0000000a 	andeq	r0, r0, sl
    a434:	43415254 	movtmi	r5, #4692	; 0x1254
    a438:	09093a45 	stmdbeq	r9, {r0, r2, r6, r9, fp, ip, sp}
    a43c:	533a4347 	teqpl	sl, #469762049	; 0x1c000001
    a440:	45434355 	strbmi	r4, [r3, #-853]	; 0xfffffcab
    a444:	203a5353 	eorscs	r5, sl, r3, asr r3
    a448:	6c206f4e 	stcvs	15, cr6, [r0], #-312	; 0xfffffec8
    a44c:	736b6165 	cmnvc	fp, #1073741849	; 0x40000019
    a450:	756f6620 	strbvc	r6, [pc, #-1568]!	; 9e38 <rpi_reset_putc>
    a454:	0a21646e 	beq	863614 <__bss_end__+0x8587a4>
    a458:	00000000 	andeq	r0, r0, r0
    a45c:	43415254 	movtmi	r5, #4692	; 0x1254
    a460:	09093a45 	stmdbeq	r9, {r0, r2, r6, r9, fp, ip, sp}
    a464:	453a4347 	ldrmi	r4, [sl, #-839]!	; 0xfffffcb9
    a468:	524f5252 	subpl	r5, pc, #536870917	; 0x20000005
    a46c:	25203a53 	strcs	r3, [r0, #-2643]!	; 0xfffff5ad
    a470:	72652064 	rsbvc	r2, r5, #100, 0	; 0x64
    a474:	73726f72 	cmnvc	r2, #456	; 0x1c8
    a478:	6425202c 	strtvs	r2, [r5], #-44	; 0xffffffd4
    a47c:	79616d20 	stmdbvc	r1!, {r5, r8, sl, fp, sp, lr}^
    a480:	655f6562 	ldrbvs	r6, [pc, #-1378]	; 9f26 <dsb+0x6>
    a484:	726f7272 	rsbvc	r7, pc, #536870919	; 0x20000007
    a488:	00000a73 	andeq	r0, r0, r3, ror sl
    a48c:	2d2d2d2d 	stccs	13, cr2, [sp, #-180]!	; 0xffffff4c
    a490:	2d2d2d2d 	stccs	13, cr2, [sp, #-180]!	; 0xffffff4c
    a494:	2d2d2d2d 	stccs	13, cr2, [sp, #-180]!	; 0xffffff4c
    a498:	2d2d2d2d 	stccs	13, cr2, [sp, #-180]!	; 0xffffff4c
    a49c:	2d2d2d2d 	stccs	13, cr2, [sp, #-180]!	; 0xffffff4c
    a4a0:	2d2d2d2d 	stccs	13, cr2, [sp, #-180]!	; 0xffffff4c
    a4a4:	2d2d2d2d 	stccs	13, cr2, [sp, #-180]!	; 0xffffff4c
    a4a8:	2d2d2d2d 	stccs	13, cr2, [sp, #-180]!	; 0xffffff4c
    a4ac:	2d2d2d2d 	stccs	13, cr2, [sp, #-180]!	; 0xffffff4c
    a4b0:	2d2d2d2d 	stccs	13, cr2, [sp, #-180]!	; 0xffffff4c
    a4b4:	2d2d2d2d 	stccs	13, cr2, [sp, #-180]!	; 0xffffff4c
    a4b8:	2d2d2d2d 	stccs	13, cr2, [sp, #-180]!	; 0xffffff4c
    a4bc:	2d2d2d2d 	stccs	13, cr2, [sp, #-180]!	; 0xffffff4c
    a4c0:	2d2d2d2d 	stccs	13, cr2, [sp, #-180]!	; 0xffffff4c
    a4c4:	000a2d2d 	andeq	r2, sl, sp, lsr #26
    a4c8:	706d6f63 	rsbvc	r6, sp, r3, ror #30
    a4cc:	69746361 	ldmdbvs	r4!, {r0, r5, r6, r8, r9, sp, lr}^
    a4d0:	0a3a676e 	beq	ea4290 <__bss_end__+0xe99420>
    a4d4:	00000000 	andeq	r0, r0, r0
    a4d8:	43415254 	movtmi	r5, #4692	; 0x1254
    a4dc:	656c3a45 	strbvs	r3, [ip, #-2629]!	; 0xfffff5bb
    a4e0:	66206b61 	strtvs	r6, [r0], -r1, ror #22
    a4e4:	646e756f 	strbtvs	r7, [lr], #-1391	; 0xfffffa91
    a4e8:	726f6620 	rsbvc	r6, pc, #32, 12	; 0x2000000
    a4ec:	6f6c6220 	svcvs	0x006c6220
    a4f0:	203a6b63 	eorscs	r6, sl, r3, ror #22
    a4f4:	5b206425 	blpl	823590 <__bss_end__+0x818720>
    a4f8:	72646461 	rsbvc	r6, r4, #1627389952	; 0x61000000
    a4fc:	25203d20 	strcs	r3, [r0, #-3360]!	; 0xfffff2e0
    a500:	202e5d64 	eorcs	r5, lr, r4, ror #26
    a504:	65657246 	strbvs	r7, [r5, #-582]!	; 0xfffffdba
    a508:	2e676e69 	cdpcs	14, 6, cr6, cr7, cr9, {3}
    a50c:	0000000a 	andeq	r0, r0, sl
    a510:	43415254 	movtmi	r5, #4692	; 0x1254
    a514:	47093a45 	strmi	r3, [r9, -r5, asr #20]
    a518:	68433a43 	stmdavs	r3, {r0, r1, r6, r9, fp, ip, sp}^
    a51c:	656b6365 	strbvs	r6, [fp, #-869]!	; 0xfffffc9b
    a520:	64252064 	strtvs	r2, [r5], #-100	; 0xffffff9c
    a524:	6f6c6220 	svcvs	0x006c6220
    a528:	2c736b63 			; <UNDEFINED> instruction: 0x2c736b63
    a52c:	65726620 	ldrbvs	r6, [r2, #-1568]!	; 0xfffff9e0
    a530:	25206465 	strcs	r6, [r0, #-1125]!	; 0xfffffb9b
    a534:	25202c64 	strcs	r2, [r0, #-3172]!	; 0xfffff39c
    a538:	79622064 	stmdbvc	r2!, {r2, r5, r6, sp}^
    a53c:	0a736574 	beq	1ce3b14 <__bss_end__+0x1cd8ca4>
    a540:	00000000 	andeq	r0, r0, r0
    a544:	672d6b63 	strvs	r6, [sp, -r3, ror #22]!
    a548:	00632e63 	rsbeq	r2, r3, r3, ror #28
    a54c:	00653c70 	rsbeq	r3, r5, r0, ror ip
    a550:	67696c61 	strbvs	r6, [r9, -r1, ror #24]!
    a554:	2864656e 	stmdacs	r4!, {r1, r2, r3, r5, r6, r8, sl, sp, lr}^
    a558:	29342c70 	ldmdbcs	r4!, {r4, r5, r6, sl, fp, sp}
    a55c:	00000000 	andeq	r0, r0, r0
    a560:	67696c61 	strbvs	r6, [r9, -r1, ror #24]!
    a564:	2864656e 	stmdacs	r4!, {r1, r2, r3, r5, r6, r8, sl, sp, lr}^
    a568:	29342c65 	ldmdbcs	r4!, {r0, r2, r5, r6, sl, fp, sp}
    a56c:	00000000 	andeq	r0, r0, r0
    a570:	43415254 	movtmi	r5, #4692	; 0x1254
    a574:	6e693a45 	vnmulvs.f32	s7, s18, s10
    a578:	72627320 	rsbvc	r7, r2, #32, 6	; 0x80000000
    a57c:	00000a6b 	andeq	r0, r0, fp, ror #20
    a580:	72636e69 	rsbvc	r6, r3, #1680	; 0x690
    a584:	6e656d65 	cdpvs	13, 6, cr6, cr5, cr5, {3}
    a588:	203e2074 	eorscs	r2, lr, r4, ror r0
    a58c:	00000030 	andeq	r0, r0, r0, lsr r0
    a590:	43415254 	movtmi	r5, #4692	; 0x1254
    a594:	614d3a45 	cmpvs	sp, r5, asr #20
    a598:	6e696b72 	vmovvs.8	d9[7], r6
    a59c:	2e2e2e67 	cdpcs	14, 2, cr2, cr14, cr7, {3}
    a5a0:	00000000 	andeq	r0, r0, r0
    a5a4:	656e6f44 	strbvs	r6, [lr, #-3908]!	; 0xfffff0bc
    a5a8:	00000a21 	andeq	r0, r0, r1, lsr #20
    a5ac:	494e4150 	stmdbmi	lr, {r4, r6, r8, lr}^
    a5b0:	73253a43 			; <UNDEFINED> instruction: 0x73253a43
    a5b4:	3a73253a 	bcc	1cd3aa4 <__bss_end__+0x1cc8c34>
    a5b8:	473a6425 	ldrmi	r6, [sl, -r5, lsr #8]!
    a5bc:	73203a43 			; <UNDEFINED> instruction: 0x73203a43
    a5c0:	6c756f68 	ldclvs	15, cr6, [r5], #-416	; 0xfffffe60
    a5c4:	61682064 	cmnvs	r8, r4, rrx
    a5c8:	6e206576 	mcrvs	5, 1, r6, cr0, cr6, {3}
    a5cc:	656c206f 	strbvs	r2, [ip, #-111]!	; 0xffffff91
    a5d0:	21736b61 	cmncs	r3, r1, ror #22
    a5d4:	00000a0a 	andeq	r0, r0, sl, lsl #20
    a5d8:	43415254 	movtmi	r5, #4692	; 0x1254
    a5dc:	43473a45 	movtmi	r3, #31301	; 0x7a45
    a5e0:	5553203a 	ldrbpl	r2, [r3, #-58]	; 0xffffffc6
    a5e4:	53454343 	movtpl	r4, #21315	; 0x5343
    a5e8:	6e203a53 			; <UNDEFINED> instruction: 0x6e203a53
    a5ec:	656c206f 	strbvs	r2, [ip, #-111]!	; 0xffffff91
    a5f0:	21736b61 	cmncs	r3, r1, ror #22
    a5f4:	0000000a 	andeq	r0, r0, sl
    a5f8:	494e4150 	stmdbmi	lr, {r4, r6, r8, lr}^
    a5fc:	73253a43 			; <UNDEFINED> instruction: 0x73253a43
    a600:	3a73253a 	bcc	1cd3af0 <__bss_end__+0x1cc8c80>
    a604:	473a6425 	ldrmi	r6, [sl, -r5, lsr #8]!
    a608:	73203a43 			; <UNDEFINED> instruction: 0x73203a43
    a60c:	6c756f68 	ldclvs	15, cr6, [r5], #-416	; 0xfffffe60
    a610:	61682064 	cmnvs	r8, r4, rrx
    a614:	6c206576 	cfstr32vs	mvfx6, [r0], #-472	; 0xfffffe28
    a618:	736b6165 	cmnvc	fp, #1073741849	; 0x40000019
    a61c:	000a0a21 	andeq	r0, sl, r1, lsr #20
    a620:	43415254 	movtmi	r5, #4692	; 0x1254
    a624:	43473a45 	movtmi	r3, #31301	; 0x7a45
    a628:	5553203a 	ldrbpl	r2, [r3, #-58]	; 0xffffffc6
    a62c:	53454343 	movtpl	r4, #21315	; 0x5343
    a630:	66203a53 			; <UNDEFINED> instruction: 0x66203a53
    a634:	646e756f 	strbtvs	r7, [lr], #-1391	; 0xfffffa91
    a638:	20642520 	rsbcs	r2, r4, r0, lsr #10
    a63c:	6b61656c 	blvs	1863bf4 <__bss_end__+0x1858d84>
    a640:	000a2173 	andeq	r2, sl, r3, ror r1
    a644:	494e4150 	stmdbmi	lr, {r4, r6, r8, lr}^
    a648:	73253a43 			; <UNDEFINED> instruction: 0x73253a43
    a64c:	3a73253a 	bcc	1cd3b3c <__bss_end__+0x1cc8ccc>
    a650:	643a6425 	ldrtvs	r6, [sl], #-1061	; 0xfffffbdb
    a654:	6e206469 	cdpvs	4, 2, cr6, cr0, cr9, {3}
    a658:	6920746f 	stmdbvs	r0!, {r0, r1, r2, r3, r5, r6, sl, ip, sp, lr}
    a65c:	656c706d 	strbvs	r7, [ip, #-109]!	; 0xffffff93
    a660:	746e656d 	strbtvc	r6, [lr], #-1389	; 0xfffffa93
    a664:	6d756420 	cfldrdvs	mvd6, [r5, #-128]!	; 0xffffff80
    a668:	65725f70 	ldrbvs	r5, [r2, #-3952]!	; 0xfffff090
    a66c:	0a217367 	beq	867410 <__bss_end__+0x85c5a0>
    a670:	0000000a 	andeq	r0, r0, sl

0000a674 <__FUNCTION__.4067>:
    a674:	6b72616d 	blvs	1ca2c30 <__bss_end__+0x1c97dc0>
    a678:	00000000 	andeq	r0, r0, r0

0000a67c <__FUNCTION__.4054>:
    a67c:	6b726273 	blvs	1ca3050 <__bss_end__+0x1c981e0>
    a680:	00000000 	andeq	r0, r0, r0

0000a684 <__FUNCTION__.4114>:
    a684:	63656863 	cmnvs	r5, #6488064	; 0x630000
    a688:	6f6e5f6b 	svcvs	0x006e5f6b
    a68c:	61656c5f 	cmnvs	r5, pc, asr ip
    a690:	0000006b 	andeq	r0, r0, fp, rrx

0000a694 <__FUNCTION__.4119>:
    a694:	63656863 	cmnvs	r5, #6488064	; 0x630000
    a698:	68735f6b 	ldmdavs	r3!, {r0, r1, r3, r5, r6, r8, r9, sl, fp, ip, lr}^
    a69c:	646c756f 	strbtvs	r7, [ip], #-1391	; 0xfffffa91
    a6a0:	61656c5f 	cmnvs	r5, pc, asr ip
    a6a4:	0000006b 	andeq	r0, r0, fp, rrx

0000a6a8 <__FUNCTION__.4137>:
    a6a8:	6c706d69 	ldclvs	13, cr6, [r0], #-420	; 0xfffffe5c
    a6ac:	6e656d65 	cdpvs	13, 6, cr6, cr5, cr5, {3}
    a6b0:	68745f74 	ldmdavs	r4!, {r2, r4, r5, r6, r8, r9, sl, fp, ip, lr}^
    a6b4:	00007369 	andeq	r7, r0, r9, ror #6
    a6b8:	696c2f2e 	stmdbvs	ip!, {r1, r2, r3, r5, r8, r9, sl, fp, sp}^
    a6bc:	762f6362 	strtvc	r6, [pc], -r2, ror #6
    a6c0:	72702d61 	rsbsvc	r2, r0, #6208	; 0x1840
    a6c4:	6b746e69 	blvs	1d26070 <__bss_end__+0x1d1b200>
    a6c8:	0000632e 	andeq	r6, r0, lr, lsr #6
    a6cc:	33323130 	teqcc	r2, #12
    a6d0:	37363534 			; <UNDEFINED> instruction: 0x37363534
    a6d4:	00003938 	andeq	r3, r0, r8, lsr r9
    a6d8:	33323130 	teqcc	r2, #12
    a6dc:	37363534 			; <UNDEFINED> instruction: 0x37363534
    a6e0:	62613938 	rsbvs	r3, r1, #56, 18	; 0xe0000
    a6e4:	66656463 	strbtvs	r6, [r5], -r3, ror #8
    a6e8:	00000000 	andeq	r0, r0, r0
    a6ec:	00003130 	andeq	r3, r0, r0, lsr r1
    a6f0:	63747570 	cmnvs	r4, #112, 10	; 0x1c000000
    a6f4:	0070665f 	rsbseq	r6, r0, pc, asr r6
    a6f8:	74646977 	strbtvc	r6, [r4], #-2423	; 0xfffff689
    a6fc:	203c2068 	eorscs	r2, ip, r8, rrx
    a700:	00003233 	andeq	r3, r0, r3, lsr r2
    a704:	00786c6c 	rsbseq	r6, r8, ip, ror #24
    a708:	00646c6c 	rsbeq	r6, r4, ip, ror #24
    a70c:	253d3078 	ldrcs	r3, [sp, #-120]!	; 0xffffff88
    a710:	00000a78 	andeq	r0, r0, r8, ror sl
    a714:	253d3178 	ldrcs	r3, [sp, #-376]!	; 0xfffffe88
    a718:	00000a78 	andeq	r0, r0, r8, ror sl
    a71c:	6e727473 	mrcvs	4, 3, r7, cr2, cr3, {3}
    a720:	28706d63 	ldmdacs	r0!, {r0, r1, r5, r6, r8, sl, fp, sp, lr}^
    a724:	202c7974 	eorcs	r7, ip, r4, ror r9
    a728:	786c6c22 	stmdavc	ip!, {r1, r5, sl, fp, sp, lr}^
    a72c:	33202c22 			; <UNDEFINED> instruction: 0x33202c22
    a730:	3d3d2029 	ldccc	0, cr2, [sp, #-164]!	; 0xffffff5c
    a734:	7c203020 	stcvc	0, cr3, [r0], #-128	; 0xffffff80
    a738:	7473207c 	ldrbtvc	r2, [r3], #-124	; 0xffffff84
    a73c:	6d636e72 	stclvs	14, cr6, [r3, #-456]!	; 0xfffffe38
    a740:	79742870 	ldmdbvc	r4!, {r4, r5, r6, fp, sp}^
    a744:	6c22202c 	stcvs	0, cr2, [r2], #-176	; 0xffffff50
    a748:	2c22646c 	cfstrscs	mvf6, [r2], #-432	; 0xfffffe50
    a74c:	20293320 	eorcs	r3, r9, r0, lsr #6
    a750:	30203d3d 	eorcc	r3, r0, sp, lsr sp
    a754:	00000000 	andeq	r0, r0, r0
    a758:	494e4150 	stmdbmi	lr, {r4, r6, r8, lr}^
    a75c:	73253a43 			; <UNDEFINED> instruction: 0x73253a43
    a760:	3a73253a 	bcc	1cd3c50 <__bss_end__+0x1cc8de0>
    a764:	693a6425 	ldmdbvs	sl!, {r0, r2, r5, sl, sp, lr}
    a768:	736f706d 	cmnvc	pc, #109, 0	; 0x6d
    a76c:	6c626973 			; <UNDEFINED> instruction: 0x6c626973
    a770:	66203a65 	strtvs	r3, [r0], -r5, ror #20
    a774:	3c3d746d 	cfldrscc	mvf7, [sp], #-436	; 0xfffffe4c
    a778:	0a3e7325 	beq	fa7414 <__bss_end__+0xf9c5a4>
    a77c:	0000000a 	andeq	r0, r0, sl
    a780:	494e4150 	stmdbmi	lr, {r4, r6, r8, lr}^
    a784:	73253a43 			; <UNDEFINED> instruction: 0x73253a43
    a788:	3a73253a 	bcc	1cd3c78 <__bss_end__+0x1cc8e08>
    a78c:	663a6425 	ldrtvs	r6, [sl], -r5, lsr #8
    a790:	74616f6c 	strbtvc	r6, [r1], #-3948	; 0xfffff094
    a794:	746f6e20 	strbtvc	r6, [pc], #-3616	; a79c <__FUNCTION__.4137+0xf4>
    a798:	616e6520 	cmnvs	lr, r0, lsr #10
    a79c:	64656c62 	strbtvs	r6, [r5], #-3170	; 0xfffff39e
    a7a0:	0a212121 	beq	852c2c <__bss_end__+0x847dbc>
    a7a4:	00000000 	andeq	r0, r0, r0
    a7a8:	6e697270 	mcrvs	2, 3, r7, cr9, cr0, {3}
    a7ac:	203a6b74 	eorscs	r6, sl, r4, ror fp
    a7b0:	20746f6e 	rsbscs	r6, r4, lr, ror #30
    a7b4:	646e6168 	strbtvs	r6, [lr], #-360	; 0xfffffe98
    a7b8:	676e696c 	strbvs	r6, [lr, -ip, ror #18]!
    a7bc:	65707320 	ldrbvs	r7, [r0, #-800]!	; 0xfffffce0
    a7c0:	69666963 	stmdbvs	r6!, {r0, r1, r5, r6, r8, fp, sp, lr}^
    a7c4:	27207265 	strcs	r7, [r0, -r5, ror #4]!
    a7c8:	20276325 	eorcs	r6, r7, r5, lsr #6
    a7cc:	63736128 	cmnvs	r3, #10
    a7d0:	253d6969 	ldrcs	r6, [sp, #-2409]!	; 0xfffff697
    a7d4:	000a2964 	andeq	r2, sl, r4, ror #18
    a7d8:	494e4150 	stmdbmi	lr, {r4, r6, r8, lr}^
    a7dc:	73253a43 			; <UNDEFINED> instruction: 0x73253a43
    a7e0:	3a73253a 	bcc	1cd3cd0 <__bss_end__+0x1cc8e60>
    a7e4:	703a6425 	eorsvc	r6, sl, r5, lsr #8
    a7e8:	746e6972 	strbtvc	r6, [lr], #-2418	; 0xfffff68e
    a7ec:	7265206b 	rsbvc	r2, r5, #107, 0	; 0x6b
    a7f0:	0a726f72 	beq	1ca65c0 <__bss_end__+0x1c9b750>
    a7f4:	0000000a 	andeq	r0, r0, sl

0000a7f8 <__FUNCTION__.4008>:
    a7f8:	74696d65 	strbtvc	r6, [r9], #-3429	; 0xfffff29b
    a7fc:	00000000 	andeq	r0, r0, r0

0000a800 <__FUNCTION__.3956>:
    a800:	5f697072 	svcpl	0x00697072
    a804:	5f746573 	svcpl	0x00746573
    a808:	7074756f 	rsbsvc	r7, r4, pc, ror #10
    a80c:	00007475 	andeq	r7, r0, r5, ror r4

0000a810 <__FUNCTION__.4034>:
    a810:	705f6176 	subsvc	r6, pc, r6, ror r1	; <UNPREDICTABLE>
    a814:	746e6972 	strbtvc	r6, [lr], #-2418	; 0xfffff68e
    a818:	0000006b 	andeq	r0, r0, fp, rrx
    a81c:	454e4f44 	strbmi	r4, [lr, #-3908]	; 0xfffff0bc
    a820:	0a212121 	beq	852cac <__bss_end__+0x847e3c>
    a824:	00000000 	andeq	r0, r0, r0
    a828:	6c616d6b 	stclvs	13, cr6, [r1], #-428	; 0xfffffe54
    a82c:	2e636f6c 	cdpcs	15, 6, cr6, cr3, cr12, {3}
    a830:	00000063 	andeq	r0, r0, r3, rrx
    a834:	5f78616d 	svcpl	0x0078616d
    a838:	7479626e 	ldrbtvc	r6, [r9], #-622	; 0xfffffd92
    a83c:	00007365 	andeq	r7, r0, r5, ror #6
    a840:	494e4150 	stmdbmi	lr, {r4, r6, r8, lr}^
    a844:	73253a43 			; <UNDEFINED> instruction: 0x73253a43
    a848:	3a73253a 	bcc	1cd3d38 <__bss_end__+0x1cc8ec8>
    a84c:	733a6425 	teqvc	sl, #620756992	; 0x25000000
    a850:	69747465 	ldmdbvs	r4!, {r0, r2, r5, r6, sl, ip, sp, lr}^
    a854:	6820676e 	stmdavs	r0!, {r1, r2, r3, r5, r6, r8, r9, sl, sp, lr}
    a858:	20706165 	rsbscs	r6, r0, r5, ror #2
    a85c:	25206f74 	strcs	r6, [r0, #-3956]!	; 0xfffff08c
    a860:	77203a70 			; <UNDEFINED> instruction: 0x77203a70
    a864:	206c6c69 	rsbcs	r6, ip, r9, ror #24
    a868:	20746968 	rsbscs	r6, r4, r8, ror #18
    a86c:	20656874 	rsbcs	r6, r5, r4, ror r8
    a870:	20646c6f 	rsbcs	r6, r4, pc, ror #24
    a874:	70616568 	rsbvc	r6, r1, r8, ror #10
    a878:	20746120 	rsbscs	r6, r4, r0, lsr #2
    a87c:	0a0a7025 	beq	2a6918 <__bss_end__+0x29baa8>
    a880:	00000000 	andeq	r0, r0, r0
    a884:	494e4150 	stmdbmi	lr, {r4, r6, r8, lr}^
    a888:	73253a43 			; <UNDEFINED> instruction: 0x73253a43
    a88c:	3a73253a 	bcc	1cd3d7c <__bss_end__+0x1cc8f0c>
    a890:	613a6425 	teqvs	sl, r5, lsr #8
    a894:	6165726c 	cmnvs	r5, ip, ror #4
    a898:	63207964 			; <UNDEFINED> instruction: 0x63207964
    a89c:	656c6c61 	strbvs	r6, [ip, #-3169]!	; 0xfffff39f
    a8a0:	6d6b2064 	stclvs	0, cr2, [fp, #-400]!	; 0xfffffe70
    a8a4:	6f6c6c61 	svcvs	0x006c6c61
    a8a8:	6e695f63 	cdpvs	15, 6, cr5, cr9, cr3, {3}
    a8ac:	0a0a7469 	beq	2a7a58 <__bss_end__+0x29cbe8>
    a8b0:	00000000 	andeq	r0, r0, r0
    a8b4:	494e4150 	stmdbmi	lr, {r4, r6, r8, lr}^
    a8b8:	73253a43 			; <UNDEFINED> instruction: 0x73253a43
    a8bc:	3a73253a 	bcc	1cd3dac <__bss_end__+0x1cc8f3c>
    a8c0:	253a6425 	ldrcs	r6, [sl, #-1061]!	; 0xfffffbdb
    a8c4:	626e2064 	rsbvs	r2, lr, #100, 0	; 0x64
    a8c8:	73657479 	cmnvc	r5, #2030043136	; 0x79000000
    a8cc:	63786520 	cmnvs	r8, #32, 10	; 0x8000000
    a8d0:	65646565 	strbvs	r6, [r4, #-1381]!	; 0xfffffa9b
    a8d4:	69732064 	ldmdbvs	r3!, {r2, r5, r6, sp}^
    a8d8:	6f20657a 	svcvs	0x0020657a
    a8dc:	65682066 	strbvs	r2, [r8, #-102]!	; 0xffffff9a
    a8e0:	62207061 	eorvs	r7, r0, #97, 0	; 0x61
    a8e4:	75252079 	strvc	r2, [r5, #-121]!	; 0xffffff87
    a8e8:	79626e20 	stmdbvc	r2!, {r5, r9, sl, fp, sp, lr}^
    a8ec:	0a736574 	beq	1ce3ec4 <__bss_end__+0x1cd9054>
    a8f0:	0000000a 	andeq	r0, r0, sl
    a8f4:	4f525245 	svcmi	0x00525245
    a8f8:	73253a52 			; <UNDEFINED> instruction: 0x73253a52
    a8fc:	3a73253a 	bcc	1cd3dec <__bss_end__+0x1cc8f7c>
    a900:	203a6425 	eorscs	r6, sl, r5, lsr #8
    a904:	534c4146 	movtpl	r4, #49478	; 0xc146
    a908:	253c2845 	ldrcs	r2, [ip, #-2117]!	; 0xfffff7bb
    a90c:	3a293e73 	bcc	a5a2e0 <__bss_end__+0xa4f470>
    a910:	73736120 	cmnvc	r3, #8
    a914:	6e696d75 	mcrvs	13, 3, r6, cr9, cr5, {3}
    a918:	6f702067 	svcvs	0x00702067
    a91c:	20726577 	rsbscs	r6, r2, r7, ror r5
    a920:	7420666f 	strtvc	r6, [r0], #-1647	; 0xfffff991
    a924:	000a6f77 	andeq	r6, sl, r7, ror pc
    a928:	705f7369 	subsvc	r7, pc, r9, ror #6
    a92c:	2832776f 	ldmdacs	r2!, {r0, r1, r2, r3, r5, r6, r8, r9, sl, ip, sp, lr}
    a930:	67696c61 	strbvs	r6, [r9, -r1, ror #24]!
    a934:	6e656d6e 	cdpvs	13, 6, cr6, cr5, cr14, {3}
    a938:	00002974 	andeq	r2, r0, r4, ror r9
    a93c:	705f7369 	subsvc	r7, pc, r9, ror #6
    a940:	2832776f 	ldmdacs	r2!, {r0, r1, r2, r3, r5, r6, r8, r9, sl, ip, sp, lr}
    a944:	0000296e 	andeq	r2, r0, lr, ror #18
    a948:	4f525245 	svcmi	0x00525245
    a94c:	73253a52 			; <UNDEFINED> instruction: 0x73253a52
    a950:	3a73253a 	bcc	1cd3e40 <__bss_end__+0x1cc8fd0>
    a954:	203a6425 	eorscs	r6, sl, r5, lsr #8
    a958:	534c4146 	movtpl	r4, #49478	; 0xc146
    a95c:	253c2845 	ldrcs	r2, [ip, #-2117]!	; 0xfffff7bb
    a960:	3a293e73 	bcc	a5a334 <__bss_end__+0xa4f4c4>
    a964:	706d6920 	rsbvc	r6, sp, r0, lsr #18
    a968:	6973736f 	ldmdbvs	r3!, {r0, r1, r2, r3, r5, r6, r8, r9, ip, sp, lr}^
    a96c:	0a656c62 	beq	1965afc <__bss_end__+0x195ac8c>
    a970:	00000000 	andeq	r0, r0, r0
    a974:	615f7369 	cmpvs	pc, r9, ror #6
    a978:	6e67696c 	vnmulvs.f16	s13, s14, s25	; <UNPREDICTABLE>
    a97c:	68286465 	stmdavs	r8!, {r0, r2, r5, r6, sl, sp, lr}
    a980:	6c61202c 	stclvs	0, cr2, [r1], #-176	; 0xffffff50
    a984:	6d6e6769 	stclvs	7, cr6, [lr, #-420]!	; 0xfffffe5c
    a988:	29746e65 	ldmdbcs	r4!, {r0, r2, r5, r6, r9, sl, fp, sp, lr}^
    a98c:	00000000 	andeq	r0, r0, r0
    a990:	494e4150 	stmdbmi	lr, {r4, r6, r8, lr}^
    a994:	73253a43 			; <UNDEFINED> instruction: 0x73253a43
    a998:	3a73253a 	bcc	1cd3e88 <__bss_end__+0x1cc9018>
    a99c:	703a6425 	eorsvc	r6, sl, r5, lsr #8
    a9a0:	746e696f 	strbtvc	r6, [lr], #-2415	; 0xfffff691
    a9a4:	25207265 	strcs	r7, [r0, #-613]!	; 0xfffffd9b
    a9a8:	61772070 	cmnvs	r7, r0, ror r0
    a9ac:	656e2073 	strbvs	r2, [lr, #-115]!	; 0xffffff8d
    a9b0:	20726576 	rsbscs	r6, r2, r6, ror r5
    a9b4:	6f6c6c61 	svcvs	0x006c6c61
    a9b8:	65746163 	ldrbvs	r6, [r4, #-355]!	; 0xfffffe9d
    a9bc:	000a0a64 	andeq	r0, sl, r4, ror #20

0000a9c0 <__FUNCTION__.7>:
    a9c0:	6c616d6b 	stclvs	13, cr6, [r1], #-428	; 0xfffffe54
    a9c4:	5f636f6c 	svcpl	0x00636f6c
    a9c8:	74696e69 	strbtvc	r6, [r9], #-3689	; 0xfffff197
    a9cc:	7465735f 	strbtvc	r7, [r5], #-863	; 0xfffffca1
    a9d0:	6174735f 	cmnvs	r4, pc, asr r3
    a9d4:	00007472 	andeq	r7, r0, r2, ror r4

0000a9d8 <__FUNCTION__.5>:
    a9d8:	6c616d6b 	stclvs	13, cr6, [r1], #-428	; 0xfffffe54
    a9dc:	5f636f6c 	svcpl	0x00636f6c
    a9e0:	74696e69 	strbtvc	r6, [r9], #-3689	; 0xfffff197
    a9e4:	00000000 	andeq	r0, r0, r0

0000a9e8 <__FUNCTION__.4>:
    a9e8:	6c616d6b 	stclvs	13, cr6, [r1], #-428	; 0xfffffe54
    a9ec:	5f636f6c 	svcpl	0x00636f6c
    a9f0:	7a746f6e 	bvc	1d267b0 <__bss_end__+0x1d1b940>
    a9f4:	006f7265 	rsbeq	r7, pc, r5, ror #4

0000a9f8 <__FUNCTION__.2>:
    a9f8:	6c616d6b 	stclvs	13, cr6, [r1], #-428	; 0xfffffe54
    a9fc:	00636f6c 	rsbeq	r6, r3, ip, ror #30

0000aa00 <__FUNCTION__.1>:
    aa00:	6c616d6b 	stclvs	13, cr6, [r1], #-428	; 0xfffffe54
    aa04:	5f636f6c 	svcpl	0x00636f6c
    aa08:	67696c61 	strbvs	r6, [r9, -r1, ror #24]!
    aa0c:	0064656e 	rsbeq	r6, r4, lr, ror #10

0000aa10 <__FUNCTION__.3>:
    aa10:	6e756f72 	mrcvs	15, 3, r6, cr5, cr2, {3}
    aa14:	00707564 	rsbseq	r7, r0, r4, ror #10

0000aa18 <__FUNCTION__.0>:
    aa18:	6572666b 	ldrbvs	r6, [r2, #-1643]!	; 0xfffff995
    aa1c:	6f705f65 	svcvs	0x00705f65
    aa20:	Address 0x000000000000aa20 is out of bounds.


Disassembly of section .data:

0000aa24 <__data_start__>:
    aa24:	00000001 	andeq	r0, r0, r1

0000aa28 <putk>:
    aa28:	00008f44 	andeq	r8, r0, r4, asr #30

0000aa2c <lfsr>:
    aa2c:	0000ace1 	andeq	sl, r0, r1, ror #25

0000aa30 <heap_end>:
    aa30:	0020ae70 	eoreq	sl, r0, r0, ror lr

0000aa34 <heap_start>:
    aa34:	0000ae70 	andeq	sl, r0, r0, ror lr

0000aa38 <heap>:
    aa38:	0000ae70 	andeq	sl, r0, r0, ror lr

0000aa3c <rpi_putchar>:
    aa3c:	00009e24 	andeq	r9, r0, r4, lsr #28

Disassembly of section .bss:

0000aa40 <__bss_start__>:
    aa40:	00000000 	andeq	r0, r0, r0

0000aa44 <alloc_list>:
    aa44:	00000000 	andeq	r0, r0, r0

0000aa48 <heap_start>:
    aa48:	00000000 	andeq	r0, r0, r0

0000aa4c <heap_end>:
    aa4c:	00000000 	andeq	r0, r0, r0

0000aa50 <init_p>:
	...

0000aa58 <freep>:
	...

0000aa60 <base>:
	...

0000aa68 <buf.3948>:
	...

0000ae68 <init_p.6>:
	...

Disassembly of section .ARM.attributes:

00000000 <.ARM.attributes>:
   0:	00002a41 	andeq	r2, r0, r1, asr #20
   4:	61656100 	cmnvs	r5, r0, lsl #2
   8:	01006962 	tsteq	r0, r2, ror #18
   c:	00000020 	andeq	r0, r0, r0, lsr #32
  10:	4b5a3605 	blmi	168d82c <__bss_end__+0x16829bc>
  14:	08070600 	stmdaeq	r7, {r9, sl}
  18:	12010901 	andne	r0, r1, #16384	; 0x4000
  1c:	15011404 	strne	r1, [r1, #-1028]	; 0xfffffbfc
  20:	18031701 	stmdane	r3, {r0, r8, r9, sl, ip}
  24:	22011a01 	andcs	r1, r1, #4096	; 0x1000
  28:	Address 0x0000000000000028 is out of bounds.


Disassembly of section .comment:

00000000 <.comment>:
   0:	3a434347 	bcc	10d0d24 <__bss_end__+0x10c5eb4>
   4:	4e472820 	cdpmi	8, 4, cr2, cr7, cr0, {1}
   8:	6f542055 	svcvs	0x00542055
   c:	20736c6f 	rsbscs	r6, r3, pc, ror #24
  10:	20726f66 	rsbscs	r6, r2, r6, ror #30
  14:	206d7241 	rsbcs	r7, sp, r1, asr #4
  18:	65626d45 	strbvs	r6, [r2, #-3397]!	; 0xfffff2bb
  1c:	64656464 	strbtvs	r6, [r5], #-1124	; 0xfffffb9c
  20:	6f725020 	svcvs	0x00725020
  24:	73736563 	cmnvc	r3, #415236096	; 0x18c00000
  28:	2073726f 	rsbscs	r7, r3, pc, ror #4
  2c:	30322d39 	eorscc	r2, r2, r9, lsr sp
  30:	712d3931 			; <UNDEFINED> instruction: 0x712d3931
  34:	616d2d34 	cmnvs	sp, r4, lsr sp
  38:	29726f6a 	ldmdbcs	r2!, {r1, r3, r5, r6, r8, r9, sl, fp, sp, lr}^
  3c:	322e3920 	eorcc	r3, lr, #32, 18	; 0x80000
  40:	3220312e 	eorcc	r3, r0, #-2147483637	; 0x8000000b
  44:	31393130 	teqcc	r9, r0, lsr r1
  48:	20353230 	eorscs	r3, r5, r0, lsr r2
  4c:	6c657228 	sfmvs	f7, 2, [r5], #-160	; 0xffffff60
  50:	65736165 	ldrbvs	r6, [r3, #-357]!	; 0xfffffe9b
  54:	415b2029 	cmpmi	fp, r9, lsr #32
  58:	612f4d52 			; <UNDEFINED> instruction: 0x612f4d52
  5c:	392d6d72 	pushcc	{r1, r4, r5, r6, r8, sl, fp, sp, lr}
  60:	6172622d 	cmnvs	r2, sp, lsr #4
  64:	2068636e 	rsbcs	r6, r8, lr, ror #6
  68:	69766572 	ldmdbvs	r6!, {r1, r4, r5, r6, r8, sl, sp, lr}^
  6c:	6e6f6973 			; <UNDEFINED> instruction: 0x6e6f6973
  70:	37373220 	ldrcc	r3, [r7, -r0, lsr #4]!
  74:	5d393935 			; <UNDEFINED> instruction: 0x5d393935
  78:	43434700 	movtmi	r4, #14080	; 0x3700
  7c:	4728203a 			; <UNDEFINED> instruction: 0x4728203a
  80:	4120554e 			; <UNDEFINED> instruction: 0x4120554e
  84:	45206d72 	strmi	r6, [r0, #-3442]!	; 0xfffff28e
  88:	6465626d 	strbtvs	r6, [r5], #-621	; 0xfffffd93
  8c:	20646564 	rsbcs	r6, r4, r4, ror #10
  90:	6c6f6f54 	stclvs	15, cr6, [pc], #-336	; ffffff48 <__bss_end__+0xffff50d8>
  94:	69616863 	stmdbvs	r1!, {r0, r1, r5, r6, fp, sp, lr}^
  98:	3031206e 	eorscc	r2, r1, lr, rrx
  9c:	322d332e 	eorcc	r3, sp, #-1207959552	; 0xb8000000
  a0:	2e313230 	mrccs	2, 1, r3, cr1, cr0, {1}
  a4:	20293031 	eorcs	r3, r9, r1, lsr r0
  a8:	332e3031 			; <UNDEFINED> instruction: 0x332e3031
  ac:	3220312e 	eorcc	r3, r0, #-2147483637	; 0x8000000b
  b0:	30313230 	eorscc	r3, r1, r0, lsr r2
  b4:	20343238 	eorscs	r3, r4, r8, lsr r2
  b8:	6c657228 	sfmvs	f7, 2, [r5], #-160	; 0xffffff60
  bc:	65736165 	ldrbvs	r6, [r3, #-357]!	; 0xfffffe9b
  c0:	Address 0x00000000000000c0 is out of bounds.


Disassembly of section .debug_info:

00000000 <.debug_info>:
       0:	000004ac 	andeq	r0, r0, ip, lsr #9
       4:	00000004 	andeq	r0, r0, r4
       8:	01040000 	mrseq	r0, (UNDEF: 4)
       c:	000001bb 			; <UNDEFINED> instruction: 0x000001bb
      10:	0001650c 	andeq	r6, r1, ip, lsl #10
      14:	0000f300 	andeq	pc, r0, r0, lsl #6
      18:	00803800 	addeq	r3, r0, r0, lsl #16
      1c:	0000f800 	andeq	pc, r0, r0, lsl #16
      20:	00000000 	andeq	r0, r0, r0
      24:	05040200 	streq	r0, [r4, #-512]	; 0xfffffe00
      28:	00746e69 	rsbseq	r6, r4, r9, ror #28
      2c:	cd070403 	cfstrsgt	mvf0, [r7, #-12]
      30:	03000000 	movweq	r0, #0
      34:	00680601 	rsbeq	r0, r8, r1, lsl #12
      38:	02030000 	andeq	r0, r3, #0, 0
      3c:	00018b05 	andeq	r8, r1, r5, lsl #22
      40:	05040300 	streq	r0, [r4, #-768]	; 0xfffffd00
      44:	00000150 	andeq	r0, r0, r0, asr r1
      48:	4b050803 	blmi	14205c <__bss_end__+0x1371ec>
      4c:	04000001 	streq	r0, [r0], #-1
      50:	000000da 	ldrdeq	r0, [r0], -sl
      54:	5b182e03 	blpl	60b868 <__bss_end__+0x6009f8>
      58:	03000000 	movweq	r0, #0
      5c:	00660801 	rsbeq	r0, r6, r1, lsl #16
      60:	9f040000 	svcls	0x00040000
      64:	03000001 	movweq	r0, #1
      68:	006e1931 	rsbeq	r1, lr, r1, lsr r9
      6c:	02030000 	andeq	r0, r3, #0, 0
      70:	00008107 	andeq	r8, r0, r7, lsl #2
      74:	01a80400 			; <UNDEFINED> instruction: 0x01a80400
      78:	34030000 	strcc	r0, [r3], #-0
      7c:	00008119 	andeq	r8, r0, r9, lsl r1
      80:	07040300 	streq	r0, [r4, -r0, lsl #6]
      84:	000000c8 	andeq	r0, r0, r8, asr #1
      88:	c3070803 	movwgt	r0, #30723	; 0x7803
      8c:	05000000 	streq	r0, [r0, #-0]
      90:	00000025 	andeq	r0, r0, r5, lsr #32
      94:	0000009e 	muleq	r0, lr, r0
      98:	00002506 	andeq	r2, r0, r6, lsl #10
      9c:	59070000 	stmdbpl	r7, {}	; <UNPREDICTABLE>
      a0:	04000001 	streq	r0, [r0], #-1
      a4:	00aa0e1c 	adceq	r0, sl, ip, lsl lr
      a8:	04080000 	streq	r0, [r8], #-0
      ac:	0000008f 	andeq	r0, r0, pc, lsl #1
      b0:	00002505 	andeq	r2, r0, r5, lsl #10
      b4:	0000bf00 	andeq	fp, r0, r0, lsl #30
      b8:	00bf0600 	adcseq	r0, pc, r0, lsl #12
      bc:	08000000 	stmdaeq	r0, {}	; <UNPREDICTABLE>
      c0:	0000cc04 	andeq	ip, r0, r4, lsl #24
      c4:	08010300 	stmdaeq	r1, {r8, r9}
      c8:	0000006f 	andeq	r0, r0, pc, rrx
      cc:	0000c509 	andeq	ip, r0, r9, lsl #10
      d0:	07290700 	streq	r0, [r9, -r0, lsl #14]!
      d4:	21040000 	mrscs	r0, (UNDEF: 4)
      d8:	0000dd0e 	andeq	sp, r0, lr, lsl #26
      dc:	b0040800 	andlt	r0, r4, r0, lsl #16
      e0:	0a000000 	beq	e8 <__code_start__-0x7f18>
      e4:	0904020c 	stmdbeq	r4, {r2, r3, r9}
      e8:	00000114 	andeq	r0, r0, r4, lsl r1
      ec:	0000610b 	andeq	r6, r0, fp, lsl #2
      f0:	11060200 	mrsne	r0, LR_usr
      f4:	000000bf 	strheq	r0, [r0], -pc	; <UNPREDICTABLE>
      f8:	009b0b00 	addseq	r0, fp, r0, lsl #22
      fc:	07020000 	streq	r0, [r2, -r0]
     100:	0000bf11 	andeq	fp, r0, r1, lsl pc
     104:	310b0400 	tstcc	fp, r0, lsl #8
     108:	02000000 	andeq	r0, r0, #0, 0
     10c:	002c0e08 	eoreq	r0, ip, r8, lsl #28
     110:	00080000 	andeq	r0, r8, r0
     114:	00019504 	andeq	r9, r1, r4, lsl #10
     118:	03090200 	movweq	r0, #37376	; 0x9200
     11c:	000000e3 	andeq	r0, r0, r3, ror #1
     120:	00027b0c 	andeq	r7, r2, ip, lsl #22
     124:	110c0500 	tstne	ip, r0, lsl #10
     128:	0000002c 	andeq	r0, r0, ip, lsr #32
     12c:	00940d01 	addseq	r0, r4, r1, lsl #26
     130:	05a80000 	streq	r0, [r8, #0]!
     134:	01bd1010 			; <UNDEFINED> instruction: 0x01bd1010
     138:	130b0000 	movwne	r0, #45056	; 0xb000
     13c:	05000000 	streq	r0, [r0, #-0]
     140:	01bd1411 			; <UNDEFINED> instruction: 0x01bd1411
     144:	0b000000 	bleq	14c <__code_start__-0x7eb4>
     148:	00000045 	andeq	r0, r0, r5, asr #32
     14c:	750e1205 	strvc	r1, [lr, #-517]	; 0xfffffdfb
     150:	04000000 	streq	r0, [r0], #-0
     154:	0000200b 	andeq	r2, r0, fp
     158:	0e130500 	cfmul32eq	mvfx0, mvfx3, mvfx0
     15c:	00000075 	andeq	r0, r0, r5, ror r0
     160:	02800b08 	addeq	r0, r0, #8, 22	; 0x2000
     164:	17050000 	strne	r0, [r5, -r0]
     168:	0000750e 	andeq	r7, r0, lr, lsl #10
     16c:	e20b0c00 	and	r0, fp, #0, 24
     170:	05000000 	streq	r0, [r0, #-0]
     174:	01140f19 	tsteq	r4, r9, lsl pc
     178:	0b100000 	bleq	400180 <__bss_end__+0x3f5310>
     17c:	00000270 	andeq	r0, r0, r0, ror r2
     180:	750e1c05 	strvc	r1, [lr, #-3077]	; 0xfffff3fb
     184:	1c000000 	stcne	0, cr0, [r0], {-0}
     188:	0002890b 	andeq	r8, r2, fp, lsl #18
     18c:	0e1d0500 	cfmul32eq	mvfx0, mvfx13, mvfx0
     190:	00000075 	andeq	r0, r0, r5, ror r0
     194:	00380b20 	eorseq	r0, r8, r0, lsr #22
     198:	1f050000 	svcne	0x00050000
     19c:	0000620e 	andeq	r6, r0, lr, lsl #4
     1a0:	ec0b2400 	cfstrs	mvf2, [fp], {-0}
     1a4:	05000000 	streq	r0, [r0, #-0]
     1a8:	00620b20 	rsbeq	r0, r2, r0, lsr #22
     1ac:	0e260000 	cdpeq	0, 2, cr0, cr6, cr0, {0}
     1b0:	00317a72 	eorseq	r7, r1, r2, ror sl
     1b4:	c30d2205 	movwgt	r2, #53765	; 0xd205
     1b8:	28000001 	stmdacs	r0, {r0}
     1bc:	2d040800 	stccs	8, cr0, [r4, #-0]
     1c0:	0f000001 	svceq	0x00000001
     1c4:	0000004f 	andeq	r0, r0, pc, asr #32
     1c8:	000001d3 	ldrdeq	r0, [r0], -r3
     1cc:	00002c10 	andeq	r2, r0, r0, lsl ip
     1d0:	04007f00 	streq	r7, [r0], #-3840	; 0xfffff100
     1d4:	0000000d 	andeq	r0, r0, sp
     1d8:	2d032305 	stccs	3, cr2, [r3, #-20]	; 0xffffffec
     1dc:	11000001 	tstne	r0, r1
     1e0:	000000b8 	strheq	r0, [r0], -r8
     1e4:	eb0f2505 	bl	3c9600 <__bss_end__+0x3be790>
     1e8:	08000001 	stmdaeq	r0, {r0}
     1ec:	0001d304 	andeq	sp, r1, r4, lsl #6
     1f0:	01b10c00 			; <UNDEFINED> instruction: 0x01b10c00
     1f4:	26050000 	strcs	r0, [r5], -r0
     1f8:	0001eb0f 	andeq	lr, r1, pc, lsl #22
     1fc:	04120000 	ldreq	r0, [r2], #-0
     200:	00000007 	andeq	r0, r0, r7
     204:	11ad0500 			; <UNDEFINED> instruction: 0x11ad0500
     208:	0000002c 	andeq	r0, r0, ip, lsr #32
     20c:	00003d13 	andeq	r3, r0, r3, lsl sp
     210:	06050100 	streq	r0, [r5], -r0, lsl #2
     214:	00008038 	andeq	r8, r0, r8, lsr r0
     218:	000000f8 	strdeq	r0, [r0], -r8
     21c:	04109c01 	ldreq	r9, [r0], #-3073	; 0xfffff3ff
     220:	70140000 	andsvc	r0, r4, r0
     224:	08010030 	stmdaeq	r1, {r4, r5}
     228:	0001fe0b 	andeq	pc, r1, fp, lsl #28
     22c:	00000400 	andeq	r0, r0, r0, lsl #8
     230:	00000000 	andeq	r0, r0, r0
     234:	00ab1500 	adceq	r1, fp, r0, lsl #10
     238:	04200000 	strteq	r0, [r0], #-0
     23c:	03050000 	movweq	r0, #20480	; 0x5000
     240:	0000a0cc 	andeq	sl, r0, ip, asr #1
     244:	00317014 	eorseq	r7, r1, r4, lsl r0
     248:	fe0b0901 	vseleq.f16	s0, s22, s2
     24c:	26000001 	strcs	r0, [r0], -r1
     250:	22000000 	andcs	r0, r0, #0, 0
     254:	16000000 	strne	r0, [r0], -r0
     258:	00000425 	andeq	r0, r0, r5, lsr #8
     25c:	0000804c 	andeq	r8, r0, ip, asr #32
     260:	00804c00 	addeq	r4, r0, r0, lsl #24
     264:	00001800 	andeq	r1, r0, r0, lsl #16
     268:	10080100 	andne	r0, r8, r0, lsl #2
     26c:	00000298 	muleq	r0, r8, r2
     270:	00044e17 	andeq	r4, r4, r7, lsl lr
     274:	00004600 	andeq	r4, r0, r0, lsl #12
     278:	00004400 	andeq	r4, r0, r0, lsl #8
     27c:	04421700 	strbeq	r1, [r2], #-1792	; 0xfffff900
     280:	005c0000 	subseq	r0, ip, r0
     284:	005a0000 	subseq	r0, sl, r0
     288:	36170000 	ldrcc	r0, [r7], -r0
     28c:	76000004 	strvc	r0, [r0], -r4
     290:	74000000 	strvc	r0, [r0], #-0
     294:	00000000 	andeq	r0, r0, r0
     298:	00042516 	andeq	r2, r4, r6, lsl r5
     29c:	00808000 	addeq	r8, r0, r0
     2a0:	80800000 	addhi	r0, r0, r0
     2a4:	00100000 	andseq	r0, r0, r0
     2a8:	09010000 	stmdbeq	r1, {}	; <UNPREDICTABLE>
     2ac:	0002d910 	andeq	sp, r2, r0, lsl r9
     2b0:	044e1700 	strbeq	r1, [lr], #-1792	; 0xfffff900
     2b4:	00900000 	addseq	r0, r0, r0
     2b8:	008e0000 	addeq	r0, lr, r0
     2bc:	42170000 	andsmi	r0, r7, #0, 0
     2c0:	a6000004 	strge	r0, [r0], -r4
     2c4:	a4000000 	strge	r0, [r0], #-0
     2c8:	17000000 	strne	r0, [r0, -r0]
     2cc:	00000436 	andeq	r0, r0, r6, lsr r4
     2d0:	000000c0 	andeq	r0, r0, r0, asr #1
     2d4:	000000be 	strheq	r0, [r0], -lr
     2d8:	04251600 	strteq	r1, [r5], #-1536	; 0xfffffa00
     2dc:	80a80000 	adchi	r0, r8, r0
     2e0:	a8010000 	stmdage	r1, {}	; <UNPREDICTABLE>
     2e4:	10000080 	andne	r0, r0, r0, lsl #1
     2e8:	01000000 	mrseq	r0, (UNDEF: 0)
     2ec:	031a050a 	tsteq	sl, #41943040	; 0x2800000
     2f0:	4e170000 	cdpmi	0, 1, cr0, cr7, cr0, {0}
     2f4:	da000004 	ble	30c <__code_start__-0x7cf4>
     2f8:	d8000000 	stmdale	r0, {}	; <UNPREDICTABLE>
     2fc:	17000000 	strne	r0, [r0, -r0]
     300:	00000442 	andeq	r0, r0, r2, asr #8
     304:	000000f0 	strdeq	r0, [r0], -r0	; <UNPREDICTABLE>
     308:	000000ee 	andeq	r0, r0, lr, ror #1
     30c:	00043617 	andeq	r3, r4, r7, lsl r6
     310:	00010a00 	andeq	r0, r1, r0, lsl #20
     314:	00010800 	andeq	r0, r1, r0, lsl #16
     318:	25160000 	ldrcs	r0, [r6, #-0]
     31c:	c8000004 	stmdagt	r0, {r2}
     320:	01000080 	smlabbeq	r0, r0, r0, r0
     324:	000080c8 	andeq	r8, r0, r8, asr #1
     328:	00000010 	andeq	r0, r0, r0, lsl r0
     32c:	5b050b01 	blpl	142f38 <__bss_end__+0x1380c8>
     330:	17000003 	strne	r0, [r0, -r3]
     334:	0000044e 	andeq	r0, r0, lr, asr #8
     338:	00000124 	andeq	r0, r0, r4, lsr #2
     33c:	00000122 	andeq	r0, r0, r2, lsr #2
     340:	00044217 	andeq	r4, r4, r7, lsl r2
     344:	00013a00 	andeq	r3, r1, r0, lsl #20
     348:	00013800 	andeq	r3, r1, r0, lsl #16
     34c:	04361700 	ldrteq	r1, [r6], #-1792	; 0xfffff900
     350:	01540000 	cmpeq	r4, r0
     354:	01520000 	cmpeq	r2, r0
     358:	18000000 	stmdane	r0, {}	; <UNPREDICTABLE>
     35c:	00008048 	andeq	r8, r0, r8, asr #32
     360:	00000467 	andeq	r0, r0, r7, ror #8
     364:	00000372 	andeq	r0, r0, r2, ror r3
     368:	05500119 	ldrbeq	r0, [r0, #-281]	; 0xfffffee7
     36c:	00a04803 	adceq	r4, r0, r3, lsl #16
     370:	4c1a0000 	ldcmi	0, cr0, [sl], {-0}
     374:	73000080 	movwvc	r0, #128	; 0x80
     378:	1a000004 	bne	390 <__code_start__-0x7c70>
     37c:	00008078 	andeq	r8, r0, r8, ror r0
     380:	0000047f 	andeq	r0, r0, pc, ror r4
     384:	0080801a 	addeq	r8, r0, sl, lsl r0
     388:	00047300 	andeq	r7, r4, r0, lsl #6
     38c:	80a41a00 	adchi	r1, r4, r0, lsl #20
     390:	047f0000 	ldrbteq	r0, [pc], #-0	; 398 <__code_start__-0x7c68>
     394:	c8180000 	ldmdagt	r8, {}	; <UNPREDICTABLE>
     398:	8b000080 	blhi	5a0 <__code_start__-0x7a60>
     39c:	aa000004 	bge	3b4 <__code_start__-0x7c4c>
     3a0:	19000003 	stmdbne	r0, {r0, r1}
     3a4:	77025001 	strvc	r5, [r2, -r1]
     3a8:	e8180000 	ldmda	r8, {}	; <UNPREDICTABLE>
     3ac:	8b000080 	blhi	5b4 <__code_start__-0x7a4c>
     3b0:	be000004 	cdplt	0, 0, cr0, cr0, cr4, {0}
     3b4:	19000003 	stmdbne	r0, {r0, r1}
     3b8:	76025001 	strvc	r5, [r2], -r1
     3bc:	ec1a0000 	ldc	0, cr0, [sl], {-0}
     3c0:	97000080 	strls	r0, [r0, -r0, lsl #1]
     3c4:	18000004 	stmdane	r0, {r2}
     3c8:	000080fc 	strdeq	r8, [r0], -ip
     3cc:	00000467 	andeq	r0, r0, r7, ror #8
     3d0:	000003de 	ldrdeq	r0, [r0], -lr
     3d4:	05500119 	ldrbeq	r0, [r0, #-281]	; 0xfffffee7
     3d8:	00a0ac03 	adceq	sl, r0, r3, lsl #24
     3dc:	18180000 	ldmdane	r8, {}	; <UNPREDICTABLE>
     3e0:	67000081 	strvs	r0, [r0, -r1, lsl #1]
     3e4:	06000004 	streq	r0, [r0], -r4
     3e8:	19000004 	stmdbne	r0, {r2}
     3ec:	03055001 	movweq	r5, #20481	; 0x5001
     3f0:	0000a088 	andeq	sl, r0, r8, lsl #1
     3f4:	02510119 	subseq	r0, r1, #1073741830	; 0x40000006
     3f8:	01190075 	tsteq	r9, r5, ror r0
     3fc:	00740252 	rsbseq	r0, r4, r2, asr r2
     400:	01530119 	cmpeq	r3, r9, lsl r1
     404:	1c1a003e 	ldcne	0, cr0, [sl], {62}	; 0x3e
     408:	a3000081 	movwge	r0, #129	; 0x81
     40c:	00000004 	andeq	r0, r0, r4
     410:	0000cc0f 	andeq	ip, r0, pc, lsl #24
     414:	00042000 	andeq	r2, r4, r0
     418:	002c1000 	eoreq	r1, ip, r0
     41c:	00070000 	andeq	r0, r7, r0
     420:	00041009 	andeq	r1, r4, r9
     424:	00261b00 	eoreq	r1, r6, r0, lsl #22
     428:	0c020000 	stceq	0, cr0, [r2], {-0}
     42c:	0001140b 	andeq	r1, r1, fp, lsl #8
     430:	045b0300 	ldrbeq	r0, [fp], #-768	; 0xfffffd00
     434:	611c0000 	tstvs	ip, r0
     438:	02000000 	andeq	r0, r0, #0, 0
     43c:	00bf220c 	adcseq	r2, pc, ip, lsl #4
     440:	9b1c0000 	blls	700448 <__bss_end__+0x6f55d8>
     444:	02000000 	andeq	r0, r0, #0, 0
     448:	00bf340c 	adcseq	r3, pc, ip, lsl #8
     44c:	311c0000 	tstcc	ip, r0
     450:	02000000 	andeq	r0, r0, #0, 0
     454:	002c430c 	eoreq	r4, ip, ip, lsl #6
     458:	1d000000 	stcne	0, cr0, [r0, #-0]
     45c:	6e089e0a 	cdpvs	14, 0, cr9, cr8, cr10, {0}
     460:	616d746f 	cmnvs	sp, pc, ror #8
     464:	1e006e69 	cdpne	14, 0, cr6, cr0, cr9, {3}
     468:	000006eb 	andeq	r0, r0, fp, ror #13
     46c:	000006eb 	andeq	r0, r0, fp, ror #13
     470:	1e062804 	cdpne	8, 0, cr2, cr6, cr4, {0}
     474:	000000a0 	andeq	r0, r0, r0, lsr #1
     478:	000000a0 	andeq	r0, r0, r0, lsr #1
     47c:	1e0f3104 	adfnee	f3, f7, f4
     480:	00000018 	andeq	r0, r0, r8, lsl r0
     484:	00000018 	andeq	r0, r0, r8, lsl r0
     488:	1e085105 	adfnee	f5, f0, f5
     48c:	00000184 	andeq	r0, r0, r4, lsl #3
     490:	00000184 	andeq	r0, r0, r4, lsl #3
     494:	1e075205 	cdpne	2, 0, cr5, cr7, cr5, {0}
     498:	00000052 	andeq	r0, r0, r2, asr r0
     49c:	00000052 	andeq	r0, r0, r2, asr r0
     4a0:	1e055d05 	cdpne	13, 0, cr5, cr5, cr5, {0}
     4a4:	00000074 	andeq	r0, r0, r4, ror r0
     4a8:	00000074 	andeq	r0, r0, r4, ror r0
     4ac:	00066e04 	andeq	r6, r6, r4, lsl #28
     4b0:	00000be7 	andeq	r0, r0, r7, ror #23
     4b4:	01ac0004 			; <UNDEFINED> instruction: 0x01ac0004
     4b8:	01040000 	mrseq	r0, (UNDEF: 4)
     4bc:	000001bb 			; <UNDEFINED> instruction: 0x000001bb
     4c0:	0003510c 	andeq	r5, r3, ip, lsl #2
     4c4:	0000f300 	andeq	pc, r0, r0, lsl #6
     4c8:	00813000 	addeq	r3, r1, r0
     4cc:	00052c00 	andeq	r2, r5, r0, lsl #24
     4d0:	0001a700 	andeq	sl, r1, r0, lsl #14
     4d4:	05040200 	streq	r0, [r4, #-512]	; 0xfffffe00
     4d8:	00746e69 	rsbseq	r6, r4, r9, ror #28
     4dc:	cd070403 	cfstrsgt	mvf0, [r7, #-12]
     4e0:	03000000 	movweq	r0, #0
     4e4:	00680601 	rsbeq	r0, r8, r1, lsl #12
     4e8:	02030000 	andeq	r0, r3, #0, 0
     4ec:	00018b05 	andeq	r8, r1, r5, lsl #22
     4f0:	05040300 	streq	r0, [r4, #-768]	; 0xfffffd00
     4f4:	00000150 	andeq	r0, r0, r0, asr r1
     4f8:	4b050803 	blmi	14250c <__bss_end__+0x13769c>
     4fc:	04000001 	streq	r0, [r0], #-1
     500:	000000da 	ldrdeq	r0, [r0], -sl
     504:	5b182e03 	blpl	60bd18 <__bss_end__+0x600ea8>
     508:	03000000 	movweq	r0, #0
     50c:	00660801 	rsbeq	r0, r6, r1, lsl #16
     510:	9f040000 	svcls	0x00040000
     514:	03000001 	movweq	r0, #1
     518:	006e1931 	rsbeq	r1, lr, r1, lsr r9
     51c:	02030000 	andeq	r0, r3, #0, 0
     520:	00008107 	andeq	r8, r0, r7, lsl #2
     524:	01a80400 			; <UNDEFINED> instruction: 0x01a80400
     528:	34030000 	strcc	r0, [r3], #-0
     52c:	00008119 	andeq	r8, r0, r9, lsl r1
     530:	07040300 	streq	r0, [r4, -r0, lsl #6]
     534:	000000c8 	andeq	r0, r0, r8, asr #1
     538:	c3070803 	movwgt	r0, #30723	; 0x7803
     53c:	05000000 	streq	r0, [r0, #-0]
     540:	00000025 	andeq	r0, r0, r5, lsr #32
     544:	0000009e 	muleq	r0, lr, r0
     548:	00002506 	andeq	r2, r0, r6, lsl #10
     54c:	59070000 	stmdbpl	r7, {}	; <UNPREDICTABLE>
     550:	04000001 	streq	r0, [r0], #-1
     554:	00aa0e1c 	adceq	r0, sl, ip, lsl lr
     558:	04080000 	streq	r0, [r8], #-0
     55c:	0000008f 	andeq	r0, r0, pc, lsl #1
     560:	00002505 	andeq	r2, r0, r5, lsl #10
     564:	0000bf00 	andeq	fp, r0, r0, lsl #30
     568:	00bf0600 	adcseq	r0, pc, r0, lsl #12
     56c:	08000000 	stmdaeq	r0, {}	; <UNPREDICTABLE>
     570:	0000cc04 	andeq	ip, r0, r4, lsl #24
     574:	08010300 	stmdaeq	r1, {r8, r9}
     578:	0000006f 	andeq	r0, r0, pc, rrx
     57c:	0000c509 	andeq	ip, r0, r9, lsl #10
     580:	07290700 	streq	r0, [r9, -r0, lsl #14]!
     584:	21040000 	mrscs	r0, (UNDEF: 4)
     588:	0000dd0e 	andeq	sp, r0, lr, lsl #26
     58c:	b0040800 	andlt	r0, r4, r0, lsl #16
     590:	03000000 	movweq	r0, #0
     594:	03710408 	cmneq	r1, #8, 8	; 0x8000000
     598:	040a0000 	streq	r0, [sl], #-0
     59c:	04050c0b 	streq	r0, [r5], #-3083	; 0xfffff3f5
     5a0:	00011d09 	andeq	r1, r1, r9, lsl #26
     5a4:	00610c00 	rsbeq	r0, r1, r0, lsl #24
     5a8:	06050000 	streq	r0, [r5], -r0
     5ac:	0000bf11 	andeq	fp, r0, r1, lsl pc
     5b0:	9b0c0000 	blls	3005b8 <__bss_end__+0x2f5748>
     5b4:	05000000 	streq	r0, [r0, #-0]
     5b8:	00bf1107 	adcseq	r1, pc, r7, lsl #2
     5bc:	0c040000 	stceq	0, cr0, [r4], {-0}
     5c0:	00000031 	andeq	r0, r0, r1, lsr r0
     5c4:	2c0e0805 	stccs	8, cr0, [lr], {5}
     5c8:	08000000 	stmdaeq	r0, {}	; <UNPREDICTABLE>
     5cc:	01950400 	orrseq	r0, r5, r0, lsl #8
     5d0:	09050000 	stmdbeq	r5, {}	; <UNPREDICTABLE>
     5d4:	0000ec03 	andeq	lr, r0, r3, lsl #24
     5d8:	01070d00 	tsteq	r7, r0, lsl #26
     5dc:	0000005b 	andeq	r0, r0, fp, asr r0
     5e0:	440e0902 	strmi	r0, [lr], #-2306	; 0xfffff6fe
     5e4:	0e000001 	cdpeq	0, 0, cr0, cr0, cr1, {0}
     5e8:	00000386 	andeq	r0, r0, r6, lsl #7
     5ec:	02ba0e0b 	adcseq	r0, sl, #176	; 0xb0
     5f0:	000c0000 	andeq	r0, ip, r0
     5f4:	5b01070d 	blpl	42230 <__bss_end__+0x373c0>
     5f8:	02000000 	andeq	r0, r0, #0, 0
     5fc:	015f060a 	cmpeq	pc, sl, lsl #12
     600:	e80e0000 	stmda	lr, {}	; <UNPREDICTABLE>
     604:	80000002 	andhi	r0, r0, r2
     608:	0002dc0e 	andeq	sp, r2, lr, lsl #24
     60c:	0f00fe00 	svceq	0x0000fe00
     610:	0000027b 	andeq	r0, r0, fp, ror r2
     614:	2c110c02 	ldccs	12, cr0, [r1], {2}
     618:	05000000 	streq	r0, [r0, #-0]
     61c:	00aa2403 	adceq	r2, sl, r3, lsl #8
     620:	00941000 	addseq	r1, r4, r0
     624:	02a80000 	adceq	r0, r8, #0, 0
     628:	02011010 	andeq	r1, r1, #16, 0
     62c:	130c0000 	movwne	r0, #49152	; 0xc000
     630:	02000000 	andeq	r0, r0, #0, 0
     634:	02011411 	andeq	r1, r1, #285212672	; 0x11000000
     638:	0c000000 	stceq	0, cr0, [r0], {-0}
     63c:	00000045 	andeq	r0, r0, r5, asr #32
     640:	750e1202 	strvc	r1, [lr, #-514]	; 0xfffffdfe
     644:	04000000 	streq	r0, [r0], #-0
     648:	0000200c 	andeq	r2, r0, ip
     64c:	0e130200 	cdpeq	2, 1, cr0, cr3, cr0, {0}
     650:	00000075 	andeq	r0, r0, r5, ror r0
     654:	02800c08 	addeq	r0, r0, #8, 24	; 0x800
     658:	17020000 	strne	r0, [r2, -r0]
     65c:	0000750e 	andeq	r7, r0, lr, lsl #10
     660:	e20c0c00 	and	r0, ip, #0, 24
     664:	02000000 	andeq	r0, r0, #0, 0
     668:	011d0f19 	tsteq	sp, r9, lsl pc
     66c:	0c100000 	ldceq	0, cr0, [r0], {-0}
     670:	00000270 	andeq	r0, r0, r0, ror r2
     674:	750e1c02 	strvc	r1, [lr, #-3074]	; 0xfffff3fe
     678:	1c000000 	stcne	0, cr0, [r0], {-0}
     67c:	0002890c 	andeq	r8, r2, ip, lsl #18
     680:	0e1d0200 	cdpeq	2, 1, cr0, cr13, cr0, {0}
     684:	00000075 	andeq	r0, r0, r5, ror r0
     688:	00380c20 	eorseq	r0, r8, r0, lsr #24
     68c:	1f020000 	svcne	0x00020000
     690:	0000620e 	andeq	r6, r0, lr, lsl #4
     694:	ec0c2400 	cfstrs	mvf2, [ip], {-0}
     698:	02000000 	andeq	r0, r0, #0, 0
     69c:	00620b20 	rsbeq	r0, r2, r0, lsr #22
     6a0:	11260000 			; <UNDEFINED> instruction: 0x11260000
     6a4:	00317a72 	eorseq	r7, r1, r2, ror sl
     6a8:	070d2202 	streq	r2, [sp, -r2, lsl #4]
     6ac:	28000002 	stmdacs	r0, {r1}
     6b0:	71040800 	tstvc	r4, r0, lsl #16
     6b4:	12000001 	andne	r0, r0, #1, 0
     6b8:	0000004f 	andeq	r0, r0, pc, asr #32
     6bc:	00000217 	andeq	r0, r0, r7, lsl r2
     6c0:	00002c13 	andeq	r2, r0, r3, lsl ip
     6c4:	04007f00 	streq	r7, [r0], #-3840	; 0xfffff100
     6c8:	0000000d 	andeq	r0, r0, sp
     6cc:	71032302 	tstvc	r3, r2, lsl #6
     6d0:	0f000001 	svceq	0x00000001
     6d4:	000000b8 	strheq	r0, [r0], -r8
     6d8:	350f2502 	strcc	r2, [pc, #-1282]	; 1de <__code_start__-0x7e22>
     6dc:	05000002 	streq	r0, [r0, #-2]
     6e0:	00aa4403 	adceq	r4, sl, r3, lsl #8
     6e4:	17040800 	strne	r0, [r4, -r0, lsl #16]
     6e8:	0f000002 	svceq	0x00000002
     6ec:	000001b1 			; <UNDEFINED> instruction: 0x000001b1
     6f0:	350f2602 	strcc	r2, [pc, #-1538]	; f6 <__code_start__-0x7f0a>
     6f4:	05000002 	streq	r0, [r0, #-2]
     6f8:	00aa4003 	adceq	r4, sl, r3
     6fc:	00000700 	andeq	r0, r0, r0, lsl #14
     700:	ad020000 	stcge	0, cr0, [r2, #-0]
     704:	00002c11 	andeq	r2, r0, r1, lsl ip
     708:	00181400 	andseq	r1, r8, r0, lsl #8
     70c:	a9010000 	stmdbge	r1, {}	; <UNPREDICTABLE>
     710:	0000ea08 	andeq	lr, r0, r8, lsl #20
     714:	00858000 	addeq	r8, r5, r0
     718:	0000dc00 	andeq	sp, r0, r0, lsl #24
     71c:	a59c0100 	ldrge	r0, [ip, #256]	; 0x100
     720:	15000003 	strne	r0, [r0, #-3]
     724:	000003b1 			; <UNDEFINED> instruction: 0x000003b1
     728:	751aa901 	ldrvc	sl, [sl, #-2305]	; 0xfffff6ff
     72c:	72000000 	andvc	r0, r0, #0, 0
     730:	6c000001 	stcvs	0, cr0, [r0], {1}
     734:	16000001 	strne	r0, [r0], -r1
     738:	a901006c 	stmdbge	r1, {r2, r3, r5, r6}
     73c:	00011d2c 	andeq	r1, r1, ip, lsr #26
     740:	64910200 	ldrvs	r0, [r1], #512	; 0x200
     744:	01006817 	tsteq	r0, r7, lsl r8
     748:	02350cab 	eorseq	r0, r5, #43776	; 0xab00
     74c:	01a40000 			; <UNDEFINED> instruction: 0x01a40000
     750:	019e0000 	orrseq	r0, lr, r0
     754:	6a180000 	bvs	60075c <__bss_end__+0x5f58ec>
     758:	e000000b 	and	r0, r0, fp
     75c:	01000085 	smlabbeq	r0, r5, r0, r0
     760:	000085e0 	andeq	r8, r0, r0, ror #11
     764:	00000008 	andeq	r0, r0, r8
     768:	dd11b601 	ldcle	6, cr11, [r1, #-4]
     76c:	19000002 	stmdbne	r0, {r1}
     770:	00000b7b 	andeq	r0, r0, fp, ror fp
     774:	000001d2 	ldrdeq	r0, [r0], -r2
     778:	000001d0 	ldrdeq	r0, [r0], -r0	; <UNPREDICTABLE>
     77c:	0085e81a 	addeq	lr, r5, sl, lsl r8
     780:	0009db00 	andeq	sp, r9, r0, lsl #22
     784:	50011b00 	andpl	r1, r1, r0, lsl #22
     788:	00007402 	andeq	r7, r0, r2, lsl #8
     78c:	859c1c00 	ldrhi	r1, [ip, #3072]	; 0xc00
     790:	0ba20000 	bleq	fe880798 <__bss_end__+0xfe875928>
     794:	02f20000 	rscseq	r0, r2, #0, 0
     798:	011b0000 	tsteq	fp, r0
     79c:	a8760350 	ldmdage	r6!, {r4, r6, r8, r9}^
     7a0:	ac1c0002 	ldcge	0, cr0, [ip], {2}
     7a4:	ae000085 	cdpge	0, 0, cr0, cr0, cr5, {4}
     7a8:	1100000b 	tstne	r0, fp
     7ac:	1b000003 	blne	7c0 <__code_start__-0x7840>
     7b0:	74025001 	strvc	r5, [r2], #-1
     7b4:	51011b00 	tstpl	r1, r0, lsl #22
     7b8:	011b3001 	tsteq	fp, r1
     7bc:	a8080252 	stmdage	r8, {r1, r4, r6, r9}
     7c0:	85bc1c00 	ldrhi	r1, [ip, #3072]!	; 0xc00
     7c4:	0bae0000 	bleq	feb807cc <__bss_end__+0xfeb7595c>
     7c8:	03310000 	teqeq	r1, #0, 0
     7cc:	011b0000 	tsteq	fp, r0
     7d0:	28740250 	ldmdacs	r4!, {r4, r6, r9}^
     7d4:	0251011b 	subseq	r0, r1, #-1073741818	; 0xc0000006
     7d8:	011bfe08 	tsteq	fp, r8, lsl #28	; <UNPREDICTABLE>
     7dc:	80080252 	andhi	r0, r8, r2, asr r2
     7e0:	85f41c00 	ldrbhi	r1, [r4, #3072]!	; 0xc00
     7e4:	0bae0000 	bleq	feb807ec <__bss_end__+0xfeb7597c>
     7e8:	034b0000 	movteq	r0, #45056	; 0xb000
     7ec:	011b0000 	tsteq	fp, r0
     7f0:	fe080251 	mcr2	2, 0, r0, cr8, cr1, {2}
     7f4:	0252011b 	subseq	r0, r2, #-1073741818	; 0xc0000006
     7f8:	1c008008 	stcne	0, cr8, [r0], {8}
     7fc:	0000861c 	andeq	r8, r0, ip, lsl r6
     800:	00000bba 			; <UNDEFINED> instruction: 0x00000bba
     804:	00000377 	andeq	r0, r0, r7, ror r3
     808:	0550011b 	ldrbeq	r0, [r0, #-283]	; 0xfffffee5
     80c:	00a1e403 	adceq	lr, r1, r3, lsl #8
     810:	51011b00 	tstpl	r1, r0, lsl #22
     814:	06007503 	streq	r7, [r0], -r3, lsl #10
     818:	0352011b 	cmpeq	r2, #-1073741818	; 0xc0000006
     81c:	1b066091 	blne	198a68 <__bss_end__+0x18dbf8>
     820:	91035301 	tstls	r3, r1, lsl #6
     824:	1c000664 	stcne	6, cr0, [r0], {100}	; 0x64
     828:	00008630 	andeq	r8, r0, r0, lsr r6
     82c:	00000bba 			; <UNDEFINED> instruction: 0x00000bba
     830:	00000394 	muleq	r0, r4, r3
     834:	0550011b 	ldrbeq	r0, [r0, #-283]	; 0xfffffee5
     838:	00a2a403 	adceq	sl, r2, r3, lsl #8
     83c:	52011b00 	andpl	r1, r1, #0, 22
     840:	00007502 	andeq	r7, r0, r2, lsl #10
     844:	0086401a 	addeq	r4, r6, sl, lsl r0
     848:	000aaf00 	andeq	sl, sl, r0, lsl #30
     84c:	51011b00 	tstpl	r1, r0, lsl #22
     850:	00007402 	andeq	r7, r0, r2, lsl #8
     854:	01841d00 	orreq	r1, r4, r0, lsl #26
     858:	92010000 	andls	r0, r1, #0, 0
     85c:	00841007 	addeq	r1, r4, r7
     860:	00017000 	andeq	r7, r1, r0
     864:	e89c0100 	ldm	ip, {r8}
     868:	15000005 	strne	r0, [r0, #-5]
     86c:	00000bd9 	ldrdeq	r0, [r0], -r9
     870:	ea159201 	b	56507c <__bss_end__+0x55a20c>
     874:	e9000000 	stmdb	r0, {}	; <UNPREDICTABLE>
     878:	e5000001 	str	r0, [r0, #-1]
     87c:	16000001 	strne	r0, [r0], -r1
     880:	9201006c 	andls	r0, r1, #108, 0	; 0x6c
     884:	00011d25 	andeq	r1, r1, r5, lsr #26
     888:	e4910300 	ldr	r0, [r1], #768	; 0x300
     88c:	0068177e 	rsbeq	r1, r8, lr, ror r7
     890:	350c9301 	strcc	r9, [ip, #-769]	; 0xfffffcff
     894:	0f000002 	svceq	0x00000002
     898:	07000002 	streq	r0, [r0, -r2]
     89c:	1e000002 	cdpne	0, 0, cr0, cr0, cr2, {0}
     8a0:	000000ab 	andeq	r0, r0, fp, lsr #1
     8a4:	000005f8 	strdeq	r0, [r0], -r8
     8a8:	a2d40305 	sbcsge	r0, r4, #335544320	; 0x14000000
     8ac:	5b0f0000 	blpl	3c08b4 <__bss_end__+0x3b5a44>
     8b0:	01000003 	tsteq	r0, r3
     8b4:	02070a99 	andeq	r0, r7, #626688	; 0x99000
     8b8:	91030000 	mrsls	r0, (UNDEF: 3)
     8bc:	701f7ef0 			; <UNDEFINED> instruction: 0x701f7ef0
     8c0:	24000084 	strcs	r0, [r0], #-132	; 0xffffff7c
     8c4:	2e000000 	cdpcs	0, 0, cr0, cr0, cr0, {0}
     8c8:	17000004 	strne	r0, [r0, -r4]
     8cc:	9a010069 	bls	40a78 <__bss_end__+0x35c08>
     8d0:	00002c10 	andeq	r2, r0, r0, lsl ip
     8d4:	00024f00 	andeq	r4, r2, r0, lsl #30
     8d8:	00024900 	andeq	r4, r2, r0, lsl #18
     8dc:	481c0000 	ldmdami	ip, {}	; <UNPREDICTABLE>
     8e0:	ba000084 	blt	af8 <__code_start__-0x7508>
     8e4:	5d00000b 	stcpl	0, cr0, [r0, #-44]	; 0xffffffd4
     8e8:	1b000004 	blne	900 <__code_start__-0x7700>
     8ec:	03055001 	movweq	r5, #20481	; 0x5001
     8f0:	0000a1e4 	andeq	sl, r0, r4, ror #3
     8f4:	0451011b 	ldrbeq	r0, [r1], #-283	; 0xfffffee5
     8f8:	067edc91 			; <UNDEFINED> instruction: 0x067edc91
     8fc:	0452011b 	ldrbeq	r0, [r2], #-283	; 0xfffffee5
     900:	067ee091 			; <UNDEFINED> instruction: 0x067ee091
     904:	0453011b 	ldrbeq	r0, [r3], #-283	; 0xfffffee5
     908:	067ee491 			; <UNDEFINED> instruction: 0x067ee491
     90c:	84581c00 	ldrbhi	r1, [r8], #-3072	; 0xfffff400
     910:	0bba0000 	bleq	fee80918 <__bss_end__+0xfee75aa8>
     914:	047a0000 	ldrbteq	r0, [sl], #-0
     918:	011b0000 	tsteq	fp, r0
     91c:	f0030550 			; <UNDEFINED> instruction: 0xf0030550
     920:	1b0000a1 	blne	bac <__code_start__-0x7454>
     924:	74025201 	strvc	r5, [r2], #-513	; 0xfffffdff
     928:	601c0000 	andsvs	r0, ip, r0
     92c:	5e000084 	cdppl	0, 0, cr0, cr0, cr4, {4}
     930:	8e000008 	cdphi	0, 0, cr0, cr0, cr8, {0}
     934:	1b000004 	blne	94c <__code_start__-0x76b4>
     938:	74025001 	strvc	r5, [r2], #-1
     93c:	a41c0000 	ldrge	r0, [ip], #-0
     940:	ba000084 	blt	b58 <__code_start__-0x74a8>
     944:	b500000b 	strlt	r0, [r0, #-11]
     948:	1b000004 	blne	960 <__code_start__-0x76a0>
     94c:	03055001 	movweq	r5, #20481	; 0x5001
     950:	0000a198 	muleq	r0, r8, r1
     954:	0452011b 	ldrbeq	r0, [r2], #-283	; 0xfffffee5
     958:	067ee091 			; <UNDEFINED> instruction: 0x067ee091
     95c:	0453011b 	ldrbeq	r0, [r3], #-283	; 0xfffffee5
     960:	067ee491 			; <UNDEFINED> instruction: 0x067ee491
     964:	84b41c00 	ldrthi	r1, [r4], #3072	; 0xc00
     968:	0bba0000 	bleq	fee80970 <__bss_end__+0xfee75b00>
     96c:	04d20000 	ldrbeq	r0, [r2], #0
     970:	011b0000 	tsteq	fp, r0
     974:	b0030550 	andlt	r0, r3, r0, asr r5
     978:	1b0000a1 	blne	c04 <__code_start__-0x73fc>
     97c:	74025101 	strvc	r5, [r2], #-257	; 0xfffffeff
     980:	b8200000 	stmdalt	r0!, {}	; <UNPREDICTABLE>
     984:	c6000084 	strgt	r0, [r0], -r4, lsl #1
     988:	1c00000b 	stcne	0, cr0, [r0], {11}
     98c:	000084d4 	ldrdeq	r8, [r0], -r4
     990:	00000bba 			; <UNDEFINED> instruction: 0x00000bba
     994:	00000514 	andeq	r0, r0, r4, lsl r5
     998:	0550011b 	ldrbeq	r0, [r0, #-283]	; 0xfffffee5
     99c:	00a0e003 	adceq	lr, r0, r3
     9a0:	51011b00 	tstpl	r1, r0, lsl #22
     9a4:	a0d40305 	sbcsge	r0, r4, r5, lsl #6
     9a8:	011b0000 	tsteq	fp, r0
     9ac:	d4030552 	strle	r0, [r3], #-1362	; 0xfffffaae
     9b0:	1b0000a2 	blne	c40 <__code_start__-0x73c0>
     9b4:	08025301 	stmdaeq	r2, {r0, r8, r9, ip, lr}
     9b8:	7d021b97 	vstrvc	d1, [r2, #-604]	; 0xfffffda4
     9bc:	10030500 	andne	r0, r3, r0, lsl #10
     9c0:	000000a2 	andeq	r0, r0, r2, lsr #1
     9c4:	0084d820 	addeq	sp, r4, r0, lsr #16
     9c8:	000bc600 	andeq	ip, fp, r0, lsl #12
     9cc:	84e41c00 	strbthi	r1, [r4], #3072	; 0xc00
     9d0:	076e0000 	strbeq	r0, [lr, -r0]!
     9d4:	05380000 	ldreq	r0, [r8, #-0]!
     9d8:	011b0000 	tsteq	fp, r0
     9dc:	00750250 	rsbseq	r0, r5, r0, asr r2
     9e0:	0351011b 	cmpeq	r1, #-1073741818	; 0xc0000006
     9e4:	007ee891 			; <UNDEFINED> instruction: 0x007ee891
     9e8:	0084fc1c 	addeq	pc, r4, ip, lsl ip	; <UNPREDICTABLE>
     9ec:	000bae00 	andeq	sl, fp, r0, lsl #28
     9f0:	00055200 	andeq	r5, r5, r0, lsl #4
     9f4:	50011b00 	andpl	r1, r1, r0, lsl #22
     9f8:	1b007402 	blne	1da08 <__bss_end__+0x12b98>
     9fc:	08025101 	stmdaeq	r2, {r0, r8, ip, lr}
     a00:	041c00fe 	ldreq	r0, [ip], #-254	; 0xffffff02
     a04:	5e000085 	cdppl	0, 0, cr0, cr0, cr5, {4}
     a08:	66000008 	strvs	r0, [r0], -r8
     a0c:	1b000005 	blne	a28 <__code_start__-0x75d8>
     a10:	74025001 	strvc	r5, [r2], #-1
     a14:	341c0000 	ldrcc	r0, [ip], #-0
     a18:	ba000085 	blt	c34 <__code_start__-0x73cc>
     a1c:	9c00000b 	stcls	0, cr0, [r0], {11}
     a20:	1b000005 	blne	a3c <__code_start__-0x75c4>
     a24:	03055001 	movweq	r5, #20481	; 0x5001
     a28:	0000a230 	andeq	sl, r0, r0, lsr r2
     a2c:	0551011b 	ldrbeq	r0, [r1, #-283]	; 0xfffffee5
     a30:	00a0d403 	adceq	sp, r0, r3, lsl #8
     a34:	52011b00 	andpl	r1, r1, #0, 22
     a38:	a2d40305 	sbcsge	r0, r4, #335544320	; 0x14000000
     a3c:	011b0000 	tsteq	fp, r0
     a40:	9f080253 	svcls	0x00080253
     a44:	047d021b 	ldrbteq	r0, [sp], #-539	; 0xfffffde5
     a48:	00007502 	andeq	r7, r0, r2, lsl #10
     a4c:	00853820 	addeq	r3, r5, r0, lsr #16
     a50:	000bc600 	andeq	ip, fp, r0, lsl #12
     a54:	85541c00 	ldrbhi	r1, [r4, #-3072]	; 0xfffff400
     a58:	0bba0000 	bleq	fee80a60 <__bss_end__+0xfee75bf0>
     a5c:	05de0000 	ldrbeq	r0, [lr]
     a60:	011b0000 	tsteq	fp, r0
     a64:	e0030550 	and	r0, r3, r0, asr r5
     a68:	1b0000a0 	blne	cf0 <__code_start__-0x7310>
     a6c:	03055101 	movweq	r5, #20737	; 0x5101
     a70:	0000a0d4 	ldrdeq	sl, [r0], -r4
     a74:	0552011b 	ldrbeq	r0, [r2, #-283]	; 0xfffffee5
     a78:	00a2d403 	adceq	sp, r2, r3, lsl #8
     a7c:	53011b00 	movwpl	r1, #6912	; 0x1b00
     a80:	1ba20802 	blne	fe882a90 <__bss_end__+0xfe877c20>
     a84:	05007d02 	streq	r7, [r0, #-3330]	; 0xfffff2fe
     a88:	00a28803 	adceq	r8, r2, r3, lsl #16
     a8c:	58200000 	stmdapl	r0!, {}	; <UNPREDICTABLE>
     a90:	c6000085 	strgt	r0, [r0], -r5, lsl #1
     a94:	0000000b 	andeq	r0, r0, fp
     a98:	0000cc12 	andeq	ip, r0, r2, lsl ip
     a9c:	0005f800 	andeq	pc, r5, r0, lsl #16
     aa0:	002c1300 	eoreq	r1, ip, r0, lsl #6
     aa4:	00060000 	andeq	r0, r6, r0
     aa8:	0005e809 	andeq	lr, r5, r9, lsl #16
     aac:	00521400 	subseq	r1, r2, r0, lsl #8
     ab0:	7a010000 	bvc	40ab8 <__bss_end__+0x35c48>
     ab4:	00002505 	andeq	r2, r0, r5, lsl #10
     ab8:	00836c00 	addeq	r6, r3, r0, lsl #24
     abc:	0000a400 	andeq	sl, r0, r0, lsl #8
     ac0:	109c0100 	addsne	r0, ip, r0, lsl #2
     ac4:	21000007 	tstcs	r0, r7
     ac8:	00000345 	andeq	r0, r0, r5, asr #6
     acc:	35097c01 	strcc	r7, [r9, #-3073]	; 0xfffff3ff
     ad0:	7d000002 	stcvc	0, cr0, [r0, #-8]
     ad4:	79000002 	stmdbvc	r0, {r1}
     ad8:	0f000002 	svceq	0x00000002
     adc:	0000035b 	andeq	r0, r0, fp, asr r3
     ae0:	070a7d01 	streq	r7, [sl, -r1, lsl #26]
     ae4:	03000002 	movweq	r0, #2
     ae8:	217ef091 			; <UNDEFINED> instruction: 0x217ef091
     aec:	000002c0 	andeq	r0, r0, r0, asr #5
     af0:	100e7e01 	andne	r7, lr, r1, lsl #28
     af4:	9f000007 	svcls	0x00000007
     af8:	9b000002 	blls	b08 <__code_start__-0x74f8>
     afc:	21000002 	tstcs	r0, r2
     b00:	0000031a 	andeq	r0, r0, sl, lsl r3
     b04:	2c0b7f01 	stccs	15, cr7, [fp], {1}
     b08:	c3000000 	movwgt	r0, #0
     b0c:	bd000002 	stclt	0, cr0, [r0, #-8]
     b10:	1c000002 	stcne	0, cr0, [r0], {2}
     b14:	0000837c 	andeq	r8, r0, ip, ror r3
     b18:	00000bba 			; <UNDEFINED> instruction: 0x00000bba
     b1c:	0000067a 	andeq	r0, r0, sl, ror r6
     b20:	0550011b 	ldrbeq	r0, [r0, #-283]	; 0xfffffee5
     b24:	00a13003 	adceq	r3, r1, r3
     b28:	80200000 	eorhi	r0, r0, r0
     b2c:	99000083 	stmdbls	r0, {r0, r1, r7}
     b30:	1c00000a 	stcne	0, cr0, [r0], {10}
     b34:	00008394 	muleq	r0, r4, r3
     b38:	00000bd2 	ldrdeq	r0, [r0], -r2
     b3c:	000006a3 	andeq	r0, r0, r3, lsr #13
     b40:	0250011b 	subseq	r0, r0, #-1073741818	; 0xc0000006
     b44:	011b007d 	tsteq	fp, sp, ror r0
     b48:	28740251 	ldmdacs	r4!, {r0, r4, r6, r9}^
     b4c:	0252011b 	subseq	r0, r2, #-1073741818	; 0xc0000006
     b50:	1c008008 	stcne	0, cr8, [r0], {8}
     b54:	000083a8 	andeq	r8, r0, r8, lsr #7
     b58:	00000bba 			; <UNDEFINED> instruction: 0x00000bba
     b5c:	000006ba 			; <UNDEFINED> instruction: 0x000006ba
     b60:	0550011b 	ldrbeq	r0, [r0, #-283]	; 0xfffffee5
     b64:	00a15403 	adceq	r5, r1, r3, lsl #8
     b68:	b81c0000 	ldmdalt	ip, {}	; <UNPREDICTABLE>
     b6c:	ba000083 	blt	d80 <__code_start__-0x7280>
     b70:	d100000b 	tstle	r0, fp
     b74:	1b000006 	blne	b94 <__code_start__-0x746c>
     b78:	03055001 	movweq	r5, #20481	; 0x5001
     b7c:	0000a178 	andeq	sl, r0, r8, ror r1
     b80:	83c41c00 	bichi	r1, r4, #0, 24
     b84:	0a6c0000 	beq	1b00b8c <__bss_end__+0x1af5d1c>
     b88:	06e50000 	strbteq	r0, [r5], r0
     b8c:	011b0000 	tsteq	fp, r0
     b90:	00740250 	rsbseq	r0, r4, r0, asr r2
     b94:	83dc1c00 	bicshi	r1, ip, #0, 24
     b98:	076e0000 	strbeq	r0, [lr, -r0]!
     b9c:	06ff0000 	ldrbteq	r0, [pc], r0
     ba0:	011b0000 	tsteq	fp, r0
     ba4:	00740250 	rsbseq	r0, r4, r0, asr r2
     ba8:	0251011b 	subseq	r0, r1, #-1073741818	; 0xc0000006
     bac:	1a000076 	bne	d8c <__code_start__-0x7274>
     bb0:	000083ec 	andeq	r8, r0, ip, ror #7
     bb4:	00000717 	andeq	r0, r0, r7, lsl r7
     bb8:	0250011b 	subseq	r0, r0, #-1073741818	; 0xc0000006
     bbc:	00000074 	andeq	r0, r0, r4, ror r0
     bc0:	07160408 	ldreq	r0, [r6, -r8, lsl #8]
     bc4:	14220000 	strtne	r0, [r2], #-0
     bc8:	00000304 	andeq	r0, r0, r4, lsl #6
     bcc:	25056b01 	strcs	r6, [r5, #-2817]	; 0xfffff4ff
     bd0:	20000000 	andcs	r0, r0, r0
     bd4:	4c000083 	stcmi	0, cr0, [r0], {131}	; 0x83
     bd8:	01000000 	mrseq	r0, (UNDEF: 0)
     bdc:	0007689c 	muleq	r7, ip, r8
     be0:	00682300 	rsbeq	r2, r8, r0, lsl #6
     be4:	351b6b01 	ldrcc	r6, [fp, #-2817]	; 0xfffff4ff
     be8:	f9000002 			; <UNDEFINED> instruction: 0xf9000002
     bec:	ed000002 	stc	0, cr0, [r0, #-8]
     bf0:	24000002 	strcs	r0, [r0], #-2
     bf4:	00000b56 	andeq	r0, r0, r6, asr fp
     bf8:	680b7101 	stmdavs	fp, {r0, r8, ip, sp, lr}
     bfc:	25000007 	strcs	r0, [r0, #-7]
     c00:	00000018 	andeq	r0, r0, r8, lsl r0
     c04:	01006917 	tsteq	r0, r7, lsl r9
     c08:	002c1072 	eoreq	r1, ip, r2, ror r0
     c0c:	03500000 	cmpeq	r0, #0, 0
     c10:	034c0000 	movteq	r0, #49152	; 0xc000
     c14:	00000000 	andeq	r0, r0, r0
     c18:	004f0408 	subeq	r0, pc, r8, lsl #8
     c1c:	c2140000 	andsgt	r0, r4, #0, 0
     c20:	01000003 	tsteq	r0, r3
     c24:	00250561 	eoreq	r0, r5, r1, ror #10
     c28:	82d80000 	sbcshi	r0, r8, #0, 0
     c2c:	00480000 	subeq	r0, r8, r0
     c30:	9c010000 	stcls	0, cr0, [r1], {-0}
     c34:	0000085e 	andeq	r0, r0, lr, asr r8
     c38:	01006823 	tsteq	r0, r3, lsr #16
     c3c:	02351e61 	eorseq	r1, r5, #1552	; 0x610
     c40:	03740000 	cmneq	r4, #0, 0
     c44:	036e0000 	cmneq	lr, #0, 0
     c48:	68150000 	ldmdavs	r5, {}	; <UNPREDICTABLE>
     c4c:	01000003 	tsteq	r0, r3
     c50:	07102d61 	ldreq	r2, [r0, -r1, ror #26]
     c54:	03a40000 			; <UNDEFINED> instruction: 0x03a40000
     c58:	03a00000 	moveq	r0, #0, 0
     c5c:	72170000 	andsvc	r0, r7, #0, 0
     c60:	0100327a 	tsteq	r0, sl, ror r2
     c64:	07680b62 	strbeq	r0, [r8, -r2, ror #22]!
     c68:	03c60000 	biceq	r0, r6, #0, 0
     c6c:	03c20000 	biceq	r0, r2, #0, 0
     c70:	1f210000 	svcne	0x00210000
     c74:	01000003 	tsteq	r0, r3
     c78:	00250663 	eoreq	r0, r5, r3, ror #12
     c7c:	03e80000 	mvneq	r0, #0, 0
     c80:	03e40000 	mvneq	r0, #0, 0
     c84:	a6210000 	strtge	r0, [r1], -r0
     c88:	01000003 	tsteq	r0, r3
     c8c:	00250664 	eoreq	r0, r5, r4, ror #12
     c90:	04080000 	streq	r0, [r8], #-0
     c94:	04060000 	streq	r0, [r6], #-0
     c98:	6a180000 	bvs	600ca0 <__bss_end__+0x5f5e30>
     c9c:	e400000b 	str	r0, [r0], #-11
     ca0:	01000082 	smlabbeq	r0, r2, r0, r0
     ca4:	000082e4 	andeq	r8, r0, r4, ror #5
     ca8:	00000008 	andeq	r0, r0, r8
     cac:	21116201 	tstcs	r1, r1, lsl #4
     cb0:	19000008 	stmdbne	r0, {r3}
     cb4:	00000b7b 	andeq	r0, r0, fp, ror fp
     cb8:	0000041f 	andeq	r0, r0, pc, lsl r4
     cbc:	0000041b 	andeq	r0, r0, fp, lsl r4
     cc0:	0082e81a 	addeq	lr, r2, sl, lsl r8
     cc4:	0009db00 	andeq	sp, r9, r0, lsl #22
     cc8:	50011b00 	andpl	r1, r1, r0, lsl #22
     ccc:	00007502 	andeq	r7, r0, r2, lsl #10
     cd0:	82fc1c00 	rscshi	r1, ip, #0, 24
     cd4:	0bde0000 	bleq	ff780cdc <__bss_end__+0xff775e6c>
     cd8:	08410000 	stmdaeq	r1, {}^	; <UNPREDICTABLE>
     cdc:	011b0000 	tsteq	fp, r0
     ce0:	28750250 	ldmdacs	r5!, {r4, r6, r9}^
     ce4:	0251011b 	subseq	r0, r1, #-1073741818	; 0xc0000006
     ce8:	011b0074 	tsteq	fp, r4, ror r0
     cec:	80080252 	andhi	r0, r8, r2, asr r2
     cf0:	83101a00 	tsthi	r0, #0, 20
     cf4:	0bde0000 	bleq	ff780cfc <__bss_end__+0xff775e8c>
     cf8:	011b0000 	tsteq	fp, r0
     cfc:	00760250 	rsbseq	r0, r6, r0, asr r2
     d00:	0251011b 	subseq	r0, r1, #-1073741818	; 0xc0000006
     d04:	011b0074 	tsteq	fp, r4, ror r0
     d08:	80080252 	andhi	r0, r8, r2, asr r2
     d0c:	27140000 	ldrcs	r0, [r4, -r0]
     d10:	01000003 	tsteq	r0, r3
     d14:	02350856 	eorseq	r0, r5, #5636096	; 0x560000
     d18:	82740000 	rsbshi	r0, r4, #0, 0
     d1c:	00640000 	rsbeq	r0, r4, r0
     d20:	9c010000 	stcls	0, cr0, [r1], {-0}
     d24:	000008ff 	strdeq	r0, [r0], -pc	; <UNPREDICTABLE>
     d28:	72747023 	rsbsvc	r7, r4, #35, 0	; 0x23
     d2c:	20560100 	subscs	r0, r6, r0, lsl #2
     d30:	000000ea 	andeq	r0, r0, sl, ror #1
     d34:	00000441 	andeq	r0, r0, r1, asr #8
     d38:	0000043d 	andeq	r0, r0, sp, lsr r4
     d3c:	00827c26 	addeq	r7, r2, r6, lsr #24
     d40:	00005000 	andeq	r5, r0, r0
     d44:	00681700 	rsbeq	r1, r8, r0, lsl #14
     d48:	35105701 	ldrcc	r5, [r0, #-1793]	; 0xfffff8ff
     d4c:	67000002 	strvs	r0, [r0, -r2]
     d50:	5f000004 	svcpl	0x00000004
     d54:	20000004 	andcs	r0, r0, r4
     d58:	00008280 	andeq	r8, r0, r0, lsl #5
     d5c:	00000a99 	muleq	r0, r9, sl
     d60:	0082901c 	addeq	r9, r2, ip, lsl r0
     d64:	000a6c00 	andeq	r6, sl, r0, lsl #24
     d68:	0008c400 	andeq	ip, r8, r0, lsl #8
     d6c:	50011b00 	andpl	r1, r1, r0, lsl #22
     d70:	00007402 	andeq	r7, r0, r2, lsl #8
     d74:	0082a81c 	addeq	sl, r2, ip, lsl r8
     d78:	0009a000 	andeq	sl, r9, r0
     d7c:	0008de00 	andeq	sp, r8, r0, lsl #28
     d80:	50011b00 	andpl	r1, r1, r0, lsl #22
     d84:	1b007402 	blne	1dd94 <__bss_end__+0x12f24>
     d88:	75025101 	strvc	r5, [r2, #-257]	; 0xfffffeff
     d8c:	cc1a0000 	ldcgt	0, cr0, [sl], {-0}
     d90:	ba000082 	blt	fa0 <__code_start__-0x7060>
     d94:	1b00000b 	blne	dc8 <__code_start__-0x7238>
     d98:	03055001 	movweq	r5, #20481	; 0x5001
     d9c:	0000a110 	andeq	sl, r0, r0, lsl r1
     da0:	0251011b 	subseq	r0, r1, #-1073741818	; 0xc0000006
     da4:	011b0075 	tsteq	fp, r5, ror r0
     da8:	00740252 	rsbseq	r0, r4, r2, asr r2
     dac:	14000000 	strne	r0, [r0], #-0
     db0:	00000378 	andeq	r0, r0, r8, ror r3
     db4:	35084c01 	strcc	r4, [r8, #-3073]	; 0xfffff3ff
     db8:	1c000002 	stcne	0, cr0, [r0], {2}
     dbc:	58000082 	stmdapl	r0, {r1, r7}
     dc0:	01000000 	mrseq	r0, (UNDEF: 0)
     dc4:	0009a09c 	muleq	r9, ip, r0
     dc8:	74702300 	ldrbtvc	r2, [r0], #-768	; 0xfffffd00
     dcc:	4c010072 	stcmi	0, cr0, [r1], {114}	; 0x72
     dd0:	0000ea1c 	andeq	lr, r0, ip, lsl sl
     dd4:	00049f00 	andeq	r9, r4, r0, lsl #30
     dd8:	00049b00 	andeq	r9, r4, r0, lsl #22
     ddc:	82242600 	eorhi	r2, r4, #0, 12
     de0:	00440000 	subeq	r0, r4, r0
     de4:	68170000 	ldmdavs	r7, {}	; <UNPREDICTABLE>
     de8:	0d4d0100 	stfeqe	f0, [sp, #-0]
     dec:	00000235 	andeq	r0, r0, r5, lsr r2
     df0:	000004c5 	andeq	r0, r0, r5, asr #9
     df4:	000004bd 			; <UNDEFINED> instruction: 0x000004bd
     df8:	00822820 	addeq	r2, r2, r0, lsr #16
     dfc:	000a9900 	andeq	r9, sl, r0, lsl #18
     e00:	82401c00 	subhi	r1, r0, #0, 24
     e04:	09a00000 	stmibeq	r0!, {}	; <UNPREDICTABLE>
     e08:	096b0000 	stmdbeq	fp!, {}^	; <UNPREDICTABLE>
     e0c:	011b0000 	tsteq	fp, r0
     e10:	00740250 	rsbseq	r0, r4, r0, asr r2
     e14:	0251011b 	subseq	r0, r1, #-1073741818	; 0xc0000006
     e18:	1c000075 	stcne	0, cr0, [r0], {117}	; 0x75
     e1c:	00008250 	andeq	r8, r0, r0, asr r2
     e20:	00000a6c 	andeq	r0, r0, ip, ror #20
     e24:	0000097f 	andeq	r0, r0, pc, ror r9
     e28:	0250011b 	subseq	r0, r0, #-1073741818	; 0xc0000006
     e2c:	1a000074 	bne	1004 <__code_start__-0x6ffc>
     e30:	00008268 	andeq	r8, r0, r8, ror #4
     e34:	00000bba 			; <UNDEFINED> instruction: 0x00000bba
     e38:	0550011b 	ldrbeq	r0, [r0, #-283]	; 0xfffffee5
     e3c:	00a0f803 	adceq	pc, r0, r3, lsl #16
     e40:	51011b00 	tstpl	r1, r0, lsl #22
     e44:	1b007502 	blne	1e254 <__bss_end__+0x133e4>
     e48:	74025201 	strvc	r5, [r2], #-513	; 0xfffffdff
     e4c:	00000000 	andeq	r0, r0, r0
     e50:	00029514 	andeq	r9, r2, r4, lsl r5
     e54:	0a440100 	beq	110125c <__bss_end__+0x10f63ec>
     e58:	0000002c 	andeq	r0, r0, ip, lsr #32
     e5c:	000081e4 	andeq	r8, r0, r4, ror #3
     e60:	00000038 	andeq	r0, r0, r8, lsr r0
     e64:	09db9c01 	ldmibeq	fp, {r0, sl, fp, ip, pc}^
     e68:	68230000 	stmdavs	r3!, {}	; <UNPREDICTABLE>
     e6c:	21440100 	mrscs	r0, (UNDEF: 84)
     e70:	00000235 	andeq	r0, r0, r5, lsr r2
     e74:	00000503 	andeq	r0, r0, r3, lsl #10
     e78:	000004f9 	strdeq	r0, [r0], -r9
     e7c:	72747016 	rsbsvc	r7, r4, #22, 0
     e80:	2a440100 	bcs	1101288 <__bss_end__+0x10f6418>
     e84:	000000ea 	andeq	r0, r0, sl, ror #1
     e88:	14005101 	strne	r5, [r0], #-257	; 0xfffffeff
     e8c:	0000039b 	muleq	r0, fp, r3
     e90:	ea073f01 	b	1d0a9c <__bss_end__+0x1c5c2c>
     e94:	cc000000 	stcgt	0, cr0, [r0], {-0}
     e98:	18000081 	stmdane	r0, {r0, r7}
     e9c:	01000000 	mrseq	r0, (UNDEF: 0)
     ea0:	000a3f9c 	muleq	sl, ip, pc	; <UNPREDICTABLE>
     ea4:	00682300 	rsbeq	r2, r8, r0, lsl #6
     ea8:	35193f01 	ldrcc	r3, [r9, #-3841]	; 0xfffff0ff
     eac:	4f000002 	svcmi	0x00000002
     eb0:	4b000005 	blmi	ecc <__code_start__-0x7134>
     eb4:	18000005 	stmdane	r0, {r0, r2}
     eb8:	00000b86 	andeq	r0, r0, r6, lsl #23
     ebc:	000081d8 	ldrdeq	r8, [r0], -r8	; <UNPREDICTABLE>
     ec0:	0081d800 	addeq	sp, r1, r0, lsl #16
     ec4:	00000400 	andeq	r0, r0, r0, lsl #8
     ec8:	26400100 	strbcs	r0, [r0], -r0, lsl #2
     ecc:	00000a2e 	andeq	r0, r0, lr, lsr #20
     ed0:	000b9719 	andeq	r9, fp, r9, lsl r7
     ed4:	00056f00 	andeq	r6, r5, r0, lsl #30
     ed8:	00056d00 	andeq	r6, r5, r0, lsl #26
     edc:	d81a0000 	ldmdale	sl, {}	; <UNPREDICTABLE>
     ee0:	3f000081 	svccc	0x00000081
     ee4:	1b00000a 	blne	f14 <__code_start__-0x70ec>
     ee8:	74025001 	strvc	r5, [r2], #-1
     eec:	14000000 	strne	r0, [r0], #-0
     ef0:	0000038e 	andeq	r0, r0, lr, lsl #7
     ef4:	ea073a01 	b	1cf700 <__bss_end__+0x1c4890>
     ef8:	c4000000 	strgt	r0, [r0], #-0
     efc:	08000081 	stmdaeq	r0, {r0, r7}
     f00:	01000000 	mrseq	r0, (UNDEF: 0)
     f04:	000a6c9c 	muleq	sl, ip, ip
     f08:	00682300 	rsbeq	r2, r8, r0, lsl #6
     f0c:	351b3a01 	ldrcc	r3, [fp, #-2561]	; 0xfffff5ff
     f10:	86000002 	strhi	r0, [r0], -r2
     f14:	82000005 	andhi	r0, r0, #5, 0
     f18:	00000005 	andeq	r0, r0, r5
     f1c:	00033914 	andeq	r3, r3, r4, lsl r9
     f20:	08330100 	ldmdaeq	r3!, {r8}
     f24:	00000235 	andeq	r0, r0, r5, lsr r2
     f28:	000081b4 			; <UNDEFINED> instruction: 0x000081b4
     f2c:	00000010 	andeq	r0, r0, r0, lsl r0
     f30:	0a999c01 	beq	fe667f3c <__bss_end__+0xfe65d0cc>
     f34:	70230000 	eorvc	r0, r3, r0
     f38:	1b330100 	blne	cc1340 <__bss_end__+0xcb64d0>
     f3c:	00000235 	andeq	r0, r0, r5, lsr r2
     f40:	000005ab 	andeq	r0, r0, fp, lsr #11
     f44:	000005a7 	andeq	r0, r0, r7, lsr #11
     f48:	02f72700 	rscseq	r2, r7, #0, 14
     f4c:	2e010000 	cdpcs	0, 0, cr0, cr1, cr0, {0}
     f50:	00023508 	andeq	r3, r2, r8, lsl #10
     f54:	0081a400 	addeq	sl, r1, r0, lsl #8
     f58:	00001000 	andeq	r1, r0, r0
     f5c:	289c0100 	ldmcs	ip, {r8}
     f60:	000002c9 	andeq	r0, r0, r9, asr #5
     f64:	300d1e01 	andcc	r1, sp, r1, lsl #28
     f68:	74000081 	strvc	r0, [r0], #-129	; 0xffffff7f
     f6c:	01000000 	mrseq	r0, (UNDEF: 0)
     f70:	000b559c 	muleq	fp, ip, r5
     f74:	006c2300 	rsbeq	r2, ip, r0, lsl #6
     f78:	35201e01 	strcc	r1, [r0, #-3585]!	; 0xfffff1ff
     f7c:	d0000002 	andle	r0, r0, r2
     f80:	cc000005 	stcgt	0, cr0, [r0], {5}
     f84:	23000005 	movwcs	r0, #5
     f88:	1e010068 	cdpne	0, 0, cr0, cr1, cr8, {3}
     f8c:	0002352a 	andeq	r3, r2, sl, lsr #10
     f90:	0005f500 	andeq	pc, r5, r0, lsl #10
     f94:	0005f100 	andeq	pc, r5, r0, lsl #2
     f98:	00ab1e00 	adceq	r1, fp, r0, lsl #28
     f9c:	0b650000 	bleq	1940fa4 <__bss_end__+0x1936134>
     fa0:	03050000 	movweq	r0, #20480	; 0x5000
     fa4:	0000a2c8 	andeq	sl, r0, r8, asr #5
     fa8:	00000025 	andeq	r0, r0, r5, lsr #32
     fac:	02a52100 	adceq	r2, r5, #0
     fb0:	26010000 	strcs	r0, [r1], -r0
     fb4:	0002350a 	andeq	r3, r2, sl, lsl #10
     fb8:	00061800 	andeq	r1, r6, r0, lsl #16
     fbc:	00061600 	andeq	r1, r6, r0, lsl #12
     fc0:	818c1c00 	orrhi	r1, ip, r0, lsl #24
     fc4:	0bba0000 	bleq	fee80fcc <__bss_end__+0xfee7615c>
     fc8:	0b4a0000 	bleq	1280fd0 <__bss_end__+0x1276160>
     fcc:	011b0000 	tsteq	fp, r0
     fd0:	e0030550 	and	r0, r3, r0, asr r5
     fd4:	1b0000a0 	blne	125c <__code_start__-0x6da4>
     fd8:	03055101 	movweq	r5, #20737	; 0x5101
     fdc:	0000a0d4 	ldrdeq	sl, [r0], -r4
     fe0:	0552011b 	ldrbeq	r0, [r2, #-283]	; 0xfffffee5
     fe4:	00a2c803 	adceq	ip, r2, r3, lsl #16
     fe8:	53011b00 	movwpl	r1, #6912	; 0x1b00
     fec:	1b250802 	blne	942ffc <__bss_end__+0x93818c>
     ff0:	05007d02 	streq	r7, [r0, #-3330]	; 0xfffff2fe
     ff4:	00a0f403 	adceq	pc, r0, r3, lsl #8
     ff8:	90200000 	eorls	r0, r0, r0
     ffc:	c6000081 	strgt	r0, [r0], -r1, lsl #1
    1000:	0000000b 	andeq	r0, r0, fp
    1004:	00cc1200 	sbceq	r1, ip, r0, lsl #4
    1008:	0b650000 	bleq	1941010 <__bss_end__+0x19361a0>
    100c:	2c130000 	ldccs	0, cr0, [r3], {-0}
    1010:	0b000000 	bleq	1018 <__code_start__-0x6fe8>
    1014:	0b550900 	bleq	154341c <__bss_end__+0x15385ac>
    1018:	af290000 	svcge	0x00290000
    101c:	02000002 	andeq	r0, r0, #2, 0
    1020:	07681844 	strbeq	r1, [r8, -r4, asr #16]!
    1024:	86030000 	strhi	r0, [r3], -r0
    1028:	2a00000b 	bcs	105c <__code_start__-0x6fa4>
    102c:	44020068 	strmi	r0, [r2], #-104	; 0xffffff98
    1030:	0002352a 	andeq	r3, r2, sl, lsr #10
    1034:	ae290000 	cdpge	0, 2, cr0, cr9, cr0, {0}
    1038:	02000003 	andeq	r0, r0, #3, 0
    103c:	002c1836 	eoreq	r1, ip, r6, lsr r8
    1040:	a2030000 	andge	r0, r3, #0, 0
    1044:	2a00000b 	bcs	1078 <__code_start__-0x6f88>
    1048:	36020068 	strcc	r0, [r2], -r8, rrx
    104c:	00023529 	andeq	r3, r2, r9, lsr #10
    1050:	b82b0000 	stmdalt	fp!, {}	; <UNPREDICTABLE>
    1054:	b8000003 	stmdalt	r0, {r0, r1}
    1058:	06000003 	streq	r0, [r0], -r3
    105c:	132b072c 			; <UNDEFINED> instruction: 0x132b072c
    1060:	13000003 	movwne	r0, #3
    1064:	04000003 	streq	r0, [r0], #-3
    1068:	eb2b07f7 	bl	ac304c <__bss_end__+0xab81dc>
    106c:	eb000006 	bl	108c <__code_start__-0x6f74>
    1070:	04000006 	streq	r0, [r0], #-6
    1074:	742b0628 	strtvc	r0, [fp], #-1576	; 0xfffff9d8
    1078:	74000000 	strvc	r0, [r0], #-0
    107c:	04000000 	streq	r0, [r0], #-0
    1080:	d52b066e 	strle	r0, [fp, #-1646]!	; 0xfffff992
    1084:	d5000002 	strle	r0, [r0, #-2]
    1088:	04000002 	streq	r0, [r0], #-2
    108c:	4a2b07f4 	bmi	ac3064 <__bss_end__+0xab81f4>
    1090:	4a000003 	bmi	10a4 <__code_start__-0x6f5c>
    1094:	04000003 	streq	r0, [r0], #-3
    1098:	610005f5 	strdvs	r0, [r0, -r5]
    109c:	0400000c 	streq	r0, [r0], #-12
    10a0:	00043900 	andeq	r3, r4, r0, lsl #18
    10a4:	bb010400 	bllt	420ac <__bss_end__+0x3723c>
    10a8:	0c000001 	stceq	0, cr0, [r0], {1}
    10ac:	000004cb 	andeq	r0, r0, fp, asr #9
    10b0:	000000f3 	strdeq	r0, [r0], -r3
    10b4:	0000865c 	andeq	r8, r0, ip, asr r6
    10b8:	000005f4 	strdeq	r0, [r0], -r4
    10bc:	000006cc 	andeq	r0, r0, ip, asr #13
    10c0:	69050402 	stmdbvs	r5, {r1, sl}
    10c4:	0300746e 	movweq	r7, #1134	; 0x46e
    10c8:	00cd0704 	sbceq	r0, sp, r4, lsl #14
    10cc:	2c040000 	stccs	0, cr0, [r4], {-0}
    10d0:	03000000 	movweq	r0, #0
    10d4:	00680601 	rsbeq	r0, r8, r1, lsl #12
    10d8:	02030000 	andeq	r0, r3, #0, 0
    10dc:	00018b05 	andeq	r8, r1, r5, lsl #22
    10e0:	05040300 	streq	r0, [r4, #-768]	; 0xfffffd00
    10e4:	00000150 	andeq	r0, r0, r0, asr r1
    10e8:	4b050803 	blmi	1430fc <__bss_end__+0x13828c>
    10ec:	05000001 	streq	r0, [r0, #-1]
    10f0:	000000da 	ldrdeq	r0, [r0], -sl
    10f4:	60182e02 	andsvs	r2, r8, r2, lsl #28
    10f8:	03000000 	movweq	r0, #0
    10fc:	00660801 	rsbeq	r0, r6, r1, lsl #16
    1100:	9f050000 	svcls	0x00050000
    1104:	02000001 	andeq	r0, r0, #1, 0
    1108:	00731931 	rsbseq	r1, r3, r1, lsr r9
    110c:	02030000 	andeq	r0, r3, #0, 0
    1110:	00008107 	andeq	r8, r0, r7, lsl #2
    1114:	01a80500 			; <UNDEFINED> instruction: 0x01a80500
    1118:	34020000 	strcc	r0, [r2], #-0
    111c:	00008619 	andeq	r8, r0, r9, lsl r6
    1120:	07040300 	streq	r0, [r4, -r0, lsl #6]
    1124:	000000c8 	andeq	r0, r0, r8, asr #1
    1128:	c3070803 	movwgt	r0, #30723	; 0x7803
    112c:	06000000 	streq	r0, [r0], -r0
    1130:	00000025 	andeq	r0, r0, r5, lsr #32
    1134:	000000a3 	andeq	r0, r0, r3, lsr #1
    1138:	00002507 	andeq	r2, r0, r7, lsl #10
    113c:	59080000 	stmdbpl	r8, {}	; <UNPREDICTABLE>
    1140:	03000001 	movweq	r0, #1
    1144:	00af0e1c 	adceq	r0, pc, ip, lsl lr	; <UNPREDICTABLE>
    1148:	04090000 	streq	r0, [r9], #-0
    114c:	00000094 	muleq	r0, r4, r0
    1150:	00002506 	andeq	r2, r0, r6, lsl #10
    1154:	0000c400 	andeq	ip, r0, r0, lsl #8
    1158:	00c40700 	sbceq	r0, r4, r0, lsl #14
    115c:	09000000 	stmdbeq	r0, {}	; <UNPREDICTABLE>
    1160:	0000d104 	andeq	sp, r0, r4, lsl #2
    1164:	08010300 	stmdaeq	r1, {r8, r9}
    1168:	0000006f 	andeq	r0, r0, pc, rrx
    116c:	0000ca04 	andeq	ip, r0, r4, lsl #20
    1170:	07290800 	streq	r0, [r9, -r0, lsl #16]!
    1174:	21030000 	mrscs	r0, (UNDEF: 3)
    1178:	0000e20e 	andeq	lr, r0, lr, lsl #4
    117c:	b5040900 	strlt	r0, [r4, #-2304]	; 0xfffff700
    1180:	0a000000 	beq	1188 <__code_start__-0x6e78>
    1184:	0904040c 	stmdbeq	r4, {r2, r3, sl}
    1188:	00000119 	andeq	r0, r0, r9, lsl r1
    118c:	0000610b 	andeq	r6, r0, fp, lsl #2
    1190:	11060400 	tstne	r6, r0, lsl #8
    1194:	000000c4 	andeq	r0, r0, r4, asr #1
    1198:	009b0b00 	addseq	r0, fp, r0, lsl #22
    119c:	07040000 	streq	r0, [r4, -r0]
    11a0:	0000c411 	andeq	ip, r0, r1, lsl r4
    11a4:	310b0400 	tstcc	fp, r0, lsl #8
    11a8:	04000000 	streq	r0, [r0], #-0
    11ac:	002c0e08 	eoreq	r0, ip, r8, lsl #28
    11b0:	00080000 	andeq	r0, r8, r0
    11b4:	00019505 	andeq	r9, r1, r5, lsl #10
    11b8:	03090400 	movweq	r0, #37888	; 0x9400
    11bc:	000000e8 	andeq	r0, r0, r8, ror #1
    11c0:	6001070c 	andvs	r0, r1, ip, lsl #14
    11c4:	05000000 	streq	r0, [r0, #-0]
    11c8:	01400e09 	cmpeq	r0, r9, lsl #28
    11cc:	860d0000 	strhi	r0, [sp], -r0
    11d0:	0b000003 	bleq	11e4 <__code_start__-0x6e1c>
    11d4:	0002ba0d 	andeq	fp, r2, sp, lsl #20
    11d8:	0e000c00 	cdpeq	12, 0, cr0, cr0, cr0, {0}
    11dc:	0000027b 	andeq	r0, r0, fp, ror r2
    11e0:	2c110c05 	ldccs	12, cr0, [r1], {5}
    11e4:	01000000 	mrseq	r0, (UNDEF: 0)
    11e8:	0000940f 	andeq	r9, r0, pc, lsl #8
    11ec:	1005a800 	andne	sl, r5, r0, lsl #16
    11f0:	0001dd10 	andeq	sp, r1, r0, lsl sp
    11f4:	00130b00 	andseq	r0, r3, r0, lsl #22
    11f8:	11050000 	mrsne	r0, (UNDEF: 5)
    11fc:	0001dd14 	andeq	sp, r1, r4, lsl sp
    1200:	450b0000 	strmi	r0, [fp, #-0]
    1204:	05000000 	streq	r0, [r0, #-0]
    1208:	007a0e12 	rsbseq	r0, sl, r2, lsl lr
    120c:	0b040000 	bleq	101214 <__bss_end__+0xf63a4>
    1210:	00000020 	andeq	r0, r0, r0, lsr #32
    1214:	7a0e1305 	bvc	385e30 <__bss_end__+0x37afc0>
    1218:	08000000 	stmdaeq	r0, {}	; <UNPREDICTABLE>
    121c:	0002800b 	andeq	r8, r2, fp
    1220:	0e170500 	cfmul32eq	mvfx0, mvfx7, mvfx0
    1224:	0000007a 	andeq	r0, r0, sl, ror r0
    1228:	00e20b0c 	rsceq	r0, r2, ip, lsl #22
    122c:	19050000 	stmdbne	r5, {}	; <UNPREDICTABLE>
    1230:	0001190f 	andeq	r1, r1, pc, lsl #18
    1234:	700b1000 	andvc	r1, fp, r0
    1238:	05000002 	streq	r0, [r0, #-2]
    123c:	007a0e1c 	rsbseq	r0, sl, ip, lsl lr
    1240:	0b1c0000 	bleq	701248 <__bss_end__+0x6f63d8>
    1244:	00000289 	andeq	r0, r0, r9, lsl #5
    1248:	7a0e1d05 	bvc	388664 <__bss_end__+0x37d7f4>
    124c:	20000000 	andcs	r0, r0, r0
    1250:	0000380b 	andeq	r3, r0, fp, lsl #16
    1254:	0e1f0500 	cfmul32eq	mvfx0, mvfx15, mvfx0
    1258:	00000067 	andeq	r0, r0, r7, rrx
    125c:	00ec0b24 	rsceq	r0, ip, r4, lsr #22
    1260:	20050000 	andcs	r0, r5, r0
    1264:	0000670b 	andeq	r6, r0, fp, lsl #14
    1268:	72102600 	andsvc	r2, r0, #0, 12
    126c:	0500317a 	streq	r3, [r0, #-378]	; 0xfffffe86
    1270:	01e30d22 	mvneq	r0, r2, lsr #26
    1274:	00280000 	eoreq	r0, r8, r0
    1278:	014d0409 	cmpeq	sp, r9, lsl #8
    127c:	54110000 	ldrpl	r0, [r1], #-0
    1280:	f3000000 	vhadd.u8	d0, d0, d0
    1284:	12000001 	andne	r0, r0, #1, 0
    1288:	0000002c 	andeq	r0, r0, ip, lsr #32
    128c:	0d05007f 	stceq	0, cr0, [r5, #-508]	; 0xfffffe04
    1290:	05000000 	streq	r0, [r0, #-0]
    1294:	014d0323 	cmpeq	sp, r3, lsr #6
    1298:	b8130000 	ldmdalt	r3, {}	; <UNPREDICTABLE>
    129c:	05000000 	streq	r0, [r0, #-0]
    12a0:	020b0f25 	andeq	r0, fp, #148	; 0x94
    12a4:	04090000 	streq	r0, [r9], #-0
    12a8:	000001f3 	strdeq	r0, [r0], -r3
    12ac:	0001b10e 	andeq	fp, r1, lr, lsl #2
    12b0:	0f260500 	svceq	0x00260500
    12b4:	0000020b 	andeq	r0, r0, fp, lsl #4
    12b8:	08041400 	stmdaeq	r4, {sl, ip}
    12bc:	00000000 	andeq	r0, r0, r0
    12c0:	2c11ad05 	ldccs	13, cr10, [r1], {5}
    12c4:	03000000 	movweq	r0, #0
    12c8:	03710408 	cmneq	r1, #8, 8	; 0x8000000
    12cc:	c2150000 	andsgt	r0, r5, #0, 0
    12d0:	0100000b 	tsteq	r0, fp
    12d4:	021e0f10 	andseq	r0, lr, #16, 30	; 0x40
    12d8:	03050000 	movweq	r0, #20480	; 0x5000
    12dc:	0000aa48 	andeq	sl, r0, r8, asr #20
    12e0:	000c2315 	andeq	r2, ip, r5, lsl r3
    12e4:	0f110100 	svceq	0x00110100
    12e8:	0000021e 	andeq	r0, r0, lr, lsl r2
    12ec:	aa4c0305 	bge	1301f08 <__bss_end__+0x12f7098>
    12f0:	2b150000 	blcs	5412f8 <__bss_end__+0x536488>
    12f4:	01000004 	tsteq	r0, r4
    12f8:	00250c12 	eoreq	r0, r5, r2, lsl ip
    12fc:	03050000 	movweq	r0, #20480	; 0x5000
    1300:	0000aa50 	andeq	sl, r0, r0, asr sl
    1304:	0003fc16 	andeq	pc, r3, r6, lsl ip	; <UNPREDICTABLE>
    1308:	010f0100 	mrseq	r0, (UNDEF: 31)
    130c:	008c2806 	addeq	r2, ip, r6, lsl #16
    1310:	00002800 	andeq	r2, r0, r0, lsl #16
    1314:	c99c0100 	ldmibgt	ip, {r8}
    1318:	17000002 	strne	r0, [r0, -r2]
    131c:	000000ab 	andeq	r0, r0, fp, lsr #1
    1320:	000002d9 	ldrdeq	r0, [r0], -r9
    1324:	a6a80305 	strtge	r0, [r8], r5, lsl #6
    1328:	40180000 	andsmi	r0, r8, r0
    132c:	0400008c 	streq	r0, [r0], #-140	; 0xffffff74
    1330:	bf00000c 	svclt	0x0000000c
    1334:	19000002 	stmdbne	r0, {r1}
    1338:	03055001 	movweq	r5, #20481	; 0x5001
    133c:	0000a644 	andeq	sl, r0, r4, asr #12
    1340:	05510119 	ldrbeq	r0, [r1, #-281]	; 0xfffffee7
    1344:	00a54403 	adceq	r4, r5, r3, lsl #8
    1348:	52011900 	andpl	r1, r1, #0, 18
    134c:	a6a80305 	strtge	r0, [r8], r5, lsl #6
    1350:	01190000 	tsteq	r9, r0
    1354:	100a0353 	andne	r0, sl, r3, asr r3
    1358:	441a0001 	ldrmi	r0, [sl], #-1
    135c:	1000008c 	andne	r0, r0, ip, lsl #1
    1360:	0000000c 	andeq	r0, r0, ip
    1364:	0000d111 	andeq	sp, r0, r1, lsl r1
    1368:	0002d900 	andeq	sp, r2, r0, lsl #18
    136c:	002c1200 	eoreq	r1, ip, r0, lsl #4
    1370:	000e0000 	andeq	r0, lr, r0
    1374:	0002c904 	andeq	ip, r2, r4, lsl #18
    1378:	04561b00 	ldrbeq	r1, [r6], #-2816	; 0xfffff500
    137c:	06010000 	streq	r0, [r1], -r0
    1380:	002c0a01 	eoreq	r0, ip, r1, lsl #20
    1384:	8c180000 	ldchi	0, cr0, [r8], {-0}
    1388:	00100000 	andseq	r0, r0, r0
    138c:	9c010000 	stcls	0, cr0, [r1], {-0}
    1390:	00000321 	andeq	r0, r0, r1, lsr #6
    1394:	0003b11c 	andeq	fp, r3, ip, lsl r1
    1398:	01080100 	mrseq	r0, (UNDEF: 24)
    139c:	00002c0e 	andeq	r2, r0, lr, lsl #24
    13a0:	00062d00 	andeq	r2, r6, r0, lsl #26
    13a4:	00062b00 	andeq	r2, r6, r0, lsl #22
    13a8:	8c201a00 			; <UNDEFINED> instruction: 0x8c201a00
    13ac:	05e70000 	strbeq	r0, [r7, #0]!
    13b0:	241a0000 	ldrcs	r0, [sl], #-0
    13b4:	2100008c 	smlabbcs	r0, ip, r0, r0
    13b8:	00000003 	andeq	r0, r0, r3
    13bc:	00052a1d 	andeq	r2, r5, sp, lsl sl
    13c0:	11ef0100 	mvnne	r0, r0, lsl #2
    13c4:	0000002c 	andeq	r0, r0, ip, lsr #32
    13c8:	00008814 	andeq	r8, r0, r4, lsl r8
    13cc:	000000b0 	strheq	r0, [r0], -r0	; <UNPREDICTABLE>
    13d0:	04199c01 	ldreq	r9, [r9], #-3073	; 0xfffff3ff
    13d4:	231e0000 	tstcs	lr, #0, 0
    13d8:	01000004 	tsteq	r0, r4
    13dc:	002c0bf0 	strdeq	r0, [ip], -r0	; <UNPREDICTABLE>
    13e0:	06440000 	strbeq	r0, [r4], -r0
    13e4:	06400000 	strbeq	r0, [r0], -r0
    13e8:	a21e0000 	andsge	r0, lr, #0, 0
    13ec:	01000004 	tsteq	r0, r4
    13f0:	002c18f0 	strdeq	r1, [ip], -r0	; <UNPREDICTABLE>
    13f4:	06670000 	strbteq	r0, [r7], -r0
    13f8:	06630000 	strbteq	r0, [r3], -r0
    13fc:	321e0000 	andscc	r0, lr, #0, 0
    1400:	01000004 	tsteq	r0, r4
    1404:	002c22f0 	strdeq	r2, [ip], -r0	; <UNPREDICTABLE>
    1408:	068a0000 	streq	r0, [sl], r0
    140c:	06860000 	streq	r0, [r6], r0
    1410:	451e0000 	ldrmi	r0, [lr, #-0]
    1414:	01000003 	tsteq	r0, r3
    1418:	020b09f4 	andeq	r0, fp, #244, 18	; 0x3d0000
    141c:	06b10000 	ldrteq	r0, [r1], r0
    1420:	06a90000 	strteq	r0, [r9], r0
    1424:	20180000 	andscs	r0, r8, r0
    1428:	04000088 	streq	r0, [r0], #-136	; 0xffffff78
    142c:	a200000c 	andge	r0, r0, #12, 0
    1430:	19000003 	stmdbne	r0, {r0, r1}
    1434:	03055001 	movweq	r5, #20481	; 0x5001
    1438:	0000a2dc 	ldrdeq	sl, [r0], -ip
    143c:	88281800 	stmdahi	r8!, {fp, ip}
    1440:	0c040000 	stceq	0, cr0, [r4], {-0}
    1444:	03b90000 			; <UNDEFINED> instruction: 0x03b90000
    1448:	01190000 	tsteq	r9, r0
    144c:	c8030550 	stmdagt	r3, {r4, r6, r8, sl}
    1450:	000000a4 	andeq	r0, r0, r4, lsr #1
    1454:	00882c1a 	addeq	r2, r8, sl, lsl ip
    1458:	000c1c00 	andeq	r1, ip, r0, lsl #24
    145c:	88641800 	stmdahi	r4!, {fp, ip}^
    1460:	0c040000 	stceq	0, cr0, [r4], {-0}
    1464:	03df0000 	bicseq	r0, pc, #0, 0
    1468:	01190000 	tsteq	r9, r0
    146c:	d8030550 	stmdale	r3, {r4, r6, r8, sl}
    1470:	190000a4 	stmdbne	r0, {r2, r5, r7}
    1474:	74025201 	strvc	r5, [r2], #-513	; 0xfffffdff
    1478:	6c180000 	ldcvs	0, cr0, [r8], {-0}
    147c:	28000088 	stmdacs	r0, {r3, r7}
    1480:	f300000c 	vhadd.u8	d0, d0, d12
    1484:	19000003 	stmdbne	r0, {r0, r1}
    1488:	74025001 	strvc	r5, [r2], #-1
    148c:	ac1f0000 	ldcge	0, cr0, [pc], {-0}
    1490:	04000088 	streq	r0, [r0], #-136	; 0xffffff78
    1494:	1900000c 	stmdbne	r0, {r2, r3}
    1498:	03055001 	movweq	r5, #20481	; 0x5001
    149c:	0000a510 	andeq	sl, r0, r0, lsl r5
    14a0:	02510119 	subseq	r0, r1, #1073741830	; 0x40000006
    14a4:	01190075 	tsteq	r9, r5, ror r0
    14a8:	00770252 	rsbseq	r0, r7, r2, asr r2
    14ac:	02530119 	subseq	r0, r3, #1073741830	; 0x40000006
    14b0:	00000076 	andeq	r0, r0, r6, ror r0
    14b4:	0004d320 	andeq	sp, r4, r0, lsr #6
    14b8:	0ae00100 	beq	ff8018c0 <__bss_end__+0xff7f6a50>
    14bc:	0000002c 	andeq	r0, r0, ip, lsr #32
    14c0:	00008bc8 	andeq	r8, r0, r8, asr #23
    14c4:	00000050 	andeq	r0, r0, r0, asr r0
    14c8:	04bf9c01 	ldrteq	r9, [pc], #3073	; 14d0 <__code_start__-0x6b30>
    14cc:	661e0000 	ldrvs	r0, [lr], -r0
    14d0:	01000004 	tsteq	r0, r4
    14d4:	002c0ee5 	eoreq	r0, ip, r5, ror #29
    14d8:	06eb0000 	strbteq	r0, [fp], r0
    14dc:	06e50000 	strbteq	r0, [r5], r0
    14e0:	ab170000 	blge	5c14e8 <__bss_end__+0x5b6678>
    14e4:	cf000000 	svcgt	0x00000000
    14e8:	05000004 	streq	r0, [r0, #-4]
    14ec:	00a69403 	adceq	r9, r6, r3, lsl #8
    14f0:	8bd41800 	blhi	ff5074f8 <__bss_end__+0xff4fc688>
    14f4:	05710000 	ldrbeq	r0, [r1, #-0]!
    14f8:	04690000 	strbteq	r0, [r9], #-0
    14fc:	01190000 	tsteq	r9, r0
    1500:	00310150 	eorseq	r0, r1, r0, asr r1
    1504:	008be818 	addeq	lr, fp, r8, lsl r8
    1508:	000c0400 	andeq	r0, ip, r0, lsl #8
    150c:	00048600 	andeq	r8, r4, r0, lsl #12
    1510:	50011900 	andpl	r1, r1, r0, lsl #18
    1514:	a6200305 	strtge	r0, [r0], -r5, lsl #6
    1518:	01190000 	tsteq	r9, r0
    151c:	00740251 	rsbseq	r0, r4, r1, asr r2
    1520:	8c041800 	stchi	8, cr1, [r4], {-0}
    1524:	0c040000 	stceq	0, cr0, [r4], {-0}
    1528:	04b50000 	ldrteq	r0, [r5], #0
    152c:	01190000 	tsteq	r9, r0
    1530:	f8030550 			; <UNDEFINED> instruction: 0xf8030550
    1534:	190000a5 	stmdbne	r0, {r0, r2, r5, r7}
    1538:	03055101 	movweq	r5, #20737	; 0x5101
    153c:	0000a544 	andeq	sl, r0, r4, asr #10
    1540:	05520119 	ldrbeq	r0, [r2, #-281]	; 0xfffffee7
    1544:	00a69403 	adceq	r9, r6, r3, lsl #8
    1548:	53011900 	movwpl	r1, #6400	; 0x1900
    154c:	00e70802 	rsceq	r0, r7, r2, lsl #16
    1550:	008c081a 	addeq	r0, ip, sl, lsl r8
    1554:	000c1000 	andeq	r1, ip, r0
    1558:	d1110000 	tstle	r1, r0
    155c:	cf000000 	svcgt	0x00000000
    1560:	12000004 	andne	r0, r0, #4, 0
    1564:	0000002c 	andeq	r0, r0, ip, lsr #32
    1568:	bf040011 	svclt	0x00040011
    156c:	21000004 	tstcs	r0, r4
    1570:	00000494 	muleq	r0, r4, r4
    1574:	8006d301 	andhi	sp, r6, r1, lsl #6
    1578:	4800008b 	stmdami	r0, {r0, r1, r3, r7}
    157c:	01000000 	mrseq	r0, (UNDEF: 0)
    1580:	00055c9c 	muleq	r5, ip, ip
    1584:	00ab1700 	adceq	r1, fp, r0, lsl #14
    1588:	056c0000 	strbeq	r0, [ip, #-0]!
    158c:	03050000 	movweq	r0, #20480	; 0x5000
    1590:	0000a684 	andeq	sl, r0, r4, lsl #13
    1594:	008b8c18 	addeq	r8, fp, r8, lsl ip
    1598:	00057100 	andeq	r7, r5, r0, lsl #2
    159c:	00050c00 	andeq	r0, r5, r0, lsl #24
    15a0:	50011900 	andpl	r1, r1, r0, lsl #18
    15a4:	18003101 	stmdane	r0, {r0, r8, ip, sp}
    15a8:	00008b9c 	muleq	r0, ip, fp
    15ac:	00000c04 	andeq	r0, r0, r4, lsl #24
    15b0:	00000523 	andeq	r0, r0, r3, lsr #10
    15b4:	05500119 	ldrbeq	r0, [r0, #-281]	; 0xfffffee7
    15b8:	00a5d803 	adceq	sp, r5, r3, lsl #16
    15bc:	b4180000 	ldrlt	r0, [r8], #-0
    15c0:	0400008b 	streq	r0, [r0], #-139	; 0xffffff75
    15c4:	5200000c 	andpl	r0, r0, #12, 0
    15c8:	19000005 	stmdbne	r0, {r0, r2}
    15cc:	03055001 	movweq	r5, #20481	; 0x5001
    15d0:	0000a5ac 	andeq	sl, r0, ip, lsr #11
    15d4:	05510119 	ldrbeq	r0, [r1, #-281]	; 0xfffffee7
    15d8:	00a54403 	adceq	r4, r5, r3, lsl #8
    15dc:	52011900 	andpl	r1, r1, #0, 18
    15e0:	a6840305 	strge	r0, [r4], r5, lsl #6
    15e4:	01190000 	tsteq	r9, r0
    15e8:	d9080253 	stmdble	r8, {r0, r1, r4, r6, r9}
    15ec:	8bb81a00 	blhi	fee07df4 <__bss_end__+0xfedfcf84>
    15f0:	0c100000 	ldceq	0, cr0, [r0], {-0}
    15f4:	11000000 	mrsne	r0, (UNDEF: 0)
    15f8:	000000d1 	ldrdeq	r0, [r0], -r1
    15fc:	0000056c 	andeq	r0, r0, ip, ror #10
    1600:	00002c12 	andeq	r2, r0, r2, lsl ip
    1604:	04000d00 	streq	r0, [r0], #-3328	; 0xfffff300
    1608:	0000055c 	andeq	r0, r0, ip, asr r5
    160c:	00047a20 	andeq	r7, r4, r0, lsr #20
    1610:	0acb0100 	beq	ff2c1a18 <__bss_end__+0xff2b6ba8>
    1614:	0000002c 	andeq	r0, r0, ip, lsr #32
    1618:	00008b50 	andeq	r8, r0, r0, asr fp
    161c:	00000030 	andeq	r0, r0, r0, lsr r0
    1620:	05e79c01 	strbeq	r9, [r7, #3073]!	; 0xc01
    1624:	35220000 	strcc	r0, [r2, #-0]!
    1628:	01000005 	tsteq	r0, r5
    162c:	00251ccb 	eoreq	r1, r5, fp, asr #25
    1630:	07180000 	ldreq	r0, [r8, -r0]
    1634:	07140000 	ldreq	r0, [r4, -r0]
    1638:	60180000 	andsvs	r0, r8, r0
    163c:	0400008b 	streq	r0, [r0], #-139	; 0xffffff75
    1640:	b600000c 	strlt	r0, [r0], -ip
    1644:	19000005 	stmdbne	r0, {r0, r2}
    1648:	03055001 	movweq	r5, #20481	; 0x5001
    164c:	0000a590 	muleq	r0, r0, r5
    1650:	8b641a00 	blhi	1907e58 <__bss_end__+0x18fcfe8>
    1654:	05e70000 	strbeq	r0, [r7, #0]!
    1658:	6c180000 	ldcvs	0, cr0, [r8], {-0}
    165c:	0400008b 	streq	r0, [r0], #-139	; 0xffffff75
    1660:	d600000c 	strle	r0, [r0], -ip
    1664:	19000005 	stmdbne	r0, {r0, r2}
    1668:	03055001 	movweq	r5, #20481	; 0x5001
    166c:	0000a5a4 	andeq	sl, r0, r4, lsr #11
    1670:	8b741f00 	blhi	1d09278 <__bss_end__+0x1cfe408>
    1674:	07090000 	streq	r0, [r9, -r0]
    1678:	01190000 	tsteq	r9, r0
    167c:	00740250 	rsbseq	r0, r4, r0, asr r2
    1680:	f3230000 	vhadd.u32	d0, d3, d0
    1684:	01000003 	tsteq	r0, r3
    1688:	8a240da3 	bhi	904d1c <__bss_end__+0x8f9eac>
    168c:	00900000 	addseq	r0, r0, r0
    1690:	9c010000 	stcls	0, cr0, [r1], {-0}
    1694:	000006de 	ldrdeq	r0, [r0], -lr
    1698:	00046115 	andeq	r6, r4, r5, lsl r1
    169c:	0ead0100 	fdveqe	f0, f5, f0
    16a0:	000006de 	ldrdeq	r0, [r0], -lr
    16a4:	7fb89103 	svcvc	0x00b89103
    16a8:	0000ab24 	andeq	sl, r0, r4, lsr #22
    16ac:	0006fe00 	andeq	pc, r6, r0, lsl #28
    16b0:	03d42500 	bicseq	r2, r4, #0, 10
    16b4:	be010000 	cdplt	0, 0, cr0, cr1, cr0, {0}
    16b8:	0007030f 	andeq	r0, r7, pc, lsl #6
    16bc:	00000000 	andeq	r0, r0, r0
    16c0:	040b0808 	streq	r0, [fp], #-2056	; 0xfffff7f8
    16c4:	c2010000 	andgt	r0, r1, #0, 0
    16c8:	00007a15 	andeq	r7, r0, r5, lsl sl
    16cc:	04e50800 	strbteq	r0, [r5], #2048	; 0x800
    16d0:	c2010000 	andgt	r0, r1, #0, 0
    16d4:	00007a24 	andeq	r7, r0, r4, lsr #20
    16d8:	051b0800 	ldreq	r0, [fp, #-2048]	; 0xfffff800
    16dc:	c5010000 	strgt	r0, [r1, #-0]
    16e0:	00007a15 	andeq	r7, r0, r5, lsl sl
    16e4:	046d0800 	strbteq	r0, [sp], #-2048	; 0xfffff800
    16e8:	c5010000 	strgt	r0, [r1, #-0]
    16ec:	00007a25 	andeq	r7, r0, r5, lsr #20
    16f0:	8a2c2600 	bhi	b0aef8 <__bss_end__+0xb00088>
    16f4:	00240000 	eoreq	r0, r4, r0
    16f8:	06880000 	streq	r0, [r8], r0
    16fc:	68270000 	stmdavs	r7!, {}	; <UNPREDICTABLE>
    1700:	10a70100 	adcne	r0, r7, r0, lsl #2
    1704:	0000020b 	andeq	r0, r0, fp, lsl #4
    1708:	0000073a 	andeq	r0, r0, sl, lsr r7
    170c:	00000736 	andeq	r0, r0, r6, lsr r7
    1710:	008a301a 	addeq	r3, sl, sl, lsl r0
    1714:	000c1c00 	andeq	r1, ip, r0, lsl #24
    1718:	8a4c1a00 	bhi	1307f20 <__bss_end__+0x12fd0b0>
    171c:	0c280000 	stceq	0, cr0, [r8], #-0
    1720:	18000000 	stmdane	r0, {}	; <UNPREDICTABLE>
    1724:	00008a58 	andeq	r8, r0, r8, asr sl
    1728:	00000c34 	andeq	r0, r0, r4, lsr ip
    172c:	0000069c 	muleq	r0, ip, r6
    1730:	02500119 	subseq	r0, r0, #1073741830	; 0x40000006
    1734:	1800007d 	stmdane	r0, {r0, r2, r3, r4, r5, r6}
    1738:	00008a78 	andeq	r8, r0, r8, ror sl
    173c:	000008df 	ldrdeq	r0, [r0], -pc	; <UNPREDICTABLE>
    1740:	000006b6 			; <UNDEFINED> instruction: 0x000006b6
    1744:	02500119 	subseq	r0, r0, #1073741830	; 0x40000006
    1748:	0119007d 	tsteq	r9, sp, ror r0
    174c:	70910251 	addsvc	r0, r1, r1, asr r2
    1750:	8a841800 	bhi	fe107758 <__bss_end__+0xfe0fc8e8>
    1754:	08df0000 	ldmeq	pc, {}^	; <UNPREDICTABLE>
    1758:	06cb0000 	strbeq	r0, [fp], r0
    175c:	01190000 	tsteq	r9, r0
    1760:	47400351 	smlsldmi	r0, r0, r1, r3	; <UNPREDICTABLE>
    1764:	901a0024 	andsls	r0, sl, r4, lsr #32
    1768:	df00008a 	svcle	0x0000008a
    176c:	1a000008 	bne	1794 <__code_start__-0x686c>
    1770:	00008a9c 	muleq	r0, ip, sl
    1774:	000008df 	ldrdeq	r0, [r0], -pc	; <UNPREDICTABLE>
    1778:	007a1100 	rsbseq	r1, sl, r0, lsl #2
    177c:	06ee0000 	strbteq	r0, [lr], r0
    1780:	2c120000 	ldccs	0, cr0, [r2], {-0}
    1784:	0f000000 	svceq	0x00000000
    1788:	00d11100 	sbcseq	r1, r1, r0, lsl #2
    178c:	06fe0000 	ldrbteq	r0, [lr], r0
    1790:	2c120000 	ldccs	0, cr0, [r2], {-0}
    1794:	08000000 	stmdaeq	r0, {}	; <UNPREDICTABLE>
    1798:	06ee0400 	strbteq	r0, [lr], r0, lsl #8
    179c:	04090000 	streq	r0, [r9], #-0
    17a0:	0000007a 	andeq	r0, r0, sl, ror r0
    17a4:	0005101d 	andeq	r1, r5, sp, lsl r0
    17a8:	116e0100 	cmnne	lr, r0, lsl #2
    17ac:	0000002c 	andeq	r0, r0, ip, lsr #32
    17b0:	00008698 	muleq	r0, r8, r6
    17b4:	0000017c 	andeq	r0, r0, ip, ror r1
    17b8:	08df9c01 	ldmeq	pc, {r0, sl, fp, ip, pc}^	; <UNPREDICTABLE>
    17bc:	35220000 	strcc	r0, [r2, #-0]!
    17c0:	01000005 	tsteq	r0, r5
    17c4:	0025206e 	eoreq	r2, r5, lr, rrx
    17c8:	075c0000 	ldrbeq	r0, [ip, -r0]
    17cc:	07580000 	ldrbeq	r0, [r8, -r0]
    17d0:	231e0000 	tstcs	lr, #0, 0
    17d4:	01000004 	tsteq	r0, r4
    17d8:	002c0b6f 	eoreq	r0, ip, pc, ror #22
    17dc:	077e0000 	ldrbeq	r0, [lr, -r0]!
    17e0:	077a0000 	ldrbeq	r0, [sl, -r0]!
    17e4:	4f1e0000 	svcmi	0x001e0000
    17e8:	01000004 	tsteq	r0, r4
    17ec:	002c186f 	eoreq	r1, ip, pc, ror #16
    17f0:	07a10000 	streq	r0, [r1, r0]!
    17f4:	079d0000 	ldreq	r0, [sp, r0]
    17f8:	491e0000 	ldmdbmi	lr, {}	; <UNPREDICTABLE>
    17fc:	01000004 	tsteq	r0, r4
    1800:	002c246f 	eoreq	r2, ip, pc, ror #8
    1804:	07c40000 	strbeq	r0, [r4, r0]
    1808:	07c00000 	strbeq	r0, [r0, r0]
    180c:	451e0000 	ldrmi	r0, [lr, #-0]
    1810:	01000003 	tsteq	r0, r3
    1814:	020b0974 	andeq	r0, fp, #116, 18	; 0x1d0000
    1818:	07f30000 	ldrbeq	r0, [r3, r0]!
    181c:	07e30000 	strbeq	r0, [r3, r0]!
    1820:	38280000 	stmdacc	r8!, {}	; <UNPREDICTABLE>
    1824:	3d000000 	stccc	0, cr0, [r0, #-0]
    1828:	1e000008 	cdpne	0, 0, cr0, cr0, cr8, {0}
    182c:	00000331 	andeq	r0, r0, r1, lsr r3
    1830:	2c0c7701 	stccs	7, cr7, [ip], {1}
    1834:	5b000000 	blpl	183c <__code_start__-0x67c4>
    1838:	53000008 	movwpl	r0, #8
    183c:	1e000008 	cdpne	0, 0, cr0, cr0, cr8, {0}
    1840:	000003ea 	andeq	r0, r0, sl, ror #7
    1844:	25077801 	strcs	r7, [r7, #-2049]	; 0xfffff7ff
    1848:	a9000000 	stmdbge	r0, {}	; <UNPREDICTABLE>
    184c:	a3000008 	movwge	r0, #8
    1850:	18000008 	stmdane	r0, {r3}
    1854:	00008704 	andeq	r8, r0, r4, lsl #14
    1858:	00000c04 	andeq	r0, r0, r4, lsl #24
    185c:	000007d5 	ldrdeq	r0, [r0], -r5
    1860:	05500119 	ldrbeq	r0, [r0, #-281]	; 0xfffffee7
    1864:	00a3a003 	adceq	sl, r3, r3
    1868:	51011900 	tstpl	r1, r0, lsl #18
    186c:	00007402 	andeq	r7, r0, r2, lsl #8
    1870:	00873018 	addeq	r3, r7, r8, lsl r0
    1874:	000c0400 	andeq	r0, ip, r0, lsl #8
    1878:	0007f200 	andeq	pc, r7, r0, lsl #4
    187c:	50011900 	andpl	r1, r1, r0, lsl #18
    1880:	a3300305 	teqge	r0, #335544320	; 0x14000000
    1884:	01190000 	tsteq	r9, r0
    1888:	00740251 	rsbseq	r0, r4, r1, asr r2
    188c:	87501800 	ldrbhi	r1, [r0, -r0, lsl #16]
    1890:	0c040000 	stceq	0, cr0, [r4], {-0}
    1894:	080f0000 	stmdaeq	pc, {}	; <UNPREDICTABLE>
    1898:	01190000 	tsteq	r9, r0
    189c:	68030550 	stmdavs	r3, {r4, r6, r8, sl}
    18a0:	190000a3 	stmdbne	r0, {r0, r1, r5, r7}
    18a4:	74025101 	strvc	r5, [r2], #-257	; 0xfffffeff
    18a8:	68180000 	ldmdavs	r8, {}	; <UNPREDICTABLE>
    18ac:	04000087 	streq	r0, [r0], #-135	; 0xffffff79
    18b0:	2c00000c 	stccs	0, cr0, [r0], {12}
    18b4:	19000008 	stmdbne	r0, {r3}
    18b8:	03055001 	movweq	r5, #20481	; 0x5001
    18bc:	0000a3d8 	ldrdeq	sl, [r0], -r8
    18c0:	02510119 	subseq	r0, r1, #1073741830	; 0x40000006
    18c4:	1f000074 	svcne	0x00000074
    18c8:	00008770 	andeq	r8, r0, r0, ror r7
    18cc:	00000c28 	andeq	r0, r0, r8, lsr #24
    18d0:	02500119 	subseq	r0, r0, #1073741830	; 0x40000006
    18d4:	00000074 	andeq	r0, r0, r4, ror r0
    18d8:	0086a818 	addeq	sl, r6, r8, lsl r8
    18dc:	000c0400 	andeq	r0, ip, r0, lsl #8
    18e0:	00085400 	andeq	r5, r8, r0, lsl #8
    18e4:	50011900 	andpl	r1, r1, r0, lsl #18
    18e8:	a2dc0305 	sbcsge	r0, ip, #335544320	; 0x14000000
    18ec:	18000000 	stmdane	r0, {}	; <UNPREDICTABLE>
    18f0:	000086b0 			; <UNDEFINED> instruction: 0x000086b0
    18f4:	00000c04 	andeq	r0, r0, r4, lsl #24
    18f8:	0000086b 	andeq	r0, r0, fp, ror #16
    18fc:	05500119 	ldrbeq	r0, [r0, #-281]	; 0xfffffee7
    1900:	00a31803 	adceq	r1, r3, r3, lsl #16
    1904:	b41a0000 	ldrlt	r0, [sl], #-0
    1908:	1c000086 	stcne	0, cr0, [r0], {134}	; 0x86
    190c:	1800000c 	stmdane	r0, {r2, r3}
    1910:	000087b8 			; <UNDEFINED> instruction: 0x000087b8
    1914:	00000c04 	andeq	r0, r0, r4, lsl #24
    1918:	00000891 	muleq	r0, r1, r8
    191c:	05500119 	ldrbeq	r0, [r0, #-281]	; 0xfffffee7
    1920:	00a41403 	adceq	r1, r4, r3, lsl #8
    1924:	51011900 	tstpl	r1, r0, lsl #18
    1928:	00007502 	andeq	r7, r0, r2, lsl #10
    192c:	0087c818 	addeq	ip, r7, r8, lsl r8
    1930:	000c0400 	andeq	r0, ip, r0, lsl #8
    1934:	0008a800 	andeq	sl, r8, r0, lsl #16
    1938:	50011900 	andpl	r1, r1, r0, lsl #18
    193c:	a4340305 	ldrtge	r0, [r4], #-773	; 0xfffffcfb
    1940:	18000000 	stmdane	r0, {}	; <UNPREDICTABLE>
    1944:	000087d0 	ldrdeq	r8, [r0], -r0
    1948:	00000c04 	andeq	r0, r0, r4, lsl #24
    194c:	000008bf 			; <UNDEFINED> instruction: 0x000008bf
    1950:	05500119 	ldrbeq	r0, [r0, #-281]	; 0xfffffee7
    1954:	00a48c03 	adceq	r8, r4, r3, lsl #24
    1958:	e81f0000 	ldmda	pc, {}	; <UNPREDICTABLE>
    195c:	04000087 	streq	r0, [r0], #-135	; 0xffffff79
    1960:	1900000c 	stmdbne	r0, {r2, r3}
    1964:	03055001 	movweq	r5, #20481	; 0x5001
    1968:	0000a45c 	andeq	sl, r0, ip, asr r4
    196c:	02510119 	subseq	r0, r1, #1073741830	; 0x40000006
    1970:	01190078 	tsteq	r9, r8, ror r0
    1974:	00770252 	rsbseq	r0, r7, r2, asr r2
    1978:	38230000 	stmdacc	r3!, {}	; <UNPREDICTABLE>
    197c:	01000000 	mrseq	r0, (UNDEF: 0)
    1980:	88ec0d49 	stmiahi	ip!, {r0, r3, r6, r8, sl, fp}^
    1984:	01380000 	teqeq	r8, r0
    1988:	9c010000 	stcls	0, cr0, [r1], {-0}
    198c:	00000a7d 	andeq	r0, r0, sp, ror sl
    1990:	01007029 	tsteq	r0, r9, lsr #32
    1994:	07031c49 	streq	r1, [r3, -r9, asr #24]
    1998:	08e00000 	stmiaeq	r0!, {}^	; <UNPREDICTABLE>
    199c:	08d20000 	ldmeq	r2, {}^	; <UNPREDICTABLE>
    19a0:	65290000 	strvs	r0, [r9, #-0]!
    19a4:	29490100 	stmdbcs	r9, {r8}^
    19a8:	00000703 	andeq	r0, r0, r3, lsl #14
    19ac:	0000094b 	andeq	r0, r0, fp, asr #18
    19b0:	0000093b 	andeq	r0, r0, fp, lsr r9
    19b4:	0000ab17 	andeq	sl, r0, r7, lsl fp
    19b8:	000a8d00 	andeq	r8, sl, r0, lsl #26
    19bc:	74030500 	strvc	r0, [r3], #-1280	; 0xfffffb00
    19c0:	1e0000a6 	cdpne	0, 0, cr0, cr0, cr6, {5}
    19c4:	00000419 	andeq	r0, r0, r9, lsl r4
    19c8:	33114f01 	tstcc	r1, #1, 30
    19cc:	bd000000 	stclt	0, cr0, [r0, #-0]
    19d0:	b7000009 	strlt	r0, [r0, -r9]
    19d4:	28000009 	stmdacs	r0, {r0, r3}
    19d8:	00000050 	andeq	r0, r0, r0, asr r0
    19dc:	000009b6 			; <UNDEFINED> instruction: 0x000009b6
    19e0:	01006927 	tsteq	r0, r7, lsr #18
    19e4:	002c1050 	eoreq	r1, ip, r0, asr r0
    19e8:	09f30000 	ldmibeq	r3!, {}^	; <UNPREDICTABLE>
    19ec:	09ef0000 	stmibeq	pc!, {}^	; <UNPREDICTABLE>
    19f0:	682a0000 	stmdavs	sl!, {}	; <UNPREDICTABLE>
    19f4:	1e000000 	cdpne	0, 0, cr0, cr0, cr0, {0}
    19f8:	000004a9 	andeq	r0, r0, r9, lsr #9
    19fc:	0b0a5101 	bleq	295e08 <__bss_end__+0x28af98>
    1a00:	18000002 	stmdane	r0, {r1}
    1a04:	1200000a 	andne	r0, r0, #10, 0
    1a08:	2800000a 	stmdacs	r0, {r1, r3}
    1a0c:	00000080 	andeq	r0, r0, r0, lsl #1
    1a10:	000009ab 	andeq	r0, r0, fp, lsr #19
    1a14:	0003de1e 	andeq	sp, r3, lr, lsl lr
    1a18:	0e630100 	poweqs	f0, f3, f0
    1a1c:	00000703 	andeq	r0, r0, r3, lsl #14
    1a20:	00000a43 	andeq	r0, r0, r3, asr #20
    1a24:	00000a41 	andeq	r0, r0, r1, asr #20
    1a28:	0004b31e 	andeq	fp, r4, lr, lsl r3
    1a2c:	0e640100 	poweqs	f0, f4, f0
    1a30:	00000703 	andeq	r0, r0, r3, lsl #14
    1a34:	00000a5a 	andeq	r0, r0, sl, asr sl
    1a38:	00000a56 	andeq	r0, r0, r6, asr sl
    1a3c:	0089941a 	addeq	r9, r9, sl, lsl r4
    1a40:	0008df00 	andeq	sp, r8, r0, lsl #30
    1a44:	ac1a0000 	ldcge	0, cr0, [sl], {-0}
    1a48:	92000089 	andls	r0, r0, #137, 0	; 0x89
    1a4c:	0000000a 	andeq	r0, r0, sl
    1a50:	89381800 	ldmdbhi	r8!, {fp, ip}
    1a54:	0c040000 	stceq	0, cr0, [r4], {-0}
    1a58:	09ef0000 	stmibeq	pc!, {}^	; <UNPREDICTABLE>
    1a5c:	01190000 	tsteq	r9, r0
    1a60:	e0030550 	and	r0, r3, r0, asr r5
    1a64:	190000a0 	stmdbne	r0, {r5, r7}
    1a68:	03055101 	movweq	r5, #20737	; 0x5101
    1a6c:	0000a544 	andeq	sl, r0, r4, asr #10
    1a70:	05520119 	ldrbeq	r0, [r2, #-281]	; 0xfffffee7
    1a74:	00a67403 	adceq	r7, r6, r3, lsl #8
    1a78:	53011900 	movwpl	r1, #6400	; 0x1900
    1a7c:	194a0802 	stmdbne	sl, {r1, fp}^
    1a80:	05007d02 	streq	r7, [r0, #-3330]	; 0xfffff2fe
    1a84:	00a54c03 	adceq	r4, r5, r3, lsl #24
    1a88:	3c1a0000 	ldccc	0, cr0, [sl], {-0}
    1a8c:	10000089 	andne	r0, r0, r9, lsl #1
    1a90:	1800000c 	stmdane	r0, {r2, r3}
    1a94:	00008958 	andeq	r8, r0, r8, asr r9
    1a98:	00000c04 	andeq	r0, r0, r4, lsl #24
    1a9c:	00000a31 	andeq	r0, r0, r1, lsr sl
    1aa0:	05500119 	ldrbeq	r0, [r0, #-281]	; 0xfffffee7
    1aa4:	00a0e003 	adceq	lr, r0, r3
    1aa8:	51011900 	tstpl	r1, r0, lsl #18
    1aac:	a5440305 	strbge	r0, [r4, #-773]	; 0xfffffcfb
    1ab0:	01190000 	tsteq	r9, r0
    1ab4:	74030552 	strvc	r0, [r3], #-1362	; 0xfffffaae
    1ab8:	190000a6 	stmdbne	r0, {r1, r2, r5, r7}
    1abc:	08025301 	stmdaeq	r2, {r0, r8, r9, ip, lr}
    1ac0:	7d02194c 	vstrvc.16	s2, [r2, #-152]	; 0xffffff68	; <UNPREDICTABLE>
    1ac4:	50030500 	andpl	r0, r3, r0, lsl #10
    1ac8:	000000a5 	andeq	r0, r0, r5, lsr #1
    1acc:	00895c1a 	addeq	r5, r9, sl, lsl ip
    1ad0:	000c1000 	andeq	r1, ip, r0
    1ad4:	89781800 	ldmdbhi	r8!, {fp, ip}^
    1ad8:	0c040000 	stceq	0, cr0, [r4], {-0}
    1adc:	0a730000 	beq	1cc1ae4 <__bss_end__+0x1cb6c74>
    1ae0:	01190000 	tsteq	r9, r0
    1ae4:	e0030550 	and	r0, r3, r0, asr r5
    1ae8:	190000a0 	stmdbne	r0, {r5, r7}
    1aec:	03055101 	movweq	r5, #20737	; 0x5101
    1af0:	0000a544 	andeq	sl, r0, r4, asr #10
    1af4:	05520119 	ldrbeq	r0, [r2, #-281]	; 0xfffffee7
    1af8:	00a67403 	adceq	r7, r6, r3, lsl #8
    1afc:	53011900 	movwpl	r1, #6400	; 0x1900
    1b00:	194d0802 	stmdbne	sp, {r1, fp}^
    1b04:	05007d02 	streq	r7, [r0, #-3330]	; 0xfffff2fe
    1b08:	00a56003 	adceq	r6, r5, r3
    1b0c:	7c1a0000 	ldcvc	0, cr0, [sl], {-0}
    1b10:	10000089 	andne	r0, r0, r9, lsl #1
    1b14:	0000000c 	andeq	r0, r0, ip
    1b18:	0000d111 	andeq	sp, r0, r1, lsl r1
    1b1c:	000a8d00 	andeq	r8, sl, r0, lsl #26
    1b20:	002c1200 	eoreq	r1, ip, r0, lsl #4
    1b24:	00040000 	andeq	r0, r4, r0
    1b28:	000a7d04 	andeq	r7, sl, r4, lsl #26
    1b2c:	048d1d00 	streq	r1, [sp], #3328	; 0xd00
    1b30:	36010000 	strcc	r0, [r1], -r0
    1b34:	00020b0f 	andeq	r0, r2, pc, lsl #22
    1b38:	0088c400 	addeq	ip, r8, r0, lsl #8
    1b3c:	00002800 	andeq	r2, r0, r0, lsl #16
    1b40:	f79c0100 			; <UNDEFINED> instruction: 0xf79c0100
    1b44:	2200000a 	andcs	r0, r0, #10, 0
    1b48:	00000bd9 	ldrdeq	r0, [r0], -r9
    1b4c:	7a1f3601 	bvc	7cf358 <__bss_end__+0x7c44e8>
    1b50:	81000000 	mrshi	r0, (UNDEF: 0)
    1b54:	7d00000a 	stcvc	0, cr0, [r0, #-40]	; 0xffffffd8
    1b58:	2700000a 	strcs	r0, [r0, -sl]
    1b5c:	37010070 	smlsdxcc	r1, r0, r0, r0
    1b60:	00021e0b 	andeq	r1, r2, fp, lsl #28
    1b64:	000aa300 	andeq	sl, sl, r0, lsl #6
    1b68:	000a9f00 	andeq	r9, sl, r0, lsl #30
    1b6c:	88d01800 	ldmhi	r0, {fp, ip}^
    1b70:	0af70000 	beq	ffdc1b78 <__bss_end__+0xffdb6d08>
    1b74:	0ae60000 	beq	ff981b7c <__bss_end__+0xff976d0c>
    1b78:	01190000 	tsteq	r9, r0
    1b7c:	00740250 	rsbseq	r0, r4, r0, asr r2
    1b80:	88e01f00 	stmiahi	r0!, {r8, r9, sl, fp, ip}^
    1b84:	0c400000 	mareq	acc0, r0, r0
    1b88:	01190000 	tsteq	r9, r0
    1b8c:	00740250 	rsbseq	r0, r4, r0, asr r2
    1b90:	bd1d0000 	ldclt	0, cr0, [sp, #-0]
    1b94:	01000004 	tsteq	r0, r4
    1b98:	00250c26 	eoreq	r0, r5, r6, lsr #24
    1b9c:	865c0000 	ldrbhi	r0, [ip], -r0
    1ba0:	003c0000 	eorseq	r0, ip, r0
    1ba4:	9c010000 	stcls	0, cr0, [r1], {-0}
    1ba8:	00000b24 	andeq	r0, r0, r4, lsr #22
    1bac:	01007029 	tsteq	r0, r9, lsr #32
    1bb0:	021e1a26 	andseq	r1, lr, #155648	; 0x26000
    1bb4:	0acd0000 	beq	ff341bbc <__bss_end__+0xff336d4c>
    1bb8:	0ac10000 	beq	ff041bc0 <__bss_end__+0xff036d50>
    1bbc:	20000000 	andcs	r0, r0, r0
    1bc0:	00000488 	andeq	r0, r0, r8, lsl #9
    1bc4:	1e071301 	cdpne	3, 0, cr1, cr7, cr1, {0}
    1bc8:	b4000002 	strlt	r0, [r0], #-2
    1bcc:	9c00008a 	stcls	0, cr0, [r0], {138}	; 0x8a
    1bd0:	01000000 	mrseq	r0, (UNDEF: 0)
    1bd4:	000c049c 	muleq	ip, ip, r4
    1bd8:	043f2200 	ldrteq	r2, [pc], #-512	; 1be0 <__code_start__-0x6420>
    1bdc:	13010000 	movwne	r0, #4096	; 0x1000
    1be0:	00004611 	andeq	r4, r0, r1, lsl r6
    1be4:	000b2400 	andeq	r2, fp, r0, lsl #8
    1be8:	000b2000 	andeq	r2, fp, r0
    1bec:	00ab1700 	adceq	r1, fp, r0, lsl #14
    1bf0:	0a8d0000 	beq	fe341bf8 <__bss_end__+0xfe336d88>
    1bf4:	03050000 	movweq	r0, #20480	; 0x5000
    1bf8:	0000a67c 	andeq	sl, r0, ip, ror r6
    1bfc:	008b1026 	addeq	r1, fp, r6, lsr #32
    1c00:	00004000 	andeq	r4, r0, r0
    1c04:	000b9700 	andeq	r9, fp, r0, lsl #14
    1c08:	04c52500 	strbeq	r2, [r5], #1280	; 0x500
    1c0c:	17010000 	strne	r0, [r1, -r0]
    1c10:	00002c12 	andeq	r2, r0, r2, lsl ip
    1c14:	10000000 	andne	r0, r0, r0
    1c18:	8b2c1f00 	blhi	b09820 <__bss_end__+0xafe9b0>
    1c1c:	0c4c0000 	mareq	acc0, r0, ip
    1c20:	01190000 	tsteq	r9, r0
    1c24:	40400350 	submi	r0, r0, r0, asr r3
    1c28:	51011924 	tstpl	r1, r4, lsr #18
    1c2c:	24404003 	strbcs	r4, [r0], #-3
    1c30:	c8180000 	ldmdagt	r8, {}	; <UNPREDICTABLE>
    1c34:	0400008a 	streq	r0, [r0], #-138	; 0xffffff76
    1c38:	ae00000c 	cdpge	0, 0, cr0, cr0, cr12, {0}
    1c3c:	1900000b 	stmdbne	r0, {r0, r1, r3}
    1c40:	03055001 	movweq	r5, #20481	; 0x5001
    1c44:	0000a570 	andeq	sl, r0, r0, ror r5
    1c48:	8ae81800 	bhi	ffa07c50 <__bss_end__+0xff9fcde0>
    1c4c:	0c580000 	mraeq	r0, r8, acc0
    1c50:	0bc20000 	bleq	ff081c58 <__bss_end__+0xff076de8>
    1c54:	01190000 	tsteq	r9, r0
    1c58:	00740250 	rsbseq	r0, r4, r0, asr r2
    1c5c:	8b0c1800 	blhi	307c64 <__bss_end__+0x2fcdf4>
    1c60:	0c040000 	stceq	0, cr0, [r4], {-0}
    1c64:	0bfa0000 	bleq	ffe81c6c <__bss_end__+0xffe76dfc>
    1c68:	01190000 	tsteq	r9, r0
    1c6c:	e0030550 	and	r0, r3, r0, asr r5
    1c70:	190000a0 	stmdbne	r0, {r5, r7}
    1c74:	03055101 	movweq	r5, #20737	; 0x5101
    1c78:	0000a544 	andeq	sl, r0, r4, asr #10
    1c7c:	05520119 	ldrbeq	r0, [r2, #-281]	; 0xfffffee7
    1c80:	00a67c03 	adceq	r7, r6, r3, lsl #24
    1c84:	53011900 	movwpl	r1, #6400	; 0x1900
    1c88:	02194501 	andseq	r4, r9, #4194304	; 0x400000
    1c8c:	0305007d 	movweq	r0, #20605	; 0x507d
    1c90:	0000a580 	andeq	sl, r0, r0, lsl #11
    1c94:	8b101a00 	blhi	40849c <__bss_end__+0x3fd62c>
    1c98:	0c100000 	ldceq	0, cr0, [r0], {-0}
    1c9c:	2b000000 	blcs	1ca4 <__code_start__-0x635c>
    1ca0:	000006eb 	andeq	r0, r0, fp, ror #13
    1ca4:	000006eb 	andeq	r0, r0, fp, ror #13
    1ca8:	2b062803 	blcs	18bcbc <__bss_end__+0x180e4c>
    1cac:	00000074 	andeq	r0, r0, r4, ror r0
    1cb0:	00000074 	andeq	r0, r0, r4, ror r0
    1cb4:	2b066e03 	blcs	19d4c8 <__bss_end__+0x192658>
    1cb8:	000002f7 	strdeq	r0, [r0], -r7
    1cbc:	000002f7 	strdeq	r0, [r0], -r7
    1cc0:	2b082f05 	blcs	20d8dc <__bss_end__+0x202a6c>
    1cc4:	00000339 	andeq	r0, r0, r9, lsr r3
    1cc8:	00000339 	andeq	r0, r0, r9, lsr r3
    1ccc:	2b083205 	blcs	20e4e8 <__bss_end__+0x203678>
    1cd0:	0000045c 	andeq	r0, r0, ip, asr r4
    1cd4:	0000045c 	andeq	r0, r0, ip, asr r4
    1cd8:	2b06a001 	blcs	1a9ce4 <__bss_end__+0x19ee74>
    1cdc:	00000378 	andeq	r0, r0, r8, ror r3
    1ce0:	00000378 	andeq	r0, r0, r8, ror r3
    1ce4:	2b083305 	blcs	20e900 <__bss_end__+0x203a90>
    1ce8:	000004f9 	strdeq	r0, [r0], -r9
    1cec:	000004f9 	strdeq	r0, [r0], -r9
    1cf0:	2b068303 	blcs	1a2904 <__bss_end__+0x197a94>
    1cf4:	000004f1 	strdeq	r0, [r0], -r1
    1cf8:	000004f1 	strdeq	r0, [r0], -r1
    1cfc:	00077c03 	andeq	r7, r7, r3, lsl #24
    1d00:	000002da 	ldrdeq	r0, [r0], -sl
    1d04:	06e30004 	strbteq	r0, [r3], r4
    1d08:	01040000 	mrseq	r0, (UNDEF: 4)
    1d0c:	000001bb 			; <UNDEFINED> instruction: 0x000001bb
    1d10:	0005710c 	andeq	r7, r5, ip, lsl #2
    1d14:	0000f300 	andeq	pc, r0, r0, lsl #6
    1d18:	008c9400 	addeq	r9, ip, r0, lsl #8
    1d1c:	0001ac00 	andeq	sl, r1, r0, lsl #24
    1d20:	000cdc00 	andeq	sp, ip, r0, lsl #24
    1d24:	05040200 	streq	r0, [r4, #-512]	; 0xfffffe00
    1d28:	00746e69 	rsbseq	r6, r4, r9, ror #28
    1d2c:	cd070403 	cfstrsgt	mvf0, [r7, #-12]
    1d30:	03000000 	movweq	r0, #0
    1d34:	00680601 	rsbeq	r0, r8, r1, lsl #12
    1d38:	02030000 	andeq	r0, r3, #0, 0
    1d3c:	00018b05 	andeq	r8, r1, r5, lsl #22
    1d40:	05040300 	streq	r0, [r4, #-768]	; 0xfffffd00
    1d44:	00000150 	andeq	r0, r0, r0, asr r1
    1d48:	4b050803 	blmi	143d5c <__bss_end__+0x138eec>
    1d4c:	03000001 	movweq	r0, #1
    1d50:	00660801 	rsbeq	r0, r6, r1, lsl #16
    1d54:	02030000 	andeq	r0, r3, #0, 0
    1d58:	00008107 	andeq	r8, r0, r7, lsl #2
    1d5c:	07040300 	streq	r0, [r4, -r0, lsl #6]
    1d60:	000000c8 	andeq	r0, r0, r8, asr #1
    1d64:	c3070803 	movwgt	r0, #30723	; 0x7803
    1d68:	04000000 	streq	r0, [r0], #-0
    1d6c:	00000025 	andeq	r0, r0, r5, lsr #32
    1d70:	0000007a 	andeq	r0, r0, sl, ror r0
    1d74:	00002505 	andeq	r2, r0, r5, lsl #10
    1d78:	59060000 	stmdbpl	r6, {}	; <UNPREDICTABLE>
    1d7c:	02000001 	andeq	r0, r0, #1, 0
    1d80:	00860e1c 	addeq	r0, r6, ip, lsl lr
    1d84:	04070000 	streq	r0, [r7], #-0
    1d88:	0000006b 	andeq	r0, r0, fp, rrx
    1d8c:	00002504 	andeq	r2, r0, r4, lsl #10
    1d90:	00009b00 	andeq	r9, r0, r0, lsl #22
    1d94:	009b0500 	addseq	r0, fp, r0, lsl #10
    1d98:	07000000 	streq	r0, [r0, -r0]
    1d9c:	0000a804 	andeq	sl, r0, r4, lsl #16
    1da0:	08010300 	stmdaeq	r1, {r8, r9}
    1da4:	0000006f 	andeq	r0, r0, pc, rrx
    1da8:	0000a108 	andeq	sl, r0, r8, lsl #2
    1dac:	07290600 	streq	r0, [r9, -r0, lsl #12]!
    1db0:	21020000 	mrscs	r0, (UNDEF: 2)
    1db4:	0000b90e 	andeq	fp, r0, lr, lsl #18
    1db8:	8c040700 	stchi	7, cr0, [r4], {-0}
    1dbc:	09000000 	stmdbeq	r0, {}	; <UNPREDICTABLE>
    1dc0:	00000556 	andeq	r0, r0, r6, asr r5
    1dc4:	07190308 	ldreq	r0, [r9, -r8, lsl #6]
    1dc8:	000000ec 	andeq	r0, r0, ip, ror #1
    1dcc:	0300640a 	movweq	r6, #1034	; 0x40a
    1dd0:	00ec101a 	rsceq	r1, ip, sl, lsl r0
    1dd4:	700a0000 	andvc	r0, sl, r0
    1dd8:	0f1b0300 	svceq	0x001b0300
    1ddc:	000000f3 	strdeq	r0, [r0], -r3
    1de0:	0070660a 	rsbseq	r6, r0, sl, lsl #12
    1de4:	f6101c03 			; <UNDEFINED> instruction: 0xf6101c03
    1de8:	00000000 	andeq	r0, r0, r0
    1dec:	71040803 	tstvc	r4, r3, lsl #16
    1df0:	0b000003 	bleq	1e04 <__code_start__-0x61fc>
    1df4:	04070c04 	streq	r0, [r7], #-3076	; 0xfffff3fc
    1df8:	000000f5 	strdeq	r0, [r0], -r5
    1dfc:	2003080d 	andcs	r0, r3, sp, lsl #16
    1e00:	00012002 	andeq	r2, r1, r2
    1e04:	74700e00 	ldrbtvc	r0, [r0], #-3584	; 0xfffff200
    1e08:	21030072 	tstcs	r3, r2, ror r0
    1e0c:	00014215 	andeq	r4, r1, r5, lsl r2
    1e10:	8e0f0000 	cdphi	0, 0, cr0, cr15, cr0, {0}
    1e14:	03000005 	movweq	r0, #5
    1e18:	002c1022 	eoreq	r1, ip, r2, lsr #32
    1e1c:	00040000 	andeq	r0, r4, r0
    1e20:	00054909 	andeq	r4, r5, r9, lsl #18
    1e24:	1f030800 	svcne	0x00030800
    1e28:	0001420f 	andeq	r4, r1, pc, lsl #4
    1e2c:	00730a00 	rsbseq	r0, r3, r0, lsl #20
    1e30:	fc062303 	stc2	3, cr2, [r6], {3}
    1e34:	0a000000 	beq	1e3c <__code_start__-0x61c4>
    1e38:	24030078 	strcs	r0, [r3], #-120	; 0xffffff88
    1e3c:	0000bf10 	andeq	fp, r0, r0, lsl pc
    1e40:	04070000 	streq	r0, [r7], #-0
    1e44:	00000120 	andeq	r0, r0, r0, lsr #2
    1e48:	00059310 	andeq	r9, r5, r0, lsl r3
    1e4c:	03250300 			; <UNDEFINED> instruction: 0x03250300
    1e50:	00000120 	andeq	r0, r0, r0, lsr #2
    1e54:	00057d11 	andeq	r7, r5, r1, lsl sp
    1e58:	0f060100 	svceq	0x00060100
    1e5c:	00000148 	andeq	r0, r0, r8, asr #2
    1e60:	aa600305 	bge	1802a7c <__bss_end__+0x17f7c0c>
    1e64:	64110000 	ldrvs	r0, [r1], #-0
    1e68:	01000005 	tsteq	r0, r5
    1e6c:	01781007 	cmneq	r8, r7
    1e70:	03050000 	movweq	r0, #20480	; 0x5000
    1e74:	0000aa58 	andeq	sl, r0, r8, asr sl
    1e78:	01480407 	cmpeq	r8, r7, lsl #8
    1e7c:	5c120000 	ldcpl	0, cr0, [r2], {-0}
    1e80:	01000005 	tsteq	r0, r5
    1e84:	8c940646 	ldchi	6, cr0, [r4], {70}	; 0x46
    1e88:	00bc0000 	adcseq	r0, ip, r0
    1e8c:	9c010000 	stcls	0, cr0, [r1], {-0}
    1e90:	000001c8 	andeq	r0, r0, r8, asr #3
    1e94:	72747013 	rsbsvc	r7, r4, #19, 0
    1e98:	14460100 	strbne	r0, [r6], #-256	; 0xffffff00
    1e9c:	000000f3 	strdeq	r0, [r0], -r3
    1ea0:	62145001 	andsvs	r5, r4, #1, 0
    1ea4:	47010070 	smlsdxmi	r1, r0, r0, r0
    1ea8:	0001780a 	andeq	r7, r1, sl, lsl #16
    1eac:	000b4a00 	andeq	r4, fp, r0, lsl #20
    1eb0:	000b4200 	andeq	r4, fp, r0, lsl #4
    1eb4:	00701400 	rsbseq	r1, r0, r0, lsl #8
    1eb8:	780f4701 	stmdavc	pc, {r0, r8, r9, sl, lr}	; <UNPREDICTABLE>
    1ebc:	86000001 	strhi	r0, [r0], -r1
    1ec0:	8200000b 	andhi	r0, r0, #11, 0
    1ec4:	0000000b 	andeq	r0, r0, fp
    1ec8:	0003b815 	andeq	fp, r3, r5, lsl r8
    1ecc:	07200100 	streq	r0, [r0, -r0, lsl #2]!
    1ed0:	000000f3 	strdeq	r0, [r0], -r3
    1ed4:	00008d94 	muleq	r0, r4, sp
    1ed8:	000000ac 	andeq	r0, r0, ip, lsr #1
    1edc:	02579c01 	subseq	r9, r7, #256	; 0x100
    1ee0:	b1160000 	tstlt	r6, r0
    1ee4:	01000003 	tsteq	r0, r3
    1ee8:	002c1a20 	eoreq	r1, ip, r0, lsr #20
    1eec:	0bac0000 	bleq	feb01ef4 <__bss_end__+0xfeaf7084>
    1ef0:	0ba40000 	bleq	fe901ef8 <__bss_end__+0xfe8f7088>
    1ef4:	70140000 	andsvc	r0, r4, r0
    1ef8:	0a210100 	beq	842300 <__bss_end__+0x837490>
    1efc:	00000178 	andeq	r0, r0, r8, ror r1
    1f00:	00000bf4 	strdeq	r0, [r0], -r4
    1f04:	00000be6 	andeq	r0, r0, r6, ror #23
    1f08:	00055017 	andeq	r5, r5, r7, lsl r0
    1f0c:	0e210100 	sufeqs	f0, f1, f0
    1f10:	00000178 	andeq	r0, r0, r8, ror r1
    1f14:	00000c56 	andeq	r0, r0, r6, asr ip
    1f18:	00000c4c 	andeq	r0, r0, ip, asr #24
    1f1c:	00056a17 	andeq	r6, r5, r7, lsl sl
    1f20:	0b220100 	bleq	882328 <__bss_end__+0x8774b8>
    1f24:	0000002c 	andeq	r0, r0, ip, lsr #32
    1f28:	00000c9c 	muleq	r0, ip, ip
    1f2c:	00000c9a 	muleq	r0, sl, ip
    1f30:	00058218 	andeq	r8, r5, r8, lsl r2
    1f34:	0a230100 	beq	8c233c <__bss_end__+0x8b74cc>
    1f38:	00000178 	andeq	r0, r0, r8, ror r1
    1f3c:	00000246 	andeq	r0, r0, r6, asr #4
    1f40:	00002c05 	andeq	r2, r0, r5, lsl #24
    1f44:	30190000 	andscc	r0, r9, r0
    1f48:	5700008e 	strpl	r0, [r0, -lr, lsl #1]
    1f4c:	1a000002 	bne	1f5c <__code_start__-0x60a4>
    1f50:	74025001 	strvc	r5, [r2], #-1
    1f54:	1b000000 	blne	1f5c <__code_start__-0x60a4>
    1f58:	00000582 	andeq	r0, r0, r2, lsl #11
    1f5c:	78100c01 	ldmdavc	r0, {r0, sl, fp}
    1f60:	50000001 	andpl	r0, r0, r1
    1f64:	4400008d 	strmi	r0, [r0], #-141	; 0xffffff73
    1f68:	01000000 	mrseq	r0, (UNDEF: 0)
    1f6c:	0002cb9c 	muleq	r2, ip, fp
    1f70:	6e691c00 	cdpvs	12, 6, cr1, cr9, cr0, {0}
    1f74:	0c010063 	stceq	0, cr0, [r1], {99}	; 0x63
    1f78:	00002c25 	andeq	r2, r0, r5, lsr #24
    1f7c:	000cb300 	andeq	fp, ip, r0, lsl #6
    1f80:	000caf00 	andeq	sl, ip, r0, lsl #30
    1f84:	70631400 	rsbvc	r1, r3, r0, lsl #8
    1f88:	080d0100 	stmdaeq	sp, {r8}
    1f8c:	000002cb 	andeq	r0, r0, fp, asr #5
    1f90:	00000cd7 	ldrdeq	r0, [r0], -r7
    1f94:	00000cd1 	ldrdeq	r0, [r0], -r1
    1f98:	00707514 	rsbseq	r7, r0, r4, lsl r5
    1f9c:	780a0e01 	stmdavc	sl, {r0, r9, sl, fp}
    1fa0:	06000001 	streq	r0, [r0], -r1
    1fa4:	0200000d 	andeq	r0, r0, #13, 0
    1fa8:	1d00000d 	stcne	0, cr0, [r0, #-52]	; 0xffffffcc
    1fac:	00008d68 	andeq	r8, r0, r8, ror #26
    1fb0:	000002d1 	ldrdeq	r0, [r0], -r1
    1fb4:	000002c1 	andeq	r0, r0, r1, asr #5
    1fb8:	0450011a 	ldrbeq	r0, [r0], #-282	; 0xfffffee6
    1fbc:	24330074 	ldrtcs	r0, [r3], #-116	; 0xffffff8c
    1fc0:	8d7c1e00 	ldclhi	14, cr1, [ip, #-0]
    1fc4:	017e0000 	cmneq	lr, r0
    1fc8:	07000000 	streq	r0, [r0, -r0]
    1fcc:	0000a104 	andeq	sl, r0, r4, lsl #2
    1fd0:	04881f00 	streq	r1, [r8], #3840	; 0xf00
    1fd4:	04880000 	streq	r0, [r8], #0
    1fd8:	28030000 	stmdacs	r3, {}	; <UNPREDICTABLE>
    1fdc:	0183000b 	orreq	r0, r3, fp
    1fe0:	00040000 	andeq	r0, r4, r0
    1fe4:	000008d1 	ldrdeq	r0, [r0], -r1
    1fe8:	059a0104 	ldreq	r0, [sl, #260]	; 0x104
    1fec:	b30c0000 	movwlt	r0, #49152	; 0xc000
    1ff0:	6b000006 	blvs	2010 <__code_start__-0x5ff0>
    1ff4:	40000006 	andmi	r0, r0, r6
    1ff8:	3400008e 	strcc	r0, [r0], #-142	; 0xffffff72
    1ffc:	32000000 	andcc	r0, r0, #0, 0
    2000:	0200000f 	andeq	r0, r0, #15, 0
    2004:	6e690504 	cdpvs	5, 6, cr0, cr9, cr4, {0}
    2008:	64030074 	strvs	r0, [r3], #-116	; 0xffffff8c
    200c:	03000006 	movweq	r0, #6
    2010:	003817d1 	ldrsbteq	r1, [r8], -r1
    2014:	04040000 	streq	r0, [r4], #-0
    2018:	0000cd07 	andeq	ip, r0, r7, lsl #26
    201c:	06010400 	streq	r0, [r1], -r0, lsl #8
    2020:	00000068 	andeq	r0, r0, r8, rrx
    2024:	8b050204 	blhi	14283c <__bss_end__+0x1379cc>
    2028:	04000001 	streq	r0, [r0], #-1
    202c:	01500504 	cmpeq	r0, r4, lsl #10
    2030:	08040000 	stmdaeq	r4, {}	; <UNPREDICTABLE>
    2034:	00014b05 	andeq	r4, r1, r5, lsl #22
    2038:	08010400 	stmdaeq	r1, {sl}
    203c:	00000066 	andeq	r0, r0, r6, rrx
    2040:	00005b05 	andeq	r5, r0, r5, lsl #22
    2044:	07020400 	streq	r0, [r2, -r0, lsl #8]
    2048:	00000081 	andeq	r0, r0, r1, lsl #1
    204c:	c8070404 	stmdagt	r7, {r2, sl}
    2050:	04000000 	streq	r0, [r0], #-0
    2054:	00c30708 	sbceq	r0, r3, r8, lsl #14
    2058:	25060000 	strcs	r0, [r6, #-0]
    205c:	8b000000 	blhi	2064 <__code_start__-0x5f9c>
    2060:	07000000 	streq	r0, [r0, -r0]
    2064:	00000025 	andeq	r0, r0, r5, lsr #32
    2068:	01590800 	cmpeq	r9, r0, lsl #16
    206c:	1c020000 	stcne	0, cr0, [r2], {-0}
    2070:	0000970e 	andeq	r9, r0, lr, lsl #14
    2074:	7c040900 			; <UNDEFINED> instruction: 0x7c040900
    2078:	06000000 	streq	r0, [r0], -r0
    207c:	00000025 	andeq	r0, r0, r5, lsr #32
    2080:	000000ac 	andeq	r0, r0, ip, lsr #1
    2084:	0000ac07 	andeq	sl, r0, r7, lsl #24
    2088:	04090000 	streq	r0, [r9], #-0
    208c:	000000b9 	strheq	r0, [r0], -r9
    2090:	6f080104 	svcvs	0x00080104
    2094:	05000000 	streq	r0, [r0, #-0]
    2098:	000000b2 	strheq	r0, [r0], -r2
    209c:	00072908 	andeq	r2, r7, r8, lsl #18
    20a0:	0e210200 	cdpeq	2, 2, cr0, cr1, cr0, {0}
    20a4:	000000ca 	andeq	r0, r0, sl, asr #1
    20a8:	009d0409 	addseq	r0, sp, r9, lsl #8
    20ac:	4a0a0000 	bmi	2820b4 <__bss_end__+0x277244>
    20b0:	01000003 	tsteq	r0, r3
    20b4:	00250503 	eoreq	r0, r5, r3, lsl #10
    20b8:	8e400000 	cdphi	0, 4, cr0, cr0, cr0, {0}
    20bc:	00340000 	eorseq	r0, r4, r0
    20c0:	9c010000 	stcls	0, cr0, [r1], {-0}
    20c4:	00000179 	andeq	r0, r0, r9, ror r1
    20c8:	31735f0b 	cmncc	r3, fp, lsl #30
    20cc:	18030100 	stmdane	r3, {r8}
    20d0:	00000179 	andeq	r0, r0, r9, ror r1
    20d4:	00000d2a 	andeq	r0, r0, sl, lsr #26
    20d8:	00000d26 	andeq	r0, r0, r6, lsr #26
    20dc:	32735f0c 	rsbscc	r5, r3, #12, 30	; 0x30
    20e0:	29030100 	stmdbcs	r3, {r8}
    20e4:	00000179 	andeq	r0, r0, r9, ror r1
    20e8:	b10d5101 	tstlt	sp, r1, lsl #2
    20ec:	01000003 	tsteq	r0, r3
    20f0:	002c3503 	eoreq	r3, ip, r3, lsl #10
    20f4:	52010000 	andpl	r0, r1, #0, 0
    20f8:	0031730e 	eorseq	r7, r1, lr, lsl #6
    20fc:	801a0401 	andshi	r0, sl, r1, lsl #8
    2100:	4c000001 	stcmi	0, cr0, [r0], {1}
    2104:	4800000d 	stmdami	r0, {r0, r2, r3}
    2108:	0e00000d 	cdpeq	0, 0, cr0, cr0, cr13, {0}
    210c:	01003273 	tsteq	r0, r3, ror r2
    2110:	01802504 	orreq	r2, r0, r4, lsl #10
    2114:	0d6c0000 	stcleq	0, cr0, [ip, #-0]
    2118:	0d6a0000 	stcleq	0, cr0, [sl, #-0]
    211c:	480f0000 	stmdami	pc, {}	; <UNPREDICTABLE>
    2120:	2400008e 	strcs	r0, [r0], #-142	; 0xffffff72
    2124:	0e000000 	cdpeq	0, 0, cr0, cr0, cr0, {0}
    2128:	06010069 	streq	r0, [r1], -r9, rrx
    212c:	0000250d 	andeq	r2, r0, sp, lsl #10
    2130:	000d8300 	andeq	r8, sp, r0, lsl #6
    2134:	000d7f00 	andeq	r7, sp, r0, lsl #30
    2138:	8e540f00 	cdphi	15, 5, cr0, cr4, cr0, {0}
    213c:	00100000 	andseq	r0, r0, r0
    2140:	760e0000 	strvc	r0, [lr], -r0
    2144:	0d070100 	stfeqs	f0, [r7, #-0]
    2148:	00000025 	andeq	r0, r0, r5, lsr #32
    214c:	00000da6 	andeq	r0, r0, r6, lsr #27
    2150:	00000da2 	andeq	r0, r0, r2, lsr #27
    2154:	09000000 	stmdbeq	r0, {}	; <UNPREDICTABLE>
    2158:	00017f04 	andeq	r7, r1, r4, lsl #30
    215c:	04091000 	streq	r1, [r9], #-0
    2160:	00000062 	andeq	r0, r0, r2, rrx
    2164:	0001fa00 	andeq	pc, r1, r0, lsl #20
    2168:	b5000400 	strlt	r0, [r0, #-1024]	; 0xfffffc00
    216c:	04000009 	streq	r0, [r0], #-9
    2170:	00059a01 	andeq	r9, r5, r1, lsl #20
    2174:	06c30c00 	strbeq	r0, [r3], r0, lsl #24
    2178:	066b0000 	strbteq	r0, [fp], -r0
    217c:	8e740000 	cdphi	0, 7, cr0, cr4, cr0, {0}
    2180:	00600000 	rsbeq	r0, r0, r0
    2184:	10810000 	addne	r0, r1, r0
    2188:	04020000 	streq	r0, [r2], #-0
    218c:	746e6905 	strbtvc	r6, [lr], #-2309	; 0xfffff6fb
    2190:	06640300 	strbteq	r0, [r4], -r0, lsl #6
    2194:	d1030000 	mrsle	r0, (UNDEF: 3)
    2198:	00003817 	andeq	r3, r0, r7, lsl r8
    219c:	07040400 	streq	r0, [r4, -r0, lsl #8]
    21a0:	000000cd 	andeq	r0, r0, sp, asr #1
    21a4:	00003805 	andeq	r3, r0, r5, lsl #16
    21a8:	06010400 	streq	r0, [r1], -r0, lsl #8
    21ac:	00000068 	andeq	r0, r0, r8, rrx
    21b0:	8b050204 	blhi	1429c8 <__bss_end__+0x137b58>
    21b4:	04000001 	streq	r0, [r0], #-1
    21b8:	01500504 	cmpeq	r0, r4, lsl #10
    21bc:	08040000 	stmdaeq	r4, {}	; <UNPREDICTABLE>
    21c0:	00014b05 	andeq	r4, r1, r5, lsl #22
    21c4:	08010400 	stmdaeq	r1, {sl}
    21c8:	00000066 	andeq	r0, r0, r6, rrx
    21cc:	00006005 	andeq	r6, r0, r5
    21d0:	07020400 	streq	r0, [r2, -r0, lsl #8]
    21d4:	00000081 	andeq	r0, r0, r1, lsl #1
    21d8:	c8070404 	stmdagt	r7, {r2, sl}
    21dc:	04000000 	streq	r0, [r0], #-0
    21e0:	00c30708 	sbceq	r0, r3, r8, lsl #14
    21e4:	25060000 	strcs	r0, [r6, #-0]
    21e8:	90000000 	andls	r0, r0, r0
    21ec:	07000000 	streq	r0, [r0, -r0]
    21f0:	00000025 	andeq	r0, r0, r5, lsr #32
    21f4:	01590800 	cmpeq	r9, r0, lsl #16
    21f8:	1c020000 	stcne	0, cr0, [r2], {-0}
    21fc:	00009c0e 	andeq	r9, r0, lr, lsl #24
    2200:	81040900 	tsthi	r4, r0, lsl #18
    2204:	06000000 	streq	r0, [r0], -r0
    2208:	00000025 	andeq	r0, r0, r5, lsr #32
    220c:	000000b1 	strheq	r0, [r0], -r1
    2210:	0000b107 	andeq	fp, r0, r7, lsl #2
    2214:	04090000 	streq	r0, [r9], #-0
    2218:	000000be 	strheq	r0, [r0], -lr
    221c:	6f080104 	svcvs	0x00080104
    2220:	05000000 	streq	r0, [r0, #-0]
    2224:	000000b7 	strheq	r0, [r0], -r7
    2228:	00072908 	andeq	r2, r7, r8, lsl #18
    222c:	0e210200 	cdpeq	2, 2, cr0, cr1, cr0, {0}
    2230:	000000cf 	andeq	r0, r0, pc, asr #1
    2234:	00a20409 	adceq	r0, r2, r9, lsl #8
    2238:	d50a0000 	strle	r0, [sl, #-0]
    223c:	01000002 	tsteq	r0, r2
    2240:	01c70706 	biceq	r0, r7, r6, lsl #14
    2244:	8e740000 	cdphi	0, 7, cr0, cr4, cr0, {0}
    2248:	00600000 	rsbeq	r0, r0, r0
    224c:	9c010000 	stcls	0, cr0, [r1], {-0}
    2250:	000001c7 	andeq	r0, r0, r7, asr #3
    2254:	7473640b 	ldrbtvc	r6, [r3], #-1035	; 0xfffffbf5
    2258:	14060100 	strne	r0, [r6], #-256	; 0xffffff00
    225c:	000001c7 	andeq	r0, r0, r7, asr #3
    2260:	730b5001 	movwvc	r5, #45057	; 0xb001
    2264:	01006372 	tsteq	r0, r2, ror r3
    2268:	01c92506 	biceq	r2, r9, r6, lsl #10
    226c:	51010000 	mrspl	r0, (UNDEF: 1)
    2270:	0003b10c 	andeq	fp, r3, ip, lsl #2
    2274:	31060100 	mrscc	r0, (UNDEF: 22)
    2278:	0000002c 	andeq	r0, r0, ip, lsr #32
    227c:	00000dcf 	andeq	r0, r0, pc, asr #27
    2280:	00000dc9 	andeq	r0, r0, r9, asr #27
    2284:	0000ab0d 	andeq	sl, r0, sp, lsl #22
    2288:	0001e000 	andeq	lr, r1, r0
    228c:	0002d500 	andeq	sp, r2, r0, lsl #10
    2290:	8e8c0e00 	cdphi	14, 8, cr0, cr12, cr0, {0}
    2294:	00200000 	eoreq	r0, r0, r0
    2298:	018c0000 	orreq	r0, ip, r0
    229c:	6e0f0000 	cdpvs	0, 0, cr0, cr15, cr0, {0}
    22a0:	120d0100 	andne	r0, sp, #0
    22a4:	00000038 	andeq	r0, r0, r8, lsr r0
    22a8:	00000dfd 	strdeq	r0, [r0], -sp
    22ac:	00000dfb 	strdeq	r0, [r0], -fp
    22b0:	0100640f 	tsteq	r0, pc, lsl #8
    22b4:	01e5130e 	mvneq	r1, lr, lsl #6
    22b8:	0e120000 	cdpeq	0, 1, cr0, cr2, cr0, {0}
    22bc:	0e100000 	cdpeq	0, 1, cr0, cr0, cr0, {0}
    22c0:	730f0000 	movwvc	r0, #61440	; 0xf000
    22c4:	190f0100 	stmdbne	pc, {r8}	; <UNPREDICTABLE>
    22c8:	000001eb 	andeq	r0, r0, fp, ror #3
    22cc:	00000e27 	andeq	r0, r0, r7, lsr #28
    22d0:	00000e25 	andeq	r0, r0, r5, lsr #28
    22d4:	008e9010 	addeq	r9, lr, r0, lsl r0
    22d8:	00001c00 	andeq	r1, r0, r0, lsl #24
    22dc:	00690f00 	rsbeq	r0, r9, r0, lsl #30
    22e0:	38161101 	ldmdacc	r6, {r0, r8, ip}
    22e4:	3e000000 	cdpcc	0, 0, cr0, cr0, cr0, {0}
    22e8:	3a00000e 	bcc	2328 <__code_start__-0x5cd8>
    22ec:	0000000e 	andeq	r0, r0, lr
    22f0:	8eac1000 	cdphi	0, 10, cr1, cr12, cr0, {0}
    22f4:	00180000 	andseq	r0, r8, r0
    22f8:	64110000 	ldrvs	r0, [r1], #-0
    22fc:	18140100 	ldmdane	r4, {r8}
    2300:	000001f1 	strdeq	r0, [r0], -r1
    2304:	01007311 	tsteq	r0, r1, lsl r3
    2308:	01f71e15 	mvnseq	r1, r5, lsl lr
    230c:	ac100000 	ldcge	0, cr0, [r0], {-0}
    2310:	1800008e 	stmdane	r0, {r1, r2, r3, r7}
    2314:	0f000000 	svceq	0x00000000
    2318:	16010069 	strne	r0, [r1], -r9, rrx
    231c:	00003816 	andeq	r3, r0, r6, lsl r8
    2320:	000e5f00 	andeq	r5, lr, r0, lsl #30
    2324:	000e5d00 	andeq	r5, lr, r0, lsl #26
    2328:	00000000 	andeq	r0, r0, r0
    232c:	04090412 	streq	r0, [r9], #-1042	; 0xfffffbee
    2330:	000001cf 	andeq	r0, r0, pc, asr #3
    2334:	00be1413 	adcseq	r1, lr, r3, lsl r4
    2338:	01e00000 	mvneq	r0, r0
    233c:	38150000 	ldmdacc	r5, {}	; <UNPREDICTABLE>
    2340:	06000000 	streq	r0, [r0], -r0
    2344:	01d00500 	bicseq	r0, r0, r0, lsl #10
    2348:	04090000 	streq	r0, [r9], #-0
    234c:	00000038 	andeq	r0, r0, r8, lsr r0
    2350:	003f0409 	eorseq	r0, pc, r9, lsl #8
    2354:	04090000 	streq	r0, [r9], #-0
    2358:	00000060 	andeq	r0, r0, r0, rrx
    235c:	00670409 	rsbeq	r0, r7, r9, lsl #8
    2360:	3a000000 	bcc	2368 <__code_start__-0x5c98>
    2364:	04000001 	streq	r0, [r0], #-1
    2368:	000ac800 	andeq	ip, sl, r0, lsl #16
    236c:	9a010400 	bls	43374 <__bss_end__+0x38504>
    2370:	0c000005 	stceq	0, cr0, [r0], {5}
    2374:	000006d3 	ldrdeq	r0, [r0], -r3
    2378:	0000066b 	andeq	r0, r0, fp, ror #12
    237c:	00008ed4 	ldrdeq	r8, [r0], -r4
    2380:	00000018 	andeq	r0, r0, r8, lsl r0
    2384:	00001250 	andeq	r1, r0, r0, asr r2
    2388:	69050402 	stmdbvs	r5, {r1, sl}
    238c:	0300746e 	movweq	r7, #1134	; 0x46e
    2390:	00000664 	andeq	r0, r0, r4, ror #12
    2394:	3817d103 	ldmdacc	r7, {r0, r1, r8, ip, lr, pc}
    2398:	04000000 	streq	r0, [r0], #-0
    239c:	00cd0704 	sbceq	r0, sp, r4, lsl #14
    23a0:	01040000 	mrseq	r0, (UNDEF: 4)
    23a4:	00006806 	andeq	r6, r0, r6, lsl #16
    23a8:	05020400 	streq	r0, [r2, #-1024]	; 0xfffffc00
    23ac:	0000018b 	andeq	r0, r0, fp, lsl #3
    23b0:	50050404 	andpl	r0, r5, r4, lsl #8
    23b4:	04000001 	streq	r0, [r0], #-1
    23b8:	014b0508 	cmpeq	fp, r8, lsl #10
    23bc:	01040000 	mrseq	r0, (UNDEF: 4)
    23c0:	00006608 	andeq	r6, r0, r8, lsl #12
    23c4:	07020400 	streq	r0, [r2, -r0, lsl #8]
    23c8:	00000081 	andeq	r0, r0, r1, lsl #1
    23cc:	c8070404 	stmdagt	r7, {r2, sl}
    23d0:	04000000 	streq	r0, [r0], #-0
    23d4:	00c30708 	sbceq	r0, r3, r8, lsl #14
    23d8:	25050000 	strcs	r0, [r5, #-0]
    23dc:	86000000 	strhi	r0, [r0], -r0
    23e0:	06000000 	streq	r0, [r0], -r0
    23e4:	00000025 	andeq	r0, r0, r5, lsr #32
    23e8:	01590700 	cmpeq	r9, r0, lsl #14
    23ec:	1c020000 	stcne	0, cr0, [r2], {-0}
    23f0:	0000920e 	andeq	r9, r0, lr, lsl #4
    23f4:	77040800 	strvc	r0, [r4, -r0, lsl #16]
    23f8:	05000000 	streq	r0, [r0, #-0]
    23fc:	00000025 	andeq	r0, r0, r5, lsr #32
    2400:	000000a7 	andeq	r0, r0, r7, lsr #1
    2404:	0000a706 	andeq	sl, r0, r6, lsl #14
    2408:	04080000 	streq	r0, [r8], #-0
    240c:	000000b4 	strheq	r0, [r0], -r4
    2410:	6f080104 	svcvs	0x00080104
    2414:	09000000 	stmdbeq	r0, {}	; <UNPREDICTABLE>
    2418:	000000ad 	andeq	r0, r0, sp, lsr #1
    241c:	00072907 	andeq	r2, r7, r7, lsl #18
    2420:	0e210200 	cdpeq	2, 2, cr0, cr1, cr0, {0}
    2424:	000000c5 	andeq	r0, r0, r5, asr #1
    2428:	00980408 	addseq	r0, r8, r8, lsl #8
    242c:	130a0000 	movwne	r0, #40960	; 0xa000
    2430:	01000003 	tsteq	r0, r3
    2434:	01350704 	teqeq	r5, r4, lsl #14
    2438:	8ed40000 	cdphi	0, 13, cr0, cr4, cr0, {0}
    243c:	00180000 	andseq	r0, r8, r0
    2440:	9c010000 	stcls	0, cr0, [r1], {-0}
    2444:	00000135 	andeq	r0, r0, r5, lsr r1
    2448:	00705f0b 	rsbseq	r5, r0, fp, lsl #30
    244c:	35140401 	ldrcc	r0, [r4, #-1025]	; 0xfffffbff
    2450:	01000001 	tsteq	r0, r1
    2454:	00630b50 	rsbeq	r0, r3, r0, asr fp
    2458:	251c0401 	ldrcs	r0, [ip, #-1025]	; 0xfffffbff
    245c:	01000000 	mrseq	r0, (UNDEF: 0)
    2460:	006e0c51 	rsbeq	r0, lr, r1, asr ip
    2464:	2c260401 	cfstrscs	mvf0, [r6], #-4
    2468:	76000000 	strvc	r0, [r0], -r0
    246c:	7200000e 	andvc	r0, r0, #14, 0
    2470:	0d00000e 	stceq	0, cr0, [r0, #-56]	; 0xffffffc8
    2474:	05010070 	streq	r0, [r1, #-112]	; 0xffffff90
    2478:	0001370b 	andeq	r3, r1, fp, lsl #14
    247c:	000e9f00 	andeq	r9, lr, r0, lsl #30
    2480:	000e9700 	andeq	r9, lr, r0, lsl #14
    2484:	00650d00 	rsbeq	r0, r5, r0, lsl #26
    2488:	37140501 	ldrcc	r0, [r4, -r1, lsl #10]
    248c:	d7000001 	strle	r0, [r0, -r1]
    2490:	d500000e 	strle	r0, [r0, #-14]
    2494:	0000000e 	andeq	r0, r0, lr
    2498:	0408040e 	streq	r0, [r8], #-1038	; 0xfffffbf2
    249c:	000000ad 	andeq	r0, r0, sp, lsr #1
    24a0:	00019d00 	andeq	r9, r1, r0, lsl #26
    24a4:	94000400 	strls	r0, [r0], #-1024	; 0xfffffc00
    24a8:	0400000b 	streq	r0, [r0], #-11
    24ac:	00059a01 	andeq	r9, r5, r1, lsl #20
    24b0:	07100c00 	ldreq	r0, [r0, -r0, lsl #24]
    24b4:	066b0000 	strbteq	r0, [fp], -r0
    24b8:	8eec0000 	cdphi	0, 14, cr0, cr12, cr0, {0}
    24bc:	00580000 	subseq	r0, r8, r0
    24c0:	13680000 	cmnne	r8, #0, 0
    24c4:	f2020000 	vhadd.s8	d0, d2, d0
    24c8:	02000006 	andeq	r0, r0, #6, 0
    24cc:	00311b28 	eorseq	r1, r1, r8, lsr #22
    24d0:	01030000 	mrseq	r0, (UNDEF: 3)
    24d4:	04000007 	streq	r0, [r0], #-7
    24d8:	00480004 	subeq	r0, r8, r4
    24dc:	0b040000 	bleq	1024e4 <__bss_end__+0xf7674>
    24e0:	48000007 	stmdami	r0, {r0, r1, r2}
    24e4:	00000000 	andeq	r0, r0, r0
    24e8:	02040500 	andeq	r0, r4, #0, 10
    24ec:	00000703 	andeq	r0, r0, r3, lsl #14
    24f0:	25186302 	ldrcs	r6, [r8, #-770]	; 0xfffffcfe
    24f4:	06000000 	streq	r0, [r0], -r0
    24f8:	6e690504 	cdpvs	5, 6, cr0, cr9, cr4, {0}
    24fc:	04070074 	streq	r0, [r7], #-116	; 0xffffff8c
    2500:	0000cd07 	andeq	ip, r0, r7, lsl #26
    2504:	06010700 	streq	r0, [r1], -r0, lsl #14
    2508:	00000068 	andeq	r0, r0, r8, rrx
    250c:	8b050207 	blhi	142d30 <__bss_end__+0x137ec0>
    2510:	07000001 	streq	r0, [r0, -r1]
    2514:	01500504 	cmpeq	r0, r4, lsl #10
    2518:	08070000 	stmdaeq	r7, {}	; <UNPREDICTABLE>
    251c:	00014b05 	andeq	r4, r1, r5, lsl #22
    2520:	08010700 	stmdaeq	r1, {r8, r9, sl}
    2524:	00000066 	andeq	r0, r0, r6, rrx
    2528:	81070207 	tsthi	r7, r7, lsl #4
    252c:	07000000 	streq	r0, [r0, -r0]
    2530:	00c80704 	sbceq	r0, r8, r4, lsl #14
    2534:	08070000 	stmdaeq	r7, {}	; <UNPREDICTABLE>
    2538:	0000c307 	andeq	ip, r0, r7, lsl #6
    253c:	00560800 	subseq	r0, r6, r0, lsl #16
    2540:	00ab0000 	adceq	r0, fp, r0
    2544:	56090000 	strpl	r0, [r9], -r0
    2548:	00000000 	andeq	r0, r0, r0
    254c:	0001590a 	andeq	r5, r1, sl, lsl #18
    2550:	0e1c0300 	cdpeq	3, 1, cr0, cr12, cr0, {0}
    2554:	000000b7 	strheq	r0, [r0], -r7
    2558:	009c040b 	addseq	r0, ip, fp, lsl #8
    255c:	56080000 	strpl	r0, [r8], -r0
    2560:	cc000000 	stcgt	0, cr0, [r0], {-0}
    2564:	09000000 	stmdbeq	r0, {}	; <UNPREDICTABLE>
    2568:	000000cc 	andeq	r0, r0, ip, asr #1
    256c:	d9040b00 	stmdble	r4, {r8, r9, fp}
    2570:	07000000 	streq	r0, [r0, -r0]
    2574:	006f0801 	rsbeq	r0, pc, r1, lsl #16
    2578:	d20c0000 	andle	r0, ip, #0, 0
    257c:	0a000000 	beq	2584 <__code_start__-0x5a7c>
    2580:	00000729 	andeq	r0, r0, r9, lsr #14
    2584:	ea0e2103 	b	38a998 <__bss_end__+0x37fb28>
    2588:	0b000000 	bleq	2590 <__code_start__-0x5a70>
    258c:	0000bd04 	andeq	fp, r0, r4, lsl #26
    2590:	06eb0d00 	strbteq	r0, [fp], r0, lsl #26
    2594:	06010000 	streq	r0, [r1], -r0
    2598:	00005605 	andeq	r5, r0, r5, lsl #12
    259c:	008eec00 	addeq	lr, lr, r0, lsl #24
    25a0:	00005800 	andeq	r5, r0, r0, lsl #16
    25a4:	839c0100 	orrshi	r0, ip, #0
    25a8:	0e000001 	cdpeq	0, 0, cr0, cr0, cr1, {0}
    25ac:	00746d66 	rsbseq	r6, r4, r6, ror #26
    25b0:	cc180601 	ldcgt	6, cr0, [r8], {1}
    25b4:	02000000 	andeq	r0, r0, #0, 0
    25b8:	100f7091 	mulne	pc, r1, r0	; <UNPREDICTABLE>
    25bc:	00667562 	rsbeq	r7, r6, r2, ror #10
    25c0:	83110801 	tsthi	r1, #65536	; 0x10000
    25c4:	05000001 	streq	r0, [r0, #-1]
    25c8:	00aa6803 	adceq	r6, sl, r3, lsl #16
    25cc:	06e31100 	strbteq	r1, [r3], r0, lsl #2
    25d0:	09010000 	stmdbeq	r1, {}	; <UNPREDICTABLE>
    25d4:	00004a0d 	andeq	r4, r0, sp, lsl #20
    25d8:	5c910200 	lfmpl	f0, 4, [r1], {0}
    25dc:	007a7312 	rsbseq	r7, sl, r2, lsl r3
    25e0:	560d0c01 	strpl	r0, [sp], -r1, lsl #24
    25e4:	f0000000 			; <UNDEFINED> instruction: 0xf0000000
    25e8:	ea00000e 	b	2628 <__code_start__-0x59d8>
    25ec:	1300000e 	movwne	r0, #14
    25f0:	00008f14 	andeq	r8, r0, r4, lsl pc
    25f4:	00000194 	muleq	r0, r4, r1
    25f8:	00000176 	andeq	r0, r0, r6, ror r1
    25fc:	02500114 	subseq	r0, r0, #5
    2600:	01140075 	tsteq	r4, r5, ror r0
    2604:	000a0351 	andeq	r0, sl, r1, asr r3
    2608:	52011404 	andpl	r1, r1, #4, 8	; 0x4000000
    260c:	06489103 	strbeq	r9, [r8], -r3, lsl #2
    2610:	02530114 	subseq	r0, r3, #5
    2614:	15004c91 	strne	r4, [r0, #-3217]	; 0xfffff36f
    2618:	00008f28 	andeq	r8, r0, r8, lsr #30
    261c:	02500114 	subseq	r0, r0, #5
    2620:	00000075 	andeq	r0, r0, r5, ror r0
    2624:	0000d216 	andeq	sp, r0, r6, lsl r2
    2628:	00019400 	andeq	r9, r1, r0, lsl #8
    262c:	005d1700 	subseq	r1, sp, r0, lsl #14
    2630:	03ff0000 	mvnseq	r0, #0, 0
    2634:	06e81800 	strbteq	r1, [r8], r0, lsl #16
    2638:	06e80000 	strbteq	r0, [r8], r0
    263c:	02050000 	andeq	r0, r5, #0, 0
    2640:	00f30005 	rscseq	r0, r3, r5
    2644:	00040000 	andeq	r0, r4, r0
    2648:	00000cd6 	ldrdeq	r0, [r0], -r6
    264c:	059a0104 	ldreq	r0, [sl, #260]	; 0x104
    2650:	2e0c0000 	cdpcs	0, 0, cr0, cr12, cr0, {0}
    2654:	6b000007 	blvs	2678 <__code_start__-0x5988>
    2658:	44000006 	strmi	r0, [r0], #-6
    265c:	3400008f 	strcc	r0, [r0], #-143	; 0xffffff71
    2660:	9f000000 	svcls	0x00000000
    2664:	02000014 	andeq	r0, r0, #20, 0
    2668:	6e690504 	cdpvs	5, 6, cr0, cr9, cr4, {0}
    266c:	04030074 	streq	r0, [r3], #-116	; 0xffffff8c
    2670:	0000cd07 	andeq	ip, r0, r7, lsl #26
    2674:	06010300 	streq	r0, [r1], -r0, lsl #6
    2678:	00000068 	andeq	r0, r0, r8, rrx
    267c:	8b050203 	blhi	142e90 <__bss_end__+0x138020>
    2680:	03000001 	movweq	r0, #1
    2684:	01500504 	cmpeq	r0, r4, lsl #10
    2688:	08030000 	stmdaeq	r3, {}	; <UNPREDICTABLE>
    268c:	00014b05 	andeq	r4, r1, r5, lsl #22
    2690:	08010300 	stmdaeq	r1, {r8, r9}
    2694:	00000066 	andeq	r0, r0, r6, rrx
    2698:	81070203 	tsthi	r7, r3, lsl #4
    269c:	03000000 	movweq	r0, #0
    26a0:	00c80704 	sbceq	r0, r8, r4, lsl #14
    26a4:	08030000 	stmdaeq	r3, {}	; <UNPREDICTABLE>
    26a8:	0000c307 	andeq	ip, r0, r7, lsl #6
    26ac:	00250400 	eoreq	r0, r5, r0, lsl #8
    26b0:	007a0000 	rsbseq	r0, sl, r0
    26b4:	25050000 	strcs	r0, [r5, #-0]
    26b8:	00000000 	andeq	r0, r0, r0
    26bc:	00015906 	andeq	r5, r1, r6, lsl #18
    26c0:	0e1c0200 	cdpeq	2, 1, cr0, cr12, cr0, {0}
    26c4:	00000086 	andeq	r0, r0, r6, lsl #1
    26c8:	006b0407 	rsbeq	r0, fp, r7, lsl #8
    26cc:	25040000 	strcs	r0, [r4, #-0]
    26d0:	9b000000 	blls	26d8 <__code_start__-0x5928>
    26d4:	05000000 	streq	r0, [r0, #-0]
    26d8:	0000009b 	muleq	r0, fp, r0
    26dc:	a8040700 	stmdage	r4, {r8, r9, sl}
    26e0:	03000000 	movweq	r0, #0
    26e4:	006f0801 	rsbeq	r0, pc, r1, lsl #16
    26e8:	a1080000 	mrsge	r0, (UNDEF: 8)
    26ec:	06000000 	streq	r0, [r0], -r0
    26f0:	00000729 	andeq	r0, r0, r9, lsr #14
    26f4:	b90e2102 	stmdblt	lr, {r1, r8, sp}
    26f8:	07000000 	streq	r0, [r0, -r0]
    26fc:	00008c04 	andeq	r8, r0, r4, lsl #24
    2700:	00ad0900 	adceq	r0, sp, r0, lsl #18
    2704:	0c010000 	stceq	0, cr0, [r1], {-0}
    2708:	28030507 	stmdacs	r3, {r0, r1, r2, r8, sl}
    270c:	0a0000aa 	beq	29bc <__code_start__-0x5644>
    2710:	00000720 	andeq	r0, r0, r0, lsr #14
    2714:	25050401 	strcs	r0, [r5, #-1025]	; 0xfffffbff
    2718:	44000000 	strmi	r0, [r0], #-0
    271c:	3400008f 	strcc	r0, [r0], #-143	; 0xffffff71
    2720:	01000000 	mrseq	r0, (UNDEF: 0)
    2724:	00700b9c 			; <UNDEFINED> instruction: 0x00700b9c
    2728:	9b1f0401 	blls	7c3734 <__bss_end__+0x7b88c4>
    272c:	1d000000 	stcne	0, cr0, [r0, #-0]
    2730:	1900000f 	stmdbne	r0, {r0, r1, r2, r3}
    2734:	0000000f 	andeq	r0, r0, pc
    2738:	00014200 	andeq	r4, r1, r0, lsl #4
    273c:	74000400 	strvc	r0, [r0], #-1024	; 0xfffffc00
    2740:	0400000d 	streq	r0, [r0], #-13
    2744:	00059a01 	andeq	r9, r5, r1, lsl #20
    2748:	075b0c00 	ldrbeq	r0, [fp, -r0, lsl #24]
    274c:	066b0000 	strbteq	r0, [fp], -r0
    2750:	8f780000 	svchi	0x00780000
    2754:	005c0000 	subseq	r0, ip, r0
    2758:	156e0000 	strbne	r0, [lr, #-0]!
    275c:	04020000 	streq	r0, [r2], #-0
    2760:	746e6905 	strbtvc	r6, [lr], #-2309	; 0xfffff6fb
    2764:	07040300 	streq	r0, [r4, -r0, lsl #6]
    2768:	000000cd 	andeq	r0, r0, sp, asr #1
    276c:	68060103 	stmdavs	r6, {r0, r1, r8}
    2770:	03000000 	movweq	r0, #0
    2774:	018b0502 	orreq	r0, fp, r2, lsl #10
    2778:	04030000 	streq	r0, [r3], #-0
    277c:	00015005 	andeq	r5, r1, r5
    2780:	05080300 	streq	r0, [r8, #-768]	; 0xfffffd00
    2784:	0000014b 	andeq	r0, r0, fp, asr #2
    2788:	66080103 	strvs	r0, [r8], -r3, lsl #2
    278c:	03000000 	movweq	r0, #0
    2790:	00810702 	addeq	r0, r1, r2, lsl #14
    2794:	04030000 	streq	r0, [r3], #-0
    2798:	0000c807 	andeq	ip, r0, r7, lsl #16
    279c:	07080300 	streq	r0, [r8, -r0, lsl #6]
    27a0:	000000c3 	andeq	r0, r0, r3, asr #1
    27a4:	00002504 	andeq	r2, r0, r4, lsl #10
    27a8:	00007a00 	andeq	r7, r0, r0, lsl #20
    27ac:	00250500 	eoreq	r0, r5, r0, lsl #10
    27b0:	06000000 	streq	r0, [r0], -r0
    27b4:	00000159 	andeq	r0, r0, r9, asr r1
    27b8:	860e1c02 	strhi	r1, [lr], -r2, lsl #24
    27bc:	07000000 	streq	r0, [r0, -r0]
    27c0:	00006b04 	andeq	r6, r0, r4, lsl #22
    27c4:	00250400 	eoreq	r0, r5, r0, lsl #8
    27c8:	009b0000 	addseq	r0, fp, r0
    27cc:	9b050000 	blls	1427d4 <__bss_end__+0x137964>
    27d0:	00000000 	andeq	r0, r0, r0
    27d4:	00a80407 	adceq	r0, r8, r7, lsl #8
    27d8:	01030000 	mrseq	r0, (UNDEF: 3)
    27dc:	00006f08 	andeq	r6, r0, r8, lsl #30
    27e0:	00a10800 	adceq	r0, r1, r0, lsl #16
    27e4:	29060000 	stmdbcs	r6, {}	; <UNPREDICTABLE>
    27e8:	02000007 	andeq	r0, r0, #7, 0
    27ec:	00b90e21 	adcseq	r0, r9, r1, lsr #28
    27f0:	04070000 	streq	r0, [r7], #-0
    27f4:	0000008c 	andeq	r0, r0, ip, lsl #1
    27f8:	00073c09 	andeq	r3, r7, r9, lsl #24
    27fc:	17080100 	strne	r0, [r8, -r0, lsl #2]
    2800:	00000056 	andeq	r0, r0, r6, asr r0
    2804:	aa2c0305 	bge	b03420 <__bss_end__+0xaf85b0>
    2808:	620a0000 	andvs	r0, sl, #0, 0
    280c:	01007469 	tsteq	r0, r9, ror #8
    2810:	002c1109 	eoreq	r1, ip, r9, lsl #2
    2814:	410b0000 	mrsmi	r0, (UNDEF: 11)
    2818:	01000007 	tsteq	r0, r7
    281c:	8fbc0616 	svchi	0x00bc0616
    2820:	00180000 	andseq	r0, r8, r0
    2824:	9c010000 	stcls	0, cr0, [r1], {-0}
    2828:	00000102 	andeq	r0, r0, r2, lsl #2
    282c:	0007560c 	andeq	r5, r7, ip, lsl #12
    2830:	19160100 	ldmdbne	r6, {r8}
    2834:	0000002c 	andeq	r0, r0, ip, lsr #32
    2838:	0d005001 	stceq	0, cr5, [r0, #-4]
    283c:	000000a0 	andeq	r0, r0, r0, lsr #1
    2840:	5d0f1101 	stfpls	f1, [pc, #-4]	; 2844 <__code_start__-0x57bc>
    2844:	a4000000 	strge	r0, [r0], #-0
    2848:	1800008f 	stmdane	r0, {r0, r1, r2, r3, r7}
    284c:	01000000 	mrseq	r0, (UNDEF: 0)
    2850:	00012f9c 	muleq	r1, ip, pc	; <UNPREDICTABLE>
    2854:	8fac0e00 	svchi	0x00ac0e00
    2858:	012f0000 			; <UNDEFINED> instruction: 0x012f0000
    285c:	b40e0000 	strlt	r0, [lr], #-0
    2860:	2f00008f 	svccs	0x0000008f
    2864:	00000001 	andeq	r0, r0, r1
    2868:	00074b0f 	andeq	r4, r7, pc, lsl #22
    286c:	100b0100 	andne	r0, fp, r0, lsl #2
    2870:	00000056 	andeq	r0, r0, r6, asr r0
    2874:	00008f78 	andeq	r8, r0, r8, ror pc
    2878:	0000002c 	andeq	r0, r0, ip, lsr #32
    287c:	d7009c01 	strle	r9, [r0, -r1, lsl #24]
    2880:	0400000a 	streq	r0, [r0], #-10
    2884:	000e6500 	andeq	r6, lr, r0, lsl #10
    2888:	9a010400 	bls	43890 <__bss_end__+0x38a20>
    288c:	0c000005 	stceq	0, cr0, [r0], {5}
    2890:	0000077e 	andeq	r0, r0, lr, ror r7
    2894:	0000066b 	andeq	r0, r0, fp, ror #12
    2898:	00008fd4 	ldrdeq	r8, [r0], -r4
    289c:	00000740 	andeq	r0, r0, r0, asr #14
    28a0:	0000164f 	andeq	r1, r0, pc, asr #12
    28a4:	69050402 	stmdbvs	r5, {r1, sl}
    28a8:	0300746e 	movweq	r7, #1134	; 0x46e
    28ac:	00cd0704 	sbceq	r0, sp, r4, lsl #14
    28b0:	01030000 	mrseq	r0, (UNDEF: 3)
    28b4:	00006806 	andeq	r6, r0, r6, lsl #16
    28b8:	05020300 	streq	r0, [r2, #-768]	; 0xfffffd00
    28bc:	0000018b 	andeq	r0, r0, fp, lsl #3
    28c0:	50050403 	andpl	r0, r5, r3, lsl #8
    28c4:	03000001 	movweq	r0, #1
    28c8:	014b0508 	cmpeq	fp, r8, lsl #10
    28cc:	01030000 	mrseq	r0, (UNDEF: 3)
    28d0:	00006608 	andeq	r6, r0, r8, lsl #12
    28d4:	07020300 	streq	r0, [r2, -r0, lsl #6]
    28d8:	00000081 	andeq	r0, r0, r1, lsl #1
    28dc:	0001a804 	andeq	sl, r1, r4, lsl #16
    28e0:	19340200 	ldmdbne	r4!, {r9}
    28e4:	00000069 	andeq	r0, r0, r9, rrx
    28e8:	c8070403 	stmdagt	r7, {r0, r1, sl}
    28ec:	04000000 	streq	r0, [r0], #-0
    28f0:	00000775 	andeq	r0, r0, r5, ror r7
    28f4:	7c193702 	ldcvc	7, cr3, [r9], {2}
    28f8:	03000000 	movweq	r0, #0
    28fc:	00c30708 	sbceq	r0, r3, r8, lsl #14
    2900:	25050000 	strcs	r0, [r5, #-0]
    2904:	92000000 	andls	r0, r0, #0, 0
    2908:	06000000 	streq	r0, [r0], -r0
    290c:	00000025 	andeq	r0, r0, r5, lsr #32
    2910:	01590700 	cmpeq	r9, r0, lsl #14
    2914:	1c030000 	stcne	0, cr0, [r3], {-0}
    2918:	00009e0e 	andeq	r9, r0, lr, lsl #28
    291c:	83040800 	movwhi	r0, #18432	; 0x4800
    2920:	05000000 	streq	r0, [r0, #-0]
    2924:	00000025 	andeq	r0, r0, r5, lsr #32
    2928:	000000b3 	strheq	r0, [r0], -r3
    292c:	0000b306 	andeq	fp, r0, r6, lsl #6
    2930:	04080000 	streq	r0, [r8], #-0
    2934:	000000c0 	andeq	r0, r0, r0, asr #1
    2938:	6f080103 	svcvs	0x00080103
    293c:	09000000 	stmdbeq	r0, {}	; <UNPREDICTABLE>
    2940:	000000b9 	strheq	r0, [r0], -r9
    2944:	00072907 	andeq	r2, r7, r7, lsl #18
    2948:	0e210300 	cdpeq	3, 2, cr0, cr1, cr0, {0}
    294c:	000000d1 	ldrdeq	r0, [r0], -r1
    2950:	00a40408 	adceq	r0, r4, r8, lsl #8
    2954:	91070000 	mrsls	r0, (UNDEF: 7)
    2958:	04000007 	streq	r0, [r0], #-7
    295c:	00b90d0b 	adcseq	r0, r9, fp, lsl #26
    2960:	e3070000 	movw	r0, #28672	; 0x7000
    2964:	04000007 	streq	r0, [r0], #-7
    2968:	00b90d0c 	adcseq	r0, r9, ip, lsl #26
    296c:	0b070000 	bleq	1c2974 <__bss_end__+0x1b7b04>
    2970:	04000004 	streq	r0, [r0], #-4
    2974:	00b90d0d 	adcseq	r0, r9, sp, lsl #26
    2978:	e5070000 	str	r0, [r7, #-0]
    297c:	04000004 	streq	r0, [r0], #-4
    2980:	00b90d0e 	adcseq	r0, r9, lr, lsl #26
    2984:	1b070000 	blne	1c298c <__bss_end__+0x1b7b1c>
    2988:	04000005 	streq	r0, [r0], #-5
    298c:	00b90d0f 	adcseq	r0, r9, pc, lsl #26
    2990:	6d070000 	stcvs	0, cr0, [r7, #-0]
    2994:	04000004 	streq	r0, [r0], #-4
    2998:	00b90d10 	adcseq	r0, r9, r0, lsl sp
    299c:	13070000 	movwne	r0, #28672	; 0x7000
    29a0:	04000008 	streq	r0, [r0], #-8
    29a4:	00b90d11 	adcseq	r0, r9, r1, lsl sp
    29a8:	ae070000 	cdpge	0, 0, cr0, cr7, cr0, {0}
    29ac:	04000007 	streq	r0, [r0], #-7
    29b0:	00b90d12 	adcseq	r0, r9, r2, lsl sp
    29b4:	f2040000 	vhadd.s8	d0, d4, d0
    29b8:	05000006 	streq	r0, [r0, #-6]
    29bc:	01431b28 	cmpeq	r3, r8, lsr #22
    29c0:	010a0000 	mrseq	r0, (UNDEF: 10)
    29c4:	04000007 	streq	r0, [r0], #-7
    29c8:	015a0006 	cmpeq	sl, r6
    29cc:	0b0b0000 	bleq	2c29d4 <__bss_end__+0x2b7b64>
    29d0:	5a000007 	bpl	29f4 <__code_start__-0x560c>
    29d4:	00000001 	andeq	r0, r0, r1
    29d8:	04040c00 	streq	r0, [r4], #-3072	; 0xfffff400
    29dc:	00000703 	andeq	r0, r0, r3, lsl #14
    29e0:	37186305 	ldrcc	r6, [r8, -r5, lsl #6]
    29e4:	0d000001 	stceq	0, cr0, [r0, #-4]
    29e8:	000006e8 	andeq	r0, r0, r8, ror #13
    29ec:	25058101 	strcs	r8, [r5, #-257]	; 0xfffffeff
    29f0:	5c000000 	stcpl	0, cr0, [r0], {-0}
    29f4:	b8000092 	stmdalt	r0, {r1, r4, r7}
    29f8:	01000004 	tsteq	r0, r4
    29fc:	0007179c 	muleq	r7, ip, r7
    2a00:	75620e00 	strbvc	r0, [r2, #-3584]!	; 0xfffff200
    2a04:	81010066 	tsthi	r1, r6, rrx
    2a08:	00071715 	andeq	r1, r7, r5, lsl r7
    2a0c:	000f4100 	andeq	r4, pc, r0, lsl #2
    2a10:	000f3b00 	andeq	r3, pc, r0, lsl #22
    2a14:	006e0e00 	rsbeq	r0, lr, r0, lsl #28
    2a18:	251e8101 	ldrcs	r8, [lr, #-257]	; 0xfffffeff
    2a1c:	73000000 	movwvc	r0, #0
    2a20:	6d00000f 	stcvs	0, cr0, [r0, #-60]	; 0xffffffc4
    2a24:	0e00000f 	cdpeq	0, 0, cr0, cr0, cr15, {0}
    2a28:	00746d66 	rsbseq	r6, r4, r6, ror #26
    2a2c:	b32d8101 			; <UNDEFINED> instruction: 0xb32d8101
    2a30:	ad000000 	stcge	0, cr0, [r0, #-0]
    2a34:	a100000f 	tstge	r0, pc
    2a38:	0f00000f 	svceq	0x0000000f
    2a3c:	000006e3 	andeq	r0, r0, r3, ror #13
    2a40:	5c3a8101 	ldfpld	f0, [sl], #-4
    2a44:	03000001 	movweq	r0, #1
    2a48:	107dd491 			; <UNDEFINED> instruction: 0x107dd491
    2a4c:	82010070 	andhi	r0, r1, #112, 0	; 0x70
    2a50:	00071708 	andeq	r1, r7, r8, lsl #14
    2a54:	00100b00 	andseq	r0, r0, r0, lsl #22
    2a58:	000ff700 	andeq	pc, pc, r0, lsl #14
    2a5c:	00651000 	rsbeq	r1, r5, r0
    2a60:	17128201 	ldrne	r8, [r2, -r1, lsl #4]
    2a64:	8d000007 	stchi	0, cr0, [r0, #-28]	; 0xffffffe4
    2a68:	89000010 	stmdbhi	r0, {r4}
    2a6c:	10000010 	andne	r0, r0, r0, lsl r0
    2a70:	01003078 	tsteq	r0, r8, ror r0
    2a74:	005d0e83 	subseq	r0, sp, r3, lsl #29
    2a78:	10ba0000 	adcsne	r0, sl, r0
    2a7c:	10b40000 	adcsne	r0, r4, r0
    2a80:	78100000 	ldmdavc	r0, {}	; <UNPREDICTABLE>
    2a84:	83010031 	movwhi	r0, #4145	; 0x1031
    2a88:	00005d11 	andeq	r5, r0, r1, lsl sp
    2a8c:	0010e700 	andseq	lr, r0, r0, lsl #14
    2a90:	0010e300 	andseq	lr, r0, r0, lsl #6
    2a94:	07cc1100 	strbeq	r1, [ip, r0, lsl #2]
    2a98:	86010000 	strhi	r0, [r1], -r0
    2a9c:	0000b311 	andeq	fp, r0, r1, lsl r3
    2aa0:	00110900 	andseq	r0, r1, r0, lsl #18
    2aa4:	00110500 	andseq	r0, r1, r0, lsl #10
    2aa8:	00ab1200 	adceq	r1, fp, r0, lsl #4
    2aac:	072d0000 	streq	r0, [sp, -r0]!
    2ab0:	03050000 	movweq	r0, #20480	; 0x5000
    2ab4:	0000a810 	andeq	sl, r0, r0, lsl r8
    2ab8:	0092c413 	addseq	ip, r2, r3, lsl r4
    2abc:	00040000 	andeq	r0, r4, r0
    2ac0:	00731000 	rsbseq	r1, r3, r0
    2ac4:	170a9101 	strne	r9, [sl, -r1, lsl #2]
    2ac8:	3f000007 	svccc	0x00000007
    2acc:	29000011 	stmdbcs	r0, {r0, r4}
    2ad0:	14000011 	strne	r0, [r0], #-17	; 0xffffffef
    2ad4:	006d756e 	rsbeq	r7, sp, lr, ror #10
    2ad8:	320d9101 	andcc	r9, sp, #1073741824	; 0x40000000
    2adc:	03000007 	movweq	r0, #7
    2ae0:	157dd891 	ldrbne	sp, [sp, #-2193]!	; 0xfffff76f
    2ae4:	00000820 	andeq	r0, r0, r0, lsr #16
    2ae8:	32179101 	andscc	r9, r7, #1073741824	; 0x40000000
    2aec:	03000007 	movweq	r0, #7
    2af0:	117ed891 			; <UNDEFINED> instruction: 0x117ed891
    2af4:	000007a0 	andeq	r0, r0, r0, lsr #15
    2af8:	2c0d9201 	sfmcs	f1, 1, [sp], {1}
    2afc:	c6000000 	strgt	r0, [r0], -r0
    2b00:	c0000011 	andgt	r0, r0, r1, lsl r0
    2b04:	16000011 			; <UNDEFINED> instruction: 0x16000011
    2b08:	0000938c 	andeq	r9, r0, ip, lsl #7
    2b0c:	000001a4 	andeq	r0, r0, r4, lsr #3
    2b10:	00000539 	andeq	r0, r0, r9, lsr r5
    2b14:	00797410 	rsbseq	r7, r9, r0, lsl r4
    2b18:	b31d9e01 	tstlt	sp, #1, 28
    2b1c:	fa000000 	blx	2b24 <__code_start__-0x54dc>
    2b20:	f0000011 			; <UNDEFINED> instruction: 0xf0000011
    2b24:	17000011 	smladne	r0, r1, r0, r0
    2b28:	01007878 	tsteq	r0, r8, ror r8
    2b2c:	00701aa2 	rsbseq	r1, r0, r2, lsr #21
    2b30:	9c180000 	ldcls	0, cr0, [r8], {-0}
    2b34:	92000093 	andls	r0, r0, #147, 0	; 0x93
    2b38:	d500000a 	strle	r0, [r0, #-10]
    2b3c:	19000002 	stmdbne	r0, {r1}
    2b40:	76025001 	strvc	r5, [r2], -r1
    2b44:	51011900 	tstpl	r1, r0, lsl #18
    2b48:	a7040305 	strge	r0, [r4, -r5, lsl #6]
    2b4c:	01190000 	tsteq	r9, r0
    2b50:	00330152 	eorseq	r0, r3, r2, asr r1
    2b54:	0093b418 	addseq	fp, r3, r8, lsl r4
    2b58:	000a9200 	andeq	r9, sl, r0, lsl #4
    2b5c:	0002f700 	andeq	pc, r2, r0, lsl #14
    2b60:	50011900 	andpl	r1, r1, r0, lsl #18
    2b64:	19007602 	stmdbne	r0, {r1, r9, sl, ip, sp, lr}
    2b68:	03055101 	movweq	r5, #20737	; 0x5101
    2b6c:	0000a708 	andeq	sl, r0, r8, lsl #14
    2b70:	01520119 	cmpeq	r2, r9, lsl r1
    2b74:	e8180033 	ldmda	r8, {r0, r1, r4, r5}
    2b78:	9e000093 	mcrls	0, 0, r0, cr0, cr3, {4}
    2b7c:	1400000a 	strne	r0, [r0], #-10
    2b80:	19000003 	stmdbne	r0, {r0, r1}
    2b84:	03055001 	movweq	r5, #20481	; 0x5001
    2b88:	0000a70c 	andeq	sl, r0, ip, lsl #14
    2b8c:	02510119 	subseq	r0, r1, #1073741830	; 0x40000006
    2b90:	18000077 	stmdane	r0, {r0, r1, r2, r4, r5, r6}
    2b94:	000093f4 	strdeq	r9, [r0], -r4
    2b98:	00000a9e 	muleq	r0, lr, sl
    2b9c:	00000331 	andeq	r0, r0, r1, lsr r3
    2ba0:	05500119 	ldrbeq	r0, [r0, #-281]	; 0xfffffee7
    2ba4:	00a71403 	adceq	r1, r7, r3, lsl #8
    2ba8:	51011900 	tstpl	r1, r0, lsl #18
    2bac:	00007a02 	andeq	r7, r0, r2, lsl #20
    2bb0:	00940418 	addseq	r0, r4, r8, lsl r4
    2bb4:	000a9200 	andeq	r9, sl, r0, lsl #4
    2bb8:	00035300 	andeq	r5, r3, r0, lsl #6
    2bbc:	50011900 	andpl	r1, r1, r0, lsl #18
    2bc0:	19007602 	stmdbne	r0, {r1, r9, sl, ip, sp, lr}
    2bc4:	03055101 	movweq	r5, #20737	; 0x5101
    2bc8:	0000a704 	andeq	sl, r0, r4, lsl #14
    2bcc:	01520119 	cmpeq	r2, r9, lsl r1
    2bd0:	1c180033 	ldcne	0, cr0, [r8], {51}	; 0x33
    2bd4:	92000094 	andls	r0, r0, #148, 0	; 0x94
    2bd8:	7500000a 	strvc	r0, [r0, #-10]
    2bdc:	19000003 	stmdbne	r0, {r0, r1}
    2be0:	76025001 	strvc	r5, [r2], -r1
    2be4:	51011900 	tstpl	r1, r0, lsl #18
    2be8:	a7080305 	strge	r0, [r8, -r5, lsl #6]
    2bec:	01190000 	tsteq	r9, r0
    2bf0:	00330152 	eorseq	r0, r3, r2, asr r1
    2bf4:	00944418 	addseq	r4, r4, r8, lsl r4
    2bf8:	00074200 	andeq	r4, r7, r0, lsl #4
    2bfc:	0003a900 	andeq	sl, r3, r0, lsl #18
    2c00:	50011900 	andpl	r1, r1, r0, lsl #18
    2c04:	01193a01 	tsteq	r9, r1, lsl #20
    2c08:	d0910351 	addsle	r0, r1, r1, asr r3
    2c0c:	5201197d 	andpl	r1, r1, #2048000	; 0x1f4000
    2c10:	19800802 	stmibne	r0, {r1, fp}
    2c14:	77025301 	strvc	r5, [r2, -r1, lsl #6]
    2c18:	7d021900 	vstrvc.16	s2, [r2, #-0]	; <UNPREDICTABLE>
    2c1c:	00750200 	rsbseq	r0, r5, r0, lsl #4
    2c20:	047d0219 	ldrbteq	r0, [sp], #-537	; 0xfffffde7
    2c24:	00007602 	andeq	r7, r0, r2, lsl #12
    2c28:	00946418 	addseq	r6, r4, r8, lsl r4
    2c2c:	00074200 	andeq	r4, r7, r0, lsl #4
    2c30:	0003dd00 	andeq	sp, r3, r0, lsl #26
    2c34:	50011900 	andpl	r1, r1, r0, lsl #18
    2c38:	01193a01 	tsteq	r9, r1, lsl #20
    2c3c:	d0910351 	addsle	r0, r1, r1, asr r3
    2c40:	5201197e 	andpl	r1, r1, #2064384	; 0x1f8000
    2c44:	19800802 	stmibne	r0, {r1, fp}
    2c48:	7a025301 	bvc	97854 <__bss_end__+0x8c9e4>
    2c4c:	7d021900 	vstrvc.16	s2, [r2, #-0]	; <UNPREDICTABLE>
    2c50:	00750200 	rsbseq	r0, r5, r0, lsl #4
    2c54:	047d0219 	ldrbteq	r0, [sp], #-537	; 0xfffffde7
    2c58:	00007602 	andeq	r7, r0, r2, lsl #12
    2c5c:	00947018 	addseq	r7, r4, r8, lsl r0
    2c60:	000aaa00 	andeq	sl, sl, r0, lsl #20
    2c64:	0003fb00 	andeq	pc, r3, r0, lsl #22
    2c68:	50011900 	andpl	r1, r1, r0, lsl #18
    2c6c:	7dd09103 	ldfvcp	f1, [r0, #12]
    2c70:	05510119 	ldrbeq	r0, [r1, #-281]	; 0xfffffee7
    2c74:	00a58c03 	adceq	r8, r5, r3, lsl #24
    2c78:	84180000 	ldrhi	r0, [r8], #-0
    2c7c:	b6000094 			; <UNDEFINED> instruction: 0xb6000094
    2c80:	1700000a 	strne	r0, [r0, -sl]
    2c84:	19000004 	stmdbne	r0, {r2}
    2c88:	91035001 	tstls	r3, r1
    2c8c:	01197dd0 			; <UNDEFINED> instruction: 0x01197dd0
    2c90:	d0910351 	addsle	r0, r1, r1, asr r3
    2c94:	a818007e 	ldmdage	r8, {r1, r2, r3, r4, r5, r6}
    2c98:	9e000094 	mcrls	0, 0, r0, cr0, cr4, {4}
    2c9c:	5000000a 	andpl	r0, r0, sl
    2ca0:	19000004 	stmdbne	r0, {r2}
    2ca4:	03055001 	movweq	r5, #20481	; 0x5001
    2ca8:	0000a0e0 	andeq	sl, r0, r0, ror #1
    2cac:	05510119 	ldrbeq	r0, [r1, #-281]	; 0xfffffee7
    2cb0:	00a6b803 	adceq	fp, r6, r3, lsl #16
    2cb4:	52011900 	andpl	r1, r1, #0, 18
    2cb8:	a8100305 	ldmdage	r0, {r0, r2, r8, r9}
    2cbc:	01190000 	tsteq	r9, r0
    2cc0:	9f080253 	svcls	0x00080253
    2cc4:	007d0219 	rsbseq	r0, sp, r9, lsl r2
    2cc8:	a71c0305 	ldrge	r0, [ip, -r5, lsl #6]
    2ccc:	1a000000 	bne	2cd4 <__code_start__-0x532c>
    2cd0:	000094ac 	andeq	r9, r0, ip, lsr #9
    2cd4:	00000ac2 	andeq	r0, r0, r2, asr #21
    2cd8:	0094cc18 	addseq	ip, r4, r8, lsl ip
    2cdc:	00074200 	andeq	r4, r7, r0, lsl #4
    2ce0:	00048d00 	andeq	r8, r4, r0, lsl #26
    2ce4:	50011900 	andpl	r1, r1, r0, lsl #18
    2ce8:	01194001 	tsteq	r9, r1
    2cec:	d0910351 	addsle	r0, r1, r1, asr r3
    2cf0:	5201197d 	andpl	r1, r1, #2048000	; 0x1f4000
    2cf4:	19800802 	stmibne	r0, {r1, fp}
    2cf8:	77025301 	strvc	r5, [r2, -r1, lsl #6]
    2cfc:	7d021900 	vstrvc.16	s2, [r2, #-0]	; <UNPREDICTABLE>
    2d00:	00750200 	rsbseq	r0, r5, r0, lsl #4
    2d04:	047d0219 	ldrbteq	r0, [sp], #-537	; 0xfffffde7
    2d08:	00007602 	andeq	r7, r0, r2, lsl #12
    2d0c:	0094ec18 	addseq	lr, r4, r8, lsl ip
    2d10:	00074200 	andeq	r4, r7, r0, lsl #4
    2d14:	0004c100 	andeq	ip, r4, r0, lsl #2
    2d18:	50011900 	andpl	r1, r1, r0, lsl #18
    2d1c:	01194001 	tsteq	r9, r1
    2d20:	d0910351 	addsle	r0, r1, r1, asr r3
    2d24:	5201197e 	andpl	r1, r1, #2064384	; 0x1f8000
    2d28:	19800802 	stmibne	r0, {r1, fp}
    2d2c:	7a025301 	bvc	97938 <__bss_end__+0x8cac8>
    2d30:	7d021900 	vstrvc.16	s2, [r2, #-0]	; <UNPREDICTABLE>
    2d34:	00750200 	rsbseq	r0, r5, r0, lsl #4
    2d38:	047d0219 	ldrbteq	r0, [sp], #-537	; 0xfffffde7
    2d3c:	00007602 	andeq	r7, r0, r2, lsl #12
    2d40:	0094f818 	addseq	pc, r4, r8, lsl r8	; <UNPREDICTABLE>
    2d44:	000ace00 	andeq	ip, sl, r0, lsl #28
    2d48:	0004dd00 	andeq	sp, r4, r0, lsl #26
    2d4c:	50011900 	andpl	r1, r1, r0, lsl #18
    2d50:	7dd09103 	ldfvcp	f1, [r0, #12]
    2d54:	03510119 	cmpeq	r1, #1073741830	; 0x40000006
    2d58:	007ed291 			; <UNDEFINED> instruction: 0x007ed291
    2d5c:	00950c18 	addseq	r0, r5, r8, lsl ip
    2d60:	000ace00 	andeq	ip, sl, r0, lsl #28
    2d64:	0004f900 	andeq	pc, r4, r0, lsl #18
    2d68:	50011900 	andpl	r1, r1, r0, lsl #18
    2d6c:	7dd09103 	ldfvcp	f1, [r0, #12]
    2d70:	03510119 	cmpeq	r1, #1073741830	; 0x40000006
    2d74:	007ed091 			; <UNDEFINED> instruction: 0x007ed091
    2d78:	00952c18 	addseq	r2, r5, r8, lsl ip
    2d7c:	000a9e00 	andeq	r9, sl, r0, lsl #28
    2d80:	00052f00 	andeq	r2, r5, r0, lsl #30
    2d84:	50011900 	andpl	r1, r1, r0, lsl #18
    2d88:	a7580305 	ldrbge	r0, [r8, -r5, lsl #6]
    2d8c:	01190000 	tsteq	r9, r0
    2d90:	b8030551 	stmdalt	r3, {r0, r4, r6, r8, sl}
    2d94:	190000a6 	stmdbne	r0, {r1, r2, r5, r7}
    2d98:	03055201 	movweq	r5, #20993	; 0x5201
    2d9c:	0000a810 	andeq	sl, r0, r0, lsl r8
    2da0:	02530119 	subseq	r0, r3, #1073741830	; 0x40000006
    2da4:	0219b608 	andseq	fp, r9, #8, 12	; 0x800000
    2da8:	7602007d 			; <UNDEFINED> instruction: 0x7602007d
    2dac:	301a0000 	andscc	r0, sl, r0
    2db0:	c2000095 	andgt	r0, r0, #149, 0	; 0x95
    2db4:	0000000a 	andeq	r0, r0, sl
    2db8:	0092dc18 	addseq	sp, r2, r8, lsl ip
    2dbc:	0009c000 	andeq	ip, r9, r0
    2dc0:	00054d00 	andeq	r4, r5, r0, lsl #26
    2dc4:	50011900 	andpl	r1, r1, r0, lsl #18
    2dc8:	00007702 	andeq	r7, r0, r2, lsl #14
    2dcc:	00938818 	addseq	r8, r3, r8, lsl r8
    2dd0:	000a9e00 	andeq	r9, sl, r0, lsl #28
    2dd4:	00058600 	andeq	r8, r5, r0, lsl #12
    2dd8:	50011900 	andpl	r1, r1, r0, lsl #18
    2ddc:	a0e00305 	rscge	r0, r0, r5, lsl #6
    2de0:	01190000 	tsteq	r9, r0
    2de4:	b8030551 	stmdalt	r3, {r0, r4, r6, r8, sl}
    2de8:	190000a6 	stmdbne	r0, {r1, r2, r5, r7}
    2dec:	03055201 	movweq	r5, #20993	; 0x5201
    2df0:	0000a810 	andeq	sl, r0, r0, lsl r8
    2df4:	02530119 	subseq	r0, r3, #1073741830	; 0x40000006
    2df8:	02199808 	andseq	r9, r9, #8, 16	; 0x80000
    2dfc:	0305007d 	movweq	r0, #20605	; 0x507d
    2e00:	0000a6f8 	strdeq	sl, [r0], -r8
    2e04:	938c1a00 	orrls	r1, ip, #0, 20
    2e08:	0ac20000 	beq	ff082e10 <__bss_end__+0xff077fa0>
    2e0c:	44180000 	ldrmi	r0, [r8], #-0
    2e10:	9e000095 	mcrls	0, 0, r0, cr0, cr5, {4}
    2e14:	be00000a 	cdplt	0, 0, cr0, cr0, cr10, {0}
    2e18:	19000005 	stmdbne	r0, {r0, r2}
    2e1c:	03055001 	movweq	r5, #20481	; 0x5001
    2e20:	0000a780 	andeq	sl, r0, r0, lsl #15
    2e24:	05510119 	ldrbeq	r0, [r1, #-281]	; 0xfffffee7
    2e28:	00a6b803 	adceq	fp, r6, r3, lsl #16
    2e2c:	52011900 	andpl	r1, r1, #0, 18
    2e30:	a8100305 	ldmdage	r0, {r0, r2, r8, r9}
    2e34:	01190000 	tsteq	r9, r0
    2e38:	be080253 	mcrlt	2, 0, r0, cr8, cr3, {2}
    2e3c:	95481a00 	strbls	r1, [r8, #-2560]	; 0xfffff600
    2e40:	0ac20000 	beq	ff082e48 <__bss_end__+0xff077fd8>
    2e44:	74180000 	ldrvc	r0, [r8], #-0
    2e48:	42000095 	andmi	r0, r0, #149, 0	; 0x95
    2e4c:	f4000007 	vst4.8	{d0-d3}, [r0], r7
    2e50:	19000005 	stmdbne	r0, {r0, r2}
    2e54:	3a015001 	bcc	56e60 <__bss_end__+0x4bff0>
    2e58:	03510119 	cmpeq	r1, #1073741830	; 0x40000006
    2e5c:	197dd091 	ldmdbne	sp!, {r0, r4, r7, ip, lr, pc}^
    2e60:	08025201 	stmdaeq	r2, {r0, r9, ip, lr}
    2e64:	7d021980 	vstrvc.16	s2, [r2, #-256]	; 0xffffff00	; <UNPREDICTABLE>
    2e68:	00750200 	rsbseq	r0, r5, r0, lsl #4
    2e6c:	047d0219 	ldrbteq	r0, [sp], #-537	; 0xfffffde7
    2e70:	18003101 	stmdane	r0, {r0, r8, ip, sp}
    2e74:	000095ac 	andeq	r9, r0, ip, lsr #11
    2e78:	00000742 	andeq	r0, r0, r2, asr #14
    2e7c:	00000621 	andeq	r0, r0, r1, lsr #12
    2e80:	01500119 	cmpeq	r0, r9, lsl r1
    2e84:	5101193a 	tstpl	r1, sl, lsr r9
    2e88:	7dd09103 	ldfvcp	f1, [r0, #12]
    2e8c:	02520119 	subseq	r0, r2, #1073741830	; 0x40000006
    2e90:	02198008 	andseq	r8, r9, #8, 0
    2e94:	7502007d 	strvc	r0, [r2, #-125]	; 0xffffff83
    2e98:	7d021900 	vstrvc.16	s2, [r2, #-0]	; <UNPREDICTABLE>
    2e9c:	00300104 	eorseq	r0, r0, r4, lsl #2
    2ea0:	0095e018 	addseq	lr, r5, r8, lsl r0
    2ea4:	00074200 	andeq	r4, r7, r0, lsl #4
    2ea8:	00064e00 	andeq	r4, r6, r0, lsl #28
    2eac:	50011900 	andpl	r1, r1, r0, lsl #18
    2eb0:	01194001 	tsteq	r9, r1
    2eb4:	d0910351 	addsle	r0, r1, r1, asr r3
    2eb8:	5201197d 	andpl	r1, r1, #2048000	; 0x1f4000
    2ebc:	19800802 	stmibne	r0, {r1, fp}
    2ec0:	02007d02 	andeq	r7, r0, #128	; 0x80
    2ec4:	02190075 	andseq	r0, r9, #117, 0	; 0x75
    2ec8:	3001047d 	andcc	r0, r1, sp, ror r4
    2ecc:	96141800 	ldrls	r1, [r4], -r0, lsl #16
    2ed0:	07420000 	strbeq	r0, [r2, -r0]
    2ed4:	067b0000 	ldrbteq	r0, [fp], -r0
    2ed8:	01190000 	tsteq	r9, r0
    2edc:	19320150 	ldmdbne	r2!, {r4, r6, r8}
    2ee0:	91035101 	tstls	r3, r1, lsl #2
    2ee4:	01197dd0 			; <UNDEFINED> instruction: 0x01197dd0
    2ee8:	80080252 	andhi	r0, r8, r2, asr r2
    2eec:	007d0219 	rsbseq	r0, sp, r9, lsl r2
    2ef0:	19007502 	stmdbne	r0, {r1, r8, sl, ip, sp, lr}
    2ef4:	01047d02 	tsteq	r4, r2, lsl #26
    2ef8:	5c180030 	ldcpl	0, cr0, [r8], {48}	; 0x30
    2efc:	42000096 	andmi	r0, r0, #150, 0	; 0x96
    2f00:	a8000007 	stmdage	r0, {r0, r1, r2}
    2f04:	19000006 	stmdbne	r0, {r1, r2}
    2f08:	38015001 	stmdacc	r1, {r0, ip, lr}
    2f0c:	03510119 	cmpeq	r1, #1073741830	; 0x40000006
    2f10:	197dd091 	ldmdbne	sp!, {r0, r4, r7, ip, lr, pc}^
    2f14:	08025201 	stmdaeq	r2, {r0, r9, ip, lr}
    2f18:	7d021980 	vstrvc.16	s2, [r2, #-256]	; 0xffffff00	; <UNPREDICTABLE>
    2f1c:	00750200 	rsbseq	r0, r5, r0, lsl #4
    2f20:	047d0219 	ldrbteq	r0, [sp], #-537	; 0xfffffde7
    2f24:	18003001 	stmdane	r0, {r0, ip, sp}
    2f28:	0000967c 	andeq	r9, r0, ip, ror r6
    2f2c:	00000a9e 	muleq	r0, lr, sl
    2f30:	000006cb 	andeq	r0, r0, fp, asr #13
    2f34:	05500119 	ldrbeq	r0, [r0, #-281]	; 0xfffffee7
    2f38:	00a7a803 	adceq	sl, r7, r3, lsl #16
    2f3c:	51011900 	tstpl	r1, r0, lsl #18
    2f40:	19007a02 	stmdbne	r0, {r1, r9, fp, ip, sp, lr}
    2f44:	7a025201 	bvc	97750 <__bss_end__+0x8c8e0>
    2f48:	8c1b0000 	ldchi	0, cr0, [fp], {-0}
    2f4c:	dd000096 	stcle	0, cr0, [r0, #-600]	; 0xfffffda8
    2f50:	19000006 	stmdbne	r0, {r1, r2}
    2f54:	91045001 	tstls	r4, r1
    2f58:	00067dc8 	andeq	r7, r6, r8, asr #27
    2f5c:	0096a018 	addseq	sl, r6, r8, lsl r0
    2f60:	000a9e00 	andeq	r9, sl, r0, lsl #28
    2f64:	00070c00 	andeq	r0, r7, r0, lsl #24
    2f68:	50011900 	andpl	r1, r1, r0, lsl #18
    2f6c:	a7d80305 	ldrbge	r0, [r8, r5, lsl #6]
    2f70:	01190000 	tsteq	r9, r0
    2f74:	b8030551 	stmdalt	r3, {r0, r4, r6, r8, sl}
    2f78:	190000a6 	stmdbne	r0, {r1, r2, r5, r7}
    2f7c:	03055201 	movweq	r5, #20993	; 0x5201
    2f80:	0000a810 	andeq	sl, r0, r0, lsl r8
    2f84:	02530119 	subseq	r0, r3, #1073741830	; 0x40000006
    2f88:	1a00e208 	bne	3b7b0 <__bss_end__+0x30940>
    2f8c:	000096a4 	andeq	r9, r0, r4, lsr #13
    2f90:	00000ac2 	andeq	r0, r0, r2, asr #21
    2f94:	04080000 	streq	r0, [r8], #-0
    2f98:	000000b9 	strheq	r0, [r0], -r9
    2f9c:	0000c01c 	andeq	ip, r0, ip, lsl r0
    2fa0:	00072d00 	andeq	r2, r7, r0, lsl #26
    2fa4:	002c1d00 	eoreq	r1, ip, r0, lsl #26
    2fa8:	00090000 	andeq	r0, r9, r0
    2fac:	00071d09 	andeq	r1, r7, r9, lsl #26
    2fb0:	00b91c00 	adcseq	r1, r9, r0, lsl #24
    2fb4:	07420000 	strbeq	r0, [r2, -r0]
    2fb8:	2c1d0000 	ldccs	0, cr0, [sp], {-0}
    2fbc:	7f000000 	svcvc	0x00000000
    2fc0:	07f01e00 	ldrbeq	r1, [r0, r0, lsl #28]!
    2fc4:	49010000 	stmdbmi	r1, {}	; <UNPREDICTABLE>
    2fc8:	00071701 	andeq	r1, r7, r1, lsl #14
    2fcc:	00904400 	addseq	r4, r0, r0, lsl #8
    2fd0:	0001b400 	andeq	fp, r1, r0, lsl #8
    2fd4:	ab9c0100 	blge	fe7033dc <__bss_end__+0xfe6f856c>
    2fd8:	1f000008 	svcne	0x00000008
    2fdc:	0000057d 	andeq	r0, r0, sp, ror r5
    2fe0:	2c0f4901 			; <UNDEFINED> instruction: 0x2c0f4901
    2fe4:	43000000 	movwmi	r0, #0
    2fe8:	3d000012 	stccc	0, cr0, [r0, #-72]	; 0xffffffb8
    2fec:	0e000012 	mcreq	0, 0, r0, cr0, cr2, {0}
    2ff0:	00747364 	rsbseq	r7, r4, r4, ror #6
    2ff4:	171b4901 	ldrne	r4, [fp, -r1, lsl #18]
    2ff8:	81000007 	tsthi	r0, r7
    2ffc:	71000012 	tstvc	r0, r2, lsl r0
    3000:	0e000012 	mcreq	0, 0, r0, cr0, cr2, {0}
    3004:	4901006e 	stmdbmi	r1, {r1, r2, r3, r5, r6}
    3008:	00002524 	andeq	r2, r0, r4, lsr #10
    300c:	0012e500 	andseq	lr, r2, r0, lsl #10
    3010:	0012e100 	andseq	lr, r2, r0, lsl #2
    3014:	61760e00 	cmnvs	r6, r0, lsl #28
    3018:	4901006c 	stmdbmi	r1, {r2, r3, r5, r6}
    301c:	0000252b 	andeq	r2, r0, fp, lsr #10
    3020:	00130f00 	andseq	r0, r3, r0, lsl #30
    3024:	00130300 	andseq	r0, r3, r0, lsl #6
    3028:	07a01f00 	streq	r1, [r0, r0, lsl #30]!
    302c:	49010000 	stmdbmi	r1, {}	; <UNPREDICTABLE>
    3030:	00002534 	andeq	r2, r0, r4, lsr r5
    3034:	00136500 	andseq	r6, r3, r0, lsl #10
    3038:	00135f00 	andseq	r5, r3, r0, lsl #30
    303c:	082d0f00 	stmdaeq	sp!, {r8, r9, sl, fp}
    3040:	49010000 	stmdbmi	r1, {}	; <UNPREDICTABLE>
    3044:	0000253f 	andeq	r2, r0, pc, lsr r5
    3048:	04910200 	ldreq	r0, [r1], #512	; 0x200
    304c:	66756214 			; <UNDEFINED> instruction: 0x66756214
    3050:	074e0100 	strbeq	r0, [lr, -r0, lsl #2]
    3054:	000008ab 	andeq	r0, r0, fp, lsr #17
    3058:	7fa89103 	svcvc	0x00a89103
    305c:	01007010 	tsteq	r0, r0, lsl r0
    3060:	0717114e 	ldreq	r1, [r7, -lr, asr #2]
    3064:	13af0000 			; <UNDEFINED> instruction: 0x13af0000
    3068:	138f0000 	orrne	r0, pc, #0, 0
    306c:	75100000 	ldrvc	r0, [r0, #-0]
    3070:	0b4f0100 	bleq	13c3478 <__bss_end__+0x13b8608>
    3074:	0000002c 	andeq	r0, r0, ip, lsr #32
    3078:	00001495 	muleq	r0, r5, r4
    307c:	00001481 	andeq	r1, r0, r1, lsl #9
    3080:	0000ab12 	andeq	sl, r0, r2, lsl fp
    3084:	0008cb00 	andeq	ip, r8, r0, lsl #22
    3088:	f8030500 			; <UNDEFINED> instruction: 0xf8030500
    308c:	160000a7 	strne	r0, [r0], -r7, lsr #1
    3090:	000090b0 	strheq	r9, [r0], -r0
    3094:	00000078 	andeq	r0, r0, r8, ror r0
    3098:	00000832 	andeq	r0, r0, r2, lsr r8
    309c:	0007dd11 	andeq	sp, r7, r1, lsl sp
    30a0:	0d540100 	ldfeqe	f0, [r4, #-0]
    30a4:	0000002c 	andeq	r0, r0, ip, lsr #32
    30a8:	00001516 	andeq	r1, r0, r6, lsl r5
    30ac:	0000150e 	andeq	r1, r0, lr, lsl #10
    30b0:	91681800 	cmnls	r8, r0, lsl #16
    30b4:	095d0000 	ldmdbeq	sp, {}^	; <UNPREDICTABLE>
    30b8:	08470000 	stmdaeq	r7, {}^	; <UNPREDICTABLE>
    30bc:	01190000 	tsteq	r9, r0
    30c0:	a0910351 	addsge	r0, r1, r1, asr r3
    30c4:	7c18007f 	ldcvc	0, cr0, [r8], {127}	; 0x7f
    30c8:	d0000091 	mulle	r0, r1, r0
    30cc:	68000008 	stmdavs	r0, {r3}
    30d0:	19000008 	stmdbne	r0, {r3}
    30d4:	75025001 	strvc	r5, [r2, #-1]
    30d8:	51011900 	tstpl	r1, r0, lsl #18
    30dc:	19007402 	stmdbne	r0, {r1, sl, ip, sp, lr}
    30e0:	91035301 	tstls	r3, r1, lsl #6
    30e4:	18007fa0 	stmdane	r0, {r5, r7, r8, r9, sl, fp, ip, sp, lr}
    30e8:	000091d4 	ldrdeq	r9, [r0], -r4
    30ec:	00000a9e 	muleq	r0, lr, sl
    30f0:	000008a1 	andeq	r0, r0, r1, lsr #17
    30f4:	05500119 	ldrbeq	r0, [r0, #-281]	; 0xfffffee7
    30f8:	00a0e003 	adceq	lr, r0, r3
    30fc:	51011900 	tstpl	r1, r0, lsl #18
    3100:	a6b80305 	ldrtge	r0, [r8], r5, lsl #6
    3104:	01190000 	tsteq	r9, r0
    3108:	f8030552 			; <UNDEFINED> instruction: 0xf8030552
    310c:	190000a7 	stmdbne	r0, {r0, r1, r2, r5, r7}
    3110:	08025301 	stmdaeq	r2, {r0, r8, r9, ip, lr}
    3114:	7d021979 	vstrvc.16	s2, [r2, #-242]	; 0xffffff0e	; <UNPREDICTABLE>
    3118:	8c030500 	cfstr32hi	mvfx0, [r3], {-0}
    311c:	000000a5 	andeq	r0, r0, r5, lsr #1
    3120:	0091d81a 	addseq	sp, r1, sl, lsl r8
    3124:	000ac200 	andeq	ip, sl, r0, lsl #4
    3128:	b91c0000 	ldmdblt	ip, {}	; <UNPREDICTABLE>
    312c:	bb000000 	bllt	3134 <__code_start__-0x4ecc>
    3130:	1d000008 	stcne	0, cr0, [r0, #-32]	; 0xffffffe0
    3134:	0000002c 	andeq	r0, r0, ip, lsr #32
    3138:	c01c003f 	andsgt	r0, ip, pc, lsr r0
    313c:	cb000000 	blgt	3144 <__code_start__-0x4ebc>
    3140:	1d000008 	stcne	0, cr0, [r0, #-32]	; 0xffffffe0
    3144:	0000002c 	andeq	r0, r0, ip, lsr #32
    3148:	bb090004 	bllt	243160 <__bss_end__+0x2382f0>
    314c:	1e000008 	cdpne	0, 0, cr0, cr0, cr8, {0}
    3150:	000007fd 	strdeq	r0, [r0], -sp
    3154:	170e3801 	strne	r3, [lr, -r1, lsl #16]
    3158:	0c000007 	stceq	0, cr0, [r0], {7}
    315c:	38000090 	stmdacc	r0, {r4, r7}
    3160:	01000000 	mrseq	r0, (UNDEF: 0)
    3164:	00095d9c 	muleq	r9, ip, sp
    3168:	73640e00 	cmnvc	r4, #0, 28
    316c:	38010074 	stmdacc	r1, {r2, r4, r5, r6}
    3170:	0007171c 	andeq	r1, r7, ip, lsl r7
    3174:	00155700 	andseq	r5, r5, r0, lsl #14
    3178:	00154d00 	andseq	r4, r5, r0, lsl #26
    317c:	006e0e00 	rsbeq	r0, lr, r0, lsl #28
    3180:	25253801 	strcs	r3, [r5, #-2049]!	; 0xfffff7ff
    3184:	9e000000 	cdpls	0, 0, cr0, cr0, cr0, {0}
    3188:	9a000015 	bls	31e4 <__code_start__-0x4e1c>
    318c:	0e000015 	mcreq	0, 0, r0, cr0, cr5, {0}
    3190:	38010070 	stmdacc	r1, {r4, r5, r6}
    3194:	0007172e 	andeq	r1, r7, lr, lsr #14
    3198:	0015c700 	andseq	ip, r5, r0, lsl #14
    319c:	0015bf00 	andseq	fp, r5, r0, lsl #30
    31a0:	03e41f00 	mvneq	r1, #0, 30
    31a4:	38010000 	stmdacc	r1, {}	; <UNPREDICTABLE>
    31a8:	00071737 	andeq	r1, r7, r7, lsr r7
    31ac:	00160100 	andseq	r0, r6, r0, lsl #2
    31b0:	0015fd00 	andseq	pc, r5, r0, lsl #26
    31b4:	656c1000 	strbvs	r1, [ip, #-0]!
    31b8:	3a01006e 	bcc	43378 <__bss_end__+0x38508>
    31bc:	00002506 	andeq	r2, r0, r6, lsl #10
    31c0:	00162700 	andseq	r2, r6, r0, lsl #14
    31c4:	00161f00 	andseq	r1, r6, r0, lsl #30
    31c8:	00731000 	rsbseq	r1, r3, r0
    31cc:	17083e01 	strne	r3, [r8, -r1, lsl #28]
    31d0:	75000007 	strvc	r0, [r0, #-7]
    31d4:	73000016 	movwvc	r0, #22
    31d8:	00000016 	andeq	r0, r0, r6, lsl r0
    31dc:	64617020 	strbtvs	r7, [r1], #-32	; 0xffffffe0
    31e0:	0e2e0100 	sufeqe	f0, f6, f0
    31e4:	00000717 	andeq	r0, r0, r7, lsl r7
    31e8:	00008fe8 	andeq	r8, r0, r8, ror #31
    31ec:	00000024 	andeq	r0, r0, r4, lsr #32
    31f0:	09c09c01 	stmibeq	r0, {r0, sl, fp, ip, pc}^
    31f4:	700e0000 	andvc	r0, lr, r0
    31f8:	182e0100 	stmdane	lr!, {r8}
    31fc:	00000717 	andeq	r0, r0, r7, lsl r7
    3200:	0000168e 	andeq	r1, r0, lr, lsl #13
    3204:	00001688 	andeq	r1, r0, r8, lsl #13
    3208:	00057d1f 	andeq	r7, r5, pc, lsl sp
    320c:	222e0100 	eorcs	r0, lr, #0
    3210:	00000717 	andeq	r0, r0, r7, lsl r7
    3214:	000016bd 			; <UNDEFINED> instruction: 0x000016bd
    3218:	000016b9 			; <UNDEFINED> instruction: 0x000016b9
    321c:	0007a00f 	andeq	sl, r7, pc
    3220:	2c2e0100 	stfcss	f0, [lr], #-0
    3224:	00000025 	andeq	r0, r0, r5, lsr #32
    3228:	6c105201 	lfmvs	f5, 4, [r0], {1}
    322c:	01006e65 	tsteq	r0, r5, ror #28
    3230:	0025062f 	eoreq	r0, r5, pc, lsr #12
    3234:	16e00000 	strbtne	r0, [r0], r0
    3238:	16de0000 	ldrbne	r0, [lr], r0
    323c:	1e000000 	cdpne	0, 0, cr0, cr0, cr0, {0}
    3240:	0000076d 	andeq	r0, r0, sp, ror #14
    3244:	250c2701 	strcs	r2, [ip, #-1793]	; 0xfffff8ff
    3248:	d4000000 	strle	r0, [r0], #-0
    324c:	1400008f 	strne	r0, [r0], #-143	; 0xffffff71
    3250:	01000000 	mrseq	r0, (UNDEF: 0)
    3254:	0009ed9c 	muleq	r9, ip, sp
    3258:	00630e00 	rsbeq	r0, r3, r0, lsl #28
    325c:	25182701 	ldrcs	r2, [r8, #-1793]	; 0xfffff8ff
    3260:	f9000000 			; <UNDEFINED> instruction: 0xf9000000
    3264:	f3000016 	vqadd.u8	d0, d0, d6
    3268:	00000016 	andeq	r0, r0, r6, lsl r0
    326c:	0007bd21 	andeq	fp, r7, r1, lsr #26
    3270:	061f0100 	ldreq	r0, [pc], -r0, lsl #2
    3274:	000091f8 	strdeq	r9, [r0], -r8
    3278:	00000064 	andeq	r0, r0, r4, rrx
    327c:	0a7d9c01 	beq	1f6a288 <__bss_end__+0x1f5f418>
    3280:	a61f0000 	ldrge	r0, [pc], -r0
    3284:	01000007 	tsteq	r0, r7
    3288:	009e1b1f 	addseq	r1, lr, pc, lsl fp
    328c:	172b0000 	strne	r0, [fp, -r0]!
    3290:	17270000 	strne	r0, [r7, -r0]!
    3294:	f51f0000 			; <UNDEFINED> instruction: 0xf51f0000
    3298:	01000007 	tsteq	r0, r7
    329c:	00d1301f 	sbcseq	r3, r1, pc, lsl r0
    32a0:	17500000 	ldrbne	r0, [r0, -r0]
    32a4:	174c0000 	strbne	r0, [ip, -r0]
    32a8:	ab120000 	blge	4832b0 <__bss_end__+0x478440>
    32ac:	8d000000 	stchi	0, cr0, [r0, #-0]
    32b0:	0500000a 	streq	r0, [r0, #-10]
    32b4:	00a80003 	adceq	r0, r8, r3
    32b8:	92401800 	subls	r1, r0, #0, 16
    32bc:	0a9e0000 	beq	fe7832c4 <__bss_end__+0xfe778454>
    32c0:	0a730000 	beq	1cc32c8 <__bss_end__+0x1cb8458>
    32c4:	01190000 	tsteq	r9, r0
    32c8:	e0030550 	and	r0, r3, r0, asr r5
    32cc:	190000a0 	stmdbne	r0, {r5, r7}
    32d0:	03055101 	movweq	r5, #20737	; 0x5101
    32d4:	0000a6b8 			; <UNDEFINED> instruction: 0x0000a6b8
    32d8:	05520119 	ldrbeq	r0, [r2, #-281]	; 0xfffffee7
    32dc:	00a80003 	adceq	r0, r8, r3
    32e0:	53011900 	movwpl	r1, #6400	; 0x1900
    32e4:	19200802 	stmdbne	r0!, {r1, fp}
    32e8:	05007d02 	streq	r7, [r0, #-3330]	; 0xfffff2fe
    32ec:	00a6f003 	adceq	pc, r6, r3
    32f0:	441a0000 	ldrmi	r0, [sl], #-0
    32f4:	c2000092 	andgt	r0, r0, #146, 0	; 0x92
    32f8:	0000000a 	andeq	r0, r0, sl
    32fc:	0000c01c 	andeq	ip, r0, ip, lsl r0
    3300:	000a8d00 	andeq	r8, sl, r0, lsl #26
    3304:	002c1d00 	eoreq	r1, ip, r0, lsl #26
    3308:	000e0000 	andeq	r0, lr, r0
    330c:	000a7d09 	andeq	r7, sl, r9, lsl #26
    3310:	08252200 	stmdaeq	r5!, {r9, sp}
    3314:	08250000 	stmdaeq	r5!, {}	; <UNPREDICTABLE>
    3318:	f0030000 			; <UNDEFINED> instruction: 0xf0030000
    331c:	06eb2205 	strbteq	r2, [fp], r5, lsl #4
    3320:	06eb0000 	strbteq	r0, [fp], r0
    3324:	28030000 	stmdacs	r3, {}	; <UNPREDICTABLE>
    3328:	080c2206 	stmdaeq	ip, {r1, r2, r9, sp}
    332c:	080c0000 	stmdaeq	ip, {}	; <UNPREDICTABLE>
    3330:	ef030000 	svc	0x00030000
    3334:	07d62205 	ldrbeq	r2, [r6, r5, lsl #4]
    3338:	07d60000 	ldrbeq	r0, [r6, r0]
    333c:	f2030000 	vhadd.s8	d0, d3, d0
    3340:	00742207 	rsbseq	r2, r4, r7, lsl #4
    3344:	00740000 	rsbseq	r0, r4, r0
    3348:	6e030000 	cdpvs	0, 0, cr0, cr3, cr0, {0}
    334c:	08052206 	stmdaeq	r5, {r1, r2, r9, sp}
    3350:	08050000 	stmdaeq	r5, {}	; <UNPREDICTABLE>
    3354:	f3030000 	vhadd.u8	d0, d3, d0
    3358:	012f0007 			; <UNDEFINED> instruction: 0x012f0007
    335c:	00040000 	andeq	r0, r4, r0
    3360:	0000106f 	andeq	r1, r0, pc, rrx
    3364:	059a0104 	ldreq	r0, [sl, #260]	; 0x104
    3368:	4a0c0000 	bmi	303370 <__bss_end__+0x2f8500>
    336c:	6b000008 	blvs	3394 <__code_start__-0x4c6c>
    3370:	14000006 	strne	r0, [r0], #-6
    3374:	2c000097 	stccs	0, cr0, [r0], {151}	; 0x97
    3378:	70000000 	andvc	r0, r0, r0
    337c:	0200001c 	andeq	r0, r0, #28, 0
    3380:	6e690504 	cdpvs	5, 6, cr0, cr9, cr4, {0}
    3384:	04030074 	streq	r0, [r3], #-116	; 0xffffff8c
    3388:	0000cd07 	andeq	ip, r0, r7, lsl #26
    338c:	06010300 	streq	r0, [r1], -r0, lsl #6
    3390:	00000068 	andeq	r0, r0, r8, rrx
    3394:	8b050203 	blhi	143ba8 <__bss_end__+0x138d38>
    3398:	03000001 	movweq	r0, #1
    339c:	01500504 	cmpeq	r0, r4, lsl #10
    33a0:	08030000 	stmdaeq	r3, {}	; <UNPREDICTABLE>
    33a4:	00014b05 	andeq	r4, r1, r5, lsl #22
    33a8:	08010300 	stmdaeq	r1, {r8, r9}
    33ac:	00000066 	andeq	r0, r0, r6, rrx
    33b0:	81070203 	tsthi	r7, r3, lsl #4
    33b4:	03000000 	movweq	r0, #0
    33b8:	00c80704 	sbceq	r0, r8, r4, lsl #14
    33bc:	08030000 	stmdaeq	r3, {}	; <UNPREDICTABLE>
    33c0:	0000c307 	andeq	ip, r0, r7, lsl #6
    33c4:	00250400 	eoreq	r0, r5, r0, lsl #8
    33c8:	007a0000 	rsbseq	r0, sl, r0
    33cc:	25050000 	strcs	r0, [r5, #-0]
    33d0:	00000000 	andeq	r0, r0, r0
    33d4:	00015906 	andeq	r5, r1, r6, lsl #18
    33d8:	0e1c0200 	cdpeq	2, 1, cr0, cr12, cr0, {0}
    33dc:	00000086 	andeq	r0, r0, r6, lsl #1
    33e0:	006b0407 	rsbeq	r0, fp, r7, lsl #8
    33e4:	25040000 	strcs	r0, [r4, #-0]
    33e8:	9b000000 	blls	33f0 <__code_start__-0x4c10>
    33ec:	05000000 	streq	r0, [r0, #-0]
    33f0:	0000009b 	muleq	r0, fp, r0
    33f4:	a8040700 	stmdage	r4, {r8, r9, sl}
    33f8:	03000000 	movweq	r0, #0
    33fc:	006f0801 	rsbeq	r0, pc, r1, lsl #16
    3400:	a1080000 	mrsge	r0, (UNDEF: 8)
    3404:	06000000 	streq	r0, [r0], -r0
    3408:	00000729 	andeq	r0, r0, r9, lsr #14
    340c:	b90e2102 	stmdblt	lr, {r1, r8, sp}
    3410:	07000000 	streq	r0, [r0, -r0]
    3414:	00008c04 	andeq	r8, r0, r4, lsl #24
    3418:	00740900 	rsbseq	r0, r4, r0, lsl #18
    341c:	04010000 	streq	r0, [r1], #-0
    3420:	00971406 	addseq	r1, r7, r6, lsl #8
    3424:	00002c00 	andeq	r2, r0, r0, lsl #24
    3428:	0e9c0100 	fmleqe	f0, f4, f0
    342c:	0a000001 	beq	3438 <__code_start__-0x4bc8>
    3430:	00009728 	andeq	r9, r0, r8, lsr #14
    3434:	000000e8 	andeq	r0, r0, r8, ror #1
    3438:	0550010b 	ldrbeq	r0, [r0, #-267]	; 0xfffffef5
    343c:	00a81c03 	adceq	r1, r8, r3, lsl #24
    3440:	2c0c0000 	stccs	0, cr0, [ip], {-0}
    3444:	0e000097 	mcreq	0, 0, r0, cr0, cr7, {4}
    3448:	0d000001 	stceq	0, cr0, [r0, #-4]
    344c:	00009734 	andeq	r9, r0, r4, lsr r7
    3450:	0000011a 	andeq	r0, r0, sl, lsl r1
    3454:	00000104 	andeq	r0, r0, r4, lsl #2
    3458:	0150010b 	cmpeq	r0, fp, lsl #2
    345c:	380c003a 	stmdacc	ip, {r1, r3, r4, r5}
    3460:	26000097 			; <UNDEFINED> instruction: 0x26000097
    3464:	00000001 	andeq	r0, r0, r1
    3468:	0008650e 	andeq	r6, r8, lr, lsl #10
    346c:	00086500 	andeq	r6, r8, r0, lsl #10
    3470:	064d0200 	strbeq	r0, [sp], -r0, lsl #4
    3474:	0008410e 	andeq	r4, r8, lr, lsl #2
    3478:	00084100 	andeq	r4, r8, r0, lsl #2
    347c:	06580200 	ldrbeq	r0, [r8], -r0, lsl #4
    3480:	0008360e 	andeq	r3, r8, lr, lsl #12
    3484:	00083600 	andeq	r3, r8, r0, lsl #12
    3488:	066b0200 	strbteq	r0, [fp], -r0, lsl #4
    348c:	00018900 	andeq	r8, r1, r0, lsl #18
    3490:	2f000400 	svccs	0x00000400
    3494:	04000011 	streq	r0, [r0], #-17	; 0xffffffef
    3498:	00059a01 	andeq	r9, r5, r1, lsl #20
    349c:	089b0c00 	ldmeq	fp, {sl, fp}
    34a0:	066b0000 	strbteq	r0, [fp], -r0
    34a4:	97400000 	strbls	r0, [r0, -r0]
    34a8:	003c0000 	eorseq	r0, ip, r0
    34ac:	1d190000 	ldcne	0, cr0, [r9, #-0]
    34b0:	04020000 	streq	r0, [r2], #-0
    34b4:	746e6905 	strbtvc	r6, [lr], #-2309	; 0xfffff6fb
    34b8:	07040300 	streq	r0, [r4, -r0, lsl #6]
    34bc:	000000cd 	andeq	r0, r0, sp, asr #1
    34c0:	68060103 	stmdavs	r6, {r0, r1, r8}
    34c4:	03000000 	movweq	r0, #0
    34c8:	018b0502 	orreq	r0, fp, r2, lsl #10
    34cc:	04030000 	streq	r0, [r3], #-0
    34d0:	00015005 	andeq	r5, r1, r5
    34d4:	05080300 	streq	r0, [r8, #-768]	; 0xfffffd00
    34d8:	0000014b 	andeq	r0, r0, fp, asr #2
    34dc:	66080103 	strvs	r0, [r8], -r3, lsl #2
    34e0:	03000000 	movweq	r0, #0
    34e4:	00810702 	addeq	r0, r1, r2, lsl #14
    34e8:	04030000 	streq	r0, [r3], #-0
    34ec:	0000c807 	andeq	ip, r0, r7, lsl #16
    34f0:	07080300 	streq	r0, [r8, -r0, lsl #6]
    34f4:	000000c3 	andeq	r0, r0, r3, asr #1
    34f8:	00002504 	andeq	r2, r0, r4, lsl #10
    34fc:	00007a00 	andeq	r7, r0, r0, lsl #20
    3500:	00250500 	eoreq	r0, r5, r0, lsl #10
    3504:	06000000 	streq	r0, [r0], -r0
    3508:	00000159 	andeq	r0, r0, r9, asr r1
    350c:	860e1c02 	strhi	r1, [lr], -r2, lsl #24
    3510:	07000000 	streq	r0, [r0, -r0]
    3514:	00006b04 	andeq	r6, r0, r4, lsl #22
    3518:	00250400 	eoreq	r0, r5, r0, lsl #8
    351c:	009b0000 	addseq	r0, fp, r0
    3520:	9b050000 	blls	143528 <__bss_end__+0x1386b8>
    3524:	00000000 	andeq	r0, r0, r0
    3528:	00a80407 	adceq	r0, r8, r7, lsl #8
    352c:	01030000 	mrseq	r0, (UNDEF: 3)
    3530:	00006f08 	andeq	r6, r0, r8, lsl #30
    3534:	00a10800 	adceq	r0, r1, r0, lsl #16
    3538:	29060000 	stmdbcs	r6, {}	; <UNPREDICTABLE>
    353c:	02000007 	andeq	r0, r0, #7, 0
    3540:	00b90e21 	adcseq	r0, r9, r1, lsr #28
    3544:	04070000 	streq	r0, [r7], #-0
    3548:	0000008c 	andeq	r0, r0, ip, lsl #1
    354c:	00087309 	andeq	r7, r8, r9, lsl #6
    3550:	06040100 	streq	r0, [r4], -r0, lsl #2
    3554:	00009740 	andeq	r9, r0, r0, asr #14
    3558:	0000003c 	andeq	r0, r0, ip, lsr r0
    355c:	01549c01 	cmpeq	r4, r1, lsl #24
    3560:	0b060000 	bleq	183568 <__bss_end__+0x1786f8>
    3564:	01000004 	tsteq	r0, r4
    3568:	00251005 	eoreq	r1, r5, r5
    356c:	e5060000 	str	r0, [r6, #-0]
    3570:	01000004 	tsteq	r0, r4
    3574:	00251f05 	eoreq	r1, r5, r5, lsl #30
    3578:	3d0a0000 	stccc	0, cr0, [sl, #-0]
    357c:	01000000 	mrseq	r0, (UNDEF: 0)
    3580:	620b0706 	andvs	r0, fp, #1572864	; 0x180000
    3584:	01007373 	tsteq	r0, r3, ror r3
    3588:	01540a0a 	cmpeq	r4, sl, lsl #20
    358c:	17770000 	ldrbne	r0, [r7, -r0]!
    3590:	17710000 	ldrbne	r0, [r1, -r0]!
    3594:	7b0c0000 	blvc	30359c <__bss_end__+0x2f872c>
    3598:	01000008 	tsteq	r0, r8
    359c:	01540a0b 	cmpeq	r4, fp, lsl #20
    35a0:	640d0000 	strvs	r0, [sp], #-0
    35a4:	08000097 	stmdaeq	r0, {r0, r1, r2, r4, r7}
    35a8:	2f000000 	svccs	0x00000000
    35ac:	0e000001 	cdpeq	0, 0, cr0, cr0, cr1, {0}
    35b0:	01006e69 	tsteq	r0, r9, ror #28
    35b4:	002c0514 	eoreq	r0, ip, r4, lsl r5
    35b8:	00010000 	andeq	r0, r1, r0
    35bc:	0097480f 	addseq	r4, r7, pc, lsl #16
    35c0:	00015a00 	andeq	r5, r1, r0, lsl #20
    35c4:	97640f00 	strbls	r0, [r4, -r0, lsl #30]!
    35c8:	01670000 	cmneq	r7, r0
    35cc:	700f0000 	andvc	r0, pc, r0
    35d0:	73000097 	movwvc	r0, #151	; 0x97
    35d4:	0f000001 	svceq	0x00000001
    35d8:	00009774 	andeq	r9, r0, r4, ror r7
    35dc:	00000180 	andeq	r0, r0, r0, lsl #3
    35e0:	25040700 	strcs	r0, [r4, #-1792]	; 0xfffff900
    35e4:	10000000 	andne	r0, r0, r0
    35e8:	0000088d 	andeq	r0, r0, sp, lsl #17
    35ec:	0000088d 	andeq	r0, r0, sp, lsl #17
    35f0:	06013602 	streq	r3, [r1], -r2, lsl #12
    35f4:	00088311 	andeq	r8, r8, r1, lsl r3
    35f8:	00088300 	andeq	r8, r8, r0, lsl #6
    35fc:	063b0200 	ldrteq	r0, [fp], -r0, lsl #4
    3600:	00003d10 	andeq	r3, r0, r0, lsl sp
    3604:	00003d00 	andeq	r3, r0, r0, lsl #26
    3608:	010a0200 	mrseq	r0, R10_fiq
    360c:	00741106 	rsbseq	r1, r4, r6, lsl #2
    3610:	00740000 	rsbseq	r0, r4, r0
    3614:	6e020000 	cdpvs	0, 0, cr0, cr2, cr0, {0}
    3618:	00ce0006 	sbceq	r0, lr, r6
    361c:	00040000 	andeq	r0, r4, r0
    3620:	0000122b 	andeq	r1, r0, fp, lsr #4
    3624:	059a0104 	ldreq	r0, [sl, #260]	; 0x104
    3628:	b00c0000 	andlt	r0, ip, r0
    362c:	6b000008 	blvs	3654 <__code_start__-0x49ac>
    3630:	7c000006 	stcvc	0, cr0, [r0], {6}
    3634:	04000097 	streq	r0, [r0], #-151	; 0xffffff69
    3638:	dc000000 	stcle	0, cr0, [r0], {-0}
    363c:	0200001d 	andeq	r0, r0, #29, 0
    3640:	6e690504 	cdpvs	5, 6, cr0, cr9, cr4, {0}
    3644:	04030074 	streq	r0, [r3], #-116	; 0xffffff8c
    3648:	0000cd07 	andeq	ip, r0, r7, lsl #26
    364c:	06010300 	streq	r0, [r1], -r0, lsl #6
    3650:	00000068 	andeq	r0, r0, r8, rrx
    3654:	8b050203 	blhi	143e68 <__bss_end__+0x138ff8>
    3658:	03000001 	movweq	r0, #1
    365c:	01500504 	cmpeq	r0, r4, lsl #10
    3660:	08030000 	stmdaeq	r3, {}	; <UNPREDICTABLE>
    3664:	00014b05 	andeq	r4, r1, r5, lsl #22
    3668:	08010300 	stmdaeq	r1, {r8, r9}
    366c:	00000066 	andeq	r0, r0, r6, rrx
    3670:	81070203 	tsthi	r7, r3, lsl #4
    3674:	03000000 	movweq	r0, #0
    3678:	00c80704 	sbceq	r0, r8, r4, lsl #14
    367c:	08030000 	stmdaeq	r3, {}	; <UNPREDICTABLE>
    3680:	0000c307 	andeq	ip, r0, r7, lsl #6
    3684:	00250400 	eoreq	r0, r5, r0, lsl #8
    3688:	007a0000 	rsbseq	r0, sl, r0
    368c:	25050000 	strcs	r0, [r5, #-0]
    3690:	00000000 	andeq	r0, r0, r0
    3694:	00015906 	andeq	r5, r1, r6, lsl #18
    3698:	0e1c0200 	cdpeq	2, 1, cr0, cr12, cr0, {0}
    369c:	00000086 	andeq	r0, r0, r6, lsl #1
    36a0:	006b0407 	rsbeq	r0, fp, r7, lsl #8
    36a4:	25040000 	strcs	r0, [r4, #-0]
    36a8:	9b000000 	blls	36b0 <__code_start__-0x4950>
    36ac:	05000000 	streq	r0, [r0, #-0]
    36b0:	0000009b 	muleq	r0, fp, r0
    36b4:	a8040700 	stmdage	r4, {r8, r9, sl}
    36b8:	03000000 	movweq	r0, #0
    36bc:	006f0801 	rsbeq	r0, pc, r1, lsl #16
    36c0:	a1080000 	mrsge	r0, (UNDEF: 8)
    36c4:	06000000 	streq	r0, [r0], -r0
    36c8:	00000729 	andeq	r0, r0, r9, lsr #14
    36cc:	b90e2102 	stmdblt	lr, {r1, r8, sp}
    36d0:	07000000 	streq	r0, [r0, -r0]
    36d4:	00008c04 	andeq	r8, r0, r4, lsl #24
    36d8:	088d0900 	stmeq	sp, {r8, fp}
    36dc:	04010000 	streq	r0, [r1], #-0
    36e0:	00977c06 	addseq	r7, r7, r6, lsl #24
    36e4:	00000400 	andeq	r0, r0, r0, lsl #8
    36e8:	009c0100 	addseq	r0, ip, r0, lsl #2
    36ec:	00000236 	andeq	r0, r0, r6, lsr r2
    36f0:	12a40004 	adcne	r0, r4, #4, 0
    36f4:	01040000 	mrseq	r0, (UNDEF: 4)
    36f8:	0000059a 	muleq	r0, sl, r5
    36fc:	0008f80c 	andeq	pc, r8, ip, lsl #16
    3700:	00066b00 	andeq	r6, r6, r0, lsl #22
    3704:	00009800 	andeq	r9, r0, r0, lsl #16
    3708:	00000000 	andeq	r0, r0, r0
    370c:	001e8300 	andseq	r8, lr, r0, lsl #6
    3710:	05040200 	streq	r0, [r4, #-512]	; 0xfffffe00
    3714:	00746e69 	rsbseq	r6, r4, r9, ror #28
    3718:	00002503 	andeq	r2, r0, r3, lsl #10
    371c:	07040400 	streq	r0, [r4, -r0, lsl #8]
    3720:	000000cd 	andeq	r0, r0, sp, asr #1
    3724:	68060104 	stmdavs	r6, {r2, r8}
    3728:	04000000 	streq	r0, [r0], #-0
    372c:	018b0502 	orreq	r0, fp, r2, lsl #10
    3730:	04040000 	streq	r0, [r4], #-0
    3734:	00015005 	andeq	r5, r1, r5
    3738:	05080400 	streq	r0, [r8, #-1024]	; 0xfffffc00
    373c:	0000014b 	andeq	r0, r0, fp, asr #2
    3740:	66080104 	strvs	r0, [r8], -r4, lsl #2
    3744:	04000000 	streq	r0, [r0], #-0
    3748:	00810702 	addeq	r0, r1, r2, lsl #14
    374c:	04040000 	streq	r0, [r4], #-0
    3750:	0000c807 	andeq	ip, r0, r7, lsl #16
    3754:	07080400 	streq	r0, [r8, -r0, lsl #8]
    3758:	000000c3 	andeq	r0, r0, r3, asr #1
    375c:	00002505 	andeq	r2, r0, r5, lsl #10
    3760:	00007f00 	andeq	r7, r0, r0, lsl #30
    3764:	00250600 	eoreq	r0, r5, r0, lsl #12
    3768:	07000000 	streq	r0, [r0, -r0]
    376c:	00000159 	andeq	r0, r0, r9, asr r1
    3770:	8b0e1c02 	blhi	38a780 <__bss_end__+0x37f910>
    3774:	08000000 	stmdaeq	r0, {}	; <UNPREDICTABLE>
    3778:	00007004 	andeq	r7, r0, r4
    377c:	00250500 	eoreq	r0, r5, r0, lsl #10
    3780:	00a00000 	adceq	r0, r0, r0
    3784:	a0060000 	andge	r0, r6, r0
    3788:	00000000 	andeq	r0, r0, r0
    378c:	00ad0408 	adceq	r0, sp, r8, lsl #8
    3790:	01040000 	mrseq	r0, (UNDEF: 4)
    3794:	00006f08 	andeq	r6, r0, r8, lsl #30
    3798:	00a60300 	adceq	r0, r6, r0, lsl #6
    379c:	29070000 	stmdbcs	r7, {}	; <UNPREDICTABLE>
    37a0:	02000007 	andeq	r0, r0, #7, 0
    37a4:	00be0e21 	adcseq	r0, lr, r1, lsr #28
    37a8:	04080000 	streq	r0, [r8], #-0
    37ac:	00000091 	muleq	r0, r1, r0
    37b0:	00091c09 	andeq	r1, r9, r9, lsl #24
    37b4:	110d0100 	mrsne	r0, (UNDEF: 29)
    37b8:	00000031 	andeq	r0, r0, r1, lsr r0
    37bc:	0008360a 	andeq	r3, r8, sl, lsl #12
    37c0:	061f0100 	ldreq	r0, [pc], -r0, lsl #2
    37c4:	000097ac 	andeq	r9, r0, ip, lsr #15
    37c8:	00000054 	andeq	r0, r0, r4, asr r0
    37cc:	01ae9c01 			; <UNDEFINED> instruction: 0x01ae9c01
    37d0:	400b0000 	andmi	r0, fp, r0
    37d4:	01000009 	tsteq	r0, r9
    37d8:	002c0f2c 	eoreq	r0, ip, ip, lsr #30
    37dc:	17a40000 	strne	r0, [r4, r0]!
    37e0:	17a20000 	strne	r0, [r2, r0]!
    37e4:	db0b0000 	blle	2c37ec <__bss_end__+0x2b897c>
    37e8:	01000008 	tsteq	r0, r8
    37ec:	002c0f2d 	eoreq	r0, ip, sp, lsr #30
    37f0:	17be0000 	ldrne	r0, [lr, r0]!
    37f4:	17bc0000 	ldrne	r0, [ip, r0]!
    37f8:	0d0b0000 	stceq	0, cr0, [fp, #-0]
    37fc:	01000009 	tsteq	r0, r9
    3800:	002c0f2e 	eoreq	r0, ip, lr, lsr #30
    3804:	17d80000 	ldrbne	r0, [r8, r0]
    3808:	17d60000 	ldrbne	r0, [r6, r0]
    380c:	270b0000 	strcs	r0, [fp, -r0]
    3810:	01000009 	tsteq	r0, r9
    3814:	002c0f2f 	eoreq	r0, ip, pc, lsr #30
    3818:	17f10000 	ldrbne	r0, [r1, r0]!
    381c:	17ef0000 	strbne	r0, [pc, r0]!
    3820:	b40c0000 	strlt	r0, [ip], #-0
    3824:	d9000097 	stmdble	r0, {r0, r1, r2, r4, r7}
    3828:	0c000001 	stceq	0, cr0, [r0], {1}
    382c:	000097c0 	andeq	r9, r0, r0, asr #15
    3830:	00000208 	andeq	r0, r0, r8, lsl #4
    3834:	0097c40c 	addseq	ip, r7, ip, lsl #8
    3838:	00021500 	andeq	r1, r2, r0, lsl #10
    383c:	97cc0d00 	strbls	r0, [ip, r0, lsl #26]
    3840:	02210000 	eoreq	r0, r1, #0, 0
    3844:	01640000 	cmneq	r4, r0
    3848:	010e0000 	mrseq	r0, (UNDEF: 14)
    384c:	003a0150 	eorseq	r0, sl, r0, asr r1
    3850:	0097d80d 	addseq	sp, r7, sp, lsl #16
    3854:	00022d00 	andeq	r2, r2, r0, lsl #26
    3858:	00018400 	andeq	r8, r1, r0, lsl #8
    385c:	50010e00 	andpl	r0, r1, r0, lsl #28
    3860:	00240c05 	eoreq	r0, r4, r5, lsl #24
    3864:	010e2010 	tsteq	lr, r0, lsl r0
    3868:	010c0551 	tsteq	ip, r1, asr r5
    386c:	005a0000 	subseq	r0, sl, r0
    3870:	0097e40d 	addseq	lr, r7, sp, lsl #8
    3874:	00022d00 	andeq	r2, r2, r0, lsl #26
    3878:	0001a400 	andeq	sl, r1, r0, lsl #8
    387c:	50010e00 	andpl	r0, r1, r0, lsl #28
    3880:	001c0c05 	andseq	r0, ip, r5, lsl #24
    3884:	010e2010 	tsteq	lr, r0, lsl r0
    3888:	200c0551 	andcs	r0, ip, r1, asr r5
    388c:	005a0000 	subseq	r0, sl, r0
    3890:	0097ec0c 	addseq	lr, r7, ip, lsl #24
    3894:	0001ae00 	andeq	sl, r1, r0, lsl #28
    3898:	e90f0000 	stmdb	pc, {}	; <UNPREDICTABLE>
    389c:	01000008 	tsteq	r0, r8
    38a0:	97980617 			; <UNDEFINED> instruction: 0x97980617
    38a4:	00140000 	andseq	r0, r4, r0
    38a8:	9c010000 	stcls	0, cr0, [r1], {-0}
    38ac:	000001d9 	ldrdeq	r0, [r0], -r9
    38b0:	0009480b 	andeq	r4, r9, fp, lsl #16
    38b4:	0e180100 	mufeqe	f0, f0, f0
    38b8:	00000031 	andeq	r0, r0, r1, lsr r0
    38bc:	0000180c 	andeq	r1, r0, ip, lsl #16
    38c0:	00001806 	andeq	r1, r0, r6, lsl #16
    38c4:	09191000 	ldmdbeq	r9, {ip}
    38c8:	0e010000 	cdpeq	0, 0, cr0, cr1, cr0, {0}
    38cc:	00002505 	andeq	r2, r0, r5, lsl #10
    38d0:	00978000 	addseq	r8, r7, r0
    38d4:	00001800 	andeq	r1, r0, r0, lsl #16
    38d8:	089c0100 	ldmeq	ip, {r8}
    38dc:	0b000002 	bleq	38ec <__code_start__-0x4714>
    38e0:	00000948 	andeq	r0, r0, r8, asr #18
    38e4:	310e0f01 	tstcc	lr, r1, lsl #30
    38e8:	3a000000 	bcc	38f0 <__code_start__-0x4710>
    38ec:	36000018 			; <UNDEFINED> instruction: 0x36000018
    38f0:	00000018 	andeq	r0, r0, r8, lsl r0
    38f4:	0008cc11 	andeq	ip, r8, r1, lsl ip
    38f8:	0008cc00 	andeq	ip, r8, r0, lsl #24
    38fc:	013b0200 	teqeq	fp, r0, lsl #4
    3900:	08651206 	stmdaeq	r5!, {r1, r2, r9, ip}^
    3904:	08650000 	stmdaeq	r5!, {}^	; <UNPREDICTABLE>
    3908:	4d020000 	stcmi	0, cr0, [r2, #-0]
    390c:	08411206 	stmdaeq	r1, {r1, r2, r9, ip}^
    3910:	08410000 	stmdaeq	r1, {}^	; <UNPREDICTABLE>
    3914:	58020000 	stmdapl	r2, {}	; <UNPREDICTABLE>
    3918:	08e31206 	stmiaeq	r3!, {r1, r2, r9, ip}^
    391c:	08e30000 	stmiaeq	r3!, {}^	; <UNPREDICTABLE>
    3920:	b2020000 	andlt	r0, r2, #0, 0
    3924:	024d0006 	subeq	r0, sp, #6, 0
    3928:	00040000 	andeq	r0, r4, r0
    392c:	000013c9 	andeq	r1, r0, r9, asr #7
    3930:	059a0104 	ldreq	r0, [sl, #260]	; 0x104
    3934:	630c0000 	movwvs	r0, #49152	; 0xc000
    3938:	6b000009 	blvs	3964 <__code_start__-0x469c>
    393c:	00000006 	andeq	r0, r0, r6
    3940:	84000098 	strhi	r0, [r0], #-152	; 0xffffff68
    3944:	7a000000 	bvc	394c <__code_start__-0x46b4>
    3948:	0200001f 	andeq	r0, r0, #31, 0
    394c:	6e690504 	cdpvs	5, 6, cr0, cr9, cr4, {0}
    3950:	04030074 	streq	r0, [r3], #-116	; 0xffffff8c
    3954:	0000cd07 	andeq	ip, r0, r7, lsl #26
    3958:	06010300 	streq	r0, [r1], -r0, lsl #6
    395c:	00000068 	andeq	r0, r0, r8, rrx
    3960:	8b050203 	blhi	144174 <__bss_end__+0x139304>
    3964:	03000001 	movweq	r0, #1
    3968:	01500504 	cmpeq	r0, r4, lsl #10
    396c:	08030000 	stmdaeq	r3, {}	; <UNPREDICTABLE>
    3970:	00014b05 	andeq	r4, r1, r5, lsl #22
    3974:	08010300 	stmdaeq	r1, {r8, r9}
    3978:	00000066 	andeq	r0, r0, r6, rrx
    397c:	81070203 	tsthi	r7, r3, lsl #4
    3980:	03000000 	movweq	r0, #0
    3984:	00c80704 	sbceq	r0, r8, r4, lsl #14
    3988:	08030000 	stmdaeq	r3, {}	; <UNPREDICTABLE>
    398c:	0000c307 	andeq	ip, r0, r7, lsl #6
    3990:	00250400 	eoreq	r0, r5, r0, lsl #8
    3994:	007a0000 	rsbseq	r0, sl, r0
    3998:	25050000 	strcs	r0, [r5, #-0]
    399c:	00000000 	andeq	r0, r0, r0
    39a0:	00015906 	andeq	r5, r1, r6, lsl #18
    39a4:	0e1c0200 	cdpeq	2, 1, cr0, cr12, cr0, {0}
    39a8:	00000086 	andeq	r0, r0, r6, lsl #1
    39ac:	006b0407 	rsbeq	r0, fp, r7, lsl #8
    39b0:	25040000 	strcs	r0, [r4, #-0]
    39b4:	9b000000 	blls	39bc <__code_start__-0x4644>
    39b8:	05000000 	streq	r0, [r0, #-0]
    39bc:	0000009b 	muleq	r0, fp, r0
    39c0:	a8040700 	stmdage	r4, {r8, r9, sl}
    39c4:	03000000 	movweq	r0, #0
    39c8:	006f0801 	rsbeq	r0, pc, r1, lsl #16
    39cc:	a1080000 	mrsge	r0, (UNDEF: 8)
    39d0:	06000000 	streq	r0, [r0], -r0
    39d4:	00000729 	andeq	r0, r0, r9, lsr #14
    39d8:	b90e2102 	stmdblt	lr, {r1, r8, sp}
    39dc:	07000000 	streq	r0, [r0, -r0]
    39e0:	00008c04 	andeq	r8, r0, r4, lsl #24
    39e4:	09590900 	ldmdbeq	r9, {r8, fp}^
    39e8:	1e010000 	cdpne	0, 0, cr0, cr1, cr0, {0}
    39ec:	00986c06 	addseq	r6, r8, r6, lsl #24
    39f0:	00001800 	andeq	r1, r0, r0, lsl #16
    39f4:	099c0100 	ldmibeq	ip, {r8}
    39f8:	0a000001 	beq	3a04 <__code_start__-0x45fc>
    39fc:	00636573 	rsbeq	r6, r3, r3, ror r5
    3a00:	2c191e01 	ldccs	14, cr1, [r9], {1}
    3a04:	5d000000 	stcpl	0, cr0, [r0, #-0]
    3a08:	59000018 	stmdbpl	r0, {r3, r4}
    3a0c:	0b000018 	bleq	3a74 <__code_start__-0x458c>
    3a10:	00009880 	andeq	r9, r0, r0, lsl #17
    3a14:	00000109 	andeq	r0, r0, r9, lsl #2
    3a18:	1150010c 	cmpne	r0, ip, lsl #2
    3a1c:	355001f3 	ldrbcc	r0, [r0, #-499]	; 0xfffffe0d
    3a20:	5001f324 	andpl	pc, r1, r4, lsr #6
    3a24:	f324321c 	vqsub.u32	d3, d4, d12
    3a28:	33225001 			; <UNDEFINED> instruction: 0x33225001
    3a2c:	09000024 	stmdbeq	r0, {r2, r5}
    3a30:	00000841 	andeq	r0, r0, r1, asr #16
    3a34:	54061b01 	strpl	r1, [r6], #-2817	; 0xfffff4ff
    3a38:	18000098 	stmdane	r0, {r3, r4, r7}
    3a3c:	01000000 	mrseq	r0, (UNDEF: 0)
    3a40:	0001529c 	muleq	r1, ip, r2
    3a44:	736d0a00 	cmnvc	sp, #0, 20
    3a48:	181b0100 	ldmdane	fp, {r8}
    3a4c:	0000002c 	andeq	r0, r0, ip, lsr #32
    3a50:	00001882 	andeq	r1, r0, r2, lsl #17
    3a54:	0000187e 	andeq	r1, r0, lr, ror r8
    3a58:	0098680b 	addseq	r6, r8, fp, lsl #16
    3a5c:	00015200 	andeq	r5, r1, r0, lsl #4
    3a60:	50010c00 	andpl	r0, r1, r0, lsl #24
    3a64:	5001f311 	andpl	pc, r1, r1, lsl r3	; <UNPREDICTABLE>
    3a68:	01f32435 	mvnseq	r2, r5, lsr r4
    3a6c:	24321c50 	ldrtcs	r1, [r2], #-3152	; 0xfffff3b0
    3a70:	225001f3 	subscs	r0, r0, #-1073741764	; 0xc000003c
    3a74:	00002433 	andeq	r2, r0, r3, lsr r4
    3a78:	00098c09 	andeq	r8, r9, r9, lsl #24
    3a7c:	06120100 	ldreq	r0, [r2], -r0, lsl #2
    3a80:	00009830 	andeq	r9, r0, r0, lsr r8
    3a84:	00000024 	andeq	r0, r0, r4, lsr #32
    3a88:	01c29c01 	biceq	r9, r2, r1, lsl #24
    3a8c:	750a0000 	strvc	r0, [sl, #-0]
    3a90:	12010073 	andne	r0, r1, #115, 0	; 0x73
    3a94:	00002c18 	andeq	r2, r0, r8, lsl ip
    3a98:	0018a700 	andseq	sl, r8, r0, lsl #14
    3a9c:	0018a300 	andseq	sl, r8, r0, lsl #6
    3aa0:	62720d00 	rsbsvs	r0, r2, #0, 26
    3aa4:	0e130100 	mufeqs	f0, f3, f0
    3aa8:	0000002c 	andeq	r0, r0, ip, lsr #32
    3aac:	000018c7 	andeq	r1, r0, r7, asr #17
    3ab0:	000018c5 	andeq	r1, r0, r5, asr #17
    3ab4:	0098400e 	addseq	r4, r8, lr
    3ab8:	00001400 	andeq	r1, r0, r0, lsl #8
    3abc:	0001b800 	andeq	fp, r1, r0, lsl #16
    3ac0:	61720d00 	cmnvs	r2, r0, lsl #26
    3ac4:	12150100 	andsne	r0, r5, #0
    3ac8:	0000002c 	andeq	r0, r0, ip, lsr #32
    3acc:	000018dc 	ldrdeq	r1, [r0], -ip
    3ad0:	000018da 	ldrdeq	r1, [r0], -sl
    3ad4:	0098440f 	addseq	r4, r8, pc, lsl #8
    3ad8:	0001c200 	andeq	ip, r1, r0, lsl #4
    3adc:	3c0f0000 	stccc	0, cr0, [pc], {-0}
    3ae0:	c2000098 	andgt	r0, r0, #152, 0	; 0x98
    3ae4:	00000001 	andeq	r0, r0, r1
    3ae8:	00097d10 	andeq	r7, r9, r0, lsl sp
    3aec:	0a090100 	beq	243ef4 <__bss_end__+0x239084>
    3af0:	0000002c 	andeq	r0, r0, ip, lsr #32
    3af4:	00009814 	andeq	r9, r0, r4, lsl r8
    3af8:	0000001c 	andeq	r0, r0, ip, lsl r0
    3afc:	020a9c01 	andeq	r9, sl, #256	; 0x100
    3b00:	750d0000 	strvc	r0, [sp, #-0]
    3b04:	0e0d0100 	adfeqe	f0, f5, f0
    3b08:	0000002c 	andeq	r0, r0, ip, lsr #32
    3b0c:	000018f3 	strdeq	r1, [r0], -r3
    3b10:	000018ef 	andeq	r1, r0, pc, ror #17
    3b14:	00981c0f 	addseq	r1, r8, pc, lsl #24
    3b18:	00023800 	andeq	r3, r2, r0, lsl #16
    3b1c:	98200f00 	stmdals	r0!, {r8, r9, sl, fp}
    3b20:	020a0000 	andeq	r0, sl, #0, 0
    3b24:	280f0000 	stmdacs	pc, {}	; <UNPREDICTABLE>
    3b28:	38000098 	stmdacc	r0, {r3, r4, r7}
    3b2c:	00000002 	andeq	r0, r0, r2
    3b30:	00099510 	andeq	r9, r9, r0, lsl r5
    3b34:	0a040100 	beq	103f3c <__bss_end__+0xf90cc>
    3b38:	0000002c 	andeq	r0, r0, ip, lsr #32
    3b3c:	00009800 	andeq	r9, r0, r0, lsl #16
    3b40:	00000014 	andeq	r0, r0, r4, lsl r0
    3b44:	02389c01 	eorseq	r9, r8, #256	; 0x100
    3b48:	0c0b0000 	stceq	0, cr0, [fp], {-0}
    3b4c:	44000098 	strmi	r0, [r0], #-152	; 0xffffff68
    3b50:	0c000002 	stceq	0, cr0, [r0], {2}
    3b54:	0c055001 	stceq	0, cr5, [r5], {1}
    3b58:	20003004 	andcs	r3, r0, r4
    3b5c:	4d110000 	ldcmi	0, cr0, [r1, #-0]
    3b60:	4d000009 	stcmi	0, cr0, [r0, #-36]	; 0xffffffdc
    3b64:	02000009 	andeq	r0, r0, #9, 0
    3b68:	771106a1 	ldrvc	r0, [r1, -r1, lsr #13]
    3b6c:	77000009 	strvc	r0, [r0, -r9]
    3b70:	02000009 	andeq	r0, r0, #9, 0
    3b74:	cd000ac7 	vstrgt	s0, [r0, #-796]	; 0xfffffce4
    3b78:	04000005 	streq	r0, [r0], #-5
    3b7c:	0014ca00 	andseq	ip, r4, r0, lsl #20
    3b80:	a8010400 	stmdage	r1, {sl}
    3b84:	0c00000a 	stceq	0, cr0, [r0], {10}
    3b88:	000009e7 	andeq	r0, r0, r7, ror #19
    3b8c:	00000a58 	andeq	r0, r0, r8, asr sl
    3b90:	00009884 	andeq	r9, r0, r4, lsl #17
    3b94:	000001f0 	strdeq	r0, [r0], -r0	; <UNPREDICTABLE>
    3b98:	00002078 	andeq	r2, r0, r8, ror r0
    3b9c:	69050402 	stmdbvs	r5, {r1, sl}
    3ba0:	0300746e 	movweq	r7, #1134	; 0x46e
    3ba4:	00cd0704 	sbceq	r0, sp, r4, lsl #14
    3ba8:	2c040000 	stccs	0, cr0, [r4], {-0}
    3bac:	03000000 	movweq	r0, #0
    3bb0:	00680601 	rsbeq	r0, r8, r1, lsl #12
    3bb4:	02030000 	andeq	r0, r3, #0, 0
    3bb8:	00018b05 	andeq	r8, r1, r5, lsl #22
    3bbc:	05040300 	streq	r0, [r4, #-768]	; 0xfffffd00
    3bc0:	00000150 	andeq	r0, r0, r0, asr r1
    3bc4:	4b050803 	blmi	145bd8 <__bss_end__+0x13ad68>
    3bc8:	03000001 	movweq	r0, #1
    3bcc:	00660801 	rsbeq	r0, r6, r1, lsl #16
    3bd0:	02030000 	andeq	r0, r3, #0, 0
    3bd4:	00008107 	andeq	r8, r0, r7, lsl #2
    3bd8:	01a80500 			; <UNDEFINED> instruction: 0x01a80500
    3bdc:	34050000 	strcc	r0, [r5], #-0
    3be0:	00006e19 	andeq	r6, r0, r9, lsl lr
    3be4:	07040300 	streq	r0, [r4, -r0, lsl #6]
    3be8:	000000c8 	andeq	r0, r0, r8, asr #1
    3bec:	c3070803 	movwgt	r0, #30723	; 0x7803
    3bf0:	03000000 	movweq	r0, #0
    3bf4:	006f0801 	rsbeq	r0, pc, r1, lsl #16
    3bf8:	07060000 	streq	r0, [r6, -r0]
    3bfc:	00005401 	andeq	r5, r0, r1, lsl #8
    3c00:	0e0c0400 	cfcpyseq	mvf0, mvf12
    3c04:	000000c2 	andeq	r0, r0, r2, asr #1
    3c08:	000b9207 	andeq	r9, fp, r7, lsl #4
    3c0c:	ca070000 	bgt	1c3c14 <__bss_end__+0x1b8da4>
    3c10:	01000009 	tsteq	r0, r9
    3c14:	000a0d07 	andeq	r0, sl, r7, lsl #26
    3c18:	1c070400 	cfstrsne	mvf0, [r7], {-0}
    3c1c:	0500000a 	streq	r0, [r0, #-10]
    3c20:	000a2b07 	andeq	r2, sl, r7, lsl #22
    3c24:	3a070600 	bcc	1c542c <__bss_end__+0x1ba5bc>
    3c28:	0700000a 	streq	r0, [r0, -sl]
    3c2c:	000b5b07 	andeq	r5, fp, r7, lsl #22
    3c30:	49070300 	stmdbmi	r7, {r8, r9}
    3c34:	0200000a 	andeq	r0, r0, #10, 0
    3c38:	09db0800 	ldmibeq	fp, {fp}^
    3c3c:	022c0000 	eoreq	r0, ip, #0, 0
    3c40:	015e0806 	cmpeq	lr, r6, lsl #16
    3c44:	69090000 	stmdbvs	r9, {}	; <UNPREDICTABLE>
    3c48:	0902006f 	stmdbeq	r2, {r0, r1, r2, r3, r5, r6}
    3c4c:	00003309 	andeq	r3, r0, r9, lsl #6
    3c50:	69090000 	stmdbvs	r9, {}	; <UNPREDICTABLE>
    3c54:	02007265 	andeq	r7, r0, #1342177286	; 0x50000006
    3c58:	0033090a 	eorseq	r0, r3, sl, lsl #18
    3c5c:	09040000 	stmdbeq	r4, {}	; <UNPREDICTABLE>
    3c60:	00726969 	rsbseq	r6, r2, r9, ror #18
    3c64:	33091102 	movwcc	r1, #37122	; 0x9102
    3c68:	08000000 	stmdaeq	r0, {}	; <UNPREDICTABLE>
    3c6c:	72636c09 	rsbvc	r6, r3, #2304	; 0x900
    3c70:	09130200 	ldmdbeq	r3, {r9}
    3c74:	00000033 	andeq	r0, r0, r3, lsr r0
    3c78:	636d090c 	cmnvs	sp, #12, 18	; 0x30000
    3c7c:	14020072 	strne	r0, [r2], #-114	; 0xffffff8e
    3c80:	00003309 	andeq	r3, r0, r9, lsl #6
    3c84:	6c091000 	stcvs	0, cr1, [r9], {-0}
    3c88:	02007273 	andeq	r7, r0, #805306375	; 0x30000007
    3c8c:	00330915 	eorseq	r0, r3, r5, lsl r9
    3c90:	09140000 	ldmdbeq	r4, {}	; <UNPREDICTABLE>
    3c94:	0072736d 	rsbseq	r7, r2, sp, ror #6
    3c98:	33091602 	movwcc	r1, #38402	; 0x9602
    3c9c:	18000000 	stmdane	r0, {}	; <UNPREDICTABLE>
    3ca0:	000b720a 	andeq	r7, fp, sl, lsl #4
    3ca4:	09170200 	ldmdbeq	r7, {r9}
    3ca8:	00000033 	andeq	r0, r0, r3, lsr r0
    3cac:	0b3b0a1c 	bleq	ec6524 <__bss_end__+0xebb6b4>
    3cb0:	1b020000 	blne	83cb8 <__bss_end__+0x78e48>
    3cb4:	00003309 	andeq	r3, r0, r9, lsl #6
    3cb8:	b70a2000 	strlt	r2, [sl, -r0]
    3cbc:	02000009 	andeq	r0, r0, #9, 0
    3cc0:	0033091d 	eorseq	r0, r3, sp, lsl r9
    3cc4:	0a240000 	beq	903ccc <__bss_end__+0x8f8e5c>
    3cc8:	00000a8d 	andeq	r0, r0, sp, lsl #21
    3ccc:	33091e02 	movwcc	r1, #40450	; 0x9e02
    3cd0:	28000000 	stmdacs	r0, {}	; <UNPREDICTABLE>
    3cd4:	0a920b00 	beq	fe4868dc <__bss_end__+0xfe47ba6c>
    3cd8:	08010000 	stmdaeq	r1, {}	; <UNPREDICTABLE>
    3cdc:	00017409 	andeq	r7, r1, r9, lsl #8
    3ce0:	21500400 	cmpcs	r0, r0, lsl #8
    3ce4:	33040c20 	movwcc	r0, #19488	; 0x4c20
    3ce8:	0d000000 	stceq	0, cr0, [r0, #-0]
    3cec:	0000016e 	andeq	r0, r0, lr, ror #2
    3cf0:	000b7a0b 	andeq	r7, fp, fp, lsl #20
    3cf4:	23290100 			; <UNDEFINED> instruction: 0x23290100
    3cf8:	0000018f 	andeq	r0, r0, pc, lsl #3
    3cfc:	20215040 	eorcs	r5, r1, r0, asr #32
    3d00:	00c2040c 	sbceq	r0, r2, ip, lsl #8
    3d04:	890d0000 	stmdbhi	sp, {}	; <UNPREDICTABLE>
    3d08:	0e000001 	cdpeq	0, 0, cr0, cr0, cr1, {0}
    3d0c:	00000865 	andeq	r0, r0, r5, ror #16
    3d10:	3c06cc01 	stccc	12, cr12, [r6], {1}
    3d14:	1400009a 	strne	r0, [r0], #-154	; 0xffffff66
    3d18:	01000000 	mrseq	r0, (UNDEF: 0)
    3d1c:	0001b49c 	muleq	r1, ip, r4
    3d20:	9a440f00 	bls	1107928 <__bss_end__+0x10fcab8>
    3d24:	01b40000 			; <UNDEFINED> instruction: 0x01b40000
    3d28:	10000000 	andne	r0, r0, r0
    3d2c:	000009fc 	strdeq	r0, [r0], -ip
    3d30:	2505b601 	strcs	fp, [r5, #-1537]	; 0xfffff9ff
    3d34:	1c000000 	stcne	0, cr0, [r0], {-0}
    3d38:	2000009a 	mulcs	r0, sl, r0
    3d3c:	01000000 	mrseq	r0, (UNDEF: 0)
    3d40:	0001eb9c 	muleq	r1, ip, fp
    3d44:	9a240f00 	bls	90794c <__bss_end__+0x8fcadc>
    3d48:	05a00000 	streq	r0, [r0, #0]!
    3d4c:	2c110000 	ldccs	0, cr0, [r1], {-0}
    3d50:	ac00009a 	stcge	0, cr0, [r0], {154}	; 0x9a
    3d54:	12000005 	andne	r0, r0, #5, 0
    3d58:	0c055001 	stceq	0, cr5, [r5], {1}
    3d5c:	20215064 	eorcs	r5, r1, r4, rrx
    3d60:	4d100000 	ldcmi	0, cr0, [r0, #-0]
    3d64:	0100000b 	tsteq	r0, fp
    3d68:	002505b3 	strhteq	r0, [r5], -r3
    3d6c:	9a0c0000 	bls	303d74 <__bss_end__+0x2f8f04>
    3d70:	00100000 	andseq	r0, r0, r0
    3d74:	9c010000 	stcls	0, cr0, [r1], {-0}
    3d78:	00000218 	andeq	r0, r0, r8, lsl r2
    3d7c:	009a140f 	addseq	r1, sl, pc, lsl #8
    3d80:	0005a000 	andeq	sl, r5, r0
    3d84:	9a180f00 	bls	60798c <__bss_end__+0x5fcb1c>
    3d88:	03090000 	movweq	r0, #36864	; 0x9000
    3d8c:	0e000000 	cdpeq	0, 0, cr0, cr0, cr0, {0}
    3d90:	00000b88 	andeq	r0, r0, r8, lsl #23
    3d94:	dc06ab01 			; <UNDEFINED> instruction: 0xdc06ab01
    3d98:	30000099 	mulcc	r0, r9, r0
    3d9c:	01000000 	mrseq	r0, (UNDEF: 0)
    3da0:	00027c9c 	muleq	r2, ip, ip
    3da4:	00631300 	rsbeq	r1, r3, r0, lsl #6
    3da8:	2c19ab01 			; <UNDEFINED> instruction: 0x2c19ab01
    3dac:	15000000 	strne	r0, [r0, #-0]
    3db0:	11000019 	tstne	r0, r9, lsl r0
    3db4:	0f000019 	svceq	0x00000019
    3db8:	000099e8 	andeq	r9, r0, r8, ror #19
    3dbc:	000005a0 	andeq	r0, r0, r0, lsr #11
    3dc0:	0099ec0f 	addseq	lr, r9, pc, lsl #24
    3dc4:	0002db00 	andeq	sp, r2, r0, lsl #22
    3dc8:	9a001400 	bls	8dd0 <kr_malloc+0x3c>
    3dcc:	05b80000 	ldreq	r0, [r8, #0]!
    3dd0:	02720000 	rsbseq	r0, r2, #0, 0
    3dd4:	01120000 	tsteq	r2, r0
    3dd8:	400c0550 	andmi	r0, ip, r0, asr r5
    3ddc:	12202150 	eorne	r2, r0, #20
    3de0:	74055101 	strvc	r5, [r5], #-257	; 0xfffffeff
    3de4:	1aff0800 	bne	fffc5dec <__bss_end__+0xfffbaf7c>
    3de8:	9a040f00 	bls	1079f0 <__bss_end__+0xfcb80>
    3dec:	05a00000 	streq	r0, [r0, #0]!
    3df0:	10000000 	andne	r0, r0, r0
    3df4:	00000a9e 	muleq	r0, lr, sl
    3df8:	2505a301 	strcs	sl, [r5, #-769]	; 0xfffffcff
    3dfc:	ac000000 	stcge	0, cr0, [r0], {-0}
    3e00:	30000099 	mulcc	r0, r9, r0
    3e04:	01000000 	mrseq	r0, (UNDEF: 0)
    3e08:	0002db9c 	muleq	r2, ip, fp
    3e0c:	00631500 	rsbeq	r1, r3, r0, lsl #10
    3e10:	2509a701 	strcs	sl, [r9, #-1793]	; 0xfffff8ff
    3e14:	35000000 	strcc	r0, [r0, #-0]
    3e18:	33000019 	movwcc	r0, #25
    3e1c:	0f000019 	svceq	0x00000019
    3e20:	000099b4 			; <UNDEFINED> instruction: 0x000099b4
    3e24:	000005a0 	andeq	r0, r0, r0, lsr #11
    3e28:	0099b80f 	addseq	fp, r9, pc, lsl #16
    3e2c:	00030900 	andeq	r0, r3, r0, lsl #18
    3e30:	99c81400 	stmibls	r8, {sl, ip}^
    3e34:	05ac0000 	streq	r0, [ip, #0]!
    3e38:	02d10000 	sbcseq	r0, r1, #0, 0
    3e3c:	01120000 	tsteq	r2, r0
    3e40:	400c0550 	andmi	r0, ip, r0, asr r5
    3e44:	00202150 	eoreq	r2, r0, r0, asr r1
    3e48:	0099d00f 	addseq	sp, r9, pc
    3e4c:	0005a000 	andeq	sl, r5, r0
    3e50:	ee100000 	cdp	0, 1, cr0, cr0, cr0, {0}
    3e54:	01000009 	tsteq	r0, r9
    3e58:	00250594 	mlaeq	r5, r4, r5, r0
    3e5c:	998c0000 	stmibls	ip, {}	; <UNPREDICTABLE>
    3e60:	00200000 	eoreq	r0, r0, r0
    3e64:	9c010000 	stcls	0, cr0, [r1], {-0}
    3e68:	00000309 	andeq	r0, r0, r9, lsl #6
    3e6c:	00999811 	addseq	r9, r9, r1, lsl r8
    3e70:	0005ac00 	andeq	sl, r5, r0, lsl #24
    3e74:	50011200 	andpl	r1, r1, r0, lsl #4
    3e78:	50640c05 	rsbpl	r0, r4, r5, lsl #24
    3e7c:	00002021 	andeq	r2, r0, r1, lsr #32
    3e80:	0009bc10 	andeq	fp, r9, r0, lsl ip
    3e84:	058b0100 	streq	r0, [fp, #256]	; 0x100
    3e88:	00000025 	andeq	r0, r0, r5, lsr #32
    3e8c:	00009974 	andeq	r9, r0, r4, ror r9
    3e90:	00000018 	andeq	r0, r0, r8, lsl r0
    3e94:	03379c01 	teqeq	r7, #256	; 0x100
    3e98:	80110000 	andshi	r0, r1, r0
    3e9c:	ac000099 	stcge	0, cr0, [r0], {153}	; 0x99
    3ea0:	12000005 	andne	r0, r0, #5, 0
    3ea4:	0c055001 	stceq	0, cr5, [r5], {1}
    3ea8:	20215064 	eorcs	r5, r1, r4, rrx
    3eac:	830e0000 	movwhi	r0, #57344	; 0xe000
    3eb0:	01000008 	tsteq	r0, r8
    3eb4:	98c40645 	stmials	r4, {r0, r2, r6, r9, sl}^
    3eb8:	00b00000 	adcseq	r0, r0, r0
    3ebc:	9c010000 	stcls	0, cr0, [r1], {-0}
    3ec0:	00000484 	andeq	r0, r0, r4, lsl #9
    3ec4:	0009ae16 	andeq	sl, r9, r6, lsl lr
    3ec8:	0e7e0100 	rpweqe	f0, f6, f0
    3ecc:	00000062 	andeq	r0, r0, r2, rrx
    3ed0:	d414010e 	ldrle	r0, [r4], #-270	; 0xfffffef2
    3ed4:	c4000098 	strgt	r0, [r0], #-152	; 0xffffff68
    3ed8:	73000005 	movwvc	r0, #5
    3edc:	12000003 	andne	r0, r0, #3, 0
    3ee0:	3e015001 	cdpcc	0, 0, cr5, cr1, cr1, {0}
    3ee4:	01510112 	cmpeq	r1, r2, lsl r1
    3ee8:	e0140032 	ands	r0, r4, r2, lsr r0
    3eec:	c4000098 	strgt	r0, [r0], #-152	; 0xffffff68
    3ef0:	8b000005 	blhi	3f0c <__code_start__-0x40f4>
    3ef4:	12000003 	andne	r0, r0, #3, 0
    3ef8:	3f015001 	svccc	0x00015001
    3efc:	01510112 	cmpeq	r1, r2, lsl r1
    3f00:	e40f0032 	str	r0, [pc], #-50	; 3f08 <__code_start__-0x40f8>
    3f04:	a0000098 	mulge	r0, r8, r0
    3f08:	14000005 	strne	r0, [r0], #-5
    3f0c:	000098f0 	strdeq	r9, [r0], -r0
    3f10:	0000053d 	andeq	r0, r0, sp, lsr r5
    3f14:	000003b0 			; <UNDEFINED> instruction: 0x000003b0
    3f18:	05500112 	ldrbeq	r0, [r0, #-274]	; 0xfffffeee
    3f1c:	2150040c 	cmpcs	r0, ip, lsl #8
    3f20:	51011220 	tstpl	r1, r0, lsr #4
    3f24:	0f003101 	svceq	0x00003101
    3f28:	000098f4 	strdeq	r9, [r0], -r4
    3f2c:	000005a0 	andeq	r0, r0, r0, lsr #11
    3f30:	00990414 	addseq	r0, r9, r4, lsl r4
    3f34:	0005b800 	andeq	fp, r5, r0, lsl #16
    3f38:	0003d200 	andeq	sp, r3, r0, lsl #4
    3f3c:	50011200 	andpl	r1, r1, r0, lsl #4
    3f40:	12007402 	andne	r7, r0, #33554432	; 0x2000000
    3f44:	30015101 	andcc	r5, r1, r1, lsl #2
    3f48:	99101400 	ldmdbls	r0, {sl, ip}
    3f4c:	05b80000 	ldreq	r0, [r8, #0]!
    3f50:	03ee0000 	mvneq	r0, #0, 0
    3f54:	01120000 	tsteq	r2, r0
    3f58:	440c0550 	strmi	r0, [ip], #-1360	; 0xfffffab0
    3f5c:	12202150 	eorne	r2, r0, #20
    3f60:	30015101 	andcc	r5, r1, r1, lsl #2
    3f64:	991c1400 	ldmdbls	ip, {sl, ip}
    3f68:	05b80000 	ldreq	r0, [r8, #0]!
    3f6c:	040a0000 	streq	r0, [sl], #-0
    3f70:	01120000 	tsteq	r2, r0
    3f74:	4c0c0550 	cfstr32mi	mvfx0, [ip], {80}	; 0x50
    3f78:	12202150 	eorne	r2, r0, #20
    3f7c:	33015101 	movwcc	r5, #4353	; 0x1101
    3f80:	99281400 	stmdbls	r8!, {sl, ip}
    3f84:	05b80000 	ldreq	r0, [r8, #0]!
    3f88:	04260000 	strteq	r0, [r6], #-0
    3f8c:	01120000 	tsteq	r2, r0
    3f90:	500c0550 	andpl	r0, ip, r0, asr r5
    3f94:	12202150 	eorne	r2, r0, #20
    3f98:	30015101 	andcc	r5, r1, r1, lsl #2
    3f9c:	99341400 	ldmdbls	r4!, {sl, ip}
    3fa0:	05b80000 	ldreq	r0, [r8, #0]!
    3fa4:	04430000 	strbeq	r0, [r3], #-0
    3fa8:	01120000 	tsteq	r2, r0
    3fac:	480c0550 	stmdami	ip, {r4, r6, r8, sl}
    3fb0:	12202150 	eorne	r2, r0, #20
    3fb4:	08025101 	stmdaeq	r2, {r0, r8, ip, lr}
    3fb8:	401400c7 	andsmi	r0, r4, r7, asr #1
    3fbc:	b8000099 	stmdalt	r0, {r0, r3, r4, r7}
    3fc0:	61000005 	tstvs	r0, r5
    3fc4:	12000004 	andne	r0, r0, #4, 0
    3fc8:	0c055001 	stceq	0, cr5, [r5], {1}
    3fcc:	20215068 	eorcs	r5, r1, r8, rrx
    3fd0:	03510112 	cmpeq	r1, #-2147483644	; 0x80000004
    3fd4:	00010e0a 	andeq	r0, r1, sl, lsl #28
    3fd8:	00994c14 	addseq	r4, r9, r4, lsl ip
    3fdc:	0005b800 	andeq	fp, r5, r0, lsl #16
    3fe0:	00047a00 	andeq	r7, r4, r0, lsl #20
    3fe4:	50011200 	andpl	r1, r1, r0, lsl #4
    3fe8:	12007402 	andne	r7, r0, #33554432	; 0x2000000
    3fec:	33015101 	movwcc	r5, #4353	; 0x1101
    3ff0:	99500f00 	ldmdbls	r0, {r8, r9, sl, fp}^
    3ff4:	05a00000 	streq	r0, [r0, #0]!
    3ff8:	0e000000 	cdpeq	0, 0, cr0, cr0, cr0, {0}
    3ffc:	00000b40 	andeq	r0, r0, r0, asr #22
    4000:	50063501 	andpl	r3, r6, r1, lsl #10
    4004:	2400009a 	strcs	r0, [r0], #-154	; 0xffffff66
    4008:	01000000 	mrseq	r0, (UNDEF: 0)
    400c:	0004d39c 	muleq	r4, ip, r3
    4010:	9a580f00 	bls	1607c18 <__bss_end__+0x15fcda8>
    4014:	01940000 	orrseq	r0, r4, r0
    4018:	5c0f0000 	stcpl	0, cr0, [pc], {-0}
    401c:	a000009a 	mulge	r0, sl, r0
    4020:	14000005 	strne	r0, [r0], #-5
    4024:	00009a68 	andeq	r9, r0, r8, ror #20
    4028:	000004d3 	ldrdeq	r0, [r0], -r3
    402c:	000004c9 	andeq	r0, r0, r9, asr #9
    4030:	05500112 	ldrbeq	r0, [r0, #-274]	; 0xfffffeee
    4034:	2150040c 	cmpcs	r0, ip, lsl #8
    4038:	51011220 	tstpl	r1, r0, lsr #4
    403c:	00fe0902 	rscseq	r0, lr, r2, lsl #18
    4040:	009a6c0f 	addseq	r6, sl, pc, lsl #24
    4044:	0005a000 	andeq	sl, r5, r0
    4048:	7f170000 	svcvc	0x00170000
    404c:	0100000b 	tsteq	r0, fp
    4050:	98840d31 	stmls	r4, {r0, r4, r5, r8, sl, fp}
    4054:	00200000 	eoreq	r0, r0, r0
    4058:	9c010000 	stcls	0, cr0, [r1], {-0}
    405c:	00000536 	andeq	r0, r0, r6, lsr r5
    4060:	000bd918 	andeq	sp, fp, r8, lsl r9
    4064:	25310100 	ldrcs	r0, [r1, #-256]!	; 0xffffff00
    4068:	00000536 	andeq	r0, r0, r6, lsr r5
    406c:	0000194c 	andeq	r1, r0, ip, asr #18
    4070:	00001948 	andeq	r1, r0, r8, asr #18
    4074:	6c617613 	stclvs	6, cr7, [r1], #-76	; 0xffffffb4
    4078:	34310100 	ldrtcc	r0, [r1], #-256	; 0xffffff00
    407c:	0000002c 	andeq	r0, r0, ip, lsr #32
    4080:	0000196e 	andeq	r1, r0, lr, ror #18
    4084:	0000196a 	andeq	r1, r0, sl, ror #18
    4088:	00989414 	addseq	r9, r8, r4, lsl r4
    408c:	0005ac00 	andeq	sl, r5, r0, lsl #24
    4090:	00052500 	andeq	r2, r5, r0, lsl #10
    4094:	50011200 	andpl	r1, r1, r0, lsl #4
    4098:	00007402 	andeq	r7, r0, r2, lsl #8
    409c:	0098a011 	addseq	sl, r8, r1, lsl r0
    40a0:	0005b800 	andeq	fp, r5, r0, lsl #16
    40a4:	50011200 	andpl	r1, r1, r0, lsl #4
    40a8:	00007402 	andeq	r7, r0, r2, lsl #8
    40ac:	3c040c00 	stccc	12, cr0, [r4], {-0}
    40b0:	19000005 	stmdbne	r0, {r0, r2}
    40b4:	000b6a17 	andeq	r6, fp, r7, lsl sl
    40b8:	0d2e0100 	stfeqs	f0, [lr, #-0]
    40bc:	000098a4 	andeq	r9, r0, r4, lsr #17
    40c0:	00000020 	andeq	r0, r0, r0, lsr #32
    40c4:	05a09c01 	streq	r9, [r0, #3073]!	; 0xc01
    40c8:	d9180000 	ldmdble	r8, {}	; <UNPREDICTABLE>
    40cc:	0100000b 	tsteq	r0, fp
    40d0:	0536242e 	ldreq	r2, [r6, #-1070]!	; 0xfffffbd2
    40d4:	19900000 	ldmibne	r0, {}	; <UNPREDICTABLE>
    40d8:	198c0000 	stmibne	ip, {}	; <UNPREDICTABLE>
    40dc:	76130000 	ldrvc	r0, [r3], -r0
    40e0:	01006c61 	tsteq	r0, r1, ror #24
    40e4:	002c332e 	eoreq	r3, ip, lr, lsr #6
    40e8:	19b20000 	ldmibne	r2!, {}	; <UNPREDICTABLE>
    40ec:	19ae0000 	stmibne	lr!, {}	; <UNPREDICTABLE>
    40f0:	b4140000 	ldrlt	r0, [r4], #-0
    40f4:	ac000098 	stcge	0, cr0, [r0], {152}	; 0x98
    40f8:	8f000005 	svchi	0x00000005
    40fc:	12000005 	andne	r0, r0, #5, 0
    4100:	74025001 	strvc	r5, [r2], #-1
    4104:	c0110000 	andsgt	r0, r1, r0
    4108:	b8000098 	stmdalt	r0, {r3, r4, r7}
    410c:	12000005 	andne	r0, r0, #5, 0
    4110:	74025001 	strvc	r5, [r2], #-1
    4114:	1a000000 	bne	411c <__code_start__-0x3ee4>
    4118:	0000094d 	andeq	r0, r0, sp, asr #18
    411c:	0000094d 	andeq	r0, r0, sp, asr #18
    4120:	1a06a103 	bne	1ac534 <__bss_end__+0x1a16c4>
    4124:	00000bb4 			; <UNDEFINED> instruction: 0x00000bb4
    4128:	00000bb4 			; <UNDEFINED> instruction: 0x00000bb4
    412c:	1a0bc803 	bne	2f6140 <__bss_end__+0x2eb2d0>
    4130:	000009a8 	andeq	r0, r0, r8, lsr #19
    4134:	000009a8 	andeq	r0, r0, r8, lsr #19
    4138:	1a06b303 	bne	1b0d4c <__bss_end__+0x1a5edc>
    413c:	00000ba2 	andeq	r0, r0, r2, lsr #23
    4140:	00000ba2 	andeq	r0, r0, r2, lsr #23
    4144:	00061904 	andeq	r1, r6, r4, lsl #18
    4148:	000008e9 	andeq	r0, r0, r9, ror #17
    414c:	16620004 	strbtne	r0, [r2], -r4
    4150:	01040000 	mrseq	r0, (UNDEF: 4)
    4154:	00000aa8 	andeq	r0, r0, r8, lsr #21
    4158:	000c440c 	andeq	r4, ip, ip, lsl #8
    415c:	000a5800 	andeq	r5, sl, r0, lsl #16
    4160:	009a7400 	addseq	r7, sl, r0, lsl #8
    4164:	0003b000 	andeq	fp, r3, r0
    4168:	00228100 	eoreq	r8, r2, r0, lsl #2
    416c:	05040200 	streq	r0, [r4, #-512]	; 0xfffffe00
    4170:	00746e69 	rsbseq	r6, r4, r9, ror #28
    4174:	cd070403 	cfstrsgt	mvf0, [r7, #-12]
    4178:	03000000 	movweq	r0, #0
    417c:	00680601 	rsbeq	r0, r8, r1, lsl #12
    4180:	02030000 	andeq	r0, r3, #0, 0
    4184:	00018b05 	andeq	r8, r1, r5, lsl #22
    4188:	05040300 	streq	r0, [r4, #-768]	; 0xfffffd00
    418c:	00000150 	andeq	r0, r0, r0, asr r1
    4190:	4b050803 	blmi	1461a4 <__bss_end__+0x13b334>
    4194:	03000001 	movweq	r0, #1
    4198:	00660801 	rsbeq	r0, r6, r1, lsl #16
    419c:	02030000 	andeq	r0, r3, #0, 0
    41a0:	00008107 	andeq	r8, r0, r7, lsl #2
    41a4:	01a80400 			; <UNDEFINED> instruction: 0x01a80400
    41a8:	34030000 	strcc	r0, [r3], #-0
    41ac:	00006919 	andeq	r6, r0, r9, lsl r9
    41b0:	07040300 	streq	r0, [r4, -r0, lsl #6]
    41b4:	000000c8 	andeq	r0, r0, r8, asr #1
    41b8:	c3070803 	movwgt	r0, #30723	; 0x7803
    41bc:	03000000 	movweq	r0, #0
    41c0:	006f0801 	rsbeq	r0, pc, r1, lsl #16
    41c4:	77050000 	strvc	r0, [r5, -r0]
    41c8:	03000000 	movweq	r0, #0
    41cc:	03710408 	cmneq	r1, #8, 8	; 0x8000000
    41d0:	04060000 	streq	r0, [r6], #-0
    41d4:	2c040707 	stccs	7, cr0, [r4], {7}
    41d8:	01000000 	mrseq	r0, (UNDEF: 0)
    41dc:	00a4061f 	adceq	r0, r4, pc, lsl r6
    41e0:	de080000 	cdple	0, 0, cr0, cr8, cr0, {0}
    41e4:	0000000b 	andeq	r0, r0, fp
    41e8:	00002000 	andeq	r2, r0, r0
    41ec:	0007ae09 	andeq	sl, r7, r9, lsl #28
    41f0:	0d220100 	stfeqs	f0, [r2, #-0]
    41f4:	00000077 	andeq	r0, r0, r7, ror r0
    41f8:	0004c00a 	andeq	ip, r4, sl
    41fc:	0e230100 	sufeqs	f0, f3, f0
    4200:	000000c2 	andeq	r0, r0, r2, asr #1
    4204:	aa380305 	bge	e04e20 <__bss_end__+0xdf9fb0>
    4208:	040b0000 	streq	r0, [fp], #-0
    420c:	00000077 	andeq	r0, r0, r7, ror r0
    4210:	000bc20a 	andeq	ip, fp, sl, lsl #4
    4214:	0e240100 	sufeqs	f0, f4, f0
    4218:	000000c2 	andeq	r0, r0, r2, asr #1
    421c:	aa340305 	bge	d04e38 <__bss_end__+0xcf9fc8>
    4220:	230a0000 	movwcs	r0, #40960	; 0xa000
    4224:	0100000c 	tsteq	r0, ip
    4228:	00c20e25 	sbceq	r0, r2, r5, lsr #28
    422c:	03050000 	movweq	r0, #20480	; 0x5000
    4230:	0000aa30 	andeq	sl, r0, r0, lsr sl
    4234:	000bf90c 	andeq	pc, fp, ip, lsl #18
    4238:	06750100 	ldrbteq	r0, [r5], -r0, lsl #2
    423c:	00009dc4 	andeq	r9, r0, r4, asr #27
    4240:	00000060 	andeq	r0, r0, r0, rrx
    4244:	01649c01 	cmneq	r4, r1, lsl #24
    4248:	700d0000 	andvc	r0, sp, r0
    424c:	16750100 	ldrbtne	r0, [r5], -r0, lsl #2
    4250:	0000008a 	andeq	r0, r0, sl, lsl #1
    4254:	000019d6 	ldrdeq	r1, [r0], -r6
    4258:	000019d0 	ldrdeq	r1, [r0], -r0
    425c:	0000ab0e 	andeq	sl, r0, lr, lsl #22
    4260:	00017400 	andeq	r7, r1, r0, lsl #8
    4264:	18030500 	stmdane	r3, {r8, sl}
    4268:	0f0000aa 	svceq	0x000000aa
    426c:	00009e10 	andeq	r9, r0, r0, lsl lr
    4270:	000008bc 			; <UNDEFINED> instruction: 0x000008bc
    4274:	0000015a 	andeq	r0, r0, sl, asr r1
    4278:	05500110 	ldrbeq	r0, [r0, #-272]	; 0xfffffef0
    427c:	00a99003 	adceq	r9, r9, r3
    4280:	51011000 	mrspl	r1, (UNDEF: 1)
    4284:	a8280305 	stmdage	r8!, {r0, r2, r8, r9}
    4288:	01100000 	tsteq	r0, r0
    428c:	18030552 	stmdane	r3, {r1, r4, r6, r8, sl}
    4290:	100000aa 	andne	r0, r0, sl, lsr #1
    4294:	08025301 	stmdaeq	r2, {r0, r8, r9, ip, lr}
    4298:	7d021077 	stcvc	0, cr1, [r2, #-476]	; 0xfffffe24
    429c:	01f30300 	mvnseq	r0, r0, lsl #6
    42a0:	14110050 	ldrne	r0, [r1], #-80	; 0xffffffb0
    42a4:	c800009e 	stmdagt	r0, {r1, r2, r3, r4, r7}
    42a8:	00000008 	andeq	r0, r0, r8
    42ac:	00007e12 	andeq	r7, r0, r2, lsl lr
    42b0:	00017400 	andeq	r7, r1, r0, lsl #8
    42b4:	002c1300 	eoreq	r1, ip, r0, lsl #6
    42b8:	00090000 	andeq	r0, r9, r0
    42bc:	00016405 	andeq	r6, r1, r5, lsl #8
    42c0:	0be71400 	bleq	ff9c92c8 <__bss_end__+0xff9be458>
    42c4:	72010000 	andvc	r0, r1, #0, 0
    42c8:	009db006 	addseq	fp, sp, r6
    42cc:	00001400 	andeq	r1, r0, r0, lsl #8
    42d0:	0c9c0100 	ldfeqs	f0, [ip], {0}
    42d4:	00000185 	andeq	r0, r0, r5, lsl #3
    42d8:	ac066f01 	stcge	15, cr6, [r6], {1}
    42dc:	0400009d 	streq	r0, [r0], #-157	; 0xffffff63
    42e0:	01000000 	mrseq	r0, (UNDEF: 0)
    42e4:	0001ae9c 	muleq	r1, ip, lr
    42e8:	00701500 	rsbseq	r1, r0, r0, lsl #10
    42ec:	8a126f01 	bhi	49fef8 <__bss_end__+0x495088>
    42f0:	01000000 	mrseq	r0, (UNDEF: 0)
    42f4:	86160050 			; <UNDEFINED> instruction: 0x86160050
    42f8:	0100000c 	tsteq	r0, ip
    42fc:	008a075e 	addeq	r0, sl, lr, asr r7
    4300:	9c940000 	ldcls	0, cr0, [r4], {0}
    4304:	01180000 	tsteq	r8, r0
    4308:	9c010000 	stcls	0, cr0, [r1], {-0}
    430c:	0000042c 	andeq	r0, r0, ip, lsr #8
    4310:	0003b117 	andeq	fp, r3, r7, lsl r1
    4314:	205e0100 	subscs	r0, lr, r0, lsl #2
    4318:	0000002c 	andeq	r0, r0, ip, lsr #32
    431c:	00001a17 	andeq	r1, r0, r7, lsl sl
    4320:	00001a03 	andeq	r1, r0, r3, lsl #20
    4324:	000c0317 	andeq	r0, ip, r7, lsl r3
    4328:	315e0100 	cmpcc	lr, r0, lsl #2
    432c:	0000002c 	andeq	r0, r0, ip, lsr #32
    4330:	00001ab0 			; <UNDEFINED> instruction: 0x00001ab0
    4334:	00001a9c 	muleq	r0, ip, sl
    4338:	0000ab0e 	andeq	sl, r0, lr, lsl #22
    433c:	00043c00 	andeq	r3, r4, r0, lsl #24
    4340:	00030500 	andeq	r0, r3, r0, lsl #10
    4344:	180000aa 	stmdane	r0, {r1, r3, r5, r7}
    4348:	66010068 	strvs	r0, [r1], -r8, rrx
    434c:	00002c0e 	andeq	r2, r0, lr, lsl #24
    4350:	001b6600 	andseq	r6, fp, r0, lsl #12
    4354:	001b5a00 	andseq	r5, fp, r0, lsl #20
    4358:	08541900 	ldmdaeq	r4, {r8, fp, ip}^
    435c:	9ca40000 	stcls	0, cr0, [r4]
    4360:	a4040000 	strge	r0, [r4], #-0
    4364:	0400009c 	streq	r0, [r0], #-156	; 0xffffff64
    4368:	01000000 	mrseq	r0, (UNDEF: 0)
    436c:	02380560 	eorseq	r0, r8, #96, 10	; 0x18000000
    4370:	651a0000 	ldrvs	r0, [sl, #-0]
    4374:	ba000008 	blt	439c <__code_start__-0x3c64>
    4378:	b800001b 	stmdalt	r0, {r0, r1, r3, r4}
    437c:	0000001b 	andeq	r0, r0, fp, lsl r0
    4380:	00089619 	andeq	r9, r8, r9, lsl r6
    4384:	009cb000 	addseq	fp, ip, r0
    4388:	9cb00200 	lfmls	f0, 4, [r0]
    438c:	00080000 	andeq	r0, r8, r0
    4390:	61010000 	mrsvs	r0, (UNDEF: 1)
    4394:	00026c11 	andeq	r6, r2, r1, lsl ip
    4398:	08b11a00 	ldmeq	r1!, {r9, fp, ip}
    439c:	1bcf0000 	blne	ff3c43a4 <__bss_end__+0xff3b9534>
    43a0:	1bcd0000 	blne	ff3443a8 <__bss_end__+0xff339538>
    43a4:	a71a0000 	ldrge	r0, [sl, -r0]
    43a8:	e5000008 	str	r0, [r0, #-8]
    43ac:	e300001b 	movw	r0, #27
    43b0:	0000001b 	andeq	r0, r0, fp, lsl r0
    43b4:	00081f1b 	andeq	r1, r8, fp, lsl pc
    43b8:	009cc000 	addseq	ip, ip, r0
    43bc:	00c00100 	sbceq	r0, r0, r0, lsl #2
    43c0:	67010000 	strvs	r0, [r1, -r0]
    43c4:	00030a09 	andeq	r0, r3, r9, lsl #20
    43c8:	083a1a00 	ldmdaeq	sl!, {r9, fp, ip}
    43cc:	1bfe0000 	blne	fff843d4 <__bss_end__+0xfff79564>
    43d0:	1bf80000 	blne	ffe043d8 <__bss_end__+0xffdf9568>
    43d4:	301a0000 	andscc	r0, sl, r0
    43d8:	45000008 	strmi	r0, [r0, #-8]
    43dc:	3d00001c 	stccc	0, cr0, [r0, #-112]	; 0xffffff90
    43e0:	1c00001c 	stcne	0, cr0, [r0], {28}
    43e4:	000000c0 	andeq	r0, r0, r0, asr #1
    43e8:	00085419 	andeq	r5, r8, r9, lsl r4
    43ec:	009cc000 	addseq	ip, ip, r0
    43f0:	9cc00400 	cfstrdls	mvd0, [r0], {0}
    43f4:	00040000 	andeq	r0, r4, r0
    43f8:	11010000 	mrsne	r0, (UNDEF: 1)
    43fc:	0002c705 	andeq	ip, r2, r5, lsl #14
    4400:	08651a00 	stmdaeq	r5!, {r9, fp, ip}^
    4404:	1c830000 	stcne	0, cr0, [r3], {0}
    4408:	1c810000 	stcne	0, cr0, [r1], {0}
    440c:	0f000000 	svceq	0x00000000
    4410:	00009d58 	andeq	r9, r0, r8, asr sp
    4414:	000008bc 			; <UNDEFINED> instruction: 0x000008bc
    4418:	000002ff 	strdeq	r0, [r0], -pc	; <UNPREDICTABLE>
    441c:	05500110 	ldrbeq	r0, [r0, #-272]	; 0xfffffef0
    4420:	00a0e003 	adceq	lr, r0, r3
    4424:	51011000 	mrspl	r1, (UNDEF: 1)
    4428:	a8280305 	stmdage	r8!, {r0, r2, r8, r9}
    442c:	01100000 	tsteq	r0, r0
    4430:	10030552 	andne	r0, r3, r2, asr r5
    4434:	100000aa 	andne	r0, r0, sl, lsr #1
    4438:	41015301 	tstmi	r1, r1, lsl #6
    443c:	007d0210 	rsbseq	r0, sp, r0, lsl r2
    4440:	a93c0305 	ldmdbge	ip!, {r0, r2, r8, r9}
    4444:	11000000 	mrsne	r0, (UNDEF: 0)
    4448:	00009d5c 	andeq	r9, r0, ip, asr sp
    444c:	000008c8 	andeq	r0, r0, r8, asr #17
    4450:	70190000 	andsvc	r0, r9, r0
    4454:	d8000008 	stmdale	r0, {r3}
    4458:	0300009c 	movweq	r0, #156	; 0x9c
    445c:	00009cd8 	ldrdeq	r9, [r0], -r8
    4460:	00000004 	andeq	r0, r0, r4
    4464:	3e056801 	cdpcc	8, 0, cr6, cr5, cr1, {0}
    4468:	1a000003 	bne	447c <__code_start__-0x3b84>
    446c:	0000088b 	andeq	r0, r0, fp, lsl #17
    4470:	00001c98 	muleq	r0, r8, ip
    4474:	00001c96 	muleq	r0, r6, ip
    4478:	0008811a 	andeq	r8, r8, sl, lsl r1
    447c:	001cad00 	andseq	sl, ip, r0, lsl #26
    4480:	001cab00 	andseq	sl, ip, r0, lsl #22
    4484:	f00f0000 			; <UNDEFINED> instruction: 0xf00f0000
    4488:	4100009c 	swpmi	r0, ip, [r0]	; <UNPREDICTABLE>
    448c:	53000004 	movwpl	r0, #4
    4490:	10000003 	andne	r0, r0, r3
    4494:	f3035001 	vhadd.u8	d5, d3, d1
    4498:	0f005001 	svceq	0x00005001
    449c:	00009d14 	andeq	r9, r0, r4, lsl sp
    44a0:	000008bc 			; <UNDEFINED> instruction: 0x000008bc
    44a4:	0000038c 	andeq	r0, r0, ip, lsl #7
    44a8:	05500110 	ldrbeq	r0, [r0, #-272]	; 0xfffffef0
    44ac:	00a0e003 	adceq	lr, r0, r3
    44b0:	51011000 	mrspl	r1, (UNDEF: 1)
    44b4:	a8280305 	stmdage	r8!, {r0, r2, r8, r9}
    44b8:	01100000 	tsteq	r0, r0
    44bc:	00030552 	andeq	r0, r3, r2, asr r5
    44c0:	100000aa 	andne	r0, r0, sl, lsr #1
    44c4:	08025301 	stmdaeq	r2, {r0, r8, r9, ip, lr}
    44c8:	7d02105f 	stcvc	0, cr1, [r2, #-380]	; 0xfffffe84
    44cc:	38030500 	stmdacc	r3, {r8, sl}
    44d0:	000000a8 	andeq	r0, r0, r8, lsr #1
    44d4:	009d1811 	addseq	r1, sp, r1, lsl r8
    44d8:	0008c800 	andeq	ip, r8, r0, lsl #16
    44dc:	9d1c1100 	ldflss	f1, [ip, #-0]
    44e0:	08d40000 	ldmeq	r4, {}^	; <UNPREDICTABLE>
    44e4:	380f0000 	stmdacc	pc, {}	; <UNPREDICTABLE>
    44e8:	bc00009d 	stclt	0, cr0, [r0], {157}	; 0x9d
    44ec:	d7000008 	strle	r0, [r0, -r8]
    44f0:	10000003 	andne	r0, r0, r3
    44f4:	03055001 	movweq	r5, #20481	; 0x5001
    44f8:	0000a8f4 	strdeq	sl, [r0], -r4
    44fc:	05510110 	ldrbeq	r0, [r1, #-272]	; 0xfffffef0
    4500:	00a82803 	adceq	r2, r8, r3, lsl #16
    4504:	52011000 	andpl	r1, r1, #0, 0
    4508:	aa000305 	bge	5124 <__code_start__-0x2edc>
    450c:	01100000 	tsteq	r0, r0
    4510:	60080253 	andvs	r0, r8, r3, asr r2
    4514:	007d0210 	rsbseq	r0, sp, r0, lsl r2
    4518:	a9280305 	stmdbge	r8!, {r0, r2, r8, r9}
    451c:	11000000 	mrsne	r0, (UNDEF: 0)
    4520:	00009d3c 	andeq	r9, r0, ip, lsr sp
    4524:	000008c8 	andeq	r0, r0, r8, asr #17
    4528:	009d6011 	addseq	r6, sp, r1, lsl r0
    452c:	0008d400 	andeq	sp, r8, r0, lsl #8
    4530:	9d7c0f00 	ldclls	15, cr0, [ip, #-0]
    4534:	08bc0000 	ldmeq	ip!, {}	; <UNPREDICTABLE>
    4538:	04220000 	strteq	r0, [r2], #-0
    453c:	01100000 	tsteq	r0, r0
    4540:	48030550 	stmdami	r3, {r4, r6, r8, sl}
    4544:	100000a9 	andne	r0, r0, r9, lsr #1
    4548:	03055101 	movweq	r5, #20737	; 0x5101
    454c:	0000a828 	andeq	sl, r0, r8, lsr #16
    4550:	05520110 	ldrbeq	r0, [r2, #-272]	; 0xfffffef0
    4554:	00aa0003 	adceq	r0, sl, r3
    4558:	53011000 	movwpl	r1, #4096	; 0x1000
    455c:	10680802 	rsbne	r0, r8, r2, lsl #16
    4560:	05007d02 	streq	r7, [r0, #-3330]	; 0xfffff2fe
    4564:	00a97403 	adceq	r7, r9, r3, lsl #8
    4568:	80110000 	andshi	r0, r1, r0
    456c:	c800009d 	stmdagt	r0, {r0, r2, r3, r4, r7}
    4570:	00000008 	andeq	r0, r0, r8
    4574:	00007e12 	andeq	r7, r0, r2, lsl lr
    4578:	00043c00 	andeq	r3, r4, r0, lsl #24
    457c:	002c1300 	eoreq	r1, ip, r0, lsl #6
    4580:	000f0000 	andeq	r0, pc, r0
    4584:	00042c05 	andeq	r2, r4, r5, lsl #24
    4588:	04f11600 	ldrbteq	r1, [r1], #1536	; 0x600
    458c:	53010000 	movwpl	r0, #4096	; 0x1000
    4590:	00008a07 	andeq	r8, r0, r7, lsl #20
    4594:	009c3000 	addseq	r3, ip, r0
    4598:	00006400 	andeq	r6, r0, r0, lsl #8
    459c:	089c0100 	ldmeq	ip, {r8}
    45a0:	17000005 	strne	r0, [r0, -r5]
    45a4:	000003b1 			; <UNDEFINED> instruction: 0x000003b1
    45a8:	2c185301 	ldccs	3, cr5, [r8], {1}
    45ac:	c8000000 	stmdagt	r0, {}	; <UNPREDICTABLE>
    45b0:	c000001c 	andgt	r0, r0, ip, lsl r0
    45b4:	0e00001c 	mcreq	0, 0, r0, cr0, cr12, {0}
    45b8:	000000ab 	andeq	r0, r0, fp, lsr #1
    45bc:	00000518 	andeq	r0, r0, r8, lsl r5
    45c0:	a9f80305 	ldmibge	r8!, {r0, r2, r8, r9}^
    45c4:	d91d0000 	ldmdble	sp, {}	; <UNPREDICTABLE>
    45c8:	0100000b 	tsteq	r0, fp
    45cc:	008a0b55 	addeq	r0, sl, r5, asr fp
    45d0:	1d000000 	stcne	0, cr0, [r0, #-0]
    45d4:	1cfc0000 	ldclne	0, cr0, [ip]
    45d8:	480f0000 	stmdami	pc, {}	; <UNPREDICTABLE>
    45dc:	1d00009c 	stcne	0, cr0, [r0, #-624]	; 0xfffffd90
    45e0:	a6000005 	strge	r0, [r0], -r5
    45e4:	10000004 	andne	r0, r0, r4
    45e8:	74025001 	strvc	r5, [r2], #-1
    45ec:	580f0000 	stmdapl	pc, {}	; <UNPREDICTABLE>
    45f0:	e000009c 	mul	r0, ip, r0
    45f4:	c5000008 	strgt	r0, [r0, #-8]
    45f8:	10000004 	andne	r0, r0, r4
    45fc:	75025001 	strvc	r5, [r2, #-1]
    4600:	51011000 	mrspl	r1, (UNDEF: 1)
    4604:	01103001 	tsteq	r0, r1
    4608:	00740252 	rsbseq	r0, r4, r2, asr r2
    460c:	9c800f00 	stcls	15, cr0, [r0], {0}
    4610:	08bc0000 	ldmeq	ip!, {}	; <UNPREDICTABLE>
    4614:	04fe0000 	ldrbteq	r0, [lr], #0
    4618:	01100000 	tsteq	r0, r0
    461c:	e0030550 	and	r0, r3, r0, asr r5
    4620:	100000a0 	andne	r0, r0, r0, lsr #1
    4624:	03055101 	movweq	r5, #20737	; 0x5101
    4628:	0000a828 	andeq	sl, r0, r8, lsr #16
    462c:	05520110 	ldrbeq	r0, [r2, #-272]	; 0xfffffef0
    4630:	00a9f803 	adceq	pc, r9, r3, lsl #16
    4634:	53011000 	movwpl	r1, #4096	; 0x1000
    4638:	10540802 	subsne	r0, r4, r2, lsl #16
    463c:	05007d02 	streq	r7, [r0, #-3330]	; 0xfffff2fe
    4640:	00a83803 	adceq	r3, r8, r3, lsl #16
    4644:	84110000 	ldrhi	r0, [r1], #-0
    4648:	c800009c 	stmdagt	r0, {r2, r3, r4, r7}
    464c:	00000008 	andeq	r0, r0, r8
    4650:	00007e12 	andeq	r7, r0, r2, lsl lr
    4654:	00051800 	andeq	r1, r5, r0, lsl #16
    4658:	002c1300 	eoreq	r1, ip, r0, lsl #6
    465c:	00070000 	andeq	r0, r7, r0
    4660:	00050805 	andeq	r0, r5, r5, lsl #16
    4664:	0c2c1600 	stceq	6, cr1, [ip], #-0
    4668:	47010000 	strmi	r0, [r1, -r0]
    466c:	00008a07 	andeq	r8, r0, r7, lsl #20
    4670:	009b9800 	addseq	r9, fp, r0, lsl #16
    4674:	00009800 	andeq	r9, r0, r0, lsl #16
    4678:	2b9c0100 	blcs	fe704a80 <__bss_end__+0xfe6f9c10>
    467c:	17000006 	strne	r0, [r0, -r6]
    4680:	000003b1 			; <UNDEFINED> instruction: 0x000003b1
    4684:	2c204701 	stccs	7, cr4, [r0], #-4
    4688:	2e000000 	cdpcs	0, 0, cr0, cr0, cr0, {0}
    468c:	1e00001d 	mcrne	0, 0, r0, cr0, cr13, {0}
    4690:	0e00001d 	mcreq	0, 0, r0, cr0, cr13, {0}
    4694:	000000ab 	andeq	r0, r0, fp, lsr #1
    4698:	0000043c 	andeq	r0, r0, ip, lsr r4
    469c:	a9e80305 	stmibge	r8!, {r0, r2, r8, r9}^
    46a0:	d91d0000 	ldmdble	sp, {}	; <UNPREDICTABLE>
    46a4:	0100000b 	tsteq	r0, fp
    46a8:	008a0b4b 	addeq	r0, sl, fp, asr #22
    46ac:	1da20000 	stcne	0, cr0, [r2]
    46b0:	1d9c0000 	ldcne	0, cr0, [ip]
    46b4:	1f1b0000 	svcne	0x001b0000
    46b8:	a8000008 	stmdage	r0, {r3}
    46bc:	0300009b 	movweq	r0, #155	; 0x9b
    46c0:	000000a8 	andeq	r0, r0, r8, lsr #1
    46c4:	a30e4901 	movwge	r4, #59649	; 0xe901
    46c8:	1a000005 	bne	46e4 <__code_start__-0x391c>
    46cc:	0000083a 	andeq	r0, r0, sl, lsr r8
    46d0:	00001dd1 	ldrdeq	r1, [r0], -r1	; <UNPREDICTABLE>
    46d4:	00001dcf 	andeq	r1, r0, pc, asr #27
    46d8:	0008301a 	andeq	r3, r8, sl, lsl r0
    46dc:	001de900 	andseq	lr, sp, r0, lsl #18
    46e0:	001de500 	andseq	lr, sp, r0, lsl #10
    46e4:	00a81e00 	adceq	r1, r8, r0, lsl #28
    46e8:	0f000000 	svceq	0x00000000
    46ec:	00009bf0 	strdeq	r9, [r0], -r0
    46f0:	000008bc 			; <UNDEFINED> instruction: 0x000008bc
    46f4:	000005dc 	ldrdeq	r0, [r0], -ip
    46f8:	05500110 	ldrbeq	r0, [r0, #-272]	; 0xfffffef0
    46fc:	00a0e003 	adceq	lr, r0, r3
    4700:	51011000 	mrspl	r1, (UNDEF: 1)
    4704:	a8280305 	stmdage	r8!, {r0, r2, r8, r9}
    4708:	01100000 	tsteq	r0, r0
    470c:	e8030552 	stmda	r3, {r1, r4, r6, r8, sl}
    4710:	100000a9 	andne	r0, r0, r9, lsr #1
    4714:	08025301 	stmdaeq	r2, {r0, r8, r9, ip, lr}
    4718:	7d021048 	stcvc	0, cr1, [r2, #-288]	; 0xfffffee0
    471c:	38030500 	stmdacc	r3, {r8, sl}
    4720:	000000a8 	andeq	r0, r0, r8, lsr #1
    4724:	009bf411 	addseq	pc, fp, r1, lsl r4	; <UNPREDICTABLE>
    4728:	0008c800 	andeq	ip, r8, r0, lsl #16
    472c:	9c140f00 	ldcls	15, cr0, [r4], {-0}
    4730:	08bc0000 	ldmeq	ip!, {}	; <UNPREDICTABLE>
    4734:	06210000 	strteq	r0, [r1], -r0
    4738:	01100000 	tsteq	r0, r0
    473c:	b4030550 	strlt	r0, [r3], #-1360	; 0xfffffab0
    4740:	100000a8 	andne	r0, r0, r8, lsr #1
    4744:	03055101 	movweq	r5, #20737	; 0x5101
    4748:	0000a828 	andeq	sl, r0, r8, lsr #16
    474c:	05520110 	ldrbeq	r0, [r2, #-272]	; 0xfffffef0
    4750:	00a9e803 	adceq	lr, r9, r3, lsl #16
    4754:	53011000 	movwpl	r1, #4096	; 0x1000
    4758:	104e0802 	subne	r0, lr, r2, lsl #16
    475c:	08007d02 	stmdaeq	r0, {r1, r8, sl, fp, ip, sp, lr}
    4760:	235001f3 	cmpcs	r0, #-1073741764	; 0xc000003c
    4764:	1af80907 	bne	ffe06b88 <__bss_end__+0xffdfbd18>
    4768:	9c181100 	ldflss	f1, [r8], {-0}
    476c:	08c80000 	stmiaeq	r8, {}^	; <UNPREDICTABLE>
    4770:	0c000000 	stceq	0, cr0, [r0], {-0}
    4774:	00000c4e 	andeq	r0, r0, lr, asr #24
    4778:	40063c01 	andmi	r3, r6, r1, lsl #24
    477c:	5800009b 	stmdapl	r0, {r0, r1, r3, r4, r7}
    4780:	01000000 	mrseq	r0, (UNDEF: 0)
    4784:	0006cf9c 	muleq	r6, ip, pc	; <UNPREDICTABLE>
    4788:	042b0a00 	strteq	r0, [fp], #-2560	; 0xfffff600
    478c:	3d010000 	stccc	0, cr0, [r1, #-0]
    4790:	00002510 	andeq	r2, r0, r0, lsl r5
    4794:	68030500 	stmdavs	r3, {r8, sl}
    4798:	0e0000ae 	cdpeq	0, 0, cr0, cr0, cr14, {5}
    479c:	000000ab 	andeq	r0, r0, fp, lsr #1
    47a0:	000006df 	ldrdeq	r0, [r0], -pc	; <UNPREDICTABLE>
    47a4:	a9d80305 	ldmibge	r8, {r0, r2, r8, r9}^
    47a8:	07070000 	streq	r0, [r7, -r0]
    47ac:	00002c04 	andeq	r2, r0, r4, lsl #24
    47b0:	0a420100 	beq	1084bb8 <__bss_end__+0x1079d48>
    47b4:	0000067a 	andeq	r0, r0, sl, ror r6
    47b8:	000c1508 	andeq	r1, ip, r8, lsl #10
    47bc:	10000000 	andne	r0, r0, r0
    47c0:	6c0f0000 	stcvs	0, cr0, [pc], {-0}
    47c4:	e400009b 	str	r0, [r0], #-155	; 0xffffff65
    47c8:	96000006 	strls	r0, [r0], -r6
    47cc:	10000006 	andne	r0, r0, r6
    47d0:	40035001 	andmi	r5, r3, r1
    47d4:	01102440 	tsteq	r0, r0, asr #8
    47d8:	48400351 	stmdami	r0, {r0, r4, r6, r8, r9}^
    47dc:	840f0024 	strhi	r0, [pc], #-36	; 47e4 <__code_start__-0x381c>
    47e0:	bc00009b 	stclt	0, cr0, [r0], {155}	; 0x9b
    47e4:	c5000008 	strgt	r0, [r0, #-8]
    47e8:	10000006 	andne	r0, r0, r6
    47ec:	03055001 	movweq	r5, #20481	; 0x5001
    47f0:	0000a884 	andeq	sl, r0, r4, lsl #17
    47f4:	05510110 	ldrbeq	r0, [r1, #-272]	; 0xfffffef0
    47f8:	00a82803 	adceq	r2, r8, r3, lsl #16
    47fc:	52011000 	andpl	r1, r1, #0, 0
    4800:	a9d80305 	ldmibge	r8, {r0, r2, r8, r9}^
    4804:	01100000 	tsteq	r0, r0
    4808:	40080253 	andmi	r0, r8, r3, asr r2
    480c:	9b881100 	blls	fe208c14 <__bss_end__+0xfe1fdda4>
    4810:	08c80000 	stmiaeq	r8, {}^	; <UNPREDICTABLE>
    4814:	12000000 	andne	r0, r0, #0, 0
    4818:	0000007e 	andeq	r0, r0, lr, ror r0
    481c:	000006df 	ldrdeq	r0, [r0], -pc	; <UNPREDICTABLE>
    4820:	00002c13 	andeq	r2, r0, r3, lsl ip
    4824:	05000c00 	streq	r0, [r0, #-3072]	; 0xfffff400
    4828:	000006cf 	andeq	r0, r0, pc, asr #13
    482c:	0004f90c 	andeq	pc, r4, ip, lsl #18
    4830:	062d0100 	strteq	r0, [sp], -r0, lsl #2
    4834:	00009aa4 	andeq	r9, r0, r4, lsr #21
    4838:	0000009c 	muleq	r0, ip, r0
    483c:	07c89c01 	strbeq	r9, [r8, r1, lsl #24]
    4840:	d8170000 	ldmdale	r7, {}	; <UNPREDICTABLE>
    4844:	0100000b 	tsteq	r0, fp
    4848:	002c262d 	eoreq	r2, ip, sp, lsr #12
    484c:	1e170000 	cdpne	0, 1, cr0, cr7, cr0, {0}
    4850:	1e090000 	cdpne	0, 0, cr0, cr9, cr0, {0}
    4854:	cd170000 	ldcgt	0, cr0, [r7, #-0]
    4858:	0100000b 	tsteq	r0, fp
    485c:	002c362d 	eoreq	r3, ip, sp, lsr #12
    4860:	1e7f0000 	cdpne	0, 7, cr0, cr15, cr0, {0}
    4864:	1e770000 	cdpne	0, 7, cr0, cr7, cr0, {0}
    4868:	d91d0000 	ldmdble	sp, {}	; <UNPREDICTABLE>
    486c:	0100000b 	tsteq	r0, fp
    4870:	00c20b2e 	sbceq	r0, r2, lr, lsr #22
    4874:	1ec70000 	cdpne	0, 12, cr0, cr7, cr0, {0}
    4878:	1eb90000 	cdpne	0, 11, cr0, cr9, cr0, {0}
    487c:	ab0e0000 	blge	384884 <__bss_end__+0x379a14>
    4880:	d8000000 	stmdale	r0, {}	; <UNPREDICTABLE>
    4884:	05000007 	streq	r0, [r0, #-7]
    4888:	00a9c003 	adceq	ip, r9, r3
    488c:	9afc0f00 	bls	fff08494 <__bss_end__+0xffefd624>
    4890:	08bc0000 	ldmeq	ip!, {}	; <UNPREDICTABLE>
    4894:	077e0000 	ldrbeq	r0, [lr, -r0]!
    4898:	01100000 	tsteq	r0, r0
    489c:	e0030550 	and	r0, r3, r0, asr r5
    48a0:	100000a0 	andne	r0, r0, r0, lsr #1
    48a4:	03055101 	movweq	r5, #20737	; 0x5101
    48a8:	0000a828 	andeq	sl, r0, r8, lsr #16
    48ac:	05520110 	ldrbeq	r0, [r2, #-272]	; 0xfffffef0
    48b0:	00a9c003 	adceq	ip, r9, r3
    48b4:	53011000 	movwpl	r1, #4096	; 0x1000
    48b8:	10300802 	eorsne	r0, r0, r2, lsl #16
    48bc:	05007d02 	streq	r7, [r0, #-3330]	; 0xfffff2fe
    48c0:	00a83403 	adceq	r3, r8, r3, lsl #8
    48c4:	00110000 	andseq	r0, r1, r0
    48c8:	c800009b 	stmdagt	r0, {r0, r1, r3, r4, r7}
    48cc:	0f000008 	svceq	0x00000008
    48d0:	00009b24 	andeq	r9, r0, r4, lsr #22
    48d4:	000008bc 			; <UNDEFINED> instruction: 0x000008bc
    48d8:	000007be 			; <UNDEFINED> instruction: 0x000007be
    48dc:	05500110 	ldrbeq	r0, [r0, #-272]	; 0xfffffef0
    48e0:	00a84003 	adceq	r4, r8, r3
    48e4:	51011000 	mrspl	r1, (UNDEF: 1)
    48e8:	a8280305 	stmdage	r8!, {r0, r2, r8, r9}
    48ec:	01100000 	tsteq	r0, r0
    48f0:	c0030552 	andgt	r0, r3, r2, asr r5
    48f4:	100000a9 	andne	r0, r0, r9, lsr #1
    48f8:	08025301 	stmdaeq	r2, {r0, r8, r9, ip, lr}
    48fc:	7d021034 	stcvc	0, cr1, [r2, #-208]	; 0xffffff30
    4900:	01f30300 	mvnseq	r0, r0, lsl #6
    4904:	28110050 	ldmdacs	r1, {r4, r6}
    4908:	c800009b 	stmdagt	r0, {r0, r1, r3, r4, r7}
    490c:	00000008 	andeq	r0, r0, r8
    4910:	00007e12 	andeq	r7, r0, r2, lsl lr
    4914:	0007d800 	andeq	sp, r7, r0, lsl #16
    4918:	002c1300 	eoreq	r1, ip, r0, lsl #6
    491c:	00160000 	andseq	r0, r6, r0
    4920:	0007c805 	andeq	ip, r7, r5, lsl #16
    4924:	0c661f00 	stcleq	15, cr1, [r6], #-0
    4928:	2a010000 	bcs	44930 <__bss_end__+0x39ac0>
    492c:	00008a07 	andeq	r8, r0, r7, lsl #20
    4930:	009a9400 	addseq	r9, sl, r0, lsl #8
    4934:	00001000 	andeq	r1, r0, r0
    4938:	1f9c0100 	svcne	0x009c0100
    493c:	00000bba 			; <UNDEFINED> instruction: 0x00000bba
    4940:	8a072901 	bhi	1ced4c <__bss_end__+0x1c3edc>
    4944:	84000000 	strhi	r0, [r0], #-0
    4948:	1000009a 	mulne	r0, sl, r0
    494c:	01000000 	mrseq	r0, (UNDEF: 0)
    4950:	0c1b1f9c 	ldceq	15, cr1, [fp], {156}	; 0x9c
    4954:	28010000 	stmdacs	r1, {}	; <UNPREDICTABLE>
    4958:	00008a07 	andeq	r8, r0, r7, lsl #20
    495c:	009a7400 	addseq	r7, sl, r0, lsl #8
    4960:	00001000 	andeq	r1, r0, r0
    4964:	209c0100 	addscs	r0, ip, r0, lsl #2
    4968:	00000bf1 	strdeq	r0, [r0], -r1
    496c:	2c181001 	ldccs	0, cr1, [r8], {1}
    4970:	03000000 	movweq	r0, #0
    4974:	00000854 	andeq	r0, r0, r4, asr r8
    4978:	01007821 	tsteq	r0, r1, lsr #16
    497c:	002c2910 	eoreq	r2, ip, r0, lsl r9
    4980:	6e210000 	cdpvs	0, 2, cr0, cr1, cr0, {0}
    4984:	35100100 	ldrcc	r0, [r0, #-256]	; 0xffffff00
    4988:	0000002c 	andeq	r0, r0, ip, lsr #32
    498c:	0000ab0e 	andeq	sl, r0, lr, lsl #22
    4990:	00051800 	andeq	r1, r5, r0, lsl #16
    4994:	10030500 	andne	r0, r3, r0, lsl #10
    4998:	000000aa 	andeq	r0, r0, sl, lsr #1
    499c:	000c3c20 	andeq	r3, ip, r0, lsr #24
    49a0:	180d0100 	stmdane	sp, {r8}
    49a4:	0000002c 	andeq	r0, r0, ip, lsr #32
    49a8:	00087003 	andeq	r7, r8, r3
    49ac:	00782100 	rsbseq	r2, r8, r0, lsl #2
    49b0:	2c290d01 	stccs	13, cr0, [r9], #-4
    49b4:	00000000 	andeq	r0, r0, r0
    49b8:	000c5b20 	andeq	r5, ip, r0, lsr #22
    49bc:	18070100 	stmdane	r7, {r8}
    49c0:	0000002c 	andeq	r0, r0, ip, lsr #32
    49c4:	00089603 	andeq	r9, r8, r3, lsl #12
    49c8:	00782100 	rsbseq	r2, r8, r0, lsl #2
    49cc:	2c2c0701 	stccs	7, cr0, [ip], #-4
    49d0:	21000000 	mrscs	r0, (UNDEF: 0)
    49d4:	0701006e 	streq	r0, [r1, -lr, rrx]
    49d8:	00002c38 	andeq	r2, r0, r8, lsr ip
    49dc:	0d200000 	stceq	0, cr0, [r0, #-0]
    49e0:	0100000c 	tsteq	r0, ip
    49e4:	005d1804 	subseq	r1, sp, r4, lsl #16
    49e8:	bc030000 	stclt	0, cr0, [r3], {-0}
    49ec:	21000008 	tstcs	r0, r8
    49f0:	04010078 	streq	r0, [r1], #-120	; 0xffffff88
    49f4:	00005d29 	andeq	r5, r0, r9, lsr #26
    49f8:	00792100 	rsbseq	r2, r9, r0, lsl #2
    49fc:	5d350401 	cfldrspl	mvf0, [r5, #-4]!
    4a00:	00000000 	andeq	r0, r0, r0
    4a04:	0006eb22 	andeq	lr, r6, r2, lsr #22
    4a08:	0006eb00 	andeq	lr, r6, r0, lsl #22
    4a0c:	06280200 	strteq	r0, [r8], -r0, lsl #4
    4a10:	00007422 	andeq	r7, r0, r2, lsr #8
    4a14:	00007400 	andeq	r7, r0, r0, lsl #8
    4a18:	066e0200 	strbteq	r0, [lr], -r0, lsl #4
    4a1c:	000c7722 	andeq	r7, ip, r2, lsr #14
    4a20:	000c7700 	andeq	r7, ip, r0, lsl #14
    4a24:	061d0200 	ldreq	r0, [sp], -r0, lsl #4
    4a28:	00031322 	andeq	r1, r3, r2, lsr #6
    4a2c:	00031300 	andeq	r1, r3, r0, lsl #6
    4a30:	07f70200 	ldrbeq	r0, [r7, r0, lsl #4]!
    4a34:	00014900 	andeq	r4, r1, r0, lsl #18
    4a38:	85000400 	strhi	r0, [r0, #-1024]	; 0xfffffc00
    4a3c:	04000018 	streq	r0, [r0], #-24	; 0xffffffe8
    4a40:	00059a01 	andeq	r9, r5, r1, lsl #20
    4a44:	0cb40c00 	ldceq	12, cr0, [r4]
    4a48:	066b0000 	strbteq	r0, [fp], -r0
    4a4c:	9e240000 	cdpls	0, 2, cr0, cr4, cr0, {0}
    4a50:	003c0000 	eorseq	r0, ip, r0
    4a54:	26180000 	ldrcs	r0, [r8], -r0
    4a58:	04020000 	streq	r0, [r2], #-0
    4a5c:	746e6905 	strbtvc	r6, [lr], #-2309	; 0xfffff6fb
    4a60:	07040300 	streq	r0, [r4, -r0, lsl #6]
    4a64:	000000cd 	andeq	r0, r0, sp, asr #1
    4a68:	68060103 	stmdavs	r6, {r0, r1, r8}
    4a6c:	03000000 	movweq	r0, #0
    4a70:	018b0502 	orreq	r0, fp, r2, lsl #10
    4a74:	04030000 	streq	r0, [r3], #-0
    4a78:	00015005 	andeq	r5, r1, r5
    4a7c:	05080300 	streq	r0, [r8, #-768]	; 0xfffffd00
    4a80:	0000014b 	andeq	r0, r0, fp, asr #2
    4a84:	66080103 	strvs	r0, [r8], -r3, lsl #2
    4a88:	03000000 	movweq	r0, #0
    4a8c:	00810702 	addeq	r0, r1, r2, lsl #14
    4a90:	04030000 	streq	r0, [r3], #-0
    4a94:	0000c807 	andeq	ip, r0, r7, lsl #16
    4a98:	07080300 	streq	r0, [r8, -r0, lsl #6]
    4a9c:	000000c3 	andeq	r0, r0, r3, asr #1
    4aa0:	00002504 	andeq	r2, r0, r4, lsl #10
    4aa4:	00007a00 	andeq	r7, r0, r0, lsl #20
    4aa8:	00250500 	eoreq	r0, r5, r0, lsl #10
    4aac:	06000000 	streq	r0, [r0], -r0
    4ab0:	00000159 	andeq	r0, r0, r9, asr r1
    4ab4:	860e1c02 	strhi	r1, [lr], -r2, lsl #24
    4ab8:	07000000 	streq	r0, [r0, -r0]
    4abc:	00006b04 	andeq	r6, r0, r4, lsl #22
    4ac0:	00250400 	eoreq	r0, r5, r0, lsl #8
    4ac4:	009b0000 	addseq	r0, fp, r0
    4ac8:	9b050000 	blls	144ad0 <__bss_end__+0x139c60>
    4acc:	00000000 	andeq	r0, r0, r0
    4ad0:	00a80407 	adceq	r0, r8, r7, lsl #8
    4ad4:	01030000 	mrseq	r0, (UNDEF: 3)
    4ad8:	00006f08 	andeq	r6, r0, r8, lsl #30
    4adc:	00a10800 	adceq	r0, r1, r0, lsl #16
    4ae0:	29060000 	stmdbcs	r6, {}	; <UNPREDICTABLE>
    4ae4:	02000007 	andeq	r0, r0, #7, 0
    4ae8:	00b90e21 	adcseq	r0, r9, r1, lsr #28
    4aec:	04070000 	streq	r0, [r7], #-0
    4af0:	0000008c 	andeq	r0, r0, ip, lsl #1
    4af4:	00007a09 	andeq	r7, r0, r9, lsl #20
    4af8:	07060100 	streq	r0, [r6, -r0, lsl #2]
    4afc:	aa3c0305 	bge	f05718 <__bss_end__+0xefa8a8>
    4b00:	a70a0000 	strge	r0, [sl, -r0]
    4b04:	0100000c 	tsteq	r0, ip
    4b08:	9e50060b 	cdpls	6, 5, cr0, cr0, cr11, {0}
    4b0c:	00100000 	andseq	r0, r0, r0
    4b10:	9c010000 	stcls	0, cr0, [r1], {-0}
    4b14:	000000f1 	strdeq	r0, [r0], -r1
    4b18:	0070660b 	rsbseq	r6, r0, fp, lsl #12
    4b1c:	86190b01 	ldrhi	r0, [r9], -r1, lsl #22
    4b20:	01000000 	mrseq	r0, (UNDEF: 0)
    4b24:	770c0050 	smlsdvc	ip, r0, r0, r0
    4b28:	0100000c 	tsteq	r0, ip
    4b2c:	9e380608 	cfmsuba32ls	mvax0, mvax0, mvfx8, mvfx8
    4b30:	00180000 	andseq	r0, r8, r0
    4b34:	9c010000 	stcls	0, cr0, [r1], {-0}
    4b38:	000c960d 	andeq	r9, ip, sp, lsl #12
    4b3c:	0c030100 	stfeqs	f0, [r3], {-0}
    4b40:	00000025 	andeq	r0, r0, r5, lsr #32
    4b44:	00009e24 	andeq	r9, r0, r4, lsr #28
    4b48:	00000014 	andeq	r0, r0, r4, lsl r0
    4b4c:	01409c01 	cmpeq	r0, r1, lsl #24
    4b50:	630e0000 	movwvs	r0, #57344	; 0xe000
    4b54:	21030100 	mrscs	r0, (UNDEF: 19)
    4b58:	00000025 	andeq	r0, r0, r5, lsr #32
    4b5c:	00001f2b 	andeq	r1, r0, fp, lsr #30
    4b60:	00001f27 	andeq	r1, r0, r7, lsr #30
    4b64:	009e300f 	addseq	r3, lr, pc
    4b68:	00014000 	andeq	r4, r1, r0
    4b6c:	50011000 	andpl	r1, r1, r0
    4b70:	00007402 	andeq	r7, r0, r2, lsl #8
    4b74:	0b881100 	bleq	fe208f7c <__bss_end__+0xfe1fe10c>
    4b78:	0b880000 	bleq	fe204b80 <__bss_end__+0xfe1f9d10>
    4b7c:	42020000 	andmi	r0, r2, #0, 0
    4b80:	01370006 	teqeq	r7, r6
    4b84:	00040000 	andeq	r0, r4, r0
    4b88:	00001994 	muleq	r0, r4, r9
    4b8c:	059a0104 	ldreq	r0, [sl, #260]	; 0x104
    4b90:	ca0c0000 	bgt	304b98 <__bss_end__+0x2f9d28>
    4b94:	6b00000c 	blvs	4bcc <__code_start__-0x3434>
    4b98:	60000006 	andvs	r0, r0, r6
    4b9c:	3400009e 	strcc	r0, [r0], #-158	; 0xffffff62
    4ba0:	da000000 	ble	4ba8 <__code_start__-0x3458>
    4ba4:	02000026 	andeq	r0, r0, #38, 0	; 0x26
    4ba8:	6e690504 	cdpvs	5, 6, cr0, cr9, cr4, {0}
    4bac:	04030074 	streq	r0, [r3], #-116	; 0xffffff8c
    4bb0:	0000cd07 	andeq	ip, r0, r7, lsl #26
    4bb4:	06010300 	streq	r0, [r1], -r0, lsl #6
    4bb8:	00000068 	andeq	r0, r0, r8, rrx
    4bbc:	8b050203 	blhi	1453d0 <__bss_end__+0x13a560>
    4bc0:	03000001 	movweq	r0, #1
    4bc4:	01500504 	cmpeq	r0, r4, lsl #10
    4bc8:	08030000 	stmdaeq	r3, {}	; <UNPREDICTABLE>
    4bcc:	00014b05 	andeq	r4, r1, r5, lsl #22
    4bd0:	08010300 	stmdaeq	r1, {r8, r9}
    4bd4:	00000066 	andeq	r0, r0, r6, rrx
    4bd8:	81070203 	tsthi	r7, r3, lsl #4
    4bdc:	03000000 	movweq	r0, #0
    4be0:	00c80704 	sbceq	r0, r8, r4, lsl #14
    4be4:	08030000 	stmdaeq	r3, {}	; <UNPREDICTABLE>
    4be8:	0000c307 	andeq	ip, r0, r7, lsl #6
    4bec:	00250400 	eoreq	r0, r5, r0, lsl #8
    4bf0:	007a0000 	rsbseq	r0, sl, r0
    4bf4:	25050000 	strcs	r0, [r5, #-0]
    4bf8:	00000000 	andeq	r0, r0, r0
    4bfc:	00015906 	andeq	r5, r1, r6, lsl #18
    4c00:	0e1c0200 	cdpeq	2, 1, cr0, cr12, cr0, {0}
    4c04:	00000086 	andeq	r0, r0, r6, lsl #1
    4c08:	006b0407 	rsbeq	r0, fp, r7, lsl #8
    4c0c:	25040000 	strcs	r0, [r4, #-0]
    4c10:	9b000000 	blls	4c18 <__code_start__-0x33e8>
    4c14:	05000000 	streq	r0, [r0, #-0]
    4c18:	0000009b 	muleq	r0, fp, r0
    4c1c:	a8040700 	stmdage	r4, {r8, r9, sl}
    4c20:	03000000 	movweq	r0, #0
    4c24:	006f0801 	rsbeq	r0, pc, r1, lsl #16
    4c28:	a1080000 	mrsge	r0, (UNDEF: 8)
    4c2c:	06000000 	streq	r0, [r0], -r0
    4c30:	00000729 	andeq	r0, r0, r9, lsr #14
    4c34:	b90e2102 	stmdblt	lr, {r1, r8, sp}
    4c38:	07000000 	streq	r0, [r0, -r0]
    4c3c:	00008c04 	andeq	r8, r0, r4, lsl #24
    4c40:	08050900 	stmdaeq	r5, {r8, fp}
    4c44:	04010000 	streq	r0, [r1], #-0
    4c48:	00013407 	andeq	r3, r1, r7, lsl #8
    4c4c:	009e6000 	addseq	r6, lr, r0
    4c50:	00003400 	andeq	r3, r0, r0, lsl #8
    4c54:	349c0100 	ldrcc	r0, [ip], #256	; 0x100
    4c58:	0a000001 	beq	4c64 <__code_start__-0x339c>
    4c5c:	00000cc5 	andeq	r0, r0, r5, asr #25
    4c60:	34150401 	ldrcc	r0, [r5], #-1025	; 0xfffffbff
    4c64:	01000001 	tsteq	r0, r1
    4c68:	72730b50 	rsbsvc	r0, r3, #80, 22	; 0x14000
    4c6c:	04010063 	streq	r0, [r1], #-99	; 0xffffff9d
    4c70:	00009b27 	andeq	r9, r0, r7, lsr #22
    4c74:	001f4d00 	andseq	r4, pc, r0, lsl #26
    4c78:	001f4900 	andseq	r4, pc, r0, lsl #18
    4c7c:	31730c00 	cmncc	r3, r0, lsl #24
    4c80:	0b050100 	bleq	145088 <__bss_end__+0x13a218>
    4c84:	00000134 	andeq	r0, r0, r4, lsr r1
    4c88:	00001f78 	andeq	r1, r0, r8, ror pc
    4c8c:	00001f6e 	andeq	r1, r0, lr, ror #30
    4c90:	0032730c 	eorseq	r7, r2, ip, lsl #6
    4c94:	9b110601 	blls	4464a0 <__bss_end__+0x43b630>
    4c98:	bd000000 	stclt	0, cr0, [r0, #-0]
    4c9c:	b900001f 	stmdblt	r0, {r0, r1, r2, r3, r4}
    4ca0:	0c00001f 	stceq	0, cr0, [r0], {31}
    4ca4:	07010063 	streq	r0, [r1, -r3, rrx]
    4ca8:	0000a10a 	andeq	sl, r0, sl, lsl #2
    4cac:	001fe100 	andseq	lr, pc, r0, lsl #2
    4cb0:	001fdd00 	andseq	sp, pc, r0, lsl #26
    4cb4:	04070000 	streq	r0, [r7], #-0
    4cb8:	000000a1 	andeq	r0, r0, r1, lsr #1
    4cbc:	0000f700 	andeq	pc, r0, r0, lsl #14
    4cc0:	4a000400 	bmi	5cc8 <__code_start__-0x2338>
    4cc4:	0400001a 	streq	r0, [r0], #-26	; 0xffffffe6
    4cc8:	00059a01 	andeq	r9, r5, r1, lsl #20
    4ccc:	0cda0c00 	ldcleq	12, cr0, [sl], {0}
    4cd0:	066b0000 	strbteq	r0, [fp], -r0
    4cd4:	9e940000 	cdpls	0, 9, cr0, cr4, cr0, {0}
    4cd8:	002c0000 	eoreq	r0, ip, r0
    4cdc:	27e80000 	strbcs	r0, [r8, r0]!
    4ce0:	04020000 	streq	r0, [r2], #-0
    4ce4:	746e6905 	strbtvc	r6, [lr], #-2309	; 0xfffff6fb
    4ce8:	07040300 	streq	r0, [r4, -r0, lsl #6]
    4cec:	000000cd 	andeq	r0, r0, sp, asr #1
    4cf0:	68060103 	stmdavs	r6, {r0, r1, r8}
    4cf4:	03000000 	movweq	r0, #0
    4cf8:	018b0502 	orreq	r0, fp, r2, lsl #10
    4cfc:	04030000 	streq	r0, [r3], #-0
    4d00:	00015005 	andeq	r5, r1, r5
    4d04:	05080300 	streq	r0, [r8, #-768]	; 0xfffffd00
    4d08:	0000014b 	andeq	r0, r0, fp, asr #2
    4d0c:	66080103 	strvs	r0, [r8], -r3, lsl #2
    4d10:	03000000 	movweq	r0, #0
    4d14:	00810702 	addeq	r0, r1, r2, lsl #14
    4d18:	04030000 	streq	r0, [r3], #-0
    4d1c:	0000c807 	andeq	ip, r0, r7, lsl #16
    4d20:	07080300 	streq	r0, [r8, -r0, lsl #6]
    4d24:	000000c3 	andeq	r0, r0, r3, asr #1
    4d28:	00002504 	andeq	r2, r0, r4, lsl #10
    4d2c:	00007a00 	andeq	r7, r0, r0, lsl #20
    4d30:	00250500 	eoreq	r0, r5, r0, lsl #10
    4d34:	06000000 	streq	r0, [r0], -r0
    4d38:	00000159 	andeq	r0, r0, r9, asr r1
    4d3c:	860e1c02 	strhi	r1, [lr], -r2, lsl #24
    4d40:	07000000 	streq	r0, [r0, -r0]
    4d44:	00006b04 	andeq	r6, r0, r4, lsl #22
    4d48:	00250400 	eoreq	r0, r5, r0, lsl #8
    4d4c:	009b0000 	addseq	r0, fp, r0
    4d50:	9b050000 	blls	144d58 <__bss_end__+0x139ee8>
    4d54:	00000000 	andeq	r0, r0, r0
    4d58:	00a80407 	adceq	r0, r8, r7, lsl #8
    4d5c:	01030000 	mrseq	r0, (UNDEF: 3)
    4d60:	00006f08 	andeq	r6, r0, r8, lsl #30
    4d64:	00a10800 	adceq	r0, r1, r0, lsl #16
    4d68:	29060000 	stmdbcs	r6, {}	; <UNPREDICTABLE>
    4d6c:	02000007 	andeq	r0, r0, #7, 0
    4d70:	00b90e21 	adcseq	r0, r9, r1, lsr #28
    4d74:	04070000 	streq	r0, [r7], #-0
    4d78:	0000008c 	andeq	r0, r0, ip, lsl #1
    4d7c:	00080c09 	andeq	r0, r8, r9, lsl #24
    4d80:	05030100 	streq	r0, [r3, #-256]	; 0xffffff00
    4d84:	00000025 	andeq	r0, r0, r5, lsr #32
    4d88:	00009e94 	muleq	r0, r4, lr
    4d8c:	0000002c 	andeq	r0, r0, ip, lsr #32
    4d90:	610a9c01 	tstvs	sl, r1, lsl #24
    4d94:	18030100 	stmdane	r3, {r8}
    4d98:	0000009b 	muleq	r0, fp, r0
    4d9c:	00002003 	andeq	r2, r0, r3
    4da0:	00001fff 	strdeq	r1, [r0], -pc	; <UNPREDICTABLE>
    4da4:	0100620a 	tsteq	r0, sl, lsl #4
    4da8:	009b2703 	addseq	r2, fp, r3, lsl #14
    4dac:	20250000 	eorcs	r0, r5, r0
    4db0:	20210000 	eorcs	r0, r1, r0
    4db4:	00000000 	andeq	r0, r0, r0
    4db8:	0000010f 	andeq	r0, r0, pc, lsl #2
    4dbc:	1ad90004 	bne	ff644dd4 <__bss_end__+0xff639f64>
    4dc0:	01040000 	mrseq	r0, (UNDEF: 4)
    4dc4:	0000059a 	muleq	r0, sl, r5
    4dc8:	000cea0c 	andeq	lr, ip, ip, lsl #20
    4dcc:	00066b00 	andeq	r6, r6, r0, lsl #22
    4dd0:	009ec000 	addseq	ip, lr, r0
    4dd4:	00002000 	andeq	r2, r0, r0
    4dd8:	0028af00 	eoreq	sl, r8, r0, lsl #30
    4ddc:	05040200 	streq	r0, [r4, #-512]	; 0xfffffe00
    4de0:	00746e69 	rsbseq	r6, r4, r9, ror #28
    4de4:	cd070403 	cfstrsgt	mvf0, [r7, #-12]
    4de8:	03000000 	movweq	r0, #0
    4dec:	00680601 	rsbeq	r0, r8, r1, lsl #12
    4df0:	02030000 	andeq	r0, r3, #0, 0
    4df4:	00018b05 	andeq	r8, r1, r5, lsl #22
    4df8:	05040300 	streq	r0, [r4, #-768]	; 0xfffffd00
    4dfc:	00000150 	andeq	r0, r0, r0, asr r1
    4e00:	4b050803 	blmi	146e14 <__bss_end__+0x13bfa4>
    4e04:	03000001 	movweq	r0, #1
    4e08:	00660801 	rsbeq	r0, r6, r1, lsl #16
    4e0c:	02030000 	andeq	r0, r3, #0, 0
    4e10:	00008107 	andeq	r8, r0, r7, lsl #2
    4e14:	07040300 	streq	r0, [r4, -r0, lsl #6]
    4e18:	000000c8 	andeq	r0, r0, r8, asr #1
    4e1c:	c3070803 	movwgt	r0, #30723	; 0x7803
    4e20:	04000000 	streq	r0, [r0], #-0
    4e24:	00000025 	andeq	r0, r0, r5, lsr #32
    4e28:	0000007a 	andeq	r0, r0, sl, ror r0
    4e2c:	00002505 	andeq	r2, r0, r5, lsl #10
    4e30:	59060000 	stmdbpl	r6, {}	; <UNPREDICTABLE>
    4e34:	02000001 	andeq	r0, r0, #1, 0
    4e38:	00860e1c 	addeq	r0, r6, ip, lsl lr
    4e3c:	04070000 	streq	r0, [r7], #-0
    4e40:	0000006b 	andeq	r0, r0, fp, rrx
    4e44:	00002504 	andeq	r2, r0, r4, lsl #10
    4e48:	00009b00 	andeq	r9, r0, r0, lsl #22
    4e4c:	009b0500 	addseq	r0, fp, r0, lsl #10
    4e50:	07000000 	streq	r0, [r0, -r0]
    4e54:	0000a804 	andeq	sl, r0, r4, lsl #16
    4e58:	08010300 	stmdaeq	r1, {r8, r9}
    4e5c:	0000006f 	andeq	r0, r0, pc, rrx
    4e60:	0000a108 	andeq	sl, r0, r8, lsl #2
    4e64:	07290600 	streq	r0, [r9, -r0, lsl #12]!
    4e68:	21020000 	mrscs	r0, (UNDEF: 2)
    4e6c:	0000b90e 	andeq	fp, r0, lr, lsl #18
    4e70:	8c040700 	stchi	7, cr0, [r4], {-0}
    4e74:	09000000 	stmdbeq	r0, {}	; <UNPREDICTABLE>
    4e78:	000007d6 	ldrdeq	r0, [r0], -r6
    4e7c:	0c070301 	stceq	3, cr0, [r7], {1}
    4e80:	c0000001 	andgt	r0, r0, r1
    4e84:	2000009e 	mulcs	r0, lr, r0
    4e88:	01000000 	mrseq	r0, (UNDEF: 0)
    4e8c:	00010c9c 	muleq	r1, ip, ip
    4e90:	31730a00 	cmncc	r3, r0, lsl #20
    4e94:	15030100 	strne	r0, [r3, #-256]	; 0xffffff00
    4e98:	0000010c 	andeq	r0, r0, ip, lsl #2
    4e9c:	730b5001 	movwvc	r5, #45057	; 0xb001
    4ea0:	03010032 	movweq	r0, #4146	; 0x1032
    4ea4:	00009b26 	andeq	r9, r0, r6, lsr #22
    4ea8:	00204900 	eoreq	r4, r0, r0, lsl #18
    4eac:	00204300 	eoreq	r4, r0, r0, lsl #6
    4eb0:	00730c00 	rsbseq	r0, r3, r0, lsl #24
    4eb4:	0c140401 	cfldrseq	mvf0, [r4], {1}
    4eb8:	7a000001 	bvc	4ec4 <__code_start__-0x313c>
    4ebc:	74000020 	strvc	r0, [r0], #-32	; 0xffffffe0
    4ec0:	00000020 	andeq	r0, r0, r0, lsr #32
    4ec4:	00a10407 	adceq	r0, r1, r7, lsl #8
    4ec8:	4e000000 	cdpmi	0, 0, cr0, cr0, cr0, {0}
    4ecc:	04000001 	streq	r0, [r0], #-1
    4ed0:	001b8f00 	andseq	r8, fp, r0, lsl #30
    4ed4:	9a010400 	bls	45edc <__bss_end__+0x3b06c>
    4ed8:	0c000005 	stceq	0, cr0, [r0], {5}
    4edc:	00000cfa 	strdeq	r0, [r0], -sl
    4ee0:	0000066b 	andeq	r0, r0, fp, ror #12
    4ee4:	000000d8 	ldrdeq	r0, [r0], -r8
    4ee8:	00000000 	andeq	r0, r0, r0
    4eec:	00002974 	andeq	r2, r0, r4, ror r9
    4ef0:	69050402 	stmdbvs	r5, {r1, sl}
    4ef4:	0300746e 	movweq	r7, #1134	; 0x46e
    4ef8:	00000664 	andeq	r0, r0, r4, ror #12
    4efc:	3817d103 	ldmdacc	r7, {r0, r1, r8, ip, lr, pc}
    4f00:	04000000 	streq	r0, [r0], #-0
    4f04:	00cd0704 	sbceq	r0, sp, r4, lsl #14
    4f08:	01040000 	mrseq	r0, (UNDEF: 4)
    4f0c:	00006806 	andeq	r6, r0, r6, lsl #16
    4f10:	05020400 	streq	r0, [r2, #-1024]	; 0xfffffc00
    4f14:	0000018b 	andeq	r0, r0, fp, lsl #3
    4f18:	50050404 	andpl	r0, r5, r4, lsl #8
    4f1c:	04000001 	streq	r0, [r0], #-1
    4f20:	014b0508 	cmpeq	fp, r8, lsl #10
    4f24:	01040000 	mrseq	r0, (UNDEF: 4)
    4f28:	00006608 	andeq	r6, r0, r8, lsl #12
    4f2c:	005b0500 	subseq	r0, fp, r0, lsl #10
    4f30:	02040000 	andeq	r0, r4, #0, 0
    4f34:	00008107 	andeq	r8, r0, r7, lsl #2
    4f38:	07040400 	streq	r0, [r4, -r0, lsl #8]
    4f3c:	000000c8 	andeq	r0, r0, r8, asr #1
    4f40:	c3070804 	movwgt	r0, #30724	; 0x7804
    4f44:	06000000 	streq	r0, [r0], -r0
    4f48:	00000025 	andeq	r0, r0, r5, lsr #32
    4f4c:	0000008b 	andeq	r0, r0, fp, lsl #1
    4f50:	00002507 	andeq	r2, r0, r7, lsl #10
    4f54:	59080000 	stmdbpl	r8, {}	; <UNPREDICTABLE>
    4f58:	02000001 	andeq	r0, r0, #1, 0
    4f5c:	00970e1c 	addseq	r0, r7, ip, lsl lr
    4f60:	04090000 	streq	r0, [r9], #-0
    4f64:	0000007c 	andeq	r0, r0, ip, ror r0
    4f68:	00002506 	andeq	r2, r0, r6, lsl #10
    4f6c:	0000ac00 	andeq	sl, r0, r0, lsl #24
    4f70:	00ac0700 	adceq	r0, ip, r0, lsl #14
    4f74:	09000000 	stmdbeq	r0, {}	; <UNPREDICTABLE>
    4f78:	0000b904 	andeq	fp, r0, r4, lsl #18
    4f7c:	08010400 	stmdaeq	r1, {sl}
    4f80:	0000006f 	andeq	r0, r0, pc, rrx
    4f84:	0000b205 	andeq	fp, r0, r5, lsl #4
    4f88:	07290800 	streq	r0, [r9, -r0, lsl #16]!
    4f8c:	21020000 	mrscs	r0, (UNDEF: 2)
    4f90:	0000ca0e 	andeq	ip, r0, lr, lsl #20
    4f94:	9d040900 	vstrls.16	s0, [r4, #-0]	; <UNPREDICTABLE>
    4f98:	0a000000 	beq	4fa0 <__code_start__-0x3060>
    4f9c:	00000825 	andeq	r0, r0, r5, lsr #16
    4fa0:	25050401 	strcs	r0, [r5, #-1025]	; 0xfffffbff
    4fa4:	e0000000 	and	r0, r0, r0
    4fa8:	2c00009e 	stccs	0, cr0, [r0], {158}	; 0x9e
    4fac:	01000000 	mrseq	r0, (UNDEF: 0)
    4fb0:	00014b9c 	muleq	r1, ip, fp
    4fb4:	735f0b00 	cmpvc	pc, #0, 22
    4fb8:	04010031 	streq	r0, [r1], #-49	; 0xffffffcf
    4fbc:	0000ac19 	andeq	sl, r0, r9, lsl ip
    4fc0:	0020a900 	eoreq	sl, r0, r0, lsl #18
    4fc4:	0020a500 	eoreq	sl, r0, r0, lsl #10
    4fc8:	735f0b00 	cmpvc	pc, #0, 22
    4fcc:	04010032 	streq	r0, [r1], #-50	; 0xffffffce
    4fd0:	0000ac2a 	andeq	sl, r0, sl, lsr #24
    4fd4:	0020ce00 	eoreq	ip, r0, r0, lsl #28
    4fd8:	0020ca00 	eoreq	ip, r0, r0, lsl #20
    4fdc:	006e0b00 	rsbeq	r0, lr, r0, lsl #22
    4fe0:	2c360401 	cfldrscs	mvf0, [r6], #-4
    4fe4:	f5000000 			; <UNDEFINED> instruction: 0xf5000000
    4fe8:	ef000020 	svc	0x00000020
    4fec:	0c000020 	stceq	0, cr0, [r0], {32}
    4ff0:	01003173 	tsteq	r0, r3, ror r1
    4ff4:	014b1a05 	cmpeq	fp, r5, lsl #20
    4ff8:	21280000 			; <UNDEFINED> instruction: 0x21280000
    4ffc:	21200000 			; <UNDEFINED> instruction: 0x21200000
    5000:	730c0000 	movwvc	r0, #49152	; 0xc000
    5004:	05010032 	streq	r0, [r1, #-50]	; 0xffffffce
    5008:	00014b2c 	andeq	r4, r1, ip, lsr #22
    500c:	00216400 	eoreq	r6, r1, r0, lsl #8
    5010:	00215e00 	eoreq	r5, r1, r0, lsl #28
    5014:	04090000 	streq	r0, [r9], #-0
    5018:	00000062 	andeq	r0, r0, r2, rrx
    501c:	0000ce00 	andeq	ip, r0, r0, lsl #28
    5020:	43000400 	movwmi	r0, #1024	; 0x400
    5024:	0400001c 	streq	r0, [r0], #-28	; 0xffffffe4
    5028:	00059a01 	andeq	r9, r5, r1, lsl #20
    502c:	0d0b0c00 	stceq	12, cr0, [fp, #-0]
    5030:	066b0000 	strbteq	r0, [fp], -r0
    5034:	9f0c0000 	svcls	0x000c0000
    5038:	00040000 	andeq	r0, r4, r0
    503c:	2a990000 	bcs	fe645044 <__bss_end__+0xfe63a1d4>
    5040:	04020000 	streq	r0, [r2], #-0
    5044:	746e6905 	strbtvc	r6, [lr], #-2309	; 0xfffff6fb
    5048:	07040300 	streq	r0, [r4, -r0, lsl #6]
    504c:	000000cd 	andeq	r0, r0, sp, asr #1
    5050:	68060103 	stmdavs	r6, {r0, r1, r8}
    5054:	03000000 	movweq	r0, #0
    5058:	018b0502 	orreq	r0, fp, r2, lsl #10
    505c:	04030000 	streq	r0, [r3], #-0
    5060:	00015005 	andeq	r5, r1, r5
    5064:	05080300 	streq	r0, [r8, #-768]	; 0xfffffd00
    5068:	0000014b 	andeq	r0, r0, fp, asr #2
    506c:	66080103 	strvs	r0, [r8], -r3, lsl #2
    5070:	03000000 	movweq	r0, #0
    5074:	00810702 	addeq	r0, r1, r2, lsl #14
    5078:	04030000 	streq	r0, [r3], #-0
    507c:	0000c807 	andeq	ip, r0, r7, lsl #16
    5080:	07080300 	streq	r0, [r8, -r0, lsl #6]
    5084:	000000c3 	andeq	r0, r0, r3, asr #1
    5088:	00002504 	andeq	r2, r0, r4, lsl #10
    508c:	00007a00 	andeq	r7, r0, r0, lsl #20
    5090:	00250500 	eoreq	r0, r5, r0, lsl #10
    5094:	06000000 	streq	r0, [r0], -r0
    5098:	00000159 	andeq	r0, r0, r9, asr r1
    509c:	860e1c02 	strhi	r1, [lr], -r2, lsl #24
    50a0:	07000000 	streq	r0, [r0, -r0]
    50a4:	00006b04 	andeq	r6, r0, r4, lsl #22
    50a8:	00250400 	eoreq	r0, r5, r0, lsl #8
    50ac:	009b0000 	addseq	r0, fp, r0
    50b0:	9b050000 	blls	1450b8 <__bss_end__+0x13a248>
    50b4:	00000000 	andeq	r0, r0, r0
    50b8:	00a80407 	adceq	r0, r8, r7, lsl #8
    50bc:	01030000 	mrseq	r0, (UNDEF: 3)
    50c0:	00006f08 	andeq	r6, r0, r8, lsl #30
    50c4:	00a10800 	adceq	r0, r1, r0, lsl #16
    50c8:	29060000 	stmdbcs	r6, {}	; <UNPREDICTABLE>
    50cc:	02000007 	andeq	r0, r0, #7, 0
    50d0:	00b90e21 	adcseq	r0, r9, r1, lsr #28
    50d4:	04070000 	streq	r0, [r7], #-0
    50d8:	0000008c 	andeq	r0, r0, ip, lsl #1
    50dc:	0008cc09 	andeq	ip, r8, r9, lsl #24
    50e0:	06030100 	streq	r0, [r3], -r0, lsl #2
    50e4:	00009f0c 	andeq	r9, r0, ip, lsl #30
    50e8:	00000004 	andeq	r0, r0, r4
    50ec:	a5009c01 	strge	r9, [r0, #-3073]	; 0xfffff3ff
    50f0:	04000003 	streq	r0, [r0], #-3
    50f4:	001cbc00 	andseq	fp, ip, r0, lsl #24
    50f8:	a8010400 	stmdage	r1, {sl}
    50fc:	0c00000a 	stceq	0, cr0, [r0], {10}
    5100:	00000daa 	andeq	r0, r0, sl, lsr #27
    5104:	00000a58 	andeq	r0, r0, r8, asr sl
    5108:	00009f28 	andeq	r9, r0, r8, lsr #30
    510c:	0000011c 	andeq	r0, r0, ip, lsl r1
    5110:	00002b4d 	andeq	r2, r0, sp, asr #22
    5114:	69050402 	stmdbvs	r5, {r1, sl}
    5118:	0300746e 	movweq	r7, #1134	; 0x46e
    511c:	00cd0704 	sbceq	r0, sp, r4, lsl #14
    5120:	2c040000 	stccs	0, cr0, [r4], {-0}
    5124:	03000000 	movweq	r0, #0
    5128:	00680601 	rsbeq	r0, r8, r1, lsl #12
    512c:	02030000 	andeq	r0, r3, #0, 0
    5130:	00018b05 	andeq	r8, r1, r5, lsl #22
    5134:	05040300 	streq	r0, [r4, #-768]	; 0xfffffd00
    5138:	00000150 	andeq	r0, r0, r0, asr r1
    513c:	4b050803 	blmi	147150 <__bss_end__+0x13c2e0>
    5140:	03000001 	movweq	r0, #1
    5144:	00660801 	rsbeq	r0, r6, r1, lsl #16
    5148:	02030000 	andeq	r0, r3, #0, 0
    514c:	00008107 	andeq	r8, r0, r7, lsl #2
    5150:	01a80500 			; <UNDEFINED> instruction: 0x01a80500
    5154:	34030000 	strcc	r0, [r3], #-0
    5158:	00006e19 	andeq	r6, r0, r9, lsl lr
    515c:	07040300 	streq	r0, [r4, -r0, lsl #6]
    5160:	000000c8 	andeq	r0, r0, r8, asr #1
    5164:	c3070803 	movwgt	r0, #30723	; 0x7803
    5168:	03000000 	movweq	r0, #0
    516c:	006f0801 	rsbeq	r0, pc, r1, lsl #16
    5170:	07060000 	streq	r0, [r6, -r0]
    5174:	00005401 	andeq	r5, r0, r1, lsl #8
    5178:	0e0c0400 	cfcpyseq	mvf0, mvf12
    517c:	000000c2 	andeq	r0, r0, r2, asr #1
    5180:	000b9207 	andeq	r9, fp, r7, lsl #4
    5184:	ca070000 	bgt	1c518c <__bss_end__+0x1ba31c>
    5188:	01000009 	tsteq	r0, r9
    518c:	000a0d07 	andeq	r0, sl, r7, lsl #26
    5190:	1c070400 	cfstrsne	mvf0, [r7], {-0}
    5194:	0500000a 	streq	r0, [r0, #-10]
    5198:	000a2b07 	andeq	r2, sl, r7, lsl #22
    519c:	3a070600 	bcc	1c69a4 <__bss_end__+0x1bbb34>
    51a0:	0700000a 	streq	r0, [r0, -sl]
    51a4:	000b5b07 	andeq	r5, fp, r7, lsl #22
    51a8:	49070300 	stmdbmi	r7, {r8, r9}
    51ac:	0200000a 	andeq	r0, r0, #10, 0
    51b0:	0d8f0500 	cfstr32eq	mvfx0, [pc]	; 51b8 <__code_start__-0x2e48>
    51b4:	15040000 	strne	r0, [r4, #-0]
    51b8:	00008303 	andeq	r8, r0, r3, lsl #6
    51bc:	0d3a0800 	ldceq	8, cr0, [sl, #-0]
    51c0:	1d010000 	stcne	0, cr0, [r1, #-0]
    51c4:	00003317 	andeq	r3, r0, r7, lsl r3
    51c8:	20001c00 	andcs	r1, r0, r0, lsl #24
    51cc:	0d300820 	ldceq	8, cr0, [r0, #-128]!	; 0xffffff80
    51d0:	1e010000 	cdpne	0, 0, cr0, cr1, cr0, {0}
    51d4:	00003317 	andeq	r3, r0, r7, lsl r3
    51d8:	20002800 	andcs	r2, r0, r0, lsl #16
    51dc:	0d9b0820 	ldceq	8, cr0, [fp, #128]	; 0x80
    51e0:	1f010000 	svcne	0x00010000
    51e4:	00003317 	andeq	r3, r0, r7, lsl r3
    51e8:	20003400 	andcs	r3, r0, r0, lsl #8
    51ec:	0d590920 	vldreq.16	s1, [r9, #-64]	; 0xffffffc0	; <UNPREDICTABLE>
    51f0:	55010000 	strpl	r0, [r1, #-0]
    51f4:	00002505 	andeq	r2, r0, r5, lsl #10
    51f8:	00a01000 	adceq	r1, r0, r0
    51fc:	00003400 	andeq	r3, r0, r0, lsl #8
    5200:	6e9c0100 	fmlvse	f0, f4, f0
    5204:	0a000001 	beq	5210 <__code_start__-0x2df0>
    5208:	006e6970 	rsbeq	r6, lr, r0, ror r9
    520c:	2c185501 	cfldr32cs	mvfx5, [r8], {1}
    5210:	97000000 	strls	r0, [r0, -r0]
    5214:	8f000021 	svchi	0x00000021
    5218:	0b000021 	bleq	52a4 <__code_start__-0x2d5c>
    521c:	00000da5 	andeq	r0, r0, r5, lsr #27
    5220:	2c0e5801 	stccs	8, cr5, [lr], {1}
    5224:	d7000000 	strle	r0, [r0, -r0]
    5228:	d1000021 	tstle	r0, r1, lsr #32
    522c:	0c000021 	stceq	0, cr0, [r0], {33}	; 0x21
    5230:	0066666f 	rsbeq	r6, r6, pc, ror #12
    5234:	2c0e5901 			; <UNDEFINED> instruction: 0x2c0e5901
    5238:	17000000 	strne	r0, [r0, -r0]
    523c:	15000022 	strne	r0, [r0, #-34]	; 0xffffffde
    5240:	0d000022 	stceq	0, cr0, [r0, #-136]	; 0xffffff78
    5244:	0000a02c 	andeq	sl, r0, ip, lsr #32
    5248:	00000390 	muleq	r0, r0, r3
    524c:	0b50010e 	bleq	140568c <__bss_end__+0x13fa81c>
    5250:	355001f3 	ldrbcc	r0, [r0, #-499]	; 0xfffffe0d
    5254:	80b42325 	adcshi	r2, r4, r5, lsr #6
    5258:	00028180 	andeq	r8, r2, r0, lsl #3
    525c:	0d440f00 	stcleq	15, cr0, [r4, #-0]
    5260:	4e010000 	cdpmi	0, 0, cr0, cr1, cr0, {0}
    5264:	009ff406 	addseq	pc, pc, r6, lsl #8
    5268:	00001c00 	andeq	r1, r0, r0, lsl #24
    526c:	c99c0100 	ldmibgt	ip, {r8}
    5270:	0a000001 	beq	527c <__code_start__-0x2d84>
    5274:	006e6970 	rsbeq	r6, lr, r0, ror r9
    5278:	2c1a4e01 	ldccs	14, cr4, [sl], {1}
    527c:	32000000 	andcc	r0, r0, #0, 0
    5280:	2a000022 	bcs	5310 <__code_start__-0x2cf0>
    5284:	0a000022 	beq	5314 <__code_start__-0x2cec>
    5288:	4e010076 	mcrmi	0, 0, r0, cr1, cr6, {3}
    528c:	00002c28 	andeq	r2, r0, r8, lsr #24
    5290:	00227400 	eoreq	r7, r2, r0, lsl #8
    5294:	00226c00 	eoreq	r6, r2, r0, lsl #24
    5298:	a0041000 	andge	r1, r4, r0
    529c:	02510000 	subseq	r0, r1, #0, 0
    52a0:	01bf0000 			; <UNDEFINED> instruction: 0x01bf0000
    52a4:	010e0000 	mrseq	r0, (UNDEF: 14)
    52a8:	01f30350 	mvnseq	r0, r0, asr r3
    52ac:	0c110050 	ldceq	0, cr0, [r1], {80}	; 0x50
    52b0:	0a0000a0 	beq	5538 <__code_start__-0x2ac8>
    52b4:	00000002 	andeq	r0, r0, r2
    52b8:	000d630f 	andeq	r6, sp, pc, lsl #6
    52bc:	06490100 	strbeq	r0, [r9], -r0, lsl #2
    52c0:	00009fe4 	andeq	r9, r0, r4, ror #31
    52c4:	00000010 	andeq	r0, r0, r0, lsl r0
    52c8:	020a9c01 	andeq	r9, sl, #256	; 0x100
    52cc:	700a0000 	andvc	r0, sl, r0
    52d0:	01006e69 	tsteq	r0, r9, ror #28
    52d4:	002c1e49 	eoreq	r1, ip, r9, asr #28
    52d8:	22b20000 	adcscs	r0, r2, #0, 0
    52dc:	22ae0000 	adccs	r0, lr, #0, 0
    52e0:	f00d0000 			; <UNDEFINED> instruction: 0xf00d0000
    52e4:	d900009f 	stmdble	r0, {r0, r1, r2, r3, r4, r7}
    52e8:	0e000002 	cdpeq	0, 0, cr0, cr0, cr2, {0}
    52ec:	f3035001 	vhadd.u8	d5, d3, d1
    52f0:	010e5001 	tsteq	lr, r1
    52f4:	00300151 	eorseq	r0, r0, r1, asr r1
    52f8:	0d720f00 	ldcleq	15, cr0, [r2, #-0]
    52fc:	42010000 	andmi	r0, r1, #0, 0
    5300:	009fc006 	addseq	ip, pc, r6
    5304:	00002400 	andeq	r2, r0, r0, lsl #8
    5308:	519c0100 	orrspl	r0, ip, r0, lsl #2
    530c:	0a000002 	beq	531c <__code_start__-0x2ce4>
    5310:	006e6970 	rsbeq	r6, lr, r0, ror r9
    5314:	2c1c4201 	lfmcs	f4, 4, [ip], {1}
    5318:	d7000000 	strle	r0, [r0, -r0]
    531c:	d3000022 	movwle	r0, #34	; 0x22
    5320:	0d000022 	stceq	0, cr0, [r0, #-136]	; 0xffffff78
    5324:	00009fdc 	ldrdeq	r9, [r0], -ip
    5328:	0000039c 	muleq	r0, ip, r3
    532c:	0550010e 	ldrbeq	r0, [r0, #-270]	; 0xfffffef2
    5330:	2000280c 	andcs	r2, r0, ip, lsl #16
    5334:	51010e20 	tstpl	r1, r0, lsr #28
    5338:	01f33105 	mvnseq	r3, r5, lsl #2
    533c:	00002450 	andeq	r2, r0, r0, asr r4
    5340:	000db10f 	andeq	fp, sp, pc, lsl #2
    5344:	063b0100 	ldrteq	r0, [fp], -r0, lsl #2
    5348:	00009f9c 	muleq	r0, ip, pc	; <UNPREDICTABLE>
    534c:	00000024 	andeq	r0, r0, r4, lsr #32
    5350:	02989c01 	addseq	r9, r8, #256	; 0x100
    5354:	700a0000 	andvc	r0, sl, r0
    5358:	01006e69 	tsteq	r0, r9, ror #28
    535c:	002c1b3b 	eoreq	r1, ip, fp, lsr fp
    5360:	22fc0000 	rscscs	r0, ip, #0, 0
    5364:	22f80000 	rscscs	r0, r8, #0, 0
    5368:	b80d0000 	stmdalt	sp, {}	; <UNPREDICTABLE>
    536c:	9c00009f 	stcls	0, cr0, [r0], {159}	; 0x9f
    5370:	0e000003 	cdpeq	0, 0, cr0, cr0, cr3, {0}
    5374:	0c055001 	stceq	0, cr5, [r5], {1}
    5378:	2020001c 	eorcs	r0, r0, ip, lsl r0
    537c:	0551010e 	ldrbeq	r0, [r1, #-270]	; 0xfffffef2
    5380:	5001f331 	andpl	pc, r1, r1, lsr r3	; <UNPREDICTABLE>
    5384:	0f000024 	svceq	0x00000024
    5388:	00000d7f 	andeq	r0, r0, pc, ror sp
    538c:	8c063601 	stchi	6, cr3, [r6], {1}
    5390:	1000009f 	mulne	r0, pc, r0	; <UNPREDICTABLE>
    5394:	01000000 	mrseq	r0, (UNDEF: 0)
    5398:	0002d99c 	muleq	r2, ip, r9
    539c:	69700a00 	ldmdbvs	r0!, {r9, fp}^
    53a0:	3601006e 	strcc	r0, [r1], -lr, rrx
    53a4:	00002c1f 	andeq	r2, r0, pc, lsl ip
    53a8:	00232100 	eoreq	r2, r3, r0, lsl #2
    53ac:	00231d00 	eoreq	r1, r3, r0, lsl #26
    53b0:	9f980d00 	svcls	0x00980d00
    53b4:	02d90000 	sbcseq	r0, r9, #0, 0
    53b8:	010e0000 	mrseq	r0, (UNDEF: 14)
    53bc:	01f30350 	mvnseq	r0, r0, asr r3
    53c0:	51010e50 	tstpl	r1, r0, asr lr
    53c4:	00003101 	andeq	r3, r0, r1, lsl #2
    53c8:	000ba20f 	andeq	sl, fp, pc, lsl #4
    53cc:	06280100 	strteq	r0, [r8], -r0, lsl #2
    53d0:	00009f28 	andeq	r9, r0, r8, lsr #30
    53d4:	00000064 	andeq	r0, r0, r4, rrx
    53d8:	03749c01 	cmneq	r4, #256	; 0x100
    53dc:	700a0000 	andvc	r0, sl, r0
    53e0:	01006e69 	tsteq	r0, r9, ror #28
    53e4:	002c2128 	eoreq	r2, ip, r8, lsr #2
    53e8:	23460000 	movtcs	r0, #24576	; 0x6000
    53ec:	23420000 	movtcs	r0, #8192	; 0x2000
    53f0:	9b120000 	blls	4853f8 <__bss_end__+0x47a588>
    53f4:	01000000 	mrseq	r0, (UNDEF: 0)
    53f8:	00c23228 	sbceq	r3, r2, r8, lsr #4
    53fc:	236b0000 	cmncs	fp, #0, 0
    5400:	23670000 	cmncs	r7, #0, 0
    5404:	6f0c0000 	svcvs	0x000c0000
    5408:	01006666 	tsteq	r0, r6, ror #12
    540c:	002c0e2d 	eoreq	r0, ip, sp, lsr #28
    5410:	238e0000 	orrcs	r0, lr, #0, 0
    5414:	238c0000 	orrcs	r0, ip, #0, 0
    5418:	670c0000 	strvs	r0, [ip, -r0]
    541c:	0e2e0100 	sufeqe	f0, f6, f0
    5420:	0000002c 	andeq	r0, r0, ip, lsr #32
    5424:	000023a3 	andeq	r2, r0, r3, lsr #7
    5428:	000023a1 	andeq	r2, r0, r1, lsr #7
    542c:	0100760c 	tsteq	r0, ip, lsl #12
    5430:	002c0e30 	eoreq	r0, ip, r0, lsr lr
    5434:	23be0000 			; <UNDEFINED> instruction: 0x23be0000
    5438:	23b60000 			; <UNDEFINED> instruction: 0x23b60000
    543c:	70100000 	andsvc	r0, r0, r0
    5440:	9000009f 	mulls	r0, pc, r0	; <UNPREDICTABLE>
    5444:	63000003 	movwvs	r0, #3
    5448:	0e000003 	cdpeq	0, 0, cr0, cr0, cr3, {0}
    544c:	76025001 	strvc	r5, [r2], -r1
    5450:	840d0000 	strhi	r0, [sp], #-0
    5454:	9c00009f 	stcls	0, cr0, [r0], {159}	; 0x9f
    5458:	0e000003 	cdpeq	0, 0, cr0, cr0, cr3, {0}
    545c:	76025001 	strvc	r5, [r2], -r1
    5460:	13000000 	movwne	r0, #0
    5464:	00000d4f 	andeq	r0, r0, pc, asr #26
    5468:	6218b602 	andsvs	fp, r8, #2097152	; 0x200000
    546c:	03000000 	movweq	r0, #0
    5470:	00000390 	muleq	r0, r0, r3
    5474:	02007814 	andeq	r7, r0, #20, 16	; 0x140000
    5478:	00622bb6 	strhteq	r2, [r2], #-182	; 0xffffff4a
    547c:	15000000 	strne	r0, [r0, #-0]
    5480:	00000977 	andeq	r0, r0, r7, ror r9
    5484:	00000977 	andeq	r0, r0, r7, ror r9
    5488:	150ac702 	strne	ip, [sl, #-1794]	; 0xfffff8fe
    548c:	000008e3 	andeq	r0, r0, r3, ror #17
    5490:	000008e3 	andeq	r0, r0, r3, ror #17
    5494:	0006b202 	andeq	fp, r6, r2, lsl #4

Disassembly of section .debug_abbrev:

00000000 <.debug_abbrev>:
       0:	25011101 	strcs	r1, [r1, #-257]	; 0xfffffeff
       4:	030b130e 	movweq	r1, #45838	; 0xb30e
       8:	110e1b0e 	tstne	lr, lr, lsl #22
       c:	10061201 	andne	r1, r6, r1, lsl #4
      10:	02000017 	andeq	r0, r0, #23, 0
      14:	0b0b0024 	bleq	2c00ac <__bss_end__+0x2b523c>
      18:	08030b3e 	stmdaeq	r3, {r1, r2, r3, r4, r5, r8, r9, fp}
      1c:	24030000 	strcs	r0, [r3], #-0
      20:	3e0b0b00 	vmlacc.f64	d0, d11, d0
      24:	000e030b 	andeq	r0, lr, fp, lsl #6
      28:	00160400 	andseq	r0, r6, r0, lsl #8
      2c:	0b3a0e03 	bleq	e83840 <__bss_end__+0xe789d0>
      30:	0b390b3b 	bleq	e42d24 <__bss_end__+0xe37eb4>
      34:	00001349 	andeq	r1, r0, r9, asr #6
      38:	27011505 	strcs	r1, [r1, -r5, lsl #10]
      3c:	01134919 	tsteq	r3, r9, lsl r9
      40:	06000013 			; <UNDEFINED> instruction: 0x06000013
      44:	13490005 	movtne	r0, #36869	; 0x9005
      48:	34070000 	strcc	r0, [r7], #-0
      4c:	3a0e0300 	bcc	380c54 <__bss_end__+0x375de4>
      50:	390b3b0b 	stmdbcc	fp, {r0, r1, r3, r8, r9, fp, ip, sp}
      54:	3f13490b 	svccc	0x0013490b
      58:	00193c19 	andseq	r3, r9, r9, lsl ip
      5c:	000f0800 	andeq	r0, pc, r0, lsl #16
      60:	13490b0b 	movtne	r0, #39691	; 0x9b0b
      64:	26090000 	strcs	r0, [r9], -r0
      68:	00134900 	andseq	r4, r3, r0, lsl #18
      6c:	01130a00 	tsteq	r3, r0, lsl #20
      70:	0b3a0b0b 	bleq	e82ca4 <__bss_end__+0xe77e34>
      74:	0b390b3b 	bleq	e42d68 <__bss_end__+0xe37ef8>
      78:	00001301 	andeq	r1, r0, r1, lsl #6
      7c:	03000d0b 	movweq	r0, #3339	; 0xd0b
      80:	3b0b3a0e 	blcc	2ce8c0 <__bss_end__+0x2c3a50>
      84:	490b390b 	stmdbmi	fp, {r0, r1, r3, r8, fp, ip, sp}
      88:	000b3813 	andeq	r3, fp, r3, lsl r8
      8c:	00340c00 	eorseq	r0, r4, r0, lsl #24
      90:	0b3a0e03 	bleq	e838a4 <__bss_end__+0xe78a34>
      94:	0b390b3b 	bleq	e42d88 <__bss_end__+0xe37f18>
      98:	0b1c1349 	bleq	704dc4 <__bss_end__+0x6f9f54>
      9c:	130d0000 	movwne	r0, #53248	; 0xd000
      a0:	0b0e0301 	bleq	380cac <__bss_end__+0x375e3c>
      a4:	3b0b3a0b 	blcc	2ce8d8 <__bss_end__+0x2c3a68>
      a8:	010b390b 	tsteq	fp, fp, lsl #18
      ac:	0e000013 	mcreq	0, 0, r0, cr0, cr3, {0}
      b0:	0803000d 	stmdaeq	r3, {r0, r2, r3}
      b4:	0b3b0b3a 	bleq	ec2da4 <__bss_end__+0xeb7f34>
      b8:	13490b39 	movtne	r0, #39737	; 0x9b39
      bc:	00000b38 	andeq	r0, r0, r8, lsr fp
      c0:	4901010f 	stmdbmi	r1, {r0, r1, r2, r3, r8}
      c4:	00130113 	andseq	r0, r3, r3, lsl r1
      c8:	00211000 	eoreq	r1, r1, r0
      cc:	0b2f1349 	bleq	bc4df8 <__bss_end__+0xbb9f88>
      d0:	34110000 	ldrcc	r0, [r1], #-0
      d4:	3a0e0300 	bcc	380cdc <__bss_end__+0x375e6c>
      d8:	390b3b0b 	stmdbcc	fp, {r0, r1, r3, r8, r9, fp, ip, sp}
      dc:	0013490b 	andseq	r4, r3, fp, lsl #18
      e0:	000f1200 	andeq	r1, pc, r0, lsl #4
      e4:	00000b0b 	andeq	r0, r0, fp, lsl #22
      e8:	3f012e13 	svccc	0x00012e13
      ec:	3a0e0319 	bcc	380d58 <__bss_end__+0x375ee8>
      f0:	390b3b0b 	stmdbcc	fp, {r0, r1, r3, r8, r9, fp, ip, sp}
      f4:	1119270b 	tstne	r9, fp, lsl #14
      f8:	40061201 	andmi	r1, r6, r1, lsl #4
      fc:	19429718 	stmdbne	r2, {r3, r4, r8, r9, sl, ip, pc}^
     100:	00001301 	andeq	r1, r0, r1, lsl #6
     104:	03003414 	movweq	r3, #1044	; 0x414
     108:	3b0b3a08 	blcc	2ce930 <__bss_end__+0x2c3ac0>
     10c:	490b390b 	stmdbmi	fp, {r0, r1, r3, r8, fp, ip, sp}
     110:	b7170213 			; <UNDEFINED> instruction: 0xb7170213
     114:	00001742 	andeq	r1, r0, r2, asr #14
     118:	03003415 	movweq	r3, #1045	; 0x415
     11c:	3413490e 	ldrcc	r4, [r3], #-2318	; 0xfffff6f2
     120:	00180219 	andseq	r0, r8, r9, lsl r2
     124:	011d1600 	tsteq	sp, r0, lsl #12
     128:	01521331 	cmpeq	r2, r1, lsr r3
     12c:	110b42b8 			; <UNDEFINED> instruction: 0x110b42b8
     130:	58061201 	stmdapl	r6, {r0, r9, ip}
     134:	570b590b 	strpl	r5, [fp, -fp, lsl #18]
     138:	0013010b 	andseq	r0, r3, fp, lsl #2
     13c:	00051700 	andeq	r1, r5, r0, lsl #14
     140:	17021331 	smladxne	r2, r1, r3, r1
     144:	001742b7 			; <UNDEFINED> instruction: 0x001742b7
     148:	82891800 	addhi	r1, r9, #0, 16
     14c:	01110101 	tsteq	r1, r1, lsl #2
     150:	13011331 	movwne	r1, #4913	; 0x1331
     154:	8a190000 	bhi	64015c <__bss_end__+0x6352ec>
     158:	02000182 	andeq	r0, r0, #-2147483616	; 0x80000020
     15c:	18429118 	stmdane	r2, {r3, r4, r8, ip, pc}^
     160:	891a0000 	ldmdbhi	sl, {}	; <UNPREDICTABLE>
     164:	11000182 	smlabbne	r0, r2, r1, r0
     168:	00133101 	andseq	r3, r3, r1, lsl #2
     16c:	012e1b00 			; <UNDEFINED> instruction: 0x012e1b00
     170:	0b3a0e03 	bleq	e83984 <__bss_end__+0xe78b14>
     174:	0b390b3b 	bleq	e42e68 <__bss_end__+0xe37ff8>
     178:	13491927 	movtne	r1, #39207	; 0x9927
     17c:	13010b20 	movwne	r0, #6944	; 0x1b20
     180:	051c0000 	ldreq	r0, [ip, #-0]
     184:	3a0e0300 	bcc	380d8c <__bss_end__+0x375f1c>
     188:	390b3b0b 	stmdbcc	fp, {r0, r1, r3, r8, r9, fp, ip, sp}
     18c:	0013490b 	andseq	r4, r3, fp, lsl #18
     190:	00361d00 	eorseq	r1, r6, r0, lsl #26
     194:	00001802 	andeq	r1, r0, r2, lsl #16
     198:	3f002e1e 	svccc	0x00002e1e
     19c:	6e193c19 	mrcvs	12, 0, r3, cr9, cr9, {0}
     1a0:	3a0e030e 	bcc	380de0 <__bss_end__+0x375f70>
     1a4:	390b3b0b 	stmdbcc	fp, {r0, r1, r3, r8, r9, fp, ip, sp}
     1a8:	0000000b 	andeq	r0, r0, fp
     1ac:	25011101 	strcs	r1, [r1, #-257]	; 0xfffffeff
     1b0:	030b130e 	movweq	r1, #45838	; 0xb30e
     1b4:	110e1b0e 	tstne	lr, lr, lsl #22
     1b8:	10061201 	andne	r1, r6, r1, lsl #4
     1bc:	02000017 	andeq	r0, r0, #23, 0
     1c0:	0b0b0024 	bleq	2c0258 <__bss_end__+0x2b53e8>
     1c4:	08030b3e 	stmdaeq	r3, {r1, r2, r3, r4, r5, r8, r9, fp}
     1c8:	24030000 	strcs	r0, [r3], #-0
     1cc:	3e0b0b00 	vmlacc.f64	d0, d11, d0
     1d0:	000e030b 	andeq	r0, lr, fp, lsl #6
     1d4:	00160400 	andseq	r0, r6, r0, lsl #8
     1d8:	0b3a0e03 	bleq	e839ec <__bss_end__+0xe78b7c>
     1dc:	0b390b3b 	bleq	e42ed0 <__bss_end__+0xe38060>
     1e0:	00001349 	andeq	r1, r0, r9, asr #6
     1e4:	27011505 	strcs	r1, [r1, -r5, lsl #10]
     1e8:	01134919 	tsteq	r3, r9, lsl r9
     1ec:	06000013 			; <UNDEFINED> instruction: 0x06000013
     1f0:	13490005 	movtne	r0, #36869	; 0x9005
     1f4:	34070000 	strcc	r0, [r7], #-0
     1f8:	3a0e0300 	bcc	380e00 <__bss_end__+0x375f90>
     1fc:	390b3b0b 	stmdbcc	fp, {r0, r1, r3, r8, r9, fp, ip, sp}
     200:	3f13490b 	svccc	0x0013490b
     204:	00193c19 	andseq	r3, r9, r9, lsl ip
     208:	000f0800 	andeq	r0, pc, r0, lsl #16
     20c:	13490b0b 	movtne	r0, #39691	; 0x9b0b
     210:	26090000 	strcs	r0, [r9], -r0
     214:	00134900 	andseq	r4, r3, r0, lsl #18
     218:	000f0a00 	andeq	r0, pc, r0, lsl #20
     21c:	00000b0b 	andeq	r0, r0, fp, lsl #22
     220:	0b01130b 	bleq	44e54 <__bss_end__+0x39fe4>
     224:	3b0b3a0b 	blcc	2cea58 <__bss_end__+0x2c3be8>
     228:	010b390b 	tsteq	fp, fp, lsl #18
     22c:	0c000013 	stceq	0, cr0, [r0], {19}
     230:	0e03000d 	cdpeq	0, 0, cr0, cr3, cr13, {0}
     234:	0b3b0b3a 	bleq	ec2f24 <__bss_end__+0xeb80b4>
     238:	13490b39 	movtne	r0, #39737	; 0x9b39
     23c:	00000b38 	andeq	r0, r0, r8, lsr fp
     240:	3e01040d 	cdpcc	4, 0, cr0, cr1, cr13, {0}
     244:	490b0b0b 	stmdbmi	fp, {r0, r1, r3, r8, r9, fp}
     248:	3b0b3a13 	blcc	2cea9c <__bss_end__+0x2c3c2c>
     24c:	010b390b 	tsteq	fp, fp, lsl #18
     250:	0e000013 	mcreq	0, 0, r0, cr0, cr3, {0}
     254:	0e030028 	cdpeq	0, 0, cr0, cr3, cr8, {1}
     258:	00000b1c 	andeq	r0, r0, ip, lsl fp
     25c:	0300340f 	movweq	r3, #1039	; 0x40f
     260:	3b0b3a0e 	blcc	2ceaa0 <__bss_end__+0x2c3c30>
     264:	490b390b 	stmdbmi	fp, {r0, r1, r3, r8, fp, ip, sp}
     268:	00180213 	andseq	r0, r8, r3, lsl r2
     26c:	01131000 	tsteq	r3, r0
     270:	0b0b0e03 	bleq	2c3a84 <__bss_end__+0x2b8c14>
     274:	0b3b0b3a 	bleq	ec2f64 <__bss_end__+0xeb80f4>
     278:	13010b39 	movwne	r0, #6969	; 0x1b39
     27c:	0d110000 	ldceq	0, cr0, [r1, #-0]
     280:	3a080300 	bcc	200e88 <__bss_end__+0x1f6018>
     284:	390b3b0b 	stmdbcc	fp, {r0, r1, r3, r8, r9, fp, ip, sp}
     288:	3813490b 	ldmdacc	r3, {r0, r1, r3, r8, fp, lr}
     28c:	1200000b 	andne	r0, r0, #11, 0
     290:	13490101 	movtne	r0, #37121	; 0x9101
     294:	00001301 	andeq	r1, r0, r1, lsl #6
     298:	49002113 	stmdbmi	r0, {r0, r1, r4, r8, sp}
     29c:	000b2f13 	andeq	r2, fp, r3, lsl pc
     2a0:	012e1400 			; <UNDEFINED> instruction: 0x012e1400
     2a4:	0e03193f 			; <UNDEFINED> instruction: 0x0e03193f
     2a8:	0b3b0b3a 	bleq	ec2f98 <__bss_end__+0xeb8128>
     2ac:	19270b39 	stmdbne	r7!, {r0, r3, r4, r5, r8, r9, fp}
     2b0:	01111349 	tsteq	r1, r9, asr #6
     2b4:	18400612 	stmdane	r0, {r1, r4, r9, sl}^
     2b8:	01194297 			; <UNDEFINED> instruction: 0x01194297
     2bc:	15000013 	strne	r0, [r0, #-19]	; 0xffffffed
     2c0:	0e030005 	cdpeq	0, 0, cr0, cr3, cr5, {0}
     2c4:	0b3b0b3a 	bleq	ec2fb4 <__bss_end__+0xeb8144>
     2c8:	13490b39 	movtne	r0, #39737	; 0x9b39
     2cc:	42b71702 	adcsmi	r1, r7, #524288	; 0x80000
     2d0:	16000017 			; <UNDEFINED> instruction: 0x16000017
     2d4:	08030005 	stmdaeq	r3, {r0, r2}
     2d8:	0b3b0b3a 	bleq	ec2fc8 <__bss_end__+0xeb8158>
     2dc:	13490b39 	movtne	r0, #39737	; 0x9b39
     2e0:	00001802 	andeq	r1, r0, r2, lsl #16
     2e4:	03003417 	movweq	r3, #1047	; 0x417
     2e8:	3b0b3a08 	blcc	2ceb10 <__bss_end__+0x2c3ca0>
     2ec:	490b390b 	stmdbmi	fp, {r0, r1, r3, r8, fp, ip, sp}
     2f0:	b7170213 			; <UNDEFINED> instruction: 0xb7170213
     2f4:	00001742 	andeq	r1, r0, r2, asr #14
     2f8:	31011d18 	tstcc	r1, r8, lsl sp
     2fc:	b8015213 	stmdalt	r1, {r0, r1, r4, r9, ip, lr}
     300:	01110b42 	tsteq	r1, r2, asr #22
     304:	0b580612 	bleq	1601b54 <__bss_end__+0x15f6ce4>
     308:	0b570b59 	bleq	15c3074 <__bss_end__+0x15b8204>
     30c:	00001301 	andeq	r1, r0, r1, lsl #6
     310:	31000519 	tstcc	r0, r9, lsl r5
     314:	b7170213 			; <UNDEFINED> instruction: 0xb7170213
     318:	00001742 	andeq	r1, r0, r2, asr #14
     31c:	0182891a 	orreq	r8, r2, sl, lsl r9
     320:	31011101 	tstcc	r1, r1, lsl #2
     324:	1b000013 	blne	378 <__code_start__-0x7c88>
     328:	0001828a 	andeq	r8, r1, sl, lsl #5
     32c:	42911802 	addsmi	r1, r1, #131072	; 0x20000
     330:	1c000018 	stcne	0, cr0, [r0], {24}
     334:	01018289 	smlabbeq	r1, r9, r2, r8
     338:	13310111 	teqne	r1, #1073741828	; 0x40000004
     33c:	00001301 	andeq	r1, r0, r1, lsl #6
     340:	3f012e1d 	svccc	0x00012e1d
     344:	3a0e0319 	bcc	380fb0 <__bss_end__+0x376140>
     348:	390b3b0b 	stmdbcc	fp, {r0, r1, r3, r8, r9, fp, ip, sp}
     34c:	1119270b 	tstne	r9, fp, lsl #14
     350:	40061201 	andmi	r1, r6, r1, lsl #4
     354:	19429718 	stmdbne	r2, {r3, r4, r8, r9, sl, ip, pc}^
     358:	00001301 	andeq	r1, r0, r1, lsl #6
     35c:	0300341e 	movweq	r3, #1054	; 0x41e
     360:	3413490e 	ldrcc	r4, [r3], #-2318	; 0xfffff6f2
     364:	00180219 	andseq	r0, r8, r9, lsl r2
     368:	010b1f00 	tsteq	fp, r0, lsl #30
     36c:	06120111 			; <UNDEFINED> instruction: 0x06120111
     370:	00001301 	andeq	r1, r0, r1, lsl #6
     374:	01828920 	orreq	r8, r2, r0, lsr #18
     378:	31011100 	mrscc	r1, (UNDEF: 17)
     37c:	21000013 	tstcs	r0, r3, lsl r0
     380:	0e030034 	mcreq	0, 0, r0, cr3, cr4, {1}
     384:	0b3b0b3a 	bleq	ec3074 <__bss_end__+0xeb8204>
     388:	13490b39 	movtne	r0, #39737	; 0x9b39
     38c:	42b71702 	adcsmi	r1, r7, #524288	; 0x80000
     390:	22000017 	andcs	r0, r0, #23, 0
     394:	00000026 	andeq	r0, r0, r6, lsr #32
     398:	03000523 	movweq	r0, #1315	; 0x523
     39c:	3b0b3a08 	blcc	2cebc4 <__bss_end__+0x2c3d54>
     3a0:	490b390b 	stmdbmi	fp, {r0, r1, r3, r8, fp, ip, sp}
     3a4:	b7170213 			; <UNDEFINED> instruction: 0xb7170213
     3a8:	00001742 	andeq	r1, r0, r2, asr #14
     3ac:	03003424 	movweq	r3, #1060	; 0x424
     3b0:	3b0b3a0e 	blcc	2cebf0 <__bss_end__+0x2c3d80>
     3b4:	490b390b 	stmdbmi	fp, {r0, r1, r3, r8, fp, ip, sp}
     3b8:	25000013 	strcs	r0, [r0, #-19]	; 0xffffffed
     3bc:	1755010b 	ldrbne	r0, [r5, -fp, lsl #2]
     3c0:	0b260000 	bleq	9803c8 <__bss_end__+0x975558>
     3c4:	12011101 	andne	r1, r1, #1073741824	; 0x40000000
     3c8:	27000006 	strcs	r0, [r0, -r6]
     3cc:	193f002e 	ldmdbne	pc!, {r1, r2, r3, r5}	; <UNPREDICTABLE>
     3d0:	0b3a0e03 	bleq	e83be4 <__bss_end__+0xe78d74>
     3d4:	0b390b3b 	bleq	e430c8 <__bss_end__+0xe38258>
     3d8:	13491927 	movtne	r1, #39207	; 0x9927
     3dc:	06120111 			; <UNDEFINED> instruction: 0x06120111
     3e0:	42971840 	addsmi	r1, r7, #64, 16	; 0x400000
     3e4:	28000019 	stmdacs	r0, {r0, r3, r4}
     3e8:	0e03012e 	adfeqsp	f0, f3, #0.5
     3ec:	0b3b0b3a 	bleq	ec30dc <__bss_end__+0xeb826c>
     3f0:	19270b39 	stmdbne	r7!, {r0, r3, r4, r5, r8, r9, fp}
     3f4:	06120111 			; <UNDEFINED> instruction: 0x06120111
     3f8:	42971840 	addsmi	r1, r7, #64, 16	; 0x400000
     3fc:	00130119 	andseq	r0, r3, r9, lsl r1
     400:	012e2900 			; <UNDEFINED> instruction: 0x012e2900
     404:	0b3a0e03 	bleq	e83c18 <__bss_end__+0xe78da8>
     408:	0b390b3b 	bleq	e430fc <__bss_end__+0xe3828c>
     40c:	13491927 	movtne	r1, #39207	; 0x9927
     410:	13010b20 	movwne	r0, #6944	; 0x1b20
     414:	052a0000 	streq	r0, [sl, #-0]!
     418:	3a080300 	bcc	201020 <__bss_end__+0x1f61b0>
     41c:	390b3b0b 	stmdbcc	fp, {r0, r1, r3, r8, r9, fp, ip, sp}
     420:	0013490b 	andseq	r4, r3, fp, lsl #18
     424:	002e2b00 	eoreq	r2, lr, r0, lsl #22
     428:	193c193f 	ldmdbne	ip!, {r0, r1, r2, r3, r4, r5, r8, fp, ip}
     42c:	0e030e6e 	cdpeq	14, 0, cr0, cr3, cr14, {3}
     430:	0b3b0b3a 	bleq	ec3120 <__bss_end__+0xeb82b0>
     434:	00000b39 	andeq	r0, r0, r9, lsr fp
     438:	01110100 	tsteq	r1, r0, lsl #2
     43c:	0b130e25 	bleq	4c3cd8 <__bss_end__+0x4b8e68>
     440:	0e1b0e03 	cdpeq	14, 1, cr0, cr11, cr3, {0}
     444:	06120111 			; <UNDEFINED> instruction: 0x06120111
     448:	00001710 	andeq	r1, r0, r0, lsl r7
     44c:	0b002402 	bleq	945c <va_printk+0x200>
     450:	030b3e0b 	movweq	r3, #48651	; 0xbe0b
     454:	03000008 	movweq	r0, #8
     458:	0b0b0024 	bleq	2c04f0 <__bss_end__+0x2b5680>
     45c:	0e030b3e 	vmoveq.16	d3[0], r0
     460:	26040000 	strcs	r0, [r4], -r0
     464:	00134900 	andseq	r4, r3, r0, lsl #18
     468:	00160500 	andseq	r0, r6, r0, lsl #10
     46c:	0b3a0e03 	bleq	e83c80 <__bss_end__+0xe78e10>
     470:	0b390b3b 	bleq	e43164 <__bss_end__+0xe382f4>
     474:	00001349 	andeq	r1, r0, r9, asr #6
     478:	27011506 	strcs	r1, [r1, -r6, lsl #10]
     47c:	01134919 	tsteq	r3, r9, lsl r9
     480:	07000013 	smladeq	r0, r3, r0, r0
     484:	13490005 	movtne	r0, #36869	; 0x9005
     488:	34080000 	strcc	r0, [r8], #-0
     48c:	3a0e0300 	bcc	381094 <__bss_end__+0x376224>
     490:	390b3b0b 	stmdbcc	fp, {r0, r1, r3, r8, r9, fp, ip, sp}
     494:	3f13490b 	svccc	0x0013490b
     498:	00193c19 	andseq	r3, r9, r9, lsl ip
     49c:	000f0900 	andeq	r0, pc, r0, lsl #18
     4a0:	13490b0b 	movtne	r0, #39691	; 0x9b0b
     4a4:	130a0000 	movwne	r0, #40960	; 0xa000
     4a8:	3a0b0b01 	bcc	2c30b4 <__bss_end__+0x2b8244>
     4ac:	390b3b0b 	stmdbcc	fp, {r0, r1, r3, r8, r9, fp, ip, sp}
     4b0:	0013010b 	andseq	r0, r3, fp, lsl #2
     4b4:	000d0b00 	andeq	r0, sp, r0, lsl #22
     4b8:	0b3a0e03 	bleq	e83ccc <__bss_end__+0xe78e5c>
     4bc:	0b390b3b 	bleq	e431b0 <__bss_end__+0xe38340>
     4c0:	0b381349 	bleq	e051ec <__bss_end__+0xdfa37c>
     4c4:	040c0000 	streq	r0, [ip], #-0
     4c8:	0b0b3e01 	bleq	2cfcd4 <__bss_end__+0x2c4e64>
     4cc:	3a13490b 	bcc	4d2900 <__bss_end__+0x4c7a90>
     4d0:	390b3b0b 	stmdbcc	fp, {r0, r1, r3, r8, r9, fp, ip, sp}
     4d4:	0013010b 	andseq	r0, r3, fp, lsl #2
     4d8:	00280d00 	eoreq	r0, r8, r0, lsl #26
     4dc:	0b1c0e03 	bleq	703cf0 <__bss_end__+0x6f8e80>
     4e0:	340e0000 	strcc	r0, [lr], #-0
     4e4:	3a0e0300 	bcc	3810ec <__bss_end__+0x37627c>
     4e8:	390b3b0b 	stmdbcc	fp, {r0, r1, r3, r8, r9, fp, ip, sp}
     4ec:	1c13490b 			; <UNDEFINED> instruction: 0x1c13490b
     4f0:	0f00000b 	svceq	0x0000000b
     4f4:	0e030113 	mcreq	1, 0, r0, cr3, cr3, {0}
     4f8:	0b3a0b0b 	bleq	e8312c <__bss_end__+0xe782bc>
     4fc:	0b390b3b 	bleq	e431f0 <__bss_end__+0xe38380>
     500:	00001301 	andeq	r1, r0, r1, lsl #6
     504:	03000d10 	movweq	r0, #3344	; 0xd10
     508:	3b0b3a08 	blcc	2ced30 <__bss_end__+0x2c3ec0>
     50c:	490b390b 	stmdbmi	fp, {r0, r1, r3, r8, fp, ip, sp}
     510:	000b3813 	andeq	r3, fp, r3, lsl r8
     514:	01011100 	mrseq	r1, (UNDEF: 17)
     518:	13011349 	movwne	r1, #4937	; 0x1349
     51c:	21120000 	tstcs	r2, r0
     520:	2f134900 	svccs	0x00134900
     524:	1300000b 	movwne	r0, #11
     528:	0e030034 	mcreq	0, 0, r0, cr3, cr4, {1}
     52c:	0b3b0b3a 	bleq	ec321c <__bss_end__+0xeb83ac>
     530:	13490b39 	movtne	r0, #39737	; 0x9b39
     534:	0f140000 	svceq	0x00140000
     538:	000b0b00 	andeq	r0, fp, r0, lsl #22
     53c:	00341500 	eorseq	r1, r4, r0, lsl #10
     540:	0b3a0e03 	bleq	e83d54 <__bss_end__+0xe78ee4>
     544:	0b390b3b 	bleq	e43238 <__bss_end__+0xe383c8>
     548:	18021349 	stmdane	r2, {r0, r3, r6, r8, r9, ip}
     54c:	2e160000 	cdpcs	0, 1, cr0, cr6, cr0, {0}
     550:	03193f01 	tsteq	r9, #1, 30
     554:	3b0b3a0e 	blcc	2ced94 <__bss_end__+0x2c3f24>
     558:	270b3905 	strcs	r3, [fp, -r5, lsl #18]
     55c:	12011119 	andne	r1, r1, #1073741830	; 0x40000006
     560:	97184006 	ldrls	r4, [r8, -r6]
     564:	13011942 	movwne	r1, #6466	; 0x1942
     568:	34170000 	ldrcc	r0, [r7], #-0
     56c:	490e0300 	stmdbmi	lr, {r8, r9}
     570:	02193413 	andseq	r3, r9, #318767104	; 0x13000000
     574:	18000018 	stmdane	r0, {r3, r4}
     578:	01018289 	smlabbeq	r1, r9, r2, r8
     57c:	13310111 	teqne	r1, #1073741828	; 0x40000004
     580:	00001301 	andeq	r1, r0, r1, lsl #6
     584:	01828a19 	orreq	r8, r2, r9, lsl sl
     588:	91180200 	tstls	r8, r0, lsl #4
     58c:	00001842 	andeq	r1, r0, r2, asr #16
     590:	0182891a 	orreq	r8, r2, sl, lsl r9
     594:	31011100 	mrscc	r1, (UNDEF: 17)
     598:	1b000013 	blne	5ec <__code_start__-0x7a14>
     59c:	193f012e 	ldmdbne	pc!, {r1, r2, r3, r5, r8}	; <UNPREDICTABLE>
     5a0:	0b3a0e03 	bleq	e83db4 <__bss_end__+0xe78f44>
     5a4:	0b39053b 	bleq	e41a98 <__bss_end__+0xe36c28>
     5a8:	13491927 	movtne	r1, #39207	; 0x9927
     5ac:	06120111 			; <UNDEFINED> instruction: 0x06120111
     5b0:	42971840 	addsmi	r1, r7, #64, 16	; 0x400000
     5b4:	00130119 	andseq	r0, r3, r9, lsl r1
     5b8:	00341c00 	eorseq	r1, r4, r0, lsl #24
     5bc:	0b3a0e03 	bleq	e83dd0 <__bss_end__+0xe78f60>
     5c0:	0b39053b 	bleq	e41ab4 <__bss_end__+0xe36c44>
     5c4:	17021349 	strne	r1, [r2, -r9, asr #6]
     5c8:	001742b7 			; <UNDEFINED> instruction: 0x001742b7
     5cc:	012e1d00 			; <UNDEFINED> instruction: 0x012e1d00
     5d0:	0b3a0e03 	bleq	e83de4 <__bss_end__+0xe78f74>
     5d4:	0b390b3b 	bleq	e432c8 <__bss_end__+0xe38458>
     5d8:	13491927 	movtne	r1, #39207	; 0x9927
     5dc:	06120111 			; <UNDEFINED> instruction: 0x06120111
     5e0:	42971840 	addsmi	r1, r7, #64, 16	; 0x400000
     5e4:	00130119 	andseq	r0, r3, r9, lsl r1
     5e8:	00341e00 	eorseq	r1, r4, r0, lsl #28
     5ec:	0b3a0e03 	bleq	e83e00 <__bss_end__+0xe78f90>
     5f0:	0b390b3b 	bleq	e432e4 <__bss_end__+0xe38474>
     5f4:	17021349 	strne	r1, [r2, -r9, asr #6]
     5f8:	001742b7 			; <UNDEFINED> instruction: 0x001742b7
     5fc:	82891f00 	addhi	r1, r9, #0, 30
     600:	01110101 	tsteq	r1, r1, lsl #2
     604:	00001331 	andeq	r1, r0, r1, lsr r3
     608:	3f012e20 	svccc	0x00012e20
     60c:	3a0e0319 	bcc	381278 <__bss_end__+0x376408>
     610:	390b3b0b 	stmdbcc	fp, {r0, r1, r3, r8, r9, fp, ip, sp}
     614:	4919270b 	ldmdbmi	r9, {r0, r1, r3, r8, r9, sl, sp}
     618:	12011113 	andne	r1, r1, #-1073741820	; 0xc0000004
     61c:	97184006 	ldrls	r4, [r8, -r6]
     620:	13011942 	movwne	r1, #6466	; 0x1942
     624:	2e210000 	cdpcs	0, 2, cr0, cr1, cr0, {0}
     628:	03193f01 	tsteq	r9, #1, 30
     62c:	3b0b3a0e 	blcc	2cee6c <__bss_end__+0x2c3ffc>
     630:	270b390b 	strcs	r3, [fp, -fp, lsl #18]
     634:	12011119 	andne	r1, r1, #1073741830	; 0x40000006
     638:	97184006 	ldrls	r4, [r8, -r6]
     63c:	13011942 	movwne	r1, #6466	; 0x1942
     640:	05220000 	streq	r0, [r2, #-0]!
     644:	3a0e0300 	bcc	38124c <__bss_end__+0x3763dc>
     648:	390b3b0b 	stmdbcc	fp, {r0, r1, r3, r8, r9, fp, ip, sp}
     64c:	0213490b 	andseq	r4, r3, #180224	; 0x2c000
     650:	1742b717 	smlaldne	fp, r2, r7, r7
     654:	2e230000 	cdpcs	0, 2, cr0, cr3, cr0, {0}
     658:	3a0e0301 	bcc	381264 <__bss_end__+0x3763f4>
     65c:	390b3b0b 	stmdbcc	fp, {r0, r1, r3, r8, r9, fp, ip, sp}
     660:	1119270b 	tstne	r9, fp, lsl #14
     664:	40061201 	andmi	r1, r6, r1, lsl #4
     668:	19429718 	stmdbne	r2, {r3, r4, r8, r9, sl, ip, pc}^
     66c:	00001301 	andeq	r1, r0, r1, lsl #6
     670:	03003424 	movweq	r3, #1060	; 0x424
     674:	3413490e 	ldrcc	r4, [r3], #-2318	; 0xfffff6f2
     678:	25000019 	strcs	r0, [r0, #-25]	; 0xffffffe7
     67c:	0e030034 	mcreq	0, 0, r0, cr3, cr4, {1}
     680:	0b3b0b3a 	bleq	ec3370 <__bss_end__+0xeb8500>
     684:	13490b39 	movtne	r0, #39737	; 0x9b39
     688:	0000061c 	andeq	r0, r0, ip, lsl r6
     68c:	11010b26 	tstne	r1, r6, lsr #22
     690:	01061201 	tsteq	r6, r1, lsl #4
     694:	27000013 	smladcs	r0, r3, r0, r0
     698:	08030034 	stmdaeq	r3, {r2, r4, r5}
     69c:	0b3b0b3a 	bleq	ec338c <__bss_end__+0xeb851c>
     6a0:	13490b39 	movtne	r0, #39737	; 0x9b39
     6a4:	42b71702 	adcsmi	r1, r7, #524288	; 0x80000
     6a8:	28000017 	stmdacs	r0, {r0, r1, r2, r4}
     6ac:	1755010b 	ldrbne	r0, [r5, -fp, lsl #2]
     6b0:	00001301 	andeq	r1, r0, r1, lsl #6
     6b4:	03000529 	movweq	r0, #1321	; 0x529
     6b8:	3b0b3a08 	blcc	2ceee0 <__bss_end__+0x2c4070>
     6bc:	490b390b 	stmdbmi	fp, {r0, r1, r3, r8, fp, ip, sp}
     6c0:	b7170213 			; <UNDEFINED> instruction: 0xb7170213
     6c4:	00001742 	andeq	r1, r0, r2, asr #14
     6c8:	55010b2a 	strpl	r0, [r1, #-2858]	; 0xfffff4d6
     6cc:	2b000017 	blcs	730 <__code_start__-0x78d0>
     6d0:	193f002e 	ldmdbne	pc!, {r1, r2, r3, r5}	; <UNPREDICTABLE>
     6d4:	0e6e193c 			; <UNDEFINED> instruction: 0x0e6e193c
     6d8:	0b3a0e03 	bleq	e83eec <__bss_end__+0xe7907c>
     6dc:	0b390b3b 	bleq	e433d0 <__bss_end__+0xe38560>
     6e0:	01000000 	mrseq	r0, (UNDEF: 0)
     6e4:	0e250111 	mcreq	1, 1, r0, cr5, cr1, {0}
     6e8:	0e030b13 	vmoveq.32	d3[0], r0
     6ec:	01110e1b 	tsteq	r1, fp, lsl lr
     6f0:	17100612 			; <UNDEFINED> instruction: 0x17100612
     6f4:	24020000 	strcs	r0, [r2], #-0
     6f8:	3e0b0b00 	vmlacc.f64	d0, d11, d0
     6fc:	0008030b 	andeq	r0, r8, fp, lsl #6
     700:	00240300 	eoreq	r0, r4, r0, lsl #6
     704:	0b3e0b0b 	bleq	f83338 <__bss_end__+0xf784c8>
     708:	00000e03 	andeq	r0, r0, r3, lsl #28
     70c:	27011504 	strcs	r1, [r1, -r4, lsl #10]
     710:	01134919 	tsteq	r3, r9, lsl r9
     714:	05000013 	streq	r0, [r0, #-19]	; 0xffffffed
     718:	13490005 	movtne	r0, #36869	; 0x9005
     71c:	34060000 	strcc	r0, [r6], #-0
     720:	3a0e0300 	bcc	381328 <__bss_end__+0x3764b8>
     724:	390b3b0b 	stmdbcc	fp, {r0, r1, r3, r8, r9, fp, ip, sp}
     728:	3f13490b 	svccc	0x0013490b
     72c:	00193c19 	andseq	r3, r9, r9, lsl ip
     730:	000f0700 	andeq	r0, pc, r0, lsl #14
     734:	13490b0b 	movtne	r0, #39691	; 0x9b0b
     738:	26080000 	strcs	r0, [r8], -r0
     73c:	00134900 	andseq	r4, r3, r0, lsl #18
     740:	01170900 	tsteq	r7, r0, lsl #18
     744:	0b0b0e03 	bleq	2c3f58 <__bss_end__+0x2b90e8>
     748:	0b3b0b3a 	bleq	ec3438 <__bss_end__+0xeb85c8>
     74c:	13010b39 	movwne	r0, #6969	; 0x1b39
     750:	0d0a0000 	stceq	0, cr0, [sl, #-0]
     754:	3a080300 	bcc	20135c <__bss_end__+0x1f64ec>
     758:	390b3b0b 	stmdbcc	fp, {r0, r1, r3, r8, r9, fp, ip, sp}
     75c:	0013490b 	andseq	r4, r3, fp, lsl #18
     760:	000f0b00 	andeq	r0, pc, r0, lsl #22
     764:	00000b0b 	andeq	r0, r0, fp, lsl #22
     768:	2700150c 	strcs	r1, [r0, -ip, lsl #10]
     76c:	0d000019 	stceq	0, cr0, [r0, #-100]	; 0xffffff9c
     770:	0b0b0113 	bleq	2c0bc4 <__bss_end__+0x2b5d54>
     774:	0b3b0b3a 	bleq	ec3464 <__bss_end__+0xeb85f4>
     778:	13010b39 	movwne	r0, #6969	; 0x1b39
     77c:	0d0e0000 	stceq	0, cr0, [lr, #-0]
     780:	3a080300 	bcc	201388 <__bss_end__+0x1f6518>
     784:	390b3b0b 	stmdbcc	fp, {r0, r1, r3, r8, r9, fp, ip, sp}
     788:	3813490b 	ldmdacc	r3, {r0, r1, r3, r8, fp, lr}
     78c:	0f00000b 	svceq	0x0000000b
     790:	0e03000d 	cdpeq	0, 0, cr0, cr3, cr13, {0}
     794:	0b3b0b3a 	bleq	ec3484 <__bss_end__+0xeb8614>
     798:	13490b39 	movtne	r0, #39737	; 0x9b39
     79c:	00000b38 	andeq	r0, r0, r8, lsr fp
     7a0:	03001610 	movweq	r1, #1552	; 0x610
     7a4:	3b0b3a0e 	blcc	2cefe4 <__bss_end__+0x2c4174>
     7a8:	490b390b 	stmdbmi	fp, {r0, r1, r3, r8, fp, ip, sp}
     7ac:	11000013 	tstne	r0, r3, lsl r0
     7b0:	0e030034 	mcreq	0, 0, r0, cr3, cr4, {1}
     7b4:	0b3b0b3a 	bleq	ec34a4 <__bss_end__+0xeb8634>
     7b8:	13490b39 	movtne	r0, #39737	; 0x9b39
     7bc:	00001802 	andeq	r1, r0, r2, lsl #16
     7c0:	3f012e12 	svccc	0x00012e12
     7c4:	3a0e0319 	bcc	381430 <__bss_end__+0x3765c0>
     7c8:	390b3b0b 	stmdbcc	fp, {r0, r1, r3, r8, r9, fp, ip, sp}
     7cc:	1119270b 	tstne	r9, fp, lsl #14
     7d0:	40061201 	andmi	r1, r6, r1, lsl #4
     7d4:	19429718 	stmdbne	r2, {r3, r4, r8, r9, sl, ip, pc}^
     7d8:	00001301 	andeq	r1, r0, r1, lsl #6
     7dc:	03000513 	movweq	r0, #1299	; 0x513
     7e0:	3b0b3a08 	blcc	2cf008 <__bss_end__+0x2c4198>
     7e4:	490b390b 	stmdbmi	fp, {r0, r1, r3, r8, fp, ip, sp}
     7e8:	00180213 	andseq	r0, r8, r3, lsl r2
     7ec:	00341400 	eorseq	r1, r4, r0, lsl #8
     7f0:	0b3a0803 	bleq	e82804 <__bss_end__+0xe77994>
     7f4:	0b390b3b 	bleq	e434e8 <__bss_end__+0xe38678>
     7f8:	17021349 	strne	r1, [r2, -r9, asr #6]
     7fc:	001742b7 			; <UNDEFINED> instruction: 0x001742b7
     800:	012e1500 			; <UNDEFINED> instruction: 0x012e1500
     804:	0e03193f 			; <UNDEFINED> instruction: 0x0e03193f
     808:	0b3b0b3a 	bleq	ec34f8 <__bss_end__+0xeb8688>
     80c:	19270b39 	stmdbne	r7!, {r0, r3, r4, r5, r8, r9, fp}
     810:	01111349 	tsteq	r1, r9, asr #6
     814:	18400612 	stmdane	r0, {r1, r4, r9, sl}^
     818:	01194297 			; <UNDEFINED> instruction: 0x01194297
     81c:	16000013 			; <UNDEFINED> instruction: 0x16000013
     820:	0e030005 	cdpeq	0, 0, cr0, cr3, cr5, {0}
     824:	0b3b0b3a 	bleq	ec3514 <__bss_end__+0xeb86a4>
     828:	13490b39 	movtne	r0, #39737	; 0x9b39
     82c:	42b71702 	adcsmi	r1, r7, #524288	; 0x80000
     830:	17000017 	smladne	r0, r7, r0, r0
     834:	0e030034 	mcreq	0, 0, r0, cr3, cr4, {1}
     838:	0b3b0b3a 	bleq	ec3528 <__bss_end__+0xeb86b8>
     83c:	13490b39 	movtne	r0, #39737	; 0x9b39
     840:	42b71702 	adcsmi	r1, r7, #524288	; 0x80000
     844:	18000017 	stmdane	r0, {r0, r1, r2, r4}
     848:	193f012e 	ldmdbne	pc!, {r1, r2, r3, r5, r8}	; <UNPREDICTABLE>
     84c:	0b3a0e03 	bleq	e84060 <__bss_end__+0xe791f0>
     850:	0b390b3b 	bleq	e43544 <__bss_end__+0xe386d4>
     854:	13491927 	movtne	r1, #39207	; 0x9927
     858:	1301193c 	movwne	r1, #6460	; 0x193c
     85c:	89190000 	ldmdbhi	r9, {}	; <UNPREDICTABLE>
     860:	11010182 	smlabbne	r1, r2, r1, r0
     864:	00133101 	andseq	r3, r3, r1, lsl #2
     868:	828a1a00 	addhi	r1, sl, #0, 20
     86c:	18020001 	stmdane	r2, {r0}
     870:	00184291 	mulseq	r8, r1, r2
     874:	012e1b00 			; <UNDEFINED> instruction: 0x012e1b00
     878:	0b3a0e03 	bleq	e8408c <__bss_end__+0xe7921c>
     87c:	0b390b3b 	bleq	e43570 <__bss_end__+0xe38700>
     880:	13491927 	movtne	r1, #39207	; 0x9927
     884:	06120111 			; <UNDEFINED> instruction: 0x06120111
     888:	42971840 	addsmi	r1, r7, #64, 16	; 0x400000
     88c:	00130119 	andseq	r0, r3, r9, lsl r1
     890:	00051c00 	andeq	r1, r5, r0, lsl #24
     894:	0b3a0803 	bleq	e828a8 <__bss_end__+0xe77a38>
     898:	0b390b3b 	bleq	e4358c <__bss_end__+0xe3871c>
     89c:	17021349 	strne	r1, [r2, -r9, asr #6]
     8a0:	001742b7 			; <UNDEFINED> instruction: 0x001742b7
     8a4:	82891d00 	addhi	r1, r9, #0, 26
     8a8:	01110101 	tsteq	r1, r1, lsl #2
     8ac:	13011331 	movwne	r1, #4913	; 0x1331
     8b0:	891e0000 	ldmdbhi	lr, {}	; <UNPREDICTABLE>
     8b4:	11000182 	smlabbne	r0, r2, r1, r0
     8b8:	00133101 	andseq	r3, r3, r1, lsl #2
     8bc:	002e1f00 	eoreq	r1, lr, r0, lsl #30
     8c0:	193c193f 	ldmdbne	ip!, {r0, r1, r2, r3, r4, r5, r8, fp, ip}
     8c4:	0e030e6e 	cdpeq	14, 0, cr0, cr3, cr14, {3}
     8c8:	0b3b0b3a 	bleq	ec35b8 <__bss_end__+0xeb8748>
     8cc:	00000b39 	andeq	r0, r0, r9, lsr fp
     8d0:	01110100 	tsteq	r1, r0, lsl #2
     8d4:	0b130e25 	bleq	4c4170 <__bss_end__+0x4b9300>
     8d8:	0e1b0e03 	cdpeq	14, 1, cr0, cr11, cr3, {0}
     8dc:	06120111 			; <UNDEFINED> instruction: 0x06120111
     8e0:	00001710 	andeq	r1, r0, r0, lsl r7
     8e4:	0b002402 	bleq	98f4 <uart_init+0x30>
     8e8:	030b3e0b 	movweq	r3, #48651	; 0xbe0b
     8ec:	03000008 	movweq	r0, #8
     8f0:	0e030016 	mcreq	0, 0, r0, cr3, cr6, {0}
     8f4:	0b3b0b3a 	bleq	ec35e4 <__bss_end__+0xeb8774>
     8f8:	13490b39 	movtne	r0, #39737	; 0x9b39
     8fc:	24040000 	strcs	r0, [r4], #-0
     900:	3e0b0b00 	vmlacc.f64	d0, d11, d0
     904:	000e030b 	andeq	r0, lr, fp, lsl #6
     908:	00260500 	eoreq	r0, r6, r0, lsl #10
     90c:	00001349 	andeq	r1, r0, r9, asr #6
     910:	27011506 	strcs	r1, [r1, -r6, lsl #10]
     914:	01134919 	tsteq	r3, r9, lsl r9
     918:	07000013 	smladeq	r0, r3, r0, r0
     91c:	13490005 	movtne	r0, #36869	; 0x9005
     920:	34080000 	strcc	r0, [r8], #-0
     924:	3a0e0300 	bcc	38152c <__bss_end__+0x3766bc>
     928:	390b3b0b 	stmdbcc	fp, {r0, r1, r3, r8, r9, fp, ip, sp}
     92c:	3f13490b 	svccc	0x0013490b
     930:	00193c19 	andseq	r3, r9, r9, lsl ip
     934:	000f0900 	andeq	r0, pc, r0, lsl #18
     938:	13490b0b 	movtne	r0, #39691	; 0x9b0b
     93c:	2e0a0000 	cdpcs	0, 0, cr0, cr10, cr0, {0}
     940:	03193f01 	tsteq	r9, #1, 30
     944:	3b0b3a0e 	blcc	2cf184 <__bss_end__+0x2c4314>
     948:	270b390b 	strcs	r3, [fp, -fp, lsl #18]
     94c:	11134919 	tstne	r3, r9, lsl r9
     950:	40061201 	andmi	r1, r6, r1, lsl #4
     954:	19429718 	stmdbne	r2, {r3, r4, r8, r9, sl, ip, pc}^
     958:	00001301 	andeq	r1, r0, r1, lsl #6
     95c:	0300050b 	movweq	r0, #1291	; 0x50b
     960:	3b0b3a08 	blcc	2cf188 <__bss_end__+0x2c4318>
     964:	490b390b 	stmdbmi	fp, {r0, r1, r3, r8, fp, ip, sp}
     968:	b7170213 			; <UNDEFINED> instruction: 0xb7170213
     96c:	00001742 	andeq	r1, r0, r2, asr #14
     970:	0300050c 	movweq	r0, #1292	; 0x50c
     974:	3b0b3a08 	blcc	2cf19c <__bss_end__+0x2c432c>
     978:	490b390b 	stmdbmi	fp, {r0, r1, r3, r8, fp, ip, sp}
     97c:	00180213 	andseq	r0, r8, r3, lsl r2
     980:	00050d00 	andeq	r0, r5, r0, lsl #26
     984:	0b3a0e03 	bleq	e84198 <__bss_end__+0xe79328>
     988:	0b390b3b 	bleq	e4367c <__bss_end__+0xe3880c>
     98c:	18021349 	stmdane	r2, {r0, r3, r6, r8, r9, ip}
     990:	340e0000 	strcc	r0, [lr], #-0
     994:	3a080300 	bcc	20159c <__bss_end__+0x1f672c>
     998:	390b3b0b 	stmdbcc	fp, {r0, r1, r3, r8, r9, fp, ip, sp}
     99c:	0213490b 	andseq	r4, r3, #180224	; 0x2c000
     9a0:	1742b717 	smlaldne	fp, r2, r7, r7
     9a4:	0b0f0000 	bleq	3c09ac <__bss_end__+0x3b5b3c>
     9a8:	12011101 	andne	r1, r1, #1073741824	; 0x40000000
     9ac:	10000006 	andne	r0, r0, r6
     9b0:	00000026 	andeq	r0, r0, r6, lsr #32
     9b4:	01110100 	tsteq	r1, r0, lsl #2
     9b8:	0b130e25 	bleq	4c4254 <__bss_end__+0x4b93e4>
     9bc:	0e1b0e03 	cdpeq	14, 1, cr0, cr11, cr3, {0}
     9c0:	06120111 			; <UNDEFINED> instruction: 0x06120111
     9c4:	00001710 	andeq	r1, r0, r0, lsl r7
     9c8:	0b002402 	bleq	99d8 <uart_getc+0x2c>
     9cc:	030b3e0b 	movweq	r3, #48651	; 0xbe0b
     9d0:	03000008 	movweq	r0, #8
     9d4:	0e030016 	mcreq	0, 0, r0, cr3, cr6, {0}
     9d8:	0b3b0b3a 	bleq	ec36c8 <__bss_end__+0xeb8858>
     9dc:	13490b39 	movtne	r0, #39737	; 0x9b39
     9e0:	24040000 	strcs	r0, [r4], #-0
     9e4:	3e0b0b00 	vmlacc.f64	d0, d11, d0
     9e8:	000e030b 	andeq	r0, lr, fp, lsl #6
     9ec:	00260500 	eoreq	r0, r6, r0, lsl #10
     9f0:	00001349 	andeq	r1, r0, r9, asr #6
     9f4:	27011506 	strcs	r1, [r1, -r6, lsl #10]
     9f8:	01134919 	tsteq	r3, r9, lsl r9
     9fc:	07000013 	smladeq	r0, r3, r0, r0
     a00:	13490005 	movtne	r0, #36869	; 0x9005
     a04:	34080000 	strcc	r0, [r8], #-0
     a08:	3a0e0300 	bcc	381610 <__bss_end__+0x3767a0>
     a0c:	390b3b0b 	stmdbcc	fp, {r0, r1, r3, r8, r9, fp, ip, sp}
     a10:	3f13490b 	svccc	0x0013490b
     a14:	00193c19 	andseq	r3, r9, r9, lsl ip
     a18:	000f0900 	andeq	r0, pc, r0, lsl #18
     a1c:	13490b0b 	movtne	r0, #39691	; 0x9b0b
     a20:	2e0a0000 	cdpcs	0, 0, cr0, cr10, cr0, {0}
     a24:	03193f01 	tsteq	r9, #1, 30
     a28:	3b0b3a0e 	blcc	2cf268 <__bss_end__+0x2c43f8>
     a2c:	270b390b 	strcs	r3, [fp, -fp, lsl #18]
     a30:	11134919 	tstne	r3, r9, lsl r9
     a34:	40061201 	andmi	r1, r6, r1, lsl #4
     a38:	19429718 	stmdbne	r2, {r3, r4, r8, r9, sl, ip, pc}^
     a3c:	00001301 	andeq	r1, r0, r1, lsl #6
     a40:	0300050b 	movweq	r0, #1291	; 0x50b
     a44:	3b0b3a08 	blcc	2cf26c <__bss_end__+0x2c43fc>
     a48:	490b390b 	stmdbmi	fp, {r0, r1, r3, r8, fp, ip, sp}
     a4c:	00180213 	andseq	r0, r8, r3, lsl r2
     a50:	00050c00 	andeq	r0, r5, r0, lsl #24
     a54:	0b3a0e03 	bleq	e84268 <__bss_end__+0xe793f8>
     a58:	0b390b3b 	bleq	e4374c <__bss_end__+0xe388dc>
     a5c:	17021349 	strne	r1, [r2, -r9, asr #6]
     a60:	001742b7 			; <UNDEFINED> instruction: 0x001742b7
     a64:	00340d00 	eorseq	r0, r4, r0, lsl #26
     a68:	13490e03 	movtne	r0, #40451	; 0x9e03
     a6c:	0e1c1934 			; <UNDEFINED> instruction: 0x0e1c1934
     a70:	0b0e0000 	bleq	380a78 <__bss_end__+0x375c08>
     a74:	12011101 	andne	r1, r1, #1073741824	; 0x40000000
     a78:	00130106 	andseq	r0, r3, r6, lsl #2
     a7c:	00340f00 	eorseq	r0, r4, r0, lsl #30
     a80:	0b3a0803 	bleq	e82a94 <__bss_end__+0xe77c24>
     a84:	0b390b3b 	bleq	e43778 <__bss_end__+0xe38908>
     a88:	17021349 	strne	r1, [r2, -r9, asr #6]
     a8c:	001742b7 			; <UNDEFINED> instruction: 0x001742b7
     a90:	010b1000 	mrseq	r1, (UNDEF: 11)
     a94:	06120111 			; <UNDEFINED> instruction: 0x06120111
     a98:	34110000 	ldrcc	r0, [r1], #-0
     a9c:	3a080300 	bcc	2016a4 <__bss_end__+0x1f6834>
     aa0:	390b3b0b 	stmdbcc	fp, {r0, r1, r3, r8, r9, fp, ip, sp}
     aa4:	0013490b 	andseq	r4, r3, fp, lsl #18
     aa8:	000f1200 	andeq	r1, pc, r0, lsl #4
     aac:	00000b0b 	andeq	r0, r0, fp, lsl #22
     ab0:	00002613 	andeq	r2, r0, r3, lsl r6
     ab4:	01011400 	tsteq	r1, r0, lsl #8
     ab8:	13011349 	movwne	r1, #4937	; 0x1349
     abc:	21150000 	tstcs	r5, r0
     ac0:	2f134900 	svccs	0x00134900
     ac4:	0000000b 	andeq	r0, r0, fp
     ac8:	25011101 	strcs	r1, [r1, #-257]	; 0xfffffeff
     acc:	030b130e 	movweq	r1, #45838	; 0xb30e
     ad0:	110e1b0e 	tstne	lr, lr, lsl #22
     ad4:	10061201 	andne	r1, r6, r1, lsl #4
     ad8:	02000017 	andeq	r0, r0, #23, 0
     adc:	0b0b0024 	bleq	2c0b74 <__bss_end__+0x2b5d04>
     ae0:	08030b3e 	stmdaeq	r3, {r1, r2, r3, r4, r5, r8, r9, fp}
     ae4:	16030000 	strne	r0, [r3], -r0
     ae8:	3a0e0300 	bcc	3816f0 <__bss_end__+0x376880>
     aec:	390b3b0b 	stmdbcc	fp, {r0, r1, r3, r8, r9, fp, ip, sp}
     af0:	0013490b 	andseq	r4, r3, fp, lsl #18
     af4:	00240400 	eoreq	r0, r4, r0, lsl #8
     af8:	0b3e0b0b 	bleq	f8372c <__bss_end__+0xf788bc>
     afc:	00000e03 	andeq	r0, r0, r3, lsl #28
     b00:	27011505 	strcs	r1, [r1, -r5, lsl #10]
     b04:	01134919 	tsteq	r3, r9, lsl r9
     b08:	06000013 			; <UNDEFINED> instruction: 0x06000013
     b0c:	13490005 	movtne	r0, #36869	; 0x9005
     b10:	34070000 	strcc	r0, [r7], #-0
     b14:	3a0e0300 	bcc	38171c <__bss_end__+0x3768ac>
     b18:	390b3b0b 	stmdbcc	fp, {r0, r1, r3, r8, r9, fp, ip, sp}
     b1c:	3f13490b 	svccc	0x0013490b
     b20:	00193c19 	andseq	r3, r9, r9, lsl ip
     b24:	000f0800 	andeq	r0, pc, r0, lsl #16
     b28:	13490b0b 	movtne	r0, #39691	; 0x9b0b
     b2c:	26090000 	strcs	r0, [r9], -r0
     b30:	00134900 	andseq	r4, r3, r0, lsl #18
     b34:	012e0a00 			; <UNDEFINED> instruction: 0x012e0a00
     b38:	0e03193f 			; <UNDEFINED> instruction: 0x0e03193f
     b3c:	0b3b0b3a 	bleq	ec382c <__bss_end__+0xeb89bc>
     b40:	19270b39 	stmdbne	r7!, {r0, r3, r4, r5, r8, r9, fp}
     b44:	01111349 	tsteq	r1, r9, asr #6
     b48:	18400612 	stmdane	r0, {r1, r4, r9, sl}^
     b4c:	01194297 			; <UNDEFINED> instruction: 0x01194297
     b50:	0b000013 	bleq	ba4 <__code_start__-0x745c>
     b54:	08030005 	stmdaeq	r3, {r0, r2}
     b58:	0b3b0b3a 	bleq	ec3848 <__bss_end__+0xeb89d8>
     b5c:	13490b39 	movtne	r0, #39737	; 0x9b39
     b60:	00001802 	andeq	r1, r0, r2, lsl #16
     b64:	0300050c 	movweq	r0, #1292	; 0x50c
     b68:	3b0b3a08 	blcc	2cf390 <__bss_end__+0x2c4520>
     b6c:	490b390b 	stmdbmi	fp, {r0, r1, r3, r8, fp, ip, sp}
     b70:	b7170213 			; <UNDEFINED> instruction: 0xb7170213
     b74:	00001742 	andeq	r1, r0, r2, asr #14
     b78:	0300340d 	movweq	r3, #1037	; 0x40d
     b7c:	3b0b3a08 	blcc	2cf3a4 <__bss_end__+0x2c4534>
     b80:	490b390b 	stmdbmi	fp, {r0, r1, r3, r8, fp, ip, sp}
     b84:	b7170213 			; <UNDEFINED> instruction: 0xb7170213
     b88:	00001742 	andeq	r1, r0, r2, asr #14
     b8c:	0b000f0e 	bleq	47cc <__code_start__-0x3834>
     b90:	0000000b 	andeq	r0, r0, fp
     b94:	25011101 	strcs	r1, [r1, #-257]	; 0xfffffeff
     b98:	030b130e 	movweq	r1, #45838	; 0xb30e
     b9c:	110e1b0e 	tstne	lr, lr, lsl #22
     ba0:	10061201 	andne	r1, r6, r1, lsl #4
     ba4:	02000017 	andeq	r0, r0, #23, 0
     ba8:	0e030016 	mcreq	0, 0, r0, cr3, cr6, {0}
     bac:	0b3b0b3a 	bleq	ec389c <__bss_end__+0xeb8a2c>
     bb0:	13490b39 	movtne	r0, #39737	; 0x9b39
     bb4:	13030000 	movwne	r0, #12288	; 0x3000
     bb8:	0b0e0301 	bleq	3817c4 <__bss_end__+0x376954>
     bbc:	3b0b3a0b 	blcc	2cf3f0 <__bss_end__+0x2c4580>
     bc0:	0013010b 	andseq	r0, r3, fp, lsl #2
     bc4:	000d0400 	andeq	r0, sp, r0, lsl #8
     bc8:	13490e03 	movtne	r0, #40451	; 0x9e03
     bcc:	19340b38 	ldmdbne	r4!, {r3, r4, r5, r8, r9, fp}
     bd0:	0f050000 	svceq	0x00050000
     bd4:	000b0b00 	andeq	r0, fp, r0, lsl #22
     bd8:	00240600 	eoreq	r0, r4, r0, lsl #12
     bdc:	0b3e0b0b 	bleq	f83810 <__bss_end__+0xf789a0>
     be0:	00000803 	andeq	r0, r0, r3, lsl #16
     be4:	0b002407 	bleq	9c08 <kmalloc_notzero+0x70>
     be8:	030b3e0b 	movweq	r3, #48651	; 0xbe0b
     bec:	0800000e 	stmdaeq	r0, {r1, r2, r3}
     bf0:	19270115 	stmdbne	r7!, {r0, r2, r4, r8}
     bf4:	13011349 	movwne	r1, #4937	; 0x1349
     bf8:	05090000 	streq	r0, [r9, #-0]
     bfc:	00134900 	andseq	r4, r3, r0, lsl #18
     c00:	00340a00 	eorseq	r0, r4, r0, lsl #20
     c04:	0b3a0e03 	bleq	e84418 <__bss_end__+0xe795a8>
     c08:	0b390b3b 	bleq	e438fc <__bss_end__+0xe38a8c>
     c0c:	193f1349 	ldmdbne	pc!, {r0, r3, r6, r8, r9, ip}	; <UNPREDICTABLE>
     c10:	0000193c 	andeq	r1, r0, ip, lsr r9
     c14:	0b000f0b 	bleq	4848 <__code_start__-0x37b8>
     c18:	0013490b 	andseq	r4, r3, fp, lsl #18
     c1c:	00260c00 	eoreq	r0, r6, r0, lsl #24
     c20:	00001349 	andeq	r1, r0, r9, asr #6
     c24:	3f012e0d 	svccc	0x00012e0d
     c28:	3a0e0319 	bcc	381894 <__bss_end__+0x376a24>
     c2c:	390b3b0b 	stmdbcc	fp, {r0, r1, r3, r8, r9, fp, ip, sp}
     c30:	4919270b 	ldmdbmi	r9, {r0, r1, r3, r8, r9, sl, sp}
     c34:	12011113 	andne	r1, r1, #-1073741820	; 0xc0000004
     c38:	97184006 	ldrls	r4, [r8, -r6]
     c3c:	13011942 	movwne	r1, #6466	; 0x1942
     c40:	050e0000 	streq	r0, [lr, #-0]
     c44:	3a080300 	bcc	20184c <__bss_end__+0x1f69dc>
     c48:	390b3b0b 	stmdbcc	fp, {r0, r1, r3, r8, r9, fp, ip, sp}
     c4c:	0213490b 	andseq	r4, r3, #180224	; 0x2c000
     c50:	0f000018 	svceq	0x00000018
     c54:	00000018 	andeq	r0, r0, r8, lsl r0
     c58:	03003410 	movweq	r3, #1040	; 0x410
     c5c:	3b0b3a08 	blcc	2cf484 <__bss_end__+0x2c4614>
     c60:	490b390b 	stmdbmi	fp, {r0, r1, r3, r8, fp, ip, sp}
     c64:	00180213 	andseq	r0, r8, r3, lsl r2
     c68:	00341100 	eorseq	r1, r4, r0, lsl #2
     c6c:	0b3a0e03 	bleq	e84480 <__bss_end__+0xe79610>
     c70:	0b390b3b 	bleq	e43964 <__bss_end__+0xe38af4>
     c74:	18021349 	stmdane	r2, {r0, r3, r6, r8, r9, ip}
     c78:	34120000 	ldrcc	r0, [r2], #-0
     c7c:	3a080300 	bcc	201884 <__bss_end__+0x1f6a14>
     c80:	390b3b0b 	stmdbcc	fp, {r0, r1, r3, r8, r9, fp, ip, sp}
     c84:	0213490b 	andseq	r4, r3, #180224	; 0x2c000
     c88:	1742b717 	smlaldne	fp, r2, r7, r7
     c8c:	89130000 	ldmdbhi	r3, {}	; <UNPREDICTABLE>
     c90:	11010182 	smlabbne	r1, r2, r1, r0
     c94:	01133101 	tsteq	r3, r1, lsl #2
     c98:	14000013 	strne	r0, [r0], #-19	; 0xffffffed
     c9c:	0001828a 	andeq	r8, r1, sl, lsl #5
     ca0:	42911802 	addsmi	r1, r1, #131072	; 0x20000
     ca4:	15000018 	strne	r0, [r0, #-24]	; 0xffffffe8
     ca8:	01018289 	smlabbeq	r1, r9, r2, r8
     cac:	00000111 	andeq	r0, r0, r1, lsl r1
     cb0:	49010116 	stmdbmi	r1, {r1, r2, r4, r8}
     cb4:	00130113 	andseq	r0, r3, r3, lsl r1
     cb8:	00211700 	eoreq	r1, r1, r0, lsl #14
     cbc:	052f1349 	streq	r1, [pc, #-841]!	; 97b <__code_start__-0x7685>
     cc0:	2e180000 	cdpcs	0, 1, cr0, cr8, cr0, {0}
     cc4:	3c193f00 	ldccc	15, cr3, [r9], {-0}
     cc8:	030e6e19 	movweq	r6, #60953	; 0xee19
     ccc:	3b0b3a0e 	blcc	2cf50c <__bss_end__+0x2c469c>
     cd0:	000b390b 	andeq	r3, fp, fp, lsl #18
     cd4:	11010000 	mrsne	r0, (UNDEF: 1)
     cd8:	130e2501 	movwne	r2, #58625	; 0xe501
     cdc:	1b0e030b 	blne	381910 <__bss_end__+0x376aa0>
     ce0:	1201110e 	andne	r1, r1, #-2147483645	; 0x80000003
     ce4:	00171006 	andseq	r1, r7, r6
     ce8:	00240200 	eoreq	r0, r4, r0, lsl #4
     cec:	0b3e0b0b 	bleq	f83920 <__bss_end__+0xf78ab0>
     cf0:	00000803 	andeq	r0, r0, r3, lsl #16
     cf4:	0b002403 	bleq	9d08 <kmalloc_aligned+0x74>
     cf8:	030b3e0b 	movweq	r3, #48651	; 0xbe0b
     cfc:	0400000e 	streq	r0, [r0], #-14
     d00:	19270115 	stmdbne	r7!, {r0, r2, r4, r8}
     d04:	13011349 	movwne	r1, #4937	; 0x1349
     d08:	05050000 	streq	r0, [r5, #-0]
     d0c:	00134900 	andseq	r4, r3, r0, lsl #18
     d10:	00340600 	eorseq	r0, r4, r0, lsl #12
     d14:	0b3a0e03 	bleq	e84528 <__bss_end__+0xe796b8>
     d18:	0b390b3b 	bleq	e43a0c <__bss_end__+0xe38b9c>
     d1c:	193f1349 	ldmdbne	pc!, {r0, r3, r6, r8, r9, ip}	; <UNPREDICTABLE>
     d20:	0000193c 	andeq	r1, r0, ip, lsr r9
     d24:	0b000f07 	bleq	4948 <__code_start__-0x36b8>
     d28:	0013490b 	andseq	r4, r3, fp, lsl #18
     d2c:	00260800 	eoreq	r0, r6, r0, lsl #16
     d30:	00001349 	andeq	r1, r0, r9, asr #6
     d34:	47003409 	strmi	r3, [r0, -r9, lsl #8]
     d38:	3b0b3a13 	blcc	2cf58c <__bss_end__+0x2c471c>
     d3c:	020b390b 	andeq	r3, fp, #180224	; 0x2c000
     d40:	0a000018 	beq	da8 <__code_start__-0x7258>
     d44:	193f012e 	ldmdbne	pc!, {r1, r2, r3, r5, r8}	; <UNPREDICTABLE>
     d48:	0b3a0e03 	bleq	e8455c <__bss_end__+0xe796ec>
     d4c:	0b390b3b 	bleq	e43a40 <__bss_end__+0xe38bd0>
     d50:	13491927 	movtne	r1, #39207	; 0x9927
     d54:	06120111 			; <UNDEFINED> instruction: 0x06120111
     d58:	42961840 	addsmi	r1, r6, #64, 16	; 0x400000
     d5c:	0b000019 	bleq	dc8 <__code_start__-0x7238>
     d60:	08030005 	stmdaeq	r3, {r0, r2}
     d64:	0b3b0b3a 	bleq	ec3a54 <__bss_end__+0xeb8be4>
     d68:	13490b39 	movtne	r0, #39737	; 0x9b39
     d6c:	42b71702 	adcsmi	r1, r7, #524288	; 0x80000
     d70:	00000017 	andeq	r0, r0, r7, lsl r0
     d74:	25011101 	strcs	r1, [r1, #-257]	; 0xfffffeff
     d78:	030b130e 	movweq	r1, #45838	; 0xb30e
     d7c:	110e1b0e 	tstne	lr, lr, lsl #22
     d80:	10061201 	andne	r1, r6, r1, lsl #4
     d84:	02000017 	andeq	r0, r0, #23, 0
     d88:	0b0b0024 	bleq	2c0e20 <__bss_end__+0x2b5fb0>
     d8c:	08030b3e 	stmdaeq	r3, {r1, r2, r3, r4, r5, r8, r9, fp}
     d90:	24030000 	strcs	r0, [r3], #-0
     d94:	3e0b0b00 	vmlacc.f64	d0, d11, d0
     d98:	000e030b 	andeq	r0, lr, fp, lsl #6
     d9c:	01150400 	tsteq	r5, r0, lsl #8
     da0:	13491927 	movtne	r1, #39207	; 0x9927
     da4:	00001301 	andeq	r1, r0, r1, lsl #6
     da8:	49000505 	stmdbmi	r0, {r0, r2, r8, sl}
     dac:	06000013 			; <UNDEFINED> instruction: 0x06000013
     db0:	0e030034 	mcreq	0, 0, r0, cr3, cr4, {1}
     db4:	0b3b0b3a 	bleq	ec3aa4 <__bss_end__+0xeb8c34>
     db8:	13490b39 	movtne	r0, #39737	; 0x9b39
     dbc:	193c193f 	ldmdbne	ip!, {r0, r1, r2, r3, r4, r5, r8, fp, ip}
     dc0:	0f070000 	svceq	0x00070000
     dc4:	490b0b00 	stmdbmi	fp, {r8, r9, fp}
     dc8:	08000013 	stmdaeq	r0, {r0, r1, r4}
     dcc:	13490026 	movtne	r0, #36902	; 0x9026
     dd0:	34090000 	strcc	r0, [r9], #-0
     dd4:	3a0e0300 	bcc	3819dc <__bss_end__+0x376b6c>
     dd8:	390b3b0b 	stmdbcc	fp, {r0, r1, r3, r8, r9, fp, ip, sp}
     ddc:	0213490b 	andseq	r4, r3, #180224	; 0x2c000
     de0:	0a000018 	beq	e48 <__code_start__-0x71b8>
     de4:	08030034 	stmdaeq	r3, {r2, r4, r5}
     de8:	0b3b0b3a 	bleq	ec3ad8 <__bss_end__+0xeb8c68>
     dec:	13490b39 	movtne	r0, #39737	; 0x9b39
     df0:	2e0b0000 	cdpcs	0, 0, cr0, cr11, cr0, {0}
     df4:	03193f01 	tsteq	r9, #1, 30
     df8:	3b0b3a0e 	blcc	2cf638 <__bss_end__+0x2c47c8>
     dfc:	270b390b 	strcs	r3, [fp, -fp, lsl #18]
     e00:	12011119 	andne	r1, r1, #1073741830	; 0x40000006
     e04:	97184006 	ldrls	r4, [r8, -r6]
     e08:	13011942 	movwne	r1, #6466	; 0x1942
     e0c:	050c0000 	streq	r0, [ip, #-0]
     e10:	3a0e0300 	bcc	381a18 <__bss_end__+0x376ba8>
     e14:	390b3b0b 	stmdbcc	fp, {r0, r1, r3, r8, r9, fp, ip, sp}
     e18:	0213490b 	andseq	r4, r3, #180224	; 0x2c000
     e1c:	0d000018 	stceq	0, cr0, [r0, #-96]	; 0xffffffa0
     e20:	193f012e 	ldmdbne	pc!, {r1, r2, r3, r5, r8}	; <UNPREDICTABLE>
     e24:	0b3a0e03 	bleq	e84638 <__bss_end__+0xe797c8>
     e28:	0b390b3b 	bleq	e43b1c <__bss_end__+0xe38cac>
     e2c:	13491927 	movtne	r1, #39207	; 0x9927
     e30:	06120111 			; <UNDEFINED> instruction: 0x06120111
     e34:	42971840 	addsmi	r1, r7, #64, 16	; 0x400000
     e38:	00130119 	andseq	r0, r3, r9, lsl r1
     e3c:	82890e00 	addhi	r0, r9, #0, 28
     e40:	01110001 	tsteq	r1, r1
     e44:	00001331 	andeq	r1, r0, r1, lsr r3
     e48:	3f002e0f 	svccc	0x00002e0f
     e4c:	3a0e0319 	bcc	381ab8 <__bss_end__+0x376c48>
     e50:	390b3b0b 	stmdbcc	fp, {r0, r1, r3, r8, r9, fp, ip, sp}
     e54:	4919270b 	ldmdbmi	r9, {r0, r1, r3, r8, r9, sl, sp}
     e58:	12011113 	andne	r1, r1, #-1073741820	; 0xc0000004
     e5c:	97184006 	ldrls	r4, [r8, -r6]
     e60:	00001942 	andeq	r1, r0, r2, asr #18
     e64:	01110100 	tsteq	r1, r0, lsl #2
     e68:	0b130e25 	bleq	4c4704 <__bss_end__+0x4b9894>
     e6c:	0e1b0e03 	cdpeq	14, 1, cr0, cr11, cr3, {0}
     e70:	06120111 			; <UNDEFINED> instruction: 0x06120111
     e74:	00001710 	andeq	r1, r0, r0, lsl r7
     e78:	0b002402 	bleq	9e88 <strcat+0x28>
     e7c:	030b3e0b 	movweq	r3, #48651	; 0xbe0b
     e80:	03000008 	movweq	r0, #8
     e84:	0b0b0024 	bleq	2c0f1c <__bss_end__+0x2b60ac>
     e88:	0e030b3e 	vmoveq.16	d3[0], r0
     e8c:	16040000 	strne	r0, [r4], -r0
     e90:	3a0e0300 	bcc	381a98 <__bss_end__+0x376c28>
     e94:	390b3b0b 	stmdbcc	fp, {r0, r1, r3, r8, r9, fp, ip, sp}
     e98:	0013490b 	andseq	r4, r3, fp, lsl #18
     e9c:	01150500 	tsteq	r5, r0, lsl #10
     ea0:	13491927 	movtne	r1, #39207	; 0x9927
     ea4:	00001301 	andeq	r1, r0, r1, lsl #6
     ea8:	49000506 	stmdbmi	r0, {r1, r2, r8, sl}
     eac:	07000013 	smladeq	r0, r3, r0, r0
     eb0:	0e030034 	mcreq	0, 0, r0, cr3, cr4, {1}
     eb4:	0b3b0b3a 	bleq	ec3ba4 <__bss_end__+0xeb8d34>
     eb8:	13490b39 	movtne	r0, #39737	; 0x9b39
     ebc:	193c193f 	ldmdbne	ip!, {r0, r1, r2, r3, r4, r5, r8, fp, ip}
     ec0:	0f080000 	svceq	0x00080000
     ec4:	490b0b00 	stmdbmi	fp, {r8, r9, fp}
     ec8:	09000013 	stmdbeq	r0, {r0, r1, r4}
     ecc:	13490026 	movtne	r0, #36902	; 0x9026
     ed0:	130a0000 	movwne	r0, #40960	; 0xa000
     ed4:	0b0e0301 	bleq	381ae0 <__bss_end__+0x376c70>
     ed8:	3b0b3a0b 	blcc	2cf70c <__bss_end__+0x2c489c>
     edc:	0013010b 	andseq	r0, r3, fp, lsl #2
     ee0:	000d0b00 	andeq	r0, sp, r0, lsl #22
     ee4:	13490e03 	movtne	r0, #40451	; 0x9e03
     ee8:	19340b38 	ldmdbne	r4!, {r3, r4, r5, r8, r9, fp}
     eec:	0f0c0000 	svceq	0x000c0000
     ef0:	000b0b00 	andeq	r0, fp, r0, lsl #22
     ef4:	012e0d00 			; <UNDEFINED> instruction: 0x012e0d00
     ef8:	0e03193f 			; <UNDEFINED> instruction: 0x0e03193f
     efc:	0b3b0b3a 	bleq	ec3bec <__bss_end__+0xeb8d7c>
     f00:	19270b39 	stmdbne	r7!, {r0, r3, r4, r5, r8, r9, fp}
     f04:	01111349 	tsteq	r1, r9, asr #6
     f08:	18400612 	stmdane	r0, {r1, r4, r9, sl}^
     f0c:	01194297 			; <UNDEFINED> instruction: 0x01194297
     f10:	0e000013 	mcreq	0, 0, r0, cr0, cr3, {0}
     f14:	08030005 	stmdaeq	r3, {r0, r2}
     f18:	0b3b0b3a 	bleq	ec3c08 <__bss_end__+0xeb8d98>
     f1c:	13490b39 	movtne	r0, #39737	; 0x9b39
     f20:	42b71702 	adcsmi	r1, r7, #524288	; 0x80000
     f24:	0f000017 	svceq	0x00000017
     f28:	0e030005 	cdpeq	0, 0, cr0, cr3, cr5, {0}
     f2c:	0b3b0b3a 	bleq	ec3c1c <__bss_end__+0xeb8dac>
     f30:	13490b39 	movtne	r0, #39737	; 0x9b39
     f34:	00001802 	andeq	r1, r0, r2, lsl #16
     f38:	03003410 	movweq	r3, #1040	; 0x410
     f3c:	3b0b3a08 	blcc	2cf764 <__bss_end__+0x2c48f4>
     f40:	490b390b 	stmdbmi	fp, {r0, r1, r3, r8, fp, ip, sp}
     f44:	b7170213 			; <UNDEFINED> instruction: 0xb7170213
     f48:	00001742 	andeq	r1, r0, r2, asr #14
     f4c:	03003411 	movweq	r3, #1041	; 0x411
     f50:	3b0b3a0e 	blcc	2cf790 <__bss_end__+0x2c4920>
     f54:	490b390b 	stmdbmi	fp, {r0, r1, r3, r8, fp, ip, sp}
     f58:	b7170213 			; <UNDEFINED> instruction: 0xb7170213
     f5c:	00001742 	andeq	r1, r0, r2, asr #14
     f60:	03003412 	movweq	r3, #1042	; 0x412
     f64:	3413490e 	ldrcc	r4, [r3], #-2318	; 0xfffff6f2
     f68:	00180219 	andseq	r0, r8, r9, lsl r2
     f6c:	010b1300 	mrseq	r1, (UNDEF: 59)
     f70:	06120111 			; <UNDEFINED> instruction: 0x06120111
     f74:	34140000 	ldrcc	r0, [r4], #-0
     f78:	3a080300 	bcc	201b80 <__bss_end__+0x1f6d10>
     f7c:	390b3b0b 	stmdbcc	fp, {r0, r1, r3, r8, r9, fp, ip, sp}
     f80:	0213490b 	andseq	r4, r3, #180224	; 0x2c000
     f84:	15000018 	strne	r0, [r0, #-24]	; 0xffffffe8
     f88:	0e030034 	mcreq	0, 0, r0, cr3, cr4, {1}
     f8c:	0b3b0b3a 	bleq	ec3c7c <__bss_end__+0xeb8e0c>
     f90:	13490b39 	movtne	r0, #39737	; 0x9b39
     f94:	00001802 	andeq	r1, r0, r2, lsl #16
     f98:	11010b16 	tstne	r1, r6, lsl fp
     f9c:	01061201 	tsteq	r6, r1, lsl #4
     fa0:	17000013 	smladne	r0, r3, r0, r0
     fa4:	08030034 	stmdaeq	r3, {r2, r4, r5}
     fa8:	0b3b0b3a 	bleq	ec3c98 <__bss_end__+0xeb8e28>
     fac:	13490b39 	movtne	r0, #39737	; 0x9b39
     fb0:	89180000 	ldmdbhi	r8, {}	; <UNPREDICTABLE>
     fb4:	11010182 	smlabbne	r1, r2, r1, r0
     fb8:	01133101 	tsteq	r3, r1, lsl #2
     fbc:	19000013 	stmdbne	r0, {r0, r1, r4}
     fc0:	0001828a 	andeq	r8, r1, sl, lsl #5
     fc4:	42911802 	addsmi	r1, r1, #131072	; 0x20000
     fc8:	1a000018 	bne	1030 <__code_start__-0x6fd0>
     fcc:	00018289 	andeq	r8, r1, r9, lsl #5
     fd0:	13310111 	teqne	r1, #1073741828	; 0x40000004
     fd4:	891b0000 	ldmdbhi	fp, {}	; <UNPREDICTABLE>
     fd8:	11010182 	smlabbne	r1, r2, r1, r0
     fdc:	00130101 	andseq	r0, r3, r1, lsl #2
     fe0:	01011c00 	tsteq	r1, r0, lsl #24
     fe4:	13011349 	movwne	r1, #4937	; 0x1349
     fe8:	211d0000 	tstcs	sp, r0
     fec:	2f134900 	svccs	0x00134900
     ff0:	1e00000b 	cdpne	0, 0, cr0, cr0, cr11, {0}
     ff4:	0e03012e 	adfeqsp	f0, f3, #0.5
     ff8:	0b3b0b3a 	bleq	ec3ce8 <__bss_end__+0xeb8e78>
     ffc:	19270b39 	stmdbne	r7!, {r0, r3, r4, r5, r8, r9, fp}
    1000:	01111349 	tsteq	r1, r9, asr #6
    1004:	18400612 	stmdane	r0, {r1, r4, r9, sl}^
    1008:	01194297 			; <UNDEFINED> instruction: 0x01194297
    100c:	1f000013 	svcne	0x00000013
    1010:	0e030005 	cdpeq	0, 0, cr0, cr3, cr5, {0}
    1014:	0b3b0b3a 	bleq	ec3d04 <__bss_end__+0xeb8e94>
    1018:	13490b39 	movtne	r0, #39737	; 0x9b39
    101c:	42b71702 	adcsmi	r1, r7, #524288	; 0x80000
    1020:	20000017 	andcs	r0, r0, r7, lsl r0
    1024:	0803012e 	stmdaeq	r3, {r1, r2, r3, r5, r8}
    1028:	0b3b0b3a 	bleq	ec3d18 <__bss_end__+0xeb8ea8>
    102c:	19270b39 	stmdbne	r7!, {r0, r3, r4, r5, r8, r9, fp}
    1030:	01111349 	tsteq	r1, r9, asr #6
    1034:	18400612 	stmdane	r0, {r1, r4, r9, sl}^
    1038:	01194297 			; <UNDEFINED> instruction: 0x01194297
    103c:	21000013 	tstcs	r0, r3, lsl r0
    1040:	193f012e 	ldmdbne	pc!, {r1, r2, r3, r5, r8}	; <UNPREDICTABLE>
    1044:	0b3a0e03 	bleq	e84858 <__bss_end__+0xe799e8>
    1048:	0b390b3b 	bleq	e43d3c <__bss_end__+0xe38ecc>
    104c:	01111927 	tsteq	r1, r7, lsr #18
    1050:	18400612 	stmdane	r0, {r1, r4, r9, sl}^
    1054:	01194297 			; <UNDEFINED> instruction: 0x01194297
    1058:	22000013 	andcs	r0, r0, #19, 0
    105c:	193f002e 	ldmdbne	pc!, {r1, r2, r3, r5}	; <UNPREDICTABLE>
    1060:	0e6e193c 			; <UNDEFINED> instruction: 0x0e6e193c
    1064:	0b3a0e03 	bleq	e84878 <__bss_end__+0xe79a08>
    1068:	0b390b3b 	bleq	e43d5c <__bss_end__+0xe38eec>
    106c:	01000000 	mrseq	r0, (UNDEF: 0)
    1070:	0e250111 	mcreq	1, 1, r0, cr5, cr1, {0}
    1074:	0e030b13 	vmoveq.32	d3[0], r0
    1078:	01110e1b 	tsteq	r1, fp, lsl lr
    107c:	17100612 			; <UNDEFINED> instruction: 0x17100612
    1080:	24020000 	strcs	r0, [r2], #-0
    1084:	3e0b0b00 	vmlacc.f64	d0, d11, d0
    1088:	0008030b 	andeq	r0, r8, fp, lsl #6
    108c:	00240300 	eoreq	r0, r4, r0, lsl #6
    1090:	0b3e0b0b 	bleq	f83cc4 <__bss_end__+0xf78e54>
    1094:	00000e03 	andeq	r0, r0, r3, lsl #28
    1098:	27011504 	strcs	r1, [r1, -r4, lsl #10]
    109c:	01134919 	tsteq	r3, r9, lsl r9
    10a0:	05000013 	streq	r0, [r0, #-19]	; 0xffffffed
    10a4:	13490005 	movtne	r0, #36869	; 0x9005
    10a8:	34060000 	strcc	r0, [r6], #-0
    10ac:	3a0e0300 	bcc	381cb4 <__bss_end__+0x376e44>
    10b0:	390b3b0b 	stmdbcc	fp, {r0, r1, r3, r8, r9, fp, ip, sp}
    10b4:	3f13490b 	svccc	0x0013490b
    10b8:	00193c19 	andseq	r3, r9, r9, lsl ip
    10bc:	000f0700 	andeq	r0, pc, r0, lsl #14
    10c0:	13490b0b 	movtne	r0, #39691	; 0x9b0b
    10c4:	26080000 	strcs	r0, [r8], -r0
    10c8:	00134900 	andseq	r4, r3, r0, lsl #18
    10cc:	012e0900 			; <UNDEFINED> instruction: 0x012e0900
    10d0:	0e03193f 			; <UNDEFINED> instruction: 0x0e03193f
    10d4:	0b3b0b3a 	bleq	ec3dc4 <__bss_end__+0xeb8f54>
    10d8:	19270b39 	stmdbne	r7!, {r0, r3, r4, r5, r8, r9, fp}
    10dc:	11190187 	tstne	r9, r7, lsl #3
    10e0:	40061201 	andmi	r1, r6, r1, lsl #4
    10e4:	19429718 	stmdbne	r2, {r3, r4, r8, r9, sl, ip, pc}^
    10e8:	00001301 	andeq	r1, r0, r1, lsl #6
    10ec:	0182890a 	orreq	r8, r2, sl, lsl #18
    10f0:	01011101 	tsteq	r1, r1, lsl #2
    10f4:	0b000013 	bleq	1148 <__code_start__-0x6eb8>
    10f8:	0001828a 	andeq	r8, r1, sl, lsl #5
    10fc:	42911802 	addsmi	r1, r1, #131072	; 0x20000
    1100:	0c000018 	stceq	0, cr0, [r0], {24}
    1104:	00018289 	andeq	r8, r1, r9, lsl #5
    1108:	13310111 	teqne	r1, #1073741828	; 0x40000004
    110c:	890d0000 	stmdbhi	sp, {}	; <UNPREDICTABLE>
    1110:	11010182 	smlabbne	r1, r2, r1, r0
    1114:	01133101 	tsteq	r3, r1, lsl #2
    1118:	0e000013 	mcreq	0, 0, r0, cr0, cr3, {0}
    111c:	193f002e 	ldmdbne	pc!, {r1, r2, r3, r5}	; <UNPREDICTABLE>
    1120:	0e6e193c 			; <UNDEFINED> instruction: 0x0e6e193c
    1124:	0b3a0e03 	bleq	e84938 <__bss_end__+0xe79ac8>
    1128:	0b390b3b 	bleq	e43e1c <__bss_end__+0xe38fac>
    112c:	01000000 	mrseq	r0, (UNDEF: 0)
    1130:	0e250111 	mcreq	1, 1, r0, cr5, cr1, {0}
    1134:	0e030b13 	vmoveq.32	d3[0], r0
    1138:	01110e1b 	tsteq	r1, fp, lsl lr
    113c:	17100612 			; <UNDEFINED> instruction: 0x17100612
    1140:	24020000 	strcs	r0, [r2], #-0
    1144:	3e0b0b00 	vmlacc.f64	d0, d11, d0
    1148:	0008030b 	andeq	r0, r8, fp, lsl #6
    114c:	00240300 	eoreq	r0, r4, r0, lsl #6
    1150:	0b3e0b0b 	bleq	f83d84 <__bss_end__+0xf78f14>
    1154:	00000e03 	andeq	r0, r0, r3, lsl #28
    1158:	27011504 	strcs	r1, [r1, -r4, lsl #10]
    115c:	01134919 	tsteq	r3, r9, lsl r9
    1160:	05000013 	streq	r0, [r0, #-19]	; 0xffffffed
    1164:	13490005 	movtne	r0, #36869	; 0x9005
    1168:	34060000 	strcc	r0, [r6], #-0
    116c:	3a0e0300 	bcc	381d74 <__bss_end__+0x376f04>
    1170:	390b3b0b 	stmdbcc	fp, {r0, r1, r3, r8, r9, fp, ip, sp}
    1174:	3f13490b 	svccc	0x0013490b
    1178:	00193c19 	andseq	r3, r9, r9, lsl ip
    117c:	000f0700 	andeq	r0, pc, r0, lsl #14
    1180:	13490b0b 	movtne	r0, #39691	; 0x9b0b
    1184:	26080000 	strcs	r0, [r8], -r0
    1188:	00134900 	andseq	r4, r3, r0, lsl #18
    118c:	012e0900 			; <UNDEFINED> instruction: 0x012e0900
    1190:	0e03193f 			; <UNDEFINED> instruction: 0x0e03193f
    1194:	0b3b0b3a 	bleq	ec3e84 <__bss_end__+0xeb9014>
    1198:	01110b39 	tsteq	r1, r9, lsr fp
    119c:	18400612 	stmdane	r0, {r1, r4, r9, sl}^
    11a0:	01194297 			; <UNDEFINED> instruction: 0x01194297
    11a4:	0a000013 	beq	11f8 <__code_start__-0x6e08>
    11a8:	193f002e 	ldmdbne	pc!, {r1, r2, r3, r5}	; <UNPREDICTABLE>
    11ac:	0b3a0e03 	bleq	e849c0 <__bss_end__+0xe79b50>
    11b0:	0b390b3b 	bleq	e43ea4 <__bss_end__+0xe39034>
    11b4:	193c1927 	ldmdbne	ip!, {r0, r1, r2, r5, r8, fp, ip}
    11b8:	340b0000 	strcc	r0, [fp], #-0
    11bc:	3a080300 	bcc	201dc4 <__bss_end__+0x1f6f54>
    11c0:	390b3b0b 	stmdbcc	fp, {r0, r1, r3, r8, r9, fp, ip, sp}
    11c4:	0213490b 	andseq	r4, r3, #180224	; 0x2c000
    11c8:	1742b717 	smlaldne	fp, r2, r7, r7
    11cc:	340c0000 	strcc	r0, [ip], #-0
    11d0:	3a0e0300 	bcc	381dd8 <__bss_end__+0x376f68>
    11d4:	390b3b0b 	stmdbcc	fp, {r0, r1, r3, r8, r9, fp, ip, sp}
    11d8:	0013490b 	andseq	r4, r3, fp, lsl #18
    11dc:	010b0d00 	tsteq	fp, r0, lsl #26
    11e0:	06120111 			; <UNDEFINED> instruction: 0x06120111
    11e4:	00001301 	andeq	r1, r0, r1, lsl #6
    11e8:	0300340e 	movweq	r3, #1038	; 0x40e
    11ec:	3b0b3a08 	blcc	2cfa14 <__bss_end__+0x2c4ba4>
    11f0:	490b390b 	stmdbmi	fp, {r0, r1, r3, r8, fp, ip, sp}
    11f4:	000b1c13 	andeq	r1, fp, r3, lsl ip
    11f8:	82890f00 	addhi	r0, r9, #0, 30
    11fc:	01110001 	tsteq	r1, r1
    1200:	00001331 	andeq	r1, r0, r1, lsr r3
    1204:	3f002e10 	svccc	0x00002e10
    1208:	6e193c19 	mrcvs	12, 0, r3, cr9, cr9, {0}
    120c:	3a0e030e 	bcc	381e4c <__bss_end__+0x376fdc>
    1210:	39053b0b 	stmdbcc	r5, {r0, r1, r3, r8, r9, fp, ip, sp}
    1214:	1100000b 	tstne	r0, fp
    1218:	193f002e 	ldmdbne	pc!, {r1, r2, r3, r5}	; <UNPREDICTABLE>
    121c:	0e6e193c 			; <UNDEFINED> instruction: 0x0e6e193c
    1220:	0b3a0e03 	bleq	e84a34 <__bss_end__+0xe79bc4>
    1224:	0b390b3b 	bleq	e43f18 <__bss_end__+0xe390a8>
    1228:	01000000 	mrseq	r0, (UNDEF: 0)
    122c:	0e250111 	mcreq	1, 1, r0, cr5, cr1, {0}
    1230:	0e030b13 	vmoveq.32	d3[0], r0
    1234:	01110e1b 	tsteq	r1, fp, lsl lr
    1238:	17100612 			; <UNDEFINED> instruction: 0x17100612
    123c:	24020000 	strcs	r0, [r2], #-0
    1240:	3e0b0b00 	vmlacc.f64	d0, d11, d0
    1244:	0008030b 	andeq	r0, r8, fp, lsl #6
    1248:	00240300 	eoreq	r0, r4, r0, lsl #6
    124c:	0b3e0b0b 	bleq	f83e80 <__bss_end__+0xf79010>
    1250:	00000e03 	andeq	r0, r0, r3, lsl #28
    1254:	27011504 	strcs	r1, [r1, -r4, lsl #10]
    1258:	01134919 	tsteq	r3, r9, lsl r9
    125c:	05000013 	streq	r0, [r0, #-19]	; 0xffffffed
    1260:	13490005 	movtne	r0, #36869	; 0x9005
    1264:	34060000 	strcc	r0, [r6], #-0
    1268:	3a0e0300 	bcc	381e70 <__bss_end__+0x377000>
    126c:	390b3b0b 	stmdbcc	fp, {r0, r1, r3, r8, r9, fp, ip, sp}
    1270:	3f13490b 	svccc	0x0013490b
    1274:	00193c19 	andseq	r3, r9, r9, lsl ip
    1278:	000f0700 	andeq	r0, pc, r0, lsl #14
    127c:	13490b0b 	movtne	r0, #39691	; 0x9b0b
    1280:	26080000 	strcs	r0, [r8], -r0
    1284:	00134900 	andseq	r4, r3, r0, lsl #18
    1288:	002e0900 	eoreq	r0, lr, r0, lsl #18
    128c:	0e03193f 			; <UNDEFINED> instruction: 0x0e03193f
    1290:	0b3b0b3a 	bleq	ec3f80 <__bss_end__+0xeb9110>
    1294:	19270b39 	stmdbne	r7!, {r0, r3, r4, r5, r8, r9, fp}
    1298:	06120111 			; <UNDEFINED> instruction: 0x06120111
    129c:	42971840 	addsmi	r1, r7, #64, 16	; 0x400000
    12a0:	00000019 	andeq	r0, r0, r9, lsl r0
    12a4:	25011101 	strcs	r1, [r1, #-257]	; 0xfffffeff
    12a8:	030b130e 	movweq	r1, #45838	; 0xb30e
    12ac:	550e1b0e 	strpl	r1, [lr, #-2830]	; 0xfffff4f2
    12b0:	10011117 	andne	r1, r1, r7, lsl r1
    12b4:	02000017 	andeq	r0, r0, #23, 0
    12b8:	0b0b0024 	bleq	2c1350 <__bss_end__+0x2b64e0>
    12bc:	08030b3e 	stmdaeq	r3, {r1, r2, r3, r4, r5, r8, r9, fp}
    12c0:	26030000 	strcs	r0, [r3], -r0
    12c4:	00134900 	andseq	r4, r3, r0, lsl #18
    12c8:	00240400 	eoreq	r0, r4, r0, lsl #8
    12cc:	0b3e0b0b 	bleq	f83f00 <__bss_end__+0xf79090>
    12d0:	00000e03 	andeq	r0, r0, r3, lsl #28
    12d4:	27011505 	strcs	r1, [r1, -r5, lsl #10]
    12d8:	01134919 	tsteq	r3, r9, lsl r9
    12dc:	06000013 			; <UNDEFINED> instruction: 0x06000013
    12e0:	13490005 	movtne	r0, #36869	; 0x9005
    12e4:	34070000 	strcc	r0, [r7], #-0
    12e8:	3a0e0300 	bcc	381ef0 <__bss_end__+0x377080>
    12ec:	390b3b0b 	stmdbcc	fp, {r0, r1, r3, r8, r9, fp, ip, sp}
    12f0:	3f13490b 	svccc	0x0013490b
    12f4:	00193c19 	andseq	r3, r9, r9, lsl ip
    12f8:	000f0800 	andeq	r0, pc, r0, lsl #16
    12fc:	13490b0b 	movtne	r0, #39691	; 0x9b0b
    1300:	34090000 	strcc	r0, [r9], #-0
    1304:	3a0e0300 	bcc	381f0c <__bss_end__+0x37709c>
    1308:	390b3b0b 	stmdbcc	fp, {r0, r1, r3, r8, r9, fp, ip, sp}
    130c:	0013490b 	andseq	r4, r3, fp, lsl #18
    1310:	012e0a00 			; <UNDEFINED> instruction: 0x012e0a00
    1314:	0e03193f 			; <UNDEFINED> instruction: 0x0e03193f
    1318:	0b3b0b3a 	bleq	ec4008 <__bss_end__+0xeb9198>
    131c:	19270b39 	stmdbne	r7!, {r0, r3, r4, r5, r8, r9, fp}
    1320:	11190187 	tstne	r9, r7, lsl #3
    1324:	40061201 	andmi	r1, r6, r1, lsl #4
    1328:	19429718 	stmdbne	r2, {r3, r4, r8, r9, sl, ip, pc}^
    132c:	00001301 	andeq	r1, r0, r1, lsl #6
    1330:	0300340b 	movweq	r3, #1035	; 0x40b
    1334:	3b0b3a0e 	blcc	2cfb74 <__bss_end__+0x2c4d04>
    1338:	490b390b 	stmdbmi	fp, {r0, r1, r3, r8, fp, ip, sp}
    133c:	b7170213 			; <UNDEFINED> instruction: 0xb7170213
    1340:	00001742 	andeq	r1, r0, r2, asr #14
    1344:	0182890c 	orreq	r8, r2, ip, lsl #18
    1348:	31011100 	mrscc	r1, (UNDEF: 17)
    134c:	0d000013 	stceq	0, cr0, [r0, #-76]	; 0xffffffb4
    1350:	01018289 	smlabbeq	r1, r9, r2, r8
    1354:	13310111 	teqne	r1, #1073741828	; 0x40000004
    1358:	00001301 	andeq	r1, r0, r1, lsl #6
    135c:	01828a0e 	orreq	r8, r2, lr, lsl #20
    1360:	91180200 	tstls	r8, r0, lsl #4
    1364:	00001842 	andeq	r1, r0, r2, asr #16
    1368:	3f012e0f 	svccc	0x00012e0f
    136c:	3a0e0319 	bcc	381fd8 <__bss_end__+0x377168>
    1370:	390b3b0b 	stmdbcc	fp, {r0, r1, r3, r8, r9, fp, ip, sp}
    1374:	1119270b 	tstne	r9, fp, lsl #14
    1378:	40061201 	andmi	r1, r6, r1, lsl #4
    137c:	19429718 	stmdbne	r2, {r3, r4, r8, r9, sl, ip, pc}^
    1380:	00001301 	andeq	r1, r0, r1, lsl #6
    1384:	3f012e10 	svccc	0x00012e10
    1388:	3a0e0319 	bcc	381ff4 <__bss_end__+0x377184>
    138c:	390b3b0b 	stmdbcc	fp, {r0, r1, r3, r8, r9, fp, ip, sp}
    1390:	4919270b 	ldmdbmi	r9, {r0, r1, r3, r8, r9, sl, sp}
    1394:	12011113 	andne	r1, r1, #-1073741820	; 0xc0000004
    1398:	97184006 	ldrls	r4, [r8, -r6]
    139c:	13011942 	movwne	r1, #6466	; 0x1942
    13a0:	2e110000 	cdpcs	0, 1, cr0, cr1, cr0, {0}
    13a4:	3c193f00 	ldccc	15, cr3, [r9], {-0}
    13a8:	030e6e19 	movweq	r6, #60953	; 0xee19
    13ac:	3b0b3a0e 	blcc	2cfbec <__bss_end__+0x2c4d7c>
    13b0:	000b3905 	andeq	r3, fp, r5, lsl #18
    13b4:	002e1200 	eoreq	r1, lr, r0, lsl #4
    13b8:	193c193f 	ldmdbne	ip!, {r0, r1, r2, r3, r4, r5, r8, fp, ip}
    13bc:	0e030e6e 	cdpeq	14, 0, cr0, cr3, cr14, {3}
    13c0:	0b3b0b3a 	bleq	ec40b0 <__bss_end__+0xeb9240>
    13c4:	00000b39 	andeq	r0, r0, r9, lsr fp
    13c8:	01110100 	tsteq	r1, r0, lsl #2
    13cc:	0b130e25 	bleq	4c4c68 <__bss_end__+0x4b9df8>
    13d0:	0e1b0e03 	cdpeq	14, 1, cr0, cr11, cr3, {0}
    13d4:	06120111 			; <UNDEFINED> instruction: 0x06120111
    13d8:	00001710 	andeq	r1, r0, r0, lsl r7
    13dc:	0b002402 	bleq	a3ec <__FUNCTION__.4126+0x118>
    13e0:	030b3e0b 	movweq	r3, #48651	; 0xbe0b
    13e4:	03000008 	movweq	r0, #8
    13e8:	0b0b0024 	bleq	2c1480 <__bss_end__+0x2b6610>
    13ec:	0e030b3e 	vmoveq.16	d3[0], r0
    13f0:	15040000 	strne	r0, [r4, #-0]
    13f4:	49192701 	ldmdbmi	r9, {r0, r8, r9, sl, sp}
    13f8:	00130113 	andseq	r0, r3, r3, lsl r1
    13fc:	00050500 	andeq	r0, r5, r0, lsl #10
    1400:	00001349 	andeq	r1, r0, r9, asr #6
    1404:	03003406 	movweq	r3, #1030	; 0x406
    1408:	3b0b3a0e 	blcc	2cfc48 <__bss_end__+0x2c4dd8>
    140c:	490b390b 	stmdbmi	fp, {r0, r1, r3, r8, fp, ip, sp}
    1410:	3c193f13 	ldccc	15, cr3, [r9], {19}
    1414:	07000019 	smladeq	r0, r9, r0, r0
    1418:	0b0b000f 	bleq	2c145c <__bss_end__+0x2b65ec>
    141c:	00001349 	andeq	r1, r0, r9, asr #6
    1420:	49002608 	stmdbmi	r0, {r3, r9, sl, sp}
    1424:	09000013 	stmdbeq	r0, {r0, r1, r4}
    1428:	193f012e 	ldmdbne	pc!, {r1, r2, r3, r5, r8}	; <UNPREDICTABLE>
    142c:	0b3a0e03 	bleq	e84c40 <__bss_end__+0xe79dd0>
    1430:	0b390b3b 	bleq	e44124 <__bss_end__+0xe392b4>
    1434:	01111927 	tsteq	r1, r7, lsr #18
    1438:	18400612 	stmdane	r0, {r1, r4, r9, sl}^
    143c:	01194297 			; <UNDEFINED> instruction: 0x01194297
    1440:	0a000013 	beq	1494 <__code_start__-0x6b6c>
    1444:	08030005 	stmdaeq	r3, {r0, r2}
    1448:	0b3b0b3a 	bleq	ec4138 <__bss_end__+0xeb92c8>
    144c:	13490b39 	movtne	r0, #39737	; 0x9b39
    1450:	42b71702 	adcsmi	r1, r7, #524288	; 0x80000
    1454:	0b000017 	bleq	14b8 <__code_start__-0x6b48>
    1458:	01018289 	smlabbeq	r1, r9, r2, r8
    145c:	13310111 	teqne	r1, #1073741828	; 0x40000004
    1460:	8a0c0000 	bhi	301468 <__bss_end__+0x2f65f8>
    1464:	02000182 	andeq	r0, r0, #-2147483616	; 0x80000020
    1468:	18429118 	stmdane	r2, {r3, r4, r8, ip, pc}^
    146c:	340d0000 	strcc	r0, [sp], #-0
    1470:	3a080300 	bcc	202078 <__bss_end__+0x1f7208>
    1474:	390b3b0b 	stmdbcc	fp, {r0, r1, r3, r8, r9, fp, ip, sp}
    1478:	0213490b 	andseq	r4, r3, #180224	; 0x2c000
    147c:	1742b717 	smlaldne	fp, r2, r7, r7
    1480:	0b0e0000 	bleq	381488 <__bss_end__+0x376618>
    1484:	12011101 	andne	r1, r1, #1073741824	; 0x40000000
    1488:	00130106 	andseq	r0, r3, r6, lsl #2
    148c:	82890f00 	addhi	r0, r9, #0, 30
    1490:	01110001 	tsteq	r1, r1
    1494:	00001331 	andeq	r1, r0, r1, lsr r3
    1498:	3f012e10 	svccc	0x00012e10
    149c:	3a0e0319 	bcc	382108 <__bss_end__+0x377298>
    14a0:	390b3b0b 	stmdbcc	fp, {r0, r1, r3, r8, r9, fp, ip, sp}
    14a4:	4919270b 	ldmdbmi	r9, {r0, r1, r3, r8, r9, sl, sp}
    14a8:	12011113 	andne	r1, r1, #-1073741820	; 0xc0000004
    14ac:	97184006 	ldrls	r4, [r8, -r6]
    14b0:	13011942 	movwne	r1, #6466	; 0x1942
    14b4:	2e110000 	cdpcs	0, 1, cr0, cr1, cr0, {0}
    14b8:	3c193f00 	ldccc	15, cr3, [r9], {-0}
    14bc:	030e6e19 	movweq	r6, #60953	; 0xee19
    14c0:	3b0b3a0e 	blcc	2cfd00 <__bss_end__+0x2c4e90>
    14c4:	000b390b 	andeq	r3, fp, fp, lsl #18
    14c8:	11010000 	mrsne	r0, (UNDEF: 1)
    14cc:	130e2501 	movwne	r2, #58625	; 0xe501
    14d0:	1b0e030b 	blne	382104 <__bss_end__+0x377294>
    14d4:	1201110e 	andne	r1, r1, #-2147483645	; 0x80000003
    14d8:	00171006 	andseq	r1, r7, r6
    14dc:	00240200 	eoreq	r0, r4, r0, lsl #4
    14e0:	0b3e0b0b 	bleq	f84114 <__bss_end__+0xf792a4>
    14e4:	00000803 	andeq	r0, r0, r3, lsl #16
    14e8:	0b002403 	bleq	a4fc <__FUNCTION__.4126+0x228>
    14ec:	030b3e0b 	movweq	r3, #48651	; 0xbe0b
    14f0:	0400000e 	streq	r0, [r0], #-14
    14f4:	13490035 	movtne	r0, #36917	; 0x9035
    14f8:	16050000 	strne	r0, [r5], -r0
    14fc:	3a0e0300 	bcc	382104 <__bss_end__+0x377294>
    1500:	390b3b0b 	stmdbcc	fp, {r0, r1, r3, r8, r9, fp, ip, sp}
    1504:	0013490b 	andseq	r4, r3, fp, lsl #18
    1508:	01040600 	tsteq	r4, r0, lsl #12
    150c:	0b0b0b3e 	bleq	2c420c <__bss_end__+0x2b939c>
    1510:	0b3a1349 	bleq	e8623c <__bss_end__+0xe7b3cc>
    1514:	0b390b3b 	bleq	e44208 <__bss_end__+0xe39398>
    1518:	00001301 	andeq	r1, r0, r1, lsl #6
    151c:	03002807 	movweq	r2, #2055	; 0x807
    1520:	000b1c0e 	andeq	r1, fp, lr, lsl #24
    1524:	01130800 	tsteq	r3, r0, lsl #16
    1528:	0b0b0e03 	bleq	2c4d3c <__bss_end__+0x2b9ecc>
    152c:	0b3b0b3a 	bleq	ec421c <__bss_end__+0xeb93ac>
    1530:	13010b39 	movwne	r0, #6969	; 0x1b39
    1534:	0d090000 	stceq	0, cr0, [r9, #-0]
    1538:	3a080300 	bcc	202140 <__bss_end__+0x1f72d0>
    153c:	390b3b0b 	stmdbcc	fp, {r0, r1, r3, r8, r9, fp, ip, sp}
    1540:	3813490b 	ldmdacc	r3, {r0, r1, r3, r8, fp, lr}
    1544:	0a00000b 	beq	1578 <__code_start__-0x6a88>
    1548:	0e03000d 	cdpeq	0, 0, cr0, cr3, cr13, {0}
    154c:	0b3b0b3a 	bleq	ec423c <__bss_end__+0xeb93cc>
    1550:	13490b39 	movtne	r0, #39737	; 0x9b39
    1554:	00000b38 	andeq	r0, r0, r8, lsr fp
    1558:	0300340b 	movweq	r3, #1035	; 0x40b
    155c:	3b0b3a0e 	blcc	2cfd9c <__bss_end__+0x2c4f2c>
    1560:	490b390b 	stmdbmi	fp, {r0, r1, r3, r8, fp, ip, sp}
    1564:	00061c13 	andeq	r1, r6, r3, lsl ip
    1568:	000f0c00 	andeq	r0, pc, r0, lsl #24
    156c:	13490b0b 	movtne	r0, #39691	; 0x9b0b
    1570:	260d0000 	strcs	r0, [sp], -r0
    1574:	00134900 	andseq	r4, r3, r0, lsl #18
    1578:	012e0e00 			; <UNDEFINED> instruction: 0x012e0e00
    157c:	0e03193f 			; <UNDEFINED> instruction: 0x0e03193f
    1580:	0b3b0b3a 	bleq	ec4270 <__bss_end__+0xeb9400>
    1584:	19270b39 	stmdbne	r7!, {r0, r3, r4, r5, r8, r9, fp}
    1588:	06120111 			; <UNDEFINED> instruction: 0x06120111
    158c:	42971840 	addsmi	r1, r7, #64, 16	; 0x400000
    1590:	00130119 	andseq	r0, r3, r9, lsl r1
    1594:	82890f00 	addhi	r0, r9, #0, 30
    1598:	01110001 	tsteq	r1, r1
    159c:	00001331 	andeq	r1, r0, r1, lsr r3
    15a0:	3f012e10 	svccc	0x00012e10
    15a4:	3a0e0319 	bcc	382210 <__bss_end__+0x3773a0>
    15a8:	390b3b0b 	stmdbcc	fp, {r0, r1, r3, r8, r9, fp, ip, sp}
    15ac:	4919270b 	ldmdbmi	r9, {r0, r1, r3, r8, r9, sl, sp}
    15b0:	12011113 	andne	r1, r1, #-1073741820	; 0xc0000004
    15b4:	97184006 	ldrls	r4, [r8, -r6]
    15b8:	13011942 	movwne	r1, #6466	; 0x1942
    15bc:	89110000 	ldmdbhi	r1, {}	; <UNPREDICTABLE>
    15c0:	11010182 	smlabbne	r1, r2, r1, r0
    15c4:	00133101 	andseq	r3, r3, r1, lsl #2
    15c8:	828a1200 	addhi	r1, sl, #0, 4
    15cc:	18020001 	stmdane	r2, {r0}
    15d0:	00184291 	mulseq	r8, r1, r2
    15d4:	00051300 	andeq	r1, r5, r0, lsl #6
    15d8:	0b3a0803 	bleq	e835ec <__bss_end__+0xe7877c>
    15dc:	0b390b3b 	bleq	e442d0 <__bss_end__+0xe39460>
    15e0:	17021349 	strne	r1, [r2, -r9, asr #6]
    15e4:	001742b7 			; <UNDEFINED> instruction: 0x001742b7
    15e8:	82891400 	addhi	r1, r9, #0, 8
    15ec:	01110101 	tsteq	r1, r1, lsl #2
    15f0:	13011331 	movwne	r1, #4913	; 0x1331
    15f4:	34150000 	ldrcc	r0, [r5], #-0
    15f8:	3a080300 	bcc	202200 <__bss_end__+0x1f7390>
    15fc:	390b3b0b 	stmdbcc	fp, {r0, r1, r3, r8, r9, fp, ip, sp}
    1600:	0213490b 	andseq	r4, r3, #180224	; 0x2c000
    1604:	1742b717 	smlaldne	fp, r2, r7, r7
    1608:	34160000 	ldrcc	r0, [r6], #-0
    160c:	3a0e0300 	bcc	382214 <__bss_end__+0x3773a4>
    1610:	390b3b0b 	stmdbcc	fp, {r0, r1, r3, r8, r9, fp, ip, sp}
    1614:	1c13490b 			; <UNDEFINED> instruction: 0x1c13490b
    1618:	17000005 	strne	r0, [r0, -r5]
    161c:	0e03012e 	adfeqsp	f0, f3, #0.5
    1620:	0b3b0b3a 	bleq	ec4310 <__bss_end__+0xeb94a0>
    1624:	19270b39 	stmdbne	r7!, {r0, r3, r4, r5, r8, r9, fp}
    1628:	06120111 			; <UNDEFINED> instruction: 0x06120111
    162c:	42971840 	addsmi	r1, r7, #64, 16	; 0x400000
    1630:	00130119 	andseq	r0, r3, r9, lsl r1
    1634:	00051800 	andeq	r1, r5, r0, lsl #16
    1638:	0b3a0e03 	bleq	e84e4c <__bss_end__+0xe79fdc>
    163c:	0b390b3b 	bleq	e44330 <__bss_end__+0xe394c0>
    1640:	17021349 	strne	r1, [r2, -r9, asr #6]
    1644:	001742b7 			; <UNDEFINED> instruction: 0x001742b7
    1648:	00351900 	eorseq	r1, r5, r0, lsl #18
    164c:	2e1a0000 	cdpcs	0, 1, cr0, cr10, cr0, {0}
    1650:	3c193f00 	ldccc	15, cr3, [r9], {-0}
    1654:	030e6e19 	movweq	r6, #60953	; 0xee19
    1658:	3b0b3a0e 	blcc	2cfe98 <__bss_end__+0x2c5028>
    165c:	000b390b 	andeq	r3, fp, fp, lsl #18
    1660:	11010000 	mrsne	r0, (UNDEF: 1)
    1664:	130e2501 	movwne	r2, #58625	; 0xe501
    1668:	1b0e030b 	blne	38229c <__bss_end__+0x37742c>
    166c:	1201110e 	andne	r1, r1, #-2147483645	; 0x80000003
    1670:	00171006 	andseq	r1, r7, r6
    1674:	00240200 	eoreq	r0, r4, r0, lsl #4
    1678:	0b3e0b0b 	bleq	f842ac <__bss_end__+0xf7943c>
    167c:	00000803 	andeq	r0, r0, r3, lsl #16
    1680:	0b002403 	bleq	a694 <__FUNCTION__.4119>
    1684:	030b3e0b 	movweq	r3, #48651	; 0xbe0b
    1688:	0400000e 	streq	r0, [r0], #-14
    168c:	0e030016 	mcreq	0, 0, r0, cr3, cr6, {0}
    1690:	0b3b0b3a 	bleq	ec4380 <__bss_end__+0xeb9510>
    1694:	13490b39 	movtne	r0, #39737	; 0x9b39
    1698:	26050000 	strcs	r0, [r5], -r0
    169c:	00134900 	andseq	r4, r3, r0, lsl #18
    16a0:	000f0600 	andeq	r0, pc, r0, lsl #12
    16a4:	00000b0b 	andeq	r0, r0, fp, lsl #22
    16a8:	3e010407 	cdpcc	4, 0, cr0, cr1, cr7, {0}
    16ac:	490b0b0b 	stmdbmi	fp, {r0, r1, r3, r8, r9, fp}
    16b0:	3b0b3a13 	blcc	2cff04 <__bss_end__+0x2c5094>
    16b4:	010b390b 	tsteq	fp, fp, lsl #18
    16b8:	08000013 	stmdaeq	r0, {r0, r1, r4}
    16bc:	0e030028 	cdpeq	0, 0, cr0, cr3, cr8, {1}
    16c0:	0000061c 	andeq	r0, r0, ip, lsl r6
    16c4:	03003409 	movweq	r3, #1033	; 0x409
    16c8:	3b0b3a0e 	blcc	2cff08 <__bss_end__+0x2c5098>
    16cc:	490b390b 	stmdbmi	fp, {r0, r1, r3, r8, fp, ip, sp}
    16d0:	3c193f13 	ldccc	15, cr3, [r9], {19}
    16d4:	0a000019 	beq	1740 <__code_start__-0x68c0>
    16d8:	0e030034 	mcreq	0, 0, r0, cr3, cr4, {1}
    16dc:	0b3b0b3a 	bleq	ec43cc <__bss_end__+0xeb955c>
    16e0:	13490b39 	movtne	r0, #39737	; 0x9b39
    16e4:	00001802 	andeq	r1, r0, r2, lsl #16
    16e8:	0b000f0b 	bleq	531c <__code_start__-0x2ce4>
    16ec:	0013490b 	andseq	r4, r3, fp, lsl #18
    16f0:	012e0c00 			; <UNDEFINED> instruction: 0x012e0c00
    16f4:	0e03193f 			; <UNDEFINED> instruction: 0x0e03193f
    16f8:	0b3b0b3a 	bleq	ec43e8 <__bss_end__+0xeb9578>
    16fc:	19270b39 	stmdbne	r7!, {r0, r3, r4, r5, r8, r9, fp}
    1700:	06120111 			; <UNDEFINED> instruction: 0x06120111
    1704:	42971840 	addsmi	r1, r7, #64, 16	; 0x400000
    1708:	00130119 	andseq	r0, r3, r9, lsl r1
    170c:	00050d00 	andeq	r0, r5, r0, lsl #26
    1710:	0b3a0803 	bleq	e83724 <__bss_end__+0xe788b4>
    1714:	0b390b3b 	bleq	e44408 <__bss_end__+0xe39598>
    1718:	17021349 	strne	r1, [r2, -r9, asr #6]
    171c:	001742b7 			; <UNDEFINED> instruction: 0x001742b7
    1720:	00340e00 	eorseq	r0, r4, r0, lsl #28
    1724:	13490e03 	movtne	r0, #40451	; 0x9e03
    1728:	18021934 	stmdane	r2, {r2, r4, r5, r8, fp, ip}
    172c:	890f0000 	stmdbhi	pc, {}	; <UNPREDICTABLE>
    1730:	11010182 	smlabbne	r1, r2, r1, r0
    1734:	01133101 	tsteq	r3, r1, lsl #2
    1738:	10000013 	andne	r0, r0, r3, lsl r0
    173c:	0001828a 	andeq	r8, r1, sl, lsl #5
    1740:	42911802 	addsmi	r1, r1, #131072	; 0x20000
    1744:	11000018 	tstne	r0, r8, lsl r0
    1748:	00018289 	andeq	r8, r1, r9, lsl #5
    174c:	13310111 	teqne	r1, #1073741828	; 0x40000004
    1750:	01120000 	tsteq	r2, r0
    1754:	01134901 	tsteq	r3, r1, lsl #18
    1758:	13000013 	movwne	r0, #19
    175c:	13490021 	movtne	r0, #36897	; 0x9021
    1760:	00000b2f 	andeq	r0, r0, pc, lsr #22
    1764:	3f002e14 	svccc	0x00002e14
    1768:	3a0e0319 	bcc	3823d4 <__bss_end__+0x377564>
    176c:	390b3b0b 	stmdbcc	fp, {r0, r1, r3, r8, r9, fp, ip, sp}
    1770:	1119270b 	tstne	r9, fp, lsl #14
    1774:	40061201 	andmi	r1, r6, r1, lsl #4
    1778:	19429718 	stmdbne	r2, {r3, r4, r8, r9, sl, ip, pc}^
    177c:	05150000 	ldreq	r0, [r5, #-0]
    1780:	3a080300 	bcc	202388 <__bss_end__+0x1f7518>
    1784:	390b3b0b 	stmdbcc	fp, {r0, r1, r3, r8, r9, fp, ip, sp}
    1788:	0213490b 	andseq	r4, r3, #180224	; 0x2c000
    178c:	16000018 			; <UNDEFINED> instruction: 0x16000018
    1790:	193f012e 	ldmdbne	pc!, {r1, r2, r3, r5, r8}	; <UNPREDICTABLE>
    1794:	0b3a0e03 	bleq	e84fa8 <__bss_end__+0xe7a138>
    1798:	0b390b3b 	bleq	e4448c <__bss_end__+0xe3961c>
    179c:	13491927 	movtne	r1, #39207	; 0x9927
    17a0:	06120111 			; <UNDEFINED> instruction: 0x06120111
    17a4:	42971840 	addsmi	r1, r7, #64, 16	; 0x400000
    17a8:	00130119 	andseq	r0, r3, r9, lsl r1
    17ac:	00051700 	andeq	r1, r5, r0, lsl #14
    17b0:	0b3a0e03 	bleq	e84fc4 <__bss_end__+0xe7a154>
    17b4:	0b390b3b 	bleq	e444a8 <__bss_end__+0xe39638>
    17b8:	17021349 	strne	r1, [r2, -r9, asr #6]
    17bc:	001742b7 			; <UNDEFINED> instruction: 0x001742b7
    17c0:	00341800 	eorseq	r1, r4, r0, lsl #16
    17c4:	0b3a0803 	bleq	e837d8 <__bss_end__+0xe78968>
    17c8:	0b390b3b 	bleq	e444bc <__bss_end__+0xe3964c>
    17cc:	17021349 	strne	r1, [r2, -r9, asr #6]
    17d0:	001742b7 			; <UNDEFINED> instruction: 0x001742b7
    17d4:	011d1900 	tsteq	sp, r0, lsl #18
    17d8:	01521331 	cmpeq	r2, r1, lsr r3
    17dc:	110b42b8 			; <UNDEFINED> instruction: 0x110b42b8
    17e0:	58061201 	stmdapl	r6, {r0, r9, ip}
    17e4:	570b590b 	strpl	r5, [fp, -fp, lsl #18]
    17e8:	0013010b 	andseq	r0, r3, fp, lsl #2
    17ec:	00051a00 	andeq	r1, r5, r0, lsl #20
    17f0:	17021331 	smladxne	r2, r1, r3, r1
    17f4:	001742b7 			; <UNDEFINED> instruction: 0x001742b7
    17f8:	011d1b00 	tsteq	sp, r0, lsl #22
    17fc:	01521331 	cmpeq	r2, r1, lsr r3
    1800:	550b42b8 	strpl	r4, [fp, #-696]	; 0xfffffd48
    1804:	590b5817 	stmdbpl	fp, {r0, r1, r2, r4, fp, ip, lr}
    1808:	010b570b 	tsteq	fp, fp, lsl #14
    180c:	1c000013 	stcne	0, cr0, [r0], {19}
    1810:	1755010b 	ldrbne	r0, [r5, -fp, lsl #2]
    1814:	341d0000 	ldrcc	r0, [sp], #-0
    1818:	3a0e0300 	bcc	382420 <__bss_end__+0x3775b0>
    181c:	390b3b0b 	stmdbcc	fp, {r0, r1, r3, r8, r9, fp, ip, sp}
    1820:	0213490b 	andseq	r4, r3, #180224	; 0x2c000
    1824:	1742b717 	smlaldne	fp, r2, r7, r7
    1828:	0b1e0000 	bleq	781830 <__bss_end__+0x7769c0>
    182c:	00175500 	andseq	r5, r7, r0, lsl #10
    1830:	002e1f00 	eoreq	r1, lr, r0, lsl #30
    1834:	0e03193f 			; <UNDEFINED> instruction: 0x0e03193f
    1838:	0b3b0b3a 	bleq	ec4528 <__bss_end__+0xeb96b8>
    183c:	19270b39 	stmdbne	r7!, {r0, r3, r4, r5, r8, r9, fp}
    1840:	01111349 	tsteq	r1, r9, asr #6
    1844:	18400612 	stmdane	r0, {r1, r4, r9, sl}^
    1848:	00194297 	mulseq	r9, r7, r2
    184c:	012e2000 			; <UNDEFINED> instruction: 0x012e2000
    1850:	0b3a0e03 	bleq	e85064 <__bss_end__+0xe7a1f4>
    1854:	0b390b3b 	bleq	e44548 <__bss_end__+0xe396d8>
    1858:	13491927 	movtne	r1, #39207	; 0x9927
    185c:	13010b20 	movwne	r0, #6944	; 0x1b20
    1860:	05210000 	streq	r0, [r1, #-0]!
    1864:	3a080300 	bcc	20246c <__bss_end__+0x1f75fc>
    1868:	390b3b0b 	stmdbcc	fp, {r0, r1, r3, r8, r9, fp, ip, sp}
    186c:	0013490b 	andseq	r4, r3, fp, lsl #18
    1870:	002e2200 	eoreq	r2, lr, r0, lsl #4
    1874:	193c193f 	ldmdbne	ip!, {r0, r1, r2, r3, r4, r5, r8, fp, ip}
    1878:	0e030e6e 	cdpeq	14, 0, cr0, cr3, cr14, {3}
    187c:	0b3b0b3a 	bleq	ec456c <__bss_end__+0xeb96fc>
    1880:	00000b39 	andeq	r0, r0, r9, lsr fp
    1884:	01110100 	tsteq	r1, r0, lsl #2
    1888:	0b130e25 	bleq	4c5124 <__bss_end__+0x4ba2b4>
    188c:	0e1b0e03 	cdpeq	14, 1, cr0, cr11, cr3, {0}
    1890:	06120111 			; <UNDEFINED> instruction: 0x06120111
    1894:	00001710 	andeq	r1, r0, r0, lsl r7
    1898:	0b002402 	bleq	a8a8 <__FUNCTION__.4034+0x98>
    189c:	030b3e0b 	movweq	r3, #48651	; 0xbe0b
    18a0:	03000008 	movweq	r0, #8
    18a4:	0b0b0024 	bleq	2c193c <__bss_end__+0x2b6acc>
    18a8:	0e030b3e 	vmoveq.16	d3[0], r0
    18ac:	15040000 	strne	r0, [r4, #-0]
    18b0:	49192701 	ldmdbmi	r9, {r0, r8, r9, sl, sp}
    18b4:	00130113 	andseq	r0, r3, r3, lsl r1
    18b8:	00050500 	andeq	r0, r5, r0, lsl #10
    18bc:	00001349 	andeq	r1, r0, r9, asr #6
    18c0:	03003406 	movweq	r3, #1030	; 0x406
    18c4:	3b0b3a0e 	blcc	2d0104 <__bss_end__+0x2c5294>
    18c8:	490b390b 	stmdbmi	fp, {r0, r1, r3, r8, fp, ip, sp}
    18cc:	3c193f13 	ldccc	15, cr3, [r9], {19}
    18d0:	07000019 	smladeq	r0, r9, r0, r0
    18d4:	0b0b000f 	bleq	2c1918 <__bss_end__+0x2b6aa8>
    18d8:	00001349 	andeq	r1, r0, r9, asr #6
    18dc:	49002608 	stmdbmi	r0, {r3, r9, sl, sp}
    18e0:	09000013 	stmdbeq	r0, {r0, r1, r4}
    18e4:	13470034 	movtne	r0, #28724	; 0x7034
    18e8:	0b3b0b3a 	bleq	ec45d8 <__bss_end__+0xeb9768>
    18ec:	18020b39 	stmdane	r2, {r0, r3, r4, r5, r8, r9, fp}
    18f0:	2e0a0000 	cdpcs	0, 0, cr0, cr10, cr0, {0}
    18f4:	03193f01 	tsteq	r9, #1, 30
    18f8:	3b0b3a0e 	blcc	2d0138 <__bss_end__+0x2c52c8>
    18fc:	270b390b 	strcs	r3, [fp, -fp, lsl #18]
    1900:	12011119 	andne	r1, r1, #1073741830	; 0x40000006
    1904:	97184006 	ldrls	r4, [r8, -r6]
    1908:	13011942 	movwne	r1, #6466	; 0x1942
    190c:	050b0000 	streq	r0, [fp, #-0]
    1910:	3a080300 	bcc	202518 <__bss_end__+0x1f76a8>
    1914:	390b3b0b 	stmdbcc	fp, {r0, r1, r3, r8, r9, fp, ip, sp}
    1918:	0213490b 	andseq	r4, r3, #180224	; 0x2c000
    191c:	0c000018 	stceq	0, cr0, [r0], {24}
    1920:	193f002e 	ldmdbne	pc!, {r1, r2, r3, r5}	; <UNPREDICTABLE>
    1924:	0b3a0e03 	bleq	e85138 <__bss_end__+0xe7a2c8>
    1928:	0b390b3b 	bleq	e4461c <__bss_end__+0xe397ac>
    192c:	01111927 	tsteq	r1, r7, lsr #18
    1930:	18400612 	stmdane	r0, {r1, r4, r9, sl}^
    1934:	00194297 	mulseq	r9, r7, r2
    1938:	012e0d00 			; <UNDEFINED> instruction: 0x012e0d00
    193c:	0b3a0e03 	bleq	e85150 <__bss_end__+0xe7a2e0>
    1940:	0b390b3b 	bleq	e44634 <__bss_end__+0xe397c4>
    1944:	13491927 	movtne	r1, #39207	; 0x9927
    1948:	06120111 			; <UNDEFINED> instruction: 0x06120111
    194c:	42971840 	addsmi	r1, r7, #64, 16	; 0x400000
    1950:	00130119 	andseq	r0, r3, r9, lsl r1
    1954:	00050e00 	andeq	r0, r5, r0, lsl #28
    1958:	0b3a0803 	bleq	e8396c <__bss_end__+0xe78afc>
    195c:	0b390b3b 	bleq	e44650 <__bss_end__+0xe397e0>
    1960:	17021349 	strne	r1, [r2, -r9, asr #6]
    1964:	001742b7 			; <UNDEFINED> instruction: 0x001742b7
    1968:	82890f00 	addhi	r0, r9, #0, 30
    196c:	01110101 	tsteq	r1, r1, lsl #2
    1970:	00001331 	andeq	r1, r0, r1, lsr r3
    1974:	01828a10 	orreq	r8, r2, r0, lsl sl
    1978:	91180200 	tstls	r8, r0, lsl #4
    197c:	00001842 	andeq	r1, r0, r2, asr #16
    1980:	3f002e11 	svccc	0x00002e11
    1984:	6e193c19 	mrcvs	12, 0, r3, cr9, cr9, {0}
    1988:	3a0e030e 	bcc	3825c8 <__bss_end__+0x377758>
    198c:	390b3b0b 	stmdbcc	fp, {r0, r1, r3, r8, r9, fp, ip, sp}
    1990:	0000000b 	andeq	r0, r0, fp
    1994:	25011101 	strcs	r1, [r1, #-257]	; 0xfffffeff
    1998:	030b130e 	movweq	r1, #45838	; 0xb30e
    199c:	110e1b0e 	tstne	lr, lr, lsl #22
    19a0:	10061201 	andne	r1, r6, r1, lsl #4
    19a4:	02000017 	andeq	r0, r0, #23, 0
    19a8:	0b0b0024 	bleq	2c1a40 <__bss_end__+0x2b6bd0>
    19ac:	08030b3e 	stmdaeq	r3, {r1, r2, r3, r4, r5, r8, r9, fp}
    19b0:	24030000 	strcs	r0, [r3], #-0
    19b4:	3e0b0b00 	vmlacc.f64	d0, d11, d0
    19b8:	000e030b 	andeq	r0, lr, fp, lsl #6
    19bc:	01150400 	tsteq	r5, r0, lsl #8
    19c0:	13491927 	movtne	r1, #39207	; 0x9927
    19c4:	00001301 	andeq	r1, r0, r1, lsl #6
    19c8:	49000505 	stmdbmi	r0, {r0, r2, r8, sl}
    19cc:	06000013 			; <UNDEFINED> instruction: 0x06000013
    19d0:	0e030034 	mcreq	0, 0, r0, cr3, cr4, {1}
    19d4:	0b3b0b3a 	bleq	ec46c4 <__bss_end__+0xeb9854>
    19d8:	13490b39 	movtne	r0, #39737	; 0x9b39
    19dc:	193c193f 	ldmdbne	ip!, {r0, r1, r2, r3, r4, r5, r8, fp, ip}
    19e0:	0f070000 	svceq	0x00070000
    19e4:	490b0b00 	stmdbmi	fp, {r8, r9, fp}
    19e8:	08000013 	stmdaeq	r0, {r0, r1, r4}
    19ec:	13490026 	movtne	r0, #36902	; 0x9026
    19f0:	2e090000 	cdpcs	0, 0, cr0, cr9, cr0, {0}
    19f4:	03193f01 	tsteq	r9, #1, 30
    19f8:	3b0b3a0e 	blcc	2d0238 <__bss_end__+0x2c53c8>
    19fc:	270b390b 	strcs	r3, [fp, -fp, lsl #18]
    1a00:	11134919 	tstne	r3, r9, lsl r9
    1a04:	40061201 	andmi	r1, r6, r1, lsl #4
    1a08:	19429718 	stmdbne	r2, {r3, r4, r8, r9, sl, ip, pc}^
    1a0c:	00001301 	andeq	r1, r0, r1, lsl #6
    1a10:	0300050a 	movweq	r0, #1290	; 0x50a
    1a14:	3b0b3a0e 	blcc	2d0254 <__bss_end__+0x2c53e4>
    1a18:	490b390b 	stmdbmi	fp, {r0, r1, r3, r8, fp, ip, sp}
    1a1c:	00180213 	andseq	r0, r8, r3, lsl r2
    1a20:	00050b00 	andeq	r0, r5, r0, lsl #22
    1a24:	0b3a0803 	bleq	e83a38 <__bss_end__+0xe78bc8>
    1a28:	0b390b3b 	bleq	e4471c <__bss_end__+0xe398ac>
    1a2c:	17021349 	strne	r1, [r2, -r9, asr #6]
    1a30:	001742b7 			; <UNDEFINED> instruction: 0x001742b7
    1a34:	00340c00 	eorseq	r0, r4, r0, lsl #24
    1a38:	0b3a0803 	bleq	e83a4c <__bss_end__+0xe78bdc>
    1a3c:	0b390b3b 	bleq	e44730 <__bss_end__+0xe398c0>
    1a40:	17021349 	strne	r1, [r2, -r9, asr #6]
    1a44:	001742b7 			; <UNDEFINED> instruction: 0x001742b7
    1a48:	11010000 	mrsne	r0, (UNDEF: 1)
    1a4c:	130e2501 	movwne	r2, #58625	; 0xe501
    1a50:	1b0e030b 	blne	382684 <__bss_end__+0x377814>
    1a54:	1201110e 	andne	r1, r1, #-2147483645	; 0x80000003
    1a58:	00171006 	andseq	r1, r7, r6
    1a5c:	00240200 	eoreq	r0, r4, r0, lsl #4
    1a60:	0b3e0b0b 	bleq	f84694 <__bss_end__+0xf79824>
    1a64:	00000803 	andeq	r0, r0, r3, lsl #16
    1a68:	0b002403 	bleq	aa7c <buf.3948+0x14>
    1a6c:	030b3e0b 	movweq	r3, #48651	; 0xbe0b
    1a70:	0400000e 	streq	r0, [r0], #-14
    1a74:	19270115 	stmdbne	r7!, {r0, r2, r4, r8}
    1a78:	13011349 	movwne	r1, #4937	; 0x1349
    1a7c:	05050000 	streq	r0, [r5, #-0]
    1a80:	00134900 	andseq	r4, r3, r0, lsl #18
    1a84:	00340600 	eorseq	r0, r4, r0, lsl #12
    1a88:	0b3a0e03 	bleq	e8529c <__bss_end__+0xe7a42c>
    1a8c:	0b390b3b 	bleq	e44780 <__bss_end__+0xe39910>
    1a90:	193f1349 	ldmdbne	pc!, {r0, r3, r6, r8, r9, ip}	; <UNPREDICTABLE>
    1a94:	0000193c 	andeq	r1, r0, ip, lsr r9
    1a98:	0b000f07 	bleq	56bc <__code_start__-0x2944>
    1a9c:	0013490b 	andseq	r4, r3, fp, lsl #18
    1aa0:	00260800 	eoreq	r0, r6, r0, lsl #16
    1aa4:	00001349 	andeq	r1, r0, r9, asr #6
    1aa8:	3f012e09 	svccc	0x00012e09
    1aac:	3a0e0319 	bcc	382718 <__bss_end__+0x3778a8>
    1ab0:	390b3b0b 	stmdbcc	fp, {r0, r1, r3, r8, r9, fp, ip, sp}
    1ab4:	4919270b 	ldmdbmi	r9, {r0, r1, r3, r8, r9, sl, sp}
    1ab8:	12011113 	andne	r1, r1, #-1073741820	; 0xc0000004
    1abc:	97184006 	ldrls	r4, [r8, -r6]
    1ac0:	00001942 	andeq	r1, r0, r2, asr #18
    1ac4:	0300050a 	movweq	r0, #1290	; 0x50a
    1ac8:	3b0b3a08 	blcc	2d02f0 <__bss_end__+0x2c5480>
    1acc:	490b390b 	stmdbmi	fp, {r0, r1, r3, r8, fp, ip, sp}
    1ad0:	b7170213 			; <UNDEFINED> instruction: 0xb7170213
    1ad4:	00001742 	andeq	r1, r0, r2, asr #14
    1ad8:	01110100 	tsteq	r1, r0, lsl #2
    1adc:	0b130e25 	bleq	4c5378 <__bss_end__+0x4ba508>
    1ae0:	0e1b0e03 	cdpeq	14, 1, cr0, cr11, cr3, {0}
    1ae4:	06120111 			; <UNDEFINED> instruction: 0x06120111
    1ae8:	00001710 	andeq	r1, r0, r0, lsl r7
    1aec:	0b002402 	bleq	aafc <buf.3948+0x94>
    1af0:	030b3e0b 	movweq	r3, #48651	; 0xbe0b
    1af4:	03000008 	movweq	r0, #8
    1af8:	0b0b0024 	bleq	2c1b90 <__bss_end__+0x2b6d20>
    1afc:	0e030b3e 	vmoveq.16	d3[0], r0
    1b00:	15040000 	strne	r0, [r4, #-0]
    1b04:	49192701 	ldmdbmi	r9, {r0, r8, r9, sl, sp}
    1b08:	00130113 	andseq	r0, r3, r3, lsl r1
    1b0c:	00050500 	andeq	r0, r5, r0, lsl #10
    1b10:	00001349 	andeq	r1, r0, r9, asr #6
    1b14:	03003406 	movweq	r3, #1030	; 0x406
    1b18:	3b0b3a0e 	blcc	2d0358 <__bss_end__+0x2c54e8>
    1b1c:	490b390b 	stmdbmi	fp, {r0, r1, r3, r8, fp, ip, sp}
    1b20:	3c193f13 	ldccc	15, cr3, [r9], {19}
    1b24:	07000019 	smladeq	r0, r9, r0, r0
    1b28:	0b0b000f 	bleq	2c1b6c <__bss_end__+0x2b6cfc>
    1b2c:	00001349 	andeq	r1, r0, r9, asr #6
    1b30:	49002608 	stmdbmi	r0, {r3, r9, sl, sp}
    1b34:	09000013 	stmdbeq	r0, {r0, r1, r4}
    1b38:	193f012e 	ldmdbne	pc!, {r1, r2, r3, r5, r8}	; <UNPREDICTABLE>
    1b3c:	0b3a0e03 	bleq	e85350 <__bss_end__+0xe7a4e0>
    1b40:	0b390b3b 	bleq	e44834 <__bss_end__+0xe399c4>
    1b44:	13491927 	movtne	r1, #39207	; 0x9927
    1b48:	06120111 			; <UNDEFINED> instruction: 0x06120111
    1b4c:	42971840 	addsmi	r1, r7, #64, 16	; 0x400000
    1b50:	00130119 	andseq	r0, r3, r9, lsl r1
    1b54:	00050a00 	andeq	r0, r5, r0, lsl #20
    1b58:	0b3a0803 	bleq	e83b6c <__bss_end__+0xe78cfc>
    1b5c:	0b390b3b 	bleq	e44850 <__bss_end__+0xe399e0>
    1b60:	18021349 	stmdane	r2, {r0, r3, r6, r8, r9, ip}
    1b64:	050b0000 	streq	r0, [fp, #-0]
    1b68:	3a080300 	bcc	202770 <__bss_end__+0x1f7900>
    1b6c:	390b3b0b 	stmdbcc	fp, {r0, r1, r3, r8, r9, fp, ip, sp}
    1b70:	0213490b 	andseq	r4, r3, #180224	; 0x2c000
    1b74:	1742b717 	smlaldne	fp, r2, r7, r7
    1b78:	340c0000 	strcc	r0, [ip], #-0
    1b7c:	3a080300 	bcc	202784 <__bss_end__+0x1f7914>
    1b80:	390b3b0b 	stmdbcc	fp, {r0, r1, r3, r8, r9, fp, ip, sp}
    1b84:	0213490b 	andseq	r4, r3, #180224	; 0x2c000
    1b88:	1742b717 	smlaldne	fp, r2, r7, r7
    1b8c:	01000000 	mrseq	r0, (UNDEF: 0)
    1b90:	0e250111 	mcreq	1, 1, r0, cr5, cr1, {0}
    1b94:	0e030b13 	vmoveq.32	d3[0], r0
    1b98:	17550e1b 	smmlane	r5, fp, lr, r0
    1b9c:	17100111 			; <UNDEFINED> instruction: 0x17100111
    1ba0:	24020000 	strcs	r0, [r2], #-0
    1ba4:	3e0b0b00 	vmlacc.f64	d0, d11, d0
    1ba8:	0008030b 	andeq	r0, r8, fp, lsl #6
    1bac:	00160300 	andseq	r0, r6, r0, lsl #6
    1bb0:	0b3a0e03 	bleq	e853c4 <__bss_end__+0xe7a554>
    1bb4:	0b390b3b 	bleq	e448a8 <__bss_end__+0xe39a38>
    1bb8:	00001349 	andeq	r1, r0, r9, asr #6
    1bbc:	0b002404 	bleq	abd4 <buf.3948+0x16c>
    1bc0:	030b3e0b 	movweq	r3, #48651	; 0xbe0b
    1bc4:	0500000e 	streq	r0, [r0, #-14]
    1bc8:	13490026 	movtne	r0, #36902	; 0x9026
    1bcc:	15060000 	strne	r0, [r6, #-0]
    1bd0:	49192701 	ldmdbmi	r9, {r0, r8, r9, sl, sp}
    1bd4:	00130113 	andseq	r0, r3, r3, lsl r1
    1bd8:	00050700 	andeq	r0, r5, r0, lsl #14
    1bdc:	00001349 	andeq	r1, r0, r9, asr #6
    1be0:	03003408 	movweq	r3, #1032	; 0x408
    1be4:	3b0b3a0e 	blcc	2d0424 <__bss_end__+0x2c55b4>
    1be8:	490b390b 	stmdbmi	fp, {r0, r1, r3, r8, fp, ip, sp}
    1bec:	3c193f13 	ldccc	15, cr3, [r9], {19}
    1bf0:	09000019 	stmdbeq	r0, {r0, r3, r4}
    1bf4:	0b0b000f 	bleq	2c1c38 <__bss_end__+0x2b6dc8>
    1bf8:	00001349 	andeq	r1, r0, r9, asr #6
    1bfc:	3f012e0a 	svccc	0x00012e0a
    1c00:	3a0e0319 	bcc	38286c <__bss_end__+0x3779fc>
    1c04:	390b3b0b 	stmdbcc	fp, {r0, r1, r3, r8, r9, fp, ip, sp}
    1c08:	4919270b 	ldmdbmi	r9, {r0, r1, r3, r8, r9, sl, sp}
    1c0c:	12011113 	andne	r1, r1, #-1073741820	; 0xc0000004
    1c10:	97184006 	ldrls	r4, [r8, -r6]
    1c14:	13011942 	movwne	r1, #6466	; 0x1942
    1c18:	050b0000 	streq	r0, [fp, #-0]
    1c1c:	3a080300 	bcc	202824 <__bss_end__+0x1f79b4>
    1c20:	390b3b0b 	stmdbcc	fp, {r0, r1, r3, r8, r9, fp, ip, sp}
    1c24:	0213490b 	andseq	r4, r3, #180224	; 0x2c000
    1c28:	1742b717 	smlaldne	fp, r2, r7, r7
    1c2c:	340c0000 	strcc	r0, [ip], #-0
    1c30:	3a080300 	bcc	202838 <__bss_end__+0x1f79c8>
    1c34:	390b3b0b 	stmdbcc	fp, {r0, r1, r3, r8, r9, fp, ip, sp}
    1c38:	0213490b 	andseq	r4, r3, #180224	; 0x2c000
    1c3c:	1742b717 	smlaldne	fp, r2, r7, r7
    1c40:	01000000 	mrseq	r0, (UNDEF: 0)
    1c44:	0e250111 	mcreq	1, 1, r0, cr5, cr1, {0}
    1c48:	0e030b13 	vmoveq.32	d3[0], r0
    1c4c:	01110e1b 	tsteq	r1, fp, lsl lr
    1c50:	17100612 			; <UNDEFINED> instruction: 0x17100612
    1c54:	24020000 	strcs	r0, [r2], #-0
    1c58:	3e0b0b00 	vmlacc.f64	d0, d11, d0
    1c5c:	0008030b 	andeq	r0, r8, fp, lsl #6
    1c60:	00240300 	eoreq	r0, r4, r0, lsl #6
    1c64:	0b3e0b0b 	bleq	f84898 <__bss_end__+0xf79a28>
    1c68:	00000e03 	andeq	r0, r0, r3, lsl #28
    1c6c:	27011504 	strcs	r1, [r1, -r4, lsl #10]
    1c70:	01134919 	tsteq	r3, r9, lsl r9
    1c74:	05000013 	streq	r0, [r0, #-19]	; 0xffffffed
    1c78:	13490005 	movtne	r0, #36869	; 0x9005
    1c7c:	34060000 	strcc	r0, [r6], #-0
    1c80:	3a0e0300 	bcc	382888 <__bss_end__+0x377a18>
    1c84:	390b3b0b 	stmdbcc	fp, {r0, r1, r3, r8, r9, fp, ip, sp}
    1c88:	3f13490b 	svccc	0x0013490b
    1c8c:	00193c19 	andseq	r3, r9, r9, lsl ip
    1c90:	000f0700 	andeq	r0, pc, r0, lsl #14
    1c94:	13490b0b 	movtne	r0, #39691	; 0x9b0b
    1c98:	26080000 	strcs	r0, [r8], -r0
    1c9c:	00134900 	andseq	r4, r3, r0, lsl #18
    1ca0:	002e0900 	eoreq	r0, lr, r0, lsl #18
    1ca4:	0e03193f 			; <UNDEFINED> instruction: 0x0e03193f
    1ca8:	0b3b0b3a 	bleq	ec4998 <__bss_end__+0xeb9b28>
    1cac:	19270b39 	stmdbne	r7!, {r0, r3, r4, r5, r8, r9, fp}
    1cb0:	06120111 			; <UNDEFINED> instruction: 0x06120111
    1cb4:	42971840 	addsmi	r1, r7, #64, 16	; 0x400000
    1cb8:	00000019 	andeq	r0, r0, r9, lsl r0
    1cbc:	25011101 	strcs	r1, [r1, #-257]	; 0xfffffeff
    1cc0:	030b130e 	movweq	r1, #45838	; 0xb30e
    1cc4:	110e1b0e 	tstne	lr, lr, lsl #22
    1cc8:	10061201 	andne	r1, r6, r1, lsl #4
    1ccc:	02000017 	andeq	r0, r0, #23, 0
    1cd0:	0b0b0024 	bleq	2c1d68 <__bss_end__+0x2b6ef8>
    1cd4:	08030b3e 	stmdaeq	r3, {r1, r2, r3, r4, r5, r8, r9, fp}
    1cd8:	24030000 	strcs	r0, [r3], #-0
    1cdc:	3e0b0b00 	vmlacc.f64	d0, d11, d0
    1ce0:	000e030b 	andeq	r0, lr, fp, lsl #6
    1ce4:	00260400 	eoreq	r0, r6, r0, lsl #8
    1ce8:	00001349 	andeq	r1, r0, r9, asr #6
    1cec:	03001605 	movweq	r1, #1541	; 0x605
    1cf0:	3b0b3a0e 	blcc	2d0530 <__bss_end__+0x2c56c0>
    1cf4:	490b390b 	stmdbmi	fp, {r0, r1, r3, r8, fp, ip, sp}
    1cf8:	06000013 			; <UNDEFINED> instruction: 0x06000013
    1cfc:	0b3e0104 	bleq	f82114 <__bss_end__+0xf772a4>
    1d00:	13490b0b 	movtne	r0, #39691	; 0x9b0b
    1d04:	0b3b0b3a 	bleq	ec49f4 <__bss_end__+0xeb9b84>
    1d08:	13010b39 	movwne	r0, #6969	; 0x1b39
    1d0c:	28070000 	stmdacs	r7, {}	; <UNPREDICTABLE>
    1d10:	1c0e0300 	stcne	3, cr0, [lr], {-0}
    1d14:	0800000b 	stmdaeq	r0, {r0, r1, r3}
    1d18:	0e030034 	mcreq	0, 0, r0, cr3, cr4, {1}
    1d1c:	0b3b0b3a 	bleq	ec4a0c <__bss_end__+0xeb9b9c>
    1d20:	13490b39 	movtne	r0, #39737	; 0x9b39
    1d24:	0000061c 	andeq	r0, r0, ip, lsl r6
    1d28:	3f012e09 	svccc	0x00012e09
    1d2c:	3a0e0319 	bcc	382998 <__bss_end__+0x377b28>
    1d30:	390b3b0b 	stmdbcc	fp, {r0, r1, r3, r8, r9, fp, ip, sp}
    1d34:	4919270b 	ldmdbmi	r9, {r0, r1, r3, r8, r9, sl, sp}
    1d38:	12011113 	andne	r1, r1, #-1073741820	; 0xc0000004
    1d3c:	97184006 	ldrls	r4, [r8, -r6]
    1d40:	13011942 	movwne	r1, #6466	; 0x1942
    1d44:	050a0000 	streq	r0, [sl, #-0]
    1d48:	3a080300 	bcc	202950 <__bss_end__+0x1f7ae0>
    1d4c:	390b3b0b 	stmdbcc	fp, {r0, r1, r3, r8, r9, fp, ip, sp}
    1d50:	0213490b 	andseq	r4, r3, #180224	; 0x2c000
    1d54:	1742b717 	smlaldne	fp, r2, r7, r7
    1d58:	340b0000 	strcc	r0, [fp], #-0
    1d5c:	3a0e0300 	bcc	382964 <__bss_end__+0x377af4>
    1d60:	390b3b0b 	stmdbcc	fp, {r0, r1, r3, r8, r9, fp, ip, sp}
    1d64:	0213490b 	andseq	r4, r3, #180224	; 0x2c000
    1d68:	1742b717 	smlaldne	fp, r2, r7, r7
    1d6c:	340c0000 	strcc	r0, [ip], #-0
    1d70:	3a080300 	bcc	202978 <__bss_end__+0x1f7b08>
    1d74:	390b3b0b 	stmdbcc	fp, {r0, r1, r3, r8, r9, fp, ip, sp}
    1d78:	0213490b 	andseq	r4, r3, #180224	; 0x2c000
    1d7c:	1742b717 	smlaldne	fp, r2, r7, r7
    1d80:	890d0000 	stmdbhi	sp, {}	; <UNPREDICTABLE>
    1d84:	11010182 	smlabbne	r1, r2, r1, r0
    1d88:	00133101 	andseq	r3, r3, r1, lsl #2
    1d8c:	828a0e00 	addhi	r0, sl, #0, 28
    1d90:	18020001 	stmdane	r2, {r0}
    1d94:	00184291 	mulseq	r8, r1, r2
    1d98:	012e0f00 			; <UNDEFINED> instruction: 0x012e0f00
    1d9c:	0e03193f 			; <UNDEFINED> instruction: 0x0e03193f
    1da0:	0b3b0b3a 	bleq	ec4a90 <__bss_end__+0xeb9c20>
    1da4:	19270b39 	stmdbne	r7!, {r0, r3, r4, r5, r8, r9, fp}
    1da8:	06120111 			; <UNDEFINED> instruction: 0x06120111
    1dac:	42971840 	addsmi	r1, r7, #64, 16	; 0x400000
    1db0:	00130119 	andseq	r0, r3, r9, lsl r1
    1db4:	82891000 	addhi	r1, r9, #0, 0
    1db8:	01110101 	tsteq	r1, r1, lsl #2
    1dbc:	13011331 	movwne	r1, #4913	; 0x1331
    1dc0:	89110000 	ldmdbhi	r1, {}	; <UNPREDICTABLE>
    1dc4:	11000182 	smlabbne	r0, r2, r1, r0
    1dc8:	00133101 	andseq	r3, r3, r1, lsl #2
    1dcc:	00051200 	andeq	r1, r5, r0, lsl #4
    1dd0:	0b3a0e03 	bleq	e855e4 <__bss_end__+0xe7a774>
    1dd4:	0b390b3b 	bleq	e44ac8 <__bss_end__+0xe39c58>
    1dd8:	17021349 	strne	r1, [r2, -r9, asr #6]
    1ddc:	001742b7 			; <UNDEFINED> instruction: 0x001742b7
    1de0:	012e1300 			; <UNDEFINED> instruction: 0x012e1300
    1de4:	0b3a0e03 	bleq	e855f8 <__bss_end__+0xe7a788>
    1de8:	0b390b3b 	bleq	e44adc <__bss_end__+0xe39c6c>
    1dec:	13491927 	movtne	r1, #39207	; 0x9927
    1df0:	13010b20 	movwne	r0, #6944	; 0x1b20
    1df4:	05140000 	ldreq	r0, [r4, #-0]
    1df8:	3a080300 	bcc	202a00 <__bss_end__+0x1f7b90>
    1dfc:	390b3b0b 	stmdbcc	fp, {r0, r1, r3, r8, r9, fp, ip, sp}
    1e00:	0013490b 	andseq	r4, r3, fp, lsl #18
    1e04:	002e1500 	eoreq	r1, lr, r0, lsl #10
    1e08:	193c193f 	ldmdbne	ip!, {r0, r1, r2, r3, r4, r5, r8, fp, ip}
    1e0c:	0e030e6e 	cdpeq	14, 0, cr0, cr3, cr14, {3}
    1e10:	0b3b0b3a 	bleq	ec4b00 <__bss_end__+0xeb9c90>
    1e14:	00000b39 	andeq	r0, r0, r9, lsr fp
	...

Disassembly of section .debug_loc:

00000000 <.debug_loc>:
       0:	00000000 	andeq	r0, r0, r0
       4:	00000044 	andeq	r0, r0, r4, asr #32
       8:	00000047 	andeq	r0, r0, r7, asr #32
       c:	47500001 	ldrbmi	r0, [r0, -r1]
      10:	f8000000 			; <UNDEFINED> instruction: 0xf8000000
      14:	01000000 	mrseq	r0, (UNDEF: 0)
      18:	00005700 	andeq	r5, r0, r0, lsl #14
	...
      24:	00700000 	rsbseq	r0, r0, r0
      28:	008c0000 	addeq	r0, ip, r0
      2c:	00010000 	andeq	r0, r1, r0
      30:	00008c50 	andeq	r8, r0, r0, asr ip
      34:	0000f800 	andeq	pc, r0, r0, lsl #16
      38:	56000100 	strpl	r0, [r0], -r0, lsl #2
	...
      44:	00140000 	andseq	r0, r4, r0
      48:	002c0000 	eoreq	r0, ip, r0
      4c:	00020000 	andeq	r0, r2, r0
      50:	00009f38 	andeq	r9, r0, r8, lsr pc
	...
      5c:	00000014 	andeq	r0, r0, r4, lsl r0
      60:	0000002c 	andeq	r0, r0, ip, lsr #32
      64:	5bf20006 	blpl	ffc80084 <__bss_end__+0xffc75214>
      68:	00000004 	andeq	r0, r0, r4
	...
      74:	00140000 	andseq	r0, r4, r0
      78:	002c0000 	eoreq	r0, ip, r0
      7c:	00060000 	andeq	r0, r6, r0
      80:	00a06803 	adceq	r6, r0, r3, lsl #16
      84:	00009f00 	andeq	r9, r0, r0, lsl #30
	...
      90:	00000048 	andeq	r0, r0, r8, asr #32
      94:	00000058 	andeq	r0, r0, r8, asr r0
      98:	9f390002 	svcls	0x00390002
	...
      a4:	00480000 	subeq	r0, r8, r0
      a8:	00580000 	subseq	r0, r8, r0
      ac:	00060000 	andeq	r0, r6, r0
      b0:	00045bf2 	strdeq	r5, [r4], -r2
	...
      c0:	00000048 	andeq	r0, r0, r8, asr #32
      c4:	00000058 	andeq	r0, r0, r8, asr r0
      c8:	68030006 	stmdavs	r3, {r1, r2}
      cc:	9f0000a0 	svcls	0x000000a0
	...
      d8:	00700001 	rsbseq	r0, r0, r1
      dc:	00800000 	addeq	r0, r0, r0
      e0:	00020000 	andeq	r0, r2, r0
      e4:	00009f3a 	andeq	r9, r0, sl, lsr pc
      e8:	00000000 	andeq	r0, r0, r0
      ec:	00010000 	andeq	r0, r1, r0
      f0:	00000070 	andeq	r0, r0, r0, ror r0
      f4:	00000080 	andeq	r0, r0, r0, lsl #1
      f8:	5bf20006 	blpl	ffc80118 <__bss_end__+0xffc752a8>
      fc:	00000004 	andeq	r0, r0, r4
	...
     108:	00700001 	rsbseq	r0, r0, r1
     10c:	00800000 	addeq	r0, r0, r0
     110:	00060000 	andeq	r0, r6, r0
     114:	00a06803 	adceq	r6, r0, r3, lsl #16
     118:	00009f00 	andeq	r9, r0, r0, lsl #30
     11c:	00000000 	andeq	r0, r0, r0
     120:	00010000 	andeq	r0, r1, r0
     124:	00000090 	muleq	r0, r0, r0
     128:	000000a0 	andeq	r0, r0, r0, lsr #1
     12c:	9f3b0002 	svcls	0x003b0002
	...
     138:	00900001 	addseq	r0, r0, r1
     13c:	00a00000 	adceq	r0, r0, r0
     140:	00060000 	andeq	r0, r6, r0
     144:	00045bf2 	strdeq	r5, [r4], -r2
	...
     150:	00010000 	andeq	r0, r1, r0
     154:	00000090 	muleq	r0, r0, r0
     158:	000000a0 	andeq	r0, r0, r0, lsr #1
     15c:	68030006 	stmdavs	r3, {r1, r2}
     160:	9f0000a0 	svcls	0x000000a0
	...
     170:	04500000 	ldrbeq	r0, [r0], #-0
     174:	04680000 	strbteq	r0, [r8], #-0
     178:	00010000 	andeq	r0, r1, r0
     17c:	00046850 	andeq	r6, r4, r0, asr r8
     180:	00051c00 	andeq	r1, r5, r0, lsl #24
     184:	56000100 	strpl	r0, [r0], -r0, lsl #2
     188:	0000051c 	andeq	r0, r0, ip, lsl r5
     18c:	0000052c 	andeq	r0, r0, ip, lsr #10
     190:	01f30004 	mvnseq	r0, r4
     194:	00009f50 	andeq	r9, r0, r0, asr pc
	...
     1a4:	00000470 	andeq	r0, r0, r0, ror r4
     1a8:	0000047b 	andeq	r0, r0, fp, ror r4
     1ac:	7b500001 	blvc	14001b8 <__bss_end__+0x13f5348>
     1b0:	1c000004 	stcne	0, cr0, [r0], {4}
     1b4:	01000005 	tsteq	r0, r5
     1b8:	051c5400 	ldreq	r5, [ip, #-1024]	; 0xfffffc00
     1bc:	052c0000 	streq	r0, [ip, #-0]!
     1c0:	00040000 	andeq	r0, r4, r0
     1c4:	9f7ed870 	svcls	0x007ed870
	...
     1d0:	04b00001 	ldrteq	r0, [r0], #1
     1d4:	04b80000 	ldrteq	r0, [r8], #0
     1d8:	00010000 	andeq	r0, r1, r0
     1dc:	00000054 	andeq	r0, r0, r4, asr r0
	...
     1e8:	0002e000 	andeq	lr, r2, r0
     1ec:	0002f000 	andeq	pc, r2, r0
     1f0:	50000100 	andpl	r0, r0, r0, lsl #2
     1f4:	000002f0 	strdeq	r0, [r0], -r0	; <UNPREDICTABLE>
     1f8:	00000450 	andeq	r0, r0, r0, asr r4
     1fc:	00540001 	subseq	r0, r4, r1
     200:	00000000 	andeq	r0, r0, r0
     204:	01000000 	mrseq	r0, (UNDEF: 0)
     208:	00000000 	andeq	r0, r0, r0
     20c:	f4000000 	vst4.8	{d0-d3}, [r0], r0
     210:	04000002 	streq	r0, [r0], #-2
     214:	04000003 	streq	r0, [r0], #-3
     218:	7ed87400 	cdpvc	4, 13, cr7, cr8, cr0, {0}
     21c:	0003049f 	muleq	r3, pc, r4	; <UNPREDICTABLE>
     220:	00036400 	andeq	r6, r3, r0, lsl #8
     224:	55000100 	strpl	r0, [r0, #-256]	; 0xffffff00
     228:	00000364 	andeq	r0, r0, r4, ror #6
     22c:	00000388 	andeq	r0, r0, r8, lsl #7
     230:	d8740004 	ldmdale	r4!, {r2}^
     234:	03889f7e 	orreq	r9, r8, #504	; 0x1f8
     238:	04500000 	ldrbeq	r0, [r0], #-0
     23c:	00010000 	andeq	r0, r1, r0
     240:	00000055 	andeq	r0, r0, r5, asr r0
     244:	00000000 	andeq	r0, r0, r0
     248:	00000300 	andeq	r0, r0, r0, lsl #6
     24c:	40000000 	andmi	r0, r0, r0
     250:	44000003 	strmi	r0, [r0], #-3
     254:	02000003 	andeq	r0, r0, #3, 0
     258:	449f3000 	ldrmi	r3, [pc], #0	; 260 <__code_start__-0x7da0>
     25c:	64000003 	strvs	r0, [r0], #-3
     260:	01000003 	tsteq	r0, r3
     264:	03a85300 			; <UNDEFINED> instruction: 0x03a85300
     268:	03b30000 			; <UNDEFINED> instruction: 0x03b30000
     26c:	00010000 	andeq	r0, r1, r0
     270:	00000053 	andeq	r0, r0, r3, asr r0
	...
     27c:	00025400 	andeq	r5, r2, r0, lsl #8
     280:	00026000 	andeq	r6, r2, r0
     284:	50000100 	andpl	r0, r0, r0, lsl #2
     288:	00000260 	andeq	r0, r0, r0, ror #4
     28c:	000002d4 	ldrdeq	r0, [r0], -r4
     290:	00540001 	subseq	r0, r4, r1
	...
     29c:	68000000 	stmdavs	r0, {}	; <UNPREDICTABLE>
     2a0:	70000002 	andvc	r0, r0, r2
     2a4:	01000002 	tsteq	r0, r2
     2a8:	02705000 	rsbseq	r5, r0, #0, 0
     2ac:	02d40000 	sbcseq	r0, r4, #0, 0
     2b0:	00010000 	andeq	r0, r1, r0
     2b4:	00000056 	andeq	r0, r0, r6, asr r0
     2b8:	00000000 	andeq	r0, r0, r0
     2bc:	00000100 	andeq	r0, r0, r0, lsl #2
     2c0:	68000000 	stmdavs	r0, {}	; <UNPREDICTABLE>
     2c4:	70000002 	andvc	r0, r0, r2
     2c8:	02000002 	andeq	r0, r0, #2, 0
     2cc:	709f3000 	addsvc	r3, pc, r0
     2d0:	d4000002 	strle	r0, [r0], #-2
     2d4:	01000002 	tsteq	r0, r2
     2d8:	02d45500 	sbcseq	r5, r4, #0, 10
     2dc:	02e00000 	rsceq	r0, r0, #0, 0
     2e0:	00010000 	andeq	r0, r1, r0
     2e4:	00000050 	andeq	r0, r0, r0, asr r0
	...
     2f8:	0001f000 	andeq	pc, r1, r0
     2fc:	00022800 	andeq	r2, r2, r0, lsl #16
     300:	50000100 	andpl	r0, r0, r0, lsl #2
     304:	00000228 	andeq	r0, r0, r8, lsr #4
     308:	0000022c 	andeq	r0, r0, ip, lsr #4
     30c:	01f30004 	mvnseq	r0, r4
     310:	022c9f50 	eoreq	r9, ip, #80, 30	; 0x140
     314:	02300000 	eorseq	r0, r0, #0, 0
     318:	00010000 	andeq	r0, r1, r0
     31c:	00023050 	andeq	r3, r2, r0, asr r0
     320:	00023400 	andeq	r3, r2, r0, lsl #8
     324:	f3000400 	vshl.u8	d0, d0, d0
     328:	349f5001 	ldrcc	r5, [pc], #1	; 330 <__code_start__-0x7cd0>
     32c:	38000002 	stmdacc	r0, {r1}
     330:	01000002 	tsteq	r0, r2
     334:	02385000 	eorseq	r5, r8, #0, 0
     338:	023c0000 	eorseq	r0, ip, #0, 0
     33c:	00040000 	andeq	r0, r4, r0
     340:	9f5001f3 	svcls	0x005001f3
	...
     350:	00000200 	andeq	r0, r0, r0, lsl #4
     354:	0000022c 	andeq	r0, r0, ip, lsr #4
     358:	34530001 	ldrbcc	r0, [r3], #-1
     35c:	3c000002 	stccc	0, cr0, [r0], {2}
     360:	01000002 	tsteq	r0, r2
     364:	00005300 	andeq	r5, r0, r0, lsl #6
	...
     374:	000001a8 	andeq	r0, r0, r8, lsr #3
     378:	000001b7 			; <UNDEFINED> instruction: 0x000001b7
     37c:	b7500001 	ldrblt	r0, [r0, -r1]
     380:	d0000001 	andle	r0, r0, r1
     384:	01000001 	tsteq	r0, r1
     388:	01d05500 	bicseq	r5, r0, r0, lsl #10
     38c:	01f00000 	mvnseq	r0, r0
     390:	00040000 	andeq	r0, r4, r0
     394:	9f5001f3 	svcls	0x005001f3
	...
     3a4:	000001a8 	andeq	r0, r0, r8, lsr #3
     3a8:	000001b7 			; <UNDEFINED> instruction: 0x000001b7
     3ac:	b7510001 	ldrblt	r0, [r1, -r1]
     3b0:	f0000001 			; <UNDEFINED> instruction: 0xf0000001
     3b4:	01000001 	tsteq	r0, r1
     3b8:	00005400 	andeq	r5, r0, r0, lsl #8
	...
     3c4:	01bc0000 			; <UNDEFINED> instruction: 0x01bc0000
     3c8:	01c80000 	biceq	r0, r8, r0
     3cc:	00010000 	andeq	r0, r1, r0
     3d0:	0001c850 	andeq	ip, r1, r0, asr r8
     3d4:	0001f000 	andeq	pc, r1, r0
     3d8:	56000100 	strpl	r0, [r0], -r0, lsl #2
	...
     3e8:	000001d0 	ldrdeq	r0, [r0], -r0	; <UNPREDICTABLE>
     3ec:	000001dc 	ldrdeq	r0, [r0], -ip
     3f0:	dc500001 	mrrcle	0, 0, r0, r0, cr1	; <UNPREDICTABLE>
     3f4:	f0000001 			; <UNDEFINED> instruction: 0xf0000001
     3f8:	01000001 	tsteq	r0, r1
     3fc:	00005500 	andeq	r5, r0, r0, lsl #10
	...
     408:	000001e0 	andeq	r0, r0, r0, ror #3
     40c:	000001e8 	andeq	r0, r0, r8, ror #3
     410:	00500001 	subseq	r0, r0, r1
     414:	00000000 	andeq	r0, r0, r0
     418:	01000000 	mrseq	r0, (UNDEF: 0)
     41c:	b4000000 	strlt	r0, [r0], #-0
     420:	b7000001 	strlt	r0, [r0, -r1]
     424:	01000001 	tsteq	r0, r1
     428:	01b75000 			; <UNDEFINED> instruction: 0x01b75000
     42c:	01bc0000 			; <UNDEFINED> instruction: 0x01bc0000
     430:	00010000 	andeq	r0, r1, r0
     434:	00000055 	andeq	r0, r0, r5, asr r0
	...
     440:	00014400 	andeq	r4, r1, r0, lsl #8
     444:	00014f00 	andeq	r4, r1, r0, lsl #30
     448:	50000100 	andpl	r0, r0, r0, lsl #2
     44c:	0000014f 	andeq	r0, r0, pc, asr #2
     450:	000001a8 	andeq	r0, r0, r8, lsr #3
     454:	00550001 	subseq	r0, r5, r1
	...
     464:	54000000 	strpl	r0, [r0], #-0
     468:	58000001 	stmdapl	r0, {r0}
     46c:	01000001 	tsteq	r0, r1
     470:	01585000 	cmpeq	r8, r0
     474:	01640000 	cmneq	r4, r0
     478:	00010000 	andeq	r0, r1, r0
     47c:	00016454 	andeq	r6, r1, r4, asr r4
     480:	00017700 	andeq	r7, r1, r0, lsl #14
     484:	50000100 	andpl	r0, r0, r0, lsl #2
     488:	00000177 	andeq	r0, r0, r7, ror r1
     48c:	000001a8 	andeq	r0, r0, r8, lsr #3
     490:	00540001 	subseq	r0, r4, r1
	...
     49c:	ec000000 	stc	0, cr0, [r0], {-0}
     4a0:	f7000000 			; <UNDEFINED> instruction: 0xf7000000
     4a4:	01000000 	mrseq	r0, (UNDEF: 0)
     4a8:	00f75000 	rscseq	r5, r7, r0
     4ac:	01440000 	mrseq	r0, (UNDEF: 68)
     4b0:	00010000 	andeq	r0, r1, r0
     4b4:	00000055 	andeq	r0, r0, r5, asr r0
	...
     4c4:	0000fc00 	andeq	pc, r0, r0, lsl #24
     4c8:	00010f00 	andeq	r0, r1, r0, lsl #30
     4cc:	50000100 	andpl	r0, r0, r0, lsl #2
     4d0:	0000010f 	andeq	r0, r0, pc, lsl #2
     4d4:	00000124 	andeq	r0, r0, r4, lsr #2
     4d8:	24540001 	ldrbcs	r0, [r4], #-1
     4dc:	28000001 	stmdacs	r0, {r0}
     4e0:	01000001 	tsteq	r0, r1
     4e4:	01285000 			; <UNDEFINED> instruction: 0x01285000
     4e8:	01440000 	mrseq	r0, (UNDEF: 68)
     4ec:	00010000 	andeq	r0, r1, r0
     4f0:	00000054 	andeq	r0, r0, r4, asr r0
	...
     500:	b4000000 	strlt	r0, [r0], #-0
     504:	cc000000 	stcgt	0, cr0, [r0], {-0}
     508:	01000000 	mrseq	r0, (UNDEF: 0)
     50c:	00cc5000 	sbceq	r5, ip, r0
     510:	00d80000 	sbcseq	r0, r8, r0
     514:	00040000 	andeq	r0, r4, r0
     518:	9f7ed870 	svcls	0x007ed870
     51c:	000000d8 	ldrdeq	r0, [r0], -r8
     520:	000000dc 	ldrdeq	r0, [r0], -ip
     524:	01f30004 	mvnseq	r0, r4
     528:	00dc9f50 	sbcseq	r9, ip, r0, asr pc
     52c:	00e00000 	rsceq	r0, r0, r0
     530:	00010000 	andeq	r0, r1, r0
     534:	0000e050 	andeq	lr, r0, r0, asr r0
     538:	0000ec00 	andeq	lr, r0, r0, lsl #24
     53c:	f3000400 	vshl.u8	d0, d0, d0
     540:	009f5001 	addseq	r5, pc, r1
	...
     54c:	9c000000 	stcls	0, cr0, [r0], {-0}
     550:	a7000000 	strge	r0, [r0, -r0]
     554:	01000000 	mrseq	r0, (UNDEF: 0)
     558:	00a75000 	adceq	r5, r7, r0
     55c:	00b40000 	adcseq	r0, r4, r0
     560:	00010000 	andeq	r0, r1, r0
     564:	00000054 	andeq	r0, r0, r4, asr r0
     568:	00000000 	andeq	r0, r0, r0
     56c:	a8000000 	stmdage	r0, {}	; <UNPREDICTABLE>
     570:	ac000000 	stcge	0, cr0, [r0], {-0}
     574:	01000000 	mrseq	r0, (UNDEF: 0)
     578:	00005400 	andeq	r5, r0, r0, lsl #8
	...
     584:	00940000 	addseq	r0, r4, r0
     588:	00980000 	addseq	r0, r8, r0
     58c:	00010000 	andeq	r0, r1, r0
     590:	00009850 	andeq	r9, r0, r0, asr r8
     594:	00009c00 	andeq	r9, r0, r0, lsl #24
     598:	70000400 	andvc	r0, r0, r0, lsl #8
     59c:	009f7ed8 			; <UNDEFINED> instruction: 0x009f7ed8
	...
     5a8:	84000000 	strhi	r0, [r0], #-0
     5ac:	90000000 	andls	r0, r0, r0
     5b0:	01000000 	mrseq	r0, (UNDEF: 0)
     5b4:	00905000 	addseq	r5, r0, r0
     5b8:	00940000 	addseq	r0, r4, r0
     5bc:	00040000 	andeq	r0, r4, r0
     5c0:	9f5001f3 	svcls	0x005001f3
	...
     5d4:	00000058 	andeq	r0, r0, r8, asr r0
     5d8:	58500001 	ldmdapl	r0, {r0}^
     5dc:	74000000 	strvc	r0, [r0], #-0
     5e0:	04000000 	streq	r0, [r0], #-0
     5e4:	5001f300 	andpl	pc, r1, r0, lsl #6
     5e8:	0000009f 	muleq	r0, pc, r0	; <UNPREDICTABLE>
	...
     5f8:	00005400 	andeq	r5, r0, r0, lsl #8
     5fc:	51000100 	mrspl	r0, (UNDEF: 16)
     600:	00000054 	andeq	r0, r0, r4, asr r0
     604:	00000074 	andeq	r0, r0, r4, ror r0
     608:	01f30004 	mvnseq	r0, r4
     60c:	00009f51 	andeq	r9, r0, r1, asr pc
     610:	00000000 	andeq	r0, r0, r0
     614:	00030000 	andeq	r0, r3, r0
     618:	00000018 	andeq	r0, r0, r8, lsl r0
     61c:	00000028 	andeq	r0, r0, r8, lsr #32
     620:	00530001 	subseq	r0, r3, r1
	...
     62c:	0005c800 	andeq	ip, r5, r0, lsl #16
     630:	0005cc00 	andeq	ip, r5, r0, lsl #24
     634:	50000100 	andpl	r0, r0, r0, lsl #2
	...
     640:	00000001 	andeq	r0, r0, r1
     644:	000001bc 			; <UNDEFINED> instruction: 0x000001bc
     648:	000001e4 	andeq	r0, r0, r4, ror #3
     64c:	9f300002 	svcls	0x00300002
     650:	000001e4 	andeq	r0, r0, r4, ror #3
     654:	00000268 	andeq	r0, r0, r8, ror #4
     658:	00550001 	subseq	r0, r5, r1
     65c:	00000000 	andeq	r0, r0, r0
     660:	01000000 	mrseq	r0, (UNDEF: 0)
     664:	bc000000 	stclt	0, cr0, [r0], {-0}
     668:	e4000001 	str	r0, [r0], #-1
     66c:	02000001 	andeq	r0, r0, #1, 0
     670:	e49f3000 	ldr	r3, [pc], #0	; 678 <__code_start__-0x7988>
     674:	68000001 	stmdavs	r0, {r0}
     678:	01000002 	tsteq	r0, r2
     67c:	00005700 	andeq	r5, r0, r0, lsl #14
     680:	00000000 	andeq	r0, r0, r0
     684:	00010000 	andeq	r0, r1, r0
     688:	01bc0000 			; <UNDEFINED> instruction: 0x01bc0000
     68c:	01e40000 	mvneq	r0, r0
     690:	00020000 	andeq	r0, r2, r0
     694:	01e49f30 	mvneq	r9, r0, lsr pc
     698:	02680000 	rsbeq	r0, r8, #0, 0
     69c:	00010000 	andeq	r0, r1, r0
     6a0:	00000056 	andeq	r0, r0, r6, asr r0
	...
     6b0:	0001d400 	andeq	sp, r1, r0, lsl #8
     6b4:	00020400 	andeq	r0, r2, r0, lsl #8
     6b8:	50000100 	andpl	r0, r0, r0, lsl #2
     6bc:	00000204 	andeq	r0, r0, r4, lsl #4
     6c0:	00000214 	andeq	r0, r0, r4, lsl r2
     6c4:	14540001 	ldrbne	r0, [r4], #-1
     6c8:	4c000002 	stcmi	0, cr0, [r0], {2}
     6cc:	01000002 	tsteq	r0, r2
     6d0:	024c5000 	subeq	r5, ip, #0, 0
     6d4:	02680000 	rsbeq	r0, r8, #0, 0
     6d8:	00010000 	andeq	r0, r1, r0
     6dc:	00000054 	andeq	r0, r0, r4, asr r0
	...
     6e8:	78000000 	stmdavc	r0, {}	; <UNPREDICTABLE>
     6ec:	88000005 	stmdahi	r0, {r0, r2}
     6f0:	01000005 	tsteq	r0, r5
     6f4:	05885000 	streq	r5, [r8]
     6f8:	058b0000 	streq	r0, [fp]
     6fc:	00010000 	andeq	r0, r1, r0
     700:	00058b51 	andeq	r8, r5, r1, asr fp
     704:	0005bc00 	andeq	fp, r5, r0, lsl #24
     708:	54000100 	strpl	r0, [r0], #-256	; 0xffffff00
	...
     718:	000004f4 	strdeq	r0, [r0], -r4
     71c:	00000500 	andeq	r0, r0, r0, lsl #10
     720:	00500001 	subseq	r0, r0, r1
     724:	24000005 	strcs	r0, [r0], #-5
     728:	01000005 	tsteq	r0, r5
     72c:	00005400 	andeq	r5, r0, r0, lsl #8
	...
     738:	03d40000 	bicseq	r0, r4, #0, 0
     73c:	03ef0000 	mvneq	r0, #0, 0
     740:	00010000 	andeq	r0, r1, r0
     744:	0003f050 	andeq	pc, r3, r0, asr r0	; <UNPREDICTABLE>
     748:	0003f800 	andeq	pc, r3, r0, lsl #16
     74c:	50000100 	andpl	r0, r0, r0, lsl #2
	...
     75c:	0000003c 	andeq	r0, r0, ip, lsr r0
     760:	00000048 	andeq	r0, r0, r8, asr #32
     764:	48500001 	ldmdami	r0, {r0}^
     768:	b8000000 	stmdalt	r0, {}	; <UNPREDICTABLE>
     76c:	01000001 	tsteq	r0, r1
     770:	00005600 	andeq	r5, r0, r0, lsl #12
     774:	00000000 	andeq	r0, r0, r0
     778:	00010000 	andeq	r0, r1, r0
     77c:	00440000 	subeq	r0, r4, r0
     780:	006c0000 	rsbeq	r0, ip, r0
     784:	00020000 	andeq	r0, r2, r0
     788:	006c9f30 	rsbeq	r9, ip, r0, lsr pc
     78c:	01b80000 			; <UNDEFINED> instruction: 0x01b80000
     790:	00010000 	andeq	r0, r1, r0
     794:	00000055 	andeq	r0, r0, r5, asr r0
     798:	00000000 	andeq	r0, r0, r0
     79c:	00000100 	andeq	r0, r0, r0, lsl #2
     7a0:	00004400 	andeq	r4, r0, r0, lsl #8
     7a4:	00006c00 	andeq	r6, r0, r0, lsl #24
     7a8:	30000200 	andcc	r0, r0, r0, lsl #4
     7ac:	00006c9f 	muleq	r0, pc, ip	; <UNPREDICTABLE>
     7b0:	0001b800 	andeq	fp, r1, r0, lsl #16
     7b4:	58000100 	stmdapl	r0, {r8}
	...
     7c0:	00000001 	andeq	r0, r0, r1
     7c4:	00000044 	andeq	r0, r0, r4, asr #32
     7c8:	0000006c 	andeq	r0, r0, ip, rrx
     7cc:	9f300002 	svcls	0x00300002
     7d0:	0000006c 	andeq	r0, r0, ip, rrx
     7d4:	000001b8 			; <UNDEFINED> instruction: 0x000001b8
     7d8:	00570001 	subseq	r0, r7, r1
	...
     7f0:	5c000000 	stcpl	0, cr0, [r0], {-0}
     7f4:	70000000 	andvc	r0, r0, r0
     7f8:	01000000 	mrseq	r0, (UNDEF: 0)
     7fc:	00705000 	rsbseq	r5, r0, r0
     800:	00b00000 	adcseq	r0, r0, r0
     804:	00010000 	andeq	r0, r1, r0
     808:	0000b054 	andeq	fp, r0, r4, asr r0
     80c:	0000b400 	andeq	fp, r0, r0, lsl #8
     810:	50000100 	andpl	r0, r0, r0, lsl #2
     814:	000000b4 	strheq	r0, [r0], -r4
     818:	00000118 	andeq	r0, r0, r8, lsl r1
     81c:	18540001 	ldmdane	r4, {r0}^
     820:	4c000001 	stcmi	0, cr0, [r0], {1}
     824:	01000001 	tsteq	r0, r1
     828:	014c5000 	mrseq	r5, (UNDEF: 76)
     82c:	01500000 	cmpeq	r0, r0
     830:	00010000 	andeq	r0, r1, r0
     834:	00015054 	andeq	r5, r1, r4, asr r0
     838:	00015800 	andeq	r5, r1, r0, lsl #16
     83c:	50000100 	andpl	r0, r0, r0, lsl #2
     840:	00000158 	andeq	r0, r0, r8, asr r1
     844:	000001b8 			; <UNDEFINED> instruction: 0x000001b8
     848:	00540001 	subseq	r0, r4, r1
	...
     858:	6c000000 	stcvs	0, cr0, [r0], {-0}
     85c:	8c000000 	stchi	0, cr0, [r0], {-0}
     860:	06000000 	streq	r0, [r0], -r0
     864:	08007300 	stmdaeq	r0, {r8, r9, ip, sp, lr}
     868:	b09f1aff 			; <UNDEFINED> instruction: 0xb09f1aff
     86c:	c8000000 	stmdagt	r0, {}	; <UNPREDICTABLE>
     870:	06000000 	streq	r0, [r0], -r0
     874:	08007300 	stmdaeq	r0, {r8, r9, ip, sp, lr}
     878:	e49f1aff 	ldr	r1, [pc], #2815	; 880 <__code_start__-0x7780>
     87c:	e8000000 	stmda	r0, {}	; <UNPREDICTABLE>
     880:	06000000 	streq	r0, [r0], -r0
     884:	08007300 	stmdaeq	r0, {r8, r9, ip, sp, lr}
     888:	349f1aff 	ldrcc	r1, [pc], #2815	; 890 <__code_start__-0x7770>
     88c:	50000001 	andpl	r0, r0, r1
     890:	06000001 	streq	r0, [r0], -r1
     894:	08007300 	stmdaeq	r0, {r8, r9, ip, sp, lr}
     898:	009f1aff 			; <UNDEFINED> instruction: 0x009f1aff
	...
     8a8:	00007000 	andeq	r7, r0, r0
     8ac:	0000a400 	andeq	sl, r0, r0, lsl #8
     8b0:	50000100 	andpl	r0, r0, r0, lsl #2
     8b4:	000000b8 	strheq	r0, [r0], -r8
     8b8:	000000d0 	ldrdeq	r0, [r0], -r0	; <UNPREDICTABLE>
     8bc:	e4500001 	ldrb	r0, [r0], #-1
     8c0:	f0000000 			; <UNDEFINED> instruction: 0xf0000000
     8c4:	01000000 	mrseq	r0, (UNDEF: 0)
     8c8:	00005000 	andeq	r5, r0, r0
	...
     8e0:	00000290 	muleq	r0, r0, r2
     8e4:	000002d8 	ldrdeq	r0, [r0], -r8
     8e8:	d8500001 	ldmdale	r0, {r0}^
     8ec:	e0000002 	and	r0, r0, r2
     8f0:	04000002 	streq	r0, [r0], #-2
     8f4:	5001f300 	andpl	pc, r1, r0, lsl #6
     8f8:	0002e09f 	muleq	r2, pc, r0	; <UNPREDICTABLE>
     8fc:	0002f800 	andeq	pc, r2, r0, lsl #16
     900:	50000100 	andpl	r0, r0, r0, lsl #2
     904:	000002f8 	strdeq	r0, [r0], -r8
     908:	00000300 	andeq	r0, r0, r0, lsl #6
     90c:	00560001 	subseq	r0, r6, r1
     910:	18000003 	stmdane	r0, {r0, r1}
     914:	01000003 	tsteq	r0, r3
     918:	03185000 	tsteq	r8, #0, 0
     91c:	03b00000 	movseq	r0, #0, 0
     920:	00010000 	andeq	r0, r1, r0
     924:	0003b056 	andeq	fp, r3, r6, asr r0
     928:	0003c800 	andeq	ip, r3, r0, lsl #16
     92c:	f3000400 	vshl.u8	d0, d0, d0
     930:	009f5001 	addseq	r5, pc, r1
	...
     948:	90000000 	andls	r0, r0, r0
     94c:	b8000002 	stmdalt	r0, {r1}
     950:	01000002 	tsteq	r0, r2
     954:	02b85100 	adcseq	r5, r8, #0
     958:	02c00000 	sbceq	r0, r0, #0, 0
     95c:	00040000 	andeq	r0, r4, r0
     960:	9f5101f3 	svcls	0x005101f3
     964:	000002c0 	andeq	r0, r0, r0, asr #5
     968:	000002d4 	ldrdeq	r0, [r0], -r4
     96c:	d4510001 	ldrble	r0, [r1], #-1
     970:	e0000002 	and	r0, r0, r2
     974:	04000002 	streq	r0, [r0], #-2
     978:	5101f300 	mrspl	pc, SP_irq	; <UNPREDICTABLE>
     97c:	0002e09f 	muleq	r2, pc, r0	; <UNPREDICTABLE>
     980:	0002f400 	andeq	pc, r2, r0, lsl #8
     984:	51000100 	mrspl	r0, (UNDEF: 16)
     988:	000002f4 	strdeq	r0, [r0], -r4
     98c:	00000300 	andeq	r0, r0, r0, lsl #6
     990:	01f30004 	mvnseq	r0, r4
     994:	03009f51 	movweq	r9, #3921	; 0xf51
     998:	03140000 	tsteq	r4, #0, 0
     99c:	00010000 	andeq	r0, r1, r0
     9a0:	00031451 	andeq	r1, r3, r1, asr r4
     9a4:	0003c800 	andeq	ip, r3, r0, lsl #16
     9a8:	f3000400 	vshl.u8	d0, d0, d0
     9ac:	009f5101 	addseq	r5, pc, r1, lsl #2
	...
     9bc:	0002bc00 	andeq	fp, r2, r0, lsl #24
     9c0:	0002c000 	andeq	ip, r2, r0
     9c4:	55000100 	strpl	r0, [r0, #-256]	; 0xffffff00
     9c8:	00000320 	andeq	r0, r0, r0, lsr #6
     9cc:	000003b0 			; <UNDEFINED> instruction: 0x000003b0
     9d0:	b0550001 	subslt	r0, r5, r1
     9d4:	c8000003 	stmdagt	r0, {r0, r1}
     9d8:	0a000003 	beq	9ec <__code_start__-0x7614>
     9dc:	5101f300 	mrspl	pc, SP_irq	; <UNPREDICTABLE>
     9e0:	1c5001f3 	ldfnee	f0, [r0], {243}	; 0xf3
     9e4:	009f2632 	addseq	r2, pc, r2, lsr r6	; <UNPREDICTABLE>
     9e8:	00000000 	andeq	r0, r0, r0
     9ec:	02000000 	andeq	r0, r0, #0, 0
     9f0:	bc000000 	stclt	0, cr0, [r0], {-0}
     9f4:	c0000002 	andgt	r0, r0, r2
     9f8:	02000002 	andeq	r0, r0, #2, 0
     9fc:	209f3000 	addscs	r3, pc, r0
     a00:	b0000003 	andlt	r0, r0, r3
     a04:	01000003 	tsteq	r0, r3
     a08:	00005400 	andeq	r5, r0, r0, lsl #8
	...
     a18:	00000320 	andeq	r0, r0, r0, lsr #6
     a1c:	00000337 	andeq	r0, r0, r7, lsr r3
     a20:	50530001 	subspl	r0, r3, r1
     a24:	70000003 	andvc	r0, r0, r3
     a28:	01000003 	tsteq	r0, r3
     a2c:	03705000 	cmneq	r0, #0, 0
     a30:	03a80000 			; <UNDEFINED> instruction: 0x03a80000
     a34:	00010000 	andeq	r0, r1, r0
     a38:	00000053 	andeq	r0, r0, r3, asr r0
     a3c:	00000000 	andeq	r0, r0, r0
     a40:	2c000100 	stfcss	f0, [r0], {-0}
     a44:	37000003 	strcc	r0, [r0, -r3]
     a48:	01000003 	tsteq	r0, r3
     a4c:	00005000 	andeq	r5, r0, r0
	...
     a58:	03300000 	teqeq	r0, #0, 0
     a5c:	03340000 	teqeq	r4, #0, 0
     a60:	00060000 	andeq	r0, r6, r0
     a64:	00710070 	rsbseq	r0, r1, r0, ror r0
     a68:	03349f22 	teqeq	r4, #136	; 0x88
     a6c:	03370000 	teqeq	r7, #0, 0
     a70:	00010000 	andeq	r0, r1, r0
     a74:	00000051 	andeq	r0, r0, r1, asr r0
	...
     a80:	00026800 	andeq	r6, r2, r0, lsl #16
     a84:	00027300 	andeq	r7, r2, r0, lsl #6
     a88:	50000100 	andpl	r0, r0, r0, lsl #2
     a8c:	00000273 	andeq	r0, r0, r3, ror r2
     a90:	00000290 	muleq	r0, r0, r2
     a94:	00540001 	subseq	r0, r4, r1
     a98:	00000000 	andeq	r0, r0, r0
     a9c:	01000000 	mrseq	r0, (UNDEF: 0)
     aa0:	70000000 	andvc	r0, r0, r0
     aa4:	73000002 	movwvc	r0, #2
     aa8:	01000002 	tsteq	r0, r2
     aac:	02735000 	rsbseq	r5, r3, #0, 0
     ab0:	02900000 	addseq	r0, r0, #0, 0
     ab4:	00010000 	andeq	r0, r1, r0
     ab8:	00000054 	andeq	r0, r0, r4, asr r0
	...
     ad0:	00002400 	andeq	r2, r0, r0, lsl #8
     ad4:	50000100 	andpl	r0, r0, r0, lsl #2
     ad8:	00000024 	andeq	r0, r0, r4, lsr #32
     adc:	00000028 	andeq	r0, r0, r8, lsr #32
     ae0:	01f30004 	mvnseq	r0, r4
     ae4:	00289f50 	eoreq	r9, r8, r0, asr pc
     ae8:	002c0000 	eoreq	r0, ip, r0
     aec:	00010000 	andeq	r0, r1, r0
     af0:	00002c50 	andeq	r2, r0, r0, asr ip
     af4:	00003000 	andeq	r3, r0, r0
     af8:	f3000400 	vshl.u8	d0, d0, d0
     afc:	309f5001 	addscc	r5, pc, r1
     b00:	34000000 	strcc	r0, [r0], #-0
     b04:	01000000 	mrseq	r0, (UNDEF: 0)
     b08:	00345000 	eorseq	r5, r4, r0
     b0c:	003c0000 	eorseq	r0, ip, r0
     b10:	00040000 	andeq	r0, r4, r0
     b14:	9f5001f3 	svcls	0x005001f3
	...
     b24:	00000458 	andeq	r0, r0, r8, asr r4
     b28:	00000468 	andeq	r0, r0, r8, ror #8
     b2c:	68500001 	ldmdavs	r0, {r0}^
     b30:	f4000004 	vst4.8	{d0-d3}, [r0], r4
     b34:	01000004 	tsteq	r0, r4
     b38:	00005400 	andeq	r5, r0, r0, lsl #8
	...
     b48:	00080000 	andeq	r0, r8, r0
     b4c:	00780000 	rsbseq	r0, r8, r0
     b50:	00010000 	andeq	r0, r1, r0
     b54:	00007851 	andeq	r7, r0, r1, asr r8
     b58:	00008400 	andeq	r8, r0, r0, lsl #8
     b5c:	70000300 	andvc	r0, r0, r0, lsl #6
     b60:	00849f78 	addeq	r9, r4, r8, ror pc
     b64:	00a40000 	adceq	r0, r4, r0
     b68:	00010000 	andeq	r0, r1, r0
     b6c:	0000a451 	andeq	sl, r0, r1, asr r4
     b70:	0000bc00 	andeq	fp, r0, r0, lsl #24
     b74:	70000300 	andvc	r0, r0, r0, lsl #6
     b78:	00009f78 	andeq	r9, r0, r8, ror pc
	...
     b84:	00100000 	andseq	r0, r0, r0
     b88:	00480000 	subeq	r0, r8, r0
     b8c:	00010000 	andeq	r0, r1, r0
     b90:	00004c53 	andeq	r4, r0, r3, asr ip
     b94:	0000bc00 	andeq	fp, r0, r0, lsl #24
     b98:	53000100 	movwpl	r0, #256	; 0x100
	...
     bac:	00000100 	andeq	r0, r0, r0, lsl #2
     bb0:	00000124 	andeq	r0, r0, r4, lsr #2
     bb4:	24500001 	ldrbcs	r0, [r0], #-1
     bb8:	28000001 	stmdacs	r0, {r0}
     bbc:	04000001 	streq	r0, [r0], #-1
     bc0:	5001f300 	andpl	pc, r1, r0, lsl #6
     bc4:	0001289f 	muleq	r1, pc, r8	; <UNPREDICTABLE>
     bc8:	00014000 	andeq	r4, r1, r0
     bcc:	50000100 	andpl	r0, r0, r0, lsl #2
     bd0:	00000140 	andeq	r0, r0, r0, asr #2
     bd4:	000001ac 	andeq	r0, r0, ip, lsr #3
     bd8:	01f30004 	mvnseq	r0, r4
     bdc:	00009f50 	andeq	r9, r0, r0, asr pc
	...
     bec:	00010100 	andeq	r0, r1, r0, lsl #2
     bf0:	00000000 	andeq	r0, r0, r0
     bf4:	00000124 	andeq	r0, r0, r4, lsr #2
     bf8:	00000128 	andeq	r0, r0, r8, lsr #2
     bfc:	40500001 	subsmi	r0, r0, r1
     c00:	60000001 	andvs	r0, r0, r1
     c04:	01000001 	tsteq	r0, r1
     c08:	01605000 	cmneq	r0, r0
     c0c:	01640000 	cmneq	r4, r0
     c10:	00030000 	andeq	r0, r3, r0
     c14:	649f7870 	ldrvs	r7, [pc], #2160	; c1c <__code_start__-0x73e4>
     c18:	70000001 	andvc	r0, r0, r1
     c1c:	01000001 	tsteq	r0, r1
     c20:	01705000 	cmneq	r0, r0
     c24:	01780000 	cmneq	r8, r0
     c28:	00020000 	andeq	r0, r2, r0
     c2c:	01780070 	cmneq	r8, r0, ror r0
     c30:	01980000 	orrseq	r0, r8, r0
     c34:	00010000 	andeq	r0, r1, r0
     c38:	00019c50 	andeq	r9, r1, r0, asr ip
     c3c:	0001ac00 	andeq	sl, r1, r0, lsl #24
     c40:	50000100 	andpl	r0, r0, r0, lsl #2
	...
     c4c:	00010100 	andeq	r0, r1, r0, lsl #2
     c50:	00010000 	andeq	r0, r1, r0
     c54:	01180000 	tsteq	r8, r0
     c58:	01280000 			; <UNDEFINED> instruction: 0x01280000
     c5c:	00010000 	andeq	r0, r1, r0
     c60:	00012852 	andeq	r2, r1, r2, asr r8
     c64:	00014000 	andeq	r4, r1, r0
     c68:	03000600 	movweq	r0, #1536	; 0x600
     c6c:	0000aa60 	andeq	sl, r0, r0, ror #20
     c70:	0001409f 	muleq	r1, pc, r0	; <UNPREDICTABLE>
     c74:	00017000 	andeq	r7, r1, r0
     c78:	52000100 	andpl	r0, r0, #0
     c7c:	00000170 	andeq	r0, r0, r0, ror r1
     c80:	00000178 	andeq	r0, r0, r8, ror r1
     c84:	78500001 	ldmdavc	r0, {r0}^
     c88:	9b000001 	blls	c94 <__code_start__-0x736c>
     c8c:	01000001 	tsteq	r0, r1
     c90:	00005200 	andeq	r5, r0, r0, lsl #4
	...
     c9c:	00000110 	andeq	r0, r0, r0, lsl r1
     ca0:	000001ac 	andeq	r0, r0, ip, lsr #3
     ca4:	00540001 	subseq	r0, r4, r1
	...
     cb0:	bc000000 	stclt	0, cr0, [r0], {-0}
     cb4:	cc000000 	stcgt	0, cr0, [r0], {-0}
     cb8:	01000000 	mrseq	r0, (UNDEF: 0)
     cbc:	00cc5000 	sbceq	r5, ip, r0
     cc0:	01000000 	mrseq	r0, (UNDEF: 0)
     cc4:	00010000 	andeq	r0, r1, r0
     cc8:	00000054 	andeq	r0, r0, r4, asr r0
	...
     cd4:	d4000000 	strle	r0, [r0], #-0
     cd8:	e4000000 	str	r0, [r0], #-0
     cdc:	01000000 	mrseq	r0, (UNDEF: 0)
     ce0:	00e45000 	rsceq	r5, r4, r0
     ce4:	00e70000 	rsceq	r0, r7, r0
     ce8:	00030000 	andeq	r0, r3, r0
     cec:	f49f7870 			; <UNDEFINED> instruction: 0xf49f7870
     cf0:	f8000000 			; <UNDEFINED> instruction: 0xf8000000
     cf4:	01000000 	mrseq	r0, (UNDEF: 0)
     cf8:	00005000 	andeq	r5, r0, r0
     cfc:	00000000 	andeq	r0, r0, r0
     d00:	00010000 	andeq	r0, r1, r0
     d04:	00dc0000 	sbcseq	r0, ip, r0
     d08:	00e40000 	rsceq	r0, r4, r0
     d0c:	00010000 	andeq	r0, r1, r0
     d10:	0000e450 	andeq	lr, r0, r0, asr r4
     d14:	0000e700 	andeq	lr, r0, r0, lsl #14
     d18:	70000300 	andvc	r0, r0, r0, lsl #6
     d1c:	00009f78 	andeq	r9, r0, r8, ror pc
	...
     d2c:	000c0000 	andeq	r0, ip, r0
     d30:	00010000 	andeq	r0, r1, r0
     d34:	00000c50 	andeq	r0, r0, r0, asr ip
     d38:	00003400 	andeq	r3, r0, r0, lsl #8
     d3c:	5e000100 	adfpls	f0, f0, f0
	...
     d48:	00000001 	andeq	r0, r0, r1
     d4c:	00000008 	andeq	r0, r0, r8
     d50:	0000000c 	andeq	r0, r0, ip
     d54:	0c500001 	mrrceq	0, 0, r0, r0, cr1	; <UNPREDICTABLE>
     d58:	34000000 	strcc	r0, [r0], #-0
     d5c:	01000000 	mrseq	r0, (UNDEF: 0)
     d60:	00005e00 	andeq	r5, r0, r0, lsl #28
     d64:	00000000 	andeq	r0, r0, r0
     d68:	00010000 	andeq	r0, r1, r0
     d6c:	00000008 	andeq	r0, r0, r8
     d70:	00000034 	andeq	r0, r0, r4, lsr r0
     d74:	00510001 	subseq	r0, r1, r1
     d78:	00000000 	andeq	r0, r0, r0
     d7c:	03000000 	movweq	r0, #0
     d80:	08000000 	stmdaeq	r0, {}	; <UNPREDICTABLE>
     d84:	0c000000 	stceq	0, cr0, [r0], {-0}
     d88:	02000000 	andeq	r0, r0, #0, 0
     d8c:	0c9f3000 	ldceq	0, cr3, [pc], {0}
     d90:	34000000 	strcc	r0, [r0], #-0
     d94:	01000000 	mrseq	r0, (UNDEF: 0)
     d98:	00005300 	andeq	r5, r0, r0, lsl #6
	...
     da4:	001c0000 	andseq	r0, ip, r0
     da8:	00200000 	eoreq	r0, r0, r0
     dac:	00060000 	andeq	r0, r6, r0
     db0:	0070007c 	rsbseq	r0, r0, ip, ror r0
     db4:	00209f1c 	eoreq	r9, r0, ip, lsl pc
     db8:	002c0000 	eoreq	r0, ip, r0
     dbc:	00010000 	andeq	r0, r1, r0
     dc0:	00000050 	andeq	r0, r0, r0, asr r0
	...
     dd0:	1c000000 	stcne	0, cr0, [r0], {-0}
     dd4:	01000000 	mrseq	r0, (UNDEF: 0)
     dd8:	001c5200 	andseq	r5, ip, r0, lsl #4
     ddc:	00380000 	eorseq	r0, r8, r0
     de0:	00040000 	andeq	r0, r4, r0
     de4:	9f5201f3 	svcls	0x005201f3
     de8:	00000038 	andeq	r0, r0, r8, lsr r0
     dec:	00000060 	andeq	r0, r0, r0, rrx
     df0:	00520001 	subseq	r0, r2, r1
	...
     dfc:	00001c00 	andeq	r1, r0, r0, lsl #24
     e00:	00003800 	andeq	r3, r0, r0, lsl #16
     e04:	52000100 	andpl	r0, r0, #0
	...
     e10:	001c0001 	andseq	r0, ip, r1
     e14:	00380000 	eorseq	r0, r8, r0
     e18:	00010000 	andeq	r0, r1, r0
     e1c:	00000050 	andeq	r0, r0, r0, asr r0
     e20:	00000000 	andeq	r0, r0, r0
     e24:	1c000200 	sfmne	f0, 4, [r0], {-0}
     e28:	38000000 	stmdacc	r0, {}	; <UNPREDICTABLE>
     e2c:	01000000 	mrseq	r0, (UNDEF: 0)
     e30:	00005100 	andeq	r5, r0, r0, lsl #2
     e34:	00000000 	andeq	r0, r0, r0
     e38:	00040000 	andeq	r0, r4, r0
     e3c:	001c0000 	andseq	r0, ip, r0
     e40:	00200000 	eoreq	r0, r0, r0
     e44:	00020000 	andeq	r0, r2, r0
     e48:	00209f30 	eoreq	r9, r0, r0, lsr pc
     e4c:	00380000 	eorseq	r0, r8, r0
     e50:	00010000 	andeq	r0, r1, r0
     e54:	00000053 	andeq	r0, r0, r3, asr r0
     e58:	00000000 	andeq	r0, r0, r0
     e5c:	38000000 	stmdacc	r0, {}	; <UNPREDICTABLE>
     e60:	50000000 	andpl	r0, r0, r0
     e64:	01000000 	mrseq	r0, (UNDEF: 0)
     e68:	00005300 	andeq	r5, r0, r0, lsl #6
	...
     e78:	00040000 	andeq	r0, r4, r0
     e7c:	00010000 	andeq	r0, r1, r0
     e80:	00000452 	andeq	r0, r0, r2, asr r4
     e84:	00001800 	andeq	r1, r0, r0, lsl #16
     e88:	f3000400 	vshl.u8	d0, d0, d0
     e8c:	009f5201 	addseq	r5, pc, r1, lsl #4
     e90:	00000000 	andeq	r0, r0, r0
     e94:	02000000 	andeq	r0, r0, #0, 0
     e98:	01010000 	mrseq	r0, (UNDEF: 1)
     e9c:	00000000 	andeq	r0, r0, r0
     ea0:	08000000 	stmdaeq	r0, {}	; <UNPREDICTABLE>
     ea4:	01000000 	mrseq	r0, (UNDEF: 0)
     ea8:	00085000 	andeq	r5, r8, r0
     eac:	00100000 	andseq	r0, r0, r0
     eb0:	00010000 	andeq	r0, r1, r0
     eb4:	00001053 	andeq	r1, r0, r3, asr r0
     eb8:	00001400 	andeq	r1, r0, r0, lsl #8
     ebc:	73000300 	movwvc	r0, #768	; 0x300
     ec0:	00149f01 	andseq	r9, r4, r1, lsl #30
     ec4:	00180000 	andseq	r0, r8, r0
     ec8:	00010000 	andeq	r0, r1, r0
     ecc:	00000053 	andeq	r0, r0, r3, asr r0
     ed0:	00000000 	andeq	r0, r0, r0
     ed4:	04000000 	streq	r0, [r0], #-0
     ed8:	18000000 	stmdane	r0, {}	; <UNPREDICTABLE>
     edc:	01000000 	mrseq	r0, (UNDEF: 0)
     ee0:	00005200 	andeq	r5, r0, r0, lsl #4
	...
     ef0:	0000002c 	andeq	r0, r0, ip, lsr #32
     ef4:	00000038 	andeq	r0, r0, r8, lsr r0
     ef8:	38500001 	ldmdacc	r0, {r0}^
     efc:	48000000 	stmdami	r0, {}	; <UNPREDICTABLE>
     f00:	01000000 	mrseq	r0, (UNDEF: 0)
     f04:	00485400 	subeq	r5, r8, r0, lsl #8
     f08:	00580000 	subseq	r0, r8, r0
     f0c:	00010000 	andeq	r0, r1, r0
     f10:	00000050 	andeq	r0, r0, r0, asr r0
     f14:	00000000 	andeq	r0, r0, r0
     f18:	01010000 	mrseq	r0, (UNDEF: 1)
     f1c:	00000000 	andeq	r0, r0, r0
     f20:	00000800 	andeq	r0, r0, r0, lsl #16
     f24:	50000100 	andpl	r0, r0, r0, lsl #2
     f28:	00000008 	andeq	r0, r0, r8
     f2c:	00000034 	andeq	r0, r0, r4, lsr r0
     f30:	00540001 	subseq	r0, r4, r1
	...
     f40:	00028800 	andeq	r8, r2, r0, lsl #16
     f44:	0002b800 	andeq	fp, r2, r0, lsl #16
     f48:	50000100 	andpl	r0, r0, r0, lsl #2
     f4c:	000002b8 			; <UNDEFINED> instruction: 0x000002b8
     f50:	00000704 	andeq	r0, r0, r4, lsl #14
     f54:	04590001 	ldrbeq	r0, [r9], #-1
     f58:	40000007 	andmi	r0, r0, r7
     f5c:	04000007 	streq	r0, [r0], #-7
     f60:	5001f300 	andpl	pc, r1, r0, lsl #6
     f64:	0000009f 	muleq	r0, pc, r0	; <UNPREDICTABLE>
	...
     f70:	88000000 	stmdahi	r0, {}	; <UNPREDICTABLE>
     f74:	a0000002 	andge	r0, r0, r2
     f78:	01000002 	tsteq	r0, r2
     f7c:	02a05100 	adceq	r5, r0, #0
     f80:	02b80000 	adcseq	r0, r8, #0, 0
     f84:	00030000 	andeq	r0, r3, r0
     f88:	b89f0171 	ldmlt	pc, {r0, r4, r5, r6, r8}	; <UNPREDICTABLE>
     f8c:	40000002 	andmi	r0, r0, r2
     f90:	04000007 	streq	r0, [r0], #-7
     f94:	5101f300 	mrspl	pc, SP_irq	; <UNPREDICTABLE>
     f98:	0000009f 	muleq	r0, pc, r0	; <UNPREDICTABLE>
	...
     fac:	00028800 	andeq	r8, r2, r0, lsl #16
     fb0:	0002b800 	andeq	fp, r2, r0, lsl #16
     fb4:	52000100 	andpl	r0, r0, #0
     fb8:	000002b8 			; <UNDEFINED> instruction: 0x000002b8
     fbc:	000003ec 	andeq	r0, r0, ip, ror #7
     fc0:	ec560001 	mrrc	0, 0, r0, r6, cr1
     fc4:	b8000003 	stmdalt	r0, {r0, r1}
     fc8:	01000004 	tsteq	r0, r4
     fcc:	04b85b00 	ldrteq	r5, [r8], #2816	; 0xb00
     fd0:	04d80000 	ldrbeq	r0, [r8], #0
     fd4:	00010000 	andeq	r0, r1, r0
     fd8:	0004d856 	andeq	sp, r4, r6, asr r8
     fdc:	00055c00 	andeq	r5, r5, r0, lsl #24
     fe0:	5b000100 	blpl	13e8 <__code_start__-0x6c18>
     fe4:	0000055c 	andeq	r0, r0, ip, asr r5
     fe8:	00000704 	andeq	r0, r0, r4, lsl #14
     fec:	00560001 	subseq	r0, r6, r1
     ff0:	00000000 	andeq	r0, r0, r0
     ff4:	01000000 	mrseq	r0, (UNDEF: 0)
     ff8:	00000000 	andeq	r0, r0, r0
     ffc:	01010000 	mrseq	r0, (UNDEF: 1)
    1000:	00000000 	andeq	r0, r0, r0
    1004:	02020000 	andeq	r0, r2, #0, 0
    1008:	9c000000 	stcls	0, cr0, [r0], {-0}
    100c:	b8000002 	stmdalt	r0, {r1}
    1010:	01000002 	tsteq	r0, r2
    1014:	02b85000 	adcseq	r5, r8, #0, 0
    1018:	02bc0000 	adcseq	r0, ip, #0, 0
    101c:	00010000 	andeq	r0, r1, r0
    1020:	0002bc54 	andeq	fp, r2, r4, asr ip
    1024:	0002c000 	andeq	ip, r2, r0
    1028:	74000300 	strvc	r0, [r0], #-768	; 0xfffffd00
    102c:	02c09f01 	sbceq	r9, r0, #1, 30
    1030:	02e40000 	rsceq	r0, r4, #0, 0
    1034:	00010000 	andeq	r0, r1, r0
    1038:	0002e454 	andeq	lr, r2, r4, asr r4
    103c:	0002e800 	andeq	lr, r2, r0, lsl #16
    1040:	74000300 	strvc	r0, [r0], #-768	; 0xfffffd00
    1044:	02e89f01 	rsceq	r9, r8, #1, 30
    1048:	06d40000 	ldrbeq	r0, [r4], r0
    104c:	00010000 	andeq	r0, r1, r0
    1050:	0006d454 	andeq	sp, r6, r4, asr r4
    1054:	0006d800 	andeq	sp, r6, r0, lsl #16
    1058:	74000300 	strvc	r0, [r0], #-768	; 0xfffffd00
    105c:	06d89f01 	ldrbeq	r9, [r8], r1, lsl #30
    1060:	06f00000 	ldrbteq	r0, [r0], r0
    1064:	00010000 	andeq	r0, r1, r0
    1068:	0006f054 	andeq	pc, r6, r4, asr r0	; <UNPREDICTABLE>
    106c:	0006f800 	andeq	pc, r6, r0, lsl #16
    1070:	74000300 	strvc	r0, [r0], #-768	; 0xfffffd00
    1074:	06f89f01 	ldrbteq	r9, [r8], r1, lsl #30
    1078:	07040000 	streq	r0, [r4, -r0]
    107c:	00010000 	andeq	r0, r1, r0
    1080:	00000054 	andeq	r0, r0, r4, asr r0
	...
    108c:	0002a400 	andeq	sl, r2, r0, lsl #8
    1090:	00070400 	andeq	r0, r7, r0, lsl #8
    1094:	58000100 	stmdapl	r0, {r8}
    1098:	00000704 	andeq	r0, r0, r4, lsl #14
    109c:	00000740 	andeq	r0, r0, r0, asr #14
    10a0:	01f3000a 	mvnseq	r0, sl
    10a4:	5001f351 	andpl	pc, r1, r1, asr r3	; <UNPREDICTABLE>
    10a8:	9f1c3122 	svcls	0x001c3122
	...
    10b4:	00000001 	andeq	r0, r0, r1
    10b8:	04080000 	streq	r0, [r8], #-0
    10bc:	04740000 	ldrbteq	r0, [r4], #-0
    10c0:	00010000 	andeq	r0, r1, r0
    10c4:	0004d857 	andeq	sp, r4, r7, asr r8
    10c8:	0004fc00 	andeq	pc, r4, r0, lsl #24
    10cc:	57000100 	strpl	r0, [r0, -r0, lsl #2]
    10d0:	00000540 	andeq	r0, r0, r0, asr #10
    10d4:	0000055c 	andeq	r0, r0, ip, asr r5
    10d8:	00570001 	subseq	r0, r7, r1
    10dc:	00000000 	andeq	r0, r0, r0
    10e0:	02000000 	andeq	r0, r0, #0, 0
    10e4:	08000000 	stmdaeq	r0, {}	; <UNPREDICTABLE>
    10e8:	b8000004 	stmdalt	r0, {r2}
    10ec:	01000004 	tsteq	r0, r4
    10f0:	04d85a00 	ldrbeq	r5, [r8], #2560	; 0xa00
    10f4:	055c0000 	ldrbeq	r0, [ip, #-0]
    10f8:	00010000 	andeq	r0, r1, r0
    10fc:	0000005a 	andeq	r0, r0, sl, asr r0
    1100:	00000000 	andeq	r0, r0, r0
    1104:	00000100 	andeq	r0, r0, r0, lsl #2
    1108:	0002ac00 	andeq	sl, r2, r0, lsl #24
    110c:	0002b800 	andeq	fp, r2, r0, lsl #16
    1110:	52000100 	andpl	r0, r0, #0
    1114:	000002b8 			; <UNDEFINED> instruction: 0x000002b8
    1118:	00000740 	andeq	r0, r0, r0, asr #14
    111c:	c8910003 	ldmgt	r1, {r0, r1}
    1120:	0000007d 	andeq	r0, r0, sp, ror r0
	...
    1130:	01010000 	mrseq	r0, (UNDEF: 1)
	...
    113c:	74000000 	strvc	r0, [r0], #-0
    1140:	8c000004 	stchi	0, cr0, [r0], {4}
    1144:	01000004 	tsteq	r0, r4
    1148:	048c5000 	streq	r5, [ip], #0
    114c:	04b80000 	ldrteq	r0, [r8], #0
    1150:	00010000 	andeq	r0, r1, r0
    1154:	0004fc57 	andeq	pc, r4, r7, asr ip	; <UNPREDICTABLE>
    1158:	00051400 	andeq	r1, r5, r0, lsl #8
    115c:	50000100 	andpl	r0, r0, r0, lsl #2
    1160:	00000514 	andeq	r0, r0, r4, lsl r5
    1164:	00000540 	andeq	r0, r0, r0, asr #10
    1168:	a4570001 	ldrbge	r0, [r7], #-1
    116c:	a4000005 	strge	r0, [r0], #-5
    1170:	01000005 	tsteq	r0, r5
    1174:	05a45000 	streq	r5, [r4, #0]!
    1178:	05ac0000 	streq	r0, [ip, #0]!
    117c:	00010000 	andeq	r0, r1, r0
    1180:	0005dc57 	andeq	sp, r5, r7, asr ip
    1184:	0005e000 	andeq	lr, r5, r0
    1188:	50000100 	andpl	r0, r0, r0, lsl #2
    118c:	00000610 	andeq	r0, r0, r0, lsl r6
    1190:	00000614 	andeq	r0, r0, r4, lsl r6
    1194:	44500001 	ldrbmi	r0, [r0], #-1
    1198:	48000006 	stmdami	r0, {r1, r2}
    119c:	01000006 	tsteq	r0, r6
    11a0:	068c5000 	streq	r5, [ip], r0
    11a4:	06900000 	ldreq	r0, [r0], r0
    11a8:	00010000 	andeq	r0, r1, r0
    11ac:	0006d050 	andeq	sp, r6, r0, asr r0
    11b0:	0006f000 	andeq	pc, r6, r0
    11b4:	57000100 	strpl	r0, [r0, -r0, lsl #2]
	...
    11c0:	00000002 	andeq	r0, r0, r2
    11c4:	02f40000 	rscseq	r0, r4, #0, 0
    11c8:	02f80000 	rscseq	r0, r8, #0, 0
    11cc:	00020000 	andeq	r0, r2, r0
    11d0:	02f89f30 	rscseq	r9, r8, #48, 30	; 0xc0
    11d4:	03140000 	tsteq	r4, #0, 0
    11d8:	00010000 	andeq	r0, r1, r0
    11dc:	00031c55 	andeq	r1, r3, r5, asr ip
    11e0:	0006f000 	andeq	pc, r6, r0
    11e4:	55000100 	strpl	r0, [r0, #-256]	; 0xffffff00
	...
    11f0:	00000001 	andeq	r0, r0, r1
    11f4:	00000000 	andeq	r0, r0, r0
    11f8:	03b80000 			; <UNDEFINED> instruction: 0x03b80000
    11fc:	04540000 	ldrbeq	r0, [r4], #-0
    1200:	00010000 	andeq	r0, r1, r0
    1204:	00045456 	andeq	r5, r4, r6, asr r4
    1208:	0004b800 	andeq	fp, r4, r0, lsl #16
    120c:	7b000300 	blvc	1e14 <__code_start__-0x61ec>
    1210:	04b89f7e 	ldrteq	r9, [r8], #3966	; 0xf7e
    1214:	04dc0000 	ldrbeq	r0, [ip], #0
    1218:	00010000 	andeq	r0, r1, r0
    121c:	0004dc56 	andeq	sp, r4, r6, asr ip
    1220:	00054000 	andeq	r4, r5, r0
    1224:	7b000300 	blvc	1e2c <__code_start__-0x61d4>
    1228:	05409f7e 	strbeq	r9, [r0, #-3966]	; 0xfffff082
    122c:	055c0000 	ldrbeq	r0, [ip, #-0]
    1230:	00010000 	andeq	r0, r1, r0
    1234:	00000056 	andeq	r0, r0, r6, asr r0
	...
    1240:	70000000 	andvc	r0, r0, r0
    1244:	94000000 	strls	r0, [r0], #-0
    1248:	01000000 	mrseq	r0, (UNDEF: 0)
    124c:	00945000 	addseq	r5, r4, r0
    1250:	00fc0000 	rscseq	r0, ip, r0
    1254:	00030000 	andeq	r0, r3, r0
    1258:	fc9f0270 	ldc2	2, cr0, [pc], {112}	; 0x70
    125c:	24000000 	strcs	r0, [r0], #-0
    1260:	04000002 	streq	r0, [r0], #-2
    1264:	5001f300 	andpl	pc, r1, r0, lsl #6
    1268:	0000009f 	muleq	r0, pc, r0	; <UNPREDICTABLE>
	...
    1280:	00007000 	andeq	r7, r0, r0
    1284:	0000e000 	andeq	lr, r0, r0
    1288:	51000100 	mrspl	r0, (UNDEF: 16)
    128c:	000000e0 	andeq	r0, r0, r0, ror #1
    1290:	00000154 	andeq	r0, r0, r4, asr r1
    1294:	54550001 	ldrbpl	r0, [r5], #-1
    1298:	58000001 	stmdapl	r0, {r0}
    129c:	01000001 	tsteq	r0, r1
    12a0:	01585100 	cmpeq	r8, r0, lsl #2
    12a4:	01b00000 	movseq	r0, r0
    12a8:	00010000 	andeq	r0, r1, r0
    12ac:	0001b055 	andeq	fp, r1, r5, asr r0
    12b0:	0001c000 	andeq	ip, r1, r0
    12b4:	51000100 	mrspl	r0, (UNDEF: 16)
    12b8:	000001c0 	andeq	r0, r0, r0, asr #3
    12bc:	000001e4 	andeq	r0, r0, r4, ror #3
    12c0:	e4550001 	ldrb	r0, [r5], #-1
    12c4:	f8000001 			; <UNDEFINED> instruction: 0xf8000001
    12c8:	01000001 	tsteq	r0, r1
    12cc:	01f85100 	mvnseq	r5, r0, lsl #2
    12d0:	02240000 	eoreq	r0, r4, #0, 0
    12d4:	00010000 	andeq	r0, r1, r0
    12d8:	00000055 	andeq	r0, r0, r5, asr r0
	...
    12e4:	00007000 	andeq	r7, r0, r0
    12e8:	00008400 	andeq	r8, r0, r0, lsl #8
    12ec:	52000100 	andpl	r0, r0, #0
    12f0:	00000084 	andeq	r0, r0, r4, lsl #1
    12f4:	00000224 	andeq	r0, r0, r4, lsr #4
    12f8:	00540001 	subseq	r0, r4, r1
	...
    1308:	00000001 	andeq	r0, r0, r1
    130c:	70000000 	andvc	r0, r0, r0
    1310:	f4000000 	vst4.8	{d0-d3}, [r0], r0
    1314:	01000000 	mrseq	r0, (UNDEF: 0)
    1318:	014c5300 	mrseq	r5, SPSR_mon
    131c:	01800000 	orreq	r0, r0, r0
    1320:	00010000 	andeq	r0, r1, r0
    1324:	00018053 	andeq	r8, r1, r3, asr r0
    1328:	00018c00 	andeq	r8, r1, r0, lsl #24
    132c:	f3000400 	vshl.u8	d0, d0, d0
    1330:	b09f5301 	addslt	r5, pc, r1, lsl #6
    1334:	e8000001 	stmda	r0, {r0}
    1338:	01000001 	tsteq	r0, r1
    133c:	01e85300 	mvneq	r5, r0, lsl #6
    1340:	01ff0000 	mvnseq	r0, r0
    1344:	00010000 	andeq	r0, r1, r0
    1348:	0001ff5c 	andeq	pc, r1, ip, asr pc	; <UNPREDICTABLE>
    134c:	00022400 	andeq	r2, r2, r0, lsl #8
    1350:	f3000400 	vshl.u8	d0, d0, d0
    1354:	009f5301 	addseq	r5, pc, r1, lsl #6
	...
    1364:	00007000 	andeq	r7, r0, r0
    1368:	00008c00 	andeq	r8, r0, r0, lsl #24
    136c:	91000200 	mrsls	r0, R8_usr
    1370:	00008c00 	andeq	r8, r0, r0, lsl #24
    1374:	00019300 	andeq	r9, r1, r0, lsl #6
    1378:	52000100 	andpl	r0, r0, #0
    137c:	000001b0 			; <UNDEFINED> instruction: 0x000001b0
    1380:	000001f4 	strdeq	r0, [r0], -r4
    1384:	00520001 	subseq	r0, r2, r1
    1388:	00000000 	andeq	r0, r0, r0
    138c:	01000000 	mrseq	r0, (UNDEF: 0)
    1390:	01010000 	mrseq	r0, (UNDEF: 1)
	...
    139c:	01010101 	tsteq	r1, r1, lsl #2
    13a0:	01010000 	mrseq	r0, (UNDEF: 1)
	...
    13ac:	8c000000 	stchi	0, cr0, [r0], {-0}
    13b0:	fc000000 	stc2	0, cr0, [r0], {-0}
    13b4:	04000000 	streq	r0, [r0], #-0
    13b8:	7fa09100 	svcvc	0x00a09100
    13bc:	0000fc9f 	muleq	r0, pc, ip	; <UNPREDICTABLE>
    13c0:	00013c00 	andeq	r3, r1, r0, lsl #24
    13c4:	50000100 	andpl	r0, r0, r0, lsl #2
    13c8:	0000013c 	andeq	r0, r0, ip, lsr r1
    13cc:	00000148 	andeq	r0, r0, r8, asr #2
    13d0:	02710003 	rsbseq	r0, r1, #3, 0
    13d4:	0001489f 	muleq	r1, pc, r8	; <UNPREDICTABLE>
    13d8:	00014c00 	andeq	r4, r1, r0, lsl #24
    13dc:	50000100 	andpl	r0, r0, r0, lsl #2
    13e0:	0000014c 	andeq	r0, r0, ip, asr #2
    13e4:	00000158 	andeq	r0, r0, r8, asr r1
    13e8:	a0910004 	addsge	r0, r1, r4
    13ec:	01589f7f 	cmpeq	r8, pc, ror pc
    13f0:	016c0000 	cmneq	ip, r0
    13f4:	00010000 	andeq	r0, r1, r0
    13f8:	00016c51 	andeq	r6, r1, r1, asr ip
    13fc:	00017800 	andeq	r7, r1, r0, lsl #16
    1400:	71000300 	mrsvc	r0, LR_irq
    1404:	01789f7f 	cmneq	r8, pc, ror pc
    1408:	01840000 	orreq	r0, r4, r0
    140c:	00030000 	andeq	r0, r3, r0
    1410:	849f0171 	ldrhi	r0, [pc], #369	; 1418 <__code_start__-0x6be8>
    1414:	93000001 	movwls	r0, #1
    1418:	01000001 	tsteq	r0, r1
    141c:	01b05000 	movseq	r5, r0
    1420:	01b00000 	movseq	r0, r0
    1424:	00040000 	andeq	r0, r4, r0
    1428:	9f7fa091 	svcls	0x007fa091
    142c:	000001b0 			; <UNDEFINED> instruction: 0x000001b0
    1430:	000001b8 			; <UNDEFINED> instruction: 0x000001b8
    1434:	a1910004 	orrsge	r0, r1, r4
    1438:	01b89f7f 			; <UNDEFINED> instruction: 0x01b89f7f
    143c:	01bc0000 			; <UNDEFINED> instruction: 0x01bc0000
    1440:	00010000 	andeq	r0, r1, r0
    1444:	0001bc50 	andeq	fp, r1, r0, asr ip
    1448:	0001c000 	andeq	ip, r1, r0
    144c:	91000400 	tstls	r0, r0, lsl #8
    1450:	c09f7fa0 	addsgt	r7, pc, r0, lsr #31
    1454:	d4000001 	strle	r0, [r0], #-1
    1458:	01000001 	tsteq	r0, r1
    145c:	01d45000 	bicseq	r5, r4, r0
    1460:	01e40000 	mvneq	r0, r0
    1464:	00030000 	andeq	r0, r3, r0
    1468:	e49f7f70 	ldr	r7, [pc], #3952	; 1470 <__code_start__-0x6b90>
    146c:	24000001 	strcs	r0, [r0], #-1
    1470:	04000002 	streq	r0, [r0], #-2
    1474:	7fa09100 	svcvc	0x00a09100
    1478:	0000009f 	muleq	r0, pc, r0	; <UNPREDICTABLE>
	...
    1484:	00000101 	andeq	r0, r0, r1, lsl #2
	...
    1494:	00009000 	andeq	r9, r0, r0
    1498:	0000dc00 	andeq	sp, r0, r0, lsl #24
    149c:	5c000100 	stfpls	f0, [r0], {-0}
    14a0:	000000dc 	ldrdeq	r0, [r0], -ip
    14a4:	000000f4 	strdeq	r0, [r0], -r4
    14a8:	f4530001 			; <UNDEFINED> instruction: 0xf4530001
    14ac:	4c000000 	stcmi	0, cr0, [r0], {-0}
    14b0:	01000001 	tsteq	r0, r1
    14b4:	014c5c00 	cmpeq	ip, r0, lsl #24
    14b8:	01580000 	cmpeq	r8, r0
    14bc:	00010000 	andeq	r0, r1, r0
    14c0:	00015853 	andeq	r5, r1, r3, asr r8
    14c4:	00017400 	andeq	r7, r1, r0, lsl #8
    14c8:	5c000100 	stfpls	f0, [r0], {-0}
    14cc:	000001b0 			; <UNDEFINED> instruction: 0x000001b0
    14d0:	000001c0 	andeq	r0, r0, r0, asr #3
    14d4:	c0530001 	subsgt	r0, r3, r1
    14d8:	dc000001 	stcle	0, cr0, [r0], {1}
    14dc:	01000001 	tsteq	r0, r1
    14e0:	01e45c00 	mvneq	r5, r0, lsl #24
    14e4:	01e80000 	mvneq	r0, r0
    14e8:	00010000 	andeq	r0, r1, r0
    14ec:	0001e853 	andeq	lr, r1, r3, asr r8
    14f0:	0001ff00 	andeq	pc, r1, r0, lsl #30
    14f4:	5c000100 	stfpls	f0, [r0], {-0}
    14f8:	000001ff 	strdeq	r0, [r0], -pc	; <UNPREDICTABLE>
    14fc:	00000224 	andeq	r0, r0, r4, lsr #4
    1500:	01f30004 	mvnseq	r0, r4
    1504:	00009f53 	andeq	r9, r0, r3, asr pc
    1508:	00000000 	andeq	r0, r0, r0
    150c:	01010000 	mrseq	r0, (UNDEF: 1)
    1510:	00000001 	andeq	r0, r0, r1
    1514:	00dc0000 	sbcseq	r0, ip, r0
    1518:	00f00000 	rscseq	r0, r0, r0
    151c:	00020000 	andeq	r0, r2, r0
    1520:	00f09f30 	rscseq	r9, r0, r0, lsr pc
    1524:	00f80000 	rscseq	r0, r8, r0
    1528:	00020000 	andeq	r0, r2, r0
    152c:	00fc9f31 	rscseq	r9, ip, r1, lsr pc
    1530:	014c0000 	mrseq	r0, (UNDEF: 76)
    1534:	00010000 	andeq	r0, r1, r0
    1538:	00014c56 	andeq	r4, r1, r6, asr ip
    153c:	00015400 	andeq	r5, r1, r0, lsl #8
    1540:	30000200 	andcc	r0, r0, r0, lsl #4
    1544:	0000009f 	muleq	r0, pc, r0	; <UNPREDICTABLE>
	...
    1550:	00000101 	andeq	r0, r0, r1, lsl #2
    1554:	38000101 	stmdacc	r0, {r0, r8}
    1558:	54000000 	strpl	r0, [r0], #-0
    155c:	01000000 	mrseq	r0, (UNDEF: 0)
    1560:	00545000 	subseq	r5, r4, r0
    1564:	00580000 	subseq	r0, r8, r0
    1568:	00010000 	andeq	r0, r1, r0
    156c:	00005852 	andeq	r5, r0, r2, asr r8
    1570:	00006000 	andeq	r6, r0, r0
    1574:	72000300 	andvc	r0, r0, #0, 6
    1578:	00609f01 	rsbeq	r9, r0, r1, lsl #30
    157c:	00640000 	rsbeq	r0, r4, r0
    1580:	00010000 	andeq	r0, r1, r0
    1584:	00006452 	andeq	r6, r0, r2, asr r4
    1588:	00007000 	andeq	r7, r0, r0
    158c:	72000300 	andvc	r0, r0, #0, 6
    1590:	00009f01 	andeq	r9, r0, r1, lsl #30
	...
    159c:	00380000 	eorseq	r0, r8, r0
    15a0:	00500000 	subseq	r0, r0, r0
    15a4:	00010000 	andeq	r0, r1, r0
    15a8:	00005051 	andeq	r5, r0, r1, asr r0
    15ac:	00007000 	andeq	r7, r0, r0
    15b0:	f3000400 	vshl.u8	d0, d0, d0
    15b4:	009f5101 	addseq	r5, pc, r1, lsl #2
	...
    15c4:	38000101 	stmdacc	r0, {r0, r8}
    15c8:	50000000 	andpl	r0, r0, r0
    15cc:	01000000 	mrseq	r0, (UNDEF: 0)
    15d0:	00505200 	subseq	r5, r0, r0, lsl #4
    15d4:	005c0000 	subseq	r0, ip, r0
    15d8:	00010000 	andeq	r0, r1, r0
    15dc:	00005c51 	andeq	r5, r0, r1, asr ip
    15e0:	00006000 	andeq	r6, r0, r0
    15e4:	71000300 	mrsvc	r0, LR_irq
    15e8:	00609f01 	rsbeq	r9, r0, r1, lsl #30
    15ec:	00700000 	rsbseq	r0, r0, r0
    15f0:	00010000 	andeq	r0, r1, r0
    15f4:	00000051 	andeq	r0, r0, r1, asr r0
	...
    1600:	00003800 	andeq	r3, r0, r0, lsl #16
    1604:	00004c00 	andeq	r4, r0, r0, lsl #24
    1608:	53000100 	movwpl	r0, #256	; 0x100
    160c:	0000004c 	andeq	r0, r0, ip, asr #32
    1610:	00000068 	andeq	r0, r0, r8, rrx
    1614:	00530001 	subseq	r0, r3, r1
	...
    1624:	40000000 	andmi	r0, r0, r0
    1628:	48000000 	stmdami	r0, {}	; <UNPREDICTABLE>
    162c:	01000000 	mrseq	r0, (UNDEF: 0)
    1630:	00485c00 	subeq	r5, r8, r0, lsl #24
    1634:	004c0000 	subeq	r0, ip, r0
    1638:	00080000 	andeq	r0, r8, r0
    163c:	00730072 	rsbseq	r0, r3, r2, ror r0
    1640:	9f01231c 	svcls	0x0001231c
    1644:	0000004c 	andeq	r0, r0, ip, asr #32
    1648:	00000054 	andeq	r0, r0, r4, asr r0
    164c:	00720009 	rsbseq	r0, r2, r9
    1650:	1c5301f3 	ldfnee	f0, [r3], {243}	; 0xf3
    1654:	549f0123 	ldrpl	r0, [pc], #291	; 165c <__code_start__-0x69a4>
    1658:	70000000 	andvc	r0, r0, r0
    165c:	0a000000 	beq	1664 <__code_start__-0x699c>
    1660:	5201f300 	andpl	pc, r1, #0, 6
    1664:	1c5301f3 	ldfnee	f0, [r3], {243}	; 0xf3
    1668:	009f0123 	addseq	r0, pc, r3, lsr #2
    166c:	00000000 	andeq	r0, r0, r0
    1670:	01000000 	mrseq	r0, (UNDEF: 0)
    1674:	00004c00 	andeq	r4, r0, r0, lsl #24
    1678:	00007000 	andeq	r7, r0, r0
    167c:	50000100 	andpl	r0, r0, r0, lsl #2
	...
    1688:	00010100 	andeq	r0, r1, r0, lsl #2
    168c:	00140000 	andseq	r0, r4, r0
    1690:	001c0000 	andseq	r0, ip, r0
    1694:	00010000 	andeq	r0, r1, r0
    1698:	00001c50 	andeq	r1, r0, r0, asr ip
    169c:	00002400 	andeq	r2, r0, r0, lsl #8
    16a0:	70000300 	andvc	r0, r0, r0, lsl #6
    16a4:	00249f01 	eoreq	r9, r4, r1, lsl #30
    16a8:	00380000 	eorseq	r0, r8, r0
    16ac:	00010000 	andeq	r0, r1, r0
    16b0:	00000050 	andeq	r0, r0, r0, asr r0
	...
    16bc:	00001400 	andeq	r1, r0, r0, lsl #8
    16c0:	00001800 	andeq	r1, r0, r0, lsl #16
    16c4:	51000100 	mrspl	r0, (UNDEF: 16)
    16c8:	00000018 	andeq	r0, r0, r8, lsl r0
    16cc:	00000038 	andeq	r0, r0, r8, lsr r0
    16d0:	01f30004 	mvnseq	r0, r4
    16d4:	00009f51 	andeq	r9, r0, r1, asr pc
	...
    16e0:	00000018 	andeq	r0, r0, r8, lsl r0
    16e4:	00000038 	andeq	r0, r0, r8, lsr r0
    16e8:	00510001 	subseq	r0, r1, r1
	...
    16fc:	00000400 	andeq	r0, r0, r0, lsl #8
    1700:	50000100 	andpl	r0, r0, r0, lsl #2
    1704:	00000004 	andeq	r0, r0, r4
    1708:	0000000c 	andeq	r0, r0, ip
    170c:	30700003 	rsbscc	r0, r0, r3
    1710:	00000c9f 	muleq	r0, pc, ip	; <UNPREDICTABLE>
    1714:	00001400 	andeq	r1, r0, r0, lsl #8
    1718:	f3000400 	vshl.u8	d0, d0, d0
    171c:	009f5001 	addseq	r5, pc, r1
	...
    1728:	24000000 	strcs	r0, [r0], #-0
    172c:	68000002 	stmdavs	r0, {r1}
    1730:	01000002 	tsteq	r0, r2
    1734:	02685000 	rsbeq	r5, r8, #0, 0
    1738:	02880000 	addeq	r0, r8, #0, 0
    173c:	00040000 	andeq	r0, r4, r0
    1740:	9f5001f3 	svcls	0x005001f3
	...
    1750:	00000224 	andeq	r0, r0, r4, lsr #4
    1754:	00000264 	andeq	r0, r0, r4, ror #4
    1758:	64510001 	ldrbvs	r0, [r1], #-1
    175c:	88000002 	stmdahi	r0, {r1}
    1760:	04000002 	streq	r0, [r0], #-2
    1764:	5101f300 	mrspl	pc, SP_irq	; <UNPREDICTABLE>
    1768:	0000009f 	muleq	r0, pc, r0	; <UNPREDICTABLE>
    176c:	00000000 	andeq	r0, r0, r0
    1770:	01010000 	mrseq	r0, (UNDEF: 1)
    1774:	0c000000 	stceq	0, cr0, [r0], {-0}
    1778:	14000000 	strne	r0, [r0], #-0
    177c:	01000000 	mrseq	r0, (UNDEF: 0)
    1780:	00145300 	andseq	r5, r4, r0, lsl #6
    1784:	001c0000 	andseq	r0, ip, r0
    1788:	00030000 	andeq	r0, r3, r0
    178c:	1c9f0473 	cfldrsne	mvf0, [pc], {115}	; 0x73
    1790:	23000000 	movwcs	r0, #0
    1794:	01000000 	mrseq	r0, (UNDEF: 0)
    1798:	00005300 	andeq	r5, r0, r0, lsl #6
    179c:	00000000 	andeq	r0, r0, r0
    17a0:	00010000 	andeq	r0, r1, r0
    17a4:	000097cc 	andeq	r9, r0, ip, asr #15
    17a8:	000097e8 	andeq	r9, r0, r8, ror #15
    17ac:	1c0c0006 	stcne	0, cr0, [ip], {6}
    17b0:	9f201000 	svcls	0x00201000
	...
    17bc:	97cc0002 	strbls	r0, [ip, r2]
    17c0:	97e80000 	strbls	r0, [r8, r0]!
    17c4:	00060000 	andeq	r0, r6, r0
    17c8:	1000240c 	andne	r2, r0, ip, lsl #8
    17cc:	00009f20 	andeq	r9, r0, r0, lsr #30
    17d0:	00000000 	andeq	r0, r0, r0
    17d4:	00030000 	andeq	r0, r3, r0
    17d8:	000097cc 	andeq	r9, r0, ip, asr #15
    17dc:	000097e8 	andeq	r9, r0, r8, ror #15
    17e0:	b4080005 	strlt	r0, [r8], #-5
    17e4:	009f2447 	addseq	r2, pc, r7, asr #8
    17e8:	00000000 	andeq	r0, r0, r0
    17ec:	04000000 	streq	r0, [r0], #-0
    17f0:	0097cc00 	addseq	ip, r7, r0, lsl #24
    17f4:	0097e800 	addseq	lr, r7, r0, lsl #16
    17f8:	08000300 	stmdaeq	r0, {r8, r9}
    17fc:	00009f20 	andeq	r9, r0, r0, lsr #30
    1800:	00000000 	andeq	r0, r0, r0
    1804:	00020000 	andeq	r0, r2, r0
    1808:	00000000 	andeq	r0, r0, r0
    180c:	00009798 	muleq	r0, r8, r7
    1810:	0000979c 	muleq	r0, ip, r7
    1814:	9f300002 	svcls	0x00300002
    1818:	0000979c 	muleq	r0, ip, r7
    181c:	000097a0 	andeq	r9, r0, r0, lsr #15
    1820:	a4530001 	ldrbge	r0, [r3], #-1
    1824:	ac000097 	stcge	0, cr0, [r0], {151}	; 0x97
    1828:	01000097 	swpeq	r0, r7, [r0]	; <UNPREDICTABLE>
    182c:	00005300 	andeq	r5, r0, r0, lsl #6
    1830:	00000000 	andeq	r0, r0, r0
    1834:	00020000 	andeq	r0, r2, r0
    1838:	97800000 	strls	r0, [r0, r0]
    183c:	97840000 	strls	r0, [r4, r0]
    1840:	00020000 	andeq	r0, r2, r0
    1844:	97849f30 			; <UNDEFINED> instruction: 0x97849f30
    1848:	97880000 	strls	r0, [r8, r0]
    184c:	00010000 	andeq	r0, r1, r0
    1850:	00000050 	andeq	r0, r0, r0, asr r0
	...
    185c:	00006c00 	andeq	r6, r0, r0, lsl #24
    1860:	00007800 	andeq	r7, r0, r0, lsl #16
    1864:	50000100 	andpl	r0, r0, r0, lsl #2
    1868:	00000078 	andeq	r0, r0, r8, ror r0
    186c:	00000084 	andeq	r0, r0, r4, lsl #1
    1870:	01f30004 	mvnseq	r0, r4
    1874:	00009f50 	andeq	r9, r0, r0, asr pc
	...
    1880:	00540000 	subseq	r0, r4, r0
    1884:	00600000 	rsbeq	r0, r0, r0
    1888:	00010000 	andeq	r0, r1, r0
    188c:	00006050 	andeq	r6, r0, r0, asr r0
    1890:	00006c00 	andeq	r6, r0, r0, lsl #24
    1894:	f3000400 	vshl.u8	d0, d0, d0
    1898:	009f5001 	addseq	r5, pc, r1
	...
    18a4:	30000000 	andcc	r0, r0, r0
    18a8:	3b000000 	blcc	18b0 <__code_start__-0x6750>
    18ac:	01000000 	mrseq	r0, (UNDEF: 0)
    18b0:	003b5000 	eorseq	r5, fp, r0
    18b4:	00540000 	subseq	r0, r4, r0
    18b8:	00010000 	andeq	r0, r1, r0
    18bc:	00000055 	andeq	r0, r0, r5, asr r0
    18c0:	00000000 	andeq	r0, r0, r0
    18c4:	40000000 	andmi	r0, r0, r0
    18c8:	54000000 	strpl	r0, [r0], #-0
    18cc:	01000000 	mrseq	r0, (UNDEF: 0)
    18d0:	00005400 	andeq	r5, r0, r0, lsl #8
	...
    18dc:	00000044 	andeq	r0, r0, r4, asr #32
    18e0:	00000048 	andeq	r0, r0, r8, asr #32
    18e4:	00500001 	subseq	r0, r0, r1
	...
    18f0:	24000000 	strcs	r0, [r0], #-0
    18f4:	27000000 	strcs	r0, [r0, -r0]
    18f8:	01000000 	mrseq	r0, (UNDEF: 0)
    18fc:	00275000 	eoreq	r5, r7, r0
    1900:	00300000 	eorseq	r0, r0, r0
    1904:	00010000 	andeq	r0, r1, r0
    1908:	00000054 	andeq	r0, r0, r4, asr r0
	...
    1914:	00015800 	andeq	r5, r1, r0, lsl #16
    1918:	00016300 	andeq	r6, r1, r0, lsl #6
    191c:	50000100 	andpl	r0, r0, r0, lsl #2
    1920:	00000163 	andeq	r0, r0, r3, ror #2
    1924:	00000188 	andeq	r0, r0, r8, lsl #3
    1928:	00540001 	subseq	r0, r4, r1
	...
    1934:	00014800 	andeq	r4, r1, r0, lsl #16
    1938:	00015800 	andeq	r5, r1, r0, lsl #16
    193c:	54000100 	strpl	r0, [r0], #-256	; 0xffffff00
	...
    1950:	0000000f 	andeq	r0, r0, pc
    1954:	0f500001 	svceq	0x00500001
    1958:	20000000 	andcs	r0, r0, r0
    195c:	01000000 	mrseq	r0, (UNDEF: 0)
    1960:	00005400 	andeq	r5, r0, r0, lsl #8
	...
    1970:	000f0000 	andeq	r0, pc, r0
    1974:	00010000 	andeq	r0, r1, r0
    1978:	00000f51 	andeq	r0, r0, r1, asr pc
    197c:	00002000 	andeq	r2, r0, r0
    1980:	55000100 	strpl	r0, [r0, #-256]	; 0xffffff00
	...
    1990:	00000020 	andeq	r0, r0, r0, lsr #32
    1994:	0000002f 	andeq	r0, r0, pc, lsr #32
    1998:	2f500001 	svccs	0x00500001
    199c:	40000000 	andmi	r0, r0, r0
    19a0:	01000000 	mrseq	r0, (UNDEF: 0)
    19a4:	00005400 	andeq	r5, r0, r0, lsl #8
	...
    19b0:	00200000 	eoreq	r0, r0, r0
    19b4:	002f0000 	eoreq	r0, pc, r0
    19b8:	00010000 	andeq	r0, r1, r0
    19bc:	00002f51 	andeq	r2, r0, r1, asr pc
    19c0:	00004000 	andeq	r4, r0, r0
    19c4:	55000100 	strpl	r0, [r0, #-256]	; 0xffffff00
	...
    19d4:	03500000 	cmpeq	r0, #0, 0
    19d8:	03980000 	orrseq	r0, r8, #0, 0
    19dc:	00010000 	andeq	r0, r1, r0
    19e0:	00039850 	andeq	r9, r3, r0, asr r8
    19e4:	00039b00 	andeq	r9, r3, r0, lsl #22
    19e8:	91000200 	mrsls	r0, R8_usr
    19ec:	00039b68 	andeq	r9, r3, r8, ror #22
    19f0:	0003b000 	andeq	fp, r3, r0
    19f4:	f3000400 	vshl.u8	d0, d0, d0
    19f8:	009f5001 	addseq	r5, pc, r1
	...
    1a14:	20000000 	andcs	r0, r0, r0
    1a18:	7b000002 	blvc	1a28 <__code_start__-0x65d8>
    1a1c:	01000002 	tsteq	r0, r2
    1a20:	027b5000 	rsbseq	r5, fp, #0, 0
    1a24:	02840000 	addeq	r0, r4, #0, 0
    1a28:	00040000 	andeq	r0, r4, r0
    1a2c:	9f5001f3 	svcls	0x005001f3
    1a30:	00000284 	andeq	r0, r0, r4, lsl #5
    1a34:	0000029c 	muleq	r0, ip, r2
    1a38:	9c500001 	mrrcls	0, 0, r0, r0, cr1	; <UNPREDICTABLE>
    1a3c:	a4000002 	strge	r0, [r0], #-2
    1a40:	04000002 	streq	r0, [r0], #-2
    1a44:	5001f300 	andpl	pc, r1, r0, lsl #6
    1a48:	0002a49f 	muleq	r2, pc, r4	; <UNPREDICTABLE>
    1a4c:	0002a700 	andeq	sl, r2, r0, lsl #14
    1a50:	50000100 	andpl	r0, r0, r0, lsl #2
    1a54:	000002a7 	andeq	r0, r0, r7, lsr #5
    1a58:	000002c8 	andeq	r0, r0, r8, asr #5
    1a5c:	01f30004 	mvnseq	r0, r4
    1a60:	02c89f50 	sbceq	r9, r8, #80, 30	; 0x140
    1a64:	02e00000 	rsceq	r0, r0, #0, 0
    1a68:	00010000 	andeq	r0, r1, r0
    1a6c:	0002e050 	andeq	lr, r2, r0, asr r0
    1a70:	0002e800 	andeq	lr, r2, r0, lsl #16
    1a74:	f3000400 	vshl.u8	d0, d0, d0
    1a78:	e89f5001 	ldm	pc, {r0, ip, lr}	; <UNPREDICTABLE>
    1a7c:	eb000002 	bl	1a8c <__code_start__-0x6574>
    1a80:	01000002 	tsteq	r0, r2
    1a84:	02eb5000 	rsceq	r5, fp, #0, 0
    1a88:	03380000 	teqeq	r8, #0, 0
    1a8c:	00040000 	andeq	r0, r4, r0
    1a90:	9f5001f3 	svcls	0x005001f3
	...
    1ab0:	00000220 	andeq	r0, r0, r0, lsr #4
    1ab4:	00000244 	andeq	r0, r0, r4, asr #4
    1ab8:	44510001 	ldrbmi	r0, [r1], #-1
    1abc:	68000002 	stmdavs	r0, {r1}
    1ac0:	01000002 	tsteq	r0, r2
    1ac4:	02685100 	rsbeq	r5, r8, #0
    1ac8:	027b0000 	rsbseq	r0, fp, #0, 0
    1acc:	00030000 	andeq	r0, r3, r0
    1ad0:	7b9f0171 	blvc	fe7c209c <__bss_end__+0xfe7b722c>
    1ad4:	84000002 	strhi	r0, [r0], #-2
    1ad8:	17000002 	strne	r0, [r0, -r2]
    1adc:	01f33800 	mvnseq	r3, r0, lsl #16
    1ae0:	5101f351 	tstpl	r1, r1, asr r3	; <UNPREDICTABLE>
    1ae4:	22244b40 	eorcs	r4, r4, #64, 22	; 0x10000
    1ae8:	0000080c 	andeq	r0, r0, ip, lsl #16
    1aec:	01282d80 	smlawbeq	r8, r0, sp, r2
    1af0:	9f131600 	svcls	0x00131600
    1af4:	00000284 	andeq	r0, r0, r4, lsl #5
    1af8:	00000298 	muleq	r0, r8, r2
    1afc:	98510001 	ldmdals	r1, {r0}^
    1b00:	a4000002 	strge	r0, [r0], #-2
    1b04:	04000002 	streq	r0, [r0], #-2
    1b08:	5101f300 	mrspl	pc, SP_irq	; <UNPREDICTABLE>
    1b0c:	0002a49f 	muleq	r2, pc, r4	; <UNPREDICTABLE>
    1b10:	0002a700 	andeq	sl, r2, r0, lsl #14
    1b14:	51000100 	mrspl	r0, (UNDEF: 16)
    1b18:	000002a7 	andeq	r0, r0, r7, lsr #5
    1b1c:	000002c8 	andeq	r0, r0, r8, asr #5
    1b20:	01f30004 	mvnseq	r0, r4
    1b24:	02c89f51 	sbceq	r9, r8, #324	; 0x144
    1b28:	02dc0000 	sbcseq	r0, ip, #0, 0
    1b2c:	00010000 	andeq	r0, r1, r0
    1b30:	0002dc51 	andeq	sp, r2, r1, asr ip
    1b34:	00033800 	andeq	r3, r3, r0, lsl #16
    1b38:	38001700 	stmdacc	r0, {r8, r9, sl, ip}
    1b3c:	f35101f3 	vbsl	q8, <illegal reg q8.5>, <illegal reg q9.5>
    1b40:	4b405101 	blmi	1015f4c <__bss_end__+0x100b0dc>
    1b44:	080c2224 	stmdaeq	ip, {r2, r5, r9, sp}
    1b48:	2d800000 	stccs	0, cr0, [r0]
    1b4c:	16000128 	strne	r0, [r0], -r8, lsr #2
    1b50:	00009f13 	andeq	r9, r0, r3, lsl pc
	...
    1b64:	024c0000 	subeq	r0, ip, #0, 0
    1b68:	025c0000 	subseq	r0, ip, #0, 0
    1b6c:	00010000 	andeq	r0, r1, r0
    1b70:	00025c52 	andeq	r5, r2, r2, asr ip
    1b74:	00026400 	andeq	r6, r2, r0, lsl #8
    1b78:	03000500 	movweq	r0, #1280	; 0x500
    1b7c:	0000aa38 	andeq	sl, r0, r8, lsr sl
    1b80:	00000264 	andeq	r0, r0, r4, ror #4
    1b84:	0000027b 	andeq	r0, r0, fp, ror r2
    1b88:	c8530001 	ldmdagt	r3, {r0}^
    1b8c:	d8000002 	stmdale	r0, {r1}
    1b90:	01000002 	tsteq	r0, r2
    1b94:	02d85200 	sbcseq	r5, r8, #0, 4
    1b98:	02e30000 	rsceq	r0, r3, #0, 0
    1b9c:	00050000 	andeq	r0, r5, r0
    1ba0:	00aa3803 	adceq	r3, sl, r3, lsl #16
    1ba4:	0002e800 	andeq	lr, r2, r0, lsl #16
    1ba8:	0002eb00 	andeq	lr, r2, r0, lsl #22
    1bac:	53000100 	movwpl	r0, #256	; 0x100
	...
    1bb8:	02300004 	eorseq	r0, r0, #4, 0
    1bbc:	02340000 	eorseq	r0, r4, #0, 0
    1bc0:	00010000 	andeq	r0, r1, r0
    1bc4:	00000051 	andeq	r0, r0, r1, asr r0
    1bc8:	00000000 	andeq	r0, r0, r0
    1bcc:	3c000200 	sfmcc	f0, 4, [r0], {-0}
    1bd0:	44000002 	strmi	r0, [r0], #-2
    1bd4:	02000002 	andeq	r0, r0, #2, 0
    1bd8:	009f3800 	addseq	r3, pc, r0, lsl #16
    1bdc:	00000000 	andeq	r0, r0, r0
    1be0:	02000000 	andeq	r0, r0, #0, 0
    1be4:	00023c00 	andeq	r3, r2, r0, lsl #24
    1be8:	00024400 	andeq	r4, r2, r0, lsl #8
    1bec:	51000100 	mrspl	r0, (UNDEF: 16)
	...
    1bf8:	00000001 	andeq	r0, r0, r1
    1bfc:	024c0000 	subeq	r0, ip, #0, 0
    1c00:	02640000 	rsbeq	r0, r4, #0, 0
    1c04:	00010000 	andeq	r0, r1, r0
    1c08:	0002c851 	andeq	ip, r2, r1, asr r8
    1c0c:	0002dc00 	andeq	sp, r2, r0, lsl #24
    1c10:	51000100 	mrspl	r0, (UNDEF: 16)
    1c14:	000002dc 	ldrdeq	r0, [r0], -ip
    1c18:	000002e8 	andeq	r0, r0, r8, ror #5
    1c1c:	f3380017 	vqadd.u64	d0, d8, d7
    1c20:	01f35101 	mvnseq	r5, r1, lsl #2
    1c24:	244b4051 	strbcs	r4, [fp], #-81	; 0xffffffaf
    1c28:	00080c22 	andeq	r0, r8, r2, lsr #24
    1c2c:	282d8000 	stmdacs	sp!, {pc}
    1c30:	13160001 	tstne	r6, #1, 0
    1c34:	0000009f 	muleq	r0, pc, r0	; <UNPREDICTABLE>
    1c38:	00000000 	andeq	r0, r0, r0
    1c3c:	00000100 	andeq	r0, r0, r0, lsl #2
    1c40:	00000000 	andeq	r0, r0, r0
    1c44:	00024c00 	andeq	r4, r2, r0, lsl #24
    1c48:	00025c00 	andeq	r5, r2, r0, lsl #24
    1c4c:	52000100 	andpl	r0, r0, #0
    1c50:	0000025c 	andeq	r0, r0, ip, asr r2
    1c54:	00000264 	andeq	r0, r0, r4, ror #4
    1c58:	38030005 	stmdacc	r3, {r0, r2}
    1c5c:	c80000aa 	stmdagt	r0, {r1, r3, r5, r7}
    1c60:	d8000002 	stmdale	r0, {r1}
    1c64:	01000002 	tsteq	r0, r2
    1c68:	02d85200 	sbcseq	r5, r8, #0, 4
    1c6c:	02e30000 	rsceq	r0, r3, #0, 0
    1c70:	00050000 	andeq	r0, r5, r0
    1c74:	00aa3803 	adceq	r3, sl, r3, lsl #16
	...
    1c80:	4c000400 	cfstrsmi	mvf0, [r0], {-0}
    1c84:	50000002 	andpl	r0, r0, r2
    1c88:	01000002 	tsteq	r0, r2
    1c8c:	00005100 	andeq	r5, r0, r0, lsl #2
    1c90:	00000000 	andeq	r0, r0, r0
    1c94:	00030000 	andeq	r0, r3, r0
    1c98:	00000264 	andeq	r0, r0, r4, ror #4
    1c9c:	00000268 	andeq	r0, r0, r8, ror #4
    1ca0:	00510001 	subseq	r0, r1, r1
    1ca4:	00000000 	andeq	r0, r0, r0
    1ca8:	03000000 	movweq	r0, #0
    1cac:	00026400 	andeq	r6, r2, r0, lsl #8
    1cb0:	00026800 	andeq	r6, r2, r0, lsl #16
    1cb4:	53000100 	movwpl	r0, #256	; 0x100
	...
    1cc8:	000001bc 			; <UNDEFINED> instruction: 0x000001bc
    1ccc:	000001d3 	ldrdeq	r0, [r0], -r3
    1cd0:	d3500001 	cmple	r0, #1, 0
    1cd4:	f0000001 			; <UNDEFINED> instruction: 0xf0000001
    1cd8:	01000001 	tsteq	r0, r1
    1cdc:	01f05400 	mvnseq	r5, r0, lsl #8
    1ce0:	02080000 	andeq	r0, r8, #0, 0
    1ce4:	00010000 	andeq	r0, r1, r0
    1ce8:	00020850 	andeq	r0, r2, r0, asr r8
    1cec:	00022000 	andeq	r2, r2, r0
    1cf0:	54000100 	strpl	r0, [r0], #-256	; 0xffffff00
	...
    1d00:	000001d8 	ldrdeq	r0, [r0], -r8
    1d04:	000001e3 	andeq	r0, r0, r3, ror #3
    1d08:	e3500001 	cmp	r0, #1, 0
    1d0c:	f0000001 			; <UNDEFINED> instruction: 0xf0000001
    1d10:	01000001 	tsteq	r0, r1
    1d14:	00005500 	andeq	r5, r0, r0, lsl #10
	...
    1d2c:	01240000 			; <UNDEFINED> instruction: 0x01240000
    1d30:	01380000 	teqeq	r8, r0
    1d34:	00010000 	andeq	r0, r1, r0
    1d38:	00013850 	andeq	r3, r1, r0, asr r8
    1d3c:	00013c00 	andeq	r3, r1, r0, lsl #24
    1d40:	70000300 	andvc	r0, r0, r0, lsl #6
    1d44:	013c9f79 	teqeq	ip, r9, ror pc
    1d48:	01600000 	cmneq	r0, r0
    1d4c:	00010000 	andeq	r0, r1, r0
    1d50:	00016053 	andeq	r6, r1, r3, asr r0
    1d54:	00017800 	andeq	r7, r1, r0, lsl #16
    1d58:	50000100 	andpl	r0, r0, r0, lsl #2
    1d5c:	00000178 	andeq	r0, r0, r8, ror r1
    1d60:	00000180 	andeq	r0, r0, r0, lsl #3
    1d64:	01f30004 	mvnseq	r0, r4
    1d68:	01809f50 	orreq	r9, r0, r0, asr pc
    1d6c:	01900000 	orrseq	r0, r0, r0
    1d70:	00010000 	andeq	r0, r1, r0
    1d74:	00019053 	andeq	r9, r1, r3, asr r0
    1d78:	00019f00 	andeq	r9, r1, r0, lsl #30
    1d7c:	91000200 	mrsls	r0, R8_usr
    1d80:	00019f68 	andeq	r9, r1, r8, ror #30
    1d84:	0001bc00 	andeq	fp, r1, r0, lsl #24
    1d88:	f3000900 	vmls.i8	d0, d0, d0
    1d8c:	07235001 	streq	r5, [r3, -r1]!
    1d90:	9f1af809 	svcls	0x001af809
	...
    1da0:	01440000 	mrseq	r0, (UNDEF: 68)
    1da4:	01600000 	cmneq	r0, r0
    1da8:	00010000 	andeq	r0, r1, r0
    1dac:	00018050 	andeq	r8, r1, r0, asr r0
    1db0:	00019c00 	andeq	r9, r1, r0, lsl #24
    1db4:	50000100 	andpl	r0, r0, r0, lsl #2
    1db8:	0000019c 	muleq	r0, ip, r1
    1dbc:	0000019f 	muleq	r0, pc, r1	; <UNPREDICTABLE>
    1dc0:	38030005 	stmdacc	r3, {r0, r2}
    1dc4:	000000aa 	andeq	r0, r0, sl, lsr #1
    1dc8:	00000000 	andeq	r0, r0, r0
    1dcc:	03000000 	movweq	r0, #0
    1dd0:	00013400 	andeq	r3, r1, r0, lsl #8
    1dd4:	00013c00 	andeq	r3, r1, r0, lsl #24
    1dd8:	38000200 	stmdacc	r0, {r9}
    1ddc:	0000009f 	muleq	r0, pc, r0	; <UNPREDICTABLE>
    1de0:	00000000 	andeq	r0, r0, r0
    1de4:	00000300 	andeq	r0, r0, r0, lsl #6
    1de8:	00013400 	andeq	r3, r1, r0, lsl #8
    1dec:	00013800 	andeq	r3, r1, r0, lsl #16
    1df0:	50000100 	andpl	r0, r0, r0, lsl #2
    1df4:	00000138 	andeq	r0, r0, r8, lsr r1
    1df8:	0000013c 	andeq	r0, r0, ip, lsr r1
    1dfc:	79700003 	ldmdbvc	r0!, {r0, r1}^
    1e00:	0000009f 	muleq	r0, pc, r0	; <UNPREDICTABLE>
	...
    1e14:	30000000 	andcc	r0, r0, r0
    1e18:	60000000 	andvs	r0, r0, r0
    1e1c:	01000000 	mrseq	r0, (UNDEF: 0)
    1e20:	00605000 	rsbeq	r5, r0, r0
    1e24:	006c0000 	rsbeq	r0, ip, r0
    1e28:	00050000 	andeq	r0, r5, r0
    1e2c:	00aa3803 	adceq	r3, sl, r3, lsl #16
    1e30:	00006c00 	andeq	r6, r0, r0, lsl #24
    1e34:	00008400 	andeq	r8, r0, r0, lsl #8
    1e38:	50000100 	andpl	r0, r0, r0, lsl #2
    1e3c:	00000084 	andeq	r0, r0, r4, lsl #1
    1e40:	0000008c 	andeq	r0, r0, ip, lsl #1
    1e44:	01f30004 	mvnseq	r0, r4
    1e48:	008c9f50 	addeq	r9, ip, r0, asr pc
    1e4c:	00ac0000 	adceq	r0, ip, r0
    1e50:	00010000 	andeq	r0, r1, r0
    1e54:	0000ac50 	andeq	sl, r0, r0, asr ip
    1e58:	0000af00 	andeq	sl, r0, r0, lsl #30
    1e5c:	91000200 	mrsls	r0, R8_usr
    1e60:	0000af68 	andeq	sl, r0, r8, ror #30
    1e64:	0000cc00 	andeq	ip, r0, r0, lsl #24
    1e68:	f3000400 	vshl.u8	d0, d0, d0
    1e6c:	009f5001 	addseq	r5, pc, r1
	...
    1e7c:	30000000 	andcc	r0, r0, r0
    1e80:	80000000 	andhi	r0, r0, r0
    1e84:	01000000 	mrseq	r0, (UNDEF: 0)
    1e88:	00805100 	addeq	r5, r0, r0, lsl #2
    1e8c:	008c0000 	addeq	r0, ip, r0
    1e90:	00040000 	andeq	r0, r4, r0
    1e94:	9f5101f3 	svcls	0x005101f3
    1e98:	0000008c 	andeq	r0, r0, ip, lsl #1
    1e9c:	000000a8 	andeq	r0, r0, r8, lsr #1
    1ea0:	a8510001 	ldmdage	r1, {r0}^
    1ea4:	cc000000 	stcgt	0, cr0, [r0], {-0}
    1ea8:	04000000 	streq	r0, [r0], #-0
    1eac:	5101f300 	mrspl	pc, SP_irq	; <UNPREDICTABLE>
    1eb0:	0000009f 	muleq	r0, pc, r0	; <UNPREDICTABLE>
    1eb4:	00000000 	andeq	r0, r0, r0
    1eb8:	00000100 	andeq	r0, r0, r0, lsl #2
	...
    1ec4:	38000000 	stmdacc	r0, {}	; <UNPREDICTABLE>
    1ec8:	60000000 	andvs	r0, r0, r0
    1ecc:	01000000 	mrseq	r0, (UNDEF: 0)
    1ed0:	00605000 	rsbeq	r5, r0, r0
    1ed4:	006c0000 	rsbeq	r0, ip, r0
    1ed8:	00050000 	andeq	r0, r5, r0
    1edc:	00aa3803 	adceq	r3, sl, r3, lsl #16
    1ee0:	00006c00 	andeq	r6, r0, r0, lsl #24
    1ee4:	00008400 	andeq	r8, r0, r0, lsl #8
    1ee8:	50000100 	andpl	r0, r0, r0, lsl #2
    1eec:	00000084 	andeq	r0, r0, r4, lsl #1
    1ef0:	0000008c 	andeq	r0, r0, ip, lsl #1
    1ef4:	01f30004 	mvnseq	r0, r4
    1ef8:	008c9f50 	addeq	r9, ip, r0, asr pc
    1efc:	00ac0000 	adceq	r0, ip, r0
    1f00:	00010000 	andeq	r0, r1, r0
    1f04:	0000ac50 	andeq	sl, r0, r0, asr ip
    1f08:	0000af00 	andeq	sl, r0, r0, lsl #30
    1f0c:	91000200 	mrsls	r0, R8_usr
    1f10:	0000af68 	andeq	sl, r0, r8, ror #30
    1f14:	0000cc00 	andeq	ip, r0, r0, lsl #24
    1f18:	f3000400 	vshl.u8	d0, d0, d0
    1f1c:	009f5001 	addseq	r5, pc, r1
	...
    1f2c:	0b000000 	bleq	1f34 <__code_start__-0x60cc>
    1f30:	01000000 	mrseq	r0, (UNDEF: 0)
    1f34:	000b5000 	andeq	r5, fp, r0
    1f38:	00140000 	andseq	r0, r4, r0
    1f3c:	00010000 	andeq	r0, r1, r0
    1f40:	00000054 	andeq	r0, r0, r4, asr r0
	...
    1f50:	00001c00 	andeq	r1, r0, r0, lsl #24
    1f54:	51000100 	mrspl	r0, (UNDEF: 16)
    1f58:	0000001c 	andeq	r0, r0, ip, lsl r0
    1f5c:	00000034 	andeq	r0, r0, r4, lsr r0
    1f60:	01f30004 	mvnseq	r0, r4
    1f64:	00009f51 	andeq	r9, r0, r1, asr pc
    1f68:	00000000 	andeq	r0, r0, r0
    1f6c:	00020000 	andeq	r0, r2, r0
    1f70:	01000000 	mrseq	r0, (UNDEF: 0)
    1f74:	00000001 	andeq	r0, r0, r1
    1f78:	00000000 	andeq	r0, r0, r0
    1f7c:	00000004 	andeq	r0, r0, r4
    1f80:	04500001 	ldrbeq	r0, [r0], #-1
    1f84:	1c000000 	stcne	0, cr0, [r0], {-0}
    1f88:	01000000 	mrseq	r0, (UNDEF: 0)
    1f8c:	001c5200 	andseq	r5, ip, r0, lsl #4
    1f90:	00240000 	eoreq	r0, r4, r0
    1f94:	00010000 	andeq	r0, r1, r0
    1f98:	00002453 	andeq	r2, r0, r3, asr r4
    1f9c:	00002800 	andeq	r2, r0, r0, lsl #16
    1fa0:	73000300 	movwvc	r0, #768	; 0x300
    1fa4:	00289f01 	eoreq	r9, r8, r1, lsl #30
    1fa8:	00340000 	eorseq	r0, r4, r0
    1fac:	00010000 	andeq	r0, r1, r0
    1fb0:	00000053 	andeq	r0, r0, r3, asr r0
    1fb4:	00000000 	andeq	r0, r0, r0
    1fb8:	00000300 	andeq	r0, r0, r0, lsl #6
    1fbc:	00000000 	andeq	r0, r0, r0
    1fc0:	00002400 	andeq	r2, r0, r0, lsl #8
    1fc4:	51000100 	mrspl	r0, (UNDEF: 16)
    1fc8:	00000024 	andeq	r0, r0, r4, lsr #32
    1fcc:	00000034 	andeq	r0, r0, r4, lsr r0
    1fd0:	7f710003 	svcvc	0x00710003
    1fd4:	0000009f 	muleq	r0, pc, r0	; <UNPREDICTABLE>
	...
    1fe0:	00001000 	andeq	r1, r0, r0
    1fe4:	00001c00 	andeq	r1, r0, r0, lsl #24
    1fe8:	5c000100 	stfpls	f0, [r0], {-0}
    1fec:	00000024 	andeq	r0, r0, r4, lsr #32
    1ff0:	00000034 	andeq	r0, r0, r4, lsr r0
    1ff4:	00520001 	subseq	r0, r2, r1
	...
    2004:	18000000 	stmdane	r0, {}	; <UNPREDICTABLE>
    2008:	01000000 	mrseq	r0, (UNDEF: 0)
    200c:	00185000 	andseq	r5, r8, r0
    2010:	00240000 	eoreq	r0, r4, r0
    2014:	00010000 	andeq	r0, r1, r0
    2018:	00000050 	andeq	r0, r0, r0, asr r0
	...
    2028:	00001c00 	andeq	r1, r0, r0, lsl #24
    202c:	51000100 	mrspl	r0, (UNDEF: 16)
    2030:	0000001c 	andeq	r0, r0, ip, lsl r0
    2034:	0000002c 	andeq	r0, r0, ip, lsr #32
    2038:	00510001 	subseq	r0, r1, r1
	...
    204c:	00000400 	andeq	r0, r0, r0, lsl #8
    2050:	51000100 	mrspl	r0, (UNDEF: 16)
    2054:	00000004 	andeq	r0, r0, r4
    2058:	0000000c 	andeq	r0, r0, ip
    205c:	0c510001 	mrrceq	0, 0, r0, r1, cr1
    2060:	20000000 	andcs	r0, r0, r0
    2064:	03000000 	movweq	r0, #0
    2068:	9f7f7100 	svcls	0x007f7100
	...
    2074:	00000002 	andeq	r0, r0, r2
    2078:	00000000 	andeq	r0, r0, r0
    207c:	00040000 	andeq	r0, r4, r0
    2080:	00010000 	andeq	r0, r1, r0
    2084:	00000450 	andeq	r0, r0, r0, asr r4
    2088:	00001400 	andeq	r1, r0, r0, lsl #8
    208c:	5c000100 	stfpls	f0, [r0], {-0}
    2090:	00000014 	andeq	r0, r0, r4, lsl r0
    2094:	00000020 	andeq	r0, r0, r0, lsr #32
    2098:	7f7c0003 	svcvc	0x007c0003
    209c:	0000009f 	muleq	r0, pc, r0	; <UNPREDICTABLE>
    20a0:	00000000 	andeq	r0, r0, r0
    20a4:	03030000 	movweq	r0, #12288	; 0x3000
    20a8:	009ee000 	addseq	lr, lr, r0
    20ac:	009ee000 	addseq	lr, lr, r0
    20b0:	50000100 	andpl	r0, r0, r0, lsl #2
    20b4:	00009ee0 	andeq	r9, r0, r0, ror #29
    20b8:	00009f0c 	andeq	r9, r0, ip, lsl #30
    20bc:	01f30004 	mvnseq	r0, r4
    20c0:	00009f50 	andeq	r9, r0, r0, asr pc
    20c4:	00000000 	andeq	r0, r0, r0
    20c8:	03000000 	movweq	r0, #0
    20cc:	9ee00003 	cdpls	0, 14, cr0, cr0, cr3, {0}
    20d0:	9ee00000 	cdpls	0, 14, cr0, cr0, cr0, {0}
    20d4:	00010000 	andeq	r0, r1, r0
    20d8:	009ee051 	addseq	lr, lr, r1, asr r0
    20dc:	009f0c00 	addseq	r0, pc, r0, lsl #24
    20e0:	f3000400 	vshl.u8	d0, d0, d0
    20e4:	009f5101 	addseq	r5, pc, r1, lsl #2
	...
    20f0:	00000303 	andeq	r0, r0, r3, lsl #6
    20f4:	009ee000 	addseq	lr, lr, r0
    20f8:	009ee000 	addseq	lr, lr, r0
    20fc:	52000100 	andpl	r0, r0, #0
    2100:	00009ee0 	andeq	r9, r0, r0, ror #29
    2104:	00009ee8 	andeq	r9, r0, r8, ror #29
    2108:	e8520001 	ldmda	r2, {r0}^
    210c:	0c00009e 	stceq	0, cr0, [r0], {158}	; 0x9e
    2110:	0300009f 	movweq	r0, #159	; 0x9f
    2114:	9f017200 	svcls	0x00017200
	...
    2120:	00010102 	andeq	r0, r1, r2, lsl #2
    2124:	00000000 	andeq	r0, r0, r0
    2128:	00009ee0 	andeq	r9, r0, r0, ror #29
    212c:	00009eec 	andeq	r9, r0, ip, ror #29
    2130:	ec500001 	mrrc	0, 0, r0, r0, cr1	; <UNPREDICTABLE>
    2134:	f000009e 			; <UNDEFINED> instruction: 0xf000009e
    2138:	0300009e 	movweq	r0, #158	; 0x9e
    213c:	9f017000 	svcls	0x00017000
    2140:	00009ef0 	strdeq	r9, [r0], -r0
    2144:	00009f00 	andeq	r9, r0, r0, lsl #30
    2148:	04500001 	ldrbeq	r0, [r0], #-1
    214c:	0800009f 	stmdaeq	r0, {r0, r1, r2, r3, r4, r7}
    2150:	0100009f 	swpeq	r0, pc, [r0]	; <UNPREDICTABLE>
    2154:	00005000 	andeq	r5, r0, r0
    2158:	00000000 	andeq	r0, r0, r0
    215c:	00020000 	andeq	r0, r2, r0
    2160:	00000000 	andeq	r0, r0, r0
    2164:	00009ee0 	andeq	r9, r0, r0, ror #29
    2168:	00009ef0 	strdeq	r9, [r0], -r0
    216c:	f0510001 			; <UNDEFINED> instruction: 0xf0510001
    2170:	f400009e 	vst4.32	{d0-d3}, [r0 :64], lr
    2174:	0300009e 	movweq	r0, #158	; 0x9e
    2178:	9f017100 	svcls	0x00017100
    217c:	00009ef4 	strdeq	r9, [r0], -r4
    2180:	00009f0c 	andeq	r9, r0, ip, lsl #30
    2184:	00510001 	subseq	r0, r1, r1
	...
    2194:	e8000000 	stmda	r0, {}	; <UNPREDICTABLE>
    2198:	00000000 	andeq	r0, r0, r0
    219c:	01000001 	tsteq	r0, r1
    21a0:	01005000 	mrseq	r5, (UNDEF: 0)
    21a4:	01100000 	tsteq	r0, r0
    21a8:	00040000 	andeq	r0, r4, r0
    21ac:	9f5001f3 	svcls	0x005001f3
    21b0:	00000110 	andeq	r0, r0, r0, lsl r1
    21b4:	00000114 	andeq	r0, r0, r4, lsl r1
    21b8:	14500001 	ldrbne	r0, [r0], #-1
    21bc:	1c000001 	stcne	0, cr0, [r0], {1}
    21c0:	04000001 	streq	r0, [r0], #-1
    21c4:	5001f300 	andpl	pc, r1, r0, lsl #6
    21c8:	0000009f 	muleq	r0, pc, r0	; <UNPREDICTABLE>
    21cc:	00000000 	andeq	r0, r0, r0
    21d0:	00000100 	andeq	r0, r0, r0, lsl #2
    21d4:	f4000000 	vst4.8	{d0-d3}, [r0], r0
    21d8:	00000000 	andeq	r0, r0, r0
    21dc:	0b000001 	bleq	21e8 <__code_start__-0x5e18>
    21e0:	35007000 	strcc	r7, [r0, #-0]
    21e4:	80b42325 	adcshi	r2, r4, r5, lsr #6
    21e8:	9f028180 	svcls	0x00028180
    21ec:	00000100 	andeq	r0, r0, r0, lsl #2
    21f0:	00000103 	andeq	r0, r0, r3, lsl #2
    21f4:	03500001 	cmpeq	r0, #1, 0
    21f8:	10000001 	andne	r0, r0, r1
    21fc:	0c000001 	stceq	0, cr0, [r0], {1}
    2200:	5001f300 	andpl	pc, r1, r0, lsl #6
    2204:	b4232535 	strtlt	r2, [r3], #-1333	; 0xfffffacb
    2208:	02818080 	addeq	r8, r1, #128, 0	; 0x80
    220c:	0000009f 	muleq	r0, pc, r0	; <UNPREDICTABLE>
    2210:	00000000 	andeq	r0, r0, r0
    2214:	f8000000 			; <UNDEFINED> instruction: 0xf8000000
    2218:	10000000 	andne	r0, r0, r0
    221c:	01000001 	tsteq	r0, r1
    2220:	00005400 	andeq	r5, r0, r0, lsl #8
	...
    2230:	00cc0000 	sbceq	r0, ip, r0
    2234:	00db0000 	sbcseq	r0, fp, r0
    2238:	00010000 	andeq	r0, r1, r0
    223c:	0000db50 	andeq	sp, r0, r0, asr fp
    2240:	0000e000 	andeq	lr, r0, r0
    2244:	f3000400 	vshl.u8	d0, d0, d0
    2248:	e09f5001 	adds	r5, pc, r1
    224c:	e3000000 	movw	r0, #0
    2250:	01000000 	mrseq	r0, (UNDEF: 0)
    2254:	00e35000 	rsceq	r5, r3, r0
    2258:	00e80000 	rsceq	r0, r8, r0
    225c:	00040000 	andeq	r0, r4, r0
    2260:	9f5001f3 	svcls	0x005001f3
	...
    2274:	000000cc 	andeq	r0, r0, ip, asr #1
    2278:	000000db 	ldrdeq	r0, [r0], -fp
    227c:	db510001 	blle	1442288 <__bss_end__+0x1437418>
    2280:	e0000000 	and	r0, r0, r0
    2284:	04000000 	streq	r0, [r0], #-0
    2288:	5101f300 	mrspl	pc, SP_irq	; <UNPREDICTABLE>
    228c:	0000e09f 	muleq	r0, pc, r0	; <UNPREDICTABLE>
    2290:	0000e300 	andeq	lr, r0, r0, lsl #6
    2294:	51000100 	mrspl	r0, (UNDEF: 16)
    2298:	000000e3 	andeq	r0, r0, r3, ror #1
    229c:	000000e8 	andeq	r0, r0, r8, ror #1
    22a0:	01f30004 	mvnseq	r0, r4
    22a4:	00009f51 	andeq	r9, r0, r1, asr pc
	...
    22b0:	00bc0000 	adcseq	r0, ip, r0
    22b4:	00c70000 	sbceq	r0, r7, r0
    22b8:	00010000 	andeq	r0, r1, r0
    22bc:	0000c750 	andeq	ip, r0, r0, asr r7
    22c0:	0000cc00 	andeq	ip, r0, r0, lsl #24
    22c4:	f3000400 	vshl.u8	d0, d0, d0
    22c8:	009f5001 	addseq	r5, pc, r1
	...
    22d4:	98000000 	stmdals	r0, {}	; <UNPREDICTABLE>
    22d8:	b0000000 	andlt	r0, r0, r0
    22dc:	01000000 	mrseq	r0, (UNDEF: 0)
    22e0:	00b05000 	adcseq	r5, r0, r0
    22e4:	00bc0000 	adcseq	r0, ip, r0
    22e8:	00040000 	andeq	r0, r4, r0
    22ec:	9f5001f3 	svcls	0x005001f3
	...
    22fc:	00000074 	andeq	r0, r0, r4, ror r0
    2300:	0000008c 	andeq	r0, r0, ip, lsl #1
    2304:	8c500001 	mrrchi	0, 0, r0, r0, cr1	; <UNPREDICTABLE>
    2308:	98000000 	stmdals	r0, {}	; <UNPREDICTABLE>
    230c:	04000000 	streq	r0, [r0], #-0
    2310:	5001f300 	andpl	pc, r1, r0, lsl #6
    2314:	0000009f 	muleq	r0, pc, r0	; <UNPREDICTABLE>
	...
    2320:	00006400 	andeq	r6, r0, r0, lsl #8
    2324:	00006f00 	andeq	r6, r0, r0, lsl #30
    2328:	50000100 	andpl	r0, r0, r0, lsl #2
    232c:	0000006f 	andeq	r0, r0, pc, rrx
    2330:	00000074 	andeq	r0, r0, r4, ror r0
    2334:	01f30004 	mvnseq	r0, r4
    2338:	00009f50 	andeq	r9, r0, r0, asr pc
	...
    2348:	00380000 	eorseq	r0, r8, r0
    234c:	00010000 	andeq	r0, r1, r0
    2350:	00003850 	andeq	r3, r0, r0, asr r8
    2354:	00006400 	andeq	r6, r0, r0, lsl #8
    2358:	f3000400 	vshl.u8	d0, d0, d0
    235c:	009f5001 	addseq	r5, pc, r1
	...
    236c:	47000000 	strmi	r0, [r0, -r0]
    2370:	01000000 	mrseq	r0, (UNDEF: 0)
    2374:	00475100 	subeq	r5, r7, r0, lsl #2
    2378:	00640000 	rsbeq	r0, r4, r0
    237c:	00040000 	andeq	r0, r4, r0
    2380:	9f5101f3 	svcls	0x005101f3
	...
    238c:	00340000 	eorseq	r0, r4, r0
    2390:	00640000 	rsbeq	r0, r4, r0
    2394:	00010000 	andeq	r0, r1, r0
    2398:	00000054 	andeq	r0, r0, r4, asr r0
    239c:	00000000 	andeq	r0, r0, r0
    23a0:	40000000 	andmi	r0, r0, r0
    23a4:	64000000 	strvs	r0, [r0], #-0
    23a8:	01000000 	mrseq	r0, (UNDEF: 0)
    23ac:	00005600 	andeq	r5, r0, r0, lsl #12
	...
    23b8:	00010100 	andeq	r0, r1, r0, lsl #2
    23bc:	00480000 	subeq	r0, r8, r0
    23c0:	00500000 	subseq	r0, r0, r0
    23c4:	00010000 	andeq	r0, r1, r0
    23c8:	00005050 	andeq	r5, r0, r0, asr r0
    23cc:	00005000 	andeq	r5, r0, r0
    23d0:	51000100 	mrspl	r0, (UNDEF: 16)
    23d4:	00000050 	andeq	r0, r0, r0, asr r0
    23d8:	00000054 	andeq	r0, r0, r4, asr r0
    23dc:	00750009 	rsbseq	r0, r5, r9
    23e0:	71240074 			; <UNDEFINED> instruction: 0x71240074
    23e4:	549f2100 	ldrpl	r2, [pc], #256	; 23ec <__code_start__-0x5c14>
    23e8:	5b000000 	blpl	23f0 <__code_start__-0x5c10>
    23ec:	01000000 	mrseq	r0, (UNDEF: 0)
    23f0:	00005100 	andeq	r5, r0, r0, lsl #2
    23f4:	00000000 	andeq	r0, r0, r0
	...

Disassembly of section .debug_aranges:

00000000 <.debug_aranges>:
   0:	0000001c 	andeq	r0, r0, ip, lsl r0
   4:	00000002 	andeq	r0, r0, r2
   8:	00040000 	andeq	r0, r4, r0
   c:	00000000 	andeq	r0, r0, r0
  10:	00008038 	andeq	r8, r0, r8, lsr r0
  14:	000000f8 	strdeq	r0, [r0], -r8
	...
  20:	0000001c 	andeq	r0, r0, ip, lsl r0
  24:	04b00002 	ldrteq	r0, [r0], #2
  28:	00040000 	andeq	r0, r4, r0
  2c:	00000000 	andeq	r0, r0, r0
  30:	00008130 	andeq	r8, r0, r0, lsr r1
  34:	0000052c 	andeq	r0, r0, ip, lsr #10
	...
  40:	0000001c 	andeq	r0, r0, ip, lsl r0
  44:	109b0002 	addsne	r0, fp, r2
  48:	00040000 	andeq	r0, r4, r0
  4c:	00000000 	andeq	r0, r0, r0
  50:	0000865c 	andeq	r8, r0, ip, asr r6
  54:	000005f4 	strdeq	r0, [r0], -r4
	...
  60:	0000001c 	andeq	r0, r0, ip, lsl r0
  64:	1d000002 	stcne	0, cr0, [r0, #-8]
  68:	00040000 	andeq	r0, r4, r0
  6c:	00000000 	andeq	r0, r0, r0
  70:	00008c94 	muleq	r0, r4, ip
  74:	000001ac 	andeq	r0, r0, ip, lsr #3
	...
  80:	0000001c 	andeq	r0, r0, ip, lsl r0
  84:	1fde0002 	svcne	0x00de0002
  88:	00040000 	andeq	r0, r4, r0
  8c:	00000000 	andeq	r0, r0, r0
  90:	00008e40 	andeq	r8, r0, r0, asr #28
  94:	00000034 	andeq	r0, r0, r4, lsr r0
	...
  a0:	0000001c 	andeq	r0, r0, ip, lsl r0
  a4:	21650002 	cmncs	r5, r2
  a8:	00040000 	andeq	r0, r4, r0
  ac:	00000000 	andeq	r0, r0, r0
  b0:	00008e74 	andeq	r8, r0, r4, ror lr
  b4:	00000060 	andeq	r0, r0, r0, rrx
	...
  c0:	0000001c 	andeq	r0, r0, ip, lsl r0
  c4:	23630002 	cmncs	r3, #2, 0
  c8:	00040000 	andeq	r0, r4, r0
  cc:	00000000 	andeq	r0, r0, r0
  d0:	00008ed4 	ldrdeq	r8, [r0], -r4
  d4:	00000018 	andeq	r0, r0, r8, lsl r0
	...
  e0:	0000001c 	andeq	r0, r0, ip, lsl r0
  e4:	24a10002 	strtcs	r0, [r1], #2
  e8:	00040000 	andeq	r0, r4, r0
  ec:	00000000 	andeq	r0, r0, r0
  f0:	00008eec 	andeq	r8, r0, ip, ror #29
  f4:	00000058 	andeq	r0, r0, r8, asr r0
	...
 100:	0000001c 	andeq	r0, r0, ip, lsl r0
 104:	26420002 	strbcs	r0, [r2], -r2
 108:	00040000 	andeq	r0, r4, r0
 10c:	00000000 	andeq	r0, r0, r0
 110:	00008f44 	andeq	r8, r0, r4, asr #30
 114:	00000034 	andeq	r0, r0, r4, lsr r0
	...
 120:	0000001c 	andeq	r0, r0, ip, lsl r0
 124:	27390002 	ldrcs	r0, [r9, -r2]!
 128:	00040000 	andeq	r0, r4, r0
 12c:	00000000 	andeq	r0, r0, r0
 130:	00008f78 	andeq	r8, r0, r8, ror pc
 134:	0000005c 	andeq	r0, r0, ip, asr r0
	...
 140:	0000001c 	andeq	r0, r0, ip, lsl r0
 144:	287f0002 	ldmdacs	pc!, {r1}^	; <UNPREDICTABLE>
 148:	00040000 	andeq	r0, r4, r0
 14c:	00000000 	andeq	r0, r0, r0
 150:	00008fd4 	ldrdeq	r8, [r0], -r4
 154:	00000740 	andeq	r0, r0, r0, asr #14
	...
 160:	0000001c 	andeq	r0, r0, ip, lsl r0
 164:	335a0002 	cmpcc	sl, #2, 0
 168:	00040000 	andeq	r0, r4, r0
 16c:	00000000 	andeq	r0, r0, r0
 170:	00009714 	andeq	r9, r0, r4, lsl r7
 174:	0000002c 	andeq	r0, r0, ip, lsr #32
	...
 180:	0000001c 	andeq	r0, r0, ip, lsl r0
 184:	348d0002 	strcc	r0, [sp], #2
 188:	00040000 	andeq	r0, r4, r0
 18c:	00000000 	andeq	r0, r0, r0
 190:	00009740 	andeq	r9, r0, r0, asr #14
 194:	0000003c 	andeq	r0, r0, ip, lsr r0
	...
 1a0:	0000001c 	andeq	r0, r0, ip, lsl r0
 1a4:	361a0002 	ldrcc	r0, [sl], -r2
 1a8:	00040000 	andeq	r0, r4, r0
 1ac:	00000000 	andeq	r0, r0, r0
 1b0:	0000977c 	andeq	r9, r0, ip, ror r7
 1b4:	00000004 	andeq	r0, r0, r4
	...
 1c0:	0000001c 	andeq	r0, r0, ip, lsl r0
 1c4:	36ec0002 	strbtcc	r0, [ip], r2
 1c8:	00040000 	andeq	r0, r4, r0
 1cc:	00000000 	andeq	r0, r0, r0
 1d0:	00009780 	andeq	r9, r0, r0, lsl #15
 1d4:	00000080 	andeq	r0, r0, r0, lsl #1
	...
 1e0:	0000001c 	andeq	r0, r0, ip, lsl r0
 1e4:	39260002 	stmdbcc	r6!, {r1}
 1e8:	00040000 	andeq	r0, r4, r0
 1ec:	00000000 	andeq	r0, r0, r0
 1f0:	00009800 	andeq	r9, r0, r0, lsl #16
 1f4:	00000084 	andeq	r0, r0, r4, lsl #1
	...
 200:	0000001c 	andeq	r0, r0, ip, lsl r0
 204:	3b770002 	blcc	1dc0214 <__bss_end__+0x1db53a4>
 208:	00040000 	andeq	r0, r4, r0
 20c:	00000000 	andeq	r0, r0, r0
 210:	00009884 	andeq	r9, r0, r4, lsl #17
 214:	000001f0 	strdeq	r0, [r0], -r0	; <UNPREDICTABLE>
	...
 220:	0000001c 	andeq	r0, r0, ip, lsl r0
 224:	41480002 	cmpmi	r8, r2
 228:	00040000 	andeq	r0, r4, r0
 22c:	00000000 	andeq	r0, r0, r0
 230:	00009a74 	andeq	r9, r0, r4, ror sl
 234:	000003b0 			; <UNDEFINED> instruction: 0x000003b0
	...
 240:	0000001c 	andeq	r0, r0, ip, lsl r0
 244:	4a350002 	bmi	d40254 <__bss_end__+0xd353e4>
 248:	00040000 	andeq	r0, r4, r0
 24c:	00000000 	andeq	r0, r0, r0
 250:	00009e24 	andeq	r9, r0, r4, lsr #28
 254:	0000003c 	andeq	r0, r0, ip, lsr r0
	...
 260:	0000001c 	andeq	r0, r0, ip, lsl r0
 264:	4b820002 	blmi	fe080274 <__bss_end__+0xfe075404>
 268:	00040000 	andeq	r0, r4, r0
 26c:	00000000 	andeq	r0, r0, r0
 270:	00009e60 	andeq	r9, r0, r0, ror #28
 274:	00000034 	andeq	r0, r0, r4, lsr r0
	...
 280:	0000001c 	andeq	r0, r0, ip, lsl r0
 284:	4cbd0002 	ldcmi	0, cr0, [sp], #8
 288:	00040000 	andeq	r0, r4, r0
 28c:	00000000 	andeq	r0, r0, r0
 290:	00009e94 	muleq	r0, r4, lr
 294:	0000002c 	andeq	r0, r0, ip, lsr #32
	...
 2a0:	0000001c 	andeq	r0, r0, ip, lsl r0
 2a4:	4db80002 	ldcmi	0, cr0, [r8, #8]!
 2a8:	00040000 	andeq	r0, r4, r0
 2ac:	00000000 	andeq	r0, r0, r0
 2b0:	00009ec0 	andeq	r9, r0, r0, asr #29
 2b4:	00000020 	andeq	r0, r0, r0, lsr #32
	...
 2c0:	0000001c 	andeq	r0, r0, ip, lsl r0
 2c4:	4ecb0002 	cdpmi	0, 12, cr0, cr11, cr2, {0}
 2c8:	00040000 	andeq	r0, r4, r0
 2cc:	00000000 	andeq	r0, r0, r0
 2d0:	00009ee0 	andeq	r9, r0, r0, ror #29
 2d4:	0000002c 	andeq	r0, r0, ip, lsr #32
	...
 2e0:	0000001c 	andeq	r0, r0, ip, lsl r0
 2e4:	501d0002 	andspl	r0, sp, r2
 2e8:	00040000 	andeq	r0, r4, r0
 2ec:	00000000 	andeq	r0, r0, r0
 2f0:	00009f0c 	andeq	r9, r0, ip, lsl #30
 2f4:	00000004 	andeq	r0, r0, r4
	...
 300:	0000001c 	andeq	r0, r0, ip, lsl r0
 304:	50ef0002 	rscpl	r0, pc, r2
 308:	00040000 	andeq	r0, r4, r0
 30c:	00000000 	andeq	r0, r0, r0
 310:	00009f28 	andeq	r9, r0, r8, lsr #30
 314:	0000011c 	andeq	r0, r0, ip, lsl r1
	...

Disassembly of section .debug_line:

00000000 <.debug_line>:
       0:	000001a3 	andeq	r0, r0, r3, lsr #3
       4:	01130003 	tsteq	r3, r3
       8:	01020000 	mrseq	r0, (UNDEF: 2)
       c:	000d0efb 	strdeq	r0, [sp], -fp
      10:	01010101 	tsteq	r1, r1, lsl #2
      14:	01000000 	mrseq	r0, (UNDEF: 0)
      18:	74010000 	strvc	r0, [r1], #-0
      1c:	73747365 	cmnvc	r4, #-1811939327	; 0x94000001
      20:	302e332d 	eorcc	r3, lr, sp, lsr #6
      24:	2f002e00 	svccs	0x00002e00
      28:	2f727375 	svccs	0x00727375
      2c:	61636f6c 	cmnvs	r3, ip, ror #30
      30:	65432f6c 	strbvs	r2, [r3, #-3948]	; 0xfffff094
      34:	72616c6c 	rsbvc	r6, r1, #108, 24	; 0x6c00
      38:	6d72612f 	ldfvse	f6, [r2, #-188]!	; 0xffffff44
      3c:	6e6f6e2d 	cdpvs	14, 6, cr6, cr15, cr13, {1}
      40:	61652d65 	cmnvs	r5, r5, ror #26
      44:	742d6962 	strtvc	r6, [sp], #-2402	; 0xfffff69e
      48:	2f747365 	svccs	0x00747365
      4c:	30322d39 	eorscc	r2, r2, r9, lsr sp
      50:	34713931 	ldrbtcc	r3, [r1], #-2353	; 0xfffff6cf
      54:	3173632d 	cmncc	r3, sp, lsr #6
      58:	2f653730 	svccs	0x00653730
      5c:	2f62696c 	svccs	0x0062696c
      60:	2f636367 	svccs	0x00636367
      64:	2d6d7261 	sfmcs	f7, 2, [sp, #-388]!	; 0xfffffe7c
      68:	656e6f6e 	strbvs	r6, [lr, #-3950]!	; 0xfffff092
      6c:	6261652d 	rsbvs	r6, r1, #188743680	; 0xb400000
      70:	2e392f69 	cdpcs	15, 3, cr2, cr9, cr9, {3}
      74:	2f312e32 	svccs	0x00312e32
      78:	6c636e69 	stclvs	14, cr6, [r3], #-420	; 0xfffffe5c
      7c:	00656475 	rsbeq	r6, r5, r5, ror r4
      80:	6573552f 	ldrbvs	r5, [r3, #-1327]!	; 0xfffffad1
      84:	742f7372 	strtvc	r7, [pc], #-882	; 8c <__code_start__-0x7f74>
      88:	74736972 	ldrbtvc	r6, [r3], #-2418	; 0xfffff68e
      8c:	6f6e6e65 	svcvs	0x006e6e65
      90:	616d6c6c 	cmnvs	sp, ip, ror #24
      94:	6f442f6e 	svcvs	0x00442f6e
      98:	656d7563 	strbvs	r7, [sp, #-1379]!	; 0xfffffa9d
      9c:	2f73746e 	svccs	0x0073746e
      a0:	69727053 	ldmdbvs	r2!, {r0, r1, r4, r6, ip, sp, lr}^
      a4:	515f676e 	cmppl	pc, lr, ror #14
      a8:	74726175 	ldrbtvc	r6, [r2], #-373	; 0xfffffe8b
      ac:	325f7265 	subscc	r7, pc, #1342177286	; 0x50000006
      b0:	2f323230 	svccs	0x00323230
      b4:	34325343 	ldrtcc	r5, [r2], #-835	; 0xfffffcbd
      b8:	2d584c30 	ldclcs	12, cr4, [r8, #-192]	; 0xffffff40
      bc:	32727073 	rsbscc	r7, r2, #115, 0	; 0x73
      c0:	696c2f32 	stmdbvs	ip!, {r1, r4, r5, r8, r9, sl, fp, sp}^
      c4:	2f697062 	svccs	0x00697062
      c8:	6c636e69 	stclvs	14, cr6, [r3], #-420	; 0xfffffe5c
      cc:	00656475 	rsbeq	r6, r5, r5, ror r4
      d0:	72617000 	rsbvc	r7, r1, #0, 0
      d4:	742d3174 	strtvc	r3, [sp], #-372	; 0xfffffe8c
      d8:	35747365 	ldrbcc	r7, [r4, #-869]!	; 0xfffffc9b
      dc:	2d6f6e2d 	stclcs	14, cr6, [pc, #-180]!	; 30 <__code_start__-0x7fd0>
      e0:	2e677562 	cdpcs	5, 6, cr7, cr7, cr2, {3}
      e4:	00010063 	andeq	r0, r1, r3, rrx
      e8:	63727300 	cmnvs	r2, #0, 6
      ec:	636f6c2d 	cmnvs	pc, #11520	; 0x2d00
      f0:	0200682e 	andeq	r6, r0, #3014656	; 0x2e0000
      f4:	74730000 	ldrbtvc	r0, [r3], #-0
      f8:	746e6964 	strbtvc	r6, [lr], #-2404	; 0xfffff69c
      fc:	6363672d 	cmnvs	r3, #11796480	; 0xb40000
     100:	0300682e 	movweq	r6, #2094	; 0x82e
     104:	70720000 	rsbsvc	r0, r2, r0
     108:	00682e69 	rsbeq	r2, r8, r9, ror #28
     10c:	63000004 	movwvs	r0, #4
     110:	6c6c616b 	stfvse	f6, [ip], #-428	; 0xfffffe54
     114:	682e636f 	stmdavs	lr!, {r0, r1, r2, r3, r5, r6, r8, r9, sp, lr}
     118:	00000200 	andeq	r0, r0, r0, lsl #4
     11c:	00140500 	andseq	r0, r4, r0, lsl #10
     120:	80380205 	eorshi	r0, r8, r5, lsl #4
     124:	05160000 	ldreq	r0, [r6, #-0]
     128:	054c4b05 	strbeq	r4, [ip, #-2821]	; 0xfffff4fb
     12c:	04010610 	streq	r0, [r1], #-1552	; 0xfffff9f0
     130:	060b0502 	streq	r0, [fp], -r2, lsl #10
     134:	13050532 	movwne	r0, #21810	; 0x5532
     138:	01060c05 	tsteq	r6, r5, lsl #24
     13c:	050104ba 	streq	r0, [r1, #-1210]	; 0xfffffb46
     140:	05050d10 	streq	r0, [r5, #-3344]	; 0xfffff2f0
     144:	1005bb06 	andne	fp, r5, r6, lsl #22
     148:	02040106 	andeq	r0, r4, #-2147483647	; 0x80000001
     14c:	31060b05 	tstcc	r6, r5, lsl #22
     150:	05130505 	ldreq	r0, [r3, #-1285]	; 0xfffffafb
     154:	8201060c 	andhi	r0, r1, #12, 12	; 0xc00000
     158:	10050104 	andne	r0, r5, r4, lsl #2
     15c:	0605050e 	streq	r0, [r5], -lr, lsl #10
     160:	050204bb 	streq	r0, [r2, #-1211]	; 0xfffffb45
     164:	0505140b 	streq	r1, [r5, #-1035]	; 0xfffffbf5
     168:	060c0513 			; <UNDEFINED> instruction: 0x060c0513
     16c:	01048201 	tsteq	r4, r1, lsl #4
     170:	660f0505 	strvs	r0, [pc], -r5, lsl #10
     174:	02042f06 	andeq	r2, r4, #6, 30
     178:	05130b05 	ldreq	r0, [r3, #-2821]	; 0xfffff4fb
     17c:	0c051305 	stceq	3, cr1, [r5], {5}
     180:	04820106 	streq	r0, [r2], #262	; 0x106
     184:	10050501 	andne	r0, r5, r1, lsl #10
     188:	08058406 	stmdaeq	r5, {r1, r2, sl, pc}
     18c:	07050106 	streq	r0, [r5, -r6, lsl #2]
     190:	0609052e 	streq	r0, [r9], -lr, lsr #10
     194:	4a01144b 	bmi	452c8 <__bss_end__+0x3a458>
     198:	13060105 	movwne	r0, #24837	; 0x6105
     19c:	47060905 	strmi	r0, [r6, -r5, lsl #18]
     1a0:	0c029e01 	stceq	14, cr9, [r2], {1}
     1a4:	21010100 	mrscs	r0, (UNDEF: 17)
     1a8:	03000005 	movweq	r0, #5
     1ac:	00010b00 	andeq	r0, r1, r0, lsl #22
     1b0:	fb010200 	blx	409ba <__bss_end__+0x35b4a>
     1b4:	01000d0e 	tsteq	r0, lr, lsl #26
     1b8:	00010101 	andeq	r0, r1, r1, lsl #2
     1bc:	00010000 	andeq	r0, r1, r0
     1c0:	752f0100 	strvc	r0, [pc, #-256]!	; c8 <__code_start__-0x7f38>
     1c4:	6c2f7273 	sfmvs	f7, 4, [pc], #-460	; 0 <__code_start__-0x8000>
     1c8:	6c61636f 	stclvs	3, cr6, [r1], #-444	; 0xfffffe44
     1cc:	6c65432f 	stclvs	3, cr4, [r5], #-188	; 0xffffff44
     1d0:	2f72616c 	svccs	0x0072616c
     1d4:	2d6d7261 	sfmcs	f7, 2, [sp, #-388]!	; 0xfffffe7c
     1d8:	656e6f6e 	strbvs	r6, [lr, #-3950]!	; 0xfffff092
     1dc:	6261652d 	rsbvs	r6, r1, #188743680	; 0xb400000
     1e0:	65742d69 	ldrbvs	r2, [r4, #-3433]!	; 0xfffff297
     1e4:	392f7473 	stmdbcc	pc!, {r0, r1, r4, r5, r6, sl, ip, sp, lr}	; <UNPREDICTABLE>
     1e8:	3130322d 	teqcc	r0, sp, lsr #4
     1ec:	2d347139 	ldfcss	f7, [r4, #-228]!	; 0xffffff1c
     1f0:	30317363 	eorscc	r7, r1, r3, ror #6
     1f4:	6c2f6537 	cfstr32vs	mvfx6, [pc], #-220	; 120 <__code_start__-0x7ee0>
     1f8:	672f6269 	strvs	r6, [pc, -r9, ror #4]!
     1fc:	612f6363 			; <UNDEFINED> instruction: 0x612f6363
     200:	6e2d6d72 	mcrvs	13, 1, r6, cr13, cr2, {3}
     204:	2d656e6f 	stclcs	14, cr6, [r5, #-444]!	; 0xfffffe44
     208:	69626165 	stmdbvs	r2!, {r0, r2, r5, r6, r8, sp, lr}^
     20c:	322e392f 	eorcc	r3, lr, #770048	; 0xbc000
     210:	692f312e 	stmdbvs	pc!, {r1, r2, r3, r5, r8, ip, sp}	; <UNPREDICTABLE>
     214:	756c636e 	strbvc	r6, [ip, #-878]!	; 0xfffffc92
     218:	2f006564 	svccs	0x00006564
     21c:	72657355 	rsbvc	r7, r5, #1409286145	; 0x54000001
     220:	72742f73 	rsbsvc	r2, r4, #460	; 0x1cc
     224:	65747369 	ldrbvs	r7, [r4, #-873]!	; 0xfffffc97
     228:	6c6f6e6e 	stclvs	14, cr6, [pc], #-440	; 78 <__code_start__-0x7f88>
     22c:	6e616d6c 	cdpvs	13, 6, cr6, cr1, cr12, {3}
     230:	636f442f 	cmnvs	pc, #788529152	; 0x2f000000
     234:	6e656d75 	mcrvs	13, 3, r6, cr5, cr5, {3}
     238:	532f7374 			; <UNDEFINED> instruction: 0x532f7374
     23c:	6e697270 	mcrvs	2, 3, r7, cr9, cr0, {3}
     240:	75515f67 	ldrbvc	r5, [r1, #-3943]	; 0xfffff099
     244:	65747261 	ldrbvs	r7, [r4, #-609]!	; 0xfffffd9f
     248:	30325f72 	eorscc	r5, r2, r2, ror pc
     24c:	432f3232 			; <UNDEFINED> instruction: 0x432f3232
     250:	30343253 	eorscc	r3, r4, r3, asr r2
     254:	732d584c 			; <UNDEFINED> instruction: 0x732d584c
     258:	32327270 	eorscc	r7, r2, #112, 4
     25c:	62696c2f 	rsbvs	r6, r9, #12032	; 0x2f00
     260:	692f6970 	stmdbvs	pc!, {r4, r5, r6, r8, fp, sp, lr}	; <UNPREDICTABLE>
     264:	756c636e 	strbvc	r6, [ip, #-878]!	; 0xfffffc92
     268:	00006564 	andeq	r6, r0, r4, ror #10
     26c:	6c616b63 			; <UNDEFINED> instruction: 0x6c616b63
     270:	2e636f6c 	cdpcs	15, 6, cr6, cr3, cr12, {3}
     274:	00000063 	andeq	r0, r0, r3, rrx
     278:	616b6300 	cmnvs	fp, r0, lsl #6
     27c:	636f6c6c 	cmnvs	pc, #108, 24	; 0x6c00
     280:	0000682e 	andeq	r6, r0, lr, lsr #16
     284:	74730000 	ldrbtvc	r0, [r3], #-0
     288:	746e6964 	strbtvc	r6, [lr], #-2404	; 0xfffff69c
     28c:	6363672d 	cmnvs	r3, #11796480	; 0xb40000
     290:	0100682e 	tsteq	r0, lr, lsr #16
     294:	70720000 	rsbsvc	r0, r2, r0
     298:	00682e69 	rsbeq	r2, r8, r9, ror #28
     29c:	73000002 	movwvc	r0, #2
     2a0:	6c2d6372 	stcvs	3, cr6, [sp], #-456	; 0xfffffe38
     2a4:	682e636f 	stmdavs	lr!, {r0, r1, r2, r3, r5, r6, r8, r9, sp, lr}
     2a8:	00000000 	andeq	r0, r0, r0
     2ac:	6d2d726b 	sfmvs	f7, 4, [sp, #-428]!	; 0xfffffe54
     2b0:	6f6c6c61 	svcvs	0x006c6c61
     2b4:	00682e63 	rsbeq	r2, r8, r3, ror #28
     2b8:	00000000 	andeq	r0, r0, r0
     2bc:	05002d05 	streq	r2, [r0, #-3333]	; 0xfffff2fb
     2c0:	00813002 	addeq	r3, r1, r2
     2c4:	011d0300 	tsteq	sp, r0, lsl #6
     2c8:	05130205 	ldreq	r0, [r3, #-517]	; 0xfffffdfb
     2cc:	05010610 	streq	r0, [r1, #-1552]	; 0xfffff9f0
     2d0:	03054a05 	movweq	r4, #23045	; 0x5a05
     2d4:	00015006 	andeq	r5, r1, r6
     2d8:	4a020402 	bmi	812e8 <__bss_end__+0x76478>
     2dc:	02040200 	andeq	r0, r4, #0, 4
     2e0:	04020001 	streq	r0, [r2], #-1
     2e4:	02001302 	andeq	r1, r0, #134217728	; 0x8000000
     2e8:	05130204 	ldreq	r0, [r3, #-516]	; 0xfffffdfc
     2ec:	0402000d 	streq	r0, [r2], #-13
     2f0:	05010602 	streq	r0, [r1, #-1538]	; 0xfffff9fe
     2f4:	04020003 	streq	r0, [r2], #-3
     2f8:	054b0602 	strbeq	r0, [fp, #-1538]	; 0xfffff9fe
     2fc:	04020013 	streq	r0, [r2], #-19	; 0xffffffed
     300:	05010602 	streq	r0, [r1, #-1538]	; 0xfffff9fe
     304:	04020003 	streq	r0, [r2], #-3
     308:	002f0602 	eoreq	r0, pc, r2, lsl #12
     30c:	06020402 	streq	r0, [r2], -r2, lsl #8
     310:	7803062e 	stmdavc	r3, {r1, r2, r3, r5, r9, sl}
     314:	060e0501 	streq	r0, [lr], -r1, lsl #10
     318:	06030501 	streq	r0, [r3], -r1, lsl #10
     31c:	060d054b 	streq	r0, [sp], -fp, asr #10
     320:	06030501 	streq	r0, [r3], -r1, lsl #10
     324:	002d052f 	eoreq	r0, sp, pc, lsr #10
     328:	06010402 	streq	r0, [r1], -r2, lsl #8
     32c:	00030529 	andeq	r0, r3, r9, lsr #10
     330:	06010402 	streq	r0, [r1], -r2, lsl #8
     334:	04020051 	streq	r0, [r2], #-81	; 0xffffffaf
     338:	02000101 	andeq	r0, r0, #1073741824	; 0x40000000
     33c:	9e060104 	adflss	f0, f6, f4
     340:	01040200 	mrseq	r0, R12_usr
     344:	0402002e 	streq	r0, [r2], #-46	; 0xffffffd2
     348:	052e0601 	streq	r0, [lr, #-1537]!	; 0xfffff9ff
     34c:	ba09031b 	blt	240fc0 <__bss_end__+0x236150>
     350:	05130505 	ldreq	r0, [r3, #-1285]	; 0xfffffafb
     354:	05130601 	ldreq	r0, [r3, #-1537]	; 0xfffff9ff
     358:	0585061e 	streq	r0, [r5, #1566]	; 0x61e
     35c:	07051305 	streq	r1, [r5, -r5, lsl #6]
     360:	052e0106 	streq	r0, [lr, #-262]!	; 0xfffffefa
     364:	052f0609 	streq	r0, [pc, #-1545]!	; fffffd63 <__bss_end__+0xffff4ef3>
     368:	05010611 	streq	r0, [r1, #-1553]	; 0xfffff9ef
     36c:	1e053001 	cdpne	0, 0, cr3, cr5, cr1, {0}
     370:	05053106 	streq	r3, [r5, #-262]	; 0xfffffefa
     374:	06010513 			; <UNDEFINED> instruction: 0x06010513
     378:	1c052e13 	stcne	14, cr2, [r5], {19}
     37c:	01063106 	tsteq	r6, r6, lsl #2
     380:	4b060505 	blmi	18179c <__bss_end__+0x17692c>
     384:	01061405 	tsteq	r6, r5, lsl #8
     388:	18050204 	stmdane	r5, {r2, r9}
     38c:	2e760306 	cdpcs	3, 7, cr0, cr6, cr6, {0}
     390:	05130505 	ldreq	r0, [r3, #-1285]	; 0xfffffafb
     394:	2e01060d 	cfmadd32cs	mvax0, mvfx0, mvfx1, mvfx13
     398:	01050104 	tsteq	r5, r4, lsl #2
     39c:	05010a03 	streq	r0, [r1, #-2563]	; 0xfffff5fd
     3a0:	054d062f 	strbeq	r0, [sp, #-1583]	; 0xfffff9d1
     3a4:	1a051302 	bne	144fb4 <__bss_end__+0x13a144>
     3a8:	29050106 	stmdbcs	r5, {r1, r2, r8}
     3ac:	4a05052e 	bmi	14186c <__bss_end__+0x1369fc>
     3b0:	02004805 	andeq	r4, r0, #327680	; 0x50000
     3b4:	054a0104 	strbeq	r0, [sl, #-260]	; 0xfffffefc
     3b8:	04020035 	streq	r0, [r2], #-53	; 0xffffffcb
     3bc:	09052e01 	stmdbeq	r5, {r0, r9, sl, fp, sp}
     3c0:	2e2e2e4d 	cdpcs	14, 2, cr2, cr14, cr13, {2}
     3c4:	052c0a05 	streq	r0, [ip, #-2565]!	; 0xfffff5fb
     3c8:	21053101 	tstcs	r5, r1, lsl #2
     3cc:	01063106 	tsteq	r6, r6, lsl #2
     3d0:	4b060205 	blmi	180bec <__bss_end__+0x175d7c>
     3d4:	05010605 	streq	r0, [r1, #-1541]	; 0xfffff9fb
     3d8:	2e010611 	mcrcs	6, 0, r0, cr1, cr1, {0}
     3dc:	02002105 	andeq	r2, r0, #1073741825	; 0x40000001
     3e0:	2e060104 	adfcss	f0, f6, f4
     3e4:	02000205 	andeq	r0, r0, #1342177280	; 0x50000000
     3e8:	01060104 	tsteq	r6, r4, lsl #2
     3ec:	4b060905 	blmi	182808 <__bss_end__+0x177998>
     3f0:	01060c05 	tsteq	r6, r5, lsl #24
     3f4:	2e0b054a 	cfsh32cs	mvfx0, mvfx11, #42
     3f8:	02002405 	andeq	r2, r0, #83886080	; 0x5000000
     3fc:	49060204 	stmdbmi	r6, {r2, r9}
     400:	02002805 	andeq	r2, r0, #327680	; 0x50000
     404:	01060204 	tsteq	r6, r4, lsl #4
     408:	02040200 	andeq	r0, r4, #0, 4
     40c:	060d0566 	streq	r0, [sp], -r6, ror #10
     410:	13820130 	orrne	r0, r2, #12
     414:	01050106 	tsteq	r5, r6, lsl #2
     418:	06250516 			; <UNDEFINED> instruction: 0x06250516
     41c:	05010668 	streq	r0, [r1, #-1640]	; 0xfffff998
     420:	054b0605 	strbeq	r0, [fp, #-1541]	; 0xfffff9fb
     424:	14050109 	strne	r0, [r5], #-265	; 0xfffffef7
     428:	052e0106 	streq	r0, [lr, #-262]!	; 0xfffffefa
     42c:	27052e05 	strcs	r2, [r5, -r5, lsl #28]
     430:	02040200 	andeq	r0, r4, #0, 4
     434:	2b052e06 	blcs	14bc54 <__bss_end__+0x140de4>
     438:	02040200 	andeq	r0, r4, #0, 4
     43c:	24050106 	strcs	r0, [r5], #-262	; 0xfffffefa
     440:	01040200 	mrseq	r0, R12_usr
     444:	05056606 	streq	r6, [r5, #-1542]	; 0xfffff9fa
     448:	01040200 	mrseq	r0, R12_usr
     44c:	09050106 	stmdbeq	r5, {r1, r2, r8}
     450:	0c054b06 			; <UNDEFINED> instruction: 0x0c054b06
     454:	054a0106 	strbeq	r0, [sl, #-262]	; 0xfffffefa
     458:	27052e0b 	strcs	r2, [r5, -fp, lsl #28]
     45c:	01040200 	mrseq	r0, R12_usr
     460:	0023054a 	eoreq	r0, r3, sl, asr #10
     464:	2e010402 	cdpcs	4, 0, cr0, cr1, cr2, {0}
     468:	4b060d05 	blmi	183884 <__bss_end__+0x178a14>
     46c:	06138201 	ldreq	r8, [r3], -r1, lsl #4
     470:	16010501 	strne	r0, [r1], -r1, lsl #10
     474:	69063705 	stmdbvs	r6, {r0, r2, r8, r9, sl, ip, sp}
     478:	02050106 	andeq	r0, r5, #-2147483647	; 0x80000001
     47c:	02046706 	andeq	r6, r4, #1572864	; 0x180000
     480:	62031805 	andvs	r1, r3, #327680	; 0x50000
     484:	13050501 	movwne	r0, #21761	; 0x5501
     488:	01060c05 	tsteq	r6, r5, lsl #24
     48c:	01042e2e 	tsteq	r4, lr, lsr #28
     490:	03060205 	movweq	r0, #25093	; 0x6205
     494:	1005011e 	andne	r0, r5, lr, lsl r1
     498:	05660106 	strbeq	r0, [r6, #-262]!	; 0xfffffefa
     49c:	054b0602 	strbeq	r0, [fp, #-1538]	; 0xfffff9fe
     4a0:	66010610 			; <UNDEFINED> instruction: 0x66010610
     4a4:	31060205 	tstcc	r6, r5, lsl #4
     4a8:	01062205 	tsteq	r6, r5, lsl #4
     4ac:	2e2f0105 	sufcse	f0, f7, f5
     4b0:	4d061e05 	stcmi	14, cr1, [r6, #-20]	; 0xffffffec
     4b4:	05150205 	ldreq	r0, [r5, #-517]	; 0xfffffdfb
     4b8:	05010607 	streq	r0, [r1, #-1543]	; 0xfffff9f9
     4bc:	10052e05 	andne	r2, r5, r5, lsl #28
     4c0:	0017054e 	andseq	r0, r7, lr, asr #10
     4c4:	06010402 	streq	r0, [r1], -r2, lsl #8
     4c8:	001c052e 	andseq	r0, ip, lr, lsr #10
     4cc:	06010402 	streq	r0, [r1], -r2, lsl #8
     4d0:	00020501 	andeq	r0, r2, r1, lsl #10
     4d4:	2e010402 	cdpcs	4, 0, cr0, cr1, cr2, {0}
     4d8:	4b060305 	blmi	1810f4 <__bss_end__+0x176284>
     4dc:	01060b05 	tsteq	r6, r5, lsl #22
     4e0:	054a0605 	strbeq	r0, [sl, #-1541]	; 0xfffff9fb
     4e4:	0402002c 	streq	r0, [r2], #-44	; 0xffffffd4
     4e8:	05490602 	strbeq	r0, [r9, #-1538]	; 0xfffff9fe
     4ec:	0402002d 	streq	r0, [r2], #-45	; 0xffffffd3
     4f0:	00010602 	andeq	r0, r1, r2, lsl #12
     4f4:	2e020402 	cdpcs	4, 0, cr0, cr2, cr2, {0}
     4f8:	02040200 	andeq	r0, r4, #0, 4
     4fc:	1709052e 	strne	r0, [r9, -lr, lsr #10]
     500:	0a052e2e 	beq	14bdc0 <__bss_end__+0x140f50>
     504:	2e017803 	cdpcs	8, 0, cr7, cr1, cr3, {0}
     508:	2e330b05 	vaddcs.f64	d0, d3, d5
     50c:	05160105 	ldreq	r0, [r6, #-261]	; 0xfffffefb
     510:	0530061a 	ldreq	r0, [r0, #-1562]!	; 0xfffff9e6
     514:	4a014b02 	bmi	53124 <__bss_end__+0x482b4>
     518:	06100513 			; <UNDEFINED> instruction: 0x06100513
     51c:	06020501 	streq	r0, [r2], -r1, lsl #10
     520:	1905134b 	stmdbne	r5, {r0, r1, r3, r6, r8, r9, ip}
     524:	05660106 	strbeq	r0, [r6, #-262]!	; 0xfffffefa
     528:	134b0602 	movtne	r0, #46594	; 0xb602
     52c:	11060b05 	tstne	r6, r5, lsl #22
     530:	052f0805 	streq	r0, [pc, #-2053]!	; fffffd33 <__bss_end__+0xffff4ec3>
     534:	01300604 	teqeq	r0, r4, lsl #12
     538:	0805144a 	stmdaeq	r5, {r1, r3, r6, sl, ip}
     53c:	052e0106 	streq	r0, [lr, #-262]!	; 0xfffffefa
     540:	01310604 	teqeq	r1, r4, lsl #12
     544:	0805134a 	stmdaeq	r5, {r1, r3, r6, r8, r9, ip}
     548:	03050106 	movweq	r0, #20742	; 0x5106
     54c:	0a053006 	beq	14c56c <__bss_end__+0x1416fc>
     550:	08050106 	stmdaeq	r5, {r1, r2, r8}
     554:	66760306 	ldrbtvs	r0, [r6], -r6, lsl #6
     558:	054b0305 	strbeq	r0, [fp, #-773]	; 0xfffffcfb
     55c:	05010607 	streq	r0, [r1, #-1543]	; 0xfffff9f9
     560:	03056606 	movweq	r6, #22022	; 0x5606
     564:	07054f06 	streq	r4, [r5, -r6, lsl #30]
     568:	06050106 	streq	r0, [r5], -r6, lsl #2
     56c:	02054a4a 	andeq	r4, r5, #303104	; 0x4a000
     570:	01053506 	tsteq	r5, r6, lsl #10
     574:	05661306 	strbeq	r1, [r6, #-774]!	; 0xfffffcfa
     578:	05000628 	streq	r0, [r0, #-1576]	; 0xfffff9d8
     57c:	00841002 	addeq	r1, r4, r2
     580:	01061600 	tsteq	r6, r0, lsl #12
     584:	06050582 	streq	r0, [r5], -r2, lsl #11
     588:	0905132f 	stmdbeq	r5, {r0, r1, r2, r3, r5, r8, r9, ip}
     58c:	07050106 	streq	r0, [r5, -r6, lsl #2]
     590:	0609052e 	streq	r0, [r9], -lr, lsr #10
     594:	13050567 	movwne	r0, #21863	; 0x5567
     598:	13829e01 	orrne	r9, r2, #1, 28
     59c:	04020001 	streq	r0, [r2], #-1
     5a0:	02008202 	andeq	r8, r0, #536870912	; 0x20000000
     5a4:	00010204 	andeq	r0, r1, r4, lsl #4
     5a8:	13020402 	movwne	r0, #9218	; 0x2402
     5ac:	02000e05 	andeq	r0, r0, #80	; 0x50
     5b0:	01060204 	tsteq	r6, r4, lsl #4
     5b4:	02000205 	andeq	r0, r0, #1342177280	; 0x50000000
     5b8:	4b060204 	blmi	180dd0 <__bss_end__+0x175f60>
     5bc:	02040200 	andeq	r0, r4, #0, 4
     5c0:	00070513 	andeq	r0, r7, r3, lsl r5
     5c4:	01020402 	tsteq	r2, r2, lsl #8
     5c8:	02001005 	andeq	r1, r0, #5, 0
     5cc:	01060204 	tsteq	r6, r4, lsl #4
     5d0:	02001705 	andeq	r1, r0, #1310720	; 0x140000
     5d4:	2e060104 	adfcss	f0, f6, f4
     5d8:	02000205 	andeq	r0, r0, #1342177280	; 0x50000000
     5dc:	01060104 	tsteq	r6, r4, lsl #2
     5e0:	02000305 	andeq	r0, r0, #335544320	; 0x14000000
     5e4:	4b060304 	blmi	1811fc <__bss_end__+0x17638c>
     5e8:	02001305 	andeq	r1, r0, #335544320	; 0x14000000
     5ec:	01060304 	tsteq	r6, r4, lsl #6
     5f0:	02002b05 	andeq	r2, r0, #5120	; 0x1400
     5f4:	81060304 	tsthi	r6, r4, lsl #6
     5f8:	02002c05 	andeq	r2, r0, #1280	; 0x500
     5fc:	01060304 	tsteq	r6, r4, lsl #6
     600:	03040200 	movweq	r0, #16896	; 0x4200
     604:	0402002e 	streq	r0, [r2], #-46	; 0xffffffd2
     608:	09052e03 	stmdbeq	r5, {r0, r1, r9, sl, fp, sp}
     60c:	82010d06 	andhi	r0, r1, #384	; 0x180
     610:	00050582 	andeq	r0, r5, r2, lsl #11
     614:	30010402 	andcc	r0, r1, r2, lsl #8
     618:	01040200 	mrseq	r0, R12_usr
     61c:	04020001 	streq	r0, [r2], #-1
     620:	0205d601 	andeq	sp, r5, #1048576	; 0x100000
     624:	06060535 			; <UNDEFINED> instruction: 0x06060535
     628:	66050501 	strvs	r0, [r5], -r1, lsl #10
     62c:	4b060305 	blmi	181248 <__bss_end__+0x1763d8>
     630:	05130205 	ldreq	r0, [r3, #-517]	; 0xfffffdfb
     634:	05018405 	streq	r8, [r1, #-1029]	; 0xfffffbfb
     638:	05840601 	streq	r0, [r4, #1537]	; 0x601
     63c:	01450603 	cmpeq	r5, r3, lsl #12
     640:	000505f2 	strdeq	r0, [r5], -r2
     644:	31010402 	tstcc	r1, r2, lsl #8
     648:	01040200 	mrseq	r0, R12_usr
     64c:	04020001 	streq	r0, [r2], #-1
     650:	2f05d601 	svccs	0x0005d601
     654:	01065f08 	tsteq	r6, r8, lsl #30
     658:	a0060505 	andge	r0, r6, r5, lsl #10
     65c:	01061005 	tsteq	r6, r5
     660:	0602052e 	streq	r0, [r2], -lr, lsr #10
     664:	0505674b 	streq	r6, [r5, #-1867]	; 0xfffff8b5
     668:	06150585 	ldreq	r0, [r5], -r5, lsl #11
     66c:	06050501 	streq	r0, [r5], -r1, lsl #10
     670:	060e052f 	streq	r0, [lr], -pc, lsr #10
     674:	06050501 	streq	r0, [r5], -r1, lsl #10
     678:	0612054b 	ldreq	r0, [r2], -fp, asr #10
     67c:	06020501 	streq	r0, [r2], -r1, lsl #10
     680:	060a0567 	streq	r0, [sl], -r7, ror #10
     684:	06020501 	streq	r0, [r2], -r1, lsl #10
     688:	060b054b 	streq	r0, [fp], -fp, asr #10
     68c:	06020501 	streq	r0, [r2], -r1, lsl #10
     690:	05020430 	streq	r0, [r2, #-1072]	; 0xfffffbd0
     694:	7f8e0318 	svcvc	0x008e0318
     698:	13050501 	movwne	r0, #21761	; 0x5501
     69c:	01060c05 	tsteq	r6, r5, lsl #24
     6a0:	0501044a 	streq	r0, [r1, #-1098]	; 0xfffffbb6
     6a4:	00f10302 	rscseq	r0, r1, r2, lsl #6
     6a8:	05690601 	strbeq	r0, [r9, #-1537]!	; 0xfffff9ff
     6ac:	0501060e 	streq	r0, [r1, #-1550]	; 0xfffff9f2
     6b0:	05670602 	strbeq	r0, [r7, #-1538]!	; 0xfffff9fe
     6b4:	0501060f 	streq	r0, [r1, #-1551]	; 0xfffff9f1
     6b8:	014c0605 	cmpeq	ip, r5, lsl #12
     6bc:	02059e9e 	andeq	r9, r5, #2528	; 0x9e0
     6c0:	01058414 	tsteq	r5, r4, lsl r4
     6c4:	02661406 	rsbeq	r1, r6, #100663296	; 0x6000000
     6c8:	01010008 	tsteq	r1, r8
     6cc:	0000060c 	andeq	r0, r0, ip, lsl #12
     6d0:	00fa0003 	rscseq	r0, sl, r3
     6d4:	01020000 	mrseq	r0, (UNDEF: 2)
     6d8:	000d0efb 	strdeq	r0, [sp], -fp
     6dc:	01010101 	tsteq	r1, r1, lsl #2
     6e0:	01000000 	mrseq	r0, (UNDEF: 0)
     6e4:	2f010000 	svccs	0x00010000
     6e8:	2f727375 	svccs	0x00727375
     6ec:	61636f6c 	cmnvs	r3, ip, ror #30
     6f0:	65432f6c 	strbvs	r2, [r3, #-3948]	; 0xfffff094
     6f4:	72616c6c 	rsbvc	r6, r1, #108, 24	; 0x6c00
     6f8:	6d72612f 	ldfvse	f6, [r2, #-188]!	; 0xffffff44
     6fc:	6e6f6e2d 	cdpvs	14, 6, cr6, cr15, cr13, {1}
     700:	61652d65 	cmnvs	r5, r5, ror #26
     704:	742d6962 	strtvc	r6, [sp], #-2402	; 0xfffff69e
     708:	2f747365 	svccs	0x00747365
     70c:	30322d39 	eorscc	r2, r2, r9, lsr sp
     710:	34713931 	ldrbtcc	r3, [r1], #-2353	; 0xfffff6cf
     714:	3173632d 	cmncc	r3, sp, lsr #6
     718:	2f653730 	svccs	0x00653730
     71c:	2f62696c 	svccs	0x0062696c
     720:	2f636367 	svccs	0x00636367
     724:	2d6d7261 	sfmcs	f7, 2, [sp, #-388]!	; 0xfffffe7c
     728:	656e6f6e 	strbvs	r6, [lr, #-3950]!	; 0xfffff092
     72c:	6261652d 	rsbvs	r6, r1, #188743680	; 0xb400000
     730:	2e392f69 	cdpcs	15, 3, cr2, cr9, cr9, {3}
     734:	2f312e32 	svccs	0x00312e32
     738:	6c636e69 	stclvs	14, cr6, [r3], #-420	; 0xfffffe5c
     73c:	00656475 	rsbeq	r6, r5, r5, ror r4
     740:	6573552f 	ldrbvs	r5, [r3, #-1327]!	; 0xfffffad1
     744:	742f7372 	strtvc	r7, [pc], #-882	; 74c <__code_start__-0x78b4>
     748:	74736972 	ldrbtvc	r6, [r3], #-2418	; 0xfffff68e
     74c:	6f6e6e65 	svcvs	0x006e6e65
     750:	616d6c6c 	cmnvs	sp, ip, ror #24
     754:	6f442f6e 	svcvs	0x00442f6e
     758:	656d7563 	strbvs	r7, [sp, #-1379]!	; 0xfffffa9d
     75c:	2f73746e 	svccs	0x0073746e
     760:	69727053 	ldmdbvs	r2!, {r0, r1, r4, r6, ip, sp, lr}^
     764:	515f676e 	cmppl	pc, lr, ror #14
     768:	74726175 	ldrbtvc	r6, [r2], #-373	; 0xfffffe8b
     76c:	325f7265 	subscc	r7, pc, #1342177286	; 0x50000006
     770:	2f323230 	svccs	0x00323230
     774:	34325343 	ldrtcc	r5, [r2], #-835	; 0xfffffcbd
     778:	2d584c30 	ldclcs	12, cr4, [r8, #-192]	; 0xffffff40
     77c:	32727073 	rsbscc	r7, r2, #115, 0	; 0x73
     780:	696c2f32 	stmdbvs	ip!, {r1, r4, r5, r8, r9, sl, fp, sp}^
     784:	2f697062 	svccs	0x00697062
     788:	6c636e69 	stclvs	14, cr6, [r3], #-420	; 0xfffffe5c
     78c:	00656475 	rsbeq	r6, r5, r5, ror r4
     790:	2d6b6300 	stclcs	3, cr6, [fp, #-0]
     794:	632e6367 			; <UNDEFINED> instruction: 0x632e6367
     798:	00000000 	andeq	r0, r0, r0
     79c:	69647473 	stmdbvs	r4!, {r0, r1, r4, r5, r6, sl, ip, sp, lr}^
     7a0:	672d746e 	strvs	r7, [sp, -lr, ror #8]!
     7a4:	682e6363 	stmdavs	lr!, {r0, r1, r5, r6, r8, r9, sp, lr}
     7a8:	00000100 	andeq	r0, r0, r0, lsl #2
     7ac:	2e697072 	mcrcs	0, 3, r7, cr9, cr2, {3}
     7b0:	00020068 	andeq	r0, r2, r8, rrx
     7b4:	63727300 	cmnvs	r2, #0, 6
     7b8:	636f6c2d 	cmnvs	pc, #11520	; 0x2d00
     7bc:	0000682e 	andeq	r6, r0, lr, lsr #16
     7c0:	6b630000 	blvs	18c07c8 <__bss_end__+0x18b5958>
     7c4:	6f6c6c61 	svcvs	0x006c6c61
     7c8:	00682e63 	rsbeq	r2, r8, r3, ror #28
     7cc:	00000000 	andeq	r0, r0, r0
     7d0:	05001d05 	streq	r1, [r0, #-3333]	; 0xfffff2fb
     7d4:	00865c02 	addeq	r5, r6, r2, lsl #24
     7d8:	01250300 			; <UNDEFINED> instruction: 0x01250300
     7dc:	05140505 	ldreq	r0, [r4, #-1285]	; 0xfffffafb
     7e0:	0501060a 	streq	r0, [r1, #-1546]	; 0xfffff9f6
     7e4:	1c054a07 			; <UNDEFINED> instruction: 0x1c054a07
     7e8:	01040200 	mrseq	r0, R12_usr
     7ec:	0017054a 	andseq	r0, r7, sl, asr #10
     7f0:	4a010402 	bmi	41800 <__bss_end__+0x36990>
     7f4:	2e4d0c05 	cdpcs	12, 4, cr0, cr13, cr5, {0}
     7f8:	2e2c1005 	cdpcs	0, 2, cr1, cr12, cr5, {0}
     7fc:	3101052e 	tstcc	r1, lr, lsr #10
     800:	03063505 	movweq	r3, #25861	; 0x6505
     804:	064a00c2 	strbeq	r0, [sl], -r2, asr #1
     808:	06020501 	streq	r0, [r2], -r1, lsl #10
     80c:	2e06134b 	cdpcs	3, 0, cr1, cr6, cr11, {2}
     810:	054d2f06 	strbeq	r2, [sp, #-3846]	; 0xfffff0fa
     814:	05010610 	streq	r0, [r1, #-1552]	; 0xfffff9f0
     818:	054b0602 	strbeq	r0, [fp, #-1538]	; 0xfffff9fe
     81c:	7a030624 	bvc	c20b4 <__bss_end__+0xb7244>
     820:	2e180501 	cfmul32cs	mvfx0, mvfx8, mvfx1
     824:	052e0b05 	streq	r0, [lr, #-2821]!	; 0xfffff4fb
     828:	27053408 	strcs	r3, [r5, -r8, lsl #8]
     82c:	00030531 	andeq	r0, r3, r1, lsr r5
     830:	06060402 	streq	r0, [r6], -r2, lsl #8
     834:	0006052f 	andeq	r0, r6, pc, lsr #10
     838:	06060402 	streq	r0, [r6], -r2, lsl #8
     83c:	060a0501 	streq	r0, [sl], -r1, lsl #10
     840:	060d0550 			; <UNDEFINED> instruction: 0x060d0550
     844:	060a0501 	streq	r0, [sl], -r1, lsl #10
     848:	054a0903 	strbeq	r0, [sl, #-2307]	; 0xfffff6fd
     84c:	0501060d 	streq	r0, [r1, #-1549]	; 0xfffff9f3
     850:	0402002a 	streq	r0, [r2], #-42	; 0xffffffd6
     854:	23054a01 	movwcs	r4, #23041	; 0x5a01
     858:	01040200 	mrseq	r0, R12_usr
     85c:	0038052e 	eorseq	r0, r8, lr, lsr #10
     860:	4a020402 	bmi	81870 <__bss_end__+0x76a00>
     864:	4d060405 	cfstrsmi	mvf0, [r6, #-20]	; 0xffffffec
     868:	2e2e0601 	cfmadda32cs	mvax0, mvax0, mvfx14, mvfx1
     86c:	05132e06 	ldreq	r2, [r3, #-3590]	; 0xfffff1fa
     870:	2e010610 	mcrcs	6, 0, r0, cr1, cr0, {0}
     874:	6c032705 	stcvs	7, cr2, [r3], {5}
     878:	16052e2e 	strne	r2, [r5], -lr, lsr #28
     87c:	01040200 	mrseq	r0, R12_usr
     880:	000f052f 	andeq	r0, pc, pc, lsr #10
     884:	2e010402 	cdpcs	4, 0, cr0, cr1, cr2, {0}
     888:	4b060405 	blmi	1818a4 <__bss_end__+0x176a34>
     88c:	2e2e0601 	cfmadda32cs	mvax0, mvax0, mvfx14, mvfx1
     890:	152e062e 	strne	r0, [lr, #-1582]!	; 0xfffff9d2
     894:	01061105 	tsteq	r6, r5, lsl #2
     898:	4b060405 	blmi	1818b4 <__bss_end__+0x176a44>
     89c:	01060a05 	tsteq	r6, r5, lsl #20
     8a0:	0604052e 	streq	r0, [r4], -lr, lsr #10
     8a4:	2e060130 	fltcssp	f6, r0
     8a8:	2e062e2e 	cdpcs	14, 0, cr2, cr6, cr14, {1}
     8ac:	06100514 			; <UNDEFINED> instruction: 0x06100514
     8b0:	06030501 	streq	r0, [r3], -r1, lsl #10
     8b4:	012e0c03 			; <UNDEFINED> instruction: 0x012e0c03
     8b8:	0a05139e 	beq	145738 <__bss_end__+0x13a8c8>
     8bc:	05660106 	strbeq	r0, [r6, #-262]!	; 0xfffffefa
     8c0:	66030608 	strvs	r0, [r3], -r8, lsl #12
     8c4:	4b030501 	blmi	c1cd0 <__bss_end__+0xb6e60>
     8c8:	01060a05 	tsteq	r6, r5, lsl #20
     8cc:	2f060305 	svccs	0x00060305
     8d0:	01061a05 	tsteq	r6, r5, lsl #20
     8d4:	052e2205 	streq	r2, [lr, #-517]!	; 0xfffffdfb
     8d8:	05670603 	strbeq	r0, [r7, #-1539]!	; 0xfffff9fd
     8dc:	05010619 	streq	r0, [r1, #-1561]	; 0xfffff9e7
     8e0:	02002e27 	andeq	r2, r0, #624	; 0x270
     8e4:	4a4a0104 	bmi	1280cfc <__bss_end__+0x1275e8c>
     8e8:	02052e2e 	andeq	r2, r5, #736	; 0x2e0
     8ec:	011b0306 	tsteq	fp, r6, lsl #6
     8f0:	064a0601 	strbeq	r0, [sl], -r1, lsl #12
     8f4:	0405132e 	streq	r1, [r5], #-814	; 0xfffffcd2
     8f8:	03050106 	movweq	r0, #20742	; 0x5106
     8fc:	4a014b06 	bmi	5351c <__bss_end__+0x486ac>
     900:	01040200 	mrseq	r0, R12_usr
     904:	00020514 	andeq	r0, r2, r4, lsl r5
     908:	14010402 	strne	r0, [r1], #-1026	; 0xfffffbfe
     90c:	01040200 	mrseq	r0, R12_usr
     910:	0001054b 	andeq	r0, r1, fp, asr #10
     914:	06010402 	streq	r0, [r1], -r2, lsl #8
     918:	06030513 			; <UNDEFINED> instruction: 0x06030513
     91c:	22050146 	andcs	r0, r5, #-2147483631	; 0x80000011
     920:	0800d803 	stmdaeq	r0, {r0, r1, fp, ip, lr, pc}
     924:	2f0205c8 	svccs	0x000205c8
     928:	054c4b13 	strbeq	r4, [ip, #-2835]	; 0xfffff4ed
     92c:	05010610 	streq	r0, [r1, #-1552]	; 0xfffff9f0
     930:	054b0602 	strbeq	r0, [fp, #-1538]	; 0xfffff9fe
     934:	050d0622 	streq	r0, [sp, #-1570]	; 0xfffff9de
     938:	0b052e18 	bleq	14c1a0 <__bss_end__+0x141330>
     93c:	3308052e 	movwcc	r0, #34094	; 0x852e
     940:	32060405 	andcc	r0, r6, #83886080	; 0x5000000
     944:	01061005 	tsteq	r6, r5
     948:	4b060405 	blmi	181964 <__bss_end__+0x176af4>
     94c:	01060a05 	tsteq	r6, r5, lsl #20
     950:	2f060405 	svccs	0x00060405
     954:	01061805 	tsteq	r6, r5, lsl #16
     958:	052e1105 	streq	r1, [lr, #-261]!	; 0xfffffefb
     95c:	012f0604 			; <UNDEFINED> instruction: 0x012f0604
     960:	02006606 	andeq	r6, r0, #6291456	; 0x600000
     964:	2e060104 	adfcss	f0, f6, f4
     968:	02000305 	andeq	r0, r0, #335544320	; 0x14000000
     96c:	05140104 	ldreq	r0, [r4, #-260]	; 0xfffffefc
     970:	0402000a 	streq	r0, [r2], #-10
     974:	05010601 	streq	r0, [r1, #-1537]	; 0xfffff9ff
     978:	77030608 	strvc	r0, [r3, -r8, lsl #12]
     97c:	4b030566 	blmi	c1f1c <__bss_end__+0xb70ac>
     980:	01060a05 	tsteq	r6, r5, lsl #20
     984:	2f060305 	svccs	0x00060305
     988:	01060b05 	tsteq	r6, r5, lsl #22
     98c:	052e0605 	streq	r0, [lr, #-1541]!	; 0xfffff9fb
     990:	04020025 	streq	r0, [r2], #-37	; 0xffffffdb
     994:	1e054a01 	vmlane.f32	s8, s10, s2
     998:	01040200 	mrseq	r0, R12_usr
     99c:	0602052e 	streq	r0, [r2], -lr, lsr #10
     9a0:	01660a03 	cmneq	r6, r3, lsl #20
     9a4:	2e068206 	cdpcs	2, 0, cr8, cr6, cr6, {0}
     9a8:	05140505 	ldreq	r0, [r4, #-1285]	; 0xfffffafb
     9ac:	05130601 	ldreq	r0, [r3, #-1537]	; 0xfffff9ff
     9b0:	b2030625 	andlt	r0, r3, #38797312	; 0x2500000
     9b4:	0106ba7e 	tsteq	r6, lr, ror sl
     9b8:	4b060505 	blmi	181dd4 <__bss_end__+0x176f64>
     9bc:	06090514 			; <UNDEFINED> instruction: 0x06090514
     9c0:	2e070501 	cfsh32cs	mvfx0, mvfx7, #1
     9c4:	4c060505 	cfstr32mi	mvfx0, [r6], {5}
     9c8:	01060c05 	tsteq	r6, r5, lsl #24
     9cc:	05651005 	strbeq	r1, [r5, #-5]!
     9d0:	2c053001 	stccs	0, cr3, [r5], {1}
     9d4:	2e0d0306 	cdpcs	3, 0, cr0, cr13, cr6, {0}
     9d8:	05050106 	streq	r0, [r5, #-262]	; 0xfffffefa
     9dc:	00014b06 	andeq	r4, r1, r6, lsl #22
     9e0:	66020402 	strvs	r0, [r2], -r2, lsl #8
     9e4:	02040200 	andeq	r0, r4, #0, 4
     9e8:	04020001 	streq	r0, [r2], #-1
     9ec:	02001402 	andeq	r1, r0, #33554432	; 0x2000000
     9f0:	00010204 	andeq	r0, r1, r4, lsl #4
     9f4:	4a020402 	bmi	81a04 <__bss_end__+0x76b94>
     9f8:	02040200 	andeq	r0, r4, #0, 4
     9fc:	04020001 	streq	r0, [r2], #-1
     a00:	02001302 	andeq	r1, r0, #134217728	; 0x8000000
     a04:	00010204 	andeq	r0, r1, r4, lsl #4
     a08:	4a020402 	bmi	81a18 <__bss_end__+0x76ba8>
     a0c:	02040200 	andeq	r0, r4, #0, 4
     a10:	00020501 	andeq	r0, r2, r1, lsl #10
     a14:	14020402 	strne	r0, [r2], #-1026	; 0xfffffbfe
     a18:	02001f05 	andeq	r1, r0, #5, 30
     a1c:	01060204 	tsteq	r6, r4, lsl #4
     a20:	02001105 	andeq	r1, r0, #1073741825	; 0x40000001
     a24:	052e0204 	streq	r0, [lr, #-516]!	; 0xfffffdfc
     a28:	04020002 	streq	r0, [r2], #-2
     a2c:	052f0602 	streq	r0, [pc, #-1538]!	; 432 <__code_start__-0x7bce>
     a30:	04020007 	streq	r0, [r2], #-7
     a34:	02050102 	andeq	r0, r5, #-2147483648	; 0x80000000
     a38:	02040200 	andeq	r0, r4, #0, 4
     a3c:	02000106 	andeq	r0, r0, #-2147483647	; 0x80000001
     a40:	052e0204 	streq	r0, [lr, #-516]!	; 0xfffffdfc
     a44:	04020005 	streq	r0, [r2], #-5
     a48:	7a030601 	bvc	c2254 <__bss_end__+0xb73e4>
     a4c:	04020001 	streq	r0, [r2], #-1
     a50:	02000101 	andeq	r0, r0, #1073741824	; 0x40000000
     a54:	9e060104 	adflss	f0, f6, f4
     a58:	01040200 	mrseq	r0, R12_usr
     a5c:	0402002e 	streq	r0, [r2], #-46	; 0xffffffd2
     a60:	002e0601 	eoreq	r0, lr, r1, lsl #12
     a64:	30010402 	andcc	r0, r1, r2, lsl #8
     a68:	01040200 	mrseq	r0, R12_usr
     a6c:	04020001 	streq	r0, [r2], #-1
     a70:	009e0601 	addseq	r0, lr, r1, lsl #12
     a74:	2e010402 	cdpcs	4, 0, cr0, cr1, cr2, {0}
     a78:	01040200 	mrseq	r0, R12_usr
     a7c:	02002e06 	andeq	r2, r0, #96	; 0x60
     a80:	002f0104 	eoreq	r0, pc, r4, lsl #2
     a84:	01010402 	tsteq	r1, r2, lsl #8
     a88:	01040200 	mrseq	r0, R12_usr
     a8c:	02009e06 	andeq	r9, r0, #96	; 0x60
     a90:	002e0104 	eoreq	r0, lr, r4, lsl #2
     a94:	06010402 	streq	r0, [r1], -r2, lsl #8
     a98:	2e0c032e 	cdpcs	3, 0, cr0, cr12, cr14, {1}
     a9c:	01060e05 	tsteq	r6, r5, lsl #28
     aa0:	052e1a05 	streq	r1, [lr, #-2565]!	; 0xfffff5fb
     aa4:	0a030604 	beq	c22bc <__bss_end__+0xb744c>
     aa8:	4405134a 	strmi	r1, [r5], #-842	; 0xfffffcb6
     aac:	04050106 	streq	r0, [r5], #-262	; 0xfffffefa
     ab0:	2e062f06 	cdpcs	15, 0, cr2, cr6, cr6, {0}
     ab4:	0026052e 	eoreq	r0, r6, lr, lsr #10
     ab8:	06020402 	streq	r0, [r2], -r2, lsl #8
     abc:	05016b03 	streq	r6, [r1, #-2819]	; 0xfffff4fd
     ac0:	04020027 	streq	r0, [r2], #-39	; 0xffffffd9
     ac4:	05010602 	streq	r0, [r1, #-1538]	; 0xfffff9fe
     ac8:	04020017 	streq	r0, [r2], #-23	; 0xffffffe9
     acc:	052e0601 	streq	r0, [lr, #-1537]!	; 0xfffff9ff
     ad0:	04020002 	streq	r0, [r2], #-2
     ad4:	05010601 	streq	r0, [r1, #-1537]	; 0xfffff9ff
     ad8:	054b0603 	strbeq	r0, [fp, #-1539]	; 0xfffff9fd
     adc:	0501061e 	streq	r0, [r1, #-1566]	; 0xfffff9e2
     ae0:	03052e16 	movweq	r2, #24086	; 0x5e16
     ae4:	06054b06 	streq	r4, [r5], -r6, lsl #22
     ae8:	1e050106 	adfnes	f0, f5, f6
     aec:	01040200 	mrseq	r0, R12_usr
     af0:	0011054a 	andseq	r0, r1, sl, asr #10
     af4:	2e010402 	cdpcs	4, 0, cr0, cr1, cr2, {0}
     af8:	4c060405 	cfstrsmi	mvf0, [r6], {5}
     afc:	01061405 	tsteq	r6, r5, lsl #8
     b00:	4d060405 	cfstrsmi	mvf0, [r6, #-20]	; 0xffffffec
     b04:	01061905 	tsteq	r6, r5, lsl #18
     b08:	052e3405 	streq	r3, [lr, #-1029]!	; 0xfffffbfb
     b0c:	0b052e07 	bleq	14c330 <__bss_end__+0x1414c0>
     b10:	30054d06 	andcc	r4, r5, r6, lsl #26
     b14:	0e050106 	adfeqs	f0, f5, f6
     b18:	019f052e 	orrseq	r0, pc, lr, lsr #10
     b1c:	01040200 	mrseq	r0, R12_usr
     b20:	0194054a 	orrseq	r0, r4, sl, asr #10
     b24:	01040200 	mrseq	r0, R12_usr
     b28:	004f052e 	subeq	r0, pc, lr, lsr #10
     b2c:	4a010402 	bmi	41b3c <__bss_end__+0x36ccc>
     b30:	30060505 	andcc	r0, r6, r5, lsl #10
     b34:	01060e05 	tsteq	r6, r5, lsl #28
     b38:	662e1b05 	strtvs	r1, [lr], -r5, lsl #22
     b3c:	0c030105 	stfeqs	f0, [r3], {5}
     b40:	1c054a01 			; <UNDEFINED> instruction: 0x1c054a01
     b44:	02050006 	andeq	r0, r5, #6, 0
     b48:	00008a24 	andeq	r8, r0, r4, lsr #20
     b4c:	05013b03 	streq	r3, [r1, #-2819]	; 0xfffff4fd
     b50:	09054e05 	stmdbeq	r5, {r0, r2, r9, sl, fp, lr}
     b54:	06140501 	ldreq	r0, [r4], -r1, lsl #10
     b58:	00240501 	eoreq	r0, r4, r1, lsl #10
     b5c:	06010402 	streq	r0, [r1], -r2, lsl #8
     b60:	0005052e 	andeq	r0, r5, lr, lsr #10
     b64:	06010402 	streq	r0, [r1], -r2, lsl #8
     b68:	00090501 	andeq	r0, r9, r1, lsl #10
     b6c:	06030402 	streq	r0, [r3], -r2, lsl #8
     b70:	0032054b 	eorseq	r0, r2, fp, asr #10
     b74:	06030402 	streq	r0, [r3], -r2, lsl #8
     b78:	00210501 	eoreq	r0, r1, r1, lsl #10
     b7c:	4a030402 	bmi	c1b8c <__bss_end__+0xb6d1c>
     b80:	02001105 	andeq	r1, r0, #1073741825	; 0x40000001
     b84:	052e0304 	streq	r0, [lr, #-772]!	; 0xfffffcfc
     b88:	04020027 	streq	r0, [r2], #-39	; 0xffffffd9
     b8c:	052d0603 	streq	r0, [sp, #-1539]!	; 0xfffff9fd
     b90:	0402002b 	streq	r0, [r2], #-43	; 0xffffffd5
     b94:	00010603 	andeq	r0, r1, r3, lsl #12
     b98:	2e030402 	cdpcs	4, 0, cr0, cr3, cr2, {0}
     b9c:	03040200 	movweq	r0, #16896	; 0x4200
     ba0:	0605052e 	streq	r0, [r5], -lr, lsr #10
     ba4:	2e061318 	mcrcs	3, 0, r1, cr6, cr8, {0}
     ba8:	0d053106 	stfeqs	f3, [r5, #-24]	; 0xffffffe8
     bac:	05050106 	streq	r0, [r5, #-262]	; 0xfffffefa
     bb0:	0d054b06 	vstreq	d4, [r5, #-24]	; 0xffffffe8
     bb4:	05050106 	streq	r0, [r5, #-262]	; 0xfffffefa
     bb8:	0d052f06 	stceq	15, cr2, [r5, #-24]	; 0xffffffe8
     bbc:	05050106 	streq	r0, [r5, #-262]	; 0xfffffefa
     bc0:	0d052f06 	stceq	15, cr2, [r5, #-24]	; 0xffffffe8
     bc4:	05050106 	streq	r0, [r5, #-262]	; 0xfffffefa
     bc8:	01683006 	cmneq	r8, r6
     bcc:	05180101 	ldreq	r0, [r8, #-257]	; 0xfffffeff
     bd0:	05051302 	streq	r1, [r5, #-770]	; 0xfffffcfe
     bd4:	13681369 	cmnne	r8, #-1543503871	; 0xa4000001
     bd8:	67060105 	strvs	r0, [r6, -r5, lsl #2]
     bdc:	03061c05 	movweq	r1, #27653	; 0x6c05
     be0:	06ba7ecc 	ldrteq	r7, [sl], ip, asr #29
     be4:	06020501 	streq	r0, [r2], -r1, lsl #10
     be8:	2e060167 	adfcssz	f0, f6, f7
     bec:	05052e06 	streq	r2, [r5, #-3590]	; 0xfffff1fa
     bf0:	02000113 	andeq	r0, r0, #-1073741820	; 0xc0000004
     bf4:	004a0204 	subeq	r0, sl, r4, lsl #4
     bf8:	01020402 	tsteq	r2, r2, lsl #8
     bfc:	02040200 	andeq	r0, r4, #0, 4
     c00:	00080513 	andeq	r0, r8, r3, lsl r5
     c04:	06020402 	streq	r0, [r2], -r2, lsl #8
     c08:	00070501 	andeq	r0, r7, r1, lsl #10
     c0c:	4a020402 	bmi	81c1c <__bss_end__+0x76dac>
     c10:	51060505 	tstpl	r6, r5, lsl #10
     c14:	01060c05 	tsteq	r6, r5, lsl #24
     c18:	054b0105 	strbeq	r0, [fp, #-261]	; 0xfffffefb
     c1c:	04020005 	streq	r0, [r2], #-5
     c20:	77030601 	strvc	r0, [r3, -r1, lsl #12]
     c24:	0402004a 	streq	r0, [r2], #-74	; 0xffffffb6
     c28:	02000101 	andeq	r0, r0, #1073741824	; 0x40000000
     c2c:	05d60104 	ldrbeq	r0, [r6, #260]	; 0x104
     c30:	05133009 	ldreq	r3, [r3, #-9]
     c34:	05010614 	streq	r0, [r1, #-1556]	; 0xfffff9ec
     c38:	05670609 	strbeq	r0, [r7, #-1545]!	; 0xfffff9f7
     c3c:	05010612 	streq	r0, [r1, #-1554]	; 0xfffff9ee
     c40:	4b4b0609 	blmi	12c246c <__bss_end__+0x12b75fc>
     c44:	01061005 	tsteq	r6, r5
     c48:	03063105 	movweq	r3, #24837	; 0x6105
     c4c:	200801b0 			; <UNDEFINED> instruction: 0x200801b0
     c50:	02050106 	andeq	r0, r5, #-2147483647	; 0x80000001
     c54:	06014b06 	streq	r4, [r1], -r6, lsl #22
     c58:	052e062e 	streq	r0, [lr, #-1582]!	; 0xfffff9d2
     c5c:	02051305 	andeq	r1, r5, #335544320	; 0x14000000
     c60:	4b05052f 	blmi	142124 <__bss_end__+0x1372b4>
     c64:	01060c05 	tsteq	r6, r5, lsl #24
     c68:	054b0105 	strbeq	r0, [fp, #-261]	; 0xfffffefb
     c6c:	0569061a 	strbeq	r0, [r9, #-1562]!	; 0xfffff9e6
     c70:	05133205 	ldreq	r3, [r3, #-517]	; 0xfffffdfb
     c74:	05010608 	streq	r0, [r1, #-1544]	; 0xfffff9f8
     c78:	09054a07 	stmdbeq	r5, {r0, r1, r2, r9, fp, lr}
     c7c:	01144b06 	tsteq	r4, r6, lsl #22
     c80:	1305054a 	movwne	r0, #21834	; 0x554a
     c84:	13060105 	movwne	r0, #24837	; 0x6105
     c88:	2a060905 	bcs	1830a4 <__bss_end__+0x178234>
     c8c:	22059e01 	andcs	r9, r5, #1, 28
     c90:	320505a5 	andcc	r0, r5, #692060160	; 0x29400000
     c94:	06170513 			; <UNDEFINED> instruction: 0x06170513
     c98:	06050501 	streq	r0, [r5], -r1, lsl #10
     c9c:	0607054b 	streq	r0, [r7], -fp, asr #10
     ca0:	06090501 	streq	r0, [r9], -r1, lsl #10
     ca4:	0601144b 	streq	r1, [r1], -fp, asr #8
     ca8:	052e064a 	streq	r0, [lr, #-1610]!	; 0xfffff9b6
     cac:	05131305 	ldreq	r1, [r3, #-773]	; 0xfffffcfb
     cb0:	05130601 	ldreq	r0, [r3, #-1537]	; 0xfffff9ff
     cb4:	01450609 	cmpeq	r5, r9, lsl #12
     cb8:	0316059e 	tsteq	r6, #662700032	; 0x27800000
     cbc:	05059e1f 	streq	r9, [r5, #-3615]	; 0xfffff1e1
     cc0:	17052f2f 	strne	r2, [r5, -pc, lsr #30]
     cc4:	05050106 	streq	r0, [r5, #-262]	; 0xfffffefa
     cc8:	01053206 	tsteq	r5, r6, lsl #4
     ccc:	1b051306 	blne	1458ec <__bss_end__+0x13aa7c>
     cd0:	05053006 	streq	r3, [r5, #-6]
     cd4:	029e012f 	addseq	r0, lr, #-1073741813	; 0xc000000b
     cd8:	01010008 	tsteq	r1, r8
     cdc:	00000252 	andeq	r0, r0, r2, asr r2
     ce0:	008a0003 	addeq	r0, sl, r3
     ce4:	01020000 	mrseq	r0, (UNDEF: 2)
     ce8:	000d0efb 	strdeq	r0, [sp], -fp
     cec:	01010101 	tsteq	r1, r1, lsl #2
     cf0:	01000000 	mrseq	r0, (UNDEF: 0)
     cf4:	2f010000 	svccs	0x00010000
     cf8:	72657355 	rsbvc	r7, r5, #1409286145	; 0x54000001
     cfc:	72742f73 	rsbsvc	r2, r4, #460	; 0x1cc
     d00:	65747369 	ldrbvs	r7, [r4, #-873]!	; 0xfffffc97
     d04:	6c6f6e6e 	stclvs	14, cr6, [pc], #-440	; b54 <__code_start__-0x74ac>
     d08:	6e616d6c 	cdpvs	13, 6, cr6, cr1, cr12, {3}
     d0c:	636f442f 	cmnvs	pc, #788529152	; 0x2f000000
     d10:	6e656d75 	mcrvs	13, 3, r6, cr5, cr5, {3}
     d14:	532f7374 			; <UNDEFINED> instruction: 0x532f7374
     d18:	6e697270 	mcrvs	2, 3, r7, cr9, cr0, {3}
     d1c:	75515f67 	ldrbvc	r5, [r1, #-3943]	; 0xfffff099
     d20:	65747261 	ldrbvs	r7, [r4, #-609]!	; 0xfffffd9f
     d24:	30325f72 	eorscc	r5, r2, r2, ror pc
     d28:	432f3232 			; <UNDEFINED> instruction: 0x432f3232
     d2c:	30343253 	eorscc	r3, r4, r3, asr r2
     d30:	732d584c 			; <UNDEFINED> instruction: 0x732d584c
     d34:	32327270 	eorscc	r7, r2, #112, 4
     d38:	62696c2f 	rsbvs	r6, r9, #12032	; 0x2f00
     d3c:	692f6970 	stmdbvs	pc!, {r4, r5, r6, r8, fp, sp, lr}	; <UNPREDICTABLE>
     d40:	756c636e 	strbvc	r6, [ip, #-878]!	; 0xfffffc92
     d44:	00006564 	andeq	r6, r0, r4, ror #10
     d48:	6d2d726b 	sfmvs	f7, 4, [sp, #-428]!	; 0xfffffe54
     d4c:	6f6c6c61 	svcvs	0x006c6c61
     d50:	00632e63 	rsbeq	r2, r3, r3, ror #28
     d54:	72000000 	andvc	r0, r0, #0, 0
     d58:	682e6970 	stmdavs	lr!, {r4, r5, r6, r8, fp, sp, lr}
     d5c:	00000100 	andeq	r0, r0, r0, lsl #2
     d60:	6d2d726b 	sfmvs	f7, 4, [sp, #-428]!	; 0xfffffe54
     d64:	6f6c6c61 	svcvs	0x006c6c61
     d68:	00682e63 	rsbeq	r2, r8, r3, ror #28
     d6c:	00000000 	andeq	r0, r0, r0
     d70:	05001905 	streq	r1, [r0, #-2309]	; 0xfffff6fb
     d74:	008c9402 	addeq	r9, ip, r2, lsl #8
     d78:	00c50300 	sbceq	r0, r5, r0, lsl #6
     d7c:	05010601 	streq	r0, [r1, #-1537]	; 0xfffff9ff
     d80:	132f0602 			; <UNDEFINED> instruction: 0x132f0602
     d84:	01060505 	tsteq	r6, r5, lsl #10
     d88:	2f060205 	svccs	0x00060205
     d8c:	01060905 	tsteq	r6, r5, lsl #18
     d90:	2e4a0205 	cdpcs	2, 4, cr0, cr10, cr5, {0}
     d94:	02001205 	andeq	r1, r0, #1342177280	; 0x50000000
     d98:	2e060104 	adfcss	f0, f6, f4
     d9c:	02000205 	andeq	r0, r0, #1342177280	; 0x50000000
     da0:	01060104 	tsteq	r6, r4, lsl #2
     da4:	02002605 	andeq	r2, r0, #5242880	; 0x500000
     da8:	054a0304 	strbeq	r0, [sl, #-772]	; 0xfffffcfc
     dac:	04020012 	streq	r0, [r2], #-18	; 0xffffffee
     db0:	03052e03 	movweq	r2, #24067	; 0x5e03
     db4:	10054b06 	andne	r4, r5, r6, lsl #22
     db8:	06050106 	streq	r0, [r5], -r6, lsl #2
     dbc:	0015052e 	andseq	r0, r5, lr, lsr #10
     dc0:	4a010402 	bmi	41dd0 <__bss_end__+0x36f60>
     dc4:	02002005 	andeq	r2, r0, #5, 0
     dc8:	004a0204 	subeq	r0, sl, r4, lsl #4
     dcc:	4a020402 	bmi	81ddc <__bss_end__+0x76f6c>
     dd0:	32060205 	andcc	r0, r6, #1342177280	; 0x50000000
     dd4:	01061005 	tsteq	r6, r5
     dd8:	052e0905 	streq	r0, [lr, #-2309]!	; 0xfffff6fb
     ddc:	05052e1d 	streq	r2, [r5, #-3613]	; 0xfffff1e3
     de0:	060c052e 	streq	r0, [ip], -lr, lsr #10
     de4:	0616054e 	ldreq	r0, [r6], -lr, asr #10
     de8:	06080501 	streq	r0, [r8], -r1, lsl #10
     dec:	0614052f 	ldreq	r0, [r4], -pc, lsr #10
     df0:	2e0e0501 	cfsh32cs	mvfx0, mvfx14, #1
     df4:	052e0b05 	streq	r0, [lr, #-2821]!	; 0xfffff4fb
     df8:	054e060c 	strbeq	r0, [lr, #-1548]	; 0xfffff9f4
     dfc:	05010615 	streq	r0, [r1, #-1557]	; 0xfffff9eb
     e00:	05300602 	ldreq	r0, [r0, #-1538]!	; 0xfffff9fe
     e04:	05010608 	streq	r0, [r1, #-1544]	; 0xfffff9f8
     e08:	0c054b01 			; <UNDEFINED> instruction: 0x0c054b01
     e0c:	2e750306 	cdpcs	3, 7, cr0, cr5, cr6, {0}
     e10:	01062505 	tsteq	r6, r5, lsl #10
     e14:	052e1705 	streq	r1, [lr, #-1797]!	; 0xfffff8fb
     e18:	054b060c 	strbeq	r0, [fp, #-1548]	; 0xfffff9f4
     e1c:	0501061c 	streq	r0, [r1, #-1564]	; 0xfffff9e4
     e20:	16052e23 	strne	r2, [r5], -r3, lsr #28
     e24:	060c052e 	streq	r0, [ip], -lr, lsr #10
     e28:	061e054e 	ldreq	r0, [lr], -lr, asr #10
     e2c:	2e160501 	cfmul32cs	mvfx0, mvfx6, mvfx1
     e30:	4b060c05 	blmi	183e4c <__bss_end__+0x178fdc>
     e34:	01061c05 	tsteq	r6, r5, lsl #24
     e38:	052e1505 	streq	r1, [lr, #-1285]!	; 0xfffffafb
     e3c:	b703062a 	strlt	r0, [r3, -sl, lsr #12]
     e40:	0106667f 	tsteq	r6, pc, ror r6
     e44:	4b060205 	blmi	181660 <__bss_end__+0x1767f0>
     e48:	05051413 	streq	r1, [r5, #-1043]	; 0xfffffbed
     e4c:	07050106 	streq	r0, [r5, -r6, lsl #2]
     e50:	0602052f 	streq	r0, [r2], -pc, lsr #10
     e54:	06070531 			; <UNDEFINED> instruction: 0x06070531
     e58:	06020501 	streq	r0, [r2], -r1, lsl #10
     e5c:	0605054b 	streq	r0, [r5], -fp, asr #10
     e60:	06020501 	streq	r0, [r2], -r1, lsl #10
     e64:	0d05134e 	stceq	3, cr1, [r5, #-312]	; 0xfffffec8
     e68:	02050106 	andeq	r0, r5, #-2147483647	; 0x80000001
     e6c:	2e062f06 	cdpcs	15, 0, cr2, cr6, cr6, {0}
     e70:	09052f06 	stmdbeq	r5, {r1, r2, r8, r9, sl, fp, sp}
     e74:	0a050106 	beq	141294 <__bss_end__+0x136424>
     e78:	05667a03 	strbeq	r7, [r6, #-2563]!	; 0xfffff5fd
     e7c:	22053501 	andcs	r3, r5, #4194304	; 0x400000
     e80:	01064d06 	tsteq	r6, r6, lsl #26
     e84:	2f060205 	svccs	0x00060205
     e88:	05141313 	ldreq	r1, [r4, #-787]	; 0xfffffced
     e8c:	05010624 	streq	r0, [r1, #-1572]	; 0xfffff9dc
     e90:	09052e29 	stmdbeq	r5, {r0, r3, r5, r9, sl, fp, sp}
     e94:	0602052e 	streq	r0, [r2], -lr, lsr #10
     e98:	060d052f 	streq	r0, [sp], -pc, lsr #10
     e9c:	4a050501 	bmi	1422a8 <__bss_end__+0x137438>
     ea0:	50060205 	andpl	r0, r6, r5, lsl #4
     ea4:	01060905 	tsteq	r6, r5, lsl #18
     ea8:	0603052e 	streq	r0, [r3], -lr, lsr #10
     eac:	0616052a 	ldreq	r0, [r6], -sl, lsr #10
     eb0:	4a0e0501 	bmi	3822bc <__bss_end__+0x37744c>
     eb4:	2f060305 	svccs	0x00060305
     eb8:	01060f05 	tsteq	r6, r5, lsl #30
     ebc:	6c060405 	cfstrsvs	mvf0, [r6], {5}
     ec0:	01060705 	tsteq	r6, r5, lsl #14
     ec4:	32060505 	andcc	r0, r6, #20971520	; 0x1400000
     ec8:	01060f05 	tsteq	r6, r5, lsl #30
     ecc:	4b060505 	blmi	1822e8 <__bss_end__+0x177478>
     ed0:	01060705 	tsteq	r6, r5, lsl #14
     ed4:	2f060505 	svccs	0x00060505
     ed8:	01060f05 	tsteq	r6, r5, lsl #30
     edc:	30060405 	andcc	r0, r6, r5, lsl #8
     ee0:	01060a05 	tsteq	r6, r5, lsl #20
     ee4:	4b060405 	blmi	181f00 <__bss_end__+0x177090>
     ee8:	01060b05 	tsteq	r6, r5, lsl #22
     eec:	0605052e 	streq	r0, [r5], -lr, lsr #10
     ef0:	052e7903 	streq	r7, [lr, #-2307]!	; 0xfffff6fd
     ef4:	05010618 	streq	r0, [r1, #-1560]	; 0xfffff9e8
     ef8:	1a052e12 	bne	14c748 <__bss_end__+0x1418d8>
     efc:	18054506 	stmdane	r5, {r1, r2, r8, sl, lr}
     f00:	06200501 	strteq	r0, [r0], -r1, lsl #10
     f04:	2e270501 	cfsh64cs	mvdx0, mvdx7, #1
     f08:	2f060305 	svccs	0x00060305
     f0c:	01060b05 	tsteq	r6, r5, lsl #22
     f10:	052e0605 	streq	r0, [lr, #-1541]!	; 0xfffff9fb
     f14:	0e030603 	cfmadd32eq	mvax0, mvfx0, mvfx3, mvfx3
     f18:	0609054a 	streq	r0, [r9], -sl, asr #10
     f1c:	4a060501 	bmi	182328 <__bss_end__+0x1774b8>
     f20:	4c060405 	cfstrsmi	mvf0, [r6], {5}
     f24:	01060d05 	tsteq	r6, r5, lsl #26
     f28:	2e07052e 	cfsh32cs	mvfx0, mvfx7, #30
     f2c:	0006022e 	andeq	r0, r6, lr, lsr #4
     f30:	014b0101 	cmpeq	fp, r1, lsl #2
     f34:	00030000 	andeq	r0, r3, r0
     f38:	000000e4 	andeq	r0, r0, r4, ror #1
     f3c:	0efb0102 	cdpeq	1, 15, cr0, cr11, cr2, {0}
     f40:	0101000d 	tsteq	r1, sp
     f44:	00000101 	andeq	r0, r0, r1, lsl #2
     f48:	00000100 	andeq	r0, r0, r0, lsl #2
     f4c:	6c2f2e01 	stcvs	14, cr2, [pc], #-4	; f50 <__code_start__-0x70b0>
     f50:	00636269 	rsbeq	r6, r3, r9, ror #4
     f54:	6573552f 	ldrbvs	r5, [r3, #-1327]!	; 0xfffffad1
     f58:	742f7372 	strtvc	r7, [pc], #-882	; f60 <__code_start__-0x70a0>
     f5c:	74736972 	ldrbtvc	r6, [r3], #-2418	; 0xfffff68e
     f60:	6f6e6e65 	svcvs	0x006e6e65
     f64:	616d6c6c 	cmnvs	sp, ip, ror #24
     f68:	6f442f6e 	svcvs	0x00442f6e
     f6c:	656d7563 	strbvs	r7, [sp, #-1379]!	; 0xfffffa9d
     f70:	2f73746e 	svccs	0x0073746e
     f74:	69727053 	ldmdbvs	r2!, {r0, r1, r4, r6, ip, sp, lr}^
     f78:	515f676e 	cmppl	pc, lr, ror #14
     f7c:	74726175 	ldrbtvc	r6, [r2], #-373	; 0xfffffe8b
     f80:	325f7265 	subscc	r7, pc, #1342177286	; 0x50000006
     f84:	2f323230 	svccs	0x00323230
     f88:	34325343 	ldrtcc	r5, [r2], #-835	; 0xfffffcbd
     f8c:	2d584c30 	ldclcs	12, cr4, [r8, #-192]	; 0xffffff40
     f90:	32727073 	rsbscc	r7, r2, #115, 0	; 0x73
     f94:	696c2f32 	stmdbvs	ip!, {r1, r4, r5, r8, r9, sl, fp, sp}^
     f98:	2f697062 	svccs	0x00697062
     f9c:	6c636e69 	stclvs	14, cr6, [r3], #-420	; 0xfffffe5c
     fa0:	00656475 	rsbeq	r6, r5, r5, ror r4
     fa4:	7273752f 	rsbsvc	r7, r3, #197132288	; 0xbc00000
     fa8:	636f6c2f 	cmnvs	pc, #12032	; 0x2f00
     fac:	432f6c61 			; <UNDEFINED> instruction: 0x432f6c61
     fb0:	616c6c65 	cmnvs	ip, r5, ror #24
     fb4:	72612f72 	rsbvc	r2, r1, #456	; 0x1c8
     fb8:	6f6e2d6d 	svcvs	0x006e2d6d
     fbc:	652d656e 	strvs	r6, [sp, #-1390]!	; 0xfffffa92
     fc0:	2d696261 	sfmcs	f6, 2, [r9, #-388]!	; 0xfffffe7c
     fc4:	74736574 	ldrbtvc	r6, [r3], #-1396	; 0xfffffa8c
     fc8:	322d392f 	eorcc	r3, sp, #770048	; 0xbc000
     fcc:	71393130 	teqvc	r9, r0, lsr r1
     fd0:	73632d34 	cmnvc	r3, #52, 26	; 0xd00
     fd4:	65373031 	ldrvs	r3, [r7, #-49]!	; 0xffffffcf
     fd8:	62696c2f 	rsbvs	r6, r9, #12032	; 0x2f00
     fdc:	6363672f 	cmnvs	r3, #12320768	; 0xbc0000
     fe0:	6d72612f 	ldfvse	f6, [r2, #-188]!	; 0xffffff44
     fe4:	6e6f6e2d 	cdpvs	14, 6, cr6, cr15, cr13, {1}
     fe8:	61652d65 	cmnvs	r5, r5, ror #26
     fec:	392f6962 	stmdbcc	pc!, {r1, r5, r6, r8, fp, sp, lr}	; <UNPREDICTABLE>
     ff0:	312e322e 			; <UNDEFINED> instruction: 0x312e322e
     ff4:	636e692f 	cmnvs	lr, #770048	; 0xbc000
     ff8:	6564756c 	strbvs	r7, [r4, #-1388]!	; 0xfffffa94
     ffc:	656d0000 	strbvs	r0, [sp, #-0]!
    1000:	706d636d 	rsbvc	r6, sp, sp, ror #6
    1004:	0100632e 	tsteq	r0, lr, lsr #6
    1008:	70720000 	rsbsvc	r0, r2, r0
    100c:	00682e69 	rsbeq	r2, r8, r9, ror #28
    1010:	73000002 	movwvc	r0, #2
    1014:	65646474 	strbvs	r6, [r4, #-1140]!	; 0xfffffb8c
    1018:	00682e66 	rsbeq	r2, r8, r6, ror #28
    101c:	00000003 	andeq	r0, r0, r3
    1020:	05003d05 	streq	r3, [r0, #-3333]	; 0xfffff2fb
    1024:	008e4002 	addeq	r4, lr, r2
    1028:	01061400 	tsteq	r6, r0, lsl #8
    102c:	4b060505 	blmi	182448 <__bss_end__+0x1775d8>
    1030:	01090514 	tsteq	r9, r4, lsl r5
    1034:	01060d05 	tsteq	r6, r5, lsl #26
    1038:	02001405 	andeq	r1, r0, #83886080	; 0x5000000
    103c:	2e060104 	adfcss	f0, f6, f4
    1040:	02000505 	andeq	r0, r0, #20971520	; 0x1400000
    1044:	01060104 	tsteq	r6, r4, lsl #2
    1048:	4b060905 	blmi	183464 <__bss_end__+0x1785f4>
    104c:	01061305 	tsteq	r6, r5, lsl #6
    1050:	052e1b05 	streq	r1, [lr, #-2821]!	; 0xfffff4fb
    1054:	052f0609 	streq	r0, [pc, #-1545]!	; a53 <__code_start__-0x75ad>
    1058:	2e01060b 	cfmadd32cs	mvax0, mvfx0, mvfx1, mvfx11
    105c:	02002005 	andeq	r2, r0, #5, 0
    1060:	2c060204 	sfmcs	f0, 4, [r6], {4}
    1064:	02002105 	andeq	r2, r0, #1073741825	; 0x40000001
    1068:	01060204 	tsteq	r6, r4, lsl #4
    106c:	02040200 	andeq	r0, r4, #0, 4
    1070:	0402002e 	streq	r0, [r2], #-46	; 0xffffffd2
    1074:	0c052e02 	stceq	14, cr2, [r5], {2}
    1078:	2f010517 	svccs	0x00010517
    107c:	01000202 	tsteq	r0, r2, lsl #4
    1080:	0001cb01 	andeq	ip, r1, r1, lsl #22
    1084:	e4000300 	str	r0, [r0], #-768	; 0xfffffd00
    1088:	02000000 	andeq	r0, r0, #0, 0
    108c:	0d0efb01 	vstreq	d15, [lr, #-4]
    1090:	01010100 	mrseq	r0, (UNDEF: 17)
    1094:	00000001 	andeq	r0, r0, r1
    1098:	01000001 	tsteq	r0, r1
    109c:	696c2f2e 	stmdbvs	ip!, {r1, r2, r3, r5, r8, r9, sl, fp, sp}^
    10a0:	2f006362 	svccs	0x00006362
    10a4:	72657355 	rsbvc	r7, r5, #1409286145	; 0x54000001
    10a8:	72742f73 	rsbsvc	r2, r4, #460	; 0x1cc
    10ac:	65747369 	ldrbvs	r7, [r4, #-873]!	; 0xfffffc97
    10b0:	6c6f6e6e 	stclvs	14, cr6, [pc], #-440	; f00 <__code_start__-0x7100>
    10b4:	6e616d6c 	cdpvs	13, 6, cr6, cr1, cr12, {3}
    10b8:	636f442f 	cmnvs	pc, #788529152	; 0x2f000000
    10bc:	6e656d75 	mcrvs	13, 3, r6, cr5, cr5, {3}
    10c0:	532f7374 			; <UNDEFINED> instruction: 0x532f7374
    10c4:	6e697270 	mcrvs	2, 3, r7, cr9, cr0, {3}
    10c8:	75515f67 	ldrbvc	r5, [r1, #-3943]	; 0xfffff099
    10cc:	65747261 	ldrbvs	r7, [r4, #-609]!	; 0xfffffd9f
    10d0:	30325f72 	eorscc	r5, r2, r2, ror pc
    10d4:	432f3232 			; <UNDEFINED> instruction: 0x432f3232
    10d8:	30343253 	eorscc	r3, r4, r3, asr r2
    10dc:	732d584c 			; <UNDEFINED> instruction: 0x732d584c
    10e0:	32327270 	eorscc	r7, r2, #112, 4
    10e4:	62696c2f 	rsbvs	r6, r9, #12032	; 0x2f00
    10e8:	692f6970 	stmdbvs	pc!, {r4, r5, r6, r8, fp, sp, lr}	; <UNPREDICTABLE>
    10ec:	756c636e 	strbvc	r6, [ip, #-878]!	; 0xfffffc92
    10f0:	2f006564 	svccs	0x00006564
    10f4:	2f727375 	svccs	0x00727375
    10f8:	61636f6c 	cmnvs	r3, ip, ror #30
    10fc:	65432f6c 	strbvs	r2, [r3, #-3948]	; 0xfffff094
    1100:	72616c6c 	rsbvc	r6, r1, #108, 24	; 0x6c00
    1104:	6d72612f 	ldfvse	f6, [r2, #-188]!	; 0xffffff44
    1108:	6e6f6e2d 	cdpvs	14, 6, cr6, cr15, cr13, {1}
    110c:	61652d65 	cmnvs	r5, r5, ror #26
    1110:	742d6962 	strtvc	r6, [sp], #-2402	; 0xfffff69e
    1114:	2f747365 	svccs	0x00747365
    1118:	30322d39 	eorscc	r2, r2, r9, lsr sp
    111c:	34713931 	ldrbtcc	r3, [r1], #-2353	; 0xfffff6cf
    1120:	3173632d 	cmncc	r3, sp, lsr #6
    1124:	2f653730 	svccs	0x00653730
    1128:	2f62696c 	svccs	0x0062696c
    112c:	2f636367 	svccs	0x00636367
    1130:	2d6d7261 	sfmcs	f7, 2, [sp, #-388]!	; 0xfffffe7c
    1134:	656e6f6e 	strbvs	r6, [lr, #-3950]!	; 0xfffff092
    1138:	6261652d 	rsbvs	r6, r1, #188743680	; 0xb400000
    113c:	2e392f69 	cdpcs	15, 3, cr2, cr9, cr9, {3}
    1140:	2f312e32 	svccs	0x00312e32
    1144:	6c636e69 	stclvs	14, cr6, [r3], #-420	; 0xfffffe5c
    1148:	00656475 	rsbeq	r6, r5, r5, ror r4
    114c:	6d656d00 	stclvs	13, cr6, [r5, #-0]
    1150:	2e797063 	cdpcs	0, 7, cr7, cr9, cr3, {3}
    1154:	00010063 	andeq	r0, r1, r3, rrx
    1158:	69707200 	ldmdbvs	r0!, {r9, ip, sp, lr}^
    115c:	0200682e 	andeq	r6, r0, #3014656	; 0x2e0000
    1160:	74730000 	ldrbtvc	r0, [r3], #-0
    1164:	66656464 	strbtvs	r6, [r5], -r4, ror #8
    1168:	0300682e 	movweq	r6, #2094	; 0x82e
    116c:	05000000 	streq	r0, [r0, #-0]
    1170:	02050039 	andeq	r0, r5, #57, 0	; 0x39
    1174:	00008e74 	andeq	r8, r0, r4, ror lr
    1178:	17050517 	smladne	r5, r7, r5, r0
    117c:	01060705 	tsteq	r6, r5, lsl #14
    1180:	02001605 	andeq	r1, r0, #5242880	; 0x500000
    1184:	054a0104 	strbeq	r0, [sl, #-260]	; 0xfffffefc
    1188:	04020027 	streq	r0, [r2], #-39	; 0xffffffd9
    118c:	09054a02 	stmdbeq	r5, {r1, r9, fp, lr}
    1190:	02040200 	andeq	r0, r4, #0, 4
    1194:	02004b06 	andeq	r4, r0, #6144	; 0x1800
    1198:	00010204 	andeq	r0, r1, r4, lsl #4
    119c:	01020402 	tsteq	r2, r2, lsl #8
    11a0:	02040200 	andeq	r0, r4, #0, 4
    11a4:	04020001 	streq	r0, [r2], #-1
    11a8:	12051302 	andne	r1, r5, #134217728	; 0x8000000
    11ac:	02040200 	andeq	r0, r4, #0, 4
    11b0:	09050106 	stmdbeq	r5, {r1, r2, r8}
    11b4:	02040200 	andeq	r0, r4, #0, 4
    11b8:	02002f06 	andeq	r2, r0, #6, 30
    11bc:	00130204 	andseq	r0, r3, r4, lsl #4
    11c0:	14020402 	strne	r0, [r2], #-1026	; 0xfffffbfe
    11c4:	02000d05 	andeq	r0, r0, #320	; 0x140
    11c8:	05010204 	streq	r0, [r1, #-516]	; 0xfffffdfc
    11cc:	04020009 	streq	r0, [r2], #-9
    11d0:	05010602 	streq	r0, [r1, #-1538]	; 0xfffff9fe
    11d4:	0402000d 	streq	r0, [r2], #-13
    11d8:	052f0603 	streq	r0, [pc, #-1539]!	; bdd <__code_start__-0x7423>
    11dc:	04020015 	streq	r0, [r2], #-21	; 0xffffffeb
    11e0:	05010603 	streq	r0, [r1, #-1539]	; 0xfffff9fd
    11e4:	04020012 	streq	r0, [r2], #-18	; 0xffffffee
    11e8:	24052e03 	strcs	r2, [r5], #-3587	; 0xfffff1fd
    11ec:	03040200 	movweq	r0, #16896	; 0x4200
    11f0:	25052d06 	strcs	r2, [r5, #-3334]	; 0xfffff2fa
    11f4:	03040200 	movweq	r0, #16896	; 0x4200
    11f8:	1d050106 	stfnes	f0, [r5, #-24]	; 0xffffffe8
    11fc:	01040200 	mrseq	r0, R12_usr
    1200:	09052e06 	stmdbeq	r5, {r1, r2, r9, sl, fp, sp}
    1204:	01040200 	mrseq	r0, R12_usr
    1208:	02000106 	andeq	r0, r0, #-2147483647	; 0x80000001
    120c:	05660104 	strbeq	r0, [r6, #-260]!	; 0xfffffefc
    1210:	0402000d 	streq	r0, [r2], #-13
    1214:	05180603 	ldreq	r0, [r8, #-1539]	; 0xfffff9fd
    1218:	04020015 	streq	r0, [r2], #-21	; 0xffffffeb
    121c:	05010603 	streq	r0, [r1, #-1539]	; 0xfffff9fd
    1220:	04020012 	streq	r0, [r2], #-18	; 0xffffffee
    1224:	29052e03 	stmdbcs	r5, {r0, r1, r9, sl, fp, sp}
    1228:	03040200 	movweq	r0, #16896	; 0x4200
    122c:	2a052d06 	bcs	14c64c <__bss_end__+0x1417dc>
    1230:	03040200 	movweq	r0, #16896	; 0x4200
    1234:	1d050106 	stfnes	f0, [r5, #-24]	; 0xffffffe8
    1238:	01040200 	mrseq	r0, R12_usr
    123c:	09052e06 	stmdbeq	r5, {r1, r2, r9, sl, fp, sp}
    1240:	01040200 	mrseq	r0, R12_usr
    1244:	02000106 	andeq	r0, r0, #-2147483647	; 0x80000001
    1248:	02660104 	rsbeq	r0, r6, #1
    124c:	01010008 	tsteq	r1, r8
    1250:	00000114 	andeq	r0, r0, r4, lsl r1
    1254:	00e40003 	rsceq	r0, r4, r3
    1258:	01020000 	mrseq	r0, (UNDEF: 2)
    125c:	000d0efb 	strdeq	r0, [sp], -fp
    1260:	01010101 	tsteq	r1, r1, lsl #2
    1264:	01000000 	mrseq	r0, (UNDEF: 0)
    1268:	2e010000 	cdpcs	0, 0, cr0, cr1, cr0, {0}
    126c:	62696c2f 	rsbvs	r6, r9, #12032	; 0x2f00
    1270:	552f0063 	strpl	r0, [pc, #-99]!	; 1215 <__code_start__-0x6deb>
    1274:	73726573 	cmnvc	r2, #482344960	; 0x1cc00000
    1278:	6972742f 	ldmdbvs	r2!, {r0, r1, r2, r3, r5, sl, ip, sp, lr}^
    127c:	6e657473 	mcrvs	4, 3, r7, cr5, cr3, {3}
    1280:	6c6c6f6e 	stclvs	15, cr6, [ip], #-440	; 0xfffffe48
    1284:	2f6e616d 	svccs	0x006e616d
    1288:	75636f44 	strbvc	r6, [r3, #-3908]!	; 0xfffff0bc
    128c:	746e656d 	strbtvc	r6, [lr], #-1389	; 0xfffffa93
    1290:	70532f73 	subsvc	r2, r3, r3, ror pc
    1294:	676e6972 			; <UNDEFINED> instruction: 0x676e6972
    1298:	6175515f 	cmnvs	r5, pc, asr r1
    129c:	72657472 	rsbvc	r7, r5, #1912602624	; 0x72000000
    12a0:	3230325f 	eorscc	r3, r0, #-268435451	; 0xf0000005
    12a4:	53432f32 	movtpl	r2, #16178	; 0x3f32
    12a8:	4c303432 	cfldrsmi	mvf3, [r0], #-200	; 0xffffff38
    12ac:	70732d58 	rsbsvc	r2, r3, r8, asr sp
    12b0:	2f323272 	svccs	0x00323272
    12b4:	7062696c 	rsbvc	r6, r2, ip, ror #18
    12b8:	6e692f69 	cdpvs	15, 6, cr2, cr9, cr9, {3}
    12bc:	64756c63 	ldrbtvs	r6, [r5], #-3171	; 0xfffff39d
    12c0:	752f0065 	strvc	r0, [pc, #-101]!	; 1263 <__code_start__-0x6d9d>
    12c4:	6c2f7273 	sfmvs	f7, 4, [pc], #-460	; 1100 <__code_start__-0x6f00>
    12c8:	6c61636f 	stclvs	3, cr6, [r1], #-444	; 0xfffffe44
    12cc:	6c65432f 	stclvs	3, cr4, [r5], #-188	; 0xffffff44
    12d0:	2f72616c 	svccs	0x0072616c
    12d4:	2d6d7261 	sfmcs	f7, 2, [sp, #-388]!	; 0xfffffe7c
    12d8:	656e6f6e 	strbvs	r6, [lr, #-3950]!	; 0xfffff092
    12dc:	6261652d 	rsbvs	r6, r1, #188743680	; 0xb400000
    12e0:	65742d69 	ldrbvs	r2, [r4, #-3433]!	; 0xfffff297
    12e4:	392f7473 	stmdbcc	pc!, {r0, r1, r4, r5, r6, sl, ip, sp, lr}	; <UNPREDICTABLE>
    12e8:	3130322d 	teqcc	r0, sp, lsr #4
    12ec:	2d347139 	ldfcss	f7, [r4, #-228]!	; 0xffffff1c
    12f0:	30317363 	eorscc	r7, r1, r3, ror #6
    12f4:	6c2f6537 	cfstr32vs	mvfx6, [pc], #-220	; 1220 <__code_start__-0x6de0>
    12f8:	672f6269 	strvs	r6, [pc, -r9, ror #4]!
    12fc:	612f6363 			; <UNDEFINED> instruction: 0x612f6363
    1300:	6e2d6d72 	mcrvs	13, 1, r6, cr13, cr2, {3}
    1304:	2d656e6f 	stclcs	14, cr6, [r5, #-444]!	; 0xfffffe44
    1308:	69626165 	stmdbvs	r2!, {r0, r2, r5, r6, r8, sp, lr}^
    130c:	322e392f 	eorcc	r3, lr, #770048	; 0xbc000
    1310:	692f312e 	stmdbvs	pc!, {r1, r2, r3, r5, r8, ip, sp}	; <UNPREDICTABLE>
    1314:	756c636e 	strbvc	r6, [ip, #-878]!	; 0xfffffc92
    1318:	00006564 	andeq	r6, r0, r4, ror #10
    131c:	736d656d 	cmnvc	sp, #457179136	; 0x1b400000
    1320:	632e7465 			; <UNDEFINED> instruction: 0x632e7465
    1324:	00000100 	andeq	r0, r0, r0, lsl #2
    1328:	2e697072 	mcrcs	0, 3, r7, cr9, cr2, {3}
    132c:	00020068 	andeq	r0, r2, r8, rrx
    1330:	64747300 	ldrbtvs	r7, [r4], #-768	; 0xfffffd00
    1334:	2e666564 	cdpcs	5, 6, cr6, cr6, cr4, {3}
    1338:	00030068 	andeq	r0, r3, r8, rrx
    133c:	29050000 	stmdbcs	r5, {}	; <UNPREDICTABLE>
    1340:	d4020500 	strle	r0, [r2], #-1280	; 0xfffffb00
    1344:	1500008e 	strne	r0, [r0, #-142]	; 0xffffff72
    1348:	05130505 	ldreq	r0, [r3, #-1285]	; 0xfffffafb
    134c:	05010614 	streq	r0, [r1, #-1556]	; 0xfffff9ec
    1350:	05300605 	ldreq	r0, [r0, #-1541]!	; 0xfffff9fb
    1354:	0510060b 	ldreq	r0, [r0, #-1547]	; 0xfffff9f5
    1358:	0530060a 	ldreq	r0, [r0, #-1546]!	; 0xfffff9f6
    135c:	0e054b09 	vmlaeq.f64	d4, d5, d9
    1360:	022e0106 	eoreq	r0, lr, #-2147483647	; 0x80000001
    1364:	01010002 	tsteq	r1, r2
    1368:	00000133 	andeq	r0, r0, r3, lsr r1
    136c:	01010003 	tsteq	r1, r3
    1370:	01020000 	mrseq	r0, (UNDEF: 2)
    1374:	000d0efb 	strdeq	r0, [sp], -fp
    1378:	01010101 	tsteq	r1, r1, lsl #2
    137c:	01000000 	mrseq	r0, (UNDEF: 0)
    1380:	2e010000 	cdpcs	0, 0, cr0, cr1, cr0, {0}
    1384:	62696c2f 	rsbvs	r6, r9, #12032	; 0x2f00
    1388:	752f0063 	strvc	r0, [pc, #-99]!	; 132d <__code_start__-0x6cd3>
    138c:	6c2f7273 	sfmvs	f7, 4, [pc], #-460	; 11c8 <__code_start__-0x6e38>
    1390:	6c61636f 	stclvs	3, cr6, [r1], #-444	; 0xfffffe44
    1394:	6c65432f 	stclvs	3, cr4, [r5], #-188	; 0xffffff44
    1398:	2f72616c 	svccs	0x0072616c
    139c:	2d6d7261 	sfmcs	f7, 2, [sp, #-388]!	; 0xfffffe7c
    13a0:	656e6f6e 	strbvs	r6, [lr, #-3950]!	; 0xfffff092
    13a4:	6261652d 	rsbvs	r6, r1, #188743680	; 0xb400000
    13a8:	65742d69 	ldrbvs	r2, [r4, #-3433]!	; 0xfffff297
    13ac:	392f7473 	stmdbcc	pc!, {r0, r1, r4, r5, r6, sl, ip, sp, lr}	; <UNPREDICTABLE>
    13b0:	3130322d 	teqcc	r0, sp, lsr #4
    13b4:	2d347139 	ldfcss	f7, [r4, #-228]!	; 0xffffff1c
    13b8:	30317363 	eorscc	r7, r1, r3, ror #6
    13bc:	6c2f6537 	cfstr32vs	mvfx6, [pc], #-220	; 12e8 <__code_start__-0x6d18>
    13c0:	672f6269 	strvs	r6, [pc, -r9, ror #4]!
    13c4:	612f6363 			; <UNDEFINED> instruction: 0x612f6363
    13c8:	6e2d6d72 	mcrvs	13, 1, r6, cr13, cr2, {3}
    13cc:	2d656e6f 	stclcs	14, cr6, [r5, #-444]!	; 0xfffffe44
    13d0:	69626165 	stmdbvs	r2!, {r0, r2, r5, r6, r8, sp, lr}^
    13d4:	322e392f 	eorcc	r3, lr, #770048	; 0xbc000
    13d8:	692f312e 	stmdbvs	pc!, {r1, r2, r3, r5, r8, ip, sp}	; <UNPREDICTABLE>
    13dc:	756c636e 	strbvc	r6, [ip, #-878]!	; 0xfffffc92
    13e0:	2f006564 	svccs	0x00006564
    13e4:	72657355 	rsbvc	r7, r5, #1409286145	; 0x54000001
    13e8:	72742f73 	rsbsvc	r2, r4, #460	; 0x1cc
    13ec:	65747369 	ldrbvs	r7, [r4, #-873]!	; 0xfffffc97
    13f0:	6c6f6e6e 	stclvs	14, cr6, [pc], #-440	; 1240 <__code_start__-0x6dc0>
    13f4:	6e616d6c 	cdpvs	13, 6, cr6, cr1, cr12, {3}
    13f8:	636f442f 	cmnvs	pc, #788529152	; 0x2f000000
    13fc:	6e656d75 	mcrvs	13, 3, r6, cr5, cr5, {3}
    1400:	532f7374 			; <UNDEFINED> instruction: 0x532f7374
    1404:	6e697270 	mcrvs	2, 3, r7, cr9, cr0, {3}
    1408:	75515f67 	ldrbvc	r5, [r1, #-3943]	; 0xfffff099
    140c:	65747261 	ldrbvs	r7, [r4, #-609]!	; 0xfffffd9f
    1410:	30325f72 	eorscc	r5, r2, r2, ror pc
    1414:	432f3232 			; <UNDEFINED> instruction: 0x432f3232
    1418:	30343253 	eorscc	r3, r4, r3, asr r2
    141c:	732d584c 			; <UNDEFINED> instruction: 0x732d584c
    1420:	32327270 	eorscc	r7, r2, #112, 4
    1424:	62696c2f 	rsbvs	r6, r9, #12032	; 0x2f00
    1428:	692f6970 	stmdbvs	pc!, {r4, r5, r6, r8, fp, sp, lr}	; <UNPREDICTABLE>
    142c:	756c636e 	strbvc	r6, [ip, #-878]!	; 0xfffffc92
    1430:	00006564 	andeq	r6, r0, r4, ror #10
    1434:	6e697270 	mcrvs	2, 3, r7, cr9, cr0, {3}
    1438:	632e6b74 			; <UNDEFINED> instruction: 0x632e6b74
    143c:	00000100 	andeq	r0, r0, r0, lsl #2
    1440:	61647473 	smcvs	18243	; 0x4743
    1444:	682e6772 	stmdavs	lr!, {r1, r4, r5, r6, r8, r9, sl, sp, lr}
    1448:	00000200 	andeq	r0, r0, r0, lsl #4
    144c:	2e697072 	mcrcs	0, 3, r7, cr9, cr2, {3}
    1450:	00030068 	andeq	r0, r3, r8, rrx
    1454:	75623c00 	strbvc	r3, [r2, #-3072]!	; 0xfffff400
    1458:	2d746c69 	ldclcs	12, cr6, [r4, #-420]!	; 0xfffffe5c
    145c:	003e6e69 	eorseq	r6, lr, r9, ror #28
    1460:	76000000 	strvc	r0, [r0], -r0
    1464:	72702d61 	rsbsvc	r2, r0, #6208	; 0x1840
    1468:	6b746e69 	blvs	1d1ce14 <__bss_end__+0x1d11fa4>
    146c:	0100682e 	tsteq	r0, lr, lsr #16
    1470:	05000000 	streq	r0, [r0, #-0]
    1474:	02050022 	andeq	r0, r5, #34, 0	; 0x22
    1478:	00008eec 	andeq	r8, r0, ip, ror #29
    147c:	05010617 	streq	r0, [r1, #-1559]	; 0xfffff9e9
    1480:	13680605 	cmnne	r8, #5242880	; 0x500000
    1484:	4b090514 	blmi	2428dc <__bss_end__+0x237a6c>
    1488:	01061205 	tsteq	r6, r5, lsl #4
    148c:	bb060505 	bllt	1828a8 <__bss_end__+0x177a38>
    1490:	06660616 			; <UNDEFINED> instruction: 0x06660616
    1494:	06010534 			; <UNDEFINED> instruction: 0x06010534
    1498:	08026613 	stmdaeq	r2, {r0, r1, r4, r9, sl, sp, lr}
    149c:	cb010100 	blgt	418a4 <__bss_end__+0x36a34>
    14a0:	03000000 	movweq	r0, #0
    14a4:	00007d00 	andeq	r7, r0, r0, lsl #26
    14a8:	fb010200 	blx	41cb2 <__bss_end__+0x36e42>
    14ac:	01000d0e 	tsteq	r0, lr, lsl #26
    14b0:	00010101 	andeq	r0, r1, r1, lsl #2
    14b4:	00010000 	andeq	r0, r1, r0
    14b8:	2f2e0100 	svccs	0x002e0100
    14bc:	6362696c 	cmnvs	r2, #108, 18	; 0x1b0000
    14c0:	73552f00 	cmpvc	r5, #0, 30
    14c4:	2f737265 	svccs	0x00737265
    14c8:	73697274 	cmnvc	r9, #116, 4	; 0x40000007
    14cc:	6e6e6574 	mcrvs	5, 3, r6, cr14, cr4, {3}
    14d0:	6d6c6c6f 	stclvs	12, cr6, [ip, #-444]!	; 0xfffffe44
    14d4:	442f6e61 	strtmi	r6, [pc], #-3681	; 14dc <__code_start__-0x6b24>
    14d8:	6d75636f 	ldclvs	3, cr6, [r5, #-444]!	; 0xfffffe44
    14dc:	73746e65 	cmnvc	r4, #1616	; 0x650
    14e0:	7270532f 	rsbsvc	r5, r0, #-1140850688	; 0xbc000000
    14e4:	5f676e69 	svcpl	0x00676e69
    14e8:	72617551 	rsbvc	r7, r1, #339738624	; 0x14400000
    14ec:	5f726574 	svcpl	0x00726574
    14f0:	32323032 	eorscc	r3, r2, #50, 0	; 0x32
    14f4:	3253432f 	subscc	r4, r3, #-1140850688	; 0xbc000000
    14f8:	584c3034 	stmdapl	ip, {r2, r4, r5, ip, sp}^
    14fc:	7270732d 	rsbsvc	r7, r0, #-1275068416	; 0xb4000000
    1500:	6c2f3232 	sfmvs	f3, 4, [pc], #-200	; 1440 <__code_start__-0x6bc0>
    1504:	69706269 	ldmdbvs	r0!, {r0, r3, r5, r6, r9, sp, lr}^
    1508:	636e692f 	cmnvs	lr, #770048	; 0xbc000
    150c:	6564756c 	strbvs	r7, [r4, #-1388]!	; 0xfffffa94
    1510:	75700000 	ldrbvc	r0, [r0, #-0]!
    1514:	632e6b74 			; <UNDEFINED> instruction: 0x632e6b74
    1518:	00000100 	andeq	r0, r0, r0, lsl #2
    151c:	2e697072 	mcrcs	0, 3, r7, cr9, cr2, {3}
    1520:	00020068 	andeq	r0, r2, r8, rrx
    1524:	22050000 	andcs	r0, r5, #0, 0
    1528:	44020500 	strmi	r0, [r2], #-1280	; 0xfffffb00
    152c:	1500008f 	strne	r0, [r0, #-143]	; 0xffffff71
    1530:	05050106 	streq	r0, [r5, #-262]	; 0xfffffefa
    1534:	0b054b06 	bleq	154154 <__bss_end__+0x1492e4>
    1538:	01040200 	mrseq	r0, R12_usr
    153c:	00050501 	andeq	r0, r5, r1, lsl #10
    1540:	06010402 	streq	r0, [r1], -r2, lsl #8
    1544:	0009052e 	andeq	r0, r9, lr, lsr #10
    1548:	06020402 	streq	r0, [r2], -r2, lsl #8
    154c:	000f054b 	andeq	r0, pc, fp, asr #10
    1550:	65020402 	strvs	r0, [r2, #-1026]	; 0xfffffbfe
    1554:	02001005 	andeq	r1, r0, #5, 0
    1558:	01060204 	tsteq	r6, r4, lsl #4
    155c:	02040200 	andeq	r0, r4, #0, 4
    1560:	0605052e 	streq	r0, [r5], -lr, lsr #10
    1564:	06010532 			; <UNDEFINED> instruction: 0x06010532
    1568:	00060213 	andeq	r0, r6, r3, lsl r2
    156c:	00dd0101 	sbcseq	r0, sp, r1, lsl #2
    1570:	00030000 	andeq	r0, r3, r0
    1574:	00000081 	andeq	r0, r0, r1, lsl #1
    1578:	0efb0102 	cdpeq	1, 15, cr0, cr11, cr2, {0}
    157c:	0101000d 	tsteq	r1, sp
    1580:	00000101 	andeq	r0, r0, r1, lsl #2
    1584:	00000100 	andeq	r0, r0, r0, lsl #2
    1588:	6c2f2e01 	stcvs	14, cr2, [pc], #-4	; 158c <__code_start__-0x6a74>
    158c:	00636269 	rsbeq	r6, r3, r9, ror #4
    1590:	6573552f 	ldrbvs	r5, [r3, #-1327]!	; 0xfffffad1
    1594:	742f7372 	strtvc	r7, [pc], #-882	; 159c <__code_start__-0x6a64>
    1598:	74736972 	ldrbtvc	r6, [r3], #-2418	; 0xfffff68e
    159c:	6f6e6e65 	svcvs	0x006e6e65
    15a0:	616d6c6c 	cmnvs	sp, ip, ror #24
    15a4:	6f442f6e 	svcvs	0x00442f6e
    15a8:	656d7563 	strbvs	r7, [sp, #-1379]!	; 0xfffffa9d
    15ac:	2f73746e 	svccs	0x0073746e
    15b0:	69727053 	ldmdbvs	r2!, {r0, r1, r4, r6, ip, sp, lr}^
    15b4:	515f676e 	cmppl	pc, lr, ror #14
    15b8:	74726175 	ldrbtvc	r6, [r2], #-373	; 0xfffffe8b
    15bc:	325f7265 	subscc	r7, pc, #1342177286	; 0x50000006
    15c0:	2f323230 	svccs	0x00323230
    15c4:	34325343 	ldrtcc	r5, [r2], #-835	; 0xfffffcbd
    15c8:	2d584c30 	ldclcs	12, cr4, [r8, #-192]	; 0xffffff40
    15cc:	32727073 	rsbscc	r7, r2, #115, 0	; 0x73
    15d0:	696c2f32 	stmdbvs	ip!, {r1, r4, r5, r8, r9, sl, fp, sp}^
    15d4:	2f697062 	svccs	0x00697062
    15d8:	6c636e69 	stclvs	14, cr6, [r3], #-420	; 0xfffffe5c
    15dc:	00656475 	rsbeq	r6, r5, r5, ror r4
    15e0:	69707200 	ldmdbvs	r0!, {r9, ip, sp, lr}^
    15e4:	6e61722d 	cdpvs	2, 6, cr7, cr1, cr13, {1}
    15e8:	00632e64 	rsbeq	r2, r3, r4, ror #28
    15ec:	72000001 	andvc	r0, r0, #1, 0
    15f0:	682e6970 	stmdavs	lr!, {r4, r5, r6, r8, fp, sp, lr}
    15f4:	00000200 	andeq	r0, r0, r0, lsl #4
    15f8:	00210500 	eoreq	r0, r1, r0, lsl #10
    15fc:	8f780205 	svchi	0x00780205
    1600:	0a030000 	beq	c1608 <__bss_end__+0xb6798>
    1604:	13050501 	movwne	r0, #21761	; 0x5501
    1608:	01061905 	tsteq	r6, r5, lsl #18
    160c:	05662705 	strbeq	r2, [r6, #-1797]!	; 0xfffff8fb
    1610:	05052e35 	streq	r2, [r5, #-3637]	; 0xfffff1cb
    1614:	20052f06 	andcs	r2, r5, r6, lsl #30
    1618:	19050106 	stmdbne	r5, {r1, r2, r8}
    161c:	4a0a052e 	bmi	282adc <__bss_end__+0x277c6c>
    1620:	2f060505 	svccs	0x00060505
    1624:	13060105 	movwne	r0, #24837	; 0x6105
    1628:	4c062005 	stcmi	0, cr2, [r6], {5}
    162c:	052f0505 	streq	r0, [pc, #-1285]!	; 112f <__code_start__-0x6ed1>
    1630:	0501060d 	streq	r0, [r1, #-1549]	; 0xfffff9f3
    1634:	23052e1a 	movwcs	r2, #24090	; 0x5e1a
    1638:	2f01052e 	svccs	0x0001052e
    163c:	4d061f05 	stcmi	15, cr1, [r6, #-20]	; 0xffffffec
    1640:	05130505 	ldreq	r0, [r3, #-1285]	; 0xfffffafb
    1644:	0501060a 	streq	r0, [r1, #-1546]	; 0xfffff9f6
    1648:	06026701 	streq	r6, [r2], -r1, lsl #14
    164c:	1d010100 	stfnes	f0, [r1, #-0]
    1650:	03000006 	movweq	r0, #6
    1654:	00011700 	andeq	r1, r1, r0, lsl #14
    1658:	fb010200 	blx	41e62 <__bss_end__+0x36ff2>
    165c:	01000d0e 	tsteq	r0, lr, lsl #26
    1660:	00010101 	andeq	r0, r1, r1, lsl #2
    1664:	00010000 	andeq	r0, r1, r0
    1668:	2f2e0100 	svccs	0x002e0100
    166c:	6362696c 	cmnvs	r2, #108, 18	; 0x1b0000
    1670:	73752f00 	cmnvc	r5, #0, 30
    1674:	6f6c2f72 	svcvs	0x006c2f72
    1678:	2f6c6163 	svccs	0x006c6163
    167c:	6c6c6543 	cfstr64vs	mvdx6, [ip], #-268	; 0xfffffef4
    1680:	612f7261 			; <UNDEFINED> instruction: 0x612f7261
    1684:	6e2d6d72 	mcrvs	13, 1, r6, cr13, cr2, {3}
    1688:	2d656e6f 	stclcs	14, cr6, [r5, #-444]!	; 0xfffffe44
    168c:	69626165 	stmdbvs	r2!, {r0, r2, r5, r6, r8, sp, lr}^
    1690:	7365742d 	cmnvc	r5, #754974720	; 0x2d000000
    1694:	2d392f74 	ldccs	15, cr2, [r9, #-464]!	; 0xfffffe30
    1698:	39313032 	ldmdbcc	r1!, {r1, r4, r5, ip, sp}
    169c:	632d3471 			; <UNDEFINED> instruction: 0x632d3471
    16a0:	37303173 			; <UNDEFINED> instruction: 0x37303173
    16a4:	696c2f65 	stmdbvs	ip!, {r0, r2, r5, r6, r8, r9, sl, fp, sp}^
    16a8:	63672f62 	cmnvs	r7, #392	; 0x188
    16ac:	72612f63 	rsbvc	r2, r1, #396	; 0x18c
    16b0:	6f6e2d6d 	svcvs	0x006e2d6d
    16b4:	652d656e 	strvs	r6, [sp, #-1390]!	; 0xfffffa92
    16b8:	2f696261 	svccs	0x00696261
    16bc:	2e322e39 	mrccs	14, 1, r2, cr2, cr9, {1}
    16c0:	6e692f31 	mcrvs	15, 3, r2, cr9, cr1, {1}
    16c4:	64756c63 	ldrbtvs	r6, [r5], #-3171	; 0xfffff39d
    16c8:	552f0065 	strpl	r0, [pc, #-101]!	; 166b <__code_start__-0x6995>
    16cc:	73726573 	cmnvc	r2, #482344960	; 0x1cc00000
    16d0:	6972742f 	ldmdbvs	r2!, {r0, r1, r2, r3, r5, sl, ip, sp, lr}^
    16d4:	6e657473 	mcrvs	4, 3, r7, cr5, cr3, {3}
    16d8:	6c6c6f6e 	stclvs	15, cr6, [ip], #-440	; 0xfffffe48
    16dc:	2f6e616d 	svccs	0x006e616d
    16e0:	75636f44 	strbvc	r6, [r3, #-3908]!	; 0xfffff0bc
    16e4:	746e656d 	strbtvc	r6, [lr], #-1389	; 0xfffffa93
    16e8:	70532f73 	subsvc	r2, r3, r3, ror pc
    16ec:	676e6972 			; <UNDEFINED> instruction: 0x676e6972
    16f0:	6175515f 	cmnvs	r5, pc, asr r1
    16f4:	72657472 	rsbvc	r7, r5, #1912602624	; 0x72000000
    16f8:	3230325f 	eorscc	r3, r0, #-268435451	; 0xf0000005
    16fc:	53432f32 	movtpl	r2, #16178	; 0x3f32
    1700:	4c303432 	cfldrsmi	mvf3, [r0], #-200	; 0xffffff38
    1704:	70732d58 	rsbsvc	r2, r3, r8, asr sp
    1708:	2f323272 	svccs	0x00323272
    170c:	7062696c 	rsbvc	r6, r2, ip, ror #18
    1710:	6e692f69 	cdpvs	15, 6, cr2, cr9, cr9, {3}
    1714:	64756c63 	ldrbtvs	r6, [r5], #-3171	; 0xfffff39d
    1718:	76000065 	strvc	r0, [r0], -r5, rrx
    171c:	72702d61 	rsbsvc	r2, r0, #6208	; 0x1840
    1720:	6b746e69 	blvs	1d1d0cc <__bss_end__+0x1d1225c>
    1724:	0100632e 	tsteq	r0, lr, lsr #6
    1728:	74730000 	ldrbtvc	r0, [r3], #-0
    172c:	746e6964 	strbtvc	r6, [lr], #-2404	; 0xfffff69c
    1730:	6363672d 	cmnvs	r3, #11796480	; 0xb40000
    1734:	0200682e 	andeq	r6, r0, #3014656	; 0x2e0000
    1738:	70720000 	rsbsvc	r0, r2, r0
    173c:	00682e69 	rsbeq	r2, r8, r9, ror #28
    1740:	72000003 	andvc	r0, r0, #3, 0
    1744:	692d6970 	pushvs	{r4, r5, r6, r8, fp, sp, lr}
    1748:	7265746e 	rsbvc	r7, r5, #1845493760	; 0x6e000000
    174c:	2e6c616e 	powcsez	f6, f4, #0.5
    1750:	00030068 	andeq	r0, r3, r8, rrx
    1754:	64747300 	ldrbtvs	r7, [r4], #-768	; 0xfffffd00
    1758:	2e677261 	cdpcs	2, 6, cr7, cr7, cr1, {3}
    175c:	00020068 	andeq	r0, r2, r8, rrx
    1760:	75623c00 	strbvc	r3, [r2, #-3072]!	; 0xfffff400
    1764:	2d746c69 	ldclcs	12, cr6, [r4, #-420]!	; 0xfffffe5c
    1768:	003e6e69 	eorseq	r6, lr, r9, ror #28
    176c:	00000000 	andeq	r0, r0, r0
    1770:	05001b05 	streq	r1, [r0, #-2821]	; 0xfffff4fb
    1774:	008fd402 	addeq	sp, pc, r2, lsl #8
    1778:	01260300 			; <UNDEFINED> instruction: 0x01260300
    177c:	05011d05 	streq	r1, [r1, #-3333]	; 0xfffff2fb
    1780:	0501062d 	streq	r0, [r1, #-1581]	; 0xfffff9d3
    1784:	054a2e01 	strbeq	r2, [sl, #-3585]	; 0xfffff1ff
    1788:	05510633 	ldrbeq	r0, [r1, #-1587]	; 0xfffff9cd
    178c:	06051302 	streq	r1, [r5], -r2, lsl #6
    1790:	02050106 	andeq	r0, r5, #-2147483647	; 0x80000001
    1794:	08053006 	stmdaeq	r5, {r1, r2, ip, sp}
    1798:	01040200 	mrseq	r0, R12_usr
    179c:	00020501 	andeq	r0, r2, r1, lsl #10
    17a0:	06010402 	streq	r0, [r1], -r2, lsl #8
    17a4:	00030501 	andeq	r0, r3, r1, lsl #10
    17a8:	06020402 	streq	r0, [r2], -r2, lsl #8
    17ac:	0008052f 	andeq	r0, r8, pc, lsr #10
    17b0:	06020402 	streq	r0, [r2], -r2, lsl #8
    17b4:	00150501 	andseq	r0, r5, r1, lsl #10
    17b8:	06020402 	streq	r0, [r2], -r2, lsl #8
    17bc:	00180549 	andseq	r0, r8, r9, asr #10
    17c0:	06020402 	streq	r0, [r2], -r2, lsl #8
    17c4:	04020001 	streq	r0, [r2], #-1
    17c8:	02052e02 	andeq	r2, r5, #2, 28
    17cc:	05053006 	streq	r3, [r5, #-6]
    17d0:	02050106 	andeq	r0, r5, #-2147483647	; 0x80000001
    17d4:	01054b06 	tsteq	r5, r6, lsl #22
    17d8:	3e051306 	cdpcc	3, 0, cr1, cr5, cr6, {0}
    17dc:	02053106 	andeq	r3, r5, #-2147483647	; 0x80000001
    17e0:	060e0514 			; <UNDEFINED> instruction: 0x060e0514
    17e4:	2e060501 	cfsh32cs	mvfx0, mvfx6, #1
    17e8:	2f060205 	svccs	0x00060205
    17ec:	01060405 	tsteq	r6, r5, lsl #8
    17f0:	2f060305 	svccs	0x00060305
    17f4:	01061105 	tsteq	r6, r5, lsl #2
    17f8:	052e0905 	streq	r0, [lr, #-2309]!	; 0xfffff6fb
    17fc:	15300602 	ldrne	r0, [r0, #-1538]!	; 0xfffff9fe
    1800:	01060705 	tsteq	r6, r5, lsl #14
    1804:	052e0205 	streq	r0, [lr, #-517]!	; 0xfffffdfb
    1808:	0402000b 	streq	r0, [r2], #-11
    180c:	052e0601 	streq	r0, [lr, #-1537]!	; 0xfffff9ff
    1810:	04020002 	streq	r0, [r2], #-2
    1814:	05010601 	streq	r0, [r1, #-1537]	; 0xfffff9ff
    1818:	04020003 	streq	r0, [r2], #-3
    181c:	052f0603 	streq	r0, [pc, #-1539]!	; 1221 <__code_start__-0x6ddf>
    1820:	0402000c 	streq	r0, [r2], #-12
    1824:	05010603 	streq	r0, [r1, #-1539]	; 0xfffff9fd
    1828:	0402000a 	streq	r0, [r2], #-10
    182c:	17052e03 	strne	r2, [r5, -r3, lsl #28]
    1830:	03040200 	movweq	r0, #16896	; 0x4200
    1834:	02002d06 	andeq	r2, r0, #384	; 0x180
    1838:	01060304 	tsteq	r6, r4, lsl #6
    183c:	30060205 	andcc	r0, r6, r5, lsl #4
    1840:	01060905 	tsteq	r6, r5, lsl #18
    1844:	0602052e 	streq	r0, [r2], -lr, lsr #10
    1848:	06010530 			; <UNDEFINED> instruction: 0x06010530
    184c:	06490513 			; <UNDEFINED> instruction: 0x06490513
    1850:	05010631 	streq	r0, [r1, #-1585]	; 0xfffff9cf
    1854:	05a00602 	streq	r0, [r0, #1538]!	; 0x602
    1858:	05010604 	streq	r0, [r1, #-1540]	; 0xfffff9fc
    185c:	052f0603 	streq	r0, [pc, #-1539]!	; 1261 <__code_start__-0x6d9f>
    1860:	05010609 	streq	r0, [r1, #-1545]	; 0xfffff9f7
    1864:	13300602 	teqne	r0, #2097152	; 0x200000
    1868:	01060b05 	tsteq	r6, r5, lsl #22
    186c:	30060205 	andcc	r0, r6, r5, lsl #4
    1870:	04052e06 	streq	r2, [r5], #-3590	; 0xfffff1fa
    1874:	15240206 	strne	r0, [r4, #-518]!	; 0xfffffdfa
    1878:	060f0513 			; <UNDEFINED> instruction: 0x060f0513
    187c:	06052e01 	streq	r2, [r5], -r1, lsl #28
    1880:	0605054a 	streq	r0, [r5], -sl, asr #10
    1884:	0905134b 	stmdbeq	r5, {r0, r1, r3, r6, r8, r9, ip}
    1888:	05050106 	streq	r0, [r5, #-262]	; 0xfffffefa
    188c:	0b052f06 	bleq	14d4ac <__bss_end__+0x14263c>
    1890:	0d051006 	stceq	0, cr1, [r5, #-24]	; 0xffffffe8
    1894:	01040200 	mrseq	r0, R12_usr
    1898:	0004052c 	andeq	r0, r4, ip, lsr #10
    189c:	06010402 	streq	r0, [r1], -r2, lsl #8
    18a0:	00050534 	andeq	r0, r5, r4, lsr r5
    18a4:	13010402 	movwne	r0, #5122	; 0x1402
    18a8:	02001b05 	andeq	r1, r0, #5120	; 0x1400
    18ac:	01060104 	tsteq	r6, r4, lsl #2
    18b0:	02000705 	andeq	r0, r0, #1310720	; 0x140000
    18b4:	05d60104 	ldrbeq	r0, [r6, #260]	; 0x104
    18b8:	04020018 	streq	r0, [r2], #-24	; 0xffffffe8
    18bc:	0a052e01 	beq	14d0c8 <__bss_end__+0x142258>
    18c0:	01040200 	mrseq	r0, R12_usr
    18c4:	000b054a 	andeq	r0, fp, sl, asr #10
    18c8:	06010402 	streq	r0, [r1], -r2, lsl #8
    18cc:	000e052f 	andeq	r0, lr, pc, lsr #10
    18d0:	06010402 	streq	r0, [r1], -r2, lsl #8
    18d4:	0004052e 	andeq	r0, r4, lr, lsr #10
    18d8:	2e010402 	cdpcs	4, 0, cr0, cr1, cr2, {0}
    18dc:	06054b06 	streq	r4, [r5], -r6, lsl #22
    18e0:	05050106 	streq	r0, [r5, #-262]	; 0xfffffefa
    18e4:	0a052f06 	beq	14d504 <__bss_end__+0x142694>
    18e8:	07050106 	streq	r0, [r5, -r6, lsl #2]
    18ec:	0d052e4a 	stceq	14, cr2, [r5, #-296]	; 0xfffffed8
    18f0:	4a2e7603 	bmi	b9f104 <__bss_end__+0xb94294>
    18f4:	050d0b05 	streq	r0, [sp, #-2821]	; 0xfffff4fb
    18f8:	0402000d 	streq	r0, [r2], #-13
    18fc:	14030601 	strne	r0, [r3], #-1537	; 0xfffff9ff
    1900:	0011052e 	andseq	r0, r1, lr, lsr #10
    1904:	13010402 	movwne	r0, #5122	; 0x1402
    1908:	02002d05 	andeq	r2, r0, #320	; 0x140
    190c:	01060104 	tsteq	r6, r4, lsl #2
    1910:	02002a05 	andeq	r2, r0, #20480	; 0x5000
    1914:	052e0104 	streq	r0, [lr, #-260]!	; 0xfffffefc
    1918:	04020016 	streq	r0, [r2], #-22	; 0xffffffea
    191c:	14054a01 	strne	r4, [r5], #-2561	; 0xfffff5ff
    1920:	01040200 	mrseq	r0, R12_usr
    1924:	0d054b06 	vstreq	d4, [r5, #-24]	; 0xffffffe8
    1928:	01040200 	mrseq	r0, R12_usr
    192c:	02000106 	andeq	r0, r0, #-2147483647	; 0x80000001
    1930:	064a0104 	strbeq	r0, [sl], -r4, lsl #2
    1934:	0612052f 	ldreq	r0, [r2], -pc, lsr #10
    1938:	0d054a01 	vstreq	s8, [r5, #-4]
    193c:	12052f06 	andne	r2, r5, #6, 30
    1940:	19050106 	stmdbne	r5, {r1, r2, r8}
    1944:	04054b06 	streq	r4, [r5], #-2822	; 0xfffff4fa
    1948:	02040200 	andeq	r0, r4, #0, 4
    194c:	00011103 	andeq	r1, r1, r3, lsl #2
    1950:	01020402 	tsteq	r2, r2, lsl #8
    1954:	02000205 	andeq	r0, r0, #1342177280	; 0x50000000
    1958:	05150204 	ldreq	r0, [r5, #-516]	; 0xfffffdfc
    195c:	04020009 	streq	r0, [r2], #-9
    1960:	00010602 	andeq	r0, r1, r2, lsl #12
    1964:	4a020402 	bmi	82974 <__bss_end__+0x77b04>
    1968:	02000105 	andeq	r0, r0, #1073741825	; 0x40000001
    196c:	059f0204 	ldreq	r0, [pc, #516]	; 1b78 <__code_start__-0x6488>
    1970:	6e030604 	cfmadd32vs	mvax0, mvfx0, mvfx3, mvfx4
    1974:	0609054a 	streq	r0, [r9], -sl, asr #10
    1978:	06040501 	streq	r0, [r4], -r1, lsl #10
    197c:	0606052f 	streq	r0, [r6], -pc, lsr #10
    1980:	2f040511 	svccs	0x00040511
    1984:	63030b05 	movwvs	r0, #15109	; 0x3b05
    1988:	0019052e 	andseq	r0, r9, lr, lsr #10
    198c:	06010402 	streq	r0, [r1], -r2, lsl #8
    1990:	052e2403 	streq	r2, [lr, #-1027]!	; 0xfffffbfd
    1994:	0402001a 	streq	r0, [r2], #-26	; 0xffffffe6
    1998:	28051301 	stmdacs	r5, {r0, r8, r9, ip}
    199c:	01040200 	mrseq	r0, R12_usr
    19a0:	25050106 	strcs	r0, [r5, #-262]	; 0xfffffefa
    19a4:	01040200 	mrseq	r0, R12_usr
    19a8:	001f052e 	andseq	r0, pc, lr, lsr #10
    19ac:	4a010402 	bmi	429bc <__bss_end__+0x37b4c>
    19b0:	02000b05 	andeq	r0, r0, #5120	; 0x1400
    19b4:	4b060104 	blmi	181dcc <__bss_end__+0x176f5c>
    19b8:	02000405 	andeq	r0, r0, #83886080	; 0x5000000
    19bc:	01060104 	tsteq	r6, r4, lsl #2
    19c0:	01040200 	mrseq	r0, R12_usr
    19c4:	0402004a 	streq	r0, [r2], #-74	; 0xffffffb6
    19c8:	004e0601 	subeq	r0, lr, r1, lsl #12
    19cc:	01010402 	tsteq	r1, r2, lsl #8
    19d0:	01040200 	mrseq	r0, R12_usr
    19d4:	04020001 	streq	r0, [r2], #-1
    19d8:	02000101 	andeq	r0, r0, #1073741824	; 0x40000000
    19dc:	2e060104 	adfcss	f0, f6, f4
    19e0:	01040200 	mrseq	r0, R12_usr
    19e4:	04020066 	streq	r0, [r2], #-102	; 0xffffff9a
    19e8:	02002e01 	andeq	r2, r0, #1, 28
    19ec:	4a060104 	bmi	181e04 <__bss_end__+0x176f94>
    19f0:	a6034805 	strge	r4, [r3], -r5, lsl #16
    19f4:	0520087f 	streq	r0, [r0, #-2175]!	; 0xfffff781
    19f8:	06011305 	streq	r1, [r1], -r5, lsl #6
    19fc:	0402002e 	streq	r0, [r2], #-46	; 0xffffffd2
    1a00:	002e0602 	eoreq	r0, lr, r2, lsl #12
    1a04:	01020402 	tsteq	r2, r2, lsl #8
    1a08:	02040200 	andeq	r0, r4, #0, 4
    1a0c:	00110513 	andseq	r0, r1, r3, lsl r5
    1a10:	06020402 	streq	r0, [r2], -r2, lsl #8
    1a14:	00050501 	andeq	r0, r5, r1, lsl #10
    1a18:	06020402 	streq	r0, [r2], -r2, lsl #8
    1a1c:	0007054b 	andeq	r0, r7, fp, asr #10
    1a20:	06020402 	streq	r0, [r2], -r2, lsl #8
    1a24:	06090501 	streq	r0, [r9], -r1, lsl #10
    1a28:	060e054b 	streq	r0, [lr], -fp, asr #10
    1a2c:	00480501 	subeq	r0, r8, r1, lsl #10
    1a30:	62010402 	andvs	r0, r1, #33554432	; 0x2000000
    1a34:	02000505 	andeq	r0, r0, #20971520	; 0x1400000
    1a38:	4b060104 	blmi	181e50 <__bss_end__+0x176fe0>
    1a3c:	01040200 	mrseq	r0, R12_usr
    1a40:	04020001 	streq	r0, [r2], #-1
    1a44:	009e0601 	addseq	r0, lr, r1, lsl #12
    1a48:	2e010402 	cdpcs	4, 0, cr0, cr1, cr2, {0}
    1a4c:	01040200 	mrseq	r0, R12_usr
    1a50:	40052e06 	andmi	r2, r5, r6, lsl #28
    1a54:	d600e103 	strle	lr, [r0], -r3, lsl #2
    1a58:	02050106 	andeq	r0, r5, #-2147483647	; 0x80000001
    1a5c:	1e059f06 	cdpne	15, 0, cr9, cr5, cr6, {0}
    1a60:	12050106 	andne	r0, r5, #-2147483647	; 0x80000001
    1a64:	0605052e 	streq	r0, [r5], -lr, lsr #10
    1a68:	1402052f 	strne	r0, [r2], #-1327	; 0xfffffad1
    1a6c:	01060905 	tsteq	r6, r5, lsl #18
    1a70:	4b060505 	blmi	182e8c <__bss_end__+0x17801c>
    1a74:	05130205 	ldreq	r0, [r3, #-517]	; 0xfffffdfb
    1a78:	050d0608 	streq	r0, [sp, #-1544]	; 0xfffff9f8
    1a7c:	04053302 	streq	r3, [r5], #-770	; 0xfffffcfe
    1a80:	0f054c06 	svceq	0x00054c06
    1a84:	09050106 	stmdbeq	r5, {r1, r2, r8}
    1a88:	0608052e 	streq	r0, [r8], -lr, lsr #10
    1a8c:	0602052c 	streq	r0, [r2], -ip, lsr #10
    1a90:	000d052e 	andeq	r0, sp, lr, lsr #10
    1a94:	4a010402 	bmi	42aa4 <__bss_end__+0x37c34>
    1a98:	4b060305 	blmi	1826b4 <__bss_end__+0x177844>
    1a9c:	01060505 	tsteq	r6, r5, lsl #10
    1aa0:	4d060805 	stcmi	8, cr0, [r6, #-20]	; 0xffffffec
    1aa4:	01060e05 	tsteq	r6, r5, lsl #28
    1aa8:	052e0a05 	streq	r0, [lr, #-2565]!	; 0xfffff5fb
    1aac:	052f0604 	streq	r0, [pc, #-1540]!	; 14b0 <__code_start__-0x6b50>
    1ab0:	05010609 	streq	r0, [r1, #-1545]	; 0xfffff9f7
    1ab4:	052f0604 	streq	r0, [pc, #-1540]!	; 14b8 <__code_start__-0x6b48>
    1ab8:	2e010607 	cfmadd32cs	mvax0, mvfx0, mvfx1, mvfx7
    1abc:	30060405 	andcc	r0, r6, r5, lsl #8
    1ac0:	01060705 	tsteq	r6, r5, lsl #14
    1ac4:	30060405 	andcc	r0, r6, r5, lsl #8
    1ac8:	0d051413 	cfstrseq	mvf1, [r5, #-76]	; 0xffffffb4
    1acc:	09051006 	stmdbeq	r5, {r1, r2, ip}
    1ad0:	12053006 	andne	r3, r5, #6, 0
    1ad4:	0a050106 	beq	141ef4 <__bss_end__+0x137084>
    1ad8:	6609052e 	strvs	r0, [r9], -lr, lsr #10
    1adc:	4b060505 	blmi	182ef8 <__bss_end__+0x178088>
    1ae0:	01061205 	tsteq	r6, r5, lsl #4
    1ae4:	052e1605 	streq	r1, [lr, #-1541]!	; 0xfffff9fb
    1ae8:	05052e0b 	streq	r2, [r5, #-3595]	; 0xfffff1f5
    1aec:	08052f06 	stmdaeq	r5, {r1, r2, r8, r9, sl, fp, sp}
    1af0:	052e0106 	streq	r0, [lr, #-262]!	; 0xfffffefa
    1af4:	01300604 	teqeq	r0, r4, lsl #12
    1af8:	0015014a 	andseq	r0, r5, sl, asr #2
    1afc:	02010402 	andeq	r0, r1, #33554432	; 0x2000000
    1b00:	02000f36 	andeq	r0, r0, #216	; 0xd8
    1b04:	00010104 	andeq	r0, r1, r4, lsl #2
    1b08:	d6010402 	strle	r0, [r1], -r2, lsl #8
    1b0c:	13341105 	teqne	r4, #1073741825	; 0x40000001
    1b10:	04020001 	streq	r0, [r2], #-1
    1b14:	00ba0602 	adcseq	r0, sl, r2, lsl #12
    1b18:	06030402 	streq	r0, [r3], -r2, lsl #8
    1b1c:	040200ba 	streq	r0, [r2], #-186	; 0xffffff46
    1b20:	02000103 	andeq	r0, r0, #-1073741824	; 0xc0000000
    1b24:	05140304 	ldreq	r0, [r4, #-772]	; 0xfffffcfc
    1b28:	04020015 	streq	r0, [r2], #-21	; 0xffffffeb
    1b2c:	05010603 	streq	r0, [r1, #-1539]	; 0xfffff9fd
    1b30:	04020011 	streq	r0, [r2], #-17	; 0xffffffef
    1b34:	052f0603 	streq	r0, [pc, #-1539]!	; 1539 <__code_start__-0x6ac7>
    1b38:	0402001a 	streq	r0, [r2], #-26	; 0xffffffe6
    1b3c:	05010603 	streq	r0, [r1, #-1539]	; 0xfffff9fd
    1b40:	04020011 	streq	r0, [r2], #-17	; 0xffffffef
    1b44:	00d70603 	sbcseq	r0, r7, r3, lsl #12
    1b48:	13030402 	movwne	r0, #13314	; 0x3402
    1b4c:	03040200 	movweq	r0, #16896	; 0x4200
    1b50:	04020014 	streq	r0, [r2], #-20	; 0xffffffec
    1b54:	02006703 	andeq	r6, r0, #786432	; 0xc0000
    1b58:	05680304 	strbeq	r0, [r8, #-772]!	; 0xfffffcfc
    1b5c:	04020014 	streq	r0, [r2], #-20	; 0xffffffec
    1b60:	05010603 	streq	r0, [r1, #-1539]	; 0xfffff9fd
    1b64:	04020013 	streq	r0, [r2], #-19	; 0xffffffed
    1b68:	18058203 	stmdane	r5, {r0, r1, r9, pc}
    1b6c:	1b054e06 	blne	15538c <__bss_end__+0x14a51c>
    1b70:	1a050106 	bne	141f90 <__bss_end__+0x137120>
    1b74:	06090582 	streq	r0, [r9], -r2, lsl #11
    1b78:	060d054b 	streq	r0, [sp], -fp, asr #10
    1b7c:	09052e01 	stmdbeq	r5, {r0, r9, sl, fp, sp}
    1b80:	ba06f306 	blt	1be7a0 <__bss_end__+0x1b3930>
    1b84:	30061505 	andcc	r1, r6, r5, lsl #10
    1b88:	01061805 	tsteq	r6, r5, lsl #16
    1b8c:	05661705 	strbeq	r1, [r6, #-1797]!	; 0xfffff8fb
    1b90:	054b0619 	strbeq	r0, [fp, #-1561]	; 0xfffff9e7
    1b94:	6f030615 	svcvs	0x00030615
    1b98:	06110566 	ldreq	r0, [r1], -r6, ror #10
    1b9c:	05d60148 	ldrbeq	r0, [r6, #328]	; 0x148
    1ba0:	2e0b0309 	cdpcs	3, 0, cr0, cr11, cr9, {0}
    1ba4:	01060d05 	tsteq	r6, r5, lsl #26
    1ba8:	0609052e 	streq	r0, [r9], -lr, lsr #10
    1bac:	05ba06f3 	ldreq	r0, [sl, #1779]!	; 0x6f3
    1bb0:	062f0615 			; <UNDEFINED> instruction: 0x062f0615
    1bb4:	05667503 	strbeq	r7, [r6, #-1283]!	; 0xfffffafd
    1bb8:	13030619 	movwne	r0, #13849	; 0x3619
    1bbc:	0615054a 	ldreq	r0, [r5], -sl, asr #10
    1bc0:	06666d03 	strbteq	r6, [r6], -r3, lsl #26
    1bc4:	014a1503 	cmpeq	sl, r3, lsl #10
    1bc8:	052e06ba 	streq	r0, [lr, #-1722]!	; 0xfffff946
    1bcc:	011a0605 	tsteq	sl, r5, lsl #12
    1bd0:	0e032e9e 	mcreq	14, 0, r2, cr3, cr14, {4}
    1bd4:	06090501 	streq	r0, [r9], -r1, lsl #10
    1bd8:	06050501 	streq	r0, [r5], -r1, lsl #10
    1bdc:	04057508 	streq	r7, [r5], #-1288	; 0xfffffaf8
    1be0:	05011803 	streq	r1, [r1, #-2051]	; 0xfffff7fd
    1be4:	05010607 	streq	r0, [r1, #-1543]	; 0xfffff9f9
    1be8:	05310604 	ldreq	r0, [r1, #-1540]!	; 0xfffff9fc
    1bec:	2e670305 	cdpcs	3, 6, cr0, cr7, cr5, {0}
    1bf0:	01061c05 	tsteq	r6, r5, lsl #24
    1bf4:	05820905 	streq	r0, [r2, #2309]	; 0x905
    1bf8:	31f30605 	mvnscc	r0, r5, lsl #12
    1bfc:	01061c05 	tsteq	r6, r5, lsl #24
    1c00:	05820905 	streq	r0, [r2, #2309]	; 0x905
    1c04:	30f30605 	rscscc	r0, r3, r5, lsl #12
    1c08:	01061b05 	tsteq	r6, r5, lsl #22
    1c0c:	05820905 	streq	r0, [r2, #2309]	; 0x905
    1c10:	30f30605 	rscscc	r0, r3, r5, lsl #12
    1c14:	01060705 	tsteq	r6, r5, lsl #14
    1c18:	83060505 	movwhi	r0, #25861	; 0x6505
    1c1c:	06090530 			; <UNDEFINED> instruction: 0x06090530
    1c20:	06050501 	streq	r0, [r5], -r1, lsl #10
    1c24:	11057508 	tstne	r5, r8, lsl #10
    1c28:	06220530 			; <UNDEFINED> instruction: 0x06220530
    1c2c:	06050501 	streq	r0, [r5], -r1, lsl #10
    1c30:	8311054b 	tsthi	r1, #314572800	; 0x12c00000
    1c34:	01830505 	orreq	r0, r3, r5, lsl #10
    1c38:	0e05359e 	mcreq	5, 0, r3, cr5, cr14, {4}
    1c3c:	0a050106 	beq	14205c <__bss_end__+0x1371ec>
    1c40:	052d062e 	streq	r0, [sp, #-1582]!	; 0xfffff9d2
    1c44:	05010604 	streq	r0, [r1, #-1540]	; 0xfffff9fc
    1c48:	04020013 	streq	r0, [r2], #-19	; 0xffffffed
    1c4c:	10054a01 	andne	r4, r5, r1, lsl #20
    1c50:	01040200 	mrseq	r0, R12_usr
    1c54:	0402002e 	streq	r0, [r2], #-46	; 0xffffffd2
    1c58:	02056601 	andeq	r6, r5, #1048576	; 0x100000
    1c5c:	07051606 	streq	r1, [r5, -r6, lsl #12]
    1c60:	02050106 	andeq	r0, r5, #-2147483647	; 0x80000001
    1c64:	01054b06 	tsteq	r5, r6, lsl #22
    1c68:	02661306 	rsbeq	r1, r6, #402653184	; 0x18000000
    1c6c:	0101001e 	tsteq	r1, lr, lsl r0
    1c70:	000000a5 	andeq	r0, r0, r5, lsr #1
    1c74:	008a0003 	addeq	r0, sl, r3
    1c78:	01020000 	mrseq	r0, (UNDEF: 2)
    1c7c:	000d0efb 	strdeq	r0, [sp], -fp
    1c80:	01010101 	tsteq	r1, r1, lsl #2
    1c84:	01000000 	mrseq	r0, (UNDEF: 0)
    1c88:	2e010000 	cdpcs	0, 0, cr0, cr1, cr0, {0}
    1c8c:	6174732f 	cmnvs	r4, pc, lsr #6
    1c90:	732d6666 			; <UNDEFINED> instruction: 0x732d6666
    1c94:	2f006372 	svccs	0x00006372
    1c98:	72657355 	rsbvc	r7, r5, #1409286145	; 0x54000001
    1c9c:	72742f73 	rsbsvc	r2, r4, #460	; 0x1cc
    1ca0:	65747369 	ldrbvs	r7, [r4, #-873]!	; 0xfffffc97
    1ca4:	6c6f6e6e 	stclvs	14, cr6, [pc], #-440	; 1af4 <__code_start__-0x650c>
    1ca8:	6e616d6c 	cdpvs	13, 6, cr6, cr1, cr12, {3}
    1cac:	636f442f 	cmnvs	pc, #788529152	; 0x2f000000
    1cb0:	6e656d75 	mcrvs	13, 3, r6, cr5, cr5, {3}
    1cb4:	532f7374 			; <UNDEFINED> instruction: 0x532f7374
    1cb8:	6e697270 	mcrvs	2, 3, r7, cr9, cr0, {3}
    1cbc:	75515f67 	ldrbvc	r5, [r1, #-3943]	; 0xfffff099
    1cc0:	65747261 	ldrbvs	r7, [r4, #-609]!	; 0xfffffd9f
    1cc4:	30325f72 	eorscc	r5, r2, r2, ror pc
    1cc8:	432f3232 			; <UNDEFINED> instruction: 0x432f3232
    1ccc:	30343253 	eorscc	r3, r4, r3, asr r2
    1cd0:	732d584c 			; <UNDEFINED> instruction: 0x732d584c
    1cd4:	32327270 	eorscc	r7, r2, #112, 4
    1cd8:	62696c2f 	rsbvs	r6, r9, #12032	; 0x2f00
    1cdc:	692f6970 	stmdbvs	pc!, {r4, r5, r6, r8, fp, sp, lr}	; <UNPREDICTABLE>
    1ce0:	756c636e 	strbvc	r6, [ip, #-878]!	; 0xfffffc92
    1ce4:	00006564 	andeq	r6, r0, r4, ror #10
    1ce8:	61656c63 	cmnvs	r5, r3, ror #24
    1cec:	65722d6e 	ldrbvs	r2, [r2, #-3438]!	; 0xfffff292
    1cf0:	746f6f62 	strbtvc	r6, [pc], #-3938	; 1cf8 <__code_start__-0x6308>
    1cf4:	0100632e 	tsteq	r0, lr, lsr #6
    1cf8:	70720000 	rsbsvc	r0, r2, r0
    1cfc:	00682e69 	rsbeq	r2, r8, r9, ror #28
    1d00:	00000002 	andeq	r0, r0, r2
    1d04:	05001905 	streq	r1, [r0, #-2309]	; 0xfffff6fb
    1d08:	00971402 	addseq	r1, r7, r2, lsl #8
    1d0c:	05051500 	streq	r1, [r5, #-1280]	; 0xfffffb00
    1d10:	4b2f832f 	blmi	be29d4 <__bss_end__+0xbd7b64>
    1d14:	01000602 	tsteq	r0, r2, lsl #12
    1d18:	0000bf01 	andeq	fp, r0, r1, lsl #30
    1d1c:	84000300 	strhi	r0, [r0], #-768	; 0xfffffd00
    1d20:	02000000 	andeq	r0, r0, #0, 0
    1d24:	0d0efb01 	vstreq	d15, [lr, #-4]
    1d28:	01010100 	mrseq	r0, (UNDEF: 17)
    1d2c:	00000001 	andeq	r0, r0, r1
    1d30:	01000001 	tsteq	r0, r1
    1d34:	74732f2e 	ldrbtvc	r2, [r3], #-3886	; 0xfffff0d2
    1d38:	2d666661 	stclcs	6, cr6, [r6, #-388]!	; 0xfffffe7c
    1d3c:	00637273 	rsbeq	r7, r3, r3, ror r2
    1d40:	6573552f 	ldrbvs	r5, [r3, #-1327]!	; 0xfffffad1
    1d44:	742f7372 	strtvc	r7, [pc], #-882	; 1d4c <__code_start__-0x62b4>
    1d48:	74736972 	ldrbtvc	r6, [r3], #-2418	; 0xfffff68e
    1d4c:	6f6e6e65 	svcvs	0x006e6e65
    1d50:	616d6c6c 	cmnvs	sp, ip, ror #24
    1d54:	6f442f6e 	svcvs	0x00442f6e
    1d58:	656d7563 	strbvs	r7, [sp, #-1379]!	; 0xfffffa9d
    1d5c:	2f73746e 	svccs	0x0073746e
    1d60:	69727053 	ldmdbvs	r2!, {r0, r1, r4, r6, ip, sp, lr}^
    1d64:	515f676e 	cmppl	pc, lr, ror #14
    1d68:	74726175 	ldrbtvc	r6, [r2], #-373	; 0xfffffe8b
    1d6c:	325f7265 	subscc	r7, pc, #1342177286	; 0x50000006
    1d70:	2f323230 	svccs	0x00323230
    1d74:	34325343 	ldrtcc	r5, [r2], #-835	; 0xfffffcbd
    1d78:	2d584c30 	ldclcs	12, cr4, [r8, #-192]	; 0xffffff40
    1d7c:	32727073 	rsbscc	r7, r2, #115, 0	; 0x73
    1d80:	696c2f32 	stmdbvs	ip!, {r1, r4, r5, r8, r9, sl, fp, sp}^
    1d84:	2f697062 	svccs	0x00697062
    1d88:	6c636e69 	stclvs	14, cr6, [r3], #-420	; 0xfffffe5c
    1d8c:	00656475 	rsbeq	r6, r5, r5, ror r4
    1d90:	74736300 	ldrbtvc	r6, [r3], #-768	; 0xfffffd00
    1d94:	2e747261 	cdpcs	2, 7, cr7, cr4, cr1, {3}
    1d98:	00010063 	andeq	r0, r1, r3, rrx
    1d9c:	69707200 	ldmdbvs	r0!, {r9, ip, sp, lr}^
    1da0:	0200682e 	andeq	r6, r0, #3014656	; 0x2e0000
    1da4:	05000000 	streq	r0, [r0, #-0]
    1da8:	02050010 	andeq	r0, r5, #16, 0
    1dac:	00009740 	andeq	r9, r0, r0, asr #14
    1db0:	2f050515 	svccs	0x00050515
    1db4:	05130205 	ldreq	r0, [r3, #-517]	; 0xfffffdfb
    1db8:	13301405 	teqne	r0, #83886080	; 0x5000000
    1dbc:	060a0514 			; <UNDEFINED> instruction: 0x060a0514
    1dc0:	0531060f 	ldreq	r0, [r1, #-1551]!	; 0xfffff9f1
    1dc4:	10054b09 	andne	r4, r5, r9, lsl #22
    1dc8:	054a0106 	strbeq	r0, [sl, #-262]	; 0xfffffefa
    1dcc:	32300605 	eorscc	r0, r0, #5242880	; 0x500000
    1dd0:	144a0101 	strbne	r0, [sl], #-257	; 0xfffffeff
    1dd4:	022f0205 	eoreq	r0, pc, #1342177280	; 0x50000000
    1dd8:	01010006 	tsteq	r1, r6
    1ddc:	000000a3 	andeq	r0, r0, r3, lsr #1
    1de0:	008b0003 	addeq	r0, fp, r3
    1de4:	01020000 	mrseq	r0, (UNDEF: 2)
    1de8:	000d0efb 	strdeq	r0, [sp], -fp
    1dec:	01010101 	tsteq	r1, r1, lsl #2
    1df0:	01000000 	mrseq	r0, (UNDEF: 0)
    1df4:	2e010000 	cdpcs	0, 0, cr0, cr1, cr0, {0}
    1df8:	6174732f 	cmnvs	r4, pc, lsr #6
    1dfc:	732d6666 			; <UNDEFINED> instruction: 0x732d6666
    1e00:	2f006372 	svccs	0x00006372
    1e04:	72657355 	rsbvc	r7, r5, #1409286145	; 0x54000001
    1e08:	72742f73 	rsbsvc	r2, r4, #460	; 0x1cc
    1e0c:	65747369 	ldrbvs	r7, [r4, #-873]!	; 0xfffffc97
    1e10:	6c6f6e6e 	stclvs	14, cr6, [pc], #-440	; 1c60 <__code_start__-0x63a0>
    1e14:	6e616d6c 	cdpvs	13, 6, cr6, cr1, cr12, {3}
    1e18:	636f442f 	cmnvs	pc, #788529152	; 0x2f000000
    1e1c:	6e656d75 	mcrvs	13, 3, r6, cr5, cr5, {3}
    1e20:	532f7374 			; <UNDEFINED> instruction: 0x532f7374
    1e24:	6e697270 	mcrvs	2, 3, r7, cr9, cr0, {3}
    1e28:	75515f67 	ldrbvc	r5, [r1, #-3943]	; 0xfffff099
    1e2c:	65747261 	ldrbvs	r7, [r4, #-609]!	; 0xfffffd9f
    1e30:	30325f72 	eorscc	r5, r2, r2, ror pc
    1e34:	432f3232 			; <UNDEFINED> instruction: 0x432f3232
    1e38:	30343253 	eorscc	r3, r4, r3, asr r2
    1e3c:	732d584c 			; <UNDEFINED> instruction: 0x732d584c
    1e40:	32327270 	eorscc	r7, r2, #112, 4
    1e44:	62696c2f 	rsbvs	r6, r9, #12032	; 0x2f00
    1e48:	692f6970 	stmdbvs	pc!, {r4, r5, r6, r8, fp, sp, lr}	; <UNPREDICTABLE>
    1e4c:	756c636e 	strbvc	r6, [ip, #-878]!	; 0xfffffc92
    1e50:	00006564 	andeq	r6, r0, r4, ror #10
    1e54:	74737563 	ldrbtvc	r7, [r3], #-1379	; 0xfffffa9d
    1e58:	6c2d6d6f 	stcvs	13, cr6, [sp], #-444	; 0xfffffe44
    1e5c:	6564616f 	strbvs	r6, [r4, #-367]!	; 0xfffffe91
    1e60:	00632e72 	rsbeq	r2, r3, r2, ror lr
    1e64:	72000001 	andvc	r0, r0, #1, 0
    1e68:	682e6970 	stmdavs	lr!, {r4, r5, r6, r8, fp, sp, lr}
    1e6c:	00000200 	andeq	r0, r0, r0, lsl #4
    1e70:	001a0500 	andseq	r0, sl, r0, lsl #10
    1e74:	977c0205 	ldrbls	r0, [ip, -r5, lsl #4]!
    1e78:	05150000 	ldreq	r0, [r5, #-0]
    1e7c:	02021401 	andeq	r1, r2, #16777216	; 0x1000000
    1e80:	f3010100 	vrhadd.u8	d0, d1, d0
    1e84:	03000000 	movweq	r0, #0
    1e88:	00008400 	andeq	r8, r0, r0, lsl #8
    1e8c:	fb010200 	blx	42696 <__bss_end__+0x37826>
    1e90:	01000d0e 	tsteq	r0, lr, lsl #26
    1e94:	00010101 	andeq	r0, r1, r1, lsl #2
    1e98:	00010000 	andeq	r0, r1, r0
    1e9c:	2f2e0100 	svccs	0x002e0100
    1ea0:	66617473 			; <UNDEFINED> instruction: 0x66617473
    1ea4:	72732d66 	rsbsvc	r2, r3, #6528	; 0x1980
    1ea8:	552f0063 	strpl	r0, [pc, #-99]!	; 1e4d <__code_start__-0x61b3>
    1eac:	73726573 	cmnvc	r2, #482344960	; 0x1cc00000
    1eb0:	6972742f 	ldmdbvs	r2!, {r0, r1, r2, r3, r5, sl, ip, sp, lr}^
    1eb4:	6e657473 	mcrvs	4, 3, r7, cr5, cr3, {3}
    1eb8:	6c6c6f6e 	stclvs	15, cr6, [ip], #-440	; 0xfffffe48
    1ebc:	2f6e616d 	svccs	0x006e616d
    1ec0:	75636f44 	strbvc	r6, [r3, #-3908]!	; 0xfffff0bc
    1ec4:	746e656d 	strbtvc	r6, [lr], #-1389	; 0xfffffa93
    1ec8:	70532f73 	subsvc	r2, r3, r3, ror pc
    1ecc:	676e6972 			; <UNDEFINED> instruction: 0x676e6972
    1ed0:	6175515f 	cmnvs	r5, pc, asr r1
    1ed4:	72657472 	rsbvc	r7, r5, #1912602624	; 0x72000000
    1ed8:	3230325f 	eorscc	r3, r0, #-268435451	; 0xf0000005
    1edc:	53432f32 	movtpl	r2, #16178	; 0x3f32
    1ee0:	4c303432 	cfldrsmi	mvf3, [r0], #-200	; 0xffffff38
    1ee4:	70732d58 	rsbsvc	r2, r3, r8, asr sp
    1ee8:	2f323272 	svccs	0x00323272
    1eec:	7062696c 	rsbvc	r6, r2, ip, ror #18
    1ef0:	6e692f69 	cdpvs	15, 6, cr2, cr9, cr9, {3}
    1ef4:	64756c63 	ldrbtvs	r6, [r5], #-3171	; 0xfffff39d
    1ef8:	72000065 	andvc	r0, r0, #101, 0	; 0x65
    1efc:	6f6f6265 	svcvs	0x006f6265
    1f00:	00632e74 	rsbeq	r2, r3, r4, ror lr
    1f04:	72000001 	andvc	r0, r0, #1, 0
    1f08:	682e6970 	stmdavs	lr!, {r4, r5, r6, r8, fp, sp, lr}
    1f0c:	00000200 	andeq	r0, r0, r0, lsl #4
    1f10:	00190500 	andseq	r0, r9, r0, lsl #10
    1f14:	97800205 	strls	r0, [r0, r5, lsl #4]
    1f18:	0d030000 	stceq	0, cr0, [r3, #-0]
    1f1c:	13050501 	movwne	r0, #21761	; 0x5501
    1f20:	13053113 	movwne	r3, #20755	; 0x5113
    1f24:	01050106 	tsteq	r5, r6, lsl #2
    1f28:	061b052f 	ldreq	r0, [fp], -pc, lsr #10
    1f2c:	13050585 	movwne	r0, #21893	; 0x5585
    1f30:	2f090514 	svccs	0x00090514
    1f34:	01061605 	tsteq	r6, r5, lsl #12
    1f38:	052e0e05 	streq	r0, [lr, #-3589]!	; 0xfffff1fb
    1f3c:	052f0605 	streq	r0, [pc, #-1541]!	; 193f <__code_start__-0x66c1>
    1f40:	052f0601 	streq	r0, [pc, #-1537]!	; 1947 <__code_start__-0x66b9>
    1f44:	05300617 	ldreq	r0, [r0, #-1559]!	; 0xfffff9e9
    1f48:	08052f05 	stmdaeq	r5, {r0, r2, r8, r9, sl, fp, sp}
    1f4c:	07050106 	streq	r0, [r5, -r6, lsl #2]
    1f50:	0605052e 	streq	r0, [r5], -lr, lsr #10
    1f54:	4d2f3050 	stcmi	0, cr3, [pc, #-320]!	; 1e1c <__code_start__-0x61e4>
    1f58:	15131313 	ldrne	r1, [r3, #-787]	; 0xfffffced
    1f5c:	04020067 	streq	r0, [r2], #-103	; 0xffffff99
    1f60:	0d056701 	stceq	7, cr6, [r5, #-4]
    1f64:	01040200 	mrseq	r0, R12_usr
    1f68:	000a0501 	andeq	r0, sl, r1, lsl #10
    1f6c:	01010402 	tsteq	r1, r2, lsl #8
    1f70:	6d030905 	vstrvs.16	s0, [r3, #-10]	; <UNPREDICTABLE>
    1f74:	000c022e 	andeq	r0, ip, lr, lsr #4
    1f78:	00fa0101 	rscseq	r0, sl, r1, lsl #2
    1f7c:	00030000 	andeq	r0, r3, r0
    1f80:	00000083 	andeq	r0, r0, r3, lsl #1
    1f84:	0efb0102 	cdpeq	1, 15, cr0, cr11, cr2, {0}
    1f88:	0101000d 	tsteq	r1, sp
    1f8c:	00000101 	andeq	r0, r0, r1, lsl #2
    1f90:	00000100 	andeq	r0, r0, r0, lsl #2
    1f94:	732f2e01 			; <UNDEFINED> instruction: 0x732f2e01
    1f98:	66666174 			; <UNDEFINED> instruction: 0x66666174
    1f9c:	6372732d 	cmnvs	r2, #-1275068416	; 0xb4000000
    1fa0:	73552f00 	cmpvc	r5, #0, 30
    1fa4:	2f737265 	svccs	0x00737265
    1fa8:	73697274 	cmnvc	r9, #116, 4	; 0x40000007
    1fac:	6e6e6574 	mcrvs	5, 3, r6, cr14, cr4, {3}
    1fb0:	6d6c6c6f 	stclvs	12, cr6, [ip, #-444]!	; 0xfffffe44
    1fb4:	442f6e61 	strtmi	r6, [pc], #-3681	; 1fbc <__code_start__-0x6044>
    1fb8:	6d75636f 	ldclvs	3, cr6, [r5, #-444]!	; 0xfffffe44
    1fbc:	73746e65 	cmnvc	r4, #1616	; 0x650
    1fc0:	7270532f 	rsbsvc	r5, r0, #-1140850688	; 0xbc000000
    1fc4:	5f676e69 	svcpl	0x00676e69
    1fc8:	72617551 	rsbvc	r7, r1, #339738624	; 0x14400000
    1fcc:	5f726574 	svcpl	0x00726574
    1fd0:	32323032 	eorscc	r3, r2, #50, 0	; 0x32
    1fd4:	3253432f 	subscc	r4, r3, #-1140850688	; 0xbc000000
    1fd8:	584c3034 	stmdapl	ip, {r2, r4, r5, ip, sp}^
    1fdc:	7270732d 	rsbsvc	r7, r0, #-1275068416	; 0xb4000000
    1fe0:	6c2f3232 	sfmvs	f3, 4, [pc], #-200	; 1f20 <__code_start__-0x60e0>
    1fe4:	69706269 	ldmdbvs	r0!, {r0, r3, r5, r6, r9, sp, lr}^
    1fe8:	636e692f 	cmnvs	lr, #770048	; 0xbc000
    1fec:	6564756c 	strbvs	r7, [r4, #-1388]!	; 0xfffffa94
    1ff0:	69740000 	ldmdbvs	r4!, {}^	; <UNPREDICTABLE>
    1ff4:	2e72656d 	cdpcs	5, 7, cr6, cr2, cr13, {3}
    1ff8:	00010063 	andeq	r0, r1, r3, rrx
    1ffc:	69707200 	ldmdbvs	r0!, {r9, ip, sp, lr}^
    2000:	0200682e 	andeq	r6, r0, #3014656	; 0x2e0000
    2004:	05000000 	streq	r0, [r0, #-0]
    2008:	02050023 	andeq	r0, r5, #35, 0	; 0x23
    200c:	00009800 	andeq	r9, r0, r0, lsl #16
    2010:	2f050515 	svccs	0x00050515
    2014:	01060c05 	tsteq	r6, r5, lsl #24
    2018:	054b0105 	strbeq	r0, [fp, #-261]	; 0xfffffefb
    201c:	054d061f 	strbeq	r0, [sp, #-1567]	; 0xfffff9e1
    2020:	052f3105 	streq	r3, [pc, #-261]!	; 1f23 <__code_start__-0x60dd>
    2024:	05010612 	streq	r0, [r1, #-1554]	; 0xfffff9ee
    2028:	2f4b0605 	svccs	0x004b0605
    202c:	13060105 	movwne	r0, #24837	; 0x6105
    2030:	4c061c05 	stcmi	12, cr1, [r6], {5}
    2034:	05050106 	streq	r0, [r5, #-262]	; 0xfffffefa
    2038:	13054b06 	movwne	r4, #23302	; 0x5b06
    203c:	052e0106 	streq	r0, [lr, #-262]!	; 0xfffffefa
    2040:	052f0605 	streq	r0, [pc, #-1541]!	; 1a43 <__code_start__-0x65bd>
    2044:	17051309 	strne	r1, [r5, -r9, lsl #6]
    2048:	09050106 	stmdbeq	r5, {r1, r2, r8}
    204c:	11052f06 	tstne	r5, r6, lsl #30
    2050:	0c050106 	stfeqs	f0, [r5], {6}
    2054:	061c052e 	ldreq	r0, [ip], -lr, lsr #10
    2058:	0501066b 	streq	r0, [r1, #-1643]	; 0xfffff995
    205c:	062f0605 	strteq	r0, [pc], -r5, lsl #12
    2060:	4b01054a 	blmi	43590 <__bss_end__+0x38720>
    2064:	2f061e05 	svccs	0x00061e05
    2068:	05050106 	streq	r0, [r5, #-262]	; 0xfffffefa
    206c:	4a062f06 	bmi	18dc8c <__bss_end__+0x182e1c>
    2070:	024b0105 	subeq	r0, fp, #1073741825	; 0x40000001
    2074:	01010002 	tsteq	r1, r2
    2078:	00000205 	andeq	r0, r0, r5, lsl #4
    207c:	00c90003 	sbceq	r0, r9, r3
    2080:	01020000 	mrseq	r0, (UNDEF: 2)
    2084:	000d0efb 	strdeq	r0, [sp], -fp
    2088:	01010101 	tsteq	r1, r1, lsl #2
    208c:	01000000 	mrseq	r0, (UNDEF: 0)
    2090:	2f010000 	svccs	0x00010000
    2094:	656d6f68 	strbvs	r6, [sp, #-3944]!	; 0xfffff098
    2098:	676e652f 	strbvs	r6, [lr, -pc, lsr #10]!
    209c:	2f72656c 	svccs	0x0072656c
    20a0:	73616c63 	cmnvc	r1, #25344	; 0x6300
    20a4:	73632f73 	cmnvc	r3, #460	; 0x1cc
    20a8:	6c303432 	cfldrsvs	mvf3, [r0], #-200	; 0xffffff38
    20ac:	32322d78 	eorscc	r2, r2, #120, 26	; 0x1e00
    20b0:	2f727073 	svccs	0x00727073
    20b4:	62696c2f 	rsbvs	r6, r9, #12032	; 0x2f00
    20b8:	692f6970 	stmdbvs	pc!, {r4, r5, r6, r8, fp, sp, lr}	; <UNPREDICTABLE>
    20bc:	756c636e 	strbvc	r6, [ip, #-878]!	; 0xfffffc92
    20c0:	2f006564 	svccs	0x00006564
    20c4:	2f727375 	svccs	0x00727375
    20c8:	72616873 	rsbvc	r6, r1, #7536640	; 0x730000
    20cc:	63672f65 	cmnvs	r7, #404	; 0x194
    20d0:	72612d63 	rsbvc	r2, r1, #6336	; 0x18c0
    20d4:	6f6e2d6d 	svcvs	0x006e2d6d
    20d8:	652d656e 	strvs	r6, [sp, #-1390]!	; 0xfffffa92
    20dc:	2d696261 	sfmcs	f6, 2, [r9, #-388]!	; 0xfffffe7c
    20e0:	332e3031 			; <UNDEFINED> instruction: 0x332e3031
    20e4:	3230322d 	eorscc	r3, r0, #-805306366	; 0xd0000002
    20e8:	30312e31 	eorscc	r2, r1, r1, lsr lr
    20ec:	62696c2f 	rsbvs	r6, r9, #12032	; 0x2f00
    20f0:	6363672f 	cmnvs	r3, #12320768	; 0xbc0000
    20f4:	6d72612f 	ldfvse	f6, [r2, #-188]!	; 0xffffff44
    20f8:	6e6f6e2d 	cdpvs	14, 6, cr6, cr15, cr13, {1}
    20fc:	61652d65 	cmnvs	r5, r5, ror #26
    2100:	312f6962 			; <UNDEFINED> instruction: 0x312f6962
    2104:	2e332e30 	mrccs	14, 1, r2, cr3, cr0, {1}
    2108:	6e692f31 	mcrvs	15, 3, r2, cr9, cr1, {1}
    210c:	64756c63 	ldrbtvs	r6, [r5], #-3171	; 0xfffff39d
    2110:	75000065 	strvc	r0, [r0, #-101]	; 0xffffff9b
    2114:	2e747261 	cdpcs	2, 7, cr7, cr4, cr1, {3}
    2118:	00000063 	andeq	r0, r0, r3, rrx
    211c:	72617500 	rsbvc	r7, r1, #0, 10
    2120:	00682e74 	rsbeq	r2, r8, r4, ror lr
    2124:	72000001 	andvc	r0, r0, #1, 0
    2128:	682e6970 	stmdavs	lr!, {r4, r5, r6, r8, fp, sp, lr}
    212c:	00000100 	andeq	r0, r0, r0, lsl #2
    2130:	6f697067 	svcvs	0x00697067
    2134:	0100682e 	tsteq	r0, lr, lsr #16
    2138:	74730000 	ldrbtvc	r0, [r3], #-0
    213c:	746e6964 	strbtvc	r6, [lr], #-2404	; 0xfffff69c
    2140:	6363672d 	cmnvs	r3, #11796480	; 0xb40000
    2144:	0200682e 	andeq	r6, r0, #3014656	; 0x2e0000
    2148:	05000000 	streq	r0, [r0, #-0]
    214c:	02050039 	andeq	r0, r5, #57, 0	; 0x39
    2150:	00009884 	andeq	r9, r0, r4, lsl #17
    2154:	06013003 	streq	r3, [r1], -r3
    2158:	06050501 	streq	r0, [r5], -r1, lsl #10
    215c:	06110567 	ldreq	r0, [r1], -r7, ror #10
    2160:	2e050501 	cfsh32cs	mvfx0, mvfx5, #1
    2164:	05670105 	strbeq	r0, [r7, #-261]!	; 0xfffffefb
    2168:	06290638 			; <UNDEFINED> instruction: 0x06290638
    216c:	06050501 	streq	r0, [r5], -r1, lsl #10
    2170:	06110567 	ldreq	r0, [r1], -r7, ror #10
    2174:	2e050501 	cfsh32cs	mvfx0, mvfx5, #1
    2178:	05670105 	strbeq	r0, [r7, #-261]!	; 0xfffffefb
    217c:	15030616 	strne	r0, [r3, #-1558]	; 0xfffff9ea
    2180:	3505052e 	strcc	r0, [r5, #-1326]	; 0xfffffad2
    2184:	68356867 	ldmdavs	r5!, {r0, r1, r2, r5, r6, fp, sp, lr}
    2188:	852e0c03 	strhi	r0, [lr, #-3075]!	; 0xfffff3fd
    218c:	0369696b 	cmneq	r9, #1753088	; 0x1ac000
    2190:	6b13660c 	blvs	4db9c8 <__bss_end__+0x4d0b58>
    2194:	06010567 	streq	r0, [r1], -r7, ror #10
    2198:	0619052f 	ldreq	r0, [r9], -pc, lsr #10
    219c:	05052508 	streq	r2, [r5, #-1288]	; 0xfffffaf8
    21a0:	060d0534 			; <UNDEFINED> instruction: 0x060d0534
    21a4:	4c010501 	cfstr32mi	mvfx0, [r1], {1}
    21a8:	67061905 	strvs	r1, [r6, -r5, lsl #18]
    21ac:	05360505 	ldreq	r0, [r6, #-1285]!	; 0xfffffafb
    21b0:	0501060d 	streq	r0, [r1, #-1549]	; 0xfffff9f3
    21b4:	01054a28 	tsteq	r5, r8, lsr #20
    21b8:	06150530 			; <UNDEFINED> instruction: 0x06150530
    21bc:	2f050587 	svccs	0x00050587
    21c0:	0009052f 	andeq	r0, r9, pc, lsr #10
    21c4:	13010402 	movwne	r0, #5122	; 0x1402
    21c8:	02000a05 	andeq	r0, r0, #20480	; 0x5000
    21cc:	05110104 	ldreq	r0, [r1, #-260]	; 0xfffffefc
    21d0:	0402000c 	streq	r0, [r2], #-12
    21d4:	05010601 	streq	r0, [r1, #-1537]	; 0xfffff9ff
    21d8:	0402000a 	streq	r0, [r2], #-10
    21dc:	05052e01 	streq	r2, [r5, #-3585]	; 0xfffff1ff
    21e0:	0e054c06 	cdpeq	12, 0, cr4, cr5, cr6, {0}
    21e4:	09050106 	stmdbeq	r5, {r1, r2, r8}
    21e8:	0605054a 	streq	r0, [r5], -sl, asr #10
    21ec:	01052f2f 	tsteq	r5, pc, lsr #30
    21f0:	1c051306 	stcne	3, cr1, [r5], {6}
    21f4:	01066706 	tsteq	r6, r6, lsl #14
    21f8:	4b060505 	blmi	183614 <__bss_end__+0x1787a4>
    21fc:	0009052f 	andeq	r0, r9, pc, lsr #10
    2200:	13010402 	movwne	r0, #5122	; 0x1402
    2204:	02000a05 	andeq	r0, r0, #20480	; 0x5000
    2208:	05110104 	ldreq	r0, [r1, #-260]	; 0xfffffefc
    220c:	0402000c 	streq	r0, [r2], #-12
    2210:	05010601 	streq	r0, [r1, #-1537]	; 0xfffff9ff
    2214:	0402000a 	streq	r0, [r2], #-10
    2218:	05052e01 	streq	r2, [r5, #-3585]	; 0xfffff1ff
    221c:	05674c06 	strbeq	r4, [r7, #-3078]!	; 0xfffff3fa
    2220:	052f0601 	streq	r0, [pc, #-1537]!	; 1c27 <__code_start__-0x63d9>
    2224:	054c0619 	strbeq	r0, [ip, #-1561]	; 0xfffff9e7
    2228:	2a052e1b 	bcs	14da9c <__bss_end__+0x142c2c>
    222c:	0631052e 	ldrteq	r0, [r1], -lr, lsr #10
    2230:	2e420501 	cdpcs	5, 4, cr0, cr2, cr1, {0}
    2234:	31061c05 	tstcc	r6, r5, lsl #24
    2238:	032f0505 			; <UNDEFINED> instruction: 0x032f0505
    223c:	0e052e09 	cdpeq	14, 0, cr2, cr5, cr9, {0}
    2240:	21050106 	tstcs	r5, r6, lsl #2
    2244:	0301054a 	movweq	r0, #5450	; 0x154a
    2248:	1a052e0a 	bne	14da78 <__bss_end__+0x142c08>
    224c:	09056806 	stmdbeq	r5, {r1, r2, fp, sp, lr}
    2250:	01040200 	mrseq	r0, R12_usr
    2254:	000a0530 	andeq	r0, sl, r0, lsr r5
    2258:	11010402 	tstne	r1, r2, lsl #8
    225c:	02000c05 	andeq	r0, r0, #1280	; 0x500
    2260:	01060104 	tsteq	r6, r4, lsl #2
    2264:	02000a05 	andeq	r0, r0, #20480	; 0x5000
    2268:	052e0104 	streq	r0, [lr, #-260]!	; 0xfffffefc
    226c:	e8030619 	stmda	r3, {r0, r3, r4, r9, sl}
    2270:	0505667e 	streq	r6, [r5, #-1662]	; 0xfffff982
    2274:	672f2f2f 	strvs	r2, [pc, -pc, lsr #30]!
    2278:	2f060105 	svccs	0x00060105
    227c:	01000402 	tsteq	r0, r2, lsl #8
    2280:	00039301 	andeq	r9, r3, r1, lsl #6
    2284:	b8000300 	stmdalt	r0, {r8, r9}
    2288:	02000000 	andeq	r0, r0, #0, 0
    228c:	0d0efb01 	vstreq	d15, [lr, #-4]
    2290:	01010100 	mrseq	r0, (UNDEF: 17)
    2294:	00000001 	andeq	r0, r0, r1
    2298:	01000001 	tsteq	r0, r1
    229c:	6d6f682f 	stclvs	8, cr6, [pc, #-188]!	; 21e8 <__code_start__-0x5e18>
    22a0:	6e652f65 	cdpvs	15, 6, cr2, cr5, cr5, {3}
    22a4:	72656c67 	rsbvc	r6, r5, #26368	; 0x6700
    22a8:	616c632f 	cmnvs	ip, pc, lsr #6
    22ac:	632f7373 			; <UNDEFINED> instruction: 0x632f7373
    22b0:	30343273 	eorscc	r3, r4, r3, ror r2
    22b4:	322d786c 	eorcc	r7, sp, #108, 16	; 0x6c0000
    22b8:	72707332 	rsbsvc	r7, r0, #-939524096	; 0xc8000000
    22bc:	696c2f2f 	stmdbvs	ip!, {r0, r1, r2, r3, r5, r8, r9, sl, fp, sp}^
    22c0:	2f697062 	svccs	0x00697062
    22c4:	6c636e69 	stclvs	14, cr6, [r3], #-420	; 0xfffffe5c
    22c8:	00656475 	rsbeq	r6, r5, r5, ror r4
    22cc:	7273752f 	rsbsvc	r7, r3, #197132288	; 0xbc00000
    22d0:	6168732f 	cmnvs	r8, pc, lsr #6
    22d4:	672f6572 			; <UNDEFINED> instruction: 0x672f6572
    22d8:	612d6363 			; <UNDEFINED> instruction: 0x612d6363
    22dc:	6e2d6d72 	mcrvs	13, 1, r6, cr13, cr2, {3}
    22e0:	2d656e6f 	stclcs	14, cr6, [r5, #-444]!	; 0xfffffe44
    22e4:	69626165 	stmdbvs	r2!, {r0, r2, r5, r6, r8, sp, lr}^
    22e8:	2e30312d 	rsfcssp	f3, f0, #5.0
    22ec:	30322d33 	eorscc	r2, r2, r3, lsr sp
    22f0:	312e3132 			; <UNDEFINED> instruction: 0x312e3132
    22f4:	696c2f30 	stmdbvs	ip!, {r4, r5, r8, r9, sl, fp, sp}^
    22f8:	63672f62 	cmnvs	r7, #392	; 0x188
    22fc:	72612f63 	rsbvc	r2, r1, #396	; 0x18c
    2300:	6f6e2d6d 	svcvs	0x006e2d6d
    2304:	652d656e 	strvs	r6, [sp, #-1390]!	; 0xfffffa92
    2308:	2f696261 	svccs	0x00696261
    230c:	332e3031 			; <UNDEFINED> instruction: 0x332e3031
    2310:	692f312e 	stmdbvs	pc!, {r1, r2, r3, r5, r8, ip, sp}	; <UNPREDICTABLE>
    2314:	756c636e 	strbvc	r6, [ip, #-878]!	; 0xfffffc92
    2318:	00006564 	andeq	r6, r0, r4, ror #10
    231c:	6c616d6b 	stclvs	13, cr6, [r1], #-428	; 0xfffffe54
    2320:	2e636f6c 	cdpcs	15, 6, cr6, cr3, cr12, {3}
    2324:	00000063 	andeq	r0, r0, r3, rrx
    2328:	69707200 	ldmdbvs	r0!, {r9, ip, sp, lr}^
    232c:	0100682e 	tsteq	r0, lr, lsr #16
    2330:	74730000 	ldrbtvc	r0, [r3], #-0
    2334:	746e6964 	strbtvc	r6, [lr], #-2404	; 0xfffff69c
    2338:	6363672d 	cmnvs	r3, #11796480	; 0xb40000
    233c:	0200682e 	andeq	r6, r0, #3014656	; 0x2e0000
    2340:	05000000 	streq	r0, [r0, #-0]
    2344:	0205001e 	andeq	r0, r5, #30, 0
    2348:	00009a74 	andeq	r9, r0, r4, ror sl
    234c:	05012703 	streq	r2, [r1, #-1795]	; 0xfffff8fd
    2350:	31050120 	tstcc	r5, r0, lsr #2
    2354:	20050106 	andcs	r0, r5, r6, lsl #2
    2358:	22058306 	andcs	r8, r5, #402653184	; 0x18000000
    235c:	06350501 	ldrteq	r0, [r5], -r1, lsl #10
    2360:	061e0501 	ldreq	r0, [lr], -r1, lsl #10
    2364:	01200583 	smlawbeq	r0, r3, r5, r0
    2368:	01062d05 	tsteq	r6, r5, lsl #26
    236c:	85064205 	strhi	r4, [r6, #-517]	; 0xfffffdfb
    2370:	05050106 	streq	r0, [r5, #-262]	; 0xfffffefa
    2374:	01144b06 	tsteq	r4, r6, lsl #22
    2378:	02002e06 	andeq	r2, r0, #96	; 0x60
    237c:	2e060204 	cdpcs	2, 0, cr0, cr6, cr4, {0}
    2380:	02040200 	andeq	r0, r4, #0, 4
    2384:	04020001 	streq	r0, [r2], #-1
    2388:	0d051502 	cfstr32eq	mvfx1, [r5, #-8]
    238c:	02040200 	andeq	r0, r4, #0, 4
    2390:	07050106 	streq	r0, [r5, -r6, lsl #2]
    2394:	02040200 	andeq	r0, r4, #0, 4
    2398:	0609054a 	streq	r0, [r9], -sl, asr #10
    239c:	1505054b 	strne	r0, [r5, #-1355]	; 0xfffffab5
    23a0:	01061705 	tsteq	r6, r5, lsl #14
    23a4:	054a1005 	strbeq	r1, [sl, #-5]
    23a8:	052f0605 	streq	r0, [pc, #-1541]!	; 1dab <__code_start__-0x6255>
    23ac:	0501061b 	streq	r0, [r1, #-1563]	; 0xfffff9e5
    23b0:	01052e0e 	tsteq	r5, lr, lsl #28
    23b4:	0005052f 	andeq	r0, r5, pc, lsr #10
    23b8:	06010402 	streq	r0, [r1], -r2, lsl #8
    23bc:	004a7703 	subeq	r7, sl, r3, lsl #14
    23c0:	01010402 	tsteq	r1, r2, lsl #8
    23c4:	01040200 	mrseq	r0, R12_usr
    23c8:	02009e06 	andeq	r9, r0, #96	; 0x60
    23cc:	002e0104 	eoreq	r0, lr, r4, lsl #2
    23d0:	06010402 	streq	r0, [r1], -r2, lsl #8
    23d4:	3209052e 	andcc	r0, r9, #192937984	; 0xb800000
    23d8:	2ed60601 	cdpcs	6, 13, cr0, cr6, cr1, {0}
    23dc:	19052e06 	stmdbne	r5, {r1, r2, r9, sl, fp, sp}
    23e0:	2f0505de 	svccs	0x000505de
    23e4:	06080514 			; <UNDEFINED> instruction: 0x06080514
    23e8:	4a070501 	bmi	1c37f4 <__bss_end__+0x1b8984>
    23ec:	4b060905 	blmi	184808 <__bss_end__+0x179998>
    23f0:	05130505 	ldreq	r0, [r3, #-1285]	; 0xfffffafb
    23f4:	0501060c 	streq	r0, [r1, #-1548]	; 0xfffff9f4
    23f8:	13670605 	cmnne	r7, #5242880	; 0x500000
    23fc:	67060105 	strvs	r0, [r6, -r5, lsl #2]
    2400:	2a060905 	bcs	18481c <__bss_end__+0x1799ac>
    2404:	28059e01 	stmdacs	r5, {r0, r9, sl, fp, ip, pc}
    2408:	050106a5 	streq	r0, [r1, #-1701]	; 0xfffff95b
    240c:	014b0605 	cmpeq	fp, r5, lsl #12
    2410:	2e062e06 	cdpcs	14, 0, cr2, cr6, cr6, {0}
    2414:	18051301 	stmdane	r5, {r0, r8, r9, ip}
    2418:	05014703 	streq	r4, [r1, #-1795]	; 0xfffff8fd
    241c:	06011305 	streq	r1, [r1], -r5, lsl #6
    2420:	150f0601 	strne	r0, [pc, #-1537]	; 1e27 <__code_start__-0x61d9>
    2424:	0e051301 	cdpeq	3, 0, cr1, cr5, cr1, {0}
    2428:	16050106 	strne	r0, [r5], -r6, lsl #2
    242c:	05052e2e 	streq	r2, [r5, #-3630]	; 0xfffff1d2
    2430:	01390306 	teqeq	r9, r6, lsl #6
    2434:	01060b05 	tsteq	r6, r5, lsl #22
    2438:	4b060505 	blmi	183854 <__bss_end__+0x1789e4>
    243c:	01060a05 	tsteq	r6, r5, lsl #20
    2440:	4b060505 	blmi	18385c <__bss_end__+0x1789ec>
    2444:	01060d05 	tsteq	r6, r5, lsl #26
    2448:	052e0705 	streq	r0, [lr, #-1797]!	; 0xfffff8fb
    244c:	05054d01 	streq	r4, [r5, #-3329]	; 0xfffff2ff
    2450:	01040200 	mrseq	r0, R12_usr
    2454:	4a780306 	bmi	1e03074 <__bss_end__+0x1df8204>
    2458:	01040200 	mrseq	r0, R12_usr
    245c:	04020001 	streq	r0, [r2], #-1
    2460:	00ba0601 	adcseq	r0, sl, r1, lsl #12
    2464:	06010402 	streq	r0, [r1], -r2, lsl #8
    2468:	3409052e 	strcc	r0, [r9], #-1326	; 0xfffffad2
    246c:	66820601 	strvs	r0, [r2], r1, lsl #12
    2470:	20052e06 	andcs	r2, r5, r6, lsl #28
    2474:	050106db 	streq	r0, [r1, #-1755]	; 0xfffff925
    2478:	014b0605 	cmpeq	fp, r5, lsl #12
    247c:	02040200 	andeq	r0, r4, #0, 4
    2480:	0402004a 	streq	r0, [r2], #-74	; 0xffffffb6
    2484:	02000102 	andeq	r0, r0, #-2147483648	; 0x80000000
    2488:	05130204 	ldreq	r0, [r3, #-516]	; 0xfffffdfc
    248c:	04020012 	streq	r0, [r2], #-18	; 0xffffffee
    2490:	00010602 	andeq	r0, r1, r2, lsl #12
    2494:	2e020402 	cdpcs	4, 0, cr0, cr2, cr2, {0}
    2498:	02040200 	andeq	r0, r4, #0, 4
    249c:	0005052e 	andeq	r0, r5, lr, lsr #10
    24a0:	06020402 	streq	r0, [r2], -r2, lsl #8
    24a4:	0402002f 	streq	r0, [r2], #-47	; 0xffffffd1
    24a8:	01056702 	tsteq	r5, r2, lsl #14
    24ac:	02040200 	andeq	r0, r4, #0, 4
    24b0:	05051306 	streq	r1, [r5, #-774]	; 0xfffffcfa
    24b4:	01040200 	mrseq	r0, R12_usr
    24b8:	02006206 	andeq	r6, r0, #1610612736	; 0x60000000
    24bc:	00010104 	andeq	r0, r1, r4, lsl #2
    24c0:	06010402 	streq	r0, [r1], -r2, lsl #8
    24c4:	040200ba 	streq	r0, [r2], #-186	; 0xffffff46
    24c8:	052e0601 	streq	r0, [lr, #-1537]!	; 0xfffff9ff
    24cc:	9e0a033c 	mcrls	3, 0, r0, cr10, cr12, {1}
    24d0:	05050106 	streq	r0, [r5, #-262]	; 0xfffffefa
    24d4:	06014b06 	streq	r4, [r1], -r6, lsl #22
    24d8:	012e062e 			; <UNDEFINED> instruction: 0x012e062e
    24dc:	18050113 	stmdane	r5, {r0, r1, r4, r8}
    24e0:	017fad03 	cmneq	pc, r3, lsl #26
    24e4:	05130505 	ldreq	r0, [r3, #-1285]	; 0xfffffafb
    24e8:	2e010611 	mcrcs	6, 0, r0, cr1, cr1, {0}
    24ec:	d2030505 	andle	r0, r3, #20971520	; 0x1400000
    24f0:	4a060100 	bmi	1828f8 <__bss_end__+0x177a88>
    24f4:	03180513 	tsteq	r8, #79691776	; 0x4c00000
    24f8:	05017fa3 	streq	r7, [r1, #-4003]	; 0xfffff05d
    24fc:	16051305 	strne	r1, [r5], -r5, lsl #6
    2500:	054a0106 	strbeq	r0, [sl, #-262]	; 0xfffffefa
    2504:	e1030605 	tst	r3, r5, lsl #12
    2508:	12050100 	andne	r0, r5, #0
    250c:	05050106 	streq	r0, [r5, #-262]	; 0xfffffefa
    2510:	18054b06 	stmdane	r5, {r1, r2, r8, r9, fp, lr}
    2514:	017fa903 	cmneq	pc, r3, lsl #18
    2518:	01130505 	tsteq	r3, r5, lsl #10
    251c:	050e1805 	streq	r1, [lr, #-2053]	; 0xfffff7fb
    2520:	11051305 	tstne	r5, r5, lsl #6
    2524:	052e0106 	streq	r0, [lr, #-262]!	; 0xfffffefa
    2528:	4a061505 	bmi	187944 <__bss_end__+0x17cad4>
    252c:	0e051301 	cdpeq	3, 0, cr1, cr5, cr1, {0}
    2530:	052e0106 	streq	r0, [lr, #-262]!	; 0xfffffefa
    2534:	052e2e16 	streq	r2, [lr, #-3606]!	; 0xfffff1ea
    2538:	d6030605 	strle	r0, [r3], -r5, lsl #12
    253c:	05010100 	streq	r0, [r1, #-256]	; 0xffffff00
    2540:	7f9f0318 	svcvc	0x009f0318
    2544:	13050501 	movwne	r0, #21761	; 0x5501
    2548:	01061905 	tsteq	r6, r5, lsl #18
    254c:	0305052e 	movweq	r0, #21806	; 0x552e
    2550:	000100e0 	andeq	r0, r1, r0, ror #1
    2554:	06020402 	streq	r0, [r2], -r2, lsl #8
    2558:	0402004a 	streq	r0, [r2], #-74	; 0xffffffb6
    255c:	0a051402 	beq	14756c <__bss_end__+0x13c6fc>
    2560:	02040200 	andeq	r0, r4, #0, 4
    2564:	05050106 	streq	r0, [r5, #-262]	; 0xfffffefa
    2568:	02040200 	andeq	r0, r4, #0, 4
    256c:	0c054b06 			; <UNDEFINED> instruction: 0x0c054b06
    2570:	02040200 	andeq	r0, r4, #0, 4
    2574:	01050106 	tsteq	r5, r6, lsl #2
    2578:	02040200 	andeq	r0, r4, #0, 4
    257c:	0005052f 	andeq	r0, r5, pc, lsr #10
    2580:	06010402 	streq	r0, [r1], -r2, lsl #8
    2584:	004a7303 	subeq	r7, sl, r3, lsl #6
    2588:	01010402 	tsteq	r1, r2, lsl #8
    258c:	01040200 	mrseq	r0, R12_usr
    2590:	02009e06 	andeq	r9, r0, #96	; 0x60
    2594:	002e0104 	eoreq	r0, lr, r4, lsl #2
    2598:	06010402 	streq	r0, [r1], -r2, lsl #8
    259c:	0402002e 	streq	r0, [r2], #-46	; 0xffffffd2
    25a0:	02002f01 	andeq	r2, r0, #1, 30
    25a4:	002e0104 	eoreq	r0, lr, r4, lsl #2
    25a8:	d6010402 	strle	r0, [r1], -r2, lsl #8
    25ac:	2e7fb103 	expcse	f3, f3
    25b0:	2e820601 	cdpcs	6, 8, cr0, cr2, cr1, {0}
    25b4:	062e062e 	strteq	r0, [lr], -lr, lsr #12
    25b8:	0402002e 	streq	r0, [r2], #-46	; 0xffffffd2
    25bc:	d7030601 	strle	r0, [r3, -r1, lsl #12]
    25c0:	02000100 	andeq	r0, r0, #0
    25c4:	002e0104 	eoreq	r0, lr, r4, lsl #2
    25c8:	d6010402 	strle	r0, [r1], -r2, lsl #8
    25cc:	7b081505 	blvc	2079e8 <__bss_end__+0x1fcb78>
    25d0:	05011705 	streq	r1, [r1, #-1797]	; 0xfffff8fb
    25d4:	18053116 	stmdane	r5, {r1, r2, r4, r8, ip, sp}
    25d8:	061d0501 	ldreq	r0, [sp], -r1, lsl #10
    25dc:	662b0501 	strtvs	r0, [fp], -r1, lsl #10
    25e0:	4d061905 	vstrmi.16	s2, [r6, #-10]	; <UNPREDICTABLE>
    25e4:	05130505 	ldreq	r0, [r3, #-1285]	; 0xfffffafb
    25e8:	0501060c 	streq	r0, [r1, #-1548]	; 0xfffff9f4
    25ec:	25054a07 	strcs	r4, [r5, #-2567]	; 0xfffff5f9
    25f0:	01040200 	mrseq	r0, R12_usr
    25f4:	001e054a 	andseq	r0, lr, sl, asr #10
    25f8:	4a010402 	bmi	43608 <__bss_end__+0x38798>
    25fc:	4b060905 	blmi	184a18 <__bss_end__+0x179ba8>
    2600:	05130505 	ldreq	r0, [r3, #-1285]	; 0xfffffafb
    2604:	0501060a 	streq	r0, [r1, #-1546]	; 0xfffff9f6
    2608:	09056319 	stmdbeq	r5, {r0, r3, r4, r8, r9, sp, lr}
    260c:	06014c06 	streq	r4, [r1], -r6, lsl #24
    2610:	022e069e 	eoreq	r0, lr, #165675008	; 0x9e00000
    2614:	0101000a 	tsteq	r1, sl
    2618:	000000be 	strheq	r0, [r0], -lr
    261c:	00800003 	addeq	r0, r0, r3
    2620:	01020000 	mrseq	r0, (UNDEF: 2)
    2624:	000d0efb 	strdeq	r0, [sp], -fp
    2628:	01010101 	tsteq	r1, r1, lsl #2
    262c:	01000000 	mrseq	r0, (UNDEF: 0)
    2630:	2e010000 	cdpcs	0, 0, cr0, cr1, cr0, {0}
    2634:	62696c2f 	rsbvs	r6, r9, #12032	; 0x2f00
    2638:	552f0063 	strpl	r0, [pc, #-99]!	; 25dd <__code_start__-0x5a23>
    263c:	73726573 	cmnvc	r2, #482344960	; 0x1cc00000
    2640:	6972742f 	ldmdbvs	r2!, {r0, r1, r2, r3, r5, sl, ip, sp, lr}^
    2644:	6e657473 	mcrvs	4, 3, r7, cr5, cr3, {3}
    2648:	6c6c6f6e 	stclvs	15, cr6, [ip], #-440	; 0xfffffe48
    264c:	2f6e616d 	svccs	0x006e616d
    2650:	75636f44 	strbvc	r6, [r3, #-3908]!	; 0xfffff0bc
    2654:	746e656d 	strbtvc	r6, [lr], #-1389	; 0xfffffa93
    2658:	70532f73 	subsvc	r2, r3, r3, ror pc
    265c:	676e6972 			; <UNDEFINED> instruction: 0x676e6972
    2660:	6175515f 	cmnvs	r5, pc, asr r1
    2664:	72657472 	rsbvc	r7, r5, #1912602624	; 0x72000000
    2668:	3230325f 	eorscc	r3, r0, #-268435451	; 0xf0000005
    266c:	53432f32 	movtpl	r2, #16178	; 0x3f32
    2670:	4c303432 	cfldrsmi	mvf3, [r0], #-200	; 0xffffff38
    2674:	70732d58 	rsbsvc	r2, r3, r8, asr sp
    2678:	2f323272 	svccs	0x00323272
    267c:	7062696c 	rsbvc	r6, r2, ip, ror #18
    2680:	6e692f69 	cdpvs	15, 6, cr2, cr9, cr9, {3}
    2684:	64756c63 	ldrbtvs	r6, [r5], #-3171	; 0xfffff39d
    2688:	70000065 	andvc	r0, r0, r5, rrx
    268c:	68637475 	stmdavs	r3!, {r0, r2, r4, r5, r6, sl, ip, sp, lr}^
    2690:	632e7261 			; <UNDEFINED> instruction: 0x632e7261
    2694:	00000100 	andeq	r0, r0, r0, lsl #2
    2698:	2e697072 	mcrcs	0, 3, r7, cr9, cr2, {3}
    269c:	00020068 	andeq	r0, r2, r8, rrx
    26a0:	24050000 	strcs	r0, [r5], #-0
    26a4:	24020500 	strcs	r0, [r2], #-1280	; 0xfffffb00
    26a8:	1400009e 	strne	r0, [r0], #-158	; 0xffffff62
    26ac:	26050106 	strcs	r0, [r5], -r6, lsl #2
    26b0:	34054a06 	strcc	r4, [r5], #-2566	; 0xfffff5fa
    26b4:	0601052e 	streq	r0, [r1], -lr, lsr #10
    26b8:	061b0501 	ldreq	r0, [fp], -r1, lsl #10
    26bc:	1305054f 	movwne	r0, #21839	; 0x554f
    26c0:	01061105 	tsteq	r6, r5, lsl #2
    26c4:	05670105 	strbeq	r0, [r7, #-261]!	; 0xfffffefb
    26c8:	05670623 	strbeq	r0, [r7, #-1571]!	; 0xfffff9dd
    26cc:	11051305 	tstne	r5, r5, lsl #6
    26d0:	01050106 	tsteq	r5, r6, lsl #2
    26d4:	0004024b 	andeq	r0, r4, fp, asr #4
    26d8:	010a0101 	tsteq	sl, r1, lsl #2
    26dc:	00030000 	andeq	r0, r3, r0
    26e0:	0000007f 	andeq	r0, r0, pc, ror r0
    26e4:	0efb0102 	cdpeq	1, 15, cr0, cr11, cr2, {0}
    26e8:	0101000d 	tsteq	r1, sp
    26ec:	00000101 	andeq	r0, r0, r1, lsl #2
    26f0:	00000100 	andeq	r0, r0, r0, lsl #2
    26f4:	6c2f2e01 	stcvs	14, cr2, [pc], #-4	; 26f8 <__code_start__-0x5908>
    26f8:	00636269 	rsbeq	r6, r3, r9, ror #4
    26fc:	6573552f 	ldrbvs	r5, [r3, #-1327]!	; 0xfffffad1
    2700:	742f7372 	strtvc	r7, [pc], #-882	; 2708 <__code_start__-0x58f8>
    2704:	74736972 	ldrbtvc	r6, [r3], #-2418	; 0xfffff68e
    2708:	6f6e6e65 	svcvs	0x006e6e65
    270c:	616d6c6c 	cmnvs	sp, ip, ror #24
    2710:	6f442f6e 	svcvs	0x00442f6e
    2714:	656d7563 	strbvs	r7, [sp, #-1379]!	; 0xfffffa9d
    2718:	2f73746e 	svccs	0x0073746e
    271c:	69727053 	ldmdbvs	r2!, {r0, r1, r4, r6, ip, sp, lr}^
    2720:	515f676e 	cmppl	pc, lr, ror #14
    2724:	74726175 	ldrbtvc	r6, [r2], #-373	; 0xfffffe8b
    2728:	325f7265 	subscc	r7, pc, #1342177286	; 0x50000006
    272c:	2f323230 	svccs	0x00323230
    2730:	34325343 	ldrtcc	r5, [r2], #-835	; 0xfffffcbd
    2734:	2d584c30 	ldclcs	12, cr4, [r8, #-192]	; 0xffffff40
    2738:	32727073 	rsbscc	r7, r2, #115, 0	; 0x73
    273c:	696c2f32 	stmdbvs	ip!, {r1, r4, r5, r8, r9, sl, fp, sp}^
    2740:	2f697062 	svccs	0x00697062
    2744:	6c636e69 	stclvs	14, cr6, [r3], #-420	; 0xfffffe5c
    2748:	00656475 	rsbeq	r6, r5, r5, ror r4
    274c:	72747300 	rsbsvc	r7, r4, #0, 6
    2750:	2e746163 	rpwcssz	f6, f4, f3
    2754:	00010063 	andeq	r0, r1, r3, rrx
    2758:	69707200 	ldmdbvs	r0!, {r9, ip, sp, lr}^
    275c:	0200682e 	andeq	r6, r0, #3014656	; 0x2e0000
    2760:	05000000 	streq	r0, [r0, #-0]
    2764:	0205002c 	andeq	r0, r5, #44, 0	; 0x2c
    2768:	00009e60 	andeq	r9, r0, r0, ror #28
    276c:	13050515 	movwne	r0, #21781	; 0x5515
    2770:	060b0513 			; <UNDEFINED> instruction: 0x060b0513
    2774:	00050511 	andeq	r0, r5, r1, lsl r5
    2778:	06010402 	streq	r0, [r1], -r2, lsl #8
    277c:	04020030 	streq	r0, [r2], #-48	; 0xffffffd0
    2780:	09051501 	stmdbeq	r5, {r0, r8, sl, ip}
    2784:	01040200 	mrseq	r0, R12_usr
    2788:	00100513 	andseq	r0, r0, r3, lsl r5
    278c:	06010402 	streq	r0, [r1], -r2, lsl #8
    2790:	000b052e 	andeq	r0, fp, lr, lsr #10
    2794:	2e010402 	cdpcs	4, 0, cr0, cr1, cr2, {0}
    2798:	01040200 	mrseq	r0, R12_usr
    279c:	05052f06 	streq	r2, [r5, #-3846]	; 0xfffff0fa
    27a0:	01040200 	mrseq	r0, R12_usr
    27a4:	4e060106 	adfmis	f0, f6, f6
    27a8:	01060805 	tsteq	r6, r5, lsl #16
    27ac:	02000505 	andeq	r0, r0, #20971520	; 0x1400000
    27b0:	2f060104 	svccs	0x00060104
    27b4:	02000905 	andeq	r0, r0, #81920	; 0x14000
    27b8:	05130104 	ldreq	r0, [r3, #-260]	; 0xfffffefc
    27bc:	0402000b 	streq	r0, [r2], #-11
    27c0:	05010601 	streq	r0, [r1, #-1537]	; 0xfffff9ff
    27c4:	04020009 	streq	r0, [r2], #-9
    27c8:	054b0601 	strbeq	r0, [fp, #-1537]	; 0xfffff9ff
    27cc:	0402000f 	streq	r0, [r2], #-15
    27d0:	05010601 	streq	r0, [r1, #-1537]	; 0xfffff9ff
    27d4:	0402000d 	streq	r0, [r2], #-13
    27d8:	052f0601 	streq	r0, [pc, #-1537]!	; 21df <__code_start__-0x5e21>
    27dc:	04020005 	streq	r0, [r2], #-5
    27e0:	02010601 	andeq	r0, r1, #1048576	; 0x100000
    27e4:	01010006 	tsteq	r1, r6
    27e8:	000000c3 	andeq	r0, r0, r3, asr #1
    27ec:	007f0003 	rsbseq	r0, pc, r3
    27f0:	01020000 	mrseq	r0, (UNDEF: 2)
    27f4:	000d0efb 	strdeq	r0, [sp], -fp
    27f8:	01010101 	tsteq	r1, r1, lsl #2
    27fc:	01000000 	mrseq	r0, (UNDEF: 0)
    2800:	2e010000 	cdpcs	0, 0, cr0, cr1, cr0, {0}
    2804:	62696c2f 	rsbvs	r6, r9, #12032	; 0x2f00
    2808:	552f0063 	strpl	r0, [pc, #-99]!	; 27ad <__code_start__-0x5853>
    280c:	73726573 	cmnvc	r2, #482344960	; 0x1cc00000
    2810:	6972742f 	ldmdbvs	r2!, {r0, r1, r2, r3, r5, sl, ip, sp, lr}^
    2814:	6e657473 	mcrvs	4, 3, r7, cr5, cr3, {3}
    2818:	6c6c6f6e 	stclvs	15, cr6, [ip], #-440	; 0xfffffe48
    281c:	2f6e616d 	svccs	0x006e616d
    2820:	75636f44 	strbvc	r6, [r3, #-3908]!	; 0xfffff0bc
    2824:	746e656d 	strbtvc	r6, [lr], #-1389	; 0xfffffa93
    2828:	70532f73 	subsvc	r2, r3, r3, ror pc
    282c:	676e6972 			; <UNDEFINED> instruction: 0x676e6972
    2830:	6175515f 	cmnvs	r5, pc, asr r1
    2834:	72657472 	rsbvc	r7, r5, #1912602624	; 0x72000000
    2838:	3230325f 	eorscc	r3, r0, #-268435451	; 0xf0000005
    283c:	53432f32 	movtpl	r2, #16178	; 0x3f32
    2840:	4c303432 	cfldrsmi	mvf3, [r0], #-200	; 0xffffff38
    2844:	70732d58 	rsbsvc	r2, r3, r8, asr sp
    2848:	2f323272 	svccs	0x00323272
    284c:	7062696c 	rsbvc	r6, r2, ip, ror #18
    2850:	6e692f69 	cdpvs	15, 6, cr2, cr9, cr9, {3}
    2854:	64756c63 	ldrbtvs	r6, [r5], #-3171	; 0xfffff39d
    2858:	73000065 	movwvc	r0, #101	; 0x65
    285c:	6d637274 	sfmvs	f7, 2, [r3, #-464]!	; 0xfffffe30
    2860:	00632e70 	rsbeq	r2, r3, r0, ror lr
    2864:	72000001 	andvc	r0, r0, #1, 0
    2868:	682e6970 	stmdavs	lr!, {r4, r5, r6, r8, fp, sp, lr}
    286c:	00000200 	andeq	r0, r0, r0, lsl #4
    2870:	002a0500 	eoreq	r0, sl, r0, lsl #10
    2874:	9e940205 	cdpls	2, 9, cr0, cr4, cr5, {0}
    2878:	05140000 	ldreq	r0, [r4, #-0]
    287c:	0f051309 	svceq	0x00051309
    2880:	06100501 	ldreq	r0, [r0], -r1, lsl #10
    2884:	2e0f0501 	cfsh32cs	mvfx0, mvfx15, #1
    2888:	02001c05 	andeq	r1, r0, #1280	; 0x500
    288c:	054a0104 	strbeq	r0, [sl, #-260]	; 0xfffffefc
    2890:	04020013 	streq	r0, [r2], #-19	; 0xffffffed
    2894:	11052e01 	tstne	r5, r1, lsl #28
    2898:	16052f06 	strne	r2, [r5], -r6, lsl #30
    289c:	052e2e06 	streq	r2, [lr, #-3590]!	; 0xfffff1fa
    28a0:	052f0609 	streq	r0, [pc, #-1545]!	; 229f <__code_start__-0x5d61>
    28a4:	05010615 	streq	r0, [r1, #-1557]	; 0xfffff9eb
    28a8:	04022f01 	streq	r2, [r2], #-3841	; 0xfffff0ff
    28ac:	c1010100 	mrsgt	r0, (UNDEF: 17)
    28b0:	03000000 	movweq	r0, #0
    28b4:	00007f00 	andeq	r7, r0, r0, lsl #30
    28b8:	fb010200 	blx	430c2 <__bss_end__+0x38252>
    28bc:	01000d0e 	tsteq	r0, lr, lsl #26
    28c0:	00010101 	andeq	r0, r1, r1, lsl #2
    28c4:	00010000 	andeq	r0, r1, r0
    28c8:	2f2e0100 	svccs	0x002e0100
    28cc:	6362696c 	cmnvs	r2, #108, 18	; 0x1b0000
    28d0:	73552f00 	cmpvc	r5, #0, 30
    28d4:	2f737265 	svccs	0x00737265
    28d8:	73697274 	cmnvc	r9, #116, 4	; 0x40000007
    28dc:	6e6e6574 	mcrvs	5, 3, r6, cr14, cr4, {3}
    28e0:	6d6c6c6f 	stclvs	12, cr6, [ip, #-444]!	; 0xfffffe44
    28e4:	442f6e61 	strtmi	r6, [pc], #-3681	; 28ec <__code_start__-0x5714>
    28e8:	6d75636f 	ldclvs	3, cr6, [r5, #-444]!	; 0xfffffe44
    28ec:	73746e65 	cmnvc	r4, #1616	; 0x650
    28f0:	7270532f 	rsbsvc	r5, r0, #-1140850688	; 0xbc000000
    28f4:	5f676e69 	svcpl	0x00676e69
    28f8:	72617551 	rsbvc	r7, r1, #339738624	; 0x14400000
    28fc:	5f726574 	svcpl	0x00726574
    2900:	32323032 	eorscc	r3, r2, #50, 0	; 0x32
    2904:	3253432f 	subscc	r4, r3, #-1140850688	; 0xbc000000
    2908:	584c3034 	stmdapl	ip, {r2, r4, r5, ip, sp}^
    290c:	7270732d 	rsbsvc	r7, r0, #-1275068416	; 0xb4000000
    2910:	6c2f3232 	sfmvs	f3, 4, [pc], #-200	; 2850 <__code_start__-0x57b0>
    2914:	69706269 	ldmdbvs	r0!, {r0, r3, r5, r6, r9, sp, lr}^
    2918:	636e692f 	cmnvs	lr, #770048	; 0xbc000
    291c:	6564756c 	strbvs	r7, [r4, #-1388]!	; 0xfffffa94
    2920:	74730000 	ldrbtvc	r0, [r3], #-0
    2924:	79706372 	ldmdbvc	r0!, {r1, r4, r5, r6, r8, r9, sp, lr}^
    2928:	0100632e 	tsteq	r0, lr, lsr #6
    292c:	70720000 	rsbsvc	r0, r2, r0
    2930:	00682e69 	rsbeq	r2, r8, r9, ror #28
    2934:	00000002 	andeq	r0, r0, r2
    2938:	05002a05 	streq	r2, [r0, #-2565]	; 0xfffff5fb
    293c:	009ec002 	addseq	ip, lr, r2
    2940:	05051400 	streq	r1, [r5, #-1024]	; 0xfffffc00
    2944:	14051313 	strne	r1, [r5], #-787	; 0xfffffced
    2948:	22051106 	andcs	r1, r5, #-2147483647	; 0x80000001
    294c:	01040200 	mrseq	r0, R12_usr
    2950:	0b052f06 	bleq	14e570 <__bss_end__+0x143700>
    2954:	01040200 	mrseq	r0, R12_usr
    2958:	00150501 	andseq	r0, r5, r1, lsl #10
    295c:	06010402 	streq	r0, [r1], -r2, lsl #8
    2960:	00130501 	andseq	r0, r3, r1, lsl #10
    2964:	4a010402 	bmi	43974 <__bss_end__+0x38b04>
    2968:	02000b05 	andeq	r0, r0, #5120	; 0x1400
    296c:	024a0104 	subeq	r0, sl, #1
    2970:	01010006 	tsteq	r1, r6
    2974:	00000121 	andeq	r0, r0, r1, lsr #2
    2978:	00e50003 	rsceq	r0, r5, r3
    297c:	01020000 	mrseq	r0, (UNDEF: 2)
    2980:	000d0efb 	strdeq	r0, [sp], -fp
    2984:	01010101 	tsteq	r1, r1, lsl #2
    2988:	01000000 	mrseq	r0, (UNDEF: 0)
    298c:	2e010000 	cdpcs	0, 0, cr0, cr1, cr0, {0}
    2990:	62696c2f 	rsbvs	r6, r9, #12032	; 0x2f00
    2994:	552f0063 	strpl	r0, [pc, #-99]!	; 2939 <__code_start__-0x56c7>
    2998:	73726573 	cmnvc	r2, #482344960	; 0x1cc00000
    299c:	6972742f 	ldmdbvs	r2!, {r0, r1, r2, r3, r5, sl, ip, sp, lr}^
    29a0:	6e657473 	mcrvs	4, 3, r7, cr5, cr3, {3}
    29a4:	6c6c6f6e 	stclvs	15, cr6, [ip], #-440	; 0xfffffe48
    29a8:	2f6e616d 	svccs	0x006e616d
    29ac:	75636f44 	strbvc	r6, [r3, #-3908]!	; 0xfffff0bc
    29b0:	746e656d 	strbtvc	r6, [lr], #-1389	; 0xfffffa93
    29b4:	70532f73 	subsvc	r2, r3, r3, ror pc
    29b8:	676e6972 			; <UNDEFINED> instruction: 0x676e6972
    29bc:	6175515f 	cmnvs	r5, pc, asr r1
    29c0:	72657472 	rsbvc	r7, r5, #1912602624	; 0x72000000
    29c4:	3230325f 	eorscc	r3, r0, #-268435451	; 0xf0000005
    29c8:	53432f32 	movtpl	r2, #16178	; 0x3f32
    29cc:	4c303432 	cfldrsmi	mvf3, [r0], #-200	; 0xffffff38
    29d0:	70732d58 	rsbsvc	r2, r3, r8, asr sp
    29d4:	2f323272 	svccs	0x00323272
    29d8:	7062696c 	rsbvc	r6, r2, ip, ror #18
    29dc:	6e692f69 	cdpvs	15, 6, cr2, cr9, cr9, {3}
    29e0:	64756c63 	ldrbtvs	r6, [r5], #-3171	; 0xfffff39d
    29e4:	752f0065 	strvc	r0, [pc, #-101]!	; 2987 <__code_start__-0x5679>
    29e8:	6c2f7273 	sfmvs	f7, 4, [pc], #-460	; 2824 <__code_start__-0x57dc>
    29ec:	6c61636f 	stclvs	3, cr6, [r1], #-444	; 0xfffffe44
    29f0:	6c65432f 	stclvs	3, cr4, [r5], #-188	; 0xffffff44
    29f4:	2f72616c 	svccs	0x0072616c
    29f8:	2d6d7261 	sfmcs	f7, 2, [sp, #-388]!	; 0xfffffe7c
    29fc:	656e6f6e 	strbvs	r6, [lr, #-3950]!	; 0xfffff092
    2a00:	6261652d 	rsbvs	r6, r1, #188743680	; 0xb400000
    2a04:	65742d69 	ldrbvs	r2, [r4, #-3433]!	; 0xfffff297
    2a08:	392f7473 	stmdbcc	pc!, {r0, r1, r4, r5, r6, sl, ip, sp, lr}	; <UNPREDICTABLE>
    2a0c:	3130322d 	teqcc	r0, sp, lsr #4
    2a10:	2d347139 	ldfcss	f7, [r4, #-228]!	; 0xffffff1c
    2a14:	30317363 	eorscc	r7, r1, r3, ror #6
    2a18:	6c2f6537 	cfstr32vs	mvfx6, [pc], #-220	; 2944 <__code_start__-0x56bc>
    2a1c:	672f6269 	strvs	r6, [pc, -r9, ror #4]!
    2a20:	612f6363 			; <UNDEFINED> instruction: 0x612f6363
    2a24:	6e2d6d72 	mcrvs	13, 1, r6, cr13, cr2, {3}
    2a28:	2d656e6f 	stclcs	14, cr6, [r5, #-444]!	; 0xfffffe44
    2a2c:	69626165 	stmdbvs	r2!, {r0, r2, r5, r6, r8, sp, lr}^
    2a30:	322e392f 	eorcc	r3, lr, #770048	; 0xbc000
    2a34:	692f312e 	stmdbvs	pc!, {r1, r2, r3, r5, r8, ip, sp}	; <UNPREDICTABLE>
    2a38:	756c636e 	strbvc	r6, [ip, #-878]!	; 0xfffffc92
    2a3c:	00006564 	andeq	r6, r0, r4, ror #10
    2a40:	6e727473 	mrcvs	4, 3, r7, cr2, cr3, {3}
    2a44:	2e706d63 	cdpcs	13, 7, cr6, cr0, cr3, {3}
    2a48:	00010063 	andeq	r0, r1, r3, rrx
    2a4c:	69707200 	ldmdbvs	r0!, {r9, ip, sp, lr}^
    2a50:	0200682e 	andeq	r6, r0, #3014656	; 0x2e0000
    2a54:	74730000 	ldrbtvc	r0, [r3], #-0
    2a58:	66656464 	strbtvs	r6, [r5], -r4, ror #8
    2a5c:	0300682e 	movweq	r6, #2094	; 0x82e
    2a60:	05000000 	streq	r0, [r0, #-0]
    2a64:	02050039 	andeq	r0, r5, #57, 0	; 0x39
    2a68:	00009ee0 	andeq	r9, r0, r0, ror #29
    2a6c:	13050515 	movwne	r0, #21781	; 0x5515
    2a70:	010a0513 	tsteq	sl, r3, lsl r5
    2a74:	054a0106 	strbeq	r0, [sl, #-262]	; 0xfffffefa
    2a78:	052f0609 	streq	r0, [pc, #-1545]!	; 2477 <__code_start__-0x5b89>
    2a7c:	0501060c 	streq	r0, [r1, #-1548]	; 0xfffff9f4
    2a80:	0b052e13 	bleq	14e2d4 <__bss_end__+0x143464>
    2a84:	060d052e 	streq	r0, [sp], -lr, lsr #10
    2a88:	061b054b 	ldreq	r0, [fp], -fp, asr #10
    2a8c:	0c052e01 	stceq	14, cr2, [r5], {1}
    2a90:	2f010530 	svccs	0x00010530
    2a94:	01000202 	tsteq	r0, r2, lsl #4
    2a98:	0000b001 	andeq	fp, r0, r1
    2a9c:	94000300 	strls	r0, [r0], #-768	; 0xfffffd00
    2aa0:	02000000 	andeq	r0, r0, #0, 0
    2aa4:	0d0efb01 	vstreq	d15, [lr, #-4]
    2aa8:	01010100 	mrseq	r0, (UNDEF: 17)
    2aac:	00000001 	andeq	r0, r0, r1
    2ab0:	01000001 	tsteq	r0, r1
    2ab4:	74732f2e 	ldrbtvc	r2, [r3], #-3886	; 0xfffff0d2
    2ab8:	2d666661 	stclcs	6, cr6, [r6, #-388]!	; 0xfffffe7c
    2abc:	00637273 	rsbeq	r7, r3, r3, ror r2
    2ac0:	6573552f 	ldrbvs	r5, [r3, #-1327]!	; 0xfffffad1
    2ac4:	742f7372 	strtvc	r7, [pc], #-882	; 2acc <__code_start__-0x5534>
    2ac8:	74736972 	ldrbtvc	r6, [r3], #-2418	; 0xfffff68e
    2acc:	6f6e6e65 	svcvs	0x006e6e65
    2ad0:	616d6c6c 	cmnvs	sp, ip, ror #24
    2ad4:	6f442f6e 	svcvs	0x00442f6e
    2ad8:	656d7563 	strbvs	r7, [sp, #-1379]!	; 0xfffffa9d
    2adc:	2f73746e 	svccs	0x0073746e
    2ae0:	69727053 	ldmdbvs	r2!, {r0, r1, r4, r6, ip, sp, lr}^
    2ae4:	515f676e 	cmppl	pc, lr, ror #14
    2ae8:	74726175 	ldrbtvc	r6, [r2], #-373	; 0xfffffe8b
    2aec:	325f7265 	subscc	r7, pc, #1342177286	; 0x50000006
    2af0:	2f323230 	svccs	0x00323230
    2af4:	34325343 	ldrtcc	r5, [r2], #-835	; 0xfffffcbd
    2af8:	2d584c30 	ldclcs	12, cr4, [r8, #-192]	; 0xffffff40
    2afc:	32727073 	rsbscc	r7, r2, #115, 0	; 0x73
    2b00:	696c2f32 	stmdbvs	ip!, {r1, r4, r5, r8, r9, sl, fp, sp}^
    2b04:	2f697062 	svccs	0x00697062
    2b08:	6c636e69 	stclvs	14, cr6, [r3], #-420	; 0xfffffe5c
    2b0c:	00656475 	rsbeq	r6, r5, r5, ror r4
    2b10:	66656400 	strbtvs	r6, [r5], -r0, lsl #8
    2b14:	746c7561 	strbtvc	r7, [ip], #-1377	; 0xfffffa9f
    2b18:	6265722d 	rsbvs	r7, r5, #-805306366	; 0xd0000002
    2b1c:	2d746f6f 	ldclcs	15, cr6, [r4, #-444]!	; 0xfffffe44
    2b20:	6c6c6163 	stfvse	f6, [ip], #-396	; 0xfffffe74
    2b24:	2e74756f 	cdpcs	5, 7, cr7, cr4, cr15, {3}
    2b28:	00010063 	andeq	r0, r1, r3, rrx
    2b2c:	69707200 	ldmdbvs	r0!, {r9, ip, sp, lr}^
    2b30:	0200682e 	andeq	r6, r0, #3014656	; 0x2e0000
    2b34:	05000000 	streq	r0, [r0, #-0]
    2b38:	0205001b 	andeq	r0, r5, #27, 0
    2b3c:	00009f0c 	andeq	r9, r0, ip, lsl #30
    2b40:	011c0514 	tsteq	ip, r4, lsl r5
    2b44:	01060105 	tsteq	r6, r5, lsl #2
    2b48:	01000202 	tsteq	r0, r2, lsl #4
    2b4c:	0001bb01 	andeq	fp, r1, r1, lsl #22
    2b50:	bf000300 	svclt	0x00000300
    2b54:	02000000 	andeq	r0, r0, #0, 0
    2b58:	0d0efb01 	vstreq	d15, [lr, #-4]
    2b5c:	01010100 	mrseq	r0, (UNDEF: 17)
    2b60:	00000001 	andeq	r0, r0, r1
    2b64:	01000001 	tsteq	r0, r1
    2b68:	6d6f682f 	stclvs	8, cr6, [pc, #-188]!	; 2ab4 <__code_start__-0x554c>
    2b6c:	6e652f65 	cdpvs	15, 6, cr2, cr5, cr5, {3}
    2b70:	72656c67 	rsbvc	r6, r5, #26368	; 0x6700
    2b74:	616c632f 	cmnvs	ip, pc, lsr #6
    2b78:	632f7373 			; <UNDEFINED> instruction: 0x632f7373
    2b7c:	30343273 	eorscc	r3, r4, r3, ror r2
    2b80:	322d786c 	eorcc	r7, sp, #108, 16	; 0x6c0000
    2b84:	72707332 	rsbsvc	r7, r0, #-939524096	; 0xc8000000
    2b88:	696c2f2f 	stmdbvs	ip!, {r0, r1, r2, r3, r5, r8, r9, sl, fp, sp}^
    2b8c:	2f697062 	svccs	0x00697062
    2b90:	6c636e69 	stclvs	14, cr6, [r3], #-420	; 0xfffffe5c
    2b94:	00656475 	rsbeq	r6, r5, r5, ror r4
    2b98:	7273752f 	rsbsvc	r7, r3, #197132288	; 0xbc00000
    2b9c:	6168732f 	cmnvs	r8, pc, lsr #6
    2ba0:	672f6572 			; <UNDEFINED> instruction: 0x672f6572
    2ba4:	612d6363 			; <UNDEFINED> instruction: 0x612d6363
    2ba8:	6e2d6d72 	mcrvs	13, 1, r6, cr13, cr2, {3}
    2bac:	2d656e6f 	stclcs	14, cr6, [r5, #-444]!	; 0xfffffe44
    2bb0:	69626165 	stmdbvs	r2!, {r0, r2, r5, r6, r8, sp, lr}^
    2bb4:	2e30312d 	rsfcssp	f3, f0, #5.0
    2bb8:	30322d33 	eorscc	r2, r2, r3, lsr sp
    2bbc:	312e3132 			; <UNDEFINED> instruction: 0x312e3132
    2bc0:	696c2f30 	stmdbvs	ip!, {r4, r5, r8, r9, sl, fp, sp}^
    2bc4:	63672f62 	cmnvs	r7, #392	; 0x188
    2bc8:	72612f63 	rsbvc	r2, r1, #396	; 0x18c
    2bcc:	6f6e2d6d 	svcvs	0x006e2d6d
    2bd0:	652d656e 	strvs	r6, [sp, #-1390]!	; 0xfffffa92
    2bd4:	2f696261 	svccs	0x00696261
    2bd8:	332e3031 			; <UNDEFINED> instruction: 0x332e3031
    2bdc:	692f312e 	stmdbvs	pc!, {r1, r2, r3, r5, r8, ip, sp}	; <UNPREDICTABLE>
    2be0:	756c636e 	strbvc	r6, [ip, #-878]!	; 0xfffffc92
    2be4:	00006564 	andeq	r6, r0, r4, ror #10
    2be8:	6f697067 	svcvs	0x00697067
    2bec:	0000632e 	andeq	r6, r0, lr, lsr #6
    2bf0:	70720000 	rsbsvc	r0, r2, r0
    2bf4:	00682e69 	rsbeq	r2, r8, r9, ror #28
    2bf8:	73000001 	movwvc	r0, #1
    2bfc:	6e696474 	mcrvs	4, 3, r6, cr9, cr4, {3}
    2c00:	63672d74 	cmnvs	r7, #116, 26	; 0x1d00
    2c04:	00682e63 	rsbeq	r2, r8, r3, ror #28
    2c08:	67000002 	strvs	r0, [r0, -r2]
    2c0c:	2e6f6970 			; <UNDEFINED> instruction: 0x2e6f6970
    2c10:	00010068 	andeq	r0, r1, r8, rrx
    2c14:	38050000 	stmdacc	r5, {}	; <UNPREDICTABLE>
    2c18:	28020500 	stmdacs	r2, {r8, sl}
    2c1c:	0300009f 	movweq	r0, #159	; 0x9f
    2c20:	05050127 	streq	r0, [r5, #-295]	; 0xfffffed9
    2c24:	06070513 			; <UNDEFINED> instruction: 0x06070513
    2c28:	49380501 	ldmdbmi	r8!, {r0, r8, sl}
    2c2c:	4d060505 	cfstr32mi	mvfx0, [r6, #-20]	; 0xffffffec
    2c30:	01060705 	tsteq	r6, r5, lsl #14
    2c34:	4c060505 	cfstr32mi	mvfx0, [r6], {5}
    2c38:	01061805 	tsteq	r6, r5, lsl #16
    2c3c:	05ba0e05 	ldreq	r0, [sl, #3589]!	; 0xe05
    2c40:	052f0605 	streq	r0, [pc, #-1541]!	; 2643 <__code_start__-0x59bd>
    2c44:	2e01061c 	mcrcs	6, 0, r0, cr1, cr12, {0}
    2c48:	052e0e05 	streq	r0, [lr, #-3589]!	; 0xfffff1fb
    2c4c:	05300605 	ldreq	r0, [r0, #-1541]!	; 0xfffff9fb
    2c50:	05010612 	streq	r0, [r1, #-1554]	; 0xfffff9ee
    2c54:	054b0605 	strbeq	r0, [fp, #-1541]	; 0xfffff9fb
    2c58:	05010607 	streq	r0, [r1, #-1543]	; 0xfffff9f9
    2c5c:	134b0605 	movtne	r0, #46597	; 0xb605
    2c60:	01052e06 	tsteq	r5, r6, lsl #28
    2c64:	0624054b 	strteq	r0, [r4], -fp, asr #10
    2c68:	0501064c 	streq	r0, [r1, #-1612]	; 0xfffff9b4
    2c6c:	052f0605 	streq	r0, [pc, #-1541]!	; 266f <__code_start__-0x5991>
    2c70:	054b0601 	strbeq	r0, [fp, #-1537]	; 0xfffff9ff
    2c74:	05310620 	ldreq	r0, [r1, #-1568]!	; 0xfffff9e0
    2c78:	07051305 	streq	r1, [r5, -r5, lsl #6]
    2c7c:	20050106 	andcs	r0, r5, r6, lsl #2
    2c80:	06050549 	streq	r0, [r5], -r9, asr #10
    2c84:	05660631 	strbeq	r0, [r6, #-1585]!	; 0xfffff9cf
    2c88:	21052f01 	tstcs	r5, r1, lsl #30
    2c8c:	05054d06 	streq	r4, [r5, #-3334]	; 0xfffff2fa
    2c90:	06070513 			; <UNDEFINED> instruction: 0x06070513
    2c94:	49210501 	stmdbmi	r1!, {r0, r8, sl}
    2c98:	31060505 	tstcc	r6, r5, lsl #10
    2c9c:	01056606 	tsteq	r5, r6, lsl #12
    2ca0:	0623052f 	strteq	r0, [r3], -pc, lsr #10
    2ca4:	0501064d 	streq	r0, [r1, #-1613]	; 0xfffff9b3
    2ca8:	052f0605 	streq	r0, [pc, #-1541]!	; 26ab <__code_start__-0x5955>
    2cac:	054b0601 	strbeq	r0, [fp, #-1537]	; 0xfffff9ff
    2cb0:	0631062b 	ldrteq	r0, [r1], -fp, lsr #12
    2cb4:	06050501 	streq	r0, [r5], -r1, lsl #10
    2cb8:	0607052f 	streq	r0, [r7], -pc, lsr #10
    2cbc:	06090501 	streq	r0, [r9], -r1, lsl #10
    2cc0:	062e064b 	strteq	r0, [lr], -fp, asr #12
    2cc4:	06010530 			; <UNDEFINED> instruction: 0x06010530
    2cc8:	061d052f 	ldreq	r0, [sp], -pc, lsr #10
    2ccc:	13050530 	movwne	r0, #21808	; 0x5530
    2cd0:	01060705 	tsteq	r6, r5, lsl #14
    2cd4:	05491d05 	strbeq	r1, [r9, #-3333]	; 0xfffff2fb
    2cd8:	13310605 	teqne	r1, #5242880	; 0x500000
    2cdc:	01060e05 	tsteq	r6, r5, lsl #28
    2ce0:	2f060505 	svccs	0x00060505
    2ce4:	01061705 	tsteq	r6, r5, lsl #14
    2ce8:	2e23054a 	cfsh64cs	mvdx0, mvdx3, #42
    2cec:	30050204 	andcc	r0, r5, r4, lsl #4
    2cf0:	00dc0306 	sbcseq	r0, ip, r6, lsl #6
    2cf4:	0501042e 	streq	r0, [r1, #-1070]	; 0xfffffbd2
    2cf8:	a403060c 	strge	r0, [r3], #-1548	; 0xfffff9f4
    2cfc:	0105017f 	tsteq	r5, pc, ror r1
    2d00:	2a10052f 	bcs	4041c4 <__bss_end__+0x3f9354>
    2d04:	02320105 	eorseq	r0, r2, #1073741825	; 0x40000001
    2d08:	01010004 	tsteq	r1, r4

Disassembly of section .debug_str:

00000000 <.debug_str>:
   0:	765f6b63 	ldrbvc	r6, [pc], -r3, ror #22
   4:	6f627265 	svcvs	0x00627265
   8:	705f6573 	subsvc	r6, pc, r3, ror r5	; <UNPREDICTABLE>
   c:	72646800 	rsbvc	r6, r4, #0, 16
  10:	6e00745f 	cfmvsrvs	mvf0, r7
  14:	00747865 	rsbseq	r7, r4, r5, ror #16
  18:	6c616b63 			; <UNDEFINED> instruction: 0x6c616b63
  1c:	00636f6c 	rsbeq	r6, r3, ip, ror #30
  20:	74617473 	strbtvc	r7, [r1], #-1139	; 0xfffffb8d
  24:	72730065 	rsbsvc	r0, r3, #101, 0	; 0x65
  28:	6f6c5f63 	svcvs	0x006c5f63
  2c:	6b6d5f63 	blvs	1b57dc0 <__bss_end__+0x1b4cf50>
  30:	6e696c00 	cdpvs	12, 6, cr6, cr9, cr0, {0}
  34:	006f6e65 	rsbeq	r6, pc, r5, ror #28
  38:	6b72616d 	blvs	1c985f4 <__bss_end__+0x1c8d784>
  3c:	746f6e00 	strbtvc	r6, [pc], #-3584	; 44 <__code_start__-0x7fbc>
  40:	6e69616d 	powvsez	f6, f1, #5.0
  44:	79626e00 	stmdbvc	r2!, {r9, sl, fp, sp, lr}^
  48:	5f736574 	svcpl	0x00736574
  4c:	6f6c6c61 	svcvs	0x006c6c61
  50:	6b630063 	blvs	18c01e4 <__bss_end__+0x18b5374>
  54:	6165685f 	cmnvs	r5, pc, asr r8
  58:	72655f70 	rsbvc	r5, r5, #112, 30	; 0x1c0
  5c:	73726f72 	cmnvc	r2, #456	; 0x1c8
  60:	6c696600 	stclvs	6, cr6, [r9], #-0
  64:	6e750065 	cdpvs	0, 7, cr0, cr5, cr5, {3}
  68:	6e676973 			; <UNDEFINED> instruction: 0x6e676973
  6c:	63206465 			; <UNDEFINED> instruction: 0x63206465
  70:	00726168 	rsbseq	r6, r2, r8, ror #2
  74:	61656c63 	cmnvs	r5, r3, ror #24
  78:	65725f6e 	ldrbvs	r5, [r2, #-3950]!	; 0xfffff092
  7c:	746f6f62 	strbtvc	r6, [pc], #-3938	; 84 <__code_start__-0x7f7c>
  80:	6f687300 	svcvs	0x00687300
  84:	75207472 	strvc	r7, [r0, #-1138]!	; 0xfffffb8e
  88:	6769736e 	strbvs	r7, [r9, -lr, ror #6]!
  8c:	2064656e 	rsbcs	r6, r4, lr, ror #10
  90:	00746e69 	rsbseq	r6, r4, r9, ror #28
  94:	685f6b63 	ldmdavs	pc, {r0, r1, r5, r6, r8, r9, fp, sp, lr}^	; <UNPREDICTABLE>
  98:	66007264 	strvs	r7, [r0], -r4, ror #4
  9c:	00636e75 	rsbeq	r6, r3, r5, ror lr
  a0:	5f697072 	svcpl	0x00697072
  a4:	646e6172 	strbtvs	r6, [lr], #-370	; 0xfffffe8e
  a8:	5f003233 	svcpl	0x00003233
  ac:	4e55465f 	mrcmi	6, 2, r4, cr5, cr15, {2}
  b0:	4f495443 	svcmi	0x00495443
  b4:	005f5f4e 	subseq	r5, pc, lr, asr #30
  b8:	6f6c6c61 	svcvs	0x006c6c61
  bc:	696c5f63 	stmdbvs	ip!, {r0, r1, r5, r6, r8, r9, sl, fp, ip, lr}^
  c0:	6c007473 	cfstrsvs	mvf7, [r0], {115}	; 0x73
  c4:	20676e6f 	rsbcs	r6, r7, pc, ror #28
  c8:	676e6f6c 	strbvs	r6, [lr, -ip, ror #30]!
  cc:	736e7520 	cmnvc	lr, #32, 10	; 0x8000000
  d0:	656e6769 	strbvs	r6, [lr, #-1897]!	; 0xfffff897
  d4:	6e692064 	cdpvs	0, 6, cr2, cr9, cr4, {3}
  d8:	69750074 	ldmdbvs	r5!, {r2, r4, r5, r6}^
  dc:	5f38746e 	svcpl	0x0038746e
  e0:	6c610074 	stclvs	0, cr0, [r1], #-464	; 0xfffffe30
  e4:	5f636f6c 	svcpl	0x00636f6c
  e8:	00636f6c 	rsbeq	r6, r3, ip, ror #30
  ec:	6b61656c 	blvs	18596a4 <__bss_end__+0x184e834>
  f0:	2f006465 	svccs	0x00006465
  f4:	72657355 	rsbvc	r7, r5, #1409286145	; 0x54000001
  f8:	72742f73 	rsbsvc	r2, r4, #460	; 0x1cc
  fc:	65747369 	ldrbvs	r7, [r4, #-873]!	; 0xfffffc97
 100:	6c6f6e6e 	stclvs	14, cr6, [pc], #-440	; ffffff50 <__bss_end__+0xffff50e0>
 104:	6e616d6c 	cdpvs	13, 6, cr6, cr1, cr12, {3}
 108:	636f442f 	cmnvs	pc, #788529152	; 0x2f000000
 10c:	6e656d75 	mcrvs	13, 3, r6, cr5, cr5, {3}
 110:	532f7374 			; <UNDEFINED> instruction: 0x532f7374
 114:	6e697270 	mcrvs	2, 3, r7, cr9, cr0, {3}
 118:	75515f67 	ldrbvc	r5, [r1, #-3943]	; 0xfffff099
 11c:	65747261 	ldrbvs	r7, [r4, #-609]!	; 0xfffffd9f
 120:	30325f72 	eorscc	r5, r2, r2, ror pc
 124:	432f3232 			; <UNDEFINED> instruction: 0x432f3232
 128:	30343253 	eorscc	r3, r4, r3, asr r2
 12c:	732d584c 			; <UNDEFINED> instruction: 0x732d584c
 130:	32327270 	eorscc	r7, r2, #112, 4
 134:	62616c2f 	rsbvs	r6, r1, #12032	; 0x2f00
 138:	2d352f73 	ldccs	15, cr2, [r5, #-460]!	; 0xfffffe34
 13c:	6c6c616d 	stfvse	f6, [ip], #-436	; 0xfffffe4c
 140:	672b636f 	strvs	r6, [fp, -pc, ror #6]!
 144:	6f632f63 	svcvs	0x00632f63
 148:	6c006564 	cfstr32vs	mvfx6, [r0], {100}	; 0x64
 14c:	20676e6f 	rsbcs	r6, r7, pc, ror #28
 150:	676e6f6c 	strbvs	r6, [lr, -ip, ror #30]!
 154:	746e6920 	strbtvc	r6, [lr], #-2336	; 0xfffff6e0
 158:	69707200 	ldmdbvs	r0!, {r9, ip, sp, lr}^
 15c:	7475705f 	ldrbtvc	r7, [r5], #-95	; 0xffffffa1
 160:	72616863 	rsbvc	r6, r1, #6488064	; 0x630000
 164:	73657400 	cmnvc	r5, #0, 8
 168:	332d7374 			; <UNDEFINED> instruction: 0x332d7374
 16c:	702f302e 	eorvc	r3, pc, lr, lsr #32
 170:	31747261 	cmncc	r4, r1, ror #4
 174:	7365742d 	cmnvc	r5, #754974720	; 0x2d000000
 178:	6e2d3574 	mcrvs	5, 1, r3, cr13, cr4, {3}
 17c:	75622d6f 	strbvc	r2, [r2, #-3439]!	; 0xfffff291
 180:	00632e67 	rsbeq	r2, r3, r7, ror #28
 184:	72666b63 	rsbvc	r6, r6, #101376	; 0x18c00
 188:	73006565 	movwvc	r6, #1381	; 0x565
 18c:	74726f68 	ldrbtvc	r6, [r2], #-3944	; 0xfffff098
 190:	746e6920 	strbtvc	r6, [lr], #-2336	; 0xfffff6e0
 194:	63727300 	cmnvs	r2, #0, 6
 198:	636f6c5f 	cmnvs	pc, #24320	; 0x5f00
 19c:	7500745f 	strvc	r7, [r0, #-1119]	; 0xfffffba1
 1a0:	31746e69 	cmncc	r4, r9, ror #28
 1a4:	00745f36 	rsbseq	r5, r4, r6, lsr pc
 1a8:	746e6975 	strbtvc	r6, [lr], #-2421	; 0xfffff68b
 1ac:	745f3233 	ldrbvc	r3, [pc], #-563	; 1b4 <__code_start__-0x7e4c>
 1b0:	73616c00 	cmnvc	r1, #0, 24
 1b4:	6f6e5f74 	svcvs	0x006e5f74
 1b8:	47006564 	strmi	r6, [r0, -r4, ror #10]
 1bc:	4320554e 			; <UNDEFINED> instruction: 0x4320554e
 1c0:	39203939 	stmdbcc	r0!, {r0, r3, r4, r5, r8, fp, ip, sp}
 1c4:	312e322e 			; <UNDEFINED> instruction: 0x312e322e
 1c8:	31303220 	teqcc	r0, r0, lsr #4
 1cc:	32303139 	eorscc	r3, r0, #1073741838	; 0x4000000e
 1d0:	72282035 	eorvc	r2, r8, #53, 0	; 0x35
 1d4:	61656c65 	cmnvs	r5, r5, ror #24
 1d8:	20296573 	eorcs	r6, r9, r3, ror r5
 1dc:	4d52415b 	ldfmie	f4, [r2, #-364]	; 0xfffffe94
 1e0:	6d72612f 	ldfvse	f6, [r2, #-188]!	; 0xffffff44
 1e4:	622d392d 	eorvs	r3, sp, #737280	; 0xb4000
 1e8:	636e6172 	cmnvs	lr, #-2147483620	; 0x8000001c
 1ec:	65722068 	ldrbvs	r2, [r2, #-104]!	; 0xffffff98
 1f0:	69736976 	ldmdbvs	r3!, {r1, r2, r4, r5, r6, r8, fp, sp, lr}^
 1f4:	32206e6f 	eorcc	r6, r0, #1776	; 0x6f0
 1f8:	39353737 	ldmdbcc	r5!, {r0, r1, r2, r4, r5, r8, r9, sl, ip, sp}
 1fc:	2d205d39 	stccs	13, cr5, [r0, #-228]!	; 0xffffff1c
 200:	7570636d 	ldrbvc	r6, [r0, #-877]!	; 0xfffffc93
 204:	6d72613d 	ldfvse	f6, [r2, #-244]!	; 0xffffff0c
 208:	36373131 			; <UNDEFINED> instruction: 0x36373131
 20c:	2d667a6a 	vstmdbcs	r6!, {s15-s120}
 210:	6d2d2073 	stcvs	0, cr2, [sp, #-460]!	; 0xfffffe34
 214:	656e7574 	strbvs	r7, [lr, #-1396]!	; 0xfffffa8c
 218:	6d72613d 	ldfvse	f6, [r2, #-244]!	; 0xffffff0c
 21c:	36373131 			; <UNDEFINED> instruction: 0x36373131
 220:	2d667a6a 	vstmdbcs	r6!, {s15-s120}
 224:	6d2d2073 	stcvs	0, cr2, [sp, #-460]!	; 0xfffffe34
 228:	616f6c66 	cmnvs	pc, r6, ror #24
 22c:	62612d74 	rsbvs	r2, r1, #116, 26	; 0x1d00
 230:	6f733d69 	svcvs	0x00733d69
 234:	2d207466 	cfstrscs	mvf7, [r0, #-408]!	; 0xfffffe68
 238:	6d72616d 	ldfvse	f6, [r2, #-436]!	; 0xfffffe4c
 23c:	616d2d20 	cmnvs	sp, r0, lsr #26
 240:	3d686372 	stclcc	3, cr6, [r8, #-456]!	; 0xfffffe38
 244:	766d7261 	strbtvc	r7, [sp], -r1, ror #4
 248:	207a6b36 	rsbscs	r6, sl, r6, lsr fp
 24c:	6467672d 	strbtvs	r6, [r7], #-1837	; 0xfffff8d3
 250:	4f2d2062 	svcmi	0x002d2062
 254:	732d2067 			; <UNDEFINED> instruction: 0x732d2067
 258:	673d6474 			; <UNDEFINED> instruction: 0x673d6474
 25c:	3939756e 	ldmdbcc	r9!, {r1, r2, r3, r5, r6, r8, sl, ip, sp, lr}
 260:	66662d20 	strbtvs	r2, [r6], -r0, lsr #26
 264:	73656572 	cmnvc	r5, #478150656	; 0x1c800000
 268:	646e6174 	strbtvs	r6, [lr], #-372	; 0xfffffe8c
 26c:	00676e69 	rsbeq	r6, r7, r9, ror #28
 270:	73666572 	cmnvc	r6, #478150656	; 0x1c800000
 274:	6174735f 	cmnvs	r4, pc, asr r3
 278:	6e007472 	mcrvs	4, 0, r7, cr0, cr2, {3}
 27c:	5f747865 	svcpl	0x00747865
 280:	636f6c62 	cmnvs	pc, #25088	; 0x6200
 284:	64695f6b 	strbtvs	r5, [r9], #-3947	; 0xfffff095
 288:	66657200 	strbtvs	r7, [r5], -r0, lsl #4
 28c:	696d5f73 	stmdbvs	sp!, {r0, r1, r4, r5, r6, r8, r9, sl, fp, ip, lr}^
 290:	656c6464 	strbvs	r6, [ip, #-1124]!	; 0xfffffb9c
 294:	5f6b6300 	svcpl	0x006b6300
 298:	5f727470 	svcpl	0x00727470
 29c:	625f6e69 	subsvs	r6, pc, #1680	; 0x690
 2a0:	6b636f6c 	blvs	18dc058 <__bss_end__+0x18d11e8>
 2a4:	65727000 	ldrbvs	r7, [r2, #-0]!
 2a8:	616c5f76 	smcvs	50678	; 0xc5f6
 2ac:	63007473 	movwvs	r7, #1139	; 0x473
 2b0:	65675f6b 	strbvs	r5, [r7, #-3947]!	; 0xfffff095
 2b4:	7a725f74 	bvc	1c9808c <__bss_end__+0x1c8d21c>
 2b8:	52460032 	subpl	r0, r6, #50, 0	; 0x32
 2bc:	00444545 	subeq	r4, r4, r5, asr #10
 2c0:	544e4553 	strbpl	r4, [lr], #-1363	; 0xfffffaad
 2c4:	4c414e49 	mcrrmi	14, 4, r4, r1, cr9
 2c8:	73696c00 	cmnvc	r9, #0, 24
 2cc:	70615f74 	rsbvc	r5, r1, r4, ror pc
 2d0:	646e6570 	strbtvs	r6, [lr], #-1392	; 0xfffffa90
 2d4:	6d656d00 	stclvs	13, cr6, [r5, #-0]
 2d8:	00797063 	rsbseq	r7, r9, r3, rrx
 2dc:	5a444552 	bpl	111182c <__bss_end__+0x11069bc>
 2e0:	5f454e4f 	svcpl	0x00454e4f
 2e4:	004c4156 	subeq	r4, ip, r6, asr r1
 2e8:	5a444552 	bpl	1111838 <__bss_end__+0x11069c8>
 2ec:	5f454e4f 	svcpl	0x00454e4f
 2f0:	5459424e 	ldrbpl	r4, [r9], #-590	; 0xfffffdb2
 2f4:	63005345 	movwvs	r5, #837	; 0x345
 2f8:	69665f6b 	stmdbvs	r6!, {r0, r1, r3, r5, r6, r8, r9, sl, fp, ip, lr}^
 2fc:	5f747372 	svcpl	0x00747372
 300:	00726468 	rsbseq	r6, r2, r8, ror #8
 304:	635f6b63 	cmpvs	pc, #101376	; 0x18c00
 308:	6b636568 	blvs	18d98b0 <__bss_end__+0x18cea40>
 30c:	6164755f 	cmnvs	r4, pc, asr r5
 310:	6d006174 	stfvss	f6, [r0, #-464]	; 0xfffffe30
 314:	65736d65 	ldrbvs	r6, [r3, #-3429]!	; 0xfffff29b
 318:	72650074 	rsbvc	r0, r5, #116, 0	; 0x74
 31c:	72007372 	andvc	r7, r0, #-939524095	; 0xc8000001
 320:	725f317a 	subsvc	r3, pc, #-2147483618	; 0x8000001e
 324:	63007365 	movwvs	r7, #869	; 0x365
 328:	74705f6b 	ldrbtvc	r5, [r0], #-3947	; 0xfffff095
 32c:	73695f72 	cmnvc	r9, #456	; 0x1c8
 330:	6c6c615f 	stfvse	f6, [ip], #-380	; 0xfffffe84
 334:	6465636f 	strbtvs	r6, [r5], #-879	; 0xfffffc91
 338:	5f6b6300 	svcpl	0x006b6300
 33c:	7478656e 	ldrbtvc	r6, [r8], #-1390	; 0xfffffa92
 340:	7264685f 	rsbvc	r6, r4, #6225920	; 0x5f0000
 344:	72756300 	rsbsvc	r6, r5, #0, 6
 348:	656d0072 	strbvs	r0, [sp, #-114]!	; 0xffffff8e
 34c:	706d636d 	rsbvc	r6, sp, sp, ror #6
 350:	616b6300 	cmnvs	fp, r0, lsl #6
 354:	636f6c6c 	cmnvs	pc, #108, 24	; 0x6c00
 358:	7300632e 	movwvc	r6, #814	; 0x32e
 35c:	69746e65 	ldmdbvs	r4!, {r0, r2, r5, r6, r9, sl, fp, sp, lr}^
 360:	5f6c616e 	svcpl	0x006c616e
 364:	00667562 	rsbeq	r7, r6, r2, ror #10
 368:	746e6573 	strbtvc	r6, [lr], #-1395	; 0xfffffa8d
 36c:	6c616e69 	stclvs	14, cr6, [r1], #-420	; 0xfffffe5c
 370:	756f6400 	strbvc	r6, [pc, #-1024]!	; ffffff78 <__bss_end__+0xffff5108>
 374:	00656c62 	rsbeq	r6, r5, r2, ror #24
 378:	705f6b63 	subsvc	r6, pc, r3, ror #22
 37c:	745f7274 	ldrbvc	r7, [pc], #-628	; 384 <__code_start__-0x7c7c>
 380:	64685f6f 	strbtvs	r5, [r8], #-3951	; 0xfffff091
 384:	4c410072 	mcrrmi	0, 7, r0, r1, cr2
 388:	45434f4c 	strbmi	r4, [r3, #-3916]	; 0xfffff0b4
 38c:	6b630044 	blvs	18c04a4 <__bss_end__+0x18b5634>
 390:	7264685f 	rsbvc	r6, r4, #6225920	; 0x5f0000
 394:	6174735f 	cmnvs	r4, pc, asr r3
 398:	63007472 	movwvs	r7, #1138	; 0x472
 39c:	64685f6b 	strbtvs	r5, [r8], #-3947	; 0xfffff095
 3a0:	6e655f72 	mcrvs	15, 3, r5, cr5, cr2, {3}
 3a4:	7a720064 	bvc	1c8053c <__bss_end__+0x1c756cc>
 3a8:	65725f32 	ldrbvs	r5, [r2, #-3890]!	; 0xfffff0ce
 3ac:	6b630073 	blvs	18c0580 <__bss_end__+0x18b5710>
 3b0:	79626e5f 	stmdbvc	r2!, {r0, r1, r2, r3, r4, r6, r9, sl, fp, sp, lr}^
 3b4:	00736574 	rsbseq	r6, r3, r4, ror r5
 3b8:	6d5f726b 	lfmvs	f7, 2, [pc, #-428]	; 214 <__code_start__-0x7dec>
 3bc:	6f6c6c61 	svcvs	0x006c6c61
 3c0:	6b630063 	blvs	18c0554 <__bss_end__+0x18b56e4>
 3c4:	6568635f 	strbvs	r6, [r8, #-863]!	; 0xfffffca1
 3c8:	725f6b63 	subsvc	r6, pc, #101376	; 0x18c00
 3cc:	6f7a6465 	svcvs	0x007a6465
 3d0:	0073656e 	rsbseq	r6, r3, lr, ror #10
 3d4:	63617473 	cmnvs	r1, #1929379840	; 0x73000000
 3d8:	6f745f6b 	svcvs	0x00745f6b
 3dc:	6c620070 	stclvs	0, cr0, [r2], #-448	; 0xfffffe40
 3e0:	5f6b636f 	svcpl	0x006b636f
 3e4:	72617473 	rsbvc	r7, r1, #1929379840	; 0x73000000
 3e8:	6f6e0074 	svcvs	0x006e0074
 3ec:	6174735f 	cmnvs	r4, pc, asr r3
 3f0:	6d007472 	cfstrsvs	mvf7, [r0, #-456]	; 0xfffffe38
 3f4:	5f6b7261 	svcpl	0x006b7261
 3f8:	006c6c61 	rsbeq	r6, ip, r1, ror #24
 3fc:	6c706d69 	ldclvs	13, cr6, [r0], #-420	; 0xfffffe5c
 400:	6e656d65 	cdpvs	13, 6, cr6, cr5, cr5, {3}
 404:	68745f74 	ldmdavs	r4!, {r2, r4, r5, r6, r8, r9, sl, fp, ip, lr}^
 408:	5f007369 	svcpl	0x00007369
 40c:	7373625f 	cmnvc	r3, #-268435451	; 0xf0000005
 410:	6174735f 	cmnvs	r4, pc, asr r3
 414:	5f5f7472 	svcpl	0x005f7472
 418:	6d756e00 	ldclvs	14, cr6, [r5, #-0]
 41c:	726f775f 	rsbvc	r7, pc, #24903680	; 0x17c0000
 420:	6e007364 	cdpvs	3, 0, cr7, cr0, cr4, {3}
 424:	636f6c62 	cmnvs	pc, #25088	; 0x6200
 428:	6900736b 	stmdbvs	r0, {r0, r1, r3, r5, r6, r8, r9, ip, sp, lr}
 42c:	5f74696e 	svcpl	0x0074696e
 430:	626e0070 	rsbvs	r0, lr, #112, 0	; 0x70
 434:	73657479 	cmnvc	r5, #2030043136	; 0x79000000
 438:	6572665f 	ldrbvs	r6, [r2, #-1631]!	; 0xfffff9a1
 43c:	69006465 	stmdbvs	r0, {r0, r2, r5, r6, sl, sp, lr}
 440:	6572636e 	ldrbvs	r6, [r2, #-878]!	; 0xfffffc92
 444:	746e656d 	strbtvc	r6, [lr], #-1389	; 0xfffffa93
 448:	79616d00 	stmdbvc	r1!, {r8, sl, fp, sp, lr}^
 44c:	655f6562 	ldrbvs	r6, [pc, #-1378]	; fffffef2 <__bss_end__+0xffff5082>
 450:	726f7272 	rsbvc	r7, pc, #536870919	; 0x20000007
 454:	6b630073 	blvs	18c0628 <__bss_end__+0x18b57b8>
 458:	0063675f 	rsbeq	r6, r3, pc, asr r7
 45c:	706d7564 	rsbvc	r7, sp, r4, ror #10
 460:	6765725f 			; <UNDEFINED> instruction: 0x6765725f
 464:	6c6e0073 	stclvs	0, cr0, [lr], #-460	; 0xfffffe34
 468:	736b6165 	cmnvc	fp, #1073741849	; 0x40000019
 46c:	645f5f00 	ldrbvs	r5, [pc], #-3840	; 474 <__code_start__-0x7b8c>
 470:	5f617461 	svcpl	0x00617461
 474:	5f646e65 	svcpl	0x00646e65
 478:	6b63005f 	blvs	18c05fc <__bss_end__+0x18b578c>
 47c:	6e69665f 	mcrvs	6, 3, r6, cr9, cr15, {2}
 480:	656c5f64 	strbvs	r5, [ip, #-3940]!	; 0xfffff09c
 484:	00736b61 	rsbseq	r6, r3, r1, ror #22
 488:	6b726273 	blvs	1c98e5c <__bss_end__+0x1c8dfec>
 48c:	5f736900 	svcpl	0x00736900
 490:	00727470 	rsbseq	r7, r2, r0, ror r4
 494:	63656863 	cmnvs	r5, #6488064	; 0x630000
 498:	6f6e5f6b 	svcvs	0x006e5f6b
 49c:	61656c5f 	cmnvs	r5, pc, asr ip
 4a0:	666e006b 	strbtvs	r0, [lr], -fp, rrx
 4a4:	64656572 	strbtvs	r6, [r5], #-1394	; 0xfffffa8e
 4a8:	72756300 	rsbsvc	r6, r5, #0, 6
 4ac:	6f775f72 	svcvs	0x00775f72
 4b0:	62006472 	andvs	r6, r0, #1912602624	; 0x72000000
 4b4:	6b636f6c 	blvs	18dc26c <__bss_end__+0x18d13fc>
 4b8:	646e655f 	strbtvs	r6, [lr], #-1375	; 0xfffffaa1
 4bc:	5f6e6900 	svcpl	0x006e6900
 4c0:	70616568 	rsbvc	r6, r1, r8, ror #10
 4c4:	656e6f00 	strbvs	r6, [lr, #-3840]!	; 0xfffff100
 4c8:	6300626d 	movwvs	r6, #621	; 0x26d
 4cc:	63672d6b 	cmnvs	r7, #6848	; 0x1ac0
 4d0:	6300632e 	movwvs	r6, #814	; 0x32e
 4d4:	6b636568 	blvs	18d9a7c <__bss_end__+0x18cec0c>
 4d8:	6f68735f 	svcvs	0x0068735f
 4dc:	5f646c75 	svcpl	0x00646c75
 4e0:	6b61656c 	blvs	1859a98 <__bss_end__+0x184ec28>
 4e4:	625f5f00 	subsvs	r5, pc, #0, 30
 4e8:	655f7373 	ldrbvs	r7, [pc, #-883]	; 17d <__code_start__-0x7e83>
 4ec:	5f5f646e 	svcpl	0x005f646e
 4f0:	616d6b00 	cmnvs	sp, r0, lsl #22
 4f4:	636f6c6c 	cmnvs	pc, #108, 24	; 0x6c00
 4f8:	616d6b00 	cmnvs	sp, r0, lsl #22
 4fc:	636f6c6c 	cmnvs	pc, #108, 24	; 0x6c00
 500:	696e695f 	stmdbvs	lr!, {r0, r1, r2, r3, r4, r6, r8, fp, sp, lr}^
 504:	65735f74 	ldrbvs	r5, [r3, #-3956]!	; 0xfffff08c
 508:	74735f74 	ldrbtvc	r5, [r3], #-3956	; 0xfffff08c
 50c:	00747261 	rsbseq	r7, r4, r1, ror #4
 510:	65657773 	strbvs	r7, [r5, #-1907]!	; 0xfffff88d
 514:	656c5f70 	strbvs	r5, [ip, #-3952]!	; 0xfffff090
 518:	5f006b61 	svcpl	0x00006b61
 51c:	7461645f 	strbtvc	r6, [r1], #-1119	; 0xfffffba1
 520:	74735f61 	ldrbtvc	r5, [r3], #-3937	; 0xfffff09f
 524:	5f747261 	svcpl	0x00747261
 528:	7773005f 			; <UNDEFINED> instruction: 0x7773005f
 52c:	5f706565 	svcpl	0x00706565
 530:	65657266 	strbvs	r7, [r5, #-614]!	; 0xfffffd9a
 534:	72617700 	rsbvc	r7, r1, #0, 14
 538:	6f6e5f6e 	svcvs	0x006e5f6e
 53c:	6174735f 	cmnvs	r4, pc, asr r3
 540:	725f7472 	subsvc	r7, pc, #1912602624	; 0x72000000
 544:	705f6665 	subsvc	r6, pc, r5, ror #12
 548:	61656800 	cmnvs	r5, r0, lsl #16
 54c:	00726564 	rsbseq	r6, r2, r4, ror #10
 550:	76657270 			; <UNDEFINED> instruction: 0x76657270
 554:	6c610070 	stclvs	0, cr0, [r1], #-448	; 0xfffffe40
 558:	006e6769 	rsbeq	r6, lr, r9, ror #14
 55c:	665f726b 	ldrbvs	r7, [pc], -fp, ror #4
 560:	00656572 	rsbeq	r6, r5, r2, ror r5
 564:	65657266 	strbvs	r7, [r5, #-614]!	; 0xfffffd9a
 568:	756e0070 	strbvc	r0, [lr, #-112]!	; 0xffffff90
 56c:	7374696e 	cmnvc	r4, #1802240	; 0x1b8000
 570:	2d726b00 	vldmdbcs	r2!, {d22-d21}
 574:	6c6c616d 	stfvse	f6, [ip], #-436	; 0xfffffe4c
 578:	632e636f 			; <UNDEFINED> instruction: 0x632e636f
 57c:	73616200 	cmnvc	r1, #0, 4
 580:	726b0065 	rsbvc	r0, fp, #101, 0	; 0x65
 584:	726f6d5f 	rsbvc	r6, pc, #6080	; 0x17c0
 588:	726f6365 	rsbvc	r6, pc, #-1811939327	; 0x94000001
 58c:	69730065 	ldmdbvs	r3!, {r0, r2, r5, r6}^
 590:	4800657a 	stmdami	r0, {r1, r3, r4, r5, r6, r8, sl, sp, lr}
 594:	65646165 	strbvs	r6, [r4, #-357]!	; 0xfffffe9b
 598:	4e470072 	mcrmi	0, 2, r0, cr7, cr2, {3}
 59c:	39432055 	stmdbcc	r3, {r0, r2, r4, r6, sp}^
 5a0:	2e392039 	mrccs	0, 1, r2, cr9, cr9, {1}
 5a4:	20312e32 	eorscs	r2, r1, r2, lsr lr
 5a8:	39313032 	ldmdbcc	r1!, {r1, r4, r5, ip, sp}
 5ac:	35323031 	ldrcc	r3, [r2, #-49]!	; 0xffffffcf
 5b0:	65722820 	ldrbvs	r2, [r2, #-2080]!	; 0xfffff7e0
 5b4:	7361656c 	cmnvc	r1, #108, 10	; 0x1b000000
 5b8:	5b202965 	blpl	80ab54 <__bss_end__+0x7ffce4>
 5bc:	2f4d5241 	svccs	0x004d5241
 5c0:	2d6d7261 	sfmcs	f7, 2, [sp, #-388]!	; 0xfffffe7c
 5c4:	72622d39 	rsbvc	r2, r2, #3648	; 0xe40
 5c8:	68636e61 	stmdavs	r3!, {r0, r5, r6, r9, sl, fp, sp, lr}^
 5cc:	76657220 	strbtvc	r7, [r5], -r0, lsr #4
 5d0:	6f697369 	svcvs	0x00697369
 5d4:	3732206e 	ldrcc	r2, [r2, -lr, rrx]!
 5d8:	39393537 	ldmdbcc	r9!, {r0, r1, r2, r4, r5, r8, sl, ip, sp}
 5dc:	6d2d205d 	stcvs	0, cr2, [sp, #-372]!	; 0xfffffe8c
 5e0:	3d757063 	ldclcc	0, cr7, [r5, #-396]!	; 0xfffffe74
 5e4:	316d7261 	cmncc	sp, r1, ror #4
 5e8:	6a363731 	bvs	d8e2b4 <__bss_end__+0xd83444>
 5ec:	732d667a 			; <UNDEFINED> instruction: 0x732d667a
 5f0:	746d2d20 	strbtvc	r2, [sp], #-3360	; 0xfffff2e0
 5f4:	3d656e75 	stclcc	14, cr6, [r5, #-468]!	; 0xfffffe2c
 5f8:	316d7261 	cmncc	sp, r1, ror #4
 5fc:	6a363731 	bvs	d8e2c8 <__bss_end__+0xd83458>
 600:	732d667a 			; <UNDEFINED> instruction: 0x732d667a
 604:	666d2d20 	strbtvs	r2, [sp], -r0, lsr #26
 608:	74616f6c 	strbtvc	r6, [r1], #-3948	; 0xfffff094
 60c:	6962612d 	stmdbvs	r2!, {r0, r2, r3, r5, r8, sp, lr}^
 610:	666f733d 			; <UNDEFINED> instruction: 0x666f733d
 614:	6d2d2074 	stcvs	0, cr2, [sp, #-464]!	; 0xfffffe30
 618:	206d7261 	rsbcs	r7, sp, r1, ror #4
 61c:	72616d2d 	rsbvc	r6, r1, #2880	; 0xb40
 620:	613d6863 	teqvs	sp, r3, ror #16
 624:	36766d72 			; <UNDEFINED> instruction: 0x36766d72
 628:	2d207a6b 	vstmdbcs	r0!, {s14-s120}
 62c:	62646767 	rsbvs	r6, r4, #27000832	; 0x19c0000
 630:	67672d20 	strbvs	r2, [r7, -r0, lsr #26]!
 634:	2d206264 	sfmcs	f6, 4, [r0, #-400]!	; 0xfffffe70
 638:	2d20674f 	stccs	7, cr6, [r0, #-316]!	; 0xfffffec4
 63c:	2d20674f 	stccs	7, cr6, [r0, #-316]!	; 0xfffffec4
 640:	3d647473 	cfstrdcc	mvd7, [r4, #-460]!	; 0xfffffe34
 644:	39756e67 	ldmdbcc	r5!, {r0, r1, r2, r5, r6, r9, sl, fp, sp, lr}^
 648:	732d2039 			; <UNDEFINED> instruction: 0x732d2039
 64c:	673d6474 			; <UNDEFINED> instruction: 0x673d6474
 650:	3939756e 	ldmdbcc	r9!, {r1, r2, r3, r5, r6, r8, sl, ip, sp, lr}
 654:	66662d20 	strbtvs	r2, [r6], -r0, lsr #26
 658:	73656572 	cmnvc	r5, #478150656	; 0x1c800000
 65c:	646e6174 	strbtvs	r6, [lr], #-372	; 0xfffffe8c
 660:	00676e69 	rsbeq	r6, r7, r9, ror #28
 664:	657a6973 	ldrbvs	r6, [sl, #-2419]!	; 0xfffff68d
 668:	2f00745f 	svccs	0x0000745f
 66c:	72657355 	rsbvc	r7, r5, #1409286145	; 0x54000001
 670:	72742f73 	rsbsvc	r2, r4, #460	; 0x1cc
 674:	65747369 	ldrbvs	r7, [r4, #-873]!	; 0xfffffc97
 678:	6c6f6e6e 	stclvs	14, cr6, [pc], #-440	; 4c8 <__code_start__-0x7b38>
 67c:	6e616d6c 	cdpvs	13, 6, cr6, cr1, cr12, {3}
 680:	636f442f 	cmnvs	pc, #788529152	; 0x2f000000
 684:	6e656d75 	mcrvs	13, 3, r6, cr5, cr5, {3}
 688:	532f7374 			; <UNDEFINED> instruction: 0x532f7374
 68c:	6e697270 	mcrvs	2, 3, r7, cr9, cr0, {3}
 690:	75515f67 	ldrbvc	r5, [r1, #-3943]	; 0xfffff099
 694:	65747261 	ldrbvs	r7, [r4, #-609]!	; 0xfffffd9f
 698:	30325f72 	eorscc	r5, r2, r2, ror pc
 69c:	432f3232 			; <UNDEFINED> instruction: 0x432f3232
 6a0:	30343253 	eorscc	r3, r4, r3, asr r2
 6a4:	732d584c 			; <UNDEFINED> instruction: 0x732d584c
 6a8:	32327270 	eorscc	r7, r2, #112, 4
 6ac:	62696c2f 	rsbvs	r6, r9, #12032	; 0x2f00
 6b0:	2e006970 			; <UNDEFINED> instruction: 0x2e006970
 6b4:	62696c2f 	rsbvs	r6, r9, #12032	; 0x2f00
 6b8:	656d2f63 	strbvs	r2, [sp, #-3939]!	; 0xfffff09d
 6bc:	706d636d 	rsbvc	r6, sp, sp, ror #6
 6c0:	2e00632e 	cdpcs	3, 0, cr6, cr0, cr14, {1}
 6c4:	62696c2f 	rsbvs	r6, r9, #12032	; 0x2f00
 6c8:	656d2f63 	strbvs	r2, [sp, #-3939]!	; 0xfffff09d
 6cc:	7970636d 	ldmdbvc	r0!, {r0, r2, r3, r5, r6, r8, r9, sp, lr}^
 6d0:	2e00632e 	cdpcs	3, 0, cr6, cr0, cr14, {1}
 6d4:	62696c2f 	rsbvs	r6, r9, #12032	; 0x2f00
 6d8:	656d2f63 	strbvs	r2, [sp, #-3939]!	; 0xfffff09d
 6dc:	7465736d 	strbtvc	r7, [r5], #-877	; 0xfffffc93
 6e0:	6100632e 	tstvs	r0, lr, lsr #6
 6e4:	00736772 	rsbseq	r6, r3, r2, ror r7
 6e8:	705f6176 	subsvc	r6, pc, r6, ror r1	; <UNPREDICTABLE>
 6ec:	746e6972 	strbtvc	r6, [lr], #-2418	; 0xfffff68e
 6f0:	5f5f006b 	svcpl	0x005f006b
 6f4:	63756e67 	cmnvs	r5, #1648	; 0x670
 6f8:	5f61765f 	svcpl	0x0061765f
 6fc:	7473696c 	ldrbtvc	r6, [r3], #-2412	; 0xfffff694
 700:	765f5f00 	ldrbvc	r5, [pc], -r0, lsl #30
 704:	696c5f61 	stmdbvs	ip!, {r0, r5, r6, r8, r9, sl, fp, ip, lr}^
 708:	5f007473 	svcpl	0x00007473
 70c:	0070615f 	rsbseq	r6, r0, pc, asr r1
 710:	696c2f2e 	stmdbvs	ip!, {r1, r2, r3, r5, r8, r9, sl, fp, sp}^
 714:	702f6362 	eorvc	r6, pc, r2, ror #6
 718:	746e6972 	strbtvc	r6, [lr], #-2418	; 0xfffff68e
 71c:	00632e6b 	rsbeq	r2, r3, fp, ror #28
 720:	65746e69 	ldrbvs	r6, [r4, #-3689]!	; 0xfffff197
 724:	6c616e72 	stclvs	14, cr6, [r1], #-456	; 0xfffffe38
 728:	7475705f 	ldrbtvc	r7, [r5], #-95	; 0xffffffa1
 72c:	2f2e006b 	svccs	0x002e006b
 730:	6362696c 	cmnvs	r2, #108, 18	; 0x1b0000
 734:	7475702f 	ldrbtvc	r7, [r5], #-47	; 0xffffffd1
 738:	00632e6b 	rsbeq	r2, r3, fp, ror #28
 73c:	7273666c 	rsbsvc	r6, r3, #108, 12	; 0x6c00000
 740:	69707200 	ldmdbvs	r0!, {r9, ip, sp, lr}^
 744:	7365725f 	cmnvc	r5, #-268435451	; 0xf0000005
 748:	72007465 	andvc	r7, r0, #1694498816	; 0x65000000
 74c:	725f6970 	subsvc	r6, pc, #112, 18	; 0x1c0000
 750:	31646e61 	cmncc	r4, r1, ror #28
 754:	65730036 	ldrbvs	r0, [r3, #-54]!	; 0xffffffca
 758:	2e006465 	cdpcs	4, 0, cr6, cr0, cr5, {3}
 75c:	62696c2f 	rsbvs	r6, r9, #12032	; 0x2f00
 760:	70722f63 	rsbsvc	r2, r2, r3, ror #30
 764:	61722d69 	cmnvs	r2, r9, ror #26
 768:	632e646e 			; <UNDEFINED> instruction: 0x632e646e
 76c:	64736900 	ldrbtvs	r6, [r3], #-2304	; 0xfffff700
 770:	74696769 	strbtvc	r6, [r9], #-1897	; 0xfffff897
 774:	6e697500 	cdpvs	5, 6, cr7, cr9, cr0, {0}
 778:	5f343674 	svcpl	0x00343674
 77c:	2f2e0074 	svccs	0x002e0074
 780:	6362696c 	cmnvs	r2, #108, 18	; 0x1b0000
 784:	2d61762f 	stclcs	6, cr7, [r1, #-188]!	; 0xffffff44
 788:	6e697270 	mcrvs	2, 3, r7, cr9, cr0, {3}
 78c:	632e6b74 			; <UNDEFINED> instruction: 0x632e6b74
 790:	635f5f00 	cmpvs	pc, #0, 30
 794:	5f65646f 	svcpl	0x0065646f
 798:	72617473 	rsbvc	r7, r1, #1929379840	; 0x73000000
 79c:	005f5f74 	subseq	r5, pc, r4, ror pc	; <UNPREDICTABLE>
 7a0:	74646977 	strbtvc	r6, [r4], #-2423	; 0xfffff689
 7a4:	75700068 	ldrbvc	r0, [r0, #-104]!	; 0xffffff98
 7a8:	665f6374 			; <UNDEFINED> instruction: 0x665f6374
 7ac:	5f5f0070 	svcpl	0x005f0070
 7b0:	70616568 	rsbvc	r6, r1, r8, ror #10
 7b4:	6174735f 	cmnvs	r4, pc, asr r3
 7b8:	5f5f7472 	svcpl	0x005f7472
 7bc:	69707200 	ldmdbvs	r0!, {r9, ip, sp, lr}^
 7c0:	7465735f 	strbtvc	r7, [r5], #-863	; 0xfffffca1
 7c4:	74756f5f 	ldrbtvc	r6, [r5], #-3935	; 0xfffff0a1
 7c8:	00747570 	rsbseq	r7, r4, r0, ror r5
 7cc:	5f746d66 	svcpl	0x00746d66
 7d0:	72617473 	rsbvc	r7, r1, #1929379840	; 0x73000000
 7d4:	74730074 	ldrbtvc	r0, [r3], #-116	; 0xffffff8c
 7d8:	79706372 	ldmdbvc	r0!, {r1, r4, r5, r6, r8, r9, sp, lr}^
 7dc:	67656e00 	strbvs	r6, [r5, -r0, lsl #28]!
 7e0:	5f00705f 	svcpl	0x0000705f
 7e4:	646f635f 	strbtvs	r6, [pc], #-863	; 7ec <__code_start__-0x7814>
 7e8:	6e655f65 	cdpvs	15, 6, cr5, cr5, cr5, {3}
 7ec:	005f5f64 	subseq	r5, pc, r4, ror #30
 7f0:	74696d65 	strbtvc	r6, [r9], #-3429	; 0xfffff29b
 7f4:	74757000 	ldrbtvc	r7, [r5], #-0
 7f8:	70665f73 	rsbvc	r5, r6, r3, ror pc
 7fc:	76657200 	strbtvc	r7, [r5], -r0, lsl #4
 800:	65737265 	ldrbvs	r7, [r3, #-613]!	; 0xfffffd9b
 804:	72747300 	rsbsvc	r7, r4, #0, 6
 808:	00746163 	rsbseq	r6, r4, r3, ror #2
 80c:	63727473 	cmnvs	r2, #1929379840	; 0x73000000
 810:	5f00706d 	svcpl	0x0000706d
 814:	6f72705f 	svcvs	0x0072705f
 818:	6e655f67 	cdpvs	15, 6, cr5, cr5, cr7, {3}
 81c:	005f5f64 	subseq	r5, pc, r4, ror #30
 820:	316d756e 	cmncc	sp, lr, ror #10
 824:	72747300 	rsbsvc	r7, r4, #0, 6
 828:	706d636e 	rsbvc	r6, sp, lr, ror #6
 82c:	67697300 	strbvs	r7, [r9, -r0, lsl #6]!
 830:	5f64656e 	svcpl	0x0064656e
 834:	70720070 	rsbsvc	r0, r2, r0, ror r0
 838:	65725f69 	ldrbvs	r5, [r2, #-3945]!	; 0xfffff097
 83c:	746f6f62 	strbtvc	r6, [pc], #-3938	; 844 <__code_start__-0x77bc>
 840:	6c656400 	cfstrdvs	mvd6, [r5], #-0
 844:	6d5f7961 	vldrvs.16	s15, [pc, #-194]	; 78a <__code_start__-0x7876>	; <UNPREDICTABLE>
 848:	2f2e0073 	svccs	0x002e0073
 84c:	66617473 			; <UNDEFINED> instruction: 0x66617473
 850:	72732d66 	rsbsvc	r2, r3, #6528	; 0x1980
 854:	6c632f63 	stclvs	15, cr2, [r3], #-396	; 0xfffffe74
 858:	2d6e6165 	stfcse	f6, [lr, #-404]!	; 0xfffffe6c
 85c:	6f626572 	svcvs	0x00626572
 860:	632e746f 			; <UNDEFINED> instruction: 0x632e746f
 864:	72617500 	rsbvc	r7, r1, #0, 10
 868:	6c665f74 	stclvs	15, cr5, [r6], #-464	; 0xfffffe30
 86c:	5f687375 	svcpl	0x00687375
 870:	5f007874 	svcpl	0x00007874
 874:	61747363 	cmnvs	r4, r3, ror #6
 878:	62007472 	andvs	r7, r0, #1912602624	; 0x72000000
 87c:	655f7373 	ldrbvs	r7, [pc, #-883]	; 511 <__code_start__-0x7aef>
 880:	7500646e 	strvc	r6, [r0, #-1134]	; 0xfffffb92
 884:	5f747261 	svcpl	0x00747261
 888:	74696e69 	strbtvc	r6, [r9], #-3689	; 0xfffff197
 88c:	73756300 	cmnvc	r5, #0, 6
 890:	5f6d6f74 	svcpl	0x006d6f74
 894:	64616f6c 	strbtvs	r6, [r1], #-3948	; 0xfffff094
 898:	2e007265 	cdpcs	2, 0, cr7, cr0, cr5, {3}
 89c:	6174732f 	cmnvs	r4, pc, lsr #6
 8a0:	732d6666 			; <UNDEFINED> instruction: 0x732d6666
 8a4:	632f6372 			; <UNDEFINED> instruction: 0x632f6372
 8a8:	72617473 	rsbvc	r7, r1, #1929379840	; 0x73000000
 8ac:	00632e74 	rsbeq	r2, r3, r4, ror lr
 8b0:	74732f2e 	ldrbtvc	r2, [r3], #-3886	; 0xfffff0d2
 8b4:	2d666661 	stclcs	6, cr6, [r6, #-388]!	; 0xfffffe7c
 8b8:	2f637273 	svccs	0x00637273
 8bc:	74737563 	ldrbtvc	r7, [r3], #-1379	; 0xfffffa9d
 8c0:	6c2d6d6f 	stcvs	13, cr6, [sp], #-444	; 0xfffffe44
 8c4:	6564616f 	strbvs	r6, [r4, #-367]!	; 0xfffffe91
 8c8:	00632e72 	rsbeq	r2, r3, r2, ror lr
 8cc:	6f626572 	svcvs	0x00626572
 8d0:	635f746f 	cmpvs	pc, #1862270976	; 0x6f000000
 8d4:	6f6c6c61 	svcvs	0x006c6c61
 8d8:	50007475 	andpl	r7, r0, r5, ror r4
 8dc:	44575f4d 	ldrbmi	r5, [r7], #-3917	; 0xfffff0b3
 8e0:	5000474f 	andpl	r4, r0, pc, asr #14
 8e4:	32335455 	eorscc	r5, r3, #1426063360	; 0x55000000
 8e8:	74657300 	strbtvc	r7, [r5], #-768	; 0xfffffd00
 8ec:	6573755f 	ldrbvs	r7, [r3, #-1375]!	; 0xfffffaa1
 8f0:	656c5f72 	strbvs	r5, [ip, #-3954]!	; 0xfffff08e
 8f4:	006c6576 	rsbeq	r6, ip, r6, ror r5
 8f8:	74732f2e 	ldrbtvc	r2, [r3], #-3886	; 0xfffff0d2
 8fc:	2d666661 	stclcs	6, cr6, [r6, #-388]!	; 0xfffffe7c
 900:	2f637273 	svccs	0x00637273
 904:	6f626572 	svcvs	0x00626572
 908:	632e746f 			; <UNDEFINED> instruction: 0x632e746f
 90c:	5f4d5000 	svcpl	0x004d5000
 910:	53534150 	cmppl	r3, #20
 914:	44524f57 	ldrbmi	r4, [r2], #-3927	; 0xfffff0a9
 918:	5f746100 	svcpl	0x00746100
 91c:	72657375 	rsbvc	r7, r5, #-738197503	; 0xd4000001
 920:	76656c5f 			; <UNDEFINED> instruction: 0x76656c5f
 924:	50006c65 	andpl	r6, r0, r5, ror #24
 928:	53525f4d 	cmppl	r2, #308	; 0x134
 92c:	575f4354 			; <UNDEFINED> instruction: 0x575f4354
 930:	47464352 	smlsldmi	r4, r6, r2, r3
 934:	4c55465f 	mrrcmi	6, 5, r4, r5, cr15
 938:	45525f4c 	ldrbmi	r5, [r2, #-3916]	; 0xfffff0b4
 93c:	00544553 	subseq	r4, r4, r3, asr r5
 940:	525f4d50 	subspl	r4, pc, #80, 26	; 0x1400
 944:	00435453 	subeq	r5, r3, r3, asr r4
 948:	72737063 	rsbsvc	r7, r3, #99, 0	; 0x63
 94c:	76656400 	strbtvc	r6, [r5], -r0, lsl #8
 950:	7261625f 	rsbvc	r6, r1, #-268435451	; 0xf0000005
 954:	72656972 	rsbvc	r6, r5, #1867776	; 0x1c8000
 958:	6c656400 	cfstrdvs	mvd6, [r5], #-0
 95c:	735f7961 	cmpvc	pc, #1589248	; 0x184000
 960:	2e006365 	cdpcs	3, 0, cr6, cr0, cr5, {3}
 964:	6174732f 	cmnvs	r4, pc, lsr #6
 968:	732d6666 			; <UNDEFINED> instruction: 0x732d6666
 96c:	742f6372 	strtvc	r6, [pc], #-882	; 974 <__code_start__-0x768c>
 970:	72656d69 	rsbvc	r6, r5, #6720	; 0x1a40
 974:	4700632e 	strmi	r6, [r0, -lr, lsr #6]
 978:	32335445 	eorscc	r5, r3, #1157627904	; 0x45000000
 97c:	6d697400 	cfstrdvs	mvd7, [r9, #-0]
 980:	675f7265 	ldrbvs	r7, [pc, -r5, ror #4]
 984:	755f7465 	ldrbvc	r7, [pc, #-1125]	; 527 <__code_start__-0x7ad9>
 988:	00636573 	rsbeq	r6, r3, r3, ror r5
 98c:	616c6564 	cmnvs	ip, r4, ror #10
 990:	73755f79 	cmnvc	r5, #484	; 0x1e4
 994:	6d697400 	cfstrdvs	mvd7, [r9, #-0]
 998:	675f7265 	ldrbvs	r7, [pc, -r5, ror #4]
 99c:	755f7465 	ldrbvc	r7, [pc, #-1125]	; 53f <__code_start__-0x7ac1>
 9a0:	5f636573 	svcpl	0x00636573
 9a4:	00776172 	rsbseq	r6, r7, r2, ror r1
 9a8:	33747570 	cmncc	r4, #112, 10	; 0x1c000000
 9ac:	61620032 	cmnvs	r2, r2, lsr r0
 9b0:	765f6475 			; <UNDEFINED> instruction: 0x765f6475
 9b4:	73006c61 	movwvc	r6, #3169	; 0xc61
 9b8:	00746174 	rsbseq	r6, r4, r4, ror r1
 9bc:	74726175 	ldrbtvc	r6, [r2], #-373	; 0xfffffe8b
 9c0:	6e61635f 	mcrvs	3, 3, r6, cr1, cr15, {2}
 9c4:	7465675f 	strbtvc	r6, [r5], #-1887	; 0xfffff8a1
 9c8:	50470063 	subpl	r0, r7, r3, rrx
 9cc:	465f4f49 	ldrbmi	r4, [pc], -r9, asr #30
 9d0:	5f434e55 	svcpl	0x00434e55
 9d4:	5054554f 	subspl	r5, r4, pc, asr #10
 9d8:	61005455 	tstvs	r0, r5, asr r4
 9dc:	705f7875 	subsvc	r7, pc, r5, ror r8	; <UNPREDICTABLE>
 9e0:	70697265 	rsbvc	r7, r9, r5, ror #4
 9e4:	75007368 	strvc	r7, [r0, #-872]	; 0xfffffc98
 9e8:	2e747261 	cdpcs	2, 7, cr7, cr4, cr1, {3}
 9ec:	61750063 	cmnvs	r5, r3, rrx
 9f0:	635f7472 	cmpvs	pc, #1912602624	; 0x72000000
 9f4:	705f6e61 	subsvc	r6, pc, r1, ror #28
 9f8:	00637475 	rsbeq	r7, r3, r5, ror r4
 9fc:	74726175 	ldrbtvc	r6, [r2], #-373	; 0xfffffe8b
 a00:	5f78745f 	svcpl	0x0078745f
 a04:	655f7369 	ldrbvs	r7, [pc, #-873]	; 6a3 <__code_start__-0x795d>
 a08:	7974706d 	ldmdbvc	r4!, {r0, r2, r3, r5, r6, ip, sp, lr}^
 a0c:	49504700 	ldmdbmi	r0, {r8, r9, sl, lr}^
 a10:	55465f4f 	strbpl	r5, [r6, #-3919]	; 0xfffff0b1
 a14:	415f434e 	cmpmi	pc, lr, asr #6
 a18:	0030544c 	eorseq	r5, r0, ip, asr #8
 a1c:	4f495047 	svcmi	0x00495047
 a20:	4e55465f 	mrcmi	6, 2, r4, cr5, cr15, {2}
 a24:	4c415f43 	mcrrmi	15, 4, r5, r1, cr3
 a28:	47003154 	smlsdmi	r0, r4, r1, r3
 a2c:	5f4f4950 	svcpl	0x004f4950
 a30:	434e5546 	movtmi	r5, #58694	; 0xe546
 a34:	544c415f 	strbpl	r4, [ip], #-351	; 0xfffffea1
 a38:	50470032 	subpl	r0, r7, r2, lsr r0
 a3c:	465f4f49 	ldrbmi	r4, [pc], -r9, asr #30
 a40:	5f434e55 	svcpl	0x00434e55
 a44:	33544c41 	cmpcc	r4, #16640	; 0x4100
 a48:	49504700 	ldmdbmi	r0, {r8, r9, sl, lr}^
 a4c:	55465f4f 	strbpl	r5, [r6, #-3919]	; 0xfffff0b1
 a50:	415f434e 	cmpmi	pc, lr, asr #6
 a54:	0035544c 	eorseq	r5, r5, ip, asr #8
 a58:	6d6f682f 	stclvs	8, cr6, [pc, #-188]!	; 9a4 <__code_start__-0x765c>
 a5c:	6e652f65 	cdpvs	15, 6, cr2, cr5, cr5, {3}
 a60:	72656c67 	rsbvc	r6, r5, #26368	; 0x6700
 a64:	616c632f 	cmnvs	ip, pc, lsr #6
 a68:	632f7373 			; <UNDEFINED> instruction: 0x632f7373
 a6c:	30343273 	eorscc	r3, r4, r3, ror r2
 a70:	322d786c 	eorcc	r7, sp, #108, 16	; 0x6c0000
 a74:	72707332 	rsbsvc	r7, r0, #-939524096	; 0xc8000000
 a78:	62696c2f 	rsbvs	r6, r9, #12032	; 0x2f00
 a7c:	732f6970 			; <UNDEFINED> instruction: 0x732f6970
 a80:	66666174 			; <UNDEFINED> instruction: 0x66666174
 a84:	6972702d 	ldmdbvs	r2!, {r0, r2, r3, r5, ip, sp, lr}^
 a88:	65746176 	ldrbvs	r6, [r4, #-374]!	; 0xfffffe8a
 a8c:	75616200 	strbvc	r6, [r1, #-512]!	; 0xfffffe00
 a90:	75610064 	strbvc	r0, [r1, #-100]!	; 0xffffff9c
 a94:	6e655f78 	mcrvs	15, 3, r5, cr5, cr8, {3}
 a98:	656c6261 	strbvs	r6, [ip, #-609]!	; 0xfffffd9f
 a9c:	61750073 	cmnvs	r5, r3, ror r0
 aa0:	675f7472 			; <UNDEFINED> instruction: 0x675f7472
 aa4:	00637465 	rsbeq	r7, r3, r5, ror #8
 aa8:	20554e47 	subscs	r4, r5, r7, asr #28
 aac:	20393943 	eorscs	r3, r9, r3, asr #18
 ab0:	332e3031 			; <UNDEFINED> instruction: 0x332e3031
 ab4:	3220312e 	eorcc	r3, r0, #-2147483637	; 0x8000000b
 ab8:	30313230 	eorscc	r3, r1, r0, lsr r2
 abc:	20343238 	eorscs	r3, r4, r8, lsr r2
 ac0:	6c657228 	sfmvs	f7, 2, [r5], #-160	; 0xffffff60
 ac4:	65736165 	ldrbvs	r6, [r3, #-357]!	; 0xfffffe9b
 ac8:	6d2d2029 	stcvs	0, cr2, [sp, #-164]!	; 0xffffff5c
 acc:	3d757063 	ldclcc	0, cr7, [r5, #-396]!	; 0xfffffe74
 ad0:	316d7261 	cmncc	sp, r1, ror #4
 ad4:	6a363731 	bvs	d8e7a0 <__bss_end__+0xd83930>
 ad8:	732d667a 			; <UNDEFINED> instruction: 0x732d667a
 adc:	746d2d20 	strbtvc	r2, [sp], #-3360	; 0xfffff2e0
 ae0:	3d656e75 	stclcc	14, cr6, [r5, #-468]!	; 0xfffffe2c
 ae4:	316d7261 	cmncc	sp, r1, ror #4
 ae8:	6a363731 	bvs	d8e7b4 <__bss_end__+0xd83944>
 aec:	732d667a 			; <UNDEFINED> instruction: 0x732d667a
 af0:	666d2d20 	strbtvs	r2, [sp], -r0, lsr #26
 af4:	74616f6c 	strbtvc	r6, [r1], #-3948	; 0xfffff094
 af8:	6962612d 	stmdbvs	r2!, {r0, r2, r3, r5, r8, sp, lr}^
 afc:	666f733d 			; <UNDEFINED> instruction: 0x666f733d
 b00:	6d2d2074 	stcvs	0, cr2, [sp, #-464]!	; 0xfffffe30
 b04:	206d7261 	rsbcs	r7, sp, r1, ror #4
 b08:	72616d2d 	rsbvc	r6, r1, #2880	; 0xb40
 b0c:	613d6863 	teqvs	sp, r3, ror #16
 b10:	36766d72 			; <UNDEFINED> instruction: 0x36766d72
 b14:	2d207a6b 	vstmdbcs	r0!, {s14-s120}
 b18:	62646767 	rsbvs	r6, r4, #27000832	; 0x19c0000
 b1c:	674f2d20 	strbvs	r2, [pc, -r0, lsr #26]
 b20:	74732d20 	ldrbtvc	r2, [r3], #-3360	; 0xfffff2e0
 b24:	6e673d64 	cdpvs	13, 6, cr3, cr7, cr4, {3}
 b28:	20393975 	eorscs	r3, r9, r5, ror r9
 b2c:	7266662d 	rsbvc	r6, r6, #47185920	; 0x2d00000
 b30:	74736565 	ldrbtvc	r6, [r3], #-1381	; 0xfffffa9b
 b34:	69646e61 	stmdbvs	r4!, {r0, r5, r6, r9, sl, fp, sp, lr}^
 b38:	6300676e 	movwvs	r6, #1902	; 0x76e
 b3c:	006c746e 	rsbeq	r7, ip, lr, ror #8
 b40:	74726175 	ldrbtvc	r6, [r2], #-373	; 0xfffffe8b
 b44:	7369645f 	cmnvc	r9, #1593835520	; 0x5f000000
 b48:	656c6261 	strbvs	r6, [ip, #-609]!	; 0xfffffd9f
 b4c:	72617500 	rsbvc	r7, r1, #0, 10
 b50:	61685f74 	smcvs	34292	; 0x85f4
 b54:	61645f73 	smcvs	17907	; 0x45f3
 b58:	47006174 	smlsdxmi	r0, r4, r1, r6
 b5c:	5f4f4950 	svcpl	0x004f4950
 b60:	434e5546 	movtmi	r5, #58694	; 0xe546
 b64:	544c415f 	strbpl	r4, [ip], #-351	; 0xfffffea1
 b68:	726f0034 	rsbvc	r0, pc, #52, 0	; 0x34
 b6c:	336e695f 	cmncc	lr, #1556480	; 0x17c000
 b70:	63730032 	cmnvs	r3, #50, 0	; 0x32
 b74:	63746172 	cmnvs	r4, #-2147483620	; 0x8000001c
 b78:	61750068 	cmnvs	r5, r8, rrx
 b7c:	61007472 	tstvs	r0, r2, ror r4
 b80:	695f646e 	ldmdbvs	pc, {r1, r2, r3, r5, r6, sl, sp, lr}^	; <UNPREDICTABLE>
 b84:	0032336e 	eorseq	r3, r2, lr, ror #6
 b88:	74726175 	ldrbtvc	r6, [r2], #-373	; 0xfffffe8b
 b8c:	7475705f 	ldrbtvc	r7, [r5], #-95	; 0xffffffa1
 b90:	50470063 	subpl	r0, r7, r3, rrx
 b94:	465f4f49 	ldrbmi	r4, [pc], -r9, asr #30
 b98:	5f434e55 	svcpl	0x00434e55
 b9c:	55504e49 	ldrbpl	r4, [r0, #-3657]	; 0xfffff1b7
 ba0:	70670054 	rsbvc	r0, r7, r4, asr r0
 ba4:	735f6f69 	cmpvc	pc, #420	; 0x1a4
 ba8:	665f7465 	ldrbvs	r7, [pc], -r5, ror #8
 bac:	74636e75 	strbtvc	r6, [r3], #-3701	; 0xfffff18b
 bb0:	006e6f69 	rsbeq	r6, lr, r9, ror #30
 bb4:	33746567 	cmncc	r4, #432013312	; 0x19c00000
 bb8:	6d6b0032 	stclvs	0, cr0, [fp, #-200]!	; 0xffffff38
 bbc:	6f6c6c61 	svcvs	0x006c6c61
 bc0:	65685f63 	strbvs	r5, [r8, #-3939]!	; 0xfffff09d
 bc4:	735f7061 	cmpvc	pc, #97, 0	; 0x61
 bc8:	74726174 	ldrbtvc	r6, [r2], #-372	; 0xfffffe8c
 bcc:	78616d00 	stmdavc	r1!, {r8, sl, fp, sp, lr}^
 bd0:	79626e5f 	stmdbvc	r2!, {r0, r1, r2, r3, r4, r6, r9, sl, fp, sp, lr}^
 bd4:	00736574 	rsbseq	r6, r3, r4, ror r5
 bd8:	6464615f 	strbtvs	r6, [r4], #-351	; 0xfffffea1
 bdc:	65680072 	strbvs	r0, [r8, #-114]!	; 0xffffff8e
 be0:	6d5f7061 	ldclvs	0, cr7, [pc, #-388]	; a64 <__code_start__-0x759c>
 be4:	6b007861 	blvs	1ed70 <__bss_end__+0x13f00>
 be8:	65657266 	strbvs	r7, [r5, #-614]!	; 0xfffffd9a
 bec:	6c6c615f 	stfvse	f6, [ip], #-380	; 0xfffffe84
 bf0:	756f7200 	strbvc	r7, [pc, #-512]!	; 9f8 <__code_start__-0x7608>
 bf4:	7075646e 	rsbsvc	r6, r5, lr, ror #8
 bf8:	72666b00 	rsbvc	r6, r6, #0, 22
 bfc:	705f6565 	subsvc	r6, pc, r5, ror #10
 c00:	6100706f 	tstvs	r0, pc, rrx
 c04:	6e67696c 	vnmulvs.f16	s13, s14, s25	; <UNPREDICTABLE>
 c08:	746e656d 	strbtvc	r6, [lr], #-1389	; 0xfffffa93
 c0c:	78616d00 	stmdavc	r1!, {r8, sl, fp, sp, lr}^
 c10:	3233755f 	eorscc	r7, r3, #398458880	; 0x17c00000
 c14:	656e4f00 	strbvs	r4, [lr, #-3840]!	; 0xfffff100
 c18:	6b00424d 	blvs	11554 <__bss_end__+0x66e4>
 c1c:	6c6c616d 	stfvse	f6, [ip], #-436	; 0xfffffe4c
 c20:	685f636f 	ldmdavs	pc, {r0, r1, r2, r3, r5, r6, r8, r9, sp, lr}^	; <UNPREDICTABLE>
 c24:	5f706165 	svcpl	0x00706165
 c28:	00646e65 	rsbeq	r6, r4, r5, ror #28
 c2c:	6c616d6b 	stclvs	13, cr6, [r1], #-428	; 0xfffffe54
 c30:	5f636f6c 	svcpl	0x00636f6c
 c34:	7a746f6e 	bvc	1d1c9f4 <__bss_end__+0x1d11b84>
 c38:	006f7265 	rsbeq	r7, pc, r5, ror #4
 c3c:	705f7369 	subsvc	r7, pc, r9, ror #6
 c40:	0032776f 	eorseq	r7, r2, pc, ror #14
 c44:	6c616d6b 	stclvs	13, cr6, [r1], #-428	; 0xfffffe54
 c48:	2e636f6c 	cdpcs	15, 6, cr6, cr3, cr12, {3}
 c4c:	6d6b0063 	stclvs	0, cr0, [fp, #-396]!	; 0xfffffe74
 c50:	6f6c6c61 	svcvs	0x006c6c61
 c54:	6e695f63 	cdpvs	15, 6, cr5, cr9, cr3, {3}
 c58:	69007469 	stmdbvs	r0, {r0, r3, r5, r6, sl, ip, sp, lr}
 c5c:	6c615f73 	stclvs	15, cr5, [r1], #-460	; 0xfffffe34
 c60:	656e6769 	strbvs	r6, [lr, #-1897]!	; 0xfffff897
 c64:	6d6b0064 	stclvs	0, cr0, [fp, #-400]!	; 0xfffffe70
 c68:	6f6c6c61 	svcvs	0x006c6c61
 c6c:	65685f63 	strbvs	r5, [r8, #-3939]!	; 0xfffff09d
 c70:	705f7061 	subsvc	r7, pc, r1, rrx
 c74:	72007274 	andvc	r7, r0, #116, 4	; 0x40000007
 c78:	725f6970 	subsvc	r6, pc, #112, 18	; 0x1c0000
 c7c:	74657365 	strbtvc	r7, [r5], #-869	; 0xfffffc9b
 c80:	7475705f 	ldrbtvc	r7, [r5], #-95	; 0xffffffa1
 c84:	6d6b0063 	stclvs	0, cr0, [fp, #-396]!	; 0xfffffe74
 c88:	6f6c6c61 	svcvs	0x006c6c61
 c8c:	6c615f63 	stclvs	15, cr5, [r1], #-396	; 0xfffffe74
 c90:	656e6769 	strbvs	r6, [lr, #-1897]!	; 0xfffff897
 c94:	6e690064 	cdpvs	0, 6, cr0, cr9, cr4, {3}
 c98:	6e726574 	mrcvs	5, 3, r6, cr2, cr4, {3}
 c9c:	705f6c61 	subsvc	r6, pc, r1, ror #24
 ca0:	68637475 	stmdavs	r3!, {r0, r2, r4, r5, r6, sl, ip, sp, lr}^
 ca4:	72007261 	andvc	r7, r0, #268435462	; 0x10000006
 ca8:	735f6970 	cmpvc	pc, #112, 18	; 0x1c0000
 cac:	705f7465 	subsvc	r7, pc, r5, ror #8
 cb0:	00637475 	rsbeq	r7, r3, r5, ror r4
 cb4:	696c2f2e 	stmdbvs	ip!, {r1, r2, r3, r5, r8, r9, sl, fp, sp}^
 cb8:	702f6362 	eorvc	r6, pc, r2, ror #6
 cbc:	68637475 	stmdavs	r3!, {r0, r2, r4, r5, r6, sl, ip, sp, lr}^
 cc0:	632e7261 			; <UNDEFINED> instruction: 0x632e7261
 cc4:	73656400 	cmnvc	r5, #0, 8
 cc8:	2f2e0074 	svccs	0x002e0074
 ccc:	6362696c 	cmnvs	r2, #108, 18	; 0x1b0000
 cd0:	7274732f 	rsbsvc	r7, r4, #-1140850688	; 0xbc000000
 cd4:	2e746163 	rpwcssz	f6, f4, f3
 cd8:	2f2e0063 	svccs	0x002e0063
 cdc:	6362696c 	cmnvs	r2, #108, 18	; 0x1b0000
 ce0:	7274732f 	rsbsvc	r7, r4, #-1140850688	; 0xbc000000
 ce4:	2e706d63 	cdpcs	13, 7, cr6, cr0, cr3, {3}
 ce8:	2f2e0063 	svccs	0x002e0063
 cec:	6362696c 	cmnvs	r2, #108, 18	; 0x1b0000
 cf0:	7274732f 	rsbsvc	r7, r4, #-1140850688	; 0xbc000000
 cf4:	2e797063 	cdpcs	0, 7, cr7, cr9, cr3, {3}
 cf8:	2f2e0063 	svccs	0x002e0063
 cfc:	6362696c 	cmnvs	r2, #108, 18	; 0x1b0000
 d00:	7274732f 	rsbsvc	r7, r4, #-1140850688	; 0xbc000000
 d04:	706d636e 	rsbvc	r6, sp, lr, ror #6
 d08:	2e00632e 	cdpcs	3, 0, cr6, cr0, cr14, {1}
 d0c:	6174732f 	cmnvs	r4, pc, lsr #6
 d10:	732d6666 			; <UNDEFINED> instruction: 0x732d6666
 d14:	642f6372 	strtvs	r6, [pc], #-882	; d1c <__code_start__-0x72e4>
 d18:	75616665 	strbvc	r6, [r1, #-1637]!	; 0xfffff99b
 d1c:	722d746c 	eorvc	r7, sp, #108, 8	; 0x6c000000
 d20:	6f6f6265 	svcvs	0x006f6265
 d24:	61632d74 	smcvs	13012	; 0x32d4
 d28:	756f6c6c 	strbvc	r6, [pc, #-3180]!	; c4 <__code_start__-0x7f3c>
 d2c:	00632e74 	rsbeq	r2, r3, r4, ror lr
 d30:	6f697067 	svcvs	0x00697067
 d34:	726c635f 	rsbvc	r6, ip, #2080374785	; 0x7c000001
 d38:	70670030 	rsbvc	r0, r7, r0, lsr r0
 d3c:	735f6f69 	cmpvc	pc, #420	; 0x1a4
 d40:	00307465 	eorseq	r7, r0, r5, ror #8
 d44:	6f697067 	svcvs	0x00697067
 d48:	6972775f 	ldmdbvs	r2!, {r0, r1, r2, r3, r4, r6, r8, r9, sl, ip, sp, lr}^
 d4c:	44006574 	strmi	r6, [r0], #-1396	; 0xfffffa8c
 d50:	565f5645 	ldrbpl	r5, [pc], -r5, asr #12
 d54:	32334c41 	eorscc	r4, r3, #16640	; 0x4100
 d58:	69706700 	ldmdbvs	r0!, {r8, r9, sl, sp, lr}^
 d5c:	65725f6f 	ldrbvs	r5, [r2, #-3951]!	; 0xfffff091
 d60:	67006461 	strvs	r6, [r0, -r1, ror #8]
 d64:	5f6f6970 	svcpl	0x006f6970
 d68:	5f746573 	svcpl	0x00746573
 d6c:	75706e69 	ldrbvc	r6, [r0, #-3689]!	; 0xfffff197
 d70:	70670074 	rsbvc	r0, r7, r4, ror r0
 d74:	735f6f69 	cmpvc	pc, #420	; 0x1a4
 d78:	6f5f7465 	svcvs	0x005f7465
 d7c:	67006666 	strvs	r6, [r0, -r6, ror #12]
 d80:	5f6f6970 	svcpl	0x006f6970
 d84:	5f746573 	svcpl	0x00746573
 d88:	7074756f 	rsbsvc	r7, r4, pc, ror #10
 d8c:	67007475 	smlsdxvs	r0, r5, r4, r7
 d90:	5f6f6970 	svcpl	0x006f6970
 d94:	636e7566 	cmnvs	lr, #427819008	; 0x19800000
 d98:	6700745f 	smlsdvs	r0, pc, r4, r7	; <UNPREDICTABLE>
 d9c:	5f6f6970 	svcpl	0x006f6970
 da0:	3076656c 	rsbscc	r6, r6, ip, ror #10
 da4:	6e616200 	cdpvs	2, 6, cr6, cr1, cr0, {0}
 da8:	7067006b 	rsbvc	r0, r7, fp, rrx
 dac:	632e6f69 			; <UNDEFINED> instruction: 0x632e6f69
 db0:	69706700 	ldmdbvs	r0!, {r8, r9, sl, sp, lr}^
 db4:	65735f6f 	ldrbvs	r5, [r3, #-3951]!	; 0xfffff091
 db8:	6e6f5f74 	mcrvs	15, 3, r5, cr15, cr4, {3}
	...

Disassembly of section .debug_frame:

00000000 <.debug_frame>:
   0:	0000000c 	andeq	r0, r0, ip
   4:	ffffffff 			; <UNDEFINED> instruction: 0xffffffff
   8:	7c020001 	stcvc	0, cr0, [r2], {1}
   c:	000d0c0e 	andeq	r0, sp, lr, lsl #24
  10:	00000024 	andeq	r0, r0, r4, lsr #32
  14:	00000000 	andeq	r0, r0, r0
  18:	00008038 	andeq	r8, r0, r8, lsr r0
  1c:	000000f8 	strdeq	r0, [r0], -r8
  20:	84140e42 	ldrhi	r0, [r4], #-3650	; 0xfffff1be
  24:	86048505 	strhi	r8, [r4], -r5, lsl #10
  28:	8e028703 	cdphi	7, 0, cr8, cr2, cr3, {0}
  2c:	480e4201 	stmdami	lr, {r0, r9, lr}
  30:	0e0a6002 	cdpeq	0, 0, cr6, cr10, cr2, {0}
  34:	000b4214 	andeq	r4, fp, r4, lsl r2
  38:	0000000c 	andeq	r0, r0, ip
  3c:	ffffffff 			; <UNDEFINED> instruction: 0xffffffff
  40:	7c020001 	stcvc	0, cr0, [r2], {1}
  44:	000d0c0e 	andeq	r0, sp, lr, lsl #24
  48:	00000014 	andeq	r0, r0, r4, lsl r0
  4c:	00000038 	andeq	r0, r0, r8, lsr r0
  50:	00008130 	andeq	r8, r0, r0, lsr r1
  54:	00000074 	andeq	r0, r0, r4, ror r0
  58:	8e040e5e 	mcrhi	14, 0, r0, cr4, cr14, {2}
  5c:	100e4201 	andne	r4, lr, r1, lsl #4
  60:	0000000c 	andeq	r0, r0, ip
  64:	00000038 	andeq	r0, r0, r8, lsr r0
  68:	000081a4 	andeq	r8, r0, r4, lsr #3
  6c:	00000010 	andeq	r0, r0, r0, lsl r0
  70:	0000000c 	andeq	r0, r0, ip
  74:	00000038 	andeq	r0, r0, r8, lsr r0
  78:	000081b4 			; <UNDEFINED> instruction: 0x000081b4
  7c:	00000010 	andeq	r0, r0, r0, lsl r0
  80:	0000000c 	andeq	r0, r0, ip
  84:	00000038 	andeq	r0, r0, r8, lsr r0
  88:	000081c4 	andeq	r8, r0, r4, asr #3
  8c:	00000008 	andeq	r0, r0, r8
  90:	00000014 	andeq	r0, r0, r4, lsl r0
  94:	00000038 	andeq	r0, r0, r8, lsr r0
  98:	000081cc 	andeq	r8, r0, ip, asr #3
  9c:	00000018 	andeq	r0, r0, r8, lsl r0
  a0:	84080e42 	strhi	r0, [r8], #-3650	; 0xfffff1be
  a4:	00018e02 	andeq	r8, r1, r2, lsl #28
  a8:	0000000c 	andeq	r0, r0, ip
  ac:	00000038 	andeq	r0, r0, r8, lsr r0
  b0:	000081e4 	andeq	r8, r0, r4, ror #3
  b4:	00000038 	andeq	r0, r0, r8, lsr r0
  b8:	00000018 	andeq	r0, r0, r8, lsl r0
  bc:	00000038 	andeq	r0, r0, r8, lsr r0
  c0:	0000821c 	andeq	r8, r0, ip, lsl r2
  c4:	00000058 	andeq	r0, r0, r8, asr r0
  c8:	84100e42 	ldrhi	r0, [r0], #-3650	; 0xfffff1be
  cc:	86038504 	strhi	r8, [r3], -r4, lsl #10
  d0:	00018e02 	andeq	r8, r1, r2, lsl #28
  d4:	00000018 	andeq	r0, r0, r8, lsl r0
  d8:	00000038 	andeq	r0, r0, r8, lsr r0
  dc:	00008274 	andeq	r8, r0, r4, ror r2
  e0:	00000064 	andeq	r0, r0, r4, rrx
  e4:	84100e42 	ldrhi	r0, [r0], #-3650	; 0xfffff1be
  e8:	86038504 	strhi	r8, [r3], -r4, lsl #10
  ec:	00018e02 	andeq	r8, r1, r2, lsl #28
  f0:	00000018 	andeq	r0, r0, r8, lsl r0
  f4:	00000038 	andeq	r0, r0, r8, lsr r0
  f8:	000082d8 	ldrdeq	r8, [r0], -r8	; <UNPREDICTABLE>
  fc:	00000048 	andeq	r0, r0, r8, asr #32
 100:	84100e42 	ldrhi	r0, [r0], #-3650	; 0xfffff1be
 104:	86038504 	strhi	r8, [r3], -r4, lsl #10
 108:	00018e02 	andeq	r8, r1, r2, lsl #28
 10c:	0000000c 	andeq	r0, r0, ip
 110:	00000038 	andeq	r0, r0, r8, lsr r0
 114:	00008320 	andeq	r8, r0, r0, lsr #6
 118:	0000004c 	andeq	r0, r0, ip, asr #32
 11c:	00000020 	andeq	r0, r0, r0, lsr #32
 120:	00000038 	andeq	r0, r0, r8, lsr r0
 124:	0000836c 	andeq	r8, r0, ip, ror #6
 128:	000000a4 	andeq	r0, r0, r4, lsr #1
 12c:	84100e42 	ldrhi	r0, [r0], #-3650	; 0xfffff1be
 130:	86038504 	strhi	r8, [r3], -r4, lsl #10
 134:	42018e02 	andmi	r8, r1, #2, 28
 138:	0201900e 	andeq	r9, r1, #14, 0
 13c:	00100e46 	andseq	r0, r0, r6, asr #28
 140:	00000020 	andeq	r0, r0, r0, lsr #32
 144:	00000038 	andeq	r0, r0, r8, lsr r0
 148:	00008410 	andeq	r8, r0, r0, lsl r4
 14c:	00000170 	andeq	r0, r0, r0, ror r1
 150:	840c0e42 	strhi	r0, [ip], #-3650	; 0xfffff1be
 154:	8e028503 	cfsh32hi	mvfx8, mvfx2, #3
 158:	a80e4201 	stmdage	lr, {r0, r9, lr}
 15c:	0a7c0201 	beq	1f00968 <__bss_end__+0x1ef5af8>
 160:	0b420c0e 	bleq	10831a0 <__bss_end__+0x1078330>
 164:	00000020 	andeq	r0, r0, r0, lsr #32
 168:	00000038 	andeq	r0, r0, r8, lsr r0
 16c:	00008580 	andeq	r8, r0, r0, lsl #11
 170:	000000dc 	ldrdeq	r0, [r0], -ip
 174:	84100e42 	ldrhi	r0, [r0], #-3650	; 0xfffff1be
 178:	86038504 	strhi	r8, [r3], -r4, lsl #10
 17c:	42018e02 	andmi	r8, r1, #2, 28
 180:	6002200e 	andvs	r2, r2, lr
 184:	0000100e 	andeq	r1, r0, lr
 188:	0000000c 	andeq	r0, r0, ip
 18c:	ffffffff 			; <UNDEFINED> instruction: 0xffffffff
 190:	7c020001 	stcvc	0, cr0, [r2], {1}
 194:	000d0c0e 	andeq	r0, sp, lr, lsl #24
 198:	0000000c 	andeq	r0, r0, ip
 19c:	00000188 	andeq	r0, r0, r8, lsl #3
 1a0:	0000865c 	andeq	r8, r0, ip, asr r6
 1a4:	0000003c 	andeq	r0, r0, ip, lsr r0
 1a8:	0000001c 	andeq	r0, r0, ip, lsl r0
 1ac:	00000188 	andeq	r0, r0, r8, lsl #3
 1b0:	00008698 	muleq	r0, r8, r6
 1b4:	0000017c 	andeq	r0, r0, ip, ror r1
 1b8:	84180e42 	ldrhi	r0, [r8], #-3650	; 0xfffff1be
 1bc:	86058506 	strhi	r8, [r5], -r6, lsl #10
 1c0:	88038704 	stmdahi	r3, {r2, r8, r9, sl, pc}
 1c4:	00018e02 	andeq	r8, r1, r2, lsl #28
 1c8:	0000001c 	andeq	r0, r0, ip, lsl r0
 1cc:	00000188 	andeq	r0, r0, r8, lsl #3
 1d0:	00008814 	andeq	r8, r0, r4, lsl r8
 1d4:	000000b0 	strheq	r0, [r0], -r0	; <UNPREDICTABLE>
 1d8:	84180e42 	ldrhi	r0, [r8], #-3650	; 0xfffff1be
 1dc:	86058506 	strhi	r8, [r5], -r6, lsl #10
 1e0:	88038704 	stmdahi	r3, {r2, r8, r9, sl, pc}
 1e4:	00018e02 	andeq	r8, r1, r2, lsl #28
 1e8:	00000014 	andeq	r0, r0, r4, lsl r0
 1ec:	00000188 	andeq	r0, r0, r8, lsl #3
 1f0:	000088c4 	andeq	r8, r0, r4, asr #17
 1f4:	00000028 	andeq	r0, r0, r8, lsr #32
 1f8:	84080e42 	strhi	r0, [r8], #-3650	; 0xfffff1be
 1fc:	00018e02 	andeq	r8, r1, r2, lsl #28
 200:	00000020 	andeq	r0, r0, r0, lsr #32
 204:	00000188 	andeq	r0, r0, r8, lsl #3
 208:	000088ec 	andeq	r8, r0, ip, ror #17
 20c:	00000138 	andeq	r0, r0, r8, lsr r1
 210:	84140e42 	ldrhi	r0, [r4], #-3650	; 0xfffff1be
 214:	86048505 	strhi	r8, [r4], -r5, lsl #10
 218:	8e028703 	cdphi	7, 0, cr8, cr2, cr3, {0}
 21c:	200e4201 	andcs	r4, lr, r1, lsl #4
 220:	140e8a02 	strne	r8, [lr], #-2562	; 0xfffff5fe
 224:	00000018 	andeq	r0, r0, r8, lsl r0
 228:	00000188 	andeq	r0, r0, r8, lsl #3
 22c:	00008a24 	andeq	r8, r0, r4, lsr #20
 230:	00000090 	muleq	r0, r0, r0
 234:	8e040e42 	cdphi	14, 0, cr0, cr4, cr2, {2}
 238:	480e4201 	stmdami	lr, {r0, r9, lr}
 23c:	00040e7a 	andeq	r0, r4, sl, ror lr
 240:	00000020 	andeq	r0, r0, r0, lsr #32
 244:	00000188 	andeq	r0, r0, r8, lsl #3
 248:	00008ab4 			; <UNDEFINED> instruction: 0x00008ab4
 24c:	0000009c 	muleq	r0, ip, r0
 250:	840c0e42 	strhi	r0, [ip], #-3650	; 0xfffff1be
 254:	8e028503 	cfsh32hi	mvfx8, mvfx2, #3
 258:	180e4201 	stmdane	lr, {r0, r9, lr}
 25c:	0c0e0a58 			; <UNDEFINED> instruction: 0x0c0e0a58
 260:	00000b42 	andeq	r0, r0, r2, asr #22
 264:	00000014 	andeq	r0, r0, r4, lsl r0
 268:	00000188 	andeq	r0, r0, r8, lsl #3
 26c:	00008b50 	andeq	r8, r0, r0, asr fp
 270:	00000030 	andeq	r0, r0, r0, lsr r0
 274:	84080e42 	strhi	r0, [r8], #-3650	; 0xfffff1be
 278:	00018e02 	andeq	r8, r1, r2, lsl #28
 27c:	00000014 	andeq	r0, r0, r4, lsl r0
 280:	00000188 	andeq	r0, r0, r8, lsl #3
 284:	00008b80 	andeq	r8, r0, r0, lsl #23
 288:	00000048 	andeq	r0, r0, r8, asr #32
 28c:	84080e42 	strhi	r0, [r8], #-3650	; 0xfffff1be
 290:	00018e02 	andeq	r8, r1, r2, lsl #28
 294:	00000014 	andeq	r0, r0, r4, lsl r0
 298:	00000188 	andeq	r0, r0, r8, lsl #3
 29c:	00008bc8 	andeq	r8, r0, r8, asr #23
 2a0:	00000050 	andeq	r0, r0, r0, asr r0
 2a4:	84080e42 	strhi	r0, [r8], #-3650	; 0xfffff1be
 2a8:	00018e02 	andeq	r8, r1, r2, lsl #28
 2ac:	00000014 	andeq	r0, r0, r4, lsl r0
 2b0:	00000188 	andeq	r0, r0, r8, lsl #3
 2b4:	00008c18 	andeq	r8, r0, r8, lsl ip
 2b8:	00000010 	andeq	r0, r0, r0, lsl r0
 2bc:	84080e42 	strhi	r0, [r8], #-3650	; 0xfffff1be
 2c0:	00018e02 	andeq	r8, r1, r2, lsl #28
 2c4:	00000014 	andeq	r0, r0, r4, lsl r0
 2c8:	00000188 	andeq	r0, r0, r8, lsl #3
 2cc:	00008c28 	andeq	r8, r0, r8, lsr #24
 2d0:	00000028 	andeq	r0, r0, r8, lsr #32
 2d4:	84080e42 	strhi	r0, [r8], #-3650	; 0xfffff1be
 2d8:	00018e02 	andeq	r8, r1, r2, lsl #28
 2dc:	0000000c 	andeq	r0, r0, ip
 2e0:	ffffffff 			; <UNDEFINED> instruction: 0xffffffff
 2e4:	7c020001 	stcvc	0, cr0, [r2], {1}
 2e8:	000d0c0e 	andeq	r0, sp, lr, lsl #24
 2ec:	00000014 	andeq	r0, r0, r4, lsl r0
 2f0:	000002dc 	ldrdeq	r0, [r0], -ip
 2f4:	00008c94 	muleq	r0, r4, ip
 2f8:	000000bc 	strheq	r0, [r0], -ip
 2fc:	8e040e42 	cdphi	14, 0, cr0, cr4, cr2, {2}
 300:	00000001 	andeq	r0, r0, r1
 304:	00000014 	andeq	r0, r0, r4, lsl r0
 308:	000002dc 	ldrdeq	r0, [r0], -ip
 30c:	00008d50 	andeq	r8, r0, r0, asr sp
 310:	00000044 	andeq	r0, r0, r4, asr #32
 314:	84080e42 	strhi	r0, [r8], #-3650	; 0xfffff1be
 318:	00018e02 	andeq	r8, r1, r2, lsl #28
 31c:	00000014 	andeq	r0, r0, r4, lsl r0
 320:	000002dc 	ldrdeq	r0, [r0], -ip
 324:	00008d94 	muleq	r0, r4, sp
 328:	000000ac 	andeq	r0, r0, ip, lsr #1
 32c:	84080e42 	strhi	r0, [r8], #-3650	; 0xfffff1be
 330:	00018e02 	andeq	r8, r1, r2, lsl #28
 334:	0000000c 	andeq	r0, r0, ip
 338:	ffffffff 			; <UNDEFINED> instruction: 0xffffffff
 33c:	7c020001 	stcvc	0, cr0, [r2], {1}
 340:	000d0c0e 	andeq	r0, sp, lr, lsl #24
 344:	00000014 	andeq	r0, r0, r4, lsl r0
 348:	00000334 	andeq	r0, r0, r4, lsr r3
 34c:	00008e40 	andeq	r8, r0, r0, asr #28
 350:	00000034 	andeq	r0, r0, r4, lsr r0
 354:	8e040e42 	cdphi	14, 0, cr0, cr4, cr2, {2}
 358:	00000001 	andeq	r0, r0, r1
 35c:	0000000c 	andeq	r0, r0, ip
 360:	ffffffff 			; <UNDEFINED> instruction: 0xffffffff
 364:	7c020001 	stcvc	0, cr0, [r2], {1}
 368:	000d0c0e 	andeq	r0, sp, lr, lsl #24
 36c:	0000000c 	andeq	r0, r0, ip
 370:	0000035c 	andeq	r0, r0, ip, asr r3
 374:	00008e74 	andeq	r8, r0, r4, ror lr
 378:	00000060 	andeq	r0, r0, r0, rrx
 37c:	0000000c 	andeq	r0, r0, ip
 380:	ffffffff 			; <UNDEFINED> instruction: 0xffffffff
 384:	7c020001 	stcvc	0, cr0, [r2], {1}
 388:	000d0c0e 	andeq	r0, sp, lr, lsl #24
 38c:	0000000c 	andeq	r0, r0, ip
 390:	0000037c 	andeq	r0, r0, ip, ror r3
 394:	00008ed4 	ldrdeq	r8, [r0], -r4
 398:	00000018 	andeq	r0, r0, r8, lsl r0
 39c:	0000000c 	andeq	r0, r0, ip
 3a0:	ffffffff 			; <UNDEFINED> instruction: 0xffffffff
 3a4:	7c020001 	stcvc	0, cr0, [r2], {1}
 3a8:	000d0c0e 	andeq	r0, sp, lr, lsl #24
 3ac:	00000034 	andeq	r0, r0, r4, lsr r0
 3b0:	0000039c 	muleq	r0, ip, r3
 3b4:	00008eec 	andeq	r8, r0, ip, ror #29
 3b8:	00000058 	andeq	r0, r0, r8, asr r0
 3bc:	80100e42 	andshi	r0, r0, r2, asr #28
 3c0:	82038104 	andhi	r8, r3, #1
 3c4:	42018302 	andmi	r8, r1, #134217728	; 0x8000000
 3c8:	07841c0e 	streq	r1, [r4, lr, lsl #24]
 3cc:	058e0685 	streq	r0, [lr, #1669]	; 0x685
 3d0:	5c280e42 	stcpl	14, cr0, [r8], #-264	; 0xfffffef8
 3d4:	ce421c0e 	cdpgt	12, 4, cr1, cr2, cr14, {0}
 3d8:	100ec4c5 	andne	ip, lr, r5, asr #9
 3dc:	c1c2c342 	bicgt	ip, r2, r2, asr #6
 3e0:	00000ec0 	andeq	r0, r0, r0, asr #29
 3e4:	0000000c 	andeq	r0, r0, ip
 3e8:	ffffffff 			; <UNDEFINED> instruction: 0xffffffff
 3ec:	7c020001 	stcvc	0, cr0, [r2], {1}
 3f0:	000d0c0e 	andeq	r0, sp, lr, lsl #24
 3f4:	00000014 	andeq	r0, r0, r4, lsl r0
 3f8:	000003e4 	andeq	r0, r0, r4, ror #7
 3fc:	00008f44 	andeq	r8, r0, r4, asr #30
 400:	00000034 	andeq	r0, r0, r4, lsr r0
 404:	84080e42 	strhi	r0, [r8], #-3650	; 0xfffff1be
 408:	00018e02 	andeq	r8, r1, r2, lsl #28
 40c:	0000000c 	andeq	r0, r0, ip
 410:	ffffffff 			; <UNDEFINED> instruction: 0xffffffff
 414:	7c020001 	stcvc	0, cr0, [r2], {1}
 418:	000d0c0e 	andeq	r0, sp, lr, lsl #24
 41c:	0000000c 	andeq	r0, r0, ip
 420:	0000040c 	andeq	r0, r0, ip, lsl #8
 424:	00008f78 	andeq	r8, r0, r8, ror pc
 428:	0000002c 	andeq	r0, r0, ip, lsr #32
 42c:	00000014 	andeq	r0, r0, r4, lsl r0
 430:	0000040c 	andeq	r0, r0, ip, lsl #8
 434:	00008fa4 	andeq	r8, r0, r4, lsr #31
 438:	00000018 	andeq	r0, r0, r8, lsl r0
 43c:	84080e42 	strhi	r0, [r8], #-3650	; 0xfffff1be
 440:	00018e02 	andeq	r8, r1, r2, lsl #28
 444:	0000000c 	andeq	r0, r0, ip
 448:	0000040c 	andeq	r0, r0, ip, lsl #8
 44c:	00008fbc 			; <UNDEFINED> instruction: 0x00008fbc
 450:	00000018 	andeq	r0, r0, r8, lsl r0
 454:	0000000c 	andeq	r0, r0, ip
 458:	ffffffff 			; <UNDEFINED> instruction: 0xffffffff
 45c:	7c020001 	stcvc	0, cr0, [r2], {1}
 460:	000d0c0e 	andeq	r0, sp, lr, lsl #24
 464:	0000000c 	andeq	r0, r0, ip
 468:	00000454 	andeq	r0, r0, r4, asr r4
 46c:	00008fd4 	ldrdeq	r8, [r0], -r4
 470:	00000014 	andeq	r0, r0, r4, lsl r0
 474:	0000000c 	andeq	r0, r0, ip
 478:	00000454 	andeq	r0, r0, r4, asr r4
 47c:	00008fe8 	andeq	r8, r0, r8, ror #31
 480:	00000024 	andeq	r0, r0, r4, lsr #32
 484:	0000000c 	andeq	r0, r0, ip
 488:	00000454 	andeq	r0, r0, r4, asr r4
 48c:	0000900c 	andeq	r9, r0, ip
 490:	00000038 	andeq	r0, r0, r8, lsr r0
 494:	00000024 	andeq	r0, r0, r4, lsr #32
 498:	00000454 	andeq	r0, r0, r4, asr r4
 49c:	00009044 	andeq	r9, r0, r4, asr #32
 4a0:	000001b4 			; <UNDEFINED> instruction: 0x000001b4
 4a4:	84140e42 	ldrhi	r0, [r4], #-3650	; 0xfffff1be
 4a8:	86048505 	strhi	r8, [r4], -r5, lsl #10
 4ac:	8e028703 	cdphi	7, 0, cr8, cr2, cr3, {0}
 4b0:	600e4201 	andvs	r4, lr, r1, lsl #4
 4b4:	0e0a9a02 	vmlaeq.f32	s18, s20, s4
 4b8:	000b4214 	andeq	r4, fp, r4, lsl r2
 4bc:	00000014 	andeq	r0, r0, r4, lsl r0
 4c0:	00000454 	andeq	r0, r0, r4, asr r4
 4c4:	000091f8 	strdeq	r9, [r0], -r8
 4c8:	00000064 	andeq	r0, r0, r4, rrx
 4cc:	8e040e54 	mcrhi	14, 0, r0, cr4, cr4, {2}
 4d0:	100e4201 	andne	r4, lr, r1, lsl #4
 4d4:	0000002c 	andeq	r0, r0, ip, lsr #32
 4d8:	00000454 	andeq	r0, r0, r4, asr r4
 4dc:	0000925c 	andeq	r9, r0, ip, asr r2
 4e0:	000004b8 			; <UNDEFINED> instruction: 0x000004b8
 4e4:	84240e42 	strthi	r0, [r4], #-3650	; 0xfffff1be
 4e8:	86088509 	strhi	r8, [r8], -r9, lsl #10
 4ec:	88068707 	stmdahi	r6, {r0, r1, r2, r8, r9, sl, pc}
 4f0:	8a048905 	bhi	12290c <__bss_end__+0x117a9c>
 4f4:	8e028b03 	vmlahi.f64	d8, d2, d3
 4f8:	b80e4201 	stmdalt	lr, {r0, r9, lr}
 4fc:	02380302 	eorseq	r0, r8, #134217728	; 0x8000000
 500:	0000240e 	andeq	r2, r0, lr, lsl #8
 504:	0000000c 	andeq	r0, r0, ip
 508:	ffffffff 			; <UNDEFINED> instruction: 0xffffffff
 50c:	7c020001 	stcvc	0, cr0, [r2], {1}
 510:	000d0c0e 	andeq	r0, sp, lr, lsl #24
 514:	00000014 	andeq	r0, r0, r4, lsl r0
 518:	00000504 	andeq	r0, r0, r4, lsl #10
 51c:	00009714 	andeq	r9, r0, r4, lsl r7
 520:	0000002c 	andeq	r0, r0, ip, lsr #32
 524:	84080e42 	strhi	r0, [r8], #-3650	; 0xfffff1be
 528:	00018e02 	andeq	r8, r1, r2, lsl #28
 52c:	0000000c 	andeq	r0, r0, ip
 530:	ffffffff 			; <UNDEFINED> instruction: 0xffffffff
 534:	7c020001 	stcvc	0, cr0, [r2], {1}
 538:	000d0c0e 	andeq	r0, sp, lr, lsl #24
 53c:	00000014 	andeq	r0, r0, r4, lsl r0
 540:	0000052c 	andeq	r0, r0, ip, lsr #10
 544:	00009740 	andeq	r9, r0, r0, asr #14
 548:	0000003c 	andeq	r0, r0, ip, lsr r0
 54c:	84080e42 	strhi	r0, [r8], #-3650	; 0xfffff1be
 550:	00018e02 	andeq	r8, r1, r2, lsl #28
 554:	0000000c 	andeq	r0, r0, ip
 558:	ffffffff 			; <UNDEFINED> instruction: 0xffffffff
 55c:	7c020001 	stcvc	0, cr0, [r2], {1}
 560:	000d0c0e 	andeq	r0, sp, lr, lsl #24
 564:	0000000c 	andeq	r0, r0, ip
 568:	00000554 	andeq	r0, r0, r4, asr r5
 56c:	0000977c 	andeq	r9, r0, ip, ror r7
 570:	00000004 	andeq	r0, r0, r4
 574:	0000000c 	andeq	r0, r0, ip
 578:	ffffffff 			; <UNDEFINED> instruction: 0xffffffff
 57c:	7c020001 	stcvc	0, cr0, [r2], {1}
 580:	000d0c0e 	andeq	r0, sp, lr, lsl #24
 584:	0000000c 	andeq	r0, r0, ip
 588:	00000574 	andeq	r0, r0, r4, ror r5
 58c:	00009780 	andeq	r9, r0, r0, lsl #15
 590:	00000018 	andeq	r0, r0, r8, lsl r0
 594:	0000000c 	andeq	r0, r0, ip
 598:	00000574 	andeq	r0, r0, r4, ror r5
 59c:	00009798 	muleq	r0, r8, r7
 5a0:	00000014 	andeq	r0, r0, r4, lsl r0
 5a4:	00000014 	andeq	r0, r0, r4, lsl r0
 5a8:	00000574 	andeq	r0, r0, r4, ror r5
 5ac:	000097ac 	andeq	r9, r0, ip, lsr #15
 5b0:	00000054 	andeq	r0, r0, r4, asr r0
 5b4:	84080e42 	strhi	r0, [r8], #-3650	; 0xfffff1be
 5b8:	00018e02 	andeq	r8, r1, r2, lsl #28
 5bc:	0000000c 	andeq	r0, r0, ip
 5c0:	ffffffff 			; <UNDEFINED> instruction: 0xffffffff
 5c4:	7c020001 	stcvc	0, cr0, [r2], {1}
 5c8:	000d0c0e 	andeq	r0, sp, lr, lsl #24
 5cc:	00000014 	andeq	r0, r0, r4, lsl r0
 5d0:	000005bc 			; <UNDEFINED> instruction: 0x000005bc
 5d4:	00009800 	andeq	r9, r0, r0, lsl #16
 5d8:	00000014 	andeq	r0, r0, r4, lsl r0
 5dc:	84080e42 	strhi	r0, [r8], #-3650	; 0xfffff1be
 5e0:	00018e02 	andeq	r8, r1, r2, lsl #28
 5e4:	00000014 	andeq	r0, r0, r4, lsl r0
 5e8:	000005bc 			; <UNDEFINED> instruction: 0x000005bc
 5ec:	00009814 	andeq	r9, r0, r4, lsl r8
 5f0:	0000001c 	andeq	r0, r0, ip, lsl r0
 5f4:	84080e42 	strhi	r0, [r8], #-3650	; 0xfffff1be
 5f8:	00018e02 	andeq	r8, r1, r2, lsl #28
 5fc:	00000018 	andeq	r0, r0, r8, lsl r0
 600:	000005bc 			; <UNDEFINED> instruction: 0x000005bc
 604:	00009830 	andeq	r9, r0, r0, lsr r8
 608:	00000024 	andeq	r0, r0, r4, lsr #32
 60c:	84100e42 	ldrhi	r0, [r0], #-3650	; 0xfffff1be
 610:	86038504 	strhi	r8, [r3], -r4, lsl #10
 614:	00018e02 	andeq	r8, r1, r2, lsl #28
 618:	00000014 	andeq	r0, r0, r4, lsl r0
 61c:	000005bc 			; <UNDEFINED> instruction: 0x000005bc
 620:	00009854 	andeq	r9, r0, r4, asr r8
 624:	00000018 	andeq	r0, r0, r8, lsl r0
 628:	84080e42 	strhi	r0, [r8], #-3650	; 0xfffff1be
 62c:	00018e02 	andeq	r8, r1, r2, lsl #28
 630:	00000014 	andeq	r0, r0, r4, lsl r0
 634:	000005bc 			; <UNDEFINED> instruction: 0x000005bc
 638:	0000986c 	andeq	r9, r0, ip, ror #16
 63c:	00000018 	andeq	r0, r0, r8, lsl r0
 640:	84080e42 	strhi	r0, [r8], #-3650	; 0xfffff1be
 644:	00018e02 	andeq	r8, r1, r2, lsl #28
 648:	0000000c 	andeq	r0, r0, ip
 64c:	ffffffff 			; <UNDEFINED> instruction: 0xffffffff
 650:	7c020001 	stcvc	0, cr0, [r2], {1}
 654:	000d0c0e 	andeq	r0, sp, lr, lsl #24
 658:	00000018 	andeq	r0, r0, r8, lsl r0
 65c:	00000648 	andeq	r0, r0, r8, asr #12
 660:	00009884 	andeq	r9, r0, r4, lsl #17
 664:	00000020 	andeq	r0, r0, r0, lsr #32
 668:	84100e42 	ldrhi	r0, [r0], #-3650	; 0xfffff1be
 66c:	86038504 	strhi	r8, [r3], -r4, lsl #10
 670:	00018e02 	andeq	r8, r1, r2, lsl #28
 674:	00000018 	andeq	r0, r0, r8, lsl r0
 678:	00000648 	andeq	r0, r0, r8, asr #12
 67c:	000098a4 	andeq	r9, r0, r4, lsr #17
 680:	00000020 	andeq	r0, r0, r0, lsr #32
 684:	84100e42 	ldrhi	r0, [r0], #-3650	; 0xfffff1be
 688:	86038504 	strhi	r8, [r3], -r4, lsl #10
 68c:	00018e02 	andeq	r8, r1, r2, lsl #28
 690:	00000014 	andeq	r0, r0, r4, lsl r0
 694:	00000648 	andeq	r0, r0, r8, asr #12
 698:	000098c4 	andeq	r9, r0, r4, asr #17
 69c:	000000b0 	strheq	r0, [r0], -r0	; <UNPREDICTABLE>
 6a0:	84080e42 	strhi	r0, [r8], #-3650	; 0xfffff1be
 6a4:	00018e02 	andeq	r8, r1, r2, lsl #28
 6a8:	00000014 	andeq	r0, r0, r4, lsl r0
 6ac:	00000648 	andeq	r0, r0, r8, asr #12
 6b0:	00009974 	andeq	r9, r0, r4, ror r9
 6b4:	00000018 	andeq	r0, r0, r8, lsl r0
 6b8:	84080e42 	strhi	r0, [r8], #-3650	; 0xfffff1be
 6bc:	00018e02 	andeq	r8, r1, r2, lsl #28
 6c0:	00000014 	andeq	r0, r0, r4, lsl r0
 6c4:	00000648 	andeq	r0, r0, r8, asr #12
 6c8:	0000998c 	andeq	r9, r0, ip, lsl #19
 6cc:	00000020 	andeq	r0, r0, r0, lsr #32
 6d0:	84080e42 	strhi	r0, [r8], #-3650	; 0xfffff1be
 6d4:	00018e02 	andeq	r8, r1, r2, lsl #28
 6d8:	00000014 	andeq	r0, r0, r4, lsl r0
 6dc:	00000648 	andeq	r0, r0, r8, asr #12
 6e0:	000099ac 	andeq	r9, r0, ip, lsr #19
 6e4:	00000030 	andeq	r0, r0, r0, lsr r0
 6e8:	84080e42 	strhi	r0, [r8], #-3650	; 0xfffff1be
 6ec:	00018e02 	andeq	r8, r1, r2, lsl #28
 6f0:	00000014 	andeq	r0, r0, r4, lsl r0
 6f4:	00000648 	andeq	r0, r0, r8, asr #12
 6f8:	000099dc 	ldrdeq	r9, [r0], -ip
 6fc:	00000030 	andeq	r0, r0, r0, lsr r0
 700:	84080e42 	strhi	r0, [r8], #-3650	; 0xfffff1be
 704:	00018e02 	andeq	r8, r1, r2, lsl #28
 708:	00000014 	andeq	r0, r0, r4, lsl r0
 70c:	00000648 	andeq	r0, r0, r8, asr #12
 710:	00009a0c 	andeq	r9, r0, ip, lsl #20
 714:	00000010 	andeq	r0, r0, r0, lsl r0
 718:	84080e42 	strhi	r0, [r8], #-3650	; 0xfffff1be
 71c:	00018e02 	andeq	r8, r1, r2, lsl #28
 720:	00000014 	andeq	r0, r0, r4, lsl r0
 724:	00000648 	andeq	r0, r0, r8, asr #12
 728:	00009a1c 	andeq	r9, r0, ip, lsl sl
 72c:	00000020 	andeq	r0, r0, r0, lsr #32
 730:	84080e42 	strhi	r0, [r8], #-3650	; 0xfffff1be
 734:	00018e02 	andeq	r8, r1, r2, lsl #28
 738:	00000014 	andeq	r0, r0, r4, lsl r0
 73c:	00000648 	andeq	r0, r0, r8, asr #12
 740:	00009a3c 	andeq	r9, r0, ip, lsr sl
 744:	00000014 	andeq	r0, r0, r4, lsl r0
 748:	84080e42 	strhi	r0, [r8], #-3650	; 0xfffff1be
 74c:	00018e02 	andeq	r8, r1, r2, lsl #28
 750:	00000014 	andeq	r0, r0, r4, lsl r0
 754:	00000648 	andeq	r0, r0, r8, asr #12
 758:	00009a50 	andeq	r9, r0, r0, asr sl
 75c:	00000024 	andeq	r0, r0, r4, lsr #32
 760:	84080e42 	strhi	r0, [r8], #-3650	; 0xfffff1be
 764:	00018e02 	andeq	r8, r1, r2, lsl #28
 768:	0000000c 	andeq	r0, r0, ip
 76c:	ffffffff 			; <UNDEFINED> instruction: 0xffffffff
 770:	7c020001 	stcvc	0, cr0, [r2], {1}
 774:	000d0c0e 	andeq	r0, sp, lr, lsl #24
 778:	0000000c 	andeq	r0, r0, ip
 77c:	00000768 	andeq	r0, r0, r8, ror #14
 780:	00009a74 	andeq	r9, r0, r4, ror sl
 784:	00000010 	andeq	r0, r0, r0, lsl r0
 788:	0000000c 	andeq	r0, r0, ip
 78c:	00000768 	andeq	r0, r0, r8, ror #14
 790:	00009a84 	andeq	r9, r0, r4, lsl #21
 794:	00000010 	andeq	r0, r0, r0, lsl r0
 798:	0000000c 	andeq	r0, r0, ip
 79c:	00000768 	andeq	r0, r0, r8, ror #14
 7a0:	00009a94 	muleq	r0, r4, sl
 7a4:	00000010 	andeq	r0, r0, r0, lsl r0
 7a8:	0000001c 	andeq	r0, r0, ip, lsl r0
 7ac:	00000768 	andeq	r0, r0, r8, ror #14
 7b0:	00009aa4 	andeq	r9, r0, r4, lsr #21
 7b4:	0000009c 	muleq	r0, ip, r0
 7b8:	8e040e42 	cdphi	14, 0, cr0, cr4, cr2, {2}
 7bc:	100e4201 	andne	r4, lr, r1, lsl #4
 7c0:	040e0a58 	streq	r0, [lr], #-2648	; 0xfffff5a8
 7c4:	00000b42 	andeq	r0, r0, r2, asr #22
 7c8:	00000014 	andeq	r0, r0, r4, lsl r0
 7cc:	00000768 	andeq	r0, r0, r8, ror #14
 7d0:	00009b40 	andeq	r9, r0, r0, asr #22
 7d4:	00000058 	andeq	r0, r0, r8, asr r0
 7d8:	84080e42 	strhi	r0, [r8], #-3650	; 0xfffff1be
 7dc:	00018e02 	andeq	r8, r1, r2, lsl #28
 7e0:	0000001c 	andeq	r0, r0, ip, lsl r0
 7e4:	00000768 	andeq	r0, r0, r8, ror #14
 7e8:	00009b98 	muleq	r0, r8, fp
 7ec:	00000098 	muleq	r0, r8, r0
 7f0:	8e040e42 	cdphi	14, 0, cr0, cr4, cr2, {2}
 7f4:	100e4201 	andne	r4, lr, r1, lsl #4
 7f8:	040e0a58 	streq	r0, [lr], #-2648	; 0xfffff5a8
 7fc:	00000b42 	andeq	r0, r0, r2, asr #22
 800:	00000020 	andeq	r0, r0, r0, lsr #32
 804:	00000768 	andeq	r0, r0, r8, ror #14
 808:	00009c30 	andeq	r9, r0, r0, lsr ip
 80c:	00000064 	andeq	r0, r0, r4, rrx
 810:	840c0e42 	strhi	r0, [ip], #-3650	; 0xfffff1be
 814:	8e028503 	cfsh32hi	mvfx8, mvfx2, #3
 818:	180e4201 	stmdane	lr, {r0, r9, lr}
 81c:	0c0e0a54 			; <UNDEFINED> instruction: 0x0c0e0a54
 820:	00000b42 	andeq	r0, r0, r2, asr #22
 824:	0000001c 	andeq	r0, r0, ip, lsl r0
 828:	00000768 	andeq	r0, r0, r8, ror #14
 82c:	00009c94 	muleq	r0, r4, ip
 830:	00000118 	andeq	r0, r0, r8, lsl r1
 834:	8e040e42 	cdphi	14, 0, cr0, cr4, cr2, {2}
 838:	100e4201 	andne	r4, lr, r1, lsl #4
 83c:	040e0a6c 	streq	r0, [lr], #-2668	; 0xfffff594
 840:	00000b42 	andeq	r0, r0, r2, asr #22
 844:	0000000c 	andeq	r0, r0, ip
 848:	00000768 	andeq	r0, r0, r8, ror #14
 84c:	00009dac 	andeq	r9, r0, ip, lsr #27
 850:	00000004 	andeq	r0, r0, r4
 854:	0000000c 	andeq	r0, r0, ip
 858:	00000768 	andeq	r0, r0, r8, ror #14
 85c:	00009db0 			; <UNDEFINED> instruction: 0x00009db0
 860:	00000014 	andeq	r0, r0, r4, lsl r0
 864:	00000014 	andeq	r0, r0, r4, lsl r0
 868:	00000768 	andeq	r0, r0, r8, ror #14
 86c:	00009dc4 	andeq	r9, r0, r4, asr #27
 870:	00000060 	andeq	r0, r0, r0, rrx
 874:	8e040e58 	mcrhi	14, 0, r0, cr4, cr8, {2}
 878:	100e4201 	andne	r4, lr, r1, lsl #4
 87c:	0000000c 	andeq	r0, r0, ip
 880:	ffffffff 			; <UNDEFINED> instruction: 0xffffffff
 884:	7c020001 	stcvc	0, cr0, [r2], {1}
 888:	000d0c0e 	andeq	r0, sp, lr, lsl #24
 88c:	00000014 	andeq	r0, r0, r4, lsl r0
 890:	0000087c 	andeq	r0, r0, ip, ror r8
 894:	00009e24 	andeq	r9, r0, r4, lsr #28
 898:	00000014 	andeq	r0, r0, r4, lsl r0
 89c:	84080e42 	strhi	r0, [r8], #-3650	; 0xfffff1be
 8a0:	00018e02 	andeq	r8, r1, r2, lsl #28
 8a4:	0000000c 	andeq	r0, r0, ip
 8a8:	0000087c 	andeq	r0, r0, ip, ror r8
 8ac:	00009e38 	andeq	r9, r0, r8, lsr lr
 8b0:	00000018 	andeq	r0, r0, r8, lsl r0
 8b4:	0000000c 	andeq	r0, r0, ip
 8b8:	0000087c 	andeq	r0, r0, ip, ror r8
 8bc:	00009e50 	andeq	r9, r0, r0, asr lr
 8c0:	00000010 	andeq	r0, r0, r0, lsl r0
 8c4:	0000000c 	andeq	r0, r0, ip
 8c8:	ffffffff 			; <UNDEFINED> instruction: 0xffffffff
 8cc:	7c020001 	stcvc	0, cr0, [r2], {1}
 8d0:	000d0c0e 	andeq	r0, sp, lr, lsl #24
 8d4:	0000000c 	andeq	r0, r0, ip
 8d8:	000008c4 	andeq	r0, r0, r4, asr #17
 8dc:	00009e60 	andeq	r9, r0, r0, ror #28
 8e0:	00000034 	andeq	r0, r0, r4, lsr r0
 8e4:	0000000c 	andeq	r0, r0, ip
 8e8:	ffffffff 			; <UNDEFINED> instruction: 0xffffffff
 8ec:	7c020001 	stcvc	0, cr0, [r2], {1}
 8f0:	000d0c0e 	andeq	r0, sp, lr, lsl #24
 8f4:	0000000c 	andeq	r0, r0, ip
 8f8:	000008e4 	andeq	r0, r0, r4, ror #17
 8fc:	00009e94 	muleq	r0, r4, lr
 900:	0000002c 	andeq	r0, r0, ip, lsr #32
 904:	0000000c 	andeq	r0, r0, ip
 908:	ffffffff 			; <UNDEFINED> instruction: 0xffffffff
 90c:	7c020001 	stcvc	0, cr0, [r2], {1}
 910:	000d0c0e 	andeq	r0, sp, lr, lsl #24
 914:	0000000c 	andeq	r0, r0, ip
 918:	00000904 	andeq	r0, r0, r4, lsl #18
 91c:	00009ec0 	andeq	r9, r0, r0, asr #29
 920:	00000020 	andeq	r0, r0, r0, lsr #32
 924:	0000000c 	andeq	r0, r0, ip
 928:	ffffffff 			; <UNDEFINED> instruction: 0xffffffff
 92c:	7c020001 	stcvc	0, cr0, [r2], {1}
 930:	000d0c0e 	andeq	r0, sp, lr, lsl #24
 934:	0000000c 	andeq	r0, r0, ip
 938:	00000924 	andeq	r0, r0, r4, lsr #18
 93c:	00009ee0 	andeq	r9, r0, r0, ror #29
 940:	0000002c 	andeq	r0, r0, ip, lsr #32
 944:	0000000c 	andeq	r0, r0, ip
 948:	ffffffff 			; <UNDEFINED> instruction: 0xffffffff
 94c:	7c020001 	stcvc	0, cr0, [r2], {1}
 950:	000d0c0e 	andeq	r0, sp, lr, lsl #24
 954:	0000000c 	andeq	r0, r0, ip
 958:	00000944 	andeq	r0, r0, r4, asr #18
 95c:	00009f0c 	andeq	r9, r0, ip, lsl #30
 960:	00000004 	andeq	r0, r0, r4
 964:	0000000c 	andeq	r0, r0, ip
 968:	ffffffff 			; <UNDEFINED> instruction: 0xffffffff
 96c:	7c020001 	stcvc	0, cr0, [r2], {1}
 970:	000d0c0e 	andeq	r0, sp, lr, lsl #24
 974:	00000018 	andeq	r0, r0, r8, lsl r0
 978:	00000964 	andeq	r0, r0, r4, ror #18
 97c:	00009f28 	andeq	r9, r0, r8, lsr #30
 980:	00000064 	andeq	r0, r0, r4, rrx
 984:	84100e46 	ldrhi	r0, [r0], #-3654	; 0xfffff1ba
 988:	86038504 	strhi	r8, [r3], -r4, lsl #10
 98c:	00018e02 	andeq	r8, r1, r2, lsl #28
 990:	00000014 	andeq	r0, r0, r4, lsl r0
 994:	00000964 	andeq	r0, r0, r4, ror #18
 998:	00009f8c 	andeq	r9, r0, ip, lsl #31
 99c:	00000010 	andeq	r0, r0, r0, lsl r0
 9a0:	84080e42 	strhi	r0, [r8], #-3650	; 0xfffff1be
 9a4:	00018e02 	andeq	r8, r1, r2, lsl #28
 9a8:	00000014 	andeq	r0, r0, r4, lsl r0
 9ac:	00000964 	andeq	r0, r0, r4, ror #18
 9b0:	00009f9c 	muleq	r0, ip, pc	; <UNPREDICTABLE>
 9b4:	00000024 	andeq	r0, r0, r4, lsr #32
 9b8:	84080e46 	strhi	r0, [r8], #-3654	; 0xfffff1ba
 9bc:	00018e02 	andeq	r8, r1, r2, lsl #28
 9c0:	00000014 	andeq	r0, r0, r4, lsl r0
 9c4:	00000964 	andeq	r0, r0, r4, ror #18
 9c8:	00009fc0 	andeq	r9, r0, r0, asr #31
 9cc:	00000024 	andeq	r0, r0, r4, lsr #32
 9d0:	84080e46 	strhi	r0, [r8], #-3654	; 0xfffff1ba
 9d4:	00018e02 	andeq	r8, r1, r2, lsl #28
 9d8:	00000014 	andeq	r0, r0, r4, lsl r0
 9dc:	00000964 	andeq	r0, r0, r4, ror #18
 9e0:	00009fe4 	andeq	r9, r0, r4, ror #31
 9e4:	00000010 	andeq	r0, r0, r0, lsl r0
 9e8:	84080e42 	strhi	r0, [r8], #-3650	; 0xfffff1be
 9ec:	00018e02 	andeq	r8, r1, r2, lsl #28
 9f0:	00000014 	andeq	r0, r0, r4, lsl r0
 9f4:	00000964 	andeq	r0, r0, r4, ror #18
 9f8:	00009ff4 	strdeq	r9, [r0], -r4
 9fc:	0000001c 	andeq	r0, r0, ip, lsl r0
 a00:	84080e42 	strhi	r0, [r8], #-3650	; 0xfffff1be
 a04:	00018e02 	andeq	r8, r1, r2, lsl #28
 a08:	00000018 	andeq	r0, r0, r8, lsl r0
 a0c:	00000964 	andeq	r0, r0, r4, ror #18
 a10:	0000a010 	andeq	sl, r0, r0, lsl r0
 a14:	00000034 	andeq	r0, r0, r4, lsr r0
 a18:	84080e46 	strhi	r0, [r8], #-3654	; 0xfffff1ba
 a1c:	4e018e02 	cdpmi	14, 0, cr8, cr1, cr2, {0}
 a20:	cec4000e 	cdpgt	0, 12, cr0, cr4, cr14, {0}

Disassembly of section .debug_ranges:

00000000 <.debug_ranges>:
   0:	00000010 	andeq	r0, r0, r0, lsl r0
   4:	00000028 	andeq	r0, r0, r8, lsr #32
   8:	00000040 	andeq	r0, r0, r0, asr #32
   c:	00000074 	andeq	r0, r0, r4, ror r0
	...
  18:	000001fc 	strdeq	r0, [r0], -ip
  1c:	00000224 	andeq	r0, r0, r4, lsr #4
  20:	00000228 	andeq	r0, r0, r8, lsr #4
  24:	0000022c 	andeq	r0, r0, ip, lsr #4
  28:	00000234 	andeq	r0, r0, r4, lsr r2
  2c:	00000238 	andeq	r0, r0, r8, lsr r2
	...
  38:	0000006c 	andeq	r0, r0, ip, rrx
  3c:	00000118 	andeq	r0, r0, r8, lsl r1
  40:	00000120 	andeq	r0, r0, r0, lsr #2
  44:	00000150 	andeq	r0, r0, r0, asr r1
	...
  50:	000002bc 			; <UNDEFINED> instruction: 0x000002bc
  54:	000002c0 	andeq	r0, r0, r0, asr #5
  58:	00000320 	andeq	r0, r0, r0, lsr #6
  5c:	000003a8 	andeq	r0, r0, r8, lsr #7
	...
  68:	00000320 	andeq	r0, r0, r0, lsr #6
  6c:	00000338 	andeq	r0, r0, r8, lsr r3
  70:	00000344 	andeq	r0, r0, r4, asr #6
  74:	000003a8 	andeq	r0, r0, r8, lsr #7
	...
  80:	00000320 	andeq	r0, r0, r0, lsr #6
  84:	00000338 	andeq	r0, r0, r8, lsr r3
  88:	00000364 	andeq	r0, r0, r4, ror #6
  8c:	000003a8 	andeq	r0, r0, r8, lsr #7
	...
  98:	00009780 	andeq	r9, r0, r0, lsl #15
  9c:	00009800 	andeq	r9, r0, r0, lsl #16
	...
  a8:	00000134 	andeq	r0, r0, r4, lsr r1
  ac:	00000134 	andeq	r0, r0, r4, lsr r1
  b0:	00000134 	andeq	r0, r0, r4, lsr r1
  b4:	0000013c 	andeq	r0, r0, ip, lsr r1
	...
  c0:	0000024c 	andeq	r0, r0, ip, asr #4
  c4:	00000264 	andeq	r0, r0, r4, ror #4
  c8:	000002c8 	andeq	r0, r0, r8, asr #5
  cc:	000002e8 	andeq	r0, r0, r8, ror #5
	...
  d8:	00009ee0 	andeq	r9, r0, r0, ror #29
  dc:	00009f0c 	andeq	r9, r0, ip, lsl #30
	...
