
scope.elf:     file format elf32-littlearm


Disassembly of section .text:

00008000 <__code_start__>:
    8000:	e3a00013 	mov	r0, #19, 0
    8004:	e3800080 	orr	r0, r0, #128, 0	; 0x80
    8008:	e129f000 	msr	CPSR_fc, r0
    800c:	e3a01000 	mov	r1, #0, 0
    8010:	ee071f95 	mcr	15, 0, r1, cr7, cr5, {4}
    8014:	e3a0d302 	mov	sp, #134217728	; 0x8000000
    8018:	e3a0b000 	mov	fp, #0, 0
    801c:	eb00028c 	bl	8a54 <_cstart>
    8020:	eb0002a6 	bl	8ac0 <rpi_reboot>

00008024 <PUT32>:
    8024:	e5801000 	str	r1, [r0]
    8028:	e12fff1e 	bx	lr

0000802c <GET32>:
    802c:	e5900000 	ldr	r0, [r0]
    8030:	e12fff1e 	bx	lr

00008034 <BRANCHTO>:
    8034:	e12fff10 	bx	r0

00008038 <sec_to_cycle>:
    8038:	e3500001 	cmp	r0, #1, 0
    803c:	8a000002 	bhi	804c <sec_to_cycle+0x14>
    8040:	e59f302c 	ldr	r3, [pc, #44]	; 8074 <sec_to_cycle+0x3c>
    8044:	e0000093 	mul	r0, r3, r0
    8048:	e12fff1e 	bx	lr
    804c:	e52de004 	push	{lr}		; (str lr, [sp, #-4]!)
    8050:	e24dd00c 	sub	sp, sp, #12, 0
    8054:	e59f301c 	ldr	r3, [pc, #28]	; 8078 <sec_to_cycle+0x40>
    8058:	e58d3000 	str	r3, [sp]
    805c:	e3a0300c 	mov	r3, #12, 0
    8060:	e59f2014 	ldr	r2, [pc, #20]	; 807c <sec_to_cycle+0x44>
    8064:	e59f1014 	ldr	r1, [pc, #20]	; 8080 <sec_to_cycle+0x48>
    8068:	e59f0014 	ldr	r0, [pc, #20]	; 8084 <sec_to_cycle+0x4c>
    806c:	eb00006c 	bl	8224 <printk>
    8070:	eb00026c 	bl	8a28 <clean_reboot>
    8074:	29b92700 	ldmibcs	r9!, {r8, r9, sl, sp}
    8078:	00008fc4 	andeq	r8, r0, r4, asr #31
    807c:	00009030 	andeq	r9, r0, r0, lsr r0
    8080:	00008fa8 	andeq	r8, r0, r8, lsr #31
    8084:	00008fb0 			; <UNDEFINED> instruction: 0x00008fb0

00008088 <scope>:
    8088:	e92d41f0 	push	{r4, r5, r6, r7, r8, lr}
    808c:	e1a04000 	mov	r4, r0
    8090:	e1a07001 	mov	r7, r1
    8094:	e1a05002 	mov	r5, r2
    8098:	e1a06003 	mov	r6, r3
    809c:	eb0002f7 	bl	8c80 <gpio_read>
    80a0:	e59f3084 	ldr	r3, [pc, #132]	; 812c <scope+0xa4>
    80a4:	e593c034 	ldr	ip, [r3, #52]	; 0x34
    80a8:	e1a0c43c 	lsr	ip, ip, r4
    80ac:	e20cc001 	and	ip, ip, #1, 0
    80b0:	e150000c 	cmp	r0, ip
    80b4:	0afffff9 	beq	80a0 <scope+0x18>
    80b8:	ee1f1f3c 	mrc	15, 0, r1, cr15, cr12, {1}
    80bc:	e3a08000 	mov	r8, #0, 0
    80c0:	ea000003 	b	80d4 <scope+0x4c>
    80c4:	ee1f3f3c 	mrc	15, 0, r3, cr15, cr12, {1}
    80c8:	e0433001 	sub	r3, r3, r1
    80cc:	e1530006 	cmp	r3, r6
    80d0:	8a00000f 	bhi	8114 <scope+0x8c>
    80d4:	e1580005 	cmp	r8, r5
    80d8:	2a000011 	bcs	8124 <scope+0x9c>
    80dc:	e59f3048 	ldr	r3, [pc, #72]	; 812c <scope+0xa4>
    80e0:	e593c034 	ldr	ip, [r3, #52]	; 0x34
    80e4:	e1a0c43c 	lsr	ip, ip, r4
    80e8:	e20cc001 	and	ip, ip, #1, 0
    80ec:	e150000c 	cmp	r0, ip
    80f0:	1afffff3 	bne	80c4 <scope+0x3c>
    80f4:	ee1f3f3c 	mrc	15, 0, r3, cr15, cr12, {1}
    80f8:	e0872188 	add	r2, r7, r8, lsl #3
    80fc:	e787c188 	str	ip, [r7, r8, lsl #3]
    8100:	e0433001 	sub	r3, r3, r1
    8104:	e5823004 	str	r3, [r2, #4]
    8108:	e2600001 	rsb	r0, r0, #1, 0
    810c:	e2888001 	add	r8, r8, #1, 0
    8110:	eaffffeb 	b	80c4 <scope+0x3c>
    8114:	e3a03000 	mov	r3, #0, 0
    8118:	e1a02001 	mov	r2, r1
    811c:	e59f000c 	ldr	r0, [pc, #12]	; 8130 <scope+0xa8>
    8120:	eb00003f 	bl	8224 <printk>
    8124:	e1a00008 	mov	r0, r8
    8128:	e8bd81f0 	pop	{r4, r5, r6, r7, r8, pc}
    812c:	20200000 	eorcs	r0, r0, r0
    8130:	00008fcc 	andeq	r8, r0, ip, asr #31

00008134 <notmain>:
    8134:	e92d41f0 	push	{r4, r5, r6, r7, r8, lr}
    8138:	e24dde11 	sub	sp, sp, #272	; 0x110
    813c:	e3a00015 	mov	r0, #21, 0
    8140:	eb0002c3 	bl	8c54 <gpio_set_input>
    8144:	eb000229 	bl	89f0 <flush_all_caches>
    8148:	eb00022e 	bl	8a08 <enable_cache>
    814c:	e3a03001 	mov	r3, #1, 0
    8150:	ee0f3f1c 	mcr	15, 0, r3, cr15, cr12, {0}
    8154:	e59f10bc 	ldr	r1, [pc, #188]	; 8218 <notmain+0xe4>
    8158:	e59f00bc 	ldr	r0, [pc, #188]	; 821c <notmain+0xe8>
    815c:	eb000030 	bl	8224 <printk>
    8160:	e3a08000 	mov	r8, #0, 0
    8164:	ea00001c 	b	81dc <notmain+0xa8>
    8168:	e04e2004 	sub	r2, lr, r4
    816c:	e0866002 	add	r6, r6, r2
    8170:	e58d600c 	str	r6, [sp, #12]
    8174:	e58d2008 	str	r2, [sp, #8]
    8178:	e58de004 	str	lr, [sp, #4]
    817c:	e58d4000 	str	r4, [sp]
    8180:	e790200c 	ldr	r2, [r0, ip]
    8184:	e59f0094 	ldr	r0, [pc, #148]	; 8220 <notmain+0xec>
    8188:	eb000025 	bl	8224 <printk>
    818c:	e1a01005 	mov	r1, r5
    8190:	e1a03004 	mov	r3, r4
    8194:	e2472001 	sub	r2, r7, #1, 0
    8198:	e1510002 	cmp	r1, r2
    819c:	2a00000d 	bcs	81d8 <notmain+0xa4>
    81a0:	e1a0c181 	lsl	ip, r1, #3
    81a4:	e28d0010 	add	r0, sp, #16, 0
    81a8:	e0802181 	add	r2, r0, r1, lsl #3
    81ac:	e5924004 	ldr	r4, [r2, #4]
    81b0:	e0443003 	sub	r3, r4, r3
    81b4:	e2815001 	add	r5, r1, #1, 0
    81b8:	e0852105 	add	r2, r5, r5, lsl #2
    81bc:	e0822102 	add	r2, r2, r2, lsl #2
    81c0:	e0622202 	rsb	r2, r2, r2, lsl #4
    81c4:	e1a0e202 	lsl	lr, r2, #4
    81c8:	e1540202 	cmp	r4, r2, lsl #4
    81cc:	9affffe5 	bls	8168 <notmain+0x34>
    81d0:	e044200e 	sub	r2, r4, lr
    81d4:	eaffffe4 	b	816c <notmain+0x38>
    81d8:	e2888001 	add	r8, r8, #1, 0
    81dc:	e3580003 	cmp	r8, #3, 0
    81e0:	ca00000b 	bgt	8214 <notmain+0xe0>
    81e4:	e3a00001 	mov	r0, #1, 0
    81e8:	ebffff92 	bl	8038 <sec_to_cycle>
    81ec:	e1a03000 	mov	r3, r0
    81f0:	e3a02020 	mov	r2, #32, 0
    81f4:	e28d1010 	add	r1, sp, #16, 0
    81f8:	e3a00015 	mov	r0, #21, 0
    81fc:	ebffffa1 	bl	8088 <scope>
    8200:	e1a07000 	mov	r7, r0
    8204:	e3a01000 	mov	r1, #0, 0
    8208:	e1a03001 	mov	r3, r1
    820c:	e1a06001 	mov	r6, r1
    8210:	eaffffdf 	b	8194 <notmain+0x60>
    8214:	eb000203 	bl	8a28 <clean_reboot>
    8218:	00009040 	andeq	r9, r0, r0, asr #32
    821c:	00008ff0 	strdeq	r8, [r0], -r0
    8220:	00008ff4 	strdeq	r8, [r0], -r4

00008224 <printk>:
    8224:	e92d000f 	push	{r0, r1, r2, r3}
    8228:	e92d4030 	push	{r4, r5, lr}
    822c:	e24dd00c 	sub	sp, sp, #12, 0
    8230:	e28d301c 	add	r3, sp, #28, 0
    8234:	e58d3004 	str	r3, [sp, #4]
    8238:	e59f5034 	ldr	r5, [pc, #52]	; 8274 <printk+0x50>
    823c:	e59d2018 	ldr	r2, [sp, #24]
    8240:	e3a01b01 	mov	r1, #1024	; 0x400
    8244:	e1a00005 	mov	r0, r5
    8248:	eb0000ba 	bl	8538 <va_printk>
    824c:	e1a04000 	mov	r4, r0
    8250:	e59f3020 	ldr	r3, [pc, #32]	; 8278 <printk+0x54>
    8254:	e5933000 	ldr	r3, [r3]
    8258:	e1a00005 	mov	r0, r5
    825c:	e12fff33 	blx	r3
    8260:	e1a00004 	mov	r0, r4
    8264:	e28dd00c 	add	sp, sp, #12, 0
    8268:	e8bd4030 	pop	{r4, r5, lr}
    826c:	e28dd010 	add	sp, sp, #16, 0
    8270:	e12fff1e 	bx	lr
    8274:	000091d0 	ldrdeq	r9, [r0], -r0
    8278:	000091c8 	andeq	r9, r0, r8, asr #3

0000827c <internal_putk>:
    827c:	e92d4010 	push	{r4, lr}
    8280:	e1a04000 	mov	r4, r0
    8284:	e5d40000 	ldrb	r0, [r4]
    8288:	e3500000 	cmp	r0, #0, 0
    828c:	0a000004 	beq	82a4 <internal_putk+0x28>
    8290:	e59f3014 	ldr	r3, [pc, #20]	; 82ac <internal_putk+0x30>
    8294:	e5933000 	ldr	r3, [r3]
    8298:	e12fff33 	blx	r3
    829c:	e2844001 	add	r4, r4, #1, 0
    82a0:	eafffff7 	b	8284 <internal_putk+0x8>
    82a4:	e3a00001 	mov	r0, #1, 0
    82a8:	e8bd8010 	pop	{r4, pc}
    82ac:	000091cc 	andeq	r9, r0, ip, asr #3

000082b0 <isdigit>:
    82b0:	e2400030 	sub	r0, r0, #48, 0	; 0x30
    82b4:	e3500009 	cmp	r0, #9, 0
    82b8:	83a00000 	movhi	r0, #0, 0
    82bc:	93a00001 	movls	r0, #1, 0
    82c0:	e12fff1e 	bx	lr

000082c4 <pad>:
    82c4:	e0401001 	sub	r1, r0, r1
    82c8:	e1510002 	cmp	r1, r2
    82cc:	b3a03020 	movlt	r3, #32, 0
    82d0:	b4c03001 	strblt	r3, [r0], #1
    82d4:	b2811001 	addlt	r1, r1, #1, 0
    82d8:	bafffffa 	blt	82c8 <pad+0x4>
    82dc:	e3a03000 	mov	r3, #0, 0
    82e0:	e5c03000 	strb	r3, [r0]
    82e4:	e12fff1e 	bx	lr

000082e8 <reverse>:
    82e8:	e042c003 	sub	ip, r2, r3
    82ec:	e28cc001 	add	ip, ip, #1, 0
    82f0:	e15c0001 	cmp	ip, r1
    82f4:	c04cc001 	subgt	ip, ip, r1
    82f8:	c083300c 	addgt	r3, r3, ip
    82fc:	e2421001 	sub	r1, r2, #1, 0
    8300:	e1a02000 	mov	r2, r0
    8304:	e1510003 	cmp	r1, r3
    8308:	2451c001 	ldrbcs	ip, [r1], #-1
    830c:	24c2c001 	strbcs	ip, [r2], #1
    8310:	2afffffb 	bcs	8304 <reverse+0x1c>
    8314:	e3a03000 	mov	r3, #0, 0
    8318:	e5c23000 	strb	r3, [r2]
    831c:	e12fff1e 	bx	lr

00008320 <emit>:
    8320:	e92d40f0 	push	{r4, r5, r6, r7, lr}
    8324:	e24dd04c 	sub	sp, sp, #76, 0	; 0x4c
    8328:	e1a05001 	mov	r5, r1
    832c:	e1a04002 	mov	r4, r2
    8330:	e59d2060 	ldr	r2, [sp, #96]	; 0x60
    8334:	e1520004 	cmp	r2, r4
    8338:	c2442001 	subgt	r2, r4, #1, 0
    833c:	e1a0c003 	mov	ip, r3
    8340:	e2400002 	sub	r0, r0, #2, 0
    8344:	e350000e 	cmp	r0, #14, 0
    8348:	979ff100 	ldrls	pc, [pc, r0, lsl #2]
    834c:	ea000050 	b	8494 <emit+0x174>
    8350:	0000846c 	andeq	r8, r0, ip, ror #8
    8354:	00008494 	muleq	r0, r4, r4
    8358:	00008494 	muleq	r0, r4, r4
    835c:	00008494 	muleq	r0, r4, r4
    8360:	00008494 	muleq	r0, r4, r4
    8364:	00008494 	muleq	r0, r4, r4
    8368:	00008460 	andeq	r8, r0, r0, ror #8
    836c:	00008494 	muleq	r0, r4, r4
    8370:	0000838c 	andeq	r8, r0, ip, lsl #7
    8374:	00008494 	muleq	r0, r4, r4
    8378:	00008494 	muleq	r0, r4, r4
    837c:	00008494 	muleq	r0, r4, r4
    8380:	00008494 	muleq	r0, r4, r4
    8384:	00008494 	muleq	r0, r4, r4
    8388:	00008404 	andeq	r8, r0, r4, lsl #8
    838c:	e59d1064 	ldr	r1, [sp, #100]	; 0x64
    8390:	e2511000 	subs	r1, r1, #0, 0
    8394:	13a01001 	movne	r1, #1, 0
    8398:	e0111fa3 	ands	r1, r1, r3, lsr #31
    839c:	0a000016 	beq	83fc <emit+0xdc>
    83a0:	e263c000 	rsb	ip, r3, #0, 0
    83a4:	e3a06001 	mov	r6, #1, 0
    83a8:	e28d0008 	add	r0, sp, #8, 0
    83ac:	e59f3100 	ldr	r3, [pc, #256]	; 84b4 <emit+0x194>
    83b0:	e0831c93 	umull	r1, r3, r3, ip
    83b4:	e1a031a3 	lsr	r3, r3, #3
    83b8:	e1a0e003 	mov	lr, r3
    83bc:	e0833103 	add	r3, r3, r3, lsl #2
    83c0:	e04c3083 	sub	r3, ip, r3, lsl #1
    83c4:	e1a01000 	mov	r1, r0
    83c8:	e2800001 	add	r0, r0, #1, 0
    83cc:	e59f70e4 	ldr	r7, [pc, #228]	; 84b8 <emit+0x198>
    83d0:	e7d73003 	ldrb	r3, [r7, r3]
    83d4:	e5c13000 	strb	r3, [r1]
    83d8:	e1a0300c 	mov	r3, ip
    83dc:	e1a0c00e 	mov	ip, lr
    83e0:	e3530009 	cmp	r3, #9, 0
    83e4:	8afffff0 	bhi	83ac <emit+0x8c>
    83e8:	e3560000 	cmp	r6, #0, 0
    83ec:	13a0302d 	movne	r3, #45, 0	; 0x2d
    83f0:	15c03000 	strbne	r3, [r0]
    83f4:	12810002 	addne	r0, r1, #2, 0
    83f8:	ea00000f 	b	843c <emit+0x11c>
    83fc:	e3a06000 	mov	r6, #0, 0
    8400:	eaffffe8 	b	83a8 <emit+0x88>
    8404:	e28d1008 	add	r1, sp, #8, 0
    8408:	e20c000f 	and	r0, ip, #15, 0
    840c:	e59fe0a8 	ldr	lr, [pc, #168]	; 84bc <emit+0x19c>
    8410:	e7de0000 	ldrb	r0, [lr, r0]
    8414:	e5c10000 	strb	r0, [r1]
    8418:	e2811001 	add	r1, r1, #1, 0
    841c:	e35c000f 	cmp	ip, #15, 0
    8420:	e1a0c22c 	lsr	ip, ip, #4
    8424:	8afffff7 	bhi	8408 <emit+0xe8>
    8428:	e1a00001 	mov	r0, r1
    842c:	e3a03078 	mov	r3, #120, 0	; 0x78
    8430:	e4c03002 	strb	r3, [r0], #2
    8434:	e3a03030 	mov	r3, #48, 0	; 0x30
    8438:	e5c13001 	strb	r3, [r1, #1]
    843c:	e28d1008 	add	r1, sp, #8, 0
    8440:	ebffff9f 	bl	82c4 <pad>
    8444:	e1a02000 	mov	r2, r0
    8448:	e28d3008 	add	r3, sp, #8, 0
    844c:	e1a01004 	mov	r1, r4
    8450:	e1a00005 	mov	r0, r5
    8454:	ebffffa3 	bl	82e8 <reverse>
    8458:	e28dd04c 	add	sp, sp, #76, 0	; 0x4c
    845c:	e8bd80f0 	pop	{r4, r5, r6, r7, pc}
    8460:	e5cd3008 	strb	r3, [sp, #8]
    8464:	e28d0009 	add	r0, sp, #9, 0
    8468:	eafffff3 	b	843c <emit+0x11c>
    846c:	e28d0008 	add	r0, sp, #8, 0
    8470:	e20c1001 	and	r1, ip, #1, 0
    8474:	e59fe044 	ldr	lr, [pc, #68]	; 84c0 <emit+0x1a0>
    8478:	e7de1001 	ldrb	r1, [lr, r1]
    847c:	e5c01000 	strb	r1, [r0]
    8480:	e2800001 	add	r0, r0, #1, 0
    8484:	e35c0001 	cmp	ip, #1, 0
    8488:	e1a0c0ac 	lsr	ip, ip, #1
    848c:	8afffff7 	bhi	8470 <emit+0x150>
    8490:	eaffffe9 	b	843c <emit+0x11c>
    8494:	e59f3028 	ldr	r3, [pc, #40]	; 84c4 <emit+0x1a4>
    8498:	e58d3000 	str	r3, [sp]
    849c:	e3a03079 	mov	r3, #121, 0	; 0x79
    84a0:	e59f2020 	ldr	r2, [pc, #32]	; 84c8 <emit+0x1a8>
    84a4:	e59f1020 	ldr	r1, [pc, #32]	; 84cc <emit+0x1ac>
    84a8:	e59f0020 	ldr	r0, [pc, #32]	; 84d0 <emit+0x1b0>
    84ac:	ebffff5c 	bl	8224 <printk>
    84b0:	eb00015c 	bl	8a28 <clean_reboot>
    84b4:	cccccccd 	stclgt	12, cr12, [ip], {205}	; 0xcd
    84b8:	0000906c 	andeq	r9, r0, ip, rrx
    84bc:	00009078 	andeq	r9, r0, r8, ror r0
    84c0:	0000908c 	andeq	r9, r0, ip, lsl #1
    84c4:	00009068 	andeq	r9, r0, r8, rrx
    84c8:	00009198 	muleq	r0, r8, r1
    84cc:	00009054 	andeq	r9, r0, r4, asr r0
    84d0:	00008fb0 			; <UNDEFINED> instruction: 0x00008fb0

000084d4 <rpi_set_output>:
    84d4:	e3500000 	cmp	r0, #0, 0
    84d8:	0a000006 	beq	84f8 <rpi_set_output+0x24>
    84dc:	e59f303c 	ldr	r3, [pc, #60]	; 8520 <rpi_set_output+0x4c>
    84e0:	e5830000 	str	r0, [r3]
    84e4:	e3510000 	cmp	r1, #0, 0
    84e8:	012fff1e 	bxeq	lr
    84ec:	e59f3030 	ldr	r3, [pc, #48]	; 8524 <rpi_set_output+0x50>
    84f0:	e5831000 	str	r1, [r3]
    84f4:	e12fff1e 	bx	lr
    84f8:	e52de004 	push	{lr}		; (str lr, [sp, #-4]!)
    84fc:	e24dd00c 	sub	sp, sp, #12, 0
    8500:	e59f3020 	ldr	r3, [pc, #32]	; 8528 <rpi_set_output+0x54>
    8504:	e58d3000 	str	r3, [sp]
    8508:	e3a03020 	mov	r3, #32, 0
    850c:	e59f2018 	ldr	r2, [pc, #24]	; 852c <rpi_set_output+0x58>
    8510:	e59f1018 	ldr	r1, [pc, #24]	; 8530 <rpi_set_output+0x5c>
    8514:	e59f0018 	ldr	r0, [pc, #24]	; 8534 <rpi_set_output+0x60>
    8518:	ebffff41 	bl	8224 <printk>
    851c:	eb000141 	bl	8a28 <clean_reboot>
    8520:	000091cc 	andeq	r9, r0, ip, asr #3
    8524:	000091c8 	andeq	r9, r0, r8, asr #3
    8528:	00009090 	muleq	r0, r0, r0
    852c:	000091a0 	andeq	r9, r0, r0, lsr #3
    8530:	00009054 	andeq	r9, r0, r4, asr r0
    8534:	00008fb0 			; <UNDEFINED> instruction: 0x00008fb0

00008538 <va_printk>:
    8538:	e92d4ff0 	push	{r4, r5, r6, r7, r8, r9, sl, fp, lr}
    853c:	e24ddf45 	sub	sp, sp, #276	; 0x114
    8540:	e1a09000 	mov	r9, r0
    8544:	e58d2008 	str	r2, [sp, #8]
    8548:	e58d300c 	str	r3, [sp, #12]
    854c:	e2411001 	sub	r1, r1, #1, 0
    8550:	e0808001 	add	r8, r0, r1
    8554:	e3a03000 	mov	r3, #0, 0
    8558:	e5c03000 	strb	r3, [r0]
    855c:	e1a04000 	mov	r4, r0
    8560:	e1a06002 	mov	r6, r2
    8564:	ea000001 	b	8570 <va_printk+0x38>
    8568:	e2866001 	add	r6, r6, #1, 0
    856c:	e4c43001 	strb	r3, [r4], #1
    8570:	e5d63000 	ldrb	r3, [r6]
    8574:	e3530000 	cmp	r3, #0, 0
    8578:	0a000108 	beq	89a0 <va_printk+0x468>
    857c:	e1540008 	cmp	r4, r8
    8580:	2a000106 	bcs	89a0 <va_printk+0x468>
    8584:	e3530025 	cmp	r3, #37, 0	; 0x25
    8588:	1afffff6 	bne	8568 <va_printk+0x30>
    858c:	e5d62001 	ldrb	r2, [r6, #1]
    8590:	e3520025 	cmp	r2, #37, 0	; 0x25
    8594:	04c43001 	strbeq	r3, [r4], #1
    8598:	02866002 	addeq	r6, r6, #2, 0
    859c:	0afffff3 	beq	8570 <va_printk+0x38>
    85a0:	e2866001 	add	r6, r6, #1, 0
    85a4:	e3a05000 	mov	r5, #0, 0
    85a8:	e5d67000 	ldrb	r7, [r6]
    85ac:	e1a0a007 	mov	sl, r7
    85b0:	e1a00007 	mov	r0, r7
    85b4:	ebffff3d 	bl	82b0 <isdigit>
    85b8:	e3500000 	cmp	r0, #0, 0
    85bc:	0a000004 	beq	85d4 <va_printk+0x9c>
    85c0:	e0855105 	add	r5, r5, r5, lsl #2
    85c4:	e0875085 	add	r5, r7, r5, lsl #1
    85c8:	e2455030 	sub	r5, r5, #48, 0	; 0x30
    85cc:	e2866001 	add	r6, r6, #1, 0
    85d0:	eafffff4 	b	85a8 <va_printk+0x70>
    85d4:	e355001f 	cmp	r5, #31, 0
    85d8:	8a00001a 	bhi	8648 <va_printk+0x110>
    85dc:	e2477062 	sub	r7, r7, #98, 0	; 0x62
    85e0:	e3570016 	cmp	r7, #22, 0
    85e4:	979ff107 	ldrls	pc, [pc, r7, lsl #2]
    85e8:	ea0000d4 	b	8940 <va_printk+0x408>
    85ec:	000088c4 	andeq	r8, r0, r4, asr #17
    85f0:	0000890c 	andeq	r8, r0, ip, lsl #18
    85f4:	00008824 	andeq	r8, r0, r4, lsr #16
    85f8:	00008940 	andeq	r8, r0, r0, asr #18
    85fc:	0000880c 	andeq	r8, r0, ip, lsl #16
    8600:	00008940 	andeq	r8, r0, r0, asr #18
    8604:	00008940 	andeq	r8, r0, r0, asr #18
    8608:	00008940 	andeq	r8, r0, r0, asr #18
    860c:	00008940 	andeq	r8, r0, r0, asr #18
    8610:	00008940 	andeq	r8, r0, r0, asr #18
    8614:	00008668 	andeq	r8, r0, r8, ror #12
    8618:	00008940 	andeq	r8, r0, r0, asr #18
    861c:	00008940 	andeq	r8, r0, r0, asr #18
    8620:	00008940 	andeq	r8, r0, r0, asr #18
    8624:	00008890 	muleq	r0, r0, r8
    8628:	00008940 	andeq	r8, r0, r0, asr #18
    862c:	00008940 	andeq	r8, r0, r0, asr #18
    8630:	000088f8 	strdeq	r8, [r0], -r8	; <UNPREDICTABLE>
    8634:	00008940 	andeq	r8, r0, r0, asr #18
    8638:	0000885c 	andeq	r8, r0, ip, asr r8
    863c:	00008940 	andeq	r8, r0, r0, asr #18
    8640:	00008940 	andeq	r8, r0, r0, asr #18
    8644:	00008890 	muleq	r0, r0, r8
    8648:	e59f3364 	ldr	r3, [pc, #868]	; 89b4 <va_printk+0x47c>
    864c:	e58d3000 	str	r3, [sp]
    8650:	e3a03098 	mov	r3, #152, 0	; 0x98
    8654:	e59f235c 	ldr	r2, [pc, #860]	; 89b8 <va_printk+0x480>
    8658:	e59f135c 	ldr	r1, [pc, #860]	; 89bc <va_printk+0x484>
    865c:	e59f035c 	ldr	r0, [pc, #860]	; 89c0 <va_printk+0x488>
    8660:	ebfffeef 	bl	8224 <printk>
    8664:	eb0000ef 	bl	8a28 <clean_reboot>
    8668:	e3a02003 	mov	r2, #3, 0
    866c:	e59f1350 	ldr	r1, [pc, #848]	; 89c4 <va_printk+0x48c>
    8670:	e1a00006 	mov	r0, r6
    8674:	eb000239 	bl	8f60 <strncmp>
    8678:	e3500000 	cmp	r0, #0, 0
    867c:	0a000005 	beq	8698 <va_printk+0x160>
    8680:	e3a02003 	mov	r2, #3, 0
    8684:	e59f133c 	ldr	r1, [pc, #828]	; 89c8 <va_printk+0x490>
    8688:	e1a00006 	mov	r0, r6
    868c:	eb000233 	bl	8f60 <strncmp>
    8690:	e3500000 	cmp	r0, #0, 0
    8694:	1a000033 	bne	8768 <va_printk+0x230>
    8698:	e286b002 	add	fp, r6, #2, 0
    869c:	e59d300c 	ldr	r3, [sp, #12]
    86a0:	e2833007 	add	r3, r3, #7, 0
    86a4:	e3c33007 	bic	r3, r3, #7, 0
    86a8:	e2832008 	add	r2, r3, #8, 0
    86ac:	e58d200c 	str	r2, [sp, #12]
    86b0:	e593a000 	ldr	sl, [r3]
    86b4:	e5937004 	ldr	r7, [r3, #4]
    86b8:	e1a01007 	mov	r1, r7
    86bc:	e59f0308 	ldr	r0, [pc, #776]	; 89cc <va_printk+0x494>
    86c0:	ebfffed7 	bl	8224 <printk>
    86c4:	e1a0100a 	mov	r1, sl
    86c8:	e59f0300 	ldr	r0, [pc, #768]	; 89d0 <va_printk+0x498>
    86cc:	ebfffed4 	bl	8224 <printk>
    86d0:	e3a02003 	mov	r2, #3, 0
    86d4:	e59f12e8 	ldr	r1, [pc, #744]	; 89c4 <va_printk+0x48c>
    86d8:	e1a00006 	mov	r0, r6
    86dc:	eb00021f 	bl	8f60 <strncmp>
    86e0:	e3500000 	cmp	r0, #0, 0
    86e4:	0a000027 	beq	8788 <va_printk+0x250>
    86e8:	e3a02003 	mov	r2, #3, 0
    86ec:	e59f12d4 	ldr	r1, [pc, #724]	; 89c8 <va_printk+0x490>
    86f0:	e1a00006 	mov	r0, r6
    86f4:	eb000219 	bl	8f60 <strncmp>
    86f8:	e3500000 	cmp	r0, #0, 0
    86fc:	1a00003b 	bne	87f0 <va_printk+0x2b8>
    8700:	e3a06000 	mov	r6, #0, 0
    8704:	e58d6004 	str	r6, [sp, #4]
    8708:	e58d5000 	str	r5, [sp]
    870c:	e1a03007 	mov	r3, r7
    8710:	e3a02080 	mov	r2, #128, 0	; 0x80
    8714:	e28d1010 	add	r1, sp, #16, 0
    8718:	e3a0000a 	mov	r0, #10, 0
    871c:	ebfffeff 	bl	8320 <emit>
    8720:	e1a07000 	mov	r7, r0
    8724:	e58d6004 	str	r6, [sp, #4]
    8728:	e58d5000 	str	r5, [sp]
    872c:	e1a0300a 	mov	r3, sl
    8730:	e3a02080 	mov	r2, #128, 0	; 0x80
    8734:	e28d1090 	add	r1, sp, #144, 0	; 0x90
    8738:	e3a0000a 	mov	r0, #10, 0
    873c:	ebfffef7 	bl	8320 <emit>
    8740:	e59f128c 	ldr	r1, [pc, #652]	; 89d4 <va_printk+0x49c>
    8744:	e28d0010 	add	r0, sp, #16, 0
    8748:	eb0001f1 	bl	8f14 <strcmp>
    874c:	e1500006 	cmp	r0, r6
    8750:	1a000021 	bne	87dc <va_printk+0x2a4>
    8754:	e28d1090 	add	r1, sp, #144, 0	; 0x90
    8758:	e28d0010 	add	r0, sp, #16, 0
    875c:	eb0001f7 	bl	8f40 <strcpy>
    8760:	e1a0600b 	mov	r6, fp
    8764:	ea00003a 	b	8854 <va_printk+0x31c>
    8768:	e59f3268 	ldr	r3, [pc, #616]	; 89d8 <va_printk+0x4a0>
    876c:	e58d3000 	str	r3, [sp]
    8770:	e3a0309f 	mov	r3, #159, 0	; 0x9f
    8774:	e59f223c 	ldr	r2, [pc, #572]	; 89b8 <va_printk+0x480>
    8778:	e59f123c 	ldr	r1, [pc, #572]	; 89bc <va_printk+0x484>
    877c:	e59f023c 	ldr	r0, [pc, #572]	; 89c0 <va_printk+0x488>
    8780:	ebfffea7 	bl	8224 <printk>
    8784:	eb0000a7 	bl	8a28 <clean_reboot>
    8788:	e3a06000 	mov	r6, #0, 0
    878c:	e58d6004 	str	r6, [sp, #4]
    8790:	e58d5000 	str	r5, [sp]
    8794:	e1a03007 	mov	r3, r7
    8798:	e3a02080 	mov	r2, #128, 0	; 0x80
    879c:	e28d1010 	add	r1, sp, #16, 0
    87a0:	e3a00010 	mov	r0, #16, 0
    87a4:	ebfffedd 	bl	8320 <emit>
    87a8:	e1a07000 	mov	r7, r0
    87ac:	e58d6004 	str	r6, [sp, #4]
    87b0:	e58d5000 	str	r5, [sp]
    87b4:	e1a0300a 	mov	r3, sl
    87b8:	e3a02080 	mov	r2, #128, 0	; 0x80
    87bc:	e28d1090 	add	r1, sp, #144, 0	; 0x90
    87c0:	e3a00010 	mov	r0, #16, 0
    87c4:	ebfffed5 	bl	8320 <emit>
    87c8:	e28d1092 	add	r1, sp, #146, 0	; 0x92
    87cc:	e28d0010 	add	r0, sp, #16, 0
    87d0:	eb0001c2 	bl	8ee0 <strcat>
    87d4:	e1a0600b 	mov	r6, fp
    87d8:	ea00001d 	b	8854 <va_printk+0x31c>
    87dc:	e28d1090 	add	r1, sp, #144, 0	; 0x90
    87e0:	e28d0010 	add	r0, sp, #16, 0
    87e4:	eb0001bd 	bl	8ee0 <strcat>
    87e8:	e1a0600b 	mov	r6, fp
    87ec:	ea000018 	b	8854 <va_printk+0x31c>
    87f0:	e58d6000 	str	r6, [sp]
    87f4:	e3a030b6 	mov	r3, #182, 0	; 0xb6
    87f8:	e59f21b8 	ldr	r2, [pc, #440]	; 89b8 <va_printk+0x480>
    87fc:	e59f11b8 	ldr	r1, [pc, #440]	; 89bc <va_printk+0x484>
    8800:	e59f01d4 	ldr	r0, [pc, #468]	; 89dc <va_printk+0x4a4>
    8804:	ebfffe86 	bl	8224 <printk>
    8808:	eb000086 	bl	8a28 <clean_reboot>
    880c:	e3a030be 	mov	r3, #190, 0	; 0xbe
    8810:	e59f21a0 	ldr	r2, [pc, #416]	; 89b8 <va_printk+0x480>
    8814:	e59f11a0 	ldr	r1, [pc, #416]	; 89bc <va_printk+0x484>
    8818:	e59f01c0 	ldr	r0, [pc, #448]	; 89e0 <va_printk+0x4a8>
    881c:	ebfffe80 	bl	8224 <printk>
    8820:	eb000080 	bl	8a28 <clean_reboot>
    8824:	e59d300c 	ldr	r3, [sp, #12]
    8828:	e2832004 	add	r2, r3, #4, 0
    882c:	e58d200c 	str	r2, [sp, #12]
    8830:	e5933000 	ldr	r3, [r3]
    8834:	e3a02001 	mov	r2, #1, 0
    8838:	e58d2004 	str	r2, [sp, #4]
    883c:	e58d5000 	str	r5, [sp]
    8840:	e3a02080 	mov	r2, #128, 0	; 0x80
    8844:	e28d1010 	add	r1, sp, #16, 0
    8848:	e3a0000a 	mov	r0, #10, 0
    884c:	ebfffeb3 	bl	8320 <emit>
    8850:	e1a07000 	mov	r7, r0
    8854:	e2866001 	add	r6, r6, #1, 0
    8858:	ea00004a 	b	8988 <va_printk+0x450>
    885c:	e59d300c 	ldr	r3, [sp, #12]
    8860:	e2832004 	add	r2, r3, #4, 0
    8864:	e58d200c 	str	r2, [sp, #12]
    8868:	e5933000 	ldr	r3, [r3]
    886c:	e3a02000 	mov	r2, #0, 0
    8870:	e58d2004 	str	r2, [sp, #4]
    8874:	e58d5000 	str	r5, [sp]
    8878:	e3a02080 	mov	r2, #128, 0	; 0x80
    887c:	e28d1010 	add	r1, sp, #16, 0
    8880:	e3a0000a 	mov	r0, #10, 0
    8884:	ebfffea5 	bl	8320 <emit>
    8888:	e1a07000 	mov	r7, r0
    888c:	eafffff0 	b	8854 <va_printk+0x31c>
    8890:	e59d300c 	ldr	r3, [sp, #12]
    8894:	e2832004 	add	r2, r3, #4, 0
    8898:	e58d200c 	str	r2, [sp, #12]
    889c:	e5933000 	ldr	r3, [r3]
    88a0:	e3a02000 	mov	r2, #0, 0
    88a4:	e58d2004 	str	r2, [sp, #4]
    88a8:	e58d5000 	str	r5, [sp]
    88ac:	e3a02080 	mov	r2, #128, 0	; 0x80
    88b0:	e28d1010 	add	r1, sp, #16, 0
    88b4:	e3a00010 	mov	r0, #16, 0
    88b8:	ebfffe98 	bl	8320 <emit>
    88bc:	e1a07000 	mov	r7, r0
    88c0:	eaffffe3 	b	8854 <va_printk+0x31c>
    88c4:	e59d300c 	ldr	r3, [sp, #12]
    88c8:	e2832004 	add	r2, r3, #4, 0
    88cc:	e58d200c 	str	r2, [sp, #12]
    88d0:	e5933000 	ldr	r3, [r3]
    88d4:	e3a02000 	mov	r2, #0, 0
    88d8:	e58d2004 	str	r2, [sp, #4]
    88dc:	e58d5000 	str	r5, [sp]
    88e0:	e3a02080 	mov	r2, #128, 0	; 0x80
    88e4:	e28d1010 	add	r1, sp, #16, 0
    88e8:	e3a00002 	mov	r0, #2, 0
    88ec:	ebfffe8b 	bl	8320 <emit>
    88f0:	e1a07000 	mov	r7, r0
    88f4:	eaffffd6 	b	8854 <va_printk+0x31c>
    88f8:	e59d300c 	ldr	r3, [sp, #12]
    88fc:	e2832004 	add	r2, r3, #4, 0
    8900:	e58d200c 	str	r2, [sp, #12]
    8904:	e5937000 	ldr	r7, [r3]
    8908:	eaffffd1 	b	8854 <va_printk+0x31c>
    890c:	e59d300c 	ldr	r3, [sp, #12]
    8910:	e2832004 	add	r2, r3, #4, 0
    8914:	e58d200c 	str	r2, [sp, #12]
    8918:	e5933000 	ldr	r3, [r3]
    891c:	e3a02000 	mov	r2, #0, 0
    8920:	e58d2004 	str	r2, [sp, #4]
    8924:	e58d5000 	str	r5, [sp]
    8928:	e3a02080 	mov	r2, #128, 0	; 0x80
    892c:	e28d1010 	add	r1, sp, #16, 0
    8930:	e3a00008 	mov	r0, #8, 0
    8934:	ebfffe79 	bl	8320 <emit>
    8938:	e1a07000 	mov	r7, r0
    893c:	eaffffc4 	b	8854 <va_printk+0x31c>
    8940:	e3a03000 	mov	r3, #0, 0
    8944:	e5c63001 	strb	r3, [r6, #1]
    8948:	e1a0200a 	mov	r2, sl
    894c:	e1a0100a 	mov	r1, sl
    8950:	e59f008c 	ldr	r0, [pc, #140]	; 89e4 <va_printk+0x4ac>
    8954:	ebfffe32 	bl	8224 <printk>
    8958:	e59f3088 	ldr	r3, [pc, #136]	; 89e8 <va_printk+0x4b0>
    895c:	e5933000 	ldr	r3, [r3]
    8960:	e59d0008 	ldr	r0, [sp, #8]
    8964:	e12fff33 	blx	r3
    8968:	e3a030e2 	mov	r3, #226, 0	; 0xe2
    896c:	e59f2044 	ldr	r2, [pc, #68]	; 89b8 <va_printk+0x480>
    8970:	e59f1044 	ldr	r1, [pc, #68]	; 89bc <va_printk+0x484>
    8974:	e59f0070 	ldr	r0, [pc, #112]	; 89ec <va_printk+0x4b4>
    8978:	ebfffe29 	bl	8224 <printk>
    897c:	eb000029 	bl	8a28 <clean_reboot>
    8980:	e2877001 	add	r7, r7, #1, 0
    8984:	e4c43001 	strb	r3, [r4], #1
    8988:	e1540008 	cmp	r4, r8
    898c:	2afffef7 	bcs	8570 <va_printk+0x38>
    8990:	e5d73000 	ldrb	r3, [r7]
    8994:	e3530000 	cmp	r3, #0, 0
    8998:	1afffff8 	bne	8980 <va_printk+0x448>
    899c:	eafffef3 	b	8570 <va_printk+0x38>
    89a0:	e3a03000 	mov	r3, #0, 0
    89a4:	e4c43001 	strb	r3, [r4], #1
    89a8:	e0440009 	sub	r0, r4, r9
    89ac:	e28ddf45 	add	sp, sp, #276	; 0x114
    89b0:	e8bd8ff0 	pop	{r4, r5, r6, r7, r8, r9, sl, fp, pc}
    89b4:	00009098 	muleq	r0, r8, r0
    89b8:	000091b0 			; <UNDEFINED> instruction: 0x000091b0
    89bc:	00009054 	andeq	r9, r0, r4, asr r0
    89c0:	00008fb0 			; <UNDEFINED> instruction: 0x00008fb0
    89c4:	000090a4 	andeq	r9, r0, r4, lsr #1
    89c8:	000090a8 	andeq	r9, r0, r8, lsr #1
    89cc:	000090ac 	andeq	r9, r0, ip, lsr #1
    89d0:	000090b4 	strheq	r9, [r0], -r4
    89d4:	00009068 	andeq	r9, r0, r8, rrx
    89d8:	000090bc 	strheq	r9, [r0], -ip
    89dc:	000090f8 	strdeq	r9, [r0], -r8
    89e0:	00009120 	andeq	r9, r0, r0, lsr #2
    89e4:	00009148 	andeq	r9, r0, r8, asr #2
    89e8:	000091c8 	andeq	r9, r0, r8, asr #3
    89ec:	00009178 	andeq	r9, r0, r8, ror r1

000089f0 <flush_all_caches>:
    89f0:	e3a00000 	mov	r0, #0, 0
    89f4:	ee070f15 	mcr	15, 0, r0, cr7, cr5, {0}
    89f8:	ee070fd5 	mcr	15, 0, r0, cr7, cr5, {6}
    89fc:	ee070f9a 	mcr	15, 0, r0, cr7, cr10, {4}
    8a00:	ee070f95 	mcr	15, 0, r0, cr7, cr5, {4}
    8a04:	e12fff1e 	bx	lr

00008a08 <enable_cache>:
    8a08:	ee113f10 	mrc	15, 0, r3, cr1, cr0, {0}
    8a0c:	e3833b06 	orr	r3, r3, #6144	; 0x1800
    8a10:	ee013f10 	mcr	15, 0, r3, cr1, cr0, {0}
    8a14:	e12fff1e 	bx	lr

00008a18 <disable_cache>:
    8a18:	ee113f10 	mrc	15, 0, r3, cr1, cr0, {0}
    8a1c:	e3c33b06 	bic	r3, r3, #6144	; 0x1800
    8a20:	ee013f10 	mcr	15, 0, r3, cr1, cr0, {0}
    8a24:	e12fff1e 	bx	lr

00008a28 <clean_reboot>:
    8a28:	e92d4010 	push	{r4, lr}
    8a2c:	e59f3018 	ldr	r3, [pc, #24]	; 8a4c <clean_reboot+0x24>
    8a30:	e5933000 	ldr	r3, [r3]
    8a34:	e59f0014 	ldr	r0, [pc, #20]	; 8a50 <clean_reboot+0x28>
    8a38:	e12fff33 	blx	r3
    8a3c:	eb00010a 	bl	8e6c <uart_flush_tx>
    8a40:	e3a0000a 	mov	r0, #10, 0
    8a44:	eb000047 	bl	8b68 <delay_ms>
    8a48:	eb00001c 	bl	8ac0 <rpi_reboot>
    8a4c:	000091c8 	andeq	r9, r0, r8, asr #3
    8a50:	000091bc 			; <UNDEFINED> instruction: 0x000091bc

00008a54 <_cstart>:
    8a54:	e92d4010 	push	{r4, lr}
    8a58:	eb00000c 	bl	8a90 <custom_loader>
    8a5c:	e59f3024 	ldr	r3, [pc, #36]	; 8a88 <_cstart+0x34>
    8a60:	e59f2024 	ldr	r2, [pc, #36]	; 8a8c <_cstart+0x38>
    8a64:	e1530002 	cmp	r3, r2
    8a68:	33a02000 	movcc	r2, #0, 0
    8a6c:	34832004 	strcc	r2, [r3], #4
    8a70:	3afffffa 	bcc	8a60 <_cstart+0xc>
    8a74:	eb00009e 	bl	8cf4 <uart_init>
    8a78:	e3a03001 	mov	r3, #1, 0
    8a7c:	ee0f3f1c 	mcr	15, 0, r3, cr15, cr12, {0}
    8a80:	ebfffdab 	bl	8134 <notmain>
    8a84:	ebffffe7 	bl	8a28 <clean_reboot>
    8a88:	000091d0 	ldrdeq	r9, [r0], -r0
    8a8c:	000095d0 	ldrdeq	r9, [r0], -r0

00008a90 <custom_loader>:
    8a90:	e12fff1e 	bx	lr

00008a94 <at_user_level>:
    8a94:	e10f0000 	mrs	r0, CPSR
    8a98:	e200001f 	and	r0, r0, #31, 0
    8a9c:	e3500010 	cmp	r0, #16, 0
    8aa0:	13a00000 	movne	r0, #0, 0
    8aa4:	03a00001 	moveq	r0, #1, 0
    8aa8:	e12fff1e 	bx	lr

00008aac <set_user_level>:
    8aac:	e10f3000 	mrs	r3, CPSR
    8ab0:	e3c3301f 	bic	r3, r3, #31, 0
    8ab4:	e3833010 	orr	r3, r3, #16, 0
    8ab8:	e129f003 	msr	CPSR_fc, r3
    8abc:	e12fff1e 	bx	lr

00008ac0 <rpi_reboot>:
    8ac0:	e92d4010 	push	{r4, lr}
    8ac4:	ebfffff2 	bl	8a94 <at_user_level>
    8ac8:	e3500000 	cmp	r0, #0, 0
    8acc:	1a00000a 	bne	8afc <rpi_reboot+0x3c>
    8ad0:	eb00012d 	bl	8f8c <reboot_callout>
    8ad4:	eb0000e4 	bl	8e6c <uart_flush_tx>
    8ad8:	e3a0000a 	mov	r0, #10, 0
    8adc:	eb000021 	bl	8b68 <delay_ms>
    8ae0:	e59f101c 	ldr	r1, [pc, #28]	; 8b04 <rpi_reboot+0x44>
    8ae4:	e59f001c 	ldr	r0, [pc, #28]	; 8b08 <rpi_reboot+0x48>
    8ae8:	ebfffd4d 	bl	8024 <PUT32>
    8aec:	e59f1018 	ldr	r1, [pc, #24]	; 8b0c <rpi_reboot+0x4c>
    8af0:	e59f0018 	ldr	r0, [pc, #24]	; 8b10 <rpi_reboot+0x50>
    8af4:	ebfffd4a 	bl	8024 <PUT32>
    8af8:	eafffffe 	b	8af8 <rpi_reboot+0x38>
    8afc:	ebffffea 	bl	8aac <set_user_level>
    8b00:	eafffff2 	b	8ad0 <rpi_reboot+0x10>
    8b04:	5a000001 	bpl	8b10 <rpi_reboot+0x50>
    8b08:	20100024 	andscs	r0, r0, r4, lsr #32
    8b0c:	5a000020 	bpl	8b94 <delay_sec+0x14>
    8b10:	2010001c 	andscs	r0, r0, ip, lsl r0

00008b14 <timer_get_usec_raw>:
    8b14:	e92d4010 	push	{r4, lr}
    8b18:	e59f0004 	ldr	r0, [pc, #4]	; 8b24 <timer_get_usec_raw+0x10>
    8b1c:	ebfffd42 	bl	802c <GET32>
    8b20:	e8bd8010 	pop	{r4, pc}
    8b24:	20003004 	andcs	r3, r0, r4

00008b28 <timer_get_usec>:
    8b28:	e92d4010 	push	{r4, lr}
    8b2c:	eb000117 	bl	8f90 <dev_barrier>
    8b30:	ebfffff7 	bl	8b14 <timer_get_usec_raw>
    8b34:	e1a04000 	mov	r4, r0
    8b38:	eb000114 	bl	8f90 <dev_barrier>
    8b3c:	e1a00004 	mov	r0, r4
    8b40:	e8bd8010 	pop	{r4, pc}

00008b44 <delay_us>:
    8b44:	e92d4070 	push	{r4, r5, r6, lr}
    8b48:	e1a05000 	mov	r5, r0
    8b4c:	ebfffff5 	bl	8b28 <timer_get_usec>
    8b50:	e1a04000 	mov	r4, r0
    8b54:	ebfffff3 	bl	8b28 <timer_get_usec>
    8b58:	e0400004 	sub	r0, r0, r4
    8b5c:	e1500005 	cmp	r0, r5
    8b60:	3afffffb 	bcc	8b54 <delay_us+0x10>
    8b64:	e8bd8070 	pop	{r4, r5, r6, pc}

00008b68 <delay_ms>:
    8b68:	e92d4010 	push	{r4, lr}
    8b6c:	e0603280 	rsb	r3, r0, r0, lsl #5
    8b70:	e0800103 	add	r0, r0, r3, lsl #2
    8b74:	e1a00180 	lsl	r0, r0, #3
    8b78:	ebfffff1 	bl	8b44 <delay_us>
    8b7c:	e8bd8010 	pop	{r4, pc}

00008b80 <delay_sec>:
    8b80:	e92d4010 	push	{r4, lr}
    8b84:	e0603280 	rsb	r3, r0, r0, lsl #5
    8b88:	e0800103 	add	r0, r0, r3, lsl #2
    8b8c:	e1a00180 	lsl	r0, r0, #3
    8b90:	ebfffff4 	bl	8b68 <delay_ms>
    8b94:	e8bd8010 	pop	{r4, pc}

00008b98 <gpio_set_function>:
    8b98:	e350001f 	cmp	r0, #31, 0
    8b9c:	812fff1e 	bxhi	lr
    8ba0:	e92d4070 	push	{r4, r5, r6, lr}
    8ba4:	e1a05001 	mov	r5, r1
    8ba8:	e3d13007 	bics	r3, r1, #7, 0
    8bac:	18bd8070 	popne	{r4, r5, r6, pc}
    8bb0:	e59f3040 	ldr	r3, [pc, #64]	; 8bf8 <gpio_set_function+0x60>
    8bb4:	e0832093 	umull	r2, r3, r3, r0
    8bb8:	e1a031a3 	lsr	r3, r3, #3
    8bbc:	e1a02003 	mov	r2, r3
    8bc0:	e0833103 	add	r3, r3, r3, lsl #2
    8bc4:	e0403083 	sub	r3, r0, r3, lsl #1
    8bc8:	e0834083 	add	r4, r3, r3, lsl #1
    8bcc:	e2820302 	add	r0, r2, #134217728	; 0x8000000
    8bd0:	e2800702 	add	r0, r0, #524288	; 0x80000
    8bd4:	e1a06100 	lsl	r6, r0, #2
    8bd8:	e1a00006 	mov	r0, r6
    8bdc:	ebfffd12 	bl	802c <GET32>
    8be0:	e3a01007 	mov	r1, #7, 0
    8be4:	e1c01411 	bic	r1, r0, r1, lsl r4
    8be8:	e1811415 	orr	r1, r1, r5, lsl r4
    8bec:	e1a00006 	mov	r0, r6
    8bf0:	ebfffd0b 	bl	8024 <PUT32>
    8bf4:	e8bd8070 	pop	{r4, r5, r6, pc}
    8bf8:	cccccccd 	stclgt	12, cr12, [ip], {205}	; 0xcd

00008bfc <gpio_set_output>:
    8bfc:	e92d4010 	push	{r4, lr}
    8c00:	e3a01001 	mov	r1, #1, 0
    8c04:	ebffffe3 	bl	8b98 <gpio_set_function>
    8c08:	e8bd8010 	pop	{r4, pc}

00008c0c <gpio_set_on>:
    8c0c:	e350001f 	cmp	r0, #31, 0
    8c10:	812fff1e 	bxhi	lr
    8c14:	e92d4010 	push	{r4, lr}
    8c18:	e3a01001 	mov	r1, #1, 0
    8c1c:	e1a01011 	lsl	r1, r1, r0
    8c20:	e59f0004 	ldr	r0, [pc, #4]	; 8c2c <gpio_set_on+0x20>
    8c24:	ebfffcfe 	bl	8024 <PUT32>
    8c28:	e8bd8010 	pop	{r4, pc}
    8c2c:	2020001c 	eorcs	r0, r0, ip, lsl r0

00008c30 <gpio_set_off>:
    8c30:	e350001f 	cmp	r0, #31, 0
    8c34:	812fff1e 	bxhi	lr
    8c38:	e92d4010 	push	{r4, lr}
    8c3c:	e3a01001 	mov	r1, #1, 0
    8c40:	e1a01011 	lsl	r1, r1, r0
    8c44:	e59f0004 	ldr	r0, [pc, #4]	; 8c50 <gpio_set_off+0x20>
    8c48:	ebfffcf5 	bl	8024 <PUT32>
    8c4c:	e8bd8010 	pop	{r4, pc}
    8c50:	20200028 	eorcs	r0, r0, r8, lsr #32

00008c54 <gpio_set_input>:
    8c54:	e92d4010 	push	{r4, lr}
    8c58:	e3a01000 	mov	r1, #0, 0
    8c5c:	ebffffcd 	bl	8b98 <gpio_set_function>
    8c60:	e8bd8010 	pop	{r4, pc}

00008c64 <gpio_write>:
    8c64:	e92d4010 	push	{r4, lr}
    8c68:	e3510000 	cmp	r1, #0, 0
    8c6c:	0a000001 	beq	8c78 <gpio_write+0x14>
    8c70:	ebffffe5 	bl	8c0c <gpio_set_on>
    8c74:	e8bd8010 	pop	{r4, pc}
    8c78:	ebffffec 	bl	8c30 <gpio_set_off>
    8c7c:	e8bd8010 	pop	{r4, pc}

00008c80 <gpio_read>:
    8c80:	e350001f 	cmp	r0, #31, 0
    8c84:	8a000007 	bhi	8ca8 <gpio_read+0x28>
    8c88:	e92d4010 	push	{r4, lr}
    8c8c:	e200401f 	and	r4, r0, #31, 0
    8c90:	e59f3018 	ldr	r3, [pc, #24]	; 8cb0 <gpio_read+0x30>
    8c94:	e08302a0 	add	r0, r3, r0, lsr #5
    8c98:	ebfffce3 	bl	802c <GET32>
    8c9c:	e1a00430 	lsr	r0, r0, r4
    8ca0:	e2000001 	and	r0, r0, #1, 0
    8ca4:	e8bd8010 	pop	{r4, pc}
    8ca8:	e3e00000 	mvn	r0, #0, 0
    8cac:	e12fff1e 	bx	lr
    8cb0:	20200034 	eorcs	r0, r0, r4, lsr r0

00008cb4 <and_in32>:
    8cb4:	e92d4070 	push	{r4, r5, r6, lr}
    8cb8:	e1a04000 	mov	r4, r0
    8cbc:	e1a05001 	mov	r5, r1
    8cc0:	ebfffcd9 	bl	802c <GET32>
    8cc4:	e0001005 	and	r1, r0, r5
    8cc8:	e1a00004 	mov	r0, r4
    8ccc:	ebfffcd4 	bl	8024 <PUT32>
    8cd0:	e8bd8070 	pop	{r4, r5, r6, pc}

00008cd4 <or_in32>:
    8cd4:	e92d4070 	push	{r4, r5, r6, lr}
    8cd8:	e1a04000 	mov	r4, r0
    8cdc:	e1a05001 	mov	r5, r1
    8ce0:	ebfffcd1 	bl	802c <GET32>
    8ce4:	e1801005 	orr	r1, r0, r5
    8ce8:	e1a00004 	mov	r0, r4
    8cec:	ebfffccc 	bl	8024 <PUT32>
    8cf0:	e8bd8070 	pop	{r4, r5, r6, pc}

00008cf4 <uart_init>:
    8cf4:	e92d4010 	push	{r4, lr}
    8cf8:	e3a01002 	mov	r1, #2, 0
    8cfc:	e3a0000e 	mov	r0, #14, 0
    8d00:	ebffffa4 	bl	8b98 <gpio_set_function>
    8d04:	e3a01002 	mov	r1, #2, 0
    8d08:	e3a0000f 	mov	r0, #15, 0
    8d0c:	ebffffa1 	bl	8b98 <gpio_set_function>
    8d10:	eb00009e 	bl	8f90 <dev_barrier>
    8d14:	e3a01001 	mov	r1, #1, 0
    8d18:	e59f0064 	ldr	r0, [pc, #100]	; 8d84 <uart_init+0x90>
    8d1c:	ebffffec 	bl	8cd4 <or_in32>
    8d20:	eb00009a 	bl	8f90 <dev_barrier>
    8d24:	e59f405c 	ldr	r4, [pc, #92]	; 8d88 <uart_init+0x94>
    8d28:	e3a01000 	mov	r1, #0, 0
    8d2c:	e1a00004 	mov	r0, r4
    8d30:	ebfffcbb 	bl	8024 <PUT32>
    8d34:	e3a01000 	mov	r1, #0, 0
    8d38:	e59f004c 	ldr	r0, [pc, #76]	; 8d8c <uart_init+0x98>
    8d3c:	ebfffcb8 	bl	8024 <PUT32>
    8d40:	e3a01003 	mov	r1, #3, 0
    8d44:	e59f0044 	ldr	r0, [pc, #68]	; 8d90 <uart_init+0x9c>
    8d48:	ebfffcb5 	bl	8024 <PUT32>
    8d4c:	e3a01000 	mov	r1, #0, 0
    8d50:	e59f003c 	ldr	r0, [pc, #60]	; 8d94 <uart_init+0xa0>
    8d54:	ebfffcb2 	bl	8024 <PUT32>
    8d58:	e3a010c7 	mov	r1, #199, 0	; 0xc7
    8d5c:	e59f0034 	ldr	r0, [pc, #52]	; 8d98 <uart_init+0xa4>
    8d60:	ebfffcaf 	bl	8024 <PUT32>
    8d64:	e59f1030 	ldr	r1, [pc, #48]	; 8d9c <uart_init+0xa8>
    8d68:	e59f0030 	ldr	r0, [pc, #48]	; 8da0 <uart_init+0xac>
    8d6c:	ebfffcac 	bl	8024 <PUT32>
    8d70:	e3a01003 	mov	r1, #3, 0
    8d74:	e1a00004 	mov	r0, r4
    8d78:	ebfffca9 	bl	8024 <PUT32>
    8d7c:	eb000083 	bl	8f90 <dev_barrier>
    8d80:	e8bd8010 	pop	{r4, pc}
    8d84:	20215004 	eorcs	r5, r1, r4
    8d88:	20215060 	eorcs	r5, r1, r0, rrx
    8d8c:	20215044 	eorcs	r5, r1, r4, asr #32
    8d90:	2021504c 	eorcs	r5, r1, ip, asr #32
    8d94:	20215050 	eorcs	r5, r1, r0, asr r0
    8d98:	20215048 	eorcs	r5, r1, r8, asr #32
    8d9c:	0000010e 	andeq	r0, r0, lr, lsl #2
    8da0:	20215068 	eorcs	r5, r1, r8, rrx

00008da4 <uart_can_getc>:
    8da4:	e92d4010 	push	{r4, lr}
    8da8:	e59f0008 	ldr	r0, [pc, #8]	; 8db8 <uart_can_getc+0x14>
    8dac:	ebfffc9e 	bl	802c <GET32>
    8db0:	e2000001 	and	r0, r0, #1, 0
    8db4:	e8bd8010 	pop	{r4, pc}
    8db8:	20215064 	eorcs	r5, r1, r4, rrx

00008dbc <uart_can_putc>:
    8dbc:	e92d4010 	push	{r4, lr}
    8dc0:	e59f0010 	ldr	r0, [pc, #16]	; 8dd8 <uart_can_putc+0x1c>
    8dc4:	ebfffc98 	bl	802c <GET32>
    8dc8:	e3100002 	tst	r0, #2, 0
    8dcc:	13a00001 	movne	r0, #1, 0
    8dd0:	03a00000 	moveq	r0, #0, 0
    8dd4:	e8bd8010 	pop	{r4, pc}
    8dd8:	20215064 	eorcs	r5, r1, r4, rrx

00008ddc <uart_getc>:
    8ddc:	e92d4010 	push	{r4, lr}
    8de0:	eb00006a 	bl	8f90 <dev_barrier>
    8de4:	ebffffee 	bl	8da4 <uart_can_getc>
    8de8:	e3500000 	cmp	r0, #0, 0
    8dec:	0afffffc 	beq	8de4 <uart_getc+0x8>
    8df0:	e59f0010 	ldr	r0, [pc, #16]	; 8e08 <uart_getc+0x2c>
    8df4:	ebfffc8c 	bl	802c <GET32>
    8df8:	e6ef4070 	uxtb	r4, r0
    8dfc:	eb000063 	bl	8f90 <dev_barrier>
    8e00:	e1a00004 	mov	r0, r4
    8e04:	e8bd8010 	pop	{r4, pc}
    8e08:	20215040 	eorcs	r5, r1, r0, asr #32

00008e0c <uart_putc>:
    8e0c:	e92d4010 	push	{r4, lr}
    8e10:	e1a04000 	mov	r4, r0
    8e14:	eb00005d 	bl	8f90 <dev_barrier>
    8e18:	ebffffe7 	bl	8dbc <uart_can_putc>
    8e1c:	e3500000 	cmp	r0, #0, 0
    8e20:	0afffffc 	beq	8e18 <uart_putc+0xc>
    8e24:	e6ef1074 	uxtb	r1, r4
    8e28:	e59f0008 	ldr	r0, [pc, #8]	; 8e38 <uart_putc+0x2c>
    8e2c:	ebfffc7c 	bl	8024 <PUT32>
    8e30:	eb000056 	bl	8f90 <dev_barrier>
    8e34:	e8bd8010 	pop	{r4, pc}
    8e38:	20215040 	eorcs	r5, r1, r0, asr #32

00008e3c <uart_has_data>:
    8e3c:	e92d4010 	push	{r4, lr}
    8e40:	eb000052 	bl	8f90 <dev_barrier>
    8e44:	ebffffd6 	bl	8da4 <uart_can_getc>
    8e48:	e8bd8010 	pop	{r4, pc}

00008e4c <uart_tx_is_empty>:
    8e4c:	e92d4010 	push	{r4, lr}
    8e50:	eb00004e 	bl	8f90 <dev_barrier>
    8e54:	e59f000c 	ldr	r0, [pc, #12]	; 8e68 <uart_tx_is_empty+0x1c>
    8e58:	ebfffc73 	bl	802c <GET32>
    8e5c:	e1a004a0 	lsr	r0, r0, #9
    8e60:	e2000001 	and	r0, r0, #1, 0
    8e64:	e8bd8010 	pop	{r4, pc}
    8e68:	20215064 	eorcs	r5, r1, r4, rrx

00008e6c <uart_flush_tx>:
    8e6c:	e92d4010 	push	{r4, lr}
    8e70:	ebfffff5 	bl	8e4c <uart_tx_is_empty>
    8e74:	e3500000 	cmp	r0, #0, 0
    8e78:	0afffffc 	beq	8e70 <uart_flush_tx+0x4>
    8e7c:	e8bd8010 	pop	{r4, pc}

00008e80 <uart_disable>:
    8e80:	e92d4010 	push	{r4, lr}
    8e84:	ebfffff8 	bl	8e6c <uart_flush_tx>
    8e88:	eb000040 	bl	8f90 <dev_barrier>
    8e8c:	e3e01001 	mvn	r1, #1, 0
    8e90:	e59f0008 	ldr	r0, [pc, #8]	; 8ea0 <uart_disable+0x20>
    8e94:	ebffff86 	bl	8cb4 <and_in32>
    8e98:	eb00003c 	bl	8f90 <dev_barrier>
    8e9c:	e8bd8010 	pop	{r4, pc}
    8ea0:	20215004 	eorcs	r5, r1, r4

00008ea4 <internal_putchar>:
    8ea4:	e92d4010 	push	{r4, lr}
    8ea8:	e1a04000 	mov	r4, r0
    8eac:	ebffffd6 	bl	8e0c <uart_putc>
    8eb0:	e1a00004 	mov	r0, r4
    8eb4:	e8bd8010 	pop	{r4, pc}

00008eb8 <rpi_reset_putc>:
    8eb8:	e59f3008 	ldr	r3, [pc, #8]	; 8ec8 <rpi_reset_putc+0x10>
    8ebc:	e59f2008 	ldr	r2, [pc, #8]	; 8ecc <rpi_reset_putc+0x14>
    8ec0:	e5832000 	str	r2, [r3]
    8ec4:	e12fff1e 	bx	lr
    8ec8:	000091cc 	andeq	r9, r0, ip, asr #3
    8ecc:	00008ea4 	andeq	r8, r0, r4, lsr #29

00008ed0 <rpi_set_putc>:
    8ed0:	e59f3004 	ldr	r3, [pc, #4]	; 8edc <rpi_set_putc+0xc>
    8ed4:	e5830000 	str	r0, [r3]
    8ed8:	e12fff1e 	bx	lr
    8edc:	000091cc 	andeq	r9, r0, ip, asr #3

00008ee0 <strcat>:
    8ee0:	e1a02000 	mov	r2, r0
    8ee4:	e1a03002 	mov	r3, r2
    8ee8:	e2822001 	add	r2, r2, #1, 0
    8eec:	e5d3c000 	ldrb	ip, [r3]
    8ef0:	e35c0000 	cmp	ip, #0, 0
    8ef4:	1afffffa 	bne	8ee4 <strcat+0x4>
    8ef8:	e2433001 	sub	r3, r3, #1, 0
    8efc:	e5d12000 	ldrb	r2, [r1]
    8f00:	e2811001 	add	r1, r1, #1, 0
    8f04:	e5e32001 	strb	r2, [r3, #1]!
    8f08:	e3520000 	cmp	r2, #0, 0
    8f0c:	1afffffa 	bne	8efc <strcat+0x1c>
    8f10:	e12fff1e 	bx	lr

00008f14 <strcmp>:
    8f14:	e5d03000 	ldrb	r3, [r0]
    8f18:	e3530000 	cmp	r3, #0, 0
    8f1c:	0a000004 	beq	8f34 <strcmp+0x20>
    8f20:	e5d12000 	ldrb	r2, [r1]
    8f24:	e1530002 	cmp	r3, r2
    8f28:	02800001 	addeq	r0, r0, #1, 0
    8f2c:	02811001 	addeq	r1, r1, #1, 0
    8f30:	0afffff7 	beq	8f14 <strcmp>
    8f34:	e5d10000 	ldrb	r0, [r1]
    8f38:	e0430000 	sub	r0, r3, r0
    8f3c:	e12fff1e 	bx	lr

00008f40 <strcpy>:
    8f40:	e1a0c000 	mov	ip, r0
    8f44:	e5d12000 	ldrb	r2, [r1]
    8f48:	e2811001 	add	r1, r1, #1, 0
    8f4c:	e5cc2000 	strb	r2, [ip]
    8f50:	e28cc001 	add	ip, ip, #1, 0
    8f54:	e3520000 	cmp	r2, #0, 0
    8f58:	1afffff9 	bne	8f44 <strcpy+0x4>
    8f5c:	e12fff1e 	bx	lr

00008f60 <strncmp>:
    8f60:	e3520000 	cmp	r2, #0, 0
    8f64:	e2422001 	sub	r2, r2, #1, 0
    8f68:	0a000005 	beq	8f84 <strncmp+0x24>
    8f6c:	e4d03001 	ldrb	r3, [r0], #1
    8f70:	e4d1c001 	ldrb	ip, [r1], #1
    8f74:	e153000c 	cmp	r3, ip
    8f78:	0afffff8 	beq	8f60 <strncmp>
    8f7c:	e043000c 	sub	r0, r3, ip
    8f80:	e12fff1e 	bx	lr
    8f84:	e3a00000 	mov	r0, #0, 0
    8f88:	e12fff1e 	bx	lr

00008f8c <reboot_callout>:
    8f8c:	e12fff1e 	bx	lr

00008f90 <dev_barrier>:
    8f90:	ea000002 	b	8fa0 <dsb>

00008f94 <dmb>:
    8f94:	e3a00000 	mov	r0, #0, 0
    8f98:	ee070fba 	mcr	15, 0, r0, cr7, cr10, {5}
    8f9c:	e12fff1e 	bx	lr

00008fa0 <dsb>:
    8fa0:	ee070f9a 	mcr	15, 0, r0, cr7, cr10, {4}
    8fa4:	e12fff1e 	bx	lr

Disassembly of section .rodata:

00008fa8 <__FUNCTION__.3991-0x88>:
    8fa8:	6c637963 			; <UNDEFINED> instruction: 0x6c637963
    8fac:	00682e65 	rsbeq	r2, r8, r5, ror #28
    8fb0:	494e4150 	stmdbmi	lr, {r4, r6, r8, lr}^
    8fb4:	73253a43 			; <UNDEFINED> instruction: 0x73253a43
    8fb8:	3a73253a 	bcc	1cd24a8 <__bss_end__+0x1cc8ed8>
    8fbc:	253a6425 	ldrcs	r6, [sl, #-1061]!	; 0xfffffbdb
    8fc0:	00000a73 	andeq	r0, r0, r3, ror sl
    8fc4:	203c2073 	eorscs	r2, ip, r3, ror r0
    8fc8:	00000032 	andeq	r0, r0, r2, lsr r0
    8fcc:	656d6974 	strbvs	r6, [sp, #-2420]!	; 0xfffff68c
    8fd0:	2174756f 	cmncs	r4, pc, ror #10
    8fd4:	61747320 	cmnvs	r4, r0, lsr #6
    8fd8:	253d7472 	ldrcs	r7, [sp, #-1138]!	; 0xfffffb8e
    8fdc:	74202c64 	strtvc	r2, [r0], #-3172	; 0xfffff39c
    8fe0:	2c64253d 	cfstr64cs	mvdx2, [r4], #-244	; 0xffffff0c
    8fe4:	6e696d20 	cdpvs	13, 6, cr6, cr9, cr0, {1}
    8fe8:	253d7875 	ldrcs	r7, [sp, #-2165]!	; 0xfffff78b
    8fec:	00000a64 	andeq	r0, r0, r4, ror #20
    8ff0:	00007325 	andeq	r7, r0, r5, lsr #6
    8ff4:	3a642520 	bcc	191247c <__bss_end__+0x1908eac>
    8ff8:	6c617620 	stclvs	6, cr7, [r1], #-128	; 0xffffff80
    8ffc:	2c64253d 	cfstr64cs	mvdx2, [r4], #-244	; 0xffffff0c
    9000:	6d697420 	cfstrdvs	mvd7, [r9, #-128]!	; 0xffffff80
    9004:	64253d65 	strtvs	r3, [r5], #-3429	; 0xfffff29b
    9008:	6f74202c 	svcvs	0x0074202c
    900c:	64253d74 	strtvs	r3, [r5], #-3444	; 0xfffff28c
    9010:	7865203a 	stmdavc	r5!, {r1, r3, r4, r5, sp}^
    9014:	64253d70 	strtvs	r3, [r5], #-3440	; 0xfffff290
    9018:	72652820 	rsbvc	r2, r5, #32, 16	; 0x200000
    901c:	64253d72 	strtvs	r3, [r5], #-3442	; 0xfffff28e
    9020:	6f74202c 	svcvs	0x0074202c
    9024:	72726574 	rsbsvc	r6, r2, #116, 10	; 0x1d000000
    9028:	2964253d 	stmdbcs	r4!, {r0, r2, r3, r4, r5, r8, sl, sp}^
    902c:	0000000a 	andeq	r0, r0, sl

00009030 <__FUNCTION__.3991>:
    9030:	5f636573 	svcpl	0x00636573
    9034:	635f6f74 	cmpvs	pc, #116, 30	; 0x1d0
    9038:	656c6379 	strbvs	r6, [ip, #-889]!	; 0xfffffc87
    903c:	00000000 	andeq	r0, r0, r0
    9040:	706f6353 	rsbvc	r6, pc, r3, asr r3	; <UNPREDICTABLE>
    9044:	694c2065 	stmdbvs	ip, {r0, r2, r5, r6, sp}^
    9048:	6e657473 	mcrvs	4, 3, r7, cr5, cr3, {3}
    904c:	3a676e69 	bcc	19e49f8 <__bss_end__+0x19db428>
    9050:	0000000a 	andeq	r0, r0, sl
    9054:	696c2f2e 	stmdbvs	ip!, {r1, r2, r3, r5, r8, r9, sl, fp, sp}^
    9058:	762f6362 	strtvc	r6, [pc], -r2, ror #6
    905c:	72702d61 	rsbsvc	r2, r0, #6208	; 0x1840
    9060:	6b746e69 	blvs	1d24a0c <__bss_end__+0x1d1b43c>
    9064:	0000632e 	andeq	r6, r0, lr, lsr #6
    9068:	00000030 	andeq	r0, r0, r0, lsr r0
    906c:	33323130 	teqcc	r2, #12
    9070:	37363534 			; <UNDEFINED> instruction: 0x37363534
    9074:	00003938 	andeq	r3, r0, r8, lsr r9
    9078:	33323130 	teqcc	r2, #12
    907c:	37363534 			; <UNDEFINED> instruction: 0x37363534
    9080:	62613938 	rsbvs	r3, r1, #56, 18	; 0xe0000
    9084:	66656463 	strbtvs	r6, [r5], -r3, ror #8
    9088:	00000000 	andeq	r0, r0, r0
    908c:	00003130 	andeq	r3, r0, r0, lsr r1
    9090:	63747570 	cmnvs	r4, #112, 10	; 0x1c000000
    9094:	0070665f 	rsbseq	r6, r0, pc, asr r6
    9098:	74646977 	strbtvc	r6, [r4], #-2423	; 0xfffff689
    909c:	203c2068 	eorscs	r2, ip, r8, rrx
    90a0:	00003233 	andeq	r3, r0, r3, lsr r2
    90a4:	00786c6c 	rsbseq	r6, r8, ip, ror #24
    90a8:	00646c6c 	rsbeq	r6, r4, ip, ror #24
    90ac:	253d3078 	ldrcs	r3, [sp, #-120]!	; 0xffffff88
    90b0:	00000a78 	andeq	r0, r0, r8, ror sl
    90b4:	253d3178 	ldrcs	r3, [sp, #-376]!	; 0xfffffe88
    90b8:	00000a78 	andeq	r0, r0, r8, ror sl
    90bc:	6e727473 	mrcvs	4, 3, r7, cr2, cr3, {3}
    90c0:	28706d63 	ldmdacs	r0!, {r0, r1, r5, r6, r8, sl, fp, sp, lr}^
    90c4:	202c7974 	eorcs	r7, ip, r4, ror r9
    90c8:	786c6c22 	stmdavc	ip!, {r1, r5, sl, fp, sp, lr}^
    90cc:	33202c22 			; <UNDEFINED> instruction: 0x33202c22
    90d0:	3d3d2029 	ldccc	0, cr2, [sp, #-164]!	; 0xffffff5c
    90d4:	7c203020 	stcvc	0, cr3, [r0], #-128	; 0xffffff80
    90d8:	7473207c 	ldrbtvc	r2, [r3], #-124	; 0xffffff84
    90dc:	6d636e72 	stclvs	14, cr6, [r3, #-456]!	; 0xfffffe38
    90e0:	79742870 	ldmdbvc	r4!, {r4, r5, r6, fp, sp}^
    90e4:	6c22202c 	stcvs	0, cr2, [r2], #-176	; 0xffffff50
    90e8:	2c22646c 	cfstrscs	mvf6, [r2], #-432	; 0xfffffe50
    90ec:	20293320 	eorcs	r3, r9, r0, lsr #6
    90f0:	30203d3d 	eorcc	r3, r0, sp, lsr sp
    90f4:	00000000 	andeq	r0, r0, r0
    90f8:	494e4150 	stmdbmi	lr, {r4, r6, r8, lr}^
    90fc:	73253a43 			; <UNDEFINED> instruction: 0x73253a43
    9100:	3a73253a 	bcc	1cd25f0 <__bss_end__+0x1cc9020>
    9104:	693a6425 	ldmdbvs	sl!, {r0, r2, r5, sl, sp, lr}
    9108:	736f706d 	cmnvc	pc, #109, 0	; 0x6d
    910c:	6c626973 			; <UNDEFINED> instruction: 0x6c626973
    9110:	66203a65 	strtvs	r3, [r0], -r5, ror #20
    9114:	3c3d746d 	cfldrscc	mvf7, [sp], #-436	; 0xfffffe4c
    9118:	0a3e7325 	beq	fa5db4 <__bss_end__+0xf9c7e4>
    911c:	0000000a 	andeq	r0, r0, sl
    9120:	494e4150 	stmdbmi	lr, {r4, r6, r8, lr}^
    9124:	73253a43 			; <UNDEFINED> instruction: 0x73253a43
    9128:	3a73253a 	bcc	1cd2618 <__bss_end__+0x1cc9048>
    912c:	663a6425 	ldrtvs	r6, [sl], -r5, lsr #8
    9130:	74616f6c 	strbtvc	r6, [r1], #-3948	; 0xfffff094
    9134:	746f6e20 	strbtvc	r6, [pc], #-3616	; 913c <__FUNCTION__.3991+0x10c>
    9138:	616e6520 	cmnvs	lr, r0, lsr #10
    913c:	64656c62 	strbtvs	r6, [r5], #-3170	; 0xfffff39e
    9140:	0a212121 	beq	8515cc <__bss_end__+0x847ffc>
    9144:	00000000 	andeq	r0, r0, r0
    9148:	6e697270 	mcrvs	2, 3, r7, cr9, cr0, {3}
    914c:	203a6b74 	eorscs	r6, sl, r4, ror fp
    9150:	20746f6e 	rsbscs	r6, r4, lr, ror #30
    9154:	646e6168 	strbtvs	r6, [lr], #-360	; 0xfffffe98
    9158:	676e696c 	strbvs	r6, [lr, -ip, ror #18]!
    915c:	65707320 	ldrbvs	r7, [r0, #-800]!	; 0xfffffce0
    9160:	69666963 	stmdbvs	r6!, {r0, r1, r5, r6, r8, fp, sp, lr}^
    9164:	27207265 	strcs	r7, [r0, -r5, ror #4]!
    9168:	20276325 	eorcs	r6, r7, r5, lsr #6
    916c:	63736128 	cmnvs	r3, #10
    9170:	253d6969 	ldrcs	r6, [sp, #-2409]!	; 0xfffff697
    9174:	000a2964 	andeq	r2, sl, r4, ror #18
    9178:	494e4150 	stmdbmi	lr, {r4, r6, r8, lr}^
    917c:	73253a43 			; <UNDEFINED> instruction: 0x73253a43
    9180:	3a73253a 	bcc	1cd2670 <__bss_end__+0x1cc90a0>
    9184:	703a6425 	eorsvc	r6, sl, r5, lsr #8
    9188:	746e6972 	strbtvc	r6, [lr], #-2418	; 0xfffff68e
    918c:	7265206b 	rsbvc	r2, r5, #107, 0	; 0x6b
    9190:	0a726f72 	beq	1ca4f60 <__bss_end__+0x1c9b990>
    9194:	0000000a 	andeq	r0, r0, sl

00009198 <__FUNCTION__.4004>:
    9198:	74696d65 	strbtvc	r6, [r9], #-3429	; 0xfffff29b
    919c:	00000000 	andeq	r0, r0, r0

000091a0 <__FUNCTION__.3952>:
    91a0:	5f697072 	svcpl	0x00697072
    91a4:	5f746573 	svcpl	0x00746573
    91a8:	7074756f 	rsbsvc	r7, r4, pc, ror #10
    91ac:	00007475 	andeq	r7, r0, r5, ror r4

000091b0 <__FUNCTION__.4030>:
    91b0:	705f6176 	subsvc	r6, pc, r6, ror r1	; <UNPREDICTABLE>
    91b4:	746e6972 	strbtvc	r6, [lr], #-2418	; 0xfffff68e
    91b8:	0000006b 	andeq	r0, r0, fp, rrx
    91bc:	454e4f44 	strbmi	r4, [lr, #-3908]	; 0xfffff0bc
    91c0:	0a212121 	beq	85164c <__bss_end__+0x84807c>
	...

Disassembly of section .data:

000091c8 <putk>:
    91c8:	0000827c 	andeq	r8, r0, ip, ror r2

000091cc <rpi_putchar>:
    91cc:	00008ea4 	andeq	r8, r0, r4, lsr #29

Disassembly of section .bss:

000091d0 <__bss_start__>:
	...

Disassembly of section .ARM.attributes:

00000000 <.ARM.attributes>:
   0:	00002a41 	andeq	r2, r0, r1, asr #20
   4:	61656100 	cmnvs	r5, r0, lsl #2
   8:	01006962 	tsteq	r0, r2, ror #18
   c:	00000020 	andeq	r0, r0, r0, lsr #32
  10:	4b5a3605 	blmi	168d82c <__bss_end__+0x168425c>
  14:	08070600 	stmdaeq	r7, {r9, sl}
  18:	12010901 	andne	r0, r1, #16384	; 0x4000
  1c:	15011404 	strne	r1, [r1, #-1028]	; 0xfffffbfc
  20:	18031701 	stmdane	r3, {r0, r8, r9, sl, ip}
  24:	22011a01 	andcs	r1, r1, #4096	; 0x1000
  28:	Address 0x0000000000000028 is out of bounds.


Disassembly of section .comment:

00000000 <.comment>:
   0:	3a434347 	bcc	10d0d24 <__bss_end__+0x10c7754>
   4:	4e472820 	cdpmi	8, 4, cr2, cr7, cr0, {1}
   8:	6f542055 	svcvs	0x00542055
   c:	20736c6f 	rsbscs	r6, r3, pc, ror #24
  10:	20726f66 	rsbscs	r6, r2, r6, ror #30
  14:	206d7241 	rsbcs	r7, sp, r1, asr #4
  18:	65626d45 	strbvs	r6, [r2, #-3397]!	; 0xfffff2bb
  1c:	64656464 	strbtvs	r6, [r5], #-1124	; 0xfffffb9c
  20:	6f725020 	svcvs	0x00725020
  24:	73736563 	cmnvc	r3, #415236096	; 0x18c00000
  28:	2073726f 	rsbscs	r7, r3, pc, ror #4
  2c:	30322d39 	eorscc	r2, r2, r9, lsr sp
  30:	712d3931 			; <UNDEFINED> instruction: 0x712d3931
  34:	616d2d34 	cmnvs	sp, r4, lsr sp
  38:	29726f6a 	ldmdbcs	r2!, {r1, r3, r5, r6, r8, r9, sl, fp, sp, lr}^
  3c:	322e3920 	eorcc	r3, lr, #32, 18	; 0x80000
  40:	3220312e 	eorcc	r3, r0, #-2147483637	; 0x8000000b
  44:	31393130 	teqcc	r9, r0, lsr r1
  48:	20353230 	eorscs	r3, r5, r0, lsr r2
  4c:	6c657228 	sfmvs	f7, 2, [r5], #-160	; 0xffffff60
  50:	65736165 	ldrbvs	r6, [r3, #-357]!	; 0xfffffe9b
  54:	415b2029 	cmpmi	fp, r9, lsr #32
  58:	612f4d52 			; <UNDEFINED> instruction: 0x612f4d52
  5c:	392d6d72 	pushcc	{r1, r4, r5, r6, r8, sl, fp, sp, lr}
  60:	6172622d 	cmnvs	r2, sp, lsr #4
  64:	2068636e 	rsbcs	r6, r8, lr, ror #6
  68:	69766572 	ldmdbvs	r6!, {r1, r4, r5, r6, r8, sl, sp, lr}^
  6c:	6e6f6973 			; <UNDEFINED> instruction: 0x6e6f6973
  70:	37373220 	ldrcc	r3, [r7, -r0, lsr #4]!
  74:	5d393935 			; <UNDEFINED> instruction: 0x5d393935
  78:	43434700 	movtmi	r4, #14080	; 0x3700
  7c:	4728203a 			; <UNDEFINED> instruction: 0x4728203a
  80:	4120554e 			; <UNDEFINED> instruction: 0x4120554e
  84:	45206d72 	strmi	r6, [r0, #-3442]!	; 0xfffff28e
  88:	6465626d 	strbtvs	r6, [r5], #-621	; 0xfffffd93
  8c:	20646564 	rsbcs	r6, r4, r4, ror #10
  90:	6c6f6f54 	stclvs	15, cr6, [pc], #-336	; ffffff48 <__bss_end__+0xffff6978>
  94:	69616863 	stmdbvs	r1!, {r0, r1, r5, r6, fp, sp, lr}^
  98:	3031206e 	eorscc	r2, r1, lr, rrx
  9c:	322d332e 	eorcc	r3, sp, #-1207959552	; 0xb8000000
  a0:	2e313230 	mrccs	2, 1, r3, cr1, cr0, {1}
  a4:	20293031 	eorcs	r3, r9, r1, lsr r0
  a8:	332e3031 			; <UNDEFINED> instruction: 0x332e3031
  ac:	3220312e 	eorcc	r3, r0, #-2147483637	; 0x8000000b
  b0:	30313230 	eorscc	r3, r1, r0, lsr r2
  b4:	20343238 	eorscs	r3, r4, r8, lsr r2
  b8:	6c657228 	sfmvs	f7, 2, [r5], #-160	; 0xffffff60
  bc:	65736165 	ldrbvs	r6, [r3, #-357]!	; 0xfffffe9b
  c0:	Address 0x00000000000000c0 is out of bounds.


Disassembly of section .debug_info:

00000000 <.debug_info>:
       0:	000006e3 	andeq	r0, r0, r3, ror #13
       4:	00000004 	andeq	r0, r0, r4
       8:	01040000 	mrseq	r0, (UNDEF: 4)
       c:	00000178 	andeq	r0, r0, r8, ror r1
      10:	00002a0c 	andeq	r2, r0, ip, lsl #20
      14:	0000ae00 	andeq	sl, r0, r0, lsl #28
      18:	00803800 	addeq	r3, r0, r0, lsl #16
      1c:	0001ec00 	andeq	lr, r1, r0, lsl #24
      20:	00000000 	andeq	r0, r0, r0
      24:	05040200 	streq	r0, [r4, #-512]	; 0xfffffe00
      28:	00746e69 	rsbseq	r6, r4, r9, ror #28
      2c:	33070403 	movwcc	r0, #29699	; 0x7403
      30:	04000001 	streq	r0, [r0], #-1
      34:	0000002c 	andeq	r0, r0, ip, lsr #32
      38:	00002c05 	andeq	r2, r0, r5, lsl #24
      3c:	06010300 	streq	r0, [r1], -r0, lsl #6
      40:	00000115 	andeq	r0, r0, r5, lsl r1
      44:	00050203 	andeq	r0, r5, r3, lsl #4
      48:	03000000 	movweq	r0, #0
      4c:	007e0504 	rsbseq	r0, lr, r4, lsl #10
      50:	08030000 	stmdaeq	r3, {}	; <UNPREDICTABLE>
      54:	00007905 	andeq	r7, r0, r5, lsl #18
      58:	08010300 	stmdaeq	r1, {r8, r9}
      5c:	00000113 	andeq	r0, r0, r3, lsl r1
      60:	55070203 	strpl	r0, [r7, #-515]	; 0xfffffdfd
      64:	03000001 	movweq	r0, #1
      68:	012e0704 			; <UNDEFINED> instruction: 0x012e0704
      6c:	08030000 	stmdaeq	r3, {}	; <UNPREDICTABLE>
      70:	00012907 	andeq	r2, r1, r7, lsl #18
      74:	00250600 	eoreq	r0, r5, r0, lsl #12
      78:	00840000 	addeq	r0, r4, r0
      7c:	25070000 	strcs	r0, [r7, #-0]
      80:	00000000 	andeq	r0, r0, r0
      84:	00001e08 	andeq	r1, r0, r8, lsl #28
      88:	0e1c0400 	cfmulseq	mvf0, mvf12, mvf0
      8c:	00000090 	muleq	r0, r0, r0
      90:	00750409 	rsbseq	r0, r5, r9, lsl #8
      94:	25060000 	strcs	r0, [r6, #-0]
      98:	a5000000 	strge	r0, [r0, #-0]
      9c:	07000000 	streq	r0, [r0, -r0]
      a0:	000000a5 	andeq	r0, r0, r5, lsr #1
      a4:	b2040900 	andlt	r0, r4, #0, 18
      a8:	03000000 	movweq	r0, #0
      ac:	011c0801 	tsteq	ip, r1, lsl #16
      b0:	ab050000 	blge	1400b8 <__bss_end__+0x136ae8>
      b4:	08000000 	stmdaeq	r0, {}	; <UNPREDICTABLE>
      b8:	000002fb 	strdeq	r0, [r0], -fp
      bc:	c30e2104 	movwgt	r2, #57604	; 0xe104
      c0:	09000000 	stmdbeq	r0, {}	; <UNPREDICTABLE>
      c4:	00009604 	andeq	r9, r0, r4, lsl #12
      c8:	03080a00 	movweq	r0, #35328	; 0x8a00
      cc:	00eb0906 	rsceq	r0, fp, r6, lsl #18
      d0:	760b0000 	strvc	r0, [fp], -r0
      d4:	0e070300 	cdpeq	3, 0, cr0, cr7, cr0, {0}
      d8:	0000002c 	andeq	r0, r0, ip, lsr #32
      dc:	01210c00 			; <UNDEFINED> instruction: 0x01210c00
      e0:	07030000 	streq	r0, [r3, -r0]
      e4:	00002c10 	andeq	r2, r0, r0, lsl ip
      e8:	0d000400 	cfstrseq	mvf0, [r0, #-0]
      ec:	00000047 	andeq	r0, r0, r7, asr #32
      f0:	c9030803 	stmdbgt	r3, {r0, r1, fp}
      f4:	0e000000 	cdpeq	0, 0, cr0, cr0, cr0, {0}
      f8:	0000022d 	andeq	r0, r0, sp, lsr #4
      fc:	031b1502 	tsteq	fp, #8388608	; 0x800000
     100:	09000001 	stmdbeq	r0, {r0}
     104:	00003304 	andeq	r3, r0, r4, lsl #6
     108:	014d0f00 	cmpeq	sp, r0, lsl #30
     10c:	5e020000 	cdppl	0, 0, cr0, cr2, cr0, {0}
     110:	00813406 	addeq	r3, r1, r6, lsl #8
     114:	0000f000 	andeq	pc, r0, r0
     118:	069c0100 	ldreq	r0, [ip], r0, lsl #2
     11c:	10000003 	andne	r0, r0, r3
     120:	006e6970 	rsbeq	r6, lr, r0, ror r9
     124:	25096002 	strcs	r6, [r9, #-2]
     128:	15000000 	strne	r0, [r0, #-0]
     12c:	676f6c11 			; <UNDEFINED> instruction: 0x676f6c11
     130:	0f690200 	svceq	0x00690200
     134:	00000306 	andeq	r0, r0, r6, lsl #6
     138:	7de89103 	stfvcp	f1, [r8, #12]!
     13c:	00814c12 	addeq	r4, r1, r2, lsl ip
     140:	00000800 	andeq	r0, r0, r0, lsl #16
     144:	00015600 	andeq	r5, r1, r0, lsl #12
     148:	6e691000 	cdpvs	0, 6, cr1, cr9, cr0, {0}
     14c:	05660200 	strbeq	r0, [r6, #-512]!	; 0xfffffe00
     150:	0000002c 	andeq	r0, r0, ip, lsr #32
     154:	60120001 	andsvs	r0, r2, r1
     158:	b4000081 	strlt	r0, [r0], #-129	; 0xffffff7f
     15c:	b7000000 	strlt	r0, [r0, -r0]
     160:	13000002 	movwne	r0, #2
     164:	71020069 	tstvc	r2, r9, rrx
     168:	0000250d 	andeq	r2, r0, sp, lsl #10
     16c:	00000400 	andeq	r0, r0, r0, lsl #8
     170:	00000000 	andeq	r0, r0, r0
     174:	00001400 	andeq	r1, r0, r0, lsl #8
     178:	6e130000 	cdpvs	0, 1, cr0, cr3, cr0, {0}
     17c:	12720200 	rsbsne	r0, r2, #0, 4
     180:	0000002c 	andeq	r0, r0, ip, lsr #32
     184:	00000027 	andeq	r0, r0, r7, lsr #32
     188:	00000023 	andeq	r0, r0, r3, lsr #32
     18c:	00060c15 	andeq	r0, r6, r5, lsl ip
     190:	00820400 	addeq	r0, r2, r0, lsl #8
     194:	00180100 	andseq	r0, r8, r0, lsl #2
     198:	73020000 	movwvc	r0, #8192	; 0x2000
     19c:	00028609 	andeq	r8, r2, r9, lsl #12
     1a0:	06311600 	ldrteq	r1, [r1], -r0, lsl #12
     1a4:	00490000 	subeq	r0, r9, r0
     1a8:	00450000 	subeq	r0, r5, r0
     1ac:	27160000 	ldrcs	r0, [r6, -r0]
     1b0:	71000006 	tstvc	r0, r6
     1b4:	6d000000 	stcvs	0, cr0, [r0, #-0]
     1b8:	16000000 	strne	r0, [r0], -r0
     1bc:	0000061d 	andeq	r0, r0, sp, lsl r6
     1c0:	00000099 	muleq	r0, r9, r0
     1c4:	0000008f 	andeq	r0, r0, pc, lsl #1
     1c8:	00001814 	andeq	r1, r0, r4, lsl r8
     1cc:	063d1700 	ldrteq	r1, [sp], -r0, lsl #14
     1d0:	00e70000 	rsceq	r0, r7, r0
     1d4:	00e10000 	rsceq	r0, r1, r0
     1d8:	49170000 	ldmdbmi	r7, {}	; <UNPREDICTABLE>
     1dc:	15000006 	strne	r0, [r0, #-6]
     1e0:	11000001 	tstne	r0, r1
     1e4:	17000001 	strne	r0, [r0, -r1]
     1e8:	00000655 	andeq	r0, r0, r5, asr r6
     1ec:	0000013e 	andeq	r0, r0, lr, lsr r1
     1f0:	00000134 	andeq	r0, r0, r4, lsr r1
     1f4:	00066118 	andeq	r6, r6, r8, lsl r1
     1f8:	00003000 	andeq	r3, r0, r0
     1fc:	06621700 	strbteq	r1, [r2], -r0, lsl #14
     200:	01880000 	orreq	r0, r8, r0
     204:	017e0000 	cmneq	lr, r0
     208:	6c180000 	ldcvs	0, cr0, [r8], {-0}
     20c:	50000006 	andpl	r0, r0, r6
     210:	17000000 	strne	r0, [r0, -r0]
     214:	0000066d 	andeq	r0, r0, sp, ror #12
     218:	000001d4 	ldrdeq	r0, [r0], -r4
     21c:	000001ca 	andeq	r0, r0, sl, asr #3
     220:	00067717 	andeq	r7, r6, r7, lsl r7
     224:	00023d00 	andeq	r3, r2, r0, lsl #26
     228:	00023700 	andeq	r3, r2, r0, lsl #14
     22c:	06831700 	streq	r1, [r3], r0, lsl #14
     230:	026c0000 	rsbeq	r0, ip, #0, 0
     234:	02660000 	rsbeq	r0, r6, #0, 0
     238:	8f170000 	svchi	0x00170000
     23c:	ae000006 	cdpge	0, 0, cr0, cr0, cr6, {0}
     240:	aa000002 	bge	250 <__code_start__-0x7db0>
     244:	19000002 	stmdbne	r0, {r1}
     248:	0000818c 	andeq	r8, r0, ip, lsl #3
     24c:	0000069e 	muleq	r0, lr, r6
     250:	0550011a 	ldrbeq	r0, [r0, #-282]	; 0xfffffee6
     254:	008ff403 	addeq	pc, pc, r3, lsl #8
     258:	7d021a00 	vstrvc	s2, [r2, #-0]
     25c:	00740200 	rsbseq	r0, r4, r0, lsl #4
     260:	047d021a 	ldrbteq	r0, [sp], #-538	; 0xfffffde6
     264:	32007515 	andcc	r7, r0, #88080384	; 0x5400000
     268:	22007524 	andcs	r7, r0, #36, 10	; 0x9000000
     26c:	24320075 	ldrtcs	r0, [r2], #-117	; 0xffffff8b
     270:	32220075 	eorcc	r0, r2, #117, 0	; 0x75
     274:	1e3f2224 	cdpne	2, 3, cr2, cr15, cr4, {1}
     278:	021a2434 	andseq	r2, sl, #52, 8	; 0x34000000
     27c:	76020c7d 			; <UNDEFINED> instruction: 0x76020c7d
     280:	00000000 	andeq	r0, r0, r0
     284:	ec1b0000 	ldc	0, cr0, [fp], {-0}
     288:	40000081 	andmi	r0, r0, r1, lsl #1
     28c:	99000005 	stmdbls	r0, {r0, r2}
     290:	1a000002 	bne	2a0 <__code_start__-0x7d60>
     294:	31015001 	tstcc	r1, r1
     298:	82001900 	andhi	r1, r0, #0, 18
     29c:	03160000 	tsteq	r6, #0, 0
     2a0:	011a0000 	tsteq	sl, r0
     2a4:	1a450150 	bne	11407ec <__bss_end__+0x113721c>
     2a8:	91035101 	tstls	r3, r1, lsl #2
     2ac:	011a7de0 	tsteq	sl, r0, ror #27
     2b0:	20080252 	andcs	r0, r8, r2, asr r2
     2b4:	1b000000 	blne	2bc <__code_start__-0x7d44>
     2b8:	00008144 	andeq	r8, r0, r4, asr #2
     2bc:	000006aa 	andeq	r0, r0, sl, lsr #13
     2c0:	000002ca 	andeq	r0, r0, sl, asr #5
     2c4:	0150011a 	cmpeq	r0, sl, lsl r1
     2c8:	481c0045 	ldmdami	ip, {r0, r2, r6}
     2cc:	b6000081 	strlt	r0, [r0], -r1, lsl #1
     2d0:	1c000006 	stcne	0, cr0, [r0], {6}
     2d4:	0000814c 	andeq	r8, r0, ip, asr #2
     2d8:	000006c2 	andeq	r0, r0, r2, asr #13
     2dc:	0081601b 	addeq	r6, r1, fp, lsl r0
     2e0:	00069e00 	andeq	r9, r6, r0, lsl #28
     2e4:	0002fc00 	andeq	pc, r2, r0, lsl #24
     2e8:	50011a00 	andpl	r1, r1, r0, lsl #20
     2ec:	8ff00305 	svchi	0x00f00305
     2f0:	011a0000 	tsteq	sl, r0
     2f4:	40030551 	andmi	r0, r3, r1, asr r5
     2f8:	00000090 	muleq	r0, r0, r0
     2fc:	0082181c 	addeq	r1, r2, ip, lsl r8
     300:	0006ce00 	andeq	ip, r6, r0, lsl #28
     304:	eb1d0000 	bl	74030c <__bss_end__+0x736d3c>
     308:	16000000 	strne	r0, [r0], -r0
     30c:	1e000003 	cdpne	0, 0, cr0, cr0, cr3, {0}
     310:	0000002c 	andeq	r0, r0, ip, lsr #32
     314:	0d1f001f 	ldceq	0, cr0, [pc, #-124]	; 2a0 <__code_start__-0x7d60>
     318:	02000001 	andeq	r0, r0, #1, 0
     31c:	002c0124 	eoreq	r0, ip, r4, lsr #2
     320:	80880000 	addhi	r0, r8, r0
     324:	00ac0000 	adceq	r0, ip, r0
     328:	9c010000 	stcls	0, cr0, [r1], {-0}
     32c:	000004fe 	strdeq	r0, [r0], -lr
     330:	6e697020 	cdpvs	0, 6, cr7, cr9, cr0, {1}
     334:	10240200 	eorne	r0, r4, r0, lsl #4
     338:	0000002c 	andeq	r0, r0, ip, lsr #32
     33c:	000002d2 	ldrdeq	r0, [r0], -r2
     340:	000002ce 	andeq	r0, r0, lr, asr #5
     344:	02006c20 	andeq	r6, r0, #32, 24	; 0x2000
     348:	04fe2024 	ldrbteq	r2, [lr], #36	; 0x24
     34c:	02f40000 	rscseq	r0, r4, #0, 0
     350:	02f00000 	rscseq	r0, r0, #0, 0
     354:	67210000 	strvs	r0, [r1, -r0]!
     358:	02000002 	andeq	r0, r0, #2, 0
     35c:	002c2c24 	eoreq	r2, ip, r4, lsr #24
     360:	03160000 	tsteq	r6, #0, 0
     364:	03120000 	tsteq	r2, #0, 0
     368:	68210000 	stmdavs	r1!, {}	; <UNPREDICTABLE>
     36c:	02000001 	andeq	r0, r0, #1, 0
     370:	002c3c24 	eoreq	r3, ip, r4, lsr #24
     374:	03380000 	teqeq	r8, #0, 0
     378:	03340000 	teqeq	r4, #0, 0
     37c:	76130000 	ldrvc	r0, [r3], -r0
     380:	25020031 	strcs	r0, [r2, #-49]	; 0xffffffcf
     384:	00002c0e 	andeq	r2, r0, lr, lsl #24
     388:	00035a00 	andeq	r5, r3, r0, lsl #20
     38c:	00035600 	andeq	r5, r3, r0, lsl #12
     390:	30761300 	rsbscc	r1, r6, r0, lsl #6
     394:	12250200 	eorne	r0, r5, #0, 4
     398:	0000002c 	andeq	r0, r0, ip, lsr #32
     39c:	0000037a 	andeq	r0, r0, sl, ror r3
     3a0:	00000378 	andeq	r0, r0, r8, ror r3
     3a4:	0003a122 	andeq	sl, r3, r2, lsr #2
     3a8:	0e2c0200 	cdpeq	2, 2, cr0, cr12, cr0, {0}
     3ac:	0000002c 	andeq	r0, r0, ip, lsr #32
     3b0:	0000038f 	andeq	r0, r0, pc, lsl #7
     3b4:	0000038d 	andeq	r0, r0, sp, lsl #7
     3b8:	02007413 	andeq	r7, r0, #318767104	; 0x13000000
     3bc:	002c2d2c 	eoreq	r2, ip, ip, lsr #26
     3c0:	038f0000 	orreq	r0, pc, #0, 0
     3c4:	038d0000 	orreq	r0, sp, #0, 0
     3c8:	6e130000 	cdpvs	0, 1, cr0, cr3, cr0, {0}
     3cc:	0e2f0200 	cdpeq	2, 2, cr0, cr15, cr0, {0}
     3d0:	0000002c 	andeq	r0, r0, ip, lsr #32
     3d4:	000003a6 	andeq	r0, r0, r6, lsr #7
     3d8:	000003a2 	andeq	r0, r0, r2, lsr #7
     3dc:	00017322 	andeq	r7, r1, r2, lsr #6
     3e0:	11300200 	teqne	r0, r0, lsl #4
     3e4:	00000038 	andeq	r0, r0, r8, lsr r0
     3e8:	000003c7 	andeq	r0, r0, r7, asr #7
     3ec:	000003c5 	andeq	r0, r0, r5, asr #7
     3f0:	0080f412 	addeq	pc, r0, r2, lsl r4	; <UNPREDICTABLE>
     3f4:	00002000 	andeq	r2, r0, r0
     3f8:	00043500 	andeq	r3, r4, r0, lsl #10
     3fc:	00512200 	subseq	r2, r1, r0, lsl #4
     400:	36020000 	strcc	r0, [r2], -r0
     404:	00002c0e 	andeq	r2, r0, lr, lsl #24
     408:	0003e100 	andeq	lr, r3, r0, lsl #2
     40c:	0003df00 	andeq	sp, r3, r0, lsl #30
     410:	05042300 	streq	r2, [r4, #-768]	; 0xfffffd00
     414:	80f40000 	rscshi	r0, r4, r0
     418:	f4010000 	vst4.8	{d0-d3}, [r1], r0
     41c:	04000080 	streq	r0, [r0], #-128	; 0xffffff80
     420:	02000000 	andeq	r0, r0, #0, 0
     424:	15171936 	ldrne	r1, [r7, #-2358]	; 0xfffff6ca
     428:	f6000005 			; <UNDEFINED> instruction: 0xf6000005
     42c:	f4000003 	vst4.8	{d0-d3}, [r0], r3
     430:	00000003 	andeq	r0, r0, r3
     434:	05222400 	streq	r2, [r2, #-1024]!	; 0xfffffc00
     438:	80a00000 	adchi	r0, r0, r0
     43c:	a0030000 	andge	r0, r3, r0
     440:	10000080 	andne	r0, r0, r0, lsl #1
     444:	02000000 	andeq	r0, r0, #0, 0
     448:	045c1128 	ldrbeq	r1, [ip], #-296	; 0xfffffed8
     44c:	33160000 	tstcc	r6, #0, 0
     450:	0b000005 	bleq	46c <__code_start__-0x7b94>
     454:	09000004 	stmdbeq	r0, {r2}
     458:	00000004 	andeq	r0, r0, r4
     45c:	00050424 	andeq	r0, r5, r4, lsr #8
     460:	0080b800 	addeq	fp, r0, r0, lsl #16
     464:	80b80100 	adcshi	r0, r8, r0, lsl #2
     468:	00040000 	andeq	r0, r4, r0
     46c:	2c020000 	stccs	0, cr0, [r2], {-0}
     470:	00048316 	andeq	r8, r4, r6, lsl r3
     474:	05151700 	ldreq	r1, [r5, #-1792]	; 0xfffff900
     478:	04200000 	strteq	r0, [r0], #-0
     47c:	041e0000 	ldreq	r0, [lr], #-0
     480:	24000000 	strcs	r0, [r0], #-0
     484:	00000504 	andeq	r0, r0, r4, lsl #10
     488:	000080c4 	andeq	r8, r0, r4, asr #1
     48c:	0080c401 	addeq	ip, r0, r1, lsl #8
     490:	00000400 	andeq	r0, r0, r0, lsl #8
     494:	0d550200 	lfmeq	f0, 2, [r5, #-0]
     498:	000004aa 	andeq	r0, r0, sl, lsr #9
     49c:	00051517 	andeq	r1, r5, r7, lsl r5
     4a0:	00043500 	andeq	r3, r4, r0, lsl #10
     4a4:	00043300 	andeq	r3, r4, r0, lsl #6
     4a8:	22240000 	eorcs	r0, r4, #0, 0
     4ac:	dc000005 	stcle	0, cr0, [r0], {5}
     4b0:	01000080 	smlabbeq	r0, r0, r0, r0
     4b4:	000080dc 	ldrdeq	r8, [r0], -ip
     4b8:	00000010 	andeq	r0, r0, r0, lsl r0
     4bc:	d10d3502 	tstle	sp, r2, lsl #10
     4c0:	16000004 	strne	r0, [r0], -r4
     4c4:	00000533 	andeq	r0, r0, r3, lsr r5
     4c8:	0000044a 	andeq	r0, r0, sl, asr #8
     4cc:	00000448 	andeq	r0, r0, r8, asr #8
     4d0:	80a01b00 	adchi	r1, r0, r0, lsl #22
     4d4:	06da0000 	ldrbeq	r0, [sl], r0
     4d8:	04e50000 	strbteq	r0, [r5], #0
     4dc:	011a0000 	tsteq	sl, r0
     4e0:	00740250 	rsbseq	r0, r4, r0, asr r2
     4e4:	81241900 			; <UNDEFINED> instruction: 0x81241900
     4e8:	069e0000 	ldreq	r0, [lr], r0
     4ec:	011a0000 	tsteq	sl, r0
     4f0:	cc030550 	cfstr32gt	mvfx0, [r3], {80}	; 0x50
     4f4:	1a00008f 	bne	738 <__code_start__-0x78c8>
     4f8:	30015301 	andcc	r5, r1, r1, lsl #6
     4fc:	04090000 	streq	r0, [r9], #-0
     500:	000000eb 	andeq	r0, r0, fp, ror #1
     504:	00023225 	andeq	r3, r2, r5, lsr #4
     508:	181b0200 	ldmdane	fp, {r9}
     50c:	0000002c 	andeq	r0, r0, ip, lsr #32
     510:	00052203 	andeq	r2, r5, r3, lsl #4
     514:	00190e00 	andseq	r0, r9, r0, lsl #28
     518:	1c020000 	stcne	0, cr0, [r2], {-0}
     51c:	00002c0b 	andeq	r2, r0, fp, lsl #24
     520:	0a260000 	beq	980528 <__bss_end__+0x976f58>
     524:	02000000 	andeq	r0, r0, #0, 0
     528:	002c1817 	eoreq	r1, ip, r7, lsl r8
     52c:	40030000 	andmi	r0, r3, r0
     530:	27000005 	strcs	r0, [r0, -r5]
     534:	006e6970 	rsbeq	r6, lr, r0, ror r9
     538:	2c301702 	ldccs	7, cr1, [r0], #-8
     53c:	00000000 	andeq	r0, r0, r0
     540:	00008828 	andeq	r8, r0, r8, lsr #16
     544:	110b0100 	mrsne	r0, (UNDEF: 27)
     548:	0000002c 	andeq	r0, r0, ip, lsr #32
     54c:	00008038 	andeq	r8, r0, r8, lsr r0
     550:	00000050 	andeq	r0, r0, r0, asr r0
     554:	05bd9c01 	ldreq	r9, [sp, #3073]!	; 0xc01
     558:	73200000 	nopvc	{0}	; <UNPREDICTABLE>
     55c:	270b0100 	strcs	r0, [fp, -r0, lsl #2]
     560:	0000002c 	andeq	r0, r0, ip, lsr #32
     564:	00000465 	andeq	r0, r0, r5, ror #8
     568:	0000045d 	andeq	r0, r0, sp, asr r4
     56c:	00009c29 	andeq	r9, r0, r9, lsr #24
     570:	0005cd00 	andeq	ip, r5, r0, lsl #26
     574:	30030500 	andcc	r0, r3, r0, lsl #10
     578:	1b000090 	blne	7c0 <__code_start__-0x7840>
     57c:	00008070 	andeq	r8, r0, r0, ror r0
     580:	0000069e 	muleq	r0, lr, r6
     584:	000005b3 			; <UNDEFINED> instruction: 0x000005b3
     588:	0550011a 	ldrbeq	r0, [r0, #-282]	; 0xfffffee6
     58c:	008fb003 	addeq	fp, pc, r3
     590:	51011a00 	tstpl	r1, r0, lsl #20
     594:	8fa80305 	svchi	0x00a80305
     598:	011a0000 	tsteq	sl, r0
     59c:	30030552 	andcc	r0, r3, r2, asr r5
     5a0:	1a000090 	bne	7e8 <__code_start__-0x7818>
     5a4:	3c015301 	stccc	3, cr5, [r1], {1}
     5a8:	007d021a 	rsbseq	r0, sp, sl, lsl r2
     5ac:	8fc40305 	svchi	0x00c40305
     5b0:	1c000000 	stcne	0, cr0, [r0], {-0}
     5b4:	00008074 	andeq	r8, r0, r4, ror r0
     5b8:	000006ce 	andeq	r0, r0, lr, asr #13
     5bc:	00b21d00 	adcseq	r1, r2, r0, lsl #26
     5c0:	05cd0000 	strbeq	r0, [sp]
     5c4:	2c1e0000 	ldccs	0, cr0, [lr], {-0}
     5c8:	0c000000 	stceq	0, cr0, [r0], {-0}
     5cc:	05bd0500 	ldreq	r0, [sp, #1280]!	; 0x500
     5d0:	87260000 	strhi	r0, [r6, -r0]!
     5d4:	01000000 	mrseq	r0, (UNDEF: 0)
     5d8:	002c1808 	eoreq	r1, ip, r8, lsl #16
     5dc:	ef030000 	svc	0x00030000
     5e0:	27000005 	strcs	r0, [r0, -r5]
     5e4:	0100736d 	tsteq	r0, sp, ror #6
     5e8:	002c2f08 	eoreq	r2, ip, r8, lsl #30
     5ec:	26000000 	strcs	r0, [r0], -r0
     5f0:	0000006b 	andeq	r0, r0, fp, rrx
     5f4:	2c180501 	cfldr32cs	mvfx0, [r8], {1}
     5f8:	03000000 	movweq	r0, #0
     5fc:	0000060c 	andeq	r0, r0, ip, lsl #12
     600:	00737527 	rsbseq	r7, r3, r7, lsr #10
     604:	2c2f0501 	cfstr32cs	mvfx0, [pc], #-4	; 608 <__code_start__-0x79f8>
     608:	00000000 	andeq	r0, r0, r0
     60c:	00024626 	andeq	r4, r2, r6, lsr #12
     610:	010d0300 	mrseq	r0, SP_mon
     614:	0000002c 	andeq	r0, r0, ip, lsr #32
     618:	00069e03 	andeq	r9, r6, r3, lsl #28
     61c:	006c2700 	rsbeq	r2, ip, r0, lsl #14
     620:	fe190d03 	vsdot.s8	d0, d9, d3[0]
     624:	27000004 	strcs	r0, [r0, -r4]
     628:	0d03006e 	stceq	0, cr0, [r3, #-440]	; 0xfffffe48
     62c:	00002c25 	andeq	r2, r0, r5, lsr #24
     630:	00952a00 	addseq	r2, r5, r0, lsl #20
     634:	0d030000 	stceq	0, cr0, [r3, #-0]
     638:	00002c31 	andeq	r2, r0, r1, lsr ip
     63c:	6f742b00 	svcvs	0x00742b00
     640:	0e030074 	mcreq	0, 0, r0, cr3, cr4, {3}
     644:	00002c0e 	andeq	r2, r0, lr, lsl #24
     648:	003f0e00 	eorseq	r0, pc, r0, lsl #28
     64c:	0e030000 	cdpeq	0, 0, cr0, cr3, cr0, {0}
     650:	00002c17 	andeq	r2, r0, r7, lsl ip
     654:	02620e00 	rsbeq	r0, r2, #0, 28
     658:	10030000 	andne	r0, r3, r0
     65c:	00002c0e 	andeq	r2, r0, lr, lsl #24
     660:	692b2c00 	stmdbvs	fp!, {sl, fp, sp}
     664:	0d110300 	ldceq	3, cr0, [r1, #-0]
     668:	00000025 	andeq	r0, r0, r5, lsr #32
     66c:	00652b2c 	rsbeq	r2, r5, ip, lsr #22
     670:	fe141203 	cdp2	2, 1, cr1, cr4, cr3, {0}
     674:	0e000004 	cdpeq	0, 0, cr0, cr0, cr4, {0}
     678:	000000a9 	andeq	r0, r0, r9, lsr #1
     67c:	2c121403 	cfldrscs	mvf1, [r2], {3}
     680:	2b000000 	blcs	688 <__code_start__-0x7978>
     684:	00707865 	rsbseq	r7, r0, r5, ror #16
     688:	2c121803 	ldccs	8, cr1, [r2], {3}
     68c:	2b000000 	blcs	694 <__code_start__-0x796c>
     690:	00727265 	rsbseq	r7, r2, r5, ror #4
     694:	2c121903 			; <UNDEFINED> instruction: 0x2c121903
     698:	00000000 	andeq	r0, r0, r0
     69c:	752d0000 	strvc	r0, [sp, #-0]!
     6a0:	75000002 	strvc	r0, [r0, #-2]
     6a4:	04000002 	streq	r0, [r0], #-2
     6a8:	532d0628 			; <UNDEFINED> instruction: 0x532d0628
     6ac:	53000002 	movwpl	r0, #2
     6b0:	05000002 	streq	r0, [r0, #-2]
     6b4:	5a2d061c 	bpl	b41f2c <__bss_end__+0xb3895c>
     6b8:	5a000000 	bpl	6c0 <__code_start__-0x7940>
     6bc:	04000000 	streq	r0, [r0], #-0
     6c0:	402d06a2 	eormi	r0, sp, r2, lsr #13
     6c4:	40000001 	andmi	r0, r0, r1
     6c8:	04000001 	streq	r0, [r0], #-1
     6cc:	322d06a0 	eorcc	r0, sp, #160, 12	; 0xa000000
     6d0:	32000000 	andcc	r0, r0, #0, 0
     6d4:	04000000 	streq	r0, [r0], #-0
     6d8:	0f2d066e 	svceq	0x002d066e
     6dc:	0f000000 	svceq	0x00000000
     6e0:	05000000 	streq	r0, [r0, #-0]
     6e4:	9d000524 	cfstr32ls	mvfx0, [r0, #-144]	; 0xffffff70
     6e8:	04000001 	streq	r0, [r0], #-1
     6ec:	0002af00 	andeq	sl, r2, r0, lsl #30
     6f0:	78010400 	stmdavc	r1, {sl}
     6f4:	0c000001 	stceq	0, cr0, [r0], {1}
     6f8:	0000029a 	muleq	r0, sl, r2
     6fc:	000002aa 	andeq	r0, r0, sl, lsr #5
     700:	00008224 	andeq	r8, r0, r4, lsr #4
     704:	00000058 	andeq	r0, r0, r8, asr r0
     708:	000002f3 	strdeq	r0, [r0], -r3
     70c:	00027c02 	andeq	r7, r2, r2, lsl #24
     710:	1b280200 	blne	a00f18 <__bss_end__+0x9f7948>
     714:	00000031 	andeq	r0, r0, r1, lsr r0
     718:	00028b03 	andeq	r8, r2, r3, lsl #22
     71c:	00040400 	andeq	r0, r4, r0, lsl #8
     720:	00000048 	andeq	r0, r0, r8, asr #32
     724:	00029504 	andeq	r9, r2, r4, lsl #10
     728:	00004800 	andeq	r4, r0, r0, lsl #16
     72c:	05000000 	streq	r0, [r0, #-0]
     730:	028d0204 	addeq	r0, sp, #4, 4	; 0x40000000
     734:	63020000 	movwvs	r0, #8192	; 0x2000
     738:	00002518 	andeq	r2, r0, r8, lsl r5
     73c:	05040600 	streq	r0, [r4, #-1536]	; 0xfffffa00
     740:	00746e69 	rsbseq	r6, r4, r9, ror #28
     744:	33070407 	movwcc	r0, #29703	; 0x7407
     748:	07000001 	streq	r0, [r0, -r1]
     74c:	01150601 	tsteq	r5, r1, lsl #12
     750:	02070000 	andeq	r0, r7, #0, 0
     754:	00000005 	andeq	r0, r0, r5
     758:	05040700 	streq	r0, [r4, #-1792]	; 0xfffff900
     75c:	0000007e 	andeq	r0, r0, lr, ror r0
     760:	79050807 	stmdbvc	r5, {r0, r1, r2, fp}
     764:	07000000 	streq	r0, [r0, -r0]
     768:	01130801 	tsteq	r3, r1, lsl #16
     76c:	02070000 	andeq	r0, r7, #0, 0
     770:	00015507 	andeq	r5, r1, r7, lsl #10
     774:	07040700 	streq	r0, [r4, -r0, lsl #14]
     778:	0000012e 	andeq	r0, r0, lr, lsr #2
     77c:	29070807 	stmdbcs	r7, {r0, r1, r2, fp}
     780:	08000001 	stmdaeq	r0, {r0}
     784:	00000056 	andeq	r0, r0, r6, asr r0
     788:	000000ab 	andeq	r0, r0, fp, lsr #1
     78c:	00005609 	andeq	r5, r0, r9, lsl #12
     790:	1e0a0000 	cdpne	0, 0, cr0, cr10, cr0, {0}
     794:	03000000 	movweq	r0, #0
     798:	00b70e1c 	adcseq	r0, r7, ip, lsl lr
     79c:	040b0000 	streq	r0, [fp], #-0
     7a0:	0000009c 	muleq	r0, ip, r0
     7a4:	00005608 	andeq	r5, r0, r8, lsl #12
     7a8:	0000cc00 	andeq	ip, r0, r0, lsl #24
     7ac:	00cc0900 	sbceq	r0, ip, r0, lsl #18
     7b0:	0b000000 	bleq	7b8 <__code_start__-0x7848>
     7b4:	0000d904 	andeq	sp, r0, r4, lsl #18
     7b8:	08010700 	stmdaeq	r1, {r8, r9, sl}
     7bc:	0000011c 	andeq	r0, r0, ip, lsl r1
     7c0:	0000d20c 	andeq	sp, r0, ip, lsl #4
     7c4:	02fb0a00 	rscseq	r0, fp, #0, 20
     7c8:	21030000 	mrscs	r0, (UNDEF: 3)
     7cc:	0000ea0e 	andeq	lr, r0, lr, lsl #20
     7d0:	bd040b00 	vstrlt	d0, [r4, #-0]
     7d4:	0d000000 	stceq	0, cr0, [r0, #-0]
     7d8:	00000275 	andeq	r0, r0, r5, ror r2
     7dc:	56050601 	strpl	r0, [r5], -r1, lsl #12
     7e0:	24000000 	strcs	r0, [r0], #-0
     7e4:	58000082 	stmdapl	r0, {r1, r7}
     7e8:	01000000 	mrseq	r0, (UNDEF: 0)
     7ec:	0001839c 	muleq	r1, ip, r3
     7f0:	6d660e00 	stclvs	14, cr0, [r6, #-0]
     7f4:	06010074 			; <UNDEFINED> instruction: 0x06010074
     7f8:	0000cc18 	andeq	ip, r0, r8, lsl ip
     7fc:	70910200 	addsvc	r0, r1, r0, lsl #4
     800:	7562100f 	strbvc	r1, [r2, #-15]!
     804:	08010066 	stmdaeq	r1, {r1, r2, r5, r6}
     808:	00018311 	andeq	r8, r1, r1, lsl r3
     80c:	d0030500 	andle	r0, r3, r0, lsl #10
     810:	11000091 	swpne	r0, r1, [r0]	; <UNPREDICTABLE>
     814:	0000026d 	andeq	r0, r0, sp, ror #4
     818:	4a0d0901 	bmi	342c24 <__bss_end__+0x339654>
     81c:	02000000 	andeq	r0, r0, #0, 0
     820:	73125c91 	tstvc	r2, #37120	; 0x9100
     824:	0c01007a 	stceq	0, cr0, [r1], {122}	; 0x7a
     828:	0000560d 	andeq	r5, r0, sp, lsl #12
     82c:	0004a500 	andeq	sl, r4, r0, lsl #10
     830:	00049f00 	andeq	r9, r4, r0, lsl #30
     834:	824c1300 	subhi	r1, ip, #0, 6
     838:	01940000 	orrseq	r0, r4, r0
     83c:	01760000 	cmneq	r6, r0
     840:	01140000 	tsteq	r4, r0
     844:	00750250 	rsbseq	r0, r5, r0, asr r2
     848:	03510114 	cmpeq	r1, #5
     84c:	1404000a 	strne	r0, [r4], #-10
     850:	91035201 	tstls	r3, r1, lsl #4
     854:	01140648 	tsteq	r4, r8, asr #12
     858:	4c910253 	lfmmi	f0, 4, [r1], {83}	; 0x53
     85c:	82601500 	rsbhi	r1, r0, #0, 10
     860:	01140000 	tsteq	r4, r0
     864:	00750250 	rsbseq	r0, r5, r0, asr r2
     868:	d2160000 	andsle	r0, r6, #0, 0
     86c:	94000000 	strls	r0, [r0], #-0
     870:	17000001 	strne	r0, [r0, -r1]
     874:	0000005d 	andeq	r0, r0, sp, asr r0
     878:	180003ff 	stmdane	r0, {r0, r1, r2, r3, r4, r5, r6, r7, r8, r9}
     87c:	00000272 	andeq	r0, r0, r2, ror r2
     880:	00000272 	andeq	r0, r0, r2, ror r2
     884:	00050205 	andeq	r0, r5, r5, lsl #4
     888:	000000f3 	strdeq	r0, [r0], -r3
     88c:	03f10004 	mvnseq	r0, #4, 0
     890:	01040000 	mrseq	r0, (UNDEF: 4)
     894:	00000178 	andeq	r0, r0, r8, ror r1
     898:	0003000c 	andeq	r0, r3, ip
     89c:	0002aa00 	andeq	sl, r2, r0, lsl #20
     8a0:	00827c00 	addeq	r7, r2, r0, lsl #24
     8a4:	00003400 	andeq	r3, r0, r0, lsl #8
     8a8:	00042b00 	andeq	r2, r4, r0, lsl #22
     8ac:	05040200 	streq	r0, [r4, #-512]	; 0xfffffe00
     8b0:	00746e69 	rsbseq	r6, r4, r9, ror #28
     8b4:	33070403 	movwcc	r0, #29699	; 0x7403
     8b8:	03000001 	movweq	r0, #1
     8bc:	01150601 	tsteq	r5, r1, lsl #12
     8c0:	02030000 	andeq	r0, r3, #0, 0
     8c4:	00000005 	andeq	r0, r0, r5
     8c8:	05040300 	streq	r0, [r4, #-768]	; 0xfffffd00
     8cc:	0000007e 	andeq	r0, r0, lr, ror r0
     8d0:	79050803 	stmdbvc	r5, {r0, r1, fp}
     8d4:	03000000 	movweq	r0, #0
     8d8:	01130801 	tsteq	r3, r1, lsl #16
     8dc:	02030000 	andeq	r0, r3, #0, 0
     8e0:	00015507 	andeq	r5, r1, r7, lsl #10
     8e4:	07040300 	streq	r0, [r4, -r0, lsl #6]
     8e8:	0000012e 	andeq	r0, r0, lr, lsr #2
     8ec:	29070803 	stmdbcs	r7, {r0, r1, fp}
     8f0:	04000001 	streq	r0, [r0], #-1
     8f4:	00000025 	andeq	r0, r0, r5, lsr #32
     8f8:	0000007a 	andeq	r0, r0, sl, ror r0
     8fc:	00002505 	andeq	r2, r0, r5, lsl #10
     900:	1e060000 	cdpne	0, 0, cr0, cr6, cr0, {0}
     904:	02000000 	andeq	r0, r0, #0, 0
     908:	00860e1c 	addeq	r0, r6, ip, lsl lr
     90c:	04070000 	streq	r0, [r7], #-0
     910:	0000006b 	andeq	r0, r0, fp, rrx
     914:	00002504 	andeq	r2, r0, r4, lsl #10
     918:	00009b00 	andeq	r9, r0, r0, lsl #22
     91c:	009b0500 	addseq	r0, fp, r0, lsl #10
     920:	07000000 	streq	r0, [r0, -r0]
     924:	0000a804 	andeq	sl, r0, r4, lsl #16
     928:	08010300 	stmdaeq	r1, {r8, r9}
     92c:	0000011c 	andeq	r0, r0, ip, lsl r1
     930:	0000a108 	andeq	sl, r0, r8, lsl #2
     934:	02fb0600 	rscseq	r0, fp, #0, 12
     938:	21020000 	mrscs	r0, (UNDEF: 2)
     93c:	0000b90e 	andeq	fp, r0, lr, lsl #18
     940:	8c040700 	stchi	7, cr0, [r4], {-0}
     944:	09000000 	stmdbeq	r0, {}	; <UNPREDICTABLE>
     948:	000000ad 	andeq	r0, r0, sp, lsr #1
     94c:	05070c01 	streq	r0, [r7, #-3073]	; 0xfffff3ff
     950:	0091c803 	addseq	ip, r1, r3, lsl #16
     954:	02f20a00 	rscseq	r0, r2, #0, 20
     958:	04010000 	streq	r0, [r1], #-0
     95c:	00002505 	andeq	r2, r0, r5, lsl #10
     960:	00827c00 	addeq	r7, r2, r0, lsl #24
     964:	00003400 	andeq	r3, r0, r0, lsl #8
     968:	0b9c0100 	bleq	fe700d70 <__bss_end__+0xfe6f77a0>
     96c:	04010070 	streq	r0, [r1], #-112	; 0xffffff90
     970:	00009b1f 	andeq	r9, r0, pc, lsl fp
     974:	0004d200 	andeq	sp, r4, r0, lsl #4
     978:	0004ce00 	andeq	ip, r4, r0, lsl #28
     97c:	d7000000 	strle	r0, [r0, -r0]
     980:	0400000a 	streq	r0, [r0], #-10
     984:	00048f00 	andeq	r8, r4, r0, lsl #30
     988:	78010400 	stmdavc	r1, {sl}
     98c:	0c000001 	stceq	0, cr0, [r0], {1}
     990:	0000031f 	andeq	r0, r0, pc, lsl r3
     994:	000002aa 	andeq	r0, r0, sl, lsr #5
     998:	000082b0 			; <UNDEFINED> instruction: 0x000082b0
     99c:	00000740 	andeq	r0, r0, r0, asr #14
     9a0:	000004fb 	strdeq	r0, [r0], -fp
     9a4:	69050402 	stmdbvs	r5, {r1, sl}
     9a8:	0300746e 	movweq	r7, #1134	; 0x46e
     9ac:	01330704 	teqeq	r3, r4, lsl #14
     9b0:	01030000 	mrseq	r0, (UNDEF: 3)
     9b4:	00011506 	andeq	r1, r1, r6, lsl #10
     9b8:	05020300 	streq	r0, [r2, #-768]	; 0xfffffd00
     9bc:	00000000 	andeq	r0, r0, r0
     9c0:	7e050403 	cdpvc	4, 0, cr0, cr5, cr3, {0}
     9c4:	03000000 	movweq	r0, #0
     9c8:	00790508 	rsbseq	r0, r9, r8, lsl #10
     9cc:	01030000 	mrseq	r0, (UNDEF: 3)
     9d0:	00011308 	andeq	r1, r1, r8, lsl #6
     9d4:	07020300 	streq	r0, [r2, -r0, lsl #6]
     9d8:	00000155 	andeq	r0, r0, r5, asr r1
     9dc:	00038504 	andeq	r8, r3, r4, lsl #10
     9e0:	19340200 	ldmdbne	r4!, {r9}
     9e4:	00000069 	andeq	r0, r0, r9, rrx
     9e8:	2e070403 	cdpcs	4, 0, cr0, cr7, cr3, {0}
     9ec:	04000001 	streq	r0, [r0], #-1
     9f0:	00000316 	andeq	r0, r0, r6, lsl r3
     9f4:	7c193702 	ldcvc	7, cr3, [r9], {2}
     9f8:	03000000 	movweq	r0, #0
     9fc:	01290708 			; <UNDEFINED> instruction: 0x01290708
     a00:	25050000 	strcs	r0, [r5, #-0]
     a04:	92000000 	andls	r0, r0, #0, 0
     a08:	06000000 	streq	r0, [r0], -r0
     a0c:	00000025 	andeq	r0, r0, r5, lsr #32
     a10:	001e0700 	andseq	r0, lr, r0, lsl #14
     a14:	1c030000 	stcne	0, cr0, [r3], {-0}
     a18:	00009e0e 	andeq	r9, r0, lr, lsl #28
     a1c:	83040800 	movwhi	r0, #18432	; 0x4800
     a20:	05000000 	streq	r0, [r0, #-0]
     a24:	00000025 	andeq	r0, r0, r5, lsr #32
     a28:	000000b3 	strheq	r0, [r0], -r3
     a2c:	0000b306 	andeq	fp, r0, r6, lsl #6
     a30:	04080000 	streq	r0, [r8], #-0
     a34:	000000c0 	andeq	r0, r0, r0, asr #1
     a38:	1c080103 	stfnes	f0, [r8], {3}
     a3c:	09000001 	stmdbeq	r0, {r0}
     a40:	000000b9 	strheq	r0, [r0], -r9
     a44:	0002fb07 	andeq	pc, r2, r7, lsl #22
     a48:	0e210300 	cdpeq	3, 2, cr0, cr1, cr0, {0}
     a4c:	000000d1 	ldrdeq	r0, [r0], -r1
     a50:	00a40408 	adceq	r0, r4, r8, lsl #8
     a54:	32070000 	andcc	r0, r7, #0, 0
     a58:	04000003 	streq	r0, [r0], #-3
     a5c:	00b90d0b 	adcseq	r0, r9, fp, lsl #26
     a60:	bb070000 	bllt	1c0a68 <__bss_end__+0x1b7498>
     a64:	04000003 	streq	r0, [r0], #-3
     a68:	00b90d0c 	adcseq	r0, r9, ip, lsl #26
     a6c:	41070000 	mrsmi	r0, (UNDEF: 7)
     a70:	04000003 	streq	r0, [r0], #-3
     a74:	00b90d0d 	adcseq	r0, r9, sp, lsl #26
     a78:	6a070000 	bvs	1c0a80 <__bss_end__+0x1b74b0>
     a7c:	04000003 	streq	r0, [r0], #-3
     a80:	00b90d0e 	adcseq	r0, r9, lr, lsl #26
     a84:	e4070000 	str	r0, [r7], #-0
     a88:	04000003 	streq	r0, [r0], #-3
     a8c:	00b90d0f 	adcseq	r0, r9, pc, lsl #26
     a90:	55070000 	strpl	r0, [r7, #-0]
     a94:	04000003 	streq	r0, [r0], #-3
     a98:	00b90d10 	adcseq	r0, r9, r0, lsl sp
     a9c:	f3070000 	vhadd.u8	d0, d7, d0
     aa0:	04000003 	streq	r0, [r0], #-3
     aa4:	00b90d11 	adcseq	r0, r9, r1, lsl sp
     aa8:	76070000 	strvc	r0, [r7], -r0
     aac:	04000003 	streq	r0, [r0], #-3
     ab0:	00b90d12 	adcseq	r0, r9, r2, lsl sp
     ab4:	7c040000 	stcvc	0, cr0, [r4], {-0}
     ab8:	05000002 	streq	r0, [r0, #-2]
     abc:	01431b28 	cmpeq	r3, r8, lsr #22
     ac0:	8b0a0000 	blhi	280ac8 <__bss_end__+0x2774f8>
     ac4:	04000002 	streq	r0, [r0], #-2
     ac8:	015a0006 	cmpeq	sl, r6
     acc:	950b0000 	strls	r0, [fp, #-0]
     ad0:	5a000002 	bpl	ae0 <__code_start__-0x7520>
     ad4:	00000001 	andeq	r0, r0, r1
     ad8:	04040c00 	streq	r0, [r4], #-3072	; 0xfffff400
     adc:	0000028d 	andeq	r0, r0, sp, lsl #5
     ae0:	37186305 	ldrcc	r6, [r8, -r5, lsl #6]
     ae4:	0d000001 	stceq	0, cr0, [r0, #-4]
     ae8:	00000272 	andeq	r0, r0, r2, ror r2
     aec:	25058101 	strcs	r8, [r5, #-257]	; 0xfffffeff
     af0:	38000000 	stmdacc	r0, {}	; <UNPREDICTABLE>
     af4:	b8000085 	stmdalt	r0, {r0, r2, r7}
     af8:	01000004 	tsteq	r0, r4
     afc:	0007179c 	muleq	r7, ip, r7
     b00:	75620e00 	strbvc	r0, [r2, #-3584]!	; 0xfffff200
     b04:	81010066 	tsthi	r1, r6, rrx
     b08:	00071715 	andeq	r1, r7, r5, lsl r7
     b0c:	0004f600 	andeq	pc, r4, r0, lsl #12
     b10:	0004f000 	andeq	pc, r4, r0
     b14:	006e0e00 	rsbeq	r0, lr, r0, lsl #28
     b18:	251e8101 	ldrcs	r8, [lr, #-257]	; 0xfffffeff
     b1c:	28000000 	stmdacs	r0, {}	; <UNPREDICTABLE>
     b20:	22000005 	andcs	r0, r0, #5, 0
     b24:	0e000005 	cdpeq	0, 0, cr0, cr0, cr5, {0}
     b28:	00746d66 	rsbseq	r6, r4, r6, ror #26
     b2c:	b32d8101 			; <UNDEFINED> instruction: 0xb32d8101
     b30:	62000000 	andvs	r0, r0, #0, 0
     b34:	56000005 	strpl	r0, [r0], -r5
     b38:	0f000005 	svceq	0x00000005
     b3c:	0000026d 	andeq	r0, r0, sp, ror #4
     b40:	5c3a8101 	ldfpld	f0, [sl], #-4
     b44:	03000001 	movweq	r0, #1
     b48:	107dd491 			; <UNDEFINED> instruction: 0x107dd491
     b4c:	82010070 	andhi	r0, r1, #112, 0	; 0x70
     b50:	00071708 	andeq	r1, r7, r8, lsl #14
     b54:	0005c000 	andeq	ip, r5, r0
     b58:	0005ac00 	andeq	sl, r5, r0, lsl #24
     b5c:	00651000 	rsbeq	r1, r5, r0
     b60:	17128201 	ldrne	r8, [r2, -r1, lsl #4]
     b64:	42000007 	andmi	r0, r0, #7, 0
     b68:	3e000006 	cdpcc	0, 0, cr0, cr0, cr6, {0}
     b6c:	10000006 	andne	r0, r0, r6
     b70:	01003078 	tsteq	r0, r8, ror r0
     b74:	005d0e83 	subseq	r0, sp, r3, lsl #29
     b78:	066f0000 	strbteq	r0, [pc], -r0
     b7c:	06690000 	strbteq	r0, [r9], -r0
     b80:	78100000 	ldmdavc	r0, {}	; <UNPREDICTABLE>
     b84:	83010031 	movwhi	r0, #4145	; 0x1031
     b88:	00005d11 	andeq	r5, r0, r1, lsl sp
     b8c:	00069c00 	andeq	r9, r6, r0, lsl #24
     b90:	00069800 	andeq	r9, r6, r0, lsl #16
     b94:	039d1100 	orrseq	r1, sp, #0
     b98:	86010000 	strhi	r0, [r1], -r0
     b9c:	0000b311 	andeq	fp, r0, r1, lsl r3
     ba0:	0006be00 	andeq	fp, r6, r0, lsl #28
     ba4:	0006ba00 	andeq	fp, r6, r0, lsl #20
     ba8:	009c1200 	addseq	r1, ip, r0, lsl #4
     bac:	072d0000 	streq	r0, [sp, -r0]!
     bb0:	03050000 	movweq	r0, #20480	; 0x5000
     bb4:	000091b0 			; <UNDEFINED> instruction: 0x000091b0
     bb8:	0085a013 	addeq	sl, r5, r3, lsl r0
     bbc:	00040000 	andeq	r0, r4, r0
     bc0:	00731000 	rsbseq	r1, r3, r0
     bc4:	170a9101 	strne	r9, [sl, -r1, lsl #2]
     bc8:	f4000007 	vst4.8	{d0-d3}, [r0], r7
     bcc:	de000006 	cdple	0, 0, cr0, cr0, cr6, {0}
     bd0:	14000006 	strne	r0, [r0], #-6
     bd4:	006d756e 	rsbeq	r7, sp, lr, ror #10
     bd8:	320d9101 	andcc	r9, sp, #1073741824	; 0x40000000
     bdc:	03000007 	movweq	r0, #7
     be0:	157dd891 	ldrbne	sp, [sp, #-2193]!	; 0xfffff76f
     be4:	00000400 	andeq	r0, r0, r0, lsl #8
     be8:	32179101 	andscc	r9, r7, #1073741824	; 0x40000000
     bec:	03000007 	movweq	r0, #7
     bf0:	117ed891 			; <UNDEFINED> instruction: 0x117ed891
     bf4:	0000034f 	andeq	r0, r0, pc, asr #6
     bf8:	2c0d9201 	sfmcs	f1, 1, [sp], {1}
     bfc:	7b000000 	blvc	c04 <__code_start__-0x73fc>
     c00:	75000007 	strvc	r0, [r0, #-7]
     c04:	16000007 	strne	r0, [r0], -r7
     c08:	00008668 	andeq	r8, r0, r8, ror #12
     c0c:	000001a4 	andeq	r0, r0, r4, lsr #3
     c10:	00000539 	andeq	r0, r0, r9, lsr r5
     c14:	00797410 	rsbseq	r7, r9, r0, lsl r4
     c18:	b31d9e01 	tstlt	sp, #1, 28
     c1c:	af000000 	svcge	0x00000000
     c20:	a5000007 	strge	r0, [r0, #-7]
     c24:	17000007 	strne	r0, [r0, -r7]
     c28:	01007878 	tsteq	r0, r8, ror r8
     c2c:	00701aa2 	rsbseq	r1, r0, r2, lsr #21
     c30:	78180000 	ldmdavc	r8, {}	; <UNPREDICTABLE>
     c34:	92000086 	andls	r0, r0, #134, 0	; 0x86
     c38:	d500000a 	strle	r0, [r0, #-10]
     c3c:	19000002 	stmdbne	r0, {r1}
     c40:	76025001 	strvc	r5, [r2], -r1
     c44:	51011900 	tstpl	r1, r0, lsl #18
     c48:	90a40305 	adcls	r0, r4, r5, lsl #6
     c4c:	01190000 	tsteq	r9, r0
     c50:	00330152 	eorseq	r0, r3, r2, asr r1
     c54:	00869018 	addeq	r9, r6, r8, lsl r0
     c58:	000a9200 	andeq	r9, sl, r0, lsl #4
     c5c:	0002f700 	andeq	pc, r2, r0, lsl #14
     c60:	50011900 	andpl	r1, r1, r0, lsl #18
     c64:	19007602 	stmdbne	r0, {r1, r9, sl, ip, sp, lr}
     c68:	03055101 	movweq	r5, #20737	; 0x5101
     c6c:	000090a8 	andeq	r9, r0, r8, lsr #1
     c70:	01520119 	cmpeq	r2, r9, lsl r1
     c74:	c4180033 	ldrgt	r0, [r8], #-51	; 0xffffffcd
     c78:	9e000086 	cdpls	0, 0, cr0, cr0, cr6, {4}
     c7c:	1400000a 	strne	r0, [r0], #-10
     c80:	19000003 	stmdbne	r0, {r0, r1}
     c84:	03055001 	movweq	r5, #20481	; 0x5001
     c88:	000090ac 	andeq	r9, r0, ip, lsr #1
     c8c:	02510119 	subseq	r0, r1, #1073741830	; 0x40000006
     c90:	18000077 	stmdane	r0, {r0, r1, r2, r4, r5, r6}
     c94:	000086d0 	ldrdeq	r8, [r0], -r0
     c98:	00000a9e 	muleq	r0, lr, sl
     c9c:	00000331 	andeq	r0, r0, r1, lsr r3
     ca0:	05500119 	ldrbeq	r0, [r0, #-281]	; 0xfffffee7
     ca4:	0090b403 	addseq	fp, r0, r3, lsl #8
     ca8:	51011900 	tstpl	r1, r0, lsl #18
     cac:	00007a02 	andeq	r7, r0, r2, lsl #20
     cb0:	0086e018 	addeq	lr, r6, r8, lsl r0
     cb4:	000a9200 	andeq	r9, sl, r0, lsl #4
     cb8:	00035300 	andeq	r5, r3, r0, lsl #6
     cbc:	50011900 	andpl	r1, r1, r0, lsl #18
     cc0:	19007602 	stmdbne	r0, {r1, r9, sl, ip, sp, lr}
     cc4:	03055101 	movweq	r5, #20737	; 0x5101
     cc8:	000090a4 	andeq	r9, r0, r4, lsr #1
     ccc:	01520119 	cmpeq	r2, r9, lsl r1
     cd0:	f8180033 			; <UNDEFINED> instruction: 0xf8180033
     cd4:	92000086 	andls	r0, r0, #134, 0	; 0x86
     cd8:	7500000a 	strvc	r0, [r0, #-10]
     cdc:	19000003 	stmdbne	r0, {r0, r1}
     ce0:	76025001 	strvc	r5, [r2], -r1
     ce4:	51011900 	tstpl	r1, r0, lsl #18
     ce8:	90a80305 	adcls	r0, r8, r5, lsl #6
     cec:	01190000 	tsteq	r9, r0
     cf0:	00330152 	eorseq	r0, r3, r2, asr r1
     cf4:	00872018 	addeq	r2, r7, r8, lsl r0
     cf8:	00074200 	andeq	r4, r7, r0, lsl #4
     cfc:	0003a900 	andeq	sl, r3, r0, lsl #18
     d00:	50011900 	andpl	r1, r1, r0, lsl #18
     d04:	01193a01 	tsteq	r9, r1, lsl #20
     d08:	d0910351 	addsle	r0, r1, r1, asr r3
     d0c:	5201197d 	andpl	r1, r1, #2048000	; 0x1f4000
     d10:	19800802 	stmibne	r0, {r1, fp}
     d14:	77025301 	strvc	r5, [r2, -r1, lsl #6]
     d18:	7d021900 	vstrvc.16	s2, [r2, #-0]	; <UNPREDICTABLE>
     d1c:	00750200 	rsbseq	r0, r5, r0, lsl #4
     d20:	047d0219 	ldrbteq	r0, [sp], #-537	; 0xfffffde7
     d24:	00007602 	andeq	r7, r0, r2, lsl #12
     d28:	00874018 	addeq	r4, r7, r8, lsl r0
     d2c:	00074200 	andeq	r4, r7, r0, lsl #4
     d30:	0003dd00 	andeq	sp, r3, r0, lsl #26
     d34:	50011900 	andpl	r1, r1, r0, lsl #18
     d38:	01193a01 	tsteq	r9, r1, lsl #20
     d3c:	d0910351 	addsle	r0, r1, r1, asr r3
     d40:	5201197e 	andpl	r1, r1, #2064384	; 0x1f8000
     d44:	19800802 	stmibne	r0, {r1, fp}
     d48:	7a025301 	bvc	95954 <__bss_end__+0x8c384>
     d4c:	7d021900 	vstrvc.16	s2, [r2, #-0]	; <UNPREDICTABLE>
     d50:	00750200 	rsbseq	r0, r5, r0, lsl #4
     d54:	047d0219 	ldrbteq	r0, [sp], #-537	; 0xfffffde7
     d58:	00007602 	andeq	r7, r0, r2, lsl #12
     d5c:	00874c18 	addeq	r4, r7, r8, lsl ip
     d60:	000aaa00 	andeq	sl, sl, r0, lsl #20
     d64:	0003fb00 	andeq	pc, r3, r0, lsl #22
     d68:	50011900 	andpl	r1, r1, r0, lsl #18
     d6c:	7dd09103 	ldfvcp	f1, [r0, #12]
     d70:	05510119 	ldrbeq	r0, [r1, #-281]	; 0xfffffee7
     d74:	00906803 	addseq	r6, r0, r3, lsl #16
     d78:	60180000 	andsvs	r0, r8, r0
     d7c:	b6000087 	strlt	r0, [r0], -r7, lsl #1
     d80:	1700000a 	strne	r0, [r0, -sl]
     d84:	19000004 	stmdbne	r0, {r2}
     d88:	91035001 	tstls	r3, r1
     d8c:	01197dd0 			; <UNDEFINED> instruction: 0x01197dd0
     d90:	d0910351 	addsle	r0, r1, r1, asr r3
     d94:	8418007e 	ldrhi	r0, [r8], #-126	; 0xffffff82
     d98:	9e000087 	cdpls	0, 0, cr0, cr0, cr7, {4}
     d9c:	5000000a 	andpl	r0, r0, sl
     da0:	19000004 	stmdbne	r0, {r2}
     da4:	03055001 	movweq	r5, #20481	; 0x5001
     da8:	00008fb0 			; <UNDEFINED> instruction: 0x00008fb0
     dac:	05510119 	ldrbeq	r0, [r1, #-281]	; 0xfffffee7
     db0:	00905403 	addseq	r5, r0, r3, lsl #8
     db4:	52011900 	andpl	r1, r1, #0, 18
     db8:	91b00305 	lslsls	r0, r5, #6
     dbc:	01190000 	tsteq	r9, r0
     dc0:	9f080253 	svcls	0x00080253
     dc4:	007d0219 	rsbseq	r0, sp, r9, lsl r2
     dc8:	90bc0305 	adcsls	r0, ip, r5, lsl #6
     dcc:	1a000000 	bne	dd4 <__code_start__-0x722c>
     dd0:	00008788 	andeq	r8, r0, r8, lsl #15
     dd4:	00000ac2 	andeq	r0, r0, r2, asr #21
     dd8:	0087a818 	addeq	sl, r7, r8, lsl r8
     ddc:	00074200 	andeq	r4, r7, r0, lsl #4
     de0:	00048d00 	andeq	r8, r4, r0, lsl #26
     de4:	50011900 	andpl	r1, r1, r0, lsl #18
     de8:	01194001 	tsteq	r9, r1
     dec:	d0910351 	addsle	r0, r1, r1, asr r3
     df0:	5201197d 	andpl	r1, r1, #2048000	; 0x1f4000
     df4:	19800802 	stmibne	r0, {r1, fp}
     df8:	77025301 	strvc	r5, [r2, -r1, lsl #6]
     dfc:	7d021900 	vstrvc.16	s2, [r2, #-0]	; <UNPREDICTABLE>
     e00:	00750200 	rsbseq	r0, r5, r0, lsl #4
     e04:	047d0219 	ldrbteq	r0, [sp], #-537	; 0xfffffde7
     e08:	00007602 	andeq	r7, r0, r2, lsl #12
     e0c:	0087c818 	addeq	ip, r7, r8, lsl r8
     e10:	00074200 	andeq	r4, r7, r0, lsl #4
     e14:	0004c100 	andeq	ip, r4, r0, lsl #2
     e18:	50011900 	andpl	r1, r1, r0, lsl #18
     e1c:	01194001 	tsteq	r9, r1
     e20:	d0910351 	addsle	r0, r1, r1, asr r3
     e24:	5201197e 	andpl	r1, r1, #2064384	; 0x1f8000
     e28:	19800802 	stmibne	r0, {r1, fp}
     e2c:	7a025301 	bvc	95a38 <__bss_end__+0x8c468>
     e30:	7d021900 	vstrvc.16	s2, [r2, #-0]	; <UNPREDICTABLE>
     e34:	00750200 	rsbseq	r0, r5, r0, lsl #4
     e38:	047d0219 	ldrbteq	r0, [sp], #-537	; 0xfffffde7
     e3c:	00007602 	andeq	r7, r0, r2, lsl #12
     e40:	0087d418 	addeq	sp, r7, r8, lsl r4
     e44:	000ace00 	andeq	ip, sl, r0, lsl #28
     e48:	0004dd00 	andeq	sp, r4, r0, lsl #26
     e4c:	50011900 	andpl	r1, r1, r0, lsl #18
     e50:	7dd09103 	ldfvcp	f1, [r0, #12]
     e54:	03510119 	cmpeq	r1, #1073741830	; 0x40000006
     e58:	007ed291 			; <UNDEFINED> instruction: 0x007ed291
     e5c:	0087e818 	addeq	lr, r7, r8, lsl r8
     e60:	000ace00 	andeq	ip, sl, r0, lsl #28
     e64:	0004f900 	andeq	pc, r4, r0, lsl #18
     e68:	50011900 	andpl	r1, r1, r0, lsl #18
     e6c:	7dd09103 	ldfvcp	f1, [r0, #12]
     e70:	03510119 	cmpeq	r1, #1073741830	; 0x40000006
     e74:	007ed091 			; <UNDEFINED> instruction: 0x007ed091
     e78:	00880818 	addeq	r0, r8, r8, lsl r8
     e7c:	000a9e00 	andeq	r9, sl, r0, lsl #28
     e80:	00052f00 	andeq	r2, r5, r0, lsl #30
     e84:	50011900 	andpl	r1, r1, r0, lsl #18
     e88:	90f80305 	rscsls	r0, r8, r5, lsl #6
     e8c:	01190000 	tsteq	r9, r0
     e90:	54030551 	strpl	r0, [r3], #-1361	; 0xfffffaaf
     e94:	19000090 	stmdbne	r0, {r4, r7}
     e98:	03055201 	movweq	r5, #20993	; 0x5201
     e9c:	000091b0 			; <UNDEFINED> instruction: 0x000091b0
     ea0:	02530119 	subseq	r0, r3, #1073741830	; 0x40000006
     ea4:	0219b608 	andseq	fp, r9, #8, 12	; 0x800000
     ea8:	7602007d 			; <UNDEFINED> instruction: 0x7602007d
     eac:	0c1a0000 	ldceq	0, cr0, [sl], {-0}
     eb0:	c2000088 	andgt	r0, r0, #136, 0	; 0x88
     eb4:	0000000a 	andeq	r0, r0, sl
     eb8:	0085b818 	addeq	fp, r5, r8, lsl r8
     ebc:	0009c000 	andeq	ip, r9, r0
     ec0:	00054d00 	andeq	r4, r5, r0, lsl #26
     ec4:	50011900 	andpl	r1, r1, r0, lsl #18
     ec8:	00007702 	andeq	r7, r0, r2, lsl #14
     ecc:	00866418 	addeq	r6, r6, r8, lsl r4
     ed0:	000a9e00 	andeq	r9, sl, r0, lsl #28
     ed4:	00058600 	andeq	r8, r5, r0, lsl #12
     ed8:	50011900 	andpl	r1, r1, r0, lsl #18
     edc:	8fb00305 	svchi	0x00b00305
     ee0:	01190000 	tsteq	r9, r0
     ee4:	54030551 	strpl	r0, [r3], #-1361	; 0xfffffaaf
     ee8:	19000090 	stmdbne	r0, {r4, r7}
     eec:	03055201 	movweq	r5, #20993	; 0x5201
     ef0:	000091b0 			; <UNDEFINED> instruction: 0x000091b0
     ef4:	02530119 	subseq	r0, r3, #1073741830	; 0x40000006
     ef8:	02199808 	andseq	r9, r9, #8, 16	; 0x80000
     efc:	0305007d 	movweq	r0, #20605	; 0x507d
     f00:	00009098 	muleq	r0, r8, r0
     f04:	86681a00 	strbthi	r1, [r8], -r0, lsl #20
     f08:	0ac20000 	beq	ff080f10 <__bss_end__+0xff077940>
     f0c:	20180000 	andscs	r0, r8, r0
     f10:	9e000088 	cdpls	0, 0, cr0, cr0, cr8, {4}
     f14:	be00000a 	cdplt	0, 0, cr0, cr0, cr10, {0}
     f18:	19000005 	stmdbne	r0, {r0, r2}
     f1c:	03055001 	movweq	r5, #20481	; 0x5001
     f20:	00009120 	andeq	r9, r0, r0, lsr #2
     f24:	05510119 	ldrbeq	r0, [r1, #-281]	; 0xfffffee7
     f28:	00905403 	addseq	r5, r0, r3, lsl #8
     f2c:	52011900 	andpl	r1, r1, #0, 18
     f30:	91b00305 	lslsls	r0, r5, #6
     f34:	01190000 	tsteq	r9, r0
     f38:	be080253 	mcrlt	2, 0, r0, cr8, cr3, {2}
     f3c:	88241a00 	stmdahi	r4!, {r9, fp, ip}
     f40:	0ac20000 	beq	ff080f48 <__bss_end__+0xff077978>
     f44:	50180000 	andspl	r0, r8, r0
     f48:	42000088 	andmi	r0, r0, #136, 0	; 0x88
     f4c:	f4000007 	vst4.8	{d0-d3}, [r0], r7
     f50:	19000005 	stmdbne	r0, {r0, r2}
     f54:	3a015001 	bcc	54f60 <__bss_end__+0x4b990>
     f58:	03510119 	cmpeq	r1, #1073741830	; 0x40000006
     f5c:	197dd091 	ldmdbne	sp!, {r0, r4, r7, ip, lr, pc}^
     f60:	08025201 	stmdaeq	r2, {r0, r9, ip, lr}
     f64:	7d021980 	vstrvc.16	s2, [r2, #-256]	; 0xffffff00	; <UNPREDICTABLE>
     f68:	00750200 	rsbseq	r0, r5, r0, lsl #4
     f6c:	047d0219 	ldrbteq	r0, [sp], #-537	; 0xfffffde7
     f70:	18003101 	stmdane	r0, {r0, r8, ip, sp}
     f74:	00008888 	andeq	r8, r0, r8, lsl #17
     f78:	00000742 	andeq	r0, r0, r2, asr #14
     f7c:	00000621 	andeq	r0, r0, r1, lsr #12
     f80:	01500119 	cmpeq	r0, r9, lsl r1
     f84:	5101193a 	tstpl	r1, sl, lsr r9
     f88:	7dd09103 	ldfvcp	f1, [r0, #12]
     f8c:	02520119 	subseq	r0, r2, #1073741830	; 0x40000006
     f90:	02198008 	andseq	r8, r9, #8, 0
     f94:	7502007d 	strvc	r0, [r2, #-125]	; 0xffffff83
     f98:	7d021900 	vstrvc.16	s2, [r2, #-0]	; <UNPREDICTABLE>
     f9c:	00300104 	eorseq	r0, r0, r4, lsl #2
     fa0:	0088bc18 	addeq	fp, r8, r8, lsl ip
     fa4:	00074200 	andeq	r4, r7, r0, lsl #4
     fa8:	00064e00 	andeq	r4, r6, r0, lsl #28
     fac:	50011900 	andpl	r1, r1, r0, lsl #18
     fb0:	01194001 	tsteq	r9, r1
     fb4:	d0910351 	addsle	r0, r1, r1, asr r3
     fb8:	5201197d 	andpl	r1, r1, #2048000	; 0x1f4000
     fbc:	19800802 	stmibne	r0, {r1, fp}
     fc0:	02007d02 	andeq	r7, r0, #128	; 0x80
     fc4:	02190075 	andseq	r0, r9, #117, 0	; 0x75
     fc8:	3001047d 	andcc	r0, r1, sp, ror r4
     fcc:	88f01800 	ldmhi	r0!, {fp, ip}^
     fd0:	07420000 	strbeq	r0, [r2, -r0]
     fd4:	067b0000 	ldrbteq	r0, [fp], -r0
     fd8:	01190000 	tsteq	r9, r0
     fdc:	19320150 	ldmdbne	r2!, {r4, r6, r8}
     fe0:	91035101 	tstls	r3, r1, lsl #2
     fe4:	01197dd0 			; <UNDEFINED> instruction: 0x01197dd0
     fe8:	80080252 	andhi	r0, r8, r2, asr r2
     fec:	007d0219 	rsbseq	r0, sp, r9, lsl r2
     ff0:	19007502 	stmdbne	r0, {r1, r8, sl, ip, sp, lr}
     ff4:	01047d02 	tsteq	r4, r2, lsl #26
     ff8:	38180030 	ldmdacc	r8, {r4, r5}
     ffc:	42000089 	andmi	r0, r0, #137, 0	; 0x89
    1000:	a8000007 	stmdage	r0, {r0, r1, r2}
    1004:	19000006 	stmdbne	r0, {r1, r2}
    1008:	38015001 	stmdacc	r1, {r0, ip, lr}
    100c:	03510119 	cmpeq	r1, #1073741830	; 0x40000006
    1010:	197dd091 	ldmdbne	sp!, {r0, r4, r7, ip, lr, pc}^
    1014:	08025201 	stmdaeq	r2, {r0, r9, ip, lr}
    1018:	7d021980 	vstrvc.16	s2, [r2, #-256]	; 0xffffff00	; <UNPREDICTABLE>
    101c:	00750200 	rsbseq	r0, r5, r0, lsl #4
    1020:	047d0219 	ldrbteq	r0, [sp], #-537	; 0xfffffde7
    1024:	18003001 	stmdane	r0, {r0, ip, sp}
    1028:	00008958 	andeq	r8, r0, r8, asr r9
    102c:	00000a9e 	muleq	r0, lr, sl
    1030:	000006cb 	andeq	r0, r0, fp, asr #13
    1034:	05500119 	ldrbeq	r0, [r0, #-281]	; 0xfffffee7
    1038:	00914803 	addseq	r4, r1, r3, lsl #16
    103c:	51011900 	tstpl	r1, r0, lsl #18
    1040:	19007a02 	stmdbne	r0, {r1, r9, fp, ip, sp, lr}
    1044:	7a025201 	bvc	95850 <__bss_end__+0x8c280>
    1048:	681b0000 	ldmdavs	fp, {}	; <UNPREDICTABLE>
    104c:	dd000089 	stcle	0, cr0, [r0, #-548]	; 0xfffffddc
    1050:	19000006 	stmdbne	r0, {r1, r2}
    1054:	91045001 	tstls	r4, r1
    1058:	00067dc8 	andeq	r7, r6, r8, asr #27
    105c:	00897c18 	addeq	r7, r9, r8, lsl ip
    1060:	000a9e00 	andeq	r9, sl, r0, lsl #28
    1064:	00070c00 	andeq	r0, r7, r0, lsl #24
    1068:	50011900 	andpl	r1, r1, r0, lsl #18
    106c:	91780305 	cmnls	r8, r5, lsl #6
    1070:	01190000 	tsteq	r9, r0
    1074:	54030551 	strpl	r0, [r3], #-1361	; 0xfffffaaf
    1078:	19000090 	stmdbne	r0, {r4, r7}
    107c:	03055201 	movweq	r5, #20993	; 0x5201
    1080:	000091b0 			; <UNDEFINED> instruction: 0x000091b0
    1084:	02530119 	subseq	r0, r3, #1073741830	; 0x40000006
    1088:	1a00e208 	bne	398b0 <__bss_end__+0x302e0>
    108c:	00008980 	andeq	r8, r0, r0, lsl #19
    1090:	00000ac2 	andeq	r0, r0, r2, asr #21
    1094:	04080000 	streq	r0, [r8], #-0
    1098:	000000b9 	strheq	r0, [r0], -r9
    109c:	0000c01c 	andeq	ip, r0, ip, lsl r0
    10a0:	00072d00 	andeq	r2, r7, r0, lsl #26
    10a4:	002c1d00 	eoreq	r1, ip, r0, lsl #26
    10a8:	00090000 	andeq	r0, r9, r0
    10ac:	00071d09 	andeq	r1, r7, r9, lsl #26
    10b0:	00b91c00 	adcseq	r1, r9, r0, lsl #24
    10b4:	07420000 	strbeq	r0, [r2, -r0]
    10b8:	2c1d0000 	ldccs	0, cr0, [sp], {-0}
    10bc:	7f000000 	svcvc	0x00000000
    10c0:	03c81e00 	biceq	r1, r8, #0, 28
    10c4:	49010000 	stmdbmi	r1, {}	; <UNPREDICTABLE>
    10c8:	00071701 	andeq	r1, r7, r1, lsl #14
    10cc:	00832000 	addeq	r2, r3, r0
    10d0:	0001b400 	andeq	fp, r1, r0, lsl #8
    10d4:	ab9c0100 	blge	fe7014dc <__bss_end__+0xfe6f7f0c>
    10d8:	1f000008 	svcne	0x00000008
    10dc:	0000040d 	andeq	r0, r0, sp, lsl #8
    10e0:	2c0f4901 			; <UNDEFINED> instruction: 0x2c0f4901
    10e4:	f8000000 			; <UNDEFINED> instruction: 0xf8000000
    10e8:	f2000007 	vhadd.s8	d0, d0, d7
    10ec:	0e000007 	cdpeq	0, 0, cr0, cr0, cr7, {0}
    10f0:	00747364 	rsbseq	r7, r4, r4, ror #6
    10f4:	171b4901 	ldrne	r4, [fp, -r1, lsl #18]
    10f8:	36000007 	strcc	r0, [r0], -r7
    10fc:	26000008 	strcs	r0, [r0], -r8
    1100:	0e000008 	cdpeq	0, 0, cr0, cr0, cr8, {0}
    1104:	4901006e 	stmdbmi	r1, {r1, r2, r3, r5, r6}
    1108:	00002524 	andeq	r2, r0, r4, lsr #10
    110c:	00089a00 	andeq	r9, r8, r0, lsl #20
    1110:	00089600 	andeq	r9, r8, r0, lsl #12
    1114:	61760e00 	cmnvs	r6, r0, lsl #28
    1118:	4901006c 	stmdbmi	r1, {r2, r3, r5, r6}
    111c:	0000252b 	andeq	r2, r0, fp, lsr #10
    1120:	0008c400 	andeq	ip, r8, r0, lsl #8
    1124:	0008b800 	andeq	fp, r8, r0, lsl #16
    1128:	034f1f00 	movteq	r1, #65280	; 0xff00
    112c:	49010000 	stmdbmi	r1, {}	; <UNPREDICTABLE>
    1130:	00002534 	andeq	r2, r0, r4, lsr r5
    1134:	00091a00 	andeq	r1, r9, r0, lsl #20
    1138:	00091400 	andeq	r1, r9, r0, lsl #8
    113c:	04120f00 	ldreq	r0, [r2], #-3840	; 0xfffff100
    1140:	49010000 	stmdbmi	r1, {}	; <UNPREDICTABLE>
    1144:	0000253f 	andeq	r2, r0, pc, lsr r5
    1148:	04910200 	ldreq	r0, [r1], #512	; 0x200
    114c:	66756214 			; <UNDEFINED> instruction: 0x66756214
    1150:	074e0100 	strbeq	r0, [lr, -r0, lsl #2]
    1154:	000008ab 	andeq	r0, r0, fp, lsr #17
    1158:	7fa89103 	svcvc	0x00a89103
    115c:	01007010 	tsteq	r0, r0, lsl r0
    1160:	0717114e 	ldreq	r1, [r7, -lr, asr #2]
    1164:	09640000 	stmdbeq	r4!, {}^	; <UNPREDICTABLE>
    1168:	09440000 	stmdbeq	r4, {}^	; <UNPREDICTABLE>
    116c:	75100000 	ldrvc	r0, [r0, #-0]
    1170:	0b4f0100 	bleq	13c1578 <__bss_end__+0x13b7fa8>
    1174:	0000002c 	andeq	r0, r0, ip, lsr #32
    1178:	00000a4a 	andeq	r0, r0, sl, asr #20
    117c:	00000a36 	andeq	r0, r0, r6, lsr sl
    1180:	00009c12 	andeq	r9, r0, r2, lsl ip
    1184:	0008cb00 	andeq	ip, r8, r0, lsl #22
    1188:	98030500 	stmdals	r3, {r8, sl}
    118c:	16000091 			; <UNDEFINED> instruction: 0x16000091
    1190:	0000838c 	andeq	r8, r0, ip, lsl #7
    1194:	00000078 	andeq	r0, r0, r8, ror r0
    1198:	00000832 	andeq	r0, r0, r2, lsr r8
    119c:	0003b511 	andeq	fp, r3, r1, lsl r5
    11a0:	0d540100 	ldfeqe	f0, [r4, #-0]
    11a4:	0000002c 	andeq	r0, r0, ip, lsr #32
    11a8:	00000acb 	andeq	r0, r0, fp, asr #21
    11ac:	00000ac3 	andeq	r0, r0, r3, asr #21
    11b0:	84441800 	strbhi	r1, [r4], #-2048	; 0xfffff800
    11b4:	095d0000 	ldmdbeq	sp, {}^	; <UNPREDICTABLE>
    11b8:	08470000 	stmdaeq	r7, {}^	; <UNPREDICTABLE>
    11bc:	01190000 	tsteq	r9, r0
    11c0:	a0910351 	addsge	r0, r1, r1, asr r3
    11c4:	5818007f 	ldmdapl	r8, {r0, r1, r2, r3, r4, r5, r6}
    11c8:	d0000084 	andle	r0, r0, r4, lsl #1
    11cc:	68000008 	stmdavs	r0, {r3}
    11d0:	19000008 	stmdbne	r0, {r3}
    11d4:	75025001 	strvc	r5, [r2, #-1]
    11d8:	51011900 	tstpl	r1, r0, lsl #18
    11dc:	19007402 	stmdbne	r0, {r1, sl, ip, sp, lr}
    11e0:	91035301 	tstls	r3, r1, lsl #6
    11e4:	18007fa0 	stmdane	r0, {r5, r7, r8, r9, sl, fp, ip, sp, lr}
    11e8:	000084b0 			; <UNDEFINED> instruction: 0x000084b0
    11ec:	00000a9e 	muleq	r0, lr, sl
    11f0:	000008a1 	andeq	r0, r0, r1, lsr #17
    11f4:	05500119 	ldrbeq	r0, [r0, #-281]	; 0xfffffee7
    11f8:	008fb003 	addeq	fp, pc, r3
    11fc:	51011900 	tstpl	r1, r0, lsl #18
    1200:	90540305 	subsls	r0, r4, r5, lsl #6
    1204:	01190000 	tsteq	r9, r0
    1208:	98030552 	stmdals	r3, {r1, r4, r6, r8, sl}
    120c:	19000091 	stmdbne	r0, {r0, r4, r7}
    1210:	08025301 	stmdaeq	r2, {r0, r8, r9, ip, lr}
    1214:	7d021979 	vstrvc.16	s2, [r2, #-242]	; 0xffffff0e	; <UNPREDICTABLE>
    1218:	68030500 	stmdavs	r3, {r8, sl}
    121c:	00000090 	muleq	r0, r0, r0
    1220:	0084b41a 	addeq	fp, r4, sl, lsl r4
    1224:	000ac200 	andeq	ip, sl, r0, lsl #4
    1228:	b91c0000 	ldmdblt	ip, {}	; <UNPREDICTABLE>
    122c:	bb000000 	bllt	1234 <__code_start__-0x6dcc>
    1230:	1d000008 	stcne	0, cr0, [r0, #-32]	; 0xffffffe0
    1234:	0000002c 	andeq	r0, r0, ip, lsr #32
    1238:	c01c003f 	andsgt	r0, ip, pc, lsr r0
    123c:	cb000000 	blgt	1244 <__code_start__-0x6dbc>
    1240:	1d000008 	stcne	0, cr0, [r0, #-32]	; 0xffffffe0
    1244:	0000002c 	andeq	r0, r0, ip, lsr #32
    1248:	bb090004 	bllt	241260 <__bss_end__+0x237c90>
    124c:	1e000008 	cdpne	0, 0, cr0, cr0, cr8, {0}
    1250:	000003d5 	ldrdeq	r0, [r0], -r5
    1254:	170e3801 	strne	r3, [lr, -r1, lsl #16]
    1258:	e8000007 	stmda	r0, {r0, r1, r2}
    125c:	38000082 	stmdacc	r0, {r1, r7}
    1260:	01000000 	mrseq	r0, (UNDEF: 0)
    1264:	00095d9c 	muleq	r9, ip, sp
    1268:	73640e00 	cmnvc	r4, #0, 28
    126c:	38010074 	stmdacc	r1, {r2, r4, r5, r6}
    1270:	0007171c 	andeq	r1, r7, ip, lsl r7
    1274:	000b0c00 	andeq	r0, fp, r0, lsl #24
    1278:	000b0200 	andeq	r0, fp, r0, lsl #4
    127c:	006e0e00 	rsbeq	r0, lr, r0, lsl #28
    1280:	25253801 	strcs	r3, [r5, #-2049]!	; 0xfffff7ff
    1284:	53000000 	movwpl	r0, #0
    1288:	4f00000b 	svcmi	0x0000000b
    128c:	0e00000b 	cdpeq	0, 0, cr0, cr0, cr11, {0}
    1290:	38010070 	stmdacc	r1, {r4, r5, r6}
    1294:	0007172e 	andeq	r1, r7, lr, lsr #14
    1298:	000b7c00 	andeq	r7, fp, r0, lsl #24
    129c:	000b7400 	andeq	r7, fp, r0, lsl #8
    12a0:	03a11f00 			; <UNDEFINED> instruction: 0x03a11f00
    12a4:	38010000 	stmdacc	r1, {}	; <UNPREDICTABLE>
    12a8:	00071737 	andeq	r1, r7, r7, lsr r7
    12ac:	000bb600 	andeq	fp, fp, r0, lsl #12
    12b0:	000bb200 	andeq	fp, fp, r0, lsl #4
    12b4:	656c1000 	strbvs	r1, [ip, #-0]!
    12b8:	3a01006e 	bcc	41478 <__bss_end__+0x37ea8>
    12bc:	00002506 	andeq	r2, r0, r6, lsl #10
    12c0:	000bdc00 	andeq	sp, fp, r0, lsl #24
    12c4:	000bd400 	andeq	sp, fp, r0, lsl #8
    12c8:	00731000 	rsbseq	r1, r3, r0
    12cc:	17083e01 	strne	r3, [r8, -r1, lsl #28]
    12d0:	2a000007 	bcs	12f4 <__code_start__-0x6d0c>
    12d4:	2800000c 	stmdacs	r0, {r2, r3}
    12d8:	0000000c 	andeq	r0, r0, ip
    12dc:	64617020 	strbtvs	r7, [r1], #-32	; 0xffffffe0
    12e0:	0e2e0100 	sufeqe	f0, f6, f0
    12e4:	00000717 	andeq	r0, r0, r7, lsl r7
    12e8:	000082c4 	andeq	r8, r0, r4, asr #5
    12ec:	00000024 	andeq	r0, r0, r4, lsr #32
    12f0:	09c09c01 	stmibeq	r0, {r0, sl, fp, ip, pc}^
    12f4:	700e0000 	andvc	r0, lr, r0
    12f8:	182e0100 	stmdane	lr!, {r8}
    12fc:	00000717 	andeq	r0, r0, r7, lsl r7
    1300:	00000c43 	andeq	r0, r0, r3, asr #24
    1304:	00000c3d 	andeq	r0, r0, sp, lsr ip
    1308:	00040d1f 	andeq	r0, r4, pc, lsl sp
    130c:	222e0100 	eorcs	r0, lr, #0
    1310:	00000717 	andeq	r0, r0, r7, lsl r7
    1314:	00000c72 	andeq	r0, r0, r2, ror ip
    1318:	00000c6e 	andeq	r0, r0, lr, ror #24
    131c:	00034f0f 	andeq	r4, r3, pc, lsl #30
    1320:	2c2e0100 	stfcss	f0, [lr], #-0
    1324:	00000025 	andeq	r0, r0, r5, lsr #32
    1328:	6c105201 	lfmvs	f5, 4, [r0], {1}
    132c:	01006e65 	tsteq	r0, r5, ror #28
    1330:	0025062f 	eoreq	r0, r5, pc, lsr #12
    1334:	0c950000 	ldceq	0, cr0, [r5], {0}
    1338:	0c930000 	ldceq	0, cr0, [r3], {0}
    133c:	1e000000 	cdpne	0, 0, cr0, cr0, cr0, {0}
    1340:	0000030e 	andeq	r0, r0, lr, lsl #6
    1344:	250c2701 	strcs	r2, [ip, #-1793]	; 0xfffff8ff
    1348:	b0000000 	andlt	r0, r0, r0
    134c:	14000082 	strne	r0, [r0], #-130	; 0xffffff7e
    1350:	01000000 	mrseq	r0, (UNDEF: 0)
    1354:	0009ed9c 	muleq	r9, ip, sp
    1358:	00630e00 	rsbeq	r0, r3, r0, lsl #28
    135c:	25182701 	ldrcs	r2, [r8, #-1793]	; 0xfffff8ff
    1360:	ae000000 	cdpge	0, 0, cr0, cr0, cr0, {0}
    1364:	a800000c 	stmdage	r0, {r2, r3}
    1368:	0000000c 	andeq	r0, r0, ip
    136c:	00038e21 	andeq	r8, r3, r1, lsr #28
    1370:	061f0100 	ldreq	r0, [pc], -r0, lsl #2
    1374:	000084d4 	ldrdeq	r8, [r0], -r4
    1378:	00000064 	andeq	r0, r0, r4, rrx
    137c:	0a7d9c01 	beq	1f68388 <__bss_end__+0x1f5edb8>
    1380:	621f0000 	andsvs	r0, pc, #0, 0
    1384:	01000003 	tsteq	r0, r3
    1388:	009e1b1f 	addseq	r1, lr, pc, lsl fp
    138c:	0ce00000 	stcleq	0, cr0, [r0]
    1390:	0cdc0000 	ldcleq	0, cr0, [ip], {0}
    1394:	cd1f0000 	ldcgt	0, cr0, [pc, #-0]	; 139c <__code_start__-0x6c64>
    1398:	01000003 	tsteq	r0, r3
    139c:	00d1301f 	sbcseq	r3, r1, pc, lsl r0
    13a0:	0d050000 	stceq	0, cr0, [r5, #-0]
    13a4:	0d010000 	stceq	0, cr0, [r1, #-0]
    13a8:	9c120000 	ldcls	0, cr0, [r2], {-0}
    13ac:	8d000000 	stchi	0, cr0, [r0, #-0]
    13b0:	0500000a 	streq	r0, [r0, #-10]
    13b4:	0091a003 	addseq	sl, r1, r3
    13b8:	851c1800 	ldrhi	r1, [ip, #-2048]	; 0xfffff800
    13bc:	0a9e0000 	beq	fe7813c4 <__bss_end__+0xfe777df4>
    13c0:	0a730000 	beq	1cc13c8 <__bss_end__+0x1cb7df8>
    13c4:	01190000 	tsteq	r9, r0
    13c8:	b0030550 	andlt	r0, r3, r0, asr r5
    13cc:	1900008f 	stmdbne	r0, {r0, r1, r2, r3, r7}
    13d0:	03055101 	movweq	r5, #20737	; 0x5101
    13d4:	00009054 	andeq	r9, r0, r4, asr r0
    13d8:	05520119 	ldrbeq	r0, [r2, #-281]	; 0xfffffee7
    13dc:	0091a003 	addseq	sl, r1, r3
    13e0:	53011900 	movwpl	r1, #6400	; 0x1900
    13e4:	19200802 	stmdbne	r0!, {r1, fp}
    13e8:	05007d02 	streq	r7, [r0, #-3330]	; 0xfffff2fe
    13ec:	00909003 	addseq	r9, r0, r3
    13f0:	201a0000 	andscs	r0, sl, r0
    13f4:	c2000085 	andgt	r0, r0, #133, 0	; 0x85
    13f8:	0000000a 	andeq	r0, r0, sl
    13fc:	0000c01c 	andeq	ip, r0, ip, lsl r0
    1400:	000a8d00 	andeq	r8, sl, r0, lsl #26
    1404:	002c1d00 	eoreq	r1, ip, r0, lsl #26
    1408:	000e0000 	andeq	r0, lr, r0
    140c:	000a7d09 	andeq	r7, sl, r9, lsl #26
    1410:	04052200 	streq	r2, [r5], #-512	; 0xfffffe00
    1414:	04050000 	streq	r0, [r5], #-0
    1418:	eb030000 	bl	c1420 <__bss_end__+0xb7e50>
    141c:	02752205 	rsbseq	r2, r5, #1342177280	; 0x50000000
    1420:	02750000 	rsbseq	r0, r5, #0, 0
    1424:	28030000 	stmdacs	r3, {}	; <UNPREDICTABLE>
    1428:	03dd2206 	bicseq	r2, sp, #1610612736	; 0x60000000
    142c:	03dd0000 	bicseq	r0, sp, #0, 0
    1430:	ea030000 	b	c1438 <__bss_end__+0xb7e68>
    1434:	03ae2205 			; <UNDEFINED> instruction: 0x03ae2205
    1438:	03ae0000 			; <UNDEFINED> instruction: 0x03ae0000
    143c:	ed030000 	stc	0, cr0, [r3, #-0]
    1440:	00322207 	eorseq	r2, r2, r7, lsl #4
    1444:	00320000 	eorseq	r0, r2, r0
    1448:	6e030000 	cdpvs	0, 0, cr0, cr3, cr0, {0}
    144c:	03a72206 			; <UNDEFINED> instruction: 0x03a72206
    1450:	03a70000 			; <UNDEFINED> instruction: 0x03a70000
    1454:	ee030000 	cdp	0, 0, cr0, cr3, cr0, {0}
    1458:	010a0007 	tsteq	sl, r7
    145c:	00040000 	andeq	r0, r4, r0
    1460:	00000699 	muleq	r0, r9, r6
    1464:	01780104 	cmneq	r8, r4, lsl #2
    1468:	290c0000 	stmdbcs	ip, {}	; <UNPREDICTABLE>
    146c:	aa000004 	bge	1484 <__code_start__-0x6b7c>
    1470:	70000002 	andvc	r0, r0, r2
    1474:	00000000 	andeq	r0, r0, r0
    1478:	1d000000 	stcne	0, cr0, [r0, #-0]
    147c:	0200000b 	andeq	r0, r0, #11, 0
    1480:	6e690504 	cdpvs	5, 6, cr0, cr9, cr4, {0}
    1484:	04030074 	streq	r0, [r3], #-116	; 0xffffff8c
    1488:	00013307 	andeq	r3, r1, r7, lsl #6
    148c:	06010300 	streq	r0, [r1], -r0, lsl #6
    1490:	00000115 	andeq	r0, r0, r5, lsl r1
    1494:	00050203 	andeq	r0, r5, r3, lsl #4
    1498:	03000000 	movweq	r0, #0
    149c:	007e0504 	rsbseq	r0, lr, r4, lsl #10
    14a0:	08030000 	stmdaeq	r3, {}	; <UNPREDICTABLE>
    14a4:	00007905 	andeq	r7, r0, r5, lsl #18
    14a8:	08010300 	stmdaeq	r1, {r8, r9}
    14ac:	00000113 	andeq	r0, r0, r3, lsl r1
    14b0:	55070203 	strpl	r0, [r7, #-515]	; 0xfffffdfd
    14b4:	03000001 	movweq	r0, #1
    14b8:	012e0704 			; <UNDEFINED> instruction: 0x012e0704
    14bc:	08030000 	stmdaeq	r3, {}	; <UNPREDICTABLE>
    14c0:	00012907 	andeq	r2, r1, r7, lsl #18
    14c4:	00250400 	eoreq	r0, r5, r0, lsl #8
    14c8:	007a0000 	rsbseq	r0, sl, r0
    14cc:	25050000 	strcs	r0, [r5, #-0]
    14d0:	00000000 	andeq	r0, r0, r0
    14d4:	00001e06 	andeq	r1, r0, r6, lsl #28
    14d8:	0e1c0200 	cdpeq	2, 1, cr0, cr12, cr0, {0}
    14dc:	00000086 	andeq	r0, r0, r6, lsl #1
    14e0:	006b0407 	rsbeq	r0, fp, r7, lsl #8
    14e4:	25040000 	strcs	r0, [r4, #-0]
    14e8:	9b000000 	blls	14f0 <__code_start__-0x6b10>
    14ec:	05000000 	streq	r0, [r0, #-0]
    14f0:	0000009b 	muleq	r0, fp, r0
    14f4:	a8040700 	stmdage	r4, {r8, r9, sl}
    14f8:	03000000 	movweq	r0, #0
    14fc:	011c0801 	tsteq	ip, r1, lsl #16
    1500:	a1080000 	mrsge	r0, (UNDEF: 8)
    1504:	06000000 	streq	r0, [r0], -r0
    1508:	000002fb 	strdeq	r0, [r0], -fp
    150c:	b90e2102 	stmdblt	lr, {r1, r8, sp}
    1510:	07000000 	streq	r0, [r0, -r0]
    1514:	00008c04 	andeq	r8, r0, r4, lsl #24
    1518:	041b0900 	ldreq	r0, [fp], #-2304	; 0xfffff700
    151c:	0c010000 	stceq	0, cr0, [r1], {-0}
    1520:	008a1806 	addeq	r1, sl, r6, lsl #16
    1524:	00001000 	andeq	r1, r0, r0
    1528:	e89c0100 	ldm	ip, {r8}
    152c:	0a000000 	beq	1534 <__code_start__-0x6acc>
    1530:	0d010072 	stceq	0, cr0, [r1, #-456]	; 0xfffffe38
    1534:	00002c0e 	andeq	r2, r0, lr, lsl #24
    1538:	000d2c00 	andeq	r2, sp, r0, lsl #24
    153c:	000d2600 	andeq	r2, sp, r0, lsl #12
    1540:	400b0000 	andmi	r0, fp, r0
    1544:	01000001 	tsteq	r0, r1
    1548:	8a080603 	bhi	202d5c <__bss_end__+0x1f978c>
    154c:	00100000 	andseq	r0, r0, r0
    1550:	9c010000 	stcls	0, cr0, [r1], {-0}
    1554:	0100720a 	tsteq	r0, sl, lsl #4
    1558:	002c0e04 	eoreq	r0, ip, r4, lsl #28
    155c:	0d610000 	stcleq	0, cr0, [r1, #-0]
    1560:	0d5b0000 	ldcleq	0, cr0, [fp, #-0]
    1564:	00000000 	andeq	r0, r0, r0
    1568:	0000012f 	andeq	r0, r0, pc, lsr #2
    156c:	07420004 	strbeq	r0, [r2, -r4]
    1570:	01040000 	mrseq	r0, (UNDEF: 4)
    1574:	00000178 	andeq	r0, r0, r8, ror r1
    1578:	0004510c 	andeq	r5, r4, ip, lsl #2
    157c:	0002aa00 	andeq	sl, r2, r0, lsl #20
    1580:	008a2800 	addeq	r2, sl, r0, lsl #16
    1584:	00002c00 	andeq	r2, r0, r0, lsl #24
    1588:	000be600 	andeq	lr, fp, r0, lsl #12
    158c:	05040200 	streq	r0, [r4, #-512]	; 0xfffffe00
    1590:	00746e69 	rsbseq	r6, r4, r9, ror #28
    1594:	33070403 	movwcc	r0, #29699	; 0x7403
    1598:	03000001 	movweq	r0, #1
    159c:	01150601 	tsteq	r5, r1, lsl #12
    15a0:	02030000 	andeq	r0, r3, #0, 0
    15a4:	00000005 	andeq	r0, r0, r5
    15a8:	05040300 	streq	r0, [r4, #-768]	; 0xfffffd00
    15ac:	0000007e 	andeq	r0, r0, lr, ror r0
    15b0:	79050803 	stmdbvc	r5, {r0, r1, fp}
    15b4:	03000000 	movweq	r0, #0
    15b8:	01130801 	tsteq	r3, r1, lsl #16
    15bc:	02030000 	andeq	r0, r3, #0, 0
    15c0:	00015507 	andeq	r5, r1, r7, lsl #10
    15c4:	07040300 	streq	r0, [r4, -r0, lsl #6]
    15c8:	0000012e 	andeq	r0, r0, lr, lsr #2
    15cc:	29070803 	stmdbcs	r7, {r0, r1, fp}
    15d0:	04000001 	streq	r0, [r0], #-1
    15d4:	00000025 	andeq	r0, r0, r5, lsr #32
    15d8:	0000007a 	andeq	r0, r0, sl, ror r0
    15dc:	00002505 	andeq	r2, r0, r5, lsl #10
    15e0:	1e060000 	cdpne	0, 0, cr0, cr6, cr0, {0}
    15e4:	02000000 	andeq	r0, r0, #0, 0
    15e8:	00860e1c 	addeq	r0, r6, ip, lsl lr
    15ec:	04070000 	streq	r0, [r7], #-0
    15f0:	0000006b 	andeq	r0, r0, fp, rrx
    15f4:	00002504 	andeq	r2, r0, r4, lsl #10
    15f8:	00009b00 	andeq	r9, r0, r0, lsl #22
    15fc:	009b0500 	addseq	r0, fp, r0, lsl #10
    1600:	07000000 	streq	r0, [r0, -r0]
    1604:	0000a804 	andeq	sl, r0, r4, lsl #16
    1608:	08010300 	stmdaeq	r1, {r8, r9}
    160c:	0000011c 	andeq	r0, r0, ip, lsl r1
    1610:	0000a108 	andeq	sl, r0, r8, lsl #2
    1614:	02fb0600 	rscseq	r0, fp, #0, 12
    1618:	21020000 	mrscs	r0, (UNDEF: 2)
    161c:	0000b90e 	andeq	fp, r0, lr, lsl #18
    1620:	8c040700 	stchi	7, cr0, [r4], {-0}
    1624:	09000000 	stmdbeq	r0, {}	; <UNPREDICTABLE>
    1628:	00000032 	andeq	r0, r0, r2, lsr r0
    162c:	28060401 	stmdacs	r6, {r0, sl}
    1630:	2c00008a 	stccs	0, cr0, [r0], {138}	; 0x8a
    1634:	01000000 	mrseq	r0, (UNDEF: 0)
    1638:	00010e9c 	muleq	r1, ip, lr
    163c:	8a3c0a00 	bhi	f03e44 <__bss_end__+0xefa874>
    1640:	00e80000 	rsceq	r0, r8, r0
    1644:	010b0000 	mrseq	r0, (UNDEF: 11)
    1648:	bc030550 	cfstr32lt	mvfx0, [r3], {80}	; 0x50
    164c:	00000091 	muleq	r0, r1, r0
    1650:	008a400c 	addeq	r4, sl, ip
    1654:	00010e00 	andeq	r0, r1, r0, lsl #28
    1658:	8a480d00 	bhi	1204a60 <__bss_end__+0x11fb490>
    165c:	011a0000 	tsteq	sl, r0
    1660:	01040000 	mrseq	r0, (UNDEF: 4)
    1664:	010b0000 	mrseq	r0, (UNDEF: 11)
    1668:	003a0150 	eorseq	r0, sl, r0, asr r1
    166c:	008a4c0c 	addeq	r4, sl, ip, lsl #24
    1670:	00012600 	andeq	r2, r1, r0, lsl #12
    1674:	6c0e0000 	stcvs	0, cr0, [lr], {-0}
    1678:	6c000004 	stcvs	0, cr0, [r0], {4}
    167c:	02000004 	andeq	r0, r0, #4, 0
    1680:	480e064d 	stmdami	lr, {r0, r2, r3, r6, r9, sl}
    1684:	48000004 	stmdami	r0, {r2}
    1688:	02000004 	andeq	r0, r0, #4, 0
    168c:	3d0e0658 	stccc	6, cr0, [lr, #-352]	; 0xfffffea0
    1690:	3d000004 	stccc	0, cr0, [r0, #-16]
    1694:	02000004 	andeq	r0, r0, #4, 0
    1698:	8900066b 	stmdbhi	r0, {r0, r1, r3, r5, r6, r9, sl}
    169c:	04000001 	streq	r0, [r0], #-1
    16a0:	00080200 	andeq	r0, r8, r0, lsl #4
    16a4:	78010400 	stmdavc	r1, {sl}
    16a8:	0c000001 	stceq	0, cr0, [r0], {1}
    16ac:	000004a2 	andeq	r0, r0, r2, lsr #9
    16b0:	000002aa 	andeq	r0, r0, sl, lsr #5
    16b4:	00008a54 	andeq	r8, r0, r4, asr sl
    16b8:	0000003c 	andeq	r0, r0, ip, lsr r0
    16bc:	00000c90 	muleq	r0, r0, ip
    16c0:	69050402 	stmdbvs	r5, {r1, sl}
    16c4:	0300746e 	movweq	r7, #1134	; 0x46e
    16c8:	01330704 	teqeq	r3, r4, lsl #14
    16cc:	01030000 	mrseq	r0, (UNDEF: 3)
    16d0:	00011506 	andeq	r1, r1, r6, lsl #10
    16d4:	05020300 	streq	r0, [r2, #-768]	; 0xfffffd00
    16d8:	00000000 	andeq	r0, r0, r0
    16dc:	7e050403 	cdpvc	4, 0, cr0, cr5, cr3, {0}
    16e0:	03000000 	movweq	r0, #0
    16e4:	00790508 	rsbseq	r0, r9, r8, lsl #10
    16e8:	01030000 	mrseq	r0, (UNDEF: 3)
    16ec:	00011308 	andeq	r1, r1, r8, lsl #6
    16f0:	07020300 	streq	r0, [r2, -r0, lsl #6]
    16f4:	00000155 	andeq	r0, r0, r5, asr r1
    16f8:	2e070403 	cdpcs	4, 0, cr0, cr7, cr3, {0}
    16fc:	03000001 	movweq	r0, #1
    1700:	01290708 			; <UNDEFINED> instruction: 0x01290708
    1704:	25040000 	strcs	r0, [r4, #-0]
    1708:	7a000000 	bvc	1710 <__code_start__-0x68f0>
    170c:	05000000 	streq	r0, [r0, #-0]
    1710:	00000025 	andeq	r0, r0, r5, lsr #32
    1714:	001e0600 	andseq	r0, lr, r0, lsl #12
    1718:	1c020000 	stcne	0, cr0, [r2], {-0}
    171c:	0000860e 	andeq	r8, r0, lr, lsl #12
    1720:	6b040700 	blvs	103328 <__bss_end__+0xf9d58>
    1724:	04000000 	streq	r0, [r0], #-0
    1728:	00000025 	andeq	r0, r0, r5, lsr #32
    172c:	0000009b 	muleq	r0, fp, r0
    1730:	00009b05 	andeq	r9, r0, r5, lsl #22
    1734:	04070000 	streq	r0, [r7], #-0
    1738:	000000a8 	andeq	r0, r0, r8, lsr #1
    173c:	1c080103 	stfnes	f0, [r8], {3}
    1740:	08000001 	stmdaeq	r0, {r0}
    1744:	000000a1 	andeq	r0, r0, r1, lsr #1
    1748:	0002fb06 	andeq	pc, r2, r6, lsl #22
    174c:	0e210200 	cdpeq	2, 2, cr0, cr1, cr0, {0}
    1750:	000000b9 	strheq	r0, [r0], -r9
    1754:	008c0407 	addeq	r0, ip, r7, lsl #8
    1758:	7a090000 	bvc	241760 <__bss_end__+0x238190>
    175c:	01000004 	tsteq	r0, r4
    1760:	8a540604 	bhi	1502f78 <__bss_end__+0x14f99a8>
    1764:	003c0000 	eorseq	r0, ip, r0
    1768:	9c010000 	stcls	0, cr0, [r1], {-0}
    176c:	00000154 	andeq	r0, r0, r4, asr r1
    1770:	00034106 	andeq	r4, r3, r6, lsl #2
    1774:	10050100 	andne	r0, r5, r0, lsl #2
    1778:	00000025 	andeq	r0, r0, r5, lsr #32
    177c:	00036a06 	andeq	r6, r3, r6, lsl #20
    1780:	1f050100 	svcne	0x00050100
    1784:	00000025 	andeq	r0, r0, r5, lsr #32
    1788:	00014d0a 	andeq	r4, r1, sl, lsl #26
    178c:	07060100 	streq	r0, [r6, -r0, lsl #2]
    1790:	7373620b 	cmnvc	r3, #-1342177280	; 0xb0000000
    1794:	0a0a0100 	beq	281b9c <__bss_end__+0x2785cc>
    1798:	00000154 	andeq	r0, r0, r4, asr r1
    179c:	00000d96 	muleq	r0, r6, sp
    17a0:	00000d90 	muleq	r0, r0, sp
    17a4:	0004820c 	andeq	r8, r4, ip, lsl #4
    17a8:	0a0b0100 	beq	2c1bb0 <__bss_end__+0x2b85e0>
    17ac:	00000154 	andeq	r0, r0, r4, asr r1
    17b0:	008a780d 	addeq	r7, sl, sp, lsl #16
    17b4:	00000800 	andeq	r0, r0, r0, lsl #16
    17b8:	00012f00 	andeq	r2, r1, r0, lsl #30
    17bc:	6e690e00 	cdpvs	14, 6, cr0, cr9, cr0, {0}
    17c0:	05140100 	ldreq	r0, [r4, #-256]	; 0xffffff00
    17c4:	0000002c 	andeq	r0, r0, ip, lsr #32
    17c8:	5c0f0001 	stcpl	0, cr0, [pc], {1}
    17cc:	5a00008a 	bpl	19fc <__code_start__-0x6604>
    17d0:	0f000001 	svceq	0x00000001
    17d4:	00008a78 	andeq	r8, r0, r8, ror sl
    17d8:	00000167 	andeq	r0, r0, r7, ror #2
    17dc:	008a840f 	addeq	r8, sl, pc, lsl #8
    17e0:	00017300 	andeq	r7, r1, r0, lsl #6
    17e4:	8a880f00 	bhi	fe2053ec <__bss_end__+0xfe1fbe1c>
    17e8:	01800000 	orreq	r0, r0, r0
    17ec:	07000000 	streq	r0, [r0, -r0]
    17f0:	00002504 	andeq	r2, r0, r4, lsl #10
    17f4:	04941000 	ldreq	r1, [r4], #0
    17f8:	04940000 	ldreq	r0, [r4], #0
    17fc:	31020000 	mrscc	r0, (UNDEF: 2)
    1800:	8a110601 	bhi	44300c <__bss_end__+0x439a3c>
    1804:	8a000004 	bhi	181c <__code_start__-0x67e4>
    1808:	02000004 	andeq	r0, r0, #4, 0
    180c:	4d10063b 	ldcmi	6, cr0, [r0, #-236]	; 0xffffff14
    1810:	4d000001 	stcmi	0, cr0, [r0, #-4]
    1814:	02000001 	andeq	r0, r0, #1, 0
    1818:	11060105 	tstne	r6, r5, lsl #2
    181c:	00000032 	andeq	r0, r0, r2, lsr r0
    1820:	00000032 	andeq	r0, r0, r2, lsr r0
    1824:	00066e02 	andeq	r6, r6, r2, lsl #28
    1828:	000000ce 	andeq	r0, r0, lr, asr #1
    182c:	08fe0004 	ldmeq	lr!, {r2}^
    1830:	01040000 	mrseq	r0, (UNDEF: 4)
    1834:	00000178 	andeq	r0, r0, r8, ror r1
    1838:	0004b70c 	andeq	fp, r4, ip, lsl #14
    183c:	0002aa00 	andeq	sl, r2, r0, lsl #20
    1840:	008a9000 	addeq	r9, sl, r0
    1844:	00000400 	andeq	r0, r0, r0, lsl #8
    1848:	000d5400 	andeq	r5, sp, r0, lsl #8
    184c:	05040200 	streq	r0, [r4, #-512]	; 0xfffffe00
    1850:	00746e69 	rsbseq	r6, r4, r9, ror #28
    1854:	33070403 	movwcc	r0, #29699	; 0x7403
    1858:	03000001 	movweq	r0, #1
    185c:	01150601 	tsteq	r5, r1, lsl #12
    1860:	02030000 	andeq	r0, r3, #0, 0
    1864:	00000005 	andeq	r0, r0, r5
    1868:	05040300 	streq	r0, [r4, #-768]	; 0xfffffd00
    186c:	0000007e 	andeq	r0, r0, lr, ror r0
    1870:	79050803 	stmdbvc	r5, {r0, r1, fp}
    1874:	03000000 	movweq	r0, #0
    1878:	01130801 	tsteq	r3, r1, lsl #16
    187c:	02030000 	andeq	r0, r3, #0, 0
    1880:	00015507 	andeq	r5, r1, r7, lsl #10
    1884:	07040300 	streq	r0, [r4, -r0, lsl #6]
    1888:	0000012e 	andeq	r0, r0, lr, lsr #2
    188c:	29070803 	stmdbcs	r7, {r0, r1, fp}
    1890:	04000001 	streq	r0, [r0], #-1
    1894:	00000025 	andeq	r0, r0, r5, lsr #32
    1898:	0000007a 	andeq	r0, r0, sl, ror r0
    189c:	00002505 	andeq	r2, r0, r5, lsl #10
    18a0:	1e060000 	cdpne	0, 0, cr0, cr6, cr0, {0}
    18a4:	02000000 	andeq	r0, r0, #0, 0
    18a8:	00860e1c 	addeq	r0, r6, ip, lsl lr
    18ac:	04070000 	streq	r0, [r7], #-0
    18b0:	0000006b 	andeq	r0, r0, fp, rrx
    18b4:	00002504 	andeq	r2, r0, r4, lsl #10
    18b8:	00009b00 	andeq	r9, r0, r0, lsl #22
    18bc:	009b0500 	addseq	r0, fp, r0, lsl #10
    18c0:	07000000 	streq	r0, [r0, -r0]
    18c4:	0000a804 	andeq	sl, r0, r4, lsl #16
    18c8:	08010300 	stmdaeq	r1, {r8, r9}
    18cc:	0000011c 	andeq	r0, r0, ip, lsl r1
    18d0:	0000a108 	andeq	sl, r0, r8, lsl #2
    18d4:	02fb0600 	rscseq	r0, fp, #0, 12
    18d8:	21020000 	mrscs	r0, (UNDEF: 2)
    18dc:	0000b90e 	andeq	fp, r0, lr, lsl #18
    18e0:	8c040700 	stchi	7, cr0, [r4], {-0}
    18e4:	09000000 	stmdbeq	r0, {}	; <UNPREDICTABLE>
    18e8:	00000494 	muleq	r0, r4, r4
    18ec:	90060401 	andls	r0, r6, r1, lsl #8
    18f0:	0400008a 	streq	r0, [r0], #-138	; 0xffffff76
    18f4:	01000000 	mrseq	r0, (UNDEF: 0)
    18f8:	0236009c 	eorseq	r0, r6, #156, 0	; 0x9c
    18fc:	00040000 	andeq	r0, r4, r0
    1900:	00000977 	andeq	r0, r0, r7, ror r9
    1904:	01780104 	cmneq	r8, r4, lsl #2
    1908:	ff0c0000 			; <UNDEFINED> instruction: 0xff0c0000
    190c:	aa000004 	bge	1924 <__code_start__-0x66dc>
    1910:	80000002 	andhi	r0, r0, r2
    1914:	00000000 	andeq	r0, r0, r0
    1918:	fc000000 	stc2	0, cr0, [r0], {-0}
    191c:	0200000d 	andeq	r0, r0, #13, 0
    1920:	6e690504 	cdpvs	5, 6, cr0, cr9, cr4, {0}
    1924:	25030074 	strcs	r0, [r3, #-116]	; 0xffffff8c
    1928:	04000000 	streq	r0, [r0], #-0
    192c:	01330704 	teqeq	r3, r4, lsl #14
    1930:	01040000 	mrseq	r0, (UNDEF: 4)
    1934:	00011506 	andeq	r1, r1, r6, lsl #10
    1938:	05020400 	streq	r0, [r2, #-1024]	; 0xfffffc00
    193c:	00000000 	andeq	r0, r0, r0
    1940:	7e050404 	cdpvc	4, 0, cr0, cr5, cr4, {0}
    1944:	04000000 	streq	r0, [r0], #-0
    1948:	00790508 	rsbseq	r0, r9, r8, lsl #10
    194c:	01040000 	mrseq	r0, (UNDEF: 4)
    1950:	00011308 	andeq	r1, r1, r8, lsl #6
    1954:	07020400 	streq	r0, [r2, -r0, lsl #8]
    1958:	00000155 	andeq	r0, r0, r5, asr r1
    195c:	2e070404 	cdpcs	4, 0, cr0, cr7, cr4, {0}
    1960:	04000001 	streq	r0, [r0], #-1
    1964:	01290708 			; <UNDEFINED> instruction: 0x01290708
    1968:	25050000 	strcs	r0, [r5, #-0]
    196c:	7f000000 	svcvc	0x00000000
    1970:	06000000 	streq	r0, [r0], -r0
    1974:	00000025 	andeq	r0, r0, r5, lsr #32
    1978:	001e0700 	andseq	r0, lr, r0, lsl #14
    197c:	1c020000 	stcne	0, cr0, [r2], {-0}
    1980:	00008b0e 	andeq	r8, r0, lr, lsl #22
    1984:	70040800 	andvc	r0, r4, r0, lsl #16
    1988:	05000000 	streq	r0, [r0, #-0]
    198c:	00000025 	andeq	r0, r0, r5, lsr #32
    1990:	000000a0 	andeq	r0, r0, r0, lsr #1
    1994:	0000a006 	andeq	sl, r0, r6
    1998:	04080000 	streq	r0, [r8], #-0
    199c:	000000ad 	andeq	r0, r0, sp, lsr #1
    19a0:	1c080104 	stfnes	f0, [r8], {4}
    19a4:	03000001 	movweq	r0, #1
    19a8:	000000a6 	andeq	r0, r0, r6, lsr #1
    19ac:	0002fb07 	andeq	pc, r2, r7, lsl #22
    19b0:	0e210200 	cdpeq	2, 2, cr0, cr1, cr0, {0}
    19b4:	000000be 	strheq	r0, [r0], -lr
    19b8:	00910408 	addseq	r0, r1, r8, lsl #8
    19bc:	23090000 	movwcs	r0, #36864	; 0x9000
    19c0:	01000005 	tsteq	r0, r5
    19c4:	0031110d 	eorseq	r1, r1, sp, lsl #2
    19c8:	3d0a0000 	stccc	0, cr0, [sl, #-0]
    19cc:	01000004 	tsteq	r0, r4
    19d0:	8ac0061f 	bhi	ff003254 <__bss_end__+0xfeff9c84>
    19d4:	00540000 	subseq	r0, r4, r0
    19d8:	9c010000 	stcls	0, cr0, [r1], {-0}
    19dc:	000001ae 	andeq	r0, r0, lr, lsr #3
    19e0:	0005470b 	andeq	r4, r5, fp, lsl #14
    19e4:	0f2c0100 	svceq	0x002c0100
    19e8:	0000002c 	andeq	r0, r0, ip, lsr #32
    19ec:	00000dc3 	andeq	r0, r0, r3, asr #27
    19f0:	00000dc1 	andeq	r0, r0, r1, asr #27
    19f4:	0004e20b 	andeq	lr, r4, fp, lsl #4
    19f8:	0f2d0100 	svceq	0x002d0100
    19fc:	0000002c 	andeq	r0, r0, ip, lsr #32
    1a00:	00000ddd 	ldrdeq	r0, [r0], -sp
    1a04:	00000ddb 	ldrdeq	r0, [r0], -fp
    1a08:	0005140b 	andeq	r1, r5, fp, lsl #8
    1a0c:	0f2e0100 	svceq	0x002e0100
    1a10:	0000002c 	andeq	r0, r0, ip, lsr #32
    1a14:	00000df7 	strdeq	r0, [r0], -r7
    1a18:	00000df5 	strdeq	r0, [r0], -r5
    1a1c:	00052e0b 	andeq	r2, r5, fp, lsl #28
    1a20:	0f2f0100 	svceq	0x002f0100
    1a24:	0000002c 	andeq	r0, r0, ip, lsr #32
    1a28:	00000e10 	andeq	r0, r0, r0, lsl lr
    1a2c:	00000e0e 	andeq	r0, r0, lr, lsl #28
    1a30:	008ac80c 	addeq	ip, sl, ip, lsl #16
    1a34:	0001d900 	andeq	sp, r1, r0, lsl #18
    1a38:	8ad40c00 	bhi	ff504a40 <__bss_end__+0xff4fb470>
    1a3c:	02080000 	andeq	r0, r8, #0, 0
    1a40:	d80c0000 	stmdale	ip, {}	; <UNPREDICTABLE>
    1a44:	1500008a 	strne	r0, [r0, #-138]	; 0xffffff76
    1a48:	0d000002 	stceq	0, cr0, [r0, #-8]
    1a4c:	00008ae0 	andeq	r8, r0, r0, ror #21
    1a50:	00000221 	andeq	r0, r0, r1, lsr #4
    1a54:	00000164 	andeq	r0, r0, r4, ror #2
    1a58:	0150010e 	cmpeq	r0, lr, lsl #2
    1a5c:	ec0d003a 	stc	0, cr0, [sp], {58}	; 0x3a
    1a60:	2d00008a 	stccs	0, cr0, [r0, #-552]	; 0xfffffdd8
    1a64:	84000002 	strhi	r0, [r0], #-2
    1a68:	0e000001 	cdpeq	0, 0, cr0, cr0, cr1, {0}
    1a6c:	0c055001 	stceq	0, cr5, [r5], {1}
    1a70:	20100024 	andscs	r0, r0, r4, lsr #32
    1a74:	0551010e 	ldrbeq	r0, [r1, #-270]	; 0xfffffef2
    1a78:	0000010c 	andeq	r0, r0, ip, lsl #2
    1a7c:	f80d005a 			; <UNDEFINED> instruction: 0xf80d005a
    1a80:	2d00008a 	stccs	0, cr0, [r0, #-552]	; 0xfffffdd8
    1a84:	a4000002 	strge	r0, [r0], #-2
    1a88:	0e000001 	cdpeq	0, 0, cr0, cr0, cr1, {0}
    1a8c:	0c055001 	stceq	0, cr5, [r5], {1}
    1a90:	2010001c 	andscs	r0, r0, ip, lsl r0
    1a94:	0551010e 	ldrbeq	r0, [r1, #-270]	; 0xfffffef2
    1a98:	0000200c 	andeq	r2, r0, ip
    1a9c:	000c005a 	andeq	r0, ip, sl, asr r0
    1aa0:	ae00008b 	cdpge	0, 0, cr0, cr0, cr11, {4}
    1aa4:	00000001 	andeq	r0, r0, r1
    1aa8:	0004f00f 	andeq	pc, r4, pc
    1aac:	06170100 	ldreq	r0, [r7], -r0, lsl #2
    1ab0:	00008aac 	andeq	r8, r0, ip, lsr #21
    1ab4:	00000014 	andeq	r0, r0, r4, lsl r0
    1ab8:	01d99c01 	bicseq	r9, r9, r1, lsl #24
    1abc:	4f0b0000 	svcmi	0x000b0000
    1ac0:	01000005 	tsteq	r0, r5
    1ac4:	00310e18 	eorseq	r0, r1, r8, lsl lr
    1ac8:	0e2b0000 	cdpeq	0, 2, cr0, cr11, cr0, {0}
    1acc:	0e250000 	cdpeq	0, 2, cr0, cr5, cr0, {0}
    1ad0:	10000000 	andne	r0, r0, r0
    1ad4:	00000520 	andeq	r0, r0, r0, lsr #10
    1ad8:	25050e01 	strcs	r0, [r5, #-3585]	; 0xfffff1ff
    1adc:	94000000 	strls	r0, [r0], #-0
    1ae0:	1800008a 	stmdane	r0, {r1, r3, r7}
    1ae4:	01000000 	mrseq	r0, (UNDEF: 0)
    1ae8:	0002089c 	muleq	r2, ip, r8
    1aec:	054f0b00 	strbeq	r0, [pc, #-2816]	; ff4 <__code_start__-0x700c>
    1af0:	0f010000 	svceq	0x00010000
    1af4:	0000310e 	andeq	r3, r0, lr, lsl #2
    1af8:	000e5900 	andeq	r5, lr, r0, lsl #18
    1afc:	000e5500 	andeq	r5, lr, r0, lsl #10
    1b00:	d3110000 	tstle	r1, #0, 0
    1b04:	d3000004 	movwle	r0, #4
    1b08:	02000004 	andeq	r0, r0, #4, 0
    1b0c:	12060136 	andne	r0, r6, #-2147483635	; 0x8000000d
    1b10:	0000046c 	andeq	r0, r0, ip, ror #8
    1b14:	0000046c 	andeq	r0, r0, ip, ror #8
    1b18:	12064d02 	andne	r4, r6, #128	; 0x80
    1b1c:	00000448 	andeq	r0, r0, r8, asr #8
    1b20:	00000448 	andeq	r0, r0, r8, asr #8
    1b24:	12065802 	andne	r5, r6, #131072	; 0x20000
    1b28:	000004ea 	andeq	r0, r0, sl, ror #9
    1b2c:	000004ea 	andeq	r0, r0, sl, ror #9
    1b30:	0006ad02 	andeq	sl, r6, r2, lsl #26
    1b34:	0000024d 	andeq	r0, r0, sp, asr #4
    1b38:	0a9c0004 	beq	fe701b50 <__bss_end__+0xfe6f8580>
    1b3c:	01040000 	mrseq	r0, (UNDEF: 4)
    1b40:	00000178 	andeq	r0, r0, r8, ror r1
    1b44:	00056a0c 	andeq	r6, r5, ip, lsl #20
    1b48:	0002aa00 	andeq	sl, r2, r0, lsl #20
    1b4c:	008b1400 	addeq	r1, fp, r0, lsl #8
    1b50:	00008400 	andeq	r8, r0, r0, lsl #8
    1b54:	000ef400 	andeq	pc, lr, r0, lsl #8
    1b58:	05040200 	streq	r0, [r4, #-512]	; 0xfffffe00
    1b5c:	00746e69 	rsbseq	r6, r4, r9, ror #28
    1b60:	33070403 	movwcc	r0, #29699	; 0x7403
    1b64:	03000001 	movweq	r0, #1
    1b68:	01150601 	tsteq	r5, r1, lsl #12
    1b6c:	02030000 	andeq	r0, r3, #0, 0
    1b70:	00000005 	andeq	r0, r0, r5
    1b74:	05040300 	streq	r0, [r4, #-768]	; 0xfffffd00
    1b78:	0000007e 	andeq	r0, r0, lr, ror r0
    1b7c:	79050803 	stmdbvc	r5, {r0, r1, fp}
    1b80:	03000000 	movweq	r0, #0
    1b84:	01130801 	tsteq	r3, r1, lsl #16
    1b88:	02030000 	andeq	r0, r3, #0, 0
    1b8c:	00015507 	andeq	r5, r1, r7, lsl #10
    1b90:	07040300 	streq	r0, [r4, -r0, lsl #6]
    1b94:	0000012e 	andeq	r0, r0, lr, lsr #2
    1b98:	29070803 	stmdbcs	r7, {r0, r1, fp}
    1b9c:	04000001 	streq	r0, [r0], #-1
    1ba0:	00000025 	andeq	r0, r0, r5, lsr #32
    1ba4:	0000007a 	andeq	r0, r0, sl, ror r0
    1ba8:	00002505 	andeq	r2, r0, r5, lsl #10
    1bac:	1e060000 	cdpne	0, 0, cr0, cr6, cr0, {0}
    1bb0:	02000000 	andeq	r0, r0, #0, 0
    1bb4:	00860e1c 	addeq	r0, r6, ip, lsl lr
    1bb8:	04070000 	streq	r0, [r7], #-0
    1bbc:	0000006b 	andeq	r0, r0, fp, rrx
    1bc0:	00002504 	andeq	r2, r0, r4, lsl #10
    1bc4:	00009b00 	andeq	r9, r0, r0, lsl #22
    1bc8:	009b0500 	addseq	r0, fp, r0, lsl #10
    1bcc:	07000000 	streq	r0, [r0, -r0]
    1bd0:	0000a804 	andeq	sl, r0, r4, lsl #16
    1bd4:	08010300 	stmdaeq	r1, {r8, r9}
    1bd8:	0000011c 	andeq	r0, r0, ip, lsl r1
    1bdc:	0000a108 	andeq	sl, r0, r8, lsl #2
    1be0:	02fb0600 	rscseq	r0, fp, #0, 12
    1be4:	21020000 	mrscs	r0, (UNDEF: 2)
    1be8:	0000b90e 	andeq	fp, r0, lr, lsl #18
    1bec:	8c040700 	stchi	7, cr0, [r4], {-0}
    1bf0:	09000000 	stmdbeq	r0, {}	; <UNPREDICTABLE>
    1bf4:	00000560 	andeq	r0, r0, r0, ror #10
    1bf8:	80061e01 	andhi	r1, r6, r1, lsl #28
    1bfc:	1800008b 	stmdane	r0, {r0, r1, r3, r7}
    1c00:	01000000 	mrseq	r0, (UNDEF: 0)
    1c04:	0001099c 	muleq	r1, ip, r9
    1c08:	65730a00 	ldrbvs	r0, [r3, #-2560]!	; 0xfffff600
    1c0c:	1e010063 	cdpne	0, 0, cr0, cr1, cr3, {3}
    1c10:	00002c19 	andeq	r2, r0, r9, lsl ip
    1c14:	000e7c00 	andeq	r7, lr, r0, lsl #24
    1c18:	000e7800 	andeq	r7, lr, r0, lsl #16
    1c1c:	8b940b00 	blhi	fe504824 <__bss_end__+0xfe4fb254>
    1c20:	01090000 	mrseq	r0, (UNDEF: 9)
    1c24:	010c0000 	mrseq	r0, (UNDEF: 12)
    1c28:	01f31150 	mvnseq	r1, r0, asr r1
    1c2c:	f3243550 	vqrshl.u32	<illegal reg q1.5>, q0, q2
    1c30:	321c5001 	andscc	r5, ip, #1, 0
    1c34:	5001f324 	andpl	pc, r1, r4, lsr #6
    1c38:	00243322 	eoreq	r3, r4, r2, lsr #6
    1c3c:	04480900 	strbeq	r0, [r8], #-2304	; 0xfffff700
    1c40:	1b010000 	blne	41c48 <__bss_end__+0x38678>
    1c44:	008b6806 	addeq	r6, fp, r6, lsl #16
    1c48:	00001800 	andeq	r1, r0, r0, lsl #16
    1c4c:	529c0100 	addspl	r0, ip, #0
    1c50:	0a000001 	beq	1c5c <__code_start__-0x63a4>
    1c54:	0100736d 	tsteq	r0, sp, ror #6
    1c58:	002c181b 	eoreq	r1, ip, fp, lsl r8
    1c5c:	0ea10000 	cdpeq	0, 10, cr0, cr1, cr0, {0}
    1c60:	0e9d0000 	cdpeq	0, 9, cr0, cr13, cr0, {0}
    1c64:	7c0b0000 	stcvc	0, cr0, [fp], {-0}
    1c68:	5200008b 	andpl	r0, r0, #139, 0	; 0x8b
    1c6c:	0c000001 	stceq	0, cr0, [r0], {1}
    1c70:	f3115001 	vhadd.u16	d5, d1, d1
    1c74:	24355001 	ldrtcs	r5, [r5], #-1
    1c78:	1c5001f3 	ldfnee	f0, [r0], {243}	; 0xf3
    1c7c:	01f32432 	mvnseq	r2, r2, lsr r4
    1c80:	24332250 	ldrtcs	r2, [r3], #-592	; 0xfffffdb0
    1c84:	93090000 	movwls	r0, #36864	; 0x9000
    1c88:	01000005 	tsteq	r0, r5
    1c8c:	8b440612 	blhi	11034dc <__bss_end__+0x10f9f0c>
    1c90:	00240000 	eoreq	r0, r4, r0
    1c94:	9c010000 	stcls	0, cr0, [r1], {-0}
    1c98:	000001c2 	andeq	r0, r0, r2, asr #3
    1c9c:	0073750a 	rsbseq	r7, r3, sl, lsl #10
    1ca0:	2c181201 	lfmcs	f1, 4, [r8], {1}
    1ca4:	c6000000 	strgt	r0, [r0], -r0
    1ca8:	c200000e 	andgt	r0, r0, #14, 0
    1cac:	0d00000e 	stceq	0, cr0, [r0, #-56]	; 0xffffffc8
    1cb0:	01006272 	tsteq	r0, r2, ror r2
    1cb4:	002c0e13 	eoreq	r0, ip, r3, lsl lr
    1cb8:	0ee60000 	cdpeq	0, 14, cr0, cr6, cr0, {0}
    1cbc:	0ee40000 	cdpeq	0, 14, cr0, cr4, cr0, {0}
    1cc0:	540e0000 	strpl	r0, [lr], #-0
    1cc4:	1400008b 	strne	r0, [r0], #-139	; 0xffffff75
    1cc8:	b8000000 	stmdalt	r0, {}	; <UNPREDICTABLE>
    1ccc:	0d000001 	stceq	0, cr0, [r0, #-4]
    1cd0:	01006172 	tsteq	r0, r2, ror r1
    1cd4:	002c1215 	eoreq	r1, ip, r5, lsl r2
    1cd8:	0efb0000 	cdpeq	0, 15, cr0, cr11, cr0, {0}
    1cdc:	0ef90000 	cdpeq	0, 15, cr0, cr9, cr0, {0}
    1ce0:	580f0000 	stmdapl	pc, {}	; <UNPREDICTABLE>
    1ce4:	c200008b 	andgt	r0, r0, #139, 0	; 0x8b
    1ce8:	00000001 	andeq	r0, r0, r1
    1cec:	008b500f 	addeq	r5, fp, pc
    1cf0:	0001c200 	andeq	ip, r1, r0, lsl #4
    1cf4:	84100000 	ldrhi	r0, [r0], #-0
    1cf8:	01000005 	tsteq	r0, r5
    1cfc:	002c0a09 	eoreq	r0, ip, r9, lsl #20
    1d00:	8b280000 	blhi	a01d08 <__bss_end__+0x9f8738>
    1d04:	001c0000 	andseq	r0, ip, r0
    1d08:	9c010000 	stcls	0, cr0, [r1], {-0}
    1d0c:	0000020a 	andeq	r0, r0, sl, lsl #4
    1d10:	0100750d 	tsteq	r0, sp, lsl #10
    1d14:	002c0e0d 	eoreq	r0, ip, sp, lsl #28
    1d18:	0f120000 	svceq	0x00120000
    1d1c:	0f0e0000 	svceq	0x000e0000
    1d20:	300f0000 	andcc	r0, pc, r0
    1d24:	3800008b 	stmdacc	r0, {r0, r1, r3, r7}
    1d28:	0f000002 	svceq	0x00000002
    1d2c:	00008b34 	andeq	r8, r0, r4, lsr fp
    1d30:	0000020a 	andeq	r0, r0, sl, lsl #4
    1d34:	008b3c0f 	addeq	r3, fp, pc, lsl #24
    1d38:	00023800 	andeq	r3, r2, r0, lsl #16
    1d3c:	9c100000 	ldcls	0, cr0, [r0], {-0}
    1d40:	01000005 	tsteq	r0, r5
    1d44:	002c0a04 	eoreq	r0, ip, r4, lsl #20
    1d48:	8b140000 	blhi	501d50 <__bss_end__+0x4f8780>
    1d4c:	00140000 	andseq	r0, r4, r0
    1d50:	9c010000 	stcls	0, cr0, [r1], {-0}
    1d54:	00000238 	andeq	r0, r0, r8, lsr r2
    1d58:	008b200b 	addeq	r2, fp, fp
    1d5c:	00024400 	andeq	r4, r2, r0, lsl #8
    1d60:	50010c00 	andpl	r0, r1, r0, lsl #24
    1d64:	30040c05 	andcc	r0, r4, r5, lsl #24
    1d68:	00002000 	andeq	r2, r0, r0
    1d6c:	00055411 	andeq	r5, r5, r1, lsl r4
    1d70:	00055400 	andeq	r5, r5, r0, lsl #8
    1d74:	069c0200 	ldreq	r0, [ip], r0, lsl #4
    1d78:	00057e11 	andeq	r7, r5, r1, lsl lr
    1d7c:	00057e00 	andeq	r7, r5, r0, lsl #28
    1d80:	0ac20200 	beq	ff082588 <__bss_end__+0xff078fb8>
    1d84:	0003a500 	andeq	sl, r3, r0, lsl #10
    1d88:	9d000400 	cfstrsls	mvf0, [r0, #-0]
    1d8c:	0400000b 	streq	r0, [r0], #-11
    1d90:	00069701 	andeq	r9, r6, r1, lsl #14
    1d94:	07480c00 	strbeq	r0, [r8, -r0, lsl #24]
    1d98:	06340000 	ldrteq	r0, [r4], -r0
    1d9c:	8b980000 	blhi	fe601da4 <__bss_end__+0xfe5f87d4>
    1da0:	011c0000 	tsteq	ip, r0
    1da4:	0ff30000 	svceq	0x00f30000
    1da8:	04020000 	streq	r0, [r2], #-0
    1dac:	746e6905 	strbtvc	r6, [lr], #-2309	; 0xfffff6fb
    1db0:	07040300 	streq	r0, [r4, -r0, lsl #6]
    1db4:	00000133 	andeq	r0, r0, r3, lsr r1
    1db8:	00002c04 	andeq	r2, r0, r4, lsl #24
    1dbc:	06010300 	streq	r0, [r1], -r0, lsl #6
    1dc0:	00000115 	andeq	r0, r0, r5, lsl r1
    1dc4:	00050203 	andeq	r0, r5, r3, lsl #4
    1dc8:	03000000 	movweq	r0, #0
    1dcc:	007e0504 	rsbseq	r0, lr, r4, lsl #10
    1dd0:	08030000 	stmdaeq	r3, {}	; <UNPREDICTABLE>
    1dd4:	00007905 	andeq	r7, r0, r5, lsl #18
    1dd8:	08010300 	stmdaeq	r1, {r8, r9}
    1ddc:	00000113 	andeq	r0, r0, r3, lsl r1
    1de0:	55070203 	strpl	r0, [r7, #-515]	; 0xfffffdfd
    1de4:	05000001 	streq	r0, [r0, #-1]
    1de8:	00000385 	andeq	r0, r0, r5, lsl #7
    1dec:	6e193403 	cfmulsvs	mvf3, mvf9, mvf3
    1df0:	03000000 	movweq	r0, #0
    1df4:	012e0704 			; <UNDEFINED> instruction: 0x012e0704
    1df8:	08030000 	stmdaeq	r3, {}	; <UNPREDICTABLE>
    1dfc:	00012907 	andeq	r2, r1, r7, lsl #18
    1e00:	08010300 	stmdaeq	r1, {r8, r9}
    1e04:	0000011c 	andeq	r0, r0, ip, lsl r1
    1e08:	54010706 	strpl	r0, [r1], #-1798	; 0xfffff8fa
    1e0c:	04000000 	streq	r0, [r0], #-0
    1e10:	00c20e0c 	sbceq	r0, r2, ip, lsl #28
    1e14:	4f070000 	svcmi	0x00070000
    1e18:	00000007 	andeq	r0, r0, r7
    1e1c:	0005ce07 	andeq	ip, r5, r7, lsl #28
    1e20:	e9070100 	stmdb	r7, {r8}
    1e24:	04000005 	streq	r0, [r0], #-5
    1e28:	0005f807 	andeq	pc, r5, r7, lsl #16
    1e2c:	07070500 	streq	r0, [r7, -r0, lsl #10]
    1e30:	06000006 	streq	r0, [r0], -r6
    1e34:	00061607 	andeq	r1, r6, r7, lsl #12
    1e38:	34070700 	strcc	r0, [r7], #-1792	; 0xfffff900
    1e3c:	03000007 	movweq	r0, #7
    1e40:	00062507 	andeq	r2, r6, r7, lsl #10
    1e44:	05000200 	streq	r0, [r0, #-512]	; 0xfffffe00
    1e48:	0000068b 	andeq	r0, r0, fp, lsl #13
    1e4c:	83031504 	movwhi	r1, #13572	; 0x3504
    1e50:	08000000 	stmdaeq	r0, {}	; <UNPREDICTABLE>
    1e54:	000005b9 			; <UNDEFINED> instruction: 0x000005b9
    1e58:	33171d01 	tstcc	r7, #64	; 0x40
    1e5c:	1c000000 	stcne	0, cr0, [r0], {-0}
    1e60:	08202000 	stmdaeq	r0!, {sp}
    1e64:	000005af 	andeq	r0, r0, pc, lsr #11
    1e68:	33171e01 	tstcc	r7, #1, 28
    1e6c:	28000000 	stmdacs	r0, {}	; <UNPREDICTABLE>
    1e70:	08202000 	stmdaeq	r0!, {sp}
    1e74:	0000072a 	andeq	r0, r0, sl, lsr #14
    1e78:	33171f01 	tstcc	r7, #1, 30
    1e7c:	34000000 	strcc	r0, [r0], #-0
    1e80:	09202000 	stmdbeq	r0!, {sp}
    1e84:	0000000f 	andeq	r0, r0, pc
    1e88:	25055501 	strcs	r5, [r5, #-1281]	; 0xfffffaff
    1e8c:	80000000 	andhi	r0, r0, r0
    1e90:	3400008c 	strcc	r0, [r0], #-140	; 0xffffff74
    1e94:	01000000 	mrseq	r0, (UNDEF: 0)
    1e98:	00016e9c 	muleq	r1, ip, lr
    1e9c:	69700a00 	ldmdbvs	r0!, {r9, fp}^
    1ea0:	5501006e 	strpl	r0, [r1, #-110]	; 0xffffff92
    1ea4:	00002c18 	andeq	r2, r0, r8, lsl ip
    1ea8:	000f3800 	andeq	r3, pc, r0, lsl #16
    1eac:	000f3000 	andeq	r3, pc, r0
    1eb0:	07430b00 	strbeq	r0, [r3, -r0, lsl #22]
    1eb4:	58010000 	stmdapl	r1, {}	; <UNPREDICTABLE>
    1eb8:	00002c0e 	andeq	r2, r0, lr, lsl #24
    1ebc:	000f7800 	andeq	r7, pc, r0, lsl #16
    1ec0:	000f7200 	andeq	r7, pc, r0, lsl #4
    1ec4:	666f0c00 	strbtvs	r0, [pc], -r0, lsl #24
    1ec8:	59010066 	stmdbpl	r1, {r1, r2, r5, r6}
    1ecc:	00002c0e 	andeq	r2, r0, lr, lsl #24
    1ed0:	000fb800 	andeq	fp, pc, r0, lsl #16
    1ed4:	000fb600 	andeq	fp, pc, r0, lsl #12
    1ed8:	8c9c0d00 	ldchi	13, cr0, [ip], {0}
    1edc:	03900000 	orrseq	r0, r0, #0, 0
    1ee0:	010e0000 	mrseq	r0, (UNDEF: 14)
    1ee4:	01f30b50 	mvnseq	r0, r0, asr fp
    1ee8:	23253550 			; <UNDEFINED> instruction: 0x23253550
    1eec:	818080b4 	strhhi	r8, [r0, r4]
    1ef0:	0f000002 	svceq	0x00000002
    1ef4:	000005c3 	andeq	r0, r0, r3, asr #11
    1ef8:	64064e01 	strvs	r4, [r6], #-3585	; 0xfffff1ff
    1efc:	1c00008c 	stcne	0, cr0, [r0], {140}	; 0x8c
    1f00:	01000000 	mrseq	r0, (UNDEF: 0)
    1f04:	0001c99c 	muleq	r1, ip, r9
    1f08:	69700a00 	ldmdbvs	r0!, {r9, fp}^
    1f0c:	4e01006e 	cdpmi	0, 0, cr0, cr1, cr14, {3}
    1f10:	00002c1a 	andeq	r2, r0, sl, lsl ip
    1f14:	000fd300 	andeq	sp, pc, r0, lsl #6
    1f18:	000fcb00 	andeq	ip, pc, r0, lsl #22
    1f1c:	00760a00 	rsbseq	r0, r6, r0, lsl #20
    1f20:	2c284e01 	stccs	14, cr4, [r8], #-4
    1f24:	15000000 	strne	r0, [r0, #-0]
    1f28:	0d000010 	stceq	0, cr0, [r0, #-64]	; 0xffffffc0
    1f2c:	10000010 	andne	r0, r0, r0, lsl r0
    1f30:	00008c74 	andeq	r8, r0, r4, ror ip
    1f34:	00000251 	andeq	r0, r0, r1, asr r2
    1f38:	000001bf 			; <UNDEFINED> instruction: 0x000001bf
    1f3c:	0350010e 	cmpeq	r0, #-2147483645	; 0x80000003
    1f40:	005001f3 	ldrsheq	r0, [r0], #-19	; 0xffffffed
    1f44:	008c7c11 	addeq	r7, ip, r1, lsl ip
    1f48:	00020a00 	andeq	r0, r2, r0, lsl #20
    1f4c:	530f0000 	movwpl	r0, #61440	; 0xf000
    1f50:	01000002 	tsteq	r0, r2
    1f54:	8c540649 	mrrchi	6, 4, r0, r4, cr9
    1f58:	00100000 	andseq	r0, r0, r0
    1f5c:	9c010000 	stcls	0, cr0, [r1], {-0}
    1f60:	0000020a 	andeq	r0, r0, sl, lsl #4
    1f64:	6e69700a 	cdpvs	0, 6, cr7, cr9, cr10, {0}
    1f68:	1e490100 	dvfnee	f0, f1, f0
    1f6c:	0000002c 	andeq	r0, r0, ip, lsr #32
    1f70:	00001053 	andeq	r1, r0, r3, asr r0
    1f74:	0000104f 	andeq	r1, r0, pc, asr #32
    1f78:	008c600d 	addeq	r6, ip, sp
    1f7c:	0002d900 	andeq	sp, r2, r0, lsl #18
    1f80:	50010e00 	andpl	r0, r1, r0, lsl #28
    1f84:	5001f303 	andpl	pc, r1, r3, lsl #6
    1f88:	0151010e 	cmpeq	r1, lr, lsl #2
    1f8c:	0f000030 	svceq	0x00000030
    1f90:	00000669 	andeq	r0, r0, r9, ror #12
    1f94:	30064201 	andcc	r4, r6, r1, lsl #4
    1f98:	2400008c 	strcs	r0, [r0], #-140	; 0xffffff74
    1f9c:	01000000 	mrseq	r0, (UNDEF: 0)
    1fa0:	0002519c 	muleq	r2, ip, r1
    1fa4:	69700a00 	ldmdbvs	r0!, {r9, fp}^
    1fa8:	4201006e 	andmi	r0, r1, #110, 0	; 0x6e
    1fac:	00002c1c 	andeq	r2, r0, ip, lsl ip
    1fb0:	00107800 	andseq	r7, r0, r0, lsl #16
    1fb4:	00107400 	andseq	r7, r0, r0, lsl #8
    1fb8:	8c4c0d00 	mcrrhi	13, 0, r0, ip, cr0
    1fbc:	039c0000 	orrseq	r0, ip, #0, 0
    1fc0:	010e0000 	mrseq	r0, (UNDEF: 14)
    1fc4:	280c0550 	stmdacs	ip, {r4, r6, r8, sl}
    1fc8:	0e202000 	cdpeq	0, 2, cr2, cr0, cr0, {0}
    1fcc:	31055101 	tstcc	r5, r1, lsl #2
    1fd0:	245001f3 	ldrbcs	r0, [r0], #-499	; 0xfffffe0d
    1fd4:	710f0000 	mrsvc	r0, CPSR
    1fd8:	01000007 	tsteq	r0, r7
    1fdc:	8c0c063b 	stchi	6, cr0, [ip], {59}	; 0x3b
    1fe0:	00240000 	eoreq	r0, r4, r0
    1fe4:	9c010000 	stcls	0, cr0, [r1], {-0}
    1fe8:	00000298 	muleq	r0, r8, r2
    1fec:	6e69700a 	cdpvs	0, 6, cr7, cr9, cr10, {0}
    1ff0:	1b3b0100 	blne	ec23f8 <__bss_end__+0xeb8e28>
    1ff4:	0000002c 	andeq	r0, r0, ip, lsr #32
    1ff8:	0000109d 	muleq	r0, sp, r0
    1ffc:	00001099 	muleq	r0, r9, r0
    2000:	008c280d 	addeq	r2, ip, sp, lsl #16
    2004:	00039c00 	andeq	r9, r3, r0, lsl #24
    2008:	50010e00 	andpl	r0, r1, r0, lsl #28
    200c:	001c0c05 	andseq	r0, ip, r5, lsl #24
    2010:	010e2020 	tsteq	lr, r0, lsr #32
    2014:	f3310551 	vqrshl.u64	q0, <illegal reg q0.5>, <illegal reg q0.5>
    2018:	00245001 	eoreq	r5, r4, r1
    201c:	06760f00 	ldrbteq	r0, [r6], -r0, lsl #30
    2020:	36010000 	strcc	r0, [r1], -r0
    2024:	008bfc06 	addeq	pc, fp, r6, lsl #24
    2028:	00001000 	andeq	r1, r0, r0
    202c:	d99c0100 	ldmible	ip, {r8}
    2030:	0a000002 	beq	2040 <__code_start__-0x5fc0>
    2034:	006e6970 	rsbeq	r6, lr, r0, ror r9
    2038:	2c1f3601 	ldccs	6, cr3, [pc], {1}
    203c:	c2000000 	andgt	r0, r0, #0, 0
    2040:	be000010 	mcrlt	0, 0, r0, cr0, cr0, {0}
    2044:	0d000010 	stceq	0, cr0, [r0, #-64]	; 0xffffffc0
    2048:	00008c08 	andeq	r8, r0, r8, lsl #24
    204c:	000002d9 	ldrdeq	r0, [r0], -r9
    2050:	0350010e 	cmpeq	r0, #-2147483645	; 0x80000003
    2054:	0e5001f3 	mrceq	1, 2, r0, cr0, cr3, {7}
    2058:	31015101 	tstcc	r1, r1, lsl #2
    205c:	5f0f0000 	svcpl	0x000f0000
    2060:	01000007 	tsteq	r0, r7
    2064:	8b980628 	blhi	fe60390c <__bss_end__+0xfe5fa33c>
    2068:	00640000 	rsbeq	r0, r4, r0
    206c:	9c010000 	stcls	0, cr0, [r1], {-0}
    2070:	00000374 	andeq	r0, r0, r4, ror r3
    2074:	6e69700a 	cdpvs	0, 6, cr7, cr9, cr10, {0}
    2078:	21280100 			; <UNDEFINED> instruction: 0x21280100
    207c:	0000002c 	andeq	r0, r0, ip, lsr #32
    2080:	000010e7 	andeq	r1, r0, r7, ror #1
    2084:	000010e3 	andeq	r1, r0, r3, ror #1
    2088:	00068612 	andeq	r8, r6, r2, lsl r6
    208c:	32280100 	eorcc	r0, r8, #0
    2090:	000000c2 	andeq	r0, r0, r2, asr #1
    2094:	0000110c 	andeq	r1, r0, ip, lsl #2
    2098:	00001108 	andeq	r1, r0, r8, lsl #2
    209c:	66666f0c 	strbtvs	r6, [r6], -ip, lsl #30
    20a0:	0e2d0100 	sufeqe	f0, f5, f0
    20a4:	0000002c 	andeq	r0, r0, ip, lsr #32
    20a8:	0000112f 	andeq	r1, r0, pc, lsr #2
    20ac:	0000112d 	andeq	r1, r0, sp, lsr #2
    20b0:	0100670c 	tsteq	r0, ip, lsl #14
    20b4:	002c0e2e 	eoreq	r0, ip, lr, lsr #28
    20b8:	11440000 	mrsne	r0, (UNDEF: 68)
    20bc:	11420000 	mrsne	r0, (UNDEF: 66)
    20c0:	760c0000 	strvc	r0, [ip], -r0
    20c4:	0e300100 	rsfeqs	f0, f0, f0
    20c8:	0000002c 	andeq	r0, r0, ip, lsr #32
    20cc:	0000115f 	andeq	r1, r0, pc, asr r1
    20d0:	00001157 	andeq	r1, r0, r7, asr r1
    20d4:	008be010 	addeq	lr, fp, r0, lsl r0
    20d8:	00039000 	andeq	r9, r3, r0
    20dc:	00036300 	andeq	r6, r3, r0, lsl #6
    20e0:	50010e00 	andpl	r0, r1, r0, lsl #28
    20e4:	00007602 	andeq	r7, r0, r2, lsl #12
    20e8:	008bf40d 	addeq	pc, fp, sp, lsl #8
    20ec:	00039c00 	andeq	r9, r3, r0, lsl #24
    20f0:	50010e00 	andpl	r0, r1, r0, lsl #28
    20f4:	00007602 	andeq	r7, r0, r2, lsl #12
    20f8:	05df1300 	ldrbeq	r1, [pc, #768]	; 2400 <__code_start__-0x5c00>
    20fc:	b1020000 	mrslt	r0, (UNDEF: 2)
    2100:	00006218 	andeq	r6, r0, r8, lsl r2
    2104:	03900300 	orrseq	r0, r0, #0, 6
    2108:	78140000 	ldmdavc	r4, {}	; <UNPREDICTABLE>
    210c:	2bb10200 	blcs	fec42914 <__bss_end__+0xfec39344>
    2110:	00000062 	andeq	r0, r0, r2, rrx
    2114:	057e1500 	ldrbeq	r1, [lr, #-1280]!	; 0xfffffb00
    2118:	057e0000 	ldrbeq	r0, [lr, #-0]!
    211c:	c2020000 	andgt	r0, r2, #0, 0
    2120:	04ea150a 	strbteq	r1, [sl], #1290	; 0x50a
    2124:	04ea0000 	strbteq	r0, [sl], #0
    2128:	ad020000 	stcge	0, cr0, [r2, #-0]
    212c:	05cd0006 	strbeq	r0, [sp, #6]
    2130:	00040000 	andeq	r0, r4, r0
    2134:	00000cfa 	strdeq	r0, [r0], -sl
    2138:	06970104 	ldreq	r0, [r7], r4, lsl #2
    213c:	ab0c0000 	blge	302144 <__bss_end__+0x2f8b74>
    2140:	34000007 	strcc	r0, [r0], #-7
    2144:	b4000006 	strlt	r0, [r0], #-6
    2148:	f000008c 			; <UNDEFINED> instruction: 0xf000008c
    214c:	b1000001 	tstlt	r0, r1
    2150:	02000011 	andeq	r0, r0, #17, 0
    2154:	6e690504 	cdpvs	5, 6, cr0, cr9, cr4, {0}
    2158:	04030074 	streq	r0, [r3], #-116	; 0xffffff8c
    215c:	00013307 	andeq	r3, r1, r7, lsl #6
    2160:	002c0400 	eoreq	r0, ip, r0, lsl #8
    2164:	01030000 	mrseq	r0, (UNDEF: 3)
    2168:	00011506 	andeq	r1, r1, r6, lsl #10
    216c:	05020300 	streq	r0, [r2, #-768]	; 0xfffffd00
    2170:	00000000 	andeq	r0, r0, r0
    2174:	7e050403 	cdpvc	4, 0, cr0, cr5, cr3, {0}
    2178:	03000000 	movweq	r0, #0
    217c:	00790508 	rsbseq	r0, r9, r8, lsl #10
    2180:	01030000 	mrseq	r0, (UNDEF: 3)
    2184:	00011308 	andeq	r1, r1, r8, lsl #6
    2188:	07020300 	streq	r0, [r2, -r0, lsl #6]
    218c:	00000155 	andeq	r0, r0, r5, asr r1
    2190:	00038505 	andeq	r8, r3, r5, lsl #10
    2194:	19340500 	ldmdbne	r4!, {r8, sl}
    2198:	0000006e 	andeq	r0, r0, lr, rrx
    219c:	2e070403 	cdpcs	4, 0, cr0, cr7, cr3, {0}
    21a0:	03000001 	movweq	r0, #1
    21a4:	01290708 			; <UNDEFINED> instruction: 0x01290708
    21a8:	01030000 	mrseq	r0, (UNDEF: 3)
    21ac:	00011c08 	andeq	r1, r1, r8, lsl #24
    21b0:	01070600 	tsteq	r7, r0, lsl #12
    21b4:	00000054 	andeq	r0, r0, r4, asr r0
    21b8:	c20e0c04 	andgt	r0, lr, #4, 24	; 0x400
    21bc:	07000000 	streq	r0, [r0, -r0]
    21c0:	0000074f 	andeq	r0, r0, pc, asr #14
    21c4:	05ce0700 	strbeq	r0, [lr, #1792]	; 0x700
    21c8:	07010000 	streq	r0, [r1, -r0]
    21cc:	000005e9 	andeq	r0, r0, r9, ror #11
    21d0:	05f80704 	ldrbeq	r0, [r8, #1796]!	; 0x704
    21d4:	07050000 	streq	r0, [r5, -r0]
    21d8:	00000607 	andeq	r0, r0, r7, lsl #12
    21dc:	06160706 	ldreq	r0, [r6], -r6, lsl #14
    21e0:	07070000 	streq	r0, [r7, -r0]
    21e4:	00000734 	andeq	r0, r0, r4, lsr r7
    21e8:	06250703 	strteq	r0, [r5], -r3, lsl #14
    21ec:	00020000 	andeq	r0, r2, r0
    21f0:	00079f08 	andeq	r9, r7, r8, lsl #30
    21f4:	06022c00 	streq	r2, [r2], -r0, lsl #24
    21f8:	00015e08 	andeq	r5, r1, r8, lsl #28
    21fc:	6f690900 	svcvs	0x00690900
    2200:	09090200 	stmdbeq	r9, {r9}
    2204:	00000033 	andeq	r0, r0, r3, lsr r0
    2208:	65690900 	strbvs	r0, [r9, #-2304]!	; 0xfffff700
    220c:	0a020072 	beq	823dc <__bss_end__+0x78e0c>
    2210:	00003309 	andeq	r3, r0, r9, lsl #6
    2214:	69090400 	stmdbvs	r9, {sl}
    2218:	02007269 	andeq	r7, r0, #-1879048186	; 0x90000006
    221c:	00330911 	eorseq	r0, r3, r1, lsl r9
    2220:	09080000 	stmdbeq	r8, {}	; <UNPREDICTABLE>
    2224:	0072636c 	rsbseq	r6, r2, ip, ror #6
    2228:	33091302 	movwcc	r1, #37634	; 0x9302
    222c:	0c000000 	stceq	0, cr0, [r0], {-0}
    2230:	72636d09 	rsbvc	r6, r3, #576	; 0x240
    2234:	09140200 	ldmdbeq	r4, {r9}
    2238:	00000033 	andeq	r0, r0, r3, lsr r0
    223c:	736c0910 	cmnvc	ip, #16, 18	; 0x40000
    2240:	15020072 	strne	r0, [r2, #-114]	; 0xffffff8e
    2244:	00003309 	andeq	r3, r0, r9, lsl #6
    2248:	6d091400 	cfstrsvs	mvf1, [r9, #-0]
    224c:	02007273 	andeq	r7, r0, #805306375	; 0x30000007
    2250:	00330916 	eorseq	r0, r3, r6, lsl r9
    2254:	0a180000 	beq	60225c <__bss_end__+0x5f8c8c>
    2258:	00000819 	andeq	r0, r0, r9, lsl r8
    225c:	33091702 	movwcc	r1, #38658	; 0x9702
    2260:	1c000000 	stcne	0, cr0, [r0], {-0}
    2264:	0007f10a 	andeq	pc, r7, sl, lsl #2
    2268:	091b0200 	ldmdbeq	fp, {r9}
    226c:	00000033 	andeq	r0, r0, r3, lsr r0
    2270:	078c0a20 	streq	r0, [ip, r0, lsr #20]
    2274:	1d020000 	stcne	0, cr0, [r2, #-0]
    2278:	00003309 	andeq	r3, r0, r9, lsl #6
    227c:	d60a2400 	strle	r2, [sl], -r0, lsl #8
    2280:	02000007 	andeq	r0, r0, #7, 0
    2284:	0033091e 	eorseq	r0, r3, lr, lsl r9
    2288:	00280000 	eoreq	r0, r8, r0
    228c:	0007db0b 	andeq	sp, r7, fp, lsl #22
    2290:	09080100 	stmdbeq	r8, {r8}
    2294:	00000174 	andeq	r0, r0, r4, ror r1
    2298:	20215004 	eorcs	r5, r1, r4
    229c:	0033040c 	eorseq	r0, r3, ip, lsl #8
    22a0:	6e0d0000 	cdpvs	0, 0, cr0, cr13, cr0, {0}
    22a4:	0b000001 	bleq	22b0 <__code_start__-0x5d50>
    22a8:	00000821 	andeq	r0, r0, r1, lsr #16
    22ac:	8f232901 	svchi	0x00232901
    22b0:	40000001 	andmi	r0, r0, r1
    22b4:	0c202150 	stfeqs	f2, [r0], #-320	; 0xfffffec0
    22b8:	0000c204 	andeq	ip, r0, r4, lsl #4
    22bc:	01890d00 	orreq	r0, r9, r0, lsl #26
    22c0:	6c0e0000 	stcvs	0, cr0, [lr], {-0}
    22c4:	01000004 	tsteq	r0, r4
    22c8:	8e6c06cc 	cdphi	6, 6, cr0, cr12, cr12, {6}
    22cc:	00140000 	andseq	r0, r4, r0
    22d0:	9c010000 	stcls	0, cr0, [r1], {-0}
    22d4:	000001b4 			; <UNDEFINED> instruction: 0x000001b4
    22d8:	008e740f 	addeq	r7, lr, pc, lsl #8
    22dc:	0001b400 	andeq	fp, r1, r0, lsl #8
    22e0:	c5100000 	ldrgt	r0, [r0, #-0]
    22e4:	01000007 	tsteq	r0, r7
    22e8:	002505b6 	strhteq	r0, [r5], -r6
    22ec:	8e4c0000 	cdphi	0, 4, cr0, cr12, cr0, {0}
    22f0:	00200000 	eoreq	r0, r0, r0
    22f4:	9c010000 	stcls	0, cr0, [r1], {-0}
    22f8:	000001eb 	andeq	r0, r0, fp, ror #3
    22fc:	008e540f 	addeq	r5, lr, pc, lsl #8
    2300:	0005a000 	andeq	sl, r5, r0
    2304:	8e5c1100 	rdfhie	f1, f4, f0
    2308:	05ac0000 	streq	r0, [ip, #0]!
    230c:	01120000 	tsteq	r2, r0
    2310:	640c0550 	strvs	r0, [ip], #-1360	; 0xfffffab0
    2314:	00202150 	eoreq	r2, r0, r0, asr r1
    2318:	08031000 	stmdaeq	r3, {ip}
    231c:	b3010000 	movwlt	r0, #4096	; 0x1000
    2320:	00002505 	andeq	r2, r0, r5, lsl #10
    2324:	008e3c00 	addeq	r3, lr, r0, lsl #24
    2328:	00001000 	andeq	r1, r0, r0
    232c:	189c0100 	ldmne	ip, {r8}
    2330:	0f000002 	svceq	0x00000002
    2334:	00008e44 	andeq	r8, r0, r4, asr #28
    2338:	000005a0 	andeq	r0, r0, r0, lsr #11
    233c:	008e480f 	addeq	r4, lr, pc, lsl #16
    2340:	00030900 	andeq	r0, r3, r0, lsl #18
    2344:	2f0e0000 	svccs	0x000e0000
    2348:	01000008 	tsteq	r0, r8
    234c:	8e0c06ab 	cfmadd32hi	mvax5, mvfx0, mvfx12, mvfx11
    2350:	00300000 	eorseq	r0, r0, r0
    2354:	9c010000 	stcls	0, cr0, [r1], {-0}
    2358:	0000027c 	andeq	r0, r0, ip, ror r2
    235c:	01006313 	tsteq	r0, r3, lsl r3
    2360:	002c19ab 	eoreq	r1, ip, fp, lsr #19
    2364:	119f0000 	orrsne	r0, pc, r0
    2368:	119b0000 	orrsne	r0, fp, r0
    236c:	180f0000 	stmdane	pc, {}	; <UNPREDICTABLE>
    2370:	a000008e 	andge	r0, r0, lr, lsl #1
    2374:	0f000005 	svceq	0x00000005
    2378:	00008e1c 	andeq	r8, r0, ip, lsl lr
    237c:	000002db 	ldrdeq	r0, [r0], -fp
    2380:	008e3014 	addeq	r3, lr, r4, lsl r0
    2384:	0005b800 	andeq	fp, r5, r0, lsl #16
    2388:	00027200 	andeq	r7, r2, r0, lsl #4
    238c:	50011200 	andpl	r1, r1, r0, lsl #4
    2390:	50400c05 	subpl	r0, r0, r5, lsl #24
    2394:	01122021 	tsteq	r2, r1, lsr #32
    2398:	00740551 	rsbseq	r0, r4, r1, asr r5
    239c:	001aff08 	andseq	pc, sl, r8, lsl #30
    23a0:	008e340f 	addeq	r3, lr, pc, lsl #8
    23a4:	0005a000 	andeq	sl, r5, r0
    23a8:	e7100000 	ldr	r0, [r0, -r0]
    23ac:	01000007 	tsteq	r0, r7
    23b0:	002505a3 	eoreq	r0, r5, r3, lsr #11
    23b4:	8ddc0000 	ldclhi	0, cr0, [ip]
    23b8:	00300000 	eorseq	r0, r0, r0
    23bc:	9c010000 	stcls	0, cr0, [r1], {-0}
    23c0:	000002db 	ldrdeq	r0, [r0], -fp
    23c4:	01006315 	tsteq	r0, r5, lsl r3
    23c8:	002509a7 	eoreq	r0, r5, r7, lsr #19
    23cc:	11bf0000 			; <UNDEFINED> instruction: 0x11bf0000
    23d0:	11bd0000 			; <UNDEFINED> instruction: 0x11bd0000
    23d4:	e40f0000 	str	r0, [pc], #-0	; 23dc <__code_start__-0x5c24>
    23d8:	a000008d 	andge	r0, r0, sp, lsl #1
    23dc:	0f000005 	svceq	0x00000005
    23e0:	00008de8 	andeq	r8, r0, r8, ror #27
    23e4:	00000309 	andeq	r0, r0, r9, lsl #6
    23e8:	008df814 	addeq	pc, sp, r4, lsl r8	; <UNPREDICTABLE>
    23ec:	0005ac00 	andeq	sl, r5, r0, lsl #24
    23f0:	0002d100 	andeq	sp, r2, r0, lsl #2
    23f4:	50011200 	andpl	r1, r1, r0, lsl #4
    23f8:	50400c05 	subpl	r0, r0, r5, lsl #24
    23fc:	0f002021 	svceq	0x00002021
    2400:	00008e00 	andeq	r8, r0, r0, lsl #28
    2404:	000005a0 	andeq	r0, r0, r0, lsr #11
    2408:	07b21000 	ldreq	r1, [r2, r0]!
    240c:	94010000 	strls	r0, [r1], #-0
    2410:	00002505 	andeq	r2, r0, r5, lsl #10
    2414:	008dbc00 	addeq	fp, sp, r0, lsl #24
    2418:	00002000 	andeq	r2, r0, r0
    241c:	099c0100 	ldmibeq	ip, {r8}
    2420:	11000003 	tstne	r0, r3
    2424:	00008dc8 	andeq	r8, r0, r8, asr #27
    2428:	000005ac 	andeq	r0, r0, ip, lsr #11
    242c:	05500112 	ldrbeq	r0, [r0, #-274]	; 0xfffffeee
    2430:	2150640c 	cmpcs	r0, ip, lsl #8
    2434:	10000020 	andne	r0, r0, r0, lsr #32
    2438:	00000791 	muleq	r0, r1, r7
    243c:	25058b01 	strcs	r8, [r5, #-2817]	; 0xfffff4ff
    2440:	a4000000 	strge	r0, [r0], #-0
    2444:	1800008d 	stmdane	r0, {r0, r2, r3, r7}
    2448:	01000000 	mrseq	r0, (UNDEF: 0)
    244c:	0003379c 	muleq	r3, ip, r7
    2450:	8db01100 	ldfhis	f1, [r0]
    2454:	05ac0000 	streq	r0, [ip, #0]!
    2458:	01120000 	tsteq	r2, r0
    245c:	640c0550 	strvs	r0, [ip], #-1360	; 0xfffffab0
    2460:	00202150 	eoreq	r2, r0, r0, asr r1
    2464:	048a0e00 	streq	r0, [sl], #3584	; 0xe00
    2468:	45010000 	strmi	r0, [r1, #-0]
    246c:	008cf406 	addeq	pc, ip, r6, lsl #8
    2470:	0000b000 	andeq	fp, r0, r0
    2474:	849c0100 	ldrhi	r0, [ip], #256	; 0x100
    2478:	16000004 	strne	r0, [r0], -r4
    247c:	00000783 	andeq	r0, r0, r3, lsl #15
    2480:	620e7e01 	andvs	r7, lr, #1, 28
    2484:	0e000000 	cdpeq	0, 0, cr0, cr0, cr0, {0}
    2488:	8d041401 	cfstrshi	mvf1, [r4, #-4]
    248c:	05c40000 	strbeq	r0, [r4]
    2490:	03730000 	cmneq	r3, #0, 0
    2494:	01120000 	tsteq	r2, r0
    2498:	123e0150 	eorsne	r0, lr, #20
    249c:	32015101 	andcc	r5, r1, #1073741824	; 0x40000000
    24a0:	8d101400 	cfldrshi	mvf1, [r0, #-0]
    24a4:	05c40000 	strbeq	r0, [r4]
    24a8:	038b0000 	orreq	r0, fp, #0, 0
    24ac:	01120000 	tsteq	r2, r0
    24b0:	123f0150 	eorsne	r0, pc, #20
    24b4:	32015101 	andcc	r5, r1, #1073741824	; 0x40000000
    24b8:	8d140f00 	ldchi	15, cr0, [r4, #-0]
    24bc:	05a00000 	streq	r0, [r0, #0]!
    24c0:	20140000 	andscs	r0, r4, r0
    24c4:	3d00008d 	stccc	0, cr0, [r0, #-564]	; 0xfffffdcc
    24c8:	b0000005 	andlt	r0, r0, r5
    24cc:	12000003 	andne	r0, r0, #3, 0
    24d0:	0c055001 	stceq	0, cr5, [r5], {1}
    24d4:	20215004 	eorcs	r5, r1, r4
    24d8:	01510112 	cmpeq	r1, r2, lsl r1
    24dc:	240f0031 	strcs	r0, [pc], #-49	; 24e4 <__code_start__-0x5b1c>
    24e0:	a000008d 	andge	r0, r0, sp, lsl #1
    24e4:	14000005 	strne	r0, [r0], #-5
    24e8:	00008d34 	andeq	r8, r0, r4, lsr sp
    24ec:	000005b8 			; <UNDEFINED> instruction: 0x000005b8
    24f0:	000003d2 	ldrdeq	r0, [r0], -r2
    24f4:	02500112 	subseq	r0, r0, #-2147483644	; 0x80000004
    24f8:	01120074 	tsteq	r2, r4, ror r0
    24fc:	00300151 	eorseq	r0, r0, r1, asr r1
    2500:	008d4014 	addeq	r4, sp, r4, lsl r0
    2504:	0005b800 	andeq	fp, r5, r0, lsl #16
    2508:	0003ee00 	andeq	lr, r3, r0, lsl #28
    250c:	50011200 	andpl	r1, r1, r0, lsl #4
    2510:	50440c05 	subpl	r0, r4, r5, lsl #24
    2514:	01122021 	tsteq	r2, r1, lsr #32
    2518:	00300151 	eorseq	r0, r0, r1, asr r1
    251c:	008d4c14 	addeq	r4, sp, r4, lsl ip
    2520:	0005b800 	andeq	fp, r5, r0, lsl #16
    2524:	00040a00 	andeq	r0, r4, r0, lsl #20
    2528:	50011200 	andpl	r1, r1, r0, lsl #4
    252c:	504c0c05 	subpl	r0, ip, r5, lsl #24
    2530:	01122021 	tsteq	r2, r1, lsr #32
    2534:	00330151 	eorseq	r0, r3, r1, asr r1
    2538:	008d5814 	addeq	r5, sp, r4, lsl r8
    253c:	0005b800 	andeq	fp, r5, r0, lsl #16
    2540:	00042600 	andeq	r2, r4, r0, lsl #12
    2544:	50011200 	andpl	r1, r1, r0, lsl #4
    2548:	50500c05 	subspl	r0, r0, r5, lsl #24
    254c:	01122021 	tsteq	r2, r1, lsr #32
    2550:	00300151 	eorseq	r0, r0, r1, asr r1
    2554:	008d6414 	addeq	r6, sp, r4, lsl r4
    2558:	0005b800 	andeq	fp, r5, r0, lsl #16
    255c:	00044300 	andeq	r4, r4, r0, lsl #6
    2560:	50011200 	andpl	r1, r1, r0, lsl #4
    2564:	50480c05 	subpl	r0, r8, r5, lsl #24
    2568:	01122021 	tsteq	r2, r1, lsr #32
    256c:	c7080251 	smlsdgt	r8, r1, r2, r0
    2570:	8d701400 	cfldrdhi	mvd1, [r0, #-0]
    2574:	05b80000 	ldreq	r0, [r8, #0]!
    2578:	04610000 	strbteq	r0, [r1], #-0
    257c:	01120000 	tsteq	r2, r0
    2580:	680c0550 	stmdavs	ip, {r4, r6, r8, sl}
    2584:	12202150 	eorne	r2, r0, #20
    2588:	0a035101 	beq	d6994 <__bss_end__+0xcd3c4>
    258c:	1400010e 	strne	r0, [r0], #-270	; 0xfffffef2
    2590:	00008d7c 	andeq	r8, r0, ip, ror sp
    2594:	000005b8 			; <UNDEFINED> instruction: 0x000005b8
    2598:	0000047a 	andeq	r0, r0, sl, ror r4
    259c:	02500112 	subseq	r0, r0, #-2147483644	; 0x80000004
    25a0:	01120074 	tsteq	r2, r4, ror r0
    25a4:	00330151 	eorseq	r0, r3, r1, asr r1
    25a8:	008d800f 	addeq	r8, sp, pc
    25ac:	0005a000 	andeq	sl, r5, r0
    25b0:	f60e0000 			; <UNDEFINED> instruction: 0xf60e0000
    25b4:	01000007 	tsteq	r0, r7
    25b8:	8e800635 	mcrhi	6, 4, r0, cr0, cr5, {1}
    25bc:	00240000 	eoreq	r0, r4, r0
    25c0:	9c010000 	stcls	0, cr0, [r1], {-0}
    25c4:	000004d3 	ldrdeq	r0, [r0], -r3
    25c8:	008e880f 	addeq	r8, lr, pc, lsl #16
    25cc:	00019400 	andeq	r9, r1, r0, lsl #8
    25d0:	8e8c0f00 	cdphi	15, 8, cr0, cr12, cr0, {0}
    25d4:	05a00000 	streq	r0, [r0, #0]!
    25d8:	98140000 	ldmdals	r4, {}	; <UNPREDICTABLE>
    25dc:	d300008e 	movwle	r0, #142	; 0x8e
    25e0:	c9000004 	stmdbgt	r0, {r2}
    25e4:	12000004 	andne	r0, r0, #4, 0
    25e8:	0c055001 	stceq	0, cr5, [r5], {1}
    25ec:	20215004 	eorcs	r5, r1, r4
    25f0:	02510112 	subseq	r0, r1, #-2147483644	; 0x80000004
    25f4:	0f00fe09 	svceq	0x0000fe09
    25f8:	00008e9c 	muleq	r0, ip, lr
    25fc:	000005a0 	andeq	r0, r0, r0, lsr #11
    2600:	08261700 	stmdaeq	r6!, {r8, r9, sl, ip}
    2604:	31010000 	mrscc	r0, (UNDEF: 1)
    2608:	008cb40d 	addeq	fp, ip, sp, lsl #8
    260c:	00002000 	andeq	r2, r0, r0
    2610:	369c0100 	ldrcc	r0, [ip], r0, lsl #2
    2614:	18000005 	stmdane	r0, {r0, r2}
    2618:	000007c0 	andeq	r0, r0, r0, asr #15
    261c:	36253101 	strtcc	r3, [r5], -r1, lsl #2
    2620:	d6000005 	strle	r0, [r0], -r5
    2624:	d2000011 	andle	r0, r0, #17, 0
    2628:	13000011 	movwne	r0, #17
    262c:	006c6176 	rsbeq	r6, ip, r6, ror r1
    2630:	2c343101 	ldfcss	f3, [r4], #-4
    2634:	f8000000 			; <UNDEFINED> instruction: 0xf8000000
    2638:	f4000011 	vst4.8	{d0-d3}, [r0 :64], r1
    263c:	14000011 	strne	r0, [r0], #-17	; 0xffffffef
    2640:	00008cc4 	andeq	r8, r0, r4, asr #25
    2644:	000005ac 	andeq	r0, r0, ip, lsr #11
    2648:	00000525 	andeq	r0, r0, r5, lsr #10
    264c:	02500112 	subseq	r0, r0, #-2147483644	; 0x80000004
    2650:	11000074 	tstne	r0, r4, ror r0
    2654:	00008cd0 	ldrdeq	r8, [r0], -r0
    2658:	000005b8 			; <UNDEFINED> instruction: 0x000005b8
    265c:	02500112 	subseq	r0, r0, #-2147483644	; 0x80000004
    2660:	00000074 	andeq	r0, r0, r4, ror r0
    2664:	053c040c 	ldreq	r0, [ip, #-1036]!	; 0xfffffbf4
    2668:	17190000 	ldrne	r0, [r9, -r0]
    266c:	00000811 	andeq	r0, r0, r1, lsl r8
    2670:	d40d2e01 	strle	r2, [sp], #-3585	; 0xfffff1ff
    2674:	2000008c 	andcs	r0, r0, ip, lsl #1
    2678:	01000000 	mrseq	r0, (UNDEF: 0)
    267c:	0005a09c 	muleq	r5, ip, r0
    2680:	07c01800 	strbeq	r1, [r0, r0, lsl #16]
    2684:	2e010000 	cdpcs	0, 0, cr0, cr1, cr0, {0}
    2688:	00053624 	andeq	r3, r5, r4, lsr #12
    268c:	00121a00 	andseq	r1, r2, r0, lsl #20
    2690:	00121600 	andseq	r1, r2, r0, lsl #12
    2694:	61761300 	cmnvs	r6, r0, lsl #6
    2698:	2e01006c 	cdpcs	0, 0, cr0, cr1, cr12, {3}
    269c:	00002c33 	andeq	r2, r0, r3, lsr ip
    26a0:	00123c00 	andseq	r3, r2, r0, lsl #24
    26a4:	00123800 	andseq	r3, r2, r0, lsl #16
    26a8:	8ce41400 	cfstrdhi	mvd1, [r4]
    26ac:	05ac0000 	streq	r0, [ip, #0]!
    26b0:	058f0000 	streq	r0, [pc]	; 26b8 <__code_start__-0x5948>
    26b4:	01120000 	tsteq	r2, r0
    26b8:	00740250 	rsbseq	r0, r4, r0, asr r2
    26bc:	8cf01100 	ldfhie	f1, [r0]
    26c0:	05b80000 	ldreq	r0, [r8, #0]!
    26c4:	01120000 	tsteq	r2, r0
    26c8:	00740250 	rsbseq	r0, r4, r0, asr r2
    26cc:	541a0000 	ldrpl	r0, [sl], #-0
    26d0:	54000005 	strpl	r0, [r0], #-5
    26d4:	03000005 	movweq	r0, #5
    26d8:	391a069c 	ldmdbcc	sl, {r2, r3, r4, r7, r9, sl}
    26dc:	39000008 	stmdbcc	r0, {r3}
    26e0:	03000008 	movweq	r0, #8
    26e4:	7d1a0bc3 	vldrvc	d0, [sl, #-780]	; 0xfffffcf4
    26e8:	7d000007 	stcvc	0, cr0, [r0, #-28]	; 0xffffffe4
    26ec:	03000007 	movweq	r0, #7
    26f0:	5f1a06ae 	svcpl	0x001a06ae
    26f4:	5f000007 	svcpl	0x00000007
    26f8:	04000007 	streq	r0, [r0], #-7
    26fc:	49000619 	stmdbmi	r0, {r0, r3, r4, r9, sl}
    2700:	04000001 	streq	r0, [r0], #-1
    2704:	000e9200 	andeq	r9, lr, r0, lsl #4
    2708:	78010400 	stmdavc	r1, {sl}
    270c:	0c000001 	stceq	0, cr0, [r0], {1}
    2710:	0000085d 	andeq	r0, r0, sp, asr r8
    2714:	000002aa 	andeq	r0, r0, sl, lsr #5
    2718:	00008ea4 	andeq	r8, r0, r4, lsr #29
    271c:	0000003c 	andeq	r0, r0, ip, lsr r0
    2720:	000013b9 			; <UNDEFINED> instruction: 0x000013b9
    2724:	69050402 	stmdbvs	r5, {r1, sl}
    2728:	0300746e 	movweq	r7, #1134	; 0x46e
    272c:	01330704 	teqeq	r3, r4, lsl #14
    2730:	01030000 	mrseq	r0, (UNDEF: 3)
    2734:	00011506 	andeq	r1, r1, r6, lsl #10
    2738:	05020300 	streq	r0, [r2, #-768]	; 0xfffffd00
    273c:	00000000 	andeq	r0, r0, r0
    2740:	7e050403 	cdpvc	4, 0, cr0, cr5, cr3, {0}
    2744:	03000000 	movweq	r0, #0
    2748:	00790508 	rsbseq	r0, r9, r8, lsl #10
    274c:	01030000 	mrseq	r0, (UNDEF: 3)
    2750:	00011308 	andeq	r1, r1, r8, lsl #6
    2754:	07020300 	streq	r0, [r2, -r0, lsl #6]
    2758:	00000155 	andeq	r0, r0, r5, asr r1
    275c:	2e070403 	cdpcs	4, 0, cr0, cr7, cr3, {0}
    2760:	03000001 	movweq	r0, #1
    2764:	01290708 			; <UNDEFINED> instruction: 0x01290708
    2768:	25040000 	strcs	r0, [r4, #-0]
    276c:	7a000000 	bvc	2774 <__code_start__-0x588c>
    2770:	05000000 	streq	r0, [r0, #-0]
    2774:	00000025 	andeq	r0, r0, r5, lsr #32
    2778:	001e0600 	andseq	r0, lr, r0, lsl #12
    277c:	1c020000 	stcne	0, cr0, [r2], {-0}
    2780:	0000860e 	andeq	r8, r0, lr, lsl #12
    2784:	6b040700 	blvs	10438c <__bss_end__+0xfadbc>
    2788:	04000000 	streq	r0, [r0], #-0
    278c:	00000025 	andeq	r0, r0, r5, lsr #32
    2790:	0000009b 	muleq	r0, fp, r0
    2794:	00009b05 	andeq	r9, r0, r5, lsl #22
    2798:	04070000 	streq	r0, [r7], #-0
    279c:	000000a8 	andeq	r0, r0, r8, lsr #1
    27a0:	1c080103 	stfnes	f0, [r8], {3}
    27a4:	08000001 	stmdaeq	r0, {r0}
    27a8:	000000a1 	andeq	r0, r0, r1, lsr #1
    27ac:	0002fb06 	andeq	pc, r2, r6, lsl #22
    27b0:	0e210200 	cdpeq	2, 2, cr0, cr1, cr0, {0}
    27b4:	000000b9 	strheq	r0, [r0], -r9
    27b8:	008c0407 	addeq	r0, ip, r7, lsl #8
    27bc:	7a090000 	bvc	2427c4 <__bss_end__+0x2391f4>
    27c0:	01000000 	mrseq	r0, (UNDEF: 0)
    27c4:	03050706 	movweq	r0, #22278	; 0x5706
    27c8:	000091cc 	andeq	r9, r0, ip, asr #3
    27cc:	0008500a 	andeq	r5, r8, sl
    27d0:	060b0100 	streq	r0, [fp], -r0, lsl #2
    27d4:	00008ed0 	ldrdeq	r8, [r0], -r0
    27d8:	00000010 	andeq	r0, r0, r0, lsl r0
    27dc:	00f19c01 	rscseq	r9, r1, r1, lsl #24
    27e0:	660b0000 	strvs	r0, [fp], -r0
    27e4:	0b010070 	bleq	429ac <__bss_end__+0x393dc>
    27e8:	00008619 	andeq	r8, r0, r9, lsl r6
    27ec:	00500100 	subseq	r0, r0, r0, lsl #2
    27f0:	00086e0c 	andeq	r6, r8, ip, lsl #28
    27f4:	06080100 	streq	r0, [r8], -r0, lsl #2
    27f8:	00008eb8 			; <UNDEFINED> instruction: 0x00008eb8
    27fc:	00000018 	andeq	r0, r0, r8, lsl r0
    2800:	3f0d9c01 	svccc	0x000d9c01
    2804:	01000008 	tsteq	r0, r8
    2808:	00250c03 	eoreq	r0, r5, r3, lsl #24
    280c:	8ea40000 	cdphi	0, 10, cr0, cr4, cr0, {0}
    2810:	00140000 	andseq	r0, r4, r0
    2814:	9c010000 	stcls	0, cr0, [r1], {-0}
    2818:	00000140 	andeq	r0, r0, r0, asr #2
    281c:	0100630e 	tsteq	r0, lr, lsl #6
    2820:	00252103 	eoreq	r2, r5, r3, lsl #2
    2824:	125e0000 	subsne	r0, lr, #0, 0
    2828:	125a0000 	subsne	r0, sl, #0, 0
    282c:	b00f0000 	andlt	r0, pc, r0
    2830:	4000008e 	andmi	r0, r0, lr, lsl #1
    2834:	10000001 	andne	r0, r0, r1
    2838:	74025001 	strvc	r5, [r2], #-1
    283c:	11000000 	mrsne	r0, (UNDEF: 0)
    2840:	0000082f 	andeq	r0, r0, pc, lsr #16
    2844:	0000082f 	andeq	r0, r0, pc, lsr #16
    2848:	00064202 	andeq	r4, r6, r2, lsl #4
    284c:	00000137 	andeq	r0, r0, r7, lsr r1
    2850:	0fa10004 	svceq	0x00a10004
    2854:	01040000 	mrseq	r0, (UNDEF: 4)
    2858:	00000178 	andeq	r0, r0, r8, ror r1
    285c:	0008820c 	andeq	r8, r8, ip, lsl #4
    2860:	0002aa00 	andeq	sl, r2, r0, lsl #20
    2864:	008ee000 	addeq	lr, lr, r0
    2868:	00003400 	andeq	r3, r0, r0, lsl #8
    286c:	00147c00 	andseq	r7, r4, r0, lsl #24
    2870:	05040200 	streq	r0, [r4, #-512]	; 0xfffffe00
    2874:	00746e69 	rsbseq	r6, r4, r9, ror #28
    2878:	33070403 	movwcc	r0, #29699	; 0x7403
    287c:	03000001 	movweq	r0, #1
    2880:	01150601 	tsteq	r5, r1, lsl #12
    2884:	02030000 	andeq	r0, r3, #0, 0
    2888:	00000005 	andeq	r0, r0, r5
    288c:	05040300 	streq	r0, [r4, #-768]	; 0xfffffd00
    2890:	0000007e 	andeq	r0, r0, lr, ror r0
    2894:	79050803 	stmdbvc	r5, {r0, r1, fp}
    2898:	03000000 	movweq	r0, #0
    289c:	01130801 	tsteq	r3, r1, lsl #16
    28a0:	02030000 	andeq	r0, r3, #0, 0
    28a4:	00015507 	andeq	r5, r1, r7, lsl #10
    28a8:	07040300 	streq	r0, [r4, -r0, lsl #6]
    28ac:	0000012e 	andeq	r0, r0, lr, lsr #2
    28b0:	29070803 	stmdbcs	r7, {r0, r1, fp}
    28b4:	04000001 	streq	r0, [r0], #-1
    28b8:	00000025 	andeq	r0, r0, r5, lsr #32
    28bc:	0000007a 	andeq	r0, r0, sl, ror r0
    28c0:	00002505 	andeq	r2, r0, r5, lsl #10
    28c4:	1e060000 	cdpne	0, 0, cr0, cr6, cr0, {0}
    28c8:	02000000 	andeq	r0, r0, #0, 0
    28cc:	00860e1c 	addeq	r0, r6, ip, lsl lr
    28d0:	04070000 	streq	r0, [r7], #-0
    28d4:	0000006b 	andeq	r0, r0, fp, rrx
    28d8:	00002504 	andeq	r2, r0, r4, lsl #10
    28dc:	00009b00 	andeq	r9, r0, r0, lsl #22
    28e0:	009b0500 	addseq	r0, fp, r0, lsl #10
    28e4:	07000000 	streq	r0, [r0, -r0]
    28e8:	0000a804 	andeq	sl, r0, r4, lsl #16
    28ec:	08010300 	stmdaeq	r1, {r8, r9}
    28f0:	0000011c 	andeq	r0, r0, ip, lsl r1
    28f4:	0000a108 	andeq	sl, r0, r8, lsl #2
    28f8:	02fb0600 	rscseq	r0, fp, #0, 12
    28fc:	21020000 	mrscs	r0, (UNDEF: 2)
    2900:	0000b90e 	andeq	fp, r0, lr, lsl #18
    2904:	8c040700 	stchi	7, cr0, [r4], {-0}
    2908:	09000000 	stmdbeq	r0, {}	; <UNPREDICTABLE>
    290c:	000003a7 	andeq	r0, r0, r7, lsr #7
    2910:	34070401 	strcc	r0, [r7], #-1025	; 0xfffffbff
    2914:	e0000001 	and	r0, r0, r1
    2918:	3400008e 	strcc	r0, [r0], #-142	; 0xffffff72
    291c:	01000000 	mrseq	r0, (UNDEF: 0)
    2920:	0001349c 	muleq	r1, ip, r4
    2924:	087d0a00 	ldmdaeq	sp!, {r9, fp}^
    2928:	04010000 	streq	r0, [r1], #-0
    292c:	00013415 	andeq	r3, r1, r5, lsl r4
    2930:	0b500100 	bleq	1402d38 <__bss_end__+0x13f9768>
    2934:	00637273 	rsbeq	r7, r3, r3, ror r2
    2938:	9b270401 	blls	9c3944 <__bss_end__+0x9ba374>
    293c:	80000000 	andhi	r0, r0, r0
    2940:	7c000012 	stcvc	0, cr0, [r0], {18}
    2944:	0c000012 	stceq	0, cr0, [r0], {18}
    2948:	01003173 	tsteq	r0, r3, ror r1
    294c:	01340b05 	teqeq	r4, r5, lsl #22
    2950:	12ab0000 	adcne	r0, fp, #0, 0
    2954:	12a10000 	adcne	r0, r1, #0, 0
    2958:	730c0000 	movwvc	r0, #49152	; 0xc000
    295c:	06010032 			; <UNDEFINED> instruction: 0x06010032
    2960:	00009b11 	andeq	r9, r0, r1, lsl fp
    2964:	0012f000 	andseq	pc, r2, r0
    2968:	0012ec00 	andseq	lr, r2, r0, lsl #24
    296c:	00630c00 	rsbeq	r0, r3, r0, lsl #24
    2970:	a10a0701 	tstge	sl, r1, lsl #14
    2974:	14000000 	strne	r0, [r0], #-0
    2978:	10000013 	andne	r0, r0, r3, lsl r0
    297c:	00000013 	andeq	r0, r0, r3, lsl r0
    2980:	00a10407 	adceq	r0, r1, r7, lsl #8
    2984:	f7000000 			; <UNDEFINED> instruction: 0xf7000000
    2988:	04000000 	streq	r0, [r0], #-0
    298c:	00105700 	andseq	r5, r0, r0, lsl #14
    2990:	78010400 	stmdavc	r1, {sl}
    2994:	0c000001 	stceq	0, cr0, [r0], {1}
    2998:	00000892 	muleq	r0, r2, r8
    299c:	000002aa 	andeq	r0, r0, sl, lsr #5
    29a0:	00008f14 	andeq	r8, r0, r4, lsl pc
    29a4:	0000002c 	andeq	r0, r0, ip, lsr #32
    29a8:	0000158b 	andeq	r1, r0, fp, lsl #11
    29ac:	69050402 	stmdbvs	r5, {r1, sl}
    29b0:	0300746e 	movweq	r7, #1134	; 0x46e
    29b4:	01330704 	teqeq	r3, r4, lsl #14
    29b8:	01030000 	mrseq	r0, (UNDEF: 3)
    29bc:	00011506 	andeq	r1, r1, r6, lsl #10
    29c0:	05020300 	streq	r0, [r2, #-768]	; 0xfffffd00
    29c4:	00000000 	andeq	r0, r0, r0
    29c8:	7e050403 	cdpvc	4, 0, cr0, cr5, cr3, {0}
    29cc:	03000000 	movweq	r0, #0
    29d0:	00790508 	rsbseq	r0, r9, r8, lsl #10
    29d4:	01030000 	mrseq	r0, (UNDEF: 3)
    29d8:	00011308 	andeq	r1, r1, r8, lsl #6
    29dc:	07020300 	streq	r0, [r2, -r0, lsl #6]
    29e0:	00000155 	andeq	r0, r0, r5, asr r1
    29e4:	2e070403 	cdpcs	4, 0, cr0, cr7, cr3, {0}
    29e8:	03000001 	movweq	r0, #1
    29ec:	01290708 			; <UNDEFINED> instruction: 0x01290708
    29f0:	25040000 	strcs	r0, [r4, #-0]
    29f4:	7a000000 	bvc	29fc <__code_start__-0x5604>
    29f8:	05000000 	streq	r0, [r0, #-0]
    29fc:	00000025 	andeq	r0, r0, r5, lsr #32
    2a00:	001e0600 	andseq	r0, lr, r0, lsl #12
    2a04:	1c020000 	stcne	0, cr0, [r2], {-0}
    2a08:	0000860e 	andeq	r8, r0, lr, lsl #12
    2a0c:	6b040700 	blvs	104614 <__bss_end__+0xfb044>
    2a10:	04000000 	streq	r0, [r0], #-0
    2a14:	00000025 	andeq	r0, r0, r5, lsr #32
    2a18:	0000009b 	muleq	r0, fp, r0
    2a1c:	00009b05 	andeq	r9, r0, r5, lsl #22
    2a20:	04070000 	streq	r0, [r7], #-0
    2a24:	000000a8 	andeq	r0, r0, r8, lsr #1
    2a28:	1c080103 	stfnes	f0, [r8], {3}
    2a2c:	08000001 	stmdaeq	r0, {r0}
    2a30:	000000a1 	andeq	r0, r0, r1, lsr #1
    2a34:	0002fb06 	andeq	pc, r2, r6, lsl #22
    2a38:	0e210200 	cdpeq	2, 2, cr0, cr1, cr0, {0}
    2a3c:	000000b9 	strheq	r0, [r0], -r9
    2a40:	008c0407 	addeq	r0, ip, r7, lsl #8
    2a44:	dd090000 	stcle	0, cr0, [r9, #-0]
    2a48:	01000003 	tsteq	r0, r3
    2a4c:	00250503 	eoreq	r0, r5, r3, lsl #10
    2a50:	8f140000 	svchi	0x00140000
    2a54:	002c0000 	eoreq	r0, ip, r0
    2a58:	9c010000 	stcls	0, cr0, [r1], {-0}
    2a5c:	0100610a 	tsteq	r0, sl, lsl #2
    2a60:	009b1803 	addseq	r1, fp, r3, lsl #16
    2a64:	13360000 	teqne	r6, #0, 0
    2a68:	13320000 	teqne	r2, #0, 0
    2a6c:	620a0000 	andvs	r0, sl, #0, 0
    2a70:	27030100 	strcs	r0, [r3, -r0, lsl #2]
    2a74:	0000009b 	muleq	r0, fp, r0
    2a78:	00001358 	andeq	r1, r0, r8, asr r3
    2a7c:	00001354 	andeq	r1, r0, r4, asr r3
    2a80:	010f0000 	mrseq	r0, CPSR
    2a84:	00040000 	andeq	r0, r4, r0
    2a88:	000010e6 	andeq	r1, r0, r6, ror #1
    2a8c:	01780104 	cmneq	r8, r4, lsl #2
    2a90:	a20c0000 	andge	r0, ip, #0, 0
    2a94:	aa000008 	bge	2abc <__code_start__-0x5544>
    2a98:	40000002 	andmi	r0, r0, r2
    2a9c:	2000008f 	andcs	r0, r0, pc, lsl #1
    2aa0:	53000000 	movwpl	r0, #0
    2aa4:	02000016 	andeq	r0, r0, #22, 0
    2aa8:	6e690504 	cdpvs	5, 6, cr0, cr9, cr4, {0}
    2aac:	04030074 	streq	r0, [r3], #-116	; 0xffffff8c
    2ab0:	00013307 	andeq	r3, r1, r7, lsl #6
    2ab4:	06010300 	streq	r0, [r1], -r0, lsl #6
    2ab8:	00000115 	andeq	r0, r0, r5, lsl r1
    2abc:	00050203 	andeq	r0, r5, r3, lsl #4
    2ac0:	03000000 	movweq	r0, #0
    2ac4:	007e0504 	rsbseq	r0, lr, r4, lsl #10
    2ac8:	08030000 	stmdaeq	r3, {}	; <UNPREDICTABLE>
    2acc:	00007905 	andeq	r7, r0, r5, lsl #18
    2ad0:	08010300 	stmdaeq	r1, {r8, r9}
    2ad4:	00000113 	andeq	r0, r0, r3, lsl r1
    2ad8:	55070203 	strpl	r0, [r7, #-515]	; 0xfffffdfd
    2adc:	03000001 	movweq	r0, #1
    2ae0:	012e0704 			; <UNDEFINED> instruction: 0x012e0704
    2ae4:	08030000 	stmdaeq	r3, {}	; <UNPREDICTABLE>
    2ae8:	00012907 	andeq	r2, r1, r7, lsl #18
    2aec:	00250400 	eoreq	r0, r5, r0, lsl #8
    2af0:	007a0000 	rsbseq	r0, sl, r0
    2af4:	25050000 	strcs	r0, [r5, #-0]
    2af8:	00000000 	andeq	r0, r0, r0
    2afc:	00001e06 	andeq	r1, r0, r6, lsl #28
    2b00:	0e1c0200 	cdpeq	2, 1, cr0, cr12, cr0, {0}
    2b04:	00000086 	andeq	r0, r0, r6, lsl #1
    2b08:	006b0407 	rsbeq	r0, fp, r7, lsl #8
    2b0c:	25040000 	strcs	r0, [r4, #-0]
    2b10:	9b000000 	blls	2b18 <__code_start__-0x54e8>
    2b14:	05000000 	streq	r0, [r0, #-0]
    2b18:	0000009b 	muleq	r0, fp, r0
    2b1c:	a8040700 	stmdage	r4, {r8, r9, sl}
    2b20:	03000000 	movweq	r0, #0
    2b24:	011c0801 	tsteq	ip, r1, lsl #16
    2b28:	a1080000 	mrsge	r0, (UNDEF: 8)
    2b2c:	06000000 	streq	r0, [r0], -r0
    2b30:	000002fb 	strdeq	r0, [r0], -fp
    2b34:	b90e2102 	stmdblt	lr, {r1, r8, sp}
    2b38:	07000000 	streq	r0, [r0, -r0]
    2b3c:	00008c04 	andeq	r8, r0, r4, lsl #24
    2b40:	03ae0900 			; <UNDEFINED> instruction: 0x03ae0900
    2b44:	03010000 	movweq	r0, #4096	; 0x1000
    2b48:	00010c07 	andeq	r0, r1, r7, lsl #24
    2b4c:	008f4000 	addeq	r4, pc, r0
    2b50:	00002000 	andeq	r2, r0, r0
    2b54:	0c9c0100 	ldfeqs	f0, [ip], {0}
    2b58:	0a000001 	beq	2b64 <__code_start__-0x549c>
    2b5c:	01003173 	tsteq	r0, r3, ror r1
    2b60:	010c1503 	tsteq	ip, r3, lsl #10
    2b64:	50010000 	andpl	r0, r1, r0
    2b68:	0032730b 	eorseq	r7, r2, fp, lsl #6
    2b6c:	9b260301 	blls	983778 <__bss_end__+0x97a1a8>
    2b70:	7c000000 	stcvc	0, cr0, [r0], {-0}
    2b74:	76000013 			; <UNDEFINED> instruction: 0x76000013
    2b78:	0c000013 	stceq	0, cr0, [r0], {19}
    2b7c:	04010073 	streq	r0, [r1], #-115	; 0xffffff8d
    2b80:	00010c14 	andeq	r0, r1, r4, lsl ip
    2b84:	0013ad00 	andseq	sl, r3, r0, lsl #26
    2b88:	0013a700 	andseq	sl, r3, r0, lsl #14
    2b8c:	04070000 	streq	r0, [r7], #-0
    2b90:	000000a1 	andeq	r0, r0, r1, lsr #1
    2b94:	00014e00 	andeq	r4, r1, r0, lsl #28
    2b98:	9c000400 	cfstrsls	mvf0, [r0], {-0}
    2b9c:	04000011 	streq	r0, [r0], #-17	; 0xffffffef
    2ba0:	00017801 	andeq	r7, r1, r1, lsl #16
    2ba4:	08b90c00 	ldmeq	r9!, {sl, fp}
    2ba8:	02aa0000 	adceq	r0, sl, #0, 0
    2bac:	00900000 	addseq	r0, r0, r0
    2bb0:	00000000 	andeq	r0, r0, r0
    2bb4:	17190000 	ldrne	r0, [r9, -r0]
    2bb8:	04020000 	streq	r0, [r2], #-0
    2bbc:	746e6905 	strbtvc	r6, [lr], #-2309	; 0xfffff6fb
    2bc0:	08b20300 	ldmeq	r2!, {r8, r9}
    2bc4:	d1030000 	mrsle	r0, (UNDEF: 3)
    2bc8:	00003817 	andeq	r3, r0, r7, lsl r8
    2bcc:	07040400 	streq	r0, [r4, -r0, lsl #8]
    2bd0:	00000133 	andeq	r0, r0, r3, lsr r1
    2bd4:	15060104 	strne	r0, [r6, #-260]	; 0xfffffefc
    2bd8:	04000001 	streq	r0, [r0], #-1
    2bdc:	00000502 	andeq	r0, r0, r2, lsl #10
    2be0:	04040000 	streq	r0, [r4], #-0
    2be4:	00007e05 	andeq	r7, r0, r5, lsl #28
    2be8:	05080400 	streq	r0, [r8, #-1024]	; 0xfffffc00
    2bec:	00000079 	andeq	r0, r0, r9, ror r0
    2bf0:	13080104 	movwne	r0, #33028	; 0x8104
    2bf4:	05000001 	streq	r0, [r0, #-1]
    2bf8:	0000005b 	andeq	r0, r0, fp, asr r0
    2bfc:	55070204 	strpl	r0, [r7, #-516]	; 0xfffffdfc
    2c00:	04000001 	streq	r0, [r0], #-1
    2c04:	012e0704 			; <UNDEFINED> instruction: 0x012e0704
    2c08:	08040000 	stmdaeq	r4, {}	; <UNPREDICTABLE>
    2c0c:	00012907 	andeq	r2, r1, r7, lsl #18
    2c10:	00250600 	eoreq	r0, r5, r0, lsl #12
    2c14:	008b0000 	addeq	r0, fp, r0
    2c18:	25070000 	strcs	r0, [r7, #-0]
    2c1c:	00000000 	andeq	r0, r0, r0
    2c20:	00001e08 	andeq	r1, r0, r8, lsl #28
    2c24:	0e1c0200 	cdpeq	2, 1, cr0, cr12, cr0, {0}
    2c28:	00000097 	muleq	r0, r7, r0
    2c2c:	007c0409 	rsbseq	r0, ip, r9, lsl #8
    2c30:	25060000 	strcs	r0, [r6, #-0]
    2c34:	ac000000 	stcge	0, cr0, [r0], {-0}
    2c38:	07000000 	streq	r0, [r0, -r0]
    2c3c:	000000ac 	andeq	r0, r0, ip, lsr #1
    2c40:	b9040900 	stmdblt	r4, {r8, fp}
    2c44:	04000000 	streq	r0, [r0], #-0
    2c48:	011c0801 	tsteq	ip, r1, lsl #16
    2c4c:	b2050000 	andlt	r0, r5, #0, 0
    2c50:	08000000 	stmdaeq	r0, {}	; <UNPREDICTABLE>
    2c54:	000002fb 	strdeq	r0, [r0], -fp
    2c58:	ca0e2102 	bgt	38b068 <__bss_end__+0x381a98>
    2c5c:	09000000 	stmdbeq	r0, {}	; <UNPREDICTABLE>
    2c60:	00009d04 	andeq	r9, r0, r4, lsl #26
    2c64:	04050a00 	streq	r0, [r5], #-2560	; 0xfffff600
    2c68:	04010000 	streq	r0, [r1], #-0
    2c6c:	00002505 	andeq	r2, r0, r5, lsl #10
    2c70:	008f6000 	addeq	r6, pc, r0
    2c74:	00002c00 	andeq	r2, r0, r0, lsl #24
    2c78:	4b9c0100 	blmi	fe703080 <__bss_end__+0xfe6f9ab0>
    2c7c:	0b000001 	bleq	2c88 <__code_start__-0x5378>
    2c80:	0031735f 	eorseq	r7, r1, pc, asr r3
    2c84:	ac190401 	cfldrsge	mvf0, [r9], {1}
    2c88:	dc000000 	stcle	0, cr0, [r0], {-0}
    2c8c:	d8000013 	stmdale	r0, {r0, r1, r4}
    2c90:	0b000013 	bleq	2ce4 <__code_start__-0x531c>
    2c94:	0032735f 	eorseq	r7, r2, pc, asr r3
    2c98:	ac2a0401 	cfstrsge	mvf0, [sl], #-4
    2c9c:	01000000 	mrseq	r0, (UNDEF: 0)
    2ca0:	fd000014 	stc2	0, cr0, [r0, #-80]	; 0xffffffb0
    2ca4:	0b000013 	bleq	2cf8 <__code_start__-0x5308>
    2ca8:	0401006e 	streq	r0, [r1], #-110	; 0xffffff92
    2cac:	00002c36 	andeq	r2, r0, r6, lsr ip
    2cb0:	00142800 	andseq	r2, r4, r0, lsl #16
    2cb4:	00142200 	andseq	r2, r4, r0, lsl #4
    2cb8:	31730c00 	cmncc	r3, r0, lsl #24
    2cbc:	1a050100 	bne	1430c4 <__bss_end__+0x139af4>
    2cc0:	0000014b 	andeq	r0, r0, fp, asr #2
    2cc4:	0000145b 	andeq	r1, r0, fp, asr r4
    2cc8:	00001453 	andeq	r1, r0, r3, asr r4
    2ccc:	0032730c 	eorseq	r7, r2, ip, lsl #6
    2cd0:	4b2c0501 	blmi	b040dc <__bss_end__+0xafab0c>
    2cd4:	97000001 	strls	r0, [r0, -r1]
    2cd8:	91000014 	tstls	r0, r4, lsl r0
    2cdc:	00000014 	andeq	r0, r0, r4, lsl r0
    2ce0:	00620409 	rsbeq	r0, r2, r9, lsl #8
    2ce4:	ce000000 	cdpgt	0, 0, cr0, cr0, cr0, {0}
    2ce8:	04000000 	streq	r0, [r0], #-0
    2cec:	00125000 	andseq	r5, r2, r0
    2cf0:	78010400 	stmdavc	r1, {sl}
    2cf4:	0c000001 	stceq	0, cr0, [r0], {1}
    2cf8:	000008ca 	andeq	r0, r0, sl, asr #17
    2cfc:	000002aa 	andeq	r0, r0, sl, lsr #5
    2d00:	00008f8c 	andeq	r8, r0, ip, lsl #31
    2d04:	00000004 	andeq	r0, r0, r4
    2d08:	0000183f 	andeq	r1, r0, pc, lsr r8
    2d0c:	69050402 	stmdbvs	r5, {r1, sl}
    2d10:	0300746e 	movweq	r7, #1134	; 0x46e
    2d14:	01330704 	teqeq	r3, r4, lsl #14
    2d18:	01030000 	mrseq	r0, (UNDEF: 3)
    2d1c:	00011506 	andeq	r1, r1, r6, lsl #10
    2d20:	05020300 	streq	r0, [r2, #-768]	; 0xfffffd00
    2d24:	00000000 	andeq	r0, r0, r0
    2d28:	7e050403 	cdpvc	4, 0, cr0, cr5, cr3, {0}
    2d2c:	03000000 	movweq	r0, #0
    2d30:	00790508 	rsbseq	r0, r9, r8, lsl #10
    2d34:	01030000 	mrseq	r0, (UNDEF: 3)
    2d38:	00011308 	andeq	r1, r1, r8, lsl #6
    2d3c:	07020300 	streq	r0, [r2, -r0, lsl #6]
    2d40:	00000155 	andeq	r0, r0, r5, asr r1
    2d44:	2e070403 	cdpcs	4, 0, cr0, cr7, cr3, {0}
    2d48:	03000001 	movweq	r0, #1
    2d4c:	01290708 			; <UNDEFINED> instruction: 0x01290708
    2d50:	25040000 	strcs	r0, [r4, #-0]
    2d54:	7a000000 	bvc	2d5c <__code_start__-0x52a4>
    2d58:	05000000 	streq	r0, [r0, #-0]
    2d5c:	00000025 	andeq	r0, r0, r5, lsr #32
    2d60:	001e0600 	andseq	r0, lr, r0, lsl #12
    2d64:	1c020000 	stcne	0, cr0, [r2], {-0}
    2d68:	0000860e 	andeq	r8, r0, lr, lsl #12
    2d6c:	6b040700 	blvs	104974 <__bss_end__+0xfb3a4>
    2d70:	04000000 	streq	r0, [r0], #-0
    2d74:	00000025 	andeq	r0, r0, r5, lsr #32
    2d78:	0000009b 	muleq	r0, fp, r0
    2d7c:	00009b05 	andeq	r9, r0, r5, lsl #22
    2d80:	04070000 	streq	r0, [r7], #-0
    2d84:	000000a8 	andeq	r0, r0, r8, lsr #1
    2d88:	1c080103 	stfnes	f0, [r8], {3}
    2d8c:	08000001 	stmdaeq	r0, {r0}
    2d90:	000000a1 	andeq	r0, r0, r1, lsr #1
    2d94:	0002fb06 	andeq	pc, r2, r6, lsl #22
    2d98:	0e210200 	cdpeq	2, 2, cr0, cr1, cr0, {0}
    2d9c:	000000b9 	strheq	r0, [r0], -r9
    2da0:	008c0407 	addeq	r0, ip, r7, lsl #8
    2da4:	d3090000 	movwle	r0, #36864	; 0x9000
    2da8:	01000004 	tsteq	r0, r4
    2dac:	8f8c0603 	svchi	0x008c0603
    2db0:	00040000 	andeq	r0, r4, r0
    2db4:	9c010000 	stcls	0, cr0, [r1], {-0}
	...

Disassembly of section .debug_abbrev:

00000000 <.debug_abbrev>:
       0:	25011101 	strcs	r1, [r1, #-257]	; 0xfffffeff
       4:	030b130e 	movweq	r1, #45838	; 0xb30e
       8:	110e1b0e 	tstne	lr, lr, lsl #22
       c:	10061201 	andne	r1, r6, r1, lsl #4
      10:	02000017 	andeq	r0, r0, #23, 0
      14:	0b0b0024 	bleq	2c00ac <__bss_end__+0x2b6adc>
      18:	08030b3e 	stmdaeq	r3, {r1, r2, r3, r4, r5, r8, r9, fp}
      1c:	24030000 	strcs	r0, [r3], #-0
      20:	3e0b0b00 	vmlacc.f64	d0, d11, d0
      24:	000e030b 	andeq	r0, lr, fp, lsl #6
      28:	00350400 	eorseq	r0, r5, r0, lsl #8
      2c:	00001349 	andeq	r1, r0, r9, asr #6
      30:	49002605 	stmdbmi	r0, {r0, r2, r9, sl, sp}
      34:	06000013 			; <UNDEFINED> instruction: 0x06000013
      38:	19270115 	stmdbne	r7!, {r0, r2, r4, r8}
      3c:	13011349 	movwne	r1, #4937	; 0x1349
      40:	05070000 	streq	r0, [r7, #-0]
      44:	00134900 	andseq	r4, r3, r0, lsl #18
      48:	00340800 	eorseq	r0, r4, r0, lsl #16
      4c:	0b3a0e03 	bleq	e83860 <__bss_end__+0xe7a290>
      50:	0b390b3b 	bleq	e42d44 <__bss_end__+0xe39774>
      54:	193f1349 	ldmdbne	pc!, {r0, r3, r6, r8, r9, ip}	; <UNPREDICTABLE>
      58:	0000193c 	andeq	r1, r0, ip, lsr r9
      5c:	0b000f09 	bleq	3c88 <__code_start__-0x4378>
      60:	0013490b 	andseq	r4, r3, fp, lsl #18
      64:	01130a00 	tsteq	r3, r0, lsl #20
      68:	0b3a0b0b 	bleq	e82c9c <__bss_end__+0xe796cc>
      6c:	0b390b3b 	bleq	e42d60 <__bss_end__+0xe39790>
      70:	00001301 	andeq	r1, r0, r1, lsl #6
      74:	03000d0b 	movweq	r0, #3339	; 0xd0b
      78:	3b0b3a08 	blcc	2ce8a0 <__bss_end__+0x2c52d0>
      7c:	490b390b 	stmdbmi	fp, {r0, r1, r3, r8, fp, ip, sp}
      80:	000b3813 	andeq	r3, fp, r3, lsl r8
      84:	000d0c00 	andeq	r0, sp, r0, lsl #24
      88:	0b3a0e03 	bleq	e8389c <__bss_end__+0xe7a2cc>
      8c:	0b390b3b 	bleq	e42d80 <__bss_end__+0xe397b0>
      90:	0b381349 	bleq	e04dbc <__bss_end__+0xdfb7ec>
      94:	160d0000 	strne	r0, [sp], -r0
      98:	3a0e0300 	bcc	380ca0 <__bss_end__+0x3776d0>
      9c:	390b3b0b 	stmdbcc	fp, {r0, r1, r3, r8, r9, fp, ip, sp}
      a0:	0013490b 	andseq	r4, r3, fp, lsl #18
      a4:	00340e00 	eorseq	r0, r4, r0, lsl #28
      a8:	0b3a0e03 	bleq	e838bc <__bss_end__+0xe7a2ec>
      ac:	0b390b3b 	bleq	e42da0 <__bss_end__+0xe397d0>
      b0:	00001349 	andeq	r1, r0, r9, asr #6
      b4:	3f012e0f 	svccc	0x00012e0f
      b8:	3a0e0319 	bcc	380d24 <__bss_end__+0x377754>
      bc:	390b3b0b 	stmdbcc	fp, {r0, r1, r3, r8, r9, fp, ip, sp}
      c0:	1119270b 	tstne	r9, fp, lsl #14
      c4:	40061201 	andmi	r1, r6, r1, lsl #4
      c8:	19429718 	stmdbne	r2, {r3, r4, r8, r9, sl, ip, pc}^
      cc:	00001301 	andeq	r1, r0, r1, lsl #6
      d0:	03003410 	movweq	r3, #1040	; 0x410
      d4:	3b0b3a08 	blcc	2ce8fc <__bss_end__+0x2c532c>
      d8:	490b390b 	stmdbmi	fp, {r0, r1, r3, r8, fp, ip, sp}
      dc:	000b1c13 	andeq	r1, fp, r3, lsl ip
      e0:	00341100 	eorseq	r1, r4, r0, lsl #2
      e4:	0b3a0803 	bleq	e820f8 <__bss_end__+0xe78b28>
      e8:	0b390b3b 	bleq	e42ddc <__bss_end__+0xe3980c>
      ec:	18021349 	stmdane	r2, {r0, r3, r6, r8, r9, ip}
      f0:	0b120000 	bleq	4800f8 <__bss_end__+0x476b28>
      f4:	12011101 	andne	r1, r1, #1073741824	; 0x40000000
      f8:	00130106 	andseq	r0, r3, r6, lsl #2
      fc:	00341300 	eorseq	r1, r4, r0, lsl #6
     100:	0b3a0803 	bleq	e82114 <__bss_end__+0xe78b44>
     104:	0b390b3b 	bleq	e42df8 <__bss_end__+0xe39828>
     108:	17021349 	strne	r1, [r2, -r9, asr #6]
     10c:	001742b7 			; <UNDEFINED> instruction: 0x001742b7
     110:	010b1400 	tsteq	fp, r0, lsl #8
     114:	00001755 	andeq	r1, r0, r5, asr r7
     118:	31011d15 	tstcc	r1, r5, lsl sp
     11c:	b8015213 	stmdalt	r1, {r0, r1, r4, r9, ip, lr}
     120:	17550b42 	ldrbne	r0, [r5, -r2, asr #22]
     124:	0b590b58 	bleq	1642e8c <__bss_end__+0x16398bc>
     128:	13010b57 	movwne	r0, #6999	; 0x1b57
     12c:	05160000 	ldreq	r0, [r6, #-0]
     130:	02133100 	andseq	r3, r3, #0
     134:	1742b717 	smlaldne	fp, r2, r7, r7
     138:	34170000 	ldrcc	r0, [r7], #-0
     13c:	02133100 	andseq	r3, r3, #0
     140:	1742b717 	smlaldne	fp, r2, r7, r7
     144:	0b180000 	bleq	60014c <__bss_end__+0x5f6b7c>
     148:	55133101 	ldrpl	r3, [r3, #-257]	; 0xfffffeff
     14c:	19000017 	stmdbne	r0, {r0, r1, r2, r4}
     150:	01018289 	smlabbeq	r1, r9, r2, r8
     154:	13310111 	teqne	r1, #1073741828	; 0x40000004
     158:	8a1a0000 	bhi	680160 <__bss_end__+0x676b90>
     15c:	02000182 	andeq	r0, r0, #-2147483616	; 0x80000020
     160:	18429118 	stmdane	r2, {r3, r4, r8, ip, pc}^
     164:	891b0000 	ldmdbhi	fp, {}	; <UNPREDICTABLE>
     168:	11010182 	smlabbne	r1, r2, r1, r0
     16c:	01133101 	tsteq	r3, r1, lsl #2
     170:	1c000013 	stcne	0, cr0, [r0], {19}
     174:	00018289 	andeq	r8, r1, r9, lsl #5
     178:	13310111 	teqne	r1, #1073741828	; 0x40000004
     17c:	011d0000 	tsteq	sp, r0
     180:	01134901 	tsteq	r3, r1, lsl #18
     184:	1e000013 	mcrne	0, 0, r0, cr0, cr3, {0}
     188:	13490021 	movtne	r0, #36897	; 0x9021
     18c:	00000b2f 	andeq	r0, r0, pc, lsr #22
     190:	3f012e1f 	svccc	0x00012e1f
     194:	3a0e0319 	bcc	380e00 <__bss_end__+0x377830>
     198:	390b3b0b 	stmdbcc	fp, {r0, r1, r3, r8, r9, fp, ip, sp}
     19c:	4919270b 	ldmdbmi	r9, {r0, r1, r3, r8, r9, sl, sp}
     1a0:	12011113 	andne	r1, r1, #-1073741820	; 0xc0000004
     1a4:	97184006 	ldrls	r4, [r8, -r6]
     1a8:	13011942 	movwne	r1, #6466	; 0x1942
     1ac:	05200000 	streq	r0, [r0, #-0]!
     1b0:	3a080300 	bcc	200db8 <__bss_end__+0x1f77e8>
     1b4:	390b3b0b 	stmdbcc	fp, {r0, r1, r3, r8, r9, fp, ip, sp}
     1b8:	0213490b 	andseq	r4, r3, #180224	; 0x2c000
     1bc:	1742b717 	smlaldne	fp, r2, r7, r7
     1c0:	05210000 	streq	r0, [r1, #-0]!
     1c4:	3a0e0300 	bcc	380dcc <__bss_end__+0x3777fc>
     1c8:	390b3b0b 	stmdbcc	fp, {r0, r1, r3, r8, r9, fp, ip, sp}
     1cc:	0213490b 	andseq	r4, r3, #180224	; 0x2c000
     1d0:	1742b717 	smlaldne	fp, r2, r7, r7
     1d4:	34220000 	strtcc	r0, [r2], #-0
     1d8:	3a0e0300 	bcc	380de0 <__bss_end__+0x377810>
     1dc:	390b3b0b 	stmdbcc	fp, {r0, r1, r3, r8, r9, fp, ip, sp}
     1e0:	0213490b 	andseq	r4, r3, #180224	; 0x2c000
     1e4:	1742b717 	smlaldne	fp, r2, r7, r7
     1e8:	1d230000 	stcne	0, cr0, [r3, #-0]
     1ec:	52133101 	andspl	r3, r3, #1073741824	; 0x40000000
     1f0:	0b42b801 	bleq	10ae1fc <__bss_end__+0x10a4c2c>
     1f4:	06120111 			; <UNDEFINED> instruction: 0x06120111
     1f8:	0b590b58 	bleq	1642f60 <__bss_end__+0x1639990>
     1fc:	00000b57 	andeq	r0, r0, r7, asr fp
     200:	31011d24 	tstcc	r1, r4, lsr #26
     204:	b8015213 	stmdalt	r1, {r0, r1, r4, r9, ip, lr}
     208:	01110b42 	tsteq	r1, r2, asr #22
     20c:	0b580612 	bleq	1601a5c <__bss_end__+0x15f848c>
     210:	0b570b59 	bleq	15c2f7c <__bss_end__+0x15b99ac>
     214:	00001301 	andeq	r1, r0, r1, lsl #6
     218:	03012e25 	movweq	r2, #7717	; 0x1e25
     21c:	3b0b3a0e 	blcc	2cea5c <__bss_end__+0x2c548c>
     220:	490b390b 	stmdbmi	fp, {r0, r1, r3, r8, fp, ip, sp}
     224:	010b2013 	tsteq	fp, r3, lsl r0
     228:	26000013 			; <UNDEFINED> instruction: 0x26000013
     22c:	0e03012e 	adfeqsp	f0, f3, #0.5
     230:	0b3b0b3a 	bleq	ec2f20 <__bss_end__+0xeb9950>
     234:	19270b39 	stmdbne	r7!, {r0, r3, r4, r5, r8, r9, fp}
     238:	0b201349 	bleq	804f64 <__bss_end__+0x7fb994>
     23c:	00001301 	andeq	r1, r0, r1, lsl #6
     240:	03000527 	movweq	r0, #1319	; 0x527
     244:	3b0b3a08 	blcc	2cea6c <__bss_end__+0x2c549c>
     248:	490b390b 	stmdbmi	fp, {r0, r1, r3, r8, fp, ip, sp}
     24c:	28000013 	stmdacs	r0, {r0, r1, r4}
     250:	0e03012e 	adfeqsp	f0, f3, #0.5
     254:	0b3b0b3a 	bleq	ec2f44 <__bss_end__+0xeb9974>
     258:	19270b39 	stmdbne	r7!, {r0, r3, r4, r5, r8, r9, fp}
     25c:	01111349 	tsteq	r1, r9, asr #6
     260:	18400612 	stmdane	r0, {r1, r4, r9, sl}^
     264:	01194297 			; <UNDEFINED> instruction: 0x01194297
     268:	29000013 	stmdbcs	r0, {r0, r1, r4}
     26c:	0e030034 	mcreq	0, 0, r0, cr3, cr4, {1}
     270:	19341349 	ldmdbne	r4!, {r0, r3, r6, r8, r9, ip}
     274:	00001802 	andeq	r1, r0, r2, lsl #16
     278:	0300052a 	movweq	r0, #1322	; 0x52a
     27c:	3b0b3a0e 	blcc	2ceabc <__bss_end__+0x2c54ec>
     280:	490b390b 	stmdbmi	fp, {r0, r1, r3, r8, fp, ip, sp}
     284:	2b000013 	blcs	2d8 <__code_start__-0x7d28>
     288:	08030034 	stmdaeq	r3, {r2, r4, r5}
     28c:	0b3b0b3a 	bleq	ec2f7c <__bss_end__+0xeb99ac>
     290:	13490b39 	movtne	r0, #39737	; 0x9b39
     294:	0b2c0000 	bleq	b0029c <__bss_end__+0xaf6ccc>
     298:	2d000001 	stccs	0, cr0, [r0, #-4]
     29c:	193f002e 	ldmdbne	pc!, {r1, r2, r3, r5}	; <UNPREDICTABLE>
     2a0:	0e6e193c 			; <UNDEFINED> instruction: 0x0e6e193c
     2a4:	0b3a0e03 	bleq	e83ab8 <__bss_end__+0xe7a4e8>
     2a8:	0b390b3b 	bleq	e42f9c <__bss_end__+0xe399cc>
     2ac:	01000000 	mrseq	r0, (UNDEF: 0)
     2b0:	0e250111 	mcreq	1, 1, r0, cr5, cr1, {0}
     2b4:	0e030b13 	vmoveq.32	d3[0], r0
     2b8:	01110e1b 	tsteq	r1, fp, lsl lr
     2bc:	17100612 			; <UNDEFINED> instruction: 0x17100612
     2c0:	16020000 	strne	r0, [r2], -r0
     2c4:	3a0e0300 	bcc	380ecc <__bss_end__+0x3778fc>
     2c8:	390b3b0b 	stmdbcc	fp, {r0, r1, r3, r8, r9, fp, ip, sp}
     2cc:	0013490b 	andseq	r4, r3, fp, lsl #18
     2d0:	01130300 	tsteq	r3, r0, lsl #6
     2d4:	0b0b0e03 	bleq	2c3ae8 <__bss_end__+0x2ba518>
     2d8:	0b3b0b3a 	bleq	ec2fc8 <__bss_end__+0xeb99f8>
     2dc:	00001301 	andeq	r1, r0, r1, lsl #6
     2e0:	03000d04 	movweq	r0, #3332	; 0xd04
     2e4:	3813490e 	ldmdacc	r3, {r1, r2, r3, r8, fp, lr}
     2e8:	0019340b 	andseq	r3, r9, fp, lsl #8
     2ec:	000f0500 	andeq	r0, pc, r0, lsl #10
     2f0:	00000b0b 	andeq	r0, r0, fp, lsl #22
     2f4:	0b002406 	bleq	9314 <__data_end__+0x144>
     2f8:	030b3e0b 	movweq	r3, #48651	; 0xbe0b
     2fc:	07000008 	streq	r0, [r0, -r8]
     300:	0b0b0024 	bleq	2c0398 <__bss_end__+0x2b6dc8>
     304:	0e030b3e 	vmoveq.16	d3[0], r0
     308:	15080000 	strne	r0, [r8, #-0]
     30c:	49192701 	ldmdbmi	r9, {r0, r8, r9, sl, sp}
     310:	00130113 	andseq	r0, r3, r3, lsl r1
     314:	00050900 	andeq	r0, r5, r0, lsl #18
     318:	00001349 	andeq	r1, r0, r9, asr #6
     31c:	0300340a 	movweq	r3, #1034	; 0x40a
     320:	3b0b3a0e 	blcc	2ceb60 <__bss_end__+0x2c5590>
     324:	490b390b 	stmdbmi	fp, {r0, r1, r3, r8, fp, ip, sp}
     328:	3c193f13 	ldccc	15, cr3, [r9], {19}
     32c:	0b000019 	bleq	398 <__code_start__-0x7c68>
     330:	0b0b000f 	bleq	2c0374 <__bss_end__+0x2b6da4>
     334:	00001349 	andeq	r1, r0, r9, asr #6
     338:	4900260c 	stmdbmi	r0, {r2, r3, r9, sl, sp}
     33c:	0d000013 	stceq	0, cr0, [r0, #-76]	; 0xffffffb4
     340:	193f012e 	ldmdbne	pc!, {r1, r2, r3, r5, r8}	; <UNPREDICTABLE>
     344:	0b3a0e03 	bleq	e83b58 <__bss_end__+0xe7a588>
     348:	0b390b3b 	bleq	e4303c <__bss_end__+0xe39a6c>
     34c:	13491927 	movtne	r1, #39207	; 0x9927
     350:	06120111 			; <UNDEFINED> instruction: 0x06120111
     354:	42971840 	addsmi	r1, r7, #64, 16	; 0x400000
     358:	00130119 	andseq	r0, r3, r9, lsl r1
     35c:	00050e00 	andeq	r0, r5, r0, lsl #28
     360:	0b3a0803 	bleq	e82374 <__bss_end__+0xe78da4>
     364:	0b390b3b 	bleq	e43058 <__bss_end__+0xe39a88>
     368:	18021349 	stmdane	r2, {r0, r3, r6, r8, r9, ip}
     36c:	180f0000 	stmdane	pc, {}	; <UNPREDICTABLE>
     370:	10000000 	andne	r0, r0, r0
     374:	08030034 	stmdaeq	r3, {r2, r4, r5}
     378:	0b3b0b3a 	bleq	ec3068 <__bss_end__+0xeb9a98>
     37c:	13490b39 	movtne	r0, #39737	; 0x9b39
     380:	00001802 	andeq	r1, r0, r2, lsl #16
     384:	03003411 	movweq	r3, #1041	; 0x411
     388:	3b0b3a0e 	blcc	2cebc8 <__bss_end__+0x2c55f8>
     38c:	490b390b 	stmdbmi	fp, {r0, r1, r3, r8, fp, ip, sp}
     390:	00180213 	andseq	r0, r8, r3, lsl r2
     394:	00341200 	eorseq	r1, r4, r0, lsl #4
     398:	0b3a0803 	bleq	e823ac <__bss_end__+0xe78ddc>
     39c:	0b390b3b 	bleq	e43090 <__bss_end__+0xe39ac0>
     3a0:	17021349 	strne	r1, [r2, -r9, asr #6]
     3a4:	001742b7 			; <UNDEFINED> instruction: 0x001742b7
     3a8:	82891300 	addhi	r1, r9, #0, 6
     3ac:	01110101 	tsteq	r1, r1, lsl #2
     3b0:	13011331 	movwne	r1, #4913	; 0x1331
     3b4:	8a140000 	bhi	5003bc <__bss_end__+0x4f6dec>
     3b8:	02000182 	andeq	r0, r0, #-2147483616	; 0x80000020
     3bc:	18429118 	stmdane	r2, {r3, r4, r8, ip, pc}^
     3c0:	89150000 	ldmdbhi	r5, {}	; <UNPREDICTABLE>
     3c4:	11010182 	smlabbne	r1, r2, r1, r0
     3c8:	16000001 	strne	r0, [r0], -r1
     3cc:	13490101 	movtne	r0, #37121	; 0x9101
     3d0:	00001301 	andeq	r1, r0, r1, lsl #6
     3d4:	49002117 	stmdbmi	r0, {r0, r1, r2, r4, r8, sp}
     3d8:	00052f13 	andeq	r2, r5, r3, lsl pc
     3dc:	002e1800 	eoreq	r1, lr, r0, lsl #16
     3e0:	193c193f 	ldmdbne	ip!, {r0, r1, r2, r3, r4, r5, r8, fp, ip}
     3e4:	0e030e6e 	cdpeq	14, 0, cr0, cr3, cr14, {3}
     3e8:	0b3b0b3a 	bleq	ec30d8 <__bss_end__+0xeb9b08>
     3ec:	00000b39 	andeq	r0, r0, r9, lsr fp
     3f0:	01110100 	tsteq	r1, r0, lsl #2
     3f4:	0b130e25 	bleq	4c3c90 <__bss_end__+0x4ba6c0>
     3f8:	0e1b0e03 	cdpeq	14, 1, cr0, cr11, cr3, {0}
     3fc:	06120111 			; <UNDEFINED> instruction: 0x06120111
     400:	00001710 	andeq	r1, r0, r0, lsl r7
     404:	0b002402 	bleq	9414 <__data_end__+0x244>
     408:	030b3e0b 	movweq	r3, #48651	; 0xbe0b
     40c:	03000008 	movweq	r0, #8
     410:	0b0b0024 	bleq	2c04a8 <__bss_end__+0x2b6ed8>
     414:	0e030b3e 	vmoveq.16	d3[0], r0
     418:	15040000 	strne	r0, [r4, #-0]
     41c:	49192701 	ldmdbmi	r9, {r0, r8, r9, sl, sp}
     420:	00130113 	andseq	r0, r3, r3, lsl r1
     424:	00050500 	andeq	r0, r5, r0, lsl #10
     428:	00001349 	andeq	r1, r0, r9, asr #6
     42c:	03003406 	movweq	r3, #1030	; 0x406
     430:	3b0b3a0e 	blcc	2cec70 <__bss_end__+0x2c56a0>
     434:	490b390b 	stmdbmi	fp, {r0, r1, r3, r8, fp, ip, sp}
     438:	3c193f13 	ldccc	15, cr3, [r9], {19}
     43c:	07000019 	smladeq	r0, r9, r0, r0
     440:	0b0b000f 	bleq	2c0484 <__bss_end__+0x2b6eb4>
     444:	00001349 	andeq	r1, r0, r9, asr #6
     448:	49002608 	stmdbmi	r0, {r3, r9, sl, sp}
     44c:	09000013 	stmdbeq	r0, {r0, r1, r4}
     450:	13470034 	movtne	r0, #28724	; 0x7034
     454:	0b3b0b3a 	bleq	ec3144 <__bss_end__+0xeb9b74>
     458:	18020b39 	stmdane	r2, {r0, r3, r4, r5, r8, r9, fp}
     45c:	2e0a0000 	cdpcs	0, 0, cr0, cr10, cr0, {0}
     460:	03193f01 	tsteq	r9, #1, 30
     464:	3b0b3a0e 	blcc	2ceca4 <__bss_end__+0x2c56d4>
     468:	270b390b 	strcs	r3, [fp, -fp, lsl #18]
     46c:	11134919 	tstne	r3, r9, lsl r9
     470:	40061201 	andmi	r1, r6, r1, lsl #4
     474:	19429618 	stmdbne	r2, {r3, r4, r9, sl, ip, pc}^
     478:	050b0000 	streq	r0, [fp, #-0]
     47c:	3a080300 	bcc	201084 <__bss_end__+0x1f7ab4>
     480:	390b3b0b 	stmdbcc	fp, {r0, r1, r3, r8, r9, fp, ip, sp}
     484:	0213490b 	andseq	r4, r3, #180224	; 0x2c000
     488:	1742b717 	smlaldne	fp, r2, r7, r7
     48c:	01000000 	mrseq	r0, (UNDEF: 0)
     490:	0e250111 	mcreq	1, 1, r0, cr5, cr1, {0}
     494:	0e030b13 	vmoveq.32	d3[0], r0
     498:	01110e1b 	tsteq	r1, fp, lsl lr
     49c:	17100612 			; <UNDEFINED> instruction: 0x17100612
     4a0:	24020000 	strcs	r0, [r2], #-0
     4a4:	3e0b0b00 	vmlacc.f64	d0, d11, d0
     4a8:	0008030b 	andeq	r0, r8, fp, lsl #6
     4ac:	00240300 	eoreq	r0, r4, r0, lsl #6
     4b0:	0b3e0b0b 	bleq	f830e4 <__bss_end__+0xf79b14>
     4b4:	00000e03 	andeq	r0, r0, r3, lsl #28
     4b8:	03001604 	movweq	r1, #1540	; 0x604
     4bc:	3b0b3a0e 	blcc	2cecfc <__bss_end__+0x2c572c>
     4c0:	490b390b 	stmdbmi	fp, {r0, r1, r3, r8, fp, ip, sp}
     4c4:	05000013 	streq	r0, [r0, #-19]	; 0xffffffed
     4c8:	19270115 	stmdbne	r7!, {r0, r2, r4, r8}
     4cc:	13011349 	movwne	r1, #4937	; 0x1349
     4d0:	05060000 	streq	r0, [r6, #-0]
     4d4:	00134900 	andseq	r4, r3, r0, lsl #18
     4d8:	00340700 	eorseq	r0, r4, r0, lsl #14
     4dc:	0b3a0e03 	bleq	e83cf0 <__bss_end__+0xe7a720>
     4e0:	0b390b3b 	bleq	e431d4 <__bss_end__+0xe39c04>
     4e4:	193f1349 	ldmdbne	pc!, {r0, r3, r6, r8, r9, ip}	; <UNPREDICTABLE>
     4e8:	0000193c 	andeq	r1, r0, ip, lsr r9
     4ec:	0b000f08 	bleq	4114 <__code_start__-0x3eec>
     4f0:	0013490b 	andseq	r4, r3, fp, lsl #18
     4f4:	00260900 	eoreq	r0, r6, r0, lsl #18
     4f8:	00001349 	andeq	r1, r0, r9, asr #6
     4fc:	0301130a 	movweq	r1, #4874	; 0x130a
     500:	3a0b0b0e 	bcc	2c3140 <__bss_end__+0x2b9b70>
     504:	010b3b0b 	tsteq	fp, fp, lsl #22
     508:	0b000013 	bleq	55c <__code_start__-0x7aa4>
     50c:	0e03000d 	cdpeq	0, 0, cr0, cr3, cr13, {0}
     510:	0b381349 	bleq	e0523c <__bss_end__+0xdfbc6c>
     514:	00001934 	andeq	r1, r0, r4, lsr r9
     518:	0b000f0c 	bleq	4150 <__code_start__-0x3eb0>
     51c:	0d00000b 	stceq	0, cr0, [r0, #-44]	; 0xffffffd4
     520:	193f012e 	ldmdbne	pc!, {r1, r2, r3, r5, r8}	; <UNPREDICTABLE>
     524:	0b3a0e03 	bleq	e83d38 <__bss_end__+0xe7a768>
     528:	0b390b3b 	bleq	e4321c <__bss_end__+0xe39c4c>
     52c:	13491927 	movtne	r1, #39207	; 0x9927
     530:	06120111 			; <UNDEFINED> instruction: 0x06120111
     534:	42971840 	addsmi	r1, r7, #64, 16	; 0x400000
     538:	00130119 	andseq	r0, r3, r9, lsl r1
     53c:	00050e00 	andeq	r0, r5, r0, lsl #28
     540:	0b3a0803 	bleq	e82554 <__bss_end__+0xe78f84>
     544:	0b390b3b 	bleq	e43238 <__bss_end__+0xe39c68>
     548:	17021349 	strne	r1, [r2, -r9, asr #6]
     54c:	001742b7 			; <UNDEFINED> instruction: 0x001742b7
     550:	00050f00 	andeq	r0, r5, r0, lsl #30
     554:	0b3a0e03 	bleq	e83d68 <__bss_end__+0xe7a798>
     558:	0b390b3b 	bleq	e4324c <__bss_end__+0xe39c7c>
     55c:	18021349 	stmdane	r2, {r0, r3, r6, r8, r9, ip}
     560:	34100000 	ldrcc	r0, [r0], #-0
     564:	3a080300 	bcc	20116c <__bss_end__+0x1f7b9c>
     568:	390b3b0b 	stmdbcc	fp, {r0, r1, r3, r8, r9, fp, ip, sp}
     56c:	0213490b 	andseq	r4, r3, #180224	; 0x2c000
     570:	1742b717 	smlaldne	fp, r2, r7, r7
     574:	34110000 	ldrcc	r0, [r1], #-0
     578:	3a0e0300 	bcc	381180 <__bss_end__+0x377bb0>
     57c:	390b3b0b 	stmdbcc	fp, {r0, r1, r3, r8, r9, fp, ip, sp}
     580:	0213490b 	andseq	r4, r3, #180224	; 0x2c000
     584:	1742b717 	smlaldne	fp, r2, r7, r7
     588:	34120000 	ldrcc	r0, [r2], #-0
     58c:	490e0300 	stmdbmi	lr, {r8, r9}
     590:	02193413 	andseq	r3, r9, #318767104	; 0x13000000
     594:	13000018 	movwne	r0, #24
     598:	0111010b 	tsteq	r1, fp, lsl #2
     59c:	00000612 	andeq	r0, r0, r2, lsl r6
     5a0:	03003414 	movweq	r3, #1044	; 0x414
     5a4:	3b0b3a08 	blcc	2cedcc <__bss_end__+0x2c57fc>
     5a8:	490b390b 	stmdbmi	fp, {r0, r1, r3, r8, fp, ip, sp}
     5ac:	00180213 	andseq	r0, r8, r3, lsl r2
     5b0:	00341500 	eorseq	r1, r4, r0, lsl #10
     5b4:	0b3a0e03 	bleq	e83dc8 <__bss_end__+0xe7a7f8>
     5b8:	0b390b3b 	bleq	e432ac <__bss_end__+0xe39cdc>
     5bc:	18021349 	stmdane	r2, {r0, r3, r6, r8, r9, ip}
     5c0:	0b160000 	bleq	5805c8 <__bss_end__+0x576ff8>
     5c4:	12011101 	andne	r1, r1, #1073741824	; 0x40000000
     5c8:	00130106 	andseq	r0, r3, r6, lsl #2
     5cc:	00341700 	eorseq	r1, r4, r0, lsl #14
     5d0:	0b3a0803 	bleq	e825e4 <__bss_end__+0xe79014>
     5d4:	0b390b3b 	bleq	e432c8 <__bss_end__+0xe39cf8>
     5d8:	00001349 	andeq	r1, r0, r9, asr #6
     5dc:	01828918 	orreq	r8, r2, r8, lsl r9
     5e0:	31011101 	tstcc	r1, r1, lsl #2
     5e4:	00130113 	andseq	r0, r3, r3, lsl r1
     5e8:	828a1900 	addhi	r1, sl, #0, 18
     5ec:	18020001 	stmdane	r2, {r0}
     5f0:	00184291 	mulseq	r8, r1, r2
     5f4:	82891a00 	addhi	r1, r9, #0, 20
     5f8:	01110001 	tsteq	r1, r1
     5fc:	00001331 	andeq	r1, r0, r1, lsr r3
     600:	0182891b 	orreq	r8, r2, fp, lsl r9
     604:	01011101 	tsteq	r1, r1, lsl #2
     608:	1c000013 	stcne	0, cr0, [r0], {19}
     60c:	13490101 	movtne	r0, #37121	; 0x9101
     610:	00001301 	andeq	r1, r0, r1, lsl #6
     614:	4900211d 	stmdbmi	r0, {r0, r2, r3, r4, r8, sp}
     618:	000b2f13 	andeq	r2, fp, r3, lsl pc
     61c:	012e1e00 			; <UNDEFINED> instruction: 0x012e1e00
     620:	0b3a0e03 	bleq	e83e34 <__bss_end__+0xe7a864>
     624:	0b390b3b 	bleq	e43318 <__bss_end__+0xe39d48>
     628:	13491927 	movtne	r1, #39207	; 0x9927
     62c:	06120111 			; <UNDEFINED> instruction: 0x06120111
     630:	42971840 	addsmi	r1, r7, #64, 16	; 0x400000
     634:	00130119 	andseq	r0, r3, r9, lsl r1
     638:	00051f00 	andeq	r1, r5, r0, lsl #30
     63c:	0b3a0e03 	bleq	e83e50 <__bss_end__+0xe7a880>
     640:	0b390b3b 	bleq	e43334 <__bss_end__+0xe39d64>
     644:	17021349 	strne	r1, [r2, -r9, asr #6]
     648:	001742b7 			; <UNDEFINED> instruction: 0x001742b7
     64c:	012e2000 			; <UNDEFINED> instruction: 0x012e2000
     650:	0b3a0803 	bleq	e82664 <__bss_end__+0xe79094>
     654:	0b390b3b 	bleq	e43348 <__bss_end__+0xe39d78>
     658:	13491927 	movtne	r1, #39207	; 0x9927
     65c:	06120111 			; <UNDEFINED> instruction: 0x06120111
     660:	42971840 	addsmi	r1, r7, #64, 16	; 0x400000
     664:	00130119 	andseq	r0, r3, r9, lsl r1
     668:	012e2100 			; <UNDEFINED> instruction: 0x012e2100
     66c:	0e03193f 			; <UNDEFINED> instruction: 0x0e03193f
     670:	0b3b0b3a 	bleq	ec3360 <__bss_end__+0xeb9d90>
     674:	19270b39 	stmdbne	r7!, {r0, r3, r4, r5, r8, r9, fp}
     678:	06120111 			; <UNDEFINED> instruction: 0x06120111
     67c:	42971840 	addsmi	r1, r7, #64, 16	; 0x400000
     680:	00130119 	andseq	r0, r3, r9, lsl r1
     684:	002e2200 	eoreq	r2, lr, r0, lsl #4
     688:	193c193f 	ldmdbne	ip!, {r0, r1, r2, r3, r4, r5, r8, fp, ip}
     68c:	0e030e6e 	cdpeq	14, 0, cr0, cr3, cr14, {3}
     690:	0b3b0b3a 	bleq	ec3380 <__bss_end__+0xeb9db0>
     694:	00000b39 	andeq	r0, r0, r9, lsr fp
     698:	01110100 	tsteq	r1, r0, lsl #2
     69c:	0b130e25 	bleq	4c3f38 <__bss_end__+0x4ba968>
     6a0:	0e1b0e03 	cdpeq	14, 1, cr0, cr11, cr3, {0}
     6a4:	01111755 	tsteq	r1, r5, asr r7
     6a8:	00001710 	andeq	r1, r0, r0, lsl r7
     6ac:	0b002402 	bleq	96bc <__bss_end__+0xec>
     6b0:	030b3e0b 	movweq	r3, #48651	; 0xbe0b
     6b4:	03000008 	movweq	r0, #8
     6b8:	0b0b0024 	bleq	2c0750 <__bss_end__+0x2b7180>
     6bc:	0e030b3e 	vmoveq.16	d3[0], r0
     6c0:	15040000 	strne	r0, [r4, #-0]
     6c4:	49192701 	ldmdbmi	r9, {r0, r8, r9, sl, sp}
     6c8:	00130113 	andseq	r0, r3, r3, lsl r1
     6cc:	00050500 	andeq	r0, r5, r0, lsl #10
     6d0:	00001349 	andeq	r1, r0, r9, asr #6
     6d4:	03003406 	movweq	r3, #1030	; 0x406
     6d8:	3b0b3a0e 	blcc	2cef18 <__bss_end__+0x2c5948>
     6dc:	490b390b 	stmdbmi	fp, {r0, r1, r3, r8, fp, ip, sp}
     6e0:	3c193f13 	ldccc	15, cr3, [r9], {19}
     6e4:	07000019 	smladeq	r0, r9, r0, r0
     6e8:	0b0b000f 	bleq	2c072c <__bss_end__+0x2b715c>
     6ec:	00001349 	andeq	r1, r0, r9, asr #6
     6f0:	49002608 	stmdbmi	r0, {r3, r9, sl, sp}
     6f4:	09000013 	stmdbeq	r0, {r0, r1, r4}
     6f8:	193f012e 	ldmdbne	pc!, {r1, r2, r3, r5, r8}	; <UNPREDICTABLE>
     6fc:	0b3a0e03 	bleq	e83f10 <__bss_end__+0xe7a940>
     700:	0b390b3b 	bleq	e433f4 <__bss_end__+0xe39e24>
     704:	01111927 	tsteq	r1, r7, lsr #18
     708:	18400612 	stmdane	r0, {r1, r4, r9, sl}^
     70c:	01194297 			; <UNDEFINED> instruction: 0x01194297
     710:	0a000013 	beq	764 <__code_start__-0x789c>
     714:	08030034 	stmdaeq	r3, {r2, r4, r5}
     718:	0b3b0b3a 	bleq	ec3408 <__bss_end__+0xeb9e38>
     71c:	13490b39 	movtne	r0, #39737	; 0x9b39
     720:	42b71702 	adcsmi	r1, r7, #524288	; 0x80000
     724:	0b000017 	bleq	788 <__code_start__-0x7878>
     728:	193f012e 	ldmdbne	pc!, {r1, r2, r3, r5, r8}	; <UNPREDICTABLE>
     72c:	0b3a0e03 	bleq	e83f40 <__bss_end__+0xe7a970>
     730:	0b390b3b 	bleq	e43424 <__bss_end__+0xe39e54>
     734:	01111927 	tsteq	r1, r7, lsr #18
     738:	18400612 	stmdane	r0, {r1, r4, r9, sl}^
     73c:	00194297 	mulseq	r9, r7, r2
     740:	11010000 	mrsne	r0, (UNDEF: 1)
     744:	130e2501 	movwne	r2, #58625	; 0xe501
     748:	1b0e030b 	blne	38137c <__bss_end__+0x377dac>
     74c:	1201110e 	andne	r1, r1, #-2147483645	; 0x80000003
     750:	00171006 	andseq	r1, r7, r6
     754:	00240200 	eoreq	r0, r4, r0, lsl #4
     758:	0b3e0b0b 	bleq	f8338c <__bss_end__+0xf79dbc>
     75c:	00000803 	andeq	r0, r0, r3, lsl #16
     760:	0b002403 	bleq	9774 <__bss_end__+0x1a4>
     764:	030b3e0b 	movweq	r3, #48651	; 0xbe0b
     768:	0400000e 	streq	r0, [r0], #-14
     76c:	19270115 	stmdbne	r7!, {r0, r2, r4, r8}
     770:	13011349 	movwne	r1, #4937	; 0x1349
     774:	05050000 	streq	r0, [r5, #-0]
     778:	00134900 	andseq	r4, r3, r0, lsl #18
     77c:	00340600 	eorseq	r0, r4, r0, lsl #12
     780:	0b3a0e03 	bleq	e83f94 <__bss_end__+0xe7a9c4>
     784:	0b390b3b 	bleq	e43478 <__bss_end__+0xe39ea8>
     788:	193f1349 	ldmdbne	pc!, {r0, r3, r6, r8, r9, ip}	; <UNPREDICTABLE>
     78c:	0000193c 	andeq	r1, r0, ip, lsr r9
     790:	0b000f07 	bleq	43b4 <__code_start__-0x3c4c>
     794:	0013490b 	andseq	r4, r3, fp, lsl #18
     798:	00260800 	eoreq	r0, r6, r0, lsl #16
     79c:	00001349 	andeq	r1, r0, r9, asr #6
     7a0:	3f012e09 	svccc	0x00012e09
     7a4:	3a0e0319 	bcc	381410 <__bss_end__+0x377e40>
     7a8:	390b3b0b 	stmdbcc	fp, {r0, r1, r3, r8, r9, fp, ip, sp}
     7ac:	8719270b 	ldrhi	r2, [r9, -fp, lsl #14]
     7b0:	01111901 	tsteq	r1, r1, lsl #18
     7b4:	18400612 	stmdane	r0, {r1, r4, r9, sl}^
     7b8:	01194297 			; <UNDEFINED> instruction: 0x01194297
     7bc:	0a000013 	beq	810 <__code_start__-0x77f0>
     7c0:	01018289 	smlabbeq	r1, r9, r2, r8
     7c4:	13010111 	movwne	r0, #4369	; 0x1111
     7c8:	8a0b0000 	bhi	2c07d0 <__bss_end__+0x2b7200>
     7cc:	02000182 	andeq	r0, r0, #-2147483616	; 0x80000020
     7d0:	18429118 	stmdane	r2, {r3, r4, r8, ip, pc}^
     7d4:	890c0000 	stmdbhi	ip, {}	; <UNPREDICTABLE>
     7d8:	11000182 	smlabbne	r0, r2, r1, r0
     7dc:	00133101 	andseq	r3, r3, r1, lsl #2
     7e0:	82890d00 	addhi	r0, r9, #0, 26
     7e4:	01110101 	tsteq	r1, r1, lsl #2
     7e8:	13011331 	movwne	r1, #4913	; 0x1331
     7ec:	2e0e0000 	cdpcs	0, 0, cr0, cr14, cr0, {0}
     7f0:	3c193f00 	ldccc	15, cr3, [r9], {-0}
     7f4:	030e6e19 	movweq	r6, #60953	; 0xee19
     7f8:	3b0b3a0e 	blcc	2cf038 <__bss_end__+0x2c5a68>
     7fc:	000b390b 	andeq	r3, fp, fp, lsl #18
     800:	11010000 	mrsne	r0, (UNDEF: 1)
     804:	130e2501 	movwne	r2, #58625	; 0xe501
     808:	1b0e030b 	blne	38143c <__bss_end__+0x377e6c>
     80c:	1201110e 	andne	r1, r1, #-2147483645	; 0x80000003
     810:	00171006 	andseq	r1, r7, r6
     814:	00240200 	eoreq	r0, r4, r0, lsl #4
     818:	0b3e0b0b 	bleq	f8344c <__bss_end__+0xf79e7c>
     81c:	00000803 	andeq	r0, r0, r3, lsl #16
     820:	0b002403 	bleq	9834 <__bss_end__+0x264>
     824:	030b3e0b 	movweq	r3, #48651	; 0xbe0b
     828:	0400000e 	streq	r0, [r0], #-14
     82c:	19270115 	stmdbne	r7!, {r0, r2, r4, r8}
     830:	13011349 	movwne	r1, #4937	; 0x1349
     834:	05050000 	streq	r0, [r5, #-0]
     838:	00134900 	andseq	r4, r3, r0, lsl #18
     83c:	00340600 	eorseq	r0, r4, r0, lsl #12
     840:	0b3a0e03 	bleq	e84054 <__bss_end__+0xe7aa84>
     844:	0b390b3b 	bleq	e43538 <__bss_end__+0xe39f68>
     848:	193f1349 	ldmdbne	pc!, {r0, r3, r6, r8, r9, ip}	; <UNPREDICTABLE>
     84c:	0000193c 	andeq	r1, r0, ip, lsr r9
     850:	0b000f07 	bleq	4474 <__code_start__-0x3b8c>
     854:	0013490b 	andseq	r4, r3, fp, lsl #18
     858:	00260800 	eoreq	r0, r6, r0, lsl #16
     85c:	00001349 	andeq	r1, r0, r9, asr #6
     860:	3f012e09 	svccc	0x00012e09
     864:	3a0e0319 	bcc	3814d0 <__bss_end__+0x377f00>
     868:	390b3b0b 	stmdbcc	fp, {r0, r1, r3, r8, r9, fp, ip, sp}
     86c:	1201110b 	andne	r1, r1, #-1073741822	; 0xc0000002
     870:	97184006 	ldrls	r4, [r8, -r6]
     874:	13011942 	movwne	r1, #6466	; 0x1942
     878:	2e0a0000 	cdpcs	0, 0, cr0, cr10, cr0, {0}
     87c:	03193f00 	tsteq	r9, #0, 30
     880:	3b0b3a0e 	blcc	2cf0c0 <__bss_end__+0x2c5af0>
     884:	270b390b 	strcs	r3, [fp, -fp, lsl #18]
     888:	00193c19 	andseq	r3, r9, r9, lsl ip
     88c:	00340b00 	eorseq	r0, r4, r0, lsl #22
     890:	0b3a0803 	bleq	e828a4 <__bss_end__+0xe792d4>
     894:	0b390b3b 	bleq	e43588 <__bss_end__+0xe39fb8>
     898:	17021349 	strne	r1, [r2, -r9, asr #6]
     89c:	001742b7 			; <UNDEFINED> instruction: 0x001742b7
     8a0:	00340c00 	eorseq	r0, r4, r0, lsl #24
     8a4:	0b3a0e03 	bleq	e840b8 <__bss_end__+0xe7aae8>
     8a8:	0b390b3b 	bleq	e4359c <__bss_end__+0xe39fcc>
     8ac:	00001349 	andeq	r1, r0, r9, asr #6
     8b0:	11010b0d 	tstne	r1, sp, lsl #22
     8b4:	01061201 	tsteq	r6, r1, lsl #4
     8b8:	0e000013 	mcreq	0, 0, r0, cr0, cr3, {0}
     8bc:	08030034 	stmdaeq	r3, {r2, r4, r5}
     8c0:	0b3b0b3a 	bleq	ec35b0 <__bss_end__+0xeb9fe0>
     8c4:	13490b39 	movtne	r0, #39737	; 0x9b39
     8c8:	00000b1c 	andeq	r0, r0, ip, lsl fp
     8cc:	0182890f 	orreq	r8, r2, pc, lsl #18
     8d0:	31011100 	mrscc	r1, (UNDEF: 17)
     8d4:	10000013 	andne	r0, r0, r3, lsl r0
     8d8:	193f002e 	ldmdbne	pc!, {r1, r2, r3, r5}	; <UNPREDICTABLE>
     8dc:	0e6e193c 			; <UNDEFINED> instruction: 0x0e6e193c
     8e0:	0b3a0e03 	bleq	e840f4 <__bss_end__+0xe7ab24>
     8e4:	0b39053b 	bleq	e41dd8 <__bss_end__+0xe38808>
     8e8:	2e110000 	cdpcs	0, 1, cr0, cr1, cr0, {0}
     8ec:	3c193f00 	ldccc	15, cr3, [r9], {-0}
     8f0:	030e6e19 	movweq	r6, #60953	; 0xee19
     8f4:	3b0b3a0e 	blcc	2cf134 <__bss_end__+0x2c5b64>
     8f8:	000b390b 	andeq	r3, fp, fp, lsl #18
     8fc:	11010000 	mrsne	r0, (UNDEF: 1)
     900:	130e2501 	movwne	r2, #58625	; 0xe501
     904:	1b0e030b 	blne	381538 <__bss_end__+0x377f68>
     908:	1201110e 	andne	r1, r1, #-2147483645	; 0x80000003
     90c:	00171006 	andseq	r1, r7, r6
     910:	00240200 	eoreq	r0, r4, r0, lsl #4
     914:	0b3e0b0b 	bleq	f83548 <__bss_end__+0xf79f78>
     918:	00000803 	andeq	r0, r0, r3, lsl #16
     91c:	0b002403 	bleq	9930 <__bss_end__+0x360>
     920:	030b3e0b 	movweq	r3, #48651	; 0xbe0b
     924:	0400000e 	streq	r0, [r0], #-14
     928:	19270115 	stmdbne	r7!, {r0, r2, r4, r8}
     92c:	13011349 	movwne	r1, #4937	; 0x1349
     930:	05050000 	streq	r0, [r5, #-0]
     934:	00134900 	andseq	r4, r3, r0, lsl #18
     938:	00340600 	eorseq	r0, r4, r0, lsl #12
     93c:	0b3a0e03 	bleq	e84150 <__bss_end__+0xe7ab80>
     940:	0b390b3b 	bleq	e43634 <__bss_end__+0xe3a064>
     944:	193f1349 	ldmdbne	pc!, {r0, r3, r6, r8, r9, ip}	; <UNPREDICTABLE>
     948:	0000193c 	andeq	r1, r0, ip, lsr r9
     94c:	0b000f07 	bleq	4570 <__code_start__-0x3a90>
     950:	0013490b 	andseq	r4, r3, fp, lsl #18
     954:	00260800 	eoreq	r0, r6, r0, lsl #16
     958:	00001349 	andeq	r1, r0, r9, asr #6
     95c:	3f002e09 	svccc	0x00002e09
     960:	3a0e0319 	bcc	3815cc <__bss_end__+0x377ffc>
     964:	390b3b0b 	stmdbcc	fp, {r0, r1, r3, r8, r9, fp, ip, sp}
     968:	1119270b 	tstne	r9, fp, lsl #14
     96c:	40061201 	andmi	r1, r6, r1, lsl #4
     970:	19429718 	stmdbne	r2, {r3, r4, r8, r9, sl, ip, pc}^
     974:	01000000 	mrseq	r0, (UNDEF: 0)
     978:	0e250111 	mcreq	1, 1, r0, cr5, cr1, {0}
     97c:	0e030b13 	vmoveq.32	d3[0], r0
     980:	17550e1b 	smmlane	r5, fp, lr, r0
     984:	17100111 			; <UNDEFINED> instruction: 0x17100111
     988:	24020000 	strcs	r0, [r2], #-0
     98c:	3e0b0b00 	vmlacc.f64	d0, d11, d0
     990:	0008030b 	andeq	r0, r8, fp, lsl #6
     994:	00260300 	eoreq	r0, r6, r0, lsl #6
     998:	00001349 	andeq	r1, r0, r9, asr #6
     99c:	0b002404 	bleq	99b4 <__bss_end__+0x3e4>
     9a0:	030b3e0b 	movweq	r3, #48651	; 0xbe0b
     9a4:	0500000e 	streq	r0, [r0, #-14]
     9a8:	19270115 	stmdbne	r7!, {r0, r2, r4, r8}
     9ac:	13011349 	movwne	r1, #4937	; 0x1349
     9b0:	05060000 	streq	r0, [r6, #-0]
     9b4:	00134900 	andseq	r4, r3, r0, lsl #18
     9b8:	00340700 	eorseq	r0, r4, r0, lsl #14
     9bc:	0b3a0e03 	bleq	e841d0 <__bss_end__+0xe7ac00>
     9c0:	0b390b3b 	bleq	e436b4 <__bss_end__+0xe3a0e4>
     9c4:	193f1349 	ldmdbne	pc!, {r0, r3, r6, r8, r9, ip}	; <UNPREDICTABLE>
     9c8:	0000193c 	andeq	r1, r0, ip, lsr r9
     9cc:	0b000f08 	bleq	45f4 <__code_start__-0x3a0c>
     9d0:	0013490b 	andseq	r4, r3, fp, lsl #18
     9d4:	00340900 	eorseq	r0, r4, r0, lsl #18
     9d8:	0b3a0e03 	bleq	e841ec <__bss_end__+0xe7ac1c>
     9dc:	0b390b3b 	bleq	e436d0 <__bss_end__+0xe3a100>
     9e0:	00001349 	andeq	r1, r0, r9, asr #6
     9e4:	3f012e0a 	svccc	0x00012e0a
     9e8:	3a0e0319 	bcc	381654 <__bss_end__+0x378084>
     9ec:	390b3b0b 	stmdbcc	fp, {r0, r1, r3, r8, r9, fp, ip, sp}
     9f0:	8719270b 	ldrhi	r2, [r9, -fp, lsl #14]
     9f4:	01111901 	tsteq	r1, r1, lsl #18
     9f8:	18400612 	stmdane	r0, {r1, r4, r9, sl}^
     9fc:	01194297 			; <UNDEFINED> instruction: 0x01194297
     a00:	0b000013 	bleq	a54 <__code_start__-0x75ac>
     a04:	0e030034 	mcreq	0, 0, r0, cr3, cr4, {1}
     a08:	0b3b0b3a 	bleq	ec36f8 <__bss_end__+0xeba128>
     a0c:	13490b39 	movtne	r0, #39737	; 0x9b39
     a10:	42b71702 	adcsmi	r1, r7, #524288	; 0x80000
     a14:	0c000017 	stceq	0, cr0, [r0], {23}
     a18:	00018289 	andeq	r8, r1, r9, lsl #5
     a1c:	13310111 	teqne	r1, #1073741828	; 0x40000004
     a20:	890d0000 	stmdbhi	sp, {}	; <UNPREDICTABLE>
     a24:	11010182 	smlabbne	r1, r2, r1, r0
     a28:	01133101 	tsteq	r3, r1, lsl #2
     a2c:	0e000013 	mcreq	0, 0, r0, cr0, cr3, {0}
     a30:	0001828a 	andeq	r8, r1, sl, lsl #5
     a34:	42911802 	addsmi	r1, r1, #131072	; 0x20000
     a38:	0f000018 	svceq	0x00000018
     a3c:	193f012e 	ldmdbne	pc!, {r1, r2, r3, r5, r8}	; <UNPREDICTABLE>
     a40:	0b3a0e03 	bleq	e84254 <__bss_end__+0xe7ac84>
     a44:	0b390b3b 	bleq	e43738 <__bss_end__+0xe3a168>
     a48:	01111927 	tsteq	r1, r7, lsr #18
     a4c:	18400612 	stmdane	r0, {r1, r4, r9, sl}^
     a50:	01194297 			; <UNDEFINED> instruction: 0x01194297
     a54:	10000013 	andne	r0, r0, r3, lsl r0
     a58:	193f012e 	ldmdbne	pc!, {r1, r2, r3, r5, r8}	; <UNPREDICTABLE>
     a5c:	0b3a0e03 	bleq	e84270 <__bss_end__+0xe7aca0>
     a60:	0b390b3b 	bleq	e43754 <__bss_end__+0xe3a184>
     a64:	13491927 	movtne	r1, #39207	; 0x9927
     a68:	06120111 			; <UNDEFINED> instruction: 0x06120111
     a6c:	42971840 	addsmi	r1, r7, #64, 16	; 0x400000
     a70:	00130119 	andseq	r0, r3, r9, lsl r1
     a74:	002e1100 	eoreq	r1, lr, r0, lsl #2
     a78:	193c193f 	ldmdbne	ip!, {r0, r1, r2, r3, r4, r5, r8, fp, ip}
     a7c:	0e030e6e 	cdpeq	14, 0, cr0, cr3, cr14, {3}
     a80:	053b0b3a 	ldreq	r0, [fp, #-2874]!	; 0xfffff4c6
     a84:	00000b39 	andeq	r0, r0, r9, lsr fp
     a88:	3f002e12 	svccc	0x00002e12
     a8c:	6e193c19 	mrcvs	12, 0, r3, cr9, cr9, {0}
     a90:	3a0e030e 	bcc	3816d0 <__bss_end__+0x378100>
     a94:	390b3b0b 	stmdbcc	fp, {r0, r1, r3, r8, r9, fp, ip, sp}
     a98:	0000000b 	andeq	r0, r0, fp
     a9c:	25011101 	strcs	r1, [r1, #-257]	; 0xfffffeff
     aa0:	030b130e 	movweq	r1, #45838	; 0xb30e
     aa4:	110e1b0e 	tstne	lr, lr, lsl #22
     aa8:	10061201 	andne	r1, r6, r1, lsl #4
     aac:	02000017 	andeq	r0, r0, #23, 0
     ab0:	0b0b0024 	bleq	2c0b48 <__bss_end__+0x2b7578>
     ab4:	08030b3e 	stmdaeq	r3, {r1, r2, r3, r4, r5, r8, r9, fp}
     ab8:	24030000 	strcs	r0, [r3], #-0
     abc:	3e0b0b00 	vmlacc.f64	d0, d11, d0
     ac0:	000e030b 	andeq	r0, lr, fp, lsl #6
     ac4:	01150400 	tsteq	r5, r0, lsl #8
     ac8:	13491927 	movtne	r1, #39207	; 0x9927
     acc:	00001301 	andeq	r1, r0, r1, lsl #6
     ad0:	49000505 	stmdbmi	r0, {r0, r2, r8, sl}
     ad4:	06000013 			; <UNDEFINED> instruction: 0x06000013
     ad8:	0e030034 	mcreq	0, 0, r0, cr3, cr4, {1}
     adc:	0b3b0b3a 	bleq	ec37cc <__bss_end__+0xeba1fc>
     ae0:	13490b39 	movtne	r0, #39737	; 0x9b39
     ae4:	193c193f 	ldmdbne	ip!, {r0, r1, r2, r3, r4, r5, r8, fp, ip}
     ae8:	0f070000 	svceq	0x00070000
     aec:	490b0b00 	stmdbmi	fp, {r8, r9, fp}
     af0:	08000013 	stmdaeq	r0, {r0, r1, r4}
     af4:	13490026 	movtne	r0, #36902	; 0x9026
     af8:	2e090000 	cdpcs	0, 0, cr0, cr9, cr0, {0}
     afc:	03193f01 	tsteq	r9, #1, 30
     b00:	3b0b3a0e 	blcc	2cf340 <__bss_end__+0x2c5d70>
     b04:	270b390b 	strcs	r3, [fp, -fp, lsl #18]
     b08:	12011119 	andne	r1, r1, #1073741830	; 0x40000006
     b0c:	97184006 	ldrls	r4, [r8, -r6]
     b10:	13011942 	movwne	r1, #6466	; 0x1942
     b14:	050a0000 	streq	r0, [sl, #-0]
     b18:	3a080300 	bcc	201720 <__bss_end__+0x1f8150>
     b1c:	390b3b0b 	stmdbcc	fp, {r0, r1, r3, r8, r9, fp, ip, sp}
     b20:	0213490b 	andseq	r4, r3, #180224	; 0x2c000
     b24:	1742b717 	smlaldne	fp, r2, r7, r7
     b28:	890b0000 	stmdbhi	fp, {}	; <UNPREDICTABLE>
     b2c:	11010182 	smlabbne	r1, r2, r1, r0
     b30:	00133101 	andseq	r3, r3, r1, lsl #2
     b34:	828a0c00 	addhi	r0, sl, #0, 24
     b38:	18020001 	stmdane	r2, {r0}
     b3c:	00184291 	mulseq	r8, r1, r2
     b40:	00340d00 	eorseq	r0, r4, r0, lsl #26
     b44:	0b3a0803 	bleq	e82b58 <__bss_end__+0xe79588>
     b48:	0b390b3b 	bleq	e4383c <__bss_end__+0xe3a26c>
     b4c:	17021349 	strne	r1, [r2, -r9, asr #6]
     b50:	001742b7 			; <UNDEFINED> instruction: 0x001742b7
     b54:	010b0e00 	tsteq	fp, r0, lsl #28
     b58:	06120111 			; <UNDEFINED> instruction: 0x06120111
     b5c:	00001301 	andeq	r1, r0, r1, lsl #6
     b60:	0182890f 	orreq	r8, r2, pc, lsl #18
     b64:	31011100 	mrscc	r1, (UNDEF: 17)
     b68:	10000013 	andne	r0, r0, r3, lsl r0
     b6c:	193f012e 	ldmdbne	pc!, {r1, r2, r3, r5, r8}	; <UNPREDICTABLE>
     b70:	0b3a0e03 	bleq	e84384 <__bss_end__+0xe7adb4>
     b74:	0b390b3b 	bleq	e43868 <__bss_end__+0xe3a298>
     b78:	13491927 	movtne	r1, #39207	; 0x9927
     b7c:	06120111 			; <UNDEFINED> instruction: 0x06120111
     b80:	42971840 	addsmi	r1, r7, #64, 16	; 0x400000
     b84:	00130119 	andseq	r0, r3, r9, lsl r1
     b88:	002e1100 	eoreq	r1, lr, r0, lsl #2
     b8c:	193c193f 	ldmdbne	ip!, {r0, r1, r2, r3, r4, r5, r8, fp, ip}
     b90:	0e030e6e 	cdpeq	14, 0, cr0, cr3, cr14, {3}
     b94:	0b3b0b3a 	bleq	ec3884 <__bss_end__+0xeba2b4>
     b98:	00000b39 	andeq	r0, r0, r9, lsr fp
     b9c:	01110100 	tsteq	r1, r0, lsl #2
     ba0:	0b130e25 	bleq	4c443c <__bss_end__+0x4bae6c>
     ba4:	0e1b0e03 	cdpeq	14, 1, cr0, cr11, cr3, {0}
     ba8:	06120111 			; <UNDEFINED> instruction: 0x06120111
     bac:	00001710 	andeq	r1, r0, r0, lsl r7
     bb0:	0b002402 	bleq	9bc0 <__bss_end__+0x5f0>
     bb4:	030b3e0b 	movweq	r3, #48651	; 0xbe0b
     bb8:	03000008 	movweq	r0, #8
     bbc:	0b0b0024 	bleq	2c0c54 <__bss_end__+0x2b7684>
     bc0:	0e030b3e 	vmoveq.16	d3[0], r0
     bc4:	26040000 	strcs	r0, [r4], -r0
     bc8:	00134900 	andseq	r4, r3, r0, lsl #18
     bcc:	00160500 	andseq	r0, r6, r0, lsl #10
     bd0:	0b3a0e03 	bleq	e843e4 <__bss_end__+0xe7ae14>
     bd4:	0b390b3b 	bleq	e438c8 <__bss_end__+0xe3a2f8>
     bd8:	00001349 	andeq	r1, r0, r9, asr #6
     bdc:	3e010406 	cdpcc	4, 0, cr0, cr1, cr6, {0}
     be0:	490b0b0b 	stmdbmi	fp, {r0, r1, r3, r8, r9, fp}
     be4:	3b0b3a13 	blcc	2cf438 <__bss_end__+0x2c5e68>
     be8:	010b390b 	tsteq	fp, fp, lsl #18
     bec:	07000013 	smladeq	r0, r3, r0, r0
     bf0:	0e030028 	cdpeq	0, 0, cr0, cr3, cr8, {1}
     bf4:	00000b1c 	andeq	r0, r0, ip, lsl fp
     bf8:	03003408 	movweq	r3, #1032	; 0x408
     bfc:	3b0b3a0e 	blcc	2cf43c <__bss_end__+0x2c5e6c>
     c00:	490b390b 	stmdbmi	fp, {r0, r1, r3, r8, fp, ip, sp}
     c04:	00061c13 	andeq	r1, r6, r3, lsl ip
     c08:	012e0900 			; <UNDEFINED> instruction: 0x012e0900
     c0c:	0e03193f 			; <UNDEFINED> instruction: 0x0e03193f
     c10:	0b3b0b3a 	bleq	ec3900 <__bss_end__+0xeba330>
     c14:	19270b39 	stmdbne	r7!, {r0, r3, r4, r5, r8, r9, fp}
     c18:	01111349 	tsteq	r1, r9, asr #6
     c1c:	18400612 	stmdane	r0, {r1, r4, r9, sl}^
     c20:	01194297 			; <UNDEFINED> instruction: 0x01194297
     c24:	0a000013 	beq	c78 <__code_start__-0x7388>
     c28:	08030005 	stmdaeq	r3, {r0, r2}
     c2c:	0b3b0b3a 	bleq	ec391c <__bss_end__+0xeba34c>
     c30:	13490b39 	movtne	r0, #39737	; 0x9b39
     c34:	42b71702 	adcsmi	r1, r7, #524288	; 0x80000
     c38:	0b000017 	bleq	c9c <__code_start__-0x7364>
     c3c:	0e030034 	mcreq	0, 0, r0, cr3, cr4, {1}
     c40:	0b3b0b3a 	bleq	ec3930 <__bss_end__+0xeba360>
     c44:	13490b39 	movtne	r0, #39737	; 0x9b39
     c48:	42b71702 	adcsmi	r1, r7, #524288	; 0x80000
     c4c:	0c000017 	stceq	0, cr0, [r0], {23}
     c50:	08030034 	stmdaeq	r3, {r2, r4, r5}
     c54:	0b3b0b3a 	bleq	ec3944 <__bss_end__+0xeba374>
     c58:	13490b39 	movtne	r0, #39737	; 0x9b39
     c5c:	42b71702 	adcsmi	r1, r7, #524288	; 0x80000
     c60:	0d000017 	stceq	0, cr0, [r0, #-92]	; 0xffffffa4
     c64:	01018289 	smlabbeq	r1, r9, r2, r8
     c68:	13310111 	teqne	r1, #1073741828	; 0x40000004
     c6c:	8a0e0000 	bhi	380c74 <__bss_end__+0x3776a4>
     c70:	02000182 	andeq	r0, r0, #-2147483616	; 0x80000020
     c74:	18429118 	stmdane	r2, {r3, r4, r8, ip, pc}^
     c78:	2e0f0000 	cdpcs	0, 0, cr0, cr15, cr0, {0}
     c7c:	03193f01 	tsteq	r9, #1, 30
     c80:	3b0b3a0e 	blcc	2cf4c0 <__bss_end__+0x2c5ef0>
     c84:	270b390b 	strcs	r3, [fp, -fp, lsl #18]
     c88:	12011119 	andne	r1, r1, #1073741830	; 0x40000006
     c8c:	97184006 	ldrls	r4, [r8, -r6]
     c90:	13011942 	movwne	r1, #6466	; 0x1942
     c94:	89100000 	ldmdbhi	r0, {}	; <UNPREDICTABLE>
     c98:	11010182 	smlabbne	r1, r2, r1, r0
     c9c:	01133101 	tsteq	r3, r1, lsl #2
     ca0:	11000013 	tstne	r0, r3, lsl r0
     ca4:	00018289 	andeq	r8, r1, r9, lsl #5
     ca8:	13310111 	teqne	r1, #1073741828	; 0x40000004
     cac:	05120000 	ldreq	r0, [r2, #-0]
     cb0:	3a0e0300 	bcc	3818b8 <__bss_end__+0x3782e8>
     cb4:	390b3b0b 	stmdbcc	fp, {r0, r1, r3, r8, r9, fp, ip, sp}
     cb8:	0213490b 	andseq	r4, r3, #180224	; 0x2c000
     cbc:	1742b717 	smlaldne	fp, r2, r7, r7
     cc0:	2e130000 	cdpcs	0, 1, cr0, cr3, cr0, {0}
     cc4:	3a0e0301 	bcc	3818d0 <__bss_end__+0x378300>
     cc8:	390b3b0b 	stmdbcc	fp, {r0, r1, r3, r8, r9, fp, ip, sp}
     ccc:	4919270b 	ldmdbmi	r9, {r0, r1, r3, r8, r9, sl, sp}
     cd0:	010b2013 	tsteq	fp, r3, lsl r0
     cd4:	14000013 	strne	r0, [r0], #-19	; 0xffffffed
     cd8:	08030005 	stmdaeq	r3, {r0, r2}
     cdc:	0b3b0b3a 	bleq	ec39cc <__bss_end__+0xeba3fc>
     ce0:	13490b39 	movtne	r0, #39737	; 0x9b39
     ce4:	2e150000 	cdpcs	0, 1, cr0, cr5, cr0, {0}
     ce8:	3c193f00 	ldccc	15, cr3, [r9], {-0}
     cec:	030e6e19 	movweq	r6, #60953	; 0xee19
     cf0:	3b0b3a0e 	blcc	2cf530 <__bss_end__+0x2c5f60>
     cf4:	000b390b 	andeq	r3, fp, fp, lsl #18
     cf8:	11010000 	mrsne	r0, (UNDEF: 1)
     cfc:	130e2501 	movwne	r2, #58625	; 0xe501
     d00:	1b0e030b 	blne	381934 <__bss_end__+0x378364>
     d04:	1201110e 	andne	r1, r1, #-2147483645	; 0x80000003
     d08:	00171006 	andseq	r1, r7, r6
     d0c:	00240200 	eoreq	r0, r4, r0, lsl #4
     d10:	0b3e0b0b 	bleq	f83944 <__bss_end__+0xf7a374>
     d14:	00000803 	andeq	r0, r0, r3, lsl #16
     d18:	0b002403 	bleq	9d2c <__bss_end__+0x75c>
     d1c:	030b3e0b 	movweq	r3, #48651	; 0xbe0b
     d20:	0400000e 	streq	r0, [r0], #-14
     d24:	13490035 	movtne	r0, #36917	; 0x9035
     d28:	16050000 	strne	r0, [r5], -r0
     d2c:	3a0e0300 	bcc	381934 <__bss_end__+0x378364>
     d30:	390b3b0b 	stmdbcc	fp, {r0, r1, r3, r8, r9, fp, ip, sp}
     d34:	0013490b 	andseq	r4, r3, fp, lsl #18
     d38:	01040600 	tsteq	r4, r0, lsl #12
     d3c:	0b0b0b3e 	bleq	2c3a3c <__bss_end__+0x2ba46c>
     d40:	0b3a1349 	bleq	e85a6c <__bss_end__+0xe7c49c>
     d44:	0b390b3b 	bleq	e43a38 <__bss_end__+0xe3a468>
     d48:	00001301 	andeq	r1, r0, r1, lsl #6
     d4c:	03002807 	movweq	r2, #2055	; 0x807
     d50:	000b1c0e 	andeq	r1, fp, lr, lsl #24
     d54:	01130800 	tsteq	r3, r0, lsl #16
     d58:	0b0b0e03 	bleq	2c456c <__bss_end__+0x2baf9c>
     d5c:	0b3b0b3a 	bleq	ec3a4c <__bss_end__+0xeba47c>
     d60:	13010b39 	movwne	r0, #6969	; 0x1b39
     d64:	0d090000 	stceq	0, cr0, [r9, #-0]
     d68:	3a080300 	bcc	201970 <__bss_end__+0x1f83a0>
     d6c:	390b3b0b 	stmdbcc	fp, {r0, r1, r3, r8, r9, fp, ip, sp}
     d70:	3813490b 	ldmdacc	r3, {r0, r1, r3, r8, fp, lr}
     d74:	0a00000b 	beq	da8 <__code_start__-0x7258>
     d78:	0e03000d 	cdpeq	0, 0, cr0, cr3, cr13, {0}
     d7c:	0b3b0b3a 	bleq	ec3a6c <__bss_end__+0xeba49c>
     d80:	13490b39 	movtne	r0, #39737	; 0x9b39
     d84:	00000b38 	andeq	r0, r0, r8, lsr fp
     d88:	0300340b 	movweq	r3, #1035	; 0x40b
     d8c:	3b0b3a0e 	blcc	2cf5cc <__bss_end__+0x2c5ffc>
     d90:	490b390b 	stmdbmi	fp, {r0, r1, r3, r8, fp, ip, sp}
     d94:	00061c13 	andeq	r1, r6, r3, lsl ip
     d98:	000f0c00 	andeq	r0, pc, r0, lsl #24
     d9c:	13490b0b 	movtne	r0, #39691	; 0x9b0b
     da0:	260d0000 	strcs	r0, [sp], -r0
     da4:	00134900 	andseq	r4, r3, r0, lsl #18
     da8:	012e0e00 			; <UNDEFINED> instruction: 0x012e0e00
     dac:	0e03193f 			; <UNDEFINED> instruction: 0x0e03193f
     db0:	0b3b0b3a 	bleq	ec3aa0 <__bss_end__+0xeba4d0>
     db4:	19270b39 	stmdbne	r7!, {r0, r3, r4, r5, r8, r9, fp}
     db8:	06120111 			; <UNDEFINED> instruction: 0x06120111
     dbc:	42971840 	addsmi	r1, r7, #64, 16	; 0x400000
     dc0:	00130119 	andseq	r0, r3, r9, lsl r1
     dc4:	82890f00 	addhi	r0, r9, #0, 30
     dc8:	01110001 	tsteq	r1, r1
     dcc:	00001331 	andeq	r1, r0, r1, lsr r3
     dd0:	3f012e10 	svccc	0x00012e10
     dd4:	3a0e0319 	bcc	381a40 <__bss_end__+0x378470>
     dd8:	390b3b0b 	stmdbcc	fp, {r0, r1, r3, r8, r9, fp, ip, sp}
     ddc:	4919270b 	ldmdbmi	r9, {r0, r1, r3, r8, r9, sl, sp}
     de0:	12011113 	andne	r1, r1, #-1073741820	; 0xc0000004
     de4:	97184006 	ldrls	r4, [r8, -r6]
     de8:	13011942 	movwne	r1, #6466	; 0x1942
     dec:	89110000 	ldmdbhi	r1, {}	; <UNPREDICTABLE>
     df0:	11010182 	smlabbne	r1, r2, r1, r0
     df4:	00133101 	andseq	r3, r3, r1, lsl #2
     df8:	828a1200 	addhi	r1, sl, #0, 4
     dfc:	18020001 	stmdane	r2, {r0}
     e00:	00184291 	mulseq	r8, r1, r2
     e04:	00051300 	andeq	r1, r5, r0, lsl #6
     e08:	0b3a0803 	bleq	e82e1c <__bss_end__+0xe7984c>
     e0c:	0b390b3b 	bleq	e43b00 <__bss_end__+0xe3a530>
     e10:	17021349 	strne	r1, [r2, -r9, asr #6]
     e14:	001742b7 			; <UNDEFINED> instruction: 0x001742b7
     e18:	82891400 	addhi	r1, r9, #0, 8
     e1c:	01110101 	tsteq	r1, r1, lsl #2
     e20:	13011331 	movwne	r1, #4913	; 0x1331
     e24:	34150000 	ldrcc	r0, [r5], #-0
     e28:	3a080300 	bcc	201a30 <__bss_end__+0x1f8460>
     e2c:	390b3b0b 	stmdbcc	fp, {r0, r1, r3, r8, r9, fp, ip, sp}
     e30:	0213490b 	andseq	r4, r3, #180224	; 0x2c000
     e34:	1742b717 	smlaldne	fp, r2, r7, r7
     e38:	34160000 	ldrcc	r0, [r6], #-0
     e3c:	3a0e0300 	bcc	381a44 <__bss_end__+0x378474>
     e40:	390b3b0b 	stmdbcc	fp, {r0, r1, r3, r8, r9, fp, ip, sp}
     e44:	1c13490b 			; <UNDEFINED> instruction: 0x1c13490b
     e48:	17000005 	strne	r0, [r0, -r5]
     e4c:	0e03012e 	adfeqsp	f0, f3, #0.5
     e50:	0b3b0b3a 	bleq	ec3b40 <__bss_end__+0xeba570>
     e54:	19270b39 	stmdbne	r7!, {r0, r3, r4, r5, r8, r9, fp}
     e58:	06120111 			; <UNDEFINED> instruction: 0x06120111
     e5c:	42971840 	addsmi	r1, r7, #64, 16	; 0x400000
     e60:	00130119 	andseq	r0, r3, r9, lsl r1
     e64:	00051800 	andeq	r1, r5, r0, lsl #16
     e68:	0b3a0e03 	bleq	e8467c <__bss_end__+0xe7b0ac>
     e6c:	0b390b3b 	bleq	e43b60 <__bss_end__+0xe3a590>
     e70:	17021349 	strne	r1, [r2, -r9, asr #6]
     e74:	001742b7 			; <UNDEFINED> instruction: 0x001742b7
     e78:	00351900 	eorseq	r1, r5, r0, lsl #18
     e7c:	2e1a0000 	cdpcs	0, 1, cr0, cr10, cr0, {0}
     e80:	3c193f00 	ldccc	15, cr3, [r9], {-0}
     e84:	030e6e19 	movweq	r6, #60953	; 0xee19
     e88:	3b0b3a0e 	blcc	2cf6c8 <__bss_end__+0x2c60f8>
     e8c:	000b390b 	andeq	r3, fp, fp, lsl #18
     e90:	11010000 	mrsne	r0, (UNDEF: 1)
     e94:	130e2501 	movwne	r2, #58625	; 0xe501
     e98:	1b0e030b 	blne	381acc <__bss_end__+0x3784fc>
     e9c:	1201110e 	andne	r1, r1, #-2147483645	; 0x80000003
     ea0:	00171006 	andseq	r1, r7, r6
     ea4:	00240200 	eoreq	r0, r4, r0, lsl #4
     ea8:	0b3e0b0b 	bleq	f83adc <__bss_end__+0xf7a50c>
     eac:	00000803 	andeq	r0, r0, r3, lsl #16
     eb0:	0b002403 	bleq	9ec4 <__bss_end__+0x8f4>
     eb4:	030b3e0b 	movweq	r3, #48651	; 0xbe0b
     eb8:	0400000e 	streq	r0, [r0], #-14
     ebc:	19270115 	stmdbne	r7!, {r0, r2, r4, r8}
     ec0:	13011349 	movwne	r1, #4937	; 0x1349
     ec4:	05050000 	streq	r0, [r5, #-0]
     ec8:	00134900 	andseq	r4, r3, r0, lsl #18
     ecc:	00340600 	eorseq	r0, r4, r0, lsl #12
     ed0:	0b3a0e03 	bleq	e846e4 <__bss_end__+0xe7b114>
     ed4:	0b390b3b 	bleq	e43bc8 <__bss_end__+0xe3a5f8>
     ed8:	193f1349 	ldmdbne	pc!, {r0, r3, r6, r8, r9, ip}	; <UNPREDICTABLE>
     edc:	0000193c 	andeq	r1, r0, ip, lsr r9
     ee0:	0b000f07 	bleq	4b04 <__code_start__-0x34fc>
     ee4:	0013490b 	andseq	r4, r3, fp, lsl #18
     ee8:	00260800 	eoreq	r0, r6, r0, lsl #16
     eec:	00001349 	andeq	r1, r0, r9, asr #6
     ef0:	47003409 	strmi	r3, [r0, -r9, lsl #8]
     ef4:	3b0b3a13 	blcc	2cf748 <__bss_end__+0x2c6178>
     ef8:	020b390b 	andeq	r3, fp, #180224	; 0x2c000
     efc:	0a000018 	beq	f64 <__code_start__-0x709c>
     f00:	193f012e 	ldmdbne	pc!, {r1, r2, r3, r5, r8}	; <UNPREDICTABLE>
     f04:	0b3a0e03 	bleq	e84718 <__bss_end__+0xe7b148>
     f08:	0b390b3b 	bleq	e43bfc <__bss_end__+0xe3a62c>
     f0c:	01111927 	tsteq	r1, r7, lsr #18
     f10:	18400612 	stmdane	r0, {r1, r4, r9, sl}^
     f14:	01194297 			; <UNDEFINED> instruction: 0x01194297
     f18:	0b000013 	bleq	f6c <__code_start__-0x7094>
     f1c:	08030005 	stmdaeq	r3, {r0, r2}
     f20:	0b3b0b3a 	bleq	ec3c10 <__bss_end__+0xeba640>
     f24:	13490b39 	movtne	r0, #39737	; 0x9b39
     f28:	00001802 	andeq	r1, r0, r2, lsl #16
     f2c:	3f002e0c 	svccc	0x00002e0c
     f30:	3a0e0319 	bcc	381b9c <__bss_end__+0x3785cc>
     f34:	390b3b0b 	stmdbcc	fp, {r0, r1, r3, r8, r9, fp, ip, sp}
     f38:	1119270b 	tstne	r9, fp, lsl #14
     f3c:	40061201 	andmi	r1, r6, r1, lsl #4
     f40:	19429718 	stmdbne	r2, {r3, r4, r8, r9, sl, ip, pc}^
     f44:	2e0d0000 	cdpcs	0, 0, cr0, cr13, cr0, {0}
     f48:	3a0e0301 	bcc	381b54 <__bss_end__+0x378584>
     f4c:	390b3b0b 	stmdbcc	fp, {r0, r1, r3, r8, r9, fp, ip, sp}
     f50:	4919270b 	ldmdbmi	r9, {r0, r1, r3, r8, r9, sl, sp}
     f54:	12011113 	andne	r1, r1, #-1073741820	; 0xc0000004
     f58:	97184006 	ldrls	r4, [r8, -r6]
     f5c:	13011942 	movwne	r1, #6466	; 0x1942
     f60:	050e0000 	streq	r0, [lr, #-0]
     f64:	3a080300 	bcc	201b6c <__bss_end__+0x1f859c>
     f68:	390b3b0b 	stmdbcc	fp, {r0, r1, r3, r8, r9, fp, ip, sp}
     f6c:	0213490b 	andseq	r4, r3, #180224	; 0x2c000
     f70:	1742b717 	smlaldne	fp, r2, r7, r7
     f74:	890f0000 	stmdbhi	pc, {}	; <UNPREDICTABLE>
     f78:	11010182 	smlabbne	r1, r2, r1, r0
     f7c:	00133101 	andseq	r3, r3, r1, lsl #2
     f80:	828a1000 	addhi	r1, sl, #0, 0
     f84:	18020001 	stmdane	r2, {r0}
     f88:	00184291 	mulseq	r8, r1, r2
     f8c:	002e1100 	eoreq	r1, lr, r0, lsl #2
     f90:	193c193f 	ldmdbne	ip!, {r0, r1, r2, r3, r4, r5, r8, fp, ip}
     f94:	0e030e6e 	cdpeq	14, 0, cr0, cr3, cr14, {3}
     f98:	0b3b0b3a 	bleq	ec3c88 <__bss_end__+0xeba6b8>
     f9c:	00000b39 	andeq	r0, r0, r9, lsr fp
     fa0:	01110100 	tsteq	r1, r0, lsl #2
     fa4:	0b130e25 	bleq	4c4840 <__bss_end__+0x4bb270>
     fa8:	0e1b0e03 	cdpeq	14, 1, cr0, cr11, cr3, {0}
     fac:	06120111 			; <UNDEFINED> instruction: 0x06120111
     fb0:	00001710 	andeq	r1, r0, r0, lsl r7
     fb4:	0b002402 	bleq	9fc4 <__bss_end__+0x9f4>
     fb8:	030b3e0b 	movweq	r3, #48651	; 0xbe0b
     fbc:	03000008 	movweq	r0, #8
     fc0:	0b0b0024 	bleq	2c1058 <__bss_end__+0x2b7a88>
     fc4:	0e030b3e 	vmoveq.16	d3[0], r0
     fc8:	15040000 	strne	r0, [r4, #-0]
     fcc:	49192701 	ldmdbmi	r9, {r0, r8, r9, sl, sp}
     fd0:	00130113 	andseq	r0, r3, r3, lsl r1
     fd4:	00050500 	andeq	r0, r5, r0, lsl #10
     fd8:	00001349 	andeq	r1, r0, r9, asr #6
     fdc:	03003406 	movweq	r3, #1030	; 0x406
     fe0:	3b0b3a0e 	blcc	2cf820 <__bss_end__+0x2c6250>
     fe4:	490b390b 	stmdbmi	fp, {r0, r1, r3, r8, fp, ip, sp}
     fe8:	3c193f13 	ldccc	15, cr3, [r9], {19}
     fec:	07000019 	smladeq	r0, r9, r0, r0
     ff0:	0b0b000f 	bleq	2c1034 <__bss_end__+0x2b7a64>
     ff4:	00001349 	andeq	r1, r0, r9, asr #6
     ff8:	49002608 	stmdbmi	r0, {r3, r9, sl, sp}
     ffc:	09000013 	stmdbeq	r0, {r0, r1, r4}
    1000:	193f012e 	ldmdbne	pc!, {r1, r2, r3, r5, r8}	; <UNPREDICTABLE>
    1004:	0b3a0e03 	bleq	e84818 <__bss_end__+0xe7b248>
    1008:	0b390b3b 	bleq	e43cfc <__bss_end__+0xe3a72c>
    100c:	13491927 	movtne	r1, #39207	; 0x9927
    1010:	06120111 			; <UNDEFINED> instruction: 0x06120111
    1014:	42971840 	addsmi	r1, r7, #64, 16	; 0x400000
    1018:	00130119 	andseq	r0, r3, r9, lsl r1
    101c:	00050a00 	andeq	r0, r5, r0, lsl #20
    1020:	0b3a0e03 	bleq	e84834 <__bss_end__+0xe7b264>
    1024:	0b390b3b 	bleq	e43d18 <__bss_end__+0xe3a748>
    1028:	18021349 	stmdane	r2, {r0, r3, r6, r8, r9, ip}
    102c:	050b0000 	streq	r0, [fp, #-0]
    1030:	3a080300 	bcc	201c38 <__bss_end__+0x1f8668>
    1034:	390b3b0b 	stmdbcc	fp, {r0, r1, r3, r8, r9, fp, ip, sp}
    1038:	0213490b 	andseq	r4, r3, #180224	; 0x2c000
    103c:	1742b717 	smlaldne	fp, r2, r7, r7
    1040:	340c0000 	strcc	r0, [ip], #-0
    1044:	3a080300 	bcc	201c4c <__bss_end__+0x1f867c>
    1048:	390b3b0b 	stmdbcc	fp, {r0, r1, r3, r8, r9, fp, ip, sp}
    104c:	0213490b 	andseq	r4, r3, #180224	; 0x2c000
    1050:	1742b717 	smlaldne	fp, r2, r7, r7
    1054:	01000000 	mrseq	r0, (UNDEF: 0)
    1058:	0e250111 	mcreq	1, 1, r0, cr5, cr1, {0}
    105c:	0e030b13 	vmoveq.32	d3[0], r0
    1060:	01110e1b 	tsteq	r1, fp, lsl lr
    1064:	17100612 			; <UNDEFINED> instruction: 0x17100612
    1068:	24020000 	strcs	r0, [r2], #-0
    106c:	3e0b0b00 	vmlacc.f64	d0, d11, d0
    1070:	0008030b 	andeq	r0, r8, fp, lsl #6
    1074:	00240300 	eoreq	r0, r4, r0, lsl #6
    1078:	0b3e0b0b 	bleq	f83cac <__bss_end__+0xf7a6dc>
    107c:	00000e03 	andeq	r0, r0, r3, lsl #28
    1080:	27011504 	strcs	r1, [r1, -r4, lsl #10]
    1084:	01134919 	tsteq	r3, r9, lsl r9
    1088:	05000013 	streq	r0, [r0, #-19]	; 0xffffffed
    108c:	13490005 	movtne	r0, #36869	; 0x9005
    1090:	34060000 	strcc	r0, [r6], #-0
    1094:	3a0e0300 	bcc	381c9c <__bss_end__+0x3786cc>
    1098:	390b3b0b 	stmdbcc	fp, {r0, r1, r3, r8, r9, fp, ip, sp}
    109c:	3f13490b 	svccc	0x0013490b
    10a0:	00193c19 	andseq	r3, r9, r9, lsl ip
    10a4:	000f0700 	andeq	r0, pc, r0, lsl #14
    10a8:	13490b0b 	movtne	r0, #39691	; 0x9b0b
    10ac:	26080000 	strcs	r0, [r8], -r0
    10b0:	00134900 	andseq	r4, r3, r0, lsl #18
    10b4:	012e0900 			; <UNDEFINED> instruction: 0x012e0900
    10b8:	0e03193f 			; <UNDEFINED> instruction: 0x0e03193f
    10bc:	0b3b0b3a 	bleq	ec3dac <__bss_end__+0xeba7dc>
    10c0:	19270b39 	stmdbne	r7!, {r0, r3, r4, r5, r8, r9, fp}
    10c4:	01111349 	tsteq	r1, r9, asr #6
    10c8:	18400612 	stmdane	r0, {r1, r4, r9, sl}^
    10cc:	00194297 	mulseq	r9, r7, r2
    10d0:	00050a00 	andeq	r0, r5, r0, lsl #20
    10d4:	0b3a0803 	bleq	e830e8 <__bss_end__+0xe79b18>
    10d8:	0b390b3b 	bleq	e43dcc <__bss_end__+0xe3a7fc>
    10dc:	17021349 	strne	r1, [r2, -r9, asr #6]
    10e0:	001742b7 			; <UNDEFINED> instruction: 0x001742b7
    10e4:	11010000 	mrsne	r0, (UNDEF: 1)
    10e8:	130e2501 	movwne	r2, #58625	; 0xe501
    10ec:	1b0e030b 	blne	381d20 <__bss_end__+0x378750>
    10f0:	1201110e 	andne	r1, r1, #-2147483645	; 0x80000003
    10f4:	00171006 	andseq	r1, r7, r6
    10f8:	00240200 	eoreq	r0, r4, r0, lsl #4
    10fc:	0b3e0b0b 	bleq	f83d30 <__bss_end__+0xf7a760>
    1100:	00000803 	andeq	r0, r0, r3, lsl #16
    1104:	0b002403 	bleq	a118 <__bss_end__+0xb48>
    1108:	030b3e0b 	movweq	r3, #48651	; 0xbe0b
    110c:	0400000e 	streq	r0, [r0], #-14
    1110:	19270115 	stmdbne	r7!, {r0, r2, r4, r8}
    1114:	13011349 	movwne	r1, #4937	; 0x1349
    1118:	05050000 	streq	r0, [r5, #-0]
    111c:	00134900 	andseq	r4, r3, r0, lsl #18
    1120:	00340600 	eorseq	r0, r4, r0, lsl #12
    1124:	0b3a0e03 	bleq	e84938 <__bss_end__+0xe7b368>
    1128:	0b390b3b 	bleq	e43e1c <__bss_end__+0xe3a84c>
    112c:	193f1349 	ldmdbne	pc!, {r0, r3, r6, r8, r9, ip}	; <UNPREDICTABLE>
    1130:	0000193c 	andeq	r1, r0, ip, lsr r9
    1134:	0b000f07 	bleq	4d58 <__code_start__-0x32a8>
    1138:	0013490b 	andseq	r4, r3, fp, lsl #18
    113c:	00260800 	eoreq	r0, r6, r0, lsl #16
    1140:	00001349 	andeq	r1, r0, r9, asr #6
    1144:	3f012e09 	svccc	0x00012e09
    1148:	3a0e0319 	bcc	381db4 <__bss_end__+0x3787e4>
    114c:	390b3b0b 	stmdbcc	fp, {r0, r1, r3, r8, r9, fp, ip, sp}
    1150:	4919270b 	ldmdbmi	r9, {r0, r1, r3, r8, r9, sl, sp}
    1154:	12011113 	andne	r1, r1, #-1073741820	; 0xc0000004
    1158:	97184006 	ldrls	r4, [r8, -r6]
    115c:	13011942 	movwne	r1, #6466	; 0x1942
    1160:	050a0000 	streq	r0, [sl, #-0]
    1164:	3a080300 	bcc	201d6c <__bss_end__+0x1f879c>
    1168:	390b3b0b 	stmdbcc	fp, {r0, r1, r3, r8, r9, fp, ip, sp}
    116c:	0213490b 	andseq	r4, r3, #180224	; 0x2c000
    1170:	0b000018 	bleq	11d8 <__code_start__-0x6e28>
    1174:	08030005 	stmdaeq	r3, {r0, r2}
    1178:	0b3b0b3a 	bleq	ec3e68 <__bss_end__+0xeba898>
    117c:	13490b39 	movtne	r0, #39737	; 0x9b39
    1180:	42b71702 	adcsmi	r1, r7, #524288	; 0x80000
    1184:	0c000017 	stceq	0, cr0, [r0], {23}
    1188:	08030034 	stmdaeq	r3, {r2, r4, r5}
    118c:	0b3b0b3a 	bleq	ec3e7c <__bss_end__+0xeba8ac>
    1190:	13490b39 	movtne	r0, #39737	; 0x9b39
    1194:	42b71702 	adcsmi	r1, r7, #524288	; 0x80000
    1198:	00000017 	andeq	r0, r0, r7, lsl r0
    119c:	25011101 	strcs	r1, [r1, #-257]	; 0xfffffeff
    11a0:	030b130e 	movweq	r1, #45838	; 0xb30e
    11a4:	550e1b0e 	strpl	r1, [lr, #-2830]	; 0xfffff4f2
    11a8:	10011117 	andne	r1, r1, r7, lsl r1
    11ac:	02000017 	andeq	r0, r0, #23, 0
    11b0:	0b0b0024 	bleq	2c1248 <__bss_end__+0x2b7c78>
    11b4:	08030b3e 	stmdaeq	r3, {r1, r2, r3, r4, r5, r8, r9, fp}
    11b8:	16030000 	strne	r0, [r3], -r0
    11bc:	3a0e0300 	bcc	381dc4 <__bss_end__+0x3787f4>
    11c0:	390b3b0b 	stmdbcc	fp, {r0, r1, r3, r8, r9, fp, ip, sp}
    11c4:	0013490b 	andseq	r4, r3, fp, lsl #18
    11c8:	00240400 	eoreq	r0, r4, r0, lsl #8
    11cc:	0b3e0b0b 	bleq	f83e00 <__bss_end__+0xf7a830>
    11d0:	00000e03 	andeq	r0, r0, r3, lsl #28
    11d4:	49002605 	stmdbmi	r0, {r0, r2, r9, sl, sp}
    11d8:	06000013 			; <UNDEFINED> instruction: 0x06000013
    11dc:	19270115 	stmdbne	r7!, {r0, r2, r4, r8}
    11e0:	13011349 	movwne	r1, #4937	; 0x1349
    11e4:	05070000 	streq	r0, [r7, #-0]
    11e8:	00134900 	andseq	r4, r3, r0, lsl #18
    11ec:	00340800 	eorseq	r0, r4, r0, lsl #16
    11f0:	0b3a0e03 	bleq	e84a04 <__bss_end__+0xe7b434>
    11f4:	0b390b3b 	bleq	e43ee8 <__bss_end__+0xe3a918>
    11f8:	193f1349 	ldmdbne	pc!, {r0, r3, r6, r8, r9, ip}	; <UNPREDICTABLE>
    11fc:	0000193c 	andeq	r1, r0, ip, lsr r9
    1200:	0b000f09 	bleq	4e2c <__code_start__-0x31d4>
    1204:	0013490b 	andseq	r4, r3, fp, lsl #18
    1208:	012e0a00 			; <UNDEFINED> instruction: 0x012e0a00
    120c:	0e03193f 			; <UNDEFINED> instruction: 0x0e03193f
    1210:	0b3b0b3a 	bleq	ec3f00 <__bss_end__+0xeba930>
    1214:	19270b39 	stmdbne	r7!, {r0, r3, r4, r5, r8, r9, fp}
    1218:	01111349 	tsteq	r1, r9, asr #6
    121c:	18400612 	stmdane	r0, {r1, r4, r9, sl}^
    1220:	01194297 			; <UNDEFINED> instruction: 0x01194297
    1224:	0b000013 	bleq	1278 <__code_start__-0x6d88>
    1228:	08030005 	stmdaeq	r3, {r0, r2}
    122c:	0b3b0b3a 	bleq	ec3f1c <__bss_end__+0xeba94c>
    1230:	13490b39 	movtne	r0, #39737	; 0x9b39
    1234:	42b71702 	adcsmi	r1, r7, #524288	; 0x80000
    1238:	0c000017 	stceq	0, cr0, [r0], {23}
    123c:	08030034 	stmdaeq	r3, {r2, r4, r5}
    1240:	0b3b0b3a 	bleq	ec3f30 <__bss_end__+0xeba960>
    1244:	13490b39 	movtne	r0, #39737	; 0x9b39
    1248:	42b71702 	adcsmi	r1, r7, #524288	; 0x80000
    124c:	00000017 	andeq	r0, r0, r7, lsl r0
    1250:	25011101 	strcs	r1, [r1, #-257]	; 0xfffffeff
    1254:	030b130e 	movweq	r1, #45838	; 0xb30e
    1258:	110e1b0e 	tstne	lr, lr, lsl #22
    125c:	10061201 	andne	r1, r6, r1, lsl #4
    1260:	02000017 	andeq	r0, r0, #23, 0
    1264:	0b0b0024 	bleq	2c12fc <__bss_end__+0x2b7d2c>
    1268:	08030b3e 	stmdaeq	r3, {r1, r2, r3, r4, r5, r8, r9, fp}
    126c:	24030000 	strcs	r0, [r3], #-0
    1270:	3e0b0b00 	vmlacc.f64	d0, d11, d0
    1274:	000e030b 	andeq	r0, lr, fp, lsl #6
    1278:	01150400 	tsteq	r5, r0, lsl #8
    127c:	13491927 	movtne	r1, #39207	; 0x9927
    1280:	00001301 	andeq	r1, r0, r1, lsl #6
    1284:	49000505 	stmdbmi	r0, {r0, r2, r8, sl}
    1288:	06000013 			; <UNDEFINED> instruction: 0x06000013
    128c:	0e030034 	mcreq	0, 0, r0, cr3, cr4, {1}
    1290:	0b3b0b3a 	bleq	ec3f80 <__bss_end__+0xeba9b0>
    1294:	13490b39 	movtne	r0, #39737	; 0x9b39
    1298:	193c193f 	ldmdbne	ip!, {r0, r1, r2, r3, r4, r5, r8, fp, ip}
    129c:	0f070000 	svceq	0x00070000
    12a0:	490b0b00 	stmdbmi	fp, {r8, r9, fp}
    12a4:	08000013 	stmdaeq	r0, {r0, r1, r4}
    12a8:	13490026 	movtne	r0, #36902	; 0x9026
    12ac:	2e090000 	cdpcs	0, 0, cr0, cr9, cr0, {0}
    12b0:	03193f00 	tsteq	r9, #0, 30
    12b4:	3b0b3a0e 	blcc	2cfaf4 <__bss_end__+0x2c6524>
    12b8:	270b390b 	strcs	r3, [fp, -fp, lsl #18]
    12bc:	12011119 	andne	r1, r1, #1073741830	; 0x40000006
    12c0:	97184006 	ldrls	r4, [r8, -r6]
    12c4:	00001942 	andeq	r1, r0, r2, asr #18
	...

Disassembly of section .debug_loc:

00000000 <.debug_loc>:
       0:	00000002 	andeq	r0, r0, r2
       4:	00000128 	andeq	r0, r0, r8, lsr #2
       8:	00000130 	andeq	r0, r0, r0, lsr r1
       c:	9f300002 	svcls	0x00300002
      10:	00000130 	andeq	r0, r0, r0, lsr r1
      14:	000001ec 	andeq	r0, r0, ip, ror #3
      18:	00580001 	subseq	r0, r8, r1
	...
      24:	30000000 	andcc	r0, r0, r0
      28:	a4000001 	strge	r0, [r0], #-1
      2c:	01000001 	tsteq	r0, r1
      30:	01cc5700 	biceq	r5, ip, r0, lsl #14
      34:	01dc0000 	bicseq	r0, ip, r0
      38:	00010000 	andeq	r0, r1, r0
      3c:	00000050 	andeq	r0, r0, r0, asr r0
      40:	00000000 	andeq	r0, r0, r0
      44:	01020000 	mrseq	r0, (UNDEF: 2)
      48:	00013000 	andeq	r3, r1, r0
      4c:	0001a000 	andeq	sl, r1, r0
      50:	0a000400 	beq	1058 <__code_start__-0x6fa8>
      54:	cc9f1770 	ldcgt	7, cr1, [pc], {112}	; 0x70
      58:	dc000001 	stcle	0, cr0, [r0], {1}
      5c:	04000001 	streq	r0, [r0], #-1
      60:	17700a00 	ldrbne	r0, [r0, -r0, lsl #20]!
      64:	0000009f 	muleq	r0, pc, r0	; <UNPREDICTABLE>
      68:	00000000 	andeq	r0, r0, r0
      6c:	01020000 	mrseq	r0, (UNDEF: 2)
      70:	00013000 	andeq	r3, r1, r0
      74:	0001a000 	andeq	sl, r1, r0
      78:	57000100 	strpl	r0, [r0, -r0, lsl #2]
      7c:	000001cc 	andeq	r0, r0, ip, asr #3
      80:	000001dc 	ldrdeq	r0, [r0], -ip
      84:	00500001 	subseq	r0, r0, r1
	...
      94:	01020000 	mrseq	r0, (UNDEF: 2)
      98:	00013000 	andeq	r3, r1, r0
      9c:	00015000 	andeq	r5, r1, r0
      a0:	50000100 	andpl	r0, r0, r0, lsl #2
      a4:	00000150 	andeq	r0, r0, r0, asr r1
      a8:	00000170 	andeq	r0, r0, r0, ror r1
      ac:	e0910004 	adds	r0, r1, r4
      b0:	01709f7d 	cmneq	r0, sp, ror pc
      b4:	01a00000 	moveq	r0, r0
      b8:	00010000 	andeq	r0, r1, r0
      bc:	0001a050 	andeq	sl, r1, r0, asr r0
      c0:	0001a000 	andeq	sl, r1, r0
      c4:	91000400 	tstls	r0, r0, lsl #8
      c8:	cc9f7de0 	ldcgt	13, cr7, [pc], {224}	; 0xe0
      cc:	dc000001 	stcle	0, cr0, [r0], {1}
      d0:	04000001 	streq	r0, [r0], #-1
      d4:	7de09100 	stfvcp	f1, [r0]
      d8:	0000009f 	muleq	r0, pc, r0	; <UNPREDICTABLE>
      dc:	00000000 	andeq	r0, r0, r0
      e0:	01000000 	mrseq	r0, (UNDEF: 0)
      e4:	30000300 	andcc	r0, r0, r0, lsl #6
      e8:	5c000001 	stcpl	0, cr0, [r0], {1}
      ec:	01000001 	tsteq	r0, r1
      f0:	017c5400 	cmneq	ip, r0, lsl #8
      f4:	01a00000 	moveq	r0, r0
      f8:	00010000 	andeq	r0, r1, r0
      fc:	0001cc54 	andeq	ip, r1, r4, asr ip
     100:	0001dc00 	andeq	sp, r1, r0, lsl #24
     104:	30000200 	andcc	r0, r0, r0, lsl #4
     108:	0000009f 	muleq	r0, pc, r0	; <UNPREDICTABLE>
     10c:	00000000 	andeq	r0, r0, r0
     110:	03020000 	movweq	r0, #8192	; 0x2000
     114:	00013000 	andeq	r3, r1, r0
     118:	0001a000 	andeq	sl, r1, r0
     11c:	56000100 	strpl	r0, [r0], -r0, lsl #2
     120:	000001cc 	andeq	r0, r0, ip, asr #3
     124:	000001dc 	ldrdeq	r0, [r0], -ip
     128:	9f300002 	svcls	0x00300002
	...
     138:	02000001 	andeq	r0, r0, #1, 0
     13c:	01300004 	teqeq	r0, r4
     140:	015c0000 	cmpeq	ip, r0
     144:	00010000 	andeq	r0, r1, r0
     148:	00015c54 	andeq	r5, r1, r4, asr ip
     14c:	00017c00 	andeq	r7, r1, r0, lsl #24
     150:	53000100 	movwpl	r0, #256	; 0x100
     154:	0000017c 	andeq	r0, r0, ip, ror r1
     158:	000001a0 	andeq	r0, r0, r0, lsr #3
     15c:	a0540001 	subsge	r0, r4, r1
     160:	a0000001 	andge	r0, r0, r1
     164:	01000001 	tsteq	r0, r1
     168:	01cc5300 	biceq	r5, ip, r0, lsl #6
     16c:	01dc0000 	bicseq	r0, ip, r0
     170:	00020000 	andeq	r0, r2, r0
     174:	00009f30 	andeq	r9, r0, r0, lsr pc
	...
     180:	00020200 	andeq	r0, r2, r0, lsl #4
     184:	00060200 	andeq	r0, r6, r0, lsl #4
     188:	00000130 	andeq	r0, r0, r0, lsr r1
     18c:	00000153 	andeq	r0, r0, r3, asr r1
     190:	53510001 	cmppl	r1, #1, 0
     194:	54000001 	strpl	r0, [r0], #-1
     198:	03000001 	movweq	r0, #1
     19c:	9f7f7500 	svcls	0x007f7500
     1a0:	00000154 	andeq	r0, r0, r4, asr r1
     1a4:	0000015c 	andeq	r0, r0, ip, asr r1
     1a8:	5c550001 	mrrcpl	0, 0, r0, r5, cr1
     1ac:	a0000001 	andge	r0, r0, r1
     1b0:	01000001 	tsteq	r0, r1
     1b4:	01cc5100 	biceq	r5, ip, r0, lsl #2
     1b8:	01dc0000 	bicseq	r0, ip, r0
     1bc:	00020000 	andeq	r0, r2, r0
     1c0:	00009f30 	andeq	r9, r0, r0, lsr pc
	...
     1d4:	00000130 	andeq	r0, r0, r0, lsr r1
     1d8:	00000150 	andeq	r0, r0, r0, asr r1
     1dc:	00710008 	rsbseq	r0, r1, r8
     1e0:	00702433 	rsbseq	r2, r0, r3, lsr r4
     1e4:	01509f22 	cmpeq	r0, r2, lsr #30
     1e8:	01530000 	cmpeq	r3, r0
     1ec:	000c0000 	andeq	r0, ip, r0
     1f0:	24330071 	ldrtcs	r0, [r3], #-113	; 0xffffff8f
     1f4:	0a227c91 	beq	89f440 <__bss_end__+0x895e70>
     1f8:	9f1c011c 	svcls	0x001c011c
     1fc:	00000153 	andeq	r0, r0, r3, asr r1
     200:	0000015c 	andeq	r0, r0, ip, asr r1
     204:	7f75000c 	svcvc	0x0075000c
     208:	7c912433 	cfldrsvc	mvf2, [r1], {51}	; 0x33
     20c:	011c0a22 	tsteq	ip, r2, lsr #20
     210:	01749f1c 	cmneq	r4, ip, lsl pc
     214:	01840000 	orreq	r0, r4, r0
     218:	00010000 	andeq	r0, r1, r0
     21c:	00018452 	andeq	r8, r1, r2, asr r4
     220:	0001a000 	andeq	sl, r1, r0
     224:	71000800 	tstvc	r0, r0, lsl #16
     228:	70243300 	eorvc	r3, r4, r0, lsl #6
     22c:	009f2200 	addseq	r2, pc, r0, lsl #4
	...
     23c:	00013000 	andeq	r3, r1, r0
     240:	00015300 	andeq	r5, r1, r0, lsl #6
     244:	53000100 	movwpl	r0, #256	; 0x100
     248:	00000178 	andeq	r0, r0, r8, ror r1
     24c:	0000017c 	andeq	r0, r0, ip, ror r1
     250:	7c540001 	mrrcvc	0, 0, r0, r4, cr1
     254:	a0000001 	andge	r0, r0, r1
     258:	01000001 	tsteq	r0, r1
     25c:	00005300 	andeq	r5, r0, r0, lsl #6
	...
     26c:	00000130 	andeq	r0, r0, r0, lsr r1
     270:	00000153 	andeq	r0, r0, r3, asr r1
     274:	535e0001 	cmppl	lr, #1, 0
     278:	5c000001 	stcpl	0, cr0, [r0], {1}
     27c:	16000001 	strne	r0, [r0], -r1
     280:	32007500 	andcc	r7, r0, #0, 10
     284:	22007524 	andcs	r7, r0, #36, 10	; 0x9000000
     288:	24320075 	ldrtcs	r0, [r2], #-117	; 0xffffff8b
     28c:	32220075 	eorcc	r0, r2, #117, 0	; 0x75
     290:	1e3f2224 	cdpne	2, 3, cr2, cr15, cr4, {1}
     294:	909f2434 	addsls	r2, pc, r4, lsr r4	; <UNPREDICTABLE>
     298:	a0000001 	andge	r0, r0, r1
     29c:	01000001 	tsteq	r0, r1
     2a0:	00005e00 	andeq	r5, r0, r0, lsl #28
	...
     2ac:	01340000 	teqeq	r4, r0
     2b0:	014c0000 	mrseq	r0, (UNDEF: 76)
     2b4:	00010000 	andeq	r0, r1, r0
     2b8:	00014c52 	andeq	r4, r1, r2, asr ip
     2bc:	00015300 	andeq	r5, r1, r0, lsl #6
     2c0:	91000300 	mrsls	r0, LR_irq
     2c4:	00007dd8 	ldrdeq	r7, [r0], -r8
	...
     2d0:	00500000 	subseq	r0, r0, r0
     2d4:	00670000 	rsbeq	r0, r7, r0
     2d8:	00010000 	andeq	r0, r1, r0
     2dc:	00006750 	andeq	r6, r0, r0, asr r7
     2e0:	0000fc00 	andeq	pc, r0, r0, lsl #24
     2e4:	54000100 	strpl	r0, [r0], #-256	; 0xffffff00
	...
     2f4:	00000050 	andeq	r0, r0, r0, asr r0
     2f8:	00000067 	andeq	r0, r0, r7, rrx
     2fc:	67510001 	ldrbvs	r0, [r1, -r1]
     300:	fc000000 	stc2	0, cr0, [r0], {-0}
     304:	01000000 	mrseq	r0, (UNDEF: 0)
     308:	00005700 	andeq	r5, r0, r0, lsl #14
	...
     314:	00500000 	subseq	r0, r0, r0
     318:	00670000 	rsbeq	r0, r7, r0
     31c:	00010000 	andeq	r0, r1, r0
     320:	00006752 	andeq	r6, r0, r2, asr r7
     324:	0000fc00 	andeq	pc, r0, r0, lsl #24
     328:	55000100 	strpl	r0, [r0, #-256]	; 0xffffff00
	...
     338:	00000050 	andeq	r0, r0, r0, asr r0
     33c:	00000067 	andeq	r0, r0, r7, rrx
     340:	67530001 	ldrbvs	r0, [r3, -r1]
     344:	fc000000 	stc2	0, cr0, [r0], {-0}
     348:	01000000 	mrseq	r0, (UNDEF: 0)
     34c:	00005600 	andeq	r5, r0, r0, lsl #12
	...
     358:	00780000 	rsbseq	r0, r8, r0
     35c:	00ac0000 	adceq	r0, ip, r0
     360:	00010000 	andeq	r0, r1, r0
     364:	0000b45c 	andeq	fp, r0, ip, asr r4
     368:	0000eb00 	andeq	lr, r0, r0, lsl #22
     36c:	5c000100 	stfpls	f0, [r0], {-0}
	...
     378:	00680000 	rsbeq	r0, r8, r0
     37c:	00e80000 	rsceq	r0, r8, r0
     380:	00010000 	andeq	r0, r1, r0
     384:	00000050 	andeq	r0, r0, r0, asr r0
     388:	00000000 	andeq	r0, r0, r0
     38c:	84000100 	strhi	r0, [r0], #-256	; 0xffffff00
     390:	eb000000 	bl	398 <__code_start__-0x7c68>
     394:	01000000 	mrseq	r0, (UNDEF: 0)
     398:	00005100 	andeq	r5, r0, r0, lsl #2
     39c:	00000000 	andeq	r0, r0, r0
     3a0:	00030000 	andeq	r0, r3, r0
     3a4:	00840000 	addeq	r0, r4, r0
     3a8:	008c0000 	addeq	r0, ip, r0
     3ac:	00020000 	andeq	r0, r2, r0
     3b0:	008c9f30 	addeq	r9, ip, r0, lsr pc
     3b4:	00fc0000 	rscseq	r0, ip, r0
     3b8:	00010000 	andeq	r0, r1, r0
     3bc:	00000058 	andeq	r0, r0, r8, asr r0
     3c0:	00000000 	andeq	r0, r0, r0
     3c4:	84000400 	strhi	r0, [r0], #-1024	; 0xfffffc00
     3c8:	eb000000 	bl	3d0 <__code_start__-0x7c30>
     3cc:	06000000 	streq	r0, [r0], -r0
     3d0:	71007600 	tstvc	r0, r0, lsl #12
     3d4:	009f2200 	addseq	r2, pc, r0, lsl #4
     3d8:	00000000 	andeq	r0, r0, r0
     3dc:	01000000 	mrseq	r0, (UNDEF: 0)
     3e0:	0000c000 	andeq	ip, r0, r0
     3e4:	0000cc00 	andeq	ip, r0, r0, lsl #24
     3e8:	53000100 	movwpl	r0, #256	; 0x100
	...
     3f4:	00c00100 	sbceq	r0, r0, r0, lsl #2
     3f8:	00c00000 	sbceq	r0, r0, r0
     3fc:	00010000 	andeq	r0, r1, r0
     400:	00000053 	andeq	r0, r0, r3, asr r0
     404:	00000000 	andeq	r0, r0, r0
     408:	68000300 	stmdavs	r0, {r8, r9}
     40c:	78000000 	stmdavc	r0, {}	; <UNPREDICTABLE>
     410:	01000000 	mrseq	r0, (UNDEF: 0)
     414:	00005400 	andeq	r5, r0, r0, lsl #8
     418:	00000000 	andeq	r0, r0, r0
     41c:	01000000 	mrseq	r0, (UNDEF: 0)
     420:	00000084 	andeq	r0, r0, r4, lsl #1
     424:	00000084 	andeq	r0, r0, r4, lsl #1
     428:	00510001 	subseq	r0, r1, r1
	...
     434:	00009001 	andeq	r9, r0, r1
     438:	00009000 	andeq	r9, r0, r0
     43c:	53000100 	movwpl	r0, #256	; 0x100
	...
     448:	00a40001 	adceq	r0, r4, r1
     44c:	00b40000 	adcseq	r0, r4, r0
     450:	00010000 	andeq	r0, r1, r0
     454:	00000054 	andeq	r0, r0, r4, asr r0
	...
     468:	00001000 	andeq	r1, r0, r0
     46c:	50000100 	andpl	r0, r0, r0, lsl #2
     470:	00000010 	andeq	r0, r0, r0, lsl r0
     474:	00000014 	andeq	r0, r0, r4, lsl r0
     478:	01f30004 	mvnseq	r0, r4
     47c:	00149f50 	andseq	r9, r4, r0, asr pc
     480:	00340000 	eorseq	r0, r4, r0
     484:	00010000 	andeq	r0, r1, r0
     488:	00003450 	andeq	r3, r0, r0, asr r4
     48c:	00005000 	andeq	r5, r0, r0
     490:	f3000400 	vshl.u8	d0, d0, d0
     494:	009f5001 	addseq	r5, pc, r1
	...
     4a4:	00002c00 	andeq	r2, r0, r0, lsl #24
     4a8:	00003800 	andeq	r3, r0, r0, lsl #16
     4ac:	50000100 	andpl	r0, r0, r0, lsl #2
     4b0:	00000038 	andeq	r0, r0, r8, lsr r0
     4b4:	00000048 	andeq	r0, r0, r8, asr #32
     4b8:	48540001 	ldmdami	r4, {r0}^
     4bc:	58000000 	stmdapl	r0, {}	; <UNPREDICTABLE>
     4c0:	01000000 	mrseq	r0, (UNDEF: 0)
     4c4:	00005000 	andeq	r5, r0, r0
     4c8:	00000000 	andeq	r0, r0, r0
     4cc:	01000000 	mrseq	r0, (UNDEF: 0)
     4d0:	00000001 	andeq	r0, r0, r1
     4d4:	00080000 	andeq	r0, r8, r0
     4d8:	00010000 	andeq	r0, r1, r0
     4dc:	00000850 	andeq	r0, r0, r0, asr r8
     4e0:	00003400 	andeq	r3, r0, r0, lsl #8
     4e4:	54000100 	strpl	r0, [r0], #-256	; 0xffffff00
	...
     4f4:	02880000 	addeq	r0, r8, #0, 0
     4f8:	02b80000 	adcseq	r0, r8, #0, 0
     4fc:	00010000 	andeq	r0, r1, r0
     500:	0002b850 	andeq	fp, r2, r0, asr r8
     504:	00070400 	andeq	r0, r7, r0, lsl #8
     508:	59000100 	stmdbpl	r0, {r8}
     50c:	00000704 	andeq	r0, r0, r4, lsl #14
     510:	00000740 	andeq	r0, r0, r0, asr #14
     514:	01f30004 	mvnseq	r0, r4
     518:	00009f50 	andeq	r9, r0, r0, asr pc
	...
     528:	00000288 	andeq	r0, r0, r8, lsl #5
     52c:	000002a0 	andeq	r0, r0, r0, lsr #5
     530:	a0510001 	subsge	r0, r1, r1
     534:	b8000002 	stmdalt	r0, {r1}
     538:	03000002 	movweq	r0, #2
     53c:	9f017100 	svcls	0x00017100
     540:	000002b8 			; <UNDEFINED> instruction: 0x000002b8
     544:	00000740 	andeq	r0, r0, r0, asr #14
     548:	01f30004 	mvnseq	r0, r4
     54c:	00009f51 	andeq	r9, r0, r1, asr pc
	...
     560:	02880000 	addeq	r0, r8, #0, 0
     564:	02b80000 	adcseq	r0, r8, #0, 0
     568:	00010000 	andeq	r0, r1, r0
     56c:	0002b852 	andeq	fp, r2, r2, asr r8
     570:	0003ec00 	andeq	lr, r3, r0, lsl #24
     574:	56000100 	strpl	r0, [r0], -r0, lsl #2
     578:	000003ec 	andeq	r0, r0, ip, ror #7
     57c:	000004b8 			; <UNDEFINED> instruction: 0x000004b8
     580:	b85b0001 	ldmdalt	fp, {r0}^
     584:	d8000004 	stmdale	r0, {r2}
     588:	01000004 	tsteq	r0, r4
     58c:	04d85600 	ldrbeq	r5, [r8], #1536	; 0x600
     590:	055c0000 	ldrbeq	r0, [ip, #-0]
     594:	00010000 	andeq	r0, r1, r0
     598:	00055c5b 	andeq	r5, r5, fp, asr ip
     59c:	00070400 	andeq	r0, r7, r0, lsl #8
     5a0:	56000100 	strpl	r0, [r0], -r0, lsl #2
	...
     5ac:	00000001 	andeq	r0, r0, r1
     5b0:	01000000 	mrseq	r0, (UNDEF: 0)
     5b4:	00000001 	andeq	r0, r0, r1
     5b8:	02000000 	andeq	r0, r0, #0, 0
     5bc:	00000002 	andeq	r0, r0, r2
     5c0:	0000029c 	muleq	r0, ip, r2
     5c4:	000002b8 			; <UNDEFINED> instruction: 0x000002b8
     5c8:	b8500001 	ldmdalt	r0, {r0}^
     5cc:	bc000002 	stclt	0, cr0, [r0], {2}
     5d0:	01000002 	tsteq	r0, r2
     5d4:	02bc5400 	adcseq	r5, ip, #0, 8
     5d8:	02c00000 	sbceq	r0, r0, #0, 0
     5dc:	00030000 	andeq	r0, r3, r0
     5e0:	c09f0174 	addsgt	r0, pc, r4, ror r1	; <UNPREDICTABLE>
     5e4:	e4000002 	str	r0, [r0], #-2
     5e8:	01000002 	tsteq	r0, r2
     5ec:	02e45400 	rsceq	r5, r4, #0, 8
     5f0:	02e80000 	rsceq	r0, r8, #0, 0
     5f4:	00030000 	andeq	r0, r3, r0
     5f8:	e89f0174 	ldm	pc, {r2, r4, r5, r6, r8}	; <UNPREDICTABLE>
     5fc:	d4000002 	strle	r0, [r0], #-2
     600:	01000006 	tsteq	r0, r6
     604:	06d45400 	ldrbeq	r5, [r4], r0, lsl #8
     608:	06d80000 	ldrbeq	r0, [r8], r0
     60c:	00030000 	andeq	r0, r3, r0
     610:	d89f0174 	ldmle	pc, {r2, r4, r5, r6, r8}	; <UNPREDICTABLE>
     614:	f0000006 			; <UNDEFINED> instruction: 0xf0000006
     618:	01000006 	tsteq	r0, r6
     61c:	06f05400 	ldrbteq	r5, [r0], r0, lsl #8
     620:	06f80000 	ldrbteq	r0, [r8], r0
     624:	00030000 	andeq	r0, r3, r0
     628:	f89f0174 			; <UNDEFINED> instruction: 0xf89f0174
     62c:	04000006 	streq	r0, [r0], #-6
     630:	01000007 	tsteq	r0, r7
     634:	00005400 	andeq	r5, r0, r0, lsl #8
	...
     640:	02a40000 	adceq	r0, r4, #0, 0
     644:	07040000 	streq	r0, [r4, -r0]
     648:	00010000 	andeq	r0, r1, r0
     64c:	00070458 	andeq	r0, r7, r8, asr r4
     650:	00074000 	andeq	r4, r7, r0
     654:	f3000a00 	vpmax.u8	d0, d0, d0
     658:	01f35101 	mvnseq	r5, r1, lsl #2
     65c:	1c312250 	lfmne	f2, 4, [r1], #-320	; 0xfffffec0
     660:	0000009f 	muleq	r0, pc, r0	; <UNPREDICTABLE>
     664:	00000000 	andeq	r0, r0, r0
     668:	00000100 	andeq	r0, r0, r0, lsl #2
     66c:	08000000 	stmdaeq	r0, {}	; <UNPREDICTABLE>
     670:	74000004 	strvc	r0, [r0], #-4
     674:	01000004 	tsteq	r0, r4
     678:	04d85700 	ldrbeq	r5, [r8], #1792	; 0x700
     67c:	04fc0000 	ldrbteq	r0, [ip], #0
     680:	00010000 	andeq	r0, r1, r0
     684:	00054057 	andeq	r4, r5, r7, asr r0
     688:	00055c00 	andeq	r5, r5, r0, lsl #24
     68c:	57000100 	strpl	r0, [r0, -r0, lsl #2]
	...
     698:	00000002 	andeq	r0, r0, r2
     69c:	00000408 	andeq	r0, r0, r8, lsl #8
     6a0:	000004b8 			; <UNDEFINED> instruction: 0x000004b8
     6a4:	d85a0001 	ldmdale	sl, {r0}^
     6a8:	5c000004 	stcpl	0, cr0, [r0], {4}
     6ac:	01000005 	tsteq	r0, r5
     6b0:	00005a00 	andeq	r5, r0, r0, lsl #20
     6b4:	00000000 	andeq	r0, r0, r0
     6b8:	00010000 	andeq	r0, r1, r0
     6bc:	02ac0000 	adceq	r0, ip, #0, 0
     6c0:	02b80000 	adcseq	r0, r8, #0, 0
     6c4:	00010000 	andeq	r0, r1, r0
     6c8:	0002b852 	andeq	fp, r2, r2, asr r8
     6cc:	00074000 	andeq	r4, r7, r0
     6d0:	91000300 	mrsls	r0, LR_irq
     6d4:	00007dc8 	andeq	r7, r0, r8, asr #27
	...
     6e4:	01000000 	mrseq	r0, (UNDEF: 0)
     6e8:	00000001 	andeq	r0, r0, r1
	...
     6f4:	00000474 	andeq	r0, r0, r4, ror r4
     6f8:	0000048c 	andeq	r0, r0, ip, lsl #9
     6fc:	8c500001 	mrrchi	0, 0, r0, r0, cr1	; <UNPREDICTABLE>
     700:	b8000004 	stmdalt	r0, {r2}
     704:	01000004 	tsteq	r0, r4
     708:	04fc5700 	ldrbteq	r5, [ip], #1792	; 0x700
     70c:	05140000 	ldreq	r0, [r4, #-0]
     710:	00010000 	andeq	r0, r1, r0
     714:	00051450 	andeq	r1, r5, r0, asr r4
     718:	00054000 	andeq	r4, r5, r0
     71c:	57000100 	strpl	r0, [r0, -r0, lsl #2]
     720:	000005a4 	andeq	r0, r0, r4, lsr #11
     724:	000005a4 	andeq	r0, r0, r4, lsr #11
     728:	a4500001 	ldrbge	r0, [r0], #-1
     72c:	ac000005 	stcge	0, cr0, [r0], {5}
     730:	01000005 	tsteq	r0, r5
     734:	05dc5700 	ldrbeq	r5, [ip, #1792]	; 0x700
     738:	05e00000 	strbeq	r0, [r0, #0]!
     73c:	00010000 	andeq	r0, r1, r0
     740:	00061050 	andeq	r1, r6, r0, asr r0
     744:	00061400 	andeq	r1, r6, r0, lsl #8
     748:	50000100 	andpl	r0, r0, r0, lsl #2
     74c:	00000644 	andeq	r0, r0, r4, asr #12
     750:	00000648 	andeq	r0, r0, r8, asr #12
     754:	8c500001 	mrrchi	0, 0, r0, r0, cr1	; <UNPREDICTABLE>
     758:	90000006 	andls	r0, r0, r6
     75c:	01000006 	tsteq	r0, r6
     760:	06d05000 	ldrbeq	r5, [r0], r0
     764:	06f00000 	ldrbteq	r0, [r0], r0
     768:	00010000 	andeq	r0, r1, r0
     76c:	00000057 	andeq	r0, r0, r7, asr r0
     770:	00000000 	andeq	r0, r0, r0
     774:	00000200 	andeq	r0, r0, r0, lsl #4
     778:	f4000000 	vst4.8	{d0-d3}, [r0], r0
     77c:	f8000002 			; <UNDEFINED> instruction: 0xf8000002
     780:	02000002 	andeq	r0, r0, #2, 0
     784:	f89f3000 			; <UNDEFINED> instruction: 0xf89f3000
     788:	14000002 	strne	r0, [r0], #-2
     78c:	01000003 	tsteq	r0, r3
     790:	031c5500 	tsteq	ip, #0, 10
     794:	06f00000 	ldrbteq	r0, [r0], r0
     798:	00010000 	andeq	r0, r1, r0
     79c:	00000055 	andeq	r0, r0, r5, asr r0
     7a0:	00000000 	andeq	r0, r0, r0
     7a4:	00000100 	andeq	r0, r0, r0, lsl #2
     7a8:	00000000 	andeq	r0, r0, r0
     7ac:	b8000000 	stmdalt	r0, {}	; <UNPREDICTABLE>
     7b0:	54000003 	strpl	r0, [r0], #-3
     7b4:	01000004 	tsteq	r0, r4
     7b8:	04545600 	ldrbeq	r5, [r4], #-1536	; 0xfffffa00
     7bc:	04b80000 	ldrteq	r0, [r8], #0
     7c0:	00030000 	andeq	r0, r3, r0
     7c4:	b89f7e7b 	ldmlt	pc, {r0, r1, r3, r4, r5, r6, r9, sl, fp, ip, sp, lr}	; <UNPREDICTABLE>
     7c8:	dc000004 	stcle	0, cr0, [r0], {4}
     7cc:	01000004 	tsteq	r0, r4
     7d0:	04dc5600 	ldrbeq	r5, [ip], #1536	; 0x600
     7d4:	05400000 	strbeq	r0, [r0, #-0]
     7d8:	00030000 	andeq	r0, r3, r0
     7dc:	409f7e7b 	addsmi	r7, pc, fp, ror lr	; <UNPREDICTABLE>
     7e0:	5c000005 	stcpl	0, cr0, [r0], {5}
     7e4:	01000005 	tsteq	r0, r5
     7e8:	00005600 	andeq	r5, r0, r0, lsl #12
	...
     7f8:	00000070 	andeq	r0, r0, r0, ror r0
     7fc:	00000094 	muleq	r0, r4, r0
     800:	94500001 	ldrbls	r0, [r0], #-1
     804:	fc000000 	stc2	0, cr0, [r0], {-0}
     808:	03000000 	movweq	r0, #0
     80c:	9f027000 	svcls	0x00027000
     810:	000000fc 	strdeq	r0, [r0], -ip
     814:	00000224 	andeq	r0, r0, r4, lsr #4
     818:	01f30004 	mvnseq	r0, r4
     81c:	00009f50 	andeq	r9, r0, r0, asr pc
	...
     834:	00700000 	rsbseq	r0, r0, r0
     838:	00e00000 	rsceq	r0, r0, r0
     83c:	00010000 	andeq	r0, r1, r0
     840:	0000e051 	andeq	lr, r0, r1, asr r0
     844:	00015400 	andeq	r5, r1, r0, lsl #8
     848:	55000100 	strpl	r0, [r0, #-256]	; 0xffffff00
     84c:	00000154 	andeq	r0, r0, r4, asr r1
     850:	00000158 	andeq	r0, r0, r8, asr r1
     854:	58510001 	ldmdapl	r1, {r0}^
     858:	b0000001 	andlt	r0, r0, r1
     85c:	01000001 	tsteq	r0, r1
     860:	01b05500 	lslseq	r5, r0, #10
     864:	01c00000 	biceq	r0, r0, r0
     868:	00010000 	andeq	r0, r1, r0
     86c:	0001c051 	andeq	ip, r1, r1, asr r0
     870:	0001e400 	andeq	lr, r1, r0, lsl #8
     874:	55000100 	strpl	r0, [r0, #-256]	; 0xffffff00
     878:	000001e4 	andeq	r0, r0, r4, ror #3
     87c:	000001f8 	strdeq	r0, [r0], -r8
     880:	f8510001 			; <UNDEFINED> instruction: 0xf8510001
     884:	24000001 	strcs	r0, [r0], #-1
     888:	01000002 	tsteq	r0, r2
     88c:	00005500 	andeq	r5, r0, r0, lsl #10
	...
     898:	00700000 	rsbseq	r0, r0, r0
     89c:	00840000 	addeq	r0, r4, r0
     8a0:	00010000 	andeq	r0, r1, r0
     8a4:	00008452 	andeq	r8, r0, r2, asr r4
     8a8:	00022400 	andeq	r2, r2, r0, lsl #8
     8ac:	54000100 	strpl	r0, [r0], #-256	; 0xffffff00
	...
     8bc:	00000100 	andeq	r0, r0, r0, lsl #2
     8c0:	00000000 	andeq	r0, r0, r0
     8c4:	00000070 	andeq	r0, r0, r0, ror r0
     8c8:	000000f4 	strdeq	r0, [r0], -r4
     8cc:	4c530001 	mrrcmi	0, 0, r0, r3, cr1
     8d0:	80000001 	andhi	r0, r0, r1
     8d4:	01000001 	tsteq	r0, r1
     8d8:	01805300 	orreq	r5, r0, r0, lsl #6
     8dc:	018c0000 	orreq	r0, ip, r0
     8e0:	00040000 	andeq	r0, r4, r0
     8e4:	9f5301f3 	svcls	0x005301f3
     8e8:	000001b0 			; <UNDEFINED> instruction: 0x000001b0
     8ec:	000001e8 	andeq	r0, r0, r8, ror #3
     8f0:	e8530001 	ldmda	r3, {r0}^
     8f4:	ff000001 			; <UNDEFINED> instruction: 0xff000001
     8f8:	01000001 	tsteq	r0, r1
     8fc:	01ff5c00 	mvnseq	r5, r0, lsl #24
     900:	02240000 	eoreq	r0, r4, #0, 0
     904:	00040000 	andeq	r0, r4, r0
     908:	9f5301f3 	svcls	0x005301f3
	...
     918:	00700000 	rsbseq	r0, r0, r0
     91c:	008c0000 	addeq	r0, ip, r0
     920:	00020000 	andeq	r0, r2, r0
     924:	008c0091 	umulleq	r0, ip, r1, r0
     928:	01930000 	orrseq	r0, r3, r0
     92c:	00010000 	andeq	r0, r1, r0
     930:	0001b052 	andeq	fp, r1, r2, asr r0
     934:	0001f400 	andeq	pc, r1, r0, lsl #8
     938:	52000100 	andpl	r0, r0, #0
	...
     944:	01000001 	tsteq	r0, r1
     948:	00000001 	andeq	r0, r0, r1
     94c:	00000000 	andeq	r0, r0, r0
     950:	01010100 	mrseq	r0, (UNDEF: 17)
     954:	01000001 	tsteq	r0, r1
     958:	00000001 	andeq	r0, r0, r1
	...
     964:	0000008c 	andeq	r0, r0, ip, lsl #1
     968:	000000fc 	strdeq	r0, [r0], -ip
     96c:	a0910004 	addsge	r0, r1, r4
     970:	00fc9f7f 	rscseq	r9, ip, pc, ror pc
     974:	013c0000 	teqeq	ip, r0
     978:	00010000 	andeq	r0, r1, r0
     97c:	00013c50 	andeq	r3, r1, r0, asr ip
     980:	00014800 	andeq	r4, r1, r0, lsl #16
     984:	71000300 	mrsvc	r0, LR_irq
     988:	01489f02 	cmpeq	r8, r2, lsl #30
     98c:	014c0000 	mrseq	r0, (UNDEF: 76)
     990:	00010000 	andeq	r0, r1, r0
     994:	00014c50 	andeq	r4, r1, r0, asr ip
     998:	00015800 	andeq	r5, r1, r0, lsl #16
     99c:	91000400 	tstls	r0, r0, lsl #8
     9a0:	589f7fa0 	ldmpl	pc, {r5, r7, r8, r9, sl, fp, ip, sp, lr}	; <UNPREDICTABLE>
     9a4:	6c000001 	stcvs	0, cr0, [r0], {1}
     9a8:	01000001 	tsteq	r0, r1
     9ac:	016c5100 	cmneq	ip, r0, lsl #2
     9b0:	01780000 	cmneq	r8, r0
     9b4:	00030000 	andeq	r0, r3, r0
     9b8:	789f7f71 	ldmvc	pc, {r0, r4, r5, r6, r8, r9, sl, fp, ip, sp, lr}	; <UNPREDICTABLE>
     9bc:	84000001 	strhi	r0, [r0], #-1
     9c0:	03000001 	movweq	r0, #1
     9c4:	9f017100 	svcls	0x00017100
     9c8:	00000184 	andeq	r0, r0, r4, lsl #3
     9cc:	00000193 	muleq	r0, r3, r1
     9d0:	b0500001 	subslt	r0, r0, r1
     9d4:	b0000001 	andlt	r0, r0, r1
     9d8:	04000001 	streq	r0, [r0], #-1
     9dc:	7fa09100 	svcvc	0x00a09100
     9e0:	0001b09f 	muleq	r1, pc, r0	; <UNPREDICTABLE>
     9e4:	0001b800 	andeq	fp, r1, r0, lsl #16
     9e8:	91000400 	tstls	r0, r0, lsl #8
     9ec:	b89f7fa1 	ldmlt	pc, {r0, r5, r7, r8, r9, sl, fp, ip, sp, lr}	; <UNPREDICTABLE>
     9f0:	bc000001 	stclt	0, cr0, [r0], {1}
     9f4:	01000001 	tsteq	r0, r1
     9f8:	01bc5000 			; <UNDEFINED> instruction: 0x01bc5000
     9fc:	01c00000 	biceq	r0, r0, r0
     a00:	00040000 	andeq	r0, r4, r0
     a04:	9f7fa091 	svcls	0x007fa091
     a08:	000001c0 	andeq	r0, r0, r0, asr #3
     a0c:	000001d4 	ldrdeq	r0, [r0], -r4
     a10:	d4500001 	ldrble	r0, [r0], #-1
     a14:	e4000001 	str	r0, [r0], #-1
     a18:	03000001 	movweq	r0, #1
     a1c:	9f7f7000 	svcls	0x007f7000
     a20:	000001e4 	andeq	r0, r0, r4, ror #3
     a24:	00000224 	andeq	r0, r0, r4, lsr #4
     a28:	a0910004 	addsge	r0, r1, r4
     a2c:	00009f7f 	andeq	r9, r0, pc, ror pc
	...
     a38:	00010100 	andeq	r0, r1, r0, lsl #2
	...
     a48:	00900000 	addseq	r0, r0, r0
     a4c:	00dc0000 	sbcseq	r0, ip, r0
     a50:	00010000 	andeq	r0, r1, r0
     a54:	0000dc5c 	andeq	sp, r0, ip, asr ip
     a58:	0000f400 	andeq	pc, r0, r0, lsl #8
     a5c:	53000100 	movwpl	r0, #256	; 0x100
     a60:	000000f4 	strdeq	r0, [r0], -r4
     a64:	0000014c 	andeq	r0, r0, ip, asr #2
     a68:	4c5c0001 	mrrcmi	0, 0, r0, ip, cr1
     a6c:	58000001 	stmdapl	r0, {r0}
     a70:	01000001 	tsteq	r0, r1
     a74:	01585300 	cmpeq	r8, r0, lsl #6
     a78:	01740000 	cmneq	r4, r0
     a7c:	00010000 	andeq	r0, r1, r0
     a80:	0001b05c 	andeq	fp, r1, ip, asr r0
     a84:	0001c000 	andeq	ip, r1, r0
     a88:	53000100 	movwpl	r0, #256	; 0x100
     a8c:	000001c0 	andeq	r0, r0, r0, asr #3
     a90:	000001dc 	ldrdeq	r0, [r0], -ip
     a94:	e45c0001 	ldrb	r0, [ip], #-1
     a98:	e8000001 	stmda	r0, {r0}
     a9c:	01000001 	tsteq	r0, r1
     aa0:	01e85300 	mvneq	r5, r0, lsl #6
     aa4:	01ff0000 	mvnseq	r0, r0
     aa8:	00010000 	andeq	r0, r1, r0
     aac:	0001ff5c 	andeq	pc, r1, ip, asr pc	; <UNPREDICTABLE>
     ab0:	00022400 	andeq	r2, r2, r0, lsl #8
     ab4:	f3000400 	vshl.u8	d0, d0, d0
     ab8:	009f5301 	addseq	r5, pc, r1, lsl #6
     abc:	00000000 	andeq	r0, r0, r0
     ac0:	01000000 	mrseq	r0, (UNDEF: 0)
     ac4:	00000101 	andeq	r0, r0, r1, lsl #2
     ac8:	dc000000 	stcle	0, cr0, [r0], {-0}
     acc:	f0000000 			; <UNDEFINED> instruction: 0xf0000000
     ad0:	02000000 	andeq	r0, r0, #0, 0
     ad4:	f09f3000 			; <UNDEFINED> instruction: 0xf09f3000
     ad8:	f8000000 			; <UNDEFINED> instruction: 0xf8000000
     adc:	02000000 	andeq	r0, r0, #0, 0
     ae0:	fc9f3100 	ldc2	1, cr3, [pc], {0}
     ae4:	4c000000 	stcmi	0, cr0, [r0], {-0}
     ae8:	01000001 	tsteq	r0, r1
     aec:	014c5600 	cmpeq	ip, r0, lsl #12
     af0:	01540000 	cmpeq	r4, r0
     af4:	00020000 	andeq	r0, r2, r0
     af8:	00009f30 	andeq	r9, r0, r0, lsr pc
	...
     b04:	00010100 	andeq	r0, r1, r0, lsl #2
     b08:	00010100 	andeq	r0, r1, r0, lsl #2
     b0c:	00000038 	andeq	r0, r0, r8, lsr r0
     b10:	00000054 	andeq	r0, r0, r4, asr r0
     b14:	54500001 	ldrbpl	r0, [r0], #-1
     b18:	58000000 	stmdapl	r0, {}	; <UNPREDICTABLE>
     b1c:	01000000 	mrseq	r0, (UNDEF: 0)
     b20:	00585200 	subseq	r5, r8, r0, lsl #4
     b24:	00600000 	rsbeq	r0, r0, r0
     b28:	00030000 	andeq	r0, r3, r0
     b2c:	609f0172 	addsvs	r0, pc, r2, ror r1	; <UNPREDICTABLE>
     b30:	64000000 	strvs	r0, [r0], #-0
     b34:	01000000 	mrseq	r0, (UNDEF: 0)
     b38:	00645200 	rsbeq	r5, r4, r0, lsl #4
     b3c:	00700000 	rsbseq	r0, r0, r0
     b40:	00030000 	andeq	r0, r3, r0
     b44:	009f0172 	addseq	r0, pc, r2, ror r1	; <UNPREDICTABLE>
	...
     b50:	38000000 	stmdacc	r0, {}	; <UNPREDICTABLE>
     b54:	50000000 	andpl	r0, r0, r0
     b58:	01000000 	mrseq	r0, (UNDEF: 0)
     b5c:	00505100 	subseq	r5, r0, r0, lsl #2
     b60:	00700000 	rsbseq	r0, r0, r0
     b64:	00040000 	andeq	r0, r4, r0
     b68:	9f5101f3 	svcls	0x005101f3
	...
     b78:	00010100 	andeq	r0, r1, r0, lsl #2
     b7c:	00000038 	andeq	r0, r0, r8, lsr r0
     b80:	00000050 	andeq	r0, r0, r0, asr r0
     b84:	50520001 	subspl	r0, r2, r1
     b88:	5c000000 	stcpl	0, cr0, [r0], {-0}
     b8c:	01000000 	mrseq	r0, (UNDEF: 0)
     b90:	005c5100 	subseq	r5, ip, r0, lsl #2
     b94:	00600000 	rsbeq	r0, r0, r0
     b98:	00030000 	andeq	r0, r3, r0
     b9c:	609f0171 	addsvs	r0, pc, r1, ror r1	; <UNPREDICTABLE>
     ba0:	70000000 	andvc	r0, r0, r0
     ba4:	01000000 	mrseq	r0, (UNDEF: 0)
     ba8:	00005100 	andeq	r5, r0, r0, lsl #2
	...
     bb4:	00380000 	eorseq	r0, r8, r0
     bb8:	004c0000 	subeq	r0, ip, r0
     bbc:	00010000 	andeq	r0, r1, r0
     bc0:	00004c53 	andeq	r4, r0, r3, asr ip
     bc4:	00006800 	andeq	r6, r0, r0, lsl #16
     bc8:	53000100 	movwpl	r0, #256	; 0x100
	...
     bdc:	00000040 	andeq	r0, r0, r0, asr #32
     be0:	00000048 	andeq	r0, r0, r8, asr #32
     be4:	485c0001 	ldmdami	ip, {r0}^
     be8:	4c000000 	stcmi	0, cr0, [r0], {-0}
     bec:	08000000 	stmdaeq	r0, {}	; <UNPREDICTABLE>
     bf0:	73007200 	movwvc	r7, #512	; 0x200
     bf4:	01231c00 			; <UNDEFINED> instruction: 0x01231c00
     bf8:	00004c9f 	muleq	r0, pc, ip	; <UNPREDICTABLE>
     bfc:	00005400 	andeq	r5, r0, r0, lsl #8
     c00:	72000900 	andvc	r0, r0, #0, 18
     c04:	5301f300 	movwpl	pc, #4864	; 0x1300	; <UNPREDICTABLE>
     c08:	9f01231c 	svcls	0x0001231c
     c0c:	00000054 	andeq	r0, r0, r4, asr r0
     c10:	00000070 	andeq	r0, r0, r0, ror r0
     c14:	01f3000a 	mvnseq	r0, sl
     c18:	5301f352 	movwpl	pc, #4946	; 0x1352	; <UNPREDICTABLE>
     c1c:	9f01231c 	svcls	0x0001231c
	...
     c28:	004c0001 	subeq	r0, ip, r1
     c2c:	00700000 	rsbseq	r0, r0, r0
     c30:	00010000 	andeq	r0, r1, r0
     c34:	00000050 	andeq	r0, r0, r0, asr r0
     c38:	00000000 	andeq	r0, r0, r0
     c3c:	01010000 	mrseq	r0, (UNDEF: 1)
     c40:	14000000 	strne	r0, [r0], #-0
     c44:	1c000000 	stcne	0, cr0, [r0], {-0}
     c48:	01000000 	mrseq	r0, (UNDEF: 0)
     c4c:	001c5000 	andseq	r5, ip, r0
     c50:	00240000 	eoreq	r0, r4, r0
     c54:	00030000 	andeq	r0, r3, r0
     c58:	249f0170 	ldrcs	r0, [pc], #368	; c60 <__code_start__-0x73a0>
     c5c:	38000000 	stmdacc	r0, {}	; <UNPREDICTABLE>
     c60:	01000000 	mrseq	r0, (UNDEF: 0)
     c64:	00005000 	andeq	r5, r0, r0
	...
     c70:	00140000 	andseq	r0, r4, r0
     c74:	00180000 	andseq	r0, r8, r0
     c78:	00010000 	andeq	r0, r1, r0
     c7c:	00001851 	andeq	r1, r0, r1, asr r8
     c80:	00003800 	andeq	r3, r0, r0, lsl #16
     c84:	f3000400 	vshl.u8	d0, d0, d0
     c88:	009f5101 	addseq	r5, pc, r1, lsl #2
	...
     c94:	00001800 	andeq	r1, r0, r0, lsl #16
     c98:	00003800 	andeq	r3, r0, r0, lsl #16
     c9c:	51000100 	mrspl	r0, (UNDEF: 16)
	...
     cb0:	00040000 	andeq	r0, r4, r0
     cb4:	00010000 	andeq	r0, r1, r0
     cb8:	00000450 	andeq	r0, r0, r0, asr r4
     cbc:	00000c00 	andeq	r0, r0, r0, lsl #24
     cc0:	70000300 	andvc	r0, r0, r0, lsl #6
     cc4:	000c9f30 	andeq	r9, ip, r0, lsr pc
     cc8:	00140000 	andseq	r0, r4, r0
     ccc:	00040000 	andeq	r0, r4, r0
     cd0:	9f5001f3 	svcls	0x005001f3
	...
     ce0:	00000224 	andeq	r0, r0, r4, lsr #4
     ce4:	00000268 	andeq	r0, r0, r8, ror #4
     ce8:	68500001 	ldmdavs	r0, {r0}^
     cec:	88000002 	stmdahi	r0, {r1}
     cf0:	04000002 	streq	r0, [r0], #-2
     cf4:	5001f300 	andpl	pc, r1, r0, lsl #6
     cf8:	0000009f 	muleq	r0, pc, r0	; <UNPREDICTABLE>
	...
     d04:	00022400 	andeq	r2, r2, r0, lsl #8
     d08:	00026400 	andeq	r6, r2, r0, lsl #8
     d0c:	51000100 	mrspl	r0, (UNDEF: 16)
     d10:	00000264 	andeq	r0, r0, r4, ror #4
     d14:	00000288 	andeq	r0, r0, r8, lsl #5
     d18:	01f30004 	mvnseq	r0, r4
     d1c:	00009f51 	andeq	r9, r0, r1, asr pc
     d20:	00000000 	andeq	r0, r0, r0
     d24:	01000000 	mrseq	r0, (UNDEF: 0)
     d28:	00000001 	andeq	r0, r0, r1
     d2c:	00008a1c 	andeq	r8, r0, ip, lsl sl
     d30:	00008a1c 	andeq	r8, r0, ip, lsl sl
     d34:	1c530001 	mrrcne	0, 0, r0, r3, cr1
     d38:	2000008a 	andcs	r0, r0, sl, lsl #1
     d3c:	0700008a 	streq	r0, [r0, -sl, lsl #1]
     d40:	0b007300 	bleq	1d948 <__bss_end__+0x14378>
     d44:	9f1aefff 	svcls	0x001aefff
     d48:	00008a20 	andeq	r8, r0, r0, lsr #20
     d4c:	00008a28 	andeq	r8, r0, r8, lsr #20
     d50:	00530001 	subseq	r0, r3, r1
	...
     d5c:	00000101 	andeq	r0, r0, r1, lsl #2
     d60:	008a0c00 	addeq	r0, sl, r0, lsl #24
     d64:	008a0c00 	addeq	r0, sl, r0, lsl #24
     d68:	53000100 	movwpl	r0, #256	; 0x100
     d6c:	00008a0c 	andeq	r8, r0, ip, lsl #20
     d70:	00008a10 	andeq	r8, r0, r0, lsl sl
     d74:	00730007 	rsbseq	r0, r3, r7
     d78:	2110000a 	tstcs	r0, sl
     d7c:	008a109f 	umulleq	r1, sl, pc, r0	; <UNPREDICTABLE>
     d80:	008a1800 	addeq	r1, sl, r0, lsl #16
     d84:	53000100 	movwpl	r0, #256	; 0x100
	...
     d90:	00010100 	andeq	r0, r1, r0, lsl #2
     d94:	000c0000 	andeq	r0, ip, r0
     d98:	00140000 	andseq	r0, r4, r0
     d9c:	00010000 	andeq	r0, r1, r0
     da0:	00001453 	andeq	r1, r0, r3, asr r4
     da4:	00001c00 	andeq	r1, r0, r0, lsl #24
     da8:	73000300 	movwvc	r0, #768	; 0x300
     dac:	001c9f04 	andseq	r9, ip, r4, lsl #30
     db0:	00230000 	eoreq	r0, r3, r0
     db4:	00010000 	andeq	r0, r1, r0
     db8:	00000053 	andeq	r0, r0, r3, asr r0
     dbc:	00000000 	andeq	r0, r0, r0
     dc0:	e0000100 	and	r0, r0, r0, lsl #2
     dc4:	fc00008a 	stc2	0, cr0, [r0], {138}	; 0x8a
     dc8:	0600008a 	streq	r0, [r0], -sl, lsl #1
     dcc:	001c0c00 	andseq	r0, ip, r0, lsl #24
     dd0:	009f2010 	addseq	r2, pc, r0, lsl r0	; <UNPREDICTABLE>
     dd4:	00000000 	andeq	r0, r0, r0
     dd8:	02000000 	andeq	r0, r0, #0, 0
     ddc:	008ae000 	addeq	lr, sl, r0
     de0:	008afc00 	addeq	pc, sl, r0, lsl #24
     de4:	0c000600 	stceq	6, cr0, [r0], {-0}
     de8:	20100024 	andscs	r0, r0, r4, lsr #32
     dec:	0000009f 	muleq	r0, pc, r0	; <UNPREDICTABLE>
     df0:	00000000 	andeq	r0, r0, r0
     df4:	e0000300 	and	r0, r0, r0, lsl #6
     df8:	fc00008a 	stc2	0, cr0, [r0], {138}	; 0x8a
     dfc:	0500008a 	streq	r0, [r0, #-138]	; 0xffffff76
     e00:	47b40800 	ldrmi	r0, [r4, r0, lsl #16]!
     e04:	00009f24 	andeq	r9, r0, r4, lsr #30
     e08:	00000000 	andeq	r0, r0, r0
     e0c:	00040000 	andeq	r0, r4, r0
     e10:	00008ae0 	andeq	r8, r0, r0, ror #21
     e14:	00008afc 	strdeq	r8, [r0], -ip
     e18:	20080003 	andcs	r0, r8, r3
     e1c:	0000009f 	muleq	r0, pc, r0	; <UNPREDICTABLE>
     e20:	00000000 	andeq	r0, r0, r0
     e24:	00000200 	andeq	r0, r0, r0, lsl #4
     e28:	ac000000 	stcge	0, cr0, [r0], {-0}
     e2c:	b000008a 	andlt	r0, r0, sl, lsl #1
     e30:	0200008a 	andeq	r0, r0, #138, 0	; 0x8a
     e34:	b09f3000 	addslt	r3, pc, r0
     e38:	b400008a 	strlt	r0, [r0], #-138	; 0xffffff76
     e3c:	0100008a 	smlabbeq	r0, sl, r0, r0
     e40:	8ab85300 	bhi	fee15a48 <__bss_end__+0xfee0c478>
     e44:	8ac00000 	bhi	ff000e4c <__bss_end__+0xfeff787c>
     e48:	00010000 	andeq	r0, r1, r0
     e4c:	00000053 	andeq	r0, r0, r3, asr r0
     e50:	00000000 	andeq	r0, r0, r0
     e54:	00000200 	andeq	r0, r0, r0, lsl #4
     e58:	008a9400 	addeq	r9, sl, r0, lsl #8
     e5c:	008a9800 	addeq	r9, sl, r0, lsl #16
     e60:	30000200 	andcc	r0, r0, r0, lsl #4
     e64:	008a989f 	umulleq	r9, sl, pc, r8	; <UNPREDICTABLE>
     e68:	008a9c00 	addeq	r9, sl, r0, lsl #24
     e6c:	50000100 	andpl	r0, r0, r0, lsl #2
	...
     e7c:	0000006c 	andeq	r0, r0, ip, rrx
     e80:	00000078 	andeq	r0, r0, r8, ror r0
     e84:	78500001 	ldmdavc	r0, {r0}^
     e88:	84000000 	strhi	r0, [r0], #-0
     e8c:	04000000 	streq	r0, [r0], #-0
     e90:	5001f300 	andpl	pc, r1, r0, lsl #6
     e94:	0000009f 	muleq	r0, pc, r0	; <UNPREDICTABLE>
	...
     ea0:	00005400 	andeq	r5, r0, r0, lsl #8
     ea4:	00006000 	andeq	r6, r0, r0
     ea8:	50000100 	andpl	r0, r0, r0, lsl #2
     eac:	00000060 	andeq	r0, r0, r0, rrx
     eb0:	0000006c 	andeq	r0, r0, ip, rrx
     eb4:	01f30004 	mvnseq	r0, r4
     eb8:	00009f50 	andeq	r9, r0, r0, asr pc
	...
     ec4:	00300000 	eorseq	r0, r0, r0
     ec8:	003b0000 	eorseq	r0, fp, r0
     ecc:	00010000 	andeq	r0, r1, r0
     ed0:	00003b50 	andeq	r3, r0, r0, asr fp
     ed4:	00005400 	andeq	r5, r0, r0, lsl #8
     ed8:	55000100 	strpl	r0, [r0, #-256]	; 0xffffff00
	...
     ee4:	00400000 	subeq	r0, r0, r0
     ee8:	00540000 	subseq	r0, r4, r0
     eec:	00010000 	andeq	r0, r1, r0
     ef0:	00000054 	andeq	r0, r0, r4, asr r0
     ef4:	00000000 	andeq	r0, r0, r0
     ef8:	44000000 	strmi	r0, [r0], #-0
     efc:	48000000 	stmdami	r0, {}	; <UNPREDICTABLE>
     f00:	01000000 	mrseq	r0, (UNDEF: 0)
     f04:	00005000 	andeq	r5, r0, r0
	...
     f10:	00240000 	eoreq	r0, r4, r0
     f14:	00270000 	eoreq	r0, r7, r0
     f18:	00010000 	andeq	r0, r1, r0
     f1c:	00002750 	andeq	r2, r0, r0, asr r7
     f20:	00003000 	andeq	r3, r0, r0
     f24:	54000100 	strpl	r0, [r0], #-256	; 0xffffff00
	...
     f38:	000000e8 	andeq	r0, r0, r8, ror #1
     f3c:	00000100 	andeq	r0, r0, r0, lsl #2
     f40:	00500001 	subseq	r0, r0, r1
     f44:	10000001 	andne	r0, r0, r1
     f48:	04000001 	streq	r0, [r0], #-1
     f4c:	5001f300 	andpl	pc, r1, r0, lsl #6
     f50:	0001109f 	muleq	r1, pc, r0	; <UNPREDICTABLE>
     f54:	00011400 	andeq	r1, r1, r0, lsl #8
     f58:	50000100 	andpl	r0, r0, r0, lsl #2
     f5c:	00000114 	andeq	r0, r0, r4, lsl r1
     f60:	0000011c 	andeq	r0, r0, ip, lsl r1
     f64:	01f30004 	mvnseq	r0, r4
     f68:	00009f50 	andeq	r9, r0, r0, asr pc
     f6c:	00000000 	andeq	r0, r0, r0
     f70:	00010000 	andeq	r0, r1, r0
     f74:	00000000 	andeq	r0, r0, r0
     f78:	000000f4 	strdeq	r0, [r0], -r4
     f7c:	00000100 	andeq	r0, r0, r0, lsl #2
     f80:	0070000b 	rsbseq	r0, r0, fp
     f84:	b4232535 	strtlt	r2, [r3], #-1333	; 0xfffffacb
     f88:	02818080 	addeq	r8, r1, #128, 0	; 0x80
     f8c:	0001009f 	muleq	r1, pc, r0	; <UNPREDICTABLE>
     f90:	00010300 	andeq	r0, r1, r0, lsl #6
     f94:	50000100 	andpl	r0, r0, r0, lsl #2
     f98:	00000103 	andeq	r0, r0, r3, lsl #2
     f9c:	00000110 	andeq	r0, r0, r0, lsl r1
     fa0:	01f3000c 	mvnseq	r0, ip
     fa4:	23253550 			; <UNDEFINED> instruction: 0x23253550
     fa8:	818080b4 	strhhi	r8, [r0, r4]
     fac:	00009f02 	andeq	r9, r0, r2, lsl #30
	...
     fb8:	000000f8 	strdeq	r0, [r0], -r8
     fbc:	00000110 	andeq	r0, r0, r0, lsl r1
     fc0:	00540001 	subseq	r0, r4, r1
	...
     fd0:	cc000000 	stcgt	0, cr0, [r0], {-0}
     fd4:	db000000 	blle	fdc <__code_start__-0x7024>
     fd8:	01000000 	mrseq	r0, (UNDEF: 0)
     fdc:	00db5000 	sbcseq	r5, fp, r0
     fe0:	00e00000 	rsceq	r0, r0, r0
     fe4:	00040000 	andeq	r0, r4, r0
     fe8:	9f5001f3 	svcls	0x005001f3
     fec:	000000e0 	andeq	r0, r0, r0, ror #1
     ff0:	000000e3 	andeq	r0, r0, r3, ror #1
     ff4:	e3500001 	cmp	r0, #1, 0
     ff8:	e8000000 	stmda	r0, {}	; <UNPREDICTABLE>
     ffc:	04000000 	streq	r0, [r0], #-0
    1000:	5001f300 	andpl	pc, r1, r0, lsl #6
    1004:	0000009f 	muleq	r0, pc, r0	; <UNPREDICTABLE>
	...
    1014:	0000cc00 	andeq	ip, r0, r0, lsl #24
    1018:	0000db00 	andeq	sp, r0, r0, lsl #22
    101c:	51000100 	mrspl	r0, (UNDEF: 16)
    1020:	000000db 	ldrdeq	r0, [r0], -fp
    1024:	000000e0 	andeq	r0, r0, r0, ror #1
    1028:	01f30004 	mvnseq	r0, r4
    102c:	00e09f51 	rsceq	r9, r0, r1, asr pc
    1030:	00e30000 	rsceq	r0, r3, r0
    1034:	00010000 	andeq	r0, r1, r0
    1038:	0000e351 	andeq	lr, r0, r1, asr r3
    103c:	0000e800 	andeq	lr, r0, r0, lsl #16
    1040:	f3000400 	vshl.u8	d0, d0, d0
    1044:	009f5101 	addseq	r5, pc, r1, lsl #2
	...
    1050:	bc000000 	stclt	0, cr0, [r0], {-0}
    1054:	c7000000 	strgt	r0, [r0, -r0]
    1058:	01000000 	mrseq	r0, (UNDEF: 0)
    105c:	00c75000 	sbceq	r5, r7, r0
    1060:	00cc0000 	sbceq	r0, ip, r0
    1064:	00040000 	andeq	r0, r4, r0
    1068:	9f5001f3 	svcls	0x005001f3
	...
    1078:	00000098 	muleq	r0, r8, r0
    107c:	000000b0 	strheq	r0, [r0], -r0	; <UNPREDICTABLE>
    1080:	b0500001 	subslt	r0, r0, r1
    1084:	bc000000 	stclt	0, cr0, [r0], {-0}
    1088:	04000000 	streq	r0, [r0], #-0
    108c:	5001f300 	andpl	pc, r1, r0, lsl #6
    1090:	0000009f 	muleq	r0, pc, r0	; <UNPREDICTABLE>
	...
    109c:	00007400 	andeq	r7, r0, r0, lsl #8
    10a0:	00008c00 	andeq	r8, r0, r0, lsl #24
    10a4:	50000100 	andpl	r0, r0, r0, lsl #2
    10a8:	0000008c 	andeq	r0, r0, ip, lsl #1
    10ac:	00000098 	muleq	r0, r8, r0
    10b0:	01f30004 	mvnseq	r0, r4
    10b4:	00009f50 	andeq	r9, r0, r0, asr pc
	...
    10c0:	00640000 	rsbeq	r0, r4, r0
    10c4:	006f0000 	rsbeq	r0, pc, r0
    10c8:	00010000 	andeq	r0, r1, r0
    10cc:	00006f50 	andeq	r6, r0, r0, asr pc
    10d0:	00007400 	andeq	r7, r0, r0, lsl #8
    10d4:	f3000400 	vshl.u8	d0, d0, d0
    10d8:	009f5001 	addseq	r5, pc, r1
	...
    10e8:	38000000 	stmdacc	r0, {}	; <UNPREDICTABLE>
    10ec:	01000000 	mrseq	r0, (UNDEF: 0)
    10f0:	00385000 	eorseq	r5, r8, r0
    10f4:	00640000 	rsbeq	r0, r4, r0
    10f8:	00040000 	andeq	r0, r4, r0
    10fc:	9f5001f3 	svcls	0x005001f3
	...
    1110:	00000047 	andeq	r0, r0, r7, asr #32
    1114:	47510001 	ldrbmi	r0, [r1, -r1]
    1118:	64000000 	strvs	r0, [r0], #-0
    111c:	04000000 	streq	r0, [r0], #-0
    1120:	5101f300 	mrspl	pc, SP_irq	; <UNPREDICTABLE>
    1124:	0000009f 	muleq	r0, pc, r0	; <UNPREDICTABLE>
    1128:	00000000 	andeq	r0, r0, r0
    112c:	34000000 	strcc	r0, [r0], #-0
    1130:	64000000 	strvs	r0, [r0], #-0
    1134:	01000000 	mrseq	r0, (UNDEF: 0)
    1138:	00005400 	andeq	r5, r0, r0, lsl #8
	...
    1144:	00000040 	andeq	r0, r0, r0, asr #32
    1148:	00000064 	andeq	r0, r0, r4, rrx
    114c:	00560001 	subseq	r0, r6, r1
	...
    1158:	01010000 	mrseq	r0, (UNDEF: 1)
    115c:	48000000 	stmdami	r0, {}	; <UNPREDICTABLE>
    1160:	50000000 	andpl	r0, r0, r0
    1164:	01000000 	mrseq	r0, (UNDEF: 0)
    1168:	00505000 	subseq	r5, r0, r0
    116c:	00500000 	subseq	r0, r0, r0
    1170:	00010000 	andeq	r0, r1, r0
    1174:	00005051 	andeq	r5, r0, r1, asr r0
    1178:	00005400 	andeq	r5, r0, r0, lsl #8
    117c:	75000900 	strvc	r0, [r0, #-2304]	; 0xfffff700
    1180:	24007400 	strcs	r7, [r0], #-1024	; 0xfffffc00
    1184:	9f210071 	svcls	0x00210071
    1188:	00000054 	andeq	r0, r0, r4, asr r0
    118c:	0000005b 	andeq	r0, r0, fp, asr r0
    1190:	00510001 	subseq	r0, r1, r1
	...
    119c:	58000000 	stmdapl	r0, {}	; <UNPREDICTABLE>
    11a0:	63000001 	movwvs	r0, #1
    11a4:	01000001 	tsteq	r0, r1
    11a8:	01635000 	cmneq	r3, r0
    11ac:	01880000 	orreq	r0, r8, r0
    11b0:	00010000 	andeq	r0, r1, r0
    11b4:	00000054 	andeq	r0, r0, r4, asr r0
    11b8:	00000000 	andeq	r0, r0, r0
    11bc:	48000000 	stmdami	r0, {}	; <UNPREDICTABLE>
    11c0:	58000001 	stmdapl	r0, {r0}
    11c4:	01000001 	tsteq	r0, r1
    11c8:	00005400 	andeq	r5, r0, r0, lsl #8
	...
    11d8:	000f0000 	andeq	r0, pc, r0
    11dc:	00010000 	andeq	r0, r1, r0
    11e0:	00000f50 	andeq	r0, r0, r0, asr pc
    11e4:	00002000 	andeq	r2, r0, r0
    11e8:	54000100 	strpl	r0, [r0], #-256	; 0xffffff00
	...
    11fc:	0000000f 	andeq	r0, r0, pc
    1200:	0f510001 	svceq	0x00510001
    1204:	20000000 	andcs	r0, r0, r0
    1208:	01000000 	mrseq	r0, (UNDEF: 0)
    120c:	00005500 	andeq	r5, r0, r0, lsl #10
	...
    1218:	00200000 	eoreq	r0, r0, r0
    121c:	002f0000 	eoreq	r0, pc, r0
    1220:	00010000 	andeq	r0, r1, r0
    1224:	00002f50 	andeq	r2, r0, r0, asr pc
    1228:	00004000 	andeq	r4, r0, r0
    122c:	54000100 	strpl	r0, [r0], #-256	; 0xffffff00
	...
    123c:	00000020 	andeq	r0, r0, r0, lsr #32
    1240:	0000002f 	andeq	r0, r0, pc, lsr #32
    1244:	2f510001 	svccs	0x00510001
    1248:	40000000 	andmi	r0, r0, r0
    124c:	01000000 	mrseq	r0, (UNDEF: 0)
    1250:	00005500 	andeq	r5, r0, r0, lsl #10
	...
    1260:	000b0000 	andeq	r0, fp, r0
    1264:	00010000 	andeq	r0, r1, r0
    1268:	00000b50 	andeq	r0, r0, r0, asr fp
    126c:	00001400 	andeq	r1, r0, r0, lsl #8
    1270:	54000100 	strpl	r0, [r0], #-256	; 0xffffff00
	...
    1284:	0000001c 	andeq	r0, r0, ip, lsl r0
    1288:	1c510001 	mrrcne	0, 0, r0, r1, cr1
    128c:	34000000 	strcc	r0, [r0], #-0
    1290:	04000000 	streq	r0, [r0], #-0
    1294:	5101f300 	mrspl	pc, SP_irq	; <UNPREDICTABLE>
    1298:	0000009f 	muleq	r0, pc, r0	; <UNPREDICTABLE>
    129c:	00000000 	andeq	r0, r0, r0
    12a0:	00000200 	andeq	r0, r0, r0, lsl #4
    12a4:	01010000 	mrseq	r0, (UNDEF: 1)
    12a8:	00000000 	andeq	r0, r0, r0
    12ac:	04000000 	streq	r0, [r0], #-0
    12b0:	01000000 	mrseq	r0, (UNDEF: 0)
    12b4:	00045000 	andeq	r5, r4, r0
    12b8:	001c0000 	andseq	r0, ip, r0
    12bc:	00010000 	andeq	r0, r1, r0
    12c0:	00001c52 	andeq	r1, r0, r2, asr ip
    12c4:	00002400 	andeq	r2, r0, r0, lsl #8
    12c8:	53000100 	movwpl	r0, #256	; 0x100
    12cc:	00000024 	andeq	r0, r0, r4, lsr #32
    12d0:	00000028 	andeq	r0, r0, r8, lsr #32
    12d4:	01730003 	cmneq	r3, r3
    12d8:	0000289f 	muleq	r0, pc, r8	; <UNPREDICTABLE>
    12dc:	00003400 	andeq	r3, r0, r0, lsl #8
    12e0:	53000100 	movwpl	r0, #256	; 0x100
	...
    12ec:	00000003 	andeq	r0, r0, r3
    12f0:	00000000 	andeq	r0, r0, r0
    12f4:	00000024 	andeq	r0, r0, r4, lsr #32
    12f8:	24510001 	ldrbcs	r0, [r1], #-1
    12fc:	34000000 	strcc	r0, [r0], #-0
    1300:	03000000 	movweq	r0, #0
    1304:	9f7f7100 	svcls	0x007f7100
	...
    1314:	00000010 	andeq	r0, r0, r0, lsl r0
    1318:	0000001c 	andeq	r0, r0, ip, lsl r0
    131c:	245c0001 	ldrbcs	r0, [ip], #-1
    1320:	34000000 	strcc	r0, [r0], #-0
    1324:	01000000 	mrseq	r0, (UNDEF: 0)
    1328:	00005200 	andeq	r5, r0, r0, lsl #4
	...
    1338:	00180000 	andseq	r0, r8, r0
    133c:	00010000 	andeq	r0, r1, r0
    1340:	00001850 	andeq	r1, r0, r0, asr r8
    1344:	00002400 	andeq	r2, r0, r0, lsl #8
    1348:	50000100 	andpl	r0, r0, r0, lsl #2
	...
    135c:	0000001c 	andeq	r0, r0, ip, lsl r0
    1360:	1c510001 	mrrcne	0, 0, r0, r1, cr1
    1364:	2c000000 	stccs	0, cr0, [r0], {-0}
    1368:	01000000 	mrseq	r0, (UNDEF: 0)
    136c:	00005100 	andeq	r5, r0, r0, lsl #2
	...
    1380:	00000004 	andeq	r0, r0, r4
    1384:	04510001 	ldrbeq	r0, [r1], #-1
    1388:	0c000000 	stceq	0, cr0, [r0], {-0}
    138c:	01000000 	mrseq	r0, (UNDEF: 0)
    1390:	000c5100 	andeq	r5, ip, r0, lsl #2
    1394:	00200000 	eoreq	r0, r0, r0
    1398:	00030000 	andeq	r0, r3, r0
    139c:	009f7f71 	addseq	r7, pc, r1, ror pc	; <UNPREDICTABLE>
    13a0:	00000000 	andeq	r0, r0, r0
    13a4:	02000000 	andeq	r0, r0, #0, 0
	...
    13b0:	00000400 	andeq	r0, r0, r0, lsl #8
    13b4:	50000100 	andpl	r0, r0, r0, lsl #2
    13b8:	00000004 	andeq	r0, r0, r4
    13bc:	00000014 	andeq	r0, r0, r4, lsl r0
    13c0:	145c0001 	ldrbne	r0, [ip], #-1
    13c4:	20000000 	andcs	r0, r0, r0
    13c8:	03000000 	movweq	r0, #0
    13cc:	9f7f7c00 	svcls	0x007f7c00
	...
    13d8:	00030300 	andeq	r0, r3, r0, lsl #6
    13dc:	00008f60 	andeq	r8, r0, r0, ror #30
    13e0:	00008f60 	andeq	r8, r0, r0, ror #30
    13e4:	60500001 	subsvs	r0, r0, r1
    13e8:	8c00008f 	stchi	0, cr0, [r0], {143}	; 0x8f
    13ec:	0400008f 	streq	r0, [r0], #-143	; 0xffffff71
    13f0:	5001f300 	andpl	pc, r1, r0, lsl #6
    13f4:	0000009f 	muleq	r0, pc, r0	; <UNPREDICTABLE>
    13f8:	00000000 	andeq	r0, r0, r0
    13fc:	03030000 	movweq	r0, #12288	; 0x3000
    1400:	008f6000 	addeq	r6, pc, r0
    1404:	008f6000 	addeq	r6, pc, r0
    1408:	51000100 	mrspl	r0, (UNDEF: 16)
    140c:	00008f60 	andeq	r8, r0, r0, ror #30
    1410:	00008f8c 	andeq	r8, r0, ip, lsl #31
    1414:	01f30004 	mvnseq	r0, r4
    1418:	00009f51 	andeq	r9, r0, r1, asr pc
    141c:	00000000 	andeq	r0, r0, r0
    1420:	03000000 	movweq	r0, #0
    1424:	00000003 	andeq	r0, r0, r3
    1428:	00008f60 	andeq	r8, r0, r0, ror #30
    142c:	00008f60 	andeq	r8, r0, r0, ror #30
    1430:	60520001 	subsvs	r0, r2, r1
    1434:	6800008f 	stmdavs	r0, {r0, r1, r2, r3, r7}
    1438:	0100008f 	smlabbeq	r0, pc, r0, r0	; <UNPREDICTABLE>
    143c:	8f685200 	svchi	0x00685200
    1440:	8f8c0000 	svchi	0x008c0000
    1444:	00030000 	andeq	r0, r3, r0
    1448:	009f0172 	addseq	r0, pc, r2, ror r1	; <UNPREDICTABLE>
    144c:	00000000 	andeq	r0, r0, r0
    1450:	02000000 	andeq	r0, r0, #0, 0
    1454:	00000101 	andeq	r0, r0, r1, lsl #2
    1458:	60000000 	andvs	r0, r0, r0
    145c:	6c00008f 	stcvs	0, cr0, [r0], {143}	; 0x8f
    1460:	0100008f 	smlabbeq	r0, pc, r0, r0	; <UNPREDICTABLE>
    1464:	8f6c5000 	svchi	0x006c5000
    1468:	8f700000 	svchi	0x00700000
    146c:	00030000 	andeq	r0, r3, r0
    1470:	709f0170 	addsvc	r0, pc, r0, ror r1	; <UNPREDICTABLE>
    1474:	8000008f 	andhi	r0, r0, pc, lsl #1
    1478:	0100008f 	smlabbeq	r0, pc, r0, r0	; <UNPREDICTABLE>
    147c:	8f845000 	svchi	0x00845000
    1480:	8f880000 	svchi	0x00880000
    1484:	00010000 	andeq	r0, r1, r0
    1488:	00000050 	andeq	r0, r0, r0, asr r0
    148c:	00000000 	andeq	r0, r0, r0
    1490:	00000200 	andeq	r0, r0, r0, lsl #4
    1494:	60000000 	andvs	r0, r0, r0
    1498:	7000008f 	andvc	r0, r0, pc, lsl #1
    149c:	0100008f 	smlabbeq	r0, pc, r0, r0	; <UNPREDICTABLE>
    14a0:	8f705100 	svchi	0x00705100
    14a4:	8f740000 	svchi	0x00740000
    14a8:	00030000 	andeq	r0, r3, r0
    14ac:	749f0171 	ldrvc	r0, [pc], #369	; 14b4 <__code_start__-0x6b4c>
    14b0:	8c00008f 	stchi	0, cr0, [r0], {143}	; 0x8f
    14b4:	0100008f 	smlabbeq	r0, pc, r0, r0	; <UNPREDICTABLE>
    14b8:	00005100 	andeq	r5, r0, r0, lsl #2
    14bc:	00000000 	andeq	r0, r0, r0
	...

Disassembly of section .debug_aranges:

00000000 <.debug_aranges>:
   0:	0000001c 	andeq	r0, r0, ip, lsl r0
   4:	00000002 	andeq	r0, r0, r2
   8:	00040000 	andeq	r0, r4, r0
   c:	00000000 	andeq	r0, r0, r0
  10:	00008038 	andeq	r8, r0, r8, lsr r0
  14:	000001ec 	andeq	r0, r0, ip, ror #3
	...
  20:	0000001c 	andeq	r0, r0, ip, lsl r0
  24:	06e70002 	strbteq	r0, [r7], r2
  28:	00040000 	andeq	r0, r4, r0
  2c:	00000000 	andeq	r0, r0, r0
  30:	00008224 	andeq	r8, r0, r4, lsr #4
  34:	00000058 	andeq	r0, r0, r8, asr r0
	...
  40:	0000001c 	andeq	r0, r0, ip, lsl r0
  44:	08880002 	stmeq	r8, {r1}
  48:	00040000 	andeq	r0, r4, r0
  4c:	00000000 	andeq	r0, r0, r0
  50:	0000827c 	andeq	r8, r0, ip, ror r2
  54:	00000034 	andeq	r0, r0, r4, lsr r0
	...
  60:	0000001c 	andeq	r0, r0, ip, lsl r0
  64:	097f0002 	ldmdbeq	pc!, {r1}^	; <UNPREDICTABLE>
  68:	00040000 	andeq	r0, r4, r0
  6c:	00000000 	andeq	r0, r0, r0
  70:	000082b0 			; <UNDEFINED> instruction: 0x000082b0
  74:	00000740 	andeq	r0, r0, r0, asr #14
	...
  80:	0000001c 	andeq	r0, r0, ip, lsl r0
  84:	145a0002 	ldrbne	r0, [sl], #-2
  88:	00040000 	andeq	r0, r4, r0
  8c:	00000000 	andeq	r0, r0, r0
  90:	00008a08 	andeq	r8, r0, r8, lsl #20
  94:	00000020 	andeq	r0, r0, r0, lsr #32
	...
  a0:	0000001c 	andeq	r0, r0, ip, lsl r0
  a4:	15680002 	strbne	r0, [r8, #-2]!
  a8:	00040000 	andeq	r0, r4, r0
  ac:	00000000 	andeq	r0, r0, r0
  b0:	00008a28 	andeq	r8, r0, r8, lsr #20
  b4:	0000002c 	andeq	r0, r0, ip, lsr #32
	...
  c0:	0000001c 	andeq	r0, r0, ip, lsl r0
  c4:	169b0002 	ldrne	r0, [fp], r2
  c8:	00040000 	andeq	r0, r4, r0
  cc:	00000000 	andeq	r0, r0, r0
  d0:	00008a54 	andeq	r8, r0, r4, asr sl
  d4:	0000003c 	andeq	r0, r0, ip, lsr r0
	...
  e0:	0000001c 	andeq	r0, r0, ip, lsl r0
  e4:	18280002 	stmdane	r8!, {r1}
  e8:	00040000 	andeq	r0, r4, r0
  ec:	00000000 	andeq	r0, r0, r0
  f0:	00008a90 	muleq	r0, r0, sl
  f4:	00000004 	andeq	r0, r0, r4
	...
 100:	0000001c 	andeq	r0, r0, ip, lsl r0
 104:	18fa0002 	ldmne	sl!, {r1}^
 108:	00040000 	andeq	r0, r4, r0
 10c:	00000000 	andeq	r0, r0, r0
 110:	00008a94 	muleq	r0, r4, sl
 114:	00000080 	andeq	r0, r0, r0, lsl #1
	...
 120:	0000001c 	andeq	r0, r0, ip, lsl r0
 124:	1b340002 	blne	d00134 <__bss_end__+0xcf6b64>
 128:	00040000 	andeq	r0, r4, r0
 12c:	00000000 	andeq	r0, r0, r0
 130:	00008b14 	andeq	r8, r0, r4, lsl fp
 134:	00000084 	andeq	r0, r0, r4, lsl #1
	...
 140:	0000001c 	andeq	r0, r0, ip, lsl r0
 144:	1d850002 	stcne	0, cr0, [r5, #8]
 148:	00040000 	andeq	r0, r4, r0
 14c:	00000000 	andeq	r0, r0, r0
 150:	00008b98 	muleq	r0, r8, fp
 154:	0000011c 	andeq	r0, r0, ip, lsl r1
	...
 160:	0000001c 	andeq	r0, r0, ip, lsl r0
 164:	212e0002 			; <UNDEFINED> instruction: 0x212e0002
 168:	00040000 	andeq	r0, r4, r0
 16c:	00000000 	andeq	r0, r0, r0
 170:	00008cb4 			; <UNDEFINED> instruction: 0x00008cb4
 174:	000001f0 	strdeq	r0, [r0], -r0	; <UNPREDICTABLE>
	...
 180:	0000001c 	andeq	r0, r0, ip, lsl r0
 184:	26ff0002 	ldrbtcs	r0, [pc], r2
 188:	00040000 	andeq	r0, r4, r0
 18c:	00000000 	andeq	r0, r0, r0
 190:	00008ea4 	andeq	r8, r0, r4, lsr #29
 194:	0000003c 	andeq	r0, r0, ip, lsr r0
	...
 1a0:	0000001c 	andeq	r0, r0, ip, lsl r0
 1a4:	284c0002 	stmdacs	ip, {r1}^
 1a8:	00040000 	andeq	r0, r4, r0
 1ac:	00000000 	andeq	r0, r0, r0
 1b0:	00008ee0 	andeq	r8, r0, r0, ror #29
 1b4:	00000034 	andeq	r0, r0, r4, lsr r0
	...
 1c0:	0000001c 	andeq	r0, r0, ip, lsl r0
 1c4:	29870002 	stmibcs	r7, {r1}
 1c8:	00040000 	andeq	r0, r4, r0
 1cc:	00000000 	andeq	r0, r0, r0
 1d0:	00008f14 	andeq	r8, r0, r4, lsl pc
 1d4:	0000002c 	andeq	r0, r0, ip, lsr #32
	...
 1e0:	0000001c 	andeq	r0, r0, ip, lsl r0
 1e4:	2a820002 	bcs	fe0801f4 <__bss_end__+0xfe076c24>
 1e8:	00040000 	andeq	r0, r4, r0
 1ec:	00000000 	andeq	r0, r0, r0
 1f0:	00008f40 	andeq	r8, r0, r0, asr #30
 1f4:	00000020 	andeq	r0, r0, r0, lsr #32
	...
 200:	0000001c 	andeq	r0, r0, ip, lsl r0
 204:	2b950002 	blcs	fe540214 <__bss_end__+0xfe536c44>
 208:	00040000 	andeq	r0, r4, r0
 20c:	00000000 	andeq	r0, r0, r0
 210:	00008f60 	andeq	r8, r0, r0, ror #30
 214:	0000002c 	andeq	r0, r0, ip, lsr #32
	...
 220:	0000001c 	andeq	r0, r0, ip, lsl r0
 224:	2ce70002 	stclcs	0, cr0, [r7], #8
 228:	00040000 	andeq	r0, r4, r0
 22c:	00000000 	andeq	r0, r0, r0
 230:	00008f8c 	andeq	r8, r0, ip, lsl #31
 234:	00000004 	andeq	r0, r0, r4
	...

Disassembly of section .debug_ranges:

00000000 <.debug_ranges>:
   0:	00000130 	andeq	r0, r0, r0, lsr r1
   4:	000001a0 	andeq	r0, r0, r0, lsr #3
   8:	000001ac 	andeq	r0, r0, ip, lsr #3
   c:	000001dc 	ldrdeq	r0, [r0], -ip
	...
  18:	00000130 	andeq	r0, r0, r0, lsr r1
  1c:	000001a0 	andeq	r0, r0, r0, lsr #3
  20:	000001cc 	andeq	r0, r0, ip, asr #3
  24:	000001dc 	ldrdeq	r0, [r0], -ip
	...
  30:	00000130 	andeq	r0, r0, r0, lsr r1
  34:	000001a0 	andeq	r0, r0, r0, lsr #3
  38:	000001cc 	andeq	r0, r0, ip, asr #3
  3c:	000001d0 	ldrdeq	r0, [r0], -r0	; <UNPREDICTABLE>
  40:	000001d8 	ldrdeq	r0, [r0], -r8
  44:	000001dc 	ldrdeq	r0, [r0], -ip
	...
  50:	00000130 	andeq	r0, r0, r0, lsr r1
  54:	00000154 	andeq	r0, r0, r4, asr r1
  58:	00000158 	andeq	r0, r0, r8, asr r1
  5c:	0000015c 	andeq	r0, r0, ip, asr r1
  60:	00000168 	andeq	r0, r0, r8, ror #2
  64:	000001a0 	andeq	r0, r0, r0, lsr #3
	...
  70:	00008a08 	andeq	r8, r0, r8, lsl #20
  74:	00008a28 	andeq	r8, r0, r8, lsr #20
	...
  80:	00008a94 	muleq	r0, r4, sl
  84:	00008b14 	andeq	r8, r0, r4, lsl fp
	...
  90:	00008f60 	andeq	r8, r0, r0, ror #30
  94:	00008f8c 	andeq	r8, r0, ip, lsl #31
	...

Disassembly of section .debug_line:

00000000 <.debug_line>:
       0:	000002ef 	andeq	r0, r0, pc, ror #5
       4:	009a0003 	addseq	r0, sl, r3
       8:	01020000 	mrseq	r0, (UNDEF: 2)
       c:	000d0efb 	strdeq	r0, [sp], -fp
      10:	01010101 	tsteq	r1, r1, lsl #2
      14:	01000000 	mrseq	r0, (UNDEF: 0)
      18:	2f010000 	svccs	0x00010000
      1c:	72657355 	rsbvc	r7, r5, #1409286145	; 0x54000001
      20:	72742f73 	rsbsvc	r2, r4, #460	; 0x1cc
      24:	65747369 	ldrbvs	r7, [r4, #-873]!	; 0xfffffc97
      28:	6c6f6e6e 	stclvs	14, cr6, [pc], #-440	; fffffe78 <__bss_end__+0xffff68a8>
      2c:	6e616d6c 	cdpvs	13, 6, cr6, cr1, cr12, {3}
      30:	636f442f 	cmnvs	pc, #788529152	; 0x2f000000
      34:	6e656d75 	mcrvs	13, 3, r6, cr5, cr5, {3}
      38:	532f7374 			; <UNDEFINED> instruction: 0x532f7374
      3c:	6e697270 	mcrvs	2, 3, r7, cr9, cr0, {3}
      40:	75515f67 	ldrbvc	r5, [r1, #-3943]	; 0xfffff099
      44:	65747261 	ldrbvs	r7, [r4, #-609]!	; 0xfffffd9f
      48:	30325f72 	eorscc	r5, r2, r2, ror pc
      4c:	432f3232 			; <UNDEFINED> instruction: 0x432f3232
      50:	30343253 	eorscc	r3, r4, r3, asr r2
      54:	732d584c 			; <UNDEFINED> instruction: 0x732d584c
      58:	32327270 	eorscc	r7, r2, #112, 4
      5c:	696c2f2f 	stmdbvs	ip!, {r0, r1, r2, r3, r5, r8, r9, sl, fp, sp}^
      60:	2f697062 	svccs	0x00697062
      64:	6c636e69 	stclvs	14, cr6, [r3], #-420	; 0xfffffe5c
      68:	00656475 	rsbeq	r6, r5, r5, ror r4
      6c:	63796300 	cmnvs	r9, #0, 6
      70:	682e656c 	stmdavs	lr!, {r2, r3, r5, r6, r8, sl, sp, lr}
      74:	00000000 	andeq	r0, r0, r0
      78:	706f6373 	rsbvc	r6, pc, r3, ror r3	; <UNPREDICTABLE>
      7c:	00632e65 	rsbeq	r2, r3, r5, ror #28
      80:	73000000 	movwvc	r0, #0
      84:	6c706d61 	ldclvs	13, cr6, [r0], #-388	; 0xfffffe7c
      88:	682e7365 	stmdavs	lr!, {r0, r2, r5, r6, r8, r9, ip, sp, lr}
      8c:	00000000 	andeq	r0, r0, r0
      90:	2e697072 	mcrcs	0, 3, r7, cr9, cr2, {3}
      94:	00010068 	andeq	r0, r1, r8, rrx
      98:	69706700 	ldmdbvs	r0!, {r8, r9, sl, sp, lr}^
      9c:	00682e6f 	rsbeq	r2, r8, pc, ror #28
      a0:	00000001 	andeq	r0, r0, r1
      a4:	05002a05 	streq	r2, [r0, #-2565]	; 0xfffff5fb
      a8:	00803802 	addeq	r3, r0, r2, lsl #16
      ac:	010a0300 	mrseq	r0, (UNDEF: 58)
      b0:	01130505 	tsteq	r3, r5, lsl #10
      b4:	0e13014a 	mufeqsm	f0, f3, #2.0
      b8:	0601050f 	streq	r0, [r1], -pc, lsl #10
      bc:	2a054a1a 	bcs	15292c <__bss_end__+0x14935c>
      c0:	01040200 	mrseq	r0, R12_usr
      c4:	0005052b 	andeq	r0, r5, fp, lsr #10
      c8:	06010402 	streq	r0, [r1], -r2, lsl #8
      cc:	0402004b 	streq	r0, [r2], #-75	; 0xffffffb5
      d0:	02000101 	andeq	r0, r0, #1073741824	; 0x40000000
      d4:	ba060104 	blt	1804ec <__bss_end__+0x176f1c>
      d8:	01040200 	mrseq	r0, R12_usr
      dc:	02042e06 	andeq	r2, r4, #96	; 0x60
      e0:	18034805 	stmdane	r3, {r0, r2, fp, lr}
      e4:	050106ba 	streq	r0, [r1, #-1722]	; 0xfffff946
      e8:	059f0605 	ldreq	r0, [pc, #1541]	; 6f5 <__code_start__-0x790b>
      ec:	05010617 	streq	r0, [r1, #-1559]	; 0xfffff9e9
      f0:	05310605 	ldreq	r0, [r1, #-1541]!	; 0xfffff9fb
      f4:	04020009 	streq	r0, [r2], #-9
      f8:	0a051301 	beq	144d04 <__bss_end__+0x13b734>
      fc:	01040200 	mrseq	r0, R12_usr
     100:	00180511 	andseq	r0, r8, r1, lsl r5
     104:	03010402 	movweq	r0, #5122	; 0x1402
     108:	0205016f 	andeq	r0, r5, #-1073741797	; 0xc000001b
     10c:	01040200 	mrseq	r0, R12_usr
     110:	000a0513 	andeq	r0, sl, r3, lsl r5
     114:	06010402 	streq	r0, [r1], -r2, lsl #8
     118:	00100501 	andseq	r0, r0, r1, lsl #10
     11c:	4a010402 	bmi	4112c <__bss_end__+0x37b5c>
     120:	02001805 	andeq	r1, r0, #327680	; 0x50000
     124:	002e0104 	eoreq	r0, lr, r4, lsl #2
     128:	2e010402 	cdpcs	4, 0, cr0, cr1, cr2, {0}
     12c:	02000a05 	andeq	r0, r0, #20480	; 0x5000
     130:	10030104 	andne	r0, r3, r4, lsl #2
     134:	06050501 	streq	r0, [r5], -r1, lsl #10
     138:	0318054e 	tsteq	r8, #327155712	; 0x13800000
     13c:	0205016f 	andeq	r0, r5, #-1073741797	; 0xc000001b
     140:	13040513 	movwne	r0, #17683	; 0x4513
     144:	062f0205 	strteq	r0, [pc], -r5, lsl #4
     148:	06050501 	streq	r0, [r5], -r1, lsl #10
     14c:	05011103 	streq	r1, [r1, #-259]	; 0xfffffefd
     150:	05131302 	ldreq	r1, [r3, #-770]	; 0xfffffcfe
     154:	0510060e 	ldreq	r0, [r0, #-1550]	; 0xfffff9f2
     158:	09053008 	stmdbeq	r5, {r3, ip, sp}
     15c:	2e240306 	cdpcs	3, 2, cr0, cr4, cr6, {0}
     160:	46031805 	strmi	r1, [r3], -r5, lsl #16
     164:	13020501 	movwne	r0, #9473	; 0x2501
     168:	05130405 	ldreq	r0, [r3, #-1029]	; 0xfffffbfb
     16c:	01062f02 	tsteq	r6, r2, lsl #30
     170:	37032305 	strcc	r2, [r3, -r5, lsl #6]
     174:	2e0b0501 	cfsh32cs	mvfx0, mvfx11, #1
     178:	03060805 	movweq	r0, #26629	; 0x6805
     17c:	03054a5c 	movweq	r4, #23132	; 0x5a5c
     180:	0318054e 	tsteq	r8, #327155712	; 0x13800000
     184:	02050162 	andeq	r0, r5, #-2147483624	; 0x80000018
     188:	060a0513 			; <UNDEFINED> instruction: 0x060a0513
     18c:	4a100501 	bmi	401598 <__bss_end__+0x3f7fc8>
     190:	2e2e1805 	cdpcs	8, 2, cr1, cr14, cr5, {0}
     194:	1d030605 	stcne	6, cr0, [r3, #-20]	; 0xffffffec
     198:	06040501 	streq	r0, [r4], -r1, lsl #10
     19c:	0318054b 	tsteq	r8, #314572800	; 0x12c00000
     1a0:	02050165 	andeq	r0, r5, #1073741849	; 0x40000019
     1a4:	13040513 	movwne	r0, #17683	; 0x4513
     1a8:	062f0205 	strteq	r0, [pc], -r5, lsl #4
     1ac:	06040501 	streq	r0, [r4], -r1, lsl #10
     1b0:	05011903 	streq	r1, [r1, #-2307]	; 0xfffff6fd
     1b4:	05010605 	streq	r0, [r1, #-1541]	; 0xfffff9fb
     1b8:	1c052e0b 	stcne	14, cr2, [r5], {11}
     1bc:	2e11052f 	cfmul64cs	mvdx0, mvdx1, mvdx15
     1c0:	2f060405 	svccs	0x00060405
     1c4:	01060705 	tsteq	r6, r5, lsl #14
     1c8:	2f060405 	svccs	0x00060405
     1cc:	01060505 	tsteq	r6, r5, lsl #10
     1d0:	0d052e2e 	stceq	14, cr2, [r5, #-184]	; 0xffffff48
     1d4:	011c0306 	tsteq	ip, r6, lsl #6
     1d8:	30066606 	andcc	r6, r6, r6, lsl #12
     1dc:	16060105 	strne	r0, [r6], -r5, lsl #2
     1e0:	84061405 	strhi	r1, [r6], #-1029	; 0xfffffbfb
     1e4:	134c0505 	movtne	r0, #50437	; 0xc505
     1e8:	2f4b0205 	svccs	0x004b0205
     1ec:	01310505 	teqeq	r1, r5, lsl #10
     1f0:	05154a01 	ldreq	r4, [r5, #-2561]	; 0xfffff5ff
     1f4:	05051602 	streq	r1, [r5, #-1538]	; 0xfffff9fe
     1f8:	0109056a 	tsteq	r9, sl, ror #10
     1fc:	01060d05 	tsteq	r6, r5, lsl #26
     200:	042e0505 	strteq	r0, [lr], #-1285	; 0xfffffafb
     204:	032e0503 			; <UNDEFINED> instruction: 0x032e0503
     208:	052e7fa8 	streq	r7, [lr, #-4008]!	; 0xfffff058
     20c:	052f0609 	streq	r0, [pc, #-1545]!	; fffffc0b <__bss_end__+0xffff663b>
     210:	05010611 	streq	r0, [r1, #-1553]	; 0xfffff9ef
     214:	06300609 	ldrteq	r0, [r0], -r9, lsl #12
     218:	052e2e9e 	streq	r2, [lr, #-3742]!	; 0xfffff162
     21c:	7503061d 	strvc	r0, [r3, #-1565]	; 0xfffff9e3
     220:	061e0501 	ldreq	r0, [lr], -r1, lsl #10
     224:	330e0501 	movwcc	r0, #58625	; 0xe501
     228:	0614052e 	ldreq	r0, [r4], -lr, lsr #10
     22c:	0619050d 	ldreq	r0, [r9], -sp, lsl #10
     230:	2e050501 	cfsh32cs	mvfx0, mvfx5, #1
     234:	4b060905 	blmi	182650 <__bss_end__+0x179080>
     238:	01061a05 	tsteq	r6, r5, lsl #20
     23c:	2e2e1405 	cdpcs	4, 2, cr1, cr14, cr5, {0}
     240:	30060905 	andcc	r0, r6, r5, lsl #18
     244:	01061205 	tsteq	r6, r5, lsl #4
     248:	2f060905 	svccs	0x00060905
     24c:	01060e05 	tsteq	r6, r5, lsl #28
     250:	2f060905 	svccs	0x00060905
     254:	06230514 			; <UNDEFINED> instruction: 0x06230514
     258:	2e120501 	cfmul32cs	mvfx0, mvfx2, mvfx1
     25c:	0609052e 	streq	r0, [r9], -lr, lsr #10
     260:	062e0567 	strteq	r0, [lr], -r7, ror #10
     264:	05058201 	streq	r8, [r5, #-513]	; 0xfffffdff
     268:	01061706 	tsteq	r6, r6, lsl #14
     26c:	1b050204 	blne	140a84 <__bss_end__+0x1374b4>
     270:	00d30306 	sbcseq	r0, r3, r6, lsl #6
     274:	061c0501 	ldreq	r0, [ip], -r1, lsl #10
     278:	00140501 	andseq	r0, r4, r1, lsl #10
     27c:	06010402 	streq	r0, [r1], -r2, lsl #8
     280:	0005052e 	andeq	r0, r5, lr, lsr #10
     284:	06010402 	streq	r0, [r1], -r2, lsl #8
     288:	00090501 	andeq	r0, r9, r1, lsl #10
     28c:	06030402 	streq	r0, [r3], -r2, lsl #8
     290:	0016054b 	andseq	r0, r6, fp, asr #10
     294:	06030402 	streq	r0, [r3], -r2, lsl #8
     298:	00090501 	andeq	r0, r9, r1, lsl #10
     29c:	06030402 	streq	r0, [r3], -r2, lsl #8
     2a0:	050304f3 	streq	r0, [r3, #-1267]	; 0xfffffb0d
     2a4:	04020001 	streq	r0, [r2], #-1
     2a8:	7f9a0303 	svcvc	0x009a0303
     2ac:	00050501 	andeq	r0, r5, r1, lsl #10
     2b0:	13030402 	movwne	r0, #13314	; 0x3402
     2b4:	03040200 	movweq	r0, #16896	; 0x4200
     2b8:	04020014 	streq	r0, [r2], #-20	; 0xffffffec
     2bc:	09051303 	stmdbeq	r5, {r0, r1, r8, r9, ip}
     2c0:	03040200 	movweq	r0, #16896	; 0x4200
     2c4:	000d0501 	andeq	r0, sp, r1, lsl #10
     2c8:	06030402 	streq	r0, [r3], -r2, lsl #8
     2cc:	000e0501 	andeq	r0, lr, r1, lsl #10
     2d0:	2d030402 	cfstrscs	mvf0, [r3, #-8]
     2d4:	02001705 	andeq	r1, r0, #1310720	; 0x140000
     2d8:	052c0304 	streq	r0, [ip, #-772]!	; 0xfffffcfc
     2dc:	04020005 	streq	r0, [r2], #-5
     2e0:	02003103 	andeq	r3, r0, #-1073741824	; 0xc0000000
     2e4:	042e0304 	strteq	r0, [lr], #-772	; 0xfffffcfc
     2e8:	e4030602 	str	r0, [r3], #-1538	; 0xfffff9fe
     2ec:	08020100 	stmdaeq	r2, {r8}
     2f0:	34010100 	strcc	r0, [r1], #-256	; 0xffffff00
     2f4:	03000001 	movweq	r0, #1
     2f8:	00010200 	andeq	r0, r1, r0, lsl #4
     2fc:	fb010200 	blx	40b06 <__bss_end__+0x37536>
     300:	01000d0e 	tsteq	r0, lr, lsl #26
     304:	00010101 	andeq	r0, r1, r1, lsl #2
     308:	00010000 	andeq	r0, r1, r0
     30c:	2f2e0100 	svccs	0x002e0100
     310:	6362696c 	cmnvs	r2, #108, 18	; 0x1b0000
     314:	73752f00 	cmnvc	r5, #0, 30
     318:	6f6c2f72 	svcvs	0x006c2f72
     31c:	2f6c6163 	svccs	0x006c6163
     320:	6c6c6543 	cfstr64vs	mvdx6, [ip], #-268	; 0xfffffef4
     324:	612f7261 			; <UNDEFINED> instruction: 0x612f7261
     328:	6e2d6d72 	mcrvs	13, 1, r6, cr13, cr2, {3}
     32c:	2d656e6f 	stclcs	14, cr6, [r5, #-444]!	; 0xfffffe44
     330:	69626165 	stmdbvs	r2!, {r0, r2, r5, r6, r8, sp, lr}^
     334:	7365742d 	cmnvc	r5, #754974720	; 0x2d000000
     338:	2d392f74 	ldccs	15, cr2, [r9, #-464]!	; 0xfffffe30
     33c:	39313032 	ldmdbcc	r1!, {r1, r4, r5, ip, sp}
     340:	632d3471 			; <UNDEFINED> instruction: 0x632d3471
     344:	37303173 			; <UNDEFINED> instruction: 0x37303173
     348:	696c2f65 	stmdbvs	ip!, {r0, r2, r5, r6, r8, r9, sl, fp, sp}^
     34c:	63672f62 	cmnvs	r7, #392	; 0x188
     350:	72612f63 	rsbvc	r2, r1, #396	; 0x18c
     354:	6f6e2d6d 	svcvs	0x006e2d6d
     358:	652d656e 	strvs	r6, [sp, #-1390]!	; 0xfffffa92
     35c:	2f696261 	svccs	0x00696261
     360:	2e322e39 	mrccs	14, 1, r2, cr2, cr9, {1}
     364:	6e692f31 	mcrvs	15, 3, r2, cr9, cr1, {1}
     368:	64756c63 	ldrbtvs	r6, [r5], #-3171	; 0xfffff39d
     36c:	552f0065 	strpl	r0, [pc, #-101]!	; 30f <__code_start__-0x7cf1>
     370:	73726573 	cmnvc	r2, #482344960	; 0x1cc00000
     374:	6972742f 	ldmdbvs	r2!, {r0, r1, r2, r3, r5, sl, ip, sp, lr}^
     378:	6e657473 	mcrvs	4, 3, r7, cr5, cr3, {3}
     37c:	6c6c6f6e 	stclvs	15, cr6, [ip], #-440	; 0xfffffe48
     380:	2f6e616d 	svccs	0x006e616d
     384:	75636f44 	strbvc	r6, [r3, #-3908]!	; 0xfffff0bc
     388:	746e656d 	strbtvc	r6, [lr], #-1389	; 0xfffffa93
     38c:	70532f73 	subsvc	r2, r3, r3, ror pc
     390:	676e6972 			; <UNDEFINED> instruction: 0x676e6972
     394:	6175515f 	cmnvs	r5, pc, asr r1
     398:	72657472 	rsbvc	r7, r5, #1912602624	; 0x72000000
     39c:	3230325f 	eorscc	r3, r0, #-268435451	; 0xf0000005
     3a0:	53432f32 	movtpl	r2, #16178	; 0x3f32
     3a4:	4c303432 	cfldrsmi	mvf3, [r0], #-200	; 0xffffff38
     3a8:	70732d58 	rsbsvc	r2, r3, r8, asr sp
     3ac:	2f323272 	svccs	0x00323272
     3b0:	62696c2f 	rsbvs	r6, r9, #12032	; 0x2f00
     3b4:	692f6970 	stmdbvs	pc!, {r4, r5, r6, r8, fp, sp, lr}	; <UNPREDICTABLE>
     3b8:	756c636e 	strbvc	r6, [ip, #-878]!	; 0xfffffc92
     3bc:	00006564 	andeq	r6, r0, r4, ror #10
     3c0:	6e697270 	mcrvs	2, 3, r7, cr9, cr0, {3}
     3c4:	632e6b74 			; <UNDEFINED> instruction: 0x632e6b74
     3c8:	00000100 	andeq	r0, r0, r0, lsl #2
     3cc:	61647473 	smcvs	18243	; 0x4743
     3d0:	682e6772 	stmdavs	lr!, {r1, r4, r5, r6, r8, r9, sl, sp, lr}
     3d4:	00000200 	andeq	r0, r0, r0, lsl #4
     3d8:	2e697072 	mcrcs	0, 3, r7, cr9, cr2, {3}
     3dc:	00030068 	andeq	r0, r3, r8, rrx
     3e0:	75623c00 	strbvc	r3, [r2, #-3072]!	; 0xfffff400
     3e4:	2d746c69 	ldclcs	12, cr6, [r4, #-420]!	; 0xfffffe5c
     3e8:	003e6e69 	eorseq	r6, lr, r9, ror #28
     3ec:	76000000 	strvc	r0, [r0], -r0
     3f0:	72702d61 	rsbsvc	r2, r0, #6208	; 0x1840
     3f4:	6b746e69 	blvs	1d1bda0 <__bss_end__+0x1d127d0>
     3f8:	0100682e 	tsteq	r0, lr, lsr #16
     3fc:	05000000 	streq	r0, [r0, #-0]
     400:	02050022 	andeq	r0, r5, #34, 0	; 0x22
     404:	00008224 	andeq	r8, r0, r4, lsr #4
     408:	05010617 	streq	r0, [r1, #-1559]	; 0xfffff9e9
     40c:	13680605 	cmnne	r8, #5242880	; 0x500000
     410:	4b090514 	blmi	241868 <__bss_end__+0x238298>
     414:	01061205 	tsteq	r6, r5, lsl #4
     418:	bb060505 	bllt	181834 <__bss_end__+0x178264>
     41c:	06660616 			; <UNDEFINED> instruction: 0x06660616
     420:	06010534 			; <UNDEFINED> instruction: 0x06010534
     424:	08026613 	stmdaeq	r2, {r0, r1, r4, r9, sl, sp, lr}
     428:	cc010100 	stfgts	f0, [r1], {-0}
     42c:	03000000 	movweq	r0, #0
     430:	00007e00 	andeq	r7, r0, r0, lsl #28
     434:	fb010200 	blx	40c3e <__bss_end__+0x3766e>
     438:	01000d0e 	tsteq	r0, lr, lsl #26
     43c:	00010101 	andeq	r0, r1, r1, lsl #2
     440:	00010000 	andeq	r0, r1, r0
     444:	2f2e0100 	svccs	0x002e0100
     448:	6362696c 	cmnvs	r2, #108, 18	; 0x1b0000
     44c:	73552f00 	cmpvc	r5, #0, 30
     450:	2f737265 	svccs	0x00737265
     454:	73697274 	cmnvc	r9, #116, 4	; 0x40000007
     458:	6e6e6574 	mcrvs	5, 3, r6, cr14, cr4, {3}
     45c:	6d6c6c6f 	stclvs	12, cr6, [ip, #-444]!	; 0xfffffe44
     460:	442f6e61 	strtmi	r6, [pc], #-3681	; 468 <__code_start__-0x7b98>
     464:	6d75636f 	ldclvs	3, cr6, [r5, #-444]!	; 0xfffffe44
     468:	73746e65 	cmnvc	r4, #1616	; 0x650
     46c:	7270532f 	rsbsvc	r5, r0, #-1140850688	; 0xbc000000
     470:	5f676e69 	svcpl	0x00676e69
     474:	72617551 	rsbvc	r7, r1, #339738624	; 0x14400000
     478:	5f726574 	svcpl	0x00726574
     47c:	32323032 	eorscc	r3, r2, #50, 0	; 0x32
     480:	3253432f 	subscc	r4, r3, #-1140850688	; 0xbc000000
     484:	584c3034 	stmdapl	ip, {r2, r4, r5, ip, sp}^
     488:	7270732d 	rsbsvc	r7, r0, #-1275068416	; 0xb4000000
     48c:	2f2f3232 	svccs	0x002f3232
     490:	7062696c 	rsbvc	r6, r2, ip, ror #18
     494:	6e692f69 	cdpvs	15, 6, cr2, cr9, cr9, {3}
     498:	64756c63 	ldrbtvs	r6, [r5], #-3171	; 0xfffff39d
     49c:	70000065 	andvc	r0, r0, r5, rrx
     4a0:	2e6b7475 	mcrcs	4, 3, r7, cr11, cr5, {3}
     4a4:	00010063 	andeq	r0, r1, r3, rrx
     4a8:	69707200 	ldmdbvs	r0!, {r9, ip, sp, lr}^
     4ac:	0200682e 	andeq	r6, r0, #3014656	; 0x2e0000
     4b0:	05000000 	streq	r0, [r0, #-0]
     4b4:	02050022 	andeq	r0, r5, #34, 0	; 0x22
     4b8:	0000827c 	andeq	r8, r0, ip, ror r2
     4bc:	05010615 	streq	r0, [r1, #-1557]	; 0xfffff9eb
     4c0:	054b0605 	strbeq	r0, [fp, #-1541]	; 0xfffff9fb
     4c4:	0402000b 	streq	r0, [r2], #-11
     4c8:	05050101 	streq	r0, [r5, #-257]	; 0xfffffeff
     4cc:	01040200 	mrseq	r0, R12_usr
     4d0:	09052e06 	stmdbeq	r5, {r1, r2, r9, sl, fp, sp}
     4d4:	02040200 	andeq	r0, r4, #0, 4
     4d8:	0f054b06 	svceq	0x00054b06
     4dc:	02040200 	andeq	r0, r4, #0, 4
     4e0:	00100565 	andseq	r0, r0, r5, ror #10
     4e4:	06020402 	streq	r0, [r2], -r2, lsl #8
     4e8:	04020001 	streq	r0, [r2], #-1
     4ec:	05052e02 	streq	r2, [r5, #-3586]	; 0xfffff1fe
     4f0:	01053206 	tsteq	r5, r6, lsl #4
     4f4:	06021306 	streq	r1, [r2], -r6, lsl #6
     4f8:	1e010100 	adfnes	f0, f1, f0
     4fc:	03000006 	movweq	r0, #6
     500:	00011800 	andeq	r1, r1, r0, lsl #16
     504:	fb010200 	blx	40d0e <__bss_end__+0x3773e>
     508:	01000d0e 	tsteq	r0, lr, lsl #26
     50c:	00010101 	andeq	r0, r1, r1, lsl #2
     510:	00010000 	andeq	r0, r1, r0
     514:	2f2e0100 	svccs	0x002e0100
     518:	6362696c 	cmnvs	r2, #108, 18	; 0x1b0000
     51c:	73752f00 	cmnvc	r5, #0, 30
     520:	6f6c2f72 	svcvs	0x006c2f72
     524:	2f6c6163 	svccs	0x006c6163
     528:	6c6c6543 	cfstr64vs	mvdx6, [ip], #-268	; 0xfffffef4
     52c:	612f7261 			; <UNDEFINED> instruction: 0x612f7261
     530:	6e2d6d72 	mcrvs	13, 1, r6, cr13, cr2, {3}
     534:	2d656e6f 	stclcs	14, cr6, [r5, #-444]!	; 0xfffffe44
     538:	69626165 	stmdbvs	r2!, {r0, r2, r5, r6, r8, sp, lr}^
     53c:	7365742d 	cmnvc	r5, #754974720	; 0x2d000000
     540:	2d392f74 	ldccs	15, cr2, [r9, #-464]!	; 0xfffffe30
     544:	39313032 	ldmdbcc	r1!, {r1, r4, r5, ip, sp}
     548:	632d3471 			; <UNDEFINED> instruction: 0x632d3471
     54c:	37303173 			; <UNDEFINED> instruction: 0x37303173
     550:	696c2f65 	stmdbvs	ip!, {r0, r2, r5, r6, r8, r9, sl, fp, sp}^
     554:	63672f62 	cmnvs	r7, #392	; 0x188
     558:	72612f63 	rsbvc	r2, r1, #396	; 0x18c
     55c:	6f6e2d6d 	svcvs	0x006e2d6d
     560:	652d656e 	strvs	r6, [sp, #-1390]!	; 0xfffffa92
     564:	2f696261 	svccs	0x00696261
     568:	2e322e39 	mrccs	14, 1, r2, cr2, cr9, {1}
     56c:	6e692f31 	mcrvs	15, 3, r2, cr9, cr1, {1}
     570:	64756c63 	ldrbtvs	r6, [r5], #-3171	; 0xfffff39d
     574:	552f0065 	strpl	r0, [pc, #-101]!	; 517 <__code_start__-0x7ae9>
     578:	73726573 	cmnvc	r2, #482344960	; 0x1cc00000
     57c:	6972742f 	ldmdbvs	r2!, {r0, r1, r2, r3, r5, sl, ip, sp, lr}^
     580:	6e657473 	mcrvs	4, 3, r7, cr5, cr3, {3}
     584:	6c6c6f6e 	stclvs	15, cr6, [ip], #-440	; 0xfffffe48
     588:	2f6e616d 	svccs	0x006e616d
     58c:	75636f44 	strbvc	r6, [r3, #-3908]!	; 0xfffff0bc
     590:	746e656d 	strbtvc	r6, [lr], #-1389	; 0xfffffa93
     594:	70532f73 	subsvc	r2, r3, r3, ror pc
     598:	676e6972 			; <UNDEFINED> instruction: 0x676e6972
     59c:	6175515f 	cmnvs	r5, pc, asr r1
     5a0:	72657472 	rsbvc	r7, r5, #1912602624	; 0x72000000
     5a4:	3230325f 	eorscc	r3, r0, #-268435451	; 0xf0000005
     5a8:	53432f32 	movtpl	r2, #16178	; 0x3f32
     5ac:	4c303432 	cfldrsmi	mvf3, [r0], #-200	; 0xffffff38
     5b0:	70732d58 	rsbsvc	r2, r3, r8, asr sp
     5b4:	2f323272 	svccs	0x00323272
     5b8:	62696c2f 	rsbvs	r6, r9, #12032	; 0x2f00
     5bc:	692f6970 	stmdbvs	pc!, {r4, r5, r6, r8, fp, sp, lr}	; <UNPREDICTABLE>
     5c0:	756c636e 	strbvc	r6, [ip, #-878]!	; 0xfffffc92
     5c4:	00006564 	andeq	r6, r0, r4, ror #10
     5c8:	702d6176 	eorvc	r6, sp, r6, ror r1
     5cc:	746e6972 	strbtvc	r6, [lr], #-2418	; 0xfffff68e
     5d0:	00632e6b 	rsbeq	r2, r3, fp, ror #28
     5d4:	73000001 	movwvc	r0, #1
     5d8:	6e696474 	mcrvs	4, 3, r6, cr9, cr4, {3}
     5dc:	63672d74 	cmnvs	r7, #116, 26	; 0x1d00
     5e0:	00682e63 	rsbeq	r2, r8, r3, ror #28
     5e4:	72000002 	andvc	r0, r0, #2, 0
     5e8:	682e6970 	stmdavs	lr!, {r4, r5, r6, r8, fp, sp, lr}
     5ec:	00000300 	andeq	r0, r0, r0, lsl #6
     5f0:	2d697072 	stclcs	0, cr7, [r9, #-456]!	; 0xfffffe38
     5f4:	65746e69 	ldrbvs	r6, [r4, #-3689]!	; 0xfffff197
     5f8:	6c616e72 	stclvs	14, cr6, [r1], #-456	; 0xfffffe38
     5fc:	0300682e 	movweq	r6, #2094	; 0x82e
     600:	74730000 	ldrbtvc	r0, [r3], #-0
     604:	67726164 	ldrbvs	r6, [r2, -r4, ror #2]!
     608:	0200682e 	andeq	r6, r0, #3014656	; 0x2e0000
     60c:	623c0000 	eorsvs	r0, ip, #0, 0
     610:	746c6975 	strbtvc	r6, [ip], #-2421	; 0xfffff68b
     614:	3e6e692d 	vmulcc.f16	s13, s28, s27	; <UNPREDICTABLE>
     618:	00000000 	andeq	r0, r0, r0
     61c:	001b0500 	andseq	r0, fp, r0, lsl #10
     620:	82b00205 	adcshi	r0, r0, #1342177280	; 0x50000000
     624:	26030000 	strcs	r0, [r3], -r0
     628:	011d0501 	tsteq	sp, r1, lsl #10
     62c:	01062d05 	tsteq	r6, r5, lsl #26
     630:	4a2e0105 	bmi	b80a4c <__bss_end__+0xb7747c>
     634:	51063305 	tstpl	r6, r5, lsl #6
     638:	05130205 	ldreq	r0, [r3, #-517]	; 0xfffffdfb
     63c:	05010606 	streq	r0, [r1, #-1542]	; 0xfffff9fa
     640:	05300602 	ldreq	r0, [r0, #-1538]!	; 0xfffff9fe
     644:	04020008 	streq	r0, [r2], #-8
     648:	02050101 	andeq	r0, r5, #1073741824	; 0x40000000
     64c:	01040200 	mrseq	r0, R12_usr
     650:	03050106 	movweq	r0, #20742	; 0x5106
     654:	02040200 	andeq	r0, r4, #0, 4
     658:	08052f06 	stmdaeq	r5, {r1, r2, r8, r9, sl, fp, sp}
     65c:	02040200 	andeq	r0, r4, #0, 4
     660:	15050106 	strne	r0, [r5, #-262]	; 0xfffffefa
     664:	02040200 	andeq	r0, r4, #0, 4
     668:	18054906 	stmdane	r5, {r1, r2, r8, fp, lr}
     66c:	02040200 	andeq	r0, r4, #0, 4
     670:	02000106 	andeq	r0, r0, #-2147483647	; 0x80000001
     674:	052e0204 	streq	r0, [lr, #-516]!	; 0xfffffdfc
     678:	05300602 	ldreq	r0, [r0, #-1538]!	; 0xfffff9fe
     67c:	05010605 	streq	r0, [r1, #-1541]	; 0xfffff9fb
     680:	054b0602 	strbeq	r0, [fp, #-1538]	; 0xfffff9fe
     684:	05130601 	ldreq	r0, [r3, #-1537]	; 0xfffff9ff
     688:	0531063e 	ldreq	r0, [r1, #-1598]!	; 0xfffff9c2
     68c:	0e051402 	cdpeq	4, 0, cr1, cr5, cr2, {0}
     690:	06050106 	streq	r0, [r5], -r6, lsl #2
     694:	0602052e 	streq	r0, [r2], -lr, lsr #10
     698:	0604052f 	streq	r0, [r4], -pc, lsr #10
     69c:	06030501 	streq	r0, [r3], -r1, lsl #10
     6a0:	0611052f 	ldreq	r0, [r1], -pc, lsr #10
     6a4:	2e090501 	cfsh32cs	mvfx0, mvfx9, #1
     6a8:	30060205 	andcc	r0, r6, r5, lsl #4
     6ac:	06070515 			; <UNDEFINED> instruction: 0x06070515
     6b0:	2e020501 	cfsh32cs	mvfx0, mvfx2, #1
     6b4:	02000b05 	andeq	r0, r0, #5120	; 0x1400
     6b8:	2e060104 	adfcss	f0, f6, f4
     6bc:	02000205 	andeq	r0, r0, #1342177280	; 0x50000000
     6c0:	01060104 	tsteq	r6, r4, lsl #2
     6c4:	02000305 	andeq	r0, r0, #335544320	; 0x14000000
     6c8:	2f060304 	svccs	0x00060304
     6cc:	02000c05 	andeq	r0, r0, #1280	; 0x500
     6d0:	01060304 	tsteq	r6, r4, lsl #6
     6d4:	02000a05 	andeq	r0, r0, #20480	; 0x5000
     6d8:	052e0304 	streq	r0, [lr, #-772]!	; 0xfffffcfc
     6dc:	04020017 	streq	r0, [r2], #-23	; 0xffffffe9
     6e0:	002d0603 	eoreq	r0, sp, r3, lsl #12
     6e4:	06030402 	streq	r0, [r3], -r2, lsl #8
     6e8:	06020501 	streq	r0, [r2], -r1, lsl #10
     6ec:	06090530 			; <UNDEFINED> instruction: 0x06090530
     6f0:	02052e01 	andeq	r2, r5, #1, 28
     6f4:	01053006 	tsteq	r5, r6
     6f8:	49051306 	stmdbmi	r5, {r1, r2, r8, r9, ip}
     6fc:	01063106 	tsteq	r6, r6, lsl #2
     700:	a0060205 	andge	r0, r6, r5, lsl #4
     704:	01060405 	tsteq	r6, r5, lsl #8
     708:	2f060305 	svccs	0x00060305
     70c:	01060905 	tsteq	r6, r5, lsl #18
     710:	30060205 	andcc	r0, r6, r5, lsl #4
     714:	060b0513 			; <UNDEFINED> instruction: 0x060b0513
     718:	06020501 	streq	r0, [r2], -r1, lsl #10
     71c:	052e0630 	streq	r0, [lr, #-1584]!	; 0xfffff9d0
     720:	24020604 	strcs	r0, [r2], #-1540	; 0xfffff9fc
     724:	0f051315 	svceq	0x00051315
     728:	052e0106 	streq	r0, [lr, #-262]!	; 0xfffffefa
     72c:	05054a06 	streq	r4, [r5, #-2566]	; 0xfffff5fa
     730:	05134b06 	ldreq	r4, [r3, #-2822]	; 0xfffff4fa
     734:	05010609 	streq	r0, [r1, #-1545]	; 0xfffff9f7
     738:	052f0605 	streq	r0, [pc, #-1541]!	; 13b <__code_start__-0x7ec5>
     73c:	0510060b 	ldreq	r0, [r0, #-1547]	; 0xfffff9f5
     740:	0402000d 	streq	r0, [r2], #-13
     744:	04052c01 	streq	r2, [r5], #-3073	; 0xfffff3ff
     748:	01040200 	mrseq	r0, R12_usr
     74c:	05053406 	streq	r3, [r5, #-1030]	; 0xfffffbfa
     750:	01040200 	mrseq	r0, R12_usr
     754:	001b0513 	andseq	r0, fp, r3, lsl r5
     758:	06010402 	streq	r0, [r1], -r2, lsl #8
     75c:	00070501 	andeq	r0, r7, r1, lsl #10
     760:	d6010402 	strle	r0, [r1], -r2, lsl #8
     764:	02001805 	andeq	r1, r0, #327680	; 0x50000
     768:	052e0104 	streq	r0, [lr, #-260]!	; 0xfffffefc
     76c:	0402000a 	streq	r0, [r2], #-10
     770:	0b054a01 	bleq	152f7c <__bss_end__+0x1499ac>
     774:	01040200 	mrseq	r0, R12_usr
     778:	0e052f06 	cdpeq	15, 0, cr2, cr5, cr6, {0}
     77c:	01040200 	mrseq	r0, R12_usr
     780:	04052e06 	streq	r2, [r5], #-3590	; 0xfffff1fa
     784:	01040200 	mrseq	r0, R12_usr
     788:	054b062e 	strbeq	r0, [fp, #-1582]	; 0xfffff9d2
     78c:	05010606 	streq	r0, [r1, #-1542]	; 0xfffff9fa
     790:	052f0605 	streq	r0, [pc, #-1541]!	; 193 <__code_start__-0x7e6d>
     794:	0501060a 	streq	r0, [r1, #-1546]	; 0xfffff9f6
     798:	052e4a07 	streq	r4, [lr, #-2567]!	; 0xfffff5f9
     79c:	2e76030d 	cdpcs	3, 7, cr0, cr6, cr13, {0}
     7a0:	0d0b054a 	cfstr32eq	mvfx0, [fp, #-296]	; 0xfffffed8
     7a4:	02000d05 	andeq	r0, r0, #320	; 0x140
     7a8:	03060104 	movweq	r0, #24836	; 0x6104
     7ac:	11052e14 	tstne	r5, r4, lsl lr
     7b0:	01040200 	mrseq	r0, R12_usr
     7b4:	002d0513 	eoreq	r0, sp, r3, lsl r5
     7b8:	06010402 	streq	r0, [r1], -r2, lsl #8
     7bc:	002a0501 	eoreq	r0, sl, r1, lsl #10
     7c0:	2e010402 	cdpcs	4, 0, cr0, cr1, cr2, {0}
     7c4:	02001605 	andeq	r1, r0, #5242880	; 0x500000
     7c8:	054a0104 	strbeq	r0, [sl, #-260]	; 0xfffffefc
     7cc:	04020014 	streq	r0, [r2], #-20	; 0xffffffec
     7d0:	054b0601 	strbeq	r0, [fp, #-1537]	; 0xfffff9ff
     7d4:	0402000d 	streq	r0, [r2], #-13
     7d8:	00010601 	andeq	r0, r1, r1, lsl #12
     7dc:	4a010402 	bmi	417ec <__bss_end__+0x3821c>
     7e0:	12052f06 	andne	r2, r5, #6, 30
     7e4:	054a0106 	strbeq	r0, [sl, #-262]	; 0xfffffefa
     7e8:	052f060d 	streq	r0, [pc, #-1549]!	; 1e3 <__code_start__-0x7e1d>
     7ec:	05010612 	streq	r0, [r1, #-1554]	; 0xfffff9ee
     7f0:	054b0619 	strbeq	r0, [fp, #-1561]	; 0xfffff9e7
     7f4:	04020004 	streq	r0, [r2], #-4
     7f8:	01110302 	tsteq	r1, r2, lsl #6
     7fc:	02040200 	andeq	r0, r4, #0, 4
     800:	00020501 	andeq	r0, r2, r1, lsl #10
     804:	15020402 	strne	r0, [r2, #-1026]	; 0xfffffbfe
     808:	02000905 	andeq	r0, r0, #81920	; 0x14000
     80c:	01060204 	tsteq	r6, r4, lsl #4
     810:	02040200 	andeq	r0, r4, #0, 4
     814:	0001054a 	andeq	r0, r1, sl, asr #10
     818:	9f020402 	svcls	0x00020402
     81c:	03060405 	movweq	r0, #25605	; 0x6405
     820:	09054a6e 	stmdbeq	r5, {r1, r2, r3, r5, r6, r9, fp, lr}
     824:	04050106 	streq	r0, [r5], #-262	; 0xfffffefa
     828:	06052f06 	streq	r2, [r5], -r6, lsl #30
     82c:	04051106 	streq	r1, [r5], #-262	; 0xfffffefa
     830:	030b052f 	movweq	r0, #46383	; 0xb52f
     834:	19052e63 	stmdbne	r5, {r0, r1, r5, r6, r9, sl, fp, sp}
     838:	01040200 	mrseq	r0, R12_usr
     83c:	2e240306 	cdpcs	3, 2, cr0, cr4, cr6, {0}
     840:	02001a05 	andeq	r1, r0, #20480	; 0x5000
     844:	05130104 	ldreq	r0, [r3, #-260]	; 0xfffffefc
     848:	04020028 	streq	r0, [r2], #-40	; 0xffffffd8
     84c:	05010601 	streq	r0, [r1, #-1537]	; 0xfffff9ff
     850:	04020025 	streq	r0, [r2], #-37	; 0xffffffdb
     854:	1f052e01 	svcne	0x00052e01
     858:	01040200 	mrseq	r0, R12_usr
     85c:	000b054a 	andeq	r0, fp, sl, asr #10
     860:	06010402 	streq	r0, [r1], -r2, lsl #8
     864:	0004054b 	andeq	r0, r4, fp, asr #10
     868:	06010402 	streq	r0, [r1], -r2, lsl #8
     86c:	04020001 	streq	r0, [r2], #-1
     870:	02004a01 	andeq	r4, r0, #4096	; 0x1000
     874:	4e060104 	adfmis	f0, f6, f4
     878:	01040200 	mrseq	r0, R12_usr
     87c:	04020001 	streq	r0, [r2], #-1
     880:	02000101 	andeq	r0, r0, #1073741824	; 0x40000000
     884:	00010104 	andeq	r0, r1, r4, lsl #2
     888:	06010402 	streq	r0, [r1], -r2, lsl #8
     88c:	0402002e 	streq	r0, [r2], #-46	; 0xffffffd2
     890:	02006601 	andeq	r6, r0, #1048576	; 0x100000
     894:	002e0104 	eoreq	r0, lr, r4, lsl #2
     898:	06010402 	streq	r0, [r1], -r2, lsl #8
     89c:	0348054a 	movteq	r0, #34122	; 0x854a
     8a0:	20087fa6 	andcs	r7, r8, r6, lsr #31
     8a4:	01130505 	tsteq	r3, r5, lsl #10
     8a8:	02002e06 	andeq	r2, r0, #96	; 0x60
     8ac:	2e060204 	cdpcs	2, 0, cr0, cr6, cr4, {0}
     8b0:	02040200 	andeq	r0, r4, #0, 4
     8b4:	04020001 	streq	r0, [r2], #-1
     8b8:	11051302 	tstne	r5, r2, lsl #6
     8bc:	02040200 	andeq	r0, r4, #0, 4
     8c0:	05050106 	streq	r0, [r5, #-262]	; 0xfffffefa
     8c4:	02040200 	andeq	r0, r4, #0, 4
     8c8:	07054b06 	streq	r4, [r5, -r6, lsl #22]
     8cc:	02040200 	andeq	r0, r4, #0, 4
     8d0:	09050106 	stmdbeq	r5, {r1, r2, r8}
     8d4:	0e054b06 	vmlaeq.f64	d4, d5, d6
     8d8:	48050106 	stmdami	r5, {r1, r2, r8}
     8dc:	01040200 	mrseq	r0, R12_usr
     8e0:	00050562 	andeq	r0, r5, r2, ror #10
     8e4:	06010402 	streq	r0, [r1], -r2, lsl #8
     8e8:	0402004b 	streq	r0, [r2], #-75	; 0xffffffb5
     8ec:	02000101 	andeq	r0, r0, #1073741824	; 0x40000000
     8f0:	9e060104 	adflss	f0, f6, f4
     8f4:	01040200 	mrseq	r0, R12_usr
     8f8:	0402002e 	streq	r0, [r2], #-46	; 0xffffffd2
     8fc:	052e0601 	streq	r0, [lr, #-1537]!	; 0xfffff9ff
     900:	00e10340 	rsceq	r0, r1, r0, asr #6
     904:	050106d6 	streq	r0, [r1, #-1750]	; 0xfffff92a
     908:	059f0602 	ldreq	r0, [pc, #1538]	; f12 <__code_start__-0x70ee>
     90c:	0501061e 	streq	r0, [r1, #-1566]	; 0xfffff9e2
     910:	05052e12 	streq	r2, [r5, #-3602]	; 0xfffff1ee
     914:	02052f06 	andeq	r2, r5, #6, 30
     918:	06090514 			; <UNDEFINED> instruction: 0x06090514
     91c:	06050501 	streq	r0, [r5], -r1, lsl #10
     920:	1302054b 	movwne	r0, #9547	; 0x254b
     924:	0d060805 	stceq	8, cr0, [r6, #-20]	; 0xffffffec
     928:	05330205 	ldreq	r0, [r3, #-517]!	; 0xfffffdfb
     92c:	054c0604 	strbeq	r0, [ip, #-1540]	; 0xfffff9fc
     930:	0501060f 	streq	r0, [r1, #-1551]	; 0xfffff9f1
     934:	08052e09 	stmdaeq	r5, {r0, r3, r9, sl, fp, sp}
     938:	02052c06 	andeq	r2, r5, #1536	; 0x600
     93c:	0d052e06 	stceq	14, cr2, [r5, #-24]	; 0xffffffe8
     940:	01040200 	mrseq	r0, R12_usr
     944:	0603054a 	streq	r0, [r3], -sl, asr #10
     948:	0605054b 	streq	r0, [r5], -fp, asr #10
     94c:	06080501 	streq	r0, [r8], -r1, lsl #10
     950:	060e054d 	streq	r0, [lr], -sp, asr #10
     954:	2e0a0501 	cfsh32cs	mvfx0, mvfx10, #1
     958:	2f060405 	svccs	0x00060405
     95c:	01060905 	tsteq	r6, r5, lsl #18
     960:	2f060405 	svccs	0x00060405
     964:	01060705 	tsteq	r6, r5, lsl #14
     968:	0604052e 	streq	r0, [r4], -lr, lsr #10
     96c:	06070530 			; <UNDEFINED> instruction: 0x06070530
     970:	06040501 	streq	r0, [r4], -r1, lsl #10
     974:	05141330 	ldreq	r1, [r4, #-816]	; 0xfffffcd0
     978:	0510060d 	ldreq	r0, [r0, #-1549]	; 0xfffff9f3
     97c:	05300609 	ldreq	r0, [r0, #-1545]!	; 0xfffff9f7
     980:	05010612 	streq	r0, [r1, #-1554]	; 0xfffff9ee
     984:	09052e0a 	stmdbeq	r5, {r1, r3, r9, sl, fp, sp}
     988:	06050566 	streq	r0, [r5], -r6, ror #10
     98c:	0612054b 	ldreq	r0, [r2], -fp, asr #10
     990:	2e160501 	cfmul32cs	mvfx0, mvfx6, mvfx1
     994:	052e0b05 	streq	r0, [lr, #-2821]!	; 0xfffff4fb
     998:	052f0605 	streq	r0, [pc, #-1541]!	; 39b <__code_start__-0x7c65>
     99c:	2e010608 	cfmadd32cs	mvax0, mvfx0, mvfx1, mvfx8
     9a0:	30060405 	andcc	r0, r6, r5, lsl #8
     9a4:	15014a01 	strne	r4, [r1, #-2561]	; 0xfffff5ff
     9a8:	01040200 	mrseq	r0, R12_usr
     9ac:	000f3602 	andeq	r3, pc, r2, lsl #12
     9b0:	01010402 	tsteq	r1, r2, lsl #8
     9b4:	01040200 	mrseq	r0, R12_usr
     9b8:	341105d6 	ldrcc	r0, [r1], #-1494	; 0xfffffa2a
     9bc:	02000113 	andeq	r0, r0, #-1073741820	; 0xc0000004
     9c0:	ba060204 	blt	1811d8 <__bss_end__+0x177c08>
     9c4:	03040200 	movweq	r0, #16896	; 0x4200
     9c8:	0200ba06 	andeq	fp, r0, #24576	; 0x6000
     9cc:	00010304 	andeq	r0, r1, r4, lsl #6
     9d0:	14030402 	strne	r0, [r3], #-1026	; 0xfffffbfe
     9d4:	02001505 	andeq	r1, r0, #20971520	; 0x1400000
     9d8:	01060304 	tsteq	r6, r4, lsl #6
     9dc:	02001105 	andeq	r1, r0, #1073741825	; 0x40000001
     9e0:	2f060304 	svccs	0x00060304
     9e4:	02001a05 	andeq	r1, r0, #20480	; 0x5000
     9e8:	01060304 	tsteq	r6, r4, lsl #6
     9ec:	02001105 	andeq	r1, r0, #1073741825	; 0x40000001
     9f0:	d7060304 	strle	r0, [r6, -r4, lsl #6]
     9f4:	03040200 	movweq	r0, #16896	; 0x4200
     9f8:	04020013 	streq	r0, [r2], #-19	; 0xffffffed
     9fc:	02001403 	andeq	r1, r0, #50331648	; 0x3000000
     a00:	00670304 	rsbeq	r0, r7, r4, lsl #6
     a04:	68030402 	stmdavs	r3, {r1, sl}
     a08:	02001405 	andeq	r1, r0, #83886080	; 0x5000000
     a0c:	01060304 	tsteq	r6, r4, lsl #6
     a10:	02001305 	andeq	r1, r0, #335544320	; 0x14000000
     a14:	05820304 	streq	r0, [r2, #772]	; 0x304
     a18:	054e0618 	strbeq	r0, [lr, #-1560]	; 0xfffff9e8
     a1c:	0501061b 	streq	r0, [r1, #-1563]	; 0xfffff9e5
     a20:	0905821a 	stmdbeq	r5, {r1, r3, r4, r9, pc}
     a24:	0d054b06 	vstreq	d4, [r5, #-24]	; 0xffffffe8
     a28:	052e0106 	streq	r0, [lr, #-262]!	; 0xfffffefa
     a2c:	06f30609 	ldrbteq	r0, [r3], r9, lsl #12
     a30:	061505ba 			; <UNDEFINED> instruction: 0x061505ba
     a34:	06180530 			; <UNDEFINED> instruction: 0x06180530
     a38:	66170501 	ldrvs	r0, [r7], -r1, lsl #10
     a3c:	4b061905 	blmi	186e58 <__bss_end__+0x17d888>
     a40:	03061505 	movweq	r1, #25861	; 0x6505
     a44:	1105666f 	tstne	r5, pc, ror #12
     a48:	d6014806 	strle	r4, [r1], -r6, lsl #16
     a4c:	0b030905 	bleq	c2e68 <__bss_end__+0xb9898>
     a50:	060d052e 	streq	r0, [sp], -lr, lsr #10
     a54:	09052e01 	stmdbeq	r5, {r0, r9, sl, fp, sp}
     a58:	ba06f306 	blt	1bd678 <__bss_end__+0x1b40a8>
     a5c:	2f061505 	svccs	0x00061505
     a60:	66750306 	ldrbtvs	r0, [r5], -r6, lsl #6
     a64:	03061905 	movweq	r1, #26885	; 0x6905
     a68:	15054a13 	strne	r4, [r5, #-2579]	; 0xfffff5ed
     a6c:	666d0306 	strbtvs	r0, [sp], -r6, lsl #6
     a70:	4a150306 	bmi	541690 <__bss_end__+0x5380c0>
     a74:	2e06ba01 	vmlacs.f32	s22, s12, s2
     a78:	1a060505 	bne	181e94 <__bss_end__+0x1788c4>
     a7c:	032e9e01 			; <UNDEFINED> instruction: 0x032e9e01
     a80:	0905010e 	stmdbeq	r5, {r1, r2, r3, r8}
     a84:	05050106 	streq	r0, [r5, #-262]	; 0xfffffefa
     a88:	05750806 	ldrbeq	r0, [r5, #-2054]!	; 0xfffff7fa
     a8c:	01180304 	tsteq	r8, r4, lsl #6
     a90:	01060705 	tsteq	r6, r5, lsl #14
     a94:	31060405 	tstcc	r6, r5, lsl #8
     a98:	67030505 	strvs	r0, [r3, -r5, lsl #10]
     a9c:	061c052e 	ldreq	r0, [ip], -lr, lsr #10
     aa0:	82090501 	andhi	r0, r9, #4194304	; 0x400000
     aa4:	f3060505 	vrshl.u8	d0, d5, d6
     aa8:	061c0531 			; <UNDEFINED> instruction: 0x061c0531
     aac:	82090501 	andhi	r0, r9, #4194304	; 0x400000
     ab0:	f3060505 	vrshl.u8	d0, d5, d6
     ab4:	061b0530 			; <UNDEFINED> instruction: 0x061b0530
     ab8:	82090501 	andhi	r0, r9, #4194304	; 0x400000
     abc:	f3060505 	vrshl.u8	d0, d5, d6
     ac0:	06070530 			; <UNDEFINED> instruction: 0x06070530
     ac4:	06050501 	streq	r0, [r5], -r1, lsl #10
     ac8:	09053083 	stmdbeq	r5, {r0, r1, r7, ip, sp}
     acc:	05050106 	streq	r0, [r5, #-262]	; 0xfffffefa
     ad0:	05750806 	ldrbeq	r0, [r5, #-2054]!	; 0xfffff7fa
     ad4:	22053011 	andcs	r3, r5, #17, 0
     ad8:	05050106 	streq	r0, [r5, #-262]	; 0xfffffefa
     adc:	11054b06 	tstne	r5, r6, lsl #22
     ae0:	83050583 	movwhi	r0, #21891	; 0x5583
     ae4:	05359e01 	ldreq	r9, [r5, #-3585]!	; 0xfffff1ff
     ae8:	0501060e 	streq	r0, [r1, #-1550]	; 0xfffff9f2
     aec:	2d062e0a 	stccs	14, cr2, [r6, #-40]	; 0xffffffd8
     af0:	01060405 	tsteq	r6, r5, lsl #8
     af4:	02001305 	andeq	r1, r0, #335544320	; 0x14000000
     af8:	054a0104 	strbeq	r0, [sl, #-260]	; 0xfffffefc
     afc:	04020010 	streq	r0, [r2], #-16
     b00:	02002e01 	andeq	r2, r0, #1, 28
     b04:	05660104 	strbeq	r0, [r6, #-260]!	; 0xfffffefc
     b08:	05160602 	ldreq	r0, [r6, #-1538]	; 0xfffff9fe
     b0c:	05010607 	streq	r0, [r1, #-1543]	; 0xfffff9f9
     b10:	054b0602 	strbeq	r0, [fp, #-1538]	; 0xfffff9fe
     b14:	66130601 	ldrvs	r0, [r3], -r1, lsl #12
     b18:	01001e02 	tsteq	r0, r2, lsl #28
     b1c:	0000c501 	andeq	ip, r0, r1, lsl #10
     b20:	84000300 	strhi	r0, [r0], #-768	; 0xfffffd00
     b24:	02000000 	andeq	r0, r0, #0, 0
     b28:	0d0efb01 	vstreq	d15, [lr, #-4]
     b2c:	01010100 	mrseq	r0, (UNDEF: 17)
     b30:	00000001 	andeq	r0, r0, r1
     b34:	01000001 	tsteq	r0, r1
     b38:	74732f2e 	ldrbtvc	r2, [r3], #-3886	; 0xfffff0d2
     b3c:	2d666661 	stclcs	6, cr6, [r6, #-388]!	; 0xfffffe7c
     b40:	00637273 	rsbeq	r7, r3, r3, ror r2
     b44:	6573552f 	ldrbvs	r5, [r3, #-1327]!	; 0xfffffad1
     b48:	742f7372 	strtvc	r7, [pc], #-882	; b50 <__code_start__-0x74b0>
     b4c:	74736972 	ldrbtvc	r6, [r3], #-2418	; 0xfffff68e
     b50:	6f6e6e65 	svcvs	0x006e6e65
     b54:	616d6c6c 	cmnvs	sp, ip, ror #24
     b58:	6f442f6e 	svcvs	0x00442f6e
     b5c:	656d7563 	strbvs	r7, [sp, #-1379]!	; 0xfffffa9d
     b60:	2f73746e 	svccs	0x0073746e
     b64:	69727053 	ldmdbvs	r2!, {r0, r1, r4, r6, ip, sp, lr}^
     b68:	515f676e 	cmppl	pc, lr, ror #14
     b6c:	74726175 	ldrbtvc	r6, [r2], #-373	; 0xfffffe8b
     b70:	325f7265 	subscc	r7, pc, #1342177286	; 0x50000006
     b74:	2f323230 	svccs	0x00323230
     b78:	34325343 	ldrtcc	r5, [r2], #-835	; 0xfffffcbd
     b7c:	2d584c30 	ldclcs	12, cr4, [r8, #-192]	; 0xffffff40
     b80:	32727073 	rsbscc	r7, r2, #115, 0	; 0x73
     b84:	6c2f2f32 	stcvs	15, cr2, [pc], #-200	; ac4 <__code_start__-0x753c>
     b88:	69706269 	ldmdbvs	r0!, {r0, r3, r5, r6, r9, sp, lr}^
     b8c:	636e692f 	cmnvs	lr, #770048	; 0xbc000
     b90:	6564756c 	strbvs	r7, [r4, #-1388]!	; 0xfffffa94
     b94:	61630000 	cmnvs	r3, r0
     b98:	2e656863 	cdpcs	8, 6, cr6, cr5, cr3, {3}
     b9c:	00010063 	andeq	r0, r1, r3, rrx
     ba0:	69707200 	ldmdbvs	r0!, {r9, ip, sp, lr}^
     ba4:	0200682e 	andeq	r6, r0, #3014656	; 0x2e0000
     ba8:	05000000 	streq	r0, [r0, #-0]
     bac:	02050019 	andeq	r0, r5, #25, 0
     bb0:	00008a08 	andeq	r8, r0, r8, lsl #20
     bb4:	13050514 	movwne	r0, #21780	; 0x5514
     bb8:	2f020513 	svccs	0x00020513
     bbc:	06040513 			; <UNDEFINED> instruction: 0x06040513
     bc0:	06050501 	streq	r0, [r5], -r1, lsl #10
     bc4:	0601052f 	streq	r0, [r1], -pc, lsr #10
     bc8:	061a052f 	ldreq	r0, [sl], -pc, lsr #10
     bcc:	13050531 	movwne	r0, #21809	; 0x5531
     bd0:	30020513 	andcc	r0, r2, r3, lsl r5
     bd4:	06040513 			; <UNDEFINED> instruction: 0x06040513
     bd8:	06050501 	streq	r0, [r5], -r1, lsl #10
     bdc:	0601052f 	streq	r0, [r1], -pc, lsr #10
     be0:	0002022f 	andeq	r0, r2, pc, lsr #4
     be4:	00a60101 	adceq	r0, r6, r1, lsl #2
     be8:	00030000 	andeq	r0, r3, r0
     bec:	0000008b 	andeq	r0, r0, fp, lsl #1
     bf0:	0efb0102 	cdpeq	1, 15, cr0, cr11, cr2, {0}
     bf4:	0101000d 	tsteq	r1, sp
     bf8:	00000101 	andeq	r0, r0, r1, lsl #2
     bfc:	00000100 	andeq	r0, r0, r0, lsl #2
     c00:	732f2e01 			; <UNDEFINED> instruction: 0x732f2e01
     c04:	66666174 			; <UNDEFINED> instruction: 0x66666174
     c08:	6372732d 	cmnvs	r2, #-1275068416	; 0xb4000000
     c0c:	73552f00 	cmpvc	r5, #0, 30
     c10:	2f737265 	svccs	0x00737265
     c14:	73697274 	cmnvc	r9, #116, 4	; 0x40000007
     c18:	6e6e6574 	mcrvs	5, 3, r6, cr14, cr4, {3}
     c1c:	6d6c6c6f 	stclvs	12, cr6, [ip, #-444]!	; 0xfffffe44
     c20:	442f6e61 	strtmi	r6, [pc], #-3681	; c28 <__code_start__-0x73d8>
     c24:	6d75636f 	ldclvs	3, cr6, [r5, #-444]!	; 0xfffffe44
     c28:	73746e65 	cmnvc	r4, #1616	; 0x650
     c2c:	7270532f 	rsbsvc	r5, r0, #-1140850688	; 0xbc000000
     c30:	5f676e69 	svcpl	0x00676e69
     c34:	72617551 	rsbvc	r7, r1, #339738624	; 0x14400000
     c38:	5f726574 	svcpl	0x00726574
     c3c:	32323032 	eorscc	r3, r2, #50, 0	; 0x32
     c40:	3253432f 	subscc	r4, r3, #-1140850688	; 0xbc000000
     c44:	584c3034 	stmdapl	ip, {r2, r4, r5, ip, sp}^
     c48:	7270732d 	rsbsvc	r7, r0, #-1275068416	; 0xb4000000
     c4c:	2f2f3232 	svccs	0x002f3232
     c50:	7062696c 	rsbvc	r6, r2, ip, ror #18
     c54:	6e692f69 	cdpvs	15, 6, cr2, cr9, cr9, {3}
     c58:	64756c63 	ldrbtvs	r6, [r5], #-3171	; 0xfffff39d
     c5c:	63000065 	movwvs	r0, #101	; 0x65
     c60:	6e61656c 	cdpvs	5, 6, cr6, cr1, cr12, {3}
     c64:	6265722d 	rsbvs	r7, r5, #-805306366	; 0xd0000002
     c68:	2e746f6f 	cdpcs	15, 7, cr6, cr4, cr15, {3}
     c6c:	00010063 	andeq	r0, r1, r3, rrx
     c70:	69707200 	ldmdbvs	r0!, {r9, ip, sp, lr}^
     c74:	0200682e 	andeq	r6, r0, #3014656	; 0x2e0000
     c78:	05000000 	streq	r0, [r0, #-0]
     c7c:	02050019 	andeq	r0, r5, #25, 0
     c80:	00008a28 	andeq	r8, r0, r8, lsr #20
     c84:	2f050515 	svccs	0x00050515
     c88:	024b2f83 	subeq	r2, fp, #524	; 0x20c
     c8c:	01010006 	tsteq	r1, r6
     c90:	000000c0 	andeq	r0, r0, r0, asr #1
     c94:	00850003 	addeq	r0, r5, r3
     c98:	01020000 	mrseq	r0, (UNDEF: 2)
     c9c:	000d0efb 	strdeq	r0, [sp], -fp
     ca0:	01010101 	tsteq	r1, r1, lsl #2
     ca4:	01000000 	mrseq	r0, (UNDEF: 0)
     ca8:	2e010000 	cdpcs	0, 0, cr0, cr1, cr0, {0}
     cac:	6174732f 	cmnvs	r4, pc, lsr #6
     cb0:	732d6666 			; <UNDEFINED> instruction: 0x732d6666
     cb4:	2f006372 	svccs	0x00006372
     cb8:	72657355 	rsbvc	r7, r5, #1409286145	; 0x54000001
     cbc:	72742f73 	rsbsvc	r2, r4, #460	; 0x1cc
     cc0:	65747369 	ldrbvs	r7, [r4, #-873]!	; 0xfffffc97
     cc4:	6c6f6e6e 	stclvs	14, cr6, [pc], #-440	; b14 <__code_start__-0x74ec>
     cc8:	6e616d6c 	cdpvs	13, 6, cr6, cr1, cr12, {3}
     ccc:	636f442f 	cmnvs	pc, #788529152	; 0x2f000000
     cd0:	6e656d75 	mcrvs	13, 3, r6, cr5, cr5, {3}
     cd4:	532f7374 			; <UNDEFINED> instruction: 0x532f7374
     cd8:	6e697270 	mcrvs	2, 3, r7, cr9, cr0, {3}
     cdc:	75515f67 	ldrbvc	r5, [r1, #-3943]	; 0xfffff099
     ce0:	65747261 	ldrbvs	r7, [r4, #-609]!	; 0xfffffd9f
     ce4:	30325f72 	eorscc	r5, r2, r2, ror pc
     ce8:	432f3232 			; <UNDEFINED> instruction: 0x432f3232
     cec:	30343253 	eorscc	r3, r4, r3, asr r2
     cf0:	732d584c 			; <UNDEFINED> instruction: 0x732d584c
     cf4:	32327270 	eorscc	r7, r2, #112, 4
     cf8:	696c2f2f 	stmdbvs	ip!, {r0, r1, r2, r3, r5, r8, r9, sl, fp, sp}^
     cfc:	2f697062 	svccs	0x00697062
     d00:	6c636e69 	stclvs	14, cr6, [r3], #-420	; 0xfffffe5c
     d04:	00656475 	rsbeq	r6, r5, r5, ror r4
     d08:	74736300 	ldrbtvc	r6, [r3], #-768	; 0xfffffd00
     d0c:	2e747261 	cdpcs	2, 7, cr7, cr4, cr1, {3}
     d10:	00010063 	andeq	r0, r1, r3, rrx
     d14:	69707200 	ldmdbvs	r0!, {r9, ip, sp, lr}^
     d18:	0200682e 	andeq	r6, r0, #3014656	; 0x2e0000
     d1c:	05000000 	streq	r0, [r0, #-0]
     d20:	02050010 	andeq	r0, r5, #16, 0
     d24:	00008a54 	andeq	r8, r0, r4, asr sl
     d28:	2f050515 	svccs	0x00050515
     d2c:	05130205 	ldreq	r0, [r3, #-517]	; 0xfffffdfb
     d30:	13301405 	teqne	r0, #83886080	; 0x5000000
     d34:	060a0514 			; <UNDEFINED> instruction: 0x060a0514
     d38:	0531060f 	ldreq	r0, [r1, #-1551]!	; 0xfffff9f1
     d3c:	10054b09 	andne	r4, r5, r9, lsl #22
     d40:	054a0106 	strbeq	r0, [sl, #-262]	; 0xfffffefa
     d44:	32300605 	eorscc	r0, r0, #5242880	; 0x500000
     d48:	144a0101 	strbne	r0, [sl], #-257	; 0xfffffeff
     d4c:	022f0205 	eoreq	r0, pc, #1342177280	; 0x50000000
     d50:	01010006 	tsteq	r1, r6
     d54:	000000a4 	andeq	r0, r0, r4, lsr #1
     d58:	008c0003 	addeq	r0, ip, r3
     d5c:	01020000 	mrseq	r0, (UNDEF: 2)
     d60:	000d0efb 	strdeq	r0, [sp], -fp
     d64:	01010101 	tsteq	r1, r1, lsl #2
     d68:	01000000 	mrseq	r0, (UNDEF: 0)
     d6c:	2e010000 	cdpcs	0, 0, cr0, cr1, cr0, {0}
     d70:	6174732f 	cmnvs	r4, pc, lsr #6
     d74:	732d6666 			; <UNDEFINED> instruction: 0x732d6666
     d78:	2f006372 	svccs	0x00006372
     d7c:	72657355 	rsbvc	r7, r5, #1409286145	; 0x54000001
     d80:	72742f73 	rsbsvc	r2, r4, #460	; 0x1cc
     d84:	65747369 	ldrbvs	r7, [r4, #-873]!	; 0xfffffc97
     d88:	6c6f6e6e 	stclvs	14, cr6, [pc], #-440	; bd8 <__code_start__-0x7428>
     d8c:	6e616d6c 	cdpvs	13, 6, cr6, cr1, cr12, {3}
     d90:	636f442f 	cmnvs	pc, #788529152	; 0x2f000000
     d94:	6e656d75 	mcrvs	13, 3, r6, cr5, cr5, {3}
     d98:	532f7374 			; <UNDEFINED> instruction: 0x532f7374
     d9c:	6e697270 	mcrvs	2, 3, r7, cr9, cr0, {3}
     da0:	75515f67 	ldrbvc	r5, [r1, #-3943]	; 0xfffff099
     da4:	65747261 	ldrbvs	r7, [r4, #-609]!	; 0xfffffd9f
     da8:	30325f72 	eorscc	r5, r2, r2, ror pc
     dac:	432f3232 			; <UNDEFINED> instruction: 0x432f3232
     db0:	30343253 	eorscc	r3, r4, r3, asr r2
     db4:	732d584c 			; <UNDEFINED> instruction: 0x732d584c
     db8:	32327270 	eorscc	r7, r2, #112, 4
     dbc:	696c2f2f 	stmdbvs	ip!, {r0, r1, r2, r3, r5, r8, r9, sl, fp, sp}^
     dc0:	2f697062 	svccs	0x00697062
     dc4:	6c636e69 	stclvs	14, cr6, [r3], #-420	; 0xfffffe5c
     dc8:	00656475 	rsbeq	r6, r5, r5, ror r4
     dcc:	73756300 	cmnvc	r5, #0, 6
     dd0:	2d6d6f74 	stclcs	15, cr6, [sp, #-464]!	; 0xfffffe30
     dd4:	64616f6c 	strbtvs	r6, [r1], #-3948	; 0xfffff094
     dd8:	632e7265 			; <UNDEFINED> instruction: 0x632e7265
     ddc:	00000100 	andeq	r0, r0, r0, lsl #2
     de0:	2e697072 	mcrcs	0, 3, r7, cr9, cr2, {3}
     de4:	00020068 	andeq	r0, r2, r8, rrx
     de8:	1a050000 	bne	140df0 <__bss_end__+0x137820>
     dec:	90020500 	andls	r0, r2, r0, lsl #10
     df0:	1500008a 	strne	r0, [r0, #-138]	; 0xffffff76
     df4:	02140105 	andseq	r0, r4, #1073741825	; 0x40000001
     df8:	01010002 	tsteq	r1, r2
     dfc:	000000f4 	strdeq	r0, [r0], -r4
     e00:	00850003 	addeq	r0, r5, r3
     e04:	01020000 	mrseq	r0, (UNDEF: 2)
     e08:	000d0efb 	strdeq	r0, [sp], -fp
     e0c:	01010101 	tsteq	r1, r1, lsl #2
     e10:	01000000 	mrseq	r0, (UNDEF: 0)
     e14:	2e010000 	cdpcs	0, 0, cr0, cr1, cr0, {0}
     e18:	6174732f 	cmnvs	r4, pc, lsr #6
     e1c:	732d6666 			; <UNDEFINED> instruction: 0x732d6666
     e20:	2f006372 	svccs	0x00006372
     e24:	72657355 	rsbvc	r7, r5, #1409286145	; 0x54000001
     e28:	72742f73 	rsbsvc	r2, r4, #460	; 0x1cc
     e2c:	65747369 	ldrbvs	r7, [r4, #-873]!	; 0xfffffc97
     e30:	6c6f6e6e 	stclvs	14, cr6, [pc], #-440	; c80 <__code_start__-0x7380>
     e34:	6e616d6c 	cdpvs	13, 6, cr6, cr1, cr12, {3}
     e38:	636f442f 	cmnvs	pc, #788529152	; 0x2f000000
     e3c:	6e656d75 	mcrvs	13, 3, r6, cr5, cr5, {3}
     e40:	532f7374 			; <UNDEFINED> instruction: 0x532f7374
     e44:	6e697270 	mcrvs	2, 3, r7, cr9, cr0, {3}
     e48:	75515f67 	ldrbvc	r5, [r1, #-3943]	; 0xfffff099
     e4c:	65747261 	ldrbvs	r7, [r4, #-609]!	; 0xfffffd9f
     e50:	30325f72 	eorscc	r5, r2, r2, ror pc
     e54:	432f3232 			; <UNDEFINED> instruction: 0x432f3232
     e58:	30343253 	eorscc	r3, r4, r3, asr r2
     e5c:	732d584c 			; <UNDEFINED> instruction: 0x732d584c
     e60:	32327270 	eorscc	r7, r2, #112, 4
     e64:	696c2f2f 	stmdbvs	ip!, {r0, r1, r2, r3, r5, r8, r9, sl, fp, sp}^
     e68:	2f697062 	svccs	0x00697062
     e6c:	6c636e69 	stclvs	14, cr6, [r3], #-420	; 0xfffffe5c
     e70:	00656475 	rsbeq	r6, r5, r5, ror r4
     e74:	62657200 	rsbvs	r7, r5, #0, 4
     e78:	2e746f6f 	cdpcs	15, 7, cr6, cr4, cr15, {3}
     e7c:	00010063 	andeq	r0, r1, r3, rrx
     e80:	69707200 	ldmdbvs	r0!, {r9, ip, sp, lr}^
     e84:	0200682e 	andeq	r6, r0, #3014656	; 0x2e0000
     e88:	05000000 	streq	r0, [r0, #-0]
     e8c:	02050019 	andeq	r0, r5, #25, 0
     e90:	00008a94 	muleq	r0, r4, sl
     e94:	05010d03 	streq	r0, [r1, #-3331]	; 0xfffff2fd
     e98:	31131305 	tstcc	r3, r5, lsl #6
     e9c:	01061305 	tsteq	r6, r5, lsl #6
     ea0:	052f0105 	streq	r0, [pc, #-261]!	; da3 <__code_start__-0x725d>
     ea4:	0585061b 	streq	r0, [r5, #1563]	; 0x61b
     ea8:	05141305 	ldreq	r1, [r4, #-773]	; 0xfffffcfb
     eac:	16052f09 	strne	r2, [r5], -r9, lsl #30
     eb0:	0e050106 	adfeqs	f0, f5, f6
     eb4:	0605052e 	streq	r0, [r5], -lr, lsr #10
     eb8:	0601052f 	streq	r0, [r1], -pc, lsr #10
     ebc:	0617052f 	ldreq	r0, [r7], -pc, lsr #10
     ec0:	2f050530 	svccs	0x00050530
     ec4:	01060805 	tsteq	r6, r5, lsl #16
     ec8:	052e0705 	streq	r0, [lr, #-1797]!	; 0xfffff8fb
     ecc:	30500605 	subscc	r0, r0, r5, lsl #12
     ed0:	13134d2f 	tstne	r3, #3008	; 0xbc0
     ed4:	00671513 	rsbeq	r1, r7, r3, lsl r5
     ed8:	67010402 	strvs	r0, [r1, -r2, lsl #8]
     edc:	02000d05 	andeq	r0, r0, #320	; 0x140
     ee0:	05010104 	streq	r0, [r1, #-260]	; 0xfffffefc
     ee4:	0402000a 	streq	r0, [r2], #-10
     ee8:	09050101 	stmdbeq	r5, {r0, r8}
     eec:	022e6d03 	eoreq	r6, lr, #192	; 0xc0
     ef0:	0101000c 	tsteq	r1, ip
     ef4:	000000fb 	strdeq	r0, [r0], -fp
     ef8:	00840003 	addeq	r0, r4, r3
     efc:	01020000 	mrseq	r0, (UNDEF: 2)
     f00:	000d0efb 	strdeq	r0, [sp], -fp
     f04:	01010101 	tsteq	r1, r1, lsl #2
     f08:	01000000 	mrseq	r0, (UNDEF: 0)
     f0c:	2e010000 	cdpcs	0, 0, cr0, cr1, cr0, {0}
     f10:	6174732f 	cmnvs	r4, pc, lsr #6
     f14:	732d6666 			; <UNDEFINED> instruction: 0x732d6666
     f18:	2f006372 	svccs	0x00006372
     f1c:	72657355 	rsbvc	r7, r5, #1409286145	; 0x54000001
     f20:	72742f73 	rsbsvc	r2, r4, #460	; 0x1cc
     f24:	65747369 	ldrbvs	r7, [r4, #-873]!	; 0xfffffc97
     f28:	6c6f6e6e 	stclvs	14, cr6, [pc], #-440	; d78 <__code_start__-0x7288>
     f2c:	6e616d6c 	cdpvs	13, 6, cr6, cr1, cr12, {3}
     f30:	636f442f 	cmnvs	pc, #788529152	; 0x2f000000
     f34:	6e656d75 	mcrvs	13, 3, r6, cr5, cr5, {3}
     f38:	532f7374 			; <UNDEFINED> instruction: 0x532f7374
     f3c:	6e697270 	mcrvs	2, 3, r7, cr9, cr0, {3}
     f40:	75515f67 	ldrbvc	r5, [r1, #-3943]	; 0xfffff099
     f44:	65747261 	ldrbvs	r7, [r4, #-609]!	; 0xfffffd9f
     f48:	30325f72 	eorscc	r5, r2, r2, ror pc
     f4c:	432f3232 			; <UNDEFINED> instruction: 0x432f3232
     f50:	30343253 	eorscc	r3, r4, r3, asr r2
     f54:	732d584c 			; <UNDEFINED> instruction: 0x732d584c
     f58:	32327270 	eorscc	r7, r2, #112, 4
     f5c:	696c2f2f 	stmdbvs	ip!, {r0, r1, r2, r3, r5, r8, r9, sl, fp, sp}^
     f60:	2f697062 	svccs	0x00697062
     f64:	6c636e69 	stclvs	14, cr6, [r3], #-420	; 0xfffffe5c
     f68:	00656475 	rsbeq	r6, r5, r5, ror r4
     f6c:	6d697400 	cfstrdvs	mvd7, [r9, #-0]
     f70:	632e7265 			; <UNDEFINED> instruction: 0x632e7265
     f74:	00000100 	andeq	r0, r0, r0, lsl #2
     f78:	2e697072 	mcrcs	0, 3, r7, cr9, cr2, {3}
     f7c:	00020068 	andeq	r0, r2, r8, rrx
     f80:	23050000 	movwcs	r0, #20480	; 0x5000
     f84:	14020500 	strne	r0, [r2], #-1280	; 0xfffffb00
     f88:	1500008b 	strne	r0, [r0, #-139]	; 0xffffff75
     f8c:	052f0505 	streq	r0, [pc, #-1285]!	; a8f <__code_start__-0x7571>
     f90:	0501060c 	streq	r0, [r1, #-1548]	; 0xfffff9f4
     f94:	1f054b01 	svcne	0x00054b01
     f98:	05054d06 	streq	r4, [r5, #-3334]	; 0xfffff2fa
     f9c:	12052f31 	andne	r2, r5, #196	; 0xc4
     fa0:	05050106 	streq	r0, [r5, #-262]	; 0xfffffefa
     fa4:	052f4b06 	streq	r4, [pc, #-2822]!	; 4a6 <__code_start__-0x7b5a>
     fa8:	05130601 	ldreq	r0, [r3, #-1537]	; 0xfffff9ff
     fac:	064c061c 			; <UNDEFINED> instruction: 0x064c061c
     fb0:	06050501 	streq	r0, [r5], -r1, lsl #10
     fb4:	0613054b 	ldreq	r0, [r3], -fp, asr #10
     fb8:	05052e01 	streq	r2, [r5, #-3585]	; 0xfffff1ff
     fbc:	09052f06 	stmdbeq	r5, {r1, r2, r8, r9, sl, fp, sp}
     fc0:	06170513 			; <UNDEFINED> instruction: 0x06170513
     fc4:	06090501 	streq	r0, [r9], -r1, lsl #10
     fc8:	0611052f 	ldreq	r0, [r1], -pc, lsr #10
     fcc:	2e0c0501 	cfsh32cs	mvfx0, mvfx12, #1
     fd0:	6b061c05 	blvs	187fec <__bss_end__+0x17ea1c>
     fd4:	05050106 	streq	r0, [r5, #-262]	; 0xfffffefa
     fd8:	4a062f06 	bmi	18cbf8 <__bss_end__+0x183628>
     fdc:	054b0105 	strbeq	r0, [fp, #-261]	; 0xfffffefb
     fe0:	062f061e 			; <UNDEFINED> instruction: 0x062f061e
     fe4:	06050501 	streq	r0, [r5], -r1, lsl #10
     fe8:	054a062f 	strbeq	r0, [sl, #-1583]	; 0xfffff9d1
     fec:	02024b01 	andeq	r4, r2, #1024	; 0x400
     ff0:	ba010100 	blt	413f8 <__bss_end__+0x37e28>
     ff4:	03000001 	movweq	r0, #1
     ff8:	0000be00 	andeq	fp, r0, r0, lsl #28
     ffc:	fb010200 	blx	41806 <__bss_end__+0x38236>
    1000:	01000d0e 	tsteq	r0, lr, lsl #26
    1004:	00010101 	andeq	r0, r1, r1, lsl #2
    1008:	00010000 	andeq	r0, r1, r0
    100c:	682f0100 	stmdavs	pc!, {r8}	; <UNPREDICTABLE>
    1010:	2f656d6f 	svccs	0x00656d6f
    1014:	6c676e65 	stclvs	14, cr6, [r7], #-404	; 0xfffffe6c
    1018:	632f7265 			; <UNDEFINED> instruction: 0x632f7265
    101c:	7373616c 	cmnvc	r3, #27
    1020:	3173632f 	cmncc	r3, pc, lsr #6
    1024:	2d653034 	stclcs	0, cr3, [r5, #-208]!	; 0xffffff30
    1028:	69773232 	ldmdbvs	r7!, {r1, r4, r5, r9, ip, sp}^
    102c:	6c2f2f6e 	stcvs	15, cr2, [pc], #-440	; e7c <__code_start__-0x7184>
    1030:	69706269 	ldmdbvs	r0!, {r0, r3, r5, r6, r9, sp, lr}^
    1034:	636e692f 	cmnvs	lr, #770048	; 0xbc000
    1038:	6564756c 	strbvs	r7, [r4, #-1388]!	; 0xfffffa94
    103c:	73752f00 	cmnvc	r5, #0, 30
    1040:	68732f72 	ldmdavs	r3!, {r1, r4, r5, r6, r8, r9, sl, fp, sp}^
    1044:	2f657261 	svccs	0x00657261
    1048:	2d636367 	stclcs	3, cr6, [r3, #-412]!	; 0xfffffe64
    104c:	2d6d7261 	sfmcs	f7, 2, [sp, #-388]!	; 0xfffffe7c
    1050:	656e6f6e 	strbvs	r6, [lr, #-3950]!	; 0xfffff092
    1054:	6261652d 	rsbvs	r6, r1, #188743680	; 0xb400000
    1058:	30312d69 	eorscc	r2, r1, r9, ror #26
    105c:	322d332e 	eorcc	r3, sp, #-1207959552	; 0xb8000000
    1060:	2e313230 	mrccs	2, 1, r3, cr1, cr0, {1}
    1064:	6c2f3031 	stcvs	0, cr3, [pc], #-196	; fa8 <__code_start__-0x7058>
    1068:	672f6269 	strvs	r6, [pc, -r9, ror #4]!
    106c:	612f6363 			; <UNDEFINED> instruction: 0x612f6363
    1070:	6e2d6d72 	mcrvs	13, 1, r6, cr13, cr2, {3}
    1074:	2d656e6f 	stclcs	14, cr6, [r5, #-444]!	; 0xfffffe44
    1078:	69626165 	stmdbvs	r2!, {r0, r2, r5, r6, r8, sp, lr}^
    107c:	2e30312f 	rsfcssp	f3, f0, #10.0
    1080:	2f312e33 	svccs	0x00312e33
    1084:	6c636e69 	stclvs	14, cr6, [r3], #-420	; 0xfffffe5c
    1088:	00656475 	rsbeq	r6, r5, r5, ror r4
    108c:	69706700 	ldmdbvs	r0!, {r8, r9, sl, sp, lr}^
    1090:	00632e6f 	rsbeq	r2, r3, pc, ror #28
    1094:	72000000 	andvc	r0, r0, #0, 0
    1098:	682e6970 	stmdavs	lr!, {r4, r5, r6, r8, fp, sp, lr}
    109c:	00000100 	andeq	r0, r0, r0, lsl #2
    10a0:	69647473 	stmdbvs	r4!, {r0, r1, r4, r5, r6, sl, ip, sp, lr}^
    10a4:	672d746e 	strvs	r7, [sp, -lr, ror #8]!
    10a8:	682e6363 	stmdavs	lr!, {r0, r1, r5, r6, r8, r9, sp, lr}
    10ac:	00000200 	andeq	r0, r0, r0, lsl #4
    10b0:	6f697067 	svcvs	0x00697067
    10b4:	0100682e 	tsteq	r0, lr, lsr #16
    10b8:	05000000 	streq	r0, [r0, #-0]
    10bc:	02050038 	andeq	r0, r5, #56, 0	; 0x38
    10c0:	00008b98 	muleq	r0, r8, fp
    10c4:	05012703 	streq	r2, [r1, #-1795]	; 0xfffff8fd
    10c8:	07051305 	streq	r1, [r5, -r5, lsl #6]
    10cc:	38050106 	stmdacc	r5, {r1, r2, r8}
    10d0:	06050549 	streq	r0, [r5], -r9, asr #10
    10d4:	0607054d 	streq	r0, [r7], -sp, asr #10
    10d8:	06050501 	streq	r0, [r5], -r1, lsl #10
    10dc:	0618054c 	ldreq	r0, [r8], -ip, asr #10
    10e0:	ba0e0501 	blt	3824ec <__bss_end__+0x378f1c>
    10e4:	2f060505 	svccs	0x00060505
    10e8:	01061c05 	tsteq	r6, r5, lsl #24
    10ec:	2e0e052e 	cfsh32cs	mvfx0, mvfx14, #30
    10f0:	30060505 	andcc	r0, r6, r5, lsl #10
    10f4:	01061205 	tsteq	r6, r5, lsl #4
    10f8:	4b060505 	blmi	182514 <__bss_end__+0x178f44>
    10fc:	01060705 	tsteq	r6, r5, lsl #14
    1100:	4b060505 	blmi	18251c <__bss_end__+0x178f4c>
    1104:	052e0613 	streq	r0, [lr, #-1555]!	; 0xfffff9ed
    1108:	24054b01 	strcs	r4, [r5], #-2817	; 0xfffff4ff
    110c:	01064c06 	tsteq	r6, r6, lsl #24
    1110:	2f060505 	svccs	0x00060505
    1114:	4b060105 	blmi	181530 <__bss_end__+0x177f60>
    1118:	31062005 	tstcc	r6, r5
    111c:	05130505 	ldreq	r0, [r3, #-1285]	; 0xfffffafb
    1120:	05010607 	streq	r0, [r1, #-1543]	; 0xfffff9f9
    1124:	05054920 	streq	r4, [r5, #-2336]	; 0xfffff6e0
    1128:	66063106 	strvs	r3, [r6], -r6, lsl #2
    112c:	052f0105 	streq	r0, [pc, #-261]!	; 102f <__code_start__-0x6fd1>
    1130:	054d0621 	strbeq	r0, [sp, #-1569]	; 0xfffff9df
    1134:	07051305 	streq	r1, [r5, -r5, lsl #6]
    1138:	21050106 	tstcs	r5, r6, lsl #2
    113c:	06050549 	streq	r0, [r5], -r9, asr #10
    1140:	05660631 	strbeq	r0, [r6, #-1585]!	; 0xfffff9cf
    1144:	23052f01 	movwcs	r2, #24321	; 0x5f01
    1148:	01064d06 	tsteq	r6, r6, lsl #26
    114c:	2f060505 	svccs	0x00060505
    1150:	4b060105 	blmi	18156c <__bss_end__+0x177f9c>
    1154:	31062b05 	tstcc	r6, r5, lsl #22
    1158:	05050106 	streq	r0, [r5, #-262]	; 0xfffffefa
    115c:	07052f06 	streq	r2, [r5, -r6, lsl #30]
    1160:	09050106 	stmdbeq	r5, {r1, r2, r8}
    1164:	2e064b06 	vmlacs.f64	d4, d6, d6
    1168:	01053006 	tsteq	r5, r6
    116c:	1d052f06 	stcne	15, cr2, [r5, #-24]	; 0xffffffe8
    1170:	05053006 	streq	r3, [r5, #-6]
    1174:	06070513 			; <UNDEFINED> instruction: 0x06070513
    1178:	491d0501 	ldmdbmi	sp, {r0, r8, sl}
    117c:	31060505 	tstcc	r6, r5, lsl #10
    1180:	060e0513 			; <UNDEFINED> instruction: 0x060e0513
    1184:	06050501 	streq	r0, [r5], -r1, lsl #10
    1188:	0617052f 	ldreq	r0, [r7], -pc, lsr #10
    118c:	23054a01 	movwcs	r4, #23041	; 0x5a01
    1190:	0502042e 	streq	r0, [r2, #-1070]	; 0xfffffbd2
    1194:	d7030630 	smladxle	r3, r0, r6, r0
    1198:	01042e00 	tsteq	r4, r0, lsl #28
    119c:	03060c05 	movweq	r0, #27653	; 0x6c05
    11a0:	05017fa9 	streq	r7, [r1, #-4009]	; 0xfffff057
    11a4:	10052f01 	andne	r2, r5, r1, lsl #30
    11a8:	3201052a 	andcc	r0, r1, #176160768	; 0xa800000
    11ac:	01000402 	tsteq	r0, r2, lsl #8
    11b0:	00020401 	andeq	r0, r2, r1, lsl #8
    11b4:	c8000300 	stmdagt	r0, {r8, r9}
    11b8:	02000000 	andeq	r0, r0, #0, 0
    11bc:	0d0efb01 	vstreq	d15, [lr, #-4]
    11c0:	01010100 	mrseq	r0, (UNDEF: 17)
    11c4:	00000001 	andeq	r0, r0, r1
    11c8:	01000001 	tsteq	r0, r1
    11cc:	6d6f682f 	stclvs	8, cr6, [pc, #-188]!	; 1118 <__code_start__-0x6ee8>
    11d0:	6e652f65 	cdpvs	15, 6, cr2, cr5, cr5, {3}
    11d4:	72656c67 	rsbvc	r6, r5, #26368	; 0x6700
    11d8:	616c632f 	cmnvs	ip, pc, lsr #6
    11dc:	632f7373 			; <UNDEFINED> instruction: 0x632f7373
    11e0:	30343173 	eorscc	r3, r4, r3, ror r1
    11e4:	32322d65 	eorscc	r2, r2, #6464	; 0x1940
    11e8:	2f6e6977 	svccs	0x006e6977
    11ec:	62696c2f 	rsbvs	r6, r9, #12032	; 0x2f00
    11f0:	692f6970 	stmdbvs	pc!, {r4, r5, r6, r8, fp, sp, lr}	; <UNPREDICTABLE>
    11f4:	756c636e 	strbvc	r6, [ip, #-878]!	; 0xfffffc92
    11f8:	2f006564 	svccs	0x00006564
    11fc:	2f727375 	svccs	0x00727375
    1200:	72616873 	rsbvc	r6, r1, #7536640	; 0x730000
    1204:	63672f65 	cmnvs	r7, #404	; 0x194
    1208:	72612d63 	rsbvc	r2, r1, #6336	; 0x18c0
    120c:	6f6e2d6d 	svcvs	0x006e2d6d
    1210:	652d656e 	strvs	r6, [sp, #-1390]!	; 0xfffffa92
    1214:	2d696261 	sfmcs	f6, 2, [r9, #-388]!	; 0xfffffe7c
    1218:	332e3031 			; <UNDEFINED> instruction: 0x332e3031
    121c:	3230322d 	eorscc	r3, r0, #-805306366	; 0xd0000002
    1220:	30312e31 	eorscc	r2, r1, r1, lsr lr
    1224:	62696c2f 	rsbvs	r6, r9, #12032	; 0x2f00
    1228:	6363672f 	cmnvs	r3, #12320768	; 0xbc0000
    122c:	6d72612f 	ldfvse	f6, [r2, #-188]!	; 0xffffff44
    1230:	6e6f6e2d 	cdpvs	14, 6, cr6, cr15, cr13, {1}
    1234:	61652d65 	cmnvs	r5, r5, ror #26
    1238:	312f6962 			; <UNDEFINED> instruction: 0x312f6962
    123c:	2e332e30 	mrccs	14, 1, r2, cr3, cr0, {1}
    1240:	6e692f31 	mcrvs	15, 3, r2, cr9, cr1, {1}
    1244:	64756c63 	ldrbtvs	r6, [r5], #-3171	; 0xfffff39d
    1248:	75000065 	strvc	r0, [r0, #-101]	; 0xffffff9b
    124c:	2e747261 	cdpcs	2, 7, cr7, cr4, cr1, {3}
    1250:	00000063 	andeq	r0, r0, r3, rrx
    1254:	72617500 	rsbvc	r7, r1, #0, 10
    1258:	00682e74 	rsbeq	r2, r8, r4, ror lr
    125c:	72000001 	andvc	r0, r0, #1, 0
    1260:	682e6970 	stmdavs	lr!, {r4, r5, r6, r8, fp, sp, lr}
    1264:	00000100 	andeq	r0, r0, r0, lsl #2
    1268:	6f697067 	svcvs	0x00697067
    126c:	0100682e 	tsteq	r0, lr, lsr #16
    1270:	74730000 	ldrbtvc	r0, [r3], #-0
    1274:	746e6964 	strbtvc	r6, [lr], #-2404	; 0xfffff69c
    1278:	6363672d 	cmnvs	r3, #11796480	; 0xb40000
    127c:	0200682e 	andeq	r6, r0, #3014656	; 0x2e0000
    1280:	05000000 	streq	r0, [r0, #-0]
    1284:	02050039 	andeq	r0, r5, #57, 0	; 0x39
    1288:	00008cb4 			; <UNDEFINED> instruction: 0x00008cb4
    128c:	06013003 	streq	r3, [r1], -r3
    1290:	06050501 	streq	r0, [r5], -r1, lsl #10
    1294:	06110567 	ldreq	r0, [r1], -r7, ror #10
    1298:	2e050501 	cfsh32cs	mvfx0, mvfx5, #1
    129c:	05670105 	strbeq	r0, [r7, #-261]!	; 0xfffffefb
    12a0:	06290638 			; <UNDEFINED> instruction: 0x06290638
    12a4:	06050501 	streq	r0, [r5], -r1, lsl #10
    12a8:	06110567 	ldreq	r0, [r1], -r7, ror #10
    12ac:	2e050501 	cfsh32cs	mvfx0, mvfx5, #1
    12b0:	05670105 	strbeq	r0, [r7, #-261]!	; 0xfffffefb
    12b4:	15030616 	strne	r0, [r3, #-1558]	; 0xfffff9ea
    12b8:	3505052e 	strcc	r0, [r5, #-1326]	; 0xfffffad2
    12bc:	68356867 	ldmdavs	r5!, {r0, r1, r2, r5, r6, fp, sp, lr}
    12c0:	852e0c03 	strhi	r0, [lr, #-3075]!	; 0xfffff3fd
    12c4:	0369696b 	cmneq	r9, #1753088	; 0x1ac000
    12c8:	6b13660c 	blvs	4dab00 <__bss_end__+0x4d1530>
    12cc:	06010567 	streq	r0, [r1], -r7, ror #10
    12d0:	0619052f 	ldreq	r0, [r9], -pc, lsr #10
    12d4:	05052508 	streq	r2, [r5, #-1288]	; 0xfffffaf8
    12d8:	060d0534 			; <UNDEFINED> instruction: 0x060d0534
    12dc:	4c010501 	cfstr32mi	mvfx0, [r1], {1}
    12e0:	67061905 	strvs	r1, [r6, -r5, lsl #18]
    12e4:	05360505 	ldreq	r0, [r6, #-1285]!	; 0xfffffafb
    12e8:	0501060d 	streq	r0, [r1, #-1549]	; 0xfffff9f3
    12ec:	01054a28 	tsteq	r5, r8, lsr #20
    12f0:	06150530 			; <UNDEFINED> instruction: 0x06150530
    12f4:	2f050587 	svccs	0x00050587
    12f8:	0009052f 	andeq	r0, r9, pc, lsr #10
    12fc:	13010402 	movwne	r0, #5122	; 0x1402
    1300:	02000a05 	andeq	r0, r0, #20480	; 0x5000
    1304:	05110104 	ldreq	r0, [r1, #-260]	; 0xfffffefc
    1308:	0402000c 	streq	r0, [r2], #-12
    130c:	05010601 	streq	r0, [r1, #-1537]	; 0xfffff9ff
    1310:	0402000a 	streq	r0, [r2], #-10
    1314:	05052e01 	streq	r2, [r5, #-3585]	; 0xfffff1ff
    1318:	0e054c06 	cdpeq	12, 0, cr4, cr5, cr6, {0}
    131c:	09050106 	stmdbeq	r5, {r1, r2, r8}
    1320:	0605054a 	streq	r0, [r5], -sl, asr #10
    1324:	01052f2f 	tsteq	r5, pc, lsr #30
    1328:	1c051306 	stcne	3, cr1, [r5], {6}
    132c:	01066706 	tsteq	r6, r6, lsl #14
    1330:	4b060505 	blmi	18274c <__bss_end__+0x17917c>
    1334:	0009052f 	andeq	r0, r9, pc, lsr #10
    1338:	13010402 	movwne	r0, #5122	; 0x1402
    133c:	02000a05 	andeq	r0, r0, #20480	; 0x5000
    1340:	05110104 	ldreq	r0, [r1, #-260]	; 0xfffffefc
    1344:	0402000c 	streq	r0, [r2], #-12
    1348:	05010601 	streq	r0, [r1, #-1537]	; 0xfffff9ff
    134c:	0402000a 	streq	r0, [r2], #-10
    1350:	05052e01 	streq	r2, [r5, #-3585]	; 0xfffff1ff
    1354:	05674c06 	strbeq	r4, [r7, #-3078]!	; 0xfffff3fa
    1358:	052f0601 	streq	r0, [pc, #-1537]!	; d5f <__code_start__-0x72a1>
    135c:	054c0619 	strbeq	r0, [ip, #-1561]	; 0xfffff9e7
    1360:	2a052e1b 	bcs	14cbd4 <__bss_end__+0x143604>
    1364:	0631052e 	ldrteq	r0, [r1], -lr, lsr #10
    1368:	2e420501 	cdpcs	5, 4, cr0, cr2, cr1, {0}
    136c:	31061c05 	tstcc	r6, r5, lsl #24
    1370:	032f0505 			; <UNDEFINED> instruction: 0x032f0505
    1374:	0e052e09 	cdpeq	14, 0, cr2, cr5, cr9, {0}
    1378:	21050106 	tstcs	r5, r6, lsl #2
    137c:	0301054a 	movweq	r0, #5450	; 0x154a
    1380:	1a052e0a 	bne	14cbb0 <__bss_end__+0x1435e0>
    1384:	09056806 	stmdbeq	r5, {r1, r2, fp, sp, lr}
    1388:	01040200 	mrseq	r0, R12_usr
    138c:	000a0530 	andeq	r0, sl, r0, lsr r5
    1390:	11010402 	tstne	r1, r2, lsl #8
    1394:	02000c05 	andeq	r0, r0, #1280	; 0x500
    1398:	01060104 	tsteq	r6, r4, lsl #2
    139c:	02000a05 	andeq	r0, r0, #20480	; 0x5000
    13a0:	052e0104 	streq	r0, [lr, #-260]!	; 0xfffffefc
    13a4:	e8030619 	stmda	r3, {r0, r3, r4, r9, sl}
    13a8:	0505667e 	streq	r6, [r5, #-1662]	; 0xfffff982
    13ac:	672f2f2f 	strvs	r2, [pc, -pc, lsr #30]!
    13b0:	2f060105 	svccs	0x00060105
    13b4:	01000402 	tsteq	r0, r2, lsl #8
    13b8:	0000bf01 	andeq	fp, r0, r1, lsl #30
    13bc:	81000300 	mrshi	r0, LR_irq
    13c0:	02000000 	andeq	r0, r0, #0, 0
    13c4:	0d0efb01 	vstreq	d15, [lr, #-4]
    13c8:	01010100 	mrseq	r0, (UNDEF: 17)
    13cc:	00000001 	andeq	r0, r0, r1
    13d0:	01000001 	tsteq	r0, r1
    13d4:	696c2f2e 	stmdbvs	ip!, {r1, r2, r3, r5, r8, r9, sl, fp, sp}^
    13d8:	2f006362 	svccs	0x00006362
    13dc:	72657355 	rsbvc	r7, r5, #1409286145	; 0x54000001
    13e0:	72742f73 	rsbsvc	r2, r4, #460	; 0x1cc
    13e4:	65747369 	ldrbvs	r7, [r4, #-873]!	; 0xfffffc97
    13e8:	6c6f6e6e 	stclvs	14, cr6, [pc], #-440	; 1238 <__code_start__-0x6dc8>
    13ec:	6e616d6c 	cdpvs	13, 6, cr6, cr1, cr12, {3}
    13f0:	636f442f 	cmnvs	pc, #788529152	; 0x2f000000
    13f4:	6e656d75 	mcrvs	13, 3, r6, cr5, cr5, {3}
    13f8:	532f7374 			; <UNDEFINED> instruction: 0x532f7374
    13fc:	6e697270 	mcrvs	2, 3, r7, cr9, cr0, {3}
    1400:	75515f67 	ldrbvc	r5, [r1, #-3943]	; 0xfffff099
    1404:	65747261 	ldrbvs	r7, [r4, #-609]!	; 0xfffffd9f
    1408:	30325f72 	eorscc	r5, r2, r2, ror pc
    140c:	432f3232 			; <UNDEFINED> instruction: 0x432f3232
    1410:	30343253 	eorscc	r3, r4, r3, asr r2
    1414:	732d584c 			; <UNDEFINED> instruction: 0x732d584c
    1418:	32327270 	eorscc	r7, r2, #112, 4
    141c:	696c2f2f 	stmdbvs	ip!, {r0, r1, r2, r3, r5, r8, r9, sl, fp, sp}^
    1420:	2f697062 	svccs	0x00697062
    1424:	6c636e69 	stclvs	14, cr6, [r3], #-420	; 0xfffffe5c
    1428:	00656475 	rsbeq	r6, r5, r5, ror r4
    142c:	74757000 	ldrbtvc	r7, [r5], #-0
    1430:	72616863 	rsbvc	r6, r1, #6488064	; 0x630000
    1434:	0100632e 	tsteq	r0, lr, lsr #6
    1438:	70720000 	rsbsvc	r0, r2, r0
    143c:	00682e69 	rsbeq	r2, r8, r9, ror #28
    1440:	00000002 	andeq	r0, r0, r2
    1444:	05002405 	streq	r2, [r0, #-1029]	; 0xfffffbfb
    1448:	008ea402 	addeq	sl, lr, r2, lsl #8
    144c:	01061400 	tsteq	r6, r0, lsl #8
    1450:	4a062605 	bmi	18ac6c <__bss_end__+0x18169c>
    1454:	052e3405 	streq	r3, [lr, #-1029]!	; 0xfffffbfb
    1458:	05010601 	streq	r0, [r1, #-1537]	; 0xfffff9ff
    145c:	054f061b 	strbeq	r0, [pc, #-1563]	; e49 <__code_start__-0x71b7>
    1460:	11051305 	tstne	r5, r5, lsl #6
    1464:	01050106 	tsteq	r5, r6, lsl #2
    1468:	06230567 	strteq	r0, [r3], -r7, ror #10
    146c:	13050567 	movwne	r0, #21863	; 0x5567
    1470:	01061105 	tsteq	r6, r5, lsl #2
    1474:	024b0105 	subeq	r0, fp, #1073741825	; 0x40000001
    1478:	01010004 	tsteq	r1, r4
    147c:	0000010b 	andeq	r0, r0, fp, lsl #2
    1480:	00800003 	addeq	r0, r0, r3
    1484:	01020000 	mrseq	r0, (UNDEF: 2)
    1488:	000d0efb 	strdeq	r0, [sp], -fp
    148c:	01010101 	tsteq	r1, r1, lsl #2
    1490:	01000000 	mrseq	r0, (UNDEF: 0)
    1494:	2e010000 	cdpcs	0, 0, cr0, cr1, cr0, {0}
    1498:	62696c2f 	rsbvs	r6, r9, #12032	; 0x2f00
    149c:	552f0063 	strpl	r0, [pc, #-99]!	; 1441 <__code_start__-0x6bbf>
    14a0:	73726573 	cmnvc	r2, #482344960	; 0x1cc00000
    14a4:	6972742f 	ldmdbvs	r2!, {r0, r1, r2, r3, r5, sl, ip, sp, lr}^
    14a8:	6e657473 	mcrvs	4, 3, r7, cr5, cr3, {3}
    14ac:	6c6c6f6e 	stclvs	15, cr6, [ip], #-440	; 0xfffffe48
    14b0:	2f6e616d 	svccs	0x006e616d
    14b4:	75636f44 	strbvc	r6, [r3, #-3908]!	; 0xfffff0bc
    14b8:	746e656d 	strbtvc	r6, [lr], #-1389	; 0xfffffa93
    14bc:	70532f73 	subsvc	r2, r3, r3, ror pc
    14c0:	676e6972 			; <UNDEFINED> instruction: 0x676e6972
    14c4:	6175515f 	cmnvs	r5, pc, asr r1
    14c8:	72657472 	rsbvc	r7, r5, #1912602624	; 0x72000000
    14cc:	3230325f 	eorscc	r3, r0, #-268435451	; 0xf0000005
    14d0:	53432f32 	movtpl	r2, #16178	; 0x3f32
    14d4:	4c303432 	cfldrsmi	mvf3, [r0], #-200	; 0xffffff38
    14d8:	70732d58 	rsbsvc	r2, r3, r8, asr sp
    14dc:	2f323272 	svccs	0x00323272
    14e0:	62696c2f 	rsbvs	r6, r9, #12032	; 0x2f00
    14e4:	692f6970 	stmdbvs	pc!, {r4, r5, r6, r8, fp, sp, lr}	; <UNPREDICTABLE>
    14e8:	756c636e 	strbvc	r6, [ip, #-878]!	; 0xfffffc92
    14ec:	00006564 	andeq	r6, r0, r4, ror #10
    14f0:	63727473 	cmnvs	r2, #1929379840	; 0x73000000
    14f4:	632e7461 			; <UNDEFINED> instruction: 0x632e7461
    14f8:	00000100 	andeq	r0, r0, r0, lsl #2
    14fc:	2e697072 	mcrcs	0, 3, r7, cr9, cr2, {3}
    1500:	00020068 	andeq	r0, r2, r8, rrx
    1504:	2c050000 	stccs	0, cr0, [r5], {-0}
    1508:	e0020500 	and	r0, r2, r0, lsl #10
    150c:	1500008e 	strne	r0, [r0, #-142]	; 0xffffff72
    1510:	13130505 	tstne	r3, #20971520	; 0x1400000
    1514:	11060b05 	tstne	r6, r5, lsl #22
    1518:	02000505 	andeq	r0, r0, #20971520	; 0x1400000
    151c:	30060104 	andcc	r0, r6, r4, lsl #2
    1520:	01040200 	mrseq	r0, R12_usr
    1524:	00090515 	andeq	r0, r9, r5, lsl r5
    1528:	13010402 	movwne	r0, #5122	; 0x1402
    152c:	02001005 	andeq	r1, r0, #5, 0
    1530:	2e060104 	adfcss	f0, f6, f4
    1534:	02000b05 	andeq	r0, r0, #5120	; 0x1400
    1538:	002e0104 	eoreq	r0, lr, r4, lsl #2
    153c:	06010402 	streq	r0, [r1], -r2, lsl #8
    1540:	0005052f 	andeq	r0, r5, pc, lsr #10
    1544:	06010402 	streq	r0, [r1], -r2, lsl #8
    1548:	054e0601 	strbeq	r0, [lr, #-1537]	; 0xfffff9ff
    154c:	05010608 	streq	r0, [r1, #-1544]	; 0xfffff9f8
    1550:	04020005 	streq	r0, [r2], #-5
    1554:	052f0601 	streq	r0, [pc, #-1537]!	; f5b <__code_start__-0x70a5>
    1558:	04020009 	streq	r0, [r2], #-9
    155c:	0b051301 	bleq	146168 <__bss_end__+0x13cb98>
    1560:	01040200 	mrseq	r0, R12_usr
    1564:	09050106 	stmdbeq	r5, {r1, r2, r8}
    1568:	01040200 	mrseq	r0, R12_usr
    156c:	0f054b06 	svceq	0x00054b06
    1570:	01040200 	mrseq	r0, R12_usr
    1574:	0d050106 	stfeqs	f0, [r5, #-24]	; 0xffffffe8
    1578:	01040200 	mrseq	r0, R12_usr
    157c:	05052f06 	streq	r2, [r5, #-3846]	; 0xfffff0fa
    1580:	01040200 	mrseq	r0, R12_usr
    1584:	06020106 	streq	r0, [r2], -r6, lsl #2
    1588:	c4010100 	strgt	r0, [r1], #-256	; 0xffffff00
    158c:	03000000 	movweq	r0, #0
    1590:	00008000 	andeq	r8, r0, r0
    1594:	fb010200 	blx	41d9e <__bss_end__+0x387ce>
    1598:	01000d0e 	tsteq	r0, lr, lsl #26
    159c:	00010101 	andeq	r0, r1, r1, lsl #2
    15a0:	00010000 	andeq	r0, r1, r0
    15a4:	2f2e0100 	svccs	0x002e0100
    15a8:	6362696c 	cmnvs	r2, #108, 18	; 0x1b0000
    15ac:	73552f00 	cmpvc	r5, #0, 30
    15b0:	2f737265 	svccs	0x00737265
    15b4:	73697274 	cmnvc	r9, #116, 4	; 0x40000007
    15b8:	6e6e6574 	mcrvs	5, 3, r6, cr14, cr4, {3}
    15bc:	6d6c6c6f 	stclvs	12, cr6, [ip, #-444]!	; 0xfffffe44
    15c0:	442f6e61 	strtmi	r6, [pc], #-3681	; 15c8 <__code_start__-0x6a38>
    15c4:	6d75636f 	ldclvs	3, cr6, [r5, #-444]!	; 0xfffffe44
    15c8:	73746e65 	cmnvc	r4, #1616	; 0x650
    15cc:	7270532f 	rsbsvc	r5, r0, #-1140850688	; 0xbc000000
    15d0:	5f676e69 	svcpl	0x00676e69
    15d4:	72617551 	rsbvc	r7, r1, #339738624	; 0x14400000
    15d8:	5f726574 	svcpl	0x00726574
    15dc:	32323032 	eorscc	r3, r2, #50, 0	; 0x32
    15e0:	3253432f 	subscc	r4, r3, #-1140850688	; 0xbc000000
    15e4:	584c3034 	stmdapl	ip, {r2, r4, r5, ip, sp}^
    15e8:	7270732d 	rsbsvc	r7, r0, #-1275068416	; 0xb4000000
    15ec:	2f2f3232 	svccs	0x002f3232
    15f0:	7062696c 	rsbvc	r6, r2, ip, ror #18
    15f4:	6e692f69 	cdpvs	15, 6, cr2, cr9, cr9, {3}
    15f8:	64756c63 	ldrbtvs	r6, [r5], #-3171	; 0xfffff39d
    15fc:	73000065 	movwvc	r0, #101	; 0x65
    1600:	6d637274 	sfmvs	f7, 2, [r3, #-464]!	; 0xfffffe30
    1604:	00632e70 	rsbeq	r2, r3, r0, ror lr
    1608:	72000001 	andvc	r0, r0, #1, 0
    160c:	682e6970 	stmdavs	lr!, {r4, r5, r6, r8, fp, sp, lr}
    1610:	00000200 	andeq	r0, r0, r0, lsl #4
    1614:	002a0500 	eoreq	r0, sl, r0, lsl #10
    1618:	8f140205 	svchi	0x00140205
    161c:	05140000 	ldreq	r0, [r4, #-0]
    1620:	0f051309 	svceq	0x00051309
    1624:	06100501 	ldreq	r0, [r0], -r1, lsl #10
    1628:	2e0f0501 	cfsh32cs	mvfx0, mvfx15, #1
    162c:	02001c05 	andeq	r1, r0, #1280	; 0x500
    1630:	054a0104 	strbeq	r0, [sl, #-260]	; 0xfffffefc
    1634:	04020013 	streq	r0, [r2], #-19	; 0xffffffed
    1638:	11052e01 	tstne	r5, r1, lsl #28
    163c:	16052f06 	strne	r2, [r5], -r6, lsl #30
    1640:	052e2e06 	streq	r2, [lr, #-3590]!	; 0xfffff1fa
    1644:	052f0609 	streq	r0, [pc, #-1545]!	; 1043 <__code_start__-0x6fbd>
    1648:	05010615 	streq	r0, [r1, #-1557]	; 0xfffff9eb
    164c:	04022f01 	streq	r2, [r2], #-3841	; 0xfffff0ff
    1650:	c2010100 	andgt	r0, r1, #0
    1654:	03000000 	movweq	r0, #0
    1658:	00008000 	andeq	r8, r0, r0
    165c:	fb010200 	blx	41e66 <__bss_end__+0x38896>
    1660:	01000d0e 	tsteq	r0, lr, lsl #26
    1664:	00010101 	andeq	r0, r1, r1, lsl #2
    1668:	00010000 	andeq	r0, r1, r0
    166c:	2f2e0100 	svccs	0x002e0100
    1670:	6362696c 	cmnvs	r2, #108, 18	; 0x1b0000
    1674:	73552f00 	cmpvc	r5, #0, 30
    1678:	2f737265 	svccs	0x00737265
    167c:	73697274 	cmnvc	r9, #116, 4	; 0x40000007
    1680:	6e6e6574 	mcrvs	5, 3, r6, cr14, cr4, {3}
    1684:	6d6c6c6f 	stclvs	12, cr6, [ip, #-444]!	; 0xfffffe44
    1688:	442f6e61 	strtmi	r6, [pc], #-3681	; 1690 <__code_start__-0x6970>
    168c:	6d75636f 	ldclvs	3, cr6, [r5, #-444]!	; 0xfffffe44
    1690:	73746e65 	cmnvc	r4, #1616	; 0x650
    1694:	7270532f 	rsbsvc	r5, r0, #-1140850688	; 0xbc000000
    1698:	5f676e69 	svcpl	0x00676e69
    169c:	72617551 	rsbvc	r7, r1, #339738624	; 0x14400000
    16a0:	5f726574 	svcpl	0x00726574
    16a4:	32323032 	eorscc	r3, r2, #50, 0	; 0x32
    16a8:	3253432f 	subscc	r4, r3, #-1140850688	; 0xbc000000
    16ac:	584c3034 	stmdapl	ip, {r2, r4, r5, ip, sp}^
    16b0:	7270732d 	rsbsvc	r7, r0, #-1275068416	; 0xb4000000
    16b4:	2f2f3232 	svccs	0x002f3232
    16b8:	7062696c 	rsbvc	r6, r2, ip, ror #18
    16bc:	6e692f69 	cdpvs	15, 6, cr2, cr9, cr9, {3}
    16c0:	64756c63 	ldrbtvs	r6, [r5], #-3171	; 0xfffff39d
    16c4:	73000065 	movwvc	r0, #101	; 0x65
    16c8:	70637274 	rsbvc	r7, r3, r4, ror r2
    16cc:	00632e79 	rsbeq	r2, r3, r9, ror lr
    16d0:	72000001 	andvc	r0, r0, #1, 0
    16d4:	682e6970 	stmdavs	lr!, {r4, r5, r6, r8, fp, sp, lr}
    16d8:	00000200 	andeq	r0, r0, r0, lsl #4
    16dc:	002a0500 	eoreq	r0, sl, r0, lsl #10
    16e0:	8f400205 	svchi	0x00400205
    16e4:	05140000 	ldreq	r0, [r4, #-0]
    16e8:	05131305 	ldreq	r1, [r3, #-773]	; 0xfffffcfb
    16ec:	05110614 	ldreq	r0, [r1, #-1556]	; 0xfffff9ec
    16f0:	04020022 	streq	r0, [r2], #-34	; 0xffffffde
    16f4:	052f0601 	streq	r0, [pc, #-1537]!	; 10fb <__code_start__-0x6f05>
    16f8:	0402000b 	streq	r0, [r2], #-11
    16fc:	15050101 	strne	r0, [r5, #-257]	; 0xfffffeff
    1700:	01040200 	mrseq	r0, R12_usr
    1704:	13050106 	movwne	r0, #20742	; 0x5106
    1708:	01040200 	mrseq	r0, R12_usr
    170c:	000b054a 	andeq	r0, fp, sl, asr #10
    1710:	4a010402 	bmi	42720 <__bss_end__+0x39150>
    1714:	01000602 	tsteq	r0, r2, lsl #12
    1718:	00012201 	andeq	r2, r1, r1, lsl #4
    171c:	e6000300 	str	r0, [r0], -r0, lsl #6
    1720:	02000000 	andeq	r0, r0, #0, 0
    1724:	0d0efb01 	vstreq	d15, [lr, #-4]
    1728:	01010100 	mrseq	r0, (UNDEF: 17)
    172c:	00000001 	andeq	r0, r0, r1
    1730:	01000001 	tsteq	r0, r1
    1734:	696c2f2e 	stmdbvs	ip!, {r1, r2, r3, r5, r8, r9, sl, fp, sp}^
    1738:	2f006362 	svccs	0x00006362
    173c:	72657355 	rsbvc	r7, r5, #1409286145	; 0x54000001
    1740:	72742f73 	rsbsvc	r2, r4, #460	; 0x1cc
    1744:	65747369 	ldrbvs	r7, [r4, #-873]!	; 0xfffffc97
    1748:	6c6f6e6e 	stclvs	14, cr6, [pc], #-440	; 1598 <__code_start__-0x6a68>
    174c:	6e616d6c 	cdpvs	13, 6, cr6, cr1, cr12, {3}
    1750:	636f442f 	cmnvs	pc, #788529152	; 0x2f000000
    1754:	6e656d75 	mcrvs	13, 3, r6, cr5, cr5, {3}
    1758:	532f7374 			; <UNDEFINED> instruction: 0x532f7374
    175c:	6e697270 	mcrvs	2, 3, r7, cr9, cr0, {3}
    1760:	75515f67 	ldrbvc	r5, [r1, #-3943]	; 0xfffff099
    1764:	65747261 	ldrbvs	r7, [r4, #-609]!	; 0xfffffd9f
    1768:	30325f72 	eorscc	r5, r2, r2, ror pc
    176c:	432f3232 			; <UNDEFINED> instruction: 0x432f3232
    1770:	30343253 	eorscc	r3, r4, r3, asr r2
    1774:	732d584c 			; <UNDEFINED> instruction: 0x732d584c
    1778:	32327270 	eorscc	r7, r2, #112, 4
    177c:	696c2f2f 	stmdbvs	ip!, {r0, r1, r2, r3, r5, r8, r9, sl, fp, sp}^
    1780:	2f697062 	svccs	0x00697062
    1784:	6c636e69 	stclvs	14, cr6, [r3], #-420	; 0xfffffe5c
    1788:	00656475 	rsbeq	r6, r5, r5, ror r4
    178c:	7273752f 	rsbsvc	r7, r3, #197132288	; 0xbc00000
    1790:	636f6c2f 	cmnvs	pc, #12032	; 0x2f00
    1794:	432f6c61 			; <UNDEFINED> instruction: 0x432f6c61
    1798:	616c6c65 	cmnvs	ip, r5, ror #24
    179c:	72612f72 	rsbvc	r2, r1, #456	; 0x1c8
    17a0:	6f6e2d6d 	svcvs	0x006e2d6d
    17a4:	652d656e 	strvs	r6, [sp, #-1390]!	; 0xfffffa92
    17a8:	2d696261 	sfmcs	f6, 2, [r9, #-388]!	; 0xfffffe7c
    17ac:	74736574 	ldrbtvc	r6, [r3], #-1396	; 0xfffffa8c
    17b0:	322d392f 	eorcc	r3, sp, #770048	; 0xbc000
    17b4:	71393130 	teqvc	r9, r0, lsr r1
    17b8:	73632d34 	cmnvc	r3, #52, 26	; 0xd00
    17bc:	65373031 	ldrvs	r3, [r7, #-49]!	; 0xffffffcf
    17c0:	62696c2f 	rsbvs	r6, r9, #12032	; 0x2f00
    17c4:	6363672f 	cmnvs	r3, #12320768	; 0xbc0000
    17c8:	6d72612f 	ldfvse	f6, [r2, #-188]!	; 0xffffff44
    17cc:	6e6f6e2d 	cdpvs	14, 6, cr6, cr15, cr13, {1}
    17d0:	61652d65 	cmnvs	r5, r5, ror #26
    17d4:	392f6962 	stmdbcc	pc!, {r1, r5, r6, r8, fp, sp, lr}	; <UNPREDICTABLE>
    17d8:	312e322e 			; <UNDEFINED> instruction: 0x312e322e
    17dc:	636e692f 	cmnvs	lr, #770048	; 0xbc000
    17e0:	6564756c 	strbvs	r7, [r4, #-1388]!	; 0xfffffa94
    17e4:	74730000 	ldrbtvc	r0, [r3], #-0
    17e8:	6d636e72 	stclvs	14, cr6, [r3, #-456]!	; 0xfffffe38
    17ec:	00632e70 	rsbeq	r2, r3, r0, ror lr
    17f0:	72000001 	andvc	r0, r0, #1, 0
    17f4:	682e6970 	stmdavs	lr!, {r4, r5, r6, r8, fp, sp, lr}
    17f8:	00000200 	andeq	r0, r0, r0, lsl #4
    17fc:	64647473 	strbtvs	r7, [r4], #-1139	; 0xfffffb8d
    1800:	682e6665 	stmdavs	lr!, {r0, r2, r5, r6, r9, sl, sp, lr}
    1804:	00000300 	andeq	r0, r0, r0, lsl #6
    1808:	00390500 	eorseq	r0, r9, r0, lsl #10
    180c:	8f600205 	svchi	0x00600205
    1810:	05150000 	ldreq	r0, [r5, #-0]
    1814:	05131305 	ldreq	r1, [r3, #-773]	; 0xfffffcfb
    1818:	0106010a 	tsteq	r6, sl, lsl #2
    181c:	0609054a 	streq	r0, [r9], -sl, asr #10
    1820:	060c052f 	streq	r0, [ip], -pc, lsr #10
    1824:	2e130501 	cfmul32cs	mvfx0, mvfx3, mvfx1
    1828:	052e0b05 	streq	r0, [lr, #-2821]!	; 0xfffff4fb
    182c:	054b060d 	strbeq	r0, [fp, #-1549]	; 0xfffff9f3
    1830:	2e01061b 	mcrcs	6, 0, r0, cr1, cr11, {0}
    1834:	05300c05 	ldreq	r0, [r0, #-3077]!	; 0xfffff3fb
    1838:	02022f01 	andeq	r2, r2, #1, 30
    183c:	b1010100 	mrslt	r0, (UNDEF: 17)
    1840:	03000000 	movweq	r0, #0
    1844:	00009500 	andeq	r9, r0, r0, lsl #10
    1848:	fb010200 	blx	42052 <__bss_end__+0x38a82>
    184c:	01000d0e 	tsteq	r0, lr, lsl #26
    1850:	00010101 	andeq	r0, r1, r1, lsl #2
    1854:	00010000 	andeq	r0, r1, r0
    1858:	2f2e0100 	svccs	0x002e0100
    185c:	66617473 			; <UNDEFINED> instruction: 0x66617473
    1860:	72732d66 	rsbsvc	r2, r3, #6528	; 0x1980
    1864:	552f0063 	strpl	r0, [pc, #-99]!	; 1809 <__code_start__-0x67f7>
    1868:	73726573 	cmnvc	r2, #482344960	; 0x1cc00000
    186c:	6972742f 	ldmdbvs	r2!, {r0, r1, r2, r3, r5, sl, ip, sp, lr}^
    1870:	6e657473 	mcrvs	4, 3, r7, cr5, cr3, {3}
    1874:	6c6c6f6e 	stclvs	15, cr6, [ip], #-440	; 0xfffffe48
    1878:	2f6e616d 	svccs	0x006e616d
    187c:	75636f44 	strbvc	r6, [r3, #-3908]!	; 0xfffff0bc
    1880:	746e656d 	strbtvc	r6, [lr], #-1389	; 0xfffffa93
    1884:	70532f73 	subsvc	r2, r3, r3, ror pc
    1888:	676e6972 			; <UNDEFINED> instruction: 0x676e6972
    188c:	6175515f 	cmnvs	r5, pc, asr r1
    1890:	72657472 	rsbvc	r7, r5, #1912602624	; 0x72000000
    1894:	3230325f 	eorscc	r3, r0, #-268435451	; 0xf0000005
    1898:	53432f32 	movtpl	r2, #16178	; 0x3f32
    189c:	4c303432 	cfldrsmi	mvf3, [r0], #-200	; 0xffffff38
    18a0:	70732d58 	rsbsvc	r2, r3, r8, asr sp
    18a4:	2f323272 	svccs	0x00323272
    18a8:	62696c2f 	rsbvs	r6, r9, #12032	; 0x2f00
    18ac:	692f6970 	stmdbvs	pc!, {r4, r5, r6, r8, fp, sp, lr}	; <UNPREDICTABLE>
    18b0:	756c636e 	strbvc	r6, [ip, #-878]!	; 0xfffffc92
    18b4:	00006564 	andeq	r6, r0, r4, ror #10
    18b8:	61666564 	cmnvs	r6, r4, ror #10
    18bc:	2d746c75 	ldclcs	12, cr6, [r4, #-468]!	; 0xfffffe2c
    18c0:	6f626572 	svcvs	0x00626572
    18c4:	632d746f 			; <UNDEFINED> instruction: 0x632d746f
    18c8:	6f6c6c61 	svcvs	0x006c6c61
    18cc:	632e7475 			; <UNDEFINED> instruction: 0x632e7475
    18d0:	00000100 	andeq	r0, r0, r0, lsl #2
    18d4:	2e697072 	mcrcs	0, 3, r7, cr9, cr2, {3}
    18d8:	00020068 	andeq	r0, r2, r8, rrx
    18dc:	1b050000 	blne	1418e4 <__bss_end__+0x138314>
    18e0:	8c020500 	cfstr32hi	mvfx0, [r2], {-0}
    18e4:	1400008f 	strne	r0, [r0], #-143	; 0xffffff71
    18e8:	05011c05 	streq	r1, [r1, #-3077]	; 0xfffff3fb
    18ec:	02010601 	andeq	r0, r1, #1048576	; 0x100000
    18f0:	01010002 	tsteq	r1, r2

Disassembly of section .debug_str:

00000000 <.debug_str>:
   0:	726f6873 	rsbvc	r6, pc, #7536640	; 0x730000
   4:	6e692074 	mcrvs	0, 3, r2, cr9, cr4, {3}
   8:	61660074 	smcvs	24580	; 0x6004
   c:	675f7473 			; <UNDEFINED> instruction: 0x675f7473
  10:	5f6f6970 	svcpl	0x006f6970
  14:	64616572 	strbtvs	r6, [r1], #-1394	; 0xfffffa8e
  18:	756f5f00 	strbvc	r5, [pc, #-3840]!	; fffff120 <__bss_end__+0xffff5b50>
  1c:	70720074 	rsbsvc	r0, r2, r4, ror r0
  20:	75705f69 	ldrbvc	r5, [r0, #-3945]!	; 0xfffff097
  24:	61686374 	smcvs	34356	; 0x8634
  28:	63730072 	cmnvs	r3, #114, 0	; 0x72
  2c:	2e65706f 	cdpcs	0, 6, cr7, cr5, cr15, {3}
  30:	6c630063 	stclvs	0, cr0, [r3], #-396	; 0xfffffe74
  34:	5f6e6165 	svcpl	0x006e6165
  38:	6f626572 	svcvs	0x00626572
  3c:	7400746f 	strvc	r7, [r0], #-1135	; 0xfffffb91
  40:	655f746f 	ldrbvs	r7, [pc, #-1135]	; fffffbd9 <__bss_end__+0xffff6609>
  44:	6c007272 	sfmvs	f7, 4, [r0], {114}	; 0x72
  48:	655f676f 	ldrbvs	r6, [pc, #-1903]	; fffff8e1 <__bss_end__+0xffff6311>
  4c:	745f746e 	ldrbvc	r7, [pc], #-1134	; 54 <__code_start__-0x7fac>
  50:	72756300 	rsbsvc	r6, r5, #0, 6
  54:	79635f72 	stmdbvc	r3!, {r1, r4, r5, r6, r8, r9, sl, fp, ip, lr}^
  58:	6c660063 	stclvs	0, cr0, [r6], #-396	; 0xfffffe74
  5c:	5f687375 	svcpl	0x00687375
  60:	5f6c6c61 	svcpl	0x006c6c61
  64:	68636163 	stmdavs	r3!, {r0, r1, r5, r6, r8, sp, lr}^
  68:	75007365 	strvc	r7, [r0, #-869]	; 0xfffffc9b
  6c:	5f636573 	svcpl	0x00636573
  70:	635f6f74 	cmpvs	pc, #116, 30	; 0x1d0
  74:	656c6379 	strbvs	r6, [ip, #-889]!	; 0xfffffc87
  78:	6e6f6c00 	cdpvs	12, 6, cr6, cr15, cr0, {0}
  7c:	6f6c2067 	svcvs	0x006c2067
  80:	6920676e 	stmdbvs	r0!, {r1, r2, r3, r5, r6, r8, r9, sl, sp, lr}
  84:	6d00746e 	cfstrsvs	mvf7, [r0, #-440]	; 0xfffffe48
  88:	5f636573 	svcpl	0x00636573
  8c:	635f6f74 	cmpvs	pc, #116, 30	; 0x1d0
  90:	656c6379 	strbvs	r6, [ip, #-889]!	; 0xfffffc87
  94:	72657000 	rsbvc	r7, r5, #0, 0
  98:	00646f69 	rsbeq	r6, r4, r9, ror #30
  9c:	55465f5f 	strbpl	r5, [r6, #-3935]	; 0xfffff0a1
  a0:	4954434e 	ldmdbmi	r4, {r1, r2, r3, r6, r8, r9, lr}^
  a4:	5f5f4e4f 	svcpl	0x005f4e4f
  a8:	79636e00 	stmdbvc	r3!, {r9, sl, fp, sp, lr}^
  ac:	552f0063 	strpl	r0, [pc, #-99]!	; 51 <__code_start__-0x7faf>
  b0:	73726573 	cmnvc	r2, #482344960	; 0x1cc00000
  b4:	6972742f 	ldmdbvs	r2!, {r0, r1, r2, r3, r5, sl, ip, sp, lr}^
  b8:	6e657473 	mcrvs	4, 3, r7, cr5, cr3, {3}
  bc:	6c6c6f6e 	stclvs	15, cr6, [ip], #-440	; 0xfffffe48
  c0:	2f6e616d 	svccs	0x006e616d
  c4:	75636f44 	strbvc	r6, [r3, #-3908]!	; 0xfffff0bc
  c8:	746e656d 	strbtvc	r6, [lr], #-1389	; 0xfffffa93
  cc:	70532f73 	subsvc	r2, r3, r3, ror pc
  d0:	676e6972 			; <UNDEFINED> instruction: 0x676e6972
  d4:	6175515f 	cmnvs	r5, pc, asr r1
  d8:	72657472 	rsbvc	r7, r5, #1912602624	; 0x72000000
  dc:	3230325f 	eorscc	r3, r0, #-268435451	; 0xf0000005
  e0:	53432f32 	movtpl	r2, #16178	; 0x3f32
  e4:	4c303432 	cfldrsmi	mvf3, [r0], #-200	; 0xffffff38
  e8:	70732d58 	rsbsvc	r2, r3, r8, asr sp
  ec:	2f323272 	svccs	0x00323272
  f0:	7362616c 	cmnvc	r2, #27
  f4:	642d332f 	strtvs	r3, [sp], #-815	; 0xfffffcd1
  f8:	74696769 	strbtvc	r6, [r9], #-1897	; 0xfffff897
  fc:	612d6c61 			; <UNDEFINED> instruction: 0x612d6c61
 100:	796c616e 	stmdbvc	ip!, {r1, r2, r3, r5, r6, r8, sp, lr}^
 104:	2f72657a 	svccs	0x0072657a
 108:	65646f63 	strbvs	r6, [r4, #-3939]!	; 0xfffff09d
 10c:	6f63732f 	svcvs	0x0063732f
 110:	75006570 	strvc	r6, [r0, #-1392]	; 0xfffffa90
 114:	6769736e 	strbvs	r7, [r9, -lr, ror #6]!
 118:	2064656e 	rsbcs	r6, r4, lr, ror #10
 11c:	72616863 	rsbvc	r6, r1, #6488064	; 0x630000
 120:	79636e00 	stmdbvc	r3!, {r9, sl, fp, sp, lr}^
 124:	73656c63 	cmnvc	r5, #25344	; 0x6300
 128:	6e6f6c00 	cdpvs	12, 6, cr6, cr15, cr0, {0}
 12c:	6f6c2067 	svcvs	0x006c2067
 130:	7520676e 	strvc	r6, [r0, #-1902]!	; 0xfffff892
 134:	6769736e 	strbvs	r7, [r9, -lr, ror #6]!
 138:	2064656e 	rsbcs	r6, r4, lr, ror #10
 13c:	00746e69 	rsbseq	r6, r4, r9, ror #28
 140:	62616e65 	rsbvs	r6, r1, #1616	; 0x650
 144:	635f656c 	cmpvs	pc, #108, 10	; 0x1b000000
 148:	65686361 	strbvs	r6, [r8, #-865]!	; 0xfffffc9f
 14c:	746f6e00 	strbtvc	r6, [pc], #-3584	; 154 <__code_start__-0x7eac>
 150:	6e69616d 	powvsez	f6, f1, #5.0
 154:	6f687300 	svcvs	0x00687300
 158:	75207472 	strvc	r7, [r0, #-1138]!	; 0xfffffb8e
 15c:	6769736e 	strbvs	r7, [r9, -lr, ror #6]!
 160:	2064656e 	rsbcs	r6, r4, lr, ror #10
 164:	00746e69 	rsbseq	r6, r4, r9, ror #28
 168:	5f78616d 	svcpl	0x0078616d
 16c:	6c637963 			; <UNDEFINED> instruction: 0x6c637963
 170:	73007365 	movwvc	r7, #869	; 0x365
 174:	00706f74 	rsbseq	r6, r0, r4, ror pc
 178:	20554e47 	subscs	r4, r5, r7, asr #28
 17c:	20393943 	eorscs	r3, r9, r3, asr #18
 180:	2e322e39 	mrccs	14, 1, r2, cr2, cr9, {1}
 184:	30322031 	eorscc	r2, r2, r1, lsr r0
 188:	30313931 	eorscc	r3, r1, r1, lsr r9
 18c:	28203532 	stmdacs	r0!, {r1, r4, r5, r8, sl, ip, sp}
 190:	656c6572 	strbvs	r6, [ip, #-1394]!	; 0xfffffa8e
 194:	29657361 	stmdbcs	r5!, {r0, r5, r6, r8, r9, ip, sp, lr}^
 198:	52415b20 	subpl	r5, r1, #32, 22	; 0x8000
 19c:	72612f4d 	rsbvc	r2, r1, #308	; 0x134
 1a0:	2d392d6d 	ldccs	13, cr2, [r9, #-436]!	; 0xfffffe4c
 1a4:	6e617262 	cdpvs	2, 6, cr7, cr1, cr2, {3}
 1a8:	72206863 	eorvc	r6, r0, #6488064	; 0x630000
 1ac:	73697665 	cmnvc	r9, #105906176	; 0x6500000
 1b0:	206e6f69 	rsbcs	r6, lr, r9, ror #30
 1b4:	35373732 	ldrcc	r3, [r7, #-1842]!	; 0xfffff8ce
 1b8:	205d3939 	subscs	r3, sp, r9, lsr r9
 1bc:	70636d2d 	rsbvc	r6, r3, sp, lsr #26
 1c0:	72613d75 	rsbvc	r3, r1, #7488	; 0x1d40
 1c4:	3731316d 	ldrcc	r3, [r1, -sp, ror #2]!
 1c8:	667a6a36 			; <UNDEFINED> instruction: 0x667a6a36
 1cc:	2d20732d 	stccs	3, cr7, [r0, #-180]!	; 0xffffff4c
 1d0:	6e75746d 	cdpvs	4, 7, cr7, cr5, cr13, {3}
 1d4:	72613d65 	rsbvc	r3, r1, #6464	; 0x1940
 1d8:	3731316d 	ldrcc	r3, [r1, -sp, ror #2]!
 1dc:	667a6a36 			; <UNDEFINED> instruction: 0x667a6a36
 1e0:	2d20732d 	stccs	3, cr7, [r0, #-180]!	; 0xffffff4c
 1e4:	6f6c666d 	svcvs	0x006c666d
 1e8:	612d7461 			; <UNDEFINED> instruction: 0x612d7461
 1ec:	733d6962 	teqvc	sp, #1605632	; 0x188000
 1f0:	2074666f 	rsbscs	r6, r4, pc, ror #12
 1f4:	72616d2d 	rsbvc	r6, r1, #2880	; 0xb40
 1f8:	6d2d206d 	stcvs	0, cr2, [sp, #-436]!	; 0xfffffe4c
 1fc:	68637261 	stmdavs	r3!, {r0, r5, r6, r9, ip, sp, lr}^
 200:	6d72613d 	ldfvse	f6, [r2, #-244]!	; 0xffffff0c
 204:	7a6b3676 	bvc	1acdbe4 <__bss_end__+0x1ac4614>
 208:	67672d20 	strbvs	r2, [r7, -r0, lsr #26]!
 20c:	2d206264 	sfmcs	f6, 4, [r0, #-400]!	; 0xfffffe70
 210:	2d20674f 	stccs	7, cr6, [r0, #-316]!	; 0xfffffec4
 214:	3d647473 	cfstrdcc	mvd7, [r4, #-460]!	; 0xfffffe34
 218:	39756e67 	ldmdbcc	r5!, {r0, r1, r2, r5, r6, r9, sl, fp, sp, lr}^
 21c:	662d2039 			; <UNDEFINED> instruction: 0x662d2039
 220:	65657266 	strbvs	r7, [r5, #-614]!	; 0xfffffd9a
 224:	6e617473 	mcrvs	4, 3, r7, cr1, cr3, {3}
 228:	676e6964 	strbvs	r6, [lr, -r4, ror #18]!
 22c:	56454c00 	strbpl	r4, [r5], -r0, lsl #24
 230:	79630030 	stmdbvc	r3!, {r4, r5}^
 234:	5f656c63 	svcpl	0x00656c63
 238:	5f746e63 	svcpl	0x00746e63
 23c:	64616572 	strbtvs	r6, [r1], #-1394	; 0xfffffa8e
 240:	7361665f 	cmnvc	r1, #99614720	; 0x5f00000
 244:	75640074 	strbvc	r0, [r4, #-116]!	; 0xffffff8c
 248:	735f706d 	cmpvc	pc, #109, 0	; 0x6d
 24c:	6c706d61 	ldclvs	13, cr6, [r0], #-388	; 0xfffffe7c
 250:	67007365 	strvs	r7, [r0, -r5, ror #6]
 254:	5f6f6970 	svcpl	0x006f6970
 258:	5f746573 	svcpl	0x00746573
 25c:	75706e69 	ldrbvc	r6, [r0, #-3689]!	; 0xfffff197
 260:	72700074 	rsbsvc	r0, r0, #116, 0	; 0x74
 264:	6e007665 	cfmadd32vs	mvax3, mvfx7, mvfx0, mvfx5
 268:	78616d5f 	stmdavc	r1!, {r0, r1, r2, r3, r4, r6, r8, sl, fp, sp, lr}^
 26c:	67726100 	ldrbvs	r6, [r2, -r0, lsl #2]!
 270:	61760073 	cmnvs	r6, r3, ror r0
 274:	6972705f 	ldmdbvs	r2!, {r0, r1, r2, r3, r4, r6, ip, sp, lr}^
 278:	006b746e 	rsbeq	r7, fp, lr, ror #8
 27c:	6e675f5f 	mcrvs	15, 3, r5, cr7, cr15, {2}
 280:	765f6375 			; <UNDEFINED> instruction: 0x765f6375
 284:	696c5f61 	stmdbvs	ip!, {r0, r5, r6, r8, r9, sl, fp, ip, lr}^
 288:	5f007473 	svcpl	0x00007473
 28c:	5f61765f 	svcpl	0x0061765f
 290:	7473696c 	ldrbtvc	r6, [r3], #-2412	; 0xfffff694
 294:	615f5f00 	cmpvs	pc, r0, lsl #30
 298:	2f2e0070 	svccs	0x002e0070
 29c:	6362696c 	cmnvs	r2, #108, 18	; 0x1b0000
 2a0:	6972702f 	ldmdbvs	r2!, {r0, r1, r2, r3, r5, ip, sp, lr}^
 2a4:	2e6b746e 	cdpcs	4, 6, cr7, cr11, cr14, {3}
 2a8:	552f0063 	strpl	r0, [pc, #-99]!	; 24d <__code_start__-0x7db3>
 2ac:	73726573 	cmnvc	r2, #482344960	; 0x1cc00000
 2b0:	6972742f 	ldmdbvs	r2!, {r0, r1, r2, r3, r5, sl, ip, sp, lr}^
 2b4:	6e657473 	mcrvs	4, 3, r7, cr5, cr3, {3}
 2b8:	6c6c6f6e 	stclvs	15, cr6, [ip], #-440	; 0xfffffe48
 2bc:	2f6e616d 	svccs	0x006e616d
 2c0:	75636f44 	strbvc	r6, [r3, #-3908]!	; 0xfffff0bc
 2c4:	746e656d 	strbtvc	r6, [lr], #-1389	; 0xfffffa93
 2c8:	70532f73 	subsvc	r2, r3, r3, ror pc
 2cc:	676e6972 			; <UNDEFINED> instruction: 0x676e6972
 2d0:	6175515f 	cmnvs	r5, pc, asr r1
 2d4:	72657472 	rsbvc	r7, r5, #1912602624	; 0x72000000
 2d8:	3230325f 	eorscc	r3, r0, #-268435451	; 0xf0000005
 2dc:	53432f32 	movtpl	r2, #16178	; 0x3f32
 2e0:	4c303432 	cfldrsmi	mvf3, [r0], #-200	; 0xffffff38
 2e4:	70732d58 	rsbsvc	r2, r3, r8, asr sp
 2e8:	2f323272 	svccs	0x00323272
 2ec:	7062696c 	rsbvc	r6, r2, ip, ror #18
 2f0:	6e690069 	cdpvs	0, 6, cr0, cr9, cr9, {3}
 2f4:	6e726574 	mrcvs	5, 3, r6, cr2, cr4, {3}
 2f8:	705f6c61 	subsvc	r6, pc, r1, ror #24
 2fc:	006b7475 	rsbeq	r7, fp, r5, ror r4
 300:	696c2f2e 	stmdbvs	ip!, {r1, r2, r3, r5, r8, r9, sl, fp, sp}^
 304:	702f6362 	eorvc	r6, pc, r2, ror #6
 308:	2e6b7475 	mcrcs	4, 3, r7, cr11, cr5, {3}
 30c:	73690063 	cmnvc	r9, #99, 0	; 0x63
 310:	69676964 	stmdbvs	r7!, {r2, r5, r6, r8, fp, sp, lr}^
 314:	69750074 	ldmdbvs	r5!, {r2, r4, r5, r6}^
 318:	3436746e 	ldrtcc	r7, [r6], #-1134	; 0xfffffb92
 31c:	2e00745f 	cfmvsrcs	mvf0, r7
 320:	62696c2f 	rsbvs	r6, r9, #12032	; 0x2f00
 324:	61762f63 	cmnvs	r6, r3, ror #30
 328:	6972702d 	ldmdbvs	r2!, {r0, r2, r3, r5, ip, sp, lr}^
 32c:	2e6b746e 	cdpcs	4, 6, cr7, cr11, cr14, {3}
 330:	5f5f0063 	svcpl	0x005f0063
 334:	65646f63 	strbvs	r6, [r4, #-3939]!	; 0xfffff09d
 338:	6174735f 	cmnvs	r4, pc, asr r3
 33c:	5f5f7472 	svcpl	0x005f7472
 340:	625f5f00 	subsvs	r5, pc, #0, 30
 344:	735f7373 	cmpvc	pc, #-872415231	; 0xcc000001
 348:	74726174 	ldrbtvc	r6, [r2], #-372	; 0xfffffe8c
 34c:	77005f5f 	smlsdvc	r0, pc, pc, r5	; <UNPREDICTABLE>
 350:	68746469 	ldmdavs	r4!, {r0, r3, r5, r6, sl, sp, lr}^
 354:	645f5f00 	ldrbvs	r5, [pc], #-3840	; 35c <__code_start__-0x7ca4>
 358:	5f617461 	svcpl	0x00617461
 35c:	5f646e65 	svcpl	0x00646e65
 360:	7570005f 	ldrbvc	r0, [r0, #-95]!	; 0xffffffa1
 364:	665f6374 			; <UNDEFINED> instruction: 0x665f6374
 368:	5f5f0070 	svcpl	0x005f0070
 36c:	5f737362 	svcpl	0x00737362
 370:	5f646e65 	svcpl	0x00646e65
 374:	5f5f005f 	svcpl	0x005f005f
 378:	70616568 	rsbvc	r6, r1, r8, ror #10
 37c:	6174735f 	cmnvs	r4, pc, asr r3
 380:	5f5f7472 	svcpl	0x005f7472
 384:	6e697500 	cdpvs	5, 6, cr7, cr9, cr0, {0}
 388:	5f323374 	svcpl	0x00323374
 38c:	70720074 	rsbsvc	r0, r2, r4, ror r0
 390:	65735f69 	ldrbvs	r5, [r3, #-3945]!	; 0xfffff097
 394:	756f5f74 	strbvc	r5, [pc, #-3956]!	; fffff428 <__bss_end__+0xffff5e58>
 398:	74757074 	ldrbtvc	r7, [r5], #-116	; 0xffffff8c
 39c:	746d6600 	strbtvc	r6, [sp], #-1536	; 0xfffffa00
 3a0:	6174735f 	cmnvs	r4, pc, asr r3
 3a4:	73007472 	movwvc	r7, #1138	; 0x472
 3a8:	61637274 	smcvs	14116	; 0x3724
 3ac:	74730074 	ldrbtvc	r0, [r3], #-116	; 0xffffff8c
 3b0:	79706372 	ldmdbvc	r0!, {r1, r4, r5, r6, r8, r9, sp, lr}^
 3b4:	67656e00 	strbvs	r6, [r5, -r0, lsl #28]!
 3b8:	5f00705f 	svcpl	0x0000705f
 3bc:	646f635f 	strbtvs	r6, [pc], #-863	; 3c4 <__code_start__-0x7c3c>
 3c0:	6e655f65 	cdpvs	15, 6, cr5, cr5, cr5, {3}
 3c4:	005f5f64 	subseq	r5, pc, r4, ror #30
 3c8:	74696d65 	strbtvc	r6, [r9], #-3429	; 0xfffff29b
 3cc:	74757000 	ldrbtvc	r7, [r5], #-0
 3d0:	70665f73 	rsbvc	r5, r6, r3, ror pc
 3d4:	76657200 	strbtvc	r7, [r5], -r0, lsl #4
 3d8:	65737265 	ldrbvs	r7, [r3, #-613]!	; 0xfffffd9b
 3dc:	72747300 	rsbsvc	r7, r4, #0, 6
 3e0:	00706d63 	rsbseq	r6, r0, r3, ror #26
 3e4:	61645f5f 	cmnvs	r4, pc, asr pc
 3e8:	735f6174 	cmpvc	pc, #29
 3ec:	74726174 	ldrbtvc	r6, [r2], #-372	; 0xfffffe8c
 3f0:	5f005f5f 	svcpl	0x00005f5f
 3f4:	6f72705f 	svcvs	0x0072705f
 3f8:	6e655f67 	cdpvs	15, 6, cr5, cr5, cr7, {3}
 3fc:	005f5f64 	subseq	r5, pc, r4, ror #30
 400:	316d756e 	cmncc	sp, lr, ror #10
 404:	72747300 	rsbsvc	r7, r4, #0, 6
 408:	706d636e 	rsbvc	r6, sp, lr, ror #6
 40c:	73616200 	cmnvc	r1, #0, 4
 410:	69730065 	ldmdbvs	r3!, {r0, r2, r5, r6}^
 414:	64656e67 	strbtvs	r6, [r5], #-3687	; 0xfffff199
 418:	6400705f 	strvs	r7, [r0], #-95	; 0xffffffa1
 41c:	62617369 	rsbvs	r7, r1, #-1543503871	; 0xa4000001
 420:	635f656c 	cmpvs	pc, #108, 10	; 0x1b000000
 424:	65686361 	strbvs	r6, [r8, #-865]!	; 0xfffffc9f
 428:	732f2e00 			; <UNDEFINED> instruction: 0x732f2e00
 42c:	66666174 			; <UNDEFINED> instruction: 0x66666174
 430:	6372732d 	cmnvs	r2, #-1275068416	; 0xb4000000
 434:	6361632f 	cmnvs	r1, #-1140850688	; 0xbc000000
 438:	632e6568 			; <UNDEFINED> instruction: 0x632e6568
 43c:	69707200 	ldmdbvs	r0!, {r9, ip, sp, lr}^
 440:	6265725f 	rsbvs	r7, r5, #-268435451	; 0xf0000005
 444:	00746f6f 	rsbseq	r6, r4, pc, ror #30
 448:	616c6564 	cmnvs	ip, r4, ror #10
 44c:	736d5f79 	cmnvc	sp, #484	; 0x1e4
 450:	732f2e00 			; <UNDEFINED> instruction: 0x732f2e00
 454:	66666174 			; <UNDEFINED> instruction: 0x66666174
 458:	6372732d 	cmnvs	r2, #-1275068416	; 0xb4000000
 45c:	656c632f 	strbvs	r6, [ip, #-815]!	; 0xfffffcd1
 460:	722d6e61 	eorvc	r6, sp, #1552	; 0x610
 464:	6f6f6265 	svcvs	0x006f6265
 468:	00632e74 	rsbeq	r2, r3, r4, ror lr
 46c:	74726175 	ldrbtvc	r6, [r2], #-373	; 0xfffffe8b
 470:	756c665f 	strbvc	r6, [ip, #-1631]!	; 0xfffff9a1
 474:	745f6873 	ldrbvc	r6, [pc], #-2163	; 47c <__code_start__-0x7b84>
 478:	635f0078 	cmpvs	pc, #120, 0	; 0x78
 47c:	72617473 	rsbvc	r7, r1, #1929379840	; 0x73000000
 480:	73620074 	cmnvc	r2, #116, 0	; 0x74
 484:	6e655f73 	mcrvs	15, 3, r5, cr5, cr3, {3}
 488:	61750064 	cmnvs	r5, r4, rrx
 48c:	695f7472 	ldmdbvs	pc, {r1, r4, r5, r6, sl, ip, sp, lr}^	; <UNPREDICTABLE>
 490:	0074696e 	rsbseq	r6, r4, lr, ror #18
 494:	74737563 	ldrbtvc	r7, [r3], #-1379	; 0xfffffa9d
 498:	6c5f6d6f 	mrrcvs	13, 6, r6, pc, cr15	; <UNPREDICTABLE>
 49c:	6564616f 	strbvs	r6, [r4, #-367]!	; 0xfffffe91
 4a0:	2f2e0072 	svccs	0x002e0072
 4a4:	66617473 			; <UNDEFINED> instruction: 0x66617473
 4a8:	72732d66 	rsbsvc	r2, r3, #6528	; 0x1980
 4ac:	73632f63 	cmnvc	r3, #396	; 0x18c
 4b0:	74726174 	ldrbtvc	r6, [r2], #-372	; 0xfffffe8c
 4b4:	2e00632e 	cdpcs	3, 0, cr6, cr0, cr14, {1}
 4b8:	6174732f 	cmnvs	r4, pc, lsr #6
 4bc:	732d6666 			; <UNDEFINED> instruction: 0x732d6666
 4c0:	632f6372 			; <UNDEFINED> instruction: 0x632f6372
 4c4:	6f747375 	svcvs	0x00747375
 4c8:	6f6c2d6d 	svcvs	0x006c2d6d
 4cc:	72656461 	rsbvc	r6, r5, #1627389952	; 0x61000000
 4d0:	7200632e 	andvc	r6, r0, #-1207959552	; 0xb8000000
 4d4:	6f6f6265 	svcvs	0x006f6265
 4d8:	61635f74 	smcvs	13812	; 0x35f4
 4dc:	756f6c6c 	strbvc	r6, [pc, #-3180]!	; fffff878 <__bss_end__+0xffff62a8>
 4e0:	4d500074 	ldclmi	0, cr0, [r0, #-464]	; 0xfffffe30
 4e4:	4f44575f 	svcmi	0x0044575f
 4e8:	55500047 	ldrbpl	r0, [r0, #-71]	; 0xffffffb9
 4ec:	00323354 	eorseq	r3, r2, r4, asr r3
 4f0:	5f746573 	svcpl	0x00746573
 4f4:	72657375 	rsbvc	r7, r5, #-738197503	; 0xd4000001
 4f8:	76656c5f 			; <UNDEFINED> instruction: 0x76656c5f
 4fc:	2e006c65 	cdpcs	12, 0, cr6, cr0, cr5, {3}
 500:	6174732f 	cmnvs	r4, pc, lsr #6
 504:	732d6666 			; <UNDEFINED> instruction: 0x732d6666
 508:	722f6372 	eorvc	r6, pc, #-939524095	; 0xc8000001
 50c:	6f6f6265 	svcvs	0x006f6265
 510:	00632e74 	rsbeq	r2, r3, r4, ror lr
 514:	505f4d50 	subspl	r4, pc, r0, asr sp	; <UNPREDICTABLE>
 518:	57535341 	ldrbpl	r5, [r3, -r1, asr #6]
 51c:	0044524f 	subeq	r5, r4, pc, asr #4
 520:	755f7461 	ldrbvc	r7, [pc, #-1121]	; c7 <__code_start__-0x7f39>
 524:	5f726573 	svcpl	0x00726573
 528:	6576656c 	ldrbvs	r6, [r6, #-1388]!	; 0xfffffa94
 52c:	4d50006c 	ldclmi	0, cr0, [r0, #-432]	; 0xfffffe50
 530:	5453525f 	ldrbpl	r5, [r3], #-607	; 0xfffffda1
 534:	52575f43 	subspl	r5, r7, #268	; 0x10c
 538:	5f474643 	svcpl	0x00474643
 53c:	4c4c5546 	cfstr64mi	mvdx5, [ip], {70}	; 0x46
 540:	5345525f 	movtpl	r5, #21087	; 0x525f
 544:	50005445 	andpl	r5, r0, r5, asr #8
 548:	53525f4d 	cmppl	r2, #308	; 0x134
 54c:	63004354 	movwvs	r4, #852	; 0x354
 550:	00727370 	rsbseq	r7, r2, r0, ror r3
 554:	5f766564 	svcpl	0x00766564
 558:	72726162 	rsbsvc	r6, r2, #-2147483624	; 0x80000018
 55c:	00726569 	rsbseq	r6, r2, r9, ror #10
 560:	616c6564 	cmnvs	ip, r4, ror #10
 564:	65735f79 	ldrbvs	r5, [r3, #-3961]!	; 0xfffff087
 568:	2f2e0063 	svccs	0x002e0063
 56c:	66617473 			; <UNDEFINED> instruction: 0x66617473
 570:	72732d66 	rsbsvc	r2, r3, #6528	; 0x1980
 574:	69742f63 	ldmdbvs	r4!, {r0, r1, r5, r6, r8, r9, sl, fp, sp}^
 578:	2e72656d 	cdpcs	5, 7, cr6, cr2, cr13, {3}
 57c:	45470063 	strbmi	r0, [r7, #-99]	; 0xffffff9d
 580:	00323354 	eorseq	r3, r2, r4, asr r3
 584:	656d6974 	strbvs	r6, [sp, #-2420]!	; 0xfffff68c
 588:	65675f72 	strbvs	r5, [r7, #-3954]!	; 0xfffff08e
 58c:	73755f74 	cmnvc	r5, #116, 30	; 0x1d0
 590:	64006365 	strvs	r6, [r0], #-869	; 0xfffffc9b
 594:	79616c65 	stmdbvc	r1!, {r0, r2, r5, r6, sl, fp, sp, lr}^
 598:	0073755f 	rsbseq	r7, r3, pc, asr r5
 59c:	656d6974 	strbvs	r6, [sp, #-2420]!	; 0xfffff68c
 5a0:	65675f72 	strbvs	r5, [r7, #-3954]!	; 0xfffff08e
 5a4:	73755f74 	cmnvc	r5, #116, 30	; 0x1d0
 5a8:	725f6365 	subsvc	r6, pc, #-1811939327	; 0x94000001
 5ac:	67007761 	strvs	r7, [r0, -r1, ror #14]
 5b0:	5f6f6970 	svcpl	0x006f6970
 5b4:	30726c63 	rsbscc	r6, r2, r3, ror #24
 5b8:	69706700 	ldmdbvs	r0!, {r8, r9, sl, sp, lr}^
 5bc:	65735f6f 	ldrbvs	r5, [r3, #-3951]!	; 0xfffff091
 5c0:	67003074 	smlsdxvs	r0, r4, r0, r3
 5c4:	5f6f6970 	svcpl	0x006f6970
 5c8:	74697277 	strbtvc	r7, [r9], #-631	; 0xfffffd89
 5cc:	50470065 	subpl	r0, r7, r5, rrx
 5d0:	465f4f49 	ldrbmi	r4, [pc], -r9, asr #30
 5d4:	5f434e55 	svcpl	0x00434e55
 5d8:	5054554f 	subspl	r5, r4, pc, asr #10
 5dc:	44005455 	strmi	r5, [r0], #-1109	; 0xfffffbab
 5e0:	565f5645 	ldrbpl	r5, [pc], -r5, asr #12
 5e4:	32334c41 	eorscc	r4, r3, #16640	; 0x4100
 5e8:	49504700 	ldmdbmi	r0, {r8, r9, sl, lr}^
 5ec:	55465f4f 	strbpl	r5, [r6, #-3919]	; 0xfffff0b1
 5f0:	415f434e 	cmpmi	pc, lr, asr #6
 5f4:	0030544c 	eorseq	r5, r0, ip, asr #8
 5f8:	4f495047 	svcmi	0x00495047
 5fc:	4e55465f 	mrcmi	6, 2, r4, cr5, cr15, {2}
 600:	4c415f43 	mcrrmi	15, 4, r5, r1, cr3
 604:	47003154 	smlsdmi	r0, r4, r1, r3
 608:	5f4f4950 	svcpl	0x004f4950
 60c:	434e5546 	movtmi	r5, #58694	; 0xe546
 610:	544c415f 	strbpl	r4, [ip], #-351	; 0xfffffea1
 614:	50470032 	subpl	r0, r7, r2, lsr r0
 618:	465f4f49 	ldrbmi	r4, [pc], -r9, asr #30
 61c:	5f434e55 	svcpl	0x00434e55
 620:	33544c41 	cmpcc	r4, #16640	; 0x4100
 624:	49504700 	ldmdbmi	r0, {r8, r9, sl, lr}^
 628:	55465f4f 	strbpl	r5, [r6, #-3919]	; 0xfffff0b1
 62c:	415f434e 	cmpmi	pc, lr, asr #6
 630:	0035544c 	eorseq	r5, r5, ip, asr #8
 634:	6d6f682f 	stclvs	8, cr6, [pc, #-188]!	; 580 <__code_start__-0x7a80>
 638:	6e652f65 	cdpvs	15, 6, cr2, cr5, cr5, {3}
 63c:	72656c67 	rsbvc	r6, r5, #26368	; 0x6700
 640:	616c632f 	cmnvs	ip, pc, lsr #6
 644:	632f7373 			; <UNDEFINED> instruction: 0x632f7373
 648:	30343273 	eorscc	r3, r4, r3, ror r2
 64c:	322d786c 	eorcc	r7, sp, #108, 16	; 0x6c0000
 650:	72707332 	rsbsvc	r7, r0, #-939524096	; 0xc8000000
 654:	62696c2f 	rsbvs	r6, r9, #12032	; 0x2f00
 658:	732f6970 			; <UNDEFINED> instruction: 0x732f6970
 65c:	66666174 			; <UNDEFINED> instruction: 0x66666174
 660:	6972702d 	ldmdbvs	r2!, {r0, r2, r3, r5, ip, sp, lr}^
 664:	65746176 	ldrbvs	r6, [r4, #-374]!	; 0xfffffe8a
 668:	69706700 	ldmdbvs	r0!, {r8, r9, sl, sp, lr}^
 66c:	65735f6f 	ldrbvs	r5, [r3, #-3951]!	; 0xfffff091
 670:	666f5f74 	uqsub16vs	r5, pc, r4	; <UNPREDICTABLE>
 674:	70670066 	rsbvc	r0, r7, r6, rrx
 678:	735f6f69 	cmpvc	pc, #420	; 0x1a4
 67c:	6f5f7465 	svcvs	0x005f7465
 680:	75707475 	ldrbvc	r7, [r0, #-1141]!	; 0xfffffb8b
 684:	75660074 	strbvc	r0, [r6, #-116]!	; 0xffffff8c
 688:	6700636e 	strvs	r6, [r0, -lr, ror #6]
 68c:	5f6f6970 	svcpl	0x006f6970
 690:	636e7566 	cmnvs	lr, #427819008	; 0x19800000
 694:	4700745f 	smlsdmi	r0, pc, r4, r7	; <UNPREDICTABLE>
 698:	4320554e 			; <UNDEFINED> instruction: 0x4320554e
 69c:	31203939 			; <UNDEFINED> instruction: 0x31203939
 6a0:	2e332e30 	mrccs	14, 1, r2, cr3, cr0, {1}
 6a4:	30322031 	eorscc	r2, r2, r1, lsr r0
 6a8:	38303132 	ldmdacc	r0!, {r1, r4, r5, r8, ip, sp}
 6ac:	28203432 	stmdacs	r0!, {r1, r4, r5, sl, ip, sp}
 6b0:	656c6572 	strbvs	r6, [ip, #-1394]!	; 0xfffffa8e
 6b4:	29657361 	stmdbcs	r5!, {r0, r5, r6, r8, r9, ip, sp, lr}^
 6b8:	636d2d20 	cmnvs	sp, #32, 26	; 0x800
 6bc:	613d7570 	teqvs	sp, r0, ror r5
 6c0:	31316d72 	teqcc	r1, r2, ror sp
 6c4:	7a6a3637 	bvc	1a8dfa8 <__bss_end__+0x1a849d8>
 6c8:	20732d66 	rsbscs	r2, r3, r6, ror #26
 6cc:	75746d2d 	ldrbvc	r6, [r4, #-3373]!	; 0xfffff2d3
 6d0:	613d656e 	teqvs	sp, lr, ror #10
 6d4:	31316d72 	teqcc	r1, r2, ror sp
 6d8:	7a6a3637 	bvc	1a8dfbc <__bss_end__+0x1a849ec>
 6dc:	20732d66 	rsbscs	r2, r3, r6, ror #26
 6e0:	6c666d2d 	stclvs	13, cr6, [r6], #-180	; 0xffffff4c
 6e4:	2d74616f 	ldfcse	f6, [r4, #-444]!	; 0xfffffe44
 6e8:	3d696261 	sfmcc	f6, 2, [r9, #-388]!	; 0xfffffe7c
 6ec:	74666f73 	strbtvc	r6, [r6], #-3955	; 0xfffff08d
 6f0:	616d2d20 	cmnvs	sp, r0, lsr #26
 6f4:	2d206d72 	stccs	13, cr6, [r0, #-456]!	; 0xfffffe38
 6f8:	6372616d 	cmnvs	r2, #1073741851	; 0x4000001b
 6fc:	72613d68 	rsbvc	r3, r1, #104, 26	; 0x1a00
 700:	6b36766d 	blvs	d9e0bc <__bss_end__+0xd94aec>
 704:	672d207a 			; <UNDEFINED> instruction: 0x672d207a
 708:	20626467 	rsbcs	r6, r2, r7, ror #8
 70c:	20674f2d 	rsbcs	r4, r7, sp, lsr #30
 710:	6474732d 	ldrbtvs	r7, [r4], #-813	; 0xfffffcd3
 714:	756e673d 	strbvc	r6, [lr, #-1853]!	; 0xfffff8c3
 718:	2d203939 			; <UNDEFINED> instruction: 0x2d203939
 71c:	65726666 	ldrbvs	r6, [r2, #-1638]!	; 0xfffff99a
 720:	61747365 	cmnvs	r4, r5, ror #6
 724:	6e69646e 	cdpvs	4, 6, cr6, cr9, cr14, {3}
 728:	70670067 	rsbvc	r0, r7, r7, rrx
 72c:	6c5f6f69 	mrrcvs	15, 6, r6, pc, cr9	; <UNPREDICTABLE>
 730:	00307665 	eorseq	r7, r0, r5, ror #12
 734:	4f495047 	svcmi	0x00495047
 738:	4e55465f 	mrcmi	6, 2, r4, cr5, cr15, {2}
 73c:	4c415f43 	mcrrmi	15, 4, r5, r1, cr3
 740:	62003454 	andvs	r3, r0, #84, 8	; 0x54000000
 744:	006b6e61 	rsbeq	r6, fp, r1, ror #28
 748:	6f697067 	svcvs	0x00697067
 74c:	4700632e 	strmi	r6, [r0, -lr, lsr #6]
 750:	5f4f4950 	svcpl	0x004f4950
 754:	434e5546 	movtmi	r5, #58694	; 0xe546
 758:	504e495f 	subpl	r4, lr, pc, asr r9
 75c:	67005455 	smlsdvs	r0, r5, r4, r5
 760:	5f6f6970 	svcpl	0x006f6970
 764:	5f746573 	svcpl	0x00746573
 768:	636e7566 	cmnvs	lr, #427819008	; 0x19800000
 76c:	6e6f6974 			; <UNDEFINED> instruction: 0x6e6f6974
 770:	69706700 	ldmdbvs	r0!, {r8, r9, sl, sp, lr}^
 774:	65735f6f 	ldrbvs	r5, [r3, #-3951]!	; 0xfffff091
 778:	6e6f5f74 	mcrvs	15, 3, r5, cr15, cr4, {3}
 77c:	74757000 	ldrbtvc	r7, [r5], #-0
 780:	62003233 	andvs	r3, r0, #805306371	; 0x30000003
 784:	5f647561 	svcpl	0x00647561
 788:	006c6176 	rsbeq	r6, ip, r6, ror r1
 78c:	74617473 	strbtvc	r7, [r1], #-1139	; 0xfffffb8d
 790:	72617500 	rsbvc	r7, r1, #0, 10
 794:	61635f74 	smcvs	13812	; 0x35f4
 798:	65675f6e 	strbvs	r5, [r7, #-3950]!	; 0xfffff092
 79c:	61006374 	tstvs	r0, r4, ror r3
 7a0:	705f7875 	subsvc	r7, pc, r5, ror r8	; <UNPREDICTABLE>
 7a4:	70697265 	rsbvc	r7, r9, r5, ror #4
 7a8:	75007368 	strvc	r7, [r0, #-872]	; 0xfffffc98
 7ac:	2e747261 	cdpcs	2, 7, cr7, cr4, cr1, {3}
 7b0:	61750063 	cmnvs	r5, r3, rrx
 7b4:	635f7472 	cmpvs	pc, #1912602624	; 0x72000000
 7b8:	705f6e61 	subsvc	r6, pc, r1, ror #28
 7bc:	00637475 	rsbeq	r7, r3, r5, ror r4
 7c0:	72646461 	rsbvc	r6, r4, #1627389952	; 0x61000000
 7c4:	72617500 	rsbvc	r7, r1, #0, 10
 7c8:	78745f74 	ldmdavc	r4!, {r2, r4, r5, r6, r8, r9, sl, fp, ip, lr}^
 7cc:	5f73695f 	svcpl	0x0073695f
 7d0:	74706d65 	ldrbtvc	r6, [r0], #-3429	; 0xfffff29b
 7d4:	61620079 	smcvs	8201	; 0x2009
 7d8:	61006475 	tstvs	r0, r5, ror r4
 7dc:	655f7875 	ldrbvs	r7, [pc, #-2165]	; ffffff6f <__bss_end__+0xffff699f>
 7e0:	6c62616e 	stfvse	f6, [r2], #-440	; 0xfffffe48
 7e4:	75007365 	strvc	r7, [r0, #-869]	; 0xfffffc9b
 7e8:	5f747261 	svcpl	0x00747261
 7ec:	63746567 	cmnvs	r4, #432013312	; 0x19c00000
 7f0:	746e6300 	strbtvc	r6, [lr], #-768	; 0xfffffd00
 7f4:	6175006c 	cmnvs	r5, ip, rrx
 7f8:	645f7472 	ldrbvs	r7, [pc], #-1138	; 800 <__code_start__-0x7800>
 7fc:	62617369 	rsbvs	r7, r1, #-1543503871	; 0xa4000001
 800:	7500656c 	strvc	r6, [r0, #-1388]	; 0xfffffa94
 804:	5f747261 	svcpl	0x00747261
 808:	5f736168 	svcpl	0x00736168
 80c:	61746164 	cmnvs	r4, r4, ror #2
 810:	5f726f00 	svcpl	0x00726f00
 814:	32336e69 	eorscc	r6, r3, #1680	; 0x690
 818:	72637300 	rsbvc	r7, r3, #0, 6
 81c:	68637461 	stmdavs	r3!, {r0, r5, r6, sl, ip, sp, lr}^
 820:	72617500 	rsbvc	r7, r1, #0, 10
 824:	6e610074 	mcrvs	0, 3, r0, cr1, cr4, {3}
 828:	6e695f64 	cdpvs	15, 6, cr5, cr9, cr4, {3}
 82c:	75003233 	strvc	r3, [r0, #-563]	; 0xfffffdcd
 830:	5f747261 	svcpl	0x00747261
 834:	63747570 	cmnvs	r4, #112, 10	; 0x1c000000
 838:	74656700 	strbtvc	r6, [r5], #-1792	; 0xfffff900
 83c:	69003233 	stmdbvs	r0, {r0, r1, r4, r5, r9, ip, sp}
 840:	7265746e 	rsbvc	r7, r5, #1845493760	; 0x6e000000
 844:	5f6c616e 	svcpl	0x006c616e
 848:	63747570 	cmnvs	r4, #112, 10	; 0x1c000000
 84c:	00726168 	rsbseq	r6, r2, r8, ror #2
 850:	5f697072 	svcpl	0x00697072
 854:	5f746573 	svcpl	0x00746573
 858:	63747570 	cmnvs	r4, #112, 10	; 0x1c000000
 85c:	6c2f2e00 	stcvs	14, cr2, [pc], #-0	; 864 <__code_start__-0x779c>
 860:	2f636269 	svccs	0x00636269
 864:	63747570 	cmnvs	r4, #112, 10	; 0x1c000000
 868:	2e726168 	rpwcssz	f6, f2, #0.0
 86c:	70720063 	rsbsvc	r0, r2, r3, rrx
 870:	65725f69 	ldrbvs	r5, [r2, #-3945]!	; 0xfffff097
 874:	5f746573 	svcpl	0x00746573
 878:	63747570 	cmnvs	r4, #112, 10	; 0x1c000000
 87c:	73656400 	cmnvc	r5, #0, 8
 880:	2f2e0074 	svccs	0x002e0074
 884:	6362696c 	cmnvs	r2, #108, 18	; 0x1b0000
 888:	7274732f 	rsbsvc	r7, r4, #-1140850688	; 0xbc000000
 88c:	2e746163 	rpwcssz	f6, f4, f3
 890:	2f2e0063 	svccs	0x002e0063
 894:	6362696c 	cmnvs	r2, #108, 18	; 0x1b0000
 898:	7274732f 	rsbsvc	r7, r4, #-1140850688	; 0xbc000000
 89c:	2e706d63 	cdpcs	13, 7, cr6, cr0, cr3, {3}
 8a0:	2f2e0063 	svccs	0x002e0063
 8a4:	6362696c 	cmnvs	r2, #108, 18	; 0x1b0000
 8a8:	7274732f 	rsbsvc	r7, r4, #-1140850688	; 0xbc000000
 8ac:	2e797063 	cdpcs	0, 7, cr7, cr9, cr3, {3}
 8b0:	69730063 	ldmdbvs	r3!, {r0, r1, r5, r6}^
 8b4:	745f657a 	ldrbvc	r6, [pc], #-1402	; 8bc <__code_start__-0x7744>
 8b8:	6c2f2e00 	stcvs	14, cr2, [pc], #-0	; 8c0 <__code_start__-0x7740>
 8bc:	2f636269 	svccs	0x00636269
 8c0:	6e727473 	mrcvs	4, 3, r7, cr2, cr3, {3}
 8c4:	2e706d63 	cdpcs	13, 7, cr6, cr0, cr3, {3}
 8c8:	2f2e0063 	svccs	0x002e0063
 8cc:	66617473 			; <UNDEFINED> instruction: 0x66617473
 8d0:	72732d66 	rsbsvc	r2, r3, #6528	; 0x1980
 8d4:	65642f63 	strbvs	r2, [r4, #-3939]!	; 0xfffff09d
 8d8:	6c756166 	ldfvse	f6, [r5], #-408	; 0xfffffe68
 8dc:	65722d74 	ldrbvs	r2, [r2, #-3444]!	; 0xfffff28c
 8e0:	746f6f62 	strbtvc	r6, [pc], #-3938	; 8e8 <__code_start__-0x7718>
 8e4:	6c61632d 	stclvs	3, cr6, [r1], #-180	; 0xffffff4c
 8e8:	74756f6c 	ldrbtvc	r6, [r5], #-3948	; 0xfffff094
 8ec:	Address 0x00000000000008ec is out of bounds.


Disassembly of section .debug_frame:

00000000 <.debug_frame>:
   0:	0000000c 	andeq	r0, r0, ip
   4:	ffffffff 			; <UNDEFINED> instruction: 0xffffffff
   8:	7c020001 	stcvc	0, cr0, [r2], {1}
   c:	000d0c0e 	andeq	r0, sp, lr, lsl #24
  10:	00000014 	andeq	r0, r0, r4, lsl r0
  14:	00000000 	andeq	r0, r0, r0
  18:	00008038 	andeq	r8, r0, r8, lsr r0
  1c:	00000050 	andeq	r0, r0, r0, asr r0
  20:	8e040e4c 	cdphi	14, 0, cr0, cr4, cr12, {2}
  24:	100e4201 	andne	r4, lr, r1, lsl #4
  28:	0000001c 	andeq	r0, r0, ip, lsl r0
  2c:	00000000 	andeq	r0, r0, r0
  30:	00008088 	andeq	r8, r0, r8, lsl #1
  34:	000000ac 	andeq	r0, r0, ip, lsr #1
  38:	84180e42 	ldrhi	r0, [r8], #-3650	; 0xfffff1be
  3c:	86058506 	strhi	r8, [r5], -r6, lsl #10
  40:	88038704 	stmdahi	r3, {r2, r8, r9, sl, pc}
  44:	00018e02 	andeq	r8, r1, r2, lsl #28
  48:	00000020 	andeq	r0, r0, r0, lsr #32
  4c:	00000000 	andeq	r0, r0, r0
  50:	00008134 	andeq	r8, r0, r4, lsr r1
  54:	000000f0 	strdeq	r0, [r0], -r0	; <UNPREDICTABLE>
  58:	84180e42 	ldrhi	r0, [r8], #-3650	; 0xfffff1be
  5c:	86058506 	strhi	r8, [r5], -r6, lsl #10
  60:	88038704 	stmdahi	r3, {r2, r8, r9, sl, pc}
  64:	42018e02 	andmi	r8, r1, #2, 28
  68:	0002a80e 	andeq	sl, r2, lr, lsl #16
  6c:	0000000c 	andeq	r0, r0, ip
  70:	ffffffff 			; <UNDEFINED> instruction: 0xffffffff
  74:	7c020001 	stcvc	0, cr0, [r2], {1}
  78:	000d0c0e 	andeq	r0, sp, lr, lsl #24
  7c:	00000034 	andeq	r0, r0, r4, lsr r0
  80:	0000006c 	andeq	r0, r0, ip, rrx
  84:	00008224 	andeq	r8, r0, r4, lsr #4
  88:	00000058 	andeq	r0, r0, r8, asr r0
  8c:	80100e42 	andshi	r0, r0, r2, asr #28
  90:	82038104 	andhi	r8, r3, #1
  94:	42018302 	andmi	r8, r1, #134217728	; 0x8000000
  98:	07841c0e 	streq	r1, [r4, lr, lsl #24]
  9c:	058e0685 	streq	r0, [lr, #1669]	; 0x685
  a0:	5c280e42 	stcpl	14, cr0, [r8], #-264	; 0xfffffef8
  a4:	ce421c0e 	cdpgt	12, 4, cr1, cr2, cr14, {0}
  a8:	100ec4c5 	andne	ip, lr, r5, asr #9
  ac:	c1c2c342 	bicgt	ip, r2, r2, asr #6
  b0:	00000ec0 	andeq	r0, r0, r0, asr #29
  b4:	0000000c 	andeq	r0, r0, ip
  b8:	ffffffff 			; <UNDEFINED> instruction: 0xffffffff
  bc:	7c020001 	stcvc	0, cr0, [r2], {1}
  c0:	000d0c0e 	andeq	r0, sp, lr, lsl #24
  c4:	00000014 	andeq	r0, r0, r4, lsl r0
  c8:	000000b4 	strheq	r0, [r0], -r4
  cc:	0000827c 	andeq	r8, r0, ip, ror r2
  d0:	00000034 	andeq	r0, r0, r4, lsr r0
  d4:	84080e42 	strhi	r0, [r8], #-3650	; 0xfffff1be
  d8:	00018e02 	andeq	r8, r1, r2, lsl #28
  dc:	0000000c 	andeq	r0, r0, ip
  e0:	ffffffff 			; <UNDEFINED> instruction: 0xffffffff
  e4:	7c020001 	stcvc	0, cr0, [r2], {1}
  e8:	000d0c0e 	andeq	r0, sp, lr, lsl #24
  ec:	0000000c 	andeq	r0, r0, ip
  f0:	000000dc 	ldrdeq	r0, [r0], -ip
  f4:	000082b0 			; <UNDEFINED> instruction: 0x000082b0
  f8:	00000014 	andeq	r0, r0, r4, lsl r0
  fc:	0000000c 	andeq	r0, r0, ip
 100:	000000dc 	ldrdeq	r0, [r0], -ip
 104:	000082c4 	andeq	r8, r0, r4, asr #5
 108:	00000024 	andeq	r0, r0, r4, lsr #32
 10c:	0000000c 	andeq	r0, r0, ip
 110:	000000dc 	ldrdeq	r0, [r0], -ip
 114:	000082e8 	andeq	r8, r0, r8, ror #5
 118:	00000038 	andeq	r0, r0, r8, lsr r0
 11c:	00000024 	andeq	r0, r0, r4, lsr #32
 120:	000000dc 	ldrdeq	r0, [r0], -ip
 124:	00008320 	andeq	r8, r0, r0, lsr #6
 128:	000001b4 			; <UNDEFINED> instruction: 0x000001b4
 12c:	84140e42 	ldrhi	r0, [r4], #-3650	; 0xfffff1be
 130:	86048505 	strhi	r8, [r4], -r5, lsl #10
 134:	8e028703 	cdphi	7, 0, cr8, cr2, cr3, {0}
 138:	600e4201 	andvs	r4, lr, r1, lsl #4
 13c:	0e0a9a02 	vmlaeq.f32	s18, s20, s4
 140:	000b4214 	andeq	r4, fp, r4, lsl r2
 144:	00000014 	andeq	r0, r0, r4, lsl r0
 148:	000000dc 	ldrdeq	r0, [r0], -ip
 14c:	000084d4 	ldrdeq	r8, [r0], -r4
 150:	00000064 	andeq	r0, r0, r4, rrx
 154:	8e040e54 	mcrhi	14, 0, r0, cr4, cr4, {2}
 158:	100e4201 	andne	r4, lr, r1, lsl #4
 15c:	0000002c 	andeq	r0, r0, ip, lsr #32
 160:	000000dc 	ldrdeq	r0, [r0], -ip
 164:	00008538 	andeq	r8, r0, r8, lsr r5
 168:	000004b8 			; <UNDEFINED> instruction: 0x000004b8
 16c:	84240e42 	strthi	r0, [r4], #-3650	; 0xfffff1be
 170:	86088509 	strhi	r8, [r8], -r9, lsl #10
 174:	88068707 	stmdahi	r6, {r0, r1, r2, r8, r9, sl, pc}
 178:	8a048905 	bhi	122594 <__bss_end__+0x118fc4>
 17c:	8e028b03 	vmlahi.f64	d8, d2, d3
 180:	b80e4201 	stmdalt	lr, {r0, r9, lr}
 184:	02380302 	eorseq	r0, r8, #134217728	; 0x8000000
 188:	0000240e 	andeq	r2, r0, lr, lsl #8
 18c:	0000000c 	andeq	r0, r0, ip
 190:	ffffffff 			; <UNDEFINED> instruction: 0xffffffff
 194:	7c020001 	stcvc	0, cr0, [r2], {1}
 198:	000d0c0e 	andeq	r0, sp, lr, lsl #24
 19c:	0000000c 	andeq	r0, r0, ip
 1a0:	0000018c 	andeq	r0, r0, ip, lsl #3
 1a4:	00008a08 	andeq	r8, r0, r8, lsl #20
 1a8:	00000010 	andeq	r0, r0, r0, lsl r0
 1ac:	0000000c 	andeq	r0, r0, ip
 1b0:	0000018c 	andeq	r0, r0, ip, lsl #3
 1b4:	00008a18 	andeq	r8, r0, r8, lsl sl
 1b8:	00000010 	andeq	r0, r0, r0, lsl r0
 1bc:	0000000c 	andeq	r0, r0, ip
 1c0:	ffffffff 			; <UNDEFINED> instruction: 0xffffffff
 1c4:	7c020001 	stcvc	0, cr0, [r2], {1}
 1c8:	000d0c0e 	andeq	r0, sp, lr, lsl #24
 1cc:	00000014 	andeq	r0, r0, r4, lsl r0
 1d0:	000001bc 			; <UNDEFINED> instruction: 0x000001bc
 1d4:	00008a28 	andeq	r8, r0, r8, lsr #20
 1d8:	0000002c 	andeq	r0, r0, ip, lsr #32
 1dc:	84080e42 	strhi	r0, [r8], #-3650	; 0xfffff1be
 1e0:	00018e02 	andeq	r8, r1, r2, lsl #28
 1e4:	0000000c 	andeq	r0, r0, ip
 1e8:	ffffffff 			; <UNDEFINED> instruction: 0xffffffff
 1ec:	7c020001 	stcvc	0, cr0, [r2], {1}
 1f0:	000d0c0e 	andeq	r0, sp, lr, lsl #24
 1f4:	00000014 	andeq	r0, r0, r4, lsl r0
 1f8:	000001e4 	andeq	r0, r0, r4, ror #3
 1fc:	00008a54 	andeq	r8, r0, r4, asr sl
 200:	0000003c 	andeq	r0, r0, ip, lsr r0
 204:	84080e42 	strhi	r0, [r8], #-3650	; 0xfffff1be
 208:	00018e02 	andeq	r8, r1, r2, lsl #28
 20c:	0000000c 	andeq	r0, r0, ip
 210:	ffffffff 			; <UNDEFINED> instruction: 0xffffffff
 214:	7c020001 	stcvc	0, cr0, [r2], {1}
 218:	000d0c0e 	andeq	r0, sp, lr, lsl #24
 21c:	0000000c 	andeq	r0, r0, ip
 220:	0000020c 	andeq	r0, r0, ip, lsl #4
 224:	00008a90 	muleq	r0, r0, sl
 228:	00000004 	andeq	r0, r0, r4
 22c:	0000000c 	andeq	r0, r0, ip
 230:	ffffffff 			; <UNDEFINED> instruction: 0xffffffff
 234:	7c020001 	stcvc	0, cr0, [r2], {1}
 238:	000d0c0e 	andeq	r0, sp, lr, lsl #24
 23c:	0000000c 	andeq	r0, r0, ip
 240:	0000022c 	andeq	r0, r0, ip, lsr #4
 244:	00008a94 	muleq	r0, r4, sl
 248:	00000018 	andeq	r0, r0, r8, lsl r0
 24c:	0000000c 	andeq	r0, r0, ip
 250:	0000022c 	andeq	r0, r0, ip, lsr #4
 254:	00008aac 	andeq	r8, r0, ip, lsr #21
 258:	00000014 	andeq	r0, r0, r4, lsl r0
 25c:	00000014 	andeq	r0, r0, r4, lsl r0
 260:	0000022c 	andeq	r0, r0, ip, lsr #4
 264:	00008ac0 	andeq	r8, r0, r0, asr #21
 268:	00000054 	andeq	r0, r0, r4, asr r0
 26c:	84080e42 	strhi	r0, [r8], #-3650	; 0xfffff1be
 270:	00018e02 	andeq	r8, r1, r2, lsl #28
 274:	0000000c 	andeq	r0, r0, ip
 278:	ffffffff 			; <UNDEFINED> instruction: 0xffffffff
 27c:	7c020001 	stcvc	0, cr0, [r2], {1}
 280:	000d0c0e 	andeq	r0, sp, lr, lsl #24
 284:	00000014 	andeq	r0, r0, r4, lsl r0
 288:	00000274 	andeq	r0, r0, r4, ror r2
 28c:	00008b14 	andeq	r8, r0, r4, lsl fp
 290:	00000014 	andeq	r0, r0, r4, lsl r0
 294:	84080e42 	strhi	r0, [r8], #-3650	; 0xfffff1be
 298:	00018e02 	andeq	r8, r1, r2, lsl #28
 29c:	00000014 	andeq	r0, r0, r4, lsl r0
 2a0:	00000274 	andeq	r0, r0, r4, ror r2
 2a4:	00008b28 	andeq	r8, r0, r8, lsr #22
 2a8:	0000001c 	andeq	r0, r0, ip, lsl r0
 2ac:	84080e42 	strhi	r0, [r8], #-3650	; 0xfffff1be
 2b0:	00018e02 	andeq	r8, r1, r2, lsl #28
 2b4:	00000018 	andeq	r0, r0, r8, lsl r0
 2b8:	00000274 	andeq	r0, r0, r4, ror r2
 2bc:	00008b44 	andeq	r8, r0, r4, asr #22
 2c0:	00000024 	andeq	r0, r0, r4, lsr #32
 2c4:	84100e42 	ldrhi	r0, [r0], #-3650	; 0xfffff1be
 2c8:	86038504 	strhi	r8, [r3], -r4, lsl #10
 2cc:	00018e02 	andeq	r8, r1, r2, lsl #28
 2d0:	00000014 	andeq	r0, r0, r4, lsl r0
 2d4:	00000274 	andeq	r0, r0, r4, ror r2
 2d8:	00008b68 	andeq	r8, r0, r8, ror #22
 2dc:	00000018 	andeq	r0, r0, r8, lsl r0
 2e0:	84080e42 	strhi	r0, [r8], #-3650	; 0xfffff1be
 2e4:	00018e02 	andeq	r8, r1, r2, lsl #28
 2e8:	00000014 	andeq	r0, r0, r4, lsl r0
 2ec:	00000274 	andeq	r0, r0, r4, ror r2
 2f0:	00008b80 	andeq	r8, r0, r0, lsl #23
 2f4:	00000018 	andeq	r0, r0, r8, lsl r0
 2f8:	84080e42 	strhi	r0, [r8], #-3650	; 0xfffff1be
 2fc:	00018e02 	andeq	r8, r1, r2, lsl #28
 300:	0000000c 	andeq	r0, r0, ip
 304:	ffffffff 			; <UNDEFINED> instruction: 0xffffffff
 308:	7c020001 	stcvc	0, cr0, [r2], {1}
 30c:	000d0c0e 	andeq	r0, sp, lr, lsl #24
 310:	00000018 	andeq	r0, r0, r8, lsl r0
 314:	00000300 	andeq	r0, r0, r0, lsl #6
 318:	00008b98 	muleq	r0, r8, fp
 31c:	00000064 	andeq	r0, r0, r4, rrx
 320:	84100e46 	ldrhi	r0, [r0], #-3654	; 0xfffff1ba
 324:	86038504 	strhi	r8, [r3], -r4, lsl #10
 328:	00018e02 	andeq	r8, r1, r2, lsl #28
 32c:	00000014 	andeq	r0, r0, r4, lsl r0
 330:	00000300 	andeq	r0, r0, r0, lsl #6
 334:	00008bfc 	strdeq	r8, [r0], -ip
 338:	00000010 	andeq	r0, r0, r0, lsl r0
 33c:	84080e42 	strhi	r0, [r8], #-3650	; 0xfffff1be
 340:	00018e02 	andeq	r8, r1, r2, lsl #28
 344:	00000014 	andeq	r0, r0, r4, lsl r0
 348:	00000300 	andeq	r0, r0, r0, lsl #6
 34c:	00008c0c 	andeq	r8, r0, ip, lsl #24
 350:	00000024 	andeq	r0, r0, r4, lsr #32
 354:	84080e46 	strhi	r0, [r8], #-3654	; 0xfffff1ba
 358:	00018e02 	andeq	r8, r1, r2, lsl #28
 35c:	00000014 	andeq	r0, r0, r4, lsl r0
 360:	00000300 	andeq	r0, r0, r0, lsl #6
 364:	00008c30 	andeq	r8, r0, r0, lsr ip
 368:	00000024 	andeq	r0, r0, r4, lsr #32
 36c:	84080e46 	strhi	r0, [r8], #-3654	; 0xfffff1ba
 370:	00018e02 	andeq	r8, r1, r2, lsl #28
 374:	00000014 	andeq	r0, r0, r4, lsl r0
 378:	00000300 	andeq	r0, r0, r0, lsl #6
 37c:	00008c54 	andeq	r8, r0, r4, asr ip
 380:	00000010 	andeq	r0, r0, r0, lsl r0
 384:	84080e42 	strhi	r0, [r8], #-3650	; 0xfffff1be
 388:	00018e02 	andeq	r8, r1, r2, lsl #28
 38c:	00000014 	andeq	r0, r0, r4, lsl r0
 390:	00000300 	andeq	r0, r0, r0, lsl #6
 394:	00008c64 	andeq	r8, r0, r4, ror #24
 398:	0000001c 	andeq	r0, r0, ip, lsl r0
 39c:	84080e42 	strhi	r0, [r8], #-3650	; 0xfffff1be
 3a0:	00018e02 	andeq	r8, r1, r2, lsl #28
 3a4:	00000018 	andeq	r0, r0, r8, lsl r0
 3a8:	00000300 	andeq	r0, r0, r0, lsl #6
 3ac:	00008c80 	andeq	r8, r0, r0, lsl #25
 3b0:	00000034 	andeq	r0, r0, r4, lsr r0
 3b4:	84080e46 	strhi	r0, [r8], #-3654	; 0xfffff1ba
 3b8:	4e018e02 	cdpmi	14, 0, cr8, cr1, cr2, {0}
 3bc:	cec4000e 	cdpgt	0, 12, cr0, cr4, cr14, {0}
 3c0:	0000000c 	andeq	r0, r0, ip
 3c4:	ffffffff 			; <UNDEFINED> instruction: 0xffffffff
 3c8:	7c020001 	stcvc	0, cr0, [r2], {1}
 3cc:	000d0c0e 	andeq	r0, sp, lr, lsl #24
 3d0:	00000018 	andeq	r0, r0, r8, lsl r0
 3d4:	000003c0 	andeq	r0, r0, r0, asr #7
 3d8:	00008cb4 			; <UNDEFINED> instruction: 0x00008cb4
 3dc:	00000020 	andeq	r0, r0, r0, lsr #32
 3e0:	84100e42 	ldrhi	r0, [r0], #-3650	; 0xfffff1be
 3e4:	86038504 	strhi	r8, [r3], -r4, lsl #10
 3e8:	00018e02 	andeq	r8, r1, r2, lsl #28
 3ec:	00000018 	andeq	r0, r0, r8, lsl r0
 3f0:	000003c0 	andeq	r0, r0, r0, asr #7
 3f4:	00008cd4 	ldrdeq	r8, [r0], -r4
 3f8:	00000020 	andeq	r0, r0, r0, lsr #32
 3fc:	84100e42 	ldrhi	r0, [r0], #-3650	; 0xfffff1be
 400:	86038504 	strhi	r8, [r3], -r4, lsl #10
 404:	00018e02 	andeq	r8, r1, r2, lsl #28
 408:	00000014 	andeq	r0, r0, r4, lsl r0
 40c:	000003c0 	andeq	r0, r0, r0, asr #7
 410:	00008cf4 	strdeq	r8, [r0], -r4
 414:	000000b0 	strheq	r0, [r0], -r0	; <UNPREDICTABLE>
 418:	84080e42 	strhi	r0, [r8], #-3650	; 0xfffff1be
 41c:	00018e02 	andeq	r8, r1, r2, lsl #28
 420:	00000014 	andeq	r0, r0, r4, lsl r0
 424:	000003c0 	andeq	r0, r0, r0, asr #7
 428:	00008da4 	andeq	r8, r0, r4, lsr #27
 42c:	00000018 	andeq	r0, r0, r8, lsl r0
 430:	84080e42 	strhi	r0, [r8], #-3650	; 0xfffff1be
 434:	00018e02 	andeq	r8, r1, r2, lsl #28
 438:	00000014 	andeq	r0, r0, r4, lsl r0
 43c:	000003c0 	andeq	r0, r0, r0, asr #7
 440:	00008dbc 			; <UNDEFINED> instruction: 0x00008dbc
 444:	00000020 	andeq	r0, r0, r0, lsr #32
 448:	84080e42 	strhi	r0, [r8], #-3650	; 0xfffff1be
 44c:	00018e02 	andeq	r8, r1, r2, lsl #28
 450:	00000014 	andeq	r0, r0, r4, lsl r0
 454:	000003c0 	andeq	r0, r0, r0, asr #7
 458:	00008ddc 	ldrdeq	r8, [r0], -ip
 45c:	00000030 	andeq	r0, r0, r0, lsr r0
 460:	84080e42 	strhi	r0, [r8], #-3650	; 0xfffff1be
 464:	00018e02 	andeq	r8, r1, r2, lsl #28
 468:	00000014 	andeq	r0, r0, r4, lsl r0
 46c:	000003c0 	andeq	r0, r0, r0, asr #7
 470:	00008e0c 	andeq	r8, r0, ip, lsl #28
 474:	00000030 	andeq	r0, r0, r0, lsr r0
 478:	84080e42 	strhi	r0, [r8], #-3650	; 0xfffff1be
 47c:	00018e02 	andeq	r8, r1, r2, lsl #28
 480:	00000014 	andeq	r0, r0, r4, lsl r0
 484:	000003c0 	andeq	r0, r0, r0, asr #7
 488:	00008e3c 	andeq	r8, r0, ip, lsr lr
 48c:	00000010 	andeq	r0, r0, r0, lsl r0
 490:	84080e42 	strhi	r0, [r8], #-3650	; 0xfffff1be
 494:	00018e02 	andeq	r8, r1, r2, lsl #28
 498:	00000014 	andeq	r0, r0, r4, lsl r0
 49c:	000003c0 	andeq	r0, r0, r0, asr #7
 4a0:	00008e4c 	andeq	r8, r0, ip, asr #28
 4a4:	00000020 	andeq	r0, r0, r0, lsr #32
 4a8:	84080e42 	strhi	r0, [r8], #-3650	; 0xfffff1be
 4ac:	00018e02 	andeq	r8, r1, r2, lsl #28
 4b0:	00000014 	andeq	r0, r0, r4, lsl r0
 4b4:	000003c0 	andeq	r0, r0, r0, asr #7
 4b8:	00008e6c 	andeq	r8, r0, ip, ror #28
 4bc:	00000014 	andeq	r0, r0, r4, lsl r0
 4c0:	84080e42 	strhi	r0, [r8], #-3650	; 0xfffff1be
 4c4:	00018e02 	andeq	r8, r1, r2, lsl #28
 4c8:	00000014 	andeq	r0, r0, r4, lsl r0
 4cc:	000003c0 	andeq	r0, r0, r0, asr #7
 4d0:	00008e80 	andeq	r8, r0, r0, lsl #29
 4d4:	00000024 	andeq	r0, r0, r4, lsr #32
 4d8:	84080e42 	strhi	r0, [r8], #-3650	; 0xfffff1be
 4dc:	00018e02 	andeq	r8, r1, r2, lsl #28
 4e0:	0000000c 	andeq	r0, r0, ip
 4e4:	ffffffff 			; <UNDEFINED> instruction: 0xffffffff
 4e8:	7c020001 	stcvc	0, cr0, [r2], {1}
 4ec:	000d0c0e 	andeq	r0, sp, lr, lsl #24
 4f0:	00000014 	andeq	r0, r0, r4, lsl r0
 4f4:	000004e0 	andeq	r0, r0, r0, ror #9
 4f8:	00008ea4 	andeq	r8, r0, r4, lsr #29
 4fc:	00000014 	andeq	r0, r0, r4, lsl r0
 500:	84080e42 	strhi	r0, [r8], #-3650	; 0xfffff1be
 504:	00018e02 	andeq	r8, r1, r2, lsl #28
 508:	0000000c 	andeq	r0, r0, ip
 50c:	000004e0 	andeq	r0, r0, r0, ror #9
 510:	00008eb8 			; <UNDEFINED> instruction: 0x00008eb8
 514:	00000018 	andeq	r0, r0, r8, lsl r0
 518:	0000000c 	andeq	r0, r0, ip
 51c:	000004e0 	andeq	r0, r0, r0, ror #9
 520:	00008ed0 	ldrdeq	r8, [r0], -r0
 524:	00000010 	andeq	r0, r0, r0, lsl r0
 528:	0000000c 	andeq	r0, r0, ip
 52c:	ffffffff 			; <UNDEFINED> instruction: 0xffffffff
 530:	7c020001 	stcvc	0, cr0, [r2], {1}
 534:	000d0c0e 	andeq	r0, sp, lr, lsl #24
 538:	0000000c 	andeq	r0, r0, ip
 53c:	00000528 	andeq	r0, r0, r8, lsr #10
 540:	00008ee0 	andeq	r8, r0, r0, ror #29
 544:	00000034 	andeq	r0, r0, r4, lsr r0
 548:	0000000c 	andeq	r0, r0, ip
 54c:	ffffffff 			; <UNDEFINED> instruction: 0xffffffff
 550:	7c020001 	stcvc	0, cr0, [r2], {1}
 554:	000d0c0e 	andeq	r0, sp, lr, lsl #24
 558:	0000000c 	andeq	r0, r0, ip
 55c:	00000548 	andeq	r0, r0, r8, asr #10
 560:	00008f14 	andeq	r8, r0, r4, lsl pc
 564:	0000002c 	andeq	r0, r0, ip, lsr #32
 568:	0000000c 	andeq	r0, r0, ip
 56c:	ffffffff 			; <UNDEFINED> instruction: 0xffffffff
 570:	7c020001 	stcvc	0, cr0, [r2], {1}
 574:	000d0c0e 	andeq	r0, sp, lr, lsl #24
 578:	0000000c 	andeq	r0, r0, ip
 57c:	00000568 	andeq	r0, r0, r8, ror #10
 580:	00008f40 	andeq	r8, r0, r0, asr #30
 584:	00000020 	andeq	r0, r0, r0, lsr #32
 588:	0000000c 	andeq	r0, r0, ip
 58c:	ffffffff 			; <UNDEFINED> instruction: 0xffffffff
 590:	7c020001 	stcvc	0, cr0, [r2], {1}
 594:	000d0c0e 	andeq	r0, sp, lr, lsl #24
 598:	0000000c 	andeq	r0, r0, ip
 59c:	00000588 	andeq	r0, r0, r8, lsl #11
 5a0:	00008f60 	andeq	r8, r0, r0, ror #30
 5a4:	0000002c 	andeq	r0, r0, ip, lsr #32
 5a8:	0000000c 	andeq	r0, r0, ip
 5ac:	ffffffff 			; <UNDEFINED> instruction: 0xffffffff
 5b0:	7c020001 	stcvc	0, cr0, [r2], {1}
 5b4:	000d0c0e 	andeq	r0, sp, lr, lsl #24
 5b8:	0000000c 	andeq	r0, r0, ip
 5bc:	000005a8 	andeq	r0, r0, r8, lsr #11
 5c0:	00008f8c 	andeq	r8, r0, ip, lsl #31
 5c4:	00000004 	andeq	r0, r0, r4
