
0-test-malloc.elf:     file format elf32-littlearm


Disassembly of section .text:

00008000 <__code_start__>:
    8000:	e3a00013 	mov	r0, #19, 0
    8004:	e3800080 	orr	r0, r0, #128, 0	; 0x80
    8008:	e129f000 	msr	CPSR_fc, r0
    800c:	e3a01000 	mov	r1, #0, 0
    8010:	ee071f95 	mcr	15, 0, r1, cr7, cr5, {4}
    8014:	e3a0d302 	mov	sp, #134217728	; 0x8000000
    8018:	e3a0b000 	mov	fp, #0, 0
    801c:	eb0002a0 	bl	8aa4 <_cstart>
    8020:	eb0002ba 	bl	8b10 <rpi_reboot>

00008024 <PUT32>:
    8024:	e5801000 	str	r1, [r0]
    8028:	e12fff1e 	bx	lr

0000802c <GET32>:
    802c:	e5900000 	ldr	r0, [r0]
    8030:	e12fff1e 	bx	lr

00008034 <BRANCHTO>:
    8034:	e12fff10 	bx	r0

00008038 <notmain>:
    8038:	e92d4070 	push	{r4, r5, r6, lr}
    803c:	e24dd008 	sub	sp, sp, #8, 0
    8040:	e3a00001 	mov	r0, #1, 0
    8044:	eb00006a 	bl	81f4 <kr_malloc>
    8048:	e1a06000 	mov	r6, r0
    804c:	e3a05000 	mov	r5, #0, 0
    8050:	e3550009 	cmp	r5, #9, 0
    8054:	8a00001b 	bhi	80c8 <notmain+0x90>
    8058:	e3a00001 	mov	r0, #1, 0
    805c:	eb000064 	bl	81f4 <kr_malloc>
    8060:	e1a04000 	mov	r4, r0
    8064:	e3a00001 	mov	r0, #1, 0
    8068:	eb000061 	bl	81f4 <kr_malloc>
    806c:	e1a01000 	mov	r1, r0
    8070:	e0442006 	sub	r2, r4, r6
    8074:	e59f0060 	ldr	r0, [pc, #96]	; 80dc <notmain+0xa4>
    8078:	eb00008b 	bl	82ac <printk>
    807c:	e1a00004 	mov	r0, r4
    8080:	eb00001b 	bl	80f4 <kr_free>
    8084:	e3a00001 	mov	r0, #1, 0
    8088:	eb000059 	bl	81f4 <kr_malloc>
    808c:	e1540000 	cmp	r4, r0
    8090:	1a000005 	bne	80ac <notmain+0x74>
    8094:	e1a01005 	mov	r1, r5
    8098:	e59f0040 	ldr	r0, [pc, #64]	; 80e0 <notmain+0xa8>
    809c:	eb000082 	bl	82ac <printk>
    80a0:	e2855001 	add	r5, r5, #1, 0
    80a4:	e1a06004 	mov	r6, r4
    80a8:	eaffffe8 	b	8050 <notmain+0x18>
    80ac:	e58d4000 	str	r4, [sp]
    80b0:	e3a03012 	mov	r3, #18, 0
    80b4:	e59f2028 	ldr	r2, [pc, #40]	; 80e4 <notmain+0xac>
    80b8:	e59f1028 	ldr	r1, [pc, #40]	; 80e8 <notmain+0xb0>
    80bc:	e59f0028 	ldr	r0, [pc, #40]	; 80ec <notmain+0xb4>
    80c0:	eb000079 	bl	82ac <printk>
    80c4:	eb00026b 	bl	8a78 <clean_reboot>
    80c8:	e3a0100a 	mov	r1, #10, 0
    80cc:	e59f001c 	ldr	r0, [pc, #28]	; 80f0 <notmain+0xb8>
    80d0:	eb000075 	bl	82ac <printk>
    80d4:	e28dd008 	add	sp, sp, #8, 0
    80d8:	e8bd8070 	pop	{r4, r5, r6, pc}
    80dc:	000093c0 	andeq	r9, r0, r0, asr #7
    80e0:	00009420 	andeq	r9, r0, r0, lsr #8
    80e4:	00009490 	muleq	r0, r0, r4
    80e8:	000093d8 	ldrdeq	r9, [r0], -r8
    80ec:	000093e8 	andeq	r9, r0, r8, ror #7
    80f0:	00009458 	andeq	r9, r0, r8, asr r4

000080f4 <kr_free>:
    80f4:	e52de004 	push	{lr}		; (str lr, [sp, #-4]!)
    80f8:	e2401008 	sub	r1, r0, #8, 0
    80fc:	e59f30a8 	ldr	r3, [pc, #168]	; 81ac <kr_free+0xb8>
    8100:	e5933000 	ldr	r3, [r3]
    8104:	ea000000 	b	810c <kr_free+0x18>
    8108:	e1a03002 	mov	r3, r2
    810c:	e1530001 	cmp	r3, r1
    8110:	2a000002 	bcs	8120 <kr_free+0x2c>
    8114:	e5932000 	ldr	r2, [r3]
    8118:	e1520001 	cmp	r2, r1
    811c:	8a000007 	bhi	8140 <kr_free+0x4c>
    8120:	e5932000 	ldr	r2, [r3]
    8124:	e1520003 	cmp	r2, r3
    8128:	8afffff6 	bhi	8108 <kr_free+0x14>
    812c:	e1530001 	cmp	r3, r1
    8130:	3a000002 	bcc	8140 <kr_free+0x4c>
    8134:	e1520001 	cmp	r2, r1
    8138:	91a03002 	movls	r3, r2
    813c:	9afffff2 	bls	810c <kr_free+0x18>
    8140:	e510c004 	ldr	ip, [r0, #-4]
    8144:	e081e18c 	add	lr, r1, ip, lsl #3
    8148:	e5932000 	ldr	r2, [r3]
    814c:	e15e0002 	cmp	lr, r2
    8150:	0a000008 	beq	8178 <kr_free+0x84>
    8154:	e5002008 	str	r2, [r0, #-8]
    8158:	e5932004 	ldr	r2, [r3, #4]
    815c:	e083c182 	add	ip, r3, r2, lsl #3
    8160:	e15c0001 	cmp	ip, r1
    8164:	0a00000a 	beq	8194 <kr_free+0xa0>
    8168:	e5831000 	str	r1, [r3]
    816c:	e59f2038 	ldr	r2, [pc, #56]	; 81ac <kr_free+0xb8>
    8170:	e5823000 	str	r3, [r2]
    8174:	e49df004 	pop	{pc}		; (ldr pc, [sp], #4)
    8178:	e5922004 	ldr	r2, [r2, #4]
    817c:	e08cc002 	add	ip, ip, r2
    8180:	e500c004 	str	ip, [r0, #-4]
    8184:	e5932000 	ldr	r2, [r3]
    8188:	e5922000 	ldr	r2, [r2]
    818c:	e5002008 	str	r2, [r0, #-8]
    8190:	eafffff0 	b	8158 <kr_free+0x64>
    8194:	e5101004 	ldr	r1, [r0, #-4]
    8198:	e0822001 	add	r2, r2, r1
    819c:	e5832004 	str	r2, [r3, #4]
    81a0:	e5102008 	ldr	r2, [r0, #-8]
    81a4:	e5832000 	str	r2, [r3]
    81a8:	eaffffef 	b	816c <kr_free+0x78>
    81ac:	00009830 	andeq	r9, r0, r0, lsr r8

000081b0 <kr_morecore>:
    81b0:	e92d4010 	push	{r4, lr}
    81b4:	e1a04000 	mov	r4, r0
    81b8:	e3500b01 	cmp	r0, #1024	; 0x400
    81bc:	33a04b01 	movcc	r4, #1024	; 0x400
    81c0:	e1a00184 	lsl	r0, r4, #3
    81c4:	eb000035 	bl	82a0 <sbrk>
    81c8:	e3700001 	cmn	r0, #1, 0
    81cc:	0a000005 	beq	81e8 <kr_morecore+0x38>
    81d0:	e5804004 	str	r4, [r0, #4]
    81d4:	e2800008 	add	r0, r0, #8, 0
    81d8:	ebffffc5 	bl	80f4 <kr_free>
    81dc:	e59f300c 	ldr	r3, [pc, #12]	; 81f0 <kr_morecore+0x40>
    81e0:	e5930000 	ldr	r0, [r3]
    81e4:	e8bd8010 	pop	{r4, pc}
    81e8:	e3a00000 	mov	r0, #0, 0
    81ec:	e8bd8010 	pop	{r4, pc}
    81f0:	00009830 	andeq	r9, r0, r0, lsr r8

000081f4 <kr_malloc>:
    81f4:	e92d4010 	push	{r4, lr}
    81f8:	e2804007 	add	r4, r0, #7, 0
    81fc:	e1a041a4 	lsr	r4, r4, #3
    8200:	e2844001 	add	r4, r4, #1, 0
    8204:	e59f3090 	ldr	r3, [pc, #144]	; 829c <kr_malloc+0xa8>
    8208:	e5932000 	ldr	r2, [r3]
    820c:	e3520000 	cmp	r2, #0, 0
    8210:	0a000001 	beq	821c <kr_malloc+0x28>
    8214:	e5920000 	ldr	r0, [r2]
    8218:	ea000013 	b	826c <kr_malloc+0x78>
    821c:	e2832008 	add	r2, r3, #8, 0
    8220:	e5832000 	str	r2, [r3]
    8224:	e5832008 	str	r2, [r3, #8]
    8228:	e3a01000 	mov	r1, #0, 0
    822c:	e583100c 	str	r1, [r3, #12]
    8230:	eafffff7 	b	8214 <kr_malloc+0x20>
    8234:	0a000007 	beq	8258 <kr_malloc+0x64>
    8238:	e0433004 	sub	r3, r3, r4
    823c:	e5803004 	str	r3, [r0, #4]
    8240:	e0800183 	add	r0, r0, r3, lsl #3
    8244:	e5804004 	str	r4, [r0, #4]
    8248:	e59f304c 	ldr	r3, [pc, #76]	; 829c <kr_malloc+0xa8>
    824c:	e5832000 	str	r2, [r3]
    8250:	e2800008 	add	r0, r0, #8, 0
    8254:	e8bd8010 	pop	{r4, pc}
    8258:	e5903000 	ldr	r3, [r0]
    825c:	e5823000 	str	r3, [r2]
    8260:	eafffff8 	b	8248 <kr_malloc+0x54>
    8264:	e1a02000 	mov	r2, r0
    8268:	e5900000 	ldr	r0, [r0]
    826c:	e5903004 	ldr	r3, [r0, #4]
    8270:	e1530004 	cmp	r3, r4
    8274:	2affffee 	bcs	8234 <kr_malloc+0x40>
    8278:	e59f301c 	ldr	r3, [pc, #28]	; 829c <kr_malloc+0xa8>
    827c:	e5933000 	ldr	r3, [r3]
    8280:	e1530000 	cmp	r3, r0
    8284:	1afffff6 	bne	8264 <kr_malloc+0x70>
    8288:	e1a00004 	mov	r0, r4
    828c:	ebffffc7 	bl	81b0 <kr_morecore>
    8290:	e3500000 	cmp	r0, #0, 0
    8294:	1afffff2 	bne	8264 <kr_malloc+0x70>
    8298:	e8bd8010 	pop	{r4, pc}
    829c:	00009830 	andeq	r9, r0, r0, lsr r8

000082a0 <sbrk>:
    82a0:	e92d4010 	push	{r4, lr}
    82a4:	eb00033a 	bl	8f94 <kmalloc>
    82a8:	e8bd8010 	pop	{r4, pc}

000082ac <printk>:
    82ac:	e92d000f 	push	{r0, r1, r2, r3}
    82b0:	e92d4030 	push	{r4, r5, lr}
    82b4:	e24dd00c 	sub	sp, sp, #12, 0
    82b8:	e28d301c 	add	r3, sp, #28, 0
    82bc:	e58d3004 	str	r3, [sp, #4]
    82c0:	e59f5034 	ldr	r5, [pc, #52]	; 82fc <printk+0x50>
    82c4:	e59d2018 	ldr	r2, [sp, #24]
    82c8:	e3a01b01 	mov	r1, #1024	; 0x400
    82cc:	e1a00005 	mov	r0, r5
    82d0:	eb0000ba 	bl	85c0 <va_printk>
    82d4:	e1a04000 	mov	r4, r0
    82d8:	e59f3020 	ldr	r3, [pc, #32]	; 8300 <printk+0x54>
    82dc:	e5933000 	ldr	r3, [r3]
    82e0:	e1a00005 	mov	r0, r5
    82e4:	e12fff33 	blx	r3
    82e8:	e1a00004 	mov	r0, r4
    82ec:	e28dd00c 	add	sp, sp, #12, 0
    82f0:	e8bd4030 	pop	{r4, r5, lr}
    82f4:	e28dd010 	add	sp, sp, #16, 0
    82f8:	e12fff1e 	bx	lr
    82fc:	00009840 	andeq	r9, r0, r0, asr #16
    8300:	0000981c 	andeq	r9, r0, ip, lsl r8

00008304 <internal_putk>:
    8304:	e92d4010 	push	{r4, lr}
    8308:	e1a04000 	mov	r4, r0
    830c:	e5d40000 	ldrb	r0, [r4]
    8310:	e3500000 	cmp	r0, #0, 0
    8314:	0a000004 	beq	832c <internal_putk+0x28>
    8318:	e59f3014 	ldr	r3, [pc, #20]	; 8334 <internal_putk+0x30>
    831c:	e5933000 	ldr	r3, [r3]
    8320:	e12fff33 	blx	r3
    8324:	e2844001 	add	r4, r4, #1, 0
    8328:	eafffff7 	b	830c <internal_putk+0x8>
    832c:	e3a00001 	mov	r0, #1, 0
    8330:	e8bd8010 	pop	{r4, pc}
    8334:	0000982c 	andeq	r9, r0, ip, lsr #16

00008338 <isdigit>:
    8338:	e2400030 	sub	r0, r0, #48, 0	; 0x30
    833c:	e3500009 	cmp	r0, #9, 0
    8340:	83a00000 	movhi	r0, #0, 0
    8344:	93a00001 	movls	r0, #1, 0
    8348:	e12fff1e 	bx	lr

0000834c <pad>:
    834c:	e0401001 	sub	r1, r0, r1
    8350:	e1510002 	cmp	r1, r2
    8354:	b3a03020 	movlt	r3, #32, 0
    8358:	b4c03001 	strblt	r3, [r0], #1
    835c:	b2811001 	addlt	r1, r1, #1, 0
    8360:	bafffffa 	blt	8350 <pad+0x4>
    8364:	e3a03000 	mov	r3, #0, 0
    8368:	e5c03000 	strb	r3, [r0]
    836c:	e12fff1e 	bx	lr

00008370 <reverse>:
    8370:	e042c003 	sub	ip, r2, r3
    8374:	e28cc001 	add	ip, ip, #1, 0
    8378:	e15c0001 	cmp	ip, r1
    837c:	c04cc001 	subgt	ip, ip, r1
    8380:	c083300c 	addgt	r3, r3, ip
    8384:	e2421001 	sub	r1, r2, #1, 0
    8388:	e1a02000 	mov	r2, r0
    838c:	e1510003 	cmp	r1, r3
    8390:	2451c001 	ldrbcs	ip, [r1], #-1
    8394:	24c2c001 	strbcs	ip, [r2], #1
    8398:	2afffffb 	bcs	838c <reverse+0x1c>
    839c:	e3a03000 	mov	r3, #0, 0
    83a0:	e5c23000 	strb	r3, [r2]
    83a4:	e12fff1e 	bx	lr

000083a8 <emit>:
    83a8:	e92d40f0 	push	{r4, r5, r6, r7, lr}
    83ac:	e24dd04c 	sub	sp, sp, #76, 0	; 0x4c
    83b0:	e1a05001 	mov	r5, r1
    83b4:	e1a04002 	mov	r4, r2
    83b8:	e59d2060 	ldr	r2, [sp, #96]	; 0x60
    83bc:	e1520004 	cmp	r2, r4
    83c0:	c2442001 	subgt	r2, r4, #1, 0
    83c4:	e1a0c003 	mov	ip, r3
    83c8:	e2400002 	sub	r0, r0, #2, 0
    83cc:	e350000e 	cmp	r0, #14, 0
    83d0:	979ff100 	ldrls	pc, [pc, r0, lsl #2]
    83d4:	ea000050 	b	851c <emit+0x174>
    83d8:	000084f4 	strdeq	r8, [r0], -r4
    83dc:	0000851c 	andeq	r8, r0, ip, lsl r5
    83e0:	0000851c 	andeq	r8, r0, ip, lsl r5
    83e4:	0000851c 	andeq	r8, r0, ip, lsl r5
    83e8:	0000851c 	andeq	r8, r0, ip, lsl r5
    83ec:	0000851c 	andeq	r8, r0, ip, lsl r5
    83f0:	000084e8 	andeq	r8, r0, r8, ror #9
    83f4:	0000851c 	andeq	r8, r0, ip, lsl r5
    83f8:	00008414 	andeq	r8, r0, r4, lsl r4
    83fc:	0000851c 	andeq	r8, r0, ip, lsl r5
    8400:	0000851c 	andeq	r8, r0, ip, lsl r5
    8404:	0000851c 	andeq	r8, r0, ip, lsl r5
    8408:	0000851c 	andeq	r8, r0, ip, lsl r5
    840c:	0000851c 	andeq	r8, r0, ip, lsl r5
    8410:	0000848c 	andeq	r8, r0, ip, lsl #9
    8414:	e59d1064 	ldr	r1, [sp, #100]	; 0x64
    8418:	e2511000 	subs	r1, r1, #0, 0
    841c:	13a01001 	movne	r1, #1, 0
    8420:	e0111fa3 	ands	r1, r1, r3, lsr #31
    8424:	0a000016 	beq	8484 <emit+0xdc>
    8428:	e263c000 	rsb	ip, r3, #0, 0
    842c:	e3a06001 	mov	r6, #1, 0
    8430:	e28d0008 	add	r0, sp, #8, 0
    8434:	e59f3100 	ldr	r3, [pc, #256]	; 853c <emit+0x194>
    8438:	e0831c93 	umull	r1, r3, r3, ip
    843c:	e1a031a3 	lsr	r3, r3, #3
    8440:	e1a0e003 	mov	lr, r3
    8444:	e0833103 	add	r3, r3, r3, lsl #2
    8448:	e04c3083 	sub	r3, ip, r3, lsl #1
    844c:	e1a01000 	mov	r1, r0
    8450:	e2800001 	add	r0, r0, #1, 0
    8454:	e59f70e4 	ldr	r7, [pc, #228]	; 8540 <emit+0x198>
    8458:	e7d73003 	ldrb	r3, [r7, r3]
    845c:	e5c13000 	strb	r3, [r1]
    8460:	e1a0300c 	mov	r3, ip
    8464:	e1a0c00e 	mov	ip, lr
    8468:	e3530009 	cmp	r3, #9, 0
    846c:	8afffff0 	bhi	8434 <emit+0x8c>
    8470:	e3560000 	cmp	r6, #0, 0
    8474:	13a0302d 	movne	r3, #45, 0	; 0x2d
    8478:	15c03000 	strbne	r3, [r0]
    847c:	12810002 	addne	r0, r1, #2, 0
    8480:	ea00000f 	b	84c4 <emit+0x11c>
    8484:	e3a06000 	mov	r6, #0, 0
    8488:	eaffffe8 	b	8430 <emit+0x88>
    848c:	e28d1008 	add	r1, sp, #8, 0
    8490:	e20c000f 	and	r0, ip, #15, 0
    8494:	e59fe0a8 	ldr	lr, [pc, #168]	; 8544 <emit+0x19c>
    8498:	e7de0000 	ldrb	r0, [lr, r0]
    849c:	e5c10000 	strb	r0, [r1]
    84a0:	e2811001 	add	r1, r1, #1, 0
    84a4:	e35c000f 	cmp	ip, #15, 0
    84a8:	e1a0c22c 	lsr	ip, ip, #4
    84ac:	8afffff7 	bhi	8490 <emit+0xe8>
    84b0:	e1a00001 	mov	r0, r1
    84b4:	e3a03078 	mov	r3, #120, 0	; 0x78
    84b8:	e4c03002 	strb	r3, [r0], #2
    84bc:	e3a03030 	mov	r3, #48, 0	; 0x30
    84c0:	e5c13001 	strb	r3, [r1, #1]
    84c4:	e28d1008 	add	r1, sp, #8, 0
    84c8:	ebffff9f 	bl	834c <pad>
    84cc:	e1a02000 	mov	r2, r0
    84d0:	e28d3008 	add	r3, sp, #8, 0
    84d4:	e1a01004 	mov	r1, r4
    84d8:	e1a00005 	mov	r0, r5
    84dc:	ebffffa3 	bl	8370 <reverse>
    84e0:	e28dd04c 	add	sp, sp, #76, 0	; 0x4c
    84e4:	e8bd80f0 	pop	{r4, r5, r6, r7, pc}
    84e8:	e5cd3008 	strb	r3, [sp, #8]
    84ec:	e28d0009 	add	r0, sp, #9, 0
    84f0:	eafffff3 	b	84c4 <emit+0x11c>
    84f4:	e28d0008 	add	r0, sp, #8, 0
    84f8:	e20c1001 	and	r1, ip, #1, 0
    84fc:	e59fe044 	ldr	lr, [pc, #68]	; 8548 <emit+0x1a0>
    8500:	e7de1001 	ldrb	r1, [lr, r1]
    8504:	e5c01000 	strb	r1, [r0]
    8508:	e2800001 	add	r0, r0, #1, 0
    850c:	e35c0001 	cmp	ip, #1, 0
    8510:	e1a0c0ac 	lsr	ip, ip, #1
    8514:	8afffff7 	bhi	84f8 <emit+0x150>
    8518:	eaffffe9 	b	84c4 <emit+0x11c>
    851c:	e59f3028 	ldr	r3, [pc, #40]	; 854c <emit+0x1a4>
    8520:	e58d3000 	str	r3, [sp]
    8524:	e3a03079 	mov	r3, #121, 0	; 0x79
    8528:	e59f2020 	ldr	r2, [pc, #32]	; 8550 <emit+0x1a8>
    852c:	e59f1020 	ldr	r1, [pc, #32]	; 8554 <emit+0x1ac>
    8530:	e59f0020 	ldr	r0, [pc, #32]	; 8558 <emit+0x1b0>
    8534:	ebffff5c 	bl	82ac <printk>
    8538:	eb00014e 	bl	8a78 <clean_reboot>
    853c:	cccccccd 	stclgt	12, cr12, [ip], {205}	; 0xcd
    8540:	000094c4 	andeq	r9, r0, r4, asr #9
    8544:	000094d0 	ldrdeq	r9, [r0], -r0
    8548:	000094e4 	andeq	r9, r0, r4, ror #9
    854c:	000094c0 	andeq	r9, r0, r0, asr #9
    8550:	000095f0 	strdeq	r9, [r0], -r0
    8554:	00009498 	muleq	r0, r8, r4
    8558:	000094ac 	andeq	r9, r0, ip, lsr #9

0000855c <rpi_set_output>:
    855c:	e3500000 	cmp	r0, #0, 0
    8560:	0a000006 	beq	8580 <rpi_set_output+0x24>
    8564:	e59f303c 	ldr	r3, [pc, #60]	; 85a8 <rpi_set_output+0x4c>
    8568:	e5830000 	str	r0, [r3]
    856c:	e3510000 	cmp	r1, #0, 0
    8570:	012fff1e 	bxeq	lr
    8574:	e59f3030 	ldr	r3, [pc, #48]	; 85ac <rpi_set_output+0x50>
    8578:	e5831000 	str	r1, [r3]
    857c:	e12fff1e 	bx	lr
    8580:	e52de004 	push	{lr}		; (str lr, [sp, #-4]!)
    8584:	e24dd00c 	sub	sp, sp, #12, 0
    8588:	e59f3020 	ldr	r3, [pc, #32]	; 85b0 <rpi_set_output+0x54>
    858c:	e58d3000 	str	r3, [sp]
    8590:	e3a03020 	mov	r3, #32, 0
    8594:	e59f2018 	ldr	r2, [pc, #24]	; 85b4 <rpi_set_output+0x58>
    8598:	e59f1018 	ldr	r1, [pc, #24]	; 85b8 <rpi_set_output+0x5c>
    859c:	e59f0018 	ldr	r0, [pc, #24]	; 85bc <rpi_set_output+0x60>
    85a0:	ebffff41 	bl	82ac <printk>
    85a4:	eb000133 	bl	8a78 <clean_reboot>
    85a8:	0000982c 	andeq	r9, r0, ip, lsr #16
    85ac:	0000981c 	andeq	r9, r0, ip, lsl r8
    85b0:	000094e8 	andeq	r9, r0, r8, ror #9
    85b4:	000095f8 	strdeq	r9, [r0], -r8
    85b8:	00009498 	muleq	r0, r8, r4
    85bc:	000094ac 	andeq	r9, r0, ip, lsr #9

000085c0 <va_printk>:
    85c0:	e92d4ff0 	push	{r4, r5, r6, r7, r8, r9, sl, fp, lr}
    85c4:	e24ddf45 	sub	sp, sp, #276	; 0x114
    85c8:	e1a09000 	mov	r9, r0
    85cc:	e58d2008 	str	r2, [sp, #8]
    85d0:	e58d300c 	str	r3, [sp, #12]
    85d4:	e2411001 	sub	r1, r1, #1, 0
    85d8:	e0808001 	add	r8, r0, r1
    85dc:	e3a03000 	mov	r3, #0, 0
    85e0:	e5c03000 	strb	r3, [r0]
    85e4:	e1a04000 	mov	r4, r0
    85e8:	e1a06002 	mov	r6, r2
    85ec:	ea000001 	b	85f8 <va_printk+0x38>
    85f0:	e2866001 	add	r6, r6, #1, 0
    85f4:	e4c43001 	strb	r3, [r4], #1
    85f8:	e5d63000 	ldrb	r3, [r6]
    85fc:	e3530000 	cmp	r3, #0, 0
    8600:	0a000108 	beq	8a28 <va_printk+0x468>
    8604:	e1540008 	cmp	r4, r8
    8608:	2a000106 	bcs	8a28 <va_printk+0x468>
    860c:	e3530025 	cmp	r3, #37, 0	; 0x25
    8610:	1afffff6 	bne	85f0 <va_printk+0x30>
    8614:	e5d62001 	ldrb	r2, [r6, #1]
    8618:	e3520025 	cmp	r2, #37, 0	; 0x25
    861c:	04c43001 	strbeq	r3, [r4], #1
    8620:	02866002 	addeq	r6, r6, #2, 0
    8624:	0afffff3 	beq	85f8 <va_printk+0x38>
    8628:	e2866001 	add	r6, r6, #1, 0
    862c:	e3a05000 	mov	r5, #0, 0
    8630:	e5d67000 	ldrb	r7, [r6]
    8634:	e1a0a007 	mov	sl, r7
    8638:	e1a00007 	mov	r0, r7
    863c:	ebffff3d 	bl	8338 <isdigit>
    8640:	e3500000 	cmp	r0, #0, 0
    8644:	0a000004 	beq	865c <va_printk+0x9c>
    8648:	e0855105 	add	r5, r5, r5, lsl #2
    864c:	e0875085 	add	r5, r7, r5, lsl #1
    8650:	e2455030 	sub	r5, r5, #48, 0	; 0x30
    8654:	e2866001 	add	r6, r6, #1, 0
    8658:	eafffff4 	b	8630 <va_printk+0x70>
    865c:	e355001f 	cmp	r5, #31, 0
    8660:	8a00001a 	bhi	86d0 <va_printk+0x110>
    8664:	e2477062 	sub	r7, r7, #98, 0	; 0x62
    8668:	e3570016 	cmp	r7, #22, 0
    866c:	979ff107 	ldrls	pc, [pc, r7, lsl #2]
    8670:	ea0000d4 	b	89c8 <va_printk+0x408>
    8674:	0000894c 	andeq	r8, r0, ip, asr #18
    8678:	00008994 	muleq	r0, r4, r9
    867c:	000088ac 	andeq	r8, r0, ip, lsr #17
    8680:	000089c8 	andeq	r8, r0, r8, asr #19
    8684:	00008894 	muleq	r0, r4, r8
    8688:	000089c8 	andeq	r8, r0, r8, asr #19
    868c:	000089c8 	andeq	r8, r0, r8, asr #19
    8690:	000089c8 	andeq	r8, r0, r8, asr #19
    8694:	000089c8 	andeq	r8, r0, r8, asr #19
    8698:	000089c8 	andeq	r8, r0, r8, asr #19
    869c:	000086f0 	strdeq	r8, [r0], -r0
    86a0:	000089c8 	andeq	r8, r0, r8, asr #19
    86a4:	000089c8 	andeq	r8, r0, r8, asr #19
    86a8:	000089c8 	andeq	r8, r0, r8, asr #19
    86ac:	00008918 	andeq	r8, r0, r8, lsl r9
    86b0:	000089c8 	andeq	r8, r0, r8, asr #19
    86b4:	000089c8 	andeq	r8, r0, r8, asr #19
    86b8:	00008980 	andeq	r8, r0, r0, lsl #19
    86bc:	000089c8 	andeq	r8, r0, r8, asr #19
    86c0:	000088e4 	andeq	r8, r0, r4, ror #17
    86c4:	000089c8 	andeq	r8, r0, r8, asr #19
    86c8:	000089c8 	andeq	r8, r0, r8, asr #19
    86cc:	00008918 	andeq	r8, r0, r8, lsl r9
    86d0:	e59f3364 	ldr	r3, [pc, #868]	; 8a3c <va_printk+0x47c>
    86d4:	e58d3000 	str	r3, [sp]
    86d8:	e3a03098 	mov	r3, #152, 0	; 0x98
    86dc:	e59f235c 	ldr	r2, [pc, #860]	; 8a40 <va_printk+0x480>
    86e0:	e59f135c 	ldr	r1, [pc, #860]	; 8a44 <va_printk+0x484>
    86e4:	e59f035c 	ldr	r0, [pc, #860]	; 8a48 <va_printk+0x488>
    86e8:	ebfffeef 	bl	82ac <printk>
    86ec:	eb0000e1 	bl	8a78 <clean_reboot>
    86f0:	e3a02003 	mov	r2, #3, 0
    86f4:	e59f1350 	ldr	r1, [pc, #848]	; 8a4c <va_printk+0x48c>
    86f8:	e1a00006 	mov	r0, r6
    86fc:	eb0002d6 	bl	925c <strncmp>
    8700:	e3500000 	cmp	r0, #0, 0
    8704:	0a000005 	beq	8720 <va_printk+0x160>
    8708:	e3a02003 	mov	r2, #3, 0
    870c:	e59f133c 	ldr	r1, [pc, #828]	; 8a50 <va_printk+0x490>
    8710:	e1a00006 	mov	r0, r6
    8714:	eb0002d0 	bl	925c <strncmp>
    8718:	e3500000 	cmp	r0, #0, 0
    871c:	1a000033 	bne	87f0 <va_printk+0x230>
    8720:	e286b002 	add	fp, r6, #2, 0
    8724:	e59d300c 	ldr	r3, [sp, #12]
    8728:	e2833007 	add	r3, r3, #7, 0
    872c:	e3c33007 	bic	r3, r3, #7, 0
    8730:	e2832008 	add	r2, r3, #8, 0
    8734:	e58d200c 	str	r2, [sp, #12]
    8738:	e593a000 	ldr	sl, [r3]
    873c:	e5937004 	ldr	r7, [r3, #4]
    8740:	e1a01007 	mov	r1, r7
    8744:	e59f0308 	ldr	r0, [pc, #776]	; 8a54 <va_printk+0x494>
    8748:	ebfffed7 	bl	82ac <printk>
    874c:	e1a0100a 	mov	r1, sl
    8750:	e59f0300 	ldr	r0, [pc, #768]	; 8a58 <va_printk+0x498>
    8754:	ebfffed4 	bl	82ac <printk>
    8758:	e3a02003 	mov	r2, #3, 0
    875c:	e59f12e8 	ldr	r1, [pc, #744]	; 8a4c <va_printk+0x48c>
    8760:	e1a00006 	mov	r0, r6
    8764:	eb0002bc 	bl	925c <strncmp>
    8768:	e3500000 	cmp	r0, #0, 0
    876c:	0a000027 	beq	8810 <va_printk+0x250>
    8770:	e3a02003 	mov	r2, #3, 0
    8774:	e59f12d4 	ldr	r1, [pc, #724]	; 8a50 <va_printk+0x490>
    8778:	e1a00006 	mov	r0, r6
    877c:	eb0002b6 	bl	925c <strncmp>
    8780:	e3500000 	cmp	r0, #0, 0
    8784:	1a00003b 	bne	8878 <va_printk+0x2b8>
    8788:	e3a06000 	mov	r6, #0, 0
    878c:	e58d6004 	str	r6, [sp, #4]
    8790:	e58d5000 	str	r5, [sp]
    8794:	e1a03007 	mov	r3, r7
    8798:	e3a02080 	mov	r2, #128, 0	; 0x80
    879c:	e28d1010 	add	r1, sp, #16, 0
    87a0:	e3a0000a 	mov	r0, #10, 0
    87a4:	ebfffeff 	bl	83a8 <emit>
    87a8:	e1a07000 	mov	r7, r0
    87ac:	e58d6004 	str	r6, [sp, #4]
    87b0:	e58d5000 	str	r5, [sp]
    87b4:	e1a0300a 	mov	r3, sl
    87b8:	e3a02080 	mov	r2, #128, 0	; 0x80
    87bc:	e28d1090 	add	r1, sp, #144, 0	; 0x90
    87c0:	e3a0000a 	mov	r0, #10, 0
    87c4:	ebfffef7 	bl	83a8 <emit>
    87c8:	e59f128c 	ldr	r1, [pc, #652]	; 8a5c <va_printk+0x49c>
    87cc:	e28d0010 	add	r0, sp, #16, 0
    87d0:	eb00028e 	bl	9210 <strcmp>
    87d4:	e1500006 	cmp	r0, r6
    87d8:	1a000021 	bne	8864 <va_printk+0x2a4>
    87dc:	e28d1090 	add	r1, sp, #144, 0	; 0x90
    87e0:	e28d0010 	add	r0, sp, #16, 0
    87e4:	eb000294 	bl	923c <strcpy>
    87e8:	e1a0600b 	mov	r6, fp
    87ec:	ea00003a 	b	88dc <va_printk+0x31c>
    87f0:	e59f3268 	ldr	r3, [pc, #616]	; 8a60 <va_printk+0x4a0>
    87f4:	e58d3000 	str	r3, [sp]
    87f8:	e3a0309f 	mov	r3, #159, 0	; 0x9f
    87fc:	e59f223c 	ldr	r2, [pc, #572]	; 8a40 <va_printk+0x480>
    8800:	e59f123c 	ldr	r1, [pc, #572]	; 8a44 <va_printk+0x484>
    8804:	e59f023c 	ldr	r0, [pc, #572]	; 8a48 <va_printk+0x488>
    8808:	ebfffea7 	bl	82ac <printk>
    880c:	eb000099 	bl	8a78 <clean_reboot>
    8810:	e3a06000 	mov	r6, #0, 0
    8814:	e58d6004 	str	r6, [sp, #4]
    8818:	e58d5000 	str	r5, [sp]
    881c:	e1a03007 	mov	r3, r7
    8820:	e3a02080 	mov	r2, #128, 0	; 0x80
    8824:	e28d1010 	add	r1, sp, #16, 0
    8828:	e3a00010 	mov	r0, #16, 0
    882c:	ebfffedd 	bl	83a8 <emit>
    8830:	e1a07000 	mov	r7, r0
    8834:	e58d6004 	str	r6, [sp, #4]
    8838:	e58d5000 	str	r5, [sp]
    883c:	e1a0300a 	mov	r3, sl
    8840:	e3a02080 	mov	r2, #128, 0	; 0x80
    8844:	e28d1090 	add	r1, sp, #144, 0	; 0x90
    8848:	e3a00010 	mov	r0, #16, 0
    884c:	ebfffed5 	bl	83a8 <emit>
    8850:	e28d1092 	add	r1, sp, #146, 0	; 0x92
    8854:	e28d0010 	add	r0, sp, #16, 0
    8858:	eb00025f 	bl	91dc <strcat>
    885c:	e1a0600b 	mov	r6, fp
    8860:	ea00001d 	b	88dc <va_printk+0x31c>
    8864:	e28d1090 	add	r1, sp, #144, 0	; 0x90
    8868:	e28d0010 	add	r0, sp, #16, 0
    886c:	eb00025a 	bl	91dc <strcat>
    8870:	e1a0600b 	mov	r6, fp
    8874:	ea000018 	b	88dc <va_printk+0x31c>
    8878:	e58d6000 	str	r6, [sp]
    887c:	e3a030b6 	mov	r3, #182, 0	; 0xb6
    8880:	e59f21b8 	ldr	r2, [pc, #440]	; 8a40 <va_printk+0x480>
    8884:	e59f11b8 	ldr	r1, [pc, #440]	; 8a44 <va_printk+0x484>
    8888:	e59f01d4 	ldr	r0, [pc, #468]	; 8a64 <va_printk+0x4a4>
    888c:	ebfffe86 	bl	82ac <printk>
    8890:	eb000078 	bl	8a78 <clean_reboot>
    8894:	e3a030be 	mov	r3, #190, 0	; 0xbe
    8898:	e59f21a0 	ldr	r2, [pc, #416]	; 8a40 <va_printk+0x480>
    889c:	e59f11a0 	ldr	r1, [pc, #416]	; 8a44 <va_printk+0x484>
    88a0:	e59f01c0 	ldr	r0, [pc, #448]	; 8a68 <va_printk+0x4a8>
    88a4:	ebfffe80 	bl	82ac <printk>
    88a8:	eb000072 	bl	8a78 <clean_reboot>
    88ac:	e59d300c 	ldr	r3, [sp, #12]
    88b0:	e2832004 	add	r2, r3, #4, 0
    88b4:	e58d200c 	str	r2, [sp, #12]
    88b8:	e5933000 	ldr	r3, [r3]
    88bc:	e3a02001 	mov	r2, #1, 0
    88c0:	e58d2004 	str	r2, [sp, #4]
    88c4:	e58d5000 	str	r5, [sp]
    88c8:	e3a02080 	mov	r2, #128, 0	; 0x80
    88cc:	e28d1010 	add	r1, sp, #16, 0
    88d0:	e3a0000a 	mov	r0, #10, 0
    88d4:	ebfffeb3 	bl	83a8 <emit>
    88d8:	e1a07000 	mov	r7, r0
    88dc:	e2866001 	add	r6, r6, #1, 0
    88e0:	ea00004a 	b	8a10 <va_printk+0x450>
    88e4:	e59d300c 	ldr	r3, [sp, #12]
    88e8:	e2832004 	add	r2, r3, #4, 0
    88ec:	e58d200c 	str	r2, [sp, #12]
    88f0:	e5933000 	ldr	r3, [r3]
    88f4:	e3a02000 	mov	r2, #0, 0
    88f8:	e58d2004 	str	r2, [sp, #4]
    88fc:	e58d5000 	str	r5, [sp]
    8900:	e3a02080 	mov	r2, #128, 0	; 0x80
    8904:	e28d1010 	add	r1, sp, #16, 0
    8908:	e3a0000a 	mov	r0, #10, 0
    890c:	ebfffea5 	bl	83a8 <emit>
    8910:	e1a07000 	mov	r7, r0
    8914:	eafffff0 	b	88dc <va_printk+0x31c>
    8918:	e59d300c 	ldr	r3, [sp, #12]
    891c:	e2832004 	add	r2, r3, #4, 0
    8920:	e58d200c 	str	r2, [sp, #12]
    8924:	e5933000 	ldr	r3, [r3]
    8928:	e3a02000 	mov	r2, #0, 0
    892c:	e58d2004 	str	r2, [sp, #4]
    8930:	e58d5000 	str	r5, [sp]
    8934:	e3a02080 	mov	r2, #128, 0	; 0x80
    8938:	e28d1010 	add	r1, sp, #16, 0
    893c:	e3a00010 	mov	r0, #16, 0
    8940:	ebfffe98 	bl	83a8 <emit>
    8944:	e1a07000 	mov	r7, r0
    8948:	eaffffe3 	b	88dc <va_printk+0x31c>
    894c:	e59d300c 	ldr	r3, [sp, #12]
    8950:	e2832004 	add	r2, r3, #4, 0
    8954:	e58d200c 	str	r2, [sp, #12]
    8958:	e5933000 	ldr	r3, [r3]
    895c:	e3a02000 	mov	r2, #0, 0
    8960:	e58d2004 	str	r2, [sp, #4]
    8964:	e58d5000 	str	r5, [sp]
    8968:	e3a02080 	mov	r2, #128, 0	; 0x80
    896c:	e28d1010 	add	r1, sp, #16, 0
    8970:	e3a00002 	mov	r0, #2, 0
    8974:	ebfffe8b 	bl	83a8 <emit>
    8978:	e1a07000 	mov	r7, r0
    897c:	eaffffd6 	b	88dc <va_printk+0x31c>
    8980:	e59d300c 	ldr	r3, [sp, #12]
    8984:	e2832004 	add	r2, r3, #4, 0
    8988:	e58d200c 	str	r2, [sp, #12]
    898c:	e5937000 	ldr	r7, [r3]
    8990:	eaffffd1 	b	88dc <va_printk+0x31c>
    8994:	e59d300c 	ldr	r3, [sp, #12]
    8998:	e2832004 	add	r2, r3, #4, 0
    899c:	e58d200c 	str	r2, [sp, #12]
    89a0:	e5933000 	ldr	r3, [r3]
    89a4:	e3a02000 	mov	r2, #0, 0
    89a8:	e58d2004 	str	r2, [sp, #4]
    89ac:	e58d5000 	str	r5, [sp]
    89b0:	e3a02080 	mov	r2, #128, 0	; 0x80
    89b4:	e28d1010 	add	r1, sp, #16, 0
    89b8:	e3a00008 	mov	r0, #8, 0
    89bc:	ebfffe79 	bl	83a8 <emit>
    89c0:	e1a07000 	mov	r7, r0
    89c4:	eaffffc4 	b	88dc <va_printk+0x31c>
    89c8:	e3a03000 	mov	r3, #0, 0
    89cc:	e5c63001 	strb	r3, [r6, #1]
    89d0:	e1a0200a 	mov	r2, sl
    89d4:	e1a0100a 	mov	r1, sl
    89d8:	e59f008c 	ldr	r0, [pc, #140]	; 8a6c <va_printk+0x4ac>
    89dc:	ebfffe32 	bl	82ac <printk>
    89e0:	e59f3088 	ldr	r3, [pc, #136]	; 8a70 <va_printk+0x4b0>
    89e4:	e5933000 	ldr	r3, [r3]
    89e8:	e59d0008 	ldr	r0, [sp, #8]
    89ec:	e12fff33 	blx	r3
    89f0:	e3a030e2 	mov	r3, #226, 0	; 0xe2
    89f4:	e59f2044 	ldr	r2, [pc, #68]	; 8a40 <va_printk+0x480>
    89f8:	e59f1044 	ldr	r1, [pc, #68]	; 8a44 <va_printk+0x484>
    89fc:	e59f0070 	ldr	r0, [pc, #112]	; 8a74 <va_printk+0x4b4>
    8a00:	ebfffe29 	bl	82ac <printk>
    8a04:	eb00001b 	bl	8a78 <clean_reboot>
    8a08:	e2877001 	add	r7, r7, #1, 0
    8a0c:	e4c43001 	strb	r3, [r4], #1
    8a10:	e1540008 	cmp	r4, r8
    8a14:	2afffef7 	bcs	85f8 <va_printk+0x38>
    8a18:	e5d73000 	ldrb	r3, [r7]
    8a1c:	e3530000 	cmp	r3, #0, 0
    8a20:	1afffff8 	bne	8a08 <va_printk+0x448>
    8a24:	eafffef3 	b	85f8 <va_printk+0x38>
    8a28:	e3a03000 	mov	r3, #0, 0
    8a2c:	e4c43001 	strb	r3, [r4], #1
    8a30:	e0440009 	sub	r0, r4, r9
    8a34:	e28ddf45 	add	sp, sp, #276	; 0x114
    8a38:	e8bd8ff0 	pop	{r4, r5, r6, r7, r8, r9, sl, fp, pc}
    8a3c:	000094f0 	strdeq	r9, [r0], -r0
    8a40:	00009608 	andeq	r9, r0, r8, lsl #12
    8a44:	00009498 	muleq	r0, r8, r4
    8a48:	000094ac 	andeq	r9, r0, ip, lsr #9
    8a4c:	000094fc 	strdeq	r9, [r0], -ip
    8a50:	00009500 	andeq	r9, r0, r0, lsl #10
    8a54:	00009504 	andeq	r9, r0, r4, lsl #10
    8a58:	0000950c 	andeq	r9, r0, ip, lsl #10
    8a5c:	000094c0 	andeq	r9, r0, r0, asr #9
    8a60:	00009514 	andeq	r9, r0, r4, lsl r5
    8a64:	00009550 	andeq	r9, r0, r0, asr r5
    8a68:	00009578 	andeq	r9, r0, r8, ror r5
    8a6c:	000095a0 	andeq	r9, r0, r0, lsr #11
    8a70:	0000981c 	andeq	r9, r0, ip, lsl r8
    8a74:	000095d0 	ldrdeq	r9, [r0], -r0

00008a78 <clean_reboot>:
    8a78:	e92d4010 	push	{r4, lr}
    8a7c:	e59f3018 	ldr	r3, [pc, #24]	; 8a9c <clean_reboot+0x24>
    8a80:	e5933000 	ldr	r3, [r3]
    8a84:	e59f0014 	ldr	r0, [pc, #20]	; 8aa0 <clean_reboot+0x28>
    8a88:	e12fff33 	blx	r3
    8a8c:	eb0000c3 	bl	8da0 <uart_flush_tx>
    8a90:	e3a0000a 	mov	r0, #10, 0
    8a94:	eb000047 	bl	8bb8 <delay_ms>
    8a98:	eb00001c 	bl	8b10 <rpi_reboot>
    8a9c:	0000981c 	andeq	r9, r0, ip, lsl r8
    8aa0:	00009614 	andeq	r9, r0, r4, lsl r6

00008aa4 <_cstart>:
    8aa4:	e92d4010 	push	{r4, lr}
    8aa8:	eb00000c 	bl	8ae0 <custom_loader>
    8aac:	e59f3024 	ldr	r3, [pc, #36]	; 8ad8 <_cstart+0x34>
    8ab0:	e59f2024 	ldr	r2, [pc, #36]	; 8adc <_cstart+0x38>
    8ab4:	e1530002 	cmp	r3, r2
    8ab8:	33a02000 	movcc	r2, #0, 0
    8abc:	34832004 	strcc	r2, [r3], #4
    8ac0:	3afffffa 	bcc	8ab0 <_cstart+0xc>
    8ac4:	eb000057 	bl	8c28 <uart_init>
    8ac8:	e3a03001 	mov	r3, #1, 0
    8acc:	ee0f3f1c 	mcr	15, 0, r3, cr15, cr12, {0}
    8ad0:	ebfffd58 	bl	8038 <notmain>
    8ad4:	ebffffe7 	bl	8a78 <clean_reboot>
    8ad8:	00009830 	andeq	r9, r0, r0, lsr r8
    8adc:	00009c48 	andeq	r9, r0, r8, asr #24

00008ae0 <custom_loader>:
    8ae0:	e12fff1e 	bx	lr

00008ae4 <at_user_level>:
    8ae4:	e10f0000 	mrs	r0, CPSR
    8ae8:	e200001f 	and	r0, r0, #31, 0
    8aec:	e3500010 	cmp	r0, #16, 0
    8af0:	13a00000 	movne	r0, #0, 0
    8af4:	03a00001 	moveq	r0, #1, 0
    8af8:	e12fff1e 	bx	lr

00008afc <set_user_level>:
    8afc:	e10f3000 	mrs	r3, CPSR
    8b00:	e3c3301f 	bic	r3, r3, #31, 0
    8b04:	e3833010 	orr	r3, r3, #16, 0
    8b08:	e129f003 	msr	CPSR_fc, r3
    8b0c:	e12fff1e 	bx	lr

00008b10 <rpi_reboot>:
    8b10:	e92d4010 	push	{r4, lr}
    8b14:	ebfffff2 	bl	8ae4 <at_user_level>
    8b18:	e3500000 	cmp	r0, #0, 0
    8b1c:	1a00000a 	bne	8b4c <rpi_reboot+0x3c>
    8b20:	eb0001d8 	bl	9288 <reboot_callout>
    8b24:	eb00009d 	bl	8da0 <uart_flush_tx>
    8b28:	e3a0000a 	mov	r0, #10, 0
    8b2c:	eb000021 	bl	8bb8 <delay_ms>
    8b30:	e59f101c 	ldr	r1, [pc, #28]	; 8b54 <rpi_reboot+0x44>
    8b34:	e59f001c 	ldr	r0, [pc, #28]	; 8b58 <rpi_reboot+0x48>
    8b38:	ebfffd39 	bl	8024 <PUT32>
    8b3c:	e59f1018 	ldr	r1, [pc, #24]	; 8b5c <rpi_reboot+0x4c>
    8b40:	e59f0018 	ldr	r0, [pc, #24]	; 8b60 <rpi_reboot+0x50>
    8b44:	ebfffd36 	bl	8024 <PUT32>
    8b48:	eafffffe 	b	8b48 <rpi_reboot+0x38>
    8b4c:	ebffffea 	bl	8afc <set_user_level>
    8b50:	eafffff2 	b	8b20 <rpi_reboot+0x10>
    8b54:	5a000001 	bpl	8b60 <rpi_reboot+0x50>
    8b58:	20100024 	andscs	r0, r0, r4, lsr #32
    8b5c:	5a000020 	bpl	8be4 <delay_sec+0x14>
    8b60:	2010001c 	andscs	r0, r0, ip, lsl r0

00008b64 <timer_get_usec_raw>:
    8b64:	e92d4010 	push	{r4, lr}
    8b68:	e59f0004 	ldr	r0, [pc, #4]	; 8b74 <timer_get_usec_raw+0x10>
    8b6c:	ebfffd2e 	bl	802c <GET32>
    8b70:	e8bd8010 	pop	{r4, pc}
    8b74:	20003004 	andcs	r3, r0, r4

00008b78 <timer_get_usec>:
    8b78:	e92d4010 	push	{r4, lr}
    8b7c:	eb0001c2 	bl	928c <dev_barrier>
    8b80:	ebfffff7 	bl	8b64 <timer_get_usec_raw>
    8b84:	e1a04000 	mov	r4, r0
    8b88:	eb0001bf 	bl	928c <dev_barrier>
    8b8c:	e1a00004 	mov	r0, r4
    8b90:	e8bd8010 	pop	{r4, pc}

00008b94 <delay_us>:
    8b94:	e92d4070 	push	{r4, r5, r6, lr}
    8b98:	e1a05000 	mov	r5, r0
    8b9c:	ebfffff5 	bl	8b78 <timer_get_usec>
    8ba0:	e1a04000 	mov	r4, r0
    8ba4:	ebfffff3 	bl	8b78 <timer_get_usec>
    8ba8:	e0400004 	sub	r0, r0, r4
    8bac:	e1500005 	cmp	r0, r5
    8bb0:	3afffffb 	bcc	8ba4 <delay_us+0x10>
    8bb4:	e8bd8070 	pop	{r4, r5, r6, pc}

00008bb8 <delay_ms>:
    8bb8:	e92d4010 	push	{r4, lr}
    8bbc:	e0603280 	rsb	r3, r0, r0, lsl #5
    8bc0:	e0800103 	add	r0, r0, r3, lsl #2
    8bc4:	e1a00180 	lsl	r0, r0, #3
    8bc8:	ebfffff1 	bl	8b94 <delay_us>
    8bcc:	e8bd8010 	pop	{r4, pc}

00008bd0 <delay_sec>:
    8bd0:	e92d4010 	push	{r4, lr}
    8bd4:	e0603280 	rsb	r3, r0, r0, lsl #5
    8bd8:	e0800103 	add	r0, r0, r3, lsl #2
    8bdc:	e1a00180 	lsl	r0, r0, #3
    8be0:	ebfffff4 	bl	8bb8 <delay_ms>
    8be4:	e8bd8010 	pop	{r4, pc}

00008be8 <and_in32>:
    8be8:	e92d4070 	push	{r4, r5, r6, lr}
    8bec:	e1a04000 	mov	r4, r0
    8bf0:	e1a05001 	mov	r5, r1
    8bf4:	ebfffd0c 	bl	802c <GET32>
    8bf8:	e0001005 	and	r1, r0, r5
    8bfc:	e1a00004 	mov	r0, r4
    8c00:	ebfffd07 	bl	8024 <PUT32>
    8c04:	e8bd8070 	pop	{r4, r5, r6, pc}

00008c08 <or_in32>:
    8c08:	e92d4070 	push	{r4, r5, r6, lr}
    8c0c:	e1a04000 	mov	r4, r0
    8c10:	e1a05001 	mov	r5, r1
    8c14:	ebfffd04 	bl	802c <GET32>
    8c18:	e1801005 	orr	r1, r0, r5
    8c1c:	e1a00004 	mov	r0, r4
    8c20:	ebfffcff 	bl	8024 <PUT32>
    8c24:	e8bd8070 	pop	{r4, r5, r6, pc}

00008c28 <uart_init>:
    8c28:	e92d4010 	push	{r4, lr}
    8c2c:	e3a01002 	mov	r1, #2, 0
    8c30:	e3a0000e 	mov	r0, #14, 0
    8c34:	eb00019a 	bl	92a4 <gpio_set_function>
    8c38:	e3a01002 	mov	r1, #2, 0
    8c3c:	e3a0000f 	mov	r0, #15, 0
    8c40:	eb000197 	bl	92a4 <gpio_set_function>
    8c44:	eb000190 	bl	928c <dev_barrier>
    8c48:	e3a01001 	mov	r1, #1, 0
    8c4c:	e59f0064 	ldr	r0, [pc, #100]	; 8cb8 <uart_init+0x90>
    8c50:	ebffffec 	bl	8c08 <or_in32>
    8c54:	eb00018c 	bl	928c <dev_barrier>
    8c58:	e59f405c 	ldr	r4, [pc, #92]	; 8cbc <uart_init+0x94>
    8c5c:	e3a01000 	mov	r1, #0, 0
    8c60:	e1a00004 	mov	r0, r4
    8c64:	ebfffcee 	bl	8024 <PUT32>
    8c68:	e3a01000 	mov	r1, #0, 0
    8c6c:	e59f004c 	ldr	r0, [pc, #76]	; 8cc0 <uart_init+0x98>
    8c70:	ebfffceb 	bl	8024 <PUT32>
    8c74:	e3a01003 	mov	r1, #3, 0
    8c78:	e59f0044 	ldr	r0, [pc, #68]	; 8cc4 <uart_init+0x9c>
    8c7c:	ebfffce8 	bl	8024 <PUT32>
    8c80:	e3a01000 	mov	r1, #0, 0
    8c84:	e59f003c 	ldr	r0, [pc, #60]	; 8cc8 <uart_init+0xa0>
    8c88:	ebfffce5 	bl	8024 <PUT32>
    8c8c:	e3a010c7 	mov	r1, #199, 0	; 0xc7
    8c90:	e59f0034 	ldr	r0, [pc, #52]	; 8ccc <uart_init+0xa4>
    8c94:	ebfffce2 	bl	8024 <PUT32>
    8c98:	e59f1030 	ldr	r1, [pc, #48]	; 8cd0 <uart_init+0xa8>
    8c9c:	e59f0030 	ldr	r0, [pc, #48]	; 8cd4 <uart_init+0xac>
    8ca0:	ebfffcdf 	bl	8024 <PUT32>
    8ca4:	e3a01003 	mov	r1, #3, 0
    8ca8:	e1a00004 	mov	r0, r4
    8cac:	ebfffcdc 	bl	8024 <PUT32>
    8cb0:	eb000175 	bl	928c <dev_barrier>
    8cb4:	e8bd8010 	pop	{r4, pc}
    8cb8:	20215004 	eorcs	r5, r1, r4
    8cbc:	20215060 	eorcs	r5, r1, r0, rrx
    8cc0:	20215044 	eorcs	r5, r1, r4, asr #32
    8cc4:	2021504c 	eorcs	r5, r1, ip, asr #32
    8cc8:	20215050 	eorcs	r5, r1, r0, asr r0
    8ccc:	20215048 	eorcs	r5, r1, r8, asr #32
    8cd0:	0000010e 	andeq	r0, r0, lr, lsl #2
    8cd4:	20215068 	eorcs	r5, r1, r8, rrx

00008cd8 <uart_can_getc>:
    8cd8:	e92d4010 	push	{r4, lr}
    8cdc:	e59f0008 	ldr	r0, [pc, #8]	; 8cec <uart_can_getc+0x14>
    8ce0:	ebfffcd1 	bl	802c <GET32>
    8ce4:	e2000001 	and	r0, r0, #1, 0
    8ce8:	e8bd8010 	pop	{r4, pc}
    8cec:	20215064 	eorcs	r5, r1, r4, rrx

00008cf0 <uart_can_putc>:
    8cf0:	e92d4010 	push	{r4, lr}
    8cf4:	e59f0010 	ldr	r0, [pc, #16]	; 8d0c <uart_can_putc+0x1c>
    8cf8:	ebfffccb 	bl	802c <GET32>
    8cfc:	e3100002 	tst	r0, #2, 0
    8d00:	13a00001 	movne	r0, #1, 0
    8d04:	03a00000 	moveq	r0, #0, 0
    8d08:	e8bd8010 	pop	{r4, pc}
    8d0c:	20215064 	eorcs	r5, r1, r4, rrx

00008d10 <uart_getc>:
    8d10:	e92d4010 	push	{r4, lr}
    8d14:	eb00015c 	bl	928c <dev_barrier>
    8d18:	ebffffee 	bl	8cd8 <uart_can_getc>
    8d1c:	e3500000 	cmp	r0, #0, 0
    8d20:	0afffffc 	beq	8d18 <uart_getc+0x8>
    8d24:	e59f0010 	ldr	r0, [pc, #16]	; 8d3c <uart_getc+0x2c>
    8d28:	ebfffcbf 	bl	802c <GET32>
    8d2c:	e6ef4070 	uxtb	r4, r0
    8d30:	eb000155 	bl	928c <dev_barrier>
    8d34:	e1a00004 	mov	r0, r4
    8d38:	e8bd8010 	pop	{r4, pc}
    8d3c:	20215040 	eorcs	r5, r1, r0, asr #32

00008d40 <uart_putc>:
    8d40:	e92d4010 	push	{r4, lr}
    8d44:	e1a04000 	mov	r4, r0
    8d48:	eb00014f 	bl	928c <dev_barrier>
    8d4c:	ebffffe7 	bl	8cf0 <uart_can_putc>
    8d50:	e3500000 	cmp	r0, #0, 0
    8d54:	0afffffc 	beq	8d4c <uart_putc+0xc>
    8d58:	e6ef1074 	uxtb	r1, r4
    8d5c:	e59f0008 	ldr	r0, [pc, #8]	; 8d6c <uart_putc+0x2c>
    8d60:	ebfffcaf 	bl	8024 <PUT32>
    8d64:	eb000148 	bl	928c <dev_barrier>
    8d68:	e8bd8010 	pop	{r4, pc}
    8d6c:	20215040 	eorcs	r5, r1, r0, asr #32

00008d70 <uart_has_data>:
    8d70:	e92d4010 	push	{r4, lr}
    8d74:	eb000144 	bl	928c <dev_barrier>
    8d78:	ebffffd6 	bl	8cd8 <uart_can_getc>
    8d7c:	e8bd8010 	pop	{r4, pc}

00008d80 <uart_tx_is_empty>:
    8d80:	e92d4010 	push	{r4, lr}
    8d84:	eb000140 	bl	928c <dev_barrier>
    8d88:	e59f000c 	ldr	r0, [pc, #12]	; 8d9c <uart_tx_is_empty+0x1c>
    8d8c:	ebfffca6 	bl	802c <GET32>
    8d90:	e1a004a0 	lsr	r0, r0, #9
    8d94:	e2000001 	and	r0, r0, #1, 0
    8d98:	e8bd8010 	pop	{r4, pc}
    8d9c:	20215064 	eorcs	r5, r1, r4, rrx

00008da0 <uart_flush_tx>:
    8da0:	e92d4010 	push	{r4, lr}
    8da4:	ebfffff5 	bl	8d80 <uart_tx_is_empty>
    8da8:	e3500000 	cmp	r0, #0, 0
    8dac:	0afffffc 	beq	8da4 <uart_flush_tx+0x4>
    8db0:	e8bd8010 	pop	{r4, pc}

00008db4 <uart_disable>:
    8db4:	e92d4010 	push	{r4, lr}
    8db8:	ebfffff8 	bl	8da0 <uart_flush_tx>
    8dbc:	eb000132 	bl	928c <dev_barrier>
    8dc0:	e3e01001 	mvn	r1, #1, 0
    8dc4:	e59f0008 	ldr	r0, [pc, #8]	; 8dd4 <uart_disable+0x20>
    8dc8:	ebffff86 	bl	8be8 <and_in32>
    8dcc:	eb00012e 	bl	928c <dev_barrier>
    8dd0:	e8bd8010 	pop	{r4, pc}
    8dd4:	20215004 	eorcs	r5, r1, r4

00008dd8 <kmalloc_heap_end>:
    8dd8:	e59f3004 	ldr	r3, [pc, #4]	; 8de4 <kmalloc_heap_end+0xc>
    8ddc:	e5930000 	ldr	r0, [r3]
    8de0:	e12fff1e 	bx	lr
    8de4:	00009820 	andeq	r9, r0, r0, lsr #16

00008de8 <kmalloc_heap_start>:
    8de8:	e59f3004 	ldr	r3, [pc, #4]	; 8df4 <kmalloc_heap_start+0xc>
    8dec:	e5930004 	ldr	r0, [r3, #4]
    8df0:	e12fff1e 	bx	lr
    8df4:	00009820 	andeq	r9, r0, r0, lsr #16

00008df8 <kmalloc_heap_ptr>:
    8df8:	e59f3004 	ldr	r3, [pc, #4]	; 8e04 <kmalloc_heap_ptr+0xc>
    8dfc:	e5930008 	ldr	r0, [r3, #8]
    8e00:	e12fff1e 	bx	lr
    8e04:	00009820 	andeq	r9, r0, r0, lsr #16

00008e08 <kmalloc_init_set_start>:
    8e08:	e52de004 	push	{lr}		; (str lr, [sp, #-4]!)
    8e0c:	e24dd00c 	sub	sp, sp, #12, 0
    8e10:	e3510000 	cmp	r1, #0, 0
    8e14:	0a00000a 	beq	8e44 <kmalloc_init_set_start+0x3c>
    8e18:	e59f306c 	ldr	r3, [pc, #108]	; 8e8c <kmalloc_init_set_start+0x84>
    8e1c:	e5933008 	ldr	r3, [r3, #8]
    8e20:	e1530000 	cmp	r3, r0
    8e24:	8a00000e 	bhi	8e64 <kmalloc_init_set_start+0x5c>
    8e28:	e59f305c 	ldr	r3, [pc, #92]	; 8e8c <kmalloc_init_set_start+0x84>
    8e2c:	e5830008 	str	r0, [r3, #8]
    8e30:	e5830004 	str	r0, [r3, #4]
    8e34:	e0800001 	add	r0, r0, r1
    8e38:	e5830000 	str	r0, [r3]
    8e3c:	e28dd00c 	add	sp, sp, #12, 0
    8e40:	e49df004 	pop	{pc}		; (ldr pc, [sp], #4)
    8e44:	e59f3044 	ldr	r3, [pc, #68]	; 8e90 <kmalloc_init_set_start+0x88>
    8e48:	e58d3000 	str	r3, [sp]
    8e4c:	e3a03030 	mov	r3, #48, 0	; 0x30
    8e50:	e59f203c 	ldr	r2, [pc, #60]	; 8e94 <kmalloc_init_set_start+0x8c>
    8e54:	e59f103c 	ldr	r1, [pc, #60]	; 8e98 <kmalloc_init_set_start+0x90>
    8e58:	e59f003c 	ldr	r0, [pc, #60]	; 8e9c <kmalloc_init_set_start+0x94>
    8e5c:	ebfffd12 	bl	82ac <printk>
    8e60:	ebffff04 	bl	8a78 <clean_reboot>
    8e64:	e59f3020 	ldr	r3, [pc, #32]	; 8e8c <kmalloc_init_set_start+0x84>
    8e68:	e5933000 	ldr	r3, [r3]
    8e6c:	e58d3004 	str	r3, [sp, #4]
    8e70:	e58d0000 	str	r0, [sp]
    8e74:	e3a03034 	mov	r3, #52, 0	; 0x34
    8e78:	e59f2014 	ldr	r2, [pc, #20]	; 8e94 <kmalloc_init_set_start+0x8c>
    8e7c:	e59f1014 	ldr	r1, [pc, #20]	; 8e98 <kmalloc_init_set_start+0x90>
    8e80:	e59f0018 	ldr	r0, [pc, #24]	; 8ea0 <kmalloc_init_set_start+0x98>
    8e84:	ebfffd08 	bl	82ac <printk>
    8e88:	ebfffefa 	bl	8a78 <clean_reboot>
    8e8c:	00009820 	andeq	r9, r0, r0, lsr #16
    8e90:	0000962c 	andeq	r9, r0, ip, lsr #12
    8e94:	000097b8 			; <UNDEFINED> instruction: 0x000097b8
    8e98:	00009620 	andeq	r9, r0, r0, lsr #12
    8e9c:	000094ac 	andeq	r9, r0, ip, lsr #9
    8ea0:	00009638 	andeq	r9, r0, r8, lsr r6

00008ea4 <kmalloc_init>:
    8ea4:	e92d4010 	push	{r4, lr}
    8ea8:	e59f303c 	ldr	r3, [pc, #60]	; 8eec <kmalloc_init+0x48>
    8eac:	e5933000 	ldr	r3, [r3]
    8eb0:	e3530000 	cmp	r3, #0, 0
    8eb4:	1a000006 	bne	8ed4 <kmalloc_init+0x30>
    8eb8:	e59f302c 	ldr	r3, [pc, #44]	; 8eec <kmalloc_init+0x48>
    8ebc:	e3a02001 	mov	r2, #1, 0
    8ec0:	e5832000 	str	r2, [r3]
    8ec4:	e3a01201 	mov	r1, #268435456	; 0x10000000
    8ec8:	e3a00601 	mov	r0, #1048576	; 0x100000
    8ecc:	ebffffcd 	bl	8e08 <kmalloc_init_set_start>
    8ed0:	e8bd8010 	pop	{r4, pc}
    8ed4:	e3a03040 	mov	r3, #64, 0	; 0x40
    8ed8:	e59f2010 	ldr	r2, [pc, #16]	; 8ef0 <kmalloc_init+0x4c>
    8edc:	e59f1010 	ldr	r1, [pc, #16]	; 8ef4 <kmalloc_init+0x50>
    8ee0:	e59f0010 	ldr	r0, [pc, #16]	; 8ef8 <kmalloc_init+0x54>
    8ee4:	ebfffcf0 	bl	82ac <printk>
    8ee8:	ebfffee2 	bl	8a78 <clean_reboot>
    8eec:	00009c40 	andeq	r9, r0, r0, asr #24
    8ef0:	000097d0 	ldrdeq	r9, [r0], -r0
    8ef4:	00009620 	andeq	r9, r0, r0, lsr #12
    8ef8:	0000967c 	andeq	r9, r0, ip, ror r6

00008efc <kmalloc_notzero>:
    8efc:	e52de004 	push	{lr}		; (str lr, [sp, #-4]!)
    8f00:	e24dd00c 	sub	sp, sp, #12, 0
    8f04:	e3500000 	cmp	r0, #0, 0
    8f08:	0a00000a 	beq	8f38 <kmalloc_notzero+0x3c>
    8f0c:	e2800007 	add	r0, r0, #7, 0
    8f10:	e3c03007 	bic	r3, r0, #7, 0
    8f14:	e59f2060 	ldr	r2, [pc, #96]	; 8f7c <kmalloc_notzero+0x80>
    8f18:	e5920008 	ldr	r0, [r2, #8]
    8f1c:	e0801003 	add	r1, r0, r3
    8f20:	e5821008 	str	r1, [r2, #8]
    8f24:	e5922000 	ldr	r2, [r2]
    8f28:	e1510002 	cmp	r1, r2
    8f2c:	8a000009 	bhi	8f58 <kmalloc_notzero+0x5c>
    8f30:	e28dd00c 	add	sp, sp, #12, 0
    8f34:	e49df004 	pop	{pc}		; (ldr pc, [sp], #4)
    8f38:	e59f3040 	ldr	r3, [pc, #64]	; 8f80 <kmalloc_notzero+0x84>
    8f3c:	e58d3000 	str	r3, [sp]
    8f40:	e3a03048 	mov	r3, #72, 0	; 0x48
    8f44:	e59f2038 	ldr	r2, [pc, #56]	; 8f84 <kmalloc_notzero+0x88>
    8f48:	e59f1038 	ldr	r1, [pc, #56]	; 8f88 <kmalloc_notzero+0x8c>
    8f4c:	e59f0038 	ldr	r0, [pc, #56]	; 8f8c <kmalloc_notzero+0x90>
    8f50:	ebfffcd5 	bl	82ac <printk>
    8f54:	ebfffec7 	bl	8a78 <clean_reboot>
    8f58:	e0422000 	sub	r2, r2, r0
    8f5c:	e58d2004 	str	r2, [sp, #4]
    8f60:	e58d3000 	str	r3, [sp]
    8f64:	e3a0304e 	mov	r3, #78, 0	; 0x4e
    8f68:	e59f2014 	ldr	r2, [pc, #20]	; 8f84 <kmalloc_notzero+0x88>
    8f6c:	e59f1014 	ldr	r1, [pc, #20]	; 8f88 <kmalloc_notzero+0x8c>
    8f70:	e59f0018 	ldr	r0, [pc, #24]	; 8f90 <kmalloc_notzero+0x94>
    8f74:	ebfffccc 	bl	82ac <printk>
    8f78:	ebfffebe 	bl	8a78 <clean_reboot>
    8f7c:	00009820 	andeq	r9, r0, r0, lsr #16
    8f80:	00009630 	andeq	r9, r0, r0, lsr r6
    8f84:	000097e0 	andeq	r9, r0, r0, ror #15
    8f88:	00009620 	andeq	r9, r0, r0, lsr #12
    8f8c:	000094ac 	andeq	r9, r0, ip, lsr #9
    8f90:	000096ac 	andeq	r9, r0, ip, lsr #13

00008f94 <kmalloc>:
    8f94:	e92d4030 	push	{r4, r5, lr}
    8f98:	e24dd00c 	sub	sp, sp, #12, 0
    8f9c:	e2504000 	subs	r4, r0, #0, 0
    8fa0:	0a000008 	beq	8fc8 <kmalloc+0x34>
    8fa4:	e1a00004 	mov	r0, r4
    8fa8:	ebffffd3 	bl	8efc <kmalloc_notzero>
    8fac:	e1a05000 	mov	r5, r0
    8fb0:	e1a02004 	mov	r2, r4
    8fb4:	e3a01000 	mov	r1, #0, 0
    8fb8:	eb000072 	bl	9188 <memset>
    8fbc:	e1a00005 	mov	r0, r5
    8fc0:	e28dd00c 	add	sp, sp, #12, 0
    8fc4:	e8bd8030 	pop	{r4, r5, pc}
    8fc8:	e59f3018 	ldr	r3, [pc, #24]	; 8fe8 <kmalloc+0x54>
    8fcc:	e58d3000 	str	r3, [sp]
    8fd0:	e3a03054 	mov	r3, #84, 0	; 0x54
    8fd4:	e59f2010 	ldr	r2, [pc, #16]	; 8fec <kmalloc+0x58>
    8fd8:	e59f1010 	ldr	r1, [pc, #16]	; 8ff0 <kmalloc+0x5c>
    8fdc:	e59f0010 	ldr	r0, [pc, #16]	; 8ff4 <kmalloc+0x60>
    8fe0:	ebfffcb1 	bl	82ac <printk>
    8fe4:	ebfffea3 	bl	8a78 <clean_reboot>
    8fe8:	00009630 	andeq	r9, r0, r0, lsr r6
    8fec:	000097f0 	strdeq	r9, [r0], -r0
    8ff0:	00009620 	andeq	r9, r0, r0, lsr #12
    8ff4:	000094ac 	andeq	r9, r0, ip, lsr #9

00008ff8 <kmalloc_aligned>:
    8ff8:	e52de004 	push	{lr}		; (str lr, [sp, #-4]!)
    8ffc:	e24dd00c 	sub	sp, sp, #12, 0
    9000:	e3500000 	cmp	r0, #0, 0
    9004:	0a000014 	beq	905c <kmalloc_aligned+0x64>
    9008:	e2613000 	rsb	r3, r1, #0, 0
    900c:	e1d13003 	bics	r3, r1, r3
    9010:	1a000019 	bne	907c <kmalloc_aligned+0x84>
    9014:	e3510008 	cmp	r1, #8, 0
    9018:	33a01008 	movcc	r1, #8, 0
    901c:	e59f30c0 	ldr	r3, [pc, #192]	; 90e4 <kmalloc_aligned+0xec>
    9020:	e5932008 	ldr	r2, [r3, #8]
    9024:	e2613000 	rsb	r3, r1, #0, 0
    9028:	e1d1c003 	bics	ip, r1, r3
    902c:	1a00001b 	bne	90a0 <kmalloc_aligned+0xa8>
    9030:	e0822001 	add	r2, r2, r1
    9034:	e2422001 	sub	r2, r2, #1, 0
    9038:	e0033002 	and	r3, r3, r2
    903c:	e2411001 	sub	r1, r1, #1, 0
    9040:	e1110003 	tst	r1, r3
    9044:	1a00001d 	bne	90c0 <kmalloc_aligned+0xc8>
    9048:	e59f2094 	ldr	r2, [pc, #148]	; 90e4 <kmalloc_aligned+0xec>
    904c:	e5823008 	str	r3, [r2, #8]
    9050:	ebffffcf 	bl	8f94 <kmalloc>
    9054:	e28dd00c 	add	sp, sp, #12, 0
    9058:	e49df004 	pop	{pc}		; (ldr pc, [sp], #4)
    905c:	e59f3084 	ldr	r3, [pc, #132]	; 90e8 <kmalloc_aligned+0xf0>
    9060:	e58d3000 	str	r3, [sp]
    9064:	e3a0305f 	mov	r3, #95, 0	; 0x5f
    9068:	e59f207c 	ldr	r2, [pc, #124]	; 90ec <kmalloc_aligned+0xf4>
    906c:	e59f107c 	ldr	r1, [pc, #124]	; 90f0 <kmalloc_aligned+0xf8>
    9070:	e59f007c 	ldr	r0, [pc, #124]	; 90f4 <kmalloc_aligned+0xfc>
    9074:	ebfffc8c 	bl	82ac <printk>
    9078:	ebfffe7e 	bl	8a78 <clean_reboot>
    907c:	eb00004c 	bl	91b4 <rpi_reset_putc>
    9080:	e59f3070 	ldr	r3, [pc, #112]	; 90f8 <kmalloc_aligned+0x100>
    9084:	e58d3000 	str	r3, [sp]
    9088:	e3a03060 	mov	r3, #96, 0	; 0x60
    908c:	e59f2058 	ldr	r2, [pc, #88]	; 90ec <kmalloc_aligned+0xf4>
    9090:	e59f1058 	ldr	r1, [pc, #88]	; 90f0 <kmalloc_aligned+0xf8>
    9094:	e59f0060 	ldr	r0, [pc, #96]	; 90fc <kmalloc_aligned+0x104>
    9098:	ebfffc83 	bl	82ac <printk>
    909c:	ebfffe75 	bl	8a78 <clean_reboot>
    90a0:	e59f3058 	ldr	r3, [pc, #88]	; 9100 <kmalloc_aligned+0x108>
    90a4:	e58d3000 	str	r3, [sp]
    90a8:	e3a03011 	mov	r3, #17, 0
    90ac:	e59f2050 	ldr	r2, [pc, #80]	; 9104 <kmalloc_aligned+0x10c>
    90b0:	e59f1038 	ldr	r1, [pc, #56]	; 90f0 <kmalloc_aligned+0xf8>
    90b4:	e59f0038 	ldr	r0, [pc, #56]	; 90f4 <kmalloc_aligned+0xfc>
    90b8:	ebfffc7b 	bl	82ac <printk>
    90bc:	ebfffe6d 	bl	8a78 <clean_reboot>
    90c0:	eb00003b 	bl	91b4 <rpi_reset_putc>
    90c4:	e59f303c 	ldr	r3, [pc, #60]	; 9108 <kmalloc_aligned+0x110>
    90c8:	e58d3000 	str	r3, [sp]
    90cc:	e3a03068 	mov	r3, #104, 0	; 0x68
    90d0:	e59f2014 	ldr	r2, [pc, #20]	; 90ec <kmalloc_aligned+0xf4>
    90d4:	e59f1014 	ldr	r1, [pc, #20]	; 90f0 <kmalloc_aligned+0xf8>
    90d8:	e59f002c 	ldr	r0, [pc, #44]	; 910c <kmalloc_aligned+0x114>
    90dc:	ebfffc72 	bl	82ac <printk>
    90e0:	ebfffe64 	bl	8a78 <clean_reboot>
    90e4:	00009820 	andeq	r9, r0, r0, lsr #16
    90e8:	00009630 	andeq	r9, r0, r0, lsr r6
    90ec:	000097f8 	strdeq	r9, [r0], -r8
    90f0:	00009620 	andeq	r9, r0, r0, lsr #12
    90f4:	000094ac 	andeq	r9, r0, ip, lsr #9
    90f8:	00009720 	andeq	r9, r0, r0, lsr #14
    90fc:	000096ec 	andeq	r9, r0, ip, ror #13
    9100:	00009734 	andeq	r9, r0, r4, lsr r7
    9104:	00009808 	andeq	r9, r0, r8, lsl #16
    9108:	0000976c 	andeq	r9, r0, ip, ror #14
    910c:	00009740 	andeq	r9, r0, r0, asr #14

00009110 <kfree>:
    9110:	e12fff1e 	bx	lr

00009114 <kfree_all>:
    9114:	e59f3008 	ldr	r3, [pc, #8]	; 9124 <kfree_all+0x10>
    9118:	e5932004 	ldr	r2, [r3, #4]
    911c:	e5832008 	str	r2, [r3, #8]
    9120:	e12fff1e 	bx	lr
    9124:	00009820 	andeq	r9, r0, r0, lsr #16

00009128 <kfree_pop>:
    9128:	e59f3048 	ldr	r3, [pc, #72]	; 9178 <kfree_pop+0x50>
    912c:	e5933004 	ldr	r3, [r3, #4]
    9130:	e1530000 	cmp	r3, r0
    9134:	8a000006 	bhi	9154 <kfree_pop+0x2c>
    9138:	e59f3038 	ldr	r3, [pc, #56]	; 9178 <kfree_pop+0x50>
    913c:	e5933000 	ldr	r3, [r3]
    9140:	e1530000 	cmp	r3, r0
    9144:	3a000002 	bcc	9154 <kfree_pop+0x2c>
    9148:	e59f3028 	ldr	r3, [pc, #40]	; 9178 <kfree_pop+0x50>
    914c:	e5830008 	str	r0, [r3, #8]
    9150:	e12fff1e 	bx	lr
    9154:	e52de004 	push	{lr}		; (str lr, [sp, #-4]!)
    9158:	e24dd00c 	sub	sp, sp, #12, 0
    915c:	e58d0000 	str	r0, [sp]
    9160:	e3a03077 	mov	r3, #119, 0	; 0x77
    9164:	e59f2010 	ldr	r2, [pc, #16]	; 917c <kfree_pop+0x54>
    9168:	e59f1010 	ldr	r1, [pc, #16]	; 9180 <kfree_pop+0x58>
    916c:	e59f0010 	ldr	r0, [pc, #16]	; 9184 <kfree_pop+0x5c>
    9170:	ebfffc4d 	bl	82ac <printk>
    9174:	ebfffe3f 	bl	8a78 <clean_reboot>
    9178:	00009820 	andeq	r9, r0, r0, lsr #16
    917c:	00009810 	andeq	r9, r0, r0, lsl r8
    9180:	00009620 	andeq	r9, r0, r0, lsr #12
    9184:	00009788 	andeq	r9, r0, r8, lsl #15

00009188 <memset>:
    9188:	e0802002 	add	r2, r0, r2
    918c:	e1a03000 	mov	r3, r0
    9190:	e1530002 	cmp	r3, r2
    9194:	212fff1e 	bxcs	lr
    9198:	e4c31001 	strb	r1, [r3], #1
    919c:	eafffffb 	b	9190 <memset+0x8>

000091a0 <internal_putchar>:
    91a0:	e92d4010 	push	{r4, lr}
    91a4:	e1a04000 	mov	r4, r0
    91a8:	ebfffee4 	bl	8d40 <uart_putc>
    91ac:	e1a00004 	mov	r0, r4
    91b0:	e8bd8010 	pop	{r4, pc}

000091b4 <rpi_reset_putc>:
    91b4:	e59f3008 	ldr	r3, [pc, #8]	; 91c4 <rpi_reset_putc+0x10>
    91b8:	e59f2008 	ldr	r2, [pc, #8]	; 91c8 <rpi_reset_putc+0x14>
    91bc:	e5832000 	str	r2, [r3]
    91c0:	e12fff1e 	bx	lr
    91c4:	0000982c 	andeq	r9, r0, ip, lsr #16
    91c8:	000091a0 	andeq	r9, r0, r0, lsr #3

000091cc <rpi_set_putc>:
    91cc:	e59f3004 	ldr	r3, [pc, #4]	; 91d8 <rpi_set_putc+0xc>
    91d0:	e5830000 	str	r0, [r3]
    91d4:	e12fff1e 	bx	lr
    91d8:	0000982c 	andeq	r9, r0, ip, lsr #16

000091dc <strcat>:
    91dc:	e1a02000 	mov	r2, r0
    91e0:	e1a03002 	mov	r3, r2
    91e4:	e2822001 	add	r2, r2, #1, 0
    91e8:	e5d3c000 	ldrb	ip, [r3]
    91ec:	e35c0000 	cmp	ip, #0, 0
    91f0:	1afffffa 	bne	91e0 <strcat+0x4>
    91f4:	e2433001 	sub	r3, r3, #1, 0
    91f8:	e5d12000 	ldrb	r2, [r1]
    91fc:	e2811001 	add	r1, r1, #1, 0
    9200:	e5e32001 	strb	r2, [r3, #1]!
    9204:	e3520000 	cmp	r2, #0, 0
    9208:	1afffffa 	bne	91f8 <strcat+0x1c>
    920c:	e12fff1e 	bx	lr

00009210 <strcmp>:
    9210:	e5d03000 	ldrb	r3, [r0]
    9214:	e3530000 	cmp	r3, #0, 0
    9218:	0a000004 	beq	9230 <strcmp+0x20>
    921c:	e5d12000 	ldrb	r2, [r1]
    9220:	e1530002 	cmp	r3, r2
    9224:	02800001 	addeq	r0, r0, #1, 0
    9228:	02811001 	addeq	r1, r1, #1, 0
    922c:	0afffff7 	beq	9210 <strcmp>
    9230:	e5d10000 	ldrb	r0, [r1]
    9234:	e0430000 	sub	r0, r3, r0
    9238:	e12fff1e 	bx	lr

0000923c <strcpy>:
    923c:	e1a0c000 	mov	ip, r0
    9240:	e5d12000 	ldrb	r2, [r1]
    9244:	e2811001 	add	r1, r1, #1, 0
    9248:	e5cc2000 	strb	r2, [ip]
    924c:	e28cc001 	add	ip, ip, #1, 0
    9250:	e3520000 	cmp	r2, #0, 0
    9254:	1afffff9 	bne	9240 <strcpy+0x4>
    9258:	e12fff1e 	bx	lr

0000925c <strncmp>:
    925c:	e3520000 	cmp	r2, #0, 0
    9260:	e2422001 	sub	r2, r2, #1, 0
    9264:	0a000005 	beq	9280 <strncmp+0x24>
    9268:	e4d03001 	ldrb	r3, [r0], #1
    926c:	e4d1c001 	ldrb	ip, [r1], #1
    9270:	e153000c 	cmp	r3, ip
    9274:	0afffff8 	beq	925c <strncmp>
    9278:	e043000c 	sub	r0, r3, ip
    927c:	e12fff1e 	bx	lr
    9280:	e3a00000 	mov	r0, #0, 0
    9284:	e12fff1e 	bx	lr

00009288 <reboot_callout>:
    9288:	e12fff1e 	bx	lr

0000928c <dev_barrier>:
    928c:	ea000002 	b	929c <dsb>

00009290 <dmb>:
    9290:	e3a00000 	mov	r0, #0, 0
    9294:	ee070fba 	mcr	15, 0, r0, cr7, cr10, {5}
    9298:	e12fff1e 	bx	lr

0000929c <dsb>:
    929c:	ee070f9a 	mcr	15, 0, r0, cr7, cr10, {4}
    92a0:	e12fff1e 	bx	lr

000092a4 <gpio_set_function>:
    92a4:	e350001f 	cmp	r0, #31, 0
    92a8:	812fff1e 	bxhi	lr
    92ac:	e92d4070 	push	{r4, r5, r6, lr}
    92b0:	e1a05001 	mov	r5, r1
    92b4:	e3d13007 	bics	r3, r1, #7, 0
    92b8:	18bd8070 	popne	{r4, r5, r6, pc}
    92bc:	e59f3040 	ldr	r3, [pc, #64]	; 9304 <gpio_set_function+0x60>
    92c0:	e0832093 	umull	r2, r3, r3, r0
    92c4:	e1a031a3 	lsr	r3, r3, #3
    92c8:	e1a02003 	mov	r2, r3
    92cc:	e0833103 	add	r3, r3, r3, lsl #2
    92d0:	e0403083 	sub	r3, r0, r3, lsl #1
    92d4:	e0834083 	add	r4, r3, r3, lsl #1
    92d8:	e2820302 	add	r0, r2, #134217728	; 0x8000000
    92dc:	e2800702 	add	r0, r0, #524288	; 0x80000
    92e0:	e1a06100 	lsl	r6, r0, #2
    92e4:	e1a00006 	mov	r0, r6
    92e8:	ebfffb4f 	bl	802c <GET32>
    92ec:	e3a01007 	mov	r1, #7, 0
    92f0:	e1c01411 	bic	r1, r0, r1, lsl r4
    92f4:	e1811415 	orr	r1, r1, r5, lsl r4
    92f8:	e1a00006 	mov	r0, r6
    92fc:	ebfffb48 	bl	8024 <PUT32>
    9300:	e8bd8070 	pop	{r4, r5, r6, pc}
    9304:	cccccccd 	stclgt	12, cr12, [ip], {205}	; 0xcd

00009308 <gpio_set_output>:
    9308:	e92d4010 	push	{r4, lr}
    930c:	e3a01001 	mov	r1, #1, 0
    9310:	ebffffe3 	bl	92a4 <gpio_set_function>
    9314:	e8bd8010 	pop	{r4, pc}

00009318 <gpio_set_on>:
    9318:	e350001f 	cmp	r0, #31, 0
    931c:	812fff1e 	bxhi	lr
    9320:	e92d4010 	push	{r4, lr}
    9324:	e3a01001 	mov	r1, #1, 0
    9328:	e1a01011 	lsl	r1, r1, r0
    932c:	e59f0004 	ldr	r0, [pc, #4]	; 9338 <gpio_set_on+0x20>
    9330:	ebfffb3b 	bl	8024 <PUT32>
    9334:	e8bd8010 	pop	{r4, pc}
    9338:	2020001c 	eorcs	r0, r0, ip, lsl r0

0000933c <gpio_set_off>:
    933c:	e350001f 	cmp	r0, #31, 0
    9340:	812fff1e 	bxhi	lr
    9344:	e92d4010 	push	{r4, lr}
    9348:	e3a01001 	mov	r1, #1, 0
    934c:	e1a01011 	lsl	r1, r1, r0
    9350:	e59f0004 	ldr	r0, [pc, #4]	; 935c <gpio_set_off+0x20>
    9354:	ebfffb32 	bl	8024 <PUT32>
    9358:	e8bd8010 	pop	{r4, pc}
    935c:	20200028 	eorcs	r0, r0, r8, lsr #32

00009360 <gpio_set_input>:
    9360:	e92d4010 	push	{r4, lr}
    9364:	e3a01000 	mov	r1, #0, 0
    9368:	ebffffcd 	bl	92a4 <gpio_set_function>
    936c:	e8bd8010 	pop	{r4, pc}

00009370 <gpio_write>:
    9370:	e92d4010 	push	{r4, lr}
    9374:	e3510000 	cmp	r1, #0, 0
    9378:	0a000001 	beq	9384 <gpio_write+0x14>
    937c:	ebffffe5 	bl	9318 <gpio_set_on>
    9380:	e8bd8010 	pop	{r4, pc}
    9384:	ebffffec 	bl	933c <gpio_set_off>
    9388:	e8bd8010 	pop	{r4, pc}

0000938c <gpio_read>:
    938c:	e350001f 	cmp	r0, #31, 0
    9390:	8a000007 	bhi	93b4 <gpio_read+0x28>
    9394:	e92d4010 	push	{r4, lr}
    9398:	e200401f 	and	r4, r0, #31, 0
    939c:	e59f3018 	ldr	r3, [pc, #24]	; 93bc <gpio_read+0x30>
    93a0:	e08302a0 	add	r0, r3, r0, lsr #5
    93a4:	ebfffb20 	bl	802c <GET32>
    93a8:	e1a00430 	lsr	r0, r0, r4
    93ac:	e2000001 	and	r0, r0, #1, 0
    93b0:	e8bd8010 	pop	{r4, pc}
    93b4:	e3e00000 	mvn	r0, #0, 0
    93b8:	e12fff1e 	bx	lr
    93bc:	20200034 	eorcs	r0, r0, r4, lsr r0

Disassembly of section .rodata:

000093c0 <__FUNCTION__.3955-0xd0>:
    93c0:	6c6c616d 	stfvse	f6, [ip], #-436	; 0xfffffe4c
    93c4:	3128636f 			; <UNDEFINED> instruction: 0x3128636f
    93c8:	70253d29 	eorvc	r3, r5, r9, lsr #26
    93cc:	6964202c 	stmdbvs	r4!, {r2, r3, r5, sp}^
    93d0:	253d6666 	ldrcs	r6, [sp, #-1638]!	; 0xfffff99a
    93d4:	000a646c 	andeq	r6, sl, ip, ror #8
    93d8:	65742d30 	ldrbvs	r2, [r4, #-3376]!	; 0xfffff2d0
    93dc:	6d2d7473 	cfstrsvs	mvf7, [sp, #-460]!	; 0xfffffe34
    93e0:	6f6c6c61 	svcvs	0x006c6c61
    93e4:	00632e63 	rsbeq	r2, r3, r3, ror #28
    93e8:	494e4150 	stmdbmi	lr, {r4, r6, r8, lr}^
    93ec:	73253a43 			; <UNDEFINED> instruction: 0x73253a43
    93f0:	3a73253a 	bcc	1cd28e0 <__bss_end__+0x1cc8c98>
    93f4:	653a6425 	ldrvs	r6, [sl, #-1061]!	; 0xfffffbdb
    93f8:	63657078 	cmnvs	r5, #120, 0	; 0x78
    93fc:	20646574 	rsbcs	r6, r4, r4, ror r5
    9400:	72206f74 	eorvc	r6, r0, #116, 30	; 0x1d0
    9404:	6c6c6165 	stfvse	f6, [ip], #-404	; 0xfffffe6c
    9408:	7461636f 	strbtvc	r6, [r1], #-879	; 0xfffffc91
    940c:	72662065 	rsbvc	r2, r6, #101, 0	; 0x65
    9410:	20646565 	rsbcs	r6, r4, r5, ror #10
    9414:	20727470 	rsbscs	r7, r2, r0, ror r4
    9418:	0a0a7025 	beq	2a54b4 <__bss_end__+0x29b86c>
    941c:	00000000 	andeq	r0, r0, r0
    9420:	43415254 	movtmi	r5, #4692	; 0x1254
    9424:	74693a45 	strbtvc	r3, [r9], #-2629	; 0xfffff5bb
    9428:	253d7265 	ldrcs	r7, [sp, #-613]!	; 0xfffffd9b
    942c:	74203a64 	strtvc	r3, [r0], #-2660	; 0xfffff59c
    9430:	69766972 	ldmdbvs	r6!, {r1, r4, r5, r6, r8, fp, sp, lr}^
    9434:	66206c61 	strtvs	r6, [r0], -r1, ror #24
    9438:	2f656572 	svccs	0x00656572
    943c:	6f6c6c61 	svcvs	0x006c6c61
    9440:	6f772063 	svcvs	0x00772063
    9444:	64656b72 	strbtvs	r6, [r5], #-2930	; 0xfffff48e
    9448:	20736120 	rsbscs	r6, r3, r0, lsr #2
    944c:	65707865 	ldrbvs	r7, [r0, #-2149]!	; 0xfffff79b
    9450:	64657463 	strbtvs	r7, [r5], #-1123	; 0xfffffb9d
    9454:	0000000a 	andeq	r0, r0, sl
    9458:	43415254 	movtmi	r5, #4692	; 0x1254
    945c:	75733a45 	ldrbvc	r3, [r3, #-2629]!	; 0xfffff5bb
    9460:	73656363 	cmnvc	r5, #-1946157055	; 0x8c000001
    9464:	6d203a73 	vstmdbvs	r0!, {s6-s120}
    9468:	6f6c6c61 	svcvs	0x006c6c61
    946c:	72662f63 	rsbvc	r2, r6, #396	; 0x18c
    9470:	61206565 			; <UNDEFINED> instruction: 0x61206565
    9474:	61657070 	smcvs	22272	; 0x5700
    9478:	6f742072 	svcvs	0x00742072
    947c:	726f7720 	rsbvc	r7, pc, #32, 14	; 0x800000
    9480:	6e6f206b 	cdpvs	0, 6, cr2, cr15, cr11, {3}
    9484:	20642520 	rsbcs	r2, r4, r0, lsr #10
    9488:	74736574 	ldrbtvc	r6, [r3], #-1396	; 0xfffffa8c
    948c:	000a2173 	andeq	r2, sl, r3, ror r1

00009490 <__FUNCTION__.3955>:
    9490:	6d746f6e 	ldclvs	15, cr6, [r4, #-440]!	; 0xfffffe48
    9494:	006e6961 	rsbeq	r6, lr, r1, ror #18
    9498:	696c2f2e 	stmdbvs	ip!, {r1, r2, r3, r5, r8, r9, sl, fp, sp}^
    949c:	762f6362 	strtvc	r6, [pc], -r2, ror #6
    94a0:	72702d61 	rsbsvc	r2, r0, #6208	; 0x1840
    94a4:	6b746e69 	blvs	1d24e50 <__bss_end__+0x1d1b208>
    94a8:	0000632e 	andeq	r6, r0, lr, lsr #6
    94ac:	494e4150 	stmdbmi	lr, {r4, r6, r8, lr}^
    94b0:	73253a43 			; <UNDEFINED> instruction: 0x73253a43
    94b4:	3a73253a 	bcc	1cd29a4 <__bss_end__+0x1cc8d5c>
    94b8:	253a6425 	ldrcs	r6, [sl, #-1061]!	; 0xfffffbdb
    94bc:	00000a73 	andeq	r0, r0, r3, ror sl
    94c0:	00000030 	andeq	r0, r0, r0, lsr r0
    94c4:	33323130 	teqcc	r2, #12
    94c8:	37363534 			; <UNDEFINED> instruction: 0x37363534
    94cc:	00003938 	andeq	r3, r0, r8, lsr r9
    94d0:	33323130 	teqcc	r2, #12
    94d4:	37363534 			; <UNDEFINED> instruction: 0x37363534
    94d8:	62613938 	rsbvs	r3, r1, #56, 18	; 0xe0000
    94dc:	66656463 	strbtvs	r6, [r5], -r3, ror #8
    94e0:	00000000 	andeq	r0, r0, r0
    94e4:	00003130 	andeq	r3, r0, r0, lsr r1
    94e8:	63747570 	cmnvs	r4, #112, 10	; 0x1c000000
    94ec:	0070665f 	rsbseq	r6, r0, pc, asr r6
    94f0:	74646977 	strbtvc	r6, [r4], #-2423	; 0xfffff689
    94f4:	203c2068 	eorscs	r2, ip, r8, rrx
    94f8:	00003233 	andeq	r3, r0, r3, lsr r2
    94fc:	00786c6c 	rsbseq	r6, r8, ip, ror #24
    9500:	00646c6c 	rsbeq	r6, r4, ip, ror #24
    9504:	253d3078 	ldrcs	r3, [sp, #-120]!	; 0xffffff88
    9508:	00000a78 	andeq	r0, r0, r8, ror sl
    950c:	253d3178 	ldrcs	r3, [sp, #-376]!	; 0xfffffe88
    9510:	00000a78 	andeq	r0, r0, r8, ror sl
    9514:	6e727473 	mrcvs	4, 3, r7, cr2, cr3, {3}
    9518:	28706d63 	ldmdacs	r0!, {r0, r1, r5, r6, r8, sl, fp, sp, lr}^
    951c:	202c7974 	eorcs	r7, ip, r4, ror r9
    9520:	786c6c22 	stmdavc	ip!, {r1, r5, sl, fp, sp, lr}^
    9524:	33202c22 			; <UNDEFINED> instruction: 0x33202c22
    9528:	3d3d2029 	ldccc	0, cr2, [sp, #-164]!	; 0xffffff5c
    952c:	7c203020 	stcvc	0, cr3, [r0], #-128	; 0xffffff80
    9530:	7473207c 	ldrbtvc	r2, [r3], #-124	; 0xffffff84
    9534:	6d636e72 	stclvs	14, cr6, [r3, #-456]!	; 0xfffffe38
    9538:	79742870 	ldmdbvc	r4!, {r4, r5, r6, fp, sp}^
    953c:	6c22202c 	stcvs	0, cr2, [r2], #-176	; 0xffffff50
    9540:	2c22646c 	cfstrscs	mvf6, [r2], #-432	; 0xfffffe50
    9544:	20293320 	eorcs	r3, r9, r0, lsr #6
    9548:	30203d3d 	eorcc	r3, r0, sp, lsr sp
    954c:	00000000 	andeq	r0, r0, r0
    9550:	494e4150 	stmdbmi	lr, {r4, r6, r8, lr}^
    9554:	73253a43 			; <UNDEFINED> instruction: 0x73253a43
    9558:	3a73253a 	bcc	1cd2a48 <__bss_end__+0x1cc8e00>
    955c:	693a6425 	ldmdbvs	sl!, {r0, r2, r5, sl, sp, lr}
    9560:	736f706d 	cmnvc	pc, #109, 0	; 0x6d
    9564:	6c626973 			; <UNDEFINED> instruction: 0x6c626973
    9568:	66203a65 	strtvs	r3, [r0], -r5, ror #20
    956c:	3c3d746d 	cfldrscc	mvf7, [sp], #-436	; 0xfffffe4c
    9570:	0a3e7325 	beq	fa620c <__bss_end__+0xf9c5c4>
    9574:	0000000a 	andeq	r0, r0, sl
    9578:	494e4150 	stmdbmi	lr, {r4, r6, r8, lr}^
    957c:	73253a43 			; <UNDEFINED> instruction: 0x73253a43
    9580:	3a73253a 	bcc	1cd2a70 <__bss_end__+0x1cc8e28>
    9584:	663a6425 	ldrtvs	r6, [sl], -r5, lsr #8
    9588:	74616f6c 	strbtvc	r6, [r1], #-3948	; 0xfffff094
    958c:	746f6e20 	strbtvc	r6, [pc], #-3616	; 9594 <__FUNCTION__.3955+0x104>
    9590:	616e6520 	cmnvs	lr, r0, lsr #10
    9594:	64656c62 	strbtvs	r6, [r5], #-3170	; 0xfffff39e
    9598:	0a212121 	beq	851a24 <__bss_end__+0x847ddc>
    959c:	00000000 	andeq	r0, r0, r0
    95a0:	6e697270 	mcrvs	2, 3, r7, cr9, cr0, {3}
    95a4:	203a6b74 	eorscs	r6, sl, r4, ror fp
    95a8:	20746f6e 	rsbscs	r6, r4, lr, ror #30
    95ac:	646e6168 	strbtvs	r6, [lr], #-360	; 0xfffffe98
    95b0:	676e696c 	strbvs	r6, [lr, -ip, ror #18]!
    95b4:	65707320 	ldrbvs	r7, [r0, #-800]!	; 0xfffffce0
    95b8:	69666963 	stmdbvs	r6!, {r0, r1, r5, r6, r8, fp, sp, lr}^
    95bc:	27207265 	strcs	r7, [r0, -r5, ror #4]!
    95c0:	20276325 	eorcs	r6, r7, r5, lsr #6
    95c4:	63736128 	cmnvs	r3, #10
    95c8:	253d6969 	ldrcs	r6, [sp, #-2409]!	; 0xfffff697
    95cc:	000a2964 	andeq	r2, sl, r4, ror #18
    95d0:	494e4150 	stmdbmi	lr, {r4, r6, r8, lr}^
    95d4:	73253a43 			; <UNDEFINED> instruction: 0x73253a43
    95d8:	3a73253a 	bcc	1cd2ac8 <__bss_end__+0x1cc8e80>
    95dc:	703a6425 	eorsvc	r6, sl, r5, lsr #8
    95e0:	746e6972 	strbtvc	r6, [lr], #-2418	; 0xfffff68e
    95e4:	7265206b 	rsbvc	r2, r5, #107, 0	; 0x6b
    95e8:	0a726f72 	beq	1ca53b8 <__bss_end__+0x1c9b770>
    95ec:	0000000a 	andeq	r0, r0, sl

000095f0 <__FUNCTION__.4008>:
    95f0:	74696d65 	strbtvc	r6, [r9], #-3429	; 0xfffff29b
    95f4:	00000000 	andeq	r0, r0, r0

000095f8 <__FUNCTION__.3956>:
    95f8:	5f697072 	svcpl	0x00697072
    95fc:	5f746573 	svcpl	0x00746573
    9600:	7074756f 	rsbsvc	r7, r4, pc, ror #10
    9604:	00007475 	andeq	r7, r0, r5, ror r4

00009608 <__FUNCTION__.4034>:
    9608:	705f6176 	subsvc	r6, pc, r6, ror r1	; <UNPREDICTABLE>
    960c:	746e6972 	strbtvc	r6, [lr], #-2418	; 0xfffff68e
    9610:	0000006b 	andeq	r0, r0, fp, rrx
    9614:	454e4f44 	strbmi	r4, [lr, #-3908]	; 0xfffff0bc
    9618:	0a212121 	beq	851aa4 <__bss_end__+0x847e5c>
    961c:	00000000 	andeq	r0, r0, r0
    9620:	6c616d6b 	stclvs	13, cr6, [r1], #-428	; 0xfffffe54
    9624:	2e636f6c 	cdpcs	15, 6, cr6, cr3, cr12, {3}
    9628:	00000063 	andeq	r0, r0, r3, rrx
    962c:	5f78616d 	svcpl	0x0078616d
    9630:	7479626e 	ldrbtvc	r6, [r9], #-622	; 0xfffffd92
    9634:	00007365 	andeq	r7, r0, r5, ror #6
    9638:	494e4150 	stmdbmi	lr, {r4, r6, r8, lr}^
    963c:	73253a43 			; <UNDEFINED> instruction: 0x73253a43
    9640:	3a73253a 	bcc	1cd2b30 <__bss_end__+0x1cc8ee8>
    9644:	733a6425 	teqvc	sl, #620756992	; 0x25000000
    9648:	69747465 	ldmdbvs	r4!, {r0, r2, r5, r6, sl, ip, sp, lr}^
    964c:	6820676e 	stmdavs	r0!, {r1, r2, r3, r5, r6, r8, r9, sl, sp, lr}
    9650:	20706165 	rsbscs	r6, r0, r5, ror #2
    9654:	25206f74 	strcs	r6, [r0, #-3956]!	; 0xfffff08c
    9658:	77203a70 			; <UNDEFINED> instruction: 0x77203a70
    965c:	206c6c69 	rsbcs	r6, ip, r9, ror #24
    9660:	20746968 	rsbscs	r6, r4, r8, ror #18
    9664:	20656874 	rsbcs	r6, r5, r4, ror r8
    9668:	20646c6f 	rsbcs	r6, r4, pc, ror #24
    966c:	70616568 	rsbvc	r6, r1, r8, ror #10
    9670:	20746120 	rsbscs	r6, r4, r0, lsr #2
    9674:	0a0a7025 	beq	2a5710 <__bss_end__+0x29bac8>
    9678:	00000000 	andeq	r0, r0, r0
    967c:	494e4150 	stmdbmi	lr, {r4, r6, r8, lr}^
    9680:	73253a43 			; <UNDEFINED> instruction: 0x73253a43
    9684:	3a73253a 	bcc	1cd2b74 <__bss_end__+0x1cc8f2c>
    9688:	613a6425 	teqvs	sl, r5, lsr #8
    968c:	6165726c 	cmnvs	r5, ip, ror #4
    9690:	63207964 			; <UNDEFINED> instruction: 0x63207964
    9694:	656c6c61 	strbvs	r6, [ip, #-3169]!	; 0xfffff39f
    9698:	6d6b2064 	stclvs	0, cr2, [fp, #-400]!	; 0xfffffe70
    969c:	6f6c6c61 	svcvs	0x006c6c61
    96a0:	6e695f63 	cdpvs	15, 6, cr5, cr9, cr3, {3}
    96a4:	0a0a7469 	beq	2a6850 <__bss_end__+0x29cc08>
    96a8:	00000000 	andeq	r0, r0, r0
    96ac:	494e4150 	stmdbmi	lr, {r4, r6, r8, lr}^
    96b0:	73253a43 			; <UNDEFINED> instruction: 0x73253a43
    96b4:	3a73253a 	bcc	1cd2ba4 <__bss_end__+0x1cc8f5c>
    96b8:	253a6425 	ldrcs	r6, [sl, #-1061]!	; 0xfffffbdb
    96bc:	626e2064 	rsbvs	r2, lr, #100, 0	; 0x64
    96c0:	73657479 	cmnvc	r5, #2030043136	; 0x79000000
    96c4:	63786520 	cmnvs	r8, #32, 10	; 0x8000000
    96c8:	65646565 	strbvs	r6, [r4, #-1381]!	; 0xfffffa9b
    96cc:	69732064 	ldmdbvs	r3!, {r2, r5, r6, sp}^
    96d0:	6f20657a 	svcvs	0x0020657a
    96d4:	65682066 	strbvs	r2, [r8, #-102]!	; 0xffffff9a
    96d8:	62207061 	eorvs	r7, r0, #97, 0	; 0x61
    96dc:	75252079 	strvc	r2, [r5, #-121]!	; 0xffffff87
    96e0:	79626e20 	stmdbvc	r2!, {r5, r9, sl, fp, sp, lr}^
    96e4:	0a736574 	beq	1ce2cbc <__bss_end__+0x1cd9074>
    96e8:	0000000a 	andeq	r0, r0, sl
    96ec:	4f525245 	svcmi	0x00525245
    96f0:	73253a52 			; <UNDEFINED> instruction: 0x73253a52
    96f4:	3a73253a 	bcc	1cd2be4 <__bss_end__+0x1cc8f9c>
    96f8:	203a6425 	eorscs	r6, sl, r5, lsr #8
    96fc:	534c4146 	movtpl	r4, #49478	; 0xc146
    9700:	253c2845 	ldrcs	r2, [ip, #-2117]!	; 0xfffff7bb
    9704:	3a293e73 	bcc	a590d8 <__bss_end__+0xa4f490>
    9708:	73736120 	cmnvc	r3, #8
    970c:	6e696d75 	mcrvs	13, 3, r6, cr9, cr5, {3}
    9710:	6f702067 	svcvs	0x00702067
    9714:	20726577 	rsbscs	r6, r2, r7, ror r5
    9718:	7420666f 	strtvc	r6, [r0], #-1647	; 0xfffff991
    971c:	000a6f77 	andeq	r6, sl, r7, ror pc
    9720:	705f7369 	subsvc	r7, pc, r9, ror #6
    9724:	2832776f 	ldmdacs	r2!, {r0, r1, r2, r3, r5, r6, r8, r9, sl, ip, sp, lr}
    9728:	67696c61 	strbvs	r6, [r9, -r1, ror #24]!
    972c:	6e656d6e 	cdpvs	13, 6, cr6, cr5, cr14, {3}
    9730:	00002974 	andeq	r2, r0, r4, ror r9
    9734:	705f7369 	subsvc	r7, pc, r9, ror #6
    9738:	2832776f 	ldmdacs	r2!, {r0, r1, r2, r3, r5, r6, r8, r9, sl, ip, sp, lr}
    973c:	0000296e 	andeq	r2, r0, lr, ror #18
    9740:	4f525245 	svcmi	0x00525245
    9744:	73253a52 			; <UNDEFINED> instruction: 0x73253a52
    9748:	3a73253a 	bcc	1cd2c38 <__bss_end__+0x1cc8ff0>
    974c:	203a6425 	eorscs	r6, sl, r5, lsr #8
    9750:	534c4146 	movtpl	r4, #49478	; 0xc146
    9754:	253c2845 	ldrcs	r2, [ip, #-2117]!	; 0xfffff7bb
    9758:	3a293e73 	bcc	a5912c <__bss_end__+0xa4f4e4>
    975c:	706d6920 	rsbvc	r6, sp, r0, lsr #18
    9760:	6973736f 	ldmdbvs	r3!, {r0, r1, r2, r3, r5, r6, r8, r9, ip, sp, lr}^
    9764:	0a656c62 	beq	19648f4 <__bss_end__+0x195acac>
    9768:	00000000 	andeq	r0, r0, r0
    976c:	615f7369 	cmpvs	pc, r9, ror #6
    9770:	6e67696c 	vnmulvs.f16	s13, s14, s25	; <UNPREDICTABLE>
    9774:	68286465 	stmdavs	r8!, {r0, r2, r5, r6, sl, sp, lr}
    9778:	6c61202c 	stclvs	0, cr2, [r1], #-176	; 0xffffff50
    977c:	6d6e6769 	stclvs	7, cr6, [lr, #-420]!	; 0xfffffe5c
    9780:	29746e65 	ldmdbcs	r4!, {r0, r2, r5, r6, r9, sl, fp, sp, lr}^
    9784:	00000000 	andeq	r0, r0, r0
    9788:	494e4150 	stmdbmi	lr, {r4, r6, r8, lr}^
    978c:	73253a43 			; <UNDEFINED> instruction: 0x73253a43
    9790:	3a73253a 	bcc	1cd2c80 <__bss_end__+0x1cc9038>
    9794:	703a6425 	eorsvc	r6, sl, r5, lsr #8
    9798:	746e696f 	strbtvc	r6, [lr], #-2415	; 0xfffff691
    979c:	25207265 	strcs	r7, [r0, #-613]!	; 0xfffffd9b
    97a0:	61772070 	cmnvs	r7, r0, ror r0
    97a4:	656e2073 	strbvs	r2, [lr, #-115]!	; 0xffffff8d
    97a8:	20726576 	rsbscs	r6, r2, r6, ror r5
    97ac:	6f6c6c61 	svcvs	0x006c6c61
    97b0:	65746163 	ldrbvs	r6, [r4, #-355]!	; 0xfffffe9d
    97b4:	000a0a64 	andeq	r0, sl, r4, ror #20

000097b8 <__FUNCTION__.7>:
    97b8:	6c616d6b 	stclvs	13, cr6, [r1], #-428	; 0xfffffe54
    97bc:	5f636f6c 	svcpl	0x00636f6c
    97c0:	74696e69 	strbtvc	r6, [r9], #-3689	; 0xfffff197
    97c4:	7465735f 	strbtvc	r7, [r5], #-863	; 0xfffffca1
    97c8:	6174735f 	cmnvs	r4, pc, asr r3
    97cc:	00007472 	andeq	r7, r0, r2, ror r4

000097d0 <__FUNCTION__.5>:
    97d0:	6c616d6b 	stclvs	13, cr6, [r1], #-428	; 0xfffffe54
    97d4:	5f636f6c 	svcpl	0x00636f6c
    97d8:	74696e69 	strbtvc	r6, [r9], #-3689	; 0xfffff197
    97dc:	00000000 	andeq	r0, r0, r0

000097e0 <__FUNCTION__.4>:
    97e0:	6c616d6b 	stclvs	13, cr6, [r1], #-428	; 0xfffffe54
    97e4:	5f636f6c 	svcpl	0x00636f6c
    97e8:	7a746f6e 	bvc	1d255a8 <__bss_end__+0x1d1b960>
    97ec:	006f7265 	rsbeq	r7, pc, r5, ror #4

000097f0 <__FUNCTION__.2>:
    97f0:	6c616d6b 	stclvs	13, cr6, [r1], #-428	; 0xfffffe54
    97f4:	00636f6c 	rsbeq	r6, r3, ip, ror #30

000097f8 <__FUNCTION__.1>:
    97f8:	6c616d6b 	stclvs	13, cr6, [r1], #-428	; 0xfffffe54
    97fc:	5f636f6c 	svcpl	0x00636f6c
    9800:	67696c61 	strbvs	r6, [r9, -r1, ror #24]!
    9804:	0064656e 	rsbeq	r6, r4, lr, ror #10

00009808 <__FUNCTION__.3>:
    9808:	6e756f72 	mrcvs	15, 3, r6, cr5, cr2, {3}
    980c:	00707564 	rsbseq	r7, r0, r4, ror #10

00009810 <__FUNCTION__.0>:
    9810:	6572666b 	ldrbvs	r6, [r2, #-1643]!	; 0xfffff995
    9814:	6f705f65 	svcvs	0x00705f65
    9818:	Address 0x0000000000009818 is out of bounds.


Disassembly of section .data:

0000981c <putk>:
    981c:	00008304 	andeq	r8, r0, r4, lsl #6

00009820 <heap_end>:
    9820:	00209c48 	eoreq	r9, r0, r8, asr #24

00009824 <heap_start>:
    9824:	00009c48 	andeq	r9, r0, r8, asr #24

00009828 <heap>:
    9828:	00009c48 	andeq	r9, r0, r8, asr #24

0000982c <rpi_putchar>:
    982c:	000091a0 	andeq	r9, r0, r0, lsr #3

Disassembly of section .bss:

00009830 <__bss_start__>:
	...

00009838 <base>:
	...

00009840 <buf.3948>:
	...

00009c40 <init_p.6>:
	...

Disassembly of section .ARM.attributes:

00000000 <.ARM.attributes>:
   0:	00002a41 	andeq	r2, r0, r1, asr #20
   4:	61656100 	cmnvs	r5, r0, lsl #2
   8:	01006962 	tsteq	r0, r2, ror #18
   c:	00000020 	andeq	r0, r0, r0, lsr #32
  10:	4b5a3605 	blmi	168d82c <__bss_end__+0x1683be4>
  14:	08070600 	stmdaeq	r7, {r9, sl}
  18:	12010901 	andne	r0, r1, #16384	; 0x4000
  1c:	15011404 	strne	r1, [r1, #-1028]	; 0xfffffbfc
  20:	18031701 	stmdane	r3, {r0, r8, r9, sl, ip}
  24:	22011a01 	andcs	r1, r1, #4096	; 0x1000
  28:	Address 0x0000000000000028 is out of bounds.


Disassembly of section .comment:

00000000 <.comment>:
   0:	3a434347 	bcc	10d0d24 <__bss_end__+0x10c70dc>
   4:	4e472820 	cdpmi	8, 4, cr2, cr7, cr0, {1}
   8:	6f542055 	svcvs	0x00542055
   c:	20736c6f 	rsbscs	r6, r3, pc, ror #24
  10:	20726f66 	rsbscs	r6, r2, r6, ror #30
  14:	206d7241 	rsbcs	r7, sp, r1, asr #4
  18:	65626d45 	strbvs	r6, [r2, #-3397]!	; 0xfffff2bb
  1c:	64656464 	strbtvs	r6, [r5], #-1124	; 0xfffffb9c
  20:	6f725020 	svcvs	0x00725020
  24:	73736563 	cmnvc	r3, #415236096	; 0x18c00000
  28:	2073726f 	rsbscs	r7, r3, pc, ror #4
  2c:	30322d39 	eorscc	r2, r2, r9, lsr sp
  30:	712d3931 			; <UNDEFINED> instruction: 0x712d3931
  34:	616d2d34 	cmnvs	sp, r4, lsr sp
  38:	29726f6a 	ldmdbcs	r2!, {r1, r3, r5, r6, r8, r9, sl, fp, sp, lr}^
  3c:	322e3920 	eorcc	r3, lr, #32, 18	; 0x80000
  40:	3220312e 	eorcc	r3, r0, #-2147483637	; 0x8000000b
  44:	31393130 	teqcc	r9, r0, lsr r1
  48:	20353230 	eorscs	r3, r5, r0, lsr r2
  4c:	6c657228 	sfmvs	f7, 2, [r5], #-160	; 0xffffff60
  50:	65736165 	ldrbvs	r6, [r3, #-357]!	; 0xfffffe9b
  54:	415b2029 	cmpmi	fp, r9, lsr #32
  58:	612f4d52 			; <UNDEFINED> instruction: 0x612f4d52
  5c:	392d6d72 	pushcc	{r1, r4, r5, r6, r8, sl, fp, sp, lr}
  60:	6172622d 	cmnvs	r2, sp, lsr #4
  64:	2068636e 	rsbcs	r6, r8, lr, ror #6
  68:	69766572 	ldmdbvs	r6!, {r1, r4, r5, r6, r8, sl, sp, lr}^
  6c:	6e6f6973 			; <UNDEFINED> instruction: 0x6e6f6973
  70:	37373220 	ldrcc	r3, [r7, -r0, lsr #4]!
  74:	5d393935 			; <UNDEFINED> instruction: 0x5d393935
  78:	43434700 	movtmi	r4, #14080	; 0x3700
  7c:	4728203a 			; <UNDEFINED> instruction: 0x4728203a
  80:	4120554e 			; <UNDEFINED> instruction: 0x4120554e
  84:	45206d72 	strmi	r6, [r0, #-3442]!	; 0xfffff28e
  88:	6465626d 	strbtvs	r6, [r5], #-621	; 0xfffffd93
  8c:	20646564 	rsbcs	r6, r4, r4, ror #10
  90:	6c6f6f54 	stclvs	15, cr6, [pc], #-336	; ffffff48 <__bss_end__+0xffff6300>
  94:	69616863 	stmdbvs	r1!, {r0, r1, r5, r6, fp, sp, lr}^
  98:	3031206e 	eorscc	r2, r1, lr, rrx
  9c:	322d332e 	eorcc	r3, sp, #-1207959552	; 0xb8000000
  a0:	2e313230 	mrccs	2, 1, r3, cr1, cr0, {1}
  a4:	20293031 	eorcs	r3, r9, r1, lsr r0
  a8:	332e3031 			; <UNDEFINED> instruction: 0x332e3031
  ac:	3220312e 	eorcc	r3, r0, #-2147483637	; 0x8000000b
  b0:	30313230 	eorscc	r3, r1, r0, lsr r2
  b4:	20343238 	eorscs	r3, r4, r8, lsr r2
  b8:	6c657228 	sfmvs	f7, 2, [r5], #-160	; 0xffffff60
  bc:	65736165 	ldrbvs	r6, [r3, #-357]!	; 0xfffffe9b
  c0:	Address 0x00000000000000c0 is out of bounds.


Disassembly of section .debug_info:

00000000 <.debug_info>:
       0:	00000294 	muleq	r0, r4, r2
       4:	00000004 	andeq	r0, r0, r4
       8:	01040000 	mrseq	r0, (UNDEF: 4)
       c:	00000104 	andeq	r0, r0, r4, lsl #2
      10:	00004b0c 	andeq	r4, r0, ip, lsl #22
      14:	00009300 	andeq	r9, r0, r0, lsl #6
      18:	00803800 	addeq	r3, r0, r0, lsl #16
      1c:	0000bc00 	andeq	fp, r0, r0, lsl #24
      20:	00000000 	andeq	r0, r0, r0
      24:	05040200 	streq	r0, [r4, #-512]	; 0xfffffe00
      28:	00746e69 	rsbseq	r6, r4, r9, ror #28
      2c:	6c070403 	cfstrsvs	mvf0, [r7], {3}
      30:	03000000 	movweq	r0, #0
      34:	000a0601 	andeq	r0, sl, r1, lsl #12
      38:	02030000 	andeq	r0, r3, #0, 0
      3c:	0000f005 	andeq	pc, r0, r5
      40:	05040300 	streq	r0, [r4, #-768]	; 0xfffffd00
      44:	0000007e 	andeq	r0, r0, lr, ror r0
      48:	79050803 	stmdbvc	r5, {r0, r1, fp}
      4c:	03000000 	movweq	r0, #0
      50:	00080801 	andeq	r0, r8, r1, lsl #16
      54:	02030000 	andeq	r0, r3, #0, 0
      58:	00002307 	andeq	r2, r0, r7, lsl #6
      5c:	07040300 	streq	r0, [r4, -r0, lsl #6]
      60:	00000067 	andeq	r0, r0, r7, rrx
      64:	62070803 	andvs	r0, r7, #196608	; 0x30000
      68:	04000000 	streq	r0, [r0], #-0
      6c:	00000025 	andeq	r0, r0, r5, lsr #32
      70:	0000007a 	andeq	r0, r0, sl, ror r0
      74:	00002505 	andeq	r2, r0, r5, lsl #10
      78:	87060000 	strhi	r0, [r6, -r0]
      7c:	02000000 	andeq	r0, r0, #0, 0
      80:	00860e1c 	addeq	r0, r6, ip, lsl lr
      84:	04070000 	streq	r0, [r7], #-0
      88:	0000006b 	andeq	r0, r0, fp, rrx
      8c:	00002504 	andeq	r2, r0, r4, lsl #10
      90:	00009b00 	andeq	r9, r0, r0, lsl #22
      94:	009b0500 	addseq	r0, fp, r0, lsl #10
      98:	07000000 	streq	r0, [r0, -r0]
      9c:	0000a804 	andeq	sl, r0, r4, lsl #16
      a0:	08010300 	stmdaeq	r1, {r8, r9}
      a4:	00000011 	andeq	r0, r0, r1, lsl r0
      a8:	0000a108 	andeq	sl, r0, r8, lsl #2
      ac:	03820600 	orreq	r0, r2, #0, 12
      b0:	21020000 	mrscs	r0, (UNDEF: 2)
      b4:	0000b90e 	andeq	fp, r0, lr, lsl #18
      b8:	8c040700 	stchi	7, cr0, [r4], {-0}
      bc:	09000000 	stmdbeq	r0, {}	; <UNPREDICTABLE>
      c0:	00000000 	andeq	r0, r0, r0
      c4:	38060501 	stmdacc	r6, {r0, r8, sl}
      c8:	bc000080 	stclt	0, cr0, [r0], {128}	; 0x80
      cc:	01000000 	mrseq	r0, (UNDEF: 0)
      d0:	00024c9c 	muleq	r2, ip, ip
      d4:	01070a00 	tsteq	r7, r0, lsl #20
      d8:	0000004f 	andeq	r0, r0, pc, asr #32
      dc:	ea0a0601 	b	2818e8 <__bss_end__+0x277ca0>
      e0:	0b000000 	bleq	e8 <__code_start__-0x7f18>
      e4:	0000005b 	andeq	r0, r0, fp, asr r0
      e8:	700c000a 	andvc	r0, ip, sl
      ec:	08010030 	stmdaeq	r1, {r4, r5}
      f0:	00024c0b 	andeq	r4, r2, fp, lsl #24
      f4:	00000800 	andeq	r0, r0, r0, lsl #16
      f8:	00000000 	andeq	r0, r0, r0
      fc:	003e0d00 	eorseq	r0, lr, r0, lsl #26
     100:	02620000 	rsbeq	r0, r2, #0, 0
     104:	03050000 	movweq	r0, #20480	; 0x5000
     108:	00009490 	muleq	r0, r0, r4
     10c:	00804c0e 	addeq	r4, r0, lr, lsl #24
     110:	00007c00 	andeq	r7, r0, r0, lsl #24
     114:	00022000 	andeq	r2, r2, r0
     118:	00690c00 	rsbeq	r0, r9, r0, lsl #24
     11c:	2c120901 			; <UNDEFINED> instruction: 0x2c120901
     120:	40000000 	andmi	r0, r0, r0
     124:	3c000000 	stccc	0, cr0, [r0], {-0}
     128:	0f000000 	svceq	0x00000000
     12c:	00000000 	andeq	r0, r0, r0
     130:	0031700c 	eorseq	r7, r1, ip
     134:	4c0f0a01 			; <UNDEFINED> instruction: 0x4c0f0a01
     138:	63000002 	movwvs	r0, #2
     13c:	5f000000 	svcpl	0x00000000
     140:	0c000000 	stceq	0, cr0, [r0], {-0}
     144:	01003270 	tsteq	r0, r0, ror r2
     148:	024c0f10 	subeq	r0, ip, #16, 30	; 0x40
     14c:	00850000 	addeq	r0, r5, r0
     150:	00810000 	addeq	r0, r1, r0
     154:	60100000 	andsvs	r0, r0, r0
     158:	67000080 	strvs	r0, [r0, -r0, lsl #1]
     15c:	69000002 	stmdbvs	r0, {r1}
     160:	11000001 	tstne	r0, r1
     164:	31015001 	tstcc	r1, r1
     168:	806c1000 	rsbhi	r1, ip, r0
     16c:	02670000 	rsbeq	r0, r7, #0, 0
     170:	017c0000 	cmneq	ip, r0
     174:	01110000 	tsteq	r1, r0
     178:	00310150 	eorseq	r0, r1, r0, asr r1
     17c:	00807c10 	addeq	r7, r0, r0, lsl ip
     180:	00027300 	andeq	r7, r2, r0, lsl #6
     184:	00019c00 	andeq	r9, r1, r0, lsl #24
     188:	50011100 	andpl	r1, r1, r0, lsl #2
     18c:	93c00305 	bicls	r0, r0, #335544320	; 0x14000000
     190:	01110000 	tsteq	r1, r0
     194:	00740552 	rsbseq	r0, r4, r2, asr r5
     198:	001c0076 	andseq	r0, ip, r6, ror r0
     19c:	00808410 	addeq	r8, r0, r0, lsl r4
     1a0:	00027f00 	andeq	r7, r2, r0, lsl #30
     1a4:	0001b000 	andeq	fp, r1, r0
     1a8:	50011100 	andpl	r1, r1, r0, lsl #2
     1ac:	00007402 	andeq	r7, r0, r2, lsl #8
     1b0:	00808c10 	addeq	r8, r0, r0, lsl ip
     1b4:	00026700 	andeq	r6, r2, r0, lsl #14
     1b8:	0001c300 	andeq	ip, r1, r0, lsl #6
     1bc:	50011100 	andpl	r1, r1, r0, lsl #2
     1c0:	10003101 	andne	r3, r0, r1, lsl #2
     1c4:	000080a0 	andeq	r8, r0, r0, lsr #1
     1c8:	00000273 	andeq	r0, r0, r3, ror r2
     1cc:	000001e0 	andeq	r0, r0, r0, ror #3
     1d0:	05500111 	ldrbeq	r0, [r0, #-273]	; 0xfffffeef
     1d4:	00942003 	addseq	r2, r4, r3
     1d8:	51011100 	mrspl	r1, (UNDEF: 17)
     1dc:	00007502 	andeq	r7, r0, r2, lsl #10
     1e0:	0080c410 	addeq	ip, r0, r0, lsl r4
     1e4:	00027300 	andeq	r7, r2, r0, lsl #6
     1e8:	00021500 	andeq	r1, r2, r0, lsl #10
     1ec:	50011100 	andpl	r1, r1, r0, lsl #2
     1f0:	93e80305 	mvnls	r0, #335544320	; 0x14000000
     1f4:	01110000 	tsteq	r1, r0
     1f8:	d8030551 	stmdale	r3, {r0, r4, r6, r8, sl}
     1fc:	11000093 	swpne	r0, r3, [r0]	; <UNPREDICTABLE>
     200:	03055201 	movweq	r5, #20993	; 0x5201
     204:	00009490 	muleq	r0, r0, r4
     208:	01530111 	cmpeq	r3, r1, lsl r1
     20c:	7d021142 	stfvcs	f1, [r2, #-264]	; 0xfffffef8
     210:	00740200 	rsbseq	r0, r4, r0, lsl #4
     214:	80c81200 	sbchi	r1, r8, r0, lsl #4
     218:	028b0000 	addeq	r0, fp, #0, 0
     21c:	00000000 	andeq	r0, r0, r0
     220:	00804810 	addeq	r4, r0, r0, lsl r8
     224:	00026700 	andeq	r6, r2, r0, lsl #14
     228:	00023300 	andeq	r3, r2, r0, lsl #6
     22c:	50011100 	andpl	r1, r1, r0, lsl #2
     230:	13003101 	movwne	r3, #257	; 0x101
     234:	000080d4 	ldrdeq	r8, [r0], -r4
     238:	00000273 	andeq	r0, r0, r3, ror r2
     23c:	05500111 	ldrbeq	r0, [r0, #-273]	; 0xfffffeef
     240:	00945803 	addseq	r5, r4, r3, lsl #16
     244:	51011100 	mrspl	r1, (UNDEF: 17)
     248:	00003a01 	andeq	r3, r0, r1, lsl #20
     24c:	00a10407 	adceq	r0, r1, r7, lsl #8
     250:	a8140000 	ldmdage	r4, {}	; <UNPREDICTABLE>
     254:	62000000 	andvs	r0, r0, #0, 0
     258:	15000002 	strne	r0, [r0, #-2]
     25c:	0000002c 	andeq	r0, r0, ip, lsr #32
     260:	52080007 	andpl	r0, r8, #7, 0
     264:	16000002 	strne	r0, [r0], -r2
     268:	000000fa 	strdeq	r0, [r0], -sl
     26c:	000000fa 	strdeq	r0, [r0], -sl
     270:	16071e03 	strne	r1, [r7], -r3, lsl #28
     274:	000002fc 	strdeq	r0, [r0], -ip
     278:	000002fc 	strdeq	r0, [r0], -ip
     27c:	16062802 	strne	r2, [r6], -r2, lsl #16
     280:	00000036 	andeq	r0, r0, r6, lsr r0
     284:	00000036 	andeq	r0, r0, r6, lsr r0
     288:	16061f03 	strne	r1, [r6], -r3, lsl #30
     28c:	00000016 	andeq	r0, r0, r6, lsl r0
     290:	00000016 	andeq	r0, r0, r6, lsl r0
     294:	00066e02 	andeq	r6, r6, r2, lsl #28
     298:	000002da 	ldrdeq	r0, [r0], -sl
     29c:	011e0004 	tsteq	lr, r4
     2a0:	01040000 	mrseq	r0, (UNDEF: 4)
     2a4:	00000104 	andeq	r0, r0, r4, lsl #2
     2a8:	0001d90c 	andeq	sp, r1, ip, lsl #18
     2ac:	00009300 	andeq	r9, r0, r0, lsl #6
     2b0:	0080f400 	addeq	pc, r0, r0, lsl #8
     2b4:	0001ac00 	andeq	sl, r1, r0, lsl #24
     2b8:	00013c00 	andeq	r3, r1, r0, lsl #24
     2bc:	05040200 	streq	r0, [r4, #-512]	; 0xfffffe00
     2c0:	00746e69 	rsbseq	r6, r4, r9, ror #28
     2c4:	6c070403 	cfstrsvs	mvf0, [r7], {3}
     2c8:	03000000 	movweq	r0, #0
     2cc:	000a0601 	andeq	r0, sl, r1, lsl #12
     2d0:	02030000 	andeq	r0, r3, #0, 0
     2d4:	0000f005 	andeq	pc, r0, r5
     2d8:	05040300 	streq	r0, [r4, #-768]	; 0xfffffd00
     2dc:	0000007e 	andeq	r0, r0, lr, ror r0
     2e0:	79050803 	stmdbvc	r5, {r0, r1, fp}
     2e4:	03000000 	movweq	r0, #0
     2e8:	00080801 	andeq	r0, r8, r1, lsl #16
     2ec:	02030000 	andeq	r0, r3, #0, 0
     2f0:	00002307 	andeq	r2, r0, r7, lsl #6
     2f4:	07040300 	streq	r0, [r4, -r0, lsl #6]
     2f8:	00000067 	andeq	r0, r0, r7, rrx
     2fc:	62070803 	andvs	r0, r7, #196608	; 0x30000
     300:	04000000 	streq	r0, [r0], #-0
     304:	00000025 	andeq	r0, r0, r5, lsr #32
     308:	0000007a 	andeq	r0, r0, sl, ror r0
     30c:	00002505 	andeq	r2, r0, r5, lsl #10
     310:	87060000 	strhi	r0, [r6, -r0]
     314:	02000000 	andeq	r0, r0, #0, 0
     318:	00860e1c 	addeq	r0, r6, ip, lsl lr
     31c:	04070000 	streq	r0, [r7], #-0
     320:	0000006b 	andeq	r0, r0, fp, rrx
     324:	00002504 	andeq	r2, r0, r4, lsl #10
     328:	00009b00 	andeq	r9, r0, r0, lsl #22
     32c:	009b0500 	addseq	r0, fp, r0, lsl #10
     330:	07000000 	streq	r0, [r0, -r0]
     334:	0000a804 	andeq	sl, r0, r4, lsl #16
     338:	08010300 	stmdaeq	r1, {r8, r9}
     33c:	00000011 	andeq	r0, r0, r1, lsl r0
     340:	0000a108 	andeq	sl, r0, r8, lsl #2
     344:	03820600 	orreq	r0, r2, #0, 12
     348:	21020000 	mrscs	r0, (UNDEF: 2)
     34c:	0000b90e 	andeq	fp, r0, lr, lsl #18
     350:	8c040700 	stchi	7, cr0, [r4], {-0}
     354:	09000000 	stmdbeq	r0, {}	; <UNPREDICTABLE>
     358:	000001c6 	andeq	r0, r0, r6, asr #3
     35c:	07050108 	streq	r0, [r5, -r8, lsl #2]
     360:	000000ec 	andeq	r0, r0, ip, ror #1
     364:	0100640a 	tsteq	r0, sl, lsl #8
     368:	00ec1006 	rsceq	r1, ip, r6
     36c:	700a0000 	andvc	r0, sl, r0
     370:	0f070100 	svceq	0x00070100
     374:	000000f3 	strdeq	r0, [r0], -r3
     378:	0070660a 	rsbseq	r6, r0, sl, lsl #12
     37c:	f6100801 			; <UNDEFINED> instruction: 0xf6100801
     380:	00000000 	andeq	r0, r0, r0
     384:	e5040803 	str	r0, [r4, #-2051]	; 0xfffff7fd
     388:	0b000001 	bleq	394 <__code_start__-0x7c6c>
     38c:	04070c04 	streq	r0, [r7], #-3076	; 0xfffff3fc
     390:	000000f5 	strdeq	r0, [r0], -r5
     394:	0c01080d 	stceq	8, cr0, [r1], {13}
     398:	00012002 	andeq	r2, r1, r2
     39c:	74700e00 	ldrbtvc	r0, [r0], #-3584	; 0xfffff200
     3a0:	0d010072 	stceq	0, cr0, [r1, #-456]	; 0xfffffe38
     3a4:	00014215 	andeq	r4, r1, r5, lsl r2
     3a8:	020f0000 	andeq	r0, pc, #0, 0
     3ac:	01000002 	tsteq	r0, r2
     3b0:	002c100e 	eoreq	r1, ip, lr
     3b4:	00040000 	andeq	r0, r4, r0
     3b8:	0001b909 	andeq	fp, r1, r9, lsl #18
     3bc:	0b010800 	bleq	423c4 <__bss_end__+0x3877c>
     3c0:	0001420f 	andeq	r4, r1, pc, lsl #4
     3c4:	00730a00 	rsbseq	r0, r3, r0, lsl #20
     3c8:	fc060f01 	stc2	15, cr0, [r6], {1}
     3cc:	0a000000 	beq	3d4 <__code_start__-0x7c2c>
     3d0:	10010078 	andne	r0, r1, r8, ror r0
     3d4:	0000bf10 	andeq	fp, r0, r0, lsl pc
     3d8:	04070000 	streq	r0, [r7], #-0
     3dc:	00000120 	andeq	r0, r0, r0, lsr #2
     3e0:	00020710 	andeq	r0, r2, r0, lsl r7
     3e4:	03110100 	tsteq	r1, #0
     3e8:	00000120 	andeq	r0, r0, r0, lsr #2
     3ec:	0001ec11 	andeq	lr, r1, r1, lsl ip
     3f0:	0f130100 	svceq	0x00130100
     3f4:	00000148 	andeq	r0, r0, r8, asr #2
     3f8:	98380305 	ldmdals	r8!, {r0, r2, r8, r9}
     3fc:	cc110000 	ldcgt	0, cr0, [r1], {-0}
     400:	01000001 	tsteq	r0, r1
     404:	01781014 	cmneq	r8, r4, lsl r0
     408:	03050000 	movweq	r0, #20480	; 0x5000
     40c:	00009830 	andeq	r9, r0, r0, lsr r8
     410:	01480407 	cmpeq	r8, r7, lsl #8
     414:	36120000 	ldrcc	r0, [r2], -r0
     418:	01000000 	mrseq	r0, (UNDEF: 0)
     41c:	80f40652 	rscshi	r0, r4, r2, asr r6
     420:	00bc0000 	adcseq	r0, ip, r0
     424:	9c010000 	stcls	0, cr0, [r1], {-0}
     428:	000001c8 	andeq	r0, r0, r8, asr #3
     42c:	72747013 	rsbsvc	r7, r4, #19, 0
     430:	14520100 	ldrbne	r0, [r2], #-256	; 0xffffff00
     434:	000000f3 	strdeq	r0, [r0], -r3
     438:	62145001 	andsvs	r5, r4, #1, 0
     43c:	53010070 	movwpl	r0, #4208	; 0x1070
     440:	0001780a 	andeq	r7, r1, sl, lsl #16
     444:	0000ab00 	andeq	sl, r0, r0, lsl #22
     448:	0000a300 	andeq	sl, r0, r0, lsl #6
     44c:	00701400 	rsbseq	r1, r0, r0, lsl #8
     450:	780f5301 	stmdavc	pc, {r0, r8, r9, ip, lr}	; <UNPREDICTABLE>
     454:	e7000001 	str	r0, [r0, -r1]
     458:	e3000000 	movw	r0, #0
     45c:	00000000 	andeq	r0, r0, r0
     460:	0000fa15 	andeq	pc, r0, r5, lsl sl	; <UNPREDICTABLE>
     464:	072c0100 	streq	r0, [ip, -r0, lsl #2]!
     468:	000000f3 	strdeq	r0, [r0], -r3
     46c:	000081f4 	strdeq	r8, [r0], -r4
     470:	000000ac 	andeq	r0, r0, ip, lsr #1
     474:	02579c01 	subseq	r9, r7, #256	; 0x100
     478:	38160000 	ldmdacc	r6, {}	; <UNPREDICTABLE>
     47c:	01000008 	tsteq	r0, r8
     480:	002c1a2c 	eoreq	r1, ip, ip, lsr #20
     484:	010d0000 	mrseq	r0, (UNDEF: 13)
     488:	01050000 	mrseq	r0, (UNDEF: 5)
     48c:	70140000 	andsvc	r0, r4, r0
     490:	0a2d0100 	beq	b40898 <__bss_end__+0xb36c50>
     494:	00000178 	andeq	r0, r0, r8, ror r1
     498:	00000155 	andeq	r0, r0, r5, asr r1
     49c:	00000147 	andeq	r0, r0, r7, asr #2
     4a0:	0001c017 	andeq	ip, r1, r7, lsl r0
     4a4:	0e2d0100 	sufeqe	f0, f5, f0
     4a8:	00000178 	andeq	r0, r0, r8, ror r1
     4ac:	000001b7 			; <UNDEFINED> instruction: 0x000001b7
     4b0:	000001ad 	andeq	r0, r0, sp, lsr #3
     4b4:	0001d217 	andeq	sp, r1, r7, lsl r2
     4b8:	0b2e0100 	bleq	b808c0 <__bss_end__+0xb76c78>
     4bc:	0000002c 	andeq	r0, r0, ip, lsr #32
     4c0:	000001fd 	strdeq	r0, [r0], -sp
     4c4:	000001fb 	strdeq	r0, [r0], -fp
     4c8:	0001f118 	andeq	pc, r1, r8, lsl r1	; <UNPREDICTABLE>
     4cc:	0a2f0100 	beq	bc08d4 <__bss_end__+0xbb6c8c>
     4d0:	00000178 	andeq	r0, r0, r8, ror r1
     4d4:	00000246 	andeq	r0, r0, r6, asr #4
     4d8:	00002c05 	andeq	r2, r0, r5, lsl #24
     4dc:	90190000 	andsls	r0, r9, r0
     4e0:	57000082 	strpl	r0, [r0, -r2, lsl #1]
     4e4:	1a000002 	bne	4f4 <__code_start__-0x7b0c>
     4e8:	74025001 	strvc	r5, [r2], #-1
     4ec:	1b000000 	blne	4f4 <__code_start__-0x7b0c>
     4f0:	000001f1 	strdeq	r0, [r0], -r1
     4f4:	78101801 	ldmdavc	r0, {r0, fp, ip}
     4f8:	b0000001 	andlt	r0, r0, r1
     4fc:	44000081 	strmi	r0, [r0], #-129	; 0xffffff7f
     500:	01000000 	mrseq	r0, (UNDEF: 0)
     504:	0002cb9c 	muleq	r2, ip, fp
     508:	6e691c00 	cdpvs	12, 6, cr1, cr9, cr0, {0}
     50c:	18010063 	stmdane	r1, {r0, r1, r5, r6}
     510:	00002c25 	andeq	r2, r0, r5, lsr #24
     514:	00021400 	andeq	r1, r2, r0, lsl #8
     518:	00021000 	andeq	r1, r2, r0
     51c:	70631400 	rsbvc	r1, r3, r0, lsl #8
     520:	08190100 	ldmdaeq	r9, {r8}
     524:	000002cb 	andeq	r0, r0, fp, asr #5
     528:	00000238 	andeq	r0, r0, r8, lsr r2
     52c:	00000232 	andeq	r0, r0, r2, lsr r2
     530:	00707514 	rsbseq	r7, r0, r4, lsl r5
     534:	780a1a01 	stmdavc	sl, {r0, r9, fp, ip}
     538:	67000001 	strvs	r0, [r0, -r1]
     53c:	63000002 	movwvs	r0, #2
     540:	1d000002 	stcne	0, cr0, [r0, #-8]
     544:	000081c8 	andeq	r8, r0, r8, asr #3
     548:	000002d1 	ldrdeq	r0, [r0], -r1
     54c:	000002c1 	andeq	r0, r0, r1, asr #5
     550:	0450011a 	ldrbeq	r0, [r0], #-282	; 0xfffffee6
     554:	24330074 	ldrtcs	r0, [r3], #-116	; 0xffffff8c
     558:	81dc1e00 	bicshi	r1, ip, r0, lsl #28
     55c:	017e0000 	cmneq	lr, r0
     560:	07000000 	streq	r0, [r0, -r0]
     564:	0000a104 	andeq	sl, r0, r4, lsl #2
     568:	01fd1f00 	mvnseq	r1, r0, lsl #30
     56c:	01fd0000 	mvnseq	r0, r0
     570:	1a030000 	bne	c0578 <__bss_end__+0xb6930>
     574:	010a000b 	tsteq	sl, fp
     578:	00040000 	andeq	r0, r4, r0
     57c:	0000030c 	andeq	r0, r0, ip, lsl #6
     580:	01040104 	tsteq	r4, r4, lsl #2
     584:	200c0000 	andcs	r0, ip, r0
     588:	93000002 	movwls	r0, #2
     58c:	a0000000 	andge	r0, r0, r0
     590:	0c000082 	stceq	0, cr0, [r0], {130}	; 0x82
     594:	92000000 	andls	r0, r0, #0, 0
     598:	02000003 	andeq	r0, r0, #3, 0
     59c:	6e690504 	cdpvs	5, 6, cr0, cr9, cr4, {0}
     5a0:	04030074 	streq	r0, [r3], #-116	; 0xffffff8c
     5a4:	00006c07 	andeq	r6, r0, r7, lsl #24
     5a8:	06010300 	streq	r0, [r1], -r0, lsl #6
     5ac:	0000000a 	andeq	r0, r0, sl
     5b0:	f0050203 			; <UNDEFINED> instruction: 0xf0050203
     5b4:	03000000 	movweq	r0, #0
     5b8:	007e0504 	rsbseq	r0, lr, r4, lsl #10
     5bc:	08030000 	stmdaeq	r3, {}	; <UNPREDICTABLE>
     5c0:	00007905 	andeq	r7, r0, r5, lsl #18
     5c4:	08010300 	stmdaeq	r1, {r8, r9}
     5c8:	00000008 	andeq	r0, r0, r8
     5cc:	23070203 	movwcs	r0, #29187	; 0x7203
     5d0:	03000000 	movweq	r0, #0
     5d4:	00670704 	rsbeq	r0, r7, r4, lsl #14
     5d8:	08030000 	stmdaeq	r3, {}	; <UNPREDICTABLE>
     5dc:	00006207 	andeq	r6, r0, r7, lsl #4
     5e0:	00250400 	eoreq	r0, r5, r0, lsl #8
     5e4:	007a0000 	rsbseq	r0, sl, r0
     5e8:	25050000 	strcs	r0, [r5, #-0]
     5ec:	00000000 	andeq	r0, r0, r0
     5f0:	00008706 	andeq	r8, r0, r6, lsl #14
     5f4:	0e1c0200 	cdpeq	2, 1, cr0, cr12, cr0, {0}
     5f8:	00000086 	andeq	r0, r0, r6, lsl #1
     5fc:	006b0407 	rsbeq	r0, fp, r7, lsl #8
     600:	25040000 	strcs	r0, [r4, #-0]
     604:	9b000000 	blls	60c <__code_start__-0x79f4>
     608:	05000000 	streq	r0, [r0, #-0]
     60c:	0000009b 	muleq	r0, fp, r0
     610:	a8040700 	stmdage	r4, {r8, r9, sl}
     614:	03000000 	movweq	r0, #0
     618:	00110801 	andseq	r0, r1, r1, lsl #16
     61c:	a1080000 	mrsge	r0, (UNDEF: 8)
     620:	06000000 	streq	r0, [r0], -r0
     624:	00000382 	andeq	r0, r0, r2, lsl #7
     628:	b90e2102 	stmdblt	lr, {r1, r8, sp}
     62c:	07000000 	streq	r0, [r0, -r0]
     630:	00008c04 	andeq	r8, r0, r4, lsl #24
     634:	01fd0900 	mvnseq	r0, r0, lsl #18
     638:	04010000 	streq	r0, [r1], #-0
     63c:	0000ff07 	andeq	pc, r0, r7, lsl #30
     640:	0082a000 	addeq	sl, r2, r0
     644:	00000c00 	andeq	r0, r0, r0, lsl #24
     648:	ff9c0100 			; <UNDEFINED> instruction: 0xff9c0100
     64c:	0a000000 	beq	654 <__code_start__-0x79ac>
     650:	0000020e 	andeq	r0, r0, lr, lsl #4
     654:	41110401 	tstmi	r1, r1, lsl #8
     658:	8b000000 	blhi	660 <__code_start__-0x79a0>
     65c:	87000002 	strhi	r0, [r0, -r2]
     660:	0b000002 	bleq	670 <__code_start__-0x7990>
     664:	000082a8 	andeq	r8, r0, r8, lsr #5
     668:	00000101 	andeq	r0, r0, r1, lsl #2
     66c:	0350010c 	cmpeq	r0, #3
     670:	005001f3 	ldrsheq	r0, [r0], #-19	; 0xffffffed
     674:	0e040d00 	cdpeq	13, 0, cr0, cr4, cr0, {0}
     678:	00000218 	andeq	r0, r0, r8, lsl r2
     67c:	00000218 	andeq	r0, r0, r8, lsl r2
     680:	00077c02 	andeq	r7, r7, r2, lsl #24
     684:	0000019d 	muleq	r0, sp, r1
     688:	03ce0004 	biceq	r0, lr, #4, 0
     68c:	01040000 	mrseq	r0, (UNDEF: 4)
     690:	0000022a 	andeq	r0, r0, sl, lsr #4
     694:	0003210c 	andeq	r2, r3, ip, lsl #2
     698:	00033100 	andeq	r3, r3, r0, lsl #2
     69c:	0082ac00 	addeq	sl, r2, r0, lsl #24
     6a0:	00005800 	andeq	r5, r0, r0, lsl #16
     6a4:	00043100 	andeq	r3, r4, r0, lsl #2
     6a8:	03030200 	movweq	r0, #12800	; 0x3200
     6ac:	28020000 	stmdacs	r2, {}	; <UNPREDICTABLE>
     6b0:	0000311b 	andeq	r3, r0, fp, lsl r1
     6b4:	03120300 	tsteq	r2, #0, 6
     6b8:	04040000 	streq	r0, [r4], #-0
     6bc:	00004800 	andeq	r4, r0, r0, lsl #16
     6c0:	031c0400 	tsteq	ip, #0, 8
     6c4:	00480000 	subeq	r0, r8, r0
     6c8:	00000000 	andeq	r0, r0, r0
     6cc:	14020405 	strne	r0, [r2], #-1029	; 0xfffffbfb
     6d0:	02000003 	andeq	r0, r0, #3, 0
     6d4:	00251863 	eoreq	r1, r5, r3, ror #16
     6d8:	04060000 	streq	r0, [r6], #-0
     6dc:	746e6905 	strbtvc	r6, [lr], #-2309	; 0xfffff6fb
     6e0:	07040700 	streq	r0, [r4, -r0, lsl #14]
     6e4:	0000006c 	andeq	r0, r0, ip, rrx
     6e8:	0a060107 	beq	180b0c <__bss_end__+0x176ec4>
     6ec:	07000000 	streq	r0, [r0, -r0]
     6f0:	00f00502 	rscseq	r0, r0, r2, lsl #10
     6f4:	04070000 	streq	r0, [r7], #-0
     6f8:	00007e05 	andeq	r7, r0, r5, lsl #28
     6fc:	05080700 	streq	r0, [r8, #-1792]	; 0xfffff900
     700:	00000079 	andeq	r0, r0, r9, ror r0
     704:	08080107 	stmdaeq	r8, {r0, r1, r2, r8}
     708:	07000000 	streq	r0, [r0, -r0]
     70c:	00230702 	eoreq	r0, r3, r2, lsl #14
     710:	04070000 	streq	r0, [r7], #-0
     714:	00006707 	andeq	r6, r0, r7, lsl #14
     718:	07080700 	streq	r0, [r8, -r0, lsl #14]
     71c:	00000062 	andeq	r0, r0, r2, rrx
     720:	00005608 	andeq	r5, r0, r8, lsl #12
     724:	0000ab00 	andeq	sl, r0, r0, lsl #22
     728:	00560900 	subseq	r0, r6, r0, lsl #18
     72c:	0a000000 	beq	734 <__code_start__-0x78cc>
     730:	00000087 	andeq	r0, r0, r7, lsl #1
     734:	b70e1c03 	strlt	r1, [lr, -r3, lsl #24]
     738:	0b000000 	bleq	740 <__code_start__-0x78c0>
     73c:	00009c04 	andeq	r9, r0, r4, lsl #24
     740:	00560800 	subseq	r0, r6, r0, lsl #16
     744:	00cc0000 	sbceq	r0, ip, r0
     748:	cc090000 	stcgt	0, cr0, [r9], {-0}
     74c:	00000000 	andeq	r0, r0, r0
     750:	00d9040b 	sbcseq	r0, r9, fp, lsl #8
     754:	01070000 	mrseq	r0, (UNDEF: 7)
     758:	00001108 	andeq	r1, r0, r8, lsl #2
     75c:	00d20c00 	sbcseq	r0, r2, r0, lsl #24
     760:	820a0000 	andhi	r0, sl, #0, 0
     764:	03000003 	movweq	r0, #3
     768:	00ea0e21 	rsceq	r0, sl, r1, lsr #28
     76c:	040b0000 	streq	r0, [fp], #-0
     770:	000000bd 	strheq	r0, [r0], -sp
     774:	0002fc0d 	andeq	pc, r2, sp, lsl #24
     778:	05060100 	streq	r0, [r6, #-256]	; 0xffffff00
     77c:	00000056 	andeq	r0, r0, r6, asr r0
     780:	000082ac 	andeq	r8, r0, ip, lsr #5
     784:	00000058 	andeq	r0, r0, r8, asr r0
     788:	01839c01 	orreq	r9, r3, r1, lsl #24
     78c:	660e0000 	strvs	r0, [lr], -r0
     790:	0100746d 	tsteq	r0, sp, ror #8
     794:	00cc1806 	sbceq	r1, ip, r6, lsl #16
     798:	91020000 	mrsls	r0, (UNDEF: 2)
     79c:	62100f70 	andsvs	r0, r0, #112, 30	; 0x1c0
     7a0:	01006675 	tsteq	r0, r5, ror r6
     7a4:	01831108 	orreq	r1, r3, r8, lsl #2
     7a8:	03050000 	movweq	r0, #20480	; 0x5000
     7ac:	00009840 	andeq	r9, r0, r0, asr #16
     7b0:	0002f411 	andeq	pc, r2, r1, lsl r4	; <UNPREDICTABLE>
     7b4:	0d090100 	stfeqs	f0, [r9, #-0]
     7b8:	0000004a 	andeq	r0, r0, sl, asr #32
     7bc:	125c9102 	subsne	r9, ip, #-2147483648	; 0x80000000
     7c0:	01007a73 	tsteq	r0, r3, ror sl
     7c4:	00560d0c 	subseq	r0, r6, ip, lsl #26
     7c8:	02b20000 	adcseq	r0, r2, #0, 0
     7cc:	02ac0000 	adceq	r0, ip, #0, 0
     7d0:	d4130000 	ldrle	r0, [r3], #-0
     7d4:	94000082 	strls	r0, [r0], #-130	; 0xffffff7e
     7d8:	76000001 	strvc	r0, [r0], -r1
     7dc:	14000001 	strne	r0, [r0], #-1
     7e0:	75025001 	strvc	r5, [r2, #-1]
     7e4:	51011400 	tstpl	r1, r0, lsl #8
     7e8:	04000a03 	streq	r0, [r0], #-2563	; 0xfffff5fd
     7ec:	03520114 	cmpeq	r2, #5
     7f0:	14064891 	strne	r4, [r6], #-2193	; 0xfffff76f
     7f4:	91025301 	tstls	r2, r1, lsl #6
     7f8:	e815004c 	ldmda	r5, {r2, r3, r6}
     7fc:	14000082 	strne	r0, [r0], #-130	; 0xffffff7e
     800:	75025001 	strvc	r5, [r2, #-1]
     804:	16000000 	strne	r0, [r0], -r0
     808:	000000d2 	ldrdeq	r0, [r0], -r2
     80c:	00000194 	muleq	r0, r4, r1
     810:	00005d17 	andeq	r5, r0, r7, lsl sp
     814:	0003ff00 	andeq	pc, r3, r0, lsl #30
     818:	0002f918 	andeq	pc, r2, r8, lsl r9	; <UNPREDICTABLE>
     81c:	0002f900 	andeq	pc, r2, r0, lsl #18
     820:	05020500 	streq	r0, [r2, #-1280]	; 0xfffffb00
     824:	0000f300 	andeq	pc, r0, r0, lsl #6
     828:	10000400 	andne	r0, r0, r0, lsl #8
     82c:	04000005 	streq	r0, [r0], #-5
     830:	00022a01 	andeq	r2, r2, r1, lsl #20
     834:	03870c00 	orreq	r0, r7, #0, 24
     838:	03310000 	teqeq	r1, #0, 0
     83c:	83040000 	movwhi	r0, #16384	; 0x4000
     840:	00340000 	eorseq	r0, r4, r0
     844:	05680000 	strbeq	r0, [r8, #-0]!
     848:	04020000 	streq	r0, [r2], #-0
     84c:	746e6905 	strbtvc	r6, [lr], #-2309	; 0xfffff6fb
     850:	07040300 	streq	r0, [r4, -r0, lsl #6]
     854:	0000006c 	andeq	r0, r0, ip, rrx
     858:	0a060103 	beq	180c6c <__bss_end__+0x177024>
     85c:	03000000 	movweq	r0, #0
     860:	00f00502 	rscseq	r0, r0, r2, lsl #10
     864:	04030000 	streq	r0, [r3], #-0
     868:	00007e05 	andeq	r7, r0, r5, lsl #28
     86c:	05080300 	streq	r0, [r8, #-768]	; 0xfffffd00
     870:	00000079 	andeq	r0, r0, r9, ror r0
     874:	08080103 	stmdaeq	r8, {r0, r1, r8}
     878:	03000000 	movweq	r0, #0
     87c:	00230702 	eoreq	r0, r3, r2, lsl #14
     880:	04030000 	streq	r0, [r3], #-0
     884:	00006707 	andeq	r6, r0, r7, lsl #14
     888:	07080300 	streq	r0, [r8, -r0, lsl #6]
     88c:	00000062 	andeq	r0, r0, r2, rrx
     890:	00002504 	andeq	r2, r0, r4, lsl #10
     894:	00007a00 	andeq	r7, r0, r0, lsl #20
     898:	00250500 	eoreq	r0, r5, r0, lsl #10
     89c:	06000000 	streq	r0, [r0], -r0
     8a0:	00000087 	andeq	r0, r0, r7, lsl #1
     8a4:	860e1c02 	strhi	r1, [lr], -r2, lsl #24
     8a8:	07000000 	streq	r0, [r0, -r0]
     8ac:	00006b04 	andeq	r6, r0, r4, lsl #22
     8b0:	00250400 	eoreq	r0, r5, r0, lsl #8
     8b4:	009b0000 	addseq	r0, fp, r0
     8b8:	9b050000 	blls	1408c0 <__bss_end__+0x136c78>
     8bc:	00000000 	andeq	r0, r0, r0
     8c0:	00a80407 	adceq	r0, r8, r7, lsl #8
     8c4:	01030000 	mrseq	r0, (UNDEF: 3)
     8c8:	00001108 	andeq	r1, r0, r8, lsl #2
     8cc:	00a10800 	adceq	r0, r1, r0, lsl #16
     8d0:	82060000 	andhi	r0, r6, #0, 0
     8d4:	02000003 	andeq	r0, r0, #3, 0
     8d8:	00b90e21 	adcseq	r0, r9, r1, lsr #28
     8dc:	04070000 	streq	r0, [r7], #-0
     8e0:	0000008c 	andeq	r0, r0, ip, lsl #1
     8e4:	0000ad09 	andeq	sl, r0, r9, lsl #26
     8e8:	070c0100 	streq	r0, [ip, -r0, lsl #2]
     8ec:	981c0305 	ldmdals	ip, {r0, r2, r8, r9}
     8f0:	790a0000 	stmdbvc	sl, {}	; <UNPREDICTABLE>
     8f4:	01000003 	tsteq	r0, r3
     8f8:	00250504 	eoreq	r0, r5, r4, lsl #10
     8fc:	83040000 	movwhi	r0, #16384	; 0x4000
     900:	00340000 	eorseq	r0, r4, r0
     904:	9c010000 	stcls	0, cr0, [r1], {-0}
     908:	0100700b 	tsteq	r0, fp
     90c:	009b1f04 	addseq	r1, fp, r4, lsl #30
     910:	02df0000 	sbcseq	r0, pc, #0, 0
     914:	02db0000 	sbcseq	r0, fp, #0, 0
     918:	00000000 	andeq	r0, r0, r0
     91c:	00000ad7 	ldrdeq	r0, [r0], -r7
     920:	05ae0004 	streq	r0, [lr, #4]!
     924:	01040000 	mrseq	r0, (UNDEF: 4)
     928:	0000022a 	andeq	r0, r0, sl, lsr #4
     92c:	0003a60c 	andeq	sl, r3, ip, lsl #12
     930:	00033100 	andeq	r3, r3, r0, lsl #2
     934:	00833800 	addeq	r3, r3, r0, lsl #16
     938:	00074000 	andeq	r4, r7, r0
     93c:	00063700 	andeq	r3, r6, r0, lsl #14
     940:	05040200 	streq	r0, [r4, #-512]	; 0xfffffe00
     944:	00746e69 	rsbseq	r6, r4, r9, ror #28
     948:	6c070403 	cfstrsvs	mvf0, [r7], {3}
     94c:	03000000 	movweq	r0, #0
     950:	000a0601 	andeq	r0, sl, r1, lsl #12
     954:	02030000 	andeq	r0, r3, #0, 0
     958:	0000f005 	andeq	pc, r0, r5
     95c:	05040300 	streq	r0, [r4, #-768]	; 0xfffffd00
     960:	0000007e 	andeq	r0, r0, lr, ror r0
     964:	79050803 	stmdbvc	r5, {r0, r1, fp}
     968:	03000000 	movweq	r0, #0
     96c:	00080801 	andeq	r0, r8, r1, lsl #16
     970:	02030000 	andeq	r0, r3, #0, 0
     974:	00002307 	andeq	r2, r0, r7, lsl #6
     978:	040c0400 	streq	r0, [ip], #-1024	; 0xfffffc00
     97c:	34020000 	strcc	r0, [r2], #-0
     980:	00006919 	andeq	r6, r0, r9, lsl r9
     984:	07040300 	streq	r0, [r4, -r0, lsl #6]
     988:	00000067 	andeq	r0, r0, r7, rrx
     98c:	00039d04 	andeq	r9, r3, r4, lsl #26
     990:	19370200 	ldmdbne	r7!, {r9}
     994:	0000007c 	andeq	r0, r0, ip, ror r0
     998:	62070803 	andvs	r0, r7, #196608	; 0x30000
     99c:	05000000 	streq	r0, [r0, #-0]
     9a0:	00000025 	andeq	r0, r0, r5, lsr #32
     9a4:	00000092 	muleq	r0, r2, r0
     9a8:	00002506 	andeq	r2, r0, r6, lsl #10
     9ac:	87070000 	strhi	r0, [r7, -r0]
     9b0:	03000000 	movweq	r0, #0
     9b4:	009e0e1c 	addseq	r0, lr, ip, lsl lr
     9b8:	04080000 	streq	r0, [r8], #-0
     9bc:	00000083 	andeq	r0, r0, r3, lsl #1
     9c0:	00002505 	andeq	r2, r0, r5, lsl #10
     9c4:	0000b300 	andeq	fp, r0, r0, lsl #6
     9c8:	00b30600 	adcseq	r0, r3, r0, lsl #12
     9cc:	08000000 	stmdaeq	r0, {}	; <UNPREDICTABLE>
     9d0:	0000c004 	andeq	ip, r0, r4
     9d4:	08010300 	stmdaeq	r1, {r8, r9}
     9d8:	00000011 	andeq	r0, r0, r1, lsl r0
     9dc:	0000b909 	andeq	fp, r0, r9, lsl #18
     9e0:	03820700 	orreq	r0, r2, #0, 14
     9e4:	21030000 	mrscs	r0, (UNDEF: 3)
     9e8:	0000d10e 	andeq	sp, r0, lr, lsl #2
     9ec:	a4040800 	strge	r0, [r4], #-2048	; 0xfffff800
     9f0:	07000000 	streq	r0, [r0, -r0]
     9f4:	000003b9 			; <UNDEFINED> instruction: 0x000003b9
     9f8:	b90d0b04 	stmdblt	sp, {r2, r8, r9, fp}
     9fc:	07000000 	streq	r0, [r0, -r0]
     a00:	0000043b 	andeq	r0, r0, fp, lsr r4
     a04:	b90d0c04 	stmdblt	sp, {r2, sl, fp}
     a08:	07000000 	streq	r0, [r0, -r0]
     a0c:	000003c8 	andeq	r0, r0, r8, asr #7
     a10:	b90d0d04 	stmdblt	sp, {r2, r8, sl, fp}
     a14:	07000000 	streq	r0, [r0, -r0]
     a18:	000003f1 	strdeq	r0, [r0], -r1
     a1c:	b90d0e04 	stmdblt	sp, {r2, r9, sl, fp}
     a20:	07000000 	streq	r0, [r0, -r0]
     a24:	0000046b 	andeq	r0, r0, fp, ror #8
     a28:	b90d0f04 	stmdblt	sp, {r2, r8, r9, sl, fp}
     a2c:	07000000 	streq	r0, [r0, -r0]
     a30:	000003dc 	ldrdeq	r0, [r0], -ip
     a34:	b90d1004 	stmdblt	sp, {r2, ip}
     a38:	07000000 	streq	r0, [r0, -r0]
     a3c:	0000047a 	andeq	r0, r0, sl, ror r4
     a40:	b90d1104 	stmdblt	sp, {r2, r8, ip}
     a44:	07000000 	streq	r0, [r0, -r0]
     a48:	000003fd 	strdeq	r0, [r0], -sp
     a4c:	b90d1204 	stmdblt	sp, {r2, r9, ip}
     a50:	04000000 	streq	r0, [r0], #-0
     a54:	00000303 	andeq	r0, r0, r3, lsl #6
     a58:	431b2805 	tstmi	fp, #327680	; 0x50000
     a5c:	0a000001 	beq	a68 <__code_start__-0x7598>
     a60:	00000312 	andeq	r0, r0, r2, lsl r3
     a64:	5a000604 	bpl	227c <__code_start__-0x5d84>
     a68:	0b000001 	bleq	a74 <__code_start__-0x758c>
     a6c:	0000031c 	andeq	r0, r0, ip, lsl r3
     a70:	0000015a 	andeq	r0, r0, sl, asr r1
     a74:	040c0000 	streq	r0, [ip], #-0
     a78:	00031404 	andeq	r1, r3, r4, lsl #8
     a7c:	18630500 	stmdane	r3!, {r8, sl}^
     a80:	00000137 	andeq	r0, r0, r7, lsr r1
     a84:	0002f90d 	andeq	pc, r2, sp, lsl #18
     a88:	05810100 	streq	r0, [r1, #256]	; 0x100
     a8c:	00000025 	andeq	r0, r0, r5, lsr #32
     a90:	000085c0 	andeq	r8, r0, r0, asr #11
     a94:	000004b8 			; <UNDEFINED> instruction: 0x000004b8
     a98:	07179c01 	ldreq	r9, [r7, -r1, lsl #24]
     a9c:	620e0000 	andvs	r0, lr, #0, 0
     aa0:	01006675 	tsteq	r0, r5, ror r6
     aa4:	07171581 	ldreq	r1, [r7, -r1, lsl #11]
     aa8:	03030000 	movweq	r0, #12288	; 0x3000
     aac:	02fd0000 	rscseq	r0, sp, #0, 0
     ab0:	6e0e0000 	cdpvs	0, 0, cr0, cr14, cr0, {0}
     ab4:	1e810100 	rmfnes	f0, f1, f0
     ab8:	00000025 	andeq	r0, r0, r5, lsr #32
     abc:	00000335 	andeq	r0, r0, r5, lsr r3
     ac0:	0000032f 	andeq	r0, r0, pc, lsr #6
     ac4:	746d660e 	strbtvc	r6, [sp], #-1550	; 0xfffff9f2
     ac8:	2d810100 	stfcss	f0, [r1]
     acc:	000000b3 	strheq	r0, [r0], -r3
     ad0:	0000036f 	andeq	r0, r0, pc, ror #6
     ad4:	00000363 	andeq	r0, r0, r3, ror #6
     ad8:	0002f40f 	andeq	pc, r2, pc, lsl #8
     adc:	3a810100 	bcc	fe040ee4 <__bss_end__+0xfe03729c>
     ae0:	0000015c 	andeq	r0, r0, ip, asr r1
     ae4:	7dd49103 	ldfvcp	f1, [r4, #12]
     ae8:	01007010 	tsteq	r0, r0, lsl r0
     aec:	07170882 	ldreq	r0, [r7, -r2, lsl #17]
     af0:	03cd0000 	biceq	r0, sp, #0, 0
     af4:	03b90000 			; <UNDEFINED> instruction: 0x03b90000
     af8:	65100000 	ldrvs	r0, [r0, #-0]
     afc:	12820100 	addne	r0, r2, #0
     b00:	00000717 	andeq	r0, r0, r7, lsl r7
     b04:	0000044f 	andeq	r0, r0, pc, asr #8
     b08:	0000044b 	andeq	r0, r0, fp, asr #8
     b0c:	00307810 	eorseq	r7, r0, r0, lsl r8
     b10:	5d0e8301 	stcpl	3, cr8, [lr, #-4]
     b14:	7c000000 	stcvc	0, cr0, [r0], {-0}
     b18:	76000004 	strvc	r0, [r0], -r4
     b1c:	10000004 	andne	r0, r0, r4
     b20:	01003178 	tsteq	r0, r8, ror r1
     b24:	005d1183 	subseq	r1, sp, r3, lsl #3
     b28:	04a90000 	strteq	r0, [r9], #0
     b2c:	04a50000 	strteq	r0, [r5], #0
     b30:	24110000 	ldrcs	r0, [r1], #-0
     b34:	01000004 	tsteq	r0, r4
     b38:	00b31186 	adcseq	r1, r3, r6, lsl #3
     b3c:	04cb0000 	strbeq	r0, [fp], #0
     b40:	04c70000 	strbeq	r0, [r7], #0
     b44:	3e120000 	cdpcc	0, 1, cr0, cr2, cr0, {0}
     b48:	2d000000 	stccs	0, cr0, [r0, #-0]
     b4c:	05000007 	streq	r0, [r0, #-7]
     b50:	00960803 	addseq	r0, r6, r3, lsl #16
     b54:	86281300 	strthi	r1, [r8], -r0, lsl #6
     b58:	04000000 	streq	r0, [r0], #-0
     b5c:	73100000 	tstvc	r0, #0, 0
     b60:	0a910100 	beq	fe440f68 <__bss_end__+0xfe437320>
     b64:	00000717 	andeq	r0, r0, r7, lsl r7
     b68:	00000501 	andeq	r0, r0, r1, lsl #10
     b6c:	000004eb 	andeq	r0, r0, fp, ror #9
     b70:	6d756e14 	ldclvs	14, cr6, [r5, #-80]!	; 0xffffffb0
     b74:	0d910100 	ldfeqs	f0, [r1]
     b78:	00000732 	andeq	r0, r0, r2, lsr r7
     b7c:	7dd89103 	ldfvcp	f1, [r8, #12]
     b80:	00048715 	andeq	r8, r4, r5, lsl r7
     b84:	17910100 	ldrne	r0, [r1, r0, lsl #2]
     b88:	00000732 	andeq	r0, r0, r2, lsr r7
     b8c:	7ed89103 	atnvce	f1, f3
     b90:	0003d611 	andeq	sp, r3, r1, lsl r6
     b94:	0d920100 	ldfeqs	f0, [r2]
     b98:	0000002c 	andeq	r0, r0, ip, lsr #32
     b9c:	00000588 	andeq	r0, r0, r8, lsl #11
     ba0:	00000582 	andeq	r0, r0, r2, lsl #11
     ba4:	0086f016 	addeq	pc, r6, r6, lsl r0	; <UNPREDICTABLE>
     ba8:	0001a400 	andeq	sl, r1, r0, lsl #8
     bac:	00053900 	andeq	r3, r5, r0, lsl #18
     bb0:	79741000 	ldmdbvc	r4!, {ip}^
     bb4:	1d9e0100 	ldfnes	f0, [lr]
     bb8:	000000b3 	strheq	r0, [r0], -r3
     bbc:	000005bc 			; <UNDEFINED> instruction: 0x000005bc
     bc0:	000005b2 			; <UNDEFINED> instruction: 0x000005b2
     bc4:	00787817 	rsbseq	r7, r8, r7, lsl r8
     bc8:	701aa201 	andsvc	sl, sl, r1, lsl #4
     bcc:	18000000 	stmdane	r0, {}	; <UNPREDICTABLE>
     bd0:	00008700 	andeq	r8, r0, r0, lsl #14
     bd4:	00000a92 	muleq	r0, r2, sl
     bd8:	000002d5 	ldrdeq	r0, [r0], -r5
     bdc:	02500119 	subseq	r0, r0, #1073741830	; 0x40000006
     be0:	01190076 	tsteq	r9, r6, ror r0
     be4:	fc030551 	stc2	5, cr0, [r3], {81}	; 0x51
     be8:	19000094 	stmdbne	r0, {r2, r4, r7}
     bec:	33015201 	movwcc	r5, #4609	; 0x1201
     bf0:	87181800 	ldrhi	r1, [r8, -r0, lsl #16]
     bf4:	0a920000 	beq	fe480bfc <__bss_end__+0xfe476fb4>
     bf8:	02f70000 	rscseq	r0, r7, #0, 0
     bfc:	01190000 	tsteq	r9, r0
     c00:	00760250 	rsbseq	r0, r6, r0, asr r2
     c04:	05510119 	ldrbeq	r0, [r1, #-281]	; 0xfffffee7
     c08:	00950003 	addseq	r0, r5, r3
     c0c:	52011900 	andpl	r1, r1, #0, 18
     c10:	18003301 	stmdane	r0, {r0, r8, r9, ip, sp}
     c14:	0000874c 	andeq	r8, r0, ip, asr #14
     c18:	00000a9e 	muleq	r0, lr, sl
     c1c:	00000314 	andeq	r0, r0, r4, lsl r3
     c20:	05500119 	ldrbeq	r0, [r0, #-281]	; 0xfffffee7
     c24:	00950403 	addseq	r0, r5, r3, lsl #8
     c28:	51011900 	tstpl	r1, r0, lsl #18
     c2c:	00007702 	andeq	r7, r0, r2, lsl #14
     c30:	00875818 	addeq	r5, r7, r8, lsl r8
     c34:	000a9e00 	andeq	r9, sl, r0, lsl #28
     c38:	00033100 	andeq	r3, r3, r0, lsl #2
     c3c:	50011900 	andpl	r1, r1, r0, lsl #18
     c40:	950c0305 	strls	r0, [ip, #-773]	; 0xfffffcfb
     c44:	01190000 	tsteq	r9, r0
     c48:	007a0251 	rsbseq	r0, sl, r1, asr r2
     c4c:	87681800 	strbhi	r1, [r8, -r0, lsl #16]!
     c50:	0a920000 	beq	fe480c58 <__bss_end__+0xfe477010>
     c54:	03530000 	cmpeq	r3, #0, 0
     c58:	01190000 	tsteq	r9, r0
     c5c:	00760250 	rsbseq	r0, r6, r0, asr r2
     c60:	05510119 	ldrbeq	r0, [r1, #-281]	; 0xfffffee7
     c64:	0094fc03 	addseq	pc, r4, r3, lsl #24
     c68:	52011900 	andpl	r1, r1, #0, 18
     c6c:	18003301 	stmdane	r0, {r0, r8, r9, ip, sp}
     c70:	00008780 	andeq	r8, r0, r0, lsl #15
     c74:	00000a92 	muleq	r0, r2, sl
     c78:	00000375 	andeq	r0, r0, r5, ror r3
     c7c:	02500119 	subseq	r0, r0, #1073741830	; 0x40000006
     c80:	01190076 	tsteq	r9, r6, ror r0
     c84:	00030551 	andeq	r0, r3, r1, asr r5
     c88:	19000095 	stmdbne	r0, {r0, r2, r4, r7}
     c8c:	33015201 	movwcc	r5, #4609	; 0x1201
     c90:	87a81800 	strhi	r1, [r8, r0, lsl #16]!
     c94:	07420000 	strbeq	r0, [r2, -r0]
     c98:	03a90000 			; <UNDEFINED> instruction: 0x03a90000
     c9c:	01190000 	tsteq	r9, r0
     ca0:	193a0150 	ldmdbne	sl!, {r4, r6, r8}
     ca4:	91035101 	tstls	r3, r1, lsl #2
     ca8:	01197dd0 			; <UNDEFINED> instruction: 0x01197dd0
     cac:	80080252 	andhi	r0, r8, r2, asr r2
     cb0:	02530119 	subseq	r0, r3, #1073741830	; 0x40000006
     cb4:	02190077 	andseq	r0, r9, #119, 0	; 0x77
     cb8:	7502007d 	strvc	r0, [r2, #-125]	; 0xffffff83
     cbc:	7d021900 	vstrvc.16	s2, [r2, #-0]	; <UNPREDICTABLE>
     cc0:	00760204 	rsbseq	r0, r6, r4, lsl #4
     cc4:	87c81800 	strbhi	r1, [r8, r0, lsl #16]
     cc8:	07420000 	strbeq	r0, [r2, -r0]
     ccc:	03dd0000 	bicseq	r0, sp, #0, 0
     cd0:	01190000 	tsteq	r9, r0
     cd4:	193a0150 	ldmdbne	sl!, {r4, r6, r8}
     cd8:	91035101 	tstls	r3, r1, lsl #2
     cdc:	01197ed0 			; <UNDEFINED> instruction: 0x01197ed0
     ce0:	80080252 	andhi	r0, r8, r2, asr r2
     ce4:	02530119 	subseq	r0, r3, #1073741830	; 0x40000006
     ce8:	0219007a 	andseq	r0, r9, #122, 0	; 0x7a
     cec:	7502007d 	strvc	r0, [r2, #-125]	; 0xffffff83
     cf0:	7d021900 	vstrvc.16	s2, [r2, #-0]	; <UNPREDICTABLE>
     cf4:	00760204 	rsbseq	r0, r6, r4, lsl #4
     cf8:	87d41800 	ldrbhi	r1, [r4, r0, lsl #16]
     cfc:	0aaa0000 	beq	fea80d04 <__bss_end__+0xfea770bc>
     d00:	03fb0000 	mvnseq	r0, #0, 0
     d04:	01190000 	tsteq	r9, r0
     d08:	d0910350 	addsle	r0, r1, r0, asr r3
     d0c:	5101197d 	tstpl	r1, sp, ror r9
     d10:	94c00305 	strbls	r0, [r0], #773	; 0x305
     d14:	18000000 	stmdane	r0, {}	; <UNPREDICTABLE>
     d18:	000087e8 	andeq	r8, r0, r8, ror #15
     d1c:	00000ab6 			; <UNDEFINED> instruction: 0x00000ab6
     d20:	00000417 	andeq	r0, r0, r7, lsl r4
     d24:	03500119 	cmpeq	r0, #1073741830	; 0x40000006
     d28:	197dd091 	ldmdbne	sp!, {r0, r4, r7, ip, lr, pc}^
     d2c:	91035101 	tstls	r3, r1, lsl #2
     d30:	18007ed0 	stmdane	r0, {r4, r6, r7, r9, sl, fp, ip, sp, lr}
     d34:	0000880c 	andeq	r8, r0, ip, lsl #16
     d38:	00000a9e 	muleq	r0, lr, sl
     d3c:	00000450 	andeq	r0, r0, r0, asr r4
     d40:	05500119 	ldrbeq	r0, [r0, #-281]	; 0xfffffee7
     d44:	0094ac03 	addseq	sl, r4, r3, lsl #24
     d48:	51011900 	tstpl	r1, r0, lsl #18
     d4c:	94980305 	ldrls	r0, [r8], #773	; 0x305
     d50:	01190000 	tsteq	r9, r0
     d54:	08030552 	stmdaeq	r3, {r1, r4, r6, r8, sl}
     d58:	19000096 	stmdbne	r0, {r1, r2, r4, r7}
     d5c:	08025301 	stmdaeq	r2, {r0, r8, r9, ip, lr}
     d60:	7d02199f 	vstrvc.16	s2, [r2, #-318]	; 0xfffffec2	; <UNPREDICTABLE>
     d64:	14030500 	strne	r0, [r3], #-1280	; 0xfffffb00
     d68:	00000095 	muleq	r0, r5, r0
     d6c:	0088101a 	addeq	r1, r8, sl, lsl r0
     d70:	000ac200 	andeq	ip, sl, r0, lsl #4
     d74:	88301800 	ldmdahi	r0!, {fp, ip}
     d78:	07420000 	strbeq	r0, [r2, -r0]
     d7c:	048d0000 	streq	r0, [sp], #0
     d80:	01190000 	tsteq	r9, r0
     d84:	19400150 	stmdbne	r0, {r4, r6, r8}^
     d88:	91035101 	tstls	r3, r1, lsl #2
     d8c:	01197dd0 			; <UNDEFINED> instruction: 0x01197dd0
     d90:	80080252 	andhi	r0, r8, r2, asr r2
     d94:	02530119 	subseq	r0, r3, #1073741830	; 0x40000006
     d98:	02190077 	andseq	r0, r9, #119, 0	; 0x77
     d9c:	7502007d 	strvc	r0, [r2, #-125]	; 0xffffff83
     da0:	7d021900 	vstrvc.16	s2, [r2, #-0]	; <UNPREDICTABLE>
     da4:	00760204 	rsbseq	r0, r6, r4, lsl #4
     da8:	88501800 	ldmdahi	r0, {fp, ip}^
     dac:	07420000 	strbeq	r0, [r2, -r0]
     db0:	04c10000 	strbeq	r0, [r1], #0
     db4:	01190000 	tsteq	r9, r0
     db8:	19400150 	stmdbne	r0, {r4, r6, r8}^
     dbc:	91035101 	tstls	r3, r1, lsl #2
     dc0:	01197ed0 			; <UNDEFINED> instruction: 0x01197ed0
     dc4:	80080252 	andhi	r0, r8, r2, asr r2
     dc8:	02530119 	subseq	r0, r3, #1073741830	; 0x40000006
     dcc:	0219007a 	andseq	r0, r9, #122, 0	; 0x7a
     dd0:	7502007d 	strvc	r0, [r2, #-125]	; 0xffffff83
     dd4:	7d021900 	vstrvc.16	s2, [r2, #-0]	; <UNPREDICTABLE>
     dd8:	00760204 	rsbseq	r0, r6, r4, lsl #4
     ddc:	885c1800 	ldmdahi	ip, {fp, ip}^
     de0:	0ace0000 	beq	ff380de8 <__bss_end__+0xff3771a0>
     de4:	04dd0000 	ldrbeq	r0, [sp], #0
     de8:	01190000 	tsteq	r9, r0
     dec:	d0910350 	addsle	r0, r1, r0, asr r3
     df0:	5101197d 	tstpl	r1, sp, ror r9
     df4:	7ed29103 	atnvcs	f1, f3
     df8:	88701800 	ldmdahi	r0!, {fp, ip}^
     dfc:	0ace0000 	beq	ff380e04 <__bss_end__+0xff3771bc>
     e00:	04f90000 	ldrbteq	r0, [r9], #0
     e04:	01190000 	tsteq	r9, r0
     e08:	d0910350 	addsle	r0, r1, r0, asr r3
     e0c:	5101197d 	tstpl	r1, sp, ror r9
     e10:	7ed09103 	atnvcs	f1, f3
     e14:	88901800 	ldmhi	r0, {fp, ip}
     e18:	0a9e0000 	beq	fe780e20 <__bss_end__+0xfe7771d8>
     e1c:	052f0000 	streq	r0, [pc, #-0]!	; e24 <__code_start__-0x71dc>
     e20:	01190000 	tsteq	r9, r0
     e24:	50030550 	andpl	r0, r3, r0, asr r5
     e28:	19000095 	stmdbne	r0, {r0, r2, r4, r7}
     e2c:	03055101 	movweq	r5, #20737	; 0x5101
     e30:	00009498 	muleq	r0, r8, r4
     e34:	05520119 	ldrbeq	r0, [r2, #-281]	; 0xfffffee7
     e38:	00960803 	addseq	r0, r6, r3, lsl #16
     e3c:	53011900 	movwpl	r1, #6400	; 0x1900
     e40:	19b60802 	ldmibne	r6!, {r1, fp}
     e44:	02007d02 	andeq	r7, r0, #128	; 0x80
     e48:	1a000076 	bne	1028 <__code_start__-0x6fd8>
     e4c:	00008894 	muleq	r0, r4, r8
     e50:	00000ac2 	andeq	r0, r0, r2, asr #21
     e54:	86401800 	strbhi	r1, [r0], -r0, lsl #16
     e58:	09c00000 	stmibeq	r0, {}^	; <UNPREDICTABLE>
     e5c:	054d0000 	strbeq	r0, [sp, #-0]
     e60:	01190000 	tsteq	r9, r0
     e64:	00770250 	rsbseq	r0, r7, r0, asr r2
     e68:	86ec1800 	strbthi	r1, [ip], r0, lsl #16
     e6c:	0a9e0000 	beq	fe780e74 <__bss_end__+0xfe77722c>
     e70:	05860000 	streq	r0, [r6]
     e74:	01190000 	tsteq	r9, r0
     e78:	ac030550 	cfstr32ge	mvfx0, [r3], {80}	; 0x50
     e7c:	19000094 	stmdbne	r0, {r2, r4, r7}
     e80:	03055101 	movweq	r5, #20737	; 0x5101
     e84:	00009498 	muleq	r0, r8, r4
     e88:	05520119 	ldrbeq	r0, [r2, #-281]	; 0xfffffee7
     e8c:	00960803 	addseq	r0, r6, r3, lsl #16
     e90:	53011900 	movwpl	r1, #6400	; 0x1900
     e94:	19980802 	ldmibne	r8, {r1, fp}
     e98:	05007d02 	streq	r7, [r0, #-3330]	; 0xfffff2fe
     e9c:	0094f003 	addseq	pc, r4, r3
     ea0:	f01a0000 			; <UNDEFINED> instruction: 0xf01a0000
     ea4:	c2000086 	andgt	r0, r0, #134, 0	; 0x86
     ea8:	1800000a 	stmdane	r0, {r1, r3}
     eac:	000088a8 	andeq	r8, r0, r8, lsr #17
     eb0:	00000a9e 	muleq	r0, lr, sl
     eb4:	000005be 			; <UNDEFINED> instruction: 0x000005be
     eb8:	05500119 	ldrbeq	r0, [r0, #-281]	; 0xfffffee7
     ebc:	00957803 	addseq	r7, r5, r3, lsl #16
     ec0:	51011900 	tstpl	r1, r0, lsl #18
     ec4:	94980305 	ldrls	r0, [r8], #773	; 0x305
     ec8:	01190000 	tsteq	r9, r0
     ecc:	08030552 	stmdaeq	r3, {r1, r4, r6, r8, sl}
     ed0:	19000096 	stmdbne	r0, {r1, r2, r4, r7}
     ed4:	08025301 	stmdaeq	r2, {r0, r8, r9, ip, lr}
     ed8:	ac1a00be 	ldcge	0, cr0, [sl], {190}	; 0xbe
     edc:	c2000088 	andgt	r0, r0, #136, 0	; 0x88
     ee0:	1800000a 	stmdane	r0, {r1, r3}
     ee4:	000088d8 	ldrdeq	r8, [r0], -r8	; <UNPREDICTABLE>
     ee8:	00000742 	andeq	r0, r0, r2, asr #14
     eec:	000005f4 	strdeq	r0, [r0], -r4
     ef0:	01500119 	cmpeq	r0, r9, lsl r1
     ef4:	5101193a 	tstpl	r1, sl, lsr r9
     ef8:	7dd09103 	ldfvcp	f1, [r0, #12]
     efc:	02520119 	subseq	r0, r2, #1073741830	; 0x40000006
     f00:	02198008 	andseq	r8, r9, #8, 0
     f04:	7502007d 	strvc	r0, [r2, #-125]	; 0xffffff83
     f08:	7d021900 	vstrvc.16	s2, [r2, #-0]	; <UNPREDICTABLE>
     f0c:	00310104 	eorseq	r0, r1, r4, lsl #2
     f10:	00891018 	addeq	r1, r9, r8, lsl r0
     f14:	00074200 	andeq	r4, r7, r0, lsl #4
     f18:	00062100 	andeq	r2, r6, r0, lsl #2
     f1c:	50011900 	andpl	r1, r1, r0, lsl #18
     f20:	01193a01 	tsteq	r9, r1, lsl #20
     f24:	d0910351 	addsle	r0, r1, r1, asr r3
     f28:	5201197d 	andpl	r1, r1, #2048000	; 0x1f4000
     f2c:	19800802 	stmibne	r0, {r1, fp}
     f30:	02007d02 	andeq	r7, r0, #128	; 0x80
     f34:	02190075 	andseq	r0, r9, #117, 0	; 0x75
     f38:	3001047d 	andcc	r0, r1, sp, ror r4
     f3c:	89441800 	stmdbhi	r4, {fp, ip}^
     f40:	07420000 	strbeq	r0, [r2, -r0]
     f44:	064e0000 	strbeq	r0, [lr], -r0
     f48:	01190000 	tsteq	r9, r0
     f4c:	19400150 	stmdbne	r0, {r4, r6, r8}^
     f50:	91035101 	tstls	r3, r1, lsl #2
     f54:	01197dd0 			; <UNDEFINED> instruction: 0x01197dd0
     f58:	80080252 	andhi	r0, r8, r2, asr r2
     f5c:	007d0219 	rsbseq	r0, sp, r9, lsl r2
     f60:	19007502 	stmdbne	r0, {r1, r8, sl, ip, sp, lr}
     f64:	01047d02 	tsteq	r4, r2, lsl #26
     f68:	78180030 	ldmdavc	r8, {r4, r5}
     f6c:	42000089 	andmi	r0, r0, #137, 0	; 0x89
     f70:	7b000007 	blvc	f94 <__code_start__-0x706c>
     f74:	19000006 	stmdbne	r0, {r1, r2}
     f78:	32015001 	andcc	r5, r1, #1, 0
     f7c:	03510119 	cmpeq	r1, #1073741830	; 0x40000006
     f80:	197dd091 	ldmdbne	sp!, {r0, r4, r7, ip, lr, pc}^
     f84:	08025201 	stmdaeq	r2, {r0, r9, ip, lr}
     f88:	7d021980 	vstrvc.16	s2, [r2, #-256]	; 0xffffff00	; <UNPREDICTABLE>
     f8c:	00750200 	rsbseq	r0, r5, r0, lsl #4
     f90:	047d0219 	ldrbteq	r0, [sp], #-537	; 0xfffffde7
     f94:	18003001 	stmdane	r0, {r0, ip, sp}
     f98:	000089c0 	andeq	r8, r0, r0, asr #19
     f9c:	00000742 	andeq	r0, r0, r2, asr #14
     fa0:	000006a8 	andeq	r0, r0, r8, lsr #13
     fa4:	01500119 	cmpeq	r0, r9, lsl r1
     fa8:	51011938 	tstpl	r1, r8, lsr r9
     fac:	7dd09103 	ldfvcp	f1, [r0, #12]
     fb0:	02520119 	subseq	r0, r2, #1073741830	; 0x40000006
     fb4:	02198008 	andseq	r8, r9, #8, 0
     fb8:	7502007d 	strvc	r0, [r2, #-125]	; 0xffffff83
     fbc:	7d021900 	vstrvc.16	s2, [r2, #-0]	; <UNPREDICTABLE>
     fc0:	00300104 	eorseq	r0, r0, r4, lsl #2
     fc4:	0089e018 	addeq	lr, r9, r8, lsl r0
     fc8:	000a9e00 	andeq	r9, sl, r0, lsl #28
     fcc:	0006cb00 	andeq	ip, r6, r0, lsl #22
     fd0:	50011900 	andpl	r1, r1, r0, lsl #18
     fd4:	95a00305 	strls	r0, [r0, #773]!	; 0x305
     fd8:	01190000 	tsteq	r9, r0
     fdc:	007a0251 	rsbseq	r0, sl, r1, asr r2
     fe0:	02520119 	subseq	r0, r2, #1073741830	; 0x40000006
     fe4:	1b00007a 	blne	11d4 <__code_start__-0x6e2c>
     fe8:	000089f0 	strdeq	r8, [r0], -r0
     fec:	000006dd 	ldrdeq	r0, [r0], -sp
     ff0:	04500119 	ldrbeq	r0, [r0], #-281	; 0xfffffee7
     ff4:	067dc891 			; <UNDEFINED> instruction: 0x067dc891
     ff8:	8a041800 	bhi	107000 <__bss_end__+0xfd3b8>
     ffc:	0a9e0000 	beq	fe781004 <__bss_end__+0xfe7773bc>
    1000:	070c0000 	streq	r0, [ip, -r0]
    1004:	01190000 	tsteq	r9, r0
    1008:	d0030550 	andle	r0, r3, r0, asr r5
    100c:	19000095 	stmdbne	r0, {r0, r2, r4, r7}
    1010:	03055101 	movweq	r5, #20737	; 0x5101
    1014:	00009498 	muleq	r0, r8, r4
    1018:	05520119 	ldrbeq	r0, [r2, #-281]	; 0xfffffee7
    101c:	00960803 	addseq	r0, r6, r3, lsl #16
    1020:	53011900 	movwpl	r1, #6400	; 0x1900
    1024:	00e20802 	rsceq	r0, r2, r2, lsl #16
    1028:	008a081a 	addeq	r0, sl, sl, lsl r8
    102c:	000ac200 	andeq	ip, sl, r0, lsl #4
    1030:	08000000 	stmdaeq	r0, {}	; <UNPREDICTABLE>
    1034:	0000b904 	andeq	fp, r0, r4, lsl #18
    1038:	00c01c00 	sbceq	r1, r0, r0, lsl #24
    103c:	072d0000 	streq	r0, [sp, -r0]!
    1040:	2c1d0000 	ldccs	0, cr0, [sp], {-0}
    1044:	09000000 	stmdbeq	r0, {}	; <UNPREDICTABLE>
    1048:	071d0900 	ldreq	r0, [sp, -r0, lsl #18]
    104c:	b91c0000 	ldmdblt	ip, {}	; <UNPREDICTABLE>
    1050:	42000000 	andmi	r0, r0, #0, 0
    1054:	1d000007 	stcne	0, cr0, [r0, #-28]	; 0xffffffe4
    1058:	0000002c 	andeq	r0, r0, ip, lsr #32
    105c:	481e007f 	ldmdami	lr, {r0, r1, r2, r3, r4, r5, r6}
    1060:	01000004 	tsteq	r0, r4
    1064:	07170149 	ldreq	r0, [r7, -r9, asr #2]
    1068:	83a80000 			; <UNDEFINED> instruction: 0x83a80000
    106c:	01b40000 			; <UNDEFINED> instruction: 0x01b40000
    1070:	9c010000 	stcls	0, cr0, [r1], {-0}
    1074:	000008ab 	andeq	r0, r0, fp, lsr #17
    1078:	0001ec1f 	andeq	lr, r1, pc, lsl ip
    107c:	0f490100 	svceq	0x00490100
    1080:	0000002c 	andeq	r0, r0, ip, lsr #32
    1084:	00000605 	andeq	r0, r0, r5, lsl #12
    1088:	000005ff 	strdeq	r0, [r0], -pc	; <UNPREDICTABLE>
    108c:	7473640e 	ldrbtvc	r6, [r3], #-1038	; 0xfffffbf2
    1090:	1b490100 	blne	1241498 <__bss_end__+0x1237850>
    1094:	00000717 	andeq	r0, r0, r7, lsl r7
    1098:	00000643 	andeq	r0, r0, r3, asr #12
    109c:	00000633 	andeq	r0, r0, r3, lsr r6
    10a0:	01006e0e 	tsteq	r0, lr, lsl #28
    10a4:	00252449 	eoreq	r2, r5, r9, asr #8
    10a8:	06a70000 	strteq	r0, [r7], r0
    10ac:	06a30000 	strteq	r0, [r3], r0
    10b0:	760e0000 	strvc	r0, [lr], -r0
    10b4:	01006c61 	tsteq	r0, r1, ror #24
    10b8:	00252b49 	eoreq	r2, r5, r9, asr #22
    10bc:	06d10000 	ldrbeq	r0, [r1], r0
    10c0:	06c50000 	strbeq	r0, [r5], r0
    10c4:	d61f0000 	ldrle	r0, [pc], -r0
    10c8:	01000003 	tsteq	r0, r3
    10cc:	00253449 	eoreq	r3, r5, r9, asr #8
    10d0:	07270000 	streq	r0, [r7, -r0]!
    10d4:	07210000 	streq	r0, [r1, -r0]!
    10d8:	940f0000 	strls	r0, [pc], #-0	; 10e0 <__code_start__-0x6f20>
    10dc:	01000004 	tsteq	r0, r4
    10e0:	00253f49 	eoreq	r3, r5, r9, asr #30
    10e4:	91020000 	mrsls	r0, (UNDEF: 2)
    10e8:	75621404 	strbvc	r1, [r2, #-1028]!	; 0xfffffbfc
    10ec:	4e010066 	cdpmi	0, 0, cr0, cr1, cr6, {3}
    10f0:	0008ab07 	andeq	sl, r8, r7, lsl #22
    10f4:	a8910300 	ldmge	r1, {r8, r9}
    10f8:	0070107f 	rsbseq	r1, r0, pc, ror r0
    10fc:	17114e01 	ldrne	r4, [r1, -r1, lsl #28]
    1100:	71000007 	tstvc	r0, r7
    1104:	51000007 	tstpl	r0, r7
    1108:	10000007 	andne	r0, r0, r7
    110c:	4f010075 	svcmi	0x00010075
    1110:	00002c0b 	andeq	r2, r0, fp, lsl #24
    1114:	00085700 	andeq	r5, r8, r0, lsl #14
    1118:	00084300 	andeq	r4, r8, r0, lsl #6
    111c:	003e1200 	eorseq	r1, lr, r0, lsl #4
    1120:	08cb0000 	stmiaeq	fp, {}^	; <UNPREDICTABLE>
    1124:	03050000 	movweq	r0, #20480	; 0x5000
    1128:	000095f0 	strdeq	r9, [r0], -r0
    112c:	00841416 	addeq	r1, r4, r6, lsl r4
    1130:	00007800 	andeq	r7, r0, r0, lsl #16
    1134:	00083200 	andeq	r3, r8, r0, lsl #4
    1138:	04351100 	ldrteq	r1, [r5], #-256	; 0xffffff00
    113c:	54010000 	strpl	r0, [r1], #-0
    1140:	00002c0d 	andeq	r2, r0, sp, lsl #24
    1144:	0008d800 	andeq	sp, r8, r0, lsl #16
    1148:	0008d000 	andeq	sp, r8, r0
    114c:	cc180000 	ldcgt	0, cr0, [r8], {-0}
    1150:	5d000084 	stcpl	0, cr0, [r0, #-528]	; 0xfffffdf0
    1154:	47000009 	strmi	r0, [r0, -r9]
    1158:	19000008 	stmdbne	r0, {r3}
    115c:	91035101 	tstls	r3, r1, lsl #2
    1160:	18007fa0 	stmdane	r0, {r5, r7, r8, r9, sl, fp, ip, sp, lr}
    1164:	000084e0 	andeq	r8, r0, r0, ror #9
    1168:	000008d0 	ldrdeq	r0, [r0], -r0	; <UNPREDICTABLE>
    116c:	00000868 	andeq	r0, r0, r8, ror #16
    1170:	02500119 	subseq	r0, r0, #1073741830	; 0x40000006
    1174:	01190075 	tsteq	r9, r5, ror r0
    1178:	00740251 	rsbseq	r0, r4, r1, asr r2
    117c:	03530119 	cmpeq	r3, #1073741830	; 0x40000006
    1180:	007fa091 			; <UNDEFINED> instruction: 0x007fa091
    1184:	00853818 	addeq	r3, r5, r8, lsl r8
    1188:	000a9e00 	andeq	r9, sl, r0, lsl #28
    118c:	0008a100 	andeq	sl, r8, r0, lsl #2
    1190:	50011900 	andpl	r1, r1, r0, lsl #18
    1194:	94ac0305 	strtls	r0, [ip], #773	; 0x305
    1198:	01190000 	tsteq	r9, r0
    119c:	98030551 	stmdals	r3, {r0, r4, r6, r8, sl}
    11a0:	19000094 	stmdbne	r0, {r2, r4, r7}
    11a4:	03055201 	movweq	r5, #20993	; 0x5201
    11a8:	000095f0 	strdeq	r9, [r0], -r0
    11ac:	02530119 	subseq	r0, r3, #1073741830	; 0x40000006
    11b0:	02197908 	andseq	r7, r9, #8, 18	; 0x20000
    11b4:	0305007d 	movweq	r0, #20605	; 0x507d
    11b8:	000094c0 	andeq	r9, r0, r0, asr #9
    11bc:	853c1a00 	ldrhi	r1, [ip, #-2560]!	; 0xfffff600
    11c0:	0ac20000 	beq	ff0811c8 <__bss_end__+0xff077580>
    11c4:	1c000000 	stcne	0, cr0, [r0], {-0}
    11c8:	000000b9 	strheq	r0, [r0], -r9
    11cc:	000008bb 			; <UNDEFINED> instruction: 0x000008bb
    11d0:	00002c1d 	andeq	r2, r0, sp, lsl ip
    11d4:	1c003f00 	stcne	15, cr3, [r0], {-0}
    11d8:	000000c0 	andeq	r0, r0, r0, asr #1
    11dc:	000008cb 	andeq	r0, r0, fp, asr #17
    11e0:	00002c1d 	andeq	r2, r0, sp, lsl ip
    11e4:	09000400 	stmdbeq	r0, {sl}
    11e8:	000008bb 			; <UNDEFINED> instruction: 0x000008bb
    11ec:	0004551e 	andeq	r5, r4, lr, lsl r5
    11f0:	0e380100 	rsfeqe	f0, f0, f0
    11f4:	00000717 	andeq	r0, r0, r7, lsl r7
    11f8:	00008370 	andeq	r8, r0, r0, ror r3
    11fc:	00000038 	andeq	r0, r0, r8, lsr r0
    1200:	095d9c01 	ldmdbeq	sp, {r0, sl, fp, ip, pc}^
    1204:	640e0000 	strvs	r0, [lr], #-0
    1208:	01007473 	tsteq	r0, r3, ror r4
    120c:	07171c38 			; <UNDEFINED> instruction: 0x07171c38
    1210:	09190000 	ldmdbeq	r9, {}	; <UNPREDICTABLE>
    1214:	090f0000 	stmdbeq	pc, {}	; <UNPREDICTABLE>
    1218:	6e0e0000 	cdpvs	0, 0, cr0, cr14, cr0, {0}
    121c:	25380100 	ldrcs	r0, [r8, #-256]!	; 0xffffff00
    1220:	00000025 	andeq	r0, r0, r5, lsr #32
    1224:	00000960 	andeq	r0, r0, r0, ror #18
    1228:	0000095c 	andeq	r0, r0, ip, asr r9
    122c:	0100700e 	tsteq	r0, lr
    1230:	07172e38 			; <UNDEFINED> instruction: 0x07172e38
    1234:	09890000 	stmibeq	r9, {}	; <UNPREDICTABLE>
    1238:	09810000 	stmibeq	r1, {}	; <UNPREDICTABLE>
    123c:	2e1f0000 	cdpcs	0, 1, cr0, cr15, cr0, {0}
    1240:	01000008 	tsteq	r0, r8
    1244:	07173738 			; <UNDEFINED> instruction: 0x07173738
    1248:	09c30000 	stmibeq	r3, {}^	; <UNPREDICTABLE>
    124c:	09bf0000 	ldmibeq	pc!, {}	; <UNPREDICTABLE>
    1250:	6c100000 	ldcvs	0, cr0, [r0], {-0}
    1254:	01006e65 	tsteq	r0, r5, ror #28
    1258:	0025063a 	eoreq	r0, r5, sl, lsr r6
    125c:	09e90000 	stmibeq	r9!, {}^	; <UNPREDICTABLE>
    1260:	09e10000 	stmibeq	r1!, {}^	; <UNPREDICTABLE>
    1264:	73100000 	tstvc	r0, #0, 0
    1268:	083e0100 	ldmdaeq	lr!, {r8}
    126c:	00000717 	andeq	r0, r0, r7, lsl r7
    1270:	00000a37 	andeq	r0, r0, r7, lsr sl
    1274:	00000a35 	andeq	r0, r0, r5, lsr sl
    1278:	61702000 	cmnvs	r0, r0
    127c:	2e010064 	cdpcs	0, 0, cr0, cr1, cr4, {3}
    1280:	0007170e 	andeq	r1, r7, lr, lsl #14
    1284:	00834c00 	addeq	r4, r3, r0, lsl #24
    1288:	00002400 	andeq	r2, r0, r0, lsl #8
    128c:	c09c0100 	addsgt	r0, ip, r0, lsl #2
    1290:	0e000009 	cdpeq	0, 0, cr0, cr0, cr9, {0}
    1294:	2e010070 	mcrcs	0, 0, r0, cr1, cr0, {3}
    1298:	00071718 	andeq	r1, r7, r8, lsl r7
    129c:	000a5000 	andeq	r5, sl, r0
    12a0:	000a4a00 	andeq	r4, sl, r0, lsl #20
    12a4:	01ec1f00 	mvneq	r1, r0, lsl #30
    12a8:	2e010000 	cdpcs	0, 0, cr0, cr1, cr0, {0}
    12ac:	00071722 	andeq	r1, r7, r2, lsr #14
    12b0:	000a7f00 	andeq	r7, sl, r0, lsl #30
    12b4:	000a7b00 	andeq	r7, sl, r0, lsl #22
    12b8:	03d60f00 	bicseq	r0, r6, #0, 30
    12bc:	2e010000 	cdpcs	0, 0, cr0, cr1, cr0, {0}
    12c0:	0000252c 	andeq	r2, r0, ip, lsr #10
    12c4:	10520100 	subsne	r0, r2, r0, lsl #2
    12c8:	006e656c 	rsbeq	r6, lr, ip, ror #10
    12cc:	25062f01 	strcs	r2, [r6, #-3841]	; 0xfffff0ff
    12d0:	a2000000 	andge	r0, r0, #0, 0
    12d4:	a000000a 	andge	r0, r0, sl
    12d8:	0000000a 	andeq	r0, r0, sl
    12dc:	0003951e 	andeq	r9, r3, lr, lsl r5
    12e0:	0c270100 	stfeqs	f0, [r7], #-0
    12e4:	00000025 	andeq	r0, r0, r5, lsr #32
    12e8:	00008338 	andeq	r8, r0, r8, lsr r3
    12ec:	00000014 	andeq	r0, r0, r4, lsl r0
    12f0:	09ed9c01 	stmibeq	sp!, {r0, sl, fp, ip, pc}^
    12f4:	630e0000 	movwvs	r0, #57344	; 0xe000
    12f8:	18270100 	stmdane	r7!, {r8}
    12fc:	00000025 	andeq	r0, r0, r5, lsr #32
    1300:	00000abb 			; <UNDEFINED> instruction: 0x00000abb
    1304:	00000ab5 			; <UNDEFINED> instruction: 0x00000ab5
    1308:	04152100 	ldreq	r2, [r5], #-256	; 0xffffff00
    130c:	1f010000 	svcne	0x00010000
    1310:	00855c06 	addeq	r5, r5, r6, lsl #24
    1314:	00006400 	andeq	r6, r0, r0, lsl #8
    1318:	7d9c0100 	ldfvcs	f0, [ip]
    131c:	1f00000a 	svcne	0x0000000a
    1320:	000003e9 	andeq	r0, r0, r9, ror #7
    1324:	9e1b1f01 	cdpls	15, 1, cr1, cr11, cr1, {0}
    1328:	ed000000 	stc	0, cr0, [r0, #-0]
    132c:	e900000a 	stmdb	r0, {r1, r3}
    1330:	1f00000a 	svcne	0x0000000a
    1334:	0000044d 	andeq	r0, r0, sp, asr #8
    1338:	d1301f01 	teqle	r0, r1, lsl #30
    133c:	12000000 	andne	r0, r0, #0, 0
    1340:	0e00000b 	cdpeq	0, 0, cr0, cr0, cr11, {0}
    1344:	1200000b 	andne	r0, r0, #11, 0
    1348:	0000003e 	andeq	r0, r0, lr, lsr r0
    134c:	00000a8d 	andeq	r0, r0, sp, lsl #21
    1350:	95f80305 	ldrbls	r0, [r8, #773]!	; 0x305
    1354:	a4180000 	ldrge	r0, [r8], #-0
    1358:	9e000085 	cdpls	0, 0, cr0, cr0, cr5, {4}
    135c:	7300000a 	movwvc	r0, #10
    1360:	1900000a 	stmdbne	r0, {r1, r3}
    1364:	03055001 	movweq	r5, #20481	; 0x5001
    1368:	000094ac 	andeq	r9, r0, ip, lsr #9
    136c:	05510119 	ldrbeq	r0, [r1, #-281]	; 0xfffffee7
    1370:	00949803 	addseq	r9, r4, r3, lsl #16
    1374:	52011900 	andpl	r1, r1, #0, 18
    1378:	95f80305 	ldrbls	r0, [r8, #773]!	; 0x305
    137c:	01190000 	tsteq	r9, r0
    1380:	20080253 	andcs	r0, r8, r3, asr r2
    1384:	007d0219 	rsbseq	r0, sp, r9, lsl r2
    1388:	94e80305 	strbtls	r0, [r8], #773	; 0x305
    138c:	1a000000 	bne	1394 <__code_start__-0x6c6c>
    1390:	000085a8 	andeq	r8, r0, r8, lsr #11
    1394:	00000ac2 	andeq	r0, r0, r2, asr #21
    1398:	00c01c00 	sbceq	r1, r0, r0, lsl #24
    139c:	0a8d0000 	beq	fe3413a4 <__bss_end__+0xfe33775c>
    13a0:	2c1d0000 	ldccs	0, cr0, [sp], {-0}
    13a4:	0e000000 	cdpeq	0, 0, cr0, cr0, cr0, {0}
    13a8:	0a7d0900 	beq	1f437b0 <__bss_end__+0x1f39b68>
    13ac:	8c220000 	stchi	0, cr0, [r2], #-0
    13b0:	8c000004 	stchi	0, cr0, [r0], {4}
    13b4:	03000004 	movweq	r0, #4
    13b8:	fc2205f0 	stc2	5, cr0, [r2], #-960	; 0xfffffc40
    13bc:	fc000002 	stc2	0, cr0, [r0], {2}
    13c0:	03000002 	movweq	r0, #2
    13c4:	64220628 	strtvs	r0, [r2], #-1576	; 0xfffff9d8
    13c8:	64000004 	strvs	r0, [r0], #-4
    13cc:	03000004 	movweq	r0, #4
    13d0:	2e2205ef 	cfsh64cs	mvdx0, mvdx2, #-1
    13d4:	2e000004 	cdpcs	0, 0, cr0, cr0, cr4, {0}
    13d8:	03000004 	movweq	r0, #4
    13dc:	162207f2 			; <UNDEFINED> instruction: 0x162207f2
    13e0:	16000000 	strne	r0, [r0], -r0
    13e4:	03000000 	movweq	r0, #0
    13e8:	5d22066e 	stcpl	6, cr0, [r2, #-440]!	; 0xfffffe48
    13ec:	5d000004 	stcpl	0, cr0, [r0, #-16]
    13f0:	03000004 	movweq	r0, #4
    13f4:	2f0007f3 	svccs	0x000007f3
    13f8:	04000001 	streq	r0, [r0], #-1
    13fc:	0007b800 	andeq	fp, r7, r0, lsl #16
    1400:	2a010400 	bcs	42408 <__bss_end__+0x387c0>
    1404:	0c000002 	stceq	0, cr0, [r0], {2}
    1408:	000004b1 			; <UNDEFINED> instruction: 0x000004b1
    140c:	00000331 	andeq	r0, r0, r1, lsr r3
    1410:	00008a78 	andeq	r8, r0, r8, ror sl
    1414:	0000002c 	andeq	r0, r0, ip, lsr #32
    1418:	00000c58 	andeq	r0, r0, r8, asr ip
    141c:	69050402 	stmdbvs	r5, {r1, sl}
    1420:	0300746e 	movweq	r7, #1134	; 0x46e
    1424:	006c0704 	rsbeq	r0, ip, r4, lsl #14
    1428:	01030000 	mrseq	r0, (UNDEF: 3)
    142c:	00000a06 	andeq	r0, r0, r6, lsl #20
    1430:	05020300 	streq	r0, [r2, #-768]	; 0xfffffd00
    1434:	000000f0 	strdeq	r0, [r0], -r0	; <UNPREDICTABLE>
    1438:	7e050403 	cdpvc	4, 0, cr0, cr5, cr3, {0}
    143c:	03000000 	movweq	r0, #0
    1440:	00790508 	rsbseq	r0, r9, r8, lsl #10
    1444:	01030000 	mrseq	r0, (UNDEF: 3)
    1448:	00000808 	andeq	r0, r0, r8, lsl #16
    144c:	07020300 	streq	r0, [r2, -r0, lsl #6]
    1450:	00000023 	andeq	r0, r0, r3, lsr #32
    1454:	67070403 	strvs	r0, [r7, -r3, lsl #8]
    1458:	03000000 	movweq	r0, #0
    145c:	00620708 	rsbeq	r0, r2, r8, lsl #14
    1460:	25040000 	strcs	r0, [r4, #-0]
    1464:	7a000000 	bvc	146c <__code_start__-0x6b94>
    1468:	05000000 	streq	r0, [r0, #-0]
    146c:	00000025 	andeq	r0, r0, r5, lsr #32
    1470:	00870600 	addeq	r0, r7, r0, lsl #12
    1474:	1c020000 	stcne	0, cr0, [r2], {-0}
    1478:	0000860e 	andeq	r8, r0, lr, lsl #12
    147c:	6b040700 	blvs	103084 <__bss_end__+0xf943c>
    1480:	04000000 	streq	r0, [r0], #-0
    1484:	00000025 	andeq	r0, r0, r5, lsr #32
    1488:	0000009b 	muleq	r0, fp, r0
    148c:	00009b05 	andeq	r9, r0, r5, lsl #22
    1490:	04070000 	streq	r0, [r7], #-0
    1494:	000000a8 	andeq	r0, r0, r8, lsr #1
    1498:	11080103 	tstne	r8, r3, lsl #2
    149c:	08000000 	stmdaeq	r0, {}	; <UNPREDICTABLE>
    14a0:	000000a1 	andeq	r0, r0, r1, lsr #1
    14a4:	00038206 	andeq	r8, r3, r6, lsl #4
    14a8:	0e210200 	cdpeq	2, 2, cr0, cr1, cr0, {0}
    14ac:	000000b9 	strheq	r0, [r0], -r9
    14b0:	008c0407 	addeq	r0, ip, r7, lsl #8
    14b4:	16090000 	strne	r0, [r9], -r0
    14b8:	01000000 	mrseq	r0, (UNDEF: 0)
    14bc:	8a780604 	bhi	1e02cd4 <__bss_end__+0x1df908c>
    14c0:	002c0000 	eoreq	r0, ip, r0
    14c4:	9c010000 	stcls	0, cr0, [r1], {-0}
    14c8:	0000010e 	andeq	r0, r0, lr, lsl #2
    14cc:	008a8c0a 	addeq	r8, sl, sl, lsl #24
    14d0:	0000e800 	andeq	lr, r0, r0, lsl #16
    14d4:	50010b00 	andpl	r0, r1, r0, lsl #22
    14d8:	96140305 	ldrls	r0, [r4], -r5, lsl #6
    14dc:	0c000000 	stceq	0, cr0, [r0], {-0}
    14e0:	00008a90 	muleq	r0, r0, sl
    14e4:	0000010e 	andeq	r0, r0, lr, lsl #2
    14e8:	008a980d 	addeq	r9, sl, sp, lsl #16
    14ec:	00011a00 	andeq	r1, r1, r0, lsl #20
    14f0:	00010400 	andeq	r0, r1, r0, lsl #8
    14f4:	50010b00 	andpl	r0, r1, r0, lsl #22
    14f8:	0c003a01 			; <UNDEFINED> instruction: 0x0c003a01
    14fc:	00008a9c 	muleq	r0, ip, sl
    1500:	00000126 	andeq	r0, r0, r6, lsr #2
    1504:	04cc0e00 	strbeq	r0, [ip], #3584	; 0xe00
    1508:	04cc0000 	strbeq	r0, [ip], #0
    150c:	4d020000 	stcmi	0, cr0, [r2, #-0]
    1510:	04a80e06 	strteq	r0, [r8], #3590	; 0xe06
    1514:	04a80000 	strteq	r0, [r8], #0
    1518:	58020000 	stmdapl	r2, {}	; <UNPREDICTABLE>
    151c:	049d0e06 	ldreq	r0, [sp], #3590	; 0xe06
    1520:	049d0000 	ldreq	r0, [sp], #0
    1524:	6b020000 	blvs	8152c <__bss_end__+0x778e4>
    1528:	01890006 	orreq	r0, r9, r6
    152c:	00040000 	andeq	r0, r4, r0
    1530:	00000878 	andeq	r0, r0, r8, ror r8
    1534:	022a0104 	eoreq	r0, sl, #1
    1538:	020c0000 	andeq	r0, ip, #0, 0
    153c:	31000005 	tstcc	r0, r5
    1540:	a4000003 	strge	r0, [r0], #-3
    1544:	3c00008a 	stccc	0, cr0, [r0], {138}	; 0x8a
    1548:	01000000 	mrseq	r0, (UNDEF: 0)
    154c:	0200000d 	andeq	r0, r0, #13, 0
    1550:	6e690504 	cdpvs	5, 6, cr0, cr9, cr4, {0}
    1554:	04030074 	streq	r0, [r3], #-116	; 0xffffff8c
    1558:	00006c07 	andeq	r6, r0, r7, lsl #24
    155c:	06010300 	streq	r0, [r1], -r0, lsl #6
    1560:	0000000a 	andeq	r0, r0, sl
    1564:	f0050203 			; <UNDEFINED> instruction: 0xf0050203
    1568:	03000000 	movweq	r0, #0
    156c:	007e0504 	rsbseq	r0, lr, r4, lsl #10
    1570:	08030000 	stmdaeq	r3, {}	; <UNPREDICTABLE>
    1574:	00007905 	andeq	r7, r0, r5, lsl #18
    1578:	08010300 	stmdaeq	r1, {r8, r9}
    157c:	00000008 	andeq	r0, r0, r8
    1580:	23070203 	movwcs	r0, #29187	; 0x7203
    1584:	03000000 	movweq	r0, #0
    1588:	00670704 	rsbeq	r0, r7, r4, lsl #14
    158c:	08030000 	stmdaeq	r3, {}	; <UNPREDICTABLE>
    1590:	00006207 	andeq	r6, r0, r7, lsl #4
    1594:	00250400 	eoreq	r0, r5, r0, lsl #8
    1598:	007a0000 	rsbseq	r0, sl, r0
    159c:	25050000 	strcs	r0, [r5, #-0]
    15a0:	00000000 	andeq	r0, r0, r0
    15a4:	00008706 	andeq	r8, r0, r6, lsl #14
    15a8:	0e1c0200 	cdpeq	2, 1, cr0, cr12, cr0, {0}
    15ac:	00000086 	andeq	r0, r0, r6, lsl #1
    15b0:	006b0407 	rsbeq	r0, fp, r7, lsl #8
    15b4:	25040000 	strcs	r0, [r4, #-0]
    15b8:	9b000000 	blls	15c0 <__code_start__-0x6a40>
    15bc:	05000000 	streq	r0, [r0, #-0]
    15c0:	0000009b 	muleq	r0, fp, r0
    15c4:	a8040700 	stmdage	r4, {r8, r9, sl}
    15c8:	03000000 	movweq	r0, #0
    15cc:	00110801 	andseq	r0, r1, r1, lsl #16
    15d0:	a1080000 	mrsge	r0, (UNDEF: 8)
    15d4:	06000000 	streq	r0, [r0], -r0
    15d8:	00000382 	andeq	r0, r0, r2, lsl #7
    15dc:	b90e2102 	stmdblt	lr, {r1, r8, sp}
    15e0:	07000000 	streq	r0, [r0, -r0]
    15e4:	00008c04 	andeq	r8, r0, r4, lsl #24
    15e8:	04da0900 	ldrbeq	r0, [sl], #2304	; 0x900
    15ec:	04010000 	streq	r0, [r1], #-0
    15f0:	008aa406 	addeq	sl, sl, r6, lsl #8
    15f4:	00003c00 	andeq	r3, r0, r0, lsl #24
    15f8:	549c0100 	ldrpl	r0, [ip], #256	; 0x100
    15fc:	06000001 	streq	r0, [r0], -r1
    1600:	000003c8 	andeq	r0, r0, r8, asr #7
    1604:	25100501 	ldrcs	r0, [r0, #-1281]	; 0xfffffaff
    1608:	06000000 	streq	r0, [r0], -r0
    160c:	000003f1 	strdeq	r0, [r0], -r1
    1610:	251f0501 	ldrcs	r0, [pc, #-1281]	; 1117 <__code_start__-0x6ee9>
    1614:	0a000000 	beq	161c <__code_start__-0x69e4>
    1618:	00000000 	andeq	r0, r0, r0
    161c:	0b070601 	bleq	1c2e28 <__bss_end__+0x1b91e0>
    1620:	00737362 	rsbseq	r7, r3, r2, ror #6
    1624:	540a0a01 	strpl	r0, [sl], #-2561	; 0xfffff5ff
    1628:	39000001 	stmdbcc	r0, {r0}
    162c:	3300000b 	movwcc	r0, #11
    1630:	0c00000b 	stceq	0, cr0, [r0], {11}
    1634:	000004e2 	andeq	r0, r0, r2, ror #9
    1638:	540a0b01 	strpl	r0, [sl], #-2817	; 0xfffff4ff
    163c:	0d000001 	stceq	0, cr0, [r0, #-4]
    1640:	00008ac8 	andeq	r8, r0, r8, asr #21
    1644:	00000008 	andeq	r0, r0, r8
    1648:	0000012f 	andeq	r0, r0, pc, lsr #2
    164c:	006e690e 	rsbeq	r6, lr, lr, lsl #18
    1650:	2c051401 	cfstrscs	mvf1, [r5], {1}
    1654:	01000000 	mrseq	r0, (UNDEF: 0)
    1658:	8aac0f00 	bhi	feb05260 <__bss_end__+0xfeafb618>
    165c:	015a0000 	cmpeq	sl, r0
    1660:	c80f0000 	stmdagt	pc, {}	; <UNPREDICTABLE>
    1664:	6700008a 	strvs	r0, [r0, -sl, lsl #1]
    1668:	0f000001 	svceq	0x00000001
    166c:	00008ad4 	ldrdeq	r8, [r0], -r4
    1670:	00000173 	andeq	r0, r0, r3, ror r1
    1674:	008ad80f 	addeq	sp, sl, pc, lsl #16
    1678:	00018000 	andeq	r8, r1, r0
    167c:	04070000 	streq	r0, [r7], #-0
    1680:	00000025 	andeq	r0, r0, r5, lsr #32
    1684:	0004f410 	andeq	pc, r4, r0, lsl r4	; <UNPREDICTABLE>
    1688:	0004f400 	andeq	pc, r4, r0, lsl #8
    168c:	01360200 	teqeq	r6, r0, lsl #4
    1690:	04ea1106 	strbteq	r1, [sl], #262	; 0x106
    1694:	04ea0000 	strbteq	r0, [sl], #0
    1698:	3b020000 	blcc	816a0 <__bss_end__+0x77a58>
    169c:	00001006 	andeq	r1, r0, r6
    16a0:	00000000 	andeq	r0, r0, r0
    16a4:	0a020000 	beq	816ac <__bss_end__+0x77a64>
    16a8:	16110601 	ldrne	r0, [r1], -r1, lsl #12
    16ac:	16000000 	strne	r0, [r0], -r0
    16b0:	02000000 	andeq	r0, r0, #0, 0
    16b4:	ce00066e 	cfmadd32gt	mvax3, mvfx0, mvfx0, mvfx14
    16b8:	04000000 	streq	r0, [r0], #-0
    16bc:	00097400 	andeq	r7, r9, r0, lsl #8
    16c0:	2a010400 	bcs	426c8 <__bss_end__+0x38a80>
    16c4:	0c000002 	stceq	0, cr0, [r0], {2}
    16c8:	00000517 	andeq	r0, r0, r7, lsl r5
    16cc:	00000331 	andeq	r0, r0, r1, lsr r3
    16d0:	00008ae0 	andeq	r8, r0, r0, ror #21
    16d4:	00000004 	andeq	r0, r0, r4
    16d8:	00000dc4 	andeq	r0, r0, r4, asr #27
    16dc:	69050402 	stmdbvs	r5, {r1, sl}
    16e0:	0300746e 	movweq	r7, #1134	; 0x46e
    16e4:	006c0704 	rsbeq	r0, ip, r4, lsl #14
    16e8:	01030000 	mrseq	r0, (UNDEF: 3)
    16ec:	00000a06 	andeq	r0, r0, r6, lsl #20
    16f0:	05020300 	streq	r0, [r2, #-768]	; 0xfffffd00
    16f4:	000000f0 	strdeq	r0, [r0], -r0	; <UNPREDICTABLE>
    16f8:	7e050403 	cdpvc	4, 0, cr0, cr5, cr3, {0}
    16fc:	03000000 	movweq	r0, #0
    1700:	00790508 	rsbseq	r0, r9, r8, lsl #10
    1704:	01030000 	mrseq	r0, (UNDEF: 3)
    1708:	00000808 	andeq	r0, r0, r8, lsl #16
    170c:	07020300 	streq	r0, [r2, -r0, lsl #6]
    1710:	00000023 	andeq	r0, r0, r3, lsr #32
    1714:	67070403 	strvs	r0, [r7, -r3, lsl #8]
    1718:	03000000 	movweq	r0, #0
    171c:	00620708 	rsbeq	r0, r2, r8, lsl #14
    1720:	25040000 	strcs	r0, [r4, #-0]
    1724:	7a000000 	bvc	172c <__code_start__-0x68d4>
    1728:	05000000 	streq	r0, [r0, #-0]
    172c:	00000025 	andeq	r0, r0, r5, lsr #32
    1730:	00870600 	addeq	r0, r7, r0, lsl #12
    1734:	1c020000 	stcne	0, cr0, [r2], {-0}
    1738:	0000860e 	andeq	r8, r0, lr, lsl #12
    173c:	6b040700 	blvs	103344 <__bss_end__+0xf96fc>
    1740:	04000000 	streq	r0, [r0], #-0
    1744:	00000025 	andeq	r0, r0, r5, lsr #32
    1748:	0000009b 	muleq	r0, fp, r0
    174c:	00009b05 	andeq	r9, r0, r5, lsl #22
    1750:	04070000 	streq	r0, [r7], #-0
    1754:	000000a8 	andeq	r0, r0, r8, lsr #1
    1758:	11080103 	tstne	r8, r3, lsl #2
    175c:	08000000 	stmdaeq	r0, {}	; <UNPREDICTABLE>
    1760:	000000a1 	andeq	r0, r0, r1, lsr #1
    1764:	00038206 	andeq	r8, r3, r6, lsl #4
    1768:	0e210200 	cdpeq	2, 2, cr0, cr1, cr0, {0}
    176c:	000000b9 	strheq	r0, [r0], -r9
    1770:	008c0407 	addeq	r0, ip, r7, lsl #8
    1774:	f4090000 	vst4.8	{d0-d3}, [r9], r0
    1778:	01000004 	tsteq	r0, r4
    177c:	8ae00604 	bhi	ff802f94 <__bss_end__+0xff7f934c>
    1780:	00040000 	andeq	r0, r4, r0
    1784:	9c010000 	stcls	0, cr0, [r1], {-0}
    1788:	00023600 	andeq	r3, r2, r0, lsl #12
    178c:	ed000400 	cfstrs	mvf0, [r0, #-0]
    1790:	04000009 	streq	r0, [r0], #-9
    1794:	00022a01 	andeq	r2, r2, r1, lsl #20
    1798:	055f0c00 	ldrbeq	r0, [pc, #-3072]	; ba0 <__code_start__-0x7460>
    179c:	03310000 	teqeq	r1, #0, 0
    17a0:	00180000 	andseq	r0, r8, r0
    17a4:	00000000 	andeq	r0, r0, r0
    17a8:	0e6b0000 	cdpeq	0, 6, cr0, cr11, cr0, {0}
    17ac:	04020000 	streq	r0, [r2], #-0
    17b0:	746e6905 	strbtvc	r6, [lr], #-2309	; 0xfffff6fb
    17b4:	00250300 	eoreq	r0, r5, r0, lsl #6
    17b8:	04040000 	streq	r0, [r4], #-0
    17bc:	00006c07 	andeq	r6, r0, r7, lsl #24
    17c0:	06010400 	streq	r0, [r1], -r0, lsl #8
    17c4:	0000000a 	andeq	r0, r0, sl
    17c8:	f0050204 			; <UNDEFINED> instruction: 0xf0050204
    17cc:	04000000 	streq	r0, [r0], #-0
    17d0:	007e0504 	rsbseq	r0, lr, r4, lsl #10
    17d4:	08040000 	stmdaeq	r4, {}	; <UNPREDICTABLE>
    17d8:	00007905 	andeq	r7, r0, r5, lsl #18
    17dc:	08010400 	stmdaeq	r1, {sl}
    17e0:	00000008 	andeq	r0, r0, r8
    17e4:	23070204 	movwcs	r0, #29188	; 0x7204
    17e8:	04000000 	streq	r0, [r0], #-0
    17ec:	00670704 	rsbeq	r0, r7, r4, lsl #14
    17f0:	08040000 	stmdaeq	r4, {}	; <UNPREDICTABLE>
    17f4:	00006207 	andeq	r6, r0, r7, lsl #4
    17f8:	00250500 	eoreq	r0, r5, r0, lsl #10
    17fc:	007f0000 	rsbseq	r0, pc, r0
    1800:	25060000 	strcs	r0, [r6, #-0]
    1804:	00000000 	andeq	r0, r0, r0
    1808:	00008707 	andeq	r8, r0, r7, lsl #14
    180c:	0e1c0200 	cdpeq	2, 1, cr0, cr12, cr0, {0}
    1810:	0000008b 	andeq	r0, r0, fp, lsl #1
    1814:	00700408 	rsbseq	r0, r0, r8, lsl #8
    1818:	25050000 	strcs	r0, [r5, #-0]
    181c:	a0000000 	andge	r0, r0, r0
    1820:	06000000 	streq	r0, [r0], -r0
    1824:	000000a0 	andeq	r0, r0, r0, lsr #1
    1828:	ad040800 	stcge	8, cr0, [r4, #-0]
    182c:	04000000 	streq	r0, [r0], #-0
    1830:	00110801 	andseq	r0, r1, r1, lsl #16
    1834:	a6030000 	strge	r0, [r3], -r0
    1838:	07000000 	streq	r0, [r0, -r0]
    183c:	00000382 	andeq	r0, r0, r2, lsl #7
    1840:	be0e2102 	adflte	f2, f6, f2
    1844:	08000000 	stmdaeq	r0, {}	; <UNPREDICTABLE>
    1848:	00009104 	andeq	r9, r0, r4, lsl #2
    184c:	05830900 	streq	r0, [r3, #2304]	; 0x900
    1850:	0d010000 	stceq	0, cr0, [r1, #-0]
    1854:	00003111 	andeq	r3, r0, r1, lsl r1
    1858:	049d0a00 	ldreq	r0, [sp], #2560	; 0xa00
    185c:	1f010000 	svcne	0x00010000
    1860:	008b1006 	addeq	r1, fp, r6
    1864:	00005400 	andeq	r5, r0, r0, lsl #8
    1868:	ae9c0100 	fmlgee	f0, f4, f0
    186c:	0b000001 	bleq	1878 <__code_start__-0x6788>
    1870:	000005a7 	andeq	r0, r0, r7, lsr #11
    1874:	2c0f2c01 	stccs	12, cr2, [pc], {1}
    1878:	66000000 	strvs	r0, [r0], -r0
    187c:	6400000b 	strvs	r0, [r0], #-11
    1880:	0b00000b 	bleq	18b4 <__code_start__-0x674c>
    1884:	00000542 	andeq	r0, r0, r2, asr #10
    1888:	2c0f2d01 	stccs	13, cr2, [pc], {1}
    188c:	80000000 	andhi	r0, r0, r0
    1890:	7e00000b 	cdpvc	0, 0, cr0, cr0, cr11, {0}
    1894:	0b00000b 	bleq	18c8 <__code_start__-0x6738>
    1898:	00000574 	andeq	r0, r0, r4, ror r5
    189c:	2c0f2e01 	stccs	14, cr2, [pc], {1}
    18a0:	9a000000 	bls	18a8 <__code_start__-0x6758>
    18a4:	9800000b 	stmdals	r0, {r0, r1, r3}
    18a8:	0b00000b 	bleq	18dc <__code_start__-0x6724>
    18ac:	0000058e 	andeq	r0, r0, lr, lsl #11
    18b0:	2c0f2f01 	stccs	15, cr2, [pc], {1}
    18b4:	b3000000 	movwlt	r0, #0
    18b8:	b100000b 	tstlt	r0, fp
    18bc:	0c00000b 	stceq	0, cr0, [r0], {11}
    18c0:	00008b18 	andeq	r8, r0, r8, lsl fp
    18c4:	000001d9 	ldrdeq	r0, [r0], -r9
    18c8:	008b240c 	addeq	r2, fp, ip, lsl #8
    18cc:	00020800 	andeq	r0, r2, r0, lsl #16
    18d0:	8b280c00 	blhi	a048d8 <__bss_end__+0x9fac90>
    18d4:	02150000 	andseq	r0, r5, #0, 0
    18d8:	300d0000 	andcc	r0, sp, r0
    18dc:	2100008b 	smlabbcs	r0, fp, r0, r0
    18e0:	64000002 	strvs	r0, [r0], #-2
    18e4:	0e000001 	cdpeq	0, 0, cr0, cr0, cr1, {0}
    18e8:	3a015001 	bcc	558f4 <__bss_end__+0x4bcac>
    18ec:	8b3c0d00 	blhi	f04cf4 <__bss_end__+0xefb0ac>
    18f0:	022d0000 	eoreq	r0, sp, #0, 0
    18f4:	01840000 	orreq	r0, r4, r0
    18f8:	010e0000 	mrseq	r0, (UNDEF: 14)
    18fc:	240c0550 	strcs	r0, [ip], #-1360	; 0xfffffab0
    1900:	0e201000 	cdpeq	0, 2, cr1, cr0, cr0, {0}
    1904:	0c055101 	stfeqs	f5, [r5], {1}
    1908:	5a000001 	bpl	1914 <__code_start__-0x66ec>
    190c:	8b480d00 	blhi	1204d14 <__bss_end__+0x11fb0cc>
    1910:	022d0000 	eoreq	r0, sp, #0, 0
    1914:	01a40000 			; <UNDEFINED> instruction: 0x01a40000
    1918:	010e0000 	mrseq	r0, (UNDEF: 14)
    191c:	1c0c0550 	cfstr32ne	mvfx0, [ip], {80}	; 0x50
    1920:	0e201000 	cdpeq	0, 2, cr1, cr0, cr0, {0}
    1924:	0c055101 	stfeqs	f5, [r5], {1}
    1928:	5a000020 	bpl	19b0 <__code_start__-0x6650>
    192c:	8b500c00 	blhi	1404934 <__bss_end__+0x13facec>
    1930:	01ae0000 			; <UNDEFINED> instruction: 0x01ae0000
    1934:	0f000000 	svceq	0x00000000
    1938:	00000550 	andeq	r0, r0, r0, asr r5
    193c:	fc061701 	stc2	7, cr1, [r6], {1}
    1940:	1400008a 	strne	r0, [r0], #-138	; 0xffffff76
    1944:	01000000 	mrseq	r0, (UNDEF: 0)
    1948:	0001d99c 	muleq	r1, ip, r9
    194c:	05af0b00 	streq	r0, [pc, #2816]!	; 2454 <__code_start__-0x5bac>
    1950:	18010000 	stmdane	r1, {}	; <UNPREDICTABLE>
    1954:	0000310e 	andeq	r3, r0, lr, lsl #2
    1958:	000bce00 	andeq	ip, fp, r0, lsl #28
    195c:	000bc800 	andeq	ip, fp, r0, lsl #16
    1960:	80100000 	andshi	r0, r0, r0
    1964:	01000005 	tsteq	r0, r5
    1968:	0025050e 	eoreq	r0, r5, lr, lsl #10
    196c:	8ae40000 	bhi	ff901974 <__bss_end__+0xff8f7d2c>
    1970:	00180000 	andseq	r0, r8, r0
    1974:	9c010000 	stcls	0, cr0, [r1], {-0}
    1978:	00000208 	andeq	r0, r0, r8, lsl #4
    197c:	0005af0b 	andeq	sl, r5, fp, lsl #30
    1980:	0e0f0100 	adfeqe	f0, f7, f0
    1984:	00000031 	andeq	r0, r0, r1, lsr r0
    1988:	00000bfc 	strdeq	r0, [r0], -ip
    198c:	00000bf8 	strdeq	r0, [r0], -r8
    1990:	05331100 	ldreq	r1, [r3, #-256]!	; 0xffffff00
    1994:	05330000 	ldreq	r0, [r3, #-0]!
    1998:	3b020000 	blcc	819a0 <__bss_end__+0x77d58>
    199c:	cc120601 	ldcgt	6, cr0, [r2], {1}
    19a0:	cc000004 	stcgt	0, cr0, [r0], {4}
    19a4:	02000004 	andeq	r0, r0, #4, 0
    19a8:	a812064d 	ldmdage	r2, {r0, r2, r3, r6, r9, sl}
    19ac:	a8000004 	stmdage	r0, {r2}
    19b0:	02000004 	andeq	r0, r0, #4, 0
    19b4:	4a120658 	bmi	48331c <__bss_end__+0x4796d4>
    19b8:	4a000005 	bmi	19d4 <__code_start__-0x662c>
    19bc:	02000005 	andeq	r0, r0, #5, 0
    19c0:	4d0006b2 	stcmi	6, cr0, [r0, #-712]	; 0xfffffd38
    19c4:	04000002 	streq	r0, [r0], #-2
    19c8:	000b1200 	andeq	r1, fp, r0, lsl #4
    19cc:	2a010400 	bcs	429d4 <__bss_end__+0x38d8c>
    19d0:	0c000002 	stceq	0, cr0, [r0], {2}
    19d4:	000005ca 	andeq	r0, r0, sl, asr #11
    19d8:	00000331 	andeq	r0, r0, r1, lsr r3
    19dc:	00008b64 	andeq	r8, r0, r4, ror #22
    19e0:	00000084 	andeq	r0, r0, r4, lsl #1
    19e4:	00000f62 	andeq	r0, r0, r2, ror #30
    19e8:	69050402 	stmdbvs	r5, {r1, sl}
    19ec:	0300746e 	movweq	r7, #1134	; 0x46e
    19f0:	006c0704 	rsbeq	r0, ip, r4, lsl #14
    19f4:	01030000 	mrseq	r0, (UNDEF: 3)
    19f8:	00000a06 	andeq	r0, r0, r6, lsl #20
    19fc:	05020300 	streq	r0, [r2, #-768]	; 0xfffffd00
    1a00:	000000f0 	strdeq	r0, [r0], -r0	; <UNPREDICTABLE>
    1a04:	7e050403 	cdpvc	4, 0, cr0, cr5, cr3, {0}
    1a08:	03000000 	movweq	r0, #0
    1a0c:	00790508 	rsbseq	r0, r9, r8, lsl #10
    1a10:	01030000 	mrseq	r0, (UNDEF: 3)
    1a14:	00000808 	andeq	r0, r0, r8, lsl #16
    1a18:	07020300 	streq	r0, [r2, -r0, lsl #6]
    1a1c:	00000023 	andeq	r0, r0, r3, lsr #32
    1a20:	67070403 	strvs	r0, [r7, -r3, lsl #8]
    1a24:	03000000 	movweq	r0, #0
    1a28:	00620708 	rsbeq	r0, r2, r8, lsl #14
    1a2c:	25040000 	strcs	r0, [r4, #-0]
    1a30:	7a000000 	bvc	1a38 <__code_start__-0x65c8>
    1a34:	05000000 	streq	r0, [r0, #-0]
    1a38:	00000025 	andeq	r0, r0, r5, lsr #32
    1a3c:	00870600 	addeq	r0, r7, r0, lsl #12
    1a40:	1c020000 	stcne	0, cr0, [r2], {-0}
    1a44:	0000860e 	andeq	r8, r0, lr, lsl #12
    1a48:	6b040700 	blvs	103650 <__bss_end__+0xf9a08>
    1a4c:	04000000 	streq	r0, [r0], #-0
    1a50:	00000025 	andeq	r0, r0, r5, lsr #32
    1a54:	0000009b 	muleq	r0, fp, r0
    1a58:	00009b05 	andeq	r9, r0, r5, lsl #22
    1a5c:	04070000 	streq	r0, [r7], #-0
    1a60:	000000a8 	andeq	r0, r0, r8, lsr #1
    1a64:	11080103 	tstne	r8, r3, lsl #2
    1a68:	08000000 	stmdaeq	r0, {}	; <UNPREDICTABLE>
    1a6c:	000000a1 	andeq	r0, r0, r1, lsr #1
    1a70:	00038206 	andeq	r8, r3, r6, lsl #4
    1a74:	0e210200 	cdpeq	2, 2, cr0, cr1, cr0, {0}
    1a78:	000000b9 	strheq	r0, [r0], -r9
    1a7c:	008c0407 	addeq	r0, ip, r7, lsl #8
    1a80:	c0090000 	andgt	r0, r9, r0
    1a84:	01000005 	tsteq	r0, r5
    1a88:	8bd0061e 	blhi	ff403308 <__bss_end__+0xff3f96c0>
    1a8c:	00180000 	andseq	r0, r8, r0
    1a90:	9c010000 	stcls	0, cr0, [r1], {-0}
    1a94:	00000109 	andeq	r0, r0, r9, lsl #2
    1a98:	6365730a 	cmnvs	r5, #671088640	; 0x28000000
    1a9c:	191e0100 	ldmdbne	lr, {r8}
    1aa0:	0000002c 	andeq	r0, r0, ip, lsr #32
    1aa4:	00000c1f 	andeq	r0, r0, pc, lsl ip
    1aa8:	00000c1b 	andeq	r0, r0, fp, lsl ip
    1aac:	008be40b 	addeq	lr, fp, fp, lsl #8
    1ab0:	00010900 	andeq	r0, r1, r0, lsl #18
    1ab4:	50010c00 	andpl	r0, r1, r0, lsl #24
    1ab8:	5001f311 	andpl	pc, r1, r1, lsl r3	; <UNPREDICTABLE>
    1abc:	01f32435 	mvnseq	r2, r5, lsr r4
    1ac0:	24321c50 	ldrtcs	r1, [r2], #-3152	; 0xfffff3b0
    1ac4:	225001f3 	subscs	r0, r0, #-1073741764	; 0xc000003c
    1ac8:	00002433 	andeq	r2, r0, r3, lsr r4
    1acc:	0004a809 	andeq	sl, r4, r9, lsl #16
    1ad0:	061b0100 	ldreq	r0, [fp], -r0, lsl #2
    1ad4:	00008bb8 			; <UNDEFINED> instruction: 0x00008bb8
    1ad8:	00000018 	andeq	r0, r0, r8, lsl r0
    1adc:	01529c01 	cmpeq	r2, r1, lsl #24
    1ae0:	6d0a0000 	stcvs	0, cr0, [sl, #-0]
    1ae4:	1b010073 	blne	41cb8 <__bss_end__+0x38070>
    1ae8:	00002c18 	andeq	r2, r0, r8, lsl ip
    1aec:	000c4400 	andeq	r4, ip, r0, lsl #8
    1af0:	000c4000 	andeq	r4, ip, r0
    1af4:	8bcc0b00 	blhi	ff3046fc <__bss_end__+0xff2faab4>
    1af8:	01520000 	cmpeq	r2, r0
    1afc:	010c0000 	mrseq	r0, (UNDEF: 12)
    1b00:	01f31150 	mvnseq	r1, r0, asr r1
    1b04:	f3243550 	vqrshl.u32	<illegal reg q1.5>, q0, q2
    1b08:	321c5001 	andscc	r5, ip, #1, 0
    1b0c:	5001f324 	andpl	pc, r1, r4, lsr #6
    1b10:	00243322 	eoreq	r3, r4, r2, lsr #6
    1b14:	05f30900 	ldrbeq	r0, [r3, #2304]!	; 0x900
    1b18:	12010000 	andne	r0, r1, #0, 0
    1b1c:	008b9406 	addeq	r9, fp, r6, lsl #8
    1b20:	00002400 	andeq	r2, r0, r0, lsl #8
    1b24:	c29c0100 	addsgt	r0, ip, #0
    1b28:	0a000001 	beq	1b34 <__code_start__-0x64cc>
    1b2c:	01007375 	tsteq	r0, r5, ror r3
    1b30:	002c1812 	eoreq	r1, ip, r2, lsl r8
    1b34:	0c690000 	stcleq	0, cr0, [r9], #-0
    1b38:	0c650000 	stcleq	0, cr0, [r5], #-0
    1b3c:	720d0000 	andvc	r0, sp, #0, 0
    1b40:	13010062 	movwne	r0, #4194	; 0x1062
    1b44:	00002c0e 	andeq	r2, r0, lr, lsl #24
    1b48:	000c8900 	andeq	r8, ip, r0, lsl #18
    1b4c:	000c8700 	andeq	r8, ip, r0, lsl #14
    1b50:	8ba40e00 	blhi	fe905358 <__bss_end__+0xfe8fb710>
    1b54:	00140000 	andseq	r0, r4, r0
    1b58:	01b80000 			; <UNDEFINED> instruction: 0x01b80000
    1b5c:	720d0000 	andvc	r0, sp, #0, 0
    1b60:	15010061 	strne	r0, [r1, #-97]	; 0xffffff9f
    1b64:	00002c12 	andeq	r2, r0, r2, lsl ip
    1b68:	000c9e00 	andeq	r9, ip, r0, lsl #28
    1b6c:	000c9c00 	andeq	r9, ip, r0, lsl #24
    1b70:	8ba80f00 	blhi	fea05778 <__bss_end__+0xfe9fbb30>
    1b74:	01c20000 	biceq	r0, r2, r0
    1b78:	0f000000 	svceq	0x00000000
    1b7c:	00008ba0 	andeq	r8, r0, r0, lsr #23
    1b80:	000001c2 	andeq	r0, r0, r2, asr #3
    1b84:	05e41000 	strbeq	r1, [r4, #0]!
    1b88:	09010000 	stmdbeq	r1, {}	; <UNPREDICTABLE>
    1b8c:	00002c0a 	andeq	r2, r0, sl, lsl #24
    1b90:	008b7800 	addeq	r7, fp, r0, lsl #16
    1b94:	00001c00 	andeq	r1, r0, r0, lsl #24
    1b98:	0a9c0100 	beq	fe701fa0 <__bss_end__+0xfe6f8358>
    1b9c:	0d000002 	stceq	0, cr0, [r0, #-8]
    1ba0:	0d010075 	stceq	0, cr0, [r1, #-468]	; 0xfffffe2c
    1ba4:	00002c0e 	andeq	r2, r0, lr, lsl #24
    1ba8:	000cb500 	andeq	fp, ip, r0, lsl #10
    1bac:	000cb100 	andeq	fp, ip, r0, lsl #2
    1bb0:	8b800f00 	blhi	fe0057b8 <__bss_end__+0xfdffbb70>
    1bb4:	02380000 	eorseq	r0, r8, #0, 0
    1bb8:	840f0000 	strhi	r0, [pc], #-0	; 1bc0 <__code_start__-0x6440>
    1bbc:	0a00008b 	beq	1df0 <__code_start__-0x6210>
    1bc0:	0f000002 	svceq	0x00000002
    1bc4:	00008b8c 	andeq	r8, r0, ip, lsl #23
    1bc8:	00000238 	andeq	r0, r0, r8, lsr r2
    1bcc:	05fc1000 	ldrbeq	r1, [ip, #0]!
    1bd0:	04010000 	streq	r0, [r1], #-0
    1bd4:	00002c0a 	andeq	r2, r0, sl, lsl #24
    1bd8:	008b6400 	addeq	r6, fp, r0, lsl #8
    1bdc:	00001400 	andeq	r1, r0, r0, lsl #8
    1be0:	389c0100 	ldmcc	ip, {r8}
    1be4:	0b000002 	bleq	1bf4 <__code_start__-0x640c>
    1be8:	00008b70 	andeq	r8, r0, r0, ror fp
    1bec:	00000244 	andeq	r0, r0, r4, asr #4
    1bf0:	0550010c 	ldrbeq	r0, [r0, #-268]	; 0xfffffef4
    1bf4:	0030040c 	eorseq	r0, r0, ip, lsl #8
    1bf8:	11000020 	tstne	r0, r0, lsr #32
    1bfc:	000005b4 			; <UNDEFINED> instruction: 0x000005b4
    1c00:	000005b4 			; <UNDEFINED> instruction: 0x000005b4
    1c04:	1106a102 	tstne	r6, r2, lsl #2
    1c08:	000005de 	ldrdeq	r0, [r0], -lr
    1c0c:	000005de 	ldrdeq	r0, [r0], -lr
    1c10:	000ac702 	andeq	ip, sl, r2, lsl #14
    1c14:	000005cd 	andeq	r0, r0, sp, asr #11
    1c18:	0c130004 	ldceq	0, cr0, [r3], {4}
    1c1c:	01040000 	mrseq	r0, (UNDEF: 4)
    1c20:	0000070f 	andeq	r0, r0, pc, lsl #14
    1c24:	00064e0c 	andeq	r4, r6, ip, lsl #28
    1c28:	0006bf00 	andeq	fp, r6, r0, lsl #30
    1c2c:	008be800 	addeq	lr, fp, r0, lsl #16
    1c30:	0001f000 	andeq	pc, r1, r0
    1c34:	00106000 	andseq	r6, r0, r0
    1c38:	05040200 	streq	r0, [r4, #-512]	; 0xfffffe00
    1c3c:	00746e69 	rsbseq	r6, r4, r9, ror #28
    1c40:	6c070403 	cfstrsvs	mvf0, [r7], {3}
    1c44:	04000000 	streq	r0, [r0], #-0
    1c48:	0000002c 	andeq	r0, r0, ip, lsr #32
    1c4c:	0a060103 	beq	182060 <__bss_end__+0x178418>
    1c50:	03000000 	movweq	r0, #0
    1c54:	00f00502 	rscseq	r0, r0, r2, lsl #10
    1c58:	04030000 	streq	r0, [r3], #-0
    1c5c:	00007e05 	andeq	r7, r0, r5, lsl #28
    1c60:	05080300 	streq	r0, [r8, #-768]	; 0xfffffd00
    1c64:	00000079 	andeq	r0, r0, r9, ror r0
    1c68:	08080103 	stmdaeq	r8, {r0, r1, r8}
    1c6c:	03000000 	movweq	r0, #0
    1c70:	00230702 	eoreq	r0, r3, r2, lsl #14
    1c74:	0c050000 	stceq	0, cr0, [r5], {-0}
    1c78:	05000004 	streq	r0, [r0, #-4]
    1c7c:	006e1934 	rsbeq	r1, lr, r4, lsr r9
    1c80:	04030000 	streq	r0, [r3], #-0
    1c84:	00006707 	andeq	r6, r0, r7, lsl #14
    1c88:	07080300 	streq	r0, [r8, -r0, lsl #6]
    1c8c:	00000062 	andeq	r0, r0, r2, rrx
    1c90:	11080103 	tstne	r8, r3, lsl #2
    1c94:	06000000 	streq	r0, [r0], -r0
    1c98:	00540107 	subseq	r0, r4, r7, lsl #2
    1c9c:	0c040000 	stceq	0, cr0, [r4], {-0}
    1ca0:	0000c20e 	andeq	ip, r0, lr, lsl #4
    1ca4:	07f90700 	ldrbeq	r0, [r9, r0, lsl #14]!
    1ca8:	07000000 	streq	r0, [r0, -r0]
    1cac:	00000631 	andeq	r0, r0, r1, lsr r6
    1cb0:	06740701 	ldrbteq	r0, [r4], -r1, lsl #14
    1cb4:	07040000 	streq	r0, [r4, -r0]
    1cb8:	00000683 	andeq	r0, r0, r3, lsl #13
    1cbc:	06920705 	ldreq	r0, [r2], r5, lsl #14
    1cc0:	07060000 	streq	r0, [r6, -r0]
    1cc4:	000006a1 	andeq	r0, r0, r1, lsr #13
    1cc8:	07c20707 	strbeq	r0, [r2, r7, lsl #14]
    1ccc:	07030000 	streq	r0, [r3, -r0]
    1cd0:	000006b0 			; <UNDEFINED> instruction: 0x000006b0
    1cd4:	42080002 	andmi	r0, r8, #2, 0
    1cd8:	2c000006 	stccs	0, cr0, [r0], {6}
    1cdc:	5e080602 	cfmadd32pl	mvax0, mvfx0, mvfx8, mvfx2
    1ce0:	09000001 	stmdbeq	r0, {r0}
    1ce4:	02006f69 	andeq	r6, r0, #420	; 0x1a4
    1ce8:	00330909 	eorseq	r0, r3, r9, lsl #18
    1cec:	09000000 	stmdbeq	r0, {}	; <UNPREDICTABLE>
    1cf0:	00726569 	rsbseq	r6, r2, r9, ror #10
    1cf4:	33090a02 	movwcc	r0, #39426	; 0x9a02
    1cf8:	04000000 	streq	r0, [r0], #-0
    1cfc:	72696909 	rsbvc	r6, r9, #147456	; 0x24000
    1d00:	09110200 	ldmdbeq	r1, {r9}
    1d04:	00000033 	andeq	r0, r0, r3, lsr r0
    1d08:	636c0908 	cmnvs	ip, #8, 18	; 0x20000
    1d0c:	13020072 	movwne	r0, #8306	; 0x2072
    1d10:	00003309 	andeq	r3, r0, r9, lsl #6
    1d14:	6d090c00 	stcvs	12, cr0, [r9, #-0]
    1d18:	02007263 	andeq	r7, r0, #805306374	; 0x30000006
    1d1c:	00330914 	eorseq	r0, r3, r4, lsl r9
    1d20:	09100000 	ldmdbeq	r0, {}	; <UNPREDICTABLE>
    1d24:	0072736c 	rsbseq	r7, r2, ip, ror #6
    1d28:	33091502 	movwcc	r1, #38146	; 0x9502
    1d2c:	14000000 	strne	r0, [r0], #-0
    1d30:	72736d09 	rsbsvc	r6, r3, #576	; 0x240
    1d34:	09160200 	ldmdbeq	r6, {r9}
    1d38:	00000033 	andeq	r0, r0, r3, lsr r0
    1d3c:	07d90a18 	bfieq	r0, r8, #20, #6
    1d40:	17020000 	strne	r0, [r2, -r0]
    1d44:	00003309 	andeq	r3, r0, r9, lsl #6
    1d48:	a20a1c00 	andge	r1, sl, #0, 24
    1d4c:	02000007 	andeq	r0, r0, #7, 0
    1d50:	0033091b 	eorseq	r0, r3, fp, lsl r9
    1d54:	0a200000 	beq	801d5c <__bss_end__+0x7f8114>
    1d58:	0000061e 	andeq	r0, r0, lr, lsl r6
    1d5c:	33091d02 	movwcc	r1, #40194	; 0x9d02
    1d60:	24000000 	strcs	r0, [r0], #-0
    1d64:	0006f40a 	andeq	pc, r6, sl, lsl #8
    1d68:	091e0200 	ldmdbeq	lr, {r9}
    1d6c:	00000033 	andeq	r0, r0, r3, lsr r0
    1d70:	f90b0028 			; <UNDEFINED> instruction: 0xf90b0028
    1d74:	01000006 	tsteq	r0, r6
    1d78:	01740908 	cmneq	r4, r8, lsl #18
    1d7c:	50040000 	andpl	r0, r4, r0
    1d80:	040c2021 	streq	r2, [ip], #-33	; 0xffffffdf
    1d84:	00000033 	andeq	r0, r0, r3, lsr r0
    1d88:	00016e0d 	andeq	r6, r1, sp, lsl #28
    1d8c:	07e10b00 	strbeq	r0, [r1, r0, lsl #22]!
    1d90:	29010000 	stmdbcs	r1, {}	; <UNPREDICTABLE>
    1d94:	00018f23 	andeq	r8, r1, r3, lsr #30
    1d98:	21504000 	cmpcs	r0, r0
    1d9c:	c2040c20 	andgt	r0, r4, #32, 24	; 0x2000
    1da0:	0d000000 	stceq	0, cr0, [r0, #-0]
    1da4:	00000189 	andeq	r0, r0, r9, lsl #3
    1da8:	0004cc0e 	andeq	ip, r4, lr, lsl #24
    1dac:	06cc0100 	strbeq	r0, [ip], r0, lsl #2
    1db0:	00008da0 	andeq	r8, r0, r0, lsr #27
    1db4:	00000014 	andeq	r0, r0, r4, lsl r0
    1db8:	01b49c01 			; <UNDEFINED> instruction: 0x01b49c01
    1dbc:	a80f0000 	stmdage	pc, {}	; <UNPREDICTABLE>
    1dc0:	b400008d 	strlt	r0, [r0], #-141	; 0xffffff73
    1dc4:	00000001 	andeq	r0, r0, r1
    1dc8:	00066310 	andeq	r6, r6, r0, lsl r3
    1dcc:	05b60100 	ldreq	r0, [r6, #256]!	; 0x100
    1dd0:	00000025 	andeq	r0, r0, r5, lsr #32
    1dd4:	00008d80 	andeq	r8, r0, r0, lsl #27
    1dd8:	00000020 	andeq	r0, r0, r0, lsr #32
    1ddc:	01eb9c01 	mvneq	r9, r1, lsl #24
    1de0:	880f0000 	stmdahi	pc, {}	; <UNPREDICTABLE>
    1de4:	a000008d 	andge	r0, r0, sp, lsl #1
    1de8:	11000005 	tstne	r0, r5
    1dec:	00008d90 	muleq	r0, r0, sp
    1df0:	000005ac 	andeq	r0, r0, ip, lsr #11
    1df4:	05500112 	ldrbeq	r0, [r0, #-274]	; 0xfffffeee
    1df8:	2150640c 	cmpcs	r0, ip, lsl #8
    1dfc:	10000020 	andne	r0, r0, r0, lsr #32
    1e00:	000007b4 			; <UNDEFINED> instruction: 0x000007b4
    1e04:	2505b301 	strcs	fp, [r5, #-769]	; 0xfffffcff
    1e08:	70000000 	andvc	r0, r0, r0
    1e0c:	1000008d 	andne	r0, r0, sp, lsl #1
    1e10:	01000000 	mrseq	r0, (UNDEF: 0)
    1e14:	0002189c 	muleq	r2, ip, r8
    1e18:	8d780f00 	ldclhi	15, cr0, [r8, #-0]
    1e1c:	05a00000 	streq	r0, [r0, #0]!
    1e20:	7c0f0000 	stcvc	0, cr0, [pc], {-0}
    1e24:	0900008d 	stmdbeq	r0, {r0, r2, r3, r7}
    1e28:	00000003 	andeq	r0, r0, r3
    1e2c:	0007ef0e 	andeq	lr, r7, lr, lsl #30
    1e30:	06ab0100 	strteq	r0, [fp], r0, lsl #2
    1e34:	00008d40 	andeq	r8, r0, r0, asr #26
    1e38:	00000030 	andeq	r0, r0, r0, lsr r0
    1e3c:	027c9c01 	rsbseq	r9, ip, #256	; 0x100
    1e40:	63130000 	tstvs	r3, #0, 0
    1e44:	19ab0100 	stmibne	fp!, {r8}
    1e48:	0000002c 	andeq	r0, r0, ip, lsr #32
    1e4c:	00000cd7 	ldrdeq	r0, [r0], -r7
    1e50:	00000cd3 	ldrdeq	r0, [r0], -r3
    1e54:	008d4c0f 	addeq	r4, sp, pc, lsl #24
    1e58:	0005a000 	andeq	sl, r5, r0
    1e5c:	8d500f00 	ldclhi	15, cr0, [r0, #-0]
    1e60:	02db0000 	sbcseq	r0, fp, #0, 0
    1e64:	64140000 	ldrvs	r0, [r4], #-0
    1e68:	b800008d 	stmdalt	r0, {r0, r2, r3, r7}
    1e6c:	72000005 	andvc	r0, r0, #5, 0
    1e70:	12000002 	andne	r0, r0, #2, 0
    1e74:	0c055001 	stceq	0, cr5, [r5], {1}
    1e78:	20215040 	eorcs	r5, r1, r0, asr #32
    1e7c:	05510112 	ldrbeq	r0, [r1, #-274]	; 0xfffffeee
    1e80:	ff080074 			; <UNDEFINED> instruction: 0xff080074
    1e84:	680f001a 	stmdavs	pc, {r1, r3, r4}	; <UNPREDICTABLE>
    1e88:	a000008d 	andge	r0, r0, sp, lsl #1
    1e8c:	00000005 	andeq	r0, r0, r5
    1e90:	00070510 	andeq	r0, r7, r0, lsl r5
    1e94:	05a30100 	streq	r0, [r3, #256]!	; 0x100
    1e98:	00000025 	andeq	r0, r0, r5, lsr #32
    1e9c:	00008d10 	andeq	r8, r0, r0, lsl sp
    1ea0:	00000030 	andeq	r0, r0, r0, lsr r0
    1ea4:	02db9c01 	sbcseq	r9, fp, #256	; 0x100
    1ea8:	63150000 	tstvs	r5, #0, 0
    1eac:	09a70100 	stmibeq	r7!, {r8}
    1eb0:	00000025 	andeq	r0, r0, r5, lsr #32
    1eb4:	00000cf7 	strdeq	r0, [r0], -r7
    1eb8:	00000cf5 	strdeq	r0, [r0], -r5
    1ebc:	008d180f 	addeq	r1, sp, pc, lsl #16
    1ec0:	0005a000 	andeq	sl, r5, r0
    1ec4:	8d1c0f00 	ldchi	15, cr0, [ip, #-0]
    1ec8:	03090000 	movweq	r0, #36864	; 0x9000
    1ecc:	2c140000 	ldccs	0, cr0, [r4], {-0}
    1ed0:	ac00008d 	stcge	0, cr0, [r0], {141}	; 0x8d
    1ed4:	d1000005 	tstle	r0, r5
    1ed8:	12000002 	andne	r0, r0, #2, 0
    1edc:	0c055001 	stceq	0, cr5, [r5], {1}
    1ee0:	20215040 	eorcs	r5, r1, r0, asr #32
    1ee4:	8d340f00 	ldchi	15, cr0, [r4, #-0]
    1ee8:	05a00000 	streq	r0, [r0, #0]!
    1eec:	10000000 	andne	r0, r0, r0
    1ef0:	00000655 	andeq	r0, r0, r5, asr r6
    1ef4:	25059401 	strcs	r9, [r5, #-1025]	; 0xfffffbff
    1ef8:	f0000000 			; <UNDEFINED> instruction: 0xf0000000
    1efc:	2000008c 	andcs	r0, r0, ip, lsl #1
    1f00:	01000000 	mrseq	r0, (UNDEF: 0)
    1f04:	0003099c 	muleq	r3, ip, r9
    1f08:	8cfc1100 	ldfhie	f1, [ip]
    1f0c:	05ac0000 	streq	r0, [ip, #0]!
    1f10:	01120000 	tsteq	r2, r0
    1f14:	640c0550 	strvs	r0, [ip], #-1360	; 0xfffffab0
    1f18:	00202150 	eoreq	r2, r0, r0, asr r1
    1f1c:	06231000 	strteq	r1, [r3], -r0
    1f20:	8b010000 	blhi	41f28 <__bss_end__+0x382e0>
    1f24:	00002505 	andeq	r2, r0, r5, lsl #10
    1f28:	008cd800 	addeq	sp, ip, r0, lsl #16
    1f2c:	00001800 	andeq	r1, r0, r0, lsl #16
    1f30:	379c0100 	ldrcc	r0, [ip, r0, lsl #2]
    1f34:	11000003 	tstne	r0, r3
    1f38:	00008ce4 	andeq	r8, r0, r4, ror #25
    1f3c:	000005ac 	andeq	r0, r0, ip, lsr #11
    1f40:	05500112 	ldrbeq	r0, [r0, #-274]	; 0xfffffeee
    1f44:	2150640c 	cmpcs	r0, ip, lsl #8
    1f48:	0e000020 	cdpeq	0, 0, cr0, cr0, cr0, {1}
    1f4c:	000004ea 	andeq	r0, r0, sl, ror #9
    1f50:	28064501 	stmdacs	r6, {r0, r8, sl, lr}
    1f54:	b000008c 	andlt	r0, r0, ip, lsl #1
    1f58:	01000000 	mrseq	r0, (UNDEF: 0)
    1f5c:	0004849c 	muleq	r4, ip, r4
    1f60:	06151600 	ldreq	r1, [r5], -r0, lsl #12
    1f64:	7e010000 	cdpvc	0, 0, cr0, cr1, cr0, {0}
    1f68:	0000620e 	andeq	r6, r0, lr, lsl #4
    1f6c:	14010e00 	strne	r0, [r1], #-3584	; 0xfffff200
    1f70:	00008c38 	andeq	r8, r0, r8, lsr ip
    1f74:	000005c4 	andeq	r0, r0, r4, asr #11
    1f78:	00000373 	andeq	r0, r0, r3, ror r3
    1f7c:	01500112 	cmpeq	r0, r2, lsl r1
    1f80:	5101123e 	tstpl	r1, lr, lsr r2
    1f84:	14003201 	strne	r3, [r0], #-513	; 0xfffffdff
    1f88:	00008c44 	andeq	r8, r0, r4, asr #24
    1f8c:	000005c4 	andeq	r0, r0, r4, asr #11
    1f90:	0000038b 	andeq	r0, r0, fp, lsl #7
    1f94:	01500112 	cmpeq	r0, r2, lsl r1
    1f98:	5101123f 	tstpl	r1, pc, lsr r2
    1f9c:	0f003201 	svceq	0x00003201
    1fa0:	00008c48 	andeq	r8, r0, r8, asr #24
    1fa4:	000005a0 	andeq	r0, r0, r0, lsr #11
    1fa8:	008c5414 	addeq	r5, ip, r4, lsl r4
    1fac:	00053d00 	andeq	r3, r5, r0, lsl #26
    1fb0:	0003b000 	andeq	fp, r3, r0
    1fb4:	50011200 	andpl	r1, r1, r0, lsl #4
    1fb8:	50040c05 	andpl	r0, r4, r5, lsl #24
    1fbc:	01122021 	tsteq	r2, r1, lsr #32
    1fc0:	00310151 	eorseq	r0, r1, r1, asr r1
    1fc4:	008c580f 	addeq	r5, ip, pc, lsl #16
    1fc8:	0005a000 	andeq	sl, r5, r0
    1fcc:	8c681400 	cfstrdhi	mvd1, [r8], #-0
    1fd0:	05b80000 	ldreq	r0, [r8, #0]!
    1fd4:	03d20000 	bicseq	r0, r2, #0, 0
    1fd8:	01120000 	tsteq	r2, r0
    1fdc:	00740250 	rsbseq	r0, r4, r0, asr r2
    1fe0:	01510112 	cmpeq	r1, r2, lsl r1
    1fe4:	74140030 	ldrvc	r0, [r4], #-48	; 0xffffffd0
    1fe8:	b800008c 	stmdalt	r0, {r2, r3, r7}
    1fec:	ee000005 	cdp	0, 0, cr0, cr0, cr5, {0}
    1ff0:	12000003 	andne	r0, r0, #3, 0
    1ff4:	0c055001 	stceq	0, cr5, [r5], {1}
    1ff8:	20215044 	eorcs	r5, r1, r4, asr #32
    1ffc:	01510112 	cmpeq	r1, r2, lsl r1
    2000:	80140030 	andshi	r0, r4, r0, lsr r0
    2004:	b800008c 	stmdalt	r0, {r2, r3, r7}
    2008:	0a000005 	beq	2024 <__code_start__-0x5fdc>
    200c:	12000004 	andne	r0, r0, #4, 0
    2010:	0c055001 	stceq	0, cr5, [r5], {1}
    2014:	2021504c 	eorcs	r5, r1, ip, asr #32
    2018:	01510112 	cmpeq	r1, r2, lsl r1
    201c:	8c140033 	ldchi	0, cr0, [r4], {51}	; 0x33
    2020:	b800008c 	stmdalt	r0, {r2, r3, r7}
    2024:	26000005 	strcs	r0, [r0], -r5
    2028:	12000004 	andne	r0, r0, #4, 0
    202c:	0c055001 	stceq	0, cr5, [r5], {1}
    2030:	20215050 	eorcs	r5, r1, r0, asr r0
    2034:	01510112 	cmpeq	r1, r2, lsl r1
    2038:	98140030 	ldmdals	r4, {r4, r5}
    203c:	b800008c 	stmdalt	r0, {r2, r3, r7}
    2040:	43000005 	movwmi	r0, #5
    2044:	12000004 	andne	r0, r0, #4, 0
    2048:	0c055001 	stceq	0, cr5, [r5], {1}
    204c:	20215048 	eorcs	r5, r1, r8, asr #32
    2050:	02510112 	subseq	r0, r1, #-2147483644	; 0x80000004
    2054:	1400c708 	strne	ip, [r0], #-1800	; 0xfffff8f8
    2058:	00008ca4 	andeq	r8, r0, r4, lsr #25
    205c:	000005b8 			; <UNDEFINED> instruction: 0x000005b8
    2060:	00000461 	andeq	r0, r0, r1, ror #8
    2064:	05500112 	ldrbeq	r0, [r0, #-274]	; 0xfffffeee
    2068:	2150680c 	cmpcs	r0, ip, lsl #16
    206c:	51011220 	tstpl	r1, r0, lsr #4
    2070:	010e0a03 	tsteq	lr, r3, lsl #20
    2074:	8cb01400 	cfldrshi	mvf1, [r0]
    2078:	05b80000 	ldreq	r0, [r8, #0]!
    207c:	047a0000 	ldrbteq	r0, [sl], #-0
    2080:	01120000 	tsteq	r2, r0
    2084:	00740250 	rsbseq	r0, r4, r0, asr r2
    2088:	01510112 	cmpeq	r1, r2, lsl r1
    208c:	b40f0033 	strlt	r0, [pc], #-51	; 2094 <__code_start__-0x5f6c>
    2090:	a000008c 	andge	r0, r0, ip, lsl #1
    2094:	00000005 	andeq	r0, r0, r5
    2098:	0007a70e 	andeq	sl, r7, lr, lsl #14
    209c:	06350100 	ldrteq	r0, [r5], -r0, lsl #2
    20a0:	00008db4 			; <UNDEFINED> instruction: 0x00008db4
    20a4:	00000024 	andeq	r0, r0, r4, lsr #32
    20a8:	04d39c01 	ldrbeq	r9, [r3], #3073	; 0xc01
    20ac:	bc0f0000 	stclt	0, cr0, [pc], {-0}
    20b0:	9400008d 	strls	r0, [r0], #-141	; 0xffffff73
    20b4:	0f000001 	svceq	0x00000001
    20b8:	00008dc0 	andeq	r8, r0, r0, asr #27
    20bc:	000005a0 	andeq	r0, r0, r0, lsr #11
    20c0:	008dcc14 	addeq	ip, sp, r4, lsl ip
    20c4:	0004d300 	andeq	sp, r4, r0, lsl #6
    20c8:	0004c900 	andeq	ip, r4, r0, lsl #18
    20cc:	50011200 	andpl	r1, r1, r0, lsl #4
    20d0:	50040c05 	andpl	r0, r4, r5, lsl #24
    20d4:	01122021 	tsteq	r2, r1, lsr #32
    20d8:	fe090251 	mcr2	2, 0, r0, cr9, cr1, {2}
    20dc:	8dd00f00 	ldclhi	15, cr0, [r0]
    20e0:	05a00000 	streq	r0, [r0, #0]!
    20e4:	17000000 	strne	r0, [r0, -r0]
    20e8:	000007e6 	andeq	r0, r0, r6, ror #15
    20ec:	e80d3101 	stmda	sp, {r0, r8, ip, sp}
    20f0:	2000008b 	andcs	r0, r0, fp, lsl #1
    20f4:	01000000 	mrseq	r0, (UNDEF: 0)
    20f8:	0005369c 	muleq	r5, ip, r6
    20fc:	08401800 	stmdaeq	r0, {fp, ip}^
    2100:	31010000 	mrscc	r0, (UNDEF: 1)
    2104:	00053625 	andeq	r3, r5, r5, lsr #12
    2108:	000d0e00 	andeq	r0, sp, r0, lsl #28
    210c:	000d0a00 	andeq	r0, sp, r0, lsl #20
    2110:	61761300 	cmnvs	r6, r0, lsl #6
    2114:	3101006c 	tstcc	r1, ip, rrx
    2118:	00002c34 	andeq	r2, r0, r4, lsr ip
    211c:	000d3000 	andeq	r3, sp, r0
    2120:	000d2c00 	andeq	r2, sp, r0, lsl #24
    2124:	8bf81400 	blhi	ffe0712c <__bss_end__+0xffdfd4e4>
    2128:	05ac0000 	streq	r0, [ip, #0]!
    212c:	05250000 	streq	r0, [r5, #-0]!
    2130:	01120000 	tsteq	r2, r0
    2134:	00740250 	rsbseq	r0, r4, r0, asr r2
    2138:	8c041100 	stfhis	f1, [r4], {-0}
    213c:	05b80000 	ldreq	r0, [r8, #0]!
    2140:	01120000 	tsteq	r2, r0
    2144:	00740250 	rsbseq	r0, r4, r0, asr r2
    2148:	040c0000 	streq	r0, [ip], #-0
    214c:	0000053c 	andeq	r0, r0, ip, lsr r5
    2150:	07d11719 	bfieq	r1, r9, #14, #4
    2154:	2e010000 	cdpcs	0, 0, cr0, cr1, cr0, {0}
    2158:	008c080d 	addeq	r0, ip, sp, lsl #16
    215c:	00002000 	andeq	r2, r0, r0
    2160:	a09c0100 	addsge	r0, ip, r0, lsl #2
    2164:	18000005 	stmdane	r0, {r0, r2}
    2168:	00000840 	andeq	r0, r0, r0, asr #16
    216c:	36242e01 	strtcc	r2, [r4], -r1, lsl #28
    2170:	52000005 	andpl	r0, r0, #5, 0
    2174:	4e00000d 	cdpmi	0, 0, cr0, cr0, cr13, {0}
    2178:	1300000d 	movwne	r0, #13
    217c:	006c6176 	rsbeq	r6, ip, r6, ror r1
    2180:	2c332e01 	ldccs	14, cr2, [r3], #-4
    2184:	74000000 	strvc	r0, [r0], #-0
    2188:	7000000d 	andvc	r0, r0, sp
    218c:	1400000d 	strne	r0, [r0], #-13
    2190:	00008c18 	andeq	r8, r0, r8, lsl ip
    2194:	000005ac 	andeq	r0, r0, ip, lsr #11
    2198:	0000058f 	andeq	r0, r0, pc, lsl #11
    219c:	02500112 	subseq	r0, r0, #-2147483644	; 0x80000004
    21a0:	11000074 	tstne	r0, r4, ror r0
    21a4:	00008c24 	andeq	r8, r0, r4, lsr #24
    21a8:	000005b8 			; <UNDEFINED> instruction: 0x000005b8
    21ac:	02500112 	subseq	r0, r0, #-2147483644	; 0x80000004
    21b0:	00000074 	andeq	r0, r0, r4, ror r0
    21b4:	0005b41a 	andeq	fp, r5, sl, lsl r4
    21b8:	0005b400 	andeq	fp, r5, r0, lsl #8
    21bc:	06a10300 	strteq	r0, [r1], r0, lsl #6
    21c0:	00081b1a 	andeq	r1, r8, sl, lsl fp
    21c4:	00081b00 	andeq	r1, r8, r0, lsl #22
    21c8:	0bc80300 	bleq	ff202dd0 <__bss_end__+0xff1f9188>
    21cc:	00060f1a 	andeq	r0, r6, sl, lsl pc
    21d0:	00060f00 	andeq	r0, r6, r0, lsl #30
    21d4:	06b30300 	ldrteq	r0, [r3], r0, lsl #6
    21d8:	0008091a 	andeq	r0, r8, sl, lsl r9
    21dc:	00080900 	andeq	r0, r8, r0, lsl #18
    21e0:	06190400 	ldreq	r0, [r9], -r0, lsl #8
    21e4:	0008e900 	andeq	lr, r8, r0, lsl #18
    21e8:	ab000400 	blge	31f0 <__code_start__-0x4e10>
    21ec:	0400000d 	streq	r0, [r0], #-13
    21f0:	00070f01 	andeq	r0, r7, r1, lsl #30
    21f4:	08c40c00 	stmiaeq	r4, {sl, fp}^
    21f8:	06bf0000 	ldrteq	r0, [pc], r0
    21fc:	8dd80000 	ldclhi	0, cr0, [r8]
    2200:	03b00000 	movseq	r0, #0, 0
    2204:	12690000 	rsbne	r0, r9, #0, 0
    2208:	04020000 	streq	r0, [r2], #-0
    220c:	746e6905 	strbtvc	r6, [lr], #-2309	; 0xfffff6fb
    2210:	07040300 	streq	r0, [r4, -r0, lsl #6]
    2214:	0000006c 	andeq	r0, r0, ip, rrx
    2218:	0a060103 	beq	18262c <__bss_end__+0x1789e4>
    221c:	03000000 	movweq	r0, #0
    2220:	00f00502 	rscseq	r0, r0, r2, lsl #10
    2224:	04030000 	streq	r0, [r3], #-0
    2228:	00007e05 	andeq	r7, r0, r5, lsl #28
    222c:	05080300 	streq	r0, [r8, #-768]	; 0xfffffd00
    2230:	00000079 	andeq	r0, r0, r9, ror r0
    2234:	08080103 	stmdaeq	r8, {r0, r1, r8}
    2238:	03000000 	movweq	r0, #0
    223c:	00230702 	eoreq	r0, r3, r2, lsl #14
    2240:	0c040000 	stceq	0, cr0, [r4], {-0}
    2244:	03000004 	movweq	r0, #4
    2248:	00691934 	rsbeq	r1, r9, r4, lsr r9
    224c:	04030000 	streq	r0, [r3], #-0
    2250:	00006707 	andeq	r6, r0, r7, lsl #14
    2254:	07080300 	streq	r0, [r8, -r0, lsl #6]
    2258:	00000062 	andeq	r0, r0, r2, rrx
    225c:	11080103 	tstne	r8, r3, lsl #2
    2260:	05000000 	streq	r0, [r0, #-0]
    2264:	00000077 	andeq	r0, r0, r7, ror r0
    2268:	e5040803 	str	r0, [r4, #-2051]	; 0xfffff7fd
    226c:	06000001 	streq	r0, [r0], -r1
    2270:	04070704 	streq	r0, [r7], #-1796	; 0xfffff8fc
    2274:	0000002c 	andeq	r0, r0, ip, lsr #32
    2278:	a4061f01 	strge	r1, [r6], #-3841	; 0xfffff0ff
    227c:	08000000 	stmdaeq	r0, {}	; <UNPREDICTABLE>
    2280:	0000084b 	andeq	r0, r0, fp, asr #16
    2284:	00200000 	eoreq	r0, r0, r0
    2288:	03fd0900 	mvnseq	r0, #0, 18
    228c:	22010000 	andcs	r0, r1, #0, 0
    2290:	0000770d 	andeq	r7, r0, sp, lsl #14
    2294:	08660a00 	stmdaeq	r6!, {r9, fp}^
    2298:	23010000 	movwcs	r0, #4096	; 0x1000
    229c:	0000c20e 	andeq	ip, r0, lr, lsl #4
    22a0:	28030500 	stmdacs	r3, {r8, sl}
    22a4:	0b000098 	bleq	250c <__code_start__-0x5af4>
    22a8:	00007704 	andeq	r7, r0, r4, lsl #14
    22ac:	08290a00 	stmdaeq	r9!, {r9, fp}
    22b0:	24010000 	strcs	r0, [r1], #-0
    22b4:	0000c20e 	andeq	ip, r0, lr, lsl #4
    22b8:	24030500 	strcs	r0, [r3], #-1280	; 0xfffffb00
    22bc:	0a000098 	beq	2524 <__code_start__-0x5adc>
    22c0:	000008a3 	andeq	r0, r0, r3, lsr #17
    22c4:	c20e2501 	andgt	r2, lr, #4194304	; 0x400000
    22c8:	05000000 	streq	r0, [r0, #-0]
    22cc:	00982003 	addseq	r2, r8, r3
    22d0:	08720c00 	ldmdaeq	r2!, {sl, fp}^
    22d4:	75010000 	strvc	r0, [r1, #-0]
    22d8:	00912806 	addseq	r2, r1, r6, lsl #16
    22dc:	00006000 	andeq	r6, r0, r0
    22e0:	649c0100 	ldrvs	r0, [ip], #256	; 0x100
    22e4:	0d000001 	stceq	0, cr0, [r0, #-4]
    22e8:	75010070 	strvc	r0, [r1, #-112]	; 0xffffff90
    22ec:	00008a16 	andeq	r8, r0, r6, lsl sl
    22f0:	000d9800 	andeq	r9, sp, r0, lsl #16
    22f4:	000d9200 	andeq	r9, sp, r0, lsl #4
    22f8:	003e0e00 	eorseq	r0, lr, r0, lsl #28
    22fc:	01740000 	cmneq	r4, r0
    2300:	03050000 	movweq	r0, #20480	; 0x5000
    2304:	00009810 	andeq	r9, r0, r0, lsl r8
    2308:	0091740f 	addseq	r7, r1, pc, lsl #8
    230c:	0008bc00 	andeq	fp, r8, r0, lsl #24
    2310:	00015a00 	andeq	r5, r1, r0, lsl #20
    2314:	50011000 	andpl	r1, r1, r0
    2318:	97880305 	strls	r0, [r8, r5, lsl #6]
    231c:	01100000 	tsteq	r0, r0
    2320:	20030551 	andcs	r0, r3, r1, asr r5
    2324:	10000096 	mulne	r0, r6, r0
    2328:	03055201 	movweq	r5, #20993	; 0x5201
    232c:	00009810 	andeq	r9, r0, r0, lsl r8
    2330:	02530110 	subseq	r0, r3, #4
    2334:	02107708 	andseq	r7, r0, #8, 14	; 0x200000
    2338:	f303007d 	vqadd.u8	q0, <illegal reg q1.5>, <illegal reg q14.5>
    233c:	11005001 	tstne	r0, r1
    2340:	00009178 	andeq	r9, r0, r8, ror r1
    2344:	000008c8 	andeq	r0, r0, r8, asr #17
    2348:	007e1200 	rsbseq	r1, lr, r0, lsl #4
    234c:	01740000 	cmneq	r4, r0
    2350:	2c130000 	ldccs	0, cr0, [r3], {-0}
    2354:	09000000 	stmdbeq	r0, {}	; <UNPREDICTABLE>
    2358:	01640500 	cmneq	r4, r0, lsl #10
    235c:	54140000 	ldrpl	r0, [r4], #-0
    2360:	01000008 	tsteq	r0, r8
    2364:	91140672 	tstls	r4, r2, ror r6
    2368:	00140000 	andseq	r0, r4, r0
    236c:	9c010000 	stcls	0, cr0, [r1], {-0}
    2370:	0008450c 	andeq	r4, r8, ip, lsl #10
    2374:	066f0100 	strbteq	r0, [pc], -r0, lsl #2
    2378:	00009110 	andeq	r9, r0, r0, lsl r1
    237c:	00000004 	andeq	r0, r0, r4
    2380:	01ae9c01 			; <UNDEFINED> instruction: 0x01ae9c01
    2384:	70150000 	andsvc	r0, r5, r0
    2388:	126f0100 	rsbne	r0, pc, #0
    238c:	0000008a 	andeq	r0, r0, sl, lsl #1
    2390:	16005001 	strne	r5, [r0], -r1
    2394:	0000091d 	andeq	r0, r0, sp, lsl r9
    2398:	8a075e01 	bhi	1d9ba4 <__bss_end__+0x1cff5c>
    239c:	f8000000 			; <UNDEFINED> instruction: 0xf8000000
    23a0:	1800008f 	stmdane	r0, {r0, r1, r2, r3, r7}
    23a4:	01000001 	tsteq	r0, r1
    23a8:	00042c9c 	muleq	r4, ip, ip
    23ac:	08381700 	ldmdaeq	r8!, {r8, r9, sl, ip}
    23b0:	5e010000 	cdppl	0, 0, cr0, cr1, cr0, {0}
    23b4:	00002c20 	andeq	r2, r0, r0, lsr #24
    23b8:	000dd900 	andeq	sp, sp, r0, lsl #18
    23bc:	000dc500 	andeq	ip, sp, r0, lsl #10
    23c0:	08831700 	stmeq	r3, {r8, r9, sl, ip}
    23c4:	5e010000 	cdppl	0, 0, cr0, cr1, cr0, {0}
    23c8:	00002c31 	andeq	r2, r0, r1, lsr ip
    23cc:	000e7200 	andeq	r7, lr, r0, lsl #4
    23d0:	000e5e00 	andeq	r5, lr, r0, lsl #28
    23d4:	003e0e00 	eorseq	r0, lr, r0, lsl #28
    23d8:	043c0000 	ldrteq	r0, [ip], #-0
    23dc:	03050000 	movweq	r0, #20480	; 0x5000
    23e0:	000097f8 	strdeq	r9, [r0], -r8
    23e4:	01006818 	tsteq	r0, r8, lsl r8
    23e8:	002c0e66 	eoreq	r0, ip, r6, ror #28
    23ec:	0f280000 	svceq	0x00280000
    23f0:	0f1c0000 	svceq	0x001c0000
    23f4:	54190000 	ldrpl	r0, [r9], #-0
    23f8:	08000008 	stmdaeq	r0, {r3}
    23fc:	04000090 	streq	r0, [r0], #-144	; 0xffffff70
    2400:	00009008 	andeq	r9, r0, r8
    2404:	00000004 	andeq	r0, r0, r4
    2408:	38056001 	stmdacc	r5, {r0, sp, lr}
    240c:	1a000002 	bne	241c <__code_start__-0x5be4>
    2410:	00000865 	andeq	r0, r0, r5, ror #16
    2414:	00000f7c 	andeq	r0, r0, ip, ror pc
    2418:	00000f7a 	andeq	r0, r0, sl, ror pc
    241c:	08961900 	ldmeq	r6, {r8, fp, ip}
    2420:	90140000 	andsls	r0, r4, r0
    2424:	14020000 	strne	r0, [r2], #-0
    2428:	08000090 	stmdaeq	r0, {r4, r7}
    242c:	01000000 	mrseq	r0, (UNDEF: 0)
    2430:	026c1161 	rsbeq	r1, ip, #1073741848	; 0x40000018
    2434:	b11a0000 	tstlt	sl, r0
    2438:	91000008 	tstls	r0, r8
    243c:	8f00000f 	svchi	0x0000000f
    2440:	1a00000f 	bne	2484 <__code_start__-0x5b7c>
    2444:	000008a7 	andeq	r0, r0, r7, lsr #17
    2448:	00000fa7 	andeq	r0, r0, r7, lsr #31
    244c:	00000fa5 	andeq	r0, r0, r5, lsr #31
    2450:	081f1b00 	ldmdaeq	pc, {r8, r9, fp, ip}	; <UNPREDICTABLE>
    2454:	90240000 	eorls	r0, r4, r0
    2458:	40010000 	andmi	r0, r1, r0
    245c:	01000000 	mrseq	r0, (UNDEF: 0)
    2460:	030a0967 	movweq	r0, #43367	; 0xa967
    2464:	3a1a0000 	bcc	68246c <__bss_end__+0x678824>
    2468:	c0000008 	andgt	r0, r0, r8
    246c:	ba00000f 	blt	24b0 <__code_start__-0x5b50>
    2470:	1a00000f 	bne	24b4 <__code_start__-0x5b4c>
    2474:	00000830 	andeq	r0, r0, r0, lsr r8
    2478:	00001007 	andeq	r1, r0, r7
    247c:	00000fff 	strdeq	r0, [r0], -pc	; <UNPREDICTABLE>
    2480:	0000401c 	andeq	r4, r0, ip, lsl r0
    2484:	08541900 	ldmdaeq	r4, {r8, fp, ip}^
    2488:	90240000 	eorls	r0, r4, r0
    248c:	24040000 	strcs	r0, [r4], #-0
    2490:	04000090 	streq	r0, [r0], #-144	; 0xffffff70
    2494:	01000000 	mrseq	r0, (UNDEF: 0)
    2498:	02c70511 	sbceq	r0, r7, #71303168	; 0x4400000
    249c:	651a0000 	ldrvs	r0, [sl, #-0]
    24a0:	45000008 	strmi	r0, [r0, #-8]
    24a4:	43000010 	movwmi	r0, #16
    24a8:	00000010 	andeq	r0, r0, r0, lsl r0
    24ac:	0090bc0f 	addseq	fp, r0, pc, lsl #24
    24b0:	0008bc00 	andeq	fp, r8, r0, lsl #24
    24b4:	0002ff00 	andeq	pc, r2, r0, lsl #30
    24b8:	50011000 	andpl	r1, r1, r0
    24bc:	94ac0305 	strtls	r0, [ip], #773	; 0x305
    24c0:	01100000 	tsteq	r0, r0
    24c4:	20030551 	andcs	r0, r3, r1, asr r5
    24c8:	10000096 	mulne	r0, r6, r0
    24cc:	03055201 	movweq	r5, #20993	; 0x5201
    24d0:	00009808 	andeq	r9, r0, r8, lsl #16
    24d4:	01530110 	cmpeq	r3, r0, lsl r1
    24d8:	7d021041 	stcvc	0, cr1, [r2, #-260]	; 0xfffffefc
    24dc:	34030500 	strcc	r0, [r3], #-1280	; 0xfffffb00
    24e0:	00000097 	muleq	r0, r7, r0
    24e4:	0090c011 	addseq	ip, r0, r1, lsl r0
    24e8:	0008c800 	andeq	ip, r8, r0, lsl #16
    24ec:	19000000 	stmdbne	r0, {}	; <UNPREDICTABLE>
    24f0:	00000870 	andeq	r0, r0, r0, ror r8
    24f4:	0000903c 	andeq	r9, r0, ip, lsr r0
    24f8:	00903c03 	addseq	r3, r0, r3, lsl #24
    24fc:	00000400 	andeq	r0, r0, r0, lsl #8
    2500:	05680100 	strbeq	r0, [r8, #-256]!	; 0xffffff00
    2504:	0000033e 	andeq	r0, r0, lr, lsr r3
    2508:	00088b1a 	andeq	r8, r8, sl, lsl fp
    250c:	00105a00 	andseq	r5, r0, r0, lsl #20
    2510:	00105800 	andseq	r5, r0, r0, lsl #16
    2514:	08811a00 	stmeq	r1, {r9, fp, ip}
    2518:	106f0000 	rsbne	r0, pc, r0
    251c:	106d0000 	rsbne	r0, sp, r0
    2520:	0f000000 	svceq	0x00000000
    2524:	00009054 	andeq	r9, r0, r4, asr r0
    2528:	00000441 	andeq	r0, r0, r1, asr #8
    252c:	00000353 	andeq	r0, r0, r3, asr r3
    2530:	03500110 	cmpeq	r0, #4
    2534:	005001f3 	ldrsheq	r0, [r0], #-19	; 0xffffffed
    2538:	0090780f 	addseq	r7, r0, pc, lsl #16
    253c:	0008bc00 	andeq	fp, r8, r0, lsl #24
    2540:	00038c00 	andeq	r8, r3, r0, lsl #24
    2544:	50011000 	andpl	r1, r1, r0
    2548:	94ac0305 	strtls	r0, [ip], #773	; 0x305
    254c:	01100000 	tsteq	r0, r0
    2550:	20030551 	andcs	r0, r3, r1, asr r5
    2554:	10000096 	mulne	r0, r6, r0
    2558:	03055201 	movweq	r5, #20993	; 0x5201
    255c:	000097f8 	strdeq	r9, [r0], -r8
    2560:	02530110 	subseq	r0, r3, #4
    2564:	02105f08 	andseq	r5, r0, #8, 30
    2568:	0305007d 	movweq	r0, #20605	; 0x507d
    256c:	00009630 	andeq	r9, r0, r0, lsr r6
    2570:	907c1100 	rsbsls	r1, ip, r0, lsl #2
    2574:	08c80000 	stmiaeq	r8, {}^	; <UNPREDICTABLE>
    2578:	80110000 	andshi	r0, r1, r0
    257c:	d4000090 	strle	r0, [r0], #-144	; 0xffffff70
    2580:	0f000008 	svceq	0x00000008
    2584:	0000909c 	muleq	r0, ip, r0
    2588:	000008bc 			; <UNDEFINED> instruction: 0x000008bc
    258c:	000003d7 	ldrdeq	r0, [r0], -r7
    2590:	05500110 	ldrbeq	r0, [r0, #-272]	; 0xfffffef0
    2594:	0096ec03 	addseq	lr, r6, r3, lsl #24
    2598:	51011000 	mrspl	r1, (UNDEF: 1)
    259c:	96200305 	strtls	r0, [r0], -r5, lsl #6
    25a0:	01100000 	tsteq	r0, r0
    25a4:	f8030552 			; <UNDEFINED> instruction: 0xf8030552
    25a8:	10000097 	mulne	r0, r7, r0
    25ac:	08025301 	stmdaeq	r2, {r0, r8, r9, ip, lr}
    25b0:	7d021060 	stcvc	0, cr1, [r2, #-384]	; 0xfffffe80
    25b4:	20030500 	andcs	r0, r3, r0, lsl #10
    25b8:	00000097 	muleq	r0, r7, r0
    25bc:	0090a011 	addseq	sl, r0, r1, lsl r0
    25c0:	0008c800 	andeq	ip, r8, r0, lsl #16
    25c4:	90c41100 	sbcls	r1, r4, r0, lsl #2
    25c8:	08d40000 	ldmeq	r4, {}^	; <UNPREDICTABLE>
    25cc:	e00f0000 	and	r0, pc, r0
    25d0:	bc000090 	stclt	0, cr0, [r0], {144}	; 0x90
    25d4:	22000008 	andcs	r0, r0, #8, 0
    25d8:	10000004 	andne	r0, r0, r4
    25dc:	03055001 	movweq	r5, #20481	; 0x5001
    25e0:	00009740 	andeq	r9, r0, r0, asr #14
    25e4:	05510110 	ldrbeq	r0, [r1, #-272]	; 0xfffffef0
    25e8:	00962003 	addseq	r2, r6, r3
    25ec:	52011000 	andpl	r1, r1, #0, 0
    25f0:	97f80305 	ldrbls	r0, [r8, r5, lsl #6]!
    25f4:	01100000 	tsteq	r0, r0
    25f8:	68080253 	stmdavs	r8, {r0, r1, r4, r6, r9}
    25fc:	007d0210 	rsbseq	r0, sp, r0, lsl r2
    2600:	976c0305 	strbls	r0, [ip, -r5, lsl #6]!
    2604:	11000000 	mrsne	r0, (UNDEF: 0)
    2608:	000090e4 	andeq	r9, r0, r4, ror #1
    260c:	000008c8 	andeq	r0, r0, r8, asr #17
    2610:	007e1200 	rsbseq	r1, lr, r0, lsl #4
    2614:	043c0000 	ldrteq	r0, [ip], #-0
    2618:	2c130000 	ldccs	0, cr0, [r3], {-0}
    261c:	0f000000 	svceq	0x00000000
    2620:	042c0500 	strteq	r0, [ip], #-1280	; 0xfffffb00
    2624:	18160000 	ldmdane	r6, {}	; <UNPREDICTABLE>
    2628:	01000002 	tsteq	r0, r2
    262c:	008a0753 	addeq	r0, sl, r3, asr r7
    2630:	8f940000 	svchi	0x00940000
    2634:	00640000 	rsbeq	r0, r4, r0
    2638:	9c010000 	stcls	0, cr0, [r1], {-0}
    263c:	00000508 	andeq	r0, r0, r8, lsl #10
    2640:	00083817 	andeq	r3, r8, r7, lsl r8
    2644:	18530100 	ldmdane	r3, {r8}^
    2648:	0000002c 	andeq	r0, r0, ip, lsr #32
    264c:	0000108a 	andeq	r1, r0, sl, lsl #1
    2650:	00001082 	andeq	r1, r0, r2, lsl #1
    2654:	00003e0e 	andeq	r3, r0, lr, lsl #28
    2658:	00051800 	andeq	r1, r5, r0, lsl #16
    265c:	f0030500 			; <UNDEFINED> instruction: 0xf0030500
    2660:	1d000097 	stcne	0, cr0, [r0, #-604]	; 0xfffffda4
    2664:	00000840 	andeq	r0, r0, r0, asr #16
    2668:	8a0b5501 	bhi	2d7a74 <__bss_end__+0x2cde2c>
    266c:	c2000000 	andgt	r0, r0, #0, 0
    2670:	be000010 	mcrlt	0, 0, r0, cr0, cr0, {0}
    2674:	0f000010 	svceq	0x00000010
    2678:	00008fac 	andeq	r8, r0, ip, lsr #31
    267c:	0000051d 	andeq	r0, r0, sp, lsl r5
    2680:	000004a6 	andeq	r0, r0, r6, lsr #9
    2684:	02500110 	subseq	r0, r0, #4
    2688:	0f000074 	svceq	0x00000074
    268c:	00008fbc 			; <UNDEFINED> instruction: 0x00008fbc
    2690:	000008e0 	andeq	r0, r0, r0, ror #17
    2694:	000004c5 	andeq	r0, r0, r5, asr #9
    2698:	02500110 	subseq	r0, r0, #4
    269c:	01100075 	tsteq	r0, r5, ror r0
    26a0:	10300151 	eorsne	r0, r0, r1, asr r1
    26a4:	74025201 	strvc	r5, [r2], #-513	; 0xfffffdff
    26a8:	e40f0000 	str	r0, [pc], #-0	; 26b0 <__code_start__-0x5950>
    26ac:	bc00008f 	stclt	0, cr0, [r0], {143}	; 0x8f
    26b0:	fe000008 	cdp2	0, 0, cr0, cr0, cr8, {0}
    26b4:	10000004 	andne	r0, r0, r4
    26b8:	03055001 	movweq	r5, #20481	; 0x5001
    26bc:	000094ac 	andeq	r9, r0, ip, lsr #9
    26c0:	05510110 	ldrbeq	r0, [r1, #-272]	; 0xfffffef0
    26c4:	00962003 	addseq	r2, r6, r3
    26c8:	52011000 	andpl	r1, r1, #0, 0
    26cc:	97f00305 	ldrbls	r0, [r0, r5, lsl #6]!
    26d0:	01100000 	tsteq	r0, r0
    26d4:	54080253 	strpl	r0, [r8], #-595	; 0xfffffdad
    26d8:	007d0210 	rsbseq	r0, sp, r0, lsl r2
    26dc:	96300305 	ldrtls	r0, [r0], -r5, lsl #6
    26e0:	11000000 	mrsne	r0, (UNDEF: 0)
    26e4:	00008fe8 	andeq	r8, r0, r8, ror #31
    26e8:	000008c8 	andeq	r0, r0, r8, asr #17
    26ec:	007e1200 	rsbseq	r1, lr, r0, lsl #4
    26f0:	05180000 	ldreq	r0, [r8, #-0]
    26f4:	2c130000 	ldccs	0, cr0, [r3], {-0}
    26f8:	07000000 	streq	r0, [r0, -r0]
    26fc:	05080500 	streq	r0, [r8, #-1280]	; 0xfffffb00
    2700:	ac160000 	ldcge	0, cr0, [r6], {-0}
    2704:	01000008 	tsteq	r0, r8
    2708:	008a0747 	addeq	r0, sl, r7, asr #14
    270c:	8efc0000 	cdphi	0, 15, cr0, cr12, cr0, {0}
    2710:	00980000 	addseq	r0, r8, r0
    2714:	9c010000 	stcls	0, cr0, [r1], {-0}
    2718:	0000062b 	andeq	r0, r0, fp, lsr #12
    271c:	00083817 	andeq	r3, r8, r7, lsl r8
    2720:	20470100 	subcs	r0, r7, r0, lsl #2
    2724:	0000002c 	andeq	r0, r0, ip, lsr #32
    2728:	000010f0 	strdeq	r1, [r0], -r0
    272c:	000010e0 	andeq	r1, r0, r0, ror #1
    2730:	00003e0e 	andeq	r3, r0, lr, lsl #28
    2734:	00043c00 	andeq	r3, r4, r0, lsl #24
    2738:	e0030500 	and	r0, r3, r0, lsl #10
    273c:	1d000097 	stcne	0, cr0, [r0, #-604]	; 0xfffffda4
    2740:	00000840 	andeq	r0, r0, r0, asr #16
    2744:	8a0b4b01 	bhi	2d5350 <__bss_end__+0x2cb708>
    2748:	64000000 	strvs	r0, [r0], #-0
    274c:	5e000011 	mcrpl	0, 0, r0, cr0, cr1, {0}
    2750:	1b000011 	blne	279c <__code_start__-0x5864>
    2754:	0000081f 	andeq	r0, r0, pc, lsl r8
    2758:	00008f0c 	andeq	r8, r0, ip, lsl #30
    275c:	00002803 	andeq	r2, r0, r3, lsl #16
    2760:	0e490100 	dvfeqe	f0, f1, f0
    2764:	000005a3 	andeq	r0, r0, r3, lsr #11
    2768:	00083a1a 	andeq	r3, r8, sl, lsl sl
    276c:	00119300 	andseq	r9, r1, r0, lsl #6
    2770:	00119100 	andseq	r9, r1, r0, lsl #2
    2774:	08301a00 	ldmdaeq	r0!, {r9, fp, ip}
    2778:	11ab0000 			; <UNDEFINED> instruction: 0x11ab0000
    277c:	11a70000 			; <UNDEFINED> instruction: 0x11a70000
    2780:	281e0000 	ldmdacs	lr, {}	; <UNPREDICTABLE>
    2784:	00000000 	andeq	r0, r0, r0
    2788:	008f540f 	addeq	r5, pc, pc, lsl #8
    278c:	0008bc00 	andeq	fp, r8, r0, lsl #24
    2790:	0005dc00 	andeq	sp, r5, r0, lsl #24
    2794:	50011000 	andpl	r1, r1, r0
    2798:	94ac0305 	strtls	r0, [ip], #773	; 0x305
    279c:	01100000 	tsteq	r0, r0
    27a0:	20030551 	andcs	r0, r3, r1, asr r5
    27a4:	10000096 	mulne	r0, r6, r0
    27a8:	03055201 	movweq	r5, #20993	; 0x5201
    27ac:	000097e0 	andeq	r9, r0, r0, ror #15
    27b0:	02530110 	subseq	r0, r3, #4
    27b4:	02104808 	andseq	r4, r0, #8, 16	; 0x80000
    27b8:	0305007d 	movweq	r0, #20605	; 0x507d
    27bc:	00009630 	andeq	r9, r0, r0, lsr r6
    27c0:	8f581100 	svchi	0x00581100
    27c4:	08c80000 	stmiaeq	r8, {}^	; <UNPREDICTABLE>
    27c8:	780f0000 	stmdavc	pc, {}	; <UNPREDICTABLE>
    27cc:	bc00008f 	stclt	0, cr0, [r0], {143}	; 0x8f
    27d0:	21000008 	tstcs	r0, r8
    27d4:	10000006 	andne	r0, r0, r6
    27d8:	03055001 	movweq	r5, #20481	; 0x5001
    27dc:	000096ac 	andeq	r9, r0, ip, lsr #13
    27e0:	05510110 	ldrbeq	r0, [r1, #-272]	; 0xfffffef0
    27e4:	00962003 	addseq	r2, r6, r3
    27e8:	52011000 	andpl	r1, r1, #0, 0
    27ec:	97e00305 	strbls	r0, [r0, r5, lsl #6]!
    27f0:	01100000 	tsteq	r0, r0
    27f4:	4e080253 	mcrmi	2, 0, r0, cr8, cr3, {2}
    27f8:	007d0210 	rsbseq	r0, sp, r0, lsl r2
    27fc:	5001f308 	andpl	pc, r1, r8, lsl #6
    2800:	f8090723 			; <UNDEFINED> instruction: 0xf8090723
    2804:	7c11001a 	ldcvc	0, cr0, [r1], {26}
    2808:	c800008f 	stmdagt	r0, {r0, r1, r2, r3, r7}
    280c:	00000008 	andeq	r0, r0, r8
    2810:	0008ce0c 	andeq	ip, r8, ip, lsl #28
    2814:	063c0100 	ldrteq	r0, [ip], -r0, lsl #2
    2818:	00008ea4 	andeq	r8, r0, r4, lsr #29
    281c:	00000058 	andeq	r0, r0, r8, asr r0
    2820:	06cf9c01 	strbeq	r9, [pc], r1, lsl #24
    2824:	6b0a0000 	blvs	28282c <__bss_end__+0x278be4>
    2828:	01000008 	tsteq	r0, r8
    282c:	0025103d 	eoreq	r1, r5, sp, lsr r0
    2830:	03050000 	movweq	r0, #20480	; 0x5000
    2834:	00009c40 	andeq	r9, r0, r0, asr #24
    2838:	00003e0e 	andeq	r3, r0, lr, lsl #28
    283c:	0006df00 	andeq	sp, r6, r0, lsl #30
    2840:	d0030500 	andle	r0, r3, r0, lsl #10
    2844:	07000097 			; <UNDEFINED> instruction: 0x07000097
    2848:	002c0407 	eoreq	r0, ip, r7, lsl #8
    284c:	42010000 	andmi	r0, r1, #0, 0
    2850:	00067a0a 	andeq	r7, r6, sl, lsl #20
    2854:	08950800 	ldmeq	r5, {fp}
    2858:	00000000 	andeq	r0, r0, r0
    285c:	0f000010 	svceq	0x00000010
    2860:	00008ed0 	ldrdeq	r8, [r0], -r0
    2864:	000006e4 	andeq	r0, r0, r4, ror #13
    2868:	00000696 	muleq	r0, r6, r6
    286c:	03500110 	cmpeq	r0, #4
    2870:	10244040 	eorne	r4, r4, r0, asr #32
    2874:	40035101 	andmi	r5, r3, r1, lsl #2
    2878:	0f002448 	svceq	0x00002448
    287c:	00008ee8 	andeq	r8, r0, r8, ror #29
    2880:	000008bc 			; <UNDEFINED> instruction: 0x000008bc
    2884:	000006c5 	andeq	r0, r0, r5, asr #13
    2888:	05500110 	ldrbeq	r0, [r0, #-272]	; 0xfffffef0
    288c:	00967c03 	addseq	r7, r6, r3, lsl #24
    2890:	51011000 	mrspl	r1, (UNDEF: 1)
    2894:	96200305 	strtls	r0, [r0], -r5, lsl #6
    2898:	01100000 	tsteq	r0, r0
    289c:	d0030552 	andle	r0, r3, r2, asr r5
    28a0:	10000097 	mulne	r0, r7, r0
    28a4:	08025301 	stmdaeq	r2, {r0, r8, r9, ip, lr}
    28a8:	ec110040 	ldc	0, cr0, [r1], {64}	; 0x40
    28ac:	c800008e 	stmdagt	r0, {r1, r2, r3, r7}
    28b0:	00000008 	andeq	r0, r0, r8
    28b4:	00007e12 	andeq	r7, r0, r2, lsl lr
    28b8:	0006df00 	andeq	sp, r6, r0, lsl #30
    28bc:	002c1300 	eoreq	r1, ip, r0, lsl #6
    28c0:	000c0000 	andeq	r0, ip, r0
    28c4:	0006cf05 	andeq	ip, r6, r5, lsl #30
    28c8:	08f70c00 	ldmeq	r7!, {sl, fp}^
    28cc:	2d010000 	stccs	0, cr0, [r1, #-0]
    28d0:	008e0806 	addeq	r0, lr, r6, lsl #16
    28d4:	00009c00 	andeq	r9, r0, r0, lsl #24
    28d8:	c89c0100 	ldmgt	ip, {r8}
    28dc:	17000007 	strne	r0, [r0, -r7]
    28e0:	0000083f 	andeq	r0, r0, pc, lsr r8
    28e4:	2c262d01 	stccs	13, cr2, [r6], #-4
    28e8:	d9000000 	stmdble	r0, {}	; <UNPREDICTABLE>
    28ec:	cb000011 	blgt	2938 <__code_start__-0x56c8>
    28f0:	17000011 	smladne	r0, r1, r0, r0
    28f4:	00000834 	andeq	r0, r0, r4, lsr r8
    28f8:	2c362d01 	ldccs	13, cr2, [r6], #-4
    28fc:	41000000 	mrsmi	r0, (UNDEF: 0)
    2900:	39000012 	stmdbcc	r0, {r1, r4}
    2904:	1d000012 	stcne	0, cr0, [r0, #-72]	; 0xffffffb8
    2908:	00000840 	andeq	r0, r0, r0, asr #16
    290c:	c20b2e01 	andgt	r2, fp, #1, 28
    2910:	89000000 	stmdbhi	r0, {}	; <UNPREDICTABLE>
    2914:	7b000012 	blvc	2964 <__code_start__-0x569c>
    2918:	0e000012 	mcreq	0, 0, r0, cr0, cr2, {0}
    291c:	0000003e 	andeq	r0, r0, lr, lsr r0
    2920:	000007d8 	ldrdeq	r0, [r0], -r8
    2924:	97b80305 	ldrls	r0, [r8, r5, lsl #6]!
    2928:	600f0000 	andvs	r0, pc, r0
    292c:	bc00008e 	stclt	0, cr0, [r0], {142}	; 0x8e
    2930:	7e000008 	cdpvc	0, 0, cr0, cr0, cr8, {0}
    2934:	10000007 	andne	r0, r0, r7
    2938:	03055001 	movweq	r5, #20481	; 0x5001
    293c:	000094ac 	andeq	r9, r0, ip, lsr #9
    2940:	05510110 	ldrbeq	r0, [r1, #-272]	; 0xfffffef0
    2944:	00962003 	addseq	r2, r6, r3
    2948:	52011000 	andpl	r1, r1, #0, 0
    294c:	97b80305 	ldrls	r0, [r8, r5, lsl #6]!
    2950:	01100000 	tsteq	r0, r0
    2954:	30080253 	andcc	r0, r8, r3, asr r2
    2958:	007d0210 	rsbseq	r0, sp, r0, lsl r2
    295c:	962c0305 	strtls	r0, [ip], -r5, lsl #6
    2960:	11000000 	mrsne	r0, (UNDEF: 0)
    2964:	00008e64 	andeq	r8, r0, r4, ror #28
    2968:	000008c8 	andeq	r0, r0, r8, asr #17
    296c:	008e880f 	addeq	r8, lr, pc, lsl #16
    2970:	0008bc00 	andeq	fp, r8, r0, lsl #24
    2974:	0007be00 	andeq	fp, r7, r0, lsl #28
    2978:	50011000 	andpl	r1, r1, r0
    297c:	96380305 	ldrtls	r0, [r8], -r5, lsl #6
    2980:	01100000 	tsteq	r0, r0
    2984:	20030551 	andcs	r0, r3, r1, asr r5
    2988:	10000096 	mulne	r0, r6, r0
    298c:	03055201 	movweq	r5, #20993	; 0x5201
    2990:	000097b8 			; <UNDEFINED> instruction: 0x000097b8
    2994:	02530110 	subseq	r0, r3, #4
    2998:	02103408 	andseq	r3, r0, #8, 8	; 0x8000000
    299c:	f303007d 	vqadd.u8	q0, <illegal reg q1.5>, <illegal reg q14.5>
    29a0:	11005001 	tstne	r0, r1
    29a4:	00008e8c 	andeq	r8, r0, ip, lsl #29
    29a8:	000008c8 	andeq	r0, r0, r8, asr #17
    29ac:	007e1200 	rsbseq	r1, lr, r0, lsl #4
    29b0:	07d80000 	ldrbeq	r0, [r8, r0]
    29b4:	2c130000 	ldccs	0, cr0, [r3], {-0}
    29b8:	16000000 	strne	r0, [r0], -r0
    29bc:	07c80500 	strbeq	r0, [r8, r0, lsl #10]
    29c0:	e61f0000 	ldr	r0, [pc], -r0
    29c4:	01000008 	tsteq	r0, r8
    29c8:	008a072a 	addeq	r0, sl, sl, lsr #14
    29cc:	8df80000 	ldclhi	0, cr0, [r8]
    29d0:	00100000 	andseq	r0, r0, r0
    29d4:	9c010000 	stcls	0, cr0, [r1], {-0}
    29d8:	0008211f 	andeq	r2, r8, pc, lsl r1
    29dc:	07290100 	streq	r0, [r9, -r0, lsl #2]!
    29e0:	0000008a 	andeq	r0, r0, sl, lsl #1
    29e4:	00008de8 	andeq	r8, r0, r8, ror #27
    29e8:	00000010 	andeq	r0, r0, r0, lsl r0
    29ec:	9b1f9c01 	blls	7e99f8 <__bss_end__+0x7dfdb0>
    29f0:	01000008 	tsteq	r0, r8
    29f4:	008a0728 	addeq	r0, sl, r8, lsr #14
    29f8:	8dd80000 	ldclhi	0, cr0, [r8]
    29fc:	00100000 	andseq	r0, r0, r0
    2a00:	9c010000 	stcls	0, cr0, [r1], {-0}
    2a04:	00085e20 	andeq	r5, r8, r0, lsr #28
    2a08:	18100100 	ldmdane	r0, {r8}
    2a0c:	0000002c 	andeq	r0, r0, ip, lsr #32
    2a10:	00085403 	andeq	r5, r8, r3, lsl #8
    2a14:	00782100 	rsbseq	r2, r8, r0, lsl #2
    2a18:	2c291001 	stccs	0, cr1, [r9], #-4
    2a1c:	21000000 	mrscs	r0, (UNDEF: 0)
    2a20:	1001006e 	andne	r0, r1, lr, rrx
    2a24:	00002c35 	andeq	r2, r0, r5, lsr ip
    2a28:	003e0e00 	eorseq	r0, lr, r0, lsl #28
    2a2c:	05180000 	ldreq	r0, [r8, #-0]
    2a30:	03050000 	movweq	r0, #20480	; 0x5000
    2a34:	00009808 	andeq	r9, r0, r8, lsl #16
    2a38:	08bc2000 	ldmeq	ip!, {sp}
    2a3c:	0d010000 	stceq	0, cr0, [r1, #-0]
    2a40:	00002c18 	andeq	r2, r0, r8, lsl ip
    2a44:	08700300 	ldmdaeq	r0!, {r8, r9}^
    2a48:	78210000 	stmdavc	r1!, {}	; <UNPREDICTABLE>
    2a4c:	290d0100 	stmdbcs	sp, {r8}
    2a50:	0000002c 	andeq	r0, r0, ip, lsr #32
    2a54:	08db2000 	ldmeq	fp, {sp}^
    2a58:	07010000 	streq	r0, [r1, -r0]
    2a5c:	00002c18 	andeq	r2, r0, r8, lsl ip
    2a60:	08960300 	ldmeq	r6, {r8, r9}
    2a64:	78210000 	stmdavc	r1!, {}	; <UNPREDICTABLE>
    2a68:	2c070100 	stfcss	f0, [r7], {-0}
    2a6c:	0000002c 	andeq	r0, r0, ip, lsr #32
    2a70:	01006e21 	tsteq	r0, r1, lsr #28
    2a74:	002c3807 	eoreq	r3, ip, r7, lsl #16
    2a78:	20000000 	andcs	r0, r0, r0
    2a7c:	0000088d 	andeq	r0, r0, sp, lsl #17
    2a80:	5d180401 	cfldrspl	mvf0, [r8, #-4]
    2a84:	03000000 	movweq	r0, #0
    2a88:	000008bc 			; <UNDEFINED> instruction: 0x000008bc
    2a8c:	01007821 	tsteq	r0, r1, lsr #16
    2a90:	005d2904 	subseq	r2, sp, r4, lsl #18
    2a94:	79210000 	stmdbvc	r1!, {}	; <UNPREDICTABLE>
    2a98:	35040100 	strcc	r0, [r4, #-256]	; 0xffffff00
    2a9c:	0000005d 	andeq	r0, r0, sp, asr r0
    2aa0:	02fc2200 	rscseq	r2, ip, #0, 4
    2aa4:	02fc0000 	rscseq	r0, ip, #0, 0
    2aa8:	28020000 	stmdacs	r2, {}	; <UNPREDICTABLE>
    2aac:	00162206 	andseq	r2, r6, r6, lsl #4
    2ab0:	00160000 	andseq	r0, r6, r0
    2ab4:	6e020000 	cdpvs	0, 0, cr0, cr2, cr0, {0}
    2ab8:	090e2206 	stmdbeq	lr, {r1, r2, r9, sp}
    2abc:	090e0000 	stmdbeq	lr, {}	; <UNPREDICTABLE>
    2ac0:	1d020000 	stcne	0, cr0, [r2, #-0]
    2ac4:	087c2206 	ldmdaeq	ip!, {r1, r2, r9, sp}^
    2ac8:	087c0000 	ldmdaeq	ip!, {}^	; <UNPREDICTABLE>
    2acc:	f7020000 			; <UNDEFINED> instruction: 0xf7020000
    2ad0:	013a0007 	teqeq	sl, r7
    2ad4:	00040000 	andeq	r0, r4, r0
    2ad8:	00000fce 	andeq	r0, r0, lr, asr #31
    2adc:	022a0104 	eoreq	r0, sl, #1
    2ae0:	340c0000 	strcc	r0, [ip], #-0
    2ae4:	31000009 	tstcc	r0, r9
    2ae8:	88000003 	stmdahi	r0, {r0, r1}
    2aec:	18000091 	stmdane	r0, {r0, r4, r7}
    2af0:	00000000 	andeq	r0, r0, r0
    2af4:	02000016 	andeq	r0, r0, #22, 0
    2af8:	6e690504 	cdpvs	5, 6, cr0, cr9, cr4, {0}
    2afc:	2d030074 	stccs	0, cr0, [r3, #-464]	; 0xfffffe30
    2b00:	03000009 	movweq	r0, #9
    2b04:	003817d1 	ldrsbteq	r1, [r8], -r1
    2b08:	04040000 	streq	r0, [r4], #-0
    2b0c:	00006c07 	andeq	r6, r0, r7, lsl #24
    2b10:	06010400 	streq	r0, [r1], -r0, lsl #8
    2b14:	0000000a 	andeq	r0, r0, sl
    2b18:	f0050204 			; <UNDEFINED> instruction: 0xf0050204
    2b1c:	04000000 	streq	r0, [r0], #-0
    2b20:	007e0504 	rsbseq	r0, lr, r4, lsl #10
    2b24:	08040000 	stmdaeq	r4, {}	; <UNPREDICTABLE>
    2b28:	00007905 	andeq	r7, r0, r5, lsl #18
    2b2c:	08010400 	stmdaeq	r1, {sl}
    2b30:	00000008 	andeq	r0, r0, r8
    2b34:	23070204 	movwcs	r0, #29188	; 0x7204
    2b38:	04000000 	streq	r0, [r0], #-0
    2b3c:	00670704 	rsbeq	r0, r7, r4, lsl #14
    2b40:	08040000 	stmdaeq	r4, {}	; <UNPREDICTABLE>
    2b44:	00006207 	andeq	r6, r0, r7, lsl #4
    2b48:	00250500 	eoreq	r0, r5, r0, lsl #10
    2b4c:	00860000 	addeq	r0, r6, r0
    2b50:	25060000 	strcs	r0, [r6, #-0]
    2b54:	00000000 	andeq	r0, r0, r0
    2b58:	00008707 	andeq	r8, r0, r7, lsl #14
    2b5c:	0e1c0200 	cdpeq	2, 1, cr0, cr12, cr0, {0}
    2b60:	00000092 	muleq	r0, r2, r0
    2b64:	00770408 	rsbseq	r0, r7, r8, lsl #8
    2b68:	25050000 	strcs	r0, [r5, #-0]
    2b6c:	a7000000 	strge	r0, [r0, -r0]
    2b70:	06000000 	streq	r0, [r0], -r0
    2b74:	000000a7 	andeq	r0, r0, r7, lsr #1
    2b78:	b4040800 	strlt	r0, [r4], #-2048	; 0xfffff800
    2b7c:	04000000 	streq	r0, [r0], #-0
    2b80:	00110801 	andseq	r0, r1, r1, lsl #16
    2b84:	ad090000 	stcge	0, cr0, [r9, #-0]
    2b88:	07000000 	streq	r0, [r0, -r0]
    2b8c:	00000382 	andeq	r0, r0, r2, lsl #7
    2b90:	c50e2102 	strgt	r2, [lr, #-258]	; 0xfffffefe
    2b94:	08000000 	stmdaeq	r0, {}	; <UNPREDICTABLE>
    2b98:	00009804 	andeq	r9, r0, r4, lsl #16
    2b9c:	087c0a00 	ldmdaeq	ip!, {r9, fp}^
    2ba0:	04010000 	streq	r0, [r1], #-0
    2ba4:	00013507 	andeq	r3, r1, r7, lsl #10
    2ba8:	00918800 	addseq	r8, r1, r0, lsl #16
    2bac:	00001800 	andeq	r1, r0, r0, lsl #16
    2bb0:	359c0100 	ldrcc	r0, [ip, #256]	; 0x100
    2bb4:	0b000001 	bleq	2bc0 <__code_start__-0x5440>
    2bb8:	0100705f 	qaddeq	r7, pc, r0	; <UNPREDICTABLE>
    2bbc:	01351404 	teqeq	r5, r4, lsl #8
    2bc0:	50010000 	andpl	r0, r1, r0
    2bc4:	0100630b 	tsteq	r0, fp, lsl #6
    2bc8:	00251c04 	eoreq	r1, r5, r4, lsl #24
    2bcc:	51010000 	mrspl	r0, (UNDEF: 1)
    2bd0:	01006e0c 	tsteq	r0, ip, lsl #28
    2bd4:	002c2604 	eoreq	r2, ip, r4, lsl #12
    2bd8:	12ed0000 	rscne	r0, sp, #0, 0
    2bdc:	12e90000 	rscne	r0, r9, #0, 0
    2be0:	700d0000 	andvc	r0, sp, r0
    2be4:	0b050100 	bleq	142fec <__bss_end__+0x1393a4>
    2be8:	00000137 	andeq	r0, r0, r7, lsr r1
    2bec:	00001316 	andeq	r1, r0, r6, lsl r3
    2bf0:	0000130e 	andeq	r1, r0, lr, lsl #6
    2bf4:	0100650d 	tsteq	r0, sp, lsl #10
    2bf8:	01371405 	teqeq	r7, r5, lsl #8
    2bfc:	134e0000 	movtne	r0, #57344	; 0xe000
    2c00:	134c0000 	movtne	r0, #49152	; 0xc000
    2c04:	0e000000 	cdpeq	0, 0, cr0, cr0, cr0, {0}
    2c08:	ad040804 	stcge	8, cr0, [r4, #-16]
    2c0c:	00000000 	andeq	r0, r0, r0
    2c10:	00000149 	andeq	r0, r0, r9, asr #2
    2c14:	109a0004 	addsne	r0, sl, r4
    2c18:	01040000 	mrseq	r0, (UNDEF: 4)
    2c1c:	0000022a 	andeq	r0, r0, sl, lsr #4
    2c20:	0009620c 	andeq	r6, r9, ip, lsl #4
    2c24:	00033100 	andeq	r3, r3, r0, lsl #2
    2c28:	0091a000 	addseq	sl, r1, r0
    2c2c:	00003c00 	andeq	r3, r0, r0, lsl #24
    2c30:	00171800 	andseq	r1, r7, r0, lsl #16
    2c34:	05040200 	streq	r0, [r4, #-512]	; 0xfffffe00
    2c38:	00746e69 	rsbseq	r6, r4, r9, ror #28
    2c3c:	6c070403 	cfstrsvs	mvf0, [r7], {3}
    2c40:	03000000 	movweq	r0, #0
    2c44:	000a0601 	andeq	r0, sl, r1, lsl #12
    2c48:	02030000 	andeq	r0, r3, #0, 0
    2c4c:	0000f005 	andeq	pc, r0, r5
    2c50:	05040300 	streq	r0, [r4, #-768]	; 0xfffffd00
    2c54:	0000007e 	andeq	r0, r0, lr, ror r0
    2c58:	79050803 	stmdbvc	r5, {r0, r1, fp}
    2c5c:	03000000 	movweq	r0, #0
    2c60:	00080801 	andeq	r0, r8, r1, lsl #16
    2c64:	02030000 	andeq	r0, r3, #0, 0
    2c68:	00002307 	andeq	r2, r0, r7, lsl #6
    2c6c:	07040300 	streq	r0, [r4, -r0, lsl #6]
    2c70:	00000067 	andeq	r0, r0, r7, rrx
    2c74:	62070803 	andvs	r0, r7, #196608	; 0x30000
    2c78:	04000000 	streq	r0, [r0], #-0
    2c7c:	00000025 	andeq	r0, r0, r5, lsr #32
    2c80:	0000007a 	andeq	r0, r0, sl, ror r0
    2c84:	00002505 	andeq	r2, r0, r5, lsl #10
    2c88:	87060000 	strhi	r0, [r6, -r0]
    2c8c:	02000000 	andeq	r0, r0, #0, 0
    2c90:	00860e1c 	addeq	r0, r6, ip, lsl lr
    2c94:	04070000 	streq	r0, [r7], #-0
    2c98:	0000006b 	andeq	r0, r0, fp, rrx
    2c9c:	00002504 	andeq	r2, r0, r4, lsl #10
    2ca0:	00009b00 	andeq	r9, r0, r0, lsl #22
    2ca4:	009b0500 	addseq	r0, fp, r0, lsl #10
    2ca8:	07000000 	streq	r0, [r0, -r0]
    2cac:	0000a804 	andeq	sl, r0, r4, lsl #16
    2cb0:	08010300 	stmdaeq	r1, {r8, r9}
    2cb4:	00000011 	andeq	r0, r0, r1, lsl r0
    2cb8:	0000a108 	andeq	sl, r0, r8, lsl #2
    2cbc:	03820600 	orreq	r0, r2, #0, 12
    2cc0:	21020000 	mrscs	r0, (UNDEF: 2)
    2cc4:	0000b90e 	andeq	fp, r0, lr, lsl #18
    2cc8:	8c040700 	stchi	7, cr0, [r4], {-0}
    2ccc:	09000000 	stmdbeq	r0, {}	; <UNPREDICTABLE>
    2cd0:	0000007a 	andeq	r0, r0, sl, ror r0
    2cd4:	05070601 	streq	r0, [r7, #-1537]	; 0xfffff9ff
    2cd8:	00982c03 	addseq	r2, r8, r3, lsl #24
    2cdc:	09550a00 	ldmdbeq	r5, {r9, fp}^
    2ce0:	0b010000 	bleq	42ce8 <__bss_end__+0x390a0>
    2ce4:	0091cc06 	addseq	ip, r1, r6, lsl #24
    2ce8:	00001000 	andeq	r1, r0, r0
    2cec:	f19c0100 			; <UNDEFINED> instruction: 0xf19c0100
    2cf0:	0b000000 	bleq	2cf8 <__code_start__-0x5308>
    2cf4:	01007066 	tsteq	r0, r6, rrx
    2cf8:	0086190b 	addeq	r1, r6, fp, lsl #18
    2cfc:	50010000 	andpl	r0, r1, r0
    2d00:	090e0c00 	stmdbeq	lr, {sl, fp}
    2d04:	08010000 	stmdaeq	r1, {}	; <UNPREDICTABLE>
    2d08:	0091b406 	addseq	fp, r1, r6, lsl #8
    2d0c:	00001800 	andeq	r1, r0, r0, lsl #16
    2d10:	0d9c0100 	ldfeqs	f0, [ip]
    2d14:	00000944 	andeq	r0, r0, r4, asr #18
    2d18:	250c0301 	strcs	r0, [ip, #-769]	; 0xfffffcff
    2d1c:	a0000000 	andge	r0, r0, r0
    2d20:	14000091 	strne	r0, [r0], #-145	; 0xffffff6f
    2d24:	01000000 	mrseq	r0, (UNDEF: 0)
    2d28:	0001409c 	muleq	r1, ip, r0
    2d2c:	00630e00 	rsbeq	r0, r3, r0, lsl #28
    2d30:	25210301 	strcs	r0, [r1, #-769]!	; 0xfffffcff
    2d34:	65000000 	strvs	r0, [r0, #-0]
    2d38:	61000013 	tstvs	r0, r3, lsl r0
    2d3c:	0f000013 	svceq	0x00000013
    2d40:	000091ac 	andeq	r9, r0, ip, lsr #3
    2d44:	00000140 	andeq	r0, r0, r0, asr #2
    2d48:	02500110 	subseq	r0, r0, #4
    2d4c:	00000074 	andeq	r0, r0, r4, ror r0
    2d50:	0007ef11 	andeq	lr, r7, r1, lsl pc
    2d54:	0007ef00 	andeq	lr, r7, r0, lsl #30
    2d58:	06420200 	strbeq	r0, [r2], -r0, lsl #4
    2d5c:	00013700 	andeq	r3, r1, r0, lsl #14
    2d60:	a9000400 	stmdbge	r0, {sl}
    2d64:	04000011 	streq	r0, [r0], #-17	; 0xffffffef
    2d68:	00022a01 	andeq	r2, r2, r1, lsl #20
    2d6c:	09780c00 	ldmdbeq	r8!, {sl, fp}^
    2d70:	03310000 	teqeq	r1, #0, 0
    2d74:	91dc0000 	bicsls	r0, ip, r0
    2d78:	00340000 	eorseq	r0, r4, r0
    2d7c:	17da0000 	ldrbne	r0, [sl, r0]
    2d80:	04020000 	streq	r0, [r2], #-0
    2d84:	746e6905 	strbtvc	r6, [lr], #-2309	; 0xfffff6fb
    2d88:	07040300 	streq	r0, [r4, -r0, lsl #6]
    2d8c:	0000006c 	andeq	r0, r0, ip, rrx
    2d90:	0a060103 	beq	1831a4 <__bss_end__+0x17955c>
    2d94:	03000000 	movweq	r0, #0
    2d98:	00f00502 	rscseq	r0, r0, r2, lsl #10
    2d9c:	04030000 	streq	r0, [r3], #-0
    2da0:	00007e05 	andeq	r7, r0, r5, lsl #28
    2da4:	05080300 	streq	r0, [r8, #-768]	; 0xfffffd00
    2da8:	00000079 	andeq	r0, r0, r9, ror r0
    2dac:	08080103 	stmdaeq	r8, {r0, r1, r8}
    2db0:	03000000 	movweq	r0, #0
    2db4:	00230702 	eoreq	r0, r3, r2, lsl #14
    2db8:	04030000 	streq	r0, [r3], #-0
    2dbc:	00006707 	andeq	r6, r0, r7, lsl #14
    2dc0:	07080300 	streq	r0, [r8, -r0, lsl #6]
    2dc4:	00000062 	andeq	r0, r0, r2, rrx
    2dc8:	00002504 	andeq	r2, r0, r4, lsl #10
    2dcc:	00007a00 	andeq	r7, r0, r0, lsl #20
    2dd0:	00250500 	eoreq	r0, r5, r0, lsl #10
    2dd4:	06000000 	streq	r0, [r0], -r0
    2dd8:	00000087 	andeq	r0, r0, r7, lsl #1
    2ddc:	860e1c02 	strhi	r1, [lr], -r2, lsl #24
    2de0:	07000000 	streq	r0, [r0, -r0]
    2de4:	00006b04 	andeq	r6, r0, r4, lsl #22
    2de8:	00250400 	eoreq	r0, r5, r0, lsl #8
    2dec:	009b0000 	addseq	r0, fp, r0
    2df0:	9b050000 	blls	142df8 <__bss_end__+0x1391b0>
    2df4:	00000000 	andeq	r0, r0, r0
    2df8:	00a80407 	adceq	r0, r8, r7, lsl #8
    2dfc:	01030000 	mrseq	r0, (UNDEF: 3)
    2e00:	00001108 	andeq	r1, r0, r8, lsl #2
    2e04:	00a10800 	adceq	r0, r1, r0, lsl #16
    2e08:	82060000 	andhi	r0, r6, #0, 0
    2e0c:	02000003 	andeq	r0, r0, #3, 0
    2e10:	00b90e21 	adcseq	r0, r9, r1, lsr #28
    2e14:	04070000 	streq	r0, [r7], #-0
    2e18:	0000008c 	andeq	r0, r0, ip, lsl #1
    2e1c:	00045d09 	andeq	r5, r4, r9, lsl #26
    2e20:	07040100 	streq	r0, [r4, -r0, lsl #2]
    2e24:	00000134 	andeq	r0, r0, r4, lsr r1
    2e28:	000091dc 	ldrdeq	r9, [r0], -ip
    2e2c:	00000034 	andeq	r0, r0, r4, lsr r0
    2e30:	01349c01 	teqeq	r4, r1, lsl #24
    2e34:	730a0000 	movwvc	r0, #40960	; 0xa000
    2e38:	01000009 	tsteq	r0, r9
    2e3c:	01341504 	teqeq	r4, r4, lsl #10
    2e40:	50010000 	andpl	r0, r1, r0
    2e44:	6372730b 	cmnvs	r2, #738197504	; 0x2c000000
    2e48:	27040100 	strcs	r0, [r4, -r0, lsl #2]
    2e4c:	0000009b 	muleq	r0, fp, r0
    2e50:	00001387 	andeq	r1, r0, r7, lsl #7
    2e54:	00001383 	andeq	r1, r0, r3, lsl #7
    2e58:	0031730c 	eorseq	r7, r1, ip, lsl #6
    2e5c:	340b0501 	strcc	r0, [fp], #-1281	; 0xfffffaff
    2e60:	b2000001 	andlt	r0, r0, #1, 0
    2e64:	a8000013 	stmdage	r0, {r0, r1, r4}
    2e68:	0c000013 	stceq	0, cr0, [r0], {19}
    2e6c:	01003273 	tsteq	r0, r3, ror r2
    2e70:	009b1106 	addseq	r1, fp, r6, lsl #2
    2e74:	13f70000 	mvnsne	r0, #0, 0
    2e78:	13f30000 	mvnsne	r0, #0, 0
    2e7c:	630c0000 	movwvs	r0, #49152	; 0xc000
    2e80:	0a070100 	beq	1c3288 <__bss_end__+0x1b9640>
    2e84:	000000a1 	andeq	r0, r0, r1, lsr #1
    2e88:	0000141b 	andeq	r1, r0, fp, lsl r4
    2e8c:	00001417 	andeq	r1, r0, r7, lsl r4
    2e90:	a1040700 	tstge	r4, r0, lsl #14
    2e94:	00000000 	andeq	r0, r0, r0
    2e98:	000000f7 	strdeq	r0, [r0], -r7
    2e9c:	125f0004 	subsne	r0, pc, #4, 0
    2ea0:	01040000 	mrseq	r0, (UNDEF: 4)
    2ea4:	0000022a 	andeq	r0, r0, sl, lsr #4
    2ea8:	0009880c 	andeq	r8, r9, ip, lsl #16
    2eac:	00033100 	andeq	r3, r3, r0, lsl #2
    2eb0:	00921000 	addseq	r1, r2, r0
    2eb4:	00002c00 	andeq	r2, r0, r0, lsl #24
    2eb8:	0018e800 	andseq	lr, r8, r0, lsl #16
    2ebc:	05040200 	streq	r0, [r4, #-512]	; 0xfffffe00
    2ec0:	00746e69 	rsbseq	r6, r4, r9, ror #28
    2ec4:	6c070403 	cfstrsvs	mvf0, [r7], {3}
    2ec8:	03000000 	movweq	r0, #0
    2ecc:	000a0601 	andeq	r0, sl, r1, lsl #12
    2ed0:	02030000 	andeq	r0, r3, #0, 0
    2ed4:	0000f005 	andeq	pc, r0, r5
    2ed8:	05040300 	streq	r0, [r4, #-768]	; 0xfffffd00
    2edc:	0000007e 	andeq	r0, r0, lr, ror r0
    2ee0:	79050803 	stmdbvc	r5, {r0, r1, fp}
    2ee4:	03000000 	movweq	r0, #0
    2ee8:	00080801 	andeq	r0, r8, r1, lsl #16
    2eec:	02030000 	andeq	r0, r3, #0, 0
    2ef0:	00002307 	andeq	r2, r0, r7, lsl #6
    2ef4:	07040300 	streq	r0, [r4, -r0, lsl #6]
    2ef8:	00000067 	andeq	r0, r0, r7, rrx
    2efc:	62070803 	andvs	r0, r7, #196608	; 0x30000
    2f00:	04000000 	streq	r0, [r0], #-0
    2f04:	00000025 	andeq	r0, r0, r5, lsr #32
    2f08:	0000007a 	andeq	r0, r0, sl, ror r0
    2f0c:	00002505 	andeq	r2, r0, r5, lsl #10
    2f10:	87060000 	strhi	r0, [r6, -r0]
    2f14:	02000000 	andeq	r0, r0, #0, 0
    2f18:	00860e1c 	addeq	r0, r6, ip, lsl lr
    2f1c:	04070000 	streq	r0, [r7], #-0
    2f20:	0000006b 	andeq	r0, r0, fp, rrx
    2f24:	00002504 	andeq	r2, r0, r4, lsl #10
    2f28:	00009b00 	andeq	r9, r0, r0, lsl #22
    2f2c:	009b0500 	addseq	r0, fp, r0, lsl #10
    2f30:	07000000 	streq	r0, [r0, -r0]
    2f34:	0000a804 	andeq	sl, r0, r4, lsl #16
    2f38:	08010300 	stmdaeq	r1, {r8, r9}
    2f3c:	00000011 	andeq	r0, r0, r1, lsl r0
    2f40:	0000a108 	andeq	sl, r0, r8, lsl #2
    2f44:	03820600 	orreq	r0, r2, #0, 12
    2f48:	21020000 	mrscs	r0, (UNDEF: 2)
    2f4c:	0000b90e 	andeq	fp, r0, lr, lsl #18
    2f50:	8c040700 	stchi	7, cr0, [r4], {-0}
    2f54:	09000000 	stmdbeq	r0, {}	; <UNPREDICTABLE>
    2f58:	00000464 	andeq	r0, r0, r4, ror #8
    2f5c:	25050301 	strcs	r0, [r5, #-769]	; 0xfffffcff
    2f60:	10000000 	andne	r0, r0, r0
    2f64:	2c000092 	stccs	0, cr0, [r0], {146}	; 0x92
    2f68:	01000000 	mrseq	r0, (UNDEF: 0)
    2f6c:	00610a9c 	mlseq	r1, ip, sl, r0
    2f70:	9b180301 	blls	603b7c <__bss_end__+0x5f9f34>
    2f74:	3d000000 	stccc	0, cr0, [r0, #-0]
    2f78:	39000014 	stmdbcc	r0, {r2, r4}
    2f7c:	0a000014 	beq	2fd4 <__code_start__-0x502c>
    2f80:	03010062 	movweq	r0, #4194	; 0x1062
    2f84:	00009b27 	andeq	r9, r0, r7, lsr #22
    2f88:	00145f00 	andseq	r5, r4, r0, lsl #30
    2f8c:	00145b00 	andseq	r5, r4, r0, lsl #22
    2f90:	0f000000 	svceq	0x00000000
    2f94:	04000001 	streq	r0, [r0], #-1
    2f98:	0012ee00 	andseq	lr, r2, r0, lsl #28
    2f9c:	2a010400 	bcs	43fa4 <__bss_end__+0x3a35c>
    2fa0:	0c000002 	stceq	0, cr0, [r0], {2}
    2fa4:	00000998 	muleq	r0, r8, r9
    2fa8:	00000331 	andeq	r0, r0, r1, lsr r3
    2fac:	0000923c 	andeq	r9, r0, ip, lsr r2
    2fb0:	00000020 	andeq	r0, r0, r0, lsr #32
    2fb4:	000019af 	andeq	r1, r0, pc, lsr #19
    2fb8:	69050402 	stmdbvs	r5, {r1, sl}
    2fbc:	0300746e 	movweq	r7, #1134	; 0x46e
    2fc0:	006c0704 	rsbeq	r0, ip, r4, lsl #14
    2fc4:	01030000 	mrseq	r0, (UNDEF: 3)
    2fc8:	00000a06 	andeq	r0, r0, r6, lsl #20
    2fcc:	05020300 	streq	r0, [r2, #-768]	; 0xfffffd00
    2fd0:	000000f0 	strdeq	r0, [r0], -r0	; <UNPREDICTABLE>
    2fd4:	7e050403 	cdpvc	4, 0, cr0, cr5, cr3, {0}
    2fd8:	03000000 	movweq	r0, #0
    2fdc:	00790508 	rsbseq	r0, r9, r8, lsl #10
    2fe0:	01030000 	mrseq	r0, (UNDEF: 3)
    2fe4:	00000808 	andeq	r0, r0, r8, lsl #16
    2fe8:	07020300 	streq	r0, [r2, -r0, lsl #6]
    2fec:	00000023 	andeq	r0, r0, r3, lsr #32
    2ff0:	67070403 	strvs	r0, [r7, -r3, lsl #8]
    2ff4:	03000000 	movweq	r0, #0
    2ff8:	00620708 	rsbeq	r0, r2, r8, lsl #14
    2ffc:	25040000 	strcs	r0, [r4, #-0]
    3000:	7a000000 	bvc	3008 <__code_start__-0x4ff8>
    3004:	05000000 	streq	r0, [r0, #-0]
    3008:	00000025 	andeq	r0, r0, r5, lsr #32
    300c:	00870600 	addeq	r0, r7, r0, lsl #12
    3010:	1c020000 	stcne	0, cr0, [r2], {-0}
    3014:	0000860e 	andeq	r8, r0, lr, lsl #12
    3018:	6b040700 	blvs	104c20 <__bss_end__+0xfafd8>
    301c:	04000000 	streq	r0, [r0], #-0
    3020:	00000025 	andeq	r0, r0, r5, lsr #32
    3024:	0000009b 	muleq	r0, fp, r0
    3028:	00009b05 	andeq	r9, r0, r5, lsl #22
    302c:	04070000 	streq	r0, [r7], #-0
    3030:	000000a8 	andeq	r0, r0, r8, lsr #1
    3034:	11080103 	tstne	r8, r3, lsl #2
    3038:	08000000 	stmdaeq	r0, {}	; <UNPREDICTABLE>
    303c:	000000a1 	andeq	r0, r0, r1, lsr #1
    3040:	00038206 	andeq	r8, r3, r6, lsl #4
    3044:	0e210200 	cdpeq	2, 2, cr0, cr1, cr0, {0}
    3048:	000000b9 	strheq	r0, [r0], -r9
    304c:	008c0407 	addeq	r0, ip, r7, lsl #8
    3050:	2e090000 	cdpcs	0, 0, cr0, cr9, cr0, {0}
    3054:	01000004 	tsteq	r0, r4
    3058:	010c0703 	tsteq	ip, r3, lsl #14
    305c:	923c0000 	eorsls	r0, ip, #0, 0
    3060:	00200000 	eoreq	r0, r0, r0
    3064:	9c010000 	stcls	0, cr0, [r1], {-0}
    3068:	0000010c 	andeq	r0, r0, ip, lsl #2
    306c:	0031730a 	eorseq	r7, r1, sl, lsl #6
    3070:	0c150301 	ldceq	3, cr0, [r5], {1}
    3074:	01000001 	tsteq	r0, r1
    3078:	32730b50 	rsbscc	r0, r3, #80, 22	; 0x14000
    307c:	26030100 	strcs	r0, [r3], -r0, lsl #2
    3080:	0000009b 	muleq	r0, fp, r0
    3084:	00001483 	andeq	r1, r0, r3, lsl #9
    3088:	0000147d 	andeq	r1, r0, sp, ror r4
    308c:	0100730c 	tsteq	r0, ip, lsl #6
    3090:	010c1404 	tsteq	ip, r4, lsl #8
    3094:	14b40000 	ldrtne	r0, [r4], #0
    3098:	14ae0000 	strtne	r0, [lr], #0
    309c:	07000000 	streq	r0, [r0, -r0]
    30a0:	0000a104 	andeq	sl, r0, r4, lsl #2
    30a4:	014e0000 	mrseq	r0, (UNDEF: 78)
    30a8:	00040000 	andeq	r0, r4, r0
    30ac:	000013a4 	andeq	r1, r0, r4, lsr #7
    30b0:	022a0104 	eoreq	r0, sl, #1
    30b4:	a80c0000 	stmdage	ip, {}	; <UNPREDICTABLE>
    30b8:	31000009 	tstcc	r0, r9
    30bc:	58000003 	stmdapl	r0, {r0, r1}
    30c0:	00000000 	andeq	r0, r0, r0
    30c4:	74000000 	strvc	r0, [r0], #-0
    30c8:	0200001a 	andeq	r0, r0, #26, 0
    30cc:	6e690504 	cdpvs	5, 6, cr0, cr9, cr4, {0}
    30d0:	2d030074 	stccs	0, cr0, [r3, #-464]	; 0xfffffe30
    30d4:	03000009 	movweq	r0, #9
    30d8:	003817d1 	ldrsbteq	r1, [r8], -r1
    30dc:	04040000 	streq	r0, [r4], #-0
    30e0:	00006c07 	andeq	r6, r0, r7, lsl #24
    30e4:	06010400 	streq	r0, [r1], -r0, lsl #8
    30e8:	0000000a 	andeq	r0, r0, sl
    30ec:	f0050204 			; <UNDEFINED> instruction: 0xf0050204
    30f0:	04000000 	streq	r0, [r0], #-0
    30f4:	007e0504 	rsbseq	r0, lr, r4, lsl #10
    30f8:	08040000 	stmdaeq	r4, {}	; <UNPREDICTABLE>
    30fc:	00007905 	andeq	r7, r0, r5, lsl #18
    3100:	08010400 	stmdaeq	r1, {sl}
    3104:	00000008 	andeq	r0, r0, r8
    3108:	00005b05 	andeq	r5, r0, r5, lsl #22
    310c:	07020400 	streq	r0, [r2, -r0, lsl #8]
    3110:	00000023 	andeq	r0, r0, r3, lsr #32
    3114:	67070404 	strvs	r0, [r7, -r4, lsl #8]
    3118:	04000000 	streq	r0, [r0], #-0
    311c:	00620708 	rsbeq	r0, r2, r8, lsl #14
    3120:	25060000 	strcs	r0, [r6, #-0]
    3124:	8b000000 	blhi	312c <__code_start__-0x4ed4>
    3128:	07000000 	streq	r0, [r0, -r0]
    312c:	00000025 	andeq	r0, r0, r5, lsr #32
    3130:	00870800 	addeq	r0, r7, r0, lsl #16
    3134:	1c020000 	stcne	0, cr0, [r2], {-0}
    3138:	0000970e 	andeq	r9, r0, lr, lsl #14
    313c:	7c040900 			; <UNDEFINED> instruction: 0x7c040900
    3140:	06000000 	streq	r0, [r0], -r0
    3144:	00000025 	andeq	r0, r0, r5, lsr #32
    3148:	000000ac 	andeq	r0, r0, ip, lsr #1
    314c:	0000ac07 	andeq	sl, r0, r7, lsl #24
    3150:	04090000 	streq	r0, [r9], #-0
    3154:	000000b9 	strheq	r0, [r0], -r9
    3158:	11080104 	tstne	r8, r4, lsl #2
    315c:	05000000 	streq	r0, [r0, #-0]
    3160:	000000b2 	strheq	r0, [r0], -r2
    3164:	00038208 	andeq	r8, r3, r8, lsl #4
    3168:	0e210200 	cdpeq	2, 2, cr0, cr1, cr0, {0}
    316c:	000000ca 	andeq	r0, r0, sl, asr #1
    3170:	009d0409 	addseq	r0, sp, r9, lsl #8
    3174:	8c0a0000 	stchi	0, cr0, [sl], {-0}
    3178:	01000004 	tsteq	r0, r4
    317c:	00250504 	eoreq	r0, r5, r4, lsl #10
    3180:	925c0000 	subsls	r0, ip, #0, 0
    3184:	002c0000 	eoreq	r0, ip, r0
    3188:	9c010000 	stcls	0, cr0, [r1], {-0}
    318c:	0000014b 	andeq	r0, r0, fp, asr #2
    3190:	31735f0b 	cmncc	r3, fp, lsl #30
    3194:	19040100 	stmdbne	r4, {r8}
    3198:	000000ac 	andeq	r0, r0, ip, lsr #1
    319c:	000014e3 	andeq	r1, r0, r3, ror #9
    31a0:	000014df 	ldrdeq	r1, [r0], -pc	; <UNPREDICTABLE>
    31a4:	32735f0b 	rsbscc	r5, r3, #11, 30	; 0x2c
    31a8:	2a040100 	bcs	1035b0 <__bss_end__+0xf9968>
    31ac:	000000ac 	andeq	r0, r0, ip, lsr #1
    31b0:	00001508 	andeq	r1, r0, r8, lsl #10
    31b4:	00001504 	andeq	r1, r0, r4, lsl #10
    31b8:	01006e0b 	tsteq	r0, fp, lsl #28
    31bc:	002c3604 	eoreq	r3, ip, r4, lsl #12
    31c0:	152f0000 	strne	r0, [pc, #-0]!	; 31c8 <__code_start__-0x4e38>
    31c4:	15290000 	strne	r0, [r9, #-0]!
    31c8:	730c0000 	movwvc	r0, #49152	; 0xc000
    31cc:	05010031 	streq	r0, [r1, #-49]	; 0xffffffcf
    31d0:	00014b1a 	andeq	r4, r1, sl, lsl fp
    31d4:	00156200 	andseq	r6, r5, r0, lsl #4
    31d8:	00155a00 	andseq	r5, r5, r0, lsl #20
    31dc:	32730c00 	rsbscc	r0, r3, #0, 24
    31e0:	2c050100 	stfcss	f0, [r5], {-0}
    31e4:	0000014b 	andeq	r0, r0, fp, asr #2
    31e8:	0000159e 	muleq	r0, lr, r5
    31ec:	00001598 	muleq	r0, r8, r5
    31f0:	62040900 	andvs	r0, r4, #0, 18
    31f4:	00000000 	andeq	r0, r0, r0
    31f8:	000000ce 	andeq	r0, r0, lr, asr #1
    31fc:	14580004 	ldrbne	r0, [r8], #-4
    3200:	01040000 	mrseq	r0, (UNDEF: 4)
    3204:	0000022a 	andeq	r0, r0, sl, lsr #4
    3208:	0009b90c 	andeq	fp, r9, ip, lsl #18
    320c:	00033100 	andeq	r3, r3, r0, lsl #2
    3210:	00928800 	addseq	r8, r2, r0, lsl #16
    3214:	00000400 	andeq	r0, r0, r0, lsl #8
    3218:	001b9900 	andseq	r9, fp, r0, lsl #18
    321c:	05040200 	streq	r0, [r4, #-512]	; 0xfffffe00
    3220:	00746e69 	rsbseq	r6, r4, r9, ror #28
    3224:	6c070403 	cfstrsvs	mvf0, [r7], {3}
    3228:	03000000 	movweq	r0, #0
    322c:	000a0601 	andeq	r0, sl, r1, lsl #12
    3230:	02030000 	andeq	r0, r3, #0, 0
    3234:	0000f005 	andeq	pc, r0, r5
    3238:	05040300 	streq	r0, [r4, #-768]	; 0xfffffd00
    323c:	0000007e 	andeq	r0, r0, lr, ror r0
    3240:	79050803 	stmdbvc	r5, {r0, r1, fp}
    3244:	03000000 	movweq	r0, #0
    3248:	00080801 	andeq	r0, r8, r1, lsl #16
    324c:	02030000 	andeq	r0, r3, #0, 0
    3250:	00002307 	andeq	r2, r0, r7, lsl #6
    3254:	07040300 	streq	r0, [r4, -r0, lsl #6]
    3258:	00000067 	andeq	r0, r0, r7, rrx
    325c:	62070803 	andvs	r0, r7, #196608	; 0x30000
    3260:	04000000 	streq	r0, [r0], #-0
    3264:	00000025 	andeq	r0, r0, r5, lsr #32
    3268:	0000007a 	andeq	r0, r0, sl, ror r0
    326c:	00002505 	andeq	r2, r0, r5, lsl #10
    3270:	87060000 	strhi	r0, [r6, -r0]
    3274:	02000000 	andeq	r0, r0, #0, 0
    3278:	00860e1c 	addeq	r0, r6, ip, lsl lr
    327c:	04070000 	streq	r0, [r7], #-0
    3280:	0000006b 	andeq	r0, r0, fp, rrx
    3284:	00002504 	andeq	r2, r0, r4, lsl #10
    3288:	00009b00 	andeq	r9, r0, r0, lsl #22
    328c:	009b0500 	addseq	r0, fp, r0, lsl #10
    3290:	07000000 	streq	r0, [r0, -r0]
    3294:	0000a804 	andeq	sl, r0, r4, lsl #16
    3298:	08010300 	stmdaeq	r1, {r8, r9}
    329c:	00000011 	andeq	r0, r0, r1, lsl r0
    32a0:	0000a108 	andeq	sl, r0, r8, lsl #2
    32a4:	03820600 	orreq	r0, r2, #0, 12
    32a8:	21020000 	mrscs	r0, (UNDEF: 2)
    32ac:	0000b90e 	andeq	fp, r0, lr, lsl #18
    32b0:	8c040700 	stchi	7, cr0, [r4], {-0}
    32b4:	09000000 	stmdbeq	r0, {}	; <UNPREDICTABLE>
    32b8:	00000533 	andeq	r0, r0, r3, lsr r5
    32bc:	88060301 	stmdahi	r6, {r0, r8, r9}
    32c0:	04000092 	streq	r0, [r0], #-146	; 0xffffff6e
    32c4:	01000000 	mrseq	r0, (UNDEF: 0)
    32c8:	03a5009c 			; <UNDEFINED> instruction: 0x03a5009c
    32cc:	00040000 	andeq	r0, r4, r0
    32d0:	000014d1 	ldrdeq	r1, [r0], -r1	; <UNPREDICTABLE>
    32d4:	070f0104 	streq	r0, [pc, -r4, lsl #2]
    32d8:	5d0c0000 	stcpl	0, cr0, [ip, #-0]
    32dc:	bf00000a 	svclt	0x0000000a
    32e0:	a4000006 	strge	r0, [r0], #-6
    32e4:	1c000092 	stcne	0, cr0, [r0], {146}	; 0x92
    32e8:	4d000001 	stcmi	0, cr0, [r0, #-4]
    32ec:	0200001c 	andeq	r0, r0, #28, 0
    32f0:	6e690504 	cdpvs	5, 6, cr0, cr9, cr4, {0}
    32f4:	04030074 	streq	r0, [r3], #-116	; 0xffffff8c
    32f8:	00006c07 	andeq	r6, r0, r7, lsl #24
    32fc:	002c0400 	eoreq	r0, ip, r0, lsl #8
    3300:	01030000 	mrseq	r0, (UNDEF: 3)
    3304:	00000a06 	andeq	r0, r0, r6, lsl #20
    3308:	05020300 	streq	r0, [r2, #-768]	; 0xfffffd00
    330c:	000000f0 	strdeq	r0, [r0], -r0	; <UNPREDICTABLE>
    3310:	7e050403 	cdpvc	4, 0, cr0, cr5, cr3, {0}
    3314:	03000000 	movweq	r0, #0
    3318:	00790508 	rsbseq	r0, r9, r8, lsl #10
    331c:	01030000 	mrseq	r0, (UNDEF: 3)
    3320:	00000808 	andeq	r0, r0, r8, lsl #16
    3324:	07020300 	streq	r0, [r2, -r0, lsl #6]
    3328:	00000023 	andeq	r0, r0, r3, lsr #32
    332c:	00040c05 	andeq	r0, r4, r5, lsl #24
    3330:	19340300 	ldmdbne	r4!, {r8, r9}
    3334:	0000006e 	andeq	r0, r0, lr, rrx
    3338:	67070403 	strvs	r0, [r7, -r3, lsl #8]
    333c:	03000000 	movweq	r0, #0
    3340:	00620708 	rsbeq	r0, r2, r8, lsl #14
    3344:	01030000 	mrseq	r0, (UNDEF: 3)
    3348:	00001108 	andeq	r1, r0, r8, lsl #2
    334c:	01070600 	tsteq	r7, r0, lsl #12
    3350:	00000054 	andeq	r0, r0, r4, asr r0
    3354:	c20e0c04 	andgt	r0, lr, #4, 24	; 0x400
    3358:	07000000 	streq	r0, [r0, -r0]
    335c:	000007f9 	strdeq	r0, [r0], -r9
    3360:	06310700 	ldrteq	r0, [r1], -r0, lsl #14
    3364:	07010000 	streq	r0, [r1, -r0]
    3368:	00000674 	andeq	r0, r0, r4, ror r6
    336c:	06830704 	streq	r0, [r3], r4, lsl #14
    3370:	07050000 	streq	r0, [r5, -r0]
    3374:	00000692 	muleq	r0, r2, r6
    3378:	06a10706 	strteq	r0, [r1], r6, lsl #14
    337c:	07070000 	streq	r0, [r7, -r0]
    3380:	000007c2 	andeq	r0, r0, r2, asr #15
    3384:	06b00703 	ldrteq	r0, [r0], r3, lsl #14
    3388:	00020000 	andeq	r0, r2, r0
    338c:	000a4205 	andeq	r4, sl, r5, lsl #4
    3390:	03150400 	tsteq	r5, #0, 8
    3394:	00000083 	andeq	r0, r0, r3, lsl #1
    3398:	0009e808 	andeq	lr, r9, r8, lsl #16
    339c:	171d0100 	ldrne	r0, [sp, -r0, lsl #2]
    33a0:	00000033 	andeq	r0, r0, r3, lsr r0
    33a4:	2020001c 	eorcs	r0, r0, ip, lsl r0
    33a8:	0009de08 	andeq	sp, r9, r8, lsl #28
    33ac:	171e0100 	ldrne	r0, [lr, -r0, lsl #2]
    33b0:	00000033 	andeq	r0, r0, r3, lsr r0
    33b4:	20200028 	eorcs	r0, r0, r8, lsr #32
    33b8:	000a4e08 	andeq	r4, sl, r8, lsl #28
    33bc:	171f0100 	ldrne	r0, [pc, -r0, lsl #2]
    33c0:	00000033 	andeq	r0, r0, r3, lsr r0
    33c4:	20200034 	eorcs	r0, r0, r4, lsr r0
    33c8:	000a0709 	andeq	r0, sl, r9, lsl #14
    33cc:	05550100 	ldrbeq	r0, [r5, #-256]	; 0xffffff00
    33d0:	00000025 	andeq	r0, r0, r5, lsr #32
    33d4:	0000938c 	andeq	r9, r0, ip, lsl #7
    33d8:	00000034 	andeq	r0, r0, r4, lsr r0
    33dc:	016e9c01 	cmneq	lr, r1, lsl #24
    33e0:	700a0000 	andvc	r0, sl, r0
    33e4:	01006e69 	tsteq	r0, r9, ror #28
    33e8:	002c1855 	eoreq	r1, ip, r5, asr r8
    33ec:	15d10000 	ldrbne	r0, [r1]
    33f0:	15c90000 	strbne	r0, [r9]
    33f4:	580b0000 	stmdapl	fp, {}	; <UNPREDICTABLE>
    33f8:	0100000a 	tsteq	r0, sl
    33fc:	002c0e58 	eoreq	r0, ip, r8, asr lr
    3400:	16110000 	ldrne	r0, [r1], -r0
    3404:	160b0000 	strne	r0, [fp], -r0
    3408:	6f0c0000 	svcvs	0x000c0000
    340c:	01006666 	tsteq	r0, r6, ror #12
    3410:	002c0e59 	eoreq	r0, ip, r9, asr lr
    3414:	16510000 	ldrbne	r0, [r1], -r0
    3418:	164f0000 	strbne	r0, [pc], -r0
    341c:	a80d0000 	stmdage	sp, {}	; <UNPREDICTABLE>
    3420:	90000093 	mulls	r0, r3, r0
    3424:	0e000003 	cdpeq	0, 0, cr0, cr0, cr3, {0}
    3428:	f30b5001 	vhadd.u8	d5, d11, d1
    342c:	25355001 	ldrcs	r5, [r5, #-1]!
    3430:	8080b423 	addhi	fp, r0, r3, lsr #8
    3434:	00000281 	andeq	r0, r0, r1, lsl #5
    3438:	0009f20f 	andeq	pc, r9, pc, lsl #4
    343c:	064e0100 	strbeq	r0, [lr], -r0, lsl #2
    3440:	00009370 	andeq	r9, r0, r0, ror r3
    3444:	0000001c 	andeq	r0, r0, ip, lsl r0
    3448:	01c99c01 	biceq	r9, r9, r1, lsl #24
    344c:	700a0000 	andvc	r0, sl, r0
    3450:	01006e69 	tsteq	r0, r9, ror #28
    3454:	002c1a4e 	eoreq	r1, ip, lr, asr #20
    3458:	166c0000 	strbtne	r0, [ip], -r0
    345c:	16640000 	strbtne	r0, [r4], -r0
    3460:	760a0000 	strvc	r0, [sl], -r0
    3464:	284e0100 	stmdacs	lr, {r8}^
    3468:	0000002c 	andeq	r0, r0, ip, lsr #32
    346c:	000016ae 	andeq	r1, r0, lr, lsr #13
    3470:	000016a6 	andeq	r1, r0, r6, lsr #13
    3474:	00938010 	addseq	r8, r3, r0, lsl r0
    3478:	00025100 	andeq	r5, r2, r0, lsl #2
    347c:	0001bf00 	andeq	fp, r1, r0, lsl #30
    3480:	50010e00 	andpl	r0, r1, r0, lsl #28
    3484:	5001f303 	andpl	pc, r1, r3, lsl #6
    3488:	93881100 	orrls	r1, r8, #0
    348c:	020a0000 	andeq	r0, sl, #0, 0
    3490:	0f000000 	svceq	0x00000000
    3494:	00000a11 	andeq	r0, r0, r1, lsl sl
    3498:	60064901 	andvs	r4, r6, r1, lsl #18
    349c:	10000093 	mulne	r0, r3, r0
    34a0:	01000000 	mrseq	r0, (UNDEF: 0)
    34a4:	00020a9c 	muleq	r2, ip, sl
    34a8:	69700a00 	ldmdbvs	r0!, {r9, fp}^
    34ac:	4901006e 	stmdbmi	r1, {r1, r2, r3, r5, r6}
    34b0:	00002c1e 	andeq	r2, r0, lr, lsl ip
    34b4:	0016ec00 	andseq	lr, r6, r0, lsl #24
    34b8:	0016e800 	andseq	lr, r6, r0, lsl #16
    34bc:	936c0d00 	cmnls	ip, #0, 26
    34c0:	02d90000 	sbcseq	r0, r9, #0, 0
    34c4:	010e0000 	mrseq	r0, (UNDEF: 14)
    34c8:	01f30350 	mvnseq	r0, r0, asr r3
    34cc:	51010e50 	tstpl	r1, r0, asr lr
    34d0:	00003001 	andeq	r3, r0, r1
    34d4:	000a200f 	andeq	r2, sl, pc
    34d8:	06420100 	strbeq	r0, [r2], -r0, lsl #2
    34dc:	0000933c 	andeq	r9, r0, ip, lsr r3
    34e0:	00000024 	andeq	r0, r0, r4, lsr #32
    34e4:	02519c01 	subseq	r9, r1, #256	; 0x100
    34e8:	700a0000 	andvc	r0, sl, r0
    34ec:	01006e69 	tsteq	r0, r9, ror #28
    34f0:	002c1c42 	eoreq	r1, ip, r2, asr #24
    34f4:	17110000 	ldrne	r0, [r1, -r0]
    34f8:	170d0000 	strne	r0, [sp, -r0]
    34fc:	580d0000 	stmdapl	sp, {}	; <UNPREDICTABLE>
    3500:	9c000093 	stcls	0, cr0, [r0], {147}	; 0x93
    3504:	0e000003 	cdpeq	0, 0, cr0, cr0, cr3, {0}
    3508:	0c055001 	stceq	0, cr5, [r5], {1}
    350c:	20200028 	eorcs	r0, r0, r8, lsr #32
    3510:	0551010e 	ldrbeq	r0, [r1, #-270]	; 0xfffffef2
    3514:	5001f331 	andpl	pc, r1, r1, lsr r3	; <UNPREDICTABLE>
    3518:	0f000024 	svceq	0x00000024
    351c:	00000a64 	andeq	r0, r0, r4, ror #20
    3520:	18063b01 	stmdane	r6, {r0, r8, r9, fp, ip, sp}
    3524:	24000093 	strcs	r0, [r0], #-147	; 0xffffff6d
    3528:	01000000 	mrseq	r0, (UNDEF: 0)
    352c:	0002989c 	muleq	r2, ip, r8
    3530:	69700a00 	ldmdbvs	r0!, {r9, fp}^
    3534:	3b01006e 	blcc	436f4 <__bss_end__+0x39aac>
    3538:	00002c1b 	andeq	r2, r0, fp, lsl ip
    353c:	00173600 	andseq	r3, r7, r0, lsl #12
    3540:	00173200 	andseq	r3, r7, r0, lsl #4
    3544:	93340d00 	teqls	r4, #0, 26
    3548:	039c0000 	orrseq	r0, ip, #0, 0
    354c:	010e0000 	mrseq	r0, (UNDEF: 14)
    3550:	1c0c0550 	cfstr32ne	mvfx0, [ip], {80}	; 0x50
    3554:	0e202000 	cdpeq	0, 2, cr2, cr0, cr0, {0}
    3558:	31055101 	tstcc	r5, r1, lsl #2
    355c:	245001f3 	ldrbcs	r0, [r0], #-499	; 0xfffffe0d
    3560:	2d0f0000 	stccs	0, cr0, [pc, #-0]	; 3568 <__code_start__-0x4a98>
    3564:	0100000a 	tsteq	r0, sl
    3568:	93080636 	movwls	r0, #34358	; 0x8636
    356c:	00100000 	andseq	r0, r0, r0
    3570:	9c010000 	stcls	0, cr0, [r1], {-0}
    3574:	000002d9 	ldrdeq	r0, [r0], -r9
    3578:	6e69700a 	cdpvs	0, 6, cr7, cr9, cr10, {0}
    357c:	1f360100 	svcne	0x00360100
    3580:	0000002c 	andeq	r0, r0, ip, lsr #32
    3584:	0000175b 	andeq	r1, r0, fp, asr r7
    3588:	00001757 	andeq	r1, r0, r7, asr r7
    358c:	0093140d 	addseq	r1, r3, sp, lsl #8
    3590:	0002d900 	andeq	sp, r2, r0, lsl #18
    3594:	50010e00 	andpl	r0, r1, r0, lsl #28
    3598:	5001f303 	andpl	pc, r1, r3, lsl #6
    359c:	0151010e 	cmpeq	r1, lr, lsl #2
    35a0:	0f000031 	svceq	0x00000031
    35a4:	00000809 	andeq	r0, r0, r9, lsl #16
    35a8:	a4062801 	strge	r2, [r6], #-2049	; 0xfffff7ff
    35ac:	64000092 	strvs	r0, [r0], #-146	; 0xffffff6e
    35b0:	01000000 	mrseq	r0, (UNDEF: 0)
    35b4:	0003749c 	muleq	r3, ip, r4
    35b8:	69700a00 	ldmdbvs	r0!, {r9, fp}^
    35bc:	2801006e 	stmdacs	r1, {r1, r2, r3, r5, r6}
    35c0:	00002c21 	andeq	r2, r0, r1, lsr #24
    35c4:	00178000 	andseq	r8, r7, r0
    35c8:	00177c00 	andseq	r7, r7, r0, lsl #24
    35cc:	0a3d1200 	beq	f47dd4 <__bss_end__+0xf3e18c>
    35d0:	28010000 	stmdacs	r1, {}	; <UNPREDICTABLE>
    35d4:	0000c232 	andeq	ip, r0, r2, lsr r2
    35d8:	0017a500 	andseq	sl, r7, r0, lsl #10
    35dc:	0017a100 	andseq	sl, r7, r0, lsl #2
    35e0:	666f0c00 	strbtvs	r0, [pc], -r0, lsl #24
    35e4:	2d010066 	stccs	0, cr0, [r1, #-408]	; 0xfffffe68
    35e8:	00002c0e 	andeq	r2, r0, lr, lsl #24
    35ec:	0017c800 	andseq	ip, r7, r0, lsl #16
    35f0:	0017c600 	andseq	ip, r7, r0, lsl #12
    35f4:	00670c00 	rsbeq	r0, r7, r0, lsl #24
    35f8:	2c0e2e01 	stccs	14, cr2, [lr], {1}
    35fc:	dd000000 	stcle	0, cr0, [r0, #-0]
    3600:	db000017 	blle	3664 <__code_start__-0x499c>
    3604:	0c000017 	stceq	0, cr0, [r0], {23}
    3608:	30010076 	andcc	r0, r1, r6, ror r0
    360c:	00002c0e 	andeq	r2, r0, lr, lsl #24
    3610:	0017f800 	andseq	pc, r7, r0, lsl #16
    3614:	0017f000 	andseq	pc, r7, r0
    3618:	92ec1000 	rscls	r1, ip, #0, 0
    361c:	03900000 	orrseq	r0, r0, #0, 0
    3620:	03630000 	cmneq	r3, #0, 0
    3624:	010e0000 	mrseq	r0, (UNDEF: 14)
    3628:	00760250 	rsbseq	r0, r6, r0, asr r2
    362c:	93000d00 	movwls	r0, #3328	; 0xd00
    3630:	039c0000 	orrseq	r0, ip, #0, 0
    3634:	010e0000 	mrseq	r0, (UNDEF: 14)
    3638:	00760250 	rsbseq	r0, r6, r0, asr r2
    363c:	fd130000 	ldc2	0, cr0, [r3, #-0]
    3640:	02000009 	andeq	r0, r0, #9, 0
    3644:	006218b6 	strhteq	r1, [r2], #-134	; 0xffffff7a
    3648:	90030000 	andls	r0, r3, r0
    364c:	14000003 	strne	r0, [r0], #-3
    3650:	b6020078 			; <UNDEFINED> instruction: 0xb6020078
    3654:	0000622b 	andeq	r6, r0, fp, lsr #4
    3658:	de150000 	cdple	0, 1, cr0, cr5, cr0, {0}
    365c:	de000005 	cdple	0, 0, cr0, cr0, cr5, {0}
    3660:	02000005 	andeq	r0, r0, #5, 0
    3664:	4a150ac7 	bmi	546188 <__bss_end__+0x53c540>
    3668:	4a000005 	bmi	3684 <__code_start__-0x497c>
    366c:	02000005 	andeq	r0, r0, #5, 0
    3670:	Address 0x0000000000003670 is out of bounds.


Disassembly of section .debug_abbrev:

00000000 <.debug_abbrev>:
       0:	25011101 	strcs	r1, [r1, #-257]	; 0xfffffeff
       4:	030b130e 	movweq	r1, #45838	; 0xb30e
       8:	110e1b0e 	tstne	lr, lr, lsl #22
       c:	10061201 	andne	r1, r6, r1, lsl #4
      10:	02000017 	andeq	r0, r0, #23, 0
      14:	0b0b0024 	bleq	2c00ac <__bss_end__+0x2b6464>
      18:	08030b3e 	stmdaeq	r3, {r1, r2, r3, r4, r5, r8, r9, fp}
      1c:	24030000 	strcs	r0, [r3], #-0
      20:	3e0b0b00 	vmlacc.f64	d0, d11, d0
      24:	000e030b 	andeq	r0, lr, fp, lsl #6
      28:	01150400 	tsteq	r5, r0, lsl #8
      2c:	13491927 	movtne	r1, #39207	; 0x9927
      30:	00001301 	andeq	r1, r0, r1, lsl #6
      34:	49000505 	stmdbmi	r0, {r0, r2, r8, sl}
      38:	06000013 			; <UNDEFINED> instruction: 0x06000013
      3c:	0e030034 	mcreq	0, 0, r0, cr3, cr4, {1}
      40:	0b3b0b3a 	bleq	ec2d30 <__bss_end__+0xeb90e8>
      44:	13490b39 	movtne	r0, #39737	; 0x9b39
      48:	193c193f 	ldmdbne	ip!, {r0, r1, r2, r3, r4, r5, r8, fp, ip}
      4c:	0f070000 	svceq	0x00070000
      50:	490b0b00 	stmdbmi	fp, {r8, r9, fp}
      54:	08000013 	stmdaeq	r0, {r0, r1, r4}
      58:	13490026 	movtne	r0, #36902	; 0x9026
      5c:	2e090000 	cdpcs	0, 0, cr0, cr9, cr0, {0}
      60:	03193f01 	tsteq	r9, #1, 30
      64:	3b0b3a0e 	blcc	2ce8a4 <__bss_end__+0x2c4c5c>
      68:	270b390b 	strcs	r3, [fp, -fp, lsl #18]
      6c:	12011119 	andne	r1, r1, #1073741830	; 0x40000006
      70:	97184006 	ldrls	r4, [r8, -r6]
      74:	13011942 	movwne	r1, #6466	; 0x1942
      78:	040a0000 	streq	r0, [sl], #-0
      7c:	0b0b3e01 	bleq	2cf888 <__bss_end__+0x2c5c40>
      80:	3a13490b 	bcc	4d24b4 <__bss_end__+0x4c886c>
      84:	390b3b0b 	stmdbcc	fp, {r0, r1, r3, r8, r9, fp, ip, sp}
      88:	0013010b 	andseq	r0, r3, fp, lsl #2
      8c:	00280b00 	eoreq	r0, r8, r0, lsl #22
      90:	0b1c0e03 	bleq	7038a4 <__bss_end__+0x6f9c5c>
      94:	340c0000 	strcc	r0, [ip], #-0
      98:	3a080300 	bcc	200ca0 <__bss_end__+0x1f7058>
      9c:	390b3b0b 	stmdbcc	fp, {r0, r1, r3, r8, r9, fp, ip, sp}
      a0:	0213490b 	andseq	r4, r3, #180224	; 0x2c000
      a4:	1742b717 	smlaldne	fp, r2, r7, r7
      a8:	340d0000 	strcc	r0, [sp], #-0
      ac:	490e0300 	stmdbmi	lr, {r8, r9}
      b0:	02193413 	andseq	r3, r9, #318767104	; 0x13000000
      b4:	0e000018 	mcreq	0, 0, r0, cr0, cr8, {0}
      b8:	0111010b 	tsteq	r1, fp, lsl #2
      bc:	13010612 	movwne	r0, #5650	; 0x1612
      c0:	0b0f0000 	bleq	3c00c8 <__bss_end__+0x3b6480>
      c4:	00175501 	andseq	r5, r7, r1, lsl #10
      c8:	82891000 	addhi	r1, r9, #0, 0
      cc:	01110101 	tsteq	r1, r1, lsl #2
      d0:	13011331 	movwne	r1, #4913	; 0x1331
      d4:	8a110000 	bhi	4400dc <__bss_end__+0x436494>
      d8:	02000182 	andeq	r0, r0, #-2147483616	; 0x80000020
      dc:	18429118 	stmdane	r2, {r3, r4, r8, ip, pc}^
      e0:	89120000 	ldmdbhi	r2, {}	; <UNPREDICTABLE>
      e4:	11000182 	smlabbne	r0, r2, r1, r0
      e8:	00133101 	andseq	r3, r3, r1, lsl #2
      ec:	82891300 	addhi	r1, r9, #0, 6
      f0:	01110101 	tsteq	r1, r1, lsl #2
      f4:	00001331 	andeq	r1, r0, r1, lsr r3
      f8:	49010114 	stmdbmi	r1, {r2, r4, r8}
      fc:	00130113 	andseq	r0, r3, r3, lsl r1
     100:	00211500 	eoreq	r1, r1, r0, lsl #10
     104:	0b2f1349 	bleq	bc4e30 <__bss_end__+0xbbb1e8>
     108:	2e160000 	cdpcs	0, 1, cr0, cr6, cr0, {0}
     10c:	3c193f00 	ldccc	15, cr3, [r9], {-0}
     110:	030e6e19 	movweq	r6, #60953	; 0xee19
     114:	3b0b3a0e 	blcc	2ce954 <__bss_end__+0x2c4d0c>
     118:	000b390b 	andeq	r3, fp, fp, lsl #18
     11c:	11010000 	mrsne	r0, (UNDEF: 1)
     120:	130e2501 	movwne	r2, #58625	; 0xe501
     124:	1b0e030b 	blne	380d58 <__bss_end__+0x377110>
     128:	1201110e 	andne	r1, r1, #-2147483645	; 0x80000003
     12c:	00171006 	andseq	r1, r7, r6
     130:	00240200 	eoreq	r0, r4, r0, lsl #4
     134:	0b3e0b0b 	bleq	f82d68 <__bss_end__+0xf79120>
     138:	00000803 	andeq	r0, r0, r3, lsl #16
     13c:	0b002403 	bleq	9150 <kfree_pop+0x28>
     140:	030b3e0b 	movweq	r3, #48651	; 0xbe0b
     144:	0400000e 	streq	r0, [r0], #-14
     148:	19270115 	stmdbne	r7!, {r0, r2, r4, r8}
     14c:	13011349 	movwne	r1, #4937	; 0x1349
     150:	05050000 	streq	r0, [r5, #-0]
     154:	00134900 	andseq	r4, r3, r0, lsl #18
     158:	00340600 	eorseq	r0, r4, r0, lsl #12
     15c:	0b3a0e03 	bleq	e83970 <__bss_end__+0xe79d28>
     160:	0b390b3b 	bleq	e42e54 <__bss_end__+0xe3920c>
     164:	193f1349 	ldmdbne	pc!, {r0, r3, r6, r8, r9, ip}	; <UNPREDICTABLE>
     168:	0000193c 	andeq	r1, r0, ip, lsr r9
     16c:	0b000f07 	bleq	3d90 <__code_start__-0x4270>
     170:	0013490b 	andseq	r4, r3, fp, lsl #18
     174:	00260800 	eoreq	r0, r6, r0, lsl #16
     178:	00001349 	andeq	r1, r0, r9, asr #6
     17c:	03011709 	movweq	r1, #5897	; 0x1709
     180:	3a0b0b0e 	bcc	2c2dc0 <__bss_end__+0x2b9178>
     184:	390b3b0b 	stmdbcc	fp, {r0, r1, r3, r8, r9, fp, ip, sp}
     188:	0013010b 	andseq	r0, r3, fp, lsl #2
     18c:	000d0a00 	andeq	r0, sp, r0, lsl #20
     190:	0b3a0803 	bleq	e821a4 <__bss_end__+0xe7855c>
     194:	0b390b3b 	bleq	e42e88 <__bss_end__+0xe39240>
     198:	00001349 	andeq	r1, r0, r9, asr #6
     19c:	0b000f0b 	bleq	3dd0 <__code_start__-0x4230>
     1a0:	0c00000b 	stceq	0, cr0, [r0], {11}
     1a4:	19270015 	stmdbne	r7!, {r0, r2, r4}
     1a8:	130d0000 	movwne	r0, #53248	; 0xd000
     1ac:	3a0b0b01 	bcc	2c2db8 <__bss_end__+0x2b9170>
     1b0:	390b3b0b 	stmdbcc	fp, {r0, r1, r3, r8, r9, fp, ip, sp}
     1b4:	0013010b 	andseq	r0, r3, fp, lsl #2
     1b8:	000d0e00 	andeq	r0, sp, r0, lsl #28
     1bc:	0b3a0803 	bleq	e821d0 <__bss_end__+0xe78588>
     1c0:	0b390b3b 	bleq	e42eb4 <__bss_end__+0xe3926c>
     1c4:	0b381349 	bleq	e04ef0 <__bss_end__+0xdfb2a8>
     1c8:	0d0f0000 	stceq	0, cr0, [pc, #-0]	; 1d0 <__code_start__-0x7e30>
     1cc:	3a0e0300 	bcc	380dd4 <__bss_end__+0x37718c>
     1d0:	390b3b0b 	stmdbcc	fp, {r0, r1, r3, r8, r9, fp, ip, sp}
     1d4:	3813490b 	ldmdacc	r3, {r0, r1, r3, r8, fp, lr}
     1d8:	1000000b 	andne	r0, r0, fp
     1dc:	0e030016 	mcreq	0, 0, r0, cr3, cr6, {0}
     1e0:	0b3b0b3a 	bleq	ec2ed0 <__bss_end__+0xeb9288>
     1e4:	13490b39 	movtne	r0, #39737	; 0x9b39
     1e8:	34110000 	ldrcc	r0, [r1], #-0
     1ec:	3a0e0300 	bcc	380df4 <__bss_end__+0x3771ac>
     1f0:	390b3b0b 	stmdbcc	fp, {r0, r1, r3, r8, r9, fp, ip, sp}
     1f4:	0213490b 	andseq	r4, r3, #180224	; 0x2c000
     1f8:	12000018 	andne	r0, r0, #24, 0
     1fc:	193f012e 	ldmdbne	pc!, {r1, r2, r3, r5, r8}	; <UNPREDICTABLE>
     200:	0b3a0e03 	bleq	e83a14 <__bss_end__+0xe79dcc>
     204:	0b390b3b 	bleq	e42ef8 <__bss_end__+0xe392b0>
     208:	01111927 	tsteq	r1, r7, lsr #18
     20c:	18400612 	stmdane	r0, {r1, r4, r9, sl}^
     210:	01194297 			; <UNDEFINED> instruction: 0x01194297
     214:	13000013 	movwne	r0, #19
     218:	08030005 	stmdaeq	r3, {r0, r2}
     21c:	0b3b0b3a 	bleq	ec2f0c <__bss_end__+0xeb92c4>
     220:	13490b39 	movtne	r0, #39737	; 0x9b39
     224:	00001802 	andeq	r1, r0, r2, lsl #16
     228:	03003414 	movweq	r3, #1044	; 0x414
     22c:	3b0b3a08 	blcc	2cea54 <__bss_end__+0x2c4e0c>
     230:	490b390b 	stmdbmi	fp, {r0, r1, r3, r8, fp, ip, sp}
     234:	b7170213 			; <UNDEFINED> instruction: 0xb7170213
     238:	00001742 	andeq	r1, r0, r2, asr #14
     23c:	3f012e15 	svccc	0x00012e15
     240:	3a0e0319 	bcc	380eac <__bss_end__+0x377264>
     244:	390b3b0b 	stmdbcc	fp, {r0, r1, r3, r8, r9, fp, ip, sp}
     248:	4919270b 	ldmdbmi	r9, {r0, r1, r3, r8, r9, sl, sp}
     24c:	12011113 	andne	r1, r1, #-1073741820	; 0xc0000004
     250:	97184006 	ldrls	r4, [r8, -r6]
     254:	13011942 	movwne	r1, #6466	; 0x1942
     258:	05160000 	ldreq	r0, [r6, #-0]
     25c:	3a0e0300 	bcc	380e64 <__bss_end__+0x37721c>
     260:	390b3b0b 	stmdbcc	fp, {r0, r1, r3, r8, r9, fp, ip, sp}
     264:	0213490b 	andseq	r4, r3, #180224	; 0x2c000
     268:	1742b717 	smlaldne	fp, r2, r7, r7
     26c:	34170000 	ldrcc	r0, [r7], #-0
     270:	3a0e0300 	bcc	380e78 <__bss_end__+0x377230>
     274:	390b3b0b 	stmdbcc	fp, {r0, r1, r3, r8, r9, fp, ip, sp}
     278:	0213490b 	andseq	r4, r3, #180224	; 0x2c000
     27c:	1742b717 	smlaldne	fp, r2, r7, r7
     280:	2e180000 	cdpcs	0, 1, cr0, cr8, cr0, {0}
     284:	03193f01 	tsteq	r9, #1, 30
     288:	3b0b3a0e 	blcc	2ceac8 <__bss_end__+0x2c4e80>
     28c:	270b390b 	strcs	r3, [fp, -fp, lsl #18]
     290:	3c134919 			; <UNDEFINED> instruction: 0x3c134919
     294:	00130119 	andseq	r0, r3, r9, lsl r1
     298:	82891900 	addhi	r1, r9, #0, 18
     29c:	01110101 	tsteq	r1, r1, lsl #2
     2a0:	00001331 	andeq	r1, r0, r1, lsr r3
     2a4:	01828a1a 	orreq	r8, r2, sl, lsl sl
     2a8:	91180200 	tstls	r8, r0, lsl #4
     2ac:	00001842 	andeq	r1, r0, r2, asr #16
     2b0:	03012e1b 	movweq	r2, #7707	; 0x1e1b
     2b4:	3b0b3a0e 	blcc	2ceaf4 <__bss_end__+0x2c4eac>
     2b8:	270b390b 	strcs	r3, [fp, -fp, lsl #18]
     2bc:	11134919 	tstne	r3, r9, lsl r9
     2c0:	40061201 	andmi	r1, r6, r1, lsl #4
     2c4:	19429718 	stmdbne	r2, {r3, r4, r8, r9, sl, ip, pc}^
     2c8:	00001301 	andeq	r1, r0, r1, lsl #6
     2cc:	0300051c 	movweq	r0, #1308	; 0x51c
     2d0:	3b0b3a08 	blcc	2ceaf8 <__bss_end__+0x2c4eb0>
     2d4:	490b390b 	stmdbmi	fp, {r0, r1, r3, r8, fp, ip, sp}
     2d8:	b7170213 			; <UNDEFINED> instruction: 0xb7170213
     2dc:	00001742 	andeq	r1, r0, r2, asr #14
     2e0:	0182891d 	orreq	r8, r2, sp, lsl r9
     2e4:	31011101 	tstcc	r1, r1, lsl #2
     2e8:	00130113 	andseq	r0, r3, r3, lsl r1
     2ec:	82891e00 	addhi	r1, r9, #0, 28
     2f0:	01110001 	tsteq	r1, r1
     2f4:	00001331 	andeq	r1, r0, r1, lsr r3
     2f8:	3f002e1f 	svccc	0x00002e1f
     2fc:	6e193c19 	mrcvs	12, 0, r3, cr9, cr9, {0}
     300:	3a0e030e 	bcc	380f40 <__bss_end__+0x3772f8>
     304:	390b3b0b 	stmdbcc	fp, {r0, r1, r3, r8, r9, fp, ip, sp}
     308:	0000000b 	andeq	r0, r0, fp
     30c:	25011101 	strcs	r1, [r1, #-257]	; 0xfffffeff
     310:	030b130e 	movweq	r1, #45838	; 0xb30e
     314:	110e1b0e 	tstne	lr, lr, lsl #22
     318:	10061201 	andne	r1, r6, r1, lsl #4
     31c:	02000017 	andeq	r0, r0, #23, 0
     320:	0b0b0024 	bleq	2c03b8 <__bss_end__+0x2b6770>
     324:	08030b3e 	stmdaeq	r3, {r1, r2, r3, r4, r5, r8, r9, fp}
     328:	24030000 	strcs	r0, [r3], #-0
     32c:	3e0b0b00 	vmlacc.f64	d0, d11, d0
     330:	000e030b 	andeq	r0, lr, fp, lsl #6
     334:	01150400 	tsteq	r5, r0, lsl #8
     338:	13491927 	movtne	r1, #39207	; 0x9927
     33c:	00001301 	andeq	r1, r0, r1, lsl #6
     340:	49000505 	stmdbmi	r0, {r0, r2, r8, sl}
     344:	06000013 			; <UNDEFINED> instruction: 0x06000013
     348:	0e030034 	mcreq	0, 0, r0, cr3, cr4, {1}
     34c:	0b3b0b3a 	bleq	ec303c <__bss_end__+0xeb93f4>
     350:	13490b39 	movtne	r0, #39737	; 0x9b39
     354:	193c193f 	ldmdbne	ip!, {r0, r1, r2, r3, r4, r5, r8, fp, ip}
     358:	0f070000 	svceq	0x00070000
     35c:	490b0b00 	stmdbmi	fp, {r8, r9, fp}
     360:	08000013 	stmdaeq	r0, {r0, r1, r4}
     364:	13490026 	movtne	r0, #36902	; 0x9026
     368:	2e090000 	cdpcs	0, 0, cr0, cr9, cr0, {0}
     36c:	03193f01 	tsteq	r9, #1, 30
     370:	3b0b3a0e 	blcc	2cebb0 <__bss_end__+0x2c4f68>
     374:	270b390b 	strcs	r3, [fp, -fp, lsl #18]
     378:	11134919 	tstne	r3, r9, lsl r9
     37c:	40061201 	andmi	r1, r6, r1, lsl #4
     380:	19429718 	stmdbne	r2, {r3, r4, r8, r9, sl, ip, pc}^
     384:	00001301 	andeq	r1, r0, r1, lsl #6
     388:	0300050a 	movweq	r0, #1290	; 0x50a
     38c:	3b0b3a0e 	blcc	2cebcc <__bss_end__+0x2c4f84>
     390:	490b390b 	stmdbmi	fp, {r0, r1, r3, r8, fp, ip, sp}
     394:	b7170213 			; <UNDEFINED> instruction: 0xb7170213
     398:	00001742 	andeq	r1, r0, r2, asr #14
     39c:	0182890b 	orreq	r8, r2, fp, lsl #18
     3a0:	31011101 	tstcc	r1, r1, lsl #2
     3a4:	0c000013 	stceq	0, cr0, [r0], {19}
     3a8:	0001828a 	andeq	r8, r1, sl, lsl #5
     3ac:	42911802 	addsmi	r1, r1, #131072	; 0x20000
     3b0:	0d000018 	stceq	0, cr0, [r0, #-96]	; 0xffffffa0
     3b4:	0b0b000f 	bleq	2c03f8 <__bss_end__+0x2b67b0>
     3b8:	2e0e0000 	cdpcs	0, 0, cr0, cr14, cr0, {0}
     3bc:	3c193f00 	ldccc	15, cr3, [r9], {-0}
     3c0:	030e6e19 	movweq	r6, #60953	; 0xee19
     3c4:	3b0b3a0e 	blcc	2cec04 <__bss_end__+0x2c4fbc>
     3c8:	000b390b 	andeq	r3, fp, fp, lsl #18
     3cc:	11010000 	mrsne	r0, (UNDEF: 1)
     3d0:	130e2501 	movwne	r2, #58625	; 0xe501
     3d4:	1b0e030b 	blne	381008 <__bss_end__+0x3773c0>
     3d8:	1201110e 	andne	r1, r1, #-2147483645	; 0x80000003
     3dc:	00171006 	andseq	r1, r7, r6
     3e0:	00160200 	andseq	r0, r6, r0, lsl #4
     3e4:	0b3a0e03 	bleq	e83bf8 <__bss_end__+0xe79fb0>
     3e8:	0b390b3b 	bleq	e430dc <__bss_end__+0xe39494>
     3ec:	00001349 	andeq	r1, r0, r9, asr #6
     3f0:	03011303 	movweq	r1, #4867	; 0x1303
     3f4:	3a0b0b0e 	bcc	2c3034 <__bss_end__+0x2b93ec>
     3f8:	010b3b0b 	tsteq	fp, fp, lsl #22
     3fc:	04000013 	streq	r0, [r0], #-19	; 0xffffffed
     400:	0e03000d 	cdpeq	0, 0, cr0, cr3, cr13, {0}
     404:	0b381349 	bleq	e05130 <__bss_end__+0xdfb4e8>
     408:	00001934 	andeq	r1, r0, r4, lsr r9
     40c:	0b000f05 	bleq	4028 <__code_start__-0x3fd8>
     410:	0600000b 	streq	r0, [r0], -fp
     414:	0b0b0024 	bleq	2c04ac <__bss_end__+0x2b6864>
     418:	08030b3e 	stmdaeq	r3, {r1, r2, r3, r4, r5, r8, r9, fp}
     41c:	24070000 	strcs	r0, [r7], #-0
     420:	3e0b0b00 	vmlacc.f64	d0, d11, d0
     424:	000e030b 	andeq	r0, lr, fp, lsl #6
     428:	01150800 	tsteq	r5, r0, lsl #16
     42c:	13491927 	movtne	r1, #39207	; 0x9927
     430:	00001301 	andeq	r1, r0, r1, lsl #6
     434:	49000509 	stmdbmi	r0, {r0, r3, r8, sl}
     438:	0a000013 	beq	48c <__code_start__-0x7b74>
     43c:	0e030034 	mcreq	0, 0, r0, cr3, cr4, {1}
     440:	0b3b0b3a 	bleq	ec3130 <__bss_end__+0xeb94e8>
     444:	13490b39 	movtne	r0, #39737	; 0x9b39
     448:	193c193f 	ldmdbne	ip!, {r0, r1, r2, r3, r4, r5, r8, fp, ip}
     44c:	0f0b0000 	svceq	0x000b0000
     450:	490b0b00 	stmdbmi	fp, {r8, r9, fp}
     454:	0c000013 	stceq	0, cr0, [r0], {19}
     458:	13490026 	movtne	r0, #36902	; 0x9026
     45c:	2e0d0000 	cdpcs	0, 0, cr0, cr13, cr0, {0}
     460:	03193f01 	tsteq	r9, #1, 30
     464:	3b0b3a0e 	blcc	2ceca4 <__bss_end__+0x2c505c>
     468:	270b390b 	strcs	r3, [fp, -fp, lsl #18]
     46c:	11134919 	tstne	r3, r9, lsl r9
     470:	40061201 	andmi	r1, r6, r1, lsl #4
     474:	19429718 	stmdbne	r2, {r3, r4, r8, r9, sl, ip, pc}^
     478:	00001301 	andeq	r1, r0, r1, lsl #6
     47c:	0300050e 	movweq	r0, #1294	; 0x50e
     480:	3b0b3a08 	blcc	2ceca8 <__bss_end__+0x2c5060>
     484:	490b390b 	stmdbmi	fp, {r0, r1, r3, r8, fp, ip, sp}
     488:	00180213 	andseq	r0, r8, r3, lsl r2
     48c:	00180f00 	andseq	r0, r8, r0, lsl #30
     490:	34100000 	ldrcc	r0, [r0], #-0
     494:	3a080300 	bcc	20109c <__bss_end__+0x1f7454>
     498:	390b3b0b 	stmdbcc	fp, {r0, r1, r3, r8, r9, fp, ip, sp}
     49c:	0213490b 	andseq	r4, r3, #180224	; 0x2c000
     4a0:	11000018 	tstne	r0, r8, lsl r0
     4a4:	0e030034 	mcreq	0, 0, r0, cr3, cr4, {1}
     4a8:	0b3b0b3a 	bleq	ec3198 <__bss_end__+0xeb9550>
     4ac:	13490b39 	movtne	r0, #39737	; 0x9b39
     4b0:	00001802 	andeq	r1, r0, r2, lsl #16
     4b4:	03003412 	movweq	r3, #1042	; 0x412
     4b8:	3b0b3a08 	blcc	2cece0 <__bss_end__+0x2c5098>
     4bc:	490b390b 	stmdbmi	fp, {r0, r1, r3, r8, fp, ip, sp}
     4c0:	b7170213 			; <UNDEFINED> instruction: 0xb7170213
     4c4:	00001742 	andeq	r1, r0, r2, asr #14
     4c8:	01828913 	orreq	r8, r2, r3, lsl r9
     4cc:	31011101 	tstcc	r1, r1, lsl #2
     4d0:	00130113 	andseq	r0, r3, r3, lsl r1
     4d4:	828a1400 	addhi	r1, sl, #0, 8
     4d8:	18020001 	stmdane	r2, {r0}
     4dc:	00184291 	mulseq	r8, r1, r2
     4e0:	82891500 	addhi	r1, r9, #0, 10
     4e4:	01110101 	tsteq	r1, r1, lsl #2
     4e8:	01160000 	tsteq	r6, r0
     4ec:	01134901 	tsteq	r3, r1, lsl #18
     4f0:	17000013 	smladne	r0, r3, r0, r0
     4f4:	13490021 	movtne	r0, #36897	; 0x9021
     4f8:	0000052f 	andeq	r0, r0, pc, lsr #10
     4fc:	3f002e18 	svccc	0x00002e18
     500:	6e193c19 	mrcvs	12, 0, r3, cr9, cr9, {0}
     504:	3a0e030e 	bcc	381144 <__bss_end__+0x3774fc>
     508:	390b3b0b 	stmdbcc	fp, {r0, r1, r3, r8, r9, fp, ip, sp}
     50c:	0000000b 	andeq	r0, r0, fp
     510:	25011101 	strcs	r1, [r1, #-257]	; 0xfffffeff
     514:	030b130e 	movweq	r1, #45838	; 0xb30e
     518:	110e1b0e 	tstne	lr, lr, lsl #22
     51c:	10061201 	andne	r1, r6, r1, lsl #4
     520:	02000017 	andeq	r0, r0, #23, 0
     524:	0b0b0024 	bleq	2c05bc <__bss_end__+0x2b6974>
     528:	08030b3e 	stmdaeq	r3, {r1, r2, r3, r4, r5, r8, r9, fp}
     52c:	24030000 	strcs	r0, [r3], #-0
     530:	3e0b0b00 	vmlacc.f64	d0, d11, d0
     534:	000e030b 	andeq	r0, lr, fp, lsl #6
     538:	01150400 	tsteq	r5, r0, lsl #8
     53c:	13491927 	movtne	r1, #39207	; 0x9927
     540:	00001301 	andeq	r1, r0, r1, lsl #6
     544:	49000505 	stmdbmi	r0, {r0, r2, r8, sl}
     548:	06000013 			; <UNDEFINED> instruction: 0x06000013
     54c:	0e030034 	mcreq	0, 0, r0, cr3, cr4, {1}
     550:	0b3b0b3a 	bleq	ec3240 <__bss_end__+0xeb95f8>
     554:	13490b39 	movtne	r0, #39737	; 0x9b39
     558:	193c193f 	ldmdbne	ip!, {r0, r1, r2, r3, r4, r5, r8, fp, ip}
     55c:	0f070000 	svceq	0x00070000
     560:	490b0b00 	stmdbmi	fp, {r8, r9, fp}
     564:	08000013 	stmdaeq	r0, {r0, r1, r4}
     568:	13490026 	movtne	r0, #36902	; 0x9026
     56c:	34090000 	strcc	r0, [r9], #-0
     570:	3a134700 	bcc	4d2178 <__bss_end__+0x4c8530>
     574:	390b3b0b 	stmdbcc	fp, {r0, r1, r3, r8, r9, fp, ip, sp}
     578:	0018020b 	andseq	r0, r8, fp, lsl #4
     57c:	012e0a00 			; <UNDEFINED> instruction: 0x012e0a00
     580:	0e03193f 			; <UNDEFINED> instruction: 0x0e03193f
     584:	0b3b0b3a 	bleq	ec3274 <__bss_end__+0xeb962c>
     588:	19270b39 	stmdbne	r7!, {r0, r3, r4, r5, r8, r9, fp}
     58c:	01111349 	tsteq	r1, r9, asr #6
     590:	18400612 	stmdane	r0, {r1, r4, r9, sl}^
     594:	00194296 	mulseq	r9, r6, r2
     598:	00050b00 	andeq	r0, r5, r0, lsl #22
     59c:	0b3a0803 	bleq	e825b0 <__bss_end__+0xe78968>
     5a0:	0b390b3b 	bleq	e43294 <__bss_end__+0xe3964c>
     5a4:	17021349 	strne	r1, [r2, -r9, asr #6]
     5a8:	001742b7 			; <UNDEFINED> instruction: 0x001742b7
     5ac:	11010000 	mrsne	r0, (UNDEF: 1)
     5b0:	130e2501 	movwne	r2, #58625	; 0xe501
     5b4:	1b0e030b 	blne	3811e8 <__bss_end__+0x3775a0>
     5b8:	1201110e 	andne	r1, r1, #-2147483645	; 0x80000003
     5bc:	00171006 	andseq	r1, r7, r6
     5c0:	00240200 	eoreq	r0, r4, r0, lsl #4
     5c4:	0b3e0b0b 	bleq	f831f8 <__bss_end__+0xf795b0>
     5c8:	00000803 	andeq	r0, r0, r3, lsl #16
     5cc:	0b002403 	bleq	95e0 <__FUNCTION__.3955+0x150>
     5d0:	030b3e0b 	movweq	r3, #48651	; 0xbe0b
     5d4:	0400000e 	streq	r0, [r0], #-14
     5d8:	0e030016 	mcreq	0, 0, r0, cr3, cr6, {0}
     5dc:	0b3b0b3a 	bleq	ec32cc <__bss_end__+0xeb9684>
     5e0:	13490b39 	movtne	r0, #39737	; 0x9b39
     5e4:	15050000 	strne	r0, [r5, #-0]
     5e8:	49192701 	ldmdbmi	r9, {r0, r8, r9, sl, sp}
     5ec:	00130113 	andseq	r0, r3, r3, lsl r1
     5f0:	00050600 	andeq	r0, r5, r0, lsl #12
     5f4:	00001349 	andeq	r1, r0, r9, asr #6
     5f8:	03003407 	movweq	r3, #1031	; 0x407
     5fc:	3b0b3a0e 	blcc	2cee3c <__bss_end__+0x2c51f4>
     600:	490b390b 	stmdbmi	fp, {r0, r1, r3, r8, fp, ip, sp}
     604:	3c193f13 	ldccc	15, cr3, [r9], {19}
     608:	08000019 	stmdaeq	r0, {r0, r3, r4}
     60c:	0b0b000f 	bleq	2c0650 <__bss_end__+0x2b6a08>
     610:	00001349 	andeq	r1, r0, r9, asr #6
     614:	49002609 	stmdbmi	r0, {r0, r3, r9, sl, sp}
     618:	0a000013 	beq	66c <__code_start__-0x7994>
     61c:	0e030113 	mcreq	1, 0, r0, cr3, cr3, {0}
     620:	0b3a0b0b 	bleq	e83254 <__bss_end__+0xe7960c>
     624:	13010b3b 	movwne	r0, #6971	; 0x1b3b
     628:	0d0b0000 	stceq	0, cr0, [fp, #-0]
     62c:	490e0300 	stmdbmi	lr, {r8, r9}
     630:	340b3813 	strcc	r3, [fp], #-2067	; 0xfffff7ed
     634:	0c000019 	stceq	0, cr0, [r0], {25}
     638:	0b0b000f 	bleq	2c067c <__bss_end__+0x2b6a34>
     63c:	2e0d0000 	cdpcs	0, 0, cr0, cr13, cr0, {0}
     640:	03193f01 	tsteq	r9, #1, 30
     644:	3b0b3a0e 	blcc	2cee84 <__bss_end__+0x2c523c>
     648:	270b390b 	strcs	r3, [fp, -fp, lsl #18]
     64c:	11134919 	tstne	r3, r9, lsl r9
     650:	40061201 	andmi	r1, r6, r1, lsl #4
     654:	19429718 	stmdbne	r2, {r3, r4, r8, r9, sl, ip, pc}^
     658:	00001301 	andeq	r1, r0, r1, lsl #6
     65c:	0300050e 	movweq	r0, #1294	; 0x50e
     660:	3b0b3a08 	blcc	2cee88 <__bss_end__+0x2c5240>
     664:	490b390b 	stmdbmi	fp, {r0, r1, r3, r8, fp, ip, sp}
     668:	b7170213 			; <UNDEFINED> instruction: 0xb7170213
     66c:	00001742 	andeq	r1, r0, r2, asr #14
     670:	0300050f 	movweq	r0, #1295	; 0x50f
     674:	3b0b3a0e 	blcc	2ceeb4 <__bss_end__+0x2c526c>
     678:	490b390b 	stmdbmi	fp, {r0, r1, r3, r8, fp, ip, sp}
     67c:	00180213 	andseq	r0, r8, r3, lsl r2
     680:	00341000 	eorseq	r1, r4, r0
     684:	0b3a0803 	bleq	e82698 <__bss_end__+0xe78a50>
     688:	0b390b3b 	bleq	e4337c <__bss_end__+0xe39734>
     68c:	17021349 	strne	r1, [r2, -r9, asr #6]
     690:	001742b7 			; <UNDEFINED> instruction: 0x001742b7
     694:	00341100 	eorseq	r1, r4, r0, lsl #2
     698:	0b3a0e03 	bleq	e83eac <__bss_end__+0xe7a264>
     69c:	0b390b3b 	bleq	e43390 <__bss_end__+0xe39748>
     6a0:	17021349 	strne	r1, [r2, -r9, asr #6]
     6a4:	001742b7 			; <UNDEFINED> instruction: 0x001742b7
     6a8:	00341200 	eorseq	r1, r4, r0, lsl #4
     6ac:	13490e03 	movtne	r0, #40451	; 0x9e03
     6b0:	18021934 	stmdane	r2, {r2, r4, r5, r8, fp, ip}
     6b4:	0b130000 	bleq	4c06bc <__bss_end__+0x4b6a74>
     6b8:	12011101 	andne	r1, r1, #1073741824	; 0x40000000
     6bc:	14000006 	strne	r0, [r0], #-6
     6c0:	08030034 	stmdaeq	r3, {r2, r4, r5}
     6c4:	0b3b0b3a 	bleq	ec33b4 <__bss_end__+0xeb976c>
     6c8:	13490b39 	movtne	r0, #39737	; 0x9b39
     6cc:	00001802 	andeq	r1, r0, r2, lsl #16
     6d0:	03003415 	movweq	r3, #1045	; 0x415
     6d4:	3b0b3a0e 	blcc	2cef14 <__bss_end__+0x2c52cc>
     6d8:	490b390b 	stmdbmi	fp, {r0, r1, r3, r8, fp, ip, sp}
     6dc:	00180213 	andseq	r0, r8, r3, lsl r2
     6e0:	010b1600 	tsteq	fp, r0, lsl #12
     6e4:	06120111 			; <UNDEFINED> instruction: 0x06120111
     6e8:	00001301 	andeq	r1, r0, r1, lsl #6
     6ec:	03003417 	movweq	r3, #1047	; 0x417
     6f0:	3b0b3a08 	blcc	2cef18 <__bss_end__+0x2c52d0>
     6f4:	490b390b 	stmdbmi	fp, {r0, r1, r3, r8, fp, ip, sp}
     6f8:	18000013 	stmdane	r0, {r0, r1, r4}
     6fc:	01018289 	smlabbeq	r1, r9, r2, r8
     700:	13310111 	teqne	r1, #1073741828	; 0x40000004
     704:	00001301 	andeq	r1, r0, r1, lsl #6
     708:	01828a19 	orreq	r8, r2, r9, lsl sl
     70c:	91180200 	tstls	r8, r0, lsl #4
     710:	00001842 	andeq	r1, r0, r2, asr #16
     714:	0182891a 	orreq	r8, r2, sl, lsl r9
     718:	31011100 	mrscc	r1, (UNDEF: 17)
     71c:	1b000013 	blne	770 <__code_start__-0x7890>
     720:	01018289 	smlabbeq	r1, r9, r2, r8
     724:	13010111 	movwne	r0, #4369	; 0x1111
     728:	011c0000 	tsteq	ip, r0
     72c:	01134901 	tsteq	r3, r1, lsl #18
     730:	1d000013 	stcne	0, cr0, [r0, #-76]	; 0xffffffb4
     734:	13490021 	movtne	r0, #36897	; 0x9021
     738:	00000b2f 	andeq	r0, r0, pc, lsr #22
     73c:	03012e1e 	movweq	r2, #7710	; 0x1e1e
     740:	3b0b3a0e 	blcc	2cef80 <__bss_end__+0x2c5338>
     744:	270b390b 	strcs	r3, [fp, -fp, lsl #18]
     748:	11134919 	tstne	r3, r9, lsl r9
     74c:	40061201 	andmi	r1, r6, r1, lsl #4
     750:	19429718 	stmdbne	r2, {r3, r4, r8, r9, sl, ip, pc}^
     754:	00001301 	andeq	r1, r0, r1, lsl #6
     758:	0300051f 	movweq	r0, #1311	; 0x51f
     75c:	3b0b3a0e 	blcc	2cef9c <__bss_end__+0x2c5354>
     760:	490b390b 	stmdbmi	fp, {r0, r1, r3, r8, fp, ip, sp}
     764:	b7170213 			; <UNDEFINED> instruction: 0xb7170213
     768:	00001742 	andeq	r1, r0, r2, asr #14
     76c:	03012e20 	movweq	r2, #7712	; 0x1e20
     770:	3b0b3a08 	blcc	2cef98 <__bss_end__+0x2c5350>
     774:	270b390b 	strcs	r3, [fp, -fp, lsl #18]
     778:	11134919 	tstne	r3, r9, lsl r9
     77c:	40061201 	andmi	r1, r6, r1, lsl #4
     780:	19429718 	stmdbne	r2, {r3, r4, r8, r9, sl, ip, pc}^
     784:	00001301 	andeq	r1, r0, r1, lsl #6
     788:	3f012e21 	svccc	0x00012e21
     78c:	3a0e0319 	bcc	3813f8 <__bss_end__+0x3777b0>
     790:	390b3b0b 	stmdbcc	fp, {r0, r1, r3, r8, r9, fp, ip, sp}
     794:	1119270b 	tstne	r9, fp, lsl #14
     798:	40061201 	andmi	r1, r6, r1, lsl #4
     79c:	19429718 	stmdbne	r2, {r3, r4, r8, r9, sl, ip, pc}^
     7a0:	00001301 	andeq	r1, r0, r1, lsl #6
     7a4:	3f002e22 	svccc	0x00002e22
     7a8:	6e193c19 	mrcvs	12, 0, r3, cr9, cr9, {0}
     7ac:	3a0e030e 	bcc	3813ec <__bss_end__+0x3777a4>
     7b0:	390b3b0b 	stmdbcc	fp, {r0, r1, r3, r8, r9, fp, ip, sp}
     7b4:	0000000b 	andeq	r0, r0, fp
     7b8:	25011101 	strcs	r1, [r1, #-257]	; 0xfffffeff
     7bc:	030b130e 	movweq	r1, #45838	; 0xb30e
     7c0:	110e1b0e 	tstne	lr, lr, lsl #22
     7c4:	10061201 	andne	r1, r6, r1, lsl #4
     7c8:	02000017 	andeq	r0, r0, #23, 0
     7cc:	0b0b0024 	bleq	2c0864 <__bss_end__+0x2b6c1c>
     7d0:	08030b3e 	stmdaeq	r3, {r1, r2, r3, r4, r5, r8, r9, fp}
     7d4:	24030000 	strcs	r0, [r3], #-0
     7d8:	3e0b0b00 	vmlacc.f64	d0, d11, d0
     7dc:	000e030b 	andeq	r0, lr, fp, lsl #6
     7e0:	01150400 	tsteq	r5, r0, lsl #8
     7e4:	13491927 	movtne	r1, #39207	; 0x9927
     7e8:	00001301 	andeq	r1, r0, r1, lsl #6
     7ec:	49000505 	stmdbmi	r0, {r0, r2, r8, sl}
     7f0:	06000013 			; <UNDEFINED> instruction: 0x06000013
     7f4:	0e030034 	mcreq	0, 0, r0, cr3, cr4, {1}
     7f8:	0b3b0b3a 	bleq	ec34e8 <__bss_end__+0xeb98a0>
     7fc:	13490b39 	movtne	r0, #39737	; 0x9b39
     800:	193c193f 	ldmdbne	ip!, {r0, r1, r2, r3, r4, r5, r8, fp, ip}
     804:	0f070000 	svceq	0x00070000
     808:	490b0b00 	stmdbmi	fp, {r8, r9, fp}
     80c:	08000013 	stmdaeq	r0, {r0, r1, r4}
     810:	13490026 	movtne	r0, #36902	; 0x9026
     814:	2e090000 	cdpcs	0, 0, cr0, cr9, cr0, {0}
     818:	03193f01 	tsteq	r9, #1, 30
     81c:	3b0b3a0e 	blcc	2cf05c <__bss_end__+0x2c5414>
     820:	270b390b 	strcs	r3, [fp, -fp, lsl #18]
     824:	19018719 	stmdbne	r1, {r0, r3, r4, r8, r9, sl, pc}
     828:	06120111 			; <UNDEFINED> instruction: 0x06120111
     82c:	42971840 	addsmi	r1, r7, #64, 16	; 0x400000
     830:	00130119 	andseq	r0, r3, r9, lsl r1
     834:	82890a00 	addhi	r0, r9, #0, 20
     838:	01110101 	tsteq	r1, r1, lsl #2
     83c:	00001301 	andeq	r1, r0, r1, lsl #6
     840:	01828a0b 	orreq	r8, r2, fp, lsl #20
     844:	91180200 	tstls	r8, r0, lsl #4
     848:	00001842 	andeq	r1, r0, r2, asr #16
     84c:	0182890c 	orreq	r8, r2, ip, lsl #18
     850:	31011100 	mrscc	r1, (UNDEF: 17)
     854:	0d000013 	stceq	0, cr0, [r0, #-76]	; 0xffffffb4
     858:	01018289 	smlabbeq	r1, r9, r2, r8
     85c:	13310111 	teqne	r1, #1073741828	; 0x40000004
     860:	00001301 	andeq	r1, r0, r1, lsl #6
     864:	3f002e0e 	svccc	0x00002e0e
     868:	6e193c19 	mrcvs	12, 0, r3, cr9, cr9, {0}
     86c:	3a0e030e 	bcc	3814ac <__bss_end__+0x377864>
     870:	390b3b0b 	stmdbcc	fp, {r0, r1, r3, r8, r9, fp, ip, sp}
     874:	0000000b 	andeq	r0, r0, fp
     878:	25011101 	strcs	r1, [r1, #-257]	; 0xfffffeff
     87c:	030b130e 	movweq	r1, #45838	; 0xb30e
     880:	110e1b0e 	tstne	lr, lr, lsl #22
     884:	10061201 	andne	r1, r6, r1, lsl #4
     888:	02000017 	andeq	r0, r0, #23, 0
     88c:	0b0b0024 	bleq	2c0924 <__bss_end__+0x2b6cdc>
     890:	08030b3e 	stmdaeq	r3, {r1, r2, r3, r4, r5, r8, r9, fp}
     894:	24030000 	strcs	r0, [r3], #-0
     898:	3e0b0b00 	vmlacc.f64	d0, d11, d0
     89c:	000e030b 	andeq	r0, lr, fp, lsl #6
     8a0:	01150400 	tsteq	r5, r0, lsl #8
     8a4:	13491927 	movtne	r1, #39207	; 0x9927
     8a8:	00001301 	andeq	r1, r0, r1, lsl #6
     8ac:	49000505 	stmdbmi	r0, {r0, r2, r8, sl}
     8b0:	06000013 			; <UNDEFINED> instruction: 0x06000013
     8b4:	0e030034 	mcreq	0, 0, r0, cr3, cr4, {1}
     8b8:	0b3b0b3a 	bleq	ec35a8 <__bss_end__+0xeb9960>
     8bc:	13490b39 	movtne	r0, #39737	; 0x9b39
     8c0:	193c193f 	ldmdbne	ip!, {r0, r1, r2, r3, r4, r5, r8, fp, ip}
     8c4:	0f070000 	svceq	0x00070000
     8c8:	490b0b00 	stmdbmi	fp, {r8, r9, fp}
     8cc:	08000013 	stmdaeq	r0, {r0, r1, r4}
     8d0:	13490026 	movtne	r0, #36902	; 0x9026
     8d4:	2e090000 	cdpcs	0, 0, cr0, cr9, cr0, {0}
     8d8:	03193f01 	tsteq	r9, #1, 30
     8dc:	3b0b3a0e 	blcc	2cf11c <__bss_end__+0x2c54d4>
     8e0:	110b390b 	tstne	fp, fp, lsl #18
     8e4:	40061201 	andmi	r1, r6, r1, lsl #4
     8e8:	19429718 	stmdbne	r2, {r3, r4, r8, r9, sl, ip, pc}^
     8ec:	00001301 	andeq	r1, r0, r1, lsl #6
     8f0:	3f002e0a 	svccc	0x00002e0a
     8f4:	3a0e0319 	bcc	381560 <__bss_end__+0x377918>
     8f8:	390b3b0b 	stmdbcc	fp, {r0, r1, r3, r8, r9, fp, ip, sp}
     8fc:	3c19270b 	ldccc	7, cr2, [r9], {11}
     900:	0b000019 	bleq	96c <__code_start__-0x7694>
     904:	08030034 	stmdaeq	r3, {r2, r4, r5}
     908:	0b3b0b3a 	bleq	ec35f8 <__bss_end__+0xeb99b0>
     90c:	13490b39 	movtne	r0, #39737	; 0x9b39
     910:	42b71702 	adcsmi	r1, r7, #524288	; 0x80000
     914:	0c000017 	stceq	0, cr0, [r0], {23}
     918:	0e030034 	mcreq	0, 0, r0, cr3, cr4, {1}
     91c:	0b3b0b3a 	bleq	ec360c <__bss_end__+0xeb99c4>
     920:	13490b39 	movtne	r0, #39737	; 0x9b39
     924:	0b0d0000 	bleq	34092c <__bss_end__+0x336ce4>
     928:	12011101 	andne	r1, r1, #1073741824	; 0x40000000
     92c:	00130106 	andseq	r0, r3, r6, lsl #2
     930:	00340e00 	eorseq	r0, r4, r0, lsl #28
     934:	0b3a0803 	bleq	e82948 <__bss_end__+0xe78d00>
     938:	0b390b3b 	bleq	e4362c <__bss_end__+0xe399e4>
     93c:	0b1c1349 	bleq	705668 <__bss_end__+0x6fba20>
     940:	890f0000 	stmdbhi	pc, {}	; <UNPREDICTABLE>
     944:	11000182 	smlabbne	r0, r2, r1, r0
     948:	00133101 	andseq	r3, r3, r1, lsl #2
     94c:	002e1000 	eoreq	r1, lr, r0
     950:	193c193f 	ldmdbne	ip!, {r0, r1, r2, r3, r4, r5, r8, fp, ip}
     954:	0e030e6e 	cdpeq	14, 0, cr0, cr3, cr14, {3}
     958:	053b0b3a 	ldreq	r0, [fp, #-2874]!	; 0xfffff4c6
     95c:	00000b39 	andeq	r0, r0, r9, lsr fp
     960:	3f002e11 	svccc	0x00002e11
     964:	6e193c19 	mrcvs	12, 0, r3, cr9, cr9, {0}
     968:	3a0e030e 	bcc	3815a8 <__bss_end__+0x377960>
     96c:	390b3b0b 	stmdbcc	fp, {r0, r1, r3, r8, r9, fp, ip, sp}
     970:	0000000b 	andeq	r0, r0, fp
     974:	25011101 	strcs	r1, [r1, #-257]	; 0xfffffeff
     978:	030b130e 	movweq	r1, #45838	; 0xb30e
     97c:	110e1b0e 	tstne	lr, lr, lsl #22
     980:	10061201 	andne	r1, r6, r1, lsl #4
     984:	02000017 	andeq	r0, r0, #23, 0
     988:	0b0b0024 	bleq	2c0a20 <__bss_end__+0x2b6dd8>
     98c:	08030b3e 	stmdaeq	r3, {r1, r2, r3, r4, r5, r8, r9, fp}
     990:	24030000 	strcs	r0, [r3], #-0
     994:	3e0b0b00 	vmlacc.f64	d0, d11, d0
     998:	000e030b 	andeq	r0, lr, fp, lsl #6
     99c:	01150400 	tsteq	r5, r0, lsl #8
     9a0:	13491927 	movtne	r1, #39207	; 0x9927
     9a4:	00001301 	andeq	r1, r0, r1, lsl #6
     9a8:	49000505 	stmdbmi	r0, {r0, r2, r8, sl}
     9ac:	06000013 			; <UNDEFINED> instruction: 0x06000013
     9b0:	0e030034 	mcreq	0, 0, r0, cr3, cr4, {1}
     9b4:	0b3b0b3a 	bleq	ec36a4 <__bss_end__+0xeb9a5c>
     9b8:	13490b39 	movtne	r0, #39737	; 0x9b39
     9bc:	193c193f 	ldmdbne	ip!, {r0, r1, r2, r3, r4, r5, r8, fp, ip}
     9c0:	0f070000 	svceq	0x00070000
     9c4:	490b0b00 	stmdbmi	fp, {r8, r9, fp}
     9c8:	08000013 	stmdaeq	r0, {r0, r1, r4}
     9cc:	13490026 	movtne	r0, #36902	; 0x9026
     9d0:	2e090000 	cdpcs	0, 0, cr0, cr9, cr0, {0}
     9d4:	03193f00 	tsteq	r9, #0, 30
     9d8:	3b0b3a0e 	blcc	2cf218 <__bss_end__+0x2c55d0>
     9dc:	270b390b 	strcs	r3, [fp, -fp, lsl #18]
     9e0:	12011119 	andne	r1, r1, #1073741830	; 0x40000006
     9e4:	97184006 	ldrls	r4, [r8, -r6]
     9e8:	00001942 	andeq	r1, r0, r2, asr #18
     9ec:	01110100 	tsteq	r1, r0, lsl #2
     9f0:	0b130e25 	bleq	4c428c <__bss_end__+0x4ba644>
     9f4:	0e1b0e03 	cdpeq	14, 1, cr0, cr11, cr3, {0}
     9f8:	01111755 	tsteq	r1, r5, asr r7
     9fc:	00001710 	andeq	r1, r0, r0, lsl r7
     a00:	0b002402 	bleq	9a10 <buf.3948+0x1d0>
     a04:	030b3e0b 	movweq	r3, #48651	; 0xbe0b
     a08:	03000008 	movweq	r0, #8
     a0c:	13490026 	movtne	r0, #36902	; 0x9026
     a10:	24040000 	strcs	r0, [r4], #-0
     a14:	3e0b0b00 	vmlacc.f64	d0, d11, d0
     a18:	000e030b 	andeq	r0, lr, fp, lsl #6
     a1c:	01150500 	tsteq	r5, r0, lsl #10
     a20:	13491927 	movtne	r1, #39207	; 0x9927
     a24:	00001301 	andeq	r1, r0, r1, lsl #6
     a28:	49000506 	stmdbmi	r0, {r1, r2, r8, sl}
     a2c:	07000013 	smladeq	r0, r3, r0, r0
     a30:	0e030034 	mcreq	0, 0, r0, cr3, cr4, {1}
     a34:	0b3b0b3a 	bleq	ec3724 <__bss_end__+0xeb9adc>
     a38:	13490b39 	movtne	r0, #39737	; 0x9b39
     a3c:	193c193f 	ldmdbne	ip!, {r0, r1, r2, r3, r4, r5, r8, fp, ip}
     a40:	0f080000 	svceq	0x00080000
     a44:	490b0b00 	stmdbmi	fp, {r8, r9, fp}
     a48:	09000013 	stmdbeq	r0, {r0, r1, r4}
     a4c:	0e030034 	mcreq	0, 0, r0, cr3, cr4, {1}
     a50:	0b3b0b3a 	bleq	ec3740 <__bss_end__+0xeb9af8>
     a54:	13490b39 	movtne	r0, #39737	; 0x9b39
     a58:	2e0a0000 	cdpcs	0, 0, cr0, cr10, cr0, {0}
     a5c:	03193f01 	tsteq	r9, #1, 30
     a60:	3b0b3a0e 	blcc	2cf2a0 <__bss_end__+0x2c5658>
     a64:	270b390b 	strcs	r3, [fp, -fp, lsl #18]
     a68:	19018719 	stmdbne	r1, {r0, r3, r4, r8, r9, sl, pc}
     a6c:	06120111 			; <UNDEFINED> instruction: 0x06120111
     a70:	42971840 	addsmi	r1, r7, #64, 16	; 0x400000
     a74:	00130119 	andseq	r0, r3, r9, lsl r1
     a78:	00340b00 	eorseq	r0, r4, r0, lsl #22
     a7c:	0b3a0e03 	bleq	e84290 <__bss_end__+0xe7a648>
     a80:	0b390b3b 	bleq	e43774 <__bss_end__+0xe39b2c>
     a84:	17021349 	strne	r1, [r2, -r9, asr #6]
     a88:	001742b7 			; <UNDEFINED> instruction: 0x001742b7
     a8c:	82890c00 	addhi	r0, r9, #0, 24
     a90:	01110001 	tsteq	r1, r1
     a94:	00001331 	andeq	r1, r0, r1, lsr r3
     a98:	0182890d 	orreq	r8, r2, sp, lsl #18
     a9c:	31011101 	tstcc	r1, r1, lsl #2
     aa0:	00130113 	andseq	r0, r3, r3, lsl r1
     aa4:	828a0e00 	addhi	r0, sl, #0, 28
     aa8:	18020001 	stmdane	r2, {r0}
     aac:	00184291 	mulseq	r8, r1, r2
     ab0:	012e0f00 			; <UNDEFINED> instruction: 0x012e0f00
     ab4:	0e03193f 			; <UNDEFINED> instruction: 0x0e03193f
     ab8:	0b3b0b3a 	bleq	ec37a8 <__bss_end__+0xeb9b60>
     abc:	19270b39 	stmdbne	r7!, {r0, r3, r4, r5, r8, r9, fp}
     ac0:	06120111 			; <UNDEFINED> instruction: 0x06120111
     ac4:	42971840 	addsmi	r1, r7, #64, 16	; 0x400000
     ac8:	00130119 	andseq	r0, r3, r9, lsl r1
     acc:	012e1000 			; <UNDEFINED> instruction: 0x012e1000
     ad0:	0e03193f 			; <UNDEFINED> instruction: 0x0e03193f
     ad4:	0b3b0b3a 	bleq	ec37c4 <__bss_end__+0xeb9b7c>
     ad8:	19270b39 	stmdbne	r7!, {r0, r3, r4, r5, r8, r9, fp}
     adc:	01111349 	tsteq	r1, r9, asr #6
     ae0:	18400612 	stmdane	r0, {r1, r4, r9, sl}^
     ae4:	01194297 			; <UNDEFINED> instruction: 0x01194297
     ae8:	11000013 	tstne	r0, r3, lsl r0
     aec:	193f002e 	ldmdbne	pc!, {r1, r2, r3, r5}	; <UNPREDICTABLE>
     af0:	0e6e193c 			; <UNDEFINED> instruction: 0x0e6e193c
     af4:	0b3a0e03 	bleq	e84308 <__bss_end__+0xe7a6c0>
     af8:	0b39053b 	bleq	e41fec <__bss_end__+0xe383a4>
     afc:	2e120000 	cdpcs	0, 1, cr0, cr2, cr0, {0}
     b00:	3c193f00 	ldccc	15, cr3, [r9], {-0}
     b04:	030e6e19 	movweq	r6, #60953	; 0xee19
     b08:	3b0b3a0e 	blcc	2cf348 <__bss_end__+0x2c5700>
     b0c:	000b390b 	andeq	r3, fp, fp, lsl #18
     b10:	11010000 	mrsne	r0, (UNDEF: 1)
     b14:	130e2501 	movwne	r2, #58625	; 0xe501
     b18:	1b0e030b 	blne	38174c <__bss_end__+0x377b04>
     b1c:	1201110e 	andne	r1, r1, #-2147483645	; 0x80000003
     b20:	00171006 	andseq	r1, r7, r6
     b24:	00240200 	eoreq	r0, r4, r0, lsl #4
     b28:	0b3e0b0b 	bleq	f8375c <__bss_end__+0xf79b14>
     b2c:	00000803 	andeq	r0, r0, r3, lsl #16
     b30:	0b002403 	bleq	9b44 <buf.3948+0x304>
     b34:	030b3e0b 	movweq	r3, #48651	; 0xbe0b
     b38:	0400000e 	streq	r0, [r0], #-14
     b3c:	19270115 	stmdbne	r7!, {r0, r2, r4, r8}
     b40:	13011349 	movwne	r1, #4937	; 0x1349
     b44:	05050000 	streq	r0, [r5, #-0]
     b48:	00134900 	andseq	r4, r3, r0, lsl #18
     b4c:	00340600 	eorseq	r0, r4, r0, lsl #12
     b50:	0b3a0e03 	bleq	e84364 <__bss_end__+0xe7a71c>
     b54:	0b390b3b 	bleq	e43848 <__bss_end__+0xe39c00>
     b58:	193f1349 	ldmdbne	pc!, {r0, r3, r6, r8, r9, ip}	; <UNPREDICTABLE>
     b5c:	0000193c 	andeq	r1, r0, ip, lsr r9
     b60:	0b000f07 	bleq	4784 <__code_start__-0x387c>
     b64:	0013490b 	andseq	r4, r3, fp, lsl #18
     b68:	00260800 	eoreq	r0, r6, r0, lsl #16
     b6c:	00001349 	andeq	r1, r0, r9, asr #6
     b70:	3f012e09 	svccc	0x00012e09
     b74:	3a0e0319 	bcc	3817e0 <__bss_end__+0x377b98>
     b78:	390b3b0b 	stmdbcc	fp, {r0, r1, r3, r8, r9, fp, ip, sp}
     b7c:	1119270b 	tstne	r9, fp, lsl #14
     b80:	40061201 	andmi	r1, r6, r1, lsl #4
     b84:	19429718 	stmdbne	r2, {r3, r4, r8, r9, sl, ip, pc}^
     b88:	00001301 	andeq	r1, r0, r1, lsl #6
     b8c:	0300050a 	movweq	r0, #1290	; 0x50a
     b90:	3b0b3a08 	blcc	2cf3b8 <__bss_end__+0x2c5770>
     b94:	490b390b 	stmdbmi	fp, {r0, r1, r3, r8, fp, ip, sp}
     b98:	b7170213 			; <UNDEFINED> instruction: 0xb7170213
     b9c:	00001742 	andeq	r1, r0, r2, asr #14
     ba0:	0182890b 	orreq	r8, r2, fp, lsl #18
     ba4:	31011101 	tstcc	r1, r1, lsl #2
     ba8:	0c000013 	stceq	0, cr0, [r0], {19}
     bac:	0001828a 	andeq	r8, r1, sl, lsl #5
     bb0:	42911802 	addsmi	r1, r1, #131072	; 0x20000
     bb4:	0d000018 	stceq	0, cr0, [r0, #-96]	; 0xffffffa0
     bb8:	08030034 	stmdaeq	r3, {r2, r4, r5}
     bbc:	0b3b0b3a 	bleq	ec38ac <__bss_end__+0xeb9c64>
     bc0:	13490b39 	movtne	r0, #39737	; 0x9b39
     bc4:	42b71702 	adcsmi	r1, r7, #524288	; 0x80000
     bc8:	0e000017 	mcreq	0, 0, r0, cr0, cr7, {0}
     bcc:	0111010b 	tsteq	r1, fp, lsl #2
     bd0:	13010612 	movwne	r0, #5650	; 0x1612
     bd4:	890f0000 	stmdbhi	pc, {}	; <UNPREDICTABLE>
     bd8:	11000182 	smlabbne	r0, r2, r1, r0
     bdc:	00133101 	andseq	r3, r3, r1, lsl #2
     be0:	012e1000 			; <UNDEFINED> instruction: 0x012e1000
     be4:	0e03193f 			; <UNDEFINED> instruction: 0x0e03193f
     be8:	0b3b0b3a 	bleq	ec38d8 <__bss_end__+0xeb9c90>
     bec:	19270b39 	stmdbne	r7!, {r0, r3, r4, r5, r8, r9, fp}
     bf0:	01111349 	tsteq	r1, r9, asr #6
     bf4:	18400612 	stmdane	r0, {r1, r4, r9, sl}^
     bf8:	01194297 			; <UNDEFINED> instruction: 0x01194297
     bfc:	11000013 	tstne	r0, r3, lsl r0
     c00:	193f002e 	ldmdbne	pc!, {r1, r2, r3, r5}	; <UNPREDICTABLE>
     c04:	0e6e193c 			; <UNDEFINED> instruction: 0x0e6e193c
     c08:	0b3a0e03 	bleq	e8441c <__bss_end__+0xe7a7d4>
     c0c:	0b390b3b 	bleq	e43900 <__bss_end__+0xe39cb8>
     c10:	01000000 	mrseq	r0, (UNDEF: 0)
     c14:	0e250111 	mcreq	1, 1, r0, cr5, cr1, {0}
     c18:	0e030b13 	vmoveq.32	d3[0], r0
     c1c:	01110e1b 	tsteq	r1, fp, lsl lr
     c20:	17100612 			; <UNDEFINED> instruction: 0x17100612
     c24:	24020000 	strcs	r0, [r2], #-0
     c28:	3e0b0b00 	vmlacc.f64	d0, d11, d0
     c2c:	0008030b 	andeq	r0, r8, fp, lsl #6
     c30:	00240300 	eoreq	r0, r4, r0, lsl #6
     c34:	0b3e0b0b 	bleq	f83868 <__bss_end__+0xf79c20>
     c38:	00000e03 	andeq	r0, r0, r3, lsl #28
     c3c:	49003504 	stmdbmi	r0, {r2, r8, sl, ip, sp}
     c40:	05000013 	streq	r0, [r0, #-19]	; 0xffffffed
     c44:	0e030016 	mcreq	0, 0, r0, cr3, cr6, {0}
     c48:	0b3b0b3a 	bleq	ec3938 <__bss_end__+0xeb9cf0>
     c4c:	13490b39 	movtne	r0, #39737	; 0x9b39
     c50:	04060000 	streq	r0, [r6], #-0
     c54:	0b0b3e01 	bleq	2d0460 <__bss_end__+0x2c6818>
     c58:	3a13490b 	bcc	4d308c <__bss_end__+0x4c9444>
     c5c:	390b3b0b 	stmdbcc	fp, {r0, r1, r3, r8, r9, fp, ip, sp}
     c60:	0013010b 	andseq	r0, r3, fp, lsl #2
     c64:	00280700 	eoreq	r0, r8, r0, lsl #14
     c68:	0b1c0e03 	bleq	70447c <__bss_end__+0x6fa834>
     c6c:	13080000 	movwne	r0, #32768	; 0x8000
     c70:	0b0e0301 	bleq	38187c <__bss_end__+0x377c34>
     c74:	3b0b3a0b 	blcc	2cf4a8 <__bss_end__+0x2c5860>
     c78:	010b390b 	tsteq	fp, fp, lsl #18
     c7c:	09000013 	stmdbeq	r0, {r0, r1, r4}
     c80:	0803000d 	stmdaeq	r3, {r0, r2, r3}
     c84:	0b3b0b3a 	bleq	ec3974 <__bss_end__+0xeb9d2c>
     c88:	13490b39 	movtne	r0, #39737	; 0x9b39
     c8c:	00000b38 	andeq	r0, r0, r8, lsr fp
     c90:	03000d0a 	movweq	r0, #3338	; 0xd0a
     c94:	3b0b3a0e 	blcc	2cf4d4 <__bss_end__+0x2c588c>
     c98:	490b390b 	stmdbmi	fp, {r0, r1, r3, r8, fp, ip, sp}
     c9c:	000b3813 	andeq	r3, fp, r3, lsl r8
     ca0:	00340b00 	eorseq	r0, r4, r0, lsl #22
     ca4:	0b3a0e03 	bleq	e844b8 <__bss_end__+0xe7a870>
     ca8:	0b390b3b 	bleq	e4399c <__bss_end__+0xe39d54>
     cac:	061c1349 	ldreq	r1, [ip], -r9, asr #6
     cb0:	0f0c0000 	svceq	0x000c0000
     cb4:	490b0b00 	stmdbmi	fp, {r8, r9, fp}
     cb8:	0d000013 	stceq	0, cr0, [r0, #-76]	; 0xffffffb4
     cbc:	13490026 	movtne	r0, #36902	; 0x9026
     cc0:	2e0e0000 	cdpcs	0, 0, cr0, cr14, cr0, {0}
     cc4:	03193f01 	tsteq	r9, #1, 30
     cc8:	3b0b3a0e 	blcc	2cf508 <__bss_end__+0x2c58c0>
     ccc:	270b390b 	strcs	r3, [fp, -fp, lsl #18]
     cd0:	12011119 	andne	r1, r1, #1073741830	; 0x40000006
     cd4:	97184006 	ldrls	r4, [r8, -r6]
     cd8:	13011942 	movwne	r1, #6466	; 0x1942
     cdc:	890f0000 	stmdbhi	pc, {}	; <UNPREDICTABLE>
     ce0:	11000182 	smlabbne	r0, r2, r1, r0
     ce4:	00133101 	andseq	r3, r3, r1, lsl #2
     ce8:	012e1000 			; <UNDEFINED> instruction: 0x012e1000
     cec:	0e03193f 			; <UNDEFINED> instruction: 0x0e03193f
     cf0:	0b3b0b3a 	bleq	ec39e0 <__bss_end__+0xeb9d98>
     cf4:	19270b39 	stmdbne	r7!, {r0, r3, r4, r5, r8, r9, fp}
     cf8:	01111349 	tsteq	r1, r9, asr #6
     cfc:	18400612 	stmdane	r0, {r1, r4, r9, sl}^
     d00:	01194297 			; <UNDEFINED> instruction: 0x01194297
     d04:	11000013 	tstne	r0, r3, lsl r0
     d08:	01018289 	smlabbeq	r1, r9, r2, r8
     d0c:	13310111 	teqne	r1, #1073741828	; 0x40000004
     d10:	8a120000 	bhi	480d18 <__bss_end__+0x4770d0>
     d14:	02000182 	andeq	r0, r0, #-2147483616	; 0x80000020
     d18:	18429118 	stmdane	r2, {r3, r4, r8, ip, pc}^
     d1c:	05130000 	ldreq	r0, [r3, #-0]
     d20:	3a080300 	bcc	201928 <__bss_end__+0x1f7ce0>
     d24:	390b3b0b 	stmdbcc	fp, {r0, r1, r3, r8, r9, fp, ip, sp}
     d28:	0213490b 	andseq	r4, r3, #180224	; 0x2c000
     d2c:	1742b717 	smlaldne	fp, r2, r7, r7
     d30:	89140000 	ldmdbhi	r4, {}	; <UNPREDICTABLE>
     d34:	11010182 	smlabbne	r1, r2, r1, r0
     d38:	01133101 	tsteq	r3, r1, lsl #2
     d3c:	15000013 	strne	r0, [r0, #-19]	; 0xffffffed
     d40:	08030034 	stmdaeq	r3, {r2, r4, r5}
     d44:	0b3b0b3a 	bleq	ec3a34 <__bss_end__+0xeb9dec>
     d48:	13490b39 	movtne	r0, #39737	; 0x9b39
     d4c:	42b71702 	adcsmi	r1, r7, #524288	; 0x80000
     d50:	16000017 			; <UNDEFINED> instruction: 0x16000017
     d54:	0e030034 	mcreq	0, 0, r0, cr3, cr4, {1}
     d58:	0b3b0b3a 	bleq	ec3a48 <__bss_end__+0xeb9e00>
     d5c:	13490b39 	movtne	r0, #39737	; 0x9b39
     d60:	0000051c 	andeq	r0, r0, ip, lsl r5
     d64:	03012e17 	movweq	r2, #7703	; 0x1e17
     d68:	3b0b3a0e 	blcc	2cf5a8 <__bss_end__+0x2c5960>
     d6c:	270b390b 	strcs	r3, [fp, -fp, lsl #18]
     d70:	12011119 	andne	r1, r1, #1073741830	; 0x40000006
     d74:	97184006 	ldrls	r4, [r8, -r6]
     d78:	13011942 	movwne	r1, #6466	; 0x1942
     d7c:	05180000 	ldreq	r0, [r8, #-0]
     d80:	3a0e0300 	bcc	381988 <__bss_end__+0x377d40>
     d84:	390b3b0b 	stmdbcc	fp, {r0, r1, r3, r8, r9, fp, ip, sp}
     d88:	0213490b 	andseq	r4, r3, #180224	; 0x2c000
     d8c:	1742b717 	smlaldne	fp, r2, r7, r7
     d90:	35190000 	ldrcc	r0, [r9, #-0]
     d94:	1a000000 	bne	d9c <__code_start__-0x7264>
     d98:	193f002e 	ldmdbne	pc!, {r1, r2, r3, r5}	; <UNPREDICTABLE>
     d9c:	0e6e193c 			; <UNDEFINED> instruction: 0x0e6e193c
     da0:	0b3a0e03 	bleq	e845b4 <__bss_end__+0xe7a96c>
     da4:	0b390b3b 	bleq	e43a98 <__bss_end__+0xe39e50>
     da8:	01000000 	mrseq	r0, (UNDEF: 0)
     dac:	0e250111 	mcreq	1, 1, r0, cr5, cr1, {0}
     db0:	0e030b13 	vmoveq.32	d3[0], r0
     db4:	01110e1b 	tsteq	r1, fp, lsl lr
     db8:	17100612 			; <UNDEFINED> instruction: 0x17100612
     dbc:	24020000 	strcs	r0, [r2], #-0
     dc0:	3e0b0b00 	vmlacc.f64	d0, d11, d0
     dc4:	0008030b 	andeq	r0, r8, fp, lsl #6
     dc8:	00240300 	eoreq	r0, r4, r0, lsl #6
     dcc:	0b3e0b0b 	bleq	f83a00 <__bss_end__+0xf79db8>
     dd0:	00000e03 	andeq	r0, r0, r3, lsl #28
     dd4:	03001604 	movweq	r1, #1540	; 0x604
     dd8:	3b0b3a0e 	blcc	2cf618 <__bss_end__+0x2c59d0>
     ddc:	490b390b 	stmdbmi	fp, {r0, r1, r3, r8, fp, ip, sp}
     de0:	05000013 	streq	r0, [r0, #-19]	; 0xffffffed
     de4:	13490026 	movtne	r0, #36902	; 0x9026
     de8:	0f060000 	svceq	0x00060000
     dec:	000b0b00 	andeq	r0, fp, r0, lsl #22
     df0:	01040700 	tsteq	r4, r0, lsl #14
     df4:	0b0b0b3e 	bleq	2c3af4 <__bss_end__+0x2b9eac>
     df8:	0b3a1349 	bleq	e85b24 <__bss_end__+0xe7bedc>
     dfc:	0b390b3b 	bleq	e43af0 <__bss_end__+0xe39ea8>
     e00:	00001301 	andeq	r1, r0, r1, lsl #6
     e04:	03002808 	movweq	r2, #2056	; 0x808
     e08:	00061c0e 	andeq	r1, r6, lr, lsl #24
     e0c:	00340900 	eorseq	r0, r4, r0, lsl #18
     e10:	0b3a0e03 	bleq	e84624 <__bss_end__+0xe7a9dc>
     e14:	0b390b3b 	bleq	e43b08 <__bss_end__+0xe39ec0>
     e18:	193f1349 	ldmdbne	pc!, {r0, r3, r6, r8, r9, ip}	; <UNPREDICTABLE>
     e1c:	0000193c 	andeq	r1, r0, ip, lsr r9
     e20:	0300340a 	movweq	r3, #1034	; 0x40a
     e24:	3b0b3a0e 	blcc	2cf664 <__bss_end__+0x2c5a1c>
     e28:	490b390b 	stmdbmi	fp, {r0, r1, r3, r8, fp, ip, sp}
     e2c:	00180213 	andseq	r0, r8, r3, lsl r2
     e30:	000f0b00 	andeq	r0, pc, r0, lsl #22
     e34:	13490b0b 	movtne	r0, #39691	; 0x9b0b
     e38:	2e0c0000 	cdpcs	0, 0, cr0, cr12, cr0, {0}
     e3c:	03193f01 	tsteq	r9, #1, 30
     e40:	3b0b3a0e 	blcc	2cf680 <__bss_end__+0x2c5a38>
     e44:	270b390b 	strcs	r3, [fp, -fp, lsl #18]
     e48:	12011119 	andne	r1, r1, #1073741830	; 0x40000006
     e4c:	97184006 	ldrls	r4, [r8, -r6]
     e50:	13011942 	movwne	r1, #6466	; 0x1942
     e54:	050d0000 	streq	r0, [sp, #-0]
     e58:	3a080300 	bcc	201a60 <__bss_end__+0x1f7e18>
     e5c:	390b3b0b 	stmdbcc	fp, {r0, r1, r3, r8, r9, fp, ip, sp}
     e60:	0213490b 	andseq	r4, r3, #180224	; 0x2c000
     e64:	1742b717 	smlaldne	fp, r2, r7, r7
     e68:	340e0000 	strcc	r0, [lr], #-0
     e6c:	490e0300 	stmdbmi	lr, {r8, r9}
     e70:	02193413 	andseq	r3, r9, #318767104	; 0x13000000
     e74:	0f000018 	svceq	0x00000018
     e78:	01018289 	smlabbeq	r1, r9, r2, r8
     e7c:	13310111 	teqne	r1, #1073741828	; 0x40000004
     e80:	00001301 	andeq	r1, r0, r1, lsl #6
     e84:	01828a10 	orreq	r8, r2, r0, lsl sl
     e88:	91180200 	tstls	r8, r0, lsl #4
     e8c:	00001842 	andeq	r1, r0, r2, asr #16
     e90:	01828911 	orreq	r8, r2, r1, lsl r9
     e94:	31011100 	mrscc	r1, (UNDEF: 17)
     e98:	12000013 	andne	r0, r0, #19, 0
     e9c:	13490101 	movtne	r0, #37121	; 0x9101
     ea0:	00001301 	andeq	r1, r0, r1, lsl #6
     ea4:	49002113 	stmdbmi	r0, {r0, r1, r4, r8, sp}
     ea8:	000b2f13 	andeq	r2, fp, r3, lsl pc
     eac:	002e1400 	eoreq	r1, lr, r0, lsl #8
     eb0:	0e03193f 			; <UNDEFINED> instruction: 0x0e03193f
     eb4:	0b3b0b3a 	bleq	ec3ba4 <__bss_end__+0xeb9f5c>
     eb8:	19270b39 	stmdbne	r7!, {r0, r3, r4, r5, r8, r9, fp}
     ebc:	06120111 			; <UNDEFINED> instruction: 0x06120111
     ec0:	42971840 	addsmi	r1, r7, #64, 16	; 0x400000
     ec4:	15000019 	strne	r0, [r0, #-25]	; 0xffffffe7
     ec8:	08030005 	stmdaeq	r3, {r0, r2}
     ecc:	0b3b0b3a 	bleq	ec3bbc <__bss_end__+0xeb9f74>
     ed0:	13490b39 	movtne	r0, #39737	; 0x9b39
     ed4:	00001802 	andeq	r1, r0, r2, lsl #16
     ed8:	3f012e16 	svccc	0x00012e16
     edc:	3a0e0319 	bcc	381b48 <__bss_end__+0x377f00>
     ee0:	390b3b0b 	stmdbcc	fp, {r0, r1, r3, r8, r9, fp, ip, sp}
     ee4:	4919270b 	ldmdbmi	r9, {r0, r1, r3, r8, r9, sl, sp}
     ee8:	12011113 	andne	r1, r1, #-1073741820	; 0xc0000004
     eec:	97184006 	ldrls	r4, [r8, -r6]
     ef0:	13011942 	movwne	r1, #6466	; 0x1942
     ef4:	05170000 	ldreq	r0, [r7, #-0]
     ef8:	3a0e0300 	bcc	381b00 <__bss_end__+0x377eb8>
     efc:	390b3b0b 	stmdbcc	fp, {r0, r1, r3, r8, r9, fp, ip, sp}
     f00:	0213490b 	andseq	r4, r3, #180224	; 0x2c000
     f04:	1742b717 	smlaldne	fp, r2, r7, r7
     f08:	34180000 	ldrcc	r0, [r8], #-0
     f0c:	3a080300 	bcc	201b14 <__bss_end__+0x1f7ecc>
     f10:	390b3b0b 	stmdbcc	fp, {r0, r1, r3, r8, r9, fp, ip, sp}
     f14:	0213490b 	andseq	r4, r3, #180224	; 0x2c000
     f18:	1742b717 	smlaldne	fp, r2, r7, r7
     f1c:	1d190000 	ldcne	0, cr0, [r9, #-0]
     f20:	52133101 	andspl	r3, r3, #1073741824	; 0x40000000
     f24:	0b42b801 	bleq	10aef30 <__bss_end__+0x10a52e8>
     f28:	06120111 			; <UNDEFINED> instruction: 0x06120111
     f2c:	0b590b58 	bleq	1643c94 <__bss_end__+0x163a04c>
     f30:	13010b57 	movwne	r0, #6999	; 0x1b57
     f34:	051a0000 	ldreq	r0, [sl, #-0]
     f38:	02133100 	andseq	r3, r3, #0
     f3c:	1742b717 	smlaldne	fp, r2, r7, r7
     f40:	1d1b0000 	ldcne	0, cr0, [fp, #-0]
     f44:	52133101 	andspl	r3, r3, #1073741824	; 0x40000000
     f48:	0b42b801 	bleq	10aef54 <__bss_end__+0x10a530c>
     f4c:	0b581755 	bleq	1606ca8 <__bss_end__+0x15fd060>
     f50:	0b570b59 	bleq	15c3cbc <__bss_end__+0x15ba074>
     f54:	00001301 	andeq	r1, r0, r1, lsl #6
     f58:	55010b1c 	strpl	r0, [r1, #-2844]	; 0xfffff4e4
     f5c:	1d000017 	stcne	0, cr0, [r0, #-92]	; 0xffffffa4
     f60:	0e030034 	mcreq	0, 0, r0, cr3, cr4, {1}
     f64:	0b3b0b3a 	bleq	ec3c54 <__bss_end__+0xeba00c>
     f68:	13490b39 	movtne	r0, #39737	; 0x9b39
     f6c:	42b71702 	adcsmi	r1, r7, #524288	; 0x80000
     f70:	1e000017 	mcrne	0, 0, r0, cr0, cr7, {0}
     f74:	1755000b 	ldrbne	r0, [r5, -fp]
     f78:	2e1f0000 	cdpcs	0, 1, cr0, cr15, cr0, {0}
     f7c:	03193f00 	tsteq	r9, #0, 30
     f80:	3b0b3a0e 	blcc	2cf7c0 <__bss_end__+0x2c5b78>
     f84:	270b390b 	strcs	r3, [fp, -fp, lsl #18]
     f88:	11134919 	tstne	r3, r9, lsl r9
     f8c:	40061201 	andmi	r1, r6, r1, lsl #4
     f90:	19429718 	stmdbne	r2, {r3, r4, r8, r9, sl, ip, pc}^
     f94:	2e200000 	cdpcs	0, 2, cr0, cr0, cr0, {0}
     f98:	3a0e0301 	bcc	381ba4 <__bss_end__+0x377f5c>
     f9c:	390b3b0b 	stmdbcc	fp, {r0, r1, r3, r8, r9, fp, ip, sp}
     fa0:	4919270b 	ldmdbmi	r9, {r0, r1, r3, r8, r9, sl, sp}
     fa4:	010b2013 	tsteq	fp, r3, lsl r0
     fa8:	21000013 	tstcs	r0, r3, lsl r0
     fac:	08030005 	stmdaeq	r3, {r0, r2}
     fb0:	0b3b0b3a 	bleq	ec3ca0 <__bss_end__+0xeba058>
     fb4:	13490b39 	movtne	r0, #39737	; 0x9b39
     fb8:	2e220000 	cdpcs	0, 2, cr0, cr2, cr0, {0}
     fbc:	3c193f00 	ldccc	15, cr3, [r9], {-0}
     fc0:	030e6e19 	movweq	r6, #60953	; 0xee19
     fc4:	3b0b3a0e 	blcc	2cf804 <__bss_end__+0x2c5bbc>
     fc8:	000b390b 	andeq	r3, fp, fp, lsl #18
     fcc:	11010000 	mrsne	r0, (UNDEF: 1)
     fd0:	130e2501 	movwne	r2, #58625	; 0xe501
     fd4:	1b0e030b 	blne	381c08 <__bss_end__+0x377fc0>
     fd8:	1201110e 	andne	r1, r1, #-2147483645	; 0x80000003
     fdc:	00171006 	andseq	r1, r7, r6
     fe0:	00240200 	eoreq	r0, r4, r0, lsl #4
     fe4:	0b3e0b0b 	bleq	f83c18 <__bss_end__+0xf79fd0>
     fe8:	00000803 	andeq	r0, r0, r3, lsl #16
     fec:	03001603 	movweq	r1, #1539	; 0x603
     ff0:	3b0b3a0e 	blcc	2cf830 <__bss_end__+0x2c5be8>
     ff4:	490b390b 	stmdbmi	fp, {r0, r1, r3, r8, fp, ip, sp}
     ff8:	04000013 	streq	r0, [r0], #-19	; 0xffffffed
     ffc:	0b0b0024 	bleq	2c1094 <__bss_end__+0x2b744c>
    1000:	0e030b3e 	vmoveq.16	d3[0], r0
    1004:	15050000 	strne	r0, [r5, #-0]
    1008:	49192701 	ldmdbmi	r9, {r0, r8, r9, sl, sp}
    100c:	00130113 	andseq	r0, r3, r3, lsl r1
    1010:	00050600 	andeq	r0, r5, r0, lsl #12
    1014:	00001349 	andeq	r1, r0, r9, asr #6
    1018:	03003407 	movweq	r3, #1031	; 0x407
    101c:	3b0b3a0e 	blcc	2cf85c <__bss_end__+0x2c5c14>
    1020:	490b390b 	stmdbmi	fp, {r0, r1, r3, r8, fp, ip, sp}
    1024:	3c193f13 	ldccc	15, cr3, [r9], {19}
    1028:	08000019 	stmdaeq	r0, {r0, r3, r4}
    102c:	0b0b000f 	bleq	2c1070 <__bss_end__+0x2b7428>
    1030:	00001349 	andeq	r1, r0, r9, asr #6
    1034:	49002609 	stmdbmi	r0, {r0, r3, r9, sl, sp}
    1038:	0a000013 	beq	108c <__code_start__-0x6f74>
    103c:	193f012e 	ldmdbne	pc!, {r1, r2, r3, r5, r8}	; <UNPREDICTABLE>
    1040:	0b3a0e03 	bleq	e84854 <__bss_end__+0xe7ac0c>
    1044:	0b390b3b 	bleq	e43d38 <__bss_end__+0xe3a0f0>
    1048:	13491927 	movtne	r1, #39207	; 0x9927
    104c:	06120111 			; <UNDEFINED> instruction: 0x06120111
    1050:	42971840 	addsmi	r1, r7, #64, 16	; 0x400000
    1054:	00130119 	andseq	r0, r3, r9, lsl r1
    1058:	00050b00 	andeq	r0, r5, r0, lsl #22
    105c:	0b3a0803 	bleq	e83070 <__bss_end__+0xe79428>
    1060:	0b390b3b 	bleq	e43d54 <__bss_end__+0xe3a10c>
    1064:	18021349 	stmdane	r2, {r0, r3, r6, r8, r9, ip}
    1068:	050c0000 	streq	r0, [ip, #-0]
    106c:	3a080300 	bcc	201c74 <__bss_end__+0x1f802c>
    1070:	390b3b0b 	stmdbcc	fp, {r0, r1, r3, r8, r9, fp, ip, sp}
    1074:	0213490b 	andseq	r4, r3, #180224	; 0x2c000
    1078:	1742b717 	smlaldne	fp, r2, r7, r7
    107c:	340d0000 	strcc	r0, [sp], #-0
    1080:	3a080300 	bcc	201c88 <__bss_end__+0x1f8040>
    1084:	390b3b0b 	stmdbcc	fp, {r0, r1, r3, r8, r9, fp, ip, sp}
    1088:	0213490b 	andseq	r4, r3, #180224	; 0x2c000
    108c:	1742b717 	smlaldne	fp, r2, r7, r7
    1090:	0f0e0000 	svceq	0x000e0000
    1094:	000b0b00 	andeq	r0, fp, r0, lsl #22
    1098:	11010000 	mrsne	r0, (UNDEF: 1)
    109c:	130e2501 	movwne	r2, #58625	; 0xe501
    10a0:	1b0e030b 	blne	381cd4 <__bss_end__+0x37808c>
    10a4:	1201110e 	andne	r1, r1, #-2147483645	; 0x80000003
    10a8:	00171006 	andseq	r1, r7, r6
    10ac:	00240200 	eoreq	r0, r4, r0, lsl #4
    10b0:	0b3e0b0b 	bleq	f83ce4 <__bss_end__+0xf7a09c>
    10b4:	00000803 	andeq	r0, r0, r3, lsl #16
    10b8:	0b002403 	bleq	a0cc <__bss_end__+0x484>
    10bc:	030b3e0b 	movweq	r3, #48651	; 0xbe0b
    10c0:	0400000e 	streq	r0, [r0], #-14
    10c4:	19270115 	stmdbne	r7!, {r0, r2, r4, r8}
    10c8:	13011349 	movwne	r1, #4937	; 0x1349
    10cc:	05050000 	streq	r0, [r5, #-0]
    10d0:	00134900 	andseq	r4, r3, r0, lsl #18
    10d4:	00340600 	eorseq	r0, r4, r0, lsl #12
    10d8:	0b3a0e03 	bleq	e848ec <__bss_end__+0xe7aca4>
    10dc:	0b390b3b 	bleq	e43dd0 <__bss_end__+0xe3a188>
    10e0:	193f1349 	ldmdbne	pc!, {r0, r3, r6, r8, r9, ip}	; <UNPREDICTABLE>
    10e4:	0000193c 	andeq	r1, r0, ip, lsr r9
    10e8:	0b000f07 	bleq	4d0c <__code_start__-0x32f4>
    10ec:	0013490b 	andseq	r4, r3, fp, lsl #18
    10f0:	00260800 	eoreq	r0, r6, r0, lsl #16
    10f4:	00001349 	andeq	r1, r0, r9, asr #6
    10f8:	47003409 	strmi	r3, [r0, -r9, lsl #8]
    10fc:	3b0b3a13 	blcc	2cf950 <__bss_end__+0x2c5d08>
    1100:	020b390b 	andeq	r3, fp, #180224	; 0x2c000
    1104:	0a000018 	beq	116c <__code_start__-0x6e94>
    1108:	193f012e 	ldmdbne	pc!, {r1, r2, r3, r5, r8}	; <UNPREDICTABLE>
    110c:	0b3a0e03 	bleq	e84920 <__bss_end__+0xe7acd8>
    1110:	0b390b3b 	bleq	e43e04 <__bss_end__+0xe3a1bc>
    1114:	01111927 	tsteq	r1, r7, lsr #18
    1118:	18400612 	stmdane	r0, {r1, r4, r9, sl}^
    111c:	01194297 			; <UNDEFINED> instruction: 0x01194297
    1120:	0b000013 	bleq	1174 <__code_start__-0x6e8c>
    1124:	08030005 	stmdaeq	r3, {r0, r2}
    1128:	0b3b0b3a 	bleq	ec3e18 <__bss_end__+0xeba1d0>
    112c:	13490b39 	movtne	r0, #39737	; 0x9b39
    1130:	00001802 	andeq	r1, r0, r2, lsl #16
    1134:	3f002e0c 	svccc	0x00002e0c
    1138:	3a0e0319 	bcc	381da4 <__bss_end__+0x37815c>
    113c:	390b3b0b 	stmdbcc	fp, {r0, r1, r3, r8, r9, fp, ip, sp}
    1140:	1119270b 	tstne	r9, fp, lsl #14
    1144:	40061201 	andmi	r1, r6, r1, lsl #4
    1148:	19429718 	stmdbne	r2, {r3, r4, r8, r9, sl, ip, pc}^
    114c:	2e0d0000 	cdpcs	0, 0, cr0, cr13, cr0, {0}
    1150:	3a0e0301 	bcc	381d5c <__bss_end__+0x378114>
    1154:	390b3b0b 	stmdbcc	fp, {r0, r1, r3, r8, r9, fp, ip, sp}
    1158:	4919270b 	ldmdbmi	r9, {r0, r1, r3, r8, r9, sl, sp}
    115c:	12011113 	andne	r1, r1, #-1073741820	; 0xc0000004
    1160:	97184006 	ldrls	r4, [r8, -r6]
    1164:	13011942 	movwne	r1, #6466	; 0x1942
    1168:	050e0000 	streq	r0, [lr, #-0]
    116c:	3a080300 	bcc	201d74 <__bss_end__+0x1f812c>
    1170:	390b3b0b 	stmdbcc	fp, {r0, r1, r3, r8, r9, fp, ip, sp}
    1174:	0213490b 	andseq	r4, r3, #180224	; 0x2c000
    1178:	1742b717 	smlaldne	fp, r2, r7, r7
    117c:	890f0000 	stmdbhi	pc, {}	; <UNPREDICTABLE>
    1180:	11010182 	smlabbne	r1, r2, r1, r0
    1184:	00133101 	andseq	r3, r3, r1, lsl #2
    1188:	828a1000 	addhi	r1, sl, #0, 0
    118c:	18020001 	stmdane	r2, {r0}
    1190:	00184291 	mulseq	r8, r1, r2
    1194:	002e1100 	eoreq	r1, lr, r0, lsl #2
    1198:	193c193f 	ldmdbne	ip!, {r0, r1, r2, r3, r4, r5, r8, fp, ip}
    119c:	0e030e6e 	cdpeq	14, 0, cr0, cr3, cr14, {3}
    11a0:	0b3b0b3a 	bleq	ec3e90 <__bss_end__+0xeba248>
    11a4:	00000b39 	andeq	r0, r0, r9, lsr fp
    11a8:	01110100 	tsteq	r1, r0, lsl #2
    11ac:	0b130e25 	bleq	4c4a48 <__bss_end__+0x4bae00>
    11b0:	0e1b0e03 	cdpeq	14, 1, cr0, cr11, cr3, {0}
    11b4:	06120111 			; <UNDEFINED> instruction: 0x06120111
    11b8:	00001710 	andeq	r1, r0, r0, lsl r7
    11bc:	0b002402 	bleq	a1cc <__bss_end__+0x584>
    11c0:	030b3e0b 	movweq	r3, #48651	; 0xbe0b
    11c4:	03000008 	movweq	r0, #8
    11c8:	0b0b0024 	bleq	2c1260 <__bss_end__+0x2b7618>
    11cc:	0e030b3e 	vmoveq.16	d3[0], r0
    11d0:	15040000 	strne	r0, [r4, #-0]
    11d4:	49192701 	ldmdbmi	r9, {r0, r8, r9, sl, sp}
    11d8:	00130113 	andseq	r0, r3, r3, lsl r1
    11dc:	00050500 	andeq	r0, r5, r0, lsl #10
    11e0:	00001349 	andeq	r1, r0, r9, asr #6
    11e4:	03003406 	movweq	r3, #1030	; 0x406
    11e8:	3b0b3a0e 	blcc	2cfa28 <__bss_end__+0x2c5de0>
    11ec:	490b390b 	stmdbmi	fp, {r0, r1, r3, r8, fp, ip, sp}
    11f0:	3c193f13 	ldccc	15, cr3, [r9], {19}
    11f4:	07000019 	smladeq	r0, r9, r0, r0
    11f8:	0b0b000f 	bleq	2c123c <__bss_end__+0x2b75f4>
    11fc:	00001349 	andeq	r1, r0, r9, asr #6
    1200:	49002608 	stmdbmi	r0, {r3, r9, sl, sp}
    1204:	09000013 	stmdbeq	r0, {r0, r1, r4}
    1208:	193f012e 	ldmdbne	pc!, {r1, r2, r3, r5, r8}	; <UNPREDICTABLE>
    120c:	0b3a0e03 	bleq	e84a20 <__bss_end__+0xe7add8>
    1210:	0b390b3b 	bleq	e43f04 <__bss_end__+0xe3a2bc>
    1214:	13491927 	movtne	r1, #39207	; 0x9927
    1218:	06120111 			; <UNDEFINED> instruction: 0x06120111
    121c:	42971840 	addsmi	r1, r7, #64, 16	; 0x400000
    1220:	00130119 	andseq	r0, r3, r9, lsl r1
    1224:	00050a00 	andeq	r0, r5, r0, lsl #20
    1228:	0b3a0e03 	bleq	e84a3c <__bss_end__+0xe7adf4>
    122c:	0b390b3b 	bleq	e43f20 <__bss_end__+0xe3a2d8>
    1230:	18021349 	stmdane	r2, {r0, r3, r6, r8, r9, ip}
    1234:	050b0000 	streq	r0, [fp, #-0]
    1238:	3a080300 	bcc	201e40 <__bss_end__+0x1f81f8>
    123c:	390b3b0b 	stmdbcc	fp, {r0, r1, r3, r8, r9, fp, ip, sp}
    1240:	0213490b 	andseq	r4, r3, #180224	; 0x2c000
    1244:	1742b717 	smlaldne	fp, r2, r7, r7
    1248:	340c0000 	strcc	r0, [ip], #-0
    124c:	3a080300 	bcc	201e54 <__bss_end__+0x1f820c>
    1250:	390b3b0b 	stmdbcc	fp, {r0, r1, r3, r8, r9, fp, ip, sp}
    1254:	0213490b 	andseq	r4, r3, #180224	; 0x2c000
    1258:	1742b717 	smlaldne	fp, r2, r7, r7
    125c:	01000000 	mrseq	r0, (UNDEF: 0)
    1260:	0e250111 	mcreq	1, 1, r0, cr5, cr1, {0}
    1264:	0e030b13 	vmoveq.32	d3[0], r0
    1268:	01110e1b 	tsteq	r1, fp, lsl lr
    126c:	17100612 			; <UNDEFINED> instruction: 0x17100612
    1270:	24020000 	strcs	r0, [r2], #-0
    1274:	3e0b0b00 	vmlacc.f64	d0, d11, d0
    1278:	0008030b 	andeq	r0, r8, fp, lsl #6
    127c:	00240300 	eoreq	r0, r4, r0, lsl #6
    1280:	0b3e0b0b 	bleq	f83eb4 <__bss_end__+0xf7a26c>
    1284:	00000e03 	andeq	r0, r0, r3, lsl #28
    1288:	27011504 	strcs	r1, [r1, -r4, lsl #10]
    128c:	01134919 	tsteq	r3, r9, lsl r9
    1290:	05000013 	streq	r0, [r0, #-19]	; 0xffffffed
    1294:	13490005 	movtne	r0, #36869	; 0x9005
    1298:	34060000 	strcc	r0, [r6], #-0
    129c:	3a0e0300 	bcc	381ea4 <__bss_end__+0x37825c>
    12a0:	390b3b0b 	stmdbcc	fp, {r0, r1, r3, r8, r9, fp, ip, sp}
    12a4:	3f13490b 	svccc	0x0013490b
    12a8:	00193c19 	andseq	r3, r9, r9, lsl ip
    12ac:	000f0700 	andeq	r0, pc, r0, lsl #14
    12b0:	13490b0b 	movtne	r0, #39691	; 0x9b0b
    12b4:	26080000 	strcs	r0, [r8], -r0
    12b8:	00134900 	andseq	r4, r3, r0, lsl #18
    12bc:	012e0900 			; <UNDEFINED> instruction: 0x012e0900
    12c0:	0e03193f 			; <UNDEFINED> instruction: 0x0e03193f
    12c4:	0b3b0b3a 	bleq	ec3fb4 <__bss_end__+0xeba36c>
    12c8:	19270b39 	stmdbne	r7!, {r0, r3, r4, r5, r8, r9, fp}
    12cc:	01111349 	tsteq	r1, r9, asr #6
    12d0:	18400612 	stmdane	r0, {r1, r4, r9, sl}^
    12d4:	00194297 	mulseq	r9, r7, r2
    12d8:	00050a00 	andeq	r0, r5, r0, lsl #20
    12dc:	0b3a0803 	bleq	e832f0 <__bss_end__+0xe796a8>
    12e0:	0b390b3b 	bleq	e43fd4 <__bss_end__+0xe3a38c>
    12e4:	17021349 	strne	r1, [r2, -r9, asr #6]
    12e8:	001742b7 			; <UNDEFINED> instruction: 0x001742b7
    12ec:	11010000 	mrsne	r0, (UNDEF: 1)
    12f0:	130e2501 	movwne	r2, #58625	; 0xe501
    12f4:	1b0e030b 	blne	381f28 <__bss_end__+0x3782e0>
    12f8:	1201110e 	andne	r1, r1, #-2147483645	; 0x80000003
    12fc:	00171006 	andseq	r1, r7, r6
    1300:	00240200 	eoreq	r0, r4, r0, lsl #4
    1304:	0b3e0b0b 	bleq	f83f38 <__bss_end__+0xf7a2f0>
    1308:	00000803 	andeq	r0, r0, r3, lsl #16
    130c:	0b002403 	bleq	a320 <__bss_end__+0x6d8>
    1310:	030b3e0b 	movweq	r3, #48651	; 0xbe0b
    1314:	0400000e 	streq	r0, [r0], #-14
    1318:	19270115 	stmdbne	r7!, {r0, r2, r4, r8}
    131c:	13011349 	movwne	r1, #4937	; 0x1349
    1320:	05050000 	streq	r0, [r5, #-0]
    1324:	00134900 	andseq	r4, r3, r0, lsl #18
    1328:	00340600 	eorseq	r0, r4, r0, lsl #12
    132c:	0b3a0e03 	bleq	e84b40 <__bss_end__+0xe7aef8>
    1330:	0b390b3b 	bleq	e44024 <__bss_end__+0xe3a3dc>
    1334:	193f1349 	ldmdbne	pc!, {r0, r3, r6, r8, r9, ip}	; <UNPREDICTABLE>
    1338:	0000193c 	andeq	r1, r0, ip, lsr r9
    133c:	0b000f07 	bleq	4f60 <__code_start__-0x30a0>
    1340:	0013490b 	andseq	r4, r3, fp, lsl #18
    1344:	00260800 	eoreq	r0, r6, r0, lsl #16
    1348:	00001349 	andeq	r1, r0, r9, asr #6
    134c:	3f012e09 	svccc	0x00012e09
    1350:	3a0e0319 	bcc	381fbc <__bss_end__+0x378374>
    1354:	390b3b0b 	stmdbcc	fp, {r0, r1, r3, r8, r9, fp, ip, sp}
    1358:	4919270b 	ldmdbmi	r9, {r0, r1, r3, r8, r9, sl, sp}
    135c:	12011113 	andne	r1, r1, #-1073741820	; 0xc0000004
    1360:	97184006 	ldrls	r4, [r8, -r6]
    1364:	13011942 	movwne	r1, #6466	; 0x1942
    1368:	050a0000 	streq	r0, [sl, #-0]
    136c:	3a080300 	bcc	201f74 <__bss_end__+0x1f832c>
    1370:	390b3b0b 	stmdbcc	fp, {r0, r1, r3, r8, r9, fp, ip, sp}
    1374:	0213490b 	andseq	r4, r3, #180224	; 0x2c000
    1378:	0b000018 	bleq	13e0 <__code_start__-0x6c20>
    137c:	08030005 	stmdaeq	r3, {r0, r2}
    1380:	0b3b0b3a 	bleq	ec4070 <__bss_end__+0xeba428>
    1384:	13490b39 	movtne	r0, #39737	; 0x9b39
    1388:	42b71702 	adcsmi	r1, r7, #524288	; 0x80000
    138c:	0c000017 	stceq	0, cr0, [r0], {23}
    1390:	08030034 	stmdaeq	r3, {r2, r4, r5}
    1394:	0b3b0b3a 	bleq	ec4084 <__bss_end__+0xeba43c>
    1398:	13490b39 	movtne	r0, #39737	; 0x9b39
    139c:	42b71702 	adcsmi	r1, r7, #524288	; 0x80000
    13a0:	00000017 	andeq	r0, r0, r7, lsl r0
    13a4:	25011101 	strcs	r1, [r1, #-257]	; 0xfffffeff
    13a8:	030b130e 	movweq	r1, #45838	; 0xb30e
    13ac:	550e1b0e 	strpl	r1, [lr, #-2830]	; 0xfffff4f2
    13b0:	10011117 	andne	r1, r1, r7, lsl r1
    13b4:	02000017 	andeq	r0, r0, #23, 0
    13b8:	0b0b0024 	bleq	2c1450 <__bss_end__+0x2b7808>
    13bc:	08030b3e 	stmdaeq	r3, {r1, r2, r3, r4, r5, r8, r9, fp}
    13c0:	16030000 	strne	r0, [r3], -r0
    13c4:	3a0e0300 	bcc	381fcc <__bss_end__+0x378384>
    13c8:	390b3b0b 	stmdbcc	fp, {r0, r1, r3, r8, r9, fp, ip, sp}
    13cc:	0013490b 	andseq	r4, r3, fp, lsl #18
    13d0:	00240400 	eoreq	r0, r4, r0, lsl #8
    13d4:	0b3e0b0b 	bleq	f84008 <__bss_end__+0xf7a3c0>
    13d8:	00000e03 	andeq	r0, r0, r3, lsl #28
    13dc:	49002605 	stmdbmi	r0, {r0, r2, r9, sl, sp}
    13e0:	06000013 			; <UNDEFINED> instruction: 0x06000013
    13e4:	19270115 	stmdbne	r7!, {r0, r2, r4, r8}
    13e8:	13011349 	movwne	r1, #4937	; 0x1349
    13ec:	05070000 	streq	r0, [r7, #-0]
    13f0:	00134900 	andseq	r4, r3, r0, lsl #18
    13f4:	00340800 	eorseq	r0, r4, r0, lsl #16
    13f8:	0b3a0e03 	bleq	e84c0c <__bss_end__+0xe7afc4>
    13fc:	0b390b3b 	bleq	e440f0 <__bss_end__+0xe3a4a8>
    1400:	193f1349 	ldmdbne	pc!, {r0, r3, r6, r8, r9, ip}	; <UNPREDICTABLE>
    1404:	0000193c 	andeq	r1, r0, ip, lsr r9
    1408:	0b000f09 	bleq	5034 <__code_start__-0x2fcc>
    140c:	0013490b 	andseq	r4, r3, fp, lsl #18
    1410:	012e0a00 			; <UNDEFINED> instruction: 0x012e0a00
    1414:	0e03193f 			; <UNDEFINED> instruction: 0x0e03193f
    1418:	0b3b0b3a 	bleq	ec4108 <__bss_end__+0xeba4c0>
    141c:	19270b39 	stmdbne	r7!, {r0, r3, r4, r5, r8, r9, fp}
    1420:	01111349 	tsteq	r1, r9, asr #6
    1424:	18400612 	stmdane	r0, {r1, r4, r9, sl}^
    1428:	01194297 			; <UNDEFINED> instruction: 0x01194297
    142c:	0b000013 	bleq	1480 <__code_start__-0x6b80>
    1430:	08030005 	stmdaeq	r3, {r0, r2}
    1434:	0b3b0b3a 	bleq	ec4124 <__bss_end__+0xeba4dc>
    1438:	13490b39 	movtne	r0, #39737	; 0x9b39
    143c:	42b71702 	adcsmi	r1, r7, #524288	; 0x80000
    1440:	0c000017 	stceq	0, cr0, [r0], {23}
    1444:	08030034 	stmdaeq	r3, {r2, r4, r5}
    1448:	0b3b0b3a 	bleq	ec4138 <__bss_end__+0xeba4f0>
    144c:	13490b39 	movtne	r0, #39737	; 0x9b39
    1450:	42b71702 	adcsmi	r1, r7, #524288	; 0x80000
    1454:	00000017 	andeq	r0, r0, r7, lsl r0
    1458:	25011101 	strcs	r1, [r1, #-257]	; 0xfffffeff
    145c:	030b130e 	movweq	r1, #45838	; 0xb30e
    1460:	110e1b0e 	tstne	lr, lr, lsl #22
    1464:	10061201 	andne	r1, r6, r1, lsl #4
    1468:	02000017 	andeq	r0, r0, #23, 0
    146c:	0b0b0024 	bleq	2c1504 <__bss_end__+0x2b78bc>
    1470:	08030b3e 	stmdaeq	r3, {r1, r2, r3, r4, r5, r8, r9, fp}
    1474:	24030000 	strcs	r0, [r3], #-0
    1478:	3e0b0b00 	vmlacc.f64	d0, d11, d0
    147c:	000e030b 	andeq	r0, lr, fp, lsl #6
    1480:	01150400 	tsteq	r5, r0, lsl #8
    1484:	13491927 	movtne	r1, #39207	; 0x9927
    1488:	00001301 	andeq	r1, r0, r1, lsl #6
    148c:	49000505 	stmdbmi	r0, {r0, r2, r8, sl}
    1490:	06000013 			; <UNDEFINED> instruction: 0x06000013
    1494:	0e030034 	mcreq	0, 0, r0, cr3, cr4, {1}
    1498:	0b3b0b3a 	bleq	ec4188 <__bss_end__+0xeba540>
    149c:	13490b39 	movtne	r0, #39737	; 0x9b39
    14a0:	193c193f 	ldmdbne	ip!, {r0, r1, r2, r3, r4, r5, r8, fp, ip}
    14a4:	0f070000 	svceq	0x00070000
    14a8:	490b0b00 	stmdbmi	fp, {r8, r9, fp}
    14ac:	08000013 	stmdaeq	r0, {r0, r1, r4}
    14b0:	13490026 	movtne	r0, #36902	; 0x9026
    14b4:	2e090000 	cdpcs	0, 0, cr0, cr9, cr0, {0}
    14b8:	03193f00 	tsteq	r9, #0, 30
    14bc:	3b0b3a0e 	blcc	2cfcfc <__bss_end__+0x2c60b4>
    14c0:	270b390b 	strcs	r3, [fp, -fp, lsl #18]
    14c4:	12011119 	andne	r1, r1, #1073741830	; 0x40000006
    14c8:	97184006 	ldrls	r4, [r8, -r6]
    14cc:	00001942 	andeq	r1, r0, r2, asr #18
    14d0:	01110100 	tsteq	r1, r0, lsl #2
    14d4:	0b130e25 	bleq	4c4d70 <__bss_end__+0x4bb128>
    14d8:	0e1b0e03 	cdpeq	14, 1, cr0, cr11, cr3, {0}
    14dc:	06120111 			; <UNDEFINED> instruction: 0x06120111
    14e0:	00001710 	andeq	r1, r0, r0, lsl r7
    14e4:	0b002402 	bleq	a4f4 <__bss_end__+0x8ac>
    14e8:	030b3e0b 	movweq	r3, #48651	; 0xbe0b
    14ec:	03000008 	movweq	r0, #8
    14f0:	0b0b0024 	bleq	2c1588 <__bss_end__+0x2b7940>
    14f4:	0e030b3e 	vmoveq.16	d3[0], r0
    14f8:	26040000 	strcs	r0, [r4], -r0
    14fc:	00134900 	andseq	r4, r3, r0, lsl #18
    1500:	00160500 	andseq	r0, r6, r0, lsl #10
    1504:	0b3a0e03 	bleq	e84d18 <__bss_end__+0xe7b0d0>
    1508:	0b390b3b 	bleq	e441fc <__bss_end__+0xe3a5b4>
    150c:	00001349 	andeq	r1, r0, r9, asr #6
    1510:	3e010406 	cdpcc	4, 0, cr0, cr1, cr6, {0}
    1514:	490b0b0b 	stmdbmi	fp, {r0, r1, r3, r8, r9, fp}
    1518:	3b0b3a13 	blcc	2cfd6c <__bss_end__+0x2c6124>
    151c:	010b390b 	tsteq	fp, fp, lsl #18
    1520:	07000013 	smladeq	r0, r3, r0, r0
    1524:	0e030028 	cdpeq	0, 0, cr0, cr3, cr8, {1}
    1528:	00000b1c 	andeq	r0, r0, ip, lsl fp
    152c:	03003408 	movweq	r3, #1032	; 0x408
    1530:	3b0b3a0e 	blcc	2cfd70 <__bss_end__+0x2c6128>
    1534:	490b390b 	stmdbmi	fp, {r0, r1, r3, r8, fp, ip, sp}
    1538:	00061c13 	andeq	r1, r6, r3, lsl ip
    153c:	012e0900 			; <UNDEFINED> instruction: 0x012e0900
    1540:	0e03193f 			; <UNDEFINED> instruction: 0x0e03193f
    1544:	0b3b0b3a 	bleq	ec4234 <__bss_end__+0xeba5ec>
    1548:	19270b39 	stmdbne	r7!, {r0, r3, r4, r5, r8, r9, fp}
    154c:	01111349 	tsteq	r1, r9, asr #6
    1550:	18400612 	stmdane	r0, {r1, r4, r9, sl}^
    1554:	01194297 			; <UNDEFINED> instruction: 0x01194297
    1558:	0a000013 	beq	15ac <__code_start__-0x6a54>
    155c:	08030005 	stmdaeq	r3, {r0, r2}
    1560:	0b3b0b3a 	bleq	ec4250 <__bss_end__+0xeba608>
    1564:	13490b39 	movtne	r0, #39737	; 0x9b39
    1568:	42b71702 	adcsmi	r1, r7, #524288	; 0x80000
    156c:	0b000017 	bleq	15d0 <__code_start__-0x6a30>
    1570:	0e030034 	mcreq	0, 0, r0, cr3, cr4, {1}
    1574:	0b3b0b3a 	bleq	ec4264 <__bss_end__+0xeba61c>
    1578:	13490b39 	movtne	r0, #39737	; 0x9b39
    157c:	42b71702 	adcsmi	r1, r7, #524288	; 0x80000
    1580:	0c000017 	stceq	0, cr0, [r0], {23}
    1584:	08030034 	stmdaeq	r3, {r2, r4, r5}
    1588:	0b3b0b3a 	bleq	ec4278 <__bss_end__+0xeba630>
    158c:	13490b39 	movtne	r0, #39737	; 0x9b39
    1590:	42b71702 	adcsmi	r1, r7, #524288	; 0x80000
    1594:	0d000017 	stceq	0, cr0, [r0, #-92]	; 0xffffffa4
    1598:	01018289 	smlabbeq	r1, r9, r2, r8
    159c:	13310111 	teqne	r1, #1073741828	; 0x40000004
    15a0:	8a0e0000 	bhi	3815a8 <__bss_end__+0x377960>
    15a4:	02000182 	andeq	r0, r0, #-2147483616	; 0x80000020
    15a8:	18429118 	stmdane	r2, {r3, r4, r8, ip, pc}^
    15ac:	2e0f0000 	cdpcs	0, 0, cr0, cr15, cr0, {0}
    15b0:	03193f01 	tsteq	r9, #1, 30
    15b4:	3b0b3a0e 	blcc	2cfdf4 <__bss_end__+0x2c61ac>
    15b8:	270b390b 	strcs	r3, [fp, -fp, lsl #18]
    15bc:	12011119 	andne	r1, r1, #1073741830	; 0x40000006
    15c0:	97184006 	ldrls	r4, [r8, -r6]
    15c4:	13011942 	movwne	r1, #6466	; 0x1942
    15c8:	89100000 	ldmdbhi	r0, {}	; <UNPREDICTABLE>
    15cc:	11010182 	smlabbne	r1, r2, r1, r0
    15d0:	01133101 	tsteq	r3, r1, lsl #2
    15d4:	11000013 	tstne	r0, r3, lsl r0
    15d8:	00018289 	andeq	r8, r1, r9, lsl #5
    15dc:	13310111 	teqne	r1, #1073741828	; 0x40000004
    15e0:	05120000 	ldreq	r0, [r2, #-0]
    15e4:	3a0e0300 	bcc	3821ec <__bss_end__+0x3785a4>
    15e8:	390b3b0b 	stmdbcc	fp, {r0, r1, r3, r8, r9, fp, ip, sp}
    15ec:	0213490b 	andseq	r4, r3, #180224	; 0x2c000
    15f0:	1742b717 	smlaldne	fp, r2, r7, r7
    15f4:	2e130000 	cdpcs	0, 1, cr0, cr3, cr0, {0}
    15f8:	3a0e0301 	bcc	382204 <__bss_end__+0x3785bc>
    15fc:	390b3b0b 	stmdbcc	fp, {r0, r1, r3, r8, r9, fp, ip, sp}
    1600:	4919270b 	ldmdbmi	r9, {r0, r1, r3, r8, r9, sl, sp}
    1604:	010b2013 	tsteq	fp, r3, lsl r0
    1608:	14000013 	strne	r0, [r0], #-19	; 0xffffffed
    160c:	08030005 	stmdaeq	r3, {r0, r2}
    1610:	0b3b0b3a 	bleq	ec4300 <__bss_end__+0xeba6b8>
    1614:	13490b39 	movtne	r0, #39737	; 0x9b39
    1618:	2e150000 	cdpcs	0, 1, cr0, cr5, cr0, {0}
    161c:	3c193f00 	ldccc	15, cr3, [r9], {-0}
    1620:	030e6e19 	movweq	r6, #60953	; 0xee19
    1624:	3b0b3a0e 	blcc	2cfe64 <__bss_end__+0x2c621c>
    1628:	000b390b 	andeq	r3, fp, fp, lsl #18
	...

Disassembly of section .debug_loc:

00000000 <.debug_loc>:
       0:	02000000 	andeq	r0, r0, #0, 0
       4:	00000002 	andeq	r0, r0, r2
       8:	00000014 	andeq	r0, r0, r4, lsl r0
       c:	00000018 	andeq	r0, r0, r8, lsl r0
      10:	18500001 	ldmdane	r0, {r0}^
      14:	5c000000 	stcpl	0, cr0, [r0], {-0}
      18:	01000000 	mrseq	r0, (UNDEF: 0)
      1c:	005c5600 	subseq	r5, ip, r0, lsl #12
      20:	00740000 	rsbseq	r0, r4, r0
      24:	00010000 	andeq	r0, r1, r0
      28:	00007454 	andeq	r7, r0, r4, asr r4
      2c:	0000a400 	andeq	sl, r0, r0, lsl #8
      30:	56000100 	strpl	r0, [r0], -r0, lsl #2
	...
      3c:	00000002 	andeq	r0, r0, r2
      40:	00000014 	andeq	r0, r0, r4, lsl r0
      44:	00000018 	andeq	r0, r0, r8, lsl r0
      48:	9f300002 	svcls	0x00300002
      4c:	00000018 	andeq	r0, r0, r8, lsl r0
      50:	000000a4 	andeq	r0, r0, r4, lsr #1
      54:	00550001 	subseq	r0, r5, r1
	...
      60:	2c000000 	stccs	0, cr0, [r0], {-0}
      64:	30000000 	andcc	r0, r0, r0
      68:	01000000 	mrseq	r0, (UNDEF: 0)
      6c:	00305000 	eorseq	r5, r0, r0
      70:	00900000 	addseq	r0, r0, r0
      74:	00010000 	andeq	r0, r1, r0
      78:	00000054 	andeq	r0, r0, r4, asr r0
	...
      84:	00005400 	andeq	r5, r0, r0, lsl #8
      88:	00006400 	andeq	r6, r0, r0, lsl #8
      8c:	50000100 	andpl	r0, r0, r0, lsl #2
      90:	00000074 	andeq	r0, r0, r4, ror r0
      94:	00000088 	andeq	r0, r0, r8, lsl #1
      98:	00500001 	subseq	r0, r0, r1
	...
      a8:	08000000 	stmdaeq	r0, {}	; <UNPREDICTABLE>
      ac:	78000000 	stmdavc	r0, {}	; <UNPREDICTABLE>
      b0:	01000000 	mrseq	r0, (UNDEF: 0)
      b4:	00785100 	rsbseq	r5, r8, r0, lsl #2
      b8:	00840000 	addeq	r0, r4, r0
      bc:	00030000 	andeq	r0, r3, r0
      c0:	849f7870 	ldrhi	r7, [pc], #2160	; c8 <__code_start__-0x7f38>
      c4:	a4000000 	strge	r0, [r0], #-0
      c8:	01000000 	mrseq	r0, (UNDEF: 0)
      cc:	00a45100 	adceq	r5, r4, r0, lsl #2
      d0:	00bc0000 	adcseq	r0, ip, r0
      d4:	00030000 	andeq	r0, r3, r0
      d8:	009f7870 	addseq	r7, pc, r0, ror r8	; <UNPREDICTABLE>
	...
      e4:	10000000 	andne	r0, r0, r0
      e8:	48000000 	stmdami	r0, {}	; <UNPREDICTABLE>
      ec:	01000000 	mrseq	r0, (UNDEF: 0)
      f0:	004c5300 	subeq	r5, ip, r0, lsl #6
      f4:	00bc0000 	adcseq	r0, ip, r0
      f8:	00010000 	andeq	r0, r1, r0
      fc:	00000053 	andeq	r0, r0, r3, asr r0
	...
     10c:	00010000 	andeq	r0, r1, r0
     110:	00012400 	andeq	r2, r1, r0, lsl #8
     114:	50000100 	andpl	r0, r0, r0, lsl #2
     118:	00000124 	andeq	r0, r0, r4, lsr #2
     11c:	00000128 	andeq	r0, r0, r8, lsr #2
     120:	01f30004 	mvnseq	r0, r4
     124:	01289f50 			; <UNDEFINED> instruction: 0x01289f50
     128:	01400000 	mrseq	r0, (UNDEF: 64)
     12c:	00010000 	andeq	r0, r1, r0
     130:	00014050 	andeq	r4, r1, r0, asr r0
     134:	0001ac00 	andeq	sl, r1, r0, lsl #24
     138:	f3000400 	vshl.u8	d0, d0, d0
     13c:	009f5001 	addseq	r5, pc, r1
	...
     14c:	01010000 	mrseq	r0, (UNDEF: 1)
     150:	00000000 	andeq	r0, r0, r0
     154:	00012400 	andeq	r2, r1, r0, lsl #8
     158:	00012800 	andeq	r2, r1, r0, lsl #16
     15c:	50000100 	andpl	r0, r0, r0, lsl #2
     160:	00000140 	andeq	r0, r0, r0, asr #2
     164:	00000160 	andeq	r0, r0, r0, ror #2
     168:	60500001 	subsvs	r0, r0, r1
     16c:	64000001 	strvs	r0, [r0], #-1
     170:	03000001 	movweq	r0, #1
     174:	9f787000 	svcls	0x00787000
     178:	00000164 	andeq	r0, r0, r4, ror #2
     17c:	00000170 	andeq	r0, r0, r0, ror r1
     180:	70500001 	subsvc	r0, r0, r1
     184:	78000001 	stmdavc	r0, {r0}
     188:	02000001 	andeq	r0, r0, #1, 0
     18c:	78007000 	stmdavc	r0, {ip, sp, lr}
     190:	98000001 	stmdals	r0, {r0}
     194:	01000001 	tsteq	r0, r1
     198:	019c5000 	orrseq	r5, ip, r0
     19c:	01ac0000 			; <UNDEFINED> instruction: 0x01ac0000
     1a0:	00010000 	andeq	r0, r1, r0
     1a4:	00000050 	andeq	r0, r0, r0, asr r0
     1a8:	00000000 	andeq	r0, r0, r0
     1ac:	01010000 	mrseq	r0, (UNDEF: 1)
     1b0:	01000000 	mrseq	r0, (UNDEF: 0)
     1b4:	18000000 	stmdane	r0, {}	; <UNPREDICTABLE>
     1b8:	28000001 	stmdacs	r0, {r0}
     1bc:	01000001 	tsteq	r0, r1
     1c0:	01285200 			; <UNDEFINED> instruction: 0x01285200
     1c4:	01400000 	mrseq	r0, (UNDEF: 64)
     1c8:	00060000 	andeq	r0, r6, r0
     1cc:	00983803 	addseq	r3, r8, r3, lsl #16
     1d0:	01409f00 	cmpeq	r0, r0, lsl #30
     1d4:	01700000 	cmneq	r0, r0
     1d8:	00010000 	andeq	r0, r1, r0
     1dc:	00017052 	andeq	r7, r1, r2, asr r0
     1e0:	00017800 	andeq	r7, r1, r0, lsl #16
     1e4:	50000100 	andpl	r0, r0, r0, lsl #2
     1e8:	00000178 	andeq	r0, r0, r8, ror r1
     1ec:	0000019b 	muleq	r0, fp, r1
     1f0:	00520001 	subseq	r0, r2, r1
	...
     1fc:	00011000 	andeq	r1, r1, r0
     200:	0001ac00 	andeq	sl, r1, r0, lsl #24
     204:	54000100 	strpl	r0, [r0], #-256	; 0xffffff00
	...
     214:	000000bc 	strheq	r0, [r0], -ip
     218:	000000cc 	andeq	r0, r0, ip, asr #1
     21c:	cc500001 	mrrcgt	0, 0, r0, r0, cr1	; <UNPREDICTABLE>
     220:	00000000 	andeq	r0, r0, r0
     224:	01000001 	tsteq	r0, r1
     228:	00005400 	andeq	r5, r0, r0, lsl #8
	...
     238:	000000d4 	ldrdeq	r0, [r0], -r4
     23c:	000000e4 	andeq	r0, r0, r4, ror #1
     240:	e4500001 	ldrb	r0, [r0], #-1
     244:	e7000000 	str	r0, [r0, -r0]
     248:	03000000 	movweq	r0, #0
     24c:	9f787000 	svcls	0x00787000
     250:	000000f4 	strdeq	r0, [r0], -r4
     254:	000000f8 	strdeq	r0, [r0], -r8
     258:	00500001 	subseq	r0, r0, r1
     25c:	00000000 	andeq	r0, r0, r0
     260:	01000000 	mrseq	r0, (UNDEF: 0)
     264:	dc000000 	stcle	0, cr0, [r0], {-0}
     268:	e4000000 	str	r0, [r0], #-0
     26c:	01000000 	mrseq	r0, (UNDEF: 0)
     270:	00e45000 	rsceq	r5, r4, r0
     274:	00e70000 	rsceq	r0, r7, r0
     278:	00030000 	andeq	r0, r3, r0
     27c:	009f7870 	addseq	r7, pc, r0, ror r8	; <UNPREDICTABLE>
	...
     28c:	07000000 	streq	r0, [r0, -r0]
     290:	01000000 	mrseq	r0, (UNDEF: 0)
     294:	00075000 	andeq	r5, r7, r0
     298:	000c0000 	andeq	r0, ip, r0
     29c:	00040000 	andeq	r0, r4, r0
     2a0:	9f5001f3 	svcls	0x005001f3
	...
     2b0:	002c0000 	eoreq	r0, ip, r0
     2b4:	00380000 	eorseq	r0, r8, r0
     2b8:	00010000 	andeq	r0, r1, r0
     2bc:	00003850 	andeq	r3, r0, r0, asr r8
     2c0:	00004800 	andeq	r4, r0, r0, lsl #16
     2c4:	54000100 	strpl	r0, [r0], #-256	; 0xffffff00
     2c8:	00000048 	andeq	r0, r0, r8, asr #32
     2cc:	00000058 	andeq	r0, r0, r8, asr r0
     2d0:	00500001 	subseq	r0, r0, r1
	...
     2dc:	00000101 	andeq	r0, r0, r1, lsl #2
     2e0:	08000000 	stmdaeq	r0, {}	; <UNPREDICTABLE>
     2e4:	01000000 	mrseq	r0, (UNDEF: 0)
     2e8:	00085000 	andeq	r5, r8, r0
     2ec:	00340000 	eorseq	r0, r4, r0
     2f0:	00010000 	andeq	r0, r1, r0
     2f4:	00000054 	andeq	r0, r0, r4, asr r0
	...
     300:	88000000 	stmdahi	r0, {}	; <UNPREDICTABLE>
     304:	b8000002 	stmdalt	r0, {r1}
     308:	01000002 	tsteq	r0, r2
     30c:	02b85000 	adcseq	r5, r8, #0, 0
     310:	07040000 	streq	r0, [r4, -r0]
     314:	00010000 	andeq	r0, r1, r0
     318:	00070459 	andeq	r0, r7, r9, asr r4
     31c:	00074000 	andeq	r4, r7, r0
     320:	f3000400 	vshl.u8	d0, d0, d0
     324:	009f5001 	addseq	r5, pc, r1
	...
     334:	00028800 	andeq	r8, r2, r0, lsl #16
     338:	0002a000 	andeq	sl, r2, r0
     33c:	51000100 	mrspl	r0, (UNDEF: 16)
     340:	000002a0 	andeq	r0, r0, r0, lsr #5
     344:	000002b8 			; <UNDEFINED> instruction: 0x000002b8
     348:	01710003 	cmneq	r1, r3
     34c:	0002b89f 	muleq	r2, pc, r8	; <UNPREDICTABLE>
     350:	00074000 	andeq	r4, r7, r0
     354:	f3000400 	vshl.u8	d0, d0, d0
     358:	009f5101 	addseq	r5, pc, r1, lsl #2
	...
     36c:	88000000 	stmdahi	r0, {}	; <UNPREDICTABLE>
     370:	b8000002 	stmdalt	r0, {r1}
     374:	01000002 	tsteq	r0, r2
     378:	02b85200 	adcseq	r5, r8, #0, 4
     37c:	03ec0000 	mvneq	r0, #0, 0
     380:	00010000 	andeq	r0, r1, r0
     384:	0003ec56 	andeq	lr, r3, r6, asr ip
     388:	0004b800 	andeq	fp, r4, r0, lsl #16
     38c:	5b000100 	blpl	794 <__code_start__-0x786c>
     390:	000004b8 			; <UNDEFINED> instruction: 0x000004b8
     394:	000004d8 	ldrdeq	r0, [r0], -r8
     398:	d8560001 	ldmdale	r6, {r0}^
     39c:	5c000004 	stcpl	0, cr0, [r0], {4}
     3a0:	01000005 	tsteq	r0, r5
     3a4:	055c5b00 	ldrbeq	r5, [ip, #-2816]	; 0xfffff500
     3a8:	07040000 	streq	r0, [r4, -r0]
     3ac:	00010000 	andeq	r0, r1, r0
     3b0:	00000056 	andeq	r0, r0, r6, asr r0
     3b4:	00000000 	andeq	r0, r0, r0
     3b8:	00000100 	andeq	r0, r0, r0, lsl #2
     3bc:	00000000 	andeq	r0, r0, r0
     3c0:	00000101 	andeq	r0, r0, r1, lsl #2
     3c4:	00000000 	andeq	r0, r0, r0
     3c8:	00000202 	andeq	r0, r0, r2, lsl #4
     3cc:	00029c00 	andeq	r9, r2, r0, lsl #24
     3d0:	0002b800 	andeq	fp, r2, r0, lsl #16
     3d4:	50000100 	andpl	r0, r0, r0, lsl #2
     3d8:	000002b8 			; <UNDEFINED> instruction: 0x000002b8
     3dc:	000002bc 			; <UNDEFINED> instruction: 0x000002bc
     3e0:	bc540001 	mrrclt	0, 0, r0, r4, cr1
     3e4:	c0000002 	andgt	r0, r0, r2
     3e8:	03000002 	movweq	r0, #2
     3ec:	9f017400 	svcls	0x00017400
     3f0:	000002c0 	andeq	r0, r0, r0, asr #5
     3f4:	000002e4 	andeq	r0, r0, r4, ror #5
     3f8:	e4540001 	ldrb	r0, [r4], #-1
     3fc:	e8000002 	stmda	r0, {r1}
     400:	03000002 	movweq	r0, #2
     404:	9f017400 	svcls	0x00017400
     408:	000002e8 	andeq	r0, r0, r8, ror #5
     40c:	000006d4 	ldrdeq	r0, [r0], -r4
     410:	d4540001 	ldrble	r0, [r4], #-1
     414:	d8000006 	stmdale	r0, {r1, r2}
     418:	03000006 	movweq	r0, #6
     41c:	9f017400 	svcls	0x00017400
     420:	000006d8 	ldrdeq	r0, [r0], -r8
     424:	000006f0 	strdeq	r0, [r0], -r0	; <UNPREDICTABLE>
     428:	f0540001 			; <UNDEFINED> instruction: 0xf0540001
     42c:	f8000006 			; <UNDEFINED> instruction: 0xf8000006
     430:	03000006 	movweq	r0, #6
     434:	9f017400 	svcls	0x00017400
     438:	000006f8 	strdeq	r0, [r0], -r8
     43c:	00000704 	andeq	r0, r0, r4, lsl #14
     440:	00540001 	subseq	r0, r4, r1
	...
     44c:	a4000000 	strge	r0, [r0], #-0
     450:	04000002 	streq	r0, [r0], #-2
     454:	01000007 	tsteq	r0, r7
     458:	07045800 	streq	r5, [r4, -r0, lsl #16]
     45c:	07400000 	strbeq	r0, [r0, -r0]
     460:	000a0000 	andeq	r0, sl, r0
     464:	f35101f3 	vbsl	q8, <illegal reg q8.5>, <illegal reg q9.5>
     468:	31225001 			; <UNDEFINED> instruction: 0x31225001
     46c:	00009f1c 	andeq	r9, r0, ip, lsl pc
     470:	00000000 	andeq	r0, r0, r0
     474:	00010000 	andeq	r0, r1, r0
     478:	00000000 	andeq	r0, r0, r0
     47c:	00000408 	andeq	r0, r0, r8, lsl #8
     480:	00000474 	andeq	r0, r0, r4, ror r4
     484:	d8570001 	ldmdale	r7, {r0}^
     488:	fc000004 	stc2	0, cr0, [r0], {4}
     48c:	01000004 	tsteq	r0, r4
     490:	05405700 	strbeq	r5, [r0, #-1792]	; 0xfffff900
     494:	055c0000 	ldrbeq	r0, [ip, #-0]
     498:	00010000 	andeq	r0, r1, r0
     49c:	00000057 	andeq	r0, r0, r7, asr r0
     4a0:	00000000 	andeq	r0, r0, r0
     4a4:	00000200 	andeq	r0, r0, r0, lsl #4
     4a8:	00040800 	andeq	r0, r4, r0, lsl #16
     4ac:	0004b800 	andeq	fp, r4, r0, lsl #16
     4b0:	5a000100 	bpl	8b8 <__code_start__-0x7748>
     4b4:	000004d8 	ldrdeq	r0, [r0], -r8
     4b8:	0000055c 	andeq	r0, r0, ip, asr r5
     4bc:	005a0001 	subseq	r0, sl, r1
     4c0:	00000000 	andeq	r0, r0, r0
     4c4:	01000000 	mrseq	r0, (UNDEF: 0)
     4c8:	ac000000 	stcge	0, cr0, [r0], {-0}
     4cc:	b8000002 	stmdalt	r0, {r1}
     4d0:	01000002 	tsteq	r0, r2
     4d4:	02b85200 	adcseq	r5, r8, #0, 4
     4d8:	07400000 	strbeq	r0, [r0, -r0]
     4dc:	00030000 	andeq	r0, r3, r0
     4e0:	007dc891 			; <UNDEFINED> instruction: 0x007dc891
	...
     4f4:	00000101 	andeq	r0, r0, r1, lsl #2
	...
     500:	00047400 	andeq	r7, r4, r0, lsl #8
     504:	00048c00 	andeq	r8, r4, r0, lsl #24
     508:	50000100 	andpl	r0, r0, r0, lsl #2
     50c:	0000048c 	andeq	r0, r0, ip, lsl #9
     510:	000004b8 			; <UNDEFINED> instruction: 0x000004b8
     514:	fc570001 	mrrc2	0, 0, r0, r7, cr1
     518:	14000004 	strne	r0, [r0], #-4
     51c:	01000005 	tsteq	r0, r5
     520:	05145000 	ldreq	r5, [r4, #-0]
     524:	05400000 	strbeq	r0, [r0, #-0]
     528:	00010000 	andeq	r0, r1, r0
     52c:	0005a457 	andeq	sl, r5, r7, asr r4
     530:	0005a400 	andeq	sl, r5, r0, lsl #8
     534:	50000100 	andpl	r0, r0, r0, lsl #2
     538:	000005a4 	andeq	r0, r0, r4, lsr #11
     53c:	000005ac 	andeq	r0, r0, ip, lsr #11
     540:	dc570001 	mrrcle	0, 0, r0, r7, cr1
     544:	e0000005 	and	r0, r0, r5
     548:	01000005 	tsteq	r0, r5
     54c:	06105000 	ldreq	r5, [r0], -r0
     550:	06140000 	ldreq	r0, [r4], -r0
     554:	00010000 	andeq	r0, r1, r0
     558:	00064450 	andeq	r4, r6, r0, asr r4
     55c:	00064800 	andeq	r4, r6, r0, lsl #16
     560:	50000100 	andpl	r0, r0, r0, lsl #2
     564:	0000068c 	andeq	r0, r0, ip, lsl #13
     568:	00000690 	muleq	r0, r0, r6
     56c:	d0500001 	subsle	r0, r0, r1
     570:	f0000006 			; <UNDEFINED> instruction: 0xf0000006
     574:	01000006 	tsteq	r0, r6
     578:	00005700 	andeq	r5, r0, r0, lsl #14
     57c:	00000000 	andeq	r0, r0, r0
     580:	00020000 	andeq	r0, r2, r0
     584:	00000000 	andeq	r0, r0, r0
     588:	000002f4 	strdeq	r0, [r0], -r4
     58c:	000002f8 	strdeq	r0, [r0], -r8
     590:	9f300002 	svcls	0x00300002
     594:	000002f8 	strdeq	r0, [r0], -r8
     598:	00000314 	andeq	r0, r0, r4, lsl r3
     59c:	1c550001 	mrrcne	0, 0, r0, r5, cr1
     5a0:	f0000003 			; <UNDEFINED> instruction: 0xf0000003
     5a4:	01000006 	tsteq	r0, r6
     5a8:	00005500 	andeq	r5, r0, r0, lsl #10
     5ac:	00000000 	andeq	r0, r0, r0
     5b0:	00010000 	andeq	r0, r1, r0
	...
     5bc:	000003b8 			; <UNDEFINED> instruction: 0x000003b8
     5c0:	00000454 	andeq	r0, r0, r4, asr r4
     5c4:	54560001 	ldrbpl	r0, [r6], #-1
     5c8:	b8000004 	stmdalt	r0, {r2}
     5cc:	03000004 	movweq	r0, #4
     5d0:	9f7e7b00 	svcls	0x007e7b00
     5d4:	000004b8 			; <UNDEFINED> instruction: 0x000004b8
     5d8:	000004dc 	ldrdeq	r0, [r0], -ip
     5dc:	dc560001 	mrrcle	0, 0, r0, r6, cr1
     5e0:	40000004 	andmi	r0, r0, r4
     5e4:	03000005 	movweq	r0, #5
     5e8:	9f7e7b00 	svcls	0x007e7b00
     5ec:	00000540 	andeq	r0, r0, r0, asr #10
     5f0:	0000055c 	andeq	r0, r0, ip, asr r5
     5f4:	00560001 	subseq	r0, r6, r1
	...
     604:	00007000 	andeq	r7, r0, r0
     608:	00009400 	andeq	r9, r0, r0, lsl #8
     60c:	50000100 	andpl	r0, r0, r0, lsl #2
     610:	00000094 	muleq	r0, r4, r0
     614:	000000fc 	strdeq	r0, [r0], -ip
     618:	02700003 	rsbseq	r0, r0, #3, 0
     61c:	0000fc9f 	muleq	r0, pc, ip	; <UNPREDICTABLE>
     620:	00022400 	andeq	r2, r2, r0, lsl #8
     624:	f3000400 	vshl.u8	d0, d0, d0
     628:	009f5001 	addseq	r5, pc, r1
	...
     640:	70000000 	andvc	r0, r0, r0
     644:	e0000000 	and	r0, r0, r0
     648:	01000000 	mrseq	r0, (UNDEF: 0)
     64c:	00e05100 	rsceq	r5, r0, r0, lsl #2
     650:	01540000 	cmpeq	r4, r0
     654:	00010000 	andeq	r0, r1, r0
     658:	00015455 	andeq	r5, r1, r5, asr r4
     65c:	00015800 	andeq	r5, r1, r0, lsl #16
     660:	51000100 	mrspl	r0, (UNDEF: 16)
     664:	00000158 	andeq	r0, r0, r8, asr r1
     668:	000001b0 			; <UNDEFINED> instruction: 0x000001b0
     66c:	b0550001 	subslt	r0, r5, r1
     670:	c0000001 	andgt	r0, r0, r1
     674:	01000001 	tsteq	r0, r1
     678:	01c05100 	biceq	r5, r0, r0, lsl #2
     67c:	01e40000 	mvneq	r0, r0
     680:	00010000 	andeq	r0, r1, r0
     684:	0001e455 	andeq	lr, r1, r5, asr r4
     688:	0001f800 	andeq	pc, r1, r0, lsl #16
     68c:	51000100 	mrspl	r0, (UNDEF: 16)
     690:	000001f8 	strdeq	r0, [r0], -r8
     694:	00000224 	andeq	r0, r0, r4, lsr #4
     698:	00550001 	subseq	r0, r5, r1
	...
     6a4:	70000000 	andvc	r0, r0, r0
     6a8:	84000000 	strhi	r0, [r0], #-0
     6ac:	01000000 	mrseq	r0, (UNDEF: 0)
     6b0:	00845200 	addeq	r5, r4, r0, lsl #4
     6b4:	02240000 	eoreq	r0, r4, #0, 0
     6b8:	00010000 	andeq	r0, r1, r0
     6bc:	00000054 	andeq	r0, r0, r4, asr r0
	...
     6c8:	00010000 	andeq	r0, r1, r0
     6cc:	00000000 	andeq	r0, r0, r0
     6d0:	00007000 	andeq	r7, r0, r0
     6d4:	0000f400 	andeq	pc, r0, r0, lsl #8
     6d8:	53000100 	movwpl	r0, #256	; 0x100
     6dc:	0000014c 	andeq	r0, r0, ip, asr #2
     6e0:	00000180 	andeq	r0, r0, r0, lsl #3
     6e4:	80530001 	subshi	r0, r3, r1
     6e8:	8c000001 	stchi	0, cr0, [r0], {1}
     6ec:	04000001 	streq	r0, [r0], #-1
     6f0:	5301f300 	movwpl	pc, #4864	; 0x1300	; <UNPREDICTABLE>
     6f4:	0001b09f 	muleq	r1, pc, r0	; <UNPREDICTABLE>
     6f8:	0001e800 	andeq	lr, r1, r0, lsl #16
     6fc:	53000100 	movwpl	r0, #256	; 0x100
     700:	000001e8 	andeq	r0, r0, r8, ror #3
     704:	000001ff 	strdeq	r0, [r0], -pc	; <UNPREDICTABLE>
     708:	ff5c0001 			; <UNDEFINED> instruction: 0xff5c0001
     70c:	24000001 	strcs	r0, [r0], #-1
     710:	04000002 	streq	r0, [r0], #-2
     714:	5301f300 	movwpl	pc, #4864	; 0x1300	; <UNPREDICTABLE>
     718:	0000009f 	muleq	r0, pc, r0	; <UNPREDICTABLE>
	...
     724:	70000000 	andvc	r0, r0, r0
     728:	8c000000 	stchi	0, cr0, [r0], {-0}
     72c:	02000000 	andeq	r0, r0, #0, 0
     730:	8c009100 	stfhid	f1, [r0], {-0}
     734:	93000000 	movwls	r0, #0
     738:	01000001 	tsteq	r0, r1
     73c:	01b05200 	lslseq	r5, r0, #4
     740:	01f40000 	mvnseq	r0, r0
     744:	00010000 	andeq	r0, r1, r0
     748:	00000052 	andeq	r0, r0, r2, asr r0
     74c:	00000000 	andeq	r0, r0, r0
     750:	00000100 	andeq	r0, r0, r0, lsl #2
     754:	00000101 	andeq	r0, r0, r1, lsl #2
     758:	00000000 	andeq	r0, r0, r0
     75c:	01010000 	mrseq	r0, (UNDEF: 1)
     760:	00000101 	andeq	r0, r0, r1, lsl #2
     764:	00000101 	andeq	r0, r0, r1, lsl #2
	...
     770:	00008c00 	andeq	r8, r0, r0, lsl #24
     774:	0000fc00 	andeq	pc, r0, r0, lsl #24
     778:	91000400 	tstls	r0, r0, lsl #8
     77c:	fc9f7fa0 	ldc2	15, cr7, [pc], {160}	; 0xa0
     780:	3c000000 	stccc	0, cr0, [r0], {-0}
     784:	01000001 	tsteq	r0, r1
     788:	013c5000 	teqeq	ip, r0
     78c:	01480000 	mrseq	r0, (UNDEF: 72)
     790:	00030000 	andeq	r0, r3, r0
     794:	489f0271 	ldmmi	pc, {r0, r4, r5, r6, r9}	; <UNPREDICTABLE>
     798:	4c000001 	stcmi	0, cr0, [r0], {1}
     79c:	01000001 	tsteq	r0, r1
     7a0:	014c5000 	mrseq	r5, (UNDEF: 76)
     7a4:	01580000 	cmpeq	r8, r0
     7a8:	00040000 	andeq	r0, r4, r0
     7ac:	9f7fa091 	svcls	0x007fa091
     7b0:	00000158 	andeq	r0, r0, r8, asr r1
     7b4:	0000016c 	andeq	r0, r0, ip, ror #2
     7b8:	6c510001 	mrrcvs	0, 0, r0, r1, cr1
     7bc:	78000001 	stmdavc	r0, {r0}
     7c0:	03000001 	movweq	r0, #1
     7c4:	9f7f7100 	svcls	0x007f7100
     7c8:	00000178 	andeq	r0, r0, r8, ror r1
     7cc:	00000184 	andeq	r0, r0, r4, lsl #3
     7d0:	01710003 	cmneq	r1, r3
     7d4:	0001849f 	muleq	r1, pc, r4	; <UNPREDICTABLE>
     7d8:	00019300 	andeq	r9, r1, r0, lsl #6
     7dc:	50000100 	andpl	r0, r0, r0, lsl #2
     7e0:	000001b0 			; <UNDEFINED> instruction: 0x000001b0
     7e4:	000001b0 			; <UNDEFINED> instruction: 0x000001b0
     7e8:	a0910004 	addsge	r0, r1, r4
     7ec:	01b09f7f 	rorseq	r9, pc, pc
     7f0:	01b80000 			; <UNDEFINED> instruction: 0x01b80000
     7f4:	00040000 	andeq	r0, r4, r0
     7f8:	9f7fa191 	svcls	0x007fa191
     7fc:	000001b8 			; <UNDEFINED> instruction: 0x000001b8
     800:	000001bc 			; <UNDEFINED> instruction: 0x000001bc
     804:	bc500001 	mrrclt	0, 0, r0, r0, cr1	; <UNPREDICTABLE>
     808:	c0000001 	andgt	r0, r0, r1
     80c:	04000001 	streq	r0, [r0], #-1
     810:	7fa09100 	svcvc	0x00a09100
     814:	0001c09f 	muleq	r1, pc, r0	; <UNPREDICTABLE>
     818:	0001d400 	andeq	sp, r1, r0, lsl #8
     81c:	50000100 	andpl	r0, r0, r0, lsl #2
     820:	000001d4 	ldrdeq	r0, [r0], -r4
     824:	000001e4 	andeq	r0, r0, r4, ror #3
     828:	7f700003 	svcvc	0x00700003
     82c:	0001e49f 	muleq	r1, pc, r4	; <UNPREDICTABLE>
     830:	00022400 	andeq	r2, r2, r0, lsl #8
     834:	91000400 	tstls	r0, r0, lsl #8
     838:	009f7fa0 	addseq	r7, pc, r0, lsr #31
	...
     844:	01010000 	mrseq	r0, (UNDEF: 1)
	...
     854:	90000000 	andls	r0, r0, r0
     858:	dc000000 	stcle	0, cr0, [r0], {-0}
     85c:	01000000 	mrseq	r0, (UNDEF: 0)
     860:	00dc5c00 	sbcseq	r5, ip, r0, lsl #24
     864:	00f40000 	rscseq	r0, r4, r0
     868:	00010000 	andeq	r0, r1, r0
     86c:	0000f453 	andeq	pc, r0, r3, asr r4	; <UNPREDICTABLE>
     870:	00014c00 	andeq	r4, r1, r0, lsl #24
     874:	5c000100 	stfpls	f0, [r0], {-0}
     878:	0000014c 	andeq	r0, r0, ip, asr #2
     87c:	00000158 	andeq	r0, r0, r8, asr r1
     880:	58530001 	ldmdapl	r3, {r0}^
     884:	74000001 	strvc	r0, [r0], #-1
     888:	01000001 	tsteq	r0, r1
     88c:	01b05c00 	lslseq	r5, r0, #24
     890:	01c00000 	biceq	r0, r0, r0
     894:	00010000 	andeq	r0, r1, r0
     898:	0001c053 	andeq	ip, r1, r3, asr r0
     89c:	0001dc00 	andeq	sp, r1, r0, lsl #24
     8a0:	5c000100 	stfpls	f0, [r0], {-0}
     8a4:	000001e4 	andeq	r0, r0, r4, ror #3
     8a8:	000001e8 	andeq	r0, r0, r8, ror #3
     8ac:	e8530001 	ldmda	r3, {r0}^
     8b0:	ff000001 			; <UNDEFINED> instruction: 0xff000001
     8b4:	01000001 	tsteq	r0, r1
     8b8:	01ff5c00 	mvnseq	r5, r0, lsl #24
     8bc:	02240000 	eoreq	r0, r4, #0, 0
     8c0:	00040000 	andeq	r0, r4, r0
     8c4:	9f5301f3 	svcls	0x005301f3
	...
     8d0:	00010101 	andeq	r0, r1, r1, lsl #2
     8d4:	00000000 	andeq	r0, r0, r0
     8d8:	000000dc 	ldrdeq	r0, [r0], -ip
     8dc:	000000f0 	strdeq	r0, [r0], -r0	; <UNPREDICTABLE>
     8e0:	9f300002 	svcls	0x00300002
     8e4:	000000f0 	strdeq	r0, [r0], -r0	; <UNPREDICTABLE>
     8e8:	000000f8 	strdeq	r0, [r0], -r8
     8ec:	9f310002 	svcls	0x00310002
     8f0:	000000fc 	strdeq	r0, [r0], -ip
     8f4:	0000014c 	andeq	r0, r0, ip, asr #2
     8f8:	4c560001 	mrrcmi	0, 0, r0, r6, cr1
     8fc:	54000001 	strpl	r0, [r0], #-1
     900:	02000001 	andeq	r0, r0, #1, 0
     904:	009f3000 	addseq	r3, pc, r0
	...
     910:	01010000 	mrseq	r0, (UNDEF: 1)
     914:	01010000 	mrseq	r0, (UNDEF: 1)
     918:	00003800 	andeq	r3, r0, r0, lsl #16
     91c:	00005400 	andeq	r5, r0, r0, lsl #8
     920:	50000100 	andpl	r0, r0, r0, lsl #2
     924:	00000054 	andeq	r0, r0, r4, asr r0
     928:	00000058 	andeq	r0, r0, r8, asr r0
     92c:	58520001 	ldmdapl	r2, {r0}^
     930:	60000000 	andvs	r0, r0, r0
     934:	03000000 	movweq	r0, #0
     938:	9f017200 	svcls	0x00017200
     93c:	00000060 	andeq	r0, r0, r0, rrx
     940:	00000064 	andeq	r0, r0, r4, rrx
     944:	64520001 	ldrbvs	r0, [r2], #-1
     948:	70000000 	andvc	r0, r0, r0
     94c:	03000000 	movweq	r0, #0
     950:	9f017200 	svcls	0x00017200
	...
     960:	00000038 	andeq	r0, r0, r8, lsr r0
     964:	00000050 	andeq	r0, r0, r0, asr r0
     968:	50510001 	subspl	r0, r1, r1
     96c:	70000000 	andvc	r0, r0, r0
     970:	04000000 	streq	r0, [r0], #-0
     974:	5101f300 	mrspl	pc, SP_irq	; <UNPREDICTABLE>
     978:	0000009f 	muleq	r0, pc, r0	; <UNPREDICTABLE>
	...
     984:	01010000 	mrseq	r0, (UNDEF: 1)
     988:	00003800 	andeq	r3, r0, r0, lsl #16
     98c:	00005000 	andeq	r5, r0, r0
     990:	52000100 	andpl	r0, r0, #0
     994:	00000050 	andeq	r0, r0, r0, asr r0
     998:	0000005c 	andeq	r0, r0, ip, asr r0
     99c:	5c510001 	mrrcpl	0, 0, r0, r1, cr1
     9a0:	60000000 	andvs	r0, r0, r0
     9a4:	03000000 	movweq	r0, #0
     9a8:	9f017100 	svcls	0x00017100
     9ac:	00000060 	andeq	r0, r0, r0, rrx
     9b0:	00000070 	andeq	r0, r0, r0, ror r0
     9b4:	00510001 	subseq	r0, r1, r1
	...
     9c0:	38000000 	stmdacc	r0, {}	; <UNPREDICTABLE>
     9c4:	4c000000 	stcmi	0, cr0, [r0], {-0}
     9c8:	01000000 	mrseq	r0, (UNDEF: 0)
     9cc:	004c5300 	subeq	r5, ip, r0, lsl #6
     9d0:	00680000 	rsbeq	r0, r8, r0
     9d4:	00010000 	andeq	r0, r1, r0
     9d8:	00000053 	andeq	r0, r0, r3, asr r0
	...
     9e8:	00004000 	andeq	r4, r0, r0
     9ec:	00004800 	andeq	r4, r0, r0, lsl #16
     9f0:	5c000100 	stfpls	f0, [r0], {-0}
     9f4:	00000048 	andeq	r0, r0, r8, asr #32
     9f8:	0000004c 	andeq	r0, r0, ip, asr #32
     9fc:	00720008 	rsbseq	r0, r2, r8
     a00:	231c0073 	tstcs	ip, #115, 0	; 0x73
     a04:	004c9f01 	subeq	r9, ip, r1, lsl #30
     a08:	00540000 	subseq	r0, r4, r0
     a0c:	00090000 	andeq	r0, r9, r0
     a10:	01f30072 	mvnseq	r0, r2, ror r0
     a14:	01231c53 			; <UNDEFINED> instruction: 0x01231c53
     a18:	0000549f 	muleq	r0, pc, r4	; <UNPREDICTABLE>
     a1c:	00007000 	andeq	r7, r0, r0
     a20:	f3000a00 	vpmax.u8	d0, d0, d0
     a24:	01f35201 	mvnseq	r5, r1, lsl #4
     a28:	01231c53 			; <UNDEFINED> instruction: 0x01231c53
     a2c:	0000009f 	muleq	r0, pc, r0	; <UNPREDICTABLE>
     a30:	00000000 	andeq	r0, r0, r0
     a34:	4c000100 	stfmis	f0, [r0], {-0}
     a38:	70000000 	andvc	r0, r0, r0
     a3c:	01000000 	mrseq	r0, (UNDEF: 0)
     a40:	00005000 	andeq	r5, r0, r0
     a44:	00000000 	andeq	r0, r0, r0
     a48:	01000000 	mrseq	r0, (UNDEF: 0)
     a4c:	00000001 	andeq	r0, r0, r1
     a50:	00000014 	andeq	r0, r0, r4, lsl r0
     a54:	0000001c 	andeq	r0, r0, ip, lsl r0
     a58:	1c500001 	mrrcne	0, 0, r0, r0, cr1	; <UNPREDICTABLE>
     a5c:	24000000 	strcs	r0, [r0], #-0
     a60:	03000000 	movweq	r0, #0
     a64:	9f017000 	svcls	0x00017000
     a68:	00000024 	andeq	r0, r0, r4, lsr #32
     a6c:	00000038 	andeq	r0, r0, r8, lsr r0
     a70:	00500001 	subseq	r0, r0, r1
	...
     a7c:	14000000 	strne	r0, [r0], #-0
     a80:	18000000 	stmdane	r0, {}	; <UNPREDICTABLE>
     a84:	01000000 	mrseq	r0, (UNDEF: 0)
     a88:	00185100 	andseq	r5, r8, r0, lsl #2
     a8c:	00380000 	eorseq	r0, r8, r0
     a90:	00040000 	andeq	r0, r4, r0
     a94:	9f5101f3 	svcls	0x005101f3
	...
     aa0:	00180000 	andseq	r0, r8, r0
     aa4:	00380000 	eorseq	r0, r8, r0
     aa8:	00010000 	andeq	r0, r1, r0
     aac:	00000051 	andeq	r0, r0, r1, asr r0
	...
     abc:	04000000 	streq	r0, [r0], #-0
     ac0:	01000000 	mrseq	r0, (UNDEF: 0)
     ac4:	00045000 	andeq	r5, r4, r0
     ac8:	000c0000 	andeq	r0, ip, r0
     acc:	00030000 	andeq	r0, r3, r0
     ad0:	0c9f3070 	ldceq	0, cr3, [pc], {112}	; 0x70
     ad4:	14000000 	strne	r0, [r0], #-0
     ad8:	04000000 	streq	r0, [r0], #-0
     adc:	5001f300 	andpl	pc, r1, r0, lsl #6
     ae0:	0000009f 	muleq	r0, pc, r0	; <UNPREDICTABLE>
	...
     aec:	00022400 	andeq	r2, r2, r0, lsl #8
     af0:	00026800 	andeq	r6, r2, r0, lsl #16
     af4:	50000100 	andpl	r0, r0, r0, lsl #2
     af8:	00000268 	andeq	r0, r0, r8, ror #4
     afc:	00000288 	andeq	r0, r0, r8, lsl #5
     b00:	01f30004 	mvnseq	r0, r4
     b04:	00009f50 	andeq	r9, r0, r0, asr pc
	...
     b10:	02240000 	eoreq	r0, r4, #0, 0
     b14:	02640000 	rsbeq	r0, r4, #0, 0
     b18:	00010000 	andeq	r0, r1, r0
     b1c:	00026451 	andeq	r6, r2, r1, asr r4
     b20:	00028800 	andeq	r8, r2, r0, lsl #16
     b24:	f3000400 	vshl.u8	d0, d0, d0
     b28:	009f5101 	addseq	r5, pc, r1, lsl #2
	...
     b34:	00000101 	andeq	r0, r0, r1, lsl #2
     b38:	00000c00 	andeq	r0, r0, r0, lsl #24
     b3c:	00001400 	andeq	r1, r0, r0, lsl #8
     b40:	53000100 	movwpl	r0, #256	; 0x100
     b44:	00000014 	andeq	r0, r0, r4, lsl r0
     b48:	0000001c 	andeq	r0, r0, ip, lsl r0
     b4c:	04730003 	ldrbteq	r0, [r3], #-3
     b50:	00001c9f 	muleq	r0, pc, ip	; <UNPREDICTABLE>
     b54:	00002300 	andeq	r2, r0, r0, lsl #6
     b58:	53000100 	movwpl	r0, #256	; 0x100
	...
     b64:	8b300001 	blhi	c00b70 <__bss_end__+0xbf6f28>
     b68:	8b4c0000 	blhi	1300b70 <__bss_end__+0x12f6f28>
     b6c:	00060000 	andeq	r0, r6, r0
     b70:	10001c0c 	andne	r1, r0, ip, lsl #24
     b74:	00009f20 	andeq	r9, r0, r0, lsr #30
     b78:	00000000 	andeq	r0, r0, r0
     b7c:	00020000 	andeq	r0, r2, r0
     b80:	00008b30 	andeq	r8, r0, r0, lsr fp
     b84:	00008b4c 	andeq	r8, r0, ip, asr #22
     b88:	240c0006 	strcs	r0, [ip], #-6
     b8c:	9f201000 	svcls	0x00201000
	...
     b98:	8b300003 	blhi	c00bac <__bss_end__+0xbf6f64>
     b9c:	8b4c0000 	blhi	1300ba4 <__bss_end__+0x12f6f5c>
     ba0:	00050000 	andeq	r0, r5, r0
     ba4:	2447b408 	strbcs	fp, [r7], #-1032	; 0xfffffbf8
     ba8:	0000009f 	muleq	r0, pc, r0	; <UNPREDICTABLE>
     bac:	00000000 	andeq	r0, r0, r0
     bb0:	30000400 	andcc	r0, r0, r0, lsl #8
     bb4:	4c00008b 	stcmi	0, cr0, [r0], {139}	; 0x8b
     bb8:	0300008b 	movweq	r0, #139	; 0x8b
     bbc:	9f200800 	svcls	0x00200800
	...
     bc8:	00000002 	andeq	r0, r0, r2
     bcc:	8afc0000 	bhi	fff00bd4 <__bss_end__+0xffef6f8c>
     bd0:	8b000000 	blhi	bd8 <__code_start__-0x7428>
     bd4:	00020000 	andeq	r0, r2, r0
     bd8:	8b009f30 	blhi	288a0 <__bss_end__+0x1ec58>
     bdc:	8b040000 	blhi	100be4 <__bss_end__+0xf6f9c>
     be0:	00010000 	andeq	r0, r1, r0
     be4:	008b0853 	addeq	r0, fp, r3, asr r8
     be8:	008b1000 	addeq	r1, fp, r0
     bec:	53000100 	movwpl	r0, #256	; 0x100
	...
     bf8:	00000002 	andeq	r0, r0, r2
     bfc:	00008ae4 	andeq	r8, r0, r4, ror #21
     c00:	00008ae8 	andeq	r8, r0, r8, ror #21
     c04:	9f300002 	svcls	0x00300002
     c08:	00008ae8 	andeq	r8, r0, r8, ror #21
     c0c:	00008aec 	andeq	r8, r0, ip, ror #21
     c10:	00500001 	subseq	r0, r0, r1
	...
     c1c:	6c000000 	stcvs	0, cr0, [r0], {-0}
     c20:	78000000 	stmdavc	r0, {}	; <UNPREDICTABLE>
     c24:	01000000 	mrseq	r0, (UNDEF: 0)
     c28:	00785000 	rsbseq	r5, r8, r0
     c2c:	00840000 	addeq	r0, r4, r0
     c30:	00040000 	andeq	r0, r4, r0
     c34:	9f5001f3 	svcls	0x005001f3
	...
     c44:	00000054 	andeq	r0, r0, r4, asr r0
     c48:	00000060 	andeq	r0, r0, r0, rrx
     c4c:	60500001 	subsvs	r0, r0, r1
     c50:	6c000000 	stcvs	0, cr0, [r0], {-0}
     c54:	04000000 	streq	r0, [r0], #-0
     c58:	5001f300 	andpl	pc, r1, r0, lsl #6
     c5c:	0000009f 	muleq	r0, pc, r0	; <UNPREDICTABLE>
	...
     c68:	00003000 	andeq	r3, r0, r0
     c6c:	00003b00 	andeq	r3, r0, r0, lsl #22
     c70:	50000100 	andpl	r0, r0, r0, lsl #2
     c74:	0000003b 	andeq	r0, r0, fp, lsr r0
     c78:	00000054 	andeq	r0, r0, r4, asr r0
     c7c:	00550001 	subseq	r0, r5, r1
	...
     c88:	00004000 	andeq	r4, r0, r0
     c8c:	00005400 	andeq	r5, r0, r0, lsl #8
     c90:	54000100 	strpl	r0, [r0], #-256	; 0xffffff00
	...
     c9c:	00440000 	subeq	r0, r4, r0
     ca0:	00480000 	subeq	r0, r8, r0
     ca4:	00010000 	andeq	r0, r1, r0
     ca8:	00000050 	andeq	r0, r0, r0, asr r0
	...
     cb4:	00002400 	andeq	r2, r0, r0, lsl #8
     cb8:	00002700 	andeq	r2, r0, r0, lsl #14
     cbc:	50000100 	andpl	r0, r0, r0, lsl #2
     cc0:	00000027 	andeq	r0, r0, r7, lsr #32
     cc4:	00000030 	andeq	r0, r0, r0, lsr r0
     cc8:	00540001 	subseq	r0, r4, r1
	...
     cd4:	58000000 	stmdapl	r0, {}	; <UNPREDICTABLE>
     cd8:	63000001 	movwvs	r0, #1
     cdc:	01000001 	tsteq	r0, r1
     ce0:	01635000 	cmneq	r3, r0
     ce4:	01880000 	orreq	r0, r8, r0
     ce8:	00010000 	andeq	r0, r1, r0
     cec:	00000054 	andeq	r0, r0, r4, asr r0
     cf0:	00000000 	andeq	r0, r0, r0
     cf4:	48000000 	stmdami	r0, {}	; <UNPREDICTABLE>
     cf8:	58000001 	stmdapl	r0, {r0}
     cfc:	01000001 	tsteq	r0, r1
     d00:	00005400 	andeq	r5, r0, r0, lsl #8
	...
     d10:	000f0000 	andeq	r0, pc, r0
     d14:	00010000 	andeq	r0, r1, r0
     d18:	00000f50 	andeq	r0, r0, r0, asr pc
     d1c:	00002000 	andeq	r2, r0, r0
     d20:	54000100 	strpl	r0, [r0], #-256	; 0xffffff00
	...
     d34:	0000000f 	andeq	r0, r0, pc
     d38:	0f510001 	svceq	0x00510001
     d3c:	20000000 	andcs	r0, r0, r0
     d40:	01000000 	mrseq	r0, (UNDEF: 0)
     d44:	00005500 	andeq	r5, r0, r0, lsl #10
	...
     d50:	00200000 	eoreq	r0, r0, r0
     d54:	002f0000 	eoreq	r0, pc, r0
     d58:	00010000 	andeq	r0, r1, r0
     d5c:	00002f50 	andeq	r2, r0, r0, asr pc
     d60:	00004000 	andeq	r4, r0, r0
     d64:	54000100 	strpl	r0, [r0], #-256	; 0xffffff00
	...
     d74:	00000020 	andeq	r0, r0, r0, lsr #32
     d78:	0000002f 	andeq	r0, r0, pc, lsr #32
     d7c:	2f510001 	svccs	0x00510001
     d80:	40000000 	andmi	r0, r0, r0
     d84:	01000000 	mrseq	r0, (UNDEF: 0)
     d88:	00005500 	andeq	r5, r0, r0, lsl #10
	...
     d98:	00000350 	andeq	r0, r0, r0, asr r3
     d9c:	00000398 	muleq	r0, r8, r3
     da0:	98500001 	ldmdals	r0, {r0}^
     da4:	9b000003 	blls	db8 <__code_start__-0x7248>
     da8:	02000003 	andeq	r0, r0, #3, 0
     dac:	9b689100 	blls	1a251b4 <__bss_end__+0x1a1b56c>
     db0:	b0000003 	andlt	r0, r0, r3
     db4:	04000003 	streq	r0, [r0], #-3
     db8:	5001f300 	andpl	pc, r1, r0, lsl #6
     dbc:	0000009f 	muleq	r0, pc, r0	; <UNPREDICTABLE>
	...
     dd8:	00022000 	andeq	r2, r2, r0
     ddc:	00027b00 	andeq	r7, r2, r0, lsl #22
     de0:	50000100 	andpl	r0, r0, r0, lsl #2
     de4:	0000027b 	andeq	r0, r0, fp, ror r2
     de8:	00000284 	andeq	r0, r0, r4, lsl #5
     dec:	01f30004 	mvnseq	r0, r4
     df0:	02849f50 	addeq	r9, r4, #80, 30	; 0x140
     df4:	029c0000 	addseq	r0, ip, #0, 0
     df8:	00010000 	andeq	r0, r1, r0
     dfc:	00029c50 	andeq	r9, r2, r0, asr ip
     e00:	0002a400 	andeq	sl, r2, r0, lsl #8
     e04:	f3000400 	vshl.u8	d0, d0, d0
     e08:	a49f5001 	ldrge	r5, [pc], #1	; e10 <__code_start__-0x71f0>
     e0c:	a7000002 	strge	r0, [r0, -r2]
     e10:	01000002 	tsteq	r0, r2
     e14:	02a75000 	adceq	r5, r7, #0, 0
     e18:	02c80000 	sbceq	r0, r8, #0, 0
     e1c:	00040000 	andeq	r0, r4, r0
     e20:	9f5001f3 	svcls	0x005001f3
     e24:	000002c8 	andeq	r0, r0, r8, asr #5
     e28:	000002e0 	andeq	r0, r0, r0, ror #5
     e2c:	e0500001 	subs	r0, r0, r1
     e30:	e8000002 	stmda	r0, {r1}
     e34:	04000002 	streq	r0, [r0], #-2
     e38:	5001f300 	andpl	pc, r1, r0, lsl #6
     e3c:	0002e89f 	muleq	r2, pc, r8	; <UNPREDICTABLE>
     e40:	0002eb00 	andeq	lr, r2, r0, lsl #22
     e44:	50000100 	andpl	r0, r0, r0, lsl #2
     e48:	000002eb 	andeq	r0, r0, fp, ror #5
     e4c:	00000338 	andeq	r0, r0, r8, lsr r3
     e50:	01f30004 	mvnseq	r0, r4
     e54:	00009f50 	andeq	r9, r0, r0, asr pc
	...
     e70:	02200000 	eoreq	r0, r0, #0, 0
     e74:	02440000 	subeq	r0, r4, #0, 0
     e78:	00010000 	andeq	r0, r1, r0
     e7c:	00024451 	andeq	r4, r2, r1, asr r4
     e80:	00026800 	andeq	r6, r2, r0, lsl #16
     e84:	51000100 	mrspl	r0, (UNDEF: 16)
     e88:	00000268 	andeq	r0, r0, r8, ror #4
     e8c:	0000027b 	andeq	r0, r0, fp, ror r2
     e90:	01710003 	cmneq	r1, r3
     e94:	00027b9f 	muleq	r2, pc, fp	; <UNPREDICTABLE>
     e98:	00028400 	andeq	r8, r2, r0, lsl #8
     e9c:	38001700 	stmdacc	r0, {r8, r9, sl, ip}
     ea0:	f35101f3 	vbsl	q8, <illegal reg q8.5>, <illegal reg q9.5>
     ea4:	4b405101 	blmi	10152b0 <__bss_end__+0x100b668>
     ea8:	080c2224 	stmdaeq	ip, {r2, r5, r9, sp}
     eac:	2d800000 	stccs	0, cr0, [r0]
     eb0:	16000128 	strne	r0, [r0], -r8, lsr #2
     eb4:	02849f13 	addeq	r9, r4, #76	; 0x4c
     eb8:	02980000 	addseq	r0, r8, #0, 0
     ebc:	00010000 	andeq	r0, r1, r0
     ec0:	00029851 	andeq	r9, r2, r1, asr r8
     ec4:	0002a400 	andeq	sl, r2, r0, lsl #8
     ec8:	f3000400 	vshl.u8	d0, d0, d0
     ecc:	a49f5101 	ldrge	r5, [pc], #257	; ed4 <__code_start__-0x712c>
     ed0:	a7000002 	strge	r0, [r0, -r2]
     ed4:	01000002 	tsteq	r0, r2
     ed8:	02a75100 	adceq	r5, r7, #0
     edc:	02c80000 	sbceq	r0, r8, #0, 0
     ee0:	00040000 	andeq	r0, r4, r0
     ee4:	9f5101f3 	svcls	0x005101f3
     ee8:	000002c8 	andeq	r0, r0, r8, asr #5
     eec:	000002dc 	ldrdeq	r0, [r0], -ip
     ef0:	dc510001 	mrrcle	0, 0, r0, r1, cr1
     ef4:	38000002 	stmdacc	r0, {r1}
     ef8:	17000003 	strne	r0, [r0, -r3]
     efc:	01f33800 	mvnseq	r3, r0, lsl #16
     f00:	5101f351 	tstpl	r1, r1, asr r3	; <UNPREDICTABLE>
     f04:	22244b40 	eorcs	r4, r4, #64, 22	; 0x10000
     f08:	0000080c 	andeq	r0, r0, ip, lsl #16
     f0c:	01282d80 	smlawbeq	r8, r0, sp, r2
     f10:	9f131600 	svcls	0x00131600
	...
     f28:	0000024c 	andeq	r0, r0, ip, asr #4
     f2c:	0000025c 	andeq	r0, r0, ip, asr r2
     f30:	5c520001 	mrrcpl	0, 0, r0, r2, cr1
     f34:	64000002 	strvs	r0, [r0], #-2
     f38:	05000002 	streq	r0, [r0, #-2]
     f3c:	98280300 	stmdals	r8!, {r8, r9}
     f40:	02640000 	rsbeq	r0, r4, #0, 0
     f44:	027b0000 	rsbseq	r0, fp, #0, 0
     f48:	00010000 	andeq	r0, r1, r0
     f4c:	0002c853 	andeq	ip, r2, r3, asr r8
     f50:	0002d800 	andeq	sp, r2, r0, lsl #16
     f54:	52000100 	andpl	r0, r0, #0
     f58:	000002d8 	ldrdeq	r0, [r0], -r8
     f5c:	000002e3 	andeq	r0, r0, r3, ror #5
     f60:	28030005 	stmdacs	r3, {r0, r2}
     f64:	e8000098 	stmda	r0, {r3, r4, r7}
     f68:	eb000002 	bl	f78 <__code_start__-0x7088>
     f6c:	01000002 	tsteq	r0, r2
     f70:	00005300 	andeq	r5, r0, r0, lsl #6
     f74:	00000000 	andeq	r0, r0, r0
     f78:	00040000 	andeq	r0, r4, r0
     f7c:	00000230 	andeq	r0, r0, r0, lsr r2
     f80:	00000234 	andeq	r0, r0, r4, lsr r2
     f84:	00510001 	subseq	r0, r1, r1
     f88:	00000000 	andeq	r0, r0, r0
     f8c:	02000000 	andeq	r0, r0, #0, 0
     f90:	00023c00 	andeq	r3, r2, r0, lsl #24
     f94:	00024400 	andeq	r4, r2, r0, lsl #8
     f98:	38000200 	stmdacc	r0, {r9}
     f9c:	0000009f 	muleq	r0, pc, r0	; <UNPREDICTABLE>
     fa0:	00000000 	andeq	r0, r0, r0
     fa4:	3c000200 	sfmcc	f0, 4, [r0], {-0}
     fa8:	44000002 	strmi	r0, [r0], #-2
     fac:	01000002 	tsteq	r0, r2
     fb0:	00005100 	andeq	r5, r0, r0, lsl #2
     fb4:	00000000 	andeq	r0, r0, r0
     fb8:	00010000 	andeq	r0, r1, r0
     fbc:	00000000 	andeq	r0, r0, r0
     fc0:	0000024c 	andeq	r0, r0, ip, asr #4
     fc4:	00000264 	andeq	r0, r0, r4, ror #4
     fc8:	c8510001 	ldmdagt	r1, {r0}^
     fcc:	dc000002 	stcle	0, cr0, [r0], {2}
     fd0:	01000002 	tsteq	r0, r2
     fd4:	02dc5100 	sbcseq	r5, ip, #0
     fd8:	02e80000 	rsceq	r0, r8, #0, 0
     fdc:	00170000 	andseq	r0, r7, r0
     fe0:	5101f338 	tstpl	r1, r8, lsr r3	; <UNPREDICTABLE>
     fe4:	405101f3 	ldrshmi	r0, [r1], #-19	; 0xffffffed
     fe8:	0c22244b 	cfstrseq	mvf2, [r2], #-300	; 0xfffffed4
     fec:	80000008 	andhi	r0, r0, r8
     ff0:	0001282d 	andeq	r2, r1, sp, lsr #16
     ff4:	009f1316 	addseq	r1, pc, r6, lsl r3	; <UNPREDICTABLE>
     ff8:	00000000 	andeq	r0, r0, r0
     ffc:	01000000 	mrseq	r0, (UNDEF: 0)
    1000:	00000000 	andeq	r0, r0, r0
    1004:	4c000000 	stcmi	0, cr0, [r0], {-0}
    1008:	5c000002 	stcpl	0, cr0, [r0], {2}
    100c:	01000002 	tsteq	r0, r2
    1010:	025c5200 	subseq	r5, ip, #0, 4
    1014:	02640000 	rsbeq	r0, r4, #0, 0
    1018:	00050000 	andeq	r0, r5, r0
    101c:	00982803 	addseq	r2, r8, r3, lsl #16
    1020:	0002c800 	andeq	ip, r2, r0, lsl #16
    1024:	0002d800 	andeq	sp, r2, r0, lsl #16
    1028:	52000100 	andpl	r0, r0, #0
    102c:	000002d8 	ldrdeq	r0, [r0], -r8
    1030:	000002e3 	andeq	r0, r0, r3, ror #5
    1034:	28030005 	stmdacs	r3, {r0, r2}
    1038:	00000098 	muleq	r0, r8, r0
    103c:	00000000 	andeq	r0, r0, r0
    1040:	04000000 	streq	r0, [r0], #-0
    1044:	00024c00 	andeq	r4, r2, r0, lsl #24
    1048:	00025000 	andeq	r5, r2, r0
    104c:	51000100 	mrspl	r0, (UNDEF: 16)
	...
    1058:	02640003 	rsbeq	r0, r4, #3, 0
    105c:	02680000 	rsbeq	r0, r8, #0, 0
    1060:	00010000 	andeq	r0, r1, r0
    1064:	00000051 	andeq	r0, r0, r1, asr r0
    1068:	00000000 	andeq	r0, r0, r0
    106c:	64000300 	strvs	r0, [r0], #-768	; 0xfffffd00
    1070:	68000002 	stmdavs	r0, {r1}
    1074:	01000002 	tsteq	r0, r2
    1078:	00005300 	andeq	r5, r0, r0, lsl #6
	...
    1088:	01bc0000 			; <UNDEFINED> instruction: 0x01bc0000
    108c:	01d30000 	bicseq	r0, r3, r0
    1090:	00010000 	andeq	r0, r1, r0
    1094:	0001d350 	andeq	sp, r1, r0, asr r3
    1098:	0001f000 	andeq	pc, r1, r0
    109c:	54000100 	strpl	r0, [r0], #-256	; 0xffffff00
    10a0:	000001f0 	strdeq	r0, [r0], -r0	; <UNPREDICTABLE>
    10a4:	00000208 	andeq	r0, r0, r8, lsl #4
    10a8:	08500001 	ldmdaeq	r0, {r0}^
    10ac:	20000002 	andcs	r0, r0, r2
    10b0:	01000002 	tsteq	r0, r2
    10b4:	00005400 	andeq	r5, r0, r0, lsl #8
	...
    10c0:	01d80000 	bicseq	r0, r8, r0
    10c4:	01e30000 	mvneq	r0, r0
    10c8:	00010000 	andeq	r0, r1, r0
    10cc:	0001e350 	andeq	lr, r1, r0, asr r3
    10d0:	0001f000 	andeq	pc, r1, r0
    10d4:	55000100 	strpl	r0, [r0, #-256]	; 0xffffff00
	...
    10f0:	00000124 	andeq	r0, r0, r4, lsr #2
    10f4:	00000138 	andeq	r0, r0, r8, lsr r1
    10f8:	38500001 	ldmdacc	r0, {r0}^
    10fc:	3c000001 	stccc	0, cr0, [r0], {1}
    1100:	03000001 	movweq	r0, #1
    1104:	9f797000 	svcls	0x00797000
    1108:	0000013c 	andeq	r0, r0, ip, lsr r1
    110c:	00000160 	andeq	r0, r0, r0, ror #2
    1110:	60530001 	subsvs	r0, r3, r1
    1114:	78000001 	stmdavc	r0, {r0}
    1118:	01000001 	tsteq	r0, r1
    111c:	01785000 	cmneq	r8, r0
    1120:	01800000 	orreq	r0, r0, r0
    1124:	00040000 	andeq	r0, r4, r0
    1128:	9f5001f3 	svcls	0x005001f3
    112c:	00000180 	andeq	r0, r0, r0, lsl #3
    1130:	00000190 	muleq	r0, r0, r1
    1134:	90530001 	subsls	r0, r3, r1
    1138:	9f000001 	svcls	0x00000001
    113c:	02000001 	andeq	r0, r0, #1, 0
    1140:	9f689100 	svcls	0x00689100
    1144:	bc000001 	stclt	0, cr0, [r0], {1}
    1148:	09000001 	stmdbeq	r0, {r0}
    114c:	5001f300 	andpl	pc, r1, r0, lsl #6
    1150:	f8090723 			; <UNDEFINED> instruction: 0xf8090723
    1154:	00009f1a 	andeq	r9, r0, sl, lsl pc
	...
    1164:	00000144 	andeq	r0, r0, r4, asr #2
    1168:	00000160 	andeq	r0, r0, r0, ror #2
    116c:	80500001 	subshi	r0, r0, r1
    1170:	9c000001 	stcls	0, cr0, [r0], {1}
    1174:	01000001 	tsteq	r0, r1
    1178:	019c5000 	orrseq	r5, ip, r0
    117c:	019f0000 	orrseq	r0, pc, r0
    1180:	00050000 	andeq	r0, r5, r0
    1184:	00982803 	addseq	r2, r8, r3, lsl #16
	...
    1190:	34000300 	strcc	r0, [r0], #-768	; 0xfffffd00
    1194:	3c000001 	stccc	0, cr0, [r0], {1}
    1198:	02000001 	andeq	r0, r0, #1, 0
    119c:	009f3800 	addseq	r3, pc, r0, lsl #16
    11a0:	00000000 	andeq	r0, r0, r0
    11a4:	03000000 	movweq	r0, #0
    11a8:	34000000 	strcc	r0, [r0], #-0
    11ac:	38000001 	stmdacc	r0, {r0}
    11b0:	01000001 	tsteq	r0, r1
    11b4:	01385000 	teqeq	r8, r0
    11b8:	013c0000 	teqeq	ip, r0
    11bc:	00030000 	andeq	r0, r3, r0
    11c0:	009f7970 	addseq	r7, pc, r0, ror r9	; <UNPREDICTABLE>
	...
    11d8:	00003000 	andeq	r3, r0, r0
    11dc:	00006000 	andeq	r6, r0, r0
    11e0:	50000100 	andpl	r0, r0, r0, lsl #2
    11e4:	00000060 	andeq	r0, r0, r0, rrx
    11e8:	0000006c 	andeq	r0, r0, ip, rrx
    11ec:	28030005 	stmdacs	r3, {r0, r2}
    11f0:	6c000098 	stcvs	0, cr0, [r0], {152}	; 0x98
    11f4:	84000000 	strhi	r0, [r0], #-0
    11f8:	01000000 	mrseq	r0, (UNDEF: 0)
    11fc:	00845000 	addeq	r5, r4, r0
    1200:	008c0000 	addeq	r0, ip, r0
    1204:	00040000 	andeq	r0, r4, r0
    1208:	9f5001f3 	svcls	0x005001f3
    120c:	0000008c 	andeq	r0, r0, ip, lsl #1
    1210:	000000ac 	andeq	r0, r0, ip, lsr #1
    1214:	ac500001 	mrrcge	0, 0, r0, r0, cr1	; <UNPREDICTABLE>
    1218:	af000000 	svcge	0x00000000
    121c:	02000000 	andeq	r0, r0, #0, 0
    1220:	af689100 	svcge	0x00689100
    1224:	cc000000 	stcgt	0, cr0, [r0], {-0}
    1228:	04000000 	streq	r0, [r0], #-0
    122c:	5001f300 	andpl	pc, r1, r0, lsl #6
    1230:	0000009f 	muleq	r0, pc, r0	; <UNPREDICTABLE>
	...
    1240:	00003000 	andeq	r3, r0, r0
    1244:	00008000 	andeq	r8, r0, r0
    1248:	51000100 	mrspl	r0, (UNDEF: 16)
    124c:	00000080 	andeq	r0, r0, r0, lsl #1
    1250:	0000008c 	andeq	r0, r0, ip, lsl #1
    1254:	01f30004 	mvnseq	r0, r4
    1258:	008c9f51 	addeq	r9, ip, r1, asr pc
    125c:	00a80000 	adceq	r0, r8, r0
    1260:	00010000 	andeq	r0, r1, r0
    1264:	0000a851 	andeq	sl, r0, r1, asr r8
    1268:	0000cc00 	andeq	ip, r0, r0, lsl #24
    126c:	f3000400 	vshl.u8	d0, d0, d0
    1270:	009f5101 	addseq	r5, pc, r1, lsl #2
    1274:	00000000 	andeq	r0, r0, r0
    1278:	01000000 	mrseq	r0, (UNDEF: 0)
	...
    1288:	00003800 	andeq	r3, r0, r0, lsl #16
    128c:	00006000 	andeq	r6, r0, r0
    1290:	50000100 	andpl	r0, r0, r0, lsl #2
    1294:	00000060 	andeq	r0, r0, r0, rrx
    1298:	0000006c 	andeq	r0, r0, ip, rrx
    129c:	28030005 	stmdacs	r3, {r0, r2}
    12a0:	6c000098 	stcvs	0, cr0, [r0], {152}	; 0x98
    12a4:	84000000 	strhi	r0, [r0], #-0
    12a8:	01000000 	mrseq	r0, (UNDEF: 0)
    12ac:	00845000 	addeq	r5, r4, r0
    12b0:	008c0000 	addeq	r0, ip, r0
    12b4:	00040000 	andeq	r0, r4, r0
    12b8:	9f5001f3 	svcls	0x005001f3
    12bc:	0000008c 	andeq	r0, r0, ip, lsl #1
    12c0:	000000ac 	andeq	r0, r0, ip, lsr #1
    12c4:	ac500001 	mrrcge	0, 0, r0, r0, cr1	; <UNPREDICTABLE>
    12c8:	af000000 	svcge	0x00000000
    12cc:	02000000 	andeq	r0, r0, #0, 0
    12d0:	af689100 	svcge	0x00689100
    12d4:	cc000000 	stcgt	0, cr0, [r0], {-0}
    12d8:	04000000 	streq	r0, [r0], #-0
    12dc:	5001f300 	andpl	pc, r1, r0, lsl #6
    12e0:	0000009f 	muleq	r0, pc, r0	; <UNPREDICTABLE>
	...
    12f0:	00000400 	andeq	r0, r0, r0, lsl #8
    12f4:	52000100 	andpl	r0, r0, #0
    12f8:	00000004 	andeq	r0, r0, r4
    12fc:	00000018 	andeq	r0, r0, r8, lsl r0
    1300:	01f30004 	mvnseq	r0, r4
    1304:	00009f52 	andeq	r9, r0, r2, asr pc
    1308:	00000000 	andeq	r0, r0, r0
    130c:	00020000 	andeq	r0, r2, r0
    1310:	00010100 	andeq	r0, r1, r0, lsl #2
    1314:	00000000 	andeq	r0, r0, r0
    1318:	00080000 	andeq	r0, r8, r0
    131c:	00010000 	andeq	r0, r1, r0
    1320:	00000850 	andeq	r0, r0, r0, asr r8
    1324:	00001000 	andeq	r1, r0, r0
    1328:	53000100 	movwpl	r0, #256	; 0x100
    132c:	00000010 	andeq	r0, r0, r0, lsl r0
    1330:	00000014 	andeq	r0, r0, r4, lsl r0
    1334:	01730003 	cmneq	r3, r3
    1338:	0000149f 	muleq	r0, pc, r4	; <UNPREDICTABLE>
    133c:	00001800 	andeq	r1, r0, r0, lsl #16
    1340:	53000100 	movwpl	r0, #256	; 0x100
	...
    134c:	00040000 	andeq	r0, r4, r0
    1350:	00180000 	andseq	r0, r8, r0
    1354:	00010000 	andeq	r0, r1, r0
    1358:	00000052 	andeq	r0, r0, r2, asr r0
	...
    1368:	00000b00 	andeq	r0, r0, r0, lsl #22
    136c:	50000100 	andpl	r0, r0, r0, lsl #2
    1370:	0000000b 	andeq	r0, r0, fp
    1374:	00000014 	andeq	r0, r0, r4, lsl r0
    1378:	00540001 	subseq	r0, r4, r1
	...
    1388:	1c000000 	stcne	0, cr0, [r0], {-0}
    138c:	01000000 	mrseq	r0, (UNDEF: 0)
    1390:	001c5100 	andseq	r5, ip, r0, lsl #2
    1394:	00340000 	eorseq	r0, r4, r0
    1398:	00040000 	andeq	r0, r4, r0
    139c:	9f5101f3 	svcls	0x005101f3
	...
    13a8:	00000002 	andeq	r0, r0, r2
    13ac:	00010100 	andeq	r0, r1, r0, lsl #2
    13b0:	00000000 	andeq	r0, r0, r0
    13b4:	00040000 	andeq	r0, r4, r0
    13b8:	00010000 	andeq	r0, r1, r0
    13bc:	00000450 	andeq	r0, r0, r0, asr r4
    13c0:	00001c00 	andeq	r1, r0, r0, lsl #24
    13c4:	52000100 	andpl	r0, r0, #0
    13c8:	0000001c 	andeq	r0, r0, ip, lsl r0
    13cc:	00000024 	andeq	r0, r0, r4, lsr #32
    13d0:	24530001 	ldrbcs	r0, [r3], #-1
    13d4:	28000000 	stmdacs	r0, {}	; <UNPREDICTABLE>
    13d8:	03000000 	movweq	r0, #0
    13dc:	9f017300 	svcls	0x00017300
    13e0:	00000028 	andeq	r0, r0, r8, lsr #32
    13e4:	00000034 	andeq	r0, r0, r4, lsr r0
    13e8:	00530001 	subseq	r0, r3, r1
    13ec:	00000000 	andeq	r0, r0, r0
    13f0:	03000000 	movweq	r0, #0
    13f4:	00000000 	andeq	r0, r0, r0
    13f8:	24000000 	strcs	r0, [r0], #-0
    13fc:	01000000 	mrseq	r0, (UNDEF: 0)
    1400:	00245100 	eoreq	r5, r4, r0, lsl #2
    1404:	00340000 	eorseq	r0, r4, r0
    1408:	00030000 	andeq	r0, r3, r0
    140c:	009f7f71 	addseq	r7, pc, r1, ror pc	; <UNPREDICTABLE>
	...
    1418:	10000000 	andne	r0, r0, r0
    141c:	1c000000 	stcne	0, cr0, [r0], {-0}
    1420:	01000000 	mrseq	r0, (UNDEF: 0)
    1424:	00245c00 	eoreq	r5, r4, r0, lsl #24
    1428:	00340000 	eorseq	r0, r4, r0
    142c:	00010000 	andeq	r0, r1, r0
    1430:	00000052 	andeq	r0, r0, r2, asr r0
	...
    1440:	00001800 	andeq	r1, r0, r0, lsl #16
    1444:	50000100 	andpl	r0, r0, r0, lsl #2
    1448:	00000018 	andeq	r0, r0, r8, lsl r0
    144c:	00000024 	andeq	r0, r0, r4, lsr #32
    1450:	00500001 	subseq	r0, r0, r1
	...
    1460:	1c000000 	stcne	0, cr0, [r0], {-0}
    1464:	01000000 	mrseq	r0, (UNDEF: 0)
    1468:	001c5100 	andseq	r5, ip, r0, lsl #2
    146c:	002c0000 	eoreq	r0, ip, r0
    1470:	00010000 	andeq	r0, r1, r0
    1474:	00000051 	andeq	r0, r0, r1, asr r0
	...
    1484:	04000000 	streq	r0, [r0], #-0
    1488:	01000000 	mrseq	r0, (UNDEF: 0)
    148c:	00045100 	andeq	r5, r4, r0, lsl #2
    1490:	000c0000 	andeq	r0, ip, r0
    1494:	00010000 	andeq	r0, r1, r0
    1498:	00000c51 	andeq	r0, r0, r1, asr ip
    149c:	00002000 	andeq	r2, r0, r0
    14a0:	71000300 	mrsvc	r0, LR_irq
    14a4:	00009f7f 	andeq	r9, r0, pc, ror pc
    14a8:	00000000 	andeq	r0, r0, r0
    14ac:	00020000 	andeq	r0, r2, r0
	...
    14b8:	00000004 	andeq	r0, r0, r4
    14bc:	04500001 	ldrbeq	r0, [r0], #-1
    14c0:	14000000 	strne	r0, [r0], #-0
    14c4:	01000000 	mrseq	r0, (UNDEF: 0)
    14c8:	00145c00 	andseq	r5, r4, r0, lsl #24
    14cc:	00200000 	eoreq	r0, r0, r0
    14d0:	00030000 	andeq	r0, r3, r0
    14d4:	009f7f7c 	addseq	r7, pc, ip, ror pc	; <UNPREDICTABLE>
	...
    14e0:	5c000303 	stcpl	3, cr0, [r0], {3}
    14e4:	5c000092 	stcpl	0, cr0, [r0], {146}	; 0x92
    14e8:	01000092 	swpeq	r0, r2, [r0]	; <UNPREDICTABLE>
    14ec:	925c5000 	subsls	r5, ip, #0, 0
    14f0:	92880000 	addls	r0, r8, #0, 0
    14f4:	00040000 	andeq	r0, r4, r0
    14f8:	9f5001f3 	svcls	0x005001f3
	...
    1504:	00030300 	andeq	r0, r3, r0, lsl #6
    1508:	0000925c 	andeq	r9, r0, ip, asr r2
    150c:	0000925c 	andeq	r9, r0, ip, asr r2
    1510:	5c510001 	mrrcpl	0, 0, r0, r1, cr1
    1514:	88000092 	stmdahi	r0, {r1, r4, r7}
    1518:	04000092 	streq	r0, [r0], #-146	; 0xffffff6e
    151c:	5101f300 	mrspl	pc, SP_irq	; <UNPREDICTABLE>
    1520:	0000009f 	muleq	r0, pc, r0	; <UNPREDICTABLE>
    1524:	00000000 	andeq	r0, r0, r0
    1528:	03030000 	movweq	r0, #12288	; 0x3000
    152c:	5c000000 	stcpl	0, cr0, [r0], {-0}
    1530:	5c000092 	stcpl	0, cr0, [r0], {146}	; 0x92
    1534:	01000092 	swpeq	r0, r2, [r0]	; <UNPREDICTABLE>
    1538:	925c5200 	subsls	r5, ip, #0, 4
    153c:	92640000 	rsbls	r0, r4, #0, 0
    1540:	00010000 	andeq	r0, r1, r0
    1544:	00926452 	addseq	r6, r2, r2, asr r4
    1548:	00928800 	addseq	r8, r2, r0, lsl #16
    154c:	72000300 	andvc	r0, r0, #0, 6
    1550:	00009f01 	andeq	r9, r0, r1, lsl #30
    1554:	00000000 	andeq	r0, r0, r0
    1558:	01020000 	mrseq	r0, (UNDEF: 2)
    155c:	00000001 	andeq	r0, r0, r1
    1560:	925c0000 	subsls	r0, ip, #0, 0
    1564:	92680000 	rsbls	r0, r8, #0, 0
    1568:	00010000 	andeq	r0, r1, r0
    156c:	00926850 	addseq	r6, r2, r0, asr r8
    1570:	00926c00 	addseq	r6, r2, r0, lsl #24
    1574:	70000300 	andvc	r0, r0, r0, lsl #6
    1578:	926c9f01 	rsbls	r9, ip, #1, 30
    157c:	927c0000 	rsbsls	r0, ip, #0, 0
    1580:	00010000 	andeq	r0, r1, r0
    1584:	00928050 	addseq	r8, r2, r0, asr r0
    1588:	00928400 	addseq	r8, r2, r0, lsl #8
    158c:	50000100 	andpl	r0, r0, r0, lsl #2
	...
    1598:	00000002 	andeq	r0, r0, r2
    159c:	925c0000 	subsls	r0, ip, #0, 0
    15a0:	926c0000 	rsbls	r0, ip, #0, 0
    15a4:	00010000 	andeq	r0, r1, r0
    15a8:	00926c51 	addseq	r6, r2, r1, asr ip
    15ac:	00927000 	addseq	r7, r2, r0
    15b0:	71000300 	mrsvc	r0, LR_irq
    15b4:	92709f01 	rsbsls	r9, r0, #1, 30
    15b8:	92880000 	addls	r0, r8, #0, 0
    15bc:	00010000 	andeq	r0, r1, r0
    15c0:	00000051 	andeq	r0, r0, r1, asr r0
	...
    15d0:	0000e800 	andeq	lr, r0, r0, lsl #16
    15d4:	00010000 	andeq	r0, r1, r0
    15d8:	50000100 	andpl	r0, r0, r0, lsl #2
    15dc:	00000100 	andeq	r0, r0, r0, lsl #2
    15e0:	00000110 	andeq	r0, r0, r0, lsl r1
    15e4:	01f30004 	mvnseq	r0, r4
    15e8:	01109f50 	tsteq	r0, r0, asr pc
    15ec:	01140000 	tsteq	r4, r0
    15f0:	00010000 	andeq	r0, r1, r0
    15f4:	00011450 	andeq	r1, r1, r0, asr r4
    15f8:	00011c00 	andeq	r1, r1, r0, lsl #24
    15fc:	f3000400 	vshl.u8	d0, d0, d0
    1600:	009f5001 	addseq	r5, pc, r1
    1604:	00000000 	andeq	r0, r0, r0
    1608:	01000000 	mrseq	r0, (UNDEF: 0)
    160c:	00000000 	andeq	r0, r0, r0
    1610:	0000f400 	andeq	pc, r0, r0, lsl #8
    1614:	00010000 	andeq	r0, r1, r0
    1618:	70000b00 	andvc	r0, r0, r0, lsl #22
    161c:	23253500 			; <UNDEFINED> instruction: 0x23253500
    1620:	818080b4 	strhhi	r8, [r0, r4]
    1624:	01009f02 	tsteq	r0, r2, lsl #30
    1628:	01030000 	mrseq	r0, (UNDEF: 3)
    162c:	00010000 	andeq	r0, r1, r0
    1630:	00010350 	andeq	r0, r1, r0, asr r3
    1634:	00011000 	andeq	r1, r1, r0
    1638:	f3000c00 			; <UNDEFINED> instruction: 0xf3000c00
    163c:	25355001 	ldrcs	r5, [r5, #-1]!
    1640:	8080b423 	addhi	fp, r0, r3, lsr #8
    1644:	009f0281 	addseq	r0, pc, r1, lsl #5
	...
    1650:	0000f800 	andeq	pc, r0, r0, lsl #16
    1654:	00011000 	andeq	r1, r1, r0
    1658:	54000100 	strpl	r0, [r0], #-256	; 0xffffff00
	...
    166c:	000000cc 	andeq	r0, r0, ip, asr #1
    1670:	000000db 	ldrdeq	r0, [r0], -fp
    1674:	db500001 	blle	1401680 <__bss_end__+0x13f7a38>
    1678:	e0000000 	and	r0, r0, r0
    167c:	04000000 	streq	r0, [r0], #-0
    1680:	5001f300 	andpl	pc, r1, r0, lsl #6
    1684:	0000e09f 	muleq	r0, pc, r0	; <UNPREDICTABLE>
    1688:	0000e300 	andeq	lr, r0, r0, lsl #6
    168c:	50000100 	andpl	r0, r0, r0, lsl #2
    1690:	000000e3 	andeq	r0, r0, r3, ror #1
    1694:	000000e8 	andeq	r0, r0, r8, ror #1
    1698:	01f30004 	mvnseq	r0, r4
    169c:	00009f50 	andeq	r9, r0, r0, asr pc
	...
    16ac:	00cc0000 	sbceq	r0, ip, r0
    16b0:	00db0000 	sbcseq	r0, fp, r0
    16b4:	00010000 	andeq	r0, r1, r0
    16b8:	0000db51 	andeq	sp, r0, r1, asr fp
    16bc:	0000e000 	andeq	lr, r0, r0
    16c0:	f3000400 	vshl.u8	d0, d0, d0
    16c4:	e09f5101 	adds	r5, pc, r1, lsl #2
    16c8:	e3000000 	movw	r0, #0
    16cc:	01000000 	mrseq	r0, (UNDEF: 0)
    16d0:	00e35100 	rsceq	r5, r3, r0, lsl #2
    16d4:	00e80000 	rsceq	r0, r8, r0
    16d8:	00040000 	andeq	r0, r4, r0
    16dc:	9f5101f3 	svcls	0x005101f3
	...
    16ec:	000000bc 	strheq	r0, [r0], -ip
    16f0:	000000c7 	andeq	r0, r0, r7, asr #1
    16f4:	c7500001 	ldrbgt	r0, [r0, -r1]
    16f8:	cc000000 	stcgt	0, cr0, [r0], {-0}
    16fc:	04000000 	streq	r0, [r0], #-0
    1700:	5001f300 	andpl	pc, r1, r0, lsl #6
    1704:	0000009f 	muleq	r0, pc, r0	; <UNPREDICTABLE>
	...
    1710:	00009800 	andeq	r9, r0, r0, lsl #16
    1714:	0000b000 	andeq	fp, r0, r0
    1718:	50000100 	andpl	r0, r0, r0, lsl #2
    171c:	000000b0 	strheq	r0, [r0], -r0	; <UNPREDICTABLE>
    1720:	000000bc 	strheq	r0, [r0], -ip
    1724:	01f30004 	mvnseq	r0, r4
    1728:	00009f50 	andeq	r9, r0, r0, asr pc
	...
    1734:	00740000 	rsbseq	r0, r4, r0
    1738:	008c0000 	addeq	r0, ip, r0
    173c:	00010000 	andeq	r0, r1, r0
    1740:	00008c50 	andeq	r8, r0, r0, asr ip
    1744:	00009800 	andeq	r9, r0, r0, lsl #16
    1748:	f3000400 	vshl.u8	d0, d0, d0
    174c:	009f5001 	addseq	r5, pc, r1
	...
    1758:	64000000 	strvs	r0, [r0], #-0
    175c:	6f000000 	svcvs	0x00000000
    1760:	01000000 	mrseq	r0, (UNDEF: 0)
    1764:	006f5000 	rsbeq	r5, pc, r0
    1768:	00740000 	rsbseq	r0, r4, r0
    176c:	00040000 	andeq	r0, r4, r0
    1770:	9f5001f3 	svcls	0x005001f3
	...
    1784:	00000038 	andeq	r0, r0, r8, lsr r0
    1788:	38500001 	ldmdacc	r0, {r0}^
    178c:	64000000 	strvs	r0, [r0], #-0
    1790:	04000000 	streq	r0, [r0], #-0
    1794:	5001f300 	andpl	pc, r1, r0, lsl #6
    1798:	0000009f 	muleq	r0, pc, r0	; <UNPREDICTABLE>
	...
    17a8:	00004700 	andeq	r4, r0, r0, lsl #14
    17ac:	51000100 	mrspl	r0, (UNDEF: 16)
    17b0:	00000047 	andeq	r0, r0, r7, asr #32
    17b4:	00000064 	andeq	r0, r0, r4, rrx
    17b8:	01f30004 	mvnseq	r0, r4
    17bc:	00009f51 	andeq	r9, r0, r1, asr pc
	...
    17c8:	00000034 	andeq	r0, r0, r4, lsr r0
    17cc:	00000064 	andeq	r0, r0, r4, rrx
    17d0:	00540001 	subseq	r0, r4, r1
	...
    17dc:	00004000 	andeq	r4, r0, r0
    17e0:	00006400 	andeq	r6, r0, r0, lsl #8
    17e4:	56000100 	strpl	r0, [r0], -r0, lsl #2
	...
    17f0:	01000000 	mrseq	r0, (UNDEF: 0)
    17f4:	00000001 	andeq	r0, r0, r1
    17f8:	00000048 	andeq	r0, r0, r8, asr #32
    17fc:	00000050 	andeq	r0, r0, r0, asr r0
    1800:	50500001 	subspl	r0, r0, r1
    1804:	50000000 	andpl	r0, r0, r0
    1808:	01000000 	mrseq	r0, (UNDEF: 0)
    180c:	00505100 	subseq	r5, r0, r0, lsl #2
    1810:	00540000 	subseq	r0, r4, r0
    1814:	00090000 	andeq	r0, r9, r0
    1818:	00740075 	rsbseq	r0, r4, r5, ror r0
    181c:	21007124 	tstcs	r0, r4, lsr #2
    1820:	0000549f 	muleq	r0, pc, r4	; <UNPREDICTABLE>
    1824:	00005b00 	andeq	r5, r0, r0, lsl #22
    1828:	51000100 	mrspl	r0, (UNDEF: 16)
	...

Disassembly of section .debug_aranges:

00000000 <.debug_aranges>:
   0:	0000001c 	andeq	r0, r0, ip, lsl r0
   4:	00000002 	andeq	r0, r0, r2
   8:	00040000 	andeq	r0, r4, r0
   c:	00000000 	andeq	r0, r0, r0
  10:	00008038 	andeq	r8, r0, r8, lsr r0
  14:	000000bc 	strheq	r0, [r0], -ip
	...
  20:	0000001c 	andeq	r0, r0, ip, lsl r0
  24:	02980002 	addseq	r0, r8, #2, 0
  28:	00040000 	andeq	r0, r4, r0
  2c:	00000000 	andeq	r0, r0, r0
  30:	000080f4 	strdeq	r8, [r0], -r4
  34:	000001ac 	andeq	r0, r0, ip, lsr #3
	...
  40:	0000001c 	andeq	r0, r0, ip, lsl r0
  44:	05760002 	ldrbeq	r0, [r6, #-2]!
  48:	00040000 	andeq	r0, r4, r0
  4c:	00000000 	andeq	r0, r0, r0
  50:	000082a0 	andeq	r8, r0, r0, lsr #5
  54:	0000000c 	andeq	r0, r0, ip
	...
  60:	0000001c 	andeq	r0, r0, ip, lsl r0
  64:	06840002 	streq	r0, [r4], r2
  68:	00040000 	andeq	r0, r4, r0
  6c:	00000000 	andeq	r0, r0, r0
  70:	000082ac 	andeq	r8, r0, ip, lsr #5
  74:	00000058 	andeq	r0, r0, r8, asr r0
	...
  80:	0000001c 	andeq	r0, r0, ip, lsl r0
  84:	08250002 	stmdaeq	r5!, {r1}
  88:	00040000 	andeq	r0, r4, r0
  8c:	00000000 	andeq	r0, r0, r0
  90:	00008304 	andeq	r8, r0, r4, lsl #6
  94:	00000034 	andeq	r0, r0, r4, lsr r0
	...
  a0:	0000001c 	andeq	r0, r0, ip, lsl r0
  a4:	091c0002 	ldmdbeq	ip, {r1}
  a8:	00040000 	andeq	r0, r4, r0
  ac:	00000000 	andeq	r0, r0, r0
  b0:	00008338 	andeq	r8, r0, r8, lsr r3
  b4:	00000740 	andeq	r0, r0, r0, asr #14
	...
  c0:	0000001c 	andeq	r0, r0, ip, lsl r0
  c4:	13f70002 	mvnsne	r0, #2, 0
  c8:	00040000 	andeq	r0, r4, r0
  cc:	00000000 	andeq	r0, r0, r0
  d0:	00008a78 	andeq	r8, r0, r8, ror sl
  d4:	0000002c 	andeq	r0, r0, ip, lsr #32
	...
  e0:	0000001c 	andeq	r0, r0, ip, lsl r0
  e4:	152a0002 	strne	r0, [sl, #-2]!
  e8:	00040000 	andeq	r0, r4, r0
  ec:	00000000 	andeq	r0, r0, r0
  f0:	00008aa4 	andeq	r8, r0, r4, lsr #21
  f4:	0000003c 	andeq	r0, r0, ip, lsr r0
	...
 100:	0000001c 	andeq	r0, r0, ip, lsl r0
 104:	16b70002 	ldrtne	r0, [r7], r2
 108:	00040000 	andeq	r0, r4, r0
 10c:	00000000 	andeq	r0, r0, r0
 110:	00008ae0 	andeq	r8, r0, r0, ror #21
 114:	00000004 	andeq	r0, r0, r4
	...
 120:	0000001c 	andeq	r0, r0, ip, lsl r0
 124:	17890002 	strne	r0, [r9, r2]
 128:	00040000 	andeq	r0, r4, r0
 12c:	00000000 	andeq	r0, r0, r0
 130:	00008ae4 	andeq	r8, r0, r4, ror #21
 134:	00000080 	andeq	r0, r0, r0, lsl #1
	...
 140:	0000001c 	andeq	r0, r0, ip, lsl r0
 144:	19c30002 	stmibne	r3, {r1}^
 148:	00040000 	andeq	r0, r4, r0
 14c:	00000000 	andeq	r0, r0, r0
 150:	00008b64 	andeq	r8, r0, r4, ror #22
 154:	00000084 	andeq	r0, r0, r4, lsl #1
	...
 160:	0000001c 	andeq	r0, r0, ip, lsl r0
 164:	1c140002 	ldcne	0, cr0, [r4], {2}
 168:	00040000 	andeq	r0, r4, r0
 16c:	00000000 	andeq	r0, r0, r0
 170:	00008be8 	andeq	r8, r0, r8, ror #23
 174:	000001f0 	strdeq	r0, [r0], -r0	; <UNPREDICTABLE>
	...
 180:	0000001c 	andeq	r0, r0, ip, lsl r0
 184:	21e50002 	mvncs	r0, r2
 188:	00040000 	andeq	r0, r4, r0
 18c:	00000000 	andeq	r0, r0, r0
 190:	00008dd8 	ldrdeq	r8, [r0], -r8	; <UNPREDICTABLE>
 194:	000003b0 			; <UNDEFINED> instruction: 0x000003b0
	...
 1a0:	0000001c 	andeq	r0, r0, ip, lsl r0
 1a4:	2ad20002 	bcs	ff4801b4 <__bss_end__+0xff47656c>
 1a8:	00040000 	andeq	r0, r4, r0
 1ac:	00000000 	andeq	r0, r0, r0
 1b0:	00009188 	andeq	r9, r0, r8, lsl #3
 1b4:	00000018 	andeq	r0, r0, r8, lsl r0
	...
 1c0:	0000001c 	andeq	r0, r0, ip, lsl r0
 1c4:	2c100002 	ldccs	0, cr0, [r0], {2}
 1c8:	00040000 	andeq	r0, r4, r0
 1cc:	00000000 	andeq	r0, r0, r0
 1d0:	000091a0 	andeq	r9, r0, r0, lsr #3
 1d4:	0000003c 	andeq	r0, r0, ip, lsr r0
	...
 1e0:	0000001c 	andeq	r0, r0, ip, lsl r0
 1e4:	2d5d0002 	ldclcs	0, cr0, [sp, #-8]
 1e8:	00040000 	andeq	r0, r4, r0
 1ec:	00000000 	andeq	r0, r0, r0
 1f0:	000091dc 	ldrdeq	r9, [r0], -ip
 1f4:	00000034 	andeq	r0, r0, r4, lsr r0
	...
 200:	0000001c 	andeq	r0, r0, ip, lsl r0
 204:	2e980002 	cdpcs	0, 9, cr0, cr8, cr2, {0}
 208:	00040000 	andeq	r0, r4, r0
 20c:	00000000 	andeq	r0, r0, r0
 210:	00009210 	andeq	r9, r0, r0, lsl r2
 214:	0000002c 	andeq	r0, r0, ip, lsr #32
	...
 220:	0000001c 	andeq	r0, r0, ip, lsl r0
 224:	2f930002 	svccs	0x00930002
 228:	00040000 	andeq	r0, r4, r0
 22c:	00000000 	andeq	r0, r0, r0
 230:	0000923c 	andeq	r9, r0, ip, lsr r2
 234:	00000020 	andeq	r0, r0, r0, lsr #32
	...
 240:	0000001c 	andeq	r0, r0, ip, lsl r0
 244:	30a60002 	adccc	r0, r6, r2
 248:	00040000 	andeq	r0, r4, r0
 24c:	00000000 	andeq	r0, r0, r0
 250:	0000925c 	andeq	r9, r0, ip, asr r2
 254:	0000002c 	andeq	r0, r0, ip, lsr #32
	...
 260:	0000001c 	andeq	r0, r0, ip, lsl r0
 264:	31f80002 	mvnscc	r0, r2
 268:	00040000 	andeq	r0, r4, r0
 26c:	00000000 	andeq	r0, r0, r0
 270:	00009288 	andeq	r9, r0, r8, lsl #5
 274:	00000004 	andeq	r0, r0, r4
	...
 280:	0000001c 	andeq	r0, r0, ip, lsl r0
 284:	32ca0002 	sbccc	r0, sl, #2, 0
 288:	00040000 	andeq	r0, r4, r0
 28c:	00000000 	andeq	r0, r0, r0
 290:	000092a4 	andeq	r9, r0, r4, lsr #5
 294:	0000011c 	andeq	r0, r0, ip, lsl r1
	...

Disassembly of section .debug_ranges:

00000000 <.debug_ranges>:
   0:	00000020 	andeq	r0, r0, r0, lsr #32
   4:	00000068 	andeq	r0, r0, r8, rrx
   8:	0000006c 	andeq	r0, r0, ip, rrx
   c:	00000090 	muleq	r0, r0, r0
	...
  18:	00008ae4 	andeq	r8, r0, r4, ror #21
  1c:	00008b64 	andeq	r8, r0, r4, ror #22
	...
  28:	00000134 	andeq	r0, r0, r4, lsr r1
  2c:	00000134 	andeq	r0, r0, r4, lsr r1
  30:	00000134 	andeq	r0, r0, r4, lsr r1
  34:	0000013c 	andeq	r0, r0, ip, lsr r1
	...
  40:	0000024c 	andeq	r0, r0, ip, asr #4
  44:	00000264 	andeq	r0, r0, r4, ror #4
  48:	000002c8 	andeq	r0, r0, r8, asr #5
  4c:	000002e8 	andeq	r0, r0, r8, ror #5
	...
  58:	0000925c 	andeq	r9, r0, ip, asr r2
  5c:	00009288 	andeq	r9, r0, r8, lsl #5
	...

Disassembly of section .debug_line:

00000000 <.debug_line>:
       0:	00000138 	andeq	r0, r0, r8, lsr r1
       4:	008e0003 	addeq	r0, lr, r3
       8:	01020000 	mrseq	r0, (UNDEF: 2)
       c:	000d0efb 	strdeq	r0, [sp], -fp
      10:	01010101 	tsteq	r1, r1, lsl #2
      14:	01000000 	mrseq	r0, (UNDEF: 0)
      18:	2f010000 	svccs	0x00010000
      1c:	72657355 	rsbvc	r7, r5, #1409286145	; 0x54000001
      20:	72742f73 	rsbsvc	r2, r4, #460	; 0x1cc
      24:	65747369 	ldrbvs	r7, [r4, #-873]!	; 0xfffffc97
      28:	6c6f6e6e 	stclvs	14, cr6, [pc], #-440	; fffffe78 <__bss_end__+0xffff6230>
      2c:	6e616d6c 	cdpvs	13, 6, cr6, cr1, cr12, {3}
      30:	636f442f 	cmnvs	pc, #788529152	; 0x2f000000
      34:	6e656d75 	mcrvs	13, 3, r6, cr5, cr5, {3}
      38:	532f7374 			; <UNDEFINED> instruction: 0x532f7374
      3c:	6e697270 	mcrvs	2, 3, r7, cr9, cr0, {3}
      40:	75515f67 	ldrbvc	r5, [r1, #-3943]	; 0xfffff099
      44:	65747261 	ldrbvs	r7, [r4, #-609]!	; 0xfffffd9f
      48:	30325f72 	eorscc	r5, r2, r2, ror pc
      4c:	432f3232 			; <UNDEFINED> instruction: 0x432f3232
      50:	30343253 	eorscc	r3, r4, r3, asr r2
      54:	732d584c 			; <UNDEFINED> instruction: 0x732d584c
      58:	32327270 	eorscc	r7, r2, #112, 4
      5c:	62696c2f 	rsbvs	r6, r9, #12032	; 0x2f00
      60:	692f6970 	stmdbvs	pc!, {r4, r5, r6, r8, fp, sp, lr}	; <UNPREDICTABLE>
      64:	756c636e 	strbvc	r6, [ip, #-878]!	; 0xfffffc92
      68:	00006564 	andeq	r6, r0, r4, ror #10
      6c:	65742d30 	ldrbvs	r2, [r4, #-3376]!	; 0xfffff2d0
      70:	6d2d7473 	cfstrsvs	mvf7, [sp, #-460]!	; 0xfffffe34
      74:	6f6c6c61 	svcvs	0x006c6c61
      78:	00632e63 	rsbeq	r2, r3, r3, ror #28
      7c:	72000000 	andvc	r0, r0, #0, 0
      80:	682e6970 	stmdavs	lr!, {r4, r5, r6, r8, fp, sp, lr}
      84:	00000100 	andeq	r0, r0, r0, lsl #2
      88:	6d2d726b 	sfmvs	f7, 4, [sp, #-428]!	; 0xfffffe54
      8c:	6f6c6c61 	svcvs	0x006c6c61
      90:	00682e63 	rsbeq	r2, r8, r3, ror #28
      94:	00000000 	andeq	r0, r0, r0
      98:	05001405 	streq	r1, [r0, #-1029]	; 0xfffffbfb
      9c:	00803802 	addeq	r3, r0, r2, lsl #16
      a0:	05051600 	streq	r1, [r5, #-1536]	; 0xfffffa00
      a4:	1005144b 	andne	r1, r5, fp, asr #8
      a8:	05050106 	streq	r0, [r5, #-262]	; 0xfffffefa
      ac:	09056706 	stmdbeq	r5, {r1, r2, r8, r9, sl, sp, lr}
      b0:	06120501 	ldreq	r0, [r2], -r1, lsl #10
      b4:	00190501 	andseq	r0, r9, r1, lsl #10
      b8:	06010402 	streq	r0, [r1], -r2, lsl #8
      bc:	0005052e 	andeq	r0, r5, lr, lsr #10
      c0:	06010402 	streq	r0, [r1], -r2, lsl #8
      c4:	06090501 	streq	r0, [r9], -r1, lsl #10
      c8:	0614054b 	ldreq	r0, [r4], -fp, asr #10
      cc:	06090501 	streq	r0, [r9], -r1, lsl #10
      d0:	062e0668 	strteq	r0, [lr], -r8, ror #12
      d4:	14054ba1 	strne	r4, [r5], #-2977	; 0xfffff45f
      d8:	09050106 	stmdbeq	r5, {r1, r2, r8}
      dc:	0b054b06 	bleq	152cfc <__bss_end__+0x1490b4>
      e0:	0d050106 	stfeqs	f0, [r5, #-24]	; 0xffffffe8
      e4:	02040200 	andeq	r0, r4, #0, 4
      e8:	09054b06 	stmdbeq	r5, {r1, r2, r8, r9, fp, lr}
      ec:	02040200 	andeq	r0, r4, #0, 4
      f0:	04020013 	streq	r0, [r2], #-19	; 0xffffffed
      f4:	02001302 	andeq	r1, r0, #134217728	; 0x8000000
      f8:	00010204 	andeq	r0, r1, r4, lsl #4
      fc:	06020402 	streq	r0, [r2], -r2, lsl #8
     100:	0402004a 	streq	r0, [r2], #-74	; 0xffffffb6
     104:	052e0602 	streq	r0, [lr, #-1538]!	; 0xfffff9fe
     108:	04020025 	streq	r0, [r2], #-37	; 0xffffffdb
     10c:	01750302 	cmneq	r5, r2, lsl #6
     110:	02002605 	andeq	r2, r0, #5242880	; 0x500000
     114:	01060204 	tsteq	r6, r4, lsl #4
     118:	02000b05 	andeq	r0, r0, #5120	; 0x1400
     11c:	0a030204 	beq	c0934 <__bss_end__+0xb6cec>
     120:	060d052e 	streq	r0, [sp], -lr, lsr #10
     124:	9e060149 	adflssm	f0, f6, #1.0
     128:	2e062e06 	cdpcs	14, 0, cr2, cr6, cr6, {0}
     12c:	17060505 	strne	r0, [r6, -r5, lsl #10]
     130:	01056601 	tsteq	r5, r1, lsl #12
     134:	024a1306 	subeq	r1, sl, #402653184	; 0x18000000
     138:	0101000c 	tsteq	r1, ip
     13c:	00000252 	andeq	r0, r0, r2, asr r2
     140:	008a0003 	addeq	r0, sl, r3
     144:	01020000 	mrseq	r0, (UNDEF: 2)
     148:	000d0efb 	strdeq	r0, [sp], -fp
     14c:	01010101 	tsteq	r1, r1, lsl #2
     150:	01000000 	mrseq	r0, (UNDEF: 0)
     154:	2f010000 	svccs	0x00010000
     158:	72657355 	rsbvc	r7, r5, #1409286145	; 0x54000001
     15c:	72742f73 	rsbsvc	r2, r4, #460	; 0x1cc
     160:	65747369 	ldrbvs	r7, [r4, #-873]!	; 0xfffffc97
     164:	6c6f6e6e 	stclvs	14, cr6, [pc], #-440	; ffffffb4 <__bss_end__+0xffff636c>
     168:	6e616d6c 	cdpvs	13, 6, cr6, cr1, cr12, {3}
     16c:	636f442f 	cmnvs	pc, #788529152	; 0x2f000000
     170:	6e656d75 	mcrvs	13, 3, r6, cr5, cr5, {3}
     174:	532f7374 			; <UNDEFINED> instruction: 0x532f7374
     178:	6e697270 	mcrvs	2, 3, r7, cr9, cr0, {3}
     17c:	75515f67 	ldrbvc	r5, [r1, #-3943]	; 0xfffff099
     180:	65747261 	ldrbvs	r7, [r4, #-609]!	; 0xfffffd9f
     184:	30325f72 	eorscc	r5, r2, r2, ror pc
     188:	432f3232 			; <UNDEFINED> instruction: 0x432f3232
     18c:	30343253 	eorscc	r3, r4, r3, asr r2
     190:	732d584c 			; <UNDEFINED> instruction: 0x732d584c
     194:	32327270 	eorscc	r7, r2, #112, 4
     198:	62696c2f 	rsbvs	r6, r9, #12032	; 0x2f00
     19c:	692f6970 	stmdbvs	pc!, {r4, r5, r6, r8, fp, sp, lr}	; <UNPREDICTABLE>
     1a0:	756c636e 	strbvc	r6, [ip, #-878]!	; 0xfffffc92
     1a4:	00006564 	andeq	r6, r0, r4, ror #10
     1a8:	6d2d726b 	sfmvs	f7, 4, [sp, #-428]!	; 0xfffffe54
     1ac:	6f6c6c61 	svcvs	0x006c6c61
     1b0:	00632e63 	rsbeq	r2, r3, r3, ror #28
     1b4:	72000000 	andvc	r0, r0, #0, 0
     1b8:	682e6970 	stmdavs	lr!, {r4, r5, r6, r8, fp, sp, lr}
     1bc:	00000100 	andeq	r0, r0, r0, lsl #2
     1c0:	6d2d726b 	sfmvs	f7, 4, [sp, #-428]!	; 0xfffffe54
     1c4:	6f6c6c61 	svcvs	0x006c6c61
     1c8:	00682e63 	rsbeq	r2, r8, r3, ror #28
     1cc:	00000000 	andeq	r0, r0, r0
     1d0:	05001905 	streq	r1, [r0, #-2309]	; 0xfffff6fb
     1d4:	0080f402 	addeq	pc, r0, r2, lsl #8
     1d8:	00d10300 	sbcseq	r0, r1, r0, lsl #6
     1dc:	05010601 	streq	r0, [r1, #-1537]	; 0xfffff9ff
     1e0:	132f0602 			; <UNDEFINED> instruction: 0x132f0602
     1e4:	01060505 	tsteq	r6, r5, lsl #10
     1e8:	2f060205 	svccs	0x00060205
     1ec:	01060905 	tsteq	r6, r5, lsl #18
     1f0:	2e4a0205 	cdpcs	2, 4, cr0, cr10, cr5, {0}
     1f4:	02001205 	andeq	r1, r0, #1342177280	; 0x50000000
     1f8:	2e060104 	adfcss	f0, f6, f4
     1fc:	02000205 	andeq	r0, r0, #1342177280	; 0x50000000
     200:	01060104 	tsteq	r6, r4, lsl #2
     204:	02002605 	andeq	r2, r0, #5242880	; 0x500000
     208:	054a0304 	strbeq	r0, [sl, #-772]	; 0xfffffcfc
     20c:	04020012 	streq	r0, [r2], #-18	; 0xffffffee
     210:	03052e03 	movweq	r2, #24067	; 0x5e03
     214:	10054b06 	andne	r4, r5, r6, lsl #22
     218:	06050106 	streq	r0, [r5], -r6, lsl #2
     21c:	0015052e 	andseq	r0, r5, lr, lsr #10
     220:	4a010402 	bmi	41230 <__bss_end__+0x375e8>
     224:	02002005 	andeq	r2, r0, #5, 0
     228:	004a0204 	subeq	r0, sl, r4, lsl #4
     22c:	4a020402 	bmi	8123c <__bss_end__+0x775f4>
     230:	32060205 	andcc	r0, r6, #1342177280	; 0x50000000
     234:	01061005 	tsteq	r6, r5
     238:	052e0905 	streq	r0, [lr, #-2309]!	; 0xfffff6fb
     23c:	05052e1d 	streq	r2, [r5, #-3613]	; 0xfffff1e3
     240:	060c052e 	streq	r0, [ip], -lr, lsr #10
     244:	0616054e 	ldreq	r0, [r6], -lr, asr #10
     248:	06080501 	streq	r0, [r8], -r1, lsl #10
     24c:	0614052f 	ldreq	r0, [r4], -pc, lsr #10
     250:	2e0e0501 	cfsh32cs	mvfx0, mvfx14, #1
     254:	052e0b05 	streq	r0, [lr, #-2821]!	; 0xfffff4fb
     258:	054e060c 	strbeq	r0, [lr, #-1548]	; 0xfffff9f4
     25c:	05010615 	streq	r0, [r1, #-1557]	; 0xfffff9eb
     260:	05300602 	ldreq	r0, [r0, #-1538]!	; 0xfffff9fe
     264:	05010608 	streq	r0, [r1, #-1544]	; 0xfffff9f8
     268:	0c054b01 			; <UNDEFINED> instruction: 0x0c054b01
     26c:	2e750306 	cdpcs	3, 7, cr0, cr5, cr6, {0}
     270:	01062505 	tsteq	r6, r5, lsl #10
     274:	052e1705 	streq	r1, [lr, #-1797]!	; 0xfffff8fb
     278:	054b060c 	strbeq	r0, [fp, #-1548]	; 0xfffff9f4
     27c:	0501061c 	streq	r0, [r1, #-1564]	; 0xfffff9e4
     280:	16052e23 	strne	r2, [r5], -r3, lsr #28
     284:	060c052e 	streq	r0, [ip], -lr, lsr #10
     288:	061e054e 	ldreq	r0, [lr], -lr, asr #10
     28c:	2e160501 	cfmul32cs	mvfx0, mvfx6, mvfx1
     290:	4b060c05 	blmi	1832ac <__bss_end__+0x179664>
     294:	01061c05 	tsteq	r6, r5, lsl #24
     298:	052e1505 	streq	r1, [lr, #-1285]!	; 0xfffffafb
     29c:	b703062a 	strlt	r0, [r3, -sl, lsr #12]
     2a0:	0106667f 	tsteq	r6, pc, ror r6
     2a4:	4b060205 	blmi	180ac0 <__bss_end__+0x176e78>
     2a8:	05051413 	streq	r1, [r5, #-1043]	; 0xfffffbed
     2ac:	07050106 	streq	r0, [r5, -r6, lsl #2]
     2b0:	0602052f 	streq	r0, [r2], -pc, lsr #10
     2b4:	06070531 			; <UNDEFINED> instruction: 0x06070531
     2b8:	06020501 	streq	r0, [r2], -r1, lsl #10
     2bc:	0605054b 	streq	r0, [r5], -fp, asr #10
     2c0:	06020501 	streq	r0, [r2], -r1, lsl #10
     2c4:	0d05134e 	stceq	3, cr1, [r5, #-312]	; 0xfffffec8
     2c8:	02050106 	andeq	r0, r5, #-2147483647	; 0x80000001
     2cc:	2e062f06 	cdpcs	15, 0, cr2, cr6, cr6, {0}
     2d0:	09052f06 	stmdbeq	r5, {r1, r2, r8, r9, sl, fp, sp}
     2d4:	0a050106 	beq	1406f4 <__bss_end__+0x136aac>
     2d8:	05667a03 	strbeq	r7, [r6, #-2563]!	; 0xfffff5fd
     2dc:	22053501 	andcs	r3, r5, #4194304	; 0x400000
     2e0:	01064d06 	tsteq	r6, r6, lsl #26
     2e4:	2f060205 	svccs	0x00060205
     2e8:	05141313 	ldreq	r1, [r4, #-787]	; 0xfffffced
     2ec:	05010624 	streq	r0, [r1, #-1572]	; 0xfffff9dc
     2f0:	09052e29 	stmdbeq	r5, {r0, r3, r5, r9, sl, fp, sp}
     2f4:	0602052e 	streq	r0, [r2], -lr, lsr #10
     2f8:	060d052f 	streq	r0, [sp], -pc, lsr #10
     2fc:	4a050501 	bmi	141708 <__bss_end__+0x137ac0>
     300:	50060205 	andpl	r0, r6, r5, lsl #4
     304:	01060905 	tsteq	r6, r5, lsl #18
     308:	0603052e 	streq	r0, [r3], -lr, lsr #10
     30c:	0616052a 	ldreq	r0, [r6], -sl, lsr #10
     310:	4a0e0501 	bmi	38171c <__bss_end__+0x377ad4>
     314:	2f060305 	svccs	0x00060305
     318:	01060f05 	tsteq	r6, r5, lsl #30
     31c:	6c060405 	cfstrsvs	mvf0, [r6], {5}
     320:	01060705 	tsteq	r6, r5, lsl #14
     324:	32060505 	andcc	r0, r6, #20971520	; 0x1400000
     328:	01060f05 	tsteq	r6, r5, lsl #30
     32c:	4b060505 	blmi	181748 <__bss_end__+0x177b00>
     330:	01060705 	tsteq	r6, r5, lsl #14
     334:	2f060505 	svccs	0x00060505
     338:	01060f05 	tsteq	r6, r5, lsl #30
     33c:	30060405 	andcc	r0, r6, r5, lsl #8
     340:	01060a05 	tsteq	r6, r5, lsl #20
     344:	4b060405 	blmi	181360 <__bss_end__+0x177718>
     348:	01060b05 	tsteq	r6, r5, lsl #22
     34c:	0605052e 	streq	r0, [r5], -lr, lsr #10
     350:	052e7903 	streq	r7, [lr, #-2307]!	; 0xfffff6fd
     354:	05010618 	streq	r0, [r1, #-1560]	; 0xfffff9e8
     358:	1a052e12 	bne	14bba8 <__bss_end__+0x141f60>
     35c:	18054506 	stmdane	r5, {r1, r2, r8, sl, lr}
     360:	06200501 	strteq	r0, [r0], -r1, lsl #10
     364:	2e270501 	cfsh64cs	mvdx0, mvdx7, #1
     368:	2f060305 	svccs	0x00060305
     36c:	01060b05 	tsteq	r6, r5, lsl #22
     370:	052e0605 	streq	r0, [lr, #-1541]!	; 0xfffff9fb
     374:	0e030603 	cfmadd32eq	mvax0, mvfx0, mvfx3, mvfx3
     378:	0609054a 	streq	r0, [r9], -sl, asr #10
     37c:	4a060501 	bmi	181788 <__bss_end__+0x177b40>
     380:	4c060405 	cfstrsmi	mvf0, [r6], {5}
     384:	01060d05 	tsteq	r6, r5, lsl #26
     388:	2e07052e 	cfsh32cs	mvfx0, mvfx7, #30
     38c:	0006022e 	andeq	r0, r6, lr, lsr #4
     390:	009b0101 	addseq	r0, fp, r1, lsl #2
     394:	00030000 	andeq	r0, r3, r0
     398:	00000079 	andeq	r0, r0, r9, ror r0
     39c:	0efb0102 	cdpeq	1, 15, cr0, cr11, cr2, {0}
     3a0:	0101000d 	tsteq	r1, sp
     3a4:	00000101 	andeq	r0, r0, r1, lsl #2
     3a8:	00000100 	andeq	r0, r0, r0, lsl #2
     3ac:	73552f01 	cmpvc	r5, #1, 30
     3b0:	2f737265 	svccs	0x00737265
     3b4:	73697274 	cmnvc	r9, #116, 4	; 0x40000007
     3b8:	6e6e6574 	mcrvs	5, 3, r6, cr14, cr4, {3}
     3bc:	6d6c6c6f 	stclvs	12, cr6, [ip, #-444]!	; 0xfffffe44
     3c0:	442f6e61 	strtmi	r6, [pc], #-3681	; 3c8 <__code_start__-0x7c38>
     3c4:	6d75636f 	ldclvs	3, cr6, [r5, #-444]!	; 0xfffffe44
     3c8:	73746e65 	cmnvc	r4, #1616	; 0x650
     3cc:	7270532f 	rsbsvc	r5, r0, #-1140850688	; 0xbc000000
     3d0:	5f676e69 	svcpl	0x00676e69
     3d4:	72617551 	rsbvc	r7, r1, #339738624	; 0x14400000
     3d8:	5f726574 	svcpl	0x00726574
     3dc:	32323032 	eorscc	r3, r2, #50, 0	; 0x32
     3e0:	3253432f 	subscc	r4, r3, #-1140850688	; 0xbc000000
     3e4:	584c3034 	stmdapl	ip, {r2, r4, r5, ip, sp}^
     3e8:	7270732d 	rsbsvc	r7, r0, #-1275068416	; 0xb4000000
     3ec:	6c2f3232 	sfmvs	f3, 4, [pc], #-200	; 32c <__code_start__-0x7cd4>
     3f0:	69706269 	ldmdbvs	r0!, {r0, r3, r5, r6, r9, sp, lr}^
     3f4:	636e692f 	cmnvs	lr, #770048	; 0xbc000
     3f8:	6564756c 	strbvs	r7, [r4, #-1388]!	; 0xfffffa94
     3fc:	69700000 	ldmdbvs	r0!, {}^	; <UNPREDICTABLE>
     400:	7262732d 	rsbvc	r7, r2, #-1275068416	; 0xb4000000
     404:	00632e6b 	rsbeq	r2, r3, fp, ror #28
     408:	72000000 	andvc	r0, r0, #0, 0
     40c:	682e6970 	stmdavs	lr!, {r4, r5, r6, r8, fp, sp, lr}
     410:	00000100 	andeq	r0, r0, r0, lsl #2
     414:	001c0500 	andseq	r0, ip, r0, lsl #10
     418:	82a00205 	adchi	r0, r0, #1342177280	; 0x50000000
     41c:	06150000 	ldreq	r0, [r5], -r0
     420:	06020501 	streq	r0, [r2], -r1, lsl #10
     424:	0609052f 	streq	r0, [r9], -pc, lsr #10
     428:	2f010501 	svccs	0x00010501
     42c:	01000202 	tsteq	r0, r2, lsl #4
     430:	00013301 	andeq	r3, r1, r1, lsl #6
     434:	01000300 	mrseq	r0, LR_irq
     438:	02000001 	andeq	r0, r0, #1, 0
     43c:	0d0efb01 	vstreq	d15, [lr, #-4]
     440:	01010100 	mrseq	r0, (UNDEF: 17)
     444:	00000001 	andeq	r0, r0, r1
     448:	01000001 	tsteq	r0, r1
     44c:	696c2f2e 	stmdbvs	ip!, {r1, r2, r3, r5, r8, r9, sl, fp, sp}^
     450:	2f006362 	svccs	0x00006362
     454:	2f727375 	svccs	0x00727375
     458:	61636f6c 	cmnvs	r3, ip, ror #30
     45c:	65432f6c 	strbvs	r2, [r3, #-3948]	; 0xfffff094
     460:	72616c6c 	rsbvc	r6, r1, #108, 24	; 0x6c00
     464:	6d72612f 	ldfvse	f6, [r2, #-188]!	; 0xffffff44
     468:	6e6f6e2d 	cdpvs	14, 6, cr6, cr15, cr13, {1}
     46c:	61652d65 	cmnvs	r5, r5, ror #26
     470:	742d6962 	strtvc	r6, [sp], #-2402	; 0xfffff69e
     474:	2f747365 	svccs	0x00747365
     478:	30322d39 	eorscc	r2, r2, r9, lsr sp
     47c:	34713931 	ldrbtcc	r3, [r1], #-2353	; 0xfffff6cf
     480:	3173632d 	cmncc	r3, sp, lsr #6
     484:	2f653730 	svccs	0x00653730
     488:	2f62696c 	svccs	0x0062696c
     48c:	2f636367 	svccs	0x00636367
     490:	2d6d7261 	sfmcs	f7, 2, [sp, #-388]!	; 0xfffffe7c
     494:	656e6f6e 	strbvs	r6, [lr, #-3950]!	; 0xfffff092
     498:	6261652d 	rsbvs	r6, r1, #188743680	; 0xb400000
     49c:	2e392f69 	cdpcs	15, 3, cr2, cr9, cr9, {3}
     4a0:	2f312e32 	svccs	0x00312e32
     4a4:	6c636e69 	stclvs	14, cr6, [r3], #-420	; 0xfffffe5c
     4a8:	00656475 	rsbeq	r6, r5, r5, ror r4
     4ac:	6573552f 	ldrbvs	r5, [r3, #-1327]!	; 0xfffffad1
     4b0:	742f7372 	strtvc	r7, [pc], #-882	; 4b8 <__code_start__-0x7b48>
     4b4:	74736972 	ldrbtvc	r6, [r3], #-2418	; 0xfffff68e
     4b8:	6f6e6e65 	svcvs	0x006e6e65
     4bc:	616d6c6c 	cmnvs	sp, ip, ror #24
     4c0:	6f442f6e 	svcvs	0x00442f6e
     4c4:	656d7563 	strbvs	r7, [sp, #-1379]!	; 0xfffffa9d
     4c8:	2f73746e 	svccs	0x0073746e
     4cc:	69727053 	ldmdbvs	r2!, {r0, r1, r4, r6, ip, sp, lr}^
     4d0:	515f676e 	cmppl	pc, lr, ror #14
     4d4:	74726175 	ldrbtvc	r6, [r2], #-373	; 0xfffffe8b
     4d8:	325f7265 	subscc	r7, pc, #1342177286	; 0x50000006
     4dc:	2f323230 	svccs	0x00323230
     4e0:	34325343 	ldrtcc	r5, [r2], #-835	; 0xfffffcbd
     4e4:	2d584c30 	ldclcs	12, cr4, [r8, #-192]	; 0xffffff40
     4e8:	32727073 	rsbscc	r7, r2, #115, 0	; 0x73
     4ec:	696c2f32 	stmdbvs	ip!, {r1, r4, r5, r8, r9, sl, fp, sp}^
     4f0:	2f697062 	svccs	0x00697062
     4f4:	6c636e69 	stclvs	14, cr6, [r3], #-420	; 0xfffffe5c
     4f8:	00656475 	rsbeq	r6, r5, r5, ror r4
     4fc:	69727000 	ldmdbvs	r2!, {ip, sp, lr}^
     500:	2e6b746e 	cdpcs	4, 6, cr7, cr11, cr14, {3}
     504:	00010063 	andeq	r0, r1, r3, rrx
     508:	64747300 	ldrbtvs	r7, [r4], #-768	; 0xfffffd00
     50c:	2e677261 	cdpcs	2, 6, cr7, cr7, cr1, {3}
     510:	00020068 	andeq	r0, r2, r8, rrx
     514:	69707200 	ldmdbvs	r0!, {r9, ip, sp, lr}^
     518:	0300682e 	movweq	r6, #2094	; 0x82e
     51c:	623c0000 	eorsvs	r0, ip, #0, 0
     520:	746c6975 	strbtvc	r6, [ip], #-2421	; 0xfffff68b
     524:	3e6e692d 	vmulcc.f16	s13, s28, s27	; <UNPREDICTABLE>
     528:	00000000 	andeq	r0, r0, r0
     52c:	702d6176 	eorvc	r6, sp, r6, ror r1
     530:	746e6972 	strbtvc	r6, [lr], #-2418	; 0xfffff68e
     534:	00682e6b 	rsbeq	r2, r8, fp, ror #28
     538:	00000001 	andeq	r0, r0, r1
     53c:	05002205 	streq	r2, [r0, #-517]	; 0xfffffdfb
     540:	0082ac02 	addeq	sl, r2, r2, lsl #24
     544:	01061700 	tsteq	r6, r0, lsl #14
     548:	68060505 	stmdavs	r6, {r0, r2, r8, sl}
     54c:	09051413 	stmdbeq	r5, {r0, r1, r4, sl, ip}
     550:	0612054b 	ldreq	r0, [r2], -fp, asr #10
     554:	06050501 	streq	r0, [r5], -r1, lsl #10
     558:	660616bb 			; <UNDEFINED> instruction: 0x660616bb
     55c:	01053406 	tsteq	r5, r6, lsl #8
     560:	02661306 	rsbeq	r1, r6, #402653184	; 0x18000000
     564:	01010008 	tsteq	r1, r8
     568:	000000cb 	andeq	r0, r0, fp, asr #1
     56c:	007d0003 	rsbseq	r0, sp, r3
     570:	01020000 	mrseq	r0, (UNDEF: 2)
     574:	000d0efb 	strdeq	r0, [sp], -fp
     578:	01010101 	tsteq	r1, r1, lsl #2
     57c:	01000000 	mrseq	r0, (UNDEF: 0)
     580:	2e010000 	cdpcs	0, 0, cr0, cr1, cr0, {0}
     584:	62696c2f 	rsbvs	r6, r9, #12032	; 0x2f00
     588:	552f0063 	strpl	r0, [pc, #-99]!	; 52d <__code_start__-0x7ad3>
     58c:	73726573 	cmnvc	r2, #482344960	; 0x1cc00000
     590:	6972742f 	ldmdbvs	r2!, {r0, r1, r2, r3, r5, sl, ip, sp, lr}^
     594:	6e657473 	mcrvs	4, 3, r7, cr5, cr3, {3}
     598:	6c6c6f6e 	stclvs	15, cr6, [ip], #-440	; 0xfffffe48
     59c:	2f6e616d 	svccs	0x006e616d
     5a0:	75636f44 	strbvc	r6, [r3, #-3908]!	; 0xfffff0bc
     5a4:	746e656d 	strbtvc	r6, [lr], #-1389	; 0xfffffa93
     5a8:	70532f73 	subsvc	r2, r3, r3, ror pc
     5ac:	676e6972 			; <UNDEFINED> instruction: 0x676e6972
     5b0:	6175515f 	cmnvs	r5, pc, asr r1
     5b4:	72657472 	rsbvc	r7, r5, #1912602624	; 0x72000000
     5b8:	3230325f 	eorscc	r3, r0, #-268435451	; 0xf0000005
     5bc:	53432f32 	movtpl	r2, #16178	; 0x3f32
     5c0:	4c303432 	cfldrsmi	mvf3, [r0], #-200	; 0xffffff38
     5c4:	70732d58 	rsbsvc	r2, r3, r8, asr sp
     5c8:	2f323272 	svccs	0x00323272
     5cc:	7062696c 	rsbvc	r6, r2, ip, ror #18
     5d0:	6e692f69 	cdpvs	15, 6, cr2, cr9, cr9, {3}
     5d4:	64756c63 	ldrbtvs	r6, [r5], #-3171	; 0xfffff39d
     5d8:	70000065 	andvc	r0, r0, r5, rrx
     5dc:	2e6b7475 	mcrcs	4, 3, r7, cr11, cr5, {3}
     5e0:	00010063 	andeq	r0, r1, r3, rrx
     5e4:	69707200 	ldmdbvs	r0!, {r9, ip, sp, lr}^
     5e8:	0200682e 	andeq	r6, r0, #3014656	; 0x2e0000
     5ec:	05000000 	streq	r0, [r0, #-0]
     5f0:	02050022 	andeq	r0, r5, #34, 0	; 0x22
     5f4:	00008304 	andeq	r8, r0, r4, lsl #6
     5f8:	05010615 	streq	r0, [r1, #-1557]	; 0xfffff9eb
     5fc:	054b0605 	strbeq	r0, [fp, #-1541]	; 0xfffff9fb
     600:	0402000b 	streq	r0, [r2], #-11
     604:	05050101 	streq	r0, [r5, #-257]	; 0xfffffeff
     608:	01040200 	mrseq	r0, R12_usr
     60c:	09052e06 	stmdbeq	r5, {r1, r2, r9, sl, fp, sp}
     610:	02040200 	andeq	r0, r4, #0, 4
     614:	0f054b06 	svceq	0x00054b06
     618:	02040200 	andeq	r0, r4, #0, 4
     61c:	00100565 	andseq	r0, r0, r5, ror #10
     620:	06020402 	streq	r0, [r2], -r2, lsl #8
     624:	04020001 	streq	r0, [r2], #-1
     628:	05052e02 	streq	r2, [r5, #-3586]	; 0xfffff1fe
     62c:	01053206 	tsteq	r5, r6, lsl #4
     630:	06021306 	streq	r1, [r2], -r6, lsl #6
     634:	1d010100 	stfnes	f0, [r1, #-0]
     638:	03000006 	movweq	r0, #6
     63c:	00011700 	andeq	r1, r1, r0, lsl #14
     640:	fb010200 	blx	40e4a <__bss_end__+0x37202>
     644:	01000d0e 	tsteq	r0, lr, lsl #26
     648:	00010101 	andeq	r0, r1, r1, lsl #2
     64c:	00010000 	andeq	r0, r1, r0
     650:	2f2e0100 	svccs	0x002e0100
     654:	6362696c 	cmnvs	r2, #108, 18	; 0x1b0000
     658:	73752f00 	cmnvc	r5, #0, 30
     65c:	6f6c2f72 	svcvs	0x006c2f72
     660:	2f6c6163 	svccs	0x006c6163
     664:	6c6c6543 	cfstr64vs	mvdx6, [ip], #-268	; 0xfffffef4
     668:	612f7261 			; <UNDEFINED> instruction: 0x612f7261
     66c:	6e2d6d72 	mcrvs	13, 1, r6, cr13, cr2, {3}
     670:	2d656e6f 	stclcs	14, cr6, [r5, #-444]!	; 0xfffffe44
     674:	69626165 	stmdbvs	r2!, {r0, r2, r5, r6, r8, sp, lr}^
     678:	7365742d 	cmnvc	r5, #754974720	; 0x2d000000
     67c:	2d392f74 	ldccs	15, cr2, [r9, #-464]!	; 0xfffffe30
     680:	39313032 	ldmdbcc	r1!, {r1, r4, r5, ip, sp}
     684:	632d3471 			; <UNDEFINED> instruction: 0x632d3471
     688:	37303173 			; <UNDEFINED> instruction: 0x37303173
     68c:	696c2f65 	stmdbvs	ip!, {r0, r2, r5, r6, r8, r9, sl, fp, sp}^
     690:	63672f62 	cmnvs	r7, #392	; 0x188
     694:	72612f63 	rsbvc	r2, r1, #396	; 0x18c
     698:	6f6e2d6d 	svcvs	0x006e2d6d
     69c:	652d656e 	strvs	r6, [sp, #-1390]!	; 0xfffffa92
     6a0:	2f696261 	svccs	0x00696261
     6a4:	2e322e39 	mrccs	14, 1, r2, cr2, cr9, {1}
     6a8:	6e692f31 	mcrvs	15, 3, r2, cr9, cr1, {1}
     6ac:	64756c63 	ldrbtvs	r6, [r5], #-3171	; 0xfffff39d
     6b0:	552f0065 	strpl	r0, [pc, #-101]!	; 653 <__code_start__-0x79ad>
     6b4:	73726573 	cmnvc	r2, #482344960	; 0x1cc00000
     6b8:	6972742f 	ldmdbvs	r2!, {r0, r1, r2, r3, r5, sl, ip, sp, lr}^
     6bc:	6e657473 	mcrvs	4, 3, r7, cr5, cr3, {3}
     6c0:	6c6c6f6e 	stclvs	15, cr6, [ip], #-440	; 0xfffffe48
     6c4:	2f6e616d 	svccs	0x006e616d
     6c8:	75636f44 	strbvc	r6, [r3, #-3908]!	; 0xfffff0bc
     6cc:	746e656d 	strbtvc	r6, [lr], #-1389	; 0xfffffa93
     6d0:	70532f73 	subsvc	r2, r3, r3, ror pc
     6d4:	676e6972 			; <UNDEFINED> instruction: 0x676e6972
     6d8:	6175515f 	cmnvs	r5, pc, asr r1
     6dc:	72657472 	rsbvc	r7, r5, #1912602624	; 0x72000000
     6e0:	3230325f 	eorscc	r3, r0, #-268435451	; 0xf0000005
     6e4:	53432f32 	movtpl	r2, #16178	; 0x3f32
     6e8:	4c303432 	cfldrsmi	mvf3, [r0], #-200	; 0xffffff38
     6ec:	70732d58 	rsbsvc	r2, r3, r8, asr sp
     6f0:	2f323272 	svccs	0x00323272
     6f4:	7062696c 	rsbvc	r6, r2, ip, ror #18
     6f8:	6e692f69 	cdpvs	15, 6, cr2, cr9, cr9, {3}
     6fc:	64756c63 	ldrbtvs	r6, [r5], #-3171	; 0xfffff39d
     700:	76000065 	strvc	r0, [r0], -r5, rrx
     704:	72702d61 	rsbsvc	r2, r0, #6208	; 0x1840
     708:	6b746e69 	blvs	1d1c0b4 <__bss_end__+0x1d1246c>
     70c:	0100632e 	tsteq	r0, lr, lsr #6
     710:	74730000 	ldrbtvc	r0, [r3], #-0
     714:	746e6964 	strbtvc	r6, [lr], #-2404	; 0xfffff69c
     718:	6363672d 	cmnvs	r3, #11796480	; 0xb40000
     71c:	0200682e 	andeq	r6, r0, #3014656	; 0x2e0000
     720:	70720000 	rsbsvc	r0, r2, r0
     724:	00682e69 	rsbeq	r2, r8, r9, ror #28
     728:	72000003 	andvc	r0, r0, #3, 0
     72c:	692d6970 	pushvs	{r4, r5, r6, r8, fp, sp, lr}
     730:	7265746e 	rsbvc	r7, r5, #1845493760	; 0x6e000000
     734:	2e6c616e 	powcsez	f6, f4, #0.5
     738:	00030068 	andeq	r0, r3, r8, rrx
     73c:	64747300 	ldrbtvs	r7, [r4], #-768	; 0xfffffd00
     740:	2e677261 	cdpcs	2, 6, cr7, cr7, cr1, {3}
     744:	00020068 	andeq	r0, r2, r8, rrx
     748:	75623c00 	strbvc	r3, [r2, #-3072]!	; 0xfffff400
     74c:	2d746c69 	ldclcs	12, cr6, [r4, #-420]!	; 0xfffffe5c
     750:	003e6e69 	eorseq	r6, lr, r9, ror #28
     754:	00000000 	andeq	r0, r0, r0
     758:	05001b05 	streq	r1, [r0, #-2821]	; 0xfffff4fb
     75c:	00833802 	addeq	r3, r3, r2, lsl #16
     760:	01260300 			; <UNDEFINED> instruction: 0x01260300
     764:	05011d05 	streq	r1, [r1, #-3333]	; 0xfffff2fb
     768:	0501062d 	streq	r0, [r1, #-1581]	; 0xfffff9d3
     76c:	054a2e01 	strbeq	r2, [sl, #-3585]	; 0xfffff1ff
     770:	05510633 	ldrbeq	r0, [r1, #-1587]	; 0xfffff9cd
     774:	06051302 	streq	r1, [r5], -r2, lsl #6
     778:	02050106 	andeq	r0, r5, #-2147483647	; 0x80000001
     77c:	08053006 	stmdaeq	r5, {r1, r2, ip, sp}
     780:	01040200 	mrseq	r0, R12_usr
     784:	00020501 	andeq	r0, r2, r1, lsl #10
     788:	06010402 	streq	r0, [r1], -r2, lsl #8
     78c:	00030501 	andeq	r0, r3, r1, lsl #10
     790:	06020402 	streq	r0, [r2], -r2, lsl #8
     794:	0008052f 	andeq	r0, r8, pc, lsr #10
     798:	06020402 	streq	r0, [r2], -r2, lsl #8
     79c:	00150501 	andseq	r0, r5, r1, lsl #10
     7a0:	06020402 	streq	r0, [r2], -r2, lsl #8
     7a4:	00180549 	andseq	r0, r8, r9, asr #10
     7a8:	06020402 	streq	r0, [r2], -r2, lsl #8
     7ac:	04020001 	streq	r0, [r2], #-1
     7b0:	02052e02 	andeq	r2, r5, #2, 28
     7b4:	05053006 	streq	r3, [r5, #-6]
     7b8:	02050106 	andeq	r0, r5, #-2147483647	; 0x80000001
     7bc:	01054b06 	tsteq	r5, r6, lsl #22
     7c0:	3e051306 	cdpcc	3, 0, cr1, cr5, cr6, {0}
     7c4:	02053106 	andeq	r3, r5, #-2147483647	; 0x80000001
     7c8:	060e0514 			; <UNDEFINED> instruction: 0x060e0514
     7cc:	2e060501 	cfsh32cs	mvfx0, mvfx6, #1
     7d0:	2f060205 	svccs	0x00060205
     7d4:	01060405 	tsteq	r6, r5, lsl #8
     7d8:	2f060305 	svccs	0x00060305
     7dc:	01061105 	tsteq	r6, r5, lsl #2
     7e0:	052e0905 	streq	r0, [lr, #-2309]!	; 0xfffff6fb
     7e4:	15300602 	ldrne	r0, [r0, #-1538]!	; 0xfffff9fe
     7e8:	01060705 	tsteq	r6, r5, lsl #14
     7ec:	052e0205 	streq	r0, [lr, #-517]!	; 0xfffffdfb
     7f0:	0402000b 	streq	r0, [r2], #-11
     7f4:	052e0601 	streq	r0, [lr, #-1537]!	; 0xfffff9ff
     7f8:	04020002 	streq	r0, [r2], #-2
     7fc:	05010601 	streq	r0, [r1, #-1537]	; 0xfffff9ff
     800:	04020003 	streq	r0, [r2], #-3
     804:	052f0603 	streq	r0, [pc, #-1539]!	; 209 <__code_start__-0x7df7>
     808:	0402000c 	streq	r0, [r2], #-12
     80c:	05010603 	streq	r0, [r1, #-1539]	; 0xfffff9fd
     810:	0402000a 	streq	r0, [r2], #-10
     814:	17052e03 	strne	r2, [r5, -r3, lsl #28]
     818:	03040200 	movweq	r0, #16896	; 0x4200
     81c:	02002d06 	andeq	r2, r0, #384	; 0x180
     820:	01060304 	tsteq	r6, r4, lsl #6
     824:	30060205 	andcc	r0, r6, r5, lsl #4
     828:	01060905 	tsteq	r6, r5, lsl #18
     82c:	0602052e 	streq	r0, [r2], -lr, lsr #10
     830:	06010530 			; <UNDEFINED> instruction: 0x06010530
     834:	06490513 			; <UNDEFINED> instruction: 0x06490513
     838:	05010631 	streq	r0, [r1, #-1585]	; 0xfffff9cf
     83c:	05a00602 	streq	r0, [r0, #1538]!	; 0x602
     840:	05010604 	streq	r0, [r1, #-1540]	; 0xfffff9fc
     844:	052f0603 	streq	r0, [pc, #-1539]!	; 249 <__code_start__-0x7db7>
     848:	05010609 	streq	r0, [r1, #-1545]	; 0xfffff9f7
     84c:	13300602 	teqne	r0, #2097152	; 0x200000
     850:	01060b05 	tsteq	r6, r5, lsl #22
     854:	30060205 	andcc	r0, r6, r5, lsl #4
     858:	04052e06 	streq	r2, [r5], #-3590	; 0xfffff1fa
     85c:	15240206 	strne	r0, [r4, #-518]!	; 0xfffffdfa
     860:	060f0513 			; <UNDEFINED> instruction: 0x060f0513
     864:	06052e01 	streq	r2, [r5], -r1, lsl #28
     868:	0605054a 	streq	r0, [r5], -sl, asr #10
     86c:	0905134b 	stmdbeq	r5, {r0, r1, r3, r6, r8, r9, ip}
     870:	05050106 	streq	r0, [r5, #-262]	; 0xfffffefa
     874:	0b052f06 	bleq	14c494 <__bss_end__+0x14284c>
     878:	0d051006 	stceq	0, cr1, [r5, #-24]	; 0xffffffe8
     87c:	01040200 	mrseq	r0, R12_usr
     880:	0004052c 	andeq	r0, r4, ip, lsr #10
     884:	06010402 	streq	r0, [r1], -r2, lsl #8
     888:	00050534 	andeq	r0, r5, r4, lsr r5
     88c:	13010402 	movwne	r0, #5122	; 0x1402
     890:	02001b05 	andeq	r1, r0, #5120	; 0x1400
     894:	01060104 	tsteq	r6, r4, lsl #2
     898:	02000705 	andeq	r0, r0, #1310720	; 0x140000
     89c:	05d60104 	ldrbeq	r0, [r6, #260]	; 0x104
     8a0:	04020018 	streq	r0, [r2], #-24	; 0xffffffe8
     8a4:	0a052e01 	beq	14c0b0 <__bss_end__+0x142468>
     8a8:	01040200 	mrseq	r0, R12_usr
     8ac:	000b054a 	andeq	r0, fp, sl, asr #10
     8b0:	06010402 	streq	r0, [r1], -r2, lsl #8
     8b4:	000e052f 	andeq	r0, lr, pc, lsr #10
     8b8:	06010402 	streq	r0, [r1], -r2, lsl #8
     8bc:	0004052e 	andeq	r0, r4, lr, lsr #10
     8c0:	2e010402 	cdpcs	4, 0, cr0, cr1, cr2, {0}
     8c4:	06054b06 	streq	r4, [r5], -r6, lsl #22
     8c8:	05050106 	streq	r0, [r5, #-262]	; 0xfffffefa
     8cc:	0a052f06 	beq	14c4ec <__bss_end__+0x1428a4>
     8d0:	07050106 	streq	r0, [r5, -r6, lsl #2]
     8d4:	0d052e4a 	stceq	14, cr2, [r5, #-296]	; 0xfffffed8
     8d8:	4a2e7603 	bmi	b9e0ec <__bss_end__+0xb944a4>
     8dc:	050d0b05 	streq	r0, [sp, #-2821]	; 0xfffff4fb
     8e0:	0402000d 	streq	r0, [r2], #-13
     8e4:	14030601 	strne	r0, [r3], #-1537	; 0xfffff9ff
     8e8:	0011052e 	andseq	r0, r1, lr, lsr #10
     8ec:	13010402 	movwne	r0, #5122	; 0x1402
     8f0:	02002d05 	andeq	r2, r0, #320	; 0x140
     8f4:	01060104 	tsteq	r6, r4, lsl #2
     8f8:	02002a05 	andeq	r2, r0, #20480	; 0x5000
     8fc:	052e0104 	streq	r0, [lr, #-260]!	; 0xfffffefc
     900:	04020016 	streq	r0, [r2], #-22	; 0xffffffea
     904:	14054a01 	strne	r4, [r5], #-2561	; 0xfffff5ff
     908:	01040200 	mrseq	r0, R12_usr
     90c:	0d054b06 	vstreq	d4, [r5, #-24]	; 0xffffffe8
     910:	01040200 	mrseq	r0, R12_usr
     914:	02000106 	andeq	r0, r0, #-2147483647	; 0x80000001
     918:	064a0104 	strbeq	r0, [sl], -r4, lsl #2
     91c:	0612052f 	ldreq	r0, [r2], -pc, lsr #10
     920:	0d054a01 	vstreq	s8, [r5, #-4]
     924:	12052f06 	andne	r2, r5, #6, 30
     928:	19050106 	stmdbne	r5, {r1, r2, r8}
     92c:	04054b06 	streq	r4, [r5], #-2822	; 0xfffff4fa
     930:	02040200 	andeq	r0, r4, #0, 4
     934:	00011103 	andeq	r1, r1, r3, lsl #2
     938:	01020402 	tsteq	r2, r2, lsl #8
     93c:	02000205 	andeq	r0, r0, #1342177280	; 0x50000000
     940:	05150204 	ldreq	r0, [r5, #-516]	; 0xfffffdfc
     944:	04020009 	streq	r0, [r2], #-9
     948:	00010602 	andeq	r0, r1, r2, lsl #12
     94c:	4a020402 	bmi	8195c <__bss_end__+0x77d14>
     950:	02000105 	andeq	r0, r0, #1073741825	; 0x40000001
     954:	059f0204 	ldreq	r0, [pc, #516]	; b60 <__code_start__-0x74a0>
     958:	6e030604 	cfmadd32vs	mvax0, mvfx0, mvfx3, mvfx4
     95c:	0609054a 	streq	r0, [r9], -sl, asr #10
     960:	06040501 	streq	r0, [r4], -r1, lsl #10
     964:	0606052f 	streq	r0, [r6], -pc, lsr #10
     968:	2f040511 	svccs	0x00040511
     96c:	63030b05 	movwvs	r0, #15109	; 0x3b05
     970:	0019052e 	andseq	r0, r9, lr, lsr #10
     974:	06010402 	streq	r0, [r1], -r2, lsl #8
     978:	052e2403 	streq	r2, [lr, #-1027]!	; 0xfffffbfd
     97c:	0402001a 	streq	r0, [r2], #-26	; 0xffffffe6
     980:	28051301 	stmdacs	r5, {r0, r8, r9, ip}
     984:	01040200 	mrseq	r0, R12_usr
     988:	25050106 	strcs	r0, [r5, #-262]	; 0xfffffefa
     98c:	01040200 	mrseq	r0, R12_usr
     990:	001f052e 	andseq	r0, pc, lr, lsr #10
     994:	4a010402 	bmi	419a4 <__bss_end__+0x37d5c>
     998:	02000b05 	andeq	r0, r0, #5120	; 0x1400
     99c:	4b060104 	blmi	180db4 <__bss_end__+0x17716c>
     9a0:	02000405 	andeq	r0, r0, #83886080	; 0x5000000
     9a4:	01060104 	tsteq	r6, r4, lsl #2
     9a8:	01040200 	mrseq	r0, R12_usr
     9ac:	0402004a 	streq	r0, [r2], #-74	; 0xffffffb6
     9b0:	004e0601 	subeq	r0, lr, r1, lsl #12
     9b4:	01010402 	tsteq	r1, r2, lsl #8
     9b8:	01040200 	mrseq	r0, R12_usr
     9bc:	04020001 	streq	r0, [r2], #-1
     9c0:	02000101 	andeq	r0, r0, #1073741824	; 0x40000000
     9c4:	2e060104 	adfcss	f0, f6, f4
     9c8:	01040200 	mrseq	r0, R12_usr
     9cc:	04020066 	streq	r0, [r2], #-102	; 0xffffff9a
     9d0:	02002e01 	andeq	r2, r0, #1, 28
     9d4:	4a060104 	bmi	180dec <__bss_end__+0x1771a4>
     9d8:	a6034805 	strge	r4, [r3], -r5, lsl #16
     9dc:	0520087f 	streq	r0, [r0, #-2175]!	; 0xfffff781
     9e0:	06011305 	streq	r1, [r1], -r5, lsl #6
     9e4:	0402002e 	streq	r0, [r2], #-46	; 0xffffffd2
     9e8:	002e0602 	eoreq	r0, lr, r2, lsl #12
     9ec:	01020402 	tsteq	r2, r2, lsl #8
     9f0:	02040200 	andeq	r0, r4, #0, 4
     9f4:	00110513 	andseq	r0, r1, r3, lsl r5
     9f8:	06020402 	streq	r0, [r2], -r2, lsl #8
     9fc:	00050501 	andeq	r0, r5, r1, lsl #10
     a00:	06020402 	streq	r0, [r2], -r2, lsl #8
     a04:	0007054b 	andeq	r0, r7, fp, asr #10
     a08:	06020402 	streq	r0, [r2], -r2, lsl #8
     a0c:	06090501 	streq	r0, [r9], -r1, lsl #10
     a10:	060e054b 	streq	r0, [lr], -fp, asr #10
     a14:	00480501 	subeq	r0, r8, r1, lsl #10
     a18:	62010402 	andvs	r0, r1, #33554432	; 0x2000000
     a1c:	02000505 	andeq	r0, r0, #20971520	; 0x1400000
     a20:	4b060104 	blmi	180e38 <__bss_end__+0x1771f0>
     a24:	01040200 	mrseq	r0, R12_usr
     a28:	04020001 	streq	r0, [r2], #-1
     a2c:	009e0601 	addseq	r0, lr, r1, lsl #12
     a30:	2e010402 	cdpcs	4, 0, cr0, cr1, cr2, {0}
     a34:	01040200 	mrseq	r0, R12_usr
     a38:	40052e06 	andmi	r2, r5, r6, lsl #28
     a3c:	d600e103 	strle	lr, [r0], -r3, lsl #2
     a40:	02050106 	andeq	r0, r5, #-2147483647	; 0x80000001
     a44:	1e059f06 	cdpne	15, 0, cr9, cr5, cr6, {0}
     a48:	12050106 	andne	r0, r5, #-2147483647	; 0x80000001
     a4c:	0605052e 	streq	r0, [r5], -lr, lsr #10
     a50:	1402052f 	strne	r0, [r2], #-1327	; 0xfffffad1
     a54:	01060905 	tsteq	r6, r5, lsl #18
     a58:	4b060505 	blmi	181e74 <__bss_end__+0x17822c>
     a5c:	05130205 	ldreq	r0, [r3, #-517]	; 0xfffffdfb
     a60:	050d0608 	streq	r0, [sp, #-1544]	; 0xfffff9f8
     a64:	04053302 	streq	r3, [r5], #-770	; 0xfffffcfe
     a68:	0f054c06 	svceq	0x00054c06
     a6c:	09050106 	stmdbeq	r5, {r1, r2, r8}
     a70:	0608052e 	streq	r0, [r8], -lr, lsr #10
     a74:	0602052c 	streq	r0, [r2], -ip, lsr #10
     a78:	000d052e 	andeq	r0, sp, lr, lsr #10
     a7c:	4a010402 	bmi	41a8c <__bss_end__+0x37e44>
     a80:	4b060305 	blmi	18169c <__bss_end__+0x177a54>
     a84:	01060505 	tsteq	r6, r5, lsl #10
     a88:	4d060805 	stcmi	8, cr0, [r6, #-20]	; 0xffffffec
     a8c:	01060e05 	tsteq	r6, r5, lsl #28
     a90:	052e0a05 	streq	r0, [lr, #-2565]!	; 0xfffff5fb
     a94:	052f0604 	streq	r0, [pc, #-1540]!	; 498 <__code_start__-0x7b68>
     a98:	05010609 	streq	r0, [r1, #-1545]	; 0xfffff9f7
     a9c:	052f0604 	streq	r0, [pc, #-1540]!	; 4a0 <__code_start__-0x7b60>
     aa0:	2e010607 	cfmadd32cs	mvax0, mvfx0, mvfx1, mvfx7
     aa4:	30060405 	andcc	r0, r6, r5, lsl #8
     aa8:	01060705 	tsteq	r6, r5, lsl #14
     aac:	30060405 	andcc	r0, r6, r5, lsl #8
     ab0:	0d051413 	cfstrseq	mvf1, [r5, #-76]	; 0xffffffb4
     ab4:	09051006 	stmdbeq	r5, {r1, r2, ip}
     ab8:	12053006 	andne	r3, r5, #6, 0
     abc:	0a050106 	beq	140edc <__bss_end__+0x137294>
     ac0:	6609052e 	strvs	r0, [r9], -lr, lsr #10
     ac4:	4b060505 	blmi	181ee0 <__bss_end__+0x178298>
     ac8:	01061205 	tsteq	r6, r5, lsl #4
     acc:	052e1605 	streq	r1, [lr, #-1541]!	; 0xfffff9fb
     ad0:	05052e0b 	streq	r2, [r5, #-3595]	; 0xfffff1f5
     ad4:	08052f06 	stmdaeq	r5, {r1, r2, r8, r9, sl, fp, sp}
     ad8:	052e0106 	streq	r0, [lr, #-262]!	; 0xfffffefa
     adc:	01300604 	teqeq	r0, r4, lsl #12
     ae0:	0015014a 	andseq	r0, r5, sl, asr #2
     ae4:	02010402 	andeq	r0, r1, #33554432	; 0x2000000
     ae8:	02000f36 	andeq	r0, r0, #216	; 0xd8
     aec:	00010104 	andeq	r0, r1, r4, lsl #2
     af0:	d6010402 	strle	r0, [r1], -r2, lsl #8
     af4:	13341105 	teqne	r4, #1073741825	; 0x40000001
     af8:	04020001 	streq	r0, [r2], #-1
     afc:	00ba0602 	adcseq	r0, sl, r2, lsl #12
     b00:	06030402 	streq	r0, [r3], -r2, lsl #8
     b04:	040200ba 	streq	r0, [r2], #-186	; 0xffffff46
     b08:	02000103 	andeq	r0, r0, #-1073741824	; 0xc0000000
     b0c:	05140304 	ldreq	r0, [r4, #-772]	; 0xfffffcfc
     b10:	04020015 	streq	r0, [r2], #-21	; 0xffffffeb
     b14:	05010603 	streq	r0, [r1, #-1539]	; 0xfffff9fd
     b18:	04020011 	streq	r0, [r2], #-17	; 0xffffffef
     b1c:	052f0603 	streq	r0, [pc, #-1539]!	; 521 <__code_start__-0x7adf>
     b20:	0402001a 	streq	r0, [r2], #-26	; 0xffffffe6
     b24:	05010603 	streq	r0, [r1, #-1539]	; 0xfffff9fd
     b28:	04020011 	streq	r0, [r2], #-17	; 0xffffffef
     b2c:	00d70603 	sbcseq	r0, r7, r3, lsl #12
     b30:	13030402 	movwne	r0, #13314	; 0x3402
     b34:	03040200 	movweq	r0, #16896	; 0x4200
     b38:	04020014 	streq	r0, [r2], #-20	; 0xffffffec
     b3c:	02006703 	andeq	r6, r0, #786432	; 0xc0000
     b40:	05680304 	strbeq	r0, [r8, #-772]!	; 0xfffffcfc
     b44:	04020014 	streq	r0, [r2], #-20	; 0xffffffec
     b48:	05010603 	streq	r0, [r1, #-1539]	; 0xfffff9fd
     b4c:	04020013 	streq	r0, [r2], #-19	; 0xffffffed
     b50:	18058203 	stmdane	r5, {r0, r1, r9, pc}
     b54:	1b054e06 	blne	154374 <__bss_end__+0x14a72c>
     b58:	1a050106 	bne	140f78 <__bss_end__+0x137330>
     b5c:	06090582 	streq	r0, [r9], -r2, lsl #11
     b60:	060d054b 	streq	r0, [sp], -fp, asr #10
     b64:	09052e01 	stmdbeq	r5, {r0, r9, sl, fp, sp}
     b68:	ba06f306 	blt	1bd788 <__bss_end__+0x1b3b40>
     b6c:	30061505 	andcc	r1, r6, r5, lsl #10
     b70:	01061805 	tsteq	r6, r5, lsl #16
     b74:	05661705 	strbeq	r1, [r6, #-1797]!	; 0xfffff8fb
     b78:	054b0619 	strbeq	r0, [fp, #-1561]	; 0xfffff9e7
     b7c:	6f030615 	svcvs	0x00030615
     b80:	06110566 	ldreq	r0, [r1], -r6, ror #10
     b84:	05d60148 	ldrbeq	r0, [r6, #328]	; 0x148
     b88:	2e0b0309 	cdpcs	3, 0, cr0, cr11, cr9, {0}
     b8c:	01060d05 	tsteq	r6, r5, lsl #26
     b90:	0609052e 	streq	r0, [r9], -lr, lsr #10
     b94:	05ba06f3 	ldreq	r0, [sl, #1779]!	; 0x6f3
     b98:	062f0615 			; <UNDEFINED> instruction: 0x062f0615
     b9c:	05667503 	strbeq	r7, [r6, #-1283]!	; 0xfffffafd
     ba0:	13030619 	movwne	r0, #13849	; 0x3619
     ba4:	0615054a 	ldreq	r0, [r5], -sl, asr #10
     ba8:	06666d03 	strbteq	r6, [r6], -r3, lsl #26
     bac:	014a1503 	cmpeq	sl, r3, lsl #10
     bb0:	052e06ba 	streq	r0, [lr, #-1722]!	; 0xfffff946
     bb4:	011a0605 	tsteq	sl, r5, lsl #12
     bb8:	0e032e9e 	mcreq	14, 0, r2, cr3, cr14, {4}
     bbc:	06090501 	streq	r0, [r9], -r1, lsl #10
     bc0:	06050501 	streq	r0, [r5], -r1, lsl #10
     bc4:	04057508 	streq	r7, [r5], #-1288	; 0xfffffaf8
     bc8:	05011803 	streq	r1, [r1, #-2051]	; 0xfffff7fd
     bcc:	05010607 	streq	r0, [r1, #-1543]	; 0xfffff9f9
     bd0:	05310604 	ldreq	r0, [r1, #-1540]!	; 0xfffff9fc
     bd4:	2e670305 	cdpcs	3, 6, cr0, cr7, cr5, {0}
     bd8:	01061c05 	tsteq	r6, r5, lsl #24
     bdc:	05820905 	streq	r0, [r2, #2309]	; 0x905
     be0:	31f30605 	mvnscc	r0, r5, lsl #12
     be4:	01061c05 	tsteq	r6, r5, lsl #24
     be8:	05820905 	streq	r0, [r2, #2309]	; 0x905
     bec:	30f30605 	rscscc	r0, r3, r5, lsl #12
     bf0:	01061b05 	tsteq	r6, r5, lsl #22
     bf4:	05820905 	streq	r0, [r2, #2309]	; 0x905
     bf8:	30f30605 	rscscc	r0, r3, r5, lsl #12
     bfc:	01060705 	tsteq	r6, r5, lsl #14
     c00:	83060505 	movwhi	r0, #25861	; 0x6505
     c04:	06090530 			; <UNDEFINED> instruction: 0x06090530
     c08:	06050501 	streq	r0, [r5], -r1, lsl #10
     c0c:	11057508 	tstne	r5, r8, lsl #10
     c10:	06220530 			; <UNDEFINED> instruction: 0x06220530
     c14:	06050501 	streq	r0, [r5], -r1, lsl #10
     c18:	8311054b 	tsthi	r1, #314572800	; 0x12c00000
     c1c:	01830505 	orreq	r0, r3, r5, lsl #10
     c20:	0e05359e 	mcreq	5, 0, r3, cr5, cr14, {4}
     c24:	0a050106 	beq	141044 <__bss_end__+0x1373fc>
     c28:	052d062e 	streq	r0, [sp, #-1582]!	; 0xfffff9d2
     c2c:	05010604 	streq	r0, [r1, #-1540]	; 0xfffff9fc
     c30:	04020013 	streq	r0, [r2], #-19	; 0xffffffed
     c34:	10054a01 	andne	r4, r5, r1, lsl #20
     c38:	01040200 	mrseq	r0, R12_usr
     c3c:	0402002e 	streq	r0, [r2], #-46	; 0xffffffd2
     c40:	02056601 	andeq	r6, r5, #1048576	; 0x100000
     c44:	07051606 	streq	r1, [r5, -r6, lsl #12]
     c48:	02050106 	andeq	r0, r5, #-2147483647	; 0x80000001
     c4c:	01054b06 	tsteq	r5, r6, lsl #22
     c50:	02661306 	rsbeq	r1, r6, #402653184	; 0x18000000
     c54:	0101001e 	tsteq	r1, lr, lsl r0
     c58:	000000a5 	andeq	r0, r0, r5, lsr #1
     c5c:	008a0003 	addeq	r0, sl, r3
     c60:	01020000 	mrseq	r0, (UNDEF: 2)
     c64:	000d0efb 	strdeq	r0, [sp], -fp
     c68:	01010101 	tsteq	r1, r1, lsl #2
     c6c:	01000000 	mrseq	r0, (UNDEF: 0)
     c70:	2e010000 	cdpcs	0, 0, cr0, cr1, cr0, {0}
     c74:	6174732f 	cmnvs	r4, pc, lsr #6
     c78:	732d6666 			; <UNDEFINED> instruction: 0x732d6666
     c7c:	2f006372 	svccs	0x00006372
     c80:	72657355 	rsbvc	r7, r5, #1409286145	; 0x54000001
     c84:	72742f73 	rsbsvc	r2, r4, #460	; 0x1cc
     c88:	65747369 	ldrbvs	r7, [r4, #-873]!	; 0xfffffc97
     c8c:	6c6f6e6e 	stclvs	14, cr6, [pc], #-440	; adc <__code_start__-0x7524>
     c90:	6e616d6c 	cdpvs	13, 6, cr6, cr1, cr12, {3}
     c94:	636f442f 	cmnvs	pc, #788529152	; 0x2f000000
     c98:	6e656d75 	mcrvs	13, 3, r6, cr5, cr5, {3}
     c9c:	532f7374 			; <UNDEFINED> instruction: 0x532f7374
     ca0:	6e697270 	mcrvs	2, 3, r7, cr9, cr0, {3}
     ca4:	75515f67 	ldrbvc	r5, [r1, #-3943]	; 0xfffff099
     ca8:	65747261 	ldrbvs	r7, [r4, #-609]!	; 0xfffffd9f
     cac:	30325f72 	eorscc	r5, r2, r2, ror pc
     cb0:	432f3232 			; <UNDEFINED> instruction: 0x432f3232
     cb4:	30343253 	eorscc	r3, r4, r3, asr r2
     cb8:	732d584c 			; <UNDEFINED> instruction: 0x732d584c
     cbc:	32327270 	eorscc	r7, r2, #112, 4
     cc0:	62696c2f 	rsbvs	r6, r9, #12032	; 0x2f00
     cc4:	692f6970 	stmdbvs	pc!, {r4, r5, r6, r8, fp, sp, lr}	; <UNPREDICTABLE>
     cc8:	756c636e 	strbvc	r6, [ip, #-878]!	; 0xfffffc92
     ccc:	00006564 	andeq	r6, r0, r4, ror #10
     cd0:	61656c63 	cmnvs	r5, r3, ror #24
     cd4:	65722d6e 	ldrbvs	r2, [r2, #-3438]!	; 0xfffff292
     cd8:	746f6f62 	strbtvc	r6, [pc], #-3938	; ce0 <__code_start__-0x7320>
     cdc:	0100632e 	tsteq	r0, lr, lsr #6
     ce0:	70720000 	rsbsvc	r0, r2, r0
     ce4:	00682e69 	rsbeq	r2, r8, r9, ror #28
     ce8:	00000002 	andeq	r0, r0, r2
     cec:	05001905 	streq	r1, [r0, #-2309]	; 0xfffff6fb
     cf0:	008a7802 	addeq	r7, sl, r2, lsl #16
     cf4:	05051500 	streq	r1, [r5, #-1280]	; 0xfffffb00
     cf8:	4b2f832f 	blmi	be19bc <__bss_end__+0xbd7d74>
     cfc:	01000602 	tsteq	r0, r2, lsl #12
     d00:	0000bf01 	andeq	fp, r0, r1, lsl #30
     d04:	84000300 	strhi	r0, [r0], #-768	; 0xfffffd00
     d08:	02000000 	andeq	r0, r0, #0, 0
     d0c:	0d0efb01 	vstreq	d15, [lr, #-4]
     d10:	01010100 	mrseq	r0, (UNDEF: 17)
     d14:	00000001 	andeq	r0, r0, r1
     d18:	01000001 	tsteq	r0, r1
     d1c:	74732f2e 	ldrbtvc	r2, [r3], #-3886	; 0xfffff0d2
     d20:	2d666661 	stclcs	6, cr6, [r6, #-388]!	; 0xfffffe7c
     d24:	00637273 	rsbeq	r7, r3, r3, ror r2
     d28:	6573552f 	ldrbvs	r5, [r3, #-1327]!	; 0xfffffad1
     d2c:	742f7372 	strtvc	r7, [pc], #-882	; d34 <__code_start__-0x72cc>
     d30:	74736972 	ldrbtvc	r6, [r3], #-2418	; 0xfffff68e
     d34:	6f6e6e65 	svcvs	0x006e6e65
     d38:	616d6c6c 	cmnvs	sp, ip, ror #24
     d3c:	6f442f6e 	svcvs	0x00442f6e
     d40:	656d7563 	strbvs	r7, [sp, #-1379]!	; 0xfffffa9d
     d44:	2f73746e 	svccs	0x0073746e
     d48:	69727053 	ldmdbvs	r2!, {r0, r1, r4, r6, ip, sp, lr}^
     d4c:	515f676e 	cmppl	pc, lr, ror #14
     d50:	74726175 	ldrbtvc	r6, [r2], #-373	; 0xfffffe8b
     d54:	325f7265 	subscc	r7, pc, #1342177286	; 0x50000006
     d58:	2f323230 	svccs	0x00323230
     d5c:	34325343 	ldrtcc	r5, [r2], #-835	; 0xfffffcbd
     d60:	2d584c30 	ldclcs	12, cr4, [r8, #-192]	; 0xffffff40
     d64:	32727073 	rsbscc	r7, r2, #115, 0	; 0x73
     d68:	696c2f32 	stmdbvs	ip!, {r1, r4, r5, r8, r9, sl, fp, sp}^
     d6c:	2f697062 	svccs	0x00697062
     d70:	6c636e69 	stclvs	14, cr6, [r3], #-420	; 0xfffffe5c
     d74:	00656475 	rsbeq	r6, r5, r5, ror r4
     d78:	74736300 	ldrbtvc	r6, [r3], #-768	; 0xfffffd00
     d7c:	2e747261 	cdpcs	2, 7, cr7, cr4, cr1, {3}
     d80:	00010063 	andeq	r0, r1, r3, rrx
     d84:	69707200 	ldmdbvs	r0!, {r9, ip, sp, lr}^
     d88:	0200682e 	andeq	r6, r0, #3014656	; 0x2e0000
     d8c:	05000000 	streq	r0, [r0, #-0]
     d90:	02050010 	andeq	r0, r5, #16, 0
     d94:	00008aa4 	andeq	r8, r0, r4, lsr #21
     d98:	2f050515 	svccs	0x00050515
     d9c:	05130205 	ldreq	r0, [r3, #-517]	; 0xfffffdfb
     da0:	13301405 	teqne	r0, #83886080	; 0x5000000
     da4:	060a0514 			; <UNDEFINED> instruction: 0x060a0514
     da8:	0531060f 	ldreq	r0, [r1, #-1551]!	; 0xfffff9f1
     dac:	10054b09 	andne	r4, r5, r9, lsl #22
     db0:	054a0106 	strbeq	r0, [sl, #-262]	; 0xfffffefa
     db4:	32300605 	eorscc	r0, r0, #5242880	; 0x500000
     db8:	144a0101 	strbne	r0, [sl], #-257	; 0xfffffeff
     dbc:	022f0205 	eoreq	r0, pc, #1342177280	; 0x50000000
     dc0:	01010006 	tsteq	r1, r6
     dc4:	000000a3 	andeq	r0, r0, r3, lsr #1
     dc8:	008b0003 	addeq	r0, fp, r3
     dcc:	01020000 	mrseq	r0, (UNDEF: 2)
     dd0:	000d0efb 	strdeq	r0, [sp], -fp
     dd4:	01010101 	tsteq	r1, r1, lsl #2
     dd8:	01000000 	mrseq	r0, (UNDEF: 0)
     ddc:	2e010000 	cdpcs	0, 0, cr0, cr1, cr0, {0}
     de0:	6174732f 	cmnvs	r4, pc, lsr #6
     de4:	732d6666 			; <UNDEFINED> instruction: 0x732d6666
     de8:	2f006372 	svccs	0x00006372
     dec:	72657355 	rsbvc	r7, r5, #1409286145	; 0x54000001
     df0:	72742f73 	rsbsvc	r2, r4, #460	; 0x1cc
     df4:	65747369 	ldrbvs	r7, [r4, #-873]!	; 0xfffffc97
     df8:	6c6f6e6e 	stclvs	14, cr6, [pc], #-440	; c48 <__code_start__-0x73b8>
     dfc:	6e616d6c 	cdpvs	13, 6, cr6, cr1, cr12, {3}
     e00:	636f442f 	cmnvs	pc, #788529152	; 0x2f000000
     e04:	6e656d75 	mcrvs	13, 3, r6, cr5, cr5, {3}
     e08:	532f7374 			; <UNDEFINED> instruction: 0x532f7374
     e0c:	6e697270 	mcrvs	2, 3, r7, cr9, cr0, {3}
     e10:	75515f67 	ldrbvc	r5, [r1, #-3943]	; 0xfffff099
     e14:	65747261 	ldrbvs	r7, [r4, #-609]!	; 0xfffffd9f
     e18:	30325f72 	eorscc	r5, r2, r2, ror pc
     e1c:	432f3232 			; <UNDEFINED> instruction: 0x432f3232
     e20:	30343253 	eorscc	r3, r4, r3, asr r2
     e24:	732d584c 			; <UNDEFINED> instruction: 0x732d584c
     e28:	32327270 	eorscc	r7, r2, #112, 4
     e2c:	62696c2f 	rsbvs	r6, r9, #12032	; 0x2f00
     e30:	692f6970 	stmdbvs	pc!, {r4, r5, r6, r8, fp, sp, lr}	; <UNPREDICTABLE>
     e34:	756c636e 	strbvc	r6, [ip, #-878]!	; 0xfffffc92
     e38:	00006564 	andeq	r6, r0, r4, ror #10
     e3c:	74737563 	ldrbtvc	r7, [r3], #-1379	; 0xfffffa9d
     e40:	6c2d6d6f 	stcvs	13, cr6, [sp], #-444	; 0xfffffe44
     e44:	6564616f 	strbvs	r6, [r4, #-367]!	; 0xfffffe91
     e48:	00632e72 	rsbeq	r2, r3, r2, ror lr
     e4c:	72000001 	andvc	r0, r0, #1, 0
     e50:	682e6970 	stmdavs	lr!, {r4, r5, r6, r8, fp, sp, lr}
     e54:	00000200 	andeq	r0, r0, r0, lsl #4
     e58:	001a0500 	andseq	r0, sl, r0, lsl #10
     e5c:	8ae00205 	bhi	ff801678 <__bss_end__+0xff7f7a30>
     e60:	05150000 	ldreq	r0, [r5, #-0]
     e64:	02021401 	andeq	r1, r2, #16777216	; 0x1000000
     e68:	f3010100 	vrhadd.u8	d0, d1, d0
     e6c:	03000000 	movweq	r0, #0
     e70:	00008400 	andeq	r8, r0, r0, lsl #8
     e74:	fb010200 	blx	4167e <__bss_end__+0x37a36>
     e78:	01000d0e 	tsteq	r0, lr, lsl #26
     e7c:	00010101 	andeq	r0, r1, r1, lsl #2
     e80:	00010000 	andeq	r0, r1, r0
     e84:	2f2e0100 	svccs	0x002e0100
     e88:	66617473 			; <UNDEFINED> instruction: 0x66617473
     e8c:	72732d66 	rsbsvc	r2, r3, #6528	; 0x1980
     e90:	552f0063 	strpl	r0, [pc, #-99]!	; e35 <__code_start__-0x71cb>
     e94:	73726573 	cmnvc	r2, #482344960	; 0x1cc00000
     e98:	6972742f 	ldmdbvs	r2!, {r0, r1, r2, r3, r5, sl, ip, sp, lr}^
     e9c:	6e657473 	mcrvs	4, 3, r7, cr5, cr3, {3}
     ea0:	6c6c6f6e 	stclvs	15, cr6, [ip], #-440	; 0xfffffe48
     ea4:	2f6e616d 	svccs	0x006e616d
     ea8:	75636f44 	strbvc	r6, [r3, #-3908]!	; 0xfffff0bc
     eac:	746e656d 	strbtvc	r6, [lr], #-1389	; 0xfffffa93
     eb0:	70532f73 	subsvc	r2, r3, r3, ror pc
     eb4:	676e6972 			; <UNDEFINED> instruction: 0x676e6972
     eb8:	6175515f 	cmnvs	r5, pc, asr r1
     ebc:	72657472 	rsbvc	r7, r5, #1912602624	; 0x72000000
     ec0:	3230325f 	eorscc	r3, r0, #-268435451	; 0xf0000005
     ec4:	53432f32 	movtpl	r2, #16178	; 0x3f32
     ec8:	4c303432 	cfldrsmi	mvf3, [r0], #-200	; 0xffffff38
     ecc:	70732d58 	rsbsvc	r2, r3, r8, asr sp
     ed0:	2f323272 	svccs	0x00323272
     ed4:	7062696c 	rsbvc	r6, r2, ip, ror #18
     ed8:	6e692f69 	cdpvs	15, 6, cr2, cr9, cr9, {3}
     edc:	64756c63 	ldrbtvs	r6, [r5], #-3171	; 0xfffff39d
     ee0:	72000065 	andvc	r0, r0, #101, 0	; 0x65
     ee4:	6f6f6265 	svcvs	0x006f6265
     ee8:	00632e74 	rsbeq	r2, r3, r4, ror lr
     eec:	72000001 	andvc	r0, r0, #1, 0
     ef0:	682e6970 	stmdavs	lr!, {r4, r5, r6, r8, fp, sp, lr}
     ef4:	00000200 	andeq	r0, r0, r0, lsl #4
     ef8:	00190500 	andseq	r0, r9, r0, lsl #10
     efc:	8ae40205 	bhi	ff901718 <__bss_end__+0xff8f7ad0>
     f00:	0d030000 	stceq	0, cr0, [r3, #-0]
     f04:	13050501 	movwne	r0, #21761	; 0x5501
     f08:	13053113 	movwne	r3, #20755	; 0x5113
     f0c:	01050106 	tsteq	r5, r6, lsl #2
     f10:	061b052f 	ldreq	r0, [fp], -pc, lsr #10
     f14:	13050585 	movwne	r0, #21893	; 0x5585
     f18:	2f090514 	svccs	0x00090514
     f1c:	01061605 	tsteq	r6, r5, lsl #12
     f20:	052e0e05 	streq	r0, [lr, #-3589]!	; 0xfffff1fb
     f24:	052f0605 	streq	r0, [pc, #-1541]!	; 927 <__code_start__-0x76d9>
     f28:	052f0601 	streq	r0, [pc, #-1537]!	; 92f <__code_start__-0x76d1>
     f2c:	05300617 	ldreq	r0, [r0, #-1559]!	; 0xfffff9e9
     f30:	08052f05 	stmdaeq	r5, {r0, r2, r8, r9, sl, fp, sp}
     f34:	07050106 	streq	r0, [r5, -r6, lsl #2]
     f38:	0605052e 	streq	r0, [r5], -lr, lsr #10
     f3c:	4d2f3050 	stcmi	0, cr3, [pc, #-320]!	; e04 <__code_start__-0x71fc>
     f40:	15131313 	ldrne	r1, [r3, #-787]	; 0xfffffced
     f44:	04020067 	streq	r0, [r2], #-103	; 0xffffff99
     f48:	0d056701 	stceq	7, cr6, [r5, #-4]
     f4c:	01040200 	mrseq	r0, R12_usr
     f50:	000a0501 	andeq	r0, sl, r1, lsl #10
     f54:	01010402 	tsteq	r1, r2, lsl #8
     f58:	6d030905 	vstrvs.16	s0, [r3, #-10]	; <UNPREDICTABLE>
     f5c:	000c022e 	andeq	r0, ip, lr, lsr #4
     f60:	00fa0101 	rscseq	r0, sl, r1, lsl #2
     f64:	00030000 	andeq	r0, r3, r0
     f68:	00000083 	andeq	r0, r0, r3, lsl #1
     f6c:	0efb0102 	cdpeq	1, 15, cr0, cr11, cr2, {0}
     f70:	0101000d 	tsteq	r1, sp
     f74:	00000101 	andeq	r0, r0, r1, lsl #2
     f78:	00000100 	andeq	r0, r0, r0, lsl #2
     f7c:	732f2e01 			; <UNDEFINED> instruction: 0x732f2e01
     f80:	66666174 			; <UNDEFINED> instruction: 0x66666174
     f84:	6372732d 	cmnvs	r2, #-1275068416	; 0xb4000000
     f88:	73552f00 	cmpvc	r5, #0, 30
     f8c:	2f737265 	svccs	0x00737265
     f90:	73697274 	cmnvc	r9, #116, 4	; 0x40000007
     f94:	6e6e6574 	mcrvs	5, 3, r6, cr14, cr4, {3}
     f98:	6d6c6c6f 	stclvs	12, cr6, [ip, #-444]!	; 0xfffffe44
     f9c:	442f6e61 	strtmi	r6, [pc], #-3681	; fa4 <__code_start__-0x705c>
     fa0:	6d75636f 	ldclvs	3, cr6, [r5, #-444]!	; 0xfffffe44
     fa4:	73746e65 	cmnvc	r4, #1616	; 0x650
     fa8:	7270532f 	rsbsvc	r5, r0, #-1140850688	; 0xbc000000
     fac:	5f676e69 	svcpl	0x00676e69
     fb0:	72617551 	rsbvc	r7, r1, #339738624	; 0x14400000
     fb4:	5f726574 	svcpl	0x00726574
     fb8:	32323032 	eorscc	r3, r2, #50, 0	; 0x32
     fbc:	3253432f 	subscc	r4, r3, #-1140850688	; 0xbc000000
     fc0:	584c3034 	stmdapl	ip, {r2, r4, r5, ip, sp}^
     fc4:	7270732d 	rsbsvc	r7, r0, #-1275068416	; 0xb4000000
     fc8:	6c2f3232 	sfmvs	f3, 4, [pc], #-200	; f08 <__code_start__-0x70f8>
     fcc:	69706269 	ldmdbvs	r0!, {r0, r3, r5, r6, r9, sp, lr}^
     fd0:	636e692f 	cmnvs	lr, #770048	; 0xbc000
     fd4:	6564756c 	strbvs	r7, [r4, #-1388]!	; 0xfffffa94
     fd8:	69740000 	ldmdbvs	r4!, {}^	; <UNPREDICTABLE>
     fdc:	2e72656d 	cdpcs	5, 7, cr6, cr2, cr13, {3}
     fe0:	00010063 	andeq	r0, r1, r3, rrx
     fe4:	69707200 	ldmdbvs	r0!, {r9, ip, sp, lr}^
     fe8:	0200682e 	andeq	r6, r0, #3014656	; 0x2e0000
     fec:	05000000 	streq	r0, [r0, #-0]
     ff0:	02050023 	andeq	r0, r5, #35, 0	; 0x23
     ff4:	00008b64 	andeq	r8, r0, r4, ror #22
     ff8:	2f050515 	svccs	0x00050515
     ffc:	01060c05 	tsteq	r6, r5, lsl #24
    1000:	054b0105 	strbeq	r0, [fp, #-261]	; 0xfffffefb
    1004:	054d061f 	strbeq	r0, [sp, #-1567]	; 0xfffff9e1
    1008:	052f3105 	streq	r3, [pc, #-261]!	; f0b <__code_start__-0x70f5>
    100c:	05010612 	streq	r0, [r1, #-1554]	; 0xfffff9ee
    1010:	2f4b0605 	svccs	0x004b0605
    1014:	13060105 	movwne	r0, #24837	; 0x6105
    1018:	4c061c05 	stcmi	12, cr1, [r6], {5}
    101c:	05050106 	streq	r0, [r5, #-262]	; 0xfffffefa
    1020:	13054b06 	movwne	r4, #23302	; 0x5b06
    1024:	052e0106 	streq	r0, [lr, #-262]!	; 0xfffffefa
    1028:	052f0605 	streq	r0, [pc, #-1541]!	; a2b <__code_start__-0x75d5>
    102c:	17051309 	strne	r1, [r5, -r9, lsl #6]
    1030:	09050106 	stmdbeq	r5, {r1, r2, r8}
    1034:	11052f06 	tstne	r5, r6, lsl #30
    1038:	0c050106 	stfeqs	f0, [r5], {6}
    103c:	061c052e 	ldreq	r0, [ip], -lr, lsr #10
    1040:	0501066b 	streq	r0, [r1, #-1643]	; 0xfffff995
    1044:	062f0605 	strteq	r0, [pc], -r5, lsl #12
    1048:	4b01054a 	blmi	42578 <__bss_end__+0x38930>
    104c:	2f061e05 	svccs	0x00061e05
    1050:	05050106 	streq	r0, [r5, #-262]	; 0xfffffefa
    1054:	4a062f06 	bmi	18cc74 <__bss_end__+0x18302c>
    1058:	024b0105 	subeq	r0, fp, #1073741825	; 0x40000001
    105c:	01010002 	tsteq	r1, r2
    1060:	00000205 	andeq	r0, r0, r5, lsl #4
    1064:	00c90003 	sbceq	r0, r9, r3
    1068:	01020000 	mrseq	r0, (UNDEF: 2)
    106c:	000d0efb 	strdeq	r0, [sp], -fp
    1070:	01010101 	tsteq	r1, r1, lsl #2
    1074:	01000000 	mrseq	r0, (UNDEF: 0)
    1078:	2f010000 	svccs	0x00010000
    107c:	656d6f68 	strbvs	r6, [sp, #-3944]!	; 0xfffff098
    1080:	676e652f 	strbvs	r6, [lr, -pc, lsr #10]!
    1084:	2f72656c 	svccs	0x0072656c
    1088:	73616c63 	cmnvc	r1, #25344	; 0x6300
    108c:	73632f73 	cmnvc	r3, #460	; 0x1cc
    1090:	6c303432 	cfldrsvs	mvf3, [r0], #-200	; 0xffffff38
    1094:	32322d78 	eorscc	r2, r2, #120, 26	; 0x1e00
    1098:	2f727073 	svccs	0x00727073
    109c:	62696c2f 	rsbvs	r6, r9, #12032	; 0x2f00
    10a0:	692f6970 	stmdbvs	pc!, {r4, r5, r6, r8, fp, sp, lr}	; <UNPREDICTABLE>
    10a4:	756c636e 	strbvc	r6, [ip, #-878]!	; 0xfffffc92
    10a8:	2f006564 	svccs	0x00006564
    10ac:	2f727375 	svccs	0x00727375
    10b0:	72616873 	rsbvc	r6, r1, #7536640	; 0x730000
    10b4:	63672f65 	cmnvs	r7, #404	; 0x194
    10b8:	72612d63 	rsbvc	r2, r1, #6336	; 0x18c0
    10bc:	6f6e2d6d 	svcvs	0x006e2d6d
    10c0:	652d656e 	strvs	r6, [sp, #-1390]!	; 0xfffffa92
    10c4:	2d696261 	sfmcs	f6, 2, [r9, #-388]!	; 0xfffffe7c
    10c8:	332e3031 			; <UNDEFINED> instruction: 0x332e3031
    10cc:	3230322d 	eorscc	r3, r0, #-805306366	; 0xd0000002
    10d0:	30312e31 	eorscc	r2, r1, r1, lsr lr
    10d4:	62696c2f 	rsbvs	r6, r9, #12032	; 0x2f00
    10d8:	6363672f 	cmnvs	r3, #12320768	; 0xbc0000
    10dc:	6d72612f 	ldfvse	f6, [r2, #-188]!	; 0xffffff44
    10e0:	6e6f6e2d 	cdpvs	14, 6, cr6, cr15, cr13, {1}
    10e4:	61652d65 	cmnvs	r5, r5, ror #26
    10e8:	312f6962 			; <UNDEFINED> instruction: 0x312f6962
    10ec:	2e332e30 	mrccs	14, 1, r2, cr3, cr0, {1}
    10f0:	6e692f31 	mcrvs	15, 3, r2, cr9, cr1, {1}
    10f4:	64756c63 	ldrbtvs	r6, [r5], #-3171	; 0xfffff39d
    10f8:	75000065 	strvc	r0, [r0, #-101]	; 0xffffff9b
    10fc:	2e747261 	cdpcs	2, 7, cr7, cr4, cr1, {3}
    1100:	00000063 	andeq	r0, r0, r3, rrx
    1104:	72617500 	rsbvc	r7, r1, #0, 10
    1108:	00682e74 	rsbeq	r2, r8, r4, ror lr
    110c:	72000001 	andvc	r0, r0, #1, 0
    1110:	682e6970 	stmdavs	lr!, {r4, r5, r6, r8, fp, sp, lr}
    1114:	00000100 	andeq	r0, r0, r0, lsl #2
    1118:	6f697067 	svcvs	0x00697067
    111c:	0100682e 	tsteq	r0, lr, lsr #16
    1120:	74730000 	ldrbtvc	r0, [r3], #-0
    1124:	746e6964 	strbtvc	r6, [lr], #-2404	; 0xfffff69c
    1128:	6363672d 	cmnvs	r3, #11796480	; 0xb40000
    112c:	0200682e 	andeq	r6, r0, #3014656	; 0x2e0000
    1130:	05000000 	streq	r0, [r0, #-0]
    1134:	02050039 	andeq	r0, r5, #57, 0	; 0x39
    1138:	00008be8 	andeq	r8, r0, r8, ror #23
    113c:	06013003 	streq	r3, [r1], -r3
    1140:	06050501 	streq	r0, [r5], -r1, lsl #10
    1144:	06110567 	ldreq	r0, [r1], -r7, ror #10
    1148:	2e050501 	cfsh32cs	mvfx0, mvfx5, #1
    114c:	05670105 	strbeq	r0, [r7, #-261]!	; 0xfffffefb
    1150:	06290638 			; <UNDEFINED> instruction: 0x06290638
    1154:	06050501 	streq	r0, [r5], -r1, lsl #10
    1158:	06110567 	ldreq	r0, [r1], -r7, ror #10
    115c:	2e050501 	cfsh32cs	mvfx0, mvfx5, #1
    1160:	05670105 	strbeq	r0, [r7, #-261]!	; 0xfffffefb
    1164:	15030616 	strne	r0, [r3, #-1558]	; 0xfffff9ea
    1168:	3505052e 	strcc	r0, [r5, #-1326]	; 0xfffffad2
    116c:	68356867 	ldmdavs	r5!, {r0, r1, r2, r5, r6, fp, sp, lr}
    1170:	852e0c03 	strhi	r0, [lr, #-3075]!	; 0xfffff3fd
    1174:	0369696b 	cmneq	r9, #1753088	; 0x1ac000
    1178:	6b13660c 	blvs	4da9b0 <__bss_end__+0x4d0d68>
    117c:	06010567 	streq	r0, [r1], -r7, ror #10
    1180:	0619052f 	ldreq	r0, [r9], -pc, lsr #10
    1184:	05052508 	streq	r2, [r5, #-1288]	; 0xfffffaf8
    1188:	060d0534 			; <UNDEFINED> instruction: 0x060d0534
    118c:	4c010501 	cfstr32mi	mvfx0, [r1], {1}
    1190:	67061905 	strvs	r1, [r6, -r5, lsl #18]
    1194:	05360505 	ldreq	r0, [r6, #-1285]!	; 0xfffffafb
    1198:	0501060d 	streq	r0, [r1, #-1549]	; 0xfffff9f3
    119c:	01054a28 	tsteq	r5, r8, lsr #20
    11a0:	06150530 			; <UNDEFINED> instruction: 0x06150530
    11a4:	2f050587 	svccs	0x00050587
    11a8:	0009052f 	andeq	r0, r9, pc, lsr #10
    11ac:	13010402 	movwne	r0, #5122	; 0x1402
    11b0:	02000a05 	andeq	r0, r0, #20480	; 0x5000
    11b4:	05110104 	ldreq	r0, [r1, #-260]	; 0xfffffefc
    11b8:	0402000c 	streq	r0, [r2], #-12
    11bc:	05010601 	streq	r0, [r1, #-1537]	; 0xfffff9ff
    11c0:	0402000a 	streq	r0, [r2], #-10
    11c4:	05052e01 	streq	r2, [r5, #-3585]	; 0xfffff1ff
    11c8:	0e054c06 	cdpeq	12, 0, cr4, cr5, cr6, {0}
    11cc:	09050106 	stmdbeq	r5, {r1, r2, r8}
    11d0:	0605054a 	streq	r0, [r5], -sl, asr #10
    11d4:	01052f2f 	tsteq	r5, pc, lsr #30
    11d8:	1c051306 	stcne	3, cr1, [r5], {6}
    11dc:	01066706 	tsteq	r6, r6, lsl #14
    11e0:	4b060505 	blmi	1825fc <__bss_end__+0x1789b4>
    11e4:	0009052f 	andeq	r0, r9, pc, lsr #10
    11e8:	13010402 	movwne	r0, #5122	; 0x1402
    11ec:	02000a05 	andeq	r0, r0, #20480	; 0x5000
    11f0:	05110104 	ldreq	r0, [r1, #-260]	; 0xfffffefc
    11f4:	0402000c 	streq	r0, [r2], #-12
    11f8:	05010601 	streq	r0, [r1, #-1537]	; 0xfffff9ff
    11fc:	0402000a 	streq	r0, [r2], #-10
    1200:	05052e01 	streq	r2, [r5, #-3585]	; 0xfffff1ff
    1204:	05674c06 	strbeq	r4, [r7, #-3078]!	; 0xfffff3fa
    1208:	052f0601 	streq	r0, [pc, #-1537]!	; c0f <__code_start__-0x73f1>
    120c:	054c0619 	strbeq	r0, [ip, #-1561]	; 0xfffff9e7
    1210:	2a052e1b 	bcs	14ca84 <__bss_end__+0x142e3c>
    1214:	0631052e 	ldrteq	r0, [r1], -lr, lsr #10
    1218:	2e420501 	cdpcs	5, 4, cr0, cr2, cr1, {0}
    121c:	31061c05 	tstcc	r6, r5, lsl #24
    1220:	032f0505 			; <UNDEFINED> instruction: 0x032f0505
    1224:	0e052e09 	cdpeq	14, 0, cr2, cr5, cr9, {0}
    1228:	21050106 	tstcs	r5, r6, lsl #2
    122c:	0301054a 	movweq	r0, #5450	; 0x154a
    1230:	1a052e0a 	bne	14ca60 <__bss_end__+0x142e18>
    1234:	09056806 	stmdbeq	r5, {r1, r2, fp, sp, lr}
    1238:	01040200 	mrseq	r0, R12_usr
    123c:	000a0530 	andeq	r0, sl, r0, lsr r5
    1240:	11010402 	tstne	r1, r2, lsl #8
    1244:	02000c05 	andeq	r0, r0, #1280	; 0x500
    1248:	01060104 	tsteq	r6, r4, lsl #2
    124c:	02000a05 	andeq	r0, r0, #20480	; 0x5000
    1250:	052e0104 	streq	r0, [lr, #-260]!	; 0xfffffefc
    1254:	e8030619 	stmda	r3, {r0, r3, r4, r9, sl}
    1258:	0505667e 	streq	r6, [r5, #-1662]	; 0xfffff982
    125c:	672f2f2f 	strvs	r2, [pc, -pc, lsr #30]!
    1260:	2f060105 	svccs	0x00060105
    1264:	01000402 	tsteq	r0, r2, lsl #8
    1268:	00039301 	andeq	r9, r3, r1, lsl #6
    126c:	b8000300 	stmdalt	r0, {r8, r9}
    1270:	02000000 	andeq	r0, r0, #0, 0
    1274:	0d0efb01 	vstreq	d15, [lr, #-4]
    1278:	01010100 	mrseq	r0, (UNDEF: 17)
    127c:	00000001 	andeq	r0, r0, r1
    1280:	01000001 	tsteq	r0, r1
    1284:	6d6f682f 	stclvs	8, cr6, [pc, #-188]!	; 11d0 <__code_start__-0x6e30>
    1288:	6e652f65 	cdpvs	15, 6, cr2, cr5, cr5, {3}
    128c:	72656c67 	rsbvc	r6, r5, #26368	; 0x6700
    1290:	616c632f 	cmnvs	ip, pc, lsr #6
    1294:	632f7373 			; <UNDEFINED> instruction: 0x632f7373
    1298:	30343273 	eorscc	r3, r4, r3, ror r2
    129c:	322d786c 	eorcc	r7, sp, #108, 16	; 0x6c0000
    12a0:	72707332 	rsbsvc	r7, r0, #-939524096	; 0xc8000000
    12a4:	696c2f2f 	stmdbvs	ip!, {r0, r1, r2, r3, r5, r8, r9, sl, fp, sp}^
    12a8:	2f697062 	svccs	0x00697062
    12ac:	6c636e69 	stclvs	14, cr6, [r3], #-420	; 0xfffffe5c
    12b0:	00656475 	rsbeq	r6, r5, r5, ror r4
    12b4:	7273752f 	rsbsvc	r7, r3, #197132288	; 0xbc00000
    12b8:	6168732f 	cmnvs	r8, pc, lsr #6
    12bc:	672f6572 			; <UNDEFINED> instruction: 0x672f6572
    12c0:	612d6363 			; <UNDEFINED> instruction: 0x612d6363
    12c4:	6e2d6d72 	mcrvs	13, 1, r6, cr13, cr2, {3}
    12c8:	2d656e6f 	stclcs	14, cr6, [r5, #-444]!	; 0xfffffe44
    12cc:	69626165 	stmdbvs	r2!, {r0, r2, r5, r6, r8, sp, lr}^
    12d0:	2e30312d 	rsfcssp	f3, f0, #5.0
    12d4:	30322d33 	eorscc	r2, r2, r3, lsr sp
    12d8:	312e3132 			; <UNDEFINED> instruction: 0x312e3132
    12dc:	696c2f30 	stmdbvs	ip!, {r4, r5, r8, r9, sl, fp, sp}^
    12e0:	63672f62 	cmnvs	r7, #392	; 0x188
    12e4:	72612f63 	rsbvc	r2, r1, #396	; 0x18c
    12e8:	6f6e2d6d 	svcvs	0x006e2d6d
    12ec:	652d656e 	strvs	r6, [sp, #-1390]!	; 0xfffffa92
    12f0:	2f696261 	svccs	0x00696261
    12f4:	332e3031 			; <UNDEFINED> instruction: 0x332e3031
    12f8:	692f312e 	stmdbvs	pc!, {r1, r2, r3, r5, r8, ip, sp}	; <UNPREDICTABLE>
    12fc:	756c636e 	strbvc	r6, [ip, #-878]!	; 0xfffffc92
    1300:	00006564 	andeq	r6, r0, r4, ror #10
    1304:	6c616d6b 	stclvs	13, cr6, [r1], #-428	; 0xfffffe54
    1308:	2e636f6c 	cdpcs	15, 6, cr6, cr3, cr12, {3}
    130c:	00000063 	andeq	r0, r0, r3, rrx
    1310:	69707200 	ldmdbvs	r0!, {r9, ip, sp, lr}^
    1314:	0100682e 	tsteq	r0, lr, lsr #16
    1318:	74730000 	ldrbtvc	r0, [r3], #-0
    131c:	746e6964 	strbtvc	r6, [lr], #-2404	; 0xfffff69c
    1320:	6363672d 	cmnvs	r3, #11796480	; 0xb40000
    1324:	0200682e 	andeq	r6, r0, #3014656	; 0x2e0000
    1328:	05000000 	streq	r0, [r0, #-0]
    132c:	0205001e 	andeq	r0, r5, #30, 0
    1330:	00008dd8 	ldrdeq	r8, [r0], -r8	; <UNPREDICTABLE>
    1334:	05012703 	streq	r2, [r1, #-1795]	; 0xfffff8fd
    1338:	31050120 	tstcc	r5, r0, lsr #2
    133c:	20050106 	andcs	r0, r5, r6, lsl #2
    1340:	22058306 	andcs	r8, r5, #402653184	; 0x18000000
    1344:	06350501 	ldrteq	r0, [r5], -r1, lsl #10
    1348:	061e0501 	ldreq	r0, [lr], -r1, lsl #10
    134c:	01200583 	smlawbeq	r0, r3, r5, r0
    1350:	01062d05 	tsteq	r6, r5, lsl #26
    1354:	85064205 	strhi	r4, [r6, #-517]	; 0xfffffdfb
    1358:	05050106 	streq	r0, [r5, #-262]	; 0xfffffefa
    135c:	01144b06 	tsteq	r4, r6, lsl #22
    1360:	02002e06 	andeq	r2, r0, #96	; 0x60
    1364:	2e060204 	cdpcs	2, 0, cr0, cr6, cr4, {0}
    1368:	02040200 	andeq	r0, r4, #0, 4
    136c:	04020001 	streq	r0, [r2], #-1
    1370:	0d051502 	cfstr32eq	mvfx1, [r5, #-8]
    1374:	02040200 	andeq	r0, r4, #0, 4
    1378:	07050106 	streq	r0, [r5, -r6, lsl #2]
    137c:	02040200 	andeq	r0, r4, #0, 4
    1380:	0609054a 	streq	r0, [r9], -sl, asr #10
    1384:	1505054b 	strne	r0, [r5, #-1355]	; 0xfffffab5
    1388:	01061705 	tsteq	r6, r5, lsl #14
    138c:	054a1005 	strbeq	r1, [sl, #-5]
    1390:	052f0605 	streq	r0, [pc, #-1541]!	; d93 <__code_start__-0x726d>
    1394:	0501061b 	streq	r0, [r1, #-1563]	; 0xfffff9e5
    1398:	01052e0e 	tsteq	r5, lr, lsl #28
    139c:	0005052f 	andeq	r0, r5, pc, lsr #10
    13a0:	06010402 	streq	r0, [r1], -r2, lsl #8
    13a4:	004a7703 	subeq	r7, sl, r3, lsl #14
    13a8:	01010402 	tsteq	r1, r2, lsl #8
    13ac:	01040200 	mrseq	r0, R12_usr
    13b0:	02009e06 	andeq	r9, r0, #96	; 0x60
    13b4:	002e0104 	eoreq	r0, lr, r4, lsl #2
    13b8:	06010402 	streq	r0, [r1], -r2, lsl #8
    13bc:	3209052e 	andcc	r0, r9, #192937984	; 0xb800000
    13c0:	2ed60601 	cdpcs	6, 13, cr0, cr6, cr1, {0}
    13c4:	19052e06 	stmdbne	r5, {r1, r2, r9, sl, fp, sp}
    13c8:	2f0505de 	svccs	0x000505de
    13cc:	06080514 			; <UNDEFINED> instruction: 0x06080514
    13d0:	4a070501 	bmi	1c27dc <__bss_end__+0x1b8b94>
    13d4:	4b060905 	blmi	1837f0 <__bss_end__+0x179ba8>
    13d8:	05130505 	ldreq	r0, [r3, #-1285]	; 0xfffffafb
    13dc:	0501060c 	streq	r0, [r1, #-1548]	; 0xfffff9f4
    13e0:	13670605 	cmnne	r7, #5242880	; 0x500000
    13e4:	67060105 	strvs	r0, [r6, -r5, lsl #2]
    13e8:	2a060905 	bcs	183804 <__bss_end__+0x179bbc>
    13ec:	28059e01 	stmdacs	r5, {r0, r9, sl, fp, ip, pc}
    13f0:	050106a5 	streq	r0, [r1, #-1701]	; 0xfffff95b
    13f4:	014b0605 	cmpeq	fp, r5, lsl #12
    13f8:	2e062e06 	cdpcs	14, 0, cr2, cr6, cr6, {0}
    13fc:	18051301 	stmdane	r5, {r0, r8, r9, ip}
    1400:	05014703 	streq	r4, [r1, #-1795]	; 0xfffff8fd
    1404:	06011305 	streq	r1, [r1], -r5, lsl #6
    1408:	150f0601 	strne	r0, [pc, #-1537]	; e0f <__code_start__-0x71f1>
    140c:	0e051301 	cdpeq	3, 0, cr1, cr5, cr1, {0}
    1410:	16050106 	strne	r0, [r5], -r6, lsl #2
    1414:	05052e2e 	streq	r2, [r5, #-3630]	; 0xfffff1d2
    1418:	01390306 	teqeq	r9, r6, lsl #6
    141c:	01060b05 	tsteq	r6, r5, lsl #22
    1420:	4b060505 	blmi	18283c <__bss_end__+0x178bf4>
    1424:	01060a05 	tsteq	r6, r5, lsl #20
    1428:	4b060505 	blmi	182844 <__bss_end__+0x178bfc>
    142c:	01060d05 	tsteq	r6, r5, lsl #26
    1430:	052e0705 	streq	r0, [lr, #-1797]!	; 0xfffff8fb
    1434:	05054d01 	streq	r4, [r5, #-3329]	; 0xfffff2ff
    1438:	01040200 	mrseq	r0, R12_usr
    143c:	4a780306 	bmi	1e0205c <__bss_end__+0x1df8414>
    1440:	01040200 	mrseq	r0, R12_usr
    1444:	04020001 	streq	r0, [r2], #-1
    1448:	00ba0601 	adcseq	r0, sl, r1, lsl #12
    144c:	06010402 	streq	r0, [r1], -r2, lsl #8
    1450:	3409052e 	strcc	r0, [r9], #-1326	; 0xfffffad2
    1454:	66820601 	strvs	r0, [r2], r1, lsl #12
    1458:	20052e06 	andcs	r2, r5, r6, lsl #28
    145c:	050106db 	streq	r0, [r1, #-1755]	; 0xfffff925
    1460:	014b0605 	cmpeq	fp, r5, lsl #12
    1464:	02040200 	andeq	r0, r4, #0, 4
    1468:	0402004a 	streq	r0, [r2], #-74	; 0xffffffb6
    146c:	02000102 	andeq	r0, r0, #-2147483648	; 0x80000000
    1470:	05130204 	ldreq	r0, [r3, #-516]	; 0xfffffdfc
    1474:	04020012 	streq	r0, [r2], #-18	; 0xffffffee
    1478:	00010602 	andeq	r0, r1, r2, lsl #12
    147c:	2e020402 	cdpcs	4, 0, cr0, cr2, cr2, {0}
    1480:	02040200 	andeq	r0, r4, #0, 4
    1484:	0005052e 	andeq	r0, r5, lr, lsr #10
    1488:	06020402 	streq	r0, [r2], -r2, lsl #8
    148c:	0402002f 	streq	r0, [r2], #-47	; 0xffffffd1
    1490:	01056702 	tsteq	r5, r2, lsl #14
    1494:	02040200 	andeq	r0, r4, #0, 4
    1498:	05051306 	streq	r1, [r5, #-774]	; 0xfffffcfa
    149c:	01040200 	mrseq	r0, R12_usr
    14a0:	02006206 	andeq	r6, r0, #1610612736	; 0x60000000
    14a4:	00010104 	andeq	r0, r1, r4, lsl #2
    14a8:	06010402 	streq	r0, [r1], -r2, lsl #8
    14ac:	040200ba 	streq	r0, [r2], #-186	; 0xffffff46
    14b0:	052e0601 	streq	r0, [lr, #-1537]!	; 0xfffff9ff
    14b4:	9e0a033c 	mcrls	3, 0, r0, cr10, cr12, {1}
    14b8:	05050106 	streq	r0, [r5, #-262]	; 0xfffffefa
    14bc:	06014b06 	streq	r4, [r1], -r6, lsl #22
    14c0:	012e062e 			; <UNDEFINED> instruction: 0x012e062e
    14c4:	18050113 	stmdane	r5, {r0, r1, r4, r8}
    14c8:	017fad03 	cmneq	pc, r3, lsl #26
    14cc:	05130505 	ldreq	r0, [r3, #-1285]	; 0xfffffafb
    14d0:	2e010611 	mcrcs	6, 0, r0, cr1, cr1, {0}
    14d4:	d2030505 	andle	r0, r3, #20971520	; 0x1400000
    14d8:	4a060100 	bmi	1818e0 <__bss_end__+0x177c98>
    14dc:	03180513 	tsteq	r8, #79691776	; 0x4c00000
    14e0:	05017fa3 	streq	r7, [r1, #-4003]	; 0xfffff05d
    14e4:	16051305 	strne	r1, [r5], -r5, lsl #6
    14e8:	054a0106 	strbeq	r0, [sl, #-262]	; 0xfffffefa
    14ec:	e1030605 	tst	r3, r5, lsl #12
    14f0:	12050100 	andne	r0, r5, #0
    14f4:	05050106 	streq	r0, [r5, #-262]	; 0xfffffefa
    14f8:	18054b06 	stmdane	r5, {r1, r2, r8, r9, fp, lr}
    14fc:	017fa903 	cmneq	pc, r3, lsl #18
    1500:	01130505 	tsteq	r3, r5, lsl #10
    1504:	050e1805 	streq	r1, [lr, #-2053]	; 0xfffff7fb
    1508:	11051305 	tstne	r5, r5, lsl #6
    150c:	052e0106 	streq	r0, [lr, #-262]!	; 0xfffffefa
    1510:	4a061505 	bmi	18692c <__bss_end__+0x17cce4>
    1514:	0e051301 	cdpeq	3, 0, cr1, cr5, cr1, {0}
    1518:	052e0106 	streq	r0, [lr, #-262]!	; 0xfffffefa
    151c:	052e2e16 	streq	r2, [lr, #-3606]!	; 0xfffff1ea
    1520:	d6030605 	strle	r0, [r3], -r5, lsl #12
    1524:	05010100 	streq	r0, [r1, #-256]	; 0xffffff00
    1528:	7f9f0318 	svcvc	0x009f0318
    152c:	13050501 	movwne	r0, #21761	; 0x5501
    1530:	01061905 	tsteq	r6, r5, lsl #18
    1534:	0305052e 	movweq	r0, #21806	; 0x552e
    1538:	000100e0 	andeq	r0, r1, r0, ror #1
    153c:	06020402 	streq	r0, [r2], -r2, lsl #8
    1540:	0402004a 	streq	r0, [r2], #-74	; 0xffffffb6
    1544:	0a051402 	beq	146554 <__bss_end__+0x13c90c>
    1548:	02040200 	andeq	r0, r4, #0, 4
    154c:	05050106 	streq	r0, [r5, #-262]	; 0xfffffefa
    1550:	02040200 	andeq	r0, r4, #0, 4
    1554:	0c054b06 			; <UNDEFINED> instruction: 0x0c054b06
    1558:	02040200 	andeq	r0, r4, #0, 4
    155c:	01050106 	tsteq	r5, r6, lsl #2
    1560:	02040200 	andeq	r0, r4, #0, 4
    1564:	0005052f 	andeq	r0, r5, pc, lsr #10
    1568:	06010402 	streq	r0, [r1], -r2, lsl #8
    156c:	004a7303 	subeq	r7, sl, r3, lsl #6
    1570:	01010402 	tsteq	r1, r2, lsl #8
    1574:	01040200 	mrseq	r0, R12_usr
    1578:	02009e06 	andeq	r9, r0, #96	; 0x60
    157c:	002e0104 	eoreq	r0, lr, r4, lsl #2
    1580:	06010402 	streq	r0, [r1], -r2, lsl #8
    1584:	0402002e 	streq	r0, [r2], #-46	; 0xffffffd2
    1588:	02002f01 	andeq	r2, r0, #1, 30
    158c:	002e0104 	eoreq	r0, lr, r4, lsl #2
    1590:	d6010402 	strle	r0, [r1], -r2, lsl #8
    1594:	2e7fb103 	expcse	f3, f3
    1598:	2e820601 	cdpcs	6, 8, cr0, cr2, cr1, {0}
    159c:	062e062e 	strteq	r0, [lr], -lr, lsr #12
    15a0:	0402002e 	streq	r0, [r2], #-46	; 0xffffffd2
    15a4:	d7030601 	strle	r0, [r3, -r1, lsl #12]
    15a8:	02000100 	andeq	r0, r0, #0
    15ac:	002e0104 	eoreq	r0, lr, r4, lsl #2
    15b0:	d6010402 	strle	r0, [r1], -r2, lsl #8
    15b4:	7b081505 	blvc	2069d0 <__bss_end__+0x1fcd88>
    15b8:	05011705 	streq	r1, [r1, #-1797]	; 0xfffff8fb
    15bc:	18053116 	stmdane	r5, {r1, r2, r4, r8, ip, sp}
    15c0:	061d0501 	ldreq	r0, [sp], -r1, lsl #10
    15c4:	662b0501 	strtvs	r0, [fp], -r1, lsl #10
    15c8:	4d061905 	vstrmi.16	s2, [r6, #-10]	; <UNPREDICTABLE>
    15cc:	05130505 	ldreq	r0, [r3, #-1285]	; 0xfffffafb
    15d0:	0501060c 	streq	r0, [r1, #-1548]	; 0xfffff9f4
    15d4:	25054a07 	strcs	r4, [r5, #-2567]	; 0xfffff5f9
    15d8:	01040200 	mrseq	r0, R12_usr
    15dc:	001e054a 	andseq	r0, lr, sl, asr #10
    15e0:	4a010402 	bmi	425f0 <__bss_end__+0x389a8>
    15e4:	4b060905 	blmi	183a00 <__bss_end__+0x179db8>
    15e8:	05130505 	ldreq	r0, [r3, #-1285]	; 0xfffffafb
    15ec:	0501060a 	streq	r0, [r1, #-1546]	; 0xfffff9f6
    15f0:	09056319 	stmdbeq	r5, {r0, r3, r4, r8, r9, sp, lr}
    15f4:	06014c06 	streq	r4, [r1], -r6, lsl #24
    15f8:	022e069e 	eoreq	r0, lr, #165675008	; 0x9e00000
    15fc:	0101000a 	tsteq	r1, sl
    1600:	00000114 	andeq	r0, r0, r4, lsl r1
    1604:	00e40003 	rsceq	r0, r4, r3
    1608:	01020000 	mrseq	r0, (UNDEF: 2)
    160c:	000d0efb 	strdeq	r0, [sp], -fp
    1610:	01010101 	tsteq	r1, r1, lsl #2
    1614:	01000000 	mrseq	r0, (UNDEF: 0)
    1618:	2e010000 	cdpcs	0, 0, cr0, cr1, cr0, {0}
    161c:	62696c2f 	rsbvs	r6, r9, #12032	; 0x2f00
    1620:	552f0063 	strpl	r0, [pc, #-99]!	; 15c5 <__code_start__-0x6a3b>
    1624:	73726573 	cmnvc	r2, #482344960	; 0x1cc00000
    1628:	6972742f 	ldmdbvs	r2!, {r0, r1, r2, r3, r5, sl, ip, sp, lr}^
    162c:	6e657473 	mcrvs	4, 3, r7, cr5, cr3, {3}
    1630:	6c6c6f6e 	stclvs	15, cr6, [ip], #-440	; 0xfffffe48
    1634:	2f6e616d 	svccs	0x006e616d
    1638:	75636f44 	strbvc	r6, [r3, #-3908]!	; 0xfffff0bc
    163c:	746e656d 	strbtvc	r6, [lr], #-1389	; 0xfffffa93
    1640:	70532f73 	subsvc	r2, r3, r3, ror pc
    1644:	676e6972 			; <UNDEFINED> instruction: 0x676e6972
    1648:	6175515f 	cmnvs	r5, pc, asr r1
    164c:	72657472 	rsbvc	r7, r5, #1912602624	; 0x72000000
    1650:	3230325f 	eorscc	r3, r0, #-268435451	; 0xf0000005
    1654:	53432f32 	movtpl	r2, #16178	; 0x3f32
    1658:	4c303432 	cfldrsmi	mvf3, [r0], #-200	; 0xffffff38
    165c:	70732d58 	rsbsvc	r2, r3, r8, asr sp
    1660:	2f323272 	svccs	0x00323272
    1664:	7062696c 	rsbvc	r6, r2, ip, ror #18
    1668:	6e692f69 	cdpvs	15, 6, cr2, cr9, cr9, {3}
    166c:	64756c63 	ldrbtvs	r6, [r5], #-3171	; 0xfffff39d
    1670:	752f0065 	strvc	r0, [pc, #-101]!	; 1613 <__code_start__-0x69ed>
    1674:	6c2f7273 	sfmvs	f7, 4, [pc], #-460	; 14b0 <__code_start__-0x6b50>
    1678:	6c61636f 	stclvs	3, cr6, [r1], #-444	; 0xfffffe44
    167c:	6c65432f 	stclvs	3, cr4, [r5], #-188	; 0xffffff44
    1680:	2f72616c 	svccs	0x0072616c
    1684:	2d6d7261 	sfmcs	f7, 2, [sp, #-388]!	; 0xfffffe7c
    1688:	656e6f6e 	strbvs	r6, [lr, #-3950]!	; 0xfffff092
    168c:	6261652d 	rsbvs	r6, r1, #188743680	; 0xb400000
    1690:	65742d69 	ldrbvs	r2, [r4, #-3433]!	; 0xfffff297
    1694:	392f7473 	stmdbcc	pc!, {r0, r1, r4, r5, r6, sl, ip, sp, lr}	; <UNPREDICTABLE>
    1698:	3130322d 	teqcc	r0, sp, lsr #4
    169c:	2d347139 	ldfcss	f7, [r4, #-228]!	; 0xffffff1c
    16a0:	30317363 	eorscc	r7, r1, r3, ror #6
    16a4:	6c2f6537 	cfstr32vs	mvfx6, [pc], #-220	; 15d0 <__code_start__-0x6a30>
    16a8:	672f6269 	strvs	r6, [pc, -r9, ror #4]!
    16ac:	612f6363 			; <UNDEFINED> instruction: 0x612f6363
    16b0:	6e2d6d72 	mcrvs	13, 1, r6, cr13, cr2, {3}
    16b4:	2d656e6f 	stclcs	14, cr6, [r5, #-444]!	; 0xfffffe44
    16b8:	69626165 	stmdbvs	r2!, {r0, r2, r5, r6, r8, sp, lr}^
    16bc:	322e392f 	eorcc	r3, lr, #770048	; 0xbc000
    16c0:	692f312e 	stmdbvs	pc!, {r1, r2, r3, r5, r8, ip, sp}	; <UNPREDICTABLE>
    16c4:	756c636e 	strbvc	r6, [ip, #-878]!	; 0xfffffc92
    16c8:	00006564 	andeq	r6, r0, r4, ror #10
    16cc:	736d656d 	cmnvc	sp, #457179136	; 0x1b400000
    16d0:	632e7465 			; <UNDEFINED> instruction: 0x632e7465
    16d4:	00000100 	andeq	r0, r0, r0, lsl #2
    16d8:	2e697072 	mcrcs	0, 3, r7, cr9, cr2, {3}
    16dc:	00020068 	andeq	r0, r2, r8, rrx
    16e0:	64747300 	ldrbtvs	r7, [r4], #-768	; 0xfffffd00
    16e4:	2e666564 	cdpcs	5, 6, cr6, cr6, cr4, {3}
    16e8:	00030068 	andeq	r0, r3, r8, rrx
    16ec:	29050000 	stmdbcs	r5, {}	; <UNPREDICTABLE>
    16f0:	88020500 	stmdahi	r2, {r8, sl}
    16f4:	15000091 	strne	r0, [r0, #-145]	; 0xffffff6f
    16f8:	05130505 	ldreq	r0, [r3, #-1285]	; 0xfffffafb
    16fc:	05010614 	streq	r0, [r1, #-1556]	; 0xfffff9ec
    1700:	05300605 	ldreq	r0, [r0, #-1541]!	; 0xfffff9fb
    1704:	0510060b 	ldreq	r0, [r0, #-1547]	; 0xfffff9f5
    1708:	0530060a 	ldreq	r0, [r0, #-1546]!	; 0xfffff9f6
    170c:	0e054b09 	vmlaeq.f64	d4, d5, d9
    1710:	022e0106 	eoreq	r0, lr, #-2147483647	; 0x80000001
    1714:	01010002 	tsteq	r1, r2
    1718:	000000be 	strheq	r0, [r0], -lr
    171c:	00800003 	addeq	r0, r0, r3
    1720:	01020000 	mrseq	r0, (UNDEF: 2)
    1724:	000d0efb 	strdeq	r0, [sp], -fp
    1728:	01010101 	tsteq	r1, r1, lsl #2
    172c:	01000000 	mrseq	r0, (UNDEF: 0)
    1730:	2e010000 	cdpcs	0, 0, cr0, cr1, cr0, {0}
    1734:	62696c2f 	rsbvs	r6, r9, #12032	; 0x2f00
    1738:	552f0063 	strpl	r0, [pc, #-99]!	; 16dd <__code_start__-0x6923>
    173c:	73726573 	cmnvc	r2, #482344960	; 0x1cc00000
    1740:	6972742f 	ldmdbvs	r2!, {r0, r1, r2, r3, r5, sl, ip, sp, lr}^
    1744:	6e657473 	mcrvs	4, 3, r7, cr5, cr3, {3}
    1748:	6c6c6f6e 	stclvs	15, cr6, [ip], #-440	; 0xfffffe48
    174c:	2f6e616d 	svccs	0x006e616d
    1750:	75636f44 	strbvc	r6, [r3, #-3908]!	; 0xfffff0bc
    1754:	746e656d 	strbtvc	r6, [lr], #-1389	; 0xfffffa93
    1758:	70532f73 	subsvc	r2, r3, r3, ror pc
    175c:	676e6972 			; <UNDEFINED> instruction: 0x676e6972
    1760:	6175515f 	cmnvs	r5, pc, asr r1
    1764:	72657472 	rsbvc	r7, r5, #1912602624	; 0x72000000
    1768:	3230325f 	eorscc	r3, r0, #-268435451	; 0xf0000005
    176c:	53432f32 	movtpl	r2, #16178	; 0x3f32
    1770:	4c303432 	cfldrsmi	mvf3, [r0], #-200	; 0xffffff38
    1774:	70732d58 	rsbsvc	r2, r3, r8, asr sp
    1778:	2f323272 	svccs	0x00323272
    177c:	7062696c 	rsbvc	r6, r2, ip, ror #18
    1780:	6e692f69 	cdpvs	15, 6, cr2, cr9, cr9, {3}
    1784:	64756c63 	ldrbtvs	r6, [r5], #-3171	; 0xfffff39d
    1788:	70000065 	andvc	r0, r0, r5, rrx
    178c:	68637475 	stmdavs	r3!, {r0, r2, r4, r5, r6, sl, ip, sp, lr}^
    1790:	632e7261 			; <UNDEFINED> instruction: 0x632e7261
    1794:	00000100 	andeq	r0, r0, r0, lsl #2
    1798:	2e697072 	mcrcs	0, 3, r7, cr9, cr2, {3}
    179c:	00020068 	andeq	r0, r2, r8, rrx
    17a0:	24050000 	strcs	r0, [r5], #-0
    17a4:	a0020500 	andge	r0, r2, r0, lsl #10
    17a8:	14000091 	strne	r0, [r0], #-145	; 0xffffff6f
    17ac:	26050106 	strcs	r0, [r5], -r6, lsl #2
    17b0:	34054a06 	strcc	r4, [r5], #-2566	; 0xfffff5fa
    17b4:	0601052e 	streq	r0, [r1], -lr, lsr #10
    17b8:	061b0501 	ldreq	r0, [fp], -r1, lsl #10
    17bc:	1305054f 	movwne	r0, #21839	; 0x554f
    17c0:	01061105 	tsteq	r6, r5, lsl #2
    17c4:	05670105 	strbeq	r0, [r7, #-261]!	; 0xfffffefb
    17c8:	05670623 	strbeq	r0, [r7, #-1571]!	; 0xfffff9dd
    17cc:	11051305 	tstne	r5, r5, lsl #6
    17d0:	01050106 	tsteq	r5, r6, lsl #2
    17d4:	0004024b 	andeq	r0, r4, fp, asr #4
    17d8:	010a0101 	tsteq	sl, r1, lsl #2
    17dc:	00030000 	andeq	r0, r3, r0
    17e0:	0000007f 	andeq	r0, r0, pc, ror r0
    17e4:	0efb0102 	cdpeq	1, 15, cr0, cr11, cr2, {0}
    17e8:	0101000d 	tsteq	r1, sp
    17ec:	00000101 	andeq	r0, r0, r1, lsl #2
    17f0:	00000100 	andeq	r0, r0, r0, lsl #2
    17f4:	6c2f2e01 	stcvs	14, cr2, [pc], #-4	; 17f8 <__code_start__-0x6808>
    17f8:	00636269 	rsbeq	r6, r3, r9, ror #4
    17fc:	6573552f 	ldrbvs	r5, [r3, #-1327]!	; 0xfffffad1
    1800:	742f7372 	strtvc	r7, [pc], #-882	; 1808 <__code_start__-0x67f8>
    1804:	74736972 	ldrbtvc	r6, [r3], #-2418	; 0xfffff68e
    1808:	6f6e6e65 	svcvs	0x006e6e65
    180c:	616d6c6c 	cmnvs	sp, ip, ror #24
    1810:	6f442f6e 	svcvs	0x00442f6e
    1814:	656d7563 	strbvs	r7, [sp, #-1379]!	; 0xfffffa9d
    1818:	2f73746e 	svccs	0x0073746e
    181c:	69727053 	ldmdbvs	r2!, {r0, r1, r4, r6, ip, sp, lr}^
    1820:	515f676e 	cmppl	pc, lr, ror #14
    1824:	74726175 	ldrbtvc	r6, [r2], #-373	; 0xfffffe8b
    1828:	325f7265 	subscc	r7, pc, #1342177286	; 0x50000006
    182c:	2f323230 	svccs	0x00323230
    1830:	34325343 	ldrtcc	r5, [r2], #-835	; 0xfffffcbd
    1834:	2d584c30 	ldclcs	12, cr4, [r8, #-192]	; 0xffffff40
    1838:	32727073 	rsbscc	r7, r2, #115, 0	; 0x73
    183c:	696c2f32 	stmdbvs	ip!, {r1, r4, r5, r8, r9, sl, fp, sp}^
    1840:	2f697062 	svccs	0x00697062
    1844:	6c636e69 	stclvs	14, cr6, [r3], #-420	; 0xfffffe5c
    1848:	00656475 	rsbeq	r6, r5, r5, ror r4
    184c:	72747300 	rsbsvc	r7, r4, #0, 6
    1850:	2e746163 	rpwcssz	f6, f4, f3
    1854:	00010063 	andeq	r0, r1, r3, rrx
    1858:	69707200 	ldmdbvs	r0!, {r9, ip, sp, lr}^
    185c:	0200682e 	andeq	r6, r0, #3014656	; 0x2e0000
    1860:	05000000 	streq	r0, [r0, #-0]
    1864:	0205002c 	andeq	r0, r5, #44, 0	; 0x2c
    1868:	000091dc 	ldrdeq	r9, [r0], -ip
    186c:	13050515 	movwne	r0, #21781	; 0x5515
    1870:	060b0513 			; <UNDEFINED> instruction: 0x060b0513
    1874:	00050511 	andeq	r0, r5, r1, lsl r5
    1878:	06010402 	streq	r0, [r1], -r2, lsl #8
    187c:	04020030 	streq	r0, [r2], #-48	; 0xffffffd0
    1880:	09051501 	stmdbeq	r5, {r0, r8, sl, ip}
    1884:	01040200 	mrseq	r0, R12_usr
    1888:	00100513 	andseq	r0, r0, r3, lsl r5
    188c:	06010402 	streq	r0, [r1], -r2, lsl #8
    1890:	000b052e 	andeq	r0, fp, lr, lsr #10
    1894:	2e010402 	cdpcs	4, 0, cr0, cr1, cr2, {0}
    1898:	01040200 	mrseq	r0, R12_usr
    189c:	05052f06 	streq	r2, [r5, #-3846]	; 0xfffff0fa
    18a0:	01040200 	mrseq	r0, R12_usr
    18a4:	4e060106 	adfmis	f0, f6, f6
    18a8:	01060805 	tsteq	r6, r5, lsl #16
    18ac:	02000505 	andeq	r0, r0, #20971520	; 0x1400000
    18b0:	2f060104 	svccs	0x00060104
    18b4:	02000905 	andeq	r0, r0, #81920	; 0x14000
    18b8:	05130104 	ldreq	r0, [r3, #-260]	; 0xfffffefc
    18bc:	0402000b 	streq	r0, [r2], #-11
    18c0:	05010601 	streq	r0, [r1, #-1537]	; 0xfffff9ff
    18c4:	04020009 	streq	r0, [r2], #-9
    18c8:	054b0601 	strbeq	r0, [fp, #-1537]	; 0xfffff9ff
    18cc:	0402000f 	streq	r0, [r2], #-15
    18d0:	05010601 	streq	r0, [r1, #-1537]	; 0xfffff9ff
    18d4:	0402000d 	streq	r0, [r2], #-13
    18d8:	052f0601 	streq	r0, [pc, #-1537]!	; 12df <__code_start__-0x6d21>
    18dc:	04020005 	streq	r0, [r2], #-5
    18e0:	02010601 	andeq	r0, r1, #1048576	; 0x100000
    18e4:	01010006 	tsteq	r1, r6
    18e8:	000000c3 	andeq	r0, r0, r3, asr #1
    18ec:	007f0003 	rsbseq	r0, pc, r3
    18f0:	01020000 	mrseq	r0, (UNDEF: 2)
    18f4:	000d0efb 	strdeq	r0, [sp], -fp
    18f8:	01010101 	tsteq	r1, r1, lsl #2
    18fc:	01000000 	mrseq	r0, (UNDEF: 0)
    1900:	2e010000 	cdpcs	0, 0, cr0, cr1, cr0, {0}
    1904:	62696c2f 	rsbvs	r6, r9, #12032	; 0x2f00
    1908:	552f0063 	strpl	r0, [pc, #-99]!	; 18ad <__code_start__-0x6753>
    190c:	73726573 	cmnvc	r2, #482344960	; 0x1cc00000
    1910:	6972742f 	ldmdbvs	r2!, {r0, r1, r2, r3, r5, sl, ip, sp, lr}^
    1914:	6e657473 	mcrvs	4, 3, r7, cr5, cr3, {3}
    1918:	6c6c6f6e 	stclvs	15, cr6, [ip], #-440	; 0xfffffe48
    191c:	2f6e616d 	svccs	0x006e616d
    1920:	75636f44 	strbvc	r6, [r3, #-3908]!	; 0xfffff0bc
    1924:	746e656d 	strbtvc	r6, [lr], #-1389	; 0xfffffa93
    1928:	70532f73 	subsvc	r2, r3, r3, ror pc
    192c:	676e6972 			; <UNDEFINED> instruction: 0x676e6972
    1930:	6175515f 	cmnvs	r5, pc, asr r1
    1934:	72657472 	rsbvc	r7, r5, #1912602624	; 0x72000000
    1938:	3230325f 	eorscc	r3, r0, #-268435451	; 0xf0000005
    193c:	53432f32 	movtpl	r2, #16178	; 0x3f32
    1940:	4c303432 	cfldrsmi	mvf3, [r0], #-200	; 0xffffff38
    1944:	70732d58 	rsbsvc	r2, r3, r8, asr sp
    1948:	2f323272 	svccs	0x00323272
    194c:	7062696c 	rsbvc	r6, r2, ip, ror #18
    1950:	6e692f69 	cdpvs	15, 6, cr2, cr9, cr9, {3}
    1954:	64756c63 	ldrbtvs	r6, [r5], #-3171	; 0xfffff39d
    1958:	73000065 	movwvc	r0, #101	; 0x65
    195c:	6d637274 	sfmvs	f7, 2, [r3, #-464]!	; 0xfffffe30
    1960:	00632e70 	rsbeq	r2, r3, r0, ror lr
    1964:	72000001 	andvc	r0, r0, #1, 0
    1968:	682e6970 	stmdavs	lr!, {r4, r5, r6, r8, fp, sp, lr}
    196c:	00000200 	andeq	r0, r0, r0, lsl #4
    1970:	002a0500 	eoreq	r0, sl, r0, lsl #10
    1974:	92100205 	andsls	r0, r0, #1342177280	; 0x50000000
    1978:	05140000 	ldreq	r0, [r4, #-0]
    197c:	0f051309 	svceq	0x00051309
    1980:	06100501 	ldreq	r0, [r0], -r1, lsl #10
    1984:	2e0f0501 	cfsh32cs	mvfx0, mvfx15, #1
    1988:	02001c05 	andeq	r1, r0, #1280	; 0x500
    198c:	054a0104 	strbeq	r0, [sl, #-260]	; 0xfffffefc
    1990:	04020013 	streq	r0, [r2], #-19	; 0xffffffed
    1994:	11052e01 	tstne	r5, r1, lsl #28
    1998:	16052f06 	strne	r2, [r5], -r6, lsl #30
    199c:	052e2e06 	streq	r2, [lr, #-3590]!	; 0xfffff1fa
    19a0:	052f0609 	streq	r0, [pc, #-1545]!	; 139f <__code_start__-0x6c61>
    19a4:	05010615 	streq	r0, [r1, #-1557]	; 0xfffff9eb
    19a8:	04022f01 	streq	r2, [r2], #-3841	; 0xfffff0ff
    19ac:	c1010100 	mrsgt	r0, (UNDEF: 17)
    19b0:	03000000 	movweq	r0, #0
    19b4:	00007f00 	andeq	r7, r0, r0, lsl #30
    19b8:	fb010200 	blx	421c2 <__bss_end__+0x3857a>
    19bc:	01000d0e 	tsteq	r0, lr, lsl #26
    19c0:	00010101 	andeq	r0, r1, r1, lsl #2
    19c4:	00010000 	andeq	r0, r1, r0
    19c8:	2f2e0100 	svccs	0x002e0100
    19cc:	6362696c 	cmnvs	r2, #108, 18	; 0x1b0000
    19d0:	73552f00 	cmpvc	r5, #0, 30
    19d4:	2f737265 	svccs	0x00737265
    19d8:	73697274 	cmnvc	r9, #116, 4	; 0x40000007
    19dc:	6e6e6574 	mcrvs	5, 3, r6, cr14, cr4, {3}
    19e0:	6d6c6c6f 	stclvs	12, cr6, [ip, #-444]!	; 0xfffffe44
    19e4:	442f6e61 	strtmi	r6, [pc], #-3681	; 19ec <__code_start__-0x6614>
    19e8:	6d75636f 	ldclvs	3, cr6, [r5, #-444]!	; 0xfffffe44
    19ec:	73746e65 	cmnvc	r4, #1616	; 0x650
    19f0:	7270532f 	rsbsvc	r5, r0, #-1140850688	; 0xbc000000
    19f4:	5f676e69 	svcpl	0x00676e69
    19f8:	72617551 	rsbvc	r7, r1, #339738624	; 0x14400000
    19fc:	5f726574 	svcpl	0x00726574
    1a00:	32323032 	eorscc	r3, r2, #50, 0	; 0x32
    1a04:	3253432f 	subscc	r4, r3, #-1140850688	; 0xbc000000
    1a08:	584c3034 	stmdapl	ip, {r2, r4, r5, ip, sp}^
    1a0c:	7270732d 	rsbsvc	r7, r0, #-1275068416	; 0xb4000000
    1a10:	6c2f3232 	sfmvs	f3, 4, [pc], #-200	; 1950 <__code_start__-0x66b0>
    1a14:	69706269 	ldmdbvs	r0!, {r0, r3, r5, r6, r9, sp, lr}^
    1a18:	636e692f 	cmnvs	lr, #770048	; 0xbc000
    1a1c:	6564756c 	strbvs	r7, [r4, #-1388]!	; 0xfffffa94
    1a20:	74730000 	ldrbtvc	r0, [r3], #-0
    1a24:	79706372 	ldmdbvc	r0!, {r1, r4, r5, r6, r8, r9, sp, lr}^
    1a28:	0100632e 	tsteq	r0, lr, lsr #6
    1a2c:	70720000 	rsbsvc	r0, r2, r0
    1a30:	00682e69 	rsbeq	r2, r8, r9, ror #28
    1a34:	00000002 	andeq	r0, r0, r2
    1a38:	05002a05 	streq	r2, [r0, #-2565]	; 0xfffff5fb
    1a3c:	00923c02 	addseq	r3, r2, r2, lsl #24
    1a40:	05051400 	streq	r1, [r5, #-1024]	; 0xfffffc00
    1a44:	14051313 	strne	r1, [r5], #-787	; 0xfffffced
    1a48:	22051106 	andcs	r1, r5, #-2147483647	; 0x80000001
    1a4c:	01040200 	mrseq	r0, R12_usr
    1a50:	0b052f06 	bleq	14d670 <__bss_end__+0x143a28>
    1a54:	01040200 	mrseq	r0, R12_usr
    1a58:	00150501 	andseq	r0, r5, r1, lsl #10
    1a5c:	06010402 	streq	r0, [r1], -r2, lsl #8
    1a60:	00130501 	andseq	r0, r3, r1, lsl #10
    1a64:	4a010402 	bmi	42a74 <__bss_end__+0x38e2c>
    1a68:	02000b05 	andeq	r0, r0, #5120	; 0x1400
    1a6c:	024a0104 	subeq	r0, sl, #1
    1a70:	01010006 	tsteq	r1, r6
    1a74:	00000121 	andeq	r0, r0, r1, lsr #2
    1a78:	00e50003 	rsceq	r0, r5, r3
    1a7c:	01020000 	mrseq	r0, (UNDEF: 2)
    1a80:	000d0efb 	strdeq	r0, [sp], -fp
    1a84:	01010101 	tsteq	r1, r1, lsl #2
    1a88:	01000000 	mrseq	r0, (UNDEF: 0)
    1a8c:	2e010000 	cdpcs	0, 0, cr0, cr1, cr0, {0}
    1a90:	62696c2f 	rsbvs	r6, r9, #12032	; 0x2f00
    1a94:	552f0063 	strpl	r0, [pc, #-99]!	; 1a39 <__code_start__-0x65c7>
    1a98:	73726573 	cmnvc	r2, #482344960	; 0x1cc00000
    1a9c:	6972742f 	ldmdbvs	r2!, {r0, r1, r2, r3, r5, sl, ip, sp, lr}^
    1aa0:	6e657473 	mcrvs	4, 3, r7, cr5, cr3, {3}
    1aa4:	6c6c6f6e 	stclvs	15, cr6, [ip], #-440	; 0xfffffe48
    1aa8:	2f6e616d 	svccs	0x006e616d
    1aac:	75636f44 	strbvc	r6, [r3, #-3908]!	; 0xfffff0bc
    1ab0:	746e656d 	strbtvc	r6, [lr], #-1389	; 0xfffffa93
    1ab4:	70532f73 	subsvc	r2, r3, r3, ror pc
    1ab8:	676e6972 			; <UNDEFINED> instruction: 0x676e6972
    1abc:	6175515f 	cmnvs	r5, pc, asr r1
    1ac0:	72657472 	rsbvc	r7, r5, #1912602624	; 0x72000000
    1ac4:	3230325f 	eorscc	r3, r0, #-268435451	; 0xf0000005
    1ac8:	53432f32 	movtpl	r2, #16178	; 0x3f32
    1acc:	4c303432 	cfldrsmi	mvf3, [r0], #-200	; 0xffffff38
    1ad0:	70732d58 	rsbsvc	r2, r3, r8, asr sp
    1ad4:	2f323272 	svccs	0x00323272
    1ad8:	7062696c 	rsbvc	r6, r2, ip, ror #18
    1adc:	6e692f69 	cdpvs	15, 6, cr2, cr9, cr9, {3}
    1ae0:	64756c63 	ldrbtvs	r6, [r5], #-3171	; 0xfffff39d
    1ae4:	752f0065 	strvc	r0, [pc, #-101]!	; 1a87 <__code_start__-0x6579>
    1ae8:	6c2f7273 	sfmvs	f7, 4, [pc], #-460	; 1924 <__code_start__-0x66dc>
    1aec:	6c61636f 	stclvs	3, cr6, [r1], #-444	; 0xfffffe44
    1af0:	6c65432f 	stclvs	3, cr4, [r5], #-188	; 0xffffff44
    1af4:	2f72616c 	svccs	0x0072616c
    1af8:	2d6d7261 	sfmcs	f7, 2, [sp, #-388]!	; 0xfffffe7c
    1afc:	656e6f6e 	strbvs	r6, [lr, #-3950]!	; 0xfffff092
    1b00:	6261652d 	rsbvs	r6, r1, #188743680	; 0xb400000
    1b04:	65742d69 	ldrbvs	r2, [r4, #-3433]!	; 0xfffff297
    1b08:	392f7473 	stmdbcc	pc!, {r0, r1, r4, r5, r6, sl, ip, sp, lr}	; <UNPREDICTABLE>
    1b0c:	3130322d 	teqcc	r0, sp, lsr #4
    1b10:	2d347139 	ldfcss	f7, [r4, #-228]!	; 0xffffff1c
    1b14:	30317363 	eorscc	r7, r1, r3, ror #6
    1b18:	6c2f6537 	cfstr32vs	mvfx6, [pc], #-220	; 1a44 <__code_start__-0x65bc>
    1b1c:	672f6269 	strvs	r6, [pc, -r9, ror #4]!
    1b20:	612f6363 			; <UNDEFINED> instruction: 0x612f6363
    1b24:	6e2d6d72 	mcrvs	13, 1, r6, cr13, cr2, {3}
    1b28:	2d656e6f 	stclcs	14, cr6, [r5, #-444]!	; 0xfffffe44
    1b2c:	69626165 	stmdbvs	r2!, {r0, r2, r5, r6, r8, sp, lr}^
    1b30:	322e392f 	eorcc	r3, lr, #770048	; 0xbc000
    1b34:	692f312e 	stmdbvs	pc!, {r1, r2, r3, r5, r8, ip, sp}	; <UNPREDICTABLE>
    1b38:	756c636e 	strbvc	r6, [ip, #-878]!	; 0xfffffc92
    1b3c:	00006564 	andeq	r6, r0, r4, ror #10
    1b40:	6e727473 	mrcvs	4, 3, r7, cr2, cr3, {3}
    1b44:	2e706d63 	cdpcs	13, 7, cr6, cr0, cr3, {3}
    1b48:	00010063 	andeq	r0, r1, r3, rrx
    1b4c:	69707200 	ldmdbvs	r0!, {r9, ip, sp, lr}^
    1b50:	0200682e 	andeq	r6, r0, #3014656	; 0x2e0000
    1b54:	74730000 	ldrbtvc	r0, [r3], #-0
    1b58:	66656464 	strbtvs	r6, [r5], -r4, ror #8
    1b5c:	0300682e 	movweq	r6, #2094	; 0x82e
    1b60:	05000000 	streq	r0, [r0, #-0]
    1b64:	02050039 	andeq	r0, r5, #57, 0	; 0x39
    1b68:	0000925c 	andeq	r9, r0, ip, asr r2
    1b6c:	13050515 	movwne	r0, #21781	; 0x5515
    1b70:	010a0513 	tsteq	sl, r3, lsl r5
    1b74:	054a0106 	strbeq	r0, [sl, #-262]	; 0xfffffefa
    1b78:	052f0609 	streq	r0, [pc, #-1545]!	; 1577 <__code_start__-0x6a89>
    1b7c:	0501060c 	streq	r0, [r1, #-1548]	; 0xfffff9f4
    1b80:	0b052e13 	bleq	14d3d4 <__bss_end__+0x14378c>
    1b84:	060d052e 	streq	r0, [sp], -lr, lsr #10
    1b88:	061b054b 	ldreq	r0, [fp], -fp, asr #10
    1b8c:	0c052e01 	stceq	14, cr2, [r5], {1}
    1b90:	2f010530 	svccs	0x00010530
    1b94:	01000202 	tsteq	r0, r2, lsl #4
    1b98:	0000b001 	andeq	fp, r0, r1
    1b9c:	94000300 	strls	r0, [r0], #-768	; 0xfffffd00
    1ba0:	02000000 	andeq	r0, r0, #0, 0
    1ba4:	0d0efb01 	vstreq	d15, [lr, #-4]
    1ba8:	01010100 	mrseq	r0, (UNDEF: 17)
    1bac:	00000001 	andeq	r0, r0, r1
    1bb0:	01000001 	tsteq	r0, r1
    1bb4:	74732f2e 	ldrbtvc	r2, [r3], #-3886	; 0xfffff0d2
    1bb8:	2d666661 	stclcs	6, cr6, [r6, #-388]!	; 0xfffffe7c
    1bbc:	00637273 	rsbeq	r7, r3, r3, ror r2
    1bc0:	6573552f 	ldrbvs	r5, [r3, #-1327]!	; 0xfffffad1
    1bc4:	742f7372 	strtvc	r7, [pc], #-882	; 1bcc <__code_start__-0x6434>
    1bc8:	74736972 	ldrbtvc	r6, [r3], #-2418	; 0xfffff68e
    1bcc:	6f6e6e65 	svcvs	0x006e6e65
    1bd0:	616d6c6c 	cmnvs	sp, ip, ror #24
    1bd4:	6f442f6e 	svcvs	0x00442f6e
    1bd8:	656d7563 	strbvs	r7, [sp, #-1379]!	; 0xfffffa9d
    1bdc:	2f73746e 	svccs	0x0073746e
    1be0:	69727053 	ldmdbvs	r2!, {r0, r1, r4, r6, ip, sp, lr}^
    1be4:	515f676e 	cmppl	pc, lr, ror #14
    1be8:	74726175 	ldrbtvc	r6, [r2], #-373	; 0xfffffe8b
    1bec:	325f7265 	subscc	r7, pc, #1342177286	; 0x50000006
    1bf0:	2f323230 	svccs	0x00323230
    1bf4:	34325343 	ldrtcc	r5, [r2], #-835	; 0xfffffcbd
    1bf8:	2d584c30 	ldclcs	12, cr4, [r8, #-192]	; 0xffffff40
    1bfc:	32727073 	rsbscc	r7, r2, #115, 0	; 0x73
    1c00:	696c2f32 	stmdbvs	ip!, {r1, r4, r5, r8, r9, sl, fp, sp}^
    1c04:	2f697062 	svccs	0x00697062
    1c08:	6c636e69 	stclvs	14, cr6, [r3], #-420	; 0xfffffe5c
    1c0c:	00656475 	rsbeq	r6, r5, r5, ror r4
    1c10:	66656400 	strbtvs	r6, [r5], -r0, lsl #8
    1c14:	746c7561 	strbtvc	r7, [ip], #-1377	; 0xfffffa9f
    1c18:	6265722d 	rsbvs	r7, r5, #-805306366	; 0xd0000002
    1c1c:	2d746f6f 	ldclcs	15, cr6, [r4, #-444]!	; 0xfffffe44
    1c20:	6c6c6163 	stfvse	f6, [ip], #-396	; 0xfffffe74
    1c24:	2e74756f 	cdpcs	5, 7, cr7, cr4, cr15, {3}
    1c28:	00010063 	andeq	r0, r1, r3, rrx
    1c2c:	69707200 	ldmdbvs	r0!, {r9, ip, sp, lr}^
    1c30:	0200682e 	andeq	r6, r0, #3014656	; 0x2e0000
    1c34:	05000000 	streq	r0, [r0, #-0]
    1c38:	0205001b 	andeq	r0, r5, #27, 0
    1c3c:	00009288 	andeq	r9, r0, r8, lsl #5
    1c40:	011c0514 	tsteq	ip, r4, lsl r5
    1c44:	01060105 	tsteq	r6, r5, lsl #2
    1c48:	01000202 	tsteq	r0, r2, lsl #4
    1c4c:	0001bb01 	andeq	fp, r1, r1, lsl #22
    1c50:	bf000300 	svclt	0x00000300
    1c54:	02000000 	andeq	r0, r0, #0, 0
    1c58:	0d0efb01 	vstreq	d15, [lr, #-4]
    1c5c:	01010100 	mrseq	r0, (UNDEF: 17)
    1c60:	00000001 	andeq	r0, r0, r1
    1c64:	01000001 	tsteq	r0, r1
    1c68:	6d6f682f 	stclvs	8, cr6, [pc, #-188]!	; 1bb4 <__code_start__-0x644c>
    1c6c:	6e652f65 	cdpvs	15, 6, cr2, cr5, cr5, {3}
    1c70:	72656c67 	rsbvc	r6, r5, #26368	; 0x6700
    1c74:	616c632f 	cmnvs	ip, pc, lsr #6
    1c78:	632f7373 			; <UNDEFINED> instruction: 0x632f7373
    1c7c:	30343273 	eorscc	r3, r4, r3, ror r2
    1c80:	322d786c 	eorcc	r7, sp, #108, 16	; 0x6c0000
    1c84:	72707332 	rsbsvc	r7, r0, #-939524096	; 0xc8000000
    1c88:	696c2f2f 	stmdbvs	ip!, {r0, r1, r2, r3, r5, r8, r9, sl, fp, sp}^
    1c8c:	2f697062 	svccs	0x00697062
    1c90:	6c636e69 	stclvs	14, cr6, [r3], #-420	; 0xfffffe5c
    1c94:	00656475 	rsbeq	r6, r5, r5, ror r4
    1c98:	7273752f 	rsbsvc	r7, r3, #197132288	; 0xbc00000
    1c9c:	6168732f 	cmnvs	r8, pc, lsr #6
    1ca0:	672f6572 			; <UNDEFINED> instruction: 0x672f6572
    1ca4:	612d6363 			; <UNDEFINED> instruction: 0x612d6363
    1ca8:	6e2d6d72 	mcrvs	13, 1, r6, cr13, cr2, {3}
    1cac:	2d656e6f 	stclcs	14, cr6, [r5, #-444]!	; 0xfffffe44
    1cb0:	69626165 	stmdbvs	r2!, {r0, r2, r5, r6, r8, sp, lr}^
    1cb4:	2e30312d 	rsfcssp	f3, f0, #5.0
    1cb8:	30322d33 	eorscc	r2, r2, r3, lsr sp
    1cbc:	312e3132 			; <UNDEFINED> instruction: 0x312e3132
    1cc0:	696c2f30 	stmdbvs	ip!, {r4, r5, r8, r9, sl, fp, sp}^
    1cc4:	63672f62 	cmnvs	r7, #392	; 0x188
    1cc8:	72612f63 	rsbvc	r2, r1, #396	; 0x18c
    1ccc:	6f6e2d6d 	svcvs	0x006e2d6d
    1cd0:	652d656e 	strvs	r6, [sp, #-1390]!	; 0xfffffa92
    1cd4:	2f696261 	svccs	0x00696261
    1cd8:	332e3031 			; <UNDEFINED> instruction: 0x332e3031
    1cdc:	692f312e 	stmdbvs	pc!, {r1, r2, r3, r5, r8, ip, sp}	; <UNPREDICTABLE>
    1ce0:	756c636e 	strbvc	r6, [ip, #-878]!	; 0xfffffc92
    1ce4:	00006564 	andeq	r6, r0, r4, ror #10
    1ce8:	6f697067 	svcvs	0x00697067
    1cec:	0000632e 	andeq	r6, r0, lr, lsr #6
    1cf0:	70720000 	rsbsvc	r0, r2, r0
    1cf4:	00682e69 	rsbeq	r2, r8, r9, ror #28
    1cf8:	73000001 	movwvc	r0, #1
    1cfc:	6e696474 	mcrvs	4, 3, r6, cr9, cr4, {3}
    1d00:	63672d74 	cmnvs	r7, #116, 26	; 0x1d00
    1d04:	00682e63 	rsbeq	r2, r8, r3, ror #28
    1d08:	67000002 	strvs	r0, [r0, -r2]
    1d0c:	2e6f6970 			; <UNDEFINED> instruction: 0x2e6f6970
    1d10:	00010068 	andeq	r0, r1, r8, rrx
    1d14:	38050000 	stmdacc	r5, {}	; <UNPREDICTABLE>
    1d18:	a4020500 	strge	r0, [r2], #-1280	; 0xfffffb00
    1d1c:	03000092 	movweq	r0, #146	; 0x92
    1d20:	05050127 	streq	r0, [r5, #-295]	; 0xfffffed9
    1d24:	06070513 			; <UNDEFINED> instruction: 0x06070513
    1d28:	49380501 	ldmdbmi	r8!, {r0, r8, sl}
    1d2c:	4d060505 	cfstr32mi	mvfx0, [r6, #-20]	; 0xffffffec
    1d30:	01060705 	tsteq	r6, r5, lsl #14
    1d34:	4c060505 	cfstr32mi	mvfx0, [r6], {5}
    1d38:	01061805 	tsteq	r6, r5, lsl #16
    1d3c:	05ba0e05 	ldreq	r0, [sl, #3589]!	; 0xe05
    1d40:	052f0605 	streq	r0, [pc, #-1541]!	; 1743 <__code_start__-0x68bd>
    1d44:	2e01061c 	mcrcs	6, 0, r0, cr1, cr12, {0}
    1d48:	052e0e05 	streq	r0, [lr, #-3589]!	; 0xfffff1fb
    1d4c:	05300605 	ldreq	r0, [r0, #-1541]!	; 0xfffff9fb
    1d50:	05010612 	streq	r0, [r1, #-1554]	; 0xfffff9ee
    1d54:	054b0605 	strbeq	r0, [fp, #-1541]	; 0xfffff9fb
    1d58:	05010607 	streq	r0, [r1, #-1543]	; 0xfffff9f9
    1d5c:	134b0605 	movtne	r0, #46597	; 0xb605
    1d60:	01052e06 	tsteq	r5, r6, lsl #28
    1d64:	0624054b 	strteq	r0, [r4], -fp, asr #10
    1d68:	0501064c 	streq	r0, [r1, #-1612]	; 0xfffff9b4
    1d6c:	052f0605 	streq	r0, [pc, #-1541]!	; 176f <__code_start__-0x6891>
    1d70:	054b0601 	strbeq	r0, [fp, #-1537]	; 0xfffff9ff
    1d74:	05310620 	ldreq	r0, [r1, #-1568]!	; 0xfffff9e0
    1d78:	07051305 	streq	r1, [r5, -r5, lsl #6]
    1d7c:	20050106 	andcs	r0, r5, r6, lsl #2
    1d80:	06050549 	streq	r0, [r5], -r9, asr #10
    1d84:	05660631 	strbeq	r0, [r6, #-1585]!	; 0xfffff9cf
    1d88:	21052f01 	tstcs	r5, r1, lsl #30
    1d8c:	05054d06 	streq	r4, [r5, #-3334]	; 0xfffff2fa
    1d90:	06070513 			; <UNDEFINED> instruction: 0x06070513
    1d94:	49210501 	stmdbmi	r1!, {r0, r8, sl}
    1d98:	31060505 	tstcc	r6, r5, lsl #10
    1d9c:	01056606 	tsteq	r5, r6, lsl #12
    1da0:	0623052f 	strteq	r0, [r3], -pc, lsr #10
    1da4:	0501064d 	streq	r0, [r1, #-1613]	; 0xfffff9b3
    1da8:	052f0605 	streq	r0, [pc, #-1541]!	; 17ab <__code_start__-0x6855>
    1dac:	054b0601 	strbeq	r0, [fp, #-1537]	; 0xfffff9ff
    1db0:	0631062b 	ldrteq	r0, [r1], -fp, lsr #12
    1db4:	06050501 	streq	r0, [r5], -r1, lsl #10
    1db8:	0607052f 	streq	r0, [r7], -pc, lsr #10
    1dbc:	06090501 	streq	r0, [r9], -r1, lsl #10
    1dc0:	062e064b 	strteq	r0, [lr], -fp, asr #12
    1dc4:	06010530 			; <UNDEFINED> instruction: 0x06010530
    1dc8:	061d052f 	ldreq	r0, [sp], -pc, lsr #10
    1dcc:	13050530 	movwne	r0, #21808	; 0x5530
    1dd0:	01060705 	tsteq	r6, r5, lsl #14
    1dd4:	05491d05 	strbeq	r1, [r9, #-3333]	; 0xfffff2fb
    1dd8:	13310605 	teqne	r1, #5242880	; 0x500000
    1ddc:	01060e05 	tsteq	r6, r5, lsl #28
    1de0:	2f060505 	svccs	0x00060505
    1de4:	01061705 	tsteq	r6, r5, lsl #14
    1de8:	2e23054a 	cfsh64cs	mvdx0, mvdx3, #42
    1dec:	30050204 	andcc	r0, r5, r4, lsl #4
    1df0:	00dc0306 	sbcseq	r0, ip, r6, lsl #6
    1df4:	0501042e 	streq	r0, [r1, #-1070]	; 0xfffffbd2
    1df8:	a403060c 	strge	r0, [r3], #-1548	; 0xfffff9f4
    1dfc:	0105017f 	tsteq	r5, pc, ror r1
    1e00:	2a10052f 	bcs	4032c4 <__bss_end__+0x3f967c>
    1e04:	02320105 	eorseq	r0, r2, #1073741825	; 0x40000001
    1e08:	01010004 	tsteq	r1, r4

Disassembly of section .debug_str:

00000000 <.debug_str>:
   0:	6d746f6e 	ldclvs	15, cr6, [r4, #-440]!	; 0xfffffe48
   4:	006e6961 	rsbeq	r6, lr, r1, ror #18
   8:	69736e75 	ldmdbvs	r3!, {r0, r2, r4, r5, r6, r9, sl, fp, sp, lr}^
   c:	64656e67 	strbtvs	r6, [r5], #-3687	; 0xfffff199
  10:	61686320 	cmnvs	r8, r0, lsr #6
  14:	6c630072 	stclvs	0, cr0, [r3], #-456	; 0xfffffe38
  18:	5f6e6165 	svcpl	0x006e6165
  1c:	6f626572 	svcvs	0x00626572
  20:	7300746f 	movwvc	r7, #1135	; 0x46f
  24:	74726f68 	ldrbtvc	r6, [r2], #-3944	; 0xfffff098
  28:	736e7520 	cmnvc	lr, #32, 10	; 0x8000000
  2c:	656e6769 	strbvs	r6, [lr, #-1897]!	; 0xfffff897
  30:	6e692064 	cdpvs	0, 6, cr2, cr9, cr4, {3}
  34:	726b0074 	rsbvc	r0, fp, #116, 0	; 0x74
  38:	6572665f 	ldrbvs	r6, [r2, #-1631]!	; 0xfffff9a1
  3c:	5f5f0065 	svcpl	0x005f0065
  40:	434e5546 	movtmi	r5, #58694	; 0xe546
  44:	4e4f4954 			; <UNDEFINED> instruction: 0x4e4f4954
  48:	30005f5f 	andcc	r5, r0, pc, asr pc
  4c:	7365742d 	cmnvc	r5, #754974720	; 0x2d000000
  50:	616d2d74 	smcvs	53972	; 0xd2d4
  54:	636f6c6c 	cmnvs	pc, #108, 24	; 0x6c00
  58:	6e00632e 	cdpvs	3, 0, cr6, cr0, cr14, {1}
  5c:	74736574 	ldrbtvc	r6, [r3], #-1396	; 0xfffffa8c
  60:	6f6c0073 	svcvs	0x006c0073
  64:	6c20676e 	stcvs	7, cr6, [r0], #-440	; 0xfffffe48
  68:	20676e6f 	rsbcs	r6, r7, pc, ror #28
  6c:	69736e75 	ldmdbvs	r3!, {r0, r2, r4, r5, r6, r9, sl, fp, sp, lr}^
  70:	64656e67 	strbtvs	r6, [r5], #-3687	; 0xfffff199
  74:	746e6920 	strbtvc	r6, [lr], #-2336	; 0xfffff6e0
  78:	6e6f6c00 	cdpvs	12, 6, cr6, cr15, cr0, {0}
  7c:	6f6c2067 	svcvs	0x006c2067
  80:	6920676e 	stmdbvs	r0!, {r1, r2, r3, r5, r6, r8, r9, sl, sp, lr}
  84:	7200746e 	andvc	r7, r0, #1845493760	; 0x6e000000
  88:	705f6970 	subsvc	r6, pc, r0, ror r9	; <UNPREDICTABLE>
  8c:	68637475 	stmdavs	r3!, {r0, r2, r4, r5, r6, sl, ip, sp, lr}^
  90:	2f007261 	svccs	0x00007261
  94:	72657355 	rsbvc	r7, r5, #1409286145	; 0x54000001
  98:	72742f73 	rsbsvc	r2, r4, #460	; 0x1cc
  9c:	65747369 	ldrbvs	r7, [r4, #-873]!	; 0xfffffc97
  a0:	6c6f6e6e 	stclvs	14, cr6, [pc], #-440	; fffffef0 <__bss_end__+0xffff62a8>
  a4:	6e616d6c 	cdpvs	13, 6, cr6, cr1, cr12, {3}
  a8:	636f442f 	cmnvs	pc, #788529152	; 0x2f000000
  ac:	6e656d75 	mcrvs	13, 3, r6, cr5, cr5, {3}
  b0:	532f7374 			; <UNDEFINED> instruction: 0x532f7374
  b4:	6e697270 	mcrvs	2, 3, r7, cr9, cr0, {3}
  b8:	75515f67 	ldrbvc	r5, [r1, #-3943]	; 0xfffff099
  bc:	65747261 	ldrbvs	r7, [r4, #-609]!	; 0xfffffd9f
  c0:	30325f72 	eorscc	r5, r2, r2, ror pc
  c4:	432f3232 			; <UNDEFINED> instruction: 0x432f3232
  c8:	30343253 	eorscc	r3, r4, r3, asr r2
  cc:	732d584c 			; <UNDEFINED> instruction: 0x732d584c
  d0:	32327270 	eorscc	r7, r2, #112, 4
  d4:	62616c2f 	rsbvs	r6, r1, #12032	; 0x2f00
  d8:	2d352f73 	ldccs	15, cr2, [r5, #-460]!	; 0xfffffe34
  dc:	6c6c616d 	stfvse	f6, [ip], #-436	; 0xfffffe4c
  e0:	672b636f 	strvs	r6, [fp, -pc, ror #6]!
  e4:	2d322f63 	ldccs	15, cr2, [r2, #-396]!	; 0xfffffe74
  e8:	6c616b63 			; <UNDEFINED> instruction: 0x6c616b63
  ec:	00636f6c 	rsbeq	r6, r3, ip, ror #30
  f0:	726f6873 	rsbvc	r6, pc, #7536640	; 0x730000
  f4:	6e692074 	mcrvs	0, 3, r2, cr9, cr4, {3}
  f8:	726b0074 	rsbvc	r0, fp, #116, 0	; 0x74
  fc:	6c616d5f 	stclvs	13, cr6, [r1], #-380	; 0xfffffe84
 100:	00636f6c 	rsbeq	r6, r3, ip, ror #30
 104:	20554e47 	subscs	r4, r5, r7, asr #28
 108:	20393943 	eorscs	r3, r9, r3, asr #18
 10c:	2e322e39 	mrccs	14, 1, r2, cr2, cr9, {1}
 110:	30322031 	eorscc	r2, r2, r1, lsr r0
 114:	30313931 	eorscc	r3, r1, r1, lsr r9
 118:	28203532 	stmdacs	r0!, {r1, r4, r5, r8, sl, ip, sp}
 11c:	656c6572 	strbvs	r6, [ip, #-1394]!	; 0xfffffa8e
 120:	29657361 	stmdbcs	r5!, {r0, r5, r6, r8, r9, ip, sp, lr}^
 124:	52415b20 	subpl	r5, r1, #32, 22	; 0x8000
 128:	72612f4d 	rsbvc	r2, r1, #308	; 0x134
 12c:	2d392d6d 	ldccs	13, cr2, [r9, #-436]!	; 0xfffffe4c
 130:	6e617262 	cdpvs	2, 6, cr7, cr1, cr2, {3}
 134:	72206863 	eorvc	r6, r0, #6488064	; 0x630000
 138:	73697665 	cmnvc	r9, #105906176	; 0x6500000
 13c:	206e6f69 	rsbcs	r6, lr, r9, ror #30
 140:	35373732 	ldrcc	r3, [r7, #-1842]!	; 0xfffff8ce
 144:	205d3939 	subscs	r3, sp, r9, lsr r9
 148:	70636d2d 	rsbvc	r6, r3, sp, lsr #26
 14c:	72613d75 	rsbvc	r3, r1, #7488	; 0x1d40
 150:	3731316d 	ldrcc	r3, [r1, -sp, ror #2]!
 154:	667a6a36 			; <UNDEFINED> instruction: 0x667a6a36
 158:	2d20732d 	stccs	3, cr7, [r0, #-180]!	; 0xffffff4c
 15c:	6e75746d 	cdpvs	4, 7, cr7, cr5, cr13, {3}
 160:	72613d65 	rsbvc	r3, r1, #6464	; 0x1940
 164:	3731316d 	ldrcc	r3, [r1, -sp, ror #2]!
 168:	667a6a36 			; <UNDEFINED> instruction: 0x667a6a36
 16c:	2d20732d 	stccs	3, cr7, [r0, #-180]!	; 0xffffff4c
 170:	6f6c666d 	svcvs	0x006c666d
 174:	612d7461 			; <UNDEFINED> instruction: 0x612d7461
 178:	733d6962 	teqvc	sp, #1605632	; 0x188000
 17c:	2074666f 	rsbscs	r6, r4, pc, ror #12
 180:	72616d2d 	rsbvc	r6, r1, #2880	; 0xb40
 184:	6d2d206d 	stcvs	0, cr2, [sp, #-436]!	; 0xfffffe4c
 188:	68637261 	stmdavs	r3!, {r0, r5, r6, r9, ip, sp, lr}^
 18c:	6d72613d 	ldfvse	f6, [r2, #-244]!	; 0xffffff0c
 190:	7a6b3676 	bvc	1acdb70 <__bss_end__+0x1ac3f28>
 194:	67672d20 	strbvs	r2, [r7, -r0, lsr #26]!
 198:	2d206264 	sfmcs	f6, 4, [r0, #-400]!	; 0xfffffe70
 19c:	2d20674f 	stccs	7, cr6, [r0, #-316]!	; 0xfffffec4
 1a0:	3d647473 	cfstrdcc	mvd7, [r4, #-460]!	; 0xfffffe34
 1a4:	39756e67 	ldmdbcc	r5!, {r0, r1, r2, r5, r6, r9, sl, fp, sp, lr}^
 1a8:	662d2039 			; <UNDEFINED> instruction: 0x662d2039
 1ac:	65657266 	strbvs	r7, [r5, #-614]!	; 0xfffffd9a
 1b0:	6e617473 	mcrvs	4, 3, r7, cr1, cr3, {3}
 1b4:	676e6964 	strbvs	r6, [lr, -r4, ror #18]!
 1b8:	61656800 	cmnvs	r5, r0, lsl #16
 1bc:	00726564 	rsbseq	r6, r2, r4, ror #10
 1c0:	76657270 			; <UNDEFINED> instruction: 0x76657270
 1c4:	6c610070 	stclvs	0, cr0, [r1], #-448	; 0xfffffe40
 1c8:	006e6769 	rsbeq	r6, lr, r9, ror #14
 1cc:	65657266 	strbvs	r7, [r5, #-614]!	; 0xfffffd9a
 1d0:	756e0070 	strbvc	r0, [lr, #-112]!	; 0xffffff90
 1d4:	7374696e 	cmnvc	r4, #1802240	; 0x1b8000
 1d8:	2d726b00 	vldmdbcs	r2!, {d22-d21}
 1dc:	6c6c616d 	stfvse	f6, [ip], #-436	; 0xfffffe4c
 1e0:	632e636f 			; <UNDEFINED> instruction: 0x632e636f
 1e4:	756f6400 	strbvc	r6, [pc, #-1024]!	; fffffdec <__bss_end__+0xffff61a4>
 1e8:	00656c62 	rsbeq	r6, r5, r2, ror #24
 1ec:	65736162 	ldrbvs	r6, [r3, #-354]!	; 0xfffffe9e
 1f0:	5f726b00 	svcpl	0x00726b00
 1f4:	65726f6d 	ldrbvs	r6, [r2, #-3949]!	; 0xfffff093
 1f8:	65726f63 	ldrbvs	r6, [r2, #-3939]!	; 0xfffff09d
 1fc:	72627300 	rsbvc	r7, r2, #0, 6
 200:	6973006b 	ldmdbvs	r3!, {r0, r1, r3, r5, r6}^
 204:	4800657a 	stmdami	r0, {r1, r3, r4, r5, r6, r8, sl, sp, lr}
 208:	65646165 	strbvs	r6, [r4, #-357]!	; 0xfffffe9b
 20c:	6e690072 	mcrvs	0, 3, r0, cr9, cr2, {3}
 210:	6d657263 	sfmvs	f7, 2, [r5, #-396]!	; 0xfffffe74
 214:	00746e65 	rsbseq	r6, r4, r5, ror #28
 218:	6c616d6b 	stclvs	13, cr6, [r1], #-428	; 0xfffffe54
 21c:	00636f6c 	rsbeq	r6, r3, ip, ror #30
 220:	732d6970 			; <UNDEFINED> instruction: 0x732d6970
 224:	2e6b7262 	cdpcs	2, 6, cr7, cr11, cr2, {3}
 228:	4e470063 	cdpmi	0, 4, cr0, cr7, cr3, {3}
 22c:	39432055 	stmdbcc	r3, {r0, r2, r4, r6, sp}^
 230:	2e392039 	mrccs	0, 1, r2, cr9, cr9, {1}
 234:	20312e32 	eorscs	r2, r1, r2, lsr lr
 238:	39313032 	ldmdbcc	r1!, {r1, r4, r5, ip, sp}
 23c:	35323031 	ldrcc	r3, [r2, #-49]!	; 0xffffffcf
 240:	65722820 	ldrbvs	r2, [r2, #-2080]!	; 0xfffff7e0
 244:	7361656c 	cmnvc	r1, #108, 10	; 0x1b000000
 248:	5b202965 	blpl	80a7e4 <__bss_end__+0x800b9c>
 24c:	2f4d5241 	svccs	0x004d5241
 250:	2d6d7261 	sfmcs	f7, 2, [sp, #-388]!	; 0xfffffe7c
 254:	72622d39 	rsbvc	r2, r2, #3648	; 0xe40
 258:	68636e61 	stmdavs	r3!, {r0, r5, r6, r9, sl, fp, sp, lr}^
 25c:	76657220 	strbtvc	r7, [r5], -r0, lsr #4
 260:	6f697369 	svcvs	0x00697369
 264:	3732206e 	ldrcc	r2, [r2, -lr, rrx]!
 268:	39393537 	ldmdbcc	r9!, {r0, r1, r2, r4, r5, r8, sl, ip, sp}
 26c:	6d2d205d 	stcvs	0, cr2, [sp, #-372]!	; 0xfffffe8c
 270:	3d757063 	ldclcc	0, cr7, [r5, #-396]!	; 0xfffffe74
 274:	316d7261 	cmncc	sp, r1, ror #4
 278:	6a363731 	bvs	d8df44 <__bss_end__+0xd842fc>
 27c:	732d667a 			; <UNDEFINED> instruction: 0x732d667a
 280:	746d2d20 	strbtvc	r2, [sp], #-3360	; 0xfffff2e0
 284:	3d656e75 	stclcc	14, cr6, [r5, #-468]!	; 0xfffffe2c
 288:	316d7261 	cmncc	sp, r1, ror #4
 28c:	6a363731 	bvs	d8df58 <__bss_end__+0xd84310>
 290:	732d667a 			; <UNDEFINED> instruction: 0x732d667a
 294:	666d2d20 	strbtvs	r2, [sp], -r0, lsr #26
 298:	74616f6c 	strbtvc	r6, [r1], #-3948	; 0xfffff094
 29c:	6962612d 	stmdbvs	r2!, {r0, r2, r3, r5, r8, sp, lr}^
 2a0:	666f733d 			; <UNDEFINED> instruction: 0x666f733d
 2a4:	6d2d2074 	stcvs	0, cr2, [sp, #-464]!	; 0xfffffe30
 2a8:	206d7261 	rsbcs	r7, sp, r1, ror #4
 2ac:	72616d2d 	rsbvc	r6, r1, #2880	; 0xb40
 2b0:	613d6863 	teqvs	sp, r3, ror #16
 2b4:	36766d72 			; <UNDEFINED> instruction: 0x36766d72
 2b8:	2d207a6b 	vstmdbcs	r0!, {s14-s120}
 2bc:	62646767 	rsbvs	r6, r4, #27000832	; 0x19c0000
 2c0:	67672d20 	strbvs	r2, [r7, -r0, lsr #26]!
 2c4:	2d206264 	sfmcs	f6, 4, [r0, #-400]!	; 0xfffffe70
 2c8:	2d20674f 	stccs	7, cr6, [r0, #-316]!	; 0xfffffec4
 2cc:	2d20674f 	stccs	7, cr6, [r0, #-316]!	; 0xfffffec4
 2d0:	3d647473 	cfstrdcc	mvd7, [r4, #-460]!	; 0xfffffe34
 2d4:	39756e67 	ldmdbcc	r5!, {r0, r1, r2, r5, r6, r9, sl, fp, sp, lr}^
 2d8:	732d2039 			; <UNDEFINED> instruction: 0x732d2039
 2dc:	673d6474 			; <UNDEFINED> instruction: 0x673d6474
 2e0:	3939756e 	ldmdbcc	r9!, {r1, r2, r3, r5, r6, r8, sl, ip, sp, lr}
 2e4:	66662d20 	strbtvs	r2, [r6], -r0, lsr #26
 2e8:	73656572 	cmnvc	r5, #478150656	; 0x1c800000
 2ec:	646e6174 	strbtvs	r6, [lr], #-372	; 0xfffffe8c
 2f0:	00676e69 	rsbeq	r6, r7, r9, ror #28
 2f4:	73677261 	cmnvc	r7, #268435462	; 0x10000006
 2f8:	5f617600 	svcpl	0x00617600
 2fc:	6e697270 	mcrvs	2, 3, r7, cr9, cr0, {3}
 300:	5f006b74 	svcpl	0x00006b74
 304:	756e675f 	strbvc	r6, [lr, #-1887]!	; 0xfffff8a1
 308:	61765f63 	cmnvs	r6, r3, ror #30
 30c:	73696c5f 	cmnvc	r9, #24320	; 0x5f00
 310:	5f5f0074 	svcpl	0x005f0074
 314:	6c5f6176 	ldfvse	f6, [pc], {118}	; 0x76
 318:	00747369 	rsbseq	r7, r4, r9, ror #6
 31c:	70615f5f 	rsbvc	r5, r1, pc, asr pc
 320:	6c2f2e00 	stcvs	14, cr2, [pc], #-0	; 328 <__code_start__-0x7cd8>
 324:	2f636269 	svccs	0x00636269
 328:	6e697270 	mcrvs	2, 3, r7, cr9, cr0, {3}
 32c:	632e6b74 			; <UNDEFINED> instruction: 0x632e6b74
 330:	73552f00 	cmpvc	r5, #0, 30
 334:	2f737265 	svccs	0x00737265
 338:	73697274 	cmnvc	r9, #116, 4	; 0x40000007
 33c:	6e6e6574 	mcrvs	5, 3, r6, cr14, cr4, {3}
 340:	6d6c6c6f 	stclvs	12, cr6, [ip, #-444]!	; 0xfffffe44
 344:	442f6e61 	strtmi	r6, [pc], #-3681	; 34c <__code_start__-0x7cb4>
 348:	6d75636f 	ldclvs	3, cr6, [r5, #-444]!	; 0xfffffe44
 34c:	73746e65 	cmnvc	r4, #1616	; 0x650
 350:	7270532f 	rsbsvc	r5, r0, #-1140850688	; 0xbc000000
 354:	5f676e69 	svcpl	0x00676e69
 358:	72617551 	rsbvc	r7, r1, #339738624	; 0x14400000
 35c:	5f726574 	svcpl	0x00726574
 360:	32323032 	eorscc	r3, r2, #50, 0	; 0x32
 364:	3253432f 	subscc	r4, r3, #-1140850688	; 0xbc000000
 368:	584c3034 	stmdapl	ip, {r2, r4, r5, ip, sp}^
 36c:	7270732d 	rsbsvc	r7, r0, #-1275068416	; 0xb4000000
 370:	6c2f3232 	sfmvs	f3, 4, [pc], #-200	; 2b0 <__code_start__-0x7d50>
 374:	69706269 	ldmdbvs	r0!, {r0, r3, r5, r6, r9, sp, lr}^
 378:	746e6900 	strbtvc	r6, [lr], #-2304	; 0xfffff700
 37c:	616e7265 	cmnvs	lr, r5, ror #4
 380:	75705f6c 	ldrbvc	r5, [r0, #-3948]!	; 0xfffff094
 384:	2e006b74 	vmovcs.16	d0[1], r6
 388:	62696c2f 	rsbvs	r6, r9, #12032	; 0x2f00
 38c:	75702f63 	ldrbvc	r2, [r0, #-3939]!	; 0xfffff09d
 390:	632e6b74 			; <UNDEFINED> instruction: 0x632e6b74
 394:	64736900 	ldrbtvs	r6, [r3], #-2304	; 0xfffff700
 398:	74696769 	strbtvc	r6, [r9], #-1897	; 0xfffff897
 39c:	6e697500 	cdpvs	5, 6, cr7, cr9, cr0, {0}
 3a0:	5f343674 	svcpl	0x00343674
 3a4:	2f2e0074 	svccs	0x002e0074
 3a8:	6362696c 	cmnvs	r2, #108, 18	; 0x1b0000
 3ac:	2d61762f 	stclcs	6, cr7, [r1, #-188]!	; 0xffffff44
 3b0:	6e697270 	mcrvs	2, 3, r7, cr9, cr0, {3}
 3b4:	632e6b74 			; <UNDEFINED> instruction: 0x632e6b74
 3b8:	635f5f00 	cmpvs	pc, #0, 30
 3bc:	5f65646f 	svcpl	0x0065646f
 3c0:	72617473 	rsbvc	r7, r1, #1929379840	; 0x73000000
 3c4:	005f5f74 	subseq	r5, pc, r4, ror pc	; <UNPREDICTABLE>
 3c8:	73625f5f 	cmnvc	r2, #380	; 0x17c
 3cc:	74735f73 	ldrbtvc	r5, [r3], #-3955	; 0xfffff08d
 3d0:	5f747261 	svcpl	0x00747261
 3d4:	6977005f 	ldmdbvs	r7!, {r0, r1, r2, r3, r4, r6}^
 3d8:	00687464 	rsbeq	r7, r8, r4, ror #8
 3dc:	61645f5f 	cmnvs	r4, pc, asr pc
 3e0:	655f6174 	ldrbvs	r6, [pc, #-372]	; 274 <__code_start__-0x7d8c>
 3e4:	5f5f646e 	svcpl	0x005f646e
 3e8:	74757000 	ldrbtvc	r7, [r5], #-0
 3ec:	70665f63 	rsbvc	r5, r6, r3, ror #30
 3f0:	625f5f00 	subsvs	r5, pc, #0, 30
 3f4:	655f7373 	ldrbvs	r7, [pc, #-883]	; 89 <__code_start__-0x7f77>
 3f8:	5f5f646e 	svcpl	0x005f646e
 3fc:	685f5f00 	ldmdavs	pc, {r8, r9, sl, fp, ip, lr}^	; <UNPREDICTABLE>
 400:	5f706165 	svcpl	0x00706165
 404:	72617473 	rsbvc	r7, r1, #1929379840	; 0x73000000
 408:	005f5f74 	subseq	r5, pc, r4, ror pc	; <UNPREDICTABLE>
 40c:	746e6975 	strbtvc	r6, [lr], #-2421	; 0xfffff68b
 410:	745f3233 	ldrbvc	r3, [pc], #-563	; 418 <__code_start__-0x7be8>
 414:	69707200 	ldmdbvs	r0!, {r9, ip, sp, lr}^
 418:	7465735f 	strbtvc	r7, [r5], #-863	; 0xfffffca1
 41c:	74756f5f 	ldrbtvc	r6, [r5], #-3935	; 0xfffff0a1
 420:	00747570 	rsbseq	r7, r4, r0, ror r5
 424:	5f746d66 	svcpl	0x00746d66
 428:	72617473 	rsbvc	r7, r1, #1929379840	; 0x73000000
 42c:	74730074 	ldrbtvc	r0, [r3], #-116	; 0xffffff8c
 430:	79706372 	ldmdbvc	r0!, {r1, r4, r5, r6, r8, r9, sp, lr}^
 434:	67656e00 	strbvs	r6, [r5, -r0, lsl #28]!
 438:	5f00705f 	svcpl	0x0000705f
 43c:	646f635f 	strbtvs	r6, [pc], #-863	; 444 <__code_start__-0x7bbc>
 440:	6e655f65 	cdpvs	15, 6, cr5, cr5, cr5, {3}
 444:	005f5f64 	subseq	r5, pc, r4, ror #30
 448:	74696d65 	strbtvc	r6, [r9], #-3429	; 0xfffff29b
 44c:	74757000 	ldrbtvc	r7, [r5], #-0
 450:	70665f73 	rsbvc	r5, r6, r3, ror pc
 454:	76657200 	strbtvc	r7, [r5], -r0, lsl #4
 458:	65737265 	ldrbvs	r7, [r3, #-613]!	; 0xfffffd9b
 45c:	72747300 	rsbsvc	r7, r4, #0, 6
 460:	00746163 	rsbseq	r6, r4, r3, ror #2
 464:	63727473 	cmnvs	r2, #1929379840	; 0x73000000
 468:	5f00706d 	svcpl	0x0000706d
 46c:	7461645f 	strbtvc	r6, [r1], #-1119	; 0xfffffba1
 470:	74735f61 	ldrbtvc	r5, [r3], #-3937	; 0xfffff09f
 474:	5f747261 	svcpl	0x00747261
 478:	5f5f005f 	svcpl	0x005f005f
 47c:	676f7270 			; <UNDEFINED> instruction: 0x676f7270
 480:	646e655f 	strbtvs	r6, [lr], #-1375	; 0xfffffaa1
 484:	6e005f5f 	mcrvs	15, 0, r5, cr0, cr15, {2}
 488:	00316d75 	eorseq	r6, r1, r5, ror sp
 48c:	6e727473 	mrcvs	4, 3, r7, cr2, cr3, {3}
 490:	00706d63 	rsbseq	r6, r0, r3, ror #26
 494:	6e676973 			; <UNDEFINED> instruction: 0x6e676973
 498:	705f6465 	subsvc	r6, pc, r5, ror #8
 49c:	69707200 	ldmdbvs	r0!, {r9, ip, sp, lr}^
 4a0:	6265725f 	rsbvs	r7, r5, #-268435451	; 0xf0000005
 4a4:	00746f6f 	rsbseq	r6, r4, pc, ror #30
 4a8:	616c6564 	cmnvs	ip, r4, ror #10
 4ac:	736d5f79 	cmnvc	sp, #484	; 0x1e4
 4b0:	732f2e00 			; <UNDEFINED> instruction: 0x732f2e00
 4b4:	66666174 			; <UNDEFINED> instruction: 0x66666174
 4b8:	6372732d 	cmnvs	r2, #-1275068416	; 0xb4000000
 4bc:	656c632f 	strbvs	r6, [ip, #-815]!	; 0xfffffcd1
 4c0:	722d6e61 	eorvc	r6, sp, #1552	; 0x610
 4c4:	6f6f6265 	svcvs	0x006f6265
 4c8:	00632e74 	rsbeq	r2, r3, r4, ror lr
 4cc:	74726175 	ldrbtvc	r6, [r2], #-373	; 0xfffffe8b
 4d0:	756c665f 	strbvc	r6, [ip, #-1631]!	; 0xfffff9a1
 4d4:	745f6873 	ldrbvc	r6, [pc], #-2163	; 4dc <__code_start__-0x7b24>
 4d8:	635f0078 	cmpvs	pc, #120, 0	; 0x78
 4dc:	72617473 	rsbvc	r7, r1, #1929379840	; 0x73000000
 4e0:	73620074 	cmnvc	r2, #116, 0	; 0x74
 4e4:	6e655f73 	mcrvs	15, 3, r5, cr5, cr3, {3}
 4e8:	61750064 	cmnvs	r5, r4, rrx
 4ec:	695f7472 	ldmdbvs	pc, {r1, r4, r5, r6, sl, ip, sp, lr}^	; <UNPREDICTABLE>
 4f0:	0074696e 	rsbseq	r6, r4, lr, ror #18
 4f4:	74737563 	ldrbtvc	r7, [r3], #-1379	; 0xfffffa9d
 4f8:	6c5f6d6f 	mrrcvs	13, 6, r6, pc, cr15	; <UNPREDICTABLE>
 4fc:	6564616f 	strbvs	r6, [r4, #-367]!	; 0xfffffe91
 500:	2f2e0072 	svccs	0x002e0072
 504:	66617473 			; <UNDEFINED> instruction: 0x66617473
 508:	72732d66 	rsbsvc	r2, r3, #6528	; 0x1980
 50c:	73632f63 	cmnvc	r3, #396	; 0x18c
 510:	74726174 	ldrbtvc	r6, [r2], #-372	; 0xfffffe8c
 514:	2e00632e 	cdpcs	3, 0, cr6, cr0, cr14, {1}
 518:	6174732f 	cmnvs	r4, pc, lsr #6
 51c:	732d6666 			; <UNDEFINED> instruction: 0x732d6666
 520:	632f6372 			; <UNDEFINED> instruction: 0x632f6372
 524:	6f747375 	svcvs	0x00747375
 528:	6f6c2d6d 	svcvs	0x006c2d6d
 52c:	72656461 	rsbvc	r6, r5, #1627389952	; 0x61000000
 530:	7200632e 	andvc	r6, r0, #-1207959552	; 0xb8000000
 534:	6f6f6265 	svcvs	0x006f6265
 538:	61635f74 	smcvs	13812	; 0x35f4
 53c:	756f6c6c 	strbvc	r6, [pc, #-3180]!	; fffff8d8 <__bss_end__+0xffff5c90>
 540:	4d500074 	ldclmi	0, cr0, [r0, #-464]	; 0xfffffe30
 544:	4f44575f 	svcmi	0x0044575f
 548:	55500047 	ldrbpl	r0, [r0, #-71]	; 0xffffffb9
 54c:	00323354 	eorseq	r3, r2, r4, asr r3
 550:	5f746573 	svcpl	0x00746573
 554:	72657375 	rsbvc	r7, r5, #-738197503	; 0xd4000001
 558:	76656c5f 			; <UNDEFINED> instruction: 0x76656c5f
 55c:	2e006c65 	cdpcs	12, 0, cr6, cr0, cr5, {3}
 560:	6174732f 	cmnvs	r4, pc, lsr #6
 564:	732d6666 			; <UNDEFINED> instruction: 0x732d6666
 568:	722f6372 	eorvc	r6, pc, #-939524095	; 0xc8000001
 56c:	6f6f6265 	svcvs	0x006f6265
 570:	00632e74 	rsbeq	r2, r3, r4, ror lr
 574:	505f4d50 	subspl	r4, pc, r0, asr sp	; <UNPREDICTABLE>
 578:	57535341 	ldrbpl	r5, [r3, -r1, asr #6]
 57c:	0044524f 	subeq	r5, r4, pc, asr #4
 580:	755f7461 	ldrbvc	r7, [pc, #-1121]	; 127 <__code_start__-0x7ed9>
 584:	5f726573 	svcpl	0x00726573
 588:	6576656c 	ldrbvs	r6, [r6, #-1388]!	; 0xfffffa94
 58c:	4d50006c 	ldclmi	0, cr0, [r0, #-432]	; 0xfffffe50
 590:	5453525f 	ldrbpl	r5, [r3], #-607	; 0xfffffda1
 594:	52575f43 	subspl	r5, r7, #268	; 0x10c
 598:	5f474643 	svcpl	0x00474643
 59c:	4c4c5546 	cfstr64mi	mvdx5, [ip], {70}	; 0x46
 5a0:	5345525f 	movtpl	r5, #21087	; 0x525f
 5a4:	50005445 	andpl	r5, r0, r5, asr #8
 5a8:	53525f4d 	cmppl	r2, #308	; 0x134
 5ac:	63004354 	movwvs	r4, #852	; 0x354
 5b0:	00727370 	rsbseq	r7, r2, r0, ror r3
 5b4:	5f766564 	svcpl	0x00766564
 5b8:	72726162 	rsbsvc	r6, r2, #-2147483624	; 0x80000018
 5bc:	00726569 	rsbseq	r6, r2, r9, ror #10
 5c0:	616c6564 	cmnvs	ip, r4, ror #10
 5c4:	65735f79 	ldrbvs	r5, [r3, #-3961]!	; 0xfffff087
 5c8:	2f2e0063 	svccs	0x002e0063
 5cc:	66617473 			; <UNDEFINED> instruction: 0x66617473
 5d0:	72732d66 	rsbsvc	r2, r3, #6528	; 0x1980
 5d4:	69742f63 	ldmdbvs	r4!, {r0, r1, r5, r6, r8, r9, sl, fp, sp}^
 5d8:	2e72656d 	cdpcs	5, 7, cr6, cr2, cr13, {3}
 5dc:	45470063 	strbmi	r0, [r7, #-99]	; 0xffffff9d
 5e0:	00323354 	eorseq	r3, r2, r4, asr r3
 5e4:	656d6974 	strbvs	r6, [sp, #-2420]!	; 0xfffff68c
 5e8:	65675f72 	strbvs	r5, [r7, #-3954]!	; 0xfffff08e
 5ec:	73755f74 	cmnvc	r5, #116, 30	; 0x1d0
 5f0:	64006365 	strvs	r6, [r0], #-869	; 0xfffffc9b
 5f4:	79616c65 	stmdbvc	r1!, {r0, r2, r5, r6, sl, fp, sp, lr}^
 5f8:	0073755f 	rsbseq	r7, r3, pc, asr r5
 5fc:	656d6974 	strbvs	r6, [sp, #-2420]!	; 0xfffff68c
 600:	65675f72 	strbvs	r5, [r7, #-3954]!	; 0xfffff08e
 604:	73755f74 	cmnvc	r5, #116, 30	; 0x1d0
 608:	725f6365 	subsvc	r6, pc, #-1811939327	; 0x94000001
 60c:	70007761 	andvc	r7, r0, r1, ror #14
 610:	32337475 	eorscc	r7, r3, #1962934272	; 0x75000000
 614:	75616200 	strbvc	r6, [r1, #-512]!	; 0xfffffe00
 618:	61765f64 	cmnvs	r6, r4, ror #30
 61c:	7473006c 	ldrbtvc	r0, [r3], #-108	; 0xffffff94
 620:	75007461 	strvc	r7, [r0, #-1121]	; 0xfffffb9f
 624:	5f747261 	svcpl	0x00747261
 628:	5f6e6163 	svcpl	0x006e6163
 62c:	63746567 	cmnvs	r4, #432013312	; 0x19c00000
 630:	49504700 	ldmdbmi	r0, {r8, r9, sl, lr}^
 634:	55465f4f 	strbpl	r5, [r6, #-3919]	; 0xfffff0b1
 638:	4f5f434e 	svcmi	0x005f434e
 63c:	55505455 	ldrbpl	r5, [r0, #-1109]	; 0xfffffbab
 640:	75610054 	strbvc	r0, [r1, #-84]!	; 0xffffffac
 644:	65705f78 	ldrbvs	r5, [r0, #-3960]!	; 0xfffff088
 648:	68706972 	ldmdavs	r0!, {r1, r4, r5, r6, r8, fp, sp, lr}^
 64c:	61750073 	cmnvs	r5, r3, ror r0
 650:	632e7472 			; <UNDEFINED> instruction: 0x632e7472
 654:	72617500 	rsbvc	r7, r1, #0, 10
 658:	61635f74 	smcvs	13812	; 0x35f4
 65c:	75705f6e 	ldrbvc	r5, [r0, #-3950]!	; 0xfffff092
 660:	75006374 	strvc	r6, [r0, #-884]	; 0xfffffc8c
 664:	5f747261 	svcpl	0x00747261
 668:	695f7874 	ldmdbvs	pc, {r2, r4, r5, r6, fp, ip, sp, lr}^	; <UNPREDICTABLE>
 66c:	6d655f73 	stclvs	15, cr5, [r5, #-460]!	; 0xfffffe34
 670:	00797470 	rsbseq	r7, r9, r0, ror r4
 674:	4f495047 	svcmi	0x00495047
 678:	4e55465f 	mrcmi	6, 2, r4, cr5, cr15, {2}
 67c:	4c415f43 	mcrrmi	15, 4, r5, r1, cr3
 680:	47003054 	smlsdmi	r0, r4, r0, r3
 684:	5f4f4950 	svcpl	0x004f4950
 688:	434e5546 	movtmi	r5, #58694	; 0xe546
 68c:	544c415f 	strbpl	r4, [ip], #-351	; 0xfffffea1
 690:	50470031 	subpl	r0, r7, r1, lsr r0
 694:	465f4f49 	ldrbmi	r4, [pc], -r9, asr #30
 698:	5f434e55 	svcpl	0x00434e55
 69c:	32544c41 	subscc	r4, r4, #16640	; 0x4100
 6a0:	49504700 	ldmdbmi	r0, {r8, r9, sl, lr}^
 6a4:	55465f4f 	strbpl	r5, [r6, #-3919]	; 0xfffff0b1
 6a8:	415f434e 	cmpmi	pc, lr, asr #6
 6ac:	0033544c 	eorseq	r5, r3, ip, asr #8
 6b0:	4f495047 	svcmi	0x00495047
 6b4:	4e55465f 	mrcmi	6, 2, r4, cr5, cr15, {2}
 6b8:	4c415f43 	mcrrmi	15, 4, r5, r1, cr3
 6bc:	2f003554 	svccs	0x00003554
 6c0:	656d6f68 	strbvs	r6, [sp, #-3944]!	; 0xfffff098
 6c4:	676e652f 	strbvs	r6, [lr, -pc, lsr #10]!
 6c8:	2f72656c 	svccs	0x0072656c
 6cc:	73616c63 	cmnvc	r1, #25344	; 0x6300
 6d0:	73632f73 	cmnvc	r3, #460	; 0x1cc
 6d4:	6c303432 	cfldrsvs	mvf3, [r0], #-200	; 0xffffff38
 6d8:	32322d78 	eorscc	r2, r2, #120, 26	; 0x1e00
 6dc:	2f727073 	svccs	0x00727073
 6e0:	7062696c 	rsbvc	r6, r2, ip, ror #18
 6e4:	74732f69 	ldrbtvc	r2, [r3], #-3945	; 0xfffff097
 6e8:	2d666661 	stclcs	6, cr6, [r6, #-388]!	; 0xfffffe7c
 6ec:	76697270 			; <UNDEFINED> instruction: 0x76697270
 6f0:	00657461 	rsbeq	r7, r5, r1, ror #8
 6f4:	64756162 	ldrbtvs	r6, [r5], #-354	; 0xfffffe9e
 6f8:	78756100 	ldmdavc	r5!, {r8, sp, lr}^
 6fc:	616e655f 	cmnvs	lr, pc, asr r5
 700:	73656c62 	cmnvc	r5, #25088	; 0x6200
 704:	72617500 	rsbvc	r7, r1, #0, 10
 708:	65675f74 	strbvs	r5, [r7, #-3956]!	; 0xfffff08c
 70c:	47006374 	smlsdxmi	r0, r4, r3, r6
 710:	4320554e 			; <UNDEFINED> instruction: 0x4320554e
 714:	31203939 			; <UNDEFINED> instruction: 0x31203939
 718:	2e332e30 	mrccs	14, 1, r2, cr3, cr0, {1}
 71c:	30322031 	eorscc	r2, r2, r1, lsr r0
 720:	38303132 	ldmdacc	r0!, {r1, r4, r5, r8, ip, sp}
 724:	28203432 	stmdacs	r0!, {r1, r4, r5, sl, ip, sp}
 728:	656c6572 	strbvs	r6, [ip, #-1394]!	; 0xfffffa8e
 72c:	29657361 	stmdbcs	r5!, {r0, r5, r6, r8, r9, ip, sp, lr}^
 730:	636d2d20 	cmnvs	sp, #32, 26	; 0x800
 734:	613d7570 	teqvs	sp, r0, ror r5
 738:	31316d72 	teqcc	r1, r2, ror sp
 73c:	7a6a3637 	bvc	1a8e020 <__bss_end__+0x1a843d8>
 740:	20732d66 	rsbscs	r2, r3, r6, ror #26
 744:	75746d2d 	ldrbvc	r6, [r4, #-3373]!	; 0xfffff2d3
 748:	613d656e 	teqvs	sp, lr, ror #10
 74c:	31316d72 	teqcc	r1, r2, ror sp
 750:	7a6a3637 	bvc	1a8e034 <__bss_end__+0x1a843ec>
 754:	20732d66 	rsbscs	r2, r3, r6, ror #26
 758:	6c666d2d 	stclvs	13, cr6, [r6], #-180	; 0xffffff4c
 75c:	2d74616f 	ldfcse	f6, [r4, #-444]!	; 0xfffffe44
 760:	3d696261 	sfmcc	f6, 2, [r9, #-388]!	; 0xfffffe7c
 764:	74666f73 	strbtvc	r6, [r6], #-3955	; 0xfffff08d
 768:	616d2d20 	cmnvs	sp, r0, lsr #26
 76c:	2d206d72 	stccs	13, cr6, [r0, #-456]!	; 0xfffffe38
 770:	6372616d 	cmnvs	r2, #1073741851	; 0x4000001b
 774:	72613d68 	rsbvc	r3, r1, #104, 26	; 0x1a00
 778:	6b36766d 	blvs	d9e134 <__bss_end__+0xd944ec>
 77c:	672d207a 			; <UNDEFINED> instruction: 0x672d207a
 780:	20626467 	rsbcs	r6, r2, r7, ror #8
 784:	20674f2d 	rsbcs	r4, r7, sp, lsr #30
 788:	6474732d 	ldrbtvs	r7, [r4], #-813	; 0xfffffcd3
 78c:	756e673d 	strbvc	r6, [lr, #-1853]!	; 0xfffff8c3
 790:	2d203939 			; <UNDEFINED> instruction: 0x2d203939
 794:	65726666 	ldrbvs	r6, [r2, #-1638]!	; 0xfffff99a
 798:	61747365 	cmnvs	r4, r5, ror #6
 79c:	6e69646e 	cdpvs	4, 6, cr6, cr9, cr14, {3}
 7a0:	6e630067 	cdpvs	0, 6, cr0, cr3, cr7, {3}
 7a4:	75006c74 	strvc	r6, [r0, #-3188]	; 0xfffff38c
 7a8:	5f747261 	svcpl	0x00747261
 7ac:	61736964 	cmnvs	r3, r4, ror #18
 7b0:	00656c62 	rsbeq	r6, r5, r2, ror #24
 7b4:	74726175 	ldrbtvc	r6, [r2], #-373	; 0xfffffe8b
 7b8:	7361685f 	cmnvc	r1, #6225920	; 0x5f0000
 7bc:	7461645f 	strbtvc	r6, [r1], #-1119	; 0xfffffba1
 7c0:	50470061 	subpl	r0, r7, r1, rrx
 7c4:	465f4f49 	ldrbmi	r4, [pc], -r9, asr #30
 7c8:	5f434e55 	svcpl	0x00434e55
 7cc:	34544c41 	ldrbcc	r4, [r4], #-3137	; 0xfffff3bf
 7d0:	5f726f00 	svcpl	0x00726f00
 7d4:	32336e69 	eorscc	r6, r3, #1680	; 0x690
 7d8:	72637300 	rsbvc	r7, r3, #0, 6
 7dc:	68637461 	stmdavs	r3!, {r0, r5, r6, sl, ip, sp, lr}^
 7e0:	72617500 	rsbvc	r7, r1, #0, 10
 7e4:	6e610074 	mcrvs	0, 3, r0, cr1, cr4, {3}
 7e8:	6e695f64 	cdpvs	15, 6, cr5, cr9, cr4, {3}
 7ec:	75003233 	strvc	r3, [r0, #-563]	; 0xfffffdcd
 7f0:	5f747261 	svcpl	0x00747261
 7f4:	63747570 	cmnvs	r4, #112, 10	; 0x1c000000
 7f8:	49504700 	ldmdbmi	r0, {r8, r9, sl, lr}^
 7fc:	55465f4f 	strbpl	r5, [r6, #-3919]	; 0xfffff0b1
 800:	495f434e 	ldmdbmi	pc, {r1, r2, r3, r6, r8, r9, lr}^	; <UNPREDICTABLE>
 804:	5455504e 	ldrbpl	r5, [r5], #-78	; 0xffffffb2
 808:	69706700 	ldmdbvs	r0!, {r8, r9, sl, sp, lr}^
 80c:	65735f6f 	ldrbvs	r5, [r3, #-3951]!	; 0xfffff091
 810:	75665f74 	strbvc	r5, [r6, #-3956]!	; 0xfffff08c
 814:	6974636e 	ldmdbvs	r4!, {r1, r2, r3, r5, r6, r8, r9, sp, lr}^
 818:	67006e6f 	strvs	r6, [r0, -pc, ror #28]
 81c:	32337465 	eorscc	r7, r3, #1694498816	; 0x65000000
 820:	616d6b00 	cmnvs	sp, r0, lsl #22
 824:	636f6c6c 	cmnvs	pc, #108, 24	; 0x6c00
 828:	6165685f 	cmnvs	r5, pc, asr r8
 82c:	74735f70 	ldrbtvc	r5, [r3], #-3952	; 0xfffff090
 830:	00747261 	rsbseq	r7, r4, r1, ror #4
 834:	5f78616d 	svcpl	0x0078616d
 838:	7479626e 	ldrbtvc	r6, [r9], #-622	; 0xfffffd92
 83c:	5f007365 	svcpl	0x00007365
 840:	72646461 	rsbvc	r6, r4, #1627389952	; 0x61000000
 844:	72666b00 	rsbvc	r6, r6, #0, 22
 848:	68006565 	stmdavs	r0, {r0, r2, r5, r6, r8, sl, sp, lr}
 84c:	5f706165 	svcpl	0x00706165
 850:	0078616d 	rsbseq	r6, r8, sp, ror #2
 854:	6572666b 	ldrbvs	r6, [r2, #-1643]!	; 0xfffff995
 858:	6c615f65 	stclvs	15, cr5, [r1], #-404	; 0xfffffe6c
 85c:	6f72006c 	svcvs	0x0072006c
 860:	75646e75 	strbvc	r6, [r4, #-3701]!	; 0xfffff18b
 864:	65680070 	strbvs	r0, [r8, #-112]!	; 0xffffff90
 868:	69007061 	stmdbvs	r0, {r0, r5, r6, ip, sp, lr}
 86c:	5f74696e 	svcpl	0x0074696e
 870:	666b0070 			; <UNDEFINED> instruction: 0x666b0070
 874:	5f656572 	svcpl	0x00656572
 878:	00706f70 	rsbseq	r6, r0, r0, ror pc
 87c:	736d656d 	cmnvc	sp, #457179136	; 0x1b400000
 880:	61007465 	tstvs	r0, r5, ror #8
 884:	6e67696c 	vnmulvs.f16	s13, s14, s25	; <UNPREDICTABLE>
 888:	746e656d 	strbtvc	r6, [lr], #-1389	; 0xfffffa93
 88c:	78616d00 	stmdavc	r1!, {r8, sl, fp, sp, lr}^
 890:	3233755f 	eorscc	r7, r3, #398458880	; 0x17c00000
 894:	656e4f00 	strbvs	r4, [lr, #-3840]!	; 0xfffff100
 898:	6b00424d 	blvs	111d4 <__bss_end__+0x758c>
 89c:	6c6c616d 	stfvse	f6, [ip], #-436	; 0xfffffe4c
 8a0:	685f636f 	ldmdavs	pc, {r0, r1, r2, r3, r5, r6, r8, r9, sp, lr}^	; <UNPREDICTABLE>
 8a4:	5f706165 	svcpl	0x00706165
 8a8:	00646e65 	rsbeq	r6, r4, r5, ror #28
 8ac:	6c616d6b 	stclvs	13, cr6, [r1], #-428	; 0xfffffe54
 8b0:	5f636f6c 	svcpl	0x00636f6c
 8b4:	7a746f6e 	bvc	1d1c674 <__bss_end__+0x1d12a2c>
 8b8:	006f7265 	rsbeq	r7, pc, r5, ror #4
 8bc:	705f7369 	subsvc	r7, pc, r9, ror #6
 8c0:	0032776f 	eorseq	r7, r2, pc, ror #14
 8c4:	6c616d6b 	stclvs	13, cr6, [r1], #-428	; 0xfffffe54
 8c8:	2e636f6c 	cdpcs	15, 6, cr6, cr3, cr12, {3}
 8cc:	6d6b0063 	stclvs	0, cr0, [fp, #-396]!	; 0xfffffe74
 8d0:	6f6c6c61 	svcvs	0x006c6c61
 8d4:	6e695f63 	cdpvs	15, 6, cr5, cr9, cr3, {3}
 8d8:	69007469 	stmdbvs	r0, {r0, r3, r5, r6, sl, ip, sp, lr}
 8dc:	6c615f73 	stclvs	15, cr5, [r1], #-460	; 0xfffffe34
 8e0:	656e6769 	strbvs	r6, [lr, #-1897]!	; 0xfffff897
 8e4:	6d6b0064 	stclvs	0, cr0, [fp, #-400]!	; 0xfffffe70
 8e8:	6f6c6c61 	svcvs	0x006c6c61
 8ec:	65685f63 	strbvs	r5, [r8, #-3939]!	; 0xfffff09d
 8f0:	705f7061 	subsvc	r7, pc, r1, rrx
 8f4:	6b007274 	blvs	1d2cc <__bss_end__+0x13684>
 8f8:	6c6c616d 	stfvse	f6, [ip], #-436	; 0xfffffe4c
 8fc:	695f636f 	ldmdbvs	pc, {r0, r1, r2, r3, r5, r6, r8, r9, sp, lr}^	; <UNPREDICTABLE>
 900:	5f74696e 	svcpl	0x0074696e
 904:	5f746573 	svcpl	0x00746573
 908:	72617473 	rsbvc	r7, r1, #1929379840	; 0x73000000
 90c:	70720074 	rsbsvc	r0, r2, r4, ror r0
 910:	65725f69 	ldrbvs	r5, [r2, #-3945]!	; 0xfffff097
 914:	5f746573 	svcpl	0x00746573
 918:	63747570 	cmnvs	r4, #112, 10	; 0x1c000000
 91c:	616d6b00 	cmnvs	sp, r0, lsl #22
 920:	636f6c6c 	cmnvs	pc, #108, 24	; 0x6c00
 924:	696c615f 	stmdbvs	ip!, {r0, r1, r2, r3, r4, r6, r8, sp, lr}^
 928:	64656e67 	strbtvs	r6, [r5], #-3687	; 0xfffff199
 92c:	7a697300 	bvc	1a5d534 <__bss_end__+0x1a538ec>
 930:	00745f65 	rsbseq	r5, r4, r5, ror #30
 934:	696c2f2e 	stmdbvs	ip!, {r1, r2, r3, r5, r8, r9, sl, fp, sp}^
 938:	6d2f6362 	stcvs	3, cr6, [pc, #-392]!	; 7b8 <__code_start__-0x7848>
 93c:	65736d65 	ldrbvs	r6, [r3, #-3429]!	; 0xfffff29b
 940:	00632e74 	rsbeq	r2, r3, r4, ror lr
 944:	65746e69 	ldrbvs	r6, [r4, #-3689]!	; 0xfffff197
 948:	6c616e72 	stclvs	14, cr6, [r1], #-456	; 0xfffffe38
 94c:	7475705f 	ldrbtvc	r7, [r5], #-95	; 0xffffffa1
 950:	72616863 	rsbvc	r6, r1, #6488064	; 0x630000
 954:	69707200 	ldmdbvs	r0!, {r9, ip, sp, lr}^
 958:	7465735f 	strbtvc	r7, [r5], #-863	; 0xfffffca1
 95c:	7475705f 	ldrbtvc	r7, [r5], #-95	; 0xffffffa1
 960:	2f2e0063 	svccs	0x002e0063
 964:	6362696c 	cmnvs	r2, #108, 18	; 0x1b0000
 968:	7475702f 	ldrbtvc	r7, [r5], #-47	; 0xffffffd1
 96c:	72616863 	rsbvc	r6, r1, #6488064	; 0x630000
 970:	6400632e 	strvs	r6, [r0], #-814	; 0xfffffcd2
 974:	00747365 	rsbseq	r7, r4, r5, ror #6
 978:	696c2f2e 	stmdbvs	ip!, {r1, r2, r3, r5, r8, r9, sl, fp, sp}^
 97c:	732f6362 			; <UNDEFINED> instruction: 0x732f6362
 980:	61637274 	smcvs	14116	; 0x3724
 984:	00632e74 	rsbeq	r2, r3, r4, ror lr
 988:	696c2f2e 	stmdbvs	ip!, {r1, r2, r3, r5, r8, r9, sl, fp, sp}^
 98c:	732f6362 			; <UNDEFINED> instruction: 0x732f6362
 990:	6d637274 	sfmvs	f7, 2, [r3, #-464]!	; 0xfffffe30
 994:	00632e70 	rsbeq	r2, r3, r0, ror lr
 998:	696c2f2e 	stmdbvs	ip!, {r1, r2, r3, r5, r8, r9, sl, fp, sp}^
 99c:	732f6362 			; <UNDEFINED> instruction: 0x732f6362
 9a0:	70637274 	rsbvc	r7, r3, r4, ror r2
 9a4:	00632e79 	rsbeq	r2, r3, r9, ror lr
 9a8:	696c2f2e 	stmdbvs	ip!, {r1, r2, r3, r5, r8, r9, sl, fp, sp}^
 9ac:	732f6362 			; <UNDEFINED> instruction: 0x732f6362
 9b0:	636e7274 	cmnvs	lr, #116, 4	; 0x40000007
 9b4:	632e706d 			; <UNDEFINED> instruction: 0x632e706d
 9b8:	732f2e00 			; <UNDEFINED> instruction: 0x732f2e00
 9bc:	66666174 			; <UNDEFINED> instruction: 0x66666174
 9c0:	6372732d 	cmnvs	r2, #-1275068416	; 0xb4000000
 9c4:	6665642f 	strbtvs	r6, [r5], -pc, lsr #8
 9c8:	746c7561 	strbtvc	r7, [ip], #-1377	; 0xfffffa9f
 9cc:	6265722d 	rsbvs	r7, r5, #-805306366	; 0xd0000002
 9d0:	2d746f6f 	ldclcs	15, cr6, [r4, #-444]!	; 0xfffffe44
 9d4:	6c6c6163 	stfvse	f6, [ip], #-396	; 0xfffffe74
 9d8:	2e74756f 	cdpcs	5, 7, cr7, cr4, cr15, {3}
 9dc:	70670063 	rsbvc	r0, r7, r3, rrx
 9e0:	635f6f69 	cmpvs	pc, #420	; 0x1a4
 9e4:	0030726c 	eorseq	r7, r0, ip, ror #4
 9e8:	6f697067 	svcvs	0x00697067
 9ec:	7465735f 	strbtvc	r7, [r5], #-863	; 0xfffffca1
 9f0:	70670030 	rsbvc	r0, r7, r0, lsr r0
 9f4:	775f6f69 	ldrbvc	r6, [pc, -r9, ror #30]
 9f8:	65746972 	ldrbvs	r6, [r4, #-2418]!	; 0xfffff68e
 9fc:	56454400 	strbpl	r4, [r5], -r0, lsl #8
 a00:	4c41565f 	mcrrmi	6, 5, r5, r1, cr15
 a04:	67003233 	smladxvs	r0, r3, r2, r3
 a08:	5f6f6970 	svcpl	0x006f6970
 a0c:	64616572 	strbtvs	r6, [r1], #-1394	; 0xfffffa8e
 a10:	69706700 	ldmdbvs	r0!, {r8, r9, sl, sp, lr}^
 a14:	65735f6f 	ldrbvs	r5, [r3, #-3951]!	; 0xfffff091
 a18:	6e695f74 	mcrvs	15, 3, r5, cr9, cr4, {3}
 a1c:	00747570 	rsbseq	r7, r4, r0, ror r5
 a20:	6f697067 	svcvs	0x00697067
 a24:	7465735f 	strbtvc	r7, [r5], #-863	; 0xfffffca1
 a28:	66666f5f 	uqsaxvs	r6, r6, pc	; <UNPREDICTABLE>
 a2c:	69706700 	ldmdbvs	r0!, {r8, r9, sl, sp, lr}^
 a30:	65735f6f 	ldrbvs	r5, [r3, #-3951]!	; 0xfffff091
 a34:	756f5f74 	strbvc	r5, [pc, #-3956]!	; fffffac8 <__bss_end__+0xffff5e80>
 a38:	74757074 	ldrbtvc	r7, [r5], #-116	; 0xffffff8c
 a3c:	6e756600 	cdpvs	6, 7, cr6, cr5, cr0, {0}
 a40:	70670063 	rsbvc	r0, r7, r3, rrx
 a44:	665f6f69 	ldrbvs	r6, [pc], -r9, ror #30
 a48:	5f636e75 	svcpl	0x00636e75
 a4c:	70670074 	rsbvc	r0, r7, r4, ror r0
 a50:	6c5f6f69 	mrrcvs	15, 6, r6, pc, cr9	; <UNPREDICTABLE>
 a54:	00307665 	eorseq	r7, r0, r5, ror #12
 a58:	6b6e6162 	blvs	1b98fe8 <__bss_end__+0x1b8f3a0>
 a5c:	69706700 	ldmdbvs	r0!, {r8, r9, sl, sp, lr}^
 a60:	00632e6f 	rsbeq	r2, r3, pc, ror #28
 a64:	6f697067 	svcvs	0x00697067
 a68:	7465735f 	strbtvc	r7, [r5], #-863	; 0xfffffca1
 a6c:	006e6f5f 	rsbeq	r6, lr, pc, asr pc

Disassembly of section .debug_frame:

00000000 <.debug_frame>:
   0:	0000000c 	andeq	r0, r0, ip
   4:	ffffffff 			; <UNDEFINED> instruction: 0xffffffff
   8:	7c020001 	stcvc	0, cr0, [r2], {1}
   c:	000d0c0e 	andeq	r0, sp, lr, lsl #24
  10:	00000020 	andeq	r0, r0, r0, lsr #32
  14:	00000000 	andeq	r0, r0, r0
  18:	00008038 	andeq	r8, r0, r8, lsr r0
  1c:	000000bc 	strheq	r0, [r0], -ip
  20:	84100e42 	ldrhi	r0, [r0], #-3650	; 0xfffff1be
  24:	86038504 	strhi	r8, [r3], -r4, lsl #10
  28:	42018e02 	andmi	r8, r1, #2, 28
  2c:	4c02180e 	stcmi	8, cr1, [r2], {14}
  30:	0000100e 	andeq	r1, r0, lr
  34:	0000000c 	andeq	r0, r0, ip
  38:	ffffffff 			; <UNDEFINED> instruction: 0xffffffff
  3c:	7c020001 	stcvc	0, cr0, [r2], {1}
  40:	000d0c0e 	andeq	r0, sp, lr, lsl #24
  44:	00000014 	andeq	r0, r0, r4, lsl r0
  48:	00000034 	andeq	r0, r0, r4, lsr r0
  4c:	000080f4 	strdeq	r8, [r0], -r4
  50:	000000bc 	strheq	r0, [r0], -ip
  54:	8e040e42 	cdphi	14, 0, cr0, cr4, cr2, {2}
  58:	00000001 	andeq	r0, r0, r1
  5c:	00000014 	andeq	r0, r0, r4, lsl r0
  60:	00000034 	andeq	r0, r0, r4, lsr r0
  64:	000081b0 			; <UNDEFINED> instruction: 0x000081b0
  68:	00000044 	andeq	r0, r0, r4, asr #32
  6c:	84080e42 	strhi	r0, [r8], #-3650	; 0xfffff1be
  70:	00018e02 	andeq	r8, r1, r2, lsl #28
  74:	00000014 	andeq	r0, r0, r4, lsl r0
  78:	00000034 	andeq	r0, r0, r4, lsr r0
  7c:	000081f4 	strdeq	r8, [r0], -r4
  80:	000000ac 	andeq	r0, r0, ip, lsr #1
  84:	84080e42 	strhi	r0, [r8], #-3650	; 0xfffff1be
  88:	00018e02 	andeq	r8, r1, r2, lsl #28
  8c:	0000000c 	andeq	r0, r0, ip
  90:	ffffffff 			; <UNDEFINED> instruction: 0xffffffff
  94:	7c020001 	stcvc	0, cr0, [r2], {1}
  98:	000d0c0e 	andeq	r0, sp, lr, lsl #24
  9c:	00000014 	andeq	r0, r0, r4, lsl r0
  a0:	0000008c 	andeq	r0, r0, ip, lsl #1
  a4:	000082a0 	andeq	r8, r0, r0, lsr #5
  a8:	0000000c 	andeq	r0, r0, ip
  ac:	84080e42 	strhi	r0, [r8], #-3650	; 0xfffff1be
  b0:	00018e02 	andeq	r8, r1, r2, lsl #28
  b4:	0000000c 	andeq	r0, r0, ip
  b8:	ffffffff 			; <UNDEFINED> instruction: 0xffffffff
  bc:	7c020001 	stcvc	0, cr0, [r2], {1}
  c0:	000d0c0e 	andeq	r0, sp, lr, lsl #24
  c4:	00000034 	andeq	r0, r0, r4, lsr r0
  c8:	000000b4 	strheq	r0, [r0], -r4
  cc:	000082ac 	andeq	r8, r0, ip, lsr #5
  d0:	00000058 	andeq	r0, r0, r8, asr r0
  d4:	80100e42 	andshi	r0, r0, r2, asr #28
  d8:	82038104 	andhi	r8, r3, #1
  dc:	42018302 	andmi	r8, r1, #134217728	; 0x8000000
  e0:	07841c0e 	streq	r1, [r4, lr, lsl #24]
  e4:	058e0685 	streq	r0, [lr, #1669]	; 0x685
  e8:	5c280e42 	stcpl	14, cr0, [r8], #-264	; 0xfffffef8
  ec:	ce421c0e 	cdpgt	12, 4, cr1, cr2, cr14, {0}
  f0:	100ec4c5 	andne	ip, lr, r5, asr #9
  f4:	c1c2c342 	bicgt	ip, r2, r2, asr #6
  f8:	00000ec0 	andeq	r0, r0, r0, asr #29
  fc:	0000000c 	andeq	r0, r0, ip
 100:	ffffffff 			; <UNDEFINED> instruction: 0xffffffff
 104:	7c020001 	stcvc	0, cr0, [r2], {1}
 108:	000d0c0e 	andeq	r0, sp, lr, lsl #24
 10c:	00000014 	andeq	r0, r0, r4, lsl r0
 110:	000000fc 	strdeq	r0, [r0], -ip
 114:	00008304 	andeq	r8, r0, r4, lsl #6
 118:	00000034 	andeq	r0, r0, r4, lsr r0
 11c:	84080e42 	strhi	r0, [r8], #-3650	; 0xfffff1be
 120:	00018e02 	andeq	r8, r1, r2, lsl #28
 124:	0000000c 	andeq	r0, r0, ip
 128:	ffffffff 			; <UNDEFINED> instruction: 0xffffffff
 12c:	7c020001 	stcvc	0, cr0, [r2], {1}
 130:	000d0c0e 	andeq	r0, sp, lr, lsl #24
 134:	0000000c 	andeq	r0, r0, ip
 138:	00000124 	andeq	r0, r0, r4, lsr #2
 13c:	00008338 	andeq	r8, r0, r8, lsr r3
 140:	00000014 	andeq	r0, r0, r4, lsl r0
 144:	0000000c 	andeq	r0, r0, ip
 148:	00000124 	andeq	r0, r0, r4, lsr #2
 14c:	0000834c 	andeq	r8, r0, ip, asr #6
 150:	00000024 	andeq	r0, r0, r4, lsr #32
 154:	0000000c 	andeq	r0, r0, ip
 158:	00000124 	andeq	r0, r0, r4, lsr #2
 15c:	00008370 	andeq	r8, r0, r0, ror r3
 160:	00000038 	andeq	r0, r0, r8, lsr r0
 164:	00000024 	andeq	r0, r0, r4, lsr #32
 168:	00000124 	andeq	r0, r0, r4, lsr #2
 16c:	000083a8 	andeq	r8, r0, r8, lsr #7
 170:	000001b4 			; <UNDEFINED> instruction: 0x000001b4
 174:	84140e42 	ldrhi	r0, [r4], #-3650	; 0xfffff1be
 178:	86048505 	strhi	r8, [r4], -r5, lsl #10
 17c:	8e028703 	cdphi	7, 0, cr8, cr2, cr3, {0}
 180:	600e4201 	andvs	r4, lr, r1, lsl #4
 184:	0e0a9a02 	vmlaeq.f32	s18, s20, s4
 188:	000b4214 	andeq	r4, fp, r4, lsl r2
 18c:	00000014 	andeq	r0, r0, r4, lsl r0
 190:	00000124 	andeq	r0, r0, r4, lsr #2
 194:	0000855c 	andeq	r8, r0, ip, asr r5
 198:	00000064 	andeq	r0, r0, r4, rrx
 19c:	8e040e54 	mcrhi	14, 0, r0, cr4, cr4, {2}
 1a0:	100e4201 	andne	r4, lr, r1, lsl #4
 1a4:	0000002c 	andeq	r0, r0, ip, lsr #32
 1a8:	00000124 	andeq	r0, r0, r4, lsr #2
 1ac:	000085c0 	andeq	r8, r0, r0, asr #11
 1b0:	000004b8 			; <UNDEFINED> instruction: 0x000004b8
 1b4:	84240e42 	strthi	r0, [r4], #-3650	; 0xfffff1be
 1b8:	86088509 	strhi	r8, [r8], -r9, lsl #10
 1bc:	88068707 	stmdahi	r6, {r0, r1, r2, r8, r9, sl, pc}
 1c0:	8a048905 	bhi	1225dc <__bss_end__+0x118994>
 1c4:	8e028b03 	vmlahi.f64	d8, d2, d3
 1c8:	b80e4201 	stmdalt	lr, {r0, r9, lr}
 1cc:	02380302 	eorseq	r0, r8, #134217728	; 0x8000000
 1d0:	0000240e 	andeq	r2, r0, lr, lsl #8
 1d4:	0000000c 	andeq	r0, r0, ip
 1d8:	ffffffff 			; <UNDEFINED> instruction: 0xffffffff
 1dc:	7c020001 	stcvc	0, cr0, [r2], {1}
 1e0:	000d0c0e 	andeq	r0, sp, lr, lsl #24
 1e4:	00000014 	andeq	r0, r0, r4, lsl r0
 1e8:	000001d4 	ldrdeq	r0, [r0], -r4
 1ec:	00008a78 	andeq	r8, r0, r8, ror sl
 1f0:	0000002c 	andeq	r0, r0, ip, lsr #32
 1f4:	84080e42 	strhi	r0, [r8], #-3650	; 0xfffff1be
 1f8:	00018e02 	andeq	r8, r1, r2, lsl #28
 1fc:	0000000c 	andeq	r0, r0, ip
 200:	ffffffff 			; <UNDEFINED> instruction: 0xffffffff
 204:	7c020001 	stcvc	0, cr0, [r2], {1}
 208:	000d0c0e 	andeq	r0, sp, lr, lsl #24
 20c:	00000014 	andeq	r0, r0, r4, lsl r0
 210:	000001fc 	strdeq	r0, [r0], -ip
 214:	00008aa4 	andeq	r8, r0, r4, lsr #21
 218:	0000003c 	andeq	r0, r0, ip, lsr r0
 21c:	84080e42 	strhi	r0, [r8], #-3650	; 0xfffff1be
 220:	00018e02 	andeq	r8, r1, r2, lsl #28
 224:	0000000c 	andeq	r0, r0, ip
 228:	ffffffff 			; <UNDEFINED> instruction: 0xffffffff
 22c:	7c020001 	stcvc	0, cr0, [r2], {1}
 230:	000d0c0e 	andeq	r0, sp, lr, lsl #24
 234:	0000000c 	andeq	r0, r0, ip
 238:	00000224 	andeq	r0, r0, r4, lsr #4
 23c:	00008ae0 	andeq	r8, r0, r0, ror #21
 240:	00000004 	andeq	r0, r0, r4
 244:	0000000c 	andeq	r0, r0, ip
 248:	ffffffff 			; <UNDEFINED> instruction: 0xffffffff
 24c:	7c020001 	stcvc	0, cr0, [r2], {1}
 250:	000d0c0e 	andeq	r0, sp, lr, lsl #24
 254:	0000000c 	andeq	r0, r0, ip
 258:	00000244 	andeq	r0, r0, r4, asr #4
 25c:	00008ae4 	andeq	r8, r0, r4, ror #21
 260:	00000018 	andeq	r0, r0, r8, lsl r0
 264:	0000000c 	andeq	r0, r0, ip
 268:	00000244 	andeq	r0, r0, r4, asr #4
 26c:	00008afc 	strdeq	r8, [r0], -ip
 270:	00000014 	andeq	r0, r0, r4, lsl r0
 274:	00000014 	andeq	r0, r0, r4, lsl r0
 278:	00000244 	andeq	r0, r0, r4, asr #4
 27c:	00008b10 	andeq	r8, r0, r0, lsl fp
 280:	00000054 	andeq	r0, r0, r4, asr r0
 284:	84080e42 	strhi	r0, [r8], #-3650	; 0xfffff1be
 288:	00018e02 	andeq	r8, r1, r2, lsl #28
 28c:	0000000c 	andeq	r0, r0, ip
 290:	ffffffff 			; <UNDEFINED> instruction: 0xffffffff
 294:	7c020001 	stcvc	0, cr0, [r2], {1}
 298:	000d0c0e 	andeq	r0, sp, lr, lsl #24
 29c:	00000014 	andeq	r0, r0, r4, lsl r0
 2a0:	0000028c 	andeq	r0, r0, ip, lsl #5
 2a4:	00008b64 	andeq	r8, r0, r4, ror #22
 2a8:	00000014 	andeq	r0, r0, r4, lsl r0
 2ac:	84080e42 	strhi	r0, [r8], #-3650	; 0xfffff1be
 2b0:	00018e02 	andeq	r8, r1, r2, lsl #28
 2b4:	00000014 	andeq	r0, r0, r4, lsl r0
 2b8:	0000028c 	andeq	r0, r0, ip, lsl #5
 2bc:	00008b78 	andeq	r8, r0, r8, ror fp
 2c0:	0000001c 	andeq	r0, r0, ip, lsl r0
 2c4:	84080e42 	strhi	r0, [r8], #-3650	; 0xfffff1be
 2c8:	00018e02 	andeq	r8, r1, r2, lsl #28
 2cc:	00000018 	andeq	r0, r0, r8, lsl r0
 2d0:	0000028c 	andeq	r0, r0, ip, lsl #5
 2d4:	00008b94 	muleq	r0, r4, fp
 2d8:	00000024 	andeq	r0, r0, r4, lsr #32
 2dc:	84100e42 	ldrhi	r0, [r0], #-3650	; 0xfffff1be
 2e0:	86038504 	strhi	r8, [r3], -r4, lsl #10
 2e4:	00018e02 	andeq	r8, r1, r2, lsl #28
 2e8:	00000014 	andeq	r0, r0, r4, lsl r0
 2ec:	0000028c 	andeq	r0, r0, ip, lsl #5
 2f0:	00008bb8 			; <UNDEFINED> instruction: 0x00008bb8
 2f4:	00000018 	andeq	r0, r0, r8, lsl r0
 2f8:	84080e42 	strhi	r0, [r8], #-3650	; 0xfffff1be
 2fc:	00018e02 	andeq	r8, r1, r2, lsl #28
 300:	00000014 	andeq	r0, r0, r4, lsl r0
 304:	0000028c 	andeq	r0, r0, ip, lsl #5
 308:	00008bd0 	ldrdeq	r8, [r0], -r0
 30c:	00000018 	andeq	r0, r0, r8, lsl r0
 310:	84080e42 	strhi	r0, [r8], #-3650	; 0xfffff1be
 314:	00018e02 	andeq	r8, r1, r2, lsl #28
 318:	0000000c 	andeq	r0, r0, ip
 31c:	ffffffff 			; <UNDEFINED> instruction: 0xffffffff
 320:	7c020001 	stcvc	0, cr0, [r2], {1}
 324:	000d0c0e 	andeq	r0, sp, lr, lsl #24
 328:	00000018 	andeq	r0, r0, r8, lsl r0
 32c:	00000318 	andeq	r0, r0, r8, lsl r3
 330:	00008be8 	andeq	r8, r0, r8, ror #23
 334:	00000020 	andeq	r0, r0, r0, lsr #32
 338:	84100e42 	ldrhi	r0, [r0], #-3650	; 0xfffff1be
 33c:	86038504 	strhi	r8, [r3], -r4, lsl #10
 340:	00018e02 	andeq	r8, r1, r2, lsl #28
 344:	00000018 	andeq	r0, r0, r8, lsl r0
 348:	00000318 	andeq	r0, r0, r8, lsl r3
 34c:	00008c08 	andeq	r8, r0, r8, lsl #24
 350:	00000020 	andeq	r0, r0, r0, lsr #32
 354:	84100e42 	ldrhi	r0, [r0], #-3650	; 0xfffff1be
 358:	86038504 	strhi	r8, [r3], -r4, lsl #10
 35c:	00018e02 	andeq	r8, r1, r2, lsl #28
 360:	00000014 	andeq	r0, r0, r4, lsl r0
 364:	00000318 	andeq	r0, r0, r8, lsl r3
 368:	00008c28 	andeq	r8, r0, r8, lsr #24
 36c:	000000b0 	strheq	r0, [r0], -r0	; <UNPREDICTABLE>
 370:	84080e42 	strhi	r0, [r8], #-3650	; 0xfffff1be
 374:	00018e02 	andeq	r8, r1, r2, lsl #28
 378:	00000014 	andeq	r0, r0, r4, lsl r0
 37c:	00000318 	andeq	r0, r0, r8, lsl r3
 380:	00008cd8 	ldrdeq	r8, [r0], -r8	; <UNPREDICTABLE>
 384:	00000018 	andeq	r0, r0, r8, lsl r0
 388:	84080e42 	strhi	r0, [r8], #-3650	; 0xfffff1be
 38c:	00018e02 	andeq	r8, r1, r2, lsl #28
 390:	00000014 	andeq	r0, r0, r4, lsl r0
 394:	00000318 	andeq	r0, r0, r8, lsl r3
 398:	00008cf0 	strdeq	r8, [r0], -r0
 39c:	00000020 	andeq	r0, r0, r0, lsr #32
 3a0:	84080e42 	strhi	r0, [r8], #-3650	; 0xfffff1be
 3a4:	00018e02 	andeq	r8, r1, r2, lsl #28
 3a8:	00000014 	andeq	r0, r0, r4, lsl r0
 3ac:	00000318 	andeq	r0, r0, r8, lsl r3
 3b0:	00008d10 	andeq	r8, r0, r0, lsl sp
 3b4:	00000030 	andeq	r0, r0, r0, lsr r0
 3b8:	84080e42 	strhi	r0, [r8], #-3650	; 0xfffff1be
 3bc:	00018e02 	andeq	r8, r1, r2, lsl #28
 3c0:	00000014 	andeq	r0, r0, r4, lsl r0
 3c4:	00000318 	andeq	r0, r0, r8, lsl r3
 3c8:	00008d40 	andeq	r8, r0, r0, asr #26
 3cc:	00000030 	andeq	r0, r0, r0, lsr r0
 3d0:	84080e42 	strhi	r0, [r8], #-3650	; 0xfffff1be
 3d4:	00018e02 	andeq	r8, r1, r2, lsl #28
 3d8:	00000014 	andeq	r0, r0, r4, lsl r0
 3dc:	00000318 	andeq	r0, r0, r8, lsl r3
 3e0:	00008d70 	andeq	r8, r0, r0, ror sp
 3e4:	00000010 	andeq	r0, r0, r0, lsl r0
 3e8:	84080e42 	strhi	r0, [r8], #-3650	; 0xfffff1be
 3ec:	00018e02 	andeq	r8, r1, r2, lsl #28
 3f0:	00000014 	andeq	r0, r0, r4, lsl r0
 3f4:	00000318 	andeq	r0, r0, r8, lsl r3
 3f8:	00008d80 	andeq	r8, r0, r0, lsl #27
 3fc:	00000020 	andeq	r0, r0, r0, lsr #32
 400:	84080e42 	strhi	r0, [r8], #-3650	; 0xfffff1be
 404:	00018e02 	andeq	r8, r1, r2, lsl #28
 408:	00000014 	andeq	r0, r0, r4, lsl r0
 40c:	00000318 	andeq	r0, r0, r8, lsl r3
 410:	00008da0 	andeq	r8, r0, r0, lsr #27
 414:	00000014 	andeq	r0, r0, r4, lsl r0
 418:	84080e42 	strhi	r0, [r8], #-3650	; 0xfffff1be
 41c:	00018e02 	andeq	r8, r1, r2, lsl #28
 420:	00000014 	andeq	r0, r0, r4, lsl r0
 424:	00000318 	andeq	r0, r0, r8, lsl r3
 428:	00008db4 			; <UNDEFINED> instruction: 0x00008db4
 42c:	00000024 	andeq	r0, r0, r4, lsr #32
 430:	84080e42 	strhi	r0, [r8], #-3650	; 0xfffff1be
 434:	00018e02 	andeq	r8, r1, r2, lsl #28
 438:	0000000c 	andeq	r0, r0, ip
 43c:	ffffffff 			; <UNDEFINED> instruction: 0xffffffff
 440:	7c020001 	stcvc	0, cr0, [r2], {1}
 444:	000d0c0e 	andeq	r0, sp, lr, lsl #24
 448:	0000000c 	andeq	r0, r0, ip
 44c:	00000438 	andeq	r0, r0, r8, lsr r4
 450:	00008dd8 	ldrdeq	r8, [r0], -r8	; <UNPREDICTABLE>
 454:	00000010 	andeq	r0, r0, r0, lsl r0
 458:	0000000c 	andeq	r0, r0, ip
 45c:	00000438 	andeq	r0, r0, r8, lsr r4
 460:	00008de8 	andeq	r8, r0, r8, ror #27
 464:	00000010 	andeq	r0, r0, r0, lsl r0
 468:	0000000c 	andeq	r0, r0, ip
 46c:	00000438 	andeq	r0, r0, r8, lsr r4
 470:	00008df8 	strdeq	r8, [r0], -r8	; <UNPREDICTABLE>
 474:	00000010 	andeq	r0, r0, r0, lsl r0
 478:	0000001c 	andeq	r0, r0, ip, lsl r0
 47c:	00000438 	andeq	r0, r0, r8, lsr r4
 480:	00008e08 	andeq	r8, r0, r8, lsl #28
 484:	0000009c 	muleq	r0, ip, r0
 488:	8e040e42 	cdphi	14, 0, cr0, cr4, cr2, {2}
 48c:	100e4201 	andne	r4, lr, r1, lsl #4
 490:	040e0a58 	streq	r0, [lr], #-2648	; 0xfffff5a8
 494:	00000b42 	andeq	r0, r0, r2, asr #22
 498:	00000014 	andeq	r0, r0, r4, lsl r0
 49c:	00000438 	andeq	r0, r0, r8, lsr r4
 4a0:	00008ea4 	andeq	r8, r0, r4, lsr #29
 4a4:	00000058 	andeq	r0, r0, r8, asr r0
 4a8:	84080e42 	strhi	r0, [r8], #-3650	; 0xfffff1be
 4ac:	00018e02 	andeq	r8, r1, r2, lsl #28
 4b0:	0000001c 	andeq	r0, r0, ip, lsl r0
 4b4:	00000438 	andeq	r0, r0, r8, lsr r4
 4b8:	00008efc 	strdeq	r8, [r0], -ip
 4bc:	00000098 	muleq	r0, r8, r0
 4c0:	8e040e42 	cdphi	14, 0, cr0, cr4, cr2, {2}
 4c4:	100e4201 	andne	r4, lr, r1, lsl #4
 4c8:	040e0a58 	streq	r0, [lr], #-2648	; 0xfffff5a8
 4cc:	00000b42 	andeq	r0, r0, r2, asr #22
 4d0:	00000020 	andeq	r0, r0, r0, lsr #32
 4d4:	00000438 	andeq	r0, r0, r8, lsr r4
 4d8:	00008f94 	muleq	r0, r4, pc	; <UNPREDICTABLE>
 4dc:	00000064 	andeq	r0, r0, r4, rrx
 4e0:	840c0e42 	strhi	r0, [ip], #-3650	; 0xfffff1be
 4e4:	8e028503 	cfsh32hi	mvfx8, mvfx2, #3
 4e8:	180e4201 	stmdane	lr, {r0, r9, lr}
 4ec:	0c0e0a54 			; <UNDEFINED> instruction: 0x0c0e0a54
 4f0:	00000b42 	andeq	r0, r0, r2, asr #22
 4f4:	0000001c 	andeq	r0, r0, ip, lsl r0
 4f8:	00000438 	andeq	r0, r0, r8, lsr r4
 4fc:	00008ff8 	strdeq	r8, [r0], -r8	; <UNPREDICTABLE>
 500:	00000118 	andeq	r0, r0, r8, lsl r1
 504:	8e040e42 	cdphi	14, 0, cr0, cr4, cr2, {2}
 508:	100e4201 	andne	r4, lr, r1, lsl #4
 50c:	040e0a6c 	streq	r0, [lr], #-2668	; 0xfffff594
 510:	00000b42 	andeq	r0, r0, r2, asr #22
 514:	0000000c 	andeq	r0, r0, ip
 518:	00000438 	andeq	r0, r0, r8, lsr r4
 51c:	00009110 	andeq	r9, r0, r0, lsl r1
 520:	00000004 	andeq	r0, r0, r4
 524:	0000000c 	andeq	r0, r0, ip
 528:	00000438 	andeq	r0, r0, r8, lsr r4
 52c:	00009114 	andeq	r9, r0, r4, lsl r1
 530:	00000014 	andeq	r0, r0, r4, lsl r0
 534:	00000014 	andeq	r0, r0, r4, lsl r0
 538:	00000438 	andeq	r0, r0, r8, lsr r4
 53c:	00009128 	andeq	r9, r0, r8, lsr #2
 540:	00000060 	andeq	r0, r0, r0, rrx
 544:	8e040e58 	mcrhi	14, 0, r0, cr4, cr8, {2}
 548:	100e4201 	andne	r4, lr, r1, lsl #4
 54c:	0000000c 	andeq	r0, r0, ip
 550:	ffffffff 			; <UNDEFINED> instruction: 0xffffffff
 554:	7c020001 	stcvc	0, cr0, [r2], {1}
 558:	000d0c0e 	andeq	r0, sp, lr, lsl #24
 55c:	0000000c 	andeq	r0, r0, ip
 560:	0000054c 	andeq	r0, r0, ip, asr #10
 564:	00009188 	andeq	r9, r0, r8, lsl #3
 568:	00000018 	andeq	r0, r0, r8, lsl r0
 56c:	0000000c 	andeq	r0, r0, ip
 570:	ffffffff 			; <UNDEFINED> instruction: 0xffffffff
 574:	7c020001 	stcvc	0, cr0, [r2], {1}
 578:	000d0c0e 	andeq	r0, sp, lr, lsl #24
 57c:	00000014 	andeq	r0, r0, r4, lsl r0
 580:	0000056c 	andeq	r0, r0, ip, ror #10
 584:	000091a0 	andeq	r9, r0, r0, lsr #3
 588:	00000014 	andeq	r0, r0, r4, lsl r0
 58c:	84080e42 	strhi	r0, [r8], #-3650	; 0xfffff1be
 590:	00018e02 	andeq	r8, r1, r2, lsl #28
 594:	0000000c 	andeq	r0, r0, ip
 598:	0000056c 	andeq	r0, r0, ip, ror #10
 59c:	000091b4 			; <UNDEFINED> instruction: 0x000091b4
 5a0:	00000018 	andeq	r0, r0, r8, lsl r0
 5a4:	0000000c 	andeq	r0, r0, ip
 5a8:	0000056c 	andeq	r0, r0, ip, ror #10
 5ac:	000091cc 	andeq	r9, r0, ip, asr #3
 5b0:	00000010 	andeq	r0, r0, r0, lsl r0
 5b4:	0000000c 	andeq	r0, r0, ip
 5b8:	ffffffff 			; <UNDEFINED> instruction: 0xffffffff
 5bc:	7c020001 	stcvc	0, cr0, [r2], {1}
 5c0:	000d0c0e 	andeq	r0, sp, lr, lsl #24
 5c4:	0000000c 	andeq	r0, r0, ip
 5c8:	000005b4 			; <UNDEFINED> instruction: 0x000005b4
 5cc:	000091dc 	ldrdeq	r9, [r0], -ip
 5d0:	00000034 	andeq	r0, r0, r4, lsr r0
 5d4:	0000000c 	andeq	r0, r0, ip
 5d8:	ffffffff 			; <UNDEFINED> instruction: 0xffffffff
 5dc:	7c020001 	stcvc	0, cr0, [r2], {1}
 5e0:	000d0c0e 	andeq	r0, sp, lr, lsl #24
 5e4:	0000000c 	andeq	r0, r0, ip
 5e8:	000005d4 	ldrdeq	r0, [r0], -r4
 5ec:	00009210 	andeq	r9, r0, r0, lsl r2
 5f0:	0000002c 	andeq	r0, r0, ip, lsr #32
 5f4:	0000000c 	andeq	r0, r0, ip
 5f8:	ffffffff 			; <UNDEFINED> instruction: 0xffffffff
 5fc:	7c020001 	stcvc	0, cr0, [r2], {1}
 600:	000d0c0e 	andeq	r0, sp, lr, lsl #24
 604:	0000000c 	andeq	r0, r0, ip
 608:	000005f4 	strdeq	r0, [r0], -r4
 60c:	0000923c 	andeq	r9, r0, ip, lsr r2
 610:	00000020 	andeq	r0, r0, r0, lsr #32
 614:	0000000c 	andeq	r0, r0, ip
 618:	ffffffff 			; <UNDEFINED> instruction: 0xffffffff
 61c:	7c020001 	stcvc	0, cr0, [r2], {1}
 620:	000d0c0e 	andeq	r0, sp, lr, lsl #24
 624:	0000000c 	andeq	r0, r0, ip
 628:	00000614 	andeq	r0, r0, r4, lsl r6
 62c:	0000925c 	andeq	r9, r0, ip, asr r2
 630:	0000002c 	andeq	r0, r0, ip, lsr #32
 634:	0000000c 	andeq	r0, r0, ip
 638:	ffffffff 			; <UNDEFINED> instruction: 0xffffffff
 63c:	7c020001 	stcvc	0, cr0, [r2], {1}
 640:	000d0c0e 	andeq	r0, sp, lr, lsl #24
 644:	0000000c 	andeq	r0, r0, ip
 648:	00000634 	andeq	r0, r0, r4, lsr r6
 64c:	00009288 	andeq	r9, r0, r8, lsl #5
 650:	00000004 	andeq	r0, r0, r4
 654:	0000000c 	andeq	r0, r0, ip
 658:	ffffffff 			; <UNDEFINED> instruction: 0xffffffff
 65c:	7c020001 	stcvc	0, cr0, [r2], {1}
 660:	000d0c0e 	andeq	r0, sp, lr, lsl #24
 664:	00000018 	andeq	r0, r0, r8, lsl r0
 668:	00000654 	andeq	r0, r0, r4, asr r6
 66c:	000092a4 	andeq	r9, r0, r4, lsr #5
 670:	00000064 	andeq	r0, r0, r4, rrx
 674:	84100e46 	ldrhi	r0, [r0], #-3654	; 0xfffff1ba
 678:	86038504 	strhi	r8, [r3], -r4, lsl #10
 67c:	00018e02 	andeq	r8, r1, r2, lsl #28
 680:	00000014 	andeq	r0, r0, r4, lsl r0
 684:	00000654 	andeq	r0, r0, r4, asr r6
 688:	00009308 	andeq	r9, r0, r8, lsl #6
 68c:	00000010 	andeq	r0, r0, r0, lsl r0
 690:	84080e42 	strhi	r0, [r8], #-3650	; 0xfffff1be
 694:	00018e02 	andeq	r8, r1, r2, lsl #28
 698:	00000014 	andeq	r0, r0, r4, lsl r0
 69c:	00000654 	andeq	r0, r0, r4, asr r6
 6a0:	00009318 	andeq	r9, r0, r8, lsl r3
 6a4:	00000024 	andeq	r0, r0, r4, lsr #32
 6a8:	84080e46 	strhi	r0, [r8], #-3654	; 0xfffff1ba
 6ac:	00018e02 	andeq	r8, r1, r2, lsl #28
 6b0:	00000014 	andeq	r0, r0, r4, lsl r0
 6b4:	00000654 	andeq	r0, r0, r4, asr r6
 6b8:	0000933c 	andeq	r9, r0, ip, lsr r3
 6bc:	00000024 	andeq	r0, r0, r4, lsr #32
 6c0:	84080e46 	strhi	r0, [r8], #-3654	; 0xfffff1ba
 6c4:	00018e02 	andeq	r8, r1, r2, lsl #28
 6c8:	00000014 	andeq	r0, r0, r4, lsl r0
 6cc:	00000654 	andeq	r0, r0, r4, asr r6
 6d0:	00009360 	andeq	r9, r0, r0, ror #6
 6d4:	00000010 	andeq	r0, r0, r0, lsl r0
 6d8:	84080e42 	strhi	r0, [r8], #-3650	; 0xfffff1be
 6dc:	00018e02 	andeq	r8, r1, r2, lsl #28
 6e0:	00000014 	andeq	r0, r0, r4, lsl r0
 6e4:	00000654 	andeq	r0, r0, r4, asr r6
 6e8:	00009370 	andeq	r9, r0, r0, ror r3
 6ec:	0000001c 	andeq	r0, r0, ip, lsl r0
 6f0:	84080e42 	strhi	r0, [r8], #-3650	; 0xfffff1be
 6f4:	00018e02 	andeq	r8, r1, r2, lsl #28
 6f8:	00000018 	andeq	r0, r0, r8, lsl r0
 6fc:	00000654 	andeq	r0, r0, r4, asr r6
 700:	0000938c 	andeq	r9, r0, ip, lsl #7
 704:	00000034 	andeq	r0, r0, r4, lsr r0
 708:	84080e46 	strhi	r0, [r8], #-3654	; 0xfffff1ba
 70c:	4e018e02 	cdpmi	14, 0, cr8, cr1, cr2, {0}
 710:	cec4000e 	cdpgt	0, 12, cr0, cr4, cr14, {0}
