
1-test-malloc.elf:     file format elf32-littlearm


Disassembly of section .text:

00008000 <__code_start__>:
    8000:	e3a00013 	mov	r0, #19, 0
    8004:	e3800080 	orr	r0, r0, #128, 0	; 0x80
    8008:	e129f000 	msr	CPSR_fc, r0
    800c:	e3a01000 	mov	r1, #0, 0
    8010:	ee071f95 	mcr	15, 0, r1, cr7, cr5, {4}
    8014:	e3a0d302 	mov	sp, #134217728	; 0x8000000
    8018:	e3a0b000 	mov	fp, #0, 0
    801c:	eb0002ae 	bl	8adc <_cstart>
    8020:	eb0002c8 	bl	8b48 <rpi_reboot>

00008024 <PUT32>:
    8024:	e5801000 	str	r1, [r0]
    8028:	e12fff1e 	bx	lr

0000802c <GET32>:
    802c:	e5900000 	ldr	r0, [r0]
    8030:	e12fff1e 	bx	lr

00008034 <BRANCHTO>:
    8034:	e12fff10 	bx	r0

00008038 <notmain>:
    8038:	e92d4070 	push	{r4, r5, r6, lr}
    803c:	e24dd010 	sub	sp, sp, #16, 0
    8040:	e3a00001 	mov	r0, #1, 0
    8044:	eb000078 	bl	822c <kr_malloc>
    8048:	e1a06000 	mov	r6, r0
    804c:	e1a01000 	mov	r1, r0
    8050:	e59f00b4 	ldr	r0, [pc, #180]	; 810c <notmain+0xd4>
    8054:	eb0000a2 	bl	82e4 <printk>
    8058:	e3a05000 	mov	r5, #0, 0
    805c:	e3550009 	cmp	r5, #9, 0
    8060:	ca000024 	bgt	80f8 <notmain+0xc0>
    8064:	e3a00001 	mov	r0, #1, 0
    8068:	eb00006f 	bl	822c <kr_malloc>
    806c:	e1a04000 	mov	r4, r0
    8070:	e1a01000 	mov	r1, r0
    8074:	e59f0090 	ldr	r0, [pc, #144]	; 810c <notmain+0xd4>
    8078:	eb000099 	bl	82e4 <printk>
    807c:	e1560004 	cmp	r6, r4
    8080:	9a000008 	bls	80a8 <notmain+0x70>
    8084:	e2463010 	sub	r3, r6, #16, 0
    8088:	e1530004 	cmp	r3, r4
    808c:	1a00000d 	bne	80c8 <notmain+0x90>
    8090:	e1a01005 	mov	r1, r5
    8094:	e59f0074 	ldr	r0, [pc, #116]	; 8110 <notmain+0xd8>
    8098:	eb000091 	bl	82e4 <printk>
    809c:	e2855001 	add	r5, r5, #1, 0
    80a0:	e1a06004 	mov	r6, r4
    80a4:	eaffffec 	b	805c <notmain+0x24>
    80a8:	e59f3064 	ldr	r3, [pc, #100]	; 8114 <notmain+0xdc>
    80ac:	e58d3000 	str	r3, [sp]
    80b0:	e3a03021 	mov	r3, #33, 0	; 0x21
    80b4:	e59f205c 	ldr	r2, [pc, #92]	; 8118 <notmain+0xe0>
    80b8:	e59f105c 	ldr	r1, [pc, #92]	; 811c <notmain+0xe4>
    80bc:	e59f005c 	ldr	r0, [pc, #92]	; 8120 <notmain+0xe8>
    80c0:	eb000087 	bl	82e4 <printk>
    80c4:	eb000279 	bl	8ab0 <clean_reboot>
    80c8:	e0443006 	sub	r3, r4, r6
    80cc:	e58d300c 	str	r3, [sp, #12]
    80d0:	e3a03010 	mov	r3, #16, 0
    80d4:	e58d3008 	str	r3, [sp, #8]
    80d8:	e58d4004 	str	r4, [sp, #4]
    80dc:	e58d6000 	str	r6, [sp]
    80e0:	e3a03023 	mov	r3, #35, 0	; 0x23
    80e4:	e59f202c 	ldr	r2, [pc, #44]	; 8118 <notmain+0xe0>
    80e8:	e59f102c 	ldr	r1, [pc, #44]	; 811c <notmain+0xe4>
    80ec:	e59f0030 	ldr	r0, [pc, #48]	; 8124 <notmain+0xec>
    80f0:	eb00007b 	bl	82e4 <printk>
    80f4:	eb00026d 	bl	8ab0 <clean_reboot>
    80f8:	e3a0100a 	mov	r1, #10, 0
    80fc:	e59f0024 	ldr	r0, [pc, #36]	; 8128 <notmain+0xf0>
    8100:	eb000077 	bl	82e4 <printk>
    8104:	e28dd010 	add	sp, sp, #16, 0
    8108:	e8bd8070 	pop	{r4, r5, r6, pc}
    810c:	000093f8 	strdeq	r9, [r0], -r8
    8110:	00009470 	andeq	r9, r0, r0, ror r4
    8114:	0000942c 	andeq	r9, r0, ip, lsr #8
    8118:	000094b8 			; <UNDEFINED> instruction: 0x000094b8
    811c:	00009408 	andeq	r9, r0, r8, lsl #8
    8120:	00009418 	andeq	r9, r0, r8, lsl r4
    8124:	00009434 	andeq	r9, r0, r4, lsr r4
    8128:	00009480 	andeq	r9, r0, r0, lsl #9

0000812c <kr_free>:
    812c:	e52de004 	push	{lr}		; (str lr, [sp, #-4]!)
    8130:	e2401008 	sub	r1, r0, #8, 0
    8134:	e59f30a8 	ldr	r3, [pc, #168]	; 81e4 <kr_free+0xb8>
    8138:	e5933000 	ldr	r3, [r3]
    813c:	ea000000 	b	8144 <kr_free+0x18>
    8140:	e1a03002 	mov	r3, r2
    8144:	e1530001 	cmp	r3, r1
    8148:	2a000002 	bcs	8158 <kr_free+0x2c>
    814c:	e5932000 	ldr	r2, [r3]
    8150:	e1520001 	cmp	r2, r1
    8154:	8a000007 	bhi	8178 <kr_free+0x4c>
    8158:	e5932000 	ldr	r2, [r3]
    815c:	e1520003 	cmp	r2, r3
    8160:	8afffff6 	bhi	8140 <kr_free+0x14>
    8164:	e1530001 	cmp	r3, r1
    8168:	3a000002 	bcc	8178 <kr_free+0x4c>
    816c:	e1520001 	cmp	r2, r1
    8170:	91a03002 	movls	r3, r2
    8174:	9afffff2 	bls	8144 <kr_free+0x18>
    8178:	e510c004 	ldr	ip, [r0, #-4]
    817c:	e081e18c 	add	lr, r1, ip, lsl #3
    8180:	e5932000 	ldr	r2, [r3]
    8184:	e15e0002 	cmp	lr, r2
    8188:	0a000008 	beq	81b0 <kr_free+0x84>
    818c:	e5002008 	str	r2, [r0, #-8]
    8190:	e5932004 	ldr	r2, [r3, #4]
    8194:	e083c182 	add	ip, r3, r2, lsl #3
    8198:	e15c0001 	cmp	ip, r1
    819c:	0a00000a 	beq	81cc <kr_free+0xa0>
    81a0:	e5831000 	str	r1, [r3]
    81a4:	e59f2038 	ldr	r2, [pc, #56]	; 81e4 <kr_free+0xb8>
    81a8:	e5823000 	str	r3, [r2]
    81ac:	e49df004 	pop	{pc}		; (ldr pc, [sp], #4)
    81b0:	e5922004 	ldr	r2, [r2, #4]
    81b4:	e08cc002 	add	ip, ip, r2
    81b8:	e500c004 	str	ip, [r0, #-4]
    81bc:	e5932000 	ldr	r2, [r3]
    81c0:	e5922000 	ldr	r2, [r2]
    81c4:	e5002008 	str	r2, [r0, #-8]
    81c8:	eafffff0 	b	8190 <kr_free+0x64>
    81cc:	e5101004 	ldr	r1, [r0, #-4]
    81d0:	e0822001 	add	r2, r2, r1
    81d4:	e5832004 	str	r2, [r3, #4]
    81d8:	e5102008 	ldr	r2, [r0, #-8]
    81dc:	e5832000 	str	r2, [r3]
    81e0:	eaffffef 	b	81a4 <kr_free+0x78>
    81e4:	00009848 	andeq	r9, r0, r8, asr #16

000081e8 <kr_morecore>:
    81e8:	e92d4010 	push	{r4, lr}
    81ec:	e1a04000 	mov	r4, r0
    81f0:	e3500b01 	cmp	r0, #1024	; 0x400
    81f4:	33a04b01 	movcc	r4, #1024	; 0x400
    81f8:	e1a00184 	lsl	r0, r4, #3
    81fc:	eb000035 	bl	82d8 <sbrk>
    8200:	e3700001 	cmn	r0, #1, 0
    8204:	0a000005 	beq	8220 <kr_morecore+0x38>
    8208:	e5804004 	str	r4, [r0, #4]
    820c:	e2800008 	add	r0, r0, #8, 0
    8210:	ebffffc5 	bl	812c <kr_free>
    8214:	e59f300c 	ldr	r3, [pc, #12]	; 8228 <kr_morecore+0x40>
    8218:	e5930000 	ldr	r0, [r3]
    821c:	e8bd8010 	pop	{r4, pc}
    8220:	e3a00000 	mov	r0, #0, 0
    8224:	e8bd8010 	pop	{r4, pc}
    8228:	00009848 	andeq	r9, r0, r8, asr #16

0000822c <kr_malloc>:
    822c:	e92d4010 	push	{r4, lr}
    8230:	e2804007 	add	r4, r0, #7, 0
    8234:	e1a041a4 	lsr	r4, r4, #3
    8238:	e2844001 	add	r4, r4, #1, 0
    823c:	e59f3090 	ldr	r3, [pc, #144]	; 82d4 <kr_malloc+0xa8>
    8240:	e5932000 	ldr	r2, [r3]
    8244:	e3520000 	cmp	r2, #0, 0
    8248:	0a000001 	beq	8254 <kr_malloc+0x28>
    824c:	e5920000 	ldr	r0, [r2]
    8250:	ea000013 	b	82a4 <kr_malloc+0x78>
    8254:	e2832008 	add	r2, r3, #8, 0
    8258:	e5832000 	str	r2, [r3]
    825c:	e5832008 	str	r2, [r3, #8]
    8260:	e3a01000 	mov	r1, #0, 0
    8264:	e583100c 	str	r1, [r3, #12]
    8268:	eafffff7 	b	824c <kr_malloc+0x20>
    826c:	0a000007 	beq	8290 <kr_malloc+0x64>
    8270:	e0433004 	sub	r3, r3, r4
    8274:	e5803004 	str	r3, [r0, #4]
    8278:	e0800183 	add	r0, r0, r3, lsl #3
    827c:	e5804004 	str	r4, [r0, #4]
    8280:	e59f304c 	ldr	r3, [pc, #76]	; 82d4 <kr_malloc+0xa8>
    8284:	e5832000 	str	r2, [r3]
    8288:	e2800008 	add	r0, r0, #8, 0
    828c:	e8bd8010 	pop	{r4, pc}
    8290:	e5903000 	ldr	r3, [r0]
    8294:	e5823000 	str	r3, [r2]
    8298:	eafffff8 	b	8280 <kr_malloc+0x54>
    829c:	e1a02000 	mov	r2, r0
    82a0:	e5900000 	ldr	r0, [r0]
    82a4:	e5903004 	ldr	r3, [r0, #4]
    82a8:	e1530004 	cmp	r3, r4
    82ac:	2affffee 	bcs	826c <kr_malloc+0x40>
    82b0:	e59f301c 	ldr	r3, [pc, #28]	; 82d4 <kr_malloc+0xa8>
    82b4:	e5933000 	ldr	r3, [r3]
    82b8:	e1530000 	cmp	r3, r0
    82bc:	1afffff6 	bne	829c <kr_malloc+0x70>
    82c0:	e1a00004 	mov	r0, r4
    82c4:	ebffffc7 	bl	81e8 <kr_morecore>
    82c8:	e3500000 	cmp	r0, #0, 0
    82cc:	1afffff2 	bne	829c <kr_malloc+0x70>
    82d0:	e8bd8010 	pop	{r4, pc}
    82d4:	00009848 	andeq	r9, r0, r8, asr #16

000082d8 <sbrk>:
    82d8:	e92d4010 	push	{r4, lr}
    82dc:	eb00033a 	bl	8fcc <kmalloc>
    82e0:	e8bd8010 	pop	{r4, pc}

000082e4 <printk>:
    82e4:	e92d000f 	push	{r0, r1, r2, r3}
    82e8:	e92d4030 	push	{r4, r5, lr}
    82ec:	e24dd00c 	sub	sp, sp, #12, 0
    82f0:	e28d301c 	add	r3, sp, #28, 0
    82f4:	e58d3004 	str	r3, [sp, #4]
    82f8:	e59f5034 	ldr	r5, [pc, #52]	; 8334 <printk+0x50>
    82fc:	e59d2018 	ldr	r2, [sp, #24]
    8300:	e3a01b01 	mov	r1, #1024	; 0x400
    8304:	e1a00005 	mov	r0, r5
    8308:	eb0000ba 	bl	85f8 <va_printk>
    830c:	e1a04000 	mov	r4, r0
    8310:	e59f3020 	ldr	r3, [pc, #32]	; 8338 <printk+0x54>
    8314:	e5933000 	ldr	r3, [r3]
    8318:	e1a00005 	mov	r0, r5
    831c:	e12fff33 	blx	r3
    8320:	e1a00004 	mov	r0, r4
    8324:	e28dd00c 	add	sp, sp, #12, 0
    8328:	e8bd4030 	pop	{r4, r5, lr}
    832c:	e28dd010 	add	sp, sp, #16, 0
    8330:	e12fff1e 	bx	lr
    8334:	00009858 	andeq	r9, r0, r8, asr r8
    8338:	00009830 	andeq	r9, r0, r0, lsr r8

0000833c <internal_putk>:
    833c:	e92d4010 	push	{r4, lr}
    8340:	e1a04000 	mov	r4, r0
    8344:	e5d40000 	ldrb	r0, [r4]
    8348:	e3500000 	cmp	r0, #0, 0
    834c:	0a000004 	beq	8364 <internal_putk+0x28>
    8350:	e59f3014 	ldr	r3, [pc, #20]	; 836c <internal_putk+0x30>
    8354:	e5933000 	ldr	r3, [r3]
    8358:	e12fff33 	blx	r3
    835c:	e2844001 	add	r4, r4, #1, 0
    8360:	eafffff7 	b	8344 <internal_putk+0x8>
    8364:	e3a00001 	mov	r0, #1, 0
    8368:	e8bd8010 	pop	{r4, pc}
    836c:	00009840 	andeq	r9, r0, r0, asr #16

00008370 <isdigit>:
    8370:	e2400030 	sub	r0, r0, #48, 0	; 0x30
    8374:	e3500009 	cmp	r0, #9, 0
    8378:	83a00000 	movhi	r0, #0, 0
    837c:	93a00001 	movls	r0, #1, 0
    8380:	e12fff1e 	bx	lr

00008384 <pad>:
    8384:	e0401001 	sub	r1, r0, r1
    8388:	e1510002 	cmp	r1, r2
    838c:	b3a03020 	movlt	r3, #32, 0
    8390:	b4c03001 	strblt	r3, [r0], #1
    8394:	b2811001 	addlt	r1, r1, #1, 0
    8398:	bafffffa 	blt	8388 <pad+0x4>
    839c:	e3a03000 	mov	r3, #0, 0
    83a0:	e5c03000 	strb	r3, [r0]
    83a4:	e12fff1e 	bx	lr

000083a8 <reverse>:
    83a8:	e042c003 	sub	ip, r2, r3
    83ac:	e28cc001 	add	ip, ip, #1, 0
    83b0:	e15c0001 	cmp	ip, r1
    83b4:	c04cc001 	subgt	ip, ip, r1
    83b8:	c083300c 	addgt	r3, r3, ip
    83bc:	e2421001 	sub	r1, r2, #1, 0
    83c0:	e1a02000 	mov	r2, r0
    83c4:	e1510003 	cmp	r1, r3
    83c8:	2451c001 	ldrbcs	ip, [r1], #-1
    83cc:	24c2c001 	strbcs	ip, [r2], #1
    83d0:	2afffffb 	bcs	83c4 <reverse+0x1c>
    83d4:	e3a03000 	mov	r3, #0, 0
    83d8:	e5c23000 	strb	r3, [r2]
    83dc:	e12fff1e 	bx	lr

000083e0 <emit>:
    83e0:	e92d40f0 	push	{r4, r5, r6, r7, lr}
    83e4:	e24dd04c 	sub	sp, sp, #76, 0	; 0x4c
    83e8:	e1a05001 	mov	r5, r1
    83ec:	e1a04002 	mov	r4, r2
    83f0:	e59d2060 	ldr	r2, [sp, #96]	; 0x60
    83f4:	e1520004 	cmp	r2, r4
    83f8:	c2442001 	subgt	r2, r4, #1, 0
    83fc:	e1a0c003 	mov	ip, r3
    8400:	e2400002 	sub	r0, r0, #2, 0
    8404:	e350000e 	cmp	r0, #14, 0
    8408:	979ff100 	ldrls	pc, [pc, r0, lsl #2]
    840c:	ea000050 	b	8554 <emit+0x174>
    8410:	0000852c 	andeq	r8, r0, ip, lsr #10
    8414:	00008554 	andeq	r8, r0, r4, asr r5
    8418:	00008554 	andeq	r8, r0, r4, asr r5
    841c:	00008554 	andeq	r8, r0, r4, asr r5
    8420:	00008554 	andeq	r8, r0, r4, asr r5
    8424:	00008554 	andeq	r8, r0, r4, asr r5
    8428:	00008520 	andeq	r8, r0, r0, lsr #10
    842c:	00008554 	andeq	r8, r0, r4, asr r5
    8430:	0000844c 	andeq	r8, r0, ip, asr #8
    8434:	00008554 	andeq	r8, r0, r4, asr r5
    8438:	00008554 	andeq	r8, r0, r4, asr r5
    843c:	00008554 	andeq	r8, r0, r4, asr r5
    8440:	00008554 	andeq	r8, r0, r4, asr r5
    8444:	00008554 	andeq	r8, r0, r4, asr r5
    8448:	000084c4 	andeq	r8, r0, r4, asr #9
    844c:	e59d1064 	ldr	r1, [sp, #100]	; 0x64
    8450:	e2511000 	subs	r1, r1, #0, 0
    8454:	13a01001 	movne	r1, #1, 0
    8458:	e0111fa3 	ands	r1, r1, r3, lsr #31
    845c:	0a000016 	beq	84bc <emit+0xdc>
    8460:	e263c000 	rsb	ip, r3, #0, 0
    8464:	e3a06001 	mov	r6, #1, 0
    8468:	e28d0008 	add	r0, sp, #8, 0
    846c:	e59f3100 	ldr	r3, [pc, #256]	; 8574 <emit+0x194>
    8470:	e0831c93 	umull	r1, r3, r3, ip
    8474:	e1a031a3 	lsr	r3, r3, #3
    8478:	e1a0e003 	mov	lr, r3
    847c:	e0833103 	add	r3, r3, r3, lsl #2
    8480:	e04c3083 	sub	r3, ip, r3, lsl #1
    8484:	e1a01000 	mov	r1, r0
    8488:	e2800001 	add	r0, r0, #1, 0
    848c:	e59f70e4 	ldr	r7, [pc, #228]	; 8578 <emit+0x198>
    8490:	e7d73003 	ldrb	r3, [r7, r3]
    8494:	e5c13000 	strb	r3, [r1]
    8498:	e1a0300c 	mov	r3, ip
    849c:	e1a0c00e 	mov	ip, lr
    84a0:	e3530009 	cmp	r3, #9, 0
    84a4:	8afffff0 	bhi	846c <emit+0x8c>
    84a8:	e3560000 	cmp	r6, #0, 0
    84ac:	13a0302d 	movne	r3, #45, 0	; 0x2d
    84b0:	15c03000 	strbne	r3, [r0]
    84b4:	12810002 	addne	r0, r1, #2, 0
    84b8:	ea00000f 	b	84fc <emit+0x11c>
    84bc:	e3a06000 	mov	r6, #0, 0
    84c0:	eaffffe8 	b	8468 <emit+0x88>
    84c4:	e28d1008 	add	r1, sp, #8, 0
    84c8:	e20c000f 	and	r0, ip, #15, 0
    84cc:	e59fe0a8 	ldr	lr, [pc, #168]	; 857c <emit+0x19c>
    84d0:	e7de0000 	ldrb	r0, [lr, r0]
    84d4:	e5c10000 	strb	r0, [r1]
    84d8:	e2811001 	add	r1, r1, #1, 0
    84dc:	e35c000f 	cmp	ip, #15, 0
    84e0:	e1a0c22c 	lsr	ip, ip, #4
    84e4:	8afffff7 	bhi	84c8 <emit+0xe8>
    84e8:	e1a00001 	mov	r0, r1
    84ec:	e3a03078 	mov	r3, #120, 0	; 0x78
    84f0:	e4c03002 	strb	r3, [r0], #2
    84f4:	e3a03030 	mov	r3, #48, 0	; 0x30
    84f8:	e5c13001 	strb	r3, [r1, #1]
    84fc:	e28d1008 	add	r1, sp, #8, 0
    8500:	ebffff9f 	bl	8384 <pad>
    8504:	e1a02000 	mov	r2, r0
    8508:	e28d3008 	add	r3, sp, #8, 0
    850c:	e1a01004 	mov	r1, r4
    8510:	e1a00005 	mov	r0, r5
    8514:	ebffffa3 	bl	83a8 <reverse>
    8518:	e28dd04c 	add	sp, sp, #76, 0	; 0x4c
    851c:	e8bd80f0 	pop	{r4, r5, r6, r7, pc}
    8520:	e5cd3008 	strb	r3, [sp, #8]
    8524:	e28d0009 	add	r0, sp, #9, 0
    8528:	eafffff3 	b	84fc <emit+0x11c>
    852c:	e28d0008 	add	r0, sp, #8, 0
    8530:	e20c1001 	and	r1, ip, #1, 0
    8534:	e59fe044 	ldr	lr, [pc, #68]	; 8580 <emit+0x1a0>
    8538:	e7de1001 	ldrb	r1, [lr, r1]
    853c:	e5c01000 	strb	r1, [r0]
    8540:	e2800001 	add	r0, r0, #1, 0
    8544:	e35c0001 	cmp	ip, #1, 0
    8548:	e1a0c0ac 	lsr	ip, ip, #1
    854c:	8afffff7 	bhi	8530 <emit+0x150>
    8550:	eaffffe9 	b	84fc <emit+0x11c>
    8554:	e59f3028 	ldr	r3, [pc, #40]	; 8584 <emit+0x1a4>
    8558:	e58d3000 	str	r3, [sp]
    855c:	e3a03079 	mov	r3, #121, 0	; 0x79
    8560:	e59f2020 	ldr	r2, [pc, #32]	; 8588 <emit+0x1a8>
    8564:	e59f1020 	ldr	r1, [pc, #32]	; 858c <emit+0x1ac>
    8568:	e59f0020 	ldr	r0, [pc, #32]	; 8590 <emit+0x1b0>
    856c:	ebffff5c 	bl	82e4 <printk>
    8570:	eb00014e 	bl	8ab0 <clean_reboot>
    8574:	cccccccd 	stclgt	12, cr12, [ip], {205}	; 0xcd
    8578:	000094d8 	ldrdeq	r9, [r0], -r8
    857c:	000094e4 	andeq	r9, r0, r4, ror #9
    8580:	000094f8 	strdeq	r9, [r0], -r8
    8584:	000094d4 	ldrdeq	r9, [r0], -r4
    8588:	00009604 	andeq	r9, r0, r4, lsl #12
    858c:	000094c0 	andeq	r9, r0, r0, asr #9
    8590:	00009418 	andeq	r9, r0, r8, lsl r4

00008594 <rpi_set_output>:
    8594:	e3500000 	cmp	r0, #0, 0
    8598:	0a000006 	beq	85b8 <rpi_set_output+0x24>
    859c:	e59f303c 	ldr	r3, [pc, #60]	; 85e0 <rpi_set_output+0x4c>
    85a0:	e5830000 	str	r0, [r3]
    85a4:	e3510000 	cmp	r1, #0, 0
    85a8:	012fff1e 	bxeq	lr
    85ac:	e59f3030 	ldr	r3, [pc, #48]	; 85e4 <rpi_set_output+0x50>
    85b0:	e5831000 	str	r1, [r3]
    85b4:	e12fff1e 	bx	lr
    85b8:	e52de004 	push	{lr}		; (str lr, [sp, #-4]!)
    85bc:	e24dd00c 	sub	sp, sp, #12, 0
    85c0:	e59f3020 	ldr	r3, [pc, #32]	; 85e8 <rpi_set_output+0x54>
    85c4:	e58d3000 	str	r3, [sp]
    85c8:	e3a03020 	mov	r3, #32, 0
    85cc:	e59f2018 	ldr	r2, [pc, #24]	; 85ec <rpi_set_output+0x58>
    85d0:	e59f1018 	ldr	r1, [pc, #24]	; 85f0 <rpi_set_output+0x5c>
    85d4:	e59f0018 	ldr	r0, [pc, #24]	; 85f4 <rpi_set_output+0x60>
    85d8:	ebffff41 	bl	82e4 <printk>
    85dc:	eb000133 	bl	8ab0 <clean_reboot>
    85e0:	00009840 	andeq	r9, r0, r0, asr #16
    85e4:	00009830 	andeq	r9, r0, r0, lsr r8
    85e8:	000094fc 	strdeq	r9, [r0], -ip
    85ec:	0000960c 	andeq	r9, r0, ip, lsl #12
    85f0:	000094c0 	andeq	r9, r0, r0, asr #9
    85f4:	00009418 	andeq	r9, r0, r8, lsl r4

000085f8 <va_printk>:
    85f8:	e92d4ff0 	push	{r4, r5, r6, r7, r8, r9, sl, fp, lr}
    85fc:	e24ddf45 	sub	sp, sp, #276	; 0x114
    8600:	e1a09000 	mov	r9, r0
    8604:	e58d2008 	str	r2, [sp, #8]
    8608:	e58d300c 	str	r3, [sp, #12]
    860c:	e2411001 	sub	r1, r1, #1, 0
    8610:	e0808001 	add	r8, r0, r1
    8614:	e3a03000 	mov	r3, #0, 0
    8618:	e5c03000 	strb	r3, [r0]
    861c:	e1a04000 	mov	r4, r0
    8620:	e1a06002 	mov	r6, r2
    8624:	ea000001 	b	8630 <va_printk+0x38>
    8628:	e2866001 	add	r6, r6, #1, 0
    862c:	e4c43001 	strb	r3, [r4], #1
    8630:	e5d63000 	ldrb	r3, [r6]
    8634:	e3530000 	cmp	r3, #0, 0
    8638:	0a000108 	beq	8a60 <va_printk+0x468>
    863c:	e1540008 	cmp	r4, r8
    8640:	2a000106 	bcs	8a60 <va_printk+0x468>
    8644:	e3530025 	cmp	r3, #37, 0	; 0x25
    8648:	1afffff6 	bne	8628 <va_printk+0x30>
    864c:	e5d62001 	ldrb	r2, [r6, #1]
    8650:	e3520025 	cmp	r2, #37, 0	; 0x25
    8654:	04c43001 	strbeq	r3, [r4], #1
    8658:	02866002 	addeq	r6, r6, #2, 0
    865c:	0afffff3 	beq	8630 <va_printk+0x38>
    8660:	e2866001 	add	r6, r6, #1, 0
    8664:	e3a05000 	mov	r5, #0, 0
    8668:	e5d67000 	ldrb	r7, [r6]
    866c:	e1a0a007 	mov	sl, r7
    8670:	e1a00007 	mov	r0, r7
    8674:	ebffff3d 	bl	8370 <isdigit>
    8678:	e3500000 	cmp	r0, #0, 0
    867c:	0a000004 	beq	8694 <va_printk+0x9c>
    8680:	e0855105 	add	r5, r5, r5, lsl #2
    8684:	e0875085 	add	r5, r7, r5, lsl #1
    8688:	e2455030 	sub	r5, r5, #48, 0	; 0x30
    868c:	e2866001 	add	r6, r6, #1, 0
    8690:	eafffff4 	b	8668 <va_printk+0x70>
    8694:	e355001f 	cmp	r5, #31, 0
    8698:	8a00001a 	bhi	8708 <va_printk+0x110>
    869c:	e2477062 	sub	r7, r7, #98, 0	; 0x62
    86a0:	e3570016 	cmp	r7, #22, 0
    86a4:	979ff107 	ldrls	pc, [pc, r7, lsl #2]
    86a8:	ea0000d4 	b	8a00 <va_printk+0x408>
    86ac:	00008984 	andeq	r8, r0, r4, lsl #19
    86b0:	000089cc 	andeq	r8, r0, ip, asr #19
    86b4:	000088e4 	andeq	r8, r0, r4, ror #17
    86b8:	00008a00 	andeq	r8, r0, r0, lsl #20
    86bc:	000088cc 	andeq	r8, r0, ip, asr #17
    86c0:	00008a00 	andeq	r8, r0, r0, lsl #20
    86c4:	00008a00 	andeq	r8, r0, r0, lsl #20
    86c8:	00008a00 	andeq	r8, r0, r0, lsl #20
    86cc:	00008a00 	andeq	r8, r0, r0, lsl #20
    86d0:	00008a00 	andeq	r8, r0, r0, lsl #20
    86d4:	00008728 	andeq	r8, r0, r8, lsr #14
    86d8:	00008a00 	andeq	r8, r0, r0, lsl #20
    86dc:	00008a00 	andeq	r8, r0, r0, lsl #20
    86e0:	00008a00 	andeq	r8, r0, r0, lsl #20
    86e4:	00008950 	andeq	r8, r0, r0, asr r9
    86e8:	00008a00 	andeq	r8, r0, r0, lsl #20
    86ec:	00008a00 	andeq	r8, r0, r0, lsl #20
    86f0:	000089b8 			; <UNDEFINED> instruction: 0x000089b8
    86f4:	00008a00 	andeq	r8, r0, r0, lsl #20
    86f8:	0000891c 	andeq	r8, r0, ip, lsl r9
    86fc:	00008a00 	andeq	r8, r0, r0, lsl #20
    8700:	00008a00 	andeq	r8, r0, r0, lsl #20
    8704:	00008950 	andeq	r8, r0, r0, asr r9
    8708:	e59f3364 	ldr	r3, [pc, #868]	; 8a74 <va_printk+0x47c>
    870c:	e58d3000 	str	r3, [sp]
    8710:	e3a03098 	mov	r3, #152, 0	; 0x98
    8714:	e59f235c 	ldr	r2, [pc, #860]	; 8a78 <va_printk+0x480>
    8718:	e59f135c 	ldr	r1, [pc, #860]	; 8a7c <va_printk+0x484>
    871c:	e59f035c 	ldr	r0, [pc, #860]	; 8a80 <va_printk+0x488>
    8720:	ebfffeef 	bl	82e4 <printk>
    8724:	eb0000e1 	bl	8ab0 <clean_reboot>
    8728:	e3a02003 	mov	r2, #3, 0
    872c:	e59f1350 	ldr	r1, [pc, #848]	; 8a84 <va_printk+0x48c>
    8730:	e1a00006 	mov	r0, r6
    8734:	eb0002d6 	bl	9294 <strncmp>
    8738:	e3500000 	cmp	r0, #0, 0
    873c:	0a000005 	beq	8758 <va_printk+0x160>
    8740:	e3a02003 	mov	r2, #3, 0
    8744:	e59f133c 	ldr	r1, [pc, #828]	; 8a88 <va_printk+0x490>
    8748:	e1a00006 	mov	r0, r6
    874c:	eb0002d0 	bl	9294 <strncmp>
    8750:	e3500000 	cmp	r0, #0, 0
    8754:	1a000033 	bne	8828 <va_printk+0x230>
    8758:	e286b002 	add	fp, r6, #2, 0
    875c:	e59d300c 	ldr	r3, [sp, #12]
    8760:	e2833007 	add	r3, r3, #7, 0
    8764:	e3c33007 	bic	r3, r3, #7, 0
    8768:	e2832008 	add	r2, r3, #8, 0
    876c:	e58d200c 	str	r2, [sp, #12]
    8770:	e593a000 	ldr	sl, [r3]
    8774:	e5937004 	ldr	r7, [r3, #4]
    8778:	e1a01007 	mov	r1, r7
    877c:	e59f0308 	ldr	r0, [pc, #776]	; 8a8c <va_printk+0x494>
    8780:	ebfffed7 	bl	82e4 <printk>
    8784:	e1a0100a 	mov	r1, sl
    8788:	e59f0300 	ldr	r0, [pc, #768]	; 8a90 <va_printk+0x498>
    878c:	ebfffed4 	bl	82e4 <printk>
    8790:	e3a02003 	mov	r2, #3, 0
    8794:	e59f12e8 	ldr	r1, [pc, #744]	; 8a84 <va_printk+0x48c>
    8798:	e1a00006 	mov	r0, r6
    879c:	eb0002bc 	bl	9294 <strncmp>
    87a0:	e3500000 	cmp	r0, #0, 0
    87a4:	0a000027 	beq	8848 <va_printk+0x250>
    87a8:	e3a02003 	mov	r2, #3, 0
    87ac:	e59f12d4 	ldr	r1, [pc, #724]	; 8a88 <va_printk+0x490>
    87b0:	e1a00006 	mov	r0, r6
    87b4:	eb0002b6 	bl	9294 <strncmp>
    87b8:	e3500000 	cmp	r0, #0, 0
    87bc:	1a00003b 	bne	88b0 <va_printk+0x2b8>
    87c0:	e3a06000 	mov	r6, #0, 0
    87c4:	e58d6004 	str	r6, [sp, #4]
    87c8:	e58d5000 	str	r5, [sp]
    87cc:	e1a03007 	mov	r3, r7
    87d0:	e3a02080 	mov	r2, #128, 0	; 0x80
    87d4:	e28d1010 	add	r1, sp, #16, 0
    87d8:	e3a0000a 	mov	r0, #10, 0
    87dc:	ebfffeff 	bl	83e0 <emit>
    87e0:	e1a07000 	mov	r7, r0
    87e4:	e58d6004 	str	r6, [sp, #4]
    87e8:	e58d5000 	str	r5, [sp]
    87ec:	e1a0300a 	mov	r3, sl
    87f0:	e3a02080 	mov	r2, #128, 0	; 0x80
    87f4:	e28d1090 	add	r1, sp, #144, 0	; 0x90
    87f8:	e3a0000a 	mov	r0, #10, 0
    87fc:	ebfffef7 	bl	83e0 <emit>
    8800:	e59f128c 	ldr	r1, [pc, #652]	; 8a94 <va_printk+0x49c>
    8804:	e28d0010 	add	r0, sp, #16, 0
    8808:	eb00028e 	bl	9248 <strcmp>
    880c:	e1500006 	cmp	r0, r6
    8810:	1a000021 	bne	889c <va_printk+0x2a4>
    8814:	e28d1090 	add	r1, sp, #144, 0	; 0x90
    8818:	e28d0010 	add	r0, sp, #16, 0
    881c:	eb000294 	bl	9274 <strcpy>
    8820:	e1a0600b 	mov	r6, fp
    8824:	ea00003a 	b	8914 <va_printk+0x31c>
    8828:	e59f3268 	ldr	r3, [pc, #616]	; 8a98 <va_printk+0x4a0>
    882c:	e58d3000 	str	r3, [sp]
    8830:	e3a0309f 	mov	r3, #159, 0	; 0x9f
    8834:	e59f223c 	ldr	r2, [pc, #572]	; 8a78 <va_printk+0x480>
    8838:	e59f123c 	ldr	r1, [pc, #572]	; 8a7c <va_printk+0x484>
    883c:	e59f023c 	ldr	r0, [pc, #572]	; 8a80 <va_printk+0x488>
    8840:	ebfffea7 	bl	82e4 <printk>
    8844:	eb000099 	bl	8ab0 <clean_reboot>
    8848:	e3a06000 	mov	r6, #0, 0
    884c:	e58d6004 	str	r6, [sp, #4]
    8850:	e58d5000 	str	r5, [sp]
    8854:	e1a03007 	mov	r3, r7
    8858:	e3a02080 	mov	r2, #128, 0	; 0x80
    885c:	e28d1010 	add	r1, sp, #16, 0
    8860:	e3a00010 	mov	r0, #16, 0
    8864:	ebfffedd 	bl	83e0 <emit>
    8868:	e1a07000 	mov	r7, r0
    886c:	e58d6004 	str	r6, [sp, #4]
    8870:	e58d5000 	str	r5, [sp]
    8874:	e1a0300a 	mov	r3, sl
    8878:	e3a02080 	mov	r2, #128, 0	; 0x80
    887c:	e28d1090 	add	r1, sp, #144, 0	; 0x90
    8880:	e3a00010 	mov	r0, #16, 0
    8884:	ebfffed5 	bl	83e0 <emit>
    8888:	e28d1092 	add	r1, sp, #146, 0	; 0x92
    888c:	e28d0010 	add	r0, sp, #16, 0
    8890:	eb00025f 	bl	9214 <strcat>
    8894:	e1a0600b 	mov	r6, fp
    8898:	ea00001d 	b	8914 <va_printk+0x31c>
    889c:	e28d1090 	add	r1, sp, #144, 0	; 0x90
    88a0:	e28d0010 	add	r0, sp, #16, 0
    88a4:	eb00025a 	bl	9214 <strcat>
    88a8:	e1a0600b 	mov	r6, fp
    88ac:	ea000018 	b	8914 <va_printk+0x31c>
    88b0:	e58d6000 	str	r6, [sp]
    88b4:	e3a030b6 	mov	r3, #182, 0	; 0xb6
    88b8:	e59f21b8 	ldr	r2, [pc, #440]	; 8a78 <va_printk+0x480>
    88bc:	e59f11b8 	ldr	r1, [pc, #440]	; 8a7c <va_printk+0x484>
    88c0:	e59f01d4 	ldr	r0, [pc, #468]	; 8a9c <va_printk+0x4a4>
    88c4:	ebfffe86 	bl	82e4 <printk>
    88c8:	eb000078 	bl	8ab0 <clean_reboot>
    88cc:	e3a030be 	mov	r3, #190, 0	; 0xbe
    88d0:	e59f21a0 	ldr	r2, [pc, #416]	; 8a78 <va_printk+0x480>
    88d4:	e59f11a0 	ldr	r1, [pc, #416]	; 8a7c <va_printk+0x484>
    88d8:	e59f01c0 	ldr	r0, [pc, #448]	; 8aa0 <va_printk+0x4a8>
    88dc:	ebfffe80 	bl	82e4 <printk>
    88e0:	eb000072 	bl	8ab0 <clean_reboot>
    88e4:	e59d300c 	ldr	r3, [sp, #12]
    88e8:	e2832004 	add	r2, r3, #4, 0
    88ec:	e58d200c 	str	r2, [sp, #12]
    88f0:	e5933000 	ldr	r3, [r3]
    88f4:	e3a02001 	mov	r2, #1, 0
    88f8:	e58d2004 	str	r2, [sp, #4]
    88fc:	e58d5000 	str	r5, [sp]
    8900:	e3a02080 	mov	r2, #128, 0	; 0x80
    8904:	e28d1010 	add	r1, sp, #16, 0
    8908:	e3a0000a 	mov	r0, #10, 0
    890c:	ebfffeb3 	bl	83e0 <emit>
    8910:	e1a07000 	mov	r7, r0
    8914:	e2866001 	add	r6, r6, #1, 0
    8918:	ea00004a 	b	8a48 <va_printk+0x450>
    891c:	e59d300c 	ldr	r3, [sp, #12]
    8920:	e2832004 	add	r2, r3, #4, 0
    8924:	e58d200c 	str	r2, [sp, #12]
    8928:	e5933000 	ldr	r3, [r3]
    892c:	e3a02000 	mov	r2, #0, 0
    8930:	e58d2004 	str	r2, [sp, #4]
    8934:	e58d5000 	str	r5, [sp]
    8938:	e3a02080 	mov	r2, #128, 0	; 0x80
    893c:	e28d1010 	add	r1, sp, #16, 0
    8940:	e3a0000a 	mov	r0, #10, 0
    8944:	ebfffea5 	bl	83e0 <emit>
    8948:	e1a07000 	mov	r7, r0
    894c:	eafffff0 	b	8914 <va_printk+0x31c>
    8950:	e59d300c 	ldr	r3, [sp, #12]
    8954:	e2832004 	add	r2, r3, #4, 0
    8958:	e58d200c 	str	r2, [sp, #12]
    895c:	e5933000 	ldr	r3, [r3]
    8960:	e3a02000 	mov	r2, #0, 0
    8964:	e58d2004 	str	r2, [sp, #4]
    8968:	e58d5000 	str	r5, [sp]
    896c:	e3a02080 	mov	r2, #128, 0	; 0x80
    8970:	e28d1010 	add	r1, sp, #16, 0
    8974:	e3a00010 	mov	r0, #16, 0
    8978:	ebfffe98 	bl	83e0 <emit>
    897c:	e1a07000 	mov	r7, r0
    8980:	eaffffe3 	b	8914 <va_printk+0x31c>
    8984:	e59d300c 	ldr	r3, [sp, #12]
    8988:	e2832004 	add	r2, r3, #4, 0
    898c:	e58d200c 	str	r2, [sp, #12]
    8990:	e5933000 	ldr	r3, [r3]
    8994:	e3a02000 	mov	r2, #0, 0
    8998:	e58d2004 	str	r2, [sp, #4]
    899c:	e58d5000 	str	r5, [sp]
    89a0:	e3a02080 	mov	r2, #128, 0	; 0x80
    89a4:	e28d1010 	add	r1, sp, #16, 0
    89a8:	e3a00002 	mov	r0, #2, 0
    89ac:	ebfffe8b 	bl	83e0 <emit>
    89b0:	e1a07000 	mov	r7, r0
    89b4:	eaffffd6 	b	8914 <va_printk+0x31c>
    89b8:	e59d300c 	ldr	r3, [sp, #12]
    89bc:	e2832004 	add	r2, r3, #4, 0
    89c0:	e58d200c 	str	r2, [sp, #12]
    89c4:	e5937000 	ldr	r7, [r3]
    89c8:	eaffffd1 	b	8914 <va_printk+0x31c>
    89cc:	e59d300c 	ldr	r3, [sp, #12]
    89d0:	e2832004 	add	r2, r3, #4, 0
    89d4:	e58d200c 	str	r2, [sp, #12]
    89d8:	e5933000 	ldr	r3, [r3]
    89dc:	e3a02000 	mov	r2, #0, 0
    89e0:	e58d2004 	str	r2, [sp, #4]
    89e4:	e58d5000 	str	r5, [sp]
    89e8:	e3a02080 	mov	r2, #128, 0	; 0x80
    89ec:	e28d1010 	add	r1, sp, #16, 0
    89f0:	e3a00008 	mov	r0, #8, 0
    89f4:	ebfffe79 	bl	83e0 <emit>
    89f8:	e1a07000 	mov	r7, r0
    89fc:	eaffffc4 	b	8914 <va_printk+0x31c>
    8a00:	e3a03000 	mov	r3, #0, 0
    8a04:	e5c63001 	strb	r3, [r6, #1]
    8a08:	e1a0200a 	mov	r2, sl
    8a0c:	e1a0100a 	mov	r1, sl
    8a10:	e59f008c 	ldr	r0, [pc, #140]	; 8aa4 <va_printk+0x4ac>
    8a14:	ebfffe32 	bl	82e4 <printk>
    8a18:	e59f3088 	ldr	r3, [pc, #136]	; 8aa8 <va_printk+0x4b0>
    8a1c:	e5933000 	ldr	r3, [r3]
    8a20:	e59d0008 	ldr	r0, [sp, #8]
    8a24:	e12fff33 	blx	r3
    8a28:	e3a030e2 	mov	r3, #226, 0	; 0xe2
    8a2c:	e59f2044 	ldr	r2, [pc, #68]	; 8a78 <va_printk+0x480>
    8a30:	e59f1044 	ldr	r1, [pc, #68]	; 8a7c <va_printk+0x484>
    8a34:	e59f0070 	ldr	r0, [pc, #112]	; 8aac <va_printk+0x4b4>
    8a38:	ebfffe29 	bl	82e4 <printk>
    8a3c:	eb00001b 	bl	8ab0 <clean_reboot>
    8a40:	e2877001 	add	r7, r7, #1, 0
    8a44:	e4c43001 	strb	r3, [r4], #1
    8a48:	e1540008 	cmp	r4, r8
    8a4c:	2afffef7 	bcs	8630 <va_printk+0x38>
    8a50:	e5d73000 	ldrb	r3, [r7]
    8a54:	e3530000 	cmp	r3, #0, 0
    8a58:	1afffff8 	bne	8a40 <va_printk+0x448>
    8a5c:	eafffef3 	b	8630 <va_printk+0x38>
    8a60:	e3a03000 	mov	r3, #0, 0
    8a64:	e4c43001 	strb	r3, [r4], #1
    8a68:	e0440009 	sub	r0, r4, r9
    8a6c:	e28ddf45 	add	sp, sp, #276	; 0x114
    8a70:	e8bd8ff0 	pop	{r4, r5, r6, r7, r8, r9, sl, fp, pc}
    8a74:	00009504 	andeq	r9, r0, r4, lsl #10
    8a78:	0000961c 	andeq	r9, r0, ip, lsl r6
    8a7c:	000094c0 	andeq	r9, r0, r0, asr #9
    8a80:	00009418 	andeq	r9, r0, r8, lsl r4
    8a84:	00009510 	andeq	r9, r0, r0, lsl r5
    8a88:	00009514 	andeq	r9, r0, r4, lsl r5
    8a8c:	00009518 	andeq	r9, r0, r8, lsl r5
    8a90:	00009520 	andeq	r9, r0, r0, lsr #10
    8a94:	000094d4 	ldrdeq	r9, [r0], -r4
    8a98:	00009528 	andeq	r9, r0, r8, lsr #10
    8a9c:	00009564 	andeq	r9, r0, r4, ror #10
    8aa0:	0000958c 	andeq	r9, r0, ip, lsl #11
    8aa4:	000095b4 			; <UNDEFINED> instruction: 0x000095b4
    8aa8:	00009830 	andeq	r9, r0, r0, lsr r8
    8aac:	000095e4 	andeq	r9, r0, r4, ror #11

00008ab0 <clean_reboot>:
    8ab0:	e92d4010 	push	{r4, lr}
    8ab4:	e59f3018 	ldr	r3, [pc, #24]	; 8ad4 <clean_reboot+0x24>
    8ab8:	e5933000 	ldr	r3, [r3]
    8abc:	e59f0014 	ldr	r0, [pc, #20]	; 8ad8 <clean_reboot+0x28>
    8ac0:	e12fff33 	blx	r3
    8ac4:	eb0000c3 	bl	8dd8 <uart_flush_tx>
    8ac8:	e3a0000a 	mov	r0, #10, 0
    8acc:	eb000047 	bl	8bf0 <delay_ms>
    8ad0:	eb00001c 	bl	8b48 <rpi_reboot>
    8ad4:	00009830 	andeq	r9, r0, r0, lsr r8
    8ad8:	00009628 	andeq	r9, r0, r8, lsr #12

00008adc <_cstart>:
    8adc:	e92d4010 	push	{r4, lr}
    8ae0:	eb00000c 	bl	8b18 <custom_loader>
    8ae4:	e59f3024 	ldr	r3, [pc, #36]	; 8b10 <_cstart+0x34>
    8ae8:	e59f2024 	ldr	r2, [pc, #36]	; 8b14 <_cstart+0x38>
    8aec:	e1530002 	cmp	r3, r2
    8af0:	33a02000 	movcc	r2, #0, 0
    8af4:	34832004 	strcc	r2, [r3], #4
    8af8:	3afffffa 	bcc	8ae8 <_cstart+0xc>
    8afc:	eb000057 	bl	8c60 <uart_init>
    8b00:	e3a03001 	mov	r3, #1, 0
    8b04:	ee0f3f1c 	mcr	15, 0, r3, cr15, cr12, {0}
    8b08:	ebfffd4a 	bl	8038 <notmain>
    8b0c:	ebffffe7 	bl	8ab0 <clean_reboot>
    8b10:	00009848 	andeq	r9, r0, r8, asr #16
    8b14:	00009c60 	andeq	r9, r0, r0, ror #24

00008b18 <custom_loader>:
    8b18:	e12fff1e 	bx	lr

00008b1c <at_user_level>:
    8b1c:	e10f0000 	mrs	r0, CPSR
    8b20:	e200001f 	and	r0, r0, #31, 0
    8b24:	e3500010 	cmp	r0, #16, 0
    8b28:	13a00000 	movne	r0, #0, 0
    8b2c:	03a00001 	moveq	r0, #1, 0
    8b30:	e12fff1e 	bx	lr

00008b34 <set_user_level>:
    8b34:	e10f3000 	mrs	r3, CPSR
    8b38:	e3c3301f 	bic	r3, r3, #31, 0
    8b3c:	e3833010 	orr	r3, r3, #16, 0
    8b40:	e129f003 	msr	CPSR_fc, r3
    8b44:	e12fff1e 	bx	lr

00008b48 <rpi_reboot>:
    8b48:	e92d4010 	push	{r4, lr}
    8b4c:	ebfffff2 	bl	8b1c <at_user_level>
    8b50:	e3500000 	cmp	r0, #0, 0
    8b54:	1a00000a 	bne	8b84 <rpi_reboot+0x3c>
    8b58:	eb0001d8 	bl	92c0 <reboot_callout>
    8b5c:	eb00009d 	bl	8dd8 <uart_flush_tx>
    8b60:	e3a0000a 	mov	r0, #10, 0
    8b64:	eb000021 	bl	8bf0 <delay_ms>
    8b68:	e59f101c 	ldr	r1, [pc, #28]	; 8b8c <rpi_reboot+0x44>
    8b6c:	e59f001c 	ldr	r0, [pc, #28]	; 8b90 <rpi_reboot+0x48>
    8b70:	ebfffd2b 	bl	8024 <PUT32>
    8b74:	e59f1018 	ldr	r1, [pc, #24]	; 8b94 <rpi_reboot+0x4c>
    8b78:	e59f0018 	ldr	r0, [pc, #24]	; 8b98 <rpi_reboot+0x50>
    8b7c:	ebfffd28 	bl	8024 <PUT32>
    8b80:	eafffffe 	b	8b80 <rpi_reboot+0x38>
    8b84:	ebffffea 	bl	8b34 <set_user_level>
    8b88:	eafffff2 	b	8b58 <rpi_reboot+0x10>
    8b8c:	5a000001 	bpl	8b98 <rpi_reboot+0x50>
    8b90:	20100024 	andscs	r0, r0, r4, lsr #32
    8b94:	5a000020 	bpl	8c1c <delay_sec+0x14>
    8b98:	2010001c 	andscs	r0, r0, ip, lsl r0

00008b9c <timer_get_usec_raw>:
    8b9c:	e92d4010 	push	{r4, lr}
    8ba0:	e59f0004 	ldr	r0, [pc, #4]	; 8bac <timer_get_usec_raw+0x10>
    8ba4:	ebfffd20 	bl	802c <GET32>
    8ba8:	e8bd8010 	pop	{r4, pc}
    8bac:	20003004 	andcs	r3, r0, r4

00008bb0 <timer_get_usec>:
    8bb0:	e92d4010 	push	{r4, lr}
    8bb4:	eb0001c2 	bl	92c4 <dev_barrier>
    8bb8:	ebfffff7 	bl	8b9c <timer_get_usec_raw>
    8bbc:	e1a04000 	mov	r4, r0
    8bc0:	eb0001bf 	bl	92c4 <dev_barrier>
    8bc4:	e1a00004 	mov	r0, r4
    8bc8:	e8bd8010 	pop	{r4, pc}

00008bcc <delay_us>:
    8bcc:	e92d4070 	push	{r4, r5, r6, lr}
    8bd0:	e1a05000 	mov	r5, r0
    8bd4:	ebfffff5 	bl	8bb0 <timer_get_usec>
    8bd8:	e1a04000 	mov	r4, r0
    8bdc:	ebfffff3 	bl	8bb0 <timer_get_usec>
    8be0:	e0400004 	sub	r0, r0, r4
    8be4:	e1500005 	cmp	r0, r5
    8be8:	3afffffb 	bcc	8bdc <delay_us+0x10>
    8bec:	e8bd8070 	pop	{r4, r5, r6, pc}

00008bf0 <delay_ms>:
    8bf0:	e92d4010 	push	{r4, lr}
    8bf4:	e0603280 	rsb	r3, r0, r0, lsl #5
    8bf8:	e0800103 	add	r0, r0, r3, lsl #2
    8bfc:	e1a00180 	lsl	r0, r0, #3
    8c00:	ebfffff1 	bl	8bcc <delay_us>
    8c04:	e8bd8010 	pop	{r4, pc}

00008c08 <delay_sec>:
    8c08:	e92d4010 	push	{r4, lr}
    8c0c:	e0603280 	rsb	r3, r0, r0, lsl #5
    8c10:	e0800103 	add	r0, r0, r3, lsl #2
    8c14:	e1a00180 	lsl	r0, r0, #3
    8c18:	ebfffff4 	bl	8bf0 <delay_ms>
    8c1c:	e8bd8010 	pop	{r4, pc}

00008c20 <and_in32>:
    8c20:	e92d4070 	push	{r4, r5, r6, lr}
    8c24:	e1a04000 	mov	r4, r0
    8c28:	e1a05001 	mov	r5, r1
    8c2c:	ebfffcfe 	bl	802c <GET32>
    8c30:	e0001005 	and	r1, r0, r5
    8c34:	e1a00004 	mov	r0, r4
    8c38:	ebfffcf9 	bl	8024 <PUT32>
    8c3c:	e8bd8070 	pop	{r4, r5, r6, pc}

00008c40 <or_in32>:
    8c40:	e92d4070 	push	{r4, r5, r6, lr}
    8c44:	e1a04000 	mov	r4, r0
    8c48:	e1a05001 	mov	r5, r1
    8c4c:	ebfffcf6 	bl	802c <GET32>
    8c50:	e1801005 	orr	r1, r0, r5
    8c54:	e1a00004 	mov	r0, r4
    8c58:	ebfffcf1 	bl	8024 <PUT32>
    8c5c:	e8bd8070 	pop	{r4, r5, r6, pc}

00008c60 <uart_init>:
    8c60:	e92d4010 	push	{r4, lr}
    8c64:	e3a01002 	mov	r1, #2, 0
    8c68:	e3a0000e 	mov	r0, #14, 0
    8c6c:	eb00019a 	bl	92dc <gpio_set_function>
    8c70:	e3a01002 	mov	r1, #2, 0
    8c74:	e3a0000f 	mov	r0, #15, 0
    8c78:	eb000197 	bl	92dc <gpio_set_function>
    8c7c:	eb000190 	bl	92c4 <dev_barrier>
    8c80:	e3a01001 	mov	r1, #1, 0
    8c84:	e59f0064 	ldr	r0, [pc, #100]	; 8cf0 <uart_init+0x90>
    8c88:	ebffffec 	bl	8c40 <or_in32>
    8c8c:	eb00018c 	bl	92c4 <dev_barrier>
    8c90:	e59f405c 	ldr	r4, [pc, #92]	; 8cf4 <uart_init+0x94>
    8c94:	e3a01000 	mov	r1, #0, 0
    8c98:	e1a00004 	mov	r0, r4
    8c9c:	ebfffce0 	bl	8024 <PUT32>
    8ca0:	e3a01000 	mov	r1, #0, 0
    8ca4:	e59f004c 	ldr	r0, [pc, #76]	; 8cf8 <uart_init+0x98>
    8ca8:	ebfffcdd 	bl	8024 <PUT32>
    8cac:	e3a01003 	mov	r1, #3, 0
    8cb0:	e59f0044 	ldr	r0, [pc, #68]	; 8cfc <uart_init+0x9c>
    8cb4:	ebfffcda 	bl	8024 <PUT32>
    8cb8:	e3a01000 	mov	r1, #0, 0
    8cbc:	e59f003c 	ldr	r0, [pc, #60]	; 8d00 <uart_init+0xa0>
    8cc0:	ebfffcd7 	bl	8024 <PUT32>
    8cc4:	e3a010c7 	mov	r1, #199, 0	; 0xc7
    8cc8:	e59f0034 	ldr	r0, [pc, #52]	; 8d04 <uart_init+0xa4>
    8ccc:	ebfffcd4 	bl	8024 <PUT32>
    8cd0:	e59f1030 	ldr	r1, [pc, #48]	; 8d08 <uart_init+0xa8>
    8cd4:	e59f0030 	ldr	r0, [pc, #48]	; 8d0c <uart_init+0xac>
    8cd8:	ebfffcd1 	bl	8024 <PUT32>
    8cdc:	e3a01003 	mov	r1, #3, 0
    8ce0:	e1a00004 	mov	r0, r4
    8ce4:	ebfffcce 	bl	8024 <PUT32>
    8ce8:	eb000175 	bl	92c4 <dev_barrier>
    8cec:	e8bd8010 	pop	{r4, pc}
    8cf0:	20215004 	eorcs	r5, r1, r4
    8cf4:	20215060 	eorcs	r5, r1, r0, rrx
    8cf8:	20215044 	eorcs	r5, r1, r4, asr #32
    8cfc:	2021504c 	eorcs	r5, r1, ip, asr #32
    8d00:	20215050 	eorcs	r5, r1, r0, asr r0
    8d04:	20215048 	eorcs	r5, r1, r8, asr #32
    8d08:	0000010e 	andeq	r0, r0, lr, lsl #2
    8d0c:	20215068 	eorcs	r5, r1, r8, rrx

00008d10 <uart_can_getc>:
    8d10:	e92d4010 	push	{r4, lr}
    8d14:	e59f0008 	ldr	r0, [pc, #8]	; 8d24 <uart_can_getc+0x14>
    8d18:	ebfffcc3 	bl	802c <GET32>
    8d1c:	e2000001 	and	r0, r0, #1, 0
    8d20:	e8bd8010 	pop	{r4, pc}
    8d24:	20215064 	eorcs	r5, r1, r4, rrx

00008d28 <uart_can_putc>:
    8d28:	e92d4010 	push	{r4, lr}
    8d2c:	e59f0010 	ldr	r0, [pc, #16]	; 8d44 <uart_can_putc+0x1c>
    8d30:	ebfffcbd 	bl	802c <GET32>
    8d34:	e3100002 	tst	r0, #2, 0
    8d38:	13a00001 	movne	r0, #1, 0
    8d3c:	03a00000 	moveq	r0, #0, 0
    8d40:	e8bd8010 	pop	{r4, pc}
    8d44:	20215064 	eorcs	r5, r1, r4, rrx

00008d48 <uart_getc>:
    8d48:	e92d4010 	push	{r4, lr}
    8d4c:	eb00015c 	bl	92c4 <dev_barrier>
    8d50:	ebffffee 	bl	8d10 <uart_can_getc>
    8d54:	e3500000 	cmp	r0, #0, 0
    8d58:	0afffffc 	beq	8d50 <uart_getc+0x8>
    8d5c:	e59f0010 	ldr	r0, [pc, #16]	; 8d74 <uart_getc+0x2c>
    8d60:	ebfffcb1 	bl	802c <GET32>
    8d64:	e6ef4070 	uxtb	r4, r0
    8d68:	eb000155 	bl	92c4 <dev_barrier>
    8d6c:	e1a00004 	mov	r0, r4
    8d70:	e8bd8010 	pop	{r4, pc}
    8d74:	20215040 	eorcs	r5, r1, r0, asr #32

00008d78 <uart_putc>:
    8d78:	e92d4010 	push	{r4, lr}
    8d7c:	e1a04000 	mov	r4, r0
    8d80:	eb00014f 	bl	92c4 <dev_barrier>
    8d84:	ebffffe7 	bl	8d28 <uart_can_putc>
    8d88:	e3500000 	cmp	r0, #0, 0
    8d8c:	0afffffc 	beq	8d84 <uart_putc+0xc>
    8d90:	e6ef1074 	uxtb	r1, r4
    8d94:	e59f0008 	ldr	r0, [pc, #8]	; 8da4 <uart_putc+0x2c>
    8d98:	ebfffca1 	bl	8024 <PUT32>
    8d9c:	eb000148 	bl	92c4 <dev_barrier>
    8da0:	e8bd8010 	pop	{r4, pc}
    8da4:	20215040 	eorcs	r5, r1, r0, asr #32

00008da8 <uart_has_data>:
    8da8:	e92d4010 	push	{r4, lr}
    8dac:	eb000144 	bl	92c4 <dev_barrier>
    8db0:	ebffffd6 	bl	8d10 <uart_can_getc>
    8db4:	e8bd8010 	pop	{r4, pc}

00008db8 <uart_tx_is_empty>:
    8db8:	e92d4010 	push	{r4, lr}
    8dbc:	eb000140 	bl	92c4 <dev_barrier>
    8dc0:	e59f000c 	ldr	r0, [pc, #12]	; 8dd4 <uart_tx_is_empty+0x1c>
    8dc4:	ebfffc98 	bl	802c <GET32>
    8dc8:	e1a004a0 	lsr	r0, r0, #9
    8dcc:	e2000001 	and	r0, r0, #1, 0
    8dd0:	e8bd8010 	pop	{r4, pc}
    8dd4:	20215064 	eorcs	r5, r1, r4, rrx

00008dd8 <uart_flush_tx>:
    8dd8:	e92d4010 	push	{r4, lr}
    8ddc:	ebfffff5 	bl	8db8 <uart_tx_is_empty>
    8de0:	e3500000 	cmp	r0, #0, 0
    8de4:	0afffffc 	beq	8ddc <uart_flush_tx+0x4>
    8de8:	e8bd8010 	pop	{r4, pc}

00008dec <uart_disable>:
    8dec:	e92d4010 	push	{r4, lr}
    8df0:	ebfffff8 	bl	8dd8 <uart_flush_tx>
    8df4:	eb000132 	bl	92c4 <dev_barrier>
    8df8:	e3e01001 	mvn	r1, #1, 0
    8dfc:	e59f0008 	ldr	r0, [pc, #8]	; 8e0c <uart_disable+0x20>
    8e00:	ebffff86 	bl	8c20 <and_in32>
    8e04:	eb00012e 	bl	92c4 <dev_barrier>
    8e08:	e8bd8010 	pop	{r4, pc}
    8e0c:	20215004 	eorcs	r5, r1, r4

00008e10 <kmalloc_heap_end>:
    8e10:	e59f3004 	ldr	r3, [pc, #4]	; 8e1c <kmalloc_heap_end+0xc>
    8e14:	e5930000 	ldr	r0, [r3]
    8e18:	e12fff1e 	bx	lr
    8e1c:	00009834 	andeq	r9, r0, r4, lsr r8

00008e20 <kmalloc_heap_start>:
    8e20:	e59f3004 	ldr	r3, [pc, #4]	; 8e2c <kmalloc_heap_start+0xc>
    8e24:	e5930004 	ldr	r0, [r3, #4]
    8e28:	e12fff1e 	bx	lr
    8e2c:	00009834 	andeq	r9, r0, r4, lsr r8

00008e30 <kmalloc_heap_ptr>:
    8e30:	e59f3004 	ldr	r3, [pc, #4]	; 8e3c <kmalloc_heap_ptr+0xc>
    8e34:	e5930008 	ldr	r0, [r3, #8]
    8e38:	e12fff1e 	bx	lr
    8e3c:	00009834 	andeq	r9, r0, r4, lsr r8

00008e40 <kmalloc_init_set_start>:
    8e40:	e52de004 	push	{lr}		; (str lr, [sp, #-4]!)
    8e44:	e24dd00c 	sub	sp, sp, #12, 0
    8e48:	e3510000 	cmp	r1, #0, 0
    8e4c:	0a00000a 	beq	8e7c <kmalloc_init_set_start+0x3c>
    8e50:	e59f306c 	ldr	r3, [pc, #108]	; 8ec4 <kmalloc_init_set_start+0x84>
    8e54:	e5933008 	ldr	r3, [r3, #8]
    8e58:	e1530000 	cmp	r3, r0
    8e5c:	8a00000e 	bhi	8e9c <kmalloc_init_set_start+0x5c>
    8e60:	e59f305c 	ldr	r3, [pc, #92]	; 8ec4 <kmalloc_init_set_start+0x84>
    8e64:	e5830008 	str	r0, [r3, #8]
    8e68:	e5830004 	str	r0, [r3, #4]
    8e6c:	e0800001 	add	r0, r0, r1
    8e70:	e5830000 	str	r0, [r3]
    8e74:	e28dd00c 	add	sp, sp, #12, 0
    8e78:	e49df004 	pop	{pc}		; (ldr pc, [sp], #4)
    8e7c:	e59f3044 	ldr	r3, [pc, #68]	; 8ec8 <kmalloc_init_set_start+0x88>
    8e80:	e58d3000 	str	r3, [sp]
    8e84:	e3a03030 	mov	r3, #48, 0	; 0x30
    8e88:	e59f203c 	ldr	r2, [pc, #60]	; 8ecc <kmalloc_init_set_start+0x8c>
    8e8c:	e59f103c 	ldr	r1, [pc, #60]	; 8ed0 <kmalloc_init_set_start+0x90>
    8e90:	e59f003c 	ldr	r0, [pc, #60]	; 8ed4 <kmalloc_init_set_start+0x94>
    8e94:	ebfffd12 	bl	82e4 <printk>
    8e98:	ebffff04 	bl	8ab0 <clean_reboot>
    8e9c:	e59f3020 	ldr	r3, [pc, #32]	; 8ec4 <kmalloc_init_set_start+0x84>
    8ea0:	e5933000 	ldr	r3, [r3]
    8ea4:	e58d3004 	str	r3, [sp, #4]
    8ea8:	e58d0000 	str	r0, [sp]
    8eac:	e3a03034 	mov	r3, #52, 0	; 0x34
    8eb0:	e59f2014 	ldr	r2, [pc, #20]	; 8ecc <kmalloc_init_set_start+0x8c>
    8eb4:	e59f1014 	ldr	r1, [pc, #20]	; 8ed0 <kmalloc_init_set_start+0x90>
    8eb8:	e59f0018 	ldr	r0, [pc, #24]	; 8ed8 <kmalloc_init_set_start+0x98>
    8ebc:	ebfffd08 	bl	82e4 <printk>
    8ec0:	ebfffefa 	bl	8ab0 <clean_reboot>
    8ec4:	00009834 	andeq	r9, r0, r4, lsr r8
    8ec8:	00009640 	andeq	r9, r0, r0, asr #12
    8ecc:	000097cc 	andeq	r9, r0, ip, asr #15
    8ed0:	00009634 	andeq	r9, r0, r4, lsr r6
    8ed4:	00009418 	andeq	r9, r0, r8, lsl r4
    8ed8:	0000964c 	andeq	r9, r0, ip, asr #12

00008edc <kmalloc_init>:
    8edc:	e92d4010 	push	{r4, lr}
    8ee0:	e59f303c 	ldr	r3, [pc, #60]	; 8f24 <kmalloc_init+0x48>
    8ee4:	e5933000 	ldr	r3, [r3]
    8ee8:	e3530000 	cmp	r3, #0, 0
    8eec:	1a000006 	bne	8f0c <kmalloc_init+0x30>
    8ef0:	e59f302c 	ldr	r3, [pc, #44]	; 8f24 <kmalloc_init+0x48>
    8ef4:	e3a02001 	mov	r2, #1, 0
    8ef8:	e5832000 	str	r2, [r3]
    8efc:	e3a01201 	mov	r1, #268435456	; 0x10000000
    8f00:	e3a00601 	mov	r0, #1048576	; 0x100000
    8f04:	ebffffcd 	bl	8e40 <kmalloc_init_set_start>
    8f08:	e8bd8010 	pop	{r4, pc}
    8f0c:	e3a03040 	mov	r3, #64, 0	; 0x40
    8f10:	e59f2010 	ldr	r2, [pc, #16]	; 8f28 <kmalloc_init+0x4c>
    8f14:	e59f1010 	ldr	r1, [pc, #16]	; 8f2c <kmalloc_init+0x50>
    8f18:	e59f0010 	ldr	r0, [pc, #16]	; 8f30 <kmalloc_init+0x54>
    8f1c:	ebfffcf0 	bl	82e4 <printk>
    8f20:	ebfffee2 	bl	8ab0 <clean_reboot>
    8f24:	00009c58 	andeq	r9, r0, r8, asr ip
    8f28:	000097e4 	andeq	r9, r0, r4, ror #15
    8f2c:	00009634 	andeq	r9, r0, r4, lsr r6
    8f30:	00009690 	muleq	r0, r0, r6

00008f34 <kmalloc_notzero>:
    8f34:	e52de004 	push	{lr}		; (str lr, [sp, #-4]!)
    8f38:	e24dd00c 	sub	sp, sp, #12, 0
    8f3c:	e3500000 	cmp	r0, #0, 0
    8f40:	0a00000a 	beq	8f70 <kmalloc_notzero+0x3c>
    8f44:	e2800007 	add	r0, r0, #7, 0
    8f48:	e3c03007 	bic	r3, r0, #7, 0
    8f4c:	e59f2060 	ldr	r2, [pc, #96]	; 8fb4 <kmalloc_notzero+0x80>
    8f50:	e5920008 	ldr	r0, [r2, #8]
    8f54:	e0801003 	add	r1, r0, r3
    8f58:	e5821008 	str	r1, [r2, #8]
    8f5c:	e5922000 	ldr	r2, [r2]
    8f60:	e1510002 	cmp	r1, r2
    8f64:	8a000009 	bhi	8f90 <kmalloc_notzero+0x5c>
    8f68:	e28dd00c 	add	sp, sp, #12, 0
    8f6c:	e49df004 	pop	{pc}		; (ldr pc, [sp], #4)
    8f70:	e59f3040 	ldr	r3, [pc, #64]	; 8fb8 <kmalloc_notzero+0x84>
    8f74:	e58d3000 	str	r3, [sp]
    8f78:	e3a03048 	mov	r3, #72, 0	; 0x48
    8f7c:	e59f2038 	ldr	r2, [pc, #56]	; 8fbc <kmalloc_notzero+0x88>
    8f80:	e59f1038 	ldr	r1, [pc, #56]	; 8fc0 <kmalloc_notzero+0x8c>
    8f84:	e59f0038 	ldr	r0, [pc, #56]	; 8fc4 <kmalloc_notzero+0x90>
    8f88:	ebfffcd5 	bl	82e4 <printk>
    8f8c:	ebfffec7 	bl	8ab0 <clean_reboot>
    8f90:	e0422000 	sub	r2, r2, r0
    8f94:	e58d2004 	str	r2, [sp, #4]
    8f98:	e58d3000 	str	r3, [sp]
    8f9c:	e3a0304e 	mov	r3, #78, 0	; 0x4e
    8fa0:	e59f2014 	ldr	r2, [pc, #20]	; 8fbc <kmalloc_notzero+0x88>
    8fa4:	e59f1014 	ldr	r1, [pc, #20]	; 8fc0 <kmalloc_notzero+0x8c>
    8fa8:	e59f0018 	ldr	r0, [pc, #24]	; 8fc8 <kmalloc_notzero+0x94>
    8fac:	ebfffccc 	bl	82e4 <printk>
    8fb0:	ebfffebe 	bl	8ab0 <clean_reboot>
    8fb4:	00009834 	andeq	r9, r0, r4, lsr r8
    8fb8:	00009644 	andeq	r9, r0, r4, asr #12
    8fbc:	000097f4 	strdeq	r9, [r0], -r4
    8fc0:	00009634 	andeq	r9, r0, r4, lsr r6
    8fc4:	00009418 	andeq	r9, r0, r8, lsl r4
    8fc8:	000096c0 	andeq	r9, r0, r0, asr #13

00008fcc <kmalloc>:
    8fcc:	e92d4030 	push	{r4, r5, lr}
    8fd0:	e24dd00c 	sub	sp, sp, #12, 0
    8fd4:	e2504000 	subs	r4, r0, #0, 0
    8fd8:	0a000008 	beq	9000 <kmalloc+0x34>
    8fdc:	e1a00004 	mov	r0, r4
    8fe0:	ebffffd3 	bl	8f34 <kmalloc_notzero>
    8fe4:	e1a05000 	mov	r5, r0
    8fe8:	e1a02004 	mov	r2, r4
    8fec:	e3a01000 	mov	r1, #0, 0
    8ff0:	eb000072 	bl	91c0 <memset>
    8ff4:	e1a00005 	mov	r0, r5
    8ff8:	e28dd00c 	add	sp, sp, #12, 0
    8ffc:	e8bd8030 	pop	{r4, r5, pc}
    9000:	e59f3018 	ldr	r3, [pc, #24]	; 9020 <kmalloc+0x54>
    9004:	e58d3000 	str	r3, [sp]
    9008:	e3a03054 	mov	r3, #84, 0	; 0x54
    900c:	e59f2010 	ldr	r2, [pc, #16]	; 9024 <kmalloc+0x58>
    9010:	e59f1010 	ldr	r1, [pc, #16]	; 9028 <kmalloc+0x5c>
    9014:	e59f0010 	ldr	r0, [pc, #16]	; 902c <kmalloc+0x60>
    9018:	ebfffcb1 	bl	82e4 <printk>
    901c:	ebfffea3 	bl	8ab0 <clean_reboot>
    9020:	00009644 	andeq	r9, r0, r4, asr #12
    9024:	00009804 	andeq	r9, r0, r4, lsl #16
    9028:	00009634 	andeq	r9, r0, r4, lsr r6
    902c:	00009418 	andeq	r9, r0, r8, lsl r4

00009030 <kmalloc_aligned>:
    9030:	e52de004 	push	{lr}		; (str lr, [sp, #-4]!)
    9034:	e24dd00c 	sub	sp, sp, #12, 0
    9038:	e3500000 	cmp	r0, #0, 0
    903c:	0a000014 	beq	9094 <kmalloc_aligned+0x64>
    9040:	e2613000 	rsb	r3, r1, #0, 0
    9044:	e1d13003 	bics	r3, r1, r3
    9048:	1a000019 	bne	90b4 <kmalloc_aligned+0x84>
    904c:	e3510008 	cmp	r1, #8, 0
    9050:	33a01008 	movcc	r1, #8, 0
    9054:	e59f30c0 	ldr	r3, [pc, #192]	; 911c <kmalloc_aligned+0xec>
    9058:	e5932008 	ldr	r2, [r3, #8]
    905c:	e2613000 	rsb	r3, r1, #0, 0
    9060:	e1d1c003 	bics	ip, r1, r3
    9064:	1a00001b 	bne	90d8 <kmalloc_aligned+0xa8>
    9068:	e0822001 	add	r2, r2, r1
    906c:	e2422001 	sub	r2, r2, #1, 0
    9070:	e0033002 	and	r3, r3, r2
    9074:	e2411001 	sub	r1, r1, #1, 0
    9078:	e1110003 	tst	r1, r3
    907c:	1a00001d 	bne	90f8 <kmalloc_aligned+0xc8>
    9080:	e59f2094 	ldr	r2, [pc, #148]	; 911c <kmalloc_aligned+0xec>
    9084:	e5823008 	str	r3, [r2, #8]
    9088:	ebffffcf 	bl	8fcc <kmalloc>
    908c:	e28dd00c 	add	sp, sp, #12, 0
    9090:	e49df004 	pop	{pc}		; (ldr pc, [sp], #4)
    9094:	e59f3084 	ldr	r3, [pc, #132]	; 9120 <kmalloc_aligned+0xf0>
    9098:	e58d3000 	str	r3, [sp]
    909c:	e3a0305f 	mov	r3, #95, 0	; 0x5f
    90a0:	e59f207c 	ldr	r2, [pc, #124]	; 9124 <kmalloc_aligned+0xf4>
    90a4:	e59f107c 	ldr	r1, [pc, #124]	; 9128 <kmalloc_aligned+0xf8>
    90a8:	e59f007c 	ldr	r0, [pc, #124]	; 912c <kmalloc_aligned+0xfc>
    90ac:	ebfffc8c 	bl	82e4 <printk>
    90b0:	ebfffe7e 	bl	8ab0 <clean_reboot>
    90b4:	eb00004c 	bl	91ec <rpi_reset_putc>
    90b8:	e59f3070 	ldr	r3, [pc, #112]	; 9130 <kmalloc_aligned+0x100>
    90bc:	e58d3000 	str	r3, [sp]
    90c0:	e3a03060 	mov	r3, #96, 0	; 0x60
    90c4:	e59f2058 	ldr	r2, [pc, #88]	; 9124 <kmalloc_aligned+0xf4>
    90c8:	e59f1058 	ldr	r1, [pc, #88]	; 9128 <kmalloc_aligned+0xf8>
    90cc:	e59f0060 	ldr	r0, [pc, #96]	; 9134 <kmalloc_aligned+0x104>
    90d0:	ebfffc83 	bl	82e4 <printk>
    90d4:	ebfffe75 	bl	8ab0 <clean_reboot>
    90d8:	e59f3058 	ldr	r3, [pc, #88]	; 9138 <kmalloc_aligned+0x108>
    90dc:	e58d3000 	str	r3, [sp]
    90e0:	e3a03011 	mov	r3, #17, 0
    90e4:	e59f2050 	ldr	r2, [pc, #80]	; 913c <kmalloc_aligned+0x10c>
    90e8:	e59f1038 	ldr	r1, [pc, #56]	; 9128 <kmalloc_aligned+0xf8>
    90ec:	e59f0038 	ldr	r0, [pc, #56]	; 912c <kmalloc_aligned+0xfc>
    90f0:	ebfffc7b 	bl	82e4 <printk>
    90f4:	ebfffe6d 	bl	8ab0 <clean_reboot>
    90f8:	eb00003b 	bl	91ec <rpi_reset_putc>
    90fc:	e59f303c 	ldr	r3, [pc, #60]	; 9140 <kmalloc_aligned+0x110>
    9100:	e58d3000 	str	r3, [sp]
    9104:	e3a03068 	mov	r3, #104, 0	; 0x68
    9108:	e59f2014 	ldr	r2, [pc, #20]	; 9124 <kmalloc_aligned+0xf4>
    910c:	e59f1014 	ldr	r1, [pc, #20]	; 9128 <kmalloc_aligned+0xf8>
    9110:	e59f002c 	ldr	r0, [pc, #44]	; 9144 <kmalloc_aligned+0x114>
    9114:	ebfffc72 	bl	82e4 <printk>
    9118:	ebfffe64 	bl	8ab0 <clean_reboot>
    911c:	00009834 	andeq	r9, r0, r4, lsr r8
    9120:	00009644 	andeq	r9, r0, r4, asr #12
    9124:	0000980c 	andeq	r9, r0, ip, lsl #16
    9128:	00009634 	andeq	r9, r0, r4, lsr r6
    912c:	00009418 	andeq	r9, r0, r8, lsl r4
    9130:	00009734 	andeq	r9, r0, r4, lsr r7
    9134:	00009700 	andeq	r9, r0, r0, lsl #14
    9138:	00009748 	andeq	r9, r0, r8, asr #14
    913c:	0000981c 	andeq	r9, r0, ip, lsl r8
    9140:	00009780 	andeq	r9, r0, r0, lsl #15
    9144:	00009754 	andeq	r9, r0, r4, asr r7

00009148 <kfree>:
    9148:	e12fff1e 	bx	lr

0000914c <kfree_all>:
    914c:	e59f3008 	ldr	r3, [pc, #8]	; 915c <kfree_all+0x10>
    9150:	e5932004 	ldr	r2, [r3, #4]
    9154:	e5832008 	str	r2, [r3, #8]
    9158:	e12fff1e 	bx	lr
    915c:	00009834 	andeq	r9, r0, r4, lsr r8

00009160 <kfree_pop>:
    9160:	e59f3048 	ldr	r3, [pc, #72]	; 91b0 <kfree_pop+0x50>
    9164:	e5933004 	ldr	r3, [r3, #4]
    9168:	e1530000 	cmp	r3, r0
    916c:	8a000006 	bhi	918c <kfree_pop+0x2c>
    9170:	e59f3038 	ldr	r3, [pc, #56]	; 91b0 <kfree_pop+0x50>
    9174:	e5933000 	ldr	r3, [r3]
    9178:	e1530000 	cmp	r3, r0
    917c:	3a000002 	bcc	918c <kfree_pop+0x2c>
    9180:	e59f3028 	ldr	r3, [pc, #40]	; 91b0 <kfree_pop+0x50>
    9184:	e5830008 	str	r0, [r3, #8]
    9188:	e12fff1e 	bx	lr
    918c:	e52de004 	push	{lr}		; (str lr, [sp, #-4]!)
    9190:	e24dd00c 	sub	sp, sp, #12, 0
    9194:	e58d0000 	str	r0, [sp]
    9198:	e3a03077 	mov	r3, #119, 0	; 0x77
    919c:	e59f2010 	ldr	r2, [pc, #16]	; 91b4 <kfree_pop+0x54>
    91a0:	e59f1010 	ldr	r1, [pc, #16]	; 91b8 <kfree_pop+0x58>
    91a4:	e59f0010 	ldr	r0, [pc, #16]	; 91bc <kfree_pop+0x5c>
    91a8:	ebfffc4d 	bl	82e4 <printk>
    91ac:	ebfffe3f 	bl	8ab0 <clean_reboot>
    91b0:	00009834 	andeq	r9, r0, r4, lsr r8
    91b4:	00009824 	andeq	r9, r0, r4, lsr #16
    91b8:	00009634 	andeq	r9, r0, r4, lsr r6
    91bc:	0000979c 	muleq	r0, ip, r7

000091c0 <memset>:
    91c0:	e0802002 	add	r2, r0, r2
    91c4:	e1a03000 	mov	r3, r0
    91c8:	e1530002 	cmp	r3, r2
    91cc:	212fff1e 	bxcs	lr
    91d0:	e4c31001 	strb	r1, [r3], #1
    91d4:	eafffffb 	b	91c8 <memset+0x8>

000091d8 <internal_putchar>:
    91d8:	e92d4010 	push	{r4, lr}
    91dc:	e1a04000 	mov	r4, r0
    91e0:	ebfffee4 	bl	8d78 <uart_putc>
    91e4:	e1a00004 	mov	r0, r4
    91e8:	e8bd8010 	pop	{r4, pc}

000091ec <rpi_reset_putc>:
    91ec:	e59f3008 	ldr	r3, [pc, #8]	; 91fc <rpi_reset_putc+0x10>
    91f0:	e59f2008 	ldr	r2, [pc, #8]	; 9200 <rpi_reset_putc+0x14>
    91f4:	e5832000 	str	r2, [r3]
    91f8:	e12fff1e 	bx	lr
    91fc:	00009840 	andeq	r9, r0, r0, asr #16
    9200:	000091d8 	ldrdeq	r9, [r0], -r8

00009204 <rpi_set_putc>:
    9204:	e59f3004 	ldr	r3, [pc, #4]	; 9210 <rpi_set_putc+0xc>
    9208:	e5830000 	str	r0, [r3]
    920c:	e12fff1e 	bx	lr
    9210:	00009840 	andeq	r9, r0, r0, asr #16

00009214 <strcat>:
    9214:	e1a02000 	mov	r2, r0
    9218:	e1a03002 	mov	r3, r2
    921c:	e2822001 	add	r2, r2, #1, 0
    9220:	e5d3c000 	ldrb	ip, [r3]
    9224:	e35c0000 	cmp	ip, #0, 0
    9228:	1afffffa 	bne	9218 <strcat+0x4>
    922c:	e2433001 	sub	r3, r3, #1, 0
    9230:	e5d12000 	ldrb	r2, [r1]
    9234:	e2811001 	add	r1, r1, #1, 0
    9238:	e5e32001 	strb	r2, [r3, #1]!
    923c:	e3520000 	cmp	r2, #0, 0
    9240:	1afffffa 	bne	9230 <strcat+0x1c>
    9244:	e12fff1e 	bx	lr

00009248 <strcmp>:
    9248:	e5d03000 	ldrb	r3, [r0]
    924c:	e3530000 	cmp	r3, #0, 0
    9250:	0a000004 	beq	9268 <strcmp+0x20>
    9254:	e5d12000 	ldrb	r2, [r1]
    9258:	e1530002 	cmp	r3, r2
    925c:	02800001 	addeq	r0, r0, #1, 0
    9260:	02811001 	addeq	r1, r1, #1, 0
    9264:	0afffff7 	beq	9248 <strcmp>
    9268:	e5d10000 	ldrb	r0, [r1]
    926c:	e0430000 	sub	r0, r3, r0
    9270:	e12fff1e 	bx	lr

00009274 <strcpy>:
    9274:	e1a0c000 	mov	ip, r0
    9278:	e5d12000 	ldrb	r2, [r1]
    927c:	e2811001 	add	r1, r1, #1, 0
    9280:	e5cc2000 	strb	r2, [ip]
    9284:	e28cc001 	add	ip, ip, #1, 0
    9288:	e3520000 	cmp	r2, #0, 0
    928c:	1afffff9 	bne	9278 <strcpy+0x4>
    9290:	e12fff1e 	bx	lr

00009294 <strncmp>:
    9294:	e3520000 	cmp	r2, #0, 0
    9298:	e2422001 	sub	r2, r2, #1, 0
    929c:	0a000005 	beq	92b8 <strncmp+0x24>
    92a0:	e4d03001 	ldrb	r3, [r0], #1
    92a4:	e4d1c001 	ldrb	ip, [r1], #1
    92a8:	e153000c 	cmp	r3, ip
    92ac:	0afffff8 	beq	9294 <strncmp>
    92b0:	e043000c 	sub	r0, r3, ip
    92b4:	e12fff1e 	bx	lr
    92b8:	e3a00000 	mov	r0, #0, 0
    92bc:	e12fff1e 	bx	lr

000092c0 <reboot_callout>:
    92c0:	e12fff1e 	bx	lr

000092c4 <dev_barrier>:
    92c4:	ea000002 	b	92d4 <dsb>

000092c8 <dmb>:
    92c8:	e3a00000 	mov	r0, #0, 0
    92cc:	ee070fba 	mcr	15, 0, r0, cr7, cr10, {5}
    92d0:	e12fff1e 	bx	lr

000092d4 <dsb>:
    92d4:	ee070f9a 	mcr	15, 0, r0, cr7, cr10, {4}
    92d8:	e12fff1e 	bx	lr

000092dc <gpio_set_function>:
    92dc:	e350001f 	cmp	r0, #31, 0
    92e0:	812fff1e 	bxhi	lr
    92e4:	e92d4070 	push	{r4, r5, r6, lr}
    92e8:	e1a05001 	mov	r5, r1
    92ec:	e3d13007 	bics	r3, r1, #7, 0
    92f0:	18bd8070 	popne	{r4, r5, r6, pc}
    92f4:	e59f3040 	ldr	r3, [pc, #64]	; 933c <gpio_set_function+0x60>
    92f8:	e0832093 	umull	r2, r3, r3, r0
    92fc:	e1a031a3 	lsr	r3, r3, #3
    9300:	e1a02003 	mov	r2, r3
    9304:	e0833103 	add	r3, r3, r3, lsl #2
    9308:	e0403083 	sub	r3, r0, r3, lsl #1
    930c:	e0834083 	add	r4, r3, r3, lsl #1
    9310:	e2820302 	add	r0, r2, #134217728	; 0x8000000
    9314:	e2800702 	add	r0, r0, #524288	; 0x80000
    9318:	e1a06100 	lsl	r6, r0, #2
    931c:	e1a00006 	mov	r0, r6
    9320:	ebfffb41 	bl	802c <GET32>
    9324:	e3a01007 	mov	r1, #7, 0
    9328:	e1c01411 	bic	r1, r0, r1, lsl r4
    932c:	e1811415 	orr	r1, r1, r5, lsl r4
    9330:	e1a00006 	mov	r0, r6
    9334:	ebfffb3a 	bl	8024 <PUT32>
    9338:	e8bd8070 	pop	{r4, r5, r6, pc}
    933c:	cccccccd 	stclgt	12, cr12, [ip], {205}	; 0xcd

00009340 <gpio_set_output>:
    9340:	e92d4010 	push	{r4, lr}
    9344:	e3a01001 	mov	r1, #1, 0
    9348:	ebffffe3 	bl	92dc <gpio_set_function>
    934c:	e8bd8010 	pop	{r4, pc}

00009350 <gpio_set_on>:
    9350:	e350001f 	cmp	r0, #31, 0
    9354:	812fff1e 	bxhi	lr
    9358:	e92d4010 	push	{r4, lr}
    935c:	e3a01001 	mov	r1, #1, 0
    9360:	e1a01011 	lsl	r1, r1, r0
    9364:	e59f0004 	ldr	r0, [pc, #4]	; 9370 <gpio_set_on+0x20>
    9368:	ebfffb2d 	bl	8024 <PUT32>
    936c:	e8bd8010 	pop	{r4, pc}
    9370:	2020001c 	eorcs	r0, r0, ip, lsl r0

00009374 <gpio_set_off>:
    9374:	e350001f 	cmp	r0, #31, 0
    9378:	812fff1e 	bxhi	lr
    937c:	e92d4010 	push	{r4, lr}
    9380:	e3a01001 	mov	r1, #1, 0
    9384:	e1a01011 	lsl	r1, r1, r0
    9388:	e59f0004 	ldr	r0, [pc, #4]	; 9394 <gpio_set_off+0x20>
    938c:	ebfffb24 	bl	8024 <PUT32>
    9390:	e8bd8010 	pop	{r4, pc}
    9394:	20200028 	eorcs	r0, r0, r8, lsr #32

00009398 <gpio_set_input>:
    9398:	e92d4010 	push	{r4, lr}
    939c:	e3a01000 	mov	r1, #0, 0
    93a0:	ebffffcd 	bl	92dc <gpio_set_function>
    93a4:	e8bd8010 	pop	{r4, pc}

000093a8 <gpio_write>:
    93a8:	e92d4010 	push	{r4, lr}
    93ac:	e3510000 	cmp	r1, #0, 0
    93b0:	0a000001 	beq	93bc <gpio_write+0x14>
    93b4:	ebffffe5 	bl	9350 <gpio_set_on>
    93b8:	e8bd8010 	pop	{r4, pc}
    93bc:	ebffffec 	bl	9374 <gpio_set_off>
    93c0:	e8bd8010 	pop	{r4, pc}

000093c4 <gpio_read>:
    93c4:	e350001f 	cmp	r0, #31, 0
    93c8:	8a000007 	bhi	93ec <gpio_read+0x28>
    93cc:	e92d4010 	push	{r4, lr}
    93d0:	e200401f 	and	r4, r0, #31, 0
    93d4:	e59f3018 	ldr	r3, [pc, #24]	; 93f4 <gpio_read+0x30>
    93d8:	e08302a0 	add	r0, r3, r0, lsr #5
    93dc:	ebfffb12 	bl	802c <GET32>
    93e0:	e1a00430 	lsr	r0, r0, r4
    93e4:	e2000001 	and	r0, r0, #1, 0
    93e8:	e8bd8010 	pop	{r4, pc}
    93ec:	e3e00000 	mvn	r0, #0, 0
    93f0:	e12fff1e 	bx	lr
    93f4:	20200034 	eorcs	r0, r0, r4, lsr r0

Disassembly of section .rodata:

000093f8 <__FUNCTION__.3966-0xc0>:
    93f8:	6c6c616d 	stfvse	f6, [ip], #-436	; 0xfffffe4c
    93fc:	3128636f 			; <UNDEFINED> instruction: 0x3128636f
    9400:	203d2029 	eorscs	r2, sp, r9, lsr #32
    9404:	000a7025 	andeq	r7, sl, r5, lsr #32
    9408:	65742d31 	ldrbvs	r2, [r4, #-3377]!	; 0xfffff2cf
    940c:	6d2d7473 	cfstrsvs	mvf7, [sp, #-460]!	; 0xfffffe34
    9410:	6f6c6c61 	svcvs	0x006c6c61
    9414:	00632e63 	rsbeq	r2, r3, r3, ror #28
    9418:	494e4150 	stmdbmi	lr, {r4, r6, r8, lr}^
    941c:	73253a43 			; <UNDEFINED> instruction: 0x73253a43
    9420:	3a73253a 	bcc	1cd2910 <__bss_end__+0x1cc8cb0>
    9424:	253a6425 	ldrcs	r6, [sl, #-1061]!	; 0xfffffbdb
    9428:	00000a73 	andeq	r0, r0, r3, ror sl
    942c:	703e3070 	eorsvc	r3, lr, r0, ror r0
    9430:	00000031 	andeq	r0, r0, r1, lsr r0
    9434:	494e4150 	stmdbmi	lr, {r4, r6, r8, lr}^
    9438:	73253a43 			; <UNDEFINED> instruction: 0x73253a43
    943c:	3a73253a 	bcc	1cd292c <__bss_end__+0x1cc8ccc>
    9440:	703a6425 	eorsvc	r6, sl, r5, lsr #8
    9444:	70253d30 	eorvc	r3, r5, r0, lsr sp
    9448:	3170202c 	cmncc	r0, ip, lsr #32
    944c:	2c70253d 	cfldr64cs	mvdx2, [r0], #-244	; 0xffffff0c
    9450:	70786520 	rsbsvc	r6, r8, r0, lsr #10
    9454:	65746365 	ldrbvs	r6, [r4, #-869]!	; 0xfffffc9b
    9458:	69642064 	stmdbvs	r4!, {r2, r5, r6, sp}^
    945c:	253d6666 	ldrcs	r6, [sp, #-1638]!	; 0xfffff99a
    9460:	61202c75 			; <UNDEFINED> instruction: 0x61202c75
    9464:	61757463 	cmnvs	r5, r3, ror #8
    9468:	6c253d6c 	stcvs	13, cr3, [r5], #-432	; 0xfffffe50
    946c:	000a0a75 	andeq	r0, sl, r5, ror sl
    9470:	73736170 	cmnvc	r3, #28
    9474:	69206465 	stmdbvs	r0!, {r0, r2, r5, r6, sl, sp, lr}
    9478:	20726574 	rsbscs	r6, r2, r4, ror r5
    947c:	000a6425 	andeq	r6, sl, r5, lsr #8
    9480:	43415254 	movtmi	r5, #4692	; 0x1254
    9484:	75733a45 	ldrbvc	r3, [r3, #-2629]!	; 0xfffff5bb
    9488:	73656363 	cmnvc	r5, #-1946157055	; 0x8c000001
    948c:	6d203a73 	vstmdbvs	r0!, {s6-s120}
    9490:	6f6c6c61 	svcvs	0x006c6c61
    9494:	72662f63 	rsbvc	r2, r6, #396	; 0x18c
    9498:	61206565 			; <UNDEFINED> instruction: 0x61206565
    949c:	61657070 	smcvs	22272	; 0x5700
    94a0:	6f742072 	svcvs	0x00742072
    94a4:	726f7720 	rsbvc	r7, pc, #32, 14	; 0x800000
    94a8:	6e6f206b 	cdpvs	0, 6, cr2, cr15, cr11, {3}
    94ac:	20642520 	rsbcs	r2, r4, r0, lsr #10
    94b0:	74736574 	ldrbtvc	r6, [r3], #-1396	; 0xfffffa8c
    94b4:	000a2173 	andeq	r2, sl, r3, ror r1

000094b8 <__FUNCTION__.3966>:
    94b8:	6d746f6e 	ldclvs	15, cr6, [r4, #-440]!	; 0xfffffe48
    94bc:	006e6961 	rsbeq	r6, lr, r1, ror #18
    94c0:	696c2f2e 	stmdbvs	ip!, {r1, r2, r3, r5, r8, r9, sl, fp, sp}^
    94c4:	762f6362 	strtvc	r6, [pc], -r2, ror #6
    94c8:	72702d61 	rsbsvc	r2, r0, #6208	; 0x1840
    94cc:	6b746e69 	blvs	1d24e78 <__bss_end__+0x1d1b218>
    94d0:	0000632e 	andeq	r6, r0, lr, lsr #6
    94d4:	00000030 	andeq	r0, r0, r0, lsr r0
    94d8:	33323130 	teqcc	r2, #12
    94dc:	37363534 			; <UNDEFINED> instruction: 0x37363534
    94e0:	00003938 	andeq	r3, r0, r8, lsr r9
    94e4:	33323130 	teqcc	r2, #12
    94e8:	37363534 			; <UNDEFINED> instruction: 0x37363534
    94ec:	62613938 	rsbvs	r3, r1, #56, 18	; 0xe0000
    94f0:	66656463 	strbtvs	r6, [r5], -r3, ror #8
    94f4:	00000000 	andeq	r0, r0, r0
    94f8:	00003130 	andeq	r3, r0, r0, lsr r1
    94fc:	63747570 	cmnvs	r4, #112, 10	; 0x1c000000
    9500:	0070665f 	rsbseq	r6, r0, pc, asr r6
    9504:	74646977 	strbtvc	r6, [r4], #-2423	; 0xfffff689
    9508:	203c2068 	eorscs	r2, ip, r8, rrx
    950c:	00003233 	andeq	r3, r0, r3, lsr r2
    9510:	00786c6c 	rsbseq	r6, r8, ip, ror #24
    9514:	00646c6c 	rsbeq	r6, r4, ip, ror #24
    9518:	253d3078 	ldrcs	r3, [sp, #-120]!	; 0xffffff88
    951c:	00000a78 	andeq	r0, r0, r8, ror sl
    9520:	253d3178 	ldrcs	r3, [sp, #-376]!	; 0xfffffe88
    9524:	00000a78 	andeq	r0, r0, r8, ror sl
    9528:	6e727473 	mrcvs	4, 3, r7, cr2, cr3, {3}
    952c:	28706d63 	ldmdacs	r0!, {r0, r1, r5, r6, r8, sl, fp, sp, lr}^
    9530:	202c7974 	eorcs	r7, ip, r4, ror r9
    9534:	786c6c22 	stmdavc	ip!, {r1, r5, sl, fp, sp, lr}^
    9538:	33202c22 			; <UNDEFINED> instruction: 0x33202c22
    953c:	3d3d2029 	ldccc	0, cr2, [sp, #-164]!	; 0xffffff5c
    9540:	7c203020 	stcvc	0, cr3, [r0], #-128	; 0xffffff80
    9544:	7473207c 	ldrbtvc	r2, [r3], #-124	; 0xffffff84
    9548:	6d636e72 	stclvs	14, cr6, [r3, #-456]!	; 0xfffffe38
    954c:	79742870 	ldmdbvc	r4!, {r4, r5, r6, fp, sp}^
    9550:	6c22202c 	stcvs	0, cr2, [r2], #-176	; 0xffffff50
    9554:	2c22646c 	cfstrscs	mvf6, [r2], #-432	; 0xfffffe50
    9558:	20293320 	eorcs	r3, r9, r0, lsr #6
    955c:	30203d3d 	eorcc	r3, r0, sp, lsr sp
    9560:	00000000 	andeq	r0, r0, r0
    9564:	494e4150 	stmdbmi	lr, {r4, r6, r8, lr}^
    9568:	73253a43 			; <UNDEFINED> instruction: 0x73253a43
    956c:	3a73253a 	bcc	1cd2a5c <__bss_end__+0x1cc8dfc>
    9570:	693a6425 	ldmdbvs	sl!, {r0, r2, r5, sl, sp, lr}
    9574:	736f706d 	cmnvc	pc, #109, 0	; 0x6d
    9578:	6c626973 			; <UNDEFINED> instruction: 0x6c626973
    957c:	66203a65 	strtvs	r3, [r0], -r5, ror #20
    9580:	3c3d746d 	cfldrscc	mvf7, [sp], #-436	; 0xfffffe4c
    9584:	0a3e7325 	beq	fa6220 <__bss_end__+0xf9c5c0>
    9588:	0000000a 	andeq	r0, r0, sl
    958c:	494e4150 	stmdbmi	lr, {r4, r6, r8, lr}^
    9590:	73253a43 			; <UNDEFINED> instruction: 0x73253a43
    9594:	3a73253a 	bcc	1cd2a84 <__bss_end__+0x1cc8e24>
    9598:	663a6425 	ldrtvs	r6, [sl], -r5, lsr #8
    959c:	74616f6c 	strbtvc	r6, [r1], #-3948	; 0xfffff094
    95a0:	746f6e20 	strbtvc	r6, [pc], #-3616	; 95a8 <__FUNCTION__.3966+0xf0>
    95a4:	616e6520 	cmnvs	lr, r0, lsr #10
    95a8:	64656c62 	strbtvs	r6, [r5], #-3170	; 0xfffff39e
    95ac:	0a212121 	beq	851a38 <__bss_end__+0x847dd8>
    95b0:	00000000 	andeq	r0, r0, r0
    95b4:	6e697270 	mcrvs	2, 3, r7, cr9, cr0, {3}
    95b8:	203a6b74 	eorscs	r6, sl, r4, ror fp
    95bc:	20746f6e 	rsbscs	r6, r4, lr, ror #30
    95c0:	646e6168 	strbtvs	r6, [lr], #-360	; 0xfffffe98
    95c4:	676e696c 	strbvs	r6, [lr, -ip, ror #18]!
    95c8:	65707320 	ldrbvs	r7, [r0, #-800]!	; 0xfffffce0
    95cc:	69666963 	stmdbvs	r6!, {r0, r1, r5, r6, r8, fp, sp, lr}^
    95d0:	27207265 	strcs	r7, [r0, -r5, ror #4]!
    95d4:	20276325 	eorcs	r6, r7, r5, lsr #6
    95d8:	63736128 	cmnvs	r3, #10
    95dc:	253d6969 	ldrcs	r6, [sp, #-2409]!	; 0xfffff697
    95e0:	000a2964 	andeq	r2, sl, r4, ror #18
    95e4:	494e4150 	stmdbmi	lr, {r4, r6, r8, lr}^
    95e8:	73253a43 			; <UNDEFINED> instruction: 0x73253a43
    95ec:	3a73253a 	bcc	1cd2adc <__bss_end__+0x1cc8e7c>
    95f0:	703a6425 	eorsvc	r6, sl, r5, lsr #8
    95f4:	746e6972 	strbtvc	r6, [lr], #-2418	; 0xfffff68e
    95f8:	7265206b 	rsbvc	r2, r5, #107, 0	; 0x6b
    95fc:	0a726f72 	beq	1ca53cc <__bss_end__+0x1c9b76c>
    9600:	0000000a 	andeq	r0, r0, sl

00009604 <__FUNCTION__.4008>:
    9604:	74696d65 	strbtvc	r6, [r9], #-3429	; 0xfffff29b
    9608:	00000000 	andeq	r0, r0, r0

0000960c <__FUNCTION__.3956>:
    960c:	5f697072 	svcpl	0x00697072
    9610:	5f746573 	svcpl	0x00746573
    9614:	7074756f 	rsbsvc	r7, r4, pc, ror #10
    9618:	00007475 	andeq	r7, r0, r5, ror r4

0000961c <__FUNCTION__.4034>:
    961c:	705f6176 	subsvc	r6, pc, r6, ror r1	; <UNPREDICTABLE>
    9620:	746e6972 	strbtvc	r6, [lr], #-2418	; 0xfffff68e
    9624:	0000006b 	andeq	r0, r0, fp, rrx
    9628:	454e4f44 	strbmi	r4, [lr, #-3908]	; 0xfffff0bc
    962c:	0a212121 	beq	851ab8 <__bss_end__+0x847e58>
    9630:	00000000 	andeq	r0, r0, r0
    9634:	6c616d6b 	stclvs	13, cr6, [r1], #-428	; 0xfffffe54
    9638:	2e636f6c 	cdpcs	15, 6, cr6, cr3, cr12, {3}
    963c:	00000063 	andeq	r0, r0, r3, rrx
    9640:	5f78616d 	svcpl	0x0078616d
    9644:	7479626e 	ldrbtvc	r6, [r9], #-622	; 0xfffffd92
    9648:	00007365 	andeq	r7, r0, r5, ror #6
    964c:	494e4150 	stmdbmi	lr, {r4, r6, r8, lr}^
    9650:	73253a43 			; <UNDEFINED> instruction: 0x73253a43
    9654:	3a73253a 	bcc	1cd2b44 <__bss_end__+0x1cc8ee4>
    9658:	733a6425 	teqvc	sl, #620756992	; 0x25000000
    965c:	69747465 	ldmdbvs	r4!, {r0, r2, r5, r6, sl, ip, sp, lr}^
    9660:	6820676e 	stmdavs	r0!, {r1, r2, r3, r5, r6, r8, r9, sl, sp, lr}
    9664:	20706165 	rsbscs	r6, r0, r5, ror #2
    9668:	25206f74 	strcs	r6, [r0, #-3956]!	; 0xfffff08c
    966c:	77203a70 			; <UNDEFINED> instruction: 0x77203a70
    9670:	206c6c69 	rsbcs	r6, ip, r9, ror #24
    9674:	20746968 	rsbscs	r6, r4, r8, ror #18
    9678:	20656874 	rsbcs	r6, r5, r4, ror r8
    967c:	20646c6f 	rsbcs	r6, r4, pc, ror #24
    9680:	70616568 	rsbvc	r6, r1, r8, ror #10
    9684:	20746120 	rsbscs	r6, r4, r0, lsr #2
    9688:	0a0a7025 	beq	2a5724 <__bss_end__+0x29bac4>
    968c:	00000000 	andeq	r0, r0, r0
    9690:	494e4150 	stmdbmi	lr, {r4, r6, r8, lr}^
    9694:	73253a43 			; <UNDEFINED> instruction: 0x73253a43
    9698:	3a73253a 	bcc	1cd2b88 <__bss_end__+0x1cc8f28>
    969c:	613a6425 	teqvs	sl, r5, lsr #8
    96a0:	6165726c 	cmnvs	r5, ip, ror #4
    96a4:	63207964 			; <UNDEFINED> instruction: 0x63207964
    96a8:	656c6c61 	strbvs	r6, [ip, #-3169]!	; 0xfffff39f
    96ac:	6d6b2064 	stclvs	0, cr2, [fp, #-400]!	; 0xfffffe70
    96b0:	6f6c6c61 	svcvs	0x006c6c61
    96b4:	6e695f63 	cdpvs	15, 6, cr5, cr9, cr3, {3}
    96b8:	0a0a7469 	beq	2a6864 <__bss_end__+0x29cc04>
    96bc:	00000000 	andeq	r0, r0, r0
    96c0:	494e4150 	stmdbmi	lr, {r4, r6, r8, lr}^
    96c4:	73253a43 			; <UNDEFINED> instruction: 0x73253a43
    96c8:	3a73253a 	bcc	1cd2bb8 <__bss_end__+0x1cc8f58>
    96cc:	253a6425 	ldrcs	r6, [sl, #-1061]!	; 0xfffffbdb
    96d0:	626e2064 	rsbvs	r2, lr, #100, 0	; 0x64
    96d4:	73657479 	cmnvc	r5, #2030043136	; 0x79000000
    96d8:	63786520 	cmnvs	r8, #32, 10	; 0x8000000
    96dc:	65646565 	strbvs	r6, [r4, #-1381]!	; 0xfffffa9b
    96e0:	69732064 	ldmdbvs	r3!, {r2, r5, r6, sp}^
    96e4:	6f20657a 	svcvs	0x0020657a
    96e8:	65682066 	strbvs	r2, [r8, #-102]!	; 0xffffff9a
    96ec:	62207061 	eorvs	r7, r0, #97, 0	; 0x61
    96f0:	75252079 	strvc	r2, [r5, #-121]!	; 0xffffff87
    96f4:	79626e20 	stmdbvc	r2!, {r5, r9, sl, fp, sp, lr}^
    96f8:	0a736574 	beq	1ce2cd0 <__bss_end__+0x1cd9070>
    96fc:	0000000a 	andeq	r0, r0, sl
    9700:	4f525245 	svcmi	0x00525245
    9704:	73253a52 			; <UNDEFINED> instruction: 0x73253a52
    9708:	3a73253a 	bcc	1cd2bf8 <__bss_end__+0x1cc8f98>
    970c:	203a6425 	eorscs	r6, sl, r5, lsr #8
    9710:	534c4146 	movtpl	r4, #49478	; 0xc146
    9714:	253c2845 	ldrcs	r2, [ip, #-2117]!	; 0xfffff7bb
    9718:	3a293e73 	bcc	a590ec <__bss_end__+0xa4f48c>
    971c:	73736120 	cmnvc	r3, #8
    9720:	6e696d75 	mcrvs	13, 3, r6, cr9, cr5, {3}
    9724:	6f702067 	svcvs	0x00702067
    9728:	20726577 	rsbscs	r6, r2, r7, ror r5
    972c:	7420666f 	strtvc	r6, [r0], #-1647	; 0xfffff991
    9730:	000a6f77 	andeq	r6, sl, r7, ror pc
    9734:	705f7369 	subsvc	r7, pc, r9, ror #6
    9738:	2832776f 	ldmdacs	r2!, {r0, r1, r2, r3, r5, r6, r8, r9, sl, ip, sp, lr}
    973c:	67696c61 	strbvs	r6, [r9, -r1, ror #24]!
    9740:	6e656d6e 	cdpvs	13, 6, cr6, cr5, cr14, {3}
    9744:	00002974 	andeq	r2, r0, r4, ror r9
    9748:	705f7369 	subsvc	r7, pc, r9, ror #6
    974c:	2832776f 	ldmdacs	r2!, {r0, r1, r2, r3, r5, r6, r8, r9, sl, ip, sp, lr}
    9750:	0000296e 	andeq	r2, r0, lr, ror #18
    9754:	4f525245 	svcmi	0x00525245
    9758:	73253a52 			; <UNDEFINED> instruction: 0x73253a52
    975c:	3a73253a 	bcc	1cd2c4c <__bss_end__+0x1cc8fec>
    9760:	203a6425 	eorscs	r6, sl, r5, lsr #8
    9764:	534c4146 	movtpl	r4, #49478	; 0xc146
    9768:	253c2845 	ldrcs	r2, [ip, #-2117]!	; 0xfffff7bb
    976c:	3a293e73 	bcc	a59140 <__bss_end__+0xa4f4e0>
    9770:	706d6920 	rsbvc	r6, sp, r0, lsr #18
    9774:	6973736f 	ldmdbvs	r3!, {r0, r1, r2, r3, r5, r6, r8, r9, ip, sp, lr}^
    9778:	0a656c62 	beq	1964908 <__bss_end__+0x195aca8>
    977c:	00000000 	andeq	r0, r0, r0
    9780:	615f7369 	cmpvs	pc, r9, ror #6
    9784:	6e67696c 	vnmulvs.f16	s13, s14, s25	; <UNPREDICTABLE>
    9788:	68286465 	stmdavs	r8!, {r0, r2, r5, r6, sl, sp, lr}
    978c:	6c61202c 	stclvs	0, cr2, [r1], #-176	; 0xffffff50
    9790:	6d6e6769 	stclvs	7, cr6, [lr, #-420]!	; 0xfffffe5c
    9794:	29746e65 	ldmdbcs	r4!, {r0, r2, r5, r6, r9, sl, fp, sp, lr}^
    9798:	00000000 	andeq	r0, r0, r0
    979c:	494e4150 	stmdbmi	lr, {r4, r6, r8, lr}^
    97a0:	73253a43 			; <UNDEFINED> instruction: 0x73253a43
    97a4:	3a73253a 	bcc	1cd2c94 <__bss_end__+0x1cc9034>
    97a8:	703a6425 	eorsvc	r6, sl, r5, lsr #8
    97ac:	746e696f 	strbtvc	r6, [lr], #-2415	; 0xfffff691
    97b0:	25207265 	strcs	r7, [r0, #-613]!	; 0xfffffd9b
    97b4:	61772070 	cmnvs	r7, r0, ror r0
    97b8:	656e2073 	strbvs	r2, [lr, #-115]!	; 0xffffff8d
    97bc:	20726576 	rsbscs	r6, r2, r6, ror r5
    97c0:	6f6c6c61 	svcvs	0x006c6c61
    97c4:	65746163 	ldrbvs	r6, [r4, #-355]!	; 0xfffffe9d
    97c8:	000a0a64 	andeq	r0, sl, r4, ror #20

000097cc <__FUNCTION__.7>:
    97cc:	6c616d6b 	stclvs	13, cr6, [r1], #-428	; 0xfffffe54
    97d0:	5f636f6c 	svcpl	0x00636f6c
    97d4:	74696e69 	strbtvc	r6, [r9], #-3689	; 0xfffff197
    97d8:	7465735f 	strbtvc	r7, [r5], #-863	; 0xfffffca1
    97dc:	6174735f 	cmnvs	r4, pc, asr r3
    97e0:	00007472 	andeq	r7, r0, r2, ror r4

000097e4 <__FUNCTION__.5>:
    97e4:	6c616d6b 	stclvs	13, cr6, [r1], #-428	; 0xfffffe54
    97e8:	5f636f6c 	svcpl	0x00636f6c
    97ec:	74696e69 	strbtvc	r6, [r9], #-3689	; 0xfffff197
    97f0:	00000000 	andeq	r0, r0, r0

000097f4 <__FUNCTION__.4>:
    97f4:	6c616d6b 	stclvs	13, cr6, [r1], #-428	; 0xfffffe54
    97f8:	5f636f6c 	svcpl	0x00636f6c
    97fc:	7a746f6e 	bvc	1d255bc <__bss_end__+0x1d1b95c>
    9800:	006f7265 	rsbeq	r7, pc, r5, ror #4

00009804 <__FUNCTION__.2>:
    9804:	6c616d6b 	stclvs	13, cr6, [r1], #-428	; 0xfffffe54
    9808:	00636f6c 	rsbeq	r6, r3, ip, ror #30

0000980c <__FUNCTION__.1>:
    980c:	6c616d6b 	stclvs	13, cr6, [r1], #-428	; 0xfffffe54
    9810:	5f636f6c 	svcpl	0x00636f6c
    9814:	67696c61 	strbvs	r6, [r9, -r1, ror #24]!
    9818:	0064656e 	rsbeq	r6, r4, lr, ror #10

0000981c <__FUNCTION__.3>:
    981c:	6e756f72 	mrcvs	15, 3, r6, cr5, cr2, {3}
    9820:	00707564 	rsbseq	r7, r0, r4, ror #10

00009824 <__FUNCTION__.0>:
    9824:	6572666b 	ldrbvs	r6, [r2, #-1643]!	; 0xfffff995
    9828:	6f705f65 	svcvs	0x00705f65
    982c:	Address 0x000000000000982c is out of bounds.


Disassembly of section .data:

00009830 <putk>:
    9830:	0000833c 	andeq	r8, r0, ip, lsr r3

00009834 <heap_end>:
    9834:	00209c60 	eoreq	r9, r0, r0, ror #24

00009838 <heap_start>:
    9838:	00009c60 	andeq	r9, r0, r0, ror #24

0000983c <heap>:
    983c:	00009c60 	andeq	r9, r0, r0, ror #24

00009840 <rpi_putchar>:
    9840:	000091d8 	ldrdeq	r9, [r0], -r8

Disassembly of section .bss:

00009848 <__bss_start__>:
	...

00009850 <base>:
	...

00009858 <buf.3948>:
	...

00009c58 <init_p.6>:
	...

Disassembly of section .ARM.attributes:

00000000 <.ARM.attributes>:
   0:	00002a41 	andeq	r2, r0, r1, asr #20
   4:	61656100 	cmnvs	r5, r0, lsl #2
   8:	01006962 	tsteq	r0, r2, ror #18
   c:	00000020 	andeq	r0, r0, r0, lsr #32
  10:	4b5a3605 	blmi	168d82c <__bss_end__+0x1683bcc>
  14:	08070600 	stmdaeq	r7, {r9, sl}
  18:	12010901 	andne	r0, r1, #16384	; 0x4000
  1c:	15011404 	strne	r1, [r1, #-1028]	; 0xfffffbfc
  20:	18031701 	stmdane	r3, {r0, r8, r9, sl, ip}
  24:	22011a01 	andcs	r1, r1, #4096	; 0x1000
  28:	Address 0x0000000000000028 is out of bounds.


Disassembly of section .comment:

00000000 <.comment>:
   0:	3a434347 	bcc	10d0d24 <__bss_end__+0x10c70c4>
   4:	4e472820 	cdpmi	8, 4, cr2, cr7, cr0, {1}
   8:	6f542055 	svcvs	0x00542055
   c:	20736c6f 	rsbscs	r6, r3, pc, ror #24
  10:	20726f66 	rsbscs	r6, r2, r6, ror #30
  14:	206d7241 	rsbcs	r7, sp, r1, asr #4
  18:	65626d45 	strbvs	r6, [r2, #-3397]!	; 0xfffff2bb
  1c:	64656464 	strbtvs	r6, [r5], #-1124	; 0xfffffb9c
  20:	6f725020 	svcvs	0x00725020
  24:	73736563 	cmnvc	r3, #415236096	; 0x18c00000
  28:	2073726f 	rsbscs	r7, r3, pc, ror #4
  2c:	30322d39 	eorscc	r2, r2, r9, lsr sp
  30:	712d3931 			; <UNDEFINED> instruction: 0x712d3931
  34:	616d2d34 	cmnvs	sp, r4, lsr sp
  38:	29726f6a 	ldmdbcs	r2!, {r1, r3, r5, r6, r8, r9, sl, fp, sp, lr}^
  3c:	322e3920 	eorcc	r3, lr, #32, 18	; 0x80000
  40:	3220312e 	eorcc	r3, r0, #-2147483637	; 0x8000000b
  44:	31393130 	teqcc	r9, r0, lsr r1
  48:	20353230 	eorscs	r3, r5, r0, lsr r2
  4c:	6c657228 	sfmvs	f7, 2, [r5], #-160	; 0xffffff60
  50:	65736165 	ldrbvs	r6, [r3, #-357]!	; 0xfffffe9b
  54:	415b2029 	cmpmi	fp, r9, lsr #32
  58:	612f4d52 			; <UNDEFINED> instruction: 0x612f4d52
  5c:	392d6d72 	pushcc	{r1, r4, r5, r6, r8, sl, fp, sp, lr}
  60:	6172622d 	cmnvs	r2, sp, lsr #4
  64:	2068636e 	rsbcs	r6, r8, lr, ror #6
  68:	69766572 	ldmdbvs	r6!, {r1, r4, r5, r6, r8, sl, sp, lr}^
  6c:	6e6f6973 			; <UNDEFINED> instruction: 0x6e6f6973
  70:	37373220 	ldrcc	r3, [r7, -r0, lsr #4]!
  74:	5d393935 			; <UNDEFINED> instruction: 0x5d393935
  78:	43434700 	movtmi	r4, #14080	; 0x3700
  7c:	4728203a 			; <UNDEFINED> instruction: 0x4728203a
  80:	4120554e 			; <UNDEFINED> instruction: 0x4120554e
  84:	45206d72 	strmi	r6, [r0, #-3442]!	; 0xfffff28e
  88:	6465626d 	strbtvs	r6, [r5], #-621	; 0xfffffd93
  8c:	20646564 	rsbcs	r6, r4, r4, ror #10
  90:	6c6f6f54 	stclvs	15, cr6, [pc], #-336	; ffffff48 <__bss_end__+0xffff62e8>
  94:	69616863 	stmdbvs	r1!, {r0, r1, r5, r6, fp, sp, lr}^
  98:	3031206e 	eorscc	r2, r1, lr, rrx
  9c:	322d332e 	eorcc	r3, sp, #-1207959552	; 0xb8000000
  a0:	2e313230 	mrccs	2, 1, r3, cr1, cr0, {1}
  a4:	20293031 	eorcs	r3, r9, r1, lsr r0
  a8:	332e3031 			; <UNDEFINED> instruction: 0x332e3031
  ac:	3220312e 	eorcc	r3, r0, #-2147483637	; 0x8000000b
  b0:	30313230 	eorscc	r3, r1, r0, lsr r2
  b4:	20343238 	eorscs	r3, r4, r8, lsr r2
  b8:	6c657228 	sfmvs	f7, 2, [r5], #-160	; 0xffffff60
  bc:	65736165 	ldrbvs	r6, [r3, #-357]!	; 0xfffffe9b
  c0:	Address 0x00000000000000c0 is out of bounds.


Disassembly of section .debug_info:

00000000 <.debug_info>:
       0:	000002b9 			; <UNDEFINED> instruction: 0x000002b9
       4:	00000004 	andeq	r0, r0, r4
       8:	01040000 	mrseq	r0, (UNDEF: 4)
       c:	00000103 	andeq	r0, r0, r3, lsl #2
      10:	0000510c 	andeq	r5, r0, ip, lsl #2
      14:	00009200 	andeq	r9, r0, r0, lsl #4
      18:	00803800 	addeq	r3, r0, r0, lsl #16
      1c:	0000f400 	andeq	pc, r0, r0, lsl #8
      20:	00000000 	andeq	r0, r0, r0
      24:	05040200 	streq	r0, [r4, #-512]	; 0xfffffe00
      28:	00746e69 	rsbseq	r6, r4, r9, ror #28
      2c:	6b070403 	blvs	1c1040 <__bss_end__+0x1b73e0>
      30:	03000000 	movweq	r0, #0
      34:	000a0601 	andeq	r0, sl, r1, lsl #12
      38:	02030000 	andeq	r0, r3, #0, 0
      3c:	0000ef05 	andeq	lr, r0, r5, lsl #30
      40:	05040300 	streq	r0, [r4, #-768]	; 0xfffffd00
      44:	0000007d 	andeq	r0, r0, sp, ror r0
      48:	78050803 	stmdavc	r5, {r0, r1, fp}
      4c:	03000000 	movweq	r0, #0
      50:	00080801 	andeq	r0, r8, r1, lsl #16
      54:	02030000 	andeq	r0, r3, #0, 0
      58:	00002307 	andeq	r2, r0, r7, lsl #6
      5c:	07040300 	streq	r0, [r4, -r0, lsl #6]
      60:	00000066 	andeq	r0, r0, r6, rrx
      64:	61070803 	tstvs	r7, r3, lsl #16
      68:	04000000 	streq	r0, [r0], #-0
      6c:	00000025 	andeq	r0, r0, r5, lsr #32
      70:	0000007a 	andeq	r0, r0, sl, ror r0
      74:	00002505 	andeq	r2, r0, r5, lsl #10
      78:	86060000 	strhi	r0, [r6], -r0
      7c:	02000000 	andeq	r0, r0, #0, 0
      80:	00860e1c 	addeq	r0, r6, ip, lsl lr
      84:	04070000 	streq	r0, [r7], #-0
      88:	0000006b 	andeq	r0, r0, fp, rrx
      8c:	00002504 	andeq	r2, r0, r4, lsl #10
      90:	00009b00 	andeq	r9, r0, r0, lsl #22
      94:	009b0500 	addseq	r0, fp, r0, lsl #10
      98:	07000000 	streq	r0, [r0, -r0]
      9c:	0000a804 	andeq	sl, r0, r4, lsl #16
      a0:	08010300 	stmdaeq	r1, {r8, r9}
      a4:	00000011 	andeq	r0, r0, r1, lsl r0
      a8:	0000a108 	andeq	sl, r0, r8, lsl #2
      ac:	03820600 	orreq	r0, r2, #0, 12
      b0:	21020000 	mrscs	r0, (UNDEF: 2)
      b4:	0000b90e 	andeq	fp, r0, lr, lsl #18
      b8:	8c040700 	stchi	7, cr0, [r4], {-0}
      bc:	03000000 	movweq	r0, #0
      c0:	00360408 	eorseq	r0, r6, r8, lsl #8
      c4:	00090000 	andeq	r0, r9, r0
      c8:	01000000 	mrseq	r0, (UNDEF: 0)
      cc:	80380615 	eorshi	r0, r8, r5, lsl r6
      d0:	00f40000 	rscseq	r0, r4, r0
      d4:	9c010000 	stcls	0, cr0, [r1], {-0}
      d8:	0000027d 	andeq	r0, r0, sp, ror r2
      dc:	0030700a 	eorseq	r7, r0, sl
      e0:	7d0b1601 	stcvc	6, cr1, [fp, #-4]
      e4:	0a000002 	beq	f4 <__code_start__-0x7f0c>
      e8:	00000000 	andeq	r0, r0, r0
      ec:	0b000000 	bleq	f4 <__code_start__-0x7f0c>
      f0:	1701006e 	strne	r0, [r1, -lr, rrx]
      f4:	00002c0e 	andeq	r2, r0, lr, lsl #24
      f8:	4a0c1000 	bmi	304100 <__bss_end__+0x2fa4a0>
      fc:	01000000 	mrseq	r0, (UNDEF: 0)
     100:	0025091a 	eoreq	r0, r5, sl, lsl r9
     104:	0d0a0000 	stceq	0, cr0, [sl, #-0]
     108:	0000003d 	andeq	r0, r0, sp, lsr r0
     10c:	00000293 	muleq	r0, r3, r2
     110:	94b80305 	ldrtls	r0, [r8], #773	; 0x305
     114:	580e0000 	stmdapl	lr, {}	; <UNPREDICTABLE>
     118:	a0000080 	andge	r0, r0, r0, lsl #1
     11c:	34000000 	strcc	r0, [r0], #-0
     120:	0a000002 	beq	130 <__code_start__-0x7ed0>
     124:	1d010069 	stcne	0, cr0, [r1, #-420]	; 0xfffffe5c
     128:	0000250d 	andeq	r2, r0, sp, lsl #10
     12c:	00004d00 	andeq	r4, r0, r0, lsl #26
     130:	00004900 	andeq	r4, r0, r0, lsl #18
     134:	00000f00 	andeq	r0, r0, r0, lsl #30
     138:	700a0000 	andvc	r0, sl, r0
     13c:	1e010031 	mcrne	0, 0, r0, cr1, cr1, {1}
     140:	00027d0f 	andeq	r7, r2, pc, lsl #26
     144:	00007200 	andeq	r7, r0, r0, lsl #4
     148:	00006c00 	andeq	r6, r0, r0, lsl #24
     14c:	806c1000 	rsbhi	r1, ip, r0
     150:	02980000 	addseq	r0, r8, #0, 0
     154:	01600000 	cmneq	r0, r0
     158:	01110000 	tsteq	r1, r0
     15c:	00310150 	eorseq	r0, r1, r0, asr r1
     160:	00807c10 	addeq	r7, r0, r0, lsl ip
     164:	0002a400 	andeq	sl, r2, r0, lsl #8
     168:	00017d00 	andeq	r7, r1, r0, lsl #26
     16c:	50011100 	andpl	r1, r1, r0, lsl #2
     170:	93f80305 	mvnsls	r0, #335544320	; 0x14000000
     174:	01110000 	tsteq	r1, r0
     178:	00740251 	rsbseq	r0, r4, r1, asr r2
     17c:	809c1000 	addshi	r1, ip, r0
     180:	02a40000 	adceq	r0, r4, #0, 0
     184:	019a0000 	orrseq	r0, sl, r0
     188:	01110000 	tsteq	r1, r0
     18c:	70030550 	andvc	r0, r3, r0, asr r5
     190:	11000094 	swpne	r0, r4, [r0]	; <UNPREDICTABLE>
     194:	75025101 	strvc	r5, [r2, #-257]	; 0xfffffeff
     198:	c4100000 	ldrgt	r0, [r0], #-0
     19c:	a4000080 	strge	r0, [r0], #-128	; 0xffffff80
     1a0:	d3000002 	movwle	r0, #2
     1a4:	11000001 	tstne	r0, r1
     1a8:	03055001 	movweq	r5, #20481	; 0x5001
     1ac:	00009418 	andeq	r9, r0, r8, lsl r4
     1b0:	05510111 	ldrbeq	r0, [r1, #-273]	; 0xfffffeef
     1b4:	00940803 	addseq	r0, r4, r3, lsl #16
     1b8:	52011100 	andpl	r1, r1, #0
     1bc:	94b80305 	ldrtls	r0, [r8], #773	; 0x305
     1c0:	01110000 	tsteq	r1, r0
     1c4:	21080253 	tstcs	r8, r3, asr r2
     1c8:	007d0211 	rsbseq	r0, sp, r1, lsl r2
     1cc:	942c0305 	strtls	r0, [ip], #-773	; 0xfffffcfb
     1d0:	12000000 	andne	r0, r0, #0, 0
     1d4:	000080c8 	andeq	r8, r0, r8, asr #1
     1d8:	000002b0 			; <UNDEFINED> instruction: 0x000002b0
     1dc:	0080f410 	addeq	pc, r0, r0, lsl r4	; <UNPREDICTABLE>
     1e0:	0002a400 	andeq	sl, r2, r0, lsl #8
     1e4:	00022900 	andeq	r2, r2, r0, lsl #18
     1e8:	50011100 	andpl	r1, r1, r0, lsl #2
     1ec:	94340305 	ldrtls	r0, [r4], #-773	; 0xfffffcfb
     1f0:	01110000 	tsteq	r1, r0
     1f4:	08030551 	stmdaeq	r3, {r0, r4, r6, r8, sl}
     1f8:	11000094 	swpne	r0, r4, [r0]	; <UNPREDICTABLE>
     1fc:	03055201 	movweq	r5, #20993	; 0x5201
     200:	000094b8 			; <UNDEFINED> instruction: 0x000094b8
     204:	02530111 	subseq	r0, r3, #1073741828	; 0x40000004
     208:	02112308 	andseq	r2, r1, #8, 6	; 0x20000000
     20c:	7602007d 			; <UNDEFINED> instruction: 0x7602007d
     210:	7d021100 	stfvcs	f1, [r2, #-0]
     214:	00740204 	rsbseq	r0, r4, r4, lsl #4
     218:	087d0211 	ldmdaeq	sp!, {r0, r4, r9}^
     21c:	02114001 	andseq	r4, r1, #1, 0
     220:	74050c7d 	strvc	r0, [r5], #-3197	; 0xfffff383
     224:	1c007600 	stcne	6, cr7, [r0], {-0}
     228:	80f81200 	rscshi	r1, r8, r0, lsl #4
     22c:	02b00000 	adcseq	r0, r0, #0, 0
     230:	00000000 	andeq	r0, r0, r0
     234:	00804810 	addeq	r4, r0, r0, lsl r8
     238:	00029800 	andeq	r9, r2, r0, lsl #16
     23c:	00024700 	andeq	r4, r2, r0, lsl #14
     240:	50011100 	andpl	r1, r1, r0, lsl #2
     244:	10003101 	andne	r3, r0, r1, lsl #2
     248:	00008058 	andeq	r8, r0, r8, asr r0
     24c:	000002a4 	andeq	r0, r0, r4, lsr #5
     250:	00000264 	andeq	r0, r0, r4, ror #4
     254:	05500111 	ldrbeq	r0, [r0, #-273]	; 0xfffffeef
     258:	0093f803 	addseq	pc, r3, r3, lsl #16
     25c:	51011100 	mrspl	r1, (UNDEF: 17)
     260:	00007602 	andeq	r7, r0, r2, lsl #12
     264:	00810413 	addeq	r0, r1, r3, lsl r4
     268:	0002a400 	andeq	sl, r2, r0, lsl #8
     26c:	50011100 	andpl	r1, r1, r0, lsl #2
     270:	94800305 	strls	r0, [r0], #773	; 0x305
     274:	01110000 	tsteq	r1, r0
     278:	003a0151 	eorseq	r0, sl, r1, asr r1
     27c:	a1040700 	tstge	r4, r0, lsl #14
     280:	14000000 	strne	r0, [r0], #-0
     284:	000000a8 	andeq	r0, r0, r8, lsr #1
     288:	00000293 	muleq	r0, r3, r2
     28c:	00002c15 	andeq	r2, r0, r5, lsl ip
     290:	08000700 	stmdaeq	r0, {r8, r9, sl}
     294:	00000283 	andeq	r0, r0, r3, lsl #5
     298:	0000f916 	andeq	pc, r0, r6, lsl r9	; <UNPREDICTABLE>
     29c:	0000f900 	andeq	pc, r0, r0, lsl #18
     2a0:	071e0300 	ldreq	r0, [lr, -r0, lsl #6]
     2a4:	0002fc16 	andeq	pc, r2, r6, lsl ip	; <UNPREDICTABLE>
     2a8:	0002fc00 	andeq	pc, r2, r0, lsl #24
     2ac:	06280200 	strteq	r0, [r8], -r0, lsl #4
     2b0:	00001616 	andeq	r1, r0, r6, lsl r6
     2b4:	00001600 	andeq	r1, r0, r0, lsl #12
     2b8:	066e0200 	strbteq	r0, [lr], -r0, lsl #4
     2bc:	0002da00 	andeq	sp, r2, r0, lsl #20
     2c0:	24000400 	strcs	r0, [r0], #-1024	; 0xfffffc00
     2c4:	04000001 	streq	r0, [r0], #-1
     2c8:	00010301 	andeq	r0, r1, r1, lsl #6
     2cc:	01e00c00 	mvneq	r0, r0, lsl #24
     2d0:	00920000 	addseq	r0, r2, r0
     2d4:	812c0000 			; <UNDEFINED> instruction: 0x812c0000
     2d8:	01ac0000 			; <UNDEFINED> instruction: 0x01ac0000
     2dc:	015a0000 	cmpeq	sl, r0
     2e0:	04020000 	streq	r0, [r2], #-0
     2e4:	746e6905 	strbtvc	r6, [lr], #-2309	; 0xfffff6fb
     2e8:	07040300 	streq	r0, [r4, -r0, lsl #6]
     2ec:	0000006b 	andeq	r0, r0, fp, rrx
     2f0:	0a060103 	beq	180704 <__bss_end__+0x176aa4>
     2f4:	03000000 	movweq	r0, #0
     2f8:	00ef0502 	rsceq	r0, pc, r2, lsl #10
     2fc:	04030000 	streq	r0, [r3], #-0
     300:	00007d05 	andeq	r7, r0, r5, lsl #26
     304:	05080300 	streq	r0, [r8, #-768]	; 0xfffffd00
     308:	00000078 	andeq	r0, r0, r8, ror r0
     30c:	08080103 	stmdaeq	r8, {r0, r1, r8}
     310:	03000000 	movweq	r0, #0
     314:	00230702 	eoreq	r0, r3, r2, lsl #14
     318:	04030000 	streq	r0, [r3], #-0
     31c:	00006607 	andeq	r6, r0, r7, lsl #12
     320:	07080300 	streq	r0, [r8, -r0, lsl #6]
     324:	00000061 	andeq	r0, r0, r1, rrx
     328:	00002504 	andeq	r2, r0, r4, lsl #10
     32c:	00007a00 	andeq	r7, r0, r0, lsl #20
     330:	00250500 	eoreq	r0, r5, r0, lsl #10
     334:	06000000 	streq	r0, [r0], -r0
     338:	00000086 	andeq	r0, r0, r6, lsl #1
     33c:	860e1c02 	strhi	r1, [lr], -r2, lsl #24
     340:	07000000 	streq	r0, [r0, -r0]
     344:	00006b04 	andeq	r6, r0, r4, lsl #22
     348:	00250400 	eoreq	r0, r5, r0, lsl #8
     34c:	009b0000 	addseq	r0, fp, r0
     350:	9b050000 	blls	140358 <__bss_end__+0x1366f8>
     354:	00000000 	andeq	r0, r0, r0
     358:	00a80407 	adceq	r0, r8, r7, lsl #8
     35c:	01030000 	mrseq	r0, (UNDEF: 3)
     360:	00001108 	andeq	r1, r0, r8, lsl #2
     364:	00a10800 	adceq	r0, r1, r0, lsl #16
     368:	82060000 	andhi	r0, r6, #0, 0
     36c:	02000003 	andeq	r0, r0, #3, 0
     370:	00b90e21 	adcseq	r0, r9, r1, lsr #28
     374:	04070000 	streq	r0, [r7], #-0
     378:	0000008c 	andeq	r0, r0, ip, lsl #1
     37c:	0001c509 	andeq	ip, r1, r9, lsl #10
     380:	05010800 	streq	r0, [r1, #-2048]	; 0xfffff800
     384:	0000ec07 	andeq	lr, r0, r7, lsl #24
     388:	00640a00 	rsbeq	r0, r4, r0, lsl #20
     38c:	ec100601 	ldc	6, cr0, [r0], {1}
     390:	0a000000 	beq	398 <__code_start__-0x7c68>
     394:	07010070 	smlsdxeq	r1, r0, r0, r0
     398:	0000f30f 	andeq	pc, r0, pc, lsl #6
     39c:	70660a00 	rsbvc	r0, r6, r0, lsl #20
     3a0:	10080100 	andne	r0, r8, r0, lsl #2
     3a4:	000000f6 	strdeq	r0, [r0], -r6
     3a8:	04080300 	streq	r0, [r8], #-768	; 0xfffffd00
     3ac:	00000036 	andeq	r0, r0, r6, lsr r0
     3b0:	070c040b 	streq	r0, [ip, -fp, lsl #8]
     3b4:	0000f504 	andeq	pc, r0, r4, lsl #10
     3b8:	01080d00 	tsteq	r8, r0, lsl #26
     3bc:	0120020c 			; <UNDEFINED> instruction: 0x0120020c
     3c0:	700e0000 	andvc	r0, lr, r0
     3c4:	01007274 	tsteq	r0, r4, ror r2
     3c8:	0142150d 	cmpeq	r2, sp, lsl #10
     3cc:	0f000000 	svceq	0x00000000
     3d0:	00000202 	andeq	r0, r0, r2, lsl #4
     3d4:	2c100e01 	ldccs	14, cr0, [r0], {1}
     3d8:	04000000 	streq	r0, [r0], #-0
     3dc:	01b80900 			; <UNDEFINED> instruction: 0x01b80900
     3e0:	01080000 	mrseq	r0, (UNDEF: 8)
     3e4:	01420f0b 	cmpeq	r2, fp, lsl #30
     3e8:	730a0000 	movwvc	r0, #40960	; 0xa000
     3ec:	060f0100 	streq	r0, [pc], -r0, lsl #2
     3f0:	000000fc 	strdeq	r0, [r0], -ip
     3f4:	0100780a 	tsteq	r0, sl, lsl #16
     3f8:	00bf1010 	adcseq	r1, pc, r0, lsl r0	; <UNPREDICTABLE>
     3fc:	07000000 	streq	r0, [r0, -r0]
     400:	00012004 	andeq	r2, r1, r4
     404:	02071000 	andeq	r1, r7, #0, 0
     408:	11010000 	mrsne	r0, (UNDEF: 1)
     40c:	00012003 	andeq	r2, r1, r3
     410:	01ec1100 	mvneq	r1, r0, lsl #2
     414:	13010000 	movwne	r0, #4096	; 0x1000
     418:	0001480f 	andeq	r4, r1, pc, lsl #16
     41c:	50030500 	andpl	r0, r3, r0, lsl #10
     420:	11000098 	swpne	r0, r8, [r0]	; <UNPREDICTABLE>
     424:	000001d3 	ldrdeq	r0, [r0], -r3
     428:	78101401 	ldmdavc	r0, {r0, sl, ip}
     42c:	05000001 	streq	r0, [r0, #-1]
     430:	00984803 	addseq	r4, r8, r3, lsl #16
     434:	48040700 	stmdami	r4, {r8, r9, sl}
     438:	12000001 	andne	r0, r0, #1, 0
     43c:	000001cb 	andeq	r0, r0, fp, asr #3
     440:	2c065201 	sfmcs	f5, 4, [r6], {1}
     444:	bc000081 	stclt	0, cr0, [r0], {129}	; 0x81
     448:	01000000 	mrseq	r0, (UNDEF: 0)
     44c:	0001c89c 	muleq	r1, ip, r8
     450:	74701300 	ldrbtvc	r1, [r0], #-768	; 0xfffffd00
     454:	52010072 	andpl	r0, r1, #114, 0	; 0x72
     458:	0000f314 	andeq	pc, r0, r4, lsl r3	; <UNPREDICTABLE>
     45c:	14500100 	ldrbne	r0, [r0], #-256	; 0xffffff00
     460:	01007062 	tsteq	r0, r2, rrx
     464:	01780a53 	cmneq	r8, r3, asr sl
     468:	00a30000 	adceq	r0, r3, r0
     46c:	009b0000 	addseq	r0, fp, r0
     470:	70140000 	andsvc	r0, r4, r0
     474:	0f530100 	svceq	0x00530100
     478:	00000178 	andeq	r0, r0, r8, ror r1
     47c:	000000df 	ldrdeq	r0, [r0], -pc	; <UNPREDICTABLE>
     480:	000000db 	ldrdeq	r0, [r0], -fp
     484:	00f91500 	rscseq	r1, r9, r0, lsl #10
     488:	2c010000 	stccs	0, cr0, [r1], {-0}
     48c:	0000f307 	andeq	pc, r0, r7, lsl #6
     490:	00822c00 	addeq	r2, r2, r0, lsl #24
     494:	0000ac00 	andeq	sl, r0, r0, lsl #24
     498:	579c0100 	ldrpl	r0, [ip, r0, lsl #2]
     49c:	16000002 	strne	r0, [r0], -r2
     4a0:	00000838 	andeq	r0, r0, r8, lsr r8
     4a4:	2c1a2c01 	ldccs	12, cr2, [sl], {1}
     4a8:	05000000 	streq	r0, [r0, #-0]
     4ac:	fd000001 	stc2	0, cr0, [r0, #-4]
     4b0:	14000000 	strne	r0, [r0], #-0
     4b4:	2d010070 	stccs	0, cr0, [r1, #-448]	; 0xfffffe40
     4b8:	0001780a 	andeq	r7, r1, sl, lsl #16
     4bc:	00014d00 	andeq	r4, r1, r0, lsl #26
     4c0:	00013f00 	andeq	r3, r1, r0, lsl #30
     4c4:	01bf1700 			; <UNDEFINED> instruction: 0x01bf1700
     4c8:	2d010000 	stccs	0, cr0, [r1, #-0]
     4cc:	0001780e 	andeq	r7, r1, lr, lsl #16
     4d0:	0001af00 	andeq	sl, r1, r0, lsl #30
     4d4:	0001a500 	andeq	sl, r1, r0, lsl #10
     4d8:	01d91700 	bicseq	r1, r9, r0, lsl #14
     4dc:	2e010000 	cdpcs	0, 0, cr0, cr1, cr0, {0}
     4e0:	00002c0b 	andeq	r2, r0, fp, lsl #24
     4e4:	0001f500 	andeq	pc, r1, r0, lsl #10
     4e8:	0001f300 	andeq	pc, r1, r0, lsl #6
     4ec:	01f11800 	mvnseq	r1, r0, lsl #16
     4f0:	2f010000 	svccs	0x00010000
     4f4:	0001780a 	andeq	r7, r1, sl, lsl #16
     4f8:	00024600 	andeq	r4, r2, r0, lsl #12
     4fc:	002c0500 	eoreq	r0, ip, r0, lsl #10
     500:	19000000 	stmdbne	r0, {}	; <UNPREDICTABLE>
     504:	000082c8 	andeq	r8, r0, r8, asr #5
     508:	00000257 	andeq	r0, r0, r7, asr r2
     50c:	0250011a 	subseq	r0, r0, #-2147483642	; 0x80000006
     510:	00000074 	andeq	r0, r0, r4, ror r0
     514:	0001f11b 	andeq	pc, r1, fp, lsl r1	; <UNPREDICTABLE>
     518:	10180100 	andsne	r0, r8, r0, lsl #2
     51c:	00000178 	andeq	r0, r0, r8, ror r1
     520:	000081e8 	andeq	r8, r0, r8, ror #3
     524:	00000044 	andeq	r0, r0, r4, asr #32
     528:	02cb9c01 	sbceq	r9, fp, #256	; 0x100
     52c:	691c0000 	ldmdbvs	ip, {}	; <UNPREDICTABLE>
     530:	0100636e 	tsteq	r0, lr, ror #6
     534:	002c2518 	eoreq	r2, ip, r8, lsl r5
     538:	020c0000 	andeq	r0, ip, #0, 0
     53c:	02080000 	andeq	r0, r8, #0, 0
     540:	63140000 	tstvs	r4, #0, 0
     544:	19010070 	stmdbne	r1, {r4, r5, r6}
     548:	0002cb08 	andeq	ip, r2, r8, lsl #22
     54c:	00023000 	andeq	r3, r2, r0
     550:	00022a00 	andeq	r2, r2, r0, lsl #20
     554:	70751400 	rsbsvc	r1, r5, r0, lsl #8
     558:	0a1a0100 	beq	680960 <__bss_end__+0x676d00>
     55c:	00000178 	andeq	r0, r0, r8, ror r1
     560:	0000025f 	andeq	r0, r0, pc, asr r2
     564:	0000025b 	andeq	r0, r0, fp, asr r2
     568:	0082001d 	addeq	r0, r2, sp, lsl r0
     56c:	0002d100 	andeq	sp, r2, r0, lsl #2
     570:	0002c100 	andeq	ip, r2, r0, lsl #2
     574:	50011a00 	andpl	r1, r1, r0, lsl #20
     578:	33007404 	movwcc	r7, #1028	; 0x404
     57c:	141e0024 	ldrne	r0, [lr], #-36	; 0xffffffdc
     580:	7e000082 	cdpvc	0, 0, cr0, cr0, cr2, {4}
     584:	00000001 	andeq	r0, r0, r1
     588:	00a10407 	adceq	r0, r1, r7, lsl #8
     58c:	fd1f0000 	ldc2	0, cr0, [pc, #-0]	; 594 <__code_start__-0x7a6c>
     590:	fd000001 	stc2	0, cr0, [r0, #-4]
     594:	03000001 	movweq	r0, #1
     598:	0a000b1a 	beq	3208 <__code_start__-0x4df8>
     59c:	04000001 	streq	r0, [r0], #-1
     5a0:	00031200 	andeq	r1, r3, r0, lsl #4
     5a4:	03010400 	movweq	r0, #5120	; 0x1400
     5a8:	0c000001 	stceq	0, cr0, [r0], {1}
     5ac:	00000220 	andeq	r0, r0, r0, lsr #4
     5b0:	00000092 	muleq	r0, r2, r0
     5b4:	000082d8 	ldrdeq	r8, [r0], -r8	; <UNPREDICTABLE>
     5b8:	0000000c 	andeq	r0, r0, ip
     5bc:	000003b0 			; <UNDEFINED> instruction: 0x000003b0
     5c0:	69050402 	stmdbvs	r5, {r1, sl}
     5c4:	0300746e 	movweq	r7, #1134	; 0x46e
     5c8:	006b0704 	rsbeq	r0, fp, r4, lsl #14
     5cc:	01030000 	mrseq	r0, (UNDEF: 3)
     5d0:	00000a06 	andeq	r0, r0, r6, lsl #20
     5d4:	05020300 	streq	r0, [r2, #-768]	; 0xfffffd00
     5d8:	000000ef 	andeq	r0, r0, pc, ror #1
     5dc:	7d050403 	cfstrsvc	mvf0, [r5, #-12]
     5e0:	03000000 	movweq	r0, #0
     5e4:	00780508 	rsbseq	r0, r8, r8, lsl #10
     5e8:	01030000 	mrseq	r0, (UNDEF: 3)
     5ec:	00000808 	andeq	r0, r0, r8, lsl #16
     5f0:	07020300 	streq	r0, [r2, -r0, lsl #6]
     5f4:	00000023 	andeq	r0, r0, r3, lsr #32
     5f8:	66070403 	strvs	r0, [r7], -r3, lsl #8
     5fc:	03000000 	movweq	r0, #0
     600:	00610708 	rsbeq	r0, r1, r8, lsl #14
     604:	25040000 	strcs	r0, [r4, #-0]
     608:	7a000000 	bvc	610 <__code_start__-0x79f0>
     60c:	05000000 	streq	r0, [r0, #-0]
     610:	00000025 	andeq	r0, r0, r5, lsr #32
     614:	00860600 	addeq	r0, r6, r0, lsl #12
     618:	1c020000 	stcne	0, cr0, [r2], {-0}
     61c:	0000860e 	andeq	r8, r0, lr, lsl #12
     620:	6b040700 	blvs	102228 <__bss_end__+0xf85c8>
     624:	04000000 	streq	r0, [r0], #-0
     628:	00000025 	andeq	r0, r0, r5, lsr #32
     62c:	0000009b 	muleq	r0, fp, r0
     630:	00009b05 	andeq	r9, r0, r5, lsl #22
     634:	04070000 	streq	r0, [r7], #-0
     638:	000000a8 	andeq	r0, r0, r8, lsr #1
     63c:	11080103 	tstne	r8, r3, lsl #2
     640:	08000000 	stmdaeq	r0, {}	; <UNPREDICTABLE>
     644:	000000a1 	andeq	r0, r0, r1, lsr #1
     648:	00038206 	andeq	r8, r3, r6, lsl #4
     64c:	0e210200 	cdpeq	2, 2, cr0, cr1, cr0, {0}
     650:	000000b9 	strheq	r0, [r0], -r9
     654:	008c0407 	addeq	r0, ip, r7, lsl #8
     658:	fd090000 	stc2	0, cr0, [r9, #-0]
     65c:	01000001 	tsteq	r0, r1
     660:	00ff0704 	rscseq	r0, pc, r4, lsl #14
     664:	82d80000 	sbcshi	r0, r8, #0, 0
     668:	000c0000 	andeq	r0, ip, r0
     66c:	9c010000 	stcls	0, cr0, [r1], {-0}
     670:	000000ff 	strdeq	r0, [r0], -pc	; <UNPREDICTABLE>
     674:	00020e0a 	andeq	r0, r2, sl, lsl #28
     678:	11040100 	mrsne	r0, (UNDEF: 20)
     67c:	00000041 	andeq	r0, r0, r1, asr #32
     680:	00000283 	andeq	r0, r0, r3, lsl #5
     684:	0000027f 	andeq	r0, r0, pc, ror r2
     688:	0082e00b 	addeq	lr, r2, fp
     68c:	00010100 	andeq	r0, r1, r0, lsl #2
     690:	50010c00 	andpl	r0, r1, r0, lsl #24
     694:	5001f303 	andpl	pc, r1, r3, lsl #6
     698:	040d0000 	streq	r0, [sp], #-0
     69c:	0002180e 	andeq	r1, r2, lr, lsl #16
     6a0:	00021800 	andeq	r1, r2, r0, lsl #16
     6a4:	077c0200 	ldrbeq	r0, [ip, -r0, lsl #4]!
     6a8:	00019d00 	andeq	r9, r1, r0, lsl #26
     6ac:	d4000400 	strle	r0, [r0], #-1024	; 0xfffffc00
     6b0:	04000003 	streq	r0, [r0], #-3
     6b4:	00022a01 	andeq	r2, r2, r1, lsl #20
     6b8:	03210c00 			; <UNDEFINED> instruction: 0x03210c00
     6bc:	03310000 	teqeq	r1, #0, 0
     6c0:	82e40000 	rschi	r0, r4, #0, 0
     6c4:	00580000 	subseq	r0, r8, r0
     6c8:	044f0000 	strbeq	r0, [pc], #-0	; 6d0 <__code_start__-0x7930>
     6cc:	03020000 	movweq	r0, #8192	; 0x2000
     6d0:	02000003 	andeq	r0, r0, #3, 0
     6d4:	00311b28 	eorseq	r1, r1, r8, lsr #22
     6d8:	12030000 	andne	r0, r3, #0, 0
     6dc:	04000003 	streq	r0, [r0], #-3
     6e0:	00480004 	subeq	r0, r8, r4
     6e4:	1c040000 	stcne	0, cr0, [r4], {-0}
     6e8:	48000003 	stmdami	r0, {r0, r1}
     6ec:	00000000 	andeq	r0, r0, r0
     6f0:	02040500 	andeq	r0, r4, #0, 10
     6f4:	00000314 	andeq	r0, r0, r4, lsl r3
     6f8:	25186302 	ldrcs	r6, [r8, #-770]	; 0xfffffcfe
     6fc:	06000000 	streq	r0, [r0], -r0
     700:	6e690504 	cdpvs	5, 6, cr0, cr9, cr4, {0}
     704:	04070074 	streq	r0, [r7], #-116	; 0xffffff8c
     708:	00006b07 	andeq	r6, r0, r7, lsl #22
     70c:	06010700 	streq	r0, [r1], -r0, lsl #14
     710:	0000000a 	andeq	r0, r0, sl
     714:	ef050207 	svc	0x00050207
     718:	07000000 	streq	r0, [r0, -r0]
     71c:	007d0504 	rsbseq	r0, sp, r4, lsl #10
     720:	08070000 	stmdaeq	r7, {}	; <UNPREDICTABLE>
     724:	00007805 	andeq	r7, r0, r5, lsl #16
     728:	08010700 	stmdaeq	r1, {r8, r9, sl}
     72c:	00000008 	andeq	r0, r0, r8
     730:	23070207 	movwcs	r0, #29191	; 0x7207
     734:	07000000 	streq	r0, [r0, -r0]
     738:	00660704 	rsbeq	r0, r6, r4, lsl #14
     73c:	08070000 	stmdaeq	r7, {}	; <UNPREDICTABLE>
     740:	00006107 	andeq	r6, r0, r7, lsl #2
     744:	00560800 	subseq	r0, r6, r0, lsl #16
     748:	00ab0000 	adceq	r0, fp, r0
     74c:	56090000 	strpl	r0, [r9], -r0
     750:	00000000 	andeq	r0, r0, r0
     754:	0000860a 	andeq	r8, r0, sl, lsl #12
     758:	0e1c0300 	cdpeq	3, 1, cr0, cr12, cr0, {0}
     75c:	000000b7 	strheq	r0, [r0], -r7
     760:	009c040b 	addseq	r0, ip, fp, lsl #8
     764:	56080000 	strpl	r0, [r8], -r0
     768:	cc000000 	stcgt	0, cr0, [r0], {-0}
     76c:	09000000 	stmdbeq	r0, {}	; <UNPREDICTABLE>
     770:	000000cc 	andeq	r0, r0, ip, asr #1
     774:	d9040b00 	stmdble	r4, {r8, r9, fp}
     778:	07000000 	streq	r0, [r0, -r0]
     77c:	00110801 	andseq	r0, r1, r1, lsl #16
     780:	d20c0000 	andle	r0, ip, #0, 0
     784:	0a000000 	beq	78c <__code_start__-0x7874>
     788:	00000382 	andeq	r0, r0, r2, lsl #7
     78c:	ea0e2103 	b	388ba0 <__bss_end__+0x37ef40>
     790:	0b000000 	bleq	798 <__code_start__-0x7868>
     794:	0000bd04 	andeq	fp, r0, r4, lsl #26
     798:	02fc0d00 	rscseq	r0, ip, #0, 26
     79c:	06010000 	streq	r0, [r1], -r0
     7a0:	00005605 	andeq	r5, r0, r5, lsl #12
     7a4:	0082e400 	addeq	lr, r2, r0, lsl #8
     7a8:	00005800 	andeq	r5, r0, r0, lsl #16
     7ac:	839c0100 	orrshi	r0, ip, #0
     7b0:	0e000001 	cdpeq	0, 0, cr0, cr0, cr1, {0}
     7b4:	00746d66 	rsbseq	r6, r4, r6, ror #26
     7b8:	cc180601 	ldcgt	6, cr0, [r8], {1}
     7bc:	02000000 	andeq	r0, r0, #0, 0
     7c0:	100f7091 	mulne	pc, r1, r0	; <UNPREDICTABLE>
     7c4:	00667562 	rsbeq	r7, r6, r2, ror #10
     7c8:	83110801 	tsthi	r1, #65536	; 0x10000
     7cc:	05000001 	streq	r0, [r0, #-1]
     7d0:	00985803 	addseq	r5, r8, r3, lsl #16
     7d4:	02f41100 	rscseq	r1, r4, #0
     7d8:	09010000 	stmdbeq	r1, {}	; <UNPREDICTABLE>
     7dc:	00004a0d 	andeq	r4, r0, sp, lsl #20
     7e0:	5c910200 	lfmpl	f0, 4, [r1], {0}
     7e4:	007a7312 	rsbseq	r7, sl, r2, lsl r3
     7e8:	560d0c01 	strpl	r0, [sp], -r1, lsl #24
     7ec:	aa000000 	bge	7f4 <__code_start__-0x780c>
     7f0:	a4000002 	strge	r0, [r0], #-2
     7f4:	13000002 	movwne	r0, #2
     7f8:	0000830c 	andeq	r8, r0, ip, lsl #6
     7fc:	00000194 	muleq	r0, r4, r1
     800:	00000176 	andeq	r0, r0, r6, ror r1
     804:	02500114 	subseq	r0, r0, #5
     808:	01140075 	tsteq	r4, r5, ror r0
     80c:	000a0351 	andeq	r0, sl, r1, asr r3
     810:	52011404 	andpl	r1, r1, #4, 8	; 0x4000000
     814:	06489103 	strbeq	r9, [r8], -r3, lsl #2
     818:	02530114 	subseq	r0, r3, #5
     81c:	15004c91 	strne	r4, [r0, #-3217]	; 0xfffff36f
     820:	00008320 	andeq	r8, r0, r0, lsr #6
     824:	02500114 	subseq	r0, r0, #5
     828:	00000075 	andeq	r0, r0, r5, ror r0
     82c:	0000d216 	andeq	sp, r0, r6, lsl r2
     830:	00019400 	andeq	r9, r1, r0, lsl #8
     834:	005d1700 	subseq	r1, sp, r0, lsl #14
     838:	03ff0000 	mvnseq	r0, #0, 0
     83c:	02f91800 	rscseq	r1, r9, #0, 16
     840:	02f90000 	rscseq	r0, r9, #0, 0
     844:	02050000 	andeq	r0, r5, #0, 0
     848:	00f30005 	rscseq	r0, r3, r5
     84c:	00040000 	andeq	r0, r4, r0
     850:	00000516 	andeq	r0, r0, r6, lsl r5
     854:	022a0104 	eoreq	r0, sl, #1
     858:	870c0000 	strhi	r0, [ip, -r0]
     85c:	31000003 	tstcc	r0, r3
     860:	3c000003 	stccc	0, cr0, [r0], {3}
     864:	34000083 	strcc	r0, [r0], #-131	; 0xffffff7d
     868:	86000000 	strhi	r0, [r0], -r0
     86c:	02000005 	andeq	r0, r0, #5, 0
     870:	6e690504 	cdpvs	5, 6, cr0, cr9, cr4, {0}
     874:	04030074 	streq	r0, [r3], #-116	; 0xffffff8c
     878:	00006b07 	andeq	r6, r0, r7, lsl #22
     87c:	06010300 	streq	r0, [r1], -r0, lsl #6
     880:	0000000a 	andeq	r0, r0, sl
     884:	ef050203 	svc	0x00050203
     888:	03000000 	movweq	r0, #0
     88c:	007d0504 	rsbseq	r0, sp, r4, lsl #10
     890:	08030000 	stmdaeq	r3, {}	; <UNPREDICTABLE>
     894:	00007805 	andeq	r7, r0, r5, lsl #16
     898:	08010300 	stmdaeq	r1, {r8, r9}
     89c:	00000008 	andeq	r0, r0, r8
     8a0:	23070203 	movwcs	r0, #29187	; 0x7203
     8a4:	03000000 	movweq	r0, #0
     8a8:	00660704 	rsbeq	r0, r6, r4, lsl #14
     8ac:	08030000 	stmdaeq	r3, {}	; <UNPREDICTABLE>
     8b0:	00006107 	andeq	r6, r0, r7, lsl #2
     8b4:	00250400 	eoreq	r0, r5, r0, lsl #8
     8b8:	007a0000 	rsbseq	r0, sl, r0
     8bc:	25050000 	strcs	r0, [r5, #-0]
     8c0:	00000000 	andeq	r0, r0, r0
     8c4:	00008606 	andeq	r8, r0, r6, lsl #12
     8c8:	0e1c0200 	cdpeq	2, 1, cr0, cr12, cr0, {0}
     8cc:	00000086 	andeq	r0, r0, r6, lsl #1
     8d0:	006b0407 	rsbeq	r0, fp, r7, lsl #8
     8d4:	25040000 	strcs	r0, [r4, #-0]
     8d8:	9b000000 	blls	8e0 <__code_start__-0x7720>
     8dc:	05000000 	streq	r0, [r0, #-0]
     8e0:	0000009b 	muleq	r0, fp, r0
     8e4:	a8040700 	stmdage	r4, {r8, r9, sl}
     8e8:	03000000 	movweq	r0, #0
     8ec:	00110801 	andseq	r0, r1, r1, lsl #16
     8f0:	a1080000 	mrsge	r0, (UNDEF: 8)
     8f4:	06000000 	streq	r0, [r0], -r0
     8f8:	00000382 	andeq	r0, r0, r2, lsl #7
     8fc:	b90e2102 	stmdblt	lr, {r1, r8, sp}
     900:	07000000 	streq	r0, [r0, -r0]
     904:	00008c04 	andeq	r8, r0, r4, lsl #24
     908:	00ad0900 	adceq	r0, sp, r0, lsl #18
     90c:	0c010000 	stceq	0, cr0, [r1], {-0}
     910:	30030507 	andcc	r0, r3, r7, lsl #10
     914:	0a000098 	beq	b7c <__code_start__-0x7484>
     918:	00000379 	andeq	r0, r0, r9, ror r3
     91c:	25050401 	strcs	r0, [r5, #-1025]	; 0xfffffbff
     920:	3c000000 	stccc	0, cr0, [r0], {-0}
     924:	34000083 	strcc	r0, [r0], #-131	; 0xffffff7d
     928:	01000000 	mrseq	r0, (UNDEF: 0)
     92c:	00700b9c 			; <UNDEFINED> instruction: 0x00700b9c
     930:	9b1f0401 	blls	7c193c <__bss_end__+0x7b7cdc>
     934:	d7000000 	strle	r0, [r0, -r0]
     938:	d3000002 	movwle	r0, #2
     93c:	00000002 	andeq	r0, r0, r2
     940:	000ad700 	andeq	sp, sl, r0, lsl #14
     944:	b4000400 	strlt	r0, [r0], #-1024	; 0xfffffc00
     948:	04000005 	streq	r0, [r0], #-5
     94c:	00022a01 	andeq	r2, r2, r1, lsl #20
     950:	03a60c00 			; <UNDEFINED> instruction: 0x03a60c00
     954:	03310000 	teqeq	r1, #0, 0
     958:	83700000 	cmnhi	r0, #0, 0
     95c:	07400000 	strbeq	r0, [r0, -r0]
     960:	06550000 	ldrbeq	r0, [r5], -r0
     964:	04020000 	streq	r0, [r2], #-0
     968:	746e6905 	strbtvc	r6, [lr], #-2309	; 0xfffff6fb
     96c:	07040300 	streq	r0, [r4, -r0, lsl #6]
     970:	0000006b 	andeq	r0, r0, fp, rrx
     974:	0a060103 	beq	180d88 <__bss_end__+0x177128>
     978:	03000000 	movweq	r0, #0
     97c:	00ef0502 	rsceq	r0, pc, r2, lsl #10
     980:	04030000 	streq	r0, [r3], #-0
     984:	00007d05 	andeq	r7, r0, r5, lsl #26
     988:	05080300 	streq	r0, [r8, #-768]	; 0xfffffd00
     98c:	00000078 	andeq	r0, r0, r8, ror r0
     990:	08080103 	stmdaeq	r8, {r0, r1, r8}
     994:	03000000 	movweq	r0, #0
     998:	00230702 	eoreq	r0, r3, r2, lsl #14
     99c:	0c040000 	stceq	0, cr0, [r4], {-0}
     9a0:	02000004 	andeq	r0, r0, #4, 0
     9a4:	00691934 	rsbeq	r1, r9, r4, lsr r9
     9a8:	04030000 	streq	r0, [r3], #-0
     9ac:	00006607 	andeq	r6, r0, r7, lsl #12
     9b0:	039d0400 	orrseq	r0, sp, #0, 8
     9b4:	37020000 	strcc	r0, [r2, -r0]
     9b8:	00007c19 	andeq	r7, r0, r9, lsl ip
     9bc:	07080300 	streq	r0, [r8, -r0, lsl #6]
     9c0:	00000061 	andeq	r0, r0, r1, rrx
     9c4:	00002505 	andeq	r2, r0, r5, lsl #10
     9c8:	00009200 	andeq	r9, r0, r0, lsl #4
     9cc:	00250600 	eoreq	r0, r5, r0, lsl #12
     9d0:	07000000 	streq	r0, [r0, -r0]
     9d4:	00000086 	andeq	r0, r0, r6, lsl #1
     9d8:	9e0e1c03 	cdpls	12, 0, cr1, cr14, cr3, {0}
     9dc:	08000000 	stmdaeq	r0, {}	; <UNPREDICTABLE>
     9e0:	00008304 	andeq	r8, r0, r4, lsl #6
     9e4:	00250500 	eoreq	r0, r5, r0, lsl #10
     9e8:	00b30000 	adcseq	r0, r3, r0
     9ec:	b3060000 	movwlt	r0, #24576	; 0x6000
     9f0:	00000000 	andeq	r0, r0, r0
     9f4:	00c00408 	sbceq	r0, r0, r8, lsl #8
     9f8:	01030000 	mrseq	r0, (UNDEF: 3)
     9fc:	00001108 	andeq	r1, r0, r8, lsl #2
     a00:	00b90900 	adcseq	r0, r9, r0, lsl #18
     a04:	82070000 	andhi	r0, r7, #0, 0
     a08:	03000003 	movweq	r0, #3
     a0c:	00d10e21 	sbcseq	r0, r1, r1, lsr #28
     a10:	04080000 	streq	r0, [r8], #-0
     a14:	000000a4 	andeq	r0, r0, r4, lsr #1
     a18:	0003b907 	andeq	fp, r3, r7, lsl #18
     a1c:	0d0b0400 	cfstrseq	mvf0, [fp, #-0]
     a20:	000000b9 	strheq	r0, [r0], -r9
     a24:	00043b07 	andeq	r3, r4, r7, lsl #22
     a28:	0d0c0400 	cfstrseq	mvf0, [ip, #-0]
     a2c:	000000b9 	strheq	r0, [r0], -r9
     a30:	0003c807 	andeq	ip, r3, r7, lsl #16
     a34:	0d0d0400 	cfstrseq	mvf0, [sp, #-0]
     a38:	000000b9 	strheq	r0, [r0], -r9
     a3c:	0003f107 	andeq	pc, r3, r7, lsl #2
     a40:	0d0e0400 	cfstrseq	mvf0, [lr, #-0]
     a44:	000000b9 	strheq	r0, [r0], -r9
     a48:	00046b07 	andeq	r6, r4, r7, lsl #22
     a4c:	0d0f0400 	cfstrseq	mvf0, [pc, #-0]	; a54 <__code_start__-0x75ac>
     a50:	000000b9 	strheq	r0, [r0], -r9
     a54:	0003dc07 	andeq	sp, r3, r7, lsl #24
     a58:	0d100400 	cfldrseq	mvf0, [r0, #-0]
     a5c:	000000b9 	strheq	r0, [r0], -r9
     a60:	00047a07 	andeq	r7, r4, r7, lsl #20
     a64:	0d110400 	cfldrseq	mvf0, [r1, #-0]
     a68:	000000b9 	strheq	r0, [r0], -r9
     a6c:	0003fd07 	andeq	pc, r3, r7, lsl #26
     a70:	0d120400 	cfldrseq	mvf0, [r2, #-0]
     a74:	000000b9 	strheq	r0, [r0], -r9
     a78:	00030304 	andeq	r0, r3, r4, lsl #6
     a7c:	1b280500 	blne	a01e84 <__bss_end__+0x9f8224>
     a80:	00000143 	andeq	r0, r0, r3, asr #2
     a84:	0003120a 	andeq	r1, r3, sl, lsl #4
     a88:	00060400 	andeq	r0, r6, r0, lsl #8
     a8c:	0000015a 	andeq	r0, r0, sl, asr r1
     a90:	00031c0b 	andeq	r1, r3, fp, lsl #24
     a94:	00015a00 	andeq	r5, r1, r0, lsl #20
     a98:	0c000000 	stceq	0, cr0, [r0], {-0}
     a9c:	03140404 	tsteq	r4, #4, 8	; 0x4000000
     aa0:	63050000 	movwvs	r0, #20480	; 0x5000
     aa4:	00013718 	andeq	r3, r1, r8, lsl r7
     aa8:	02f90d00 	rscseq	r0, r9, #0, 26
     aac:	81010000 	mrshi	r0, (UNDEF: 1)
     ab0:	00002505 	andeq	r2, r0, r5, lsl #10
     ab4:	0085f800 	addeq	pc, r5, r0, lsl #16
     ab8:	0004b800 	andeq	fp, r4, r0, lsl #16
     abc:	179c0100 	ldrne	r0, [ip, r0, lsl #2]
     ac0:	0e000007 	cdpeq	0, 0, cr0, cr0, cr7, {0}
     ac4:	00667562 	rsbeq	r7, r6, r2, ror #10
     ac8:	17158101 	ldrne	r8, [r5, -r1, lsl #2]
     acc:	fb000007 	blx	af2 <__code_start__-0x750e>
     ad0:	f5000002 			; <UNDEFINED> instruction: 0xf5000002
     ad4:	0e000002 	cdpeq	0, 0, cr0, cr0, cr2, {0}
     ad8:	8101006e 	tsthi	r1, lr, rrx
     adc:	0000251e 	andeq	r2, r0, lr, lsl r5
     ae0:	00032d00 	andeq	r2, r3, r0, lsl #26
     ae4:	00032700 	andeq	r2, r3, r0, lsl #14
     ae8:	6d660e00 	stclvs	14, cr0, [r6, #-0]
     aec:	81010074 	tsthi	r1, r4, ror r0
     af0:	0000b32d 	andeq	fp, r0, sp, lsr #6
     af4:	00036700 	andeq	r6, r3, r0, lsl #14
     af8:	00035b00 	andeq	r5, r3, r0, lsl #22
     afc:	02f40f00 	rscseq	r0, r4, #0, 30
     b00:	81010000 	mrshi	r0, (UNDEF: 1)
     b04:	00015c3a 	andeq	r5, r1, sl, lsr ip
     b08:	d4910300 	ldrle	r0, [r1], #768	; 0x300
     b0c:	0070107d 	rsbseq	r1, r0, sp, ror r0
     b10:	17088201 	strne	r8, [r8, -r1, lsl #4]
     b14:	c5000007 	strgt	r0, [r0, #-7]
     b18:	b1000003 	tstlt	r0, r3
     b1c:	10000003 	andne	r0, r0, r3
     b20:	82010065 	andhi	r0, r1, #101, 0	; 0x65
     b24:	00071712 	andeq	r1, r7, r2, lsl r7
     b28:	00044700 	andeq	r4, r4, r0, lsl #14
     b2c:	00044300 	andeq	r4, r4, r0, lsl #6
     b30:	30781000 	rsbscc	r1, r8, r0
     b34:	0e830100 	rmfeqs	f0, f3, f0
     b38:	0000005d 	andeq	r0, r0, sp, asr r0
     b3c:	00000474 	andeq	r0, r0, r4, ror r4
     b40:	0000046e 	andeq	r0, r0, lr, ror #8
     b44:	00317810 	eorseq	r7, r1, r0, lsl r8
     b48:	5d118301 	ldcpl	3, cr8, [r1, #-4]
     b4c:	a1000000 	mrsge	r0, (UNDEF: 0)
     b50:	9d000004 	stcls	0, cr0, [r0, #-16]
     b54:	11000004 	tstne	r0, r4
     b58:	00000424 	andeq	r0, r0, r4, lsr #8
     b5c:	b3118601 	tstlt	r1, #1048576	; 0x100000
     b60:	c3000000 	movwgt	r0, #0
     b64:	bf000004 	svclt	0x00000004
     b68:	12000004 	andne	r0, r0, #4, 0
     b6c:	0000003d 	andeq	r0, r0, sp, lsr r0
     b70:	0000072d 	andeq	r0, r0, sp, lsr #14
     b74:	961c0305 	ldrls	r0, [ip], -r5, lsl #6
     b78:	60130000 	andsvs	r0, r3, r0
     b7c:	00000086 	andeq	r0, r0, r6, lsl #1
     b80:	10000004 	andne	r0, r0, r4
     b84:	91010073 	tstls	r1, r3, ror r0
     b88:	0007170a 	andeq	r1, r7, sl, lsl #14
     b8c:	0004f900 	andeq	pc, r4, r0, lsl #18
     b90:	0004e300 	andeq	lr, r4, r0, lsl #6
     b94:	756e1400 	strbvc	r1, [lr, #-1024]!	; 0xfffffc00
     b98:	9101006d 	tstls	r1, sp, rrx
     b9c:	0007320d 	andeq	r3, r7, sp, lsl #4
     ba0:	d8910300 	ldmle	r1, {r8, r9}
     ba4:	0487157d 	streq	r1, [r7], #1405	; 0x57d
     ba8:	91010000 	mrsls	r0, (UNDEF: 1)
     bac:	00073217 	andeq	r3, r7, r7, lsl r2
     bb0:	d8910300 	ldmle	r1, {r8, r9}
     bb4:	03d6117e 	bicseq	r1, r6, #-2147483617	; 0x8000001f
     bb8:	92010000 	andls	r0, r1, #0, 0
     bbc:	00002c0d 	andeq	r2, r0, sp, lsl #24
     bc0:	00058000 	andeq	r8, r5, r0
     bc4:	00057a00 	andeq	r7, r5, r0, lsl #20
     bc8:	87281600 	strhi	r1, [r8, -r0, lsl #12]!
     bcc:	01a40000 			; <UNDEFINED> instruction: 0x01a40000
     bd0:	05390000 	ldreq	r0, [r9, #-0]!
     bd4:	74100000 	ldrvc	r0, [r0], #-0
     bd8:	9e010079 	mcrls	0, 0, r0, cr1, cr9, {3}
     bdc:	0000b31d 	andeq	fp, r0, sp, lsl r3
     be0:	0005b400 	andeq	fp, r5, r0, lsl #8
     be4:	0005aa00 	andeq	sl, r5, r0, lsl #20
     be8:	78781700 	ldmdavc	r8!, {r8, r9, sl, ip}^
     bec:	1aa20100 	bne	fe880ff4 <__bss_end__+0xfe877394>
     bf0:	00000070 	andeq	r0, r0, r0, ror r0
     bf4:	00873818 	addeq	r3, r7, r8, lsl r8
     bf8:	000a9200 	andeq	r9, sl, r0, lsl #4
     bfc:	0002d500 	andeq	sp, r2, r0, lsl #10
     c00:	50011900 	andpl	r1, r1, r0, lsl #18
     c04:	19007602 	stmdbne	r0, {r1, r9, sl, ip, sp, lr}
     c08:	03055101 	movweq	r5, #20737	; 0x5101
     c0c:	00009510 	andeq	r9, r0, r0, lsl r5
     c10:	01520119 	cmpeq	r2, r9, lsl r1
     c14:	50180033 	andspl	r0, r8, r3, lsr r0
     c18:	92000087 	andls	r0, r0, #135, 0	; 0x87
     c1c:	f700000a 			; <UNDEFINED> instruction: 0xf700000a
     c20:	19000002 	stmdbne	r0, {r1}
     c24:	76025001 	strvc	r5, [r2], -r1
     c28:	51011900 	tstpl	r1, r0, lsl #18
     c2c:	95140305 	ldrls	r0, [r4, #-773]	; 0xfffffcfb
     c30:	01190000 	tsteq	r9, r0
     c34:	00330152 	eorseq	r0, r3, r2, asr r1
     c38:	00878418 	addeq	r8, r7, r8, lsl r4
     c3c:	000a9e00 	andeq	r9, sl, r0, lsl #28
     c40:	00031400 	andeq	r1, r3, r0, lsl #8
     c44:	50011900 	andpl	r1, r1, r0, lsl #18
     c48:	95180305 	ldrls	r0, [r8, #-773]	; 0xfffffcfb
     c4c:	01190000 	tsteq	r9, r0
     c50:	00770251 	rsbseq	r0, r7, r1, asr r2
     c54:	87901800 	ldrhi	r1, [r0, r0, lsl #16]
     c58:	0a9e0000 	beq	fe780c60 <__bss_end__+0xfe777000>
     c5c:	03310000 	teqeq	r1, #0, 0
     c60:	01190000 	tsteq	r9, r0
     c64:	20030550 	andcs	r0, r3, r0, asr r5
     c68:	19000095 	stmdbne	r0, {r0, r2, r4, r7}
     c6c:	7a025101 	bvc	95078 <__bss_end__+0x8b418>
     c70:	a0180000 	andsge	r0, r8, r0
     c74:	92000087 	andls	r0, r0, #135, 0	; 0x87
     c78:	5300000a 	movwpl	r0, #10
     c7c:	19000003 	stmdbne	r0, {r0, r1}
     c80:	76025001 	strvc	r5, [r2], -r1
     c84:	51011900 	tstpl	r1, r0, lsl #18
     c88:	95100305 	ldrls	r0, [r0, #-773]	; 0xfffffcfb
     c8c:	01190000 	tsteq	r9, r0
     c90:	00330152 	eorseq	r0, r3, r2, asr r1
     c94:	0087b818 	addeq	fp, r7, r8, lsl r8
     c98:	000a9200 	andeq	r9, sl, r0, lsl #4
     c9c:	00037500 	andeq	r7, r3, r0, lsl #10
     ca0:	50011900 	andpl	r1, r1, r0, lsl #18
     ca4:	19007602 	stmdbne	r0, {r1, r9, sl, ip, sp, lr}
     ca8:	03055101 	movweq	r5, #20737	; 0x5101
     cac:	00009514 	andeq	r9, r0, r4, lsl r5
     cb0:	01520119 	cmpeq	r2, r9, lsl r1
     cb4:	e0180033 	ands	r0, r8, r3, lsr r0
     cb8:	42000087 	andmi	r0, r0, #135, 0	; 0x87
     cbc:	a9000007 	stmdbge	r0, {r0, r1, r2}
     cc0:	19000003 	stmdbne	r0, {r0, r1}
     cc4:	3a015001 	bcc	54cd0 <__bss_end__+0x4b070>
     cc8:	03510119 	cmpeq	r1, #1073741830	; 0x40000006
     ccc:	197dd091 	ldmdbne	sp!, {r0, r4, r7, ip, lr, pc}^
     cd0:	08025201 	stmdaeq	r2, {r0, r9, ip, lr}
     cd4:	53011980 	movwpl	r1, #6528	; 0x1980
     cd8:	19007702 	stmdbne	r0, {r1, r8, r9, sl, ip, sp, lr}
     cdc:	02007d02 	andeq	r7, r0, #128	; 0x80
     ce0:	02190075 	andseq	r0, r9, #117, 0	; 0x75
     ce4:	7602047d 			; <UNDEFINED> instruction: 0x7602047d
     ce8:	00180000 	andseq	r0, r8, r0
     cec:	42000088 	andmi	r0, r0, #136, 0	; 0x88
     cf0:	dd000007 	stcle	0, cr0, [r0, #-28]	; 0xffffffe4
     cf4:	19000003 	stmdbne	r0, {r0, r1}
     cf8:	3a015001 	bcc	54d04 <__bss_end__+0x4b0a4>
     cfc:	03510119 	cmpeq	r1, #1073741830	; 0x40000006
     d00:	197ed091 	ldmdbne	lr!, {r0, r4, r7, ip, lr, pc}^
     d04:	08025201 	stmdaeq	r2, {r0, r9, ip, lr}
     d08:	53011980 	movwpl	r1, #6528	; 0x1980
     d0c:	19007a02 	stmdbne	r0, {r1, r9, fp, ip, sp, lr}
     d10:	02007d02 	andeq	r7, r0, #128	; 0x80
     d14:	02190075 	andseq	r0, r9, #117, 0	; 0x75
     d18:	7602047d 			; <UNDEFINED> instruction: 0x7602047d
     d1c:	0c180000 	ldceq	0, cr0, [r8], {-0}
     d20:	aa000088 	bge	f48 <__code_start__-0x70b8>
     d24:	fb00000a 	blx	d56 <__code_start__-0x72aa>
     d28:	19000003 	stmdbne	r0, {r0, r1}
     d2c:	91035001 	tstls	r3, r1
     d30:	01197dd0 			; <UNDEFINED> instruction: 0x01197dd0
     d34:	d4030551 	strle	r0, [r3], #-1361	; 0xfffffaaf
     d38:	00000094 	muleq	r0, r4, r0
     d3c:	00882018 	addeq	r2, r8, r8, lsl r0
     d40:	000ab600 	andeq	fp, sl, r0, lsl #12
     d44:	00041700 	andeq	r1, r4, r0, lsl #14
     d48:	50011900 	andpl	r1, r1, r0, lsl #18
     d4c:	7dd09103 	ldfvcp	f1, [r0, #12]
     d50:	03510119 	cmpeq	r1, #1073741830	; 0x40000006
     d54:	007ed091 			; <UNDEFINED> instruction: 0x007ed091
     d58:	00884418 	addeq	r4, r8, r8, lsl r4
     d5c:	000a9e00 	andeq	r9, sl, r0, lsl #28
     d60:	00045000 	andeq	r5, r4, r0
     d64:	50011900 	andpl	r1, r1, r0, lsl #18
     d68:	94180305 	ldrls	r0, [r8], #-773	; 0xfffffcfb
     d6c:	01190000 	tsteq	r9, r0
     d70:	c0030551 	andgt	r0, r3, r1, asr r5
     d74:	19000094 	stmdbne	r0, {r2, r4, r7}
     d78:	03055201 	movweq	r5, #20993	; 0x5201
     d7c:	0000961c 	andeq	r9, r0, ip, lsl r6
     d80:	02530119 	subseq	r0, r3, #1073741830	; 0x40000006
     d84:	02199f08 	andseq	r9, r9, #8, 30
     d88:	0305007d 	movweq	r0, #20605	; 0x507d
     d8c:	00009528 	andeq	r9, r0, r8, lsr #10
     d90:	88481a00 	stmdahi	r8, {r9, fp, ip}^
     d94:	0ac20000 	beq	ff080d9c <__bss_end__+0xff07713c>
     d98:	68180000 	ldmdavs	r8, {}	; <UNPREDICTABLE>
     d9c:	42000088 	andmi	r0, r0, #136, 0	; 0x88
     da0:	8d000007 	stchi	0, cr0, [r0, #-28]	; 0xffffffe4
     da4:	19000004 	stmdbne	r0, {r2}
     da8:	40015001 	andmi	r5, r1, r1
     dac:	03510119 	cmpeq	r1, #1073741830	; 0x40000006
     db0:	197dd091 	ldmdbne	sp!, {r0, r4, r7, ip, lr, pc}^
     db4:	08025201 	stmdaeq	r2, {r0, r9, ip, lr}
     db8:	53011980 	movwpl	r1, #6528	; 0x1980
     dbc:	19007702 	stmdbne	r0, {r1, r8, r9, sl, ip, sp, lr}
     dc0:	02007d02 	andeq	r7, r0, #128	; 0x80
     dc4:	02190075 	andseq	r0, r9, #117, 0	; 0x75
     dc8:	7602047d 			; <UNDEFINED> instruction: 0x7602047d
     dcc:	88180000 	ldmdahi	r8, {}	; <UNPREDICTABLE>
     dd0:	42000088 	andmi	r0, r0, #136, 0	; 0x88
     dd4:	c1000007 	tstgt	r0, r7
     dd8:	19000004 	stmdbne	r0, {r2}
     ddc:	40015001 	andmi	r5, r1, r1
     de0:	03510119 	cmpeq	r1, #1073741830	; 0x40000006
     de4:	197ed091 	ldmdbne	lr!, {r0, r4, r7, ip, lr, pc}^
     de8:	08025201 	stmdaeq	r2, {r0, r9, ip, lr}
     dec:	53011980 	movwpl	r1, #6528	; 0x1980
     df0:	19007a02 	stmdbne	r0, {r1, r9, fp, ip, sp, lr}
     df4:	02007d02 	andeq	r7, r0, #128	; 0x80
     df8:	02190075 	andseq	r0, r9, #117, 0	; 0x75
     dfc:	7602047d 			; <UNDEFINED> instruction: 0x7602047d
     e00:	94180000 	ldrls	r0, [r8], #-0
     e04:	ce000088 	cdpgt	0, 0, cr0, cr0, cr8, {4}
     e08:	dd00000a 	stcle	0, cr0, [r0, #-40]	; 0xffffffd8
     e0c:	19000004 	stmdbne	r0, {r2}
     e10:	91035001 	tstls	r3, r1
     e14:	01197dd0 			; <UNDEFINED> instruction: 0x01197dd0
     e18:	d2910351 	addsle	r0, r1, #1140850689	; 0x44000001
     e1c:	a818007e 	ldmdage	r8, {r1, r2, r3, r4, r5, r6}
     e20:	ce000088 	cdpgt	0, 0, cr0, cr0, cr8, {4}
     e24:	f900000a 			; <UNDEFINED> instruction: 0xf900000a
     e28:	19000004 	stmdbne	r0, {r2}
     e2c:	91035001 	tstls	r3, r1
     e30:	01197dd0 			; <UNDEFINED> instruction: 0x01197dd0
     e34:	d0910351 	addsle	r0, r1, r1, asr r3
     e38:	c818007e 	ldmdagt	r8, {r1, r2, r3, r4, r5, r6}
     e3c:	9e000088 	cdpls	0, 0, cr0, cr0, cr8, {4}
     e40:	2f00000a 	svccs	0x0000000a
     e44:	19000005 	stmdbne	r0, {r0, r2}
     e48:	03055001 	movweq	r5, #20481	; 0x5001
     e4c:	00009564 	andeq	r9, r0, r4, ror #10
     e50:	05510119 	ldrbeq	r0, [r1, #-281]	; 0xfffffee7
     e54:	0094c003 	addseq	ip, r4, r3
     e58:	52011900 	andpl	r1, r1, #0, 18
     e5c:	961c0305 	ldrls	r0, [ip], -r5, lsl #6
     e60:	01190000 	tsteq	r9, r0
     e64:	b6080253 			; <UNDEFINED> instruction: 0xb6080253
     e68:	007d0219 	rsbseq	r0, sp, r9, lsl r2
     e6c:	00007602 	andeq	r7, r0, r2, lsl #12
     e70:	0088cc1a 	addeq	ip, r8, sl, lsl ip
     e74:	000ac200 	andeq	ip, sl, r0, lsl #4
     e78:	78180000 	ldmdavc	r8, {}	; <UNPREDICTABLE>
     e7c:	c0000086 	andgt	r0, r0, r6, lsl #1
     e80:	4d000009 	stcmi	0, cr0, [r0, #-36]	; 0xffffffdc
     e84:	19000005 	stmdbne	r0, {r0, r2}
     e88:	77025001 	strvc	r5, [r2, -r1]
     e8c:	24180000 	ldrcs	r0, [r8], #-0
     e90:	9e000087 	cdpls	0, 0, cr0, cr0, cr7, {4}
     e94:	8600000a 	strhi	r0, [r0], -sl
     e98:	19000005 	stmdbne	r0, {r0, r2}
     e9c:	03055001 	movweq	r5, #20481	; 0x5001
     ea0:	00009418 	andeq	r9, r0, r8, lsl r4
     ea4:	05510119 	ldrbeq	r0, [r1, #-281]	; 0xfffffee7
     ea8:	0094c003 	addseq	ip, r4, r3
     eac:	52011900 	andpl	r1, r1, #0, 18
     eb0:	961c0305 	ldrls	r0, [ip], -r5, lsl #6
     eb4:	01190000 	tsteq	r9, r0
     eb8:	98080253 	stmdals	r8, {r0, r1, r4, r6, r9}
     ebc:	007d0219 	rsbseq	r0, sp, r9, lsl r2
     ec0:	95040305 	strls	r0, [r4, #-773]	; 0xfffffcfb
     ec4:	1a000000 	bne	ecc <__code_start__-0x7134>
     ec8:	00008728 	andeq	r8, r0, r8, lsr #14
     ecc:	00000ac2 	andeq	r0, r0, r2, asr #21
     ed0:	0088e018 	addeq	lr, r8, r8, lsl r0
     ed4:	000a9e00 	andeq	r9, sl, r0, lsl #28
     ed8:	0005be00 	andeq	fp, r5, r0, lsl #28
     edc:	50011900 	andpl	r1, r1, r0, lsl #18
     ee0:	958c0305 	strls	r0, [ip, #773]	; 0x305
     ee4:	01190000 	tsteq	r9, r0
     ee8:	c0030551 	andgt	r0, r3, r1, asr r5
     eec:	19000094 	stmdbne	r0, {r2, r4, r7}
     ef0:	03055201 	movweq	r5, #20993	; 0x5201
     ef4:	0000961c 	andeq	r9, r0, ip, lsl r6
     ef8:	02530119 	subseq	r0, r3, #1073741830	; 0x40000006
     efc:	1a00be08 	bne	30724 <__bss_end__+0x26ac4>
     f00:	000088e4 	andeq	r8, r0, r4, ror #17
     f04:	00000ac2 	andeq	r0, r0, r2, asr #21
     f08:	00891018 	addeq	r1, r9, r8, lsl r0
     f0c:	00074200 	andeq	r4, r7, r0, lsl #4
     f10:	0005f400 	andeq	pc, r5, r0, lsl #8
     f14:	50011900 	andpl	r1, r1, r0, lsl #18
     f18:	01193a01 	tsteq	r9, r1, lsl #20
     f1c:	d0910351 	addsle	r0, r1, r1, asr r3
     f20:	5201197d 	andpl	r1, r1, #2048000	; 0x1f4000
     f24:	19800802 	stmibne	r0, {r1, fp}
     f28:	02007d02 	andeq	r7, r0, #128	; 0x80
     f2c:	02190075 	andseq	r0, r9, #117, 0	; 0x75
     f30:	3101047d 	tstcc	r1, sp, ror r4
     f34:	89481800 	stmdbhi	r8, {fp, ip}^
     f38:	07420000 	strbeq	r0, [r2, -r0]
     f3c:	06210000 	strteq	r0, [r1], -r0
     f40:	01190000 	tsteq	r9, r0
     f44:	193a0150 	ldmdbne	sl!, {r4, r6, r8}
     f48:	91035101 	tstls	r3, r1, lsl #2
     f4c:	01197dd0 			; <UNDEFINED> instruction: 0x01197dd0
     f50:	80080252 	andhi	r0, r8, r2, asr r2
     f54:	007d0219 	rsbseq	r0, sp, r9, lsl r2
     f58:	19007502 	stmdbne	r0, {r1, r8, sl, ip, sp, lr}
     f5c:	01047d02 	tsteq	r4, r2, lsl #26
     f60:	7c180030 	ldcvc	0, cr0, [r8], {48}	; 0x30
     f64:	42000089 	andmi	r0, r0, #137, 0	; 0x89
     f68:	4e000007 	cdpmi	0, 0, cr0, cr0, cr7, {0}
     f6c:	19000006 	stmdbne	r0, {r1, r2}
     f70:	40015001 	andmi	r5, r1, r1
     f74:	03510119 	cmpeq	r1, #1073741830	; 0x40000006
     f78:	197dd091 	ldmdbne	sp!, {r0, r4, r7, ip, lr, pc}^
     f7c:	08025201 	stmdaeq	r2, {r0, r9, ip, lr}
     f80:	7d021980 	vstrvc.16	s2, [r2, #-256]	; 0xffffff00	; <UNPREDICTABLE>
     f84:	00750200 	rsbseq	r0, r5, r0, lsl #4
     f88:	047d0219 	ldrbteq	r0, [sp], #-537	; 0xfffffde7
     f8c:	18003001 	stmdane	r0, {r0, ip, sp}
     f90:	000089b0 			; <UNDEFINED> instruction: 0x000089b0
     f94:	00000742 	andeq	r0, r0, r2, asr #14
     f98:	0000067b 	andeq	r0, r0, fp, ror r6
     f9c:	01500119 	cmpeq	r0, r9, lsl r1
     fa0:	51011932 	tstpl	r1, r2, lsr r9
     fa4:	7dd09103 	ldfvcp	f1, [r0, #12]
     fa8:	02520119 	subseq	r0, r2, #1073741830	; 0x40000006
     fac:	02198008 	andseq	r8, r9, #8, 0
     fb0:	7502007d 	strvc	r0, [r2, #-125]	; 0xffffff83
     fb4:	7d021900 	vstrvc.16	s2, [r2, #-0]	; <UNPREDICTABLE>
     fb8:	00300104 	eorseq	r0, r0, r4, lsl #2
     fbc:	0089f818 	addeq	pc, r9, r8, lsl r8	; <UNPREDICTABLE>
     fc0:	00074200 	andeq	r4, r7, r0, lsl #4
     fc4:	0006a800 	andeq	sl, r6, r0, lsl #16
     fc8:	50011900 	andpl	r1, r1, r0, lsl #18
     fcc:	01193801 	tsteq	r9, r1, lsl #16
     fd0:	d0910351 	addsle	r0, r1, r1, asr r3
     fd4:	5201197d 	andpl	r1, r1, #2048000	; 0x1f4000
     fd8:	19800802 	stmibne	r0, {r1, fp}
     fdc:	02007d02 	andeq	r7, r0, #128	; 0x80
     fe0:	02190075 	andseq	r0, r9, #117, 0	; 0x75
     fe4:	3001047d 	andcc	r0, r1, sp, ror r4
     fe8:	8a181800 	bhi	606ff0 <__bss_end__+0x5fd390>
     fec:	0a9e0000 	beq	fe780ff4 <__bss_end__+0xfe777394>
     ff0:	06cb0000 	strbeq	r0, [fp], r0
     ff4:	01190000 	tsteq	r9, r0
     ff8:	b4030550 	strlt	r0, [r3], #-1360	; 0xfffffab0
     ffc:	19000095 	stmdbne	r0, {r0, r2, r4, r7}
    1000:	7a025101 	bvc	9540c <__bss_end__+0x8b7ac>
    1004:	52011900 	andpl	r1, r1, #0, 18
    1008:	00007a02 	andeq	r7, r0, r2, lsl #20
    100c:	008a281b 	addeq	r2, sl, fp, lsl r8
    1010:	0006dd00 	andeq	sp, r6, r0, lsl #26
    1014:	50011900 	andpl	r1, r1, r0, lsl #18
    1018:	7dc89104 	stfvcp	f1, [r8, #16]
    101c:	3c180006 	ldccc	0, cr0, [r8], {6}
    1020:	9e00008a 	cdpls	0, 0, cr0, cr0, cr10, {4}
    1024:	0c00000a 	stceq	0, cr0, [r0], {10}
    1028:	19000007 	stmdbne	r0, {r0, r1, r2}
    102c:	03055001 	movweq	r5, #20481	; 0x5001
    1030:	000095e4 	andeq	r9, r0, r4, ror #11
    1034:	05510119 	ldrbeq	r0, [r1, #-281]	; 0xfffffee7
    1038:	0094c003 	addseq	ip, r4, r3
    103c:	52011900 	andpl	r1, r1, #0, 18
    1040:	961c0305 	ldrls	r0, [ip], -r5, lsl #6
    1044:	01190000 	tsteq	r9, r0
    1048:	e2080253 	and	r0, r8, #805306373	; 0x30000005
    104c:	8a401a00 	bhi	1007854 <__bss_end__+0xffdbf4>
    1050:	0ac20000 	beq	ff081058 <__bss_end__+0xff0773f8>
    1054:	00000000 	andeq	r0, r0, r0
    1058:	00b90408 	adcseq	r0, r9, r8, lsl #8
    105c:	c01c0000 	andsgt	r0, ip, r0
    1060:	2d000000 	stccs	0, cr0, [r0, #-0]
    1064:	1d000007 	stcne	0, cr0, [r0, #-28]	; 0xffffffe4
    1068:	0000002c 	andeq	r0, r0, ip, lsr #32
    106c:	1d090009 	stcne	0, cr0, [r9, #-36]	; 0xffffffdc
    1070:	1c000007 	stcne	0, cr0, [r0], {7}
    1074:	000000b9 	strheq	r0, [r0], -r9
    1078:	00000742 	andeq	r0, r0, r2, asr #14
    107c:	00002c1d 	andeq	r2, r0, sp, lsl ip
    1080:	1e007f00 	cdpne	15, 0, cr7, cr0, cr0, {0}
    1084:	00000448 	andeq	r0, r0, r8, asr #8
    1088:	17014901 	strne	r4, [r1, -r1, lsl #18]
    108c:	e0000007 	and	r0, r0, r7
    1090:	b4000083 	strlt	r0, [r0], #-131	; 0xffffff7d
    1094:	01000001 	tsteq	r0, r1
    1098:	0008ab9c 	muleq	r8, ip, fp
    109c:	01ec1f00 	mvneq	r1, r0, lsl #30
    10a0:	49010000 	stmdbmi	r1, {}	; <UNPREDICTABLE>
    10a4:	00002c0f 	andeq	r2, r0, pc, lsl #24
    10a8:	0005fd00 	andeq	pc, r5, r0, lsl #26
    10ac:	0005f700 	andeq	pc, r5, r0, lsl #14
    10b0:	73640e00 	cmnvc	r4, #0, 28
    10b4:	49010074 	stmdbmi	r1, {r2, r4, r5, r6}
    10b8:	0007171b 	andeq	r1, r7, fp, lsl r7
    10bc:	00063b00 	andeq	r3, r6, r0, lsl #22
    10c0:	00062b00 	andeq	r2, r6, r0, lsl #22
    10c4:	006e0e00 	rsbeq	r0, lr, r0, lsl #28
    10c8:	25244901 	strcs	r4, [r4, #-2305]!	; 0xfffff6ff
    10cc:	9f000000 	svcls	0x00000000
    10d0:	9b000006 	blls	10f0 <__code_start__-0x6f10>
    10d4:	0e000006 	cdpeq	0, 0, cr0, cr0, cr6, {0}
    10d8:	006c6176 	rsbeq	r6, ip, r6, ror r1
    10dc:	252b4901 	strcs	r4, [fp, #-2305]!	; 0xfffff6ff
    10e0:	c9000000 	stmdbgt	r0, {}	; <UNPREDICTABLE>
    10e4:	bd000006 	stclt	0, cr0, [r0, #-24]	; 0xffffffe8
    10e8:	1f000006 	svcne	0x00000006
    10ec:	000003d6 	ldrdeq	r0, [r0], -r6
    10f0:	25344901 	ldrcs	r4, [r4, #-2305]!	; 0xfffff6ff
    10f4:	1f000000 	svcne	0x00000000
    10f8:	19000007 	stmdbne	r0, {r0, r1, r2}
    10fc:	0f000007 	svceq	0x00000007
    1100:	00000494 	muleq	r0, r4, r4
    1104:	253f4901 	ldrcs	r4, [pc, #-2305]!	; 80b <__code_start__-0x77f5>
    1108:	02000000 	andeq	r0, r0, #0, 0
    110c:	62140491 	andsvs	r0, r4, #-1862270976	; 0x91000000
    1110:	01006675 	tsteq	r0, r5, ror r6
    1114:	08ab074e 	stmiaeq	fp!, {r1, r2, r3, r6, r8, r9, sl}
    1118:	91030000 	mrsls	r0, (UNDEF: 3)
    111c:	70107fa8 	andsvc	r7, r0, r8, lsr #31
    1120:	114e0100 	mrsne	r0, (UNDEF: 94)
    1124:	00000717 	andeq	r0, r0, r7, lsl r7
    1128:	00000769 	andeq	r0, r0, r9, ror #14
    112c:	00000749 	andeq	r0, r0, r9, asr #14
    1130:	01007510 	tsteq	r0, r0, lsl r5
    1134:	002c0b4f 	eoreq	r0, ip, pc, asr #22
    1138:	084f0000 	stmdaeq	pc, {}^	; <UNPREDICTABLE>
    113c:	083b0000 	ldmdaeq	fp!, {}	; <UNPREDICTABLE>
    1140:	3d120000 	ldccc	0, cr0, [r2, #-0]
    1144:	cb000000 	blgt	114c <__code_start__-0x6eb4>
    1148:	05000008 	streq	r0, [r0, #-8]
    114c:	00960403 	addseq	r0, r6, r3, lsl #8
    1150:	844c1600 	strbhi	r1, [ip], #-1536	; 0xfffffa00
    1154:	00780000 	rsbseq	r0, r8, r0
    1158:	08320000 	ldmdaeq	r2!, {}	; <UNPREDICTABLE>
    115c:	35110000 	ldrcc	r0, [r1, #-0]
    1160:	01000004 	tsteq	r0, r4
    1164:	002c0d54 	eoreq	r0, ip, r4, asr sp
    1168:	08d00000 	ldmeq	r0, {}^	; <UNPREDICTABLE>
    116c:	08c80000 	stmiaeq	r8, {}^	; <UNPREDICTABLE>
    1170:	18000000 	stmdane	r0, {}	; <UNPREDICTABLE>
    1174:	00008504 	andeq	r8, r0, r4, lsl #10
    1178:	0000095d 	andeq	r0, r0, sp, asr r9
    117c:	00000847 	andeq	r0, r0, r7, asr #16
    1180:	03510119 	cmpeq	r1, #1073741830	; 0x40000006
    1184:	007fa091 			; <UNDEFINED> instruction: 0x007fa091
    1188:	00851818 	addeq	r1, r5, r8, lsl r8
    118c:	0008d000 	andeq	sp, r8, r0
    1190:	00086800 	andeq	r6, r8, r0, lsl #16
    1194:	50011900 	andpl	r1, r1, r0, lsl #18
    1198:	19007502 	stmdbne	r0, {r1, r8, sl, ip, sp, lr}
    119c:	74025101 	strvc	r5, [r2], #-257	; 0xfffffeff
    11a0:	53011900 	movwpl	r1, #6400	; 0x1900
    11a4:	7fa09103 	svcvc	0x00a09103
    11a8:	85701800 	ldrbhi	r1, [r0, #-2048]!	; 0xfffff800
    11ac:	0a9e0000 	beq	fe7811b4 <__bss_end__+0xfe777554>
    11b0:	08a10000 	stmiaeq	r1!, {}	; <UNPREDICTABLE>
    11b4:	01190000 	tsteq	r9, r0
    11b8:	18030550 	stmdane	r3, {r4, r6, r8, sl}
    11bc:	19000094 	stmdbne	r0, {r2, r4, r7}
    11c0:	03055101 	movweq	r5, #20737	; 0x5101
    11c4:	000094c0 	andeq	r9, r0, r0, asr #9
    11c8:	05520119 	ldrbeq	r0, [r2, #-281]	; 0xfffffee7
    11cc:	00960403 	addseq	r0, r6, r3, lsl #8
    11d0:	53011900 	movwpl	r1, #6400	; 0x1900
    11d4:	19790802 	ldmdbne	r9!, {r1, fp}^
    11d8:	05007d02 	streq	r7, [r0, #-3330]	; 0xfffff2fe
    11dc:	0094d403 	addseq	sp, r4, r3, lsl #8
    11e0:	741a0000 	ldrvc	r0, [sl], #-0
    11e4:	c2000085 	andgt	r0, r0, #133, 0	; 0x85
    11e8:	0000000a 	andeq	r0, r0, sl
    11ec:	0000b91c 	andeq	fp, r0, ip, lsl r9
    11f0:	0008bb00 	andeq	fp, r8, r0, lsl #22
    11f4:	002c1d00 	eoreq	r1, ip, r0, lsl #26
    11f8:	003f0000 	eorseq	r0, pc, r0
    11fc:	0000c01c 	andeq	ip, r0, ip, lsl r0
    1200:	0008cb00 	andeq	ip, r8, r0, lsl #22
    1204:	002c1d00 	eoreq	r1, ip, r0, lsl #26
    1208:	00040000 	andeq	r0, r4, r0
    120c:	0008bb09 	andeq	fp, r8, r9, lsl #22
    1210:	04551e00 	ldrbeq	r1, [r5], #-3584	; 0xfffff200
    1214:	38010000 	stmdacc	r1, {}	; <UNPREDICTABLE>
    1218:	0007170e 	andeq	r1, r7, lr, lsl #14
    121c:	0083a800 	addeq	sl, r3, r0, lsl #16
    1220:	00003800 	andeq	r3, r0, r0, lsl #16
    1224:	5d9c0100 	ldfpls	f0, [ip]
    1228:	0e000009 	cdpeq	0, 0, cr0, cr0, cr9, {0}
    122c:	00747364 	rsbseq	r7, r4, r4, ror #6
    1230:	171c3801 	ldrne	r3, [ip, -r1, lsl #16]
    1234:	11000007 	tstne	r0, r7
    1238:	07000009 	streq	r0, [r0, -r9]
    123c:	0e000009 	cdpeq	0, 0, cr0, cr0, cr9, {0}
    1240:	3801006e 	stmdacc	r1, {r1, r2, r3, r5, r6}
    1244:	00002525 	andeq	r2, r0, r5, lsr #10
    1248:	00095800 	andeq	r5, r9, r0, lsl #16
    124c:	00095400 	andeq	r5, r9, r0, lsl #8
    1250:	00700e00 	rsbseq	r0, r0, r0, lsl #28
    1254:	172e3801 	strne	r3, [lr, -r1, lsl #16]!
    1258:	81000007 	tsthi	r0, r7
    125c:	79000009 	stmdbvc	r0, {r0, r3}
    1260:	1f000009 	svcne	0x00000009
    1264:	0000082e 	andeq	r0, r0, lr, lsr #16
    1268:	17373801 	ldrne	r3, [r7, -r1, lsl #16]!
    126c:	bb000007 	bllt	1290 <__code_start__-0x6d70>
    1270:	b7000009 	strlt	r0, [r0, -r9]
    1274:	10000009 	andne	r0, r0, r9
    1278:	006e656c 	rsbeq	r6, lr, ip, ror #10
    127c:	25063a01 	strcs	r3, [r6, #-2561]	; 0xfffff5ff
    1280:	e1000000 	mrs	r0, (UNDEF: 0)
    1284:	d9000009 	stmdble	r0, {r0, r3}
    1288:	10000009 	andne	r0, r0, r9
    128c:	3e010073 	mcrcc	0, 0, r0, cr1, cr3, {3}
    1290:	00071708 	andeq	r1, r7, r8, lsl #14
    1294:	000a2f00 	andeq	r2, sl, r0, lsl #30
    1298:	000a2d00 	andeq	r2, sl, r0, lsl #26
    129c:	70200000 	eorvc	r0, r0, r0
    12a0:	01006461 	tsteq	r0, r1, ror #8
    12a4:	07170e2e 	ldreq	r0, [r7, -lr, lsr #28]
    12a8:	83840000 	orrhi	r0, r4, #0, 0
    12ac:	00240000 	eoreq	r0, r4, r0
    12b0:	9c010000 	stcls	0, cr0, [r1], {-0}
    12b4:	000009c0 	andeq	r0, r0, r0, asr #19
    12b8:	0100700e 	tsteq	r0, lr
    12bc:	0717182e 	ldreq	r1, [r7, -lr, lsr #16]
    12c0:	0a480000 	beq	12012c8 <__bss_end__+0x11f7668>
    12c4:	0a420000 	beq	10812cc <__bss_end__+0x107766c>
    12c8:	ec1f0000 	ldc	0, cr0, [pc], {-0}
    12cc:	01000001 	tsteq	r0, r1
    12d0:	0717222e 	ldreq	r2, [r7, -lr, lsr #4]
    12d4:	0a770000 	beq	1dc12dc <__bss_end__+0x1db767c>
    12d8:	0a730000 	beq	1cc12e0 <__bss_end__+0x1cb7680>
    12dc:	d60f0000 	strle	r0, [pc], -r0
    12e0:	01000003 	tsteq	r0, r3
    12e4:	00252c2e 	eoreq	r2, r5, lr, lsr #24
    12e8:	52010000 	andpl	r0, r1, #0, 0
    12ec:	6e656c10 	mcrvs	12, 3, r6, cr5, cr0, {0}
    12f0:	062f0100 	strteq	r0, [pc], -r0, lsl #2
    12f4:	00000025 	andeq	r0, r0, r5, lsr #32
    12f8:	00000a9a 	muleq	r0, sl, sl
    12fc:	00000a98 	muleq	r0, r8, sl
    1300:	03951e00 	orrseq	r1, r5, #0, 28
    1304:	27010000 	strcs	r0, [r1, -r0]
    1308:	0000250c 	andeq	r2, r0, ip, lsl #10
    130c:	00837000 	addeq	r7, r3, r0
    1310:	00001400 	andeq	r1, r0, r0, lsl #8
    1314:	ed9c0100 	ldfs	f0, [ip]
    1318:	0e000009 	cdpeq	0, 0, cr0, cr0, cr9, {0}
    131c:	27010063 	strcs	r0, [r1, -r3, rrx]
    1320:	00002518 	andeq	r2, r0, r8, lsl r5
    1324:	000ab300 	andeq	fp, sl, r0, lsl #6
    1328:	000aad00 	andeq	sl, sl, r0, lsl #26
    132c:	15210000 	strne	r0, [r1, #-0]!
    1330:	01000004 	tsteq	r0, r4
    1334:	8594061f 	ldrhi	r0, [r4, #1567]	; 0x61f
    1338:	00640000 	rsbeq	r0, r4, r0
    133c:	9c010000 	stcls	0, cr0, [r1], {-0}
    1340:	00000a7d 	andeq	r0, r0, sp, ror sl
    1344:	0003e91f 	andeq	lr, r3, pc, lsl r9
    1348:	1b1f0100 	blne	7c1750 <__bss_end__+0x7b7af0>
    134c:	0000009e 	muleq	r0, lr, r0
    1350:	00000ae5 	andeq	r0, r0, r5, ror #21
    1354:	00000ae1 	andeq	r0, r0, r1, ror #21
    1358:	00044d1f 	andeq	r4, r4, pc, lsl sp
    135c:	301f0100 	andscc	r0, pc, r0, lsl #2
    1360:	000000d1 	ldrdeq	r0, [r0], -r1
    1364:	00000b0a 	andeq	r0, r0, sl, lsl #22
    1368:	00000b06 	andeq	r0, r0, r6, lsl #22
    136c:	00003d12 	andeq	r3, r0, r2, lsl sp
    1370:	000a8d00 	andeq	r8, sl, r0, lsl #26
    1374:	0c030500 	cfstr32eq	mvfx0, [r3], {-0}
    1378:	18000096 	stmdane	r0, {r1, r2, r4, r7}
    137c:	000085dc 	ldrdeq	r8, [r0], -ip
    1380:	00000a9e 	muleq	r0, lr, sl
    1384:	00000a73 	andeq	r0, r0, r3, ror sl
    1388:	05500119 	ldrbeq	r0, [r0, #-281]	; 0xfffffee7
    138c:	00941803 	addseq	r1, r4, r3, lsl #16
    1390:	51011900 	tstpl	r1, r0, lsl #18
    1394:	94c00305 	strbls	r0, [r0], #773	; 0x305
    1398:	01190000 	tsteq	r9, r0
    139c:	0c030552 	cfstr32eq	mvfx0, [r3], {82}	; 0x52
    13a0:	19000096 	stmdbne	r0, {r1, r2, r4, r7}
    13a4:	08025301 	stmdaeq	r2, {r0, r8, r9, ip, lr}
    13a8:	7d021920 	vstrvc.16	s2, [r2, #-64]	; 0xffffffc0	; <UNPREDICTABLE>
    13ac:	fc030500 	stc2	5, cr0, [r3], {-0}
    13b0:	00000094 	muleq	r0, r4, r0
    13b4:	0085e01a 	addeq	lr, r5, sl, lsl r0
    13b8:	000ac200 	andeq	ip, sl, r0, lsl #4
    13bc:	c01c0000 	andsgt	r0, ip, r0
    13c0:	8d000000 	stchi	0, cr0, [r0, #-0]
    13c4:	1d00000a 	stcne	0, cr0, [r0, #-40]	; 0xffffffd8
    13c8:	0000002c 	andeq	r0, r0, ip, lsr #32
    13cc:	7d09000e 	stcvc	0, cr0, [r9, #-56]	; 0xffffffc8
    13d0:	2200000a 	andcs	r0, r0, #10, 0
    13d4:	0000048c 	andeq	r0, r0, ip, lsl #9
    13d8:	0000048c 	andeq	r0, r0, ip, lsl #9
    13dc:	2205f003 	andcs	pc, r5, #3, 0
    13e0:	000002fc 	strdeq	r0, [r0], -ip
    13e4:	000002fc 	strdeq	r0, [r0], -ip
    13e8:	22062803 	andcs	r2, r6, #196608	; 0x30000
    13ec:	00000464 	andeq	r0, r0, r4, ror #8
    13f0:	00000464 	andeq	r0, r0, r4, ror #8
    13f4:	2205ef03 	andcs	lr, r5, #3, 30
    13f8:	0000042e 	andeq	r0, r0, lr, lsr #8
    13fc:	0000042e 	andeq	r0, r0, lr, lsr #8
    1400:	2207f203 	andcs	pc, r7, #805306368	; 0x30000000
    1404:	00000016 	andeq	r0, r0, r6, lsl r0
    1408:	00000016 	andeq	r0, r0, r6, lsl r0
    140c:	22066e03 	andcs	r6, r6, #3, 28	; 0x30
    1410:	0000045d 	andeq	r0, r0, sp, asr r4
    1414:	0000045d 	andeq	r0, r0, sp, asr r4
    1418:	0007f303 	andeq	pc, r7, r3, lsl #6
    141c:	0000012f 	andeq	r0, r0, pc, lsr #2
    1420:	07be0004 	ldreq	r0, [lr, r4]!
    1424:	01040000 	mrseq	r0, (UNDEF: 4)
    1428:	0000022a 	andeq	r0, r0, sl, lsr #4
    142c:	0004b10c 	andeq	fp, r4, ip, lsl #2
    1430:	00033100 	andeq	r3, r3, r0, lsl #2
    1434:	008ab000 	addeq	fp, sl, r0
    1438:	00002c00 	andeq	r2, r0, r0, lsl #24
    143c:	000c7600 	andeq	r7, ip, r0, lsl #12
    1440:	05040200 	streq	r0, [r4, #-512]	; 0xfffffe00
    1444:	00746e69 	rsbseq	r6, r4, r9, ror #28
    1448:	6b070403 	blvs	1c245c <__bss_end__+0x1b87fc>
    144c:	03000000 	movweq	r0, #0
    1450:	000a0601 	andeq	r0, sl, r1, lsl #12
    1454:	02030000 	andeq	r0, r3, #0, 0
    1458:	0000ef05 	andeq	lr, r0, r5, lsl #30
    145c:	05040300 	streq	r0, [r4, #-768]	; 0xfffffd00
    1460:	0000007d 	andeq	r0, r0, sp, ror r0
    1464:	78050803 	stmdavc	r5, {r0, r1, fp}
    1468:	03000000 	movweq	r0, #0
    146c:	00080801 	andeq	r0, r8, r1, lsl #16
    1470:	02030000 	andeq	r0, r3, #0, 0
    1474:	00002307 	andeq	r2, r0, r7, lsl #6
    1478:	07040300 	streq	r0, [r4, -r0, lsl #6]
    147c:	00000066 	andeq	r0, r0, r6, rrx
    1480:	61070803 	tstvs	r7, r3, lsl #16
    1484:	04000000 	streq	r0, [r0], #-0
    1488:	00000025 	andeq	r0, r0, r5, lsr #32
    148c:	0000007a 	andeq	r0, r0, sl, ror r0
    1490:	00002505 	andeq	r2, r0, r5, lsl #10
    1494:	86060000 	strhi	r0, [r6], -r0
    1498:	02000000 	andeq	r0, r0, #0, 0
    149c:	00860e1c 	addeq	r0, r6, ip, lsl lr
    14a0:	04070000 	streq	r0, [r7], #-0
    14a4:	0000006b 	andeq	r0, r0, fp, rrx
    14a8:	00002504 	andeq	r2, r0, r4, lsl #10
    14ac:	00009b00 	andeq	r9, r0, r0, lsl #22
    14b0:	009b0500 	addseq	r0, fp, r0, lsl #10
    14b4:	07000000 	streq	r0, [r0, -r0]
    14b8:	0000a804 	andeq	sl, r0, r4, lsl #16
    14bc:	08010300 	stmdaeq	r1, {r8, r9}
    14c0:	00000011 	andeq	r0, r0, r1, lsl r0
    14c4:	0000a108 	andeq	sl, r0, r8, lsl #2
    14c8:	03820600 	orreq	r0, r2, #0, 12
    14cc:	21020000 	mrscs	r0, (UNDEF: 2)
    14d0:	0000b90e 	andeq	fp, r0, lr, lsl #18
    14d4:	8c040700 	stchi	7, cr0, [r4], {-0}
    14d8:	09000000 	stmdbeq	r0, {}	; <UNPREDICTABLE>
    14dc:	00000016 	andeq	r0, r0, r6, lsl r0
    14e0:	b0060401 	andlt	r0, r6, r1, lsl #8
    14e4:	2c00008a 	stccs	0, cr0, [r0], {138}	; 0x8a
    14e8:	01000000 	mrseq	r0, (UNDEF: 0)
    14ec:	00010e9c 	muleq	r1, ip, lr
    14f0:	8ac40a00 	bhi	ff103cf8 <__bss_end__+0xff0fa098>
    14f4:	00e80000 	rsceq	r0, r8, r0
    14f8:	010b0000 	mrseq	r0, (UNDEF: 11)
    14fc:	28030550 	stmdacs	r3, {r4, r6, r8, sl}
    1500:	00000096 	muleq	r0, r6, r0
    1504:	008ac80c 	addeq	ip, sl, ip, lsl #16
    1508:	00010e00 	andeq	r0, r1, r0, lsl #28
    150c:	8ad00d00 	bhi	ff404914 <__bss_end__+0xff3facb4>
    1510:	011a0000 	tsteq	sl, r0
    1514:	01040000 	mrseq	r0, (UNDEF: 4)
    1518:	010b0000 	mrseq	r0, (UNDEF: 11)
    151c:	003a0150 	eorseq	r0, sl, r0, asr r1
    1520:	008ad40c 	addeq	sp, sl, ip, lsl #8
    1524:	00012600 	andeq	r2, r1, r0, lsl #12
    1528:	cc0e0000 	stcgt	0, cr0, [lr], {-0}
    152c:	cc000004 	stcgt	0, cr0, [r0], {4}
    1530:	02000004 	andeq	r0, r0, #4, 0
    1534:	a80e064d 	stmdage	lr, {r0, r2, r3, r6, r9, sl}
    1538:	a8000004 	stmdage	r0, {r2}
    153c:	02000004 	andeq	r0, r0, #4, 0
    1540:	9d0e0658 	stcls	6, cr0, [lr, #-352]	; 0xfffffea0
    1544:	9d000004 	stcls	0, cr0, [r0, #-16]
    1548:	02000004 	andeq	r0, r0, #4, 0
    154c:	8900066b 	stmdbhi	r0, {r0, r1, r3, r5, r6, r9, sl}
    1550:	04000001 	streq	r0, [r0], #-1
    1554:	00087e00 	andeq	r7, r8, r0, lsl #28
    1558:	2a010400 	bcs	42560 <__bss_end__+0x38900>
    155c:	0c000002 	stceq	0, cr0, [r0], {2}
    1560:	00000502 	andeq	r0, r0, r2, lsl #10
    1564:	00000331 	andeq	r0, r0, r1, lsr r3
    1568:	00008adc 	ldrdeq	r8, [r0], -ip
    156c:	0000003c 	andeq	r0, r0, ip, lsr r0
    1570:	00000d1f 	andeq	r0, r0, pc, lsl sp
    1574:	69050402 	stmdbvs	r5, {r1, sl}
    1578:	0300746e 	movweq	r7, #1134	; 0x46e
    157c:	006b0704 	rsbeq	r0, fp, r4, lsl #14
    1580:	01030000 	mrseq	r0, (UNDEF: 3)
    1584:	00000a06 	andeq	r0, r0, r6, lsl #20
    1588:	05020300 	streq	r0, [r2, #-768]	; 0xfffffd00
    158c:	000000ef 	andeq	r0, r0, pc, ror #1
    1590:	7d050403 	cfstrsvc	mvf0, [r5, #-12]
    1594:	03000000 	movweq	r0, #0
    1598:	00780508 	rsbseq	r0, r8, r8, lsl #10
    159c:	01030000 	mrseq	r0, (UNDEF: 3)
    15a0:	00000808 	andeq	r0, r0, r8, lsl #16
    15a4:	07020300 	streq	r0, [r2, -r0, lsl #6]
    15a8:	00000023 	andeq	r0, r0, r3, lsr #32
    15ac:	66070403 	strvs	r0, [r7], -r3, lsl #8
    15b0:	03000000 	movweq	r0, #0
    15b4:	00610708 	rsbeq	r0, r1, r8, lsl #14
    15b8:	25040000 	strcs	r0, [r4, #-0]
    15bc:	7a000000 	bvc	15c4 <__code_start__-0x6a3c>
    15c0:	05000000 	streq	r0, [r0, #-0]
    15c4:	00000025 	andeq	r0, r0, r5, lsr #32
    15c8:	00860600 	addeq	r0, r6, r0, lsl #12
    15cc:	1c020000 	stcne	0, cr0, [r2], {-0}
    15d0:	0000860e 	andeq	r8, r0, lr, lsl #12
    15d4:	6b040700 	blvs	1031dc <__bss_end__+0xf957c>
    15d8:	04000000 	streq	r0, [r0], #-0
    15dc:	00000025 	andeq	r0, r0, r5, lsr #32
    15e0:	0000009b 	muleq	r0, fp, r0
    15e4:	00009b05 	andeq	r9, r0, r5, lsl #22
    15e8:	04070000 	streq	r0, [r7], #-0
    15ec:	000000a8 	andeq	r0, r0, r8, lsr #1
    15f0:	11080103 	tstne	r8, r3, lsl #2
    15f4:	08000000 	stmdaeq	r0, {}	; <UNPREDICTABLE>
    15f8:	000000a1 	andeq	r0, r0, r1, lsr #1
    15fc:	00038206 	andeq	r8, r3, r6, lsl #4
    1600:	0e210200 	cdpeq	2, 2, cr0, cr1, cr0, {0}
    1604:	000000b9 	strheq	r0, [r0], -r9
    1608:	008c0407 	addeq	r0, ip, r7, lsl #8
    160c:	da090000 	ble	241614 <__bss_end__+0x2379b4>
    1610:	01000004 	tsteq	r0, r4
    1614:	8adc0604 	bhi	ff702e2c <__bss_end__+0xff6f91cc>
    1618:	003c0000 	eorseq	r0, ip, r0
    161c:	9c010000 	stcls	0, cr0, [r1], {-0}
    1620:	00000154 	andeq	r0, r0, r4, asr r1
    1624:	0003c806 	andeq	ip, r3, r6, lsl #16
    1628:	10050100 	andne	r0, r5, r0, lsl #2
    162c:	00000025 	andeq	r0, r0, r5, lsr #32
    1630:	0003f106 	andeq	pc, r3, r6, lsl #2
    1634:	1f050100 	svcne	0x00050100
    1638:	00000025 	andeq	r0, r0, r5, lsr #32
    163c:	0000000a 	andeq	r0, r0, sl
    1640:	07060100 	streq	r0, [r6, -r0, lsl #2]
    1644:	7373620b 	cmnvc	r3, #-1342177280	; 0xb0000000
    1648:	0a0a0100 	beq	281a50 <__bss_end__+0x277df0>
    164c:	00000154 	andeq	r0, r0, r4, asr r1
    1650:	00000b31 	andeq	r0, r0, r1, lsr fp
    1654:	00000b2b 	andeq	r0, r0, fp, lsr #22
    1658:	0004e20c 	andeq	lr, r4, ip, lsl #4
    165c:	0a0b0100 	beq	2c1a64 <__bss_end__+0x2b7e04>
    1660:	00000154 	andeq	r0, r0, r4, asr r1
    1664:	008b000d 	addeq	r0, fp, sp
    1668:	00000800 	andeq	r0, r0, r0, lsl #16
    166c:	00012f00 	andeq	r2, r1, r0, lsl #30
    1670:	6e690e00 	cdpvs	14, 6, cr0, cr9, cr0, {0}
    1674:	05140100 	ldreq	r0, [r4, #-256]	; 0xffffff00
    1678:	0000002c 	andeq	r0, r0, ip, lsr #32
    167c:	e40f0001 	str	r0, [pc], #-1	; 1684 <__code_start__-0x697c>
    1680:	5a00008a 	bpl	18b0 <__code_start__-0x6750>
    1684:	0f000001 	svceq	0x00000001
    1688:	00008b00 	andeq	r8, r0, r0, lsl #22
    168c:	00000167 	andeq	r0, r0, r7, ror #2
    1690:	008b0c0f 	addeq	r0, fp, pc, lsl #24
    1694:	00017300 	andeq	r7, r1, r0, lsl #6
    1698:	8b100f00 	blhi	4052a0 <__bss_end__+0x3fb640>
    169c:	01800000 	orreq	r0, r0, r0
    16a0:	07000000 	streq	r0, [r0, -r0]
    16a4:	00002504 	andeq	r2, r0, r4, lsl #10
    16a8:	04f41000 	ldrbteq	r1, [r4], #0
    16ac:	04f40000 	ldrbteq	r0, [r4], #0
    16b0:	36020000 	strcc	r0, [r2], -r0
    16b4:	ea110601 	b	442ec0 <__bss_end__+0x439260>
    16b8:	ea000004 	b	16d0 <__code_start__-0x6930>
    16bc:	02000004 	andeq	r0, r0, #4, 0
    16c0:	0010063b 	andseq	r0, r0, fp, lsr r6
    16c4:	00000000 	andeq	r0, r0, r0
    16c8:	02000000 	andeq	r0, r0, #0, 0
    16cc:	1106010a 	tstne	r6, sl, lsl #2
    16d0:	00000016 	andeq	r0, r0, r6, lsl r0
    16d4:	00000016 	andeq	r0, r0, r6, lsl r0
    16d8:	00066e02 	andeq	r6, r6, r2, lsl #28
    16dc:	000000ce 	andeq	r0, r0, lr, asr #1
    16e0:	097a0004 	ldmdbeq	sl!, {r2}^
    16e4:	01040000 	mrseq	r0, (UNDEF: 4)
    16e8:	0000022a 	andeq	r0, r0, sl, lsr #4
    16ec:	0005170c 	andeq	r1, r5, ip, lsl #14
    16f0:	00033100 	andeq	r3, r3, r0, lsl #2
    16f4:	008b1800 	addeq	r1, fp, r0, lsl #16
    16f8:	00000400 	andeq	r0, r0, r0, lsl #8
    16fc:	000de200 	andeq	lr, sp, r0, lsl #4
    1700:	05040200 	streq	r0, [r4, #-512]	; 0xfffffe00
    1704:	00746e69 	rsbseq	r6, r4, r9, ror #28
    1708:	6b070403 	blvs	1c271c <__bss_end__+0x1b8abc>
    170c:	03000000 	movweq	r0, #0
    1710:	000a0601 	andeq	r0, sl, r1, lsl #12
    1714:	02030000 	andeq	r0, r3, #0, 0
    1718:	0000ef05 	andeq	lr, r0, r5, lsl #30
    171c:	05040300 	streq	r0, [r4, #-768]	; 0xfffffd00
    1720:	0000007d 	andeq	r0, r0, sp, ror r0
    1724:	78050803 	stmdavc	r5, {r0, r1, fp}
    1728:	03000000 	movweq	r0, #0
    172c:	00080801 	andeq	r0, r8, r1, lsl #16
    1730:	02030000 	andeq	r0, r3, #0, 0
    1734:	00002307 	andeq	r2, r0, r7, lsl #6
    1738:	07040300 	streq	r0, [r4, -r0, lsl #6]
    173c:	00000066 	andeq	r0, r0, r6, rrx
    1740:	61070803 	tstvs	r7, r3, lsl #16
    1744:	04000000 	streq	r0, [r0], #-0
    1748:	00000025 	andeq	r0, r0, r5, lsr #32
    174c:	0000007a 	andeq	r0, r0, sl, ror r0
    1750:	00002505 	andeq	r2, r0, r5, lsl #10
    1754:	86060000 	strhi	r0, [r6], -r0
    1758:	02000000 	andeq	r0, r0, #0, 0
    175c:	00860e1c 	addeq	r0, r6, ip, lsl lr
    1760:	04070000 	streq	r0, [r7], #-0
    1764:	0000006b 	andeq	r0, r0, fp, rrx
    1768:	00002504 	andeq	r2, r0, r4, lsl #10
    176c:	00009b00 	andeq	r9, r0, r0, lsl #22
    1770:	009b0500 	addseq	r0, fp, r0, lsl #10
    1774:	07000000 	streq	r0, [r0, -r0]
    1778:	0000a804 	andeq	sl, r0, r4, lsl #16
    177c:	08010300 	stmdaeq	r1, {r8, r9}
    1780:	00000011 	andeq	r0, r0, r1, lsl r0
    1784:	0000a108 	andeq	sl, r0, r8, lsl #2
    1788:	03820600 	orreq	r0, r2, #0, 12
    178c:	21020000 	mrscs	r0, (UNDEF: 2)
    1790:	0000b90e 	andeq	fp, r0, lr, lsl #18
    1794:	8c040700 	stchi	7, cr0, [r4], {-0}
    1798:	09000000 	stmdbeq	r0, {}	; <UNPREDICTABLE>
    179c:	000004f4 	strdeq	r0, [r0], -r4
    17a0:	18060401 	stmdane	r6, {r0, sl}
    17a4:	0400008b 	streq	r0, [r0], #-139	; 0xffffff75
    17a8:	01000000 	mrseq	r0, (UNDEF: 0)
    17ac:	0236009c 	eorseq	r0, r6, #156, 0	; 0x9c
    17b0:	00040000 	andeq	r0, r4, r0
    17b4:	000009f3 	strdeq	r0, [r0], -r3
    17b8:	022a0104 	eoreq	r0, sl, #1
    17bc:	5f0c0000 	svcpl	0x000c0000
    17c0:	31000005 	tstcc	r0, r5
    17c4:	18000003 	stmdane	r0, {r0, r1}
    17c8:	00000000 	andeq	r0, r0, r0
    17cc:	89000000 	stmdbhi	r0, {}	; <UNPREDICTABLE>
    17d0:	0200000e 	andeq	r0, r0, #14, 0
    17d4:	6e690504 	cdpvs	5, 6, cr0, cr9, cr4, {0}
    17d8:	25030074 	strcs	r0, [r3, #-116]	; 0xffffff8c
    17dc:	04000000 	streq	r0, [r0], #-0
    17e0:	006b0704 	rsbeq	r0, fp, r4, lsl #14
    17e4:	01040000 	mrseq	r0, (UNDEF: 4)
    17e8:	00000a06 	andeq	r0, r0, r6, lsl #20
    17ec:	05020400 	streq	r0, [r2, #-1024]	; 0xfffffc00
    17f0:	000000ef 	andeq	r0, r0, pc, ror #1
    17f4:	7d050404 	cfstrsvc	mvf0, [r5, #-16]
    17f8:	04000000 	streq	r0, [r0], #-0
    17fc:	00780508 	rsbseq	r0, r8, r8, lsl #10
    1800:	01040000 	mrseq	r0, (UNDEF: 4)
    1804:	00000808 	andeq	r0, r0, r8, lsl #16
    1808:	07020400 	streq	r0, [r2, -r0, lsl #8]
    180c:	00000023 	andeq	r0, r0, r3, lsr #32
    1810:	66070404 	strvs	r0, [r7], -r4, lsl #8
    1814:	04000000 	streq	r0, [r0], #-0
    1818:	00610708 	rsbeq	r0, r1, r8, lsl #14
    181c:	25050000 	strcs	r0, [r5, #-0]
    1820:	7f000000 	svcvc	0x00000000
    1824:	06000000 	streq	r0, [r0], -r0
    1828:	00000025 	andeq	r0, r0, r5, lsr #32
    182c:	00860700 	addeq	r0, r6, r0, lsl #14
    1830:	1c020000 	stcne	0, cr0, [r2], {-0}
    1834:	00008b0e 	andeq	r8, r0, lr, lsl #22
    1838:	70040800 	andvc	r0, r4, r0, lsl #16
    183c:	05000000 	streq	r0, [r0, #-0]
    1840:	00000025 	andeq	r0, r0, r5, lsr #32
    1844:	000000a0 	andeq	r0, r0, r0, lsr #1
    1848:	0000a006 	andeq	sl, r0, r6
    184c:	04080000 	streq	r0, [r8], #-0
    1850:	000000ad 	andeq	r0, r0, sp, lsr #1
    1854:	11080104 	tstne	r8, r4, lsl #2
    1858:	03000000 	movweq	r0, #0
    185c:	000000a6 	andeq	r0, r0, r6, lsr #1
    1860:	00038207 	andeq	r8, r3, r7, lsl #4
    1864:	0e210200 	cdpeq	2, 2, cr0, cr1, cr0, {0}
    1868:	000000be 	strheq	r0, [r0], -lr
    186c:	00910408 	addseq	r0, r1, r8, lsl #8
    1870:	83090000 	movwhi	r0, #36864	; 0x9000
    1874:	01000005 	tsteq	r0, r5
    1878:	0031110d 	eorseq	r1, r1, sp, lsl #2
    187c:	9d0a0000 	stcls	0, cr0, [sl, #-0]
    1880:	01000004 	tsteq	r0, r4
    1884:	8b48061f 	blhi	1203108 <__bss_end__+0x11f94a8>
    1888:	00540000 	subseq	r0, r4, r0
    188c:	9c010000 	stcls	0, cr0, [r1], {-0}
    1890:	000001ae 	andeq	r0, r0, lr, lsr #3
    1894:	0005a70b 	andeq	sl, r5, fp, lsl #14
    1898:	0f2c0100 	svceq	0x002c0100
    189c:	0000002c 	andeq	r0, r0, ip, lsr #32
    18a0:	00000b5e 	andeq	r0, r0, lr, asr fp
    18a4:	00000b5c 	andeq	r0, r0, ip, asr fp
    18a8:	0005420b 	andeq	r4, r5, fp, lsl #4
    18ac:	0f2d0100 	svceq	0x002d0100
    18b0:	0000002c 	andeq	r0, r0, ip, lsr #32
    18b4:	00000b78 	andeq	r0, r0, r8, ror fp
    18b8:	00000b76 	andeq	r0, r0, r6, ror fp
    18bc:	0005740b 	andeq	r7, r5, fp, lsl #8
    18c0:	0f2e0100 	svceq	0x002e0100
    18c4:	0000002c 	andeq	r0, r0, ip, lsr #32
    18c8:	00000b92 	muleq	r0, r2, fp
    18cc:	00000b90 	muleq	r0, r0, fp
    18d0:	00058e0b 	andeq	r8, r5, fp, lsl #28
    18d4:	0f2f0100 	svceq	0x002f0100
    18d8:	0000002c 	andeq	r0, r0, ip, lsr #32
    18dc:	00000bab 	andeq	r0, r0, fp, lsr #23
    18e0:	00000ba9 	andeq	r0, r0, r9, lsr #23
    18e4:	008b500c 	addeq	r5, fp, ip
    18e8:	0001d900 	andeq	sp, r1, r0, lsl #18
    18ec:	8b5c0c00 	blhi	17048f4 <__bss_end__+0x16fac94>
    18f0:	02080000 	andeq	r0, r8, #0, 0
    18f4:	600c0000 	andvs	r0, ip, r0
    18f8:	1500008b 	strne	r0, [r0, #-139]	; 0xffffff75
    18fc:	0d000002 	stceq	0, cr0, [r0, #-8]
    1900:	00008b68 	andeq	r8, r0, r8, ror #22
    1904:	00000221 	andeq	r0, r0, r1, lsr #4
    1908:	00000164 	andeq	r0, r0, r4, ror #2
    190c:	0150010e 	cmpeq	r0, lr, lsl #2
    1910:	740d003a 	strvc	r0, [sp], #-58	; 0xffffffc6
    1914:	2d00008b 	stccs	0, cr0, [r0, #-556]	; 0xfffffdd4
    1918:	84000002 	strhi	r0, [r0], #-2
    191c:	0e000001 	cdpeq	0, 0, cr0, cr0, cr1, {0}
    1920:	0c055001 	stceq	0, cr5, [r5], {1}
    1924:	20100024 	andscs	r0, r0, r4, lsr #32
    1928:	0551010e 	ldrbeq	r0, [r1, #-270]	; 0xfffffef2
    192c:	0000010c 	andeq	r0, r0, ip, lsl #2
    1930:	800d005a 	andhi	r0, sp, sl, asr r0
    1934:	2d00008b 	stccs	0, cr0, [r0, #-556]	; 0xfffffdd4
    1938:	a4000002 	strge	r0, [r0], #-2
    193c:	0e000001 	cdpeq	0, 0, cr0, cr0, cr1, {0}
    1940:	0c055001 	stceq	0, cr5, [r5], {1}
    1944:	2010001c 	andscs	r0, r0, ip, lsl r0
    1948:	0551010e 	ldrbeq	r0, [r1, #-270]	; 0xfffffef2
    194c:	0000200c 	andeq	r2, r0, ip
    1950:	880c005a 	stmdahi	ip, {r1, r3, r4, r6}
    1954:	ae00008b 	cdpge	0, 0, cr0, cr0, cr11, {4}
    1958:	00000001 	andeq	r0, r0, r1
    195c:	0005500f 	andeq	r5, r5, pc
    1960:	06170100 	ldreq	r0, [r7], -r0, lsl #2
    1964:	00008b34 	andeq	r8, r0, r4, lsr fp
    1968:	00000014 	andeq	r0, r0, r4, lsl r0
    196c:	01d99c01 	bicseq	r9, r9, r1, lsl #24
    1970:	af0b0000 	svcge	0x000b0000
    1974:	01000005 	tsteq	r0, r5
    1978:	00310e18 	eorseq	r0, r1, r8, lsl lr
    197c:	0bc60000 	bleq	ff181984 <__bss_end__+0xff177d24>
    1980:	0bc00000 	bleq	ff001988 <__bss_end__+0xfeff7d28>
    1984:	10000000 	andne	r0, r0, r0
    1988:	00000580 	andeq	r0, r0, r0, lsl #11
    198c:	25050e01 	strcs	r0, [r5, #-3585]	; 0xfffff1ff
    1990:	1c000000 	stcne	0, cr0, [r0], {-0}
    1994:	1800008b 	stmdane	r0, {r0, r1, r3, r7}
    1998:	01000000 	mrseq	r0, (UNDEF: 0)
    199c:	0002089c 	muleq	r2, ip, r8
    19a0:	05af0b00 	streq	r0, [pc, #2816]!	; 24a8 <__code_start__-0x5b58>
    19a4:	0f010000 	svceq	0x00010000
    19a8:	0000310e 	andeq	r3, r0, lr, lsl #2
    19ac:	000bf400 	andeq	pc, fp, r0, lsl #8
    19b0:	000bf000 	andeq	pc, fp, r0
    19b4:	33110000 	tstcc	r1, #0, 0
    19b8:	33000005 	movwcc	r0, #5
    19bc:	02000005 	andeq	r0, r0, #5, 0
    19c0:	1206013b 	andne	r0, r6, #-1073741810	; 0xc000000e
    19c4:	000004cc 	andeq	r0, r0, ip, asr #9
    19c8:	000004cc 	andeq	r0, r0, ip, asr #9
    19cc:	12064d02 	andne	r4, r6, #128	; 0x80
    19d0:	000004a8 	andeq	r0, r0, r8, lsr #9
    19d4:	000004a8 	andeq	r0, r0, r8, lsr #9
    19d8:	12065802 	andne	r5, r6, #131072	; 0x20000
    19dc:	0000054a 	andeq	r0, r0, sl, asr #10
    19e0:	0000054a 	andeq	r0, r0, sl, asr #10
    19e4:	0006b202 	andeq	fp, r6, r2, lsl #4
    19e8:	0000024d 	andeq	r0, r0, sp, asr #4
    19ec:	0b180004 	bleq	601a04 <__bss_end__+0x5f7da4>
    19f0:	01040000 	mrseq	r0, (UNDEF: 4)
    19f4:	0000022a 	andeq	r0, r0, sl, lsr #4
    19f8:	0005ca0c 	andeq	ip, r5, ip, lsl #20
    19fc:	00033100 	andeq	r3, r3, r0, lsl #2
    1a00:	008b9c00 	addeq	r9, fp, r0, lsl #24
    1a04:	00008400 	andeq	r8, r0, r0, lsl #8
    1a08:	000f8000 	andeq	r8, pc, r0
    1a0c:	05040200 	streq	r0, [r4, #-512]	; 0xfffffe00
    1a10:	00746e69 	rsbseq	r6, r4, r9, ror #28
    1a14:	6b070403 	blvs	1c2a28 <__bss_end__+0x1b8dc8>
    1a18:	03000000 	movweq	r0, #0
    1a1c:	000a0601 	andeq	r0, sl, r1, lsl #12
    1a20:	02030000 	andeq	r0, r3, #0, 0
    1a24:	0000ef05 	andeq	lr, r0, r5, lsl #30
    1a28:	05040300 	streq	r0, [r4, #-768]	; 0xfffffd00
    1a2c:	0000007d 	andeq	r0, r0, sp, ror r0
    1a30:	78050803 	stmdavc	r5, {r0, r1, fp}
    1a34:	03000000 	movweq	r0, #0
    1a38:	00080801 	andeq	r0, r8, r1, lsl #16
    1a3c:	02030000 	andeq	r0, r3, #0, 0
    1a40:	00002307 	andeq	r2, r0, r7, lsl #6
    1a44:	07040300 	streq	r0, [r4, -r0, lsl #6]
    1a48:	00000066 	andeq	r0, r0, r6, rrx
    1a4c:	61070803 	tstvs	r7, r3, lsl #16
    1a50:	04000000 	streq	r0, [r0], #-0
    1a54:	00000025 	andeq	r0, r0, r5, lsr #32
    1a58:	0000007a 	andeq	r0, r0, sl, ror r0
    1a5c:	00002505 	andeq	r2, r0, r5, lsl #10
    1a60:	86060000 	strhi	r0, [r6], -r0
    1a64:	02000000 	andeq	r0, r0, #0, 0
    1a68:	00860e1c 	addeq	r0, r6, ip, lsl lr
    1a6c:	04070000 	streq	r0, [r7], #-0
    1a70:	0000006b 	andeq	r0, r0, fp, rrx
    1a74:	00002504 	andeq	r2, r0, r4, lsl #10
    1a78:	00009b00 	andeq	r9, r0, r0, lsl #22
    1a7c:	009b0500 	addseq	r0, fp, r0, lsl #10
    1a80:	07000000 	streq	r0, [r0, -r0]
    1a84:	0000a804 	andeq	sl, r0, r4, lsl #16
    1a88:	08010300 	stmdaeq	r1, {r8, r9}
    1a8c:	00000011 	andeq	r0, r0, r1, lsl r0
    1a90:	0000a108 	andeq	sl, r0, r8, lsl #2
    1a94:	03820600 	orreq	r0, r2, #0, 12
    1a98:	21020000 	mrscs	r0, (UNDEF: 2)
    1a9c:	0000b90e 	andeq	fp, r0, lr, lsl #18
    1aa0:	8c040700 	stchi	7, cr0, [r4], {-0}
    1aa4:	09000000 	stmdbeq	r0, {}	; <UNPREDICTABLE>
    1aa8:	000005c0 	andeq	r0, r0, r0, asr #11
    1aac:	08061e01 	stmdaeq	r6, {r0, r9, sl, fp, ip}
    1ab0:	1800008c 	stmdane	r0, {r2, r3, r7}
    1ab4:	01000000 	mrseq	r0, (UNDEF: 0)
    1ab8:	0001099c 	muleq	r1, ip, r9
    1abc:	65730a00 	ldrbvs	r0, [r3, #-2560]!	; 0xfffff600
    1ac0:	1e010063 	cdpne	0, 0, cr0, cr1, cr3, {3}
    1ac4:	00002c19 	andeq	r2, r0, r9, lsl ip
    1ac8:	000c1700 	andeq	r1, ip, r0, lsl #14
    1acc:	000c1300 	andeq	r1, ip, r0, lsl #6
    1ad0:	8c1c0b00 			; <UNDEFINED> instruction: 0x8c1c0b00
    1ad4:	01090000 	mrseq	r0, (UNDEF: 9)
    1ad8:	010c0000 	mrseq	r0, (UNDEF: 12)
    1adc:	01f31150 	mvnseq	r1, r0, asr r1
    1ae0:	f3243550 	vqrshl.u32	<illegal reg q1.5>, q0, q2
    1ae4:	321c5001 	andscc	r5, ip, #1, 0
    1ae8:	5001f324 	andpl	pc, r1, r4, lsr #6
    1aec:	00243322 	eoreq	r3, r4, r2, lsr #6
    1af0:	04a80900 	strteq	r0, [r8], #2304	; 0x900
    1af4:	1b010000 	blne	41afc <__bss_end__+0x37e9c>
    1af8:	008bf006 	addeq	pc, fp, r6
    1afc:	00001800 	andeq	r1, r0, r0, lsl #16
    1b00:	529c0100 	addspl	r0, ip, #0
    1b04:	0a000001 	beq	1b10 <__code_start__-0x64f0>
    1b08:	0100736d 	tsteq	r0, sp, ror #6
    1b0c:	002c181b 	eoreq	r1, ip, fp, lsl r8
    1b10:	0c3c0000 	ldceq	0, cr0, [ip], #-0
    1b14:	0c380000 	ldceq	0, cr0, [r8], #-0
    1b18:	040b0000 	streq	r0, [fp], #-0
    1b1c:	5200008c 	andpl	r0, r0, #140, 0	; 0x8c
    1b20:	0c000001 	stceq	0, cr0, [r0], {1}
    1b24:	f3115001 	vhadd.u16	d5, d1, d1
    1b28:	24355001 	ldrtcs	r5, [r5], #-1
    1b2c:	1c5001f3 	ldfnee	f0, [r0], {243}	; 0xf3
    1b30:	01f32432 	mvnseq	r2, r2, lsr r4
    1b34:	24332250 	ldrtcs	r2, [r3], #-592	; 0xfffffdb0
    1b38:	f3090000 	vhadd.u8	d0, d9, d0
    1b3c:	01000005 	tsteq	r0, r5
    1b40:	8bcc0612 	blhi	ff303390 <__bss_end__+0xff2f9730>
    1b44:	00240000 	eoreq	r0, r4, r0
    1b48:	9c010000 	stcls	0, cr0, [r1], {-0}
    1b4c:	000001c2 	andeq	r0, r0, r2, asr #3
    1b50:	0073750a 	rsbseq	r7, r3, sl, lsl #10
    1b54:	2c181201 	lfmcs	f1, 4, [r8], {1}
    1b58:	61000000 	mrsvs	r0, (UNDEF: 0)
    1b5c:	5d00000c 	stcpl	0, cr0, [r0, #-48]	; 0xffffffd0
    1b60:	0d00000c 	stceq	0, cr0, [r0, #-48]	; 0xffffffd0
    1b64:	01006272 	tsteq	r0, r2, ror r2
    1b68:	002c0e13 	eoreq	r0, ip, r3, lsl lr
    1b6c:	0c810000 	stceq	0, cr0, [r1], {0}
    1b70:	0c7f0000 	ldcleq	0, cr0, [pc], #-0	; 1b78 <__code_start__-0x6488>
    1b74:	dc0e0000 	stcle	0, cr0, [lr], {-0}
    1b78:	1400008b 	strne	r0, [r0], #-139	; 0xffffff75
    1b7c:	b8000000 	stmdalt	r0, {}	; <UNPREDICTABLE>
    1b80:	0d000001 	stceq	0, cr0, [r0, #-4]
    1b84:	01006172 	tsteq	r0, r2, ror r1
    1b88:	002c1215 	eoreq	r1, ip, r5, lsl r2
    1b8c:	0c960000 	ldceq	0, cr0, [r6], {0}
    1b90:	0c940000 	ldceq	0, cr0, [r4], {0}
    1b94:	e00f0000 	and	r0, pc, r0
    1b98:	c200008b 	andgt	r0, r0, #139, 0	; 0x8b
    1b9c:	00000001 	andeq	r0, r0, r1
    1ba0:	008bd80f 	addeq	sp, fp, pc, lsl #16
    1ba4:	0001c200 	andeq	ip, r1, r0, lsl #4
    1ba8:	e4100000 	ldr	r0, [r0], #-0
    1bac:	01000005 	tsteq	r0, r5
    1bb0:	002c0a09 	eoreq	r0, ip, r9, lsl #20
    1bb4:	8bb00000 	blhi	fec01bbc <__bss_end__+0xfebf7f5c>
    1bb8:	001c0000 	andseq	r0, ip, r0
    1bbc:	9c010000 	stcls	0, cr0, [r1], {-0}
    1bc0:	0000020a 	andeq	r0, r0, sl, lsl #4
    1bc4:	0100750d 	tsteq	r0, sp, lsl #10
    1bc8:	002c0e0d 	eoreq	r0, ip, sp, lsl #28
    1bcc:	0cad0000 	stceq	0, cr0, [sp]
    1bd0:	0ca90000 	stceq	0, cr0, [r9]
    1bd4:	b80f0000 	stmdalt	pc, {}	; <UNPREDICTABLE>
    1bd8:	3800008b 	stmdacc	r0, {r0, r1, r3, r7}
    1bdc:	0f000002 	svceq	0x00000002
    1be0:	00008bbc 			; <UNDEFINED> instruction: 0x00008bbc
    1be4:	0000020a 	andeq	r0, r0, sl, lsl #4
    1be8:	008bc40f 	addeq	ip, fp, pc, lsl #8
    1bec:	00023800 	andeq	r3, r2, r0, lsl #16
    1bf0:	fc100000 	ldc2	0, cr0, [r0], {-0}
    1bf4:	01000005 	tsteq	r0, r5
    1bf8:	002c0a04 	eoreq	r0, ip, r4, lsl #20
    1bfc:	8b9c0000 	blhi	fe701c04 <__bss_end__+0xfe6f7fa4>
    1c00:	00140000 	andseq	r0, r4, r0
    1c04:	9c010000 	stcls	0, cr0, [r1], {-0}
    1c08:	00000238 	andeq	r0, r0, r8, lsr r2
    1c0c:	008ba80b 	addeq	sl, fp, fp, lsl #16
    1c10:	00024400 	andeq	r4, r2, r0, lsl #8
    1c14:	50010c00 	andpl	r0, r1, r0, lsl #24
    1c18:	30040c05 	andcc	r0, r4, r5, lsl #24
    1c1c:	00002000 	andeq	r2, r0, r0
    1c20:	0005b411 	andeq	fp, r5, r1, lsl r4
    1c24:	0005b400 	andeq	fp, r5, r0, lsl #8
    1c28:	06a10200 	strteq	r0, [r1], r0, lsl #4
    1c2c:	0005de11 	andeq	sp, r5, r1, lsl lr
    1c30:	0005de00 	andeq	sp, r5, r0, lsl #28
    1c34:	0ac70200 	beq	ff1c243c <__bss_end__+0xff1b87dc>
    1c38:	0005cd00 	andeq	ip, r5, r0, lsl #26
    1c3c:	19000400 	stmdbne	r0, {sl}
    1c40:	0400000c 	streq	r0, [r0], #-12
    1c44:	00070f01 	andeq	r0, r7, r1, lsl #30
    1c48:	064e0c00 	strbeq	r0, [lr], -r0, lsl #24
    1c4c:	06bf0000 	ldrteq	r0, [pc], r0
    1c50:	8c200000 	stchi	0, cr0, [r0], #-0
    1c54:	01f00000 	mvnseq	r0, r0
    1c58:	107e0000 	rsbsne	r0, lr, r0
    1c5c:	04020000 	streq	r0, [r2], #-0
    1c60:	746e6905 	strbtvc	r6, [lr], #-2309	; 0xfffff6fb
    1c64:	07040300 	streq	r0, [r4, -r0, lsl #6]
    1c68:	0000006b 	andeq	r0, r0, fp, rrx
    1c6c:	00002c04 	andeq	r2, r0, r4, lsl #24
    1c70:	06010300 	streq	r0, [r1], -r0, lsl #6
    1c74:	0000000a 	andeq	r0, r0, sl
    1c78:	ef050203 	svc	0x00050203
    1c7c:	03000000 	movweq	r0, #0
    1c80:	007d0504 	rsbseq	r0, sp, r4, lsl #10
    1c84:	08030000 	stmdaeq	r3, {}	; <UNPREDICTABLE>
    1c88:	00007805 	andeq	r7, r0, r5, lsl #16
    1c8c:	08010300 	stmdaeq	r1, {r8, r9}
    1c90:	00000008 	andeq	r0, r0, r8
    1c94:	23070203 	movwcs	r0, #29187	; 0x7203
    1c98:	05000000 	streq	r0, [r0, #-0]
    1c9c:	0000040c 	andeq	r0, r0, ip, lsl #8
    1ca0:	6e193405 	cfmulsvs	mvf3, mvf9, mvf5
    1ca4:	03000000 	movweq	r0, #0
    1ca8:	00660704 	rsbeq	r0, r6, r4, lsl #14
    1cac:	08030000 	stmdaeq	r3, {}	; <UNPREDICTABLE>
    1cb0:	00006107 	andeq	r6, r0, r7, lsl #2
    1cb4:	08010300 	stmdaeq	r1, {r8, r9}
    1cb8:	00000011 	andeq	r0, r0, r1, lsl r0
    1cbc:	54010706 	strpl	r0, [r1], #-1798	; 0xfffff8fa
    1cc0:	04000000 	streq	r0, [r0], #-0
    1cc4:	00c20e0c 	sbceq	r0, r2, ip, lsl #28
    1cc8:	f9070000 			; <UNDEFINED> instruction: 0xf9070000
    1ccc:	00000007 	andeq	r0, r0, r7
    1cd0:	00063107 	andeq	r3, r6, r7, lsl #2
    1cd4:	74070100 	strvc	r0, [r7], #-256	; 0xffffff00
    1cd8:	04000006 	streq	r0, [r0], #-6
    1cdc:	00068307 	andeq	r8, r6, r7, lsl #6
    1ce0:	92070500 	andls	r0, r7, #0, 10
    1ce4:	06000006 	streq	r0, [r0], -r6
    1ce8:	0006a107 	andeq	sl, r6, r7, lsl #2
    1cec:	c2070700 	andgt	r0, r7, #0, 14
    1cf0:	03000007 	movweq	r0, #7
    1cf4:	0006b007 	andeq	fp, r6, r7
    1cf8:	08000200 	stmdaeq	r0, {r9}
    1cfc:	00000642 	andeq	r0, r0, r2, asr #12
    1d00:	0806022c 	stmdaeq	r6, {r2, r3, r5, r9}
    1d04:	0000015e 	andeq	r0, r0, lr, asr r1
    1d08:	006f6909 	rsbeq	r6, pc, r9, lsl #18
    1d0c:	33090902 	movwcc	r0, #39170	; 0x9902
    1d10:	00000000 	andeq	r0, r0, r0
    1d14:	72656909 	rsbvc	r6, r5, #147456	; 0x24000
    1d18:	090a0200 	stmdbeq	sl, {r9}
    1d1c:	00000033 	andeq	r0, r0, r3, lsr r0
    1d20:	69690904 	stmdbvs	r9!, {r2, r8, fp}^
    1d24:	11020072 	tstne	r2, r2, ror r0
    1d28:	00003309 	andeq	r3, r0, r9, lsl #6
    1d2c:	6c090800 	stcvs	8, cr0, [r9], {-0}
    1d30:	02007263 	andeq	r7, r0, #805306374	; 0x30000006
    1d34:	00330913 	eorseq	r0, r3, r3, lsl r9
    1d38:	090c0000 	stmdbeq	ip, {}	; <UNPREDICTABLE>
    1d3c:	0072636d 	rsbseq	r6, r2, sp, ror #6
    1d40:	33091402 	movwcc	r1, #37890	; 0x9402
    1d44:	10000000 	andne	r0, r0, r0
    1d48:	72736c09 	rsbsvc	r6, r3, #2304	; 0x900
    1d4c:	09150200 	ldmdbeq	r5, {r9}
    1d50:	00000033 	andeq	r0, r0, r3, lsr r0
    1d54:	736d0914 	cmnvc	sp, #20, 18	; 0x50000
    1d58:	16020072 			; <UNDEFINED> instruction: 0x16020072
    1d5c:	00003309 	andeq	r3, r0, r9, lsl #6
    1d60:	d90a1800 	stmdble	sl, {fp, ip}
    1d64:	02000007 	andeq	r0, r0, #7, 0
    1d68:	00330917 	eorseq	r0, r3, r7, lsl r9
    1d6c:	0a1c0000 	beq	701d74 <__bss_end__+0x6f8114>
    1d70:	000007a2 	andeq	r0, r0, r2, lsr #15
    1d74:	33091b02 	movwcc	r1, #39682	; 0x9b02
    1d78:	20000000 	andcs	r0, r0, r0
    1d7c:	00061e0a 	andeq	r1, r6, sl, lsl #28
    1d80:	091d0200 	ldmdbeq	sp, {r9}
    1d84:	00000033 	andeq	r0, r0, r3, lsr r0
    1d88:	06f40a24 	ldrbteq	r0, [r4], r4, lsr #20
    1d8c:	1e020000 	cdpne	0, 0, cr0, cr2, cr0, {0}
    1d90:	00003309 	andeq	r3, r0, r9, lsl #6
    1d94:	0b002800 	bleq	bd9c <__bss_end__+0x213c>
    1d98:	000006f9 	strdeq	r0, [r0], -r9
    1d9c:	74090801 	strvc	r0, [r9], #-2049	; 0xfffff7ff
    1da0:	04000001 	streq	r0, [r0], #-1
    1da4:	0c202150 	stfeqs	f2, [r0], #-320	; 0xfffffec0
    1da8:	00003304 	andeq	r3, r0, r4, lsl #6
    1dac:	016e0d00 	cmneq	lr, r0, lsl #26
    1db0:	e10b0000 	mrs	r0, (UNDEF: 11)
    1db4:	01000007 	tsteq	r0, r7
    1db8:	018f2329 	orreq	r2, pc, r9, lsr #6
    1dbc:	50400000 	subpl	r0, r0, r0
    1dc0:	040c2021 	streq	r2, [ip], #-33	; 0xffffffdf
    1dc4:	000000c2 	andeq	r0, r0, r2, asr #1
    1dc8:	0001890d 	andeq	r8, r1, sp, lsl #18
    1dcc:	04cc0e00 	strbeq	r0, [ip], #3584	; 0xe00
    1dd0:	cc010000 	stcgt	0, cr0, [r1], {-0}
    1dd4:	008dd806 	addeq	sp, sp, r6, lsl #16
    1dd8:	00001400 	andeq	r1, r0, r0, lsl #8
    1ddc:	b49c0100 	ldrlt	r0, [ip], #256	; 0x100
    1de0:	0f000001 	svceq	0x00000001
    1de4:	00008de0 	andeq	r8, r0, r0, ror #27
    1de8:	000001b4 			; <UNDEFINED> instruction: 0x000001b4
    1dec:	06631000 	strbteq	r1, [r3], -r0
    1df0:	b6010000 	strlt	r0, [r1], -r0
    1df4:	00002505 	andeq	r2, r0, r5, lsl #10
    1df8:	008db800 	addeq	fp, sp, r0, lsl #16
    1dfc:	00002000 	andeq	r2, r0, r0
    1e00:	eb9c0100 	bl	fe702208 <__bss_end__+0xfe6f85a8>
    1e04:	0f000001 	svceq	0x00000001
    1e08:	00008dc0 	andeq	r8, r0, r0, asr #27
    1e0c:	000005a0 	andeq	r0, r0, r0, lsr #11
    1e10:	008dc811 	addeq	ip, sp, r1, lsl r8
    1e14:	0005ac00 	andeq	sl, r5, r0, lsl #24
    1e18:	50011200 	andpl	r1, r1, r0, lsl #4
    1e1c:	50640c05 	rsbpl	r0, r4, r5, lsl #24
    1e20:	00002021 	andeq	r2, r0, r1, lsr #32
    1e24:	0007b410 	andeq	fp, r7, r0, lsl r4
    1e28:	05b30100 	ldreq	r0, [r3, #256]!	; 0x100
    1e2c:	00000025 	andeq	r0, r0, r5, lsr #32
    1e30:	00008da8 	andeq	r8, r0, r8, lsr #27
    1e34:	00000010 	andeq	r0, r0, r0, lsl r0
    1e38:	02189c01 	andseq	r9, r8, #256	; 0x100
    1e3c:	b00f0000 	andlt	r0, pc, r0
    1e40:	a000008d 	andge	r0, r0, sp, lsl #1
    1e44:	0f000005 	svceq	0x00000005
    1e48:	00008db4 			; <UNDEFINED> instruction: 0x00008db4
    1e4c:	00000309 	andeq	r0, r0, r9, lsl #6
    1e50:	07ef0e00 	strbeq	r0, [pc, r0, lsl #28]!
    1e54:	ab010000 	blge	41e5c <__bss_end__+0x381fc>
    1e58:	008d7806 	addeq	r7, sp, r6, lsl #16
    1e5c:	00003000 	andeq	r3, r0, r0
    1e60:	7c9c0100 	ldfvcs	f0, [ip], {0}
    1e64:	13000002 	movwne	r0, #2
    1e68:	ab010063 	blge	41ffc <__bss_end__+0x3839c>
    1e6c:	00002c19 	andeq	r2, r0, r9, lsl ip
    1e70:	000ccf00 	andeq	ip, ip, r0, lsl #30
    1e74:	000ccb00 	andeq	ip, ip, r0, lsl #22
    1e78:	8d840f00 	stchi	15, cr0, [r4]
    1e7c:	05a00000 	streq	r0, [r0, #0]!
    1e80:	880f0000 	stmdahi	pc, {}	; <UNPREDICTABLE>
    1e84:	db00008d 	blle	20c0 <__code_start__-0x5f40>
    1e88:	14000002 	strne	r0, [r0], #-2
    1e8c:	00008d9c 	muleq	r0, ip, sp
    1e90:	000005b8 			; <UNDEFINED> instruction: 0x000005b8
    1e94:	00000272 	andeq	r0, r0, r2, ror r2
    1e98:	05500112 	ldrbeq	r0, [r0, #-274]	; 0xfffffeee
    1e9c:	2150400c 	cmpcs	r0, ip
    1ea0:	51011220 	tstpl	r1, r0, lsr #4
    1ea4:	08007405 	stmdaeq	r0, {r0, r2, sl, ip, sp, lr}
    1ea8:	0f001aff 	svceq	0x00001aff
    1eac:	00008da0 	andeq	r8, r0, r0, lsr #27
    1eb0:	000005a0 	andeq	r0, r0, r0, lsr #11
    1eb4:	07051000 	streq	r1, [r5, -r0]
    1eb8:	a3010000 	movwge	r0, #4096	; 0x1000
    1ebc:	00002505 	andeq	r2, r0, r5, lsl #10
    1ec0:	008d4800 	addeq	r4, sp, r0, lsl #16
    1ec4:	00003000 	andeq	r3, r0, r0
    1ec8:	db9c0100 	blle	fe7022d0 <__bss_end__+0xfe6f8670>
    1ecc:	15000002 	strne	r0, [r0, #-2]
    1ed0:	a7010063 	strge	r0, [r1, -r3, rrx]
    1ed4:	00002509 	andeq	r2, r0, r9, lsl #10
    1ed8:	000cef00 	andeq	lr, ip, r0, lsl #30
    1edc:	000ced00 	andeq	lr, ip, r0, lsl #26
    1ee0:	8d500f00 	ldclhi	15, cr0, [r0, #-0]
    1ee4:	05a00000 	streq	r0, [r0, #0]!
    1ee8:	540f0000 	strpl	r0, [pc], #-0	; 1ef0 <__code_start__-0x6110>
    1eec:	0900008d 	stmdbeq	r0, {r0, r2, r3, r7}
    1ef0:	14000003 	strne	r0, [r0], #-3
    1ef4:	00008d64 	andeq	r8, r0, r4, ror #26
    1ef8:	000005ac 	andeq	r0, r0, ip, lsr #11
    1efc:	000002d1 	ldrdeq	r0, [r0], -r1
    1f00:	05500112 	ldrbeq	r0, [r0, #-274]	; 0xfffffeee
    1f04:	2150400c 	cmpcs	r0, ip
    1f08:	6c0f0020 	stcvs	0, cr0, [pc], {32}
    1f0c:	a000008d 	andge	r0, r0, sp, lsl #1
    1f10:	00000005 	andeq	r0, r0, r5
    1f14:	00065510 	andeq	r5, r6, r0, lsl r5
    1f18:	05940100 	ldreq	r0, [r4, #256]	; 0x100
    1f1c:	00000025 	andeq	r0, r0, r5, lsr #32
    1f20:	00008d28 	andeq	r8, r0, r8, lsr #26
    1f24:	00000020 	andeq	r0, r0, r0, lsr #32
    1f28:	03099c01 	movweq	r9, #39937	; 0x9c01
    1f2c:	34110000 	ldrcc	r0, [r1], #-0
    1f30:	ac00008d 	stcge	0, cr0, [r0], {141}	; 0x8d
    1f34:	12000005 	andne	r0, r0, #5, 0
    1f38:	0c055001 	stceq	0, cr5, [r5], {1}
    1f3c:	20215064 	eorcs	r5, r1, r4, rrx
    1f40:	23100000 	tstcs	r0, #0, 0
    1f44:	01000006 	tsteq	r0, r6
    1f48:	0025058b 	eoreq	r0, r5, fp, lsl #11
    1f4c:	8d100000 	ldchi	0, cr0, [r0, #-0]
    1f50:	00180000 	andseq	r0, r8, r0
    1f54:	9c010000 	stcls	0, cr0, [r1], {-0}
    1f58:	00000337 	andeq	r0, r0, r7, lsr r3
    1f5c:	008d1c11 	addeq	r1, sp, r1, lsl ip
    1f60:	0005ac00 	andeq	sl, r5, r0, lsl #24
    1f64:	50011200 	andpl	r1, r1, r0, lsl #4
    1f68:	50640c05 	rsbpl	r0, r4, r5, lsl #24
    1f6c:	00002021 	andeq	r2, r0, r1, lsr #32
    1f70:	0004ea0e 	andeq	lr, r4, lr, lsl #20
    1f74:	06450100 	strbeq	r0, [r5], -r0, lsl #2
    1f78:	00008c60 	andeq	r8, r0, r0, ror #24
    1f7c:	000000b0 	strheq	r0, [r0], -r0	; <UNPREDICTABLE>
    1f80:	04849c01 	streq	r9, [r4], #3073	; 0xc01
    1f84:	15160000 	ldrne	r0, [r6, #-0]
    1f88:	01000006 	tsteq	r0, r6
    1f8c:	00620e7e 	rsbeq	r0, r2, lr, ror lr
    1f90:	010e0000 	mrseq	r0, (UNDEF: 14)
    1f94:	008c7014 	addeq	r7, ip, r4, lsl r0
    1f98:	0005c400 	andeq	ip, r5, r0, lsl #8
    1f9c:	00037300 	andeq	r7, r3, r0, lsl #6
    1fa0:	50011200 	andpl	r1, r1, r0, lsl #4
    1fa4:	01123e01 	tsteq	r2, r1, lsl #28
    1fa8:	00320151 	eorseq	r0, r2, r1, asr r1
    1fac:	008c7c14 	addeq	r7, ip, r4, lsl ip
    1fb0:	0005c400 	andeq	ip, r5, r0, lsl #8
    1fb4:	00038b00 	andeq	r8, r3, r0, lsl #22
    1fb8:	50011200 	andpl	r1, r1, r0, lsl #4
    1fbc:	01123f01 	tsteq	r2, r1, lsl #30
    1fc0:	00320151 	eorseq	r0, r2, r1, asr r1
    1fc4:	008c800f 	addeq	r8, ip, pc
    1fc8:	0005a000 	andeq	sl, r5, r0
    1fcc:	8c8c1400 	cfstrshi	mvf1, [ip], {0}
    1fd0:	053d0000 	ldreq	r0, [sp, #-0]!
    1fd4:	03b00000 	movseq	r0, #0, 0
    1fd8:	01120000 	tsteq	r2, r0
    1fdc:	040c0550 	streq	r0, [ip], #-1360	; 0xfffffab0
    1fe0:	12202150 	eorne	r2, r0, #20
    1fe4:	31015101 	tstcc	r1, r1, lsl #2
    1fe8:	8c900f00 	ldchi	15, cr0, [r0], {0}
    1fec:	05a00000 	streq	r0, [r0, #0]!
    1ff0:	a0140000 	andsge	r0, r4, r0
    1ff4:	b800008c 	stmdalt	r0, {r2, r3, r7}
    1ff8:	d2000005 	andle	r0, r0, #5, 0
    1ffc:	12000003 	andne	r0, r0, #3, 0
    2000:	74025001 	strvc	r5, [r2], #-1
    2004:	51011200 	mrspl	r1, R9_usr
    2008:	14003001 	strne	r3, [r0], #-1
    200c:	00008cac 	andeq	r8, r0, ip, lsr #25
    2010:	000005b8 			; <UNDEFINED> instruction: 0x000005b8
    2014:	000003ee 	andeq	r0, r0, lr, ror #7
    2018:	05500112 	ldrbeq	r0, [r0, #-274]	; 0xfffffeee
    201c:	2150440c 	cmpcs	r0, ip, lsl #8
    2020:	51011220 	tstpl	r1, r0, lsr #4
    2024:	14003001 	strne	r3, [r0], #-1
    2028:	00008cb8 			; <UNDEFINED> instruction: 0x00008cb8
    202c:	000005b8 			; <UNDEFINED> instruction: 0x000005b8
    2030:	0000040a 	andeq	r0, r0, sl, lsl #8
    2034:	05500112 	ldrbeq	r0, [r0, #-274]	; 0xfffffeee
    2038:	21504c0c 	cmpcs	r0, ip, lsl #24
    203c:	51011220 	tstpl	r1, r0, lsr #4
    2040:	14003301 	strne	r3, [r0], #-769	; 0xfffffcff
    2044:	00008cc4 	andeq	r8, r0, r4, asr #25
    2048:	000005b8 			; <UNDEFINED> instruction: 0x000005b8
    204c:	00000426 	andeq	r0, r0, r6, lsr #8
    2050:	05500112 	ldrbeq	r0, [r0, #-274]	; 0xfffffeee
    2054:	2150500c 	cmpcs	r0, ip
    2058:	51011220 	tstpl	r1, r0, lsr #4
    205c:	14003001 	strne	r3, [r0], #-1
    2060:	00008cd0 	ldrdeq	r8, [r0], -r0
    2064:	000005b8 			; <UNDEFINED> instruction: 0x000005b8
    2068:	00000443 	andeq	r0, r0, r3, asr #8
    206c:	05500112 	ldrbeq	r0, [r0, #-274]	; 0xfffffeee
    2070:	2150480c 	cmpcs	r0, ip, lsl #16
    2074:	51011220 	tstpl	r1, r0, lsr #4
    2078:	00c70802 	sbceq	r0, r7, r2, lsl #16
    207c:	008cdc14 	addeq	sp, ip, r4, lsl ip
    2080:	0005b800 	andeq	fp, r5, r0, lsl #16
    2084:	00046100 	andeq	r6, r4, r0, lsl #2
    2088:	50011200 	andpl	r1, r1, r0, lsl #4
    208c:	50680c05 	rsbpl	r0, r8, r5, lsl #24
    2090:	01122021 	tsteq	r2, r1, lsr #32
    2094:	0e0a0351 	mcreq	3, 0, r0, cr10, cr1, {2}
    2098:	e8140001 	ldmda	r4, {r0}
    209c:	b800008c 	stmdalt	r0, {r2, r3, r7}
    20a0:	7a000005 	bvc	20bc <__code_start__-0x5f44>
    20a4:	12000004 	andne	r0, r0, #4, 0
    20a8:	74025001 	strvc	r5, [r2], #-1
    20ac:	51011200 	mrspl	r1, R9_usr
    20b0:	0f003301 	svceq	0x00003301
    20b4:	00008cec 	andeq	r8, r0, ip, ror #25
    20b8:	000005a0 	andeq	r0, r0, r0, lsr #11
    20bc:	07a70e00 	streq	r0, [r7, r0, lsl #28]!
    20c0:	35010000 	strcc	r0, [r1, #-0]
    20c4:	008dec06 	addeq	lr, sp, r6, lsl #24
    20c8:	00002400 	andeq	r2, r0, r0, lsl #8
    20cc:	d39c0100 	orrsle	r0, ip, #0
    20d0:	0f000004 	svceq	0x00000004
    20d4:	00008df4 	strdeq	r8, [r0], -r4
    20d8:	00000194 	muleq	r0, r4, r1
    20dc:	008df80f 	addeq	pc, sp, pc, lsl #16
    20e0:	0005a000 	andeq	sl, r5, r0
    20e4:	8e041400 	cfcpyshi	mvf1, mvf4
    20e8:	04d30000 	ldrbeq	r0, [r3], #0
    20ec:	04c90000 	strbeq	r0, [r9], #0
    20f0:	01120000 	tsteq	r2, r0
    20f4:	040c0550 	streq	r0, [ip], #-1360	; 0xfffffab0
    20f8:	12202150 	eorne	r2, r0, #20
    20fc:	09025101 	stmdbeq	r2, {r0, r8, ip, lr}
    2100:	080f00fe 	stmdaeq	pc, {r1, r2, r3, r4, r5, r6, r7}	; <UNPREDICTABLE>
    2104:	a000008e 	andge	r0, r0, lr, lsl #1
    2108:	00000005 	andeq	r0, r0, r5
    210c:	0007e617 	andeq	lr, r7, r7, lsl r6
    2110:	0d310100 	ldfeqs	f0, [r1, #-0]
    2114:	00008c20 	andeq	r8, r0, r0, lsr #24
    2118:	00000020 	andeq	r0, r0, r0, lsr #32
    211c:	05369c01 	ldreq	r9, [r6, #-3073]!	; 0xfffff3ff
    2120:	40180000 	andsmi	r0, r8, r0
    2124:	01000008 	tsteq	r0, r8
    2128:	05362531 	ldreq	r2, [r6, #-1329]!	; 0xfffffacf
    212c:	0d060000 	stceq	0, cr0, [r6, #-0]
    2130:	0d020000 	stceq	0, cr0, [r2, #-0]
    2134:	76130000 	ldrvc	r0, [r3], -r0
    2138:	01006c61 	tsteq	r0, r1, ror #24
    213c:	002c3431 	eoreq	r3, ip, r1, lsr r4
    2140:	0d280000 	stceq	0, cr0, [r8, #-0]
    2144:	0d240000 	stceq	0, cr0, [r4, #-0]
    2148:	30140000 	andscc	r0, r4, r0
    214c:	ac00008c 	stcge	0, cr0, [r0], {140}	; 0x8c
    2150:	25000005 	strcs	r0, [r0, #-5]
    2154:	12000005 	andne	r0, r0, #5, 0
    2158:	74025001 	strvc	r5, [r2], #-1
    215c:	3c110000 	ldccc	0, cr0, [r1], {-0}
    2160:	b800008c 	stmdalt	r0, {r2, r3, r7}
    2164:	12000005 	andne	r0, r0, #5, 0
    2168:	74025001 	strvc	r5, [r2], #-1
    216c:	0c000000 	stceq	0, cr0, [r0], {-0}
    2170:	00053c04 	andeq	r3, r5, r4, lsl #24
    2174:	d1171900 	tstle	r7, r0, lsl #18
    2178:	01000007 	tsteq	r0, r7
    217c:	8c400d2e 	mcrrhi	13, 2, r0, r0, cr14
    2180:	00200000 	eoreq	r0, r0, r0
    2184:	9c010000 	stcls	0, cr0, [r1], {-0}
    2188:	000005a0 	andeq	r0, r0, r0, lsr #11
    218c:	00084018 	andeq	r4, r8, r8, lsl r0
    2190:	242e0100 	strtcs	r0, [lr], #-256	; 0xffffff00
    2194:	00000536 	andeq	r0, r0, r6, lsr r5
    2198:	00000d4a 	andeq	r0, r0, sl, asr #26
    219c:	00000d46 	andeq	r0, r0, r6, asr #26
    21a0:	6c617613 	stclvs	6, cr7, [r1], #-76	; 0xffffffb4
    21a4:	332e0100 			; <UNDEFINED> instruction: 0x332e0100
    21a8:	0000002c 	andeq	r0, r0, ip, lsr #32
    21ac:	00000d6c 	andeq	r0, r0, ip, ror #26
    21b0:	00000d68 	andeq	r0, r0, r8, ror #26
    21b4:	008c5014 	addeq	r5, ip, r4, lsl r0
    21b8:	0005ac00 	andeq	sl, r5, r0, lsl #24
    21bc:	00058f00 	andeq	r8, r5, r0, lsl #30
    21c0:	50011200 	andpl	r1, r1, r0, lsl #4
    21c4:	00007402 	andeq	r7, r0, r2, lsl #8
    21c8:	008c5c11 	addeq	r5, ip, r1, lsl ip
    21cc:	0005b800 	andeq	fp, r5, r0, lsl #16
    21d0:	50011200 	andpl	r1, r1, r0, lsl #4
    21d4:	00007402 	andeq	r7, r0, r2, lsl #8
    21d8:	05b41a00 	ldreq	r1, [r4, #2560]!	; 0xa00
    21dc:	05b40000 	ldreq	r0, [r4, #0]!
    21e0:	a1030000 	mrsge	r0, (UNDEF: 3)
    21e4:	081b1a06 	ldmdaeq	fp, {r1, r2, r9, fp, ip}
    21e8:	081b0000 	ldmdaeq	fp, {}	; <UNPREDICTABLE>
    21ec:	c8030000 	stmdagt	r3, {}	; <UNPREDICTABLE>
    21f0:	060f1a0b 	streq	r1, [pc], -fp, lsl #20
    21f4:	060f0000 	streq	r0, [pc], -r0
    21f8:	b3030000 	movwlt	r0, #12288	; 0x3000
    21fc:	08091a06 	stmdaeq	r9, {r1, r2, r9, fp, ip}
    2200:	08090000 	stmdaeq	r9, {}	; <UNPREDICTABLE>
    2204:	19040000 	stmdbne	r4, {}	; <UNPREDICTABLE>
    2208:	08e90006 	stmiaeq	r9!, {r1, r2}^
    220c:	00040000 	andeq	r0, r4, r0
    2210:	00000db1 			; <UNDEFINED> instruction: 0x00000db1
    2214:	070f0104 	streq	r0, [pc, -r4, lsl #2]
    2218:	c40c0000 	strgt	r0, [ip], #-0
    221c:	bf000008 	svclt	0x00000008
    2220:	10000006 	andne	r0, r0, r6
    2224:	b000008e 	andlt	r0, r0, lr, lsl #1
    2228:	87000003 	strhi	r0, [r0, -r3]
    222c:	02000012 	andeq	r0, r0, #18, 0
    2230:	6e690504 	cdpvs	5, 6, cr0, cr9, cr4, {0}
    2234:	04030074 	streq	r0, [r3], #-116	; 0xffffff8c
    2238:	00006b07 	andeq	r6, r0, r7, lsl #22
    223c:	06010300 	streq	r0, [r1], -r0, lsl #6
    2240:	0000000a 	andeq	r0, r0, sl
    2244:	ef050203 	svc	0x00050203
    2248:	03000000 	movweq	r0, #0
    224c:	007d0504 	rsbseq	r0, sp, r4, lsl #10
    2250:	08030000 	stmdaeq	r3, {}	; <UNPREDICTABLE>
    2254:	00007805 	andeq	r7, r0, r5, lsl #16
    2258:	08010300 	stmdaeq	r1, {r8, r9}
    225c:	00000008 	andeq	r0, r0, r8
    2260:	23070203 	movwcs	r0, #29187	; 0x7203
    2264:	04000000 	streq	r0, [r0], #-0
    2268:	0000040c 	andeq	r0, r0, ip, lsl #8
    226c:	69193403 	ldmdbvs	r9, {r0, r1, sl, ip, sp}
    2270:	03000000 	movweq	r0, #0
    2274:	00660704 	rsbeq	r0, r6, r4, lsl #14
    2278:	08030000 	stmdaeq	r3, {}	; <UNPREDICTABLE>
    227c:	00006107 	andeq	r6, r0, r7, lsl #2
    2280:	08010300 	stmdaeq	r1, {r8, r9}
    2284:	00000011 	andeq	r0, r0, r1, lsl r0
    2288:	00007705 	andeq	r7, r0, r5, lsl #14
    228c:	04080300 	streq	r0, [r8], #-768	; 0xfffffd00
    2290:	00000036 	andeq	r0, r0, r6, lsr r0
    2294:	07070406 	streq	r0, [r7, -r6, lsl #8]
    2298:	00002c04 	andeq	r2, r0, r4, lsl #24
    229c:	061f0100 	ldreq	r0, [pc], -r0, lsl #2
    22a0:	000000a4 	andeq	r0, r0, r4, lsr #1
    22a4:	00084b08 	andeq	r4, r8, r8, lsl #22
    22a8:	20000000 	andcs	r0, r0, r0
    22ac:	fd090000 	stc2	0, cr0, [r9, #-0]
    22b0:	01000003 	tsteq	r0, r3
    22b4:	00770d22 	rsbseq	r0, r7, r2, lsr #26
    22b8:	660a0000 	strvs	r0, [sl], -r0
    22bc:	01000008 	tsteq	r0, r8
    22c0:	00c20e23 	sbceq	r0, r2, r3, lsr #28
    22c4:	03050000 	movweq	r0, #20480	; 0x5000
    22c8:	0000983c 	andeq	r9, r0, ip, lsr r8
    22cc:	0077040b 	rsbseq	r0, r7, fp, lsl #8
    22d0:	290a0000 	stmdbcs	sl, {}	; <UNPREDICTABLE>
    22d4:	01000008 	tsteq	r0, r8
    22d8:	00c20e24 	sbceq	r0, r2, r4, lsr #28
    22dc:	03050000 	movweq	r0, #20480	; 0x5000
    22e0:	00009838 	andeq	r9, r0, r8, lsr r8
    22e4:	0008a30a 	andeq	sl, r8, sl, lsl #6
    22e8:	0e250100 	sufeqs	f0, f5, f0
    22ec:	000000c2 	andeq	r0, r0, r2, asr #1
    22f0:	98340305 	ldmdals	r4!, {r0, r2, r8, r9}
    22f4:	720c0000 	andvc	r0, ip, #0, 0
    22f8:	01000008 	tsteq	r0, r8
    22fc:	91600675 	smcls	101	; 0x65
    2300:	00600000 	rsbeq	r0, r0, r0
    2304:	9c010000 	stcls	0, cr0, [r1], {-0}
    2308:	00000164 	andeq	r0, r0, r4, ror #2
    230c:	0100700d 	tsteq	r0, sp
    2310:	008a1675 	addeq	r1, sl, r5, ror r6
    2314:	0d900000 	ldceq	0, cr0, [r0]
    2318:	0d8a0000 	stceq	0, cr0, [sl]
    231c:	3d0e0000 	stccc	0, cr0, [lr, #-0]
    2320:	74000000 	strvc	r0, [r0], #-0
    2324:	05000001 	streq	r0, [r0, #-1]
    2328:	00982403 	addseq	r2, r8, r3, lsl #8
    232c:	91ac0f00 			; <UNDEFINED> instruction: 0x91ac0f00
    2330:	08bc0000 	ldmeq	ip!, {}	; <UNPREDICTABLE>
    2334:	015a0000 	cmpeq	sl, r0
    2338:	01100000 	tsteq	r0, r0
    233c:	9c030550 	cfstr32ls	mvfx0, [r3], {80}	; 0x50
    2340:	10000097 	mulne	r0, r7, r0
    2344:	03055101 	movweq	r5, #20737	; 0x5101
    2348:	00009634 	andeq	r9, r0, r4, lsr r6
    234c:	05520110 	ldrbeq	r0, [r2, #-272]	; 0xfffffef0
    2350:	00982403 	addseq	r2, r8, r3, lsl #8
    2354:	53011000 	movwpl	r1, #4096	; 0x1000
    2358:	10770802 	rsbsne	r0, r7, r2, lsl #16
    235c:	03007d02 	movweq	r7, #3330	; 0xd02
    2360:	005001f3 	ldrsheq	r0, [r0], #-19	; 0xffffffed
    2364:	0091b011 	addseq	fp, r1, r1, lsl r0
    2368:	0008c800 	andeq	ip, r8, r0, lsl #16
    236c:	7e120000 	cdpvc	0, 1, cr0, cr2, cr0, {0}
    2370:	74000000 	strvc	r0, [r0], #-0
    2374:	13000001 	movwne	r0, #1
    2378:	0000002c 	andeq	r0, r0, ip, lsr #32
    237c:	64050009 	strvs	r0, [r5], #-9
    2380:	14000001 	strne	r0, [r0], #-1
    2384:	00000854 	andeq	r0, r0, r4, asr r8
    2388:	4c067201 	sfmmi	f7, 4, [r6], {1}
    238c:	14000091 	strne	r0, [r0], #-145	; 0xffffff6f
    2390:	01000000 	mrseq	r0, (UNDEF: 0)
    2394:	08450c9c 	stmdaeq	r5, {r2, r3, r4, r7, sl, fp}^
    2398:	6f010000 	svcvs	0x00010000
    239c:	00914806 	addseq	r4, r1, r6, lsl #16
    23a0:	00000400 	andeq	r0, r0, r0, lsl #8
    23a4:	ae9c0100 	fmlgee	f0, f4, f0
    23a8:	15000001 	strne	r0, [r0, #-1]
    23ac:	6f010070 	svcvs	0x00010070
    23b0:	00008a12 	andeq	r8, r0, r2, lsl sl
    23b4:	00500100 	subseq	r0, r0, r0, lsl #2
    23b8:	00091d16 	andeq	r1, r9, r6, lsl sp
    23bc:	075e0100 	ldrbeq	r0, [lr, -r0, lsl #2]
    23c0:	0000008a 	andeq	r0, r0, sl, lsl #1
    23c4:	00009030 	andeq	r9, r0, r0, lsr r0
    23c8:	00000118 	andeq	r0, r0, r8, lsl r1
    23cc:	042c9c01 	strteq	r9, [ip], #-3073	; 0xfffff3ff
    23d0:	38170000 	ldmdacc	r7, {}	; <UNPREDICTABLE>
    23d4:	01000008 	tsteq	r0, r8
    23d8:	002c205e 	eoreq	r2, ip, lr, asr r0
    23dc:	0dd10000 	ldcleq	0, cr0, [r1]
    23e0:	0dbd0000 	ldceq	0, cr0, [sp]
    23e4:	83170000 	tsthi	r7, #0, 0
    23e8:	01000008 	tsteq	r0, r8
    23ec:	002c315e 	eoreq	r3, ip, lr, asr r1
    23f0:	0e6a0000 	cdpeq	0, 6, cr0, cr10, cr0, {0}
    23f4:	0e560000 	cdpeq	0, 5, cr0, cr6, cr0, {0}
    23f8:	3d0e0000 	stccc	0, cr0, [lr, #-0]
    23fc:	3c000000 	stccc	0, cr0, [r0], {-0}
    2400:	05000004 	streq	r0, [r0, #-4]
    2404:	00980c03 	addseq	r0, r8, r3, lsl #24
    2408:	00681800 	rsbeq	r1, r8, r0, lsl #16
    240c:	2c0e6601 	stccs	6, cr6, [lr], {1}
    2410:	20000000 	andcs	r0, r0, r0
    2414:	1400000f 	strne	r0, [r0], #-15
    2418:	1900000f 	stmdbne	r0, {r0, r1, r2, r3}
    241c:	00000854 	andeq	r0, r0, r4, asr r8
    2420:	00009040 	andeq	r9, r0, r0, asr #32
    2424:	00904004 	addseq	r4, r0, r4
    2428:	00000400 	andeq	r0, r0, r0, lsl #8
    242c:	05600100 	strbeq	r0, [r0, #-256]!	; 0xffffff00
    2430:	00000238 	andeq	r0, r0, r8, lsr r2
    2434:	0008651a 	andeq	r6, r8, sl, lsl r5
    2438:	000f7400 	andeq	r7, pc, r0, lsl #8
    243c:	000f7200 	andeq	r7, pc, r0, lsl #4
    2440:	96190000 	ldrls	r0, [r9], -r0
    2444:	4c000008 	stcmi	0, cr0, [r0], {8}
    2448:	02000090 	andeq	r0, r0, #144, 0	; 0x90
    244c:	0000904c 	andeq	r9, r0, ip, asr #32
    2450:	00000008 	andeq	r0, r0, r8
    2454:	6c116101 	ldfvss	f6, [r1], {1}
    2458:	1a000002 	bne	2468 <__code_start__-0x5b98>
    245c:	000008b1 			; <UNDEFINED> instruction: 0x000008b1
    2460:	00000f89 	andeq	r0, r0, r9, lsl #31
    2464:	00000f87 	andeq	r0, r0, r7, lsl #31
    2468:	0008a71a 	andeq	sl, r8, sl, lsl r7
    246c:	000f9f00 	andeq	r9, pc, r0, lsl #30
    2470:	000f9d00 	andeq	r9, pc, r0, lsl #26
    2474:	1f1b0000 	svcne	0x001b0000
    2478:	5c000008 	stcpl	0, cr0, [r0], {8}
    247c:	01000090 	swpeq	r0, r0, [r0]	; <UNPREDICTABLE>
    2480:	00000040 	andeq	r0, r0, r0, asr #32
    2484:	0a096701 	beq	25c090 <__bss_end__+0x252430>
    2488:	1a000003 	bne	249c <__code_start__-0x5b64>
    248c:	0000083a 	andeq	r0, r0, sl, lsr r8
    2490:	00000fb8 			; <UNDEFINED> instruction: 0x00000fb8
    2494:	00000fb2 			; <UNDEFINED> instruction: 0x00000fb2
    2498:	0008301a 	andeq	r3, r8, sl, lsl r0
    249c:	000fff00 	andeq	pc, pc, r0, lsl #30
    24a0:	000ff700 	andeq	pc, pc, r0, lsl #14
    24a4:	00401c00 	subeq	r1, r0, r0, lsl #24
    24a8:	54190000 	ldrpl	r0, [r9], #-0
    24ac:	5c000008 	stcpl	0, cr0, [r0], {8}
    24b0:	04000090 	streq	r0, [r0], #-144	; 0xffffff70
    24b4:	0000905c 	andeq	r9, r0, ip, asr r0
    24b8:	00000004 	andeq	r0, r0, r4
    24bc:	c7051101 	strgt	r1, [r5, -r1, lsl #2]
    24c0:	1a000002 	bne	24d0 <__code_start__-0x5b30>
    24c4:	00000865 	andeq	r0, r0, r5, ror #16
    24c8:	0000103d 	andeq	r1, r0, sp, lsr r0
    24cc:	0000103b 	andeq	r1, r0, fp, lsr r0
    24d0:	90f40f00 	rscsls	r0, r4, r0, lsl #30
    24d4:	08bc0000 	ldmeq	ip!, {}	; <UNPREDICTABLE>
    24d8:	02ff0000 	rscseq	r0, pc, #0, 0
    24dc:	01100000 	tsteq	r0, r0
    24e0:	18030550 	stmdane	r3, {r4, r6, r8, sl}
    24e4:	10000094 	mulne	r0, r4, r0
    24e8:	03055101 	movweq	r5, #20737	; 0x5101
    24ec:	00009634 	andeq	r9, r0, r4, lsr r6
    24f0:	05520110 	ldrbeq	r0, [r2, #-272]	; 0xfffffef0
    24f4:	00981c03 	addseq	r1, r8, r3, lsl #24
    24f8:	53011000 	movwpl	r1, #4096	; 0x1000
    24fc:	02104101 	andseq	r4, r0, #1073741824	; 0x40000000
    2500:	0305007d 	movweq	r0, #20605	; 0x507d
    2504:	00009748 	andeq	r9, r0, r8, asr #14
    2508:	90f81100 	rscsls	r1, r8, r0, lsl #2
    250c:	08c80000 	stmiaeq	r8, {}^	; <UNPREDICTABLE>
    2510:	00000000 	andeq	r0, r0, r0
    2514:	00087019 	andeq	r7, r8, r9, lsl r0
    2518:	00907400 	addseq	r7, r0, r0, lsl #8
    251c:	90740300 	rsbsls	r0, r4, r0, lsl #6
    2520:	00040000 	andeq	r0, r4, r0
    2524:	68010000 	stmdavs	r1, {}	; <UNPREDICTABLE>
    2528:	00033e05 	andeq	r3, r3, r5, lsl #28
    252c:	088b1a00 	stmeq	fp, {r9, fp, ip}
    2530:	10520000 	subsne	r0, r2, r0
    2534:	10500000 	subsne	r0, r0, r0
    2538:	811a0000 	tsthi	sl, r0
    253c:	67000008 	strvs	r0, [r0, -r8]
    2540:	65000010 	strvs	r0, [r0, #-16]
    2544:	00000010 	andeq	r0, r0, r0, lsl r0
    2548:	00908c0f 	addseq	r8, r0, pc, lsl #24
    254c:	00044100 	andeq	r4, r4, r0, lsl #2
    2550:	00035300 	andeq	r5, r3, r0, lsl #6
    2554:	50011000 	andpl	r1, r1, r0
    2558:	5001f303 	andpl	pc, r1, r3, lsl #6
    255c:	90b00f00 	adcsls	r0, r0, r0, lsl #30
    2560:	08bc0000 	ldmeq	ip!, {}	; <UNPREDICTABLE>
    2564:	038c0000 	orreq	r0, ip, #0, 0
    2568:	01100000 	tsteq	r0, r0
    256c:	18030550 	stmdane	r3, {r4, r6, r8, sl}
    2570:	10000094 	mulne	r0, r4, r0
    2574:	03055101 	movweq	r5, #20737	; 0x5101
    2578:	00009634 	andeq	r9, r0, r4, lsr r6
    257c:	05520110 	ldrbeq	r0, [r2, #-272]	; 0xfffffef0
    2580:	00980c03 	addseq	r0, r8, r3, lsl #24
    2584:	53011000 	movwpl	r1, #4096	; 0x1000
    2588:	105f0802 	subsne	r0, pc, r2, lsl #16
    258c:	05007d02 	streq	r7, [r0, #-3330]	; 0xfffff2fe
    2590:	00964403 	addseq	r4, r6, r3, lsl #8
    2594:	b4110000 	ldrlt	r0, [r1], #-0
    2598:	c8000090 	stmdagt	r0, {r4, r7}
    259c:	11000008 	tstne	r0, r8
    25a0:	000090b8 	strheq	r9, [r0], -r8
    25a4:	000008d4 	ldrdeq	r0, [r0], -r4
    25a8:	0090d40f 	addseq	sp, r0, pc, lsl #8
    25ac:	0008bc00 	andeq	fp, r8, r0, lsl #24
    25b0:	0003d700 	andeq	sp, r3, r0, lsl #14
    25b4:	50011000 	andpl	r1, r1, r0
    25b8:	97000305 	strls	r0, [r0, -r5, lsl #6]
    25bc:	01100000 	tsteq	r0, r0
    25c0:	34030551 	strcc	r0, [r3], #-1361	; 0xfffffaaf
    25c4:	10000096 	mulne	r0, r6, r0
    25c8:	03055201 	movweq	r5, #20993	; 0x5201
    25cc:	0000980c 	andeq	r9, r0, ip, lsl #16
    25d0:	02530110 	subseq	r0, r3, #4
    25d4:	02106008 	andseq	r6, r0, #8, 0
    25d8:	0305007d 	movweq	r0, #20605	; 0x507d
    25dc:	00009734 	andeq	r9, r0, r4, lsr r7
    25e0:	90d81100 	sbcsls	r1, r8, r0, lsl #2
    25e4:	08c80000 	stmiaeq	r8, {}^	; <UNPREDICTABLE>
    25e8:	fc110000 	ldc2	0, cr0, [r1], {-0}
    25ec:	d4000090 	strle	r0, [r0], #-144	; 0xffffff70
    25f0:	0f000008 	svceq	0x00000008
    25f4:	00009118 	andeq	r9, r0, r8, lsl r1
    25f8:	000008bc 			; <UNDEFINED> instruction: 0x000008bc
    25fc:	00000422 	andeq	r0, r0, r2, lsr #8
    2600:	05500110 	ldrbeq	r0, [r0, #-272]	; 0xfffffef0
    2604:	00975403 	addseq	r5, r7, r3, lsl #8
    2608:	51011000 	mrspl	r1, (UNDEF: 1)
    260c:	96340305 	ldrtls	r0, [r4], -r5, lsl #6
    2610:	01100000 	tsteq	r0, r0
    2614:	0c030552 	cfstr32eq	mvfx0, [r3], {82}	; 0x52
    2618:	10000098 	mulne	r0, r8, r0
    261c:	08025301 	stmdaeq	r2, {r0, r8, r9, ip, lr}
    2620:	7d021068 	stcvc	0, cr1, [r2, #-416]	; 0xfffffe60
    2624:	80030500 	andhi	r0, r3, r0, lsl #10
    2628:	00000097 	muleq	r0, r7, r0
    262c:	00911c11 	addseq	r1, r1, r1, lsl ip
    2630:	0008c800 	andeq	ip, r8, r0, lsl #16
    2634:	7e120000 	cdpvc	0, 1, cr0, cr2, cr0, {0}
    2638:	3c000000 	stccc	0, cr0, [r0], {-0}
    263c:	13000004 	movwne	r0, #4
    2640:	0000002c 	andeq	r0, r0, ip, lsr #32
    2644:	2c05000f 	stccs	0, cr0, [r5], {15}
    2648:	16000004 	strne	r0, [r0], -r4
    264c:	00000218 	andeq	r0, r0, r8, lsl r2
    2650:	8a075301 	bhi	1d725c <__bss_end__+0x1cd5fc>
    2654:	cc000000 	stcgt	0, cr0, [r0], {-0}
    2658:	6400008f 	strvs	r0, [r0], #-143	; 0xffffff71
    265c:	01000000 	mrseq	r0, (UNDEF: 0)
    2660:	0005089c 	muleq	r5, ip, r8
    2664:	08381700 	ldmdaeq	r8!, {r8, r9, sl, ip}
    2668:	53010000 	movwpl	r0, #4096	; 0x1000
    266c:	00002c18 	andeq	r2, r0, r8, lsl ip
    2670:	00108200 	andseq	r8, r0, r0, lsl #4
    2674:	00107a00 	andseq	r7, r0, r0, lsl #20
    2678:	003d0e00 	eorseq	r0, sp, r0, lsl #28
    267c:	05180000 	ldreq	r0, [r8, #-0]
    2680:	03050000 	movweq	r0, #20480	; 0x5000
    2684:	00009804 	andeq	r9, r0, r4, lsl #16
    2688:	0008401d 	andeq	r4, r8, sp, lsl r0
    268c:	0b550100 	bleq	1542a94 <__bss_end__+0x1538e34>
    2690:	0000008a 	andeq	r0, r0, sl, lsl #1
    2694:	000010ba 	strheq	r1, [r0], -sl
    2698:	000010b6 	strheq	r1, [r0], -r6
    269c:	008fe40f 	addeq	lr, pc, pc, lsl #8
    26a0:	00051d00 	andeq	r1, r5, r0, lsl #26
    26a4:	0004a600 	andeq	sl, r4, r0, lsl #12
    26a8:	50011000 	andpl	r1, r1, r0
    26ac:	00007402 	andeq	r7, r0, r2, lsl #8
    26b0:	008ff40f 	addeq	pc, pc, pc, lsl #8
    26b4:	0008e000 	andeq	lr, r8, r0
    26b8:	0004c500 	andeq	ip, r4, r0, lsl #10
    26bc:	50011000 	andpl	r1, r1, r0
    26c0:	10007502 	andne	r7, r0, r2, lsl #10
    26c4:	30015101 	andcc	r5, r1, r1, lsl #2
    26c8:	02520110 	subseq	r0, r2, #4
    26cc:	0f000074 	svceq	0x00000074
    26d0:	0000901c 	andeq	r9, r0, ip, lsl r0
    26d4:	000008bc 			; <UNDEFINED> instruction: 0x000008bc
    26d8:	000004fe 	strdeq	r0, [r0], -lr
    26dc:	05500110 	ldrbeq	r0, [r0, #-272]	; 0xfffffef0
    26e0:	00941803 	addseq	r1, r4, r3, lsl #16
    26e4:	51011000 	mrspl	r1, (UNDEF: 1)
    26e8:	96340305 	ldrtls	r0, [r4], -r5, lsl #6
    26ec:	01100000 	tsteq	r0, r0
    26f0:	04030552 	streq	r0, [r3], #-1362	; 0xfffffaae
    26f4:	10000098 	mulne	r0, r8, r0
    26f8:	08025301 	stmdaeq	r2, {r0, r8, r9, ip, lr}
    26fc:	7d021054 	stcvc	0, cr1, [r2, #-336]	; 0xfffffeb0
    2700:	44030500 	strmi	r0, [r3], #-1280	; 0xfffffb00
    2704:	00000096 	muleq	r0, r6, r0
    2708:	00902011 	addseq	r2, r0, r1, lsl r0
    270c:	0008c800 	andeq	ip, r8, r0, lsl #16
    2710:	7e120000 	cdpvc	0, 1, cr0, cr2, cr0, {0}
    2714:	18000000 	stmdane	r0, {}	; <UNPREDICTABLE>
    2718:	13000005 	movwne	r0, #5
    271c:	0000002c 	andeq	r0, r0, ip, lsr #32
    2720:	08050007 	stmdaeq	r5, {r0, r1, r2}
    2724:	16000005 	strne	r0, [r0], -r5
    2728:	000008ac 	andeq	r0, r0, ip, lsr #17
    272c:	8a074701 	bhi	1d4338 <__bss_end__+0x1ca6d8>
    2730:	34000000 	strcc	r0, [r0], #-0
    2734:	9800008f 	stmdals	r0, {r0, r1, r2, r3, r7}
    2738:	01000000 	mrseq	r0, (UNDEF: 0)
    273c:	00062b9c 	muleq	r6, ip, fp
    2740:	08381700 	ldmdaeq	r8!, {r8, r9, sl, ip}
    2744:	47010000 	strmi	r0, [r1, -r0]
    2748:	00002c20 	andeq	r2, r0, r0, lsr #24
    274c:	0010e800 	andseq	lr, r0, r0, lsl #16
    2750:	0010d800 	andseq	sp, r0, r0, lsl #16
    2754:	003d0e00 	eorseq	r0, sp, r0, lsl #28
    2758:	043c0000 	ldrteq	r0, [ip], #-0
    275c:	03050000 	movweq	r0, #20480	; 0x5000
    2760:	000097f4 	strdeq	r9, [r0], -r4
    2764:	0008401d 	andeq	r4, r8, sp, lsl r0
    2768:	0b4b0100 	bleq	12c2b70 <__bss_end__+0x12b8f10>
    276c:	0000008a 	andeq	r0, r0, sl, lsl #1
    2770:	0000115c 	andeq	r1, r0, ip, asr r1
    2774:	00001156 	andeq	r1, r0, r6, asr r1
    2778:	00081f1b 	andeq	r1, r8, fp, lsl pc
    277c:	008f4400 	addeq	r4, pc, r0, lsl #8
    2780:	00280300 	eoreq	r0, r8, r0, lsl #6
    2784:	49010000 	stmdbmi	r1, {}	; <UNPREDICTABLE>
    2788:	0005a30e 	andeq	sl, r5, lr, lsl #6
    278c:	083a1a00 	ldmdaeq	sl!, {r9, fp, ip}
    2790:	118b0000 	orrne	r0, fp, r0
    2794:	11890000 	orrne	r0, r9, r0
    2798:	301a0000 	andscc	r0, sl, r0
    279c:	a3000008 	movwge	r0, #8
    27a0:	9f000011 	svcls	0x00000011
    27a4:	1e000011 	mcrne	0, 0, r0, cr0, cr1, {0}
    27a8:	00000028 	andeq	r0, r0, r8, lsr #32
    27ac:	8f8c0f00 	svchi	0x008c0f00
    27b0:	08bc0000 	ldmeq	ip!, {}	; <UNPREDICTABLE>
    27b4:	05dc0000 	ldrbeq	r0, [ip]
    27b8:	01100000 	tsteq	r0, r0
    27bc:	18030550 	stmdane	r3, {r4, r6, r8, sl}
    27c0:	10000094 	mulne	r0, r4, r0
    27c4:	03055101 	movweq	r5, #20737	; 0x5101
    27c8:	00009634 	andeq	r9, r0, r4, lsr r6
    27cc:	05520110 	ldrbeq	r0, [r2, #-272]	; 0xfffffef0
    27d0:	0097f403 	addseq	pc, r7, r3, lsl #8
    27d4:	53011000 	movwpl	r1, #4096	; 0x1000
    27d8:	10480802 	subne	r0, r8, r2, lsl #16
    27dc:	05007d02 	streq	r7, [r0, #-3330]	; 0xfffff2fe
    27e0:	00964403 	addseq	r4, r6, r3, lsl #8
    27e4:	90110000 	andsls	r0, r1, r0
    27e8:	c800008f 	stmdagt	r0, {r0, r1, r2, r3, r7}
    27ec:	0f000008 	svceq	0x00000008
    27f0:	00008fb0 			; <UNDEFINED> instruction: 0x00008fb0
    27f4:	000008bc 			; <UNDEFINED> instruction: 0x000008bc
    27f8:	00000621 	andeq	r0, r0, r1, lsr #12
    27fc:	05500110 	ldrbeq	r0, [r0, #-272]	; 0xfffffef0
    2800:	0096c003 	addseq	ip, r6, r3
    2804:	51011000 	mrspl	r1, (UNDEF: 1)
    2808:	96340305 	ldrtls	r0, [r4], -r5, lsl #6
    280c:	01100000 	tsteq	r0, r0
    2810:	f4030552 	vst3.16	{d0,d2,d4}, [r3 :64], r2
    2814:	10000097 	mulne	r0, r7, r0
    2818:	08025301 	stmdaeq	r2, {r0, r8, r9, ip, lr}
    281c:	7d02104e 	stcvc	0, cr1, [r2, #-312]	; 0xfffffec8
    2820:	01f30800 	mvnseq	r0, r0, lsl #16
    2824:	09072350 	stmdbeq	r7, {r4, r6, r8, r9, sp}
    2828:	11001af8 	strdne	r1, [r0, -r8]
    282c:	00008fb4 			; <UNDEFINED> instruction: 0x00008fb4
    2830:	000008c8 	andeq	r0, r0, r8, asr #17
    2834:	08ce0c00 	stmiaeq	lr, {sl, fp}^
    2838:	3c010000 	stccc	0, cr0, [r1], {-0}
    283c:	008edc06 	addeq	sp, lr, r6, lsl #24
    2840:	00005800 	andeq	r5, r0, r0, lsl #16
    2844:	cf9c0100 	svcgt	0x009c0100
    2848:	0a000006 	beq	2868 <__code_start__-0x5798>
    284c:	0000086b 	andeq	r0, r0, fp, ror #16
    2850:	25103d01 	ldrcs	r3, [r0, #-3329]	; 0xfffff2ff
    2854:	05000000 	streq	r0, [r0, #-0]
    2858:	009c5803 	addseq	r5, ip, r3, lsl #16
    285c:	003d0e00 	eorseq	r0, sp, r0, lsl #28
    2860:	06df0000 	ldrbeq	r0, [pc], r0
    2864:	03050000 	movweq	r0, #20480	; 0x5000
    2868:	000097e4 	andeq	r9, r0, r4, ror #15
    286c:	2c040707 	stccs	7, cr0, [r4], {7}
    2870:	01000000 	mrseq	r0, (UNDEF: 0)
    2874:	067a0a42 	ldrbteq	r0, [sl], -r2, asr #20
    2878:	95080000 	strls	r0, [r8, #-0]
    287c:	00000008 	andeq	r0, r0, r8
    2880:	00001000 	andeq	r1, r0, r0
    2884:	008f080f 	addeq	r0, pc, pc, lsl #16
    2888:	0006e400 	andeq	lr, r6, r0, lsl #8
    288c:	00069600 	andeq	r9, r6, r0, lsl #12
    2890:	50011000 	andpl	r1, r1, r0
    2894:	24404003 	strbcs	r4, [r0], #-3
    2898:	03510110 	cmpeq	r1, #4
    289c:	00244840 	eoreq	r4, r4, r0, asr #16
    28a0:	008f200f 	addeq	r2, pc, pc
    28a4:	0008bc00 	andeq	fp, r8, r0, lsl #24
    28a8:	0006c500 	andeq	ip, r6, r0, lsl #10
    28ac:	50011000 	andpl	r1, r1, r0
    28b0:	96900305 	ldrls	r0, [r0], r5, lsl #6
    28b4:	01100000 	tsteq	r0, r0
    28b8:	34030551 	strcc	r0, [r3], #-1361	; 0xfffffaaf
    28bc:	10000096 	mulne	r0, r6, r0
    28c0:	03055201 	movweq	r5, #20993	; 0x5201
    28c4:	000097e4 	andeq	r9, r0, r4, ror #15
    28c8:	02530110 	subseq	r0, r3, #4
    28cc:	11004008 	tstne	r0, r8
    28d0:	00008f24 	andeq	r8, r0, r4, lsr #30
    28d4:	000008c8 	andeq	r0, r0, r8, asr #17
    28d8:	007e1200 	rsbseq	r1, lr, r0, lsl #4
    28dc:	06df0000 	ldrbeq	r0, [pc], r0
    28e0:	2c130000 	ldccs	0, cr0, [r3], {-0}
    28e4:	0c000000 	stceq	0, cr0, [r0], {-0}
    28e8:	06cf0500 	strbeq	r0, [pc], r0, lsl #10
    28ec:	f70c0000 			; <UNDEFINED> instruction: 0xf70c0000
    28f0:	01000008 	tsteq	r0, r8
    28f4:	8e40062d 	cdphi	6, 4, cr0, cr0, cr13, {1}
    28f8:	009c0000 	addseq	r0, ip, r0
    28fc:	9c010000 	stcls	0, cr0, [r1], {-0}
    2900:	000007c8 	andeq	r0, r0, r8, asr #15
    2904:	00083f17 	andeq	r3, r8, r7, lsl pc
    2908:	262d0100 	strtcs	r0, [sp], -r0, lsl #2
    290c:	0000002c 	andeq	r0, r0, ip, lsr #32
    2910:	000011d1 	ldrdeq	r1, [r0], -r1	; <UNPREDICTABLE>
    2914:	000011c3 	andeq	r1, r0, r3, asr #3
    2918:	00083417 	andeq	r3, r8, r7, lsl r4
    291c:	362d0100 	strtcc	r0, [sp], -r0, lsl #2
    2920:	0000002c 	andeq	r0, r0, ip, lsr #32
    2924:	00001239 	andeq	r1, r0, r9, lsr r2
    2928:	00001231 	andeq	r1, r0, r1, lsr r2
    292c:	0008401d 	andeq	r4, r8, sp, lsl r0
    2930:	0b2e0100 	bleq	b82d38 <__bss_end__+0xb790d8>
    2934:	000000c2 	andeq	r0, r0, r2, asr #1
    2938:	00001281 	andeq	r1, r0, r1, lsl #5
    293c:	00001273 	andeq	r1, r0, r3, ror r2
    2940:	00003d0e 	andeq	r3, r0, lr, lsl #26
    2944:	0007d800 	andeq	sp, r7, r0, lsl #16
    2948:	cc030500 	cfstr32gt	mvfx0, [r3], {-0}
    294c:	0f000097 	svceq	0x00000097
    2950:	00008e98 	muleq	r0, r8, lr
    2954:	000008bc 			; <UNDEFINED> instruction: 0x000008bc
    2958:	0000077e 	andeq	r0, r0, lr, ror r7
    295c:	05500110 	ldrbeq	r0, [r0, #-272]	; 0xfffffef0
    2960:	00941803 	addseq	r1, r4, r3, lsl #16
    2964:	51011000 	mrspl	r1, (UNDEF: 1)
    2968:	96340305 	ldrtls	r0, [r4], -r5, lsl #6
    296c:	01100000 	tsteq	r0, r0
    2970:	cc030552 	cfstr32gt	mvfx0, [r3], {82}	; 0x52
    2974:	10000097 	mulne	r0, r7, r0
    2978:	08025301 	stmdaeq	r2, {r0, r8, r9, ip, lr}
    297c:	7d021030 	stcvc	0, cr1, [r2, #-192]	; 0xffffff40
    2980:	40030500 	andmi	r0, r3, r0, lsl #10
    2984:	00000096 	muleq	r0, r6, r0
    2988:	008e9c11 	addeq	r9, lr, r1, lsl ip
    298c:	0008c800 	andeq	ip, r8, r0, lsl #16
    2990:	8ec00f00 	cdphi	15, 12, cr0, cr0, cr0, {0}
    2994:	08bc0000 	ldmeq	ip!, {}	; <UNPREDICTABLE>
    2998:	07be0000 	ldreq	r0, [lr, r0]!
    299c:	01100000 	tsteq	r0, r0
    29a0:	4c030550 	cfstr32mi	mvfx0, [r3], {80}	; 0x50
    29a4:	10000096 	mulne	r0, r6, r0
    29a8:	03055101 	movweq	r5, #20737	; 0x5101
    29ac:	00009634 	andeq	r9, r0, r4, lsr r6
    29b0:	05520110 	ldrbeq	r0, [r2, #-272]	; 0xfffffef0
    29b4:	0097cc03 	addseq	ip, r7, r3, lsl #24
    29b8:	53011000 	movwpl	r1, #4096	; 0x1000
    29bc:	10340802 	eorsne	r0, r4, r2, lsl #16
    29c0:	03007d02 	movweq	r7, #3330	; 0xd02
    29c4:	005001f3 	ldrsheq	r0, [r0], #-19	; 0xffffffed
    29c8:	008ec411 	addeq	ip, lr, r1, lsl r4
    29cc:	0008c800 	andeq	ip, r8, r0, lsl #16
    29d0:	7e120000 	cdpvc	0, 1, cr0, cr2, cr0, {0}
    29d4:	d8000000 	stmdale	r0, {}	; <UNPREDICTABLE>
    29d8:	13000007 	movwne	r0, #7
    29dc:	0000002c 	andeq	r0, r0, ip, lsr #32
    29e0:	c8050016 	stmdagt	r5, {r1, r2, r4}
    29e4:	1f000007 	svcne	0x00000007
    29e8:	000008e6 	andeq	r0, r0, r6, ror #17
    29ec:	8a072a01 	bhi	1cd1f8 <__bss_end__+0x1c3598>
    29f0:	30000000 	andcc	r0, r0, r0
    29f4:	1000008e 	andne	r0, r0, lr, lsl #1
    29f8:	01000000 	mrseq	r0, (UNDEF: 0)
    29fc:	08211f9c 	stmdaeq	r1!, {r2, r3, r4, r7, r8, r9, sl, fp, ip}
    2a00:	29010000 	stmdbcs	r1, {}	; <UNPREDICTABLE>
    2a04:	00008a07 	andeq	r8, r0, r7, lsl #20
    2a08:	008e2000 	addeq	r2, lr, r0
    2a0c:	00001000 	andeq	r1, r0, r0
    2a10:	1f9c0100 	svcne	0x009c0100
    2a14:	0000089b 	muleq	r0, fp, r8
    2a18:	8a072801 	bhi	1cca24 <__bss_end__+0x1c2dc4>
    2a1c:	10000000 	andne	r0, r0, r0
    2a20:	1000008e 	andne	r0, r0, lr, lsl #1
    2a24:	01000000 	mrseq	r0, (UNDEF: 0)
    2a28:	085e209c 	ldmdaeq	lr, {r2, r3, r4, r7, sp}^
    2a2c:	10010000 	andne	r0, r1, r0
    2a30:	00002c18 	andeq	r2, r0, r8, lsl ip
    2a34:	08540300 	ldmdaeq	r4, {r8, r9}^
    2a38:	78210000 	stmdavc	r1!, {}	; <UNPREDICTABLE>
    2a3c:	29100100 	ldmdbcs	r0, {r8}
    2a40:	0000002c 	andeq	r0, r0, ip, lsr #32
    2a44:	01006e21 	tsteq	r0, r1, lsr #28
    2a48:	002c3510 	eoreq	r3, ip, r0, lsl r5
    2a4c:	3d0e0000 	stccc	0, cr0, [lr, #-0]
    2a50:	18000000 	stmdane	r0, {}	; <UNPREDICTABLE>
    2a54:	05000005 	streq	r0, [r0, #-5]
    2a58:	00981c03 	addseq	r1, r8, r3, lsl #24
    2a5c:	bc200000 	stclt	0, cr0, [r0], #-0
    2a60:	01000008 	tsteq	r0, r8
    2a64:	002c180d 	eoreq	r1, ip, sp, lsl #16
    2a68:	70030000 	andvc	r0, r3, r0
    2a6c:	21000008 	tstcs	r0, r8
    2a70:	0d010078 	stceq	0, cr0, [r1, #-480]	; 0xfffffe20
    2a74:	00002c29 	andeq	r2, r0, r9, lsr #24
    2a78:	db200000 	blle	802a80 <__bss_end__+0x7f8e20>
    2a7c:	01000008 	tsteq	r0, r8
    2a80:	002c1807 	eoreq	r1, ip, r7, lsl #16
    2a84:	96030000 	strls	r0, [r3], -r0
    2a88:	21000008 	tstcs	r0, r8
    2a8c:	07010078 	smlsdxeq	r1, r8, r0, r0
    2a90:	00002c2c 	andeq	r2, r0, ip, lsr #24
    2a94:	006e2100 	rsbeq	r2, lr, r0, lsl #2
    2a98:	2c380701 	ldccs	7, cr0, [r8], #-4
    2a9c:	00000000 	andeq	r0, r0, r0
    2aa0:	00088d20 	andeq	r8, r8, r0, lsr #26
    2aa4:	18040100 	stmdane	r4, {r8}
    2aa8:	0000005d 	andeq	r0, r0, sp, asr r0
    2aac:	0008bc03 	andeq	fp, r8, r3, lsl #24
    2ab0:	00782100 	rsbseq	r2, r8, r0, lsl #2
    2ab4:	5d290401 	cfstrspl	mvf0, [r9, #-4]!
    2ab8:	21000000 	mrscs	r0, (UNDEF: 0)
    2abc:	04010079 	streq	r0, [r1], #-121	; 0xffffff87
    2ac0:	00005d35 	andeq	r5, r0, r5, lsr sp
    2ac4:	fc220000 	stc2	0, cr0, [r2], #-0
    2ac8:	fc000002 	stc2	0, cr0, [r0], {2}
    2acc:	02000002 	andeq	r0, r0, #2, 0
    2ad0:	16220628 	strtne	r0, [r2], -r8, lsr #12
    2ad4:	16000000 	strne	r0, [r0], -r0
    2ad8:	02000000 	andeq	r0, r0, #0, 0
    2adc:	0e22066e 	cfmadda32eq	mvax3, mvax0, mvfx2, mvfx14
    2ae0:	0e000009 	cdpeq	0, 0, cr0, cr0, cr9, {0}
    2ae4:	02000009 	andeq	r0, r0, #9, 0
    2ae8:	7c22061d 	stcvc	6, cr0, [r2], #-116	; 0xffffff8c
    2aec:	7c000008 	stcvc	0, cr0, [r0], {8}
    2af0:	02000008 	andeq	r0, r0, #8, 0
    2af4:	3a0007f7 	bcc	4ad8 <__code_start__-0x3528>
    2af8:	04000001 	streq	r0, [r0], #-1
    2afc:	000fd400 	andeq	sp, pc, r0, lsl #8
    2b00:	2a010400 	bcs	43b08 <__bss_end__+0x39ea8>
    2b04:	0c000002 	stceq	0, cr0, [r0], {2}
    2b08:	00000934 	andeq	r0, r0, r4, lsr r9
    2b0c:	00000331 	andeq	r0, r0, r1, lsr r3
    2b10:	000091c0 	andeq	r9, r0, r0, asr #3
    2b14:	00000018 	andeq	r0, r0, r8, lsl r0
    2b18:	0000161e 	andeq	r1, r0, lr, lsl r6
    2b1c:	69050402 	stmdbvs	r5, {r1, sl}
    2b20:	0300746e 	movweq	r7, #1134	; 0x46e
    2b24:	0000092d 	andeq	r0, r0, sp, lsr #18
    2b28:	3817d103 	ldmdacc	r7, {r0, r1, r8, ip, lr, pc}
    2b2c:	04000000 	streq	r0, [r0], #-0
    2b30:	006b0704 	rsbeq	r0, fp, r4, lsl #14
    2b34:	01040000 	mrseq	r0, (UNDEF: 4)
    2b38:	00000a06 	andeq	r0, r0, r6, lsl #20
    2b3c:	05020400 	streq	r0, [r2, #-1024]	; 0xfffffc00
    2b40:	000000ef 	andeq	r0, r0, pc, ror #1
    2b44:	7d050404 	cfstrsvc	mvf0, [r5, #-16]
    2b48:	04000000 	streq	r0, [r0], #-0
    2b4c:	00780508 	rsbseq	r0, r8, r8, lsl #10
    2b50:	01040000 	mrseq	r0, (UNDEF: 4)
    2b54:	00000808 	andeq	r0, r0, r8, lsl #16
    2b58:	07020400 	streq	r0, [r2, -r0, lsl #8]
    2b5c:	00000023 	andeq	r0, r0, r3, lsr #32
    2b60:	66070404 	strvs	r0, [r7], -r4, lsl #8
    2b64:	04000000 	streq	r0, [r0], #-0
    2b68:	00610708 	rsbeq	r0, r1, r8, lsl #14
    2b6c:	25050000 	strcs	r0, [r5, #-0]
    2b70:	86000000 	strhi	r0, [r0], -r0
    2b74:	06000000 	streq	r0, [r0], -r0
    2b78:	00000025 	andeq	r0, r0, r5, lsr #32
    2b7c:	00860700 	addeq	r0, r6, r0, lsl #14
    2b80:	1c020000 	stcne	0, cr0, [r2], {-0}
    2b84:	0000920e 	andeq	r9, r0, lr, lsl #4
    2b88:	77040800 	strvc	r0, [r4, -r0, lsl #16]
    2b8c:	05000000 	streq	r0, [r0, #-0]
    2b90:	00000025 	andeq	r0, r0, r5, lsr #32
    2b94:	000000a7 	andeq	r0, r0, r7, lsr #1
    2b98:	0000a706 	andeq	sl, r0, r6, lsl #14
    2b9c:	04080000 	streq	r0, [r8], #-0
    2ba0:	000000b4 	strheq	r0, [r0], -r4
    2ba4:	11080104 	tstne	r8, r4, lsl #2
    2ba8:	09000000 	stmdbeq	r0, {}	; <UNPREDICTABLE>
    2bac:	000000ad 	andeq	r0, r0, sp, lsr #1
    2bb0:	00038207 	andeq	r8, r3, r7, lsl #4
    2bb4:	0e210200 	cdpeq	2, 2, cr0, cr1, cr0, {0}
    2bb8:	000000c5 	andeq	r0, r0, r5, asr #1
    2bbc:	00980408 	addseq	r0, r8, r8, lsl #8
    2bc0:	7c0a0000 	stcvc	0, cr0, [sl], {-0}
    2bc4:	01000008 	tsteq	r0, r8
    2bc8:	01350704 	teqeq	r5, r4, lsl #14
    2bcc:	91c00000 	bicls	r0, r0, r0
    2bd0:	00180000 	andseq	r0, r8, r0
    2bd4:	9c010000 	stcls	0, cr0, [r1], {-0}
    2bd8:	00000135 	andeq	r0, r0, r5, lsr r1
    2bdc:	00705f0b 	rsbseq	r5, r0, fp, lsl #30
    2be0:	35140401 	ldrcc	r0, [r4, #-1025]	; 0xfffffbff
    2be4:	01000001 	tsteq	r0, r1
    2be8:	00630b50 	rsbeq	r0, r3, r0, asr fp
    2bec:	251c0401 	ldrcs	r0, [ip, #-1025]	; 0xfffffbff
    2bf0:	01000000 	mrseq	r0, (UNDEF: 0)
    2bf4:	006e0c51 	rsbeq	r0, lr, r1, asr ip
    2bf8:	2c260401 	cfstrscs	mvf0, [r6], #-4
    2bfc:	e5000000 	str	r0, [r0, #-0]
    2c00:	e1000012 	tst	r0, r2, lsl r0
    2c04:	0d000012 	stceq	0, cr0, [r0, #-72]	; 0xffffffb8
    2c08:	05010070 	streq	r0, [r1, #-112]	; 0xffffff90
    2c0c:	0001370b 	andeq	r3, r1, fp, lsl #14
    2c10:	00130e00 	andseq	r0, r3, r0, lsl #28
    2c14:	00130600 	andseq	r0, r3, r0, lsl #12
    2c18:	00650d00 	rsbeq	r0, r5, r0, lsl #26
    2c1c:	37140501 	ldrcc	r0, [r4, -r1, lsl #10]
    2c20:	46000001 	strmi	r0, [r0], -r1
    2c24:	44000013 	strmi	r0, [r0], #-19	; 0xffffffed
    2c28:	00000013 	andeq	r0, r0, r3, lsl r0
    2c2c:	0408040e 	streq	r0, [r8], #-1038	; 0xfffffbf2
    2c30:	000000ad 	andeq	r0, r0, sp, lsr #1
    2c34:	00014900 	andeq	r4, r1, r0, lsl #18
    2c38:	a0000400 	andge	r0, r0, r0, lsl #8
    2c3c:	04000010 	streq	r0, [r0], #-16
    2c40:	00022a01 	andeq	r2, r2, r1, lsl #20
    2c44:	09620c00 	stmdbeq	r2!, {sl, fp}^
    2c48:	03310000 	teqeq	r1, #0, 0
    2c4c:	91d80000 	bicsls	r0, r8, r0
    2c50:	003c0000 	eorseq	r0, ip, r0
    2c54:	17360000 	ldrne	r0, [r6, -r0]!
    2c58:	04020000 	streq	r0, [r2], #-0
    2c5c:	746e6905 	strbtvc	r6, [lr], #-2309	; 0xfffff6fb
    2c60:	07040300 	streq	r0, [r4, -r0, lsl #6]
    2c64:	0000006b 	andeq	r0, r0, fp, rrx
    2c68:	0a060103 	beq	18307c <__bss_end__+0x17941c>
    2c6c:	03000000 	movweq	r0, #0
    2c70:	00ef0502 	rsceq	r0, pc, r2, lsl #10
    2c74:	04030000 	streq	r0, [r3], #-0
    2c78:	00007d05 	andeq	r7, r0, r5, lsl #26
    2c7c:	05080300 	streq	r0, [r8, #-768]	; 0xfffffd00
    2c80:	00000078 	andeq	r0, r0, r8, ror r0
    2c84:	08080103 	stmdaeq	r8, {r0, r1, r8}
    2c88:	03000000 	movweq	r0, #0
    2c8c:	00230702 	eoreq	r0, r3, r2, lsl #14
    2c90:	04030000 	streq	r0, [r3], #-0
    2c94:	00006607 	andeq	r6, r0, r7, lsl #12
    2c98:	07080300 	streq	r0, [r8, -r0, lsl #6]
    2c9c:	00000061 	andeq	r0, r0, r1, rrx
    2ca0:	00002504 	andeq	r2, r0, r4, lsl #10
    2ca4:	00007a00 	andeq	r7, r0, r0, lsl #20
    2ca8:	00250500 	eoreq	r0, r5, r0, lsl #10
    2cac:	06000000 	streq	r0, [r0], -r0
    2cb0:	00000086 	andeq	r0, r0, r6, lsl #1
    2cb4:	860e1c02 	strhi	r1, [lr], -r2, lsl #24
    2cb8:	07000000 	streq	r0, [r0, -r0]
    2cbc:	00006b04 	andeq	r6, r0, r4, lsl #22
    2cc0:	00250400 	eoreq	r0, r5, r0, lsl #8
    2cc4:	009b0000 	addseq	r0, fp, r0
    2cc8:	9b050000 	blls	142cd0 <__bss_end__+0x139070>
    2ccc:	00000000 	andeq	r0, r0, r0
    2cd0:	00a80407 	adceq	r0, r8, r7, lsl #8
    2cd4:	01030000 	mrseq	r0, (UNDEF: 3)
    2cd8:	00001108 	andeq	r1, r0, r8, lsl #2
    2cdc:	00a10800 	adceq	r0, r1, r0, lsl #16
    2ce0:	82060000 	andhi	r0, r6, #0, 0
    2ce4:	02000003 	andeq	r0, r0, #3, 0
    2ce8:	00b90e21 	adcseq	r0, r9, r1, lsr #28
    2cec:	04070000 	streq	r0, [r7], #-0
    2cf0:	0000008c 	andeq	r0, r0, ip, lsl #1
    2cf4:	00007a09 	andeq	r7, r0, r9, lsl #20
    2cf8:	07060100 	streq	r0, [r6, -r0, lsl #2]
    2cfc:	98400305 	stmdals	r0, {r0, r2, r8, r9}^
    2d00:	550a0000 	strpl	r0, [sl, #-0]
    2d04:	01000009 	tsteq	r0, r9
    2d08:	9204060b 	andls	r0, r4, #11534336	; 0xb00000
    2d0c:	00100000 	andseq	r0, r0, r0
    2d10:	9c010000 	stcls	0, cr0, [r1], {-0}
    2d14:	000000f1 	strdeq	r0, [r0], -r1
    2d18:	0070660b 	rsbseq	r6, r0, fp, lsl #12
    2d1c:	86190b01 	ldrhi	r0, [r9], -r1, lsl #22
    2d20:	01000000 	mrseq	r0, (UNDEF: 0)
    2d24:	0e0c0050 	mcreq	0, 0, r0, cr12, cr0, {2}
    2d28:	01000009 	tsteq	r0, r9
    2d2c:	91ec0608 	mvnls	r0, r8, lsl #12
    2d30:	00180000 	andseq	r0, r8, r0
    2d34:	9c010000 	stcls	0, cr0, [r1], {-0}
    2d38:	0009440d 	andeq	r4, r9, sp, lsl #8
    2d3c:	0c030100 	stfeqs	f0, [r3], {-0}
    2d40:	00000025 	andeq	r0, r0, r5, lsr #32
    2d44:	000091d8 	ldrdeq	r9, [r0], -r8
    2d48:	00000014 	andeq	r0, r0, r4, lsl r0
    2d4c:	01409c01 	cmpeq	r0, r1, lsl #24
    2d50:	630e0000 	movwvs	r0, #57344	; 0xe000
    2d54:	21030100 	mrscs	r0, (UNDEF: 19)
    2d58:	00000025 	andeq	r0, r0, r5, lsr #32
    2d5c:	0000135d 	andeq	r1, r0, sp, asr r3
    2d60:	00001359 	andeq	r1, r0, r9, asr r3
    2d64:	0091e40f 	addseq	lr, r1, pc, lsl #8
    2d68:	00014000 	andeq	r4, r1, r0
    2d6c:	50011000 	andpl	r1, r1, r0
    2d70:	00007402 	andeq	r7, r0, r2, lsl #8
    2d74:	07ef1100 	strbeq	r1, [pc, r0, lsl #2]!
    2d78:	07ef0000 	strbeq	r0, [pc, r0]!
    2d7c:	42020000 	andmi	r0, r2, #0, 0
    2d80:	01370006 	teqeq	r7, r6
    2d84:	00040000 	andeq	r0, r4, r0
    2d88:	000011af 	andeq	r1, r0, pc, lsr #3
    2d8c:	022a0104 	eoreq	r0, sl, #1
    2d90:	780c0000 	stmdavc	ip, {}	; <UNPREDICTABLE>
    2d94:	31000009 	tstcc	r0, r9
    2d98:	14000003 	strne	r0, [r0], #-3
    2d9c:	34000092 	strcc	r0, [r0], #-146	; 0xffffff6e
    2da0:	f8000000 			; <UNDEFINED> instruction: 0xf8000000
    2da4:	02000017 	andeq	r0, r0, #23, 0
    2da8:	6e690504 	cdpvs	5, 6, cr0, cr9, cr4, {0}
    2dac:	04030074 	streq	r0, [r3], #-116	; 0xffffff8c
    2db0:	00006b07 	andeq	r6, r0, r7, lsl #22
    2db4:	06010300 	streq	r0, [r1], -r0, lsl #6
    2db8:	0000000a 	andeq	r0, r0, sl
    2dbc:	ef050203 	svc	0x00050203
    2dc0:	03000000 	movweq	r0, #0
    2dc4:	007d0504 	rsbseq	r0, sp, r4, lsl #10
    2dc8:	08030000 	stmdaeq	r3, {}	; <UNPREDICTABLE>
    2dcc:	00007805 	andeq	r7, r0, r5, lsl #16
    2dd0:	08010300 	stmdaeq	r1, {r8, r9}
    2dd4:	00000008 	andeq	r0, r0, r8
    2dd8:	23070203 	movwcs	r0, #29187	; 0x7203
    2ddc:	03000000 	movweq	r0, #0
    2de0:	00660704 	rsbeq	r0, r6, r4, lsl #14
    2de4:	08030000 	stmdaeq	r3, {}	; <UNPREDICTABLE>
    2de8:	00006107 	andeq	r6, r0, r7, lsl #2
    2dec:	00250400 	eoreq	r0, r5, r0, lsl #8
    2df0:	007a0000 	rsbseq	r0, sl, r0
    2df4:	25050000 	strcs	r0, [r5, #-0]
    2df8:	00000000 	andeq	r0, r0, r0
    2dfc:	00008606 	andeq	r8, r0, r6, lsl #12
    2e00:	0e1c0200 	cdpeq	2, 1, cr0, cr12, cr0, {0}
    2e04:	00000086 	andeq	r0, r0, r6, lsl #1
    2e08:	006b0407 	rsbeq	r0, fp, r7, lsl #8
    2e0c:	25040000 	strcs	r0, [r4, #-0]
    2e10:	9b000000 	blls	2e18 <__code_start__-0x51e8>
    2e14:	05000000 	streq	r0, [r0, #-0]
    2e18:	0000009b 	muleq	r0, fp, r0
    2e1c:	a8040700 	stmdage	r4, {r8, r9, sl}
    2e20:	03000000 	movweq	r0, #0
    2e24:	00110801 	andseq	r0, r1, r1, lsl #16
    2e28:	a1080000 	mrsge	r0, (UNDEF: 8)
    2e2c:	06000000 	streq	r0, [r0], -r0
    2e30:	00000382 	andeq	r0, r0, r2, lsl #7
    2e34:	b90e2102 	stmdblt	lr, {r1, r8, sp}
    2e38:	07000000 	streq	r0, [r0, -r0]
    2e3c:	00008c04 	andeq	r8, r0, r4, lsl #24
    2e40:	045d0900 	ldrbeq	r0, [sp], #-2304	; 0xfffff700
    2e44:	04010000 	streq	r0, [r1], #-0
    2e48:	00013407 	andeq	r3, r1, r7, lsl #8
    2e4c:	00921400 	addseq	r1, r2, r0, lsl #8
    2e50:	00003400 	andeq	r3, r0, r0, lsl #8
    2e54:	349c0100 	ldrcc	r0, [ip], #256	; 0x100
    2e58:	0a000001 	beq	2e64 <__code_start__-0x519c>
    2e5c:	00000973 	andeq	r0, r0, r3, ror r9
    2e60:	34150401 	ldrcc	r0, [r5], #-1025	; 0xfffffbff
    2e64:	01000001 	tsteq	r0, r1
    2e68:	72730b50 	rsbsvc	r0, r3, #80, 22	; 0x14000
    2e6c:	04010063 	streq	r0, [r1], #-99	; 0xffffff9d
    2e70:	00009b27 	andeq	r9, r0, r7, lsr #22
    2e74:	00137f00 	andseq	r7, r3, r0, lsl #30
    2e78:	00137b00 	andseq	r7, r3, r0, lsl #22
    2e7c:	31730c00 	cmncc	r3, r0, lsl #24
    2e80:	0b050100 	bleq	143288 <__bss_end__+0x139628>
    2e84:	00000134 	andeq	r0, r0, r4, lsr r1
    2e88:	000013aa 	andeq	r1, r0, sl, lsr #7
    2e8c:	000013a0 	andeq	r1, r0, r0, lsr #7
    2e90:	0032730c 	eorseq	r7, r2, ip, lsl #6
    2e94:	9b110601 	blls	4446a0 <__bss_end__+0x43aa40>
    2e98:	ef000000 	svc	0x00000000
    2e9c:	eb000013 	bl	2ef0 <__code_start__-0x5110>
    2ea0:	0c000013 	stceq	0, cr0, [r0], {19}
    2ea4:	07010063 	streq	r0, [r1, -r3, rrx]
    2ea8:	0000a10a 	andeq	sl, r0, sl, lsl #2
    2eac:	00141300 	andseq	r1, r4, r0, lsl #6
    2eb0:	00140f00 	andseq	r0, r4, r0, lsl #30
    2eb4:	04070000 	streq	r0, [r7], #-0
    2eb8:	000000a1 	andeq	r0, r0, r1, lsr #1
    2ebc:	0000f700 	andeq	pc, r0, r0, lsl #14
    2ec0:	65000400 	strvs	r0, [r0, #-1024]	; 0xfffffc00
    2ec4:	04000012 	streq	r0, [r0], #-18	; 0xffffffee
    2ec8:	00022a01 	andeq	r2, r2, r1, lsl #20
    2ecc:	09880c00 	stmibeq	r8, {sl, fp}
    2ed0:	03310000 	teqeq	r1, #0, 0
    2ed4:	92480000 	subls	r0, r8, #0, 0
    2ed8:	002c0000 	eoreq	r0, ip, r0
    2edc:	19060000 	stmdbne	r6, {}	; <UNPREDICTABLE>
    2ee0:	04020000 	streq	r0, [r2], #-0
    2ee4:	746e6905 	strbtvc	r6, [lr], #-2309	; 0xfffff6fb
    2ee8:	07040300 	streq	r0, [r4, -r0, lsl #6]
    2eec:	0000006b 	andeq	r0, r0, fp, rrx
    2ef0:	0a060103 	beq	183304 <__bss_end__+0x1796a4>
    2ef4:	03000000 	movweq	r0, #0
    2ef8:	00ef0502 	rsceq	r0, pc, r2, lsl #10
    2efc:	04030000 	streq	r0, [r3], #-0
    2f00:	00007d05 	andeq	r7, r0, r5, lsl #26
    2f04:	05080300 	streq	r0, [r8, #-768]	; 0xfffffd00
    2f08:	00000078 	andeq	r0, r0, r8, ror r0
    2f0c:	08080103 	stmdaeq	r8, {r0, r1, r8}
    2f10:	03000000 	movweq	r0, #0
    2f14:	00230702 	eoreq	r0, r3, r2, lsl #14
    2f18:	04030000 	streq	r0, [r3], #-0
    2f1c:	00006607 	andeq	r6, r0, r7, lsl #12
    2f20:	07080300 	streq	r0, [r8, -r0, lsl #6]
    2f24:	00000061 	andeq	r0, r0, r1, rrx
    2f28:	00002504 	andeq	r2, r0, r4, lsl #10
    2f2c:	00007a00 	andeq	r7, r0, r0, lsl #20
    2f30:	00250500 	eoreq	r0, r5, r0, lsl #10
    2f34:	06000000 	streq	r0, [r0], -r0
    2f38:	00000086 	andeq	r0, r0, r6, lsl #1
    2f3c:	860e1c02 	strhi	r1, [lr], -r2, lsl #24
    2f40:	07000000 	streq	r0, [r0, -r0]
    2f44:	00006b04 	andeq	r6, r0, r4, lsl #22
    2f48:	00250400 	eoreq	r0, r5, r0, lsl #8
    2f4c:	009b0000 	addseq	r0, fp, r0
    2f50:	9b050000 	blls	142f58 <__bss_end__+0x1392f8>
    2f54:	00000000 	andeq	r0, r0, r0
    2f58:	00a80407 	adceq	r0, r8, r7, lsl #8
    2f5c:	01030000 	mrseq	r0, (UNDEF: 3)
    2f60:	00001108 	andeq	r1, r0, r8, lsl #2
    2f64:	00a10800 	adceq	r0, r1, r0, lsl #16
    2f68:	82060000 	andhi	r0, r6, #0, 0
    2f6c:	02000003 	andeq	r0, r0, #3, 0
    2f70:	00b90e21 	adcseq	r0, r9, r1, lsr #28
    2f74:	04070000 	streq	r0, [r7], #-0
    2f78:	0000008c 	andeq	r0, r0, ip, lsl #1
    2f7c:	00046409 	andeq	r6, r4, r9, lsl #8
    2f80:	05030100 	streq	r0, [r3, #-256]	; 0xffffff00
    2f84:	00000025 	andeq	r0, r0, r5, lsr #32
    2f88:	00009248 	andeq	r9, r0, r8, asr #4
    2f8c:	0000002c 	andeq	r0, r0, ip, lsr #32
    2f90:	610a9c01 	tstvs	sl, r1, lsl #24
    2f94:	18030100 	stmdane	r3, {r8}
    2f98:	0000009b 	muleq	r0, fp, r0
    2f9c:	00001435 	andeq	r1, r0, r5, lsr r4
    2fa0:	00001431 	andeq	r1, r0, r1, lsr r4
    2fa4:	0100620a 	tsteq	r0, sl, lsl #4
    2fa8:	009b2703 	addseq	r2, fp, r3, lsl #14
    2fac:	14570000 	ldrbne	r0, [r7], #-0
    2fb0:	14530000 	ldrbne	r0, [r3], #-0
    2fb4:	00000000 	andeq	r0, r0, r0
    2fb8:	0000010f 	andeq	r0, r0, pc, lsl #2
    2fbc:	12f40004 	rscsne	r0, r4, #4, 0
    2fc0:	01040000 	mrseq	r0, (UNDEF: 4)
    2fc4:	0000022a 	andeq	r0, r0, sl, lsr #4
    2fc8:	0009980c 	andeq	r9, r9, ip, lsl #16
    2fcc:	00033100 	andeq	r3, r3, r0, lsl #2
    2fd0:	00927400 	addseq	r7, r2, r0, lsl #8
    2fd4:	00002000 	andeq	r2, r0, r0
    2fd8:	0019cd00 	andseq	ip, r9, r0, lsl #26
    2fdc:	05040200 	streq	r0, [r4, #-512]	; 0xfffffe00
    2fe0:	00746e69 	rsbseq	r6, r4, r9, ror #28
    2fe4:	6b070403 	blvs	1c3ff8 <__bss_end__+0x1ba398>
    2fe8:	03000000 	movweq	r0, #0
    2fec:	000a0601 	andeq	r0, sl, r1, lsl #12
    2ff0:	02030000 	andeq	r0, r3, #0, 0
    2ff4:	0000ef05 	andeq	lr, r0, r5, lsl #30
    2ff8:	05040300 	streq	r0, [r4, #-768]	; 0xfffffd00
    2ffc:	0000007d 	andeq	r0, r0, sp, ror r0
    3000:	78050803 	stmdavc	r5, {r0, r1, fp}
    3004:	03000000 	movweq	r0, #0
    3008:	00080801 	andeq	r0, r8, r1, lsl #16
    300c:	02030000 	andeq	r0, r3, #0, 0
    3010:	00002307 	andeq	r2, r0, r7, lsl #6
    3014:	07040300 	streq	r0, [r4, -r0, lsl #6]
    3018:	00000066 	andeq	r0, r0, r6, rrx
    301c:	61070803 	tstvs	r7, r3, lsl #16
    3020:	04000000 	streq	r0, [r0], #-0
    3024:	00000025 	andeq	r0, r0, r5, lsr #32
    3028:	0000007a 	andeq	r0, r0, sl, ror r0
    302c:	00002505 	andeq	r2, r0, r5, lsl #10
    3030:	86060000 	strhi	r0, [r6], -r0
    3034:	02000000 	andeq	r0, r0, #0, 0
    3038:	00860e1c 	addeq	r0, r6, ip, lsl lr
    303c:	04070000 	streq	r0, [r7], #-0
    3040:	0000006b 	andeq	r0, r0, fp, rrx
    3044:	00002504 	andeq	r2, r0, r4, lsl #10
    3048:	00009b00 	andeq	r9, r0, r0, lsl #22
    304c:	009b0500 	addseq	r0, fp, r0, lsl #10
    3050:	07000000 	streq	r0, [r0, -r0]
    3054:	0000a804 	andeq	sl, r0, r4, lsl #16
    3058:	08010300 	stmdaeq	r1, {r8, r9}
    305c:	00000011 	andeq	r0, r0, r1, lsl r0
    3060:	0000a108 	andeq	sl, r0, r8, lsl #2
    3064:	03820600 	orreq	r0, r2, #0, 12
    3068:	21020000 	mrscs	r0, (UNDEF: 2)
    306c:	0000b90e 	andeq	fp, r0, lr, lsl #18
    3070:	8c040700 	stchi	7, cr0, [r4], {-0}
    3074:	09000000 	stmdbeq	r0, {}	; <UNPREDICTABLE>
    3078:	0000042e 	andeq	r0, r0, lr, lsr #8
    307c:	0c070301 	stceq	3, cr0, [r7], {1}
    3080:	74000001 	strvc	r0, [r0], #-1
    3084:	20000092 	mulcs	r0, r2, r0
    3088:	01000000 	mrseq	r0, (UNDEF: 0)
    308c:	00010c9c 	muleq	r1, ip, ip
    3090:	31730a00 	cmncc	r3, r0, lsl #20
    3094:	15030100 	strne	r0, [r3, #-256]	; 0xffffff00
    3098:	0000010c 	andeq	r0, r0, ip, lsl #2
    309c:	730b5001 	movwvc	r5, #45057	; 0xb001
    30a0:	03010032 	movweq	r0, #4146	; 0x1032
    30a4:	00009b26 	andeq	r9, r0, r6, lsr #22
    30a8:	00147b00 	andseq	r7, r4, r0, lsl #22
    30ac:	00147500 	andseq	r7, r4, r0, lsl #10
    30b0:	00730c00 	rsbseq	r0, r3, r0, lsl #24
    30b4:	0c140401 	cfldrseq	mvf0, [r4], {1}
    30b8:	ac000001 	stcge	0, cr0, [r0], {1}
    30bc:	a6000014 			; <UNDEFINED> instruction: 0xa6000014
    30c0:	00000014 	andeq	r0, r0, r4, lsl r0
    30c4:	00a10407 	adceq	r0, r1, r7, lsl #8
    30c8:	4e000000 	cdpmi	0, 0, cr0, cr0, cr0, {0}
    30cc:	04000001 	streq	r0, [r0], #-1
    30d0:	0013aa00 	andseq	sl, r3, r0, lsl #20
    30d4:	2a010400 	bcs	440dc <__bss_end__+0x3a47c>
    30d8:	0c000002 	stceq	0, cr0, [r0], {2}
    30dc:	000009a8 	andeq	r0, r0, r8, lsr #19
    30e0:	00000331 	andeq	r0, r0, r1, lsr r3
    30e4:	00000058 	andeq	r0, r0, r8, asr r0
    30e8:	00000000 	andeq	r0, r0, r0
    30ec:	00001a92 	muleq	r0, r2, sl
    30f0:	69050402 	stmdbvs	r5, {r1, sl}
    30f4:	0300746e 	movweq	r7, #1134	; 0x46e
    30f8:	0000092d 	andeq	r0, r0, sp, lsr #18
    30fc:	3817d103 	ldmdacc	r7, {r0, r1, r8, ip, lr, pc}
    3100:	04000000 	streq	r0, [r0], #-0
    3104:	006b0704 	rsbeq	r0, fp, r4, lsl #14
    3108:	01040000 	mrseq	r0, (UNDEF: 4)
    310c:	00000a06 	andeq	r0, r0, r6, lsl #20
    3110:	05020400 	streq	r0, [r2, #-1024]	; 0xfffffc00
    3114:	000000ef 	andeq	r0, r0, pc, ror #1
    3118:	7d050404 	cfstrsvc	mvf0, [r5, #-16]
    311c:	04000000 	streq	r0, [r0], #-0
    3120:	00780508 	rsbseq	r0, r8, r8, lsl #10
    3124:	01040000 	mrseq	r0, (UNDEF: 4)
    3128:	00000808 	andeq	r0, r0, r8, lsl #16
    312c:	005b0500 	subseq	r0, fp, r0, lsl #10
    3130:	02040000 	andeq	r0, r4, #0, 0
    3134:	00002307 	andeq	r2, r0, r7, lsl #6
    3138:	07040400 	streq	r0, [r4, -r0, lsl #8]
    313c:	00000066 	andeq	r0, r0, r6, rrx
    3140:	61070804 	tstvs	r7, r4, lsl #16
    3144:	06000000 	streq	r0, [r0], -r0
    3148:	00000025 	andeq	r0, r0, r5, lsr #32
    314c:	0000008b 	andeq	r0, r0, fp, lsl #1
    3150:	00002507 	andeq	r2, r0, r7, lsl #10
    3154:	86080000 	strhi	r0, [r8], -r0
    3158:	02000000 	andeq	r0, r0, #0, 0
    315c:	00970e1c 	addseq	r0, r7, ip, lsl lr
    3160:	04090000 	streq	r0, [r9], #-0
    3164:	0000007c 	andeq	r0, r0, ip, ror r0
    3168:	00002506 	andeq	r2, r0, r6, lsl #10
    316c:	0000ac00 	andeq	sl, r0, r0, lsl #24
    3170:	00ac0700 	adceq	r0, ip, r0, lsl #14
    3174:	09000000 	stmdbeq	r0, {}	; <UNPREDICTABLE>
    3178:	0000b904 	andeq	fp, r0, r4, lsl #18
    317c:	08010400 	stmdaeq	r1, {sl}
    3180:	00000011 	andeq	r0, r0, r1, lsl r0
    3184:	0000b205 	andeq	fp, r0, r5, lsl #4
    3188:	03820800 	orreq	r0, r2, #0, 16
    318c:	21020000 	mrscs	r0, (UNDEF: 2)
    3190:	0000ca0e 	andeq	ip, r0, lr, lsl #20
    3194:	9d040900 	vstrls.16	s0, [r4, #-0]	; <UNPREDICTABLE>
    3198:	0a000000 	beq	31a0 <__code_start__-0x4e60>
    319c:	0000048c 	andeq	r0, r0, ip, lsl #9
    31a0:	25050401 	strcs	r0, [r5, #-1025]	; 0xfffffbff
    31a4:	94000000 	strls	r0, [r0], #-0
    31a8:	2c000092 	stccs	0, cr0, [r0], {146}	; 0x92
    31ac:	01000000 	mrseq	r0, (UNDEF: 0)
    31b0:	00014b9c 	muleq	r1, ip, fp
    31b4:	735f0b00 	cmpvc	pc, #0, 22
    31b8:	04010031 	streq	r0, [r1], #-49	; 0xffffffcf
    31bc:	0000ac19 	andeq	sl, r0, r9, lsl ip
    31c0:	0014db00 	andseq	sp, r4, r0, lsl #22
    31c4:	0014d700 	andseq	sp, r4, r0, lsl #14
    31c8:	735f0b00 	cmpvc	pc, #0, 22
    31cc:	04010032 	streq	r0, [r1], #-50	; 0xffffffce
    31d0:	0000ac2a 	andeq	sl, r0, sl, lsr #24
    31d4:	00150000 	andseq	r0, r5, r0
    31d8:	0014fc00 	andseq	pc, r4, r0, lsl #24
    31dc:	006e0b00 	rsbeq	r0, lr, r0, lsl #22
    31e0:	2c360401 	cfldrscs	mvf0, [r6], #-4
    31e4:	27000000 	strcs	r0, [r0, -r0]
    31e8:	21000015 	tstcs	r0, r5, lsl r0
    31ec:	0c000015 	stceq	0, cr0, [r0], {21}
    31f0:	01003173 	tsteq	r0, r3, ror r1
    31f4:	014b1a05 	cmpeq	fp, r5, lsl #20
    31f8:	155a0000 	ldrbne	r0, [sl, #-0]
    31fc:	15520000 	ldrbne	r0, [r2, #-0]
    3200:	730c0000 	movwvc	r0, #49152	; 0xc000
    3204:	05010032 	streq	r0, [r1, #-50]	; 0xffffffce
    3208:	00014b2c 	andeq	r4, r1, ip, lsr #22
    320c:	00159600 	andseq	r9, r5, r0, lsl #12
    3210:	00159000 	andseq	r9, r5, r0
    3214:	04090000 	streq	r0, [r9], #-0
    3218:	00000062 	andeq	r0, r0, r2, rrx
    321c:	0000ce00 	andeq	ip, r0, r0, lsl #28
    3220:	5e000400 	cfcpyspl	mvf0, mvf0
    3224:	04000014 	streq	r0, [r0], #-20	; 0xffffffec
    3228:	00022a01 	andeq	r2, r2, r1, lsl #20
    322c:	09b90c00 	ldmibeq	r9!, {sl, fp}
    3230:	03310000 	teqeq	r1, #0, 0
    3234:	92c00000 	sbcls	r0, r0, #0, 0
    3238:	00040000 	andeq	r0, r4, r0
    323c:	1bb70000 	blne	fedc3244 <__bss_end__+0xfedb95e4>
    3240:	04020000 	streq	r0, [r2], #-0
    3244:	746e6905 	strbtvc	r6, [lr], #-2309	; 0xfffff6fb
    3248:	07040300 	streq	r0, [r4, -r0, lsl #6]
    324c:	0000006b 	andeq	r0, r0, fp, rrx
    3250:	0a060103 	beq	183664 <__bss_end__+0x179a04>
    3254:	03000000 	movweq	r0, #0
    3258:	00ef0502 	rsceq	r0, pc, r2, lsl #10
    325c:	04030000 	streq	r0, [r3], #-0
    3260:	00007d05 	andeq	r7, r0, r5, lsl #26
    3264:	05080300 	streq	r0, [r8, #-768]	; 0xfffffd00
    3268:	00000078 	andeq	r0, r0, r8, ror r0
    326c:	08080103 	stmdaeq	r8, {r0, r1, r8}
    3270:	03000000 	movweq	r0, #0
    3274:	00230702 	eoreq	r0, r3, r2, lsl #14
    3278:	04030000 	streq	r0, [r3], #-0
    327c:	00006607 	andeq	r6, r0, r7, lsl #12
    3280:	07080300 	streq	r0, [r8, -r0, lsl #6]
    3284:	00000061 	andeq	r0, r0, r1, rrx
    3288:	00002504 	andeq	r2, r0, r4, lsl #10
    328c:	00007a00 	andeq	r7, r0, r0, lsl #20
    3290:	00250500 	eoreq	r0, r5, r0, lsl #10
    3294:	06000000 	streq	r0, [r0], -r0
    3298:	00000086 	andeq	r0, r0, r6, lsl #1
    329c:	860e1c02 	strhi	r1, [lr], -r2, lsl #24
    32a0:	07000000 	streq	r0, [r0, -r0]
    32a4:	00006b04 	andeq	r6, r0, r4, lsl #22
    32a8:	00250400 	eoreq	r0, r5, r0, lsl #8
    32ac:	009b0000 	addseq	r0, fp, r0
    32b0:	9b050000 	blls	1432b8 <__bss_end__+0x139658>
    32b4:	00000000 	andeq	r0, r0, r0
    32b8:	00a80407 	adceq	r0, r8, r7, lsl #8
    32bc:	01030000 	mrseq	r0, (UNDEF: 3)
    32c0:	00001108 	andeq	r1, r0, r8, lsl #2
    32c4:	00a10800 	adceq	r0, r1, r0, lsl #16
    32c8:	82060000 	andhi	r0, r6, #0, 0
    32cc:	02000003 	andeq	r0, r0, #3, 0
    32d0:	00b90e21 	adcseq	r0, r9, r1, lsr #28
    32d4:	04070000 	streq	r0, [r7], #-0
    32d8:	0000008c 	andeq	r0, r0, ip, lsl #1
    32dc:	00053309 	andeq	r3, r5, r9, lsl #6
    32e0:	06030100 	streq	r0, [r3], -r0, lsl #2
    32e4:	000092c0 	andeq	r9, r0, r0, asr #5
    32e8:	00000004 	andeq	r0, r0, r4
    32ec:	a5009c01 	strge	r9, [r0, #-3073]	; 0xfffff3ff
    32f0:	04000003 	streq	r0, [r0], #-3
    32f4:	0014d700 	andseq	sp, r4, r0, lsl #14
    32f8:	0f010400 	svceq	0x00010400
    32fc:	0c000007 	stceq	0, cr0, [r0], {7}
    3300:	00000a5d 	andeq	r0, r0, sp, asr sl
    3304:	000006bf 			; <UNDEFINED> instruction: 0x000006bf
    3308:	000092dc 	ldrdeq	r9, [r0], -ip
    330c:	0000011c 	andeq	r0, r0, ip, lsl r1
    3310:	00001c6b 	andeq	r1, r0, fp, ror #24
    3314:	69050402 	stmdbvs	r5, {r1, sl}
    3318:	0300746e 	movweq	r7, #1134	; 0x46e
    331c:	006b0704 	rsbeq	r0, fp, r4, lsl #14
    3320:	2c040000 	stccs	0, cr0, [r4], {-0}
    3324:	03000000 	movweq	r0, #0
    3328:	000a0601 	andeq	r0, sl, r1, lsl #12
    332c:	02030000 	andeq	r0, r3, #0, 0
    3330:	0000ef05 	andeq	lr, r0, r5, lsl #30
    3334:	05040300 	streq	r0, [r4, #-768]	; 0xfffffd00
    3338:	0000007d 	andeq	r0, r0, sp, ror r0
    333c:	78050803 	stmdavc	r5, {r0, r1, fp}
    3340:	03000000 	movweq	r0, #0
    3344:	00080801 	andeq	r0, r8, r1, lsl #16
    3348:	02030000 	andeq	r0, r3, #0, 0
    334c:	00002307 	andeq	r2, r0, r7, lsl #6
    3350:	040c0500 	streq	r0, [ip], #-1280	; 0xfffffb00
    3354:	34030000 	strcc	r0, [r3], #-0
    3358:	00006e19 	andeq	r6, r0, r9, lsl lr
    335c:	07040300 	streq	r0, [r4, -r0, lsl #6]
    3360:	00000066 	andeq	r0, r0, r6, rrx
    3364:	61070803 	tstvs	r7, r3, lsl #16
    3368:	03000000 	movweq	r0, #0
    336c:	00110801 	andseq	r0, r1, r1, lsl #16
    3370:	07060000 	streq	r0, [r6, -r0]
    3374:	00005401 	andeq	r5, r0, r1, lsl #8
    3378:	0e0c0400 	cfcpyseq	mvf0, mvf12
    337c:	000000c2 	andeq	r0, r0, r2, asr #1
    3380:	0007f907 	andeq	pc, r7, r7, lsl #18
    3384:	31070000 	mrscc	r0, (UNDEF: 7)
    3388:	01000006 	tsteq	r0, r6
    338c:	00067407 	andeq	r7, r6, r7, lsl #8
    3390:	83070400 	movwhi	r0, #29696	; 0x7400
    3394:	05000006 	streq	r0, [r0, #-6]
    3398:	00069207 	andeq	r9, r6, r7, lsl #4
    339c:	a1070600 	tstge	r7, r0, lsl #12
    33a0:	07000006 	streq	r0, [r0, -r6]
    33a4:	0007c207 	andeq	ip, r7, r7, lsl #4
    33a8:	b0070300 	andlt	r0, r7, r0, lsl #6
    33ac:	02000006 	andeq	r0, r0, #6, 0
    33b0:	0a420500 	beq	10847b8 <__bss_end__+0x107ab58>
    33b4:	15040000 	strne	r0, [r4, #-0]
    33b8:	00008303 	andeq	r8, r0, r3, lsl #6
    33bc:	09e80800 	stmibeq	r8!, {fp}^
    33c0:	1d010000 	stcne	0, cr0, [r1, #-0]
    33c4:	00003317 	andeq	r3, r0, r7, lsl r3
    33c8:	20001c00 	andcs	r1, r0, r0, lsl #24
    33cc:	09de0820 	ldmibeq	lr, {r5, fp}^
    33d0:	1e010000 	cdpne	0, 0, cr0, cr1, cr0, {0}
    33d4:	00003317 	andeq	r3, r0, r7, lsl r3
    33d8:	20002800 	andcs	r2, r0, r0, lsl #16
    33dc:	0a4e0820 	beq	1385464 <__bss_end__+0x137b804>
    33e0:	1f010000 	svcne	0x00010000
    33e4:	00003317 	andeq	r3, r0, r7, lsl r3
    33e8:	20003400 	andcs	r3, r0, r0, lsl #8
    33ec:	0a070920 	beq	1c5874 <__bss_end__+0x1bbc14>
    33f0:	55010000 	strpl	r0, [r1, #-0]
    33f4:	00002505 	andeq	r2, r0, r5, lsl #10
    33f8:	0093c400 	addseq	ip, r3, r0, lsl #8
    33fc:	00003400 	andeq	r3, r0, r0, lsl #8
    3400:	6e9c0100 	fmlvse	f0, f4, f0
    3404:	0a000001 	beq	3410 <__code_start__-0x4bf0>
    3408:	006e6970 	rsbeq	r6, lr, r0, ror r9
    340c:	2c185501 	cfldr32cs	mvfx5, [r8], {1}
    3410:	c9000000 	stmdbgt	r0, {}	; <UNPREDICTABLE>
    3414:	c1000015 	tstgt	r0, r5, lsl r0
    3418:	0b000015 	bleq	3474 <__code_start__-0x4b8c>
    341c:	00000a58 	andeq	r0, r0, r8, asr sl
    3420:	2c0e5801 	stccs	8, cr5, [lr], {1}
    3424:	09000000 	stmdbeq	r0, {}	; <UNPREDICTABLE>
    3428:	03000016 	movweq	r0, #22
    342c:	0c000016 	stceq	0, cr0, [r0], {22}
    3430:	0066666f 	rsbeq	r6, r6, pc, ror #12
    3434:	2c0e5901 			; <UNDEFINED> instruction: 0x2c0e5901
    3438:	49000000 	stmdbmi	r0, {}	; <UNPREDICTABLE>
    343c:	47000016 	smladmi	r0, r6, r0, r0
    3440:	0d000016 	stceq	0, cr0, [r0, #-88]	; 0xffffffa8
    3444:	000093e0 	andeq	r9, r0, r0, ror #7
    3448:	00000390 	muleq	r0, r0, r3
    344c:	0b50010e 	bleq	140388c <__bss_end__+0x13f9c2c>
    3450:	355001f3 	ldrbcc	r0, [r0, #-499]	; 0xfffffe0d
    3454:	80b42325 	adcshi	r2, r4, r5, lsr #6
    3458:	00028180 	andeq	r8, r2, r0, lsl #3
    345c:	09f20f00 	ldmibeq	r2!, {r8, r9, sl, fp}^
    3460:	4e010000 	cdpmi	0, 0, cr0, cr1, cr0, {0}
    3464:	0093a806 	addseq	sl, r3, r6, lsl #16
    3468:	00001c00 	andeq	r1, r0, r0, lsl #24
    346c:	c99c0100 	ldmibgt	ip, {r8}
    3470:	0a000001 	beq	347c <__code_start__-0x4b84>
    3474:	006e6970 	rsbeq	r6, lr, r0, ror r9
    3478:	2c1a4e01 	ldccs	14, cr4, [sl], {1}
    347c:	64000000 	strvs	r0, [r0], #-0
    3480:	5c000016 	stcpl	0, cr0, [r0], {22}
    3484:	0a000016 	beq	34e4 <__code_start__-0x4b1c>
    3488:	4e010076 	mcrmi	0, 0, r0, cr1, cr6, {3}
    348c:	00002c28 	andeq	r2, r0, r8, lsr #24
    3490:	0016a600 	andseq	sl, r6, r0, lsl #12
    3494:	00169e00 	andseq	r9, r6, r0, lsl #28
    3498:	93b81000 			; <UNDEFINED> instruction: 0x93b81000
    349c:	02510000 	subseq	r0, r1, #0, 0
    34a0:	01bf0000 			; <UNDEFINED> instruction: 0x01bf0000
    34a4:	010e0000 	mrseq	r0, (UNDEF: 14)
    34a8:	01f30350 	mvnseq	r0, r0, asr r3
    34ac:	c0110050 	andsgt	r0, r1, r0, asr r0
    34b0:	0a000093 	beq	3704 <__code_start__-0x48fc>
    34b4:	00000002 	andeq	r0, r0, r2
    34b8:	000a110f 	andeq	r1, sl, pc, lsl #2
    34bc:	06490100 	strbeq	r0, [r9], -r0, lsl #2
    34c0:	00009398 	muleq	r0, r8, r3
    34c4:	00000010 	andeq	r0, r0, r0, lsl r0
    34c8:	020a9c01 	andeq	r9, sl, #256	; 0x100
    34cc:	700a0000 	andvc	r0, sl, r0
    34d0:	01006e69 	tsteq	r0, r9, ror #28
    34d4:	002c1e49 	eoreq	r1, ip, r9, asr #28
    34d8:	16e40000 	strbtne	r0, [r4], r0
    34dc:	16e00000 	strbtne	r0, [r0], r0
    34e0:	a40d0000 	strge	r0, [sp], #-0
    34e4:	d9000093 	stmdble	r0, {r0, r1, r4, r7}
    34e8:	0e000002 	cdpeq	0, 0, cr0, cr0, cr2, {0}
    34ec:	f3035001 	vhadd.u8	d5, d3, d1
    34f0:	010e5001 	tsteq	lr, r1
    34f4:	00300151 	eorseq	r0, r0, r1, asr r1
    34f8:	0a200f00 	beq	807100 <__bss_end__+0x7fd4a0>
    34fc:	42010000 	andmi	r0, r1, #0, 0
    3500:	00937406 	addseq	r7, r3, r6, lsl #8
    3504:	00002400 	andeq	r2, r0, r0, lsl #8
    3508:	519c0100 	orrspl	r0, ip, r0, lsl #2
    350c:	0a000002 	beq	351c <__code_start__-0x4ae4>
    3510:	006e6970 	rsbeq	r6, lr, r0, ror r9
    3514:	2c1c4201 	lfmcs	f4, 4, [ip], {1}
    3518:	09000000 	stmdbeq	r0, {}	; <UNPREDICTABLE>
    351c:	05000017 	streq	r0, [r0, #-23]	; 0xffffffe9
    3520:	0d000017 	stceq	0, cr0, [r0, #-92]	; 0xffffffa4
    3524:	00009390 	muleq	r0, r0, r3
    3528:	0000039c 	muleq	r0, ip, r3
    352c:	0550010e 	ldrbeq	r0, [r0, #-270]	; 0xfffffef2
    3530:	2000280c 	andcs	r2, r0, ip, lsl #16
    3534:	51010e20 	tstpl	r1, r0, lsr #28
    3538:	01f33105 	mvnseq	r3, r5, lsl #2
    353c:	00002450 	andeq	r2, r0, r0, asr r4
    3540:	000a640f 	andeq	r6, sl, pc, lsl #8
    3544:	063b0100 	ldrteq	r0, [fp], -r0, lsl #2
    3548:	00009350 	andeq	r9, r0, r0, asr r3
    354c:	00000024 	andeq	r0, r0, r4, lsr #32
    3550:	02989c01 	addseq	r9, r8, #256	; 0x100
    3554:	700a0000 	andvc	r0, sl, r0
    3558:	01006e69 	tsteq	r0, r9, ror #28
    355c:	002c1b3b 	eoreq	r1, ip, fp, lsr fp
    3560:	172e0000 	strne	r0, [lr, -r0]!
    3564:	172a0000 	strne	r0, [sl, -r0]!
    3568:	6c0d0000 	stcvs	0, cr0, [sp], {-0}
    356c:	9c000093 	stcls	0, cr0, [r0], {147}	; 0x93
    3570:	0e000003 	cdpeq	0, 0, cr0, cr0, cr3, {0}
    3574:	0c055001 	stceq	0, cr5, [r5], {1}
    3578:	2020001c 	eorcs	r0, r0, ip, lsl r0
    357c:	0551010e 	ldrbeq	r0, [r1, #-270]	; 0xfffffef2
    3580:	5001f331 	andpl	pc, r1, r1, lsr r3	; <UNPREDICTABLE>
    3584:	0f000024 	svceq	0x00000024
    3588:	00000a2d 	andeq	r0, r0, sp, lsr #20
    358c:	40063601 	andmi	r3, r6, r1, lsl #12
    3590:	10000093 	mulne	r0, r3, r0
    3594:	01000000 	mrseq	r0, (UNDEF: 0)
    3598:	0002d99c 	muleq	r2, ip, r9
    359c:	69700a00 	ldmdbvs	r0!, {r9, fp}^
    35a0:	3601006e 	strcc	r0, [r1], -lr, rrx
    35a4:	00002c1f 	andeq	r2, r0, pc, lsl ip
    35a8:	00175300 	andseq	r5, r7, r0, lsl #6
    35ac:	00174f00 	andseq	r4, r7, r0, lsl #30
    35b0:	934c0d00 	movtls	r0, #52480	; 0xcd00
    35b4:	02d90000 	sbcseq	r0, r9, #0, 0
    35b8:	010e0000 	mrseq	r0, (UNDEF: 14)
    35bc:	01f30350 	mvnseq	r0, r0, asr r3
    35c0:	51010e50 	tstpl	r1, r0, asr lr
    35c4:	00003101 	andeq	r3, r0, r1, lsl #2
    35c8:	0008090f 	andeq	r0, r8, pc, lsl #18
    35cc:	06280100 	strteq	r0, [r8], -r0, lsl #2
    35d0:	000092dc 	ldrdeq	r9, [r0], -ip
    35d4:	00000064 	andeq	r0, r0, r4, rrx
    35d8:	03749c01 	cmneq	r4, #256	; 0x100
    35dc:	700a0000 	andvc	r0, sl, r0
    35e0:	01006e69 	tsteq	r0, r9, ror #28
    35e4:	002c2128 	eoreq	r2, ip, r8, lsr #2
    35e8:	17780000 	ldrbne	r0, [r8, -r0]!
    35ec:	17740000 	ldrbne	r0, [r4, -r0]!
    35f0:	3d120000 	ldccc	0, cr0, [r2, #-0]
    35f4:	0100000a 	tsteq	r0, sl
    35f8:	00c23228 	sbceq	r3, r2, r8, lsr #4
    35fc:	179d0000 	ldrne	r0, [sp, r0]
    3600:	17990000 	ldrne	r0, [r9, r0]
    3604:	6f0c0000 	svcvs	0x000c0000
    3608:	01006666 	tsteq	r0, r6, ror #12
    360c:	002c0e2d 	eoreq	r0, ip, sp, lsr #28
    3610:	17c00000 	strbne	r0, [r0, r0]
    3614:	17be0000 	ldrne	r0, [lr, r0]!
    3618:	670c0000 	strvs	r0, [ip, -r0]
    361c:	0e2e0100 	sufeqe	f0, f6, f0
    3620:	0000002c 	andeq	r0, r0, ip, lsr #32
    3624:	000017d5 	ldrdeq	r1, [r0], -r5
    3628:	000017d3 	ldrdeq	r1, [r0], -r3
    362c:	0100760c 	tsteq	r0, ip, lsl #12
    3630:	002c0e30 	eoreq	r0, ip, r0, lsr lr
    3634:	17f00000 	ldrbne	r0, [r0, r0]!
    3638:	17e80000 	strbne	r0, [r8, r0]!
    363c:	24100000 	ldrcs	r0, [r0], #-0
    3640:	90000093 	mulls	r0, r3, r0
    3644:	63000003 	movwvs	r0, #3
    3648:	0e000003 	cdpeq	0, 0, cr0, cr0, cr3, {0}
    364c:	76025001 	strvc	r5, [r2], -r1
    3650:	380d0000 	stmdacc	sp, {}	; <UNPREDICTABLE>
    3654:	9c000093 	stcls	0, cr0, [r0], {147}	; 0x93
    3658:	0e000003 	cdpeq	0, 0, cr0, cr0, cr3, {0}
    365c:	76025001 	strvc	r5, [r2], -r1
    3660:	13000000 	movwne	r0, #0
    3664:	000009fd 	strdeq	r0, [r0], -sp
    3668:	6218b602 	andsvs	fp, r8, #2097152	; 0x200000
    366c:	03000000 	movweq	r0, #0
    3670:	00000390 	muleq	r0, r0, r3
    3674:	02007814 	andeq	r7, r0, #20, 16	; 0x140000
    3678:	00622bb6 	strhteq	r2, [r2], #-182	; 0xffffff4a
    367c:	15000000 	strne	r0, [r0, #-0]
    3680:	000005de 	ldrdeq	r0, [r0], -lr
    3684:	000005de 	ldrdeq	r0, [r0], -lr
    3688:	150ac702 	strne	ip, [sl, #-1794]	; 0xfffff8fe
    368c:	0000054a 	andeq	r0, r0, sl, asr #10
    3690:	0000054a 	andeq	r0, r0, sl, asr #10
    3694:	0006b202 	andeq	fp, r6, r2, lsl #4

Disassembly of section .debug_abbrev:

00000000 <.debug_abbrev>:
       0:	25011101 	strcs	r1, [r1, #-257]	; 0xfffffeff
       4:	030b130e 	movweq	r1, #45838	; 0xb30e
       8:	110e1b0e 	tstne	lr, lr, lsl #22
       c:	10061201 	andne	r1, r6, r1, lsl #4
      10:	02000017 	andeq	r0, r0, #23, 0
      14:	0b0b0024 	bleq	2c00ac <__bss_end__+0x2b644c>
      18:	08030b3e 	stmdaeq	r3, {r1, r2, r3, r4, r5, r8, r9, fp}
      1c:	24030000 	strcs	r0, [r3], #-0
      20:	3e0b0b00 	vmlacc.f64	d0, d11, d0
      24:	000e030b 	andeq	r0, lr, fp, lsl #6
      28:	01150400 	tsteq	r5, r0, lsl #8
      2c:	13491927 	movtne	r1, #39207	; 0x9927
      30:	00001301 	andeq	r1, r0, r1, lsl #6
      34:	49000505 	stmdbmi	r0, {r0, r2, r8, sl}
      38:	06000013 			; <UNDEFINED> instruction: 0x06000013
      3c:	0e030034 	mcreq	0, 0, r0, cr3, cr4, {1}
      40:	0b3b0b3a 	bleq	ec2d30 <__bss_end__+0xeb90d0>
      44:	13490b39 	movtne	r0, #39737	; 0x9b39
      48:	193c193f 	ldmdbne	ip!, {r0, r1, r2, r3, r4, r5, r8, fp, ip}
      4c:	0f070000 	svceq	0x00070000
      50:	490b0b00 	stmdbmi	fp, {r8, r9, fp}
      54:	08000013 	stmdaeq	r0, {r0, r1, r4}
      58:	13490026 	movtne	r0, #36902	; 0x9026
      5c:	2e090000 	cdpcs	0, 0, cr0, cr9, cr0, {0}
      60:	03193f01 	tsteq	r9, #1, 30
      64:	3b0b3a0e 	blcc	2ce8a4 <__bss_end__+0x2c4c44>
      68:	270b390b 	strcs	r3, [fp, -fp, lsl #18]
      6c:	12011119 	andne	r1, r1, #1073741830	; 0x40000006
      70:	97184006 	ldrls	r4, [r8, -r6]
      74:	13011942 	movwne	r1, #6466	; 0x1942
      78:	340a0000 	strcc	r0, [sl], #-0
      7c:	3a080300 	bcc	200c84 <__bss_end__+0x1f7024>
      80:	390b3b0b 	stmdbcc	fp, {r0, r1, r3, r8, r9, fp, ip, sp}
      84:	0213490b 	andseq	r4, r3, #180224	; 0x2c000
      88:	1742b717 	smlaldne	fp, r2, r7, r7
      8c:	340b0000 	strcc	r0, [fp], #-0
      90:	3a080300 	bcc	200c98 <__bss_end__+0x1f7038>
      94:	390b3b0b 	stmdbcc	fp, {r0, r1, r3, r8, r9, fp, ip, sp}
      98:	1c13490b 			; <UNDEFINED> instruction: 0x1c13490b
      9c:	0c00000b 	stceq	0, cr0, [r0], {11}
      a0:	0e030034 	mcreq	0, 0, r0, cr3, cr4, {1}
      a4:	0b3b0b3a 	bleq	ec2d94 <__bss_end__+0xeb9134>
      a8:	13490b39 	movtne	r0, #39737	; 0x9b39
      ac:	00000b1c 	andeq	r0, r0, ip, lsl fp
      b0:	0300340d 	movweq	r3, #1037	; 0x40d
      b4:	3413490e 	ldrcc	r4, [r3], #-2318	; 0xfffff6f2
      b8:	00180219 	andseq	r0, r8, r9, lsl r2
      bc:	010b0e00 	tsteq	fp, r0, lsl #28
      c0:	06120111 			; <UNDEFINED> instruction: 0x06120111
      c4:	00001301 	andeq	r1, r0, r1, lsl #6
      c8:	55010b0f 	strpl	r0, [r1, #-2831]	; 0xfffff4f1
      cc:	10000017 	andne	r0, r0, r7, lsl r0
      d0:	01018289 	smlabbeq	r1, r9, r2, r8
      d4:	13310111 	teqne	r1, #1073741828	; 0x40000004
      d8:	00001301 	andeq	r1, r0, r1, lsl #6
      dc:	01828a11 	orreq	r8, r2, r1, lsl sl
      e0:	91180200 	tstls	r8, r0, lsl #4
      e4:	00001842 	andeq	r1, r0, r2, asr #16
      e8:	01828912 	orreq	r8, r2, r2, lsl r9
      ec:	31011100 	mrscc	r1, (UNDEF: 17)
      f0:	13000013 	movwne	r0, #19
      f4:	01018289 	smlabbeq	r1, r9, r2, r8
      f8:	13310111 	teqne	r1, #1073741828	; 0x40000004
      fc:	01140000 	tsteq	r4, r0
     100:	01134901 	tsteq	r3, r1, lsl #18
     104:	15000013 	strne	r0, [r0, #-19]	; 0xffffffed
     108:	13490021 	movtne	r0, #36897	; 0x9021
     10c:	00000b2f 	andeq	r0, r0, pc, lsr #22
     110:	3f002e16 	svccc	0x00002e16
     114:	6e193c19 	mrcvs	12, 0, r3, cr9, cr9, {0}
     118:	3a0e030e 	bcc	380d58 <__bss_end__+0x3770f8>
     11c:	390b3b0b 	stmdbcc	fp, {r0, r1, r3, r8, r9, fp, ip, sp}
     120:	0000000b 	andeq	r0, r0, fp
     124:	25011101 	strcs	r1, [r1, #-257]	; 0xfffffeff
     128:	030b130e 	movweq	r1, #45838	; 0xb30e
     12c:	110e1b0e 	tstne	lr, lr, lsl #22
     130:	10061201 	andne	r1, r6, r1, lsl #4
     134:	02000017 	andeq	r0, r0, #23, 0
     138:	0b0b0024 	bleq	2c01d0 <__bss_end__+0x2b6570>
     13c:	08030b3e 	stmdaeq	r3, {r1, r2, r3, r4, r5, r8, r9, fp}
     140:	24030000 	strcs	r0, [r3], #-0
     144:	3e0b0b00 	vmlacc.f64	d0, d11, d0
     148:	000e030b 	andeq	r0, lr, fp, lsl #6
     14c:	01150400 	tsteq	r5, r0, lsl #8
     150:	13491927 	movtne	r1, #39207	; 0x9927
     154:	00001301 	andeq	r1, r0, r1, lsl #6
     158:	49000505 	stmdbmi	r0, {r0, r2, r8, sl}
     15c:	06000013 			; <UNDEFINED> instruction: 0x06000013
     160:	0e030034 	mcreq	0, 0, r0, cr3, cr4, {1}
     164:	0b3b0b3a 	bleq	ec2e54 <__bss_end__+0xeb91f4>
     168:	13490b39 	movtne	r0, #39737	; 0x9b39
     16c:	193c193f 	ldmdbne	ip!, {r0, r1, r2, r3, r4, r5, r8, fp, ip}
     170:	0f070000 	svceq	0x00070000
     174:	490b0b00 	stmdbmi	fp, {r8, r9, fp}
     178:	08000013 	stmdaeq	r0, {r0, r1, r4}
     17c:	13490026 	movtne	r0, #36902	; 0x9026
     180:	17090000 	strne	r0, [r9, -r0]
     184:	0b0e0301 	bleq	380d90 <__bss_end__+0x377130>
     188:	3b0b3a0b 	blcc	2ce9bc <__bss_end__+0x2c4d5c>
     18c:	010b390b 	tsteq	fp, fp, lsl #18
     190:	0a000013 	beq	1e4 <__code_start__-0x7e1c>
     194:	0803000d 	stmdaeq	r3, {r0, r2, r3}
     198:	0b3b0b3a 	bleq	ec2e88 <__bss_end__+0xeb9228>
     19c:	13490b39 	movtne	r0, #39737	; 0x9b39
     1a0:	0f0b0000 	svceq	0x000b0000
     1a4:	000b0b00 	andeq	r0, fp, r0, lsl #22
     1a8:	00150c00 	andseq	r0, r5, r0, lsl #24
     1ac:	00001927 	andeq	r1, r0, r7, lsr #18
     1b0:	0b01130d 	bleq	44dec <__bss_end__+0x3b18c>
     1b4:	3b0b3a0b 	blcc	2ce9e8 <__bss_end__+0x2c4d88>
     1b8:	010b390b 	tsteq	fp, fp, lsl #18
     1bc:	0e000013 	mcreq	0, 0, r0, cr0, cr3, {0}
     1c0:	0803000d 	stmdaeq	r3, {r0, r2, r3}
     1c4:	0b3b0b3a 	bleq	ec2eb4 <__bss_end__+0xeb9254>
     1c8:	13490b39 	movtne	r0, #39737	; 0x9b39
     1cc:	00000b38 	andeq	r0, r0, r8, lsr fp
     1d0:	03000d0f 	movweq	r0, #3343	; 0xd0f
     1d4:	3b0b3a0e 	blcc	2cea14 <__bss_end__+0x2c4db4>
     1d8:	490b390b 	stmdbmi	fp, {r0, r1, r3, r8, fp, ip, sp}
     1dc:	000b3813 	andeq	r3, fp, r3, lsl r8
     1e0:	00161000 	andseq	r1, r6, r0
     1e4:	0b3a0e03 	bleq	e839f8 <__bss_end__+0xe79d98>
     1e8:	0b390b3b 	bleq	e42edc <__bss_end__+0xe3927c>
     1ec:	00001349 	andeq	r1, r0, r9, asr #6
     1f0:	03003411 	movweq	r3, #1041	; 0x411
     1f4:	3b0b3a0e 	blcc	2cea34 <__bss_end__+0x2c4dd4>
     1f8:	490b390b 	stmdbmi	fp, {r0, r1, r3, r8, fp, ip, sp}
     1fc:	00180213 	andseq	r0, r8, r3, lsl r2
     200:	012e1200 			; <UNDEFINED> instruction: 0x012e1200
     204:	0e03193f 			; <UNDEFINED> instruction: 0x0e03193f
     208:	0b3b0b3a 	bleq	ec2ef8 <__bss_end__+0xeb9298>
     20c:	19270b39 	stmdbne	r7!, {r0, r3, r4, r5, r8, r9, fp}
     210:	06120111 			; <UNDEFINED> instruction: 0x06120111
     214:	42971840 	addsmi	r1, r7, #64, 16	; 0x400000
     218:	00130119 	andseq	r0, r3, r9, lsl r1
     21c:	00051300 	andeq	r1, r5, r0, lsl #6
     220:	0b3a0803 	bleq	e82234 <__bss_end__+0xe785d4>
     224:	0b390b3b 	bleq	e42f18 <__bss_end__+0xe392b8>
     228:	18021349 	stmdane	r2, {r0, r3, r6, r8, r9, ip}
     22c:	34140000 	ldrcc	r0, [r4], #-0
     230:	3a080300 	bcc	200e38 <__bss_end__+0x1f71d8>
     234:	390b3b0b 	stmdbcc	fp, {r0, r1, r3, r8, r9, fp, ip, sp}
     238:	0213490b 	andseq	r4, r3, #180224	; 0x2c000
     23c:	1742b717 	smlaldne	fp, r2, r7, r7
     240:	2e150000 	cdpcs	0, 1, cr0, cr5, cr0, {0}
     244:	03193f01 	tsteq	r9, #1, 30
     248:	3b0b3a0e 	blcc	2cea88 <__bss_end__+0x2c4e28>
     24c:	270b390b 	strcs	r3, [fp, -fp, lsl #18]
     250:	11134919 	tstne	r3, r9, lsl r9
     254:	40061201 	andmi	r1, r6, r1, lsl #4
     258:	19429718 	stmdbne	r2, {r3, r4, r8, r9, sl, ip, pc}^
     25c:	00001301 	andeq	r1, r0, r1, lsl #6
     260:	03000516 	movweq	r0, #1302	; 0x516
     264:	3b0b3a0e 	blcc	2ceaa4 <__bss_end__+0x2c4e44>
     268:	490b390b 	stmdbmi	fp, {r0, r1, r3, r8, fp, ip, sp}
     26c:	b7170213 			; <UNDEFINED> instruction: 0xb7170213
     270:	00001742 	andeq	r1, r0, r2, asr #14
     274:	03003417 	movweq	r3, #1047	; 0x417
     278:	3b0b3a0e 	blcc	2ceab8 <__bss_end__+0x2c4e58>
     27c:	490b390b 	stmdbmi	fp, {r0, r1, r3, r8, fp, ip, sp}
     280:	b7170213 			; <UNDEFINED> instruction: 0xb7170213
     284:	00001742 	andeq	r1, r0, r2, asr #14
     288:	3f012e18 	svccc	0x00012e18
     28c:	3a0e0319 	bcc	380ef8 <__bss_end__+0x377298>
     290:	390b3b0b 	stmdbcc	fp, {r0, r1, r3, r8, r9, fp, ip, sp}
     294:	4919270b 	ldmdbmi	r9, {r0, r1, r3, r8, r9, sl, sp}
     298:	01193c13 	tsteq	r9, r3, lsl ip
     29c:	19000013 	stmdbne	r0, {r0, r1, r4}
     2a0:	01018289 	smlabbeq	r1, r9, r2, r8
     2a4:	13310111 	teqne	r1, #1073741828	; 0x40000004
     2a8:	8a1a0000 	bhi	6802b0 <__bss_end__+0x676650>
     2ac:	02000182 	andeq	r0, r0, #-2147483616	; 0x80000020
     2b0:	18429118 	stmdane	r2, {r3, r4, r8, ip, pc}^
     2b4:	2e1b0000 	cdpcs	0, 1, cr0, cr11, cr0, {0}
     2b8:	3a0e0301 	bcc	380ec4 <__bss_end__+0x377264>
     2bc:	390b3b0b 	stmdbcc	fp, {r0, r1, r3, r8, r9, fp, ip, sp}
     2c0:	4919270b 	ldmdbmi	r9, {r0, r1, r3, r8, r9, sl, sp}
     2c4:	12011113 	andne	r1, r1, #-1073741820	; 0xc0000004
     2c8:	97184006 	ldrls	r4, [r8, -r6]
     2cc:	13011942 	movwne	r1, #6466	; 0x1942
     2d0:	051c0000 	ldreq	r0, [ip, #-0]
     2d4:	3a080300 	bcc	200edc <__bss_end__+0x1f727c>
     2d8:	390b3b0b 	stmdbcc	fp, {r0, r1, r3, r8, r9, fp, ip, sp}
     2dc:	0213490b 	andseq	r4, r3, #180224	; 0x2c000
     2e0:	1742b717 	smlaldne	fp, r2, r7, r7
     2e4:	891d0000 	ldmdbhi	sp, {}	; <UNPREDICTABLE>
     2e8:	11010182 	smlabbne	r1, r2, r1, r0
     2ec:	01133101 	tsteq	r3, r1, lsl #2
     2f0:	1e000013 	mcrne	0, 0, r0, cr0, cr3, {0}
     2f4:	00018289 	andeq	r8, r1, r9, lsl #5
     2f8:	13310111 	teqne	r1, #1073741828	; 0x40000004
     2fc:	2e1f0000 	cdpcs	0, 1, cr0, cr15, cr0, {0}
     300:	3c193f00 	ldccc	15, cr3, [r9], {-0}
     304:	030e6e19 	movweq	r6, #60953	; 0xee19
     308:	3b0b3a0e 	blcc	2ceb48 <__bss_end__+0x2c4ee8>
     30c:	000b390b 	andeq	r3, fp, fp, lsl #18
     310:	11010000 	mrsne	r0, (UNDEF: 1)
     314:	130e2501 	movwne	r2, #58625	; 0xe501
     318:	1b0e030b 	blne	380f4c <__bss_end__+0x3772ec>
     31c:	1201110e 	andne	r1, r1, #-2147483645	; 0x80000003
     320:	00171006 	andseq	r1, r7, r6
     324:	00240200 	eoreq	r0, r4, r0, lsl #4
     328:	0b3e0b0b 	bleq	f82f5c <__bss_end__+0xf792fc>
     32c:	00000803 	andeq	r0, r0, r3, lsl #16
     330:	0b002403 	bleq	9344 <gpio_set_output+0x4>
     334:	030b3e0b 	movweq	r3, #48651	; 0xbe0b
     338:	0400000e 	streq	r0, [r0], #-14
     33c:	19270115 	stmdbne	r7!, {r0, r2, r4, r8}
     340:	13011349 	movwne	r1, #4937	; 0x1349
     344:	05050000 	streq	r0, [r5, #-0]
     348:	00134900 	andseq	r4, r3, r0, lsl #18
     34c:	00340600 	eorseq	r0, r4, r0, lsl #12
     350:	0b3a0e03 	bleq	e83b64 <__bss_end__+0xe79f04>
     354:	0b390b3b 	bleq	e43048 <__bss_end__+0xe393e8>
     358:	193f1349 	ldmdbne	pc!, {r0, r3, r6, r8, r9, ip}	; <UNPREDICTABLE>
     35c:	0000193c 	andeq	r1, r0, ip, lsr r9
     360:	0b000f07 	bleq	3f84 <__code_start__-0x407c>
     364:	0013490b 	andseq	r4, r3, fp, lsl #18
     368:	00260800 	eoreq	r0, r6, r0, lsl #16
     36c:	00001349 	andeq	r1, r0, r9, asr #6
     370:	3f012e09 	svccc	0x00012e09
     374:	3a0e0319 	bcc	380fe0 <__bss_end__+0x377380>
     378:	390b3b0b 	stmdbcc	fp, {r0, r1, r3, r8, r9, fp, ip, sp}
     37c:	4919270b 	ldmdbmi	r9, {r0, r1, r3, r8, r9, sl, sp}
     380:	12011113 	andne	r1, r1, #-1073741820	; 0xc0000004
     384:	97184006 	ldrls	r4, [r8, -r6]
     388:	13011942 	movwne	r1, #6466	; 0x1942
     38c:	050a0000 	streq	r0, [sl, #-0]
     390:	3a0e0300 	bcc	380f98 <__bss_end__+0x377338>
     394:	390b3b0b 	stmdbcc	fp, {r0, r1, r3, r8, r9, fp, ip, sp}
     398:	0213490b 	andseq	r4, r3, #180224	; 0x2c000
     39c:	1742b717 	smlaldne	fp, r2, r7, r7
     3a0:	890b0000 	stmdbhi	fp, {}	; <UNPREDICTABLE>
     3a4:	11010182 	smlabbne	r1, r2, r1, r0
     3a8:	00133101 	andseq	r3, r3, r1, lsl #2
     3ac:	828a0c00 	addhi	r0, sl, #0, 24
     3b0:	18020001 	stmdane	r2, {r0}
     3b4:	00184291 	mulseq	r8, r1, r2
     3b8:	000f0d00 	andeq	r0, pc, r0, lsl #26
     3bc:	00000b0b 	andeq	r0, r0, fp, lsl #22
     3c0:	3f002e0e 	svccc	0x00002e0e
     3c4:	6e193c19 	mrcvs	12, 0, r3, cr9, cr9, {0}
     3c8:	3a0e030e 	bcc	381008 <__bss_end__+0x3773a8>
     3cc:	390b3b0b 	stmdbcc	fp, {r0, r1, r3, r8, r9, fp, ip, sp}
     3d0:	0000000b 	andeq	r0, r0, fp
     3d4:	25011101 	strcs	r1, [r1, #-257]	; 0xfffffeff
     3d8:	030b130e 	movweq	r1, #45838	; 0xb30e
     3dc:	110e1b0e 	tstne	lr, lr, lsl #22
     3e0:	10061201 	andne	r1, r6, r1, lsl #4
     3e4:	02000017 	andeq	r0, r0, #23, 0
     3e8:	0e030016 	mcreq	0, 0, r0, cr3, cr6, {0}
     3ec:	0b3b0b3a 	bleq	ec30dc <__bss_end__+0xeb947c>
     3f0:	13490b39 	movtne	r0, #39737	; 0x9b39
     3f4:	13030000 	movwne	r0, #12288	; 0x3000
     3f8:	0b0e0301 	bleq	381004 <__bss_end__+0x3773a4>
     3fc:	3b0b3a0b 	blcc	2cec30 <__bss_end__+0x2c4fd0>
     400:	0013010b 	andseq	r0, r3, fp, lsl #2
     404:	000d0400 	andeq	r0, sp, r0, lsl #8
     408:	13490e03 	movtne	r0, #40451	; 0x9e03
     40c:	19340b38 	ldmdbne	r4!, {r3, r4, r5, r8, r9, fp}
     410:	0f050000 	svceq	0x00050000
     414:	000b0b00 	andeq	r0, fp, r0, lsl #22
     418:	00240600 	eoreq	r0, r4, r0, lsl #12
     41c:	0b3e0b0b 	bleq	f83050 <__bss_end__+0xf793f0>
     420:	00000803 	andeq	r0, r0, r3, lsl #16
     424:	0b002407 	bleq	9448 <__code_end__+0x50>
     428:	030b3e0b 	movweq	r3, #48651	; 0xbe0b
     42c:	0800000e 	stmdaeq	r0, {r1, r2, r3}
     430:	19270115 	stmdbne	r7!, {r0, r2, r4, r8}
     434:	13011349 	movwne	r1, #4937	; 0x1349
     438:	05090000 	streq	r0, [r9, #-0]
     43c:	00134900 	andseq	r4, r3, r0, lsl #18
     440:	00340a00 	eorseq	r0, r4, r0, lsl #20
     444:	0b3a0e03 	bleq	e83c58 <__bss_end__+0xe79ff8>
     448:	0b390b3b 	bleq	e4313c <__bss_end__+0xe394dc>
     44c:	193f1349 	ldmdbne	pc!, {r0, r3, r6, r8, r9, ip}	; <UNPREDICTABLE>
     450:	0000193c 	andeq	r1, r0, ip, lsr r9
     454:	0b000f0b 	bleq	4088 <__code_start__-0x3f78>
     458:	0013490b 	andseq	r4, r3, fp, lsl #18
     45c:	00260c00 	eoreq	r0, r6, r0, lsl #24
     460:	00001349 	andeq	r1, r0, r9, asr #6
     464:	3f012e0d 	svccc	0x00012e0d
     468:	3a0e0319 	bcc	3810d4 <__bss_end__+0x377474>
     46c:	390b3b0b 	stmdbcc	fp, {r0, r1, r3, r8, r9, fp, ip, sp}
     470:	4919270b 	ldmdbmi	r9, {r0, r1, r3, r8, r9, sl, sp}
     474:	12011113 	andne	r1, r1, #-1073741820	; 0xc0000004
     478:	97184006 	ldrls	r4, [r8, -r6]
     47c:	13011942 	movwne	r1, #6466	; 0x1942
     480:	050e0000 	streq	r0, [lr, #-0]
     484:	3a080300 	bcc	20108c <__bss_end__+0x1f742c>
     488:	390b3b0b 	stmdbcc	fp, {r0, r1, r3, r8, r9, fp, ip, sp}
     48c:	0213490b 	andseq	r4, r3, #180224	; 0x2c000
     490:	0f000018 	svceq	0x00000018
     494:	00000018 	andeq	r0, r0, r8, lsl r0
     498:	03003410 	movweq	r3, #1040	; 0x410
     49c:	3b0b3a08 	blcc	2cecc4 <__bss_end__+0x2c5064>
     4a0:	490b390b 	stmdbmi	fp, {r0, r1, r3, r8, fp, ip, sp}
     4a4:	00180213 	andseq	r0, r8, r3, lsl r2
     4a8:	00341100 	eorseq	r1, r4, r0, lsl #2
     4ac:	0b3a0e03 	bleq	e83cc0 <__bss_end__+0xe7a060>
     4b0:	0b390b3b 	bleq	e431a4 <__bss_end__+0xe39544>
     4b4:	18021349 	stmdane	r2, {r0, r3, r6, r8, r9, ip}
     4b8:	34120000 	ldrcc	r0, [r2], #-0
     4bc:	3a080300 	bcc	2010c4 <__bss_end__+0x1f7464>
     4c0:	390b3b0b 	stmdbcc	fp, {r0, r1, r3, r8, r9, fp, ip, sp}
     4c4:	0213490b 	andseq	r4, r3, #180224	; 0x2c000
     4c8:	1742b717 	smlaldne	fp, r2, r7, r7
     4cc:	89130000 	ldmdbhi	r3, {}	; <UNPREDICTABLE>
     4d0:	11010182 	smlabbne	r1, r2, r1, r0
     4d4:	01133101 	tsteq	r3, r1, lsl #2
     4d8:	14000013 	strne	r0, [r0], #-19	; 0xffffffed
     4dc:	0001828a 	andeq	r8, r1, sl, lsl #5
     4e0:	42911802 	addsmi	r1, r1, #131072	; 0x20000
     4e4:	15000018 	strne	r0, [r0, #-24]	; 0xffffffe8
     4e8:	01018289 	smlabbeq	r1, r9, r2, r8
     4ec:	00000111 	andeq	r0, r0, r1, lsl r1
     4f0:	49010116 	stmdbmi	r1, {r1, r2, r4, r8}
     4f4:	00130113 	andseq	r0, r3, r3, lsl r1
     4f8:	00211700 	eoreq	r1, r1, r0, lsl #14
     4fc:	052f1349 	streq	r1, [pc, #-841]!	; 1bb <__code_start__-0x7e45>
     500:	2e180000 	cdpcs	0, 1, cr0, cr8, cr0, {0}
     504:	3c193f00 	ldccc	15, cr3, [r9], {-0}
     508:	030e6e19 	movweq	r6, #60953	; 0xee19
     50c:	3b0b3a0e 	blcc	2ced4c <__bss_end__+0x2c50ec>
     510:	000b390b 	andeq	r3, fp, fp, lsl #18
     514:	11010000 	mrsne	r0, (UNDEF: 1)
     518:	130e2501 	movwne	r2, #58625	; 0xe501
     51c:	1b0e030b 	blne	381150 <__bss_end__+0x3774f0>
     520:	1201110e 	andne	r1, r1, #-2147483645	; 0x80000003
     524:	00171006 	andseq	r1, r7, r6
     528:	00240200 	eoreq	r0, r4, r0, lsl #4
     52c:	0b3e0b0b 	bleq	f83160 <__bss_end__+0xf79500>
     530:	00000803 	andeq	r0, r0, r3, lsl #16
     534:	0b002403 	bleq	9548 <__FUNCTION__.3966+0x90>
     538:	030b3e0b 	movweq	r3, #48651	; 0xbe0b
     53c:	0400000e 	streq	r0, [r0], #-14
     540:	19270115 	stmdbne	r7!, {r0, r2, r4, r8}
     544:	13011349 	movwne	r1, #4937	; 0x1349
     548:	05050000 	streq	r0, [r5, #-0]
     54c:	00134900 	andseq	r4, r3, r0, lsl #18
     550:	00340600 	eorseq	r0, r4, r0, lsl #12
     554:	0b3a0e03 	bleq	e83d68 <__bss_end__+0xe7a108>
     558:	0b390b3b 	bleq	e4324c <__bss_end__+0xe395ec>
     55c:	193f1349 	ldmdbne	pc!, {r0, r3, r6, r8, r9, ip}	; <UNPREDICTABLE>
     560:	0000193c 	andeq	r1, r0, ip, lsr r9
     564:	0b000f07 	bleq	4188 <__code_start__-0x3e78>
     568:	0013490b 	andseq	r4, r3, fp, lsl #18
     56c:	00260800 	eoreq	r0, r6, r0, lsl #16
     570:	00001349 	andeq	r1, r0, r9, asr #6
     574:	47003409 	strmi	r3, [r0, -r9, lsl #8]
     578:	3b0b3a13 	blcc	2cedcc <__bss_end__+0x2c516c>
     57c:	020b390b 	andeq	r3, fp, #180224	; 0x2c000
     580:	0a000018 	beq	5e8 <__code_start__-0x7a18>
     584:	193f012e 	ldmdbne	pc!, {r1, r2, r3, r5, r8}	; <UNPREDICTABLE>
     588:	0b3a0e03 	bleq	e83d9c <__bss_end__+0xe7a13c>
     58c:	0b390b3b 	bleq	e43280 <__bss_end__+0xe39620>
     590:	13491927 	movtne	r1, #39207	; 0x9927
     594:	06120111 			; <UNDEFINED> instruction: 0x06120111
     598:	42961840 	addsmi	r1, r6, #64, 16	; 0x400000
     59c:	0b000019 	bleq	608 <__code_start__-0x79f8>
     5a0:	08030005 	stmdaeq	r3, {r0, r2}
     5a4:	0b3b0b3a 	bleq	ec3294 <__bss_end__+0xeb9634>
     5a8:	13490b39 	movtne	r0, #39737	; 0x9b39
     5ac:	42b71702 	adcsmi	r1, r7, #524288	; 0x80000
     5b0:	00000017 	andeq	r0, r0, r7, lsl r0
     5b4:	25011101 	strcs	r1, [r1, #-257]	; 0xfffffeff
     5b8:	030b130e 	movweq	r1, #45838	; 0xb30e
     5bc:	110e1b0e 	tstne	lr, lr, lsl #22
     5c0:	10061201 	andne	r1, r6, r1, lsl #4
     5c4:	02000017 	andeq	r0, r0, #23, 0
     5c8:	0b0b0024 	bleq	2c0660 <__bss_end__+0x2b6a00>
     5cc:	08030b3e 	stmdaeq	r3, {r1, r2, r3, r4, r5, r8, r9, fp}
     5d0:	24030000 	strcs	r0, [r3], #-0
     5d4:	3e0b0b00 	vmlacc.f64	d0, d11, d0
     5d8:	000e030b 	andeq	r0, lr, fp, lsl #6
     5dc:	00160400 	andseq	r0, r6, r0, lsl #8
     5e0:	0b3a0e03 	bleq	e83df4 <__bss_end__+0xe7a194>
     5e4:	0b390b3b 	bleq	e432d8 <__bss_end__+0xe39678>
     5e8:	00001349 	andeq	r1, r0, r9, asr #6
     5ec:	27011505 	strcs	r1, [r1, -r5, lsl #10]
     5f0:	01134919 	tsteq	r3, r9, lsl r9
     5f4:	06000013 			; <UNDEFINED> instruction: 0x06000013
     5f8:	13490005 	movtne	r0, #36869	; 0x9005
     5fc:	34070000 	strcc	r0, [r7], #-0
     600:	3a0e0300 	bcc	381208 <__bss_end__+0x3775a8>
     604:	390b3b0b 	stmdbcc	fp, {r0, r1, r3, r8, r9, fp, ip, sp}
     608:	3f13490b 	svccc	0x0013490b
     60c:	00193c19 	andseq	r3, r9, r9, lsl ip
     610:	000f0800 	andeq	r0, pc, r0, lsl #16
     614:	13490b0b 	movtne	r0, #39691	; 0x9b0b
     618:	26090000 	strcs	r0, [r9], -r0
     61c:	00134900 	andseq	r4, r3, r0, lsl #18
     620:	01130a00 	tsteq	r3, r0, lsl #20
     624:	0b0b0e03 	bleq	2c3e38 <__bss_end__+0x2ba1d8>
     628:	0b3b0b3a 	bleq	ec3318 <__bss_end__+0xeb96b8>
     62c:	00001301 	andeq	r1, r0, r1, lsl #6
     630:	03000d0b 	movweq	r0, #3339	; 0xd0b
     634:	3813490e 	ldmdacc	r3, {r1, r2, r3, r8, fp, lr}
     638:	0019340b 	andseq	r3, r9, fp, lsl #8
     63c:	000f0c00 	andeq	r0, pc, r0, lsl #24
     640:	00000b0b 	andeq	r0, r0, fp, lsl #22
     644:	3f012e0d 	svccc	0x00012e0d
     648:	3a0e0319 	bcc	3812b4 <__bss_end__+0x377654>
     64c:	390b3b0b 	stmdbcc	fp, {r0, r1, r3, r8, r9, fp, ip, sp}
     650:	4919270b 	ldmdbmi	r9, {r0, r1, r3, r8, r9, sl, sp}
     654:	12011113 	andne	r1, r1, #-1073741820	; 0xc0000004
     658:	97184006 	ldrls	r4, [r8, -r6]
     65c:	13011942 	movwne	r1, #6466	; 0x1942
     660:	050e0000 	streq	r0, [lr, #-0]
     664:	3a080300 	bcc	20126c <__bss_end__+0x1f760c>
     668:	390b3b0b 	stmdbcc	fp, {r0, r1, r3, r8, r9, fp, ip, sp}
     66c:	0213490b 	andseq	r4, r3, #180224	; 0x2c000
     670:	1742b717 	smlaldne	fp, r2, r7, r7
     674:	050f0000 	streq	r0, [pc, #-0]	; 67c <__code_start__-0x7984>
     678:	3a0e0300 	bcc	381280 <__bss_end__+0x377620>
     67c:	390b3b0b 	stmdbcc	fp, {r0, r1, r3, r8, r9, fp, ip, sp}
     680:	0213490b 	andseq	r4, r3, #180224	; 0x2c000
     684:	10000018 	andne	r0, r0, r8, lsl r0
     688:	08030034 	stmdaeq	r3, {r2, r4, r5}
     68c:	0b3b0b3a 	bleq	ec337c <__bss_end__+0xeb971c>
     690:	13490b39 	movtne	r0, #39737	; 0x9b39
     694:	42b71702 	adcsmi	r1, r7, #524288	; 0x80000
     698:	11000017 	tstne	r0, r7, lsl r0
     69c:	0e030034 	mcreq	0, 0, r0, cr3, cr4, {1}
     6a0:	0b3b0b3a 	bleq	ec3390 <__bss_end__+0xeb9730>
     6a4:	13490b39 	movtne	r0, #39737	; 0x9b39
     6a8:	42b71702 	adcsmi	r1, r7, #524288	; 0x80000
     6ac:	12000017 	andne	r0, r0, #23, 0
     6b0:	0e030034 	mcreq	0, 0, r0, cr3, cr4, {1}
     6b4:	19341349 	ldmdbne	r4!, {r0, r3, r6, r8, r9, ip}
     6b8:	00001802 	andeq	r1, r0, r2, lsl #16
     6bc:	11010b13 	tstne	r1, r3, lsl fp
     6c0:	00061201 	andeq	r1, r6, r1, lsl #4
     6c4:	00341400 	eorseq	r1, r4, r0, lsl #8
     6c8:	0b3a0803 	bleq	e826dc <__bss_end__+0xe78a7c>
     6cc:	0b390b3b 	bleq	e433c0 <__bss_end__+0xe39760>
     6d0:	18021349 	stmdane	r2, {r0, r3, r6, r8, r9, ip}
     6d4:	34150000 	ldrcc	r0, [r5], #-0
     6d8:	3a0e0300 	bcc	3812e0 <__bss_end__+0x377680>
     6dc:	390b3b0b 	stmdbcc	fp, {r0, r1, r3, r8, r9, fp, ip, sp}
     6e0:	0213490b 	andseq	r4, r3, #180224	; 0x2c000
     6e4:	16000018 			; <UNDEFINED> instruction: 0x16000018
     6e8:	0111010b 	tsteq	r1, fp, lsl #2
     6ec:	13010612 	movwne	r0, #5650	; 0x1612
     6f0:	34170000 	ldrcc	r0, [r7], #-0
     6f4:	3a080300 	bcc	2012fc <__bss_end__+0x1f769c>
     6f8:	390b3b0b 	stmdbcc	fp, {r0, r1, r3, r8, r9, fp, ip, sp}
     6fc:	0013490b 	andseq	r4, r3, fp, lsl #18
     700:	82891800 	addhi	r1, r9, #0, 16
     704:	01110101 	tsteq	r1, r1, lsl #2
     708:	13011331 	movwne	r1, #4913	; 0x1331
     70c:	8a190000 	bhi	640714 <__bss_end__+0x636ab4>
     710:	02000182 	andeq	r0, r0, #-2147483616	; 0x80000020
     714:	18429118 	stmdane	r2, {r3, r4, r8, ip, pc}^
     718:	891a0000 	ldmdbhi	sl, {}	; <UNPREDICTABLE>
     71c:	11000182 	smlabbne	r0, r2, r1, r0
     720:	00133101 	andseq	r3, r3, r1, lsl #2
     724:	82891b00 	addhi	r1, r9, #0, 22
     728:	01110101 	tsteq	r1, r1, lsl #2
     72c:	00001301 	andeq	r1, r0, r1, lsl #6
     730:	4901011c 	stmdbmi	r1, {r2, r3, r4, r8}
     734:	00130113 	andseq	r0, r3, r3, lsl r1
     738:	00211d00 	eoreq	r1, r1, r0, lsl #26
     73c:	0b2f1349 	bleq	bc5468 <__bss_end__+0xbbb808>
     740:	2e1e0000 	cdpcs	0, 1, cr0, cr14, cr0, {0}
     744:	3a0e0301 	bcc	381350 <__bss_end__+0x3776f0>
     748:	390b3b0b 	stmdbcc	fp, {r0, r1, r3, r8, r9, fp, ip, sp}
     74c:	4919270b 	ldmdbmi	r9, {r0, r1, r3, r8, r9, sl, sp}
     750:	12011113 	andne	r1, r1, #-1073741820	; 0xc0000004
     754:	97184006 	ldrls	r4, [r8, -r6]
     758:	13011942 	movwne	r1, #6466	; 0x1942
     75c:	051f0000 	ldreq	r0, [pc, #-0]	; 764 <__code_start__-0x789c>
     760:	3a0e0300 	bcc	381368 <__bss_end__+0x377708>
     764:	390b3b0b 	stmdbcc	fp, {r0, r1, r3, r8, r9, fp, ip, sp}
     768:	0213490b 	andseq	r4, r3, #180224	; 0x2c000
     76c:	1742b717 	smlaldne	fp, r2, r7, r7
     770:	2e200000 	cdpcs	0, 2, cr0, cr0, cr0, {0}
     774:	3a080301 	bcc	201380 <__bss_end__+0x1f7720>
     778:	390b3b0b 	stmdbcc	fp, {r0, r1, r3, r8, r9, fp, ip, sp}
     77c:	4919270b 	ldmdbmi	r9, {r0, r1, r3, r8, r9, sl, sp}
     780:	12011113 	andne	r1, r1, #-1073741820	; 0xc0000004
     784:	97184006 	ldrls	r4, [r8, -r6]
     788:	13011942 	movwne	r1, #6466	; 0x1942
     78c:	2e210000 	cdpcs	0, 2, cr0, cr1, cr0, {0}
     790:	03193f01 	tsteq	r9, #1, 30
     794:	3b0b3a0e 	blcc	2cefd4 <__bss_end__+0x2c5374>
     798:	270b390b 	strcs	r3, [fp, -fp, lsl #18]
     79c:	12011119 	andne	r1, r1, #1073741830	; 0x40000006
     7a0:	97184006 	ldrls	r4, [r8, -r6]
     7a4:	13011942 	movwne	r1, #6466	; 0x1942
     7a8:	2e220000 	cdpcs	0, 2, cr0, cr2, cr0, {0}
     7ac:	3c193f00 	ldccc	15, cr3, [r9], {-0}
     7b0:	030e6e19 	movweq	r6, #60953	; 0xee19
     7b4:	3b0b3a0e 	blcc	2ceff4 <__bss_end__+0x2c5394>
     7b8:	000b390b 	andeq	r3, fp, fp, lsl #18
     7bc:	11010000 	mrsne	r0, (UNDEF: 1)
     7c0:	130e2501 	movwne	r2, #58625	; 0xe501
     7c4:	1b0e030b 	blne	3813f8 <__bss_end__+0x377798>
     7c8:	1201110e 	andne	r1, r1, #-2147483645	; 0x80000003
     7cc:	00171006 	andseq	r1, r7, r6
     7d0:	00240200 	eoreq	r0, r4, r0, lsl #4
     7d4:	0b3e0b0b 	bleq	f83408 <__bss_end__+0xf797a8>
     7d8:	00000803 	andeq	r0, r0, r3, lsl #16
     7dc:	0b002403 	bleq	97f0 <__FUNCTION__.5+0xc>
     7e0:	030b3e0b 	movweq	r3, #48651	; 0xbe0b
     7e4:	0400000e 	streq	r0, [r0], #-14
     7e8:	19270115 	stmdbne	r7!, {r0, r2, r4, r8}
     7ec:	13011349 	movwne	r1, #4937	; 0x1349
     7f0:	05050000 	streq	r0, [r5, #-0]
     7f4:	00134900 	andseq	r4, r3, r0, lsl #18
     7f8:	00340600 	eorseq	r0, r4, r0, lsl #12
     7fc:	0b3a0e03 	bleq	e84010 <__bss_end__+0xe7a3b0>
     800:	0b390b3b 	bleq	e434f4 <__bss_end__+0xe39894>
     804:	193f1349 	ldmdbne	pc!, {r0, r3, r6, r8, r9, ip}	; <UNPREDICTABLE>
     808:	0000193c 	andeq	r1, r0, ip, lsr r9
     80c:	0b000f07 	bleq	4430 <__code_start__-0x3bd0>
     810:	0013490b 	andseq	r4, r3, fp, lsl #18
     814:	00260800 	eoreq	r0, r6, r0, lsl #16
     818:	00001349 	andeq	r1, r0, r9, asr #6
     81c:	3f012e09 	svccc	0x00012e09
     820:	3a0e0319 	bcc	38148c <__bss_end__+0x37782c>
     824:	390b3b0b 	stmdbcc	fp, {r0, r1, r3, r8, r9, fp, ip, sp}
     828:	8719270b 	ldrhi	r2, [r9, -fp, lsl #14]
     82c:	01111901 	tsteq	r1, r1, lsl #18
     830:	18400612 	stmdane	r0, {r1, r4, r9, sl}^
     834:	01194297 			; <UNDEFINED> instruction: 0x01194297
     838:	0a000013 	beq	88c <__code_start__-0x7774>
     83c:	01018289 	smlabbeq	r1, r9, r2, r8
     840:	13010111 	movwne	r0, #4369	; 0x1111
     844:	8a0b0000 	bhi	2c084c <__bss_end__+0x2b6bec>
     848:	02000182 	andeq	r0, r0, #-2147483616	; 0x80000020
     84c:	18429118 	stmdane	r2, {r3, r4, r8, ip, pc}^
     850:	890c0000 	stmdbhi	ip, {}	; <UNPREDICTABLE>
     854:	11000182 	smlabbne	r0, r2, r1, r0
     858:	00133101 	andseq	r3, r3, r1, lsl #2
     85c:	82890d00 	addhi	r0, r9, #0, 26
     860:	01110101 	tsteq	r1, r1, lsl #2
     864:	13011331 	movwne	r1, #4913	; 0x1331
     868:	2e0e0000 	cdpcs	0, 0, cr0, cr14, cr0, {0}
     86c:	3c193f00 	ldccc	15, cr3, [r9], {-0}
     870:	030e6e19 	movweq	r6, #60953	; 0xee19
     874:	3b0b3a0e 	blcc	2cf0b4 <__bss_end__+0x2c5454>
     878:	000b390b 	andeq	r3, fp, fp, lsl #18
     87c:	11010000 	mrsne	r0, (UNDEF: 1)
     880:	130e2501 	movwne	r2, #58625	; 0xe501
     884:	1b0e030b 	blne	3814b8 <__bss_end__+0x377858>
     888:	1201110e 	andne	r1, r1, #-2147483645	; 0x80000003
     88c:	00171006 	andseq	r1, r7, r6
     890:	00240200 	eoreq	r0, r4, r0, lsl #4
     894:	0b3e0b0b 	bleq	f834c8 <__bss_end__+0xf79868>
     898:	00000803 	andeq	r0, r0, r3, lsl #16
     89c:	0b002403 	bleq	98b0 <buf.3948+0x58>
     8a0:	030b3e0b 	movweq	r3, #48651	; 0xbe0b
     8a4:	0400000e 	streq	r0, [r0], #-14
     8a8:	19270115 	stmdbne	r7!, {r0, r2, r4, r8}
     8ac:	13011349 	movwne	r1, #4937	; 0x1349
     8b0:	05050000 	streq	r0, [r5, #-0]
     8b4:	00134900 	andseq	r4, r3, r0, lsl #18
     8b8:	00340600 	eorseq	r0, r4, r0, lsl #12
     8bc:	0b3a0e03 	bleq	e840d0 <__bss_end__+0xe7a470>
     8c0:	0b390b3b 	bleq	e435b4 <__bss_end__+0xe39954>
     8c4:	193f1349 	ldmdbne	pc!, {r0, r3, r6, r8, r9, ip}	; <UNPREDICTABLE>
     8c8:	0000193c 	andeq	r1, r0, ip, lsr r9
     8cc:	0b000f07 	bleq	44f0 <__code_start__-0x3b10>
     8d0:	0013490b 	andseq	r4, r3, fp, lsl #18
     8d4:	00260800 	eoreq	r0, r6, r0, lsl #16
     8d8:	00001349 	andeq	r1, r0, r9, asr #6
     8dc:	3f012e09 	svccc	0x00012e09
     8e0:	3a0e0319 	bcc	38154c <__bss_end__+0x3778ec>
     8e4:	390b3b0b 	stmdbcc	fp, {r0, r1, r3, r8, r9, fp, ip, sp}
     8e8:	1201110b 	andne	r1, r1, #-1073741822	; 0xc0000002
     8ec:	97184006 	ldrls	r4, [r8, -r6]
     8f0:	13011942 	movwne	r1, #6466	; 0x1942
     8f4:	2e0a0000 	cdpcs	0, 0, cr0, cr10, cr0, {0}
     8f8:	03193f00 	tsteq	r9, #0, 30
     8fc:	3b0b3a0e 	blcc	2cf13c <__bss_end__+0x2c54dc>
     900:	270b390b 	strcs	r3, [fp, -fp, lsl #18]
     904:	00193c19 	andseq	r3, r9, r9, lsl ip
     908:	00340b00 	eorseq	r0, r4, r0, lsl #22
     90c:	0b3a0803 	bleq	e82920 <__bss_end__+0xe78cc0>
     910:	0b390b3b 	bleq	e43604 <__bss_end__+0xe399a4>
     914:	17021349 	strne	r1, [r2, -r9, asr #6]
     918:	001742b7 			; <UNDEFINED> instruction: 0x001742b7
     91c:	00340c00 	eorseq	r0, r4, r0, lsl #24
     920:	0b3a0e03 	bleq	e84134 <__bss_end__+0xe7a4d4>
     924:	0b390b3b 	bleq	e43618 <__bss_end__+0xe399b8>
     928:	00001349 	andeq	r1, r0, r9, asr #6
     92c:	11010b0d 	tstne	r1, sp, lsl #22
     930:	01061201 	tsteq	r6, r1, lsl #4
     934:	0e000013 	mcreq	0, 0, r0, cr0, cr3, {0}
     938:	08030034 	stmdaeq	r3, {r2, r4, r5}
     93c:	0b3b0b3a 	bleq	ec362c <__bss_end__+0xeb99cc>
     940:	13490b39 	movtne	r0, #39737	; 0x9b39
     944:	00000b1c 	andeq	r0, r0, ip, lsl fp
     948:	0182890f 	orreq	r8, r2, pc, lsl #18
     94c:	31011100 	mrscc	r1, (UNDEF: 17)
     950:	10000013 	andne	r0, r0, r3, lsl r0
     954:	193f002e 	ldmdbne	pc!, {r1, r2, r3, r5}	; <UNPREDICTABLE>
     958:	0e6e193c 			; <UNDEFINED> instruction: 0x0e6e193c
     95c:	0b3a0e03 	bleq	e84170 <__bss_end__+0xe7a510>
     960:	0b39053b 	bleq	e41e54 <__bss_end__+0xe381f4>
     964:	2e110000 	cdpcs	0, 1, cr0, cr1, cr0, {0}
     968:	3c193f00 	ldccc	15, cr3, [r9], {-0}
     96c:	030e6e19 	movweq	r6, #60953	; 0xee19
     970:	3b0b3a0e 	blcc	2cf1b0 <__bss_end__+0x2c5550>
     974:	000b390b 	andeq	r3, fp, fp, lsl #18
     978:	11010000 	mrsne	r0, (UNDEF: 1)
     97c:	130e2501 	movwne	r2, #58625	; 0xe501
     980:	1b0e030b 	blne	3815b4 <__bss_end__+0x377954>
     984:	1201110e 	andne	r1, r1, #-2147483645	; 0x80000003
     988:	00171006 	andseq	r1, r7, r6
     98c:	00240200 	eoreq	r0, r4, r0, lsl #4
     990:	0b3e0b0b 	bleq	f835c4 <__bss_end__+0xf79964>
     994:	00000803 	andeq	r0, r0, r3, lsl #16
     998:	0b002403 	bleq	99ac <buf.3948+0x154>
     99c:	030b3e0b 	movweq	r3, #48651	; 0xbe0b
     9a0:	0400000e 	streq	r0, [r0], #-14
     9a4:	19270115 	stmdbne	r7!, {r0, r2, r4, r8}
     9a8:	13011349 	movwne	r1, #4937	; 0x1349
     9ac:	05050000 	streq	r0, [r5, #-0]
     9b0:	00134900 	andseq	r4, r3, r0, lsl #18
     9b4:	00340600 	eorseq	r0, r4, r0, lsl #12
     9b8:	0b3a0e03 	bleq	e841cc <__bss_end__+0xe7a56c>
     9bc:	0b390b3b 	bleq	e436b0 <__bss_end__+0xe39a50>
     9c0:	193f1349 	ldmdbne	pc!, {r0, r3, r6, r8, r9, ip}	; <UNPREDICTABLE>
     9c4:	0000193c 	andeq	r1, r0, ip, lsr r9
     9c8:	0b000f07 	bleq	45ec <__code_start__-0x3a14>
     9cc:	0013490b 	andseq	r4, r3, fp, lsl #18
     9d0:	00260800 	eoreq	r0, r6, r0, lsl #16
     9d4:	00001349 	andeq	r1, r0, r9, asr #6
     9d8:	3f002e09 	svccc	0x00002e09
     9dc:	3a0e0319 	bcc	381648 <__bss_end__+0x3779e8>
     9e0:	390b3b0b 	stmdbcc	fp, {r0, r1, r3, r8, r9, fp, ip, sp}
     9e4:	1119270b 	tstne	r9, fp, lsl #14
     9e8:	40061201 	andmi	r1, r6, r1, lsl #4
     9ec:	19429718 	stmdbne	r2, {r3, r4, r8, r9, sl, ip, pc}^
     9f0:	01000000 	mrseq	r0, (UNDEF: 0)
     9f4:	0e250111 	mcreq	1, 1, r0, cr5, cr1, {0}
     9f8:	0e030b13 	vmoveq.32	d3[0], r0
     9fc:	17550e1b 	smmlane	r5, fp, lr, r0
     a00:	17100111 			; <UNDEFINED> instruction: 0x17100111
     a04:	24020000 	strcs	r0, [r2], #-0
     a08:	3e0b0b00 	vmlacc.f64	d0, d11, d0
     a0c:	0008030b 	andeq	r0, r8, fp, lsl #6
     a10:	00260300 	eoreq	r0, r6, r0, lsl #6
     a14:	00001349 	andeq	r1, r0, r9, asr #6
     a18:	0b002404 	bleq	9a30 <buf.3948+0x1d8>
     a1c:	030b3e0b 	movweq	r3, #48651	; 0xbe0b
     a20:	0500000e 	streq	r0, [r0, #-14]
     a24:	19270115 	stmdbne	r7!, {r0, r2, r4, r8}
     a28:	13011349 	movwne	r1, #4937	; 0x1349
     a2c:	05060000 	streq	r0, [r6, #-0]
     a30:	00134900 	andseq	r4, r3, r0, lsl #18
     a34:	00340700 	eorseq	r0, r4, r0, lsl #14
     a38:	0b3a0e03 	bleq	e8424c <__bss_end__+0xe7a5ec>
     a3c:	0b390b3b 	bleq	e43730 <__bss_end__+0xe39ad0>
     a40:	193f1349 	ldmdbne	pc!, {r0, r3, r6, r8, r9, ip}	; <UNPREDICTABLE>
     a44:	0000193c 	andeq	r1, r0, ip, lsr r9
     a48:	0b000f08 	bleq	4670 <__code_start__-0x3990>
     a4c:	0013490b 	andseq	r4, r3, fp, lsl #18
     a50:	00340900 	eorseq	r0, r4, r0, lsl #18
     a54:	0b3a0e03 	bleq	e84268 <__bss_end__+0xe7a608>
     a58:	0b390b3b 	bleq	e4374c <__bss_end__+0xe39aec>
     a5c:	00001349 	andeq	r1, r0, r9, asr #6
     a60:	3f012e0a 	svccc	0x00012e0a
     a64:	3a0e0319 	bcc	3816d0 <__bss_end__+0x377a70>
     a68:	390b3b0b 	stmdbcc	fp, {r0, r1, r3, r8, r9, fp, ip, sp}
     a6c:	8719270b 	ldrhi	r2, [r9, -fp, lsl #14]
     a70:	01111901 	tsteq	r1, r1, lsl #18
     a74:	18400612 	stmdane	r0, {r1, r4, r9, sl}^
     a78:	01194297 			; <UNDEFINED> instruction: 0x01194297
     a7c:	0b000013 	bleq	ad0 <__code_start__-0x7530>
     a80:	0e030034 	mcreq	0, 0, r0, cr3, cr4, {1}
     a84:	0b3b0b3a 	bleq	ec3774 <__bss_end__+0xeb9b14>
     a88:	13490b39 	movtne	r0, #39737	; 0x9b39
     a8c:	42b71702 	adcsmi	r1, r7, #524288	; 0x80000
     a90:	0c000017 	stceq	0, cr0, [r0], {23}
     a94:	00018289 	andeq	r8, r1, r9, lsl #5
     a98:	13310111 	teqne	r1, #1073741828	; 0x40000004
     a9c:	890d0000 	stmdbhi	sp, {}	; <UNPREDICTABLE>
     aa0:	11010182 	smlabbne	r1, r2, r1, r0
     aa4:	01133101 	tsteq	r3, r1, lsl #2
     aa8:	0e000013 	mcreq	0, 0, r0, cr0, cr3, {0}
     aac:	0001828a 	andeq	r8, r1, sl, lsl #5
     ab0:	42911802 	addsmi	r1, r1, #131072	; 0x20000
     ab4:	0f000018 	svceq	0x00000018
     ab8:	193f012e 	ldmdbne	pc!, {r1, r2, r3, r5, r8}	; <UNPREDICTABLE>
     abc:	0b3a0e03 	bleq	e842d0 <__bss_end__+0xe7a670>
     ac0:	0b390b3b 	bleq	e437b4 <__bss_end__+0xe39b54>
     ac4:	01111927 	tsteq	r1, r7, lsr #18
     ac8:	18400612 	stmdane	r0, {r1, r4, r9, sl}^
     acc:	01194297 			; <UNDEFINED> instruction: 0x01194297
     ad0:	10000013 	andne	r0, r0, r3, lsl r0
     ad4:	193f012e 	ldmdbne	pc!, {r1, r2, r3, r5, r8}	; <UNPREDICTABLE>
     ad8:	0b3a0e03 	bleq	e842ec <__bss_end__+0xe7a68c>
     adc:	0b390b3b 	bleq	e437d0 <__bss_end__+0xe39b70>
     ae0:	13491927 	movtne	r1, #39207	; 0x9927
     ae4:	06120111 			; <UNDEFINED> instruction: 0x06120111
     ae8:	42971840 	addsmi	r1, r7, #64, 16	; 0x400000
     aec:	00130119 	andseq	r0, r3, r9, lsl r1
     af0:	002e1100 	eoreq	r1, lr, r0, lsl #2
     af4:	193c193f 	ldmdbne	ip!, {r0, r1, r2, r3, r4, r5, r8, fp, ip}
     af8:	0e030e6e 	cdpeq	14, 0, cr0, cr3, cr14, {3}
     afc:	053b0b3a 	ldreq	r0, [fp, #-2874]!	; 0xfffff4c6
     b00:	00000b39 	andeq	r0, r0, r9, lsr fp
     b04:	3f002e12 	svccc	0x00002e12
     b08:	6e193c19 	mrcvs	12, 0, r3, cr9, cr9, {0}
     b0c:	3a0e030e 	bcc	38174c <__bss_end__+0x377aec>
     b10:	390b3b0b 	stmdbcc	fp, {r0, r1, r3, r8, r9, fp, ip, sp}
     b14:	0000000b 	andeq	r0, r0, fp
     b18:	25011101 	strcs	r1, [r1, #-257]	; 0xfffffeff
     b1c:	030b130e 	movweq	r1, #45838	; 0xb30e
     b20:	110e1b0e 	tstne	lr, lr, lsl #22
     b24:	10061201 	andne	r1, r6, r1, lsl #4
     b28:	02000017 	andeq	r0, r0, #23, 0
     b2c:	0b0b0024 	bleq	2c0bc4 <__bss_end__+0x2b6f64>
     b30:	08030b3e 	stmdaeq	r3, {r1, r2, r3, r4, r5, r8, r9, fp}
     b34:	24030000 	strcs	r0, [r3], #-0
     b38:	3e0b0b00 	vmlacc.f64	d0, d11, d0
     b3c:	000e030b 	andeq	r0, lr, fp, lsl #6
     b40:	01150400 	tsteq	r5, r0, lsl #8
     b44:	13491927 	movtne	r1, #39207	; 0x9927
     b48:	00001301 	andeq	r1, r0, r1, lsl #6
     b4c:	49000505 	stmdbmi	r0, {r0, r2, r8, sl}
     b50:	06000013 			; <UNDEFINED> instruction: 0x06000013
     b54:	0e030034 	mcreq	0, 0, r0, cr3, cr4, {1}
     b58:	0b3b0b3a 	bleq	ec3848 <__bss_end__+0xeb9be8>
     b5c:	13490b39 	movtne	r0, #39737	; 0x9b39
     b60:	193c193f 	ldmdbne	ip!, {r0, r1, r2, r3, r4, r5, r8, fp, ip}
     b64:	0f070000 	svceq	0x00070000
     b68:	490b0b00 	stmdbmi	fp, {r8, r9, fp}
     b6c:	08000013 	stmdaeq	r0, {r0, r1, r4}
     b70:	13490026 	movtne	r0, #36902	; 0x9026
     b74:	2e090000 	cdpcs	0, 0, cr0, cr9, cr0, {0}
     b78:	03193f01 	tsteq	r9, #1, 30
     b7c:	3b0b3a0e 	blcc	2cf3bc <__bss_end__+0x2c575c>
     b80:	270b390b 	strcs	r3, [fp, -fp, lsl #18]
     b84:	12011119 	andne	r1, r1, #1073741830	; 0x40000006
     b88:	97184006 	ldrls	r4, [r8, -r6]
     b8c:	13011942 	movwne	r1, #6466	; 0x1942
     b90:	050a0000 	streq	r0, [sl, #-0]
     b94:	3a080300 	bcc	20179c <__bss_end__+0x1f7b3c>
     b98:	390b3b0b 	stmdbcc	fp, {r0, r1, r3, r8, r9, fp, ip, sp}
     b9c:	0213490b 	andseq	r4, r3, #180224	; 0x2c000
     ba0:	1742b717 	smlaldne	fp, r2, r7, r7
     ba4:	890b0000 	stmdbhi	fp, {}	; <UNPREDICTABLE>
     ba8:	11010182 	smlabbne	r1, r2, r1, r0
     bac:	00133101 	andseq	r3, r3, r1, lsl #2
     bb0:	828a0c00 	addhi	r0, sl, #0, 24
     bb4:	18020001 	stmdane	r2, {r0}
     bb8:	00184291 	mulseq	r8, r1, r2
     bbc:	00340d00 	eorseq	r0, r4, r0, lsl #26
     bc0:	0b3a0803 	bleq	e82bd4 <__bss_end__+0xe78f74>
     bc4:	0b390b3b 	bleq	e438b8 <__bss_end__+0xe39c58>
     bc8:	17021349 	strne	r1, [r2, -r9, asr #6]
     bcc:	001742b7 			; <UNDEFINED> instruction: 0x001742b7
     bd0:	010b0e00 	tsteq	fp, r0, lsl #28
     bd4:	06120111 			; <UNDEFINED> instruction: 0x06120111
     bd8:	00001301 	andeq	r1, r0, r1, lsl #6
     bdc:	0182890f 	orreq	r8, r2, pc, lsl #18
     be0:	31011100 	mrscc	r1, (UNDEF: 17)
     be4:	10000013 	andne	r0, r0, r3, lsl r0
     be8:	193f012e 	ldmdbne	pc!, {r1, r2, r3, r5, r8}	; <UNPREDICTABLE>
     bec:	0b3a0e03 	bleq	e84400 <__bss_end__+0xe7a7a0>
     bf0:	0b390b3b 	bleq	e438e4 <__bss_end__+0xe39c84>
     bf4:	13491927 	movtne	r1, #39207	; 0x9927
     bf8:	06120111 			; <UNDEFINED> instruction: 0x06120111
     bfc:	42971840 	addsmi	r1, r7, #64, 16	; 0x400000
     c00:	00130119 	andseq	r0, r3, r9, lsl r1
     c04:	002e1100 	eoreq	r1, lr, r0, lsl #2
     c08:	193c193f 	ldmdbne	ip!, {r0, r1, r2, r3, r4, r5, r8, fp, ip}
     c0c:	0e030e6e 	cdpeq	14, 0, cr0, cr3, cr14, {3}
     c10:	0b3b0b3a 	bleq	ec3900 <__bss_end__+0xeb9ca0>
     c14:	00000b39 	andeq	r0, r0, r9, lsr fp
     c18:	01110100 	tsteq	r1, r0, lsl #2
     c1c:	0b130e25 	bleq	4c44b8 <__bss_end__+0x4ba858>
     c20:	0e1b0e03 	cdpeq	14, 1, cr0, cr11, cr3, {0}
     c24:	06120111 			; <UNDEFINED> instruction: 0x06120111
     c28:	00001710 	andeq	r1, r0, r0, lsl r7
     c2c:	0b002402 	bleq	9c3c <buf.3948+0x3e4>
     c30:	030b3e0b 	movweq	r3, #48651	; 0xbe0b
     c34:	03000008 	movweq	r0, #8
     c38:	0b0b0024 	bleq	2c0cd0 <__bss_end__+0x2b7070>
     c3c:	0e030b3e 	vmoveq.16	d3[0], r0
     c40:	35040000 	strcc	r0, [r4, #-0]
     c44:	00134900 	andseq	r4, r3, r0, lsl #18
     c48:	00160500 	andseq	r0, r6, r0, lsl #10
     c4c:	0b3a0e03 	bleq	e84460 <__bss_end__+0xe7a800>
     c50:	0b390b3b 	bleq	e43944 <__bss_end__+0xe39ce4>
     c54:	00001349 	andeq	r1, r0, r9, asr #6
     c58:	3e010406 	cdpcc	4, 0, cr0, cr1, cr6, {0}
     c5c:	490b0b0b 	stmdbmi	fp, {r0, r1, r3, r8, r9, fp}
     c60:	3b0b3a13 	blcc	2cf4b4 <__bss_end__+0x2c5854>
     c64:	010b390b 	tsteq	fp, fp, lsl #18
     c68:	07000013 	smladeq	r0, r3, r0, r0
     c6c:	0e030028 	cdpeq	0, 0, cr0, cr3, cr8, {1}
     c70:	00000b1c 	andeq	r0, r0, ip, lsl fp
     c74:	03011308 	movweq	r1, #4872	; 0x1308
     c78:	3a0b0b0e 	bcc	2c38b8 <__bss_end__+0x2b9c58>
     c7c:	390b3b0b 	stmdbcc	fp, {r0, r1, r3, r8, r9, fp, ip, sp}
     c80:	0013010b 	andseq	r0, r3, fp, lsl #2
     c84:	000d0900 	andeq	r0, sp, r0, lsl #18
     c88:	0b3a0803 	bleq	e82c9c <__bss_end__+0xe7903c>
     c8c:	0b390b3b 	bleq	e43980 <__bss_end__+0xe39d20>
     c90:	0b381349 	bleq	e059bc <__bss_end__+0xdfbd5c>
     c94:	0d0a0000 	stceq	0, cr0, [sl, #-0]
     c98:	3a0e0300 	bcc	3818a0 <__bss_end__+0x377c40>
     c9c:	390b3b0b 	stmdbcc	fp, {r0, r1, r3, r8, r9, fp, ip, sp}
     ca0:	3813490b 	ldmdacc	r3, {r0, r1, r3, r8, fp, lr}
     ca4:	0b00000b 	bleq	cd8 <__code_start__-0x7328>
     ca8:	0e030034 	mcreq	0, 0, r0, cr3, cr4, {1}
     cac:	0b3b0b3a 	bleq	ec399c <__bss_end__+0xeb9d3c>
     cb0:	13490b39 	movtne	r0, #39737	; 0x9b39
     cb4:	0000061c 	andeq	r0, r0, ip, lsl r6
     cb8:	0b000f0c 	bleq	48f0 <__code_start__-0x3710>
     cbc:	0013490b 	andseq	r4, r3, fp, lsl #18
     cc0:	00260d00 	eoreq	r0, r6, r0, lsl #26
     cc4:	00001349 	andeq	r1, r0, r9, asr #6
     cc8:	3f012e0e 	svccc	0x00012e0e
     ccc:	3a0e0319 	bcc	381938 <__bss_end__+0x377cd8>
     cd0:	390b3b0b 	stmdbcc	fp, {r0, r1, r3, r8, r9, fp, ip, sp}
     cd4:	1119270b 	tstne	r9, fp, lsl #14
     cd8:	40061201 	andmi	r1, r6, r1, lsl #4
     cdc:	19429718 	stmdbne	r2, {r3, r4, r8, r9, sl, ip, pc}^
     ce0:	00001301 	andeq	r1, r0, r1, lsl #6
     ce4:	0182890f 	orreq	r8, r2, pc, lsl #18
     ce8:	31011100 	mrscc	r1, (UNDEF: 17)
     cec:	10000013 	andne	r0, r0, r3, lsl r0
     cf0:	193f012e 	ldmdbne	pc!, {r1, r2, r3, r5, r8}	; <UNPREDICTABLE>
     cf4:	0b3a0e03 	bleq	e84508 <__bss_end__+0xe7a8a8>
     cf8:	0b390b3b 	bleq	e439ec <__bss_end__+0xe39d8c>
     cfc:	13491927 	movtne	r1, #39207	; 0x9927
     d00:	06120111 			; <UNDEFINED> instruction: 0x06120111
     d04:	42971840 	addsmi	r1, r7, #64, 16	; 0x400000
     d08:	00130119 	andseq	r0, r3, r9, lsl r1
     d0c:	82891100 	addhi	r1, r9, #0
     d10:	01110101 	tsteq	r1, r1, lsl #2
     d14:	00001331 	andeq	r1, r0, r1, lsr r3
     d18:	01828a12 	orreq	r8, r2, r2, lsl sl
     d1c:	91180200 	tstls	r8, r0, lsl #4
     d20:	00001842 	andeq	r1, r0, r2, asr #16
     d24:	03000513 	movweq	r0, #1299	; 0x513
     d28:	3b0b3a08 	blcc	2cf550 <__bss_end__+0x2c58f0>
     d2c:	490b390b 	stmdbmi	fp, {r0, r1, r3, r8, fp, ip, sp}
     d30:	b7170213 			; <UNDEFINED> instruction: 0xb7170213
     d34:	00001742 	andeq	r1, r0, r2, asr #14
     d38:	01828914 	orreq	r8, r2, r4, lsl r9
     d3c:	31011101 	tstcc	r1, r1, lsl #2
     d40:	00130113 	andseq	r0, r3, r3, lsl r1
     d44:	00341500 	eorseq	r1, r4, r0, lsl #10
     d48:	0b3a0803 	bleq	e82d5c <__bss_end__+0xe790fc>
     d4c:	0b390b3b 	bleq	e43a40 <__bss_end__+0xe39de0>
     d50:	17021349 	strne	r1, [r2, -r9, asr #6]
     d54:	001742b7 			; <UNDEFINED> instruction: 0x001742b7
     d58:	00341600 	eorseq	r1, r4, r0, lsl #12
     d5c:	0b3a0e03 	bleq	e84570 <__bss_end__+0xe7a910>
     d60:	0b390b3b 	bleq	e43a54 <__bss_end__+0xe39df4>
     d64:	051c1349 	ldreq	r1, [ip, #-841]	; 0xfffffcb7
     d68:	2e170000 	cdpcs	0, 1, cr0, cr7, cr0, {0}
     d6c:	3a0e0301 	bcc	381978 <__bss_end__+0x377d18>
     d70:	390b3b0b 	stmdbcc	fp, {r0, r1, r3, r8, r9, fp, ip, sp}
     d74:	1119270b 	tstne	r9, fp, lsl #14
     d78:	40061201 	andmi	r1, r6, r1, lsl #4
     d7c:	19429718 	stmdbne	r2, {r3, r4, r8, r9, sl, ip, pc}^
     d80:	00001301 	andeq	r1, r0, r1, lsl #6
     d84:	03000518 	movweq	r0, #1304	; 0x518
     d88:	3b0b3a0e 	blcc	2cf5c8 <__bss_end__+0x2c5968>
     d8c:	490b390b 	stmdbmi	fp, {r0, r1, r3, r8, fp, ip, sp}
     d90:	b7170213 			; <UNDEFINED> instruction: 0xb7170213
     d94:	00001742 	andeq	r1, r0, r2, asr #14
     d98:	00003519 	andeq	r3, r0, r9, lsl r5
     d9c:	002e1a00 	eoreq	r1, lr, r0, lsl #20
     da0:	193c193f 	ldmdbne	ip!, {r0, r1, r2, r3, r4, r5, r8, fp, ip}
     da4:	0e030e6e 	cdpeq	14, 0, cr0, cr3, cr14, {3}
     da8:	0b3b0b3a 	bleq	ec3a98 <__bss_end__+0xeb9e38>
     dac:	00000b39 	andeq	r0, r0, r9, lsr fp
     db0:	01110100 	tsteq	r1, r0, lsl #2
     db4:	0b130e25 	bleq	4c4650 <__bss_end__+0x4ba9f0>
     db8:	0e1b0e03 	cdpeq	14, 1, cr0, cr11, cr3, {0}
     dbc:	06120111 			; <UNDEFINED> instruction: 0x06120111
     dc0:	00001710 	andeq	r1, r0, r0, lsl r7
     dc4:	0b002402 	bleq	9dd4 <__bss_end__+0x174>
     dc8:	030b3e0b 	movweq	r3, #48651	; 0xbe0b
     dcc:	03000008 	movweq	r0, #8
     dd0:	0b0b0024 	bleq	2c0e68 <__bss_end__+0x2b7208>
     dd4:	0e030b3e 	vmoveq.16	d3[0], r0
     dd8:	16040000 	strne	r0, [r4], -r0
     ddc:	3a0e0300 	bcc	3819e4 <__bss_end__+0x377d84>
     de0:	390b3b0b 	stmdbcc	fp, {r0, r1, r3, r8, r9, fp, ip, sp}
     de4:	0013490b 	andseq	r4, r3, fp, lsl #18
     de8:	00260500 	eoreq	r0, r6, r0, lsl #10
     dec:	00001349 	andeq	r1, r0, r9, asr #6
     df0:	0b000f06 	bleq	4a10 <__code_start__-0x35f0>
     df4:	0700000b 	streq	r0, [r0, -fp]
     df8:	0b3e0104 	bleq	f81210 <__bss_end__+0xf775b0>
     dfc:	13490b0b 	movtne	r0, #39691	; 0x9b0b
     e00:	0b3b0b3a 	bleq	ec3af0 <__bss_end__+0xeb9e90>
     e04:	13010b39 	movwne	r0, #6969	; 0x1b39
     e08:	28080000 	stmdacs	r8, {}	; <UNPREDICTABLE>
     e0c:	1c0e0300 	stcne	3, cr0, [lr], {-0}
     e10:	09000006 	stmdbeq	r0, {r1, r2}
     e14:	0e030034 	mcreq	0, 0, r0, cr3, cr4, {1}
     e18:	0b3b0b3a 	bleq	ec3b08 <__bss_end__+0xeb9ea8>
     e1c:	13490b39 	movtne	r0, #39737	; 0x9b39
     e20:	193c193f 	ldmdbne	ip!, {r0, r1, r2, r3, r4, r5, r8, fp, ip}
     e24:	340a0000 	strcc	r0, [sl], #-0
     e28:	3a0e0300 	bcc	381a30 <__bss_end__+0x377dd0>
     e2c:	390b3b0b 	stmdbcc	fp, {r0, r1, r3, r8, r9, fp, ip, sp}
     e30:	0213490b 	andseq	r4, r3, #180224	; 0x2c000
     e34:	0b000018 	bleq	e9c <__code_start__-0x7164>
     e38:	0b0b000f 	bleq	2c0e7c <__bss_end__+0x2b721c>
     e3c:	00001349 	andeq	r1, r0, r9, asr #6
     e40:	3f012e0c 	svccc	0x00012e0c
     e44:	3a0e0319 	bcc	381ab0 <__bss_end__+0x377e50>
     e48:	390b3b0b 	stmdbcc	fp, {r0, r1, r3, r8, r9, fp, ip, sp}
     e4c:	1119270b 	tstne	r9, fp, lsl #14
     e50:	40061201 	andmi	r1, r6, r1, lsl #4
     e54:	19429718 	stmdbne	r2, {r3, r4, r8, r9, sl, ip, pc}^
     e58:	00001301 	andeq	r1, r0, r1, lsl #6
     e5c:	0300050d 	movweq	r0, #1293	; 0x50d
     e60:	3b0b3a08 	blcc	2cf688 <__bss_end__+0x2c5a28>
     e64:	490b390b 	stmdbmi	fp, {r0, r1, r3, r8, fp, ip, sp}
     e68:	b7170213 			; <UNDEFINED> instruction: 0xb7170213
     e6c:	00001742 	andeq	r1, r0, r2, asr #14
     e70:	0300340e 	movweq	r3, #1038	; 0x40e
     e74:	3413490e 	ldrcc	r4, [r3], #-2318	; 0xfffff6f2
     e78:	00180219 	andseq	r0, r8, r9, lsl r2
     e7c:	82890f00 	addhi	r0, r9, #0, 30
     e80:	01110101 	tsteq	r1, r1, lsl #2
     e84:	13011331 	movwne	r1, #4913	; 0x1331
     e88:	8a100000 	bhi	400e90 <__bss_end__+0x3f7230>
     e8c:	02000182 	andeq	r0, r0, #-2147483616	; 0x80000020
     e90:	18429118 	stmdane	r2, {r3, r4, r8, ip, pc}^
     e94:	89110000 	ldmdbhi	r1, {}	; <UNPREDICTABLE>
     e98:	11000182 	smlabbne	r0, r2, r1, r0
     e9c:	00133101 	andseq	r3, r3, r1, lsl #2
     ea0:	01011200 	mrseq	r1, R9_usr
     ea4:	13011349 	movwne	r1, #4937	; 0x1349
     ea8:	21130000 	tstcs	r3, r0
     eac:	2f134900 	svccs	0x00134900
     eb0:	1400000b 	strne	r0, [r0], #-11
     eb4:	193f002e 	ldmdbne	pc!, {r1, r2, r3, r5}	; <UNPREDICTABLE>
     eb8:	0b3a0e03 	bleq	e846cc <__bss_end__+0xe7aa6c>
     ebc:	0b390b3b 	bleq	e43bb0 <__bss_end__+0xe39f50>
     ec0:	01111927 	tsteq	r1, r7, lsr #18
     ec4:	18400612 	stmdane	r0, {r1, r4, r9, sl}^
     ec8:	00194297 	mulseq	r9, r7, r2
     ecc:	00051500 	andeq	r1, r5, r0, lsl #10
     ed0:	0b3a0803 	bleq	e82ee4 <__bss_end__+0xe79284>
     ed4:	0b390b3b 	bleq	e43bc8 <__bss_end__+0xe39f68>
     ed8:	18021349 	stmdane	r2, {r0, r3, r6, r8, r9, ip}
     edc:	2e160000 	cdpcs	0, 1, cr0, cr6, cr0, {0}
     ee0:	03193f01 	tsteq	r9, #1, 30
     ee4:	3b0b3a0e 	blcc	2cf724 <__bss_end__+0x2c5ac4>
     ee8:	270b390b 	strcs	r3, [fp, -fp, lsl #18]
     eec:	11134919 	tstne	r3, r9, lsl r9
     ef0:	40061201 	andmi	r1, r6, r1, lsl #4
     ef4:	19429718 	stmdbne	r2, {r3, r4, r8, r9, sl, ip, pc}^
     ef8:	00001301 	andeq	r1, r0, r1, lsl #6
     efc:	03000517 	movweq	r0, #1303	; 0x517
     f00:	3b0b3a0e 	blcc	2cf740 <__bss_end__+0x2c5ae0>
     f04:	490b390b 	stmdbmi	fp, {r0, r1, r3, r8, fp, ip, sp}
     f08:	b7170213 			; <UNDEFINED> instruction: 0xb7170213
     f0c:	00001742 	andeq	r1, r0, r2, asr #14
     f10:	03003418 	movweq	r3, #1048	; 0x418
     f14:	3b0b3a08 	blcc	2cf73c <__bss_end__+0x2c5adc>
     f18:	490b390b 	stmdbmi	fp, {r0, r1, r3, r8, fp, ip, sp}
     f1c:	b7170213 			; <UNDEFINED> instruction: 0xb7170213
     f20:	00001742 	andeq	r1, r0, r2, asr #14
     f24:	31011d19 	tstcc	r1, r9, lsl sp
     f28:	b8015213 	stmdalt	r1, {r0, r1, r4, r9, ip, lr}
     f2c:	01110b42 	tsteq	r1, r2, asr #22
     f30:	0b580612 	bleq	1602780 <__bss_end__+0x15f8b20>
     f34:	0b570b59 	bleq	15c3ca0 <__bss_end__+0x15ba040>
     f38:	00001301 	andeq	r1, r0, r1, lsl #6
     f3c:	3100051a 	tstcc	r0, sl, lsl r5
     f40:	b7170213 			; <UNDEFINED> instruction: 0xb7170213
     f44:	00001742 	andeq	r1, r0, r2, asr #14
     f48:	31011d1b 	tstcc	r1, fp, lsl sp
     f4c:	b8015213 	stmdalt	r1, {r0, r1, r4, r9, ip, lr}
     f50:	17550b42 	ldrbne	r0, [r5, -r2, asr #22]
     f54:	0b590b58 	bleq	1643cbc <__bss_end__+0x163a05c>
     f58:	13010b57 	movwne	r0, #6999	; 0x1b57
     f5c:	0b1c0000 	bleq	700f64 <__bss_end__+0x6f7304>
     f60:	00175501 	andseq	r5, r7, r1, lsl #10
     f64:	00341d00 	eorseq	r1, r4, r0, lsl #26
     f68:	0b3a0e03 	bleq	e8477c <__bss_end__+0xe7ab1c>
     f6c:	0b390b3b 	bleq	e43c60 <__bss_end__+0xe3a000>
     f70:	17021349 	strne	r1, [r2, -r9, asr #6]
     f74:	001742b7 			; <UNDEFINED> instruction: 0x001742b7
     f78:	000b1e00 	andeq	r1, fp, r0, lsl #28
     f7c:	00001755 	andeq	r1, r0, r5, asr r7
     f80:	3f002e1f 	svccc	0x00002e1f
     f84:	3a0e0319 	bcc	381bf0 <__bss_end__+0x377f90>
     f88:	390b3b0b 	stmdbcc	fp, {r0, r1, r3, r8, r9, fp, ip, sp}
     f8c:	4919270b 	ldmdbmi	r9, {r0, r1, r3, r8, r9, sl, sp}
     f90:	12011113 	andne	r1, r1, #-1073741820	; 0xc0000004
     f94:	97184006 	ldrls	r4, [r8, -r6]
     f98:	00001942 	andeq	r1, r0, r2, asr #18
     f9c:	03012e20 	movweq	r2, #7712	; 0x1e20
     fa0:	3b0b3a0e 	blcc	2cf7e0 <__bss_end__+0x2c5b80>
     fa4:	270b390b 	strcs	r3, [fp, -fp, lsl #18]
     fa8:	20134919 	andscs	r4, r3, r9, lsl r9
     fac:	0013010b 	andseq	r0, r3, fp, lsl #2
     fb0:	00052100 	andeq	r2, r5, r0, lsl #2
     fb4:	0b3a0803 	bleq	e82fc8 <__bss_end__+0xe79368>
     fb8:	0b390b3b 	bleq	e43cac <__bss_end__+0xe3a04c>
     fbc:	00001349 	andeq	r1, r0, r9, asr #6
     fc0:	3f002e22 	svccc	0x00002e22
     fc4:	6e193c19 	mrcvs	12, 0, r3, cr9, cr9, {0}
     fc8:	3a0e030e 	bcc	381c08 <__bss_end__+0x377fa8>
     fcc:	390b3b0b 	stmdbcc	fp, {r0, r1, r3, r8, r9, fp, ip, sp}
     fd0:	0000000b 	andeq	r0, r0, fp
     fd4:	25011101 	strcs	r1, [r1, #-257]	; 0xfffffeff
     fd8:	030b130e 	movweq	r1, #45838	; 0xb30e
     fdc:	110e1b0e 	tstne	lr, lr, lsl #22
     fe0:	10061201 	andne	r1, r6, r1, lsl #4
     fe4:	02000017 	andeq	r0, r0, #23, 0
     fe8:	0b0b0024 	bleq	2c1080 <__bss_end__+0x2b7420>
     fec:	08030b3e 	stmdaeq	r3, {r1, r2, r3, r4, r5, r8, r9, fp}
     ff0:	16030000 	strne	r0, [r3], -r0
     ff4:	3a0e0300 	bcc	381bfc <__bss_end__+0x377f9c>
     ff8:	390b3b0b 	stmdbcc	fp, {r0, r1, r3, r8, r9, fp, ip, sp}
     ffc:	0013490b 	andseq	r4, r3, fp, lsl #18
    1000:	00240400 	eoreq	r0, r4, r0, lsl #8
    1004:	0b3e0b0b 	bleq	f83c38 <__bss_end__+0xf79fd8>
    1008:	00000e03 	andeq	r0, r0, r3, lsl #28
    100c:	27011505 	strcs	r1, [r1, -r5, lsl #10]
    1010:	01134919 	tsteq	r3, r9, lsl r9
    1014:	06000013 			; <UNDEFINED> instruction: 0x06000013
    1018:	13490005 	movtne	r0, #36869	; 0x9005
    101c:	34070000 	strcc	r0, [r7], #-0
    1020:	3a0e0300 	bcc	381c28 <__bss_end__+0x377fc8>
    1024:	390b3b0b 	stmdbcc	fp, {r0, r1, r3, r8, r9, fp, ip, sp}
    1028:	3f13490b 	svccc	0x0013490b
    102c:	00193c19 	andseq	r3, r9, r9, lsl ip
    1030:	000f0800 	andeq	r0, pc, r0, lsl #16
    1034:	13490b0b 	movtne	r0, #39691	; 0x9b0b
    1038:	26090000 	strcs	r0, [r9], -r0
    103c:	00134900 	andseq	r4, r3, r0, lsl #18
    1040:	012e0a00 			; <UNDEFINED> instruction: 0x012e0a00
    1044:	0e03193f 			; <UNDEFINED> instruction: 0x0e03193f
    1048:	0b3b0b3a 	bleq	ec3d38 <__bss_end__+0xeba0d8>
    104c:	19270b39 	stmdbne	r7!, {r0, r3, r4, r5, r8, r9, fp}
    1050:	01111349 	tsteq	r1, r9, asr #6
    1054:	18400612 	stmdane	r0, {r1, r4, r9, sl}^
    1058:	01194297 			; <UNDEFINED> instruction: 0x01194297
    105c:	0b000013 	bleq	10b0 <__code_start__-0x6f50>
    1060:	08030005 	stmdaeq	r3, {r0, r2}
    1064:	0b3b0b3a 	bleq	ec3d54 <__bss_end__+0xeba0f4>
    1068:	13490b39 	movtne	r0, #39737	; 0x9b39
    106c:	00001802 	andeq	r1, r0, r2, lsl #16
    1070:	0300050c 	movweq	r0, #1292	; 0x50c
    1074:	3b0b3a08 	blcc	2cf89c <__bss_end__+0x2c5c3c>
    1078:	490b390b 	stmdbmi	fp, {r0, r1, r3, r8, fp, ip, sp}
    107c:	b7170213 			; <UNDEFINED> instruction: 0xb7170213
    1080:	00001742 	andeq	r1, r0, r2, asr #14
    1084:	0300340d 	movweq	r3, #1037	; 0x40d
    1088:	3b0b3a08 	blcc	2cf8b0 <__bss_end__+0x2c5c50>
    108c:	490b390b 	stmdbmi	fp, {r0, r1, r3, r8, fp, ip, sp}
    1090:	b7170213 			; <UNDEFINED> instruction: 0xb7170213
    1094:	00001742 	andeq	r1, r0, r2, asr #14
    1098:	0b000f0e 	bleq	4cd8 <__code_start__-0x3328>
    109c:	0000000b 	andeq	r0, r0, fp
    10a0:	25011101 	strcs	r1, [r1, #-257]	; 0xfffffeff
    10a4:	030b130e 	movweq	r1, #45838	; 0xb30e
    10a8:	110e1b0e 	tstne	lr, lr, lsl #22
    10ac:	10061201 	andne	r1, r6, r1, lsl #4
    10b0:	02000017 	andeq	r0, r0, #23, 0
    10b4:	0b0b0024 	bleq	2c114c <__bss_end__+0x2b74ec>
    10b8:	08030b3e 	stmdaeq	r3, {r1, r2, r3, r4, r5, r8, r9, fp}
    10bc:	24030000 	strcs	r0, [r3], #-0
    10c0:	3e0b0b00 	vmlacc.f64	d0, d11, d0
    10c4:	000e030b 	andeq	r0, lr, fp, lsl #6
    10c8:	01150400 	tsteq	r5, r0, lsl #8
    10cc:	13491927 	movtne	r1, #39207	; 0x9927
    10d0:	00001301 	andeq	r1, r0, r1, lsl #6
    10d4:	49000505 	stmdbmi	r0, {r0, r2, r8, sl}
    10d8:	06000013 			; <UNDEFINED> instruction: 0x06000013
    10dc:	0e030034 	mcreq	0, 0, r0, cr3, cr4, {1}
    10e0:	0b3b0b3a 	bleq	ec3dd0 <__bss_end__+0xeba170>
    10e4:	13490b39 	movtne	r0, #39737	; 0x9b39
    10e8:	193c193f 	ldmdbne	ip!, {r0, r1, r2, r3, r4, r5, r8, fp, ip}
    10ec:	0f070000 	svceq	0x00070000
    10f0:	490b0b00 	stmdbmi	fp, {r8, r9, fp}
    10f4:	08000013 	stmdaeq	r0, {r0, r1, r4}
    10f8:	13490026 	movtne	r0, #36902	; 0x9026
    10fc:	34090000 	strcc	r0, [r9], #-0
    1100:	3a134700 	bcc	4d2d08 <__bss_end__+0x4c90a8>
    1104:	390b3b0b 	stmdbcc	fp, {r0, r1, r3, r8, r9, fp, ip, sp}
    1108:	0018020b 	andseq	r0, r8, fp, lsl #4
    110c:	012e0a00 			; <UNDEFINED> instruction: 0x012e0a00
    1110:	0e03193f 			; <UNDEFINED> instruction: 0x0e03193f
    1114:	0b3b0b3a 	bleq	ec3e04 <__bss_end__+0xeba1a4>
    1118:	19270b39 	stmdbne	r7!, {r0, r3, r4, r5, r8, r9, fp}
    111c:	06120111 			; <UNDEFINED> instruction: 0x06120111
    1120:	42971840 	addsmi	r1, r7, #64, 16	; 0x400000
    1124:	00130119 	andseq	r0, r3, r9, lsl r1
    1128:	00050b00 	andeq	r0, r5, r0, lsl #22
    112c:	0b3a0803 	bleq	e83140 <__bss_end__+0xe794e0>
    1130:	0b390b3b 	bleq	e43e24 <__bss_end__+0xe3a1c4>
    1134:	18021349 	stmdane	r2, {r0, r3, r6, r8, r9, ip}
    1138:	2e0c0000 	cdpcs	0, 0, cr0, cr12, cr0, {0}
    113c:	03193f00 	tsteq	r9, #0, 30
    1140:	3b0b3a0e 	blcc	2cf980 <__bss_end__+0x2c5d20>
    1144:	270b390b 	strcs	r3, [fp, -fp, lsl #18]
    1148:	12011119 	andne	r1, r1, #1073741830	; 0x40000006
    114c:	97184006 	ldrls	r4, [r8, -r6]
    1150:	00001942 	andeq	r1, r0, r2, asr #18
    1154:	03012e0d 	movweq	r2, #7693	; 0x1e0d
    1158:	3b0b3a0e 	blcc	2cf998 <__bss_end__+0x2c5d38>
    115c:	270b390b 	strcs	r3, [fp, -fp, lsl #18]
    1160:	11134919 	tstne	r3, r9, lsl r9
    1164:	40061201 	andmi	r1, r6, r1, lsl #4
    1168:	19429718 	stmdbne	r2, {r3, r4, r8, r9, sl, ip, pc}^
    116c:	00001301 	andeq	r1, r0, r1, lsl #6
    1170:	0300050e 	movweq	r0, #1294	; 0x50e
    1174:	3b0b3a08 	blcc	2cf99c <__bss_end__+0x2c5d3c>
    1178:	490b390b 	stmdbmi	fp, {r0, r1, r3, r8, fp, ip, sp}
    117c:	b7170213 			; <UNDEFINED> instruction: 0xb7170213
    1180:	00001742 	andeq	r1, r0, r2, asr #14
    1184:	0182890f 	orreq	r8, r2, pc, lsl #18
    1188:	31011101 	tstcc	r1, r1, lsl #2
    118c:	10000013 	andne	r0, r0, r3, lsl r0
    1190:	0001828a 	andeq	r8, r1, sl, lsl #5
    1194:	42911802 	addsmi	r1, r1, #131072	; 0x20000
    1198:	11000018 	tstne	r0, r8, lsl r0
    119c:	193f002e 	ldmdbne	pc!, {r1, r2, r3, r5}	; <UNPREDICTABLE>
    11a0:	0e6e193c 			; <UNDEFINED> instruction: 0x0e6e193c
    11a4:	0b3a0e03 	bleq	e849b8 <__bss_end__+0xe7ad58>
    11a8:	0b390b3b 	bleq	e43e9c <__bss_end__+0xe3a23c>
    11ac:	01000000 	mrseq	r0, (UNDEF: 0)
    11b0:	0e250111 	mcreq	1, 1, r0, cr5, cr1, {0}
    11b4:	0e030b13 	vmoveq.32	d3[0], r0
    11b8:	01110e1b 	tsteq	r1, fp, lsl lr
    11bc:	17100612 			; <UNDEFINED> instruction: 0x17100612
    11c0:	24020000 	strcs	r0, [r2], #-0
    11c4:	3e0b0b00 	vmlacc.f64	d0, d11, d0
    11c8:	0008030b 	andeq	r0, r8, fp, lsl #6
    11cc:	00240300 	eoreq	r0, r4, r0, lsl #6
    11d0:	0b3e0b0b 	bleq	f83e04 <__bss_end__+0xf7a1a4>
    11d4:	00000e03 	andeq	r0, r0, r3, lsl #28
    11d8:	27011504 	strcs	r1, [r1, -r4, lsl #10]
    11dc:	01134919 	tsteq	r3, r9, lsl r9
    11e0:	05000013 	streq	r0, [r0, #-19]	; 0xffffffed
    11e4:	13490005 	movtne	r0, #36869	; 0x9005
    11e8:	34060000 	strcc	r0, [r6], #-0
    11ec:	3a0e0300 	bcc	381df4 <__bss_end__+0x378194>
    11f0:	390b3b0b 	stmdbcc	fp, {r0, r1, r3, r8, r9, fp, ip, sp}
    11f4:	3f13490b 	svccc	0x0013490b
    11f8:	00193c19 	andseq	r3, r9, r9, lsl ip
    11fc:	000f0700 	andeq	r0, pc, r0, lsl #14
    1200:	13490b0b 	movtne	r0, #39691	; 0x9b0b
    1204:	26080000 	strcs	r0, [r8], -r0
    1208:	00134900 	andseq	r4, r3, r0, lsl #18
    120c:	012e0900 			; <UNDEFINED> instruction: 0x012e0900
    1210:	0e03193f 			; <UNDEFINED> instruction: 0x0e03193f
    1214:	0b3b0b3a 	bleq	ec3f04 <__bss_end__+0xeba2a4>
    1218:	19270b39 	stmdbne	r7!, {r0, r3, r4, r5, r8, r9, fp}
    121c:	01111349 	tsteq	r1, r9, asr #6
    1220:	18400612 	stmdane	r0, {r1, r4, r9, sl}^
    1224:	01194297 			; <UNDEFINED> instruction: 0x01194297
    1228:	0a000013 	beq	127c <__code_start__-0x6d84>
    122c:	0e030005 	cdpeq	0, 0, cr0, cr3, cr5, {0}
    1230:	0b3b0b3a 	bleq	ec3f20 <__bss_end__+0xeba2c0>
    1234:	13490b39 	movtne	r0, #39737	; 0x9b39
    1238:	00001802 	andeq	r1, r0, r2, lsl #16
    123c:	0300050b 	movweq	r0, #1291	; 0x50b
    1240:	3b0b3a08 	blcc	2cfa68 <__bss_end__+0x2c5e08>
    1244:	490b390b 	stmdbmi	fp, {r0, r1, r3, r8, fp, ip, sp}
    1248:	b7170213 			; <UNDEFINED> instruction: 0xb7170213
    124c:	00001742 	andeq	r1, r0, r2, asr #14
    1250:	0300340c 	movweq	r3, #1036	; 0x40c
    1254:	3b0b3a08 	blcc	2cfa7c <__bss_end__+0x2c5e1c>
    1258:	490b390b 	stmdbmi	fp, {r0, r1, r3, r8, fp, ip, sp}
    125c:	b7170213 			; <UNDEFINED> instruction: 0xb7170213
    1260:	00001742 	andeq	r1, r0, r2, asr #14
    1264:	01110100 	tsteq	r1, r0, lsl #2
    1268:	0b130e25 	bleq	4c4b04 <__bss_end__+0x4baea4>
    126c:	0e1b0e03 	cdpeq	14, 1, cr0, cr11, cr3, {0}
    1270:	06120111 			; <UNDEFINED> instruction: 0x06120111
    1274:	00001710 	andeq	r1, r0, r0, lsl r7
    1278:	0b002402 	bleq	a288 <__bss_end__+0x628>
    127c:	030b3e0b 	movweq	r3, #48651	; 0xbe0b
    1280:	03000008 	movweq	r0, #8
    1284:	0b0b0024 	bleq	2c131c <__bss_end__+0x2b76bc>
    1288:	0e030b3e 	vmoveq.16	d3[0], r0
    128c:	15040000 	strne	r0, [r4, #-0]
    1290:	49192701 	ldmdbmi	r9, {r0, r8, r9, sl, sp}
    1294:	00130113 	andseq	r0, r3, r3, lsl r1
    1298:	00050500 	andeq	r0, r5, r0, lsl #10
    129c:	00001349 	andeq	r1, r0, r9, asr #6
    12a0:	03003406 	movweq	r3, #1030	; 0x406
    12a4:	3b0b3a0e 	blcc	2cfae4 <__bss_end__+0x2c5e84>
    12a8:	490b390b 	stmdbmi	fp, {r0, r1, r3, r8, fp, ip, sp}
    12ac:	3c193f13 	ldccc	15, cr3, [r9], {19}
    12b0:	07000019 	smladeq	r0, r9, r0, r0
    12b4:	0b0b000f 	bleq	2c12f8 <__bss_end__+0x2b7698>
    12b8:	00001349 	andeq	r1, r0, r9, asr #6
    12bc:	49002608 	stmdbmi	r0, {r3, r9, sl, sp}
    12c0:	09000013 	stmdbeq	r0, {r0, r1, r4}
    12c4:	193f012e 	ldmdbne	pc!, {r1, r2, r3, r5, r8}	; <UNPREDICTABLE>
    12c8:	0b3a0e03 	bleq	e84adc <__bss_end__+0xe7ae7c>
    12cc:	0b390b3b 	bleq	e43fc0 <__bss_end__+0xe3a360>
    12d0:	13491927 	movtne	r1, #39207	; 0x9927
    12d4:	06120111 			; <UNDEFINED> instruction: 0x06120111
    12d8:	42971840 	addsmi	r1, r7, #64, 16	; 0x400000
    12dc:	0a000019 	beq	1348 <__code_start__-0x6cb8>
    12e0:	08030005 	stmdaeq	r3, {r0, r2}
    12e4:	0b3b0b3a 	bleq	ec3fd4 <__bss_end__+0xeba374>
    12e8:	13490b39 	movtne	r0, #39737	; 0x9b39
    12ec:	42b71702 	adcsmi	r1, r7, #524288	; 0x80000
    12f0:	00000017 	andeq	r0, r0, r7, lsl r0
    12f4:	25011101 	strcs	r1, [r1, #-257]	; 0xfffffeff
    12f8:	030b130e 	movweq	r1, #45838	; 0xb30e
    12fc:	110e1b0e 	tstne	lr, lr, lsl #22
    1300:	10061201 	andne	r1, r6, r1, lsl #4
    1304:	02000017 	andeq	r0, r0, #23, 0
    1308:	0b0b0024 	bleq	2c13a0 <__bss_end__+0x2b7740>
    130c:	08030b3e 	stmdaeq	r3, {r1, r2, r3, r4, r5, r8, r9, fp}
    1310:	24030000 	strcs	r0, [r3], #-0
    1314:	3e0b0b00 	vmlacc.f64	d0, d11, d0
    1318:	000e030b 	andeq	r0, lr, fp, lsl #6
    131c:	01150400 	tsteq	r5, r0, lsl #8
    1320:	13491927 	movtne	r1, #39207	; 0x9927
    1324:	00001301 	andeq	r1, r0, r1, lsl #6
    1328:	49000505 	stmdbmi	r0, {r0, r2, r8, sl}
    132c:	06000013 			; <UNDEFINED> instruction: 0x06000013
    1330:	0e030034 	mcreq	0, 0, r0, cr3, cr4, {1}
    1334:	0b3b0b3a 	bleq	ec4024 <__bss_end__+0xeba3c4>
    1338:	13490b39 	movtne	r0, #39737	; 0x9b39
    133c:	193c193f 	ldmdbne	ip!, {r0, r1, r2, r3, r4, r5, r8, fp, ip}
    1340:	0f070000 	svceq	0x00070000
    1344:	490b0b00 	stmdbmi	fp, {r8, r9, fp}
    1348:	08000013 	stmdaeq	r0, {r0, r1, r4}
    134c:	13490026 	movtne	r0, #36902	; 0x9026
    1350:	2e090000 	cdpcs	0, 0, cr0, cr9, cr0, {0}
    1354:	03193f01 	tsteq	r9, #1, 30
    1358:	3b0b3a0e 	blcc	2cfb98 <__bss_end__+0x2c5f38>
    135c:	270b390b 	strcs	r3, [fp, -fp, lsl #18]
    1360:	11134919 	tstne	r3, r9, lsl r9
    1364:	40061201 	andmi	r1, r6, r1, lsl #4
    1368:	19429718 	stmdbne	r2, {r3, r4, r8, r9, sl, ip, pc}^
    136c:	00001301 	andeq	r1, r0, r1, lsl #6
    1370:	0300050a 	movweq	r0, #1290	; 0x50a
    1374:	3b0b3a08 	blcc	2cfb9c <__bss_end__+0x2c5f3c>
    1378:	490b390b 	stmdbmi	fp, {r0, r1, r3, r8, fp, ip, sp}
    137c:	00180213 	andseq	r0, r8, r3, lsl r2
    1380:	00050b00 	andeq	r0, r5, r0, lsl #22
    1384:	0b3a0803 	bleq	e83398 <__bss_end__+0xe79738>
    1388:	0b390b3b 	bleq	e4407c <__bss_end__+0xe3a41c>
    138c:	17021349 	strne	r1, [r2, -r9, asr #6]
    1390:	001742b7 			; <UNDEFINED> instruction: 0x001742b7
    1394:	00340c00 	eorseq	r0, r4, r0, lsl #24
    1398:	0b3a0803 	bleq	e833ac <__bss_end__+0xe7974c>
    139c:	0b390b3b 	bleq	e44090 <__bss_end__+0xe3a430>
    13a0:	17021349 	strne	r1, [r2, -r9, asr #6]
    13a4:	001742b7 			; <UNDEFINED> instruction: 0x001742b7
    13a8:	11010000 	mrsne	r0, (UNDEF: 1)
    13ac:	130e2501 	movwne	r2, #58625	; 0xe501
    13b0:	1b0e030b 	blne	381fe4 <__bss_end__+0x378384>
    13b4:	1117550e 	tstne	r7, lr, lsl #10
    13b8:	00171001 	andseq	r1, r7, r1
    13bc:	00240200 	eoreq	r0, r4, r0, lsl #4
    13c0:	0b3e0b0b 	bleq	f83ff4 <__bss_end__+0xf7a394>
    13c4:	00000803 	andeq	r0, r0, r3, lsl #16
    13c8:	03001603 	movweq	r1, #1539	; 0x603
    13cc:	3b0b3a0e 	blcc	2cfc0c <__bss_end__+0x2c5fac>
    13d0:	490b390b 	stmdbmi	fp, {r0, r1, r3, r8, fp, ip, sp}
    13d4:	04000013 	streq	r0, [r0], #-19	; 0xffffffed
    13d8:	0b0b0024 	bleq	2c1470 <__bss_end__+0x2b7810>
    13dc:	0e030b3e 	vmoveq.16	d3[0], r0
    13e0:	26050000 	strcs	r0, [r5], -r0
    13e4:	00134900 	andseq	r4, r3, r0, lsl #18
    13e8:	01150600 	tsteq	r5, r0, lsl #12
    13ec:	13491927 	movtne	r1, #39207	; 0x9927
    13f0:	00001301 	andeq	r1, r0, r1, lsl #6
    13f4:	49000507 	stmdbmi	r0, {r0, r1, r2, r8, sl}
    13f8:	08000013 	stmdaeq	r0, {r0, r1, r4}
    13fc:	0e030034 	mcreq	0, 0, r0, cr3, cr4, {1}
    1400:	0b3b0b3a 	bleq	ec40f0 <__bss_end__+0xeba490>
    1404:	13490b39 	movtne	r0, #39737	; 0x9b39
    1408:	193c193f 	ldmdbne	ip!, {r0, r1, r2, r3, r4, r5, r8, fp, ip}
    140c:	0f090000 	svceq	0x00090000
    1410:	490b0b00 	stmdbmi	fp, {r8, r9, fp}
    1414:	0a000013 	beq	1468 <__code_start__-0x6b98>
    1418:	193f012e 	ldmdbne	pc!, {r1, r2, r3, r5, r8}	; <UNPREDICTABLE>
    141c:	0b3a0e03 	bleq	e84c30 <__bss_end__+0xe7afd0>
    1420:	0b390b3b 	bleq	e44114 <__bss_end__+0xe3a4b4>
    1424:	13491927 	movtne	r1, #39207	; 0x9927
    1428:	06120111 			; <UNDEFINED> instruction: 0x06120111
    142c:	42971840 	addsmi	r1, r7, #64, 16	; 0x400000
    1430:	00130119 	andseq	r0, r3, r9, lsl r1
    1434:	00050b00 	andeq	r0, r5, r0, lsl #22
    1438:	0b3a0803 	bleq	e8344c <__bss_end__+0xe797ec>
    143c:	0b390b3b 	bleq	e44130 <__bss_end__+0xe3a4d0>
    1440:	17021349 	strne	r1, [r2, -r9, asr #6]
    1444:	001742b7 			; <UNDEFINED> instruction: 0x001742b7
    1448:	00340c00 	eorseq	r0, r4, r0, lsl #24
    144c:	0b3a0803 	bleq	e83460 <__bss_end__+0xe79800>
    1450:	0b390b3b 	bleq	e44144 <__bss_end__+0xe3a4e4>
    1454:	17021349 	strne	r1, [r2, -r9, asr #6]
    1458:	001742b7 			; <UNDEFINED> instruction: 0x001742b7
    145c:	11010000 	mrsne	r0, (UNDEF: 1)
    1460:	130e2501 	movwne	r2, #58625	; 0xe501
    1464:	1b0e030b 	blne	382098 <__bss_end__+0x378438>
    1468:	1201110e 	andne	r1, r1, #-2147483645	; 0x80000003
    146c:	00171006 	andseq	r1, r7, r6
    1470:	00240200 	eoreq	r0, r4, r0, lsl #4
    1474:	0b3e0b0b 	bleq	f840a8 <__bss_end__+0xf7a448>
    1478:	00000803 	andeq	r0, r0, r3, lsl #16
    147c:	0b002403 	bleq	a490 <__bss_end__+0x830>
    1480:	030b3e0b 	movweq	r3, #48651	; 0xbe0b
    1484:	0400000e 	streq	r0, [r0], #-14
    1488:	19270115 	stmdbne	r7!, {r0, r2, r4, r8}
    148c:	13011349 	movwne	r1, #4937	; 0x1349
    1490:	05050000 	streq	r0, [r5, #-0]
    1494:	00134900 	andseq	r4, r3, r0, lsl #18
    1498:	00340600 	eorseq	r0, r4, r0, lsl #12
    149c:	0b3a0e03 	bleq	e84cb0 <__bss_end__+0xe7b050>
    14a0:	0b390b3b 	bleq	e44194 <__bss_end__+0xe3a534>
    14a4:	193f1349 	ldmdbne	pc!, {r0, r3, r6, r8, r9, ip}	; <UNPREDICTABLE>
    14a8:	0000193c 	andeq	r1, r0, ip, lsr r9
    14ac:	0b000f07 	bleq	50d0 <__code_start__-0x2f30>
    14b0:	0013490b 	andseq	r4, r3, fp, lsl #18
    14b4:	00260800 	eoreq	r0, r6, r0, lsl #16
    14b8:	00001349 	andeq	r1, r0, r9, asr #6
    14bc:	3f002e09 	svccc	0x00002e09
    14c0:	3a0e0319 	bcc	38212c <__bss_end__+0x3784cc>
    14c4:	390b3b0b 	stmdbcc	fp, {r0, r1, r3, r8, r9, fp, ip, sp}
    14c8:	1119270b 	tstne	r9, fp, lsl #14
    14cc:	40061201 	andmi	r1, r6, r1, lsl #4
    14d0:	19429718 	stmdbne	r2, {r3, r4, r8, r9, sl, ip, pc}^
    14d4:	01000000 	mrseq	r0, (UNDEF: 0)
    14d8:	0e250111 	mcreq	1, 1, r0, cr5, cr1, {0}
    14dc:	0e030b13 	vmoveq.32	d3[0], r0
    14e0:	01110e1b 	tsteq	r1, fp, lsl lr
    14e4:	17100612 			; <UNDEFINED> instruction: 0x17100612
    14e8:	24020000 	strcs	r0, [r2], #-0
    14ec:	3e0b0b00 	vmlacc.f64	d0, d11, d0
    14f0:	0008030b 	andeq	r0, r8, fp, lsl #6
    14f4:	00240300 	eoreq	r0, r4, r0, lsl #6
    14f8:	0b3e0b0b 	bleq	f8412c <__bss_end__+0xf7a4cc>
    14fc:	00000e03 	andeq	r0, r0, r3, lsl #28
    1500:	49002604 	stmdbmi	r0, {r2, r9, sl, sp}
    1504:	05000013 	streq	r0, [r0, #-19]	; 0xffffffed
    1508:	0e030016 	mcreq	0, 0, r0, cr3, cr6, {0}
    150c:	0b3b0b3a 	bleq	ec41fc <__bss_end__+0xeba59c>
    1510:	13490b39 	movtne	r0, #39737	; 0x9b39
    1514:	04060000 	streq	r0, [r6], #-0
    1518:	0b0b3e01 	bleq	2d0d24 <__bss_end__+0x2c70c4>
    151c:	3a13490b 	bcc	4d3950 <__bss_end__+0x4c9cf0>
    1520:	390b3b0b 	stmdbcc	fp, {r0, r1, r3, r8, r9, fp, ip, sp}
    1524:	0013010b 	andseq	r0, r3, fp, lsl #2
    1528:	00280700 	eoreq	r0, r8, r0, lsl #14
    152c:	0b1c0e03 	bleq	704d40 <__bss_end__+0x6fb0e0>
    1530:	34080000 	strcc	r0, [r8], #-0
    1534:	3a0e0300 	bcc	38213c <__bss_end__+0x3784dc>
    1538:	390b3b0b 	stmdbcc	fp, {r0, r1, r3, r8, r9, fp, ip, sp}
    153c:	1c13490b 			; <UNDEFINED> instruction: 0x1c13490b
    1540:	09000006 	stmdbeq	r0, {r1, r2}
    1544:	193f012e 	ldmdbne	pc!, {r1, r2, r3, r5, r8}	; <UNPREDICTABLE>
    1548:	0b3a0e03 	bleq	e84d5c <__bss_end__+0xe7b0fc>
    154c:	0b390b3b 	bleq	e44240 <__bss_end__+0xe3a5e0>
    1550:	13491927 	movtne	r1, #39207	; 0x9927
    1554:	06120111 			; <UNDEFINED> instruction: 0x06120111
    1558:	42971840 	addsmi	r1, r7, #64, 16	; 0x400000
    155c:	00130119 	andseq	r0, r3, r9, lsl r1
    1560:	00050a00 	andeq	r0, r5, r0, lsl #20
    1564:	0b3a0803 	bleq	e83578 <__bss_end__+0xe79918>
    1568:	0b390b3b 	bleq	e4425c <__bss_end__+0xe3a5fc>
    156c:	17021349 	strne	r1, [r2, -r9, asr #6]
    1570:	001742b7 			; <UNDEFINED> instruction: 0x001742b7
    1574:	00340b00 	eorseq	r0, r4, r0, lsl #22
    1578:	0b3a0e03 	bleq	e84d8c <__bss_end__+0xe7b12c>
    157c:	0b390b3b 	bleq	e44270 <__bss_end__+0xe3a610>
    1580:	17021349 	strne	r1, [r2, -r9, asr #6]
    1584:	001742b7 			; <UNDEFINED> instruction: 0x001742b7
    1588:	00340c00 	eorseq	r0, r4, r0, lsl #24
    158c:	0b3a0803 	bleq	e835a0 <__bss_end__+0xe79940>
    1590:	0b390b3b 	bleq	e44284 <__bss_end__+0xe3a624>
    1594:	17021349 	strne	r1, [r2, -r9, asr #6]
    1598:	001742b7 			; <UNDEFINED> instruction: 0x001742b7
    159c:	82890d00 	addhi	r0, r9, #0, 26
    15a0:	01110101 	tsteq	r1, r1, lsl #2
    15a4:	00001331 	andeq	r1, r0, r1, lsr r3
    15a8:	01828a0e 	orreq	r8, r2, lr, lsl #20
    15ac:	91180200 	tstls	r8, r0, lsl #4
    15b0:	00001842 	andeq	r1, r0, r2, asr #16
    15b4:	3f012e0f 	svccc	0x00012e0f
    15b8:	3a0e0319 	bcc	382224 <__bss_end__+0x3785c4>
    15bc:	390b3b0b 	stmdbcc	fp, {r0, r1, r3, r8, r9, fp, ip, sp}
    15c0:	1119270b 	tstne	r9, fp, lsl #14
    15c4:	40061201 	andmi	r1, r6, r1, lsl #4
    15c8:	19429718 	stmdbne	r2, {r3, r4, r8, r9, sl, ip, pc}^
    15cc:	00001301 	andeq	r1, r0, r1, lsl #6
    15d0:	01828910 	orreq	r8, r2, r0, lsl r9
    15d4:	31011101 	tstcc	r1, r1, lsl #2
    15d8:	00130113 	andseq	r0, r3, r3, lsl r1
    15dc:	82891100 	addhi	r1, r9, #0
    15e0:	01110001 	tsteq	r1, r1
    15e4:	00001331 	andeq	r1, r0, r1, lsr r3
    15e8:	03000512 	movweq	r0, #1298	; 0x512
    15ec:	3b0b3a0e 	blcc	2cfe2c <__bss_end__+0x2c61cc>
    15f0:	490b390b 	stmdbmi	fp, {r0, r1, r3, r8, fp, ip, sp}
    15f4:	b7170213 			; <UNDEFINED> instruction: 0xb7170213
    15f8:	00001742 	andeq	r1, r0, r2, asr #14
    15fc:	03012e13 	movweq	r2, #7699	; 0x1e13
    1600:	3b0b3a0e 	blcc	2cfe40 <__bss_end__+0x2c61e0>
    1604:	270b390b 	strcs	r3, [fp, -fp, lsl #18]
    1608:	20134919 	andscs	r4, r3, r9, lsl r9
    160c:	0013010b 	andseq	r0, r3, fp, lsl #2
    1610:	00051400 	andeq	r1, r5, r0, lsl #8
    1614:	0b3a0803 	bleq	e83628 <__bss_end__+0xe799c8>
    1618:	0b390b3b 	bleq	e4430c <__bss_end__+0xe3a6ac>
    161c:	00001349 	andeq	r1, r0, r9, asr #6
    1620:	3f002e15 	svccc	0x00002e15
    1624:	6e193c19 	mrcvs	12, 0, r3, cr9, cr9, {0}
    1628:	3a0e030e 	bcc	382268 <__bss_end__+0x378608>
    162c:	390b3b0b 	stmdbcc	fp, {r0, r1, r3, r8, r9, fp, ip, sp}
    1630:	0000000b 	andeq	r0, r0, fp

Disassembly of section .debug_loc:

00000000 <.debug_loc>:
       0:	00000000 	andeq	r0, r0, r0
       4:	00010100 	andeq	r0, r1, r0, lsl #2
       8:	00140000 	andseq	r0, r4, r0
       c:	001c0000 	andseq	r0, ip, r0
      10:	00010000 	andeq	r0, r1, r0
      14:	00001c50 	andeq	r1, r0, r0, asr ip
      18:	00001f00 	andeq	r1, r0, r0, lsl #30
      1c:	51000100 	mrspl	r0, (UNDEF: 16)
      20:	0000001f 	andeq	r0, r0, pc, lsl r0
      24:	00000064 	andeq	r0, r0, r4, rrx
      28:	64560001 	ldrbvs	r0, [r6], #-1
      2c:	70000000 	andvc	r0, r0, r0
      30:	01000000 	mrseq	r0, (UNDEF: 0)
      34:	00705400 	rsbseq	r5, r0, r0, lsl #8
      38:	00d40000 	sbcseq	r0, r4, r0
      3c:	00010000 	andeq	r0, r1, r0
      40:	00000056 	andeq	r0, r0, r6, asr r0
      44:	00000000 	andeq	r0, r0, r0
      48:	00000200 	andeq	r0, r0, r0, lsl #4
      4c:	00002000 	andeq	r2, r0, r0
      50:	00002400 	andeq	r2, r0, r0, lsl #8
      54:	30000200 	andcc	r0, r0, r0, lsl #4
      58:	0000249f 	muleq	r0, pc, r4	; <UNPREDICTABLE>
      5c:	0000d400 	andeq	sp, r0, r0, lsl #8
      60:	55000100 	strpl	r0, [r0, #-256]	; 0xffffff00
	...
      70:	00380000 	eorseq	r0, r8, r0
      74:	00400000 	subeq	r0, r0, r0
      78:	00010000 	andeq	r0, r1, r0
      7c:	00004050 	andeq	r4, r0, r0, asr r0
      80:	00004300 	andeq	r4, r0, r0, lsl #6
      84:	51000100 	mrspl	r0, (UNDEF: 16)
      88:	00000043 	andeq	r0, r0, r3, asr #32
      8c:	000000c0 	andeq	r0, r0, r0, asr #1
      90:	00540001 	subseq	r0, r4, r1
	...
      a0:	08000000 	stmdaeq	r0, {}	; <UNPREDICTABLE>
      a4:	78000000 	stmdavc	r0, {}	; <UNPREDICTABLE>
      a8:	01000000 	mrseq	r0, (UNDEF: 0)
      ac:	00785100 	rsbseq	r5, r8, r0, lsl #2
      b0:	00840000 	addeq	r0, r4, r0
      b4:	00030000 	andeq	r0, r3, r0
      b8:	849f7870 	ldrhi	r7, [pc], #2160	; c0 <__code_start__-0x7f40>
      bc:	a4000000 	strge	r0, [r0], #-0
      c0:	01000000 	mrseq	r0, (UNDEF: 0)
      c4:	00a45100 	adceq	r5, r4, r0, lsl #2
      c8:	00bc0000 	adcseq	r0, ip, r0
      cc:	00030000 	andeq	r0, r3, r0
      d0:	009f7870 	addseq	r7, pc, r0, ror r8	; <UNPREDICTABLE>
	...
      dc:	10000000 	andne	r0, r0, r0
      e0:	48000000 	stmdami	r0, {}	; <UNPREDICTABLE>
      e4:	01000000 	mrseq	r0, (UNDEF: 0)
      e8:	004c5300 	subeq	r5, ip, r0, lsl #6
      ec:	00bc0000 	adcseq	r0, ip, r0
      f0:	00010000 	andeq	r0, r1, r0
      f4:	00000053 	andeq	r0, r0, r3, asr r0
	...
     104:	00010000 	andeq	r0, r1, r0
     108:	00012400 	andeq	r2, r1, r0, lsl #8
     10c:	50000100 	andpl	r0, r0, r0, lsl #2
     110:	00000124 	andeq	r0, r0, r4, lsr #2
     114:	00000128 	andeq	r0, r0, r8, lsr #2
     118:	01f30004 	mvnseq	r0, r4
     11c:	01289f50 			; <UNDEFINED> instruction: 0x01289f50
     120:	01400000 	mrseq	r0, (UNDEF: 64)
     124:	00010000 	andeq	r0, r1, r0
     128:	00014050 	andeq	r4, r1, r0, asr r0
     12c:	0001ac00 	andeq	sl, r1, r0, lsl #24
     130:	f3000400 	vshl.u8	d0, d0, d0
     134:	009f5001 	addseq	r5, pc, r1
	...
     144:	01010000 	mrseq	r0, (UNDEF: 1)
     148:	00000000 	andeq	r0, r0, r0
     14c:	00012400 	andeq	r2, r1, r0, lsl #8
     150:	00012800 	andeq	r2, r1, r0, lsl #16
     154:	50000100 	andpl	r0, r0, r0, lsl #2
     158:	00000140 	andeq	r0, r0, r0, asr #2
     15c:	00000160 	andeq	r0, r0, r0, ror #2
     160:	60500001 	subsvs	r0, r0, r1
     164:	64000001 	strvs	r0, [r0], #-1
     168:	03000001 	movweq	r0, #1
     16c:	9f787000 	svcls	0x00787000
     170:	00000164 	andeq	r0, r0, r4, ror #2
     174:	00000170 	andeq	r0, r0, r0, ror r1
     178:	70500001 	subsvc	r0, r0, r1
     17c:	78000001 	stmdavc	r0, {r0}
     180:	02000001 	andeq	r0, r0, #1, 0
     184:	78007000 	stmdavc	r0, {ip, sp, lr}
     188:	98000001 	stmdals	r0, {r0}
     18c:	01000001 	tsteq	r0, r1
     190:	019c5000 	orrseq	r5, ip, r0
     194:	01ac0000 			; <UNDEFINED> instruction: 0x01ac0000
     198:	00010000 	andeq	r0, r1, r0
     19c:	00000050 	andeq	r0, r0, r0, asr r0
     1a0:	00000000 	andeq	r0, r0, r0
     1a4:	01010000 	mrseq	r0, (UNDEF: 1)
     1a8:	01000000 	mrseq	r0, (UNDEF: 0)
     1ac:	18000000 	stmdane	r0, {}	; <UNPREDICTABLE>
     1b0:	28000001 	stmdacs	r0, {r0}
     1b4:	01000001 	tsteq	r0, r1
     1b8:	01285200 			; <UNDEFINED> instruction: 0x01285200
     1bc:	01400000 	mrseq	r0, (UNDEF: 64)
     1c0:	00060000 	andeq	r0, r6, r0
     1c4:	00985003 	addseq	r5, r8, r3
     1c8:	01409f00 	cmpeq	r0, r0, lsl #30
     1cc:	01700000 	cmneq	r0, r0
     1d0:	00010000 	andeq	r0, r1, r0
     1d4:	00017052 	andeq	r7, r1, r2, asr r0
     1d8:	00017800 	andeq	r7, r1, r0, lsl #16
     1dc:	50000100 	andpl	r0, r0, r0, lsl #2
     1e0:	00000178 	andeq	r0, r0, r8, ror r1
     1e4:	0000019b 	muleq	r0, fp, r1
     1e8:	00520001 	subseq	r0, r2, r1
	...
     1f4:	00011000 	andeq	r1, r1, r0
     1f8:	0001ac00 	andeq	sl, r1, r0, lsl #24
     1fc:	54000100 	strpl	r0, [r0], #-256	; 0xffffff00
	...
     20c:	000000bc 	strheq	r0, [r0], -ip
     210:	000000cc 	andeq	r0, r0, ip, asr #1
     214:	cc500001 	mrrcgt	0, 0, r0, r0, cr1	; <UNPREDICTABLE>
     218:	00000000 	andeq	r0, r0, r0
     21c:	01000001 	tsteq	r0, r1
     220:	00005400 	andeq	r5, r0, r0, lsl #8
	...
     230:	000000d4 	ldrdeq	r0, [r0], -r4
     234:	000000e4 	andeq	r0, r0, r4, ror #1
     238:	e4500001 	ldrb	r0, [r0], #-1
     23c:	e7000000 	str	r0, [r0, -r0]
     240:	03000000 	movweq	r0, #0
     244:	9f787000 	svcls	0x00787000
     248:	000000f4 	strdeq	r0, [r0], -r4
     24c:	000000f8 	strdeq	r0, [r0], -r8
     250:	00500001 	subseq	r0, r0, r1
     254:	00000000 	andeq	r0, r0, r0
     258:	01000000 	mrseq	r0, (UNDEF: 0)
     25c:	dc000000 	stcle	0, cr0, [r0], {-0}
     260:	e4000000 	str	r0, [r0], #-0
     264:	01000000 	mrseq	r0, (UNDEF: 0)
     268:	00e45000 	rsceq	r5, r4, r0
     26c:	00e70000 	rsceq	r0, r7, r0
     270:	00030000 	andeq	r0, r3, r0
     274:	009f7870 	addseq	r7, pc, r0, ror r8	; <UNPREDICTABLE>
	...
     284:	07000000 	streq	r0, [r0, -r0]
     288:	01000000 	mrseq	r0, (UNDEF: 0)
     28c:	00075000 	andeq	r5, r7, r0
     290:	000c0000 	andeq	r0, ip, r0
     294:	00040000 	andeq	r0, r4, r0
     298:	9f5001f3 	svcls	0x005001f3
	...
     2a8:	002c0000 	eoreq	r0, ip, r0
     2ac:	00380000 	eorseq	r0, r8, r0
     2b0:	00010000 	andeq	r0, r1, r0
     2b4:	00003850 	andeq	r3, r0, r0, asr r8
     2b8:	00004800 	andeq	r4, r0, r0, lsl #16
     2bc:	54000100 	strpl	r0, [r0], #-256	; 0xffffff00
     2c0:	00000048 	andeq	r0, r0, r8, asr #32
     2c4:	00000058 	andeq	r0, r0, r8, asr r0
     2c8:	00500001 	subseq	r0, r0, r1
	...
     2d4:	00000101 	andeq	r0, r0, r1, lsl #2
     2d8:	08000000 	stmdaeq	r0, {}	; <UNPREDICTABLE>
     2dc:	01000000 	mrseq	r0, (UNDEF: 0)
     2e0:	00085000 	andeq	r5, r8, r0
     2e4:	00340000 	eorseq	r0, r4, r0
     2e8:	00010000 	andeq	r0, r1, r0
     2ec:	00000054 	andeq	r0, r0, r4, asr r0
	...
     2f8:	88000000 	stmdahi	r0, {}	; <UNPREDICTABLE>
     2fc:	b8000002 	stmdalt	r0, {r1}
     300:	01000002 	tsteq	r0, r2
     304:	02b85000 	adcseq	r5, r8, #0, 0
     308:	07040000 	streq	r0, [r4, -r0]
     30c:	00010000 	andeq	r0, r1, r0
     310:	00070459 	andeq	r0, r7, r9, asr r4
     314:	00074000 	andeq	r4, r7, r0
     318:	f3000400 	vshl.u8	d0, d0, d0
     31c:	009f5001 	addseq	r5, pc, r1
	...
     32c:	00028800 	andeq	r8, r2, r0, lsl #16
     330:	0002a000 	andeq	sl, r2, r0
     334:	51000100 	mrspl	r0, (UNDEF: 16)
     338:	000002a0 	andeq	r0, r0, r0, lsr #5
     33c:	000002b8 			; <UNDEFINED> instruction: 0x000002b8
     340:	01710003 	cmneq	r1, r3
     344:	0002b89f 	muleq	r2, pc, r8	; <UNPREDICTABLE>
     348:	00074000 	andeq	r4, r7, r0
     34c:	f3000400 	vshl.u8	d0, d0, d0
     350:	009f5101 	addseq	r5, pc, r1, lsl #2
	...
     364:	88000000 	stmdahi	r0, {}	; <UNPREDICTABLE>
     368:	b8000002 	stmdalt	r0, {r1}
     36c:	01000002 	tsteq	r0, r2
     370:	02b85200 	adcseq	r5, r8, #0, 4
     374:	03ec0000 	mvneq	r0, #0, 0
     378:	00010000 	andeq	r0, r1, r0
     37c:	0003ec56 	andeq	lr, r3, r6, asr ip
     380:	0004b800 	andeq	fp, r4, r0, lsl #16
     384:	5b000100 	blpl	78c <__code_start__-0x7874>
     388:	000004b8 			; <UNDEFINED> instruction: 0x000004b8
     38c:	000004d8 	ldrdeq	r0, [r0], -r8
     390:	d8560001 	ldmdale	r6, {r0}^
     394:	5c000004 	stcpl	0, cr0, [r0], {4}
     398:	01000005 	tsteq	r0, r5
     39c:	055c5b00 	ldrbeq	r5, [ip, #-2816]	; 0xfffff500
     3a0:	07040000 	streq	r0, [r4, -r0]
     3a4:	00010000 	andeq	r0, r1, r0
     3a8:	00000056 	andeq	r0, r0, r6, asr r0
     3ac:	00000000 	andeq	r0, r0, r0
     3b0:	00000100 	andeq	r0, r0, r0, lsl #2
     3b4:	00000000 	andeq	r0, r0, r0
     3b8:	00000101 	andeq	r0, r0, r1, lsl #2
     3bc:	00000000 	andeq	r0, r0, r0
     3c0:	00000202 	andeq	r0, r0, r2, lsl #4
     3c4:	00029c00 	andeq	r9, r2, r0, lsl #24
     3c8:	0002b800 	andeq	fp, r2, r0, lsl #16
     3cc:	50000100 	andpl	r0, r0, r0, lsl #2
     3d0:	000002b8 			; <UNDEFINED> instruction: 0x000002b8
     3d4:	000002bc 			; <UNDEFINED> instruction: 0x000002bc
     3d8:	bc540001 	mrrclt	0, 0, r0, r4, cr1
     3dc:	c0000002 	andgt	r0, r0, r2
     3e0:	03000002 	movweq	r0, #2
     3e4:	9f017400 	svcls	0x00017400
     3e8:	000002c0 	andeq	r0, r0, r0, asr #5
     3ec:	000002e4 	andeq	r0, r0, r4, ror #5
     3f0:	e4540001 	ldrb	r0, [r4], #-1
     3f4:	e8000002 	stmda	r0, {r1}
     3f8:	03000002 	movweq	r0, #2
     3fc:	9f017400 	svcls	0x00017400
     400:	000002e8 	andeq	r0, r0, r8, ror #5
     404:	000006d4 	ldrdeq	r0, [r0], -r4
     408:	d4540001 	ldrble	r0, [r4], #-1
     40c:	d8000006 	stmdale	r0, {r1, r2}
     410:	03000006 	movweq	r0, #6
     414:	9f017400 	svcls	0x00017400
     418:	000006d8 	ldrdeq	r0, [r0], -r8
     41c:	000006f0 	strdeq	r0, [r0], -r0	; <UNPREDICTABLE>
     420:	f0540001 			; <UNDEFINED> instruction: 0xf0540001
     424:	f8000006 			; <UNDEFINED> instruction: 0xf8000006
     428:	03000006 	movweq	r0, #6
     42c:	9f017400 	svcls	0x00017400
     430:	000006f8 	strdeq	r0, [r0], -r8
     434:	00000704 	andeq	r0, r0, r4, lsl #14
     438:	00540001 	subseq	r0, r4, r1
	...
     444:	a4000000 	strge	r0, [r0], #-0
     448:	04000002 	streq	r0, [r0], #-2
     44c:	01000007 	tsteq	r0, r7
     450:	07045800 	streq	r5, [r4, -r0, lsl #16]
     454:	07400000 	strbeq	r0, [r0, -r0]
     458:	000a0000 	andeq	r0, sl, r0
     45c:	f35101f3 	vbsl	q8, <illegal reg q8.5>, <illegal reg q9.5>
     460:	31225001 			; <UNDEFINED> instruction: 0x31225001
     464:	00009f1c 	andeq	r9, r0, ip, lsl pc
     468:	00000000 	andeq	r0, r0, r0
     46c:	00010000 	andeq	r0, r1, r0
     470:	00000000 	andeq	r0, r0, r0
     474:	00000408 	andeq	r0, r0, r8, lsl #8
     478:	00000474 	andeq	r0, r0, r4, ror r4
     47c:	d8570001 	ldmdale	r7, {r0}^
     480:	fc000004 	stc2	0, cr0, [r0], {4}
     484:	01000004 	tsteq	r0, r4
     488:	05405700 	strbeq	r5, [r0, #-1792]	; 0xfffff900
     48c:	055c0000 	ldrbeq	r0, [ip, #-0]
     490:	00010000 	andeq	r0, r1, r0
     494:	00000057 	andeq	r0, r0, r7, asr r0
     498:	00000000 	andeq	r0, r0, r0
     49c:	00000200 	andeq	r0, r0, r0, lsl #4
     4a0:	00040800 	andeq	r0, r4, r0, lsl #16
     4a4:	0004b800 	andeq	fp, r4, r0, lsl #16
     4a8:	5a000100 	bpl	8b0 <__code_start__-0x7750>
     4ac:	000004d8 	ldrdeq	r0, [r0], -r8
     4b0:	0000055c 	andeq	r0, r0, ip, asr r5
     4b4:	005a0001 	subseq	r0, sl, r1
     4b8:	00000000 	andeq	r0, r0, r0
     4bc:	01000000 	mrseq	r0, (UNDEF: 0)
     4c0:	ac000000 	stcge	0, cr0, [r0], {-0}
     4c4:	b8000002 	stmdalt	r0, {r1}
     4c8:	01000002 	tsteq	r0, r2
     4cc:	02b85200 	adcseq	r5, r8, #0, 4
     4d0:	07400000 	strbeq	r0, [r0, -r0]
     4d4:	00030000 	andeq	r0, r3, r0
     4d8:	007dc891 			; <UNDEFINED> instruction: 0x007dc891
	...
     4ec:	00000101 	andeq	r0, r0, r1, lsl #2
	...
     4f8:	00047400 	andeq	r7, r4, r0, lsl #8
     4fc:	00048c00 	andeq	r8, r4, r0, lsl #24
     500:	50000100 	andpl	r0, r0, r0, lsl #2
     504:	0000048c 	andeq	r0, r0, ip, lsl #9
     508:	000004b8 			; <UNDEFINED> instruction: 0x000004b8
     50c:	fc570001 	mrrc2	0, 0, r0, r7, cr1
     510:	14000004 	strne	r0, [r0], #-4
     514:	01000005 	tsteq	r0, r5
     518:	05145000 	ldreq	r5, [r4, #-0]
     51c:	05400000 	strbeq	r0, [r0, #-0]
     520:	00010000 	andeq	r0, r1, r0
     524:	0005a457 	andeq	sl, r5, r7, asr r4
     528:	0005a400 	andeq	sl, r5, r0, lsl #8
     52c:	50000100 	andpl	r0, r0, r0, lsl #2
     530:	000005a4 	andeq	r0, r0, r4, lsr #11
     534:	000005ac 	andeq	r0, r0, ip, lsr #11
     538:	dc570001 	mrrcle	0, 0, r0, r7, cr1
     53c:	e0000005 	and	r0, r0, r5
     540:	01000005 	tsteq	r0, r5
     544:	06105000 	ldreq	r5, [r0], -r0
     548:	06140000 	ldreq	r0, [r4], -r0
     54c:	00010000 	andeq	r0, r1, r0
     550:	00064450 	andeq	r4, r6, r0, asr r4
     554:	00064800 	andeq	r4, r6, r0, lsl #16
     558:	50000100 	andpl	r0, r0, r0, lsl #2
     55c:	0000068c 	andeq	r0, r0, ip, lsl #13
     560:	00000690 	muleq	r0, r0, r6
     564:	d0500001 	subsle	r0, r0, r1
     568:	f0000006 			; <UNDEFINED> instruction: 0xf0000006
     56c:	01000006 	tsteq	r0, r6
     570:	00005700 	andeq	r5, r0, r0, lsl #14
     574:	00000000 	andeq	r0, r0, r0
     578:	00020000 	andeq	r0, r2, r0
     57c:	00000000 	andeq	r0, r0, r0
     580:	000002f4 	strdeq	r0, [r0], -r4
     584:	000002f8 	strdeq	r0, [r0], -r8
     588:	9f300002 	svcls	0x00300002
     58c:	000002f8 	strdeq	r0, [r0], -r8
     590:	00000314 	andeq	r0, r0, r4, lsl r3
     594:	1c550001 	mrrcne	0, 0, r0, r5, cr1
     598:	f0000003 			; <UNDEFINED> instruction: 0xf0000003
     59c:	01000006 	tsteq	r0, r6
     5a0:	00005500 	andeq	r5, r0, r0, lsl #10
     5a4:	00000000 	andeq	r0, r0, r0
     5a8:	00010000 	andeq	r0, r1, r0
	...
     5b4:	000003b8 			; <UNDEFINED> instruction: 0x000003b8
     5b8:	00000454 	andeq	r0, r0, r4, asr r4
     5bc:	54560001 	ldrbpl	r0, [r6], #-1
     5c0:	b8000004 	stmdalt	r0, {r2}
     5c4:	03000004 	movweq	r0, #4
     5c8:	9f7e7b00 	svcls	0x007e7b00
     5cc:	000004b8 			; <UNDEFINED> instruction: 0x000004b8
     5d0:	000004dc 	ldrdeq	r0, [r0], -ip
     5d4:	dc560001 	mrrcle	0, 0, r0, r6, cr1
     5d8:	40000004 	andmi	r0, r0, r4
     5dc:	03000005 	movweq	r0, #5
     5e0:	9f7e7b00 	svcls	0x007e7b00
     5e4:	00000540 	andeq	r0, r0, r0, asr #10
     5e8:	0000055c 	andeq	r0, r0, ip, asr r5
     5ec:	00560001 	subseq	r0, r6, r1
	...
     5fc:	00007000 	andeq	r7, r0, r0
     600:	00009400 	andeq	r9, r0, r0, lsl #8
     604:	50000100 	andpl	r0, r0, r0, lsl #2
     608:	00000094 	muleq	r0, r4, r0
     60c:	000000fc 	strdeq	r0, [r0], -ip
     610:	02700003 	rsbseq	r0, r0, #3, 0
     614:	0000fc9f 	muleq	r0, pc, ip	; <UNPREDICTABLE>
     618:	00022400 	andeq	r2, r2, r0, lsl #8
     61c:	f3000400 	vshl.u8	d0, d0, d0
     620:	009f5001 	addseq	r5, pc, r1
	...
     638:	70000000 	andvc	r0, r0, r0
     63c:	e0000000 	and	r0, r0, r0
     640:	01000000 	mrseq	r0, (UNDEF: 0)
     644:	00e05100 	rsceq	r5, r0, r0, lsl #2
     648:	01540000 	cmpeq	r4, r0
     64c:	00010000 	andeq	r0, r1, r0
     650:	00015455 	andeq	r5, r1, r5, asr r4
     654:	00015800 	andeq	r5, r1, r0, lsl #16
     658:	51000100 	mrspl	r0, (UNDEF: 16)
     65c:	00000158 	andeq	r0, r0, r8, asr r1
     660:	000001b0 			; <UNDEFINED> instruction: 0x000001b0
     664:	b0550001 	subslt	r0, r5, r1
     668:	c0000001 	andgt	r0, r0, r1
     66c:	01000001 	tsteq	r0, r1
     670:	01c05100 	biceq	r5, r0, r0, lsl #2
     674:	01e40000 	mvneq	r0, r0
     678:	00010000 	andeq	r0, r1, r0
     67c:	0001e455 	andeq	lr, r1, r5, asr r4
     680:	0001f800 	andeq	pc, r1, r0, lsl #16
     684:	51000100 	mrspl	r0, (UNDEF: 16)
     688:	000001f8 	strdeq	r0, [r0], -r8
     68c:	00000224 	andeq	r0, r0, r4, lsr #4
     690:	00550001 	subseq	r0, r5, r1
	...
     69c:	70000000 	andvc	r0, r0, r0
     6a0:	84000000 	strhi	r0, [r0], #-0
     6a4:	01000000 	mrseq	r0, (UNDEF: 0)
     6a8:	00845200 	addeq	r5, r4, r0, lsl #4
     6ac:	02240000 	eoreq	r0, r4, #0, 0
     6b0:	00010000 	andeq	r0, r1, r0
     6b4:	00000054 	andeq	r0, r0, r4, asr r0
	...
     6c0:	00010000 	andeq	r0, r1, r0
     6c4:	00000000 	andeq	r0, r0, r0
     6c8:	00007000 	andeq	r7, r0, r0
     6cc:	0000f400 	andeq	pc, r0, r0, lsl #8
     6d0:	53000100 	movwpl	r0, #256	; 0x100
     6d4:	0000014c 	andeq	r0, r0, ip, asr #2
     6d8:	00000180 	andeq	r0, r0, r0, lsl #3
     6dc:	80530001 	subshi	r0, r3, r1
     6e0:	8c000001 	stchi	0, cr0, [r0], {1}
     6e4:	04000001 	streq	r0, [r0], #-1
     6e8:	5301f300 	movwpl	pc, #4864	; 0x1300	; <UNPREDICTABLE>
     6ec:	0001b09f 	muleq	r1, pc, r0	; <UNPREDICTABLE>
     6f0:	0001e800 	andeq	lr, r1, r0, lsl #16
     6f4:	53000100 	movwpl	r0, #256	; 0x100
     6f8:	000001e8 	andeq	r0, r0, r8, ror #3
     6fc:	000001ff 	strdeq	r0, [r0], -pc	; <UNPREDICTABLE>
     700:	ff5c0001 			; <UNDEFINED> instruction: 0xff5c0001
     704:	24000001 	strcs	r0, [r0], #-1
     708:	04000002 	streq	r0, [r0], #-2
     70c:	5301f300 	movwpl	pc, #4864	; 0x1300	; <UNPREDICTABLE>
     710:	0000009f 	muleq	r0, pc, r0	; <UNPREDICTABLE>
	...
     71c:	70000000 	andvc	r0, r0, r0
     720:	8c000000 	stchi	0, cr0, [r0], {-0}
     724:	02000000 	andeq	r0, r0, #0, 0
     728:	8c009100 	stfhid	f1, [r0], {-0}
     72c:	93000000 	movwls	r0, #0
     730:	01000001 	tsteq	r0, r1
     734:	01b05200 	lslseq	r5, r0, #4
     738:	01f40000 	mvnseq	r0, r0
     73c:	00010000 	andeq	r0, r1, r0
     740:	00000052 	andeq	r0, r0, r2, asr r0
     744:	00000000 	andeq	r0, r0, r0
     748:	00000100 	andeq	r0, r0, r0, lsl #2
     74c:	00000101 	andeq	r0, r0, r1, lsl #2
     750:	00000000 	andeq	r0, r0, r0
     754:	01010000 	mrseq	r0, (UNDEF: 1)
     758:	00000101 	andeq	r0, r0, r1, lsl #2
     75c:	00000101 	andeq	r0, r0, r1, lsl #2
	...
     768:	00008c00 	andeq	r8, r0, r0, lsl #24
     76c:	0000fc00 	andeq	pc, r0, r0, lsl #24
     770:	91000400 	tstls	r0, r0, lsl #8
     774:	fc9f7fa0 	ldc2	15, cr7, [pc], {160}	; 0xa0
     778:	3c000000 	stccc	0, cr0, [r0], {-0}
     77c:	01000001 	tsteq	r0, r1
     780:	013c5000 	teqeq	ip, r0
     784:	01480000 	mrseq	r0, (UNDEF: 72)
     788:	00030000 	andeq	r0, r3, r0
     78c:	489f0271 	ldmmi	pc, {r0, r4, r5, r6, r9}	; <UNPREDICTABLE>
     790:	4c000001 	stcmi	0, cr0, [r0], {1}
     794:	01000001 	tsteq	r0, r1
     798:	014c5000 	mrseq	r5, (UNDEF: 76)
     79c:	01580000 	cmpeq	r8, r0
     7a0:	00040000 	andeq	r0, r4, r0
     7a4:	9f7fa091 	svcls	0x007fa091
     7a8:	00000158 	andeq	r0, r0, r8, asr r1
     7ac:	0000016c 	andeq	r0, r0, ip, ror #2
     7b0:	6c510001 	mrrcvs	0, 0, r0, r1, cr1
     7b4:	78000001 	stmdavc	r0, {r0}
     7b8:	03000001 	movweq	r0, #1
     7bc:	9f7f7100 	svcls	0x007f7100
     7c0:	00000178 	andeq	r0, r0, r8, ror r1
     7c4:	00000184 	andeq	r0, r0, r4, lsl #3
     7c8:	01710003 	cmneq	r1, r3
     7cc:	0001849f 	muleq	r1, pc, r4	; <UNPREDICTABLE>
     7d0:	00019300 	andeq	r9, r1, r0, lsl #6
     7d4:	50000100 	andpl	r0, r0, r0, lsl #2
     7d8:	000001b0 			; <UNDEFINED> instruction: 0x000001b0
     7dc:	000001b0 			; <UNDEFINED> instruction: 0x000001b0
     7e0:	a0910004 	addsge	r0, r1, r4
     7e4:	01b09f7f 	rorseq	r9, pc, pc
     7e8:	01b80000 			; <UNDEFINED> instruction: 0x01b80000
     7ec:	00040000 	andeq	r0, r4, r0
     7f0:	9f7fa191 	svcls	0x007fa191
     7f4:	000001b8 			; <UNDEFINED> instruction: 0x000001b8
     7f8:	000001bc 			; <UNDEFINED> instruction: 0x000001bc
     7fc:	bc500001 	mrrclt	0, 0, r0, r0, cr1	; <UNPREDICTABLE>
     800:	c0000001 	andgt	r0, r0, r1
     804:	04000001 	streq	r0, [r0], #-1
     808:	7fa09100 	svcvc	0x00a09100
     80c:	0001c09f 	muleq	r1, pc, r0	; <UNPREDICTABLE>
     810:	0001d400 	andeq	sp, r1, r0, lsl #8
     814:	50000100 	andpl	r0, r0, r0, lsl #2
     818:	000001d4 	ldrdeq	r0, [r0], -r4
     81c:	000001e4 	andeq	r0, r0, r4, ror #3
     820:	7f700003 	svcvc	0x00700003
     824:	0001e49f 	muleq	r1, pc, r4	; <UNPREDICTABLE>
     828:	00022400 	andeq	r2, r2, r0, lsl #8
     82c:	91000400 	tstls	r0, r0, lsl #8
     830:	009f7fa0 	addseq	r7, pc, r0, lsr #31
	...
     83c:	01010000 	mrseq	r0, (UNDEF: 1)
	...
     84c:	90000000 	andls	r0, r0, r0
     850:	dc000000 	stcle	0, cr0, [r0], {-0}
     854:	01000000 	mrseq	r0, (UNDEF: 0)
     858:	00dc5c00 	sbcseq	r5, ip, r0, lsl #24
     85c:	00f40000 	rscseq	r0, r4, r0
     860:	00010000 	andeq	r0, r1, r0
     864:	0000f453 	andeq	pc, r0, r3, asr r4	; <UNPREDICTABLE>
     868:	00014c00 	andeq	r4, r1, r0, lsl #24
     86c:	5c000100 	stfpls	f0, [r0], {-0}
     870:	0000014c 	andeq	r0, r0, ip, asr #2
     874:	00000158 	andeq	r0, r0, r8, asr r1
     878:	58530001 	ldmdapl	r3, {r0}^
     87c:	74000001 	strvc	r0, [r0], #-1
     880:	01000001 	tsteq	r0, r1
     884:	01b05c00 	lslseq	r5, r0, #24
     888:	01c00000 	biceq	r0, r0, r0
     88c:	00010000 	andeq	r0, r1, r0
     890:	0001c053 	andeq	ip, r1, r3, asr r0
     894:	0001dc00 	andeq	sp, r1, r0, lsl #24
     898:	5c000100 	stfpls	f0, [r0], {-0}
     89c:	000001e4 	andeq	r0, r0, r4, ror #3
     8a0:	000001e8 	andeq	r0, r0, r8, ror #3
     8a4:	e8530001 	ldmda	r3, {r0}^
     8a8:	ff000001 			; <UNDEFINED> instruction: 0xff000001
     8ac:	01000001 	tsteq	r0, r1
     8b0:	01ff5c00 	mvnseq	r5, r0, lsl #24
     8b4:	02240000 	eoreq	r0, r4, #0, 0
     8b8:	00040000 	andeq	r0, r4, r0
     8bc:	9f5301f3 	svcls	0x005301f3
	...
     8c8:	00010101 	andeq	r0, r1, r1, lsl #2
     8cc:	00000000 	andeq	r0, r0, r0
     8d0:	000000dc 	ldrdeq	r0, [r0], -ip
     8d4:	000000f0 	strdeq	r0, [r0], -r0	; <UNPREDICTABLE>
     8d8:	9f300002 	svcls	0x00300002
     8dc:	000000f0 	strdeq	r0, [r0], -r0	; <UNPREDICTABLE>
     8e0:	000000f8 	strdeq	r0, [r0], -r8
     8e4:	9f310002 	svcls	0x00310002
     8e8:	000000fc 	strdeq	r0, [r0], -ip
     8ec:	0000014c 	andeq	r0, r0, ip, asr #2
     8f0:	4c560001 	mrrcmi	0, 0, r0, r6, cr1
     8f4:	54000001 	strpl	r0, [r0], #-1
     8f8:	02000001 	andeq	r0, r0, #1, 0
     8fc:	009f3000 	addseq	r3, pc, r0
	...
     908:	01010000 	mrseq	r0, (UNDEF: 1)
     90c:	01010000 	mrseq	r0, (UNDEF: 1)
     910:	00003800 	andeq	r3, r0, r0, lsl #16
     914:	00005400 	andeq	r5, r0, r0, lsl #8
     918:	50000100 	andpl	r0, r0, r0, lsl #2
     91c:	00000054 	andeq	r0, r0, r4, asr r0
     920:	00000058 	andeq	r0, r0, r8, asr r0
     924:	58520001 	ldmdapl	r2, {r0}^
     928:	60000000 	andvs	r0, r0, r0
     92c:	03000000 	movweq	r0, #0
     930:	9f017200 	svcls	0x00017200
     934:	00000060 	andeq	r0, r0, r0, rrx
     938:	00000064 	andeq	r0, r0, r4, rrx
     93c:	64520001 	ldrbvs	r0, [r2], #-1
     940:	70000000 	andvc	r0, r0, r0
     944:	03000000 	movweq	r0, #0
     948:	9f017200 	svcls	0x00017200
	...
     958:	00000038 	andeq	r0, r0, r8, lsr r0
     95c:	00000050 	andeq	r0, r0, r0, asr r0
     960:	50510001 	subspl	r0, r1, r1
     964:	70000000 	andvc	r0, r0, r0
     968:	04000000 	streq	r0, [r0], #-0
     96c:	5101f300 	mrspl	pc, SP_irq	; <UNPREDICTABLE>
     970:	0000009f 	muleq	r0, pc, r0	; <UNPREDICTABLE>
	...
     97c:	01010000 	mrseq	r0, (UNDEF: 1)
     980:	00003800 	andeq	r3, r0, r0, lsl #16
     984:	00005000 	andeq	r5, r0, r0
     988:	52000100 	andpl	r0, r0, #0
     98c:	00000050 	andeq	r0, r0, r0, asr r0
     990:	0000005c 	andeq	r0, r0, ip, asr r0
     994:	5c510001 	mrrcpl	0, 0, r0, r1, cr1
     998:	60000000 	andvs	r0, r0, r0
     99c:	03000000 	movweq	r0, #0
     9a0:	9f017100 	svcls	0x00017100
     9a4:	00000060 	andeq	r0, r0, r0, rrx
     9a8:	00000070 	andeq	r0, r0, r0, ror r0
     9ac:	00510001 	subseq	r0, r1, r1
	...
     9b8:	38000000 	stmdacc	r0, {}	; <UNPREDICTABLE>
     9bc:	4c000000 	stcmi	0, cr0, [r0], {-0}
     9c0:	01000000 	mrseq	r0, (UNDEF: 0)
     9c4:	004c5300 	subeq	r5, ip, r0, lsl #6
     9c8:	00680000 	rsbeq	r0, r8, r0
     9cc:	00010000 	andeq	r0, r1, r0
     9d0:	00000053 	andeq	r0, r0, r3, asr r0
	...
     9e0:	00004000 	andeq	r4, r0, r0
     9e4:	00004800 	andeq	r4, r0, r0, lsl #16
     9e8:	5c000100 	stfpls	f0, [r0], {-0}
     9ec:	00000048 	andeq	r0, r0, r8, asr #32
     9f0:	0000004c 	andeq	r0, r0, ip, asr #32
     9f4:	00720008 	rsbseq	r0, r2, r8
     9f8:	231c0073 	tstcs	ip, #115, 0	; 0x73
     9fc:	004c9f01 	subeq	r9, ip, r1, lsl #30
     a00:	00540000 	subseq	r0, r4, r0
     a04:	00090000 	andeq	r0, r9, r0
     a08:	01f30072 	mvnseq	r0, r2, ror r0
     a0c:	01231c53 			; <UNDEFINED> instruction: 0x01231c53
     a10:	0000549f 	muleq	r0, pc, r4	; <UNPREDICTABLE>
     a14:	00007000 	andeq	r7, r0, r0
     a18:	f3000a00 	vpmax.u8	d0, d0, d0
     a1c:	01f35201 	mvnseq	r5, r1, lsl #4
     a20:	01231c53 			; <UNDEFINED> instruction: 0x01231c53
     a24:	0000009f 	muleq	r0, pc, r0	; <UNPREDICTABLE>
     a28:	00000000 	andeq	r0, r0, r0
     a2c:	4c000100 	stfmis	f0, [r0], {-0}
     a30:	70000000 	andvc	r0, r0, r0
     a34:	01000000 	mrseq	r0, (UNDEF: 0)
     a38:	00005000 	andeq	r5, r0, r0
     a3c:	00000000 	andeq	r0, r0, r0
     a40:	01000000 	mrseq	r0, (UNDEF: 0)
     a44:	00000001 	andeq	r0, r0, r1
     a48:	00000014 	andeq	r0, r0, r4, lsl r0
     a4c:	0000001c 	andeq	r0, r0, ip, lsl r0
     a50:	1c500001 	mrrcne	0, 0, r0, r0, cr1	; <UNPREDICTABLE>
     a54:	24000000 	strcs	r0, [r0], #-0
     a58:	03000000 	movweq	r0, #0
     a5c:	9f017000 	svcls	0x00017000
     a60:	00000024 	andeq	r0, r0, r4, lsr #32
     a64:	00000038 	andeq	r0, r0, r8, lsr r0
     a68:	00500001 	subseq	r0, r0, r1
	...
     a74:	14000000 	strne	r0, [r0], #-0
     a78:	18000000 	stmdane	r0, {}	; <UNPREDICTABLE>
     a7c:	01000000 	mrseq	r0, (UNDEF: 0)
     a80:	00185100 	andseq	r5, r8, r0, lsl #2
     a84:	00380000 	eorseq	r0, r8, r0
     a88:	00040000 	andeq	r0, r4, r0
     a8c:	9f5101f3 	svcls	0x005101f3
	...
     a98:	00180000 	andseq	r0, r8, r0
     a9c:	00380000 	eorseq	r0, r8, r0
     aa0:	00010000 	andeq	r0, r1, r0
     aa4:	00000051 	andeq	r0, r0, r1, asr r0
	...
     ab4:	04000000 	streq	r0, [r0], #-0
     ab8:	01000000 	mrseq	r0, (UNDEF: 0)
     abc:	00045000 	andeq	r5, r4, r0
     ac0:	000c0000 	andeq	r0, ip, r0
     ac4:	00030000 	andeq	r0, r3, r0
     ac8:	0c9f3070 	ldceq	0, cr3, [pc], {112}	; 0x70
     acc:	14000000 	strne	r0, [r0], #-0
     ad0:	04000000 	streq	r0, [r0], #-0
     ad4:	5001f300 	andpl	pc, r1, r0, lsl #6
     ad8:	0000009f 	muleq	r0, pc, r0	; <UNPREDICTABLE>
	...
     ae4:	00022400 	andeq	r2, r2, r0, lsl #8
     ae8:	00026800 	andeq	r6, r2, r0, lsl #16
     aec:	50000100 	andpl	r0, r0, r0, lsl #2
     af0:	00000268 	andeq	r0, r0, r8, ror #4
     af4:	00000288 	andeq	r0, r0, r8, lsl #5
     af8:	01f30004 	mvnseq	r0, r4
     afc:	00009f50 	andeq	r9, r0, r0, asr pc
	...
     b08:	02240000 	eoreq	r0, r4, #0, 0
     b0c:	02640000 	rsbeq	r0, r4, #0, 0
     b10:	00010000 	andeq	r0, r1, r0
     b14:	00026451 	andeq	r6, r2, r1, asr r4
     b18:	00028800 	andeq	r8, r2, r0, lsl #16
     b1c:	f3000400 	vshl.u8	d0, d0, d0
     b20:	009f5101 	addseq	r5, pc, r1, lsl #2
	...
     b2c:	00000101 	andeq	r0, r0, r1, lsl #2
     b30:	00000c00 	andeq	r0, r0, r0, lsl #24
     b34:	00001400 	andeq	r1, r0, r0, lsl #8
     b38:	53000100 	movwpl	r0, #256	; 0x100
     b3c:	00000014 	andeq	r0, r0, r4, lsl r0
     b40:	0000001c 	andeq	r0, r0, ip, lsl r0
     b44:	04730003 	ldrbteq	r0, [r3], #-3
     b48:	00001c9f 	muleq	r0, pc, ip	; <UNPREDICTABLE>
     b4c:	00002300 	andeq	r2, r0, r0, lsl #6
     b50:	53000100 	movwpl	r0, #256	; 0x100
	...
     b5c:	8b680001 	blhi	1a00b68 <__bss_end__+0x19f6f08>
     b60:	8b840000 	blhi	fe100b68 <__bss_end__+0xfe0f6f08>
     b64:	00060000 	andeq	r0, r6, r0
     b68:	10001c0c 	andne	r1, r0, ip, lsl #24
     b6c:	00009f20 	andeq	r9, r0, r0, lsr #30
     b70:	00000000 	andeq	r0, r0, r0
     b74:	00020000 	andeq	r0, r2, r0
     b78:	00008b68 	andeq	r8, r0, r8, ror #22
     b7c:	00008b84 	andeq	r8, r0, r4, lsl #23
     b80:	240c0006 	strcs	r0, [ip], #-6
     b84:	9f201000 	svcls	0x00201000
	...
     b90:	8b680003 	blhi	1a00ba4 <__bss_end__+0x19f6f44>
     b94:	8b840000 	blhi	fe100b9c <__bss_end__+0xfe0f6f3c>
     b98:	00050000 	andeq	r0, r5, r0
     b9c:	2447b408 	strbcs	fp, [r7], #-1032	; 0xfffffbf8
     ba0:	0000009f 	muleq	r0, pc, r0	; <UNPREDICTABLE>
     ba4:	00000000 	andeq	r0, r0, r0
     ba8:	68000400 	stmdavs	r0, {sl}
     bac:	8400008b 	strhi	r0, [r0], #-139	; 0xffffff75
     bb0:	0300008b 	movweq	r0, #139	; 0x8b
     bb4:	9f200800 	svcls	0x00200800
	...
     bc0:	00000002 	andeq	r0, r0, r2
     bc4:	8b340000 	blhi	d00bcc <__bss_end__+0xcf6f6c>
     bc8:	8b380000 	blhi	e00bd0 <__bss_end__+0xdf6f70>
     bcc:	00020000 	andeq	r0, r2, r0
     bd0:	8b389f30 	blhi	e28898 <__bss_end__+0xe1ec38>
     bd4:	8b3c0000 	blhi	f00bdc <__bss_end__+0xef6f7c>
     bd8:	00010000 	andeq	r0, r1, r0
     bdc:	008b4053 	addeq	r4, fp, r3, asr r0
     be0:	008b4800 	addeq	r4, fp, r0, lsl #16
     be4:	53000100 	movwpl	r0, #256	; 0x100
	...
     bf0:	00000002 	andeq	r0, r0, r2
     bf4:	00008b1c 	andeq	r8, r0, ip, lsl fp
     bf8:	00008b20 	andeq	r8, r0, r0, lsr #22
     bfc:	9f300002 	svcls	0x00300002
     c00:	00008b20 	andeq	r8, r0, r0, lsr #22
     c04:	00008b24 	andeq	r8, r0, r4, lsr #22
     c08:	00500001 	subseq	r0, r0, r1
	...
     c14:	6c000000 	stcvs	0, cr0, [r0], {-0}
     c18:	78000000 	stmdavc	r0, {}	; <UNPREDICTABLE>
     c1c:	01000000 	mrseq	r0, (UNDEF: 0)
     c20:	00785000 	rsbseq	r5, r8, r0
     c24:	00840000 	addeq	r0, r4, r0
     c28:	00040000 	andeq	r0, r4, r0
     c2c:	9f5001f3 	svcls	0x005001f3
	...
     c3c:	00000054 	andeq	r0, r0, r4, asr r0
     c40:	00000060 	andeq	r0, r0, r0, rrx
     c44:	60500001 	subsvs	r0, r0, r1
     c48:	6c000000 	stcvs	0, cr0, [r0], {-0}
     c4c:	04000000 	streq	r0, [r0], #-0
     c50:	5001f300 	andpl	pc, r1, r0, lsl #6
     c54:	0000009f 	muleq	r0, pc, r0	; <UNPREDICTABLE>
	...
     c60:	00003000 	andeq	r3, r0, r0
     c64:	00003b00 	andeq	r3, r0, r0, lsl #22
     c68:	50000100 	andpl	r0, r0, r0, lsl #2
     c6c:	0000003b 	andeq	r0, r0, fp, lsr r0
     c70:	00000054 	andeq	r0, r0, r4, asr r0
     c74:	00550001 	subseq	r0, r5, r1
	...
     c80:	00004000 	andeq	r4, r0, r0
     c84:	00005400 	andeq	r5, r0, r0, lsl #8
     c88:	54000100 	strpl	r0, [r0], #-256	; 0xffffff00
	...
     c94:	00440000 	subeq	r0, r4, r0
     c98:	00480000 	subeq	r0, r8, r0
     c9c:	00010000 	andeq	r0, r1, r0
     ca0:	00000050 	andeq	r0, r0, r0, asr r0
	...
     cac:	00002400 	andeq	r2, r0, r0, lsl #8
     cb0:	00002700 	andeq	r2, r0, r0, lsl #14
     cb4:	50000100 	andpl	r0, r0, r0, lsl #2
     cb8:	00000027 	andeq	r0, r0, r7, lsr #32
     cbc:	00000030 	andeq	r0, r0, r0, lsr r0
     cc0:	00540001 	subseq	r0, r4, r1
	...
     ccc:	58000000 	stmdapl	r0, {}	; <UNPREDICTABLE>
     cd0:	63000001 	movwvs	r0, #1
     cd4:	01000001 	tsteq	r0, r1
     cd8:	01635000 	cmneq	r3, r0
     cdc:	01880000 	orreq	r0, r8, r0
     ce0:	00010000 	andeq	r0, r1, r0
     ce4:	00000054 	andeq	r0, r0, r4, asr r0
     ce8:	00000000 	andeq	r0, r0, r0
     cec:	48000000 	stmdami	r0, {}	; <UNPREDICTABLE>
     cf0:	58000001 	stmdapl	r0, {r0}
     cf4:	01000001 	tsteq	r0, r1
     cf8:	00005400 	andeq	r5, r0, r0, lsl #8
	...
     d08:	000f0000 	andeq	r0, pc, r0
     d0c:	00010000 	andeq	r0, r1, r0
     d10:	00000f50 	andeq	r0, r0, r0, asr pc
     d14:	00002000 	andeq	r2, r0, r0
     d18:	54000100 	strpl	r0, [r0], #-256	; 0xffffff00
	...
     d2c:	0000000f 	andeq	r0, r0, pc
     d30:	0f510001 	svceq	0x00510001
     d34:	20000000 	andcs	r0, r0, r0
     d38:	01000000 	mrseq	r0, (UNDEF: 0)
     d3c:	00005500 	andeq	r5, r0, r0, lsl #10
	...
     d48:	00200000 	eoreq	r0, r0, r0
     d4c:	002f0000 	eoreq	r0, pc, r0
     d50:	00010000 	andeq	r0, r1, r0
     d54:	00002f50 	andeq	r2, r0, r0, asr pc
     d58:	00004000 	andeq	r4, r0, r0
     d5c:	54000100 	strpl	r0, [r0], #-256	; 0xffffff00
	...
     d6c:	00000020 	andeq	r0, r0, r0, lsr #32
     d70:	0000002f 	andeq	r0, r0, pc, lsr #32
     d74:	2f510001 	svccs	0x00510001
     d78:	40000000 	andmi	r0, r0, r0
     d7c:	01000000 	mrseq	r0, (UNDEF: 0)
     d80:	00005500 	andeq	r5, r0, r0, lsl #10
	...
     d90:	00000350 	andeq	r0, r0, r0, asr r3
     d94:	00000398 	muleq	r0, r8, r3
     d98:	98500001 	ldmdals	r0, {r0}^
     d9c:	9b000003 	blls	db0 <__code_start__-0x7250>
     da0:	02000003 	andeq	r0, r0, #3, 0
     da4:	9b689100 	blls	1a251ac <__bss_end__+0x1a1b54c>
     da8:	b0000003 	andlt	r0, r0, r3
     dac:	04000003 	streq	r0, [r0], #-3
     db0:	5001f300 	andpl	pc, r1, r0, lsl #6
     db4:	0000009f 	muleq	r0, pc, r0	; <UNPREDICTABLE>
	...
     dd0:	00022000 	andeq	r2, r2, r0
     dd4:	00027b00 	andeq	r7, r2, r0, lsl #22
     dd8:	50000100 	andpl	r0, r0, r0, lsl #2
     ddc:	0000027b 	andeq	r0, r0, fp, ror r2
     de0:	00000284 	andeq	r0, r0, r4, lsl #5
     de4:	01f30004 	mvnseq	r0, r4
     de8:	02849f50 	addeq	r9, r4, #80, 30	; 0x140
     dec:	029c0000 	addseq	r0, ip, #0, 0
     df0:	00010000 	andeq	r0, r1, r0
     df4:	00029c50 	andeq	r9, r2, r0, asr ip
     df8:	0002a400 	andeq	sl, r2, r0, lsl #8
     dfc:	f3000400 	vshl.u8	d0, d0, d0
     e00:	a49f5001 	ldrge	r5, [pc], #1	; e08 <__code_start__-0x71f8>
     e04:	a7000002 	strge	r0, [r0, -r2]
     e08:	01000002 	tsteq	r0, r2
     e0c:	02a75000 	adceq	r5, r7, #0, 0
     e10:	02c80000 	sbceq	r0, r8, #0, 0
     e14:	00040000 	andeq	r0, r4, r0
     e18:	9f5001f3 	svcls	0x005001f3
     e1c:	000002c8 	andeq	r0, r0, r8, asr #5
     e20:	000002e0 	andeq	r0, r0, r0, ror #5
     e24:	e0500001 	subs	r0, r0, r1
     e28:	e8000002 	stmda	r0, {r1}
     e2c:	04000002 	streq	r0, [r0], #-2
     e30:	5001f300 	andpl	pc, r1, r0, lsl #6
     e34:	0002e89f 	muleq	r2, pc, r8	; <UNPREDICTABLE>
     e38:	0002eb00 	andeq	lr, r2, r0, lsl #22
     e3c:	50000100 	andpl	r0, r0, r0, lsl #2
     e40:	000002eb 	andeq	r0, r0, fp, ror #5
     e44:	00000338 	andeq	r0, r0, r8, lsr r3
     e48:	01f30004 	mvnseq	r0, r4
     e4c:	00009f50 	andeq	r9, r0, r0, asr pc
	...
     e68:	02200000 	eoreq	r0, r0, #0, 0
     e6c:	02440000 	subeq	r0, r4, #0, 0
     e70:	00010000 	andeq	r0, r1, r0
     e74:	00024451 	andeq	r4, r2, r1, asr r4
     e78:	00026800 	andeq	r6, r2, r0, lsl #16
     e7c:	51000100 	mrspl	r0, (UNDEF: 16)
     e80:	00000268 	andeq	r0, r0, r8, ror #4
     e84:	0000027b 	andeq	r0, r0, fp, ror r2
     e88:	01710003 	cmneq	r1, r3
     e8c:	00027b9f 	muleq	r2, pc, fp	; <UNPREDICTABLE>
     e90:	00028400 	andeq	r8, r2, r0, lsl #8
     e94:	38001700 	stmdacc	r0, {r8, r9, sl, ip}
     e98:	f35101f3 	vbsl	q8, <illegal reg q8.5>, <illegal reg q9.5>
     e9c:	4b405101 	blmi	10152a8 <__bss_end__+0x100b648>
     ea0:	080c2224 	stmdaeq	ip, {r2, r5, r9, sp}
     ea4:	2d800000 	stccs	0, cr0, [r0]
     ea8:	16000128 	strne	r0, [r0], -r8, lsr #2
     eac:	02849f13 	addeq	r9, r4, #76	; 0x4c
     eb0:	02980000 	addseq	r0, r8, #0, 0
     eb4:	00010000 	andeq	r0, r1, r0
     eb8:	00029851 	andeq	r9, r2, r1, asr r8
     ebc:	0002a400 	andeq	sl, r2, r0, lsl #8
     ec0:	f3000400 	vshl.u8	d0, d0, d0
     ec4:	a49f5101 	ldrge	r5, [pc], #257	; ecc <__code_start__-0x7134>
     ec8:	a7000002 	strge	r0, [r0, -r2]
     ecc:	01000002 	tsteq	r0, r2
     ed0:	02a75100 	adceq	r5, r7, #0
     ed4:	02c80000 	sbceq	r0, r8, #0, 0
     ed8:	00040000 	andeq	r0, r4, r0
     edc:	9f5101f3 	svcls	0x005101f3
     ee0:	000002c8 	andeq	r0, r0, r8, asr #5
     ee4:	000002dc 	ldrdeq	r0, [r0], -ip
     ee8:	dc510001 	mrrcle	0, 0, r0, r1, cr1
     eec:	38000002 	stmdacc	r0, {r1}
     ef0:	17000003 	strne	r0, [r0, -r3]
     ef4:	01f33800 	mvnseq	r3, r0, lsl #16
     ef8:	5101f351 	tstpl	r1, r1, asr r3	; <UNPREDICTABLE>
     efc:	22244b40 	eorcs	r4, r4, #64, 22	; 0x10000
     f00:	0000080c 	andeq	r0, r0, ip, lsl #16
     f04:	01282d80 	smlawbeq	r8, r0, sp, r2
     f08:	9f131600 	svcls	0x00131600
	...
     f20:	0000024c 	andeq	r0, r0, ip, asr #4
     f24:	0000025c 	andeq	r0, r0, ip, asr r2
     f28:	5c520001 	mrrcpl	0, 0, r0, r2, cr1
     f2c:	64000002 	strvs	r0, [r0], #-2
     f30:	05000002 	streq	r0, [r0, #-2]
     f34:	983c0300 	ldmdals	ip!, {r8, r9}
     f38:	02640000 	rsbeq	r0, r4, #0, 0
     f3c:	027b0000 	rsbseq	r0, fp, #0, 0
     f40:	00010000 	andeq	r0, r1, r0
     f44:	0002c853 	andeq	ip, r2, r3, asr r8
     f48:	0002d800 	andeq	sp, r2, r0, lsl #16
     f4c:	52000100 	andpl	r0, r0, #0
     f50:	000002d8 	ldrdeq	r0, [r0], -r8
     f54:	000002e3 	andeq	r0, r0, r3, ror #5
     f58:	3c030005 	stccc	0, cr0, [r3], {5}
     f5c:	e8000098 	stmda	r0, {r3, r4, r7}
     f60:	eb000002 	bl	f70 <__code_start__-0x7090>
     f64:	01000002 	tsteq	r0, r2
     f68:	00005300 	andeq	r5, r0, r0, lsl #6
     f6c:	00000000 	andeq	r0, r0, r0
     f70:	00040000 	andeq	r0, r4, r0
     f74:	00000230 	andeq	r0, r0, r0, lsr r2
     f78:	00000234 	andeq	r0, r0, r4, lsr r2
     f7c:	00510001 	subseq	r0, r1, r1
     f80:	00000000 	andeq	r0, r0, r0
     f84:	02000000 	andeq	r0, r0, #0, 0
     f88:	00023c00 	andeq	r3, r2, r0, lsl #24
     f8c:	00024400 	andeq	r4, r2, r0, lsl #8
     f90:	38000200 	stmdacc	r0, {r9}
     f94:	0000009f 	muleq	r0, pc, r0	; <UNPREDICTABLE>
     f98:	00000000 	andeq	r0, r0, r0
     f9c:	3c000200 	sfmcc	f0, 4, [r0], {-0}
     fa0:	44000002 	strmi	r0, [r0], #-2
     fa4:	01000002 	tsteq	r0, r2
     fa8:	00005100 	andeq	r5, r0, r0, lsl #2
     fac:	00000000 	andeq	r0, r0, r0
     fb0:	00010000 	andeq	r0, r1, r0
     fb4:	00000000 	andeq	r0, r0, r0
     fb8:	0000024c 	andeq	r0, r0, ip, asr #4
     fbc:	00000264 	andeq	r0, r0, r4, ror #4
     fc0:	c8510001 	ldmdagt	r1, {r0}^
     fc4:	dc000002 	stcle	0, cr0, [r0], {2}
     fc8:	01000002 	tsteq	r0, r2
     fcc:	02dc5100 	sbcseq	r5, ip, #0
     fd0:	02e80000 	rsceq	r0, r8, #0, 0
     fd4:	00170000 	andseq	r0, r7, r0
     fd8:	5101f338 	tstpl	r1, r8, lsr r3	; <UNPREDICTABLE>
     fdc:	405101f3 	ldrshmi	r0, [r1], #-19	; 0xffffffed
     fe0:	0c22244b 	cfstrseq	mvf2, [r2], #-300	; 0xfffffed4
     fe4:	80000008 	andhi	r0, r0, r8
     fe8:	0001282d 	andeq	r2, r1, sp, lsr #16
     fec:	009f1316 	addseq	r1, pc, r6, lsl r3	; <UNPREDICTABLE>
     ff0:	00000000 	andeq	r0, r0, r0
     ff4:	01000000 	mrseq	r0, (UNDEF: 0)
     ff8:	00000000 	andeq	r0, r0, r0
     ffc:	4c000000 	stcmi	0, cr0, [r0], {-0}
    1000:	5c000002 	stcpl	0, cr0, [r0], {2}
    1004:	01000002 	tsteq	r0, r2
    1008:	025c5200 	subseq	r5, ip, #0, 4
    100c:	02640000 	rsbeq	r0, r4, #0, 0
    1010:	00050000 	andeq	r0, r5, r0
    1014:	00983c03 	addseq	r3, r8, r3, lsl #24
    1018:	0002c800 	andeq	ip, r2, r0, lsl #16
    101c:	0002d800 	andeq	sp, r2, r0, lsl #16
    1020:	52000100 	andpl	r0, r0, #0
    1024:	000002d8 	ldrdeq	r0, [r0], -r8
    1028:	000002e3 	andeq	r0, r0, r3, ror #5
    102c:	3c030005 	stccc	0, cr0, [r3], {5}
    1030:	00000098 	muleq	r0, r8, r0
    1034:	00000000 	andeq	r0, r0, r0
    1038:	04000000 	streq	r0, [r0], #-0
    103c:	00024c00 	andeq	r4, r2, r0, lsl #24
    1040:	00025000 	andeq	r5, r2, r0
    1044:	51000100 	mrspl	r0, (UNDEF: 16)
	...
    1050:	02640003 	rsbeq	r0, r4, #3, 0
    1054:	02680000 	rsbeq	r0, r8, #0, 0
    1058:	00010000 	andeq	r0, r1, r0
    105c:	00000051 	andeq	r0, r0, r1, asr r0
    1060:	00000000 	andeq	r0, r0, r0
    1064:	64000300 	strvs	r0, [r0], #-768	; 0xfffffd00
    1068:	68000002 	stmdavs	r0, {r1}
    106c:	01000002 	tsteq	r0, r2
    1070:	00005300 	andeq	r5, r0, r0, lsl #6
	...
    1080:	01bc0000 			; <UNDEFINED> instruction: 0x01bc0000
    1084:	01d30000 	bicseq	r0, r3, r0
    1088:	00010000 	andeq	r0, r1, r0
    108c:	0001d350 	andeq	sp, r1, r0, asr r3
    1090:	0001f000 	andeq	pc, r1, r0
    1094:	54000100 	strpl	r0, [r0], #-256	; 0xffffff00
    1098:	000001f0 	strdeq	r0, [r0], -r0	; <UNPREDICTABLE>
    109c:	00000208 	andeq	r0, r0, r8, lsl #4
    10a0:	08500001 	ldmdaeq	r0, {r0}^
    10a4:	20000002 	andcs	r0, r0, r2
    10a8:	01000002 	tsteq	r0, r2
    10ac:	00005400 	andeq	r5, r0, r0, lsl #8
	...
    10b8:	01d80000 	bicseq	r0, r8, r0
    10bc:	01e30000 	mvneq	r0, r0
    10c0:	00010000 	andeq	r0, r1, r0
    10c4:	0001e350 	andeq	lr, r1, r0, asr r3
    10c8:	0001f000 	andeq	pc, r1, r0
    10cc:	55000100 	strpl	r0, [r0, #-256]	; 0xffffff00
	...
    10e8:	00000124 	andeq	r0, r0, r4, lsr #2
    10ec:	00000138 	andeq	r0, r0, r8, lsr r1
    10f0:	38500001 	ldmdacc	r0, {r0}^
    10f4:	3c000001 	stccc	0, cr0, [r0], {1}
    10f8:	03000001 	movweq	r0, #1
    10fc:	9f797000 	svcls	0x00797000
    1100:	0000013c 	andeq	r0, r0, ip, lsr r1
    1104:	00000160 	andeq	r0, r0, r0, ror #2
    1108:	60530001 	subsvs	r0, r3, r1
    110c:	78000001 	stmdavc	r0, {r0}
    1110:	01000001 	tsteq	r0, r1
    1114:	01785000 	cmneq	r8, r0
    1118:	01800000 	orreq	r0, r0, r0
    111c:	00040000 	andeq	r0, r4, r0
    1120:	9f5001f3 	svcls	0x005001f3
    1124:	00000180 	andeq	r0, r0, r0, lsl #3
    1128:	00000190 	muleq	r0, r0, r1
    112c:	90530001 	subsls	r0, r3, r1
    1130:	9f000001 	svcls	0x00000001
    1134:	02000001 	andeq	r0, r0, #1, 0
    1138:	9f689100 	svcls	0x00689100
    113c:	bc000001 	stclt	0, cr0, [r0], {1}
    1140:	09000001 	stmdbeq	r0, {r0}
    1144:	5001f300 	andpl	pc, r1, r0, lsl #6
    1148:	f8090723 			; <UNDEFINED> instruction: 0xf8090723
    114c:	00009f1a 	andeq	r9, r0, sl, lsl pc
	...
    115c:	00000144 	andeq	r0, r0, r4, asr #2
    1160:	00000160 	andeq	r0, r0, r0, ror #2
    1164:	80500001 	subshi	r0, r0, r1
    1168:	9c000001 	stcls	0, cr0, [r0], {1}
    116c:	01000001 	tsteq	r0, r1
    1170:	019c5000 	orrseq	r5, ip, r0
    1174:	019f0000 	orrseq	r0, pc, r0
    1178:	00050000 	andeq	r0, r5, r0
    117c:	00983c03 	addseq	r3, r8, r3, lsl #24
	...
    1188:	34000300 	strcc	r0, [r0], #-768	; 0xfffffd00
    118c:	3c000001 	stccc	0, cr0, [r0], {1}
    1190:	02000001 	andeq	r0, r0, #1, 0
    1194:	009f3800 	addseq	r3, pc, r0, lsl #16
    1198:	00000000 	andeq	r0, r0, r0
    119c:	03000000 	movweq	r0, #0
    11a0:	34000000 	strcc	r0, [r0], #-0
    11a4:	38000001 	stmdacc	r0, {r0}
    11a8:	01000001 	tsteq	r0, r1
    11ac:	01385000 	teqeq	r8, r0
    11b0:	013c0000 	teqeq	ip, r0
    11b4:	00030000 	andeq	r0, r3, r0
    11b8:	009f7970 	addseq	r7, pc, r0, ror r9	; <UNPREDICTABLE>
	...
    11d0:	00003000 	andeq	r3, r0, r0
    11d4:	00006000 	andeq	r6, r0, r0
    11d8:	50000100 	andpl	r0, r0, r0, lsl #2
    11dc:	00000060 	andeq	r0, r0, r0, rrx
    11e0:	0000006c 	andeq	r0, r0, ip, rrx
    11e4:	3c030005 	stccc	0, cr0, [r3], {5}
    11e8:	6c000098 	stcvs	0, cr0, [r0], {152}	; 0x98
    11ec:	84000000 	strhi	r0, [r0], #-0
    11f0:	01000000 	mrseq	r0, (UNDEF: 0)
    11f4:	00845000 	addeq	r5, r4, r0
    11f8:	008c0000 	addeq	r0, ip, r0
    11fc:	00040000 	andeq	r0, r4, r0
    1200:	9f5001f3 	svcls	0x005001f3
    1204:	0000008c 	andeq	r0, r0, ip, lsl #1
    1208:	000000ac 	andeq	r0, r0, ip, lsr #1
    120c:	ac500001 	mrrcge	0, 0, r0, r0, cr1	; <UNPREDICTABLE>
    1210:	af000000 	svcge	0x00000000
    1214:	02000000 	andeq	r0, r0, #0, 0
    1218:	af689100 	svcge	0x00689100
    121c:	cc000000 	stcgt	0, cr0, [r0], {-0}
    1220:	04000000 	streq	r0, [r0], #-0
    1224:	5001f300 	andpl	pc, r1, r0, lsl #6
    1228:	0000009f 	muleq	r0, pc, r0	; <UNPREDICTABLE>
	...
    1238:	00003000 	andeq	r3, r0, r0
    123c:	00008000 	andeq	r8, r0, r0
    1240:	51000100 	mrspl	r0, (UNDEF: 16)
    1244:	00000080 	andeq	r0, r0, r0, lsl #1
    1248:	0000008c 	andeq	r0, r0, ip, lsl #1
    124c:	01f30004 	mvnseq	r0, r4
    1250:	008c9f51 	addeq	r9, ip, r1, asr pc
    1254:	00a80000 	adceq	r0, r8, r0
    1258:	00010000 	andeq	r0, r1, r0
    125c:	0000a851 	andeq	sl, r0, r1, asr r8
    1260:	0000cc00 	andeq	ip, r0, r0, lsl #24
    1264:	f3000400 	vshl.u8	d0, d0, d0
    1268:	009f5101 	addseq	r5, pc, r1, lsl #2
    126c:	00000000 	andeq	r0, r0, r0
    1270:	01000000 	mrseq	r0, (UNDEF: 0)
	...
    1280:	00003800 	andeq	r3, r0, r0, lsl #16
    1284:	00006000 	andeq	r6, r0, r0
    1288:	50000100 	andpl	r0, r0, r0, lsl #2
    128c:	00000060 	andeq	r0, r0, r0, rrx
    1290:	0000006c 	andeq	r0, r0, ip, rrx
    1294:	3c030005 	stccc	0, cr0, [r3], {5}
    1298:	6c000098 	stcvs	0, cr0, [r0], {152}	; 0x98
    129c:	84000000 	strhi	r0, [r0], #-0
    12a0:	01000000 	mrseq	r0, (UNDEF: 0)
    12a4:	00845000 	addeq	r5, r4, r0
    12a8:	008c0000 	addeq	r0, ip, r0
    12ac:	00040000 	andeq	r0, r4, r0
    12b0:	9f5001f3 	svcls	0x005001f3
    12b4:	0000008c 	andeq	r0, r0, ip, lsl #1
    12b8:	000000ac 	andeq	r0, r0, ip, lsr #1
    12bc:	ac500001 	mrrcge	0, 0, r0, r0, cr1	; <UNPREDICTABLE>
    12c0:	af000000 	svcge	0x00000000
    12c4:	02000000 	andeq	r0, r0, #0, 0
    12c8:	af689100 	svcge	0x00689100
    12cc:	cc000000 	stcgt	0, cr0, [r0], {-0}
    12d0:	04000000 	streq	r0, [r0], #-0
    12d4:	5001f300 	andpl	pc, r1, r0, lsl #6
    12d8:	0000009f 	muleq	r0, pc, r0	; <UNPREDICTABLE>
	...
    12e8:	00000400 	andeq	r0, r0, r0, lsl #8
    12ec:	52000100 	andpl	r0, r0, #0
    12f0:	00000004 	andeq	r0, r0, r4
    12f4:	00000018 	andeq	r0, r0, r8, lsl r0
    12f8:	01f30004 	mvnseq	r0, r4
    12fc:	00009f52 	andeq	r9, r0, r2, asr pc
    1300:	00000000 	andeq	r0, r0, r0
    1304:	00020000 	andeq	r0, r2, r0
    1308:	00010100 	andeq	r0, r1, r0, lsl #2
    130c:	00000000 	andeq	r0, r0, r0
    1310:	00080000 	andeq	r0, r8, r0
    1314:	00010000 	andeq	r0, r1, r0
    1318:	00000850 	andeq	r0, r0, r0, asr r8
    131c:	00001000 	andeq	r1, r0, r0
    1320:	53000100 	movwpl	r0, #256	; 0x100
    1324:	00000010 	andeq	r0, r0, r0, lsl r0
    1328:	00000014 	andeq	r0, r0, r4, lsl r0
    132c:	01730003 	cmneq	r3, r3
    1330:	0000149f 	muleq	r0, pc, r4	; <UNPREDICTABLE>
    1334:	00001800 	andeq	r1, r0, r0, lsl #16
    1338:	53000100 	movwpl	r0, #256	; 0x100
	...
    1344:	00040000 	andeq	r0, r4, r0
    1348:	00180000 	andseq	r0, r8, r0
    134c:	00010000 	andeq	r0, r1, r0
    1350:	00000052 	andeq	r0, r0, r2, asr r0
	...
    1360:	00000b00 	andeq	r0, r0, r0, lsl #22
    1364:	50000100 	andpl	r0, r0, r0, lsl #2
    1368:	0000000b 	andeq	r0, r0, fp
    136c:	00000014 	andeq	r0, r0, r4, lsl r0
    1370:	00540001 	subseq	r0, r4, r1
	...
    1380:	1c000000 	stcne	0, cr0, [r0], {-0}
    1384:	01000000 	mrseq	r0, (UNDEF: 0)
    1388:	001c5100 	andseq	r5, ip, r0, lsl #2
    138c:	00340000 	eorseq	r0, r4, r0
    1390:	00040000 	andeq	r0, r4, r0
    1394:	9f5101f3 	svcls	0x005101f3
	...
    13a0:	00000002 	andeq	r0, r0, r2
    13a4:	00010100 	andeq	r0, r1, r0, lsl #2
    13a8:	00000000 	andeq	r0, r0, r0
    13ac:	00040000 	andeq	r0, r4, r0
    13b0:	00010000 	andeq	r0, r1, r0
    13b4:	00000450 	andeq	r0, r0, r0, asr r4
    13b8:	00001c00 	andeq	r1, r0, r0, lsl #24
    13bc:	52000100 	andpl	r0, r0, #0
    13c0:	0000001c 	andeq	r0, r0, ip, lsl r0
    13c4:	00000024 	andeq	r0, r0, r4, lsr #32
    13c8:	24530001 	ldrbcs	r0, [r3], #-1
    13cc:	28000000 	stmdacs	r0, {}	; <UNPREDICTABLE>
    13d0:	03000000 	movweq	r0, #0
    13d4:	9f017300 	svcls	0x00017300
    13d8:	00000028 	andeq	r0, r0, r8, lsr #32
    13dc:	00000034 	andeq	r0, r0, r4, lsr r0
    13e0:	00530001 	subseq	r0, r3, r1
    13e4:	00000000 	andeq	r0, r0, r0
    13e8:	03000000 	movweq	r0, #0
    13ec:	00000000 	andeq	r0, r0, r0
    13f0:	24000000 	strcs	r0, [r0], #-0
    13f4:	01000000 	mrseq	r0, (UNDEF: 0)
    13f8:	00245100 	eoreq	r5, r4, r0, lsl #2
    13fc:	00340000 	eorseq	r0, r4, r0
    1400:	00030000 	andeq	r0, r3, r0
    1404:	009f7f71 	addseq	r7, pc, r1, ror pc	; <UNPREDICTABLE>
	...
    1410:	10000000 	andne	r0, r0, r0
    1414:	1c000000 	stcne	0, cr0, [r0], {-0}
    1418:	01000000 	mrseq	r0, (UNDEF: 0)
    141c:	00245c00 	eoreq	r5, r4, r0, lsl #24
    1420:	00340000 	eorseq	r0, r4, r0
    1424:	00010000 	andeq	r0, r1, r0
    1428:	00000052 	andeq	r0, r0, r2, asr r0
	...
    1438:	00001800 	andeq	r1, r0, r0, lsl #16
    143c:	50000100 	andpl	r0, r0, r0, lsl #2
    1440:	00000018 	andeq	r0, r0, r8, lsl r0
    1444:	00000024 	andeq	r0, r0, r4, lsr #32
    1448:	00500001 	subseq	r0, r0, r1
	...
    1458:	1c000000 	stcne	0, cr0, [r0], {-0}
    145c:	01000000 	mrseq	r0, (UNDEF: 0)
    1460:	001c5100 	andseq	r5, ip, r0, lsl #2
    1464:	002c0000 	eoreq	r0, ip, r0
    1468:	00010000 	andeq	r0, r1, r0
    146c:	00000051 	andeq	r0, r0, r1, asr r0
	...
    147c:	04000000 	streq	r0, [r0], #-0
    1480:	01000000 	mrseq	r0, (UNDEF: 0)
    1484:	00045100 	andeq	r5, r4, r0, lsl #2
    1488:	000c0000 	andeq	r0, ip, r0
    148c:	00010000 	andeq	r0, r1, r0
    1490:	00000c51 	andeq	r0, r0, r1, asr ip
    1494:	00002000 	andeq	r2, r0, r0
    1498:	71000300 	mrsvc	r0, LR_irq
    149c:	00009f7f 	andeq	r9, r0, pc, ror pc
    14a0:	00000000 	andeq	r0, r0, r0
    14a4:	00020000 	andeq	r0, r2, r0
	...
    14b0:	00000004 	andeq	r0, r0, r4
    14b4:	04500001 	ldrbeq	r0, [r0], #-1
    14b8:	14000000 	strne	r0, [r0], #-0
    14bc:	01000000 	mrseq	r0, (UNDEF: 0)
    14c0:	00145c00 	andseq	r5, r4, r0, lsl #24
    14c4:	00200000 	eoreq	r0, r0, r0
    14c8:	00030000 	andeq	r0, r3, r0
    14cc:	009f7f7c 	addseq	r7, pc, ip, ror pc	; <UNPREDICTABLE>
	...
    14d8:	94000303 	strls	r0, [r0], #-771	; 0xfffffcfd
    14dc:	94000092 	strls	r0, [r0], #-146	; 0xffffff6e
    14e0:	01000092 	swpeq	r0, r2, [r0]	; <UNPREDICTABLE>
    14e4:	92945000 	addsls	r5, r4, #0, 0
    14e8:	92c00000 	sbcls	r0, r0, #0, 0
    14ec:	00040000 	andeq	r0, r4, r0
    14f0:	9f5001f3 	svcls	0x005001f3
	...
    14fc:	00030300 	andeq	r0, r3, r0, lsl #6
    1500:	00009294 	muleq	r0, r4, r2
    1504:	00009294 	muleq	r0, r4, r2
    1508:	94510001 	ldrbls	r0, [r1], #-1
    150c:	c0000092 	mulgt	r0, r2, r0
    1510:	04000092 	streq	r0, [r0], #-146	; 0xffffff6e
    1514:	5101f300 	mrspl	pc, SP_irq	; <UNPREDICTABLE>
    1518:	0000009f 	muleq	r0, pc, r0	; <UNPREDICTABLE>
    151c:	00000000 	andeq	r0, r0, r0
    1520:	03030000 	movweq	r0, #12288	; 0x3000
    1524:	94000000 	strls	r0, [r0], #-0
    1528:	94000092 	strls	r0, [r0], #-146	; 0xffffff6e
    152c:	01000092 	swpeq	r0, r2, [r0]	; <UNPREDICTABLE>
    1530:	92945200 	addsls	r5, r4, #0, 4
    1534:	929c0000 	addsls	r0, ip, #0, 0
    1538:	00010000 	andeq	r0, r1, r0
    153c:	00929c52 	addseq	r9, r2, r2, asr ip
    1540:	0092c000 	addseq	ip, r2, r0
    1544:	72000300 	andvc	r0, r0, #0, 6
    1548:	00009f01 	andeq	r9, r0, r1, lsl #30
    154c:	00000000 	andeq	r0, r0, r0
    1550:	01020000 	mrseq	r0, (UNDEF: 2)
    1554:	00000001 	andeq	r0, r0, r1
    1558:	92940000 	addsls	r0, r4, #0, 0
    155c:	92a00000 	adcls	r0, r0, #0, 0
    1560:	00010000 	andeq	r0, r1, r0
    1564:	0092a050 	addseq	sl, r2, r0, asr r0
    1568:	0092a400 	addseq	sl, r2, r0, lsl #8
    156c:	70000300 	andvc	r0, r0, r0, lsl #6
    1570:	92a49f01 	adcls	r9, r4, #1, 30
    1574:	92b40000 	adcsls	r0, r4, #0, 0
    1578:	00010000 	andeq	r0, r1, r0
    157c:	0092b850 	addseq	fp, r2, r0, asr r8
    1580:	0092bc00 	addseq	fp, r2, r0, lsl #24
    1584:	50000100 	andpl	r0, r0, r0, lsl #2
	...
    1590:	00000002 	andeq	r0, r0, r2
    1594:	92940000 	addsls	r0, r4, #0, 0
    1598:	92a40000 	adcls	r0, r4, #0, 0
    159c:	00010000 	andeq	r0, r1, r0
    15a0:	0092a451 	addseq	sl, r2, r1, asr r4
    15a4:	0092a800 	addseq	sl, r2, r0, lsl #16
    15a8:	71000300 	mrsvc	r0, LR_irq
    15ac:	92a89f01 	adcls	r9, r8, #1, 30
    15b0:	92c00000 	sbcls	r0, r0, #0, 0
    15b4:	00010000 	andeq	r0, r1, r0
    15b8:	00000051 	andeq	r0, r0, r1, asr r0
	...
    15c8:	0000e800 	andeq	lr, r0, r0, lsl #16
    15cc:	00010000 	andeq	r0, r1, r0
    15d0:	50000100 	andpl	r0, r0, r0, lsl #2
    15d4:	00000100 	andeq	r0, r0, r0, lsl #2
    15d8:	00000110 	andeq	r0, r0, r0, lsl r1
    15dc:	01f30004 	mvnseq	r0, r4
    15e0:	01109f50 	tsteq	r0, r0, asr pc
    15e4:	01140000 	tsteq	r4, r0
    15e8:	00010000 	andeq	r0, r1, r0
    15ec:	00011450 	andeq	r1, r1, r0, asr r4
    15f0:	00011c00 	andeq	r1, r1, r0, lsl #24
    15f4:	f3000400 	vshl.u8	d0, d0, d0
    15f8:	009f5001 	addseq	r5, pc, r1
    15fc:	00000000 	andeq	r0, r0, r0
    1600:	01000000 	mrseq	r0, (UNDEF: 0)
    1604:	00000000 	andeq	r0, r0, r0
    1608:	0000f400 	andeq	pc, r0, r0, lsl #8
    160c:	00010000 	andeq	r0, r1, r0
    1610:	70000b00 	andvc	r0, r0, r0, lsl #22
    1614:	23253500 			; <UNDEFINED> instruction: 0x23253500
    1618:	818080b4 	strhhi	r8, [r0, r4]
    161c:	01009f02 	tsteq	r0, r2, lsl #30
    1620:	01030000 	mrseq	r0, (UNDEF: 3)
    1624:	00010000 	andeq	r0, r1, r0
    1628:	00010350 	andeq	r0, r1, r0, asr r3
    162c:	00011000 	andeq	r1, r1, r0
    1630:	f3000c00 			; <UNDEFINED> instruction: 0xf3000c00
    1634:	25355001 	ldrcs	r5, [r5, #-1]!
    1638:	8080b423 	addhi	fp, r0, r3, lsr #8
    163c:	009f0281 	addseq	r0, pc, r1, lsl #5
	...
    1648:	0000f800 	andeq	pc, r0, r0, lsl #16
    164c:	00011000 	andeq	r1, r1, r0
    1650:	54000100 	strpl	r0, [r0], #-256	; 0xffffff00
	...
    1664:	000000cc 	andeq	r0, r0, ip, asr #1
    1668:	000000db 	ldrdeq	r0, [r0], -fp
    166c:	db500001 	blle	1401678 <__bss_end__+0x13f7a18>
    1670:	e0000000 	and	r0, r0, r0
    1674:	04000000 	streq	r0, [r0], #-0
    1678:	5001f300 	andpl	pc, r1, r0, lsl #6
    167c:	0000e09f 	muleq	r0, pc, r0	; <UNPREDICTABLE>
    1680:	0000e300 	andeq	lr, r0, r0, lsl #6
    1684:	50000100 	andpl	r0, r0, r0, lsl #2
    1688:	000000e3 	andeq	r0, r0, r3, ror #1
    168c:	000000e8 	andeq	r0, r0, r8, ror #1
    1690:	01f30004 	mvnseq	r0, r4
    1694:	00009f50 	andeq	r9, r0, r0, asr pc
	...
    16a4:	00cc0000 	sbceq	r0, ip, r0
    16a8:	00db0000 	sbcseq	r0, fp, r0
    16ac:	00010000 	andeq	r0, r1, r0
    16b0:	0000db51 	andeq	sp, r0, r1, asr fp
    16b4:	0000e000 	andeq	lr, r0, r0
    16b8:	f3000400 	vshl.u8	d0, d0, d0
    16bc:	e09f5101 	adds	r5, pc, r1, lsl #2
    16c0:	e3000000 	movw	r0, #0
    16c4:	01000000 	mrseq	r0, (UNDEF: 0)
    16c8:	00e35100 	rsceq	r5, r3, r0, lsl #2
    16cc:	00e80000 	rsceq	r0, r8, r0
    16d0:	00040000 	andeq	r0, r4, r0
    16d4:	9f5101f3 	svcls	0x005101f3
	...
    16e4:	000000bc 	strheq	r0, [r0], -ip
    16e8:	000000c7 	andeq	r0, r0, r7, asr #1
    16ec:	c7500001 	ldrbgt	r0, [r0, -r1]
    16f0:	cc000000 	stcgt	0, cr0, [r0], {-0}
    16f4:	04000000 	streq	r0, [r0], #-0
    16f8:	5001f300 	andpl	pc, r1, r0, lsl #6
    16fc:	0000009f 	muleq	r0, pc, r0	; <UNPREDICTABLE>
	...
    1708:	00009800 	andeq	r9, r0, r0, lsl #16
    170c:	0000b000 	andeq	fp, r0, r0
    1710:	50000100 	andpl	r0, r0, r0, lsl #2
    1714:	000000b0 	strheq	r0, [r0], -r0	; <UNPREDICTABLE>
    1718:	000000bc 	strheq	r0, [r0], -ip
    171c:	01f30004 	mvnseq	r0, r4
    1720:	00009f50 	andeq	r9, r0, r0, asr pc
	...
    172c:	00740000 	rsbseq	r0, r4, r0
    1730:	008c0000 	addeq	r0, ip, r0
    1734:	00010000 	andeq	r0, r1, r0
    1738:	00008c50 	andeq	r8, r0, r0, asr ip
    173c:	00009800 	andeq	r9, r0, r0, lsl #16
    1740:	f3000400 	vshl.u8	d0, d0, d0
    1744:	009f5001 	addseq	r5, pc, r1
	...
    1750:	64000000 	strvs	r0, [r0], #-0
    1754:	6f000000 	svcvs	0x00000000
    1758:	01000000 	mrseq	r0, (UNDEF: 0)
    175c:	006f5000 	rsbeq	r5, pc, r0
    1760:	00740000 	rsbseq	r0, r4, r0
    1764:	00040000 	andeq	r0, r4, r0
    1768:	9f5001f3 	svcls	0x005001f3
	...
    177c:	00000038 	andeq	r0, r0, r8, lsr r0
    1780:	38500001 	ldmdacc	r0, {r0}^
    1784:	64000000 	strvs	r0, [r0], #-0
    1788:	04000000 	streq	r0, [r0], #-0
    178c:	5001f300 	andpl	pc, r1, r0, lsl #6
    1790:	0000009f 	muleq	r0, pc, r0	; <UNPREDICTABLE>
	...
    17a0:	00004700 	andeq	r4, r0, r0, lsl #14
    17a4:	51000100 	mrspl	r0, (UNDEF: 16)
    17a8:	00000047 	andeq	r0, r0, r7, asr #32
    17ac:	00000064 	andeq	r0, r0, r4, rrx
    17b0:	01f30004 	mvnseq	r0, r4
    17b4:	00009f51 	andeq	r9, r0, r1, asr pc
	...
    17c0:	00000034 	andeq	r0, r0, r4, lsr r0
    17c4:	00000064 	andeq	r0, r0, r4, rrx
    17c8:	00540001 	subseq	r0, r4, r1
	...
    17d4:	00004000 	andeq	r4, r0, r0
    17d8:	00006400 	andeq	r6, r0, r0, lsl #8
    17dc:	56000100 	strpl	r0, [r0], -r0, lsl #2
	...
    17e8:	01000000 	mrseq	r0, (UNDEF: 0)
    17ec:	00000001 	andeq	r0, r0, r1
    17f0:	00000048 	andeq	r0, r0, r8, asr #32
    17f4:	00000050 	andeq	r0, r0, r0, asr r0
    17f8:	50500001 	subspl	r0, r0, r1
    17fc:	50000000 	andpl	r0, r0, r0
    1800:	01000000 	mrseq	r0, (UNDEF: 0)
    1804:	00505100 	subseq	r5, r0, r0, lsl #2
    1808:	00540000 	subseq	r0, r4, r0
    180c:	00090000 	andeq	r0, r9, r0
    1810:	00740075 	rsbseq	r0, r4, r5, ror r0
    1814:	21007124 	tstcs	r0, r4, lsr #2
    1818:	0000549f 	muleq	r0, pc, r4	; <UNPREDICTABLE>
    181c:	00005b00 	andeq	r5, r0, r0, lsl #22
    1820:	51000100 	mrspl	r0, (UNDEF: 16)
	...

Disassembly of section .debug_aranges:

00000000 <.debug_aranges>:
   0:	0000001c 	andeq	r0, r0, ip, lsl r0
   4:	00000002 	andeq	r0, r0, r2
   8:	00040000 	andeq	r0, r4, r0
   c:	00000000 	andeq	r0, r0, r0
  10:	00008038 	andeq	r8, r0, r8, lsr r0
  14:	000000f4 	strdeq	r0, [r0], -r4
	...
  20:	0000001c 	andeq	r0, r0, ip, lsl r0
  24:	02bd0002 	adcseq	r0, sp, #2, 0
  28:	00040000 	andeq	r0, r4, r0
  2c:	00000000 	andeq	r0, r0, r0
  30:	0000812c 	andeq	r8, r0, ip, lsr #2
  34:	000001ac 	andeq	r0, r0, ip, lsr #3
	...
  40:	0000001c 	andeq	r0, r0, ip, lsl r0
  44:	059b0002 	ldreq	r0, [fp, #2]
  48:	00040000 	andeq	r0, r4, r0
  4c:	00000000 	andeq	r0, r0, r0
  50:	000082d8 	ldrdeq	r8, [r0], -r8	; <UNPREDICTABLE>
  54:	0000000c 	andeq	r0, r0, ip
	...
  60:	0000001c 	andeq	r0, r0, ip, lsl r0
  64:	06a90002 	strteq	r0, [r9], r2
  68:	00040000 	andeq	r0, r4, r0
  6c:	00000000 	andeq	r0, r0, r0
  70:	000082e4 	andeq	r8, r0, r4, ror #5
  74:	00000058 	andeq	r0, r0, r8, asr r0
	...
  80:	0000001c 	andeq	r0, r0, ip, lsl r0
  84:	084a0002 	stmdaeq	sl, {r1}^
  88:	00040000 	andeq	r0, r4, r0
  8c:	00000000 	andeq	r0, r0, r0
  90:	0000833c 	andeq	r8, r0, ip, lsr r3
  94:	00000034 	andeq	r0, r0, r4, lsr r0
	...
  a0:	0000001c 	andeq	r0, r0, ip, lsl r0
  a4:	09410002 	stmdbeq	r1, {r1}^
  a8:	00040000 	andeq	r0, r4, r0
  ac:	00000000 	andeq	r0, r0, r0
  b0:	00008370 	andeq	r8, r0, r0, ror r3
  b4:	00000740 	andeq	r0, r0, r0, asr #14
	...
  c0:	0000001c 	andeq	r0, r0, ip, lsl r0
  c4:	141c0002 	ldrne	r0, [ip], #-2
  c8:	00040000 	andeq	r0, r4, r0
  cc:	00000000 	andeq	r0, r0, r0
  d0:	00008ab0 			; <UNDEFINED> instruction: 0x00008ab0
  d4:	0000002c 	andeq	r0, r0, ip, lsr #32
	...
  e0:	0000001c 	andeq	r0, r0, ip, lsl r0
  e4:	154f0002 	strbne	r0, [pc, #-2]	; ea <__code_start__-0x7f16>
  e8:	00040000 	andeq	r0, r4, r0
  ec:	00000000 	andeq	r0, r0, r0
  f0:	00008adc 	ldrdeq	r8, [r0], -ip
  f4:	0000003c 	andeq	r0, r0, ip, lsr r0
	...
 100:	0000001c 	andeq	r0, r0, ip, lsl r0
 104:	16dc0002 	ldrbne	r0, [ip], r2
 108:	00040000 	andeq	r0, r4, r0
 10c:	00000000 	andeq	r0, r0, r0
 110:	00008b18 	andeq	r8, r0, r8, lsl fp
 114:	00000004 	andeq	r0, r0, r4
	...
 120:	0000001c 	andeq	r0, r0, ip, lsl r0
 124:	17ae0002 	strne	r0, [lr, r2]!
 128:	00040000 	andeq	r0, r4, r0
 12c:	00000000 	andeq	r0, r0, r0
 130:	00008b1c 	andeq	r8, r0, ip, lsl fp
 134:	00000080 	andeq	r0, r0, r0, lsl #1
	...
 140:	0000001c 	andeq	r0, r0, ip, lsl r0
 144:	19e80002 	stmibne	r8!, {r1}^
 148:	00040000 	andeq	r0, r4, r0
 14c:	00000000 	andeq	r0, r0, r0
 150:	00008b9c 	muleq	r0, ip, fp
 154:	00000084 	andeq	r0, r0, r4, lsl #1
	...
 160:	0000001c 	andeq	r0, r0, ip, lsl r0
 164:	1c390002 	ldcne	0, cr0, [r9], #-8
 168:	00040000 	andeq	r0, r4, r0
 16c:	00000000 	andeq	r0, r0, r0
 170:	00008c20 	andeq	r8, r0, r0, lsr #24
 174:	000001f0 	strdeq	r0, [r0], -r0	; <UNPREDICTABLE>
	...
 180:	0000001c 	andeq	r0, r0, ip, lsl r0
 184:	220a0002 	andcs	r0, sl, #2, 0
 188:	00040000 	andeq	r0, r4, r0
 18c:	00000000 	andeq	r0, r0, r0
 190:	00008e10 	andeq	r8, r0, r0, lsl lr
 194:	000003b0 			; <UNDEFINED> instruction: 0x000003b0
	...
 1a0:	0000001c 	andeq	r0, r0, ip, lsl r0
 1a4:	2af70002 	bcs	ffdc01b4 <__bss_end__+0xffdb6554>
 1a8:	00040000 	andeq	r0, r4, r0
 1ac:	00000000 	andeq	r0, r0, r0
 1b0:	000091c0 	andeq	r9, r0, r0, asr #3
 1b4:	00000018 	andeq	r0, r0, r8, lsl r0
	...
 1c0:	0000001c 	andeq	r0, r0, ip, lsl r0
 1c4:	2c350002 	ldccs	0, cr0, [r5], #-8
 1c8:	00040000 	andeq	r0, r4, r0
 1cc:	00000000 	andeq	r0, r0, r0
 1d0:	000091d8 	ldrdeq	r9, [r0], -r8
 1d4:	0000003c 	andeq	r0, r0, ip, lsr r0
	...
 1e0:	0000001c 	andeq	r0, r0, ip, lsl r0
 1e4:	2d820002 	stccs	0, cr0, [r2, #8]
 1e8:	00040000 	andeq	r0, r4, r0
 1ec:	00000000 	andeq	r0, r0, r0
 1f0:	00009214 	andeq	r9, r0, r4, lsl r2
 1f4:	00000034 	andeq	r0, r0, r4, lsr r0
	...
 200:	0000001c 	andeq	r0, r0, ip, lsl r0
 204:	2ebd0002 	cdpcs	0, 11, cr0, cr13, cr2, {0}
 208:	00040000 	andeq	r0, r4, r0
 20c:	00000000 	andeq	r0, r0, r0
 210:	00009248 	andeq	r9, r0, r8, asr #4
 214:	0000002c 	andeq	r0, r0, ip, lsr #32
	...
 220:	0000001c 	andeq	r0, r0, ip, lsl r0
 224:	2fb80002 	svccs	0x00b80002
 228:	00040000 	andeq	r0, r4, r0
 22c:	00000000 	andeq	r0, r0, r0
 230:	00009274 	andeq	r9, r0, r4, ror r2
 234:	00000020 	andeq	r0, r0, r0, lsr #32
	...
 240:	0000001c 	andeq	r0, r0, ip, lsl r0
 244:	30cb0002 	sbccc	r0, fp, r2
 248:	00040000 	andeq	r0, r4, r0
 24c:	00000000 	andeq	r0, r0, r0
 250:	00009294 	muleq	r0, r4, r2
 254:	0000002c 	andeq	r0, r0, ip, lsr #32
	...
 260:	0000001c 	andeq	r0, r0, ip, lsl r0
 264:	321d0002 	andscc	r0, sp, #2, 0
 268:	00040000 	andeq	r0, r4, r0
 26c:	00000000 	andeq	r0, r0, r0
 270:	000092c0 	andeq	r9, r0, r0, asr #5
 274:	00000004 	andeq	r0, r0, r4
	...
 280:	0000001c 	andeq	r0, r0, ip, lsl r0
 284:	32ef0002 	rsccc	r0, pc, #2, 0
 288:	00040000 	andeq	r0, r4, r0
 28c:	00000000 	andeq	r0, r0, r0
 290:	000092dc 	ldrdeq	r9, [r0], -ip
 294:	0000011c 	andeq	r0, r0, ip, lsl r1
	...

Disassembly of section .debug_ranges:

00000000 <.debug_ranges>:
   0:	0000002c 	andeq	r0, r0, ip, lsr #32
   4:	00000064 	andeq	r0, r0, r4, rrx
   8:	00000068 	andeq	r0, r0, r8, rrx
   c:	000000c0 	andeq	r0, r0, r0, asr #1
	...
  18:	00008b1c 	andeq	r8, r0, ip, lsl fp
  1c:	00008b9c 	muleq	r0, ip, fp
	...
  28:	00000134 	andeq	r0, r0, r4, lsr r1
  2c:	00000134 	andeq	r0, r0, r4, lsr r1
  30:	00000134 	andeq	r0, r0, r4, lsr r1
  34:	0000013c 	andeq	r0, r0, ip, lsr r1
	...
  40:	0000024c 	andeq	r0, r0, ip, asr #4
  44:	00000264 	andeq	r0, r0, r4, ror #4
  48:	000002c8 	andeq	r0, r0, r8, asr #5
  4c:	000002e8 	andeq	r0, r0, r8, ror #5
	...
  58:	00009294 	muleq	r0, r4, r2
  5c:	000092c0 	andeq	r9, r0, r0, asr #5
	...

Disassembly of section .debug_line:

00000000 <.debug_line>:
       0:	00000156 	andeq	r0, r0, r6, asr r1
       4:	008e0003 	addeq	r0, lr, r3
       8:	01020000 	mrseq	r0, (UNDEF: 2)
       c:	000d0efb 	strdeq	r0, [sp], -fp
      10:	01010101 	tsteq	r1, r1, lsl #2
      14:	01000000 	mrseq	r0, (UNDEF: 0)
      18:	2f010000 	svccs	0x00010000
      1c:	72657355 	rsbvc	r7, r5, #1409286145	; 0x54000001
      20:	72742f73 	rsbsvc	r2, r4, #460	; 0x1cc
      24:	65747369 	ldrbvs	r7, [r4, #-873]!	; 0xfffffc97
      28:	6c6f6e6e 	stclvs	14, cr6, [pc], #-440	; fffffe78 <__bss_end__+0xffff6218>
      2c:	6e616d6c 	cdpvs	13, 6, cr6, cr1, cr12, {3}
      30:	636f442f 	cmnvs	pc, #788529152	; 0x2f000000
      34:	6e656d75 	mcrvs	13, 3, r6, cr5, cr5, {3}
      38:	532f7374 			; <UNDEFINED> instruction: 0x532f7374
      3c:	6e697270 	mcrvs	2, 3, r7, cr9, cr0, {3}
      40:	75515f67 	ldrbvc	r5, [r1, #-3943]	; 0xfffff099
      44:	65747261 	ldrbvs	r7, [r4, #-609]!	; 0xfffffd9f
      48:	30325f72 	eorscc	r5, r2, r2, ror pc
      4c:	432f3232 			; <UNDEFINED> instruction: 0x432f3232
      50:	30343253 	eorscc	r3, r4, r3, asr r2
      54:	732d584c 			; <UNDEFINED> instruction: 0x732d584c
      58:	32327270 	eorscc	r7, r2, #112, 4
      5c:	62696c2f 	rsbvs	r6, r9, #12032	; 0x2f00
      60:	692f6970 	stmdbvs	pc!, {r4, r5, r6, r8, fp, sp, lr}	; <UNPREDICTABLE>
      64:	756c636e 	strbvc	r6, [ip, #-878]!	; 0xfffffc92
      68:	00006564 	andeq	r6, r0, r4, ror #10
      6c:	65742d31 	ldrbvs	r2, [r4, #-3377]!	; 0xfffff2cf
      70:	6d2d7473 	cfstrsvs	mvf7, [sp, #-460]!	; 0xfffffe34
      74:	6f6c6c61 	svcvs	0x006c6c61
      78:	00632e63 	rsbeq	r2, r3, r3, ror #28
      7c:	72000000 	andvc	r0, r0, #0, 0
      80:	682e6970 	stmdavs	lr!, {r4, r5, r6, r8, fp, sp, lr}
      84:	00000100 	andeq	r0, r0, r0, lsl #2
      88:	6d2d726b 	sfmvs	f7, 4, [sp, #-428]!	; 0xfffffe54
      8c:	6f6c6c61 	svcvs	0x006c6c61
      90:	00682e63 	rsbeq	r2, r8, r3, ror #28
      94:	00000000 	andeq	r0, r0, r0
      98:	05001405 	streq	r1, [r0, #-1029]	; 0xfffffbfb
      9c:	00803802 	addeq	r3, r0, r2, lsl #16
      a0:	01140300 	tsteq	r4, r0, lsl #6
      a4:	054b0505 	strbeq	r0, [fp, #-1285]	; 0xfffffafb
      a8:	05010610 	streq	r0, [r1, #-1552]	; 0xfffff9f0
      ac:	15670605 	strbne	r0, [r7, #-1541]!	; 0xfffff9fb
      b0:	064a0614 			; <UNDEFINED> instruction: 0x064a0614
      b4:	0109052f 	tsteq	r9, pc, lsr #10
      b8:	01060d05 	tsteq	r6, r5, lsl #26
      bc:	02001405 	andeq	r1, r0, #83886080	; 0x5000000
      c0:	2e060104 	adfcss	f0, f6, f4
      c4:	02000505 	andeq	r0, r0, #20971520	; 0x1400000
      c8:	01060104 	tsteq	r6, r4, lsl #2
      cc:	4b060905 	blmi	1824e8 <__bss_end__+0x178888>
      d0:	01061405 	tsteq	r6, r5, lsl #8
      d4:	67060905 	strvs	r0, [r6, -r5, lsl #18]
      d8:	30064a06 	andcc	r4, r6, r6, lsl #20
      dc:	04020001 	streq	r0, [r2], #-1
      e0:	02004a02 	andeq	r4, r0, #8192	; 0x2000
      e4:	00010204 	andeq	r0, r1, r4, lsl #4
      e8:	13020402 	movwne	r0, #9218	; 0x2402
      ec:	02000f05 	andeq	r0, r0, #5, 30
      f0:	01060204 	tsteq	r6, r4, lsl #4
      f4:	02000b05 	andeq	r0, r0, #5120	; 0x1400
      f8:	052e0204 	streq	r0, [lr, #-516]!	; 0xfffffdfc
      fc:	0402000d 	streq	r0, [r2], #-13
     100:	004b0602 	subeq	r0, fp, r2, lsl #12
     104:	14020402 	strne	r0, [r2], #-1026	; 0xfffffbfe
     108:	02000305 	andeq	r0, r0, #335544320	; 0x14000000
     10c:	00670204 	rsbeq	r0, r7, r4, lsl #4
     110:	06020402 	streq	r0, [r2], -r2, lsl #8
     114:	00200501 	eoreq	r0, r0, r1, lsl #10
     118:	06020402 	streq	r0, [r2], -r2, lsl #8
     11c:	05017703 	streq	r7, [r1, #-1795]	; 0xfffff8fd
     120:	04020021 	streq	r0, [r2], #-33	; 0xffffffdf
     124:	05010602 	streq	r0, [r1, #-1538]	; 0xfffff9fe
     128:	04020006 	streq	r0, [r2], #-6
     12c:	2e090302 	cdpcs	3, 0, cr0, cr9, cr2, {0}
     130:	02000905 	andeq	r0, r0, #81920	; 0x14000
     134:	45060104 	strmi	r0, [r6, #-260]	; 0xfffffefc
     138:	01040200 	mrseq	r0, R12_usr
     13c:	04020001 	streq	r0, [r2], #-1
     140:	0d05d601 	stceq	6, cr13, [r5, #-4]
     144:	58080130 	stmdapl	r8, {r4, r5, r8}
     148:	05052e06 	streq	r2, [r5, #-3590]	; 0xfffff1fa
     14c:	66011706 	strvs	r1, [r1], -r6, lsl #14
     150:	13060105 	movwne	r0, #24837	; 0x6105
     154:	0010024a 	andseq	r0, r0, sl, asr #4
     158:	02520101 	subseq	r0, r2, #1073741824	; 0x40000000
     15c:	00030000 	andeq	r0, r3, r0
     160:	0000008a 	andeq	r0, r0, sl, lsl #1
     164:	0efb0102 	cdpeq	1, 15, cr0, cr11, cr2, {0}
     168:	0101000d 	tsteq	r1, sp
     16c:	00000101 	andeq	r0, r0, r1, lsl #2
     170:	00000100 	andeq	r0, r0, r0, lsl #2
     174:	73552f01 	cmpvc	r5, #1, 30
     178:	2f737265 	svccs	0x00737265
     17c:	73697274 	cmnvc	r9, #116, 4	; 0x40000007
     180:	6e6e6574 	mcrvs	5, 3, r6, cr14, cr4, {3}
     184:	6d6c6c6f 	stclvs	12, cr6, [ip, #-444]!	; 0xfffffe44
     188:	442f6e61 	strtmi	r6, [pc], #-3681	; 190 <__code_start__-0x7e70>
     18c:	6d75636f 	ldclvs	3, cr6, [r5, #-444]!	; 0xfffffe44
     190:	73746e65 	cmnvc	r4, #1616	; 0x650
     194:	7270532f 	rsbsvc	r5, r0, #-1140850688	; 0xbc000000
     198:	5f676e69 	svcpl	0x00676e69
     19c:	72617551 	rsbvc	r7, r1, #339738624	; 0x14400000
     1a0:	5f726574 	svcpl	0x00726574
     1a4:	32323032 	eorscc	r3, r2, #50, 0	; 0x32
     1a8:	3253432f 	subscc	r4, r3, #-1140850688	; 0xbc000000
     1ac:	584c3034 	stmdapl	ip, {r2, r4, r5, ip, sp}^
     1b0:	7270732d 	rsbsvc	r7, r0, #-1275068416	; 0xb4000000
     1b4:	6c2f3232 	sfmvs	f3, 4, [pc], #-200	; f4 <__code_start__-0x7f0c>
     1b8:	69706269 	ldmdbvs	r0!, {r0, r3, r5, r6, r9, sp, lr}^
     1bc:	636e692f 	cmnvs	lr, #770048	; 0xbc000
     1c0:	6564756c 	strbvs	r7, [r4, #-1388]!	; 0xfffffa94
     1c4:	726b0000 	rsbvc	r0, fp, #0, 0
     1c8:	6c616d2d 	stclvs	13, cr6, [r1], #-180	; 0xffffff4c
     1cc:	2e636f6c 	cdpcs	15, 6, cr6, cr3, cr12, {3}
     1d0:	00000063 	andeq	r0, r0, r3, rrx
     1d4:	69707200 	ldmdbvs	r0!, {r9, ip, sp, lr}^
     1d8:	0100682e 	tsteq	r0, lr, lsr #16
     1dc:	726b0000 	rsbvc	r0, fp, #0, 0
     1e0:	6c616d2d 	stclvs	13, cr6, [r1], #-180	; 0xffffff4c
     1e4:	2e636f6c 	cdpcs	15, 6, cr6, cr3, cr12, {3}
     1e8:	00000068 	andeq	r0, r0, r8, rrx
     1ec:	19050000 	stmdbne	r5, {}	; <UNPREDICTABLE>
     1f0:	2c020500 	cfstr32cs	mvfx0, [r2], {-0}
     1f4:	03000081 	movweq	r0, #129	; 0x81
     1f8:	060100d1 			; <UNDEFINED> instruction: 0x060100d1
     1fc:	06020501 	streq	r0, [r2], -r1, lsl #10
     200:	0505132f 	streq	r1, [r5, #-815]	; 0xfffffcd1
     204:	02050106 	andeq	r0, r5, #-2147483647	; 0x80000001
     208:	09052f06 	stmdbeq	r5, {r1, r2, r8, r9, sl, fp, sp}
     20c:	02050106 	andeq	r0, r5, #-2147483647	; 0x80000001
     210:	12052e4a 	andne	r2, r5, #1184	; 0x4a0
     214:	01040200 	mrseq	r0, R12_usr
     218:	02052e06 	andeq	r2, r5, #96	; 0x60
     21c:	01040200 	mrseq	r0, R12_usr
     220:	26050106 	strcs	r0, [r5], -r6, lsl #2
     224:	03040200 	movweq	r0, #16896	; 0x4200
     228:	0012054a 	andseq	r0, r2, sl, asr #10
     22c:	2e030402 	cdpcs	4, 0, cr0, cr3, cr2, {0}
     230:	4b060305 	blmi	180e4c <__bss_end__+0x1771ec>
     234:	01061005 	tsteq	r6, r5
     238:	052e0605 	streq	r0, [lr, #-1541]!	; 0xfffff9fb
     23c:	04020015 	streq	r0, [r2], #-21	; 0xffffffeb
     240:	20054a01 	andcs	r4, r5, r1, lsl #20
     244:	02040200 	andeq	r0, r4, #0, 4
     248:	0402004a 	streq	r0, [r2], #-74	; 0xffffffb6
     24c:	02054a02 	andeq	r4, r5, #8192	; 0x2000
     250:	10053206 	andne	r3, r5, r6, lsl #4
     254:	09050106 	stmdbeq	r5, {r1, r2, r8}
     258:	2e1d052e 	cfmul64cs	mvdx0, mvdx13, mvdx14
     25c:	052e0505 	streq	r0, [lr, #-1285]!	; 0xfffffafb
     260:	054e060c 	strbeq	r0, [lr, #-1548]	; 0xfffff9f4
     264:	05010616 	streq	r0, [r1, #-1558]	; 0xfffff9ea
     268:	052f0608 	streq	r0, [pc, #-1544]!	; fffffc68 <__bss_end__+0xffff6008>
     26c:	05010614 	streq	r0, [r1, #-1556]	; 0xfffff9ec
     270:	0b052e0e 	bleq	14bab0 <__bss_end__+0x141e50>
     274:	060c052e 	streq	r0, [ip], -lr, lsr #10
     278:	0615054e 	ldreq	r0, [r5], -lr, asr #10
     27c:	06020501 	streq	r0, [r2], -r1, lsl #10
     280:	06080530 			; <UNDEFINED> instruction: 0x06080530
     284:	4b010501 	blmi	41690 <__bss_end__+0x37a30>
     288:	03060c05 	movweq	r0, #27653	; 0x6c05
     28c:	25052e75 	strcs	r2, [r5, #-3701]	; 0xfffff18b
     290:	17050106 	strne	r0, [r5, -r6, lsl #2]
     294:	060c052e 	streq	r0, [ip], -lr, lsr #10
     298:	061c054b 	ldreq	r0, [ip], -fp, asr #10
     29c:	2e230501 	cfsh64cs	mvdx0, mvdx3, #1
     2a0:	052e1605 	streq	r1, [lr, #-1541]!	; 0xfffff9fb
     2a4:	054e060c 	strbeq	r0, [lr, #-1548]	; 0xfffff9f4
     2a8:	0501061e 	streq	r0, [r1, #-1566]	; 0xfffff9e2
     2ac:	0c052e16 	stceq	14, cr2, [r5], {22}
     2b0:	1c054b06 			; <UNDEFINED> instruction: 0x1c054b06
     2b4:	15050106 	strne	r0, [r5, #-262]	; 0xfffffefa
     2b8:	062a052e 	strteq	r0, [sl], -lr, lsr #10
     2bc:	667fb703 	ldrbtvs	fp, [pc], -r3, lsl #14
     2c0:	02050106 	andeq	r0, r5, #-2147483647	; 0x80000001
     2c4:	14134b06 	ldrne	r4, [r3], #-2822	; 0xfffff4fa
     2c8:	01060505 	tsteq	r6, r5, lsl #10
     2cc:	052f0705 	streq	r0, [pc, #-1797]!	; fffffbcf <__bss_end__+0xffff5f6f>
     2d0:	05310602 	ldreq	r0, [r1, #-1538]!	; 0xfffff9fe
     2d4:	05010607 	streq	r0, [r1, #-1543]	; 0xfffff9f9
     2d8:	054b0602 	strbeq	r0, [fp, #-1538]	; 0xfffff9fe
     2dc:	05010605 	streq	r0, [r1, #-1541]	; 0xfffff9fb
     2e0:	134e0602 	movtne	r0, #58882	; 0xe602
     2e4:	01060d05 	tsteq	r6, r5, lsl #26
     2e8:	2f060205 	svccs	0x00060205
     2ec:	2f062e06 	svccs	0x00062e06
     2f0:	01060905 	tsteq	r6, r5, lsl #18
     2f4:	7a030a05 	bvc	c2b10 <__bss_end__+0xb8eb0>
     2f8:	35010566 	strcc	r0, [r1, #-1382]	; 0xfffffa9a
     2fc:	4d062205 	sfmmi	f2, 4, [r6, #-20]	; 0xffffffec
     300:	02050106 	andeq	r0, r5, #-2147483647	; 0x80000001
     304:	13132f06 	tstne	r3, #6, 30
     308:	06240514 			; <UNDEFINED> instruction: 0x06240514
     30c:	2e290501 	cfsh64cs	mvdx0, mvdx9, #1
     310:	052e0905 	streq	r0, [lr, #-2309]!	; 0xfffff6fb
     314:	052f0602 	streq	r0, [pc, #-1538]!	; fffffd1a <__bss_end__+0xffff60ba>
     318:	0501060d 	streq	r0, [r1, #-1549]	; 0xfffff9f3
     31c:	02054a05 	andeq	r4, r5, #20480	; 0x5000
     320:	09055006 	stmdbeq	r5, {r1, r2, ip, lr}
     324:	052e0106 	streq	r0, [lr, #-262]!	; 0xfffffefa
     328:	052a0603 	streq	r0, [sl, #-1539]!	; 0xfffff9fd
     32c:	05010616 	streq	r0, [r1, #-1558]	; 0xfffff9ea
     330:	03054a0e 	movweq	r4, #23054	; 0x5a0e
     334:	0f052f06 	svceq	0x00052f06
     338:	04050106 	streq	r0, [r5], #-262	; 0xfffffefa
     33c:	07056c06 	streq	r6, [r5, -r6, lsl #24]
     340:	05050106 	streq	r0, [r5, #-262]	; 0xfffffefa
     344:	0f053206 	svceq	0x00053206
     348:	05050106 	streq	r0, [r5, #-262]	; 0xfffffefa
     34c:	07054b06 	streq	r4, [r5, -r6, lsl #22]
     350:	05050106 	streq	r0, [r5, #-262]	; 0xfffffefa
     354:	0f052f06 	svceq	0x00052f06
     358:	04050106 	streq	r0, [r5], #-262	; 0xfffffefa
     35c:	0a053006 	beq	14c37c <__bss_end__+0x14271c>
     360:	04050106 	streq	r0, [r5], #-262	; 0xfffffefa
     364:	0b054b06 	bleq	152f84 <__bss_end__+0x149324>
     368:	052e0106 	streq	r0, [lr, #-262]!	; 0xfffffefa
     36c:	79030605 	stmdbvc	r3, {r0, r2, r9, sl}
     370:	0618052e 	ldreq	r0, [r8], -lr, lsr #10
     374:	2e120501 	cfmul32cs	mvfx0, mvfx2, mvfx1
     378:	45061a05 	strmi	r1, [r6, #-2565]	; 0xfffff5fb
     37c:	05011805 	streq	r1, [r1, #-2053]	; 0xfffff7fb
     380:	05010620 	streq	r0, [r1, #-1568]	; 0xfffff9e0
     384:	03052e27 	movweq	r2, #24103	; 0x5e27
     388:	0b052f06 	bleq	14bfa8 <__bss_end__+0x142348>
     38c:	06050106 	streq	r0, [r5], -r6, lsl #2
     390:	0603052e 	streq	r0, [r3], -lr, lsr #10
     394:	054a0e03 	strbeq	r0, [sl, #-3587]	; 0xfffff1fd
     398:	05010609 	streq	r0, [r1, #-1545]	; 0xfffff9f7
     39c:	04054a06 	streq	r4, [r5], #-2566	; 0xfffff5fa
     3a0:	0d054c06 	stceq	12, cr4, [r5, #-24]	; 0xffffffe8
     3a4:	052e0106 	streq	r0, [lr, #-262]!	; 0xfffffefa
     3a8:	022e2e07 	eoreq	r2, lr, #112	; 0x70
     3ac:	01010006 	tsteq	r1, r6
     3b0:	0000009b 	muleq	r0, fp, r0
     3b4:	00790003 	rsbseq	r0, r9, r3
     3b8:	01020000 	mrseq	r0, (UNDEF: 2)
     3bc:	000d0efb 	strdeq	r0, [sp], -fp
     3c0:	01010101 	tsteq	r1, r1, lsl #2
     3c4:	01000000 	mrseq	r0, (UNDEF: 0)
     3c8:	2f010000 	svccs	0x00010000
     3cc:	72657355 	rsbvc	r7, r5, #1409286145	; 0x54000001
     3d0:	72742f73 	rsbsvc	r2, r4, #460	; 0x1cc
     3d4:	65747369 	ldrbvs	r7, [r4, #-873]!	; 0xfffffc97
     3d8:	6c6f6e6e 	stclvs	14, cr6, [pc], #-440	; 228 <__code_start__-0x7dd8>
     3dc:	6e616d6c 	cdpvs	13, 6, cr6, cr1, cr12, {3}
     3e0:	636f442f 	cmnvs	pc, #788529152	; 0x2f000000
     3e4:	6e656d75 	mcrvs	13, 3, r6, cr5, cr5, {3}
     3e8:	532f7374 			; <UNDEFINED> instruction: 0x532f7374
     3ec:	6e697270 	mcrvs	2, 3, r7, cr9, cr0, {3}
     3f0:	75515f67 	ldrbvc	r5, [r1, #-3943]	; 0xfffff099
     3f4:	65747261 	ldrbvs	r7, [r4, #-609]!	; 0xfffffd9f
     3f8:	30325f72 	eorscc	r5, r2, r2, ror pc
     3fc:	432f3232 			; <UNDEFINED> instruction: 0x432f3232
     400:	30343253 	eorscc	r3, r4, r3, asr r2
     404:	732d584c 			; <UNDEFINED> instruction: 0x732d584c
     408:	32327270 	eorscc	r7, r2, #112, 4
     40c:	62696c2f 	rsbvs	r6, r9, #12032	; 0x2f00
     410:	692f6970 	stmdbvs	pc!, {r4, r5, r6, r8, fp, sp, lr}	; <UNPREDICTABLE>
     414:	756c636e 	strbvc	r6, [ip, #-878]!	; 0xfffffc92
     418:	00006564 	andeq	r6, r0, r4, ror #10
     41c:	732d6970 			; <UNDEFINED> instruction: 0x732d6970
     420:	2e6b7262 	cdpcs	2, 6, cr7, cr11, cr2, {3}
     424:	00000063 	andeq	r0, r0, r3, rrx
     428:	69707200 	ldmdbvs	r0!, {r9, ip, sp, lr}^
     42c:	0100682e 	tsteq	r0, lr, lsr #16
     430:	05000000 	streq	r0, [r0, #-0]
     434:	0205001c 	andeq	r0, r5, #28, 0
     438:	000082d8 	ldrdeq	r8, [r0], -r8	; <UNPREDICTABLE>
     43c:	05010615 	streq	r0, [r1, #-1557]	; 0xfffff9eb
     440:	052f0602 	streq	r0, [pc, #-1538]!	; fffffe46 <__bss_end__+0xffff61e6>
     444:	05010609 	streq	r0, [r1, #-1545]	; 0xfffff9f7
     448:	02022f01 	andeq	r2, r2, #1, 30
     44c:	33010100 	movwcc	r0, #4352	; 0x1100
     450:	03000001 	movweq	r0, #1
     454:	00010100 	andeq	r0, r1, r0, lsl #2
     458:	fb010200 	blx	40c62 <__bss_end__+0x37002>
     45c:	01000d0e 	tsteq	r0, lr, lsl #26
     460:	00010101 	andeq	r0, r1, r1, lsl #2
     464:	00010000 	andeq	r0, r1, r0
     468:	2f2e0100 	svccs	0x002e0100
     46c:	6362696c 	cmnvs	r2, #108, 18	; 0x1b0000
     470:	73752f00 	cmnvc	r5, #0, 30
     474:	6f6c2f72 	svcvs	0x006c2f72
     478:	2f6c6163 	svccs	0x006c6163
     47c:	6c6c6543 	cfstr64vs	mvdx6, [ip], #-268	; 0xfffffef4
     480:	612f7261 			; <UNDEFINED> instruction: 0x612f7261
     484:	6e2d6d72 	mcrvs	13, 1, r6, cr13, cr2, {3}
     488:	2d656e6f 	stclcs	14, cr6, [r5, #-444]!	; 0xfffffe44
     48c:	69626165 	stmdbvs	r2!, {r0, r2, r5, r6, r8, sp, lr}^
     490:	7365742d 	cmnvc	r5, #754974720	; 0x2d000000
     494:	2d392f74 	ldccs	15, cr2, [r9, #-464]!	; 0xfffffe30
     498:	39313032 	ldmdbcc	r1!, {r1, r4, r5, ip, sp}
     49c:	632d3471 			; <UNDEFINED> instruction: 0x632d3471
     4a0:	37303173 			; <UNDEFINED> instruction: 0x37303173
     4a4:	696c2f65 	stmdbvs	ip!, {r0, r2, r5, r6, r8, r9, sl, fp, sp}^
     4a8:	63672f62 	cmnvs	r7, #392	; 0x188
     4ac:	72612f63 	rsbvc	r2, r1, #396	; 0x18c
     4b0:	6f6e2d6d 	svcvs	0x006e2d6d
     4b4:	652d656e 	strvs	r6, [sp, #-1390]!	; 0xfffffa92
     4b8:	2f696261 	svccs	0x00696261
     4bc:	2e322e39 	mrccs	14, 1, r2, cr2, cr9, {1}
     4c0:	6e692f31 	mcrvs	15, 3, r2, cr9, cr1, {1}
     4c4:	64756c63 	ldrbtvs	r6, [r5], #-3171	; 0xfffff39d
     4c8:	552f0065 	strpl	r0, [pc, #-101]!	; 46b <__code_start__-0x7b95>
     4cc:	73726573 	cmnvc	r2, #482344960	; 0x1cc00000
     4d0:	6972742f 	ldmdbvs	r2!, {r0, r1, r2, r3, r5, sl, ip, sp, lr}^
     4d4:	6e657473 	mcrvs	4, 3, r7, cr5, cr3, {3}
     4d8:	6c6c6f6e 	stclvs	15, cr6, [ip], #-440	; 0xfffffe48
     4dc:	2f6e616d 	svccs	0x006e616d
     4e0:	75636f44 	strbvc	r6, [r3, #-3908]!	; 0xfffff0bc
     4e4:	746e656d 	strbtvc	r6, [lr], #-1389	; 0xfffffa93
     4e8:	70532f73 	subsvc	r2, r3, r3, ror pc
     4ec:	676e6972 			; <UNDEFINED> instruction: 0x676e6972
     4f0:	6175515f 	cmnvs	r5, pc, asr r1
     4f4:	72657472 	rsbvc	r7, r5, #1912602624	; 0x72000000
     4f8:	3230325f 	eorscc	r3, r0, #-268435451	; 0xf0000005
     4fc:	53432f32 	movtpl	r2, #16178	; 0x3f32
     500:	4c303432 	cfldrsmi	mvf3, [r0], #-200	; 0xffffff38
     504:	70732d58 	rsbsvc	r2, r3, r8, asr sp
     508:	2f323272 	svccs	0x00323272
     50c:	7062696c 	rsbvc	r6, r2, ip, ror #18
     510:	6e692f69 	cdpvs	15, 6, cr2, cr9, cr9, {3}
     514:	64756c63 	ldrbtvs	r6, [r5], #-3171	; 0xfffff39d
     518:	70000065 	andvc	r0, r0, r5, rrx
     51c:	746e6972 	strbtvc	r6, [lr], #-2418	; 0xfffff68e
     520:	00632e6b 	rsbeq	r2, r3, fp, ror #28
     524:	73000001 	movwvc	r0, #1
     528:	72616474 	rsbvc	r6, r1, #116, 8	; 0x74000000
     52c:	00682e67 	rsbeq	r2, r8, r7, ror #28
     530:	72000002 	andvc	r0, r0, #2, 0
     534:	682e6970 	stmdavs	lr!, {r4, r5, r6, r8, fp, sp, lr}
     538:	00000300 	andeq	r0, r0, r0, lsl #6
     53c:	6975623c 	ldmdbvs	r5!, {r2, r3, r4, r5, r9, sp, lr}^
     540:	692d746c 	pushvs	{r2, r3, r5, r6, sl, ip, sp, lr}
     544:	00003e6e 	andeq	r3, r0, lr, ror #28
     548:	61760000 	cmnvs	r6, r0
     54c:	6972702d 	ldmdbvs	r2!, {r0, r2, r3, r5, ip, sp, lr}^
     550:	2e6b746e 	cdpcs	4, 6, cr7, cr11, cr14, {3}
     554:	00010068 	andeq	r0, r1, r8, rrx
     558:	22050000 	andcs	r0, r5, #0, 0
     55c:	e4020500 	str	r0, [r2], #-1280	; 0xfffffb00
     560:	17000082 	strne	r0, [r0, -r2, lsl #1]
     564:	05050106 	streq	r0, [r5, #-262]	; 0xfffffefa
     568:	14136806 	ldrne	r6, [r3], #-2054	; 0xfffff7fa
     56c:	054b0905 	strbeq	r0, [fp, #-2309]	; 0xfffff6fb
     570:	05010612 	streq	r0, [r1, #-1554]	; 0xfffff9ee
     574:	16bb0605 	ldrtne	r0, [fp], r5, lsl #12
     578:	34066606 	strcc	r6, [r6], #-1542	; 0xfffff9fa
     57c:	13060105 	movwne	r0, #24837	; 0x6105
     580:	00080266 	andeq	r0, r8, r6, ror #4
     584:	00cb0101 	sbceq	r0, fp, r1, lsl #2
     588:	00030000 	andeq	r0, r3, r0
     58c:	0000007d 	andeq	r0, r0, sp, ror r0
     590:	0efb0102 	cdpeq	1, 15, cr0, cr11, cr2, {0}
     594:	0101000d 	tsteq	r1, sp
     598:	00000101 	andeq	r0, r0, r1, lsl #2
     59c:	00000100 	andeq	r0, r0, r0, lsl #2
     5a0:	6c2f2e01 	stcvs	14, cr2, [pc], #-4	; 5a4 <__code_start__-0x7a5c>
     5a4:	00636269 	rsbeq	r6, r3, r9, ror #4
     5a8:	6573552f 	ldrbvs	r5, [r3, #-1327]!	; 0xfffffad1
     5ac:	742f7372 	strtvc	r7, [pc], #-882	; 5b4 <__code_start__-0x7a4c>
     5b0:	74736972 	ldrbtvc	r6, [r3], #-2418	; 0xfffff68e
     5b4:	6f6e6e65 	svcvs	0x006e6e65
     5b8:	616d6c6c 	cmnvs	sp, ip, ror #24
     5bc:	6f442f6e 	svcvs	0x00442f6e
     5c0:	656d7563 	strbvs	r7, [sp, #-1379]!	; 0xfffffa9d
     5c4:	2f73746e 	svccs	0x0073746e
     5c8:	69727053 	ldmdbvs	r2!, {r0, r1, r4, r6, ip, sp, lr}^
     5cc:	515f676e 	cmppl	pc, lr, ror #14
     5d0:	74726175 	ldrbtvc	r6, [r2], #-373	; 0xfffffe8b
     5d4:	325f7265 	subscc	r7, pc, #1342177286	; 0x50000006
     5d8:	2f323230 	svccs	0x00323230
     5dc:	34325343 	ldrtcc	r5, [r2], #-835	; 0xfffffcbd
     5e0:	2d584c30 	ldclcs	12, cr4, [r8, #-192]	; 0xffffff40
     5e4:	32727073 	rsbscc	r7, r2, #115, 0	; 0x73
     5e8:	696c2f32 	stmdbvs	ip!, {r1, r4, r5, r8, r9, sl, fp, sp}^
     5ec:	2f697062 	svccs	0x00697062
     5f0:	6c636e69 	stclvs	14, cr6, [r3], #-420	; 0xfffffe5c
     5f4:	00656475 	rsbeq	r6, r5, r5, ror r4
     5f8:	74757000 	ldrbtvc	r7, [r5], #-0
     5fc:	00632e6b 	rsbeq	r2, r3, fp, ror #28
     600:	72000001 	andvc	r0, r0, #1, 0
     604:	682e6970 	stmdavs	lr!, {r4, r5, r6, r8, fp, sp, lr}
     608:	00000200 	andeq	r0, r0, r0, lsl #4
     60c:	00220500 	eoreq	r0, r2, r0, lsl #10
     610:	833c0205 	teqhi	ip, #1342177280	; 0x50000000
     614:	06150000 	ldreq	r0, [r5], -r0
     618:	06050501 	streq	r0, [r5], -r1, lsl #10
     61c:	000b054b 	andeq	r0, fp, fp, asr #10
     620:	01010402 	tsteq	r1, r2, lsl #8
     624:	02000505 	andeq	r0, r0, #20971520	; 0x1400000
     628:	2e060104 	adfcss	f0, f6, f4
     62c:	02000905 	andeq	r0, r0, #81920	; 0x14000
     630:	4b060204 	blmi	180e48 <__bss_end__+0x1771e8>
     634:	02000f05 	andeq	r0, r0, #5, 30
     638:	05650204 	strbeq	r0, [r5, #-516]!	; 0xfffffdfc
     63c:	04020010 	streq	r0, [r2], #-16
     640:	00010602 	andeq	r0, r1, r2, lsl #12
     644:	2e020402 	cdpcs	4, 0, cr0, cr2, cr2, {0}
     648:	32060505 	andcc	r0, r6, #20971520	; 0x1400000
     64c:	13060105 	movwne	r0, #24837	; 0x6105
     650:	01000602 	tsteq	r0, r2, lsl #12
     654:	00061d01 	andeq	r1, r6, r1, lsl #26
     658:	17000300 	strne	r0, [r0, -r0, lsl #6]
     65c:	02000001 	andeq	r0, r0, #1, 0
     660:	0d0efb01 	vstreq	d15, [lr, #-4]
     664:	01010100 	mrseq	r0, (UNDEF: 17)
     668:	00000001 	andeq	r0, r0, r1
     66c:	01000001 	tsteq	r0, r1
     670:	696c2f2e 	stmdbvs	ip!, {r1, r2, r3, r5, r8, r9, sl, fp, sp}^
     674:	2f006362 	svccs	0x00006362
     678:	2f727375 	svccs	0x00727375
     67c:	61636f6c 	cmnvs	r3, ip, ror #30
     680:	65432f6c 	strbvs	r2, [r3, #-3948]	; 0xfffff094
     684:	72616c6c 	rsbvc	r6, r1, #108, 24	; 0x6c00
     688:	6d72612f 	ldfvse	f6, [r2, #-188]!	; 0xffffff44
     68c:	6e6f6e2d 	cdpvs	14, 6, cr6, cr15, cr13, {1}
     690:	61652d65 	cmnvs	r5, r5, ror #26
     694:	742d6962 	strtvc	r6, [sp], #-2402	; 0xfffff69e
     698:	2f747365 	svccs	0x00747365
     69c:	30322d39 	eorscc	r2, r2, r9, lsr sp
     6a0:	34713931 	ldrbtcc	r3, [r1], #-2353	; 0xfffff6cf
     6a4:	3173632d 	cmncc	r3, sp, lsr #6
     6a8:	2f653730 	svccs	0x00653730
     6ac:	2f62696c 	svccs	0x0062696c
     6b0:	2f636367 	svccs	0x00636367
     6b4:	2d6d7261 	sfmcs	f7, 2, [sp, #-388]!	; 0xfffffe7c
     6b8:	656e6f6e 	strbvs	r6, [lr, #-3950]!	; 0xfffff092
     6bc:	6261652d 	rsbvs	r6, r1, #188743680	; 0xb400000
     6c0:	2e392f69 	cdpcs	15, 3, cr2, cr9, cr9, {3}
     6c4:	2f312e32 	svccs	0x00312e32
     6c8:	6c636e69 	stclvs	14, cr6, [r3], #-420	; 0xfffffe5c
     6cc:	00656475 	rsbeq	r6, r5, r5, ror r4
     6d0:	6573552f 	ldrbvs	r5, [r3, #-1327]!	; 0xfffffad1
     6d4:	742f7372 	strtvc	r7, [pc], #-882	; 6dc <__code_start__-0x7924>
     6d8:	74736972 	ldrbtvc	r6, [r3], #-2418	; 0xfffff68e
     6dc:	6f6e6e65 	svcvs	0x006e6e65
     6e0:	616d6c6c 	cmnvs	sp, ip, ror #24
     6e4:	6f442f6e 	svcvs	0x00442f6e
     6e8:	656d7563 	strbvs	r7, [sp, #-1379]!	; 0xfffffa9d
     6ec:	2f73746e 	svccs	0x0073746e
     6f0:	69727053 	ldmdbvs	r2!, {r0, r1, r4, r6, ip, sp, lr}^
     6f4:	515f676e 	cmppl	pc, lr, ror #14
     6f8:	74726175 	ldrbtvc	r6, [r2], #-373	; 0xfffffe8b
     6fc:	325f7265 	subscc	r7, pc, #1342177286	; 0x50000006
     700:	2f323230 	svccs	0x00323230
     704:	34325343 	ldrtcc	r5, [r2], #-835	; 0xfffffcbd
     708:	2d584c30 	ldclcs	12, cr4, [r8, #-192]	; 0xffffff40
     70c:	32727073 	rsbscc	r7, r2, #115, 0	; 0x73
     710:	696c2f32 	stmdbvs	ip!, {r1, r4, r5, r8, r9, sl, fp, sp}^
     714:	2f697062 	svccs	0x00697062
     718:	6c636e69 	stclvs	14, cr6, [r3], #-420	; 0xfffffe5c
     71c:	00656475 	rsbeq	r6, r5, r5, ror r4
     720:	2d617600 	stclcs	6, cr7, [r1, #-0]
     724:	6e697270 	mcrvs	2, 3, r7, cr9, cr0, {3}
     728:	632e6b74 			; <UNDEFINED> instruction: 0x632e6b74
     72c:	00000100 	andeq	r0, r0, r0, lsl #2
     730:	69647473 	stmdbvs	r4!, {r0, r1, r4, r5, r6, sl, ip, sp, lr}^
     734:	672d746e 	strvs	r7, [sp, -lr, ror #8]!
     738:	682e6363 	stmdavs	lr!, {r0, r1, r5, r6, r8, r9, sp, lr}
     73c:	00000200 	andeq	r0, r0, r0, lsl #4
     740:	2e697072 	mcrcs	0, 3, r7, cr9, cr2, {3}
     744:	00030068 	andeq	r0, r3, r8, rrx
     748:	69707200 	ldmdbvs	r0!, {r9, ip, sp, lr}^
     74c:	746e692d 	strbtvc	r6, [lr], #-2349	; 0xfffff6d3
     750:	616e7265 	cmnvs	lr, r5, ror #4
     754:	00682e6c 	rsbeq	r2, r8, ip, ror #28
     758:	73000003 	movwvc	r0, #3
     75c:	72616474 	rsbvc	r6, r1, #116, 8	; 0x74000000
     760:	00682e67 	rsbeq	r2, r8, r7, ror #28
     764:	3c000002 	stccc	0, cr0, [r0], {2}
     768:	6c697562 	cfstr64vs	mvdx7, [r9], #-392	; 0xfffffe78
     76c:	6e692d74 	mcrvs	13, 3, r2, cr9, cr4, {3}
     770:	0000003e 	andeq	r0, r0, lr, lsr r0
     774:	1b050000 	blne	14077c <__bss_end__+0x136b1c>
     778:	70020500 	andvc	r0, r2, r0, lsl #10
     77c:	03000083 	movweq	r0, #131	; 0x83
     780:	1d050126 	stfnes	f0, [r5, #-152]	; 0xffffff68
     784:	062d0501 	strteq	r0, [sp], -r1, lsl #10
     788:	2e010501 	cfsh32cs	mvfx0, mvfx1, #1
     78c:	0633054a 	ldrteq	r0, [r3], -sl, asr #10
     790:	13020551 	movwne	r0, #9553	; 0x2551
     794:	01060605 	tsteq	r6, r5, lsl #12
     798:	30060205 	andcc	r0, r6, r5, lsl #4
     79c:	02000805 	andeq	r0, r0, #327680	; 0x50000
     7a0:	05010104 	streq	r0, [r1, #-260]	; 0xfffffefc
     7a4:	04020002 	streq	r0, [r2], #-2
     7a8:	05010601 	streq	r0, [r1, #-1537]	; 0xfffff9ff
     7ac:	04020003 	streq	r0, [r2], #-3
     7b0:	052f0602 	streq	r0, [pc, #-1538]!	; 1b6 <__code_start__-0x7e4a>
     7b4:	04020008 	streq	r0, [r2], #-8
     7b8:	05010602 	streq	r0, [r1, #-1538]	; 0xfffff9fe
     7bc:	04020015 	streq	r0, [r2], #-21	; 0xffffffeb
     7c0:	05490602 	strbeq	r0, [r9, #-1538]	; 0xfffff9fe
     7c4:	04020018 	streq	r0, [r2], #-24	; 0xffffffe8
     7c8:	00010602 	andeq	r0, r1, r2, lsl #12
     7cc:	2e020402 	cdpcs	4, 0, cr0, cr2, cr2, {0}
     7d0:	30060205 	andcc	r0, r6, r5, lsl #4
     7d4:	01060505 	tsteq	r6, r5, lsl #10
     7d8:	4b060205 	blmi	180ff4 <__bss_end__+0x177394>
     7dc:	13060105 	movwne	r0, #24837	; 0x6105
     7e0:	31063e05 	tstcc	r6, r5, lsl #28
     7e4:	05140205 	ldreq	r0, [r4, #-517]	; 0xfffffdfb
     7e8:	0501060e 	streq	r0, [r1, #-1550]	; 0xfffff9f2
     7ec:	02052e06 	andeq	r2, r5, #96	; 0x60
     7f0:	04052f06 	streq	r2, [r5], #-3846	; 0xfffff0fa
     7f4:	03050106 	movweq	r0, #20742	; 0x5106
     7f8:	11052f06 	tstne	r5, r6, lsl #30
     7fc:	09050106 	stmdbeq	r5, {r1, r2, r8}
     800:	0602052e 	streq	r0, [r2], -lr, lsr #10
     804:	07051530 	smladxeq	r5, r0, r5, r1
     808:	02050106 	andeq	r0, r5, #-2147483647	; 0x80000001
     80c:	000b052e 	andeq	r0, fp, lr, lsr #10
     810:	06010402 	streq	r0, [r1], -r2, lsl #8
     814:	0002052e 	andeq	r0, r2, lr, lsr #10
     818:	06010402 	streq	r0, [r1], -r2, lsl #8
     81c:	00030501 	andeq	r0, r3, r1, lsl #10
     820:	06030402 	streq	r0, [r3], -r2, lsl #8
     824:	000c052f 	andeq	r0, ip, pc, lsr #10
     828:	06030402 	streq	r0, [r3], -r2, lsl #8
     82c:	000a0501 	andeq	r0, sl, r1, lsl #10
     830:	2e030402 	cdpcs	4, 0, cr0, cr3, cr2, {0}
     834:	02001705 	andeq	r1, r0, #1310720	; 0x140000
     838:	2d060304 	stccs	3, cr0, [r6, #-16]
     83c:	03040200 	movweq	r0, #16896	; 0x4200
     840:	02050106 	andeq	r0, r5, #-2147483647	; 0x80000001
     844:	09053006 	stmdbeq	r5, {r1, r2, ip, sp}
     848:	052e0106 	streq	r0, [lr, #-262]!	; 0xfffffefa
     84c:	05300602 	ldreq	r0, [r0, #-1538]!	; 0xfffff9fe
     850:	05130601 	ldreq	r0, [r3, #-1537]	; 0xfffff9ff
     854:	06310649 	ldrteq	r0, [r1], -r9, asr #12
     858:	06020501 	streq	r0, [r2], -r1, lsl #10
     85c:	060405a0 	streq	r0, [r4], -r0, lsr #11
     860:	06030501 	streq	r0, [r3], -r1, lsl #10
     864:	0609052f 	streq	r0, [r9], -pc, lsr #10
     868:	06020501 	streq	r0, [r2], -r1, lsl #10
     86c:	0b051330 	bleq	145534 <__bss_end__+0x13b8d4>
     870:	02050106 	andeq	r0, r5, #-2147483647	; 0x80000001
     874:	2e063006 	cdpcs	0, 0, cr3, cr6, cr6, {0}
     878:	02060405 	andeq	r0, r6, #83886080	; 0x5000000
     87c:	05131524 	ldreq	r1, [r3, #-1316]	; 0xfffffadc
     880:	2e01060f 	cfmadd32cs	mvax0, mvfx0, mvfx1, mvfx15
     884:	054a0605 	strbeq	r0, [sl, #-1541]	; 0xfffff9fb
     888:	134b0605 	movtne	r0, #46597	; 0xb605
     88c:	01060905 	tsteq	r6, r5, lsl #18
     890:	2f060505 	svccs	0x00060505
     894:	10060b05 	andne	r0, r6, r5, lsl #22
     898:	02000d05 	andeq	r0, r0, #320	; 0x140
     89c:	052c0104 	streq	r0, [ip, #-260]!	; 0xfffffefc
     8a0:	04020004 	streq	r0, [r2], #-4
     8a4:	05340601 	ldreq	r0, [r4, #-1537]!	; 0xfffff9ff
     8a8:	04020005 	streq	r0, [r2], #-5
     8ac:	1b051301 	blne	1454b8 <__bss_end__+0x13b858>
     8b0:	01040200 	mrseq	r0, R12_usr
     8b4:	07050106 	streq	r0, [r5, -r6, lsl #2]
     8b8:	01040200 	mrseq	r0, R12_usr
     8bc:	001805d6 			; <UNDEFINED> instruction: 0x001805d6
     8c0:	2e010402 	cdpcs	4, 0, cr0, cr1, cr2, {0}
     8c4:	02000a05 	andeq	r0, r0, #20480	; 0x5000
     8c8:	054a0104 	strbeq	r0, [sl, #-260]	; 0xfffffefc
     8cc:	0402000b 	streq	r0, [r2], #-11
     8d0:	052f0601 	streq	r0, [pc, #-1537]!	; 2d7 <__code_start__-0x7d29>
     8d4:	0402000e 	streq	r0, [r2], #-14
     8d8:	052e0601 	streq	r0, [lr, #-1537]!	; 0xfffff9ff
     8dc:	04020004 	streq	r0, [r2], #-4
     8e0:	4b062e01 	blmi	18c0ec <__bss_end__+0x18248c>
     8e4:	01060605 	tsteq	r6, r5, lsl #12
     8e8:	2f060505 	svccs	0x00060505
     8ec:	01060a05 	tsteq	r6, r5, lsl #20
     8f0:	2e4a0705 	cdpcs	7, 4, cr0, cr10, cr5, {0}
     8f4:	76030d05 	strvc	r0, [r3], -r5, lsl #26
     8f8:	0b054a2e 	bleq	1531b8 <__bss_end__+0x149558>
     8fc:	000d050d 	andeq	r0, sp, sp, lsl #10
     900:	06010402 	streq	r0, [r1], -r2, lsl #8
     904:	052e1403 	streq	r1, [lr, #-1027]!	; 0xfffffbfd
     908:	04020011 	streq	r0, [r2], #-17	; 0xffffffef
     90c:	2d051301 	stccs	3, cr1, [r5, #-4]
     910:	01040200 	mrseq	r0, R12_usr
     914:	2a050106 	bcs	140d34 <__bss_end__+0x1370d4>
     918:	01040200 	mrseq	r0, R12_usr
     91c:	0016052e 	andseq	r0, r6, lr, lsr #10
     920:	4a010402 	bmi	41930 <__bss_end__+0x37cd0>
     924:	02001405 	andeq	r1, r0, #83886080	; 0x5000000
     928:	4b060104 	blmi	180d40 <__bss_end__+0x1770e0>
     92c:	02000d05 	andeq	r0, r0, #320	; 0x140
     930:	01060104 	tsteq	r6, r4, lsl #2
     934:	01040200 	mrseq	r0, R12_usr
     938:	052f064a 	streq	r0, [pc, #-1610]!	; 2f6 <__code_start__-0x7d0a>
     93c:	4a010612 	bmi	4218c <__bss_end__+0x3852c>
     940:	2f060d05 	svccs	0x00060d05
     944:	01061205 	tsteq	r6, r5, lsl #4
     948:	4b061905 	blmi	186d64 <__bss_end__+0x17d104>
     94c:	02000405 	andeq	r0, r0, #83886080	; 0x5000000
     950:	11030204 	tstne	r3, r4, lsl #4
     954:	04020001 	streq	r0, [r2], #-1
     958:	02050102 	andeq	r0, r5, #-2147483648	; 0x80000000
     95c:	02040200 	andeq	r0, r4, #0, 4
     960:	00090515 	andeq	r0, r9, r5, lsl r5
     964:	06020402 	streq	r0, [r2], -r2, lsl #8
     968:	04020001 	streq	r0, [r2], #-1
     96c:	01054a02 	tsteq	r5, r2, lsl #20
     970:	02040200 	andeq	r0, r4, #0, 4
     974:	0604059f 			; <UNDEFINED> instruction: 0x0604059f
     978:	054a6e03 	strbeq	r6, [sl, #-3587]	; 0xfffff1fd
     97c:	05010609 	streq	r0, [r1, #-1545]	; 0xfffff9f7
     980:	052f0604 	streq	r0, [pc, #-1540]!	; 384 <__code_start__-0x7c7c>
     984:	05110606 	ldreq	r0, [r1, #-1542]	; 0xfffff9fa
     988:	0b052f04 	bleq	14c5a0 <__bss_end__+0x142940>
     98c:	052e6303 	streq	r6, [lr, #-771]!	; 0xfffffcfd
     990:	04020019 	streq	r0, [r2], #-25	; 0xffffffe7
     994:	24030601 	strcs	r0, [r3], #-1537	; 0xfffff9ff
     998:	001a052e 	andseq	r0, sl, lr, lsr #10
     99c:	13010402 	movwne	r0, #5122	; 0x1402
     9a0:	02002805 	andeq	r2, r0, #327680	; 0x50000
     9a4:	01060104 	tsteq	r6, r4, lsl #2
     9a8:	02002505 	andeq	r2, r0, #20971520	; 0x1400000
     9ac:	052e0104 	streq	r0, [lr, #-260]!	; 0xfffffefc
     9b0:	0402001f 	streq	r0, [r2], #-31	; 0xffffffe1
     9b4:	0b054a01 	bleq	1531c0 <__bss_end__+0x149560>
     9b8:	01040200 	mrseq	r0, R12_usr
     9bc:	04054b06 	streq	r4, [r5], #-2822	; 0xfffff4fa
     9c0:	01040200 	mrseq	r0, R12_usr
     9c4:	02000106 	andeq	r0, r0, #-2147483647	; 0x80000001
     9c8:	004a0104 	subeq	r0, sl, r4, lsl #2
     9cc:	06010402 	streq	r0, [r1], -r2, lsl #8
     9d0:	0402004e 	streq	r0, [r2], #-78	; 0xffffffb2
     9d4:	02000101 	andeq	r0, r0, #1073741824	; 0x40000000
     9d8:	00010104 	andeq	r0, r1, r4, lsl #2
     9dc:	01010402 	tsteq	r1, r2, lsl #8
     9e0:	01040200 	mrseq	r0, R12_usr
     9e4:	02002e06 	andeq	r2, r0, #96	; 0x60
     9e8:	00660104 	rsbeq	r0, r6, r4, lsl #2
     9ec:	2e010402 	cdpcs	4, 0, cr0, cr1, cr2, {0}
     9f0:	01040200 	mrseq	r0, R12_usr
     9f4:	48054a06 	stmdami	r5, {r1, r2, r9, fp, lr}
     9f8:	087fa603 	ldmdaeq	pc!, {r0, r1, r9, sl, sp, pc}^	; <UNPREDICTABLE>
     9fc:	13050520 	movwne	r0, #21792	; 0x5520
     a00:	002e0601 	eoreq	r0, lr, r1, lsl #12
     a04:	06020402 	streq	r0, [r2], -r2, lsl #8
     a08:	0402002e 	streq	r0, [r2], #-46	; 0xffffffd2
     a0c:	02000102 	andeq	r0, r0, #-2147483648	; 0x80000000
     a10:	05130204 	ldreq	r0, [r3, #-516]	; 0xfffffdfc
     a14:	04020011 	streq	r0, [r2], #-17	; 0xffffffef
     a18:	05010602 	streq	r0, [r1, #-1538]	; 0xfffff9fe
     a1c:	04020005 	streq	r0, [r2], #-5
     a20:	054b0602 	strbeq	r0, [fp, #-1538]	; 0xfffff9fe
     a24:	04020007 	streq	r0, [r2], #-7
     a28:	05010602 	streq	r0, [r1, #-1538]	; 0xfffff9fe
     a2c:	054b0609 	strbeq	r0, [fp, #-1545]	; 0xfffff9f7
     a30:	0501060e 	streq	r0, [r1, #-1550]	; 0xfffff9f2
     a34:	04020048 	streq	r0, [r2], #-72	; 0xffffffb8
     a38:	05056201 	streq	r6, [r5, #-513]	; 0xfffffdff
     a3c:	01040200 	mrseq	r0, R12_usr
     a40:	02004b06 	andeq	r4, r0, #6144	; 0x1800
     a44:	00010104 	andeq	r0, r1, r4, lsl #2
     a48:	06010402 	streq	r0, [r1], -r2, lsl #8
     a4c:	0402009e 	streq	r0, [r2], #-158	; 0xffffff62
     a50:	02002e01 	andeq	r2, r0, #1, 28
     a54:	2e060104 	adfcss	f0, f6, f4
     a58:	e1034005 	tst	r3, r5
     a5c:	0106d600 	tsteq	r6, r0, lsl #12
     a60:	9f060205 	svcls	0x00060205
     a64:	01061e05 	tsteq	r6, r5, lsl #28
     a68:	052e1205 	streq	r1, [lr, #-517]!	; 0xfffffdfb
     a6c:	052f0605 	streq	r0, [pc, #-1541]!	; 46f <__code_start__-0x7b91>
     a70:	09051402 	stmdbeq	r5, {r1, sl, ip}
     a74:	05050106 	streq	r0, [r5, #-262]	; 0xfffffefa
     a78:	02054b06 	andeq	r4, r5, #6144	; 0x1800
     a7c:	06080513 			; <UNDEFINED> instruction: 0x06080513
     a80:	3302050d 	movwcc	r0, #9485	; 0x250d
     a84:	4c060405 	cfstrsmi	mvf0, [r6], {5}
     a88:	01060f05 	tsteq	r6, r5, lsl #30
     a8c:	052e0905 	streq	r0, [lr, #-2309]!	; 0xfffff6fb
     a90:	052c0608 	streq	r0, [ip, #-1544]!	; 0xfffff9f8
     a94:	052e0602 	streq	r0, [lr, #-1538]!	; 0xfffff9fe
     a98:	0402000d 	streq	r0, [r2], #-13
     a9c:	03054a01 	movweq	r4, #23041	; 0x5a01
     aa0:	05054b06 	streq	r4, [r5, #-2822]	; 0xfffff4fa
     aa4:	08050106 	stmdaeq	r5, {r1, r2, r8}
     aa8:	0e054d06 	cdpeq	13, 0, cr4, cr5, cr6, {0}
     aac:	0a050106 	beq	140ecc <__bss_end__+0x13726c>
     ab0:	0604052e 	streq	r0, [r4], -lr, lsr #10
     ab4:	0609052f 	streq	r0, [r9], -pc, lsr #10
     ab8:	06040501 	streq	r0, [r4], -r1, lsl #10
     abc:	0607052f 	streq	r0, [r7], -pc, lsr #10
     ac0:	04052e01 	streq	r2, [r5], #-3585	; 0xfffff1ff
     ac4:	07053006 	streq	r3, [r5, -r6]
     ac8:	04050106 	streq	r0, [r5], #-262	; 0xfffffefa
     acc:	14133006 	ldrne	r3, [r3], #-6
     ad0:	10060d05 	andne	r0, r6, r5, lsl #26
     ad4:	30060905 	andcc	r0, r6, r5, lsl #18
     ad8:	01061205 	tsteq	r6, r5, lsl #4
     adc:	052e0a05 	streq	r0, [lr, #-2565]!	; 0xfffff5fb
     ae0:	05056609 	streq	r6, [r5, #-1545]	; 0xfffff9f7
     ae4:	12054b06 	andne	r4, r5, #6144	; 0x1800
     ae8:	16050106 	strne	r0, [r5], -r6, lsl #2
     aec:	2e0b052e 	cfsh32cs	mvfx0, mvfx11, #30
     af0:	2f060505 	svccs	0x00060505
     af4:	01060805 	tsteq	r6, r5, lsl #16
     af8:	0604052e 	streq	r0, [r4], -lr, lsr #10
     afc:	014a0130 	cmpeq	sl, r0, lsr r1
     b00:	04020015 	streq	r0, [r2], #-21	; 0xffffffeb
     b04:	0f360201 	svceq	0x00360201
     b08:	01040200 	mrseq	r0, R12_usr
     b0c:	04020001 	streq	r0, [r2], #-1
     b10:	1105d601 	tstne	r5, r1, lsl #12
     b14:	00011334 	andeq	r1, r1, r4, lsr r3
     b18:	06020402 	streq	r0, [r2], -r2, lsl #8
     b1c:	040200ba 	streq	r0, [r2], #-186	; 0xffffff46
     b20:	00ba0603 	adcseq	r0, sl, r3, lsl #12
     b24:	01030402 	tsteq	r3, r2, lsl #8
     b28:	03040200 	movweq	r0, #16896	; 0x4200
     b2c:	00150514 	andseq	r0, r5, r4, lsl r5
     b30:	06030402 	streq	r0, [r3], -r2, lsl #8
     b34:	00110501 	andseq	r0, r1, r1, lsl #10
     b38:	06030402 	streq	r0, [r3], -r2, lsl #8
     b3c:	001a052f 	andseq	r0, sl, pc, lsr #10
     b40:	06030402 	streq	r0, [r3], -r2, lsl #8
     b44:	00110501 	andseq	r0, r1, r1, lsl #10
     b48:	06030402 	streq	r0, [r3], -r2, lsl #8
     b4c:	040200d7 	streq	r0, [r2], #-215	; 0xffffff29
     b50:	02001303 	andeq	r1, r0, #201326592	; 0xc000000
     b54:	00140304 	andseq	r0, r4, r4, lsl #6
     b58:	67030402 	strvs	r0, [r3, -r2, lsl #8]
     b5c:	03040200 	movweq	r0, #16896	; 0x4200
     b60:	00140568 	andseq	r0, r4, r8, ror #10
     b64:	06030402 	streq	r0, [r3], -r2, lsl #8
     b68:	00130501 	andseq	r0, r3, r1, lsl #10
     b6c:	82030402 	andhi	r0, r3, #33554432	; 0x2000000
     b70:	4e061805 	cdpmi	8, 0, cr1, cr6, cr5, {0}
     b74:	01061b05 	tsteq	r6, r5, lsl #22
     b78:	05821a05 	streq	r1, [r2, #2565]	; 0xa05
     b7c:	054b0609 	strbeq	r0, [fp, #-1545]	; 0xfffff9f7
     b80:	2e01060d 	cfmadd32cs	mvax0, mvfx0, mvfx1, mvfx13
     b84:	f3060905 	vmls.i8	d0, d6, d5
     b88:	1505ba06 	strne	fp, [r5, #-2566]	; 0xfffff5fa
     b8c:	18053006 	stmdane	r5, {r1, r2, ip, sp}
     b90:	17050106 	strne	r0, [r5, -r6, lsl #2]
     b94:	06190566 	ldreq	r0, [r9], -r6, ror #10
     b98:	0615054b 	ldreq	r0, [r5], -fp, asr #10
     b9c:	05666f03 	strbeq	r6, [r6, #-3843]!	; 0xfffff0fd
     ba0:	01480611 	cmpeq	r8, r1, lsl r6
     ba4:	030905d6 	movweq	r0, #38358	; 0x95d6
     ba8:	0d052e0b 	stceq	14, cr2, [r5, #-44]	; 0xffffffd4
     bac:	052e0106 	streq	r0, [lr, #-262]!	; 0xfffffefa
     bb0:	06f30609 	ldrbteq	r0, [r3], r9, lsl #12
     bb4:	061505ba 			; <UNDEFINED> instruction: 0x061505ba
     bb8:	7503062f 	strvc	r0, [r3, #-1583]	; 0xfffff9d1
     bbc:	06190566 	ldreq	r0, [r9], -r6, ror #10
     bc0:	054a1303 	strbeq	r1, [sl, #-771]	; 0xfffffcfd
     bc4:	6d030615 	stcvs	6, cr0, [r3, #-84]	; 0xffffffac
     bc8:	15030666 	strne	r0, [r3, #-1638]	; 0xfffff99a
     bcc:	06ba014a 	ldrteq	r0, [sl], sl, asr #2
     bd0:	0605052e 	streq	r0, [r5], -lr, lsr #10
     bd4:	2e9e011a 	mrccs	1, 4, r0, cr14, cr10, {0}
     bd8:	05010e03 	streq	r0, [r1, #-3587]	; 0xfffff1fd
     bdc:	05010609 	streq	r0, [r1, #-1545]	; 0xfffff9f7
     be0:	75080605 	strvc	r0, [r8, #-1541]	; 0xfffff9fb
     be4:	18030405 	stmdane	r3, {r0, r2, sl}
     be8:	06070501 	streq	r0, [r7], -r1, lsl #10
     bec:	06040501 	streq	r0, [r4], -r1, lsl #10
     bf0:	03050531 	movweq	r0, #21809	; 0x5531
     bf4:	1c052e67 	stcne	14, cr2, [r5], {103}	; 0x67
     bf8:	09050106 	stmdbeq	r5, {r1, r2, r8}
     bfc:	06050582 	streq	r0, [r5], -r2, lsl #11
     c00:	1c0531f3 	stfnes	f3, [r5], {243}	; 0xf3
     c04:	09050106 	stmdbeq	r5, {r1, r2, r8}
     c08:	06050582 	streq	r0, [r5], -r2, lsl #11
     c0c:	1b0530f3 	blne	14cfe0 <__bss_end__+0x143380>
     c10:	09050106 	stmdbeq	r5, {r1, r2, r8}
     c14:	06050582 	streq	r0, [r5], -r2, lsl #11
     c18:	070530f3 			; <UNDEFINED> instruction: 0x070530f3
     c1c:	05050106 	streq	r0, [r5, #-262]	; 0xfffffefa
     c20:	05308306 	ldreq	r8, [r0, #-774]!	; 0xfffffcfa
     c24:	05010609 	streq	r0, [r1, #-1545]	; 0xfffff9f7
     c28:	75080605 	strvc	r0, [r8, #-1541]	; 0xfffff9fb
     c2c:	05301105 	ldreq	r1, [r0, #-261]!	; 0xfffffefb
     c30:	05010622 	streq	r0, [r1, #-1570]	; 0xfffff9de
     c34:	054b0605 	strbeq	r0, [fp, #-1541]	; 0xfffff9fb
     c38:	05058311 	streq	r8, [r5, #-785]	; 0xfffffcef
     c3c:	359e0183 	ldrcc	r0, [lr, #387]	; 0x183
     c40:	01060e05 	tsteq	r6, r5, lsl #28
     c44:	062e0a05 	strteq	r0, [lr], -r5, lsl #20
     c48:	0604052d 	streq	r0, [r4], -sp, lsr #10
     c4c:	00130501 	andseq	r0, r3, r1, lsl #10
     c50:	4a010402 	bmi	41c60 <__bss_end__+0x38000>
     c54:	02001005 	andeq	r1, r0, #5, 0
     c58:	002e0104 	eoreq	r0, lr, r4, lsl #2
     c5c:	66010402 	strvs	r0, [r1], -r2, lsl #8
     c60:	16060205 	strne	r0, [r6], -r5, lsl #4
     c64:	01060705 	tsteq	r6, r5, lsl #14
     c68:	4b060205 	blmi	181484 <__bss_end__+0x177824>
     c6c:	13060105 	movwne	r0, #24837	; 0x6105
     c70:	001e0266 	andseq	r0, lr, r6, ror #4
     c74:	00a50101 	adceq	r0, r5, r1, lsl #2
     c78:	00030000 	andeq	r0, r3, r0
     c7c:	0000008a 	andeq	r0, r0, sl, lsl #1
     c80:	0efb0102 	cdpeq	1, 15, cr0, cr11, cr2, {0}
     c84:	0101000d 	tsteq	r1, sp
     c88:	00000101 	andeq	r0, r0, r1, lsl #2
     c8c:	00000100 	andeq	r0, r0, r0, lsl #2
     c90:	732f2e01 			; <UNDEFINED> instruction: 0x732f2e01
     c94:	66666174 			; <UNDEFINED> instruction: 0x66666174
     c98:	6372732d 	cmnvs	r2, #-1275068416	; 0xb4000000
     c9c:	73552f00 	cmpvc	r5, #0, 30
     ca0:	2f737265 	svccs	0x00737265
     ca4:	73697274 	cmnvc	r9, #116, 4	; 0x40000007
     ca8:	6e6e6574 	mcrvs	5, 3, r6, cr14, cr4, {3}
     cac:	6d6c6c6f 	stclvs	12, cr6, [ip, #-444]!	; 0xfffffe44
     cb0:	442f6e61 	strtmi	r6, [pc], #-3681	; cb8 <__code_start__-0x7348>
     cb4:	6d75636f 	ldclvs	3, cr6, [r5, #-444]!	; 0xfffffe44
     cb8:	73746e65 	cmnvc	r4, #1616	; 0x650
     cbc:	7270532f 	rsbsvc	r5, r0, #-1140850688	; 0xbc000000
     cc0:	5f676e69 	svcpl	0x00676e69
     cc4:	72617551 	rsbvc	r7, r1, #339738624	; 0x14400000
     cc8:	5f726574 	svcpl	0x00726574
     ccc:	32323032 	eorscc	r3, r2, #50, 0	; 0x32
     cd0:	3253432f 	subscc	r4, r3, #-1140850688	; 0xbc000000
     cd4:	584c3034 	stmdapl	ip, {r2, r4, r5, ip, sp}^
     cd8:	7270732d 	rsbsvc	r7, r0, #-1275068416	; 0xb4000000
     cdc:	6c2f3232 	sfmvs	f3, 4, [pc], #-200	; c1c <__code_start__-0x73e4>
     ce0:	69706269 	ldmdbvs	r0!, {r0, r3, r5, r6, r9, sp, lr}^
     ce4:	636e692f 	cmnvs	lr, #770048	; 0xbc000
     ce8:	6564756c 	strbvs	r7, [r4, #-1388]!	; 0xfffffa94
     cec:	6c630000 	stclvs	0, cr0, [r3], #-0
     cf0:	2d6e6165 	stfcse	f6, [lr, #-404]!	; 0xfffffe6c
     cf4:	6f626572 	svcvs	0x00626572
     cf8:	632e746f 			; <UNDEFINED> instruction: 0x632e746f
     cfc:	00000100 	andeq	r0, r0, r0, lsl #2
     d00:	2e697072 	mcrcs	0, 3, r7, cr9, cr2, {3}
     d04:	00020068 	andeq	r0, r2, r8, rrx
     d08:	19050000 	stmdbne	r5, {}	; <UNPREDICTABLE>
     d0c:	b0020500 	andlt	r0, r2, r0, lsl #10
     d10:	1500008a 	strne	r0, [r0, #-138]	; 0xffffff76
     d14:	832f0505 			; <UNDEFINED> instruction: 0x832f0505
     d18:	06024b2f 	streq	r4, [r2], -pc, lsr #22
     d1c:	bf010100 	svclt	0x00010100
     d20:	03000000 	movweq	r0, #0
     d24:	00008400 	andeq	r8, r0, r0, lsl #8
     d28:	fb010200 	blx	41532 <__bss_end__+0x378d2>
     d2c:	01000d0e 	tsteq	r0, lr, lsl #26
     d30:	00010101 	andeq	r0, r1, r1, lsl #2
     d34:	00010000 	andeq	r0, r1, r0
     d38:	2f2e0100 	svccs	0x002e0100
     d3c:	66617473 			; <UNDEFINED> instruction: 0x66617473
     d40:	72732d66 	rsbsvc	r2, r3, #6528	; 0x1980
     d44:	552f0063 	strpl	r0, [pc, #-99]!	; ce9 <__code_start__-0x7317>
     d48:	73726573 	cmnvc	r2, #482344960	; 0x1cc00000
     d4c:	6972742f 	ldmdbvs	r2!, {r0, r1, r2, r3, r5, sl, ip, sp, lr}^
     d50:	6e657473 	mcrvs	4, 3, r7, cr5, cr3, {3}
     d54:	6c6c6f6e 	stclvs	15, cr6, [ip], #-440	; 0xfffffe48
     d58:	2f6e616d 	svccs	0x006e616d
     d5c:	75636f44 	strbvc	r6, [r3, #-3908]!	; 0xfffff0bc
     d60:	746e656d 	strbtvc	r6, [lr], #-1389	; 0xfffffa93
     d64:	70532f73 	subsvc	r2, r3, r3, ror pc
     d68:	676e6972 			; <UNDEFINED> instruction: 0x676e6972
     d6c:	6175515f 	cmnvs	r5, pc, asr r1
     d70:	72657472 	rsbvc	r7, r5, #1912602624	; 0x72000000
     d74:	3230325f 	eorscc	r3, r0, #-268435451	; 0xf0000005
     d78:	53432f32 	movtpl	r2, #16178	; 0x3f32
     d7c:	4c303432 	cfldrsmi	mvf3, [r0], #-200	; 0xffffff38
     d80:	70732d58 	rsbsvc	r2, r3, r8, asr sp
     d84:	2f323272 	svccs	0x00323272
     d88:	7062696c 	rsbvc	r6, r2, ip, ror #18
     d8c:	6e692f69 	cdpvs	15, 6, cr2, cr9, cr9, {3}
     d90:	64756c63 	ldrbtvs	r6, [r5], #-3171	; 0xfffff39d
     d94:	63000065 	movwvs	r0, #101	; 0x65
     d98:	72617473 	rsbvc	r7, r1, #1929379840	; 0x73000000
     d9c:	00632e74 	rsbeq	r2, r3, r4, ror lr
     da0:	72000001 	andvc	r0, r0, #1, 0
     da4:	682e6970 	stmdavs	lr!, {r4, r5, r6, r8, fp, sp, lr}
     da8:	00000200 	andeq	r0, r0, r0, lsl #4
     dac:	00100500 	andseq	r0, r0, r0, lsl #10
     db0:	8adc0205 	bhi	ff7015cc <__bss_end__+0xff6f796c>
     db4:	05150000 	ldreq	r0, [r5, #-0]
     db8:	02052f05 	andeq	r2, r5, #5, 30
     dbc:	14050513 	strne	r0, [r5], #-1299	; 0xfffffaed
     dc0:	05141330 	ldreq	r1, [r4, #-816]	; 0xfffffcd0
     dc4:	060f060a 	streq	r0, [pc], -sl, lsl #12
     dc8:	4b090531 	blmi	242294 <__bss_end__+0x238634>
     dcc:	01061005 	tsteq	r6, r5
     dd0:	0605054a 	streq	r0, [r5], -sl, asr #10
     dd4:	01013230 	tsteq	r1, r0, lsr r2
     dd8:	0205144a 	andeq	r1, r5, #1241513984	; 0x4a000000
     ddc:	0006022f 	andeq	r0, r6, pc, lsr #4
     de0:	00a30101 	adceq	r0, r3, r1, lsl #2
     de4:	00030000 	andeq	r0, r3, r0
     de8:	0000008b 	andeq	r0, r0, fp, lsl #1
     dec:	0efb0102 	cdpeq	1, 15, cr0, cr11, cr2, {0}
     df0:	0101000d 	tsteq	r1, sp
     df4:	00000101 	andeq	r0, r0, r1, lsl #2
     df8:	00000100 	andeq	r0, r0, r0, lsl #2
     dfc:	732f2e01 			; <UNDEFINED> instruction: 0x732f2e01
     e00:	66666174 			; <UNDEFINED> instruction: 0x66666174
     e04:	6372732d 	cmnvs	r2, #-1275068416	; 0xb4000000
     e08:	73552f00 	cmpvc	r5, #0, 30
     e0c:	2f737265 	svccs	0x00737265
     e10:	73697274 	cmnvc	r9, #116, 4	; 0x40000007
     e14:	6e6e6574 	mcrvs	5, 3, r6, cr14, cr4, {3}
     e18:	6d6c6c6f 	stclvs	12, cr6, [ip, #-444]!	; 0xfffffe44
     e1c:	442f6e61 	strtmi	r6, [pc], #-3681	; e24 <__code_start__-0x71dc>
     e20:	6d75636f 	ldclvs	3, cr6, [r5, #-444]!	; 0xfffffe44
     e24:	73746e65 	cmnvc	r4, #1616	; 0x650
     e28:	7270532f 	rsbsvc	r5, r0, #-1140850688	; 0xbc000000
     e2c:	5f676e69 	svcpl	0x00676e69
     e30:	72617551 	rsbvc	r7, r1, #339738624	; 0x14400000
     e34:	5f726574 	svcpl	0x00726574
     e38:	32323032 	eorscc	r3, r2, #50, 0	; 0x32
     e3c:	3253432f 	subscc	r4, r3, #-1140850688	; 0xbc000000
     e40:	584c3034 	stmdapl	ip, {r2, r4, r5, ip, sp}^
     e44:	7270732d 	rsbsvc	r7, r0, #-1275068416	; 0xb4000000
     e48:	6c2f3232 	sfmvs	f3, 4, [pc], #-200	; d88 <__code_start__-0x7278>
     e4c:	69706269 	ldmdbvs	r0!, {r0, r3, r5, r6, r9, sp, lr}^
     e50:	636e692f 	cmnvs	lr, #770048	; 0xbc000
     e54:	6564756c 	strbvs	r7, [r4, #-1388]!	; 0xfffffa94
     e58:	75630000 	strbvc	r0, [r3, #-0]!
     e5c:	6d6f7473 	cfstrdvs	mvd7, [pc, #-460]!	; c98 <__code_start__-0x7368>
     e60:	616f6c2d 	cmnvs	pc, sp, lsr #24
     e64:	2e726564 	cdpcs	5, 7, cr6, cr2, cr4, {3}
     e68:	00010063 	andeq	r0, r1, r3, rrx
     e6c:	69707200 	ldmdbvs	r0!, {r9, ip, sp, lr}^
     e70:	0200682e 	andeq	r6, r0, #3014656	; 0x2e0000
     e74:	05000000 	streq	r0, [r0, #-0]
     e78:	0205001a 	andeq	r0, r5, #26, 0
     e7c:	00008b18 	andeq	r8, r0, r8, lsl fp
     e80:	14010515 	strne	r0, [r1], #-1301	; 0xfffffaeb
     e84:	01000202 	tsteq	r0, r2, lsl #4
     e88:	0000f301 	andeq	pc, r0, r1, lsl #6
     e8c:	84000300 	strhi	r0, [r0], #-768	; 0xfffffd00
     e90:	02000000 	andeq	r0, r0, #0, 0
     e94:	0d0efb01 	vstreq	d15, [lr, #-4]
     e98:	01010100 	mrseq	r0, (UNDEF: 17)
     e9c:	00000001 	andeq	r0, r0, r1
     ea0:	01000001 	tsteq	r0, r1
     ea4:	74732f2e 	ldrbtvc	r2, [r3], #-3886	; 0xfffff0d2
     ea8:	2d666661 	stclcs	6, cr6, [r6, #-388]!	; 0xfffffe7c
     eac:	00637273 	rsbeq	r7, r3, r3, ror r2
     eb0:	6573552f 	ldrbvs	r5, [r3, #-1327]!	; 0xfffffad1
     eb4:	742f7372 	strtvc	r7, [pc], #-882	; ebc <__code_start__-0x7144>
     eb8:	74736972 	ldrbtvc	r6, [r3], #-2418	; 0xfffff68e
     ebc:	6f6e6e65 	svcvs	0x006e6e65
     ec0:	616d6c6c 	cmnvs	sp, ip, ror #24
     ec4:	6f442f6e 	svcvs	0x00442f6e
     ec8:	656d7563 	strbvs	r7, [sp, #-1379]!	; 0xfffffa9d
     ecc:	2f73746e 	svccs	0x0073746e
     ed0:	69727053 	ldmdbvs	r2!, {r0, r1, r4, r6, ip, sp, lr}^
     ed4:	515f676e 	cmppl	pc, lr, ror #14
     ed8:	74726175 	ldrbtvc	r6, [r2], #-373	; 0xfffffe8b
     edc:	325f7265 	subscc	r7, pc, #1342177286	; 0x50000006
     ee0:	2f323230 	svccs	0x00323230
     ee4:	34325343 	ldrtcc	r5, [r2], #-835	; 0xfffffcbd
     ee8:	2d584c30 	ldclcs	12, cr4, [r8, #-192]	; 0xffffff40
     eec:	32727073 	rsbscc	r7, r2, #115, 0	; 0x73
     ef0:	696c2f32 	stmdbvs	ip!, {r1, r4, r5, r8, r9, sl, fp, sp}^
     ef4:	2f697062 	svccs	0x00697062
     ef8:	6c636e69 	stclvs	14, cr6, [r3], #-420	; 0xfffffe5c
     efc:	00656475 	rsbeq	r6, r5, r5, ror r4
     f00:	62657200 	rsbvs	r7, r5, #0, 4
     f04:	2e746f6f 	cdpcs	15, 7, cr6, cr4, cr15, {3}
     f08:	00010063 	andeq	r0, r1, r3, rrx
     f0c:	69707200 	ldmdbvs	r0!, {r9, ip, sp, lr}^
     f10:	0200682e 	andeq	r6, r0, #3014656	; 0x2e0000
     f14:	05000000 	streq	r0, [r0, #-0]
     f18:	02050019 	andeq	r0, r5, #25, 0
     f1c:	00008b1c 	andeq	r8, r0, ip, lsl fp
     f20:	05010d03 	streq	r0, [r1, #-3331]	; 0xfffff2fd
     f24:	31131305 	tstcc	r3, r5, lsl #6
     f28:	01061305 	tsteq	r6, r5, lsl #6
     f2c:	052f0105 	streq	r0, [pc, #-261]!	; e2f <__code_start__-0x71d1>
     f30:	0585061b 	streq	r0, [r5, #1563]	; 0x61b
     f34:	05141305 	ldreq	r1, [r4, #-773]	; 0xfffffcfb
     f38:	16052f09 	strne	r2, [r5], -r9, lsl #30
     f3c:	0e050106 	adfeqs	f0, f5, f6
     f40:	0605052e 	streq	r0, [r5], -lr, lsr #10
     f44:	0601052f 	streq	r0, [r1], -pc, lsr #10
     f48:	0617052f 	ldreq	r0, [r7], -pc, lsr #10
     f4c:	2f050530 	svccs	0x00050530
     f50:	01060805 	tsteq	r6, r5, lsl #16
     f54:	052e0705 	streq	r0, [lr, #-1797]!	; 0xfffff8fb
     f58:	30500605 	subscc	r0, r0, r5, lsl #12
     f5c:	13134d2f 	tstne	r3, #3008	; 0xbc0
     f60:	00671513 	rsbeq	r1, r7, r3, lsl r5
     f64:	67010402 	strvs	r0, [r1, -r2, lsl #8]
     f68:	02000d05 	andeq	r0, r0, #320	; 0x140
     f6c:	05010104 	streq	r0, [r1, #-260]	; 0xfffffefc
     f70:	0402000a 	streq	r0, [r2], #-10
     f74:	09050101 	stmdbeq	r5, {r0, r8}
     f78:	022e6d03 	eoreq	r6, lr, #192	; 0xc0
     f7c:	0101000c 	tsteq	r1, ip
     f80:	000000fa 	strdeq	r0, [r0], -sl
     f84:	00830003 	addeq	r0, r3, r3
     f88:	01020000 	mrseq	r0, (UNDEF: 2)
     f8c:	000d0efb 	strdeq	r0, [sp], -fp
     f90:	01010101 	tsteq	r1, r1, lsl #2
     f94:	01000000 	mrseq	r0, (UNDEF: 0)
     f98:	2e010000 	cdpcs	0, 0, cr0, cr1, cr0, {0}
     f9c:	6174732f 	cmnvs	r4, pc, lsr #6
     fa0:	732d6666 			; <UNDEFINED> instruction: 0x732d6666
     fa4:	2f006372 	svccs	0x00006372
     fa8:	72657355 	rsbvc	r7, r5, #1409286145	; 0x54000001
     fac:	72742f73 	rsbsvc	r2, r4, #460	; 0x1cc
     fb0:	65747369 	ldrbvs	r7, [r4, #-873]!	; 0xfffffc97
     fb4:	6c6f6e6e 	stclvs	14, cr6, [pc], #-440	; e04 <__code_start__-0x71fc>
     fb8:	6e616d6c 	cdpvs	13, 6, cr6, cr1, cr12, {3}
     fbc:	636f442f 	cmnvs	pc, #788529152	; 0x2f000000
     fc0:	6e656d75 	mcrvs	13, 3, r6, cr5, cr5, {3}
     fc4:	532f7374 			; <UNDEFINED> instruction: 0x532f7374
     fc8:	6e697270 	mcrvs	2, 3, r7, cr9, cr0, {3}
     fcc:	75515f67 	ldrbvc	r5, [r1, #-3943]	; 0xfffff099
     fd0:	65747261 	ldrbvs	r7, [r4, #-609]!	; 0xfffffd9f
     fd4:	30325f72 	eorscc	r5, r2, r2, ror pc
     fd8:	432f3232 			; <UNDEFINED> instruction: 0x432f3232
     fdc:	30343253 	eorscc	r3, r4, r3, asr r2
     fe0:	732d584c 			; <UNDEFINED> instruction: 0x732d584c
     fe4:	32327270 	eorscc	r7, r2, #112, 4
     fe8:	62696c2f 	rsbvs	r6, r9, #12032	; 0x2f00
     fec:	692f6970 	stmdbvs	pc!, {r4, r5, r6, r8, fp, sp, lr}	; <UNPREDICTABLE>
     ff0:	756c636e 	strbvc	r6, [ip, #-878]!	; 0xfffffc92
     ff4:	00006564 	andeq	r6, r0, r4, ror #10
     ff8:	656d6974 	strbvs	r6, [sp, #-2420]!	; 0xfffff68c
     ffc:	00632e72 	rsbeq	r2, r3, r2, ror lr
    1000:	72000001 	andvc	r0, r0, #1, 0
    1004:	682e6970 	stmdavs	lr!, {r4, r5, r6, r8, fp, sp, lr}
    1008:	00000200 	andeq	r0, r0, r0, lsl #4
    100c:	00230500 	eoreq	r0, r3, r0, lsl #10
    1010:	8b9c0205 	blhi	fe70182c <__bss_end__+0xfe6f7bcc>
    1014:	05150000 	ldreq	r0, [r5, #-0]
    1018:	0c052f05 	stceq	15, cr2, [r5], {5}
    101c:	01050106 	tsteq	r5, r6, lsl #2
    1020:	061f054b 	ldreq	r0, [pc], -fp, asr #10
    1024:	3105054d 	tstcc	r5, sp, asr #10
    1028:	0612052f 	ldreq	r0, [r2], -pc, lsr #10
    102c:	06050501 	streq	r0, [r5], -r1, lsl #10
    1030:	01052f4b 	tsteq	r5, fp, asr #30
    1034:	1c051306 	stcne	3, cr1, [r5], {6}
    1038:	01064c06 	tsteq	r6, r6, lsl #24
    103c:	4b060505 	blmi	182458 <__bss_end__+0x1787f8>
    1040:	01061305 	tsteq	r6, r5, lsl #6
    1044:	0605052e 	streq	r0, [r5], -lr, lsr #10
    1048:	1309052f 	movwne	r0, #38191	; 0x952f
    104c:	01061705 	tsteq	r6, r5, lsl #14
    1050:	2f060905 	svccs	0x00060905
    1054:	01061105 	tsteq	r6, r5, lsl #2
    1058:	052e0c05 	streq	r0, [lr, #-3077]!	; 0xfffff3fb
    105c:	066b061c 			; <UNDEFINED> instruction: 0x066b061c
    1060:	06050501 	streq	r0, [r5], -r1, lsl #10
    1064:	054a062f 	strbeq	r0, [sl, #-1583]	; 0xfffff9d1
    1068:	1e054b01 	vmlane.f64	d4, d5, d1
    106c:	01062f06 	tsteq	r6, r6, lsl #30
    1070:	2f060505 	svccs	0x00060505
    1074:	01054a06 	tsteq	r5, r6, lsl #20
    1078:	0002024b 	andeq	r0, r2, fp, asr #4
    107c:	02050101 	andeq	r0, r5, #1073741824	; 0x40000000
    1080:	00030000 	andeq	r0, r3, r0
    1084:	000000c9 	andeq	r0, r0, r9, asr #1
    1088:	0efb0102 	cdpeq	1, 15, cr0, cr11, cr2, {0}
    108c:	0101000d 	tsteq	r1, sp
    1090:	00000101 	andeq	r0, r0, r1, lsl #2
    1094:	00000100 	andeq	r0, r0, r0, lsl #2
    1098:	6f682f01 	svcvs	0x00682f01
    109c:	652f656d 	strvs	r6, [pc, #-1389]!	; b37 <__code_start__-0x74c9>
    10a0:	656c676e 	strbvs	r6, [ip, #-1902]!	; 0xfffff892
    10a4:	6c632f72 	stclvs	15, cr2, [r3], #-456	; 0xfffffe38
    10a8:	2f737361 	svccs	0x00737361
    10ac:	34327363 	ldrtcc	r7, [r2], #-867	; 0xfffffc9d
    10b0:	2d786c30 	ldclcs	12, cr6, [r8, #-192]!	; 0xffffff40
    10b4:	70733232 	rsbsvc	r3, r3, r2, lsr r2
    10b8:	6c2f2f72 	stcvs	15, cr2, [pc], #-456	; ef8 <__code_start__-0x7108>
    10bc:	69706269 	ldmdbvs	r0!, {r0, r3, r5, r6, r9, sp, lr}^
    10c0:	636e692f 	cmnvs	lr, #770048	; 0xbc000
    10c4:	6564756c 	strbvs	r7, [r4, #-1388]!	; 0xfffffa94
    10c8:	73752f00 	cmnvc	r5, #0, 30
    10cc:	68732f72 	ldmdavs	r3!, {r1, r4, r5, r6, r8, r9, sl, fp, sp}^
    10d0:	2f657261 	svccs	0x00657261
    10d4:	2d636367 	stclcs	3, cr6, [r3, #-412]!	; 0xfffffe64
    10d8:	2d6d7261 	sfmcs	f7, 2, [sp, #-388]!	; 0xfffffe7c
    10dc:	656e6f6e 	strbvs	r6, [lr, #-3950]!	; 0xfffff092
    10e0:	6261652d 	rsbvs	r6, r1, #188743680	; 0xb400000
    10e4:	30312d69 	eorscc	r2, r1, r9, ror #26
    10e8:	322d332e 	eorcc	r3, sp, #-1207959552	; 0xb8000000
    10ec:	2e313230 	mrccs	2, 1, r3, cr1, cr0, {1}
    10f0:	6c2f3031 	stcvs	0, cr3, [pc], #-196	; 1034 <__code_start__-0x6fcc>
    10f4:	672f6269 	strvs	r6, [pc, -r9, ror #4]!
    10f8:	612f6363 			; <UNDEFINED> instruction: 0x612f6363
    10fc:	6e2d6d72 	mcrvs	13, 1, r6, cr13, cr2, {3}
    1100:	2d656e6f 	stclcs	14, cr6, [r5, #-444]!	; 0xfffffe44
    1104:	69626165 	stmdbvs	r2!, {r0, r2, r5, r6, r8, sp, lr}^
    1108:	2e30312f 	rsfcssp	f3, f0, #10.0
    110c:	2f312e33 	svccs	0x00312e33
    1110:	6c636e69 	stclvs	14, cr6, [r3], #-420	; 0xfffffe5c
    1114:	00656475 	rsbeq	r6, r5, r5, ror r4
    1118:	72617500 	rsbvc	r7, r1, #0, 10
    111c:	00632e74 	rsbeq	r2, r3, r4, ror lr
    1120:	75000000 	strvc	r0, [r0, #-0]
    1124:	2e747261 	cdpcs	2, 7, cr7, cr4, cr1, {3}
    1128:	00010068 	andeq	r0, r1, r8, rrx
    112c:	69707200 	ldmdbvs	r0!, {r9, ip, sp, lr}^
    1130:	0100682e 	tsteq	r0, lr, lsr #16
    1134:	70670000 	rsbvc	r0, r7, r0
    1138:	682e6f69 	stmdavs	lr!, {r0, r3, r5, r6, r8, r9, sl, fp, sp, lr}
    113c:	00000100 	andeq	r0, r0, r0, lsl #2
    1140:	69647473 	stmdbvs	r4!, {r0, r1, r4, r5, r6, sl, ip, sp, lr}^
    1144:	672d746e 	strvs	r7, [sp, -lr, ror #8]!
    1148:	682e6363 	stmdavs	lr!, {r0, r1, r5, r6, r8, r9, sp, lr}
    114c:	00000200 	andeq	r0, r0, r0, lsl #4
    1150:	00390500 	eorseq	r0, r9, r0, lsl #10
    1154:	8c200205 	sfmhi	f0, 4, [r0], #-20	; 0xffffffec
    1158:	30030000 	andcc	r0, r3, r0
    115c:	05010601 	streq	r0, [r1, #-1537]	; 0xfffff9ff
    1160:	05670605 	strbeq	r0, [r7, #-1541]!	; 0xfffff9fb
    1164:	05010611 	streq	r0, [r1, #-1553]	; 0xfffff9ef
    1168:	01052e05 	tsteq	r5, r5, lsl #28
    116c:	06380567 	ldrteq	r0, [r8], -r7, ror #10
    1170:	05010629 	streq	r0, [r1, #-1577]	; 0xfffff9d7
    1174:	05670605 	strbeq	r0, [r7, #-1541]!	; 0xfffff9fb
    1178:	05010611 	streq	r0, [r1, #-1553]	; 0xfffff9ef
    117c:	01052e05 	tsteq	r5, r5, lsl #28
    1180:	06160567 	ldreq	r0, [r6], -r7, ror #10
    1184:	052e1503 	streq	r1, [lr, #-1283]!	; 0xfffffafd
    1188:	68673505 	stmdavs	r7!, {r0, r2, r8, sl, ip, sp}^
    118c:	0c036835 	stceq	8, cr6, [r3], {53}	; 0x35
    1190:	696b852e 	stmdbvs	fp!, {r1, r2, r3, r5, r8, sl, pc}^
    1194:	660c0369 	strvs	r0, [ip], -r9, ror #6
    1198:	05676b13 	strbeq	r6, [r7, #-2835]!	; 0xfffff4ed
    119c:	052f0601 	streq	r0, [pc, #-1537]!	; ba3 <__code_start__-0x745d>
    11a0:	25080619 	strcs	r0, [r8, #-1561]	; 0xfffff9e7
    11a4:	05340505 	ldreq	r0, [r4, #-1285]!	; 0xfffffafb
    11a8:	0501060d 	streq	r0, [r1, #-1549]	; 0xfffff9f3
    11ac:	19054c01 	stmdbne	r5, {r0, sl, fp, lr}
    11b0:	05056706 	streq	r6, [r5, #-1798]	; 0xfffff8fa
    11b4:	060d0536 			; <UNDEFINED> instruction: 0x060d0536
    11b8:	4a280501 	bmi	a025c4 <__bss_end__+0x9f8964>
    11bc:	05300105 	ldreq	r0, [r0, #-261]!	; 0xfffffefb
    11c0:	05870615 	streq	r0, [r7, #1557]	; 0x615
    11c4:	052f2f05 	streq	r2, [pc, #-3845]!	; 2c7 <__code_start__-0x7d39>
    11c8:	04020009 	streq	r0, [r2], #-9
    11cc:	0a051301 	beq	145dd8 <__bss_end__+0x13c178>
    11d0:	01040200 	mrseq	r0, R12_usr
    11d4:	000c0511 	andeq	r0, ip, r1, lsl r5
    11d8:	06010402 	streq	r0, [r1], -r2, lsl #8
    11dc:	000a0501 	andeq	r0, sl, r1, lsl #10
    11e0:	2e010402 	cdpcs	4, 0, cr0, cr1, cr2, {0}
    11e4:	4c060505 	cfstr32mi	mvfx0, [r6], {5}
    11e8:	01060e05 	tsteq	r6, r5, lsl #28
    11ec:	054a0905 	strbeq	r0, [sl, #-2309]	; 0xfffff6fb
    11f0:	2f2f0605 	svccs	0x002f0605
    11f4:	13060105 	movwne	r0, #24837	; 0x6105
    11f8:	67061c05 	strvs	r1, [r6, -r5, lsl #24]
    11fc:	05050106 	streq	r0, [r5, #-262]	; 0xfffffefa
    1200:	052f4b06 	streq	r4, [pc, #-2822]!	; 702 <__code_start__-0x78fe>
    1204:	04020009 	streq	r0, [r2], #-9
    1208:	0a051301 	beq	145e14 <__bss_end__+0x13c1b4>
    120c:	01040200 	mrseq	r0, R12_usr
    1210:	000c0511 	andeq	r0, ip, r1, lsl r5
    1214:	06010402 	streq	r0, [r1], -r2, lsl #8
    1218:	000a0501 	andeq	r0, sl, r1, lsl #10
    121c:	2e010402 	cdpcs	4, 0, cr0, cr1, cr2, {0}
    1220:	4c060505 	cfstr32mi	mvfx0, [r6], {5}
    1224:	06010567 	streq	r0, [r1], -r7, ror #10
    1228:	0619052f 	ldreq	r0, [r9], -pc, lsr #10
    122c:	2e1b054c 	cfmac32cs	mvfx0, mvfx11, mvfx12
    1230:	052e2a05 	streq	r2, [lr, #-2565]!	; 0xfffff5fb
    1234:	05010631 	streq	r0, [r1, #-1585]	; 0xfffff9cf
    1238:	1c052e42 	stcne	14, cr2, [r5], {66}	; 0x42
    123c:	05053106 	streq	r3, [r5, #-262]	; 0xfffffefa
    1240:	2e09032f 	cdpcs	3, 0, cr0, cr9, cr15, {1}
    1244:	01060e05 	tsteq	r6, r5, lsl #28
    1248:	054a2105 	strbeq	r2, [sl, #-261]	; 0xfffffefb
    124c:	2e0a0301 	cdpcs	3, 0, cr0, cr10, cr1, {0}
    1250:	68061a05 	stmdavs	r6, {r0, r2, r9, fp, ip}
    1254:	02000905 	andeq	r0, r0, #81920	; 0x14000
    1258:	05300104 	ldreq	r0, [r0, #-260]!	; 0xfffffefc
    125c:	0402000a 	streq	r0, [r2], #-10
    1260:	0c051101 	stfeqs	f1, [r5], {1}
    1264:	01040200 	mrseq	r0, R12_usr
    1268:	0a050106 	beq	141688 <__bss_end__+0x137a28>
    126c:	01040200 	mrseq	r0, R12_usr
    1270:	0619052e 	ldreq	r0, [r9], -lr, lsr #10
    1274:	667ee803 	ldrbtvs	lr, [lr], -r3, lsl #16
    1278:	2f2f0505 	svccs	0x002f0505
    127c:	0105672f 	tsteq	r5, pc, lsr #14
    1280:	04022f06 	streq	r2, [r2], #-3846	; 0xfffff0fa
    1284:	93010100 	movwls	r0, #4352	; 0x1100
    1288:	03000003 	movweq	r0, #3
    128c:	0000b800 	andeq	fp, r0, r0, lsl #16
    1290:	fb010200 	blx	41a9a <__bss_end__+0x37e3a>
    1294:	01000d0e 	tsteq	r0, lr, lsl #26
    1298:	00010101 	andeq	r0, r1, r1, lsl #2
    129c:	00010000 	andeq	r0, r1, r0
    12a0:	682f0100 	stmdavs	pc!, {r8}	; <UNPREDICTABLE>
    12a4:	2f656d6f 	svccs	0x00656d6f
    12a8:	6c676e65 	stclvs	14, cr6, [r7], #-404	; 0xfffffe6c
    12ac:	632f7265 			; <UNDEFINED> instruction: 0x632f7265
    12b0:	7373616c 	cmnvc	r3, #27
    12b4:	3273632f 	rsbscc	r6, r3, #-1140850688	; 0xbc000000
    12b8:	786c3034 	stmdavc	ip!, {r2, r4, r5, ip, sp}^
    12bc:	7332322d 	teqvc	r2, #-805306366	; 0xd0000002
    12c0:	2f2f7270 	svccs	0x002f7270
    12c4:	7062696c 	rsbvc	r6, r2, ip, ror #18
    12c8:	6e692f69 	cdpvs	15, 6, cr2, cr9, cr9, {3}
    12cc:	64756c63 	ldrbtvs	r6, [r5], #-3171	; 0xfffff39d
    12d0:	752f0065 	strvc	r0, [pc, #-101]!	; 1273 <__code_start__-0x6d8d>
    12d4:	732f7273 			; <UNDEFINED> instruction: 0x732f7273
    12d8:	65726168 	ldrbvs	r6, [r2, #-360]!	; 0xfffffe98
    12dc:	6363672f 	cmnvs	r3, #12320768	; 0xbc0000
    12e0:	6d72612d 	ldfvse	f6, [r2, #-180]!	; 0xffffff4c
    12e4:	6e6f6e2d 	cdpvs	14, 6, cr6, cr15, cr13, {1}
    12e8:	61652d65 	cmnvs	r5, r5, ror #26
    12ec:	312d6962 			; <UNDEFINED> instruction: 0x312d6962
    12f0:	2d332e30 	ldccs	14, cr2, [r3, #-192]!	; 0xffffff40
    12f4:	31323032 	teqcc	r2, r2, lsr r0
    12f8:	2f30312e 	svccs	0x0030312e
    12fc:	2f62696c 	svccs	0x0062696c
    1300:	2f636367 	svccs	0x00636367
    1304:	2d6d7261 	sfmcs	f7, 2, [sp, #-388]!	; 0xfffffe7c
    1308:	656e6f6e 	strbvs	r6, [lr, #-3950]!	; 0xfffff092
    130c:	6261652d 	rsbvs	r6, r1, #188743680	; 0xb400000
    1310:	30312f69 	eorscc	r2, r1, r9, ror #30
    1314:	312e332e 			; <UNDEFINED> instruction: 0x312e332e
    1318:	636e692f 	cmnvs	lr, #770048	; 0xbc000
    131c:	6564756c 	strbvs	r7, [r4, #-1388]!	; 0xfffffa94
    1320:	6d6b0000 	stclvs	0, cr0, [fp, #-0]
    1324:	6f6c6c61 	svcvs	0x006c6c61
    1328:	00632e63 	rsbeq	r2, r3, r3, ror #28
    132c:	72000000 	andvc	r0, r0, #0, 0
    1330:	682e6970 	stmdavs	lr!, {r4, r5, r6, r8, fp, sp, lr}
    1334:	00000100 	andeq	r0, r0, r0, lsl #2
    1338:	69647473 	stmdbvs	r4!, {r0, r1, r4, r5, r6, sl, ip, sp, lr}^
    133c:	672d746e 	strvs	r7, [sp, -lr, ror #8]!
    1340:	682e6363 	stmdavs	lr!, {r0, r1, r5, r6, r8, r9, sp, lr}
    1344:	00000200 	andeq	r0, r0, r0, lsl #4
    1348:	001e0500 	andseq	r0, lr, r0, lsl #10
    134c:	8e100205 	cdphi	2, 1, cr0, cr0, cr5, {0}
    1350:	27030000 	strcs	r0, [r3, -r0]
    1354:	01200501 			; <UNDEFINED> instruction: 0x01200501
    1358:	01063105 	tsteq	r6, r5, lsl #2
    135c:	83062005 	movwhi	r2, #24581	; 0x6005
    1360:	05012205 	streq	r2, [r1, #-517]	; 0xfffffdfb
    1364:	05010635 	streq	r0, [r1, #-1589]	; 0xfffff9cb
    1368:	0583061e 	streq	r0, [r3, #1566]	; 0x61e
    136c:	2d050120 	stfcss	f0, [r5, #-128]	; 0xffffff80
    1370:	42050106 	andmi	r0, r5, #-2147483647	; 0x80000001
    1374:	01068506 	tsteq	r6, r6, lsl #10
    1378:	4b060505 	blmi	182794 <__bss_end__+0x178b34>
    137c:	2e060114 	mcrcs	1, 0, r0, cr6, cr4, {0}
    1380:	02040200 	andeq	r0, r4, #0, 4
    1384:	02002e06 	andeq	r2, r0, #96	; 0x60
    1388:	00010204 	andeq	r0, r1, r4, lsl #4
    138c:	15020402 	strne	r0, [r2, #-1026]	; 0xfffffbfe
    1390:	02000d05 	andeq	r0, r0, #320	; 0x140
    1394:	01060204 	tsteq	r6, r4, lsl #4
    1398:	02000705 	andeq	r0, r0, #1310720	; 0x140000
    139c:	054a0204 	strbeq	r0, [sl, #-516]	; 0xfffffdfc
    13a0:	054b0609 	strbeq	r0, [fp, #-1545]	; 0xfffff9f7
    13a4:	17051505 	strne	r1, [r5, -r5, lsl #10]
    13a8:	10050106 	andne	r0, r5, r6, lsl #2
    13ac:	0605054a 	streq	r0, [r5], -sl, asr #10
    13b0:	061b052f 	ldreq	r0, [fp], -pc, lsr #10
    13b4:	2e0e0501 	cfsh32cs	mvfx0, mvfx14, #1
    13b8:	052f0105 	streq	r0, [pc, #-261]!	; 12bb <__code_start__-0x6d45>
    13bc:	04020005 	streq	r0, [r2], #-5
    13c0:	77030601 	strvc	r0, [r3, -r1, lsl #12]
    13c4:	0402004a 	streq	r0, [r2], #-74	; 0xffffffb6
    13c8:	02000101 	andeq	r0, r0, #1073741824	; 0x40000000
    13cc:	9e060104 	adflss	f0, f6, f4
    13d0:	01040200 	mrseq	r0, R12_usr
    13d4:	0402002e 	streq	r0, [r2], #-46	; 0xffffffd2
    13d8:	052e0601 	streq	r0, [lr, #-1537]!	; 0xfffff9ff
    13dc:	06013209 	streq	r3, [r1], -r9, lsl #4
    13e0:	2e062ed6 	mcrcs	14, 0, r2, cr6, cr6, {6}
    13e4:	05de1905 	ldrbeq	r1, [lr, #2309]	; 0x905
    13e8:	05142f05 	ldreq	r2, [r4, #-3845]	; 0xfffff0fb
    13ec:	05010608 	streq	r0, [r1, #-1544]	; 0xfffff9f8
    13f0:	09054a07 	stmdbeq	r5, {r0, r1, r2, r9, fp, lr}
    13f4:	05054b06 	streq	r4, [r5, #-2822]	; 0xfffff4fa
    13f8:	060c0513 			; <UNDEFINED> instruction: 0x060c0513
    13fc:	06050501 	streq	r0, [r5], -r1, lsl #10
    1400:	01051367 	tsteq	r5, r7, ror #6
    1404:	09056706 	stmdbeq	r5, {r1, r2, r8, r9, sl, sp, lr}
    1408:	9e012a06 	vmlals.f32	s4, s2, s12
    140c:	06a52805 	strteq	r2, [r5], r5, lsl #16
    1410:	06050501 	streq	r0, [r5], -r1, lsl #10
    1414:	2e06014b 	adfcssm	f0, f6, #3.0
    1418:	13012e06 	movwne	r2, #7686	; 0x1e06
    141c:	47031805 	strmi	r1, [r3, -r5, lsl #16]
    1420:	13050501 	movwne	r0, #21761	; 0x5501
    1424:	06010601 	streq	r0, [r1], -r1, lsl #12
    1428:	1301150f 	movwne	r1, #5391	; 0x150f
    142c:	01060e05 	tsteq	r6, r5, lsl #28
    1430:	2e2e1605 	cfmadda32cs	mvax0, mvax1, mvfx14, mvfx5
    1434:	03060505 	movweq	r0, #25861	; 0x6505
    1438:	0b050139 	bleq	141924 <__bss_end__+0x137cc4>
    143c:	05050106 	streq	r0, [r5, #-262]	; 0xfffffefa
    1440:	0a054b06 	beq	154060 <__bss_end__+0x14a400>
    1444:	05050106 	streq	r0, [r5, #-262]	; 0xfffffefa
    1448:	0d054b06 	vstreq	d4, [r5, #-24]	; 0xffffffe8
    144c:	07050106 	streq	r0, [r5, -r6, lsl #2]
    1450:	4d01052e 	cfstr32mi	mvfx0, [r1, #-184]	; 0xffffff48
    1454:	02000505 	andeq	r0, r0, #20971520	; 0x1400000
    1458:	03060104 	movweq	r0, #24836	; 0x6104
    145c:	02004a78 	andeq	r4, r0, #120, 20	; 0x78000
    1460:	00010104 	andeq	r0, r1, r4, lsl #2
    1464:	06010402 	streq	r0, [r1], -r2, lsl #8
    1468:	040200ba 	streq	r0, [r2], #-186	; 0xffffff46
    146c:	052e0601 	streq	r0, [lr, #-1537]!	; 0xfffff9ff
    1470:	06013409 	streq	r3, [r1], -r9, lsl #8
    1474:	2e066682 	cfmadd32cs	mvax4, mvfx6, mvfx6, mvfx2
    1478:	06db2005 	ldrbeq	r2, [fp], r5
    147c:	06050501 	streq	r0, [r5], -r1, lsl #10
    1480:	0200014b 	andeq	r0, r0, #-1073741806	; 0xc0000012
    1484:	004a0204 	subeq	r0, sl, r4, lsl #4
    1488:	01020402 	tsteq	r2, r2, lsl #8
    148c:	02040200 	andeq	r0, r4, #0, 4
    1490:	00120513 	andseq	r0, r2, r3, lsl r5
    1494:	06020402 	streq	r0, [r2], -r2, lsl #8
    1498:	04020001 	streq	r0, [r2], #-1
    149c:	02002e02 	andeq	r2, r0, #2, 28
    14a0:	052e0204 	streq	r0, [lr, #-516]!	; 0xfffffdfc
    14a4:	04020005 	streq	r0, [r2], #-5
    14a8:	002f0602 	eoreq	r0, pc, r2, lsl #12
    14ac:	67020402 	strvs	r0, [r2, -r2, lsl #8]
    14b0:	02000105 	andeq	r0, r0, #1073741825	; 0x40000001
    14b4:	13060204 	movwne	r0, #25092	; 0x6204
    14b8:	02000505 	andeq	r0, r0, #20971520	; 0x1400000
    14bc:	62060104 	andvs	r0, r6, #1
    14c0:	01040200 	mrseq	r0, R12_usr
    14c4:	04020001 	streq	r0, [r2], #-1
    14c8:	00ba0601 	adcseq	r0, sl, r1, lsl #12
    14cc:	06010402 	streq	r0, [r1], -r2, lsl #8
    14d0:	033c052e 	teqeq	ip, #192937984	; 0xb800000
    14d4:	01069e0a 	tsteq	r6, sl, lsl #28
    14d8:	4b060505 	blmi	1828f4 <__bss_end__+0x178c94>
    14dc:	062e0601 	strteq	r0, [lr], -r1, lsl #12
    14e0:	0113012e 	tsteq	r3, lr, lsr #2
    14e4:	ad031805 	stcge	8, cr1, [r3, #-20]	; 0xffffffec
    14e8:	0505017f 	streq	r0, [r5, #-383]	; 0xfffffe81
    14ec:	06110513 			; <UNDEFINED> instruction: 0x06110513
    14f0:	05052e01 	streq	r2, [r5, #-3585]	; 0xfffff1ff
    14f4:	0100d203 	tsteq	r0, r3, lsl #4
    14f8:	05134a06 	ldreq	r4, [r3, #-2566]	; 0xfffff5fa
    14fc:	7fa30318 	svcvc	0x00a30318
    1500:	13050501 	movwne	r0, #21761	; 0x5501
    1504:	01061605 	tsteq	r6, r5, lsl #12
    1508:	0605054a 	streq	r0, [r5], -sl, asr #10
    150c:	0100e103 	tsteq	r0, r3, lsl #2
    1510:	01061205 	tsteq	r6, r5, lsl #4
    1514:	4b060505 	blmi	182930 <__bss_end__+0x178cd0>
    1518:	a9031805 	stmdbge	r3, {r0, r2, fp, ip}
    151c:	0505017f 	streq	r0, [r5, #-383]	; 0xfffffe81
    1520:	18050113 	stmdane	r5, {r0, r1, r4, r8}
    1524:	1305050e 	movwne	r0, #21774	; 0x550e
    1528:	01061105 	tsteq	r6, r5, lsl #2
    152c:	1505052e 	strne	r0, [r5, #-1326]	; 0xfffffad2
    1530:	13014a06 	movwne	r4, #6662	; 0x1a06
    1534:	01060e05 	tsteq	r6, r5, lsl #28
    1538:	2e16052e 	cfmul64cs	mvdx0, mvdx6, mvdx14
    153c:	0605052e 	streq	r0, [r5], -lr, lsr #10
    1540:	0100d603 	tsteq	r0, r3, lsl #12
    1544:	03180501 	tsteq	r8, #4194304	; 0x400000
    1548:	05017f9f 	streq	r7, [r1, #-3999]	; 0xfffff061
    154c:	19051305 	stmdbne	r5, {r0, r2, r8, r9, ip}
    1550:	052e0106 	streq	r0, [lr, #-262]!	; 0xfffffefa
    1554:	00e00305 	rsceq	r0, r0, r5, lsl #6
    1558:	04020001 	streq	r0, [r2], #-1
    155c:	004a0602 	subeq	r0, sl, r2, lsl #12
    1560:	14020402 	strne	r0, [r2], #-1026	; 0xfffffbfe
    1564:	02000a05 	andeq	r0, r0, #20480	; 0x5000
    1568:	01060204 	tsteq	r6, r4, lsl #4
    156c:	02000505 	andeq	r0, r0, #20971520	; 0x1400000
    1570:	4b060204 	blmi	181d88 <__bss_end__+0x178128>
    1574:	02000c05 	andeq	r0, r0, #1280	; 0x500
    1578:	01060204 	tsteq	r6, r4, lsl #4
    157c:	02000105 	andeq	r0, r0, #1073741825	; 0x40000001
    1580:	052f0204 	streq	r0, [pc, #-516]!	; 1384 <__code_start__-0x6c7c>
    1584:	04020005 	streq	r0, [r2], #-5
    1588:	73030601 	movwvc	r0, #13825	; 0x3601
    158c:	0402004a 	streq	r0, [r2], #-74	; 0xffffffb6
    1590:	02000101 	andeq	r0, r0, #1073741824	; 0x40000000
    1594:	9e060104 	adflss	f0, f6, f4
    1598:	01040200 	mrseq	r0, R12_usr
    159c:	0402002e 	streq	r0, [r2], #-46	; 0xffffffd2
    15a0:	002e0601 	eoreq	r0, lr, r1, lsl #12
    15a4:	2f010402 	svccs	0x00010402
    15a8:	01040200 	mrseq	r0, R12_usr
    15ac:	0402002e 	streq	r0, [r2], #-46	; 0xffffffd2
    15b0:	b103d601 	tstlt	r3, r1, lsl #12
    15b4:	06012e7f 			; <UNDEFINED> instruction: 0x06012e7f
    15b8:	062e2e82 	strteq	r2, [lr], -r2, lsl #29
    15bc:	002e062e 	eoreq	r0, lr, lr, lsr #12
    15c0:	06010402 	streq	r0, [r1], -r2, lsl #8
    15c4:	0100d703 	tsteq	r0, r3, lsl #14
    15c8:	01040200 	mrseq	r0, R12_usr
    15cc:	0402002e 	streq	r0, [r2], #-46	; 0xffffffd2
    15d0:	1505d601 	strne	sp, [r5, #-1537]	; 0xfffff9ff
    15d4:	17057b08 	strne	r7, [r5, -r8, lsl #22]
    15d8:	31160501 	tstcc	r6, r1, lsl #10
    15dc:	05011805 	streq	r1, [r1, #-2053]	; 0xfffff7fb
    15e0:	0501061d 	streq	r0, [r1, #-1565]	; 0xfffff9e3
    15e4:	1905662b 	stmdbne	r5, {r0, r1, r3, r5, r9, sl, sp, lr}
    15e8:	05054d06 	streq	r4, [r5, #-3334]	; 0xfffff2fa
    15ec:	060c0513 			; <UNDEFINED> instruction: 0x060c0513
    15f0:	4a070501 	bmi	1c29fc <__bss_end__+0x1b8d9c>
    15f4:	02002505 	andeq	r2, r0, #20971520	; 0x1400000
    15f8:	054a0104 	strbeq	r0, [sl, #-260]	; 0xfffffefc
    15fc:	0402001e 	streq	r0, [r2], #-30	; 0xffffffe2
    1600:	09054a01 	stmdbeq	r5, {r0, r9, fp, lr}
    1604:	05054b06 	streq	r4, [r5, #-2822]	; 0xfffff4fa
    1608:	060a0513 			; <UNDEFINED> instruction: 0x060a0513
    160c:	63190501 	tstvs	r9, #4194304	; 0x400000
    1610:	4c060905 			; <UNDEFINED> instruction: 0x4c060905
    1614:	069e0601 	ldreq	r0, [lr], r1, lsl #12
    1618:	000a022e 	andeq	r0, sl, lr, lsr #4
    161c:	01140101 	tsteq	r4, r1, lsl #2
    1620:	00030000 	andeq	r0, r3, r0
    1624:	000000e4 	andeq	r0, r0, r4, ror #1
    1628:	0efb0102 	cdpeq	1, 15, cr0, cr11, cr2, {0}
    162c:	0101000d 	tsteq	r1, sp
    1630:	00000101 	andeq	r0, r0, r1, lsl #2
    1634:	00000100 	andeq	r0, r0, r0, lsl #2
    1638:	6c2f2e01 	stcvs	14, cr2, [pc], #-4	; 163c <__code_start__-0x69c4>
    163c:	00636269 	rsbeq	r6, r3, r9, ror #4
    1640:	6573552f 	ldrbvs	r5, [r3, #-1327]!	; 0xfffffad1
    1644:	742f7372 	strtvc	r7, [pc], #-882	; 164c <__code_start__-0x69b4>
    1648:	74736972 	ldrbtvc	r6, [r3], #-2418	; 0xfffff68e
    164c:	6f6e6e65 	svcvs	0x006e6e65
    1650:	616d6c6c 	cmnvs	sp, ip, ror #24
    1654:	6f442f6e 	svcvs	0x00442f6e
    1658:	656d7563 	strbvs	r7, [sp, #-1379]!	; 0xfffffa9d
    165c:	2f73746e 	svccs	0x0073746e
    1660:	69727053 	ldmdbvs	r2!, {r0, r1, r4, r6, ip, sp, lr}^
    1664:	515f676e 	cmppl	pc, lr, ror #14
    1668:	74726175 	ldrbtvc	r6, [r2], #-373	; 0xfffffe8b
    166c:	325f7265 	subscc	r7, pc, #1342177286	; 0x50000006
    1670:	2f323230 	svccs	0x00323230
    1674:	34325343 	ldrtcc	r5, [r2], #-835	; 0xfffffcbd
    1678:	2d584c30 	ldclcs	12, cr4, [r8, #-192]	; 0xffffff40
    167c:	32727073 	rsbscc	r7, r2, #115, 0	; 0x73
    1680:	696c2f32 	stmdbvs	ip!, {r1, r4, r5, r8, r9, sl, fp, sp}^
    1684:	2f697062 	svccs	0x00697062
    1688:	6c636e69 	stclvs	14, cr6, [r3], #-420	; 0xfffffe5c
    168c:	00656475 	rsbeq	r6, r5, r5, ror r4
    1690:	7273752f 	rsbsvc	r7, r3, #197132288	; 0xbc00000
    1694:	636f6c2f 	cmnvs	pc, #12032	; 0x2f00
    1698:	432f6c61 			; <UNDEFINED> instruction: 0x432f6c61
    169c:	616c6c65 	cmnvs	ip, r5, ror #24
    16a0:	72612f72 	rsbvc	r2, r1, #456	; 0x1c8
    16a4:	6f6e2d6d 	svcvs	0x006e2d6d
    16a8:	652d656e 	strvs	r6, [sp, #-1390]!	; 0xfffffa92
    16ac:	2d696261 	sfmcs	f6, 2, [r9, #-388]!	; 0xfffffe7c
    16b0:	74736574 	ldrbtvc	r6, [r3], #-1396	; 0xfffffa8c
    16b4:	322d392f 	eorcc	r3, sp, #770048	; 0xbc000
    16b8:	71393130 	teqvc	r9, r0, lsr r1
    16bc:	73632d34 	cmnvc	r3, #52, 26	; 0xd00
    16c0:	65373031 	ldrvs	r3, [r7, #-49]!	; 0xffffffcf
    16c4:	62696c2f 	rsbvs	r6, r9, #12032	; 0x2f00
    16c8:	6363672f 	cmnvs	r3, #12320768	; 0xbc0000
    16cc:	6d72612f 	ldfvse	f6, [r2, #-188]!	; 0xffffff44
    16d0:	6e6f6e2d 	cdpvs	14, 6, cr6, cr15, cr13, {1}
    16d4:	61652d65 	cmnvs	r5, r5, ror #26
    16d8:	392f6962 	stmdbcc	pc!, {r1, r5, r6, r8, fp, sp, lr}	; <UNPREDICTABLE>
    16dc:	312e322e 			; <UNDEFINED> instruction: 0x312e322e
    16e0:	636e692f 	cmnvs	lr, #770048	; 0xbc000
    16e4:	6564756c 	strbvs	r7, [r4, #-1388]!	; 0xfffffa94
    16e8:	656d0000 	strbvs	r0, [sp, #-0]!
    16ec:	7465736d 	strbtvc	r7, [r5], #-877	; 0xfffffc93
    16f0:	0100632e 	tsteq	r0, lr, lsr #6
    16f4:	70720000 	rsbsvc	r0, r2, r0
    16f8:	00682e69 	rsbeq	r2, r8, r9, ror #28
    16fc:	73000002 	movwvc	r0, #2
    1700:	65646474 	strbvs	r6, [r4, #-1140]!	; 0xfffffb8c
    1704:	00682e66 	rsbeq	r2, r8, r6, ror #28
    1708:	00000003 	andeq	r0, r0, r3
    170c:	05002905 	streq	r2, [r0, #-2309]	; 0xfffff6fb
    1710:	0091c002 	addseq	ip, r1, r2
    1714:	05051500 	streq	r1, [r5, #-1280]	; 0xfffffb00
    1718:	06140513 			; <UNDEFINED> instruction: 0x06140513
    171c:	06050501 	streq	r0, [r5], -r1, lsl #10
    1720:	060b0530 			; <UNDEFINED> instruction: 0x060b0530
    1724:	060a0510 			; <UNDEFINED> instruction: 0x060a0510
    1728:	4b090530 	blmi	242bf0 <__bss_end__+0x238f90>
    172c:	01060e05 	tsteq	r6, r5, lsl #28
    1730:	0002022e 	andeq	r0, r2, lr, lsr #4
    1734:	00be0101 	adcseq	r0, lr, r1, lsl #2
    1738:	00030000 	andeq	r0, r3, r0
    173c:	00000080 	andeq	r0, r0, r0, lsl #1
    1740:	0efb0102 	cdpeq	1, 15, cr0, cr11, cr2, {0}
    1744:	0101000d 	tsteq	r1, sp
    1748:	00000101 	andeq	r0, r0, r1, lsl #2
    174c:	00000100 	andeq	r0, r0, r0, lsl #2
    1750:	6c2f2e01 	stcvs	14, cr2, [pc], #-4	; 1754 <__code_start__-0x68ac>
    1754:	00636269 	rsbeq	r6, r3, r9, ror #4
    1758:	6573552f 	ldrbvs	r5, [r3, #-1327]!	; 0xfffffad1
    175c:	742f7372 	strtvc	r7, [pc], #-882	; 1764 <__code_start__-0x689c>
    1760:	74736972 	ldrbtvc	r6, [r3], #-2418	; 0xfffff68e
    1764:	6f6e6e65 	svcvs	0x006e6e65
    1768:	616d6c6c 	cmnvs	sp, ip, ror #24
    176c:	6f442f6e 	svcvs	0x00442f6e
    1770:	656d7563 	strbvs	r7, [sp, #-1379]!	; 0xfffffa9d
    1774:	2f73746e 	svccs	0x0073746e
    1778:	69727053 	ldmdbvs	r2!, {r0, r1, r4, r6, ip, sp, lr}^
    177c:	515f676e 	cmppl	pc, lr, ror #14
    1780:	74726175 	ldrbtvc	r6, [r2], #-373	; 0xfffffe8b
    1784:	325f7265 	subscc	r7, pc, #1342177286	; 0x50000006
    1788:	2f323230 	svccs	0x00323230
    178c:	34325343 	ldrtcc	r5, [r2], #-835	; 0xfffffcbd
    1790:	2d584c30 	ldclcs	12, cr4, [r8, #-192]	; 0xffffff40
    1794:	32727073 	rsbscc	r7, r2, #115, 0	; 0x73
    1798:	696c2f32 	stmdbvs	ip!, {r1, r4, r5, r8, r9, sl, fp, sp}^
    179c:	2f697062 	svccs	0x00697062
    17a0:	6c636e69 	stclvs	14, cr6, [r3], #-420	; 0xfffffe5c
    17a4:	00656475 	rsbeq	r6, r5, r5, ror r4
    17a8:	74757000 	ldrbtvc	r7, [r5], #-0
    17ac:	72616863 	rsbvc	r6, r1, #6488064	; 0x630000
    17b0:	0100632e 	tsteq	r0, lr, lsr #6
    17b4:	70720000 	rsbsvc	r0, r2, r0
    17b8:	00682e69 	rsbeq	r2, r8, r9, ror #28
    17bc:	00000002 	andeq	r0, r0, r2
    17c0:	05002405 	streq	r2, [r0, #-1029]	; 0xfffffbfb
    17c4:	0091d802 	addseq	sp, r1, r2, lsl #16
    17c8:	01061400 	tsteq	r6, r0, lsl #8
    17cc:	4a062605 	bmi	18afe8 <__bss_end__+0x181388>
    17d0:	052e3405 	streq	r3, [lr, #-1029]!	; 0xfffffbfb
    17d4:	05010601 	streq	r0, [r1, #-1537]	; 0xfffff9ff
    17d8:	054f061b 	strbeq	r0, [pc, #-1563]	; 11c5 <__code_start__-0x6e3b>
    17dc:	11051305 	tstne	r5, r5, lsl #6
    17e0:	01050106 	tsteq	r5, r6, lsl #2
    17e4:	06230567 	strteq	r0, [r3], -r7, ror #10
    17e8:	13050567 	movwne	r0, #21863	; 0x5567
    17ec:	01061105 	tsteq	r6, r5, lsl #2
    17f0:	024b0105 	subeq	r0, fp, #1073741825	; 0x40000001
    17f4:	01010004 	tsteq	r1, r4
    17f8:	0000010a 	andeq	r0, r0, sl, lsl #2
    17fc:	007f0003 	rsbseq	r0, pc, r3
    1800:	01020000 	mrseq	r0, (UNDEF: 2)
    1804:	000d0efb 	strdeq	r0, [sp], -fp
    1808:	01010101 	tsteq	r1, r1, lsl #2
    180c:	01000000 	mrseq	r0, (UNDEF: 0)
    1810:	2e010000 	cdpcs	0, 0, cr0, cr1, cr0, {0}
    1814:	62696c2f 	rsbvs	r6, r9, #12032	; 0x2f00
    1818:	552f0063 	strpl	r0, [pc, #-99]!	; 17bd <__code_start__-0x6843>
    181c:	73726573 	cmnvc	r2, #482344960	; 0x1cc00000
    1820:	6972742f 	ldmdbvs	r2!, {r0, r1, r2, r3, r5, sl, ip, sp, lr}^
    1824:	6e657473 	mcrvs	4, 3, r7, cr5, cr3, {3}
    1828:	6c6c6f6e 	stclvs	15, cr6, [ip], #-440	; 0xfffffe48
    182c:	2f6e616d 	svccs	0x006e616d
    1830:	75636f44 	strbvc	r6, [r3, #-3908]!	; 0xfffff0bc
    1834:	746e656d 	strbtvc	r6, [lr], #-1389	; 0xfffffa93
    1838:	70532f73 	subsvc	r2, r3, r3, ror pc
    183c:	676e6972 			; <UNDEFINED> instruction: 0x676e6972
    1840:	6175515f 	cmnvs	r5, pc, asr r1
    1844:	72657472 	rsbvc	r7, r5, #1912602624	; 0x72000000
    1848:	3230325f 	eorscc	r3, r0, #-268435451	; 0xf0000005
    184c:	53432f32 	movtpl	r2, #16178	; 0x3f32
    1850:	4c303432 	cfldrsmi	mvf3, [r0], #-200	; 0xffffff38
    1854:	70732d58 	rsbsvc	r2, r3, r8, asr sp
    1858:	2f323272 	svccs	0x00323272
    185c:	7062696c 	rsbvc	r6, r2, ip, ror #18
    1860:	6e692f69 	cdpvs	15, 6, cr2, cr9, cr9, {3}
    1864:	64756c63 	ldrbtvs	r6, [r5], #-3171	; 0xfffff39d
    1868:	73000065 	movwvc	r0, #101	; 0x65
    186c:	61637274 	smcvs	14116	; 0x3724
    1870:	00632e74 	rsbeq	r2, r3, r4, ror lr
    1874:	72000001 	andvc	r0, r0, #1, 0
    1878:	682e6970 	stmdavs	lr!, {r4, r5, r6, r8, fp, sp, lr}
    187c:	00000200 	andeq	r0, r0, r0, lsl #4
    1880:	002c0500 	eoreq	r0, ip, r0, lsl #10
    1884:	92140205 	andsls	r0, r4, #1342177280	; 0x50000000
    1888:	05150000 	ldreq	r0, [r5, #-0]
    188c:	05131305 	ldreq	r1, [r3, #-773]	; 0xfffffcfb
    1890:	0511060b 	ldreq	r0, [r1, #-1547]	; 0xfffff9f5
    1894:	04020005 	streq	r0, [r2], #-5
    1898:	00300601 	eorseq	r0, r0, r1, lsl #12
    189c:	15010402 	strne	r0, [r1, #-1026]	; 0xfffffbfe
    18a0:	02000905 	andeq	r0, r0, #81920	; 0x14000
    18a4:	05130104 	ldreq	r0, [r3, #-260]	; 0xfffffefc
    18a8:	04020010 	streq	r0, [r2], #-16
    18ac:	052e0601 	streq	r0, [lr, #-1537]!	; 0xfffff9ff
    18b0:	0402000b 	streq	r0, [r2], #-11
    18b4:	02002e01 	andeq	r2, r0, #1, 28
    18b8:	2f060104 	svccs	0x00060104
    18bc:	02000505 	andeq	r0, r0, #20971520	; 0x1400000
    18c0:	01060104 	tsteq	r6, r4, lsl #2
    18c4:	08054e06 	stmdaeq	r5, {r1, r2, r9, sl, fp, lr}
    18c8:	05050106 	streq	r0, [r5, #-262]	; 0xfffffefa
    18cc:	01040200 	mrseq	r0, R12_usr
    18d0:	09052f06 	stmdbeq	r5, {r1, r2, r8, r9, sl, fp, sp}
    18d4:	01040200 	mrseq	r0, R12_usr
    18d8:	000b0513 	andeq	r0, fp, r3, lsl r5
    18dc:	06010402 	streq	r0, [r1], -r2, lsl #8
    18e0:	00090501 	andeq	r0, r9, r1, lsl #10
    18e4:	06010402 	streq	r0, [r1], -r2, lsl #8
    18e8:	000f054b 	andeq	r0, pc, fp, asr #10
    18ec:	06010402 	streq	r0, [r1], -r2, lsl #8
    18f0:	000d0501 	andeq	r0, sp, r1, lsl #10
    18f4:	06010402 	streq	r0, [r1], -r2, lsl #8
    18f8:	0005052f 	andeq	r0, r5, pc, lsr #10
    18fc:	06010402 	streq	r0, [r1], -r2, lsl #8
    1900:	00060201 	andeq	r0, r6, r1, lsl #4
    1904:	00c30101 	sbceq	r0, r3, r1, lsl #2
    1908:	00030000 	andeq	r0, r3, r0
    190c:	0000007f 	andeq	r0, r0, pc, ror r0
    1910:	0efb0102 	cdpeq	1, 15, cr0, cr11, cr2, {0}
    1914:	0101000d 	tsteq	r1, sp
    1918:	00000101 	andeq	r0, r0, r1, lsl #2
    191c:	00000100 	andeq	r0, r0, r0, lsl #2
    1920:	6c2f2e01 	stcvs	14, cr2, [pc], #-4	; 1924 <__code_start__-0x66dc>
    1924:	00636269 	rsbeq	r6, r3, r9, ror #4
    1928:	6573552f 	ldrbvs	r5, [r3, #-1327]!	; 0xfffffad1
    192c:	742f7372 	strtvc	r7, [pc], #-882	; 1934 <__code_start__-0x66cc>
    1930:	74736972 	ldrbtvc	r6, [r3], #-2418	; 0xfffff68e
    1934:	6f6e6e65 	svcvs	0x006e6e65
    1938:	616d6c6c 	cmnvs	sp, ip, ror #24
    193c:	6f442f6e 	svcvs	0x00442f6e
    1940:	656d7563 	strbvs	r7, [sp, #-1379]!	; 0xfffffa9d
    1944:	2f73746e 	svccs	0x0073746e
    1948:	69727053 	ldmdbvs	r2!, {r0, r1, r4, r6, ip, sp, lr}^
    194c:	515f676e 	cmppl	pc, lr, ror #14
    1950:	74726175 	ldrbtvc	r6, [r2], #-373	; 0xfffffe8b
    1954:	325f7265 	subscc	r7, pc, #1342177286	; 0x50000006
    1958:	2f323230 	svccs	0x00323230
    195c:	34325343 	ldrtcc	r5, [r2], #-835	; 0xfffffcbd
    1960:	2d584c30 	ldclcs	12, cr4, [r8, #-192]	; 0xffffff40
    1964:	32727073 	rsbscc	r7, r2, #115, 0	; 0x73
    1968:	696c2f32 	stmdbvs	ip!, {r1, r4, r5, r8, r9, sl, fp, sp}^
    196c:	2f697062 	svccs	0x00697062
    1970:	6c636e69 	stclvs	14, cr6, [r3], #-420	; 0xfffffe5c
    1974:	00656475 	rsbeq	r6, r5, r5, ror r4
    1978:	72747300 	rsbsvc	r7, r4, #0, 6
    197c:	2e706d63 	cdpcs	13, 7, cr6, cr0, cr3, {3}
    1980:	00010063 	andeq	r0, r1, r3, rrx
    1984:	69707200 	ldmdbvs	r0!, {r9, ip, sp, lr}^
    1988:	0200682e 	andeq	r6, r0, #3014656	; 0x2e0000
    198c:	05000000 	streq	r0, [r0, #-0]
    1990:	0205002a 	andeq	r0, r5, #42, 0	; 0x2a
    1994:	00009248 	andeq	r9, r0, r8, asr #4
    1998:	13090514 	movwne	r0, #38164	; 0x9514
    199c:	05010f05 	streq	r0, [r1, #-3845]	; 0xfffff0fb
    19a0:	05010610 	streq	r0, [r1, #-1552]	; 0xfffff9f0
    19a4:	1c052e0f 	stcne	14, cr2, [r5], {15}
    19a8:	01040200 	mrseq	r0, R12_usr
    19ac:	0013054a 	andseq	r0, r3, sl, asr #10
    19b0:	2e010402 	cdpcs	4, 0, cr0, cr1, cr2, {0}
    19b4:	2f061105 	svccs	0x00061105
    19b8:	2e061605 	cfmadd32cs	mvax0, mvfx1, mvfx6, mvfx5
    19bc:	0609052e 	streq	r0, [r9], -lr, lsr #10
    19c0:	0615052f 	ldreq	r0, [r5], -pc, lsr #10
    19c4:	2f010501 	svccs	0x00010501
    19c8:	01000402 	tsteq	r0, r2, lsl #8
    19cc:	0000c101 	andeq	ip, r0, r1, lsl #2
    19d0:	7f000300 	svcvc	0x00000300
    19d4:	02000000 	andeq	r0, r0, #0, 0
    19d8:	0d0efb01 	vstreq	d15, [lr, #-4]
    19dc:	01010100 	mrseq	r0, (UNDEF: 17)
    19e0:	00000001 	andeq	r0, r0, r1
    19e4:	01000001 	tsteq	r0, r1
    19e8:	696c2f2e 	stmdbvs	ip!, {r1, r2, r3, r5, r8, r9, sl, fp, sp}^
    19ec:	2f006362 	svccs	0x00006362
    19f0:	72657355 	rsbvc	r7, r5, #1409286145	; 0x54000001
    19f4:	72742f73 	rsbsvc	r2, r4, #460	; 0x1cc
    19f8:	65747369 	ldrbvs	r7, [r4, #-873]!	; 0xfffffc97
    19fc:	6c6f6e6e 	stclvs	14, cr6, [pc], #-440	; 184c <__code_start__-0x67b4>
    1a00:	6e616d6c 	cdpvs	13, 6, cr6, cr1, cr12, {3}
    1a04:	636f442f 	cmnvs	pc, #788529152	; 0x2f000000
    1a08:	6e656d75 	mcrvs	13, 3, r6, cr5, cr5, {3}
    1a0c:	532f7374 			; <UNDEFINED> instruction: 0x532f7374
    1a10:	6e697270 	mcrvs	2, 3, r7, cr9, cr0, {3}
    1a14:	75515f67 	ldrbvc	r5, [r1, #-3943]	; 0xfffff099
    1a18:	65747261 	ldrbvs	r7, [r4, #-609]!	; 0xfffffd9f
    1a1c:	30325f72 	eorscc	r5, r2, r2, ror pc
    1a20:	432f3232 			; <UNDEFINED> instruction: 0x432f3232
    1a24:	30343253 	eorscc	r3, r4, r3, asr r2
    1a28:	732d584c 			; <UNDEFINED> instruction: 0x732d584c
    1a2c:	32327270 	eorscc	r7, r2, #112, 4
    1a30:	62696c2f 	rsbvs	r6, r9, #12032	; 0x2f00
    1a34:	692f6970 	stmdbvs	pc!, {r4, r5, r6, r8, fp, sp, lr}	; <UNPREDICTABLE>
    1a38:	756c636e 	strbvc	r6, [ip, #-878]!	; 0xfffffc92
    1a3c:	00006564 	andeq	r6, r0, r4, ror #10
    1a40:	63727473 	cmnvs	r2, #1929379840	; 0x73000000
    1a44:	632e7970 			; <UNDEFINED> instruction: 0x632e7970
    1a48:	00000100 	andeq	r0, r0, r0, lsl #2
    1a4c:	2e697072 	mcrcs	0, 3, r7, cr9, cr2, {3}
    1a50:	00020068 	andeq	r0, r2, r8, rrx
    1a54:	2a050000 	bcs	141a5c <__bss_end__+0x137dfc>
    1a58:	74020500 	strvc	r0, [r2], #-1280	; 0xfffffb00
    1a5c:	14000092 	strne	r0, [r0], #-146	; 0xffffff6e
    1a60:	13130505 	tstne	r3, #20971520	; 0x1400000
    1a64:	11061405 	tstne	r6, r5, lsl #8
    1a68:	02002205 	andeq	r2, r0, #1342177280	; 0x50000000
    1a6c:	2f060104 	svccs	0x00060104
    1a70:	02000b05 	andeq	r0, r0, #5120	; 0x1400
    1a74:	05010104 	streq	r0, [r1, #-260]	; 0xfffffefc
    1a78:	04020015 	streq	r0, [r2], #-21	; 0xffffffeb
    1a7c:	05010601 	streq	r0, [r1, #-1537]	; 0xfffff9ff
    1a80:	04020013 	streq	r0, [r2], #-19	; 0xffffffed
    1a84:	0b054a01 	bleq	154290 <__bss_end__+0x14a630>
    1a88:	01040200 	mrseq	r0, R12_usr
    1a8c:	0006024a 	andeq	r0, r6, sl, asr #4
    1a90:	01210101 			; <UNDEFINED> instruction: 0x01210101
    1a94:	00030000 	andeq	r0, r3, r0
    1a98:	000000e5 	andeq	r0, r0, r5, ror #1
    1a9c:	0efb0102 	cdpeq	1, 15, cr0, cr11, cr2, {0}
    1aa0:	0101000d 	tsteq	r1, sp
    1aa4:	00000101 	andeq	r0, r0, r1, lsl #2
    1aa8:	00000100 	andeq	r0, r0, r0, lsl #2
    1aac:	6c2f2e01 	stcvs	14, cr2, [pc], #-4	; 1ab0 <__code_start__-0x6550>
    1ab0:	00636269 	rsbeq	r6, r3, r9, ror #4
    1ab4:	6573552f 	ldrbvs	r5, [r3, #-1327]!	; 0xfffffad1
    1ab8:	742f7372 	strtvc	r7, [pc], #-882	; 1ac0 <__code_start__-0x6540>
    1abc:	74736972 	ldrbtvc	r6, [r3], #-2418	; 0xfffff68e
    1ac0:	6f6e6e65 	svcvs	0x006e6e65
    1ac4:	616d6c6c 	cmnvs	sp, ip, ror #24
    1ac8:	6f442f6e 	svcvs	0x00442f6e
    1acc:	656d7563 	strbvs	r7, [sp, #-1379]!	; 0xfffffa9d
    1ad0:	2f73746e 	svccs	0x0073746e
    1ad4:	69727053 	ldmdbvs	r2!, {r0, r1, r4, r6, ip, sp, lr}^
    1ad8:	515f676e 	cmppl	pc, lr, ror #14
    1adc:	74726175 	ldrbtvc	r6, [r2], #-373	; 0xfffffe8b
    1ae0:	325f7265 	subscc	r7, pc, #1342177286	; 0x50000006
    1ae4:	2f323230 	svccs	0x00323230
    1ae8:	34325343 	ldrtcc	r5, [r2], #-835	; 0xfffffcbd
    1aec:	2d584c30 	ldclcs	12, cr4, [r8, #-192]	; 0xffffff40
    1af0:	32727073 	rsbscc	r7, r2, #115, 0	; 0x73
    1af4:	696c2f32 	stmdbvs	ip!, {r1, r4, r5, r8, r9, sl, fp, sp}^
    1af8:	2f697062 	svccs	0x00697062
    1afc:	6c636e69 	stclvs	14, cr6, [r3], #-420	; 0xfffffe5c
    1b00:	00656475 	rsbeq	r6, r5, r5, ror r4
    1b04:	7273752f 	rsbsvc	r7, r3, #197132288	; 0xbc00000
    1b08:	636f6c2f 	cmnvs	pc, #12032	; 0x2f00
    1b0c:	432f6c61 			; <UNDEFINED> instruction: 0x432f6c61
    1b10:	616c6c65 	cmnvs	ip, r5, ror #24
    1b14:	72612f72 	rsbvc	r2, r1, #456	; 0x1c8
    1b18:	6f6e2d6d 	svcvs	0x006e2d6d
    1b1c:	652d656e 	strvs	r6, [sp, #-1390]!	; 0xfffffa92
    1b20:	2d696261 	sfmcs	f6, 2, [r9, #-388]!	; 0xfffffe7c
    1b24:	74736574 	ldrbtvc	r6, [r3], #-1396	; 0xfffffa8c
    1b28:	322d392f 	eorcc	r3, sp, #770048	; 0xbc000
    1b2c:	71393130 	teqvc	r9, r0, lsr r1
    1b30:	73632d34 	cmnvc	r3, #52, 26	; 0xd00
    1b34:	65373031 	ldrvs	r3, [r7, #-49]!	; 0xffffffcf
    1b38:	62696c2f 	rsbvs	r6, r9, #12032	; 0x2f00
    1b3c:	6363672f 	cmnvs	r3, #12320768	; 0xbc0000
    1b40:	6d72612f 	ldfvse	f6, [r2, #-188]!	; 0xffffff44
    1b44:	6e6f6e2d 	cdpvs	14, 6, cr6, cr15, cr13, {1}
    1b48:	61652d65 	cmnvs	r5, r5, ror #26
    1b4c:	392f6962 	stmdbcc	pc!, {r1, r5, r6, r8, fp, sp, lr}	; <UNPREDICTABLE>
    1b50:	312e322e 			; <UNDEFINED> instruction: 0x312e322e
    1b54:	636e692f 	cmnvs	lr, #770048	; 0xbc000
    1b58:	6564756c 	strbvs	r7, [r4, #-1388]!	; 0xfffffa94
    1b5c:	74730000 	ldrbtvc	r0, [r3], #-0
    1b60:	6d636e72 	stclvs	14, cr6, [r3, #-456]!	; 0xfffffe38
    1b64:	00632e70 	rsbeq	r2, r3, r0, ror lr
    1b68:	72000001 	andvc	r0, r0, #1, 0
    1b6c:	682e6970 	stmdavs	lr!, {r4, r5, r6, r8, fp, sp, lr}
    1b70:	00000200 	andeq	r0, r0, r0, lsl #4
    1b74:	64647473 	strbtvs	r7, [r4], #-1139	; 0xfffffb8d
    1b78:	682e6665 	stmdavs	lr!, {r0, r2, r5, r6, r9, sl, sp, lr}
    1b7c:	00000300 	andeq	r0, r0, r0, lsl #6
    1b80:	00390500 	eorseq	r0, r9, r0, lsl #10
    1b84:	92940205 	addsls	r0, r4, #1342177280	; 0x50000000
    1b88:	05150000 	ldreq	r0, [r5, #-0]
    1b8c:	05131305 	ldreq	r1, [r3, #-773]	; 0xfffffcfb
    1b90:	0106010a 	tsteq	r6, sl, lsl #2
    1b94:	0609054a 	streq	r0, [r9], -sl, asr #10
    1b98:	060c052f 	streq	r0, [ip], -pc, lsr #10
    1b9c:	2e130501 	cfmul32cs	mvfx0, mvfx3, mvfx1
    1ba0:	052e0b05 	streq	r0, [lr, #-2821]!	; 0xfffff4fb
    1ba4:	054b060d 	strbeq	r0, [fp, #-1549]	; 0xfffff9f3
    1ba8:	2e01061b 	mcrcs	6, 0, r0, cr1, cr11, {0}
    1bac:	05300c05 	ldreq	r0, [r0, #-3077]!	; 0xfffff3fb
    1bb0:	02022f01 	andeq	r2, r2, #1, 30
    1bb4:	b0010100 	andlt	r0, r1, r0, lsl #2
    1bb8:	03000000 	movweq	r0, #0
    1bbc:	00009400 	andeq	r9, r0, r0, lsl #8
    1bc0:	fb010200 	blx	423ca <__bss_end__+0x3876a>
    1bc4:	01000d0e 	tsteq	r0, lr, lsl #26
    1bc8:	00010101 	andeq	r0, r1, r1, lsl #2
    1bcc:	00010000 	andeq	r0, r1, r0
    1bd0:	2f2e0100 	svccs	0x002e0100
    1bd4:	66617473 			; <UNDEFINED> instruction: 0x66617473
    1bd8:	72732d66 	rsbsvc	r2, r3, #6528	; 0x1980
    1bdc:	552f0063 	strpl	r0, [pc, #-99]!	; 1b81 <__code_start__-0x647f>
    1be0:	73726573 	cmnvc	r2, #482344960	; 0x1cc00000
    1be4:	6972742f 	ldmdbvs	r2!, {r0, r1, r2, r3, r5, sl, ip, sp, lr}^
    1be8:	6e657473 	mcrvs	4, 3, r7, cr5, cr3, {3}
    1bec:	6c6c6f6e 	stclvs	15, cr6, [ip], #-440	; 0xfffffe48
    1bf0:	2f6e616d 	svccs	0x006e616d
    1bf4:	75636f44 	strbvc	r6, [r3, #-3908]!	; 0xfffff0bc
    1bf8:	746e656d 	strbtvc	r6, [lr], #-1389	; 0xfffffa93
    1bfc:	70532f73 	subsvc	r2, r3, r3, ror pc
    1c00:	676e6972 			; <UNDEFINED> instruction: 0x676e6972
    1c04:	6175515f 	cmnvs	r5, pc, asr r1
    1c08:	72657472 	rsbvc	r7, r5, #1912602624	; 0x72000000
    1c0c:	3230325f 	eorscc	r3, r0, #-268435451	; 0xf0000005
    1c10:	53432f32 	movtpl	r2, #16178	; 0x3f32
    1c14:	4c303432 	cfldrsmi	mvf3, [r0], #-200	; 0xffffff38
    1c18:	70732d58 	rsbsvc	r2, r3, r8, asr sp
    1c1c:	2f323272 	svccs	0x00323272
    1c20:	7062696c 	rsbvc	r6, r2, ip, ror #18
    1c24:	6e692f69 	cdpvs	15, 6, cr2, cr9, cr9, {3}
    1c28:	64756c63 	ldrbtvs	r6, [r5], #-3171	; 0xfffff39d
    1c2c:	64000065 	strvs	r0, [r0], #-101	; 0xffffff9b
    1c30:	75616665 	strbvc	r6, [r1, #-1637]!	; 0xfffff99b
    1c34:	722d746c 	eorvc	r7, sp, #108, 8	; 0x6c000000
    1c38:	6f6f6265 	svcvs	0x006f6265
    1c3c:	61632d74 	smcvs	13012	; 0x32d4
    1c40:	756f6c6c 	strbvc	r6, [pc, #-3180]!	; fdc <__code_start__-0x7024>
    1c44:	00632e74 	rsbeq	r2, r3, r4, ror lr
    1c48:	72000001 	andvc	r0, r0, #1, 0
    1c4c:	682e6970 	stmdavs	lr!, {r4, r5, r6, r8, fp, sp, lr}
    1c50:	00000200 	andeq	r0, r0, r0, lsl #4
    1c54:	001b0500 	andseq	r0, fp, r0, lsl #10
    1c58:	92c00205 	sbcls	r0, r0, #1342177280	; 0x50000000
    1c5c:	05140000 	ldreq	r0, [r4, #-0]
    1c60:	0105011c 	tsteq	r5, ip, lsl r1
    1c64:	02020106 	andeq	r0, r2, #-2147483647	; 0x80000001
    1c68:	bb010100 	bllt	42070 <__bss_end__+0x38410>
    1c6c:	03000001 	movweq	r0, #1
    1c70:	0000bf00 	andeq	fp, r0, r0, lsl #30
    1c74:	fb010200 	blx	4247e <__bss_end__+0x3881e>
    1c78:	01000d0e 	tsteq	r0, lr, lsl #26
    1c7c:	00010101 	andeq	r0, r1, r1, lsl #2
    1c80:	00010000 	andeq	r0, r1, r0
    1c84:	682f0100 	stmdavs	pc!, {r8}	; <UNPREDICTABLE>
    1c88:	2f656d6f 	svccs	0x00656d6f
    1c8c:	6c676e65 	stclvs	14, cr6, [r7], #-404	; 0xfffffe6c
    1c90:	632f7265 			; <UNDEFINED> instruction: 0x632f7265
    1c94:	7373616c 	cmnvc	r3, #27
    1c98:	3273632f 	rsbscc	r6, r3, #-1140850688	; 0xbc000000
    1c9c:	786c3034 	stmdavc	ip!, {r2, r4, r5, ip, sp}^
    1ca0:	7332322d 	teqvc	r2, #-805306366	; 0xd0000002
    1ca4:	2f2f7270 	svccs	0x002f7270
    1ca8:	7062696c 	rsbvc	r6, r2, ip, ror #18
    1cac:	6e692f69 	cdpvs	15, 6, cr2, cr9, cr9, {3}
    1cb0:	64756c63 	ldrbtvs	r6, [r5], #-3171	; 0xfffff39d
    1cb4:	752f0065 	strvc	r0, [pc, #-101]!	; 1c57 <__code_start__-0x63a9>
    1cb8:	732f7273 			; <UNDEFINED> instruction: 0x732f7273
    1cbc:	65726168 	ldrbvs	r6, [r2, #-360]!	; 0xfffffe98
    1cc0:	6363672f 	cmnvs	r3, #12320768	; 0xbc0000
    1cc4:	6d72612d 	ldfvse	f6, [r2, #-180]!	; 0xffffff4c
    1cc8:	6e6f6e2d 	cdpvs	14, 6, cr6, cr15, cr13, {1}
    1ccc:	61652d65 	cmnvs	r5, r5, ror #26
    1cd0:	312d6962 			; <UNDEFINED> instruction: 0x312d6962
    1cd4:	2d332e30 	ldccs	14, cr2, [r3, #-192]!	; 0xffffff40
    1cd8:	31323032 	teqcc	r2, r2, lsr r0
    1cdc:	2f30312e 	svccs	0x0030312e
    1ce0:	2f62696c 	svccs	0x0062696c
    1ce4:	2f636367 	svccs	0x00636367
    1ce8:	2d6d7261 	sfmcs	f7, 2, [sp, #-388]!	; 0xfffffe7c
    1cec:	656e6f6e 	strbvs	r6, [lr, #-3950]!	; 0xfffff092
    1cf0:	6261652d 	rsbvs	r6, r1, #188743680	; 0xb400000
    1cf4:	30312f69 	eorscc	r2, r1, r9, ror #30
    1cf8:	312e332e 			; <UNDEFINED> instruction: 0x312e332e
    1cfc:	636e692f 	cmnvs	lr, #770048	; 0xbc000
    1d00:	6564756c 	strbvs	r7, [r4, #-1388]!	; 0xfffffa94
    1d04:	70670000 	rsbvc	r0, r7, r0
    1d08:	632e6f69 			; <UNDEFINED> instruction: 0x632e6f69
    1d0c:	00000000 	andeq	r0, r0, r0
    1d10:	2e697072 	mcrcs	0, 3, r7, cr9, cr2, {3}
    1d14:	00010068 	andeq	r0, r1, r8, rrx
    1d18:	64747300 	ldrbtvs	r7, [r4], #-768	; 0xfffffd00
    1d1c:	2d746e69 	ldclcs	14, cr6, [r4, #-420]!	; 0xfffffe5c
    1d20:	2e636367 	cdpcs	3, 6, cr6, cr3, cr7, {3}
    1d24:	00020068 	andeq	r0, r2, r8, rrx
    1d28:	69706700 	ldmdbvs	r0!, {r8, r9, sl, sp, lr}^
    1d2c:	00682e6f 	rsbeq	r2, r8, pc, ror #28
    1d30:	00000001 	andeq	r0, r0, r1
    1d34:	05003805 	streq	r3, [r0, #-2053]	; 0xfffff7fb
    1d38:	0092dc02 	addseq	sp, r2, r2, lsl #24
    1d3c:	01270300 			; <UNDEFINED> instruction: 0x01270300
    1d40:	05130505 	ldreq	r0, [r3, #-1285]	; 0xfffffafb
    1d44:	05010607 	streq	r0, [r1, #-1543]	; 0xfffff9f9
    1d48:	05054938 	streq	r4, [r5, #-2360]	; 0xfffff6c8
    1d4c:	07054d06 	streq	r4, [r5, -r6, lsl #26]
    1d50:	05050106 	streq	r0, [r5, #-262]	; 0xfffffefa
    1d54:	18054c06 	stmdane	r5, {r1, r2, sl, fp, lr}
    1d58:	0e050106 	adfeqs	f0, f5, f6
    1d5c:	060505ba 			; <UNDEFINED> instruction: 0x060505ba
    1d60:	061c052f 	ldreq	r0, [ip], -pc, lsr #10
    1d64:	0e052e01 	cdpeq	14, 0, cr2, cr5, cr1, {0}
    1d68:	0605052e 	streq	r0, [r5], -lr, lsr #10
    1d6c:	06120530 			; <UNDEFINED> instruction: 0x06120530
    1d70:	06050501 	streq	r0, [r5], -r1, lsl #10
    1d74:	0607054b 	streq	r0, [r7], -fp, asr #10
    1d78:	06050501 	streq	r0, [r5], -r1, lsl #10
    1d7c:	2e06134b 	cdpcs	3, 0, cr1, cr6, cr11, {2}
    1d80:	054b0105 	strbeq	r0, [fp, #-261]	; 0xfffffefb
    1d84:	064c0624 	strbeq	r0, [ip], -r4, lsr #12
    1d88:	06050501 	streq	r0, [r5], -r1, lsl #10
    1d8c:	0601052f 	streq	r0, [r1], -pc, lsr #10
    1d90:	0620054b 	strteq	r0, [r0], -fp, asr #10
    1d94:	13050531 	movwne	r0, #21809	; 0x5531
    1d98:	01060705 	tsteq	r6, r5, lsl #14
    1d9c:	05492005 	strbeq	r2, [r9, #-5]
    1da0:	06310605 	ldrteq	r0, [r1], -r5, lsl #12
    1da4:	2f010566 	svccs	0x00010566
    1da8:	4d062105 	stfmis	f2, [r6, #-20]	; 0xffffffec
    1dac:	05130505 	ldreq	r0, [r3, #-1285]	; 0xfffffafb
    1db0:	05010607 	streq	r0, [r1, #-1543]	; 0xfffff9f9
    1db4:	05054921 	streq	r4, [r5, #-2337]	; 0xfffff6df
    1db8:	66063106 	strvs	r3, [r6], -r6, lsl #2
    1dbc:	052f0105 	streq	r0, [pc, #-261]!	; 1cbf <__code_start__-0x6341>
    1dc0:	064d0623 	strbeq	r0, [sp], -r3, lsr #12
    1dc4:	06050501 	streq	r0, [r5], -r1, lsl #10
    1dc8:	0601052f 	streq	r0, [r1], -pc, lsr #10
    1dcc:	062b054b 	strteq	r0, [fp], -fp, asr #10
    1dd0:	05010631 	streq	r0, [r1, #-1585]	; 0xfffff9cf
    1dd4:	052f0605 	streq	r0, [pc, #-1541]!	; 17d7 <__code_start__-0x6829>
    1dd8:	05010607 	streq	r0, [r1, #-1543]	; 0xfffff9f9
    1ddc:	064b0609 	strbeq	r0, [fp], -r9, lsl #12
    1de0:	0530062e 	ldreq	r0, [r0, #-1582]!	; 0xfffff9d2
    1de4:	052f0601 	streq	r0, [pc, #-1537]!	; 17eb <__code_start__-0x6815>
    1de8:	0530061d 	ldreq	r0, [r0, #-1565]!	; 0xfffff9e3
    1dec:	07051305 	streq	r1, [r5, -r5, lsl #6]
    1df0:	1d050106 	stfnes	f0, [r5, #-24]	; 0xffffffe8
    1df4:	06050549 	streq	r0, [r5], -r9, asr #10
    1df8:	0e051331 	mcreq	3, 0, r1, cr5, cr1, {1}
    1dfc:	05050106 	streq	r0, [r5, #-262]	; 0xfffffefa
    1e00:	17052f06 	strne	r2, [r5, -r6, lsl #30]
    1e04:	054a0106 	strbeq	r0, [sl, #-262]	; 0xfffffefa
    1e08:	02042e23 	andeq	r2, r4, #560	; 0x230
    1e0c:	03063005 	movweq	r3, #24581	; 0x6005
    1e10:	042e00dc 	strteq	r0, [lr], #-220	; 0xffffff24
    1e14:	060c0501 	streq	r0, [ip], -r1, lsl #10
    1e18:	017fa403 	cmneq	pc, r3, lsl #8
    1e1c:	052f0105 	streq	r0, [pc, #-261]!	; 1d1f <__code_start__-0x62e1>
    1e20:	01052a10 	tsteq	r5, r0, lsl sl
    1e24:	00040232 	andeq	r0, r4, r2, lsr r2
    1e28:	Address 0x0000000000001e28 is out of bounds.


Disassembly of section .debug_str:

00000000 <.debug_str>:
   0:	6d746f6e 	ldclvs	15, cr6, [r4, #-440]!	; 0xfffffe48
   4:	006e6961 	rsbeq	r6, lr, r1, ror #18
   8:	69736e75 	ldmdbvs	r3!, {r0, r2, r4, r5, r6, r9, sl, fp, sp, lr}^
   c:	64656e67 	strbtvs	r6, [r5], #-3687	; 0xfffff199
  10:	61686320 	cmnvs	r8, r0, lsr #6
  14:	6c630072 	stclvs	0, cr0, [r3], #-456	; 0xfffffe38
  18:	5f6e6165 	svcpl	0x006e6165
  1c:	6f626572 	svcvs	0x00626572
  20:	7300746f 	movwvc	r7, #1135	; 0x46f
  24:	74726f68 	ldrbtvc	r6, [r2], #-3944	; 0xfffff098
  28:	736e7520 	cmnvc	lr, #32, 10	; 0x8000000
  2c:	656e6769 	strbvs	r6, [lr, #-1897]!	; 0xfffff897
  30:	6e692064 	cdpvs	0, 6, cr2, cr9, cr4, {3}
  34:	6f640074 	svcvs	0x00640074
  38:	656c6275 	strbvs	r6, [ip, #-629]!	; 0xfffffd8b
  3c:	465f5f00 	ldrbmi	r5, [pc], -r0, lsl #30
  40:	54434e55 	strbpl	r4, [r3], #-3669	; 0xfffff1ab
  44:	5f4e4f49 	svcpl	0x004e4f49
  48:	746e005f 	strbtvc	r0, [lr], #-95	; 0xffffffa1
  4c:	73747365 	cmnvc	r4, #-1811939327	; 0x94000001
  50:	742d3100 	strtvc	r3, [sp], #-256	; 0xffffff00
  54:	2d747365 	ldclcs	3, cr7, [r4, #-404]!	; 0xfffffe6c
  58:	6c6c616d 	stfvse	f6, [ip], #-436	; 0xfffffe4c
  5c:	632e636f 			; <UNDEFINED> instruction: 0x632e636f
  60:	6e6f6c00 	cdpvs	12, 6, cr6, cr15, cr0, {0}
  64:	6f6c2067 	svcvs	0x006c2067
  68:	7520676e 	strvc	r6, [r0, #-1902]!	; 0xfffff892
  6c:	6769736e 	strbvs	r7, [r9, -lr, ror #6]!
  70:	2064656e 	rsbcs	r6, r4, lr, ror #10
  74:	00746e69 	rsbseq	r6, r4, r9, ror #28
  78:	676e6f6c 	strbvs	r6, [lr, -ip, ror #30]!
  7c:	6e6f6c20 	cdpvs	12, 6, cr6, cr15, cr0, {1}
  80:	6e692067 	cdpvs	0, 6, cr2, cr9, cr7, {3}
  84:	70720074 	rsbsvc	r0, r2, r4, ror r0
  88:	75705f69 	ldrbvc	r5, [r0, #-3945]!	; 0xfffff097
  8c:	61686374 	smcvs	34356	; 0x8634
  90:	552f0072 	strpl	r0, [pc, #-114]!	; 26 <__code_start__-0x7fda>
  94:	73726573 	cmnvc	r2, #482344960	; 0x1cc00000
  98:	6972742f 	ldmdbvs	r2!, {r0, r1, r2, r3, r5, sl, ip, sp, lr}^
  9c:	6e657473 	mcrvs	4, 3, r7, cr5, cr3, {3}
  a0:	6c6c6f6e 	stclvs	15, cr6, [ip], #-440	; 0xfffffe48
  a4:	2f6e616d 	svccs	0x006e616d
  a8:	75636f44 	strbvc	r6, [r3, #-3908]!	; 0xfffff0bc
  ac:	746e656d 	strbtvc	r6, [lr], #-1389	; 0xfffffa93
  b0:	70532f73 	subsvc	r2, r3, r3, ror pc
  b4:	676e6972 			; <UNDEFINED> instruction: 0x676e6972
  b8:	6175515f 	cmnvs	r5, pc, asr r1
  bc:	72657472 	rsbvc	r7, r5, #1912602624	; 0x72000000
  c0:	3230325f 	eorscc	r3, r0, #-268435451	; 0xf0000005
  c4:	53432f32 	movtpl	r2, #16178	; 0x3f32
  c8:	4c303432 	cfldrsmi	mvf3, [r0], #-200	; 0xffffff38
  cc:	70732d58 	rsbsvc	r2, r3, r8, asr sp
  d0:	2f323272 	svccs	0x00323272
  d4:	7362616c 	cmnvc	r2, #27
  d8:	6d2d352f 	cfstr32vs	mvfx3, [sp, #-188]!	; 0xffffff44
  dc:	6f6c6c61 	svcvs	0x006c6c61
  e0:	63672b63 	cmnvs	r7, #101376	; 0x18c00
  e4:	632d322f 			; <UNDEFINED> instruction: 0x632d322f
  e8:	6c6c616b 	stfvse	f6, [ip], #-428	; 0xfffffe54
  ec:	7300636f 	movwvc	r6, #879	; 0x36f
  f0:	74726f68 	ldrbtvc	r6, [r2], #-3944	; 0xfffff098
  f4:	746e6920 	strbtvc	r6, [lr], #-2336	; 0xfffff6e0
  f8:	5f726b00 	svcpl	0x00726b00
  fc:	6c6c616d 	stfvse	f6, [ip], #-436	; 0xfffffe4c
 100:	4700636f 	strmi	r6, [r0, -pc, ror #6]
 104:	4320554e 			; <UNDEFINED> instruction: 0x4320554e
 108:	39203939 	stmdbcc	r0!, {r0, r3, r4, r5, r8, fp, ip, sp}
 10c:	312e322e 			; <UNDEFINED> instruction: 0x312e322e
 110:	31303220 	teqcc	r0, r0, lsr #4
 114:	32303139 	eorscc	r3, r0, #1073741838	; 0x4000000e
 118:	72282035 	eorvc	r2, r8, #53, 0	; 0x35
 11c:	61656c65 	cmnvs	r5, r5, ror #24
 120:	20296573 	eorcs	r6, r9, r3, ror r5
 124:	4d52415b 	ldfmie	f4, [r2, #-364]	; 0xfffffe94
 128:	6d72612f 	ldfvse	f6, [r2, #-188]!	; 0xffffff44
 12c:	622d392d 	eorvs	r3, sp, #737280	; 0xb4000
 130:	636e6172 	cmnvs	lr, #-2147483620	; 0x8000001c
 134:	65722068 	ldrbvs	r2, [r2, #-104]!	; 0xffffff98
 138:	69736976 	ldmdbvs	r3!, {r1, r2, r4, r5, r6, r8, fp, sp, lr}^
 13c:	32206e6f 	eorcc	r6, r0, #1776	; 0x6f0
 140:	39353737 	ldmdbcc	r5!, {r0, r1, r2, r4, r5, r8, r9, sl, ip, sp}
 144:	2d205d39 	stccs	13, cr5, [r0, #-228]!	; 0xffffff1c
 148:	7570636d 	ldrbvc	r6, [r0, #-877]!	; 0xfffffc93
 14c:	6d72613d 	ldfvse	f6, [r2, #-244]!	; 0xffffff0c
 150:	36373131 			; <UNDEFINED> instruction: 0x36373131
 154:	2d667a6a 	vstmdbcs	r6!, {s15-s120}
 158:	6d2d2073 	stcvs	0, cr2, [sp, #-460]!	; 0xfffffe34
 15c:	656e7574 	strbvs	r7, [lr, #-1396]!	; 0xfffffa8c
 160:	6d72613d 	ldfvse	f6, [r2, #-244]!	; 0xffffff0c
 164:	36373131 			; <UNDEFINED> instruction: 0x36373131
 168:	2d667a6a 	vstmdbcs	r6!, {s15-s120}
 16c:	6d2d2073 	stcvs	0, cr2, [sp, #-460]!	; 0xfffffe34
 170:	616f6c66 	cmnvs	pc, r6, ror #24
 174:	62612d74 	rsbvs	r2, r1, #116, 26	; 0x1d00
 178:	6f733d69 	svcvs	0x00733d69
 17c:	2d207466 	cfstrscs	mvf7, [r0, #-408]!	; 0xfffffe68
 180:	6d72616d 	ldfvse	f6, [r2, #-436]!	; 0xfffffe4c
 184:	616d2d20 	cmnvs	sp, r0, lsr #26
 188:	3d686372 	stclcc	3, cr6, [r8, #-456]!	; 0xfffffe38
 18c:	766d7261 	strbtvc	r7, [sp], -r1, ror #4
 190:	207a6b36 	rsbscs	r6, sl, r6, lsr fp
 194:	6467672d 	strbtvs	r6, [r7], #-1837	; 0xfffff8d3
 198:	4f2d2062 	svcmi	0x002d2062
 19c:	732d2067 			; <UNDEFINED> instruction: 0x732d2067
 1a0:	673d6474 			; <UNDEFINED> instruction: 0x673d6474
 1a4:	3939756e 	ldmdbcc	r9!, {r1, r2, r3, r5, r6, r8, sl, ip, sp, lr}
 1a8:	66662d20 	strbtvs	r2, [r6], -r0, lsr #26
 1ac:	73656572 	cmnvc	r5, #478150656	; 0x1c800000
 1b0:	646e6174 	strbtvs	r6, [lr], #-372	; 0xfffffe8c
 1b4:	00676e69 	rsbeq	r6, r7, r9, ror #28
 1b8:	64616568 	strbtvs	r6, [r1], #-1384	; 0xfffffa98
 1bc:	70007265 	andvc	r7, r0, r5, ror #4
 1c0:	70766572 	rsbsvc	r6, r6, r2, ror r5
 1c4:	696c6100 	stmdbvs	ip!, {r8, sp, lr}^
 1c8:	6b006e67 	blvs	1bb6c <__bss_end__+0x11f0c>
 1cc:	72665f72 	rsbvc	r5, r6, #456	; 0x1c8
 1d0:	66006565 	strvs	r6, [r0], -r5, ror #10
 1d4:	70656572 	rsbvc	r6, r5, r2, ror r5
 1d8:	6e756e00 	cdpvs	14, 7, cr6, cr5, cr0, {0}
 1dc:	00737469 	rsbseq	r7, r3, r9, ror #8
 1e0:	6d2d726b 	sfmvs	f7, 4, [sp, #-428]!	; 0xfffffe54
 1e4:	6f6c6c61 	svcvs	0x006c6c61
 1e8:	00632e63 	rsbeq	r2, r3, r3, ror #28
 1ec:	65736162 	ldrbvs	r6, [r3, #-354]!	; 0xfffffe9e
 1f0:	5f726b00 	svcpl	0x00726b00
 1f4:	65726f6d 	ldrbvs	r6, [r2, #-3949]!	; 0xfffff093
 1f8:	65726f63 	ldrbvs	r6, [r2, #-3939]!	; 0xfffff09d
 1fc:	72627300 	rsbvc	r7, r2, #0, 6
 200:	6973006b 	ldmdbvs	r3!, {r0, r1, r3, r5, r6}^
 204:	4800657a 	stmdami	r0, {r1, r3, r4, r5, r6, r8, sl, sp, lr}
 208:	65646165 	strbvs	r6, [r4, #-357]!	; 0xfffffe9b
 20c:	6e690072 	mcrvs	0, 3, r0, cr9, cr2, {3}
 210:	6d657263 	sfmvs	f7, 2, [r5, #-396]!	; 0xfffffe74
 214:	00746e65 	rsbseq	r6, r4, r5, ror #28
 218:	6c616d6b 	stclvs	13, cr6, [r1], #-428	; 0xfffffe54
 21c:	00636f6c 	rsbeq	r6, r3, ip, ror #30
 220:	732d6970 			; <UNDEFINED> instruction: 0x732d6970
 224:	2e6b7262 	cdpcs	2, 6, cr7, cr11, cr2, {3}
 228:	4e470063 	cdpmi	0, 4, cr0, cr7, cr3, {3}
 22c:	39432055 	stmdbcc	r3, {r0, r2, r4, r6, sp}^
 230:	2e392039 	mrccs	0, 1, r2, cr9, cr9, {1}
 234:	20312e32 	eorscs	r2, r1, r2, lsr lr
 238:	39313032 	ldmdbcc	r1!, {r1, r4, r5, ip, sp}
 23c:	35323031 	ldrcc	r3, [r2, #-49]!	; 0xffffffcf
 240:	65722820 	ldrbvs	r2, [r2, #-2080]!	; 0xfffff7e0
 244:	7361656c 	cmnvc	r1, #108, 10	; 0x1b000000
 248:	5b202965 	blpl	80a7e4 <__bss_end__+0x800b84>
 24c:	2f4d5241 	svccs	0x004d5241
 250:	2d6d7261 	sfmcs	f7, 2, [sp, #-388]!	; 0xfffffe7c
 254:	72622d39 	rsbvc	r2, r2, #3648	; 0xe40
 258:	68636e61 	stmdavs	r3!, {r0, r5, r6, r9, sl, fp, sp, lr}^
 25c:	76657220 	strbtvc	r7, [r5], -r0, lsr #4
 260:	6f697369 	svcvs	0x00697369
 264:	3732206e 	ldrcc	r2, [r2, -lr, rrx]!
 268:	39393537 	ldmdbcc	r9!, {r0, r1, r2, r4, r5, r8, sl, ip, sp}
 26c:	6d2d205d 	stcvs	0, cr2, [sp, #-372]!	; 0xfffffe8c
 270:	3d757063 	ldclcc	0, cr7, [r5, #-396]!	; 0xfffffe74
 274:	316d7261 	cmncc	sp, r1, ror #4
 278:	6a363731 	bvs	d8df44 <__bss_end__+0xd842e4>
 27c:	732d667a 			; <UNDEFINED> instruction: 0x732d667a
 280:	746d2d20 	strbtvc	r2, [sp], #-3360	; 0xfffff2e0
 284:	3d656e75 	stclcc	14, cr6, [r5, #-468]!	; 0xfffffe2c
 288:	316d7261 	cmncc	sp, r1, ror #4
 28c:	6a363731 	bvs	d8df58 <__bss_end__+0xd842f8>
 290:	732d667a 			; <UNDEFINED> instruction: 0x732d667a
 294:	666d2d20 	strbtvs	r2, [sp], -r0, lsr #26
 298:	74616f6c 	strbtvc	r6, [r1], #-3948	; 0xfffff094
 29c:	6962612d 	stmdbvs	r2!, {r0, r2, r3, r5, r8, sp, lr}^
 2a0:	666f733d 			; <UNDEFINED> instruction: 0x666f733d
 2a4:	6d2d2074 	stcvs	0, cr2, [sp, #-464]!	; 0xfffffe30
 2a8:	206d7261 	rsbcs	r7, sp, r1, ror #4
 2ac:	72616d2d 	rsbvc	r6, r1, #2880	; 0xb40
 2b0:	613d6863 	teqvs	sp, r3, ror #16
 2b4:	36766d72 			; <UNDEFINED> instruction: 0x36766d72
 2b8:	2d207a6b 	vstmdbcs	r0!, {s14-s120}
 2bc:	62646767 	rsbvs	r6, r4, #27000832	; 0x19c0000
 2c0:	67672d20 	strbvs	r2, [r7, -r0, lsr #26]!
 2c4:	2d206264 	sfmcs	f6, 4, [r0, #-400]!	; 0xfffffe70
 2c8:	2d20674f 	stccs	7, cr6, [r0, #-316]!	; 0xfffffec4
 2cc:	2d20674f 	stccs	7, cr6, [r0, #-316]!	; 0xfffffec4
 2d0:	3d647473 	cfstrdcc	mvd7, [r4, #-460]!	; 0xfffffe34
 2d4:	39756e67 	ldmdbcc	r5!, {r0, r1, r2, r5, r6, r9, sl, fp, sp, lr}^
 2d8:	732d2039 			; <UNDEFINED> instruction: 0x732d2039
 2dc:	673d6474 			; <UNDEFINED> instruction: 0x673d6474
 2e0:	3939756e 	ldmdbcc	r9!, {r1, r2, r3, r5, r6, r8, sl, ip, sp, lr}
 2e4:	66662d20 	strbtvs	r2, [r6], -r0, lsr #26
 2e8:	73656572 	cmnvc	r5, #478150656	; 0x1c800000
 2ec:	646e6174 	strbtvs	r6, [lr], #-372	; 0xfffffe8c
 2f0:	00676e69 	rsbeq	r6, r7, r9, ror #28
 2f4:	73677261 	cmnvc	r7, #268435462	; 0x10000006
 2f8:	5f617600 	svcpl	0x00617600
 2fc:	6e697270 	mcrvs	2, 3, r7, cr9, cr0, {3}
 300:	5f006b74 	svcpl	0x00006b74
 304:	756e675f 	strbvc	r6, [lr, #-1887]!	; 0xfffff8a1
 308:	61765f63 	cmnvs	r6, r3, ror #30
 30c:	73696c5f 	cmnvc	r9, #24320	; 0x5f00
 310:	5f5f0074 	svcpl	0x005f0074
 314:	6c5f6176 	ldfvse	f6, [pc], {118}	; 0x76
 318:	00747369 	rsbseq	r7, r4, r9, ror #6
 31c:	70615f5f 	rsbvc	r5, r1, pc, asr pc
 320:	6c2f2e00 	stcvs	14, cr2, [pc], #-0	; 328 <__code_start__-0x7cd8>
 324:	2f636269 	svccs	0x00636269
 328:	6e697270 	mcrvs	2, 3, r7, cr9, cr0, {3}
 32c:	632e6b74 			; <UNDEFINED> instruction: 0x632e6b74
 330:	73552f00 	cmpvc	r5, #0, 30
 334:	2f737265 	svccs	0x00737265
 338:	73697274 	cmnvc	r9, #116, 4	; 0x40000007
 33c:	6e6e6574 	mcrvs	5, 3, r6, cr14, cr4, {3}
 340:	6d6c6c6f 	stclvs	12, cr6, [ip, #-444]!	; 0xfffffe44
 344:	442f6e61 	strtmi	r6, [pc], #-3681	; 34c <__code_start__-0x7cb4>
 348:	6d75636f 	ldclvs	3, cr6, [r5, #-444]!	; 0xfffffe44
 34c:	73746e65 	cmnvc	r4, #1616	; 0x650
 350:	7270532f 	rsbsvc	r5, r0, #-1140850688	; 0xbc000000
 354:	5f676e69 	svcpl	0x00676e69
 358:	72617551 	rsbvc	r7, r1, #339738624	; 0x14400000
 35c:	5f726574 	svcpl	0x00726574
 360:	32323032 	eorscc	r3, r2, #50, 0	; 0x32
 364:	3253432f 	subscc	r4, r3, #-1140850688	; 0xbc000000
 368:	584c3034 	stmdapl	ip, {r2, r4, r5, ip, sp}^
 36c:	7270732d 	rsbsvc	r7, r0, #-1275068416	; 0xb4000000
 370:	6c2f3232 	sfmvs	f3, 4, [pc], #-200	; 2b0 <__code_start__-0x7d50>
 374:	69706269 	ldmdbvs	r0!, {r0, r3, r5, r6, r9, sp, lr}^
 378:	746e6900 	strbtvc	r6, [lr], #-2304	; 0xfffff700
 37c:	616e7265 	cmnvs	lr, r5, ror #4
 380:	75705f6c 	ldrbvc	r5, [r0, #-3948]!	; 0xfffff094
 384:	2e006b74 	vmovcs.16	d0[1], r6
 388:	62696c2f 	rsbvs	r6, r9, #12032	; 0x2f00
 38c:	75702f63 	ldrbvc	r2, [r0, #-3939]!	; 0xfffff09d
 390:	632e6b74 			; <UNDEFINED> instruction: 0x632e6b74
 394:	64736900 	ldrbtvs	r6, [r3], #-2304	; 0xfffff700
 398:	74696769 	strbtvc	r6, [r9], #-1897	; 0xfffff897
 39c:	6e697500 	cdpvs	5, 6, cr7, cr9, cr0, {0}
 3a0:	5f343674 	svcpl	0x00343674
 3a4:	2f2e0074 	svccs	0x002e0074
 3a8:	6362696c 	cmnvs	r2, #108, 18	; 0x1b0000
 3ac:	2d61762f 	stclcs	6, cr7, [r1, #-188]!	; 0xffffff44
 3b0:	6e697270 	mcrvs	2, 3, r7, cr9, cr0, {3}
 3b4:	632e6b74 			; <UNDEFINED> instruction: 0x632e6b74
 3b8:	635f5f00 	cmpvs	pc, #0, 30
 3bc:	5f65646f 	svcpl	0x0065646f
 3c0:	72617473 	rsbvc	r7, r1, #1929379840	; 0x73000000
 3c4:	005f5f74 	subseq	r5, pc, r4, ror pc	; <UNPREDICTABLE>
 3c8:	73625f5f 	cmnvc	r2, #380	; 0x17c
 3cc:	74735f73 	ldrbtvc	r5, [r3], #-3955	; 0xfffff08d
 3d0:	5f747261 	svcpl	0x00747261
 3d4:	6977005f 	ldmdbvs	r7!, {r0, r1, r2, r3, r4, r6}^
 3d8:	00687464 	rsbeq	r7, r8, r4, ror #8
 3dc:	61645f5f 	cmnvs	r4, pc, asr pc
 3e0:	655f6174 	ldrbvs	r6, [pc, #-372]	; 274 <__code_start__-0x7d8c>
 3e4:	5f5f646e 	svcpl	0x005f646e
 3e8:	74757000 	ldrbtvc	r7, [r5], #-0
 3ec:	70665f63 	rsbvc	r5, r6, r3, ror #30
 3f0:	625f5f00 	subsvs	r5, pc, #0, 30
 3f4:	655f7373 	ldrbvs	r7, [pc, #-883]	; 89 <__code_start__-0x7f77>
 3f8:	5f5f646e 	svcpl	0x005f646e
 3fc:	685f5f00 	ldmdavs	pc, {r8, r9, sl, fp, ip, lr}^	; <UNPREDICTABLE>
 400:	5f706165 	svcpl	0x00706165
 404:	72617473 	rsbvc	r7, r1, #1929379840	; 0x73000000
 408:	005f5f74 	subseq	r5, pc, r4, ror pc	; <UNPREDICTABLE>
 40c:	746e6975 	strbtvc	r6, [lr], #-2421	; 0xfffff68b
 410:	745f3233 	ldrbvc	r3, [pc], #-563	; 418 <__code_start__-0x7be8>
 414:	69707200 	ldmdbvs	r0!, {r9, ip, sp, lr}^
 418:	7465735f 	strbtvc	r7, [r5], #-863	; 0xfffffca1
 41c:	74756f5f 	ldrbtvc	r6, [r5], #-3935	; 0xfffff0a1
 420:	00747570 	rsbseq	r7, r4, r0, ror r5
 424:	5f746d66 	svcpl	0x00746d66
 428:	72617473 	rsbvc	r7, r1, #1929379840	; 0x73000000
 42c:	74730074 	ldrbtvc	r0, [r3], #-116	; 0xffffff8c
 430:	79706372 	ldmdbvc	r0!, {r1, r4, r5, r6, r8, r9, sp, lr}^
 434:	67656e00 	strbvs	r6, [r5, -r0, lsl #28]!
 438:	5f00705f 	svcpl	0x0000705f
 43c:	646f635f 	strbtvs	r6, [pc], #-863	; 444 <__code_start__-0x7bbc>
 440:	6e655f65 	cdpvs	15, 6, cr5, cr5, cr5, {3}
 444:	005f5f64 	subseq	r5, pc, r4, ror #30
 448:	74696d65 	strbtvc	r6, [r9], #-3429	; 0xfffff29b
 44c:	74757000 	ldrbtvc	r7, [r5], #-0
 450:	70665f73 	rsbvc	r5, r6, r3, ror pc
 454:	76657200 	strbtvc	r7, [r5], -r0, lsl #4
 458:	65737265 	ldrbvs	r7, [r3, #-613]!	; 0xfffffd9b
 45c:	72747300 	rsbsvc	r7, r4, #0, 6
 460:	00746163 	rsbseq	r6, r4, r3, ror #2
 464:	63727473 	cmnvs	r2, #1929379840	; 0x73000000
 468:	5f00706d 	svcpl	0x0000706d
 46c:	7461645f 	strbtvc	r6, [r1], #-1119	; 0xfffffba1
 470:	74735f61 	ldrbtvc	r5, [r3], #-3937	; 0xfffff09f
 474:	5f747261 	svcpl	0x00747261
 478:	5f5f005f 	svcpl	0x005f005f
 47c:	676f7270 			; <UNDEFINED> instruction: 0x676f7270
 480:	646e655f 	strbtvs	r6, [lr], #-1375	; 0xfffffaa1
 484:	6e005f5f 	mcrvs	15, 0, r5, cr0, cr15, {2}
 488:	00316d75 	eorseq	r6, r1, r5, ror sp
 48c:	6e727473 	mrcvs	4, 3, r7, cr2, cr3, {3}
 490:	00706d63 	rsbseq	r6, r0, r3, ror #26
 494:	6e676973 			; <UNDEFINED> instruction: 0x6e676973
 498:	705f6465 	subsvc	r6, pc, r5, ror #8
 49c:	69707200 	ldmdbvs	r0!, {r9, ip, sp, lr}^
 4a0:	6265725f 	rsbvs	r7, r5, #-268435451	; 0xf0000005
 4a4:	00746f6f 	rsbseq	r6, r4, pc, ror #30
 4a8:	616c6564 	cmnvs	ip, r4, ror #10
 4ac:	736d5f79 	cmnvc	sp, #484	; 0x1e4
 4b0:	732f2e00 			; <UNDEFINED> instruction: 0x732f2e00
 4b4:	66666174 			; <UNDEFINED> instruction: 0x66666174
 4b8:	6372732d 	cmnvs	r2, #-1275068416	; 0xb4000000
 4bc:	656c632f 	strbvs	r6, [ip, #-815]!	; 0xfffffcd1
 4c0:	722d6e61 	eorvc	r6, sp, #1552	; 0x610
 4c4:	6f6f6265 	svcvs	0x006f6265
 4c8:	00632e74 	rsbeq	r2, r3, r4, ror lr
 4cc:	74726175 	ldrbtvc	r6, [r2], #-373	; 0xfffffe8b
 4d0:	756c665f 	strbvc	r6, [ip, #-1631]!	; 0xfffff9a1
 4d4:	745f6873 	ldrbvc	r6, [pc], #-2163	; 4dc <__code_start__-0x7b24>
 4d8:	635f0078 	cmpvs	pc, #120, 0	; 0x78
 4dc:	72617473 	rsbvc	r7, r1, #1929379840	; 0x73000000
 4e0:	73620074 	cmnvc	r2, #116, 0	; 0x74
 4e4:	6e655f73 	mcrvs	15, 3, r5, cr5, cr3, {3}
 4e8:	61750064 	cmnvs	r5, r4, rrx
 4ec:	695f7472 	ldmdbvs	pc, {r1, r4, r5, r6, sl, ip, sp, lr}^	; <UNPREDICTABLE>
 4f0:	0074696e 	rsbseq	r6, r4, lr, ror #18
 4f4:	74737563 	ldrbtvc	r7, [r3], #-1379	; 0xfffffa9d
 4f8:	6c5f6d6f 	mrrcvs	13, 6, r6, pc, cr15	; <UNPREDICTABLE>
 4fc:	6564616f 	strbvs	r6, [r4, #-367]!	; 0xfffffe91
 500:	2f2e0072 	svccs	0x002e0072
 504:	66617473 			; <UNDEFINED> instruction: 0x66617473
 508:	72732d66 	rsbsvc	r2, r3, #6528	; 0x1980
 50c:	73632f63 	cmnvc	r3, #396	; 0x18c
 510:	74726174 	ldrbtvc	r6, [r2], #-372	; 0xfffffe8c
 514:	2e00632e 	cdpcs	3, 0, cr6, cr0, cr14, {1}
 518:	6174732f 	cmnvs	r4, pc, lsr #6
 51c:	732d6666 			; <UNDEFINED> instruction: 0x732d6666
 520:	632f6372 			; <UNDEFINED> instruction: 0x632f6372
 524:	6f747375 	svcvs	0x00747375
 528:	6f6c2d6d 	svcvs	0x006c2d6d
 52c:	72656461 	rsbvc	r6, r5, #1627389952	; 0x61000000
 530:	7200632e 	andvc	r6, r0, #-1207959552	; 0xb8000000
 534:	6f6f6265 	svcvs	0x006f6265
 538:	61635f74 	smcvs	13812	; 0x35f4
 53c:	756f6c6c 	strbvc	r6, [pc, #-3180]!	; fffff8d8 <__bss_end__+0xffff5c78>
 540:	4d500074 	ldclmi	0, cr0, [r0, #-464]	; 0xfffffe30
 544:	4f44575f 	svcmi	0x0044575f
 548:	55500047 	ldrbpl	r0, [r0, #-71]	; 0xffffffb9
 54c:	00323354 	eorseq	r3, r2, r4, asr r3
 550:	5f746573 	svcpl	0x00746573
 554:	72657375 	rsbvc	r7, r5, #-738197503	; 0xd4000001
 558:	76656c5f 			; <UNDEFINED> instruction: 0x76656c5f
 55c:	2e006c65 	cdpcs	12, 0, cr6, cr0, cr5, {3}
 560:	6174732f 	cmnvs	r4, pc, lsr #6
 564:	732d6666 			; <UNDEFINED> instruction: 0x732d6666
 568:	722f6372 	eorvc	r6, pc, #-939524095	; 0xc8000001
 56c:	6f6f6265 	svcvs	0x006f6265
 570:	00632e74 	rsbeq	r2, r3, r4, ror lr
 574:	505f4d50 	subspl	r4, pc, r0, asr sp	; <UNPREDICTABLE>
 578:	57535341 	ldrbpl	r5, [r3, -r1, asr #6]
 57c:	0044524f 	subeq	r5, r4, pc, asr #4
 580:	755f7461 	ldrbvc	r7, [pc, #-1121]	; 127 <__code_start__-0x7ed9>
 584:	5f726573 	svcpl	0x00726573
 588:	6576656c 	ldrbvs	r6, [r6, #-1388]!	; 0xfffffa94
 58c:	4d50006c 	ldclmi	0, cr0, [r0, #-432]	; 0xfffffe50
 590:	5453525f 	ldrbpl	r5, [r3], #-607	; 0xfffffda1
 594:	52575f43 	subspl	r5, r7, #268	; 0x10c
 598:	5f474643 	svcpl	0x00474643
 59c:	4c4c5546 	cfstr64mi	mvdx5, [ip], {70}	; 0x46
 5a0:	5345525f 	movtpl	r5, #21087	; 0x525f
 5a4:	50005445 	andpl	r5, r0, r5, asr #8
 5a8:	53525f4d 	cmppl	r2, #308	; 0x134
 5ac:	63004354 	movwvs	r4, #852	; 0x354
 5b0:	00727370 	rsbseq	r7, r2, r0, ror r3
 5b4:	5f766564 	svcpl	0x00766564
 5b8:	72726162 	rsbsvc	r6, r2, #-2147483624	; 0x80000018
 5bc:	00726569 	rsbseq	r6, r2, r9, ror #10
 5c0:	616c6564 	cmnvs	ip, r4, ror #10
 5c4:	65735f79 	ldrbvs	r5, [r3, #-3961]!	; 0xfffff087
 5c8:	2f2e0063 	svccs	0x002e0063
 5cc:	66617473 			; <UNDEFINED> instruction: 0x66617473
 5d0:	72732d66 	rsbsvc	r2, r3, #6528	; 0x1980
 5d4:	69742f63 	ldmdbvs	r4!, {r0, r1, r5, r6, r8, r9, sl, fp, sp}^
 5d8:	2e72656d 	cdpcs	5, 7, cr6, cr2, cr13, {3}
 5dc:	45470063 	strbmi	r0, [r7, #-99]	; 0xffffff9d
 5e0:	00323354 	eorseq	r3, r2, r4, asr r3
 5e4:	656d6974 	strbvs	r6, [sp, #-2420]!	; 0xfffff68c
 5e8:	65675f72 	strbvs	r5, [r7, #-3954]!	; 0xfffff08e
 5ec:	73755f74 	cmnvc	r5, #116, 30	; 0x1d0
 5f0:	64006365 	strvs	r6, [r0], #-869	; 0xfffffc9b
 5f4:	79616c65 	stmdbvc	r1!, {r0, r2, r5, r6, sl, fp, sp, lr}^
 5f8:	0073755f 	rsbseq	r7, r3, pc, asr r5
 5fc:	656d6974 	strbvs	r6, [sp, #-2420]!	; 0xfffff68c
 600:	65675f72 	strbvs	r5, [r7, #-3954]!	; 0xfffff08e
 604:	73755f74 	cmnvc	r5, #116, 30	; 0x1d0
 608:	725f6365 	subsvc	r6, pc, #-1811939327	; 0x94000001
 60c:	70007761 	andvc	r7, r0, r1, ror #14
 610:	32337475 	eorscc	r7, r3, #1962934272	; 0x75000000
 614:	75616200 	strbvc	r6, [r1, #-512]!	; 0xfffffe00
 618:	61765f64 	cmnvs	r6, r4, ror #30
 61c:	7473006c 	ldrbtvc	r0, [r3], #-108	; 0xffffff94
 620:	75007461 	strvc	r7, [r0, #-1121]	; 0xfffffb9f
 624:	5f747261 	svcpl	0x00747261
 628:	5f6e6163 	svcpl	0x006e6163
 62c:	63746567 	cmnvs	r4, #432013312	; 0x19c00000
 630:	49504700 	ldmdbmi	r0, {r8, r9, sl, lr}^
 634:	55465f4f 	strbpl	r5, [r6, #-3919]	; 0xfffff0b1
 638:	4f5f434e 	svcmi	0x005f434e
 63c:	55505455 	ldrbpl	r5, [r0, #-1109]	; 0xfffffbab
 640:	75610054 	strbvc	r0, [r1, #-84]!	; 0xffffffac
 644:	65705f78 	ldrbvs	r5, [r0, #-3960]!	; 0xfffff088
 648:	68706972 	ldmdavs	r0!, {r1, r4, r5, r6, r8, fp, sp, lr}^
 64c:	61750073 	cmnvs	r5, r3, ror r0
 650:	632e7472 			; <UNDEFINED> instruction: 0x632e7472
 654:	72617500 	rsbvc	r7, r1, #0, 10
 658:	61635f74 	smcvs	13812	; 0x35f4
 65c:	75705f6e 	ldrbvc	r5, [r0, #-3950]!	; 0xfffff092
 660:	75006374 	strvc	r6, [r0, #-884]	; 0xfffffc8c
 664:	5f747261 	svcpl	0x00747261
 668:	695f7874 	ldmdbvs	pc, {r2, r4, r5, r6, fp, ip, sp, lr}^	; <UNPREDICTABLE>
 66c:	6d655f73 	stclvs	15, cr5, [r5, #-460]!	; 0xfffffe34
 670:	00797470 	rsbseq	r7, r9, r0, ror r4
 674:	4f495047 	svcmi	0x00495047
 678:	4e55465f 	mrcmi	6, 2, r4, cr5, cr15, {2}
 67c:	4c415f43 	mcrrmi	15, 4, r5, r1, cr3
 680:	47003054 	smlsdmi	r0, r4, r0, r3
 684:	5f4f4950 	svcpl	0x004f4950
 688:	434e5546 	movtmi	r5, #58694	; 0xe546
 68c:	544c415f 	strbpl	r4, [ip], #-351	; 0xfffffea1
 690:	50470031 	subpl	r0, r7, r1, lsr r0
 694:	465f4f49 	ldrbmi	r4, [pc], -r9, asr #30
 698:	5f434e55 	svcpl	0x00434e55
 69c:	32544c41 	subscc	r4, r4, #16640	; 0x4100
 6a0:	49504700 	ldmdbmi	r0, {r8, r9, sl, lr}^
 6a4:	55465f4f 	strbpl	r5, [r6, #-3919]	; 0xfffff0b1
 6a8:	415f434e 	cmpmi	pc, lr, asr #6
 6ac:	0033544c 	eorseq	r5, r3, ip, asr #8
 6b0:	4f495047 	svcmi	0x00495047
 6b4:	4e55465f 	mrcmi	6, 2, r4, cr5, cr15, {2}
 6b8:	4c415f43 	mcrrmi	15, 4, r5, r1, cr3
 6bc:	2f003554 	svccs	0x00003554
 6c0:	656d6f68 	strbvs	r6, [sp, #-3944]!	; 0xfffff098
 6c4:	676e652f 	strbvs	r6, [lr, -pc, lsr #10]!
 6c8:	2f72656c 	svccs	0x0072656c
 6cc:	73616c63 	cmnvc	r1, #25344	; 0x6300
 6d0:	73632f73 	cmnvc	r3, #460	; 0x1cc
 6d4:	6c303432 	cfldrsvs	mvf3, [r0], #-200	; 0xffffff38
 6d8:	32322d78 	eorscc	r2, r2, #120, 26	; 0x1e00
 6dc:	2f727073 	svccs	0x00727073
 6e0:	7062696c 	rsbvc	r6, r2, ip, ror #18
 6e4:	74732f69 	ldrbtvc	r2, [r3], #-3945	; 0xfffff097
 6e8:	2d666661 	stclcs	6, cr6, [r6, #-388]!	; 0xfffffe7c
 6ec:	76697270 			; <UNDEFINED> instruction: 0x76697270
 6f0:	00657461 	rsbeq	r7, r5, r1, ror #8
 6f4:	64756162 	ldrbtvs	r6, [r5], #-354	; 0xfffffe9e
 6f8:	78756100 	ldmdavc	r5!, {r8, sp, lr}^
 6fc:	616e655f 	cmnvs	lr, pc, asr r5
 700:	73656c62 	cmnvc	r5, #25088	; 0x6200
 704:	72617500 	rsbvc	r7, r1, #0, 10
 708:	65675f74 	strbvs	r5, [r7, #-3956]!	; 0xfffff08c
 70c:	47006374 	smlsdxmi	r0, r4, r3, r6
 710:	4320554e 			; <UNDEFINED> instruction: 0x4320554e
 714:	31203939 			; <UNDEFINED> instruction: 0x31203939
 718:	2e332e30 	mrccs	14, 1, r2, cr3, cr0, {1}
 71c:	30322031 	eorscc	r2, r2, r1, lsr r0
 720:	38303132 	ldmdacc	r0!, {r1, r4, r5, r8, ip, sp}
 724:	28203432 	stmdacs	r0!, {r1, r4, r5, sl, ip, sp}
 728:	656c6572 	strbvs	r6, [ip, #-1394]!	; 0xfffffa8e
 72c:	29657361 	stmdbcs	r5!, {r0, r5, r6, r8, r9, ip, sp, lr}^
 730:	636d2d20 	cmnvs	sp, #32, 26	; 0x800
 734:	613d7570 	teqvs	sp, r0, ror r5
 738:	31316d72 	teqcc	r1, r2, ror sp
 73c:	7a6a3637 	bvc	1a8e020 <__bss_end__+0x1a843c0>
 740:	20732d66 	rsbscs	r2, r3, r6, ror #26
 744:	75746d2d 	ldrbvc	r6, [r4, #-3373]!	; 0xfffff2d3
 748:	613d656e 	teqvs	sp, lr, ror #10
 74c:	31316d72 	teqcc	r1, r2, ror sp
 750:	7a6a3637 	bvc	1a8e034 <__bss_end__+0x1a843d4>
 754:	20732d66 	rsbscs	r2, r3, r6, ror #26
 758:	6c666d2d 	stclvs	13, cr6, [r6], #-180	; 0xffffff4c
 75c:	2d74616f 	ldfcse	f6, [r4, #-444]!	; 0xfffffe44
 760:	3d696261 	sfmcc	f6, 2, [r9, #-388]!	; 0xfffffe7c
 764:	74666f73 	strbtvc	r6, [r6], #-3955	; 0xfffff08d
 768:	616d2d20 	cmnvs	sp, r0, lsr #26
 76c:	2d206d72 	stccs	13, cr6, [r0, #-456]!	; 0xfffffe38
 770:	6372616d 	cmnvs	r2, #1073741851	; 0x4000001b
 774:	72613d68 	rsbvc	r3, r1, #104, 26	; 0x1a00
 778:	6b36766d 	blvs	d9e134 <__bss_end__+0xd944d4>
 77c:	672d207a 			; <UNDEFINED> instruction: 0x672d207a
 780:	20626467 	rsbcs	r6, r2, r7, ror #8
 784:	20674f2d 	rsbcs	r4, r7, sp, lsr #30
 788:	6474732d 	ldrbtvs	r7, [r4], #-813	; 0xfffffcd3
 78c:	756e673d 	strbvc	r6, [lr, #-1853]!	; 0xfffff8c3
 790:	2d203939 			; <UNDEFINED> instruction: 0x2d203939
 794:	65726666 	ldrbvs	r6, [r2, #-1638]!	; 0xfffff99a
 798:	61747365 	cmnvs	r4, r5, ror #6
 79c:	6e69646e 	cdpvs	4, 6, cr6, cr9, cr14, {3}
 7a0:	6e630067 	cdpvs	0, 6, cr0, cr3, cr7, {3}
 7a4:	75006c74 	strvc	r6, [r0, #-3188]	; 0xfffff38c
 7a8:	5f747261 	svcpl	0x00747261
 7ac:	61736964 	cmnvs	r3, r4, ror #18
 7b0:	00656c62 	rsbeq	r6, r5, r2, ror #24
 7b4:	74726175 	ldrbtvc	r6, [r2], #-373	; 0xfffffe8b
 7b8:	7361685f 	cmnvc	r1, #6225920	; 0x5f0000
 7bc:	7461645f 	strbtvc	r6, [r1], #-1119	; 0xfffffba1
 7c0:	50470061 	subpl	r0, r7, r1, rrx
 7c4:	465f4f49 	ldrbmi	r4, [pc], -r9, asr #30
 7c8:	5f434e55 	svcpl	0x00434e55
 7cc:	34544c41 	ldrbcc	r4, [r4], #-3137	; 0xfffff3bf
 7d0:	5f726f00 	svcpl	0x00726f00
 7d4:	32336e69 	eorscc	r6, r3, #1680	; 0x690
 7d8:	72637300 	rsbvc	r7, r3, #0, 6
 7dc:	68637461 	stmdavs	r3!, {r0, r5, r6, sl, ip, sp, lr}^
 7e0:	72617500 	rsbvc	r7, r1, #0, 10
 7e4:	6e610074 	mcrvs	0, 3, r0, cr1, cr4, {3}
 7e8:	6e695f64 	cdpvs	15, 6, cr5, cr9, cr4, {3}
 7ec:	75003233 	strvc	r3, [r0, #-563]	; 0xfffffdcd
 7f0:	5f747261 	svcpl	0x00747261
 7f4:	63747570 	cmnvs	r4, #112, 10	; 0x1c000000
 7f8:	49504700 	ldmdbmi	r0, {r8, r9, sl, lr}^
 7fc:	55465f4f 	strbpl	r5, [r6, #-3919]	; 0xfffff0b1
 800:	495f434e 	ldmdbmi	pc, {r1, r2, r3, r6, r8, r9, lr}^	; <UNPREDICTABLE>
 804:	5455504e 	ldrbpl	r5, [r5], #-78	; 0xffffffb2
 808:	69706700 	ldmdbvs	r0!, {r8, r9, sl, sp, lr}^
 80c:	65735f6f 	ldrbvs	r5, [r3, #-3951]!	; 0xfffff091
 810:	75665f74 	strbvc	r5, [r6, #-3956]!	; 0xfffff08c
 814:	6974636e 	ldmdbvs	r4!, {r1, r2, r3, r5, r6, r8, r9, sp, lr}^
 818:	67006e6f 	strvs	r6, [r0, -pc, ror #28]
 81c:	32337465 	eorscc	r7, r3, #1694498816	; 0x65000000
 820:	616d6b00 	cmnvs	sp, r0, lsl #22
 824:	636f6c6c 	cmnvs	pc, #108, 24	; 0x6c00
 828:	6165685f 	cmnvs	r5, pc, asr r8
 82c:	74735f70 	ldrbtvc	r5, [r3], #-3952	; 0xfffff090
 830:	00747261 	rsbseq	r7, r4, r1, ror #4
 834:	5f78616d 	svcpl	0x0078616d
 838:	7479626e 	ldrbtvc	r6, [r9], #-622	; 0xfffffd92
 83c:	5f007365 	svcpl	0x00007365
 840:	72646461 	rsbvc	r6, r4, #1627389952	; 0x61000000
 844:	72666b00 	rsbvc	r6, r6, #0, 22
 848:	68006565 	stmdavs	r0, {r0, r2, r5, r6, r8, sl, sp, lr}
 84c:	5f706165 	svcpl	0x00706165
 850:	0078616d 	rsbseq	r6, r8, sp, ror #2
 854:	6572666b 	ldrbvs	r6, [r2, #-1643]!	; 0xfffff995
 858:	6c615f65 	stclvs	15, cr5, [r1], #-404	; 0xfffffe6c
 85c:	6f72006c 	svcvs	0x0072006c
 860:	75646e75 	strbvc	r6, [r4, #-3701]!	; 0xfffff18b
 864:	65680070 	strbvs	r0, [r8, #-112]!	; 0xffffff90
 868:	69007061 	stmdbvs	r0, {r0, r5, r6, ip, sp, lr}
 86c:	5f74696e 	svcpl	0x0074696e
 870:	666b0070 			; <UNDEFINED> instruction: 0x666b0070
 874:	5f656572 	svcpl	0x00656572
 878:	00706f70 	rsbseq	r6, r0, r0, ror pc
 87c:	736d656d 	cmnvc	sp, #457179136	; 0x1b400000
 880:	61007465 	tstvs	r0, r5, ror #8
 884:	6e67696c 	vnmulvs.f16	s13, s14, s25	; <UNPREDICTABLE>
 888:	746e656d 	strbtvc	r6, [lr], #-1389	; 0xfffffa93
 88c:	78616d00 	stmdavc	r1!, {r8, sl, fp, sp, lr}^
 890:	3233755f 	eorscc	r7, r3, #398458880	; 0x17c00000
 894:	656e4f00 	strbvs	r4, [lr, #-3840]!	; 0xfffff100
 898:	6b00424d 	blvs	111d4 <__bss_end__+0x7574>
 89c:	6c6c616d 	stfvse	f6, [ip], #-436	; 0xfffffe4c
 8a0:	685f636f 	ldmdavs	pc, {r0, r1, r2, r3, r5, r6, r8, r9, sp, lr}^	; <UNPREDICTABLE>
 8a4:	5f706165 	svcpl	0x00706165
 8a8:	00646e65 	rsbeq	r6, r4, r5, ror #28
 8ac:	6c616d6b 	stclvs	13, cr6, [r1], #-428	; 0xfffffe54
 8b0:	5f636f6c 	svcpl	0x00636f6c
 8b4:	7a746f6e 	bvc	1d1c674 <__bss_end__+0x1d12a14>
 8b8:	006f7265 	rsbeq	r7, pc, r5, ror #4
 8bc:	705f7369 	subsvc	r7, pc, r9, ror #6
 8c0:	0032776f 	eorseq	r7, r2, pc, ror #14
 8c4:	6c616d6b 	stclvs	13, cr6, [r1], #-428	; 0xfffffe54
 8c8:	2e636f6c 	cdpcs	15, 6, cr6, cr3, cr12, {3}
 8cc:	6d6b0063 	stclvs	0, cr0, [fp, #-396]!	; 0xfffffe74
 8d0:	6f6c6c61 	svcvs	0x006c6c61
 8d4:	6e695f63 	cdpvs	15, 6, cr5, cr9, cr3, {3}
 8d8:	69007469 	stmdbvs	r0, {r0, r3, r5, r6, sl, ip, sp, lr}
 8dc:	6c615f73 	stclvs	15, cr5, [r1], #-460	; 0xfffffe34
 8e0:	656e6769 	strbvs	r6, [lr, #-1897]!	; 0xfffff897
 8e4:	6d6b0064 	stclvs	0, cr0, [fp, #-400]!	; 0xfffffe70
 8e8:	6f6c6c61 	svcvs	0x006c6c61
 8ec:	65685f63 	strbvs	r5, [r8, #-3939]!	; 0xfffff09d
 8f0:	705f7061 	subsvc	r7, pc, r1, rrx
 8f4:	6b007274 	blvs	1d2cc <__bss_end__+0x1366c>
 8f8:	6c6c616d 	stfvse	f6, [ip], #-436	; 0xfffffe4c
 8fc:	695f636f 	ldmdbvs	pc, {r0, r1, r2, r3, r5, r6, r8, r9, sp, lr}^	; <UNPREDICTABLE>
 900:	5f74696e 	svcpl	0x0074696e
 904:	5f746573 	svcpl	0x00746573
 908:	72617473 	rsbvc	r7, r1, #1929379840	; 0x73000000
 90c:	70720074 	rsbsvc	r0, r2, r4, ror r0
 910:	65725f69 	ldrbvs	r5, [r2, #-3945]!	; 0xfffff097
 914:	5f746573 	svcpl	0x00746573
 918:	63747570 	cmnvs	r4, #112, 10	; 0x1c000000
 91c:	616d6b00 	cmnvs	sp, r0, lsl #22
 920:	636f6c6c 	cmnvs	pc, #108, 24	; 0x6c00
 924:	696c615f 	stmdbvs	ip!, {r0, r1, r2, r3, r4, r6, r8, sp, lr}^
 928:	64656e67 	strbtvs	r6, [r5], #-3687	; 0xfffff199
 92c:	7a697300 	bvc	1a5d534 <__bss_end__+0x1a538d4>
 930:	00745f65 	rsbseq	r5, r4, r5, ror #30
 934:	696c2f2e 	stmdbvs	ip!, {r1, r2, r3, r5, r8, r9, sl, fp, sp}^
 938:	6d2f6362 	stcvs	3, cr6, [pc, #-392]!	; 7b8 <__code_start__-0x7848>
 93c:	65736d65 	ldrbvs	r6, [r3, #-3429]!	; 0xfffff29b
 940:	00632e74 	rsbeq	r2, r3, r4, ror lr
 944:	65746e69 	ldrbvs	r6, [r4, #-3689]!	; 0xfffff197
 948:	6c616e72 	stclvs	14, cr6, [r1], #-456	; 0xfffffe38
 94c:	7475705f 	ldrbtvc	r7, [r5], #-95	; 0xffffffa1
 950:	72616863 	rsbvc	r6, r1, #6488064	; 0x630000
 954:	69707200 	ldmdbvs	r0!, {r9, ip, sp, lr}^
 958:	7465735f 	strbtvc	r7, [r5], #-863	; 0xfffffca1
 95c:	7475705f 	ldrbtvc	r7, [r5], #-95	; 0xffffffa1
 960:	2f2e0063 	svccs	0x002e0063
 964:	6362696c 	cmnvs	r2, #108, 18	; 0x1b0000
 968:	7475702f 	ldrbtvc	r7, [r5], #-47	; 0xffffffd1
 96c:	72616863 	rsbvc	r6, r1, #6488064	; 0x630000
 970:	6400632e 	strvs	r6, [r0], #-814	; 0xfffffcd2
 974:	00747365 	rsbseq	r7, r4, r5, ror #6
 978:	696c2f2e 	stmdbvs	ip!, {r1, r2, r3, r5, r8, r9, sl, fp, sp}^
 97c:	732f6362 			; <UNDEFINED> instruction: 0x732f6362
 980:	61637274 	smcvs	14116	; 0x3724
 984:	00632e74 	rsbeq	r2, r3, r4, ror lr
 988:	696c2f2e 	stmdbvs	ip!, {r1, r2, r3, r5, r8, r9, sl, fp, sp}^
 98c:	732f6362 			; <UNDEFINED> instruction: 0x732f6362
 990:	6d637274 	sfmvs	f7, 2, [r3, #-464]!	; 0xfffffe30
 994:	00632e70 	rsbeq	r2, r3, r0, ror lr
 998:	696c2f2e 	stmdbvs	ip!, {r1, r2, r3, r5, r8, r9, sl, fp, sp}^
 99c:	732f6362 			; <UNDEFINED> instruction: 0x732f6362
 9a0:	70637274 	rsbvc	r7, r3, r4, ror r2
 9a4:	00632e79 	rsbeq	r2, r3, r9, ror lr
 9a8:	696c2f2e 	stmdbvs	ip!, {r1, r2, r3, r5, r8, r9, sl, fp, sp}^
 9ac:	732f6362 			; <UNDEFINED> instruction: 0x732f6362
 9b0:	636e7274 	cmnvs	lr, #116, 4	; 0x40000007
 9b4:	632e706d 			; <UNDEFINED> instruction: 0x632e706d
 9b8:	732f2e00 			; <UNDEFINED> instruction: 0x732f2e00
 9bc:	66666174 			; <UNDEFINED> instruction: 0x66666174
 9c0:	6372732d 	cmnvs	r2, #-1275068416	; 0xb4000000
 9c4:	6665642f 	strbtvs	r6, [r5], -pc, lsr #8
 9c8:	746c7561 	strbtvc	r7, [ip], #-1377	; 0xfffffa9f
 9cc:	6265722d 	rsbvs	r7, r5, #-805306366	; 0xd0000002
 9d0:	2d746f6f 	ldclcs	15, cr6, [r4, #-444]!	; 0xfffffe44
 9d4:	6c6c6163 	stfvse	f6, [ip], #-396	; 0xfffffe74
 9d8:	2e74756f 	cdpcs	5, 7, cr7, cr4, cr15, {3}
 9dc:	70670063 	rsbvc	r0, r7, r3, rrx
 9e0:	635f6f69 	cmpvs	pc, #420	; 0x1a4
 9e4:	0030726c 	eorseq	r7, r0, ip, ror #4
 9e8:	6f697067 	svcvs	0x00697067
 9ec:	7465735f 	strbtvc	r7, [r5], #-863	; 0xfffffca1
 9f0:	70670030 	rsbvc	r0, r7, r0, lsr r0
 9f4:	775f6f69 	ldrbvc	r6, [pc, -r9, ror #30]
 9f8:	65746972 	ldrbvs	r6, [r4, #-2418]!	; 0xfffff68e
 9fc:	56454400 	strbpl	r4, [r5], -r0, lsl #8
 a00:	4c41565f 	mcrrmi	6, 5, r5, r1, cr15
 a04:	67003233 	smladxvs	r0, r3, r2, r3
 a08:	5f6f6970 	svcpl	0x006f6970
 a0c:	64616572 	strbtvs	r6, [r1], #-1394	; 0xfffffa8e
 a10:	69706700 	ldmdbvs	r0!, {r8, r9, sl, sp, lr}^
 a14:	65735f6f 	ldrbvs	r5, [r3, #-3951]!	; 0xfffff091
 a18:	6e695f74 	mcrvs	15, 3, r5, cr9, cr4, {3}
 a1c:	00747570 	rsbseq	r7, r4, r0, ror r5
 a20:	6f697067 	svcvs	0x00697067
 a24:	7465735f 	strbtvc	r7, [r5], #-863	; 0xfffffca1
 a28:	66666f5f 	uqsaxvs	r6, r6, pc	; <UNPREDICTABLE>
 a2c:	69706700 	ldmdbvs	r0!, {r8, r9, sl, sp, lr}^
 a30:	65735f6f 	ldrbvs	r5, [r3, #-3951]!	; 0xfffff091
 a34:	756f5f74 	strbvc	r5, [pc, #-3956]!	; fffffac8 <__bss_end__+0xffff5e68>
 a38:	74757074 	ldrbtvc	r7, [r5], #-116	; 0xffffff8c
 a3c:	6e756600 	cdpvs	6, 7, cr6, cr5, cr0, {0}
 a40:	70670063 	rsbvc	r0, r7, r3, rrx
 a44:	665f6f69 	ldrbvs	r6, [pc], -r9, ror #30
 a48:	5f636e75 	svcpl	0x00636e75
 a4c:	70670074 	rsbvc	r0, r7, r4, ror r0
 a50:	6c5f6f69 	mrrcvs	15, 6, r6, pc, cr9	; <UNPREDICTABLE>
 a54:	00307665 	eorseq	r7, r0, r5, ror #12
 a58:	6b6e6162 	blvs	1b98fe8 <__bss_end__+0x1b8f388>
 a5c:	69706700 	ldmdbvs	r0!, {r8, r9, sl, sp, lr}^
 a60:	00632e6f 	rsbeq	r2, r3, pc, ror #28
 a64:	6f697067 	svcvs	0x00697067
 a68:	7465735f 	strbtvc	r7, [r5], #-863	; 0xfffffca1
 a6c:	006e6f5f 	rsbeq	r6, lr, pc, asr pc

Disassembly of section .debug_frame:

00000000 <.debug_frame>:
   0:	0000000c 	andeq	r0, r0, ip
   4:	ffffffff 			; <UNDEFINED> instruction: 0xffffffff
   8:	7c020001 	stcvc	0, cr0, [r2], {1}
   c:	000d0c0e 	andeq	r0, sp, lr, lsl #24
  10:	00000020 	andeq	r0, r0, r0, lsr #32
  14:	00000000 	andeq	r0, r0, r0
  18:	00008038 	andeq	r8, r0, r8, lsr r0
  1c:	000000f4 	strdeq	r0, [r0], -r4
  20:	84100e42 	ldrhi	r0, [r0], #-3650	; 0xfffff1be
  24:	86038504 	strhi	r8, [r3], -r4, lsl #10
  28:	42018e02 	andmi	r8, r1, #2, 28
  2c:	6402200e 	strvs	r2, [r2], #-14
  30:	0000100e 	andeq	r1, r0, lr
  34:	0000000c 	andeq	r0, r0, ip
  38:	ffffffff 			; <UNDEFINED> instruction: 0xffffffff
  3c:	7c020001 	stcvc	0, cr0, [r2], {1}
  40:	000d0c0e 	andeq	r0, sp, lr, lsl #24
  44:	00000014 	andeq	r0, r0, r4, lsl r0
  48:	00000034 	andeq	r0, r0, r4, lsr r0
  4c:	0000812c 	andeq	r8, r0, ip, lsr #2
  50:	000000bc 	strheq	r0, [r0], -ip
  54:	8e040e42 	cdphi	14, 0, cr0, cr4, cr2, {2}
  58:	00000001 	andeq	r0, r0, r1
  5c:	00000014 	andeq	r0, r0, r4, lsl r0
  60:	00000034 	andeq	r0, r0, r4, lsr r0
  64:	000081e8 	andeq	r8, r0, r8, ror #3
  68:	00000044 	andeq	r0, r0, r4, asr #32
  6c:	84080e42 	strhi	r0, [r8], #-3650	; 0xfffff1be
  70:	00018e02 	andeq	r8, r1, r2, lsl #28
  74:	00000014 	andeq	r0, r0, r4, lsl r0
  78:	00000034 	andeq	r0, r0, r4, lsr r0
  7c:	0000822c 	andeq	r8, r0, ip, lsr #4
  80:	000000ac 	andeq	r0, r0, ip, lsr #1
  84:	84080e42 	strhi	r0, [r8], #-3650	; 0xfffff1be
  88:	00018e02 	andeq	r8, r1, r2, lsl #28
  8c:	0000000c 	andeq	r0, r0, ip
  90:	ffffffff 			; <UNDEFINED> instruction: 0xffffffff
  94:	7c020001 	stcvc	0, cr0, [r2], {1}
  98:	000d0c0e 	andeq	r0, sp, lr, lsl #24
  9c:	00000014 	andeq	r0, r0, r4, lsl r0
  a0:	0000008c 	andeq	r0, r0, ip, lsl #1
  a4:	000082d8 	ldrdeq	r8, [r0], -r8	; <UNPREDICTABLE>
  a8:	0000000c 	andeq	r0, r0, ip
  ac:	84080e42 	strhi	r0, [r8], #-3650	; 0xfffff1be
  b0:	00018e02 	andeq	r8, r1, r2, lsl #28
  b4:	0000000c 	andeq	r0, r0, ip
  b8:	ffffffff 			; <UNDEFINED> instruction: 0xffffffff
  bc:	7c020001 	stcvc	0, cr0, [r2], {1}
  c0:	000d0c0e 	andeq	r0, sp, lr, lsl #24
  c4:	00000034 	andeq	r0, r0, r4, lsr r0
  c8:	000000b4 	strheq	r0, [r0], -r4
  cc:	000082e4 	andeq	r8, r0, r4, ror #5
  d0:	00000058 	andeq	r0, r0, r8, asr r0
  d4:	80100e42 	andshi	r0, r0, r2, asr #28
  d8:	82038104 	andhi	r8, r3, #1
  dc:	42018302 	andmi	r8, r1, #134217728	; 0x8000000
  e0:	07841c0e 	streq	r1, [r4, lr, lsl #24]
  e4:	058e0685 	streq	r0, [lr, #1669]	; 0x685
  e8:	5c280e42 	stcpl	14, cr0, [r8], #-264	; 0xfffffef8
  ec:	ce421c0e 	cdpgt	12, 4, cr1, cr2, cr14, {0}
  f0:	100ec4c5 	andne	ip, lr, r5, asr #9
  f4:	c1c2c342 	bicgt	ip, r2, r2, asr #6
  f8:	00000ec0 	andeq	r0, r0, r0, asr #29
  fc:	0000000c 	andeq	r0, r0, ip
 100:	ffffffff 			; <UNDEFINED> instruction: 0xffffffff
 104:	7c020001 	stcvc	0, cr0, [r2], {1}
 108:	000d0c0e 	andeq	r0, sp, lr, lsl #24
 10c:	00000014 	andeq	r0, r0, r4, lsl r0
 110:	000000fc 	strdeq	r0, [r0], -ip
 114:	0000833c 	andeq	r8, r0, ip, lsr r3
 118:	00000034 	andeq	r0, r0, r4, lsr r0
 11c:	84080e42 	strhi	r0, [r8], #-3650	; 0xfffff1be
 120:	00018e02 	andeq	r8, r1, r2, lsl #28
 124:	0000000c 	andeq	r0, r0, ip
 128:	ffffffff 			; <UNDEFINED> instruction: 0xffffffff
 12c:	7c020001 	stcvc	0, cr0, [r2], {1}
 130:	000d0c0e 	andeq	r0, sp, lr, lsl #24
 134:	0000000c 	andeq	r0, r0, ip
 138:	00000124 	andeq	r0, r0, r4, lsr #2
 13c:	00008370 	andeq	r8, r0, r0, ror r3
 140:	00000014 	andeq	r0, r0, r4, lsl r0
 144:	0000000c 	andeq	r0, r0, ip
 148:	00000124 	andeq	r0, r0, r4, lsr #2
 14c:	00008384 	andeq	r8, r0, r4, lsl #7
 150:	00000024 	andeq	r0, r0, r4, lsr #32
 154:	0000000c 	andeq	r0, r0, ip
 158:	00000124 	andeq	r0, r0, r4, lsr #2
 15c:	000083a8 	andeq	r8, r0, r8, lsr #7
 160:	00000038 	andeq	r0, r0, r8, lsr r0
 164:	00000024 	andeq	r0, r0, r4, lsr #32
 168:	00000124 	andeq	r0, r0, r4, lsr #2
 16c:	000083e0 	andeq	r8, r0, r0, ror #7
 170:	000001b4 			; <UNDEFINED> instruction: 0x000001b4
 174:	84140e42 	ldrhi	r0, [r4], #-3650	; 0xfffff1be
 178:	86048505 	strhi	r8, [r4], -r5, lsl #10
 17c:	8e028703 	cdphi	7, 0, cr8, cr2, cr3, {0}
 180:	600e4201 	andvs	r4, lr, r1, lsl #4
 184:	0e0a9a02 	vmlaeq.f32	s18, s20, s4
 188:	000b4214 	andeq	r4, fp, r4, lsl r2
 18c:	00000014 	andeq	r0, r0, r4, lsl r0
 190:	00000124 	andeq	r0, r0, r4, lsr #2
 194:	00008594 	muleq	r0, r4, r5
 198:	00000064 	andeq	r0, r0, r4, rrx
 19c:	8e040e54 	mcrhi	14, 0, r0, cr4, cr4, {2}
 1a0:	100e4201 	andne	r4, lr, r1, lsl #4
 1a4:	0000002c 	andeq	r0, r0, ip, lsr #32
 1a8:	00000124 	andeq	r0, r0, r4, lsr #2
 1ac:	000085f8 	strdeq	r8, [r0], -r8	; <UNPREDICTABLE>
 1b0:	000004b8 			; <UNDEFINED> instruction: 0x000004b8
 1b4:	84240e42 	strthi	r0, [r4], #-3650	; 0xfffff1be
 1b8:	86088509 	strhi	r8, [r8], -r9, lsl #10
 1bc:	88068707 	stmdahi	r6, {r0, r1, r2, r8, r9, sl, pc}
 1c0:	8a048905 	bhi	1225dc <__bss_end__+0x11897c>
 1c4:	8e028b03 	vmlahi.f64	d8, d2, d3
 1c8:	b80e4201 	stmdalt	lr, {r0, r9, lr}
 1cc:	02380302 	eorseq	r0, r8, #134217728	; 0x8000000
 1d0:	0000240e 	andeq	r2, r0, lr, lsl #8
 1d4:	0000000c 	andeq	r0, r0, ip
 1d8:	ffffffff 			; <UNDEFINED> instruction: 0xffffffff
 1dc:	7c020001 	stcvc	0, cr0, [r2], {1}
 1e0:	000d0c0e 	andeq	r0, sp, lr, lsl #24
 1e4:	00000014 	andeq	r0, r0, r4, lsl r0
 1e8:	000001d4 	ldrdeq	r0, [r0], -r4
 1ec:	00008ab0 			; <UNDEFINED> instruction: 0x00008ab0
 1f0:	0000002c 	andeq	r0, r0, ip, lsr #32
 1f4:	84080e42 	strhi	r0, [r8], #-3650	; 0xfffff1be
 1f8:	00018e02 	andeq	r8, r1, r2, lsl #28
 1fc:	0000000c 	andeq	r0, r0, ip
 200:	ffffffff 			; <UNDEFINED> instruction: 0xffffffff
 204:	7c020001 	stcvc	0, cr0, [r2], {1}
 208:	000d0c0e 	andeq	r0, sp, lr, lsl #24
 20c:	00000014 	andeq	r0, r0, r4, lsl r0
 210:	000001fc 	strdeq	r0, [r0], -ip
 214:	00008adc 	ldrdeq	r8, [r0], -ip
 218:	0000003c 	andeq	r0, r0, ip, lsr r0
 21c:	84080e42 	strhi	r0, [r8], #-3650	; 0xfffff1be
 220:	00018e02 	andeq	r8, r1, r2, lsl #28
 224:	0000000c 	andeq	r0, r0, ip
 228:	ffffffff 			; <UNDEFINED> instruction: 0xffffffff
 22c:	7c020001 	stcvc	0, cr0, [r2], {1}
 230:	000d0c0e 	andeq	r0, sp, lr, lsl #24
 234:	0000000c 	andeq	r0, r0, ip
 238:	00000224 	andeq	r0, r0, r4, lsr #4
 23c:	00008b18 	andeq	r8, r0, r8, lsl fp
 240:	00000004 	andeq	r0, r0, r4
 244:	0000000c 	andeq	r0, r0, ip
 248:	ffffffff 			; <UNDEFINED> instruction: 0xffffffff
 24c:	7c020001 	stcvc	0, cr0, [r2], {1}
 250:	000d0c0e 	andeq	r0, sp, lr, lsl #24
 254:	0000000c 	andeq	r0, r0, ip
 258:	00000244 	andeq	r0, r0, r4, asr #4
 25c:	00008b1c 	andeq	r8, r0, ip, lsl fp
 260:	00000018 	andeq	r0, r0, r8, lsl r0
 264:	0000000c 	andeq	r0, r0, ip
 268:	00000244 	andeq	r0, r0, r4, asr #4
 26c:	00008b34 	andeq	r8, r0, r4, lsr fp
 270:	00000014 	andeq	r0, r0, r4, lsl r0
 274:	00000014 	andeq	r0, r0, r4, lsl r0
 278:	00000244 	andeq	r0, r0, r4, asr #4
 27c:	00008b48 	andeq	r8, r0, r8, asr #22
 280:	00000054 	andeq	r0, r0, r4, asr r0
 284:	84080e42 	strhi	r0, [r8], #-3650	; 0xfffff1be
 288:	00018e02 	andeq	r8, r1, r2, lsl #28
 28c:	0000000c 	andeq	r0, r0, ip
 290:	ffffffff 			; <UNDEFINED> instruction: 0xffffffff
 294:	7c020001 	stcvc	0, cr0, [r2], {1}
 298:	000d0c0e 	andeq	r0, sp, lr, lsl #24
 29c:	00000014 	andeq	r0, r0, r4, lsl r0
 2a0:	0000028c 	andeq	r0, r0, ip, lsl #5
 2a4:	00008b9c 	muleq	r0, ip, fp
 2a8:	00000014 	andeq	r0, r0, r4, lsl r0
 2ac:	84080e42 	strhi	r0, [r8], #-3650	; 0xfffff1be
 2b0:	00018e02 	andeq	r8, r1, r2, lsl #28
 2b4:	00000014 	andeq	r0, r0, r4, lsl r0
 2b8:	0000028c 	andeq	r0, r0, ip, lsl #5
 2bc:	00008bb0 			; <UNDEFINED> instruction: 0x00008bb0
 2c0:	0000001c 	andeq	r0, r0, ip, lsl r0
 2c4:	84080e42 	strhi	r0, [r8], #-3650	; 0xfffff1be
 2c8:	00018e02 	andeq	r8, r1, r2, lsl #28
 2cc:	00000018 	andeq	r0, r0, r8, lsl r0
 2d0:	0000028c 	andeq	r0, r0, ip, lsl #5
 2d4:	00008bcc 	andeq	r8, r0, ip, asr #23
 2d8:	00000024 	andeq	r0, r0, r4, lsr #32
 2dc:	84100e42 	ldrhi	r0, [r0], #-3650	; 0xfffff1be
 2e0:	86038504 	strhi	r8, [r3], -r4, lsl #10
 2e4:	00018e02 	andeq	r8, r1, r2, lsl #28
 2e8:	00000014 	andeq	r0, r0, r4, lsl r0
 2ec:	0000028c 	andeq	r0, r0, ip, lsl #5
 2f0:	00008bf0 	strdeq	r8, [r0], -r0
 2f4:	00000018 	andeq	r0, r0, r8, lsl r0
 2f8:	84080e42 	strhi	r0, [r8], #-3650	; 0xfffff1be
 2fc:	00018e02 	andeq	r8, r1, r2, lsl #28
 300:	00000014 	andeq	r0, r0, r4, lsl r0
 304:	0000028c 	andeq	r0, r0, ip, lsl #5
 308:	00008c08 	andeq	r8, r0, r8, lsl #24
 30c:	00000018 	andeq	r0, r0, r8, lsl r0
 310:	84080e42 	strhi	r0, [r8], #-3650	; 0xfffff1be
 314:	00018e02 	andeq	r8, r1, r2, lsl #28
 318:	0000000c 	andeq	r0, r0, ip
 31c:	ffffffff 			; <UNDEFINED> instruction: 0xffffffff
 320:	7c020001 	stcvc	0, cr0, [r2], {1}
 324:	000d0c0e 	andeq	r0, sp, lr, lsl #24
 328:	00000018 	andeq	r0, r0, r8, lsl r0
 32c:	00000318 	andeq	r0, r0, r8, lsl r3
 330:	00008c20 	andeq	r8, r0, r0, lsr #24
 334:	00000020 	andeq	r0, r0, r0, lsr #32
 338:	84100e42 	ldrhi	r0, [r0], #-3650	; 0xfffff1be
 33c:	86038504 	strhi	r8, [r3], -r4, lsl #10
 340:	00018e02 	andeq	r8, r1, r2, lsl #28
 344:	00000018 	andeq	r0, r0, r8, lsl r0
 348:	00000318 	andeq	r0, r0, r8, lsl r3
 34c:	00008c40 	andeq	r8, r0, r0, asr #24
 350:	00000020 	andeq	r0, r0, r0, lsr #32
 354:	84100e42 	ldrhi	r0, [r0], #-3650	; 0xfffff1be
 358:	86038504 	strhi	r8, [r3], -r4, lsl #10
 35c:	00018e02 	andeq	r8, r1, r2, lsl #28
 360:	00000014 	andeq	r0, r0, r4, lsl r0
 364:	00000318 	andeq	r0, r0, r8, lsl r3
 368:	00008c60 	andeq	r8, r0, r0, ror #24
 36c:	000000b0 	strheq	r0, [r0], -r0	; <UNPREDICTABLE>
 370:	84080e42 	strhi	r0, [r8], #-3650	; 0xfffff1be
 374:	00018e02 	andeq	r8, r1, r2, lsl #28
 378:	00000014 	andeq	r0, r0, r4, lsl r0
 37c:	00000318 	andeq	r0, r0, r8, lsl r3
 380:	00008d10 	andeq	r8, r0, r0, lsl sp
 384:	00000018 	andeq	r0, r0, r8, lsl r0
 388:	84080e42 	strhi	r0, [r8], #-3650	; 0xfffff1be
 38c:	00018e02 	andeq	r8, r1, r2, lsl #28
 390:	00000014 	andeq	r0, r0, r4, lsl r0
 394:	00000318 	andeq	r0, r0, r8, lsl r3
 398:	00008d28 	andeq	r8, r0, r8, lsr #26
 39c:	00000020 	andeq	r0, r0, r0, lsr #32
 3a0:	84080e42 	strhi	r0, [r8], #-3650	; 0xfffff1be
 3a4:	00018e02 	andeq	r8, r1, r2, lsl #28
 3a8:	00000014 	andeq	r0, r0, r4, lsl r0
 3ac:	00000318 	andeq	r0, r0, r8, lsl r3
 3b0:	00008d48 	andeq	r8, r0, r8, asr #26
 3b4:	00000030 	andeq	r0, r0, r0, lsr r0
 3b8:	84080e42 	strhi	r0, [r8], #-3650	; 0xfffff1be
 3bc:	00018e02 	andeq	r8, r1, r2, lsl #28
 3c0:	00000014 	andeq	r0, r0, r4, lsl r0
 3c4:	00000318 	andeq	r0, r0, r8, lsl r3
 3c8:	00008d78 	andeq	r8, r0, r8, ror sp
 3cc:	00000030 	andeq	r0, r0, r0, lsr r0
 3d0:	84080e42 	strhi	r0, [r8], #-3650	; 0xfffff1be
 3d4:	00018e02 	andeq	r8, r1, r2, lsl #28
 3d8:	00000014 	andeq	r0, r0, r4, lsl r0
 3dc:	00000318 	andeq	r0, r0, r8, lsl r3
 3e0:	00008da8 	andeq	r8, r0, r8, lsr #27
 3e4:	00000010 	andeq	r0, r0, r0, lsl r0
 3e8:	84080e42 	strhi	r0, [r8], #-3650	; 0xfffff1be
 3ec:	00018e02 	andeq	r8, r1, r2, lsl #28
 3f0:	00000014 	andeq	r0, r0, r4, lsl r0
 3f4:	00000318 	andeq	r0, r0, r8, lsl r3
 3f8:	00008db8 			; <UNDEFINED> instruction: 0x00008db8
 3fc:	00000020 	andeq	r0, r0, r0, lsr #32
 400:	84080e42 	strhi	r0, [r8], #-3650	; 0xfffff1be
 404:	00018e02 	andeq	r8, r1, r2, lsl #28
 408:	00000014 	andeq	r0, r0, r4, lsl r0
 40c:	00000318 	andeq	r0, r0, r8, lsl r3
 410:	00008dd8 	ldrdeq	r8, [r0], -r8	; <UNPREDICTABLE>
 414:	00000014 	andeq	r0, r0, r4, lsl r0
 418:	84080e42 	strhi	r0, [r8], #-3650	; 0xfffff1be
 41c:	00018e02 	andeq	r8, r1, r2, lsl #28
 420:	00000014 	andeq	r0, r0, r4, lsl r0
 424:	00000318 	andeq	r0, r0, r8, lsl r3
 428:	00008dec 	andeq	r8, r0, ip, ror #27
 42c:	00000024 	andeq	r0, r0, r4, lsr #32
 430:	84080e42 	strhi	r0, [r8], #-3650	; 0xfffff1be
 434:	00018e02 	andeq	r8, r1, r2, lsl #28
 438:	0000000c 	andeq	r0, r0, ip
 43c:	ffffffff 			; <UNDEFINED> instruction: 0xffffffff
 440:	7c020001 	stcvc	0, cr0, [r2], {1}
 444:	000d0c0e 	andeq	r0, sp, lr, lsl #24
 448:	0000000c 	andeq	r0, r0, ip
 44c:	00000438 	andeq	r0, r0, r8, lsr r4
 450:	00008e10 	andeq	r8, r0, r0, lsl lr
 454:	00000010 	andeq	r0, r0, r0, lsl r0
 458:	0000000c 	andeq	r0, r0, ip
 45c:	00000438 	andeq	r0, r0, r8, lsr r4
 460:	00008e20 	andeq	r8, r0, r0, lsr #28
 464:	00000010 	andeq	r0, r0, r0, lsl r0
 468:	0000000c 	andeq	r0, r0, ip
 46c:	00000438 	andeq	r0, r0, r8, lsr r4
 470:	00008e30 	andeq	r8, r0, r0, lsr lr
 474:	00000010 	andeq	r0, r0, r0, lsl r0
 478:	0000001c 	andeq	r0, r0, ip, lsl r0
 47c:	00000438 	andeq	r0, r0, r8, lsr r4
 480:	00008e40 	andeq	r8, r0, r0, asr #28
 484:	0000009c 	muleq	r0, ip, r0
 488:	8e040e42 	cdphi	14, 0, cr0, cr4, cr2, {2}
 48c:	100e4201 	andne	r4, lr, r1, lsl #4
 490:	040e0a58 	streq	r0, [lr], #-2648	; 0xfffff5a8
 494:	00000b42 	andeq	r0, r0, r2, asr #22
 498:	00000014 	andeq	r0, r0, r4, lsl r0
 49c:	00000438 	andeq	r0, r0, r8, lsr r4
 4a0:	00008edc 	ldrdeq	r8, [r0], -ip
 4a4:	00000058 	andeq	r0, r0, r8, asr r0
 4a8:	84080e42 	strhi	r0, [r8], #-3650	; 0xfffff1be
 4ac:	00018e02 	andeq	r8, r1, r2, lsl #28
 4b0:	0000001c 	andeq	r0, r0, ip, lsl r0
 4b4:	00000438 	andeq	r0, r0, r8, lsr r4
 4b8:	00008f34 	andeq	r8, r0, r4, lsr pc
 4bc:	00000098 	muleq	r0, r8, r0
 4c0:	8e040e42 	cdphi	14, 0, cr0, cr4, cr2, {2}
 4c4:	100e4201 	andne	r4, lr, r1, lsl #4
 4c8:	040e0a58 	streq	r0, [lr], #-2648	; 0xfffff5a8
 4cc:	00000b42 	andeq	r0, r0, r2, asr #22
 4d0:	00000020 	andeq	r0, r0, r0, lsr #32
 4d4:	00000438 	andeq	r0, r0, r8, lsr r4
 4d8:	00008fcc 	andeq	r8, r0, ip, asr #31
 4dc:	00000064 	andeq	r0, r0, r4, rrx
 4e0:	840c0e42 	strhi	r0, [ip], #-3650	; 0xfffff1be
 4e4:	8e028503 	cfsh32hi	mvfx8, mvfx2, #3
 4e8:	180e4201 	stmdane	lr, {r0, r9, lr}
 4ec:	0c0e0a54 			; <UNDEFINED> instruction: 0x0c0e0a54
 4f0:	00000b42 	andeq	r0, r0, r2, asr #22
 4f4:	0000001c 	andeq	r0, r0, ip, lsl r0
 4f8:	00000438 	andeq	r0, r0, r8, lsr r4
 4fc:	00009030 	andeq	r9, r0, r0, lsr r0
 500:	00000118 	andeq	r0, r0, r8, lsl r1
 504:	8e040e42 	cdphi	14, 0, cr0, cr4, cr2, {2}
 508:	100e4201 	andne	r4, lr, r1, lsl #4
 50c:	040e0a6c 	streq	r0, [lr], #-2668	; 0xfffff594
 510:	00000b42 	andeq	r0, r0, r2, asr #22
 514:	0000000c 	andeq	r0, r0, ip
 518:	00000438 	andeq	r0, r0, r8, lsr r4
 51c:	00009148 	andeq	r9, r0, r8, asr #2
 520:	00000004 	andeq	r0, r0, r4
 524:	0000000c 	andeq	r0, r0, ip
 528:	00000438 	andeq	r0, r0, r8, lsr r4
 52c:	0000914c 	andeq	r9, r0, ip, asr #2
 530:	00000014 	andeq	r0, r0, r4, lsl r0
 534:	00000014 	andeq	r0, r0, r4, lsl r0
 538:	00000438 	andeq	r0, r0, r8, lsr r4
 53c:	00009160 	andeq	r9, r0, r0, ror #2
 540:	00000060 	andeq	r0, r0, r0, rrx
 544:	8e040e58 	mcrhi	14, 0, r0, cr4, cr8, {2}
 548:	100e4201 	andne	r4, lr, r1, lsl #4
 54c:	0000000c 	andeq	r0, r0, ip
 550:	ffffffff 			; <UNDEFINED> instruction: 0xffffffff
 554:	7c020001 	stcvc	0, cr0, [r2], {1}
 558:	000d0c0e 	andeq	r0, sp, lr, lsl #24
 55c:	0000000c 	andeq	r0, r0, ip
 560:	0000054c 	andeq	r0, r0, ip, asr #10
 564:	000091c0 	andeq	r9, r0, r0, asr #3
 568:	00000018 	andeq	r0, r0, r8, lsl r0
 56c:	0000000c 	andeq	r0, r0, ip
 570:	ffffffff 			; <UNDEFINED> instruction: 0xffffffff
 574:	7c020001 	stcvc	0, cr0, [r2], {1}
 578:	000d0c0e 	andeq	r0, sp, lr, lsl #24
 57c:	00000014 	andeq	r0, r0, r4, lsl r0
 580:	0000056c 	andeq	r0, r0, ip, ror #10
 584:	000091d8 	ldrdeq	r9, [r0], -r8
 588:	00000014 	andeq	r0, r0, r4, lsl r0
 58c:	84080e42 	strhi	r0, [r8], #-3650	; 0xfffff1be
 590:	00018e02 	andeq	r8, r1, r2, lsl #28
 594:	0000000c 	andeq	r0, r0, ip
 598:	0000056c 	andeq	r0, r0, ip, ror #10
 59c:	000091ec 	andeq	r9, r0, ip, ror #3
 5a0:	00000018 	andeq	r0, r0, r8, lsl r0
 5a4:	0000000c 	andeq	r0, r0, ip
 5a8:	0000056c 	andeq	r0, r0, ip, ror #10
 5ac:	00009204 	andeq	r9, r0, r4, lsl #4
 5b0:	00000010 	andeq	r0, r0, r0, lsl r0
 5b4:	0000000c 	andeq	r0, r0, ip
 5b8:	ffffffff 			; <UNDEFINED> instruction: 0xffffffff
 5bc:	7c020001 	stcvc	0, cr0, [r2], {1}
 5c0:	000d0c0e 	andeq	r0, sp, lr, lsl #24
 5c4:	0000000c 	andeq	r0, r0, ip
 5c8:	000005b4 			; <UNDEFINED> instruction: 0x000005b4
 5cc:	00009214 	andeq	r9, r0, r4, lsl r2
 5d0:	00000034 	andeq	r0, r0, r4, lsr r0
 5d4:	0000000c 	andeq	r0, r0, ip
 5d8:	ffffffff 			; <UNDEFINED> instruction: 0xffffffff
 5dc:	7c020001 	stcvc	0, cr0, [r2], {1}
 5e0:	000d0c0e 	andeq	r0, sp, lr, lsl #24
 5e4:	0000000c 	andeq	r0, r0, ip
 5e8:	000005d4 	ldrdeq	r0, [r0], -r4
 5ec:	00009248 	andeq	r9, r0, r8, asr #4
 5f0:	0000002c 	andeq	r0, r0, ip, lsr #32
 5f4:	0000000c 	andeq	r0, r0, ip
 5f8:	ffffffff 			; <UNDEFINED> instruction: 0xffffffff
 5fc:	7c020001 	stcvc	0, cr0, [r2], {1}
 600:	000d0c0e 	andeq	r0, sp, lr, lsl #24
 604:	0000000c 	andeq	r0, r0, ip
 608:	000005f4 	strdeq	r0, [r0], -r4
 60c:	00009274 	andeq	r9, r0, r4, ror r2
 610:	00000020 	andeq	r0, r0, r0, lsr #32
 614:	0000000c 	andeq	r0, r0, ip
 618:	ffffffff 			; <UNDEFINED> instruction: 0xffffffff
 61c:	7c020001 	stcvc	0, cr0, [r2], {1}
 620:	000d0c0e 	andeq	r0, sp, lr, lsl #24
 624:	0000000c 	andeq	r0, r0, ip
 628:	00000614 	andeq	r0, r0, r4, lsl r6
 62c:	00009294 	muleq	r0, r4, r2
 630:	0000002c 	andeq	r0, r0, ip, lsr #32
 634:	0000000c 	andeq	r0, r0, ip
 638:	ffffffff 			; <UNDEFINED> instruction: 0xffffffff
 63c:	7c020001 	stcvc	0, cr0, [r2], {1}
 640:	000d0c0e 	andeq	r0, sp, lr, lsl #24
 644:	0000000c 	andeq	r0, r0, ip
 648:	00000634 	andeq	r0, r0, r4, lsr r6
 64c:	000092c0 	andeq	r9, r0, r0, asr #5
 650:	00000004 	andeq	r0, r0, r4
 654:	0000000c 	andeq	r0, r0, ip
 658:	ffffffff 			; <UNDEFINED> instruction: 0xffffffff
 65c:	7c020001 	stcvc	0, cr0, [r2], {1}
 660:	000d0c0e 	andeq	r0, sp, lr, lsl #24
 664:	00000018 	andeq	r0, r0, r8, lsl r0
 668:	00000654 	andeq	r0, r0, r4, asr r6
 66c:	000092dc 	ldrdeq	r9, [r0], -ip
 670:	00000064 	andeq	r0, r0, r4, rrx
 674:	84100e46 	ldrhi	r0, [r0], #-3654	; 0xfffff1ba
 678:	86038504 	strhi	r8, [r3], -r4, lsl #10
 67c:	00018e02 	andeq	r8, r1, r2, lsl #28
 680:	00000014 	andeq	r0, r0, r4, lsl r0
 684:	00000654 	andeq	r0, r0, r4, asr r6
 688:	00009340 	andeq	r9, r0, r0, asr #6
 68c:	00000010 	andeq	r0, r0, r0, lsl r0
 690:	84080e42 	strhi	r0, [r8], #-3650	; 0xfffff1be
 694:	00018e02 	andeq	r8, r1, r2, lsl #28
 698:	00000014 	andeq	r0, r0, r4, lsl r0
 69c:	00000654 	andeq	r0, r0, r4, asr r6
 6a0:	00009350 	andeq	r9, r0, r0, asr r3
 6a4:	00000024 	andeq	r0, r0, r4, lsr #32
 6a8:	84080e46 	strhi	r0, [r8], #-3654	; 0xfffff1ba
 6ac:	00018e02 	andeq	r8, r1, r2, lsl #28
 6b0:	00000014 	andeq	r0, r0, r4, lsl r0
 6b4:	00000654 	andeq	r0, r0, r4, asr r6
 6b8:	00009374 	andeq	r9, r0, r4, ror r3
 6bc:	00000024 	andeq	r0, r0, r4, lsr #32
 6c0:	84080e46 	strhi	r0, [r8], #-3654	; 0xfffff1ba
 6c4:	00018e02 	andeq	r8, r1, r2, lsl #28
 6c8:	00000014 	andeq	r0, r0, r4, lsl r0
 6cc:	00000654 	andeq	r0, r0, r4, asr r6
 6d0:	00009398 	muleq	r0, r8, r3
 6d4:	00000010 	andeq	r0, r0, r0, lsl r0
 6d8:	84080e42 	strhi	r0, [r8], #-3650	; 0xfffff1be
 6dc:	00018e02 	andeq	r8, r1, r2, lsl #28
 6e0:	00000014 	andeq	r0, r0, r4, lsl r0
 6e4:	00000654 	andeq	r0, r0, r4, asr r6
 6e8:	000093a8 	andeq	r9, r0, r8, lsr #7
 6ec:	0000001c 	andeq	r0, r0, ip, lsl r0
 6f0:	84080e42 	strhi	r0, [r8], #-3650	; 0xfffff1be
 6f4:	00018e02 	andeq	r8, r1, r2, lsl #28
 6f8:	00000018 	andeq	r0, r0, r8, lsl r0
 6fc:	00000654 	andeq	r0, r0, r4, asr r6
 700:	000093c4 	andeq	r9, r0, r4, asr #7
 704:	00000034 	andeq	r0, r0, r4, lsr r0
 708:	84080e46 	strhi	r0, [r8], #-3654	; 0xfffff1ba
 70c:	4e018e02 	cdpmi	14, 0, cr8, cr1, cr2, {0}
 710:	cec4000e 	cdpgt	0, 12, cr0, cr4, cr14, {0}
