
2-test-malloc.elf:     file format elf32-littlearm


Disassembly of section .text:

00008000 <__code_start__>:
    8000:	e3a00013 	mov	r0, #19, 0
    8004:	e3800080 	orr	r0, r0, #128, 0	; 0x80
    8008:	e129f000 	msr	CPSR_fc, r0
    800c:	e3a01000 	mov	r1, #0, 0
    8010:	ee071f95 	mcr	15, 0, r1, cr7, cr5, {4}
    8014:	e3a0d302 	mov	sp, #134217728	; 0x8000000
    8018:	e3a0b000 	mov	fp, #0, 0
    801c:	eb0002e8 	bl	8bc4 <_cstart>
    8020:	eb000302 	bl	8c30 <rpi_reboot>

00008024 <PUT32>:
    8024:	e5801000 	str	r1, [r0]
    8028:	e12fff1e 	bx	lr

0000802c <GET32>:
    802c:	e5900000 	ldr	r0, [r0]
    8030:	e12fff1e 	bx	lr

00008034 <BRANCHTO>:
    8034:	e12fff10 	bx	r0

00008038 <test_alloc_free>:
    8038:	e92d40f0 	push	{r4, r5, r6, r7, lr}
    803c:	e24dd014 	sub	sp, sp, #20, 0
    8040:	e1a06000 	mov	r6, r0
    8044:	e1a00100 	lsl	r0, r0, #2
    8048:	eb0000a2 	bl	82d8 <kr_malloc>
    804c:	e1a05000 	mov	r5, r0
    8050:	e3a04000 	mov	r4, #0, 0
    8054:	e1540006 	cmp	r4, r6
    8058:	2a000019 	bcs	80c4 <test_alloc_free+0x8c>
    805c:	e0857104 	add	r7, r5, r4, lsl #2
    8060:	e3a00001 	mov	r0, #1, 0
    8064:	eb00009b 	bl	82d8 <kr_malloc>
    8068:	e7850104 	str	r0, [r5, r4, lsl #2]
    806c:	e6ef3074 	uxtb	r3, r4
    8070:	e5c03000 	strb	r3, [r0]
    8074:	e7952104 	ldr	r2, [r5, r4, lsl #2]
    8078:	e5d22000 	ldrb	r2, [r2]
    807c:	e1530002 	cmp	r3, r2
    8080:	02844001 	addeq	r4, r4, #1, 0
    8084:	0afffff2 	beq	8054 <test_alloc_free+0x1c>
    8088:	eb0000db 	bl	83fc <rpi_reset_putc>
    808c:	e5973000 	ldr	r3, [r7]
    8090:	e5d33000 	ldrb	r3, [r3]
    8094:	e6ef2074 	uxtb	r2, r4
    8098:	e58d200c 	str	r2, [sp, #12]
    809c:	e58d3008 	str	r3, [sp, #8]
    80a0:	e58d4004 	str	r4, [sp, #4]
    80a4:	e59f308c 	ldr	r3, [pc, #140]	; 8138 <test_alloc_free+0x100>
    80a8:	e58d3000 	str	r3, [sp]
    80ac:	e3a03012 	mov	r3, #18, 0
    80b0:	e59f2084 	ldr	r2, [pc, #132]	; 813c <test_alloc_free+0x104>
    80b4:	e59f1084 	ldr	r1, [pc, #132]	; 8140 <test_alloc_free+0x108>
    80b8:	e59f0084 	ldr	r0, [pc, #132]	; 8144 <test_alloc_free+0x10c>
    80bc:	eb0000b3 	bl	8390 <printk>
    80c0:	eb0002b4 	bl	8b98 <clean_reboot>
    80c4:	e3a03000 	mov	r3, #0, 0
    80c8:	e1530006 	cmp	r3, r6
    80cc:	2a00000d 	bcs	8108 <test_alloc_free+0xd0>
    80d0:	e7952103 	ldr	r2, [r5, r3, lsl #2]
    80d4:	e5d21000 	ldrb	r1, [r2]
    80d8:	e6ef2073 	uxtb	r2, r3
    80dc:	e1510002 	cmp	r1, r2
    80e0:	02833001 	addeq	r3, r3, #1, 0
    80e4:	0afffff7 	beq	80c8 <test_alloc_free+0x90>
    80e8:	e59f3048 	ldr	r3, [pc, #72]	; 8138 <test_alloc_free+0x100>
    80ec:	e58d3000 	str	r3, [sp]
    80f0:	e3a03016 	mov	r3, #22, 0
    80f4:	e59f2040 	ldr	r2, [pc, #64]	; 813c <test_alloc_free+0x104>
    80f8:	e59f1040 	ldr	r1, [pc, #64]	; 8140 <test_alloc_free+0x108>
    80fc:	e59f0044 	ldr	r0, [pc, #68]	; 8148 <test_alloc_free+0x110>
    8100:	eb0000a2 	bl	8390 <printk>
    8104:	eb0002a3 	bl	8b98 <clean_reboot>
    8108:	e3a04000 	mov	r4, #0, 0
    810c:	ea000002 	b	811c <test_alloc_free+0xe4>
    8110:	e7950104 	ldr	r0, [r5, r4, lsl #2]
    8114:	eb00002f 	bl	81d8 <kr_free>
    8118:	e2844001 	add	r4, r4, #1, 0
    811c:	e1540006 	cmp	r4, r6
    8120:	3afffffa 	bcc	8110 <test_alloc_free+0xd8>
    8124:	e1a00005 	mov	r0, r5
    8128:	eb00002a 	bl	81d8 <kr_free>
    812c:	e1a00005 	mov	r0, r5
    8130:	e28dd014 	add	sp, sp, #20, 0
    8134:	e8bd80f0 	pop	{r4, r5, r6, r7, pc}
    8138:	000094ec 	andeq	r9, r0, ip, ror #9
    813c:	0000956c 	andeq	r9, r0, ip, ror #10
    8140:	000094a8 	andeq	r9, r0, r8, lsr #9
    8144:	000094b8 			; <UNDEFINED> instruction: 0x000094b8
    8148:	00009504 	andeq	r9, r0, r4, lsl #10

0000814c <notmain>:
    814c:	e92d4030 	push	{r4, r5, lr}
    8150:	e24dd00c 	sub	sp, sp, #12, 0
    8154:	e3a00080 	mov	r0, #128, 0	; 0x80
    8158:	ebffffb6 	bl	8038 <test_alloc_free>
    815c:	e1a05000 	mov	r5, r0
    8160:	e3a04000 	mov	r4, #0, 0
    8164:	e3540009 	cmp	r4, #9, 0
    8168:	ca000010 	bgt	81b0 <notmain+0x64>
    816c:	e3a00080 	mov	r0, #128, 0	; 0x80
    8170:	ebffffb0 	bl	8038 <test_alloc_free>
    8174:	e1550000 	cmp	r5, r0
    8178:	1a000004 	bne	8190 <notmain+0x44>
    817c:	e1a01004 	mov	r1, r4
    8180:	e59f0038 	ldr	r0, [pc, #56]	; 81c0 <notmain+0x74>
    8184:	eb000081 	bl	8390 <printk>
    8188:	e2844001 	add	r4, r4, #1, 0
    818c:	eafffff4 	b	8164 <notmain+0x18>
    8190:	e59f302c 	ldr	r3, [pc, #44]	; 81c4 <notmain+0x78>
    8194:	e58d3000 	str	r3, [sp]
    8198:	e3a0302a 	mov	r3, #42, 0	; 0x2a
    819c:	e59f2024 	ldr	r2, [pc, #36]	; 81c8 <notmain+0x7c>
    81a0:	e59f1024 	ldr	r1, [pc, #36]	; 81cc <notmain+0x80>
    81a4:	e59f0024 	ldr	r0, [pc, #36]	; 81d0 <notmain+0x84>
    81a8:	eb000078 	bl	8390 <printk>
    81ac:	eb000279 	bl	8b98 <clean_reboot>
    81b0:	e59f001c 	ldr	r0, [pc, #28]	; 81d4 <notmain+0x88>
    81b4:	eb000075 	bl	8390 <printk>
    81b8:	e28dd00c 	add	sp, sp, #12, 0
    81bc:	e8bd8030 	pop	{r4, r5, pc}
    81c0:	00009524 	andeq	r9, r0, r4, lsr #10
    81c4:	00009518 	andeq	r9, r0, r8, lsl r5
    81c8:	0000957c 	andeq	r9, r0, ip, ror r5
    81cc:	000094a8 	andeq	r9, r0, r8, lsr #9
    81d0:	00009504 	andeq	r9, r0, r4, lsl #10
    81d4:	00009540 	andeq	r9, r0, r0, asr #10

000081d8 <kr_free>:
    81d8:	e52de004 	push	{lr}		; (str lr, [sp, #-4]!)
    81dc:	e2401008 	sub	r1, r0, #8, 0
    81e0:	e59f30a8 	ldr	r3, [pc, #168]	; 8290 <kr_free+0xb8>
    81e4:	e5933000 	ldr	r3, [r3]
    81e8:	ea000000 	b	81f0 <kr_free+0x18>
    81ec:	e1a03002 	mov	r3, r2
    81f0:	e1530001 	cmp	r3, r1
    81f4:	2a000002 	bcs	8204 <kr_free+0x2c>
    81f8:	e5932000 	ldr	r2, [r3]
    81fc:	e1520001 	cmp	r2, r1
    8200:	8a000007 	bhi	8224 <kr_free+0x4c>
    8204:	e5932000 	ldr	r2, [r3]
    8208:	e1520003 	cmp	r2, r3
    820c:	8afffff6 	bhi	81ec <kr_free+0x14>
    8210:	e1530001 	cmp	r3, r1
    8214:	3a000002 	bcc	8224 <kr_free+0x4c>
    8218:	e1520001 	cmp	r2, r1
    821c:	91a03002 	movls	r3, r2
    8220:	9afffff2 	bls	81f0 <kr_free+0x18>
    8224:	e510c004 	ldr	ip, [r0, #-4]
    8228:	e081e18c 	add	lr, r1, ip, lsl #3
    822c:	e5932000 	ldr	r2, [r3]
    8230:	e15e0002 	cmp	lr, r2
    8234:	0a000008 	beq	825c <kr_free+0x84>
    8238:	e5002008 	str	r2, [r0, #-8]
    823c:	e5932004 	ldr	r2, [r3, #4]
    8240:	e083c182 	add	ip, r3, r2, lsl #3
    8244:	e15c0001 	cmp	ip, r1
    8248:	0a00000a 	beq	8278 <kr_free+0xa0>
    824c:	e5831000 	str	r1, [r3]
    8250:	e59f2038 	ldr	r2, [pc, #56]	; 8290 <kr_free+0xb8>
    8254:	e5823000 	str	r3, [r2]
    8258:	e49df004 	pop	{pc}		; (ldr pc, [sp], #4)
    825c:	e5922004 	ldr	r2, [r2, #4]
    8260:	e08cc002 	add	ip, ip, r2
    8264:	e500c004 	str	ip, [r0, #-4]
    8268:	e5932000 	ldr	r2, [r3]
    826c:	e5922000 	ldr	r2, [r2]
    8270:	e5002008 	str	r2, [r0, #-8]
    8274:	eafffff0 	b	823c <kr_free+0x64>
    8278:	e5101004 	ldr	r1, [r0, #-4]
    827c:	e0822001 	add	r2, r2, r1
    8280:	e5832004 	str	r2, [r3, #4]
    8284:	e5102008 	ldr	r2, [r0, #-8]
    8288:	e5832000 	str	r2, [r3]
    828c:	eaffffef 	b	8250 <kr_free+0x78>
    8290:	00009908 	andeq	r9, r0, r8, lsl #18

00008294 <kr_morecore>:
    8294:	e92d4010 	push	{r4, lr}
    8298:	e1a04000 	mov	r4, r0
    829c:	e3500b01 	cmp	r0, #1024	; 0x400
    82a0:	33a04b01 	movcc	r4, #1024	; 0x400
    82a4:	e1a00184 	lsl	r0, r4, #3
    82a8:	eb000035 	bl	8384 <sbrk>
    82ac:	e3700001 	cmn	r0, #1, 0
    82b0:	0a000005 	beq	82cc <kr_morecore+0x38>
    82b4:	e5804004 	str	r4, [r0, #4]
    82b8:	e2800008 	add	r0, r0, #8, 0
    82bc:	ebffffc5 	bl	81d8 <kr_free>
    82c0:	e59f300c 	ldr	r3, [pc, #12]	; 82d4 <kr_morecore+0x40>
    82c4:	e5930000 	ldr	r0, [r3]
    82c8:	e8bd8010 	pop	{r4, pc}
    82cc:	e3a00000 	mov	r0, #0, 0
    82d0:	e8bd8010 	pop	{r4, pc}
    82d4:	00009908 	andeq	r9, r0, r8, lsl #18

000082d8 <kr_malloc>:
    82d8:	e92d4010 	push	{r4, lr}
    82dc:	e2804007 	add	r4, r0, #7, 0
    82e0:	e1a041a4 	lsr	r4, r4, #3
    82e4:	e2844001 	add	r4, r4, #1, 0
    82e8:	e59f3090 	ldr	r3, [pc, #144]	; 8380 <kr_malloc+0xa8>
    82ec:	e5932000 	ldr	r2, [r3]
    82f0:	e3520000 	cmp	r2, #0, 0
    82f4:	0a000001 	beq	8300 <kr_malloc+0x28>
    82f8:	e5920000 	ldr	r0, [r2]
    82fc:	ea000013 	b	8350 <kr_malloc+0x78>
    8300:	e2832008 	add	r2, r3, #8, 0
    8304:	e5832000 	str	r2, [r3]
    8308:	e5832008 	str	r2, [r3, #8]
    830c:	e3a01000 	mov	r1, #0, 0
    8310:	e583100c 	str	r1, [r3, #12]
    8314:	eafffff7 	b	82f8 <kr_malloc+0x20>
    8318:	0a000007 	beq	833c <kr_malloc+0x64>
    831c:	e0433004 	sub	r3, r3, r4
    8320:	e5803004 	str	r3, [r0, #4]
    8324:	e0800183 	add	r0, r0, r3, lsl #3
    8328:	e5804004 	str	r4, [r0, #4]
    832c:	e59f304c 	ldr	r3, [pc, #76]	; 8380 <kr_malloc+0xa8>
    8330:	e5832000 	str	r2, [r3]
    8334:	e2800008 	add	r0, r0, #8, 0
    8338:	e8bd8010 	pop	{r4, pc}
    833c:	e5903000 	ldr	r3, [r0]
    8340:	e5823000 	str	r3, [r2]
    8344:	eafffff8 	b	832c <kr_malloc+0x54>
    8348:	e1a02000 	mov	r2, r0
    834c:	e5900000 	ldr	r0, [r0]
    8350:	e5903004 	ldr	r3, [r0, #4]
    8354:	e1530004 	cmp	r3, r4
    8358:	2affffee 	bcs	8318 <kr_malloc+0x40>
    835c:	e59f301c 	ldr	r3, [pc, #28]	; 8380 <kr_malloc+0xa8>
    8360:	e5933000 	ldr	r3, [r3]
    8364:	e1530000 	cmp	r3, r0
    8368:	1afffff6 	bne	8348 <kr_malloc+0x70>
    836c:	e1a00004 	mov	r0, r4
    8370:	ebffffc7 	bl	8294 <kr_morecore>
    8374:	e3500000 	cmp	r0, #0, 0
    8378:	1afffff2 	bne	8348 <kr_malloc+0x70>
    837c:	e8bd8010 	pop	{r4, pc}
    8380:	00009908 	andeq	r9, r0, r8, lsl #18

00008384 <sbrk>:
    8384:	e92d4010 	push	{r4, lr}
    8388:	eb000349 	bl	90b4 <kmalloc>
    838c:	e8bd8010 	pop	{r4, pc}

00008390 <printk>:
    8390:	e92d000f 	push	{r0, r1, r2, r3}
    8394:	e92d4030 	push	{r4, r5, lr}
    8398:	e24dd00c 	sub	sp, sp, #12, 0
    839c:	e28d301c 	add	r3, sp, #28, 0
    83a0:	e58d3004 	str	r3, [sp, #4]
    83a4:	e59f5034 	ldr	r5, [pc, #52]	; 83e0 <printk+0x50>
    83a8:	e59d2018 	ldr	r2, [sp, #24]
    83ac:	e3a01b01 	mov	r1, #1024	; 0x400
    83b0:	e1a00005 	mov	r0, r5
    83b4:	eb0000c9 	bl	86e0 <va_printk>
    83b8:	e1a04000 	mov	r4, r0
    83bc:	e59f3020 	ldr	r3, [pc, #32]	; 83e4 <printk+0x54>
    83c0:	e5933000 	ldr	r3, [r3]
    83c4:	e1a00005 	mov	r0, r5
    83c8:	e12fff33 	blx	r3
    83cc:	e1a00004 	mov	r0, r4
    83d0:	e28dd00c 	add	sp, sp, #12, 0
    83d4:	e8bd4030 	pop	{r4, r5, lr}
    83d8:	e28dd010 	add	sp, sp, #16, 0
    83dc:	e12fff1e 	bx	lr
    83e0:	00009918 	andeq	r9, r0, r8, lsl r9
    83e4:	000098f8 	strdeq	r9, [r0], -r8

000083e8 <internal_putchar>:
    83e8:	e92d4010 	push	{r4, lr}
    83ec:	e1a04000 	mov	r4, r0
    83f0:	eb00029a 	bl	8e60 <uart_putc>
    83f4:	e1a00004 	mov	r0, r4
    83f8:	e8bd8010 	pop	{r4, pc}

000083fc <rpi_reset_putc>:
    83fc:	e59f3008 	ldr	r3, [pc, #8]	; 840c <rpi_reset_putc+0x10>
    8400:	e59f2008 	ldr	r2, [pc, #8]	; 8410 <rpi_reset_putc+0x14>
    8404:	e5832000 	str	r2, [r3]
    8408:	e12fff1e 	bx	lr
    840c:	000098f4 	strdeq	r9, [r0], -r4
    8410:	000083e8 	andeq	r8, r0, r8, ror #7

00008414 <rpi_set_putc>:
    8414:	e59f3004 	ldr	r3, [pc, #4]	; 8420 <rpi_set_putc+0xc>
    8418:	e5830000 	str	r0, [r3]
    841c:	e12fff1e 	bx	lr
    8420:	000098f4 	strdeq	r9, [r0], -r4

00008424 <internal_putk>:
    8424:	e92d4010 	push	{r4, lr}
    8428:	e1a04000 	mov	r4, r0
    842c:	e5d40000 	ldrb	r0, [r4]
    8430:	e3500000 	cmp	r0, #0, 0
    8434:	0a000004 	beq	844c <internal_putk+0x28>
    8438:	e59f3014 	ldr	r3, [pc, #20]	; 8454 <internal_putk+0x30>
    843c:	e5933000 	ldr	r3, [r3]
    8440:	e12fff33 	blx	r3
    8444:	e2844001 	add	r4, r4, #1, 0
    8448:	eafffff7 	b	842c <internal_putk+0x8>
    844c:	e3a00001 	mov	r0, #1, 0
    8450:	e8bd8010 	pop	{r4, pc}
    8454:	000098f4 	strdeq	r9, [r0], -r4

00008458 <isdigit>:
    8458:	e2400030 	sub	r0, r0, #48, 0	; 0x30
    845c:	e3500009 	cmp	r0, #9, 0
    8460:	83a00000 	movhi	r0, #0, 0
    8464:	93a00001 	movls	r0, #1, 0
    8468:	e12fff1e 	bx	lr

0000846c <pad>:
    846c:	e0401001 	sub	r1, r0, r1
    8470:	e1510002 	cmp	r1, r2
    8474:	b3a03020 	movlt	r3, #32, 0
    8478:	b4c03001 	strblt	r3, [r0], #1
    847c:	b2811001 	addlt	r1, r1, #1, 0
    8480:	bafffffa 	blt	8470 <pad+0x4>
    8484:	e3a03000 	mov	r3, #0, 0
    8488:	e5c03000 	strb	r3, [r0]
    848c:	e12fff1e 	bx	lr

00008490 <reverse>:
    8490:	e042c003 	sub	ip, r2, r3
    8494:	e28cc001 	add	ip, ip, #1, 0
    8498:	e15c0001 	cmp	ip, r1
    849c:	c04cc001 	subgt	ip, ip, r1
    84a0:	c083300c 	addgt	r3, r3, ip
    84a4:	e2421001 	sub	r1, r2, #1, 0
    84a8:	e1a02000 	mov	r2, r0
    84ac:	e1510003 	cmp	r1, r3
    84b0:	2451c001 	ldrbcs	ip, [r1], #-1
    84b4:	24c2c001 	strbcs	ip, [r2], #1
    84b8:	2afffffb 	bcs	84ac <reverse+0x1c>
    84bc:	e3a03000 	mov	r3, #0, 0
    84c0:	e5c23000 	strb	r3, [r2]
    84c4:	e12fff1e 	bx	lr

000084c8 <emit>:
    84c8:	e92d40f0 	push	{r4, r5, r6, r7, lr}
    84cc:	e24dd04c 	sub	sp, sp, #76, 0	; 0x4c
    84d0:	e1a05001 	mov	r5, r1
    84d4:	e1a04002 	mov	r4, r2
    84d8:	e59d2060 	ldr	r2, [sp, #96]	; 0x60
    84dc:	e1520004 	cmp	r2, r4
    84e0:	c2442001 	subgt	r2, r4, #1, 0
    84e4:	e1a0c003 	mov	ip, r3
    84e8:	e2400002 	sub	r0, r0, #2, 0
    84ec:	e350000e 	cmp	r0, #14, 0
    84f0:	979ff100 	ldrls	pc, [pc, r0, lsl #2]
    84f4:	ea000050 	b	863c <emit+0x174>
    84f8:	00008614 	andeq	r8, r0, r4, lsl r6
    84fc:	0000863c 	andeq	r8, r0, ip, lsr r6
    8500:	0000863c 	andeq	r8, r0, ip, lsr r6
    8504:	0000863c 	andeq	r8, r0, ip, lsr r6
    8508:	0000863c 	andeq	r8, r0, ip, lsr r6
    850c:	0000863c 	andeq	r8, r0, ip, lsr r6
    8510:	00008608 	andeq	r8, r0, r8, lsl #12
    8514:	0000863c 	andeq	r8, r0, ip, lsr r6
    8518:	00008534 	andeq	r8, r0, r4, lsr r5
    851c:	0000863c 	andeq	r8, r0, ip, lsr r6
    8520:	0000863c 	andeq	r8, r0, ip, lsr r6
    8524:	0000863c 	andeq	r8, r0, ip, lsr r6
    8528:	0000863c 	andeq	r8, r0, ip, lsr r6
    852c:	0000863c 	andeq	r8, r0, ip, lsr r6
    8530:	000085ac 	andeq	r8, r0, ip, lsr #11
    8534:	e59d1064 	ldr	r1, [sp, #100]	; 0x64
    8538:	e2511000 	subs	r1, r1, #0, 0
    853c:	13a01001 	movne	r1, #1, 0
    8540:	e0111fa3 	ands	r1, r1, r3, lsr #31
    8544:	0a000016 	beq	85a4 <emit+0xdc>
    8548:	e263c000 	rsb	ip, r3, #0, 0
    854c:	e3a06001 	mov	r6, #1, 0
    8550:	e28d0008 	add	r0, sp, #8, 0
    8554:	e59f3100 	ldr	r3, [pc, #256]	; 865c <emit+0x194>
    8558:	e0831c93 	umull	r1, r3, r3, ip
    855c:	e1a031a3 	lsr	r3, r3, #3
    8560:	e1a0e003 	mov	lr, r3
    8564:	e0833103 	add	r3, r3, r3, lsl #2
    8568:	e04c3083 	sub	r3, ip, r3, lsl #1
    856c:	e1a01000 	mov	r1, r0
    8570:	e2800001 	add	r0, r0, #1, 0
    8574:	e59f70e4 	ldr	r7, [pc, #228]	; 8660 <emit+0x198>
    8578:	e7d73003 	ldrb	r3, [r7, r3]
    857c:	e5c13000 	strb	r3, [r1]
    8580:	e1a0300c 	mov	r3, ip
    8584:	e1a0c00e 	mov	ip, lr
    8588:	e3530009 	cmp	r3, #9, 0
    858c:	8afffff0 	bhi	8554 <emit+0x8c>
    8590:	e3560000 	cmp	r6, #0, 0
    8594:	13a0302d 	movne	r3, #45, 0	; 0x2d
    8598:	15c03000 	strbne	r3, [r0]
    859c:	12810002 	addne	r0, r1, #2, 0
    85a0:	ea00000f 	b	85e4 <emit+0x11c>
    85a4:	e3a06000 	mov	r6, #0, 0
    85a8:	eaffffe8 	b	8550 <emit+0x88>
    85ac:	e28d1008 	add	r1, sp, #8, 0
    85b0:	e20c000f 	and	r0, ip, #15, 0
    85b4:	e59fe0a8 	ldr	lr, [pc, #168]	; 8664 <emit+0x19c>
    85b8:	e7de0000 	ldrb	r0, [lr, r0]
    85bc:	e5c10000 	strb	r0, [r1]
    85c0:	e2811001 	add	r1, r1, #1, 0
    85c4:	e35c000f 	cmp	ip, #15, 0
    85c8:	e1a0c22c 	lsr	ip, ip, #4
    85cc:	8afffff7 	bhi	85b0 <emit+0xe8>
    85d0:	e1a00001 	mov	r0, r1
    85d4:	e3a03078 	mov	r3, #120, 0	; 0x78
    85d8:	e4c03002 	strb	r3, [r0], #2
    85dc:	e3a03030 	mov	r3, #48, 0	; 0x30
    85e0:	e5c13001 	strb	r3, [r1, #1]
    85e4:	e28d1008 	add	r1, sp, #8, 0
    85e8:	ebffff9f 	bl	846c <pad>
    85ec:	e1a02000 	mov	r2, r0
    85f0:	e28d3008 	add	r3, sp, #8, 0
    85f4:	e1a01004 	mov	r1, r4
    85f8:	e1a00005 	mov	r0, r5
    85fc:	ebffffa3 	bl	8490 <reverse>
    8600:	e28dd04c 	add	sp, sp, #76, 0	; 0x4c
    8604:	e8bd80f0 	pop	{r4, r5, r6, r7, pc}
    8608:	e5cd3008 	strb	r3, [sp, #8]
    860c:	e28d0009 	add	r0, sp, #9, 0
    8610:	eafffff3 	b	85e4 <emit+0x11c>
    8614:	e28d0008 	add	r0, sp, #8, 0
    8618:	e20c1001 	and	r1, ip, #1, 0
    861c:	e59fe044 	ldr	lr, [pc, #68]	; 8668 <emit+0x1a0>
    8620:	e7de1001 	ldrb	r1, [lr, r1]
    8624:	e5c01000 	strb	r1, [r0]
    8628:	e2800001 	add	r0, r0, #1, 0
    862c:	e35c0001 	cmp	ip, #1, 0
    8630:	e1a0c0ac 	lsr	ip, ip, #1
    8634:	8afffff7 	bhi	8618 <emit+0x150>
    8638:	eaffffe9 	b	85e4 <emit+0x11c>
    863c:	e59f3028 	ldr	r3, [pc, #40]	; 866c <emit+0x1a4>
    8640:	e58d3000 	str	r3, [sp]
    8644:	e3a03079 	mov	r3, #121, 0	; 0x79
    8648:	e59f2020 	ldr	r2, [pc, #32]	; 8670 <emit+0x1a8>
    864c:	e59f1020 	ldr	r1, [pc, #32]	; 8674 <emit+0x1ac>
    8650:	e59f0020 	ldr	r0, [pc, #32]	; 8678 <emit+0x1b0>
    8654:	ebffff4d 	bl	8390 <printk>
    8658:	eb00014e 	bl	8b98 <clean_reboot>
    865c:	cccccccd 	stclgt	12, cr12, [ip], {205}	; 0xcd
    8660:	0000959c 	muleq	r0, ip, r5
    8664:	000095a8 	andeq	r9, r0, r8, lsr #11
    8668:	000095bc 			; <UNDEFINED> instruction: 0x000095bc
    866c:	00009598 	muleq	r0, r8, r5
    8670:	000096c8 	andeq	r9, r0, r8, asr #13
    8674:	00009584 	andeq	r9, r0, r4, lsl #11
    8678:	00009504 	andeq	r9, r0, r4, lsl #10

0000867c <rpi_set_output>:
    867c:	e3500000 	cmp	r0, #0, 0
    8680:	0a000006 	beq	86a0 <rpi_set_output+0x24>
    8684:	e59f303c 	ldr	r3, [pc, #60]	; 86c8 <rpi_set_output+0x4c>
    8688:	e5830000 	str	r0, [r3]
    868c:	e3510000 	cmp	r1, #0, 0
    8690:	012fff1e 	bxeq	lr
    8694:	e59f3030 	ldr	r3, [pc, #48]	; 86cc <rpi_set_output+0x50>
    8698:	e5831000 	str	r1, [r3]
    869c:	e12fff1e 	bx	lr
    86a0:	e52de004 	push	{lr}		; (str lr, [sp, #-4]!)
    86a4:	e24dd00c 	sub	sp, sp, #12, 0
    86a8:	e59f3020 	ldr	r3, [pc, #32]	; 86d0 <rpi_set_output+0x54>
    86ac:	e58d3000 	str	r3, [sp]
    86b0:	e3a03020 	mov	r3, #32, 0
    86b4:	e59f2018 	ldr	r2, [pc, #24]	; 86d4 <rpi_set_output+0x58>
    86b8:	e59f1018 	ldr	r1, [pc, #24]	; 86d8 <rpi_set_output+0x5c>
    86bc:	e59f0018 	ldr	r0, [pc, #24]	; 86dc <rpi_set_output+0x60>
    86c0:	ebffff32 	bl	8390 <printk>
    86c4:	eb000133 	bl	8b98 <clean_reboot>
    86c8:	000098f4 	strdeq	r9, [r0], -r4
    86cc:	000098f8 	strdeq	r9, [r0], -r8
    86d0:	000095c0 	andeq	r9, r0, r0, asr #11
    86d4:	000096d0 	ldrdeq	r9, [r0], -r0
    86d8:	00009584 	andeq	r9, r0, r4, lsl #11
    86dc:	00009504 	andeq	r9, r0, r4, lsl #10

000086e0 <va_printk>:
    86e0:	e92d4ff0 	push	{r4, r5, r6, r7, r8, r9, sl, fp, lr}
    86e4:	e24ddf45 	sub	sp, sp, #276	; 0x114
    86e8:	e1a09000 	mov	r9, r0
    86ec:	e58d2008 	str	r2, [sp, #8]
    86f0:	e58d300c 	str	r3, [sp, #12]
    86f4:	e2411001 	sub	r1, r1, #1, 0
    86f8:	e0808001 	add	r8, r0, r1
    86fc:	e3a03000 	mov	r3, #0, 0
    8700:	e5c03000 	strb	r3, [r0]
    8704:	e1a04000 	mov	r4, r0
    8708:	e1a06002 	mov	r6, r2
    870c:	ea000001 	b	8718 <va_printk+0x38>
    8710:	e2866001 	add	r6, r6, #1, 0
    8714:	e4c43001 	strb	r3, [r4], #1
    8718:	e5d63000 	ldrb	r3, [r6]
    871c:	e3530000 	cmp	r3, #0, 0
    8720:	0a000108 	beq	8b48 <va_printk+0x468>
    8724:	e1540008 	cmp	r4, r8
    8728:	2a000106 	bcs	8b48 <va_printk+0x468>
    872c:	e3530025 	cmp	r3, #37, 0	; 0x25
    8730:	1afffff6 	bne	8710 <va_printk+0x30>
    8734:	e5d62001 	ldrb	r2, [r6, #1]
    8738:	e3520025 	cmp	r2, #37, 0	; 0x25
    873c:	04c43001 	strbeq	r3, [r4], #1
    8740:	02866002 	addeq	r6, r6, #2, 0
    8744:	0afffff3 	beq	8718 <va_printk+0x38>
    8748:	e2866001 	add	r6, r6, #1, 0
    874c:	e3a05000 	mov	r5, #0, 0
    8750:	e5d67000 	ldrb	r7, [r6]
    8754:	e1a0a007 	mov	sl, r7
    8758:	e1a00007 	mov	r0, r7
    875c:	ebffff3d 	bl	8458 <isdigit>
    8760:	e3500000 	cmp	r0, #0, 0
    8764:	0a000004 	beq	877c <va_printk+0x9c>
    8768:	e0855105 	add	r5, r5, r5, lsl #2
    876c:	e0875085 	add	r5, r7, r5, lsl #1
    8770:	e2455030 	sub	r5, r5, #48, 0	; 0x30
    8774:	e2866001 	add	r6, r6, #1, 0
    8778:	eafffff4 	b	8750 <va_printk+0x70>
    877c:	e355001f 	cmp	r5, #31, 0
    8780:	8a00001a 	bhi	87f0 <va_printk+0x110>
    8784:	e2477062 	sub	r7, r7, #98, 0	; 0x62
    8788:	e3570016 	cmp	r7, #22, 0
    878c:	979ff107 	ldrls	pc, [pc, r7, lsl #2]
    8790:	ea0000d4 	b	8ae8 <va_printk+0x408>
    8794:	00008a6c 	andeq	r8, r0, ip, ror #20
    8798:	00008ab4 			; <UNDEFINED> instruction: 0x00008ab4
    879c:	000089cc 	andeq	r8, r0, ip, asr #19
    87a0:	00008ae8 	andeq	r8, r0, r8, ror #21
    87a4:	000089b4 			; <UNDEFINED> instruction: 0x000089b4
    87a8:	00008ae8 	andeq	r8, r0, r8, ror #21
    87ac:	00008ae8 	andeq	r8, r0, r8, ror #21
    87b0:	00008ae8 	andeq	r8, r0, r8, ror #21
    87b4:	00008ae8 	andeq	r8, r0, r8, ror #21
    87b8:	00008ae8 	andeq	r8, r0, r8, ror #21
    87bc:	00008810 	andeq	r8, r0, r0, lsl r8
    87c0:	00008ae8 	andeq	r8, r0, r8, ror #21
    87c4:	00008ae8 	andeq	r8, r0, r8, ror #21
    87c8:	00008ae8 	andeq	r8, r0, r8, ror #21
    87cc:	00008a38 	andeq	r8, r0, r8, lsr sl
    87d0:	00008ae8 	andeq	r8, r0, r8, ror #21
    87d4:	00008ae8 	andeq	r8, r0, r8, ror #21
    87d8:	00008aa0 	andeq	r8, r0, r0, lsr #21
    87dc:	00008ae8 	andeq	r8, r0, r8, ror #21
    87e0:	00008a04 	andeq	r8, r0, r4, lsl #20
    87e4:	00008ae8 	andeq	r8, r0, r8, ror #21
    87e8:	00008ae8 	andeq	r8, r0, r8, ror #21
    87ec:	00008a38 	andeq	r8, r0, r8, lsr sl
    87f0:	e59f3364 	ldr	r3, [pc, #868]	; 8b5c <va_printk+0x47c>
    87f4:	e58d3000 	str	r3, [sp]
    87f8:	e3a03098 	mov	r3, #152, 0	; 0x98
    87fc:	e59f235c 	ldr	r2, [pc, #860]	; 8b60 <va_printk+0x480>
    8800:	e59f135c 	ldr	r1, [pc, #860]	; 8b64 <va_printk+0x484>
    8804:	e59f035c 	ldr	r0, [pc, #860]	; 8b68 <va_printk+0x488>
    8808:	ebfffee0 	bl	8390 <printk>
    880c:	eb0000e1 	bl	8b98 <clean_reboot>
    8810:	e3a02003 	mov	r2, #3, 0
    8814:	e59f1350 	ldr	r1, [pc, #848]	; 8b6c <va_printk+0x48c>
    8818:	e1a00006 	mov	r0, r6
    881c:	eb0002c7 	bl	9340 <strncmp>
    8820:	e3500000 	cmp	r0, #0, 0
    8824:	0a000005 	beq	8840 <va_printk+0x160>
    8828:	e3a02003 	mov	r2, #3, 0
    882c:	e59f133c 	ldr	r1, [pc, #828]	; 8b70 <va_printk+0x490>
    8830:	e1a00006 	mov	r0, r6
    8834:	eb0002c1 	bl	9340 <strncmp>
    8838:	e3500000 	cmp	r0, #0, 0
    883c:	1a000033 	bne	8910 <va_printk+0x230>
    8840:	e286b002 	add	fp, r6, #2, 0
    8844:	e59d300c 	ldr	r3, [sp, #12]
    8848:	e2833007 	add	r3, r3, #7, 0
    884c:	e3c33007 	bic	r3, r3, #7, 0
    8850:	e2832008 	add	r2, r3, #8, 0
    8854:	e58d200c 	str	r2, [sp, #12]
    8858:	e593a000 	ldr	sl, [r3]
    885c:	e5937004 	ldr	r7, [r3, #4]
    8860:	e1a01007 	mov	r1, r7
    8864:	e59f0308 	ldr	r0, [pc, #776]	; 8b74 <va_printk+0x494>
    8868:	ebfffec8 	bl	8390 <printk>
    886c:	e1a0100a 	mov	r1, sl
    8870:	e59f0300 	ldr	r0, [pc, #768]	; 8b78 <va_printk+0x498>
    8874:	ebfffec5 	bl	8390 <printk>
    8878:	e3a02003 	mov	r2, #3, 0
    887c:	e59f12e8 	ldr	r1, [pc, #744]	; 8b6c <va_printk+0x48c>
    8880:	e1a00006 	mov	r0, r6
    8884:	eb0002ad 	bl	9340 <strncmp>
    8888:	e3500000 	cmp	r0, #0, 0
    888c:	0a000027 	beq	8930 <va_printk+0x250>
    8890:	e3a02003 	mov	r2, #3, 0
    8894:	e59f12d4 	ldr	r1, [pc, #724]	; 8b70 <va_printk+0x490>
    8898:	e1a00006 	mov	r0, r6
    889c:	eb0002a7 	bl	9340 <strncmp>
    88a0:	e3500000 	cmp	r0, #0, 0
    88a4:	1a00003b 	bne	8998 <va_printk+0x2b8>
    88a8:	e3a06000 	mov	r6, #0, 0
    88ac:	e58d6004 	str	r6, [sp, #4]
    88b0:	e58d5000 	str	r5, [sp]
    88b4:	e1a03007 	mov	r3, r7
    88b8:	e3a02080 	mov	r2, #128, 0	; 0x80
    88bc:	e28d1010 	add	r1, sp, #16, 0
    88c0:	e3a0000a 	mov	r0, #10, 0
    88c4:	ebfffeff 	bl	84c8 <emit>
    88c8:	e1a07000 	mov	r7, r0
    88cc:	e58d6004 	str	r6, [sp, #4]
    88d0:	e58d5000 	str	r5, [sp]
    88d4:	e1a0300a 	mov	r3, sl
    88d8:	e3a02080 	mov	r2, #128, 0	; 0x80
    88dc:	e28d1090 	add	r1, sp, #144, 0	; 0x90
    88e0:	e3a0000a 	mov	r0, #10, 0
    88e4:	ebfffef7 	bl	84c8 <emit>
    88e8:	e59f128c 	ldr	r1, [pc, #652]	; 8b7c <va_printk+0x49c>
    88ec:	e28d0010 	add	r0, sp, #16, 0
    88f0:	eb00027f 	bl	92f4 <strcmp>
    88f4:	e1500006 	cmp	r0, r6
    88f8:	1a000021 	bne	8984 <va_printk+0x2a4>
    88fc:	e28d1090 	add	r1, sp, #144, 0	; 0x90
    8900:	e28d0010 	add	r0, sp, #16, 0
    8904:	eb000285 	bl	9320 <strcpy>
    8908:	e1a0600b 	mov	r6, fp
    890c:	ea00003a 	b	89fc <va_printk+0x31c>
    8910:	e59f3268 	ldr	r3, [pc, #616]	; 8b80 <va_printk+0x4a0>
    8914:	e58d3000 	str	r3, [sp]
    8918:	e3a0309f 	mov	r3, #159, 0	; 0x9f
    891c:	e59f223c 	ldr	r2, [pc, #572]	; 8b60 <va_printk+0x480>
    8920:	e59f123c 	ldr	r1, [pc, #572]	; 8b64 <va_printk+0x484>
    8924:	e59f023c 	ldr	r0, [pc, #572]	; 8b68 <va_printk+0x488>
    8928:	ebfffe98 	bl	8390 <printk>
    892c:	eb000099 	bl	8b98 <clean_reboot>
    8930:	e3a06000 	mov	r6, #0, 0
    8934:	e58d6004 	str	r6, [sp, #4]
    8938:	e58d5000 	str	r5, [sp]
    893c:	e1a03007 	mov	r3, r7
    8940:	e3a02080 	mov	r2, #128, 0	; 0x80
    8944:	e28d1010 	add	r1, sp, #16, 0
    8948:	e3a00010 	mov	r0, #16, 0
    894c:	ebfffedd 	bl	84c8 <emit>
    8950:	e1a07000 	mov	r7, r0
    8954:	e58d6004 	str	r6, [sp, #4]
    8958:	e58d5000 	str	r5, [sp]
    895c:	e1a0300a 	mov	r3, sl
    8960:	e3a02080 	mov	r2, #128, 0	; 0x80
    8964:	e28d1090 	add	r1, sp, #144, 0	; 0x90
    8968:	e3a00010 	mov	r0, #16, 0
    896c:	ebfffed5 	bl	84c8 <emit>
    8970:	e28d1092 	add	r1, sp, #146, 0	; 0x92
    8974:	e28d0010 	add	r0, sp, #16, 0
    8978:	eb000250 	bl	92c0 <strcat>
    897c:	e1a0600b 	mov	r6, fp
    8980:	ea00001d 	b	89fc <va_printk+0x31c>
    8984:	e28d1090 	add	r1, sp, #144, 0	; 0x90
    8988:	e28d0010 	add	r0, sp, #16, 0
    898c:	eb00024b 	bl	92c0 <strcat>
    8990:	e1a0600b 	mov	r6, fp
    8994:	ea000018 	b	89fc <va_printk+0x31c>
    8998:	e58d6000 	str	r6, [sp]
    899c:	e3a030b6 	mov	r3, #182, 0	; 0xb6
    89a0:	e59f21b8 	ldr	r2, [pc, #440]	; 8b60 <va_printk+0x480>
    89a4:	e59f11b8 	ldr	r1, [pc, #440]	; 8b64 <va_printk+0x484>
    89a8:	e59f01d4 	ldr	r0, [pc, #468]	; 8b84 <va_printk+0x4a4>
    89ac:	ebfffe77 	bl	8390 <printk>
    89b0:	eb000078 	bl	8b98 <clean_reboot>
    89b4:	e3a030be 	mov	r3, #190, 0	; 0xbe
    89b8:	e59f21a0 	ldr	r2, [pc, #416]	; 8b60 <va_printk+0x480>
    89bc:	e59f11a0 	ldr	r1, [pc, #416]	; 8b64 <va_printk+0x484>
    89c0:	e59f01c0 	ldr	r0, [pc, #448]	; 8b88 <va_printk+0x4a8>
    89c4:	ebfffe71 	bl	8390 <printk>
    89c8:	eb000072 	bl	8b98 <clean_reboot>
    89cc:	e59d300c 	ldr	r3, [sp, #12]
    89d0:	e2832004 	add	r2, r3, #4, 0
    89d4:	e58d200c 	str	r2, [sp, #12]
    89d8:	e5933000 	ldr	r3, [r3]
    89dc:	e3a02001 	mov	r2, #1, 0
    89e0:	e58d2004 	str	r2, [sp, #4]
    89e4:	e58d5000 	str	r5, [sp]
    89e8:	e3a02080 	mov	r2, #128, 0	; 0x80
    89ec:	e28d1010 	add	r1, sp, #16, 0
    89f0:	e3a0000a 	mov	r0, #10, 0
    89f4:	ebfffeb3 	bl	84c8 <emit>
    89f8:	e1a07000 	mov	r7, r0
    89fc:	e2866001 	add	r6, r6, #1, 0
    8a00:	ea00004a 	b	8b30 <va_printk+0x450>
    8a04:	e59d300c 	ldr	r3, [sp, #12]
    8a08:	e2832004 	add	r2, r3, #4, 0
    8a0c:	e58d200c 	str	r2, [sp, #12]
    8a10:	e5933000 	ldr	r3, [r3]
    8a14:	e3a02000 	mov	r2, #0, 0
    8a18:	e58d2004 	str	r2, [sp, #4]
    8a1c:	e58d5000 	str	r5, [sp]
    8a20:	e3a02080 	mov	r2, #128, 0	; 0x80
    8a24:	e28d1010 	add	r1, sp, #16, 0
    8a28:	e3a0000a 	mov	r0, #10, 0
    8a2c:	ebfffea5 	bl	84c8 <emit>
    8a30:	e1a07000 	mov	r7, r0
    8a34:	eafffff0 	b	89fc <va_printk+0x31c>
    8a38:	e59d300c 	ldr	r3, [sp, #12]
    8a3c:	e2832004 	add	r2, r3, #4, 0
    8a40:	e58d200c 	str	r2, [sp, #12]
    8a44:	e5933000 	ldr	r3, [r3]
    8a48:	e3a02000 	mov	r2, #0, 0
    8a4c:	e58d2004 	str	r2, [sp, #4]
    8a50:	e58d5000 	str	r5, [sp]
    8a54:	e3a02080 	mov	r2, #128, 0	; 0x80
    8a58:	e28d1010 	add	r1, sp, #16, 0
    8a5c:	e3a00010 	mov	r0, #16, 0
    8a60:	ebfffe98 	bl	84c8 <emit>
    8a64:	e1a07000 	mov	r7, r0
    8a68:	eaffffe3 	b	89fc <va_printk+0x31c>
    8a6c:	e59d300c 	ldr	r3, [sp, #12]
    8a70:	e2832004 	add	r2, r3, #4, 0
    8a74:	e58d200c 	str	r2, [sp, #12]
    8a78:	e5933000 	ldr	r3, [r3]
    8a7c:	e3a02000 	mov	r2, #0, 0
    8a80:	e58d2004 	str	r2, [sp, #4]
    8a84:	e58d5000 	str	r5, [sp]
    8a88:	e3a02080 	mov	r2, #128, 0	; 0x80
    8a8c:	e28d1010 	add	r1, sp, #16, 0
    8a90:	e3a00002 	mov	r0, #2, 0
    8a94:	ebfffe8b 	bl	84c8 <emit>
    8a98:	e1a07000 	mov	r7, r0
    8a9c:	eaffffd6 	b	89fc <va_printk+0x31c>
    8aa0:	e59d300c 	ldr	r3, [sp, #12]
    8aa4:	e2832004 	add	r2, r3, #4, 0
    8aa8:	e58d200c 	str	r2, [sp, #12]
    8aac:	e5937000 	ldr	r7, [r3]
    8ab0:	eaffffd1 	b	89fc <va_printk+0x31c>
    8ab4:	e59d300c 	ldr	r3, [sp, #12]
    8ab8:	e2832004 	add	r2, r3, #4, 0
    8abc:	e58d200c 	str	r2, [sp, #12]
    8ac0:	e5933000 	ldr	r3, [r3]
    8ac4:	e3a02000 	mov	r2, #0, 0
    8ac8:	e58d2004 	str	r2, [sp, #4]
    8acc:	e58d5000 	str	r5, [sp]
    8ad0:	e3a02080 	mov	r2, #128, 0	; 0x80
    8ad4:	e28d1010 	add	r1, sp, #16, 0
    8ad8:	e3a00008 	mov	r0, #8, 0
    8adc:	ebfffe79 	bl	84c8 <emit>
    8ae0:	e1a07000 	mov	r7, r0
    8ae4:	eaffffc4 	b	89fc <va_printk+0x31c>
    8ae8:	e3a03000 	mov	r3, #0, 0
    8aec:	e5c63001 	strb	r3, [r6, #1]
    8af0:	e1a0200a 	mov	r2, sl
    8af4:	e1a0100a 	mov	r1, sl
    8af8:	e59f008c 	ldr	r0, [pc, #140]	; 8b8c <va_printk+0x4ac>
    8afc:	ebfffe23 	bl	8390 <printk>
    8b00:	e59f3088 	ldr	r3, [pc, #136]	; 8b90 <va_printk+0x4b0>
    8b04:	e5933000 	ldr	r3, [r3]
    8b08:	e59d0008 	ldr	r0, [sp, #8]
    8b0c:	e12fff33 	blx	r3
    8b10:	e3a030e2 	mov	r3, #226, 0	; 0xe2
    8b14:	e59f2044 	ldr	r2, [pc, #68]	; 8b60 <va_printk+0x480>
    8b18:	e59f1044 	ldr	r1, [pc, #68]	; 8b64 <va_printk+0x484>
    8b1c:	e59f0070 	ldr	r0, [pc, #112]	; 8b94 <va_printk+0x4b4>
    8b20:	ebfffe1a 	bl	8390 <printk>
    8b24:	eb00001b 	bl	8b98 <clean_reboot>
    8b28:	e2877001 	add	r7, r7, #1, 0
    8b2c:	e4c43001 	strb	r3, [r4], #1
    8b30:	e1540008 	cmp	r4, r8
    8b34:	2afffef7 	bcs	8718 <va_printk+0x38>
    8b38:	e5d73000 	ldrb	r3, [r7]
    8b3c:	e3530000 	cmp	r3, #0, 0
    8b40:	1afffff8 	bne	8b28 <va_printk+0x448>
    8b44:	eafffef3 	b	8718 <va_printk+0x38>
    8b48:	e3a03000 	mov	r3, #0, 0
    8b4c:	e4c43001 	strb	r3, [r4], #1
    8b50:	e0440009 	sub	r0, r4, r9
    8b54:	e28ddf45 	add	sp, sp, #276	; 0x114
    8b58:	e8bd8ff0 	pop	{r4, r5, r6, r7, r8, r9, sl, fp, pc}
    8b5c:	000095c8 	andeq	r9, r0, r8, asr #11
    8b60:	000096e0 	andeq	r9, r0, r0, ror #13
    8b64:	00009584 	andeq	r9, r0, r4, lsl #11
    8b68:	00009504 	andeq	r9, r0, r4, lsl #10
    8b6c:	000095d4 	ldrdeq	r9, [r0], -r4
    8b70:	000095d8 	ldrdeq	r9, [r0], -r8
    8b74:	000095dc 	ldrdeq	r9, [r0], -ip
    8b78:	000095e4 	andeq	r9, r0, r4, ror #11
    8b7c:	00009598 	muleq	r0, r8, r5
    8b80:	000095ec 	andeq	r9, r0, ip, ror #11
    8b84:	00009628 	andeq	r9, r0, r8, lsr #12
    8b88:	00009650 	andeq	r9, r0, r0, asr r6
    8b8c:	00009678 	andeq	r9, r0, r8, ror r6
    8b90:	000098f8 	strdeq	r9, [r0], -r8
    8b94:	000096a8 	andeq	r9, r0, r8, lsr #13

00008b98 <clean_reboot>:
    8b98:	e92d4010 	push	{r4, lr}
    8b9c:	e59f3018 	ldr	r3, [pc, #24]	; 8bbc <clean_reboot+0x24>
    8ba0:	e5933000 	ldr	r3, [r3]
    8ba4:	e59f0014 	ldr	r0, [pc, #20]	; 8bc0 <clean_reboot+0x28>
    8ba8:	e12fff33 	blx	r3
    8bac:	eb0000c3 	bl	8ec0 <uart_flush_tx>
    8bb0:	e3a0000a 	mov	r0, #10, 0
    8bb4:	eb000047 	bl	8cd8 <delay_ms>
    8bb8:	eb00001c 	bl	8c30 <rpi_reboot>
    8bbc:	000098f8 	strdeq	r9, [r0], -r8
    8bc0:	000096ec 	andeq	r9, r0, ip, ror #13

00008bc4 <_cstart>:
    8bc4:	e92d4010 	push	{r4, lr}
    8bc8:	eb00000c 	bl	8c00 <custom_loader>
    8bcc:	e59f3024 	ldr	r3, [pc, #36]	; 8bf8 <_cstart+0x34>
    8bd0:	e59f2024 	ldr	r2, [pc, #36]	; 8bfc <_cstart+0x38>
    8bd4:	e1530002 	cmp	r3, r2
    8bd8:	33a02000 	movcc	r2, #0, 0
    8bdc:	34832004 	strcc	r2, [r3], #4
    8be0:	3afffffa 	bcc	8bd0 <_cstart+0xc>
    8be4:	eb000057 	bl	8d48 <uart_init>
    8be8:	e3a03001 	mov	r3, #1, 0
    8bec:	ee0f3f1c 	mcr	15, 0, r3, cr15, cr12, {0}
    8bf0:	ebfffd55 	bl	814c <notmain>
    8bf4:	ebffffe7 	bl	8b98 <clean_reboot>
    8bf8:	00009908 	andeq	r9, r0, r8, lsl #18
    8bfc:	00009d20 	andeq	r9, r0, r0, lsr #26

00008c00 <custom_loader>:
    8c00:	e12fff1e 	bx	lr

00008c04 <at_user_level>:
    8c04:	e10f0000 	mrs	r0, CPSR
    8c08:	e200001f 	and	r0, r0, #31, 0
    8c0c:	e3500010 	cmp	r0, #16, 0
    8c10:	13a00000 	movne	r0, #0, 0
    8c14:	03a00001 	moveq	r0, #1, 0
    8c18:	e12fff1e 	bx	lr

00008c1c <set_user_level>:
    8c1c:	e10f3000 	mrs	r3, CPSR
    8c20:	e3c3301f 	bic	r3, r3, #31, 0
    8c24:	e3833010 	orr	r3, r3, #16, 0
    8c28:	e129f003 	msr	CPSR_fc, r3
    8c2c:	e12fff1e 	bx	lr

00008c30 <rpi_reboot>:
    8c30:	e92d4010 	push	{r4, lr}
    8c34:	ebfffff2 	bl	8c04 <at_user_level>
    8c38:	e3500000 	cmp	r0, #0, 0
    8c3c:	1a00000a 	bne	8c6c <rpi_reboot+0x3c>
    8c40:	eb0001c9 	bl	936c <reboot_callout>
    8c44:	eb00009d 	bl	8ec0 <uart_flush_tx>
    8c48:	e3a0000a 	mov	r0, #10, 0
    8c4c:	eb000021 	bl	8cd8 <delay_ms>
    8c50:	e59f101c 	ldr	r1, [pc, #28]	; 8c74 <rpi_reboot+0x44>
    8c54:	e59f001c 	ldr	r0, [pc, #28]	; 8c78 <rpi_reboot+0x48>
    8c58:	ebfffcf1 	bl	8024 <PUT32>
    8c5c:	e59f1018 	ldr	r1, [pc, #24]	; 8c7c <rpi_reboot+0x4c>
    8c60:	e59f0018 	ldr	r0, [pc, #24]	; 8c80 <rpi_reboot+0x50>
    8c64:	ebfffcee 	bl	8024 <PUT32>
    8c68:	eafffffe 	b	8c68 <rpi_reboot+0x38>
    8c6c:	ebffffea 	bl	8c1c <set_user_level>
    8c70:	eafffff2 	b	8c40 <rpi_reboot+0x10>
    8c74:	5a000001 	bpl	8c80 <rpi_reboot+0x50>
    8c78:	20100024 	andscs	r0, r0, r4, lsr #32
    8c7c:	5a000020 	bpl	8d04 <delay_sec+0x14>
    8c80:	2010001c 	andscs	r0, r0, ip, lsl r0

00008c84 <timer_get_usec_raw>:
    8c84:	e92d4010 	push	{r4, lr}
    8c88:	e59f0004 	ldr	r0, [pc, #4]	; 8c94 <timer_get_usec_raw+0x10>
    8c8c:	ebfffce6 	bl	802c <GET32>
    8c90:	e8bd8010 	pop	{r4, pc}
    8c94:	20003004 	andcs	r3, r0, r4

00008c98 <timer_get_usec>:
    8c98:	e92d4010 	push	{r4, lr}
    8c9c:	eb0001b3 	bl	9370 <dev_barrier>
    8ca0:	ebfffff7 	bl	8c84 <timer_get_usec_raw>
    8ca4:	e1a04000 	mov	r4, r0
    8ca8:	eb0001b0 	bl	9370 <dev_barrier>
    8cac:	e1a00004 	mov	r0, r4
    8cb0:	e8bd8010 	pop	{r4, pc}

00008cb4 <delay_us>:
    8cb4:	e92d4070 	push	{r4, r5, r6, lr}
    8cb8:	e1a05000 	mov	r5, r0
    8cbc:	ebfffff5 	bl	8c98 <timer_get_usec>
    8cc0:	e1a04000 	mov	r4, r0
    8cc4:	ebfffff3 	bl	8c98 <timer_get_usec>
    8cc8:	e0400004 	sub	r0, r0, r4
    8ccc:	e1500005 	cmp	r0, r5
    8cd0:	3afffffb 	bcc	8cc4 <delay_us+0x10>
    8cd4:	e8bd8070 	pop	{r4, r5, r6, pc}

00008cd8 <delay_ms>:
    8cd8:	e92d4010 	push	{r4, lr}
    8cdc:	e0603280 	rsb	r3, r0, r0, lsl #5
    8ce0:	e0800103 	add	r0, r0, r3, lsl #2
    8ce4:	e1a00180 	lsl	r0, r0, #3
    8ce8:	ebfffff1 	bl	8cb4 <delay_us>
    8cec:	e8bd8010 	pop	{r4, pc}

00008cf0 <delay_sec>:
    8cf0:	e92d4010 	push	{r4, lr}
    8cf4:	e0603280 	rsb	r3, r0, r0, lsl #5
    8cf8:	e0800103 	add	r0, r0, r3, lsl #2
    8cfc:	e1a00180 	lsl	r0, r0, #3
    8d00:	ebfffff4 	bl	8cd8 <delay_ms>
    8d04:	e8bd8010 	pop	{r4, pc}

00008d08 <and_in32>:
    8d08:	e92d4070 	push	{r4, r5, r6, lr}
    8d0c:	e1a04000 	mov	r4, r0
    8d10:	e1a05001 	mov	r5, r1
    8d14:	ebfffcc4 	bl	802c <GET32>
    8d18:	e0001005 	and	r1, r0, r5
    8d1c:	e1a00004 	mov	r0, r4
    8d20:	ebfffcbf 	bl	8024 <PUT32>
    8d24:	e8bd8070 	pop	{r4, r5, r6, pc}

00008d28 <or_in32>:
    8d28:	e92d4070 	push	{r4, r5, r6, lr}
    8d2c:	e1a04000 	mov	r4, r0
    8d30:	e1a05001 	mov	r5, r1
    8d34:	ebfffcbc 	bl	802c <GET32>
    8d38:	e1801005 	orr	r1, r0, r5
    8d3c:	e1a00004 	mov	r0, r4
    8d40:	ebfffcb7 	bl	8024 <PUT32>
    8d44:	e8bd8070 	pop	{r4, r5, r6, pc}

00008d48 <uart_init>:
    8d48:	e92d4010 	push	{r4, lr}
    8d4c:	e3a01002 	mov	r1, #2, 0
    8d50:	e3a0000e 	mov	r0, #14, 0
    8d54:	eb00018b 	bl	9388 <gpio_set_function>
    8d58:	e3a01002 	mov	r1, #2, 0
    8d5c:	e3a0000f 	mov	r0, #15, 0
    8d60:	eb000188 	bl	9388 <gpio_set_function>
    8d64:	eb000181 	bl	9370 <dev_barrier>
    8d68:	e3a01001 	mov	r1, #1, 0
    8d6c:	e59f0064 	ldr	r0, [pc, #100]	; 8dd8 <uart_init+0x90>
    8d70:	ebffffec 	bl	8d28 <or_in32>
    8d74:	eb00017d 	bl	9370 <dev_barrier>
    8d78:	e59f405c 	ldr	r4, [pc, #92]	; 8ddc <uart_init+0x94>
    8d7c:	e3a01000 	mov	r1, #0, 0
    8d80:	e1a00004 	mov	r0, r4
    8d84:	ebfffca6 	bl	8024 <PUT32>
    8d88:	e3a01000 	mov	r1, #0, 0
    8d8c:	e59f004c 	ldr	r0, [pc, #76]	; 8de0 <uart_init+0x98>
    8d90:	ebfffca3 	bl	8024 <PUT32>
    8d94:	e3a01003 	mov	r1, #3, 0
    8d98:	e59f0044 	ldr	r0, [pc, #68]	; 8de4 <uart_init+0x9c>
    8d9c:	ebfffca0 	bl	8024 <PUT32>
    8da0:	e3a01000 	mov	r1, #0, 0
    8da4:	e59f003c 	ldr	r0, [pc, #60]	; 8de8 <uart_init+0xa0>
    8da8:	ebfffc9d 	bl	8024 <PUT32>
    8dac:	e3a010c7 	mov	r1, #199, 0	; 0xc7
    8db0:	e59f0034 	ldr	r0, [pc, #52]	; 8dec <uart_init+0xa4>
    8db4:	ebfffc9a 	bl	8024 <PUT32>
    8db8:	e59f1030 	ldr	r1, [pc, #48]	; 8df0 <uart_init+0xa8>
    8dbc:	e59f0030 	ldr	r0, [pc, #48]	; 8df4 <uart_init+0xac>
    8dc0:	ebfffc97 	bl	8024 <PUT32>
    8dc4:	e3a01003 	mov	r1, #3, 0
    8dc8:	e1a00004 	mov	r0, r4
    8dcc:	ebfffc94 	bl	8024 <PUT32>
    8dd0:	eb000166 	bl	9370 <dev_barrier>
    8dd4:	e8bd8010 	pop	{r4, pc}
    8dd8:	20215004 	eorcs	r5, r1, r4
    8ddc:	20215060 	eorcs	r5, r1, r0, rrx
    8de0:	20215044 	eorcs	r5, r1, r4, asr #32
    8de4:	2021504c 	eorcs	r5, r1, ip, asr #32
    8de8:	20215050 	eorcs	r5, r1, r0, asr r0
    8dec:	20215048 	eorcs	r5, r1, r8, asr #32
    8df0:	0000010e 	andeq	r0, r0, lr, lsl #2
    8df4:	20215068 	eorcs	r5, r1, r8, rrx

00008df8 <uart_can_getc>:
    8df8:	e92d4010 	push	{r4, lr}
    8dfc:	e59f0008 	ldr	r0, [pc, #8]	; 8e0c <uart_can_getc+0x14>
    8e00:	ebfffc89 	bl	802c <GET32>
    8e04:	e2000001 	and	r0, r0, #1, 0
    8e08:	e8bd8010 	pop	{r4, pc}
    8e0c:	20215064 	eorcs	r5, r1, r4, rrx

00008e10 <uart_can_putc>:
    8e10:	e92d4010 	push	{r4, lr}
    8e14:	e59f0010 	ldr	r0, [pc, #16]	; 8e2c <uart_can_putc+0x1c>
    8e18:	ebfffc83 	bl	802c <GET32>
    8e1c:	e3100002 	tst	r0, #2, 0
    8e20:	13a00001 	movne	r0, #1, 0
    8e24:	03a00000 	moveq	r0, #0, 0
    8e28:	e8bd8010 	pop	{r4, pc}
    8e2c:	20215064 	eorcs	r5, r1, r4, rrx

00008e30 <uart_getc>:
    8e30:	e92d4010 	push	{r4, lr}
    8e34:	eb00014d 	bl	9370 <dev_barrier>
    8e38:	ebffffee 	bl	8df8 <uart_can_getc>
    8e3c:	e3500000 	cmp	r0, #0, 0
    8e40:	0afffffc 	beq	8e38 <uart_getc+0x8>
    8e44:	e59f0010 	ldr	r0, [pc, #16]	; 8e5c <uart_getc+0x2c>
    8e48:	ebfffc77 	bl	802c <GET32>
    8e4c:	e6ef4070 	uxtb	r4, r0
    8e50:	eb000146 	bl	9370 <dev_barrier>
    8e54:	e1a00004 	mov	r0, r4
    8e58:	e8bd8010 	pop	{r4, pc}
    8e5c:	20215040 	eorcs	r5, r1, r0, asr #32

00008e60 <uart_putc>:
    8e60:	e92d4010 	push	{r4, lr}
    8e64:	e1a04000 	mov	r4, r0
    8e68:	eb000140 	bl	9370 <dev_barrier>
    8e6c:	ebffffe7 	bl	8e10 <uart_can_putc>
    8e70:	e3500000 	cmp	r0, #0, 0
    8e74:	0afffffc 	beq	8e6c <uart_putc+0xc>
    8e78:	e6ef1074 	uxtb	r1, r4
    8e7c:	e59f0008 	ldr	r0, [pc, #8]	; 8e8c <uart_putc+0x2c>
    8e80:	ebfffc67 	bl	8024 <PUT32>
    8e84:	eb000139 	bl	9370 <dev_barrier>
    8e88:	e8bd8010 	pop	{r4, pc}
    8e8c:	20215040 	eorcs	r5, r1, r0, asr #32

00008e90 <uart_has_data>:
    8e90:	e92d4010 	push	{r4, lr}
    8e94:	eb000135 	bl	9370 <dev_barrier>
    8e98:	ebffffd6 	bl	8df8 <uart_can_getc>
    8e9c:	e8bd8010 	pop	{r4, pc}

00008ea0 <uart_tx_is_empty>:
    8ea0:	e92d4010 	push	{r4, lr}
    8ea4:	eb000131 	bl	9370 <dev_barrier>
    8ea8:	e59f000c 	ldr	r0, [pc, #12]	; 8ebc <uart_tx_is_empty+0x1c>
    8eac:	ebfffc5e 	bl	802c <GET32>
    8eb0:	e1a004a0 	lsr	r0, r0, #9
    8eb4:	e2000001 	and	r0, r0, #1, 0
    8eb8:	e8bd8010 	pop	{r4, pc}
    8ebc:	20215064 	eorcs	r5, r1, r4, rrx

00008ec0 <uart_flush_tx>:
    8ec0:	e92d4010 	push	{r4, lr}
    8ec4:	ebfffff5 	bl	8ea0 <uart_tx_is_empty>
    8ec8:	e3500000 	cmp	r0, #0, 0
    8ecc:	0afffffc 	beq	8ec4 <uart_flush_tx+0x4>
    8ed0:	e8bd8010 	pop	{r4, pc}

00008ed4 <uart_disable>:
    8ed4:	e92d4010 	push	{r4, lr}
    8ed8:	ebfffff8 	bl	8ec0 <uart_flush_tx>
    8edc:	eb000123 	bl	9370 <dev_barrier>
    8ee0:	e3e01001 	mvn	r1, #1, 0
    8ee4:	e59f0008 	ldr	r0, [pc, #8]	; 8ef4 <uart_disable+0x20>
    8ee8:	ebffff86 	bl	8d08 <and_in32>
    8eec:	eb00011f 	bl	9370 <dev_barrier>
    8ef0:	e8bd8010 	pop	{r4, pc}
    8ef4:	20215004 	eorcs	r5, r1, r4

00008ef8 <kmalloc_heap_end>:
    8ef8:	e59f3004 	ldr	r3, [pc, #4]	; 8f04 <kmalloc_heap_end+0xc>
    8efc:	e5930000 	ldr	r0, [r3]
    8f00:	e12fff1e 	bx	lr
    8f04:	000098fc 	strdeq	r9, [r0], -ip

00008f08 <kmalloc_heap_start>:
    8f08:	e59f3004 	ldr	r3, [pc, #4]	; 8f14 <kmalloc_heap_start+0xc>
    8f0c:	e5930004 	ldr	r0, [r3, #4]
    8f10:	e12fff1e 	bx	lr
    8f14:	000098fc 	strdeq	r9, [r0], -ip

00008f18 <kmalloc_heap_ptr>:
    8f18:	e59f3004 	ldr	r3, [pc, #4]	; 8f24 <kmalloc_heap_ptr+0xc>
    8f1c:	e5930008 	ldr	r0, [r3, #8]
    8f20:	e12fff1e 	bx	lr
    8f24:	000098fc 	strdeq	r9, [r0], -ip

00008f28 <kmalloc_init_set_start>:
    8f28:	e52de004 	push	{lr}		; (str lr, [sp, #-4]!)
    8f2c:	e24dd00c 	sub	sp, sp, #12, 0
    8f30:	e3510000 	cmp	r1, #0, 0
    8f34:	0a00000a 	beq	8f64 <kmalloc_init_set_start+0x3c>
    8f38:	e59f306c 	ldr	r3, [pc, #108]	; 8fac <kmalloc_init_set_start+0x84>
    8f3c:	e5933008 	ldr	r3, [r3, #8]
    8f40:	e1530000 	cmp	r3, r0
    8f44:	8a00000e 	bhi	8f84 <kmalloc_init_set_start+0x5c>
    8f48:	e59f305c 	ldr	r3, [pc, #92]	; 8fac <kmalloc_init_set_start+0x84>
    8f4c:	e5830008 	str	r0, [r3, #8]
    8f50:	e5830004 	str	r0, [r3, #4]
    8f54:	e0800001 	add	r0, r0, r1
    8f58:	e5830000 	str	r0, [r3]
    8f5c:	e28dd00c 	add	sp, sp, #12, 0
    8f60:	e49df004 	pop	{pc}		; (ldr pc, [sp], #4)
    8f64:	e59f3044 	ldr	r3, [pc, #68]	; 8fb0 <kmalloc_init_set_start+0x88>
    8f68:	e58d3000 	str	r3, [sp]
    8f6c:	e3a03030 	mov	r3, #48, 0	; 0x30
    8f70:	e59f203c 	ldr	r2, [pc, #60]	; 8fb4 <kmalloc_init_set_start+0x8c>
    8f74:	e59f103c 	ldr	r1, [pc, #60]	; 8fb8 <kmalloc_init_set_start+0x90>
    8f78:	e59f003c 	ldr	r0, [pc, #60]	; 8fbc <kmalloc_init_set_start+0x94>
    8f7c:	ebfffd03 	bl	8390 <printk>
    8f80:	ebffff04 	bl	8b98 <clean_reboot>
    8f84:	e59f3020 	ldr	r3, [pc, #32]	; 8fac <kmalloc_init_set_start+0x84>
    8f88:	e5933000 	ldr	r3, [r3]
    8f8c:	e58d3004 	str	r3, [sp, #4]
    8f90:	e58d0000 	str	r0, [sp]
    8f94:	e3a03034 	mov	r3, #52, 0	; 0x34
    8f98:	e59f2014 	ldr	r2, [pc, #20]	; 8fb4 <kmalloc_init_set_start+0x8c>
    8f9c:	e59f1014 	ldr	r1, [pc, #20]	; 8fb8 <kmalloc_init_set_start+0x90>
    8fa0:	e59f0018 	ldr	r0, [pc, #24]	; 8fc0 <kmalloc_init_set_start+0x98>
    8fa4:	ebfffcf9 	bl	8390 <printk>
    8fa8:	ebfffefa 	bl	8b98 <clean_reboot>
    8fac:	000098fc 	strdeq	r9, [r0], -ip
    8fb0:	00009704 	andeq	r9, r0, r4, lsl #14
    8fb4:	00009890 	muleq	r0, r0, r8
    8fb8:	000096f8 	strdeq	r9, [r0], -r8
    8fbc:	00009504 	andeq	r9, r0, r4, lsl #10
    8fc0:	00009710 	andeq	r9, r0, r0, lsl r7

00008fc4 <kmalloc_init>:
    8fc4:	e92d4010 	push	{r4, lr}
    8fc8:	e59f303c 	ldr	r3, [pc, #60]	; 900c <kmalloc_init+0x48>
    8fcc:	e5933000 	ldr	r3, [r3]
    8fd0:	e3530000 	cmp	r3, #0, 0
    8fd4:	1a000006 	bne	8ff4 <kmalloc_init+0x30>
    8fd8:	e59f302c 	ldr	r3, [pc, #44]	; 900c <kmalloc_init+0x48>
    8fdc:	e3a02001 	mov	r2, #1, 0
    8fe0:	e5832000 	str	r2, [r3]
    8fe4:	e3a01201 	mov	r1, #268435456	; 0x10000000
    8fe8:	e3a00601 	mov	r0, #1048576	; 0x100000
    8fec:	ebffffcd 	bl	8f28 <kmalloc_init_set_start>
    8ff0:	e8bd8010 	pop	{r4, pc}
    8ff4:	e3a03040 	mov	r3, #64, 0	; 0x40
    8ff8:	e59f2010 	ldr	r2, [pc, #16]	; 9010 <kmalloc_init+0x4c>
    8ffc:	e59f1010 	ldr	r1, [pc, #16]	; 9014 <kmalloc_init+0x50>
    9000:	e59f0010 	ldr	r0, [pc, #16]	; 9018 <kmalloc_init+0x54>
    9004:	ebfffce1 	bl	8390 <printk>
    9008:	ebfffee2 	bl	8b98 <clean_reboot>
    900c:	00009d18 	andeq	r9, r0, r8, lsl sp
    9010:	000098a8 	andeq	r9, r0, r8, lsr #17
    9014:	000096f8 	strdeq	r9, [r0], -r8
    9018:	00009754 	andeq	r9, r0, r4, asr r7

0000901c <kmalloc_notzero>:
    901c:	e52de004 	push	{lr}		; (str lr, [sp, #-4]!)
    9020:	e24dd00c 	sub	sp, sp, #12, 0
    9024:	e3500000 	cmp	r0, #0, 0
    9028:	0a00000a 	beq	9058 <kmalloc_notzero+0x3c>
    902c:	e2800007 	add	r0, r0, #7, 0
    9030:	e3c03007 	bic	r3, r0, #7, 0
    9034:	e59f2060 	ldr	r2, [pc, #96]	; 909c <kmalloc_notzero+0x80>
    9038:	e5920008 	ldr	r0, [r2, #8]
    903c:	e0801003 	add	r1, r0, r3
    9040:	e5821008 	str	r1, [r2, #8]
    9044:	e5922000 	ldr	r2, [r2]
    9048:	e1510002 	cmp	r1, r2
    904c:	8a000009 	bhi	9078 <kmalloc_notzero+0x5c>
    9050:	e28dd00c 	add	sp, sp, #12, 0
    9054:	e49df004 	pop	{pc}		; (ldr pc, [sp], #4)
    9058:	e59f3040 	ldr	r3, [pc, #64]	; 90a0 <kmalloc_notzero+0x84>
    905c:	e58d3000 	str	r3, [sp]
    9060:	e3a03048 	mov	r3, #72, 0	; 0x48
    9064:	e59f2038 	ldr	r2, [pc, #56]	; 90a4 <kmalloc_notzero+0x88>
    9068:	e59f1038 	ldr	r1, [pc, #56]	; 90a8 <kmalloc_notzero+0x8c>
    906c:	e59f0038 	ldr	r0, [pc, #56]	; 90ac <kmalloc_notzero+0x90>
    9070:	ebfffcc6 	bl	8390 <printk>
    9074:	ebfffec7 	bl	8b98 <clean_reboot>
    9078:	e0422000 	sub	r2, r2, r0
    907c:	e58d2004 	str	r2, [sp, #4]
    9080:	e58d3000 	str	r3, [sp]
    9084:	e3a0304e 	mov	r3, #78, 0	; 0x4e
    9088:	e59f2014 	ldr	r2, [pc, #20]	; 90a4 <kmalloc_notzero+0x88>
    908c:	e59f1014 	ldr	r1, [pc, #20]	; 90a8 <kmalloc_notzero+0x8c>
    9090:	e59f0018 	ldr	r0, [pc, #24]	; 90b0 <kmalloc_notzero+0x94>
    9094:	ebfffcbd 	bl	8390 <printk>
    9098:	ebfffebe 	bl	8b98 <clean_reboot>
    909c:	000098fc 	strdeq	r9, [r0], -ip
    90a0:	00009708 	andeq	r9, r0, r8, lsl #14
    90a4:	000098b8 			; <UNDEFINED> instruction: 0x000098b8
    90a8:	000096f8 	strdeq	r9, [r0], -r8
    90ac:	00009504 	andeq	r9, r0, r4, lsl #10
    90b0:	00009784 	andeq	r9, r0, r4, lsl #15

000090b4 <kmalloc>:
    90b4:	e92d4030 	push	{r4, r5, lr}
    90b8:	e24dd00c 	sub	sp, sp, #12, 0
    90bc:	e2504000 	subs	r4, r0, #0, 0
    90c0:	0a000008 	beq	90e8 <kmalloc+0x34>
    90c4:	e1a00004 	mov	r0, r4
    90c8:	ebffffd3 	bl	901c <kmalloc_notzero>
    90cc:	e1a05000 	mov	r5, r0
    90d0:	e1a02004 	mov	r2, r4
    90d4:	e3a01000 	mov	r1, #0, 0
    90d8:	eb000072 	bl	92a8 <memset>
    90dc:	e1a00005 	mov	r0, r5
    90e0:	e28dd00c 	add	sp, sp, #12, 0
    90e4:	e8bd8030 	pop	{r4, r5, pc}
    90e8:	e59f3018 	ldr	r3, [pc, #24]	; 9108 <kmalloc+0x54>
    90ec:	e58d3000 	str	r3, [sp]
    90f0:	e3a03054 	mov	r3, #84, 0	; 0x54
    90f4:	e59f2010 	ldr	r2, [pc, #16]	; 910c <kmalloc+0x58>
    90f8:	e59f1010 	ldr	r1, [pc, #16]	; 9110 <kmalloc+0x5c>
    90fc:	e59f0010 	ldr	r0, [pc, #16]	; 9114 <kmalloc+0x60>
    9100:	ebfffca2 	bl	8390 <printk>
    9104:	ebfffea3 	bl	8b98 <clean_reboot>
    9108:	00009708 	andeq	r9, r0, r8, lsl #14
    910c:	000098c8 	andeq	r9, r0, r8, asr #17
    9110:	000096f8 	strdeq	r9, [r0], -r8
    9114:	00009504 	andeq	r9, r0, r4, lsl #10

00009118 <kmalloc_aligned>:
    9118:	e52de004 	push	{lr}		; (str lr, [sp, #-4]!)
    911c:	e24dd00c 	sub	sp, sp, #12, 0
    9120:	e3500000 	cmp	r0, #0, 0
    9124:	0a000014 	beq	917c <kmalloc_aligned+0x64>
    9128:	e2613000 	rsb	r3, r1, #0, 0
    912c:	e1d13003 	bics	r3, r1, r3
    9130:	1a000019 	bne	919c <kmalloc_aligned+0x84>
    9134:	e3510008 	cmp	r1, #8, 0
    9138:	33a01008 	movcc	r1, #8, 0
    913c:	e59f30c0 	ldr	r3, [pc, #192]	; 9204 <kmalloc_aligned+0xec>
    9140:	e5932008 	ldr	r2, [r3, #8]
    9144:	e2613000 	rsb	r3, r1, #0, 0
    9148:	e1d1c003 	bics	ip, r1, r3
    914c:	1a00001b 	bne	91c0 <kmalloc_aligned+0xa8>
    9150:	e0822001 	add	r2, r2, r1
    9154:	e2422001 	sub	r2, r2, #1, 0
    9158:	e0033002 	and	r3, r3, r2
    915c:	e2411001 	sub	r1, r1, #1, 0
    9160:	e1110003 	tst	r1, r3
    9164:	1a00001d 	bne	91e0 <kmalloc_aligned+0xc8>
    9168:	e59f2094 	ldr	r2, [pc, #148]	; 9204 <kmalloc_aligned+0xec>
    916c:	e5823008 	str	r3, [r2, #8]
    9170:	ebffffcf 	bl	90b4 <kmalloc>
    9174:	e28dd00c 	add	sp, sp, #12, 0
    9178:	e49df004 	pop	{pc}		; (ldr pc, [sp], #4)
    917c:	e59f3084 	ldr	r3, [pc, #132]	; 9208 <kmalloc_aligned+0xf0>
    9180:	e58d3000 	str	r3, [sp]
    9184:	e3a0305f 	mov	r3, #95, 0	; 0x5f
    9188:	e59f207c 	ldr	r2, [pc, #124]	; 920c <kmalloc_aligned+0xf4>
    918c:	e59f107c 	ldr	r1, [pc, #124]	; 9210 <kmalloc_aligned+0xf8>
    9190:	e59f007c 	ldr	r0, [pc, #124]	; 9214 <kmalloc_aligned+0xfc>
    9194:	ebfffc7d 	bl	8390 <printk>
    9198:	ebfffe7e 	bl	8b98 <clean_reboot>
    919c:	ebfffc96 	bl	83fc <rpi_reset_putc>
    91a0:	e59f3070 	ldr	r3, [pc, #112]	; 9218 <kmalloc_aligned+0x100>
    91a4:	e58d3000 	str	r3, [sp]
    91a8:	e3a03060 	mov	r3, #96, 0	; 0x60
    91ac:	e59f2058 	ldr	r2, [pc, #88]	; 920c <kmalloc_aligned+0xf4>
    91b0:	e59f1058 	ldr	r1, [pc, #88]	; 9210 <kmalloc_aligned+0xf8>
    91b4:	e59f0060 	ldr	r0, [pc, #96]	; 921c <kmalloc_aligned+0x104>
    91b8:	ebfffc74 	bl	8390 <printk>
    91bc:	ebfffe75 	bl	8b98 <clean_reboot>
    91c0:	e59f3058 	ldr	r3, [pc, #88]	; 9220 <kmalloc_aligned+0x108>
    91c4:	e58d3000 	str	r3, [sp]
    91c8:	e3a03011 	mov	r3, #17, 0
    91cc:	e59f2050 	ldr	r2, [pc, #80]	; 9224 <kmalloc_aligned+0x10c>
    91d0:	e59f1038 	ldr	r1, [pc, #56]	; 9210 <kmalloc_aligned+0xf8>
    91d4:	e59f0038 	ldr	r0, [pc, #56]	; 9214 <kmalloc_aligned+0xfc>
    91d8:	ebfffc6c 	bl	8390 <printk>
    91dc:	ebfffe6d 	bl	8b98 <clean_reboot>
    91e0:	ebfffc85 	bl	83fc <rpi_reset_putc>
    91e4:	e59f303c 	ldr	r3, [pc, #60]	; 9228 <kmalloc_aligned+0x110>
    91e8:	e58d3000 	str	r3, [sp]
    91ec:	e3a03068 	mov	r3, #104, 0	; 0x68
    91f0:	e59f2014 	ldr	r2, [pc, #20]	; 920c <kmalloc_aligned+0xf4>
    91f4:	e59f1014 	ldr	r1, [pc, #20]	; 9210 <kmalloc_aligned+0xf8>
    91f8:	e59f002c 	ldr	r0, [pc, #44]	; 922c <kmalloc_aligned+0x114>
    91fc:	ebfffc63 	bl	8390 <printk>
    9200:	ebfffe64 	bl	8b98 <clean_reboot>
    9204:	000098fc 	strdeq	r9, [r0], -ip
    9208:	00009708 	andeq	r9, r0, r8, lsl #14
    920c:	000098d0 	ldrdeq	r9, [r0], -r0
    9210:	000096f8 	strdeq	r9, [r0], -r8
    9214:	00009504 	andeq	r9, r0, r4, lsl #10
    9218:	000097f8 	strdeq	r9, [r0], -r8
    921c:	000097c4 	andeq	r9, r0, r4, asr #15
    9220:	0000980c 	andeq	r9, r0, ip, lsl #16
    9224:	000098e0 	andeq	r9, r0, r0, ror #17
    9228:	00009844 	andeq	r9, r0, r4, asr #16
    922c:	00009818 	andeq	r9, r0, r8, lsl r8

00009230 <kfree>:
    9230:	e12fff1e 	bx	lr

00009234 <kfree_all>:
    9234:	e59f3008 	ldr	r3, [pc, #8]	; 9244 <kfree_all+0x10>
    9238:	e5932004 	ldr	r2, [r3, #4]
    923c:	e5832008 	str	r2, [r3, #8]
    9240:	e12fff1e 	bx	lr
    9244:	000098fc 	strdeq	r9, [r0], -ip

00009248 <kfree_pop>:
    9248:	e59f3048 	ldr	r3, [pc, #72]	; 9298 <kfree_pop+0x50>
    924c:	e5933004 	ldr	r3, [r3, #4]
    9250:	e1530000 	cmp	r3, r0
    9254:	8a000006 	bhi	9274 <kfree_pop+0x2c>
    9258:	e59f3038 	ldr	r3, [pc, #56]	; 9298 <kfree_pop+0x50>
    925c:	e5933000 	ldr	r3, [r3]
    9260:	e1530000 	cmp	r3, r0
    9264:	3a000002 	bcc	9274 <kfree_pop+0x2c>
    9268:	e59f3028 	ldr	r3, [pc, #40]	; 9298 <kfree_pop+0x50>
    926c:	e5830008 	str	r0, [r3, #8]
    9270:	e12fff1e 	bx	lr
    9274:	e52de004 	push	{lr}		; (str lr, [sp, #-4]!)
    9278:	e24dd00c 	sub	sp, sp, #12, 0
    927c:	e58d0000 	str	r0, [sp]
    9280:	e3a03077 	mov	r3, #119, 0	; 0x77
    9284:	e59f2010 	ldr	r2, [pc, #16]	; 929c <kfree_pop+0x54>
    9288:	e59f1010 	ldr	r1, [pc, #16]	; 92a0 <kfree_pop+0x58>
    928c:	e59f0010 	ldr	r0, [pc, #16]	; 92a4 <kfree_pop+0x5c>
    9290:	ebfffc3e 	bl	8390 <printk>
    9294:	ebfffe3f 	bl	8b98 <clean_reboot>
    9298:	000098fc 	strdeq	r9, [r0], -ip
    929c:	000098e8 	andeq	r9, r0, r8, ror #17
    92a0:	000096f8 	strdeq	r9, [r0], -r8
    92a4:	00009860 	andeq	r9, r0, r0, ror #16

000092a8 <memset>:
    92a8:	e0802002 	add	r2, r0, r2
    92ac:	e1a03000 	mov	r3, r0
    92b0:	e1530002 	cmp	r3, r2
    92b4:	212fff1e 	bxcs	lr
    92b8:	e4c31001 	strb	r1, [r3], #1
    92bc:	eafffffb 	b	92b0 <memset+0x8>

000092c0 <strcat>:
    92c0:	e1a02000 	mov	r2, r0
    92c4:	e1a03002 	mov	r3, r2
    92c8:	e2822001 	add	r2, r2, #1, 0
    92cc:	e5d3c000 	ldrb	ip, [r3]
    92d0:	e35c0000 	cmp	ip, #0, 0
    92d4:	1afffffa 	bne	92c4 <strcat+0x4>
    92d8:	e2433001 	sub	r3, r3, #1, 0
    92dc:	e5d12000 	ldrb	r2, [r1]
    92e0:	e2811001 	add	r1, r1, #1, 0
    92e4:	e5e32001 	strb	r2, [r3, #1]!
    92e8:	e3520000 	cmp	r2, #0, 0
    92ec:	1afffffa 	bne	92dc <strcat+0x1c>
    92f0:	e12fff1e 	bx	lr

000092f4 <strcmp>:
    92f4:	e5d03000 	ldrb	r3, [r0]
    92f8:	e3530000 	cmp	r3, #0, 0
    92fc:	0a000004 	beq	9314 <strcmp+0x20>
    9300:	e5d12000 	ldrb	r2, [r1]
    9304:	e1530002 	cmp	r3, r2
    9308:	02800001 	addeq	r0, r0, #1, 0
    930c:	02811001 	addeq	r1, r1, #1, 0
    9310:	0afffff7 	beq	92f4 <strcmp>
    9314:	e5d10000 	ldrb	r0, [r1]
    9318:	e0430000 	sub	r0, r3, r0
    931c:	e12fff1e 	bx	lr

00009320 <strcpy>:
    9320:	e1a0c000 	mov	ip, r0
    9324:	e5d12000 	ldrb	r2, [r1]
    9328:	e2811001 	add	r1, r1, #1, 0
    932c:	e5cc2000 	strb	r2, [ip]
    9330:	e28cc001 	add	ip, ip, #1, 0
    9334:	e3520000 	cmp	r2, #0, 0
    9338:	1afffff9 	bne	9324 <strcpy+0x4>
    933c:	e12fff1e 	bx	lr

00009340 <strncmp>:
    9340:	e3520000 	cmp	r2, #0, 0
    9344:	e2422001 	sub	r2, r2, #1, 0
    9348:	0a000005 	beq	9364 <strncmp+0x24>
    934c:	e4d03001 	ldrb	r3, [r0], #1
    9350:	e4d1c001 	ldrb	ip, [r1], #1
    9354:	e153000c 	cmp	r3, ip
    9358:	0afffff8 	beq	9340 <strncmp>
    935c:	e043000c 	sub	r0, r3, ip
    9360:	e12fff1e 	bx	lr
    9364:	e3a00000 	mov	r0, #0, 0
    9368:	e12fff1e 	bx	lr

0000936c <reboot_callout>:
    936c:	e12fff1e 	bx	lr

00009370 <dev_barrier>:
    9370:	ea000002 	b	9380 <dsb>

00009374 <dmb>:
    9374:	e3a00000 	mov	r0, #0, 0
    9378:	ee070fba 	mcr	15, 0, r0, cr7, cr10, {5}
    937c:	e12fff1e 	bx	lr

00009380 <dsb>:
    9380:	ee070f9a 	mcr	15, 0, r0, cr7, cr10, {4}
    9384:	e12fff1e 	bx	lr

00009388 <gpio_set_function>:
    9388:	e350001f 	cmp	r0, #31, 0
    938c:	812fff1e 	bxhi	lr
    9390:	e92d4070 	push	{r4, r5, r6, lr}
    9394:	e1a05001 	mov	r5, r1
    9398:	e3d13007 	bics	r3, r1, #7, 0
    939c:	18bd8070 	popne	{r4, r5, r6, pc}
    93a0:	e59f3040 	ldr	r3, [pc, #64]	; 93e8 <gpio_set_function+0x60>
    93a4:	e0832093 	umull	r2, r3, r3, r0
    93a8:	e1a031a3 	lsr	r3, r3, #3
    93ac:	e1a02003 	mov	r2, r3
    93b0:	e0833103 	add	r3, r3, r3, lsl #2
    93b4:	e0403083 	sub	r3, r0, r3, lsl #1
    93b8:	e0834083 	add	r4, r3, r3, lsl #1
    93bc:	e2820302 	add	r0, r2, #134217728	; 0x8000000
    93c0:	e2800702 	add	r0, r0, #524288	; 0x80000
    93c4:	e1a06100 	lsl	r6, r0, #2
    93c8:	e1a00006 	mov	r0, r6
    93cc:	ebfffb16 	bl	802c <GET32>
    93d0:	e3a01007 	mov	r1, #7, 0
    93d4:	e1c01411 	bic	r1, r0, r1, lsl r4
    93d8:	e1811415 	orr	r1, r1, r5, lsl r4
    93dc:	e1a00006 	mov	r0, r6
    93e0:	ebfffb0f 	bl	8024 <PUT32>
    93e4:	e8bd8070 	pop	{r4, r5, r6, pc}
    93e8:	cccccccd 	stclgt	12, cr12, [ip], {205}	; 0xcd

000093ec <gpio_set_output>:
    93ec:	e92d4010 	push	{r4, lr}
    93f0:	e3a01001 	mov	r1, #1, 0
    93f4:	ebffffe3 	bl	9388 <gpio_set_function>
    93f8:	e8bd8010 	pop	{r4, pc}

000093fc <gpio_set_on>:
    93fc:	e350001f 	cmp	r0, #31, 0
    9400:	812fff1e 	bxhi	lr
    9404:	e92d4010 	push	{r4, lr}
    9408:	e3a01001 	mov	r1, #1, 0
    940c:	e1a01011 	lsl	r1, r1, r0
    9410:	e59f0004 	ldr	r0, [pc, #4]	; 941c <gpio_set_on+0x20>
    9414:	ebfffb02 	bl	8024 <PUT32>
    9418:	e8bd8010 	pop	{r4, pc}
    941c:	2020001c 	eorcs	r0, r0, ip, lsl r0

00009420 <gpio_set_off>:
    9420:	e350001f 	cmp	r0, #31, 0
    9424:	812fff1e 	bxhi	lr
    9428:	e92d4010 	push	{r4, lr}
    942c:	e3a01001 	mov	r1, #1, 0
    9430:	e1a01011 	lsl	r1, r1, r0
    9434:	e59f0004 	ldr	r0, [pc, #4]	; 9440 <gpio_set_off+0x20>
    9438:	ebfffaf9 	bl	8024 <PUT32>
    943c:	e8bd8010 	pop	{r4, pc}
    9440:	20200028 	eorcs	r0, r0, r8, lsr #32

00009444 <gpio_set_input>:
    9444:	e92d4010 	push	{r4, lr}
    9448:	e3a01000 	mov	r1, #0, 0
    944c:	ebffffcd 	bl	9388 <gpio_set_function>
    9450:	e8bd8010 	pop	{r4, pc}

00009454 <gpio_write>:
    9454:	e92d4010 	push	{r4, lr}
    9458:	e3510000 	cmp	r1, #0, 0
    945c:	0a000001 	beq	9468 <gpio_write+0x14>
    9460:	ebffffe5 	bl	93fc <gpio_set_on>
    9464:	e8bd8010 	pop	{r4, pc}
    9468:	ebffffec 	bl	9420 <gpio_set_off>
    946c:	e8bd8010 	pop	{r4, pc}

00009470 <gpio_read>:
    9470:	e350001f 	cmp	r0, #31, 0
    9474:	8a000007 	bhi	9498 <gpio_read+0x28>
    9478:	e92d4010 	push	{r4, lr}
    947c:	e200401f 	and	r4, r0, #31, 0
    9480:	e59f3018 	ldr	r3, [pc, #24]	; 94a0 <gpio_read+0x30>
    9484:	e08302a0 	add	r0, r3, r0, lsr #5
    9488:	ebfffae7 	bl	802c <GET32>
    948c:	e1a00430 	lsr	r0, r0, r4
    9490:	e2000001 	and	r0, r0, #1, 0
    9494:	e8bd8010 	pop	{r4, pc}
    9498:	e3e00000 	mvn	r0, #0, 0
    949c:	e12fff1e 	bx	lr
    94a0:	20200034 	eorcs	r0, r0, r4, lsr r0

000094a4 <__code_end__>:
    94a4:	00000000 	andeq	r0, r0, r0

Disassembly of section .rodata:

000094a8 <__FUNCTION__.3952-0xc4>:
    94a8:	65742d32 	ldrbvs	r2, [r4, #-3378]!	; 0xfffff2ce
    94ac:	6d2d7473 	cfstrsvs	mvf7, [sp, #-460]!	; 0xfffffe34
    94b0:	6f6c6c61 	svcvs	0x006c6c61
    94b4:	00632e63 	rsbeq	r2, r3, r3, ror #28
    94b8:	4f525245 	svcmi	0x00525245
    94bc:	73253a52 			; <UNDEFINED> instruction: 0x73253a52
    94c0:	3a73253a 	bcc	1cd29b0 <__bss_end__+0x1cc8c90>
    94c4:	203a6425 	eorscs	r6, sl, r5, lsr #8
    94c8:	534c4146 	movtpl	r4, #49478	; 0xc146
    94cc:	253c2845 	ldrcs	r2, [ip, #-2117]!	; 0xfffff7bb
    94d0:	3a293e73 	bcc	a58ea4 <__bss_end__+0xa4f184>
    94d4:	5b622220 	blpl	1891d5c <__bss_end__+0x188803c>
    94d8:	3d5d6425 	cfldrdcc	mvd6, [sp, #-148]	; 0xffffff6c
    94dc:	202c6425 	eorcs	r6, ip, r5, lsr #8
    94e0:	64253d69 	strtvs	r3, [r5], #-3433	; 0xfffff297
    94e4:	0a226e5c 	beq	8a4e5c <__bss_end__+0x89b13c>
    94e8:	00000000 	andeq	r0, r0, r0
    94ec:	7274702a 	rsbsvc	r7, r4, #42, 0	; 0x2a
    94f0:	5d695b73 	fstmdbxpl	r9!, {d21-d77}	;@ Deprecated
    94f4:	203d3d20 	eorscs	r3, sp, r0, lsr #26
    94f8:	6e697528 	cdpvs	5, 6, cr7, cr9, cr8, {1}
    94fc:	745f3874 	ldrbvc	r3, [pc], #-2164	; 9504 <__code_end__+0x60>
    9500:	00006929 	andeq	r6, r0, r9, lsr #18
    9504:	494e4150 	stmdbmi	lr, {r4, r6, r8, lr}^
    9508:	73253a43 			; <UNDEFINED> instruction: 0x73253a43
    950c:	3a73253a 	bcc	1cd29fc <__bss_end__+0x1cc8cdc>
    9510:	253a6425 	ldrcs	r6, [sl, #-1061]!	; 0xfffffbdb
    9514:	00000a73 	andeq	r0, r0, r3, ror sl
    9518:	3d203070 	stccc	0, cr3, [r0, #-448]!	; 0xfffffe40
    951c:	3170203d 	cmncc	r0, sp, lsr r0
    9520:	00000000 	andeq	r0, r0, r0
    9524:	43415254 	movtmi	r5, #4692	; 0x1254
    9528:	65743a45 	ldrbvs	r3, [r4, #-2629]!	; 0xfffff5bb
    952c:	69207473 	stmdbvs	r0!, {r0, r1, r4, r5, r6, sl, ip, sp, lr}
    9530:	20726574 	rsbscs	r6, r2, r4, ror r5
    9534:	70206425 	eorvc	r6, r0, r5, lsr #8
    9538:	65737361 	ldrbvs	r7, [r3, #-865]!	; 0xfffffc9f
    953c:	00000a64 	andeq	r0, r0, r4, ror #20
    9540:	43415254 	movtmi	r5, #4692	; 0x1254
    9544:	75733a45 	ldrbvc	r3, [r3, #-2629]!	; 0xfffff5bb
    9548:	73656363 	cmnvc	r5, #-1946157055	; 0x8c000001
    954c:	6d203a73 	vstmdbvs	r0!, {s6-s120}
    9550:	6f6c6c61 	svcvs	0x006c6c61
    9554:	72662f63 	rsbvc	r2, r6, #396	; 0x18c
    9558:	61206565 			; <UNDEFINED> instruction: 0x61206565
    955c:	61657070 	smcvs	22272	; 0x5700
    9560:	6f742072 	svcvs	0x00742072
    9564:	726f7720 	rsbvc	r7, pc, #32, 14	; 0x800000
    9568:	000a216b 	andeq	r2, sl, fp, ror #2

0000956c <__FUNCTION__.3952>:
    956c:	74736574 	ldrbtvc	r6, [r3], #-1396	; 0xfffffa8c
    9570:	6c6c615f 	stfvse	f6, [ip], #-380	; 0xfffffe84
    9574:	665f636f 	ldrbvs	r6, [pc], -pc, ror #6
    9578:	00656572 	rsbeq	r6, r5, r2, ror r5

0000957c <__FUNCTION__.3974>:
    957c:	6d746f6e 	ldclvs	15, cr6, [r4, #-440]!	; 0xfffffe48
    9580:	006e6961 	rsbeq	r6, lr, r1, ror #18
    9584:	696c2f2e 	stmdbvs	ip!, {r1, r2, r3, r5, r8, r9, sl, fp, sp}^
    9588:	762f6362 	strtvc	r6, [pc], -r2, ror #6
    958c:	72702d61 	rsbsvc	r2, r0, #6208	; 0x1840
    9590:	6b746e69 	blvs	1d24f3c <__bss_end__+0x1d1b21c>
    9594:	0000632e 	andeq	r6, r0, lr, lsr #6
    9598:	00000030 	andeq	r0, r0, r0, lsr r0
    959c:	33323130 	teqcc	r2, #12
    95a0:	37363534 			; <UNDEFINED> instruction: 0x37363534
    95a4:	00003938 	andeq	r3, r0, r8, lsr r9
    95a8:	33323130 	teqcc	r2, #12
    95ac:	37363534 			; <UNDEFINED> instruction: 0x37363534
    95b0:	62613938 	rsbvs	r3, r1, #56, 18	; 0xe0000
    95b4:	66656463 	strbtvs	r6, [r5], -r3, ror #8
    95b8:	00000000 	andeq	r0, r0, r0
    95bc:	00003130 	andeq	r3, r0, r0, lsr r1
    95c0:	63747570 	cmnvs	r4, #112, 10	; 0x1c000000
    95c4:	0070665f 	rsbseq	r6, r0, pc, asr r6
    95c8:	74646977 	strbtvc	r6, [r4], #-2423	; 0xfffff689
    95cc:	203c2068 	eorscs	r2, ip, r8, rrx
    95d0:	00003233 	andeq	r3, r0, r3, lsr r2
    95d4:	00786c6c 	rsbseq	r6, r8, ip, ror #24
    95d8:	00646c6c 	rsbeq	r6, r4, ip, ror #24
    95dc:	253d3078 	ldrcs	r3, [sp, #-120]!	; 0xffffff88
    95e0:	00000a78 	andeq	r0, r0, r8, ror sl
    95e4:	253d3178 	ldrcs	r3, [sp, #-376]!	; 0xfffffe88
    95e8:	00000a78 	andeq	r0, r0, r8, ror sl
    95ec:	6e727473 	mrcvs	4, 3, r7, cr2, cr3, {3}
    95f0:	28706d63 	ldmdacs	r0!, {r0, r1, r5, r6, r8, sl, fp, sp, lr}^
    95f4:	202c7974 	eorcs	r7, ip, r4, ror r9
    95f8:	786c6c22 	stmdavc	ip!, {r1, r5, sl, fp, sp, lr}^
    95fc:	33202c22 			; <UNDEFINED> instruction: 0x33202c22
    9600:	3d3d2029 	ldccc	0, cr2, [sp, #-164]!	; 0xffffff5c
    9604:	7c203020 	stcvc	0, cr3, [r0], #-128	; 0xffffff80
    9608:	7473207c 	ldrbtvc	r2, [r3], #-124	; 0xffffff84
    960c:	6d636e72 	stclvs	14, cr6, [r3, #-456]!	; 0xfffffe38
    9610:	79742870 	ldmdbvc	r4!, {r4, r5, r6, fp, sp}^
    9614:	6c22202c 	stcvs	0, cr2, [r2], #-176	; 0xffffff50
    9618:	2c22646c 	cfstrscs	mvf6, [r2], #-432	; 0xfffffe50
    961c:	20293320 	eorcs	r3, r9, r0, lsr #6
    9620:	30203d3d 	eorcc	r3, r0, sp, lsr sp
    9624:	00000000 	andeq	r0, r0, r0
    9628:	494e4150 	stmdbmi	lr, {r4, r6, r8, lr}^
    962c:	73253a43 			; <UNDEFINED> instruction: 0x73253a43
    9630:	3a73253a 	bcc	1cd2b20 <__bss_end__+0x1cc8e00>
    9634:	693a6425 	ldmdbvs	sl!, {r0, r2, r5, sl, sp, lr}
    9638:	736f706d 	cmnvc	pc, #109, 0	; 0x6d
    963c:	6c626973 			; <UNDEFINED> instruction: 0x6c626973
    9640:	66203a65 	strtvs	r3, [r0], -r5, ror #20
    9644:	3c3d746d 	cfldrscc	mvf7, [sp], #-436	; 0xfffffe4c
    9648:	0a3e7325 	beq	fa62e4 <__bss_end__+0xf9c5c4>
    964c:	0000000a 	andeq	r0, r0, sl
    9650:	494e4150 	stmdbmi	lr, {r4, r6, r8, lr}^
    9654:	73253a43 			; <UNDEFINED> instruction: 0x73253a43
    9658:	3a73253a 	bcc	1cd2b48 <__bss_end__+0x1cc8e28>
    965c:	663a6425 	ldrtvs	r6, [sl], -r5, lsr #8
    9660:	74616f6c 	strbtvc	r6, [r1], #-3948	; 0xfffff094
    9664:	746f6e20 	strbtvc	r6, [pc], #-3616	; 966c <__FUNCTION__.3974+0xf0>
    9668:	616e6520 	cmnvs	lr, r0, lsr #10
    966c:	64656c62 	strbtvs	r6, [r5], #-3170	; 0xfffff39e
    9670:	0a212121 	beq	851afc <__bss_end__+0x847ddc>
    9674:	00000000 	andeq	r0, r0, r0
    9678:	6e697270 	mcrvs	2, 3, r7, cr9, cr0, {3}
    967c:	203a6b74 	eorscs	r6, sl, r4, ror fp
    9680:	20746f6e 	rsbscs	r6, r4, lr, ror #30
    9684:	646e6168 	strbtvs	r6, [lr], #-360	; 0xfffffe98
    9688:	676e696c 	strbvs	r6, [lr, -ip, ror #18]!
    968c:	65707320 	ldrbvs	r7, [r0, #-800]!	; 0xfffffce0
    9690:	69666963 	stmdbvs	r6!, {r0, r1, r5, r6, r8, fp, sp, lr}^
    9694:	27207265 	strcs	r7, [r0, -r5, ror #4]!
    9698:	20276325 	eorcs	r6, r7, r5, lsr #6
    969c:	63736128 	cmnvs	r3, #10
    96a0:	253d6969 	ldrcs	r6, [sp, #-2409]!	; 0xfffff697
    96a4:	000a2964 	andeq	r2, sl, r4, ror #18
    96a8:	494e4150 	stmdbmi	lr, {r4, r6, r8, lr}^
    96ac:	73253a43 			; <UNDEFINED> instruction: 0x73253a43
    96b0:	3a73253a 	bcc	1cd2ba0 <__bss_end__+0x1cc8e80>
    96b4:	703a6425 	eorsvc	r6, sl, r5, lsr #8
    96b8:	746e6972 	strbtvc	r6, [lr], #-2418	; 0xfffff68e
    96bc:	7265206b 	rsbvc	r2, r5, #107, 0	; 0x6b
    96c0:	0a726f72 	beq	1ca5490 <__bss_end__+0x1c9b770>
    96c4:	0000000a 	andeq	r0, r0, sl

000096c8 <__FUNCTION__.4008>:
    96c8:	74696d65 	strbtvc	r6, [r9], #-3429	; 0xfffff29b
    96cc:	00000000 	andeq	r0, r0, r0

000096d0 <__FUNCTION__.3956>:
    96d0:	5f697072 	svcpl	0x00697072
    96d4:	5f746573 	svcpl	0x00746573
    96d8:	7074756f 	rsbsvc	r7, r4, pc, ror #10
    96dc:	00007475 	andeq	r7, r0, r5, ror r4

000096e0 <__FUNCTION__.4034>:
    96e0:	705f6176 	subsvc	r6, pc, r6, ror r1	; <UNPREDICTABLE>
    96e4:	746e6972 	strbtvc	r6, [lr], #-2418	; 0xfffff68e
    96e8:	0000006b 	andeq	r0, r0, fp, rrx
    96ec:	454e4f44 	strbmi	r4, [lr, #-3908]	; 0xfffff0bc
    96f0:	0a212121 	beq	851b7c <__bss_end__+0x847e5c>
    96f4:	00000000 	andeq	r0, r0, r0
    96f8:	6c616d6b 	stclvs	13, cr6, [r1], #-428	; 0xfffffe54
    96fc:	2e636f6c 	cdpcs	15, 6, cr6, cr3, cr12, {3}
    9700:	00000063 	andeq	r0, r0, r3, rrx
    9704:	5f78616d 	svcpl	0x0078616d
    9708:	7479626e 	ldrbtvc	r6, [r9], #-622	; 0xfffffd92
    970c:	00007365 	andeq	r7, r0, r5, ror #6
    9710:	494e4150 	stmdbmi	lr, {r4, r6, r8, lr}^
    9714:	73253a43 			; <UNDEFINED> instruction: 0x73253a43
    9718:	3a73253a 	bcc	1cd2c08 <__bss_end__+0x1cc8ee8>
    971c:	733a6425 	teqvc	sl, #620756992	; 0x25000000
    9720:	69747465 	ldmdbvs	r4!, {r0, r2, r5, r6, sl, ip, sp, lr}^
    9724:	6820676e 	stmdavs	r0!, {r1, r2, r3, r5, r6, r8, r9, sl, sp, lr}
    9728:	20706165 	rsbscs	r6, r0, r5, ror #2
    972c:	25206f74 	strcs	r6, [r0, #-3956]!	; 0xfffff08c
    9730:	77203a70 			; <UNDEFINED> instruction: 0x77203a70
    9734:	206c6c69 	rsbcs	r6, ip, r9, ror #24
    9738:	20746968 	rsbscs	r6, r4, r8, ror #18
    973c:	20656874 	rsbcs	r6, r5, r4, ror r8
    9740:	20646c6f 	rsbcs	r6, r4, pc, ror #24
    9744:	70616568 	rsbvc	r6, r1, r8, ror #10
    9748:	20746120 	rsbscs	r6, r4, r0, lsr #2
    974c:	0a0a7025 	beq	2a57e8 <__bss_end__+0x29bac8>
    9750:	00000000 	andeq	r0, r0, r0
    9754:	494e4150 	stmdbmi	lr, {r4, r6, r8, lr}^
    9758:	73253a43 			; <UNDEFINED> instruction: 0x73253a43
    975c:	3a73253a 	bcc	1cd2c4c <__bss_end__+0x1cc8f2c>
    9760:	613a6425 	teqvs	sl, r5, lsr #8
    9764:	6165726c 	cmnvs	r5, ip, ror #4
    9768:	63207964 			; <UNDEFINED> instruction: 0x63207964
    976c:	656c6c61 	strbvs	r6, [ip, #-3169]!	; 0xfffff39f
    9770:	6d6b2064 	stclvs	0, cr2, [fp, #-400]!	; 0xfffffe70
    9774:	6f6c6c61 	svcvs	0x006c6c61
    9778:	6e695f63 	cdpvs	15, 6, cr5, cr9, cr3, {3}
    977c:	0a0a7469 	beq	2a6928 <__bss_end__+0x29cc08>
    9780:	00000000 	andeq	r0, r0, r0
    9784:	494e4150 	stmdbmi	lr, {r4, r6, r8, lr}^
    9788:	73253a43 			; <UNDEFINED> instruction: 0x73253a43
    978c:	3a73253a 	bcc	1cd2c7c <__bss_end__+0x1cc8f5c>
    9790:	253a6425 	ldrcs	r6, [sl, #-1061]!	; 0xfffffbdb
    9794:	626e2064 	rsbvs	r2, lr, #100, 0	; 0x64
    9798:	73657479 	cmnvc	r5, #2030043136	; 0x79000000
    979c:	63786520 	cmnvs	r8, #32, 10	; 0x8000000
    97a0:	65646565 	strbvs	r6, [r4, #-1381]!	; 0xfffffa9b
    97a4:	69732064 	ldmdbvs	r3!, {r2, r5, r6, sp}^
    97a8:	6f20657a 	svcvs	0x0020657a
    97ac:	65682066 	strbvs	r2, [r8, #-102]!	; 0xffffff9a
    97b0:	62207061 	eorvs	r7, r0, #97, 0	; 0x61
    97b4:	75252079 	strvc	r2, [r5, #-121]!	; 0xffffff87
    97b8:	79626e20 	stmdbvc	r2!, {r5, r9, sl, fp, sp, lr}^
    97bc:	0a736574 	beq	1ce2d94 <__bss_end__+0x1cd9074>
    97c0:	0000000a 	andeq	r0, r0, sl
    97c4:	4f525245 	svcmi	0x00525245
    97c8:	73253a52 			; <UNDEFINED> instruction: 0x73253a52
    97cc:	3a73253a 	bcc	1cd2cbc <__bss_end__+0x1cc8f9c>
    97d0:	203a6425 	eorscs	r6, sl, r5, lsr #8
    97d4:	534c4146 	movtpl	r4, #49478	; 0xc146
    97d8:	253c2845 	ldrcs	r2, [ip, #-2117]!	; 0xfffff7bb
    97dc:	3a293e73 	bcc	a591b0 <__bss_end__+0xa4f490>
    97e0:	73736120 	cmnvc	r3, #8
    97e4:	6e696d75 	mcrvs	13, 3, r6, cr9, cr5, {3}
    97e8:	6f702067 	svcvs	0x00702067
    97ec:	20726577 	rsbscs	r6, r2, r7, ror r5
    97f0:	7420666f 	strtvc	r6, [r0], #-1647	; 0xfffff991
    97f4:	000a6f77 	andeq	r6, sl, r7, ror pc
    97f8:	705f7369 	subsvc	r7, pc, r9, ror #6
    97fc:	2832776f 	ldmdacs	r2!, {r0, r1, r2, r3, r5, r6, r8, r9, sl, ip, sp, lr}
    9800:	67696c61 	strbvs	r6, [r9, -r1, ror #24]!
    9804:	6e656d6e 	cdpvs	13, 6, cr6, cr5, cr14, {3}
    9808:	00002974 	andeq	r2, r0, r4, ror r9
    980c:	705f7369 	subsvc	r7, pc, r9, ror #6
    9810:	2832776f 	ldmdacs	r2!, {r0, r1, r2, r3, r5, r6, r8, r9, sl, ip, sp, lr}
    9814:	0000296e 	andeq	r2, r0, lr, ror #18
    9818:	4f525245 	svcmi	0x00525245
    981c:	73253a52 			; <UNDEFINED> instruction: 0x73253a52
    9820:	3a73253a 	bcc	1cd2d10 <__bss_end__+0x1cc8ff0>
    9824:	203a6425 	eorscs	r6, sl, r5, lsr #8
    9828:	534c4146 	movtpl	r4, #49478	; 0xc146
    982c:	253c2845 	ldrcs	r2, [ip, #-2117]!	; 0xfffff7bb
    9830:	3a293e73 	bcc	a59204 <__bss_end__+0xa4f4e4>
    9834:	706d6920 	rsbvc	r6, sp, r0, lsr #18
    9838:	6973736f 	ldmdbvs	r3!, {r0, r1, r2, r3, r5, r6, r8, r9, ip, sp, lr}^
    983c:	0a656c62 	beq	19649cc <__bss_end__+0x195acac>
    9840:	00000000 	andeq	r0, r0, r0
    9844:	615f7369 	cmpvs	pc, r9, ror #6
    9848:	6e67696c 	vnmulvs.f16	s13, s14, s25	; <UNPREDICTABLE>
    984c:	68286465 	stmdavs	r8!, {r0, r2, r5, r6, sl, sp, lr}
    9850:	6c61202c 	stclvs	0, cr2, [r1], #-176	; 0xffffff50
    9854:	6d6e6769 	stclvs	7, cr6, [lr, #-420]!	; 0xfffffe5c
    9858:	29746e65 	ldmdbcs	r4!, {r0, r2, r5, r6, r9, sl, fp, sp, lr}^
    985c:	00000000 	andeq	r0, r0, r0
    9860:	494e4150 	stmdbmi	lr, {r4, r6, r8, lr}^
    9864:	73253a43 			; <UNDEFINED> instruction: 0x73253a43
    9868:	3a73253a 	bcc	1cd2d58 <__bss_end__+0x1cc9038>
    986c:	703a6425 	eorsvc	r6, sl, r5, lsr #8
    9870:	746e696f 	strbtvc	r6, [lr], #-2415	; 0xfffff691
    9874:	25207265 	strcs	r7, [r0, #-613]!	; 0xfffffd9b
    9878:	61772070 	cmnvs	r7, r0, ror r0
    987c:	656e2073 	strbvs	r2, [lr, #-115]!	; 0xffffff8d
    9880:	20726576 	rsbscs	r6, r2, r6, ror r5
    9884:	6f6c6c61 	svcvs	0x006c6c61
    9888:	65746163 	ldrbvs	r6, [r4, #-355]!	; 0xfffffe9d
    988c:	000a0a64 	andeq	r0, sl, r4, ror #20

00009890 <__FUNCTION__.7>:
    9890:	6c616d6b 	stclvs	13, cr6, [r1], #-428	; 0xfffffe54
    9894:	5f636f6c 	svcpl	0x00636f6c
    9898:	74696e69 	strbtvc	r6, [r9], #-3689	; 0xfffff197
    989c:	7465735f 	strbtvc	r7, [r5], #-863	; 0xfffffca1
    98a0:	6174735f 	cmnvs	r4, pc, asr r3
    98a4:	00007472 	andeq	r7, r0, r2, ror r4

000098a8 <__FUNCTION__.5>:
    98a8:	6c616d6b 	stclvs	13, cr6, [r1], #-428	; 0xfffffe54
    98ac:	5f636f6c 	svcpl	0x00636f6c
    98b0:	74696e69 	strbtvc	r6, [r9], #-3689	; 0xfffff197
    98b4:	00000000 	andeq	r0, r0, r0

000098b8 <__FUNCTION__.4>:
    98b8:	6c616d6b 	stclvs	13, cr6, [r1], #-428	; 0xfffffe54
    98bc:	5f636f6c 	svcpl	0x00636f6c
    98c0:	7a746f6e 	bvc	1d25680 <__bss_end__+0x1d1b960>
    98c4:	006f7265 	rsbeq	r7, pc, r5, ror #4

000098c8 <__FUNCTION__.2>:
    98c8:	6c616d6b 	stclvs	13, cr6, [r1], #-428	; 0xfffffe54
    98cc:	00636f6c 	rsbeq	r6, r3, ip, ror #30

000098d0 <__FUNCTION__.1>:
    98d0:	6c616d6b 	stclvs	13, cr6, [r1], #-428	; 0xfffffe54
    98d4:	5f636f6c 	svcpl	0x00636f6c
    98d8:	67696c61 	strbvs	r6, [r9, -r1, ror #24]!
    98dc:	0064656e 	rsbeq	r6, r4, lr, ror #10

000098e0 <__FUNCTION__.3>:
    98e0:	6e756f72 	mrcvs	15, 3, r6, cr5, cr2, {3}
    98e4:	00707564 	rsbseq	r7, r0, r4, ror #10

000098e8 <__FUNCTION__.0>:
    98e8:	6572666b 	ldrbvs	r6, [r2, #-1643]!	; 0xfffff995
    98ec:	6f705f65 	svcvs	0x00705f65
    98f0:	Address 0x00000000000098f0 is out of bounds.


Disassembly of section .data:

000098f4 <rpi_putchar>:
    98f4:	000083e8 	andeq	r8, r0, r8, ror #7

000098f8 <putk>:
    98f8:	00008424 	andeq	r8, r0, r4, lsr #8

000098fc <heap_end>:
    98fc:	00209d20 	eoreq	r9, r0, r0, lsr #26

00009900 <heap_start>:
    9900:	00009d20 	andeq	r9, r0, r0, lsr #26

00009904 <heap>:
    9904:	00009d20 	andeq	r9, r0, r0, lsr #26

Disassembly of section .bss:

00009908 <__bss_start__>:
	...

00009910 <base>:
	...

00009918 <buf.3948>:
	...

00009d18 <init_p.6>:
	...

Disassembly of section .ARM.attributes:

00000000 <.ARM.attributes>:
   0:	00002a41 	andeq	r2, r0, r1, asr #20
   4:	61656100 	cmnvs	r5, r0, lsl #2
   8:	01006962 	tsteq	r0, r2, ror #18
   c:	00000020 	andeq	r0, r0, r0, lsr #32
  10:	4b5a3605 	blmi	168d82c <__bss_end__+0x1683b0c>
  14:	08070600 	stmdaeq	r7, {r9, sl}
  18:	12010901 	andne	r0, r1, #16384	; 0x4000
  1c:	15011404 	strne	r1, [r1, #-1028]	; 0xfffffbfc
  20:	18031701 	stmdane	r3, {r0, r8, r9, sl, ip}
  24:	22011a01 	andcs	r1, r1, #4096	; 0x1000
  28:	Address 0x0000000000000028 is out of bounds.


Disassembly of section .comment:

00000000 <.comment>:
   0:	3a434347 	bcc	10d0d24 <__bss_end__+0x10c7004>
   4:	4e472820 	cdpmi	8, 4, cr2, cr7, cr0, {1}
   8:	6f542055 	svcvs	0x00542055
   c:	20736c6f 	rsbscs	r6, r3, pc, ror #24
  10:	20726f66 	rsbscs	r6, r2, r6, ror #30
  14:	206d7241 	rsbcs	r7, sp, r1, asr #4
  18:	65626d45 	strbvs	r6, [r2, #-3397]!	; 0xfffff2bb
  1c:	64656464 	strbtvs	r6, [r5], #-1124	; 0xfffffb9c
  20:	6f725020 	svcvs	0x00725020
  24:	73736563 	cmnvc	r3, #415236096	; 0x18c00000
  28:	2073726f 	rsbscs	r7, r3, pc, ror #4
  2c:	30322d39 	eorscc	r2, r2, r9, lsr sp
  30:	712d3931 			; <UNDEFINED> instruction: 0x712d3931
  34:	616d2d34 	cmnvs	sp, r4, lsr sp
  38:	29726f6a 	ldmdbcs	r2!, {r1, r3, r5, r6, r8, r9, sl, fp, sp, lr}^
  3c:	322e3920 	eorcc	r3, lr, #32, 18	; 0x80000
  40:	3220312e 	eorcc	r3, r0, #-2147483637	; 0x8000000b
  44:	31393130 	teqcc	r9, r0, lsr r1
  48:	20353230 	eorscs	r3, r5, r0, lsr r2
  4c:	6c657228 	sfmvs	f7, 2, [r5], #-160	; 0xffffff60
  50:	65736165 	ldrbvs	r6, [r3, #-357]!	; 0xfffffe9b
  54:	415b2029 	cmpmi	fp, r9, lsr #32
  58:	612f4d52 			; <UNDEFINED> instruction: 0x612f4d52
  5c:	392d6d72 	pushcc	{r1, r4, r5, r6, r8, sl, fp, sp, lr}
  60:	6172622d 	cmnvs	r2, sp, lsr #4
  64:	2068636e 	rsbcs	r6, r8, lr, ror #6
  68:	69766572 	ldmdbvs	r6!, {r1, r4, r5, r6, r8, sl, sp, lr}^
  6c:	6e6f6973 			; <UNDEFINED> instruction: 0x6e6f6973
  70:	37373220 	ldrcc	r3, [r7, -r0, lsr #4]!
  74:	5d393935 			; <UNDEFINED> instruction: 0x5d393935
  78:	43434700 	movtmi	r4, #14080	; 0x3700
  7c:	4728203a 			; <UNDEFINED> instruction: 0x4728203a
  80:	4120554e 			; <UNDEFINED> instruction: 0x4120554e
  84:	45206d72 	strmi	r6, [r0, #-3442]!	; 0xfffff28e
  88:	6465626d 	strbtvs	r6, [r5], #-621	; 0xfffffd93
  8c:	20646564 	rsbcs	r6, r4, r4, ror #10
  90:	6c6f6f54 	stclvs	15, cr6, [pc], #-336	; ffffff48 <__bss_end__+0xffff6228>
  94:	69616863 	stmdbvs	r1!, {r0, r1, r5, r6, fp, sp, lr}^
  98:	3031206e 	eorscc	r2, r1, lr, rrx
  9c:	322d332e 	eorcc	r3, sp, #-1207959552	; 0xb8000000
  a0:	2e313230 	mrccs	2, 1, r3, cr1, cr0, {1}
  a4:	20293031 	eorcs	r3, r9, r1, lsr r0
  a8:	332e3031 			; <UNDEFINED> instruction: 0x332e3031
  ac:	3220312e 	eorcc	r3, r0, #-2147483637	; 0x8000000b
  b0:	30313230 	eorscc	r3, r1, r0, lsr r2
  b4:	20343238 	eorscs	r3, r4, r8, lsr r2
  b8:	6c657228 	sfmvs	f7, 2, [r5], #-160	; 0xffffff60
  bc:	65736165 	ldrbvs	r6, [r3, #-357]!	; 0xfffffe9b
  c0:	Address 0x00000000000000c0 is out of bounds.


Disassembly of section .debug_info:

00000000 <.debug_info>:
       0:	00000406 	andeq	r0, r0, r6, lsl #8
       4:	00000004 	andeq	r0, r0, r4
       8:	01040000 	mrseq	r0, (UNDEF: 4)
       c:	00000121 	andeq	r0, r0, r1, lsr #2
      10:	0000760c 	andeq	r7, r0, ip, lsl #12
      14:	0000b000 	andeq	fp, r0, r0
      18:	00803800 	addeq	r3, r0, r0, lsl #16
      1c:	0001a000 	andeq	sl, r1, r0
      20:	00000000 	andeq	r0, r0, r0
      24:	05040200 	streq	r0, [r4, #-512]	; 0xfffffe00
      28:	00746e69 	rsbseq	r6, r4, r9, ror #28
      2c:	61070403 	tstvs	r7, r3, lsl #8
      30:	03000000 	movweq	r0, #0
      34:	000a0601 	andeq	r0, sl, r1, lsl #12
      38:	02030000 	andeq	r0, r3, #0, 0
      3c:	00010d05 	andeq	r0, r1, r5, lsl #26
      40:	05040300 	streq	r0, [r4, #-768]	; 0xfffffd00
      44:	0000009b 	muleq	r0, fp, r0
      48:	96050803 	strls	r0, [r5], -r3, lsl #16
      4c:	04000000 	streq	r0, [r0], #-0
      50:	0000006e 	andeq	r0, r0, lr, rrx
      54:	5b182e04 	blpl	60b86c <__bss_end__+0x601b4c>
      58:	03000000 	movweq	r0, #0
      5c:	00080801 	andeq	r0, r8, r1, lsl #16
      60:	02030000 	andeq	r0, r3, #0, 0
      64:	00002307 	andeq	r2, r0, r7, lsl #6
      68:	07040300 	streq	r0, [r4, -r0, lsl #6]
      6c:	0000005c 	andeq	r0, r0, ip, asr r0
      70:	57070803 	strpl	r0, [r7, -r3, lsl #16]
      74:	05000000 	streq	r0, [r0, #-0]
      78:	00000025 	andeq	r0, r0, r5, lsr #32
      7c:	00000086 	andeq	r0, r0, r6, lsl #1
      80:	00002506 	andeq	r2, r0, r6, lsl #10
      84:	a4070000 	strge	r0, [r7], #-0
      88:	02000000 	andeq	r0, r0, #0, 0
      8c:	00920e1c 	addseq	r0, r2, ip, lsl lr
      90:	04080000 	streq	r0, [r8], #-0
      94:	00000077 	andeq	r0, r0, r7, ror r0
      98:	00002505 	andeq	r2, r0, r5, lsl #10
      9c:	0000a700 	andeq	sl, r0, r0, lsl #14
      a0:	00a70600 	adceq	r0, r7, r0, lsl #12
      a4:	08000000 	stmdaeq	r0, {}	; <UNPREDICTABLE>
      a8:	0000b404 	andeq	fp, r0, r4, lsl #8
      ac:	08010300 	stmdaeq	r1, {r8, r9}
      b0:	00000011 	andeq	r0, r0, r1, lsl r0
      b4:	0000ad09 	andeq	sl, r0, r9, lsl #26
      b8:	03e70700 	mvneq	r0, #0, 14
      bc:	21020000 	mrscs	r0, (UNDEF: 2)
      c0:	0000c50e 	andeq	ip, r0, lr, lsl #10
      c4:	98040800 	stmdals	r4, {fp}
      c8:	0a000000 	beq	d0 <__code_start__-0x7f30>
      cc:	00000000 	andeq	r0, r0, r0
      d0:	4c061f01 	stcmi	15, cr1, [r6], {1}
      d4:	8c000081 	stchi	0, cr0, [r0], {129}	; 0x81
      d8:	01000000 	mrseq	r0, (UNDEF: 0)
      dc:	0001ef9c 	muleq	r1, ip, pc	; <UNPREDICTABLE>
      e0:	006e0b00 	rsbeq	r0, lr, r0, lsl #22
      e4:	2c0e2201 	sfmcs	f2, 4, [lr], {1}
      e8:	80000000 	andhi	r0, r0, r0
      ec:	0030700c 	eorseq	r7, r0, ip
      f0:	ef0b2401 	svc	0x000b2401
      f4:	04000001 	streq	r0, [r0], #-1
      f8:	00000000 	andeq	r0, r0, r0
      fc:	0d000000 	stceq	0, cr0, [r0, #-0]
     100:	00000050 	andeq	r0, r0, r0, asr r0
     104:	25092501 	strcs	r2, [r9, #-1281]	; 0xfffffaff
     108:	0a000000 	beq	110 <__code_start__-0x7ef0>
     10c:	0000430e 	andeq	r4, r0, lr, lsl #6
     110:	00020100 	andeq	r0, r2, r0, lsl #2
     114:	7c030500 	cfstr32vc	mvfx0, [r3], {-0}
     118:	0f000095 	svceq	0x00000095
     11c:	00008160 	andeq	r8, r0, r0, ror #2
     120:	00000050 	andeq	r0, r0, r0, asr r0
     124:	000001c7 	andeq	r0, r0, r7, asr #3
     128:	0100690c 	tsteq	r0, ip, lsl #18
     12c:	00250d26 	eoreq	r0, r5, r6, lsr #26
     130:	00260000 	eoreq	r0, r6, r0
     134:	00220000 	eoreq	r0, r2, r0
     138:	18100000 	ldmdane	r0, {}	; <UNPREDICTABLE>
     13c:	0c000000 	stceq	0, cr0, [r0], {-0}
     140:	01003170 	tsteq	r0, r0, ror r1
     144:	01ef0f27 	mvneq	r0, r7, lsr #30
     148:	00490000 	subeq	r0, r9, r0
     14c:	00450000 	subeq	r0, r5, r0
     150:	74110000 	ldrvc	r0, [r1], #-0
     154:	06000081 	streq	r0, [r0], -r1, lsl #1
     158:	66000002 	strvs	r0, [r0], -r2
     15c:	12000001 	andne	r0, r0, #1, 0
     160:	08025001 	stmdaeq	r2, {r0, ip, lr}
     164:	88110080 	ldmdahi	r1, {r7}
     168:	cd000081 	stcgt	0, cr0, [r0, #-516]	; 0xfffffdfc
     16c:	83000003 	movwhi	r0, #3
     170:	12000001 	andne	r0, r0, #1, 0
     174:	03055001 	movweq	r5, #20481	; 0x5001
     178:	00009524 	andeq	r9, r0, r4, lsr #10
     17c:	02510112 	subseq	r0, r1, #-2147483644	; 0x80000004
     180:	11000074 	tstne	r0, r4, ror r0
     184:	000081ac 	andeq	r8, r0, ip, lsr #3
     188:	000003cd 	andeq	r0, r0, sp, asr #7
     18c:	000001bc 			; <UNDEFINED> instruction: 0x000001bc
     190:	05500112 	ldrbeq	r0, [r0, #-274]	; 0xfffffeee
     194:	00950403 	addseq	r0, r5, r3, lsl #8
     198:	51011200 	mrspl	r1, R9_usr
     19c:	94a80305 	strtls	r0, [r8], #773	; 0x305
     1a0:	01120000 	tsteq	r2, r0
     1a4:	7c030552 	cfstr32vc	mvfx0, [r3], {82}	; 0x52
     1a8:	12000095 	andne	r0, r0, #149, 0	; 0x95
     1ac:	08025301 	stmdaeq	r2, {r0, r8, r9, ip, lr}
     1b0:	7d02122a 	sfmvc	f1, 4, [r2, #-168]	; 0xffffff58
     1b4:	18030500 	stmdane	r3, {r8, sl}
     1b8:	00000095 	muleq	r0, r5, r0
     1bc:	0081b013 	addeq	fp, r1, r3, lsl r0
     1c0:	0003d900 	andeq	sp, r3, r0, lsl #18
     1c4:	11000000 	mrsne	r0, (UNDEF: 0)
     1c8:	0000815c 	andeq	r8, r0, ip, asr r1
     1cc:	00000206 	andeq	r0, r0, r6, lsl #4
     1d0:	000001db 	ldrdeq	r0, [r0], -fp
     1d4:	02500112 	subseq	r0, r0, #-2147483644	; 0x80000004
     1d8:	14008008 	strne	r8, [r0], #-8
     1dc:	000081b8 			; <UNDEFINED> instruction: 0x000081b8
     1e0:	000003cd 	andeq	r0, r0, sp, asr #7
     1e4:	05500112 	ldrbeq	r0, [r0, #-274]	; 0xfffffeee
     1e8:	00954003 	addseq	r4, r5, r3
     1ec:	15000000 	strne	r0, [r0, #-0]
     1f0:	00b41604 	adcseq	r1, r4, r4, lsl #12
     1f4:	02010000 	andeq	r0, r1, #0, 0
     1f8:	2c170000 	ldccs	0, cr0, [r7], {-0}
     1fc:	07000000 	streq	r0, [r0, -r0]
     200:	01f10900 	mvnseq	r0, r0, lsl #18
     204:	86180000 	ldrhi	r0, [r8], -r0
     208:	01000000 	mrseq	r0, (UNDEF: 0)
     20c:	01ef0e09 	mvneq	r0, r9, lsl #28
     210:	80380000 	eorshi	r0, r8, r0
     214:	01140000 	tsteq	r4, r0
     218:	9c010000 	stcls	0, cr0, [r1], {-0}
     21c:	000003ac 	andeq	r0, r0, ip, lsr #7
     220:	01006e19 	tsteq	r0, r9, lsl lr
     224:	002c2709 	eoreq	r2, ip, r9, lsl #14
     228:	006d0000 	rsbeq	r0, sp, r0
     22c:	00670000 	rsbeq	r0, r7, r0
     230:	3e1a0000 	cdpcc	0, 1, cr0, cr10, cr0, {0}
     234:	01000000 	mrseq	r0, (UNDEF: 0)
     238:	03ac0f0a 			; <UNDEFINED> instruction: 0x03ac0f0a
     23c:	009f0000 	addseq	r0, pc, r0
     240:	00990000 	addseq	r0, r9, r0
     244:	430e0000 	movwmi	r0, #57344	; 0xe000
     248:	c8000000 	stmdagt	r0, {}	; <UNPREDICTABLE>
     24c:	05000003 	streq	r0, [r0, #-3]
     250:	00956c03 	addseq	r6, r5, r3, lsl #24
     254:	80500f00 	subshi	r0, r0, r0, lsl #30
     258:	00740000 	rsbseq	r0, r4, r0
     25c:	02fb0000 	rscseq	r0, fp, #0, 0
     260:	690c0000 	stmdbvs	ip, {}	; <UNPREDICTABLE>
     264:	0d0c0100 	stfeqs	f0, [ip, #-0]
     268:	00000025 	andeq	r0, r0, r5, lsr #32
     26c:	000000cc 	andeq	r0, r0, ip, asr #1
     270:	000000c8 	andeq	r0, r0, r8, asr #1
     274:	00000010 	andeq	r0, r0, r0, lsl r0
     278:	00700c00 	rsbseq	r0, r0, r0, lsl #24
     27c:	b2120d01 	andslt	r0, r2, #64	; 0x40
     280:	ed000003 	stc	0, cr0, [r0, #-12]
     284:	eb000000 	bl	28c <__code_start__-0x7d74>
     288:	11000000 	mrsne	r0, (UNDEF: 0)
     28c:	00008068 	andeq	r8, r0, r8, rrx
     290:	000003e5 	andeq	r0, r0, r5, ror #7
     294:	0000029e 	muleq	r0, lr, r2
     298:	01500112 	cmpeq	r0, r2, lsl r1
     29c:	8c130031 	ldchi	0, cr0, [r3], {49}	; 0x31
     2a0:	f1000080 	cps	#0
     2a4:	11000003 	tstne	r0, r3
     2a8:	000080c0 	andeq	r8, r0, r0, asr #1
     2ac:	000003cd 	andeq	r0, r0, sp, asr #7
     2b0:	000002f0 	strdeq	r0, [r0], -r0	; <UNPREDICTABLE>
     2b4:	05500112 	ldrbeq	r0, [r0, #-274]	; 0xfffffeee
     2b8:	0094b803 	addseq	fp, r4, r3, lsl #16
     2bc:	51011200 	mrspl	r1, R9_usr
     2c0:	94a80305 	strtls	r0, [r8], #773	; 0x305
     2c4:	01120000 	tsteq	r2, r0
     2c8:	6c030552 	cfstr32vs	mvfx0, [r3], {82}	; 0x52
     2cc:	12000095 	andne	r0, r0, #149, 0	; 0x95
     2d0:	42015301 	andmi	r5, r1, #67108864	; 0x4000000
     2d4:	007d0212 	rsbseq	r0, sp, r2, lsl r2
     2d8:	94ec0305 	strbtls	r0, [ip], #773	; 0x305
     2dc:	02120000 	andseq	r0, r2, #0, 0
     2e0:	7402047d 	strvc	r0, [r2], #-1149	; 0xfffffb83
     2e4:	7d021200 	sfmvc	f1, 4, [r2, #-0]
     2e8:	0074050c 	rsbseq	r0, r4, ip, lsl #10
     2ec:	001aff08 	andseq	pc, sl, r8, lsl #30
     2f0:	0080c413 	addeq	ip, r0, r3, lsl r4
     2f4:	0003d900 	andeq	sp, r3, r0, lsl #18
     2f8:	0f000000 	svceq	0x00000000
     2fc:	000080c4 	andeq	r8, r0, r4, asr #1
     300:	00000044 	andeq	r0, r0, r4, asr #32
     304:	0000035c 	andeq	r0, r0, ip, asr r3
     308:	0100690c 	tsteq	r0, ip, lsl #18
     30c:	00250d15 	eoreq	r0, r5, r5, lsl sp
     310:	01040000 	mrseq	r0, (UNDEF: 4)
     314:	01000000 	mrseq	r0, (UNDEF: 0)
     318:	04110000 	ldreq	r0, [r1], #-0
     31c:	cd000081 	stcgt	0, cr0, [r0, #-516]	; 0xfffffdfc
     320:	52000003 	andpl	r0, r0, #3, 0
     324:	12000003 	andne	r0, r0, #3, 0
     328:	03055001 	movweq	r5, #20481	; 0x5001
     32c:	00009504 	andeq	r9, r0, r4, lsl #10
     330:	05510112 	ldrbeq	r0, [r1, #-274]	; 0xfffffeee
     334:	0094a803 	addseq	sl, r4, r3, lsl #16
     338:	52011200 	andpl	r1, r1, #0, 4
     33c:	956c0305 	strbls	r0, [ip, #-773]!	; 0xfffffcfb
     340:	01120000 	tsteq	r2, r0
     344:	12460153 	subne	r0, r6, #-1073741804	; 0xc0000014
     348:	05007d02 	streq	r7, [r0, #-3330]	; 0xfffff2fe
     34c:	0094ec03 	addseq	lr, r4, r3, lsl #24
     350:	08130000 	ldmdaeq	r3, {}	; <UNPREDICTABLE>
     354:	d9000081 	stmdble	r0, {r0, r7}
     358:	00000003 	andeq	r0, r0, r3
     35c:	0081080f 	addeq	r0, r1, pc, lsl #16
     360:	00001c00 	andeq	r1, r0, r0, lsl #24
     364:	00038500 	andeq	r8, r3, r0, lsl #10
     368:	00690c00 	rsbeq	r0, r9, r0, lsl #24
     36c:	250d1801 	strcs	r1, [sp, #-2049]	; 0xfffff7ff
     370:	24000000 	strcs	r0, [r0], #-0
     374:	22000001 	andcs	r0, r0, #1, 0
     378:	13000001 	movwne	r0, #1
     37c:	00008118 	andeq	r8, r0, r8, lsl r1
     380:	000003fd 	strdeq	r0, [r0], -sp
     384:	804c1100 	subhi	r1, ip, r0, lsl #2
     388:	03e50000 	mvneq	r0, #0, 0
     38c:	039b0000 	orrseq	r0, fp, #0, 0
     390:	01120000 	tsteq	r2, r0
     394:	00760450 	rsbseq	r0, r6, r0, asr r4
     398:	14002432 	strne	r2, [r0], #-1074	; 0xfffffbce
     39c:	0000812c 	andeq	r8, r0, ip, lsr #2
     3a0:	000003fd 	strdeq	r0, [r0], -sp
     3a4:	02500112 	subseq	r0, r0, #-2147483644	; 0x80000004
     3a8:	00000075 	andeq	r0, r0, r5, ror r0
     3ac:	03b20408 			; <UNDEFINED> instruction: 0x03b20408
     3b0:	04080000 	streq	r0, [r8], #-0
     3b4:	0000004f 	andeq	r0, r0, pc, asr #32
     3b8:	0000b416 	andeq	fp, r0, r6, lsl r4
     3bc:	0003c800 	andeq	ip, r3, r0, lsl #16
     3c0:	002c1700 	eoreq	r1, ip, r0, lsl #14
     3c4:	000f0000 	andeq	r0, pc, r0
     3c8:	0003b809 	andeq	fp, r3, r9, lsl #16
     3cc:	03281b00 			; <UNDEFINED> instruction: 0x03281b00
     3d0:	03280000 			; <UNDEFINED> instruction: 0x03280000
     3d4:	28020000 	stmdacs	r2, {}	; <UNPREDICTABLE>
     3d8:	00161b06 	andseq	r1, r6, r6, lsl #22
     3dc:	00160000 	andseq	r0, r6, r0
     3e0:	6e020000 	cdpvs	0, 0, cr0, cr2, cr0, {0}
     3e4:	01171b06 	tsteq	r7, r6, lsl #22
     3e8:	01170000 	tsteq	r7, r0
     3ec:	1e030000 	cdpne	0, 0, cr0, cr3, cr0, {0}
     3f0:	01d61b07 	bicseq	r1, r6, r7, lsl #22
     3f4:	01d60000 	bicseq	r0, r6, r0
     3f8:	1d020000 	stcne	0, cr0, [r2, #-0]
     3fc:	00361b06 	eorseq	r1, r6, r6, lsl #22
     400:	00360000 	eorseq	r0, r6, r0
     404:	1f030000 	svcne	0x00030000
     408:	02da0006 	sbcseq	r0, sl, #6, 0
     40c:	00040000 	andeq	r0, r4, r0
     410:	0000017e 	andeq	r0, r0, lr, ror r1
     414:	01210104 			; <UNDEFINED> instruction: 0x01210104
     418:	050c0000 	streq	r0, [ip, #-0]
     41c:	b0000002 	andlt	r0, r0, r2
     420:	d8000000 	stmdale	r0, {}	; <UNPREDICTABLE>
     424:	ac000081 	stcge	0, cr0, [r0], {129}	; 0x81
     428:	a8000001 	stmdage	r0, {r0}
     42c:	02000002 	andeq	r0, r0, #2, 0
     430:	6e690504 	cdpvs	5, 6, cr0, cr9, cr4, {0}
     434:	04030074 	streq	r0, [r3], #-116	; 0xffffff8c
     438:	00006107 	andeq	r6, r0, r7, lsl #2
     43c:	06010300 	streq	r0, [r1], -r0, lsl #6
     440:	0000000a 	andeq	r0, r0, sl
     444:	0d050203 	sfmeq	f0, 4, [r5, #-12]
     448:	03000001 	movweq	r0, #1
     44c:	009b0504 	addseq	r0, fp, r4, lsl #10
     450:	08030000 	stmdaeq	r3, {}	; <UNPREDICTABLE>
     454:	00009605 	andeq	r9, r0, r5, lsl #12
     458:	08010300 	stmdaeq	r1, {r8, r9}
     45c:	00000008 	andeq	r0, r0, r8
     460:	23070203 	movwcs	r0, #29187	; 0x7203
     464:	03000000 	movweq	r0, #0
     468:	005c0704 	subseq	r0, ip, r4, lsl #14
     46c:	08030000 	stmdaeq	r3, {}	; <UNPREDICTABLE>
     470:	00005707 	andeq	r5, r0, r7, lsl #14
     474:	00250400 	eoreq	r0, r5, r0, lsl #8
     478:	007a0000 	rsbseq	r0, sl, r0
     47c:	25050000 	strcs	r0, [r5, #-0]
     480:	00000000 	andeq	r0, r0, r0
     484:	0000a406 	andeq	sl, r0, r6, lsl #8
     488:	0e1c0200 	cdpeq	2, 1, cr0, cr12, cr0, {0}
     48c:	00000086 	andeq	r0, r0, r6, lsl #1
     490:	006b0407 	rsbeq	r0, fp, r7, lsl #8
     494:	25040000 	strcs	r0, [r4, #-0]
     498:	9b000000 	blls	4a0 <__code_start__-0x7b60>
     49c:	05000000 	streq	r0, [r0, #-0]
     4a0:	0000009b 	muleq	r0, fp, r0
     4a4:	a8040700 	stmdage	r4, {r8, r9, sl}
     4a8:	03000000 	movweq	r0, #0
     4ac:	00110801 	andseq	r0, r1, r1, lsl #16
     4b0:	a1080000 	mrsge	r0, (UNDEF: 8)
     4b4:	06000000 	streq	r0, [r0], -r0
     4b8:	000003e7 	andeq	r0, r0, r7, ror #7
     4bc:	b90e2102 	stmdblt	lr, {r1, r8, sp}
     4c0:	07000000 	streq	r0, [r0, -r0]
     4c4:	00008c04 	andeq	r8, r0, r4, lsl #24
     4c8:	01f20900 	mvnseq	r0, r0, lsl #18
     4cc:	01080000 	mrseq	r0, (UNDEF: 8)
     4d0:	00ec0705 	rsceq	r0, ip, r5, lsl #14
     4d4:	640a0000 	strvs	r0, [sl], #-0
     4d8:	10060100 	andne	r0, r6, r0, lsl #2
     4dc:	000000ec 	andeq	r0, r0, ip, ror #1
     4e0:	0100700a 	tsteq	r0, sl
     4e4:	00f30f07 	rscseq	r0, r3, r7, lsl #30
     4e8:	660a0000 	strvs	r0, [sl], -r0
     4ec:	08010070 	stmdaeq	r1, {r4, r5, r6}
     4f0:	0000f610 	andeq	pc, r0, r0, lsl r6	; <UNPREDICTABLE>
     4f4:	08030000 	stmdaeq	r3, {}	; <UNPREDICTABLE>
     4f8:	00021104 	andeq	r1, r2, r4, lsl #2
     4fc:	0c040b00 			; <UNDEFINED> instruction: 0x0c040b00
     500:	00f50407 	rscseq	r0, r5, r7, lsl #8
     504:	080d0000 	stmdaeq	sp, {}	; <UNPREDICTABLE>
     508:	20020c01 	andcs	r0, r2, r1, lsl #24
     50c:	0e000001 	cdpeq	0, 0, cr0, cr0, cr1, {0}
     510:	00727470 	rsbseq	r7, r2, r0, ror r4
     514:	42150d01 	andsmi	r0, r5, #64	; 0x40
     518:	00000001 	andeq	r0, r0, r1
     51c:	00022e0f 	andeq	r2, r2, pc, lsl #28
     520:	100e0100 	andne	r0, lr, r0, lsl #2
     524:	0000002c 	andeq	r0, r0, ip, lsr #32
     528:	e5090004 	str	r0, [r9, #-4]
     52c:	08000001 	stmdaeq	r0, {r0}
     530:	420f0b01 	andmi	r0, pc, #1024	; 0x400
     534:	0a000001 	beq	540 <__code_start__-0x7ac0>
     538:	0f010073 	svceq	0x00010073
     53c:	0000fc06 	andeq	pc, r0, r6, lsl #24
     540:	00780a00 	rsbseq	r0, r8, r0, lsl #20
     544:	bf101001 	svclt	0x00101001
     548:	00000000 	andeq	r0, r0, r0
     54c:	01200407 			; <UNDEFINED> instruction: 0x01200407
     550:	33100000 	tstcc	r0, #0, 0
     554:	01000002 	tsteq	r0, r2
     558:	01200311 			; <UNDEFINED> instruction: 0x01200311
     55c:	18110000 	ldmdane	r1, {}	; <UNPREDICTABLE>
     560:	01000002 	tsteq	r0, r2
     564:	01480f13 	cmpeq	r8, r3, lsl pc
     568:	03050000 	movweq	r0, #20480	; 0x5000
     56c:	00009910 	andeq	r9, r0, r0, lsl r9
     570:	0001f811 	andeq	pc, r1, r1, lsl r8	; <UNPREDICTABLE>
     574:	10140100 	andsne	r0, r4, r0, lsl #2
     578:	00000178 	andeq	r0, r0, r8, ror r1
     57c:	99080305 	stmdbls	r8, {r0, r2, r8, r9}
     580:	04070000 	streq	r0, [r7], #-0
     584:	00000148 	andeq	r0, r0, r8, asr #2
     588:	00003612 	andeq	r3, r0, r2, lsl r6
     58c:	06520100 	ldrbeq	r0, [r2], -r0, lsl #2
     590:	000081d8 	ldrdeq	r8, [r0], -r8	; <UNPREDICTABLE>
     594:	000000bc 	strheq	r0, [r0], -ip
     598:	01c89c01 	biceq	r9, r8, r1, lsl #24
     59c:	70130000 	andsvc	r0, r3, r0
     5a0:	01007274 	tsteq	r0, r4, ror r2
     5a4:	00f31452 	rscseq	r1, r3, r2, asr r4
     5a8:	50010000 	andpl	r0, r1, r0
     5ac:	00706214 	rsbseq	r6, r0, r4, lsl r2
     5b0:	780a5301 	stmdavc	sl, {r0, r8, r9, ip, lr}
     5b4:	3f000001 	svccc	0x00000001
     5b8:	37000001 	strcc	r0, [r0, -r1]
     5bc:	14000001 	strne	r0, [r0], #-1
     5c0:	53010070 	movwpl	r0, #4208	; 0x1070
     5c4:	0001780f 	andeq	r7, r1, pc, lsl #16
     5c8:	00017b00 	andeq	r7, r1, r0, lsl #22
     5cc:	00017700 	andeq	r7, r1, r0, lsl #14
     5d0:	17150000 	ldrne	r0, [r5, -r0]
     5d4:	01000001 	tsteq	r0, r1
     5d8:	00f3072c 	rscseq	r0, r3, ip, lsr #14
     5dc:	82d80000 	sbcshi	r0, r8, #0, 0
     5e0:	00ac0000 	adceq	r0, ip, r0
     5e4:	9c010000 	stcls	0, cr0, [r1], {-0}
     5e8:	00000257 	andeq	r0, r0, r7, asr r2
     5ec:	00089316 	andeq	r9, r8, r6, lsl r3
     5f0:	1a2c0100 	bne	b009f8 <__bss_end__+0xaf6cd8>
     5f4:	0000002c 	andeq	r0, r0, ip, lsr #32
     5f8:	000001a1 	andeq	r0, r0, r1, lsr #3
     5fc:	00000199 	muleq	r0, r9, r1
     600:	01007014 	tsteq	r0, r4, lsl r0
     604:	01780a2d 	cmneq	r8, sp, lsr #20
     608:	01e90000 	mvneq	r0, r0
     60c:	01db0000 	bicseq	r0, fp, r0
     610:	ec170000 	ldc	0, cr0, [r7], {-0}
     614:	01000001 	tsteq	r0, r1
     618:	01780e2d 	cmneq	r8, sp, lsr #28
     61c:	024b0000 	subeq	r0, fp, #0, 0
     620:	02410000 	subeq	r0, r1, #0, 0
     624:	fe170000 	cdp2	0, 1, cr0, cr7, cr0, {0}
     628:	01000001 	tsteq	r0, r1
     62c:	002c0b2e 	eoreq	r0, ip, lr, lsr #22
     630:	02910000 	addseq	r0, r1, #0, 0
     634:	028f0000 	addeq	r0, pc, #0, 0
     638:	1d180000 	ldcne	0, cr0, [r8, #-0]
     63c:	01000002 	tsteq	r0, r2
     640:	01780a2f 	cmneq	r8, pc, lsr #20
     644:	02460000 	subeq	r0, r6, #0, 0
     648:	2c050000 	stccs	0, cr0, [r5], {-0}
     64c:	00000000 	andeq	r0, r0, r0
     650:	00837419 	addeq	r7, r3, r9, lsl r4
     654:	00025700 	andeq	r5, r2, r0, lsl #14
     658:	50011a00 	andpl	r1, r1, r0, lsl #20
     65c:	00007402 	andeq	r7, r0, r2, lsl #8
     660:	021d1b00 	andseq	r1, sp, #0, 22
     664:	18010000 	stmdane	r1, {}	; <UNPREDICTABLE>
     668:	00017810 	andeq	r7, r1, r0, lsl r8
     66c:	00829400 	addeq	r9, r2, r0, lsl #8
     670:	00004400 	andeq	r4, r0, r0, lsl #8
     674:	cb9c0100 	blgt	fe700a7c <__bss_end__+0xfe6f6d5c>
     678:	1c000002 	stcne	0, cr0, [r0], {2}
     67c:	00636e69 	rsbeq	r6, r3, r9, ror #28
     680:	2c251801 	stccs	8, cr1, [r5], #-4
     684:	a8000000 	stmdage	r0, {}	; <UNPREDICTABLE>
     688:	a4000002 	strge	r0, [r0], #-2
     68c:	14000002 	strne	r0, [r0], #-2
     690:	01007063 	tsteq	r0, r3, rrx
     694:	02cb0819 	sbceq	r0, fp, #1638400	; 0x190000
     698:	02cc0000 	sbceq	r0, ip, #0, 0
     69c:	02c60000 	sbceq	r0, r6, #0, 0
     6a0:	75140000 	ldrvc	r0, [r4, #-0]
     6a4:	1a010070 	bne	4086c <__bss_end__+0x36b4c>
     6a8:	0001780a 	andeq	r7, r1, sl, lsl #16
     6ac:	0002fb00 	andeq	pc, r2, r0, lsl #22
     6b0:	0002f700 	andeq	pc, r2, r0, lsl #14
     6b4:	82ac1d00 	adchi	r1, ip, #0, 26
     6b8:	02d10000 	sbcseq	r0, r1, #0, 0
     6bc:	02c10000 	sbceq	r0, r1, #0, 0
     6c0:	011a0000 	tsteq	sl, r0
     6c4:	00740450 	rsbseq	r0, r4, r0, asr r4
     6c8:	1e002433 	cfmvdhrne	mvd0, r2
     6cc:	000082c0 	andeq	r8, r0, r0, asr #5
     6d0:	0000017e 	andeq	r0, r0, lr, ror r1
     6d4:	a1040700 	tstge	r4, r0, lsl #14
     6d8:	1f000000 	svcne	0x00000000
     6dc:	00000229 	andeq	r0, r0, r9, lsr #4
     6e0:	00000229 	andeq	r0, r0, r9, lsr #4
     6e4:	000b1a03 	andeq	r1, fp, r3, lsl #20
     6e8:	0000010a 	andeq	r0, r0, sl, lsl #2
     6ec:	036c0004 	cmneq	ip, #4, 0
     6f0:	01040000 	mrseq	r0, (UNDEF: 4)
     6f4:	00000121 	andeq	r0, r0, r1, lsr #2
     6f8:	00024c0c 	andeq	r4, r2, ip, lsl #24
     6fc:	0000b000 	andeq	fp, r0, r0
     700:	00838400 	addeq	r8, r3, r0, lsl #8
     704:	00000c00 	andeq	r0, r0, r0, lsl #24
     708:	0004fe00 	andeq	pc, r4, r0, lsl #28
     70c:	05040200 	streq	r0, [r4, #-512]	; 0xfffffe00
     710:	00746e69 	rsbseq	r6, r4, r9, ror #28
     714:	61070403 	tstvs	r7, r3, lsl #8
     718:	03000000 	movweq	r0, #0
     71c:	000a0601 	andeq	r0, sl, r1, lsl #12
     720:	02030000 	andeq	r0, r3, #0, 0
     724:	00010d05 	andeq	r0, r1, r5, lsl #26
     728:	05040300 	streq	r0, [r4, #-768]	; 0xfffffd00
     72c:	0000009b 	muleq	r0, fp, r0
     730:	96050803 	strls	r0, [r5], -r3, lsl #16
     734:	03000000 	movweq	r0, #0
     738:	00080801 	andeq	r0, r8, r1, lsl #16
     73c:	02030000 	andeq	r0, r3, #0, 0
     740:	00002307 	andeq	r2, r0, r7, lsl #6
     744:	07040300 	streq	r0, [r4, -r0, lsl #6]
     748:	0000005c 	andeq	r0, r0, ip, asr r0
     74c:	57070803 	strpl	r0, [r7, -r3, lsl #16]
     750:	04000000 	streq	r0, [r0], #-0
     754:	00000025 	andeq	r0, r0, r5, lsr #32
     758:	0000007a 	andeq	r0, r0, sl, ror r0
     75c:	00002505 	andeq	r2, r0, r5, lsl #10
     760:	a4060000 	strge	r0, [r6], #-0
     764:	02000000 	andeq	r0, r0, #0, 0
     768:	00860e1c 	addeq	r0, r6, ip, lsl lr
     76c:	04070000 	streq	r0, [r7], #-0
     770:	0000006b 	andeq	r0, r0, fp, rrx
     774:	00002504 	andeq	r2, r0, r4, lsl #10
     778:	00009b00 	andeq	r9, r0, r0, lsl #22
     77c:	009b0500 	addseq	r0, fp, r0, lsl #10
     780:	07000000 	streq	r0, [r0, -r0]
     784:	0000a804 	andeq	sl, r0, r4, lsl #16
     788:	08010300 	stmdaeq	r1, {r8, r9}
     78c:	00000011 	andeq	r0, r0, r1, lsl r0
     790:	0000a108 	andeq	sl, r0, r8, lsl #2
     794:	03e70600 	mvneq	r0, #0, 12
     798:	21020000 	mrscs	r0, (UNDEF: 2)
     79c:	0000b90e 	andeq	fp, r0, lr, lsl #18
     7a0:	8c040700 	stchi	7, cr0, [r4], {-0}
     7a4:	09000000 	stmdbeq	r0, {}	; <UNPREDICTABLE>
     7a8:	00000229 	andeq	r0, r0, r9, lsr #4
     7ac:	ff070401 			; <UNDEFINED> instruction: 0xff070401
     7b0:	84000000 	strhi	r0, [r0], #-0
     7b4:	0c000083 	stceq	0, cr0, [r0], {131}	; 0x83
     7b8:	01000000 	mrseq	r0, (UNDEF: 0)
     7bc:	0000ff9c 	muleq	r0, ip, pc	; <UNPREDICTABLE>
     7c0:	023a0a00 	eorseq	r0, sl, #0, 20
     7c4:	04010000 	streq	r0, [r1], #-0
     7c8:	00004111 	andeq	r4, r0, r1, lsl r1
     7cc:	00031f00 	andeq	r1, r3, r0, lsl #30
     7d0:	00031b00 	andeq	r1, r3, r0, lsl #22
     7d4:	838c0b00 	orrhi	r0, ip, #0, 22
     7d8:	01010000 	mrseq	r0, (UNDEF: 1)
     7dc:	010c0000 	mrseq	r0, (UNDEF: 12)
     7e0:	01f30350 	mvnseq	r0, r0, asr r3
     7e4:	0d000050 	stceq	0, cr0, [r0, #-320]	; 0xfffffec0
     7e8:	02440e04 	subeq	r0, r4, #4, 28	; 0x40
     7ec:	02440000 	subeq	r0, r4, #0, 0
     7f0:	7c020000 	stcvc	0, cr0, [r2], {-0}
     7f4:	019d0007 	orrseq	r0, sp, r7
     7f8:	00040000 	andeq	r0, r4, r0
     7fc:	0000042e 	andeq	r0, r0, lr, lsr #8
     800:	02560104 	subseq	r0, r6, #1
     804:	4d0c0000 	stcmi	0, cr0, [ip, #-0]
     808:	5d000003 	stcpl	0, cr0, [r0, #-12]
     80c:	90000003 	andls	r0, r0, r3
     810:	58000083 	stmdapl	r0, {r0, r1, r7}
     814:	9d000000 	stcls	0, cr0, [r0, #-0]
     818:	02000005 	andeq	r0, r0, #5, 0
     81c:	0000032f 	andeq	r0, r0, pc, lsr #6
     820:	311b2802 	tstcc	fp, r2, lsl #16
     824:	03000000 	movweq	r0, #0
     828:	0000033e 	andeq	r0, r0, lr, lsr r3
     82c:	48000404 	stmdami	r0, {r2, sl}
     830:	04000000 	streq	r0, [r0], #-0
     834:	00000348 	andeq	r0, r0, r8, asr #6
     838:	00000048 	andeq	r0, r0, r8, asr #32
     83c:	04050000 	streq	r0, [r5], #-0
     840:	00034002 	andeq	r4, r3, r2
     844:	18630200 	stmdane	r3!, {r9}^
     848:	00000025 	andeq	r0, r0, r5, lsr #32
     84c:	69050406 	stmdbvs	r5, {r1, r2, sl}
     850:	0700746e 	streq	r7, [r0, -lr, ror #8]
     854:	00610704 	rsbeq	r0, r1, r4, lsl #14
     858:	01070000 	mrseq	r0, (UNDEF: 7)
     85c:	00000a06 	andeq	r0, r0, r6, lsl #20
     860:	05020700 	streq	r0, [r2, #-1792]	; 0xfffff900
     864:	0000010d 	andeq	r0, r0, sp, lsl #2
     868:	9b050407 	blls	14188c <__bss_end__+0x137b6c>
     86c:	07000000 	streq	r0, [r0, -r0]
     870:	00960508 	addseq	r0, r6, r8, lsl #10
     874:	01070000 	mrseq	r0, (UNDEF: 7)
     878:	00000808 	andeq	r0, r0, r8, lsl #16
     87c:	07020700 	streq	r0, [r2, -r0, lsl #14]
     880:	00000023 	andeq	r0, r0, r3, lsr #32
     884:	5c070407 	cfstrspl	mvf0, [r7], {7}
     888:	07000000 	streq	r0, [r0, -r0]
     88c:	00570708 	subseq	r0, r7, r8, lsl #14
     890:	56080000 	strpl	r0, [r8], -r0
     894:	ab000000 	blge	89c <__code_start__-0x7764>
     898:	09000000 	stmdbeq	r0, {}	; <UNPREDICTABLE>
     89c:	00000056 	andeq	r0, r0, r6, asr r0
     8a0:	00a40a00 	adceq	r0, r4, r0, lsl #20
     8a4:	1c030000 	stcne	0, cr0, [r3], {-0}
     8a8:	0000b70e 	andeq	fp, r0, lr, lsl #14
     8ac:	9c040b00 			; <UNDEFINED> instruction: 0x9c040b00
     8b0:	08000000 	stmdaeq	r0, {}	; <UNPREDICTABLE>
     8b4:	00000056 	andeq	r0, r0, r6, asr r0
     8b8:	000000cc 	andeq	r0, r0, ip, asr #1
     8bc:	0000cc09 	andeq	ip, r0, r9, lsl #24
     8c0:	040b0000 	streq	r0, [fp], #-0
     8c4:	000000d9 	ldrdeq	r0, [r0], -r9
     8c8:	11080107 	tstne	r8, r7, lsl #2
     8cc:	0c000000 	stceq	0, cr0, [r0], {-0}
     8d0:	000000d2 	ldrdeq	r0, [r0], -r2
     8d4:	0003e70a 	andeq	lr, r3, sl, lsl #14
     8d8:	0e210300 	cdpeq	3, 2, cr0, cr1, cr0, {0}
     8dc:	000000ea 	andeq	r0, r0, sl, ror #1
     8e0:	00bd040b 	adcseq	r0, sp, fp, lsl #8
     8e4:	280d0000 	stmdacs	sp, {}	; <UNPREDICTABLE>
     8e8:	01000003 	tsteq	r0, r3
     8ec:	00560506 	subseq	r0, r6, r6, lsl #10
     8f0:	83900000 	orrshi	r0, r0, #0, 0
     8f4:	00580000 	subseq	r0, r8, r0
     8f8:	9c010000 	stcls	0, cr0, [r1], {-0}
     8fc:	00000183 	andeq	r0, r0, r3, lsl #3
     900:	746d660e 	strbtvc	r6, [sp], #-1550	; 0xfffff9f2
     904:	18060100 	stmdane	r6, {r8}
     908:	000000cc 	andeq	r0, r0, ip, asr #1
     90c:	0f709102 	svceq	0x00709102
     910:	66756210 			; <UNDEFINED> instruction: 0x66756210
     914:	11080100 	mrsne	r0, (UNDEF: 24)
     918:	00000183 	andeq	r0, r0, r3, lsl #3
     91c:	99180305 	ldmdbls	r8, {r0, r2, r8, r9}
     920:	20110000 	andscs	r0, r1, r0
     924:	01000003 	tsteq	r0, r3
     928:	004a0d09 	subeq	r0, sl, r9, lsl #26
     92c:	91020000 	mrsls	r0, (UNDEF: 2)
     930:	7a73125c 	bvc	1cc52a8 <__bss_end__+0x1cbb588>
     934:	0d0c0100 	stfeqs	f0, [ip, #-0]
     938:	00000056 	andeq	r0, r0, r6, asr r0
     93c:	00000346 	andeq	r0, r0, r6, asr #6
     940:	00000340 	andeq	r0, r0, r0, asr #6
     944:	0083b813 	addeq	fp, r3, r3, lsl r8
     948:	00019400 	andeq	r9, r1, r0, lsl #8
     94c:	00017600 	andeq	r7, r1, r0, lsl #12
     950:	50011400 	andpl	r1, r1, r0, lsl #8
     954:	14007502 	strne	r7, [r0], #-1282	; 0xfffffafe
     958:	0a035101 	beq	d4d64 <__bss_end__+0xcb044>
     95c:	01140400 	tsteq	r4, r0, lsl #8
     960:	48910352 	ldmmi	r1, {r1, r4, r6, r8, r9}
     964:	53011406 	movwpl	r1, #5126	; 0x1406
     968:	004c9102 	subeq	r9, ip, r2, lsl #2
     96c:	0083cc15 	addeq	ip, r3, r5, lsl ip
     970:	50011400 	andpl	r1, r1, r0, lsl #8
     974:	00007502 	andeq	r7, r0, r2, lsl #10
     978:	00d21600 	sbcseq	r1, r2, r0, lsl #12
     97c:	01940000 	orrseq	r0, r4, r0
     980:	5d170000 	ldcpl	0, cr0, [r7, #-0]
     984:	ff000000 			; <UNDEFINED> instruction: 0xff000000
     988:	25180003 	ldrcs	r0, [r8, #-3]
     98c:	25000003 	strcs	r0, [r0, #-3]
     990:	05000003 	streq	r0, [r0, #-3]
     994:	49000502 	stmdbmi	r0, {r1, r8, sl}
     998:	04000001 	streq	r0, [r0], #-1
     99c:	00057000 	andeq	r7, r5, r0
     9a0:	56010400 	strpl	r0, [r1], -r0, lsl #8
     9a4:	0c000002 	stceq	0, cr0, [r0], {2}
     9a8:	000003c3 	andeq	r0, r0, r3, asr #7
     9ac:	0000035d 	andeq	r0, r0, sp, asr r3
     9b0:	000083e8 	andeq	r8, r0, r8, ror #7
     9b4:	0000003c 	andeq	r0, r0, ip, lsr r0
     9b8:	000006d4 	ldrdeq	r0, [r0], -r4
     9bc:	69050402 	stmdbvs	r5, {r1, sl}
     9c0:	0300746e 	movweq	r7, #1134	; 0x46e
     9c4:	00610704 	rsbeq	r0, r1, r4, lsl #14
     9c8:	01030000 	mrseq	r0, (UNDEF: 3)
     9cc:	00000a06 	andeq	r0, r0, r6, lsl #20
     9d0:	05020300 	streq	r0, [r2, #-768]	; 0xfffffd00
     9d4:	0000010d 	andeq	r0, r0, sp, lsl #2
     9d8:	9b050403 	blls	1419ec <__bss_end__+0x137ccc>
     9dc:	03000000 	movweq	r0, #0
     9e0:	00960508 	addseq	r0, r6, r8, lsl #10
     9e4:	01030000 	mrseq	r0, (UNDEF: 3)
     9e8:	00000808 	andeq	r0, r0, r8, lsl #16
     9ec:	07020300 	streq	r0, [r2, -r0, lsl #6]
     9f0:	00000023 	andeq	r0, r0, r3, lsr #32
     9f4:	5c070403 	cfstrspl	mvf0, [r7], {3}
     9f8:	03000000 	movweq	r0, #0
     9fc:	00570708 	subseq	r0, r7, r8, lsl #14
     a00:	25040000 	strcs	r0, [r4, #-0]
     a04:	7a000000 	bvc	a0c <__code_start__-0x75f4>
     a08:	05000000 	streq	r0, [r0, #-0]
     a0c:	00000025 	andeq	r0, r0, r5, lsr #32
     a10:	00a40600 	adceq	r0, r4, r0, lsl #12
     a14:	1c020000 	stcne	0, cr0, [r2], {-0}
     a18:	0000860e 	andeq	r8, r0, lr, lsl #12
     a1c:	6b040700 	blvs	102624 <__bss_end__+0xf8904>
     a20:	04000000 	streq	r0, [r0], #-0
     a24:	00000025 	andeq	r0, r0, r5, lsr #32
     a28:	0000009b 	muleq	r0, fp, r0
     a2c:	00009b05 	andeq	r9, r0, r5, lsl #22
     a30:	04070000 	streq	r0, [r7], #-0
     a34:	000000a8 	andeq	r0, r0, r8, lsr #1
     a38:	11080103 	tstne	r8, r3, lsl #2
     a3c:	08000000 	stmdaeq	r0, {}	; <UNPREDICTABLE>
     a40:	000000a1 	andeq	r0, r0, r1, lsr #1
     a44:	0003e706 	andeq	lr, r3, r6, lsl #14
     a48:	0e210200 	cdpeq	2, 2, cr0, cr1, cr0, {0}
     a4c:	000000b9 	strheq	r0, [r0], -r9
     a50:	008c0407 	addeq	r0, ip, r7, lsl #8
     a54:	7a090000 	bvc	240a5c <__bss_end__+0x236d3c>
     a58:	01000000 	mrseq	r0, (UNDEF: 0)
     a5c:	03050706 	movweq	r0, #22278	; 0x5706
     a60:	000098f4 	strdeq	r9, [r0], -r4
     a64:	0003b60a 	andeq	fp, r3, sl, lsl #12
     a68:	060b0100 	streq	r0, [fp], -r0, lsl #2
     a6c:	00008414 	andeq	r8, r0, r4, lsl r4
     a70:	00000010 	andeq	r0, r0, r0, lsl r0
     a74:	00f19c01 	rscseq	r9, r1, r1, lsl #24
     a78:	660b0000 	strvs	r0, [fp], -r0
     a7c:	0b010070 	bleq	40c44 <__bss_end__+0x36f24>
     a80:	00008619 	andeq	r8, r0, r9, lsl r6
     a84:	00500100 	subseq	r0, r0, r0, lsl #2
     a88:	0001d60c 	andeq	sp, r1, ip, lsl #12
     a8c:	06080100 	streq	r0, [r8], -r0, lsl #2
     a90:	000083fc 	strdeq	r8, [r0], -ip
     a94:	00000018 	andeq	r0, r0, r8, lsl r0
     a98:	a50d9c01 	strge	r9, [sp, #-3073]	; 0xfffff3ff
     a9c:	01000003 	tsteq	r0, r3
     aa0:	00250c03 	eoreq	r0, r5, r3, lsl #24
     aa4:	83e80000 	mvnhi	r0, #0, 0
     aa8:	00140000 	andseq	r0, r4, r0
     aac:	9c010000 	stcls	0, cr0, [r1], {-0}
     ab0:	00000140 	andeq	r0, r0, r0, asr #2
     ab4:	0100630e 	tsteq	r0, lr, lsl #6
     ab8:	00252103 	eoreq	r2, r5, r3, lsl #2
     abc:	03730000 	cmneq	r3, #0, 0
     ac0:	036f0000 	cmneq	pc, #0, 0
     ac4:	f40f0000 	vst4.8	{d0-d3}, [pc], r0
     ac8:	40000083 	andmi	r0, r0, r3, lsl #1
     acc:	10000001 	andne	r0, r0, r1
     ad0:	74025001 	strvc	r5, [r2], #-1
     ad4:	11000000 	mrsne	r0, (UNDEF: 0)
     ad8:	000003d4 	ldrdeq	r0, [r0], -r4
     adc:	000003d4 	ldrdeq	r0, [r0], -r4
     ae0:	00064202 	andeq	r4, r6, r2, lsl #4
     ae4:	000000f3 	strdeq	r0, [r0], -r3
     ae8:	067f0004 	ldrbteq	r0, [pc], -r4
     aec:	01040000 	mrseq	r0, (UNDEF: 4)
     af0:	00000256 	andeq	r0, r0, r6, asr r2
     af4:	0003ec0c 	andeq	lr, r3, ip, lsl #24
     af8:	00035d00 	andeq	r5, r3, r0, lsl #26
     afc:	00842400 	addeq	r2, r4, r0, lsl #8
     b00:	00003400 	andeq	r3, r0, r0, lsl #8
     b04:	00079600 	andeq	r9, r7, r0, lsl #12
     b08:	05040200 	streq	r0, [r4, #-512]	; 0xfffffe00
     b0c:	00746e69 	rsbseq	r6, r4, r9, ror #28
     b10:	61070403 	tstvs	r7, r3, lsl #8
     b14:	03000000 	movweq	r0, #0
     b18:	000a0601 	andeq	r0, sl, r1, lsl #12
     b1c:	02030000 	andeq	r0, r3, #0, 0
     b20:	00010d05 	andeq	r0, r1, r5, lsl #26
     b24:	05040300 	streq	r0, [r4, #-768]	; 0xfffffd00
     b28:	0000009b 	muleq	r0, fp, r0
     b2c:	96050803 	strls	r0, [r5], -r3, lsl #16
     b30:	03000000 	movweq	r0, #0
     b34:	00080801 	andeq	r0, r8, r1, lsl #16
     b38:	02030000 	andeq	r0, r3, #0, 0
     b3c:	00002307 	andeq	r2, r0, r7, lsl #6
     b40:	07040300 	streq	r0, [r4, -r0, lsl #6]
     b44:	0000005c 	andeq	r0, r0, ip, asr r0
     b48:	57070803 	strpl	r0, [r7, -r3, lsl #16]
     b4c:	04000000 	streq	r0, [r0], #-0
     b50:	00000025 	andeq	r0, r0, r5, lsr #32
     b54:	0000007a 	andeq	r0, r0, sl, ror r0
     b58:	00002505 	andeq	r2, r0, r5, lsl #10
     b5c:	a4060000 	strge	r0, [r6], #-0
     b60:	02000000 	andeq	r0, r0, #0, 0
     b64:	00860e1c 	addeq	r0, r6, ip, lsl lr
     b68:	04070000 	streq	r0, [r7], #-0
     b6c:	0000006b 	andeq	r0, r0, fp, rrx
     b70:	00002504 	andeq	r2, r0, r4, lsl #10
     b74:	00009b00 	andeq	r9, r0, r0, lsl #22
     b78:	009b0500 	addseq	r0, fp, r0, lsl #10
     b7c:	07000000 	streq	r0, [r0, -r0]
     b80:	0000a804 	andeq	sl, r0, r4, lsl #16
     b84:	08010300 	stmdaeq	r1, {r8, r9}
     b88:	00000011 	andeq	r0, r0, r1, lsl r0
     b8c:	0000a108 	andeq	sl, r0, r8, lsl #2
     b90:	03e70600 	mvneq	r0, #0, 12
     b94:	21020000 	mrscs	r0, (UNDEF: 2)
     b98:	0000b90e 	andeq	fp, r0, lr, lsl #18
     b9c:	8c040700 	stchi	7, cr0, [r4], {-0}
     ba0:	09000000 	stmdbeq	r0, {}	; <UNPREDICTABLE>
     ba4:	000000ad 	andeq	r0, r0, sp, lsr #1
     ba8:	05070c01 	streq	r0, [r7, #-3073]	; 0xfffff3ff
     bac:	0098f803 	addseq	pc, r8, r3, lsl #16
     bb0:	03de0a00 	bicseq	r0, lr, #0, 20
     bb4:	04010000 	streq	r0, [r1], #-0
     bb8:	00002505 	andeq	r2, r0, r5, lsl #10
     bbc:	00842400 	addeq	r2, r4, r0, lsl #8
     bc0:	00003400 	andeq	r3, r0, r0, lsl #8
     bc4:	0b9c0100 	bleq	fe700fcc <__bss_end__+0xfe6f72ac>
     bc8:	04010070 	streq	r0, [r1], #-112	; 0xffffff90
     bcc:	00009b1f 	andeq	r9, r0, pc, lsl fp
     bd0:	00039500 	andeq	r9, r3, r0, lsl #10
     bd4:	00039100 	andeq	r9, r3, r0, lsl #2
     bd8:	d7000000 	strle	r0, [r0, -r0]
     bdc:	0400000a 	streq	r0, [r0], #-10
     be0:	00071d00 	andeq	r1, r7, r0, lsl #26
     be4:	56010400 	strpl	r0, [r1], -r0, lsl #8
     be8:	0c000002 	stceq	0, cr0, [r0], {2}
     bec:	0000040b 	andeq	r0, r0, fp, lsl #8
     bf0:	0000035d 	andeq	r0, r0, sp, asr r3
     bf4:	00008458 	andeq	r8, r0, r8, asr r4
     bf8:	00000740 	andeq	r0, r0, r0, asr #14
     bfc:	00000865 	andeq	r0, r0, r5, ror #16
     c00:	69050402 	stmdbvs	r5, {r1, sl}
     c04:	0300746e 	movweq	r7, #1134	; 0x46e
     c08:	00610704 	rsbeq	r0, r1, r4, lsl #14
     c0c:	01030000 	mrseq	r0, (UNDEF: 3)
     c10:	00000a06 	andeq	r0, r0, r6, lsl #20
     c14:	05020300 	streq	r0, [r2, #-768]	; 0xfffffd00
     c18:	0000010d 	andeq	r0, r0, sp, lsl #2
     c1c:	9b050403 	blls	141c30 <__bss_end__+0x137f10>
     c20:	03000000 	movweq	r0, #0
     c24:	00960508 	addseq	r0, r6, r8, lsl #10
     c28:	01030000 	mrseq	r0, (UNDEF: 3)
     c2c:	00000808 	andeq	r0, r0, r8, lsl #16
     c30:	07020300 	streq	r0, [r2, -r0, lsl #6]
     c34:	00000023 	andeq	r0, r0, r3, lsr #32
     c38:	00047104 	andeq	r7, r4, r4, lsl #2
     c3c:	19340200 	ldmdbne	r4!, {r9}
     c40:	00000069 	andeq	r0, r0, r9, rrx
     c44:	5c070403 	cfstrspl	mvf0, [r7], {3}
     c48:	04000000 	streq	r0, [r0], #-0
     c4c:	00000402 	andeq	r0, r0, r2, lsl #8
     c50:	7c193702 	ldcvc	7, cr3, [r9], {2}
     c54:	03000000 	movweq	r0, #0
     c58:	00570708 	subseq	r0, r7, r8, lsl #14
     c5c:	25050000 	strcs	r0, [r5, #-0]
     c60:	92000000 	andls	r0, r0, #0, 0
     c64:	06000000 	streq	r0, [r0], -r0
     c68:	00000025 	andeq	r0, r0, r5, lsr #32
     c6c:	00a40700 	adceq	r0, r4, r0, lsl #14
     c70:	1c030000 	stcne	0, cr0, [r3], {-0}
     c74:	00009e0e 	andeq	r9, r0, lr, lsl #28
     c78:	83040800 	movwhi	r0, #18432	; 0x4800
     c7c:	05000000 	streq	r0, [r0, #-0]
     c80:	00000025 	andeq	r0, r0, r5, lsr #32
     c84:	000000b3 	strheq	r0, [r0], -r3
     c88:	0000b306 	andeq	fp, r0, r6, lsl #6
     c8c:	04080000 	streq	r0, [r8], #-0
     c90:	000000c0 	andeq	r0, r0, r0, asr #1
     c94:	11080103 	tstne	r8, r3, lsl #2
     c98:	09000000 	stmdbeq	r0, {}	; <UNPREDICTABLE>
     c9c:	000000b9 	strheq	r0, [r0], -r9
     ca0:	0003e707 	andeq	lr, r3, r7, lsl #14
     ca4:	0e210300 	cdpeq	3, 2, cr0, cr1, cr0, {0}
     ca8:	000000d1 	ldrdeq	r0, [r0], -r1
     cac:	00a40408 	adceq	r0, r4, r8, lsl #8
     cb0:	1e070000 	cdpne	0, 0, cr0, cr7, cr0, {0}
     cb4:	04000004 	streq	r0, [r0], #-4
     cb8:	00b90d0b 	adcseq	r0, r9, fp, lsl #26
     cbc:	a0070000 	andge	r0, r7, r0
     cc0:	04000004 	streq	r0, [r0], #-4
     cc4:	00b90d0c 	adcseq	r0, r9, ip, lsl #26
     cc8:	2d070000 	stccs	0, cr0, [r7, #-0]
     ccc:	04000004 	streq	r0, [r0], #-4
     cd0:	00b90d0d 	adcseq	r0, r9, sp, lsl #26
     cd4:	56070000 	strpl	r0, [r7], -r0
     cd8:	04000004 	streq	r0, [r0], #-4
     cdc:	00b90d0e 	adcseq	r0, r9, lr, lsl #26
     ce0:	d0070000 	andle	r0, r7, r0
     ce4:	04000004 	streq	r0, [r0], #-4
     ce8:	00b90d0f 	adcseq	r0, r9, pc, lsl #26
     cec:	41070000 	mrsmi	r0, (UNDEF: 7)
     cf0:	04000004 	streq	r0, [r0], #-4
     cf4:	00b90d10 	adcseq	r0, r9, r0, lsl sp
     cf8:	df070000 	svcle	0x00070000
     cfc:	04000004 	streq	r0, [r0], #-4
     d00:	00b90d11 	adcseq	r0, r9, r1, lsl sp
     d04:	62070000 	andvs	r0, r7, #0, 0
     d08:	04000004 	streq	r0, [r0], #-4
     d0c:	00b90d12 	adcseq	r0, r9, r2, lsl sp
     d10:	2f040000 	svccs	0x00040000
     d14:	05000003 	streq	r0, [r0, #-3]
     d18:	01431b28 	cmpeq	r3, r8, lsr #22
     d1c:	3e0a0000 	cdpcc	0, 0, cr0, cr10, cr0, {0}
     d20:	04000003 	streq	r0, [r0], #-3
     d24:	015a0006 	cmpeq	sl, r6
     d28:	480b0000 	stmdami	fp, {}	; <UNPREDICTABLE>
     d2c:	5a000003 	bpl	d40 <__code_start__-0x72c0>
     d30:	00000001 	andeq	r0, r0, r1
     d34:	04040c00 	streq	r0, [r4], #-3072	; 0xfffff400
     d38:	00000340 	andeq	r0, r0, r0, asr #6
     d3c:	37186305 	ldrcc	r6, [r8, -r5, lsl #6]
     d40:	0d000001 	stceq	0, cr0, [r0, #-4]
     d44:	00000325 	andeq	r0, r0, r5, lsr #6
     d48:	25058101 	strcs	r8, [r5, #-257]	; 0xfffffeff
     d4c:	e0000000 	and	r0, r0, r0
     d50:	b8000086 	stmdalt	r0, {r1, r2, r7}
     d54:	01000004 	tsteq	r0, r4
     d58:	0007179c 	muleq	r7, ip, r7
     d5c:	75620e00 	strbvc	r0, [r2, #-3584]!	; 0xfffff200
     d60:	81010066 	tsthi	r1, r6, rrx
     d64:	00071715 	andeq	r1, r7, r5, lsl r7
     d68:	0003b900 	andeq	fp, r3, r0, lsl #18
     d6c:	0003b300 	andeq	fp, r3, r0, lsl #6
     d70:	006e0e00 	rsbeq	r0, lr, r0, lsl #28
     d74:	251e8101 	ldrcs	r8, [lr, #-257]	; 0xfffffeff
     d78:	eb000000 	bl	d80 <__code_start__-0x7280>
     d7c:	e5000003 	str	r0, [r0, #-3]
     d80:	0e000003 	cdpeq	0, 0, cr0, cr0, cr3, {0}
     d84:	00746d66 	rsbseq	r6, r4, r6, ror #26
     d88:	b32d8101 			; <UNDEFINED> instruction: 0xb32d8101
     d8c:	25000000 	strcs	r0, [r0, #-0]
     d90:	19000004 	stmdbne	r0, {r2}
     d94:	0f000004 	svceq	0x00000004
     d98:	00000320 	andeq	r0, r0, r0, lsr #6
     d9c:	5c3a8101 	ldfpld	f0, [sl], #-4
     da0:	03000001 	movweq	r0, #1
     da4:	107dd491 			; <UNDEFINED> instruction: 0x107dd491
     da8:	82010070 	andhi	r0, r1, #112, 0	; 0x70
     dac:	00071708 	andeq	r1, r7, r8, lsl #14
     db0:	00048300 	andeq	r8, r4, r0, lsl #6
     db4:	00046f00 	andeq	r6, r4, r0, lsl #30
     db8:	00651000 	rsbeq	r1, r5, r0
     dbc:	17128201 	ldrne	r8, [r2, -r1, lsl #4]
     dc0:	05000007 	streq	r0, [r0, #-7]
     dc4:	01000005 	tsteq	r0, r5
     dc8:	10000005 	andne	r0, r0, r5
     dcc:	01003078 	tsteq	r0, r8, ror r0
     dd0:	005d0e83 	subseq	r0, sp, r3, lsl #29
     dd4:	05320000 	ldreq	r0, [r2, #-0]!
     dd8:	052c0000 	streq	r0, [ip, #-0]!
     ddc:	78100000 	ldmdavc	r0, {}	; <UNPREDICTABLE>
     de0:	83010031 	movwhi	r0, #4145	; 0x1031
     de4:	00005d11 	andeq	r5, r0, r1, lsl sp
     de8:	00055f00 	andeq	r5, r5, r0, lsl #30
     dec:	00055b00 	andeq	r5, r5, r0, lsl #22
     df0:	04891100 	streq	r1, [r9], #256	; 0x100
     df4:	86010000 	strhi	r0, [r1], -r0
     df8:	0000b311 	andeq	fp, r0, r1, lsl r3
     dfc:	00058100 	andeq	r8, r5, r0, lsl #2
     e00:	00057d00 	andeq	r7, r5, r0, lsl #26
     e04:	00431200 	subeq	r1, r3, r0, lsl #4
     e08:	072d0000 	streq	r0, [sp, -r0]!
     e0c:	03050000 	movweq	r0, #20480	; 0x5000
     e10:	000096e0 	andeq	r9, r0, r0, ror #13
     e14:	00874813 	addeq	r4, r7, r3, lsl r8
     e18:	00040000 	andeq	r0, r4, r0
     e1c:	00731000 	rsbseq	r1, r3, r0
     e20:	170a9101 	strne	r9, [sl, -r1, lsl #2]
     e24:	b7000007 	strlt	r0, [r0, -r7]
     e28:	a1000005 	tstge	r0, r5
     e2c:	14000005 	strne	r0, [r0], #-5
     e30:	006d756e 	rsbeq	r7, sp, lr, ror #10
     e34:	320d9101 	andcc	r9, sp, #1073741824	; 0x40000000
     e38:	03000007 	movweq	r0, #7
     e3c:	157dd891 	ldrbne	sp, [sp, #-2193]!	; 0xfffff76f
     e40:	000004ec 	andeq	r0, r0, ip, ror #9
     e44:	32179101 	andscc	r9, r7, #1073741824	; 0x40000000
     e48:	03000007 	movweq	r0, #7
     e4c:	117ed891 			; <UNDEFINED> instruction: 0x117ed891
     e50:	0000043b 	andeq	r0, r0, fp, lsr r4
     e54:	2c0d9201 	sfmcs	f1, 1, [sp], {1}
     e58:	3e000000 	cdpcc	0, 0, cr0, cr0, cr0, {0}
     e5c:	38000006 	stmdacc	r0, {r1, r2}
     e60:	16000006 	strne	r0, [r0], -r6
     e64:	00008810 	andeq	r8, r0, r0, lsl r8
     e68:	000001a4 	andeq	r0, r0, r4, lsr #3
     e6c:	00000539 	andeq	r0, r0, r9, lsr r5
     e70:	00797410 	rsbseq	r7, r9, r0, lsl r4
     e74:	b31d9e01 	tstlt	sp, #1, 28
     e78:	72000000 	andvc	r0, r0, #0, 0
     e7c:	68000006 	stmdavs	r0, {r1, r2}
     e80:	17000006 	strne	r0, [r0, -r6]
     e84:	01007878 	tsteq	r0, r8, ror r8
     e88:	00701aa2 	rsbseq	r1, r0, r2, lsr #21
     e8c:	20180000 	andscs	r0, r8, r0
     e90:	92000088 	andls	r0, r0, #136, 0	; 0x88
     e94:	d500000a 	strle	r0, [r0, #-10]
     e98:	19000002 	stmdbne	r0, {r1}
     e9c:	76025001 	strvc	r5, [r2], -r1
     ea0:	51011900 	tstpl	r1, r0, lsl #18
     ea4:	95d40305 	ldrbls	r0, [r4, #773]	; 0x305
     ea8:	01190000 	tsteq	r9, r0
     eac:	00330152 	eorseq	r0, r3, r2, asr r1
     eb0:	00883818 	addeq	r3, r8, r8, lsl r8
     eb4:	000a9200 	andeq	r9, sl, r0, lsl #4
     eb8:	0002f700 	andeq	pc, r2, r0, lsl #14
     ebc:	50011900 	andpl	r1, r1, r0, lsl #18
     ec0:	19007602 	stmdbne	r0, {r1, r9, sl, ip, sp, lr}
     ec4:	03055101 	movweq	r5, #20737	; 0x5101
     ec8:	000095d8 	ldrdeq	r9, [r0], -r8
     ecc:	01520119 	cmpeq	r2, r9, lsl r1
     ed0:	6c180033 	ldcvs	0, cr0, [r8], {51}	; 0x33
     ed4:	9e000088 	cdpls	0, 0, cr0, cr0, cr8, {4}
     ed8:	1400000a 	strne	r0, [r0], #-10
     edc:	19000003 	stmdbne	r0, {r0, r1}
     ee0:	03055001 	movweq	r5, #20481	; 0x5001
     ee4:	000095dc 	ldrdeq	r9, [r0], -ip
     ee8:	02510119 	subseq	r0, r1, #1073741830	; 0x40000006
     eec:	18000077 	stmdane	r0, {r0, r1, r2, r4, r5, r6}
     ef0:	00008878 	andeq	r8, r0, r8, ror r8
     ef4:	00000a9e 	muleq	r0, lr, sl
     ef8:	00000331 	andeq	r0, r0, r1, lsr r3
     efc:	05500119 	ldrbeq	r0, [r0, #-281]	; 0xfffffee7
     f00:	0095e403 	addseq	lr, r5, r3, lsl #8
     f04:	51011900 	tstpl	r1, r0, lsl #18
     f08:	00007a02 	andeq	r7, r0, r2, lsl #20
     f0c:	00888818 	addeq	r8, r8, r8, lsl r8
     f10:	000a9200 	andeq	r9, sl, r0, lsl #4
     f14:	00035300 	andeq	r5, r3, r0, lsl #6
     f18:	50011900 	andpl	r1, r1, r0, lsl #18
     f1c:	19007602 	stmdbne	r0, {r1, r9, sl, ip, sp, lr}
     f20:	03055101 	movweq	r5, #20737	; 0x5101
     f24:	000095d4 	ldrdeq	r9, [r0], -r4
     f28:	01520119 	cmpeq	r2, r9, lsl r1
     f2c:	a0180033 	andsge	r0, r8, r3, lsr r0
     f30:	92000088 	andls	r0, r0, #136, 0	; 0x88
     f34:	7500000a 	strvc	r0, [r0, #-10]
     f38:	19000003 	stmdbne	r0, {r0, r1}
     f3c:	76025001 	strvc	r5, [r2], -r1
     f40:	51011900 	tstpl	r1, r0, lsl #18
     f44:	95d80305 	ldrbls	r0, [r8, #773]	; 0x305
     f48:	01190000 	tsteq	r9, r0
     f4c:	00330152 	eorseq	r0, r3, r2, asr r1
     f50:	0088c818 	addeq	ip, r8, r8, lsl r8
     f54:	00074200 	andeq	r4, r7, r0, lsl #4
     f58:	0003a900 	andeq	sl, r3, r0, lsl #18
     f5c:	50011900 	andpl	r1, r1, r0, lsl #18
     f60:	01193a01 	tsteq	r9, r1, lsl #20
     f64:	d0910351 	addsle	r0, r1, r1, asr r3
     f68:	5201197d 	andpl	r1, r1, #2048000	; 0x1f4000
     f6c:	19800802 	stmibne	r0, {r1, fp}
     f70:	77025301 	strvc	r5, [r2, -r1, lsl #6]
     f74:	7d021900 	vstrvc.16	s2, [r2, #-0]	; <UNPREDICTABLE>
     f78:	00750200 	rsbseq	r0, r5, r0, lsl #4
     f7c:	047d0219 	ldrbteq	r0, [sp], #-537	; 0xfffffde7
     f80:	00007602 	andeq	r7, r0, r2, lsl #12
     f84:	0088e818 	addeq	lr, r8, r8, lsl r8
     f88:	00074200 	andeq	r4, r7, r0, lsl #4
     f8c:	0003dd00 	andeq	sp, r3, r0, lsl #26
     f90:	50011900 	andpl	r1, r1, r0, lsl #18
     f94:	01193a01 	tsteq	r9, r1, lsl #20
     f98:	d0910351 	addsle	r0, r1, r1, asr r3
     f9c:	5201197e 	andpl	r1, r1, #2064384	; 0x1f8000
     fa0:	19800802 	stmibne	r0, {r1, fp}
     fa4:	7a025301 	bvc	95bb0 <__bss_end__+0x8be90>
     fa8:	7d021900 	vstrvc.16	s2, [r2, #-0]	; <UNPREDICTABLE>
     fac:	00750200 	rsbseq	r0, r5, r0, lsl #4
     fb0:	047d0219 	ldrbteq	r0, [sp], #-537	; 0xfffffde7
     fb4:	00007602 	andeq	r7, r0, r2, lsl #12
     fb8:	0088f418 	addeq	pc, r8, r8, lsl r4	; <UNPREDICTABLE>
     fbc:	000aaa00 	andeq	sl, sl, r0, lsl #20
     fc0:	0003fb00 	andeq	pc, r3, r0, lsl #22
     fc4:	50011900 	andpl	r1, r1, r0, lsl #18
     fc8:	7dd09103 	ldfvcp	f1, [r0, #12]
     fcc:	05510119 	ldrbeq	r0, [r1, #-281]	; 0xfffffee7
     fd0:	00959803 	addseq	r9, r5, r3, lsl #16
     fd4:	08180000 	ldmdaeq	r8, {}	; <UNPREDICTABLE>
     fd8:	b6000089 	strlt	r0, [r0], -r9, lsl #1
     fdc:	1700000a 	strne	r0, [r0, -sl]
     fe0:	19000004 	stmdbne	r0, {r2}
     fe4:	91035001 	tstls	r3, r1
     fe8:	01197dd0 			; <UNDEFINED> instruction: 0x01197dd0
     fec:	d0910351 	addsle	r0, r1, r1, asr r3
     ff0:	2c18007e 	ldccs	0, cr0, [r8], {126}	; 0x7e
     ff4:	9e000089 	cdpls	0, 0, cr0, cr0, cr9, {4}
     ff8:	5000000a 	andpl	r0, r0, sl
     ffc:	19000004 	stmdbne	r0, {r2}
    1000:	03055001 	movweq	r5, #20481	; 0x5001
    1004:	00009504 	andeq	r9, r0, r4, lsl #10
    1008:	05510119 	ldrbeq	r0, [r1, #-281]	; 0xfffffee7
    100c:	00958403 	addseq	r8, r5, r3, lsl #8
    1010:	52011900 	andpl	r1, r1, #0, 18
    1014:	96e00305 	strbtls	r0, [r0], r5, lsl #6
    1018:	01190000 	tsteq	r9, r0
    101c:	9f080253 	svcls	0x00080253
    1020:	007d0219 	rsbseq	r0, sp, r9, lsl r2
    1024:	95ec0305 	strbls	r0, [ip, #773]!	; 0x305
    1028:	1a000000 	bne	1030 <__code_start__-0x6fd0>
    102c:	00008930 	andeq	r8, r0, r0, lsr r9
    1030:	00000ac2 	andeq	r0, r0, r2, asr #21
    1034:	00895018 	addeq	r5, r9, r8, lsl r0
    1038:	00074200 	andeq	r4, r7, r0, lsl #4
    103c:	00048d00 	andeq	r8, r4, r0, lsl #26
    1040:	50011900 	andpl	r1, r1, r0, lsl #18
    1044:	01194001 	tsteq	r9, r1
    1048:	d0910351 	addsle	r0, r1, r1, asr r3
    104c:	5201197d 	andpl	r1, r1, #2048000	; 0x1f4000
    1050:	19800802 	stmibne	r0, {r1, fp}
    1054:	77025301 	strvc	r5, [r2, -r1, lsl #6]
    1058:	7d021900 	vstrvc.16	s2, [r2, #-0]	; <UNPREDICTABLE>
    105c:	00750200 	rsbseq	r0, r5, r0, lsl #4
    1060:	047d0219 	ldrbteq	r0, [sp], #-537	; 0xfffffde7
    1064:	00007602 	andeq	r7, r0, r2, lsl #12
    1068:	00897018 	addeq	r7, r9, r8, lsl r0
    106c:	00074200 	andeq	r4, r7, r0, lsl #4
    1070:	0004c100 	andeq	ip, r4, r0, lsl #2
    1074:	50011900 	andpl	r1, r1, r0, lsl #18
    1078:	01194001 	tsteq	r9, r1
    107c:	d0910351 	addsle	r0, r1, r1, asr r3
    1080:	5201197e 	andpl	r1, r1, #2064384	; 0x1f8000
    1084:	19800802 	stmibne	r0, {r1, fp}
    1088:	7a025301 	bvc	95c94 <__bss_end__+0x8bf74>
    108c:	7d021900 	vstrvc.16	s2, [r2, #-0]	; <UNPREDICTABLE>
    1090:	00750200 	rsbseq	r0, r5, r0, lsl #4
    1094:	047d0219 	ldrbteq	r0, [sp], #-537	; 0xfffffde7
    1098:	00007602 	andeq	r7, r0, r2, lsl #12
    109c:	00897c18 	addeq	r7, r9, r8, lsl ip
    10a0:	000ace00 	andeq	ip, sl, r0, lsl #28
    10a4:	0004dd00 	andeq	sp, r4, r0, lsl #26
    10a8:	50011900 	andpl	r1, r1, r0, lsl #18
    10ac:	7dd09103 	ldfvcp	f1, [r0, #12]
    10b0:	03510119 	cmpeq	r1, #1073741830	; 0x40000006
    10b4:	007ed291 			; <UNDEFINED> instruction: 0x007ed291
    10b8:	00899018 	addeq	r9, r9, r8, lsl r0
    10bc:	000ace00 	andeq	ip, sl, r0, lsl #28
    10c0:	0004f900 	andeq	pc, r4, r0, lsl #18
    10c4:	50011900 	andpl	r1, r1, r0, lsl #18
    10c8:	7dd09103 	ldfvcp	f1, [r0, #12]
    10cc:	03510119 	cmpeq	r1, #1073741830	; 0x40000006
    10d0:	007ed091 			; <UNDEFINED> instruction: 0x007ed091
    10d4:	0089b018 	addeq	fp, r9, r8, lsl r0
    10d8:	000a9e00 	andeq	r9, sl, r0, lsl #28
    10dc:	00052f00 	andeq	r2, r5, r0, lsl #30
    10e0:	50011900 	andpl	r1, r1, r0, lsl #18
    10e4:	96280305 	strtls	r0, [r8], -r5, lsl #6
    10e8:	01190000 	tsteq	r9, r0
    10ec:	84030551 	strhi	r0, [r3], #-1361	; 0xfffffaaf
    10f0:	19000095 	stmdbne	r0, {r0, r2, r4, r7}
    10f4:	03055201 	movweq	r5, #20993	; 0x5201
    10f8:	000096e0 	andeq	r9, r0, r0, ror #13
    10fc:	02530119 	subseq	r0, r3, #1073741830	; 0x40000006
    1100:	0219b608 	andseq	fp, r9, #8, 12	; 0x800000
    1104:	7602007d 			; <UNDEFINED> instruction: 0x7602007d
    1108:	b41a0000 	ldrlt	r0, [sl], #-0
    110c:	c2000089 	andgt	r0, r0, #137, 0	; 0x89
    1110:	0000000a 	andeq	r0, r0, sl
    1114:	00876018 	addeq	r6, r7, r8, lsl r0
    1118:	0009c000 	andeq	ip, r9, r0
    111c:	00054d00 	andeq	r4, r5, r0, lsl #26
    1120:	50011900 	andpl	r1, r1, r0, lsl #18
    1124:	00007702 	andeq	r7, r0, r2, lsl #14
    1128:	00880c18 	addeq	r0, r8, r8, lsl ip
    112c:	000a9e00 	andeq	r9, sl, r0, lsl #28
    1130:	00058600 	andeq	r8, r5, r0, lsl #12
    1134:	50011900 	andpl	r1, r1, r0, lsl #18
    1138:	95040305 	strls	r0, [r4, #-773]	; 0xfffffcfb
    113c:	01190000 	tsteq	r9, r0
    1140:	84030551 	strhi	r0, [r3], #-1361	; 0xfffffaaf
    1144:	19000095 	stmdbne	r0, {r0, r2, r4, r7}
    1148:	03055201 	movweq	r5, #20993	; 0x5201
    114c:	000096e0 	andeq	r9, r0, r0, ror #13
    1150:	02530119 	subseq	r0, r3, #1073741830	; 0x40000006
    1154:	02199808 	andseq	r9, r9, #8, 16	; 0x80000
    1158:	0305007d 	movweq	r0, #20605	; 0x507d
    115c:	000095c8 	andeq	r9, r0, r8, asr #11
    1160:	88101a00 	ldmdahi	r0, {r9, fp, ip}
    1164:	0ac20000 	beq	ff08116c <__bss_end__+0xff07744c>
    1168:	c8180000 	ldmdagt	r8, {}	; <UNPREDICTABLE>
    116c:	9e000089 	cdpls	0, 0, cr0, cr0, cr9, {4}
    1170:	be00000a 	cdplt	0, 0, cr0, cr0, cr10, {0}
    1174:	19000005 	stmdbne	r0, {r0, r2}
    1178:	03055001 	movweq	r5, #20481	; 0x5001
    117c:	00009650 	andeq	r9, r0, r0, asr r6
    1180:	05510119 	ldrbeq	r0, [r1, #-281]	; 0xfffffee7
    1184:	00958403 	addseq	r8, r5, r3, lsl #8
    1188:	52011900 	andpl	r1, r1, #0, 18
    118c:	96e00305 	strbtls	r0, [r0], r5, lsl #6
    1190:	01190000 	tsteq	r9, r0
    1194:	be080253 	mcrlt	2, 0, r0, cr8, cr3, {2}
    1198:	89cc1a00 	stmibhi	ip, {r9, fp, ip}^
    119c:	0ac20000 	beq	ff0811a4 <__bss_end__+0xff077484>
    11a0:	f8180000 			; <UNDEFINED> instruction: 0xf8180000
    11a4:	42000089 	andmi	r0, r0, #137, 0	; 0x89
    11a8:	f4000007 	vst4.8	{d0-d3}, [r0], r7
    11ac:	19000005 	stmdbne	r0, {r0, r2}
    11b0:	3a015001 	bcc	551bc <__bss_end__+0x4b49c>
    11b4:	03510119 	cmpeq	r1, #1073741830	; 0x40000006
    11b8:	197dd091 	ldmdbne	sp!, {r0, r4, r7, ip, lr, pc}^
    11bc:	08025201 	stmdaeq	r2, {r0, r9, ip, lr}
    11c0:	7d021980 	vstrvc.16	s2, [r2, #-256]	; 0xffffff00	; <UNPREDICTABLE>
    11c4:	00750200 	rsbseq	r0, r5, r0, lsl #4
    11c8:	047d0219 	ldrbteq	r0, [sp], #-537	; 0xfffffde7
    11cc:	18003101 	stmdane	r0, {r0, r8, ip, sp}
    11d0:	00008a30 	andeq	r8, r0, r0, lsr sl
    11d4:	00000742 	andeq	r0, r0, r2, asr #14
    11d8:	00000621 	andeq	r0, r0, r1, lsr #12
    11dc:	01500119 	cmpeq	r0, r9, lsl r1
    11e0:	5101193a 	tstpl	r1, sl, lsr r9
    11e4:	7dd09103 	ldfvcp	f1, [r0, #12]
    11e8:	02520119 	subseq	r0, r2, #1073741830	; 0x40000006
    11ec:	02198008 	andseq	r8, r9, #8, 0
    11f0:	7502007d 	strvc	r0, [r2, #-125]	; 0xffffff83
    11f4:	7d021900 	vstrvc.16	s2, [r2, #-0]	; <UNPREDICTABLE>
    11f8:	00300104 	eorseq	r0, r0, r4, lsl #2
    11fc:	008a6418 	addeq	r6, sl, r8, lsl r4
    1200:	00074200 	andeq	r4, r7, r0, lsl #4
    1204:	00064e00 	andeq	r4, r6, r0, lsl #28
    1208:	50011900 	andpl	r1, r1, r0, lsl #18
    120c:	01194001 	tsteq	r9, r1
    1210:	d0910351 	addsle	r0, r1, r1, asr r3
    1214:	5201197d 	andpl	r1, r1, #2048000	; 0x1f4000
    1218:	19800802 	stmibne	r0, {r1, fp}
    121c:	02007d02 	andeq	r7, r0, #128	; 0x80
    1220:	02190075 	andseq	r0, r9, #117, 0	; 0x75
    1224:	3001047d 	andcc	r0, r1, sp, ror r4
    1228:	8a981800 	bhi	fe607230 <__bss_end__+0xfe5fd510>
    122c:	07420000 	strbeq	r0, [r2, -r0]
    1230:	067b0000 	ldrbteq	r0, [fp], -r0
    1234:	01190000 	tsteq	r9, r0
    1238:	19320150 	ldmdbne	r2!, {r4, r6, r8}
    123c:	91035101 	tstls	r3, r1, lsl #2
    1240:	01197dd0 			; <UNDEFINED> instruction: 0x01197dd0
    1244:	80080252 	andhi	r0, r8, r2, asr r2
    1248:	007d0219 	rsbseq	r0, sp, r9, lsl r2
    124c:	19007502 	stmdbne	r0, {r1, r8, sl, ip, sp, lr}
    1250:	01047d02 	tsteq	r4, r2, lsl #26
    1254:	e0180030 	ands	r0, r8, r0, lsr r0
    1258:	4200008a 	andmi	r0, r0, #138, 0	; 0x8a
    125c:	a8000007 	stmdage	r0, {r0, r1, r2}
    1260:	19000006 	stmdbne	r0, {r1, r2}
    1264:	38015001 	stmdacc	r1, {r0, ip, lr}
    1268:	03510119 	cmpeq	r1, #1073741830	; 0x40000006
    126c:	197dd091 	ldmdbne	sp!, {r0, r4, r7, ip, lr, pc}^
    1270:	08025201 	stmdaeq	r2, {r0, r9, ip, lr}
    1274:	7d021980 	vstrvc.16	s2, [r2, #-256]	; 0xffffff00	; <UNPREDICTABLE>
    1278:	00750200 	rsbseq	r0, r5, r0, lsl #4
    127c:	047d0219 	ldrbteq	r0, [sp], #-537	; 0xfffffde7
    1280:	18003001 	stmdane	r0, {r0, ip, sp}
    1284:	00008b00 	andeq	r8, r0, r0, lsl #22
    1288:	00000a9e 	muleq	r0, lr, sl
    128c:	000006cb 	andeq	r0, r0, fp, asr #13
    1290:	05500119 	ldrbeq	r0, [r0, #-281]	; 0xfffffee7
    1294:	00967803 	addseq	r7, r6, r3, lsl #16
    1298:	51011900 	tstpl	r1, r0, lsl #18
    129c:	19007a02 	stmdbne	r0, {r1, r9, fp, ip, sp, lr}
    12a0:	7a025201 	bvc	95aac <__bss_end__+0x8bd8c>
    12a4:	101b0000 	andsne	r0, fp, r0
    12a8:	dd00008b 	stcle	0, cr0, [r0, #-556]	; 0xfffffdd4
    12ac:	19000006 	stmdbne	r0, {r1, r2}
    12b0:	91045001 	tstls	r4, r1
    12b4:	00067dc8 	andeq	r7, r6, r8, asr #27
    12b8:	008b2418 	addeq	r2, fp, r8, lsl r4
    12bc:	000a9e00 	andeq	r9, sl, r0, lsl #28
    12c0:	00070c00 	andeq	r0, r7, r0, lsl #24
    12c4:	50011900 	andpl	r1, r1, r0, lsl #18
    12c8:	96a80305 	strtls	r0, [r8], r5, lsl #6
    12cc:	01190000 	tsteq	r9, r0
    12d0:	84030551 	strhi	r0, [r3], #-1361	; 0xfffffaaf
    12d4:	19000095 	stmdbne	r0, {r0, r2, r4, r7}
    12d8:	03055201 	movweq	r5, #20993	; 0x5201
    12dc:	000096e0 	andeq	r9, r0, r0, ror #13
    12e0:	02530119 	subseq	r0, r3, #1073741830	; 0x40000006
    12e4:	1a00e208 	bne	39b0c <__bss_end__+0x2fdec>
    12e8:	00008b28 	andeq	r8, r0, r8, lsr #22
    12ec:	00000ac2 	andeq	r0, r0, r2, asr #21
    12f0:	04080000 	streq	r0, [r8], #-0
    12f4:	000000b9 	strheq	r0, [r0], -r9
    12f8:	0000c01c 	andeq	ip, r0, ip, lsl r0
    12fc:	00072d00 	andeq	r2, r7, r0, lsl #26
    1300:	002c1d00 	eoreq	r1, ip, r0, lsl #26
    1304:	00090000 	andeq	r0, r9, r0
    1308:	00071d09 	andeq	r1, r7, r9, lsl #26
    130c:	00b91c00 	adcseq	r1, r9, r0, lsl #24
    1310:	07420000 	strbeq	r0, [r2, -r0]
    1314:	2c1d0000 	ldccs	0, cr0, [sp], {-0}
    1318:	7f000000 	svcvc	0x00000000
    131c:	04ad1e00 	strteq	r1, [sp], #3584	; 0xe00
    1320:	49010000 	stmdbmi	r1, {}	; <UNPREDICTABLE>
    1324:	00071701 	andeq	r1, r7, r1, lsl #14
    1328:	0084c800 	addeq	ip, r4, r0, lsl #16
    132c:	0001b400 	andeq	fp, r1, r0, lsl #8
    1330:	ab9c0100 	blge	fe701738 <__bss_end__+0xfe6f7a18>
    1334:	1f000008 	svcne	0x00000008
    1338:	00000218 	andeq	r0, r0, r8, lsl r2
    133c:	2c0f4901 			; <UNDEFINED> instruction: 0x2c0f4901
    1340:	bb000000 	bllt	1348 <__code_start__-0x6cb8>
    1344:	b5000006 	strlt	r0, [r0, #-6]
    1348:	0e000006 	cdpeq	0, 0, cr0, cr0, cr6, {0}
    134c:	00747364 	rsbseq	r7, r4, r4, ror #6
    1350:	171b4901 	ldrne	r4, [fp, -r1, lsl #18]
    1354:	f9000007 			; <UNDEFINED> instruction: 0xf9000007
    1358:	e9000006 	stmdb	r0, {r1, r2}
    135c:	0e000006 	cdpeq	0, 0, cr0, cr0, cr6, {0}
    1360:	4901006e 	stmdbmi	r1, {r1, r2, r3, r5, r6}
    1364:	00002524 	andeq	r2, r0, r4, lsr #10
    1368:	00075d00 	andeq	r5, r7, r0, lsl #26
    136c:	00075900 	andeq	r5, r7, r0, lsl #18
    1370:	61760e00 	cmnvs	r6, r0, lsl #28
    1374:	4901006c 	stmdbmi	r1, {r2, r3, r5, r6}
    1378:	0000252b 	andeq	r2, r0, fp, lsr #10
    137c:	00078700 	andeq	r8, r7, r0, lsl #14
    1380:	00077b00 	andeq	r7, r7, r0, lsl #22
    1384:	043b1f00 	ldrteq	r1, [fp], #-3840	; 0xfffff100
    1388:	49010000 	stmdbmi	r1, {}	; <UNPREDICTABLE>
    138c:	00002534 	andeq	r2, r0, r4, lsr r5
    1390:	0007dd00 	andeq	sp, r7, r0, lsl #26
    1394:	0007d700 	andeq	sp, r7, r0, lsl #14
    1398:	04f90f00 	ldrbteq	r0, [r9], #3840	; 0xf00
    139c:	49010000 	stmdbmi	r1, {}	; <UNPREDICTABLE>
    13a0:	0000253f 	andeq	r2, r0, pc, lsr r5
    13a4:	04910200 	ldreq	r0, [r1], #512	; 0x200
    13a8:	66756214 			; <UNDEFINED> instruction: 0x66756214
    13ac:	074e0100 	strbeq	r0, [lr, -r0, lsl #2]
    13b0:	000008ab 	andeq	r0, r0, fp, lsr #17
    13b4:	7fa89103 	svcvc	0x00a89103
    13b8:	01007010 	tsteq	r0, r0, lsl r0
    13bc:	0717114e 	ldreq	r1, [r7, -lr, asr #2]
    13c0:	08270000 	stmdaeq	r7!, {}	; <UNPREDICTABLE>
    13c4:	08070000 	stmdaeq	r7, {}	; <UNPREDICTABLE>
    13c8:	75100000 	ldrvc	r0, [r0, #-0]
    13cc:	0b4f0100 	bleq	13c17d4 <__bss_end__+0x13b7ab4>
    13d0:	0000002c 	andeq	r0, r0, ip, lsr #32
    13d4:	0000090d 	andeq	r0, r0, sp, lsl #18
    13d8:	000008f9 	strdeq	r0, [r0], -r9
    13dc:	00004312 	andeq	r4, r0, r2, lsl r3
    13e0:	0008cb00 	andeq	ip, r8, r0, lsl #22
    13e4:	c8030500 	stmdagt	r3, {r8, sl}
    13e8:	16000096 			; <UNDEFINED> instruction: 0x16000096
    13ec:	00008534 	andeq	r8, r0, r4, lsr r5
    13f0:	00000078 	andeq	r0, r0, r8, ror r0
    13f4:	00000832 	andeq	r0, r0, r2, lsr r8
    13f8:	00049a11 	andeq	r9, r4, r1, lsl sl
    13fc:	0d540100 	ldfeqe	f0, [r4, #-0]
    1400:	0000002c 	andeq	r0, r0, ip, lsr #32
    1404:	0000098e 	andeq	r0, r0, lr, lsl #19
    1408:	00000986 	andeq	r0, r0, r6, lsl #19
    140c:	85ec1800 	strbhi	r1, [ip, #2048]!	; 0x800
    1410:	095d0000 	ldmdbeq	sp, {}^	; <UNPREDICTABLE>
    1414:	08470000 	stmdaeq	r7, {}^	; <UNPREDICTABLE>
    1418:	01190000 	tsteq	r9, r0
    141c:	a0910351 	addsge	r0, r1, r1, asr r3
    1420:	0018007f 	andseq	r0, r8, pc, ror r0
    1424:	d0000086 	andle	r0, r0, r6, lsl #1
    1428:	68000008 	stmdavs	r0, {r3}
    142c:	19000008 	stmdbne	r0, {r3}
    1430:	75025001 	strvc	r5, [r2, #-1]
    1434:	51011900 	tstpl	r1, r0, lsl #18
    1438:	19007402 	stmdbne	r0, {r1, sl, ip, sp, lr}
    143c:	91035301 	tstls	r3, r1, lsl #6
    1440:	18007fa0 	stmdane	r0, {r5, r7, r8, r9, sl, fp, ip, sp, lr}
    1444:	00008658 	andeq	r8, r0, r8, asr r6
    1448:	00000a9e 	muleq	r0, lr, sl
    144c:	000008a1 	andeq	r0, r0, r1, lsr #17
    1450:	05500119 	ldrbeq	r0, [r0, #-281]	; 0xfffffee7
    1454:	00950403 	addseq	r0, r5, r3, lsl #8
    1458:	51011900 	tstpl	r1, r0, lsl #18
    145c:	95840305 	strls	r0, [r4, #773]	; 0x305
    1460:	01190000 	tsteq	r9, r0
    1464:	c8030552 	stmdagt	r3, {r1, r4, r6, r8, sl}
    1468:	19000096 	stmdbne	r0, {r1, r2, r4, r7}
    146c:	08025301 	stmdaeq	r2, {r0, r8, r9, ip, lr}
    1470:	7d021979 	vstrvc.16	s2, [r2, #-242]	; 0xffffff0e	; <UNPREDICTABLE>
    1474:	98030500 	stmdals	r3, {r8, sl}
    1478:	00000095 	muleq	r0, r5, r0
    147c:	00865c1a 	addeq	r5, r6, sl, lsl ip
    1480:	000ac200 	andeq	ip, sl, r0, lsl #4
    1484:	b91c0000 	ldmdblt	ip, {}	; <UNPREDICTABLE>
    1488:	bb000000 	bllt	1490 <__code_start__-0x6b70>
    148c:	1d000008 	stcne	0, cr0, [r0, #-32]	; 0xffffffe0
    1490:	0000002c 	andeq	r0, r0, ip, lsr #32
    1494:	c01c003f 	andsgt	r0, ip, pc, lsr r0
    1498:	cb000000 	blgt	14a0 <__code_start__-0x6b60>
    149c:	1d000008 	stcne	0, cr0, [r0, #-32]	; 0xffffffe0
    14a0:	0000002c 	andeq	r0, r0, ip, lsr #32
    14a4:	bb090004 	bllt	2414bc <__bss_end__+0x23779c>
    14a8:	1e000008 	cdpne	0, 0, cr0, cr0, cr8, {0}
    14ac:	000004ba 			; <UNDEFINED> instruction: 0x000004ba
    14b0:	170e3801 	strne	r3, [lr, -r1, lsl #16]
    14b4:	90000007 	andls	r0, r0, r7
    14b8:	38000084 	stmdacc	r0, {r2, r7}
    14bc:	01000000 	mrseq	r0, (UNDEF: 0)
    14c0:	00095d9c 	muleq	r9, ip, sp
    14c4:	73640e00 	cmnvc	r4, #0, 28
    14c8:	38010074 	stmdacc	r1, {r2, r4, r5, r6}
    14cc:	0007171c 	andeq	r1, r7, ip, lsl r7
    14d0:	0009cf00 	andeq	ip, r9, r0, lsl #30
    14d4:	0009c500 	andeq	ip, r9, r0, lsl #10
    14d8:	006e0e00 	rsbeq	r0, lr, r0, lsl #28
    14dc:	25253801 	strcs	r3, [r5, #-2049]!	; 0xfffff7ff
    14e0:	16000000 	strne	r0, [r0], -r0
    14e4:	1200000a 	andne	r0, r0, #10, 0
    14e8:	0e00000a 	cdpeq	0, 0, cr0, cr0, cr10, {0}
    14ec:	38010070 	stmdacc	r1, {r4, r5, r6}
    14f0:	0007172e 	andeq	r1, r7, lr, lsr #14
    14f4:	000a3f00 	andeq	r3, sl, r0, lsl #30
    14f8:	000a3700 	andeq	r3, sl, r0, lsl #14
    14fc:	08891f00 	stmeq	r9, {r8, r9, sl, fp, ip}
    1500:	38010000 	stmdacc	r1, {}	; <UNPREDICTABLE>
    1504:	00071737 	andeq	r1, r7, r7, lsr r7
    1508:	000a7900 	andeq	r7, sl, r0, lsl #18
    150c:	000a7500 	andeq	r7, sl, r0, lsl #10
    1510:	656c1000 	strbvs	r1, [ip, #-0]!
    1514:	3a01006e 	bcc	416d4 <__bss_end__+0x379b4>
    1518:	00002506 	andeq	r2, r0, r6, lsl #10
    151c:	000a9f00 	andeq	r9, sl, r0, lsl #30
    1520:	000a9700 	andeq	r9, sl, r0, lsl #14
    1524:	00731000 	rsbseq	r1, r3, r0
    1528:	17083e01 	strne	r3, [r8, -r1, lsl #28]
    152c:	ed000007 	stc	0, cr0, [r0, #-28]	; 0xffffffe4
    1530:	eb00000a 	bl	1560 <__code_start__-0x6aa0>
    1534:	0000000a 	andeq	r0, r0, sl
    1538:	64617020 	strbtvs	r7, [r1], #-32	; 0xffffffe0
    153c:	0e2e0100 	sufeqe	f0, f6, f0
    1540:	00000717 	andeq	r0, r0, r7, lsl r7
    1544:	0000846c 	andeq	r8, r0, ip, ror #8
    1548:	00000024 	andeq	r0, r0, r4, lsr #32
    154c:	09c09c01 	stmibeq	r0, {r0, sl, fp, ip, pc}^
    1550:	700e0000 	andvc	r0, lr, r0
    1554:	182e0100 	stmdane	lr!, {r8}
    1558:	00000717 	andeq	r0, r0, r7, lsl r7
    155c:	00000b06 	andeq	r0, r0, r6, lsl #22
    1560:	00000b00 	andeq	r0, r0, r0, lsl #22
    1564:	0002181f 	andeq	r1, r2, pc, lsl r8
    1568:	222e0100 	eorcs	r0, lr, #0
    156c:	00000717 	andeq	r0, r0, r7, lsl r7
    1570:	00000b35 	andeq	r0, r0, r5, lsr fp
    1574:	00000b31 	andeq	r0, r0, r1, lsr fp
    1578:	00043b0f 	andeq	r3, r4, pc, lsl #22
    157c:	2c2e0100 	stfcss	f0, [lr], #-0
    1580:	00000025 	andeq	r0, r0, r5, lsr #32
    1584:	6c105201 	lfmvs	f5, 4, [r0], {1}
    1588:	01006e65 	tsteq	r0, r5, ror #28
    158c:	0025062f 	eoreq	r0, r5, pc, lsr #12
    1590:	0b580000 	bleq	1601598 <__bss_end__+0x15f7878>
    1594:	0b560000 	bleq	158159c <__bss_end__+0x157787c>
    1598:	1e000000 	cdpne	0, 0, cr0, cr0, cr0, {0}
    159c:	000003fa 	strdeq	r0, [r0], -sl
    15a0:	250c2701 	strcs	r2, [ip, #-1793]	; 0xfffff8ff
    15a4:	58000000 	stmdapl	r0, {}	; <UNPREDICTABLE>
    15a8:	14000084 	strne	r0, [r0], #-132	; 0xffffff7c
    15ac:	01000000 	mrseq	r0, (UNDEF: 0)
    15b0:	0009ed9c 	muleq	r9, ip, sp
    15b4:	00630e00 	rsbeq	r0, r3, r0, lsl #28
    15b8:	25182701 	ldrcs	r2, [r8, #-1793]	; 0xfffff8ff
    15bc:	71000000 	mrsvc	r0, (UNDEF: 0)
    15c0:	6b00000b 	blvs	15f4 <__code_start__-0x6a0c>
    15c4:	0000000b 	andeq	r0, r0, fp
    15c8:	00047a21 	andeq	r7, r4, r1, lsr #20
    15cc:	061f0100 	ldreq	r0, [pc], -r0, lsl #2
    15d0:	0000867c 	andeq	r8, r0, ip, ror r6
    15d4:	00000064 	andeq	r0, r0, r4, rrx
    15d8:	0a7d9c01 	beq	1f685e4 <__bss_end__+0x1f5e8c4>
    15dc:	4e1f0000 	cdpmi	0, 1, cr0, cr15, cr0, {0}
    15e0:	01000004 	tsteq	r0, r4
    15e4:	009e1b1f 	addseq	r1, lr, pc, lsl fp
    15e8:	0ba30000 	bleq	fe8c15f0 <__bss_end__+0xfe8b78d0>
    15ec:	0b9f0000 	bleq	fe7c15f4 <__bss_end__+0xfe7b78d4>
    15f0:	b21f0000 	andslt	r0, pc, #0, 0
    15f4:	01000004 	tsteq	r0, r4
    15f8:	00d1301f 	sbcseq	r3, r1, pc, lsl r0
    15fc:	0bc80000 	bleq	ff201604 <__bss_end__+0xff1f78e4>
    1600:	0bc40000 	bleq	ff101608 <__bss_end__+0xff0f78e8>
    1604:	43120000 	tstmi	r2, #0, 0
    1608:	8d000000 	stchi	0, cr0, [r0, #-0]
    160c:	0500000a 	streq	r0, [r0, #-10]
    1610:	0096d003 	addseq	sp, r6, r3
    1614:	86c41800 	strbhi	r1, [r4], r0, lsl #16
    1618:	0a9e0000 	beq	fe781620 <__bss_end__+0xfe777900>
    161c:	0a730000 	beq	1cc1624 <__bss_end__+0x1cb7904>
    1620:	01190000 	tsteq	r9, r0
    1624:	04030550 	streq	r0, [r3], #-1360	; 0xfffffab0
    1628:	19000095 	stmdbne	r0, {r0, r2, r4, r7}
    162c:	03055101 	movweq	r5, #20737	; 0x5101
    1630:	00009584 	andeq	r9, r0, r4, lsl #11
    1634:	05520119 	ldrbeq	r0, [r2, #-281]	; 0xfffffee7
    1638:	0096d003 	addseq	sp, r6, r3
    163c:	53011900 	movwpl	r1, #6400	; 0x1900
    1640:	19200802 	stmdbne	r0!, {r1, fp}
    1644:	05007d02 	streq	r7, [r0, #-3330]	; 0xfffff2fe
    1648:	0095c003 	addseq	ip, r5, r3
    164c:	c81a0000 	ldmdagt	sl, {}	; <UNPREDICTABLE>
    1650:	c2000086 	andgt	r0, r0, #134, 0	; 0x86
    1654:	0000000a 	andeq	r0, r0, sl
    1658:	0000c01c 	andeq	ip, r0, ip, lsl r0
    165c:	000a8d00 	andeq	r8, sl, r0, lsl #26
    1660:	002c1d00 	eoreq	r1, ip, r0, lsl #26
    1664:	000e0000 	andeq	r0, lr, r0
    1668:	000a7d09 	andeq	r7, sl, r9, lsl #26
    166c:	04f12200 	ldrbteq	r2, [r1], #512	; 0x200
    1670:	04f10000 	ldrbteq	r0, [r1], #0
    1674:	f0030000 			; <UNDEFINED> instruction: 0xf0030000
    1678:	03282205 			; <UNDEFINED> instruction: 0x03282205
    167c:	03280000 			; <UNDEFINED> instruction: 0x03280000
    1680:	28030000 	stmdacs	r3, {}	; <UNPREDICTABLE>
    1684:	04c92206 	strbeq	r2, [r9], #518	; 0x206
    1688:	04c90000 	strbeq	r0, [r9], #0
    168c:	ef030000 	svc	0x00030000
    1690:	04932205 	ldreq	r2, [r3], #517	; 0x205
    1694:	04930000 	ldreq	r0, [r3], #0
    1698:	f2030000 	vhadd.s8	d0, d3, d0
    169c:	00162207 	andseq	r2, r6, r7, lsl #4
    16a0:	00160000 	andseq	r0, r6, r0
    16a4:	6e030000 	cdpvs	0, 0, cr0, cr3, cr0, {0}
    16a8:	04c22206 	strbeq	r2, [r2], #518	; 0x206
    16ac:	04c20000 	strbeq	r0, [r2], #0
    16b0:	f3030000 	vhadd.u8	d0, d3, d0
    16b4:	012f0007 			; <UNDEFINED> instruction: 0x012f0007
    16b8:	00040000 	andeq	r0, r4, r0
    16bc:	00000927 	andeq	r0, r0, r7, lsr #18
    16c0:	02560104 	subseq	r0, r6, #1
    16c4:	160c0000 	strne	r0, [ip], -r0
    16c8:	5d000005 	stcpl	0, cr0, [r0, #-20]	; 0xffffffec
    16cc:	98000003 	stmdals	r0, {r0, r1}
    16d0:	2c00008b 	stccs	0, cr0, [r0], {139}	; 0x8b
    16d4:	86000000 	strhi	r0, [r0], -r0
    16d8:	0200000e 	andeq	r0, r0, #14, 0
    16dc:	6e690504 	cdpvs	5, 6, cr0, cr9, cr4, {0}
    16e0:	04030074 	streq	r0, [r3], #-116	; 0xffffff8c
    16e4:	00006107 	andeq	r6, r0, r7, lsl #2
    16e8:	06010300 	streq	r0, [r1], -r0, lsl #6
    16ec:	0000000a 	andeq	r0, r0, sl
    16f0:	0d050203 	sfmeq	f0, 4, [r5, #-12]
    16f4:	03000001 	movweq	r0, #1
    16f8:	009b0504 	addseq	r0, fp, r4, lsl #10
    16fc:	08030000 	stmdaeq	r3, {}	; <UNPREDICTABLE>
    1700:	00009605 	andeq	r9, r0, r5, lsl #12
    1704:	08010300 	stmdaeq	r1, {r8, r9}
    1708:	00000008 	andeq	r0, r0, r8
    170c:	23070203 	movwcs	r0, #29187	; 0x7203
    1710:	03000000 	movweq	r0, #0
    1714:	005c0704 	subseq	r0, ip, r4, lsl #14
    1718:	08030000 	stmdaeq	r3, {}	; <UNPREDICTABLE>
    171c:	00005707 	andeq	r5, r0, r7, lsl #14
    1720:	00250400 	eoreq	r0, r5, r0, lsl #8
    1724:	007a0000 	rsbseq	r0, sl, r0
    1728:	25050000 	strcs	r0, [r5, #-0]
    172c:	00000000 	andeq	r0, r0, r0
    1730:	0000a406 	andeq	sl, r0, r6, lsl #8
    1734:	0e1c0200 	cdpeq	2, 1, cr0, cr12, cr0, {0}
    1738:	00000086 	andeq	r0, r0, r6, lsl #1
    173c:	006b0407 	rsbeq	r0, fp, r7, lsl #8
    1740:	25040000 	strcs	r0, [r4, #-0]
    1744:	9b000000 	blls	174c <__code_start__-0x68b4>
    1748:	05000000 	streq	r0, [r0, #-0]
    174c:	0000009b 	muleq	r0, fp, r0
    1750:	a8040700 	stmdage	r4, {r8, r9, sl}
    1754:	03000000 	movweq	r0, #0
    1758:	00110801 	andseq	r0, r1, r1, lsl #16
    175c:	a1080000 	mrsge	r0, (UNDEF: 8)
    1760:	06000000 	streq	r0, [r0], -r0
    1764:	000003e7 	andeq	r0, r0, r7, ror #7
    1768:	b90e2102 	stmdblt	lr, {r1, r8, sp}
    176c:	07000000 	streq	r0, [r0, -r0]
    1770:	00008c04 	andeq	r8, r0, r4, lsl #24
    1774:	00160900 	andseq	r0, r6, r0, lsl #18
    1778:	04010000 	streq	r0, [r1], #-0
    177c:	008b9806 	addeq	r9, fp, r6, lsl #16
    1780:	00002c00 	andeq	r2, r0, r0, lsl #24
    1784:	0e9c0100 	fmleqe	f0, f4, f0
    1788:	0a000001 	beq	1794 <__code_start__-0x686c>
    178c:	00008bac 	andeq	r8, r0, ip, lsr #23
    1790:	000000e8 	andeq	r0, r0, r8, ror #1
    1794:	0550010b 	ldrbeq	r0, [r0, #-267]	; 0xfffffef5
    1798:	0096ec03 	addseq	lr, r6, r3, lsl #24
    179c:	b00c0000 	andlt	r0, ip, r0
    17a0:	0e00008b 	cdpeq	0, 0, cr0, cr0, cr11, {4}
    17a4:	0d000001 	stceq	0, cr0, [r0, #-4]
    17a8:	00008bb8 			; <UNDEFINED> instruction: 0x00008bb8
    17ac:	0000011a 	andeq	r0, r0, sl, lsl r1
    17b0:	00000104 	andeq	r0, r0, r4, lsl #2
    17b4:	0150010b 	cmpeq	r0, fp, lsl #2
    17b8:	bc0c003a 	stclt	0, cr0, [ip], {58}	; 0x3a
    17bc:	2600008b 	strcs	r0, [r0], -fp, lsl #1
    17c0:	00000001 	andeq	r0, r0, r1
    17c4:	0005310e 	andeq	r3, r5, lr, lsl #2
    17c8:	00053100 	andeq	r3, r5, r0, lsl #2
    17cc:	064d0200 	strbeq	r0, [sp], -r0, lsl #4
    17d0:	00050d0e 	andeq	r0, r5, lr, lsl #26
    17d4:	00050d00 	andeq	r0, r5, r0, lsl #26
    17d8:	06580200 	ldrbeq	r0, [r8], -r0, lsl #4
    17dc:	0005020e 	andeq	r0, r5, lr, lsl #4
    17e0:	00050200 	andeq	r0, r5, r0, lsl #4
    17e4:	066b0200 	strbteq	r0, [fp], -r0, lsl #4
    17e8:	00018900 	andeq	r8, r1, r0, lsl #18
    17ec:	e7000400 	str	r0, [r0, -r0, lsl #8]
    17f0:	04000009 	streq	r0, [r0], #-9
    17f4:	00025601 	andeq	r5, r2, r1, lsl #12
    17f8:	05670c00 	strbeq	r0, [r7, #-3072]!	; 0xfffff400
    17fc:	035d0000 	cmpeq	sp, #0, 0
    1800:	8bc40000 	blhi	ff101808 <__bss_end__+0xff0f7ae8>
    1804:	003c0000 	eorseq	r0, ip, r0
    1808:	0f2f0000 	svceq	0x002f0000
    180c:	04020000 	streq	r0, [r2], #-0
    1810:	746e6905 	strbtvc	r6, [lr], #-2309	; 0xfffff6fb
    1814:	07040300 	streq	r0, [r4, -r0, lsl #6]
    1818:	00000061 	andeq	r0, r0, r1, rrx
    181c:	0a060103 	beq	181c30 <__bss_end__+0x177f10>
    1820:	03000000 	movweq	r0, #0
    1824:	010d0502 	tsteq	sp, r2, lsl #10
    1828:	04030000 	streq	r0, [r3], #-0
    182c:	00009b05 	andeq	r9, r0, r5, lsl #22
    1830:	05080300 	streq	r0, [r8, #-768]	; 0xfffffd00
    1834:	00000096 	muleq	r0, r6, r0
    1838:	08080103 	stmdaeq	r8, {r0, r1, r8}
    183c:	03000000 	movweq	r0, #0
    1840:	00230702 	eoreq	r0, r3, r2, lsl #14
    1844:	04030000 	streq	r0, [r3], #-0
    1848:	00005c07 	andeq	r5, r0, r7, lsl #24
    184c:	07080300 	streq	r0, [r8, -r0, lsl #6]
    1850:	00000057 	andeq	r0, r0, r7, asr r0
    1854:	00002504 	andeq	r2, r0, r4, lsl #10
    1858:	00007a00 	andeq	r7, r0, r0, lsl #20
    185c:	00250500 	eoreq	r0, r5, r0, lsl #10
    1860:	06000000 	streq	r0, [r0], -r0
    1864:	000000a4 	andeq	r0, r0, r4, lsr #1
    1868:	860e1c02 	strhi	r1, [lr], -r2, lsl #24
    186c:	07000000 	streq	r0, [r0, -r0]
    1870:	00006b04 	andeq	r6, r0, r4, lsl #22
    1874:	00250400 	eoreq	r0, r5, r0, lsl #8
    1878:	009b0000 	addseq	r0, fp, r0
    187c:	9b050000 	blls	141884 <__bss_end__+0x137b64>
    1880:	00000000 	andeq	r0, r0, r0
    1884:	00a80407 	adceq	r0, r8, r7, lsl #8
    1888:	01030000 	mrseq	r0, (UNDEF: 3)
    188c:	00001108 	andeq	r1, r0, r8, lsl #2
    1890:	00a10800 	adceq	r0, r1, r0, lsl #16
    1894:	e7060000 	str	r0, [r6, -r0]
    1898:	02000003 	andeq	r0, r0, #3, 0
    189c:	00b90e21 	adcseq	r0, r9, r1, lsr #28
    18a0:	04070000 	streq	r0, [r7], #-0
    18a4:	0000008c 	andeq	r0, r0, ip, lsl #1
    18a8:	00053f09 	andeq	r3, r5, r9, lsl #30
    18ac:	06040100 	streq	r0, [r4], -r0, lsl #2
    18b0:	00008bc4 	andeq	r8, r0, r4, asr #23
    18b4:	0000003c 	andeq	r0, r0, ip, lsr r0
    18b8:	01549c01 	cmpeq	r4, r1, lsl #24
    18bc:	2d060000 	stccs	0, cr0, [r6, #-0]
    18c0:	01000004 	tsteq	r0, r4
    18c4:	00251005 	eoreq	r1, r5, r5
    18c8:	56060000 	strpl	r0, [r6], -r0
    18cc:	01000004 	tsteq	r0, r4
    18d0:	00251f05 	eoreq	r1, r5, r5, lsl #30
    18d4:	000a0000 	andeq	r0, sl, r0
    18d8:	01000000 	mrseq	r0, (UNDEF: 0)
    18dc:	620b0706 	andvs	r0, fp, #1572864	; 0x180000
    18e0:	01007373 	tsteq	r0, r3, ror r3
    18e4:	01540a0a 	cmpeq	r4, sl, lsl #20
    18e8:	0bef0000 	bleq	ffbc18f0 <__bss_end__+0xffbb7bd0>
    18ec:	0be90000 	bleq	ffa418f4 <__bss_end__+0xffa37bd4>
    18f0:	470c0000 	strmi	r0, [ip, -r0]
    18f4:	01000005 	tsteq	r0, r5
    18f8:	01540a0b 	cmpeq	r4, fp, lsl #20
    18fc:	e80d0000 	stmda	sp, {}	; <UNPREDICTABLE>
    1900:	0800008b 	stmdaeq	r0, {r0, r1, r3, r7}
    1904:	2f000000 	svccs	0x00000000
    1908:	0e000001 	cdpeq	0, 0, cr0, cr0, cr1, {0}
    190c:	01006e69 	tsteq	r0, r9, ror #28
    1910:	002c0514 	eoreq	r0, ip, r4, lsl r5
    1914:	00010000 	andeq	r0, r1, r0
    1918:	008bcc0f 	addeq	ip, fp, pc, lsl #24
    191c:	00015a00 	andeq	r5, r1, r0, lsl #20
    1920:	8be80f00 	blhi	ffa05528 <__bss_end__+0xff9fb808>
    1924:	01670000 	cmneq	r7, r0
    1928:	f40f0000 	vst4.8	{d0-d3}, [pc], r0
    192c:	7300008b 	movwvc	r0, #139	; 0x8b
    1930:	0f000001 	svceq	0x00000001
    1934:	00008bf8 	strdeq	r8, [r0], -r8	; <UNPREDICTABLE>
    1938:	00000180 	andeq	r0, r0, r0, lsl #3
    193c:	25040700 	strcs	r0, [r4, #-1792]	; 0xfffff900
    1940:	10000000 	andne	r0, r0, r0
    1944:	00000559 	andeq	r0, r0, r9, asr r5
    1948:	00000559 	andeq	r0, r0, r9, asr r5
    194c:	06013602 	streq	r3, [r1], -r2, lsl #12
    1950:	00054f11 	andeq	r4, r5, r1, lsl pc
    1954:	00054f00 	andeq	r4, r5, r0, lsl #30
    1958:	063b0200 	ldrteq	r0, [fp], -r0, lsl #4
    195c:	00000010 	andeq	r0, r0, r0, lsl r0
    1960:	00000000 	andeq	r0, r0, r0
    1964:	010a0200 	mrseq	r0, R10_fiq
    1968:	00161106 	andseq	r1, r6, r6, lsl #2
    196c:	00160000 	andseq	r0, r6, r0
    1970:	6e020000 	cdpvs	0, 0, cr0, cr2, cr0, {0}
    1974:	00ce0006 	sbceq	r0, lr, r6
    1978:	00040000 	andeq	r0, r4, r0
    197c:	00000ae3 	andeq	r0, r0, r3, ror #21
    1980:	02560104 	subseq	r0, r6, #1
    1984:	7c0c0000 	stcvc	0, cr0, [ip], {-0}
    1988:	5d000005 	stcpl	0, cr0, [r0, #-20]	; 0xffffffec
    198c:	00000003 	andeq	r0, r0, r3
    1990:	0400008c 	streq	r0, [r0], #-140	; 0xffffff74
    1994:	f2000000 	vhadd.s8	d0, d0, d0
    1998:	0200000f 	andeq	r0, r0, #15, 0
    199c:	6e690504 	cdpvs	5, 6, cr0, cr9, cr4, {0}
    19a0:	04030074 	streq	r0, [r3], #-116	; 0xffffff8c
    19a4:	00006107 	andeq	r6, r0, r7, lsl #2
    19a8:	06010300 	streq	r0, [r1], -r0, lsl #6
    19ac:	0000000a 	andeq	r0, r0, sl
    19b0:	0d050203 	sfmeq	f0, 4, [r5, #-12]
    19b4:	03000001 	movweq	r0, #1
    19b8:	009b0504 	addseq	r0, fp, r4, lsl #10
    19bc:	08030000 	stmdaeq	r3, {}	; <UNPREDICTABLE>
    19c0:	00009605 	andeq	r9, r0, r5, lsl #12
    19c4:	08010300 	stmdaeq	r1, {r8, r9}
    19c8:	00000008 	andeq	r0, r0, r8
    19cc:	23070203 	movwcs	r0, #29187	; 0x7203
    19d0:	03000000 	movweq	r0, #0
    19d4:	005c0704 	subseq	r0, ip, r4, lsl #14
    19d8:	08030000 	stmdaeq	r3, {}	; <UNPREDICTABLE>
    19dc:	00005707 	andeq	r5, r0, r7, lsl #14
    19e0:	00250400 	eoreq	r0, r5, r0, lsl #8
    19e4:	007a0000 	rsbseq	r0, sl, r0
    19e8:	25050000 	strcs	r0, [r5, #-0]
    19ec:	00000000 	andeq	r0, r0, r0
    19f0:	0000a406 	andeq	sl, r0, r6, lsl #8
    19f4:	0e1c0200 	cdpeq	2, 1, cr0, cr12, cr0, {0}
    19f8:	00000086 	andeq	r0, r0, r6, lsl #1
    19fc:	006b0407 	rsbeq	r0, fp, r7, lsl #8
    1a00:	25040000 	strcs	r0, [r4, #-0]
    1a04:	9b000000 	blls	1a0c <__code_start__-0x65f4>
    1a08:	05000000 	streq	r0, [r0, #-0]
    1a0c:	0000009b 	muleq	r0, fp, r0
    1a10:	a8040700 	stmdage	r4, {r8, r9, sl}
    1a14:	03000000 	movweq	r0, #0
    1a18:	00110801 	andseq	r0, r1, r1, lsl #16
    1a1c:	a1080000 	mrsge	r0, (UNDEF: 8)
    1a20:	06000000 	streq	r0, [r0], -r0
    1a24:	000003e7 	andeq	r0, r0, r7, ror #7
    1a28:	b90e2102 	stmdblt	lr, {r1, r8, sp}
    1a2c:	07000000 	streq	r0, [r0, -r0]
    1a30:	00008c04 	andeq	r8, r0, r4, lsl #24
    1a34:	05590900 	ldrbeq	r0, [r9, #-2304]	; 0xfffff700
    1a38:	04010000 	streq	r0, [r1], #-0
    1a3c:	008c0006 	addeq	r0, ip, r6
    1a40:	00000400 	andeq	r0, r0, r0, lsl #8
    1a44:	009c0100 	addseq	r0, ip, r0, lsl #2
    1a48:	00000236 	andeq	r0, r0, r6, lsr r2
    1a4c:	0b5c0004 	bleq	1701a64 <__bss_end__+0x16f7d44>
    1a50:	01040000 	mrseq	r0, (UNDEF: 4)
    1a54:	00000256 	andeq	r0, r0, r6, asr r2
    1a58:	0005c40c 	andeq	ip, r5, ip, lsl #8
    1a5c:	00035d00 	andeq	r5, r3, r0, lsl #26
    1a60:	00003000 	andeq	r3, r0, r0
    1a64:	00000000 	andeq	r0, r0, r0
    1a68:	00109900 	andseq	r9, r0, r0, lsl #18
    1a6c:	05040200 	streq	r0, [r4, #-512]	; 0xfffffe00
    1a70:	00746e69 	rsbseq	r6, r4, r9, ror #28
    1a74:	00002503 	andeq	r2, r0, r3, lsl #10
    1a78:	07040400 	streq	r0, [r4, -r0, lsl #8]
    1a7c:	00000061 	andeq	r0, r0, r1, rrx
    1a80:	0a060104 	beq	181e98 <__bss_end__+0x178178>
    1a84:	04000000 	streq	r0, [r0], #-0
    1a88:	010d0502 	tsteq	sp, r2, lsl #10
    1a8c:	04040000 	streq	r0, [r4], #-0
    1a90:	00009b05 	andeq	r9, r0, r5, lsl #22
    1a94:	05080400 	streq	r0, [r8, #-1024]	; 0xfffffc00
    1a98:	00000096 	muleq	r0, r6, r0
    1a9c:	08080104 	stmdaeq	r8, {r2, r8}
    1aa0:	04000000 	streq	r0, [r0], #-0
    1aa4:	00230702 	eoreq	r0, r3, r2, lsl #14
    1aa8:	04040000 	streq	r0, [r4], #-0
    1aac:	00005c07 	andeq	r5, r0, r7, lsl #24
    1ab0:	07080400 	streq	r0, [r8, -r0, lsl #8]
    1ab4:	00000057 	andeq	r0, r0, r7, asr r0
    1ab8:	00002505 	andeq	r2, r0, r5, lsl #10
    1abc:	00007f00 	andeq	r7, r0, r0, lsl #30
    1ac0:	00250600 	eoreq	r0, r5, r0, lsl #12
    1ac4:	07000000 	streq	r0, [r0, -r0]
    1ac8:	000000a4 	andeq	r0, r0, r4, lsr #1
    1acc:	8b0e1c02 	blhi	388adc <__bss_end__+0x37edbc>
    1ad0:	08000000 	stmdaeq	r0, {}	; <UNPREDICTABLE>
    1ad4:	00007004 	andeq	r7, r0, r4
    1ad8:	00250500 	eoreq	r0, r5, r0, lsl #10
    1adc:	00a00000 	adceq	r0, r0, r0
    1ae0:	a0060000 	andge	r0, r6, r0
    1ae4:	00000000 	andeq	r0, r0, r0
    1ae8:	00ad0408 	adceq	r0, sp, r8, lsl #8
    1aec:	01040000 	mrseq	r0, (UNDEF: 4)
    1af0:	00001108 	andeq	r1, r0, r8, lsl #2
    1af4:	00a60300 	adceq	r0, r6, r0, lsl #6
    1af8:	e7070000 	str	r0, [r7, -r0]
    1afc:	02000003 	andeq	r0, r0, #3, 0
    1b00:	00be0e21 	adcseq	r0, lr, r1, lsr #28
    1b04:	04080000 	streq	r0, [r8], #-0
    1b08:	00000091 	muleq	r0, r1, r0
    1b0c:	0005e809 	andeq	lr, r5, r9, lsl #16
    1b10:	110d0100 	mrsne	r0, (UNDEF: 29)
    1b14:	00000031 	andeq	r0, r0, r1, lsr r0
    1b18:	0005020a 	andeq	r0, r5, sl, lsl #4
    1b1c:	061f0100 	ldreq	r0, [pc], -r0, lsl #2
    1b20:	00008c30 	andeq	r8, r0, r0, lsr ip
    1b24:	00000054 	andeq	r0, r0, r4, asr r0
    1b28:	01ae9c01 			; <UNDEFINED> instruction: 0x01ae9c01
    1b2c:	0c0b0000 	stceq	0, cr0, [fp], {-0}
    1b30:	01000006 	tsteq	r0, r6
    1b34:	002c0f2c 	eoreq	r0, ip, ip, lsr #30
    1b38:	0c1c0000 	ldceq	0, cr0, [ip], {-0}
    1b3c:	0c1a0000 	ldceq	0, cr0, [sl], {-0}
    1b40:	a70b0000 	strge	r0, [fp, -r0]
    1b44:	01000005 	tsteq	r0, r5
    1b48:	002c0f2d 	eoreq	r0, ip, sp, lsr #30
    1b4c:	0c360000 	ldceq	0, cr0, [r6], #-0
    1b50:	0c340000 	ldceq	0, cr0, [r4], #-0
    1b54:	d90b0000 	stmdble	fp, {}	; <UNPREDICTABLE>
    1b58:	01000005 	tsteq	r0, r5
    1b5c:	002c0f2e 	eoreq	r0, ip, lr, lsr #30
    1b60:	0c500000 	mraeq	r0, r0, acc0
    1b64:	0c4e0000 	mareq	acc0, r0, lr
    1b68:	f30b0000 	vhadd.u8	d0, d11, d0
    1b6c:	01000005 	tsteq	r0, r5
    1b70:	002c0f2f 	eoreq	r0, ip, pc, lsr #30
    1b74:	0c690000 	stcleq	0, cr0, [r9], #-0
    1b78:	0c670000 	stcleq	0, cr0, [r7], #-0
    1b7c:	380c0000 	stmdacc	ip, {}	; <UNPREDICTABLE>
    1b80:	d900008c 	stmdble	r0, {r2, r3, r7}
    1b84:	0c000001 	stceq	0, cr0, [r0], {1}
    1b88:	00008c44 	andeq	r8, r0, r4, asr #24
    1b8c:	00000208 	andeq	r0, r0, r8, lsl #4
    1b90:	008c480c 	addeq	r4, ip, ip, lsl #16
    1b94:	00021500 	andeq	r1, r2, r0, lsl #10
    1b98:	8c500d00 	mrrchi	13, 0, r0, r0, cr0	; <UNPREDICTABLE>
    1b9c:	02210000 	eoreq	r0, r1, #0, 0
    1ba0:	01640000 	cmneq	r4, r0
    1ba4:	010e0000 	mrseq	r0, (UNDEF: 14)
    1ba8:	003a0150 	eorseq	r0, sl, r0, asr r1
    1bac:	008c5c0d 	addeq	r5, ip, sp, lsl #24
    1bb0:	00022d00 	andeq	r2, r2, r0, lsl #26
    1bb4:	00018400 	andeq	r8, r1, r0, lsl #8
    1bb8:	50010e00 	andpl	r0, r1, r0, lsl #28
    1bbc:	00240c05 	eoreq	r0, r4, r5, lsl #24
    1bc0:	010e2010 	tsteq	lr, r0, lsl r0
    1bc4:	010c0551 	tsteq	ip, r1, asr r5
    1bc8:	005a0000 	subseq	r0, sl, r0
    1bcc:	008c680d 	addeq	r6, ip, sp, lsl #16
    1bd0:	00022d00 	andeq	r2, r2, r0, lsl #26
    1bd4:	0001a400 	andeq	sl, r1, r0, lsl #8
    1bd8:	50010e00 	andpl	r0, r1, r0, lsl #28
    1bdc:	001c0c05 	andseq	r0, ip, r5, lsl #24
    1be0:	010e2010 	tsteq	lr, r0, lsl r0
    1be4:	200c0551 	andcs	r0, ip, r1, asr r5
    1be8:	005a0000 	subseq	r0, sl, r0
    1bec:	008c700c 	addeq	r7, ip, ip
    1bf0:	0001ae00 	andeq	sl, r1, r0, lsl #28
    1bf4:	b50f0000 	strlt	r0, [pc, #-0]	; 1bfc <__code_start__-0x6404>
    1bf8:	01000005 	tsteq	r0, r5
    1bfc:	8c1c0617 	ldchi	6, cr0, [ip], {23}
    1c00:	00140000 	andseq	r0, r4, r0
    1c04:	9c010000 	stcls	0, cr0, [r1], {-0}
    1c08:	000001d9 	ldrdeq	r0, [r0], -r9
    1c0c:	0006140b 	andeq	r1, r6, fp, lsl #8
    1c10:	0e180100 	mufeqe	f0, f0, f0
    1c14:	00000031 	andeq	r0, r0, r1, lsr r0
    1c18:	00000c84 	andeq	r0, r0, r4, lsl #25
    1c1c:	00000c7e 	andeq	r0, r0, lr, ror ip
    1c20:	05e51000 	strbeq	r1, [r5, #0]!
    1c24:	0e010000 	cdpeq	0, 0, cr0, cr1, cr0, {0}
    1c28:	00002505 	andeq	r2, r0, r5, lsl #10
    1c2c:	008c0400 	addeq	r0, ip, r0, lsl #8
    1c30:	00001800 	andeq	r1, r0, r0, lsl #16
    1c34:	089c0100 	ldmeq	ip, {r8}
    1c38:	0b000002 	bleq	1c48 <__code_start__-0x63b8>
    1c3c:	00000614 	andeq	r0, r0, r4, lsl r6
    1c40:	310e0f01 	tstcc	lr, r1, lsl #30
    1c44:	b2000000 	andlt	r0, r0, #0, 0
    1c48:	ae00000c 	cdpge	0, 0, cr0, cr0, cr12, {0}
    1c4c:	0000000c 	andeq	r0, r0, ip
    1c50:	00059811 	andeq	r9, r5, r1, lsl r8
    1c54:	00059800 	andeq	r9, r5, r0, lsl #16
    1c58:	013b0200 	teqeq	fp, r0, lsl #4
    1c5c:	05311206 	ldreq	r1, [r1, #-518]!	; 0xfffffdfa
    1c60:	05310000 	ldreq	r0, [r1, #-0]!
    1c64:	4d020000 	stcmi	0, cr0, [r2, #-0]
    1c68:	050d1206 	streq	r1, [sp, #-518]	; 0xfffffdfa
    1c6c:	050d0000 	streq	r0, [sp, #-0]
    1c70:	58020000 	stmdapl	r2, {}	; <UNPREDICTABLE>
    1c74:	05af1206 	streq	r1, [pc, #518]!	; 1e82 <__code_start__-0x617e>
    1c78:	05af0000 	streq	r0, [pc, #0]!	; 1c80 <__code_start__-0x6380>
    1c7c:	b2020000 	andlt	r0, r2, #0, 0
    1c80:	024d0006 	subeq	r0, sp, #6, 0
    1c84:	00040000 	andeq	r0, r4, r0
    1c88:	00000c81 	andeq	r0, r0, r1, lsl #25
    1c8c:	02560104 	subseq	r0, r6, #1
    1c90:	2f0c0000 	svccs	0x000c0000
    1c94:	5d000006 	stcpl	0, cr0, [r0, #-24]	; 0xffffffe8
    1c98:	84000003 	strhi	r0, [r0], #-3
    1c9c:	8400008c 	strhi	r0, [r0], #-140	; 0xffffff74
    1ca0:	90000000 	andls	r0, r0, r0
    1ca4:	02000011 	andeq	r0, r0, #17, 0
    1ca8:	6e690504 	cdpvs	5, 6, cr0, cr9, cr4, {0}
    1cac:	04030074 	streq	r0, [r3], #-116	; 0xffffff8c
    1cb0:	00006107 	andeq	r6, r0, r7, lsl #2
    1cb4:	06010300 	streq	r0, [r1], -r0, lsl #6
    1cb8:	0000000a 	andeq	r0, r0, sl
    1cbc:	0d050203 	sfmeq	f0, 4, [r5, #-12]
    1cc0:	03000001 	movweq	r0, #1
    1cc4:	009b0504 	addseq	r0, fp, r4, lsl #10
    1cc8:	08030000 	stmdaeq	r3, {}	; <UNPREDICTABLE>
    1ccc:	00009605 	andeq	r9, r0, r5, lsl #12
    1cd0:	08010300 	stmdaeq	r1, {r8, r9}
    1cd4:	00000008 	andeq	r0, r0, r8
    1cd8:	23070203 	movwcs	r0, #29187	; 0x7203
    1cdc:	03000000 	movweq	r0, #0
    1ce0:	005c0704 	subseq	r0, ip, r4, lsl #14
    1ce4:	08030000 	stmdaeq	r3, {}	; <UNPREDICTABLE>
    1ce8:	00005707 	andeq	r5, r0, r7, lsl #14
    1cec:	00250400 	eoreq	r0, r5, r0, lsl #8
    1cf0:	007a0000 	rsbseq	r0, sl, r0
    1cf4:	25050000 	strcs	r0, [r5, #-0]
    1cf8:	00000000 	andeq	r0, r0, r0
    1cfc:	0000a406 	andeq	sl, r0, r6, lsl #8
    1d00:	0e1c0200 	cdpeq	2, 1, cr0, cr12, cr0, {0}
    1d04:	00000086 	andeq	r0, r0, r6, lsl #1
    1d08:	006b0407 	rsbeq	r0, fp, r7, lsl #8
    1d0c:	25040000 	strcs	r0, [r4, #-0]
    1d10:	9b000000 	blls	1d18 <__code_start__-0x62e8>
    1d14:	05000000 	streq	r0, [r0, #-0]
    1d18:	0000009b 	muleq	r0, fp, r0
    1d1c:	a8040700 	stmdage	r4, {r8, r9, sl}
    1d20:	03000000 	movweq	r0, #0
    1d24:	00110801 	andseq	r0, r1, r1, lsl #16
    1d28:	a1080000 	mrsge	r0, (UNDEF: 8)
    1d2c:	06000000 	streq	r0, [r0], -r0
    1d30:	000003e7 	andeq	r0, r0, r7, ror #7
    1d34:	b90e2102 	stmdblt	lr, {r1, r8, sp}
    1d38:	07000000 	streq	r0, [r0, -r0]
    1d3c:	00008c04 	andeq	r8, r0, r4, lsl #24
    1d40:	06250900 	strteq	r0, [r5], -r0, lsl #18
    1d44:	1e010000 	cdpne	0, 0, cr0, cr1, cr0, {0}
    1d48:	008cf006 	addeq	pc, ip, r6
    1d4c:	00001800 	andeq	r1, r0, r0, lsl #16
    1d50:	099c0100 	ldmibeq	ip, {r8}
    1d54:	0a000001 	beq	1d60 <__code_start__-0x62a0>
    1d58:	00636573 	rsbeq	r6, r3, r3, ror r5
    1d5c:	2c191e01 	ldccs	14, cr1, [r9], {1}
    1d60:	d5000000 	strle	r0, [r0, #-0]
    1d64:	d100000c 	tstle	r0, ip
    1d68:	0b00000c 	bleq	1da0 <__code_start__-0x6260>
    1d6c:	00008d04 	andeq	r8, r0, r4, lsl #26
    1d70:	00000109 	andeq	r0, r0, r9, lsl #2
    1d74:	1150010c 	cmpne	r0, ip, lsl #2
    1d78:	355001f3 	ldrbcc	r0, [r0, #-499]	; 0xfffffe0d
    1d7c:	5001f324 	andpl	pc, r1, r4, lsr #6
    1d80:	f324321c 	vqsub.u32	d3, d4, d12
    1d84:	33225001 			; <UNDEFINED> instruction: 0x33225001
    1d88:	09000024 	stmdbeq	r0, {r2, r5}
    1d8c:	0000050d 	andeq	r0, r0, sp, lsl #10
    1d90:	d8061b01 	stmdale	r6, {r0, r8, r9, fp, ip}
    1d94:	1800008c 	stmdane	r0, {r2, r3, r7}
    1d98:	01000000 	mrseq	r0, (UNDEF: 0)
    1d9c:	0001529c 	muleq	r1, ip, r2
    1da0:	736d0a00 	cmnvc	sp, #0, 20
    1da4:	181b0100 	ldmdane	fp, {r8}
    1da8:	0000002c 	andeq	r0, r0, ip, lsr #32
    1dac:	00000cfa 	strdeq	r0, [r0], -sl
    1db0:	00000cf6 	strdeq	r0, [r0], -r6
    1db4:	008cec0b 	addeq	lr, ip, fp, lsl #24
    1db8:	00015200 	andeq	r5, r1, r0, lsl #4
    1dbc:	50010c00 	andpl	r0, r1, r0, lsl #24
    1dc0:	5001f311 	andpl	pc, r1, r1, lsl r3	; <UNPREDICTABLE>
    1dc4:	01f32435 	mvnseq	r2, r5, lsr r4
    1dc8:	24321c50 	ldrtcs	r1, [r2], #-3152	; 0xfffff3b0
    1dcc:	225001f3 	subscs	r0, r0, #-1073741764	; 0xc000003c
    1dd0:	00002433 	andeq	r2, r0, r3, lsr r4
    1dd4:	00065809 	andeq	r5, r6, r9, lsl #16
    1dd8:	06120100 	ldreq	r0, [r2], -r0, lsl #2
    1ddc:	00008cb4 			; <UNDEFINED> instruction: 0x00008cb4
    1de0:	00000024 	andeq	r0, r0, r4, lsr #32
    1de4:	01c29c01 	biceq	r9, r2, r1, lsl #24
    1de8:	750a0000 	strvc	r0, [sl, #-0]
    1dec:	12010073 	andne	r0, r1, #115, 0	; 0x73
    1df0:	00002c18 	andeq	r2, r0, r8, lsl ip
    1df4:	000d1f00 	andeq	r1, sp, r0, lsl #30
    1df8:	000d1b00 	andeq	r1, sp, r0, lsl #22
    1dfc:	62720d00 	rsbsvs	r0, r2, #0, 26
    1e00:	0e130100 	mufeqs	f0, f3, f0
    1e04:	0000002c 	andeq	r0, r0, ip, lsr #32
    1e08:	00000d3f 	andeq	r0, r0, pc, lsr sp
    1e0c:	00000d3d 	andeq	r0, r0, sp, lsr sp
    1e10:	008cc40e 	addeq	ip, ip, lr, lsl #8
    1e14:	00001400 	andeq	r1, r0, r0, lsl #8
    1e18:	0001b800 	andeq	fp, r1, r0, lsl #16
    1e1c:	61720d00 	cmnvs	r2, r0, lsl #26
    1e20:	12150100 	andsne	r0, r5, #0
    1e24:	0000002c 	andeq	r0, r0, ip, lsr #32
    1e28:	00000d54 	andeq	r0, r0, r4, asr sp
    1e2c:	00000d52 	andeq	r0, r0, r2, asr sp
    1e30:	008cc80f 	addeq	ip, ip, pc, lsl #16
    1e34:	0001c200 	andeq	ip, r1, r0, lsl #4
    1e38:	c00f0000 	andgt	r0, pc, r0
    1e3c:	c200008c 	andgt	r0, r0, #140, 0	; 0x8c
    1e40:	00000001 	andeq	r0, r0, r1
    1e44:	00064910 	andeq	r4, r6, r0, lsl r9
    1e48:	0a090100 	beq	242250 <__bss_end__+0x238530>
    1e4c:	0000002c 	andeq	r0, r0, ip, lsr #32
    1e50:	00008c98 	muleq	r0, r8, ip
    1e54:	0000001c 	andeq	r0, r0, ip, lsl r0
    1e58:	020a9c01 	andeq	r9, sl, #256	; 0x100
    1e5c:	750d0000 	strvc	r0, [sp, #-0]
    1e60:	0e0d0100 	adfeqe	f0, f5, f0
    1e64:	0000002c 	andeq	r0, r0, ip, lsr #32
    1e68:	00000d6b 	andeq	r0, r0, fp, ror #26
    1e6c:	00000d67 	andeq	r0, r0, r7, ror #26
    1e70:	008ca00f 	addeq	sl, ip, pc
    1e74:	00023800 	andeq	r3, r2, r0, lsl #16
    1e78:	8ca40f00 	stchi	15, cr0, [r4]
    1e7c:	020a0000 	andeq	r0, sl, #0, 0
    1e80:	ac0f0000 	stcge	0, cr0, [pc], {-0}
    1e84:	3800008c 	stmdacc	r0, {r2, r3, r7}
    1e88:	00000002 	andeq	r0, r0, r2
    1e8c:	00066110 	andeq	r6, r6, r0, lsl r1
    1e90:	0a040100 	beq	102298 <__bss_end__+0xf8578>
    1e94:	0000002c 	andeq	r0, r0, ip, lsr #32
    1e98:	00008c84 	andeq	r8, r0, r4, lsl #25
    1e9c:	00000014 	andeq	r0, r0, r4, lsl r0
    1ea0:	02389c01 	eorseq	r9, r8, #256	; 0x100
    1ea4:	900b0000 	andls	r0, fp, r0
    1ea8:	4400008c 	strmi	r0, [r0], #-140	; 0xffffff74
    1eac:	0c000002 	stceq	0, cr0, [r0], {2}
    1eb0:	0c055001 	stceq	0, cr5, [r5], {1}
    1eb4:	20003004 	andcs	r3, r0, r4
    1eb8:	19110000 	ldmdbne	r1, {}	; <UNPREDICTABLE>
    1ebc:	19000006 	stmdbne	r0, {r1, r2}
    1ec0:	02000006 	andeq	r0, r0, #6, 0
    1ec4:	431106a1 	tstmi	r1, #168820736	; 0xa100000
    1ec8:	43000006 	movwmi	r0, #6
    1ecc:	02000006 	andeq	r0, r0, #6, 0
    1ed0:	cd000ac7 	vstrgt	s0, [r0, #-796]	; 0xfffffce4
    1ed4:	04000005 	streq	r0, [r0], #-5
    1ed8:	000d8200 	andeq	r8, sp, r0, lsl #4
    1edc:	74010400 	strvc	r0, [r1], #-1024	; 0xfffffc00
    1ee0:	0c000007 	stceq	0, cr0, [r0], {7}
    1ee4:	000006b3 			; <UNDEFINED> instruction: 0x000006b3
    1ee8:	00000724 	andeq	r0, r0, r4, lsr #14
    1eec:	00008d08 	andeq	r8, r0, r8, lsl #26
    1ef0:	000001f0 	strdeq	r0, [r0], -r0	; <UNPREDICTABLE>
    1ef4:	0000128e 	andeq	r1, r0, lr, lsl #5
    1ef8:	69050402 	stmdbvs	r5, {r1, sl}
    1efc:	0300746e 	movweq	r7, #1134	; 0x46e
    1f00:	00610704 	rsbeq	r0, r1, r4, lsl #14
    1f04:	2c040000 	stccs	0, cr0, [r4], {-0}
    1f08:	03000000 	movweq	r0, #0
    1f0c:	000a0601 	andeq	r0, sl, r1, lsl #12
    1f10:	02030000 	andeq	r0, r3, #0, 0
    1f14:	00010d05 	andeq	r0, r1, r5, lsl #26
    1f18:	05040300 	streq	r0, [r4, #-768]	; 0xfffffd00
    1f1c:	0000009b 	muleq	r0, fp, r0
    1f20:	96050803 	strls	r0, [r5], -r3, lsl #16
    1f24:	03000000 	movweq	r0, #0
    1f28:	00080801 	andeq	r0, r8, r1, lsl #16
    1f2c:	02030000 	andeq	r0, r3, #0, 0
    1f30:	00002307 	andeq	r2, r0, r7, lsl #6
    1f34:	04710500 	ldrbteq	r0, [r1], #-1280	; 0xfffffb00
    1f38:	34050000 	strcc	r0, [r5], #-0
    1f3c:	00006e19 	andeq	r6, r0, r9, lsl lr
    1f40:	07040300 	streq	r0, [r4, -r0, lsl #6]
    1f44:	0000005c 	andeq	r0, r0, ip, asr r0
    1f48:	57070803 	strpl	r0, [r7, -r3, lsl #16]
    1f4c:	03000000 	movweq	r0, #0
    1f50:	00110801 	andseq	r0, r1, r1, lsl #16
    1f54:	07060000 	streq	r0, [r6, -r0]
    1f58:	00005401 	andeq	r5, r0, r1, lsl #8
    1f5c:	0e0c0400 	cfcpyseq	mvf0, mvf12
    1f60:	000000c2 	andeq	r0, r0, r2, asr #1
    1f64:	00085407 	andeq	r5, r8, r7, lsl #8
    1f68:	96070000 	strls	r0, [r7], -r0
    1f6c:	01000006 	tsteq	r0, r6
    1f70:	0006d907 	andeq	sp, r6, r7, lsl #18
    1f74:	e8070400 	stmda	r7, {sl}
    1f78:	05000006 	streq	r0, [r0, #-6]
    1f7c:	0006f707 	andeq	pc, r6, r7, lsl #14
    1f80:	06070600 	streq	r0, [r7], -r0, lsl #12
    1f84:	07000007 	streq	r0, [r0, -r7]
    1f88:	00082707 	andeq	r2, r8, r7, lsl #14
    1f8c:	15070300 	strne	r0, [r7, #-768]	; 0xfffffd00
    1f90:	02000007 	andeq	r0, r0, #7, 0
    1f94:	06a70800 	strteq	r0, [r7], r0, lsl #16
    1f98:	022c0000 	eoreq	r0, ip, #0, 0
    1f9c:	015e0806 	cmpeq	lr, r6, lsl #16
    1fa0:	69090000 	stmdbvs	r9, {}	; <UNPREDICTABLE>
    1fa4:	0902006f 	stmdbeq	r2, {r0, r1, r2, r3, r5, r6}
    1fa8:	00003309 	andeq	r3, r0, r9, lsl #6
    1fac:	69090000 	stmdbvs	r9, {}	; <UNPREDICTABLE>
    1fb0:	02007265 	andeq	r7, r0, #1342177286	; 0x50000006
    1fb4:	0033090a 	eorseq	r0, r3, sl, lsl #18
    1fb8:	09040000 	stmdbeq	r4, {}	; <UNPREDICTABLE>
    1fbc:	00726969 	rsbseq	r6, r2, r9, ror #18
    1fc0:	33091102 	movwcc	r1, #37122	; 0x9102
    1fc4:	08000000 	stmdaeq	r0, {}	; <UNPREDICTABLE>
    1fc8:	72636c09 	rsbvc	r6, r3, #2304	; 0x900
    1fcc:	09130200 	ldmdbeq	r3, {r9}
    1fd0:	00000033 	andeq	r0, r0, r3, lsr r0
    1fd4:	636d090c 	cmnvs	sp, #12, 18	; 0x30000
    1fd8:	14020072 	strne	r0, [r2], #-114	; 0xffffff8e
    1fdc:	00003309 	andeq	r3, r0, r9, lsl #6
    1fe0:	6c091000 	stcvs	0, cr1, [r9], {-0}
    1fe4:	02007273 	andeq	r7, r0, #805306375	; 0x30000007
    1fe8:	00330915 	eorseq	r0, r3, r5, lsl r9
    1fec:	09140000 	ldmdbeq	r4, {}	; <UNPREDICTABLE>
    1ff0:	0072736d 	rsbseq	r7, r2, sp, ror #6
    1ff4:	33091602 	movwcc	r1, #38402	; 0x9602
    1ff8:	18000000 	stmdane	r0, {}	; <UNPREDICTABLE>
    1ffc:	00083e0a 	andeq	r3, r8, sl, lsl #28
    2000:	09170200 	ldmdbeq	r7, {r9}
    2004:	00000033 	andeq	r0, r0, r3, lsr r0
    2008:	08070a1c 	stmdaeq	r7, {r2, r3, r4, r9, fp}
    200c:	1b020000 	blne	82014 <__bss_end__+0x782f4>
    2010:	00003309 	andeq	r3, r0, r9, lsl #6
    2014:	830a2000 	movwhi	r2, #40960	; 0xa000
    2018:	02000006 	andeq	r0, r0, #6, 0
    201c:	0033091d 	eorseq	r0, r3, sp, lsl r9
    2020:	0a240000 	beq	902028 <__bss_end__+0x8f8308>
    2024:	00000759 	andeq	r0, r0, r9, asr r7
    2028:	33091e02 	movwcc	r1, #40450	; 0x9e02
    202c:	28000000 	stmdacs	r0, {}	; <UNPREDICTABLE>
    2030:	075e0b00 	ldrbeq	r0, [lr, -r0, lsl #22]
    2034:	08010000 	stmdaeq	r1, {}	; <UNPREDICTABLE>
    2038:	00017409 	andeq	r7, r1, r9, lsl #8
    203c:	21500400 	cmpcs	r0, r0, lsl #8
    2040:	33040c20 	movwcc	r0, #19488	; 0x4c20
    2044:	0d000000 	stceq	0, cr0, [r0, #-0]
    2048:	0000016e 	andeq	r0, r0, lr, ror #2
    204c:	0008460b 	andeq	r4, r8, fp, lsl #12
    2050:	23290100 			; <UNDEFINED> instruction: 0x23290100
    2054:	0000018f 	andeq	r0, r0, pc, lsl #3
    2058:	20215040 	eorcs	r5, r1, r0, asr #32
    205c:	00c2040c 	sbceq	r0, r2, ip, lsl #8
    2060:	890d0000 	stmdbhi	sp, {}	; <UNPREDICTABLE>
    2064:	0e000001 	cdpeq	0, 0, cr0, cr0, cr1, {0}
    2068:	00000531 	andeq	r0, r0, r1, lsr r5
    206c:	c006cc01 	andgt	ip, r6, r1, lsl #24
    2070:	1400008e 	strne	r0, [r0], #-142	; 0xffffff72
    2074:	01000000 	mrseq	r0, (UNDEF: 0)
    2078:	0001b49c 	muleq	r1, ip, r4
    207c:	8ec80f00 	cdphi	15, 12, cr0, cr8, cr0, {0}
    2080:	01b40000 			; <UNDEFINED> instruction: 0x01b40000
    2084:	10000000 	andne	r0, r0, r0
    2088:	000006c8 	andeq	r0, r0, r8, asr #13
    208c:	2505b601 	strcs	fp, [r5, #-1537]	; 0xfffff9ff
    2090:	a0000000 	andge	r0, r0, r0
    2094:	2000008e 	andcs	r0, r0, lr, lsl #1
    2098:	01000000 	mrseq	r0, (UNDEF: 0)
    209c:	0001eb9c 	muleq	r1, ip, fp
    20a0:	8ea80f00 	cdphi	15, 10, cr0, cr8, cr0, {0}
    20a4:	05a00000 	streq	r0, [r0, #0]!
    20a8:	b0110000 	andslt	r0, r1, r0
    20ac:	ac00008e 	stcge	0, cr0, [r0], {142}	; 0x8e
    20b0:	12000005 	andne	r0, r0, #5, 0
    20b4:	0c055001 	stceq	0, cr5, [r5], {1}
    20b8:	20215064 	eorcs	r5, r1, r4, rrx
    20bc:	19100000 	ldmdbne	r0, {}	; <UNPREDICTABLE>
    20c0:	01000008 	tsteq	r0, r8
    20c4:	002505b3 	strhteq	r0, [r5], -r3
    20c8:	8e900000 	cdphi	0, 9, cr0, cr0, cr0, {0}
    20cc:	00100000 	andseq	r0, r0, r0
    20d0:	9c010000 	stcls	0, cr0, [r1], {-0}
    20d4:	00000218 	andeq	r0, r0, r8, lsl r2
    20d8:	008e980f 	addeq	r9, lr, pc, lsl #16
    20dc:	0005a000 	andeq	sl, r5, r0
    20e0:	8e9c0f00 	cdphi	15, 9, cr0, cr12, cr0, {0}
    20e4:	03090000 	movweq	r0, #36864	; 0x9000
    20e8:	0e000000 	cdpeq	0, 0, cr0, cr0, cr0, {0}
    20ec:	000003d4 	ldrdeq	r0, [r0], -r4
    20f0:	6006ab01 	andvs	sl, r6, r1, lsl #22
    20f4:	3000008e 	andcc	r0, r0, lr, lsl #1
    20f8:	01000000 	mrseq	r0, (UNDEF: 0)
    20fc:	00027c9c 	muleq	r2, ip, ip
    2100:	00631300 	rsbeq	r1, r3, r0, lsl #6
    2104:	2c19ab01 			; <UNDEFINED> instruction: 0x2c19ab01
    2108:	8d000000 	stchi	0, cr0, [r0, #-0]
    210c:	8900000d 	stmdbhi	r0, {r0, r2, r3}
    2110:	0f00000d 	svceq	0x0000000d
    2114:	00008e6c 	andeq	r8, r0, ip, ror #28
    2118:	000005a0 	andeq	r0, r0, r0, lsr #11
    211c:	008e700f 	addeq	r7, lr, pc
    2120:	0002db00 	andeq	sp, r2, r0, lsl #22
    2124:	8e841400 	cdphi	4, 8, cr1, cr4, cr0, {0}
    2128:	05b80000 	ldreq	r0, [r8, #0]!
    212c:	02720000 	rsbseq	r0, r2, #0, 0
    2130:	01120000 	tsteq	r2, r0
    2134:	400c0550 	andmi	r0, ip, r0, asr r5
    2138:	12202150 	eorne	r2, r0, #20
    213c:	74055101 	strvc	r5, [r5], #-257	; 0xfffffeff
    2140:	1aff0800 	bne	fffc4148 <__bss_end__+0xfffba428>
    2144:	8e880f00 	cdphi	15, 8, cr0, cr8, cr0, {0}
    2148:	05a00000 	streq	r0, [r0, #0]!
    214c:	10000000 	andne	r0, r0, r0
    2150:	0000076a 	andeq	r0, r0, sl, ror #14
    2154:	2505a301 	strcs	sl, [r5, #-769]	; 0xfffffcff
    2158:	30000000 	andcc	r0, r0, r0
    215c:	3000008e 	andcc	r0, r0, lr, lsl #1
    2160:	01000000 	mrseq	r0, (UNDEF: 0)
    2164:	0002db9c 	muleq	r2, ip, fp
    2168:	00631500 	rsbeq	r1, r3, r0, lsl #10
    216c:	2509a701 	strcs	sl, [r9, #-1793]	; 0xfffff8ff
    2170:	ad000000 	stcge	0, cr0, [r0, #-0]
    2174:	ab00000d 	blge	21b0 <__code_start__-0x5e50>
    2178:	0f00000d 	svceq	0x0000000d
    217c:	00008e38 	andeq	r8, r0, r8, lsr lr
    2180:	000005a0 	andeq	r0, r0, r0, lsr #11
    2184:	008e3c0f 	addeq	r3, lr, pc, lsl #24
    2188:	00030900 	andeq	r0, r3, r0, lsl #18
    218c:	8e4c1400 	cdphi	4, 4, cr1, cr12, cr0, {0}
    2190:	05ac0000 	streq	r0, [ip, #0]!
    2194:	02d10000 	sbcseq	r0, r1, #0, 0
    2198:	01120000 	tsteq	r2, r0
    219c:	400c0550 	andmi	r0, ip, r0, asr r5
    21a0:	00202150 	eoreq	r2, r0, r0, asr r1
    21a4:	008e540f 	addeq	r5, lr, pc, lsl #8
    21a8:	0005a000 	andeq	sl, r5, r0
    21ac:	ba100000 	blt	4021b4 <__bss_end__+0x3f8494>
    21b0:	01000006 	tsteq	r0, r6
    21b4:	00250594 	mlaeq	r5, r4, r5, r0
    21b8:	8e100000 	cdphi	0, 1, cr0, cr0, cr0, {0}
    21bc:	00200000 	eoreq	r0, r0, r0
    21c0:	9c010000 	stcls	0, cr0, [r1], {-0}
    21c4:	00000309 	andeq	r0, r0, r9, lsl #6
    21c8:	008e1c11 	addeq	r1, lr, r1, lsl ip
    21cc:	0005ac00 	andeq	sl, r5, r0, lsl #24
    21d0:	50011200 	andpl	r1, r1, r0, lsl #4
    21d4:	50640c05 	rsbpl	r0, r4, r5, lsl #24
    21d8:	00002021 	andeq	r2, r0, r1, lsr #32
    21dc:	00068810 	andeq	r8, r6, r0, lsl r8
    21e0:	058b0100 	streq	r0, [fp, #256]	; 0x100
    21e4:	00000025 	andeq	r0, r0, r5, lsr #32
    21e8:	00008df8 	strdeq	r8, [r0], -r8	; <UNPREDICTABLE>
    21ec:	00000018 	andeq	r0, r0, r8, lsl r0
    21f0:	03379c01 	teqeq	r7, #256	; 0x100
    21f4:	04110000 	ldreq	r0, [r1], #-0
    21f8:	ac00008e 	stcge	0, cr0, [r0], {142}	; 0x8e
    21fc:	12000005 	andne	r0, r0, #5, 0
    2200:	0c055001 	stceq	0, cr5, [r5], {1}
    2204:	20215064 	eorcs	r5, r1, r4, rrx
    2208:	4f0e0000 	svcmi	0x000e0000
    220c:	01000005 	tsteq	r0, r5
    2210:	8d480645 	stclhi	6, cr0, [r8, #-276]	; 0xfffffeec
    2214:	00b00000 	adcseq	r0, r0, r0
    2218:	9c010000 	stcls	0, cr0, [r1], {-0}
    221c:	00000484 	andeq	r0, r0, r4, lsl #9
    2220:	00067a16 	andeq	r7, r6, r6, lsl sl
    2224:	0e7e0100 	rpweqe	f0, f6, f0
    2228:	00000062 	andeq	r0, r0, r2, rrx
    222c:	5814010e 	ldmdapl	r4, {r1, r2, r3, r8}
    2230:	c400008d 	strgt	r0, [r0], #-141	; 0xffffff73
    2234:	73000005 	movwvc	r0, #5
    2238:	12000003 	andne	r0, r0, #3, 0
    223c:	3e015001 	cdpcc	0, 0, cr5, cr1, cr1, {0}
    2240:	01510112 	cmpeq	r1, r2, lsl r1
    2244:	64140032 	ldrvs	r0, [r4], #-50	; 0xffffffce
    2248:	c400008d 	strgt	r0, [r0], #-141	; 0xffffff73
    224c:	8b000005 	blhi	2268 <__code_start__-0x5d98>
    2250:	12000003 	andne	r0, r0, #3, 0
    2254:	3f015001 	svccc	0x00015001
    2258:	01510112 	cmpeq	r1, r2, lsl r1
    225c:	680f0032 	stmdavs	pc, {r1, r4, r5}	; <UNPREDICTABLE>
    2260:	a000008d 	andge	r0, r0, sp, lsl #1
    2264:	14000005 	strne	r0, [r0], #-5
    2268:	00008d74 	andeq	r8, r0, r4, ror sp
    226c:	0000053d 	andeq	r0, r0, sp, lsr r5
    2270:	000003b0 			; <UNDEFINED> instruction: 0x000003b0
    2274:	05500112 	ldrbeq	r0, [r0, #-274]	; 0xfffffeee
    2278:	2150040c 	cmpcs	r0, ip, lsl #8
    227c:	51011220 	tstpl	r1, r0, lsr #4
    2280:	0f003101 	svceq	0x00003101
    2284:	00008d78 	andeq	r8, r0, r8, ror sp
    2288:	000005a0 	andeq	r0, r0, r0, lsr #11
    228c:	008d8814 	addeq	r8, sp, r4, lsl r8
    2290:	0005b800 	andeq	fp, r5, r0, lsl #16
    2294:	0003d200 	andeq	sp, r3, r0, lsl #4
    2298:	50011200 	andpl	r1, r1, r0, lsl #4
    229c:	12007402 	andne	r7, r0, #33554432	; 0x2000000
    22a0:	30015101 	andcc	r5, r1, r1, lsl #2
    22a4:	8d941400 	cfldrshi	mvf1, [r4]
    22a8:	05b80000 	ldreq	r0, [r8, #0]!
    22ac:	03ee0000 	mvneq	r0, #0, 0
    22b0:	01120000 	tsteq	r2, r0
    22b4:	440c0550 	strmi	r0, [ip], #-1360	; 0xfffffab0
    22b8:	12202150 	eorne	r2, r0, #20
    22bc:	30015101 	andcc	r5, r1, r1, lsl #2
    22c0:	8da01400 	cfstrshi	mvf1, [r0]
    22c4:	05b80000 	ldreq	r0, [r8, #0]!
    22c8:	040a0000 	streq	r0, [sl], #-0
    22cc:	01120000 	tsteq	r2, r0
    22d0:	4c0c0550 	cfstr32mi	mvfx0, [ip], {80}	; 0x50
    22d4:	12202150 	eorne	r2, r0, #20
    22d8:	33015101 	movwcc	r5, #4353	; 0x1101
    22dc:	8dac1400 	cfstrshi	mvf1, [ip]
    22e0:	05b80000 	ldreq	r0, [r8, #0]!
    22e4:	04260000 	strteq	r0, [r6], #-0
    22e8:	01120000 	tsteq	r2, r0
    22ec:	500c0550 	andpl	r0, ip, r0, asr r5
    22f0:	12202150 	eorne	r2, r0, #20
    22f4:	30015101 	andcc	r5, r1, r1, lsl #2
    22f8:	8db81400 	cfldrshi	mvf1, [r8]
    22fc:	05b80000 	ldreq	r0, [r8, #0]!
    2300:	04430000 	strbeq	r0, [r3], #-0
    2304:	01120000 	tsteq	r2, r0
    2308:	480c0550 	stmdami	ip, {r4, r6, r8, sl}
    230c:	12202150 	eorne	r2, r0, #20
    2310:	08025101 	stmdaeq	r2, {r0, r8, ip, lr}
    2314:	c41400c7 	ldrgt	r0, [r4], #-199	; 0xffffff39
    2318:	b800008d 	stmdalt	r0, {r0, r2, r3, r7}
    231c:	61000005 	tstvs	r0, r5
    2320:	12000004 	andne	r0, r0, #4, 0
    2324:	0c055001 	stceq	0, cr5, [r5], {1}
    2328:	20215068 	eorcs	r5, r1, r8, rrx
    232c:	03510112 	cmpeq	r1, #-2147483644	; 0x80000004
    2330:	00010e0a 	andeq	r0, r1, sl, lsl #28
    2334:	008dd014 	addeq	sp, sp, r4, lsl r0
    2338:	0005b800 	andeq	fp, r5, r0, lsl #16
    233c:	00047a00 	andeq	r7, r4, r0, lsl #20
    2340:	50011200 	andpl	r1, r1, r0, lsl #4
    2344:	12007402 	andne	r7, r0, #33554432	; 0x2000000
    2348:	33015101 	movwcc	r5, #4353	; 0x1101
    234c:	8dd40f00 	ldclhi	15, cr0, [r4]
    2350:	05a00000 	streq	r0, [r0, #0]!
    2354:	0e000000 	cdpeq	0, 0, cr0, cr0, cr0, {0}
    2358:	0000080c 	andeq	r0, r0, ip, lsl #16
    235c:	d4063501 	strle	r3, [r6], #-1281	; 0xfffffaff
    2360:	2400008e 	strcs	r0, [r0], #-142	; 0xffffff72
    2364:	01000000 	mrseq	r0, (UNDEF: 0)
    2368:	0004d39c 	muleq	r4, ip, r3
    236c:	8edc0f00 	cdphi	15, 13, cr0, cr12, cr0, {0}
    2370:	01940000 	orrseq	r0, r4, r0
    2374:	e00f0000 	and	r0, pc, r0
    2378:	a000008e 	andge	r0, r0, lr, lsl #1
    237c:	14000005 	strne	r0, [r0], #-5
    2380:	00008eec 	andeq	r8, r0, ip, ror #29
    2384:	000004d3 	ldrdeq	r0, [r0], -r3
    2388:	000004c9 	andeq	r0, r0, r9, asr #9
    238c:	05500112 	ldrbeq	r0, [r0, #-274]	; 0xfffffeee
    2390:	2150040c 	cmpcs	r0, ip, lsl #8
    2394:	51011220 	tstpl	r1, r0, lsr #4
    2398:	00fe0902 	rscseq	r0, lr, r2, lsl #18
    239c:	008ef00f 	addeq	pc, lr, pc
    23a0:	0005a000 	andeq	sl, r5, r0
    23a4:	4b170000 	blmi	5c23ac <__bss_end__+0x5b868c>
    23a8:	01000008 	tsteq	r0, r8
    23ac:	8d080d31 	stchi	13, cr0, [r8, #-196]	; 0xffffff3c
    23b0:	00200000 	eoreq	r0, r0, r0
    23b4:	9c010000 	stcls	0, cr0, [r1], {-0}
    23b8:	00000536 	andeq	r0, r0, r6, lsr r5
    23bc:	00089b18 	andeq	r9, r8, r8, lsl fp
    23c0:	25310100 	ldrcs	r0, [r1, #-256]!	; 0xffffff00
    23c4:	00000536 	andeq	r0, r0, r6, lsr r5
    23c8:	00000dc4 	andeq	r0, r0, r4, asr #27
    23cc:	00000dc0 	andeq	r0, r0, r0, asr #27
    23d0:	6c617613 	stclvs	6, cr7, [r1], #-76	; 0xffffffb4
    23d4:	34310100 	ldrtcc	r0, [r1], #-256	; 0xffffff00
    23d8:	0000002c 	andeq	r0, r0, ip, lsr #32
    23dc:	00000de6 	andeq	r0, r0, r6, ror #27
    23e0:	00000de2 	andeq	r0, r0, r2, ror #27
    23e4:	008d1814 	addeq	r1, sp, r4, lsl r8
    23e8:	0005ac00 	andeq	sl, r5, r0, lsl #24
    23ec:	00052500 	andeq	r2, r5, r0, lsl #10
    23f0:	50011200 	andpl	r1, r1, r0, lsl #4
    23f4:	00007402 	andeq	r7, r0, r2, lsl #8
    23f8:	008d2411 	addeq	r2, sp, r1, lsl r4
    23fc:	0005b800 	andeq	fp, r5, r0, lsl #16
    2400:	50011200 	andpl	r1, r1, r0, lsl #4
    2404:	00007402 	andeq	r7, r0, r2, lsl #8
    2408:	3c040c00 	stccc	12, cr0, [r4], {-0}
    240c:	19000005 	stmdbne	r0, {r0, r2}
    2410:	00083617 	andeq	r3, r8, r7, lsl r6
    2414:	0d2e0100 	stfeqs	f0, [lr, #-0]
    2418:	00008d28 	andeq	r8, r0, r8, lsr #26
    241c:	00000020 	andeq	r0, r0, r0, lsr #32
    2420:	05a09c01 	streq	r9, [r0, #3073]!	; 0xc01
    2424:	9b180000 	blls	60242c <__bss_end__+0x5f870c>
    2428:	01000008 	tsteq	r0, r8
    242c:	0536242e 	ldreq	r2, [r6, #-1070]!	; 0xfffffbd2
    2430:	0e080000 	cdpeq	0, 0, cr0, cr8, cr0, {0}
    2434:	0e040000 	cdpeq	0, 0, cr0, cr4, cr0, {0}
    2438:	76130000 	ldrvc	r0, [r3], -r0
    243c:	01006c61 	tsteq	r0, r1, ror #24
    2440:	002c332e 	eoreq	r3, ip, lr, lsr #6
    2444:	0e2a0000 	cdpeq	0, 2, cr0, cr10, cr0, {0}
    2448:	0e260000 	cdpeq	0, 2, cr0, cr6, cr0, {0}
    244c:	38140000 	ldmdacc	r4, {}	; <UNPREDICTABLE>
    2450:	ac00008d 	stcge	0, cr0, [r0], {141}	; 0x8d
    2454:	8f000005 	svchi	0x00000005
    2458:	12000005 	andne	r0, r0, #5, 0
    245c:	74025001 	strvc	r5, [r2], #-1
    2460:	44110000 	ldrmi	r0, [r1], #-0
    2464:	b800008d 	stmdalt	r0, {r0, r2, r3, r7}
    2468:	12000005 	andne	r0, r0, #5, 0
    246c:	74025001 	strvc	r5, [r2], #-1
    2470:	1a000000 	bne	2478 <__code_start__-0x5b88>
    2474:	00000619 	andeq	r0, r0, r9, lsl r6
    2478:	00000619 	andeq	r0, r0, r9, lsl r6
    247c:	1a06a103 	bne	1aa890 <__bss_end__+0x1a0b70>
    2480:	00000876 	andeq	r0, r0, r6, ror r8
    2484:	00000876 	andeq	r0, r0, r6, ror r8
    2488:	1a0bc803 	bne	2f449c <__bss_end__+0x2ea77c>
    248c:	00000674 	andeq	r0, r0, r4, ror r6
    2490:	00000674 	andeq	r0, r0, r4, ror r6
    2494:	1a06b303 	bne	1af0a8 <__bss_end__+0x1a5388>
    2498:	00000864 	andeq	r0, r0, r4, ror #16
    249c:	00000864 	andeq	r0, r0, r4, ror #16
    24a0:	00061904 	andeq	r1, r6, r4, lsl #18
    24a4:	000008e9 	andeq	r0, r0, r9, ror #17
    24a8:	0f1a0004 	svceq	0x001a0004
    24ac:	01040000 	mrseq	r0, (UNDEF: 4)
    24b0:	00000774 	andeq	r0, r0, r4, ror r7
    24b4:	00091f0c 	andeq	r1, r9, ip, lsl #30
    24b8:	00072400 	andeq	r2, r7, r0, lsl #8
    24bc:	008ef800 	addeq	pc, lr, r0, lsl #16
    24c0:	0003b000 	andeq	fp, r3, r0
    24c4:	00149700 	andseq	r9, r4, r0, lsl #14
    24c8:	05040200 	streq	r0, [r4, #-512]	; 0xfffffe00
    24cc:	00746e69 	rsbseq	r6, r4, r9, ror #28
    24d0:	61070403 	tstvs	r7, r3, lsl #8
    24d4:	03000000 	movweq	r0, #0
    24d8:	000a0601 	andeq	r0, sl, r1, lsl #12
    24dc:	02030000 	andeq	r0, r3, #0, 0
    24e0:	00010d05 	andeq	r0, r1, r5, lsl #26
    24e4:	05040300 	streq	r0, [r4, #-768]	; 0xfffffd00
    24e8:	0000009b 	muleq	r0, fp, r0
    24ec:	96050803 	strls	r0, [r5], -r3, lsl #16
    24f0:	03000000 	movweq	r0, #0
    24f4:	00080801 	andeq	r0, r8, r1, lsl #16
    24f8:	02030000 	andeq	r0, r3, #0, 0
    24fc:	00002307 	andeq	r2, r0, r7, lsl #6
    2500:	04710400 	ldrbteq	r0, [r1], #-1024	; 0xfffffc00
    2504:	34030000 	strcc	r0, [r3], #-0
    2508:	00006919 	andeq	r6, r0, r9, lsl r9
    250c:	07040300 	streq	r0, [r4, -r0, lsl #6]
    2510:	0000005c 	andeq	r0, r0, ip, asr r0
    2514:	57070803 	strpl	r0, [r7, -r3, lsl #16]
    2518:	03000000 	movweq	r0, #0
    251c:	00110801 	andseq	r0, r1, r1, lsl #16
    2520:	77050000 	strvc	r0, [r5, -r0]
    2524:	03000000 	movweq	r0, #0
    2528:	02110408 	andseq	r0, r1, #8, 8	; 0x8000000
    252c:	04060000 	streq	r0, [r6], #-0
    2530:	2c040707 	stccs	7, cr0, [r4], {7}
    2534:	01000000 	mrseq	r0, (UNDEF: 0)
    2538:	00a4061f 	adceq	r0, r4, pc, lsl r6
    253c:	a6080000 	strge	r0, [r8], -r0
    2540:	00000008 	andeq	r0, r0, r8
    2544:	00002000 	andeq	r2, r0, r0
    2548:	00046209 	andeq	r6, r4, r9, lsl #4
    254c:	0d220100 	stfeqs	f0, [r2, #-0]
    2550:	00000077 	andeq	r0, r0, r7, ror r0
    2554:	0008c10a 	andeq	ip, r8, sl, lsl #2
    2558:	0e230100 	sufeqs	f0, f3, f0
    255c:	000000c2 	andeq	r0, r0, r2, asr #1
    2560:	99040305 	stmdbls	r4, {r0, r2, r8, r9}
    2564:	040b0000 	streq	r0, [fp], #-0
    2568:	00000077 	andeq	r0, r0, r7, ror r0
    256c:	0008840a 	andeq	r8, r8, sl, lsl #8
    2570:	0e240100 	sufeqs	f0, f4, f0
    2574:	000000c2 	andeq	r0, r0, r2, asr #1
    2578:	99000305 	stmdbls	r0, {r0, r2, r8, r9}
    257c:	fe0a0000 	cdp2	0, 0, cr0, cr10, cr0, {0}
    2580:	01000008 	tsteq	r0, r8
    2584:	00c20e25 	sbceq	r0, r2, r5, lsr #28
    2588:	03050000 	movweq	r0, #20480	; 0x5000
    258c:	000098fc 	strdeq	r9, [r0], -ip
    2590:	0008cd0c 	andeq	ip, r8, ip, lsl #26
    2594:	06750100 	ldrbteq	r0, [r5], -r0, lsl #2
    2598:	00009248 	andeq	r9, r0, r8, asr #4
    259c:	00000060 	andeq	r0, r0, r0, rrx
    25a0:	01649c01 	cmneq	r4, r1, lsl #24
    25a4:	700d0000 	andvc	r0, sp, r0
    25a8:	16750100 	ldrbtne	r0, [r5], -r0, lsl #2
    25ac:	0000008a 	andeq	r0, r0, sl, lsl #1
    25b0:	00000e4e 	andeq	r0, r0, lr, asr #28
    25b4:	00000e48 	andeq	r0, r0, r8, asr #28
    25b8:	0000430e 	andeq	r4, r0, lr, lsl #6
    25bc:	00017400 	andeq	r7, r1, r0, lsl #8
    25c0:	e8030500 	stmda	r3, {r8, sl}
    25c4:	0f000098 	svceq	0x00000098
    25c8:	00009294 	muleq	r0, r4, r2
    25cc:	000008bc 			; <UNDEFINED> instruction: 0x000008bc
    25d0:	0000015a 	andeq	r0, r0, sl, asr r1
    25d4:	05500110 	ldrbeq	r0, [r0, #-272]	; 0xfffffef0
    25d8:	00986003 	addseq	r6, r8, r3
    25dc:	51011000 	mrspl	r1, (UNDEF: 1)
    25e0:	96f80305 	ldrbtls	r0, [r8], r5, lsl #6
    25e4:	01100000 	tsteq	r0, r0
    25e8:	e8030552 	stmda	r3, {r1, r4, r6, r8, sl}
    25ec:	10000098 	mulne	r0, r8, r0
    25f0:	08025301 	stmdaeq	r2, {r0, r8, r9, ip, lr}
    25f4:	7d021077 	stcvc	0, cr1, [r2, #-476]	; 0xfffffe24
    25f8:	01f30300 	mvnseq	r0, r0, lsl #6
    25fc:	98110050 	ldmdals	r1, {r4, r6}
    2600:	c8000092 	stmdagt	r0, {r1, r4, r7}
    2604:	00000008 	andeq	r0, r0, r8
    2608:	00007e12 	andeq	r7, r0, r2, lsl lr
    260c:	00017400 	andeq	r7, r1, r0, lsl #8
    2610:	002c1300 	eoreq	r1, ip, r0, lsl #6
    2614:	00090000 	andeq	r0, r9, r0
    2618:	00016405 	andeq	r6, r1, r5, lsl #8
    261c:	08af1400 	stmiaeq	pc!, {sl, ip}	; <UNPREDICTABLE>
    2620:	72010000 	andvc	r0, r1, #0, 0
    2624:	00923406 	addseq	r3, r2, r6, lsl #8
    2628:	00001400 	andeq	r1, r0, r0, lsl #8
    262c:	0c9c0100 	ldfeqs	f0, [ip], {0}
    2630:	000008a0 	andeq	r0, r0, r0, lsr #17
    2634:	30066f01 	andcc	r6, r6, r1, lsl #30
    2638:	04000092 	streq	r0, [r0], #-146	; 0xffffff6e
    263c:	01000000 	mrseq	r0, (UNDEF: 0)
    2640:	0001ae9c 	muleq	r1, ip, lr
    2644:	00701500 	rsbseq	r1, r0, r0, lsl #10
    2648:	8a126f01 	bhi	49e254 <__bss_end__+0x494534>
    264c:	01000000 	mrseq	r0, (UNDEF: 0)
    2650:	69160050 	ldmdbvs	r6, {r4, r6}
    2654:	01000009 	tsteq	r0, r9
    2658:	008a075e 	addeq	r0, sl, lr, asr r7
    265c:	91180000 	tstls	r8, r0
    2660:	01180000 	tsteq	r8, r0
    2664:	9c010000 	stcls	0, cr0, [r1], {-0}
    2668:	0000042c 	andeq	r0, r0, ip, lsr #8
    266c:	00089317 	andeq	r9, r8, r7, lsl r3
    2670:	205e0100 	subscs	r0, lr, r0, lsl #2
    2674:	0000002c 	andeq	r0, r0, ip, lsr #32
    2678:	00000e8f 	andeq	r0, r0, pc, lsl #29
    267c:	00000e7b 	andeq	r0, r0, fp, ror lr
    2680:	0008de17 	andeq	sp, r8, r7, lsl lr
    2684:	315e0100 	cmpcc	lr, r0, lsl #2
    2688:	0000002c 	andeq	r0, r0, ip, lsr #32
    268c:	00000f28 	andeq	r0, r0, r8, lsr #30
    2690:	00000f14 	andeq	r0, r0, r4, lsl pc
    2694:	0000430e 	andeq	r4, r0, lr, lsl #6
    2698:	00043c00 	andeq	r3, r4, r0, lsl #24
    269c:	d0030500 	andle	r0, r3, r0, lsl #10
    26a0:	18000098 	stmdane	r0, {r3, r4, r7}
    26a4:	66010068 	strvs	r0, [r1], -r8, rrx
    26a8:	00002c0e 	andeq	r2, r0, lr, lsl #24
    26ac:	000fde00 	andeq	sp, pc, r0, lsl #28
    26b0:	000fd200 	andeq	sp, pc, r0, lsl #4
    26b4:	08541900 	ldmdaeq	r4, {r8, fp, ip}^
    26b8:	91280000 			; <UNDEFINED> instruction: 0x91280000
    26bc:	28040000 	stmdacs	r4, {}	; <UNPREDICTABLE>
    26c0:	04000091 	streq	r0, [r0], #-145	; 0xffffff6f
    26c4:	01000000 	mrseq	r0, (UNDEF: 0)
    26c8:	02380560 	eorseq	r0, r8, #96, 10	; 0x18000000
    26cc:	651a0000 	ldrvs	r0, [sl, #-0]
    26d0:	32000008 	andcc	r0, r0, #8, 0
    26d4:	30000010 	andcc	r0, r0, r0, lsl r0
    26d8:	00000010 	andeq	r0, r0, r0, lsl r0
    26dc:	00089619 	andeq	r9, r8, r9, lsl r6
    26e0:	00913400 	addseq	r3, r1, r0, lsl #8
    26e4:	91340200 	teqls	r4, r0, lsl #4
    26e8:	00080000 	andeq	r0, r8, r0
    26ec:	61010000 	mrsvs	r0, (UNDEF: 1)
    26f0:	00026c11 	andeq	r6, r2, r1, lsl ip
    26f4:	08b11a00 	ldmeq	r1!, {r9, fp, ip}
    26f8:	10470000 	subne	r0, r7, r0
    26fc:	10450000 	subne	r0, r5, r0
    2700:	a71a0000 	ldrge	r0, [sl, -r0]
    2704:	5d000008 	stcpl	0, cr0, [r0, #-32]	; 0xffffffe0
    2708:	5b000010 	blpl	2750 <__code_start__-0x58b0>
    270c:	00000010 	andeq	r0, r0, r0, lsl r0
    2710:	00081f1b 	andeq	r1, r8, fp, lsl pc
    2714:	00914400 	addseq	r4, r1, r0, lsl #8
    2718:	00580100 	subseq	r0, r8, r0, lsl #2
    271c:	67010000 	strvs	r0, [r1, -r0]
    2720:	00030a09 	andeq	r0, r3, r9, lsl #20
    2724:	083a1a00 	ldmdaeq	sl!, {r9, fp, ip}
    2728:	10760000 	rsbsne	r0, r6, r0
    272c:	10700000 	rsbsne	r0, r0, r0
    2730:	301a0000 	andscc	r0, sl, r0
    2734:	bd000008 	stclt	0, cr0, [r0, #-32]	; 0xffffffe0
    2738:	b5000010 	strlt	r0, [r0, #-16]
    273c:	1c000010 	stcne	0, cr0, [r0], {16}
    2740:	00000058 	andeq	r0, r0, r8, asr r0
    2744:	00085419 	andeq	r5, r8, r9, lsl r4
    2748:	00914400 	addseq	r4, r1, r0, lsl #8
    274c:	91440400 	cmpls	r4, r0, lsl #8
    2750:	00040000 	andeq	r0, r4, r0
    2754:	11010000 	mrsne	r0, (UNDEF: 1)
    2758:	0002c705 	andeq	ip, r2, r5, lsl #14
    275c:	08651a00 	stmdaeq	r5!, {r9, fp, ip}^
    2760:	10fb0000 	rscsne	r0, fp, r0
    2764:	10f90000 	rscsne	r0, r9, r0
    2768:	0f000000 	svceq	0x00000000
    276c:	000091dc 	ldrdeq	r9, [r0], -ip
    2770:	000008bc 			; <UNDEFINED> instruction: 0x000008bc
    2774:	000002ff 	strdeq	r0, [r0], -pc	; <UNPREDICTABLE>
    2778:	05500110 	ldrbeq	r0, [r0, #-272]	; 0xfffffef0
    277c:	00950403 	addseq	r0, r5, r3, lsl #8
    2780:	51011000 	mrspl	r1, (UNDEF: 1)
    2784:	96f80305 	ldrbtls	r0, [r8], r5, lsl #6
    2788:	01100000 	tsteq	r0, r0
    278c:	e0030552 	and	r0, r3, r2, asr r5
    2790:	10000098 	mulne	r0, r8, r0
    2794:	41015301 	tstmi	r1, r1, lsl #6
    2798:	007d0210 	rsbseq	r0, sp, r0, lsl r2
    279c:	980c0305 	stmdals	ip, {r0, r2, r8, r9}
    27a0:	11000000 	mrsne	r0, (UNDEF: 0)
    27a4:	000091e0 	andeq	r9, r0, r0, ror #3
    27a8:	000008c8 	andeq	r0, r0, r8, asr #17
    27ac:	70190000 	andsvc	r0, r9, r0
    27b0:	5c000008 	stcpl	0, cr0, [r0], {8}
    27b4:	03000091 	movweq	r0, #145	; 0x91
    27b8:	0000915c 	andeq	r9, r0, ip, asr r1
    27bc:	00000004 	andeq	r0, r0, r4
    27c0:	3e056801 	cdpcc	8, 0, cr6, cr5, cr1, {0}
    27c4:	1a000003 	bne	27d8 <__code_start__-0x5828>
    27c8:	0000088b 	andeq	r0, r0, fp, lsl #17
    27cc:	00001110 	andeq	r1, r0, r0, lsl r1
    27d0:	0000110e 	andeq	r1, r0, lr, lsl #2
    27d4:	0008811a 	andeq	r8, r8, sl, lsl r1
    27d8:	00112500 	andseq	r2, r1, r0, lsl #10
    27dc:	00112300 	andseq	r2, r1, r0, lsl #6
    27e0:	740f0000 	strvc	r0, [pc], #-0	; 27e8 <__code_start__-0x5818>
    27e4:	41000091 	swpmi	r0, r1, [r0]	; <UNPREDICTABLE>
    27e8:	53000004 	movwpl	r0, #4
    27ec:	10000003 	andne	r0, r0, r3
    27f0:	f3035001 	vhadd.u8	d5, d3, d1
    27f4:	0f005001 	svceq	0x00005001
    27f8:	00009198 	muleq	r0, r8, r1
    27fc:	000008bc 			; <UNDEFINED> instruction: 0x000008bc
    2800:	0000038c 	andeq	r0, r0, ip, lsl #7
    2804:	05500110 	ldrbeq	r0, [r0, #-272]	; 0xfffffef0
    2808:	00950403 	addseq	r0, r5, r3, lsl #8
    280c:	51011000 	mrspl	r1, (UNDEF: 1)
    2810:	96f80305 	ldrbtls	r0, [r8], r5, lsl #6
    2814:	01100000 	tsteq	r0, r0
    2818:	d0030552 	andle	r0, r3, r2, asr r5
    281c:	10000098 	mulne	r0, r8, r0
    2820:	08025301 	stmdaeq	r2, {r0, r8, r9, ip, lr}
    2824:	7d02105f 	stcvc	0, cr1, [r2, #-380]	; 0xfffffe84
    2828:	08030500 	stmdaeq	r3, {r8, sl}
    282c:	00000097 	muleq	r0, r7, r0
    2830:	00919c11 	addseq	r9, r1, r1, lsl ip
    2834:	0008c800 	andeq	ip, r8, r0, lsl #16
    2838:	91a01100 	lslls	r1, r0, #2
    283c:	08d40000 	ldmeq	r4, {}^	; <UNPREDICTABLE>
    2840:	bc0f0000 	stclt	0, cr0, [pc], {-0}
    2844:	bc000091 	stclt	0, cr0, [r0], {145}	; 0x91
    2848:	d7000008 	strle	r0, [r0, -r8]
    284c:	10000003 	andne	r0, r0, r3
    2850:	03055001 	movweq	r5, #20481	; 0x5001
    2854:	000097c4 	andeq	r9, r0, r4, asr #15
    2858:	05510110 	ldrbeq	r0, [r1, #-272]	; 0xfffffef0
    285c:	0096f803 	addseq	pc, r6, r3, lsl #16
    2860:	52011000 	andpl	r1, r1, #0, 0
    2864:	98d00305 	ldmls	r0, {r0, r2, r8, r9}^
    2868:	01100000 	tsteq	r0, r0
    286c:	60080253 	andvs	r0, r8, r3, asr r2
    2870:	007d0210 	rsbseq	r0, sp, r0, lsl r2
    2874:	97f80305 	ldrbls	r0, [r8, r5, lsl #6]!
    2878:	11000000 	mrsne	r0, (UNDEF: 0)
    287c:	000091c0 	andeq	r9, r0, r0, asr #3
    2880:	000008c8 	andeq	r0, r0, r8, asr #17
    2884:	0091e411 	addseq	lr, r1, r1, lsl r4
    2888:	0008d400 	andeq	sp, r8, r0, lsl #8
    288c:	92000f00 	andls	r0, r0, #0, 30
    2890:	08bc0000 	ldmeq	ip!, {}	; <UNPREDICTABLE>
    2894:	04220000 	strteq	r0, [r2], #-0
    2898:	01100000 	tsteq	r0, r0
    289c:	18030550 	stmdane	r3, {r4, r6, r8, sl}
    28a0:	10000098 	mulne	r0, r8, r0
    28a4:	03055101 	movweq	r5, #20737	; 0x5101
    28a8:	000096f8 	strdeq	r9, [r0], -r8
    28ac:	05520110 	ldrbeq	r0, [r2, #-272]	; 0xfffffef0
    28b0:	0098d003 	addseq	sp, r8, r3
    28b4:	53011000 	movwpl	r1, #4096	; 0x1000
    28b8:	10680802 	rsbne	r0, r8, r2, lsl #16
    28bc:	05007d02 	streq	r7, [r0, #-3330]	; 0xfffff2fe
    28c0:	00984403 	addseq	r4, r8, r3, lsl #8
    28c4:	04110000 	ldreq	r0, [r1], #-0
    28c8:	c8000092 	stmdagt	r0, {r1, r4, r7}
    28cc:	00000008 	andeq	r0, r0, r8
    28d0:	00007e12 	andeq	r7, r0, r2, lsl lr
    28d4:	00043c00 	andeq	r3, r4, r0, lsl #24
    28d8:	002c1300 	eoreq	r1, ip, r0, lsl #6
    28dc:	000f0000 	andeq	r0, pc, r0
    28e0:	00042c05 	andeq	r2, r4, r5, lsl #24
    28e4:	02441600 	subeq	r1, r4, #0, 12
    28e8:	53010000 	movwpl	r0, #4096	; 0x1000
    28ec:	00008a07 	andeq	r8, r0, r7, lsl #20
    28f0:	0090b400 	addseq	fp, r0, r0, lsl #8
    28f4:	00006400 	andeq	r6, r0, r0, lsl #8
    28f8:	089c0100 	ldmeq	ip, {r8}
    28fc:	17000005 	strne	r0, [r0, -r5]
    2900:	00000893 	muleq	r0, r3, r8
    2904:	2c185301 	ldccs	3, cr5, [r8], {1}
    2908:	40000000 	andmi	r0, r0, r0
    290c:	38000011 	stmdacc	r0, {r0, r4}
    2910:	0e000011 	mcreq	0, 0, r0, cr0, cr1, {0}
    2914:	00000043 	andeq	r0, r0, r3, asr #32
    2918:	00000518 	andeq	r0, r0, r8, lsl r5
    291c:	98c80305 	stmials	r8, {r0, r2, r8, r9}^
    2920:	9b1d0000 	blls	742928 <__bss_end__+0x738c08>
    2924:	01000008 	tsteq	r0, r8
    2928:	008a0b55 	addeq	r0, sl, r5, asr fp
    292c:	11780000 	cmnne	r8, r0
    2930:	11740000 	cmnne	r4, r0
    2934:	cc0f0000 	stcgt	0, cr0, [pc], {-0}
    2938:	1d000090 	stcne	0, cr0, [r0, #-576]	; 0xfffffdc0
    293c:	a6000005 	strge	r0, [r0], -r5
    2940:	10000004 	andne	r0, r0, r4
    2944:	74025001 	strvc	r5, [r2], #-1
    2948:	dc0f0000 	stcle	0, cr0, [pc], {-0}
    294c:	e0000090 	mul	r0, r0, r0
    2950:	c5000008 	strgt	r0, [r0, #-8]
    2954:	10000004 	andne	r0, r0, r4
    2958:	75025001 	strvc	r5, [r2, #-1]
    295c:	51011000 	mrspl	r1, (UNDEF: 1)
    2960:	01103001 	tsteq	r0, r1
    2964:	00740252 	rsbseq	r0, r4, r2, asr r2
    2968:	91040f00 	tstls	r4, r0, lsl #30
    296c:	08bc0000 	ldmeq	ip!, {}	; <UNPREDICTABLE>
    2970:	04fe0000 	ldrbteq	r0, [lr], #0
    2974:	01100000 	tsteq	r0, r0
    2978:	04030550 	streq	r0, [r3], #-1360	; 0xfffffab0
    297c:	10000095 	mulne	r0, r5, r0
    2980:	03055101 	movweq	r5, #20737	; 0x5101
    2984:	000096f8 	strdeq	r9, [r0], -r8
    2988:	05520110 	ldrbeq	r0, [r2, #-272]	; 0xfffffef0
    298c:	0098c803 	addseq	ip, r8, r3, lsl #16
    2990:	53011000 	movwpl	r1, #4096	; 0x1000
    2994:	10540802 	subsne	r0, r4, r2, lsl #16
    2998:	05007d02 	streq	r7, [r0, #-3330]	; 0xfffff2fe
    299c:	00970803 	addseq	r0, r7, r3, lsl #16
    29a0:	08110000 	ldmdaeq	r1, {}	; <UNPREDICTABLE>
    29a4:	c8000091 	stmdagt	r0, {r0, r4, r7}
    29a8:	00000008 	andeq	r0, r0, r8
    29ac:	00007e12 	andeq	r7, r0, r2, lsl lr
    29b0:	00051800 	andeq	r1, r5, r0, lsl #16
    29b4:	002c1300 	eoreq	r1, ip, r0, lsl #6
    29b8:	00070000 	andeq	r0, r7, r0
    29bc:	00050805 	andeq	r0, r5, r5, lsl #16
    29c0:	09071600 	stmdbeq	r7, {r9, sl, ip}
    29c4:	47010000 	strmi	r0, [r1, -r0]
    29c8:	00008a07 	andeq	r8, r0, r7, lsl #20
    29cc:	00901c00 	addseq	r1, r0, r0, lsl #24
    29d0:	00009800 	andeq	r9, r0, r0, lsl #16
    29d4:	2b9c0100 	blcs	fe702ddc <__bss_end__+0xfe6f90bc>
    29d8:	17000006 	strne	r0, [r0, -r6]
    29dc:	00000893 	muleq	r0, r3, r8
    29e0:	2c204701 	stccs	7, cr4, [r0], #-4
    29e4:	a6000000 	strge	r0, [r0], -r0
    29e8:	96000011 			; <UNDEFINED> instruction: 0x96000011
    29ec:	0e000011 	mcreq	0, 0, r0, cr0, cr1, {0}
    29f0:	00000043 	andeq	r0, r0, r3, asr #32
    29f4:	0000043c 	andeq	r0, r0, ip, lsr r4
    29f8:	98b80305 	ldmls	r8!, {r0, r2, r8, r9}
    29fc:	9b1d0000 	blls	742a04 <__bss_end__+0x738ce4>
    2a00:	01000008 	tsteq	r0, r8
    2a04:	008a0b4b 	addeq	r0, sl, fp, asr #22
    2a08:	121a0000 	andsne	r0, sl, #0, 0
    2a0c:	12140000 	andsne	r0, r4, #0, 0
    2a10:	1f1b0000 	svcne	0x001b0000
    2a14:	2c000008 	stccs	0, cr0, [r0], {8}
    2a18:	03000090 	movweq	r0, #144	; 0x90
    2a1c:	00000040 	andeq	r0, r0, r0, asr #32
    2a20:	a30e4901 	movwge	r4, #59649	; 0xe901
    2a24:	1a000005 	bne	2a40 <__code_start__-0x55c0>
    2a28:	0000083a 	andeq	r0, r0, sl, lsr r8
    2a2c:	00001249 	andeq	r1, r0, r9, asr #4
    2a30:	00001247 	andeq	r1, r0, r7, asr #4
    2a34:	0008301a 	andeq	r3, r8, sl, lsl r0
    2a38:	00126100 	andseq	r6, r2, r0, lsl #2
    2a3c:	00125d00 	andseq	r5, r2, r0, lsl #26
    2a40:	00401e00 	subeq	r1, r0, r0, lsl #28
    2a44:	0f000000 	svceq	0x00000000
    2a48:	00009074 	andeq	r9, r0, r4, ror r0
    2a4c:	000008bc 			; <UNDEFINED> instruction: 0x000008bc
    2a50:	000005dc 	ldrdeq	r0, [r0], -ip
    2a54:	05500110 	ldrbeq	r0, [r0, #-272]	; 0xfffffef0
    2a58:	00950403 	addseq	r0, r5, r3, lsl #8
    2a5c:	51011000 	mrspl	r1, (UNDEF: 1)
    2a60:	96f80305 	ldrbtls	r0, [r8], r5, lsl #6
    2a64:	01100000 	tsteq	r0, r0
    2a68:	b8030552 	stmdalt	r3, {r1, r4, r6, r8, sl}
    2a6c:	10000098 	mulne	r0, r8, r0
    2a70:	08025301 	stmdaeq	r2, {r0, r8, r9, ip, lr}
    2a74:	7d021048 	stcvc	0, cr1, [r2, #-288]	; 0xfffffee0
    2a78:	08030500 	stmdaeq	r3, {r8, sl}
    2a7c:	00000097 	muleq	r0, r7, r0
    2a80:	00907811 	addseq	r7, r0, r1, lsl r8
    2a84:	0008c800 	andeq	ip, r8, r0, lsl #16
    2a88:	90980f00 	addsls	r0, r8, r0, lsl #30
    2a8c:	08bc0000 	ldmeq	ip!, {}	; <UNPREDICTABLE>
    2a90:	06210000 	strteq	r0, [r1], -r0
    2a94:	01100000 	tsteq	r0, r0
    2a98:	84030550 	strhi	r0, [r3], #-1360	; 0xfffffab0
    2a9c:	10000097 	mulne	r0, r7, r0
    2aa0:	03055101 	movweq	r5, #20737	; 0x5101
    2aa4:	000096f8 	strdeq	r9, [r0], -r8
    2aa8:	05520110 	ldrbeq	r0, [r2, #-272]	; 0xfffffef0
    2aac:	0098b803 	addseq	fp, r8, r3, lsl #16
    2ab0:	53011000 	movwpl	r1, #4096	; 0x1000
    2ab4:	104e0802 	subne	r0, lr, r2, lsl #16
    2ab8:	08007d02 	stmdaeq	r0, {r1, r8, sl, fp, ip, sp, lr}
    2abc:	235001f3 	cmpcs	r0, #-1073741764	; 0xc000003c
    2ac0:	1af80907 	bne	ffe04ee4 <__bss_end__+0xffdfb1c4>
    2ac4:	909c1100 	addsls	r1, ip, r0, lsl #2
    2ac8:	08c80000 	stmiaeq	r8, {}^	; <UNPREDICTABLE>
    2acc:	0c000000 	stceq	0, cr0, [r0], {-0}
    2ad0:	00000929 	andeq	r0, r0, r9, lsr #18
    2ad4:	c4063c01 	strgt	r3, [r6], #-3073	; 0xfffff3ff
    2ad8:	5800008f 	stmdapl	r0, {r0, r1, r2, r3, r7}
    2adc:	01000000 	mrseq	r0, (UNDEF: 0)
    2ae0:	0006cf9c 	muleq	r6, ip, pc	; <UNPREDICTABLE>
    2ae4:	08c60a00 	stmiaeq	r6, {r9, fp}^
    2ae8:	3d010000 	stccc	0, cr0, [r1, #-0]
    2aec:	00002510 	andeq	r2, r0, r0, lsl r5
    2af0:	18030500 	stmdane	r3, {r8, sl}
    2af4:	0e00009d 	mcreq	0, 0, r0, cr0, cr13, {4}
    2af8:	00000043 	andeq	r0, r0, r3, asr #32
    2afc:	000006df 	ldrdeq	r0, [r0], -pc	; <UNPREDICTABLE>
    2b00:	98a80305 	stmials	r8!, {r0, r2, r8, r9}
    2b04:	07070000 	streq	r0, [r7, -r0]
    2b08:	00002c04 	andeq	r2, r0, r4, lsl #24
    2b0c:	0a420100 	beq	1082f14 <__bss_end__+0x10791f4>
    2b10:	0000067a 	andeq	r0, r0, sl, ror r6
    2b14:	0008f008 	andeq	pc, r8, r8
    2b18:	10000000 	andne	r0, r0, r0
    2b1c:	f00f0000 			; <UNDEFINED> instruction: 0xf00f0000
    2b20:	e400008f 	str	r0, [r0], #-143	; 0xffffff71
    2b24:	96000006 	strls	r0, [r0], -r6
    2b28:	10000006 	andne	r0, r0, r6
    2b2c:	40035001 	andmi	r5, r3, r1
    2b30:	01102440 	tsteq	r0, r0, asr #8
    2b34:	48400351 	stmdami	r0, {r0, r4, r6, r8, r9}^
    2b38:	080f0024 	stmdaeq	pc, {r2, r5}	; <UNPREDICTABLE>
    2b3c:	bc000090 	stclt	0, cr0, [r0], {144}	; 0x90
    2b40:	c5000008 	strgt	r0, [r0, #-8]
    2b44:	10000006 	andne	r0, r0, r6
    2b48:	03055001 	movweq	r5, #20481	; 0x5001
    2b4c:	00009754 	andeq	r9, r0, r4, asr r7
    2b50:	05510110 	ldrbeq	r0, [r1, #-272]	; 0xfffffef0
    2b54:	0096f803 	addseq	pc, r6, r3, lsl #16
    2b58:	52011000 	andpl	r1, r1, #0, 0
    2b5c:	98a80305 	stmials	r8!, {r0, r2, r8, r9}
    2b60:	01100000 	tsteq	r0, r0
    2b64:	40080253 	andmi	r0, r8, r3, asr r2
    2b68:	900c1100 	andls	r1, ip, r0, lsl #2
    2b6c:	08c80000 	stmiaeq	r8, {}^	; <UNPREDICTABLE>
    2b70:	12000000 	andne	r0, r0, #0, 0
    2b74:	0000007e 	andeq	r0, r0, lr, ror r0
    2b78:	000006df 	ldrdeq	r0, [r0], -pc	; <UNPREDICTABLE>
    2b7c:	00002c13 	andeq	r2, r0, r3, lsl ip
    2b80:	05000c00 	streq	r0, [r0, #-3072]	; 0xfffff400
    2b84:	000006cf 	andeq	r0, r0, pc, asr #13
    2b88:	0009520c 	andeq	r5, r9, ip, lsl #4
    2b8c:	062d0100 	strteq	r0, [sp], -r0, lsl #2
    2b90:	00008f28 	andeq	r8, r0, r8, lsr #30
    2b94:	0000009c 	muleq	r0, ip, r0
    2b98:	07c89c01 	strbeq	r9, [r8, r1, lsl #24]
    2b9c:	9a170000 	bls	5c2ba4 <__bss_end__+0x5b8e84>
    2ba0:	01000008 	tsteq	r0, r8
    2ba4:	002c262d 	eoreq	r2, ip, sp, lsr #12
    2ba8:	128f0000 	addne	r0, pc, #0, 0
    2bac:	12810000 	addne	r0, r1, #0, 0
    2bb0:	8f170000 	svchi	0x00170000
    2bb4:	01000008 	tsteq	r0, r8
    2bb8:	002c362d 	eoreq	r3, ip, sp, lsr #12
    2bbc:	12f70000 	rscsne	r0, r7, #0, 0
    2bc0:	12ef0000 	rscne	r0, pc, #0, 0
    2bc4:	9b1d0000 	blls	742bcc <__bss_end__+0x738eac>
    2bc8:	01000008 	tsteq	r0, r8
    2bcc:	00c20b2e 	sbceq	r0, r2, lr, lsr #22
    2bd0:	133f0000 	teqne	pc, #0, 0
    2bd4:	13310000 	teqne	r1, #0, 0
    2bd8:	430e0000 	movwmi	r0, #57344	; 0xe000
    2bdc:	d8000000 	stmdale	r0, {}	; <UNPREDICTABLE>
    2be0:	05000007 	streq	r0, [r0, #-7]
    2be4:	00989003 	addseq	r9, r8, r3
    2be8:	8f800f00 	svchi	0x00800f00
    2bec:	08bc0000 	ldmeq	ip!, {}	; <UNPREDICTABLE>
    2bf0:	077e0000 	ldrbeq	r0, [lr, -r0]!
    2bf4:	01100000 	tsteq	r0, r0
    2bf8:	04030550 	streq	r0, [r3], #-1360	; 0xfffffab0
    2bfc:	10000095 	mulne	r0, r5, r0
    2c00:	03055101 	movweq	r5, #20737	; 0x5101
    2c04:	000096f8 	strdeq	r9, [r0], -r8
    2c08:	05520110 	ldrbeq	r0, [r2, #-272]	; 0xfffffef0
    2c0c:	00989003 	addseq	r9, r8, r3
    2c10:	53011000 	movwpl	r1, #4096	; 0x1000
    2c14:	10300802 	eorsne	r0, r0, r2, lsl #16
    2c18:	05007d02 	streq	r7, [r0, #-3330]	; 0xfffff2fe
    2c1c:	00970403 	addseq	r0, r7, r3, lsl #8
    2c20:	84110000 	ldrhi	r0, [r1], #-0
    2c24:	c800008f 	stmdagt	r0, {r0, r1, r2, r3, r7}
    2c28:	0f000008 	svceq	0x00000008
    2c2c:	00008fa8 	andeq	r8, r0, r8, lsr #31
    2c30:	000008bc 			; <UNDEFINED> instruction: 0x000008bc
    2c34:	000007be 			; <UNDEFINED> instruction: 0x000007be
    2c38:	05500110 	ldrbeq	r0, [r0, #-272]	; 0xfffffef0
    2c3c:	00971003 	addseq	r1, r7, r3
    2c40:	51011000 	mrspl	r1, (UNDEF: 1)
    2c44:	96f80305 	ldrbtls	r0, [r8], r5, lsl #6
    2c48:	01100000 	tsteq	r0, r0
    2c4c:	90030552 	andls	r0, r3, r2, asr r5
    2c50:	10000098 	mulne	r0, r8, r0
    2c54:	08025301 	stmdaeq	r2, {r0, r8, r9, ip, lr}
    2c58:	7d021034 	stcvc	0, cr1, [r2, #-208]	; 0xffffff30
    2c5c:	01f30300 	mvnseq	r0, r0, lsl #6
    2c60:	ac110050 	ldcge	0, cr0, [r1], {80}	; 0x50
    2c64:	c800008f 	stmdagt	r0, {r0, r1, r2, r3, r7}
    2c68:	00000008 	andeq	r0, r0, r8
    2c6c:	00007e12 	andeq	r7, r0, r2, lsl lr
    2c70:	0007d800 	andeq	sp, r7, r0, lsl #16
    2c74:	002c1300 	eoreq	r1, ip, r0, lsl #6
    2c78:	00160000 	andseq	r0, r6, r0
    2c7c:	0007c805 	andeq	ip, r7, r5, lsl #16
    2c80:	09411f00 	stmdbeq	r1, {r8, r9, sl, fp, ip}^
    2c84:	2a010000 	bcs	42c8c <__bss_end__+0x38f6c>
    2c88:	00008a07 	andeq	r8, r0, r7, lsl #20
    2c8c:	008f1800 	addeq	r1, pc, r0, lsl #16
    2c90:	00001000 	andeq	r1, r0, r0
    2c94:	1f9c0100 	svcne	0x009c0100
    2c98:	0000087c 	andeq	r0, r0, ip, ror r8
    2c9c:	8a072901 	bhi	1cd0a8 <__bss_end__+0x1c3388>
    2ca0:	08000000 	stmdaeq	r0, {}	; <UNPREDICTABLE>
    2ca4:	1000008f 	andne	r0, r0, pc, lsl #1
    2ca8:	01000000 	mrseq	r0, (UNDEF: 0)
    2cac:	08f61f9c 	ldmeq	r6!, {r2, r3, r4, r7, r8, r9, sl, fp, ip}^
    2cb0:	28010000 	stmdacs	r1, {}	; <UNPREDICTABLE>
    2cb4:	00008a07 	andeq	r8, r0, r7, lsl #20
    2cb8:	008ef800 	addeq	pc, lr, r0, lsl #16
    2cbc:	00001000 	andeq	r1, r0, r0
    2cc0:	209c0100 	addscs	r0, ip, r0, lsl #2
    2cc4:	000008b9 			; <UNDEFINED> instruction: 0x000008b9
    2cc8:	2c181001 	ldccs	0, cr1, [r8], {1}
    2ccc:	03000000 	movweq	r0, #0
    2cd0:	00000854 	andeq	r0, r0, r4, asr r8
    2cd4:	01007821 	tsteq	r0, r1, lsr #16
    2cd8:	002c2910 	eoreq	r2, ip, r0, lsl r9
    2cdc:	6e210000 	cdpvs	0, 2, cr0, cr1, cr0, {0}
    2ce0:	35100100 	ldrcc	r0, [r0, #-256]	; 0xffffff00
    2ce4:	0000002c 	andeq	r0, r0, ip, lsr #32
    2ce8:	0000430e 	andeq	r4, r0, lr, lsl #6
    2cec:	00051800 	andeq	r1, r5, r0, lsl #16
    2cf0:	e0030500 	and	r0, r3, r0, lsl #10
    2cf4:	00000098 	muleq	r0, r8, r0
    2cf8:	00091720 	andeq	r1, r9, r0, lsr #14
    2cfc:	180d0100 	stmdane	sp, {r8}
    2d00:	0000002c 	andeq	r0, r0, ip, lsr #32
    2d04:	00087003 	andeq	r7, r8, r3
    2d08:	00782100 	rsbseq	r2, r8, r0, lsl #2
    2d0c:	2c290d01 	stccs	13, cr0, [r9], #-4
    2d10:	00000000 	andeq	r0, r0, r0
    2d14:	00093620 	andeq	r3, r9, r0, lsr #12
    2d18:	18070100 	stmdane	r7, {r8}
    2d1c:	0000002c 	andeq	r0, r0, ip, lsr #32
    2d20:	00089603 	andeq	r9, r8, r3, lsl #12
    2d24:	00782100 	rsbseq	r2, r8, r0, lsl #2
    2d28:	2c2c0701 	stccs	7, cr0, [ip], #-4
    2d2c:	21000000 	mrscs	r0, (UNDEF: 0)
    2d30:	0701006e 	streq	r0, [r1, -lr, rrx]
    2d34:	00002c38 	andeq	r2, r0, r8, lsr ip
    2d38:	e8200000 	stmda	r0!, {}	; <UNPREDICTABLE>
    2d3c:	01000008 	tsteq	r0, r8
    2d40:	005d1804 	subseq	r1, sp, r4, lsl #16
    2d44:	bc030000 	stclt	0, cr0, [r3], {-0}
    2d48:	21000008 	tstcs	r0, r8
    2d4c:	04010078 	streq	r0, [r1], #-120	; 0xffffff88
    2d50:	00005d29 	andeq	r5, r0, r9, lsr #26
    2d54:	00792100 	rsbseq	r2, r9, r0, lsl #2
    2d58:	5d350401 	cfldrspl	mvf0, [r5, #-4]!
    2d5c:	00000000 	andeq	r0, r0, r0
    2d60:	00032822 	andeq	r2, r3, r2, lsr #16
    2d64:	00032800 	andeq	r2, r3, r0, lsl #16
    2d68:	06280200 	strteq	r0, [r8], -r0, lsl #4
    2d6c:	00001622 	andeq	r1, r0, r2, lsr #12
    2d70:	00001600 	andeq	r1, r0, r0, lsl #12
    2d74:	066e0200 	strbteq	r0, [lr], -r0, lsl #4
    2d78:	0001d622 	andeq	sp, r1, r2, lsr #12
    2d7c:	0001d600 	andeq	sp, r1, r0, lsl #12
    2d80:	061d0200 	ldreq	r0, [sp], -r0, lsl #4
    2d84:	0008d722 	andeq	sp, r8, r2, lsr #14
    2d88:	0008d700 	andeq	sp, r8, r0, lsl #14
    2d8c:	07f70200 	ldrbeq	r0, [r7, r0, lsl #4]!
    2d90:	00013a00 	andeq	r3, r1, r0, lsl #20
    2d94:	3d000400 	cfstrscc	mvf0, [r0, #-0]
    2d98:	04000011 	streq	r0, [r0], #-17	; 0xffffffef
    2d9c:	00025601 	andeq	r5, r2, r1, lsl #12
    2da0:	09800c00 	stmibeq	r0, {sl, fp}
    2da4:	035d0000 	cmpeq	sp, #0, 0
    2da8:	92a80000 	adcls	r0, r8, #0, 0
    2dac:	00180000 	andseq	r0, r8, r0
    2db0:	182e0000 	stmdane	lr!, {}	; <UNPREDICTABLE>
    2db4:	04020000 	streq	r0, [r2], #-0
    2db8:	746e6905 	strbtvc	r6, [lr], #-2309	; 0xfffff6fb
    2dbc:	09790300 	ldmdbeq	r9!, {r8, r9}^
    2dc0:	d1030000 	mrsle	r0, (UNDEF: 3)
    2dc4:	00003817 	andeq	r3, r0, r7, lsl r8
    2dc8:	07040400 	streq	r0, [r4, -r0, lsl #8]
    2dcc:	00000061 	andeq	r0, r0, r1, rrx
    2dd0:	0a060104 	beq	1831e8 <__bss_end__+0x1794c8>
    2dd4:	04000000 	streq	r0, [r0], #-0
    2dd8:	010d0502 	tsteq	sp, r2, lsl #10
    2ddc:	04040000 	streq	r0, [r4], #-0
    2de0:	00009b05 	andeq	r9, r0, r5, lsl #22
    2de4:	05080400 	streq	r0, [r8, #-1024]	; 0xfffffc00
    2de8:	00000096 	muleq	r0, r6, r0
    2dec:	08080104 	stmdaeq	r8, {r2, r8}
    2df0:	04000000 	streq	r0, [r0], #-0
    2df4:	00230702 	eoreq	r0, r3, r2, lsl #14
    2df8:	04040000 	streq	r0, [r4], #-0
    2dfc:	00005c07 	andeq	r5, r0, r7, lsl #24
    2e00:	07080400 	streq	r0, [r8, -r0, lsl #8]
    2e04:	00000057 	andeq	r0, r0, r7, asr r0
    2e08:	00002505 	andeq	r2, r0, r5, lsl #10
    2e0c:	00008600 	andeq	r8, r0, r0, lsl #12
    2e10:	00250600 	eoreq	r0, r5, r0, lsl #12
    2e14:	07000000 	streq	r0, [r0, -r0]
    2e18:	000000a4 	andeq	r0, r0, r4, lsr #1
    2e1c:	920e1c02 	andls	r1, lr, #512	; 0x200
    2e20:	08000000 	stmdaeq	r0, {}	; <UNPREDICTABLE>
    2e24:	00007704 	andeq	r7, r0, r4, lsl #14
    2e28:	00250500 	eoreq	r0, r5, r0, lsl #10
    2e2c:	00a70000 	adceq	r0, r7, r0
    2e30:	a7060000 	strge	r0, [r6, -r0]
    2e34:	00000000 	andeq	r0, r0, r0
    2e38:	00b40408 	adcseq	r0, r4, r8, lsl #8
    2e3c:	01040000 	mrseq	r0, (UNDEF: 4)
    2e40:	00001108 	andeq	r1, r0, r8, lsl #2
    2e44:	00ad0900 	adceq	r0, sp, r0, lsl #18
    2e48:	e7070000 	str	r0, [r7, -r0]
    2e4c:	02000003 	andeq	r0, r0, #3, 0
    2e50:	00c50e21 	sbceq	r0, r5, r1, lsr #28
    2e54:	04080000 	streq	r0, [r8], #-0
    2e58:	00000098 	muleq	r0, r8, r0
    2e5c:	0008d70a 	andeq	sp, r8, sl, lsl #14
    2e60:	07040100 	streq	r0, [r4, -r0, lsl #2]
    2e64:	00000135 	andeq	r0, r0, r5, lsr r1
    2e68:	000092a8 	andeq	r9, r0, r8, lsr #5
    2e6c:	00000018 	andeq	r0, r0, r8, lsl r0
    2e70:	01359c01 	teqeq	r5, r1, lsl #24
    2e74:	5f0b0000 	svcpl	0x000b0000
    2e78:	04010070 	streq	r0, [r1], #-112	; 0xffffff90
    2e7c:	00013514 	andeq	r3, r1, r4, lsl r5
    2e80:	0b500100 	bleq	1403288 <__bss_end__+0x13f9568>
    2e84:	04010063 	streq	r0, [r1], #-99	; 0xffffff9d
    2e88:	0000251c 	andeq	r2, r0, ip, lsl r5
    2e8c:	0c510100 	ldfeqe	f0, [r1], {-0}
    2e90:	0401006e 	streq	r0, [r1], #-110	; 0xffffff92
    2e94:	00002c26 	andeq	r2, r0, r6, lsr #24
    2e98:	0013a300 	andseq	sl, r3, r0, lsl #6
    2e9c:	00139f00 	andseq	r9, r3, r0, lsl #30
    2ea0:	00700d00 	rsbseq	r0, r0, r0, lsl #26
    2ea4:	370b0501 	strcc	r0, [fp, -r1, lsl #10]
    2ea8:	cc000001 	stcgt	0, cr0, [r0], {1}
    2eac:	c4000013 	strgt	r0, [r0], #-19	; 0xffffffed
    2eb0:	0d000013 	stceq	0, cr0, [r0, #-76]	; 0xffffffb4
    2eb4:	05010065 	streq	r0, [r1, #-101]	; 0xffffff9b
    2eb8:	00013714 	andeq	r3, r1, r4, lsl r7
    2ebc:	00140400 	andseq	r0, r4, r0, lsl #8
    2ec0:	00140200 	andseq	r0, r4, r0, lsl #4
    2ec4:	040e0000 	streq	r0, [lr], #-0
    2ec8:	00ad0408 	adceq	r0, sp, r8, lsl #8
    2ecc:	37000000 	strcc	r0, [r0, -r0]
    2ed0:	04000001 	streq	r0, [r0], #-1
    2ed4:	00120900 	andseq	r0, r2, r0, lsl #18
    2ed8:	56010400 	strpl	r0, [r1], -r0, lsl #8
    2edc:	0c000002 	stceq	0, cr0, [r0], {2}
    2ee0:	00000995 	muleq	r0, r5, r9
    2ee4:	0000035d 	andeq	r0, r0, sp, asr r3
    2ee8:	000092c0 	andeq	r9, r0, r0, asr #5
    2eec:	00000034 	andeq	r0, r0, r4, lsr r0
    2ef0:	00001946 	andeq	r1, r0, r6, asr #18
    2ef4:	69050402 	stmdbvs	r5, {r1, sl}
    2ef8:	0300746e 	movweq	r7, #1134	; 0x46e
    2efc:	00610704 	rsbeq	r0, r1, r4, lsl #14
    2f00:	01030000 	mrseq	r0, (UNDEF: 3)
    2f04:	00000a06 	andeq	r0, r0, r6, lsl #20
    2f08:	05020300 	streq	r0, [r2, #-768]	; 0xfffffd00
    2f0c:	0000010d 	andeq	r0, r0, sp, lsl #2
    2f10:	9b050403 	blls	143f24 <__bss_end__+0x13a204>
    2f14:	03000000 	movweq	r0, #0
    2f18:	00960508 	addseq	r0, r6, r8, lsl #10
    2f1c:	01030000 	mrseq	r0, (UNDEF: 3)
    2f20:	00000808 	andeq	r0, r0, r8, lsl #16
    2f24:	07020300 	streq	r0, [r2, -r0, lsl #6]
    2f28:	00000023 	andeq	r0, r0, r3, lsr #32
    2f2c:	5c070403 	cfstrspl	mvf0, [r7], {3}
    2f30:	03000000 	movweq	r0, #0
    2f34:	00570708 	subseq	r0, r7, r8, lsl #14
    2f38:	25040000 	strcs	r0, [r4, #-0]
    2f3c:	7a000000 	bvc	2f44 <__code_start__-0x50bc>
    2f40:	05000000 	streq	r0, [r0, #-0]
    2f44:	00000025 	andeq	r0, r0, r5, lsr #32
    2f48:	00a40600 	adceq	r0, r4, r0, lsl #12
    2f4c:	1c020000 	stcne	0, cr0, [r2], {-0}
    2f50:	0000860e 	andeq	r8, r0, lr, lsl #12
    2f54:	6b040700 	blvs	104b5c <__bss_end__+0xfae3c>
    2f58:	04000000 	streq	r0, [r0], #-0
    2f5c:	00000025 	andeq	r0, r0, r5, lsr #32
    2f60:	0000009b 	muleq	r0, fp, r0
    2f64:	00009b05 	andeq	r9, r0, r5, lsl #22
    2f68:	04070000 	streq	r0, [r7], #-0
    2f6c:	000000a8 	andeq	r0, r0, r8, lsr #1
    2f70:	11080103 	tstne	r8, r3, lsl #2
    2f74:	08000000 	stmdaeq	r0, {}	; <UNPREDICTABLE>
    2f78:	000000a1 	andeq	r0, r0, r1, lsr #1
    2f7c:	0003e706 	andeq	lr, r3, r6, lsl #14
    2f80:	0e210200 	cdpeq	2, 2, cr0, cr1, cr0, {0}
    2f84:	000000b9 	strheq	r0, [r0], -r9
    2f88:	008c0407 	addeq	r0, ip, r7, lsl #8
    2f8c:	c2090000 	andgt	r0, r9, #0, 0
    2f90:	01000004 	tsteq	r0, r4
    2f94:	01340704 	teqeq	r4, r4, lsl #14
    2f98:	92c00000 	sbcls	r0, r0, #0, 0
    2f9c:	00340000 	eorseq	r0, r4, r0
    2fa0:	9c010000 	stcls	0, cr0, [r1], {-0}
    2fa4:	00000134 	andeq	r0, r0, r4, lsr r1
    2fa8:	0009900a 	andeq	r9, r9, sl
    2fac:	15040100 	strne	r0, [r4, #-256]	; 0xffffff00
    2fb0:	00000134 	andeq	r0, r0, r4, lsr r1
    2fb4:	730b5001 	movwvc	r5, #45057	; 0xb001
    2fb8:	01006372 	tsteq	r0, r2, ror r3
    2fbc:	009b2704 	addseq	r2, fp, r4, lsl #14
    2fc0:	141b0000 	ldrne	r0, [fp], #-0
    2fc4:	14170000 	ldrne	r0, [r7], #-0
    2fc8:	730c0000 	movwvc	r0, #49152	; 0xc000
    2fcc:	05010031 	streq	r0, [r1, #-49]	; 0xffffffcf
    2fd0:	0001340b 	andeq	r3, r1, fp, lsl #8
    2fd4:	00144600 	andseq	r4, r4, r0, lsl #12
    2fd8:	00143c00 	andseq	r3, r4, r0, lsl #24
    2fdc:	32730c00 	rsbscc	r0, r3, #0, 24
    2fe0:	11060100 	mrsne	r0, (UNDEF: 22)
    2fe4:	0000009b 	muleq	r0, fp, r0
    2fe8:	0000148b 	andeq	r1, r0, fp, lsl #9
    2fec:	00001487 	andeq	r1, r0, r7, lsl #9
    2ff0:	0100630c 	tsteq	r0, ip, lsl #6
    2ff4:	00a10a07 	adceq	r0, r1, r7, lsl #20
    2ff8:	14af0000 	strtne	r0, [pc], #0	; 3000 <__code_start__-0x5000>
    2ffc:	14ab0000 	strtne	r0, [fp], #0
    3000:	07000000 	streq	r0, [r0, -r0]
    3004:	0000a104 	andeq	sl, r0, r4, lsl #2
    3008:	00f70000 	rscseq	r0, r7, r0
    300c:	00040000 	andeq	r0, r4, r0
    3010:	000012bf 			; <UNDEFINED> instruction: 0x000012bf
    3014:	02560104 	subseq	r0, r6, #1
    3018:	a50c0000 	strge	r0, [ip, #-0]
    301c:	5d000009 	stcpl	0, cr0, [r0, #-36]	; 0xffffffdc
    3020:	f4000003 	vst4.8	{d0-d3}, [r0], r3
    3024:	2c000092 	stccs	0, cr0, [r0], {146}	; 0x92
    3028:	54000000 	strpl	r0, [r0], #-0
    302c:	0200001a 	andeq	r0, r0, #26, 0
    3030:	6e690504 	cdpvs	5, 6, cr0, cr9, cr4, {0}
    3034:	04030074 	streq	r0, [r3], #-116	; 0xffffff8c
    3038:	00006107 	andeq	r6, r0, r7, lsl #2
    303c:	06010300 	streq	r0, [r1], -r0, lsl #6
    3040:	0000000a 	andeq	r0, r0, sl
    3044:	0d050203 	sfmeq	f0, 4, [r5, #-12]
    3048:	03000001 	movweq	r0, #1
    304c:	009b0504 	addseq	r0, fp, r4, lsl #10
    3050:	08030000 	stmdaeq	r3, {}	; <UNPREDICTABLE>
    3054:	00009605 	andeq	r9, r0, r5, lsl #12
    3058:	08010300 	stmdaeq	r1, {r8, r9}
    305c:	00000008 	andeq	r0, r0, r8
    3060:	23070203 	movwcs	r0, #29187	; 0x7203
    3064:	03000000 	movweq	r0, #0
    3068:	005c0704 	subseq	r0, ip, r4, lsl #14
    306c:	08030000 	stmdaeq	r3, {}	; <UNPREDICTABLE>
    3070:	00005707 	andeq	r5, r0, r7, lsl #14
    3074:	00250400 	eoreq	r0, r5, r0, lsl #8
    3078:	007a0000 	rsbseq	r0, sl, r0
    307c:	25050000 	strcs	r0, [r5, #-0]
    3080:	00000000 	andeq	r0, r0, r0
    3084:	0000a406 	andeq	sl, r0, r6, lsl #8
    3088:	0e1c0200 	cdpeq	2, 1, cr0, cr12, cr0, {0}
    308c:	00000086 	andeq	r0, r0, r6, lsl #1
    3090:	006b0407 	rsbeq	r0, fp, r7, lsl #8
    3094:	25040000 	strcs	r0, [r4, #-0]
    3098:	9b000000 	blls	30a0 <__code_start__-0x4f60>
    309c:	05000000 	streq	r0, [r0, #-0]
    30a0:	0000009b 	muleq	r0, fp, r0
    30a4:	a8040700 	stmdage	r4, {r8, r9, sl}
    30a8:	03000000 	movweq	r0, #0
    30ac:	00110801 	andseq	r0, r1, r1, lsl #16
    30b0:	a1080000 	mrsge	r0, (UNDEF: 8)
    30b4:	06000000 	streq	r0, [r0], -r0
    30b8:	000003e7 	andeq	r0, r0, r7, ror #7
    30bc:	b90e2102 	stmdblt	lr, {r1, r8, sp}
    30c0:	07000000 	streq	r0, [r0, -r0]
    30c4:	00008c04 	andeq	r8, r0, r4, lsl #24
    30c8:	04c90900 	strbeq	r0, [r9], #2304	; 0x900
    30cc:	03010000 	movweq	r0, #4096	; 0x1000
    30d0:	00002505 	andeq	r2, r0, r5, lsl #10
    30d4:	0092f400 	addseq	pc, r2, r0, lsl #8
    30d8:	00002c00 	andeq	r2, r0, r0, lsl #24
    30dc:	0a9c0100 	beq	fe7034e4 <__bss_end__+0xfe6f97c4>
    30e0:	03010061 	movweq	r0, #4193	; 0x1061
    30e4:	00009b18 	andeq	r9, r0, r8, lsl fp
    30e8:	0014d100 	andseq	sp, r4, r0, lsl #2
    30ec:	0014cd00 	andseq	ip, r4, r0, lsl #26
    30f0:	00620a00 	rsbeq	r0, r2, r0, lsl #20
    30f4:	9b270301 	blls	9c3d00 <__bss_end__+0x9b9fe0>
    30f8:	f3000000 	vhadd.u8	d0, d0, d0
    30fc:	ef000014 	svc	0x00000014
    3100:	00000014 	andeq	r0, r0, r4, lsl r0
    3104:	00010f00 	andeq	r0, r1, r0, lsl #30
    3108:	4e000400 	cfcpysmi	mvf0, mvf0
    310c:	04000013 	streq	r0, [r0], #-19	; 0xffffffed
    3110:	00025601 	andeq	r5, r2, r1, lsl #12
    3114:	09b50c00 	ldmibeq	r5!, {sl, fp}
    3118:	035d0000 	cmpeq	sp, #0, 0
    311c:	93200000 	nopls	{0}	; <UNPREDICTABLE>
    3120:	00200000 	eoreq	r0, r0, r0
    3124:	1b1b0000 	blne	6c312c <__bss_end__+0x6b940c>
    3128:	04020000 	streq	r0, [r2], #-0
    312c:	746e6905 	strbtvc	r6, [lr], #-2309	; 0xfffff6fb
    3130:	07040300 	streq	r0, [r4, -r0, lsl #6]
    3134:	00000061 	andeq	r0, r0, r1, rrx
    3138:	0a060103 	beq	18354c <__bss_end__+0x17982c>
    313c:	03000000 	movweq	r0, #0
    3140:	010d0502 	tsteq	sp, r2, lsl #10
    3144:	04030000 	streq	r0, [r3], #-0
    3148:	00009b05 	andeq	r9, r0, r5, lsl #22
    314c:	05080300 	streq	r0, [r8, #-768]	; 0xfffffd00
    3150:	00000096 	muleq	r0, r6, r0
    3154:	08080103 	stmdaeq	r8, {r0, r1, r8}
    3158:	03000000 	movweq	r0, #0
    315c:	00230702 	eoreq	r0, r3, r2, lsl #14
    3160:	04030000 	streq	r0, [r3], #-0
    3164:	00005c07 	andeq	r5, r0, r7, lsl #24
    3168:	07080300 	streq	r0, [r8, -r0, lsl #6]
    316c:	00000057 	andeq	r0, r0, r7, asr r0
    3170:	00002504 	andeq	r2, r0, r4, lsl #10
    3174:	00007a00 	andeq	r7, r0, r0, lsl #20
    3178:	00250500 	eoreq	r0, r5, r0, lsl #10
    317c:	06000000 	streq	r0, [r0], -r0
    3180:	000000a4 	andeq	r0, r0, r4, lsr #1
    3184:	860e1c02 	strhi	r1, [lr], -r2, lsl #24
    3188:	07000000 	streq	r0, [r0, -r0]
    318c:	00006b04 	andeq	r6, r0, r4, lsl #22
    3190:	00250400 	eoreq	r0, r5, r0, lsl #8
    3194:	009b0000 	addseq	r0, fp, r0
    3198:	9b050000 	blls	1431a0 <__bss_end__+0x139480>
    319c:	00000000 	andeq	r0, r0, r0
    31a0:	00a80407 	adceq	r0, r8, r7, lsl #8
    31a4:	01030000 	mrseq	r0, (UNDEF: 3)
    31a8:	00001108 	andeq	r1, r0, r8, lsl #2
    31ac:	00a10800 	adceq	r0, r1, r0, lsl #16
    31b0:	e7060000 	str	r0, [r6, -r0]
    31b4:	02000003 	andeq	r0, r0, #3, 0
    31b8:	00b90e21 	adcseq	r0, r9, r1, lsr #28
    31bc:	04070000 	streq	r0, [r7], #-0
    31c0:	0000008c 	andeq	r0, r0, ip, lsl #1
    31c4:	00049309 	andeq	r9, r4, r9, lsl #6
    31c8:	07030100 	streq	r0, [r3, -r0, lsl #2]
    31cc:	0000010c 	andeq	r0, r0, ip, lsl #2
    31d0:	00009320 	andeq	r9, r0, r0, lsr #6
    31d4:	00000020 	andeq	r0, r0, r0, lsr #32
    31d8:	010c9c01 	tsteq	ip, r1, lsl #24
    31dc:	730a0000 	movwvc	r0, #40960	; 0xa000
    31e0:	03010031 	movweq	r0, #4145	; 0x1031
    31e4:	00010c15 	andeq	r0, r1, r5, lsl ip
    31e8:	0b500100 	bleq	14035f0 <__bss_end__+0x13f98d0>
    31ec:	01003273 	tsteq	r0, r3, ror r2
    31f0:	009b2603 	addseq	r2, fp, r3, lsl #12
    31f4:	15170000 	ldrne	r0, [r7, #-0]
    31f8:	15110000 	ldrne	r0, [r1, #-0]
    31fc:	730c0000 	movwvc	r0, #49152	; 0xc000
    3200:	14040100 	strne	r0, [r4], #-256	; 0xffffff00
    3204:	0000010c 	andeq	r0, r0, ip, lsl #2
    3208:	00001548 	andeq	r1, r0, r8, asr #10
    320c:	00001542 	andeq	r1, r0, r2, asr #10
    3210:	a1040700 	tstge	r4, r0, lsl #14
    3214:	00000000 	andeq	r0, r0, r0
    3218:	0000014e 	andeq	r0, r0, lr, asr #2
    321c:	14040004 	strne	r0, [r4], #-4
    3220:	01040000 	mrseq	r0, (UNDEF: 4)
    3224:	00000256 	andeq	r0, r0, r6, asr r2
    3228:	0009c50c 	andeq	ip, r9, ip, lsl #10
    322c:	00035d00 	andeq	r5, r3, r0, lsl #26
    3230:	00007000 	andeq	r7, r0, r0
    3234:	00000000 	andeq	r0, r0, r0
    3238:	001be000 	andseq	lr, fp, r0
    323c:	05040200 	streq	r0, [r4, #-512]	; 0xfffffe00
    3240:	00746e69 	rsbseq	r6, r4, r9, ror #28
    3244:	00097903 	andeq	r7, r9, r3, lsl #18
    3248:	17d10300 	ldrbne	r0, [r1, r0, lsl #6]
    324c:	00000038 	andeq	r0, r0, r8, lsr r0
    3250:	61070404 	tstvs	r7, r4, lsl #8
    3254:	04000000 	streq	r0, [r0], #-0
    3258:	000a0601 	andeq	r0, sl, r1, lsl #12
    325c:	02040000 	andeq	r0, r4, #0, 0
    3260:	00010d05 	andeq	r0, r1, r5, lsl #26
    3264:	05040400 	streq	r0, [r4, #-1024]	; 0xfffffc00
    3268:	0000009b 	muleq	r0, fp, r0
    326c:	96050804 	strls	r0, [r5], -r4, lsl #16
    3270:	04000000 	streq	r0, [r0], #-0
    3274:	00080801 	andeq	r0, r8, r1, lsl #16
    3278:	5b050000 	blpl	143280 <__bss_end__+0x139560>
    327c:	04000000 	streq	r0, [r0], #-0
    3280:	00230702 	eoreq	r0, r3, r2, lsl #14
    3284:	04040000 	streq	r0, [r4], #-0
    3288:	00005c07 	andeq	r5, r0, r7, lsl #24
    328c:	07080400 	streq	r0, [r8, -r0, lsl #8]
    3290:	00000057 	andeq	r0, r0, r7, asr r0
    3294:	00002506 	andeq	r2, r0, r6, lsl #10
    3298:	00008b00 	andeq	r8, r0, r0, lsl #22
    329c:	00250700 	eoreq	r0, r5, r0, lsl #14
    32a0:	08000000 	stmdaeq	r0, {}	; <UNPREDICTABLE>
    32a4:	000000a4 	andeq	r0, r0, r4, lsr #1
    32a8:	970e1c02 	strls	r1, [lr, -r2, lsl #24]
    32ac:	09000000 	stmdbeq	r0, {}	; <UNPREDICTABLE>
    32b0:	00007c04 	andeq	r7, r0, r4, lsl #24
    32b4:	00250600 	eoreq	r0, r5, r0, lsl #12
    32b8:	00ac0000 	adceq	r0, ip, r0
    32bc:	ac070000 	stcge	0, cr0, [r7], {-0}
    32c0:	00000000 	andeq	r0, r0, r0
    32c4:	00b90409 	adcseq	r0, r9, r9, lsl #8
    32c8:	01040000 	mrseq	r0, (UNDEF: 4)
    32cc:	00001108 	andeq	r1, r0, r8, lsl #2
    32d0:	00b20500 	adcseq	r0, r2, r0, lsl #10
    32d4:	e7080000 	str	r0, [r8, -r0]
    32d8:	02000003 	andeq	r0, r0, #3, 0
    32dc:	00ca0e21 	sbceq	r0, sl, r1, lsr #28
    32e0:	04090000 	streq	r0, [r9], #-0
    32e4:	0000009d 	muleq	r0, sp, r0
    32e8:	0004f10a 	andeq	pc, r4, sl, lsl #2
    32ec:	05040100 	streq	r0, [r4, #-256]	; 0xffffff00
    32f0:	00000025 	andeq	r0, r0, r5, lsr #32
    32f4:	00009340 	andeq	r9, r0, r0, asr #6
    32f8:	0000002c 	andeq	r0, r0, ip, lsr #32
    32fc:	014b9c01 	cmpeq	fp, r1, lsl #24
    3300:	5f0b0000 	svcpl	0x000b0000
    3304:	01003173 	tsteq	r0, r3, ror r1
    3308:	00ac1904 	adceq	r1, ip, r4, lsl #18
    330c:	15770000 	ldrbne	r0, [r7, #-0]!
    3310:	15730000 	ldrbne	r0, [r3, #-0]!
    3314:	5f0b0000 	svcpl	0x000b0000
    3318:	01003273 	tsteq	r0, r3, ror r2
    331c:	00ac2a04 	adceq	r2, ip, r4, lsl #20
    3320:	159c0000 	ldrne	r0, [ip]
    3324:	15980000 	ldrne	r0, [r8]
    3328:	6e0b0000 	cdpvs	0, 0, cr0, cr11, cr0, {0}
    332c:	36040100 	strcc	r0, [r4], -r0, lsl #2
    3330:	0000002c 	andeq	r0, r0, ip, lsr #32
    3334:	000015c3 	andeq	r1, r0, r3, asr #11
    3338:	000015bd 			; <UNDEFINED> instruction: 0x000015bd
    333c:	0031730c 	eorseq	r7, r1, ip, lsl #6
    3340:	4b1a0501 	blmi	68474c <__bss_end__+0x67aa2c>
    3344:	f6000001 			; <UNDEFINED> instruction: 0xf6000001
    3348:	ee000015 	mcr	0, 0, r0, cr0, cr5, {0}
    334c:	0c000015 	stceq	0, cr0, [r0], {21}
    3350:	01003273 	tsteq	r0, r3, ror r2
    3354:	014b2c05 	cmpeq	fp, r5, lsl #24
    3358:	16320000 	ldrtne	r0, [r2], -r0
    335c:	162c0000 	strtne	r0, [ip], -r0
    3360:	09000000 	stmdbeq	r0, {}	; <UNPREDICTABLE>
    3364:	00006204 	andeq	r6, r0, r4, lsl #4
    3368:	00ce0000 	sbceq	r0, lr, r0
    336c:	00040000 	andeq	r0, r4, r0
    3370:	000014b8 			; <UNDEFINED> instruction: 0x000014b8
    3374:	02560104 	subseq	r0, r6, #1
    3378:	d60c0000 	strle	r0, [ip], -r0
    337c:	5d000009 	stcpl	0, cr0, [r0, #-36]	; 0xffffffdc
    3380:	6c000003 	stcvs	0, cr0, [r0], {3}
    3384:	04000093 	streq	r0, [r0], #-147	; 0xffffff6d
    3388:	05000000 	streq	r0, [r0, #-0]
    338c:	0200001d 	andeq	r0, r0, #29, 0
    3390:	6e690504 	cdpvs	5, 6, cr0, cr9, cr4, {0}
    3394:	04030074 	streq	r0, [r3], #-116	; 0xffffff8c
    3398:	00006107 	andeq	r6, r0, r7, lsl #2
    339c:	06010300 	streq	r0, [r1], -r0, lsl #6
    33a0:	0000000a 	andeq	r0, r0, sl
    33a4:	0d050203 	sfmeq	f0, 4, [r5, #-12]
    33a8:	03000001 	movweq	r0, #1
    33ac:	009b0504 	addseq	r0, fp, r4, lsl #10
    33b0:	08030000 	stmdaeq	r3, {}	; <UNPREDICTABLE>
    33b4:	00009605 	andeq	r9, r0, r5, lsl #12
    33b8:	08010300 	stmdaeq	r1, {r8, r9}
    33bc:	00000008 	andeq	r0, r0, r8
    33c0:	23070203 	movwcs	r0, #29187	; 0x7203
    33c4:	03000000 	movweq	r0, #0
    33c8:	005c0704 	subseq	r0, ip, r4, lsl #14
    33cc:	08030000 	stmdaeq	r3, {}	; <UNPREDICTABLE>
    33d0:	00005707 	andeq	r5, r0, r7, lsl #14
    33d4:	00250400 	eoreq	r0, r5, r0, lsl #8
    33d8:	007a0000 	rsbseq	r0, sl, r0
    33dc:	25050000 	strcs	r0, [r5, #-0]
    33e0:	00000000 	andeq	r0, r0, r0
    33e4:	0000a406 	andeq	sl, r0, r6, lsl #8
    33e8:	0e1c0200 	cdpeq	2, 1, cr0, cr12, cr0, {0}
    33ec:	00000086 	andeq	r0, r0, r6, lsl #1
    33f0:	006b0407 	rsbeq	r0, fp, r7, lsl #8
    33f4:	25040000 	strcs	r0, [r4, #-0]
    33f8:	9b000000 	blls	3400 <__code_start__-0x4c00>
    33fc:	05000000 	streq	r0, [r0, #-0]
    3400:	0000009b 	muleq	r0, fp, r0
    3404:	a8040700 	stmdage	r4, {r8, r9, sl}
    3408:	03000000 	movweq	r0, #0
    340c:	00110801 	andseq	r0, r1, r1, lsl #16
    3410:	a1080000 	mrsge	r0, (UNDEF: 8)
    3414:	06000000 	streq	r0, [r0], -r0
    3418:	000003e7 	andeq	r0, r0, r7, ror #7
    341c:	b90e2102 	stmdblt	lr, {r1, r8, sp}
    3420:	07000000 	streq	r0, [r0, -r0]
    3424:	00008c04 	andeq	r8, r0, r4, lsl #24
    3428:	05980900 	ldreq	r0, [r8, #2304]	; 0x900
    342c:	03010000 	movweq	r0, #4096	; 0x1000
    3430:	00936c06 	addseq	r6, r3, r6, lsl #24
    3434:	00000400 	andeq	r0, r0, r0, lsl #8
    3438:	009c0100 	addseq	r0, ip, r0, lsl #2
    343c:	000003a5 	andeq	r0, r0, r5, lsr #7
    3440:	15310004 	ldrne	r0, [r1, #-4]!
    3444:	01040000 	mrseq	r0, (UNDEF: 4)
    3448:	00000774 	andeq	r0, r0, r4, ror r7
    344c:	000a7a0c 	andeq	r7, sl, ip, lsl #20
    3450:	00072400 	andeq	r2, r7, r0, lsl #8
    3454:	00938800 	addseq	r8, r3, r0, lsl #16
    3458:	00011c00 	andeq	r1, r1, r0, lsl #24
    345c:	001db900 	andseq	fp, sp, r0, lsl #18
    3460:	05040200 	streq	r0, [r4, #-512]	; 0xfffffe00
    3464:	00746e69 	rsbseq	r6, r4, r9, ror #28
    3468:	61070403 	tstvs	r7, r3, lsl #8
    346c:	04000000 	streq	r0, [r0], #-0
    3470:	0000002c 	andeq	r0, r0, ip, lsr #32
    3474:	0a060103 	beq	183888 <__bss_end__+0x179b68>
    3478:	03000000 	movweq	r0, #0
    347c:	010d0502 	tsteq	sp, r2, lsl #10
    3480:	04030000 	streq	r0, [r3], #-0
    3484:	00009b05 	andeq	r9, r0, r5, lsl #22
    3488:	05080300 	streq	r0, [r8, #-768]	; 0xfffffd00
    348c:	00000096 	muleq	r0, r6, r0
    3490:	08080103 	stmdaeq	r8, {r0, r1, r8}
    3494:	03000000 	movweq	r0, #0
    3498:	00230702 	eoreq	r0, r3, r2, lsl #14
    349c:	71050000 	mrsvc	r0, (UNDEF: 5)
    34a0:	03000004 	movweq	r0, #4
    34a4:	006e1934 	rsbeq	r1, lr, r4, lsr r9
    34a8:	04030000 	streq	r0, [r3], #-0
    34ac:	00005c07 	andeq	r5, r0, r7, lsl #24
    34b0:	07080300 	streq	r0, [r8, -r0, lsl #6]
    34b4:	00000057 	andeq	r0, r0, r7, asr r0
    34b8:	11080103 	tstne	r8, r3, lsl #2
    34bc:	06000000 	streq	r0, [r0], -r0
    34c0:	00540107 	subseq	r0, r4, r7, lsl #2
    34c4:	0c040000 	stceq	0, cr0, [r4], {-0}
    34c8:	0000c20e 	andeq	ip, r0, lr, lsl #4
    34cc:	08540700 	ldmdaeq	r4, {r8, r9, sl}^
    34d0:	07000000 	streq	r0, [r0, -r0]
    34d4:	00000696 	muleq	r0, r6, r6
    34d8:	06d90701 	ldrbeq	r0, [r9], r1, lsl #14
    34dc:	07040000 	streq	r0, [r4, -r0]
    34e0:	000006e8 	andeq	r0, r0, r8, ror #13
    34e4:	06f70705 	ldrbteq	r0, [r7], r5, lsl #14
    34e8:	07060000 	streq	r0, [r6, -r0]
    34ec:	00000706 	andeq	r0, r0, r6, lsl #14
    34f0:	08270707 	stmdaeq	r7!, {r0, r1, r2, r8, r9, sl}
    34f4:	07030000 	streq	r0, [r3, -r0]
    34f8:	00000715 	andeq	r0, r0, r5, lsl r7
    34fc:	5f050002 	svcpl	0x00050002
    3500:	0400000a 	streq	r0, [r0], #-10
    3504:	00830315 	addeq	r0, r3, r5, lsl r3
    3508:	05080000 	streq	r0, [r8, #-0]
    350c:	0100000a 	tsteq	r0, sl
    3510:	0033171d 	eorseq	r1, r3, sp, lsl r7
    3514:	001c0000 	andseq	r0, ip, r0
    3518:	fb082020 	blx	20b5a2 <__bss_end__+0x201882>
    351c:	01000009 	tsteq	r0, r9
    3520:	0033171e 	eorseq	r1, r3, lr, lsl r7
    3524:	00280000 	eoreq	r0, r8, r0
    3528:	6b082020 	blvs	20b5b0 <__bss_end__+0x201890>
    352c:	0100000a 	tsteq	r0, sl
    3530:	0033171f 	eorseq	r1, r3, pc, lsl r7
    3534:	00340000 	eorseq	r0, r4, r0
    3538:	24092020 	strcs	r2, [r9], #-32	; 0xffffffe0
    353c:	0100000a 	tsteq	r0, sl
    3540:	00250555 	eoreq	r0, r5, r5, asr r5
    3544:	94700000 	ldrbtls	r0, [r0], #-0
    3548:	00340000 	eorseq	r0, r4, r0
    354c:	9c010000 	stcls	0, cr0, [r1], {-0}
    3550:	0000016e 	andeq	r0, r0, lr, ror #2
    3554:	6e69700a 	cdpvs	0, 6, cr7, cr9, cr10, {0}
    3558:	18550100 	ldmdane	r5, {r8}^
    355c:	0000002c 	andeq	r0, r0, ip, lsr #32
    3560:	00001665 	andeq	r1, r0, r5, ror #12
    3564:	0000165d 	andeq	r1, r0, sp, asr r6
    3568:	000a750b 	andeq	r7, sl, fp, lsl #10
    356c:	0e580100 	rdfeqe	f0, f0, f0
    3570:	0000002c 	andeq	r0, r0, ip, lsr #32
    3574:	000016a5 	andeq	r1, r0, r5, lsr #13
    3578:	0000169f 	muleq	r0, pc, r6	; <UNPREDICTABLE>
    357c:	66666f0c 	strbtvs	r6, [r6], -ip, lsl #30
    3580:	0e590100 	rdfeqe	f0, f1, f0
    3584:	0000002c 	andeq	r0, r0, ip, lsr #32
    3588:	000016e5 	andeq	r1, r0, r5, ror #13
    358c:	000016e3 	andeq	r1, r0, r3, ror #13
    3590:	00948c0d 	addseq	r8, r4, sp, lsl #24
    3594:	00039000 	andeq	r9, r3, r0
    3598:	50010e00 	andpl	r0, r1, r0, lsl #28
    359c:	5001f30b 	andpl	pc, r1, fp, lsl #6
    35a0:	b4232535 	strtlt	r2, [r3], #-1333	; 0xfffffacb
    35a4:	02818080 	addeq	r8, r1, #128, 0	; 0x80
    35a8:	0f0f0000 	svceq	0x000f0000
    35ac:	0100000a 	tsteq	r0, sl
    35b0:	9454064e 	ldrbls	r0, [r4], #-1614	; 0xfffff9b2
    35b4:	001c0000 	andseq	r0, ip, r0
    35b8:	9c010000 	stcls	0, cr0, [r1], {-0}
    35bc:	000001c9 	andeq	r0, r0, r9, asr #3
    35c0:	6e69700a 	cdpvs	0, 6, cr7, cr9, cr10, {0}
    35c4:	1a4e0100 	bne	13839cc <__bss_end__+0x1379cac>
    35c8:	0000002c 	andeq	r0, r0, ip, lsr #32
    35cc:	00001700 	andeq	r1, r0, r0, lsl #14
    35d0:	000016f8 	strdeq	r1, [r0], -r8
    35d4:	0100760a 	tsteq	r0, sl, lsl #12
    35d8:	002c284e 	eoreq	r2, ip, lr, asr #16
    35dc:	17420000 	strbne	r0, [r2, -r0]
    35e0:	173a0000 	ldrne	r0, [sl, -r0]!
    35e4:	64100000 	ldrvs	r0, [r0], #-0
    35e8:	51000094 	swppl	r0, r4, [r0]	; <UNPREDICTABLE>
    35ec:	bf000002 	svclt	0x00000002
    35f0:	0e000001 	cdpeq	0, 0, cr0, cr0, cr1, {0}
    35f4:	f3035001 	vhadd.u8	d5, d3, d1
    35f8:	11005001 	tstne	r0, r1
    35fc:	0000946c 	andeq	r9, r0, ip, ror #8
    3600:	0000020a 	andeq	r0, r0, sl, lsl #4
    3604:	0a2e0f00 	beq	b8720c <__bss_end__+0xb7d4ec>
    3608:	49010000 	stmdbmi	r1, {}	; <UNPREDICTABLE>
    360c:	00944406 	addseq	r4, r4, r6, lsl #8
    3610:	00001000 	andeq	r1, r0, r0
    3614:	0a9c0100 	beq	fe703a1c <__bss_end__+0xfe6f9cfc>
    3618:	0a000002 	beq	3628 <__code_start__-0x49d8>
    361c:	006e6970 	rsbeq	r6, lr, r0, ror r9
    3620:	2c1e4901 			; <UNDEFINED> instruction: 0x2c1e4901
    3624:	80000000 	andhi	r0, r0, r0
    3628:	7c000017 	stcvc	0, cr0, [r0], {23}
    362c:	0d000017 	stceq	0, cr0, [r0, #-92]	; 0xffffffa4
    3630:	00009450 	andeq	r9, r0, r0, asr r4
    3634:	000002d9 	ldrdeq	r0, [r0], -r9
    3638:	0350010e 	cmpeq	r0, #-2147483645	; 0x80000003
    363c:	0e5001f3 	mrceq	1, 2, r0, cr0, cr3, {7}
    3640:	30015101 	andcc	r5, r1, r1, lsl #2
    3644:	3d0f0000 	stccc	0, cr0, [pc, #-0]	; 364c <__code_start__-0x49b4>
    3648:	0100000a 	tsteq	r0, sl
    364c:	94200642 	strtls	r0, [r0], #-1602	; 0xfffff9be
    3650:	00240000 	eoreq	r0, r4, r0
    3654:	9c010000 	stcls	0, cr0, [r1], {-0}
    3658:	00000251 	andeq	r0, r0, r1, asr r2
    365c:	6e69700a 	cdpvs	0, 6, cr7, cr9, cr10, {0}
    3660:	1c420100 	stfnee	f0, [r2], {-0}
    3664:	0000002c 	andeq	r0, r0, ip, lsr #32
    3668:	000017a5 	andeq	r1, r0, r5, lsr #15
    366c:	000017a1 	andeq	r1, r0, r1, lsr #15
    3670:	00943c0d 	addseq	r3, r4, sp, lsl #24
    3674:	00039c00 	andeq	r9, r3, r0, lsl #24
    3678:	50010e00 	andpl	r0, r1, r0, lsl #28
    367c:	00280c05 	eoreq	r0, r8, r5, lsl #24
    3680:	010e2020 	tsteq	lr, r0, lsr #32
    3684:	f3310551 	vqrshl.u64	q0, <illegal reg q0.5>, <illegal reg q0.5>
    3688:	00245001 	eoreq	r5, r4, r1
    368c:	0a810f00 	beq	fe047294 <__bss_end__+0xfe03d574>
    3690:	3b010000 	blcc	43698 <__bss_end__+0x39978>
    3694:	0093fc06 	addseq	pc, r3, r6, lsl #24
    3698:	00002400 	andeq	r2, r0, r0, lsl #8
    369c:	989c0100 	ldmls	ip, {r8}
    36a0:	0a000002 	beq	36b0 <__code_start__-0x4950>
    36a4:	006e6970 	rsbeq	r6, lr, r0, ror r9
    36a8:	2c1b3b01 			; <UNDEFINED> instruction: 0x2c1b3b01
    36ac:	ca000000 	bgt	36b4 <__code_start__-0x494c>
    36b0:	c6000017 			; <UNDEFINED> instruction: 0xc6000017
    36b4:	0d000017 	stceq	0, cr0, [r0, #-92]	; 0xffffffa4
    36b8:	00009418 	andeq	r9, r0, r8, lsl r4
    36bc:	0000039c 	muleq	r0, ip, r3
    36c0:	0550010e 	ldrbeq	r0, [r0, #-270]	; 0xfffffef2
    36c4:	20001c0c 	andcs	r1, r0, ip, lsl #24
    36c8:	51010e20 	tstpl	r1, r0, lsr #28
    36cc:	01f33105 	mvnseq	r3, r5, lsl #2
    36d0:	00002450 	andeq	r2, r0, r0, asr r4
    36d4:	000a4a0f 	andeq	r4, sl, pc, lsl #20
    36d8:	06360100 	ldrteq	r0, [r6], -r0, lsl #2
    36dc:	000093ec 	andeq	r9, r0, ip, ror #7
    36e0:	00000010 	andeq	r0, r0, r0, lsl r0
    36e4:	02d99c01 	sbcseq	r9, r9, #256	; 0x100
    36e8:	700a0000 	andvc	r0, sl, r0
    36ec:	01006e69 	tsteq	r0, r9, ror #28
    36f0:	002c1f36 	eoreq	r1, ip, r6, lsr pc
    36f4:	17ef0000 	strbne	r0, [pc, r0]!
    36f8:	17eb0000 	strbne	r0, [fp, r0]!
    36fc:	f80d0000 			; <UNDEFINED> instruction: 0xf80d0000
    3700:	d9000093 	stmdble	r0, {r0, r1, r4, r7}
    3704:	0e000002 	cdpeq	0, 0, cr0, cr0, cr2, {0}
    3708:	f3035001 	vhadd.u8	d5, d3, d1
    370c:	010e5001 	tsteq	lr, r1
    3710:	00310151 	eorseq	r0, r1, r1, asr r1
    3714:	08640f00 	stmdaeq	r4!, {r8, r9, sl, fp}^
    3718:	28010000 	stmdacs	r1, {}	; <UNPREDICTABLE>
    371c:	00938806 	addseq	r8, r3, r6, lsl #16
    3720:	00006400 	andeq	r6, r0, r0, lsl #8
    3724:	749c0100 	ldrvc	r0, [ip], #256	; 0x100
    3728:	0a000003 	beq	373c <__code_start__-0x48c4>
    372c:	006e6970 	rsbeq	r6, lr, r0, ror r9
    3730:	2c212801 	stccs	8, cr2, [r1], #-4
    3734:	14000000 	strne	r0, [r0], #-0
    3738:	10000018 	andne	r0, r0, r8, lsl r0
    373c:	12000018 	andne	r0, r0, #24, 0
    3740:	00000a5a 	andeq	r0, r0, sl, asr sl
    3744:	c2322801 	eorsgt	r2, r2, #65536	; 0x10000
    3748:	39000000 	stmdbcc	r0, {}	; <UNPREDICTABLE>
    374c:	35000018 	strcc	r0, [r0, #-24]	; 0xffffffe8
    3750:	0c000018 	stceq	0, cr0, [r0], {24}
    3754:	0066666f 	rsbeq	r6, r6, pc, ror #12
    3758:	2c0e2d01 	stccs	13, cr2, [lr], {1}
    375c:	5c000000 	stcpl	0, cr0, [r0], {-0}
    3760:	5a000018 	bpl	37c8 <__code_start__-0x4838>
    3764:	0c000018 	stceq	0, cr0, [r0], {24}
    3768:	2e010067 	cdpcs	0, 0, cr0, cr1, cr7, {3}
    376c:	00002c0e 	andeq	r2, r0, lr, lsl #24
    3770:	00187100 	andseq	r7, r8, r0, lsl #2
    3774:	00186f00 	andseq	r6, r8, r0, lsl #30
    3778:	00760c00 	rsbseq	r0, r6, r0, lsl #24
    377c:	2c0e3001 	stccs	0, cr3, [lr], {1}
    3780:	8c000000 	stchi	0, cr0, [r0], {-0}
    3784:	84000018 	strhi	r0, [r0], #-24	; 0xffffffe8
    3788:	10000018 	andne	r0, r0, r8, lsl r0
    378c:	000093d0 	ldrdeq	r9, [r0], -r0
    3790:	00000390 	muleq	r0, r0, r3
    3794:	00000363 	andeq	r0, r0, r3, ror #6
    3798:	0250010e 	subseq	r0, r0, #-2147483645	; 0x80000003
    379c:	0d000076 	stceq	0, cr0, [r0, #-472]	; 0xfffffe28
    37a0:	000093e4 	andeq	r9, r0, r4, ror #7
    37a4:	0000039c 	muleq	r0, ip, r3
    37a8:	0250010e 	subseq	r0, r0, #-2147483645	; 0x80000003
    37ac:	00000076 	andeq	r0, r0, r6, ror r0
    37b0:	000a1a13 	andeq	r1, sl, r3, lsl sl
    37b4:	18b60200 	ldmne	r6!, {r9}
    37b8:	00000062 	andeq	r0, r0, r2, rrx
    37bc:	00039003 	andeq	r9, r3, r3
    37c0:	00781400 	rsbseq	r1, r8, r0, lsl #8
    37c4:	622bb602 	eorvs	fp, fp, #2097152	; 0x200000
    37c8:	00000000 	andeq	r0, r0, r0
    37cc:	00064315 	andeq	r4, r6, r5, lsl r3
    37d0:	00064300 	andeq	r4, r6, r0, lsl #6
    37d4:	0ac70200 	beq	ff1c3fdc <__bss_end__+0xff1ba2bc>
    37d8:	0005af15 	andeq	sl, r5, r5, lsl pc
    37dc:	0005af00 	andeq	sl, r5, r0, lsl #30
    37e0:	06b20200 	ldrteq	r0, [r2], r0, lsl #4
	...

Disassembly of section .debug_abbrev:

00000000 <.debug_abbrev>:
       0:	25011101 	strcs	r1, [r1, #-257]	; 0xfffffeff
       4:	030b130e 	movweq	r1, #45838	; 0xb30e
       8:	110e1b0e 	tstne	lr, lr, lsl #22
       c:	10061201 	andne	r1, r6, r1, lsl #4
      10:	02000017 	andeq	r0, r0, #23, 0
      14:	0b0b0024 	bleq	2c00ac <__bss_end__+0x2b638c>
      18:	08030b3e 	stmdaeq	r3, {r1, r2, r3, r4, r5, r8, r9, fp}
      1c:	24030000 	strcs	r0, [r3], #-0
      20:	3e0b0b00 	vmlacc.f64	d0, d11, d0
      24:	000e030b 	andeq	r0, lr, fp, lsl #6
      28:	00160400 	andseq	r0, r6, r0, lsl #8
      2c:	0b3a0e03 	bleq	e83840 <__bss_end__+0xe79b20>
      30:	0b390b3b 	bleq	e42d24 <__bss_end__+0xe39004>
      34:	00001349 	andeq	r1, r0, r9, asr #6
      38:	27011505 	strcs	r1, [r1, -r5, lsl #10]
      3c:	01134919 	tsteq	r3, r9, lsl r9
      40:	06000013 			; <UNDEFINED> instruction: 0x06000013
      44:	13490005 	movtne	r0, #36869	; 0x9005
      48:	34070000 	strcc	r0, [r7], #-0
      4c:	3a0e0300 	bcc	380c54 <__bss_end__+0x376f34>
      50:	390b3b0b 	stmdbcc	fp, {r0, r1, r3, r8, r9, fp, ip, sp}
      54:	3f13490b 	svccc	0x0013490b
      58:	00193c19 	andseq	r3, r9, r9, lsl ip
      5c:	000f0800 	andeq	r0, pc, r0, lsl #16
      60:	13490b0b 	movtne	r0, #39691	; 0x9b0b
      64:	26090000 	strcs	r0, [r9], -r0
      68:	00134900 	andseq	r4, r3, r0, lsl #18
      6c:	012e0a00 			; <UNDEFINED> instruction: 0x012e0a00
      70:	0e03193f 			; <UNDEFINED> instruction: 0x0e03193f
      74:	0b3b0b3a 	bleq	ec2d64 <__bss_end__+0xeb9044>
      78:	19270b39 	stmdbne	r7!, {r0, r3, r4, r5, r8, r9, fp}
      7c:	06120111 			; <UNDEFINED> instruction: 0x06120111
      80:	42971840 	addsmi	r1, r7, #64, 16	; 0x400000
      84:	00130119 	andseq	r0, r3, r9, lsl r1
      88:	00340b00 	eorseq	r0, r4, r0, lsl #22
      8c:	0b3a0803 	bleq	e820a0 <__bss_end__+0xe78380>
      90:	0b390b3b 	bleq	e42d84 <__bss_end__+0xe39064>
      94:	0b1c1349 	bleq	704dc0 <__bss_end__+0x6fb0a0>
      98:	340c0000 	strcc	r0, [ip], #-0
      9c:	3a080300 	bcc	200ca4 <__bss_end__+0x1f6f84>
      a0:	390b3b0b 	stmdbcc	fp, {r0, r1, r3, r8, r9, fp, ip, sp}
      a4:	0213490b 	andseq	r4, r3, #180224	; 0x2c000
      a8:	1742b717 	smlaldne	fp, r2, r7, r7
      ac:	340d0000 	strcc	r0, [sp], #-0
      b0:	3a0e0300 	bcc	380cb8 <__bss_end__+0x376f98>
      b4:	390b3b0b 	stmdbcc	fp, {r0, r1, r3, r8, r9, fp, ip, sp}
      b8:	1c13490b 			; <UNDEFINED> instruction: 0x1c13490b
      bc:	0e00000b 	cdpeq	0, 0, cr0, cr0, cr11, {0}
      c0:	0e030034 	mcreq	0, 0, r0, cr3, cr4, {1}
      c4:	19341349 	ldmdbne	r4!, {r0, r3, r6, r8, r9, ip}
      c8:	00001802 	andeq	r1, r0, r2, lsl #16
      cc:	11010b0f 	tstne	r1, pc, lsl #22
      d0:	01061201 	tsteq	r6, r1, lsl #4
      d4:	10000013 	andne	r0, r0, r3, lsl r0
      d8:	1755010b 	ldrbne	r0, [r5, -fp, lsl #2]
      dc:	89110000 	ldmdbhi	r1, {}	; <UNPREDICTABLE>
      e0:	11010182 	smlabbne	r1, r2, r1, r0
      e4:	01133101 	tsteq	r3, r1, lsl #2
      e8:	12000013 	andne	r0, r0, #19, 0
      ec:	0001828a 	andeq	r8, r1, sl, lsl #5
      f0:	42911802 	addsmi	r1, r1, #131072	; 0x20000
      f4:	13000018 	movwne	r0, #24
      f8:	00018289 	andeq	r8, r1, r9, lsl #5
      fc:	13310111 	teqne	r1, #1073741828	; 0x40000004
     100:	89140000 	ldmdbhi	r4, {}	; <UNPREDICTABLE>
     104:	11010182 	smlabbne	r1, r2, r1, r0
     108:	00133101 	andseq	r3, r3, r1, lsl #2
     10c:	000f1500 	andeq	r1, pc, r0, lsl #10
     110:	00000b0b 	andeq	r0, r0, fp, lsl #22
     114:	49010116 	stmdbmi	r1, {r1, r2, r4, r8}
     118:	00130113 	andseq	r0, r3, r3, lsl r1
     11c:	00211700 	eoreq	r1, r1, r0, lsl #14
     120:	0b2f1349 	bleq	bc4e4c <__bss_end__+0xbbb12c>
     124:	2e180000 	cdpcs	0, 1, cr0, cr8, cr0, {0}
     128:	3a0e0301 	bcc	380d34 <__bss_end__+0x377014>
     12c:	390b3b0b 	stmdbcc	fp, {r0, r1, r3, r8, r9, fp, ip, sp}
     130:	4919270b 	ldmdbmi	r9, {r0, r1, r3, r8, r9, sl, sp}
     134:	12011113 	andne	r1, r1, #-1073741820	; 0xc0000004
     138:	97184006 	ldrls	r4, [r8, -r6]
     13c:	13011942 	movwne	r1, #6466	; 0x1942
     140:	05190000 	ldreq	r0, [r9, #-0]
     144:	3a080300 	bcc	200d4c <__bss_end__+0x1f702c>
     148:	390b3b0b 	stmdbcc	fp, {r0, r1, r3, r8, r9, fp, ip, sp}
     14c:	0213490b 	andseq	r4, r3, #180224	; 0x2c000
     150:	1742b717 	smlaldne	fp, r2, r7, r7
     154:	341a0000 	ldrcc	r0, [sl], #-0
     158:	3a0e0300 	bcc	380d60 <__bss_end__+0x377040>
     15c:	390b3b0b 	stmdbcc	fp, {r0, r1, r3, r8, r9, fp, ip, sp}
     160:	0213490b 	andseq	r4, r3, #180224	; 0x2c000
     164:	1742b717 	smlaldne	fp, r2, r7, r7
     168:	2e1b0000 	cdpcs	0, 1, cr0, cr11, cr0, {0}
     16c:	3c193f00 	ldccc	15, cr3, [r9], {-0}
     170:	030e6e19 	movweq	r6, #60953	; 0xee19
     174:	3b0b3a0e 	blcc	2ce9b4 <__bss_end__+0x2c4c94>
     178:	000b390b 	andeq	r3, fp, fp, lsl #18
     17c:	11010000 	mrsne	r0, (UNDEF: 1)
     180:	130e2501 	movwne	r2, #58625	; 0xe501
     184:	1b0e030b 	blne	380db8 <__bss_end__+0x377098>
     188:	1201110e 	andne	r1, r1, #-2147483645	; 0x80000003
     18c:	00171006 	andseq	r1, r7, r6
     190:	00240200 	eoreq	r0, r4, r0, lsl #4
     194:	0b3e0b0b 	bleq	f82dc8 <__bss_end__+0xf790a8>
     198:	00000803 	andeq	r0, r0, r3, lsl #16
     19c:	0b002403 	bleq	91b0 <kmalloc_aligned+0x98>
     1a0:	030b3e0b 	movweq	r3, #48651	; 0xbe0b
     1a4:	0400000e 	streq	r0, [r0], #-14
     1a8:	19270115 	stmdbne	r7!, {r0, r2, r4, r8}
     1ac:	13011349 	movwne	r1, #4937	; 0x1349
     1b0:	05050000 	streq	r0, [r5, #-0]
     1b4:	00134900 	andseq	r4, r3, r0, lsl #18
     1b8:	00340600 	eorseq	r0, r4, r0, lsl #12
     1bc:	0b3a0e03 	bleq	e839d0 <__bss_end__+0xe79cb0>
     1c0:	0b390b3b 	bleq	e42eb4 <__bss_end__+0xe39194>
     1c4:	193f1349 	ldmdbne	pc!, {r0, r3, r6, r8, r9, ip}	; <UNPREDICTABLE>
     1c8:	0000193c 	andeq	r1, r0, ip, lsr r9
     1cc:	0b000f07 	bleq	3df0 <__code_start__-0x4210>
     1d0:	0013490b 	andseq	r4, r3, fp, lsl #18
     1d4:	00260800 	eoreq	r0, r6, r0, lsl #16
     1d8:	00001349 	andeq	r1, r0, r9, asr #6
     1dc:	03011709 	movweq	r1, #5897	; 0x1709
     1e0:	3a0b0b0e 	bcc	2c2e20 <__bss_end__+0x2b9100>
     1e4:	390b3b0b 	stmdbcc	fp, {r0, r1, r3, r8, r9, fp, ip, sp}
     1e8:	0013010b 	andseq	r0, r3, fp, lsl #2
     1ec:	000d0a00 	andeq	r0, sp, r0, lsl #20
     1f0:	0b3a0803 	bleq	e82204 <__bss_end__+0xe784e4>
     1f4:	0b390b3b 	bleq	e42ee8 <__bss_end__+0xe391c8>
     1f8:	00001349 	andeq	r1, r0, r9, asr #6
     1fc:	0b000f0b 	bleq	3e30 <__code_start__-0x41d0>
     200:	0c00000b 	stceq	0, cr0, [r0], {11}
     204:	19270015 	stmdbne	r7!, {r0, r2, r4}
     208:	130d0000 	movwne	r0, #53248	; 0xd000
     20c:	3a0b0b01 	bcc	2c2e18 <__bss_end__+0x2b90f8>
     210:	390b3b0b 	stmdbcc	fp, {r0, r1, r3, r8, r9, fp, ip, sp}
     214:	0013010b 	andseq	r0, r3, fp, lsl #2
     218:	000d0e00 	andeq	r0, sp, r0, lsl #28
     21c:	0b3a0803 	bleq	e82230 <__bss_end__+0xe78510>
     220:	0b390b3b 	bleq	e42f14 <__bss_end__+0xe391f4>
     224:	0b381349 	bleq	e04f50 <__bss_end__+0xdfb230>
     228:	0d0f0000 	stceq	0, cr0, [pc, #-0]	; 230 <__code_start__-0x7dd0>
     22c:	3a0e0300 	bcc	380e34 <__bss_end__+0x377114>
     230:	390b3b0b 	stmdbcc	fp, {r0, r1, r3, r8, r9, fp, ip, sp}
     234:	3813490b 	ldmdacc	r3, {r0, r1, r3, r8, fp, lr}
     238:	1000000b 	andne	r0, r0, fp
     23c:	0e030016 	mcreq	0, 0, r0, cr3, cr6, {0}
     240:	0b3b0b3a 	bleq	ec2f30 <__bss_end__+0xeb9210>
     244:	13490b39 	movtne	r0, #39737	; 0x9b39
     248:	34110000 	ldrcc	r0, [r1], #-0
     24c:	3a0e0300 	bcc	380e54 <__bss_end__+0x377134>
     250:	390b3b0b 	stmdbcc	fp, {r0, r1, r3, r8, r9, fp, ip, sp}
     254:	0213490b 	andseq	r4, r3, #180224	; 0x2c000
     258:	12000018 	andne	r0, r0, #24, 0
     25c:	193f012e 	ldmdbne	pc!, {r1, r2, r3, r5, r8}	; <UNPREDICTABLE>
     260:	0b3a0e03 	bleq	e83a74 <__bss_end__+0xe79d54>
     264:	0b390b3b 	bleq	e42f58 <__bss_end__+0xe39238>
     268:	01111927 	tsteq	r1, r7, lsr #18
     26c:	18400612 	stmdane	r0, {r1, r4, r9, sl}^
     270:	01194297 			; <UNDEFINED> instruction: 0x01194297
     274:	13000013 	movwne	r0, #19
     278:	08030005 	stmdaeq	r3, {r0, r2}
     27c:	0b3b0b3a 	bleq	ec2f6c <__bss_end__+0xeb924c>
     280:	13490b39 	movtne	r0, #39737	; 0x9b39
     284:	00001802 	andeq	r1, r0, r2, lsl #16
     288:	03003414 	movweq	r3, #1044	; 0x414
     28c:	3b0b3a08 	blcc	2ceab4 <__bss_end__+0x2c4d94>
     290:	490b390b 	stmdbmi	fp, {r0, r1, r3, r8, fp, ip, sp}
     294:	b7170213 			; <UNDEFINED> instruction: 0xb7170213
     298:	00001742 	andeq	r1, r0, r2, asr #14
     29c:	3f012e15 	svccc	0x00012e15
     2a0:	3a0e0319 	bcc	380f0c <__bss_end__+0x3771ec>
     2a4:	390b3b0b 	stmdbcc	fp, {r0, r1, r3, r8, r9, fp, ip, sp}
     2a8:	4919270b 	ldmdbmi	r9, {r0, r1, r3, r8, r9, sl, sp}
     2ac:	12011113 	andne	r1, r1, #-1073741820	; 0xc0000004
     2b0:	97184006 	ldrls	r4, [r8, -r6]
     2b4:	13011942 	movwne	r1, #6466	; 0x1942
     2b8:	05160000 	ldreq	r0, [r6, #-0]
     2bc:	3a0e0300 	bcc	380ec4 <__bss_end__+0x3771a4>
     2c0:	390b3b0b 	stmdbcc	fp, {r0, r1, r3, r8, r9, fp, ip, sp}
     2c4:	0213490b 	andseq	r4, r3, #180224	; 0x2c000
     2c8:	1742b717 	smlaldne	fp, r2, r7, r7
     2cc:	34170000 	ldrcc	r0, [r7], #-0
     2d0:	3a0e0300 	bcc	380ed8 <__bss_end__+0x3771b8>
     2d4:	390b3b0b 	stmdbcc	fp, {r0, r1, r3, r8, r9, fp, ip, sp}
     2d8:	0213490b 	andseq	r4, r3, #180224	; 0x2c000
     2dc:	1742b717 	smlaldne	fp, r2, r7, r7
     2e0:	2e180000 	cdpcs	0, 1, cr0, cr8, cr0, {0}
     2e4:	03193f01 	tsteq	r9, #1, 30
     2e8:	3b0b3a0e 	blcc	2ceb28 <__bss_end__+0x2c4e08>
     2ec:	270b390b 	strcs	r3, [fp, -fp, lsl #18]
     2f0:	3c134919 			; <UNDEFINED> instruction: 0x3c134919
     2f4:	00130119 	andseq	r0, r3, r9, lsl r1
     2f8:	82891900 	addhi	r1, r9, #0, 18
     2fc:	01110101 	tsteq	r1, r1, lsl #2
     300:	00001331 	andeq	r1, r0, r1, lsr r3
     304:	01828a1a 	orreq	r8, r2, sl, lsl sl
     308:	91180200 	tstls	r8, r0, lsl #4
     30c:	00001842 	andeq	r1, r0, r2, asr #16
     310:	03012e1b 	movweq	r2, #7707	; 0x1e1b
     314:	3b0b3a0e 	blcc	2ceb54 <__bss_end__+0x2c4e34>
     318:	270b390b 	strcs	r3, [fp, -fp, lsl #18]
     31c:	11134919 	tstne	r3, r9, lsl r9
     320:	40061201 	andmi	r1, r6, r1, lsl #4
     324:	19429718 	stmdbne	r2, {r3, r4, r8, r9, sl, ip, pc}^
     328:	00001301 	andeq	r1, r0, r1, lsl #6
     32c:	0300051c 	movweq	r0, #1308	; 0x51c
     330:	3b0b3a08 	blcc	2ceb58 <__bss_end__+0x2c4e38>
     334:	490b390b 	stmdbmi	fp, {r0, r1, r3, r8, fp, ip, sp}
     338:	b7170213 			; <UNDEFINED> instruction: 0xb7170213
     33c:	00001742 	andeq	r1, r0, r2, asr #14
     340:	0182891d 	orreq	r8, r2, sp, lsl r9
     344:	31011101 	tstcc	r1, r1, lsl #2
     348:	00130113 	andseq	r0, r3, r3, lsl r1
     34c:	82891e00 	addhi	r1, r9, #0, 28
     350:	01110001 	tsteq	r1, r1
     354:	00001331 	andeq	r1, r0, r1, lsr r3
     358:	3f002e1f 	svccc	0x00002e1f
     35c:	6e193c19 	mrcvs	12, 0, r3, cr9, cr9, {0}
     360:	3a0e030e 	bcc	380fa0 <__bss_end__+0x377280>
     364:	390b3b0b 	stmdbcc	fp, {r0, r1, r3, r8, r9, fp, ip, sp}
     368:	0000000b 	andeq	r0, r0, fp
     36c:	25011101 	strcs	r1, [r1, #-257]	; 0xfffffeff
     370:	030b130e 	movweq	r1, #45838	; 0xb30e
     374:	110e1b0e 	tstne	lr, lr, lsl #22
     378:	10061201 	andne	r1, r6, r1, lsl #4
     37c:	02000017 	andeq	r0, r0, #23, 0
     380:	0b0b0024 	bleq	2c0418 <__bss_end__+0x2b66f8>
     384:	08030b3e 	stmdaeq	r3, {r1, r2, r3, r4, r5, r8, r9, fp}
     388:	24030000 	strcs	r0, [r3], #-0
     38c:	3e0b0b00 	vmlacc.f64	d0, d11, d0
     390:	000e030b 	andeq	r0, lr, fp, lsl #6
     394:	01150400 	tsteq	r5, r0, lsl #8
     398:	13491927 	movtne	r1, #39207	; 0x9927
     39c:	00001301 	andeq	r1, r0, r1, lsl #6
     3a0:	49000505 	stmdbmi	r0, {r0, r2, r8, sl}
     3a4:	06000013 			; <UNDEFINED> instruction: 0x06000013
     3a8:	0e030034 	mcreq	0, 0, r0, cr3, cr4, {1}
     3ac:	0b3b0b3a 	bleq	ec309c <__bss_end__+0xeb937c>
     3b0:	13490b39 	movtne	r0, #39737	; 0x9b39
     3b4:	193c193f 	ldmdbne	ip!, {r0, r1, r2, r3, r4, r5, r8, fp, ip}
     3b8:	0f070000 	svceq	0x00070000
     3bc:	490b0b00 	stmdbmi	fp, {r8, r9, fp}
     3c0:	08000013 	stmdaeq	r0, {r0, r1, r4}
     3c4:	13490026 	movtne	r0, #36902	; 0x9026
     3c8:	2e090000 	cdpcs	0, 0, cr0, cr9, cr0, {0}
     3cc:	03193f01 	tsteq	r9, #1, 30
     3d0:	3b0b3a0e 	blcc	2cec10 <__bss_end__+0x2c4ef0>
     3d4:	270b390b 	strcs	r3, [fp, -fp, lsl #18]
     3d8:	11134919 	tstne	r3, r9, lsl r9
     3dc:	40061201 	andmi	r1, r6, r1, lsl #4
     3e0:	19429718 	stmdbne	r2, {r3, r4, r8, r9, sl, ip, pc}^
     3e4:	00001301 	andeq	r1, r0, r1, lsl #6
     3e8:	0300050a 	movweq	r0, #1290	; 0x50a
     3ec:	3b0b3a0e 	blcc	2cec2c <__bss_end__+0x2c4f0c>
     3f0:	490b390b 	stmdbmi	fp, {r0, r1, r3, r8, fp, ip, sp}
     3f4:	b7170213 			; <UNDEFINED> instruction: 0xb7170213
     3f8:	00001742 	andeq	r1, r0, r2, asr #14
     3fc:	0182890b 	orreq	r8, r2, fp, lsl #18
     400:	31011101 	tstcc	r1, r1, lsl #2
     404:	0c000013 	stceq	0, cr0, [r0], {19}
     408:	0001828a 	andeq	r8, r1, sl, lsl #5
     40c:	42911802 	addsmi	r1, r1, #131072	; 0x20000
     410:	0d000018 	stceq	0, cr0, [r0, #-96]	; 0xffffffa0
     414:	0b0b000f 	bleq	2c0458 <__bss_end__+0x2b6738>
     418:	2e0e0000 	cdpcs	0, 0, cr0, cr14, cr0, {0}
     41c:	3c193f00 	ldccc	15, cr3, [r9], {-0}
     420:	030e6e19 	movweq	r6, #60953	; 0xee19
     424:	3b0b3a0e 	blcc	2cec64 <__bss_end__+0x2c4f44>
     428:	000b390b 	andeq	r3, fp, fp, lsl #18
     42c:	11010000 	mrsne	r0, (UNDEF: 1)
     430:	130e2501 	movwne	r2, #58625	; 0xe501
     434:	1b0e030b 	blne	381068 <__bss_end__+0x377348>
     438:	1201110e 	andne	r1, r1, #-2147483645	; 0x80000003
     43c:	00171006 	andseq	r1, r7, r6
     440:	00160200 	andseq	r0, r6, r0, lsl #4
     444:	0b3a0e03 	bleq	e83c58 <__bss_end__+0xe79f38>
     448:	0b390b3b 	bleq	e4313c <__bss_end__+0xe3941c>
     44c:	00001349 	andeq	r1, r0, r9, asr #6
     450:	03011303 	movweq	r1, #4867	; 0x1303
     454:	3a0b0b0e 	bcc	2c3094 <__bss_end__+0x2b9374>
     458:	010b3b0b 	tsteq	fp, fp, lsl #22
     45c:	04000013 	streq	r0, [r0], #-19	; 0xffffffed
     460:	0e03000d 	cdpeq	0, 0, cr0, cr3, cr13, {0}
     464:	0b381349 	bleq	e05190 <__bss_end__+0xdfb470>
     468:	00001934 	andeq	r1, r0, r4, lsr r9
     46c:	0b000f05 	bleq	4088 <__code_start__-0x3f78>
     470:	0600000b 	streq	r0, [r0], -fp
     474:	0b0b0024 	bleq	2c050c <__bss_end__+0x2b67ec>
     478:	08030b3e 	stmdaeq	r3, {r1, r2, r3, r4, r5, r8, r9, fp}
     47c:	24070000 	strcs	r0, [r7], #-0
     480:	3e0b0b00 	vmlacc.f64	d0, d11, d0
     484:	000e030b 	andeq	r0, lr, fp, lsl #6
     488:	01150800 	tsteq	r5, r0, lsl #16
     48c:	13491927 	movtne	r1, #39207	; 0x9927
     490:	00001301 	andeq	r1, r0, r1, lsl #6
     494:	49000509 	stmdbmi	r0, {r0, r3, r8, sl}
     498:	0a000013 	beq	4ec <__code_start__-0x7b14>
     49c:	0e030034 	mcreq	0, 0, r0, cr3, cr4, {1}
     4a0:	0b3b0b3a 	bleq	ec3190 <__bss_end__+0xeb9470>
     4a4:	13490b39 	movtne	r0, #39737	; 0x9b39
     4a8:	193c193f 	ldmdbne	ip!, {r0, r1, r2, r3, r4, r5, r8, fp, ip}
     4ac:	0f0b0000 	svceq	0x000b0000
     4b0:	490b0b00 	stmdbmi	fp, {r8, r9, fp}
     4b4:	0c000013 	stceq	0, cr0, [r0], {19}
     4b8:	13490026 	movtne	r0, #36902	; 0x9026
     4bc:	2e0d0000 	cdpcs	0, 0, cr0, cr13, cr0, {0}
     4c0:	03193f01 	tsteq	r9, #1, 30
     4c4:	3b0b3a0e 	blcc	2ced04 <__bss_end__+0x2c4fe4>
     4c8:	270b390b 	strcs	r3, [fp, -fp, lsl #18]
     4cc:	11134919 	tstne	r3, r9, lsl r9
     4d0:	40061201 	andmi	r1, r6, r1, lsl #4
     4d4:	19429718 	stmdbne	r2, {r3, r4, r8, r9, sl, ip, pc}^
     4d8:	00001301 	andeq	r1, r0, r1, lsl #6
     4dc:	0300050e 	movweq	r0, #1294	; 0x50e
     4e0:	3b0b3a08 	blcc	2ced08 <__bss_end__+0x2c4fe8>
     4e4:	490b390b 	stmdbmi	fp, {r0, r1, r3, r8, fp, ip, sp}
     4e8:	00180213 	andseq	r0, r8, r3, lsl r2
     4ec:	00180f00 	andseq	r0, r8, r0, lsl #30
     4f0:	34100000 	ldrcc	r0, [r0], #-0
     4f4:	3a080300 	bcc	2010fc <__bss_end__+0x1f73dc>
     4f8:	390b3b0b 	stmdbcc	fp, {r0, r1, r3, r8, r9, fp, ip, sp}
     4fc:	0213490b 	andseq	r4, r3, #180224	; 0x2c000
     500:	11000018 	tstne	r0, r8, lsl r0
     504:	0e030034 	mcreq	0, 0, r0, cr3, cr4, {1}
     508:	0b3b0b3a 	bleq	ec31f8 <__bss_end__+0xeb94d8>
     50c:	13490b39 	movtne	r0, #39737	; 0x9b39
     510:	00001802 	andeq	r1, r0, r2, lsl #16
     514:	03003412 	movweq	r3, #1042	; 0x412
     518:	3b0b3a08 	blcc	2ced40 <__bss_end__+0x2c5020>
     51c:	490b390b 	stmdbmi	fp, {r0, r1, r3, r8, fp, ip, sp}
     520:	b7170213 			; <UNDEFINED> instruction: 0xb7170213
     524:	00001742 	andeq	r1, r0, r2, asr #14
     528:	01828913 	orreq	r8, r2, r3, lsl r9
     52c:	31011101 	tstcc	r1, r1, lsl #2
     530:	00130113 	andseq	r0, r3, r3, lsl r1
     534:	828a1400 	addhi	r1, sl, #0, 8
     538:	18020001 	stmdane	r2, {r0}
     53c:	00184291 	mulseq	r8, r1, r2
     540:	82891500 	addhi	r1, r9, #0, 10
     544:	01110101 	tsteq	r1, r1, lsl #2
     548:	01160000 	tsteq	r6, r0
     54c:	01134901 	tsteq	r3, r1, lsl #18
     550:	17000013 	smladne	r0, r3, r0, r0
     554:	13490021 	movtne	r0, #36897	; 0x9021
     558:	0000052f 	andeq	r0, r0, pc, lsr #10
     55c:	3f002e18 	svccc	0x00002e18
     560:	6e193c19 	mrcvs	12, 0, r3, cr9, cr9, {0}
     564:	3a0e030e 	bcc	3811a4 <__bss_end__+0x377484>
     568:	390b3b0b 	stmdbcc	fp, {r0, r1, r3, r8, r9, fp, ip, sp}
     56c:	0000000b 	andeq	r0, r0, fp
     570:	25011101 	strcs	r1, [r1, #-257]	; 0xfffffeff
     574:	030b130e 	movweq	r1, #45838	; 0xb30e
     578:	110e1b0e 	tstne	lr, lr, lsl #22
     57c:	10061201 	andne	r1, r6, r1, lsl #4
     580:	02000017 	andeq	r0, r0, #23, 0
     584:	0b0b0024 	bleq	2c061c <__bss_end__+0x2b68fc>
     588:	08030b3e 	stmdaeq	r3, {r1, r2, r3, r4, r5, r8, r9, fp}
     58c:	24030000 	strcs	r0, [r3], #-0
     590:	3e0b0b00 	vmlacc.f64	d0, d11, d0
     594:	000e030b 	andeq	r0, lr, fp, lsl #6
     598:	01150400 	tsteq	r5, r0, lsl #8
     59c:	13491927 	movtne	r1, #39207	; 0x9927
     5a0:	00001301 	andeq	r1, r0, r1, lsl #6
     5a4:	49000505 	stmdbmi	r0, {r0, r2, r8, sl}
     5a8:	06000013 			; <UNDEFINED> instruction: 0x06000013
     5ac:	0e030034 	mcreq	0, 0, r0, cr3, cr4, {1}
     5b0:	0b3b0b3a 	bleq	ec32a0 <__bss_end__+0xeb9580>
     5b4:	13490b39 	movtne	r0, #39737	; 0x9b39
     5b8:	193c193f 	ldmdbne	ip!, {r0, r1, r2, r3, r4, r5, r8, fp, ip}
     5bc:	0f070000 	svceq	0x00070000
     5c0:	490b0b00 	stmdbmi	fp, {r8, r9, fp}
     5c4:	08000013 	stmdaeq	r0, {r0, r1, r4}
     5c8:	13490026 	movtne	r0, #36902	; 0x9026
     5cc:	34090000 	strcc	r0, [r9], #-0
     5d0:	3a134700 	bcc	4d21d8 <__bss_end__+0x4c84b8>
     5d4:	390b3b0b 	stmdbcc	fp, {r0, r1, r3, r8, r9, fp, ip, sp}
     5d8:	0018020b 	andseq	r0, r8, fp, lsl #4
     5dc:	012e0a00 			; <UNDEFINED> instruction: 0x012e0a00
     5e0:	0e03193f 			; <UNDEFINED> instruction: 0x0e03193f
     5e4:	0b3b0b3a 	bleq	ec32d4 <__bss_end__+0xeb95b4>
     5e8:	19270b39 	stmdbne	r7!, {r0, r3, r4, r5, r8, r9, fp}
     5ec:	06120111 			; <UNDEFINED> instruction: 0x06120111
     5f0:	42971840 	addsmi	r1, r7, #64, 16	; 0x400000
     5f4:	00130119 	andseq	r0, r3, r9, lsl r1
     5f8:	00050b00 	andeq	r0, r5, r0, lsl #22
     5fc:	0b3a0803 	bleq	e82610 <__bss_end__+0xe788f0>
     600:	0b390b3b 	bleq	e432f4 <__bss_end__+0xe395d4>
     604:	18021349 	stmdane	r2, {r0, r3, r6, r8, r9, ip}
     608:	2e0c0000 	cdpcs	0, 0, cr0, cr12, cr0, {0}
     60c:	03193f00 	tsteq	r9, #0, 30
     610:	3b0b3a0e 	blcc	2cee50 <__bss_end__+0x2c5130>
     614:	270b390b 	strcs	r3, [fp, -fp, lsl #18]
     618:	12011119 	andne	r1, r1, #1073741830	; 0x40000006
     61c:	97184006 	ldrls	r4, [r8, -r6]
     620:	00001942 	andeq	r1, r0, r2, asr #18
     624:	03012e0d 	movweq	r2, #7693	; 0x1e0d
     628:	3b0b3a0e 	blcc	2cee68 <__bss_end__+0x2c5148>
     62c:	270b390b 	strcs	r3, [fp, -fp, lsl #18]
     630:	11134919 	tstne	r3, r9, lsl r9
     634:	40061201 	andmi	r1, r6, r1, lsl #4
     638:	19429718 	stmdbne	r2, {r3, r4, r8, r9, sl, ip, pc}^
     63c:	00001301 	andeq	r1, r0, r1, lsl #6
     640:	0300050e 	movweq	r0, #1294	; 0x50e
     644:	3b0b3a08 	blcc	2cee6c <__bss_end__+0x2c514c>
     648:	490b390b 	stmdbmi	fp, {r0, r1, r3, r8, fp, ip, sp}
     64c:	b7170213 			; <UNDEFINED> instruction: 0xb7170213
     650:	00001742 	andeq	r1, r0, r2, asr #14
     654:	0182890f 	orreq	r8, r2, pc, lsl #18
     658:	31011101 	tstcc	r1, r1, lsl #2
     65c:	10000013 	andne	r0, r0, r3, lsl r0
     660:	0001828a 	andeq	r8, r1, sl, lsl #5
     664:	42911802 	addsmi	r1, r1, #131072	; 0x20000
     668:	11000018 	tstne	r0, r8, lsl r0
     66c:	193f002e 	ldmdbne	pc!, {r1, r2, r3, r5}	; <UNPREDICTABLE>
     670:	0e6e193c 			; <UNDEFINED> instruction: 0x0e6e193c
     674:	0b3a0e03 	bleq	e83e88 <__bss_end__+0xe7a168>
     678:	0b390b3b 	bleq	e4336c <__bss_end__+0xe3964c>
     67c:	01000000 	mrseq	r0, (UNDEF: 0)
     680:	0e250111 	mcreq	1, 1, r0, cr5, cr1, {0}
     684:	0e030b13 	vmoveq.32	d3[0], r0
     688:	01110e1b 	tsteq	r1, fp, lsl lr
     68c:	17100612 			; <UNDEFINED> instruction: 0x17100612
     690:	24020000 	strcs	r0, [r2], #-0
     694:	3e0b0b00 	vmlacc.f64	d0, d11, d0
     698:	0008030b 	andeq	r0, r8, fp, lsl #6
     69c:	00240300 	eoreq	r0, r4, r0, lsl #6
     6a0:	0b3e0b0b 	bleq	f832d4 <__bss_end__+0xf795b4>
     6a4:	00000e03 	andeq	r0, r0, r3, lsl #28
     6a8:	27011504 	strcs	r1, [r1, -r4, lsl #10]
     6ac:	01134919 	tsteq	r3, r9, lsl r9
     6b0:	05000013 	streq	r0, [r0, #-19]	; 0xffffffed
     6b4:	13490005 	movtne	r0, #36869	; 0x9005
     6b8:	34060000 	strcc	r0, [r6], #-0
     6bc:	3a0e0300 	bcc	3812c4 <__bss_end__+0x3775a4>
     6c0:	390b3b0b 	stmdbcc	fp, {r0, r1, r3, r8, r9, fp, ip, sp}
     6c4:	3f13490b 	svccc	0x0013490b
     6c8:	00193c19 	andseq	r3, r9, r9, lsl ip
     6cc:	000f0700 	andeq	r0, pc, r0, lsl #14
     6d0:	13490b0b 	movtne	r0, #39691	; 0x9b0b
     6d4:	26080000 	strcs	r0, [r8], -r0
     6d8:	00134900 	andseq	r4, r3, r0, lsl #18
     6dc:	00340900 	eorseq	r0, r4, r0, lsl #18
     6e0:	0b3a1347 	bleq	e85404 <__bss_end__+0xe7b6e4>
     6e4:	0b390b3b 	bleq	e433d8 <__bss_end__+0xe396b8>
     6e8:	00001802 	andeq	r1, r0, r2, lsl #16
     6ec:	3f012e0a 	svccc	0x00012e0a
     6f0:	3a0e0319 	bcc	38135c <__bss_end__+0x37763c>
     6f4:	390b3b0b 	stmdbcc	fp, {r0, r1, r3, r8, r9, fp, ip, sp}
     6f8:	4919270b 	ldmdbmi	r9, {r0, r1, r3, r8, r9, sl, sp}
     6fc:	12011113 	andne	r1, r1, #-1073741820	; 0xc0000004
     700:	96184006 	ldrls	r4, [r8], -r6
     704:	00001942 	andeq	r1, r0, r2, asr #18
     708:	0300050b 	movweq	r0, #1291	; 0x50b
     70c:	3b0b3a08 	blcc	2cef34 <__bss_end__+0x2c5214>
     710:	490b390b 	stmdbmi	fp, {r0, r1, r3, r8, fp, ip, sp}
     714:	b7170213 			; <UNDEFINED> instruction: 0xb7170213
     718:	00001742 	andeq	r1, r0, r2, asr #14
     71c:	01110100 	tsteq	r1, r0, lsl #2
     720:	0b130e25 	bleq	4c3fbc <__bss_end__+0x4ba29c>
     724:	0e1b0e03 	cdpeq	14, 1, cr0, cr11, cr3, {0}
     728:	06120111 			; <UNDEFINED> instruction: 0x06120111
     72c:	00001710 	andeq	r1, r0, r0, lsl r7
     730:	0b002402 	bleq	9740 <__FUNCTION__.4034+0x60>
     734:	030b3e0b 	movweq	r3, #48651	; 0xbe0b
     738:	03000008 	movweq	r0, #8
     73c:	0b0b0024 	bleq	2c07d4 <__bss_end__+0x2b6ab4>
     740:	0e030b3e 	vmoveq.16	d3[0], r0
     744:	16040000 	strne	r0, [r4], -r0
     748:	3a0e0300 	bcc	381350 <__bss_end__+0x377630>
     74c:	390b3b0b 	stmdbcc	fp, {r0, r1, r3, r8, r9, fp, ip, sp}
     750:	0013490b 	andseq	r4, r3, fp, lsl #18
     754:	01150500 	tsteq	r5, r0, lsl #10
     758:	13491927 	movtne	r1, #39207	; 0x9927
     75c:	00001301 	andeq	r1, r0, r1, lsl #6
     760:	49000506 	stmdbmi	r0, {r1, r2, r8, sl}
     764:	07000013 	smladeq	r0, r3, r0, r0
     768:	0e030034 	mcreq	0, 0, r0, cr3, cr4, {1}
     76c:	0b3b0b3a 	bleq	ec345c <__bss_end__+0xeb973c>
     770:	13490b39 	movtne	r0, #39737	; 0x9b39
     774:	193c193f 	ldmdbne	ip!, {r0, r1, r2, r3, r4, r5, r8, fp, ip}
     778:	0f080000 	svceq	0x00080000
     77c:	490b0b00 	stmdbmi	fp, {r8, r9, fp}
     780:	09000013 	stmdbeq	r0, {r0, r1, r4}
     784:	13490026 	movtne	r0, #36902	; 0x9026
     788:	130a0000 	movwne	r0, #40960	; 0xa000
     78c:	0b0e0301 	bleq	381398 <__bss_end__+0x377678>
     790:	3b0b3a0b 	blcc	2cefc4 <__bss_end__+0x2c52a4>
     794:	0013010b 	andseq	r0, r3, fp, lsl #2
     798:	000d0b00 	andeq	r0, sp, r0, lsl #22
     79c:	13490e03 	movtne	r0, #40451	; 0x9e03
     7a0:	19340b38 	ldmdbne	r4!, {r3, r4, r5, r8, r9, fp}
     7a4:	0f0c0000 	svceq	0x000c0000
     7a8:	000b0b00 	andeq	r0, fp, r0, lsl #22
     7ac:	012e0d00 			; <UNDEFINED> instruction: 0x012e0d00
     7b0:	0e03193f 			; <UNDEFINED> instruction: 0x0e03193f
     7b4:	0b3b0b3a 	bleq	ec34a4 <__bss_end__+0xeb9784>
     7b8:	19270b39 	stmdbne	r7!, {r0, r3, r4, r5, r8, r9, fp}
     7bc:	01111349 	tsteq	r1, r9, asr #6
     7c0:	18400612 	stmdane	r0, {r1, r4, r9, sl}^
     7c4:	01194297 			; <UNDEFINED> instruction: 0x01194297
     7c8:	0e000013 	mcreq	0, 0, r0, cr0, cr3, {0}
     7cc:	08030005 	stmdaeq	r3, {r0, r2}
     7d0:	0b3b0b3a 	bleq	ec34c0 <__bss_end__+0xeb97a0>
     7d4:	13490b39 	movtne	r0, #39737	; 0x9b39
     7d8:	42b71702 	adcsmi	r1, r7, #524288	; 0x80000
     7dc:	0f000017 	svceq	0x00000017
     7e0:	0e030005 	cdpeq	0, 0, cr0, cr3, cr5, {0}
     7e4:	0b3b0b3a 	bleq	ec34d4 <__bss_end__+0xeb97b4>
     7e8:	13490b39 	movtne	r0, #39737	; 0x9b39
     7ec:	00001802 	andeq	r1, r0, r2, lsl #16
     7f0:	03003410 	movweq	r3, #1040	; 0x410
     7f4:	3b0b3a08 	blcc	2cf01c <__bss_end__+0x2c52fc>
     7f8:	490b390b 	stmdbmi	fp, {r0, r1, r3, r8, fp, ip, sp}
     7fc:	b7170213 			; <UNDEFINED> instruction: 0xb7170213
     800:	00001742 	andeq	r1, r0, r2, asr #14
     804:	03003411 	movweq	r3, #1041	; 0x411
     808:	3b0b3a0e 	blcc	2cf048 <__bss_end__+0x2c5328>
     80c:	490b390b 	stmdbmi	fp, {r0, r1, r3, r8, fp, ip, sp}
     810:	b7170213 			; <UNDEFINED> instruction: 0xb7170213
     814:	00001742 	andeq	r1, r0, r2, asr #14
     818:	03003412 	movweq	r3, #1042	; 0x412
     81c:	3413490e 	ldrcc	r4, [r3], #-2318	; 0xfffff6f2
     820:	00180219 	andseq	r0, r8, r9, lsl r2
     824:	010b1300 	mrseq	r1, (UNDEF: 59)
     828:	06120111 			; <UNDEFINED> instruction: 0x06120111
     82c:	34140000 	ldrcc	r0, [r4], #-0
     830:	3a080300 	bcc	201438 <__bss_end__+0x1f7718>
     834:	390b3b0b 	stmdbcc	fp, {r0, r1, r3, r8, r9, fp, ip, sp}
     838:	0213490b 	andseq	r4, r3, #180224	; 0x2c000
     83c:	15000018 	strne	r0, [r0, #-24]	; 0xffffffe8
     840:	0e030034 	mcreq	0, 0, r0, cr3, cr4, {1}
     844:	0b3b0b3a 	bleq	ec3534 <__bss_end__+0xeb9814>
     848:	13490b39 	movtne	r0, #39737	; 0x9b39
     84c:	00001802 	andeq	r1, r0, r2, lsl #16
     850:	11010b16 	tstne	r1, r6, lsl fp
     854:	01061201 	tsteq	r6, r1, lsl #4
     858:	17000013 	smladne	r0, r3, r0, r0
     85c:	08030034 	stmdaeq	r3, {r2, r4, r5}
     860:	0b3b0b3a 	bleq	ec3550 <__bss_end__+0xeb9830>
     864:	13490b39 	movtne	r0, #39737	; 0x9b39
     868:	89180000 	ldmdbhi	r8, {}	; <UNPREDICTABLE>
     86c:	11010182 	smlabbne	r1, r2, r1, r0
     870:	01133101 	tsteq	r3, r1, lsl #2
     874:	19000013 	stmdbne	r0, {r0, r1, r4}
     878:	0001828a 	andeq	r8, r1, sl, lsl #5
     87c:	42911802 	addsmi	r1, r1, #131072	; 0x20000
     880:	1a000018 	bne	8e8 <__code_start__-0x7718>
     884:	00018289 	andeq	r8, r1, r9, lsl #5
     888:	13310111 	teqne	r1, #1073741828	; 0x40000004
     88c:	891b0000 	ldmdbhi	fp, {}	; <UNPREDICTABLE>
     890:	11010182 	smlabbne	r1, r2, r1, r0
     894:	00130101 	andseq	r0, r3, r1, lsl #2
     898:	01011c00 	tsteq	r1, r0, lsl #24
     89c:	13011349 	movwne	r1, #4937	; 0x1349
     8a0:	211d0000 	tstcs	sp, r0
     8a4:	2f134900 	svccs	0x00134900
     8a8:	1e00000b 	cdpne	0, 0, cr0, cr0, cr11, {0}
     8ac:	0e03012e 	adfeqsp	f0, f3, #0.5
     8b0:	0b3b0b3a 	bleq	ec35a0 <__bss_end__+0xeb9880>
     8b4:	19270b39 	stmdbne	r7!, {r0, r3, r4, r5, r8, r9, fp}
     8b8:	01111349 	tsteq	r1, r9, asr #6
     8bc:	18400612 	stmdane	r0, {r1, r4, r9, sl}^
     8c0:	01194297 			; <UNDEFINED> instruction: 0x01194297
     8c4:	1f000013 	svcne	0x00000013
     8c8:	0e030005 	cdpeq	0, 0, cr0, cr3, cr5, {0}
     8cc:	0b3b0b3a 	bleq	ec35bc <__bss_end__+0xeb989c>
     8d0:	13490b39 	movtne	r0, #39737	; 0x9b39
     8d4:	42b71702 	adcsmi	r1, r7, #524288	; 0x80000
     8d8:	20000017 	andcs	r0, r0, r7, lsl r0
     8dc:	0803012e 	stmdaeq	r3, {r1, r2, r3, r5, r8}
     8e0:	0b3b0b3a 	bleq	ec35d0 <__bss_end__+0xeb98b0>
     8e4:	19270b39 	stmdbne	r7!, {r0, r3, r4, r5, r8, r9, fp}
     8e8:	01111349 	tsteq	r1, r9, asr #6
     8ec:	18400612 	stmdane	r0, {r1, r4, r9, sl}^
     8f0:	01194297 			; <UNDEFINED> instruction: 0x01194297
     8f4:	21000013 	tstcs	r0, r3, lsl r0
     8f8:	193f012e 	ldmdbne	pc!, {r1, r2, r3, r5, r8}	; <UNPREDICTABLE>
     8fc:	0b3a0e03 	bleq	e84110 <__bss_end__+0xe7a3f0>
     900:	0b390b3b 	bleq	e435f4 <__bss_end__+0xe398d4>
     904:	01111927 	tsteq	r1, r7, lsr #18
     908:	18400612 	stmdane	r0, {r1, r4, r9, sl}^
     90c:	01194297 			; <UNDEFINED> instruction: 0x01194297
     910:	22000013 	andcs	r0, r0, #19, 0
     914:	193f002e 	ldmdbne	pc!, {r1, r2, r3, r5}	; <UNPREDICTABLE>
     918:	0e6e193c 			; <UNDEFINED> instruction: 0x0e6e193c
     91c:	0b3a0e03 	bleq	e84130 <__bss_end__+0xe7a410>
     920:	0b390b3b 	bleq	e43614 <__bss_end__+0xe398f4>
     924:	01000000 	mrseq	r0, (UNDEF: 0)
     928:	0e250111 	mcreq	1, 1, r0, cr5, cr1, {0}
     92c:	0e030b13 	vmoveq.32	d3[0], r0
     930:	01110e1b 	tsteq	r1, fp, lsl lr
     934:	17100612 			; <UNDEFINED> instruction: 0x17100612
     938:	24020000 	strcs	r0, [r2], #-0
     93c:	3e0b0b00 	vmlacc.f64	d0, d11, d0
     940:	0008030b 	andeq	r0, r8, fp, lsl #6
     944:	00240300 	eoreq	r0, r4, r0, lsl #6
     948:	0b3e0b0b 	bleq	f8357c <__bss_end__+0xf7985c>
     94c:	00000e03 	andeq	r0, r0, r3, lsl #28
     950:	27011504 	strcs	r1, [r1, -r4, lsl #10]
     954:	01134919 	tsteq	r3, r9, lsl r9
     958:	05000013 	streq	r0, [r0, #-19]	; 0xffffffed
     95c:	13490005 	movtne	r0, #36869	; 0x9005
     960:	34060000 	strcc	r0, [r6], #-0
     964:	3a0e0300 	bcc	38156c <__bss_end__+0x37784c>
     968:	390b3b0b 	stmdbcc	fp, {r0, r1, r3, r8, r9, fp, ip, sp}
     96c:	3f13490b 	svccc	0x0013490b
     970:	00193c19 	andseq	r3, r9, r9, lsl ip
     974:	000f0700 	andeq	r0, pc, r0, lsl #14
     978:	13490b0b 	movtne	r0, #39691	; 0x9b0b
     97c:	26080000 	strcs	r0, [r8], -r0
     980:	00134900 	andseq	r4, r3, r0, lsl #18
     984:	012e0900 			; <UNDEFINED> instruction: 0x012e0900
     988:	0e03193f 			; <UNDEFINED> instruction: 0x0e03193f
     98c:	0b3b0b3a 	bleq	ec367c <__bss_end__+0xeb995c>
     990:	19270b39 	stmdbne	r7!, {r0, r3, r4, r5, r8, r9, fp}
     994:	11190187 	tstne	r9, r7, lsl #3
     998:	40061201 	andmi	r1, r6, r1, lsl #4
     99c:	19429718 	stmdbne	r2, {r3, r4, r8, r9, sl, ip, pc}^
     9a0:	00001301 	andeq	r1, r0, r1, lsl #6
     9a4:	0182890a 	orreq	r8, r2, sl, lsl #18
     9a8:	01011101 	tsteq	r1, r1, lsl #2
     9ac:	0b000013 	bleq	a00 <__code_start__-0x7600>
     9b0:	0001828a 	andeq	r8, r1, sl, lsl #5
     9b4:	42911802 	addsmi	r1, r1, #131072	; 0x20000
     9b8:	0c000018 	stceq	0, cr0, [r0], {24}
     9bc:	00018289 	andeq	r8, r1, r9, lsl #5
     9c0:	13310111 	teqne	r1, #1073741828	; 0x40000004
     9c4:	890d0000 	stmdbhi	sp, {}	; <UNPREDICTABLE>
     9c8:	11010182 	smlabbne	r1, r2, r1, r0
     9cc:	01133101 	tsteq	r3, r1, lsl #2
     9d0:	0e000013 	mcreq	0, 0, r0, cr0, cr3, {0}
     9d4:	193f002e 	ldmdbne	pc!, {r1, r2, r3, r5}	; <UNPREDICTABLE>
     9d8:	0e6e193c 			; <UNDEFINED> instruction: 0x0e6e193c
     9dc:	0b3a0e03 	bleq	e841f0 <__bss_end__+0xe7a4d0>
     9e0:	0b390b3b 	bleq	e436d4 <__bss_end__+0xe399b4>
     9e4:	01000000 	mrseq	r0, (UNDEF: 0)
     9e8:	0e250111 	mcreq	1, 1, r0, cr5, cr1, {0}
     9ec:	0e030b13 	vmoveq.32	d3[0], r0
     9f0:	01110e1b 	tsteq	r1, fp, lsl lr
     9f4:	17100612 			; <UNDEFINED> instruction: 0x17100612
     9f8:	24020000 	strcs	r0, [r2], #-0
     9fc:	3e0b0b00 	vmlacc.f64	d0, d11, d0
     a00:	0008030b 	andeq	r0, r8, fp, lsl #6
     a04:	00240300 	eoreq	r0, r4, r0, lsl #6
     a08:	0b3e0b0b 	bleq	f8363c <__bss_end__+0xf7991c>
     a0c:	00000e03 	andeq	r0, r0, r3, lsl #28
     a10:	27011504 	strcs	r1, [r1, -r4, lsl #10]
     a14:	01134919 	tsteq	r3, r9, lsl r9
     a18:	05000013 	streq	r0, [r0, #-19]	; 0xffffffed
     a1c:	13490005 	movtne	r0, #36869	; 0x9005
     a20:	34060000 	strcc	r0, [r6], #-0
     a24:	3a0e0300 	bcc	38162c <__bss_end__+0x37790c>
     a28:	390b3b0b 	stmdbcc	fp, {r0, r1, r3, r8, r9, fp, ip, sp}
     a2c:	3f13490b 	svccc	0x0013490b
     a30:	00193c19 	andseq	r3, r9, r9, lsl ip
     a34:	000f0700 	andeq	r0, pc, r0, lsl #14
     a38:	13490b0b 	movtne	r0, #39691	; 0x9b0b
     a3c:	26080000 	strcs	r0, [r8], -r0
     a40:	00134900 	andseq	r4, r3, r0, lsl #18
     a44:	012e0900 			; <UNDEFINED> instruction: 0x012e0900
     a48:	0e03193f 			; <UNDEFINED> instruction: 0x0e03193f
     a4c:	0b3b0b3a 	bleq	ec373c <__bss_end__+0xeb9a1c>
     a50:	01110b39 	tsteq	r1, r9, lsr fp
     a54:	18400612 	stmdane	r0, {r1, r4, r9, sl}^
     a58:	01194297 			; <UNDEFINED> instruction: 0x01194297
     a5c:	0a000013 	beq	ab0 <__code_start__-0x7550>
     a60:	193f002e 	ldmdbne	pc!, {r1, r2, r3, r5}	; <UNPREDICTABLE>
     a64:	0b3a0e03 	bleq	e84278 <__bss_end__+0xe7a558>
     a68:	0b390b3b 	bleq	e4375c <__bss_end__+0xe39a3c>
     a6c:	193c1927 	ldmdbne	ip!, {r0, r1, r2, r5, r8, fp, ip}
     a70:	340b0000 	strcc	r0, [fp], #-0
     a74:	3a080300 	bcc	20167c <__bss_end__+0x1f795c>
     a78:	390b3b0b 	stmdbcc	fp, {r0, r1, r3, r8, r9, fp, ip, sp}
     a7c:	0213490b 	andseq	r4, r3, #180224	; 0x2c000
     a80:	1742b717 	smlaldne	fp, r2, r7, r7
     a84:	340c0000 	strcc	r0, [ip], #-0
     a88:	3a0e0300 	bcc	381690 <__bss_end__+0x377970>
     a8c:	390b3b0b 	stmdbcc	fp, {r0, r1, r3, r8, r9, fp, ip, sp}
     a90:	0013490b 	andseq	r4, r3, fp, lsl #18
     a94:	010b0d00 	tsteq	fp, r0, lsl #26
     a98:	06120111 			; <UNDEFINED> instruction: 0x06120111
     a9c:	00001301 	andeq	r1, r0, r1, lsl #6
     aa0:	0300340e 	movweq	r3, #1038	; 0x40e
     aa4:	3b0b3a08 	blcc	2cf2cc <__bss_end__+0x2c55ac>
     aa8:	490b390b 	stmdbmi	fp, {r0, r1, r3, r8, fp, ip, sp}
     aac:	000b1c13 	andeq	r1, fp, r3, lsl ip
     ab0:	82890f00 	addhi	r0, r9, #0, 30
     ab4:	01110001 	tsteq	r1, r1
     ab8:	00001331 	andeq	r1, r0, r1, lsr r3
     abc:	3f002e10 	svccc	0x00002e10
     ac0:	6e193c19 	mrcvs	12, 0, r3, cr9, cr9, {0}
     ac4:	3a0e030e 	bcc	381704 <__bss_end__+0x3779e4>
     ac8:	39053b0b 	stmdbcc	r5, {r0, r1, r3, r8, r9, fp, ip, sp}
     acc:	1100000b 	tstne	r0, fp
     ad0:	193f002e 	ldmdbne	pc!, {r1, r2, r3, r5}	; <UNPREDICTABLE>
     ad4:	0e6e193c 			; <UNDEFINED> instruction: 0x0e6e193c
     ad8:	0b3a0e03 	bleq	e842ec <__bss_end__+0xe7a5cc>
     adc:	0b390b3b 	bleq	e437d0 <__bss_end__+0xe39ab0>
     ae0:	01000000 	mrseq	r0, (UNDEF: 0)
     ae4:	0e250111 	mcreq	1, 1, r0, cr5, cr1, {0}
     ae8:	0e030b13 	vmoveq.32	d3[0], r0
     aec:	01110e1b 	tsteq	r1, fp, lsl lr
     af0:	17100612 			; <UNDEFINED> instruction: 0x17100612
     af4:	24020000 	strcs	r0, [r2], #-0
     af8:	3e0b0b00 	vmlacc.f64	d0, d11, d0
     afc:	0008030b 	andeq	r0, r8, fp, lsl #6
     b00:	00240300 	eoreq	r0, r4, r0, lsl #6
     b04:	0b3e0b0b 	bleq	f83738 <__bss_end__+0xf79a18>
     b08:	00000e03 	andeq	r0, r0, r3, lsl #28
     b0c:	27011504 	strcs	r1, [r1, -r4, lsl #10]
     b10:	01134919 	tsteq	r3, r9, lsl r9
     b14:	05000013 	streq	r0, [r0, #-19]	; 0xffffffed
     b18:	13490005 	movtne	r0, #36869	; 0x9005
     b1c:	34060000 	strcc	r0, [r6], #-0
     b20:	3a0e0300 	bcc	381728 <__bss_end__+0x377a08>
     b24:	390b3b0b 	stmdbcc	fp, {r0, r1, r3, r8, r9, fp, ip, sp}
     b28:	3f13490b 	svccc	0x0013490b
     b2c:	00193c19 	andseq	r3, r9, r9, lsl ip
     b30:	000f0700 	andeq	r0, pc, r0, lsl #14
     b34:	13490b0b 	movtne	r0, #39691	; 0x9b0b
     b38:	26080000 	strcs	r0, [r8], -r0
     b3c:	00134900 	andseq	r4, r3, r0, lsl #18
     b40:	002e0900 	eoreq	r0, lr, r0, lsl #18
     b44:	0e03193f 			; <UNDEFINED> instruction: 0x0e03193f
     b48:	0b3b0b3a 	bleq	ec3838 <__bss_end__+0xeb9b18>
     b4c:	19270b39 	stmdbne	r7!, {r0, r3, r4, r5, r8, r9, fp}
     b50:	06120111 			; <UNDEFINED> instruction: 0x06120111
     b54:	42971840 	addsmi	r1, r7, #64, 16	; 0x400000
     b58:	00000019 	andeq	r0, r0, r9, lsl r0
     b5c:	25011101 	strcs	r1, [r1, #-257]	; 0xfffffeff
     b60:	030b130e 	movweq	r1, #45838	; 0xb30e
     b64:	550e1b0e 	strpl	r1, [lr, #-2830]	; 0xfffff4f2
     b68:	10011117 	andne	r1, r1, r7, lsl r1
     b6c:	02000017 	andeq	r0, r0, #23, 0
     b70:	0b0b0024 	bleq	2c0c08 <__bss_end__+0x2b6ee8>
     b74:	08030b3e 	stmdaeq	r3, {r1, r2, r3, r4, r5, r8, r9, fp}
     b78:	26030000 	strcs	r0, [r3], -r0
     b7c:	00134900 	andseq	r4, r3, r0, lsl #18
     b80:	00240400 	eoreq	r0, r4, r0, lsl #8
     b84:	0b3e0b0b 	bleq	f837b8 <__bss_end__+0xf79a98>
     b88:	00000e03 	andeq	r0, r0, r3, lsl #28
     b8c:	27011505 	strcs	r1, [r1, -r5, lsl #10]
     b90:	01134919 	tsteq	r3, r9, lsl r9
     b94:	06000013 			; <UNDEFINED> instruction: 0x06000013
     b98:	13490005 	movtne	r0, #36869	; 0x9005
     b9c:	34070000 	strcc	r0, [r7], #-0
     ba0:	3a0e0300 	bcc	3817a8 <__bss_end__+0x377a88>
     ba4:	390b3b0b 	stmdbcc	fp, {r0, r1, r3, r8, r9, fp, ip, sp}
     ba8:	3f13490b 	svccc	0x0013490b
     bac:	00193c19 	andseq	r3, r9, r9, lsl ip
     bb0:	000f0800 	andeq	r0, pc, r0, lsl #16
     bb4:	13490b0b 	movtne	r0, #39691	; 0x9b0b
     bb8:	34090000 	strcc	r0, [r9], #-0
     bbc:	3a0e0300 	bcc	3817c4 <__bss_end__+0x377aa4>
     bc0:	390b3b0b 	stmdbcc	fp, {r0, r1, r3, r8, r9, fp, ip, sp}
     bc4:	0013490b 	andseq	r4, r3, fp, lsl #18
     bc8:	012e0a00 			; <UNDEFINED> instruction: 0x012e0a00
     bcc:	0e03193f 			; <UNDEFINED> instruction: 0x0e03193f
     bd0:	0b3b0b3a 	bleq	ec38c0 <__bss_end__+0xeb9ba0>
     bd4:	19270b39 	stmdbne	r7!, {r0, r3, r4, r5, r8, r9, fp}
     bd8:	11190187 	tstne	r9, r7, lsl #3
     bdc:	40061201 	andmi	r1, r6, r1, lsl #4
     be0:	19429718 	stmdbne	r2, {r3, r4, r8, r9, sl, ip, pc}^
     be4:	00001301 	andeq	r1, r0, r1, lsl #6
     be8:	0300340b 	movweq	r3, #1035	; 0x40b
     bec:	3b0b3a0e 	blcc	2cf42c <__bss_end__+0x2c570c>
     bf0:	490b390b 	stmdbmi	fp, {r0, r1, r3, r8, fp, ip, sp}
     bf4:	b7170213 			; <UNDEFINED> instruction: 0xb7170213
     bf8:	00001742 	andeq	r1, r0, r2, asr #14
     bfc:	0182890c 	orreq	r8, r2, ip, lsl #18
     c00:	31011100 	mrscc	r1, (UNDEF: 17)
     c04:	0d000013 	stceq	0, cr0, [r0, #-76]	; 0xffffffb4
     c08:	01018289 	smlabbeq	r1, r9, r2, r8
     c0c:	13310111 	teqne	r1, #1073741828	; 0x40000004
     c10:	00001301 	andeq	r1, r0, r1, lsl #6
     c14:	01828a0e 	orreq	r8, r2, lr, lsl #20
     c18:	91180200 	tstls	r8, r0, lsl #4
     c1c:	00001842 	andeq	r1, r0, r2, asr #16
     c20:	3f012e0f 	svccc	0x00012e0f
     c24:	3a0e0319 	bcc	381890 <__bss_end__+0x377b70>
     c28:	390b3b0b 	stmdbcc	fp, {r0, r1, r3, r8, r9, fp, ip, sp}
     c2c:	1119270b 	tstne	r9, fp, lsl #14
     c30:	40061201 	andmi	r1, r6, r1, lsl #4
     c34:	19429718 	stmdbne	r2, {r3, r4, r8, r9, sl, ip, pc}^
     c38:	00001301 	andeq	r1, r0, r1, lsl #6
     c3c:	3f012e10 	svccc	0x00012e10
     c40:	3a0e0319 	bcc	3818ac <__bss_end__+0x377b8c>
     c44:	390b3b0b 	stmdbcc	fp, {r0, r1, r3, r8, r9, fp, ip, sp}
     c48:	4919270b 	ldmdbmi	r9, {r0, r1, r3, r8, r9, sl, sp}
     c4c:	12011113 	andne	r1, r1, #-1073741820	; 0xc0000004
     c50:	97184006 	ldrls	r4, [r8, -r6]
     c54:	13011942 	movwne	r1, #6466	; 0x1942
     c58:	2e110000 	cdpcs	0, 1, cr0, cr1, cr0, {0}
     c5c:	3c193f00 	ldccc	15, cr3, [r9], {-0}
     c60:	030e6e19 	movweq	r6, #60953	; 0xee19
     c64:	3b0b3a0e 	blcc	2cf4a4 <__bss_end__+0x2c5784>
     c68:	000b3905 	andeq	r3, fp, r5, lsl #18
     c6c:	002e1200 	eoreq	r1, lr, r0, lsl #4
     c70:	193c193f 	ldmdbne	ip!, {r0, r1, r2, r3, r4, r5, r8, fp, ip}
     c74:	0e030e6e 	cdpeq	14, 0, cr0, cr3, cr14, {3}
     c78:	0b3b0b3a 	bleq	ec3968 <__bss_end__+0xeb9c48>
     c7c:	00000b39 	andeq	r0, r0, r9, lsr fp
     c80:	01110100 	tsteq	r1, r0, lsl #2
     c84:	0b130e25 	bleq	4c4520 <__bss_end__+0x4ba800>
     c88:	0e1b0e03 	cdpeq	14, 1, cr0, cr11, cr3, {0}
     c8c:	06120111 			; <UNDEFINED> instruction: 0x06120111
     c90:	00001710 	andeq	r1, r0, r0, lsl r7
     c94:	0b002402 	bleq	9ca4 <buf.3948+0x38c>
     c98:	030b3e0b 	movweq	r3, #48651	; 0xbe0b
     c9c:	03000008 	movweq	r0, #8
     ca0:	0b0b0024 	bleq	2c0d38 <__bss_end__+0x2b7018>
     ca4:	0e030b3e 	vmoveq.16	d3[0], r0
     ca8:	15040000 	strne	r0, [r4, #-0]
     cac:	49192701 	ldmdbmi	r9, {r0, r8, r9, sl, sp}
     cb0:	00130113 	andseq	r0, r3, r3, lsl r1
     cb4:	00050500 	andeq	r0, r5, r0, lsl #10
     cb8:	00001349 	andeq	r1, r0, r9, asr #6
     cbc:	03003406 	movweq	r3, #1030	; 0x406
     cc0:	3b0b3a0e 	blcc	2cf500 <__bss_end__+0x2c57e0>
     cc4:	490b390b 	stmdbmi	fp, {r0, r1, r3, r8, fp, ip, sp}
     cc8:	3c193f13 	ldccc	15, cr3, [r9], {19}
     ccc:	07000019 	smladeq	r0, r9, r0, r0
     cd0:	0b0b000f 	bleq	2c0d14 <__bss_end__+0x2b6ff4>
     cd4:	00001349 	andeq	r1, r0, r9, asr #6
     cd8:	49002608 	stmdbmi	r0, {r3, r9, sl, sp}
     cdc:	09000013 	stmdbeq	r0, {r0, r1, r4}
     ce0:	193f012e 	ldmdbne	pc!, {r1, r2, r3, r5, r8}	; <UNPREDICTABLE>
     ce4:	0b3a0e03 	bleq	e844f8 <__bss_end__+0xe7a7d8>
     ce8:	0b390b3b 	bleq	e439dc <__bss_end__+0xe39cbc>
     cec:	01111927 	tsteq	r1, r7, lsr #18
     cf0:	18400612 	stmdane	r0, {r1, r4, r9, sl}^
     cf4:	01194297 			; <UNDEFINED> instruction: 0x01194297
     cf8:	0a000013 	beq	d4c <__code_start__-0x72b4>
     cfc:	08030005 	stmdaeq	r3, {r0, r2}
     d00:	0b3b0b3a 	bleq	ec39f0 <__bss_end__+0xeb9cd0>
     d04:	13490b39 	movtne	r0, #39737	; 0x9b39
     d08:	42b71702 	adcsmi	r1, r7, #524288	; 0x80000
     d0c:	0b000017 	bleq	d70 <__code_start__-0x7290>
     d10:	01018289 	smlabbeq	r1, r9, r2, r8
     d14:	13310111 	teqne	r1, #1073741828	; 0x40000004
     d18:	8a0c0000 	bhi	300d20 <__bss_end__+0x2f7000>
     d1c:	02000182 	andeq	r0, r0, #-2147483616	; 0x80000020
     d20:	18429118 	stmdane	r2, {r3, r4, r8, ip, pc}^
     d24:	340d0000 	strcc	r0, [sp], #-0
     d28:	3a080300 	bcc	201930 <__bss_end__+0x1f7c10>
     d2c:	390b3b0b 	stmdbcc	fp, {r0, r1, r3, r8, r9, fp, ip, sp}
     d30:	0213490b 	andseq	r4, r3, #180224	; 0x2c000
     d34:	1742b717 	smlaldne	fp, r2, r7, r7
     d38:	0b0e0000 	bleq	380d40 <__bss_end__+0x377020>
     d3c:	12011101 	andne	r1, r1, #1073741824	; 0x40000000
     d40:	00130106 	andseq	r0, r3, r6, lsl #2
     d44:	82890f00 	addhi	r0, r9, #0, 30
     d48:	01110001 	tsteq	r1, r1
     d4c:	00001331 	andeq	r1, r0, r1, lsr r3
     d50:	3f012e10 	svccc	0x00012e10
     d54:	3a0e0319 	bcc	3819c0 <__bss_end__+0x377ca0>
     d58:	390b3b0b 	stmdbcc	fp, {r0, r1, r3, r8, r9, fp, ip, sp}
     d5c:	4919270b 	ldmdbmi	r9, {r0, r1, r3, r8, r9, sl, sp}
     d60:	12011113 	andne	r1, r1, #-1073741820	; 0xc0000004
     d64:	97184006 	ldrls	r4, [r8, -r6]
     d68:	13011942 	movwne	r1, #6466	; 0x1942
     d6c:	2e110000 	cdpcs	0, 1, cr0, cr1, cr0, {0}
     d70:	3c193f00 	ldccc	15, cr3, [r9], {-0}
     d74:	030e6e19 	movweq	r6, #60953	; 0xee19
     d78:	3b0b3a0e 	blcc	2cf5b8 <__bss_end__+0x2c5898>
     d7c:	000b390b 	andeq	r3, fp, fp, lsl #18
     d80:	11010000 	mrsne	r0, (UNDEF: 1)
     d84:	130e2501 	movwne	r2, #58625	; 0xe501
     d88:	1b0e030b 	blne	3819bc <__bss_end__+0x377c9c>
     d8c:	1201110e 	andne	r1, r1, #-2147483645	; 0x80000003
     d90:	00171006 	andseq	r1, r7, r6
     d94:	00240200 	eoreq	r0, r4, r0, lsl #4
     d98:	0b3e0b0b 	bleq	f839cc <__bss_end__+0xf79cac>
     d9c:	00000803 	andeq	r0, r0, r3, lsl #16
     da0:	0b002403 	bleq	9db4 <__bss_end__+0x94>
     da4:	030b3e0b 	movweq	r3, #48651	; 0xbe0b
     da8:	0400000e 	streq	r0, [r0], #-14
     dac:	13490035 	movtne	r0, #36917	; 0x9035
     db0:	16050000 	strne	r0, [r5], -r0
     db4:	3a0e0300 	bcc	3819bc <__bss_end__+0x377c9c>
     db8:	390b3b0b 	stmdbcc	fp, {r0, r1, r3, r8, r9, fp, ip, sp}
     dbc:	0013490b 	andseq	r4, r3, fp, lsl #18
     dc0:	01040600 	tsteq	r4, r0, lsl #12
     dc4:	0b0b0b3e 	bleq	2c3ac4 <__bss_end__+0x2b9da4>
     dc8:	0b3a1349 	bleq	e85af4 <__bss_end__+0xe7bdd4>
     dcc:	0b390b3b 	bleq	e43ac0 <__bss_end__+0xe39da0>
     dd0:	00001301 	andeq	r1, r0, r1, lsl #6
     dd4:	03002807 	movweq	r2, #2055	; 0x807
     dd8:	000b1c0e 	andeq	r1, fp, lr, lsl #24
     ddc:	01130800 	tsteq	r3, r0, lsl #16
     de0:	0b0b0e03 	bleq	2c45f4 <__bss_end__+0x2ba8d4>
     de4:	0b3b0b3a 	bleq	ec3ad4 <__bss_end__+0xeb9db4>
     de8:	13010b39 	movwne	r0, #6969	; 0x1b39
     dec:	0d090000 	stceq	0, cr0, [r9, #-0]
     df0:	3a080300 	bcc	2019f8 <__bss_end__+0x1f7cd8>
     df4:	390b3b0b 	stmdbcc	fp, {r0, r1, r3, r8, r9, fp, ip, sp}
     df8:	3813490b 	ldmdacc	r3, {r0, r1, r3, r8, fp, lr}
     dfc:	0a00000b 	beq	e30 <__code_start__-0x71d0>
     e00:	0e03000d 	cdpeq	0, 0, cr0, cr3, cr13, {0}
     e04:	0b3b0b3a 	bleq	ec3af4 <__bss_end__+0xeb9dd4>
     e08:	13490b39 	movtne	r0, #39737	; 0x9b39
     e0c:	00000b38 	andeq	r0, r0, r8, lsr fp
     e10:	0300340b 	movweq	r3, #1035	; 0x40b
     e14:	3b0b3a0e 	blcc	2cf654 <__bss_end__+0x2c5934>
     e18:	490b390b 	stmdbmi	fp, {r0, r1, r3, r8, fp, ip, sp}
     e1c:	00061c13 	andeq	r1, r6, r3, lsl ip
     e20:	000f0c00 	andeq	r0, pc, r0, lsl #24
     e24:	13490b0b 	movtne	r0, #39691	; 0x9b0b
     e28:	260d0000 	strcs	r0, [sp], -r0
     e2c:	00134900 	andseq	r4, r3, r0, lsl #18
     e30:	012e0e00 			; <UNDEFINED> instruction: 0x012e0e00
     e34:	0e03193f 			; <UNDEFINED> instruction: 0x0e03193f
     e38:	0b3b0b3a 	bleq	ec3b28 <__bss_end__+0xeb9e08>
     e3c:	19270b39 	stmdbne	r7!, {r0, r3, r4, r5, r8, r9, fp}
     e40:	06120111 			; <UNDEFINED> instruction: 0x06120111
     e44:	42971840 	addsmi	r1, r7, #64, 16	; 0x400000
     e48:	00130119 	andseq	r0, r3, r9, lsl r1
     e4c:	82890f00 	addhi	r0, r9, #0, 30
     e50:	01110001 	tsteq	r1, r1
     e54:	00001331 	andeq	r1, r0, r1, lsr r3
     e58:	3f012e10 	svccc	0x00012e10
     e5c:	3a0e0319 	bcc	381ac8 <__bss_end__+0x377da8>
     e60:	390b3b0b 	stmdbcc	fp, {r0, r1, r3, r8, r9, fp, ip, sp}
     e64:	4919270b 	ldmdbmi	r9, {r0, r1, r3, r8, r9, sl, sp}
     e68:	12011113 	andne	r1, r1, #-1073741820	; 0xc0000004
     e6c:	97184006 	ldrls	r4, [r8, -r6]
     e70:	13011942 	movwne	r1, #6466	; 0x1942
     e74:	89110000 	ldmdbhi	r1, {}	; <UNPREDICTABLE>
     e78:	11010182 	smlabbne	r1, r2, r1, r0
     e7c:	00133101 	andseq	r3, r3, r1, lsl #2
     e80:	828a1200 	addhi	r1, sl, #0, 4
     e84:	18020001 	stmdane	r2, {r0}
     e88:	00184291 	mulseq	r8, r1, r2
     e8c:	00051300 	andeq	r1, r5, r0, lsl #6
     e90:	0b3a0803 	bleq	e82ea4 <__bss_end__+0xe79184>
     e94:	0b390b3b 	bleq	e43b88 <__bss_end__+0xe39e68>
     e98:	17021349 	strne	r1, [r2, -r9, asr #6]
     e9c:	001742b7 			; <UNDEFINED> instruction: 0x001742b7
     ea0:	82891400 	addhi	r1, r9, #0, 8
     ea4:	01110101 	tsteq	r1, r1, lsl #2
     ea8:	13011331 	movwne	r1, #4913	; 0x1331
     eac:	34150000 	ldrcc	r0, [r5], #-0
     eb0:	3a080300 	bcc	201ab8 <__bss_end__+0x1f7d98>
     eb4:	390b3b0b 	stmdbcc	fp, {r0, r1, r3, r8, r9, fp, ip, sp}
     eb8:	0213490b 	andseq	r4, r3, #180224	; 0x2c000
     ebc:	1742b717 	smlaldne	fp, r2, r7, r7
     ec0:	34160000 	ldrcc	r0, [r6], #-0
     ec4:	3a0e0300 	bcc	381acc <__bss_end__+0x377dac>
     ec8:	390b3b0b 	stmdbcc	fp, {r0, r1, r3, r8, r9, fp, ip, sp}
     ecc:	1c13490b 			; <UNDEFINED> instruction: 0x1c13490b
     ed0:	17000005 	strne	r0, [r0, -r5]
     ed4:	0e03012e 	adfeqsp	f0, f3, #0.5
     ed8:	0b3b0b3a 	bleq	ec3bc8 <__bss_end__+0xeb9ea8>
     edc:	19270b39 	stmdbne	r7!, {r0, r3, r4, r5, r8, r9, fp}
     ee0:	06120111 			; <UNDEFINED> instruction: 0x06120111
     ee4:	42971840 	addsmi	r1, r7, #64, 16	; 0x400000
     ee8:	00130119 	andseq	r0, r3, r9, lsl r1
     eec:	00051800 	andeq	r1, r5, r0, lsl #16
     ef0:	0b3a0e03 	bleq	e84704 <__bss_end__+0xe7a9e4>
     ef4:	0b390b3b 	bleq	e43be8 <__bss_end__+0xe39ec8>
     ef8:	17021349 	strne	r1, [r2, -r9, asr #6]
     efc:	001742b7 			; <UNDEFINED> instruction: 0x001742b7
     f00:	00351900 	eorseq	r1, r5, r0, lsl #18
     f04:	2e1a0000 	cdpcs	0, 1, cr0, cr10, cr0, {0}
     f08:	3c193f00 	ldccc	15, cr3, [r9], {-0}
     f0c:	030e6e19 	movweq	r6, #60953	; 0xee19
     f10:	3b0b3a0e 	blcc	2cf750 <__bss_end__+0x2c5a30>
     f14:	000b390b 	andeq	r3, fp, fp, lsl #18
     f18:	11010000 	mrsne	r0, (UNDEF: 1)
     f1c:	130e2501 	movwne	r2, #58625	; 0xe501
     f20:	1b0e030b 	blne	381b54 <__bss_end__+0x377e34>
     f24:	1201110e 	andne	r1, r1, #-2147483645	; 0x80000003
     f28:	00171006 	andseq	r1, r7, r6
     f2c:	00240200 	eoreq	r0, r4, r0, lsl #4
     f30:	0b3e0b0b 	bleq	f83b64 <__bss_end__+0xf79e44>
     f34:	00000803 	andeq	r0, r0, r3, lsl #16
     f38:	0b002403 	bleq	9f4c <__bss_end__+0x22c>
     f3c:	030b3e0b 	movweq	r3, #48651	; 0xbe0b
     f40:	0400000e 	streq	r0, [r0], #-14
     f44:	0e030016 	mcreq	0, 0, r0, cr3, cr6, {0}
     f48:	0b3b0b3a 	bleq	ec3c38 <__bss_end__+0xeb9f18>
     f4c:	13490b39 	movtne	r0, #39737	; 0x9b39
     f50:	26050000 	strcs	r0, [r5], -r0
     f54:	00134900 	andseq	r4, r3, r0, lsl #18
     f58:	000f0600 	andeq	r0, pc, r0, lsl #12
     f5c:	00000b0b 	andeq	r0, r0, fp, lsl #22
     f60:	3e010407 	cdpcc	4, 0, cr0, cr1, cr7, {0}
     f64:	490b0b0b 	stmdbmi	fp, {r0, r1, r3, r8, r9, fp}
     f68:	3b0b3a13 	blcc	2cf7bc <__bss_end__+0x2c5a9c>
     f6c:	010b390b 	tsteq	fp, fp, lsl #18
     f70:	08000013 	stmdaeq	r0, {r0, r1, r4}
     f74:	0e030028 	cdpeq	0, 0, cr0, cr3, cr8, {1}
     f78:	0000061c 	andeq	r0, r0, ip, lsl r6
     f7c:	03003409 	movweq	r3, #1033	; 0x409
     f80:	3b0b3a0e 	blcc	2cf7c0 <__bss_end__+0x2c5aa0>
     f84:	490b390b 	stmdbmi	fp, {r0, r1, r3, r8, fp, ip, sp}
     f88:	3c193f13 	ldccc	15, cr3, [r9], {19}
     f8c:	0a000019 	beq	ff8 <__code_start__-0x7008>
     f90:	0e030034 	mcreq	0, 0, r0, cr3, cr4, {1}
     f94:	0b3b0b3a 	bleq	ec3c84 <__bss_end__+0xeb9f64>
     f98:	13490b39 	movtne	r0, #39737	; 0x9b39
     f9c:	00001802 	andeq	r1, r0, r2, lsl #16
     fa0:	0b000f0b 	bleq	4bd4 <__code_start__-0x342c>
     fa4:	0013490b 	andseq	r4, r3, fp, lsl #18
     fa8:	012e0c00 			; <UNDEFINED> instruction: 0x012e0c00
     fac:	0e03193f 			; <UNDEFINED> instruction: 0x0e03193f
     fb0:	0b3b0b3a 	bleq	ec3ca0 <__bss_end__+0xeb9f80>
     fb4:	19270b39 	stmdbne	r7!, {r0, r3, r4, r5, r8, r9, fp}
     fb8:	06120111 			; <UNDEFINED> instruction: 0x06120111
     fbc:	42971840 	addsmi	r1, r7, #64, 16	; 0x400000
     fc0:	00130119 	andseq	r0, r3, r9, lsl r1
     fc4:	00050d00 	andeq	r0, r5, r0, lsl #26
     fc8:	0b3a0803 	bleq	e82fdc <__bss_end__+0xe792bc>
     fcc:	0b390b3b 	bleq	e43cc0 <__bss_end__+0xe39fa0>
     fd0:	17021349 	strne	r1, [r2, -r9, asr #6]
     fd4:	001742b7 			; <UNDEFINED> instruction: 0x001742b7
     fd8:	00340e00 	eorseq	r0, r4, r0, lsl #28
     fdc:	13490e03 	movtne	r0, #40451	; 0x9e03
     fe0:	18021934 	stmdane	r2, {r2, r4, r5, r8, fp, ip}
     fe4:	890f0000 	stmdbhi	pc, {}	; <UNPREDICTABLE>
     fe8:	11010182 	smlabbne	r1, r2, r1, r0
     fec:	01133101 	tsteq	r3, r1, lsl #2
     ff0:	10000013 	andne	r0, r0, r3, lsl r0
     ff4:	0001828a 	andeq	r8, r1, sl, lsl #5
     ff8:	42911802 	addsmi	r1, r1, #131072	; 0x20000
     ffc:	11000018 	tstne	r0, r8, lsl r0
    1000:	00018289 	andeq	r8, r1, r9, lsl #5
    1004:	13310111 	teqne	r1, #1073741828	; 0x40000004
    1008:	01120000 	tsteq	r2, r0
    100c:	01134901 	tsteq	r3, r1, lsl #18
    1010:	13000013 	movwne	r0, #19
    1014:	13490021 	movtne	r0, #36897	; 0x9021
    1018:	00000b2f 	andeq	r0, r0, pc, lsr #22
    101c:	3f002e14 	svccc	0x00002e14
    1020:	3a0e0319 	bcc	381c8c <__bss_end__+0x377f6c>
    1024:	390b3b0b 	stmdbcc	fp, {r0, r1, r3, r8, r9, fp, ip, sp}
    1028:	1119270b 	tstne	r9, fp, lsl #14
    102c:	40061201 	andmi	r1, r6, r1, lsl #4
    1030:	19429718 	stmdbne	r2, {r3, r4, r8, r9, sl, ip, pc}^
    1034:	05150000 	ldreq	r0, [r5, #-0]
    1038:	3a080300 	bcc	201c40 <__bss_end__+0x1f7f20>
    103c:	390b3b0b 	stmdbcc	fp, {r0, r1, r3, r8, r9, fp, ip, sp}
    1040:	0213490b 	andseq	r4, r3, #180224	; 0x2c000
    1044:	16000018 			; <UNDEFINED> instruction: 0x16000018
    1048:	193f012e 	ldmdbne	pc!, {r1, r2, r3, r5, r8}	; <UNPREDICTABLE>
    104c:	0b3a0e03 	bleq	e84860 <__bss_end__+0xe7ab40>
    1050:	0b390b3b 	bleq	e43d44 <__bss_end__+0xe3a024>
    1054:	13491927 	movtne	r1, #39207	; 0x9927
    1058:	06120111 			; <UNDEFINED> instruction: 0x06120111
    105c:	42971840 	addsmi	r1, r7, #64, 16	; 0x400000
    1060:	00130119 	andseq	r0, r3, r9, lsl r1
    1064:	00051700 	andeq	r1, r5, r0, lsl #14
    1068:	0b3a0e03 	bleq	e8487c <__bss_end__+0xe7ab5c>
    106c:	0b390b3b 	bleq	e43d60 <__bss_end__+0xe3a040>
    1070:	17021349 	strne	r1, [r2, -r9, asr #6]
    1074:	001742b7 			; <UNDEFINED> instruction: 0x001742b7
    1078:	00341800 	eorseq	r1, r4, r0, lsl #16
    107c:	0b3a0803 	bleq	e83090 <__bss_end__+0xe79370>
    1080:	0b390b3b 	bleq	e43d74 <__bss_end__+0xe3a054>
    1084:	17021349 	strne	r1, [r2, -r9, asr #6]
    1088:	001742b7 			; <UNDEFINED> instruction: 0x001742b7
    108c:	011d1900 	tsteq	sp, r0, lsl #18
    1090:	01521331 	cmpeq	r2, r1, lsr r3
    1094:	110b42b8 			; <UNDEFINED> instruction: 0x110b42b8
    1098:	58061201 	stmdapl	r6, {r0, r9, ip}
    109c:	570b590b 	strpl	r5, [fp, -fp, lsl #18]
    10a0:	0013010b 	andseq	r0, r3, fp, lsl #2
    10a4:	00051a00 	andeq	r1, r5, r0, lsl #20
    10a8:	17021331 	smladxne	r2, r1, r3, r1
    10ac:	001742b7 			; <UNDEFINED> instruction: 0x001742b7
    10b0:	011d1b00 	tsteq	sp, r0, lsl #22
    10b4:	01521331 	cmpeq	r2, r1, lsr r3
    10b8:	550b42b8 	strpl	r4, [fp, #-696]	; 0xfffffd48
    10bc:	590b5817 	stmdbpl	fp, {r0, r1, r2, r4, fp, ip, lr}
    10c0:	010b570b 	tsteq	fp, fp, lsl #14
    10c4:	1c000013 	stcne	0, cr0, [r0], {19}
    10c8:	1755010b 	ldrbne	r0, [r5, -fp, lsl #2]
    10cc:	341d0000 	ldrcc	r0, [sp], #-0
    10d0:	3a0e0300 	bcc	381cd8 <__bss_end__+0x377fb8>
    10d4:	390b3b0b 	stmdbcc	fp, {r0, r1, r3, r8, r9, fp, ip, sp}
    10d8:	0213490b 	andseq	r4, r3, #180224	; 0x2c000
    10dc:	1742b717 	smlaldne	fp, r2, r7, r7
    10e0:	0b1e0000 	bleq	7810e8 <__bss_end__+0x7773c8>
    10e4:	00175500 	andseq	r5, r7, r0, lsl #10
    10e8:	002e1f00 	eoreq	r1, lr, r0, lsl #30
    10ec:	0e03193f 			; <UNDEFINED> instruction: 0x0e03193f
    10f0:	0b3b0b3a 	bleq	ec3de0 <__bss_end__+0xeba0c0>
    10f4:	19270b39 	stmdbne	r7!, {r0, r3, r4, r5, r8, r9, fp}
    10f8:	01111349 	tsteq	r1, r9, asr #6
    10fc:	18400612 	stmdane	r0, {r1, r4, r9, sl}^
    1100:	00194297 	mulseq	r9, r7, r2
    1104:	012e2000 			; <UNDEFINED> instruction: 0x012e2000
    1108:	0b3a0e03 	bleq	e8491c <__bss_end__+0xe7abfc>
    110c:	0b390b3b 	bleq	e43e00 <__bss_end__+0xe3a0e0>
    1110:	13491927 	movtne	r1, #39207	; 0x9927
    1114:	13010b20 	movwne	r0, #6944	; 0x1b20
    1118:	05210000 	streq	r0, [r1, #-0]!
    111c:	3a080300 	bcc	201d24 <__bss_end__+0x1f8004>
    1120:	390b3b0b 	stmdbcc	fp, {r0, r1, r3, r8, r9, fp, ip, sp}
    1124:	0013490b 	andseq	r4, r3, fp, lsl #18
    1128:	002e2200 	eoreq	r2, lr, r0, lsl #4
    112c:	193c193f 	ldmdbne	ip!, {r0, r1, r2, r3, r4, r5, r8, fp, ip}
    1130:	0e030e6e 	cdpeq	14, 0, cr0, cr3, cr14, {3}
    1134:	0b3b0b3a 	bleq	ec3e24 <__bss_end__+0xeba104>
    1138:	00000b39 	andeq	r0, r0, r9, lsr fp
    113c:	01110100 	tsteq	r1, r0, lsl #2
    1140:	0b130e25 	bleq	4c49dc <__bss_end__+0x4bacbc>
    1144:	0e1b0e03 	cdpeq	14, 1, cr0, cr11, cr3, {0}
    1148:	06120111 			; <UNDEFINED> instruction: 0x06120111
    114c:	00001710 	andeq	r1, r0, r0, lsl r7
    1150:	0b002402 	bleq	a160 <__bss_end__+0x440>
    1154:	030b3e0b 	movweq	r3, #48651	; 0xbe0b
    1158:	03000008 	movweq	r0, #8
    115c:	0e030016 	mcreq	0, 0, r0, cr3, cr6, {0}
    1160:	0b3b0b3a 	bleq	ec3e50 <__bss_end__+0xeba130>
    1164:	13490b39 	movtne	r0, #39737	; 0x9b39
    1168:	24040000 	strcs	r0, [r4], #-0
    116c:	3e0b0b00 	vmlacc.f64	d0, d11, d0
    1170:	000e030b 	andeq	r0, lr, fp, lsl #6
    1174:	01150500 	tsteq	r5, r0, lsl #10
    1178:	13491927 	movtne	r1, #39207	; 0x9927
    117c:	00001301 	andeq	r1, r0, r1, lsl #6
    1180:	49000506 	stmdbmi	r0, {r1, r2, r8, sl}
    1184:	07000013 	smladeq	r0, r3, r0, r0
    1188:	0e030034 	mcreq	0, 0, r0, cr3, cr4, {1}
    118c:	0b3b0b3a 	bleq	ec3e7c <__bss_end__+0xeba15c>
    1190:	13490b39 	movtne	r0, #39737	; 0x9b39
    1194:	193c193f 	ldmdbne	ip!, {r0, r1, r2, r3, r4, r5, r8, fp, ip}
    1198:	0f080000 	svceq	0x00080000
    119c:	490b0b00 	stmdbmi	fp, {r8, r9, fp}
    11a0:	09000013 	stmdbeq	r0, {r0, r1, r4}
    11a4:	13490026 	movtne	r0, #36902	; 0x9026
    11a8:	2e0a0000 	cdpcs	0, 0, cr0, cr10, cr0, {0}
    11ac:	03193f01 	tsteq	r9, #1, 30
    11b0:	3b0b3a0e 	blcc	2cf9f0 <__bss_end__+0x2c5cd0>
    11b4:	270b390b 	strcs	r3, [fp, -fp, lsl #18]
    11b8:	11134919 	tstne	r3, r9, lsl r9
    11bc:	40061201 	andmi	r1, r6, r1, lsl #4
    11c0:	19429718 	stmdbne	r2, {r3, r4, r8, r9, sl, ip, pc}^
    11c4:	00001301 	andeq	r1, r0, r1, lsl #6
    11c8:	0300050b 	movweq	r0, #1291	; 0x50b
    11cc:	3b0b3a08 	blcc	2cf9f4 <__bss_end__+0x2c5cd4>
    11d0:	490b390b 	stmdbmi	fp, {r0, r1, r3, r8, fp, ip, sp}
    11d4:	00180213 	andseq	r0, r8, r3, lsl r2
    11d8:	00050c00 	andeq	r0, r5, r0, lsl #24
    11dc:	0b3a0803 	bleq	e831f0 <__bss_end__+0xe794d0>
    11e0:	0b390b3b 	bleq	e43ed4 <__bss_end__+0xe3a1b4>
    11e4:	17021349 	strne	r1, [r2, -r9, asr #6]
    11e8:	001742b7 			; <UNDEFINED> instruction: 0x001742b7
    11ec:	00340d00 	eorseq	r0, r4, r0, lsl #26
    11f0:	0b3a0803 	bleq	e83204 <__bss_end__+0xe794e4>
    11f4:	0b390b3b 	bleq	e43ee8 <__bss_end__+0xe3a1c8>
    11f8:	17021349 	strne	r1, [r2, -r9, asr #6]
    11fc:	001742b7 			; <UNDEFINED> instruction: 0x001742b7
    1200:	000f0e00 	andeq	r0, pc, r0, lsl #28
    1204:	00000b0b 	andeq	r0, r0, fp, lsl #22
    1208:	01110100 	tsteq	r1, r0, lsl #2
    120c:	0b130e25 	bleq	4c4aa8 <__bss_end__+0x4bad88>
    1210:	0e1b0e03 	cdpeq	14, 1, cr0, cr11, cr3, {0}
    1214:	06120111 			; <UNDEFINED> instruction: 0x06120111
    1218:	00001710 	andeq	r1, r0, r0, lsl r7
    121c:	0b002402 	bleq	a22c <__bss_end__+0x50c>
    1220:	030b3e0b 	movweq	r3, #48651	; 0xbe0b
    1224:	03000008 	movweq	r0, #8
    1228:	0b0b0024 	bleq	2c12c0 <__bss_end__+0x2b75a0>
    122c:	0e030b3e 	vmoveq.16	d3[0], r0
    1230:	15040000 	strne	r0, [r4, #-0]
    1234:	49192701 	ldmdbmi	r9, {r0, r8, r9, sl, sp}
    1238:	00130113 	andseq	r0, r3, r3, lsl r1
    123c:	00050500 	andeq	r0, r5, r0, lsl #10
    1240:	00001349 	andeq	r1, r0, r9, asr #6
    1244:	03003406 	movweq	r3, #1030	; 0x406
    1248:	3b0b3a0e 	blcc	2cfa88 <__bss_end__+0x2c5d68>
    124c:	490b390b 	stmdbmi	fp, {r0, r1, r3, r8, fp, ip, sp}
    1250:	3c193f13 	ldccc	15, cr3, [r9], {19}
    1254:	07000019 	smladeq	r0, r9, r0, r0
    1258:	0b0b000f 	bleq	2c129c <__bss_end__+0x2b757c>
    125c:	00001349 	andeq	r1, r0, r9, asr #6
    1260:	49002608 	stmdbmi	r0, {r3, r9, sl, sp}
    1264:	09000013 	stmdbeq	r0, {r0, r1, r4}
    1268:	193f012e 	ldmdbne	pc!, {r1, r2, r3, r5, r8}	; <UNPREDICTABLE>
    126c:	0b3a0e03 	bleq	e84a80 <__bss_end__+0xe7ad60>
    1270:	0b390b3b 	bleq	e43f64 <__bss_end__+0xe3a244>
    1274:	13491927 	movtne	r1, #39207	; 0x9927
    1278:	06120111 			; <UNDEFINED> instruction: 0x06120111
    127c:	42971840 	addsmi	r1, r7, #64, 16	; 0x400000
    1280:	00130119 	andseq	r0, r3, r9, lsl r1
    1284:	00050a00 	andeq	r0, r5, r0, lsl #20
    1288:	0b3a0e03 	bleq	e84a9c <__bss_end__+0xe7ad7c>
    128c:	0b390b3b 	bleq	e43f80 <__bss_end__+0xe3a260>
    1290:	18021349 	stmdane	r2, {r0, r3, r6, r8, r9, ip}
    1294:	050b0000 	streq	r0, [fp, #-0]
    1298:	3a080300 	bcc	201ea0 <__bss_end__+0x1f8180>
    129c:	390b3b0b 	stmdbcc	fp, {r0, r1, r3, r8, r9, fp, ip, sp}
    12a0:	0213490b 	andseq	r4, r3, #180224	; 0x2c000
    12a4:	1742b717 	smlaldne	fp, r2, r7, r7
    12a8:	340c0000 	strcc	r0, [ip], #-0
    12ac:	3a080300 	bcc	201eb4 <__bss_end__+0x1f8194>
    12b0:	390b3b0b 	stmdbcc	fp, {r0, r1, r3, r8, r9, fp, ip, sp}
    12b4:	0213490b 	andseq	r4, r3, #180224	; 0x2c000
    12b8:	1742b717 	smlaldne	fp, r2, r7, r7
    12bc:	01000000 	mrseq	r0, (UNDEF: 0)
    12c0:	0e250111 	mcreq	1, 1, r0, cr5, cr1, {0}
    12c4:	0e030b13 	vmoveq.32	d3[0], r0
    12c8:	01110e1b 	tsteq	r1, fp, lsl lr
    12cc:	17100612 			; <UNDEFINED> instruction: 0x17100612
    12d0:	24020000 	strcs	r0, [r2], #-0
    12d4:	3e0b0b00 	vmlacc.f64	d0, d11, d0
    12d8:	0008030b 	andeq	r0, r8, fp, lsl #6
    12dc:	00240300 	eoreq	r0, r4, r0, lsl #6
    12e0:	0b3e0b0b 	bleq	f83f14 <__bss_end__+0xf7a1f4>
    12e4:	00000e03 	andeq	r0, r0, r3, lsl #28
    12e8:	27011504 	strcs	r1, [r1, -r4, lsl #10]
    12ec:	01134919 	tsteq	r3, r9, lsl r9
    12f0:	05000013 	streq	r0, [r0, #-19]	; 0xffffffed
    12f4:	13490005 	movtne	r0, #36869	; 0x9005
    12f8:	34060000 	strcc	r0, [r6], #-0
    12fc:	3a0e0300 	bcc	381f04 <__bss_end__+0x3781e4>
    1300:	390b3b0b 	stmdbcc	fp, {r0, r1, r3, r8, r9, fp, ip, sp}
    1304:	3f13490b 	svccc	0x0013490b
    1308:	00193c19 	andseq	r3, r9, r9, lsl ip
    130c:	000f0700 	andeq	r0, pc, r0, lsl #14
    1310:	13490b0b 	movtne	r0, #39691	; 0x9b0b
    1314:	26080000 	strcs	r0, [r8], -r0
    1318:	00134900 	andseq	r4, r3, r0, lsl #18
    131c:	012e0900 			; <UNDEFINED> instruction: 0x012e0900
    1320:	0e03193f 			; <UNDEFINED> instruction: 0x0e03193f
    1324:	0b3b0b3a 	bleq	ec4014 <__bss_end__+0xeba2f4>
    1328:	19270b39 	stmdbne	r7!, {r0, r3, r4, r5, r8, r9, fp}
    132c:	01111349 	tsteq	r1, r9, asr #6
    1330:	18400612 	stmdane	r0, {r1, r4, r9, sl}^
    1334:	00194297 	mulseq	r9, r7, r2
    1338:	00050a00 	andeq	r0, r5, r0, lsl #20
    133c:	0b3a0803 	bleq	e83350 <__bss_end__+0xe79630>
    1340:	0b390b3b 	bleq	e44034 <__bss_end__+0xe3a314>
    1344:	17021349 	strne	r1, [r2, -r9, asr #6]
    1348:	001742b7 			; <UNDEFINED> instruction: 0x001742b7
    134c:	11010000 	mrsne	r0, (UNDEF: 1)
    1350:	130e2501 	movwne	r2, #58625	; 0xe501
    1354:	1b0e030b 	blne	381f88 <__bss_end__+0x378268>
    1358:	1201110e 	andne	r1, r1, #-2147483645	; 0x80000003
    135c:	00171006 	andseq	r1, r7, r6
    1360:	00240200 	eoreq	r0, r4, r0, lsl #4
    1364:	0b3e0b0b 	bleq	f83f98 <__bss_end__+0xf7a278>
    1368:	00000803 	andeq	r0, r0, r3, lsl #16
    136c:	0b002403 	bleq	a380 <__bss_end__+0x660>
    1370:	030b3e0b 	movweq	r3, #48651	; 0xbe0b
    1374:	0400000e 	streq	r0, [r0], #-14
    1378:	19270115 	stmdbne	r7!, {r0, r2, r4, r8}
    137c:	13011349 	movwne	r1, #4937	; 0x1349
    1380:	05050000 	streq	r0, [r5, #-0]
    1384:	00134900 	andseq	r4, r3, r0, lsl #18
    1388:	00340600 	eorseq	r0, r4, r0, lsl #12
    138c:	0b3a0e03 	bleq	e84ba0 <__bss_end__+0xe7ae80>
    1390:	0b390b3b 	bleq	e44084 <__bss_end__+0xe3a364>
    1394:	193f1349 	ldmdbne	pc!, {r0, r3, r6, r8, r9, ip}	; <UNPREDICTABLE>
    1398:	0000193c 	andeq	r1, r0, ip, lsr r9
    139c:	0b000f07 	bleq	4fc0 <__code_start__-0x3040>
    13a0:	0013490b 	andseq	r4, r3, fp, lsl #18
    13a4:	00260800 	eoreq	r0, r6, r0, lsl #16
    13a8:	00001349 	andeq	r1, r0, r9, asr #6
    13ac:	3f012e09 	svccc	0x00012e09
    13b0:	3a0e0319 	bcc	38201c <__bss_end__+0x3782fc>
    13b4:	390b3b0b 	stmdbcc	fp, {r0, r1, r3, r8, r9, fp, ip, sp}
    13b8:	4919270b 	ldmdbmi	r9, {r0, r1, r3, r8, r9, sl, sp}
    13bc:	12011113 	andne	r1, r1, #-1073741820	; 0xc0000004
    13c0:	97184006 	ldrls	r4, [r8, -r6]
    13c4:	13011942 	movwne	r1, #6466	; 0x1942
    13c8:	050a0000 	streq	r0, [sl, #-0]
    13cc:	3a080300 	bcc	201fd4 <__bss_end__+0x1f82b4>
    13d0:	390b3b0b 	stmdbcc	fp, {r0, r1, r3, r8, r9, fp, ip, sp}
    13d4:	0213490b 	andseq	r4, r3, #180224	; 0x2c000
    13d8:	0b000018 	bleq	1440 <__code_start__-0x6bc0>
    13dc:	08030005 	stmdaeq	r3, {r0, r2}
    13e0:	0b3b0b3a 	bleq	ec40d0 <__bss_end__+0xeba3b0>
    13e4:	13490b39 	movtne	r0, #39737	; 0x9b39
    13e8:	42b71702 	adcsmi	r1, r7, #524288	; 0x80000
    13ec:	0c000017 	stceq	0, cr0, [r0], {23}
    13f0:	08030034 	stmdaeq	r3, {r2, r4, r5}
    13f4:	0b3b0b3a 	bleq	ec40e4 <__bss_end__+0xeba3c4>
    13f8:	13490b39 	movtne	r0, #39737	; 0x9b39
    13fc:	42b71702 	adcsmi	r1, r7, #524288	; 0x80000
    1400:	00000017 	andeq	r0, r0, r7, lsl r0
    1404:	25011101 	strcs	r1, [r1, #-257]	; 0xfffffeff
    1408:	030b130e 	movweq	r1, #45838	; 0xb30e
    140c:	550e1b0e 	strpl	r1, [lr, #-2830]	; 0xfffff4f2
    1410:	10011117 	andne	r1, r1, r7, lsl r1
    1414:	02000017 	andeq	r0, r0, #23, 0
    1418:	0b0b0024 	bleq	2c14b0 <__bss_end__+0x2b7790>
    141c:	08030b3e 	stmdaeq	r3, {r1, r2, r3, r4, r5, r8, r9, fp}
    1420:	16030000 	strne	r0, [r3], -r0
    1424:	3a0e0300 	bcc	38202c <__bss_end__+0x37830c>
    1428:	390b3b0b 	stmdbcc	fp, {r0, r1, r3, r8, r9, fp, ip, sp}
    142c:	0013490b 	andseq	r4, r3, fp, lsl #18
    1430:	00240400 	eoreq	r0, r4, r0, lsl #8
    1434:	0b3e0b0b 	bleq	f84068 <__bss_end__+0xf7a348>
    1438:	00000e03 	andeq	r0, r0, r3, lsl #28
    143c:	49002605 	stmdbmi	r0, {r0, r2, r9, sl, sp}
    1440:	06000013 			; <UNDEFINED> instruction: 0x06000013
    1444:	19270115 	stmdbne	r7!, {r0, r2, r4, r8}
    1448:	13011349 	movwne	r1, #4937	; 0x1349
    144c:	05070000 	streq	r0, [r7, #-0]
    1450:	00134900 	andseq	r4, r3, r0, lsl #18
    1454:	00340800 	eorseq	r0, r4, r0, lsl #16
    1458:	0b3a0e03 	bleq	e84c6c <__bss_end__+0xe7af4c>
    145c:	0b390b3b 	bleq	e44150 <__bss_end__+0xe3a430>
    1460:	193f1349 	ldmdbne	pc!, {r0, r3, r6, r8, r9, ip}	; <UNPREDICTABLE>
    1464:	0000193c 	andeq	r1, r0, ip, lsr r9
    1468:	0b000f09 	bleq	5094 <__code_start__-0x2f6c>
    146c:	0013490b 	andseq	r4, r3, fp, lsl #18
    1470:	012e0a00 			; <UNDEFINED> instruction: 0x012e0a00
    1474:	0e03193f 			; <UNDEFINED> instruction: 0x0e03193f
    1478:	0b3b0b3a 	bleq	ec4168 <__bss_end__+0xeba448>
    147c:	19270b39 	stmdbne	r7!, {r0, r3, r4, r5, r8, r9, fp}
    1480:	01111349 	tsteq	r1, r9, asr #6
    1484:	18400612 	stmdane	r0, {r1, r4, r9, sl}^
    1488:	01194297 			; <UNDEFINED> instruction: 0x01194297
    148c:	0b000013 	bleq	14e0 <__code_start__-0x6b20>
    1490:	08030005 	stmdaeq	r3, {r0, r2}
    1494:	0b3b0b3a 	bleq	ec4184 <__bss_end__+0xeba464>
    1498:	13490b39 	movtne	r0, #39737	; 0x9b39
    149c:	42b71702 	adcsmi	r1, r7, #524288	; 0x80000
    14a0:	0c000017 	stceq	0, cr0, [r0], {23}
    14a4:	08030034 	stmdaeq	r3, {r2, r4, r5}
    14a8:	0b3b0b3a 	bleq	ec4198 <__bss_end__+0xeba478>
    14ac:	13490b39 	movtne	r0, #39737	; 0x9b39
    14b0:	42b71702 	adcsmi	r1, r7, #524288	; 0x80000
    14b4:	00000017 	andeq	r0, r0, r7, lsl r0
    14b8:	25011101 	strcs	r1, [r1, #-257]	; 0xfffffeff
    14bc:	030b130e 	movweq	r1, #45838	; 0xb30e
    14c0:	110e1b0e 	tstne	lr, lr, lsl #22
    14c4:	10061201 	andne	r1, r6, r1, lsl #4
    14c8:	02000017 	andeq	r0, r0, #23, 0
    14cc:	0b0b0024 	bleq	2c1564 <__bss_end__+0x2b7844>
    14d0:	08030b3e 	stmdaeq	r3, {r1, r2, r3, r4, r5, r8, r9, fp}
    14d4:	24030000 	strcs	r0, [r3], #-0
    14d8:	3e0b0b00 	vmlacc.f64	d0, d11, d0
    14dc:	000e030b 	andeq	r0, lr, fp, lsl #6
    14e0:	01150400 	tsteq	r5, r0, lsl #8
    14e4:	13491927 	movtne	r1, #39207	; 0x9927
    14e8:	00001301 	andeq	r1, r0, r1, lsl #6
    14ec:	49000505 	stmdbmi	r0, {r0, r2, r8, sl}
    14f0:	06000013 			; <UNDEFINED> instruction: 0x06000013
    14f4:	0e030034 	mcreq	0, 0, r0, cr3, cr4, {1}
    14f8:	0b3b0b3a 	bleq	ec41e8 <__bss_end__+0xeba4c8>
    14fc:	13490b39 	movtne	r0, #39737	; 0x9b39
    1500:	193c193f 	ldmdbne	ip!, {r0, r1, r2, r3, r4, r5, r8, fp, ip}
    1504:	0f070000 	svceq	0x00070000
    1508:	490b0b00 	stmdbmi	fp, {r8, r9, fp}
    150c:	08000013 	stmdaeq	r0, {r0, r1, r4}
    1510:	13490026 	movtne	r0, #36902	; 0x9026
    1514:	2e090000 	cdpcs	0, 0, cr0, cr9, cr0, {0}
    1518:	03193f00 	tsteq	r9, #0, 30
    151c:	3b0b3a0e 	blcc	2cfd5c <__bss_end__+0x2c603c>
    1520:	270b390b 	strcs	r3, [fp, -fp, lsl #18]
    1524:	12011119 	andne	r1, r1, #1073741830	; 0x40000006
    1528:	97184006 	ldrls	r4, [r8, -r6]
    152c:	00001942 	andeq	r1, r0, r2, asr #18
    1530:	01110100 	tsteq	r1, r0, lsl #2
    1534:	0b130e25 	bleq	4c4dd0 <__bss_end__+0x4bb0b0>
    1538:	0e1b0e03 	cdpeq	14, 1, cr0, cr11, cr3, {0}
    153c:	06120111 			; <UNDEFINED> instruction: 0x06120111
    1540:	00001710 	andeq	r1, r0, r0, lsl r7
    1544:	0b002402 	bleq	a554 <__bss_end__+0x834>
    1548:	030b3e0b 	movweq	r3, #48651	; 0xbe0b
    154c:	03000008 	movweq	r0, #8
    1550:	0b0b0024 	bleq	2c15e8 <__bss_end__+0x2b78c8>
    1554:	0e030b3e 	vmoveq.16	d3[0], r0
    1558:	26040000 	strcs	r0, [r4], -r0
    155c:	00134900 	andseq	r4, r3, r0, lsl #18
    1560:	00160500 	andseq	r0, r6, r0, lsl #10
    1564:	0b3a0e03 	bleq	e84d78 <__bss_end__+0xe7b058>
    1568:	0b390b3b 	bleq	e4425c <__bss_end__+0xe3a53c>
    156c:	00001349 	andeq	r1, r0, r9, asr #6
    1570:	3e010406 	cdpcc	4, 0, cr0, cr1, cr6, {0}
    1574:	490b0b0b 	stmdbmi	fp, {r0, r1, r3, r8, r9, fp}
    1578:	3b0b3a13 	blcc	2cfdcc <__bss_end__+0x2c60ac>
    157c:	010b390b 	tsteq	fp, fp, lsl #18
    1580:	07000013 	smladeq	r0, r3, r0, r0
    1584:	0e030028 	cdpeq	0, 0, cr0, cr3, cr8, {1}
    1588:	00000b1c 	andeq	r0, r0, ip, lsl fp
    158c:	03003408 	movweq	r3, #1032	; 0x408
    1590:	3b0b3a0e 	blcc	2cfdd0 <__bss_end__+0x2c60b0>
    1594:	490b390b 	stmdbmi	fp, {r0, r1, r3, r8, fp, ip, sp}
    1598:	00061c13 	andeq	r1, r6, r3, lsl ip
    159c:	012e0900 			; <UNDEFINED> instruction: 0x012e0900
    15a0:	0e03193f 			; <UNDEFINED> instruction: 0x0e03193f
    15a4:	0b3b0b3a 	bleq	ec4294 <__bss_end__+0xeba574>
    15a8:	19270b39 	stmdbne	r7!, {r0, r3, r4, r5, r8, r9, fp}
    15ac:	01111349 	tsteq	r1, r9, asr #6
    15b0:	18400612 	stmdane	r0, {r1, r4, r9, sl}^
    15b4:	01194297 			; <UNDEFINED> instruction: 0x01194297
    15b8:	0a000013 	beq	160c <__code_start__-0x69f4>
    15bc:	08030005 	stmdaeq	r3, {r0, r2}
    15c0:	0b3b0b3a 	bleq	ec42b0 <__bss_end__+0xeba590>
    15c4:	13490b39 	movtne	r0, #39737	; 0x9b39
    15c8:	42b71702 	adcsmi	r1, r7, #524288	; 0x80000
    15cc:	0b000017 	bleq	1630 <__code_start__-0x69d0>
    15d0:	0e030034 	mcreq	0, 0, r0, cr3, cr4, {1}
    15d4:	0b3b0b3a 	bleq	ec42c4 <__bss_end__+0xeba5a4>
    15d8:	13490b39 	movtne	r0, #39737	; 0x9b39
    15dc:	42b71702 	adcsmi	r1, r7, #524288	; 0x80000
    15e0:	0c000017 	stceq	0, cr0, [r0], {23}
    15e4:	08030034 	stmdaeq	r3, {r2, r4, r5}
    15e8:	0b3b0b3a 	bleq	ec42d8 <__bss_end__+0xeba5b8>
    15ec:	13490b39 	movtne	r0, #39737	; 0x9b39
    15f0:	42b71702 	adcsmi	r1, r7, #524288	; 0x80000
    15f4:	0d000017 	stceq	0, cr0, [r0, #-92]	; 0xffffffa4
    15f8:	01018289 	smlabbeq	r1, r9, r2, r8
    15fc:	13310111 	teqne	r1, #1073741828	; 0x40000004
    1600:	8a0e0000 	bhi	381608 <__bss_end__+0x3778e8>
    1604:	02000182 	andeq	r0, r0, #-2147483616	; 0x80000020
    1608:	18429118 	stmdane	r2, {r3, r4, r8, ip, pc}^
    160c:	2e0f0000 	cdpcs	0, 0, cr0, cr15, cr0, {0}
    1610:	03193f01 	tsteq	r9, #1, 30
    1614:	3b0b3a0e 	blcc	2cfe54 <__bss_end__+0x2c6134>
    1618:	270b390b 	strcs	r3, [fp, -fp, lsl #18]
    161c:	12011119 	andne	r1, r1, #1073741830	; 0x40000006
    1620:	97184006 	ldrls	r4, [r8, -r6]
    1624:	13011942 	movwne	r1, #6466	; 0x1942
    1628:	89100000 	ldmdbhi	r0, {}	; <UNPREDICTABLE>
    162c:	11010182 	smlabbne	r1, r2, r1, r0
    1630:	01133101 	tsteq	r3, r1, lsl #2
    1634:	11000013 	tstne	r0, r3, lsl r0
    1638:	00018289 	andeq	r8, r1, r9, lsl #5
    163c:	13310111 	teqne	r1, #1073741828	; 0x40000004
    1640:	05120000 	ldreq	r0, [r2, #-0]
    1644:	3a0e0300 	bcc	38224c <__bss_end__+0x37852c>
    1648:	390b3b0b 	stmdbcc	fp, {r0, r1, r3, r8, r9, fp, ip, sp}
    164c:	0213490b 	andseq	r4, r3, #180224	; 0x2c000
    1650:	1742b717 	smlaldne	fp, r2, r7, r7
    1654:	2e130000 	cdpcs	0, 1, cr0, cr3, cr0, {0}
    1658:	3a0e0301 	bcc	382264 <__bss_end__+0x378544>
    165c:	390b3b0b 	stmdbcc	fp, {r0, r1, r3, r8, r9, fp, ip, sp}
    1660:	4919270b 	ldmdbmi	r9, {r0, r1, r3, r8, r9, sl, sp}
    1664:	010b2013 	tsteq	fp, r3, lsl r0
    1668:	14000013 	strne	r0, [r0], #-19	; 0xffffffed
    166c:	08030005 	stmdaeq	r3, {r0, r2}
    1670:	0b3b0b3a 	bleq	ec4360 <__bss_end__+0xeba640>
    1674:	13490b39 	movtne	r0, #39737	; 0x9b39
    1678:	2e150000 	cdpcs	0, 1, cr0, cr5, cr0, {0}
    167c:	3c193f00 	ldccc	15, cr3, [r9], {-0}
    1680:	030e6e19 	movweq	r6, #60953	; 0xee19
    1684:	3b0b3a0e 	blcc	2cfec4 <__bss_end__+0x2c61a4>
    1688:	000b390b 	andeq	r3, fp, fp, lsl #18
	...

Disassembly of section .debug_loc:

00000000 <.debug_loc>:
       0:	00000000 	andeq	r0, r0, r0
       4:	00000128 	andeq	r0, r0, r8, lsr #2
       8:	0000012c 	andeq	r0, r0, ip, lsr #2
       c:	2c500001 	mrrccs	0, 0, r0, r0, cr1	; <UNPREDICTABLE>
      10:	88000001 	stmdahi	r0, {r0}
      14:	01000001 	tsteq	r0, r1
      18:	00005500 	andeq	r5, r0, r0, lsl #10
      1c:	00000000 	andeq	r0, r0, r0
      20:	00030000 	andeq	r0, r3, r0
      24:	01280000 			; <UNDEFINED> instruction: 0x01280000
      28:	012c0000 			; <UNDEFINED> instruction: 0x012c0000
      2c:	00020000 	andeq	r0, r2, r0
      30:	012c9f30 			; <UNDEFINED> instruction: 0x012c9f30
      34:	01880000 	orreq	r0, r8, r0
      38:	00010000 	andeq	r0, r1, r0
      3c:	00000054 	andeq	r0, r0, r4, asr r0
	...
      48:	00013c00 	andeq	r3, r1, r0, lsl #24
      4c:	00014c00 	andeq	r4, r1, r0, lsl #24
      50:	50000100 	andpl	r0, r0, r0, lsl #2
      54:	00000158 	andeq	r0, r0, r8, asr r1
      58:	00000170 	andeq	r0, r0, r0, ror r1
      5c:	00500001 	subseq	r0, r0, r1
	...
      70:	00001000 	andeq	r1, r0, r0
      74:	50000100 	andpl	r0, r0, r0, lsl #2
      78:	00000010 	andeq	r0, r0, r0, lsl r0
      7c:	00000100 	andeq	r0, r0, r0, lsl #2
      80:	00560001 	subseq	r0, r6, r1
      84:	14000001 	strne	r0, [r0], #-1
      88:	04000001 	streq	r0, [r0], #-1
      8c:	5001f300 	andpl	pc, r1, r0, lsl #6
      90:	0000009f 	muleq	r0, pc, r0	; <UNPREDICTABLE>
	...
      9c:	18000000 	stmdane	r0, {}	; <UNPREDICTABLE>
      a0:	1c000000 	stcne	0, cr0, [r0], {-0}
      a4:	01000000 	mrseq	r0, (UNDEF: 0)
      a8:	001c5000 	andseq	r5, ip, r0
      ac:	01000000 	mrseq	r0, (UNDEF: 0)
      b0:	00010000 	andeq	r0, r1, r0
      b4:	00010055 	andeq	r0, r1, r5, asr r0
      b8:	00011400 	andeq	r1, r1, r0, lsl #8
      bc:	50000100 	andpl	r0, r0, r0, lsl #2
	...
      c8:	00000002 	andeq	r0, r0, r2
      cc:	00000018 	andeq	r0, r0, r8, lsl r0
      d0:	0000001c 	andeq	r0, r0, ip, lsl r0
      d4:	9f300002 	svcls	0x00300002
      d8:	0000001c 	andeq	r0, r0, ip, lsl r0
      dc:	000000d4 	ldrdeq	r0, [r0], -r4
      e0:	00540001 	subseq	r0, r4, r1
	...
      ec:	00003400 	andeq	r3, r0, r0, lsl #8
      f0:	00005300 	andeq	r5, r0, r0, lsl #6
      f4:	50000100 	andpl	r0, r0, r0, lsl #2
	...
     104:	00000090 	muleq	r0, r0, r0
     108:	000000b4 	strheq	r0, [r0], -r4
     10c:	d0530001 	subsle	r0, r3, r1
     110:	d8000000 	stmdale	r0, {}	; <UNPREDICTABLE>
     114:	01000000 	mrseq	r0, (UNDEF: 0)
     118:	00005300 	andeq	r5, r0, r0, lsl #6
	...
     124:	000000d8 	ldrdeq	r0, [r0], -r8
     128:	00000100 	andeq	r0, r0, r0, lsl #2
     12c:	00540001 	subseq	r0, r4, r1
	...
     13c:	08000000 	stmdaeq	r0, {}	; <UNPREDICTABLE>
     140:	78000000 	stmdavc	r0, {}	; <UNPREDICTABLE>
     144:	01000000 	mrseq	r0, (UNDEF: 0)
     148:	00785100 	rsbseq	r5, r8, r0, lsl #2
     14c:	00840000 	addeq	r0, r4, r0
     150:	00030000 	andeq	r0, r3, r0
     154:	849f7870 	ldrhi	r7, [pc], #2160	; 15c <__code_start__-0x7ea4>
     158:	a4000000 	strge	r0, [r0], #-0
     15c:	01000000 	mrseq	r0, (UNDEF: 0)
     160:	00a45100 	adceq	r5, r4, r0, lsl #2
     164:	00bc0000 	adcseq	r0, ip, r0
     168:	00030000 	andeq	r0, r3, r0
     16c:	009f7870 	addseq	r7, pc, r0, ror r8	; <UNPREDICTABLE>
	...
     178:	10000000 	andne	r0, r0, r0
     17c:	48000000 	stmdami	r0, {}	; <UNPREDICTABLE>
     180:	01000000 	mrseq	r0, (UNDEF: 0)
     184:	004c5300 	subeq	r5, ip, r0, lsl #6
     188:	00bc0000 	adcseq	r0, ip, r0
     18c:	00010000 	andeq	r0, r1, r0
     190:	00000053 	andeq	r0, r0, r3, asr r0
	...
     1a0:	00010000 	andeq	r0, r1, r0
     1a4:	00012400 	andeq	r2, r1, r0, lsl #8
     1a8:	50000100 	andpl	r0, r0, r0, lsl #2
     1ac:	00000124 	andeq	r0, r0, r4, lsr #2
     1b0:	00000128 	andeq	r0, r0, r8, lsr #2
     1b4:	01f30004 	mvnseq	r0, r4
     1b8:	01289f50 			; <UNDEFINED> instruction: 0x01289f50
     1bc:	01400000 	mrseq	r0, (UNDEF: 64)
     1c0:	00010000 	andeq	r0, r1, r0
     1c4:	00014050 	andeq	r4, r1, r0, asr r0
     1c8:	0001ac00 	andeq	sl, r1, r0, lsl #24
     1cc:	f3000400 	vshl.u8	d0, d0, d0
     1d0:	009f5001 	addseq	r5, pc, r1
	...
     1e0:	01010000 	mrseq	r0, (UNDEF: 1)
     1e4:	00000000 	andeq	r0, r0, r0
     1e8:	00012400 	andeq	r2, r1, r0, lsl #8
     1ec:	00012800 	andeq	r2, r1, r0, lsl #16
     1f0:	50000100 	andpl	r0, r0, r0, lsl #2
     1f4:	00000140 	andeq	r0, r0, r0, asr #2
     1f8:	00000160 	andeq	r0, r0, r0, ror #2
     1fc:	60500001 	subsvs	r0, r0, r1
     200:	64000001 	strvs	r0, [r0], #-1
     204:	03000001 	movweq	r0, #1
     208:	9f787000 	svcls	0x00787000
     20c:	00000164 	andeq	r0, r0, r4, ror #2
     210:	00000170 	andeq	r0, r0, r0, ror r1
     214:	70500001 	subsvc	r0, r0, r1
     218:	78000001 	stmdavc	r0, {r0}
     21c:	02000001 	andeq	r0, r0, #1, 0
     220:	78007000 	stmdavc	r0, {ip, sp, lr}
     224:	98000001 	stmdals	r0, {r0}
     228:	01000001 	tsteq	r0, r1
     22c:	019c5000 	orrseq	r5, ip, r0
     230:	01ac0000 			; <UNDEFINED> instruction: 0x01ac0000
     234:	00010000 	andeq	r0, r1, r0
     238:	00000050 	andeq	r0, r0, r0, asr r0
     23c:	00000000 	andeq	r0, r0, r0
     240:	01010000 	mrseq	r0, (UNDEF: 1)
     244:	01000000 	mrseq	r0, (UNDEF: 0)
     248:	18000000 	stmdane	r0, {}	; <UNPREDICTABLE>
     24c:	28000001 	stmdacs	r0, {r0}
     250:	01000001 	tsteq	r0, r1
     254:	01285200 			; <UNDEFINED> instruction: 0x01285200
     258:	01400000 	mrseq	r0, (UNDEF: 64)
     25c:	00060000 	andeq	r0, r6, r0
     260:	00991003 	addseq	r1, r9, r3
     264:	01409f00 	cmpeq	r0, r0, lsl #30
     268:	01700000 	cmneq	r0, r0
     26c:	00010000 	andeq	r0, r1, r0
     270:	00017052 	andeq	r7, r1, r2, asr r0
     274:	00017800 	andeq	r7, r1, r0, lsl #16
     278:	50000100 	andpl	r0, r0, r0, lsl #2
     27c:	00000178 	andeq	r0, r0, r8, ror r1
     280:	0000019b 	muleq	r0, fp, r1
     284:	00520001 	subseq	r0, r2, r1
	...
     290:	00011000 	andeq	r1, r1, r0
     294:	0001ac00 	andeq	sl, r1, r0, lsl #24
     298:	54000100 	strpl	r0, [r0], #-256	; 0xffffff00
	...
     2a8:	000000bc 	strheq	r0, [r0], -ip
     2ac:	000000cc 	andeq	r0, r0, ip, asr #1
     2b0:	cc500001 	mrrcgt	0, 0, r0, r0, cr1	; <UNPREDICTABLE>
     2b4:	00000000 	andeq	r0, r0, r0
     2b8:	01000001 	tsteq	r0, r1
     2bc:	00005400 	andeq	r5, r0, r0, lsl #8
	...
     2cc:	000000d4 	ldrdeq	r0, [r0], -r4
     2d0:	000000e4 	andeq	r0, r0, r4, ror #1
     2d4:	e4500001 	ldrb	r0, [r0], #-1
     2d8:	e7000000 	str	r0, [r0, -r0]
     2dc:	03000000 	movweq	r0, #0
     2e0:	9f787000 	svcls	0x00787000
     2e4:	000000f4 	strdeq	r0, [r0], -r4
     2e8:	000000f8 	strdeq	r0, [r0], -r8
     2ec:	00500001 	subseq	r0, r0, r1
     2f0:	00000000 	andeq	r0, r0, r0
     2f4:	01000000 	mrseq	r0, (UNDEF: 0)
     2f8:	dc000000 	stcle	0, cr0, [r0], {-0}
     2fc:	e4000000 	str	r0, [r0], #-0
     300:	01000000 	mrseq	r0, (UNDEF: 0)
     304:	00e45000 	rsceq	r5, r4, r0
     308:	00e70000 	rsceq	r0, r7, r0
     30c:	00030000 	andeq	r0, r3, r0
     310:	009f7870 	addseq	r7, pc, r0, ror r8	; <UNPREDICTABLE>
	...
     320:	07000000 	streq	r0, [r0, -r0]
     324:	01000000 	mrseq	r0, (UNDEF: 0)
     328:	00075000 	andeq	r5, r7, r0
     32c:	000c0000 	andeq	r0, ip, r0
     330:	00040000 	andeq	r0, r4, r0
     334:	9f5001f3 	svcls	0x005001f3
	...
     344:	002c0000 	eoreq	r0, ip, r0
     348:	00380000 	eorseq	r0, r8, r0
     34c:	00010000 	andeq	r0, r1, r0
     350:	00003850 	andeq	r3, r0, r0, asr r8
     354:	00004800 	andeq	r4, r0, r0, lsl #16
     358:	54000100 	strpl	r0, [r0], #-256	; 0xffffff00
     35c:	00000048 	andeq	r0, r0, r8, asr #32
     360:	00000058 	andeq	r0, r0, r8, asr r0
     364:	00500001 	subseq	r0, r0, r1
	...
     374:	0b000000 	bleq	37c <__code_start__-0x7c84>
     378:	01000000 	mrseq	r0, (UNDEF: 0)
     37c:	000b5000 	andeq	r5, fp, r0
     380:	00140000 	andseq	r0, r4, r0
     384:	00010000 	andeq	r0, r1, r0
     388:	00000054 	andeq	r0, r0, r4, asr r0
     38c:	00000000 	andeq	r0, r0, r0
     390:	01010000 	mrseq	r0, (UNDEF: 1)
     394:	00000000 	andeq	r0, r0, r0
     398:	00000800 	andeq	r0, r0, r0, lsl #16
     39c:	50000100 	andpl	r0, r0, r0, lsl #2
     3a0:	00000008 	andeq	r0, r0, r8
     3a4:	00000034 	andeq	r0, r0, r4, lsr r0
     3a8:	00540001 	subseq	r0, r4, r1
	...
     3b8:	00028800 	andeq	r8, r2, r0, lsl #16
     3bc:	0002b800 	andeq	fp, r2, r0, lsl #16
     3c0:	50000100 	andpl	r0, r0, r0, lsl #2
     3c4:	000002b8 			; <UNDEFINED> instruction: 0x000002b8
     3c8:	00000704 	andeq	r0, r0, r4, lsl #14
     3cc:	04590001 	ldrbeq	r0, [r9], #-1
     3d0:	40000007 	andmi	r0, r0, r7
     3d4:	04000007 	streq	r0, [r0], #-7
     3d8:	5001f300 	andpl	pc, r1, r0, lsl #6
     3dc:	0000009f 	muleq	r0, pc, r0	; <UNPREDICTABLE>
	...
     3e8:	88000000 	stmdahi	r0, {}	; <UNPREDICTABLE>
     3ec:	a0000002 	andge	r0, r0, r2
     3f0:	01000002 	tsteq	r0, r2
     3f4:	02a05100 	adceq	r5, r0, #0
     3f8:	02b80000 	adcseq	r0, r8, #0, 0
     3fc:	00030000 	andeq	r0, r3, r0
     400:	b89f0171 	ldmlt	pc, {r0, r4, r5, r6, r8}	; <UNPREDICTABLE>
     404:	40000002 	andmi	r0, r0, r2
     408:	04000007 	streq	r0, [r0], #-7
     40c:	5101f300 	mrspl	pc, SP_irq	; <UNPREDICTABLE>
     410:	0000009f 	muleq	r0, pc, r0	; <UNPREDICTABLE>
	...
     424:	00028800 	andeq	r8, r2, r0, lsl #16
     428:	0002b800 	andeq	fp, r2, r0, lsl #16
     42c:	52000100 	andpl	r0, r0, #0
     430:	000002b8 			; <UNDEFINED> instruction: 0x000002b8
     434:	000003ec 	andeq	r0, r0, ip, ror #7
     438:	ec560001 	mrrc	0, 0, r0, r6, cr1
     43c:	b8000003 	stmdalt	r0, {r0, r1}
     440:	01000004 	tsteq	r0, r4
     444:	04b85b00 	ldrteq	r5, [r8], #2816	; 0xb00
     448:	04d80000 	ldrbeq	r0, [r8], #0
     44c:	00010000 	andeq	r0, r1, r0
     450:	0004d856 	andeq	sp, r4, r6, asr r8
     454:	00055c00 	andeq	r5, r5, r0, lsl #24
     458:	5b000100 	blpl	860 <__code_start__-0x77a0>
     45c:	0000055c 	andeq	r0, r0, ip, asr r5
     460:	00000704 	andeq	r0, r0, r4, lsl #14
     464:	00560001 	subseq	r0, r6, r1
     468:	00000000 	andeq	r0, r0, r0
     46c:	01000000 	mrseq	r0, (UNDEF: 0)
     470:	00000000 	andeq	r0, r0, r0
     474:	01010000 	mrseq	r0, (UNDEF: 1)
     478:	00000000 	andeq	r0, r0, r0
     47c:	02020000 	andeq	r0, r2, #0, 0
     480:	9c000000 	stcls	0, cr0, [r0], {-0}
     484:	b8000002 	stmdalt	r0, {r1}
     488:	01000002 	tsteq	r0, r2
     48c:	02b85000 	adcseq	r5, r8, #0, 0
     490:	02bc0000 	adcseq	r0, ip, #0, 0
     494:	00010000 	andeq	r0, r1, r0
     498:	0002bc54 	andeq	fp, r2, r4, asr ip
     49c:	0002c000 	andeq	ip, r2, r0
     4a0:	74000300 	strvc	r0, [r0], #-768	; 0xfffffd00
     4a4:	02c09f01 	sbceq	r9, r0, #1, 30
     4a8:	02e40000 	rsceq	r0, r4, #0, 0
     4ac:	00010000 	andeq	r0, r1, r0
     4b0:	0002e454 	andeq	lr, r2, r4, asr r4
     4b4:	0002e800 	andeq	lr, r2, r0, lsl #16
     4b8:	74000300 	strvc	r0, [r0], #-768	; 0xfffffd00
     4bc:	02e89f01 	rsceq	r9, r8, #1, 30
     4c0:	06d40000 	ldrbeq	r0, [r4], r0
     4c4:	00010000 	andeq	r0, r1, r0
     4c8:	0006d454 	andeq	sp, r6, r4, asr r4
     4cc:	0006d800 	andeq	sp, r6, r0, lsl #16
     4d0:	74000300 	strvc	r0, [r0], #-768	; 0xfffffd00
     4d4:	06d89f01 	ldrbeq	r9, [r8], r1, lsl #30
     4d8:	06f00000 	ldrbteq	r0, [r0], r0
     4dc:	00010000 	andeq	r0, r1, r0
     4e0:	0006f054 	andeq	pc, r6, r4, asr r0	; <UNPREDICTABLE>
     4e4:	0006f800 	andeq	pc, r6, r0, lsl #16
     4e8:	74000300 	strvc	r0, [r0], #-768	; 0xfffffd00
     4ec:	06f89f01 	ldrbteq	r9, [r8], r1, lsl #30
     4f0:	07040000 	streq	r0, [r4, -r0]
     4f4:	00010000 	andeq	r0, r1, r0
     4f8:	00000054 	andeq	r0, r0, r4, asr r0
	...
     504:	0002a400 	andeq	sl, r2, r0, lsl #8
     508:	00070400 	andeq	r0, r7, r0, lsl #8
     50c:	58000100 	stmdapl	r0, {r8}
     510:	00000704 	andeq	r0, r0, r4, lsl #14
     514:	00000740 	andeq	r0, r0, r0, asr #14
     518:	01f3000a 	mvnseq	r0, sl
     51c:	5001f351 	andpl	pc, r1, r1, asr r3	; <UNPREDICTABLE>
     520:	9f1c3122 	svcls	0x001c3122
	...
     52c:	00000001 	andeq	r0, r0, r1
     530:	04080000 	streq	r0, [r8], #-0
     534:	04740000 	ldrbteq	r0, [r4], #-0
     538:	00010000 	andeq	r0, r1, r0
     53c:	0004d857 	andeq	sp, r4, r7, asr r8
     540:	0004fc00 	andeq	pc, r4, r0, lsl #24
     544:	57000100 	strpl	r0, [r0, -r0, lsl #2]
     548:	00000540 	andeq	r0, r0, r0, asr #10
     54c:	0000055c 	andeq	r0, r0, ip, asr r5
     550:	00570001 	subseq	r0, r7, r1
     554:	00000000 	andeq	r0, r0, r0
     558:	02000000 	andeq	r0, r0, #0, 0
     55c:	08000000 	stmdaeq	r0, {}	; <UNPREDICTABLE>
     560:	b8000004 	stmdalt	r0, {r2}
     564:	01000004 	tsteq	r0, r4
     568:	04d85a00 	ldrbeq	r5, [r8], #2560	; 0xa00
     56c:	055c0000 	ldrbeq	r0, [ip, #-0]
     570:	00010000 	andeq	r0, r1, r0
     574:	0000005a 	andeq	r0, r0, sl, asr r0
     578:	00000000 	andeq	r0, r0, r0
     57c:	00000100 	andeq	r0, r0, r0, lsl #2
     580:	0002ac00 	andeq	sl, r2, r0, lsl #24
     584:	0002b800 	andeq	fp, r2, r0, lsl #16
     588:	52000100 	andpl	r0, r0, #0
     58c:	000002b8 			; <UNDEFINED> instruction: 0x000002b8
     590:	00000740 	andeq	r0, r0, r0, asr #14
     594:	c8910003 	ldmgt	r1, {r0, r1}
     598:	0000007d 	andeq	r0, r0, sp, ror r0
	...
     5a8:	01010000 	mrseq	r0, (UNDEF: 1)
	...
     5b4:	74000000 	strvc	r0, [r0], #-0
     5b8:	8c000004 	stchi	0, cr0, [r0], {4}
     5bc:	01000004 	tsteq	r0, r4
     5c0:	048c5000 	streq	r5, [ip], #0
     5c4:	04b80000 	ldrteq	r0, [r8], #0
     5c8:	00010000 	andeq	r0, r1, r0
     5cc:	0004fc57 	andeq	pc, r4, r7, asr ip	; <UNPREDICTABLE>
     5d0:	00051400 	andeq	r1, r5, r0, lsl #8
     5d4:	50000100 	andpl	r0, r0, r0, lsl #2
     5d8:	00000514 	andeq	r0, r0, r4, lsl r5
     5dc:	00000540 	andeq	r0, r0, r0, asr #10
     5e0:	a4570001 	ldrbge	r0, [r7], #-1
     5e4:	a4000005 	strge	r0, [r0], #-5
     5e8:	01000005 	tsteq	r0, r5
     5ec:	05a45000 	streq	r5, [r4, #0]!
     5f0:	05ac0000 	streq	r0, [ip, #0]!
     5f4:	00010000 	andeq	r0, r1, r0
     5f8:	0005dc57 	andeq	sp, r5, r7, asr ip
     5fc:	0005e000 	andeq	lr, r5, r0
     600:	50000100 	andpl	r0, r0, r0, lsl #2
     604:	00000610 	andeq	r0, r0, r0, lsl r6
     608:	00000614 	andeq	r0, r0, r4, lsl r6
     60c:	44500001 	ldrbmi	r0, [r0], #-1
     610:	48000006 	stmdami	r0, {r1, r2}
     614:	01000006 	tsteq	r0, r6
     618:	068c5000 	streq	r5, [ip], r0
     61c:	06900000 	ldreq	r0, [r0], r0
     620:	00010000 	andeq	r0, r1, r0
     624:	0006d050 	andeq	sp, r6, r0, asr r0
     628:	0006f000 	andeq	pc, r6, r0
     62c:	57000100 	strpl	r0, [r0, -r0, lsl #2]
	...
     638:	00000002 	andeq	r0, r0, r2
     63c:	02f40000 	rscseq	r0, r4, #0, 0
     640:	02f80000 	rscseq	r0, r8, #0, 0
     644:	00020000 	andeq	r0, r2, r0
     648:	02f89f30 	rscseq	r9, r8, #48, 30	; 0xc0
     64c:	03140000 	tsteq	r4, #0, 0
     650:	00010000 	andeq	r0, r1, r0
     654:	00031c55 	andeq	r1, r3, r5, asr ip
     658:	0006f000 	andeq	pc, r6, r0
     65c:	55000100 	strpl	r0, [r0, #-256]	; 0xffffff00
	...
     668:	00000001 	andeq	r0, r0, r1
     66c:	00000000 	andeq	r0, r0, r0
     670:	03b80000 			; <UNDEFINED> instruction: 0x03b80000
     674:	04540000 	ldrbeq	r0, [r4], #-0
     678:	00010000 	andeq	r0, r1, r0
     67c:	00045456 	andeq	r5, r4, r6, asr r4
     680:	0004b800 	andeq	fp, r4, r0, lsl #16
     684:	7b000300 	blvc	128c <__code_start__-0x6d74>
     688:	04b89f7e 	ldrteq	r9, [r8], #3966	; 0xf7e
     68c:	04dc0000 	ldrbeq	r0, [ip], #0
     690:	00010000 	andeq	r0, r1, r0
     694:	0004dc56 	andeq	sp, r4, r6, asr ip
     698:	00054000 	andeq	r4, r5, r0
     69c:	7b000300 	blvc	12a4 <__code_start__-0x6d5c>
     6a0:	05409f7e 	strbeq	r9, [r0, #-3966]	; 0xfffff082
     6a4:	055c0000 	ldrbeq	r0, [ip, #-0]
     6a8:	00010000 	andeq	r0, r1, r0
     6ac:	00000056 	andeq	r0, r0, r6, asr r0
	...
     6b8:	70000000 	andvc	r0, r0, r0
     6bc:	94000000 	strls	r0, [r0], #-0
     6c0:	01000000 	mrseq	r0, (UNDEF: 0)
     6c4:	00945000 	addseq	r5, r4, r0
     6c8:	00fc0000 	rscseq	r0, ip, r0
     6cc:	00030000 	andeq	r0, r3, r0
     6d0:	fc9f0270 	ldc2	2, cr0, [pc], {112}	; 0x70
     6d4:	24000000 	strcs	r0, [r0], #-0
     6d8:	04000002 	streq	r0, [r0], #-2
     6dc:	5001f300 	andpl	pc, r1, r0, lsl #6
     6e0:	0000009f 	muleq	r0, pc, r0	; <UNPREDICTABLE>
	...
     6f8:	00007000 	andeq	r7, r0, r0
     6fc:	0000e000 	andeq	lr, r0, r0
     700:	51000100 	mrspl	r0, (UNDEF: 16)
     704:	000000e0 	andeq	r0, r0, r0, ror #1
     708:	00000154 	andeq	r0, r0, r4, asr r1
     70c:	54550001 	ldrbpl	r0, [r5], #-1
     710:	58000001 	stmdapl	r0, {r0}
     714:	01000001 	tsteq	r0, r1
     718:	01585100 	cmpeq	r8, r0, lsl #2
     71c:	01b00000 	movseq	r0, r0
     720:	00010000 	andeq	r0, r1, r0
     724:	0001b055 	andeq	fp, r1, r5, asr r0
     728:	0001c000 	andeq	ip, r1, r0
     72c:	51000100 	mrspl	r0, (UNDEF: 16)
     730:	000001c0 	andeq	r0, r0, r0, asr #3
     734:	000001e4 	andeq	r0, r0, r4, ror #3
     738:	e4550001 	ldrb	r0, [r5], #-1
     73c:	f8000001 			; <UNDEFINED> instruction: 0xf8000001
     740:	01000001 	tsteq	r0, r1
     744:	01f85100 	mvnseq	r5, r0, lsl #2
     748:	02240000 	eoreq	r0, r4, #0, 0
     74c:	00010000 	andeq	r0, r1, r0
     750:	00000055 	andeq	r0, r0, r5, asr r0
	...
     75c:	00007000 	andeq	r7, r0, r0
     760:	00008400 	andeq	r8, r0, r0, lsl #8
     764:	52000100 	andpl	r0, r0, #0
     768:	00000084 	andeq	r0, r0, r4, lsl #1
     76c:	00000224 	andeq	r0, r0, r4, lsr #4
     770:	00540001 	subseq	r0, r4, r1
	...
     780:	00000001 	andeq	r0, r0, r1
     784:	70000000 	andvc	r0, r0, r0
     788:	f4000000 	vst4.8	{d0-d3}, [r0], r0
     78c:	01000000 	mrseq	r0, (UNDEF: 0)
     790:	014c5300 	mrseq	r5, SPSR_mon
     794:	01800000 	orreq	r0, r0, r0
     798:	00010000 	andeq	r0, r1, r0
     79c:	00018053 	andeq	r8, r1, r3, asr r0
     7a0:	00018c00 	andeq	r8, r1, r0, lsl #24
     7a4:	f3000400 	vshl.u8	d0, d0, d0
     7a8:	b09f5301 	addslt	r5, pc, r1, lsl #6
     7ac:	e8000001 	stmda	r0, {r0}
     7b0:	01000001 	tsteq	r0, r1
     7b4:	01e85300 	mvneq	r5, r0, lsl #6
     7b8:	01ff0000 	mvnseq	r0, r0
     7bc:	00010000 	andeq	r0, r1, r0
     7c0:	0001ff5c 	andeq	pc, r1, ip, asr pc	; <UNPREDICTABLE>
     7c4:	00022400 	andeq	r2, r2, r0, lsl #8
     7c8:	f3000400 	vshl.u8	d0, d0, d0
     7cc:	009f5301 	addseq	r5, pc, r1, lsl #6
	...
     7dc:	00007000 	andeq	r7, r0, r0
     7e0:	00008c00 	andeq	r8, r0, r0, lsl #24
     7e4:	91000200 	mrsls	r0, R8_usr
     7e8:	00008c00 	andeq	r8, r0, r0, lsl #24
     7ec:	00019300 	andeq	r9, r1, r0, lsl #6
     7f0:	52000100 	andpl	r0, r0, #0
     7f4:	000001b0 			; <UNDEFINED> instruction: 0x000001b0
     7f8:	000001f4 	strdeq	r0, [r0], -r4
     7fc:	00520001 	subseq	r0, r2, r1
     800:	00000000 	andeq	r0, r0, r0
     804:	01000000 	mrseq	r0, (UNDEF: 0)
     808:	01010000 	mrseq	r0, (UNDEF: 1)
	...
     814:	01010101 	tsteq	r1, r1, lsl #2
     818:	01010000 	mrseq	r0, (UNDEF: 1)
	...
     824:	8c000000 	stchi	0, cr0, [r0], {-0}
     828:	fc000000 	stc2	0, cr0, [r0], {-0}
     82c:	04000000 	streq	r0, [r0], #-0
     830:	7fa09100 	svcvc	0x00a09100
     834:	0000fc9f 	muleq	r0, pc, ip	; <UNPREDICTABLE>
     838:	00013c00 	andeq	r3, r1, r0, lsl #24
     83c:	50000100 	andpl	r0, r0, r0, lsl #2
     840:	0000013c 	andeq	r0, r0, ip, lsr r1
     844:	00000148 	andeq	r0, r0, r8, asr #2
     848:	02710003 	rsbseq	r0, r1, #3, 0
     84c:	0001489f 	muleq	r1, pc, r8	; <UNPREDICTABLE>
     850:	00014c00 	andeq	r4, r1, r0, lsl #24
     854:	50000100 	andpl	r0, r0, r0, lsl #2
     858:	0000014c 	andeq	r0, r0, ip, asr #2
     85c:	00000158 	andeq	r0, r0, r8, asr r1
     860:	a0910004 	addsge	r0, r1, r4
     864:	01589f7f 	cmpeq	r8, pc, ror pc
     868:	016c0000 	cmneq	ip, r0
     86c:	00010000 	andeq	r0, r1, r0
     870:	00016c51 	andeq	r6, r1, r1, asr ip
     874:	00017800 	andeq	r7, r1, r0, lsl #16
     878:	71000300 	mrsvc	r0, LR_irq
     87c:	01789f7f 	cmneq	r8, pc, ror pc
     880:	01840000 	orreq	r0, r4, r0
     884:	00030000 	andeq	r0, r3, r0
     888:	849f0171 	ldrhi	r0, [pc], #369	; 890 <__code_start__-0x7770>
     88c:	93000001 	movwls	r0, #1
     890:	01000001 	tsteq	r0, r1
     894:	01b05000 	movseq	r5, r0
     898:	01b00000 	movseq	r0, r0
     89c:	00040000 	andeq	r0, r4, r0
     8a0:	9f7fa091 	svcls	0x007fa091
     8a4:	000001b0 			; <UNDEFINED> instruction: 0x000001b0
     8a8:	000001b8 			; <UNDEFINED> instruction: 0x000001b8
     8ac:	a1910004 	orrsge	r0, r1, r4
     8b0:	01b89f7f 			; <UNDEFINED> instruction: 0x01b89f7f
     8b4:	01bc0000 			; <UNDEFINED> instruction: 0x01bc0000
     8b8:	00010000 	andeq	r0, r1, r0
     8bc:	0001bc50 	andeq	fp, r1, r0, asr ip
     8c0:	0001c000 	andeq	ip, r1, r0
     8c4:	91000400 	tstls	r0, r0, lsl #8
     8c8:	c09f7fa0 	addsgt	r7, pc, r0, lsr #31
     8cc:	d4000001 	strle	r0, [r0], #-1
     8d0:	01000001 	tsteq	r0, r1
     8d4:	01d45000 	bicseq	r5, r4, r0
     8d8:	01e40000 	mvneq	r0, r0
     8dc:	00030000 	andeq	r0, r3, r0
     8e0:	e49f7f70 	ldr	r7, [pc], #3952	; 8e8 <__code_start__-0x7718>
     8e4:	24000001 	strcs	r0, [r0], #-1
     8e8:	04000002 	streq	r0, [r0], #-2
     8ec:	7fa09100 	svcvc	0x00a09100
     8f0:	0000009f 	muleq	r0, pc, r0	; <UNPREDICTABLE>
	...
     8fc:	00000101 	andeq	r0, r0, r1, lsl #2
	...
     90c:	00009000 	andeq	r9, r0, r0
     910:	0000dc00 	andeq	sp, r0, r0, lsl #24
     914:	5c000100 	stfpls	f0, [r0], {-0}
     918:	000000dc 	ldrdeq	r0, [r0], -ip
     91c:	000000f4 	strdeq	r0, [r0], -r4
     920:	f4530001 			; <UNDEFINED> instruction: 0xf4530001
     924:	4c000000 	stcmi	0, cr0, [r0], {-0}
     928:	01000001 	tsteq	r0, r1
     92c:	014c5c00 	cmpeq	ip, r0, lsl #24
     930:	01580000 	cmpeq	r8, r0
     934:	00010000 	andeq	r0, r1, r0
     938:	00015853 	andeq	r5, r1, r3, asr r8
     93c:	00017400 	andeq	r7, r1, r0, lsl #8
     940:	5c000100 	stfpls	f0, [r0], {-0}
     944:	000001b0 			; <UNDEFINED> instruction: 0x000001b0
     948:	000001c0 	andeq	r0, r0, r0, asr #3
     94c:	c0530001 	subsgt	r0, r3, r1
     950:	dc000001 	stcle	0, cr0, [r0], {1}
     954:	01000001 	tsteq	r0, r1
     958:	01e45c00 	mvneq	r5, r0, lsl #24
     95c:	01e80000 	mvneq	r0, r0
     960:	00010000 	andeq	r0, r1, r0
     964:	0001e853 	andeq	lr, r1, r3, asr r8
     968:	0001ff00 	andeq	pc, r1, r0, lsl #30
     96c:	5c000100 	stfpls	f0, [r0], {-0}
     970:	000001ff 	strdeq	r0, [r0], -pc	; <UNPREDICTABLE>
     974:	00000224 	andeq	r0, r0, r4, lsr #4
     978:	01f30004 	mvnseq	r0, r4
     97c:	00009f53 	andeq	r9, r0, r3, asr pc
     980:	00000000 	andeq	r0, r0, r0
     984:	01010000 	mrseq	r0, (UNDEF: 1)
     988:	00000001 	andeq	r0, r0, r1
     98c:	00dc0000 	sbcseq	r0, ip, r0
     990:	00f00000 	rscseq	r0, r0, r0
     994:	00020000 	andeq	r0, r2, r0
     998:	00f09f30 	rscseq	r9, r0, r0, lsr pc
     99c:	00f80000 	rscseq	r0, r8, r0
     9a0:	00020000 	andeq	r0, r2, r0
     9a4:	00fc9f31 	rscseq	r9, ip, r1, lsr pc
     9a8:	014c0000 	mrseq	r0, (UNDEF: 76)
     9ac:	00010000 	andeq	r0, r1, r0
     9b0:	00014c56 	andeq	r4, r1, r6, asr ip
     9b4:	00015400 	andeq	r5, r1, r0, lsl #8
     9b8:	30000200 	andcc	r0, r0, r0, lsl #4
     9bc:	0000009f 	muleq	r0, pc, r0	; <UNPREDICTABLE>
	...
     9c8:	00000101 	andeq	r0, r0, r1, lsl #2
     9cc:	38000101 	stmdacc	r0, {r0, r8}
     9d0:	54000000 	strpl	r0, [r0], #-0
     9d4:	01000000 	mrseq	r0, (UNDEF: 0)
     9d8:	00545000 	subseq	r5, r4, r0
     9dc:	00580000 	subseq	r0, r8, r0
     9e0:	00010000 	andeq	r0, r1, r0
     9e4:	00005852 	andeq	r5, r0, r2, asr r8
     9e8:	00006000 	andeq	r6, r0, r0
     9ec:	72000300 	andvc	r0, r0, #0, 6
     9f0:	00609f01 	rsbeq	r9, r0, r1, lsl #30
     9f4:	00640000 	rsbeq	r0, r4, r0
     9f8:	00010000 	andeq	r0, r1, r0
     9fc:	00006452 	andeq	r6, r0, r2, asr r4
     a00:	00007000 	andeq	r7, r0, r0
     a04:	72000300 	andvc	r0, r0, #0, 6
     a08:	00009f01 	andeq	r9, r0, r1, lsl #30
	...
     a14:	00380000 	eorseq	r0, r8, r0
     a18:	00500000 	subseq	r0, r0, r0
     a1c:	00010000 	andeq	r0, r1, r0
     a20:	00005051 	andeq	r5, r0, r1, asr r0
     a24:	00007000 	andeq	r7, r0, r0
     a28:	f3000400 	vshl.u8	d0, d0, d0
     a2c:	009f5101 	addseq	r5, pc, r1, lsl #2
	...
     a3c:	38000101 	stmdacc	r0, {r0, r8}
     a40:	50000000 	andpl	r0, r0, r0
     a44:	01000000 	mrseq	r0, (UNDEF: 0)
     a48:	00505200 	subseq	r5, r0, r0, lsl #4
     a4c:	005c0000 	subseq	r0, ip, r0
     a50:	00010000 	andeq	r0, r1, r0
     a54:	00005c51 	andeq	r5, r0, r1, asr ip
     a58:	00006000 	andeq	r6, r0, r0
     a5c:	71000300 	mrsvc	r0, LR_irq
     a60:	00609f01 	rsbeq	r9, r0, r1, lsl #30
     a64:	00700000 	rsbseq	r0, r0, r0
     a68:	00010000 	andeq	r0, r1, r0
     a6c:	00000051 	andeq	r0, r0, r1, asr r0
	...
     a78:	00003800 	andeq	r3, r0, r0, lsl #16
     a7c:	00004c00 	andeq	r4, r0, r0, lsl #24
     a80:	53000100 	movwpl	r0, #256	; 0x100
     a84:	0000004c 	andeq	r0, r0, ip, asr #32
     a88:	00000068 	andeq	r0, r0, r8, rrx
     a8c:	00530001 	subseq	r0, r3, r1
	...
     a9c:	40000000 	andmi	r0, r0, r0
     aa0:	48000000 	stmdami	r0, {}	; <UNPREDICTABLE>
     aa4:	01000000 	mrseq	r0, (UNDEF: 0)
     aa8:	00485c00 	subeq	r5, r8, r0, lsl #24
     aac:	004c0000 	subeq	r0, ip, r0
     ab0:	00080000 	andeq	r0, r8, r0
     ab4:	00730072 	rsbseq	r0, r3, r2, ror r0
     ab8:	9f01231c 	svcls	0x0001231c
     abc:	0000004c 	andeq	r0, r0, ip, asr #32
     ac0:	00000054 	andeq	r0, r0, r4, asr r0
     ac4:	00720009 	rsbseq	r0, r2, r9
     ac8:	1c5301f3 	ldfnee	f0, [r3], {243}	; 0xf3
     acc:	549f0123 	ldrpl	r0, [pc], #291	; ad4 <__code_start__-0x752c>
     ad0:	70000000 	andvc	r0, r0, r0
     ad4:	0a000000 	beq	adc <__code_start__-0x7524>
     ad8:	5201f300 	andpl	pc, r1, #0, 6
     adc:	1c5301f3 	ldfnee	f0, [r3], {243}	; 0xf3
     ae0:	009f0123 	addseq	r0, pc, r3, lsr #2
     ae4:	00000000 	andeq	r0, r0, r0
     ae8:	01000000 	mrseq	r0, (UNDEF: 0)
     aec:	00004c00 	andeq	r4, r0, r0, lsl #24
     af0:	00007000 	andeq	r7, r0, r0
     af4:	50000100 	andpl	r0, r0, r0, lsl #2
	...
     b00:	00010100 	andeq	r0, r1, r0, lsl #2
     b04:	00140000 	andseq	r0, r4, r0
     b08:	001c0000 	andseq	r0, ip, r0
     b0c:	00010000 	andeq	r0, r1, r0
     b10:	00001c50 	andeq	r1, r0, r0, asr ip
     b14:	00002400 	andeq	r2, r0, r0, lsl #8
     b18:	70000300 	andvc	r0, r0, r0, lsl #6
     b1c:	00249f01 	eoreq	r9, r4, r1, lsl #30
     b20:	00380000 	eorseq	r0, r8, r0
     b24:	00010000 	andeq	r0, r1, r0
     b28:	00000050 	andeq	r0, r0, r0, asr r0
	...
     b34:	00001400 	andeq	r1, r0, r0, lsl #8
     b38:	00001800 	andeq	r1, r0, r0, lsl #16
     b3c:	51000100 	mrspl	r0, (UNDEF: 16)
     b40:	00000018 	andeq	r0, r0, r8, lsl r0
     b44:	00000038 	andeq	r0, r0, r8, lsr r0
     b48:	01f30004 	mvnseq	r0, r4
     b4c:	00009f51 	andeq	r9, r0, r1, asr pc
	...
     b58:	00000018 	andeq	r0, r0, r8, lsl r0
     b5c:	00000038 	andeq	r0, r0, r8, lsr r0
     b60:	00510001 	subseq	r0, r1, r1
	...
     b74:	00000400 	andeq	r0, r0, r0, lsl #8
     b78:	50000100 	andpl	r0, r0, r0, lsl #2
     b7c:	00000004 	andeq	r0, r0, r4
     b80:	0000000c 	andeq	r0, r0, ip
     b84:	30700003 	rsbscc	r0, r0, r3
     b88:	00000c9f 	muleq	r0, pc, ip	; <UNPREDICTABLE>
     b8c:	00001400 	andeq	r1, r0, r0, lsl #8
     b90:	f3000400 	vshl.u8	d0, d0, d0
     b94:	009f5001 	addseq	r5, pc, r1
	...
     ba0:	24000000 	strcs	r0, [r0], #-0
     ba4:	68000002 	stmdavs	r0, {r1}
     ba8:	01000002 	tsteq	r0, r2
     bac:	02685000 	rsbeq	r5, r8, #0, 0
     bb0:	02880000 	addeq	r0, r8, #0, 0
     bb4:	00040000 	andeq	r0, r4, r0
     bb8:	9f5001f3 	svcls	0x005001f3
	...
     bc8:	00000224 	andeq	r0, r0, r4, lsr #4
     bcc:	00000264 	andeq	r0, r0, r4, ror #4
     bd0:	64510001 	ldrbvs	r0, [r1], #-1
     bd4:	88000002 	stmdahi	r0, {r1}
     bd8:	04000002 	streq	r0, [r0], #-2
     bdc:	5101f300 	mrspl	pc, SP_irq	; <UNPREDICTABLE>
     be0:	0000009f 	muleq	r0, pc, r0	; <UNPREDICTABLE>
     be4:	00000000 	andeq	r0, r0, r0
     be8:	01010000 	mrseq	r0, (UNDEF: 1)
     bec:	0c000000 	stceq	0, cr0, [r0], {-0}
     bf0:	14000000 	strne	r0, [r0], #-0
     bf4:	01000000 	mrseq	r0, (UNDEF: 0)
     bf8:	00145300 	andseq	r5, r4, r0, lsl #6
     bfc:	001c0000 	andseq	r0, ip, r0
     c00:	00030000 	andeq	r0, r3, r0
     c04:	1c9f0473 	cfldrsne	mvf0, [pc], {115}	; 0x73
     c08:	23000000 	movwcs	r0, #0
     c0c:	01000000 	mrseq	r0, (UNDEF: 0)
     c10:	00005300 	andeq	r5, r0, r0, lsl #6
     c14:	00000000 	andeq	r0, r0, r0
     c18:	00010000 	andeq	r0, r1, r0
     c1c:	00008c50 	andeq	r8, r0, r0, asr ip
     c20:	00008c6c 	andeq	r8, r0, ip, ror #24
     c24:	1c0c0006 	stcne	0, cr0, [ip], {6}
     c28:	9f201000 	svcls	0x00201000
	...
     c34:	8c500002 	mrrchi	0, 0, r0, r0, cr2	; <UNPREDICTABLE>
     c38:	8c6c0000 	stclhi	0, cr0, [ip], #-0
     c3c:	00060000 	andeq	r0, r6, r0
     c40:	1000240c 	andne	r2, r0, ip, lsl #8
     c44:	00009f20 	andeq	r9, r0, r0, lsr #30
     c48:	00000000 	andeq	r0, r0, r0
     c4c:	00030000 	andeq	r0, r3, r0
     c50:	00008c50 	andeq	r8, r0, r0, asr ip
     c54:	00008c6c 	andeq	r8, r0, ip, ror #24
     c58:	b4080005 	strlt	r0, [r8], #-5
     c5c:	009f2447 	addseq	r2, pc, r7, asr #8
     c60:	00000000 	andeq	r0, r0, r0
     c64:	04000000 	streq	r0, [r0], #-0
     c68:	008c5000 	addeq	r5, ip, r0
     c6c:	008c6c00 	addeq	r6, ip, r0, lsl #24
     c70:	08000300 	stmdaeq	r0, {r8, r9}
     c74:	00009f20 	andeq	r9, r0, r0, lsr #30
     c78:	00000000 	andeq	r0, r0, r0
     c7c:	00020000 	andeq	r0, r2, r0
     c80:	00000000 	andeq	r0, r0, r0
     c84:	00008c1c 	andeq	r8, r0, ip, lsl ip
     c88:	00008c20 	andeq	r8, r0, r0, lsr #24
     c8c:	9f300002 	svcls	0x00300002
     c90:	00008c20 	andeq	r8, r0, r0, lsr #24
     c94:	00008c24 	andeq	r8, r0, r4, lsr #24
     c98:	28530001 	ldmdacs	r3, {r0}^
     c9c:	3000008c 	andcc	r0, r0, ip, lsl #1
     ca0:	0100008c 	smlabbeq	r0, ip, r0, r0
     ca4:	00005300 	andeq	r5, r0, r0, lsl #6
     ca8:	00000000 	andeq	r0, r0, r0
     cac:	00020000 	andeq	r0, r2, r0
     cb0:	8c040000 	stchi	0, cr0, [r4], {-0}
     cb4:	8c080000 	stchi	0, cr0, [r8], {-0}
     cb8:	00020000 	andeq	r0, r2, r0
     cbc:	8c089f30 	stchi	15, cr9, [r8], {48}	; 0x30
     cc0:	8c0c0000 	stchi	0, cr0, [ip], {-0}
     cc4:	00010000 	andeq	r0, r1, r0
     cc8:	00000050 	andeq	r0, r0, r0, asr r0
	...
     cd4:	00006c00 	andeq	r6, r0, r0, lsl #24
     cd8:	00007800 	andeq	r7, r0, r0, lsl #16
     cdc:	50000100 	andpl	r0, r0, r0, lsl #2
     ce0:	00000078 	andeq	r0, r0, r8, ror r0
     ce4:	00000084 	andeq	r0, r0, r4, lsl #1
     ce8:	01f30004 	mvnseq	r0, r4
     cec:	00009f50 	andeq	r9, r0, r0, asr pc
	...
     cf8:	00540000 	subseq	r0, r4, r0
     cfc:	00600000 	rsbeq	r0, r0, r0
     d00:	00010000 	andeq	r0, r1, r0
     d04:	00006050 	andeq	r6, r0, r0, asr r0
     d08:	00006c00 	andeq	r6, r0, r0, lsl #24
     d0c:	f3000400 	vshl.u8	d0, d0, d0
     d10:	009f5001 	addseq	r5, pc, r1
	...
     d1c:	30000000 	andcc	r0, r0, r0
     d20:	3b000000 	blcc	d28 <__code_start__-0x72d8>
     d24:	01000000 	mrseq	r0, (UNDEF: 0)
     d28:	003b5000 	eorseq	r5, fp, r0
     d2c:	00540000 	subseq	r0, r4, r0
     d30:	00010000 	andeq	r0, r1, r0
     d34:	00000055 	andeq	r0, r0, r5, asr r0
     d38:	00000000 	andeq	r0, r0, r0
     d3c:	40000000 	andmi	r0, r0, r0
     d40:	54000000 	strpl	r0, [r0], #-0
     d44:	01000000 	mrseq	r0, (UNDEF: 0)
     d48:	00005400 	andeq	r5, r0, r0, lsl #8
	...
     d54:	00000044 	andeq	r0, r0, r4, asr #32
     d58:	00000048 	andeq	r0, r0, r8, asr #32
     d5c:	00500001 	subseq	r0, r0, r1
	...
     d68:	24000000 	strcs	r0, [r0], #-0
     d6c:	27000000 	strcs	r0, [r0, -r0]
     d70:	01000000 	mrseq	r0, (UNDEF: 0)
     d74:	00275000 	eoreq	r5, r7, r0
     d78:	00300000 	eorseq	r0, r0, r0
     d7c:	00010000 	andeq	r0, r1, r0
     d80:	00000054 	andeq	r0, r0, r4, asr r0
	...
     d8c:	00015800 	andeq	r5, r1, r0, lsl #16
     d90:	00016300 	andeq	r6, r1, r0, lsl #6
     d94:	50000100 	andpl	r0, r0, r0, lsl #2
     d98:	00000163 	andeq	r0, r0, r3, ror #2
     d9c:	00000188 	andeq	r0, r0, r8, lsl #3
     da0:	00540001 	subseq	r0, r4, r1
	...
     dac:	00014800 	andeq	r4, r1, r0, lsl #16
     db0:	00015800 	andeq	r5, r1, r0, lsl #16
     db4:	54000100 	strpl	r0, [r0], #-256	; 0xffffff00
	...
     dc8:	0000000f 	andeq	r0, r0, pc
     dcc:	0f500001 	svceq	0x00500001
     dd0:	20000000 	andcs	r0, r0, r0
     dd4:	01000000 	mrseq	r0, (UNDEF: 0)
     dd8:	00005400 	andeq	r5, r0, r0, lsl #8
	...
     de8:	000f0000 	andeq	r0, pc, r0
     dec:	00010000 	andeq	r0, r1, r0
     df0:	00000f51 	andeq	r0, r0, r1, asr pc
     df4:	00002000 	andeq	r2, r0, r0
     df8:	55000100 	strpl	r0, [r0, #-256]	; 0xffffff00
	...
     e08:	00000020 	andeq	r0, r0, r0, lsr #32
     e0c:	0000002f 	andeq	r0, r0, pc, lsr #32
     e10:	2f500001 	svccs	0x00500001
     e14:	40000000 	andmi	r0, r0, r0
     e18:	01000000 	mrseq	r0, (UNDEF: 0)
     e1c:	00005400 	andeq	r5, r0, r0, lsl #8
	...
     e28:	00200000 	eoreq	r0, r0, r0
     e2c:	002f0000 	eoreq	r0, pc, r0
     e30:	00010000 	andeq	r0, r1, r0
     e34:	00002f51 	andeq	r2, r0, r1, asr pc
     e38:	00004000 	andeq	r4, r0, r0
     e3c:	55000100 	strpl	r0, [r0, #-256]	; 0xffffff00
	...
     e4c:	03500000 	cmpeq	r0, #0, 0
     e50:	03980000 	orrseq	r0, r8, #0, 0
     e54:	00010000 	andeq	r0, r1, r0
     e58:	00039850 	andeq	r9, r3, r0, asr r8
     e5c:	00039b00 	andeq	r9, r3, r0, lsl #22
     e60:	91000200 	mrsls	r0, R8_usr
     e64:	00039b68 	andeq	r9, r3, r8, ror #22
     e68:	0003b000 	andeq	fp, r3, r0
     e6c:	f3000400 	vshl.u8	d0, d0, d0
     e70:	009f5001 	addseq	r5, pc, r1
	...
     e8c:	20000000 	andcs	r0, r0, r0
     e90:	7b000002 	blvc	ea0 <__code_start__-0x7160>
     e94:	01000002 	tsteq	r0, r2
     e98:	027b5000 	rsbseq	r5, fp, #0, 0
     e9c:	02840000 	addeq	r0, r4, #0, 0
     ea0:	00040000 	andeq	r0, r4, r0
     ea4:	9f5001f3 	svcls	0x005001f3
     ea8:	00000284 	andeq	r0, r0, r4, lsl #5
     eac:	0000029c 	muleq	r0, ip, r2
     eb0:	9c500001 	mrrcls	0, 0, r0, r0, cr1	; <UNPREDICTABLE>
     eb4:	a4000002 	strge	r0, [r0], #-2
     eb8:	04000002 	streq	r0, [r0], #-2
     ebc:	5001f300 	andpl	pc, r1, r0, lsl #6
     ec0:	0002a49f 	muleq	r2, pc, r4	; <UNPREDICTABLE>
     ec4:	0002a700 	andeq	sl, r2, r0, lsl #14
     ec8:	50000100 	andpl	r0, r0, r0, lsl #2
     ecc:	000002a7 	andeq	r0, r0, r7, lsr #5
     ed0:	000002c8 	andeq	r0, r0, r8, asr #5
     ed4:	01f30004 	mvnseq	r0, r4
     ed8:	02c89f50 	sbceq	r9, r8, #80, 30	; 0x140
     edc:	02e00000 	rsceq	r0, r0, #0, 0
     ee0:	00010000 	andeq	r0, r1, r0
     ee4:	0002e050 	andeq	lr, r2, r0, asr r0
     ee8:	0002e800 	andeq	lr, r2, r0, lsl #16
     eec:	f3000400 	vshl.u8	d0, d0, d0
     ef0:	e89f5001 	ldm	pc, {r0, ip, lr}	; <UNPREDICTABLE>
     ef4:	eb000002 	bl	f04 <__code_start__-0x70fc>
     ef8:	01000002 	tsteq	r0, r2
     efc:	02eb5000 	rsceq	r5, fp, #0, 0
     f00:	03380000 	teqeq	r8, #0, 0
     f04:	00040000 	andeq	r0, r4, r0
     f08:	9f5001f3 	svcls	0x005001f3
	...
     f28:	00000220 	andeq	r0, r0, r0, lsr #4
     f2c:	00000244 	andeq	r0, r0, r4, asr #4
     f30:	44510001 	ldrbmi	r0, [r1], #-1
     f34:	68000002 	stmdavs	r0, {r1}
     f38:	01000002 	tsteq	r0, r2
     f3c:	02685100 	rsbeq	r5, r8, #0
     f40:	027b0000 	rsbseq	r0, fp, #0, 0
     f44:	00030000 	andeq	r0, r3, r0
     f48:	7b9f0171 	blvc	fe7c1514 <__bss_end__+0xfe7b77f4>
     f4c:	84000002 	strhi	r0, [r0], #-2
     f50:	17000002 	strne	r0, [r0, -r2]
     f54:	01f33800 	mvnseq	r3, r0, lsl #16
     f58:	5101f351 	tstpl	r1, r1, asr r3	; <UNPREDICTABLE>
     f5c:	22244b40 	eorcs	r4, r4, #64, 22	; 0x10000
     f60:	0000080c 	andeq	r0, r0, ip, lsl #16
     f64:	01282d80 	smlawbeq	r8, r0, sp, r2
     f68:	9f131600 	svcls	0x00131600
     f6c:	00000284 	andeq	r0, r0, r4, lsl #5
     f70:	00000298 	muleq	r0, r8, r2
     f74:	98510001 	ldmdals	r1, {r0}^
     f78:	a4000002 	strge	r0, [r0], #-2
     f7c:	04000002 	streq	r0, [r0], #-2
     f80:	5101f300 	mrspl	pc, SP_irq	; <UNPREDICTABLE>
     f84:	0002a49f 	muleq	r2, pc, r4	; <UNPREDICTABLE>
     f88:	0002a700 	andeq	sl, r2, r0, lsl #14
     f8c:	51000100 	mrspl	r0, (UNDEF: 16)
     f90:	000002a7 	andeq	r0, r0, r7, lsr #5
     f94:	000002c8 	andeq	r0, r0, r8, asr #5
     f98:	01f30004 	mvnseq	r0, r4
     f9c:	02c89f51 	sbceq	r9, r8, #324	; 0x144
     fa0:	02dc0000 	sbcseq	r0, ip, #0, 0
     fa4:	00010000 	andeq	r0, r1, r0
     fa8:	0002dc51 	andeq	sp, r2, r1, asr ip
     fac:	00033800 	andeq	r3, r3, r0, lsl #16
     fb0:	38001700 	stmdacc	r0, {r8, r9, sl, ip}
     fb4:	f35101f3 	vbsl	q8, <illegal reg q8.5>, <illegal reg q9.5>
     fb8:	4b405101 	blmi	10153c4 <__bss_end__+0x100b6a4>
     fbc:	080c2224 	stmdaeq	ip, {r2, r5, r9, sp}
     fc0:	2d800000 	stccs	0, cr0, [r0]
     fc4:	16000128 	strne	r0, [r0], -r8, lsr #2
     fc8:	00009f13 	andeq	r9, r0, r3, lsl pc
	...
     fdc:	024c0000 	subeq	r0, ip, #0, 0
     fe0:	025c0000 	subseq	r0, ip, #0, 0
     fe4:	00010000 	andeq	r0, r1, r0
     fe8:	00025c52 	andeq	r5, r2, r2, asr ip
     fec:	00026400 	andeq	r6, r2, r0, lsl #8
     ff0:	03000500 	movweq	r0, #1280	; 0x500
     ff4:	00009904 	andeq	r9, r0, r4, lsl #18
     ff8:	00000264 	andeq	r0, r0, r4, ror #4
     ffc:	0000027b 	andeq	r0, r0, fp, ror r2
    1000:	c8530001 	ldmdagt	r3, {r0}^
    1004:	d8000002 	stmdale	r0, {r1}
    1008:	01000002 	tsteq	r0, r2
    100c:	02d85200 	sbcseq	r5, r8, #0, 4
    1010:	02e30000 	rsceq	r0, r3, #0, 0
    1014:	00050000 	andeq	r0, r5, r0
    1018:	00990403 	addseq	r0, r9, r3, lsl #8
    101c:	0002e800 	andeq	lr, r2, r0, lsl #16
    1020:	0002eb00 	andeq	lr, r2, r0, lsl #22
    1024:	53000100 	movwpl	r0, #256	; 0x100
	...
    1030:	02300004 	eorseq	r0, r0, #4, 0
    1034:	02340000 	eorseq	r0, r4, #0, 0
    1038:	00010000 	andeq	r0, r1, r0
    103c:	00000051 	andeq	r0, r0, r1, asr r0
    1040:	00000000 	andeq	r0, r0, r0
    1044:	3c000200 	sfmcc	f0, 4, [r0], {-0}
    1048:	44000002 	strmi	r0, [r0], #-2
    104c:	02000002 	andeq	r0, r0, #2, 0
    1050:	009f3800 	addseq	r3, pc, r0, lsl #16
    1054:	00000000 	andeq	r0, r0, r0
    1058:	02000000 	andeq	r0, r0, #0, 0
    105c:	00023c00 	andeq	r3, r2, r0, lsl #24
    1060:	00024400 	andeq	r4, r2, r0, lsl #8
    1064:	51000100 	mrspl	r0, (UNDEF: 16)
	...
    1070:	00000001 	andeq	r0, r0, r1
    1074:	024c0000 	subeq	r0, ip, #0, 0
    1078:	02640000 	rsbeq	r0, r4, #0, 0
    107c:	00010000 	andeq	r0, r1, r0
    1080:	0002c851 	andeq	ip, r2, r1, asr r8
    1084:	0002dc00 	andeq	sp, r2, r0, lsl #24
    1088:	51000100 	mrspl	r0, (UNDEF: 16)
    108c:	000002dc 	ldrdeq	r0, [r0], -ip
    1090:	000002e8 	andeq	r0, r0, r8, ror #5
    1094:	f3380017 	vqadd.u64	d0, d8, d7
    1098:	01f35101 	mvnseq	r5, r1, lsl #2
    109c:	244b4051 	strbcs	r4, [fp], #-81	; 0xffffffaf
    10a0:	00080c22 	andeq	r0, r8, r2, lsr #24
    10a4:	282d8000 	stmdacs	sp!, {pc}
    10a8:	13160001 	tstne	r6, #1, 0
    10ac:	0000009f 	muleq	r0, pc, r0	; <UNPREDICTABLE>
    10b0:	00000000 	andeq	r0, r0, r0
    10b4:	00000100 	andeq	r0, r0, r0, lsl #2
    10b8:	00000000 	andeq	r0, r0, r0
    10bc:	00024c00 	andeq	r4, r2, r0, lsl #24
    10c0:	00025c00 	andeq	r5, r2, r0, lsl #24
    10c4:	52000100 	andpl	r0, r0, #0
    10c8:	0000025c 	andeq	r0, r0, ip, asr r2
    10cc:	00000264 	andeq	r0, r0, r4, ror #4
    10d0:	04030005 	streq	r0, [r3], #-5
    10d4:	c8000099 	stmdagt	r0, {r0, r3, r4, r7}
    10d8:	d8000002 	stmdale	r0, {r1}
    10dc:	01000002 	tsteq	r0, r2
    10e0:	02d85200 	sbcseq	r5, r8, #0, 4
    10e4:	02e30000 	rsceq	r0, r3, #0, 0
    10e8:	00050000 	andeq	r0, r5, r0
    10ec:	00990403 	addseq	r0, r9, r3, lsl #8
	...
    10f8:	4c000400 	cfstrsmi	mvf0, [r0], {-0}
    10fc:	50000002 	andpl	r0, r0, r2
    1100:	01000002 	tsteq	r0, r2
    1104:	00005100 	andeq	r5, r0, r0, lsl #2
    1108:	00000000 	andeq	r0, r0, r0
    110c:	00030000 	andeq	r0, r3, r0
    1110:	00000264 	andeq	r0, r0, r4, ror #4
    1114:	00000268 	andeq	r0, r0, r8, ror #4
    1118:	00510001 	subseq	r0, r1, r1
    111c:	00000000 	andeq	r0, r0, r0
    1120:	03000000 	movweq	r0, #0
    1124:	00026400 	andeq	r6, r2, r0, lsl #8
    1128:	00026800 	andeq	r6, r2, r0, lsl #16
    112c:	53000100 	movwpl	r0, #256	; 0x100
	...
    1140:	000001bc 			; <UNDEFINED> instruction: 0x000001bc
    1144:	000001d3 	ldrdeq	r0, [r0], -r3
    1148:	d3500001 	cmple	r0, #1, 0
    114c:	f0000001 			; <UNDEFINED> instruction: 0xf0000001
    1150:	01000001 	tsteq	r0, r1
    1154:	01f05400 	mvnseq	r5, r0, lsl #8
    1158:	02080000 	andeq	r0, r8, #0, 0
    115c:	00010000 	andeq	r0, r1, r0
    1160:	00020850 	andeq	r0, r2, r0, asr r8
    1164:	00022000 	andeq	r2, r2, r0
    1168:	54000100 	strpl	r0, [r0], #-256	; 0xffffff00
	...
    1178:	000001d8 	ldrdeq	r0, [r0], -r8
    117c:	000001e3 	andeq	r0, r0, r3, ror #3
    1180:	e3500001 	cmp	r0, #1, 0
    1184:	f0000001 			; <UNDEFINED> instruction: 0xf0000001
    1188:	01000001 	tsteq	r0, r1
    118c:	00005500 	andeq	r5, r0, r0, lsl #10
	...
    11a4:	01240000 			; <UNDEFINED> instruction: 0x01240000
    11a8:	01380000 	teqeq	r8, r0
    11ac:	00010000 	andeq	r0, r1, r0
    11b0:	00013850 	andeq	r3, r1, r0, asr r8
    11b4:	00013c00 	andeq	r3, r1, r0, lsl #24
    11b8:	70000300 	andvc	r0, r0, r0, lsl #6
    11bc:	013c9f79 	teqeq	ip, r9, ror pc
    11c0:	01600000 	cmneq	r0, r0
    11c4:	00010000 	andeq	r0, r1, r0
    11c8:	00016053 	andeq	r6, r1, r3, asr r0
    11cc:	00017800 	andeq	r7, r1, r0, lsl #16
    11d0:	50000100 	andpl	r0, r0, r0, lsl #2
    11d4:	00000178 	andeq	r0, r0, r8, ror r1
    11d8:	00000180 	andeq	r0, r0, r0, lsl #3
    11dc:	01f30004 	mvnseq	r0, r4
    11e0:	01809f50 	orreq	r9, r0, r0, asr pc
    11e4:	01900000 	orrseq	r0, r0, r0
    11e8:	00010000 	andeq	r0, r1, r0
    11ec:	00019053 	andeq	r9, r1, r3, asr r0
    11f0:	00019f00 	andeq	r9, r1, r0, lsl #30
    11f4:	91000200 	mrsls	r0, R8_usr
    11f8:	00019f68 	andeq	r9, r1, r8, ror #30
    11fc:	0001bc00 	andeq	fp, r1, r0, lsl #24
    1200:	f3000900 	vmls.i8	d0, d0, d0
    1204:	07235001 	streq	r5, [r3, -r1]!
    1208:	9f1af809 	svcls	0x001af809
	...
    1218:	01440000 	mrseq	r0, (UNDEF: 68)
    121c:	01600000 	cmneq	r0, r0
    1220:	00010000 	andeq	r0, r1, r0
    1224:	00018050 	andeq	r8, r1, r0, asr r0
    1228:	00019c00 	andeq	r9, r1, r0, lsl #24
    122c:	50000100 	andpl	r0, r0, r0, lsl #2
    1230:	0000019c 	muleq	r0, ip, r1
    1234:	0000019f 	muleq	r0, pc, r1	; <UNPREDICTABLE>
    1238:	04030005 	streq	r0, [r3], #-5
    123c:	00000099 	muleq	r0, r9, r0
    1240:	00000000 	andeq	r0, r0, r0
    1244:	03000000 	movweq	r0, #0
    1248:	00013400 	andeq	r3, r1, r0, lsl #8
    124c:	00013c00 	andeq	r3, r1, r0, lsl #24
    1250:	38000200 	stmdacc	r0, {r9}
    1254:	0000009f 	muleq	r0, pc, r0	; <UNPREDICTABLE>
    1258:	00000000 	andeq	r0, r0, r0
    125c:	00000300 	andeq	r0, r0, r0, lsl #6
    1260:	00013400 	andeq	r3, r1, r0, lsl #8
    1264:	00013800 	andeq	r3, r1, r0, lsl #16
    1268:	50000100 	andpl	r0, r0, r0, lsl #2
    126c:	00000138 	andeq	r0, r0, r8, lsr r1
    1270:	0000013c 	andeq	r0, r0, ip, lsr r1
    1274:	79700003 	ldmdbvc	r0!, {r0, r1}^
    1278:	0000009f 	muleq	r0, pc, r0	; <UNPREDICTABLE>
	...
    128c:	30000000 	andcc	r0, r0, r0
    1290:	60000000 	andvs	r0, r0, r0
    1294:	01000000 	mrseq	r0, (UNDEF: 0)
    1298:	00605000 	rsbeq	r5, r0, r0
    129c:	006c0000 	rsbeq	r0, ip, r0
    12a0:	00050000 	andeq	r0, r5, r0
    12a4:	00990403 	addseq	r0, r9, r3, lsl #8
    12a8:	00006c00 	andeq	r6, r0, r0, lsl #24
    12ac:	00008400 	andeq	r8, r0, r0, lsl #8
    12b0:	50000100 	andpl	r0, r0, r0, lsl #2
    12b4:	00000084 	andeq	r0, r0, r4, lsl #1
    12b8:	0000008c 	andeq	r0, r0, ip, lsl #1
    12bc:	01f30004 	mvnseq	r0, r4
    12c0:	008c9f50 	addeq	r9, ip, r0, asr pc
    12c4:	00ac0000 	adceq	r0, ip, r0
    12c8:	00010000 	andeq	r0, r1, r0
    12cc:	0000ac50 	andeq	sl, r0, r0, asr ip
    12d0:	0000af00 	andeq	sl, r0, r0, lsl #30
    12d4:	91000200 	mrsls	r0, R8_usr
    12d8:	0000af68 	andeq	sl, r0, r8, ror #30
    12dc:	0000cc00 	andeq	ip, r0, r0, lsl #24
    12e0:	f3000400 	vshl.u8	d0, d0, d0
    12e4:	009f5001 	addseq	r5, pc, r1
	...
    12f4:	30000000 	andcc	r0, r0, r0
    12f8:	80000000 	andhi	r0, r0, r0
    12fc:	01000000 	mrseq	r0, (UNDEF: 0)
    1300:	00805100 	addeq	r5, r0, r0, lsl #2
    1304:	008c0000 	addeq	r0, ip, r0
    1308:	00040000 	andeq	r0, r4, r0
    130c:	9f5101f3 	svcls	0x005101f3
    1310:	0000008c 	andeq	r0, r0, ip, lsl #1
    1314:	000000a8 	andeq	r0, r0, r8, lsr #1
    1318:	a8510001 	ldmdage	r1, {r0}^
    131c:	cc000000 	stcgt	0, cr0, [r0], {-0}
    1320:	04000000 	streq	r0, [r0], #-0
    1324:	5101f300 	mrspl	pc, SP_irq	; <UNPREDICTABLE>
    1328:	0000009f 	muleq	r0, pc, r0	; <UNPREDICTABLE>
    132c:	00000000 	andeq	r0, r0, r0
    1330:	00000100 	andeq	r0, r0, r0, lsl #2
	...
    133c:	38000000 	stmdacc	r0, {}	; <UNPREDICTABLE>
    1340:	60000000 	andvs	r0, r0, r0
    1344:	01000000 	mrseq	r0, (UNDEF: 0)
    1348:	00605000 	rsbeq	r5, r0, r0
    134c:	006c0000 	rsbeq	r0, ip, r0
    1350:	00050000 	andeq	r0, r5, r0
    1354:	00990403 	addseq	r0, r9, r3, lsl #8
    1358:	00006c00 	andeq	r6, r0, r0, lsl #24
    135c:	00008400 	andeq	r8, r0, r0, lsl #8
    1360:	50000100 	andpl	r0, r0, r0, lsl #2
    1364:	00000084 	andeq	r0, r0, r4, lsl #1
    1368:	0000008c 	andeq	r0, r0, ip, lsl #1
    136c:	01f30004 	mvnseq	r0, r4
    1370:	008c9f50 	addeq	r9, ip, r0, asr pc
    1374:	00ac0000 	adceq	r0, ip, r0
    1378:	00010000 	andeq	r0, r1, r0
    137c:	0000ac50 	andeq	sl, r0, r0, asr ip
    1380:	0000af00 	andeq	sl, r0, r0, lsl #30
    1384:	91000200 	mrsls	r0, R8_usr
    1388:	0000af68 	andeq	sl, r0, r8, ror #30
    138c:	0000cc00 	andeq	ip, r0, r0, lsl #24
    1390:	f3000400 	vshl.u8	d0, d0, d0
    1394:	009f5001 	addseq	r5, pc, r1
	...
    13a4:	04000000 	streq	r0, [r0], #-0
    13a8:	01000000 	mrseq	r0, (UNDEF: 0)
    13ac:	00045200 	andeq	r5, r4, r0, lsl #4
    13b0:	00180000 	andseq	r0, r8, r0
    13b4:	00040000 	andeq	r0, r4, r0
    13b8:	9f5201f3 	svcls	0x005201f3
	...
    13c4:	01000002 	tsteq	r0, r2
    13c8:	00000001 	andeq	r0, r0, r1
    13cc:	00000000 	andeq	r0, r0, r0
    13d0:	00000008 	andeq	r0, r0, r8
    13d4:	08500001 	ldmdaeq	r0, {r0}^
    13d8:	10000000 	andne	r0, r0, r0
    13dc:	01000000 	mrseq	r0, (UNDEF: 0)
    13e0:	00105300 	andseq	r5, r0, r0, lsl #6
    13e4:	00140000 	andseq	r0, r4, r0
    13e8:	00030000 	andeq	r0, r3, r0
    13ec:	149f0173 	ldrne	r0, [pc], #371	; 13f4 <__code_start__-0x6c0c>
    13f0:	18000000 	stmdane	r0, {}	; <UNPREDICTABLE>
    13f4:	01000000 	mrseq	r0, (UNDEF: 0)
    13f8:	00005300 	andeq	r5, r0, r0, lsl #6
	...
    1404:	00000004 	andeq	r0, r0, r4
    1408:	00000018 	andeq	r0, r0, r8, lsl r0
    140c:	00520001 	subseq	r0, r2, r1
	...
    141c:	1c000000 	stcne	0, cr0, [r0], {-0}
    1420:	01000000 	mrseq	r0, (UNDEF: 0)
    1424:	001c5100 	andseq	r5, ip, r0, lsl #2
    1428:	00340000 	eorseq	r0, r4, r0
    142c:	00040000 	andeq	r0, r4, r0
    1430:	9f5101f3 	svcls	0x005101f3
	...
    143c:	00000002 	andeq	r0, r0, r2
    1440:	00010100 	andeq	r0, r1, r0, lsl #2
    1444:	00000000 	andeq	r0, r0, r0
    1448:	00040000 	andeq	r0, r4, r0
    144c:	00010000 	andeq	r0, r1, r0
    1450:	00000450 	andeq	r0, r0, r0, asr r4
    1454:	00001c00 	andeq	r1, r0, r0, lsl #24
    1458:	52000100 	andpl	r0, r0, #0
    145c:	0000001c 	andeq	r0, r0, ip, lsl r0
    1460:	00000024 	andeq	r0, r0, r4, lsr #32
    1464:	24530001 	ldrbcs	r0, [r3], #-1
    1468:	28000000 	stmdacs	r0, {}	; <UNPREDICTABLE>
    146c:	03000000 	movweq	r0, #0
    1470:	9f017300 	svcls	0x00017300
    1474:	00000028 	andeq	r0, r0, r8, lsr #32
    1478:	00000034 	andeq	r0, r0, r4, lsr r0
    147c:	00530001 	subseq	r0, r3, r1
    1480:	00000000 	andeq	r0, r0, r0
    1484:	03000000 	movweq	r0, #0
    1488:	00000000 	andeq	r0, r0, r0
    148c:	24000000 	strcs	r0, [r0], #-0
    1490:	01000000 	mrseq	r0, (UNDEF: 0)
    1494:	00245100 	eoreq	r5, r4, r0, lsl #2
    1498:	00340000 	eorseq	r0, r4, r0
    149c:	00030000 	andeq	r0, r3, r0
    14a0:	009f7f71 	addseq	r7, pc, r1, ror pc	; <UNPREDICTABLE>
	...
    14ac:	10000000 	andne	r0, r0, r0
    14b0:	1c000000 	stcne	0, cr0, [r0], {-0}
    14b4:	01000000 	mrseq	r0, (UNDEF: 0)
    14b8:	00245c00 	eoreq	r5, r4, r0, lsl #24
    14bc:	00340000 	eorseq	r0, r4, r0
    14c0:	00010000 	andeq	r0, r1, r0
    14c4:	00000052 	andeq	r0, r0, r2, asr r0
	...
    14d4:	00001800 	andeq	r1, r0, r0, lsl #16
    14d8:	50000100 	andpl	r0, r0, r0, lsl #2
    14dc:	00000018 	andeq	r0, r0, r8, lsl r0
    14e0:	00000024 	andeq	r0, r0, r4, lsr #32
    14e4:	00500001 	subseq	r0, r0, r1
	...
    14f4:	1c000000 	stcne	0, cr0, [r0], {-0}
    14f8:	01000000 	mrseq	r0, (UNDEF: 0)
    14fc:	001c5100 	andseq	r5, ip, r0, lsl #2
    1500:	002c0000 	eoreq	r0, ip, r0
    1504:	00010000 	andeq	r0, r1, r0
    1508:	00000051 	andeq	r0, r0, r1, asr r0
	...
    1518:	04000000 	streq	r0, [r0], #-0
    151c:	01000000 	mrseq	r0, (UNDEF: 0)
    1520:	00045100 	andeq	r5, r4, r0, lsl #2
    1524:	000c0000 	andeq	r0, ip, r0
    1528:	00010000 	andeq	r0, r1, r0
    152c:	00000c51 	andeq	r0, r0, r1, asr ip
    1530:	00002000 	andeq	r2, r0, r0
    1534:	71000300 	mrsvc	r0, LR_irq
    1538:	00009f7f 	andeq	r9, r0, pc, ror pc
    153c:	00000000 	andeq	r0, r0, r0
    1540:	00020000 	andeq	r0, r2, r0
	...
    154c:	00000004 	andeq	r0, r0, r4
    1550:	04500001 	ldrbeq	r0, [r0], #-1
    1554:	14000000 	strne	r0, [r0], #-0
    1558:	01000000 	mrseq	r0, (UNDEF: 0)
    155c:	00145c00 	andseq	r5, r4, r0, lsl #24
    1560:	00200000 	eoreq	r0, r0, r0
    1564:	00030000 	andeq	r0, r3, r0
    1568:	009f7f7c 	addseq	r7, pc, ip, ror pc	; <UNPREDICTABLE>
	...
    1574:	40000303 	andmi	r0, r0, r3, lsl #6
    1578:	40000093 	mulmi	r0, r3, r0
    157c:	01000093 	swpeq	r0, r3, [r0]	; <UNPREDICTABLE>
    1580:	93405000 	movtls	r5, #0
    1584:	936c0000 	cmnls	ip, #0, 0
    1588:	00040000 	andeq	r0, r4, r0
    158c:	9f5001f3 	svcls	0x005001f3
	...
    1598:	00030300 	andeq	r0, r3, r0, lsl #6
    159c:	00009340 	andeq	r9, r0, r0, asr #6
    15a0:	00009340 	andeq	r9, r0, r0, asr #6
    15a4:	40510001 	subsmi	r0, r1, r1
    15a8:	6c000093 	stcvs	0, cr0, [r0], {147}	; 0x93
    15ac:	04000093 	streq	r0, [r0], #-147	; 0xffffff6d
    15b0:	5101f300 	mrspl	pc, SP_irq	; <UNPREDICTABLE>
    15b4:	0000009f 	muleq	r0, pc, r0	; <UNPREDICTABLE>
    15b8:	00000000 	andeq	r0, r0, r0
    15bc:	03030000 	movweq	r0, #12288	; 0x3000
    15c0:	40000000 	andmi	r0, r0, r0
    15c4:	40000093 	mulmi	r0, r3, r0
    15c8:	01000093 	swpeq	r0, r3, [r0]	; <UNPREDICTABLE>
    15cc:	93405200 	movtls	r5, #512	; 0x200
    15d0:	93480000 	movtls	r0, #32768	; 0x8000
    15d4:	00010000 	andeq	r0, r1, r0
    15d8:	00934852 	addseq	r4, r3, r2, asr r8
    15dc:	00936c00 	addseq	r6, r3, r0, lsl #24
    15e0:	72000300 	andvc	r0, r0, #0, 6
    15e4:	00009f01 	andeq	r9, r0, r1, lsl #30
    15e8:	00000000 	andeq	r0, r0, r0
    15ec:	01020000 	mrseq	r0, (UNDEF: 2)
    15f0:	00000001 	andeq	r0, r0, r1
    15f4:	93400000 	movtls	r0, #0
    15f8:	934c0000 	movtls	r0, #49152	; 0xc000
    15fc:	00010000 	andeq	r0, r1, r0
    1600:	00934c50 	addseq	r4, r3, r0, asr ip
    1604:	00935000 	addseq	r5, r3, r0
    1608:	70000300 	andvc	r0, r0, r0, lsl #6
    160c:	93509f01 	cmpls	r0, #1, 30
    1610:	93600000 	cmnls	r0, #0, 0
    1614:	00010000 	andeq	r0, r1, r0
    1618:	00936450 	addseq	r6, r3, r0, asr r4
    161c:	00936800 	addseq	r6, r3, r0, lsl #16
    1620:	50000100 	andpl	r0, r0, r0, lsl #2
	...
    162c:	00000002 	andeq	r0, r0, r2
    1630:	93400000 	movtls	r0, #0
    1634:	93500000 	cmpls	r0, #0, 0
    1638:	00010000 	andeq	r0, r1, r0
    163c:	00935051 	addseq	r5, r3, r1, asr r0
    1640:	00935400 	addseq	r5, r3, r0, lsl #8
    1644:	71000300 	mrsvc	r0, LR_irq
    1648:	93549f01 	cmpls	r4, #1, 30
    164c:	936c0000 	cmnls	ip, #0, 0
    1650:	00010000 	andeq	r0, r1, r0
    1654:	00000051 	andeq	r0, r0, r1, asr r0
	...
    1664:	0000e800 	andeq	lr, r0, r0, lsl #16
    1668:	00010000 	andeq	r0, r1, r0
    166c:	50000100 	andpl	r0, r0, r0, lsl #2
    1670:	00000100 	andeq	r0, r0, r0, lsl #2
    1674:	00000110 	andeq	r0, r0, r0, lsl r1
    1678:	01f30004 	mvnseq	r0, r4
    167c:	01109f50 	tsteq	r0, r0, asr pc
    1680:	01140000 	tsteq	r4, r0
    1684:	00010000 	andeq	r0, r1, r0
    1688:	00011450 	andeq	r1, r1, r0, asr r4
    168c:	00011c00 	andeq	r1, r1, r0, lsl #24
    1690:	f3000400 	vshl.u8	d0, d0, d0
    1694:	009f5001 	addseq	r5, pc, r1
    1698:	00000000 	andeq	r0, r0, r0
    169c:	01000000 	mrseq	r0, (UNDEF: 0)
    16a0:	00000000 	andeq	r0, r0, r0
    16a4:	0000f400 	andeq	pc, r0, r0, lsl #8
    16a8:	00010000 	andeq	r0, r1, r0
    16ac:	70000b00 	andvc	r0, r0, r0, lsl #22
    16b0:	23253500 			; <UNDEFINED> instruction: 0x23253500
    16b4:	818080b4 	strhhi	r8, [r0, r4]
    16b8:	01009f02 	tsteq	r0, r2, lsl #30
    16bc:	01030000 	mrseq	r0, (UNDEF: 3)
    16c0:	00010000 	andeq	r0, r1, r0
    16c4:	00010350 	andeq	r0, r1, r0, asr r3
    16c8:	00011000 	andeq	r1, r1, r0
    16cc:	f3000c00 			; <UNDEFINED> instruction: 0xf3000c00
    16d0:	25355001 	ldrcs	r5, [r5, #-1]!
    16d4:	8080b423 	addhi	fp, r0, r3, lsr #8
    16d8:	009f0281 	addseq	r0, pc, r1, lsl #5
	...
    16e4:	0000f800 	andeq	pc, r0, r0, lsl #16
    16e8:	00011000 	andeq	r1, r1, r0
    16ec:	54000100 	strpl	r0, [r0], #-256	; 0xffffff00
	...
    1700:	000000cc 	andeq	r0, r0, ip, asr #1
    1704:	000000db 	ldrdeq	r0, [r0], -fp
    1708:	db500001 	blle	1401714 <__bss_end__+0x13f79f4>
    170c:	e0000000 	and	r0, r0, r0
    1710:	04000000 	streq	r0, [r0], #-0
    1714:	5001f300 	andpl	pc, r1, r0, lsl #6
    1718:	0000e09f 	muleq	r0, pc, r0	; <UNPREDICTABLE>
    171c:	0000e300 	andeq	lr, r0, r0, lsl #6
    1720:	50000100 	andpl	r0, r0, r0, lsl #2
    1724:	000000e3 	andeq	r0, r0, r3, ror #1
    1728:	000000e8 	andeq	r0, r0, r8, ror #1
    172c:	01f30004 	mvnseq	r0, r4
    1730:	00009f50 	andeq	r9, r0, r0, asr pc
	...
    1740:	00cc0000 	sbceq	r0, ip, r0
    1744:	00db0000 	sbcseq	r0, fp, r0
    1748:	00010000 	andeq	r0, r1, r0
    174c:	0000db51 	andeq	sp, r0, r1, asr fp
    1750:	0000e000 	andeq	lr, r0, r0
    1754:	f3000400 	vshl.u8	d0, d0, d0
    1758:	e09f5101 	adds	r5, pc, r1, lsl #2
    175c:	e3000000 	movw	r0, #0
    1760:	01000000 	mrseq	r0, (UNDEF: 0)
    1764:	00e35100 	rsceq	r5, r3, r0, lsl #2
    1768:	00e80000 	rsceq	r0, r8, r0
    176c:	00040000 	andeq	r0, r4, r0
    1770:	9f5101f3 	svcls	0x005101f3
	...
    1780:	000000bc 	strheq	r0, [r0], -ip
    1784:	000000c7 	andeq	r0, r0, r7, asr #1
    1788:	c7500001 	ldrbgt	r0, [r0, -r1]
    178c:	cc000000 	stcgt	0, cr0, [r0], {-0}
    1790:	04000000 	streq	r0, [r0], #-0
    1794:	5001f300 	andpl	pc, r1, r0, lsl #6
    1798:	0000009f 	muleq	r0, pc, r0	; <UNPREDICTABLE>
	...
    17a4:	00009800 	andeq	r9, r0, r0, lsl #16
    17a8:	0000b000 	andeq	fp, r0, r0
    17ac:	50000100 	andpl	r0, r0, r0, lsl #2
    17b0:	000000b0 	strheq	r0, [r0], -r0	; <UNPREDICTABLE>
    17b4:	000000bc 	strheq	r0, [r0], -ip
    17b8:	01f30004 	mvnseq	r0, r4
    17bc:	00009f50 	andeq	r9, r0, r0, asr pc
	...
    17c8:	00740000 	rsbseq	r0, r4, r0
    17cc:	008c0000 	addeq	r0, ip, r0
    17d0:	00010000 	andeq	r0, r1, r0
    17d4:	00008c50 	andeq	r8, r0, r0, asr ip
    17d8:	00009800 	andeq	r9, r0, r0, lsl #16
    17dc:	f3000400 	vshl.u8	d0, d0, d0
    17e0:	009f5001 	addseq	r5, pc, r1
	...
    17ec:	64000000 	strvs	r0, [r0], #-0
    17f0:	6f000000 	svcvs	0x00000000
    17f4:	01000000 	mrseq	r0, (UNDEF: 0)
    17f8:	006f5000 	rsbeq	r5, pc, r0
    17fc:	00740000 	rsbseq	r0, r4, r0
    1800:	00040000 	andeq	r0, r4, r0
    1804:	9f5001f3 	svcls	0x005001f3
	...
    1818:	00000038 	andeq	r0, r0, r8, lsr r0
    181c:	38500001 	ldmdacc	r0, {r0}^
    1820:	64000000 	strvs	r0, [r0], #-0
    1824:	04000000 	streq	r0, [r0], #-0
    1828:	5001f300 	andpl	pc, r1, r0, lsl #6
    182c:	0000009f 	muleq	r0, pc, r0	; <UNPREDICTABLE>
	...
    183c:	00004700 	andeq	r4, r0, r0, lsl #14
    1840:	51000100 	mrspl	r0, (UNDEF: 16)
    1844:	00000047 	andeq	r0, r0, r7, asr #32
    1848:	00000064 	andeq	r0, r0, r4, rrx
    184c:	01f30004 	mvnseq	r0, r4
    1850:	00009f51 	andeq	r9, r0, r1, asr pc
	...
    185c:	00000034 	andeq	r0, r0, r4, lsr r0
    1860:	00000064 	andeq	r0, r0, r4, rrx
    1864:	00540001 	subseq	r0, r4, r1
	...
    1870:	00004000 	andeq	r4, r0, r0
    1874:	00006400 	andeq	r6, r0, r0, lsl #8
    1878:	56000100 	strpl	r0, [r0], -r0, lsl #2
	...
    1884:	01000000 	mrseq	r0, (UNDEF: 0)
    1888:	00000001 	andeq	r0, r0, r1
    188c:	00000048 	andeq	r0, r0, r8, asr #32
    1890:	00000050 	andeq	r0, r0, r0, asr r0
    1894:	50500001 	subspl	r0, r0, r1
    1898:	50000000 	andpl	r0, r0, r0
    189c:	01000000 	mrseq	r0, (UNDEF: 0)
    18a0:	00505100 	subseq	r5, r0, r0, lsl #2
    18a4:	00540000 	subseq	r0, r4, r0
    18a8:	00090000 	andeq	r0, r9, r0
    18ac:	00740075 	rsbseq	r0, r4, r5, ror r0
    18b0:	21007124 	tstcs	r0, r4, lsr #2
    18b4:	0000549f 	muleq	r0, pc, r4	; <UNPREDICTABLE>
    18b8:	00005b00 	andeq	r5, r0, r0, lsl #22
    18bc:	51000100 	mrspl	r0, (UNDEF: 16)
	...

Disassembly of section .debug_aranges:

00000000 <.debug_aranges>:
   0:	0000001c 	andeq	r0, r0, ip, lsl r0
   4:	00000002 	andeq	r0, r0, r2
   8:	00040000 	andeq	r0, r4, r0
   c:	00000000 	andeq	r0, r0, r0
  10:	00008038 	andeq	r8, r0, r8, lsr r0
  14:	000001a0 	andeq	r0, r0, r0, lsr #3
	...
  20:	0000001c 	andeq	r0, r0, ip, lsl r0
  24:	040a0002 	streq	r0, [sl], #-2
  28:	00040000 	andeq	r0, r4, r0
  2c:	00000000 	andeq	r0, r0, r0
  30:	000081d8 	ldrdeq	r8, [r0], -r8	; <UNPREDICTABLE>
  34:	000001ac 	andeq	r0, r0, ip, lsr #3
	...
  40:	0000001c 	andeq	r0, r0, ip, lsl r0
  44:	06e80002 	strbteq	r0, [r8], r2
  48:	00040000 	andeq	r0, r4, r0
  4c:	00000000 	andeq	r0, r0, r0
  50:	00008384 	andeq	r8, r0, r4, lsl #7
  54:	0000000c 	andeq	r0, r0, ip
	...
  60:	0000001c 	andeq	r0, r0, ip, lsl r0
  64:	07f60002 	ldrbeq	r0, [r6, r2]!
  68:	00040000 	andeq	r0, r4, r0
  6c:	00000000 	andeq	r0, r0, r0
  70:	00008390 	muleq	r0, r0, r3
  74:	00000058 	andeq	r0, r0, r8, asr r0
	...
  80:	0000001c 	andeq	r0, r0, ip, lsl r0
  84:	09970002 	ldmibeq	r7, {r1}
  88:	00040000 	andeq	r0, r4, r0
  8c:	00000000 	andeq	r0, r0, r0
  90:	000083e8 	andeq	r8, r0, r8, ror #7
  94:	0000003c 	andeq	r0, r0, ip, lsr r0
	...
  a0:	0000001c 	andeq	r0, r0, ip, lsl r0
  a4:	0ae40002 	beq	ff9000b4 <__bss_end__+0xff8f6394>
  a8:	00040000 	andeq	r0, r4, r0
  ac:	00000000 	andeq	r0, r0, r0
  b0:	00008424 	andeq	r8, r0, r4, lsr #8
  b4:	00000034 	andeq	r0, r0, r4, lsr r0
	...
  c0:	0000001c 	andeq	r0, r0, ip, lsl r0
  c4:	0bdb0002 	bleq	ff6c00d4 <__bss_end__+0xff6b63b4>
  c8:	00040000 	andeq	r0, r4, r0
  cc:	00000000 	andeq	r0, r0, r0
  d0:	00008458 	andeq	r8, r0, r8, asr r4
  d4:	00000740 	andeq	r0, r0, r0, asr #14
	...
  e0:	0000001c 	andeq	r0, r0, ip, lsl r0
  e4:	16b60002 	ldrtne	r0, [r6], r2
  e8:	00040000 	andeq	r0, r4, r0
  ec:	00000000 	andeq	r0, r0, r0
  f0:	00008b98 	muleq	r0, r8, fp
  f4:	0000002c 	andeq	r0, r0, ip, lsr #32
	...
 100:	0000001c 	andeq	r0, r0, ip, lsl r0
 104:	17e90002 	strbne	r0, [r9, r2]!
 108:	00040000 	andeq	r0, r4, r0
 10c:	00000000 	andeq	r0, r0, r0
 110:	00008bc4 	andeq	r8, r0, r4, asr #23
 114:	0000003c 	andeq	r0, r0, ip, lsr r0
	...
 120:	0000001c 	andeq	r0, r0, ip, lsl r0
 124:	19760002 	ldmdbne	r6!, {r1}^
 128:	00040000 	andeq	r0, r4, r0
 12c:	00000000 	andeq	r0, r0, r0
 130:	00008c00 	andeq	r8, r0, r0, lsl #24
 134:	00000004 	andeq	r0, r0, r4
	...
 140:	0000001c 	andeq	r0, r0, ip, lsl r0
 144:	1a480002 	bne	1200154 <__bss_end__+0x11f6434>
 148:	00040000 	andeq	r0, r4, r0
 14c:	00000000 	andeq	r0, r0, r0
 150:	00008c04 	andeq	r8, r0, r4, lsl #24
 154:	00000080 	andeq	r0, r0, r0, lsl #1
	...
 160:	0000001c 	andeq	r0, r0, ip, lsl r0
 164:	1c820002 	stcne	0, cr0, [r2], {2}
 168:	00040000 	andeq	r0, r4, r0
 16c:	00000000 	andeq	r0, r0, r0
 170:	00008c84 	andeq	r8, r0, r4, lsl #25
 174:	00000084 	andeq	r0, r0, r4, lsl #1
	...
 180:	0000001c 	andeq	r0, r0, ip, lsl r0
 184:	1ed30002 	cdpne	0, 13, cr0, cr3, cr2, {0}
 188:	00040000 	andeq	r0, r4, r0
 18c:	00000000 	andeq	r0, r0, r0
 190:	00008d08 	andeq	r8, r0, r8, lsl #26
 194:	000001f0 	strdeq	r0, [r0], -r0	; <UNPREDICTABLE>
	...
 1a0:	0000001c 	andeq	r0, r0, ip, lsl r0
 1a4:	24a40002 	strtcs	r0, [r4], #2
 1a8:	00040000 	andeq	r0, r4, r0
 1ac:	00000000 	andeq	r0, r0, r0
 1b0:	00008ef8 	strdeq	r8, [r0], -r8	; <UNPREDICTABLE>
 1b4:	000003b0 			; <UNDEFINED> instruction: 0x000003b0
	...
 1c0:	0000001c 	andeq	r0, r0, ip, lsl r0
 1c4:	2d910002 	ldccs	0, cr0, [r1, #8]
 1c8:	00040000 	andeq	r0, r4, r0
 1cc:	00000000 	andeq	r0, r0, r0
 1d0:	000092a8 	andeq	r9, r0, r8, lsr #5
 1d4:	00000018 	andeq	r0, r0, r8, lsl r0
	...
 1e0:	0000001c 	andeq	r0, r0, ip, lsl r0
 1e4:	2ecf0002 	cdpcs	0, 12, cr0, cr15, cr2, {0}
 1e8:	00040000 	andeq	r0, r4, r0
 1ec:	00000000 	andeq	r0, r0, r0
 1f0:	000092c0 	andeq	r9, r0, r0, asr #5
 1f4:	00000034 	andeq	r0, r0, r4, lsr r0
	...
 200:	0000001c 	andeq	r0, r0, ip, lsl r0
 204:	300a0002 	andcc	r0, sl, r2
 208:	00040000 	andeq	r0, r4, r0
 20c:	00000000 	andeq	r0, r0, r0
 210:	000092f4 	strdeq	r9, [r0], -r4
 214:	0000002c 	andeq	r0, r0, ip, lsr #32
	...
 220:	0000001c 	andeq	r0, r0, ip, lsl r0
 224:	31050002 	tstcc	r5, r2
 228:	00040000 	andeq	r0, r4, r0
 22c:	00000000 	andeq	r0, r0, r0
 230:	00009320 	andeq	r9, r0, r0, lsr #6
 234:	00000020 	andeq	r0, r0, r0, lsr #32
	...
 240:	0000001c 	andeq	r0, r0, ip, lsl r0
 244:	32180002 	andscc	r0, r8, #2, 0
 248:	00040000 	andeq	r0, r4, r0
 24c:	00000000 	andeq	r0, r0, r0
 250:	00009340 	andeq	r9, r0, r0, asr #6
 254:	0000002c 	andeq	r0, r0, ip, lsr #32
	...
 260:	0000001c 	andeq	r0, r0, ip, lsl r0
 264:	336a0002 	cmncc	sl, #2, 0
 268:	00040000 	andeq	r0, r4, r0
 26c:	00000000 	andeq	r0, r0, r0
 270:	0000936c 	andeq	r9, r0, ip, ror #6
 274:	00000004 	andeq	r0, r0, r4
	...
 280:	0000001c 	andeq	r0, r0, ip, lsl r0
 284:	343c0002 	ldrtcc	r0, [ip], #-2
 288:	00040000 	andeq	r0, r4, r0
 28c:	00000000 	andeq	r0, r0, r0
 290:	00009388 	andeq	r9, r0, r8, lsl #7
 294:	0000011c 	andeq	r0, r0, ip, lsl r1
	...

Disassembly of section .debug_ranges:

00000000 <.debug_ranges>:
   0:	00000024 	andeq	r0, r0, r4, lsr #32
   4:	00000048 	andeq	r0, r0, r8, asr #32
   8:	00000050 	andeq	r0, r0, r0, asr r0
   c:	0000008c 	andeq	r0, r0, ip, lsl #1
	...
  18:	00000134 	andeq	r0, r0, r4, lsr r1
  1c:	00000150 	andeq	r0, r0, r0, asr r1
  20:	00000158 	andeq	r0, r0, r8, asr r1
  24:	00000178 	andeq	r0, r0, r8, ror r1
	...
  30:	00008c04 	andeq	r8, r0, r4, lsl #24
  34:	00008c84 	andeq	r8, r0, r4, lsl #25
	...
  40:	00000134 	andeq	r0, r0, r4, lsr r1
  44:	00000134 	andeq	r0, r0, r4, lsr r1
  48:	00000134 	andeq	r0, r0, r4, lsr r1
  4c:	0000013c 	andeq	r0, r0, ip, lsr r1
	...
  58:	0000024c 	andeq	r0, r0, ip, asr #4
  5c:	00000264 	andeq	r0, r0, r4, ror #4
  60:	000002c8 	andeq	r0, r0, r8, asr #5
  64:	000002e8 	andeq	r0, r0, r8, ror #5
	...
  70:	00009340 	andeq	r9, r0, r0, asr #6
  74:	0000936c 	andeq	r9, r0, ip, ror #6
	...

Disassembly of section .debug_line:

00000000 <.debug_line>:
       0:	000002a4 	andeq	r0, r0, r4, lsr #5
       4:	00f70003 	rscseq	r0, r7, r3
       8:	01020000 	mrseq	r0, (UNDEF: 2)
       c:	000d0efb 	strdeq	r0, [sp], -fp
      10:	01010101 	tsteq	r1, r1, lsl #2
      14:	01000000 	mrseq	r0, (UNDEF: 0)
      18:	2f010000 	svccs	0x00010000
      1c:	72657355 	rsbvc	r7, r5, #1409286145	; 0x54000001
      20:	72742f73 	rsbsvc	r2, r4, #460	; 0x1cc
      24:	65747369 	ldrbvs	r7, [r4, #-873]!	; 0xfffffc97
      28:	6c6f6e6e 	stclvs	14, cr6, [pc], #-440	; fffffe78 <__bss_end__+0xffff6158>
      2c:	6e616d6c 	cdpvs	13, 6, cr6, cr1, cr12, {3}
      30:	636f442f 	cmnvs	pc, #788529152	; 0x2f000000
      34:	6e656d75 	mcrvs	13, 3, r6, cr5, cr5, {3}
      38:	532f7374 			; <UNDEFINED> instruction: 0x532f7374
      3c:	6e697270 	mcrvs	2, 3, r7, cr9, cr0, {3}
      40:	75515f67 	ldrbvc	r5, [r1, #-3943]	; 0xfffff099
      44:	65747261 	ldrbvs	r7, [r4, #-609]!	; 0xfffffd9f
      48:	30325f72 	eorscc	r5, r2, r2, ror pc
      4c:	432f3232 			; <UNDEFINED> instruction: 0x432f3232
      50:	30343253 	eorscc	r3, r4, r3, asr r2
      54:	732d584c 			; <UNDEFINED> instruction: 0x732d584c
      58:	32327270 	eorscc	r7, r2, #112, 4
      5c:	62696c2f 	rsbvs	r6, r9, #12032	; 0x2f00
      60:	692f6970 	stmdbvs	pc!, {r4, r5, r6, r8, fp, sp, lr}	; <UNPREDICTABLE>
      64:	756c636e 	strbvc	r6, [ip, #-878]!	; 0xfffffc92
      68:	2f006564 	svccs	0x00006564
      6c:	2f727375 	svccs	0x00727375
      70:	61636f6c 	cmnvs	r3, ip, ror #30
      74:	65432f6c 	strbvs	r2, [r3, #-3948]	; 0xfffff094
      78:	72616c6c 	rsbvc	r6, r1, #108, 24	; 0x6c00
      7c:	6d72612f 	ldfvse	f6, [r2, #-188]!	; 0xffffff44
      80:	6e6f6e2d 	cdpvs	14, 6, cr6, cr15, cr13, {1}
      84:	61652d65 	cmnvs	r5, r5, ror #26
      88:	742d6962 	strtvc	r6, [sp], #-2402	; 0xfffff69e
      8c:	2f747365 	svccs	0x00747365
      90:	30322d39 	eorscc	r2, r2, r9, lsr sp
      94:	34713931 	ldrbtcc	r3, [r1], #-2353	; 0xfffff6cf
      98:	3173632d 	cmncc	r3, sp, lsr #6
      9c:	2f653730 	svccs	0x00653730
      a0:	2f62696c 	svccs	0x0062696c
      a4:	2f636367 	svccs	0x00636367
      a8:	2d6d7261 	sfmcs	f7, 2, [sp, #-388]!	; 0xfffffe7c
      ac:	656e6f6e 	strbvs	r6, [lr, #-3950]!	; 0xfffff092
      b0:	6261652d 	rsbvs	r6, r1, #188743680	; 0xb400000
      b4:	2e392f69 	cdpcs	15, 3, cr2, cr9, cr9, {3}
      b8:	2f312e32 	svccs	0x00312e32
      bc:	6c636e69 	stclvs	14, cr6, [r3], #-420	; 0xfffffe5c
      c0:	00656475 	rsbeq	r6, r5, r5, ror r4
      c4:	742d3200 	strtvc	r3, [sp], #-512	; 0xfffffe00
      c8:	2d747365 	ldclcs	3, cr7, [r4, #-404]!	; 0xfffffe6c
      cc:	6c6c616d 	stfvse	f6, [ip], #-436	; 0xfffffe4c
      d0:	632e636f 			; <UNDEFINED> instruction: 0x632e636f
      d4:	00000000 	andeq	r0, r0, r0
      d8:	2e697072 	mcrcs	0, 3, r7, cr9, cr2, {3}
      dc:	00010068 	andeq	r0, r1, r8, rrx
      e0:	2d726b00 	vldmdbcs	r2!, {d22-d21}
      e4:	6c6c616d 	stfvse	f6, [ip], #-436	; 0xfffffe4c
      e8:	682e636f 	stmdavs	lr!, {r0, r1, r2, r3, r5, r6, r8, r9, sp, lr}
      ec:	00000000 	andeq	r0, r0, r0
      f0:	69647473 	stmdbvs	r4!, {r0, r1, r4, r5, r6, sl, ip, sp, lr}^
      f4:	672d746e 	strvs	r7, [sp, -lr, ror #8]!
      f8:	682e6363 	stmdavs	lr!, {r0, r1, r5, r6, r8, r9, sp, lr}
      fc:	00000200 	andeq	r0, r0, r0, lsl #4
     100:	002a0500 	eoreq	r0, sl, r0, lsl #10
     104:	80380205 	eorshi	r0, r8, r5, lsl #4
     108:	061a0000 	ldreq	r0, [sl], -r0
     10c:	06050501 	streq	r0, [r5], -r1, lsl #10
     110:	06160567 	ldreq	r0, [r6], -r7, ror #10
     114:	05052e01 	streq	r2, [r5, #-3585]	; 0xfffff1ff
     118:	09054c06 	stmdbeq	r5, {r1, r2, sl, fp, lr}
     11c:	060d0501 	streq	r0, [sp], -r1, lsl #10
     120:	00140501 	andseq	r0, r4, r1, lsl #10
     124:	06020402 	streq	r0, [r2], -r2, lsl #8
     128:	0005052e 	andeq	r0, r5, lr, lsr #10
     12c:	06020402 	streq	r0, [r2], -r2, lsl #8
     130:	06090501 	streq	r0, [r9], -r1, lsl #10
     134:	061a054b 	ldreq	r0, [sl], -fp, asr #10
     138:	2e200501 	cfsh64cs	mvdx0, mvdx0, #1
     13c:	054a1e05 	strbeq	r1, [sl, #-3589]	; 0xfffff1fb
     140:	05320609 	ldreq	r0, [r2, #-1545]!	; 0xfffff9f7
     144:	0501060c 	streq	r0, [r1, #-1548]	; 0xfffff9f4
     148:	014b0609 	cmpeq	fp, r9, lsl #12
     14c:	02040200 	andeq	r0, r4, #0, 4
     150:	001b0566 	andseq	r0, fp, r6, ror #10
     154:	03020402 	movweq	r0, #9218	; 0x2402
     158:	1c05017a 	stfnes	f0, [r5], {122}	; 0x7a
     15c:	02040200 	andeq	r0, r4, #0, 4
     160:	02000106 	andeq	r0, r0, #-2147483647	; 0x80000001
     164:	052e0204 	streq	r0, [lr, #-516]!	; 0xfffffdfc
     168:	04020009 	streq	r0, [r2], #-9
     16c:	00340601 	eorseq	r0, r4, r1, lsl #12
     170:	2e010402 	cdpcs	4, 0, cr0, cr1, cr2, {0}
     174:	01040200 	mrseq	r0, R12_usr
     178:	02009008 	andeq	r9, r0, #8, 0
     17c:	2e060104 	adfcss	f0, f6, f4
     180:	05150d05 	ldreq	r0, [r5, #-3333]	; 0xfffff2fb
     184:	04020014 	streq	r0, [r2], #-20	; 0xffffffec
     188:	052e0602 	streq	r0, [lr, #-1538]!	; 0xfffff9fe
     18c:	04020005 	streq	r0, [r2], #-5
     190:	05010602 	streq	r0, [r1, #-1538]	; 0xfffff9fe
     194:	014b0609 	cmpeq	fp, r9, lsl #12
     198:	02040200 	andeq	r0, r4, #0, 4
     19c:	04020082 	streq	r0, [r2], #-130	; 0xffffff7e
     1a0:	1b050102 	blne	1405b0 <__bss_end__+0x136890>
     1a4:	02040200 	andeq	r0, r4, #0, 4
     1a8:	001c0511 	andseq	r0, ip, r1, lsl r5
     1ac:	06020402 	streq	r0, [r2], -r2, lsl #8
     1b0:	04020001 	streq	r0, [r2], #-1
     1b4:	09052e02 	stmdbeq	r5, {r1, r9, sl, fp, sp}
     1b8:	01040200 	mrseq	r0, R12_usr
     1bc:	02002f06 	andeq	r2, r0, #6, 30
     1c0:	00010104 	andeq	r0, r1, r4, lsl #2
     1c4:	06010402 	streq	r0, [r1], -r2, lsl #8
     1c8:	0402002e 	streq	r0, [r2], #-46	; 0xffffffd2
     1cc:	00ba0601 	adcseq	r0, sl, r1, lsl #12
     1d0:	06010402 	streq	r0, [r1], -r2, lsl #8
     1d4:	140d052e 	strne	r0, [sp], #-1326	; 0xfffffad2
     1d8:	0009052e 	andeq	r0, r9, lr, lsr #10
     1dc:	06030402 	streq	r0, [r3], -r2, lsl #8
     1e0:	001b052f 	andseq	r0, fp, pc, lsr #10
     1e4:	49030402 	stmdbmi	r3, {r1, sl}
     1e8:	02001c05 	andeq	r1, r0, #1280	; 0x500
     1ec:	01060304 	tsteq	r6, r4, lsl #6
     1f0:	02001405 	andeq	r1, r0, #83886080	; 0x5000000
     1f4:	2e060104 	adfcss	f0, f6, f4
     1f8:	02000505 	andeq	r0, r0, #20971520	; 0x1400000
     1fc:	01060104 	tsteq	r6, r4, lsl #2
     200:	054c4c06 	strbeq	r4, [ip, #-3078]	; 0xfffff3fa
     204:	66130601 	ldrvs	r0, [r3], -r1, lsl #12
     208:	00061405 	andeq	r1, r6, r5, lsl #8
     20c:	814c0205 	cmphi	ip, r5, lsl #4
     210:	05140000 	ldreq	r0, [r4, #-0]
     214:	14144b05 	ldrne	r4, [r4], #-2821	; 0xfffff4fb
     218:	01061005 	tsteq	r6, r5
     21c:	67060505 	strvs	r0, [r6, -r5, lsl #10]
     220:	01090513 	tsteq	r9, r3, lsl r5
     224:	01060d05 	tsteq	r6, r5, lsl #26
     228:	02001405 	andeq	r1, r0, #83886080	; 0x5000000
     22c:	2e060204 	cdpcs	2, 0, cr0, cr6, cr4, {0}
     230:	02000505 	andeq	r0, r0, #20971520	; 0x1400000
     234:	01060204 	tsteq	r6, r4, lsl #4
     238:	4b060905 	blmi	182654 <__bss_end__+0x178934>
     23c:	01061405 	tsteq	r6, r5, lsl #8
     240:	4d060905 	vstrmi.16	s0, [r6, #-10]	; <UNPREDICTABLE>
     244:	04020001 	streq	r0, [r2], #-1
     248:	02004a02 	andeq	r4, r0, #8192	; 0x2000
     24c:	00010204 	andeq	r0, r1, r4, lsl #4
     250:	13020402 	movwne	r0, #9218	; 0x2402
     254:	02040200 	andeq	r0, r4, #0, 4
     258:	04020001 	streq	r0, [r2], #-1
     25c:	004a0602 	subeq	r0, sl, r2, lsl #12
     260:	06020402 	streq	r0, [r2], -r2, lsl #8
     264:	0020052e 	eoreq	r0, r0, lr, lsr #10
     268:	0d020402 	cfstrseq	mvf0, [r2, #-8]
     26c:	02002105 	andeq	r2, r0, #1073741825	; 0x40000001
     270:	01060204 	tsteq	r6, r4, lsl #4
     274:	02040200 	andeq	r0, r4, #0, 4
     278:	0009052e 	andeq	r0, r9, lr, lsr #10
     27c:	06010402 	streq	r0, [r1], -r2, lsl #8
     280:	04020032 	streq	r0, [r2], #-50	; 0xffffffce
     284:	02000101 	andeq	r0, r0, #1073741824	; 0x40000000
     288:	ba060104 	blt	1806a0 <__bss_end__+0x176980>
     28c:	01040200 	mrseq	r0, R12_usr
     290:	02002e06 	andeq	r2, r0, #96	; 0x60
     294:	2e060104 	adfcss	f0, f6, f4
     298:	15060505 	strne	r0, [r6, #-1285]	; 0xfffffafb
     29c:	01054a01 	tsteq	r5, r1, lsl #20
     2a0:	024a1306 	subeq	r1, sl, #402653184	; 0x18000000
     2a4:	0101000c 	tsteq	r1, ip
     2a8:	00000252 	andeq	r0, r0, r2, asr r2
     2ac:	008a0003 	addeq	r0, sl, r3
     2b0:	01020000 	mrseq	r0, (UNDEF: 2)
     2b4:	000d0efb 	strdeq	r0, [sp], -fp
     2b8:	01010101 	tsteq	r1, r1, lsl #2
     2bc:	01000000 	mrseq	r0, (UNDEF: 0)
     2c0:	2f010000 	svccs	0x00010000
     2c4:	72657355 	rsbvc	r7, r5, #1409286145	; 0x54000001
     2c8:	72742f73 	rsbsvc	r2, r4, #460	; 0x1cc
     2cc:	65747369 	ldrbvs	r7, [r4, #-873]!	; 0xfffffc97
     2d0:	6c6f6e6e 	stclvs	14, cr6, [pc], #-440	; 120 <__code_start__-0x7ee0>
     2d4:	6e616d6c 	cdpvs	13, 6, cr6, cr1, cr12, {3}
     2d8:	636f442f 	cmnvs	pc, #788529152	; 0x2f000000
     2dc:	6e656d75 	mcrvs	13, 3, r6, cr5, cr5, {3}
     2e0:	532f7374 			; <UNDEFINED> instruction: 0x532f7374
     2e4:	6e697270 	mcrvs	2, 3, r7, cr9, cr0, {3}
     2e8:	75515f67 	ldrbvc	r5, [r1, #-3943]	; 0xfffff099
     2ec:	65747261 	ldrbvs	r7, [r4, #-609]!	; 0xfffffd9f
     2f0:	30325f72 	eorscc	r5, r2, r2, ror pc
     2f4:	432f3232 			; <UNDEFINED> instruction: 0x432f3232
     2f8:	30343253 	eorscc	r3, r4, r3, asr r2
     2fc:	732d584c 			; <UNDEFINED> instruction: 0x732d584c
     300:	32327270 	eorscc	r7, r2, #112, 4
     304:	62696c2f 	rsbvs	r6, r9, #12032	; 0x2f00
     308:	692f6970 	stmdbvs	pc!, {r4, r5, r6, r8, fp, sp, lr}	; <UNPREDICTABLE>
     30c:	756c636e 	strbvc	r6, [ip, #-878]!	; 0xfffffc92
     310:	00006564 	andeq	r6, r0, r4, ror #10
     314:	6d2d726b 	sfmvs	f7, 4, [sp, #-428]!	; 0xfffffe54
     318:	6f6c6c61 	svcvs	0x006c6c61
     31c:	00632e63 	rsbeq	r2, r3, r3, ror #28
     320:	72000000 	andvc	r0, r0, #0, 0
     324:	682e6970 	stmdavs	lr!, {r4, r5, r6, r8, fp, sp, lr}
     328:	00000100 	andeq	r0, r0, r0, lsl #2
     32c:	6d2d726b 	sfmvs	f7, 4, [sp, #-428]!	; 0xfffffe54
     330:	6f6c6c61 	svcvs	0x006c6c61
     334:	00682e63 	rsbeq	r2, r8, r3, ror #28
     338:	00000000 	andeq	r0, r0, r0
     33c:	05001905 	streq	r1, [r0, #-2309]	; 0xfffff6fb
     340:	0081d802 	addeq	sp, r1, r2, lsl #16
     344:	00d10300 	sbcseq	r0, r1, r0, lsl #6
     348:	05010601 	streq	r0, [r1, #-1537]	; 0xfffff9ff
     34c:	132f0602 			; <UNDEFINED> instruction: 0x132f0602
     350:	01060505 	tsteq	r6, r5, lsl #10
     354:	2f060205 	svccs	0x00060205
     358:	01060905 	tsteq	r6, r5, lsl #18
     35c:	2e4a0205 	cdpcs	2, 4, cr0, cr10, cr5, {0}
     360:	02001205 	andeq	r1, r0, #1342177280	; 0x50000000
     364:	2e060104 	adfcss	f0, f6, f4
     368:	02000205 	andeq	r0, r0, #1342177280	; 0x50000000
     36c:	01060104 	tsteq	r6, r4, lsl #2
     370:	02002605 	andeq	r2, r0, #5242880	; 0x500000
     374:	054a0304 	strbeq	r0, [sl, #-772]	; 0xfffffcfc
     378:	04020012 	streq	r0, [r2], #-18	; 0xffffffee
     37c:	03052e03 	movweq	r2, #24067	; 0x5e03
     380:	10054b06 	andne	r4, r5, r6, lsl #22
     384:	06050106 	streq	r0, [r5], -r6, lsl #2
     388:	0015052e 	andseq	r0, r5, lr, lsr #10
     38c:	4a010402 	bmi	4139c <__bss_end__+0x3767c>
     390:	02002005 	andeq	r2, r0, #5, 0
     394:	004a0204 	subeq	r0, sl, r4, lsl #4
     398:	4a020402 	bmi	813a8 <__bss_end__+0x77688>
     39c:	32060205 	andcc	r0, r6, #1342177280	; 0x50000000
     3a0:	01061005 	tsteq	r6, r5
     3a4:	052e0905 	streq	r0, [lr, #-2309]!	; 0xfffff6fb
     3a8:	05052e1d 	streq	r2, [r5, #-3613]	; 0xfffff1e3
     3ac:	060c052e 	streq	r0, [ip], -lr, lsr #10
     3b0:	0616054e 	ldreq	r0, [r6], -lr, asr #10
     3b4:	06080501 	streq	r0, [r8], -r1, lsl #10
     3b8:	0614052f 	ldreq	r0, [r4], -pc, lsr #10
     3bc:	2e0e0501 	cfsh32cs	mvfx0, mvfx14, #1
     3c0:	052e0b05 	streq	r0, [lr, #-2821]!	; 0xfffff4fb
     3c4:	054e060c 	strbeq	r0, [lr, #-1548]	; 0xfffff9f4
     3c8:	05010615 	streq	r0, [r1, #-1557]	; 0xfffff9eb
     3cc:	05300602 	ldreq	r0, [r0, #-1538]!	; 0xfffff9fe
     3d0:	05010608 	streq	r0, [r1, #-1544]	; 0xfffff9f8
     3d4:	0c054b01 			; <UNDEFINED> instruction: 0x0c054b01
     3d8:	2e750306 	cdpcs	3, 7, cr0, cr5, cr6, {0}
     3dc:	01062505 	tsteq	r6, r5, lsl #10
     3e0:	052e1705 	streq	r1, [lr, #-1797]!	; 0xfffff8fb
     3e4:	054b060c 	strbeq	r0, [fp, #-1548]	; 0xfffff9f4
     3e8:	0501061c 	streq	r0, [r1, #-1564]	; 0xfffff9e4
     3ec:	16052e23 	strne	r2, [r5], -r3, lsr #28
     3f0:	060c052e 	streq	r0, [ip], -lr, lsr #10
     3f4:	061e054e 	ldreq	r0, [lr], -lr, asr #10
     3f8:	2e160501 	cfmul32cs	mvfx0, mvfx6, mvfx1
     3fc:	4b060c05 	blmi	183418 <__bss_end__+0x1796f8>
     400:	01061c05 	tsteq	r6, r5, lsl #24
     404:	052e1505 	streq	r1, [lr, #-1285]!	; 0xfffffafb
     408:	b703062a 	strlt	r0, [r3, -sl, lsr #12]
     40c:	0106667f 	tsteq	r6, pc, ror r6
     410:	4b060205 	blmi	180c2c <__bss_end__+0x176f0c>
     414:	05051413 	streq	r1, [r5, #-1043]	; 0xfffffbed
     418:	07050106 	streq	r0, [r5, -r6, lsl #2]
     41c:	0602052f 	streq	r0, [r2], -pc, lsr #10
     420:	06070531 			; <UNDEFINED> instruction: 0x06070531
     424:	06020501 	streq	r0, [r2], -r1, lsl #10
     428:	0605054b 	streq	r0, [r5], -fp, asr #10
     42c:	06020501 	streq	r0, [r2], -r1, lsl #10
     430:	0d05134e 	stceq	3, cr1, [r5, #-312]	; 0xfffffec8
     434:	02050106 	andeq	r0, r5, #-2147483647	; 0x80000001
     438:	2e062f06 	cdpcs	15, 0, cr2, cr6, cr6, {0}
     43c:	09052f06 	stmdbeq	r5, {r1, r2, r8, r9, sl, fp, sp}
     440:	0a050106 	beq	140860 <__bss_end__+0x136b40>
     444:	05667a03 	strbeq	r7, [r6, #-2563]!	; 0xfffff5fd
     448:	22053501 	andcs	r3, r5, #4194304	; 0x400000
     44c:	01064d06 	tsteq	r6, r6, lsl #26
     450:	2f060205 	svccs	0x00060205
     454:	05141313 	ldreq	r1, [r4, #-787]	; 0xfffffced
     458:	05010624 	streq	r0, [r1, #-1572]	; 0xfffff9dc
     45c:	09052e29 	stmdbeq	r5, {r0, r3, r5, r9, sl, fp, sp}
     460:	0602052e 	streq	r0, [r2], -lr, lsr #10
     464:	060d052f 	streq	r0, [sp], -pc, lsr #10
     468:	4a050501 	bmi	141874 <__bss_end__+0x137b54>
     46c:	50060205 	andpl	r0, r6, r5, lsl #4
     470:	01060905 	tsteq	r6, r5, lsl #18
     474:	0603052e 	streq	r0, [r3], -lr, lsr #10
     478:	0616052a 	ldreq	r0, [r6], -sl, lsr #10
     47c:	4a0e0501 	bmi	381888 <__bss_end__+0x377b68>
     480:	2f060305 	svccs	0x00060305
     484:	01060f05 	tsteq	r6, r5, lsl #30
     488:	6c060405 	cfstrsvs	mvf0, [r6], {5}
     48c:	01060705 	tsteq	r6, r5, lsl #14
     490:	32060505 	andcc	r0, r6, #20971520	; 0x1400000
     494:	01060f05 	tsteq	r6, r5, lsl #30
     498:	4b060505 	blmi	1818b4 <__bss_end__+0x177b94>
     49c:	01060705 	tsteq	r6, r5, lsl #14
     4a0:	2f060505 	svccs	0x00060505
     4a4:	01060f05 	tsteq	r6, r5, lsl #30
     4a8:	30060405 	andcc	r0, r6, r5, lsl #8
     4ac:	01060a05 	tsteq	r6, r5, lsl #20
     4b0:	4b060405 	blmi	1814cc <__bss_end__+0x1777ac>
     4b4:	01060b05 	tsteq	r6, r5, lsl #22
     4b8:	0605052e 	streq	r0, [r5], -lr, lsr #10
     4bc:	052e7903 	streq	r7, [lr, #-2307]!	; 0xfffff6fd
     4c0:	05010618 	streq	r0, [r1, #-1560]	; 0xfffff9e8
     4c4:	1a052e12 	bne	14bd14 <__bss_end__+0x141ff4>
     4c8:	18054506 	stmdane	r5, {r1, r2, r8, sl, lr}
     4cc:	06200501 	strteq	r0, [r0], -r1, lsl #10
     4d0:	2e270501 	cfsh64cs	mvdx0, mvdx7, #1
     4d4:	2f060305 	svccs	0x00060305
     4d8:	01060b05 	tsteq	r6, r5, lsl #22
     4dc:	052e0605 	streq	r0, [lr, #-1541]!	; 0xfffff9fb
     4e0:	0e030603 	cfmadd32eq	mvax0, mvfx0, mvfx3, mvfx3
     4e4:	0609054a 	streq	r0, [r9], -sl, asr #10
     4e8:	4a060501 	bmi	1818f4 <__bss_end__+0x177bd4>
     4ec:	4c060405 	cfstrsmi	mvf0, [r6], {5}
     4f0:	01060d05 	tsteq	r6, r5, lsl #26
     4f4:	2e07052e 	cfsh32cs	mvfx0, mvfx7, #30
     4f8:	0006022e 	andeq	r0, r6, lr, lsr #4
     4fc:	009b0101 	addseq	r0, fp, r1, lsl #2
     500:	00030000 	andeq	r0, r3, r0
     504:	00000079 	andeq	r0, r0, r9, ror r0
     508:	0efb0102 	cdpeq	1, 15, cr0, cr11, cr2, {0}
     50c:	0101000d 	tsteq	r1, sp
     510:	00000101 	andeq	r0, r0, r1, lsl #2
     514:	00000100 	andeq	r0, r0, r0, lsl #2
     518:	73552f01 	cmpvc	r5, #1, 30
     51c:	2f737265 	svccs	0x00737265
     520:	73697274 	cmnvc	r9, #116, 4	; 0x40000007
     524:	6e6e6574 	mcrvs	5, 3, r6, cr14, cr4, {3}
     528:	6d6c6c6f 	stclvs	12, cr6, [ip, #-444]!	; 0xfffffe44
     52c:	442f6e61 	strtmi	r6, [pc], #-3681	; 534 <__code_start__-0x7acc>
     530:	6d75636f 	ldclvs	3, cr6, [r5, #-444]!	; 0xfffffe44
     534:	73746e65 	cmnvc	r4, #1616	; 0x650
     538:	7270532f 	rsbsvc	r5, r0, #-1140850688	; 0xbc000000
     53c:	5f676e69 	svcpl	0x00676e69
     540:	72617551 	rsbvc	r7, r1, #339738624	; 0x14400000
     544:	5f726574 	svcpl	0x00726574
     548:	32323032 	eorscc	r3, r2, #50, 0	; 0x32
     54c:	3253432f 	subscc	r4, r3, #-1140850688	; 0xbc000000
     550:	584c3034 	stmdapl	ip, {r2, r4, r5, ip, sp}^
     554:	7270732d 	rsbsvc	r7, r0, #-1275068416	; 0xb4000000
     558:	6c2f3232 	sfmvs	f3, 4, [pc], #-200	; 498 <__code_start__-0x7b68>
     55c:	69706269 	ldmdbvs	r0!, {r0, r3, r5, r6, r9, sp, lr}^
     560:	636e692f 	cmnvs	lr, #770048	; 0xbc000
     564:	6564756c 	strbvs	r7, [r4, #-1388]!	; 0xfffffa94
     568:	69700000 	ldmdbvs	r0!, {}^	; <UNPREDICTABLE>
     56c:	7262732d 	rsbvc	r7, r2, #-1275068416	; 0xb4000000
     570:	00632e6b 	rsbeq	r2, r3, fp, ror #28
     574:	72000000 	andvc	r0, r0, #0, 0
     578:	682e6970 	stmdavs	lr!, {r4, r5, r6, r8, fp, sp, lr}
     57c:	00000100 	andeq	r0, r0, r0, lsl #2
     580:	001c0500 	andseq	r0, ip, r0, lsl #10
     584:	83840205 	orrhi	r0, r4, #1342177280	; 0x50000000
     588:	06150000 	ldreq	r0, [r5], -r0
     58c:	06020501 	streq	r0, [r2], -r1, lsl #10
     590:	0609052f 	streq	r0, [r9], -pc, lsr #10
     594:	2f010501 	svccs	0x00010501
     598:	01000202 	tsteq	r0, r2, lsl #4
     59c:	00013301 	andeq	r3, r1, r1, lsl #6
     5a0:	01000300 	mrseq	r0, LR_irq
     5a4:	02000001 	andeq	r0, r0, #1, 0
     5a8:	0d0efb01 	vstreq	d15, [lr, #-4]
     5ac:	01010100 	mrseq	r0, (UNDEF: 17)
     5b0:	00000001 	andeq	r0, r0, r1
     5b4:	01000001 	tsteq	r0, r1
     5b8:	696c2f2e 	stmdbvs	ip!, {r1, r2, r3, r5, r8, r9, sl, fp, sp}^
     5bc:	2f006362 	svccs	0x00006362
     5c0:	2f727375 	svccs	0x00727375
     5c4:	61636f6c 	cmnvs	r3, ip, ror #30
     5c8:	65432f6c 	strbvs	r2, [r3, #-3948]	; 0xfffff094
     5cc:	72616c6c 	rsbvc	r6, r1, #108, 24	; 0x6c00
     5d0:	6d72612f 	ldfvse	f6, [r2, #-188]!	; 0xffffff44
     5d4:	6e6f6e2d 	cdpvs	14, 6, cr6, cr15, cr13, {1}
     5d8:	61652d65 	cmnvs	r5, r5, ror #26
     5dc:	742d6962 	strtvc	r6, [sp], #-2402	; 0xfffff69e
     5e0:	2f747365 	svccs	0x00747365
     5e4:	30322d39 	eorscc	r2, r2, r9, lsr sp
     5e8:	34713931 	ldrbtcc	r3, [r1], #-2353	; 0xfffff6cf
     5ec:	3173632d 	cmncc	r3, sp, lsr #6
     5f0:	2f653730 	svccs	0x00653730
     5f4:	2f62696c 	svccs	0x0062696c
     5f8:	2f636367 	svccs	0x00636367
     5fc:	2d6d7261 	sfmcs	f7, 2, [sp, #-388]!	; 0xfffffe7c
     600:	656e6f6e 	strbvs	r6, [lr, #-3950]!	; 0xfffff092
     604:	6261652d 	rsbvs	r6, r1, #188743680	; 0xb400000
     608:	2e392f69 	cdpcs	15, 3, cr2, cr9, cr9, {3}
     60c:	2f312e32 	svccs	0x00312e32
     610:	6c636e69 	stclvs	14, cr6, [r3], #-420	; 0xfffffe5c
     614:	00656475 	rsbeq	r6, r5, r5, ror r4
     618:	6573552f 	ldrbvs	r5, [r3, #-1327]!	; 0xfffffad1
     61c:	742f7372 	strtvc	r7, [pc], #-882	; 624 <__code_start__-0x79dc>
     620:	74736972 	ldrbtvc	r6, [r3], #-2418	; 0xfffff68e
     624:	6f6e6e65 	svcvs	0x006e6e65
     628:	616d6c6c 	cmnvs	sp, ip, ror #24
     62c:	6f442f6e 	svcvs	0x00442f6e
     630:	656d7563 	strbvs	r7, [sp, #-1379]!	; 0xfffffa9d
     634:	2f73746e 	svccs	0x0073746e
     638:	69727053 	ldmdbvs	r2!, {r0, r1, r4, r6, ip, sp, lr}^
     63c:	515f676e 	cmppl	pc, lr, ror #14
     640:	74726175 	ldrbtvc	r6, [r2], #-373	; 0xfffffe8b
     644:	325f7265 	subscc	r7, pc, #1342177286	; 0x50000006
     648:	2f323230 	svccs	0x00323230
     64c:	34325343 	ldrtcc	r5, [r2], #-835	; 0xfffffcbd
     650:	2d584c30 	ldclcs	12, cr4, [r8, #-192]	; 0xffffff40
     654:	32727073 	rsbscc	r7, r2, #115, 0	; 0x73
     658:	696c2f32 	stmdbvs	ip!, {r1, r4, r5, r8, r9, sl, fp, sp}^
     65c:	2f697062 	svccs	0x00697062
     660:	6c636e69 	stclvs	14, cr6, [r3], #-420	; 0xfffffe5c
     664:	00656475 	rsbeq	r6, r5, r5, ror r4
     668:	69727000 	ldmdbvs	r2!, {ip, sp, lr}^
     66c:	2e6b746e 	cdpcs	4, 6, cr7, cr11, cr14, {3}
     670:	00010063 	andeq	r0, r1, r3, rrx
     674:	64747300 	ldrbtvs	r7, [r4], #-768	; 0xfffffd00
     678:	2e677261 	cdpcs	2, 6, cr7, cr7, cr1, {3}
     67c:	00020068 	andeq	r0, r2, r8, rrx
     680:	69707200 	ldmdbvs	r0!, {r9, ip, sp, lr}^
     684:	0300682e 	movweq	r6, #2094	; 0x82e
     688:	623c0000 	eorsvs	r0, ip, #0, 0
     68c:	746c6975 	strbtvc	r6, [ip], #-2421	; 0xfffff68b
     690:	3e6e692d 	vmulcc.f16	s13, s28, s27	; <UNPREDICTABLE>
     694:	00000000 	andeq	r0, r0, r0
     698:	702d6176 	eorvc	r6, sp, r6, ror r1
     69c:	746e6972 	strbtvc	r6, [lr], #-2418	; 0xfffff68e
     6a0:	00682e6b 	rsbeq	r2, r8, fp, ror #28
     6a4:	00000001 	andeq	r0, r0, r1
     6a8:	05002205 	streq	r2, [r0, #-517]	; 0xfffffdfb
     6ac:	00839002 	addeq	r9, r3, r2
     6b0:	01061700 	tsteq	r6, r0, lsl #14
     6b4:	68060505 	stmdavs	r6, {r0, r2, r8, sl}
     6b8:	09051413 	stmdbeq	r5, {r0, r1, r4, sl, ip}
     6bc:	0612054b 	ldreq	r0, [r2], -fp, asr #10
     6c0:	06050501 	streq	r0, [r5], -r1, lsl #10
     6c4:	660616bb 			; <UNDEFINED> instruction: 0x660616bb
     6c8:	01053406 	tsteq	r5, r6, lsl #8
     6cc:	02661306 	rsbeq	r1, r6, #402653184	; 0x18000000
     6d0:	01010008 	tsteq	r1, r8
     6d4:	000000be 	strheq	r0, [r0], -lr
     6d8:	00800003 	addeq	r0, r0, r3
     6dc:	01020000 	mrseq	r0, (UNDEF: 2)
     6e0:	000d0efb 	strdeq	r0, [sp], -fp
     6e4:	01010101 	tsteq	r1, r1, lsl #2
     6e8:	01000000 	mrseq	r0, (UNDEF: 0)
     6ec:	2e010000 	cdpcs	0, 0, cr0, cr1, cr0, {0}
     6f0:	62696c2f 	rsbvs	r6, r9, #12032	; 0x2f00
     6f4:	552f0063 	strpl	r0, [pc, #-99]!	; 699 <__code_start__-0x7967>
     6f8:	73726573 	cmnvc	r2, #482344960	; 0x1cc00000
     6fc:	6972742f 	ldmdbvs	r2!, {r0, r1, r2, r3, r5, sl, ip, sp, lr}^
     700:	6e657473 	mcrvs	4, 3, r7, cr5, cr3, {3}
     704:	6c6c6f6e 	stclvs	15, cr6, [ip], #-440	; 0xfffffe48
     708:	2f6e616d 	svccs	0x006e616d
     70c:	75636f44 	strbvc	r6, [r3, #-3908]!	; 0xfffff0bc
     710:	746e656d 	strbtvc	r6, [lr], #-1389	; 0xfffffa93
     714:	70532f73 	subsvc	r2, r3, r3, ror pc
     718:	676e6972 			; <UNDEFINED> instruction: 0x676e6972
     71c:	6175515f 	cmnvs	r5, pc, asr r1
     720:	72657472 	rsbvc	r7, r5, #1912602624	; 0x72000000
     724:	3230325f 	eorscc	r3, r0, #-268435451	; 0xf0000005
     728:	53432f32 	movtpl	r2, #16178	; 0x3f32
     72c:	4c303432 	cfldrsmi	mvf3, [r0], #-200	; 0xffffff38
     730:	70732d58 	rsbsvc	r2, r3, r8, asr sp
     734:	2f323272 	svccs	0x00323272
     738:	7062696c 	rsbvc	r6, r2, ip, ror #18
     73c:	6e692f69 	cdpvs	15, 6, cr2, cr9, cr9, {3}
     740:	64756c63 	ldrbtvs	r6, [r5], #-3171	; 0xfffff39d
     744:	70000065 	andvc	r0, r0, r5, rrx
     748:	68637475 	stmdavs	r3!, {r0, r2, r4, r5, r6, sl, ip, sp, lr}^
     74c:	632e7261 			; <UNDEFINED> instruction: 0x632e7261
     750:	00000100 	andeq	r0, r0, r0, lsl #2
     754:	2e697072 	mcrcs	0, 3, r7, cr9, cr2, {3}
     758:	00020068 	andeq	r0, r2, r8, rrx
     75c:	24050000 	strcs	r0, [r5], #-0
     760:	e8020500 	stmda	r2, {r8, sl}
     764:	14000083 	strne	r0, [r0], #-131	; 0xffffff7d
     768:	26050106 	strcs	r0, [r5], -r6, lsl #2
     76c:	34054a06 	strcc	r4, [r5], #-2566	; 0xfffff5fa
     770:	0601052e 	streq	r0, [r1], -lr, lsr #10
     774:	061b0501 	ldreq	r0, [fp], -r1, lsl #10
     778:	1305054f 	movwne	r0, #21839	; 0x554f
     77c:	01061105 	tsteq	r6, r5, lsl #2
     780:	05670105 	strbeq	r0, [r7, #-261]!	; 0xfffffefb
     784:	05670623 	strbeq	r0, [r7, #-1571]!	; 0xfffff9dd
     788:	11051305 	tstne	r5, r5, lsl #6
     78c:	01050106 	tsteq	r5, r6, lsl #2
     790:	0004024b 	andeq	r0, r4, fp, asr #4
     794:	00cb0101 	sbceq	r0, fp, r1, lsl #2
     798:	00030000 	andeq	r0, r3, r0
     79c:	0000007d 	andeq	r0, r0, sp, ror r0
     7a0:	0efb0102 	cdpeq	1, 15, cr0, cr11, cr2, {0}
     7a4:	0101000d 	tsteq	r1, sp
     7a8:	00000101 	andeq	r0, r0, r1, lsl #2
     7ac:	00000100 	andeq	r0, r0, r0, lsl #2
     7b0:	6c2f2e01 	stcvs	14, cr2, [pc], #-4	; 7b4 <__code_start__-0x784c>
     7b4:	00636269 	rsbeq	r6, r3, r9, ror #4
     7b8:	6573552f 	ldrbvs	r5, [r3, #-1327]!	; 0xfffffad1
     7bc:	742f7372 	strtvc	r7, [pc], #-882	; 7c4 <__code_start__-0x783c>
     7c0:	74736972 	ldrbtvc	r6, [r3], #-2418	; 0xfffff68e
     7c4:	6f6e6e65 	svcvs	0x006e6e65
     7c8:	616d6c6c 	cmnvs	sp, ip, ror #24
     7cc:	6f442f6e 	svcvs	0x00442f6e
     7d0:	656d7563 	strbvs	r7, [sp, #-1379]!	; 0xfffffa9d
     7d4:	2f73746e 	svccs	0x0073746e
     7d8:	69727053 	ldmdbvs	r2!, {r0, r1, r4, r6, ip, sp, lr}^
     7dc:	515f676e 	cmppl	pc, lr, ror #14
     7e0:	74726175 	ldrbtvc	r6, [r2], #-373	; 0xfffffe8b
     7e4:	325f7265 	subscc	r7, pc, #1342177286	; 0x50000006
     7e8:	2f323230 	svccs	0x00323230
     7ec:	34325343 	ldrtcc	r5, [r2], #-835	; 0xfffffcbd
     7f0:	2d584c30 	ldclcs	12, cr4, [r8, #-192]	; 0xffffff40
     7f4:	32727073 	rsbscc	r7, r2, #115, 0	; 0x73
     7f8:	696c2f32 	stmdbvs	ip!, {r1, r4, r5, r8, r9, sl, fp, sp}^
     7fc:	2f697062 	svccs	0x00697062
     800:	6c636e69 	stclvs	14, cr6, [r3], #-420	; 0xfffffe5c
     804:	00656475 	rsbeq	r6, r5, r5, ror r4
     808:	74757000 	ldrbtvc	r7, [r5], #-0
     80c:	00632e6b 	rsbeq	r2, r3, fp, ror #28
     810:	72000001 	andvc	r0, r0, #1, 0
     814:	682e6970 	stmdavs	lr!, {r4, r5, r6, r8, fp, sp, lr}
     818:	00000200 	andeq	r0, r0, r0, lsl #4
     81c:	00220500 	eoreq	r0, r2, r0, lsl #10
     820:	84240205 	strthi	r0, [r4], #-517	; 0xfffffdfb
     824:	06150000 	ldreq	r0, [r5], -r0
     828:	06050501 	streq	r0, [r5], -r1, lsl #10
     82c:	000b054b 	andeq	r0, fp, fp, asr #10
     830:	01010402 	tsteq	r1, r2, lsl #8
     834:	02000505 	andeq	r0, r0, #20971520	; 0x1400000
     838:	2e060104 	adfcss	f0, f6, f4
     83c:	02000905 	andeq	r0, r0, #81920	; 0x14000
     840:	4b060204 	blmi	181058 <__bss_end__+0x177338>
     844:	02000f05 	andeq	r0, r0, #5, 30
     848:	05650204 	strbeq	r0, [r5, #-516]!	; 0xfffffdfc
     84c:	04020010 	streq	r0, [r2], #-16
     850:	00010602 	andeq	r0, r1, r2, lsl #12
     854:	2e020402 	cdpcs	4, 0, cr0, cr2, cr2, {0}
     858:	32060505 	andcc	r0, r6, #20971520	; 0x1400000
     85c:	13060105 	movwne	r0, #24837	; 0x6105
     860:	01000602 	tsteq	r0, r2, lsl #12
     864:	00061d01 	andeq	r1, r6, r1, lsl #26
     868:	17000300 	strne	r0, [r0, -r0, lsl #6]
     86c:	02000001 	andeq	r0, r0, #1, 0
     870:	0d0efb01 	vstreq	d15, [lr, #-4]
     874:	01010100 	mrseq	r0, (UNDEF: 17)
     878:	00000001 	andeq	r0, r0, r1
     87c:	01000001 	tsteq	r0, r1
     880:	696c2f2e 	stmdbvs	ip!, {r1, r2, r3, r5, r8, r9, sl, fp, sp}^
     884:	2f006362 	svccs	0x00006362
     888:	2f727375 	svccs	0x00727375
     88c:	61636f6c 	cmnvs	r3, ip, ror #30
     890:	65432f6c 	strbvs	r2, [r3, #-3948]	; 0xfffff094
     894:	72616c6c 	rsbvc	r6, r1, #108, 24	; 0x6c00
     898:	6d72612f 	ldfvse	f6, [r2, #-188]!	; 0xffffff44
     89c:	6e6f6e2d 	cdpvs	14, 6, cr6, cr15, cr13, {1}
     8a0:	61652d65 	cmnvs	r5, r5, ror #26
     8a4:	742d6962 	strtvc	r6, [sp], #-2402	; 0xfffff69e
     8a8:	2f747365 	svccs	0x00747365
     8ac:	30322d39 	eorscc	r2, r2, r9, lsr sp
     8b0:	34713931 	ldrbtcc	r3, [r1], #-2353	; 0xfffff6cf
     8b4:	3173632d 	cmncc	r3, sp, lsr #6
     8b8:	2f653730 	svccs	0x00653730
     8bc:	2f62696c 	svccs	0x0062696c
     8c0:	2f636367 	svccs	0x00636367
     8c4:	2d6d7261 	sfmcs	f7, 2, [sp, #-388]!	; 0xfffffe7c
     8c8:	656e6f6e 	strbvs	r6, [lr, #-3950]!	; 0xfffff092
     8cc:	6261652d 	rsbvs	r6, r1, #188743680	; 0xb400000
     8d0:	2e392f69 	cdpcs	15, 3, cr2, cr9, cr9, {3}
     8d4:	2f312e32 	svccs	0x00312e32
     8d8:	6c636e69 	stclvs	14, cr6, [r3], #-420	; 0xfffffe5c
     8dc:	00656475 	rsbeq	r6, r5, r5, ror r4
     8e0:	6573552f 	ldrbvs	r5, [r3, #-1327]!	; 0xfffffad1
     8e4:	742f7372 	strtvc	r7, [pc], #-882	; 8ec <__code_start__-0x7714>
     8e8:	74736972 	ldrbtvc	r6, [r3], #-2418	; 0xfffff68e
     8ec:	6f6e6e65 	svcvs	0x006e6e65
     8f0:	616d6c6c 	cmnvs	sp, ip, ror #24
     8f4:	6f442f6e 	svcvs	0x00442f6e
     8f8:	656d7563 	strbvs	r7, [sp, #-1379]!	; 0xfffffa9d
     8fc:	2f73746e 	svccs	0x0073746e
     900:	69727053 	ldmdbvs	r2!, {r0, r1, r4, r6, ip, sp, lr}^
     904:	515f676e 	cmppl	pc, lr, ror #14
     908:	74726175 	ldrbtvc	r6, [r2], #-373	; 0xfffffe8b
     90c:	325f7265 	subscc	r7, pc, #1342177286	; 0x50000006
     910:	2f323230 	svccs	0x00323230
     914:	34325343 	ldrtcc	r5, [r2], #-835	; 0xfffffcbd
     918:	2d584c30 	ldclcs	12, cr4, [r8, #-192]	; 0xffffff40
     91c:	32727073 	rsbscc	r7, r2, #115, 0	; 0x73
     920:	696c2f32 	stmdbvs	ip!, {r1, r4, r5, r8, r9, sl, fp, sp}^
     924:	2f697062 	svccs	0x00697062
     928:	6c636e69 	stclvs	14, cr6, [r3], #-420	; 0xfffffe5c
     92c:	00656475 	rsbeq	r6, r5, r5, ror r4
     930:	2d617600 	stclcs	6, cr7, [r1, #-0]
     934:	6e697270 	mcrvs	2, 3, r7, cr9, cr0, {3}
     938:	632e6b74 			; <UNDEFINED> instruction: 0x632e6b74
     93c:	00000100 	andeq	r0, r0, r0, lsl #2
     940:	69647473 	stmdbvs	r4!, {r0, r1, r4, r5, r6, sl, ip, sp, lr}^
     944:	672d746e 	strvs	r7, [sp, -lr, ror #8]!
     948:	682e6363 	stmdavs	lr!, {r0, r1, r5, r6, r8, r9, sp, lr}
     94c:	00000200 	andeq	r0, r0, r0, lsl #4
     950:	2e697072 	mcrcs	0, 3, r7, cr9, cr2, {3}
     954:	00030068 	andeq	r0, r3, r8, rrx
     958:	69707200 	ldmdbvs	r0!, {r9, ip, sp, lr}^
     95c:	746e692d 	strbtvc	r6, [lr], #-2349	; 0xfffff6d3
     960:	616e7265 	cmnvs	lr, r5, ror #4
     964:	00682e6c 	rsbeq	r2, r8, ip, ror #28
     968:	73000003 	movwvc	r0, #3
     96c:	72616474 	rsbvc	r6, r1, #116, 8	; 0x74000000
     970:	00682e67 	rsbeq	r2, r8, r7, ror #28
     974:	3c000002 	stccc	0, cr0, [r0], {2}
     978:	6c697562 	cfstr64vs	mvdx7, [r9], #-392	; 0xfffffe78
     97c:	6e692d74 	mcrvs	13, 3, r2, cr9, cr4, {3}
     980:	0000003e 	andeq	r0, r0, lr, lsr r0
     984:	1b050000 	blne	14098c <__bss_end__+0x136c6c>
     988:	58020500 	stmdapl	r2, {r8, sl}
     98c:	03000084 	movweq	r0, #132	; 0x84
     990:	1d050126 	stfnes	f0, [r5, #-152]	; 0xffffff68
     994:	062d0501 	strteq	r0, [sp], -r1, lsl #10
     998:	2e010501 	cfsh32cs	mvfx0, mvfx1, #1
     99c:	0633054a 	ldrteq	r0, [r3], -sl, asr #10
     9a0:	13020551 	movwne	r0, #9553	; 0x2551
     9a4:	01060605 	tsteq	r6, r5, lsl #12
     9a8:	30060205 	andcc	r0, r6, r5, lsl #4
     9ac:	02000805 	andeq	r0, r0, #327680	; 0x50000
     9b0:	05010104 	streq	r0, [r1, #-260]	; 0xfffffefc
     9b4:	04020002 	streq	r0, [r2], #-2
     9b8:	05010601 	streq	r0, [r1, #-1537]	; 0xfffff9ff
     9bc:	04020003 	streq	r0, [r2], #-3
     9c0:	052f0602 	streq	r0, [pc, #-1538]!	; 3c6 <__code_start__-0x7c3a>
     9c4:	04020008 	streq	r0, [r2], #-8
     9c8:	05010602 	streq	r0, [r1, #-1538]	; 0xfffff9fe
     9cc:	04020015 	streq	r0, [r2], #-21	; 0xffffffeb
     9d0:	05490602 	strbeq	r0, [r9, #-1538]	; 0xfffff9fe
     9d4:	04020018 	streq	r0, [r2], #-24	; 0xffffffe8
     9d8:	00010602 	andeq	r0, r1, r2, lsl #12
     9dc:	2e020402 	cdpcs	4, 0, cr0, cr2, cr2, {0}
     9e0:	30060205 	andcc	r0, r6, r5, lsl #4
     9e4:	01060505 	tsteq	r6, r5, lsl #10
     9e8:	4b060205 	blmi	181204 <__bss_end__+0x1774e4>
     9ec:	13060105 	movwne	r0, #24837	; 0x6105
     9f0:	31063e05 	tstcc	r6, r5, lsl #28
     9f4:	05140205 	ldreq	r0, [r4, #-517]	; 0xfffffdfb
     9f8:	0501060e 	streq	r0, [r1, #-1550]	; 0xfffff9f2
     9fc:	02052e06 	andeq	r2, r5, #96	; 0x60
     a00:	04052f06 	streq	r2, [r5], #-3846	; 0xfffff0fa
     a04:	03050106 	movweq	r0, #20742	; 0x5106
     a08:	11052f06 	tstne	r5, r6, lsl #30
     a0c:	09050106 	stmdbeq	r5, {r1, r2, r8}
     a10:	0602052e 	streq	r0, [r2], -lr, lsr #10
     a14:	07051530 	smladxeq	r5, r0, r5, r1
     a18:	02050106 	andeq	r0, r5, #-2147483647	; 0x80000001
     a1c:	000b052e 	andeq	r0, fp, lr, lsr #10
     a20:	06010402 	streq	r0, [r1], -r2, lsl #8
     a24:	0002052e 	andeq	r0, r2, lr, lsr #10
     a28:	06010402 	streq	r0, [r1], -r2, lsl #8
     a2c:	00030501 	andeq	r0, r3, r1, lsl #10
     a30:	06030402 	streq	r0, [r3], -r2, lsl #8
     a34:	000c052f 	andeq	r0, ip, pc, lsr #10
     a38:	06030402 	streq	r0, [r3], -r2, lsl #8
     a3c:	000a0501 	andeq	r0, sl, r1, lsl #10
     a40:	2e030402 	cdpcs	4, 0, cr0, cr3, cr2, {0}
     a44:	02001705 	andeq	r1, r0, #1310720	; 0x140000
     a48:	2d060304 	stccs	3, cr0, [r6, #-16]
     a4c:	03040200 	movweq	r0, #16896	; 0x4200
     a50:	02050106 	andeq	r0, r5, #-2147483647	; 0x80000001
     a54:	09053006 	stmdbeq	r5, {r1, r2, ip, sp}
     a58:	052e0106 	streq	r0, [lr, #-262]!	; 0xfffffefa
     a5c:	05300602 	ldreq	r0, [r0, #-1538]!	; 0xfffff9fe
     a60:	05130601 	ldreq	r0, [r3, #-1537]	; 0xfffff9ff
     a64:	06310649 	ldrteq	r0, [r1], -r9, asr #12
     a68:	06020501 	streq	r0, [r2], -r1, lsl #10
     a6c:	060405a0 	streq	r0, [r4], -r0, lsr #11
     a70:	06030501 	streq	r0, [r3], -r1, lsl #10
     a74:	0609052f 	streq	r0, [r9], -pc, lsr #10
     a78:	06020501 	streq	r0, [r2], -r1, lsl #10
     a7c:	0b051330 	bleq	145744 <__bss_end__+0x13ba24>
     a80:	02050106 	andeq	r0, r5, #-2147483647	; 0x80000001
     a84:	2e063006 	cdpcs	0, 0, cr3, cr6, cr6, {0}
     a88:	02060405 	andeq	r0, r6, #83886080	; 0x5000000
     a8c:	05131524 	ldreq	r1, [r3, #-1316]	; 0xfffffadc
     a90:	2e01060f 	cfmadd32cs	mvax0, mvfx0, mvfx1, mvfx15
     a94:	054a0605 	strbeq	r0, [sl, #-1541]	; 0xfffff9fb
     a98:	134b0605 	movtne	r0, #46597	; 0xb605
     a9c:	01060905 	tsteq	r6, r5, lsl #18
     aa0:	2f060505 	svccs	0x00060505
     aa4:	10060b05 	andne	r0, r6, r5, lsl #22
     aa8:	02000d05 	andeq	r0, r0, #320	; 0x140
     aac:	052c0104 	streq	r0, [ip, #-260]!	; 0xfffffefc
     ab0:	04020004 	streq	r0, [r2], #-4
     ab4:	05340601 	ldreq	r0, [r4, #-1537]!	; 0xfffff9ff
     ab8:	04020005 	streq	r0, [r2], #-5
     abc:	1b051301 	blne	1456c8 <__bss_end__+0x13b9a8>
     ac0:	01040200 	mrseq	r0, R12_usr
     ac4:	07050106 	streq	r0, [r5, -r6, lsl #2]
     ac8:	01040200 	mrseq	r0, R12_usr
     acc:	001805d6 			; <UNDEFINED> instruction: 0x001805d6
     ad0:	2e010402 	cdpcs	4, 0, cr0, cr1, cr2, {0}
     ad4:	02000a05 	andeq	r0, r0, #20480	; 0x5000
     ad8:	054a0104 	strbeq	r0, [sl, #-260]	; 0xfffffefc
     adc:	0402000b 	streq	r0, [r2], #-11
     ae0:	052f0601 	streq	r0, [pc, #-1537]!	; 4e7 <__code_start__-0x7b19>
     ae4:	0402000e 	streq	r0, [r2], #-14
     ae8:	052e0601 	streq	r0, [lr, #-1537]!	; 0xfffff9ff
     aec:	04020004 	streq	r0, [r2], #-4
     af0:	4b062e01 	blmi	18c2fc <__bss_end__+0x1825dc>
     af4:	01060605 	tsteq	r6, r5, lsl #12
     af8:	2f060505 	svccs	0x00060505
     afc:	01060a05 	tsteq	r6, r5, lsl #20
     b00:	2e4a0705 	cdpcs	7, 4, cr0, cr10, cr5, {0}
     b04:	76030d05 	strvc	r0, [r3], -r5, lsl #26
     b08:	0b054a2e 	bleq	1533c8 <__bss_end__+0x1496a8>
     b0c:	000d050d 	andeq	r0, sp, sp, lsl #10
     b10:	06010402 	streq	r0, [r1], -r2, lsl #8
     b14:	052e1403 	streq	r1, [lr, #-1027]!	; 0xfffffbfd
     b18:	04020011 	streq	r0, [r2], #-17	; 0xffffffef
     b1c:	2d051301 	stccs	3, cr1, [r5, #-4]
     b20:	01040200 	mrseq	r0, R12_usr
     b24:	2a050106 	bcs	140f44 <__bss_end__+0x137224>
     b28:	01040200 	mrseq	r0, R12_usr
     b2c:	0016052e 	andseq	r0, r6, lr, lsr #10
     b30:	4a010402 	bmi	41b40 <__bss_end__+0x37e20>
     b34:	02001405 	andeq	r1, r0, #83886080	; 0x5000000
     b38:	4b060104 	blmi	180f50 <__bss_end__+0x177230>
     b3c:	02000d05 	andeq	r0, r0, #320	; 0x140
     b40:	01060104 	tsteq	r6, r4, lsl #2
     b44:	01040200 	mrseq	r0, R12_usr
     b48:	052f064a 	streq	r0, [pc, #-1610]!	; 506 <__code_start__-0x7afa>
     b4c:	4a010612 	bmi	4239c <__bss_end__+0x3867c>
     b50:	2f060d05 	svccs	0x00060d05
     b54:	01061205 	tsteq	r6, r5, lsl #4
     b58:	4b061905 	blmi	186f74 <__bss_end__+0x17d254>
     b5c:	02000405 	andeq	r0, r0, #83886080	; 0x5000000
     b60:	11030204 	tstne	r3, r4, lsl #4
     b64:	04020001 	streq	r0, [r2], #-1
     b68:	02050102 	andeq	r0, r5, #-2147483648	; 0x80000000
     b6c:	02040200 	andeq	r0, r4, #0, 4
     b70:	00090515 	andeq	r0, r9, r5, lsl r5
     b74:	06020402 	streq	r0, [r2], -r2, lsl #8
     b78:	04020001 	streq	r0, [r2], #-1
     b7c:	01054a02 	tsteq	r5, r2, lsl #20
     b80:	02040200 	andeq	r0, r4, #0, 4
     b84:	0604059f 			; <UNDEFINED> instruction: 0x0604059f
     b88:	054a6e03 	strbeq	r6, [sl, #-3587]	; 0xfffff1fd
     b8c:	05010609 	streq	r0, [r1, #-1545]	; 0xfffff9f7
     b90:	052f0604 	streq	r0, [pc, #-1540]!	; 594 <__code_start__-0x7a6c>
     b94:	05110606 	ldreq	r0, [r1, #-1542]	; 0xfffff9fa
     b98:	0b052f04 	bleq	14c7b0 <__bss_end__+0x142a90>
     b9c:	052e6303 	streq	r6, [lr, #-771]!	; 0xfffffcfd
     ba0:	04020019 	streq	r0, [r2], #-25	; 0xffffffe7
     ba4:	24030601 	strcs	r0, [r3], #-1537	; 0xfffff9ff
     ba8:	001a052e 	andseq	r0, sl, lr, lsr #10
     bac:	13010402 	movwne	r0, #5122	; 0x1402
     bb0:	02002805 	andeq	r2, r0, #327680	; 0x50000
     bb4:	01060104 	tsteq	r6, r4, lsl #2
     bb8:	02002505 	andeq	r2, r0, #20971520	; 0x1400000
     bbc:	052e0104 	streq	r0, [lr, #-260]!	; 0xfffffefc
     bc0:	0402001f 	streq	r0, [r2], #-31	; 0xffffffe1
     bc4:	0b054a01 	bleq	1533d0 <__bss_end__+0x1496b0>
     bc8:	01040200 	mrseq	r0, R12_usr
     bcc:	04054b06 	streq	r4, [r5], #-2822	; 0xfffff4fa
     bd0:	01040200 	mrseq	r0, R12_usr
     bd4:	02000106 	andeq	r0, r0, #-2147483647	; 0x80000001
     bd8:	004a0104 	subeq	r0, sl, r4, lsl #2
     bdc:	06010402 	streq	r0, [r1], -r2, lsl #8
     be0:	0402004e 	streq	r0, [r2], #-78	; 0xffffffb2
     be4:	02000101 	andeq	r0, r0, #1073741824	; 0x40000000
     be8:	00010104 	andeq	r0, r1, r4, lsl #2
     bec:	01010402 	tsteq	r1, r2, lsl #8
     bf0:	01040200 	mrseq	r0, R12_usr
     bf4:	02002e06 	andeq	r2, r0, #96	; 0x60
     bf8:	00660104 	rsbeq	r0, r6, r4, lsl #2
     bfc:	2e010402 	cdpcs	4, 0, cr0, cr1, cr2, {0}
     c00:	01040200 	mrseq	r0, R12_usr
     c04:	48054a06 	stmdami	r5, {r1, r2, r9, fp, lr}
     c08:	087fa603 	ldmdaeq	pc!, {r0, r1, r9, sl, sp, pc}^	; <UNPREDICTABLE>
     c0c:	13050520 	movwne	r0, #21792	; 0x5520
     c10:	002e0601 	eoreq	r0, lr, r1, lsl #12
     c14:	06020402 	streq	r0, [r2], -r2, lsl #8
     c18:	0402002e 	streq	r0, [r2], #-46	; 0xffffffd2
     c1c:	02000102 	andeq	r0, r0, #-2147483648	; 0x80000000
     c20:	05130204 	ldreq	r0, [r3, #-516]	; 0xfffffdfc
     c24:	04020011 	streq	r0, [r2], #-17	; 0xffffffef
     c28:	05010602 	streq	r0, [r1, #-1538]	; 0xfffff9fe
     c2c:	04020005 	streq	r0, [r2], #-5
     c30:	054b0602 	strbeq	r0, [fp, #-1538]	; 0xfffff9fe
     c34:	04020007 	streq	r0, [r2], #-7
     c38:	05010602 	streq	r0, [r1, #-1538]	; 0xfffff9fe
     c3c:	054b0609 	strbeq	r0, [fp, #-1545]	; 0xfffff9f7
     c40:	0501060e 	streq	r0, [r1, #-1550]	; 0xfffff9f2
     c44:	04020048 	streq	r0, [r2], #-72	; 0xffffffb8
     c48:	05056201 	streq	r6, [r5, #-513]	; 0xfffffdff
     c4c:	01040200 	mrseq	r0, R12_usr
     c50:	02004b06 	andeq	r4, r0, #6144	; 0x1800
     c54:	00010104 	andeq	r0, r1, r4, lsl #2
     c58:	06010402 	streq	r0, [r1], -r2, lsl #8
     c5c:	0402009e 	streq	r0, [r2], #-158	; 0xffffff62
     c60:	02002e01 	andeq	r2, r0, #1, 28
     c64:	2e060104 	adfcss	f0, f6, f4
     c68:	e1034005 	tst	r3, r5
     c6c:	0106d600 	tsteq	r6, r0, lsl #12
     c70:	9f060205 	svcls	0x00060205
     c74:	01061e05 	tsteq	r6, r5, lsl #28
     c78:	052e1205 	streq	r1, [lr, #-517]!	; 0xfffffdfb
     c7c:	052f0605 	streq	r0, [pc, #-1541]!	; 67f <__code_start__-0x7981>
     c80:	09051402 	stmdbeq	r5, {r1, sl, ip}
     c84:	05050106 	streq	r0, [r5, #-262]	; 0xfffffefa
     c88:	02054b06 	andeq	r4, r5, #6144	; 0x1800
     c8c:	06080513 			; <UNDEFINED> instruction: 0x06080513
     c90:	3302050d 	movwcc	r0, #9485	; 0x250d
     c94:	4c060405 	cfstrsmi	mvf0, [r6], {5}
     c98:	01060f05 	tsteq	r6, r5, lsl #30
     c9c:	052e0905 	streq	r0, [lr, #-2309]!	; 0xfffff6fb
     ca0:	052c0608 	streq	r0, [ip, #-1544]!	; 0xfffff9f8
     ca4:	052e0602 	streq	r0, [lr, #-1538]!	; 0xfffff9fe
     ca8:	0402000d 	streq	r0, [r2], #-13
     cac:	03054a01 	movweq	r4, #23041	; 0x5a01
     cb0:	05054b06 	streq	r4, [r5, #-2822]	; 0xfffff4fa
     cb4:	08050106 	stmdaeq	r5, {r1, r2, r8}
     cb8:	0e054d06 	cdpeq	13, 0, cr4, cr5, cr6, {0}
     cbc:	0a050106 	beq	1410dc <__bss_end__+0x1373bc>
     cc0:	0604052e 	streq	r0, [r4], -lr, lsr #10
     cc4:	0609052f 	streq	r0, [r9], -pc, lsr #10
     cc8:	06040501 	streq	r0, [r4], -r1, lsl #10
     ccc:	0607052f 	streq	r0, [r7], -pc, lsr #10
     cd0:	04052e01 	streq	r2, [r5], #-3585	; 0xfffff1ff
     cd4:	07053006 	streq	r3, [r5, -r6]
     cd8:	04050106 	streq	r0, [r5], #-262	; 0xfffffefa
     cdc:	14133006 	ldrne	r3, [r3], #-6
     ce0:	10060d05 	andne	r0, r6, r5, lsl #26
     ce4:	30060905 	andcc	r0, r6, r5, lsl #18
     ce8:	01061205 	tsteq	r6, r5, lsl #4
     cec:	052e0a05 	streq	r0, [lr, #-2565]!	; 0xfffff5fb
     cf0:	05056609 	streq	r6, [r5, #-1545]	; 0xfffff9f7
     cf4:	12054b06 	andne	r4, r5, #6144	; 0x1800
     cf8:	16050106 	strne	r0, [r5], -r6, lsl #2
     cfc:	2e0b052e 	cfsh32cs	mvfx0, mvfx11, #30
     d00:	2f060505 	svccs	0x00060505
     d04:	01060805 	tsteq	r6, r5, lsl #16
     d08:	0604052e 	streq	r0, [r4], -lr, lsr #10
     d0c:	014a0130 	cmpeq	sl, r0, lsr r1
     d10:	04020015 	streq	r0, [r2], #-21	; 0xffffffeb
     d14:	0f360201 	svceq	0x00360201
     d18:	01040200 	mrseq	r0, R12_usr
     d1c:	04020001 	streq	r0, [r2], #-1
     d20:	1105d601 	tstne	r5, r1, lsl #12
     d24:	00011334 	andeq	r1, r1, r4, lsr r3
     d28:	06020402 	streq	r0, [r2], -r2, lsl #8
     d2c:	040200ba 	streq	r0, [r2], #-186	; 0xffffff46
     d30:	00ba0603 	adcseq	r0, sl, r3, lsl #12
     d34:	01030402 	tsteq	r3, r2, lsl #8
     d38:	03040200 	movweq	r0, #16896	; 0x4200
     d3c:	00150514 	andseq	r0, r5, r4, lsl r5
     d40:	06030402 	streq	r0, [r3], -r2, lsl #8
     d44:	00110501 	andseq	r0, r1, r1, lsl #10
     d48:	06030402 	streq	r0, [r3], -r2, lsl #8
     d4c:	001a052f 	andseq	r0, sl, pc, lsr #10
     d50:	06030402 	streq	r0, [r3], -r2, lsl #8
     d54:	00110501 	andseq	r0, r1, r1, lsl #10
     d58:	06030402 	streq	r0, [r3], -r2, lsl #8
     d5c:	040200d7 	streq	r0, [r2], #-215	; 0xffffff29
     d60:	02001303 	andeq	r1, r0, #201326592	; 0xc000000
     d64:	00140304 	andseq	r0, r4, r4, lsl #6
     d68:	67030402 	strvs	r0, [r3, -r2, lsl #8]
     d6c:	03040200 	movweq	r0, #16896	; 0x4200
     d70:	00140568 	andseq	r0, r4, r8, ror #10
     d74:	06030402 	streq	r0, [r3], -r2, lsl #8
     d78:	00130501 	andseq	r0, r3, r1, lsl #10
     d7c:	82030402 	andhi	r0, r3, #33554432	; 0x2000000
     d80:	4e061805 	cdpmi	8, 0, cr1, cr6, cr5, {0}
     d84:	01061b05 	tsteq	r6, r5, lsl #22
     d88:	05821a05 	streq	r1, [r2, #2565]	; 0xa05
     d8c:	054b0609 	strbeq	r0, [fp, #-1545]	; 0xfffff9f7
     d90:	2e01060d 	cfmadd32cs	mvax0, mvfx0, mvfx1, mvfx13
     d94:	f3060905 	vmls.i8	d0, d6, d5
     d98:	1505ba06 	strne	fp, [r5, #-2566]	; 0xfffff5fa
     d9c:	18053006 	stmdane	r5, {r1, r2, ip, sp}
     da0:	17050106 	strne	r0, [r5, -r6, lsl #2]
     da4:	06190566 	ldreq	r0, [r9], -r6, ror #10
     da8:	0615054b 	ldreq	r0, [r5], -fp, asr #10
     dac:	05666f03 	strbeq	r6, [r6, #-3843]!	; 0xfffff0fd
     db0:	01480611 	cmpeq	r8, r1, lsl r6
     db4:	030905d6 	movweq	r0, #38358	; 0x95d6
     db8:	0d052e0b 	stceq	14, cr2, [r5, #-44]	; 0xffffffd4
     dbc:	052e0106 	streq	r0, [lr, #-262]!	; 0xfffffefa
     dc0:	06f30609 	ldrbteq	r0, [r3], r9, lsl #12
     dc4:	061505ba 			; <UNDEFINED> instruction: 0x061505ba
     dc8:	7503062f 	strvc	r0, [r3, #-1583]	; 0xfffff9d1
     dcc:	06190566 	ldreq	r0, [r9], -r6, ror #10
     dd0:	054a1303 	strbeq	r1, [sl, #-771]	; 0xfffffcfd
     dd4:	6d030615 	stcvs	6, cr0, [r3, #-84]	; 0xffffffac
     dd8:	15030666 	strne	r0, [r3, #-1638]	; 0xfffff99a
     ddc:	06ba014a 	ldrteq	r0, [sl], sl, asr #2
     de0:	0605052e 	streq	r0, [r5], -lr, lsr #10
     de4:	2e9e011a 	mrccs	1, 4, r0, cr14, cr10, {0}
     de8:	05010e03 	streq	r0, [r1, #-3587]	; 0xfffff1fd
     dec:	05010609 	streq	r0, [r1, #-1545]	; 0xfffff9f7
     df0:	75080605 	strvc	r0, [r8, #-1541]	; 0xfffff9fb
     df4:	18030405 	stmdane	r3, {r0, r2, sl}
     df8:	06070501 	streq	r0, [r7], -r1, lsl #10
     dfc:	06040501 	streq	r0, [r4], -r1, lsl #10
     e00:	03050531 	movweq	r0, #21809	; 0x5531
     e04:	1c052e67 	stcne	14, cr2, [r5], {103}	; 0x67
     e08:	09050106 	stmdbeq	r5, {r1, r2, r8}
     e0c:	06050582 	streq	r0, [r5], -r2, lsl #11
     e10:	1c0531f3 	stfnes	f3, [r5], {243}	; 0xf3
     e14:	09050106 	stmdbeq	r5, {r1, r2, r8}
     e18:	06050582 	streq	r0, [r5], -r2, lsl #11
     e1c:	1b0530f3 	blne	14d1f0 <__bss_end__+0x1434d0>
     e20:	09050106 	stmdbeq	r5, {r1, r2, r8}
     e24:	06050582 	streq	r0, [r5], -r2, lsl #11
     e28:	070530f3 			; <UNDEFINED> instruction: 0x070530f3
     e2c:	05050106 	streq	r0, [r5, #-262]	; 0xfffffefa
     e30:	05308306 	ldreq	r8, [r0, #-774]!	; 0xfffffcfa
     e34:	05010609 	streq	r0, [r1, #-1545]	; 0xfffff9f7
     e38:	75080605 	strvc	r0, [r8, #-1541]	; 0xfffff9fb
     e3c:	05301105 	ldreq	r1, [r0, #-261]!	; 0xfffffefb
     e40:	05010622 	streq	r0, [r1, #-1570]	; 0xfffff9de
     e44:	054b0605 	strbeq	r0, [fp, #-1541]	; 0xfffff9fb
     e48:	05058311 	streq	r8, [r5, #-785]	; 0xfffffcef
     e4c:	359e0183 	ldrcc	r0, [lr, #387]	; 0x183
     e50:	01060e05 	tsteq	r6, r5, lsl #28
     e54:	062e0a05 	strteq	r0, [lr], -r5, lsl #20
     e58:	0604052d 	streq	r0, [r4], -sp, lsr #10
     e5c:	00130501 	andseq	r0, r3, r1, lsl #10
     e60:	4a010402 	bmi	41e70 <__bss_end__+0x38150>
     e64:	02001005 	andeq	r1, r0, #5, 0
     e68:	002e0104 	eoreq	r0, lr, r4, lsl #2
     e6c:	66010402 	strvs	r0, [r1], -r2, lsl #8
     e70:	16060205 	strne	r0, [r6], -r5, lsl #4
     e74:	01060705 	tsteq	r6, r5, lsl #14
     e78:	4b060205 	blmi	181694 <__bss_end__+0x177974>
     e7c:	13060105 	movwne	r0, #24837	; 0x6105
     e80:	001e0266 	andseq	r0, lr, r6, ror #4
     e84:	00a50101 	adceq	r0, r5, r1, lsl #2
     e88:	00030000 	andeq	r0, r3, r0
     e8c:	0000008a 	andeq	r0, r0, sl, lsl #1
     e90:	0efb0102 	cdpeq	1, 15, cr0, cr11, cr2, {0}
     e94:	0101000d 	tsteq	r1, sp
     e98:	00000101 	andeq	r0, r0, r1, lsl #2
     e9c:	00000100 	andeq	r0, r0, r0, lsl #2
     ea0:	732f2e01 			; <UNDEFINED> instruction: 0x732f2e01
     ea4:	66666174 			; <UNDEFINED> instruction: 0x66666174
     ea8:	6372732d 	cmnvs	r2, #-1275068416	; 0xb4000000
     eac:	73552f00 	cmpvc	r5, #0, 30
     eb0:	2f737265 	svccs	0x00737265
     eb4:	73697274 	cmnvc	r9, #116, 4	; 0x40000007
     eb8:	6e6e6574 	mcrvs	5, 3, r6, cr14, cr4, {3}
     ebc:	6d6c6c6f 	stclvs	12, cr6, [ip, #-444]!	; 0xfffffe44
     ec0:	442f6e61 	strtmi	r6, [pc], #-3681	; ec8 <__code_start__-0x7138>
     ec4:	6d75636f 	ldclvs	3, cr6, [r5, #-444]!	; 0xfffffe44
     ec8:	73746e65 	cmnvc	r4, #1616	; 0x650
     ecc:	7270532f 	rsbsvc	r5, r0, #-1140850688	; 0xbc000000
     ed0:	5f676e69 	svcpl	0x00676e69
     ed4:	72617551 	rsbvc	r7, r1, #339738624	; 0x14400000
     ed8:	5f726574 	svcpl	0x00726574
     edc:	32323032 	eorscc	r3, r2, #50, 0	; 0x32
     ee0:	3253432f 	subscc	r4, r3, #-1140850688	; 0xbc000000
     ee4:	584c3034 	stmdapl	ip, {r2, r4, r5, ip, sp}^
     ee8:	7270732d 	rsbsvc	r7, r0, #-1275068416	; 0xb4000000
     eec:	6c2f3232 	sfmvs	f3, 4, [pc], #-200	; e2c <__code_start__-0x71d4>
     ef0:	69706269 	ldmdbvs	r0!, {r0, r3, r5, r6, r9, sp, lr}^
     ef4:	636e692f 	cmnvs	lr, #770048	; 0xbc000
     ef8:	6564756c 	strbvs	r7, [r4, #-1388]!	; 0xfffffa94
     efc:	6c630000 	stclvs	0, cr0, [r3], #-0
     f00:	2d6e6165 	stfcse	f6, [lr, #-404]!	; 0xfffffe6c
     f04:	6f626572 	svcvs	0x00626572
     f08:	632e746f 			; <UNDEFINED> instruction: 0x632e746f
     f0c:	00000100 	andeq	r0, r0, r0, lsl #2
     f10:	2e697072 	mcrcs	0, 3, r7, cr9, cr2, {3}
     f14:	00020068 	andeq	r0, r2, r8, rrx
     f18:	19050000 	stmdbne	r5, {}	; <UNPREDICTABLE>
     f1c:	98020500 	stmdals	r2, {r8, sl}
     f20:	1500008b 	strne	r0, [r0, #-139]	; 0xffffff75
     f24:	832f0505 			; <UNDEFINED> instruction: 0x832f0505
     f28:	06024b2f 	streq	r4, [r2], -pc, lsr #22
     f2c:	bf010100 	svclt	0x00010100
     f30:	03000000 	movweq	r0, #0
     f34:	00008400 	andeq	r8, r0, r0, lsl #8
     f38:	fb010200 	blx	41742 <__bss_end__+0x37a22>
     f3c:	01000d0e 	tsteq	r0, lr, lsl #26
     f40:	00010101 	andeq	r0, r1, r1, lsl #2
     f44:	00010000 	andeq	r0, r1, r0
     f48:	2f2e0100 	svccs	0x002e0100
     f4c:	66617473 			; <UNDEFINED> instruction: 0x66617473
     f50:	72732d66 	rsbsvc	r2, r3, #6528	; 0x1980
     f54:	552f0063 	strpl	r0, [pc, #-99]!	; ef9 <__code_start__-0x7107>
     f58:	73726573 	cmnvc	r2, #482344960	; 0x1cc00000
     f5c:	6972742f 	ldmdbvs	r2!, {r0, r1, r2, r3, r5, sl, ip, sp, lr}^
     f60:	6e657473 	mcrvs	4, 3, r7, cr5, cr3, {3}
     f64:	6c6c6f6e 	stclvs	15, cr6, [ip], #-440	; 0xfffffe48
     f68:	2f6e616d 	svccs	0x006e616d
     f6c:	75636f44 	strbvc	r6, [r3, #-3908]!	; 0xfffff0bc
     f70:	746e656d 	strbtvc	r6, [lr], #-1389	; 0xfffffa93
     f74:	70532f73 	subsvc	r2, r3, r3, ror pc
     f78:	676e6972 			; <UNDEFINED> instruction: 0x676e6972
     f7c:	6175515f 	cmnvs	r5, pc, asr r1
     f80:	72657472 	rsbvc	r7, r5, #1912602624	; 0x72000000
     f84:	3230325f 	eorscc	r3, r0, #-268435451	; 0xf0000005
     f88:	53432f32 	movtpl	r2, #16178	; 0x3f32
     f8c:	4c303432 	cfldrsmi	mvf3, [r0], #-200	; 0xffffff38
     f90:	70732d58 	rsbsvc	r2, r3, r8, asr sp
     f94:	2f323272 	svccs	0x00323272
     f98:	7062696c 	rsbvc	r6, r2, ip, ror #18
     f9c:	6e692f69 	cdpvs	15, 6, cr2, cr9, cr9, {3}
     fa0:	64756c63 	ldrbtvs	r6, [r5], #-3171	; 0xfffff39d
     fa4:	63000065 	movwvs	r0, #101	; 0x65
     fa8:	72617473 	rsbvc	r7, r1, #1929379840	; 0x73000000
     fac:	00632e74 	rsbeq	r2, r3, r4, ror lr
     fb0:	72000001 	andvc	r0, r0, #1, 0
     fb4:	682e6970 	stmdavs	lr!, {r4, r5, r6, r8, fp, sp, lr}
     fb8:	00000200 	andeq	r0, r0, r0, lsl #4
     fbc:	00100500 	andseq	r0, r0, r0, lsl #10
     fc0:	8bc40205 	blhi	ff1017dc <__bss_end__+0xff0f7abc>
     fc4:	05150000 	ldreq	r0, [r5, #-0]
     fc8:	02052f05 	andeq	r2, r5, #5, 30
     fcc:	14050513 	strne	r0, [r5], #-1299	; 0xfffffaed
     fd0:	05141330 	ldreq	r1, [r4, #-816]	; 0xfffffcd0
     fd4:	060f060a 	streq	r0, [pc], -sl, lsl #12
     fd8:	4b090531 	blmi	2424a4 <__bss_end__+0x238784>
     fdc:	01061005 	tsteq	r6, r5
     fe0:	0605054a 	streq	r0, [r5], -sl, asr #10
     fe4:	01013230 	tsteq	r1, r0, lsr r2
     fe8:	0205144a 	andeq	r1, r5, #1241513984	; 0x4a000000
     fec:	0006022f 	andeq	r0, r6, pc, lsr #4
     ff0:	00a30101 	adceq	r0, r3, r1, lsl #2
     ff4:	00030000 	andeq	r0, r3, r0
     ff8:	0000008b 	andeq	r0, r0, fp, lsl #1
     ffc:	0efb0102 	cdpeq	1, 15, cr0, cr11, cr2, {0}
    1000:	0101000d 	tsteq	r1, sp
    1004:	00000101 	andeq	r0, r0, r1, lsl #2
    1008:	00000100 	andeq	r0, r0, r0, lsl #2
    100c:	732f2e01 			; <UNDEFINED> instruction: 0x732f2e01
    1010:	66666174 			; <UNDEFINED> instruction: 0x66666174
    1014:	6372732d 	cmnvs	r2, #-1275068416	; 0xb4000000
    1018:	73552f00 	cmpvc	r5, #0, 30
    101c:	2f737265 	svccs	0x00737265
    1020:	73697274 	cmnvc	r9, #116, 4	; 0x40000007
    1024:	6e6e6574 	mcrvs	5, 3, r6, cr14, cr4, {3}
    1028:	6d6c6c6f 	stclvs	12, cr6, [ip, #-444]!	; 0xfffffe44
    102c:	442f6e61 	strtmi	r6, [pc], #-3681	; 1034 <__code_start__-0x6fcc>
    1030:	6d75636f 	ldclvs	3, cr6, [r5, #-444]!	; 0xfffffe44
    1034:	73746e65 	cmnvc	r4, #1616	; 0x650
    1038:	7270532f 	rsbsvc	r5, r0, #-1140850688	; 0xbc000000
    103c:	5f676e69 	svcpl	0x00676e69
    1040:	72617551 	rsbvc	r7, r1, #339738624	; 0x14400000
    1044:	5f726574 	svcpl	0x00726574
    1048:	32323032 	eorscc	r3, r2, #50, 0	; 0x32
    104c:	3253432f 	subscc	r4, r3, #-1140850688	; 0xbc000000
    1050:	584c3034 	stmdapl	ip, {r2, r4, r5, ip, sp}^
    1054:	7270732d 	rsbsvc	r7, r0, #-1275068416	; 0xb4000000
    1058:	6c2f3232 	sfmvs	f3, 4, [pc], #-200	; f98 <__code_start__-0x7068>
    105c:	69706269 	ldmdbvs	r0!, {r0, r3, r5, r6, r9, sp, lr}^
    1060:	636e692f 	cmnvs	lr, #770048	; 0xbc000
    1064:	6564756c 	strbvs	r7, [r4, #-1388]!	; 0xfffffa94
    1068:	75630000 	strbvc	r0, [r3, #-0]!
    106c:	6d6f7473 	cfstrdvs	mvd7, [pc, #-460]!	; ea8 <__code_start__-0x7158>
    1070:	616f6c2d 	cmnvs	pc, sp, lsr #24
    1074:	2e726564 	cdpcs	5, 7, cr6, cr2, cr4, {3}
    1078:	00010063 	andeq	r0, r1, r3, rrx
    107c:	69707200 	ldmdbvs	r0!, {r9, ip, sp, lr}^
    1080:	0200682e 	andeq	r6, r0, #3014656	; 0x2e0000
    1084:	05000000 	streq	r0, [r0, #-0]
    1088:	0205001a 	andeq	r0, r5, #26, 0
    108c:	00008c00 	andeq	r8, r0, r0, lsl #24
    1090:	14010515 	strne	r0, [r1], #-1301	; 0xfffffaeb
    1094:	01000202 	tsteq	r0, r2, lsl #4
    1098:	0000f301 	andeq	pc, r0, r1, lsl #6
    109c:	84000300 	strhi	r0, [r0], #-768	; 0xfffffd00
    10a0:	02000000 	andeq	r0, r0, #0, 0
    10a4:	0d0efb01 	vstreq	d15, [lr, #-4]
    10a8:	01010100 	mrseq	r0, (UNDEF: 17)
    10ac:	00000001 	andeq	r0, r0, r1
    10b0:	01000001 	tsteq	r0, r1
    10b4:	74732f2e 	ldrbtvc	r2, [r3], #-3886	; 0xfffff0d2
    10b8:	2d666661 	stclcs	6, cr6, [r6, #-388]!	; 0xfffffe7c
    10bc:	00637273 	rsbeq	r7, r3, r3, ror r2
    10c0:	6573552f 	ldrbvs	r5, [r3, #-1327]!	; 0xfffffad1
    10c4:	742f7372 	strtvc	r7, [pc], #-882	; 10cc <__code_start__-0x6f34>
    10c8:	74736972 	ldrbtvc	r6, [r3], #-2418	; 0xfffff68e
    10cc:	6f6e6e65 	svcvs	0x006e6e65
    10d0:	616d6c6c 	cmnvs	sp, ip, ror #24
    10d4:	6f442f6e 	svcvs	0x00442f6e
    10d8:	656d7563 	strbvs	r7, [sp, #-1379]!	; 0xfffffa9d
    10dc:	2f73746e 	svccs	0x0073746e
    10e0:	69727053 	ldmdbvs	r2!, {r0, r1, r4, r6, ip, sp, lr}^
    10e4:	515f676e 	cmppl	pc, lr, ror #14
    10e8:	74726175 	ldrbtvc	r6, [r2], #-373	; 0xfffffe8b
    10ec:	325f7265 	subscc	r7, pc, #1342177286	; 0x50000006
    10f0:	2f323230 	svccs	0x00323230
    10f4:	34325343 	ldrtcc	r5, [r2], #-835	; 0xfffffcbd
    10f8:	2d584c30 	ldclcs	12, cr4, [r8, #-192]	; 0xffffff40
    10fc:	32727073 	rsbscc	r7, r2, #115, 0	; 0x73
    1100:	696c2f32 	stmdbvs	ip!, {r1, r4, r5, r8, r9, sl, fp, sp}^
    1104:	2f697062 	svccs	0x00697062
    1108:	6c636e69 	stclvs	14, cr6, [r3], #-420	; 0xfffffe5c
    110c:	00656475 	rsbeq	r6, r5, r5, ror r4
    1110:	62657200 	rsbvs	r7, r5, #0, 4
    1114:	2e746f6f 	cdpcs	15, 7, cr6, cr4, cr15, {3}
    1118:	00010063 	andeq	r0, r1, r3, rrx
    111c:	69707200 	ldmdbvs	r0!, {r9, ip, sp, lr}^
    1120:	0200682e 	andeq	r6, r0, #3014656	; 0x2e0000
    1124:	05000000 	streq	r0, [r0, #-0]
    1128:	02050019 	andeq	r0, r5, #25, 0
    112c:	00008c04 	andeq	r8, r0, r4, lsl #24
    1130:	05010d03 	streq	r0, [r1, #-3331]	; 0xfffff2fd
    1134:	31131305 	tstcc	r3, r5, lsl #6
    1138:	01061305 	tsteq	r6, r5, lsl #6
    113c:	052f0105 	streq	r0, [pc, #-261]!	; 103f <__code_start__-0x6fc1>
    1140:	0585061b 	streq	r0, [r5, #1563]	; 0x61b
    1144:	05141305 	ldreq	r1, [r4, #-773]	; 0xfffffcfb
    1148:	16052f09 	strne	r2, [r5], -r9, lsl #30
    114c:	0e050106 	adfeqs	f0, f5, f6
    1150:	0605052e 	streq	r0, [r5], -lr, lsr #10
    1154:	0601052f 	streq	r0, [r1], -pc, lsr #10
    1158:	0617052f 	ldreq	r0, [r7], -pc, lsr #10
    115c:	2f050530 	svccs	0x00050530
    1160:	01060805 	tsteq	r6, r5, lsl #16
    1164:	052e0705 	streq	r0, [lr, #-1797]!	; 0xfffff8fb
    1168:	30500605 	subscc	r0, r0, r5, lsl #12
    116c:	13134d2f 	tstne	r3, #3008	; 0xbc0
    1170:	00671513 	rsbeq	r1, r7, r3, lsl r5
    1174:	67010402 	strvs	r0, [r1, -r2, lsl #8]
    1178:	02000d05 	andeq	r0, r0, #320	; 0x140
    117c:	05010104 	streq	r0, [r1, #-260]	; 0xfffffefc
    1180:	0402000a 	streq	r0, [r2], #-10
    1184:	09050101 	stmdbeq	r5, {r0, r8}
    1188:	022e6d03 	eoreq	r6, lr, #192	; 0xc0
    118c:	0101000c 	tsteq	r1, ip
    1190:	000000fa 	strdeq	r0, [r0], -sl
    1194:	00830003 	addeq	r0, r3, r3
    1198:	01020000 	mrseq	r0, (UNDEF: 2)
    119c:	000d0efb 	strdeq	r0, [sp], -fp
    11a0:	01010101 	tsteq	r1, r1, lsl #2
    11a4:	01000000 	mrseq	r0, (UNDEF: 0)
    11a8:	2e010000 	cdpcs	0, 0, cr0, cr1, cr0, {0}
    11ac:	6174732f 	cmnvs	r4, pc, lsr #6
    11b0:	732d6666 			; <UNDEFINED> instruction: 0x732d6666
    11b4:	2f006372 	svccs	0x00006372
    11b8:	72657355 	rsbvc	r7, r5, #1409286145	; 0x54000001
    11bc:	72742f73 	rsbsvc	r2, r4, #460	; 0x1cc
    11c0:	65747369 	ldrbvs	r7, [r4, #-873]!	; 0xfffffc97
    11c4:	6c6f6e6e 	stclvs	14, cr6, [pc], #-440	; 1014 <__code_start__-0x6fec>
    11c8:	6e616d6c 	cdpvs	13, 6, cr6, cr1, cr12, {3}
    11cc:	636f442f 	cmnvs	pc, #788529152	; 0x2f000000
    11d0:	6e656d75 	mcrvs	13, 3, r6, cr5, cr5, {3}
    11d4:	532f7374 			; <UNDEFINED> instruction: 0x532f7374
    11d8:	6e697270 	mcrvs	2, 3, r7, cr9, cr0, {3}
    11dc:	75515f67 	ldrbvc	r5, [r1, #-3943]	; 0xfffff099
    11e0:	65747261 	ldrbvs	r7, [r4, #-609]!	; 0xfffffd9f
    11e4:	30325f72 	eorscc	r5, r2, r2, ror pc
    11e8:	432f3232 			; <UNDEFINED> instruction: 0x432f3232
    11ec:	30343253 	eorscc	r3, r4, r3, asr r2
    11f0:	732d584c 			; <UNDEFINED> instruction: 0x732d584c
    11f4:	32327270 	eorscc	r7, r2, #112, 4
    11f8:	62696c2f 	rsbvs	r6, r9, #12032	; 0x2f00
    11fc:	692f6970 	stmdbvs	pc!, {r4, r5, r6, r8, fp, sp, lr}	; <UNPREDICTABLE>
    1200:	756c636e 	strbvc	r6, [ip, #-878]!	; 0xfffffc92
    1204:	00006564 	andeq	r6, r0, r4, ror #10
    1208:	656d6974 	strbvs	r6, [sp, #-2420]!	; 0xfffff68c
    120c:	00632e72 	rsbeq	r2, r3, r2, ror lr
    1210:	72000001 	andvc	r0, r0, #1, 0
    1214:	682e6970 	stmdavs	lr!, {r4, r5, r6, r8, fp, sp, lr}
    1218:	00000200 	andeq	r0, r0, r0, lsl #4
    121c:	00230500 	eoreq	r0, r3, r0, lsl #10
    1220:	8c840205 	sfmhi	f0, 4, [r4], {5}
    1224:	05150000 	ldreq	r0, [r5, #-0]
    1228:	0c052f05 	stceq	15, cr2, [r5], {5}
    122c:	01050106 	tsteq	r5, r6, lsl #2
    1230:	061f054b 	ldreq	r0, [pc], -fp, asr #10
    1234:	3105054d 	tstcc	r5, sp, asr #10
    1238:	0612052f 	ldreq	r0, [r2], -pc, lsr #10
    123c:	06050501 	streq	r0, [r5], -r1, lsl #10
    1240:	01052f4b 	tsteq	r5, fp, asr #30
    1244:	1c051306 	stcne	3, cr1, [r5], {6}
    1248:	01064c06 	tsteq	r6, r6, lsl #24
    124c:	4b060505 	blmi	182668 <__bss_end__+0x178948>
    1250:	01061305 	tsteq	r6, r5, lsl #6
    1254:	0605052e 	streq	r0, [r5], -lr, lsr #10
    1258:	1309052f 	movwne	r0, #38191	; 0x952f
    125c:	01061705 	tsteq	r6, r5, lsl #14
    1260:	2f060905 	svccs	0x00060905
    1264:	01061105 	tsteq	r6, r5, lsl #2
    1268:	052e0c05 	streq	r0, [lr, #-3077]!	; 0xfffff3fb
    126c:	066b061c 			; <UNDEFINED> instruction: 0x066b061c
    1270:	06050501 	streq	r0, [r5], -r1, lsl #10
    1274:	054a062f 	strbeq	r0, [sl, #-1583]	; 0xfffff9d1
    1278:	1e054b01 	vmlane.f64	d4, d5, d1
    127c:	01062f06 	tsteq	r6, r6, lsl #30
    1280:	2f060505 	svccs	0x00060505
    1284:	01054a06 	tsteq	r5, r6, lsl #20
    1288:	0002024b 	andeq	r0, r2, fp, asr #4
    128c:	02050101 	andeq	r0, r5, #1073741824	; 0x40000000
    1290:	00030000 	andeq	r0, r3, r0
    1294:	000000c9 	andeq	r0, r0, r9, asr #1
    1298:	0efb0102 	cdpeq	1, 15, cr0, cr11, cr2, {0}
    129c:	0101000d 	tsteq	r1, sp
    12a0:	00000101 	andeq	r0, r0, r1, lsl #2
    12a4:	00000100 	andeq	r0, r0, r0, lsl #2
    12a8:	6f682f01 	svcvs	0x00682f01
    12ac:	652f656d 	strvs	r6, [pc, #-1389]!	; d47 <__code_start__-0x72b9>
    12b0:	656c676e 	strbvs	r6, [ip, #-1902]!	; 0xfffff892
    12b4:	6c632f72 	stclvs	15, cr2, [r3], #-456	; 0xfffffe38
    12b8:	2f737361 	svccs	0x00737361
    12bc:	34327363 	ldrtcc	r7, [r2], #-867	; 0xfffffc9d
    12c0:	2d786c30 	ldclcs	12, cr6, [r8, #-192]!	; 0xffffff40
    12c4:	70733232 	rsbsvc	r3, r3, r2, lsr r2
    12c8:	6c2f2f72 	stcvs	15, cr2, [pc], #-456	; 1108 <__code_start__-0x6ef8>
    12cc:	69706269 	ldmdbvs	r0!, {r0, r3, r5, r6, r9, sp, lr}^
    12d0:	636e692f 	cmnvs	lr, #770048	; 0xbc000
    12d4:	6564756c 	strbvs	r7, [r4, #-1388]!	; 0xfffffa94
    12d8:	73752f00 	cmnvc	r5, #0, 30
    12dc:	68732f72 	ldmdavs	r3!, {r1, r4, r5, r6, r8, r9, sl, fp, sp}^
    12e0:	2f657261 	svccs	0x00657261
    12e4:	2d636367 	stclcs	3, cr6, [r3, #-412]!	; 0xfffffe64
    12e8:	2d6d7261 	sfmcs	f7, 2, [sp, #-388]!	; 0xfffffe7c
    12ec:	656e6f6e 	strbvs	r6, [lr, #-3950]!	; 0xfffff092
    12f0:	6261652d 	rsbvs	r6, r1, #188743680	; 0xb400000
    12f4:	30312d69 	eorscc	r2, r1, r9, ror #26
    12f8:	322d332e 	eorcc	r3, sp, #-1207959552	; 0xb8000000
    12fc:	2e313230 	mrccs	2, 1, r3, cr1, cr0, {1}
    1300:	6c2f3031 	stcvs	0, cr3, [pc], #-196	; 1244 <__code_start__-0x6dbc>
    1304:	672f6269 	strvs	r6, [pc, -r9, ror #4]!
    1308:	612f6363 			; <UNDEFINED> instruction: 0x612f6363
    130c:	6e2d6d72 	mcrvs	13, 1, r6, cr13, cr2, {3}
    1310:	2d656e6f 	stclcs	14, cr6, [r5, #-444]!	; 0xfffffe44
    1314:	69626165 	stmdbvs	r2!, {r0, r2, r5, r6, r8, sp, lr}^
    1318:	2e30312f 	rsfcssp	f3, f0, #10.0
    131c:	2f312e33 	svccs	0x00312e33
    1320:	6c636e69 	stclvs	14, cr6, [r3], #-420	; 0xfffffe5c
    1324:	00656475 	rsbeq	r6, r5, r5, ror r4
    1328:	72617500 	rsbvc	r7, r1, #0, 10
    132c:	00632e74 	rsbeq	r2, r3, r4, ror lr
    1330:	75000000 	strvc	r0, [r0, #-0]
    1334:	2e747261 	cdpcs	2, 7, cr7, cr4, cr1, {3}
    1338:	00010068 	andeq	r0, r1, r8, rrx
    133c:	69707200 	ldmdbvs	r0!, {r9, ip, sp, lr}^
    1340:	0100682e 	tsteq	r0, lr, lsr #16
    1344:	70670000 	rsbvc	r0, r7, r0
    1348:	682e6f69 	stmdavs	lr!, {r0, r3, r5, r6, r8, r9, sl, fp, sp, lr}
    134c:	00000100 	andeq	r0, r0, r0, lsl #2
    1350:	69647473 	stmdbvs	r4!, {r0, r1, r4, r5, r6, sl, ip, sp, lr}^
    1354:	672d746e 	strvs	r7, [sp, -lr, ror #8]!
    1358:	682e6363 	stmdavs	lr!, {r0, r1, r5, r6, r8, r9, sp, lr}
    135c:	00000200 	andeq	r0, r0, r0, lsl #4
    1360:	00390500 	eorseq	r0, r9, r0, lsl #10
    1364:	8d080205 	sfmhi	f0, 4, [r8, #-20]	; 0xffffffec
    1368:	30030000 	andcc	r0, r3, r0
    136c:	05010601 	streq	r0, [r1, #-1537]	; 0xfffff9ff
    1370:	05670605 	strbeq	r0, [r7, #-1541]!	; 0xfffff9fb
    1374:	05010611 	streq	r0, [r1, #-1553]	; 0xfffff9ef
    1378:	01052e05 	tsteq	r5, r5, lsl #28
    137c:	06380567 	ldrteq	r0, [r8], -r7, ror #10
    1380:	05010629 	streq	r0, [r1, #-1577]	; 0xfffff9d7
    1384:	05670605 	strbeq	r0, [r7, #-1541]!	; 0xfffff9fb
    1388:	05010611 	streq	r0, [r1, #-1553]	; 0xfffff9ef
    138c:	01052e05 	tsteq	r5, r5, lsl #28
    1390:	06160567 	ldreq	r0, [r6], -r7, ror #10
    1394:	052e1503 	streq	r1, [lr, #-1283]!	; 0xfffffafd
    1398:	68673505 	stmdavs	r7!, {r0, r2, r8, sl, ip, sp}^
    139c:	0c036835 	stceq	8, cr6, [r3], {53}	; 0x35
    13a0:	696b852e 	stmdbvs	fp!, {r1, r2, r3, r5, r8, sl, pc}^
    13a4:	660c0369 	strvs	r0, [ip], -r9, ror #6
    13a8:	05676b13 	strbeq	r6, [r7, #-2835]!	; 0xfffff4ed
    13ac:	052f0601 	streq	r0, [pc, #-1537]!	; db3 <__code_start__-0x724d>
    13b0:	25080619 	strcs	r0, [r8, #-1561]	; 0xfffff9e7
    13b4:	05340505 	ldreq	r0, [r4, #-1285]!	; 0xfffffafb
    13b8:	0501060d 	streq	r0, [r1, #-1549]	; 0xfffff9f3
    13bc:	19054c01 	stmdbne	r5, {r0, sl, fp, lr}
    13c0:	05056706 	streq	r6, [r5, #-1798]	; 0xfffff8fa
    13c4:	060d0536 			; <UNDEFINED> instruction: 0x060d0536
    13c8:	4a280501 	bmi	a027d4 <__bss_end__+0x9f8ab4>
    13cc:	05300105 	ldreq	r0, [r0, #-261]!	; 0xfffffefb
    13d0:	05870615 	streq	r0, [r7, #1557]	; 0x615
    13d4:	052f2f05 	streq	r2, [pc, #-3845]!	; 4d7 <__code_start__-0x7b29>
    13d8:	04020009 	streq	r0, [r2], #-9
    13dc:	0a051301 	beq	145fe8 <__bss_end__+0x13c2c8>
    13e0:	01040200 	mrseq	r0, R12_usr
    13e4:	000c0511 	andeq	r0, ip, r1, lsl r5
    13e8:	06010402 	streq	r0, [r1], -r2, lsl #8
    13ec:	000a0501 	andeq	r0, sl, r1, lsl #10
    13f0:	2e010402 	cdpcs	4, 0, cr0, cr1, cr2, {0}
    13f4:	4c060505 	cfstr32mi	mvfx0, [r6], {5}
    13f8:	01060e05 	tsteq	r6, r5, lsl #28
    13fc:	054a0905 	strbeq	r0, [sl, #-2309]	; 0xfffff6fb
    1400:	2f2f0605 	svccs	0x002f0605
    1404:	13060105 	movwne	r0, #24837	; 0x6105
    1408:	67061c05 	strvs	r1, [r6, -r5, lsl #24]
    140c:	05050106 	streq	r0, [r5, #-262]	; 0xfffffefa
    1410:	052f4b06 	streq	r4, [pc, #-2822]!	; 912 <__code_start__-0x76ee>
    1414:	04020009 	streq	r0, [r2], #-9
    1418:	0a051301 	beq	146024 <__bss_end__+0x13c304>
    141c:	01040200 	mrseq	r0, R12_usr
    1420:	000c0511 	andeq	r0, ip, r1, lsl r5
    1424:	06010402 	streq	r0, [r1], -r2, lsl #8
    1428:	000a0501 	andeq	r0, sl, r1, lsl #10
    142c:	2e010402 	cdpcs	4, 0, cr0, cr1, cr2, {0}
    1430:	4c060505 	cfstr32mi	mvfx0, [r6], {5}
    1434:	06010567 	streq	r0, [r1], -r7, ror #10
    1438:	0619052f 	ldreq	r0, [r9], -pc, lsr #10
    143c:	2e1b054c 	cfmac32cs	mvfx0, mvfx11, mvfx12
    1440:	052e2a05 	streq	r2, [lr, #-2565]!	; 0xfffff5fb
    1444:	05010631 	streq	r0, [r1, #-1585]	; 0xfffff9cf
    1448:	1c052e42 	stcne	14, cr2, [r5], {66}	; 0x42
    144c:	05053106 	streq	r3, [r5, #-262]	; 0xfffffefa
    1450:	2e09032f 	cdpcs	3, 0, cr0, cr9, cr15, {1}
    1454:	01060e05 	tsteq	r6, r5, lsl #28
    1458:	054a2105 	strbeq	r2, [sl, #-261]	; 0xfffffefb
    145c:	2e0a0301 	cdpcs	3, 0, cr0, cr10, cr1, {0}
    1460:	68061a05 	stmdavs	r6, {r0, r2, r9, fp, ip}
    1464:	02000905 	andeq	r0, r0, #81920	; 0x14000
    1468:	05300104 	ldreq	r0, [r0, #-260]!	; 0xfffffefc
    146c:	0402000a 	streq	r0, [r2], #-10
    1470:	0c051101 	stfeqs	f1, [r5], {1}
    1474:	01040200 	mrseq	r0, R12_usr
    1478:	0a050106 	beq	141898 <__bss_end__+0x137b78>
    147c:	01040200 	mrseq	r0, R12_usr
    1480:	0619052e 	ldreq	r0, [r9], -lr, lsr #10
    1484:	667ee803 	ldrbtvs	lr, [lr], -r3, lsl #16
    1488:	2f2f0505 	svccs	0x002f0505
    148c:	0105672f 	tsteq	r5, pc, lsr #14
    1490:	04022f06 	streq	r2, [r2], #-3846	; 0xfffff0fa
    1494:	93010100 	movwls	r0, #4352	; 0x1100
    1498:	03000003 	movweq	r0, #3
    149c:	0000b800 	andeq	fp, r0, r0, lsl #16
    14a0:	fb010200 	blx	41caa <__bss_end__+0x37f8a>
    14a4:	01000d0e 	tsteq	r0, lr, lsl #26
    14a8:	00010101 	andeq	r0, r1, r1, lsl #2
    14ac:	00010000 	andeq	r0, r1, r0
    14b0:	682f0100 	stmdavs	pc!, {r8}	; <UNPREDICTABLE>
    14b4:	2f656d6f 	svccs	0x00656d6f
    14b8:	6c676e65 	stclvs	14, cr6, [r7], #-404	; 0xfffffe6c
    14bc:	632f7265 			; <UNDEFINED> instruction: 0x632f7265
    14c0:	7373616c 	cmnvc	r3, #27
    14c4:	3273632f 	rsbscc	r6, r3, #-1140850688	; 0xbc000000
    14c8:	786c3034 	stmdavc	ip!, {r2, r4, r5, ip, sp}^
    14cc:	7332322d 	teqvc	r2, #-805306366	; 0xd0000002
    14d0:	2f2f7270 	svccs	0x002f7270
    14d4:	7062696c 	rsbvc	r6, r2, ip, ror #18
    14d8:	6e692f69 	cdpvs	15, 6, cr2, cr9, cr9, {3}
    14dc:	64756c63 	ldrbtvs	r6, [r5], #-3171	; 0xfffff39d
    14e0:	752f0065 	strvc	r0, [pc, #-101]!	; 1483 <__code_start__-0x6b7d>
    14e4:	732f7273 			; <UNDEFINED> instruction: 0x732f7273
    14e8:	65726168 	ldrbvs	r6, [r2, #-360]!	; 0xfffffe98
    14ec:	6363672f 	cmnvs	r3, #12320768	; 0xbc0000
    14f0:	6d72612d 	ldfvse	f6, [r2, #-180]!	; 0xffffff4c
    14f4:	6e6f6e2d 	cdpvs	14, 6, cr6, cr15, cr13, {1}
    14f8:	61652d65 	cmnvs	r5, r5, ror #26
    14fc:	312d6962 			; <UNDEFINED> instruction: 0x312d6962
    1500:	2d332e30 	ldccs	14, cr2, [r3, #-192]!	; 0xffffff40
    1504:	31323032 	teqcc	r2, r2, lsr r0
    1508:	2f30312e 	svccs	0x0030312e
    150c:	2f62696c 	svccs	0x0062696c
    1510:	2f636367 	svccs	0x00636367
    1514:	2d6d7261 	sfmcs	f7, 2, [sp, #-388]!	; 0xfffffe7c
    1518:	656e6f6e 	strbvs	r6, [lr, #-3950]!	; 0xfffff092
    151c:	6261652d 	rsbvs	r6, r1, #188743680	; 0xb400000
    1520:	30312f69 	eorscc	r2, r1, r9, ror #30
    1524:	312e332e 			; <UNDEFINED> instruction: 0x312e332e
    1528:	636e692f 	cmnvs	lr, #770048	; 0xbc000
    152c:	6564756c 	strbvs	r7, [r4, #-1388]!	; 0xfffffa94
    1530:	6d6b0000 	stclvs	0, cr0, [fp, #-0]
    1534:	6f6c6c61 	svcvs	0x006c6c61
    1538:	00632e63 	rsbeq	r2, r3, r3, ror #28
    153c:	72000000 	andvc	r0, r0, #0, 0
    1540:	682e6970 	stmdavs	lr!, {r4, r5, r6, r8, fp, sp, lr}
    1544:	00000100 	andeq	r0, r0, r0, lsl #2
    1548:	69647473 	stmdbvs	r4!, {r0, r1, r4, r5, r6, sl, ip, sp, lr}^
    154c:	672d746e 	strvs	r7, [sp, -lr, ror #8]!
    1550:	682e6363 	stmdavs	lr!, {r0, r1, r5, r6, r8, r9, sp, lr}
    1554:	00000200 	andeq	r0, r0, r0, lsl #4
    1558:	001e0500 	andseq	r0, lr, r0, lsl #10
    155c:	8ef80205 	cdphi	2, 15, cr0, cr8, cr5, {0}
    1560:	27030000 	strcs	r0, [r3, -r0]
    1564:	01200501 			; <UNDEFINED> instruction: 0x01200501
    1568:	01063105 	tsteq	r6, r5, lsl #2
    156c:	83062005 	movwhi	r2, #24581	; 0x6005
    1570:	05012205 	streq	r2, [r1, #-517]	; 0xfffffdfb
    1574:	05010635 	streq	r0, [r1, #-1589]	; 0xfffff9cb
    1578:	0583061e 	streq	r0, [r3, #1566]	; 0x61e
    157c:	2d050120 	stfcss	f0, [r5, #-128]	; 0xffffff80
    1580:	42050106 	andmi	r0, r5, #-2147483647	; 0x80000001
    1584:	01068506 	tsteq	r6, r6, lsl #10
    1588:	4b060505 	blmi	1829a4 <__bss_end__+0x178c84>
    158c:	2e060114 	mcrcs	1, 0, r0, cr6, cr4, {0}
    1590:	02040200 	andeq	r0, r4, #0, 4
    1594:	02002e06 	andeq	r2, r0, #96	; 0x60
    1598:	00010204 	andeq	r0, r1, r4, lsl #4
    159c:	15020402 	strne	r0, [r2, #-1026]	; 0xfffffbfe
    15a0:	02000d05 	andeq	r0, r0, #320	; 0x140
    15a4:	01060204 	tsteq	r6, r4, lsl #4
    15a8:	02000705 	andeq	r0, r0, #1310720	; 0x140000
    15ac:	054a0204 	strbeq	r0, [sl, #-516]	; 0xfffffdfc
    15b0:	054b0609 	strbeq	r0, [fp, #-1545]	; 0xfffff9f7
    15b4:	17051505 	strne	r1, [r5, -r5, lsl #10]
    15b8:	10050106 	andne	r0, r5, r6, lsl #2
    15bc:	0605054a 	streq	r0, [r5], -sl, asr #10
    15c0:	061b052f 	ldreq	r0, [fp], -pc, lsr #10
    15c4:	2e0e0501 	cfsh32cs	mvfx0, mvfx14, #1
    15c8:	052f0105 	streq	r0, [pc, #-261]!	; 14cb <__code_start__-0x6b35>
    15cc:	04020005 	streq	r0, [r2], #-5
    15d0:	77030601 	strvc	r0, [r3, -r1, lsl #12]
    15d4:	0402004a 	streq	r0, [r2], #-74	; 0xffffffb6
    15d8:	02000101 	andeq	r0, r0, #1073741824	; 0x40000000
    15dc:	9e060104 	adflss	f0, f6, f4
    15e0:	01040200 	mrseq	r0, R12_usr
    15e4:	0402002e 	streq	r0, [r2], #-46	; 0xffffffd2
    15e8:	052e0601 	streq	r0, [lr, #-1537]!	; 0xfffff9ff
    15ec:	06013209 	streq	r3, [r1], -r9, lsl #4
    15f0:	2e062ed6 	mcrcs	14, 0, r2, cr6, cr6, {6}
    15f4:	05de1905 	ldrbeq	r1, [lr, #2309]	; 0x905
    15f8:	05142f05 	ldreq	r2, [r4, #-3845]	; 0xfffff0fb
    15fc:	05010608 	streq	r0, [r1, #-1544]	; 0xfffff9f8
    1600:	09054a07 	stmdbeq	r5, {r0, r1, r2, r9, fp, lr}
    1604:	05054b06 	streq	r4, [r5, #-2822]	; 0xfffff4fa
    1608:	060c0513 			; <UNDEFINED> instruction: 0x060c0513
    160c:	06050501 	streq	r0, [r5], -r1, lsl #10
    1610:	01051367 	tsteq	r5, r7, ror #6
    1614:	09056706 	stmdbeq	r5, {r1, r2, r8, r9, sl, sp, lr}
    1618:	9e012a06 	vmlals.f32	s4, s2, s12
    161c:	06a52805 	strteq	r2, [r5], r5, lsl #16
    1620:	06050501 	streq	r0, [r5], -r1, lsl #10
    1624:	2e06014b 	adfcssm	f0, f6, #3.0
    1628:	13012e06 	movwne	r2, #7686	; 0x1e06
    162c:	47031805 	strmi	r1, [r3, -r5, lsl #16]
    1630:	13050501 	movwne	r0, #21761	; 0x5501
    1634:	06010601 	streq	r0, [r1], -r1, lsl #12
    1638:	1301150f 	movwne	r1, #5391	; 0x150f
    163c:	01060e05 	tsteq	r6, r5, lsl #28
    1640:	2e2e1605 	cfmadda32cs	mvax0, mvax1, mvfx14, mvfx5
    1644:	03060505 	movweq	r0, #25861	; 0x6505
    1648:	0b050139 	bleq	141b34 <__bss_end__+0x137e14>
    164c:	05050106 	streq	r0, [r5, #-262]	; 0xfffffefa
    1650:	0a054b06 	beq	154270 <__bss_end__+0x14a550>
    1654:	05050106 	streq	r0, [r5, #-262]	; 0xfffffefa
    1658:	0d054b06 	vstreq	d4, [r5, #-24]	; 0xffffffe8
    165c:	07050106 	streq	r0, [r5, -r6, lsl #2]
    1660:	4d01052e 	cfstr32mi	mvfx0, [r1, #-184]	; 0xffffff48
    1664:	02000505 	andeq	r0, r0, #20971520	; 0x1400000
    1668:	03060104 	movweq	r0, #24836	; 0x6104
    166c:	02004a78 	andeq	r4, r0, #120, 20	; 0x78000
    1670:	00010104 	andeq	r0, r1, r4, lsl #2
    1674:	06010402 	streq	r0, [r1], -r2, lsl #8
    1678:	040200ba 	streq	r0, [r2], #-186	; 0xffffff46
    167c:	052e0601 	streq	r0, [lr, #-1537]!	; 0xfffff9ff
    1680:	06013409 	streq	r3, [r1], -r9, lsl #8
    1684:	2e066682 	cfmadd32cs	mvax4, mvfx6, mvfx6, mvfx2
    1688:	06db2005 	ldrbeq	r2, [fp], r5
    168c:	06050501 	streq	r0, [r5], -r1, lsl #10
    1690:	0200014b 	andeq	r0, r0, #-1073741806	; 0xc0000012
    1694:	004a0204 	subeq	r0, sl, r4, lsl #4
    1698:	01020402 	tsteq	r2, r2, lsl #8
    169c:	02040200 	andeq	r0, r4, #0, 4
    16a0:	00120513 	andseq	r0, r2, r3, lsl r5
    16a4:	06020402 	streq	r0, [r2], -r2, lsl #8
    16a8:	04020001 	streq	r0, [r2], #-1
    16ac:	02002e02 	andeq	r2, r0, #2, 28
    16b0:	052e0204 	streq	r0, [lr, #-516]!	; 0xfffffdfc
    16b4:	04020005 	streq	r0, [r2], #-5
    16b8:	002f0602 	eoreq	r0, pc, r2, lsl #12
    16bc:	67020402 	strvs	r0, [r2, -r2, lsl #8]
    16c0:	02000105 	andeq	r0, r0, #1073741825	; 0x40000001
    16c4:	13060204 	movwne	r0, #25092	; 0x6204
    16c8:	02000505 	andeq	r0, r0, #20971520	; 0x1400000
    16cc:	62060104 	andvs	r0, r6, #1
    16d0:	01040200 	mrseq	r0, R12_usr
    16d4:	04020001 	streq	r0, [r2], #-1
    16d8:	00ba0601 	adcseq	r0, sl, r1, lsl #12
    16dc:	06010402 	streq	r0, [r1], -r2, lsl #8
    16e0:	033c052e 	teqeq	ip, #192937984	; 0xb800000
    16e4:	01069e0a 	tsteq	r6, sl, lsl #28
    16e8:	4b060505 	blmi	182b04 <__bss_end__+0x178de4>
    16ec:	062e0601 	strteq	r0, [lr], -r1, lsl #12
    16f0:	0113012e 	tsteq	r3, lr, lsr #2
    16f4:	ad031805 	stcge	8, cr1, [r3, #-20]	; 0xffffffec
    16f8:	0505017f 	streq	r0, [r5, #-383]	; 0xfffffe81
    16fc:	06110513 			; <UNDEFINED> instruction: 0x06110513
    1700:	05052e01 	streq	r2, [r5, #-3585]	; 0xfffff1ff
    1704:	0100d203 	tsteq	r0, r3, lsl #4
    1708:	05134a06 	ldreq	r4, [r3, #-2566]	; 0xfffff5fa
    170c:	7fa30318 	svcvc	0x00a30318
    1710:	13050501 	movwne	r0, #21761	; 0x5501
    1714:	01061605 	tsteq	r6, r5, lsl #12
    1718:	0605054a 	streq	r0, [r5], -sl, asr #10
    171c:	0100e103 	tsteq	r0, r3, lsl #2
    1720:	01061205 	tsteq	r6, r5, lsl #4
    1724:	4b060505 	blmi	182b40 <__bss_end__+0x178e20>
    1728:	a9031805 	stmdbge	r3, {r0, r2, fp, ip}
    172c:	0505017f 	streq	r0, [r5, #-383]	; 0xfffffe81
    1730:	18050113 	stmdane	r5, {r0, r1, r4, r8}
    1734:	1305050e 	movwne	r0, #21774	; 0x550e
    1738:	01061105 	tsteq	r6, r5, lsl #2
    173c:	1505052e 	strne	r0, [r5, #-1326]	; 0xfffffad2
    1740:	13014a06 	movwne	r4, #6662	; 0x1a06
    1744:	01060e05 	tsteq	r6, r5, lsl #28
    1748:	2e16052e 	cfmul64cs	mvdx0, mvdx6, mvdx14
    174c:	0605052e 	streq	r0, [r5], -lr, lsr #10
    1750:	0100d603 	tsteq	r0, r3, lsl #12
    1754:	03180501 	tsteq	r8, #4194304	; 0x400000
    1758:	05017f9f 	streq	r7, [r1, #-3999]	; 0xfffff061
    175c:	19051305 	stmdbne	r5, {r0, r2, r8, r9, ip}
    1760:	052e0106 	streq	r0, [lr, #-262]!	; 0xfffffefa
    1764:	00e00305 	rsceq	r0, r0, r5, lsl #6
    1768:	04020001 	streq	r0, [r2], #-1
    176c:	004a0602 	subeq	r0, sl, r2, lsl #12
    1770:	14020402 	strne	r0, [r2], #-1026	; 0xfffffbfe
    1774:	02000a05 	andeq	r0, r0, #20480	; 0x5000
    1778:	01060204 	tsteq	r6, r4, lsl #4
    177c:	02000505 	andeq	r0, r0, #20971520	; 0x1400000
    1780:	4b060204 	blmi	181f98 <__bss_end__+0x178278>
    1784:	02000c05 	andeq	r0, r0, #1280	; 0x500
    1788:	01060204 	tsteq	r6, r4, lsl #4
    178c:	02000105 	andeq	r0, r0, #1073741825	; 0x40000001
    1790:	052f0204 	streq	r0, [pc, #-516]!	; 1594 <__code_start__-0x6a6c>
    1794:	04020005 	streq	r0, [r2], #-5
    1798:	73030601 	movwvc	r0, #13825	; 0x3601
    179c:	0402004a 	streq	r0, [r2], #-74	; 0xffffffb6
    17a0:	02000101 	andeq	r0, r0, #1073741824	; 0x40000000
    17a4:	9e060104 	adflss	f0, f6, f4
    17a8:	01040200 	mrseq	r0, R12_usr
    17ac:	0402002e 	streq	r0, [r2], #-46	; 0xffffffd2
    17b0:	002e0601 	eoreq	r0, lr, r1, lsl #12
    17b4:	2f010402 	svccs	0x00010402
    17b8:	01040200 	mrseq	r0, R12_usr
    17bc:	0402002e 	streq	r0, [r2], #-46	; 0xffffffd2
    17c0:	b103d601 	tstlt	r3, r1, lsl #12
    17c4:	06012e7f 			; <UNDEFINED> instruction: 0x06012e7f
    17c8:	062e2e82 	strteq	r2, [lr], -r2, lsl #29
    17cc:	002e062e 	eoreq	r0, lr, lr, lsr #12
    17d0:	06010402 	streq	r0, [r1], -r2, lsl #8
    17d4:	0100d703 	tsteq	r0, r3, lsl #14
    17d8:	01040200 	mrseq	r0, R12_usr
    17dc:	0402002e 	streq	r0, [r2], #-46	; 0xffffffd2
    17e0:	1505d601 	strne	sp, [r5, #-1537]	; 0xfffff9ff
    17e4:	17057b08 	strne	r7, [r5, -r8, lsl #22]
    17e8:	31160501 	tstcc	r6, r1, lsl #10
    17ec:	05011805 	streq	r1, [r1, #-2053]	; 0xfffff7fb
    17f0:	0501061d 	streq	r0, [r1, #-1565]	; 0xfffff9e3
    17f4:	1905662b 	stmdbne	r5, {r0, r1, r3, r5, r9, sl, sp, lr}
    17f8:	05054d06 	streq	r4, [r5, #-3334]	; 0xfffff2fa
    17fc:	060c0513 			; <UNDEFINED> instruction: 0x060c0513
    1800:	4a070501 	bmi	1c2c0c <__bss_end__+0x1b8eec>
    1804:	02002505 	andeq	r2, r0, #20971520	; 0x1400000
    1808:	054a0104 	strbeq	r0, [sl, #-260]	; 0xfffffefc
    180c:	0402001e 	streq	r0, [r2], #-30	; 0xffffffe2
    1810:	09054a01 	stmdbeq	r5, {r0, r9, fp, lr}
    1814:	05054b06 	streq	r4, [r5, #-2822]	; 0xfffff4fa
    1818:	060a0513 			; <UNDEFINED> instruction: 0x060a0513
    181c:	63190501 	tstvs	r9, #4194304	; 0x400000
    1820:	4c060905 			; <UNDEFINED> instruction: 0x4c060905
    1824:	069e0601 	ldreq	r0, [lr], r1, lsl #12
    1828:	000a022e 	andeq	r0, sl, lr, lsr #4
    182c:	01140101 	tsteq	r4, r1, lsl #2
    1830:	00030000 	andeq	r0, r3, r0
    1834:	000000e4 	andeq	r0, r0, r4, ror #1
    1838:	0efb0102 	cdpeq	1, 15, cr0, cr11, cr2, {0}
    183c:	0101000d 	tsteq	r1, sp
    1840:	00000101 	andeq	r0, r0, r1, lsl #2
    1844:	00000100 	andeq	r0, r0, r0, lsl #2
    1848:	6c2f2e01 	stcvs	14, cr2, [pc], #-4	; 184c <__code_start__-0x67b4>
    184c:	00636269 	rsbeq	r6, r3, r9, ror #4
    1850:	6573552f 	ldrbvs	r5, [r3, #-1327]!	; 0xfffffad1
    1854:	742f7372 	strtvc	r7, [pc], #-882	; 185c <__code_start__-0x67a4>
    1858:	74736972 	ldrbtvc	r6, [r3], #-2418	; 0xfffff68e
    185c:	6f6e6e65 	svcvs	0x006e6e65
    1860:	616d6c6c 	cmnvs	sp, ip, ror #24
    1864:	6f442f6e 	svcvs	0x00442f6e
    1868:	656d7563 	strbvs	r7, [sp, #-1379]!	; 0xfffffa9d
    186c:	2f73746e 	svccs	0x0073746e
    1870:	69727053 	ldmdbvs	r2!, {r0, r1, r4, r6, ip, sp, lr}^
    1874:	515f676e 	cmppl	pc, lr, ror #14
    1878:	74726175 	ldrbtvc	r6, [r2], #-373	; 0xfffffe8b
    187c:	325f7265 	subscc	r7, pc, #1342177286	; 0x50000006
    1880:	2f323230 	svccs	0x00323230
    1884:	34325343 	ldrtcc	r5, [r2], #-835	; 0xfffffcbd
    1888:	2d584c30 	ldclcs	12, cr4, [r8, #-192]	; 0xffffff40
    188c:	32727073 	rsbscc	r7, r2, #115, 0	; 0x73
    1890:	696c2f32 	stmdbvs	ip!, {r1, r4, r5, r8, r9, sl, fp, sp}^
    1894:	2f697062 	svccs	0x00697062
    1898:	6c636e69 	stclvs	14, cr6, [r3], #-420	; 0xfffffe5c
    189c:	00656475 	rsbeq	r6, r5, r5, ror r4
    18a0:	7273752f 	rsbsvc	r7, r3, #197132288	; 0xbc00000
    18a4:	636f6c2f 	cmnvs	pc, #12032	; 0x2f00
    18a8:	432f6c61 			; <UNDEFINED> instruction: 0x432f6c61
    18ac:	616c6c65 	cmnvs	ip, r5, ror #24
    18b0:	72612f72 	rsbvc	r2, r1, #456	; 0x1c8
    18b4:	6f6e2d6d 	svcvs	0x006e2d6d
    18b8:	652d656e 	strvs	r6, [sp, #-1390]!	; 0xfffffa92
    18bc:	2d696261 	sfmcs	f6, 2, [r9, #-388]!	; 0xfffffe7c
    18c0:	74736574 	ldrbtvc	r6, [r3], #-1396	; 0xfffffa8c
    18c4:	322d392f 	eorcc	r3, sp, #770048	; 0xbc000
    18c8:	71393130 	teqvc	r9, r0, lsr r1
    18cc:	73632d34 	cmnvc	r3, #52, 26	; 0xd00
    18d0:	65373031 	ldrvs	r3, [r7, #-49]!	; 0xffffffcf
    18d4:	62696c2f 	rsbvs	r6, r9, #12032	; 0x2f00
    18d8:	6363672f 	cmnvs	r3, #12320768	; 0xbc0000
    18dc:	6d72612f 	ldfvse	f6, [r2, #-188]!	; 0xffffff44
    18e0:	6e6f6e2d 	cdpvs	14, 6, cr6, cr15, cr13, {1}
    18e4:	61652d65 	cmnvs	r5, r5, ror #26
    18e8:	392f6962 	stmdbcc	pc!, {r1, r5, r6, r8, fp, sp, lr}	; <UNPREDICTABLE>
    18ec:	312e322e 			; <UNDEFINED> instruction: 0x312e322e
    18f0:	636e692f 	cmnvs	lr, #770048	; 0xbc000
    18f4:	6564756c 	strbvs	r7, [r4, #-1388]!	; 0xfffffa94
    18f8:	656d0000 	strbvs	r0, [sp, #-0]!
    18fc:	7465736d 	strbtvc	r7, [r5], #-877	; 0xfffffc93
    1900:	0100632e 	tsteq	r0, lr, lsr #6
    1904:	70720000 	rsbsvc	r0, r2, r0
    1908:	00682e69 	rsbeq	r2, r8, r9, ror #28
    190c:	73000002 	movwvc	r0, #2
    1910:	65646474 	strbvs	r6, [r4, #-1140]!	; 0xfffffb8c
    1914:	00682e66 	rsbeq	r2, r8, r6, ror #28
    1918:	00000003 	andeq	r0, r0, r3
    191c:	05002905 	streq	r2, [r0, #-2309]	; 0xfffff6fb
    1920:	0092a802 	addseq	sl, r2, r2, lsl #16
    1924:	05051500 	streq	r1, [r5, #-1280]	; 0xfffffb00
    1928:	06140513 			; <UNDEFINED> instruction: 0x06140513
    192c:	06050501 	streq	r0, [r5], -r1, lsl #10
    1930:	060b0530 			; <UNDEFINED> instruction: 0x060b0530
    1934:	060a0510 			; <UNDEFINED> instruction: 0x060a0510
    1938:	4b090530 	blmi	242e00 <__bss_end__+0x2390e0>
    193c:	01060e05 	tsteq	r6, r5, lsl #28
    1940:	0002022e 	andeq	r0, r2, lr, lsr #4
    1944:	010a0101 	tsteq	sl, r1, lsl #2
    1948:	00030000 	andeq	r0, r3, r0
    194c:	0000007f 	andeq	r0, r0, pc, ror r0
    1950:	0efb0102 	cdpeq	1, 15, cr0, cr11, cr2, {0}
    1954:	0101000d 	tsteq	r1, sp
    1958:	00000101 	andeq	r0, r0, r1, lsl #2
    195c:	00000100 	andeq	r0, r0, r0, lsl #2
    1960:	6c2f2e01 	stcvs	14, cr2, [pc], #-4	; 1964 <__code_start__-0x669c>
    1964:	00636269 	rsbeq	r6, r3, r9, ror #4
    1968:	6573552f 	ldrbvs	r5, [r3, #-1327]!	; 0xfffffad1
    196c:	742f7372 	strtvc	r7, [pc], #-882	; 1974 <__code_start__-0x668c>
    1970:	74736972 	ldrbtvc	r6, [r3], #-2418	; 0xfffff68e
    1974:	6f6e6e65 	svcvs	0x006e6e65
    1978:	616d6c6c 	cmnvs	sp, ip, ror #24
    197c:	6f442f6e 	svcvs	0x00442f6e
    1980:	656d7563 	strbvs	r7, [sp, #-1379]!	; 0xfffffa9d
    1984:	2f73746e 	svccs	0x0073746e
    1988:	69727053 	ldmdbvs	r2!, {r0, r1, r4, r6, ip, sp, lr}^
    198c:	515f676e 	cmppl	pc, lr, ror #14
    1990:	74726175 	ldrbtvc	r6, [r2], #-373	; 0xfffffe8b
    1994:	325f7265 	subscc	r7, pc, #1342177286	; 0x50000006
    1998:	2f323230 	svccs	0x00323230
    199c:	34325343 	ldrtcc	r5, [r2], #-835	; 0xfffffcbd
    19a0:	2d584c30 	ldclcs	12, cr4, [r8, #-192]	; 0xffffff40
    19a4:	32727073 	rsbscc	r7, r2, #115, 0	; 0x73
    19a8:	696c2f32 	stmdbvs	ip!, {r1, r4, r5, r8, r9, sl, fp, sp}^
    19ac:	2f697062 	svccs	0x00697062
    19b0:	6c636e69 	stclvs	14, cr6, [r3], #-420	; 0xfffffe5c
    19b4:	00656475 	rsbeq	r6, r5, r5, ror r4
    19b8:	72747300 	rsbsvc	r7, r4, #0, 6
    19bc:	2e746163 	rpwcssz	f6, f4, f3
    19c0:	00010063 	andeq	r0, r1, r3, rrx
    19c4:	69707200 	ldmdbvs	r0!, {r9, ip, sp, lr}^
    19c8:	0200682e 	andeq	r6, r0, #3014656	; 0x2e0000
    19cc:	05000000 	streq	r0, [r0, #-0]
    19d0:	0205002c 	andeq	r0, r5, #44, 0	; 0x2c
    19d4:	000092c0 	andeq	r9, r0, r0, asr #5
    19d8:	13050515 	movwne	r0, #21781	; 0x5515
    19dc:	060b0513 			; <UNDEFINED> instruction: 0x060b0513
    19e0:	00050511 	andeq	r0, r5, r1, lsl r5
    19e4:	06010402 	streq	r0, [r1], -r2, lsl #8
    19e8:	04020030 	streq	r0, [r2], #-48	; 0xffffffd0
    19ec:	09051501 	stmdbeq	r5, {r0, r8, sl, ip}
    19f0:	01040200 	mrseq	r0, R12_usr
    19f4:	00100513 	andseq	r0, r0, r3, lsl r5
    19f8:	06010402 	streq	r0, [r1], -r2, lsl #8
    19fc:	000b052e 	andeq	r0, fp, lr, lsr #10
    1a00:	2e010402 	cdpcs	4, 0, cr0, cr1, cr2, {0}
    1a04:	01040200 	mrseq	r0, R12_usr
    1a08:	05052f06 	streq	r2, [r5, #-3846]	; 0xfffff0fa
    1a0c:	01040200 	mrseq	r0, R12_usr
    1a10:	4e060106 	adfmis	f0, f6, f6
    1a14:	01060805 	tsteq	r6, r5, lsl #16
    1a18:	02000505 	andeq	r0, r0, #20971520	; 0x1400000
    1a1c:	2f060104 	svccs	0x00060104
    1a20:	02000905 	andeq	r0, r0, #81920	; 0x14000
    1a24:	05130104 	ldreq	r0, [r3, #-260]	; 0xfffffefc
    1a28:	0402000b 	streq	r0, [r2], #-11
    1a2c:	05010601 	streq	r0, [r1, #-1537]	; 0xfffff9ff
    1a30:	04020009 	streq	r0, [r2], #-9
    1a34:	054b0601 	strbeq	r0, [fp, #-1537]	; 0xfffff9ff
    1a38:	0402000f 	streq	r0, [r2], #-15
    1a3c:	05010601 	streq	r0, [r1, #-1537]	; 0xfffff9ff
    1a40:	0402000d 	streq	r0, [r2], #-13
    1a44:	052f0601 	streq	r0, [pc, #-1537]!	; 144b <__code_start__-0x6bb5>
    1a48:	04020005 	streq	r0, [r2], #-5
    1a4c:	02010601 	andeq	r0, r1, #1048576	; 0x100000
    1a50:	01010006 	tsteq	r1, r6
    1a54:	000000c3 	andeq	r0, r0, r3, asr #1
    1a58:	007f0003 	rsbseq	r0, pc, r3
    1a5c:	01020000 	mrseq	r0, (UNDEF: 2)
    1a60:	000d0efb 	strdeq	r0, [sp], -fp
    1a64:	01010101 	tsteq	r1, r1, lsl #2
    1a68:	01000000 	mrseq	r0, (UNDEF: 0)
    1a6c:	2e010000 	cdpcs	0, 0, cr0, cr1, cr0, {0}
    1a70:	62696c2f 	rsbvs	r6, r9, #12032	; 0x2f00
    1a74:	552f0063 	strpl	r0, [pc, #-99]!	; 1a19 <__code_start__-0x65e7>
    1a78:	73726573 	cmnvc	r2, #482344960	; 0x1cc00000
    1a7c:	6972742f 	ldmdbvs	r2!, {r0, r1, r2, r3, r5, sl, ip, sp, lr}^
    1a80:	6e657473 	mcrvs	4, 3, r7, cr5, cr3, {3}
    1a84:	6c6c6f6e 	stclvs	15, cr6, [ip], #-440	; 0xfffffe48
    1a88:	2f6e616d 	svccs	0x006e616d
    1a8c:	75636f44 	strbvc	r6, [r3, #-3908]!	; 0xfffff0bc
    1a90:	746e656d 	strbtvc	r6, [lr], #-1389	; 0xfffffa93
    1a94:	70532f73 	subsvc	r2, r3, r3, ror pc
    1a98:	676e6972 			; <UNDEFINED> instruction: 0x676e6972
    1a9c:	6175515f 	cmnvs	r5, pc, asr r1
    1aa0:	72657472 	rsbvc	r7, r5, #1912602624	; 0x72000000
    1aa4:	3230325f 	eorscc	r3, r0, #-268435451	; 0xf0000005
    1aa8:	53432f32 	movtpl	r2, #16178	; 0x3f32
    1aac:	4c303432 	cfldrsmi	mvf3, [r0], #-200	; 0xffffff38
    1ab0:	70732d58 	rsbsvc	r2, r3, r8, asr sp
    1ab4:	2f323272 	svccs	0x00323272
    1ab8:	7062696c 	rsbvc	r6, r2, ip, ror #18
    1abc:	6e692f69 	cdpvs	15, 6, cr2, cr9, cr9, {3}
    1ac0:	64756c63 	ldrbtvs	r6, [r5], #-3171	; 0xfffff39d
    1ac4:	73000065 	movwvc	r0, #101	; 0x65
    1ac8:	6d637274 	sfmvs	f7, 2, [r3, #-464]!	; 0xfffffe30
    1acc:	00632e70 	rsbeq	r2, r3, r0, ror lr
    1ad0:	72000001 	andvc	r0, r0, #1, 0
    1ad4:	682e6970 	stmdavs	lr!, {r4, r5, r6, r8, fp, sp, lr}
    1ad8:	00000200 	andeq	r0, r0, r0, lsl #4
    1adc:	002a0500 	eoreq	r0, sl, r0, lsl #10
    1ae0:	92f40205 	rscsls	r0, r4, #1342177280	; 0x50000000
    1ae4:	05140000 	ldreq	r0, [r4, #-0]
    1ae8:	0f051309 	svceq	0x00051309
    1aec:	06100501 	ldreq	r0, [r0], -r1, lsl #10
    1af0:	2e0f0501 	cfsh32cs	mvfx0, mvfx15, #1
    1af4:	02001c05 	andeq	r1, r0, #1280	; 0x500
    1af8:	054a0104 	strbeq	r0, [sl, #-260]	; 0xfffffefc
    1afc:	04020013 	streq	r0, [r2], #-19	; 0xffffffed
    1b00:	11052e01 	tstne	r5, r1, lsl #28
    1b04:	16052f06 	strne	r2, [r5], -r6, lsl #30
    1b08:	052e2e06 	streq	r2, [lr, #-3590]!	; 0xfffff1fa
    1b0c:	052f0609 	streq	r0, [pc, #-1545]!	; 150b <__code_start__-0x6af5>
    1b10:	05010615 	streq	r0, [r1, #-1557]	; 0xfffff9eb
    1b14:	04022f01 	streq	r2, [r2], #-3841	; 0xfffff0ff
    1b18:	c1010100 	mrsgt	r0, (UNDEF: 17)
    1b1c:	03000000 	movweq	r0, #0
    1b20:	00007f00 	andeq	r7, r0, r0, lsl #30
    1b24:	fb010200 	blx	4232e <__bss_end__+0x3860e>
    1b28:	01000d0e 	tsteq	r0, lr, lsl #26
    1b2c:	00010101 	andeq	r0, r1, r1, lsl #2
    1b30:	00010000 	andeq	r0, r1, r0
    1b34:	2f2e0100 	svccs	0x002e0100
    1b38:	6362696c 	cmnvs	r2, #108, 18	; 0x1b0000
    1b3c:	73552f00 	cmpvc	r5, #0, 30
    1b40:	2f737265 	svccs	0x00737265
    1b44:	73697274 	cmnvc	r9, #116, 4	; 0x40000007
    1b48:	6e6e6574 	mcrvs	5, 3, r6, cr14, cr4, {3}
    1b4c:	6d6c6c6f 	stclvs	12, cr6, [ip, #-444]!	; 0xfffffe44
    1b50:	442f6e61 	strtmi	r6, [pc], #-3681	; 1b58 <__code_start__-0x64a8>
    1b54:	6d75636f 	ldclvs	3, cr6, [r5, #-444]!	; 0xfffffe44
    1b58:	73746e65 	cmnvc	r4, #1616	; 0x650
    1b5c:	7270532f 	rsbsvc	r5, r0, #-1140850688	; 0xbc000000
    1b60:	5f676e69 	svcpl	0x00676e69
    1b64:	72617551 	rsbvc	r7, r1, #339738624	; 0x14400000
    1b68:	5f726574 	svcpl	0x00726574
    1b6c:	32323032 	eorscc	r3, r2, #50, 0	; 0x32
    1b70:	3253432f 	subscc	r4, r3, #-1140850688	; 0xbc000000
    1b74:	584c3034 	stmdapl	ip, {r2, r4, r5, ip, sp}^
    1b78:	7270732d 	rsbsvc	r7, r0, #-1275068416	; 0xb4000000
    1b7c:	6c2f3232 	sfmvs	f3, 4, [pc], #-200	; 1abc <__code_start__-0x6544>
    1b80:	69706269 	ldmdbvs	r0!, {r0, r3, r5, r6, r9, sp, lr}^
    1b84:	636e692f 	cmnvs	lr, #770048	; 0xbc000
    1b88:	6564756c 	strbvs	r7, [r4, #-1388]!	; 0xfffffa94
    1b8c:	74730000 	ldrbtvc	r0, [r3], #-0
    1b90:	79706372 	ldmdbvc	r0!, {r1, r4, r5, r6, r8, r9, sp, lr}^
    1b94:	0100632e 	tsteq	r0, lr, lsr #6
    1b98:	70720000 	rsbsvc	r0, r2, r0
    1b9c:	00682e69 	rsbeq	r2, r8, r9, ror #28
    1ba0:	00000002 	andeq	r0, r0, r2
    1ba4:	05002a05 	streq	r2, [r0, #-2565]	; 0xfffff5fb
    1ba8:	00932002 	addseq	r2, r3, r2
    1bac:	05051400 	streq	r1, [r5, #-1024]	; 0xfffffc00
    1bb0:	14051313 	strne	r1, [r5], #-787	; 0xfffffced
    1bb4:	22051106 	andcs	r1, r5, #-2147483647	; 0x80000001
    1bb8:	01040200 	mrseq	r0, R12_usr
    1bbc:	0b052f06 	bleq	14d7dc <__bss_end__+0x143abc>
    1bc0:	01040200 	mrseq	r0, R12_usr
    1bc4:	00150501 	andseq	r0, r5, r1, lsl #10
    1bc8:	06010402 	streq	r0, [r1], -r2, lsl #8
    1bcc:	00130501 	andseq	r0, r3, r1, lsl #10
    1bd0:	4a010402 	bmi	42be0 <__bss_end__+0x38ec0>
    1bd4:	02000b05 	andeq	r0, r0, #5120	; 0x1400
    1bd8:	024a0104 	subeq	r0, sl, #1
    1bdc:	01010006 	tsteq	r1, r6
    1be0:	00000121 	andeq	r0, r0, r1, lsr #2
    1be4:	00e50003 	rsceq	r0, r5, r3
    1be8:	01020000 	mrseq	r0, (UNDEF: 2)
    1bec:	000d0efb 	strdeq	r0, [sp], -fp
    1bf0:	01010101 	tsteq	r1, r1, lsl #2
    1bf4:	01000000 	mrseq	r0, (UNDEF: 0)
    1bf8:	2e010000 	cdpcs	0, 0, cr0, cr1, cr0, {0}
    1bfc:	62696c2f 	rsbvs	r6, r9, #12032	; 0x2f00
    1c00:	552f0063 	strpl	r0, [pc, #-99]!	; 1ba5 <__code_start__-0x645b>
    1c04:	73726573 	cmnvc	r2, #482344960	; 0x1cc00000
    1c08:	6972742f 	ldmdbvs	r2!, {r0, r1, r2, r3, r5, sl, ip, sp, lr}^
    1c0c:	6e657473 	mcrvs	4, 3, r7, cr5, cr3, {3}
    1c10:	6c6c6f6e 	stclvs	15, cr6, [ip], #-440	; 0xfffffe48
    1c14:	2f6e616d 	svccs	0x006e616d
    1c18:	75636f44 	strbvc	r6, [r3, #-3908]!	; 0xfffff0bc
    1c1c:	746e656d 	strbtvc	r6, [lr], #-1389	; 0xfffffa93
    1c20:	70532f73 	subsvc	r2, r3, r3, ror pc
    1c24:	676e6972 			; <UNDEFINED> instruction: 0x676e6972
    1c28:	6175515f 	cmnvs	r5, pc, asr r1
    1c2c:	72657472 	rsbvc	r7, r5, #1912602624	; 0x72000000
    1c30:	3230325f 	eorscc	r3, r0, #-268435451	; 0xf0000005
    1c34:	53432f32 	movtpl	r2, #16178	; 0x3f32
    1c38:	4c303432 	cfldrsmi	mvf3, [r0], #-200	; 0xffffff38
    1c3c:	70732d58 	rsbsvc	r2, r3, r8, asr sp
    1c40:	2f323272 	svccs	0x00323272
    1c44:	7062696c 	rsbvc	r6, r2, ip, ror #18
    1c48:	6e692f69 	cdpvs	15, 6, cr2, cr9, cr9, {3}
    1c4c:	64756c63 	ldrbtvs	r6, [r5], #-3171	; 0xfffff39d
    1c50:	752f0065 	strvc	r0, [pc, #-101]!	; 1bf3 <__code_start__-0x640d>
    1c54:	6c2f7273 	sfmvs	f7, 4, [pc], #-460	; 1a90 <__code_start__-0x6570>
    1c58:	6c61636f 	stclvs	3, cr6, [r1], #-444	; 0xfffffe44
    1c5c:	6c65432f 	stclvs	3, cr4, [r5], #-188	; 0xffffff44
    1c60:	2f72616c 	svccs	0x0072616c
    1c64:	2d6d7261 	sfmcs	f7, 2, [sp, #-388]!	; 0xfffffe7c
    1c68:	656e6f6e 	strbvs	r6, [lr, #-3950]!	; 0xfffff092
    1c6c:	6261652d 	rsbvs	r6, r1, #188743680	; 0xb400000
    1c70:	65742d69 	ldrbvs	r2, [r4, #-3433]!	; 0xfffff297
    1c74:	392f7473 	stmdbcc	pc!, {r0, r1, r4, r5, r6, sl, ip, sp, lr}	; <UNPREDICTABLE>
    1c78:	3130322d 	teqcc	r0, sp, lsr #4
    1c7c:	2d347139 	ldfcss	f7, [r4, #-228]!	; 0xffffff1c
    1c80:	30317363 	eorscc	r7, r1, r3, ror #6
    1c84:	6c2f6537 	cfstr32vs	mvfx6, [pc], #-220	; 1bb0 <__code_start__-0x6450>
    1c88:	672f6269 	strvs	r6, [pc, -r9, ror #4]!
    1c8c:	612f6363 			; <UNDEFINED> instruction: 0x612f6363
    1c90:	6e2d6d72 	mcrvs	13, 1, r6, cr13, cr2, {3}
    1c94:	2d656e6f 	stclcs	14, cr6, [r5, #-444]!	; 0xfffffe44
    1c98:	69626165 	stmdbvs	r2!, {r0, r2, r5, r6, r8, sp, lr}^
    1c9c:	322e392f 	eorcc	r3, lr, #770048	; 0xbc000
    1ca0:	692f312e 	stmdbvs	pc!, {r1, r2, r3, r5, r8, ip, sp}	; <UNPREDICTABLE>
    1ca4:	756c636e 	strbvc	r6, [ip, #-878]!	; 0xfffffc92
    1ca8:	00006564 	andeq	r6, r0, r4, ror #10
    1cac:	6e727473 	mrcvs	4, 3, r7, cr2, cr3, {3}
    1cb0:	2e706d63 	cdpcs	13, 7, cr6, cr0, cr3, {3}
    1cb4:	00010063 	andeq	r0, r1, r3, rrx
    1cb8:	69707200 	ldmdbvs	r0!, {r9, ip, sp, lr}^
    1cbc:	0200682e 	andeq	r6, r0, #3014656	; 0x2e0000
    1cc0:	74730000 	ldrbtvc	r0, [r3], #-0
    1cc4:	66656464 	strbtvs	r6, [r5], -r4, ror #8
    1cc8:	0300682e 	movweq	r6, #2094	; 0x82e
    1ccc:	05000000 	streq	r0, [r0, #-0]
    1cd0:	02050039 	andeq	r0, r5, #57, 0	; 0x39
    1cd4:	00009340 	andeq	r9, r0, r0, asr #6
    1cd8:	13050515 	movwne	r0, #21781	; 0x5515
    1cdc:	010a0513 	tsteq	sl, r3, lsl r5
    1ce0:	054a0106 	strbeq	r0, [sl, #-262]	; 0xfffffefa
    1ce4:	052f0609 	streq	r0, [pc, #-1545]!	; 16e3 <__code_start__-0x691d>
    1ce8:	0501060c 	streq	r0, [r1, #-1548]	; 0xfffff9f4
    1cec:	0b052e13 	bleq	14d540 <__bss_end__+0x143820>
    1cf0:	060d052e 	streq	r0, [sp], -lr, lsr #10
    1cf4:	061b054b 	ldreq	r0, [fp], -fp, asr #10
    1cf8:	0c052e01 	stceq	14, cr2, [r5], {1}
    1cfc:	2f010530 	svccs	0x00010530
    1d00:	01000202 	tsteq	r0, r2, lsl #4
    1d04:	0000b001 	andeq	fp, r0, r1
    1d08:	94000300 	strls	r0, [r0], #-768	; 0xfffffd00
    1d0c:	02000000 	andeq	r0, r0, #0, 0
    1d10:	0d0efb01 	vstreq	d15, [lr, #-4]
    1d14:	01010100 	mrseq	r0, (UNDEF: 17)
    1d18:	00000001 	andeq	r0, r0, r1
    1d1c:	01000001 	tsteq	r0, r1
    1d20:	74732f2e 	ldrbtvc	r2, [r3], #-3886	; 0xfffff0d2
    1d24:	2d666661 	stclcs	6, cr6, [r6, #-388]!	; 0xfffffe7c
    1d28:	00637273 	rsbeq	r7, r3, r3, ror r2
    1d2c:	6573552f 	ldrbvs	r5, [r3, #-1327]!	; 0xfffffad1
    1d30:	742f7372 	strtvc	r7, [pc], #-882	; 1d38 <__code_start__-0x62c8>
    1d34:	74736972 	ldrbtvc	r6, [r3], #-2418	; 0xfffff68e
    1d38:	6f6e6e65 	svcvs	0x006e6e65
    1d3c:	616d6c6c 	cmnvs	sp, ip, ror #24
    1d40:	6f442f6e 	svcvs	0x00442f6e
    1d44:	656d7563 	strbvs	r7, [sp, #-1379]!	; 0xfffffa9d
    1d48:	2f73746e 	svccs	0x0073746e
    1d4c:	69727053 	ldmdbvs	r2!, {r0, r1, r4, r6, ip, sp, lr}^
    1d50:	515f676e 	cmppl	pc, lr, ror #14
    1d54:	74726175 	ldrbtvc	r6, [r2], #-373	; 0xfffffe8b
    1d58:	325f7265 	subscc	r7, pc, #1342177286	; 0x50000006
    1d5c:	2f323230 	svccs	0x00323230
    1d60:	34325343 	ldrtcc	r5, [r2], #-835	; 0xfffffcbd
    1d64:	2d584c30 	ldclcs	12, cr4, [r8, #-192]	; 0xffffff40
    1d68:	32727073 	rsbscc	r7, r2, #115, 0	; 0x73
    1d6c:	696c2f32 	stmdbvs	ip!, {r1, r4, r5, r8, r9, sl, fp, sp}^
    1d70:	2f697062 	svccs	0x00697062
    1d74:	6c636e69 	stclvs	14, cr6, [r3], #-420	; 0xfffffe5c
    1d78:	00656475 	rsbeq	r6, r5, r5, ror r4
    1d7c:	66656400 	strbtvs	r6, [r5], -r0, lsl #8
    1d80:	746c7561 	strbtvc	r7, [ip], #-1377	; 0xfffffa9f
    1d84:	6265722d 	rsbvs	r7, r5, #-805306366	; 0xd0000002
    1d88:	2d746f6f 	ldclcs	15, cr6, [r4, #-444]!	; 0xfffffe44
    1d8c:	6c6c6163 	stfvse	f6, [ip], #-396	; 0xfffffe74
    1d90:	2e74756f 	cdpcs	5, 7, cr7, cr4, cr15, {3}
    1d94:	00010063 	andeq	r0, r1, r3, rrx
    1d98:	69707200 	ldmdbvs	r0!, {r9, ip, sp, lr}^
    1d9c:	0200682e 	andeq	r6, r0, #3014656	; 0x2e0000
    1da0:	05000000 	streq	r0, [r0, #-0]
    1da4:	0205001b 	andeq	r0, r5, #27, 0
    1da8:	0000936c 	andeq	r9, r0, ip, ror #6
    1dac:	011c0514 	tsteq	ip, r4, lsl r5
    1db0:	01060105 	tsteq	r6, r5, lsl #2
    1db4:	01000202 	tsteq	r0, r2, lsl #4
    1db8:	0001bb01 	andeq	fp, r1, r1, lsl #22
    1dbc:	bf000300 	svclt	0x00000300
    1dc0:	02000000 	andeq	r0, r0, #0, 0
    1dc4:	0d0efb01 	vstreq	d15, [lr, #-4]
    1dc8:	01010100 	mrseq	r0, (UNDEF: 17)
    1dcc:	00000001 	andeq	r0, r0, r1
    1dd0:	01000001 	tsteq	r0, r1
    1dd4:	6d6f682f 	stclvs	8, cr6, [pc, #-188]!	; 1d20 <__code_start__-0x62e0>
    1dd8:	6e652f65 	cdpvs	15, 6, cr2, cr5, cr5, {3}
    1ddc:	72656c67 	rsbvc	r6, r5, #26368	; 0x6700
    1de0:	616c632f 	cmnvs	ip, pc, lsr #6
    1de4:	632f7373 			; <UNDEFINED> instruction: 0x632f7373
    1de8:	30343273 	eorscc	r3, r4, r3, ror r2
    1dec:	322d786c 	eorcc	r7, sp, #108, 16	; 0x6c0000
    1df0:	72707332 	rsbsvc	r7, r0, #-939524096	; 0xc8000000
    1df4:	696c2f2f 	stmdbvs	ip!, {r0, r1, r2, r3, r5, r8, r9, sl, fp, sp}^
    1df8:	2f697062 	svccs	0x00697062
    1dfc:	6c636e69 	stclvs	14, cr6, [r3], #-420	; 0xfffffe5c
    1e00:	00656475 	rsbeq	r6, r5, r5, ror r4
    1e04:	7273752f 	rsbsvc	r7, r3, #197132288	; 0xbc00000
    1e08:	6168732f 	cmnvs	r8, pc, lsr #6
    1e0c:	672f6572 			; <UNDEFINED> instruction: 0x672f6572
    1e10:	612d6363 			; <UNDEFINED> instruction: 0x612d6363
    1e14:	6e2d6d72 	mcrvs	13, 1, r6, cr13, cr2, {3}
    1e18:	2d656e6f 	stclcs	14, cr6, [r5, #-444]!	; 0xfffffe44
    1e1c:	69626165 	stmdbvs	r2!, {r0, r2, r5, r6, r8, sp, lr}^
    1e20:	2e30312d 	rsfcssp	f3, f0, #5.0
    1e24:	30322d33 	eorscc	r2, r2, r3, lsr sp
    1e28:	312e3132 			; <UNDEFINED> instruction: 0x312e3132
    1e2c:	696c2f30 	stmdbvs	ip!, {r4, r5, r8, r9, sl, fp, sp}^
    1e30:	63672f62 	cmnvs	r7, #392	; 0x188
    1e34:	72612f63 	rsbvc	r2, r1, #396	; 0x18c
    1e38:	6f6e2d6d 	svcvs	0x006e2d6d
    1e3c:	652d656e 	strvs	r6, [sp, #-1390]!	; 0xfffffa92
    1e40:	2f696261 	svccs	0x00696261
    1e44:	332e3031 			; <UNDEFINED> instruction: 0x332e3031
    1e48:	692f312e 	stmdbvs	pc!, {r1, r2, r3, r5, r8, ip, sp}	; <UNPREDICTABLE>
    1e4c:	756c636e 	strbvc	r6, [ip, #-878]!	; 0xfffffc92
    1e50:	00006564 	andeq	r6, r0, r4, ror #10
    1e54:	6f697067 	svcvs	0x00697067
    1e58:	0000632e 	andeq	r6, r0, lr, lsr #6
    1e5c:	70720000 	rsbsvc	r0, r2, r0
    1e60:	00682e69 	rsbeq	r2, r8, r9, ror #28
    1e64:	73000001 	movwvc	r0, #1
    1e68:	6e696474 	mcrvs	4, 3, r6, cr9, cr4, {3}
    1e6c:	63672d74 	cmnvs	r7, #116, 26	; 0x1d00
    1e70:	00682e63 	rsbeq	r2, r8, r3, ror #28
    1e74:	67000002 	strvs	r0, [r0, -r2]
    1e78:	2e6f6970 			; <UNDEFINED> instruction: 0x2e6f6970
    1e7c:	00010068 	andeq	r0, r1, r8, rrx
    1e80:	38050000 	stmdacc	r5, {}	; <UNPREDICTABLE>
    1e84:	88020500 	stmdahi	r2, {r8, sl}
    1e88:	03000093 	movweq	r0, #147	; 0x93
    1e8c:	05050127 	streq	r0, [r5, #-295]	; 0xfffffed9
    1e90:	06070513 			; <UNDEFINED> instruction: 0x06070513
    1e94:	49380501 	ldmdbmi	r8!, {r0, r8, sl}
    1e98:	4d060505 	cfstr32mi	mvfx0, [r6, #-20]	; 0xffffffec
    1e9c:	01060705 	tsteq	r6, r5, lsl #14
    1ea0:	4c060505 	cfstr32mi	mvfx0, [r6], {5}
    1ea4:	01061805 	tsteq	r6, r5, lsl #16
    1ea8:	05ba0e05 	ldreq	r0, [sl, #3589]!	; 0xe05
    1eac:	052f0605 	streq	r0, [pc, #-1541]!	; 18af <__code_start__-0x6751>
    1eb0:	2e01061c 	mcrcs	6, 0, r0, cr1, cr12, {0}
    1eb4:	052e0e05 	streq	r0, [lr, #-3589]!	; 0xfffff1fb
    1eb8:	05300605 	ldreq	r0, [r0, #-1541]!	; 0xfffff9fb
    1ebc:	05010612 	streq	r0, [r1, #-1554]	; 0xfffff9ee
    1ec0:	054b0605 	strbeq	r0, [fp, #-1541]	; 0xfffff9fb
    1ec4:	05010607 	streq	r0, [r1, #-1543]	; 0xfffff9f9
    1ec8:	134b0605 	movtne	r0, #46597	; 0xb605
    1ecc:	01052e06 	tsteq	r5, r6, lsl #28
    1ed0:	0624054b 	strteq	r0, [r4], -fp, asr #10
    1ed4:	0501064c 	streq	r0, [r1, #-1612]	; 0xfffff9b4
    1ed8:	052f0605 	streq	r0, [pc, #-1541]!	; 18db <__code_start__-0x6725>
    1edc:	054b0601 	strbeq	r0, [fp, #-1537]	; 0xfffff9ff
    1ee0:	05310620 	ldreq	r0, [r1, #-1568]!	; 0xfffff9e0
    1ee4:	07051305 	streq	r1, [r5, -r5, lsl #6]
    1ee8:	20050106 	andcs	r0, r5, r6, lsl #2
    1eec:	06050549 	streq	r0, [r5], -r9, asr #10
    1ef0:	05660631 	strbeq	r0, [r6, #-1585]!	; 0xfffff9cf
    1ef4:	21052f01 	tstcs	r5, r1, lsl #30
    1ef8:	05054d06 	streq	r4, [r5, #-3334]	; 0xfffff2fa
    1efc:	06070513 			; <UNDEFINED> instruction: 0x06070513
    1f00:	49210501 	stmdbmi	r1!, {r0, r8, sl}
    1f04:	31060505 	tstcc	r6, r5, lsl #10
    1f08:	01056606 	tsteq	r5, r6, lsl #12
    1f0c:	0623052f 	strteq	r0, [r3], -pc, lsr #10
    1f10:	0501064d 	streq	r0, [r1, #-1613]	; 0xfffff9b3
    1f14:	052f0605 	streq	r0, [pc, #-1541]!	; 1917 <__code_start__-0x66e9>
    1f18:	054b0601 	strbeq	r0, [fp, #-1537]	; 0xfffff9ff
    1f1c:	0631062b 	ldrteq	r0, [r1], -fp, lsr #12
    1f20:	06050501 	streq	r0, [r5], -r1, lsl #10
    1f24:	0607052f 	streq	r0, [r7], -pc, lsr #10
    1f28:	06090501 	streq	r0, [r9], -r1, lsl #10
    1f2c:	062e064b 	strteq	r0, [lr], -fp, asr #12
    1f30:	06010530 			; <UNDEFINED> instruction: 0x06010530
    1f34:	061d052f 	ldreq	r0, [sp], -pc, lsr #10
    1f38:	13050530 	movwne	r0, #21808	; 0x5530
    1f3c:	01060705 	tsteq	r6, r5, lsl #14
    1f40:	05491d05 	strbeq	r1, [r9, #-3333]	; 0xfffff2fb
    1f44:	13310605 	teqne	r1, #5242880	; 0x500000
    1f48:	01060e05 	tsteq	r6, r5, lsl #28
    1f4c:	2f060505 	svccs	0x00060505
    1f50:	01061705 	tsteq	r6, r5, lsl #14
    1f54:	2e23054a 	cfsh64cs	mvdx0, mvdx3, #42
    1f58:	30050204 	andcc	r0, r5, r4, lsl #4
    1f5c:	00dc0306 	sbcseq	r0, ip, r6, lsl #6
    1f60:	0501042e 	streq	r0, [r1, #-1070]	; 0xfffffbd2
    1f64:	a403060c 	strge	r0, [r3], #-1548	; 0xfffff9f4
    1f68:	0105017f 	tsteq	r5, pc, ror r1
    1f6c:	2a10052f 	bcs	403430 <__bss_end__+0x3f9710>
    1f70:	02320105 	eorseq	r0, r2, #1073741825	; 0x40000001
    1f74:	01010004 	tsteq	r1, r4

Disassembly of section .debug_str:

00000000 <.debug_str>:
   0:	6d746f6e 	ldclvs	15, cr6, [r4, #-440]!	; 0xfffffe48
   4:	006e6961 	rsbeq	r6, lr, r1, ror #18
   8:	69736e75 	ldmdbvs	r3!, {r0, r2, r4, r5, r6, r9, sl, fp, sp, lr}^
   c:	64656e67 	strbtvs	r6, [r5], #-3687	; 0xfffff199
  10:	61686320 	cmnvs	r8, r0, lsr #6
  14:	6c630072 	stclvs	0, cr0, [r3], #-456	; 0xfffffe38
  18:	5f6e6165 	svcpl	0x006e6165
  1c:	6f626572 	svcvs	0x00626572
  20:	7300746f 	movwvc	r7, #1135	; 0x46f
  24:	74726f68 	ldrbtvc	r6, [r2], #-3944	; 0xfffff098
  28:	736e7520 	cmnvc	lr, #32, 10	; 0x8000000
  2c:	656e6769 	strbvs	r6, [lr, #-1897]!	; 0xfffff897
  30:	6e692064 	cdpvs	0, 6, cr2, cr9, cr4, {3}
  34:	726b0074 	rsbvc	r0, fp, #116, 0	; 0x74
  38:	6572665f 	ldrbvs	r6, [r2, #-1631]!	; 0xfffff9a1
  3c:	74700065 	ldrbtvc	r0, [r0], #-101	; 0xffffff9b
  40:	5f007372 	svcpl	0x00007372
  44:	4e55465f 	mrcmi	6, 2, r4, cr5, cr15, {2}
  48:	4f495443 	svcmi	0x00495443
  4c:	005f5f4e 	subseq	r5, pc, lr, asr #30
  50:	7365746e 	cmnvc	r5, #1845493760	; 0x6e000000
  54:	6c007374 	stcvs	3, cr7, [r0], {116}	; 0x74
  58:	20676e6f 	rsbcs	r6, r7, pc, ror #28
  5c:	676e6f6c 	strbvs	r6, [lr, -ip, ror #30]!
  60:	736e7520 	cmnvc	lr, #32, 10	; 0x8000000
  64:	656e6769 	strbvs	r6, [lr, #-1897]!	; 0xfffff897
  68:	6e692064 	cdpvs	0, 6, cr2, cr9, cr4, {3}
  6c:	69750074 	ldmdbvs	r5!, {r2, r4, r5, r6}^
  70:	5f38746e 	svcpl	0x0038746e
  74:	2d320074 	ldccs	0, cr0, [r2, #-464]!	; 0xfffffe30
  78:	74736574 	ldrbtvc	r6, [r3], #-1396	; 0xfffffa8c
  7c:	6c616d2d 	stclvs	13, cr6, [r1], #-180	; 0xffffff4c
  80:	2e636f6c 	cdpcs	15, 6, cr6, cr3, cr12, {3}
  84:	65740063 	ldrbvs	r0, [r4, #-99]!	; 0xffffff9d
  88:	615f7473 	cmpvs	pc, r3, ror r4	; <UNPREDICTABLE>
  8c:	636f6c6c 	cmnvs	pc, #108, 24	; 0x6c00
  90:	6572665f 	ldrbvs	r6, [r2, #-1631]!	; 0xfffff9a1
  94:	6f6c0065 	svcvs	0x006c0065
  98:	6c20676e 	stcvs	7, cr6, [r0], #-440	; 0xfffffe48
  9c:	20676e6f 	rsbcs	r6, r7, pc, ror #28
  a0:	00746e69 	rsbseq	r6, r4, r9, ror #28
  a4:	5f697072 	svcpl	0x00697072
  a8:	63747570 	cmnvs	r4, #112, 10	; 0x1c000000
  ac:	00726168 	rsbseq	r6, r2, r8, ror #2
  b0:	6573552f 	ldrbvs	r5, [r3, #-1327]!	; 0xfffffad1
  b4:	742f7372 	strtvc	r7, [pc], #-882	; bc <__code_start__-0x7f44>
  b8:	74736972 	ldrbtvc	r6, [r3], #-2418	; 0xfffff68e
  bc:	6f6e6e65 	svcvs	0x006e6e65
  c0:	616d6c6c 	cmnvs	sp, ip, ror #24
  c4:	6f442f6e 	svcvs	0x00442f6e
  c8:	656d7563 	strbvs	r7, [sp, #-1379]!	; 0xfffffa9d
  cc:	2f73746e 	svccs	0x0073746e
  d0:	69727053 	ldmdbvs	r2!, {r0, r1, r4, r6, ip, sp, lr}^
  d4:	515f676e 	cmppl	pc, lr, ror #14
  d8:	74726175 	ldrbtvc	r6, [r2], #-373	; 0xfffffe8b
  dc:	325f7265 	subscc	r7, pc, #1342177286	; 0x50000006
  e0:	2f323230 	svccs	0x00323230
  e4:	34325343 	ldrtcc	r5, [r2], #-835	; 0xfffffcbd
  e8:	2d584c30 	ldclcs	12, cr4, [r8, #-192]	; 0xffffff40
  ec:	32727073 	rsbscc	r7, r2, #115, 0	; 0x73
  f0:	616c2f32 	cmnvs	ip, r2, lsr pc
  f4:	352f7362 	strcc	r7, [pc, #-866]!	; fffffd9a <__bss_end__+0xffff607a>
  f8:	6c616d2d 	stclvs	13, cr6, [r1], #-180	; 0xffffff4c
  fc:	2b636f6c 	blcs	18dbeb4 <__bss_end__+0x18d2194>
 100:	322f6367 	eorcc	r6, pc, #-1677721599	; 0x9c000001
 104:	616b632d 	cmnvs	fp, sp, lsr #6
 108:	636f6c6c 	cmnvs	pc, #108, 24	; 0x6c00
 10c:	6f687300 	svcvs	0x00687300
 110:	69207472 	stmdbvs	r0!, {r1, r4, r5, r6, sl, ip, sp, lr}
 114:	6b00746e 	blvs	1d2d4 <__bss_end__+0x135b4>
 118:	616d5f72 	smcvs	54770	; 0xd5f2
 11c:	636f6c6c 	cmnvs	pc, #108, 24	; 0x6c00
 120:	554e4700 	strbpl	r4, [lr, #-1792]	; 0xfffff900
 124:	39394320 	ldmdbcc	r9!, {r5, r8, r9, lr}
 128:	322e3920 	eorcc	r3, lr, #32, 18	; 0x80000
 12c:	3220312e 	eorcc	r3, r0, #-2147483637	; 0x8000000b
 130:	31393130 	teqcc	r9, r0, lsr r1
 134:	20353230 	eorscs	r3, r5, r0, lsr r2
 138:	6c657228 	sfmvs	f7, 2, [r5], #-160	; 0xffffff60
 13c:	65736165 	ldrbvs	r6, [r3, #-357]!	; 0xfffffe9b
 140:	415b2029 	cmpmi	fp, r9, lsr #32
 144:	612f4d52 			; <UNDEFINED> instruction: 0x612f4d52
 148:	392d6d72 	pushcc	{r1, r4, r5, r6, r8, sl, fp, sp, lr}
 14c:	6172622d 	cmnvs	r2, sp, lsr #4
 150:	2068636e 	rsbcs	r6, r8, lr, ror #6
 154:	69766572 	ldmdbvs	r6!, {r1, r4, r5, r6, r8, sl, sp, lr}^
 158:	6e6f6973 			; <UNDEFINED> instruction: 0x6e6f6973
 15c:	37373220 	ldrcc	r3, [r7, -r0, lsr #4]!
 160:	5d393935 			; <UNDEFINED> instruction: 0x5d393935
 164:	636d2d20 	cmnvs	sp, #32, 26	; 0x800
 168:	613d7570 	teqvs	sp, r0, ror r5
 16c:	31316d72 	teqcc	r1, r2, ror sp
 170:	7a6a3637 	bvc	1a8da54 <__bss_end__+0x1a83d34>
 174:	20732d66 	rsbscs	r2, r3, r6, ror #26
 178:	75746d2d 	ldrbvc	r6, [r4, #-3373]!	; 0xfffff2d3
 17c:	613d656e 	teqvs	sp, lr, ror #10
 180:	31316d72 	teqcc	r1, r2, ror sp
 184:	7a6a3637 	bvc	1a8da68 <__bss_end__+0x1a83d48>
 188:	20732d66 	rsbscs	r2, r3, r6, ror #26
 18c:	6c666d2d 	stclvs	13, cr6, [r6], #-180	; 0xffffff4c
 190:	2d74616f 	ldfcse	f6, [r4, #-444]!	; 0xfffffe44
 194:	3d696261 	sfmcc	f6, 2, [r9, #-388]!	; 0xfffffe7c
 198:	74666f73 	strbtvc	r6, [r6], #-3955	; 0xfffff08d
 19c:	616d2d20 	cmnvs	sp, r0, lsr #26
 1a0:	2d206d72 	stccs	13, cr6, [r0, #-456]!	; 0xfffffe38
 1a4:	6372616d 	cmnvs	r2, #1073741851	; 0x4000001b
 1a8:	72613d68 	rsbvc	r3, r1, #104, 26	; 0x1a00
 1ac:	6b36766d 	blvs	d9db68 <__bss_end__+0xd93e48>
 1b0:	672d207a 			; <UNDEFINED> instruction: 0x672d207a
 1b4:	20626467 	rsbcs	r6, r2, r7, ror #8
 1b8:	20674f2d 	rsbcs	r4, r7, sp, lsr #30
 1bc:	6474732d 	ldrbtvs	r7, [r4], #-813	; 0xfffffcd3
 1c0:	756e673d 	strbvc	r6, [lr, #-1853]!	; 0xfffff8c3
 1c4:	2d203939 			; <UNDEFINED> instruction: 0x2d203939
 1c8:	65726666 	ldrbvs	r6, [r2, #-1638]!	; 0xfffff99a
 1cc:	61747365 	cmnvs	r4, r5, ror #6
 1d0:	6e69646e 	cdpvs	4, 6, cr6, cr9, cr14, {3}
 1d4:	70720067 	rsbsvc	r0, r2, r7, rrx
 1d8:	65725f69 	ldrbvs	r5, [r2, #-3945]!	; 0xfffff097
 1dc:	5f746573 	svcpl	0x00746573
 1e0:	63747570 	cmnvs	r4, #112, 10	; 0x1c000000
 1e4:	61656800 	cmnvs	r5, r0, lsl #16
 1e8:	00726564 	rsbseq	r6, r2, r4, ror #10
 1ec:	76657270 			; <UNDEFINED> instruction: 0x76657270
 1f0:	6c610070 	stclvs	0, cr0, [r1], #-448	; 0xfffffe40
 1f4:	006e6769 	rsbeq	r6, lr, r9, ror #14
 1f8:	65657266 	strbvs	r7, [r5, #-614]!	; 0xfffffd9a
 1fc:	756e0070 	strbvc	r0, [lr, #-112]!	; 0xffffff90
 200:	7374696e 	cmnvc	r4, #1802240	; 0x1b8000
 204:	2d726b00 	vldmdbcs	r2!, {d22-d21}
 208:	6c6c616d 	stfvse	f6, [ip], #-436	; 0xfffffe4c
 20c:	632e636f 			; <UNDEFINED> instruction: 0x632e636f
 210:	756f6400 	strbvc	r6, [pc, #-1024]!	; fffffe18 <__bss_end__+0xffff60f8>
 214:	00656c62 	rsbeq	r6, r5, r2, ror #24
 218:	65736162 	ldrbvs	r6, [r3, #-354]!	; 0xfffffe9e
 21c:	5f726b00 	svcpl	0x00726b00
 220:	65726f6d 	ldrbvs	r6, [r2, #-3949]!	; 0xfffff093
 224:	65726f63 	ldrbvs	r6, [r2, #-3939]!	; 0xfffff09d
 228:	72627300 	rsbvc	r7, r2, #0, 6
 22c:	6973006b 	ldmdbvs	r3!, {r0, r1, r3, r5, r6}^
 230:	4800657a 	stmdami	r0, {r1, r3, r4, r5, r6, r8, sl, sp, lr}
 234:	65646165 	strbvs	r6, [r4, #-357]!	; 0xfffffe9b
 238:	6e690072 	mcrvs	0, 3, r0, cr9, cr2, {3}
 23c:	6d657263 	sfmvs	f7, 2, [r5, #-396]!	; 0xfffffe74
 240:	00746e65 	rsbseq	r6, r4, r5, ror #28
 244:	6c616d6b 	stclvs	13, cr6, [r1], #-428	; 0xfffffe54
 248:	00636f6c 	rsbeq	r6, r3, ip, ror #30
 24c:	732d6970 			; <UNDEFINED> instruction: 0x732d6970
 250:	2e6b7262 	cdpcs	2, 6, cr7, cr11, cr2, {3}
 254:	4e470063 	cdpmi	0, 4, cr0, cr7, cr3, {3}
 258:	39432055 	stmdbcc	r3, {r0, r2, r4, r6, sp}^
 25c:	2e392039 	mrccs	0, 1, r2, cr9, cr9, {1}
 260:	20312e32 	eorscs	r2, r1, r2, lsr lr
 264:	39313032 	ldmdbcc	r1!, {r1, r4, r5, ip, sp}
 268:	35323031 	ldrcc	r3, [r2, #-49]!	; 0xffffffcf
 26c:	65722820 	ldrbvs	r2, [r2, #-2080]!	; 0xfffff7e0
 270:	7361656c 	cmnvc	r1, #108, 10	; 0x1b000000
 274:	5b202965 	blpl	80a810 <__bss_end__+0x800af0>
 278:	2f4d5241 	svccs	0x004d5241
 27c:	2d6d7261 	sfmcs	f7, 2, [sp, #-388]!	; 0xfffffe7c
 280:	72622d39 	rsbvc	r2, r2, #3648	; 0xe40
 284:	68636e61 	stmdavs	r3!, {r0, r5, r6, r9, sl, fp, sp, lr}^
 288:	76657220 	strbtvc	r7, [r5], -r0, lsr #4
 28c:	6f697369 	svcvs	0x00697369
 290:	3732206e 	ldrcc	r2, [r2, -lr, rrx]!
 294:	39393537 	ldmdbcc	r9!, {r0, r1, r2, r4, r5, r8, sl, ip, sp}
 298:	6d2d205d 	stcvs	0, cr2, [sp, #-372]!	; 0xfffffe8c
 29c:	3d757063 	ldclcc	0, cr7, [r5, #-396]!	; 0xfffffe74
 2a0:	316d7261 	cmncc	sp, r1, ror #4
 2a4:	6a363731 	bvs	d8df70 <__bss_end__+0xd84250>
 2a8:	732d667a 			; <UNDEFINED> instruction: 0x732d667a
 2ac:	746d2d20 	strbtvc	r2, [sp], #-3360	; 0xfffff2e0
 2b0:	3d656e75 	stclcc	14, cr6, [r5, #-468]!	; 0xfffffe2c
 2b4:	316d7261 	cmncc	sp, r1, ror #4
 2b8:	6a363731 	bvs	d8df84 <__bss_end__+0xd84264>
 2bc:	732d667a 			; <UNDEFINED> instruction: 0x732d667a
 2c0:	666d2d20 	strbtvs	r2, [sp], -r0, lsr #26
 2c4:	74616f6c 	strbtvc	r6, [r1], #-3948	; 0xfffff094
 2c8:	6962612d 	stmdbvs	r2!, {r0, r2, r3, r5, r8, sp, lr}^
 2cc:	666f733d 			; <UNDEFINED> instruction: 0x666f733d
 2d0:	6d2d2074 	stcvs	0, cr2, [sp, #-464]!	; 0xfffffe30
 2d4:	206d7261 	rsbcs	r7, sp, r1, ror #4
 2d8:	72616d2d 	rsbvc	r6, r1, #2880	; 0xb40
 2dc:	613d6863 	teqvs	sp, r3, ror #16
 2e0:	36766d72 			; <UNDEFINED> instruction: 0x36766d72
 2e4:	2d207a6b 	vstmdbcs	r0!, {s14-s120}
 2e8:	62646767 	rsbvs	r6, r4, #27000832	; 0x19c0000
 2ec:	67672d20 	strbvs	r2, [r7, -r0, lsr #26]!
 2f0:	2d206264 	sfmcs	f6, 4, [r0, #-400]!	; 0xfffffe70
 2f4:	2d20674f 	stccs	7, cr6, [r0, #-316]!	; 0xfffffec4
 2f8:	2d20674f 	stccs	7, cr6, [r0, #-316]!	; 0xfffffec4
 2fc:	3d647473 	cfstrdcc	mvd7, [r4, #-460]!	; 0xfffffe34
 300:	39756e67 	ldmdbcc	r5!, {r0, r1, r2, r5, r6, r9, sl, fp, sp, lr}^
 304:	732d2039 			; <UNDEFINED> instruction: 0x732d2039
 308:	673d6474 			; <UNDEFINED> instruction: 0x673d6474
 30c:	3939756e 	ldmdbcc	r9!, {r1, r2, r3, r5, r6, r8, sl, ip, sp, lr}
 310:	66662d20 	strbtvs	r2, [r6], -r0, lsr #26
 314:	73656572 	cmnvc	r5, #478150656	; 0x1c800000
 318:	646e6174 	strbtvs	r6, [lr], #-372	; 0xfffffe8c
 31c:	00676e69 	rsbeq	r6, r7, r9, ror #28
 320:	73677261 	cmnvc	r7, #268435462	; 0x10000006
 324:	5f617600 	svcpl	0x00617600
 328:	6e697270 	mcrvs	2, 3, r7, cr9, cr0, {3}
 32c:	5f006b74 	svcpl	0x00006b74
 330:	756e675f 	strbvc	r6, [lr, #-1887]!	; 0xfffff8a1
 334:	61765f63 	cmnvs	r6, r3, ror #30
 338:	73696c5f 	cmnvc	r9, #24320	; 0x5f00
 33c:	5f5f0074 	svcpl	0x005f0074
 340:	6c5f6176 	ldfvse	f6, [pc], {118}	; 0x76
 344:	00747369 	rsbseq	r7, r4, r9, ror #6
 348:	70615f5f 	rsbvc	r5, r1, pc, asr pc
 34c:	6c2f2e00 	stcvs	14, cr2, [pc], #-0	; 354 <__code_start__-0x7cac>
 350:	2f636269 	svccs	0x00636269
 354:	6e697270 	mcrvs	2, 3, r7, cr9, cr0, {3}
 358:	632e6b74 			; <UNDEFINED> instruction: 0x632e6b74
 35c:	73552f00 	cmpvc	r5, #0, 30
 360:	2f737265 	svccs	0x00737265
 364:	73697274 	cmnvc	r9, #116, 4	; 0x40000007
 368:	6e6e6574 	mcrvs	5, 3, r6, cr14, cr4, {3}
 36c:	6d6c6c6f 	stclvs	12, cr6, [ip, #-444]!	; 0xfffffe44
 370:	442f6e61 	strtmi	r6, [pc], #-3681	; 378 <__code_start__-0x7c88>
 374:	6d75636f 	ldclvs	3, cr6, [r5, #-444]!	; 0xfffffe44
 378:	73746e65 	cmnvc	r4, #1616	; 0x650
 37c:	7270532f 	rsbsvc	r5, r0, #-1140850688	; 0xbc000000
 380:	5f676e69 	svcpl	0x00676e69
 384:	72617551 	rsbvc	r7, r1, #339738624	; 0x14400000
 388:	5f726574 	svcpl	0x00726574
 38c:	32323032 	eorscc	r3, r2, #50, 0	; 0x32
 390:	3253432f 	subscc	r4, r3, #-1140850688	; 0xbc000000
 394:	584c3034 	stmdapl	ip, {r2, r4, r5, ip, sp}^
 398:	7270732d 	rsbsvc	r7, r0, #-1275068416	; 0xb4000000
 39c:	6c2f3232 	sfmvs	f3, 4, [pc], #-200	; 2dc <__code_start__-0x7d24>
 3a0:	69706269 	ldmdbvs	r0!, {r0, r3, r5, r6, r9, sp, lr}^
 3a4:	746e6900 	strbtvc	r6, [lr], #-2304	; 0xfffff700
 3a8:	616e7265 	cmnvs	lr, r5, ror #4
 3ac:	75705f6c 	ldrbvc	r5, [r0, #-3948]!	; 0xfffff094
 3b0:	61686374 	smcvs	34356	; 0x8634
 3b4:	70720072 	rsbsvc	r0, r2, r2, ror r0
 3b8:	65735f69 	ldrbvs	r5, [r3, #-3945]!	; 0xfffff097
 3bc:	75705f74 	ldrbvc	r5, [r0, #-3956]!	; 0xfffff08c
 3c0:	2e006374 	mcrcs	3, 0, r6, cr0, cr4, {3}
 3c4:	62696c2f 	rsbvs	r6, r9, #12032	; 0x2f00
 3c8:	75702f63 	ldrbvc	r2, [r0, #-3939]!	; 0xfffff09d
 3cc:	61686374 	smcvs	34356	; 0x8634
 3d0:	00632e72 	rsbeq	r2, r3, r2, ror lr
 3d4:	74726175 	ldrbtvc	r6, [r2], #-373	; 0xfffffe8b
 3d8:	7475705f 	ldrbtvc	r7, [r5], #-95	; 0xffffffa1
 3dc:	6e690063 	cdpvs	0, 6, cr0, cr9, cr3, {3}
 3e0:	6e726574 	mrcvs	5, 3, r6, cr2, cr4, {3}
 3e4:	705f6c61 	subsvc	r6, pc, r1, ror #24
 3e8:	006b7475 	rsbeq	r7, fp, r5, ror r4
 3ec:	696c2f2e 	stmdbvs	ip!, {r1, r2, r3, r5, r8, r9, sl, fp, sp}^
 3f0:	702f6362 	eorvc	r6, pc, r2, ror #6
 3f4:	2e6b7475 	mcrcs	4, 3, r7, cr11, cr5, {3}
 3f8:	73690063 	cmnvc	r9, #99, 0	; 0x63
 3fc:	69676964 	stmdbvs	r7!, {r2, r5, r6, r8, fp, sp, lr}^
 400:	69750074 	ldmdbvs	r5!, {r2, r4, r5, r6}^
 404:	3436746e 	ldrtcc	r7, [r6], #-1134	; 0xfffffb92
 408:	2e00745f 	cfmvsrcs	mvf0, r7
 40c:	62696c2f 	rsbvs	r6, r9, #12032	; 0x2f00
 410:	61762f63 	cmnvs	r6, r3, ror #30
 414:	6972702d 	ldmdbvs	r2!, {r0, r2, r3, r5, ip, sp, lr}^
 418:	2e6b746e 	cdpcs	4, 6, cr7, cr11, cr14, {3}
 41c:	5f5f0063 	svcpl	0x005f0063
 420:	65646f63 	strbvs	r6, [r4, #-3939]!	; 0xfffff09d
 424:	6174735f 	cmnvs	r4, pc, asr r3
 428:	5f5f7472 	svcpl	0x005f7472
 42c:	625f5f00 	subsvs	r5, pc, #0, 30
 430:	735f7373 	cmpvc	pc, #-872415231	; 0xcc000001
 434:	74726174 	ldrbtvc	r6, [r2], #-372	; 0xfffffe8c
 438:	77005f5f 	smlsdvc	r0, pc, pc, r5	; <UNPREDICTABLE>
 43c:	68746469 	ldmdavs	r4!, {r0, r3, r5, r6, sl, sp, lr}^
 440:	645f5f00 	ldrbvs	r5, [pc], #-3840	; 448 <__code_start__-0x7bb8>
 444:	5f617461 	svcpl	0x00617461
 448:	5f646e65 	svcpl	0x00646e65
 44c:	7570005f 	ldrbvc	r0, [r0, #-95]!	; 0xffffffa1
 450:	665f6374 			; <UNDEFINED> instruction: 0x665f6374
 454:	5f5f0070 	svcpl	0x005f0070
 458:	5f737362 	svcpl	0x00737362
 45c:	5f646e65 	svcpl	0x00646e65
 460:	5f5f005f 	svcpl	0x005f005f
 464:	70616568 	rsbvc	r6, r1, r8, ror #10
 468:	6174735f 	cmnvs	r4, pc, asr r3
 46c:	5f5f7472 	svcpl	0x005f7472
 470:	6e697500 	cdpvs	5, 6, cr7, cr9, cr0, {0}
 474:	5f323374 	svcpl	0x00323374
 478:	70720074 	rsbsvc	r0, r2, r4, ror r0
 47c:	65735f69 	ldrbvs	r5, [r3, #-3945]!	; 0xfffff097
 480:	756f5f74 	strbvc	r5, [pc, #-3956]!	; fffff514 <__bss_end__+0xffff57f4>
 484:	74757074 	ldrbtvc	r7, [r5], #-116	; 0xffffff8c
 488:	746d6600 	strbtvc	r6, [sp], #-1536	; 0xfffffa00
 48c:	6174735f 	cmnvs	r4, pc, asr r3
 490:	73007472 	movwvc	r7, #1138	; 0x472
 494:	70637274 	rsbvc	r7, r3, r4, ror r2
 498:	656e0079 	strbvs	r0, [lr, #-121]!	; 0xffffff87
 49c:	00705f67 	rsbseq	r5, r0, r7, ror #30
 4a0:	6f635f5f 	svcvs	0x00635f5f
 4a4:	655f6564 	ldrbvs	r6, [pc, #-1380]	; ffffff48 <__bss_end__+0xffff6228>
 4a8:	5f5f646e 	svcpl	0x005f646e
 4ac:	696d6500 	stmdbvs	sp!, {r8, sl, sp, lr}^
 4b0:	75700074 	ldrbvc	r0, [r0, #-116]!	; 0xffffff8c
 4b4:	665f7374 			; <UNDEFINED> instruction: 0x665f7374
 4b8:	65720070 	ldrbvs	r0, [r2, #-112]!	; 0xffffff90
 4bc:	73726576 	cmnvc	r2, #494927872	; 0x1d800000
 4c0:	74730065 	ldrbtvc	r0, [r3], #-101	; 0xffffff9b
 4c4:	74616372 	strbtvc	r6, [r1], #-882	; 0xfffffc8e
 4c8:	72747300 	rsbsvc	r7, r4, #0, 6
 4cc:	00706d63 	rsbseq	r6, r0, r3, ror #26
 4d0:	61645f5f 	cmnvs	r4, pc, asr pc
 4d4:	735f6174 	cmpvc	pc, #29
 4d8:	74726174 	ldrbtvc	r6, [r2], #-372	; 0xfffffe8c
 4dc:	5f005f5f 	svcpl	0x00005f5f
 4e0:	6f72705f 	svcvs	0x0072705f
 4e4:	6e655f67 	cdpvs	15, 6, cr5, cr5, cr7, {3}
 4e8:	005f5f64 	subseq	r5, pc, r4, ror #30
 4ec:	316d756e 	cmncc	sp, lr, ror #10
 4f0:	72747300 	rsbsvc	r7, r4, #0, 6
 4f4:	706d636e 	rsbvc	r6, sp, lr, ror #6
 4f8:	67697300 	strbvs	r7, [r9, -r0, lsl #6]!
 4fc:	5f64656e 	svcpl	0x0064656e
 500:	70720070 	rsbsvc	r0, r2, r0, ror r0
 504:	65725f69 	ldrbvs	r5, [r2, #-3945]!	; 0xfffff097
 508:	746f6f62 	strbtvc	r6, [pc], #-3938	; 510 <__code_start__-0x7af0>
 50c:	6c656400 	cfstrdvs	mvd6, [r5], #-0
 510:	6d5f7961 	vldrvs.16	s15, [pc, #-194]	; 456 <__code_start__-0x7baa>	; <UNPREDICTABLE>
 514:	2f2e0073 	svccs	0x002e0073
 518:	66617473 			; <UNDEFINED> instruction: 0x66617473
 51c:	72732d66 	rsbsvc	r2, r3, #6528	; 0x1980
 520:	6c632f63 	stclvs	15, cr2, [r3], #-396	; 0xfffffe74
 524:	2d6e6165 	stfcse	f6, [lr, #-404]!	; 0xfffffe6c
 528:	6f626572 	svcvs	0x00626572
 52c:	632e746f 			; <UNDEFINED> instruction: 0x632e746f
 530:	72617500 	rsbvc	r7, r1, #0, 10
 534:	6c665f74 	stclvs	15, cr5, [r6], #-464	; 0xfffffe30
 538:	5f687375 	svcpl	0x00687375
 53c:	5f007874 	svcpl	0x00007874
 540:	61747363 	cmnvs	r4, r3, ror #6
 544:	62007472 	andvs	r7, r0, #1912602624	; 0x72000000
 548:	655f7373 	ldrbvs	r7, [pc, #-883]	; 1dd <__code_start__-0x7e23>
 54c:	7500646e 	strvc	r6, [r0, #-1134]	; 0xfffffb92
 550:	5f747261 	svcpl	0x00747261
 554:	74696e69 	strbtvc	r6, [r9], #-3689	; 0xfffff197
 558:	73756300 	cmnvc	r5, #0, 6
 55c:	5f6d6f74 	svcpl	0x006d6f74
 560:	64616f6c 	strbtvs	r6, [r1], #-3948	; 0xfffff094
 564:	2e007265 	cdpcs	2, 0, cr7, cr0, cr5, {3}
 568:	6174732f 	cmnvs	r4, pc, lsr #6
 56c:	732d6666 			; <UNDEFINED> instruction: 0x732d6666
 570:	632f6372 			; <UNDEFINED> instruction: 0x632f6372
 574:	72617473 	rsbvc	r7, r1, #1929379840	; 0x73000000
 578:	00632e74 	rsbeq	r2, r3, r4, ror lr
 57c:	74732f2e 	ldrbtvc	r2, [r3], #-3886	; 0xfffff0d2
 580:	2d666661 	stclcs	6, cr6, [r6, #-388]!	; 0xfffffe7c
 584:	2f637273 	svccs	0x00637273
 588:	74737563 	ldrbtvc	r7, [r3], #-1379	; 0xfffffa9d
 58c:	6c2d6d6f 	stcvs	13, cr6, [sp], #-444	; 0xfffffe44
 590:	6564616f 	strbvs	r6, [r4, #-367]!	; 0xfffffe91
 594:	00632e72 	rsbeq	r2, r3, r2, ror lr
 598:	6f626572 	svcvs	0x00626572
 59c:	635f746f 	cmpvs	pc, #1862270976	; 0x6f000000
 5a0:	6f6c6c61 	svcvs	0x006c6c61
 5a4:	50007475 	andpl	r7, r0, r5, ror r4
 5a8:	44575f4d 	ldrbmi	r5, [r7], #-3917	; 0xfffff0b3
 5ac:	5000474f 	andpl	r4, r0, pc, asr #14
 5b0:	32335455 	eorscc	r5, r3, #1426063360	; 0x55000000
 5b4:	74657300 	strbtvc	r7, [r5], #-768	; 0xfffffd00
 5b8:	6573755f 	ldrbvs	r7, [r3, #-1375]!	; 0xfffffaa1
 5bc:	656c5f72 	strbvs	r5, [ip, #-3954]!	; 0xfffff08e
 5c0:	006c6576 	rsbeq	r6, ip, r6, ror r5
 5c4:	74732f2e 	ldrbtvc	r2, [r3], #-3886	; 0xfffff0d2
 5c8:	2d666661 	stclcs	6, cr6, [r6, #-388]!	; 0xfffffe7c
 5cc:	2f637273 	svccs	0x00637273
 5d0:	6f626572 	svcvs	0x00626572
 5d4:	632e746f 			; <UNDEFINED> instruction: 0x632e746f
 5d8:	5f4d5000 	svcpl	0x004d5000
 5dc:	53534150 	cmppl	r3, #20
 5e0:	44524f57 	ldrbmi	r4, [r2], #-3927	; 0xfffff0a9
 5e4:	5f746100 	svcpl	0x00746100
 5e8:	72657375 	rsbvc	r7, r5, #-738197503	; 0xd4000001
 5ec:	76656c5f 			; <UNDEFINED> instruction: 0x76656c5f
 5f0:	50006c65 	andpl	r6, r0, r5, ror #24
 5f4:	53525f4d 	cmppl	r2, #308	; 0x134
 5f8:	575f4354 			; <UNDEFINED> instruction: 0x575f4354
 5fc:	47464352 	smlsldmi	r4, r6, r2, r3
 600:	4c55465f 	mrrcmi	6, 5, r4, r5, cr15
 604:	45525f4c 	ldrbmi	r5, [r2, #-3916]	; 0xfffff0b4
 608:	00544553 	subseq	r4, r4, r3, asr r5
 60c:	525f4d50 	subspl	r4, pc, #80, 26	; 0x1400
 610:	00435453 	subeq	r5, r3, r3, asr r4
 614:	72737063 	rsbsvc	r7, r3, #99, 0	; 0x63
 618:	76656400 	strbtvc	r6, [r5], -r0, lsl #8
 61c:	7261625f 	rsbvc	r6, r1, #-268435451	; 0xf0000005
 620:	72656972 	rsbvc	r6, r5, #1867776	; 0x1c8000
 624:	6c656400 	cfstrdvs	mvd6, [r5], #-0
 628:	735f7961 	cmpvc	pc, #1589248	; 0x184000
 62c:	2e006365 	cdpcs	3, 0, cr6, cr0, cr5, {3}
 630:	6174732f 	cmnvs	r4, pc, lsr #6
 634:	732d6666 			; <UNDEFINED> instruction: 0x732d6666
 638:	742f6372 	strtvc	r6, [pc], #-882	; 640 <__code_start__-0x79c0>
 63c:	72656d69 	rsbvc	r6, r5, #6720	; 0x1a40
 640:	4700632e 	strmi	r6, [r0, -lr, lsr #6]
 644:	32335445 	eorscc	r5, r3, #1157627904	; 0x45000000
 648:	6d697400 	cfstrdvs	mvd7, [r9, #-0]
 64c:	675f7265 	ldrbvs	r7, [pc, -r5, ror #4]
 650:	755f7465 	ldrbvc	r7, [pc, #-1125]	; 1f3 <__code_start__-0x7e0d>
 654:	00636573 	rsbeq	r6, r3, r3, ror r5
 658:	616c6564 	cmnvs	ip, r4, ror #10
 65c:	73755f79 	cmnvc	r5, #484	; 0x1e4
 660:	6d697400 	cfstrdvs	mvd7, [r9, #-0]
 664:	675f7265 	ldrbvs	r7, [pc, -r5, ror #4]
 668:	755f7465 	ldrbvc	r7, [pc, #-1125]	; 20b <__code_start__-0x7df5>
 66c:	5f636573 	svcpl	0x00636573
 670:	00776172 	rsbseq	r6, r7, r2, ror r1
 674:	33747570 	cmncc	r4, #112, 10	; 0x1c000000
 678:	61620032 	cmnvs	r2, r2, lsr r0
 67c:	765f6475 			; <UNDEFINED> instruction: 0x765f6475
 680:	73006c61 	movwvc	r6, #3169	; 0xc61
 684:	00746174 	rsbseq	r6, r4, r4, ror r1
 688:	74726175 	ldrbtvc	r6, [r2], #-373	; 0xfffffe8b
 68c:	6e61635f 	mcrvs	3, 3, r6, cr1, cr15, {2}
 690:	7465675f 	strbtvc	r6, [r5], #-1887	; 0xfffff8a1
 694:	50470063 	subpl	r0, r7, r3, rrx
 698:	465f4f49 	ldrbmi	r4, [pc], -r9, asr #30
 69c:	5f434e55 	svcpl	0x00434e55
 6a0:	5054554f 	subspl	r5, r4, pc, asr #10
 6a4:	61005455 	tstvs	r0, r5, asr r4
 6a8:	705f7875 	subsvc	r7, pc, r5, ror r8	; <UNPREDICTABLE>
 6ac:	70697265 	rsbvc	r7, r9, r5, ror #4
 6b0:	75007368 	strvc	r7, [r0, #-872]	; 0xfffffc98
 6b4:	2e747261 	cdpcs	2, 7, cr7, cr4, cr1, {3}
 6b8:	61750063 	cmnvs	r5, r3, rrx
 6bc:	635f7472 	cmpvs	pc, #1912602624	; 0x72000000
 6c0:	705f6e61 	subsvc	r6, pc, r1, ror #28
 6c4:	00637475 	rsbeq	r7, r3, r5, ror r4
 6c8:	74726175 	ldrbtvc	r6, [r2], #-373	; 0xfffffe8b
 6cc:	5f78745f 	svcpl	0x0078745f
 6d0:	655f7369 	ldrbvs	r7, [pc, #-873]	; 36f <__code_start__-0x7c91>
 6d4:	7974706d 	ldmdbvc	r4!, {r0, r2, r3, r5, r6, ip, sp, lr}^
 6d8:	49504700 	ldmdbmi	r0, {r8, r9, sl, lr}^
 6dc:	55465f4f 	strbpl	r5, [r6, #-3919]	; 0xfffff0b1
 6e0:	415f434e 	cmpmi	pc, lr, asr #6
 6e4:	0030544c 	eorseq	r5, r0, ip, asr #8
 6e8:	4f495047 	svcmi	0x00495047
 6ec:	4e55465f 	mrcmi	6, 2, r4, cr5, cr15, {2}
 6f0:	4c415f43 	mcrrmi	15, 4, r5, r1, cr3
 6f4:	47003154 	smlsdmi	r0, r4, r1, r3
 6f8:	5f4f4950 	svcpl	0x004f4950
 6fc:	434e5546 	movtmi	r5, #58694	; 0xe546
 700:	544c415f 	strbpl	r4, [ip], #-351	; 0xfffffea1
 704:	50470032 	subpl	r0, r7, r2, lsr r0
 708:	465f4f49 	ldrbmi	r4, [pc], -r9, asr #30
 70c:	5f434e55 	svcpl	0x00434e55
 710:	33544c41 	cmpcc	r4, #16640	; 0x4100
 714:	49504700 	ldmdbmi	r0, {r8, r9, sl, lr}^
 718:	55465f4f 	strbpl	r5, [r6, #-3919]	; 0xfffff0b1
 71c:	415f434e 	cmpmi	pc, lr, asr #6
 720:	0035544c 	eorseq	r5, r5, ip, asr #8
 724:	6d6f682f 	stclvs	8, cr6, [pc, #-188]!	; 670 <__code_start__-0x7990>
 728:	6e652f65 	cdpvs	15, 6, cr2, cr5, cr5, {3}
 72c:	72656c67 	rsbvc	r6, r5, #26368	; 0x6700
 730:	616c632f 	cmnvs	ip, pc, lsr #6
 734:	632f7373 			; <UNDEFINED> instruction: 0x632f7373
 738:	30343273 	eorscc	r3, r4, r3, ror r2
 73c:	322d786c 	eorcc	r7, sp, #108, 16	; 0x6c0000
 740:	72707332 	rsbsvc	r7, r0, #-939524096	; 0xc8000000
 744:	62696c2f 	rsbvs	r6, r9, #12032	; 0x2f00
 748:	732f6970 			; <UNDEFINED> instruction: 0x732f6970
 74c:	66666174 			; <UNDEFINED> instruction: 0x66666174
 750:	6972702d 	ldmdbvs	r2!, {r0, r2, r3, r5, ip, sp, lr}^
 754:	65746176 	ldrbvs	r6, [r4, #-374]!	; 0xfffffe8a
 758:	75616200 	strbvc	r6, [r1, #-512]!	; 0xfffffe00
 75c:	75610064 	strbvc	r0, [r1, #-100]!	; 0xffffff9c
 760:	6e655f78 	mcrvs	15, 3, r5, cr5, cr8, {3}
 764:	656c6261 	strbvs	r6, [ip, #-609]!	; 0xfffffd9f
 768:	61750073 	cmnvs	r5, r3, ror r0
 76c:	675f7472 			; <UNDEFINED> instruction: 0x675f7472
 770:	00637465 	rsbeq	r7, r3, r5, ror #8
 774:	20554e47 	subscs	r4, r5, r7, asr #28
 778:	20393943 	eorscs	r3, r9, r3, asr #18
 77c:	332e3031 			; <UNDEFINED> instruction: 0x332e3031
 780:	3220312e 	eorcc	r3, r0, #-2147483637	; 0x8000000b
 784:	30313230 	eorscc	r3, r1, r0, lsr r2
 788:	20343238 	eorscs	r3, r4, r8, lsr r2
 78c:	6c657228 	sfmvs	f7, 2, [r5], #-160	; 0xffffff60
 790:	65736165 	ldrbvs	r6, [r3, #-357]!	; 0xfffffe9b
 794:	6d2d2029 	stcvs	0, cr2, [sp, #-164]!	; 0xffffff5c
 798:	3d757063 	ldclcc	0, cr7, [r5, #-396]!	; 0xfffffe74
 79c:	316d7261 	cmncc	sp, r1, ror #4
 7a0:	6a363731 	bvs	d8e46c <__bss_end__+0xd8474c>
 7a4:	732d667a 			; <UNDEFINED> instruction: 0x732d667a
 7a8:	746d2d20 	strbtvc	r2, [sp], #-3360	; 0xfffff2e0
 7ac:	3d656e75 	stclcc	14, cr6, [r5, #-468]!	; 0xfffffe2c
 7b0:	316d7261 	cmncc	sp, r1, ror #4
 7b4:	6a363731 	bvs	d8e480 <__bss_end__+0xd84760>
 7b8:	732d667a 			; <UNDEFINED> instruction: 0x732d667a
 7bc:	666d2d20 	strbtvs	r2, [sp], -r0, lsr #26
 7c0:	74616f6c 	strbtvc	r6, [r1], #-3948	; 0xfffff094
 7c4:	6962612d 	stmdbvs	r2!, {r0, r2, r3, r5, r8, sp, lr}^
 7c8:	666f733d 			; <UNDEFINED> instruction: 0x666f733d
 7cc:	6d2d2074 	stcvs	0, cr2, [sp, #-464]!	; 0xfffffe30
 7d0:	206d7261 	rsbcs	r7, sp, r1, ror #4
 7d4:	72616d2d 	rsbvc	r6, r1, #2880	; 0xb40
 7d8:	613d6863 	teqvs	sp, r3, ror #16
 7dc:	36766d72 			; <UNDEFINED> instruction: 0x36766d72
 7e0:	2d207a6b 	vstmdbcs	r0!, {s14-s120}
 7e4:	62646767 	rsbvs	r6, r4, #27000832	; 0x19c0000
 7e8:	674f2d20 	strbvs	r2, [pc, -r0, lsr #26]
 7ec:	74732d20 	ldrbtvc	r2, [r3], #-3360	; 0xfffff2e0
 7f0:	6e673d64 	cdpvs	13, 6, cr3, cr7, cr4, {3}
 7f4:	20393975 	eorscs	r3, r9, r5, ror r9
 7f8:	7266662d 	rsbvc	r6, r6, #47185920	; 0x2d00000
 7fc:	74736565 	ldrbtvc	r6, [r3], #-1381	; 0xfffffa9b
 800:	69646e61 	stmdbvs	r4!, {r0, r5, r6, r9, sl, fp, sp, lr}^
 804:	6300676e 	movwvs	r6, #1902	; 0x76e
 808:	006c746e 	rsbeq	r7, ip, lr, ror #8
 80c:	74726175 	ldrbtvc	r6, [r2], #-373	; 0xfffffe8b
 810:	7369645f 	cmnvc	r9, #1593835520	; 0x5f000000
 814:	656c6261 	strbvs	r6, [ip, #-609]!	; 0xfffffd9f
 818:	72617500 	rsbvc	r7, r1, #0, 10
 81c:	61685f74 	smcvs	34292	; 0x85f4
 820:	61645f73 	smcvs	17907	; 0x45f3
 824:	47006174 	smlsdxmi	r0, r4, r1, r6
 828:	5f4f4950 	svcpl	0x004f4950
 82c:	434e5546 	movtmi	r5, #58694	; 0xe546
 830:	544c415f 	strbpl	r4, [ip], #-351	; 0xfffffea1
 834:	726f0034 	rsbvc	r0, pc, #52, 0	; 0x34
 838:	336e695f 	cmncc	lr, #1556480	; 0x17c000
 83c:	63730032 	cmnvs	r3, #50, 0	; 0x32
 840:	63746172 	cmnvs	r4, #-2147483620	; 0x8000001c
 844:	61750068 	cmnvs	r5, r8, rrx
 848:	61007472 	tstvs	r0, r2, ror r4
 84c:	695f646e 	ldmdbvs	pc, {r1, r2, r3, r5, r6, sl, sp, lr}^	; <UNPREDICTABLE>
 850:	0032336e 	eorseq	r3, r2, lr, ror #6
 854:	4f495047 	svcmi	0x00495047
 858:	4e55465f 	mrcmi	6, 2, r4, cr5, cr15, {2}
 85c:	4e495f43 	cdpmi	15, 4, cr5, cr9, cr3, {2}
 860:	00545550 	subseq	r5, r4, r0, asr r5
 864:	6f697067 	svcvs	0x00697067
 868:	7465735f 	strbtvc	r7, [r5], #-863	; 0xfffffca1
 86c:	6e75665f 	mrcvs	6, 3, r6, cr5, cr15, {2}
 870:	6f697463 	svcvs	0x00697463
 874:	6567006e 	strbvs	r0, [r7, #-110]!	; 0xffffff92
 878:	00323374 	eorseq	r3, r2, r4, ror r3
 87c:	6c616d6b 	stclvs	13, cr6, [r1], #-428	; 0xfffffe54
 880:	5f636f6c 	svcpl	0x00636f6c
 884:	70616568 	rsbvc	r6, r1, r8, ror #10
 888:	6174735f 	cmnvs	r4, pc, asr r3
 88c:	6d007472 	cfstrsvs	mvf7, [r0, #-456]	; 0xfffffe38
 890:	6e5f7861 	cdpvs	8, 5, cr7, cr15, cr1, {3}
 894:	65747962 	ldrbvs	r7, [r4, #-2402]!	; 0xfffff69e
 898:	615f0073 	cmpvs	pc, r3, ror r0	; <UNPREDICTABLE>
 89c:	00726464 	rsbseq	r6, r2, r4, ror #8
 8a0:	6572666b 	ldrbvs	r6, [r2, #-1643]!	; 0xfffff995
 8a4:	65680065 	strbvs	r0, [r8, #-101]!	; 0xffffff9b
 8a8:	6d5f7061 	ldclvs	0, cr7, [pc, #-388]	; 72c <__code_start__-0x78d4>
 8ac:	6b007861 	blvs	1ea38 <__bss_end__+0x14d18>
 8b0:	65657266 	strbvs	r7, [r5, #-614]!	; 0xfffffd9a
 8b4:	6c6c615f 	stfvse	f6, [ip], #-380	; 0xfffffe84
 8b8:	756f7200 	strbvc	r7, [pc, #-512]!	; 6c0 <__code_start__-0x7940>
 8bc:	7075646e 	rsbsvc	r6, r5, lr, ror #8
 8c0:	61656800 	cmnvs	r5, r0, lsl #16
 8c4:	6e690070 	mcrvs	0, 3, r0, cr9, cr0, {3}
 8c8:	705f7469 	subsvc	r7, pc, r9, ror #8
 8cc:	72666b00 	rsbvc	r6, r6, #0, 22
 8d0:	705f6565 	subsvc	r6, pc, r5, ror #10
 8d4:	6d00706f 	stcvs	0, cr7, [r0, #-444]	; 0xfffffe44
 8d8:	65736d65 	ldrbvs	r6, [r3, #-3429]!	; 0xfffff29b
 8dc:	6c610074 	stclvs	0, cr0, [r1], #-464	; 0xfffffe30
 8e0:	6d6e6769 	stclvs	7, cr6, [lr, #-420]!	; 0xfffffe5c
 8e4:	00746e65 	rsbseq	r6, r4, r5, ror #28
 8e8:	5f78616d 	svcpl	0x0078616d
 8ec:	00323375 	eorseq	r3, r2, r5, ror r3
 8f0:	4d656e4f 	stclmi	14, cr6, [r5, #-316]!	; 0xfffffec4
 8f4:	6d6b0042 	stclvs	0, cr0, [fp, #-264]!	; 0xfffffef8
 8f8:	6f6c6c61 	svcvs	0x006c6c61
 8fc:	65685f63 	strbvs	r5, [r8, #-3939]!	; 0xfffff09d
 900:	655f7061 	ldrbvs	r7, [pc, #-97]	; 8a7 <__code_start__-0x7759>
 904:	6b00646e 	blvs	19ac4 <__bss_end__+0xfda4>
 908:	6c6c616d 	stfvse	f6, [ip], #-436	; 0xfffffe4c
 90c:	6e5f636f 	cdpvs	3, 5, cr6, cr15, cr15, {3}
 910:	657a746f 	ldrbvs	r7, [sl, #-1135]!	; 0xfffffb91
 914:	69006f72 	stmdbvs	r0, {r1, r4, r5, r6, r8, r9, sl, fp, sp, lr}
 918:	6f705f73 	svcvs	0x00705f73
 91c:	6b003277 	blvs	d300 <__bss_end__+0x35e0>
 920:	6c6c616d 	stfvse	f6, [ip], #-436	; 0xfffffe4c
 924:	632e636f 			; <UNDEFINED> instruction: 0x632e636f
 928:	616d6b00 	cmnvs	sp, r0, lsl #22
 92c:	636f6c6c 	cmnvs	pc, #108, 24	; 0x6c00
 930:	696e695f 	stmdbvs	lr!, {r0, r1, r2, r3, r4, r6, r8, fp, sp, lr}^
 934:	73690074 	cmnvc	r9, #116, 0	; 0x74
 938:	696c615f 	stmdbvs	ip!, {r0, r1, r2, r3, r4, r6, r8, sp, lr}^
 93c:	64656e67 	strbtvs	r6, [r5], #-3687	; 0xfffff199
 940:	616d6b00 	cmnvs	sp, r0, lsl #22
 944:	636f6c6c 	cmnvs	pc, #108, 24	; 0x6c00
 948:	6165685f 	cmnvs	r5, pc, asr r8
 94c:	74705f70 	ldrbtvc	r5, [r0], #-3952	; 0xfffff090
 950:	6d6b0072 	stclvs	0, cr0, [fp, #-456]!	; 0xfffffe38
 954:	6f6c6c61 	svcvs	0x006c6c61
 958:	6e695f63 	cdpvs	15, 6, cr5, cr9, cr3, {3}
 95c:	735f7469 	cmpvc	pc, #1761607680	; 0x69000000
 960:	735f7465 	cmpvc	pc, #1694498816	; 0x65000000
 964:	74726174 	ldrbtvc	r6, [r2], #-372	; 0xfffffe8c
 968:	616d6b00 	cmnvs	sp, r0, lsl #22
 96c:	636f6c6c 	cmnvs	pc, #108, 24	; 0x6c00
 970:	696c615f 	stmdbvs	ip!, {r0, r1, r2, r3, r4, r6, r8, sp, lr}^
 974:	64656e67 	strbtvs	r6, [r5], #-3687	; 0xfffff199
 978:	7a697300 	bvc	1a5d580 <__bss_end__+0x1a53860>
 97c:	00745f65 	rsbseq	r5, r4, r5, ror #30
 980:	696c2f2e 	stmdbvs	ip!, {r1, r2, r3, r5, r8, r9, sl, fp, sp}^
 984:	6d2f6362 	stcvs	3, cr6, [pc, #-392]!	; 804 <__code_start__-0x77fc>
 988:	65736d65 	ldrbvs	r6, [r3, #-3429]!	; 0xfffff29b
 98c:	00632e74 	rsbeq	r2, r3, r4, ror lr
 990:	74736564 	ldrbtvc	r6, [r3], #-1380	; 0xfffffa9c
 994:	6c2f2e00 	stcvs	14, cr2, [pc], #-0	; 99c <__code_start__-0x7664>
 998:	2f636269 	svccs	0x00636269
 99c:	63727473 	cmnvs	r2, #1929379840	; 0x73000000
 9a0:	632e7461 			; <UNDEFINED> instruction: 0x632e7461
 9a4:	6c2f2e00 	stcvs	14, cr2, [pc], #-0	; 9ac <__code_start__-0x7654>
 9a8:	2f636269 	svccs	0x00636269
 9ac:	63727473 	cmnvs	r2, #1929379840	; 0x73000000
 9b0:	632e706d 			; <UNDEFINED> instruction: 0x632e706d
 9b4:	6c2f2e00 	stcvs	14, cr2, [pc], #-0	; 9bc <__code_start__-0x7644>
 9b8:	2f636269 	svccs	0x00636269
 9bc:	63727473 	cmnvs	r2, #1929379840	; 0x73000000
 9c0:	632e7970 			; <UNDEFINED> instruction: 0x632e7970
 9c4:	6c2f2e00 	stcvs	14, cr2, [pc], #-0	; 9cc <__code_start__-0x7634>
 9c8:	2f636269 	svccs	0x00636269
 9cc:	6e727473 	mrcvs	4, 3, r7, cr2, cr3, {3}
 9d0:	2e706d63 	cdpcs	13, 7, cr6, cr0, cr3, {3}
 9d4:	2f2e0063 	svccs	0x002e0063
 9d8:	66617473 			; <UNDEFINED> instruction: 0x66617473
 9dc:	72732d66 	rsbsvc	r2, r3, #6528	; 0x1980
 9e0:	65642f63 	strbvs	r2, [r4, #-3939]!	; 0xfffff09d
 9e4:	6c756166 	ldfvse	f6, [r5], #-408	; 0xfffffe68
 9e8:	65722d74 	ldrbvs	r2, [r2, #-3444]!	; 0xfffff28c
 9ec:	746f6f62 	strbtvc	r6, [pc], #-3938	; 9f4 <__code_start__-0x760c>
 9f0:	6c61632d 	stclvs	3, cr6, [r1], #-180	; 0xffffff4c
 9f4:	74756f6c 	ldrbtvc	r6, [r5], #-3948	; 0xfffff094
 9f8:	6700632e 	strvs	r6, [r0, -lr, lsr #6]
 9fc:	5f6f6970 	svcpl	0x006f6970
 a00:	30726c63 	rsbscc	r6, r2, r3, ror #24
 a04:	69706700 	ldmdbvs	r0!, {r8, r9, sl, sp, lr}^
 a08:	65735f6f 	ldrbvs	r5, [r3, #-3951]!	; 0xfffff091
 a0c:	67003074 	smlsdxvs	r0, r4, r0, r3
 a10:	5f6f6970 	svcpl	0x006f6970
 a14:	74697277 	strbtvc	r7, [r9], #-631	; 0xfffffd89
 a18:	45440065 	strbmi	r0, [r4, #-101]	; 0xffffff9b
 a1c:	41565f56 	cmpmi	r6, r6, asr pc
 a20:	0032334c 	eorseq	r3, r2, ip, asr #6
 a24:	6f697067 	svcvs	0x00697067
 a28:	6165725f 	cmnvs	r5, pc, asr r2
 a2c:	70670064 	rsbvc	r0, r7, r4, rrx
 a30:	735f6f69 	cmpvc	pc, #420	; 0x1a4
 a34:	695f7465 	ldmdbvs	pc, {r0, r2, r5, r6, sl, ip, sp, lr}^	; <UNPREDICTABLE>
 a38:	7475706e 	ldrbtvc	r7, [r5], #-110	; 0xffffff92
 a3c:	69706700 	ldmdbvs	r0!, {r8, r9, sl, sp, lr}^
 a40:	65735f6f 	ldrbvs	r5, [r3, #-3951]!	; 0xfffff091
 a44:	666f5f74 	uqsub16vs	r5, pc, r4	; <UNPREDICTABLE>
 a48:	70670066 	rsbvc	r0, r7, r6, rrx
 a4c:	735f6f69 	cmpvc	pc, #420	; 0x1a4
 a50:	6f5f7465 	svcvs	0x005f7465
 a54:	75707475 	ldrbvc	r7, [r0, #-1141]!	; 0xfffffb8b
 a58:	75660074 	strbvc	r0, [r6, #-116]!	; 0xffffff8c
 a5c:	6700636e 	strvs	r6, [r0, -lr, ror #6]
 a60:	5f6f6970 	svcpl	0x006f6970
 a64:	636e7566 	cmnvs	lr, #427819008	; 0x19800000
 a68:	6700745f 	smlsdvs	r0, pc, r4, r7	; <UNPREDICTABLE>
 a6c:	5f6f6970 	svcpl	0x006f6970
 a70:	3076656c 	rsbscc	r6, r6, ip, ror #10
 a74:	6e616200 	cdpvs	2, 6, cr6, cr1, cr0, {0}
 a78:	7067006b 	rsbvc	r0, r7, fp, rrx
 a7c:	632e6f69 			; <UNDEFINED> instruction: 0x632e6f69
 a80:	69706700 	ldmdbvs	r0!, {r8, r9, sl, sp, lr}^
 a84:	65735f6f 	ldrbvs	r5, [r3, #-3951]!	; 0xfffff091
 a88:	6e6f5f74 	mcrvs	15, 3, r5, cr15, cr4, {3}
	...

Disassembly of section .debug_frame:

00000000 <.debug_frame>:
   0:	0000000c 	andeq	r0, r0, ip
   4:	ffffffff 			; <UNDEFINED> instruction: 0xffffffff
   8:	7c020001 	stcvc	0, cr0, [r2], {1}
   c:	000d0c0e 	andeq	r0, sp, lr, lsl #24
  10:	00000020 	andeq	r0, r0, r0, lsr #32
  14:	00000000 	andeq	r0, r0, r0
  18:	00008038 	andeq	r8, r0, r8, lsr r0
  1c:	00000114 	andeq	r0, r0, r4, lsl r1
  20:	84140e42 	ldrhi	r0, [r4], #-3650	; 0xfffff1be
  24:	86048505 	strhi	r8, [r4], -r5, lsl #10
  28:	8e028703 	cdphi	7, 0, cr8, cr2, cr3, {0}
  2c:	280e4201 	stmdacs	lr, {r0, r9, lr}
  30:	140e7a02 	strne	r7, [lr], #-2562	; 0xfffff5fe
  34:	0000001c 	andeq	r0, r0, ip, lsl r0
  38:	00000000 	andeq	r0, r0, r0
  3c:	0000814c 	andeq	r8, r0, ip, asr #2
  40:	0000008c 	andeq	r0, r0, ip, lsl #1
  44:	840c0e42 	strhi	r0, [ip], #-3650	; 0xfffff1be
  48:	8e028503 	cfsh32hi	mvfx8, mvfx2, #3
  4c:	180e4201 	stmdane	lr, {r0, r9, lr}
  50:	000c0e74 	andeq	r0, ip, r4, ror lr
  54:	0000000c 	andeq	r0, r0, ip
  58:	ffffffff 			; <UNDEFINED> instruction: 0xffffffff
  5c:	7c020001 	stcvc	0, cr0, [r2], {1}
  60:	000d0c0e 	andeq	r0, sp, lr, lsl #24
  64:	00000014 	andeq	r0, r0, r4, lsl r0
  68:	00000054 	andeq	r0, r0, r4, asr r0
  6c:	000081d8 	ldrdeq	r8, [r0], -r8	; <UNPREDICTABLE>
  70:	000000bc 	strheq	r0, [r0], -ip
  74:	8e040e42 	cdphi	14, 0, cr0, cr4, cr2, {2}
  78:	00000001 	andeq	r0, r0, r1
  7c:	00000014 	andeq	r0, r0, r4, lsl r0
  80:	00000054 	andeq	r0, r0, r4, asr r0
  84:	00008294 	muleq	r0, r4, r2
  88:	00000044 	andeq	r0, r0, r4, asr #32
  8c:	84080e42 	strhi	r0, [r8], #-3650	; 0xfffff1be
  90:	00018e02 	andeq	r8, r1, r2, lsl #28
  94:	00000014 	andeq	r0, r0, r4, lsl r0
  98:	00000054 	andeq	r0, r0, r4, asr r0
  9c:	000082d8 	ldrdeq	r8, [r0], -r8	; <UNPREDICTABLE>
  a0:	000000ac 	andeq	r0, r0, ip, lsr #1
  a4:	84080e42 	strhi	r0, [r8], #-3650	; 0xfffff1be
  a8:	00018e02 	andeq	r8, r1, r2, lsl #28
  ac:	0000000c 	andeq	r0, r0, ip
  b0:	ffffffff 			; <UNDEFINED> instruction: 0xffffffff
  b4:	7c020001 	stcvc	0, cr0, [r2], {1}
  b8:	000d0c0e 	andeq	r0, sp, lr, lsl #24
  bc:	00000014 	andeq	r0, r0, r4, lsl r0
  c0:	000000ac 	andeq	r0, r0, ip, lsr #1
  c4:	00008384 	andeq	r8, r0, r4, lsl #7
  c8:	0000000c 	andeq	r0, r0, ip
  cc:	84080e42 	strhi	r0, [r8], #-3650	; 0xfffff1be
  d0:	00018e02 	andeq	r8, r1, r2, lsl #28
  d4:	0000000c 	andeq	r0, r0, ip
  d8:	ffffffff 			; <UNDEFINED> instruction: 0xffffffff
  dc:	7c020001 	stcvc	0, cr0, [r2], {1}
  e0:	000d0c0e 	andeq	r0, sp, lr, lsl #24
  e4:	00000034 	andeq	r0, r0, r4, lsr r0
  e8:	000000d4 	ldrdeq	r0, [r0], -r4
  ec:	00008390 	muleq	r0, r0, r3
  f0:	00000058 	andeq	r0, r0, r8, asr r0
  f4:	80100e42 	andshi	r0, r0, r2, asr #28
  f8:	82038104 	andhi	r8, r3, #1
  fc:	42018302 	andmi	r8, r1, #134217728	; 0x8000000
 100:	07841c0e 	streq	r1, [r4, lr, lsl #24]
 104:	058e0685 	streq	r0, [lr, #1669]	; 0x685
 108:	5c280e42 	stcpl	14, cr0, [r8], #-264	; 0xfffffef8
 10c:	ce421c0e 	cdpgt	12, 4, cr1, cr2, cr14, {0}
 110:	100ec4c5 	andne	ip, lr, r5, asr #9
 114:	c1c2c342 	bicgt	ip, r2, r2, asr #6
 118:	00000ec0 	andeq	r0, r0, r0, asr #29
 11c:	0000000c 	andeq	r0, r0, ip
 120:	ffffffff 			; <UNDEFINED> instruction: 0xffffffff
 124:	7c020001 	stcvc	0, cr0, [r2], {1}
 128:	000d0c0e 	andeq	r0, sp, lr, lsl #24
 12c:	00000014 	andeq	r0, r0, r4, lsl r0
 130:	0000011c 	andeq	r0, r0, ip, lsl r1
 134:	000083e8 	andeq	r8, r0, r8, ror #7
 138:	00000014 	andeq	r0, r0, r4, lsl r0
 13c:	84080e42 	strhi	r0, [r8], #-3650	; 0xfffff1be
 140:	00018e02 	andeq	r8, r1, r2, lsl #28
 144:	0000000c 	andeq	r0, r0, ip
 148:	0000011c 	andeq	r0, r0, ip, lsl r1
 14c:	000083fc 	strdeq	r8, [r0], -ip
 150:	00000018 	andeq	r0, r0, r8, lsl r0
 154:	0000000c 	andeq	r0, r0, ip
 158:	0000011c 	andeq	r0, r0, ip, lsl r1
 15c:	00008414 	andeq	r8, r0, r4, lsl r4
 160:	00000010 	andeq	r0, r0, r0, lsl r0
 164:	0000000c 	andeq	r0, r0, ip
 168:	ffffffff 			; <UNDEFINED> instruction: 0xffffffff
 16c:	7c020001 	stcvc	0, cr0, [r2], {1}
 170:	000d0c0e 	andeq	r0, sp, lr, lsl #24
 174:	00000014 	andeq	r0, r0, r4, lsl r0
 178:	00000164 	andeq	r0, r0, r4, ror #2
 17c:	00008424 	andeq	r8, r0, r4, lsr #8
 180:	00000034 	andeq	r0, r0, r4, lsr r0
 184:	84080e42 	strhi	r0, [r8], #-3650	; 0xfffff1be
 188:	00018e02 	andeq	r8, r1, r2, lsl #28
 18c:	0000000c 	andeq	r0, r0, ip
 190:	ffffffff 			; <UNDEFINED> instruction: 0xffffffff
 194:	7c020001 	stcvc	0, cr0, [r2], {1}
 198:	000d0c0e 	andeq	r0, sp, lr, lsl #24
 19c:	0000000c 	andeq	r0, r0, ip
 1a0:	0000018c 	andeq	r0, r0, ip, lsl #3
 1a4:	00008458 	andeq	r8, r0, r8, asr r4
 1a8:	00000014 	andeq	r0, r0, r4, lsl r0
 1ac:	0000000c 	andeq	r0, r0, ip
 1b0:	0000018c 	andeq	r0, r0, ip, lsl #3
 1b4:	0000846c 	andeq	r8, r0, ip, ror #8
 1b8:	00000024 	andeq	r0, r0, r4, lsr #32
 1bc:	0000000c 	andeq	r0, r0, ip
 1c0:	0000018c 	andeq	r0, r0, ip, lsl #3
 1c4:	00008490 	muleq	r0, r0, r4
 1c8:	00000038 	andeq	r0, r0, r8, lsr r0
 1cc:	00000024 	andeq	r0, r0, r4, lsr #32
 1d0:	0000018c 	andeq	r0, r0, ip, lsl #3
 1d4:	000084c8 	andeq	r8, r0, r8, asr #9
 1d8:	000001b4 			; <UNDEFINED> instruction: 0x000001b4
 1dc:	84140e42 	ldrhi	r0, [r4], #-3650	; 0xfffff1be
 1e0:	86048505 	strhi	r8, [r4], -r5, lsl #10
 1e4:	8e028703 	cdphi	7, 0, cr8, cr2, cr3, {0}
 1e8:	600e4201 	andvs	r4, lr, r1, lsl #4
 1ec:	0e0a9a02 	vmlaeq.f32	s18, s20, s4
 1f0:	000b4214 	andeq	r4, fp, r4, lsl r2
 1f4:	00000014 	andeq	r0, r0, r4, lsl r0
 1f8:	0000018c 	andeq	r0, r0, ip, lsl #3
 1fc:	0000867c 	andeq	r8, r0, ip, ror r6
 200:	00000064 	andeq	r0, r0, r4, rrx
 204:	8e040e54 	mcrhi	14, 0, r0, cr4, cr4, {2}
 208:	100e4201 	andne	r4, lr, r1, lsl #4
 20c:	0000002c 	andeq	r0, r0, ip, lsr #32
 210:	0000018c 	andeq	r0, r0, ip, lsl #3
 214:	000086e0 	andeq	r8, r0, r0, ror #13
 218:	000004b8 			; <UNDEFINED> instruction: 0x000004b8
 21c:	84240e42 	strthi	r0, [r4], #-3650	; 0xfffff1be
 220:	86088509 	strhi	r8, [r8], -r9, lsl #10
 224:	88068707 	stmdahi	r6, {r0, r1, r2, r8, r9, sl, pc}
 228:	8a048905 	bhi	122644 <__bss_end__+0x118924>
 22c:	8e028b03 	vmlahi.f64	d8, d2, d3
 230:	b80e4201 	stmdalt	lr, {r0, r9, lr}
 234:	02380302 	eorseq	r0, r8, #134217728	; 0x8000000
 238:	0000240e 	andeq	r2, r0, lr, lsl #8
 23c:	0000000c 	andeq	r0, r0, ip
 240:	ffffffff 			; <UNDEFINED> instruction: 0xffffffff
 244:	7c020001 	stcvc	0, cr0, [r2], {1}
 248:	000d0c0e 	andeq	r0, sp, lr, lsl #24
 24c:	00000014 	andeq	r0, r0, r4, lsl r0
 250:	0000023c 	andeq	r0, r0, ip, lsr r2
 254:	00008b98 	muleq	r0, r8, fp
 258:	0000002c 	andeq	r0, r0, ip, lsr #32
 25c:	84080e42 	strhi	r0, [r8], #-3650	; 0xfffff1be
 260:	00018e02 	andeq	r8, r1, r2, lsl #28
 264:	0000000c 	andeq	r0, r0, ip
 268:	ffffffff 			; <UNDEFINED> instruction: 0xffffffff
 26c:	7c020001 	stcvc	0, cr0, [r2], {1}
 270:	000d0c0e 	andeq	r0, sp, lr, lsl #24
 274:	00000014 	andeq	r0, r0, r4, lsl r0
 278:	00000264 	andeq	r0, r0, r4, ror #4
 27c:	00008bc4 	andeq	r8, r0, r4, asr #23
 280:	0000003c 	andeq	r0, r0, ip, lsr r0
 284:	84080e42 	strhi	r0, [r8], #-3650	; 0xfffff1be
 288:	00018e02 	andeq	r8, r1, r2, lsl #28
 28c:	0000000c 	andeq	r0, r0, ip
 290:	ffffffff 			; <UNDEFINED> instruction: 0xffffffff
 294:	7c020001 	stcvc	0, cr0, [r2], {1}
 298:	000d0c0e 	andeq	r0, sp, lr, lsl #24
 29c:	0000000c 	andeq	r0, r0, ip
 2a0:	0000028c 	andeq	r0, r0, ip, lsl #5
 2a4:	00008c00 	andeq	r8, r0, r0, lsl #24
 2a8:	00000004 	andeq	r0, r0, r4
 2ac:	0000000c 	andeq	r0, r0, ip
 2b0:	ffffffff 			; <UNDEFINED> instruction: 0xffffffff
 2b4:	7c020001 	stcvc	0, cr0, [r2], {1}
 2b8:	000d0c0e 	andeq	r0, sp, lr, lsl #24
 2bc:	0000000c 	andeq	r0, r0, ip
 2c0:	000002ac 	andeq	r0, r0, ip, lsr #5
 2c4:	00008c04 	andeq	r8, r0, r4, lsl #24
 2c8:	00000018 	andeq	r0, r0, r8, lsl r0
 2cc:	0000000c 	andeq	r0, r0, ip
 2d0:	000002ac 	andeq	r0, r0, ip, lsr #5
 2d4:	00008c1c 	andeq	r8, r0, ip, lsl ip
 2d8:	00000014 	andeq	r0, r0, r4, lsl r0
 2dc:	00000014 	andeq	r0, r0, r4, lsl r0
 2e0:	000002ac 	andeq	r0, r0, ip, lsr #5
 2e4:	00008c30 	andeq	r8, r0, r0, lsr ip
 2e8:	00000054 	andeq	r0, r0, r4, asr r0
 2ec:	84080e42 	strhi	r0, [r8], #-3650	; 0xfffff1be
 2f0:	00018e02 	andeq	r8, r1, r2, lsl #28
 2f4:	0000000c 	andeq	r0, r0, ip
 2f8:	ffffffff 			; <UNDEFINED> instruction: 0xffffffff
 2fc:	7c020001 	stcvc	0, cr0, [r2], {1}
 300:	000d0c0e 	andeq	r0, sp, lr, lsl #24
 304:	00000014 	andeq	r0, r0, r4, lsl r0
 308:	000002f4 	strdeq	r0, [r0], -r4
 30c:	00008c84 	andeq	r8, r0, r4, lsl #25
 310:	00000014 	andeq	r0, r0, r4, lsl r0
 314:	84080e42 	strhi	r0, [r8], #-3650	; 0xfffff1be
 318:	00018e02 	andeq	r8, r1, r2, lsl #28
 31c:	00000014 	andeq	r0, r0, r4, lsl r0
 320:	000002f4 	strdeq	r0, [r0], -r4
 324:	00008c98 	muleq	r0, r8, ip
 328:	0000001c 	andeq	r0, r0, ip, lsl r0
 32c:	84080e42 	strhi	r0, [r8], #-3650	; 0xfffff1be
 330:	00018e02 	andeq	r8, r1, r2, lsl #28
 334:	00000018 	andeq	r0, r0, r8, lsl r0
 338:	000002f4 	strdeq	r0, [r0], -r4
 33c:	00008cb4 			; <UNDEFINED> instruction: 0x00008cb4
 340:	00000024 	andeq	r0, r0, r4, lsr #32
 344:	84100e42 	ldrhi	r0, [r0], #-3650	; 0xfffff1be
 348:	86038504 	strhi	r8, [r3], -r4, lsl #10
 34c:	00018e02 	andeq	r8, r1, r2, lsl #28
 350:	00000014 	andeq	r0, r0, r4, lsl r0
 354:	000002f4 	strdeq	r0, [r0], -r4
 358:	00008cd8 	ldrdeq	r8, [r0], -r8	; <UNPREDICTABLE>
 35c:	00000018 	andeq	r0, r0, r8, lsl r0
 360:	84080e42 	strhi	r0, [r8], #-3650	; 0xfffff1be
 364:	00018e02 	andeq	r8, r1, r2, lsl #28
 368:	00000014 	andeq	r0, r0, r4, lsl r0
 36c:	000002f4 	strdeq	r0, [r0], -r4
 370:	00008cf0 	strdeq	r8, [r0], -r0
 374:	00000018 	andeq	r0, r0, r8, lsl r0
 378:	84080e42 	strhi	r0, [r8], #-3650	; 0xfffff1be
 37c:	00018e02 	andeq	r8, r1, r2, lsl #28
 380:	0000000c 	andeq	r0, r0, ip
 384:	ffffffff 			; <UNDEFINED> instruction: 0xffffffff
 388:	7c020001 	stcvc	0, cr0, [r2], {1}
 38c:	000d0c0e 	andeq	r0, sp, lr, lsl #24
 390:	00000018 	andeq	r0, r0, r8, lsl r0
 394:	00000380 	andeq	r0, r0, r0, lsl #7
 398:	00008d08 	andeq	r8, r0, r8, lsl #26
 39c:	00000020 	andeq	r0, r0, r0, lsr #32
 3a0:	84100e42 	ldrhi	r0, [r0], #-3650	; 0xfffff1be
 3a4:	86038504 	strhi	r8, [r3], -r4, lsl #10
 3a8:	00018e02 	andeq	r8, r1, r2, lsl #28
 3ac:	00000018 	andeq	r0, r0, r8, lsl r0
 3b0:	00000380 	andeq	r0, r0, r0, lsl #7
 3b4:	00008d28 	andeq	r8, r0, r8, lsr #26
 3b8:	00000020 	andeq	r0, r0, r0, lsr #32
 3bc:	84100e42 	ldrhi	r0, [r0], #-3650	; 0xfffff1be
 3c0:	86038504 	strhi	r8, [r3], -r4, lsl #10
 3c4:	00018e02 	andeq	r8, r1, r2, lsl #28
 3c8:	00000014 	andeq	r0, r0, r4, lsl r0
 3cc:	00000380 	andeq	r0, r0, r0, lsl #7
 3d0:	00008d48 	andeq	r8, r0, r8, asr #26
 3d4:	000000b0 	strheq	r0, [r0], -r0	; <UNPREDICTABLE>
 3d8:	84080e42 	strhi	r0, [r8], #-3650	; 0xfffff1be
 3dc:	00018e02 	andeq	r8, r1, r2, lsl #28
 3e0:	00000014 	andeq	r0, r0, r4, lsl r0
 3e4:	00000380 	andeq	r0, r0, r0, lsl #7
 3e8:	00008df8 	strdeq	r8, [r0], -r8	; <UNPREDICTABLE>
 3ec:	00000018 	andeq	r0, r0, r8, lsl r0
 3f0:	84080e42 	strhi	r0, [r8], #-3650	; 0xfffff1be
 3f4:	00018e02 	andeq	r8, r1, r2, lsl #28
 3f8:	00000014 	andeq	r0, r0, r4, lsl r0
 3fc:	00000380 	andeq	r0, r0, r0, lsl #7
 400:	00008e10 	andeq	r8, r0, r0, lsl lr
 404:	00000020 	andeq	r0, r0, r0, lsr #32
 408:	84080e42 	strhi	r0, [r8], #-3650	; 0xfffff1be
 40c:	00018e02 	andeq	r8, r1, r2, lsl #28
 410:	00000014 	andeq	r0, r0, r4, lsl r0
 414:	00000380 	andeq	r0, r0, r0, lsl #7
 418:	00008e30 	andeq	r8, r0, r0, lsr lr
 41c:	00000030 	andeq	r0, r0, r0, lsr r0
 420:	84080e42 	strhi	r0, [r8], #-3650	; 0xfffff1be
 424:	00018e02 	andeq	r8, r1, r2, lsl #28
 428:	00000014 	andeq	r0, r0, r4, lsl r0
 42c:	00000380 	andeq	r0, r0, r0, lsl #7
 430:	00008e60 	andeq	r8, r0, r0, ror #28
 434:	00000030 	andeq	r0, r0, r0, lsr r0
 438:	84080e42 	strhi	r0, [r8], #-3650	; 0xfffff1be
 43c:	00018e02 	andeq	r8, r1, r2, lsl #28
 440:	00000014 	andeq	r0, r0, r4, lsl r0
 444:	00000380 	andeq	r0, r0, r0, lsl #7
 448:	00008e90 	muleq	r0, r0, lr
 44c:	00000010 	andeq	r0, r0, r0, lsl r0
 450:	84080e42 	strhi	r0, [r8], #-3650	; 0xfffff1be
 454:	00018e02 	andeq	r8, r1, r2, lsl #28
 458:	00000014 	andeq	r0, r0, r4, lsl r0
 45c:	00000380 	andeq	r0, r0, r0, lsl #7
 460:	00008ea0 	andeq	r8, r0, r0, lsr #29
 464:	00000020 	andeq	r0, r0, r0, lsr #32
 468:	84080e42 	strhi	r0, [r8], #-3650	; 0xfffff1be
 46c:	00018e02 	andeq	r8, r1, r2, lsl #28
 470:	00000014 	andeq	r0, r0, r4, lsl r0
 474:	00000380 	andeq	r0, r0, r0, lsl #7
 478:	00008ec0 	andeq	r8, r0, r0, asr #29
 47c:	00000014 	andeq	r0, r0, r4, lsl r0
 480:	84080e42 	strhi	r0, [r8], #-3650	; 0xfffff1be
 484:	00018e02 	andeq	r8, r1, r2, lsl #28
 488:	00000014 	andeq	r0, r0, r4, lsl r0
 48c:	00000380 	andeq	r0, r0, r0, lsl #7
 490:	00008ed4 	ldrdeq	r8, [r0], -r4
 494:	00000024 	andeq	r0, r0, r4, lsr #32
 498:	84080e42 	strhi	r0, [r8], #-3650	; 0xfffff1be
 49c:	00018e02 	andeq	r8, r1, r2, lsl #28
 4a0:	0000000c 	andeq	r0, r0, ip
 4a4:	ffffffff 			; <UNDEFINED> instruction: 0xffffffff
 4a8:	7c020001 	stcvc	0, cr0, [r2], {1}
 4ac:	000d0c0e 	andeq	r0, sp, lr, lsl #24
 4b0:	0000000c 	andeq	r0, r0, ip
 4b4:	000004a0 	andeq	r0, r0, r0, lsr #9
 4b8:	00008ef8 	strdeq	r8, [r0], -r8	; <UNPREDICTABLE>
 4bc:	00000010 	andeq	r0, r0, r0, lsl r0
 4c0:	0000000c 	andeq	r0, r0, ip
 4c4:	000004a0 	andeq	r0, r0, r0, lsr #9
 4c8:	00008f08 	andeq	r8, r0, r8, lsl #30
 4cc:	00000010 	andeq	r0, r0, r0, lsl r0
 4d0:	0000000c 	andeq	r0, r0, ip
 4d4:	000004a0 	andeq	r0, r0, r0, lsr #9
 4d8:	00008f18 	andeq	r8, r0, r8, lsl pc
 4dc:	00000010 	andeq	r0, r0, r0, lsl r0
 4e0:	0000001c 	andeq	r0, r0, ip, lsl r0
 4e4:	000004a0 	andeq	r0, r0, r0, lsr #9
 4e8:	00008f28 	andeq	r8, r0, r8, lsr #30
 4ec:	0000009c 	muleq	r0, ip, r0
 4f0:	8e040e42 	cdphi	14, 0, cr0, cr4, cr2, {2}
 4f4:	100e4201 	andne	r4, lr, r1, lsl #4
 4f8:	040e0a58 	streq	r0, [lr], #-2648	; 0xfffff5a8
 4fc:	00000b42 	andeq	r0, r0, r2, asr #22
 500:	00000014 	andeq	r0, r0, r4, lsl r0
 504:	000004a0 	andeq	r0, r0, r0, lsr #9
 508:	00008fc4 	andeq	r8, r0, r4, asr #31
 50c:	00000058 	andeq	r0, r0, r8, asr r0
 510:	84080e42 	strhi	r0, [r8], #-3650	; 0xfffff1be
 514:	00018e02 	andeq	r8, r1, r2, lsl #28
 518:	0000001c 	andeq	r0, r0, ip, lsl r0
 51c:	000004a0 	andeq	r0, r0, r0, lsr #9
 520:	0000901c 	andeq	r9, r0, ip, lsl r0
 524:	00000098 	muleq	r0, r8, r0
 528:	8e040e42 	cdphi	14, 0, cr0, cr4, cr2, {2}
 52c:	100e4201 	andne	r4, lr, r1, lsl #4
 530:	040e0a58 	streq	r0, [lr], #-2648	; 0xfffff5a8
 534:	00000b42 	andeq	r0, r0, r2, asr #22
 538:	00000020 	andeq	r0, r0, r0, lsr #32
 53c:	000004a0 	andeq	r0, r0, r0, lsr #9
 540:	000090b4 	strheq	r9, [r0], -r4
 544:	00000064 	andeq	r0, r0, r4, rrx
 548:	840c0e42 	strhi	r0, [ip], #-3650	; 0xfffff1be
 54c:	8e028503 	cfsh32hi	mvfx8, mvfx2, #3
 550:	180e4201 	stmdane	lr, {r0, r9, lr}
 554:	0c0e0a54 			; <UNDEFINED> instruction: 0x0c0e0a54
 558:	00000b42 	andeq	r0, r0, r2, asr #22
 55c:	0000001c 	andeq	r0, r0, ip, lsl r0
 560:	000004a0 	andeq	r0, r0, r0, lsr #9
 564:	00009118 	andeq	r9, r0, r8, lsl r1
 568:	00000118 	andeq	r0, r0, r8, lsl r1
 56c:	8e040e42 	cdphi	14, 0, cr0, cr4, cr2, {2}
 570:	100e4201 	andne	r4, lr, r1, lsl #4
 574:	040e0a6c 	streq	r0, [lr], #-2668	; 0xfffff594
 578:	00000b42 	andeq	r0, r0, r2, asr #22
 57c:	0000000c 	andeq	r0, r0, ip
 580:	000004a0 	andeq	r0, r0, r0, lsr #9
 584:	00009230 	andeq	r9, r0, r0, lsr r2
 588:	00000004 	andeq	r0, r0, r4
 58c:	0000000c 	andeq	r0, r0, ip
 590:	000004a0 	andeq	r0, r0, r0, lsr #9
 594:	00009234 	andeq	r9, r0, r4, lsr r2
 598:	00000014 	andeq	r0, r0, r4, lsl r0
 59c:	00000014 	andeq	r0, r0, r4, lsl r0
 5a0:	000004a0 	andeq	r0, r0, r0, lsr #9
 5a4:	00009248 	andeq	r9, r0, r8, asr #4
 5a8:	00000060 	andeq	r0, r0, r0, rrx
 5ac:	8e040e58 	mcrhi	14, 0, r0, cr4, cr8, {2}
 5b0:	100e4201 	andne	r4, lr, r1, lsl #4
 5b4:	0000000c 	andeq	r0, r0, ip
 5b8:	ffffffff 			; <UNDEFINED> instruction: 0xffffffff
 5bc:	7c020001 	stcvc	0, cr0, [r2], {1}
 5c0:	000d0c0e 	andeq	r0, sp, lr, lsl #24
 5c4:	0000000c 	andeq	r0, r0, ip
 5c8:	000005b4 			; <UNDEFINED> instruction: 0x000005b4
 5cc:	000092a8 	andeq	r9, r0, r8, lsr #5
 5d0:	00000018 	andeq	r0, r0, r8, lsl r0
 5d4:	0000000c 	andeq	r0, r0, ip
 5d8:	ffffffff 			; <UNDEFINED> instruction: 0xffffffff
 5dc:	7c020001 	stcvc	0, cr0, [r2], {1}
 5e0:	000d0c0e 	andeq	r0, sp, lr, lsl #24
 5e4:	0000000c 	andeq	r0, r0, ip
 5e8:	000005d4 	ldrdeq	r0, [r0], -r4
 5ec:	000092c0 	andeq	r9, r0, r0, asr #5
 5f0:	00000034 	andeq	r0, r0, r4, lsr r0
 5f4:	0000000c 	andeq	r0, r0, ip
 5f8:	ffffffff 			; <UNDEFINED> instruction: 0xffffffff
 5fc:	7c020001 	stcvc	0, cr0, [r2], {1}
 600:	000d0c0e 	andeq	r0, sp, lr, lsl #24
 604:	0000000c 	andeq	r0, r0, ip
 608:	000005f4 	strdeq	r0, [r0], -r4
 60c:	000092f4 	strdeq	r9, [r0], -r4
 610:	0000002c 	andeq	r0, r0, ip, lsr #32
 614:	0000000c 	andeq	r0, r0, ip
 618:	ffffffff 			; <UNDEFINED> instruction: 0xffffffff
 61c:	7c020001 	stcvc	0, cr0, [r2], {1}
 620:	000d0c0e 	andeq	r0, sp, lr, lsl #24
 624:	0000000c 	andeq	r0, r0, ip
 628:	00000614 	andeq	r0, r0, r4, lsl r6
 62c:	00009320 	andeq	r9, r0, r0, lsr #6
 630:	00000020 	andeq	r0, r0, r0, lsr #32
 634:	0000000c 	andeq	r0, r0, ip
 638:	ffffffff 			; <UNDEFINED> instruction: 0xffffffff
 63c:	7c020001 	stcvc	0, cr0, [r2], {1}
 640:	000d0c0e 	andeq	r0, sp, lr, lsl #24
 644:	0000000c 	andeq	r0, r0, ip
 648:	00000634 	andeq	r0, r0, r4, lsr r6
 64c:	00009340 	andeq	r9, r0, r0, asr #6
 650:	0000002c 	andeq	r0, r0, ip, lsr #32
 654:	0000000c 	andeq	r0, r0, ip
 658:	ffffffff 			; <UNDEFINED> instruction: 0xffffffff
 65c:	7c020001 	stcvc	0, cr0, [r2], {1}
 660:	000d0c0e 	andeq	r0, sp, lr, lsl #24
 664:	0000000c 	andeq	r0, r0, ip
 668:	00000654 	andeq	r0, r0, r4, asr r6
 66c:	0000936c 	andeq	r9, r0, ip, ror #6
 670:	00000004 	andeq	r0, r0, r4
 674:	0000000c 	andeq	r0, r0, ip
 678:	ffffffff 			; <UNDEFINED> instruction: 0xffffffff
 67c:	7c020001 	stcvc	0, cr0, [r2], {1}
 680:	000d0c0e 	andeq	r0, sp, lr, lsl #24
 684:	00000018 	andeq	r0, r0, r8, lsl r0
 688:	00000674 	andeq	r0, r0, r4, ror r6
 68c:	00009388 	andeq	r9, r0, r8, lsl #7
 690:	00000064 	andeq	r0, r0, r4, rrx
 694:	84100e46 	ldrhi	r0, [r0], #-3654	; 0xfffff1ba
 698:	86038504 	strhi	r8, [r3], -r4, lsl #10
 69c:	00018e02 	andeq	r8, r1, r2, lsl #28
 6a0:	00000014 	andeq	r0, r0, r4, lsl r0
 6a4:	00000674 	andeq	r0, r0, r4, ror r6
 6a8:	000093ec 	andeq	r9, r0, ip, ror #7
 6ac:	00000010 	andeq	r0, r0, r0, lsl r0
 6b0:	84080e42 	strhi	r0, [r8], #-3650	; 0xfffff1be
 6b4:	00018e02 	andeq	r8, r1, r2, lsl #28
 6b8:	00000014 	andeq	r0, r0, r4, lsl r0
 6bc:	00000674 	andeq	r0, r0, r4, ror r6
 6c0:	000093fc 	strdeq	r9, [r0], -ip
 6c4:	00000024 	andeq	r0, r0, r4, lsr #32
 6c8:	84080e46 	strhi	r0, [r8], #-3654	; 0xfffff1ba
 6cc:	00018e02 	andeq	r8, r1, r2, lsl #28
 6d0:	00000014 	andeq	r0, r0, r4, lsl r0
 6d4:	00000674 	andeq	r0, r0, r4, ror r6
 6d8:	00009420 	andeq	r9, r0, r0, lsr #8
 6dc:	00000024 	andeq	r0, r0, r4, lsr #32
 6e0:	84080e46 	strhi	r0, [r8], #-3654	; 0xfffff1ba
 6e4:	00018e02 	andeq	r8, r1, r2, lsl #28
 6e8:	00000014 	andeq	r0, r0, r4, lsl r0
 6ec:	00000674 	andeq	r0, r0, r4, ror r6
 6f0:	00009444 	andeq	r9, r0, r4, asr #8
 6f4:	00000010 	andeq	r0, r0, r0, lsl r0
 6f8:	84080e42 	strhi	r0, [r8], #-3650	; 0xfffff1be
 6fc:	00018e02 	andeq	r8, r1, r2, lsl #28
 700:	00000014 	andeq	r0, r0, r4, lsl r0
 704:	00000674 	andeq	r0, r0, r4, ror r6
 708:	00009454 	andeq	r9, r0, r4, asr r4
 70c:	0000001c 	andeq	r0, r0, ip, lsl r0
 710:	84080e42 	strhi	r0, [r8], #-3650	; 0xfffff1be
 714:	00018e02 	andeq	r8, r1, r2, lsl #28
 718:	00000018 	andeq	r0, r0, r8, lsl r0
 71c:	00000674 	andeq	r0, r0, r4, ror r6
 720:	00009470 	andeq	r9, r0, r0, ror r4
 724:	00000034 	andeq	r0, r0, r4, lsr r0
 728:	84080e46 	strhi	r0, [r8], #-3654	; 0xfffff1ba
 72c:	4e018e02 	cdpmi	14, 0, cr8, cr1, cr2, {0}
 730:	cec4000e 	cdpgt	0, 12, cr0, cr4, cr14, {0}
